; Listing generated by Microsoft (R) Optimizing Compiler Version 19.28.29335.0 

	TITLE	D:\Metin2 Server Files\mainline\SRC_2014\Metin2Client\EterLib\GrpScreen.cpp
	.686P
	.XMM
	include listing.inc
	.model	flat

INCLUDELIB LIBCMT
INCLUDELIB OLDNAMES

PUBLIC	?ms_diffuseColor@CScreen@@1KA			; CScreen::ms_diffuseColor
PUBLIC	?ms_clearColor@CScreen@@1KA			; CScreen::ms_clearColor
PUBLIC	?ms_clearStencil@CScreen@@1KA			; CScreen::ms_clearStencil
PUBLIC	?ms_clearDepth@CScreen@@1MA			; CScreen::ms_clearDepth
_BSS	SEGMENT
?ms_clearColor@CScreen@@1KA DD 01H DUP (?)		; CScreen::ms_clearColor
?ms_clearStencil@CScreen@@1KA DD 01H DUP (?)		; CScreen::ms_clearStencil
_BSS	ENDS
_DATA	SEGMENT
?ms_diffuseColor@CScreen@@1KA DD 0ffffffffH		; CScreen::ms_diffuseColor
?ms_clearDepth@CScreen@@1MA DD 03f800000r	; 1	; CScreen::ms_clearDepth
_DATA	ENDS
PUBLIC	??_H@YGXPAXIIP6EPAX0@Z@Z			; `vector constructor iterator'
PUBLIC	??0exception@std@@QAE@ABV01@@Z			; std::exception::exception
PUBLIC	?what@exception@std@@UBEPBDXZ			; std::exception::what
PUBLIC	??_Gexception@std@@UAEPAXI@Z			; std::exception::`scalar deleting destructor'
PUBLIC	??0bad_alloc@std@@QAE@ABV01@@Z			; std::bad_alloc::bad_alloc
PUBLIC	??_Gbad_alloc@std@@UAEPAXI@Z			; std::bad_alloc::`scalar deleting destructor'
PUBLIC	??0bad_array_new_length@std@@QAE@XZ		; std::bad_array_new_length::bad_array_new_length
PUBLIC	??1bad_array_new_length@std@@UAE@XZ		; std::bad_array_new_length::~bad_array_new_length
PUBLIC	??0bad_array_new_length@std@@QAE@ABV01@@Z	; std::bad_array_new_length::bad_array_new_length
PUBLIC	??_Gbad_array_new_length@std@@UAEPAXI@Z		; std::bad_array_new_length::`scalar deleting destructor'
PUBLIC	?_Throw_bad_array_new_length@std@@YAXXZ		; std::_Throw_bad_array_new_length
PUBLIC	?_Adjust_manually_vector_aligned@std@@YAXAAPAXAAI@Z ; std::_Adjust_manually_vector_aligned
PUBLIC	??$_Deallocate@$07$0A@@std@@YAXPAXI@Z		; std::_Deallocate<8,0>
PUBLIC	??$_Allocate@$07U_Default_allocate_traits@std@@$0A@@std@@YAPAXI@Z ; std::_Allocate<8,std::_Default_allocate_traits,0>
PUBLIC	??$_Allocate_manually_vector_aligned@U_Default_allocate_traits@std@@@std@@YAPAXI@Z ; std::_Allocate_manually_vector_aligned<std::_Default_allocate_traits>
PUBLIC	?SetDirection@CRay@@QAEXABUD3DXVECTOR3@@M@Z	; CRay::SetDirection
PUBLIC	??0CScreen@@QAE@XZ				; CScreen::CScreen
PUBLIC	??1CScreen@@UAE@XZ				; CScreen::~CScreen
PUBLIC	?ClearDepthBuffer@CScreen@@QAEXXZ		; CScreen::ClearDepthBuffer
PUBLIC	?Clear@CScreen@@QAEXXZ				; CScreen::Clear
PUBLIC	?Begin@CScreen@@QAE_NXZ				; CScreen::Begin
PUBLIC	?End@CScreen@@QAEXXZ				; CScreen::End
PUBLIC	?Show@CScreen@@QAEXPAUHWND__@@@Z		; CScreen::Show
PUBLIC	?Show@CScreen@@QAEXPAUtagRECT@@@Z		; CScreen::Show
PUBLIC	?Show@CScreen@@QAEXPAUtagRECT@@PAUHWND__@@@Z	; CScreen::Show
PUBLIC	?RenderLine2d@CScreen@@QAEXMMMMM@Z		; CScreen::RenderLine2d
PUBLIC	?RenderBox2d@CScreen@@QAEXMMMMM@Z		; CScreen::RenderBox2d
PUBLIC	?RenderBar2d@CScreen@@QAEXMMMMM@Z		; CScreen::RenderBar2d
PUBLIC	?RenderGradationBar2d@CScreen@@QAEXMMMMKKM@Z	; CScreen::RenderGradationBar2d
PUBLIC	?RenderCircle2d@CScreen@@QAEXMMMMH@Z		; CScreen::RenderCircle2d
PUBLIC	?RenderCircle3d@CScreen@@QAEXMMMMH@Z		; CScreen::RenderCircle3d
PUBLIC	?RenderLine3d@CScreen@@QAEXMMMMMM@Z		; CScreen::RenderLine3d
PUBLIC	?RenderBox3d@CScreen@@QAEXMMMMMM@Z		; CScreen::RenderBox3d
PUBLIC	?RenderBar3d@CScreen@@QAEXMMMMMM@Z		; CScreen::RenderBar3d
PUBLIC	?RenderBar3d@CScreen@@QAEXPBUD3DXVECTOR3@@@Z	; CScreen::RenderBar3d
PUBLIC	?RenderGradationBar3d@CScreen@@QAEXMMMMMMKK@Z	; CScreen::RenderGradationBar3d
PUBLIC	?RenderLineCube@CScreen@@QAEXMMMMMM@Z		; CScreen::RenderLineCube
PUBLIC	?RenderCube@CScreen@@QAEXMMMMMM@Z		; CScreen::RenderCube
PUBLIC	?RenderCube@CScreen@@QAEXMMMMMMUD3DXMATRIX@@@Z	; CScreen::RenderCube
PUBLIC	?RenderTextureBox@CScreen@@QAEXMMMMMMMMM@Z	; CScreen::RenderTextureBox
PUBLIC	?RenderBillboard@CScreen@@QAEXPAUD3DXVECTOR3@@AAUD3DXCOLOR@@@Z ; CScreen::RenderBillboard
PUBLIC	?DrawMinorGrid@CScreen@@QAEXMMMMMMM@Z		; CScreen::DrawMinorGrid
PUBLIC	?DrawGrid@CScreen@@QAEXMMMMMMMMM@Z		; CScreen::DrawGrid
PUBLIC	?RenderD3DXMesh@CScreen@@QAEXPAUID3DXMesh@@PBUD3DXMATRIX@@MMMMW4_D3DFILLMODE@@@Z ; CScreen::RenderD3DXMesh
PUBLIC	?RenderSphere@CScreen@@QAEXPBUD3DXMATRIX@@MMMMW4_D3DFILLMODE@@@Z ; CScreen::RenderSphere
PUBLIC	?RenderCylinder@CScreen@@QAEXPBUD3DXMATRIX@@MMMMMW4_D3DFILLMODE@@@Z ; CScreen::RenderCylinder
PUBLIC	?SetColorOperation@CScreen@@QAEXXZ		; CScreen::SetColorOperation
PUBLIC	?SetDiffuseOperation@CScreen@@QAEXXZ		; CScreen::SetDiffuseOperation
PUBLIC	?SetBlendOperation@CScreen@@QAEXXZ		; CScreen::SetBlendOperation
PUBLIC	?SetOneColorOperation@CScreen@@QAEXAAUD3DXCOLOR@@@Z ; CScreen::SetOneColorOperation
PUBLIC	?SetAddColorOperation@CScreen@@QAEXAAUD3DXCOLOR@@@Z ; CScreen::SetAddColorOperation
PUBLIC	?SetDiffuseColor@CScreen@@QAEXK@Z		; CScreen::SetDiffuseColor
PUBLIC	?SetDiffuseColor@CScreen@@QAEXMMMM@Z		; CScreen::SetDiffuseColor
PUBLIC	?SetClearColor@CScreen@@QAEXMMMM@Z		; CScreen::SetClearColor
PUBLIC	?SetClearDepth@CScreen@@QAEXM@Z			; CScreen::SetClearDepth
PUBLIC	?SetClearStencil@CScreen@@QAEXK@Z		; CScreen::SetClearStencil
PUBLIC	?SetCursorPosition@CScreen@@QAEXHHHH@Z		; CScreen::SetCursorPosition
PUBLIC	?GetCursorPosition@CScreen@@QAE_NPAM00@Z	; CScreen::GetCursorPosition
PUBLIC	?GetCursorXYPosition@CScreen@@QAE_NPAM0@Z	; CScreen::GetCursorXYPosition
PUBLIC	?GetCursorZPosition@CScreen@@QAE_NPAM@Z		; CScreen::GetCursorZPosition
PUBLIC	?GetPickingPosition@CScreen@@QAEXMPAM00@Z	; CScreen::GetPickingPosition
PUBLIC	?ProjectPosition@CScreen@@QAEXMMMPAM0@Z		; CScreen::ProjectPosition
PUBLIC	?ProjectPosition@CScreen@@QAEXMMMPAM00@Z	; CScreen::ProjectPosition
PUBLIC	?UnprojectPosition@CScreen@@QAEXMMMPAM00@Z	; CScreen::UnprojectPosition
PUBLIC	?IsLostDevice@CScreen@@QAEHXZ			; CScreen::IsLostDevice
PUBLIC	?RestoreDevice@CScreen@@QAEHXZ			; CScreen::RestoreDevice
PUBLIC	?BuildViewFrustum@CScreen@@QAEXXZ		; CScreen::BuildViewFrustum
PUBLIC	?Identity@CScreen@@SAXXZ			; CScreen::Identity
PUBLIC	??_GCScreen@@UAEPAXI@Z				; CScreen::`scalar deleting destructor'
PUBLIC	?deallocate@?$allocator@UD3DXVECTOR3@@@std@@QAEXQAUD3DXVECTOR3@@I@Z ; std::allocator<D3DXVECTOR3>::deallocate
PUBLIC	??1?$vector@UD3DXVECTOR3@@V?$allocator@UD3DXVECTOR3@@@std@@@std@@QAE@XZ ; std::vector<D3DXVECTOR3,std::allocator<D3DXVECTOR3> >::~vector<D3DXVECTOR3,std::allocator<D3DXVECTOR3> >
PUBLIC	?clear@?$vector@UD3DXVECTOR3@@V?$allocator@UD3DXVECTOR3@@@std@@@std@@QAEXXZ ; std::vector<D3DXVECTOR3,std::allocator<D3DXVECTOR3> >::clear
PUBLIC	?_Destroy@?$vector@UD3DXVECTOR3@@V?$allocator@UD3DXVECTOR3@@@std@@@std@@AAEXPAUD3DXVECTOR3@@0@Z ; std::vector<D3DXVECTOR3,std::allocator<D3DXVECTOR3> >::_Destroy
PUBLIC	?_Calculate_growth@?$vector@UD3DXVECTOR3@@V?$allocator@UD3DXVECTOR3@@@std@@@std@@ABEII@Z ; std::vector<D3DXVECTOR3,std::allocator<D3DXVECTOR3> >::_Calculate_growth
PUBLIC	?_Change_array@?$vector@UD3DXVECTOR3@@V?$allocator@UD3DXVECTOR3@@@std@@@std@@AAEXQAUD3DXVECTOR3@@II@Z ; std::vector<D3DXVECTOR3,std::allocator<D3DXVECTOR3> >::_Change_array
PUBLIC	?_Tidy@?$vector@UD3DXVECTOR3@@V?$allocator@UD3DXVECTOR3@@@std@@@std@@AAEXXZ ; std::vector<D3DXVECTOR3,std::allocator<D3DXVECTOR3> >::_Tidy
PUBLIC	?_Xlength@?$vector@UD3DXVECTOR3@@V?$allocator@UD3DXVECTOR3@@@std@@@std@@CAXXZ ; std::vector<D3DXVECTOR3,std::allocator<D3DXVECTOR3> >::_Xlength
PUBLIC	?_Getal@?$vector@UD3DXVECTOR3@@V?$allocator@UD3DXVECTOR3@@@std@@@std@@AAEAAV?$allocator@UD3DXVECTOR3@@@2@XZ ; std::vector<D3DXVECTOR3,std::allocator<D3DXVECTOR3> >::_Getal
PUBLIC	??0?$_Vector_val@U?$_Simple_types@UD3DXVECTOR3@@@std@@@std@@QAE@XZ ; std::_Vector_val<std::_Simple_types<D3DXVECTOR3> >::_Vector_val<std::_Simple_types<D3DXVECTOR3> >
PUBLIC	??0CD3DXMeshRenderingOption@@QAE@W4_D3DFILLMODE@@ABUD3DXMATRIX@@@Z ; CD3DXMeshRenderingOption::CD3DXMeshRenderingOption
PUBLIC	??1CD3DXMeshRenderingOption@@UAE@XZ		; CD3DXMeshRenderingOption::~CD3DXMeshRenderingOption
PUBLIC	??_GCD3DXMeshRenderingOption@@UAEPAXI@Z		; CD3DXMeshRenderingOption::`scalar deleting destructor'
PUBLIC	??$_Resize@U_Value_init_tag@std@@@?$vector@UD3DXVECTOR3@@V?$allocator@UD3DXVECTOR3@@@std@@@std@@AAEXIABU_Value_init_tag@1@@Z ; std::vector<D3DXVECTOR3,std::allocator<D3DXVECTOR3> >::_Resize<std::_Value_init_tag>
PUBLIC	??$_Destroy_range@V?$allocator@UD3DXVECTOR3@@@std@@@std@@YAXPAUD3DXVECTOR3@@QAU1@AAV?$allocator@UD3DXVECTOR3@@@0@@Z ; std::_Destroy_range<std::allocator<D3DXVECTOR3> >
PUBLIC	??$_Resize_reallocate@U_Value_init_tag@std@@@?$vector@UD3DXVECTOR3@@V?$allocator@UD3DXVECTOR3@@@std@@@std@@AAEXIABU_Value_init_tag@1@@Z ; std::vector<D3DXVECTOR3,std::allocator<D3DXVECTOR3> >::_Resize_reallocate<std::_Value_init_tag>
PUBLIC	??$_Uninitialized_value_construct_n@V?$allocator@UD3DXVECTOR3@@@std@@@std@@YAPAUD3DXVECTOR3@@PAU1@IAAV?$allocator@UD3DXVECTOR3@@@0@@Z ; std::_Uninitialized_value_construct_n<std::allocator<D3DXVECTOR3> >
PUBLIC	??$_Uninitialized_move@PAUD3DXVECTOR3@@V?$allocator@UD3DXVECTOR3@@@std@@@std@@YAPAUD3DXVECTOR3@@QAU1@0PAU1@AAV?$allocator@UD3DXVECTOR3@@@0@@Z ; std::_Uninitialized_move<D3DXVECTOR3 *,std::allocator<D3DXVECTOR3> >
PUBLIC	??_7exception@std@@6B@				; std::exception::`vftable'
PUBLIC	??_C@_0BC@EOODALEL@Unknown?5exception@		; `string'
PUBLIC	??_7bad_alloc@std@@6B@				; std::bad_alloc::`vftable'
PUBLIC	??_7bad_array_new_length@std@@6B@		; std::bad_array_new_length::`vftable'
PUBLIC	??_C@_0BF@KINCDENJ@bad?5array?5new?5length@	; `string'
PUBLIC	__TI3?AVbad_array_new_length@std@@
PUBLIC	__CTA3?AVbad_array_new_length@std@@
PUBLIC	??_R0?AVbad_array_new_length@std@@@8		; std::bad_array_new_length `RTTI Type Descriptor'
PUBLIC	__CT??_R0?AVbad_array_new_length@std@@@8??0bad_array_new_length@std@@QAE@ABV01@@Z12
PUBLIC	??_R0?AVbad_alloc@std@@@8			; std::bad_alloc `RTTI Type Descriptor'
PUBLIC	__CT??_R0?AVbad_alloc@std@@@8??0bad_alloc@std@@QAE@ABV01@@Z12
PUBLIC	??_R0?AVexception@std@@@8			; std::exception `RTTI Type Descriptor'
PUBLIC	__CT??_R0?AVexception@std@@@8??0exception@std@@QAE@ABV01@@Z12
PUBLIC	??_R4exception@std@@6B@				; std::exception::`RTTI Complete Object Locator'
PUBLIC	??_R3exception@std@@8				; std::exception::`RTTI Class Hierarchy Descriptor'
PUBLIC	??_R2exception@std@@8				; std::exception::`RTTI Base Class Array'
PUBLIC	??_R1A@?0A@EA@exception@std@@8			; std::exception::`RTTI Base Class Descriptor at (0,-1,0,64)'
PUBLIC	??_R4bad_alloc@std@@6B@				; std::bad_alloc::`RTTI Complete Object Locator'
PUBLIC	??_R3bad_alloc@std@@8				; std::bad_alloc::`RTTI Class Hierarchy Descriptor'
PUBLIC	??_R2bad_alloc@std@@8				; std::bad_alloc::`RTTI Base Class Array'
PUBLIC	??_R1A@?0A@EA@bad_alloc@std@@8			; std::bad_alloc::`RTTI Base Class Descriptor at (0,-1,0,64)'
PUBLIC	??_R4bad_array_new_length@std@@6B@		; std::bad_array_new_length::`RTTI Complete Object Locator'
PUBLIC	??_R3bad_array_new_length@std@@8		; std::bad_array_new_length::`RTTI Class Hierarchy Descriptor'
PUBLIC	??_R2bad_array_new_length@std@@8		; std::bad_array_new_length::`RTTI Base Class Array'
PUBLIC	??_R1A@?0A@EA@bad_array_new_length@std@@8	; std::bad_array_new_length::`RTTI Base Class Descriptor at (0,-1,0,64)'
PUBLIC	?ms_frustum@CScreen@@1VFrustum@@A		; CScreen::ms_frustum
PUBLIC	??_7CScreen@@6B@				; CScreen::`vftable'
PUBLIC	?ms_singleton@?$CSingleton@VCCameraManager@@@@0PAVCCameraManager@@A ; CSingleton<CCameraManager>::ms_singleton
PUBLIC	?ms_singleton@?$CSingleton@VCStateManager@@@@0PAVCStateManager@@A ; CSingleton<CStateManager>::ms_singleton
PUBLIC	??_7CD3DXMeshRenderingOption@@6B@		; CD3DXMeshRenderingOption::`vftable'
PUBLIC	??_C@_0BD@HBCJANMB@BeginScene?5FAILED?6@	; `string'
PUBLIC	??_C@_0BA@FOIKENOD@vector?5too?5long@		; `string'
PUBLIC	??_R4CScreen@@6B@				; CScreen::`RTTI Complete Object Locator'
PUBLIC	??_R0?AVCScreen@@@8				; CScreen `RTTI Type Descriptor'
PUBLIC	??_R3CScreen@@8					; CScreen::`RTTI Class Hierarchy Descriptor'
PUBLIC	??_R2CScreen@@8					; CScreen::`RTTI Base Class Array'
PUBLIC	??_R1A@?0A@EA@CScreen@@8			; CScreen::`RTTI Base Class Descriptor at (0,-1,0,64)'
PUBLIC	??_R1A@?0A@EA@CGraphicCollisionObject@@8	; CGraphicCollisionObject::`RTTI Base Class Descriptor at (0,-1,0,64)'
PUBLIC	??_R0?AVCGraphicCollisionObject@@@8		; CGraphicCollisionObject `RTTI Type Descriptor'
PUBLIC	??_R3CGraphicCollisionObject@@8			; CGraphicCollisionObject::`RTTI Class Hierarchy Descriptor'
PUBLIC	??_R2CGraphicCollisionObject@@8			; CGraphicCollisionObject::`RTTI Base Class Array'
PUBLIC	??_R1A@?0A@EA@CGraphicBase@@8			; CGraphicBase::`RTTI Base Class Descriptor at (0,-1,0,64)'
PUBLIC	??_R0?AVCGraphicBase@@@8			; CGraphicBase `RTTI Type Descriptor'
PUBLIC	??_R3CGraphicBase@@8				; CGraphicBase::`RTTI Class Hierarchy Descriptor'
PUBLIC	??_R2CGraphicBase@@8				; CGraphicBase::`RTTI Base Class Array'
PUBLIC	??_R4CD3DXMeshRenderingOption@@6B@		; CD3DXMeshRenderingOption::`RTTI Complete Object Locator'
PUBLIC	??_R0?AVCD3DXMeshRenderingOption@@@8		; CD3DXMeshRenderingOption `RTTI Type Descriptor'
PUBLIC	??_R3CD3DXMeshRenderingOption@@8		; CD3DXMeshRenderingOption::`RTTI Class Hierarchy Descriptor'
PUBLIC	??_R2CD3DXMeshRenderingOption@@8		; CD3DXMeshRenderingOption::`RTTI Base Class Array'
PUBLIC	??_R1A@?0A@EA@CD3DXMeshRenderingOption@@8	; CD3DXMeshRenderingOption::`RTTI Base Class Descriptor at (0,-1,0,64)'
PUBLIC	__real@3f000000
PUBLIC	__real@3f333333
PUBLIC	__real@3f800000
PUBLIC	__real@40000000
PUBLIC	__real@40c90fdb
PUBLIC	__real@437f0000
PUBLIC	__real@47480000
PUBLIC	__real@4caba950
PUBLIC	__xmm@80000000800000008000000080000000
EXTRN	??2@YAPAXI@Z:PROC				; operator new
EXTRN	??3@YAXPAXI@Z:PROC				; operator delete
EXTRN	__invalid_parameter_noinfo_noreturn:PROC
EXTRN	_cos:PROC
EXTRN	_sin:PROC
EXTRN	_D3DXVec3Normalize@8:PROC
EXTRN	_D3DXVec3TransformCoord@12:PROC
EXTRN	_D3DXVec3Project@24:PROC
EXTRN	_D3DXVec3Unproject@24:PROC
EXTRN	_D3DXMatrixMultiply@12:PROC
EXTRN	_D3DXMatrixScaling@16:PROC
EXTRN	_D3DXMatrixTranslation@16:PROC
EXTRN	___std_exception_copy:PROC
EXTRN	___std_exception_destroy:PROC
EXTRN	??_Eexception@std@@UAEPAXI@Z:PROC		; std::exception::`vector deleting destructor'
EXTRN	??_Ebad_alloc@std@@UAEPAXI@Z:PROC		; std::bad_alloc::`vector deleting destructor'
EXTRN	??_Ebad_array_new_length@std@@UAEPAXI@Z:PROC	; std::bad_array_new_length::`vector deleting destructor'
EXTRN	?_Xlength_error@std@@YAXPBD@Z:PROC		; std::_Xlength_error
EXTRN	?Tracenf@@YAXPBDZZ:PROC				; Tracenf
EXTRN	?GetDesktopD3DDisplayModer@D3D_CAdapterInfo@@QAEAAU_D3DDISPLAYMODE@@XZ:PROC ; D3D_CAdapterInfo::GetDesktopD3DDisplayModer
EXTRN	?GetD3DAdapterInfop@D3D_CDisplayModeAutoDetector@@QAEPAVD3D_CAdapterInfo@@I@Z:PROC ; D3D_CDisplayModeAutoDetector::GetD3DAdapterInfop
EXTRN	?GetColor@CGraphicBase@@QAEKMMMM@Z:PROC		; CGraphicBase::GetColor
EXTRN	?ResetFaceCount@CGraphicBase@@QAEXXZ:PROC	; CGraphicBase::ResetFaceCount
EXTRN	?SetDefaultIndexBuffer@CGraphicBase@@SAXI@Z:PROC ; CGraphicBase::SetDefaultIndexBuffer
EXTRN	?SetPDTStream@CGraphicBase@@SA_NPAUSPDTVertexRaw@@I@Z:PROC ; CGraphicBase::SetPDTStream
EXTRN	?SetPDTStream@CGraphicBase@@SA_NPAUSPDTVertex@@I@Z:PROC ; CGraphicBase::SetPDTStream
EXTRN	??0CGraphicCollisionObject@@QAE@XZ:PROC		; CGraphicCollisionObject::CGraphicCollisionObject
EXTRN	??1CGraphicCollisionObject@@UAE@XZ:PROC		; CGraphicCollisionObject::~CGraphicCollisionObject
EXTRN	?IntersectTriangle@CGraphicCollisionObject@@IAE_NABUD3DXVECTOR3@@0000PAM11@Z:PROC ; CGraphicCollisionObject::IntersectTriangle
EXTRN	?BuildViewFrustum2@Frustum@@QAEXAAUD3DXMATRIX@@MMMMABUD3DXVECTOR3@@1@Z:PROC ; Frustum::BuildViewFrustum2
EXTRN	??_ECScreen@@UAEPAXI@Z:PROC			; CScreen::`vector deleting destructor'
EXTRN	?GetCurrentCamera@CCameraManager@@QAEPAVCCamera@@XZ:PROC ; CCameraManager::GetCurrentCamera
EXTRN	?SetDefaultState@CStateManager@@QAEXXZ:PROC	; CStateManager::SetDefaultState
EXTRN	?BeginScene@CStateManager@@QAE_NXZ:PROC		; CStateManager::BeginScene
EXTRN	?EndScene@CStateManager@@QAEXXZ:PROC		; CStateManager::EndScene
EXTRN	?SetRenderState@CStateManager@@QAEXW4_D3DRENDERSTATETYPE@@K@Z:PROC ; CStateManager::SetRenderState
EXTRN	?SetTexture@CStateManager@@QAEXKPAUIDirect3DBaseTexture8@@@Z:PROC ; CStateManager::SetTexture
EXTRN	?SaveTextureStageState@CStateManager@@QAEXKW4_D3DTEXTURESTAGESTATETYPE@@K@Z:PROC ; CStateManager::SaveTextureStageState
EXTRN	?RestoreTextureStageState@CStateManager@@QAEXKW4_D3DTEXTURESTAGESTATETYPE@@@Z:PROC ; CStateManager::RestoreTextureStageState
EXTRN	?SetTextureStageState@CStateManager@@QAEXKW4_D3DTEXTURESTAGESTATETYPE@@K@Z:PROC ; CStateManager::SetTextureStageState
EXTRN	?SetVertexShader@CStateManager@@QAEXK@Z:PROC	; CStateManager::SetVertexShader
EXTRN	?SaveTransform@CStateManager@@QAEXW4_D3DTRANSFORMSTATETYPE@@PBU_D3DMATRIX@@@Z:PROC ; CStateManager::SaveTransform
EXTRN	?RestoreTransform@CStateManager@@QAEXW4_D3DTRANSFORMSTATETYPE@@@Z:PROC ; CStateManager::RestoreTransform
EXTRN	?SetTransform@CStateManager@@QAEXW4_D3DTRANSFORMSTATETYPE@@PBU_D3DMATRIX@@@Z:PROC ; CStateManager::SetTransform
EXTRN	?SetStreamSource@CStateManager@@QAEXIPAUIDirect3DVertexBuffer8@@I@Z:PROC ; CStateManager::SetStreamSource
EXTRN	?SetIndices@CStateManager@@QAEXPAUIDirect3DIndexBuffer8@@I@Z:PROC ; CStateManager::SetIndices
EXTRN	?DrawPrimitive@CStateManager@@QAEJW4_D3DPRIMITIVETYPE@@II@Z:PROC ; CStateManager::DrawPrimitive
EXTRN	?DrawIndexedPrimitive@CStateManager@@QAEJW4_D3DPRIMITIVETYPE@@IIII@Z:PROC ; CStateManager::DrawIndexedPrimitive
EXTRN	??_ECD3DXMeshRenderingOption@@UAEPAXI@Z:PROC	; CD3DXMeshRenderingOption::`vector deleting destructor'
EXTRN	@__security_check_cookie@4:PROC
EXTRN	__CxxThrowException@8:PROC
EXTRN	___CxxFrameHandler3:PROC
EXTRN	__ftoui3:PROC
EXTRN	??_7type_info@@6B@:QWORD			; type_info::`vftable'
EXTRN	?ms_matIdentity@CGraphicBase@@1UD3DXMATRIX@@A:BYTE ; CGraphicBase::ms_matIdentity
EXTRN	?ms_matView@CGraphicBase@@1UD3DXMATRIX@@A:BYTE	; CGraphicBase::ms_matView
EXTRN	?ms_matProj@CGraphicBase@@1UD3DXMATRIX@@A:BYTE	; CGraphicBase::ms_matProj
EXTRN	?ms_matInverseView@CGraphicBase@@1UD3DXMATRIX@@A:BYTE ; CGraphicBase::ms_matInverseView
EXTRN	?ms_matWorld@CGraphicBase@@1UD3DXMATRIX@@A:BYTE	; CGraphicBase::ms_matWorld
EXTRN	?ms_lpSphereMesh@CGraphicBase@@1PAUID3DXMesh@@A:DWORD ; CGraphicBase::ms_lpSphereMesh
EXTRN	?ms_lpCylinderMesh@CGraphicBase@@1PAUID3DXMesh@@A:DWORD ; CGraphicBase::ms_lpCylinderMesh
EXTRN	?ms_iD3DAdapterInfo@CGraphicBase@@1IA:DWORD	; CGraphicBase::ms_iD3DAdapterInfo
EXTRN	?ms_kD3DDetector@CGraphicBase@@1VD3D_CDisplayModeAutoDetector@@A:BYTE ; CGraphicBase::ms_kD3DDetector
EXTRN	?ms_lpd3d@CGraphicBase@@1PAUIDirect3D8@@A:DWORD	; CGraphicBase::ms_lpd3d
EXTRN	?ms_lpd3dDevice@CGraphicBase@@1PAUIDirect3DDevice8@@A:DWORD ; CGraphicBase::ms_lpd3dDevice
EXTRN	?ms_lpd3dMatStack@CGraphicBase@@1PAUID3DXMatrixStack@@A:DWORD ; CGraphicBase::ms_lpd3dMatStack
EXTRN	?ms_Viewport@CGraphicBase@@1U_D3DVIEWPORT8@@A:BYTE ; CGraphicBase::ms_Viewport
EXTRN	?ms_d3dPresentParameter@CGraphicBase@@1U_D3DPRESENT_PARAMETERS_@@A:BYTE ; CGraphicBase::ms_d3dPresentParameter
EXTRN	?ms_vtPickRayOrig@CGraphicBase@@1UD3DXVECTOR3@@A:BYTE ; CGraphicBase::ms_vtPickRayOrig
EXTRN	?ms_vtPickRayDir@CGraphicBase@@1UD3DXVECTOR3@@A:BYTE ; CGraphicBase::ms_vtPickRayDir
EXTRN	?ms_fFieldOfView@CGraphicBase@@1MA:DWORD	; CGraphicBase::ms_fFieldOfView
EXTRN	?ms_fAspect@CGraphicBase@@1MA:DWORD		; CGraphicBase::ms_fAspect
EXTRN	?ms_fNearY@CGraphicBase@@1MA:DWORD		; CGraphicBase::ms_fNearY
EXTRN	?ms_fFarY@CGraphicBase@@1MA:DWORD		; CGraphicBase::ms_fFarY
EXTRN	?ms_Ray@CGraphicBase@@1VCRay@@A:BYTE		; CGraphicBase::ms_Ray
EXTRN	?GRAPHICS_CAPS_CAN_NOT_DRAW_LINE@@3_NA:BYTE	; GRAPHICS_CAPS_CAN_NOT_DRAW_LINE
EXTRN	?g_isBrowserMode@@3_NA:BYTE			; g_isBrowserMode
EXTRN	?g_rcBrowser@@3UtagRECT@@A:BYTE			; g_rcBrowser
EXTRN	___security_cookie:DWORD
EXTRN	__fltused:DWORD
_BSS	SEGMENT
?ms_frustum@CScreen@@1VFrustum@@A DB 074H DUP (?)	; CScreen::ms_frustum
_BSS	ENDS
;	COMDAT ?ms_singleton@?$CSingleton@VCCameraManager@@@@0PAVCCameraManager@@A
_BSS	SEGMENT
?ms_singleton@?$CSingleton@VCCameraManager@@@@0PAVCCameraManager@@A DD 01H DUP (?) ; CSingleton<CCameraManager>::ms_singleton
_BSS	ENDS
;	COMDAT ?ms_singleton@?$CSingleton@VCStateManager@@@@0PAVCStateManager@@A
_BSS	SEGMENT
?ms_singleton@?$CSingleton@VCStateManager@@@@0PAVCStateManager@@A DD 01H DUP (?) ; CSingleton<CStateManager>::ms_singleton
_BSS	ENDS
CRT$XCU	SEGMENT
??ms_frustum$initializer$@CScreen@@1P6AXXZA@@3P6AXXZA DD FLAT:??__E?ms_frustum@CScreen@@1VFrustum@@A@@YAXXZ ; ??ms_frustum$initializer$@CScreen@@1P6AXXZA@@3P6AXXZA
CRT$XCU	ENDS
;	COMDAT __xmm@80000000800000008000000080000000
CONST	SEGMENT
__xmm@80000000800000008000000080000000 DB 00H, 00H, 00H, 080H, 00H, 00H, 00H
	DB	080H, 00H, 00H, 00H, 080H, 00H, 00H, 00H, 080H
CONST	ENDS
;	COMDAT __real@4caba950
CONST	SEGMENT
__real@4caba950 DD 04caba950r			; 9e+07
CONST	ENDS
;	COMDAT __real@47480000
CONST	SEGMENT
__real@47480000 DD 047480000r			; 51200
CONST	ENDS
;	COMDAT __real@437f0000
CONST	SEGMENT
__real@437f0000 DD 0437f0000r			; 255
CONST	ENDS
;	COMDAT __real@40c90fdb
CONST	SEGMENT
__real@40c90fdb DD 040c90fdbr			; 6.28319
CONST	ENDS
;	COMDAT __real@40000000
CONST	SEGMENT
__real@40000000 DD 040000000r			; 2
CONST	ENDS
;	COMDAT __real@3f800000
CONST	SEGMENT
__real@3f800000 DD 03f800000r			; 1
CONST	ENDS
;	COMDAT __real@3f333333
CONST	SEGMENT
__real@3f333333 DD 03f333333r			; 0.7
CONST	ENDS
;	COMDAT __real@3f000000
CONST	SEGMENT
__real@3f000000 DD 03f000000r			; 0.5
CONST	ENDS
;	COMDAT ??_R1A@?0A@EA@CD3DXMeshRenderingOption@@8
rdata$r	SEGMENT
??_R1A@?0A@EA@CD3DXMeshRenderingOption@@8 DD FLAT:??_R0?AVCD3DXMeshRenderingOption@@@8 ; CD3DXMeshRenderingOption::`RTTI Base Class Descriptor at (0,-1,0,64)'
	DD	03H
	DD	00H
	DD	0ffffffffH
	DD	00H
	DD	040H
	DD	FLAT:??_R3CD3DXMeshRenderingOption@@8
rdata$r	ENDS
;	COMDAT ??_R2CD3DXMeshRenderingOption@@8
rdata$r	SEGMENT
??_R2CD3DXMeshRenderingOption@@8 DD FLAT:??_R1A@?0A@EA@CD3DXMeshRenderingOption@@8 ; CD3DXMeshRenderingOption::`RTTI Base Class Array'
	DD	FLAT:??_R1A@?0A@EA@CScreen@@8
	DD	FLAT:??_R1A@?0A@EA@CGraphicCollisionObject@@8
	DD	FLAT:??_R1A@?0A@EA@CGraphicBase@@8
rdata$r	ENDS
;	COMDAT ??_R3CD3DXMeshRenderingOption@@8
rdata$r	SEGMENT
??_R3CD3DXMeshRenderingOption@@8 DD 00H			; CD3DXMeshRenderingOption::`RTTI Class Hierarchy Descriptor'
	DD	00H
	DD	04H
	DD	FLAT:??_R2CD3DXMeshRenderingOption@@8
rdata$r	ENDS
;	COMDAT ??_R0?AVCD3DXMeshRenderingOption@@@8
data$rs	SEGMENT
??_R0?AVCD3DXMeshRenderingOption@@@8 DD FLAT:??_7type_info@@6B@ ; CD3DXMeshRenderingOption `RTTI Type Descriptor'
	DD	00H
	DB	'.?AVCD3DXMeshRenderingOption@@', 00H
data$rs	ENDS
;	COMDAT ??_R4CD3DXMeshRenderingOption@@6B@
rdata$r	SEGMENT
??_R4CD3DXMeshRenderingOption@@6B@ DD 00H		; CD3DXMeshRenderingOption::`RTTI Complete Object Locator'
	DD	00H
	DD	00H
	DD	FLAT:??_R0?AVCD3DXMeshRenderingOption@@@8
	DD	FLAT:??_R3CD3DXMeshRenderingOption@@8
rdata$r	ENDS
;	COMDAT ??_R2CGraphicBase@@8
rdata$r	SEGMENT
??_R2CGraphicBase@@8 DD FLAT:??_R1A@?0A@EA@CGraphicBase@@8 ; CGraphicBase::`RTTI Base Class Array'
rdata$r	ENDS
;	COMDAT ??_R3CGraphicBase@@8
rdata$r	SEGMENT
??_R3CGraphicBase@@8 DD 00H				; CGraphicBase::`RTTI Class Hierarchy Descriptor'
	DD	00H
	DD	01H
	DD	FLAT:??_R2CGraphicBase@@8
rdata$r	ENDS
;	COMDAT ??_R0?AVCGraphicBase@@@8
data$rs	SEGMENT
??_R0?AVCGraphicBase@@@8 DD FLAT:??_7type_info@@6B@	; CGraphicBase `RTTI Type Descriptor'
	DD	00H
	DB	'.?AVCGraphicBase@@', 00H
data$rs	ENDS
;	COMDAT ??_R1A@?0A@EA@CGraphicBase@@8
rdata$r	SEGMENT
??_R1A@?0A@EA@CGraphicBase@@8 DD FLAT:??_R0?AVCGraphicBase@@@8 ; CGraphicBase::`RTTI Base Class Descriptor at (0,-1,0,64)'
	DD	00H
	DD	00H
	DD	0ffffffffH
	DD	00H
	DD	040H
	DD	FLAT:??_R3CGraphicBase@@8
rdata$r	ENDS
;	COMDAT ??_R2CGraphicCollisionObject@@8
rdata$r	SEGMENT
??_R2CGraphicCollisionObject@@8 DD FLAT:??_R1A@?0A@EA@CGraphicCollisionObject@@8 ; CGraphicCollisionObject::`RTTI Base Class Array'
	DD	FLAT:??_R1A@?0A@EA@CGraphicBase@@8
rdata$r	ENDS
;	COMDAT ??_R3CGraphicCollisionObject@@8
rdata$r	SEGMENT
??_R3CGraphicCollisionObject@@8 DD 00H			; CGraphicCollisionObject::`RTTI Class Hierarchy Descriptor'
	DD	00H
	DD	02H
	DD	FLAT:??_R2CGraphicCollisionObject@@8
rdata$r	ENDS
;	COMDAT ??_R0?AVCGraphicCollisionObject@@@8
data$rs	SEGMENT
??_R0?AVCGraphicCollisionObject@@@8 DD FLAT:??_7type_info@@6B@ ; CGraphicCollisionObject `RTTI Type Descriptor'
	DD	00H
	DB	'.?AVCGraphicCollisionObject@@', 00H
data$rs	ENDS
;	COMDAT ??_R1A@?0A@EA@CGraphicCollisionObject@@8
rdata$r	SEGMENT
??_R1A@?0A@EA@CGraphicCollisionObject@@8 DD FLAT:??_R0?AVCGraphicCollisionObject@@@8 ; CGraphicCollisionObject::`RTTI Base Class Descriptor at (0,-1,0,64)'
	DD	01H
	DD	00H
	DD	0ffffffffH
	DD	00H
	DD	040H
	DD	FLAT:??_R3CGraphicCollisionObject@@8
rdata$r	ENDS
;	COMDAT ??_R1A@?0A@EA@CScreen@@8
rdata$r	SEGMENT
??_R1A@?0A@EA@CScreen@@8 DD FLAT:??_R0?AVCScreen@@@8	; CScreen::`RTTI Base Class Descriptor at (0,-1,0,64)'
	DD	02H
	DD	00H
	DD	0ffffffffH
	DD	00H
	DD	040H
	DD	FLAT:??_R3CScreen@@8
rdata$r	ENDS
;	COMDAT ??_R2CScreen@@8
rdata$r	SEGMENT
??_R2CScreen@@8 DD FLAT:??_R1A@?0A@EA@CScreen@@8	; CScreen::`RTTI Base Class Array'
	DD	FLAT:??_R1A@?0A@EA@CGraphicCollisionObject@@8
	DD	FLAT:??_R1A@?0A@EA@CGraphicBase@@8
rdata$r	ENDS
;	COMDAT ??_R3CScreen@@8
rdata$r	SEGMENT
??_R3CScreen@@8 DD 00H					; CScreen::`RTTI Class Hierarchy Descriptor'
	DD	00H
	DD	03H
	DD	FLAT:??_R2CScreen@@8
rdata$r	ENDS
;	COMDAT ??_R0?AVCScreen@@@8
data$rs	SEGMENT
??_R0?AVCScreen@@@8 DD FLAT:??_7type_info@@6B@		; CScreen `RTTI Type Descriptor'
	DD	00H
	DB	'.?AVCScreen@@', 00H
data$rs	ENDS
;	COMDAT ??_R4CScreen@@6B@
rdata$r	SEGMENT
??_R4CScreen@@6B@ DD 00H				; CScreen::`RTTI Complete Object Locator'
	DD	00H
	DD	00H
	DD	FLAT:??_R0?AVCScreen@@@8
	DD	FLAT:??_R3CScreen@@8
rdata$r	ENDS
;	COMDAT ??_C@_0BA@FOIKENOD@vector?5too?5long@
CONST	SEGMENT
??_C@_0BA@FOIKENOD@vector?5too?5long@ DB 'vector too long', 00H ; `string'
CONST	ENDS
;	COMDAT ??_C@_0BD@HBCJANMB@BeginScene?5FAILED?6@
CONST	SEGMENT
??_C@_0BD@HBCJANMB@BeginScene?5FAILED?6@ DB 'BeginScene FAILED', 0aH, 00H ; `string'
CONST	ENDS
;	COMDAT ?sc_awFillRectIndices@?1??GetCursorZPosition@CScreen@@QAE_NPAM@Z@4QBGB
CONST	SEGMENT
?sc_awFillRectIndices@?1??GetCursorZPosition@CScreen@@QAE_NPAM@Z@4QBGB DW 00H ; `CScreen::GetCursorZPosition'::`2'::sc_awFillRectIndices
	DW	02H
	DW	01H
	DW	02H
	DW	03H
	DW	01H
CONST	ENDS
;	COMDAT ?sc_awFillRectIndices@?1??GetCursorXYPosition@CScreen@@QAE_NPAM0@Z@4QBGB
CONST	SEGMENT
?sc_awFillRectIndices@?1??GetCursorXYPosition@CScreen@@QAE_NPAM0@Z@4QBGB DW 00H ; `CScreen::GetCursorXYPosition'::`2'::sc_awFillRectIndices
	DW	02H
	DW	01H
	DW	02H
	DW	03H
	DW	01H
CONST	ENDS
;	COMDAT ??_7CD3DXMeshRenderingOption@@6B@
CONST	SEGMENT
??_7CD3DXMeshRenderingOption@@6B@ DD FLAT:??_R4CD3DXMeshRenderingOption@@6B@ ; CD3DXMeshRenderingOption::`vftable'
	DD	FLAT:??_ECD3DXMeshRenderingOption@@UAEPAXI@Z
CONST	ENDS
;	COMDAT ??_7CScreen@@6B@
CONST	SEGMENT
??_7CScreen@@6B@ DD FLAT:??_R4CScreen@@6B@		; CScreen::`vftable'
	DD	FLAT:??_ECScreen@@UAEPAXI@Z
CONST	ENDS
;	COMDAT ??_R1A@?0A@EA@bad_array_new_length@std@@8
rdata$r	SEGMENT
??_R1A@?0A@EA@bad_array_new_length@std@@8 DD FLAT:??_R0?AVbad_array_new_length@std@@@8 ; std::bad_array_new_length::`RTTI Base Class Descriptor at (0,-1,0,64)'
	DD	02H
	DD	00H
	DD	0ffffffffH
	DD	00H
	DD	040H
	DD	FLAT:??_R3bad_array_new_length@std@@8
rdata$r	ENDS
;	COMDAT ??_R2bad_array_new_length@std@@8
rdata$r	SEGMENT
??_R2bad_array_new_length@std@@8 DD FLAT:??_R1A@?0A@EA@bad_array_new_length@std@@8 ; std::bad_array_new_length::`RTTI Base Class Array'
	DD	FLAT:??_R1A@?0A@EA@bad_alloc@std@@8
	DD	FLAT:??_R1A@?0A@EA@exception@std@@8
rdata$r	ENDS
;	COMDAT ??_R3bad_array_new_length@std@@8
rdata$r	SEGMENT
??_R3bad_array_new_length@std@@8 DD 00H			; std::bad_array_new_length::`RTTI Class Hierarchy Descriptor'
	DD	00H
	DD	03H
	DD	FLAT:??_R2bad_array_new_length@std@@8
rdata$r	ENDS
;	COMDAT ??_R4bad_array_new_length@std@@6B@
rdata$r	SEGMENT
??_R4bad_array_new_length@std@@6B@ DD 00H		; std::bad_array_new_length::`RTTI Complete Object Locator'
	DD	00H
	DD	00H
	DD	FLAT:??_R0?AVbad_array_new_length@std@@@8
	DD	FLAT:??_R3bad_array_new_length@std@@8
rdata$r	ENDS
;	COMDAT ??_R1A@?0A@EA@bad_alloc@std@@8
rdata$r	SEGMENT
??_R1A@?0A@EA@bad_alloc@std@@8 DD FLAT:??_R0?AVbad_alloc@std@@@8 ; std::bad_alloc::`RTTI Base Class Descriptor at (0,-1,0,64)'
	DD	01H
	DD	00H
	DD	0ffffffffH
	DD	00H
	DD	040H
	DD	FLAT:??_R3bad_alloc@std@@8
rdata$r	ENDS
;	COMDAT ??_R2bad_alloc@std@@8
rdata$r	SEGMENT
??_R2bad_alloc@std@@8 DD FLAT:??_R1A@?0A@EA@bad_alloc@std@@8 ; std::bad_alloc::`RTTI Base Class Array'
	DD	FLAT:??_R1A@?0A@EA@exception@std@@8
rdata$r	ENDS
;	COMDAT ??_R3bad_alloc@std@@8
rdata$r	SEGMENT
??_R3bad_alloc@std@@8 DD 00H				; std::bad_alloc::`RTTI Class Hierarchy Descriptor'
	DD	00H
	DD	02H
	DD	FLAT:??_R2bad_alloc@std@@8
rdata$r	ENDS
;	COMDAT ??_R4bad_alloc@std@@6B@
rdata$r	SEGMENT
??_R4bad_alloc@std@@6B@ DD 00H				; std::bad_alloc::`RTTI Complete Object Locator'
	DD	00H
	DD	00H
	DD	FLAT:??_R0?AVbad_alloc@std@@@8
	DD	FLAT:??_R3bad_alloc@std@@8
rdata$r	ENDS
;	COMDAT ??_R1A@?0A@EA@exception@std@@8
rdata$r	SEGMENT
??_R1A@?0A@EA@exception@std@@8 DD FLAT:??_R0?AVexception@std@@@8 ; std::exception::`RTTI Base Class Descriptor at (0,-1,0,64)'
	DD	00H
	DD	00H
	DD	0ffffffffH
	DD	00H
	DD	040H
	DD	FLAT:??_R3exception@std@@8
rdata$r	ENDS
;	COMDAT ??_R2exception@std@@8
rdata$r	SEGMENT
??_R2exception@std@@8 DD FLAT:??_R1A@?0A@EA@exception@std@@8 ; std::exception::`RTTI Base Class Array'
rdata$r	ENDS
;	COMDAT ??_R3exception@std@@8
rdata$r	SEGMENT
??_R3exception@std@@8 DD 00H				; std::exception::`RTTI Class Hierarchy Descriptor'
	DD	00H
	DD	01H
	DD	FLAT:??_R2exception@std@@8
rdata$r	ENDS
;	COMDAT ??_R4exception@std@@6B@
rdata$r	SEGMENT
??_R4exception@std@@6B@ DD 00H				; std::exception::`RTTI Complete Object Locator'
	DD	00H
	DD	00H
	DD	FLAT:??_R0?AVexception@std@@@8
	DD	FLAT:??_R3exception@std@@8
rdata$r	ENDS
;	COMDAT __CT??_R0?AVexception@std@@@8??0exception@std@@QAE@ABV01@@Z12
xdata$x	SEGMENT
__CT??_R0?AVexception@std@@@8??0exception@std@@QAE@ABV01@@Z12 DD 00H
	DD	FLAT:??_R0?AVexception@std@@@8
	DD	00H
	DD	0ffffffffH
	ORG $+4
	DD	0cH
	DD	FLAT:??0exception@std@@QAE@ABV01@@Z
xdata$x	ENDS
;	COMDAT ??_R0?AVexception@std@@@8
data$r	SEGMENT
??_R0?AVexception@std@@@8 DD FLAT:??_7type_info@@6B@	; std::exception `RTTI Type Descriptor'
	DD	00H
	DB	'.?AVexception@std@@', 00H
data$r	ENDS
;	COMDAT __CT??_R0?AVbad_alloc@std@@@8??0bad_alloc@std@@QAE@ABV01@@Z12
xdata$x	SEGMENT
__CT??_R0?AVbad_alloc@std@@@8??0bad_alloc@std@@QAE@ABV01@@Z12 DD 010H
	DD	FLAT:??_R0?AVbad_alloc@std@@@8
	DD	00H
	DD	0ffffffffH
	ORG $+4
	DD	0cH
	DD	FLAT:??0bad_alloc@std@@QAE@ABV01@@Z
xdata$x	ENDS
;	COMDAT ??_R0?AVbad_alloc@std@@@8
data$r	SEGMENT
??_R0?AVbad_alloc@std@@@8 DD FLAT:??_7type_info@@6B@	; std::bad_alloc `RTTI Type Descriptor'
	DD	00H
	DB	'.?AVbad_alloc@std@@', 00H
data$r	ENDS
;	COMDAT __CT??_R0?AVbad_array_new_length@std@@@8??0bad_array_new_length@std@@QAE@ABV01@@Z12
xdata$x	SEGMENT
__CT??_R0?AVbad_array_new_length@std@@@8??0bad_array_new_length@std@@QAE@ABV01@@Z12 DD 00H
	DD	FLAT:??_R0?AVbad_array_new_length@std@@@8
	DD	00H
	DD	0ffffffffH
	ORG $+4
	DD	0cH
	DD	FLAT:??0bad_array_new_length@std@@QAE@ABV01@@Z
xdata$x	ENDS
;	COMDAT ??_R0?AVbad_array_new_length@std@@@8
data$r	SEGMENT
??_R0?AVbad_array_new_length@std@@@8 DD FLAT:??_7type_info@@6B@ ; std::bad_array_new_length `RTTI Type Descriptor'
	DD	00H
	DB	'.?AVbad_array_new_length@std@@', 00H
data$r	ENDS
;	COMDAT __CTA3?AVbad_array_new_length@std@@
xdata$x	SEGMENT
__CTA3?AVbad_array_new_length@std@@ DD 03H
	DD	FLAT:__CT??_R0?AVbad_array_new_length@std@@@8??0bad_array_new_length@std@@QAE@ABV01@@Z12
	DD	FLAT:__CT??_R0?AVbad_alloc@std@@@8??0bad_alloc@std@@QAE@ABV01@@Z12
	DD	FLAT:__CT??_R0?AVexception@std@@@8??0exception@std@@QAE@ABV01@@Z12
xdata$x	ENDS
;	COMDAT __TI3?AVbad_array_new_length@std@@
xdata$x	SEGMENT
__TI3?AVbad_array_new_length@std@@ DD 00H
	DD	FLAT:??1bad_array_new_length@std@@UAE@XZ
	DD	00H
	DD	FLAT:__CTA3?AVbad_array_new_length@std@@
xdata$x	ENDS
;	COMDAT ??_C@_0BF@KINCDENJ@bad?5array?5new?5length@
CONST	SEGMENT
??_C@_0BF@KINCDENJ@bad?5array?5new?5length@ DB 'bad array new length', 00H ; `string'
CONST	ENDS
;	COMDAT ??_7bad_array_new_length@std@@6B@
CONST	SEGMENT
??_7bad_array_new_length@std@@6B@ DD FLAT:??_R4bad_array_new_length@std@@6B@ ; std::bad_array_new_length::`vftable'
	DD	FLAT:??_Ebad_array_new_length@std@@UAEPAXI@Z
	DD	FLAT:?what@exception@std@@UBEPBDXZ
CONST	ENDS
;	COMDAT ??_7bad_alloc@std@@6B@
CONST	SEGMENT
??_7bad_alloc@std@@6B@ DD FLAT:??_R4bad_alloc@std@@6B@	; std::bad_alloc::`vftable'
	DD	FLAT:??_Ebad_alloc@std@@UAEPAXI@Z
	DD	FLAT:?what@exception@std@@UBEPBDXZ
CONST	ENDS
;	COMDAT ??_C@_0BC@EOODALEL@Unknown?5exception@
CONST	SEGMENT
??_C@_0BC@EOODALEL@Unknown?5exception@ DB 'Unknown exception', 00H ; `string'
CONST	ENDS
;	COMDAT ??_7exception@std@@6B@
CONST	SEGMENT
??_7exception@std@@6B@ DD FLAT:??_R4exception@std@@6B@	; std::exception::`vftable'
	DD	FLAT:??_Eexception@std@@UAEPAXI@Z
	DD	FLAT:?what@exception@std@@UBEPBDXZ
CONST	ENDS
;	COMDAT xdata$x
xdata$x	SEGMENT
__catchsym$??$_Resize_reallocate@U_Value_init_tag@std@@@?$vector@UD3DXVECTOR3@@V?$allocator@UD3DXVECTOR3@@@std@@@std@@AAEXIABU_Value_init_tag@1@@Z$26 DD 040H
	DD	00H
	DD	00H
	DD	FLAT:__catch$??$_Resize_reallocate@U_Value_init_tag@std@@@?$vector@UD3DXVECTOR3@@V?$allocator@UD3DXVECTOR3@@@std@@@std@@AAEXIABU_Value_init_tag@1@@Z$0
__unwindtable$??$_Resize_reallocate@U_Value_init_tag@std@@@?$vector@UD3DXVECTOR3@@V?$allocator@UD3DXVECTOR3@@@std@@@std@@AAEXIABU_Value_init_tag@1@@Z DD 0ffffffffH
	DD	00H
	DD	0ffffffffH
	DD	00H
__tryblocktable$??$_Resize_reallocate@U_Value_init_tag@std@@@?$vector@UD3DXVECTOR3@@V?$allocator@UD3DXVECTOR3@@@std@@@std@@AAEXIABU_Value_init_tag@1@@Z DD 00H
	DD	00H
	DD	01H
	DD	01H
	DD	FLAT:__catchsym$??$_Resize_reallocate@U_Value_init_tag@std@@@?$vector@UD3DXVECTOR3@@V?$allocator@UD3DXVECTOR3@@@std@@@std@@AAEXIABU_Value_init_tag@1@@Z$26
__ehfuncinfo$??$_Resize_reallocate@U_Value_init_tag@std@@@?$vector@UD3DXVECTOR3@@V?$allocator@UD3DXVECTOR3@@@std@@@std@@AAEXIABU_Value_init_tag@1@@Z DD 019930522H
	DD	02H
	DD	FLAT:__unwindtable$??$_Resize_reallocate@U_Value_init_tag@std@@@?$vector@UD3DXVECTOR3@@V?$allocator@UD3DXVECTOR3@@@std@@@std@@AAEXIABU_Value_init_tag@1@@Z
	DD	01H
	DD	FLAT:__tryblocktable$??$_Resize_reallocate@U_Value_init_tag@std@@@?$vector@UD3DXVECTOR3@@V?$allocator@UD3DXVECTOR3@@@std@@@std@@AAEXIABU_Value_init_tag@1@@Z
	DD	2 DUP(00H)
	DD	00H
	DD	01H
xdata$x	ENDS
;	COMDAT xdata$x
xdata$x	SEGMENT
__ehfuncinfo$??1CD3DXMeshRenderingOption@@UAE@XZ DD 019930522H
	DD	00H
	DD	00H
	DD	2 DUP(00H)
	DD	2 DUP(00H)
	DD	00H
	DD	05H
xdata$x	ENDS
;	COMDAT xdata$x
xdata$x	SEGMENT
__unwindtable$??0CD3DXMeshRenderingOption@@QAE@W4_D3DFILLMODE@@ABUD3DXMATRIX@@@Z DD 0ffffffffH
	DD	FLAT:__unwindfunclet$??0CD3DXMeshRenderingOption@@QAE@W4_D3DFILLMODE@@ABUD3DXMATRIX@@@Z$0
__ehfuncinfo$??0CD3DXMeshRenderingOption@@QAE@W4_D3DFILLMODE@@ABUD3DXMATRIX@@@Z DD 019930522H
	DD	01H
	DD	FLAT:__unwindtable$??0CD3DXMeshRenderingOption@@QAE@W4_D3DFILLMODE@@ABUD3DXMATRIX@@@Z
	DD	2 DUP(00H)
	DD	2 DUP(00H)
	DD	00H
	DD	01H
xdata$x	ENDS
;	COMDAT xdata$x
xdata$x	SEGMENT
__unwindtable$?RenderD3DXMesh@CScreen@@QAEXPAUID3DXMesh@@PBUD3DXMATRIX@@MMMMW4_D3DFILLMODE@@@Z DD 0ffffffffH
	DD	FLAT:__unwindfunclet$?RenderD3DXMesh@CScreen@@QAEXPAUID3DXMesh@@PBUD3DXMATRIX@@MMMMW4_D3DFILLMODE@@@Z$0
__ehfuncinfo$?RenderD3DXMesh@CScreen@@QAEXPAUID3DXMesh@@PBUD3DXMATRIX@@MMMMW4_D3DFILLMODE@@@Z DD 019930522H
	DD	01H
	DD	FLAT:__unwindtable$?RenderD3DXMesh@CScreen@@QAEXPAUID3DXMesh@@PBUD3DXMATRIX@@MMMMW4_D3DFILLMODE@@@Z
	DD	2 DUP(00H)
	DD	2 DUP(00H)
	DD	00H
	DD	01H
xdata$x	ENDS
;	COMDAT xdata$x
xdata$x	SEGMENT
__unwindtable$?RenderCircle3d@CScreen@@QAEXMMMMH@Z DD 0ffffffffH
	DD	FLAT:__unwindfunclet$?RenderCircle3d@CScreen@@QAEXMMMMH@Z$0
__ehfuncinfo$?RenderCircle3d@CScreen@@QAEXMMMMH@Z DD 019930522H
	DD	01H
	DD	FLAT:__unwindtable$?RenderCircle3d@CScreen@@QAEXMMMMH@Z
	DD	2 DUP(00H)
	DD	2 DUP(00H)
	DD	00H
	DD	01H
xdata$x	ENDS
;	COMDAT xdata$x
xdata$x	SEGMENT
__unwindtable$?RenderCircle2d@CScreen@@QAEXMMMMH@Z DD 0ffffffffH
	DD	FLAT:__unwindfunclet$?RenderCircle2d@CScreen@@QAEXMMMMH@Z$0
__ehfuncinfo$?RenderCircle2d@CScreen@@QAEXMMMMH@Z DD 019930522H
	DD	01H
	DD	FLAT:__unwindtable$?RenderCircle2d@CScreen@@QAEXMMMMH@Z
	DD	2 DUP(00H)
	DD	2 DUP(00H)
	DD	00H
	DD	01H
xdata$x	ENDS
;	COMDAT xdata$x
xdata$x	SEGMENT
__ehfuncinfo$??$_Deallocate@$07$0A@@std@@YAXPAXI@Z DD 019930522H
	DD	00H
	DD	00H
	DD	2 DUP(00H)
	DD	2 DUP(00H)
	DD	00H
	DD	05H
xdata$x	ENDS
; Function compile flags: /Odspy
; File C:\Program Files (x86)\Microsoft Visual Studio\2019\Community\VC\Tools\MSVC\14.28.29333\include\xmemory
; File C:\Program Files (x86)\Microsoft Visual Studio\2019\Community\VC\Tools\MSVC\14.28.29333\include\type_traits
; File C:\Program Files (x86)\Microsoft Visual Studio\2019\Community\VC\Tools\MSVC\14.28.29333\include\xmemory
; File C:\Program Files (x86)\Microsoft Visual Studio\2019\Community\VC\Tools\MSVC\14.28.29333\include\xstddef
; File C:\Program Files (x86)\Microsoft Visual Studio\2019\Community\VC\Tools\MSVC\14.28.29333\include\xmemory
; File C:\Program Files (x86)\Microsoft Visual Studio\2019\Community\VC\Tools\MSVC\14.28.29333\include\vcruntime_new.h
; File C:\Program Files (x86)\Microsoft Visual Studio\2019\Community\VC\Tools\MSVC\14.28.29333\include\type_traits
; File C:\Program Files (x86)\Microsoft Visual Studio\2019\Community\VC\Tools\MSVC\14.28.29333\include\xmemory
;	COMDAT ??$_Uninitialized_move@PAUD3DXVECTOR3@@V?$allocator@UD3DXVECTOR3@@@std@@@std@@YAPAUD3DXVECTOR3@@QAU1@0PAU1@AAV?$allocator@UD3DXVECTOR3@@@0@@Z
_TEXT	SEGMENT
__Backout$1 = -52					; size = 12
___formal$ = -40					; size = 4
$T2 = -36						; size = 4
$T3 = -32						; size = 4
$T4 = -28						; size = 4
$T5 = -24						; size = 4
$T6 = -20						; size = 4
__Ptr$ = -16						; size = 4
$T7 = -12						; size = 4
__ULast$ = -8						; size = 4
__UFirst$ = -4						; size = 4
__First$ = 8						; size = 4
__Last$ = 12						; size = 4
__Dest$ = 16						; size = 4
__Al$ = 20						; size = 4
??$_Uninitialized_move@PAUD3DXVECTOR3@@V?$allocator@UD3DXVECTOR3@@@std@@@std@@YAPAUD3DXVECTOR3@@QAU1@0PAU1@AAV?$allocator@UD3DXVECTOR3@@@0@@Z PROC ; std::_Uninitialized_move<D3DXVECTOR3 *,std::allocator<D3DXVECTOR3> >, COMDAT

; 1685 :     const _InIt _First, const _InIt _Last, _Alloc_ptr_t<_Alloc> _Dest, _Alloc& _Al) {

  00000	55		 push	 ebp
  00001	8b ec		 mov	 ebp, esp
  00003	83 ec 34	 sub	 esp, 52			; 00000034H
  00006	56		 push	 esi
  00007	57		 push	 edi

; 1686 :     // move [_First, _Last) to raw _Dest, using _Al
; 1687 :     // note: only called internally from elsewhere in the STL
; 1688 :     using _Ptrval     = typename _Alloc::value_type*;
; 1689 :     auto _UFirst      = _Get_unwrapped(_First);

  00008	8b 45 08	 mov	 eax, DWORD PTR __First$[ebp]
  0000b	89 45 fc	 mov	 DWORD PTR __UFirst$[ebp], eax

; 1690 :     const auto _ULast = _Get_unwrapped(_Last);

  0000e	8b 45 0c	 mov	 eax, DWORD PTR __Last$[ebp]
  00011	89 45 f8	 mov	 DWORD PTR __ULast$[ebp], eax

; 1535 :     _Uninitialized_backout_al(pointer _Dest, _Alloc& _Al_) : _First(_Dest), _Last(_Dest), _Al(_Al_) {}

  00014	8b 45 10	 mov	 eax, DWORD PTR __Dest$[ebp]
  00017	89 45 cc	 mov	 DWORD PTR __Backout$1[ebp], eax
  0001a	8b 45 10	 mov	 eax, DWORD PTR __Dest$[ebp]
  0001d	89 45 d0	 mov	 DWORD PTR __Backout$1[ebp+4], eax
  00020	8b 45 14	 mov	 eax, DWORD PTR __Al$[ebp]
  00023	89 45 d4	 mov	 DWORD PTR __Backout$1[ebp+8], eax

; 1691 :     if constexpr (conjunction_v<bool_constant<_Ptr_move_cat<decltype(_UFirst), _Ptrval>::_Really_trivial>,
; 1692 :                       _Uses_default_construct<_Alloc, _Ptrval, decltype(_STD move(*_UFirst))>>) {
; 1693 :         _Copy_memmove(_UFirst, _ULast, _Unfancy(_Dest));
; 1694 :         return _Dest + (_ULast - _UFirst);
; 1695 :     } else {
; 1696 :         _Uninitialized_backout_al<_Alloc> _Backout{_Dest, _Al};
; 1697 :         for (; _UFirst != _ULast; ++_UFirst) {

  00026	eb 09		 jmp	 SHORT $LN4@Uninitiali
$LN2@Uninitiali:
  00028	8b 45 fc	 mov	 eax, DWORD PTR __UFirst$[ebp]
  0002b	83 c0 0c	 add	 eax, 12			; 0000000cH
  0002e	89 45 fc	 mov	 DWORD PTR __UFirst$[ebp], eax
$LN4@Uninitiali:
  00031	8b 45 fc	 mov	 eax, DWORD PTR __UFirst$[ebp]
  00034	3b 45 f8	 cmp	 eax, DWORD PTR __ULast$[ebp]
  00037	74 3e		 je	 SHORT $LN3@Uninitiali
; File C:\Program Files (x86)\Microsoft Visual Studio\2019\Community\VC\Tools\MSVC\14.28.29333\include\type_traits

; 1455 :     return static_cast<remove_reference_t<_Ty>&&>(_Arg);

  00039	8b 45 fc	 mov	 eax, DWORD PTR __UFirst$[ebp]
  0003c	89 45 f4	 mov	 DWORD PTR $T7[ebp], eax

; 1443 :     return static_cast<_Ty&&>(_Arg);

  0003f	8b 45 f4	 mov	 eax, DWORD PTR $T7[ebp]
  00042	89 45 e8	 mov	 DWORD PTR $T5[ebp], eax
; File C:\Program Files (x86)\Microsoft Visual Studio\2019\Community\VC\Tools\MSVC\14.28.29333\include\xmemory

; 1546 :         allocator_traits<_Alloc>::construct(_Al, _Unfancy(_Last), _STD forward<_Types>(_Vals)...);

  00045	8b 45 d0	 mov	 eax, DWORD PTR __Backout$1[ebp+4]
  00048	89 45 f0	 mov	 DWORD PTR __Ptr$[ebp], eax
; File C:\Program Files (x86)\Microsoft Visual Studio\2019\Community\VC\Tools\MSVC\14.28.29333\include\xstddef

; 289  :     return _Ptr;

  0004b	8b 45 f0	 mov	 eax, DWORD PTR __Ptr$[ebp]
  0004e	89 45 ec	 mov	 DWORD PTR $T6[ebp], eax
; File C:\Program Files (x86)\Microsoft Visual Studio\2019\Community\VC\Tools\MSVC\14.28.29333\include\xmemory

; 1546 :         allocator_traits<_Alloc>::construct(_Al, _Unfancy(_Last), _STD forward<_Types>(_Vals)...);

  00051	8b 45 d4	 mov	 eax, DWORD PTR __Backout$1[ebp+8]
  00054	89 45 d8	 mov	 DWORD PTR ___formal$[ebp], eax
; File C:\Program Files (x86)\Microsoft Visual Studio\2019\Community\VC\Tools\MSVC\14.28.29333\include\vcruntime_new.h

; 169  :         return _Where;

  00057	8b 45 ec	 mov	 eax, DWORD PTR $T6[ebp]
  0005a	89 45 e0	 mov	 DWORD PTR $T3[ebp], eax
; File C:\Program Files (x86)\Microsoft Visual Studio\2019\Community\VC\Tools\MSVC\14.28.29333\include\type_traits

; 1443 :     return static_cast<_Ty&&>(_Arg);

  0005d	8b 45 e8	 mov	 eax, DWORD PTR $T5[ebp]
  00060	89 45 e4	 mov	 DWORD PTR $T4[ebp], eax
; File C:\Program Files (x86)\Microsoft Visual Studio\2019\Community\VC\Tools\MSVC\14.28.29333\include\xmemory

; 701  :         ::new (const_cast<void*>(static_cast<const volatile void*>(_Ptr))) _Objty(_STD forward<_Types>(_Args)...);

  00063	8b 75 e4	 mov	 esi, DWORD PTR $T4[ebp]
  00066	8b 7d e0	 mov	 edi, DWORD PTR $T3[ebp]
  00069	a5		 movsd
  0006a	a5		 movsd
  0006b	a5		 movsd

; 1547 :         ++_Last;

  0006c	8b 45 d0	 mov	 eax, DWORD PTR __Backout$1[ebp+4]
  0006f	83 c0 0c	 add	 eax, 12			; 0000000cH
  00072	89 45 d0	 mov	 DWORD PTR __Backout$1[ebp+4], eax

; 1698 :             _Backout._Emplace_back(_STD move(*_UFirst));
; 1699 :         }

  00075	eb b1		 jmp	 SHORT $LN2@Uninitiali
$LN3@Uninitiali:

; 1551 :         _First = _Last;

  00077	8b 45 d0	 mov	 eax, DWORD PTR __Backout$1[ebp+4]
  0007a	89 45 cc	 mov	 DWORD PTR __Backout$1[ebp], eax

; 1552 :         return _Last;

  0007d	8b 45 d0	 mov	 eax, DWORD PTR __Backout$1[ebp+4]
  00080	89 45 dc	 mov	 DWORD PTR $T2[ebp], eax

; 1541 :         _Destroy_range(_First, _Last, _Al);

  00083	ff 75 d4	 push	 DWORD PTR __Backout$1[ebp+8]
  00086	ff 75 d0	 push	 DWORD PTR __Backout$1[ebp+4]
  00089	ff 75 cc	 push	 DWORD PTR __Backout$1[ebp]
  0008c	e8 00 00 00 00	 call	 ??$_Destroy_range@V?$allocator@UD3DXVECTOR3@@@std@@@std@@YAXPAUD3DXVECTOR3@@QAU1@AAV?$allocator@UD3DXVECTOR3@@@0@@Z ; std::_Destroy_range<std::allocator<D3DXVECTOR3> >
  00091	83 c4 0c	 add	 esp, 12			; 0000000cH

; 1700 : 
; 1701 :         return _Backout._Release();

  00094	8b 45 dc	 mov	 eax, DWORD PTR $T2[ebp]

; 1702 :     }
; 1703 : }

  00097	5f		 pop	 edi
  00098	5e		 pop	 esi
  00099	c9		 leave
  0009a	c3		 ret	 0
??$_Uninitialized_move@PAUD3DXVECTOR3@@V?$allocator@UD3DXVECTOR3@@@std@@@std@@YAPAUD3DXVECTOR3@@QAU1@0PAU1@AAV?$allocator@UD3DXVECTOR3@@@0@@Z ENDP ; std::_Uninitialized_move<D3DXVECTOR3 *,std::allocator<D3DXVECTOR3> >
_TEXT	ENDS
; Function compile flags: /Odspy
; File C:\Program Files (x86)\Microsoft Visual Studio\2019\Community\VC\Tools\MSVC\14.28.29333\include\xmemory
; File C:\Program Files (x86)\Microsoft Visual Studio\2019\Community\VC\Tools\MSVC\14.28.29333\include\xstddef
; File C:\Program Files (x86)\Microsoft Visual Studio\2019\Community\VC\Tools\MSVC\14.28.29333\include\xmemory
; File C:\Program Files (x86)\Microsoft Visual Studio\2019\Community\VC\Tools\MSVC\14.28.29333\include\vcruntime_new.h
; File C:\Program Files (x86)\Microsoft Visual Studio\2019\Community\VC\Tools\MSVC\14.28.29333\include\xmemory
;	COMDAT ??$_Uninitialized_value_construct_n@V?$allocator@UD3DXVECTOR3@@@std@@@std@@YAPAUD3DXVECTOR3@@PAU1@IAAV?$allocator@UD3DXVECTOR3@@@0@@Z
_TEXT	SEGMENT
__Backout$1 = -32					; size = 12
$T2 = -20						; size = 4
___formal$ = -16					; size = 4
$T3 = -12						; size = 4
$T4 = -8						; size = 4
__Ptr$ = -4						; size = 4
__First$ = 8						; size = 4
__Count$ = 12						; size = 4
__Al$ = 16						; size = 4
??$_Uninitialized_value_construct_n@V?$allocator@UD3DXVECTOR3@@@std@@@std@@YAPAUD3DXVECTOR3@@PAU1@IAAV?$allocator@UD3DXVECTOR3@@@0@@Z PROC ; std::_Uninitialized_value_construct_n<std::allocator<D3DXVECTOR3> >, COMDAT

; 1862 :     _Alloc_ptr_t<_Alloc> _First, _Alloc_size_t<_Alloc> _Count, _Alloc& _Al) {

  00000	55		 push	 ebp
  00001	8b ec		 mov	 ebp, esp
  00003	83 ec 20	 sub	 esp, 32			; 00000020H

; 1535 :     _Uninitialized_backout_al(pointer _Dest, _Alloc& _Al_) : _First(_Dest), _Last(_Dest), _Al(_Al_) {}

  00006	8b 45 08	 mov	 eax, DWORD PTR __First$[ebp]
  00009	89 45 e0	 mov	 DWORD PTR __Backout$1[ebp], eax
  0000c	8b 45 08	 mov	 eax, DWORD PTR __First$[ebp]
  0000f	89 45 e4	 mov	 DWORD PTR __Backout$1[ebp+4], eax
  00012	8b 45 10	 mov	 eax, DWORD PTR __Al$[ebp]
  00015	89 45 e8	 mov	 DWORD PTR __Backout$1[ebp+8], eax

; 1863 :     // value-initialize _Count objects to raw _First, using _Al
; 1864 :     using _Ptrty = typename _Alloc::value_type*;
; 1865 :     if constexpr (_Use_memset_value_construct_v<_Ptrty> && _Uses_default_construct<_Alloc, _Ptrty>::value) {
; 1866 :         auto _PFirst = _Unfancy(_First);
; 1867 :         _Zero_range(_PFirst, _PFirst + _Count);
; 1868 :         return _First + _Count;
; 1869 :     } else {
; 1870 :         _Uninitialized_backout_al<_Alloc> _Backout{_First, _Al};
; 1871 :         for (; 0 < _Count; --_Count) {

  00018	eb 07		 jmp	 SHORT $LN4@Uninitiali
$LN2@Uninitiali:
  0001a	8b 45 0c	 mov	 eax, DWORD PTR __Count$[ebp]
  0001d	48		 dec	 eax
  0001e	89 45 0c	 mov	 DWORD PTR __Count$[ebp], eax
$LN4@Uninitiali:
  00021	83 7d 0c 00	 cmp	 DWORD PTR __Count$[ebp], 0
  00025	76 23		 jbe	 SHORT $LN3@Uninitiali

; 1546 :         allocator_traits<_Alloc>::construct(_Al, _Unfancy(_Last), _STD forward<_Types>(_Vals)...);

  00027	8b 45 e4	 mov	 eax, DWORD PTR __Backout$1[ebp+4]
  0002a	89 45 fc	 mov	 DWORD PTR __Ptr$[ebp], eax
; File C:\Program Files (x86)\Microsoft Visual Studio\2019\Community\VC\Tools\MSVC\14.28.29333\include\xstddef

; 289  :     return _Ptr;

  0002d	8b 45 fc	 mov	 eax, DWORD PTR __Ptr$[ebp]
  00030	89 45 f8	 mov	 DWORD PTR $T4[ebp], eax
; File C:\Program Files (x86)\Microsoft Visual Studio\2019\Community\VC\Tools\MSVC\14.28.29333\include\xmemory

; 1546 :         allocator_traits<_Alloc>::construct(_Al, _Unfancy(_Last), _STD forward<_Types>(_Vals)...);

  00033	8b 45 e8	 mov	 eax, DWORD PTR __Backout$1[ebp+8]
  00036	89 45 f0	 mov	 DWORD PTR ___formal$[ebp], eax
; File C:\Program Files (x86)\Microsoft Visual Studio\2019\Community\VC\Tools\MSVC\14.28.29333\include\vcruntime_new.h

; 169  :         return _Where;

  00039	8b 45 f8	 mov	 eax, DWORD PTR $T4[ebp]
  0003c	89 45 ec	 mov	 DWORD PTR $T2[ebp], eax
; File C:\Program Files (x86)\Microsoft Visual Studio\2019\Community\VC\Tools\MSVC\14.28.29333\include\xmemory

; 1547 :         ++_Last;

  0003f	8b 45 e4	 mov	 eax, DWORD PTR __Backout$1[ebp+4]
  00042	83 c0 0c	 add	 eax, 12			; 0000000cH
  00045	89 45 e4	 mov	 DWORD PTR __Backout$1[ebp+4], eax

; 1872 :             _Backout._Emplace_back();
; 1873 :         }

  00048	eb d0		 jmp	 SHORT $LN2@Uninitiali
$LN3@Uninitiali:

; 1551 :         _First = _Last;

  0004a	8b 45 e4	 mov	 eax, DWORD PTR __Backout$1[ebp+4]
  0004d	89 45 e0	 mov	 DWORD PTR __Backout$1[ebp], eax

; 1552 :         return _Last;

  00050	8b 45 e4	 mov	 eax, DWORD PTR __Backout$1[ebp+4]
  00053	89 45 f4	 mov	 DWORD PTR $T3[ebp], eax

; 1541 :         _Destroy_range(_First, _Last, _Al);

  00056	ff 75 e8	 push	 DWORD PTR __Backout$1[ebp+8]
  00059	ff 75 e4	 push	 DWORD PTR __Backout$1[ebp+4]
  0005c	ff 75 e0	 push	 DWORD PTR __Backout$1[ebp]
  0005f	e8 00 00 00 00	 call	 ??$_Destroy_range@V?$allocator@UD3DXVECTOR3@@@std@@@std@@YAXPAUD3DXVECTOR3@@QAU1@AAV?$allocator@UD3DXVECTOR3@@@0@@Z ; std::_Destroy_range<std::allocator<D3DXVECTOR3> >
  00064	83 c4 0c	 add	 esp, 12			; 0000000cH

; 1874 : 
; 1875 :         return _Backout._Release();

  00067	8b 45 f4	 mov	 eax, DWORD PTR $T3[ebp]

; 1876 :     }
; 1877 : }

  0006a	c9		 leave
  0006b	c3		 ret	 0
??$_Uninitialized_value_construct_n@V?$allocator@UD3DXVECTOR3@@@std@@@std@@YAPAUD3DXVECTOR3@@PAU1@IAAV?$allocator@UD3DXVECTOR3@@@0@@Z ENDP ; std::_Uninitialized_value_construct_n<std::allocator<D3DXVECTOR3> >
_TEXT	ENDS
; Function compile flags: /Odspy
; File C:\Program Files (x86)\Microsoft Visual Studio\2019\Community\VC\Tools\MSVC\14.28.29333\include\vector
; File C:\Program Files (x86)\Microsoft Visual Studio\2019\Community\VC\Tools\MSVC\14.28.29333\include\xmemory
; File C:\Program Files (x86)\Microsoft Visual Studio\2019\Community\VC\Tools\MSVC\14.28.29333\include\vector
; File C:\Program Files (x86)\Microsoft Visual Studio\2019\Community\VC\Tools\MSVC\14.28.29333\include\xmemory
; File C:\Program Files (x86)\Microsoft Visual Studio\2019\Community\VC\Tools\MSVC\14.28.29333\include\limits
; File C:\Program Files (x86)\Microsoft Visual Studio\2019\Community\VC\Tools\MSVC\14.28.29333\include\vector
; File C:\Program Files (x86)\Microsoft Visual Studio\2019\Community\VC\Tools\MSVC\14.28.29333\include\utility
; File C:\Program Files (x86)\Microsoft Visual Studio\2019\Community\VC\Tools\MSVC\14.28.29333\include\vector
; File C:\Program Files (x86)\Microsoft Visual Studio\2019\Community\VC\Tools\MSVC\14.28.29333\include\xmemory
; File C:\Program Files (x86)\Microsoft Visual Studio\2019\Community\VC\Tools\MSVC\14.28.29333\include\vector
; File C:\Program Files (x86)\Microsoft Visual Studio\2019\Community\VC\Tools\MSVC\14.28.29333\include\xmemory
; File C:\Program Files (x86)\Microsoft Visual Studio\2019\Community\VC\Tools\MSVC\14.28.29333\include\vector
; File C:\Program Files (x86)\Microsoft Visual Studio\2019\Community\VC\Tools\MSVC\14.28.29333\include\xmemory
; File C:\Program Files (x86)\Microsoft Visual Studio\2019\Community\VC\Tools\MSVC\14.28.29333\include\vector
; File C:\Program Files (x86)\Microsoft Visual Studio\2019\Community\VC\Tools\MSVC\14.28.29333\include\xmemory
; File C:\Program Files (x86)\Microsoft Visual Studio\2019\Community\VC\Tools\MSVC\14.28.29333\include\vector
;	COMDAT ??$_Resize_reallocate@U_Value_init_tag@std@@@?$vector@UD3DXVECTOR3@@V?$allocator@UD3DXVECTOR3@@@std@@@std@@AAEXIABU_Value_init_tag@1@@Z
_TEXT	SEGMENT
__Max_possible$2 = -148					; size = 4
$T3 = -144						; size = 4
$T4 = -140						; size = 4
__First$ = -136						; size = 4
__Last$ = -132						; size = 4
$T5 = -128						; size = 4
$T6 = -124						; size = 4
tv244 = -120						; size = 4
$T7 = -116						; size = 4
$T8 = -112						; size = 4
$T9 = -108						; size = 4
$T10 = -104						; size = 4
$T11 = -100						; size = 4
$T12 = -96						; size = 4
$T13 = -92						; size = 4
$T14 = -88						; size = 4
$T15 = -84						; size = 4
__Appended_last$ = -80					; size = 4
__Myfirst$ = -76					; size = 4
__Mylast$ = -72						; size = 4
__Oldsize$ = -68					; size = 4
__My_data$ = -64					; size = 4
tv147 = -60						; size = 4
$T16 = -56						; size = 4
$T17 = -52						; size = 4
__Appended_first$ = -48					; size = 4
___formal$ = -44					; size = 1
___formal$ = -40					; size = 1
__Overflow_is_possible$18 = -33				; size = 1
__Newvec$ = -32						; size = 4
__Newcapacity$ = -28					; size = 4
$T19 = -21						; size = 1
_this$ = -20						; size = 4
__$EHRec$ = -16						; size = 16
__Newsize$ = 8						; size = 4
__Val$ = 12						; size = 4
??$_Resize_reallocate@U_Value_init_tag@std@@@?$vector@UD3DXVECTOR3@@V?$allocator@UD3DXVECTOR3@@@std@@@std@@AAEXIABU_Value_init_tag@1@@Z PROC ; std::vector<D3DXVECTOR3,std::allocator<D3DXVECTOR3> >::_Resize_reallocate<std::_Value_init_tag>, COMDAT
; _this$ = ecx

; 1182 :     void _Resize_reallocate(const size_type _Newsize, const _Ty2& _Val) {

  00000	55		 push	 ebp
  00001	8b ec		 mov	 ebp, esp
  00003	6a ff		 push	 -1
  00005	68 00 00 00 00	 push	 __ehhandler$??$_Resize_reallocate@U_Value_init_tag@std@@@?$vector@UD3DXVECTOR3@@V?$allocator@UD3DXVECTOR3@@@std@@@std@@AAEXIABU_Value_init_tag@1@@Z
  0000a	64 a1 00 00 00
	00		 mov	 eax, DWORD PTR fs:0
  00010	50		 push	 eax
  00011	51		 push	 ecx
  00012	81 ec 84 00 00
	00		 sub	 esp, 132		; 00000084H
  00018	53		 push	 ebx
  00019	56		 push	 esi
  0001a	57		 push	 edi
  0001b	a1 00 00 00 00	 mov	 eax, DWORD PTR ___security_cookie
  00020	33 c5		 xor	 eax, ebp
  00022	50		 push	 eax
  00023	8d 45 f4	 lea	 eax, DWORD PTR __$EHRec$[ebp+4]
  00026	64 a3 00 00 00
	00		 mov	 DWORD PTR fs:0, eax
  0002c	89 65 f0	 mov	 DWORD PTR __$EHRec$[ebp], esp
  0002f	89 4d ec	 mov	 DWORD PTR _this$[ebp], ecx

; 1737 :         return _Mypair._Get_first();

  00032	8b 45 ec	 mov	 eax, DWORD PTR _this$[ebp]
; File C:\Program Files (x86)\Microsoft Visual Studio\2019\Community\VC\Tools\MSVC\14.28.29333\include\xmemory

; 1351 :         return *this;

  00035	89 45 ac	 mov	 DWORD PTR $T15[ebp], eax
; File C:\Program Files (x86)\Microsoft Visual Studio\2019\Community\VC\Tools\MSVC\14.28.29333\include\vector

; 1737 :         return _Mypair._Get_first();

  00038	8b 45 ac	 mov	 eax, DWORD PTR $T15[ebp]
  0003b	89 85 74 ff ff
	ff		 mov	 DWORD PTR $T4[ebp], eax
; File C:\Program Files (x86)\Microsoft Visual Studio\2019\Community\VC\Tools\MSVC\14.28.29333\include\xmemory

; 710  :         return static_cast<size_t>(-1) / sizeof(value_type);

  00041	c7 45 cc 55 55
	55 15		 mov	 DWORD PTR $T17[ebp], 357913941 ; 15555555H
; File C:\Program Files (x86)\Microsoft Visual Studio\2019\Community\VC\Tools\MSVC\14.28.29333\include\limits

; 557  :         return INT_MAX;

  00048	c7 45 a8 ff ff
	ff 7f		 mov	 DWORD PTR $T14[ebp], 2147483647 ; 7fffffffH
; File C:\Program Files (x86)\Microsoft Visual Studio\2019\Community\VC\Tools\MSVC\14.28.29333\include\vector

; 1488 :         return (_STD min)(

  0004f	8b 45 a8	 mov	 eax, DWORD PTR $T14[ebp]
  00052	89 45 c8	 mov	 DWORD PTR $T16[ebp], eax
; File C:\Program Files (x86)\Microsoft Visual Studio\2019\Community\VC\Tools\MSVC\14.28.29333\include\utility

; 68   :     return _Right < _Left ? _Right : _Left;

  00055	8b 45 cc	 mov	 eax, DWORD PTR $T17[ebp]
  00058	3b 45 c8	 cmp	 eax, DWORD PTR $T16[ebp]
  0005b	73 08		 jae	 SHORT $LN26@Resize_rea
  0005d	8d 45 cc	 lea	 eax, DWORD PTR $T17[ebp]
  00060	89 45 c4	 mov	 DWORD PTR tv147[ebp], eax
  00063	eb 06		 jmp	 SHORT $LN27@Resize_rea
$LN26@Resize_rea:
  00065	8d 45 c8	 lea	 eax, DWORD PTR $T16[ebp]
  00068	89 45 c4	 mov	 DWORD PTR tv147[ebp], eax
$LN27@Resize_rea:
  0006b	8b 45 c4	 mov	 eax, DWORD PTR tv147[ebp]
  0006e	89 45 a4	 mov	 DWORD PTR $T13[ebp], eax
  00071	8b 45 a4	 mov	 eax, DWORD PTR $T13[ebp]
  00074	89 45 a0	 mov	 DWORD PTR $T12[ebp], eax
; File C:\Program Files (x86)\Microsoft Visual Studio\2019\Community\VC\Tools\MSVC\14.28.29333\include\vector

; 1488 :         return (_STD min)(

  00077	8b 45 a0	 mov	 eax, DWORD PTR $T12[ebp]
  0007a	8b 00		 mov	 eax, DWORD PTR [eax]
  0007c	89 45 9c	 mov	 DWORD PTR $T11[ebp], eax

; 1183 :         if (_Newsize > max_size()) {

  0007f	8b 45 08	 mov	 eax, DWORD PTR __Newsize$[ebp]
  00082	3b 45 9c	 cmp	 eax, DWORD PTR $T11[ebp]
  00085	76 05		 jbe	 SHORT $LN2@Resize_rea

; 1184 :             _Xlength();

  00087	e8 00 00 00 00	 call	 ?_Xlength@?$vector@UD3DXVECTOR3@@V?$allocator@UD3DXVECTOR3@@@std@@@std@@CAXXZ ; std::vector<D3DXVECTOR3,std::allocator<D3DXVECTOR3> >::_Xlength
$LN2@Resize_rea:

; 1185 :         }
; 1186 : 
; 1187 :         auto& _My_data    = _Mypair._Myval2;

  0008c	8b 45 ec	 mov	 eax, DWORD PTR _this$[ebp]
  0008f	89 45 c0	 mov	 DWORD PTR __My_data$[ebp], eax

; 1188 :         pointer& _Myfirst = _My_data._Myfirst;

  00092	8b 45 c0	 mov	 eax, DWORD PTR __My_data$[ebp]
  00095	89 45 b4	 mov	 DWORD PTR __Myfirst$[ebp], eax

; 1189 :         pointer& _Mylast  = _My_data._Mylast;

  00098	8b 45 c0	 mov	 eax, DWORD PTR __My_data$[ebp]
  0009b	83 c0 04	 add	 eax, 4
  0009e	89 45 b8	 mov	 DWORD PTR __Mylast$[ebp], eax

; 1190 : 
; 1191 :         const auto _Oldsize          = static_cast<size_type>(_Mylast - _Myfirst);

  000a1	8b 45 b8	 mov	 eax, DWORD PTR __Mylast$[ebp]
  000a4	8b 4d b4	 mov	 ecx, DWORD PTR __Myfirst$[ebp]
  000a7	8b 00		 mov	 eax, DWORD PTR [eax]
  000a9	2b 01		 sub	 eax, DWORD PTR [ecx]
  000ab	99		 cdq
  000ac	6a 0c		 push	 12			; 0000000cH
  000ae	59		 pop	 ecx
  000af	f7 f9		 idiv	 ecx
  000b1	89 45 bc	 mov	 DWORD PTR __Oldsize$[ebp], eax

; 1192 :         const size_type _Newcapacity = _Calculate_growth(_Newsize);

  000b4	ff 75 08	 push	 DWORD PTR __Newsize$[ebp]
  000b7	8b 4d ec	 mov	 ecx, DWORD PTR _this$[ebp]
  000ba	e8 00 00 00 00	 call	 ?_Calculate_growth@?$vector@UD3DXVECTOR3@@V?$allocator@UD3DXVECTOR3@@@std@@@std@@ABEII@Z ; std::vector<D3DXVECTOR3,std::allocator<D3DXVECTOR3> >::_Calculate_growth
  000bf	89 45 e4	 mov	 DWORD PTR __Newcapacity$[ebp], eax

; 1733 :         return _Mypair._Get_first();

  000c2	8b 45 ec	 mov	 eax, DWORD PTR _this$[ebp]
; File C:\Program Files (x86)\Microsoft Visual Studio\2019\Community\VC\Tools\MSVC\14.28.29333\include\xmemory

; 1347 :         return *this;

  000c5	89 45 98	 mov	 DWORD PTR $T10[ebp], eax
; File C:\Program Files (x86)\Microsoft Visual Studio\2019\Community\VC\Tools\MSVC\14.28.29333\include\vector

; 1733 :         return _Mypair._Get_first();

  000c8	8b 45 98	 mov	 eax, DWORD PTR $T10[ebp]
  000cb	89 85 70 ff ff
	ff		 mov	 DWORD PTR $T3[ebp], eax
; File C:\Program Files (x86)\Microsoft Visual Studio\2019\Community\VC\Tools\MSVC\14.28.29333\include\xmemory

; 56   :     constexpr bool _Overflow_is_possible = _Ty_size > 1;

  000d1	c6 45 df 01	 mov	 BYTE PTR __Overflow_is_possible$18[ebp], 1

; 57   : 
; 58   :     if _CONSTEXPR_IF (_Overflow_is_possible) {
; 59   :         constexpr size_t _Max_possible = static_cast<size_t>(-1) / _Ty_size;

  000d5	c7 85 6c ff ff
	ff 55 55 55 15	 mov	 DWORD PTR __Max_possible$2[ebp], 357913941 ; 15555555H

; 60   :         if (_Count > _Max_possible) {

  000df	81 7d e4 55 55
	55 15		 cmp	 DWORD PTR __Newcapacity$[ebp], 357913941 ; 15555555H
  000e6	76 05		 jbe	 SHORT $LN65@Resize_rea

; 61   :             _Throw_bad_array_new_length(); // multiply overflow

  000e8	e8 00 00 00 00	 call	 ?_Throw_bad_array_new_length@std@@YAXXZ ; std::_Throw_bad_array_new_length
$LN65@Resize_rea:

; 62   :         }
; 63   :     }
; 64   : 
; 65   :     return _Count * _Ty_size;

  000ed	6b 45 e4 0c	 imul	 eax, DWORD PTR __Newcapacity$[ebp], 12
  000f1	89 45 94	 mov	 DWORD PTR $T9[ebp], eax

; 814  :         return static_cast<_Ty*>(_Allocate<_New_alignof<_Ty>>(_Get_size_of_n<sizeof(_Ty)>(_Count)));

  000f4	ff 75 94	 push	 DWORD PTR $T9[ebp]
  000f7	e8 00 00 00 00	 call	 ??$_Allocate@$07U_Default_allocate_traits@std@@$0A@@std@@YAPAXI@Z ; std::_Allocate<8,std::_Default_allocate_traits,0>
  000fc	59		 pop	 ecx
  000fd	89 45 e0	 mov	 DWORD PTR __Newvec$[ebp], eax
; File C:\Program Files (x86)\Microsoft Visual Studio\2019\Community\VC\Tools\MSVC\14.28.29333\include\vector

; 1195 :         const pointer _Appended_first = _Newvec + _Oldsize;

  00100	6b 45 bc 0c	 imul	 eax, DWORD PTR __Oldsize$[ebp], 12
  00104	03 45 e0	 add	 eax, DWORD PTR __Newvec$[ebp]
  00107	89 45 d0	 mov	 DWORD PTR __Appended_first$[ebp], eax

; 1196 :         pointer _Appended_last        = _Appended_first;

  0010a	8b 45 d0	 mov	 eax, DWORD PTR __Appended_first$[ebp]
  0010d	89 45 b0	 mov	 DWORD PTR __Appended_last$[ebp], eax

; 1197 : 
; 1198 :         _TRY_BEGIN

  00110	83 65 fc 00	 and	 DWORD PTR __$EHRec$[ebp+12], 0

; 1199 :         _Appended_last = _Ufill(_Appended_first, _Newsize - _Oldsize, _Val);

  00114	8b 45 0c	 mov	 eax, DWORD PTR __Val$[ebp]
  00117	8a 00		 mov	 al, BYTE PTR [eax]
  00119	88 45 d8	 mov	 BYTE PTR ___formal$[ebp], al

; 1733 :         return _Mypair._Get_first();

  0011c	8b 45 ec	 mov	 eax, DWORD PTR _this$[ebp]
; File C:\Program Files (x86)\Microsoft Visual Studio\2019\Community\VC\Tools\MSVC\14.28.29333\include\xmemory

; 1347 :         return *this;

  0011f	89 45 90	 mov	 DWORD PTR $T8[ebp], eax
; File C:\Program Files (x86)\Microsoft Visual Studio\2019\Community\VC\Tools\MSVC\14.28.29333\include\vector

; 1733 :         return _Mypair._Get_first();

  00122	8b 45 90	 mov	 eax, DWORD PTR $T8[ebp]
  00125	89 45 8c	 mov	 DWORD PTR $T7[ebp], eax

; 1583 :         return _Uninitialized_value_construct_n(_Dest, _Count, _Getal());

  00128	ff 75 8c	 push	 DWORD PTR $T7[ebp]

; 1199 :         _Appended_last = _Ufill(_Appended_first, _Newsize - _Oldsize, _Val);

  0012b	8b 45 08	 mov	 eax, DWORD PTR __Newsize$[ebp]
  0012e	2b 45 bc	 sub	 eax, DWORD PTR __Oldsize$[ebp]

; 1583 :         return _Uninitialized_value_construct_n(_Dest, _Count, _Getal());

  00131	50		 push	 eax
  00132	ff 75 d0	 push	 DWORD PTR __Appended_first$[ebp]
  00135	e8 00 00 00 00	 call	 ??$_Uninitialized_value_construct_n@V?$allocator@UD3DXVECTOR3@@@std@@@std@@YAPAUD3DXVECTOR3@@PAU1@IAAV?$allocator@UD3DXVECTOR3@@@0@@Z ; std::_Uninitialized_value_construct_n<std::allocator<D3DXVECTOR3> >
  0013a	83 c4 0c	 add	 esp, 12			; 0000000cH
  0013d	89 45 88	 mov	 DWORD PTR tv244[ebp], eax

; 1199 :         _Appended_last = _Ufill(_Appended_first, _Newsize - _Oldsize, _Val);

  00140	8b 45 88	 mov	 eax, DWORD PTR tv244[ebp]
  00143	89 45 b0	 mov	 DWORD PTR __Appended_last$[ebp], eax

; 1200 :         _Umove_if_noexcept(_Myfirst, _Mylast, _Newvec);

  00146	8b 45 b8	 mov	 eax, DWORD PTR __Mylast$[ebp]
  00149	8b 00		 mov	 eax, DWORD PTR [eax]
  0014b	89 85 7c ff ff
	ff		 mov	 DWORD PTR __Last$[ebp], eax
  00151	8b 45 b4	 mov	 eax, DWORD PTR __Myfirst$[ebp]
  00154	8b 00		 mov	 eax, DWORD PTR [eax]
  00156	89 85 78 ff ff
	ff		 mov	 DWORD PTR __First$[ebp], eax

; 1607 :         _Umove_if_noexcept1(_First, _Last, _Dest,

  0015c	33 c0		 xor	 eax, eax
  0015e	88 45 eb	 mov	 BYTE PTR $T19[ebp], al
  00161	8a 45 eb	 mov	 al, BYTE PTR $T19[ebp]
  00164	88 45 d4	 mov	 BYTE PTR ___formal$[ebp], al

; 1733 :         return _Mypair._Get_first();

  00167	8b 45 ec	 mov	 eax, DWORD PTR _this$[ebp]
; File C:\Program Files (x86)\Microsoft Visual Studio\2019\Community\VC\Tools\MSVC\14.28.29333\include\xmemory

; 1347 :         return *this;

  0016a	89 45 84	 mov	 DWORD PTR $T6[ebp], eax
; File C:\Program Files (x86)\Microsoft Visual Studio\2019\Community\VC\Tools\MSVC\14.28.29333\include\vector

; 1733 :         return _Mypair._Get_first();

  0016d	8b 45 84	 mov	 eax, DWORD PTR $T6[ebp]
  00170	89 45 80	 mov	 DWORD PTR $T5[ebp], eax

; 1597 :         _Uninitialized_move(_First, _Last, _Dest, _Getal());

  00173	ff 75 80	 push	 DWORD PTR $T5[ebp]
  00176	ff 75 e0	 push	 DWORD PTR __Newvec$[ebp]
  00179	ff b5 7c ff ff
	ff		 push	 DWORD PTR __Last$[ebp]
  0017f	ff b5 78 ff ff
	ff		 push	 DWORD PTR __First$[ebp]
  00185	e8 00 00 00 00	 call	 ??$_Uninitialized_move@PAUD3DXVECTOR3@@V?$allocator@UD3DXVECTOR3@@@std@@@std@@YAPAUD3DXVECTOR3@@QAU1@0PAU1@AAV?$allocator@UD3DXVECTOR3@@@0@@Z ; std::_Uninitialized_move<D3DXVECTOR3 *,std::allocator<D3DXVECTOR3> >
  0018a	83 c4 10	 add	 esp, 16			; 00000010H

; 1200 :         _Umove_if_noexcept(_Myfirst, _Mylast, _Newvec);

  0018d	eb 32		 jmp	 SHORT $LN5@Resize_rea
__catch$??$_Resize_reallocate@U_Value_init_tag@std@@@?$vector@UD3DXVECTOR3@@V?$allocator@UD3DXVECTOR3@@@std@@@std@@AAEXIABU_Value_init_tag@1@@Z$0:

; 1201 :         _CATCH_ALL
; 1202 :         _Destroy(_Appended_first, _Appended_last);

  0018f	ff 75 b0	 push	 DWORD PTR __Appended_last$[ebp]
  00192	ff 75 d0	 push	 DWORD PTR __Appended_first$[ebp]
  00195	8b 4d ec	 mov	 ecx, DWORD PTR _this$[ebp]
  00198	e8 00 00 00 00	 call	 ?_Destroy@?$vector@UD3DXVECTOR3@@V?$allocator@UD3DXVECTOR3@@@std@@@std@@AAEXPAUD3DXVECTOR3@@0@Z ; std::vector<D3DXVECTOR3,std::allocator<D3DXVECTOR3> >::_Destroy

; 1203 :         _Getal().deallocate(_Newvec, _Newcapacity);

  0019d	ff 75 e4	 push	 DWORD PTR __Newcapacity$[ebp]
  001a0	ff 75 e0	 push	 DWORD PTR __Newvec$[ebp]
  001a3	8b 4d ec	 mov	 ecx, DWORD PTR _this$[ebp]
  001a6	e8 00 00 00 00	 call	 ?_Getal@?$vector@UD3DXVECTOR3@@V?$allocator@UD3DXVECTOR3@@@std@@@std@@AAEAAV?$allocator@UD3DXVECTOR3@@@2@XZ ; std::vector<D3DXVECTOR3,std::allocator<D3DXVECTOR3> >::_Getal
  001ab	8b c8		 mov	 ecx, eax
  001ad	e8 00 00 00 00	 call	 ?deallocate@?$allocator@UD3DXVECTOR3@@@std@@QAEXQAUD3DXVECTOR3@@I@Z ; std::allocator<D3DXVECTOR3>::deallocate

; 1204 :         _RERAISE;

  001b2	6a 00		 push	 0
  001b4	6a 00		 push	 0
  001b6	e8 00 00 00 00	 call	 __CxxThrowException@8

; 1205 :         _CATCH_END

  001bb	b8 00 00 00 00	 mov	 eax, $LN8@Resize_rea
  001c0	c3		 ret	 0
$LN5@Resize_rea:
  001c1	83 4d fc ff	 or	 DWORD PTR __$EHRec$[ebp+12], -1
  001c5	eb 04		 jmp	 SHORT __tryend$??$_Resize_reallocate@U_Value_init_tag@std@@@?$vector@UD3DXVECTOR3@@V?$allocator@UD3DXVECTOR3@@@std@@@std@@AAEXIABU_Value_init_tag@1@@Z$1
$LN8@Resize_rea:
; File C:\Program Files (x86)\Microsoft Visual Studio\2019\Community\VC\Tools\MSVC\14.28.29333\include\xmemory
  001c7	83 4d fc ff	 or	 DWORD PTR __$EHRec$[ebp+12], -1
__tryend$??$_Resize_reallocate@U_Value_init_tag@std@@@?$vector@UD3DXVECTOR3@@V?$allocator@UD3DXVECTOR3@@@std@@@std@@AAEXIABU_Value_init_tag@1@@Z$1:
; File C:\Program Files (x86)\Microsoft Visual Studio\2019\Community\VC\Tools\MSVC\14.28.29333\include\vector

; 1206 : 
; 1207 :         _Change_array(_Newvec, _Newsize, _Newcapacity);

  001cb	ff 75 e4	 push	 DWORD PTR __Newcapacity$[ebp]
  001ce	ff 75 08	 push	 DWORD PTR __Newsize$[ebp]
  001d1	ff 75 e0	 push	 DWORD PTR __Newvec$[ebp]
  001d4	8b 4d ec	 mov	 ecx, DWORD PTR _this$[ebp]
  001d7	e8 00 00 00 00	 call	 ?_Change_array@?$vector@UD3DXVECTOR3@@V?$allocator@UD3DXVECTOR3@@@std@@@std@@AAEXQAUD3DXVECTOR3@@II@Z ; std::vector<D3DXVECTOR3,std::allocator<D3DXVECTOR3> >::_Change_array
$LN68@Resize_rea:

; 1208 :     }

  001dc	8b 4d f4	 mov	 ecx, DWORD PTR __$EHRec$[ebp+4]
  001df	64 89 0d 00 00
	00 00		 mov	 DWORD PTR fs:0, ecx
  001e6	59		 pop	 ecx
  001e7	5f		 pop	 edi
  001e8	5e		 pop	 esi
  001e9	5b		 pop	 ebx
  001ea	c9		 leave
  001eb	c2 08 00	 ret	 8
  001ee	cc		 int	 3
  001ef	cc		 int	 3
  001f0	cc		 int	 3
  001f1	cc		 int	 3
  001f2	cc		 int	 3
_TEXT	ENDS
;	COMDAT text$x
text$x	SEGMENT
__ehhandler$??$_Resize_reallocate@U_Value_init_tag@std@@@?$vector@UD3DXVECTOR3@@V?$allocator@UD3DXVECTOR3@@@std@@@std@@AAEXIABU_Value_init_tag@1@@Z:
  00000	90		 npad	 1
  00001	90		 npad	 1
  00002	8b 54 24 08	 mov	 edx, DWORD PTR [esp+8]
  00006	8d 42 0c	 lea	 eax, DWORD PTR [edx+12]
  00009	8b 8a 68 ff ff
	ff		 mov	 ecx, DWORD PTR [edx-152]
  0000f	33 c8		 xor	 ecx, eax
  00011	e8 00 00 00 00	 call	 @__security_check_cookie@4
  00016	b8 00 00 00 00	 mov	 eax, OFFSET __ehfuncinfo$??$_Resize_reallocate@U_Value_init_tag@std@@@?$vector@UD3DXVECTOR3@@V?$allocator@UD3DXVECTOR3@@@std@@@std@@AAEXIABU_Value_init_tag@1@@Z
  0001b	e9 00 00 00 00	 jmp	 ___CxxFrameHandler3
text$x	ENDS
??$_Resize_reallocate@U_Value_init_tag@std@@@?$vector@UD3DXVECTOR3@@V?$allocator@UD3DXVECTOR3@@@std@@@std@@AAEXIABU_Value_init_tag@1@@Z ENDP ; std::vector<D3DXVECTOR3,std::allocator<D3DXVECTOR3> >::_Resize_reallocate<std::_Value_init_tag>
; Function compile flags: /Odspy
; File C:\Program Files (x86)\Microsoft Visual Studio\2019\Community\VC\Tools\MSVC\14.28.29333\include\xmemory
;	COMDAT ??$_Destroy_range@V?$allocator@UD3DXVECTOR3@@@std@@@std@@YAXPAUD3DXVECTOR3@@QAU1@AAV?$allocator@UD3DXVECTOR3@@@0@@Z
_TEXT	SEGMENT
__First$ = 8						; size = 4
__Last$ = 12						; size = 4
__Al$ = 16						; size = 4
??$_Destroy_range@V?$allocator@UD3DXVECTOR3@@@std@@@std@@YAXPAUD3DXVECTOR3@@QAU1@AAV?$allocator@UD3DXVECTOR3@@@0@@Z PROC ; std::_Destroy_range<std::allocator<D3DXVECTOR3> >, COMDAT

; 962  :     _Alloc_ptr_t<_Alloc> _First, const _Alloc_ptr_t<_Alloc> _Last, _Alloc& _Al) noexcept {

  00000	55		 push	 ebp
  00001	8b ec		 mov	 ebp, esp

; 963  :     // note that this is an optimization for debug mode codegen; in release mode the BE removes all of this
; 964  :     using _Ty = typename _Alloc::value_type;
; 965  :     if _CONSTEXPR_IF (!conjunction_v<is_trivially_destructible<_Ty>, _Uses_default_destroy<_Alloc, _Ty*>>) {
; 966  :         for (; _First != _Last; ++_First) {
; 967  :             allocator_traits<_Alloc>::destroy(_Al, _Unfancy(_First));
; 968  :         }
; 969  :     }
; 970  : }

  00003	5d		 pop	 ebp
  00004	c3		 ret	 0
??$_Destroy_range@V?$allocator@UD3DXVECTOR3@@@std@@@std@@YAXPAUD3DXVECTOR3@@QAU1@AAV?$allocator@UD3DXVECTOR3@@@0@@Z ENDP ; std::_Destroy_range<std::allocator<D3DXVECTOR3> >
_TEXT	ENDS
; Function compile flags: /Odspy
; File C:\Program Files (x86)\Microsoft Visual Studio\2019\Community\VC\Tools\MSVC\14.28.29333\include\vector
; File C:\Program Files (x86)\Microsoft Visual Studio\2019\Community\VC\Tools\MSVC\14.28.29333\include\xmemory
; File C:\Program Files (x86)\Microsoft Visual Studio\2019\Community\VC\Tools\MSVC\14.28.29333\include\vector
; File C:\Program Files (x86)\Microsoft Visual Studio\2019\Community\VC\Tools\MSVC\14.28.29333\include\xmemory
; File C:\Program Files (x86)\Microsoft Visual Studio\2019\Community\VC\Tools\MSVC\14.28.29333\include\vector
;	COMDAT ??$_Resize@U_Value_init_tag@std@@@?$vector@UD3DXVECTOR3@@V?$allocator@UD3DXVECTOR3@@@std@@@std@@AAEXIABU_Value_init_tag@1@@Z
_TEXT	SEGMENT
__Oldlast$1 = -56					; size = 4
$T2 = -52						; size = 4
$T3 = -48						; size = 4
__Oldcapacity$4 = -44					; size = 4
__Last$ = -40						; size = 4
$T5 = -36						; size = 4
$T6 = -32						; size = 4
__Newlast$7 = -28					; size = 4
__Oldsize$ = -24					; size = 4
__Myfirst$ = -20					; size = 4
__My_data$ = -16					; size = 4
_this$ = -12						; size = 4
__Mylast$ = -8						; size = 4
___formal$ = -4						; size = 1
__Newsize$ = 8						; size = 4
__Val$ = 12						; size = 4
??$_Resize@U_Value_init_tag@std@@@?$vector@UD3DXVECTOR3@@V?$allocator@UD3DXVECTOR3@@@std@@@std@@AAEXIABU_Value_init_tag@1@@Z PROC ; std::vector<D3DXVECTOR3,std::allocator<D3DXVECTOR3> >::_Resize<std::_Value_init_tag>, COMDAT
; _this$ = ecx

; 1211 :     void _Resize(const size_type _Newsize, const _Ty2& _Val) { // trim or append elements, provide strong guarantee

  00000	55		 push	 ebp
  00001	8b ec		 mov	 ebp, esp
  00003	83 ec 38	 sub	 esp, 56			; 00000038H
  00006	89 4d f4	 mov	 DWORD PTR _this$[ebp], ecx

; 1212 :         auto& _My_data      = _Mypair._Myval2;

  00009	8b 45 f4	 mov	 eax, DWORD PTR _this$[ebp]
  0000c	89 45 f0	 mov	 DWORD PTR __My_data$[ebp], eax

; 1213 :         pointer& _Myfirst   = _My_data._Myfirst;

  0000f	8b 45 f0	 mov	 eax, DWORD PTR __My_data$[ebp]
  00012	89 45 ec	 mov	 DWORD PTR __Myfirst$[ebp], eax

; 1214 :         pointer& _Mylast    = _My_data._Mylast;

  00015	8b 45 f0	 mov	 eax, DWORD PTR __My_data$[ebp]
  00018	83 c0 04	 add	 eax, 4
  0001b	89 45 f8	 mov	 DWORD PTR __Mylast$[ebp], eax

; 1215 :         const auto _Oldsize = static_cast<size_type>(_Mylast - _Myfirst);

  0001e	8b 45 f8	 mov	 eax, DWORD PTR __Mylast$[ebp]
  00021	8b 4d ec	 mov	 ecx, DWORD PTR __Myfirst$[ebp]
  00024	8b 00		 mov	 eax, DWORD PTR [eax]
  00026	2b 01		 sub	 eax, DWORD PTR [ecx]
  00028	99		 cdq
  00029	6a 0c		 push	 12			; 0000000cH
  0002b	59		 pop	 ecx
  0002c	f7 f9		 idiv	 ecx
  0002e	89 45 e8	 mov	 DWORD PTR __Oldsize$[ebp], eax

; 1216 :         if (_Newsize < _Oldsize) { // trim

  00031	8b 45 08	 mov	 eax, DWORD PTR __Newsize$[ebp]
  00034	3b 45 e8	 cmp	 eax, DWORD PTR __Oldsize$[ebp]
  00037	73 3b		 jae	 SHORT $LN2@Resize

; 1217 :             const pointer _Newlast = _Myfirst + _Newsize;

  00039	6b 45 08 0c	 imul	 eax, DWORD PTR __Newsize$[ebp], 12
  0003d	8b 4d ec	 mov	 ecx, DWORD PTR __Myfirst$[ebp]
  00040	03 01		 add	 eax, DWORD PTR [ecx]
  00042	89 45 e4	 mov	 DWORD PTR __Newlast$7[ebp], eax

; 1218 :             _Orphan_range(_Newlast, _Mylast);
; 1219 :             _Destroy(_Newlast, _Mylast);

  00045	8b 45 f8	 mov	 eax, DWORD PTR __Mylast$[ebp]
  00048	8b 00		 mov	 eax, DWORD PTR [eax]
  0004a	89 45 d8	 mov	 DWORD PTR __Last$[ebp], eax

; 1733 :         return _Mypair._Get_first();

  0004d	8b 45 f4	 mov	 eax, DWORD PTR _this$[ebp]
; File C:\Program Files (x86)\Microsoft Visual Studio\2019\Community\VC\Tools\MSVC\14.28.29333\include\xmemory

; 1347 :         return *this;

  00050	89 45 e0	 mov	 DWORD PTR $T6[ebp], eax
; File C:\Program Files (x86)\Microsoft Visual Studio\2019\Community\VC\Tools\MSVC\14.28.29333\include\vector

; 1733 :         return _Mypair._Get_first();

  00053	8b 45 e0	 mov	 eax, DWORD PTR $T6[ebp]
  00056	89 45 dc	 mov	 DWORD PTR $T5[ebp], eax

; 1612 :         _Destroy_range(_First, _Last, _Getal());

  00059	ff 75 dc	 push	 DWORD PTR $T5[ebp]
  0005c	ff 75 d8	 push	 DWORD PTR __Last$[ebp]
  0005f	ff 75 e4	 push	 DWORD PTR __Newlast$7[ebp]
  00062	e8 00 00 00 00	 call	 ??$_Destroy_range@V?$allocator@UD3DXVECTOR3@@@std@@@std@@YAXPAUD3DXVECTOR3@@QAU1@AAV?$allocator@UD3DXVECTOR3@@@0@@Z ; std::_Destroy_range<std::allocator<D3DXVECTOR3> >
  00067	83 c4 0c	 add	 esp, 12			; 0000000cH

; 1220 :             _Mylast = _Newlast;

  0006a	8b 45 f8	 mov	 eax, DWORD PTR __Mylast$[ebp]
  0006d	8b 4d e4	 mov	 ecx, DWORD PTR __Newlast$7[ebp]
  00070	89 08		 mov	 DWORD PTR [eax], ecx

; 1221 :             return;

  00072	eb 6a		 jmp	 SHORT $LN1@Resize
$LN2@Resize:

; 1222 :         }
; 1223 : 
; 1224 :         if (_Newsize > _Oldsize) { // append

  00074	8b 45 08	 mov	 eax, DWORD PTR __Newsize$[ebp]
  00077	3b 45 e8	 cmp	 eax, DWORD PTR __Oldsize$[ebp]
  0007a	76 62		 jbe	 SHORT $LN1@Resize

; 1225 :             const auto _Oldcapacity = static_cast<size_type>(_My_data._Myend - _Myfirst);

  0007c	8b 45 f0	 mov	 eax, DWORD PTR __My_data$[ebp]
  0007f	8b 4d ec	 mov	 ecx, DWORD PTR __Myfirst$[ebp]
  00082	8b 40 08	 mov	 eax, DWORD PTR [eax+8]
  00085	2b 01		 sub	 eax, DWORD PTR [ecx]
  00087	99		 cdq
  00088	6a 0c		 push	 12			; 0000000cH
  0008a	59		 pop	 ecx
  0008b	f7 f9		 idiv	 ecx
  0008d	89 45 d4	 mov	 DWORD PTR __Oldcapacity$4[ebp], eax

; 1226 :             if (_Newsize > _Oldcapacity) { // reallocate

  00090	8b 45 08	 mov	 eax, DWORD PTR __Newsize$[ebp]
  00093	3b 45 d4	 cmp	 eax, DWORD PTR __Oldcapacity$4[ebp]
  00096	76 10		 jbe	 SHORT $LN4@Resize

; 1227 :                 _Resize_reallocate(_Newsize, _Val);

  00098	ff 75 0c	 push	 DWORD PTR __Val$[ebp]
  0009b	ff 75 08	 push	 DWORD PTR __Newsize$[ebp]
  0009e	8b 4d f4	 mov	 ecx, DWORD PTR _this$[ebp]
  000a1	e8 00 00 00 00	 call	 ??$_Resize_reallocate@U_Value_init_tag@std@@@?$vector@UD3DXVECTOR3@@V?$allocator@UD3DXVECTOR3@@@std@@@std@@AAEXIABU_Value_init_tag@1@@Z ; std::vector<D3DXVECTOR3,std::allocator<D3DXVECTOR3> >::_Resize_reallocate<std::_Value_init_tag>

; 1228 :                 return;

  000a6	eb 36		 jmp	 SHORT $LN1@Resize
$LN4@Resize:

; 1229 :             }
; 1230 : 
; 1231 :             const pointer _Oldlast = _Mylast;

  000a8	8b 45 f8	 mov	 eax, DWORD PTR __Mylast$[ebp]
  000ab	8b 00		 mov	 eax, DWORD PTR [eax]
  000ad	89 45 c8	 mov	 DWORD PTR __Oldlast$1[ebp], eax

; 1232 :             _Mylast                = _Ufill(_Oldlast, _Newsize - _Oldsize, _Val);

  000b0	8b 45 0c	 mov	 eax, DWORD PTR __Val$[ebp]
  000b3	8a 00		 mov	 al, BYTE PTR [eax]
  000b5	88 45 fc	 mov	 BYTE PTR ___formal$[ebp], al

; 1733 :         return _Mypair._Get_first();

  000b8	8b 45 f4	 mov	 eax, DWORD PTR _this$[ebp]
; File C:\Program Files (x86)\Microsoft Visual Studio\2019\Community\VC\Tools\MSVC\14.28.29333\include\xmemory

; 1347 :         return *this;

  000bb	89 45 d0	 mov	 DWORD PTR $T3[ebp], eax
; File C:\Program Files (x86)\Microsoft Visual Studio\2019\Community\VC\Tools\MSVC\14.28.29333\include\vector

; 1733 :         return _Mypair._Get_first();

  000be	8b 45 d0	 mov	 eax, DWORD PTR $T3[ebp]
  000c1	89 45 cc	 mov	 DWORD PTR $T2[ebp], eax

; 1583 :         return _Uninitialized_value_construct_n(_Dest, _Count, _Getal());

  000c4	ff 75 cc	 push	 DWORD PTR $T2[ebp]

; 1232 :             _Mylast                = _Ufill(_Oldlast, _Newsize - _Oldsize, _Val);

  000c7	8b 45 08	 mov	 eax, DWORD PTR __Newsize$[ebp]
  000ca	2b 45 e8	 sub	 eax, DWORD PTR __Oldsize$[ebp]

; 1583 :         return _Uninitialized_value_construct_n(_Dest, _Count, _Getal());

  000cd	50		 push	 eax
  000ce	ff 75 c8	 push	 DWORD PTR __Oldlast$1[ebp]
  000d1	e8 00 00 00 00	 call	 ??$_Uninitialized_value_construct_n@V?$allocator@UD3DXVECTOR3@@@std@@@std@@YAPAUD3DXVECTOR3@@PAU1@IAAV?$allocator@UD3DXVECTOR3@@@0@@Z ; std::_Uninitialized_value_construct_n<std::allocator<D3DXVECTOR3> >
  000d6	83 c4 0c	 add	 esp, 12			; 0000000cH

; 1232 :             _Mylast                = _Ufill(_Oldlast, _Newsize - _Oldsize, _Val);

  000d9	8b 4d f8	 mov	 ecx, DWORD PTR __Mylast$[ebp]
  000dc	89 01		 mov	 DWORD PTR [ecx], eax
$LN1@Resize:

; 1233 :             _Orphan_range(_Oldlast, _Oldlast);
; 1234 :         }
; 1235 : 
; 1236 :         // if _Newsize == _Oldsize, do nothing; avoid invalidating iterators
; 1237 :     }

  000de	c9		 leave
  000df	c2 08 00	 ret	 8
??$_Resize@U_Value_init_tag@std@@@?$vector@UD3DXVECTOR3@@V?$allocator@UD3DXVECTOR3@@@std@@@std@@AAEXIABU_Value_init_tag@1@@Z ENDP ; std::vector<D3DXVECTOR3,std::allocator<D3DXVECTOR3> >::_Resize<std::_Value_init_tag>
_TEXT	ENDS
; Function compile flags: /Odspy
;	COMDAT ??_GCD3DXMeshRenderingOption@@UAEPAXI@Z
_TEXT	SEGMENT
_this$ = -4						; size = 4
___flags$ = 8						; size = 4
??_GCD3DXMeshRenderingOption@@UAEPAXI@Z PROC		; CD3DXMeshRenderingOption::`scalar deleting destructor', COMDAT
; _this$ = ecx
  00000	55		 push	 ebp
  00001	8b ec		 mov	 ebp, esp
  00003	51		 push	 ecx
  00004	89 4d fc	 mov	 DWORD PTR _this$[ebp], ecx
  00007	8b 4d fc	 mov	 ecx, DWORD PTR _this$[ebp]
  0000a	e8 00 00 00 00	 call	 ??1CD3DXMeshRenderingOption@@UAE@XZ ; CD3DXMeshRenderingOption::~CD3DXMeshRenderingOption
  0000f	8b 45 08	 mov	 eax, DWORD PTR ___flags$[ebp]
  00012	83 e0 01	 and	 eax, 1
  00015	74 0c		 je	 SHORT $LN2@scalar
  00017	6a 08		 push	 8
  00019	ff 75 fc	 push	 DWORD PTR _this$[ebp]
  0001c	e8 00 00 00 00	 call	 ??3@YAXPAXI@Z		; operator delete
  00021	59		 pop	 ecx
  00022	59		 pop	 ecx
$LN2@scalar:
  00023	8b 45 fc	 mov	 eax, DWORD PTR _this$[ebp]
  00026	c9		 leave
  00027	c2 04 00	 ret	 4
??_GCD3DXMeshRenderingOption@@UAEPAXI@Z ENDP		; CD3DXMeshRenderingOption::`scalar deleting destructor'
_TEXT	ENDS
; Function compile flags: /Odspy
; File D:\Metin2 Server Files\mainline\SRC_2014\Metin2Client\EterLib\GrpScreen.cpp
;	COMDAT ??1CD3DXMeshRenderingOption@@UAE@XZ
_TEXT	SEGMENT
_this$ = -16						; size = 4
__$EHRec$ = -12						; size = 12
??1CD3DXMeshRenderingOption@@UAE@XZ PROC		; CD3DXMeshRenderingOption::~CD3DXMeshRenderingOption, COMDAT
; _this$ = ecx

; 331  : 	{

  00000	55		 push	 ebp
  00001	8b ec		 mov	 ebp, esp
  00003	6a ff		 push	 -1
  00005	68 00 00 00 00	 push	 __ehhandler$??1CD3DXMeshRenderingOption@@UAE@XZ
  0000a	64 a1 00 00 00
	00		 mov	 eax, DWORD PTR fs:0
  00010	50		 push	 eax
  00011	51		 push	 ecx
  00012	a1 00 00 00 00	 mov	 eax, DWORD PTR ___security_cookie
  00017	33 c5		 xor	 eax, ebp
  00019	50		 push	 eax
  0001a	8d 45 f4	 lea	 eax, DWORD PTR __$EHRec$[ebp]
  0001d	64 a3 00 00 00
	00		 mov	 DWORD PTR fs:0, eax
  00023	89 4d f0	 mov	 DWORD PTR _this$[ebp], ecx
  00026	8b 45 f0	 mov	 eax, DWORD PTR _this$[ebp]
  00029	c7 00 00 00 00
	00		 mov	 DWORD PTR [eax], OFFSET ??_7CD3DXMeshRenderingOption@@6B@

; 332  : 		ms_lpd3dDevice->SetVertexShader(m_dwVS);

  0002f	8b 45 f0	 mov	 eax, DWORD PTR _this$[ebp]
  00032	ff 70 04	 push	 DWORD PTR [eax+4]
  00035	a1 00 00 00 00	 mov	 eax, DWORD PTR ?ms_lpd3dDevice@CGraphicBase@@1PAUIDirect3DDevice8@@A ; CGraphicBase::ms_lpd3dDevice
  0003a	8b 00		 mov	 eax, DWORD PTR [eax]
  0003c	ff 35 00 00 00
	00		 push	 DWORD PTR ?ms_lpd3dDevice@CGraphicBase@@1PAUIDirect3DDevice8@@A ; CGraphicBase::ms_lpd3dDevice
  00042	ff 90 30 01 00
	00		 call	 DWORD PTR [eax+304]

; 333  : 
; 334  : 		STATEMANAGER.RestoreTransform(D3DTS_WORLD);

  00048	68 00 01 00 00	 push	 256			; 00000100H
  0004d	8b 0d 00 00 00
	00		 mov	 ecx, DWORD PTR ?ms_singleton@?$CSingleton@VCStateManager@@@@0PAVCStateManager@@A ; CSingleton<CStateManager>::ms_singleton
  00053	e8 00 00 00 00	 call	 ?RestoreTransform@CStateManager@@QAEXW4_D3DTRANSFORMSTATETYPE@@@Z ; CStateManager::RestoreTransform

; 335  : 		STATEMANAGER.RestoreTextureStageState(0, D3DTSS_COLORARG1);

  00058	6a 02		 push	 2
  0005a	6a 00		 push	 0
  0005c	8b 0d 00 00 00
	00		 mov	 ecx, DWORD PTR ?ms_singleton@?$CSingleton@VCStateManager@@@@0PAVCStateManager@@A ; CSingleton<CStateManager>::ms_singleton
  00062	e8 00 00 00 00	 call	 ?RestoreTextureStageState@CStateManager@@QAEXKW4_D3DTEXTURESTAGESTATETYPE@@@Z ; CStateManager::RestoreTextureStageState

; 336  : 		STATEMANAGER.RestoreTextureStageState(0, D3DTSS_COLOROP);

  00067	6a 01		 push	 1
  00069	6a 00		 push	 0
  0006b	8b 0d 00 00 00
	00		 mov	 ecx, DWORD PTR ?ms_singleton@?$CSingleton@VCStateManager@@@@0PAVCStateManager@@A ; CSingleton<CStateManager>::ms_singleton
  00071	e8 00 00 00 00	 call	 ?RestoreTextureStageState@CStateManager@@QAEXKW4_D3DTEXTURESTAGESTATETYPE@@@Z ; CStateManager::RestoreTextureStageState

; 337  : 		STATEMANAGER.RestoreTextureStageState(0, D3DTSS_ALPHAOP);

  00076	6a 04		 push	 4
  00078	6a 00		 push	 0
  0007a	8b 0d 00 00 00
	00		 mov	 ecx, DWORD PTR ?ms_singleton@?$CSingleton@VCStateManager@@@@0PAVCStateManager@@A ; CSingleton<CStateManager>::ms_singleton
  00080	e8 00 00 00 00	 call	 ?RestoreTextureStageState@CStateManager@@QAEXKW4_D3DTEXTURESTAGESTATETYPE@@@Z ; CStateManager::RestoreTextureStageState

; 338  : 		STATEMANAGER.SetRenderState(D3DRS_FILLMODE, D3DFILL_SOLID);

  00085	6a 03		 push	 3
  00087	6a 08		 push	 8
  00089	8b 0d 00 00 00
	00		 mov	 ecx, DWORD PTR ?ms_singleton@?$CSingleton@VCStateManager@@@@0PAVCStateManager@@A ; CSingleton<CStateManager>::ms_singleton
  0008f	e8 00 00 00 00	 call	 ?SetRenderState@CStateManager@@QAEXW4_D3DRENDERSTATETYPE@@K@Z ; CStateManager::SetRenderState

; 339  : 	}

  00094	8b 4d f0	 mov	 ecx, DWORD PTR _this$[ebp]
  00097	e8 00 00 00 00	 call	 ??1CScreen@@UAE@XZ	; CScreen::~CScreen
  0009c	8b 4d f4	 mov	 ecx, DWORD PTR __$EHRec$[ebp]
  0009f	64 89 0d 00 00
	00 00		 mov	 DWORD PTR fs:0, ecx
  000a6	59		 pop	 ecx
  000a7	c9		 leave
  000a8	c3		 ret	 0
  000a9	cc		 int	 3
  000aa	cc		 int	 3
  000ab	cc		 int	 3
  000ac	cc		 int	 3
  000ad	cc		 int	 3
_TEXT	ENDS
;	COMDAT text$x
text$x	SEGMENT
__ehhandler$??1CD3DXMeshRenderingOption@@UAE@XZ:
  00000	90		 npad	 1
  00001	90		 npad	 1
  00002	8b 54 24 08	 mov	 edx, DWORD PTR [esp+8]
  00006	8d 42 0c	 lea	 eax, DWORD PTR [edx+12]
  00009	8b 4a f8	 mov	 ecx, DWORD PTR [edx-8]
  0000c	33 c8		 xor	 ecx, eax
  0000e	e8 00 00 00 00	 call	 @__security_check_cookie@4
  00013	b8 00 00 00 00	 mov	 eax, OFFSET __ehfuncinfo$??1CD3DXMeshRenderingOption@@UAE@XZ
  00018	e9 00 00 00 00	 jmp	 ___CxxFrameHandler3
text$x	ENDS
??1CD3DXMeshRenderingOption@@UAE@XZ ENDP		; CD3DXMeshRenderingOption::~CD3DXMeshRenderingOption
; Function compile flags: /Odspy
; File D:\Metin2 Server Files\mainline\SRC_2014\Metin2Client\EterLib\GrpScreen.cpp
;	COMDAT ??0CD3DXMeshRenderingOption@@QAE@W4_D3DFILLMODE@@ABUD3DXMATRIX@@@Z
_TEXT	SEGMENT
_this$ = -16						; size = 4
__$EHRec$ = -12						; size = 12
_d3dFillMode$ = 8					; size = 4
_c_rmatWorld$ = 12					; size = 4
??0CD3DXMeshRenderingOption@@QAE@W4_D3DFILLMODE@@ABUD3DXMATRIX@@@Z PROC ; CD3DXMeshRenderingOption::CD3DXMeshRenderingOption, COMDAT
; _this$ = ecx

; 316  : 	CD3DXMeshRenderingOption(D3DFILLMODE d3dFillMode, const D3DXMATRIX & c_rmatWorld)

  00000	55		 push	 ebp
  00001	8b ec		 mov	 ebp, esp
  00003	6a ff		 push	 -1
  00005	68 00 00 00 00	 push	 __ehhandler$??0CD3DXMeshRenderingOption@@QAE@W4_D3DFILLMODE@@ABUD3DXMATRIX@@@Z
  0000a	64 a1 00 00 00
	00		 mov	 eax, DWORD PTR fs:0
  00010	50		 push	 eax
  00011	51		 push	 ecx
  00012	a1 00 00 00 00	 mov	 eax, DWORD PTR ___security_cookie
  00017	33 c5		 xor	 eax, ebp
  00019	50		 push	 eax
  0001a	8d 45 f4	 lea	 eax, DWORD PTR __$EHRec$[ebp]
  0001d	64 a3 00 00 00
	00		 mov	 DWORD PTR fs:0, eax
  00023	89 4d f0	 mov	 DWORD PTR _this$[ebp], ecx
  00026	8b 4d f0	 mov	 ecx, DWORD PTR _this$[ebp]
  00029	e8 00 00 00 00	 call	 ??0CScreen@@QAE@XZ	; CScreen::CScreen
  0002e	83 65 fc 00	 and	 DWORD PTR __$EHRec$[ebp+8], 0
  00032	8b 45 f0	 mov	 eax, DWORD PTR _this$[ebp]
  00035	c7 00 00 00 00
	00		 mov	 DWORD PTR [eax], OFFSET ??_7CD3DXMeshRenderingOption@@6B@

; 317  : 	{
; 318  : 		ms_lpd3dDevice->GetVertexShader(&m_dwVS);

  0003b	8b 45 f0	 mov	 eax, DWORD PTR _this$[ebp]
  0003e	83 c0 04	 add	 eax, 4
  00041	50		 push	 eax
  00042	a1 00 00 00 00	 mov	 eax, DWORD PTR ?ms_lpd3dDevice@CGraphicBase@@1PAUIDirect3DDevice8@@A ; CGraphicBase::ms_lpd3dDevice
  00047	8b 00		 mov	 eax, DWORD PTR [eax]
  00049	ff 35 00 00 00
	00		 push	 DWORD PTR ?ms_lpd3dDevice@CGraphicBase@@1PAUIDirect3DDevice8@@A ; CGraphicBase::ms_lpd3dDevice
  0004f	ff 90 34 01 00
	00		 call	 DWORD PTR [eax+308]

; 319  : 
; 320  : 		STATEMANAGER.SaveTextureStageState(0, D3DTSS_COLORARG1, D3DTA_TFACTOR);

  00055	6a 03		 push	 3
  00057	6a 02		 push	 2
  00059	6a 00		 push	 0
  0005b	8b 0d 00 00 00
	00		 mov	 ecx, DWORD PTR ?ms_singleton@?$CSingleton@VCStateManager@@@@0PAVCStateManager@@A ; CSingleton<CStateManager>::ms_singleton
  00061	e8 00 00 00 00	 call	 ?SaveTextureStageState@CStateManager@@QAEXKW4_D3DTEXTURESTAGESTATETYPE@@K@Z ; CStateManager::SaveTextureStageState

; 321  : 		STATEMANAGER.SaveTextureStageState(0, D3DTSS_COLOROP, D3DTOP_SELECTARG1);

  00066	6a 02		 push	 2
  00068	6a 01		 push	 1
  0006a	6a 00		 push	 0
  0006c	8b 0d 00 00 00
	00		 mov	 ecx, DWORD PTR ?ms_singleton@?$CSingleton@VCStateManager@@@@0PAVCStateManager@@A ; CSingleton<CStateManager>::ms_singleton
  00072	e8 00 00 00 00	 call	 ?SaveTextureStageState@CStateManager@@QAEXKW4_D3DTEXTURESTAGESTATETYPE@@K@Z ; CStateManager::SaveTextureStageState

; 322  : 		STATEMANAGER.SaveTextureStageState(0, D3DTSS_ALPHAOP, D3DTOP_DISABLE);

  00077	6a 01		 push	 1
  00079	6a 04		 push	 4
  0007b	6a 00		 push	 0
  0007d	8b 0d 00 00 00
	00		 mov	 ecx, DWORD PTR ?ms_singleton@?$CSingleton@VCStateManager@@@@0PAVCStateManager@@A ; CSingleton<CStateManager>::ms_singleton
  00083	e8 00 00 00 00	 call	 ?SaveTextureStageState@CStateManager@@QAEXKW4_D3DTEXTURESTAGESTATETYPE@@K@Z ; CStateManager::SaveTextureStageState

; 323  : 		STATEMANAGER.SetRenderState(D3DRS_FILLMODE, d3dFillMode);

  00088	ff 75 08	 push	 DWORD PTR _d3dFillMode$[ebp]
  0008b	6a 08		 push	 8
  0008d	8b 0d 00 00 00
	00		 mov	 ecx, DWORD PTR ?ms_singleton@?$CSingleton@VCStateManager@@@@0PAVCStateManager@@A ; CSingleton<CStateManager>::ms_singleton
  00093	e8 00 00 00 00	 call	 ?SetRenderState@CStateManager@@QAEXW4_D3DRENDERSTATETYPE@@K@Z ; CStateManager::SetRenderState

; 324  : 		STATEMANAGER.SaveTransform(D3DTS_WORLD, &c_rmatWorld);

  00098	ff 75 0c	 push	 DWORD PTR _c_rmatWorld$[ebp]
  0009b	68 00 01 00 00	 push	 256			; 00000100H
  000a0	8b 0d 00 00 00
	00		 mov	 ecx, DWORD PTR ?ms_singleton@?$CSingleton@VCStateManager@@@@0PAVCStateManager@@A ; CSingleton<CStateManager>::ms_singleton
  000a6	e8 00 00 00 00	 call	 ?SaveTransform@CStateManager@@QAEXW4_D3DTRANSFORMSTATETYPE@@PBU_D3DMATRIX@@@Z ; CStateManager::SaveTransform

; 325  : 
; 326  : 		STATEMANAGER.SetTexture(0, NULL);

  000ab	6a 00		 push	 0
  000ad	6a 00		 push	 0
  000af	8b 0d 00 00 00
	00		 mov	 ecx, DWORD PTR ?ms_singleton@?$CSingleton@VCStateManager@@@@0PAVCStateManager@@A ; CSingleton<CStateManager>::ms_singleton
  000b5	e8 00 00 00 00	 call	 ?SetTexture@CStateManager@@QAEXKPAUIDirect3DBaseTexture8@@@Z ; CStateManager::SetTexture

; 327  : 		STATEMANAGER.SetTexture(1, NULL);

  000ba	6a 00		 push	 0
  000bc	6a 01		 push	 1
  000be	8b 0d 00 00 00
	00		 mov	 ecx, DWORD PTR ?ms_singleton@?$CSingleton@VCStateManager@@@@0PAVCStateManager@@A ; CSingleton<CStateManager>::ms_singleton
  000c4	e8 00 00 00 00	 call	 ?SetTexture@CStateManager@@QAEXKPAUIDirect3DBaseTexture8@@@Z ; CStateManager::SetTexture

; 328  : 	}

  000c9	83 4d fc ff	 or	 DWORD PTR __$EHRec$[ebp+8], -1
  000cd	8b 45 f0	 mov	 eax, DWORD PTR _this$[ebp]
  000d0	8b 4d f4	 mov	 ecx, DWORD PTR __$EHRec$[ebp]
  000d3	64 89 0d 00 00
	00 00		 mov	 DWORD PTR fs:0, ecx
  000da	59		 pop	 ecx
  000db	c9		 leave
  000dc	c2 08 00	 ret	 8
_TEXT	ENDS
;	COMDAT text$x
text$x	SEGMENT
__unwindfunclet$??0CD3DXMeshRenderingOption@@QAE@W4_D3DFILLMODE@@ABUD3DXMATRIX@@@Z$0:
  00000	8b 4d f0	 mov	 ecx, DWORD PTR _this$[ebp]
  00003	e9 00 00 00 00	 jmp	 ??1CScreen@@UAE@XZ	; CScreen::~CScreen
  00008	cc		 int	 3
  00009	cc		 int	 3
  0000a	cc		 int	 3
  0000b	cc		 int	 3
  0000c	cc		 int	 3
__ehhandler$??0CD3DXMeshRenderingOption@@QAE@W4_D3DFILLMODE@@ABUD3DXMATRIX@@@Z:
  0000d	90		 npad	 1
  0000e	90		 npad	 1
  0000f	8b 54 24 08	 mov	 edx, DWORD PTR [esp+8]
  00013	8d 42 0c	 lea	 eax, DWORD PTR [edx+12]
  00016	8b 4a f8	 mov	 ecx, DWORD PTR [edx-8]
  00019	33 c8		 xor	 ecx, eax
  0001b	e8 00 00 00 00	 call	 @__security_check_cookie@4
  00020	b8 00 00 00 00	 mov	 eax, OFFSET __ehfuncinfo$??0CD3DXMeshRenderingOption@@QAE@W4_D3DFILLMODE@@ABUD3DXMATRIX@@@Z
  00025	e9 00 00 00 00	 jmp	 ___CxxFrameHandler3
text$x	ENDS
??0CD3DXMeshRenderingOption@@QAE@W4_D3DFILLMODE@@ABUD3DXMATRIX@@@Z ENDP ; CD3DXMeshRenderingOption::CD3DXMeshRenderingOption
; Function compile flags: /Odspy
; File C:\Program Files (x86)\Microsoft Visual Studio\2019\Community\VC\Tools\MSVC\14.28.29333\include\vector
;	COMDAT ??0?$_Vector_val@U?$_Simple_types@UD3DXVECTOR3@@@std@@@std@@QAE@XZ
_TEXT	SEGMENT
_this$ = -4						; size = 4
??0?$_Vector_val@U?$_Simple_types@UD3DXVECTOR3@@@std@@@std@@QAE@XZ PROC ; std::_Vector_val<std::_Simple_types<D3DXVECTOR3> >::_Vector_val<std::_Simple_types<D3DXVECTOR3> >, COMDAT
; _this$ = ecx

; 375  :     _Vector_val() noexcept : _Myfirst(), _Mylast(), _Myend() {}

  00000	55		 push	 ebp
  00001	8b ec		 mov	 ebp, esp
  00003	51		 push	 ecx
  00004	89 4d fc	 mov	 DWORD PTR _this$[ebp], ecx
  00007	8b 45 fc	 mov	 eax, DWORD PTR _this$[ebp]
  0000a	83 20 00	 and	 DWORD PTR [eax], 0
  0000d	8b 45 fc	 mov	 eax, DWORD PTR _this$[ebp]
  00010	83 60 04 00	 and	 DWORD PTR [eax+4], 0
  00014	8b 45 fc	 mov	 eax, DWORD PTR _this$[ebp]
  00017	83 60 08 00	 and	 DWORD PTR [eax+8], 0
  0001b	8b 45 fc	 mov	 eax, DWORD PTR _this$[ebp]
  0001e	c9		 leave
  0001f	c3		 ret	 0
??0?$_Vector_val@U?$_Simple_types@UD3DXVECTOR3@@@std@@@std@@QAE@XZ ENDP ; std::_Vector_val<std::_Simple_types<D3DXVECTOR3> >::_Vector_val<std::_Simple_types<D3DXVECTOR3> >
_TEXT	ENDS
; Function compile flags: /Odspy
; File C:\Program Files (x86)\Microsoft Visual Studio\2019\Community\VC\Tools\MSVC\14.28.29333\include\vector
; File C:\Program Files (x86)\Microsoft Visual Studio\2019\Community\VC\Tools\MSVC\14.28.29333\include\xmemory
; File C:\Program Files (x86)\Microsoft Visual Studio\2019\Community\VC\Tools\MSVC\14.28.29333\include\vector
;	COMDAT ?_Getal@?$vector@UD3DXVECTOR3@@V?$allocator@UD3DXVECTOR3@@@std@@@std@@AAEAAV?$allocator@UD3DXVECTOR3@@@2@XZ
_TEXT	SEGMENT
$T1 = -8						; size = 4
_this$ = -4						; size = 4
?_Getal@?$vector@UD3DXVECTOR3@@V?$allocator@UD3DXVECTOR3@@@std@@@std@@AAEAAV?$allocator@UD3DXVECTOR3@@@2@XZ PROC ; std::vector<D3DXVECTOR3,std::allocator<D3DXVECTOR3> >::_Getal, COMDAT
; _this$ = ecx

; 1732 :     _Alty& _Getal() noexcept {

  00000	55		 push	 ebp
  00001	8b ec		 mov	 ebp, esp
  00003	51		 push	 ecx
  00004	51		 push	 ecx
  00005	89 4d fc	 mov	 DWORD PTR _this$[ebp], ecx

; 1733 :         return _Mypair._Get_first();

  00008	8b 45 fc	 mov	 eax, DWORD PTR _this$[ebp]
; File C:\Program Files (x86)\Microsoft Visual Studio\2019\Community\VC\Tools\MSVC\14.28.29333\include\xmemory

; 1347 :         return *this;

  0000b	89 45 f8	 mov	 DWORD PTR $T1[ebp], eax
; File C:\Program Files (x86)\Microsoft Visual Studio\2019\Community\VC\Tools\MSVC\14.28.29333\include\vector

; 1733 :         return _Mypair._Get_first();

  0000e	8b 45 f8	 mov	 eax, DWORD PTR $T1[ebp]

; 1734 :     }

  00011	c9		 leave
  00012	c3		 ret	 0
?_Getal@?$vector@UD3DXVECTOR3@@V?$allocator@UD3DXVECTOR3@@@std@@@std@@AAEAAV?$allocator@UD3DXVECTOR3@@@2@XZ ENDP ; std::vector<D3DXVECTOR3,std::allocator<D3DXVECTOR3> >::_Getal
_TEXT	ENDS
; Function compile flags: /Odspy
; File C:\Program Files (x86)\Microsoft Visual Studio\2019\Community\VC\Tools\MSVC\14.28.29333\include\vector
;	COMDAT ?_Xlength@?$vector@UD3DXVECTOR3@@V?$allocator@UD3DXVECTOR3@@@std@@@std@@CAXXZ
_TEXT	SEGMENT
?_Xlength@?$vector@UD3DXVECTOR3@@V?$allocator@UD3DXVECTOR3@@@std@@@std@@CAXXZ PROC ; std::vector<D3DXVECTOR3,std::allocator<D3DXVECTOR3> >::_Xlength, COMDAT

; 1704 :     [[noreturn]] static void _Xlength() {

  00000	55		 push	 ebp
  00001	8b ec		 mov	 ebp, esp

; 1705 :         _Xlength_error("vector too long");

  00003	68 00 00 00 00	 push	 OFFSET ??_C@_0BA@FOIKENOD@vector?5too?5long@
  00008	e8 00 00 00 00	 call	 ?_Xlength_error@std@@YAXPBD@Z ; std::_Xlength_error
$LN2@Xlength:

; 1706 :     }

  0000d	5d		 pop	 ebp
  0000e	c3		 ret	 0
?_Xlength@?$vector@UD3DXVECTOR3@@V?$allocator@UD3DXVECTOR3@@@std@@@std@@CAXXZ ENDP ; std::vector<D3DXVECTOR3,std::allocator<D3DXVECTOR3> >::_Xlength
_TEXT	ENDS
; Function compile flags: /Odspy
; File C:\Program Files (x86)\Microsoft Visual Studio\2019\Community\VC\Tools\MSVC\14.28.29333\include\vector
; File C:\Program Files (x86)\Microsoft Visual Studio\2019\Community\VC\Tools\MSVC\14.28.29333\include\xmemory
; File C:\Program Files (x86)\Microsoft Visual Studio\2019\Community\VC\Tools\MSVC\14.28.29333\include\vector
; File C:\Program Files (x86)\Microsoft Visual Studio\2019\Community\VC\Tools\MSVC\14.28.29333\include\xmemory
; File C:\Program Files (x86)\Microsoft Visual Studio\2019\Community\VC\Tools\MSVC\14.28.29333\include\vector
; File C:\Program Files (x86)\Microsoft Visual Studio\2019\Community\VC\Tools\MSVC\14.28.29333\include\xmemory
; File C:\Program Files (x86)\Microsoft Visual Studio\2019\Community\VC\Tools\MSVC\14.28.29333\include\vector
;	COMDAT ?_Tidy@?$vector@UD3DXVECTOR3@@V?$allocator@UD3DXVECTOR3@@@std@@@std@@AAEXXZ
_TEXT	SEGMENT
$T1 = -52						; size = 4
__Ptr$ = -48						; size = 4
__Count$ = -44						; size = 4
$T2 = -40						; size = 4
__First$ = -36						; size = 4
__Last$ = -32						; size = 4
$T3 = -28						; size = 4
$T4 = -24						; size = 4
__Myend$ = -20						; size = 4
__Mylast$ = -16						; size = 4
_this$ = -12						; size = 4
__My_data$ = -8						; size = 4
__Myfirst$ = -4						; size = 4
?_Tidy@?$vector@UD3DXVECTOR3@@V?$allocator@UD3DXVECTOR3@@@std@@@std@@AAEXXZ PROC ; std::vector<D3DXVECTOR3,std::allocator<D3DXVECTOR3> >::_Tidy, COMDAT
; _this$ = ecx

; 1686 :     void _Tidy() noexcept { // free all storage

  00000	55		 push	 ebp
  00001	8b ec		 mov	 ebp, esp
  00003	83 ec 34	 sub	 esp, 52			; 00000034H
  00006	89 4d f4	 mov	 DWORD PTR _this$[ebp], ecx

; 1687 :         auto& _My_data    = _Mypair._Myval2;

  00009	8b 45 f4	 mov	 eax, DWORD PTR _this$[ebp]
  0000c	89 45 f8	 mov	 DWORD PTR __My_data$[ebp], eax

; 1688 :         pointer& _Myfirst = _My_data._Myfirst;

  0000f	8b 45 f8	 mov	 eax, DWORD PTR __My_data$[ebp]
  00012	89 45 fc	 mov	 DWORD PTR __Myfirst$[ebp], eax

; 1689 :         pointer& _Mylast  = _My_data._Mylast;

  00015	8b 45 f8	 mov	 eax, DWORD PTR __My_data$[ebp]
  00018	83 c0 04	 add	 eax, 4
  0001b	89 45 f0	 mov	 DWORD PTR __Mylast$[ebp], eax

; 1690 :         pointer& _Myend   = _My_data._Myend;

  0001e	8b 45 f8	 mov	 eax, DWORD PTR __My_data$[ebp]
  00021	83 c0 08	 add	 eax, 8
  00024	89 45 ec	 mov	 DWORD PTR __Myend$[ebp], eax

; 1691 : 
; 1692 :         _My_data._Orphan_all();
; 1693 : 
; 1694 :         if (_Myfirst) { // destroy and deallocate old array

  00027	8b 45 fc	 mov	 eax, DWORD PTR __Myfirst$[ebp]
  0002a	83 38 00	 cmp	 DWORD PTR [eax], 0
  0002d	74 75		 je	 SHORT $LN3@Tidy

; 1695 :             _Destroy(_Myfirst, _Mylast);

  0002f	8b 45 f0	 mov	 eax, DWORD PTR __Mylast$[ebp]
  00032	8b 00		 mov	 eax, DWORD PTR [eax]
  00034	89 45 e0	 mov	 DWORD PTR __Last$[ebp], eax
  00037	8b 45 fc	 mov	 eax, DWORD PTR __Myfirst$[ebp]
  0003a	8b 00		 mov	 eax, DWORD PTR [eax]
  0003c	89 45 dc	 mov	 DWORD PTR __First$[ebp], eax

; 1733 :         return _Mypair._Get_first();

  0003f	8b 45 f4	 mov	 eax, DWORD PTR _this$[ebp]
; File C:\Program Files (x86)\Microsoft Visual Studio\2019\Community\VC\Tools\MSVC\14.28.29333\include\xmemory

; 1347 :         return *this;

  00042	89 45 e8	 mov	 DWORD PTR $T4[ebp], eax
; File C:\Program Files (x86)\Microsoft Visual Studio\2019\Community\VC\Tools\MSVC\14.28.29333\include\vector

; 1733 :         return _Mypair._Get_first();

  00045	8b 45 e8	 mov	 eax, DWORD PTR $T4[ebp]
  00048	89 45 e4	 mov	 DWORD PTR $T3[ebp], eax

; 1612 :         _Destroy_range(_First, _Last, _Getal());

  0004b	ff 75 e4	 push	 DWORD PTR $T3[ebp]
  0004e	ff 75 e0	 push	 DWORD PTR __Last$[ebp]
  00051	ff 75 dc	 push	 DWORD PTR __First$[ebp]
  00054	e8 00 00 00 00	 call	 ??$_Destroy_range@V?$allocator@UD3DXVECTOR3@@@std@@@std@@YAXPAUD3DXVECTOR3@@QAU1@AAV?$allocator@UD3DXVECTOR3@@@0@@Z ; std::_Destroy_range<std::allocator<D3DXVECTOR3> >
  00059	83 c4 0c	 add	 esp, 12			; 0000000cH

; 1733 :         return _Mypair._Get_first();

  0005c	8b 45 f4	 mov	 eax, DWORD PTR _this$[ebp]
; File C:\Program Files (x86)\Microsoft Visual Studio\2019\Community\VC\Tools\MSVC\14.28.29333\include\xmemory

; 1347 :         return *this;

  0005f	89 45 d8	 mov	 DWORD PTR $T2[ebp], eax
; File C:\Program Files (x86)\Microsoft Visual Studio\2019\Community\VC\Tools\MSVC\14.28.29333\include\vector

; 1733 :         return _Mypair._Get_first();

  00062	8b 45 d8	 mov	 eax, DWORD PTR $T2[ebp]
  00065	89 45 cc	 mov	 DWORD PTR $T1[ebp], eax

; 1696 :             _Getal().deallocate(_Myfirst, static_cast<size_type>(_Myend - _Myfirst));

  00068	8b 45 ec	 mov	 eax, DWORD PTR __Myend$[ebp]
  0006b	8b 4d fc	 mov	 ecx, DWORD PTR __Myfirst$[ebp]
  0006e	8b 00		 mov	 eax, DWORD PTR [eax]
  00070	2b 01		 sub	 eax, DWORD PTR [ecx]
  00072	99		 cdq
  00073	6a 0c		 push	 12			; 0000000cH
  00075	59		 pop	 ecx
  00076	f7 f9		 idiv	 ecx
  00078	89 45 d4	 mov	 DWORD PTR __Count$[ebp], eax
  0007b	8b 45 fc	 mov	 eax, DWORD PTR __Myfirst$[ebp]
  0007e	8b 00		 mov	 eax, DWORD PTR [eax]
  00080	89 45 d0	 mov	 DWORD PTR __Ptr$[ebp], eax
; File C:\Program Files (x86)\Microsoft Visual Studio\2019\Community\VC\Tools\MSVC\14.28.29333\include\xmemory

; 810  :         _Deallocate<_New_alignof<_Ty>>(_Ptr, sizeof(_Ty) * _Count);

  00083	6b 45 d4 0c	 imul	 eax, DWORD PTR __Count$[ebp], 12
  00087	50		 push	 eax
  00088	ff 75 d0	 push	 DWORD PTR __Ptr$[ebp]
  0008b	e8 00 00 00 00	 call	 ??$_Deallocate@$07$0A@@std@@YAXPAXI@Z ; std::_Deallocate<8,0>
  00090	59		 pop	 ecx
  00091	59		 pop	 ecx
; File C:\Program Files (x86)\Microsoft Visual Studio\2019\Community\VC\Tools\MSVC\14.28.29333\include\vector

; 1698 :             _Myfirst = pointer();

  00092	8b 45 fc	 mov	 eax, DWORD PTR __Myfirst$[ebp]
  00095	83 20 00	 and	 DWORD PTR [eax], 0

; 1699 :             _Mylast  = pointer();

  00098	8b 45 f0	 mov	 eax, DWORD PTR __Mylast$[ebp]
  0009b	83 20 00	 and	 DWORD PTR [eax], 0

; 1700 :             _Myend   = pointer();

  0009e	8b 45 ec	 mov	 eax, DWORD PTR __Myend$[ebp]
  000a1	83 20 00	 and	 DWORD PTR [eax], 0
$LN3@Tidy:

; 1701 :         }
; 1702 :     }

  000a4	c9		 leave
  000a5	c3		 ret	 0
?_Tidy@?$vector@UD3DXVECTOR3@@V?$allocator@UD3DXVECTOR3@@@std@@@std@@AAEXXZ ENDP ; std::vector<D3DXVECTOR3,std::allocator<D3DXVECTOR3> >::_Tidy
_TEXT	ENDS
; Function compile flags: /Odspy
; File C:\Program Files (x86)\Microsoft Visual Studio\2019\Community\VC\Tools\MSVC\14.28.29333\include\vector
; File C:\Program Files (x86)\Microsoft Visual Studio\2019\Community\VC\Tools\MSVC\14.28.29333\include\xmemory
; File C:\Program Files (x86)\Microsoft Visual Studio\2019\Community\VC\Tools\MSVC\14.28.29333\include\vector
; File C:\Program Files (x86)\Microsoft Visual Studio\2019\Community\VC\Tools\MSVC\14.28.29333\include\xmemory
; File C:\Program Files (x86)\Microsoft Visual Studio\2019\Community\VC\Tools\MSVC\14.28.29333\include\vector
; File C:\Program Files (x86)\Microsoft Visual Studio\2019\Community\VC\Tools\MSVC\14.28.29333\include\xmemory
; File C:\Program Files (x86)\Microsoft Visual Studio\2019\Community\VC\Tools\MSVC\14.28.29333\include\vector
;	COMDAT ?_Change_array@?$vector@UD3DXVECTOR3@@V?$allocator@UD3DXVECTOR3@@@std@@@std@@AAEXQAUD3DXVECTOR3@@II@Z
_TEXT	SEGMENT
$T1 = -52						; size = 4
__Ptr$ = -48						; size = 4
__Count$ = -44						; size = 4
$T2 = -40						; size = 4
__First$ = -36						; size = 4
__Last$ = -32						; size = 4
$T3 = -28						; size = 4
$T4 = -24						; size = 4
__Myend$ = -20						; size = 4
__Mylast$ = -16						; size = 4
_this$ = -12						; size = 4
__My_data$ = -8						; size = 4
__Myfirst$ = -4						; size = 4
__Newvec$ = 8						; size = 4
__Newsize$ = 12						; size = 4
__Newcapacity$ = 16					; size = 4
?_Change_array@?$vector@UD3DXVECTOR3@@V?$allocator@UD3DXVECTOR3@@@std@@@std@@AAEXQAUD3DXVECTOR3@@II@Z PROC ; std::vector<D3DXVECTOR3,std::allocator<D3DXVECTOR3> >::_Change_array, COMDAT
; _this$ = ecx

; 1667 :     void _Change_array(const pointer _Newvec, const size_type _Newsize, const size_type _Newcapacity) {

  00000	55		 push	 ebp
  00001	8b ec		 mov	 ebp, esp
  00003	83 ec 34	 sub	 esp, 52			; 00000034H
  00006	89 4d f4	 mov	 DWORD PTR _this$[ebp], ecx

; 1668 :         // orphan all iterators, discard old array, acquire new array
; 1669 :         auto& _My_data    = _Mypair._Myval2;

  00009	8b 45 f4	 mov	 eax, DWORD PTR _this$[ebp]
  0000c	89 45 f8	 mov	 DWORD PTR __My_data$[ebp], eax

; 1670 :         pointer& _Myfirst = _My_data._Myfirst;

  0000f	8b 45 f8	 mov	 eax, DWORD PTR __My_data$[ebp]
  00012	89 45 fc	 mov	 DWORD PTR __Myfirst$[ebp], eax

; 1671 :         pointer& _Mylast  = _My_data._Mylast;

  00015	8b 45 f8	 mov	 eax, DWORD PTR __My_data$[ebp]
  00018	83 c0 04	 add	 eax, 4
  0001b	89 45 f0	 mov	 DWORD PTR __Mylast$[ebp], eax

; 1672 :         pointer& _Myend   = _My_data._Myend;

  0001e	8b 45 f8	 mov	 eax, DWORD PTR __My_data$[ebp]
  00021	83 c0 08	 add	 eax, 8
  00024	89 45 ec	 mov	 DWORD PTR __Myend$[ebp], eax

; 1673 : 
; 1674 :         _My_data._Orphan_all();
; 1675 : 
; 1676 :         if (_Myfirst) { // destroy and deallocate old array

  00027	8b 45 fc	 mov	 eax, DWORD PTR __Myfirst$[ebp]
  0002a	83 38 00	 cmp	 DWORD PTR [eax], 0
  0002d	74 63		 je	 SHORT $LN2@Change_arr

; 1677 :             _Destroy(_Myfirst, _Mylast);

  0002f	8b 45 f0	 mov	 eax, DWORD PTR __Mylast$[ebp]
  00032	8b 00		 mov	 eax, DWORD PTR [eax]
  00034	89 45 e0	 mov	 DWORD PTR __Last$[ebp], eax
  00037	8b 45 fc	 mov	 eax, DWORD PTR __Myfirst$[ebp]
  0003a	8b 00		 mov	 eax, DWORD PTR [eax]
  0003c	89 45 dc	 mov	 DWORD PTR __First$[ebp], eax

; 1733 :         return _Mypair._Get_first();

  0003f	8b 45 f4	 mov	 eax, DWORD PTR _this$[ebp]
; File C:\Program Files (x86)\Microsoft Visual Studio\2019\Community\VC\Tools\MSVC\14.28.29333\include\xmemory

; 1347 :         return *this;

  00042	89 45 e8	 mov	 DWORD PTR $T4[ebp], eax
; File C:\Program Files (x86)\Microsoft Visual Studio\2019\Community\VC\Tools\MSVC\14.28.29333\include\vector

; 1733 :         return _Mypair._Get_first();

  00045	8b 45 e8	 mov	 eax, DWORD PTR $T4[ebp]
  00048	89 45 e4	 mov	 DWORD PTR $T3[ebp], eax

; 1612 :         _Destroy_range(_First, _Last, _Getal());

  0004b	ff 75 e4	 push	 DWORD PTR $T3[ebp]
  0004e	ff 75 e0	 push	 DWORD PTR __Last$[ebp]
  00051	ff 75 dc	 push	 DWORD PTR __First$[ebp]
  00054	e8 00 00 00 00	 call	 ??$_Destroy_range@V?$allocator@UD3DXVECTOR3@@@std@@@std@@YAXPAUD3DXVECTOR3@@QAU1@AAV?$allocator@UD3DXVECTOR3@@@0@@Z ; std::_Destroy_range<std::allocator<D3DXVECTOR3> >
  00059	83 c4 0c	 add	 esp, 12			; 0000000cH

; 1733 :         return _Mypair._Get_first();

  0005c	8b 45 f4	 mov	 eax, DWORD PTR _this$[ebp]
; File C:\Program Files (x86)\Microsoft Visual Studio\2019\Community\VC\Tools\MSVC\14.28.29333\include\xmemory

; 1347 :         return *this;

  0005f	89 45 d8	 mov	 DWORD PTR $T2[ebp], eax
; File C:\Program Files (x86)\Microsoft Visual Studio\2019\Community\VC\Tools\MSVC\14.28.29333\include\vector

; 1733 :         return _Mypair._Get_first();

  00062	8b 45 d8	 mov	 eax, DWORD PTR $T2[ebp]
  00065	89 45 cc	 mov	 DWORD PTR $T1[ebp], eax

; 1678 :             _Getal().deallocate(_Myfirst, static_cast<size_type>(_Myend - _Myfirst));

  00068	8b 45 ec	 mov	 eax, DWORD PTR __Myend$[ebp]
  0006b	8b 4d fc	 mov	 ecx, DWORD PTR __Myfirst$[ebp]
  0006e	8b 00		 mov	 eax, DWORD PTR [eax]
  00070	2b 01		 sub	 eax, DWORD PTR [ecx]
  00072	99		 cdq
  00073	6a 0c		 push	 12			; 0000000cH
  00075	59		 pop	 ecx
  00076	f7 f9		 idiv	 ecx
  00078	89 45 d4	 mov	 DWORD PTR __Count$[ebp], eax
  0007b	8b 45 fc	 mov	 eax, DWORD PTR __Myfirst$[ebp]
  0007e	8b 00		 mov	 eax, DWORD PTR [eax]
  00080	89 45 d0	 mov	 DWORD PTR __Ptr$[ebp], eax
; File C:\Program Files (x86)\Microsoft Visual Studio\2019\Community\VC\Tools\MSVC\14.28.29333\include\xmemory

; 810  :         _Deallocate<_New_alignof<_Ty>>(_Ptr, sizeof(_Ty) * _Count);

  00083	6b 45 d4 0c	 imul	 eax, DWORD PTR __Count$[ebp], 12
  00087	50		 push	 eax
  00088	ff 75 d0	 push	 DWORD PTR __Ptr$[ebp]
  0008b	e8 00 00 00 00	 call	 ??$_Deallocate@$07$0A@@std@@YAXPAXI@Z ; std::_Deallocate<8,0>
  00090	59		 pop	 ecx
  00091	59		 pop	 ecx
$LN2@Change_arr:
; File C:\Program Files (x86)\Microsoft Visual Studio\2019\Community\VC\Tools\MSVC\14.28.29333\include\vector

; 1681 :         _Myfirst = _Newvec;

  00092	8b 45 fc	 mov	 eax, DWORD PTR __Myfirst$[ebp]
  00095	8b 4d 08	 mov	 ecx, DWORD PTR __Newvec$[ebp]
  00098	89 08		 mov	 DWORD PTR [eax], ecx

; 1682 :         _Mylast  = _Newvec + _Newsize;

  0009a	6b 45 0c 0c	 imul	 eax, DWORD PTR __Newsize$[ebp], 12
  0009e	03 45 08	 add	 eax, DWORD PTR __Newvec$[ebp]
  000a1	8b 4d f0	 mov	 ecx, DWORD PTR __Mylast$[ebp]
  000a4	89 01		 mov	 DWORD PTR [ecx], eax

; 1683 :         _Myend   = _Newvec + _Newcapacity;

  000a6	6b 45 10 0c	 imul	 eax, DWORD PTR __Newcapacity$[ebp], 12
  000aa	03 45 08	 add	 eax, DWORD PTR __Newvec$[ebp]
  000ad	8b 4d ec	 mov	 ecx, DWORD PTR __Myend$[ebp]
  000b0	89 01		 mov	 DWORD PTR [ecx], eax

; 1684 :     }

  000b2	c9		 leave
  000b3	c2 0c 00	 ret	 12			; 0000000cH
?_Change_array@?$vector@UD3DXVECTOR3@@V?$allocator@UD3DXVECTOR3@@@std@@@std@@AAEXQAUD3DXVECTOR3@@II@Z ENDP ; std::vector<D3DXVECTOR3,std::allocator<D3DXVECTOR3> >::_Change_array
_TEXT	ENDS
; Function compile flags: /Odspy
; File C:\Program Files (x86)\Microsoft Visual Studio\2019\Community\VC\Tools\MSVC\14.28.29333\include\vector
; File C:\Program Files (x86)\Microsoft Visual Studio\2019\Community\VC\Tools\MSVC\14.28.29333\include\xmemory
; File C:\Program Files (x86)\Microsoft Visual Studio\2019\Community\VC\Tools\MSVC\14.28.29333\include\vector
; File C:\Program Files (x86)\Microsoft Visual Studio\2019\Community\VC\Tools\MSVC\14.28.29333\include\xmemory
; File C:\Program Files (x86)\Microsoft Visual Studio\2019\Community\VC\Tools\MSVC\14.28.29333\include\limits
; File C:\Program Files (x86)\Microsoft Visual Studio\2019\Community\VC\Tools\MSVC\14.28.29333\include\vector
; File C:\Program Files (x86)\Microsoft Visual Studio\2019\Community\VC\Tools\MSVC\14.28.29333\include\utility
; File C:\Program Files (x86)\Microsoft Visual Studio\2019\Community\VC\Tools\MSVC\14.28.29333\include\vector
;	COMDAT ?_Calculate_growth@?$vector@UD3DXVECTOR3@@V?$allocator@UD3DXVECTOR3@@@std@@@std@@ABEII@Z
_TEXT	SEGMENT
$T1 = -52						; size = 4
$T2 = -48						; size = 4
$T3 = -44						; size = 4
$T4 = -40						; size = 4
$T5 = -36						; size = 4
__Geometric$ = -32					; size = 4
__Max$ = -28						; size = 4
tv82 = -24						; size = 4
$T6 = -20						; size = 4
$T7 = -16						; size = 4
_this$ = -12						; size = 4
__My_data$8 = -8					; size = 4
__Oldcapacity$ = -4					; size = 4
__Newsize$ = 8						; size = 4
?_Calculate_growth@?$vector@UD3DXVECTOR3@@V?$allocator@UD3DXVECTOR3@@@std@@@std@@ABEII@Z PROC ; std::vector<D3DXVECTOR3,std::allocator<D3DXVECTOR3> >::_Calculate_growth, COMDAT
; _this$ = ecx

; 1615 :     size_type _Calculate_growth(const size_type _Newsize) const {

  00000	55		 push	 ebp
  00001	8b ec		 mov	 ebp, esp
  00003	83 ec 34	 sub	 esp, 52			; 00000034H
  00006	89 4d f4	 mov	 DWORD PTR _this$[ebp], ecx

; 1493 :         auto& _My_data = _Mypair._Myval2;

  00009	8b 45 f4	 mov	 eax, DWORD PTR _this$[ebp]
  0000c	89 45 f8	 mov	 DWORD PTR __My_data$8[ebp], eax

; 1494 :         return static_cast<size_type>(_My_data._Myend - _My_data._Myfirst);

  0000f	8b 45 f8	 mov	 eax, DWORD PTR __My_data$8[ebp]
  00012	8b 4d f8	 mov	 ecx, DWORD PTR __My_data$8[ebp]
  00015	8b 40 08	 mov	 eax, DWORD PTR [eax+8]
  00018	2b 01		 sub	 eax, DWORD PTR [ecx]
  0001a	99		 cdq
  0001b	6a 0c		 push	 12			; 0000000cH
  0001d	59		 pop	 ecx
  0001e	f7 f9		 idiv	 ecx
  00020	89 45 fc	 mov	 DWORD PTR __Oldcapacity$[ebp], eax

; 1737 :         return _Mypair._Get_first();

  00023	8b 45 f4	 mov	 eax, DWORD PTR _this$[ebp]
; File C:\Program Files (x86)\Microsoft Visual Studio\2019\Community\VC\Tools\MSVC\14.28.29333\include\xmemory

; 1351 :         return *this;

  00026	89 45 dc	 mov	 DWORD PTR $T5[ebp], eax
; File C:\Program Files (x86)\Microsoft Visual Studio\2019\Community\VC\Tools\MSVC\14.28.29333\include\vector

; 1737 :         return _Mypair._Get_first();

  00029	8b 45 dc	 mov	 eax, DWORD PTR $T5[ebp]
  0002c	89 45 cc	 mov	 DWORD PTR $T1[ebp], eax
; File C:\Program Files (x86)\Microsoft Visual Studio\2019\Community\VC\Tools\MSVC\14.28.29333\include\xmemory

; 710  :         return static_cast<size_t>(-1) / sizeof(value_type);

  0002f	c7 45 f0 55 55
	55 15		 mov	 DWORD PTR $T7[ebp], 357913941 ; 15555555H
; File C:\Program Files (x86)\Microsoft Visual Studio\2019\Community\VC\Tools\MSVC\14.28.29333\include\limits

; 557  :         return INT_MAX;

  00036	c7 45 d8 ff ff
	ff 7f		 mov	 DWORD PTR $T4[ebp], 2147483647 ; 7fffffffH
; File C:\Program Files (x86)\Microsoft Visual Studio\2019\Community\VC\Tools\MSVC\14.28.29333\include\vector

; 1488 :         return (_STD min)(

  0003d	8b 45 d8	 mov	 eax, DWORD PTR $T4[ebp]
  00040	89 45 ec	 mov	 DWORD PTR $T6[ebp], eax
; File C:\Program Files (x86)\Microsoft Visual Studio\2019\Community\VC\Tools\MSVC\14.28.29333\include\utility

; 68   :     return _Right < _Left ? _Right : _Left;

  00043	8b 45 f0	 mov	 eax, DWORD PTR $T7[ebp]
  00046	3b 45 ec	 cmp	 eax, DWORD PTR $T6[ebp]
  00049	73 08		 jae	 SHORT $LN25@Calculate_
  0004b	8d 45 f0	 lea	 eax, DWORD PTR $T7[ebp]
  0004e	89 45 e8	 mov	 DWORD PTR tv82[ebp], eax
  00051	eb 06		 jmp	 SHORT $LN26@Calculate_
$LN25@Calculate_:
  00053	8d 45 ec	 lea	 eax, DWORD PTR $T6[ebp]
  00056	89 45 e8	 mov	 DWORD PTR tv82[ebp], eax
$LN26@Calculate_:
  00059	8b 45 e8	 mov	 eax, DWORD PTR tv82[ebp]
  0005c	89 45 d4	 mov	 DWORD PTR $T3[ebp], eax
  0005f	8b 45 d4	 mov	 eax, DWORD PTR $T3[ebp]
  00062	89 45 d0	 mov	 DWORD PTR $T2[ebp], eax
; File C:\Program Files (x86)\Microsoft Visual Studio\2019\Community\VC\Tools\MSVC\14.28.29333\include\vector

; 1488 :         return (_STD min)(

  00065	8b 45 d0	 mov	 eax, DWORD PTR $T2[ebp]
  00068	8b 00		 mov	 eax, DWORD PTR [eax]
  0006a	89 45 e4	 mov	 DWORD PTR __Max$[ebp], eax

; 1616 :         // given _Oldcapacity and _Newsize, calculate geometric growth
; 1617 :         const size_type _Oldcapacity = capacity();
; 1618 :         const auto _Max              = max_size();
; 1619 : 
; 1620 :         if (_Oldcapacity > _Max - _Oldcapacity / 2) {

  0006d	8b 45 fc	 mov	 eax, DWORD PTR __Oldcapacity$[ebp]
  00070	d1 e8		 shr	 eax, 1
  00072	8b 4d e4	 mov	 ecx, DWORD PTR __Max$[ebp]
  00075	2b c8		 sub	 ecx, eax
  00077	39 4d fc	 cmp	 DWORD PTR __Oldcapacity$[ebp], ecx
  0007a	76 05		 jbe	 SHORT $LN2@Calculate_

; 1621 :             return _Max; // geometric growth would overflow

  0007c	8b 45 e4	 mov	 eax, DWORD PTR __Max$[ebp]
  0007f	eb 1b		 jmp	 SHORT $LN1@Calculate_
$LN2@Calculate_:

; 1622 :         }
; 1623 : 
; 1624 :         const size_type _Geometric = _Oldcapacity + _Oldcapacity / 2;

  00081	8b 45 fc	 mov	 eax, DWORD PTR __Oldcapacity$[ebp]
  00084	d1 e8		 shr	 eax, 1
  00086	03 45 fc	 add	 eax, DWORD PTR __Oldcapacity$[ebp]
  00089	89 45 e0	 mov	 DWORD PTR __Geometric$[ebp], eax

; 1625 : 
; 1626 :         if (_Geometric < _Newsize) {

  0008c	8b 45 e0	 mov	 eax, DWORD PTR __Geometric$[ebp]
  0008f	3b 45 08	 cmp	 eax, DWORD PTR __Newsize$[ebp]
  00092	73 05		 jae	 SHORT $LN3@Calculate_

; 1627 :             return _Newsize; // geometric growth would be insufficient

  00094	8b 45 08	 mov	 eax, DWORD PTR __Newsize$[ebp]
  00097	eb 03		 jmp	 SHORT $LN1@Calculate_
$LN3@Calculate_:

; 1628 :         }
; 1629 : 
; 1630 :         return _Geometric; // geometric growth is sufficient

  00099	8b 45 e0	 mov	 eax, DWORD PTR __Geometric$[ebp]
$LN1@Calculate_:

; 1631 :     }

  0009c	c9		 leave
  0009d	c2 04 00	 ret	 4
?_Calculate_growth@?$vector@UD3DXVECTOR3@@V?$allocator@UD3DXVECTOR3@@@std@@@std@@ABEII@Z ENDP ; std::vector<D3DXVECTOR3,std::allocator<D3DXVECTOR3> >::_Calculate_growth
_TEXT	ENDS
; Function compile flags: /Odspy
; File C:\Program Files (x86)\Microsoft Visual Studio\2019\Community\VC\Tools\MSVC\14.28.29333\include\vector
; File C:\Program Files (x86)\Microsoft Visual Studio\2019\Community\VC\Tools\MSVC\14.28.29333\include\xmemory
; File C:\Program Files (x86)\Microsoft Visual Studio\2019\Community\VC\Tools\MSVC\14.28.29333\include\vector
;	COMDAT ?_Destroy@?$vector@UD3DXVECTOR3@@V?$allocator@UD3DXVECTOR3@@@std@@@std@@AAEXPAUD3DXVECTOR3@@0@Z
_TEXT	SEGMENT
$T1 = -12						; size = 4
$T2 = -8						; size = 4
_this$ = -4						; size = 4
__First$ = 8						; size = 4
__Last$ = 12						; size = 4
?_Destroy@?$vector@UD3DXVECTOR3@@V?$allocator@UD3DXVECTOR3@@@std@@@std@@AAEXPAUD3DXVECTOR3@@0@Z PROC ; std::vector<D3DXVECTOR3,std::allocator<D3DXVECTOR3> >::_Destroy, COMDAT
; _this$ = ecx

; 1611 :     void _Destroy(pointer _First, pointer _Last) { // destroy [_First, _Last) using allocator

  00000	55		 push	 ebp
  00001	8b ec		 mov	 ebp, esp
  00003	83 ec 0c	 sub	 esp, 12			; 0000000cH
  00006	89 4d fc	 mov	 DWORD PTR _this$[ebp], ecx

; 1733 :         return _Mypair._Get_first();

  00009	8b 45 fc	 mov	 eax, DWORD PTR _this$[ebp]
; File C:\Program Files (x86)\Microsoft Visual Studio\2019\Community\VC\Tools\MSVC\14.28.29333\include\xmemory

; 1347 :         return *this;

  0000c	89 45 f8	 mov	 DWORD PTR $T2[ebp], eax
; File C:\Program Files (x86)\Microsoft Visual Studio\2019\Community\VC\Tools\MSVC\14.28.29333\include\vector

; 1733 :         return _Mypair._Get_first();

  0000f	8b 45 f8	 mov	 eax, DWORD PTR $T2[ebp]
  00012	89 45 f4	 mov	 DWORD PTR $T1[ebp], eax

; 1612 :         _Destroy_range(_First, _Last, _Getal());

  00015	ff 75 f4	 push	 DWORD PTR $T1[ebp]
  00018	ff 75 0c	 push	 DWORD PTR __Last$[ebp]
  0001b	ff 75 08	 push	 DWORD PTR __First$[ebp]
  0001e	e8 00 00 00 00	 call	 ??$_Destroy_range@V?$allocator@UD3DXVECTOR3@@@std@@@std@@YAXPAUD3DXVECTOR3@@QAU1@AAV?$allocator@UD3DXVECTOR3@@@0@@Z ; std::_Destroy_range<std::allocator<D3DXVECTOR3> >
  00023	83 c4 0c	 add	 esp, 12			; 0000000cH

; 1613 :     }

  00026	c9		 leave
  00027	c2 08 00	 ret	 8
?_Destroy@?$vector@UD3DXVECTOR3@@V?$allocator@UD3DXVECTOR3@@@std@@@std@@AAEXPAUD3DXVECTOR3@@0@Z ENDP ; std::vector<D3DXVECTOR3,std::allocator<D3DXVECTOR3> >::_Destroy
_TEXT	ENDS
; Function compile flags: /Odspy
; File C:\Program Files (x86)\Microsoft Visual Studio\2019\Community\VC\Tools\MSVC\14.28.29333\include\vector
; File C:\Program Files (x86)\Microsoft Visual Studio\2019\Community\VC\Tools\MSVC\14.28.29333\include\xmemory
; File C:\Program Files (x86)\Microsoft Visual Studio\2019\Community\VC\Tools\MSVC\14.28.29333\include\vector
;	COMDAT ?clear@?$vector@UD3DXVECTOR3@@V?$allocator@UD3DXVECTOR3@@@std@@@std@@QAEXXZ
_TEXT	SEGMENT
__First$ = -32						; size = 4
__Last$ = -28						; size = 4
$T1 = -24						; size = 4
$T2 = -20						; size = 4
__Myfirst$ = -16					; size = 4
__Mylast$ = -12						; size = 4
_this$ = -8						; size = 4
__My_data$ = -4						; size = 4
?clear@?$vector@UD3DXVECTOR3@@V?$allocator@UD3DXVECTOR3@@@std@@@std@@QAEXXZ PROC ; std::vector<D3DXVECTOR3,std::allocator<D3DXVECTOR3> >::clear, COMDAT
; _this$ = ecx

; 1383 :     void clear() noexcept { // erase all

  00000	55		 push	 ebp
  00001	8b ec		 mov	 ebp, esp
  00003	83 ec 20	 sub	 esp, 32			; 00000020H
  00006	89 4d f8	 mov	 DWORD PTR _this$[ebp], ecx

; 1384 :         auto& _My_data    = _Mypair._Myval2;

  00009	8b 45 f8	 mov	 eax, DWORD PTR _this$[ebp]
  0000c	89 45 fc	 mov	 DWORD PTR __My_data$[ebp], eax

; 1385 :         pointer& _Myfirst = _My_data._Myfirst;

  0000f	8b 45 fc	 mov	 eax, DWORD PTR __My_data$[ebp]
  00012	89 45 f0	 mov	 DWORD PTR __Myfirst$[ebp], eax

; 1386 :         pointer& _Mylast  = _My_data._Mylast;

  00015	8b 45 fc	 mov	 eax, DWORD PTR __My_data$[ebp]
  00018	83 c0 04	 add	 eax, 4
  0001b	89 45 f4	 mov	 DWORD PTR __Mylast$[ebp], eax

; 1387 : 
; 1388 :         _My_data._Orphan_all();
; 1389 :         _Destroy(_Myfirst, _Mylast);

  0001e	8b 45 f4	 mov	 eax, DWORD PTR __Mylast$[ebp]
  00021	8b 00		 mov	 eax, DWORD PTR [eax]
  00023	89 45 e4	 mov	 DWORD PTR __Last$[ebp], eax
  00026	8b 45 f0	 mov	 eax, DWORD PTR __Myfirst$[ebp]
  00029	8b 00		 mov	 eax, DWORD PTR [eax]
  0002b	89 45 e0	 mov	 DWORD PTR __First$[ebp], eax

; 1733 :         return _Mypair._Get_first();

  0002e	8b 45 f8	 mov	 eax, DWORD PTR _this$[ebp]
; File C:\Program Files (x86)\Microsoft Visual Studio\2019\Community\VC\Tools\MSVC\14.28.29333\include\xmemory

; 1347 :         return *this;

  00031	89 45 ec	 mov	 DWORD PTR $T2[ebp], eax
; File C:\Program Files (x86)\Microsoft Visual Studio\2019\Community\VC\Tools\MSVC\14.28.29333\include\vector

; 1733 :         return _Mypair._Get_first();

  00034	8b 45 ec	 mov	 eax, DWORD PTR $T2[ebp]
  00037	89 45 e8	 mov	 DWORD PTR $T1[ebp], eax

; 1612 :         _Destroy_range(_First, _Last, _Getal());

  0003a	ff 75 e8	 push	 DWORD PTR $T1[ebp]
  0003d	ff 75 e4	 push	 DWORD PTR __Last$[ebp]
  00040	ff 75 e0	 push	 DWORD PTR __First$[ebp]
  00043	e8 00 00 00 00	 call	 ??$_Destroy_range@V?$allocator@UD3DXVECTOR3@@@std@@@std@@YAXPAUD3DXVECTOR3@@QAU1@AAV?$allocator@UD3DXVECTOR3@@@0@@Z ; std::_Destroy_range<std::allocator<D3DXVECTOR3> >
  00048	83 c4 0c	 add	 esp, 12			; 0000000cH

; 1390 :         _Mylast = _Myfirst;

  0004b	8b 45 f4	 mov	 eax, DWORD PTR __Mylast$[ebp]
  0004e	8b 4d f0	 mov	 ecx, DWORD PTR __Myfirst$[ebp]
  00051	8b 09		 mov	 ecx, DWORD PTR [ecx]
  00053	89 08		 mov	 DWORD PTR [eax], ecx

; 1391 :     }

  00055	c9		 leave
  00056	c3		 ret	 0
?clear@?$vector@UD3DXVECTOR3@@V?$allocator@UD3DXVECTOR3@@@std@@@std@@QAEXXZ ENDP ; std::vector<D3DXVECTOR3,std::allocator<D3DXVECTOR3> >::clear
_TEXT	ENDS
; Function compile flags: /Odspy
; File C:\Program Files (x86)\Microsoft Visual Studio\2019\Community\VC\Tools\MSVC\14.28.29333\include\vector
;	COMDAT ??1?$vector@UD3DXVECTOR3@@V?$allocator@UD3DXVECTOR3@@@std@@@std@@QAE@XZ
_TEXT	SEGMENT
_this$ = -4						; size = 4
??1?$vector@UD3DXVECTOR3@@V?$allocator@UD3DXVECTOR3@@@std@@@std@@QAE@XZ PROC ; std::vector<D3DXVECTOR3,std::allocator<D3DXVECTOR3> >::~vector<D3DXVECTOR3,std::allocator<D3DXVECTOR3> >, COMDAT
; _this$ = ecx

; 672  :     ~vector() noexcept {

  00000	55		 push	 ebp
  00001	8b ec		 mov	 ebp, esp
  00003	51		 push	 ecx
  00004	89 4d fc	 mov	 DWORD PTR _this$[ebp], ecx

; 673  :         _Tidy();

  00007	8b 4d fc	 mov	 ecx, DWORD PTR _this$[ebp]
  0000a	e8 00 00 00 00	 call	 ?_Tidy@?$vector@UD3DXVECTOR3@@V?$allocator@UD3DXVECTOR3@@@std@@@std@@AAEXXZ ; std::vector<D3DXVECTOR3,std::allocator<D3DXVECTOR3> >::_Tidy

; 674  : #if _ITERATOR_DEBUG_LEVEL != 0
; 675  :         auto&& _Alproxy = _GET_PROXY_ALLOCATOR(_Alty, _Getal());
; 676  :         _Delete_plain_internal(_Alproxy, _STD exchange(_Mypair._Myval2._Myproxy, nullptr));
; 677  : #endif // _ITERATOR_DEBUG_LEVEL != 0
; 678  :     }

  0000f	c9		 leave
  00010	c3		 ret	 0
??1?$vector@UD3DXVECTOR3@@V?$allocator@UD3DXVECTOR3@@@std@@@std@@QAE@XZ ENDP ; std::vector<D3DXVECTOR3,std::allocator<D3DXVECTOR3> >::~vector<D3DXVECTOR3,std::allocator<D3DXVECTOR3> >
_TEXT	ENDS
; Function compile flags: /Odspy
; File C:\Program Files (x86)\Microsoft Visual Studio\2019\Community\VC\Tools\MSVC\14.28.29333\include\xmemory
;	COMDAT ?deallocate@?$allocator@UD3DXVECTOR3@@@std@@QAEXQAUD3DXVECTOR3@@I@Z
_TEXT	SEGMENT
_this$ = -4						; size = 4
__Ptr$ = 8						; size = 4
__Count$ = 12						; size = 4
?deallocate@?$allocator@UD3DXVECTOR3@@@std@@QAEXQAUD3DXVECTOR3@@I@Z PROC ; std::allocator<D3DXVECTOR3>::deallocate, COMDAT
; _this$ = ecx

; 808  :     void deallocate(_Ty* const _Ptr, const size_t _Count) {

  00000	55		 push	 ebp
  00001	8b ec		 mov	 ebp, esp
  00003	51		 push	 ecx
  00004	89 4d fc	 mov	 DWORD PTR _this$[ebp], ecx

; 809  :         // no overflow check on the following multiply; we assume _Allocate did that check
; 810  :         _Deallocate<_New_alignof<_Ty>>(_Ptr, sizeof(_Ty) * _Count);

  00007	6b 45 0c 0c	 imul	 eax, DWORD PTR __Count$[ebp], 12
  0000b	50		 push	 eax
  0000c	ff 75 08	 push	 DWORD PTR __Ptr$[ebp]
  0000f	e8 00 00 00 00	 call	 ??$_Deallocate@$07$0A@@std@@YAXPAXI@Z ; std::_Deallocate<8,0>
  00014	59		 pop	 ecx
  00015	59		 pop	 ecx

; 811  :     }

  00016	c9		 leave
  00017	c2 08 00	 ret	 8
?deallocate@?$allocator@UD3DXVECTOR3@@@std@@QAEXQAUD3DXVECTOR3@@I@Z ENDP ; std::allocator<D3DXVECTOR3>::deallocate
_TEXT	ENDS
; Function compile flags: /Odspy
; File D:\Metin2 Server Files\mainline\SRC_2014\Metin2Client\EterLib\GrpScreen.cpp
;	COMDAT ??__E?ms_frustum@CScreen@@1VFrustum@@A@@YAXXZ
text$di	SEGMENT
tv76 = -12						; size = 4
___t$ = -8						; size = 4
___n$ = -4						; size = 4
??__E?ms_frustum@CScreen@@1VFrustum@@A@@YAXXZ PROC	; `dynamic initializer for 'CScreen::ms_frustum'', COMDAT

; 10   : Frustum		CScreen::ms_frustum;

  00000	55		 push	 ebp
  00001	8b ec		 mov	 ebp, esp
  00003	83 ec 0c	 sub	 esp, 12			; 0000000cH
  00006	c7 45 fc 06 00
	00 00		 mov	 DWORD PTR ___n$[ebp], 6
  0000d	c7 45 f8 14 00
	00 00		 mov	 DWORD PTR ___t$[ebp], OFFSET ?ms_frustum@CScreen@@1VFrustum@@A+20
$LN8@ms_frustum:
  00014	8b 45 fc	 mov	 eax, DWORD PTR ___n$[ebp]
  00017	89 45 f4	 mov	 DWORD PTR tv76[ebp], eax
  0001a	8b 45 fc	 mov	 eax, DWORD PTR ___n$[ebp]
  0001d	48		 dec	 eax
  0001e	89 45 fc	 mov	 DWORD PTR ___n$[ebp], eax
  00021	83 7d f4 00	 cmp	 DWORD PTR tv76[ebp], 0
  00025	76 0b		 jbe	 SHORT $LN1@ms_frustum
  00027	8b 45 f8	 mov	 eax, DWORD PTR ___t$[ebp]
  0002a	83 c0 10	 add	 eax, 16			; 00000010H
  0002d	89 45 f8	 mov	 DWORD PTR ___t$[ebp], eax
  00030	eb e2		 jmp	 SHORT $LN8@ms_frustum
$LN1@ms_frustum:
  00032	c9		 leave
  00033	c3		 ret	 0
??__E?ms_frustum@CScreen@@1VFrustum@@A@@YAXXZ ENDP	; `dynamic initializer for 'CScreen::ms_frustum''
text$di	ENDS
; Function compile flags: /Odspy
;	COMDAT ??_GCScreen@@UAEPAXI@Z
_TEXT	SEGMENT
_this$ = -4						; size = 4
___flags$ = 8						; size = 4
??_GCScreen@@UAEPAXI@Z PROC				; CScreen::`scalar deleting destructor', COMDAT
; _this$ = ecx
  00000	55		 push	 ebp
  00001	8b ec		 mov	 ebp, esp
  00003	51		 push	 ecx
  00004	89 4d fc	 mov	 DWORD PTR _this$[ebp], ecx
  00007	8b 4d fc	 mov	 ecx, DWORD PTR _this$[ebp]
  0000a	e8 00 00 00 00	 call	 ??1CScreen@@UAE@XZ	; CScreen::~CScreen
  0000f	8b 45 08	 mov	 eax, DWORD PTR ___flags$[ebp]
  00012	83 e0 01	 and	 eax, 1
  00015	74 0c		 je	 SHORT $LN2@scalar
  00017	6a 04		 push	 4
  00019	ff 75 fc	 push	 DWORD PTR _this$[ebp]
  0001c	e8 00 00 00 00	 call	 ??3@YAXPAXI@Z		; operator delete
  00021	59		 pop	 ecx
  00022	59		 pop	 ecx
$LN2@scalar:
  00023	8b 45 fc	 mov	 eax, DWORD PTR _this$[ebp]
  00026	c9		 leave
  00027	c2 04 00	 ret	 4
??_GCScreen@@UAEPAXI@Z ENDP				; CScreen::`scalar deleting destructor'
_TEXT	ENDS
; Function compile flags: /Odspy
; File D:\Metin2 Server Files\mainline\SRC_2014\Metin2Client\EterLib\GrpScreen.cpp
;	COMDAT ?Identity@CScreen@@SAXXZ
_TEXT	SEGMENT
?Identity@CScreen@@SAXXZ PROC				; CScreen::Identity, COMDAT

; 834  : {

  00000	55		 push	 ebp
  00001	8b ec		 mov	 ebp, esp

; 835  : 	STATEMANAGER.SetTransform(D3DTS_WORLD, &ms_matIdentity);

  00003	68 00 00 00 00	 push	 OFFSET ?ms_matIdentity@CGraphicBase@@1UD3DXMATRIX@@A ; CGraphicBase::ms_matIdentity
  00008	68 00 01 00 00	 push	 256			; 00000100H
  0000d	8b 0d 00 00 00
	00		 mov	 ecx, DWORD PTR ?ms_singleton@?$CSingleton@VCStateManager@@@@0PAVCStateManager@@A ; CSingleton<CStateManager>::ms_singleton
  00013	e8 00 00 00 00	 call	 ?SetTransform@CStateManager@@QAEXW4_D3DTRANSFORMSTATETYPE@@PBU_D3DMATRIX@@@Z ; CStateManager::SetTransform

; 836  : }

  00018	5d		 pop	 ebp
  00019	c3		 ret	 0
?Identity@CScreen@@SAXXZ ENDP				; CScreen::Identity
_TEXT	ENDS
; Function compile flags: /Odspy
; File D:\Metin2 Server Files\mainline\SRC_2014\Metin2Client\EterLib\GrpScreen.cpp
; File D:\Metin2 Server Files\mainline\SRC_2014\Metin2Client\eterBase\Singleton.h
; File D:\Metin2 Server Files\mainline\SRC_2014\Metin2Client\EterLib\GrpScreen.cpp
; File D:\Metin2 Server Files\mainline\SRC_2014\Metin2Client\EterLib\Camera.h
; File D:\Metin2 Server Files\mainline\SRC_2014\Metin2Client\EterLib\GrpScreen.cpp
; File D:\Metin2 Server Files\mainline\SRC_2014\Metin2Client\eterBase\Singleton.h
; File D:\Metin2 Server Files\mainline\SRC_2014\Metin2Client\EterLib\GrpScreen.cpp
; File D:\Metin2 Server Files\mainline\SRC_2014\Metin2Client\EterLib\Camera.h
; File D:\Metin2 Server Files\mainline\SRC_2014\Metin2Client\EterLib\GrpScreen.cpp
; File D:\Metin2 Server Files\mainline\SRC_2014\M2Data\include\d3dx8math.inl
; File D:\Metin2 Server Files\mainline\SRC_2014\Metin2Client\EterLib\GrpScreen.cpp
;	COMDAT ?BuildViewFrustum@CScreen@@QAEXXZ
_TEXT	SEGMENT
_this$ = -40						; size = 4
_c_rv3Eye$ = -36					; size = 4
_c_rv3View$ = -32					; size = 4
_this$ = -28						; size = 4
$T1 = -24						; size = 4
_this$ = -20						; size = 4
$T2 = -16						; size = 4
$T3 = -12						; size = 64
_matT$4 = 52						; size = 64
__$ArrayPad$ = 116					; size = 4
?BuildViewFrustum@CScreen@@QAEXXZ PROC			; CScreen::BuildViewFrustum, COMDAT
; _this$ = ecx

; 848  : {

  00000	55		 push	 ebp
  00001	8d 6c 24 88	 lea	 ebp, DWORD PTR [esp-120]
  00005	81 ec a0 00 00
	00		 sub	 esp, 160		; 000000a0H
  0000b	a1 00 00 00 00	 mov	 eax, DWORD PTR ___security_cookie
  00010	33 c5		 xor	 eax, ebp
  00012	89 45 74	 mov	 DWORD PTR __$ArrayPad$[ebp], eax
  00015	56		 push	 esi
  00016	57		 push	 edi
  00017	89 4d d8	 mov	 DWORD PTR _this$[ebp], ecx
; File D:\Metin2 Server Files\mainline\SRC_2014\Metin2Client\eterBase\Singleton.h

; 27   : 		return (*ms_singleton);

  0001a	a1 00 00 00 00	 mov	 eax, DWORD PTR ?ms_singleton@?$CSingleton@VCCameraManager@@@@0PAVCCameraManager@@A ; CSingleton<CCameraManager>::ms_singleton
  0001f	89 45 f0	 mov	 DWORD PTR $T2[ebp], eax
; File D:\Metin2 Server Files\mainline\SRC_2014\Metin2Client\EterLib\GrpScreen.cpp

; 849  : 	const D3DXVECTOR3& c_rv3Eye=CCameraManager::Instance().GetCurrentCamera()->GetEye();

  00022	8b 4d f0	 mov	 ecx, DWORD PTR $T2[ebp]
  00025	e8 00 00 00 00	 call	 ?GetCurrentCamera@CCameraManager@@QAEPAVCCamera@@XZ ; CCameraManager::GetCurrentCamera
  0002a	89 45 ec	 mov	 DWORD PTR _this$[ebp], eax
; File D:\Metin2 Server Files\mainline\SRC_2014\Metin2Client\EterLib\Camera.h

; 168  : 		const D3DXVECTOR3 & GetEye() const		{ return m_v3Eye; }

  0002d	8b 45 ec	 mov	 eax, DWORD PTR _this$[ebp]
  00030	83 c0 30	 add	 eax, 48			; 00000030H
; File D:\Metin2 Server Files\mainline\SRC_2014\Metin2Client\EterLib\GrpScreen.cpp

; 849  : 	const D3DXVECTOR3& c_rv3Eye=CCameraManager::Instance().GetCurrentCamera()->GetEye();

  00033	89 45 dc	 mov	 DWORD PTR _c_rv3Eye$[ebp], eax
; File D:\Metin2 Server Files\mainline\SRC_2014\Metin2Client\eterBase\Singleton.h

; 27   : 		return (*ms_singleton);

  00036	a1 00 00 00 00	 mov	 eax, DWORD PTR ?ms_singleton@?$CSingleton@VCCameraManager@@@@0PAVCCameraManager@@A ; CSingleton<CCameraManager>::ms_singleton
  0003b	89 45 e8	 mov	 DWORD PTR $T1[ebp], eax
; File D:\Metin2 Server Files\mainline\SRC_2014\Metin2Client\EterLib\GrpScreen.cpp

; 850  : 	const D3DXVECTOR3& c_rv3View=CCameraManager::Instance().GetCurrentCamera()->GetView();

  0003e	8b 4d e8	 mov	 ecx, DWORD PTR $T1[ebp]
  00041	e8 00 00 00 00	 call	 ?GetCurrentCamera@CCameraManager@@QAEPAVCCamera@@XZ ; CCameraManager::GetCurrentCamera
  00046	89 45 e4	 mov	 DWORD PTR _this$[ebp], eax
; File D:\Metin2 Server Files\mainline\SRC_2014\Metin2Client\EterLib\Camera.h

; 171  : 		const D3DXVECTOR3 & GetView() const		{ return m_v3View; }

  00049	8b 45 e4	 mov	 eax, DWORD PTR _this$[ebp]
  0004c	83 c0 54	 add	 eax, 84			; 00000054H
; File D:\Metin2 Server Files\mainline\SRC_2014\Metin2Client\EterLib\GrpScreen.cpp

; 850  : 	const D3DXVECTOR3& c_rv3View=CCameraManager::Instance().GetCurrentCamera()->GetView();

  0004f	89 45 e0	 mov	 DWORD PTR _c_rv3View$[ebp], eax
; File D:\Metin2 Server Files\mainline\SRC_2014\M2Data\include\d3dx8math.inl

; 580  :     D3DXMatrixMultiply(&matT, this, &mat);

  00052	68 00 00 00 00	 push	 OFFSET ?ms_matProj@CGraphicBase@@1UD3DXMATRIX@@A ; CGraphicBase::ms_matProj
  00057	68 00 00 00 00	 push	 OFFSET ?ms_matView@CGraphicBase@@1UD3DXMATRIX@@A ; CGraphicBase::ms_matView
  0005c	8d 45 34	 lea	 eax, DWORD PTR _matT$4[ebp]
  0005f	50		 push	 eax
  00060	e8 00 00 00 00	 call	 _D3DXMatrixMultiply@12

; 581  :     return matT;

  00065	6a 10		 push	 16			; 00000010H
  00067	59		 pop	 ecx
  00068	8d 75 34	 lea	 esi, DWORD PTR _matT$4[ebp]
  0006b	8d 7d f4	 lea	 edi, DWORD PTR $T3[ebp]
  0006e	f3 a5		 rep movsd
; File D:\Metin2 Server Files\mainline\SRC_2014\Metin2Client\EterLib\GrpScreen.cpp

; 851  : 	 ms_frustum.BuildViewFrustum2(

  00070	ff 75 e0	 push	 DWORD PTR _c_rv3View$[ebp]
  00073	ff 75 dc	 push	 DWORD PTR _c_rv3Eye$[ebp]
  00076	51		 push	 ecx
  00077	f3 0f 10 05 00
	00 00 00	 movss	 xmm0, DWORD PTR ?ms_fAspect@CGraphicBase@@1MA
  0007f	f3 0f 11 04 24	 movss	 DWORD PTR [esp], xmm0
  00084	51		 push	 ecx
  00085	f3 0f 10 05 00
	00 00 00	 movss	 xmm0, DWORD PTR ?ms_fFieldOfView@CGraphicBase@@1MA
  0008d	f3 0f 11 04 24	 movss	 DWORD PTR [esp], xmm0
  00092	51		 push	 ecx
  00093	f3 0f 10 05 00
	00 00 00	 movss	 xmm0, DWORD PTR ?ms_fFarY@CGraphicBase@@1MA
  0009b	f3 0f 11 04 24	 movss	 DWORD PTR [esp], xmm0
  000a0	51		 push	 ecx
  000a1	f3 0f 10 05 00
	00 00 00	 movss	 xmm0, DWORD PTR ?ms_fNearY@CGraphicBase@@1MA
  000a9	f3 0f 11 04 24	 movss	 DWORD PTR [esp], xmm0
  000ae	8d 45 f4	 lea	 eax, DWORD PTR $T3[ebp]
  000b1	50		 push	 eax
  000b2	b9 00 00 00 00	 mov	 ecx, OFFSET ?ms_frustum@CScreen@@1VFrustum@@A ; CScreen::ms_frustum
  000b7	e8 00 00 00 00	 call	 ?BuildViewFrustum2@Frustum@@QAEXAAUD3DXMATRIX@@MMMMABUD3DXVECTOR3@@1@Z ; Frustum::BuildViewFrustum2

; 852  : 		 ms_matView*ms_matProj, 
; 853  : 		 ms_fNearY,
; 854  : 		 ms_fFarY,
; 855  : 		 ms_fFieldOfView,
; 856  : 		 ms_fAspect, 
; 857  : 		 c_rv3Eye, c_rv3View);
; 858  : }

  000bc	5f		 pop	 edi
  000bd	5e		 pop	 esi
  000be	8b 4d 74	 mov	 ecx, DWORD PTR __$ArrayPad$[ebp]
  000c1	33 cd		 xor	 ecx, ebp
  000c3	e8 00 00 00 00	 call	 @__security_check_cookie@4
  000c8	83 c5 78	 add	 ebp, 120		; 00000078H
  000cb	c9		 leave
  000cc	c3		 ret	 0
?BuildViewFrustum@CScreen@@QAEXXZ ENDP			; CScreen::BuildViewFrustum
_TEXT	ENDS
; Function compile flags: /Odspy
; File D:\Metin2 Server Files\mainline\SRC_2014\Metin2Client\EterLib\GrpScreen.cpp
;	COMDAT ?RestoreDevice@CScreen@@QAEHXZ
_TEXT	SEGMENT
_this$ = -40						; size = 4
_hrReset$1 = -36					; size = 4
_iD3DAdapterInfo$ = -32					; size = 4
_rkD3DDetector$ = -28					; size = 4
_rkD3DPP$ = -24						; size = 4
_rkD3DDMDesktop$2 = -20					; size = 4
_rkD3D$ = -16						; size = 4
_pkD3DAdapterInfo$3 = -12				; size = 4
_hrTestCooperativeLevel$ = -8				; size = 4
_rkD3DDev$ = -4						; size = 4
?RestoreDevice@CScreen@@QAEHXZ PROC			; CScreen::RestoreDevice, COMDAT
; _this$ = ecx

; 643  : {

  00000	55		 push	 ebp
  00001	8b ec		 mov	 ebp, esp
  00003	83 ec 28	 sub	 esp, 40			; 00000028H
  00006	89 4d d8	 mov	 DWORD PTR _this$[ebp], ecx

; 644  : 	if (!ms_lpd3dDevice)

  00009	83 3d 00 00 00
	00 00		 cmp	 DWORD PTR ?ms_lpd3dDevice@CGraphicBase@@1PAUIDirect3DDevice8@@A, 0 ; CGraphicBase::ms_lpd3dDevice
  00010	75 07		 jne	 SHORT $LN2@RestoreDev

; 645  : 		return FALSE;

  00012	33 c0		 xor	 eax, eax
  00014	e9 c8 00 00 00	 jmp	 $LN1@RestoreDev
$LN2@RestoreDev:

; 646  : 
; 647  : 	UINT iD3DAdapterInfo = ms_iD3DAdapterInfo;

  00019	a1 00 00 00 00	 mov	 eax, DWORD PTR ?ms_iD3DAdapterInfo@CGraphicBase@@1IA ; CGraphicBase::ms_iD3DAdapterInfo
  0001e	89 45 e0	 mov	 DWORD PTR _iD3DAdapterInfo$[ebp], eax

; 648  : 	IDirect3D8 & rkD3D = *ms_lpd3d;

  00021	a1 00 00 00 00	 mov	 eax, DWORD PTR ?ms_lpd3d@CGraphicBase@@1PAUIDirect3D8@@A ; CGraphicBase::ms_lpd3d
  00026	89 45 f0	 mov	 DWORD PTR _rkD3D$[ebp], eax

; 649  : 	IDirect3DDevice8 & rkD3DDev = *ms_lpd3dDevice;

  00029	a1 00 00 00 00	 mov	 eax, DWORD PTR ?ms_lpd3dDevice@CGraphicBase@@1PAUIDirect3DDevice8@@A ; CGraphicBase::ms_lpd3dDevice
  0002e	89 45 fc	 mov	 DWORD PTR _rkD3DDev$[ebp], eax

; 650  : 	D3DPRESENT_PARAMETERS & rkD3DPP = ms_d3dPresentParameter;

  00031	c7 45 e8 00 00
	00 00		 mov	 DWORD PTR _rkD3DPP$[ebp], OFFSET ?ms_d3dPresentParameter@CGraphicBase@@1U_D3DPRESENT_PARAMETERS_@@A ; CGraphicBase::ms_d3dPresentParameter

; 651  : 	D3D_CDisplayModeAutoDetector & rkD3DDetector = ms_kD3DDetector;

  00038	c7 45 e4 00 00
	00 00		 mov	 DWORD PTR _rkD3DDetector$[ebp], OFFSET ?ms_kD3DDetector@CGraphicBase@@1VD3D_CDisplayModeAutoDetector@@A ; CGraphicBase::ms_kD3DDetector

; 652  : 	
; 653  : 	HRESULT hrTestCooperativeLevel = rkD3DDev.TestCooperativeLevel();

  0003f	8b 45 fc	 mov	 eax, DWORD PTR _rkD3DDev$[ebp]
  00042	8b 00		 mov	 eax, DWORD PTR [eax]
  00044	ff 75 fc	 push	 DWORD PTR _rkD3DDev$[ebp]
  00047	ff 50 0c	 call	 DWORD PTR [eax+12]
  0004a	89 45 f8	 mov	 DWORD PTR _hrTestCooperativeLevel$[ebp], eax

; 654  : 	
; 655  : 	if (FAILED(hrTestCooperativeLevel))

  0004d	83 7d f8 00	 cmp	 DWORD PTR _hrTestCooperativeLevel$[ebp], 0
  00051	0f 8d 87 00 00
	00		 jge	 $LN3@RestoreDev

; 656  : 	{		
; 657  : 		if (D3DERR_DEVICELOST == hrTestCooperativeLevel)

  00057	81 7d f8 68 08
	76 88		 cmp	 DWORD PTR _hrTestCooperativeLevel$[ebp], -2005530520 ; 88760868H
  0005e	75 04		 jne	 SHORT $LN4@RestoreDev

; 658  : 		{
; 659  : 			return FALSE;		

  00060	33 c0		 xor	 eax, eax
  00062	eb 7d		 jmp	 SHORT $LN1@RestoreDev
$LN4@RestoreDev:

; 660  : 		}
; 661  : 
; 662  : 		if (D3DERR_DEVICENOTRESET == hrTestCooperativeLevel)

  00064	81 7d f8 69 08
	76 88		 cmp	 DWORD PTR _hrTestCooperativeLevel$[ebp], -2005530519 ; 88760869H
  0006b	75 71		 jne	 SHORT $LN3@RestoreDev

; 663  : 		{
; 664  : 			D3D_CAdapterInfo* pkD3DAdapterInfo = rkD3DDetector.GetD3DAdapterInfop(ms_iD3DAdapterInfo);

  0006d	ff 35 00 00 00
	00		 push	 DWORD PTR ?ms_iD3DAdapterInfo@CGraphicBase@@1IA ; CGraphicBase::ms_iD3DAdapterInfo
  00073	8b 4d e4	 mov	 ecx, DWORD PTR _rkD3DDetector$[ebp]
  00076	e8 00 00 00 00	 call	 ?GetD3DAdapterInfop@D3D_CDisplayModeAutoDetector@@QAEPAVD3D_CAdapterInfo@@I@Z ; D3D_CDisplayModeAutoDetector::GetD3DAdapterInfop
  0007b	89 45 f4	 mov	 DWORD PTR _pkD3DAdapterInfo$3[ebp], eax

; 665  : 
; 666  : 			if (!pkD3DAdapterInfo)

  0007e	83 7d f4 00	 cmp	 DWORD PTR _pkD3DAdapterInfo$3[ebp], 0
  00082	75 04		 jne	 SHORT $LN6@RestoreDev

; 667  : 				return FALSE;

  00084	33 c0		 xor	 eax, eax
  00086	eb 59		 jmp	 SHORT $LN1@RestoreDev
$LN6@RestoreDev:

; 668  : 
; 669  : 			D3DDISPLAYMODE & rkD3DDMDesktop = pkD3DAdapterInfo->GetDesktopD3DDisplayModer();

  00088	8b 4d f4	 mov	 ecx, DWORD PTR _pkD3DAdapterInfo$3[ebp]
  0008b	e8 00 00 00 00	 call	 ?GetDesktopD3DDisplayModer@D3D_CAdapterInfo@@QAEAAU_D3DDISPLAYMODE@@XZ ; D3D_CAdapterInfo::GetDesktopD3DDisplayModer
  00090	89 45 ec	 mov	 DWORD PTR _rkD3DDMDesktop$2[ebp], eax

; 670  : 
; 671  : 			if (FAILED(rkD3D.GetAdapterDisplayMode(iD3DAdapterInfo, &rkD3DDMDesktop)))

  00093	ff 75 ec	 push	 DWORD PTR _rkD3DDMDesktop$2[ebp]
  00096	ff 75 e0	 push	 DWORD PTR _iD3DAdapterInfo$[ebp]
  00099	8b 45 f0	 mov	 eax, DWORD PTR _rkD3D$[ebp]
  0009c	8b 00		 mov	 eax, DWORD PTR [eax]
  0009e	ff 75 f0	 push	 DWORD PTR _rkD3D$[ebp]
  000a1	ff 50 20	 call	 DWORD PTR [eax+32]
  000a4	85 c0		 test	 eax, eax
  000a6	7d 04		 jge	 SHORT $LN7@RestoreDev

; 672  : 				return FALSE;

  000a8	33 c0		 xor	 eax, eax
  000aa	eb 35		 jmp	 SHORT $LN1@RestoreDev
$LN7@RestoreDev:

; 673  : 					
; 674  : 			rkD3DPP.BackBufferFormat = rkD3DDMDesktop.Format;	

  000ac	8b 45 e8	 mov	 eax, DWORD PTR _rkD3DPP$[ebp]
  000af	8b 4d ec	 mov	 ecx, DWORD PTR _rkD3DDMDesktop$2[ebp]
  000b2	8b 49 0c	 mov	 ecx, DWORD PTR [ecx+12]
  000b5	89 48 08	 mov	 DWORD PTR [eax+8], ecx

; 675  : 			
; 676  : 			HRESULT hrReset = rkD3DDev.Reset(&rkD3DPP);

  000b8	ff 75 e8	 push	 DWORD PTR _rkD3DPP$[ebp]
  000bb	8b 45 fc	 mov	 eax, DWORD PTR _rkD3DDev$[ebp]
  000be	8b 00		 mov	 eax, DWORD PTR [eax]
  000c0	ff 75 fc	 push	 DWORD PTR _rkD3DDev$[ebp]
  000c3	ff 50 38	 call	 DWORD PTR [eax+56]
  000c6	89 45 dc	 mov	 DWORD PTR _hrReset$1[ebp], eax

; 677  : 
; 678  : 			if (FAILED(hrReset))

  000c9	83 7d dc 00	 cmp	 DWORD PTR _hrReset$1[ebp], 0
  000cd	7d 04		 jge	 SHORT $LN10@RestoreDev

; 679  : 			{
; 680  : 				return FALSE;

  000cf	33 c0		 xor	 eax, eax
  000d1	eb 0e		 jmp	 SHORT $LN1@RestoreDev
$LN10@RestoreDev:

; 681  : 			}
; 682  : 			
; 683  : 			STATEMANAGER.SetDefaultState();

  000d3	8b 0d 00 00 00
	00		 mov	 ecx, DWORD PTR ?ms_singleton@?$CSingleton@VCStateManager@@@@0PAVCStateManager@@A ; CSingleton<CStateManager>::ms_singleton
  000d9	e8 00 00 00 00	 call	 ?SetDefaultState@CStateManager@@QAEXXZ ; CStateManager::SetDefaultState
$LN3@RestoreDev:

; 684  : 		}        
; 685  : 	}
; 686  : 
; 687  : 	return TRUE;

  000de	33 c0		 xor	 eax, eax
  000e0	40		 inc	 eax
$LN1@RestoreDev:

; 688  : 	
; 689  : }

  000e1	c9		 leave
  000e2	c3		 ret	 0
?RestoreDevice@CScreen@@QAEHXZ ENDP			; CScreen::RestoreDevice
_TEXT	ENDS
; Function compile flags: /Odspy
; File D:\Metin2 Server Files\mainline\SRC_2014\Metin2Client\EterLib\GrpScreen.cpp
;	COMDAT ?IsLostDevice@CScreen@@QAEHXZ
_TEXT	SEGMENT
_this$ = -12						; size = 4
_hrTestCooperativeLevel$ = -8				; size = 4
_rkD3DDev$ = -4						; size = 4
?IsLostDevice@CScreen@@QAEHXZ PROC			; CScreen::IsLostDevice, COMDAT
; _this$ = ecx

; 630  : {

  00000	55		 push	 ebp
  00001	8b ec		 mov	 ebp, esp
  00003	83 ec 0c	 sub	 esp, 12			; 0000000cH
  00006	89 4d f4	 mov	 DWORD PTR _this$[ebp], ecx

; 631  : 	if (!ms_lpd3dDevice)

  00009	83 3d 00 00 00
	00 00		 cmp	 DWORD PTR ?ms_lpd3dDevice@CGraphicBase@@1PAUIDirect3DDevice8@@A, 0 ; CGraphicBase::ms_lpd3dDevice
  00010	75 05		 jne	 SHORT $LN2@IsLostDevi

; 632  : 		return TRUE;

  00012	33 c0		 xor	 eax, eax
  00014	40		 inc	 eax
  00015	eb 23		 jmp	 SHORT $LN1@IsLostDevi
$LN2@IsLostDevi:

; 633  : 
; 634  : 	IDirect3DDevice8 & rkD3DDev = *ms_lpd3dDevice;

  00017	a1 00 00 00 00	 mov	 eax, DWORD PTR ?ms_lpd3dDevice@CGraphicBase@@1PAUIDirect3DDevice8@@A ; CGraphicBase::ms_lpd3dDevice
  0001c	89 45 fc	 mov	 DWORD PTR _rkD3DDev$[ebp], eax

; 635  : 	HRESULT hrTestCooperativeLevel = rkD3DDev.TestCooperativeLevel();

  0001f	8b 45 fc	 mov	 eax, DWORD PTR _rkD3DDev$[ebp]
  00022	8b 00		 mov	 eax, DWORD PTR [eax]
  00024	ff 75 fc	 push	 DWORD PTR _rkD3DDev$[ebp]
  00027	ff 50 0c	 call	 DWORD PTR [eax+12]
  0002a	89 45 f8	 mov	 DWORD PTR _hrTestCooperativeLevel$[ebp], eax

; 636  : 	if (FAILED(hrTestCooperativeLevel))

  0002d	83 7d f8 00	 cmp	 DWORD PTR _hrTestCooperativeLevel$[ebp], 0
  00031	7d 05		 jge	 SHORT $LN3@IsLostDevi

; 637  : 		return TRUE;		

  00033	33 c0		 xor	 eax, eax
  00035	40		 inc	 eax
  00036	eb 02		 jmp	 SHORT $LN1@IsLostDevi
$LN3@IsLostDevi:

; 638  : 	
; 639  : 	return FALSE;

  00038	33 c0		 xor	 eax, eax
$LN1@IsLostDevi:

; 640  : }

  0003a	c9		 leave
  0003b	c3		 ret	 0
?IsLostDevice@CScreen@@QAEHXZ ENDP			; CScreen::IsLostDevice
_TEXT	ENDS
; Function compile flags: /Odspy
; File D:\Metin2 Server Files\mainline\SRC_2014\Metin2Client\EterLib\GrpScreen.cpp
; File D:\Metin2 Server Files\mainline\SRC_2014\M2Data\include\d3dx8math.inl
; File D:\Metin2 Server Files\mainline\SRC_2014\Metin2Client\EterLib\GrpScreen.cpp
;	COMDAT ?UnprojectPosition@CScreen@@QAEXMMMPAM00@Z
_TEXT	SEGMENT
_this$ = -32						; size = 4
_Output$ = -28						; size = 12
_Input$ = -16						; size = 12
__$ArrayPad$ = -4					; size = 4
_x$ = 8							; size = 4
_y$ = 12						; size = 4
_z$ = 16						; size = 4
_pfX$ = 20						; size = 4
_pfY$ = 24						; size = 4
_pfZ$ = 28						; size = 4
?UnprojectPosition@CScreen@@QAEXMMMPAM00@Z PROC		; CScreen::UnprojectPosition, COMDAT
; _this$ = ecx

; 771  : {

  00000	55		 push	 ebp
  00001	8b ec		 mov	 ebp, esp
  00003	83 ec 20	 sub	 esp, 32			; 00000020H
  00006	a1 00 00 00 00	 mov	 eax, DWORD PTR ___security_cookie
  0000b	33 c5		 xor	 eax, ebp
  0000d	89 45 fc	 mov	 DWORD PTR __$ArrayPad$[ebp], eax
  00010	89 4d e0	 mov	 DWORD PTR _this$[ebp], ecx
; File D:\Metin2 Server Files\mainline\SRC_2014\M2Data\include\d3dx8math.inl

; 180  :     x = fx;

  00013	f3 0f 10 45 08	 movss	 xmm0, DWORD PTR _x$[ebp]
  00018	f3 0f 11 45 f0	 movss	 DWORD PTR _Input$[ebp], xmm0

; 181  :     y = fy;

  0001d	f3 0f 10 45 0c	 movss	 xmm0, DWORD PTR _y$[ebp]
  00022	f3 0f 11 45 f4	 movss	 DWORD PTR _Input$[ebp+4], xmm0

; 182  :     z = fz;

  00027	f3 0f 10 45 10	 movss	 xmm0, DWORD PTR _z$[ebp]
  0002c	f3 0f 11 45 f8	 movss	 DWORD PTR _Input$[ebp+8], xmm0
; File D:\Metin2 Server Files\mainline\SRC_2014\Metin2Client\EterLib\GrpScreen.cpp

; 774  : 	D3DXVec3Unproject(&Output, &Input, &ms_Viewport, &ms_matProj, &ms_matView, &ms_matWorld);

  00031	68 00 00 00 00	 push	 OFFSET ?ms_matWorld@CGraphicBase@@1UD3DXMATRIX@@A ; CGraphicBase::ms_matWorld
  00036	68 00 00 00 00	 push	 OFFSET ?ms_matView@CGraphicBase@@1UD3DXMATRIX@@A ; CGraphicBase::ms_matView
  0003b	68 00 00 00 00	 push	 OFFSET ?ms_matProj@CGraphicBase@@1UD3DXMATRIX@@A ; CGraphicBase::ms_matProj
  00040	68 00 00 00 00	 push	 OFFSET ?ms_Viewport@CGraphicBase@@1U_D3DVIEWPORT8@@A ; CGraphicBase::ms_Viewport
  00045	8d 45 f0	 lea	 eax, DWORD PTR _Input$[ebp]
  00048	50		 push	 eax
  00049	8d 45 e4	 lea	 eax, DWORD PTR _Output$[ebp]
  0004c	50		 push	 eax
  0004d	e8 00 00 00 00	 call	 _D3DXVec3Unproject@24

; 775  : 
; 776  : 	*pfX = Output.x;

  00052	8b 45 14	 mov	 eax, DWORD PTR _pfX$[ebp]
  00055	f3 0f 10 45 e4	 movss	 xmm0, DWORD PTR _Output$[ebp]
  0005a	f3 0f 11 00	 movss	 DWORD PTR [eax], xmm0

; 777  : 	*pfY = Output.y;

  0005e	8b 45 18	 mov	 eax, DWORD PTR _pfY$[ebp]
  00061	f3 0f 10 45 e8	 movss	 xmm0, DWORD PTR _Output$[ebp+4]
  00066	f3 0f 11 00	 movss	 DWORD PTR [eax], xmm0

; 778  : 	*pfZ = Output.z;

  0006a	8b 45 1c	 mov	 eax, DWORD PTR _pfZ$[ebp]
  0006d	f3 0f 10 45 ec	 movss	 xmm0, DWORD PTR _Output$[ebp+8]
  00072	f3 0f 11 00	 movss	 DWORD PTR [eax], xmm0

; 779  : }

  00076	8b 4d fc	 mov	 ecx, DWORD PTR __$ArrayPad$[ebp]
  00079	33 cd		 xor	 ecx, ebp
  0007b	e8 00 00 00 00	 call	 @__security_check_cookie@4
  00080	c9		 leave
  00081	c2 18 00	 ret	 24			; 00000018H
?UnprojectPosition@CScreen@@QAEXMMMPAM00@Z ENDP		; CScreen::UnprojectPosition
_TEXT	ENDS
; Function compile flags: /Odspy
; File D:\Metin2 Server Files\mainline\SRC_2014\Metin2Client\EterLib\GrpScreen.cpp
; File D:\Metin2 Server Files\mainline\SRC_2014\M2Data\include\d3dx8math.inl
; File D:\Metin2 Server Files\mainline\SRC_2014\Metin2Client\EterLib\GrpScreen.cpp
;	COMDAT ?ProjectPosition@CScreen@@QAEXMMMPAM00@Z
_TEXT	SEGMENT
_this$ = -32						; size = 4
_Output$ = -28						; size = 12
_Input$ = -16						; size = 12
__$ArrayPad$ = -4					; size = 4
_x$ = 8							; size = 4
_y$ = 12						; size = 4
_z$ = 16						; size = 4
_pfX$ = 20						; size = 4
_pfY$ = 24						; size = 4
_pfZ$ = 28						; size = 4
?ProjectPosition@CScreen@@QAEXMMMPAM00@Z PROC		; CScreen::ProjectPosition, COMDAT
; _this$ = ecx

; 760  : {

  00000	55		 push	 ebp
  00001	8b ec		 mov	 ebp, esp
  00003	83 ec 20	 sub	 esp, 32			; 00000020H
  00006	a1 00 00 00 00	 mov	 eax, DWORD PTR ___security_cookie
  0000b	33 c5		 xor	 eax, ebp
  0000d	89 45 fc	 mov	 DWORD PTR __$ArrayPad$[ebp], eax
  00010	89 4d e0	 mov	 DWORD PTR _this$[ebp], ecx
; File D:\Metin2 Server Files\mainline\SRC_2014\M2Data\include\d3dx8math.inl

; 180  :     x = fx;

  00013	f3 0f 10 45 08	 movss	 xmm0, DWORD PTR _x$[ebp]
  00018	f3 0f 11 45 f0	 movss	 DWORD PTR _Input$[ebp], xmm0

; 181  :     y = fy;

  0001d	f3 0f 10 45 0c	 movss	 xmm0, DWORD PTR _y$[ebp]
  00022	f3 0f 11 45 f4	 movss	 DWORD PTR _Input$[ebp+4], xmm0

; 182  :     z = fz;

  00027	f3 0f 10 45 10	 movss	 xmm0, DWORD PTR _z$[ebp]
  0002c	f3 0f 11 45 f8	 movss	 DWORD PTR _Input$[ebp+8], xmm0
; File D:\Metin2 Server Files\mainline\SRC_2014\Metin2Client\EterLib\GrpScreen.cpp

; 763  : 	D3DXVec3Project(&Output, &Input, &ms_Viewport, &ms_matProj, &ms_matView, &ms_matWorld);

  00031	68 00 00 00 00	 push	 OFFSET ?ms_matWorld@CGraphicBase@@1UD3DXMATRIX@@A ; CGraphicBase::ms_matWorld
  00036	68 00 00 00 00	 push	 OFFSET ?ms_matView@CGraphicBase@@1UD3DXMATRIX@@A ; CGraphicBase::ms_matView
  0003b	68 00 00 00 00	 push	 OFFSET ?ms_matProj@CGraphicBase@@1UD3DXMATRIX@@A ; CGraphicBase::ms_matProj
  00040	68 00 00 00 00	 push	 OFFSET ?ms_Viewport@CGraphicBase@@1U_D3DVIEWPORT8@@A ; CGraphicBase::ms_Viewport
  00045	8d 45 f0	 lea	 eax, DWORD PTR _Input$[ebp]
  00048	50		 push	 eax
  00049	8d 45 e4	 lea	 eax, DWORD PTR _Output$[ebp]
  0004c	50		 push	 eax
  0004d	e8 00 00 00 00	 call	 _D3DXVec3Project@24

; 764  : 
; 765  : 	*pfX = Output.x;

  00052	8b 45 14	 mov	 eax, DWORD PTR _pfX$[ebp]
  00055	f3 0f 10 45 e4	 movss	 xmm0, DWORD PTR _Output$[ebp]
  0005a	f3 0f 11 00	 movss	 DWORD PTR [eax], xmm0

; 766  : 	*pfY = Output.y;

  0005e	8b 45 18	 mov	 eax, DWORD PTR _pfY$[ebp]
  00061	f3 0f 10 45 e8	 movss	 xmm0, DWORD PTR _Output$[ebp+4]
  00066	f3 0f 11 00	 movss	 DWORD PTR [eax], xmm0

; 767  : 	*pfZ = Output.z;

  0006a	8b 45 1c	 mov	 eax, DWORD PTR _pfZ$[ebp]
  0006d	f3 0f 10 45 ec	 movss	 xmm0, DWORD PTR _Output$[ebp+8]
  00072	f3 0f 11 00	 movss	 DWORD PTR [eax], xmm0

; 768  : }

  00076	8b 4d fc	 mov	 ecx, DWORD PTR __$ArrayPad$[ebp]
  00079	33 cd		 xor	 ecx, ebp
  0007b	e8 00 00 00 00	 call	 @__security_check_cookie@4
  00080	c9		 leave
  00081	c2 18 00	 ret	 24			; 00000018H
?ProjectPosition@CScreen@@QAEXMMMPAM00@Z ENDP		; CScreen::ProjectPosition
_TEXT	ENDS
; Function compile flags: /Odspy
; File D:\Metin2 Server Files\mainline\SRC_2014\Metin2Client\EterLib\GrpScreen.cpp
; File D:\Metin2 Server Files\mainline\SRC_2014\M2Data\include\d3dx8math.inl
; File D:\Metin2 Server Files\mainline\SRC_2014\Metin2Client\EterLib\GrpScreen.cpp
;	COMDAT ?ProjectPosition@CScreen@@QAEXMMMPAM0@Z
_TEXT	SEGMENT
_this$ = -32						; size = 4
_Output$ = -28						; size = 12
_Input$ = -16						; size = 12
__$ArrayPad$ = -4					; size = 4
_x$ = 8							; size = 4
_y$ = 12						; size = 4
_z$ = 16						; size = 4
_pfX$ = 20						; size = 4
_pfY$ = 24						; size = 4
?ProjectPosition@CScreen@@QAEXMMMPAM0@Z PROC		; CScreen::ProjectPosition, COMDAT
; _this$ = ecx

; 750  : {

  00000	55		 push	 ebp
  00001	8b ec		 mov	 ebp, esp
  00003	83 ec 20	 sub	 esp, 32			; 00000020H
  00006	a1 00 00 00 00	 mov	 eax, DWORD PTR ___security_cookie
  0000b	33 c5		 xor	 eax, ebp
  0000d	89 45 fc	 mov	 DWORD PTR __$ArrayPad$[ebp], eax
  00010	89 4d e0	 mov	 DWORD PTR _this$[ebp], ecx
; File D:\Metin2 Server Files\mainline\SRC_2014\M2Data\include\d3dx8math.inl

; 180  :     x = fx;

  00013	f3 0f 10 45 08	 movss	 xmm0, DWORD PTR _x$[ebp]
  00018	f3 0f 11 45 f0	 movss	 DWORD PTR _Input$[ebp], xmm0

; 181  :     y = fy;

  0001d	f3 0f 10 45 0c	 movss	 xmm0, DWORD PTR _y$[ebp]
  00022	f3 0f 11 45 f4	 movss	 DWORD PTR _Input$[ebp+4], xmm0

; 182  :     z = fz;

  00027	f3 0f 10 45 10	 movss	 xmm0, DWORD PTR _z$[ebp]
  0002c	f3 0f 11 45 f8	 movss	 DWORD PTR _Input$[ebp+8], xmm0
; File D:\Metin2 Server Files\mainline\SRC_2014\Metin2Client\EterLib\GrpScreen.cpp

; 753  : 	D3DXVec3Project(&Output, &Input, &ms_Viewport, &ms_matProj, &ms_matView, &ms_matWorld);

  00031	68 00 00 00 00	 push	 OFFSET ?ms_matWorld@CGraphicBase@@1UD3DXMATRIX@@A ; CGraphicBase::ms_matWorld
  00036	68 00 00 00 00	 push	 OFFSET ?ms_matView@CGraphicBase@@1UD3DXMATRIX@@A ; CGraphicBase::ms_matView
  0003b	68 00 00 00 00	 push	 OFFSET ?ms_matProj@CGraphicBase@@1UD3DXMATRIX@@A ; CGraphicBase::ms_matProj
  00040	68 00 00 00 00	 push	 OFFSET ?ms_Viewport@CGraphicBase@@1U_D3DVIEWPORT8@@A ; CGraphicBase::ms_Viewport
  00045	8d 45 f0	 lea	 eax, DWORD PTR _Input$[ebp]
  00048	50		 push	 eax
  00049	8d 45 e4	 lea	 eax, DWORD PTR _Output$[ebp]
  0004c	50		 push	 eax
  0004d	e8 00 00 00 00	 call	 _D3DXVec3Project@24

; 754  : 
; 755  : 	*pfX = Output.x;

  00052	8b 45 14	 mov	 eax, DWORD PTR _pfX$[ebp]
  00055	f3 0f 10 45 e4	 movss	 xmm0, DWORD PTR _Output$[ebp]
  0005a	f3 0f 11 00	 movss	 DWORD PTR [eax], xmm0

; 756  : 	*pfY = Output.y;

  0005e	8b 45 18	 mov	 eax, DWORD PTR _pfY$[ebp]
  00061	f3 0f 10 45 e8	 movss	 xmm0, DWORD PTR _Output$[ebp+4]
  00066	f3 0f 11 00	 movss	 DWORD PTR [eax], xmm0

; 757  : }

  0006a	8b 4d fc	 mov	 ecx, DWORD PTR __$ArrayPad$[ebp]
  0006d	33 cd		 xor	 ecx, ebp
  0006f	e8 00 00 00 00	 call	 @__security_check_cookie@4
  00074	c9		 leave
  00075	c2 14 00	 ret	 20			; 00000014H
?ProjectPosition@CScreen@@QAEXMMMPAM0@Z ENDP		; CScreen::ProjectPosition
_TEXT	ENDS
; Function compile flags: /Odspy
; File D:\Metin2 Server Files\mainline\SRC_2014\Metin2Client\EterLib\GrpScreen.cpp
;	COMDAT ?GetPickingPosition@CScreen@@QAEXMPAM00@Z
_TEXT	SEGMENT
_this$ = -4						; size = 4
_t$ = 8							; size = 4
_x$ = 12						; size = 4
_y$ = 16						; size = 4
_z$ = 20						; size = 4
?GetPickingPosition@CScreen@@QAEXMPAM00@Z PROC		; CScreen::GetPickingPosition, COMDAT
; _this$ = ecx

; 586  : {

  00000	55		 push	 ebp
  00001	8b ec		 mov	 ebp, esp
  00003	51		 push	 ecx
  00004	89 4d fc	 mov	 DWORD PTR _this$[ebp], ecx

; 587  : 	*x = ms_vtPickRayOrig.x + ms_vtPickRayDir.x * t;

  00007	f3 0f 10 05 00
	00 00 00	 movss	 xmm0, DWORD PTR ?ms_vtPickRayDir@CGraphicBase@@1UD3DXVECTOR3@@A
  0000f	f3 0f 59 45 08	 mulss	 xmm0, DWORD PTR _t$[ebp]
  00014	f3 0f 58 05 00
	00 00 00	 addss	 xmm0, DWORD PTR ?ms_vtPickRayOrig@CGraphicBase@@1UD3DXVECTOR3@@A
  0001c	8b 45 0c	 mov	 eax, DWORD PTR _x$[ebp]
  0001f	f3 0f 11 00	 movss	 DWORD PTR [eax], xmm0

; 588  : 	*y = ms_vtPickRayOrig.y + ms_vtPickRayDir.y * t;

  00023	f3 0f 10 05 04
	00 00 00	 movss	 xmm0, DWORD PTR ?ms_vtPickRayDir@CGraphicBase@@1UD3DXVECTOR3@@A+4
  0002b	f3 0f 59 45 08	 mulss	 xmm0, DWORD PTR _t$[ebp]
  00030	f3 0f 58 05 04
	00 00 00	 addss	 xmm0, DWORD PTR ?ms_vtPickRayOrig@CGraphicBase@@1UD3DXVECTOR3@@A+4
  00038	8b 45 10	 mov	 eax, DWORD PTR _y$[ebp]
  0003b	f3 0f 11 00	 movss	 DWORD PTR [eax], xmm0

; 589  : 	*z = ms_vtPickRayOrig.z + ms_vtPickRayDir.z * t;

  0003f	f3 0f 10 05 08
	00 00 00	 movss	 xmm0, DWORD PTR ?ms_vtPickRayDir@CGraphicBase@@1UD3DXVECTOR3@@A+8
  00047	f3 0f 59 45 08	 mulss	 xmm0, DWORD PTR _t$[ebp]
  0004c	f3 0f 58 05 08
	00 00 00	 addss	 xmm0, DWORD PTR ?ms_vtPickRayOrig@CGraphicBase@@1UD3DXVECTOR3@@A+8
  00054	8b 45 14	 mov	 eax, DWORD PTR _z$[ebp]
  00057	f3 0f 11 00	 movss	 DWORD PTR [eax], xmm0

; 590  : }

  0005b	c9		 leave
  0005c	c2 10 00	 ret	 16			; 00000010H
?GetPickingPosition@CScreen@@QAEXMPAM00@Z ENDP		; CScreen::GetPickingPosition
_TEXT	ENDS
; Function compile flags: /Odspy
; File D:\Metin2 Server Files\mainline\SRC_2014\Metin2Client\EterLib\GrpScreen.cpp
; File D:\Metin2 Server Files\mainline\SRC_2014\Metin2Client\eterBase\Singleton.h
; File D:\Metin2 Server Files\mainline\SRC_2014\Metin2Client\EterLib\GrpScreen.cpp
; File D:\Metin2 Server Files\mainline\SRC_2014\Metin2Client\EterLib\Camera.h
; File D:\Metin2 Server Files\mainline\SRC_2014\Metin2Client\EterLib\GrpScreen.cpp
; File D:\Metin2 Server Files\mainline\SRC_2014\M2Data\include\d3dx8math.inl
; File D:\Metin2 Server Files\mainline\SRC_2014\Metin2Client\EterLib\GrpScreen.cpp
; File D:\Metin2 Server Files\mainline\SRC_2014\M2Data\include\d3dx8math.inl
; File D:\Metin2 Server Files\mainline\SRC_2014\Metin2Client\EterLib\GrpScreen.cpp
; File D:\Metin2 Server Files\mainline\SRC_2014\M2Data\include\d3dx8math.inl
; File D:\Metin2 Server Files\mainline\SRC_2014\Metin2Client\EterLib\GrpScreen.cpp
; File D:\Metin2 Server Files\mainline\SRC_2014\M2Data\include\d3dx8math.inl
; File D:\Metin2 Server Files\mainline\SRC_2014\Metin2Client\EterLib\GrpScreen.cpp
; File D:\Metin2 Server Files\mainline\SRC_2014\M2Data\include\d3dx8math.inl
; File D:\Metin2 Server Files\mainline\SRC_2014\Metin2Client\EterLib\GrpScreen.cpp
; File D:\Metin2 Server Files\mainline\SRC_2014\M2Data\include\d3dx8math.inl
; File D:\Metin2 Server Files\mainline\SRC_2014\Metin2Client\EterLib\GrpScreen.cpp
; File D:\Metin2 Server Files\mainline\SRC_2014\M2Data\include\d3dx8math.inl
; File D:\Metin2 Server Files\mainline\SRC_2014\Metin2Client\EterLib\GrpScreen.cpp
; File D:\Metin2 Server Files\mainline\SRC_2014\M2Data\include\d3dx8math.inl
; File D:\Metin2 Server Files\mainline\SRC_2014\Metin2Client\EterLib\GrpScreen.cpp
;	COMDAT ?GetCursorZPosition@CScreen@@QAE_NPAM@Z
_TEXT	SEGMENT
_u$ = -36						; size = 4
_v$ = -32						; size = 4
_t$ = -28						; size = 4
_this$ = -24						; size = 4
tv239 = -20						; size = 4
_this$ = -16						; size = 4
$T1 = -12						; size = 4
___t$ = -8						; size = 4
___n$ = -4						; size = 4
_i$2 = 0						; size = 4
_v3Eye$ = 4						; size = 12
$T3 = 16						; size = 12
$T4 = 28						; size = 12
$T5 = 40						; size = 12
$T6 = 52						; size = 12
_posVertices$ = 64					; size = 48
__$ArrayPad$ = 112					; size = 4
_pz$ = 124						; size = 4
?GetCursorZPosition@CScreen@@QAE_NPAM@Z PROC		; CScreen::GetCursorZPosition, COMDAT
; _this$ = ecx

; 558  : {

  00000	55		 push	 ebp
  00001	8d 6c 24 8c	 lea	 ebp, DWORD PTR [esp-116]
  00005	81 ec 98 00 00
	00		 sub	 esp, 152		; 00000098H
  0000b	a1 00 00 00 00	 mov	 eax, DWORD PTR ___security_cookie
  00010	33 c5		 xor	 eax, ebp
  00012	89 45 70	 mov	 DWORD PTR __$ArrayPad$[ebp], eax
  00015	56		 push	 esi
  00016	57		 push	 edi
  00017	89 4d e8	 mov	 DWORD PTR _this$[ebp], ecx
; File D:\Metin2 Server Files\mainline\SRC_2014\Metin2Client\eterBase\Singleton.h

; 27   : 		return (*ms_singleton);

  0001a	a1 00 00 00 00	 mov	 eax, DWORD PTR ?ms_singleton@?$CSingleton@VCCameraManager@@@@0PAVCCameraManager@@A ; CSingleton<CCameraManager>::ms_singleton
  0001f	89 45 f4	 mov	 DWORD PTR $T1[ebp], eax
; File D:\Metin2 Server Files\mainline\SRC_2014\Metin2Client\EterLib\GrpScreen.cpp

; 559  : 	D3DXVECTOR3 v3Eye = CCameraManager::Instance().GetCurrentCamera()->GetEye();

  00022	8b 4d f4	 mov	 ecx, DWORD PTR $T1[ebp]
  00025	e8 00 00 00 00	 call	 ?GetCurrentCamera@CCameraManager@@QAEPAVCCamera@@XZ ; CCameraManager::GetCurrentCamera
  0002a	89 45 f0	 mov	 DWORD PTR _this$[ebp], eax
; File D:\Metin2 Server Files\mainline\SRC_2014\Metin2Client\EterLib\Camera.h

; 168  : 		const D3DXVECTOR3 & GetEye() const		{ return m_v3Eye; }

  0002d	8b 75 f0	 mov	 esi, DWORD PTR _this$[ebp]
  00030	83 c6 30	 add	 esi, 48			; 00000030H
; File D:\Metin2 Server Files\mainline\SRC_2014\Metin2Client\EterLib\GrpScreen.cpp

; 559  : 	D3DXVECTOR3 v3Eye = CCameraManager::Instance().GetCurrentCamera()->GetEye();

  00033	8d 7d 04	 lea	 edi, DWORD PTR _v3Eye$[ebp]
  00036	a5		 movsd
  00037	a5		 movsd
  00038	a5		 movsd

; 560  : 
; 561  : 	TPosition posVertices[4];

  00039	c7 45 fc 04 00
	00 00		 mov	 DWORD PTR ___n$[ebp], 4
  00040	8d 45 40	 lea	 eax, DWORD PTR _posVertices$[ebp]
  00043	89 45 f8	 mov	 DWORD PTR ___t$[ebp], eax
$LN12@GetCursorZ:
  00046	8b 45 fc	 mov	 eax, DWORD PTR ___n$[ebp]
  00049	89 45 ec	 mov	 DWORD PTR tv239[ebp], eax
  0004c	8b 45 fc	 mov	 eax, DWORD PTR ___n$[ebp]
  0004f	48		 dec	 eax
  00050	89 45 fc	 mov	 DWORD PTR ___n$[ebp], eax
  00053	83 7d ec 00	 cmp	 DWORD PTR tv239[ebp], 0
  00057	76 0b		 jbe	 SHORT $LN13@GetCursorZ
  00059	8b 45 f8	 mov	 eax, DWORD PTR ___t$[ebp]
  0005c	83 c0 0c	 add	 eax, 12			; 0000000cH
  0005f	89 45 f8	 mov	 DWORD PTR ___t$[ebp], eax
  00062	eb e2		 jmp	 SHORT $LN12@GetCursorZ
$LN13@GetCursorZ:

; 562  : 	posVertices[0] = TPosition(v3Eye.x-90000000.0f, 0.0f, v3Eye.z+90000000.0f);

  00064	f3 0f 10 45 04	 movss	 xmm0, DWORD PTR _v3Eye$[ebp]
  00069	f3 0f 5c 05 00
	00 00 00	 subss	 xmm0, DWORD PTR __real@4caba950
; File D:\Metin2 Server Files\mainline\SRC_2014\M2Data\include\d3dx8math.inl

; 180  :     x = fx;

  00071	f3 0f 11 45 34	 movss	 DWORD PTR $T6[ebp], xmm0

; 181  :     y = fy;

  00076	0f 57 c0	 xorps	 xmm0, xmm0
  00079	f3 0f 11 45 38	 movss	 DWORD PTR $T6[ebp+4], xmm0
; File D:\Metin2 Server Files\mainline\SRC_2014\Metin2Client\EterLib\GrpScreen.cpp

; 562  : 	posVertices[0] = TPosition(v3Eye.x-90000000.0f, 0.0f, v3Eye.z+90000000.0f);

  0007e	f3 0f 10 45 0c	 movss	 xmm0, DWORD PTR _v3Eye$[ebp+8]
  00083	f3 0f 58 05 00
	00 00 00	 addss	 xmm0, DWORD PTR __real@4caba950
; File D:\Metin2 Server Files\mainline\SRC_2014\M2Data\include\d3dx8math.inl

; 182  :     z = fz;

  0008b	f3 0f 11 45 3c	 movss	 DWORD PTR $T6[ebp+8], xmm0
; File D:\Metin2 Server Files\mainline\SRC_2014\Metin2Client\EterLib\GrpScreen.cpp

; 562  : 	posVertices[0] = TPosition(v3Eye.x-90000000.0f, 0.0f, v3Eye.z+90000000.0f);

  00090	6a 0c		 push	 12			; 0000000cH
  00092	58		 pop	 eax
  00093	6b c0 00	 imul	 eax, eax, 0
  00096	8d 7c 05 40	 lea	 edi, DWORD PTR _posVertices$[ebp+eax]
  0009a	8d 75 34	 lea	 esi, DWORD PTR $T6[ebp]
  0009d	a5		 movsd
  0009e	a5		 movsd
  0009f	a5		 movsd

; 563  : 	posVertices[1] = TPosition(v3Eye.x-90000000.0f, 0.0f, v3Eye.z-90000000.0f);

  000a0	f3 0f 10 45 04	 movss	 xmm0, DWORD PTR _v3Eye$[ebp]
  000a5	f3 0f 5c 05 00
	00 00 00	 subss	 xmm0, DWORD PTR __real@4caba950
; File D:\Metin2 Server Files\mainline\SRC_2014\M2Data\include\d3dx8math.inl

; 180  :     x = fx;

  000ad	f3 0f 11 45 28	 movss	 DWORD PTR $T5[ebp], xmm0

; 181  :     y = fy;

  000b2	0f 57 c0	 xorps	 xmm0, xmm0
  000b5	f3 0f 11 45 2c	 movss	 DWORD PTR $T5[ebp+4], xmm0
; File D:\Metin2 Server Files\mainline\SRC_2014\Metin2Client\EterLib\GrpScreen.cpp

; 563  : 	posVertices[1] = TPosition(v3Eye.x-90000000.0f, 0.0f, v3Eye.z-90000000.0f);

  000ba	f3 0f 10 45 0c	 movss	 xmm0, DWORD PTR _v3Eye$[ebp+8]
  000bf	f3 0f 5c 05 00
	00 00 00	 subss	 xmm0, DWORD PTR __real@4caba950
; File D:\Metin2 Server Files\mainline\SRC_2014\M2Data\include\d3dx8math.inl

; 182  :     z = fz;

  000c7	f3 0f 11 45 30	 movss	 DWORD PTR $T5[ebp+8], xmm0
; File D:\Metin2 Server Files\mainline\SRC_2014\Metin2Client\EterLib\GrpScreen.cpp

; 563  : 	posVertices[1] = TPosition(v3Eye.x-90000000.0f, 0.0f, v3Eye.z-90000000.0f);

  000cc	6a 0c		 push	 12			; 0000000cH
  000ce	58		 pop	 eax
  000cf	c1 e0 00	 shl	 eax, 0
  000d2	8d 7c 05 40	 lea	 edi, DWORD PTR _posVertices$[ebp+eax]
  000d6	8d 75 28	 lea	 esi, DWORD PTR $T5[ebp]
  000d9	a5		 movsd
  000da	a5		 movsd
  000db	a5		 movsd

; 564  : 	posVertices[2] = TPosition(v3Eye.x+90000000.0f, 0.0f, v3Eye.z+90000000.0f);

  000dc	f3 0f 10 45 04	 movss	 xmm0, DWORD PTR _v3Eye$[ebp]
  000e1	f3 0f 58 05 00
	00 00 00	 addss	 xmm0, DWORD PTR __real@4caba950
; File D:\Metin2 Server Files\mainline\SRC_2014\M2Data\include\d3dx8math.inl

; 180  :     x = fx;

  000e9	f3 0f 11 45 1c	 movss	 DWORD PTR $T4[ebp], xmm0

; 181  :     y = fy;

  000ee	0f 57 c0	 xorps	 xmm0, xmm0
  000f1	f3 0f 11 45 20	 movss	 DWORD PTR $T4[ebp+4], xmm0
; File D:\Metin2 Server Files\mainline\SRC_2014\Metin2Client\EterLib\GrpScreen.cpp

; 564  : 	posVertices[2] = TPosition(v3Eye.x+90000000.0f, 0.0f, v3Eye.z+90000000.0f);

  000f6	f3 0f 10 45 0c	 movss	 xmm0, DWORD PTR _v3Eye$[ebp+8]
  000fb	f3 0f 58 05 00
	00 00 00	 addss	 xmm0, DWORD PTR __real@4caba950
; File D:\Metin2 Server Files\mainline\SRC_2014\M2Data\include\d3dx8math.inl

; 182  :     z = fz;

  00103	f3 0f 11 45 24	 movss	 DWORD PTR $T4[ebp+8], xmm0
; File D:\Metin2 Server Files\mainline\SRC_2014\Metin2Client\EterLib\GrpScreen.cpp

; 564  : 	posVertices[2] = TPosition(v3Eye.x+90000000.0f, 0.0f, v3Eye.z+90000000.0f);

  00108	6a 0c		 push	 12			; 0000000cH
  0010a	58		 pop	 eax
  0010b	d1 e0		 shl	 eax, 1
  0010d	8d 7c 05 40	 lea	 edi, DWORD PTR _posVertices$[ebp+eax]
  00111	8d 75 1c	 lea	 esi, DWORD PTR $T4[ebp]
  00114	a5		 movsd
  00115	a5		 movsd
  00116	a5		 movsd

; 565  : 	posVertices[3] = TPosition(v3Eye.x+90000000.0f, 0.0f, v3Eye.z-90000000.0f);

  00117	f3 0f 10 45 04	 movss	 xmm0, DWORD PTR _v3Eye$[ebp]
  0011c	f3 0f 58 05 00
	00 00 00	 addss	 xmm0, DWORD PTR __real@4caba950
; File D:\Metin2 Server Files\mainline\SRC_2014\M2Data\include\d3dx8math.inl

; 180  :     x = fx;

  00124	f3 0f 11 45 10	 movss	 DWORD PTR $T3[ebp], xmm0

; 181  :     y = fy;

  00129	0f 57 c0	 xorps	 xmm0, xmm0
  0012c	f3 0f 11 45 14	 movss	 DWORD PTR $T3[ebp+4], xmm0
; File D:\Metin2 Server Files\mainline\SRC_2014\Metin2Client\EterLib\GrpScreen.cpp

; 565  : 	posVertices[3] = TPosition(v3Eye.x+90000000.0f, 0.0f, v3Eye.z-90000000.0f);

  00131	f3 0f 10 45 0c	 movss	 xmm0, DWORD PTR _v3Eye$[ebp+8]
  00136	f3 0f 5c 05 00
	00 00 00	 subss	 xmm0, DWORD PTR __real@4caba950
; File D:\Metin2 Server Files\mainline\SRC_2014\M2Data\include\d3dx8math.inl

; 182  :     z = fz;

  0013e	f3 0f 11 45 18	 movss	 DWORD PTR $T3[ebp+8], xmm0
; File D:\Metin2 Server Files\mainline\SRC_2014\Metin2Client\EterLib\GrpScreen.cpp

; 565  : 	posVertices[3] = TPosition(v3Eye.x+90000000.0f, 0.0f, v3Eye.z-90000000.0f);

  00143	6a 0c		 push	 12			; 0000000cH
  00145	58		 pop	 eax
  00146	6b c0 03	 imul	 eax, eax, 3
  00149	8d 7c 05 40	 lea	 edi, DWORD PTR _posVertices$[ebp+eax]
  0014d	8d 75 10	 lea	 esi, DWORD PTR $T3[ebp]
  00150	a5		 movsd
  00151	a5		 movsd
  00152	a5		 movsd

; 566  : 
; 567  : 	static const WORD sc_awFillRectIndices[6] = { 0, 2, 1, 2, 3, 1, };
; 568  : 
; 569  : 	float u, v, t;
; 570  : 	for (int i = 0; i < 2; ++i)

  00153	83 65 00 00	 and	 DWORD PTR _i$2[ebp], 0
  00157	eb 07		 jmp	 SHORT $LN4@GetCursorZ
$LN2@GetCursorZ:
  00159	8b 45 00	 mov	 eax, DWORD PTR _i$2[ebp]
  0015c	40		 inc	 eax
  0015d	89 45 00	 mov	 DWORD PTR _i$2[ebp], eax
$LN4@GetCursorZ:
  00160	83 7d 00 02	 cmp	 DWORD PTR _i$2[ebp], 2
  00164	0f 8d 86 00 00
	00		 jge	 $LN3@GetCursorZ

; 571  : 	{
; 572  : 		if (IntersectTriangle(ms_vtPickRayOrig, ms_vtPickRayDir,

  0016a	8d 45 e4	 lea	 eax, DWORD PTR _t$[ebp]
  0016d	50		 push	 eax
  0016e	8d 45 e0	 lea	 eax, DWORD PTR _v$[ebp]
  00171	50		 push	 eax
  00172	8d 45 dc	 lea	 eax, DWORD PTR _u$[ebp]
  00175	50		 push	 eax
  00176	6b 45 00 03	 imul	 eax, DWORD PTR _i$2[ebp], 3
  0017a	0f b7 04 45 04
	00 00 00	 movzx	 eax, WORD PTR ?sc_awFillRectIndices@?1??GetCursorZPosition@CScreen@@QAE_NPAM@Z@4QBGB[eax*2+4]
  00182	6b c0 0c	 imul	 eax, eax, 12
  00185	8d 44 05 40	 lea	 eax, DWORD PTR _posVertices$[ebp+eax]
  00189	50		 push	 eax
  0018a	6b 45 00 03	 imul	 eax, DWORD PTR _i$2[ebp], 3
  0018e	0f b7 04 45 02
	00 00 00	 movzx	 eax, WORD PTR ?sc_awFillRectIndices@?1??GetCursorZPosition@CScreen@@QAE_NPAM@Z@4QBGB[eax*2+2]
  00196	6b c0 0c	 imul	 eax, eax, 12
  00199	8d 44 05 40	 lea	 eax, DWORD PTR _posVertices$[ebp+eax]
  0019d	50		 push	 eax
  0019e	6b 45 00 03	 imul	 eax, DWORD PTR _i$2[ebp], 3
  001a2	0f b7 04 45 00
	00 00 00	 movzx	 eax, WORD PTR ?sc_awFillRectIndices@?1??GetCursorZPosition@CScreen@@QAE_NPAM@Z@4QBGB[eax*2]
  001aa	6b c0 0c	 imul	 eax, eax, 12
  001ad	8d 44 05 40	 lea	 eax, DWORD PTR _posVertices$[ebp+eax]
  001b1	50		 push	 eax
  001b2	68 00 00 00 00	 push	 OFFSET ?ms_vtPickRayDir@CGraphicBase@@1UD3DXVECTOR3@@A ; CGraphicBase::ms_vtPickRayDir
  001b7	68 00 00 00 00	 push	 OFFSET ?ms_vtPickRayOrig@CGraphicBase@@1UD3DXVECTOR3@@A ; CGraphicBase::ms_vtPickRayOrig
  001bc	8b 4d e8	 mov	 ecx, DWORD PTR _this$[ebp]
  001bf	e8 00 00 00 00	 call	 ?IntersectTriangle@CGraphicCollisionObject@@IAE_NABUD3DXVECTOR3@@0000PAM11@Z ; CGraphicCollisionObject::IntersectTriangle
  001c4	0f b6 c0	 movzx	 eax, al
  001c7	85 c0		 test	 eax, eax
  001c9	74 20		 je	 SHORT $LN5@GetCursorZ

; 573  : 							 posVertices[sc_awFillRectIndices[i*3+0]],
; 574  : 							 posVertices[sc_awFillRectIndices[i*3+1]],
; 575  : 							 posVertices[sc_awFillRectIndices[i*3+2]],
; 576  : 							 &u, &v, &t))
; 577  : 		{
; 578  : 			*pz = ms_vtPickRayOrig.z + ms_vtPickRayDir.z * t;

  001cb	f3 0f 10 05 08
	00 00 00	 movss	 xmm0, DWORD PTR ?ms_vtPickRayDir@CGraphicBase@@1UD3DXVECTOR3@@A+8
  001d3	f3 0f 59 45 e4	 mulss	 xmm0, DWORD PTR _t$[ebp]
  001d8	f3 0f 58 05 08
	00 00 00	 addss	 xmm0, DWORD PTR ?ms_vtPickRayOrig@CGraphicBase@@1UD3DXVECTOR3@@A+8
  001e0	8b 45 7c	 mov	 eax, DWORD PTR _pz$[ebp]
  001e3	f3 0f 11 00	 movss	 DWORD PTR [eax], xmm0

; 579  : 			return true;

  001e7	b0 01		 mov	 al, 1
  001e9	eb 07		 jmp	 SHORT $LN1@GetCursorZ
$LN5@GetCursorZ:

; 580  : 		}
; 581  : 	}

  001eb	e9 69 ff ff ff	 jmp	 $LN2@GetCursorZ
$LN3@GetCursorZ:

; 582  : 	return false;

  001f0	32 c0		 xor	 al, al
$LN1@GetCursorZ:

; 583  : }

  001f2	5f		 pop	 edi
  001f3	5e		 pop	 esi
  001f4	8b 4d 70	 mov	 ecx, DWORD PTR __$ArrayPad$[ebp]
  001f7	33 cd		 xor	 ecx, ebp
  001f9	e8 00 00 00 00	 call	 @__security_check_cookie@4
  001fe	83 c5 74	 add	 ebp, 116		; 00000074H
  00201	c9		 leave
  00202	c2 04 00	 ret	 4
?GetCursorZPosition@CScreen@@QAE_NPAM@Z ENDP		; CScreen::GetCursorZPosition
_TEXT	ENDS
; Function compile flags: /Odspy
; File D:\Metin2 Server Files\mainline\SRC_2014\Metin2Client\EterLib\GrpScreen.cpp
; File D:\Metin2 Server Files\mainline\SRC_2014\Metin2Client\eterBase\Singleton.h
; File D:\Metin2 Server Files\mainline\SRC_2014\Metin2Client\EterLib\GrpScreen.cpp
; File D:\Metin2 Server Files\mainline\SRC_2014\Metin2Client\EterLib\Camera.h
; File D:\Metin2 Server Files\mainline\SRC_2014\Metin2Client\EterLib\GrpScreen.cpp
; File D:\Metin2 Server Files\mainline\SRC_2014\M2Data\include\d3dx8math.inl
; File D:\Metin2 Server Files\mainline\SRC_2014\Metin2Client\EterLib\GrpScreen.cpp
; File D:\Metin2 Server Files\mainline\SRC_2014\M2Data\include\d3dx8math.inl
; File D:\Metin2 Server Files\mainline\SRC_2014\Metin2Client\EterLib\GrpScreen.cpp
; File D:\Metin2 Server Files\mainline\SRC_2014\M2Data\include\d3dx8math.inl
; File D:\Metin2 Server Files\mainline\SRC_2014\Metin2Client\EterLib\GrpScreen.cpp
; File D:\Metin2 Server Files\mainline\SRC_2014\M2Data\include\d3dx8math.inl
; File D:\Metin2 Server Files\mainline\SRC_2014\Metin2Client\EterLib\GrpScreen.cpp
; File D:\Metin2 Server Files\mainline\SRC_2014\M2Data\include\d3dx8math.inl
; File D:\Metin2 Server Files\mainline\SRC_2014\Metin2Client\EterLib\GrpScreen.cpp
; File D:\Metin2 Server Files\mainline\SRC_2014\M2Data\include\d3dx8math.inl
; File D:\Metin2 Server Files\mainline\SRC_2014\Metin2Client\EterLib\GrpScreen.cpp
; File D:\Metin2 Server Files\mainline\SRC_2014\M2Data\include\d3dx8math.inl
; File D:\Metin2 Server Files\mainline\SRC_2014\Metin2Client\EterLib\GrpScreen.cpp
; File D:\Metin2 Server Files\mainline\SRC_2014\M2Data\include\d3dx8math.inl
; File D:\Metin2 Server Files\mainline\SRC_2014\Metin2Client\EterLib\GrpScreen.cpp
;	COMDAT ?GetCursorXYPosition@CScreen@@QAE_NPAM0@Z
_TEXT	SEGMENT
_u$ = -40						; size = 4
_v$ = -36						; size = 4
_this$ = -32						; size = 4
tv251 = -28						; size = 4
_this$ = -24						; size = 4
$T1 = -20						; size = 4
_t$ = -16						; size = 4
___t$ = -12						; size = 4
___n$ = -8						; size = 4
_i$2 = -4						; size = 4
_v3Eye$ = 0						; size = 12
$T3 = 12						; size = 12
$T4 = 24						; size = 12
$T5 = 36						; size = 12
$T6 = 48						; size = 12
_posVertices$ = 60					; size = 48
__$ArrayPad$ = 108					; size = 4
_px$ = 120						; size = 4
_py$ = 124						; size = 4
?GetCursorXYPosition@CScreen@@QAE_NPAM0@Z PROC		; CScreen::GetCursorXYPosition, COMDAT
; _this$ = ecx

; 529  : {

  00000	55		 push	 ebp
  00001	8d 6c 24 90	 lea	 ebp, DWORD PTR [esp-112]
  00005	81 ec 98 00 00
	00		 sub	 esp, 152		; 00000098H
  0000b	a1 00 00 00 00	 mov	 eax, DWORD PTR ___security_cookie
  00010	33 c5		 xor	 eax, ebp
  00012	89 45 6c	 mov	 DWORD PTR __$ArrayPad$[ebp], eax
  00015	56		 push	 esi
  00016	57		 push	 edi
  00017	89 4d e0	 mov	 DWORD PTR _this$[ebp], ecx
; File D:\Metin2 Server Files\mainline\SRC_2014\Metin2Client\eterBase\Singleton.h

; 27   : 		return (*ms_singleton);

  0001a	a1 00 00 00 00	 mov	 eax, DWORD PTR ?ms_singleton@?$CSingleton@VCCameraManager@@@@0PAVCCameraManager@@A ; CSingleton<CCameraManager>::ms_singleton
  0001f	89 45 ec	 mov	 DWORD PTR $T1[ebp], eax
; File D:\Metin2 Server Files\mainline\SRC_2014\Metin2Client\EterLib\GrpScreen.cpp

; 530  : 	D3DXVECTOR3 v3Eye = CCameraManager::Instance().GetCurrentCamera()->GetEye();

  00022	8b 4d ec	 mov	 ecx, DWORD PTR $T1[ebp]
  00025	e8 00 00 00 00	 call	 ?GetCurrentCamera@CCameraManager@@QAEPAVCCamera@@XZ ; CCameraManager::GetCurrentCamera
  0002a	89 45 e8	 mov	 DWORD PTR _this$[ebp], eax
; File D:\Metin2 Server Files\mainline\SRC_2014\Metin2Client\EterLib\Camera.h

; 168  : 		const D3DXVECTOR3 & GetEye() const		{ return m_v3Eye; }

  0002d	8b 75 e8	 mov	 esi, DWORD PTR _this$[ebp]
  00030	83 c6 30	 add	 esi, 48			; 00000030H
; File D:\Metin2 Server Files\mainline\SRC_2014\Metin2Client\EterLib\GrpScreen.cpp

; 530  : 	D3DXVECTOR3 v3Eye = CCameraManager::Instance().GetCurrentCamera()->GetEye();

  00033	8d 7d 00	 lea	 edi, DWORD PTR _v3Eye$[ebp]
  00036	a5		 movsd
  00037	a5		 movsd
  00038	a5		 movsd

; 531  : 
; 532  : 	TPosition posVertices[4];

  00039	c7 45 f8 04 00
	00 00		 mov	 DWORD PTR ___n$[ebp], 4
  00040	8d 45 3c	 lea	 eax, DWORD PTR _posVertices$[ebp]
  00043	89 45 f4	 mov	 DWORD PTR ___t$[ebp], eax
$LN12@GetCursorX:
  00046	8b 45 f8	 mov	 eax, DWORD PTR ___n$[ebp]
  00049	89 45 e4	 mov	 DWORD PTR tv251[ebp], eax
  0004c	8b 45 f8	 mov	 eax, DWORD PTR ___n$[ebp]
  0004f	48		 dec	 eax
  00050	89 45 f8	 mov	 DWORD PTR ___n$[ebp], eax
  00053	83 7d e4 00	 cmp	 DWORD PTR tv251[ebp], 0
  00057	76 0b		 jbe	 SHORT $LN13@GetCursorX
  00059	8b 45 f4	 mov	 eax, DWORD PTR ___t$[ebp]
  0005c	83 c0 0c	 add	 eax, 12			; 0000000cH
  0005f	89 45 f4	 mov	 DWORD PTR ___t$[ebp], eax
  00062	eb e2		 jmp	 SHORT $LN12@GetCursorX
$LN13@GetCursorX:

; 533  : 	posVertices[0] = TPosition(v3Eye.x-90000000.0f, v3Eye.y+90000000.0f, 0.0f);

  00064	f3 0f 10 45 00	 movss	 xmm0, DWORD PTR _v3Eye$[ebp]
  00069	f3 0f 5c 05 00
	00 00 00	 subss	 xmm0, DWORD PTR __real@4caba950
; File D:\Metin2 Server Files\mainline\SRC_2014\M2Data\include\d3dx8math.inl

; 180  :     x = fx;

  00071	f3 0f 11 45 30	 movss	 DWORD PTR $T6[ebp], xmm0
; File D:\Metin2 Server Files\mainline\SRC_2014\Metin2Client\EterLib\GrpScreen.cpp

; 533  : 	posVertices[0] = TPosition(v3Eye.x-90000000.0f, v3Eye.y+90000000.0f, 0.0f);

  00076	f3 0f 10 45 04	 movss	 xmm0, DWORD PTR _v3Eye$[ebp+4]
  0007b	f3 0f 58 05 00
	00 00 00	 addss	 xmm0, DWORD PTR __real@4caba950
; File D:\Metin2 Server Files\mainline\SRC_2014\M2Data\include\d3dx8math.inl

; 181  :     y = fy;

  00083	f3 0f 11 45 34	 movss	 DWORD PTR $T6[ebp+4], xmm0

; 182  :     z = fz;

  00088	0f 57 c0	 xorps	 xmm0, xmm0
  0008b	f3 0f 11 45 38	 movss	 DWORD PTR $T6[ebp+8], xmm0
; File D:\Metin2 Server Files\mainline\SRC_2014\Metin2Client\EterLib\GrpScreen.cpp

; 533  : 	posVertices[0] = TPosition(v3Eye.x-90000000.0f, v3Eye.y+90000000.0f, 0.0f);

  00090	6a 0c		 push	 12			; 0000000cH
  00092	58		 pop	 eax
  00093	6b c0 00	 imul	 eax, eax, 0
  00096	8d 7c 05 3c	 lea	 edi, DWORD PTR _posVertices$[ebp+eax]
  0009a	8d 75 30	 lea	 esi, DWORD PTR $T6[ebp]
  0009d	a5		 movsd
  0009e	a5		 movsd
  0009f	a5		 movsd

; 534  : 	posVertices[1] = TPosition(v3Eye.x-90000000.0f, v3Eye.y-90000000.0f, 0.0f);

  000a0	f3 0f 10 45 00	 movss	 xmm0, DWORD PTR _v3Eye$[ebp]
  000a5	f3 0f 5c 05 00
	00 00 00	 subss	 xmm0, DWORD PTR __real@4caba950
; File D:\Metin2 Server Files\mainline\SRC_2014\M2Data\include\d3dx8math.inl

; 180  :     x = fx;

  000ad	f3 0f 11 45 24	 movss	 DWORD PTR $T5[ebp], xmm0
; File D:\Metin2 Server Files\mainline\SRC_2014\Metin2Client\EterLib\GrpScreen.cpp

; 534  : 	posVertices[1] = TPosition(v3Eye.x-90000000.0f, v3Eye.y-90000000.0f, 0.0f);

  000b2	f3 0f 10 45 04	 movss	 xmm0, DWORD PTR _v3Eye$[ebp+4]
  000b7	f3 0f 5c 05 00
	00 00 00	 subss	 xmm0, DWORD PTR __real@4caba950
; File D:\Metin2 Server Files\mainline\SRC_2014\M2Data\include\d3dx8math.inl

; 181  :     y = fy;

  000bf	f3 0f 11 45 28	 movss	 DWORD PTR $T5[ebp+4], xmm0

; 182  :     z = fz;

  000c4	0f 57 c0	 xorps	 xmm0, xmm0
  000c7	f3 0f 11 45 2c	 movss	 DWORD PTR $T5[ebp+8], xmm0
; File D:\Metin2 Server Files\mainline\SRC_2014\Metin2Client\EterLib\GrpScreen.cpp

; 534  : 	posVertices[1] = TPosition(v3Eye.x-90000000.0f, v3Eye.y-90000000.0f, 0.0f);

  000cc	6a 0c		 push	 12			; 0000000cH
  000ce	58		 pop	 eax
  000cf	c1 e0 00	 shl	 eax, 0
  000d2	8d 7c 05 3c	 lea	 edi, DWORD PTR _posVertices$[ebp+eax]
  000d6	8d 75 24	 lea	 esi, DWORD PTR $T5[ebp]
  000d9	a5		 movsd
  000da	a5		 movsd
  000db	a5		 movsd

; 535  : 	posVertices[2] = TPosition(v3Eye.x+90000000.0f, v3Eye.y+90000000.0f, 0.0f);

  000dc	f3 0f 10 45 00	 movss	 xmm0, DWORD PTR _v3Eye$[ebp]
  000e1	f3 0f 58 05 00
	00 00 00	 addss	 xmm0, DWORD PTR __real@4caba950
; File D:\Metin2 Server Files\mainline\SRC_2014\M2Data\include\d3dx8math.inl

; 180  :     x = fx;

  000e9	f3 0f 11 45 18	 movss	 DWORD PTR $T4[ebp], xmm0
; File D:\Metin2 Server Files\mainline\SRC_2014\Metin2Client\EterLib\GrpScreen.cpp

; 535  : 	posVertices[2] = TPosition(v3Eye.x+90000000.0f, v3Eye.y+90000000.0f, 0.0f);

  000ee	f3 0f 10 45 04	 movss	 xmm0, DWORD PTR _v3Eye$[ebp+4]
  000f3	f3 0f 58 05 00
	00 00 00	 addss	 xmm0, DWORD PTR __real@4caba950
; File D:\Metin2 Server Files\mainline\SRC_2014\M2Data\include\d3dx8math.inl

; 181  :     y = fy;

  000fb	f3 0f 11 45 1c	 movss	 DWORD PTR $T4[ebp+4], xmm0

; 182  :     z = fz;

  00100	0f 57 c0	 xorps	 xmm0, xmm0
  00103	f3 0f 11 45 20	 movss	 DWORD PTR $T4[ebp+8], xmm0
; File D:\Metin2 Server Files\mainline\SRC_2014\Metin2Client\EterLib\GrpScreen.cpp

; 535  : 	posVertices[2] = TPosition(v3Eye.x+90000000.0f, v3Eye.y+90000000.0f, 0.0f);

  00108	6a 0c		 push	 12			; 0000000cH
  0010a	58		 pop	 eax
  0010b	d1 e0		 shl	 eax, 1
  0010d	8d 7c 05 3c	 lea	 edi, DWORD PTR _posVertices$[ebp+eax]
  00111	8d 75 18	 lea	 esi, DWORD PTR $T4[ebp]
  00114	a5		 movsd
  00115	a5		 movsd
  00116	a5		 movsd

; 536  : 	posVertices[3] = TPosition(v3Eye.x+90000000.0f, v3Eye.y-90000000.0f, 0.0f);

  00117	f3 0f 10 45 00	 movss	 xmm0, DWORD PTR _v3Eye$[ebp]
  0011c	f3 0f 58 05 00
	00 00 00	 addss	 xmm0, DWORD PTR __real@4caba950
; File D:\Metin2 Server Files\mainline\SRC_2014\M2Data\include\d3dx8math.inl

; 180  :     x = fx;

  00124	f3 0f 11 45 0c	 movss	 DWORD PTR $T3[ebp], xmm0
; File D:\Metin2 Server Files\mainline\SRC_2014\Metin2Client\EterLib\GrpScreen.cpp

; 536  : 	posVertices[3] = TPosition(v3Eye.x+90000000.0f, v3Eye.y-90000000.0f, 0.0f);

  00129	f3 0f 10 45 04	 movss	 xmm0, DWORD PTR _v3Eye$[ebp+4]
  0012e	f3 0f 5c 05 00
	00 00 00	 subss	 xmm0, DWORD PTR __real@4caba950
; File D:\Metin2 Server Files\mainline\SRC_2014\M2Data\include\d3dx8math.inl

; 181  :     y = fy;

  00136	f3 0f 11 45 10	 movss	 DWORD PTR $T3[ebp+4], xmm0

; 182  :     z = fz;

  0013b	0f 57 c0	 xorps	 xmm0, xmm0
  0013e	f3 0f 11 45 14	 movss	 DWORD PTR $T3[ebp+8], xmm0
; File D:\Metin2 Server Files\mainline\SRC_2014\Metin2Client\EterLib\GrpScreen.cpp

; 536  : 	posVertices[3] = TPosition(v3Eye.x+90000000.0f, v3Eye.y-90000000.0f, 0.0f);

  00143	6a 0c		 push	 12			; 0000000cH
  00145	58		 pop	 eax
  00146	6b c0 03	 imul	 eax, eax, 3
  00149	8d 7c 05 3c	 lea	 edi, DWORD PTR _posVertices$[ebp+eax]
  0014d	8d 75 0c	 lea	 esi, DWORD PTR $T3[ebp]
  00150	a5		 movsd
  00151	a5		 movsd
  00152	a5		 movsd

; 537  : 
; 538  : 	static const WORD sc_awFillRectIndices[6] = { 0, 2, 1, 2, 3, 1, };
; 539  : 
; 540  : 	float u, v, t;	
; 541  : 	for (int i = 0; i < 2; ++i)

  00153	83 65 fc 00	 and	 DWORD PTR _i$2[ebp], 0
  00157	eb 07		 jmp	 SHORT $LN4@GetCursorX
$LN2@GetCursorX:
  00159	8b 45 fc	 mov	 eax, DWORD PTR _i$2[ebp]
  0015c	40		 inc	 eax
  0015d	89 45 fc	 mov	 DWORD PTR _i$2[ebp], eax
$LN4@GetCursorX:
  00160	83 7d fc 02	 cmp	 DWORD PTR _i$2[ebp], 2
  00164	0f 8d a2 00 00
	00		 jge	 $LN3@GetCursorX

; 542  : 	{
; 543  : 		if (IntersectTriangle(ms_vtPickRayOrig, ms_vtPickRayDir,

  0016a	8d 45 f0	 lea	 eax, DWORD PTR _t$[ebp]
  0016d	50		 push	 eax
  0016e	8d 45 dc	 lea	 eax, DWORD PTR _v$[ebp]
  00171	50		 push	 eax
  00172	8d 45 d8	 lea	 eax, DWORD PTR _u$[ebp]
  00175	50		 push	 eax
  00176	6b 45 fc 03	 imul	 eax, DWORD PTR _i$2[ebp], 3
  0017a	0f b7 04 45 04
	00 00 00	 movzx	 eax, WORD PTR ?sc_awFillRectIndices@?1??GetCursorXYPosition@CScreen@@QAE_NPAM0@Z@4QBGB[eax*2+4]
  00182	6b c0 0c	 imul	 eax, eax, 12
  00185	8d 44 05 3c	 lea	 eax, DWORD PTR _posVertices$[ebp+eax]
  00189	50		 push	 eax
  0018a	6b 45 fc 03	 imul	 eax, DWORD PTR _i$2[ebp], 3
  0018e	0f b7 04 45 02
	00 00 00	 movzx	 eax, WORD PTR ?sc_awFillRectIndices@?1??GetCursorXYPosition@CScreen@@QAE_NPAM0@Z@4QBGB[eax*2+2]
  00196	6b c0 0c	 imul	 eax, eax, 12
  00199	8d 44 05 3c	 lea	 eax, DWORD PTR _posVertices$[ebp+eax]
  0019d	50		 push	 eax
  0019e	6b 45 fc 03	 imul	 eax, DWORD PTR _i$2[ebp], 3
  001a2	0f b7 04 45 00
	00 00 00	 movzx	 eax, WORD PTR ?sc_awFillRectIndices@?1??GetCursorXYPosition@CScreen@@QAE_NPAM0@Z@4QBGB[eax*2]
  001aa	6b c0 0c	 imul	 eax, eax, 12
  001ad	8d 44 05 3c	 lea	 eax, DWORD PTR _posVertices$[ebp+eax]
  001b1	50		 push	 eax
  001b2	68 00 00 00 00	 push	 OFFSET ?ms_vtPickRayDir@CGraphicBase@@1UD3DXVECTOR3@@A ; CGraphicBase::ms_vtPickRayDir
  001b7	68 00 00 00 00	 push	 OFFSET ?ms_vtPickRayOrig@CGraphicBase@@1UD3DXVECTOR3@@A ; CGraphicBase::ms_vtPickRayOrig
  001bc	8b 4d e0	 mov	 ecx, DWORD PTR _this$[ebp]
  001bf	e8 00 00 00 00	 call	 ?IntersectTriangle@CGraphicCollisionObject@@IAE_NABUD3DXVECTOR3@@0000PAM11@Z ; CGraphicCollisionObject::IntersectTriangle
  001c4	0f b6 c0	 movzx	 eax, al
  001c7	85 c0		 test	 eax, eax
  001c9	74 3c		 je	 SHORT $LN5@GetCursorX

; 544  : 							 posVertices[sc_awFillRectIndices[i*3+0]],
; 545  : 							 posVertices[sc_awFillRectIndices[i*3+1]],
; 546  : 							 posVertices[sc_awFillRectIndices[i*3+2]],
; 547  : 							 &u, &v, &t))
; 548  : 		{
; 549  : 			*px = ms_vtPickRayOrig.x + ms_vtPickRayDir.x * t;

  001cb	f3 0f 10 05 00
	00 00 00	 movss	 xmm0, DWORD PTR ?ms_vtPickRayDir@CGraphicBase@@1UD3DXVECTOR3@@A
  001d3	f3 0f 59 45 f0	 mulss	 xmm0, DWORD PTR _t$[ebp]
  001d8	f3 0f 58 05 00
	00 00 00	 addss	 xmm0, DWORD PTR ?ms_vtPickRayOrig@CGraphicBase@@1UD3DXVECTOR3@@A
  001e0	8b 45 78	 mov	 eax, DWORD PTR _px$[ebp]
  001e3	f3 0f 11 00	 movss	 DWORD PTR [eax], xmm0

; 550  : 			*py = ms_vtPickRayOrig.y + ms_vtPickRayDir.y * t;

  001e7	f3 0f 10 05 04
	00 00 00	 movss	 xmm0, DWORD PTR ?ms_vtPickRayDir@CGraphicBase@@1UD3DXVECTOR3@@A+4
  001ef	f3 0f 59 45 f0	 mulss	 xmm0, DWORD PTR _t$[ebp]
  001f4	f3 0f 58 05 04
	00 00 00	 addss	 xmm0, DWORD PTR ?ms_vtPickRayOrig@CGraphicBase@@1UD3DXVECTOR3@@A+4
  001fc	8b 45 7c	 mov	 eax, DWORD PTR _py$[ebp]
  001ff	f3 0f 11 00	 movss	 DWORD PTR [eax], xmm0

; 551  : 			return true;

  00203	b0 01		 mov	 al, 1
  00205	eb 07		 jmp	 SHORT $LN1@GetCursorX
$LN5@GetCursorX:

; 552  : 		}
; 553  : 	}

  00207	e9 4d ff ff ff	 jmp	 $LN2@GetCursorX
$LN3@GetCursorX:

; 554  : 	return false;

  0020c	32 c0		 xor	 al, al
$LN1@GetCursorX:

; 555  : }

  0020e	5f		 pop	 edi
  0020f	5e		 pop	 esi
  00210	8b 4d 6c	 mov	 ecx, DWORD PTR __$ArrayPad$[ebp]
  00213	33 cd		 xor	 ecx, ebp
  00215	e8 00 00 00 00	 call	 @__security_check_cookie@4
  0021a	83 c5 70	 add	 ebp, 112		; 00000070H
  0021d	c9		 leave
  0021e	c2 08 00	 ret	 8
?GetCursorXYPosition@CScreen@@QAE_NPAM0@Z ENDP		; CScreen::GetCursorXYPosition
_TEXT	ENDS
; Function compile flags: /Odspy
; File D:\Metin2 Server Files\mainline\SRC_2014\Metin2Client\EterLib\GrpScreen.cpp
;	COMDAT ?GetCursorPosition@CScreen@@QAE_NPAM00@Z
_TEXT	SEGMENT
_this$ = -4						; size = 4
_px$ = 8						; size = 4
_py$ = 12						; size = 4
_pz$ = 16						; size = 4
?GetCursorPosition@CScreen@@QAE_NPAM00@Z PROC		; CScreen::GetCursorPosition, COMDAT
; _this$ = ecx

; 521  : {

  00000	55		 push	 ebp
  00001	8b ec		 mov	 ebp, esp
  00003	51		 push	 ecx
  00004	89 4d fc	 mov	 DWORD PTR _this$[ebp], ecx

; 522  : 	if (!GetCursorXYPosition(px, py)) return false;

  00007	ff 75 0c	 push	 DWORD PTR _py$[ebp]
  0000a	ff 75 08	 push	 DWORD PTR _px$[ebp]
  0000d	8b 4d fc	 mov	 ecx, DWORD PTR _this$[ebp]
  00010	e8 00 00 00 00	 call	 ?GetCursorXYPosition@CScreen@@QAE_NPAM0@Z ; CScreen::GetCursorXYPosition
  00015	0f b6 c0	 movzx	 eax, al
  00018	85 c0		 test	 eax, eax
  0001a	75 04		 jne	 SHORT $LN2@GetCursorP
  0001c	32 c0		 xor	 al, al
  0001e	eb 18		 jmp	 SHORT $LN1@GetCursorP
$LN2@GetCursorP:

; 523  : 	if (!GetCursorZPosition(pz)) return false;

  00020	ff 75 10	 push	 DWORD PTR _pz$[ebp]
  00023	8b 4d fc	 mov	 ecx, DWORD PTR _this$[ebp]
  00026	e8 00 00 00 00	 call	 ?GetCursorZPosition@CScreen@@QAE_NPAM@Z ; CScreen::GetCursorZPosition
  0002b	0f b6 c0	 movzx	 eax, al
  0002e	85 c0		 test	 eax, eax
  00030	75 04		 jne	 SHORT $LN3@GetCursorP
  00032	32 c0		 xor	 al, al
  00034	eb 02		 jmp	 SHORT $LN1@GetCursorP
$LN3@GetCursorP:

; 524  : 
; 525  : 	return true;

  00036	b0 01		 mov	 al, 1
$LN1@GetCursorP:

; 526  : }

  00038	c9		 leave
  00039	c2 0c 00	 ret	 12			; 0000000cH
?GetCursorPosition@CScreen@@QAE_NPAM00@Z ENDP		; CScreen::GetCursorPosition
_TEXT	ENDS
; Function compile flags: /Odspy
; File D:\Metin2 Server Files\mainline\SRC_2014\Metin2Client\EterLib\GrpScreen.cpp
; File D:\Metin2 Server Files\mainline\SRC_2014\Metin2Client\EterLib\Ray.h
; File D:\Metin2 Server Files\mainline\SRC_2014\M2Data\include\d3dx8math.inl
; File D:\Metin2 Server Files\mainline\SRC_2014\Metin2Client\EterLib\GrpScreen.cpp
;	COMDAT ?SetCursorPosition@CScreen@@QAEXHHHH@Z
_TEXT	SEGMENT
_this$ = -108						; size = 4
_fz$ = -104						; size = 4
_fy$ = -100						; size = 4
_fx$ = -96						; size = 4
_matViewInverse$ = -92					; size = 64
$T1 = -28						; size = 12
_v$ = -16						; size = 12
__$ArrayPad$ = -4					; size = 4
_x$ = 8							; size = 4
_y$ = 12						; size = 4
_hres$ = 16						; size = 4
_vres$ = 20						; size = 4
?SetCursorPosition@CScreen@@QAEXHHHH@Z PROC		; CScreen::SetCursorPosition, COMDAT
; _this$ = ecx

; 488  : {

  00000	55		 push	 ebp
  00001	8b ec		 mov	 ebp, esp
  00003	83 ec 6c	 sub	 esp, 108		; 0000006cH
  00006	a1 00 00 00 00	 mov	 eax, DWORD PTR ___security_cookie
  0000b	33 c5		 xor	 eax, ebp
  0000d	89 45 fc	 mov	 DWORD PTR __$ArrayPad$[ebp], eax
  00010	56		 push	 esi
  00011	57		 push	 edi
  00012	89 4d 94	 mov	 DWORD PTR _this$[ebp], ecx

; 489  : 	D3DXVECTOR3 v;
; 490  : 	v.x = -(((2.0f * x) / hres) - 1) / ms_matProj._11;

  00015	f3 0f 2a 45 08	 cvtsi2ss xmm0, DWORD PTR _x$[ebp]
  0001a	f3 0f 59 05 00
	00 00 00	 mulss	 xmm0, DWORD PTR __real@40000000
  00022	f3 0f 2a 4d 10	 cvtsi2ss xmm1, DWORD PTR _hres$[ebp]
  00027	f3 0f 5e c1	 divss	 xmm0, xmm1
  0002b	f3 0f 5c 05 00
	00 00 00	 subss	 xmm0, DWORD PTR __real@3f800000
  00033	0f 57 05 00 00
	00 00		 xorps	 xmm0, DWORD PTR __xmm@80000000800000008000000080000000
  0003a	f3 0f 5e 05 00
	00 00 00	 divss	 xmm0, DWORD PTR ?ms_matProj@CGraphicBase@@1UD3DXMATRIX@@A
  00042	f3 0f 11 45 f0	 movss	 DWORD PTR _v$[ebp], xmm0

; 491  : 	v.y = (((2.0f * y) / vres) - 1) / ms_matProj._22;

  00047	f3 0f 2a 45 0c	 cvtsi2ss xmm0, DWORD PTR _y$[ebp]
  0004c	f3 0f 59 05 00
	00 00 00	 mulss	 xmm0, DWORD PTR __real@40000000
  00054	f3 0f 2a 4d 14	 cvtsi2ss xmm1, DWORD PTR _vres$[ebp]
  00059	f3 0f 5e c1	 divss	 xmm0, xmm1
  0005d	f3 0f 5c 05 00
	00 00 00	 subss	 xmm0, DWORD PTR __real@3f800000
  00065	f3 0f 5e 05 14
	00 00 00	 divss	 xmm0, DWORD PTR ?ms_matProj@CGraphicBase@@1UD3DXMATRIX@@A+20
  0006d	f3 0f 11 45 f4	 movss	 DWORD PTR _v$[ebp+4], xmm0

; 492  : 	v.z = 1.0f;

  00072	f3 0f 10 05 00
	00 00 00	 movss	 xmm0, DWORD PTR __real@3f800000
  0007a	f3 0f 11 45 f8	 movss	 DWORD PTR _v$[ebp+8], xmm0

; 493  : 
; 494  :     D3DXMATRIX matViewInverse=ms_matInverseView;

  0007f	6a 10		 push	 16			; 00000010H
  00081	59		 pop	 ecx
  00082	be 00 00 00 00	 mov	 esi, OFFSET ?ms_matInverseView@CGraphicBase@@1UD3DXMATRIX@@A ; CGraphicBase::ms_matInverseView
  00087	8d 7d a4	 lea	 edi, DWORD PTR _matViewInverse$[ebp]
  0008a	f3 a5		 rep movsd

; 495  :     //D3DXMatrixInverse(&matViewInverse, NULL, &ms_matView);
; 496  : 
; 497  :     ms_vtPickRayDir.x = v.x * matViewInverse._11 + 

  0008c	f3 0f 10 45 f0	 movss	 xmm0, DWORD PTR _v$[ebp]
  00091	f3 0f 59 45 a4	 mulss	 xmm0, DWORD PTR _matViewInverse$[ebp]
  00096	f3 0f 10 4d f4	 movss	 xmm1, DWORD PTR _v$[ebp+4]
  0009b	f3 0f 59 4d b4	 mulss	 xmm1, DWORD PTR _matViewInverse$[ebp+16]
  000a0	f3 0f 58 c1	 addss	 xmm0, xmm1
  000a4	f3 0f 10 4d f8	 movss	 xmm1, DWORD PTR _v$[ebp+8]
  000a9	f3 0f 59 4d c4	 mulss	 xmm1, DWORD PTR _matViewInverse$[ebp+32]
  000ae	f3 0f 58 c1	 addss	 xmm0, xmm1
  000b2	f3 0f 11 05 00
	00 00 00	 movss	 DWORD PTR ?ms_vtPickRayDir@CGraphicBase@@1UD3DXVECTOR3@@A, xmm0

; 498  : 						v.y * matViewInverse._21 +
; 499  : 						v.z * matViewInverse._31;
; 500  : 
; 501  :     ms_vtPickRayDir.y = v.x * matViewInverse._12 +

  000ba	f3 0f 10 45 f0	 movss	 xmm0, DWORD PTR _v$[ebp]
  000bf	f3 0f 59 45 a8	 mulss	 xmm0, DWORD PTR _matViewInverse$[ebp+4]
  000c4	f3 0f 10 4d f4	 movss	 xmm1, DWORD PTR _v$[ebp+4]
  000c9	f3 0f 59 4d b8	 mulss	 xmm1, DWORD PTR _matViewInverse$[ebp+20]
  000ce	f3 0f 58 c1	 addss	 xmm0, xmm1
  000d2	f3 0f 10 4d f8	 movss	 xmm1, DWORD PTR _v$[ebp+8]
  000d7	f3 0f 59 4d c8	 mulss	 xmm1, DWORD PTR _matViewInverse$[ebp+36]
  000dc	f3 0f 58 c1	 addss	 xmm0, xmm1
  000e0	f3 0f 11 05 04
	00 00 00	 movss	 DWORD PTR ?ms_vtPickRayDir@CGraphicBase@@1UD3DXVECTOR3@@A+4, xmm0

; 502  : 						v.y * matViewInverse._22 +
; 503  : 						v.z * matViewInverse._32;
; 504  : 
; 505  :     ms_vtPickRayDir.z = v.x * matViewInverse._13 +

  000e8	f3 0f 10 45 f0	 movss	 xmm0, DWORD PTR _v$[ebp]
  000ed	f3 0f 59 45 ac	 mulss	 xmm0, DWORD PTR _matViewInverse$[ebp+8]
  000f2	f3 0f 10 4d f4	 movss	 xmm1, DWORD PTR _v$[ebp+4]
  000f7	f3 0f 59 4d bc	 mulss	 xmm1, DWORD PTR _matViewInverse$[ebp+24]
  000fc	f3 0f 58 c1	 addss	 xmm0, xmm1
  00100	f3 0f 10 4d f8	 movss	 xmm1, DWORD PTR _v$[ebp+8]
  00105	f3 0f 59 4d cc	 mulss	 xmm1, DWORD PTR _matViewInverse$[ebp+40]
  0010a	f3 0f 58 c1	 addss	 xmm0, xmm1
  0010e	f3 0f 11 05 08
	00 00 00	 movss	 DWORD PTR ?ms_vtPickRayDir@CGraphicBase@@1UD3DXVECTOR3@@A+8, xmm0

; 506  : 						v.y * matViewInverse._23 +
; 507  : 						v.z * matViewInverse._33;
; 508  : 
; 509  :     ms_vtPickRayOrig.x = matViewInverse._41;

  00116	f3 0f 10 45 d4	 movss	 xmm0, DWORD PTR _matViewInverse$[ebp+48]
  0011b	f3 0f 11 05 00
	00 00 00	 movss	 DWORD PTR ?ms_vtPickRayOrig@CGraphicBase@@1UD3DXVECTOR3@@A, xmm0

; 510  :     ms_vtPickRayOrig.y = matViewInverse._42;

  00123	f3 0f 10 45 d8	 movss	 xmm0, DWORD PTR _matViewInverse$[ebp+52]
  00128	f3 0f 11 05 04
	00 00 00	 movss	 DWORD PTR ?ms_vtPickRayOrig@CGraphicBase@@1UD3DXVECTOR3@@A+4, xmm0

; 511  :     ms_vtPickRayOrig.z = matViewInverse._43;

  00130	f3 0f 10 45 dc	 movss	 xmm0, DWORD PTR _matViewInverse$[ebp+56]
  00135	f3 0f 11 05 08
	00 00 00	 movss	 DWORD PTR ?ms_vtPickRayOrig@CGraphicBase@@1UD3DXVECTOR3@@A+8, xmm0
; File D:\Metin2 Server Files\mainline\SRC_2014\Metin2Client\EterLib\Ray.h

; 22   : 			m_v3Start = v3Start;

  0013d	be 00 00 00 00	 mov	 esi, OFFSET ?ms_vtPickRayOrig@CGraphicBase@@1UD3DXVECTOR3@@A ; CGraphicBase::ms_vtPickRayOrig
  00142	bf 00 00 00 00	 mov	 edi, OFFSET ?ms_Ray@CGraphicBase@@1VCRay@@A ; CGraphicBase::ms_Ray
  00147	a5		 movsd
  00148	a5		 movsd
  00149	a5		 movsd
; File D:\Metin2 Server Files\mainline\SRC_2014\M2Data\include\d3dx8math.inl

; 249  :     return D3DXVECTOR3(-x, -y, -z);

  0014a	f3 0f 10 05 00
	00 00 00	 movss	 xmm0, DWORD PTR ?ms_vtPickRayDir@CGraphicBase@@1UD3DXVECTOR3@@A
  00152	0f 57 05 00 00
	00 00		 xorps	 xmm0, DWORD PTR __xmm@80000000800000008000000080000000
  00159	f3 0f 11 45 a0	 movss	 DWORD PTR _fx$[ebp], xmm0
  0015e	f3 0f 10 05 04
	00 00 00	 movss	 xmm0, DWORD PTR ?ms_vtPickRayDir@CGraphicBase@@1UD3DXVECTOR3@@A+4
  00166	0f 57 05 00 00
	00 00		 xorps	 xmm0, DWORD PTR __xmm@80000000800000008000000080000000
  0016d	f3 0f 11 45 9c	 movss	 DWORD PTR _fy$[ebp], xmm0
  00172	f3 0f 10 05 08
	00 00 00	 movss	 xmm0, DWORD PTR ?ms_vtPickRayDir@CGraphicBase@@1UD3DXVECTOR3@@A+8
  0017a	0f 57 05 00 00
	00 00		 xorps	 xmm0, DWORD PTR __xmm@80000000800000008000000080000000
  00181	f3 0f 11 45 98	 movss	 DWORD PTR _fz$[ebp], xmm0

; 180  :     x = fx;

  00186	f3 0f 10 45 a0	 movss	 xmm0, DWORD PTR _fx$[ebp]
  0018b	f3 0f 11 45 e4	 movss	 DWORD PTR $T1[ebp], xmm0

; 181  :     y = fy;

  00190	f3 0f 10 45 9c	 movss	 xmm0, DWORD PTR _fy$[ebp]
  00195	f3 0f 11 45 e8	 movss	 DWORD PTR $T1[ebp+4], xmm0

; 182  :     z = fz;

  0019a	f3 0f 10 45 98	 movss	 xmm0, DWORD PTR _fz$[ebp]
  0019f	f3 0f 11 45 ec	 movss	 DWORD PTR $T1[ebp+8], xmm0
; File D:\Metin2 Server Files\mainline\SRC_2014\Metin2Client\EterLib\GrpScreen.cpp

; 516  : 	ms_Ray.SetDirection(-ms_vtPickRayDir, 51200.0f);

  001a4	51		 push	 ecx
  001a5	f3 0f 10 05 00
	00 00 00	 movss	 xmm0, DWORD PTR __real@47480000
  001ad	f3 0f 11 04 24	 movss	 DWORD PTR [esp], xmm0
  001b2	8d 45 e4	 lea	 eax, DWORD PTR $T1[ebp]
  001b5	50		 push	 eax
  001b6	b9 00 00 00 00	 mov	 ecx, OFFSET ?ms_Ray@CGraphicBase@@1VCRay@@A ; CGraphicBase::ms_Ray
  001bb	e8 00 00 00 00	 call	 ?SetDirection@CRay@@QAEXABUD3DXVECTOR3@@M@Z ; CRay::SetDirection

; 517  : //	// 2003. 9. 9  
; 518  : }

  001c0	5f		 pop	 edi
  001c1	5e		 pop	 esi
  001c2	8b 4d fc	 mov	 ecx, DWORD PTR __$ArrayPad$[ebp]
  001c5	33 cd		 xor	 ecx, ebp
  001c7	e8 00 00 00 00	 call	 @__security_check_cookie@4
  001cc	c9		 leave
  001cd	c2 10 00	 ret	 16			; 00000010H
?SetCursorPosition@CScreen@@QAEXHHHH@Z ENDP		; CScreen::SetCursorPosition
_TEXT	ENDS
; Function compile flags: /Odspy
; File D:\Metin2 Server Files\mainline\SRC_2014\Metin2Client\EterLib\GrpScreen.cpp
;	COMDAT ?SetClearStencil@CScreen@@QAEXK@Z
_TEXT	SEGMENT
_this$ = -4						; size = 4
_stencil$ = 8						; size = 4
?SetClearStencil@CScreen@@QAEXK@Z PROC			; CScreen::SetClearStencil, COMDAT
; _this$ = ecx

; 613  : {

  00000	55		 push	 ebp
  00001	8b ec		 mov	 ebp, esp
  00003	51		 push	 ecx
  00004	89 4d fc	 mov	 DWORD PTR _this$[ebp], ecx

; 614  : 	ms_clearStencil = stencil;

  00007	8b 45 08	 mov	 eax, DWORD PTR _stencil$[ebp]
  0000a	a3 00 00 00 00	 mov	 DWORD PTR ?ms_clearStencil@CScreen@@1KA, eax ; CScreen::ms_clearStencil

; 615  : }

  0000f	c9		 leave
  00010	c2 04 00	 ret	 4
?SetClearStencil@CScreen@@QAEXK@Z ENDP			; CScreen::SetClearStencil
_TEXT	ENDS
; Function compile flags: /Odspy
; File D:\Metin2 Server Files\mainline\SRC_2014\Metin2Client\EterLib\GrpScreen.cpp
;	COMDAT ?SetClearDepth@CScreen@@QAEXM@Z
_TEXT	SEGMENT
_this$ = -4						; size = 4
_depth$ = 8						; size = 4
?SetClearDepth@CScreen@@QAEXM@Z PROC			; CScreen::SetClearDepth, COMDAT
; _this$ = ecx

; 608  : {

  00000	55		 push	 ebp
  00001	8b ec		 mov	 ebp, esp
  00003	51		 push	 ecx
  00004	89 4d fc	 mov	 DWORD PTR _this$[ebp], ecx

; 609  : 	ms_clearDepth = depth;

  00007	f3 0f 10 45 08	 movss	 xmm0, DWORD PTR _depth$[ebp]
  0000c	f3 0f 11 05 00
	00 00 00	 movss	 DWORD PTR ?ms_clearDepth@CScreen@@1MA, xmm0

; 610  : }

  00014	c9		 leave
  00015	c2 04 00	 ret	 4
?SetClearDepth@CScreen@@QAEXM@Z ENDP			; CScreen::SetClearDepth
_TEXT	ENDS
; Function compile flags: /Odspy
; File D:\Metin2 Server Files\mainline\SRC_2014\Metin2Client\EterLib\GrpScreen.cpp
;	COMDAT ?SetClearColor@CScreen@@QAEXMMMM@Z
_TEXT	SEGMENT
_this$ = -4						; size = 4
_r$ = 8							; size = 4
_g$ = 12						; size = 4
_b$ = 16						; size = 4
_a$ = 20						; size = 4
?SetClearColor@CScreen@@QAEXMMMM@Z PROC			; CScreen::SetClearColor, COMDAT
; _this$ = ecx

; 603  : {

  00000	55		 push	 ebp
  00001	8b ec		 mov	 ebp, esp
  00003	51		 push	 ecx
  00004	89 4d fc	 mov	 DWORD PTR _this$[ebp], ecx

; 604  : 	ms_clearColor = GetColor(r, g, b, a);

  00007	51		 push	 ecx
  00008	f3 0f 10 45 14	 movss	 xmm0, DWORD PTR _a$[ebp]
  0000d	f3 0f 11 04 24	 movss	 DWORD PTR [esp], xmm0
  00012	51		 push	 ecx
  00013	f3 0f 10 45 10	 movss	 xmm0, DWORD PTR _b$[ebp]
  00018	f3 0f 11 04 24	 movss	 DWORD PTR [esp], xmm0
  0001d	51		 push	 ecx
  0001e	f3 0f 10 45 0c	 movss	 xmm0, DWORD PTR _g$[ebp]
  00023	f3 0f 11 04 24	 movss	 DWORD PTR [esp], xmm0
  00028	51		 push	 ecx
  00029	f3 0f 10 45 08	 movss	 xmm0, DWORD PTR _r$[ebp]
  0002e	f3 0f 11 04 24	 movss	 DWORD PTR [esp], xmm0
  00033	8b 4d fc	 mov	 ecx, DWORD PTR _this$[ebp]
  00036	e8 00 00 00 00	 call	 ?GetColor@CGraphicBase@@QAEKMMMM@Z ; CGraphicBase::GetColor
  0003b	a3 00 00 00 00	 mov	 DWORD PTR ?ms_clearColor@CScreen@@1KA, eax ; CScreen::ms_clearColor

; 605  : }

  00040	c9		 leave
  00041	c2 10 00	 ret	 16			; 00000010H
?SetClearColor@CScreen@@QAEXMMMM@Z ENDP			; CScreen::SetClearColor
_TEXT	ENDS
; Function compile flags: /Odspy
; File D:\Metin2 Server Files\mainline\SRC_2014\Metin2Client\EterLib\GrpScreen.cpp
;	COMDAT ?SetDiffuseColor@CScreen@@QAEXMMMM@Z
_TEXT	SEGMENT
_this$ = -4						; size = 4
_r$ = 8							; size = 4
_g$ = 12						; size = 4
_b$ = 16						; size = 4
_a$ = 20						; size = 4
?SetDiffuseColor@CScreen@@QAEXMMMM@Z PROC		; CScreen::SetDiffuseColor, COMDAT
; _this$ = ecx

; 598  : {

  00000	55		 push	 ebp
  00001	8b ec		 mov	 ebp, esp
  00003	51		 push	 ecx
  00004	89 4d fc	 mov	 DWORD PTR _this$[ebp], ecx

; 599  : 	ms_diffuseColor = GetColor(r, g, b, a);

  00007	51		 push	 ecx
  00008	f3 0f 10 45 14	 movss	 xmm0, DWORD PTR _a$[ebp]
  0000d	f3 0f 11 04 24	 movss	 DWORD PTR [esp], xmm0
  00012	51		 push	 ecx
  00013	f3 0f 10 45 10	 movss	 xmm0, DWORD PTR _b$[ebp]
  00018	f3 0f 11 04 24	 movss	 DWORD PTR [esp], xmm0
  0001d	51		 push	 ecx
  0001e	f3 0f 10 45 0c	 movss	 xmm0, DWORD PTR _g$[ebp]
  00023	f3 0f 11 04 24	 movss	 DWORD PTR [esp], xmm0
  00028	51		 push	 ecx
  00029	f3 0f 10 45 08	 movss	 xmm0, DWORD PTR _r$[ebp]
  0002e	f3 0f 11 04 24	 movss	 DWORD PTR [esp], xmm0
  00033	8b 4d fc	 mov	 ecx, DWORD PTR _this$[ebp]
  00036	e8 00 00 00 00	 call	 ?GetColor@CGraphicBase@@QAEKMMMM@Z ; CGraphicBase::GetColor
  0003b	a3 00 00 00 00	 mov	 DWORD PTR ?ms_diffuseColor@CScreen@@1KA, eax ; CScreen::ms_diffuseColor

; 600  : }

  00040	c9		 leave
  00041	c2 10 00	 ret	 16			; 00000010H
?SetDiffuseColor@CScreen@@QAEXMMMM@Z ENDP		; CScreen::SetDiffuseColor
_TEXT	ENDS
; Function compile flags: /Odspy
; File D:\Metin2 Server Files\mainline\SRC_2014\Metin2Client\EterLib\GrpScreen.cpp
;	COMDAT ?SetDiffuseColor@CScreen@@QAEXK@Z
_TEXT	SEGMENT
_this$ = -4						; size = 4
_diffuseColor$ = 8					; size = 4
?SetDiffuseColor@CScreen@@QAEXK@Z PROC			; CScreen::SetDiffuseColor, COMDAT
; _this$ = ecx

; 593  : {

  00000	55		 push	 ebp
  00001	8b ec		 mov	 ebp, esp
  00003	51		 push	 ecx
  00004	89 4d fc	 mov	 DWORD PTR _this$[ebp], ecx

; 594  : 	ms_diffuseColor = diffuseColor;

  00007	8b 45 08	 mov	 eax, DWORD PTR _diffuseColor$[ebp]
  0000a	a3 00 00 00 00	 mov	 DWORD PTR ?ms_diffuseColor@CScreen@@1KA, eax ; CScreen::ms_diffuseColor

; 595  : }

  0000f	c9		 leave
  00010	c2 04 00	 ret	 4
?SetDiffuseColor@CScreen@@QAEXK@Z ENDP			; CScreen::SetDiffuseColor
_TEXT	ENDS
; Function compile flags: /Odspy
; File D:\Metin2 Server Files\mainline\SRC_2014\Metin2Client\EterLib\GrpScreen.cpp
; File D:\Metin2 Server Files\mainline\SRC_2014\M2Data\include\d3dx8math.inl
; File D:\Metin2 Server Files\mainline\SRC_2014\Metin2Client\EterLib\GrpScreen.cpp
;	COMDAT ?SetAddColorOperation@CScreen@@QAEXAAUD3DXCOLOR@@@Z
_TEXT	SEGMENT
_this$ = -52						; size = 4
_dwB$1 = -48						; size = 4
_dwA$2 = -44						; size = 4
_dwR$3 = -40						; size = 4
_dwG$4 = -36						; size = 4
tv160 = -32						; size = 4
tv159 = -28						; size = 4
tv149 = -24						; size = 4
tv148 = -20						; size = 4
tv138 = -16						; size = 4
tv137 = -12						; size = 4
tv95 = -8						; size = 4
tv94 = -4						; size = 4
_rColor$ = 8						; size = 4
?SetAddColorOperation@CScreen@@QAEXAAUD3DXCOLOR@@@Z PROC ; CScreen::SetAddColorOperation, COMDAT
; _this$ = ecx

; 826  : {

  00000	55		 push	 ebp
  00001	8b ec		 mov	 ebp, esp
  00003	83 ec 34	 sub	 esp, 52			; 00000034H
  00006	89 4d cc	 mov	 DWORD PTR _this$[ebp], ecx
; File D:\Metin2 Server Files\mainline\SRC_2014\M2Data\include\d3dx8math.inl

; 931  :     DWORD dwR = r >= 1.0f ? 0xff : r <= 0.0f ? 0x00 : (DWORD) (r * 255.0f + 0.5f);

  00009	8b 45 08	 mov	 eax, DWORD PTR _rColor$[ebp]
  0000c	f3 0f 10 00	 movss	 xmm0, DWORD PTR [eax]
  00010	0f 2f 05 00 00
	00 00		 comiss	 xmm0, DWORD PTR __real@3f800000
  00017	72 09		 jb	 SHORT $LN7@SetAddColo
  00019	c7 45 f8 ff 00
	00 00		 mov	 DWORD PTR tv95[ebp], 255 ; 000000ffH
  00020	eb 36		 jmp	 SHORT $LN8@SetAddColo
$LN7@SetAddColo:
  00022	8b 45 08	 mov	 eax, DWORD PTR _rColor$[ebp]
  00025	0f 57 c0	 xorps	 xmm0, xmm0
  00028	0f 2f 00	 comiss	 xmm0, DWORD PTR [eax]
  0002b	72 06		 jb	 SHORT $LN5@SetAddColo
  0002d	83 65 fc 00	 and	 DWORD PTR tv94[ebp], 0
  00031	eb 1f		 jmp	 SHORT $LN6@SetAddColo
$LN5@SetAddColo:
  00033	8b 45 08	 mov	 eax, DWORD PTR _rColor$[ebp]
  00036	f3 0f 10 00	 movss	 xmm0, DWORD PTR [eax]
  0003a	f3 0f 59 05 00
	00 00 00	 mulss	 xmm0, DWORD PTR __real@437f0000
  00042	f3 0f 58 05 00
	00 00 00	 addss	 xmm0, DWORD PTR __real@3f000000
  0004a	e8 00 00 00 00	 call	 __ftoui3
  0004f	89 45 fc	 mov	 DWORD PTR tv94[ebp], eax
$LN6@SetAddColo:
  00052	8b 45 fc	 mov	 eax, DWORD PTR tv94[ebp]
  00055	89 45 f8	 mov	 DWORD PTR tv95[ebp], eax
$LN8@SetAddColo:
  00058	8b 45 f8	 mov	 eax, DWORD PTR tv95[ebp]
  0005b	89 45 d8	 mov	 DWORD PTR _dwR$3[ebp], eax

; 932  :     DWORD dwG = g >= 1.0f ? 0xff : g <= 0.0f ? 0x00 : (DWORD) (g * 255.0f + 0.5f);

  0005e	8b 45 08	 mov	 eax, DWORD PTR _rColor$[ebp]
  00061	f3 0f 10 40 04	 movss	 xmm0, DWORD PTR [eax+4]
  00066	0f 2f 05 00 00
	00 00		 comiss	 xmm0, DWORD PTR __real@3f800000
  0006d	72 09		 jb	 SHORT $LN11@SetAddColo
  0006f	c7 45 f0 ff 00
	00 00		 mov	 DWORD PTR tv138[ebp], 255 ; 000000ffH
  00076	eb 38		 jmp	 SHORT $LN12@SetAddColo
$LN11@SetAddColo:
  00078	8b 45 08	 mov	 eax, DWORD PTR _rColor$[ebp]
  0007b	0f 57 c0	 xorps	 xmm0, xmm0
  0007e	0f 2f 40 04	 comiss	 xmm0, DWORD PTR [eax+4]
  00082	72 06		 jb	 SHORT $LN9@SetAddColo
  00084	83 65 f4 00	 and	 DWORD PTR tv137[ebp], 0
  00088	eb 20		 jmp	 SHORT $LN10@SetAddColo
$LN9@SetAddColo:
  0008a	8b 45 08	 mov	 eax, DWORD PTR _rColor$[ebp]
  0008d	f3 0f 10 40 04	 movss	 xmm0, DWORD PTR [eax+4]
  00092	f3 0f 59 05 00
	00 00 00	 mulss	 xmm0, DWORD PTR __real@437f0000
  0009a	f3 0f 58 05 00
	00 00 00	 addss	 xmm0, DWORD PTR __real@3f000000
  000a2	e8 00 00 00 00	 call	 __ftoui3
  000a7	89 45 f4	 mov	 DWORD PTR tv137[ebp], eax
$LN10@SetAddColo:
  000aa	8b 45 f4	 mov	 eax, DWORD PTR tv137[ebp]
  000ad	89 45 f0	 mov	 DWORD PTR tv138[ebp], eax
$LN12@SetAddColo:
  000b0	8b 45 f0	 mov	 eax, DWORD PTR tv138[ebp]
  000b3	89 45 dc	 mov	 DWORD PTR _dwG$4[ebp], eax

; 933  :     DWORD dwB = b >= 1.0f ? 0xff : b <= 0.0f ? 0x00 : (DWORD) (b * 255.0f + 0.5f);

  000b6	8b 45 08	 mov	 eax, DWORD PTR _rColor$[ebp]
  000b9	f3 0f 10 40 08	 movss	 xmm0, DWORD PTR [eax+8]
  000be	0f 2f 05 00 00
	00 00		 comiss	 xmm0, DWORD PTR __real@3f800000
  000c5	72 09		 jb	 SHORT $LN15@SetAddColo
  000c7	c7 45 e8 ff 00
	00 00		 mov	 DWORD PTR tv149[ebp], 255 ; 000000ffH
  000ce	eb 38		 jmp	 SHORT $LN16@SetAddColo
$LN15@SetAddColo:
  000d0	8b 45 08	 mov	 eax, DWORD PTR _rColor$[ebp]
  000d3	0f 57 c0	 xorps	 xmm0, xmm0
  000d6	0f 2f 40 08	 comiss	 xmm0, DWORD PTR [eax+8]
  000da	72 06		 jb	 SHORT $LN13@SetAddColo
  000dc	83 65 ec 00	 and	 DWORD PTR tv148[ebp], 0
  000e0	eb 20		 jmp	 SHORT $LN14@SetAddColo
$LN13@SetAddColo:
  000e2	8b 45 08	 mov	 eax, DWORD PTR _rColor$[ebp]
  000e5	f3 0f 10 40 08	 movss	 xmm0, DWORD PTR [eax+8]
  000ea	f3 0f 59 05 00
	00 00 00	 mulss	 xmm0, DWORD PTR __real@437f0000
  000f2	f3 0f 58 05 00
	00 00 00	 addss	 xmm0, DWORD PTR __real@3f000000
  000fa	e8 00 00 00 00	 call	 __ftoui3
  000ff	89 45 ec	 mov	 DWORD PTR tv148[ebp], eax
$LN14@SetAddColo:
  00102	8b 45 ec	 mov	 eax, DWORD PTR tv148[ebp]
  00105	89 45 e8	 mov	 DWORD PTR tv149[ebp], eax
$LN16@SetAddColo:
  00108	8b 45 e8	 mov	 eax, DWORD PTR tv149[ebp]
  0010b	89 45 d0	 mov	 DWORD PTR _dwB$1[ebp], eax

; 934  :     DWORD dwA = a >= 1.0f ? 0xff : a <= 0.0f ? 0x00 : (DWORD) (a * 255.0f + 0.5f);

  0010e	8b 45 08	 mov	 eax, DWORD PTR _rColor$[ebp]
  00111	f3 0f 10 40 0c	 movss	 xmm0, DWORD PTR [eax+12]
  00116	0f 2f 05 00 00
	00 00		 comiss	 xmm0, DWORD PTR __real@3f800000
  0011d	72 09		 jb	 SHORT $LN19@SetAddColo
  0011f	c7 45 e0 ff 00
	00 00		 mov	 DWORD PTR tv160[ebp], 255 ; 000000ffH
  00126	eb 38		 jmp	 SHORT $LN20@SetAddColo
$LN19@SetAddColo:
  00128	8b 45 08	 mov	 eax, DWORD PTR _rColor$[ebp]
  0012b	0f 57 c0	 xorps	 xmm0, xmm0
  0012e	0f 2f 40 0c	 comiss	 xmm0, DWORD PTR [eax+12]
  00132	72 06		 jb	 SHORT $LN17@SetAddColo
  00134	83 65 e4 00	 and	 DWORD PTR tv159[ebp], 0
  00138	eb 20		 jmp	 SHORT $LN18@SetAddColo
$LN17@SetAddColo:
  0013a	8b 45 08	 mov	 eax, DWORD PTR _rColor$[ebp]
  0013d	f3 0f 10 40 0c	 movss	 xmm0, DWORD PTR [eax+12]
  00142	f3 0f 59 05 00
	00 00 00	 mulss	 xmm0, DWORD PTR __real@437f0000
  0014a	f3 0f 58 05 00
	00 00 00	 addss	 xmm0, DWORD PTR __real@3f000000
  00152	e8 00 00 00 00	 call	 __ftoui3
  00157	89 45 e4	 mov	 DWORD PTR tv159[ebp], eax
$LN18@SetAddColo:
  0015a	8b 45 e4	 mov	 eax, DWORD PTR tv159[ebp]
  0015d	89 45 e0	 mov	 DWORD PTR tv160[ebp], eax
$LN20@SetAddColo:
  00160	8b 45 e0	 mov	 eax, DWORD PTR tv160[ebp]
  00163	89 45 d4	 mov	 DWORD PTR _dwA$2[ebp], eax

; 935  : 
; 936  :     return (dwA << 24) | (dwR << 16) | (dwG << 8) | dwB;

  00166	8b 45 dc	 mov	 eax, DWORD PTR _dwG$4[ebp]
  00169	c1 e0 08	 shl	 eax, 8
  0016c	8b 4d d8	 mov	 ecx, DWORD PTR _dwR$3[ebp]
  0016f	c1 e1 10	 shl	 ecx, 16			; 00000010H
  00172	8b 55 d4	 mov	 edx, DWORD PTR _dwA$2[ebp]
  00175	c1 e2 18	 shl	 edx, 24			; 00000018H
  00178	0b d1		 or	 edx, ecx
  0017a	0b d0		 or	 edx, eax
  0017c	0b 55 d0	 or	 edx, DWORD PTR _dwB$1[ebp]
; File D:\Metin2 Server Files\mainline\SRC_2014\Metin2Client\EterLib\GrpScreen.cpp

; 827  : 	STATEMANAGER.SetRenderState(D3DRS_TEXTUREFACTOR, rColor);

  0017f	52		 push	 edx
  00180	6a 3c		 push	 60			; 0000003cH
  00182	8b 0d 00 00 00
	00		 mov	 ecx, DWORD PTR ?ms_singleton@?$CSingleton@VCStateManager@@@@0PAVCStateManager@@A ; CSingleton<CStateManager>::ms_singleton
  00188	e8 00 00 00 00	 call	 ?SetRenderState@CStateManager@@QAEXW4_D3DRENDERSTATETYPE@@K@Z ; CStateManager::SetRenderState

; 828  : 	STATEMANAGER.SetTextureStageState(0, D3DTSS_COLORARG1, D3DTA_TEXTURE);

  0018d	6a 02		 push	 2
  0018f	6a 02		 push	 2
  00191	6a 00		 push	 0
  00193	8b 0d 00 00 00
	00		 mov	 ecx, DWORD PTR ?ms_singleton@?$CSingleton@VCStateManager@@@@0PAVCStateManager@@A ; CSingleton<CStateManager>::ms_singleton
  00199	e8 00 00 00 00	 call	 ?SetTextureStageState@CStateManager@@QAEXKW4_D3DTEXTURESTAGESTATETYPE@@K@Z ; CStateManager::SetTextureStageState

; 829  : 	STATEMANAGER.SetTextureStageState(0, D3DTSS_COLORARG2, D3DTA_TFACTOR);

  0019e	6a 03		 push	 3
  001a0	6a 03		 push	 3
  001a2	6a 00		 push	 0
  001a4	8b 0d 00 00 00
	00		 mov	 ecx, DWORD PTR ?ms_singleton@?$CSingleton@VCStateManager@@@@0PAVCStateManager@@A ; CSingleton<CStateManager>::ms_singleton
  001aa	e8 00 00 00 00	 call	 ?SetTextureStageState@CStateManager@@QAEXKW4_D3DTEXTURESTAGESTATETYPE@@K@Z ; CStateManager::SetTextureStageState

; 830  : 	STATEMANAGER.SetTextureStageState(0, D3DTSS_COLOROP, D3DTOP_ADD);

  001af	6a 07		 push	 7
  001b1	6a 01		 push	 1
  001b3	6a 00		 push	 0
  001b5	8b 0d 00 00 00
	00		 mov	 ecx, DWORD PTR ?ms_singleton@?$CSingleton@VCStateManager@@@@0PAVCStateManager@@A ; CSingleton<CStateManager>::ms_singleton
  001bb	e8 00 00 00 00	 call	 ?SetTextureStageState@CStateManager@@QAEXKW4_D3DTEXTURESTAGESTATETYPE@@K@Z ; CStateManager::SetTextureStageState

; 831  : }

  001c0	c9		 leave
  001c1	c2 04 00	 ret	 4
?SetAddColorOperation@CScreen@@QAEXAAUD3DXCOLOR@@@Z ENDP ; CScreen::SetAddColorOperation
_TEXT	ENDS
; Function compile flags: /Odspy
; File D:\Metin2 Server Files\mainline\SRC_2014\Metin2Client\EterLib\GrpScreen.cpp
; File D:\Metin2 Server Files\mainline\SRC_2014\M2Data\include\d3dx8math.inl
; File D:\Metin2 Server Files\mainline\SRC_2014\Metin2Client\EterLib\GrpScreen.cpp
;	COMDAT ?SetOneColorOperation@CScreen@@QAEXAAUD3DXCOLOR@@@Z
_TEXT	SEGMENT
_this$ = -52						; size = 4
_dwB$1 = -48						; size = 4
_dwA$2 = -44						; size = 4
_dwR$3 = -40						; size = 4
_dwG$4 = -36						; size = 4
tv163 = -32						; size = 4
tv162 = -28						; size = 4
tv152 = -24						; size = 4
tv151 = -20						; size = 4
tv141 = -16						; size = 4
tv140 = -12						; size = 4
tv130 = -8						; size = 4
tv129 = -4						; size = 4
_rColor$ = 8						; size = 4
?SetOneColorOperation@CScreen@@QAEXAAUD3DXCOLOR@@@Z PROC ; CScreen::SetOneColorOperation, COMDAT
; _this$ = ecx

; 816  : {

  00000	55		 push	 ebp
  00001	8b ec		 mov	 ebp, esp
  00003	83 ec 34	 sub	 esp, 52			; 00000034H
  00006	89 4d cc	 mov	 DWORD PTR _this$[ebp], ecx

; 817  : 	STATEMANAGER.SetTexture(0, NULL);

  00009	6a 00		 push	 0
  0000b	6a 00		 push	 0
  0000d	8b 0d 00 00 00
	00		 mov	 ecx, DWORD PTR ?ms_singleton@?$CSingleton@VCStateManager@@@@0PAVCStateManager@@A ; CSingleton<CStateManager>::ms_singleton
  00013	e8 00 00 00 00	 call	 ?SetTexture@CStateManager@@QAEXKPAUIDirect3DBaseTexture8@@@Z ; CStateManager::SetTexture

; 818  : 	STATEMANAGER.SetTexture(1, NULL);

  00018	6a 00		 push	 0
  0001a	6a 01		 push	 1
  0001c	8b 0d 00 00 00
	00		 mov	 ecx, DWORD PTR ?ms_singleton@?$CSingleton@VCStateManager@@@@0PAVCStateManager@@A ; CSingleton<CStateManager>::ms_singleton
  00022	e8 00 00 00 00	 call	 ?SetTexture@CStateManager@@QAEXKPAUIDirect3DBaseTexture8@@@Z ; CStateManager::SetTexture
; File D:\Metin2 Server Files\mainline\SRC_2014\M2Data\include\d3dx8math.inl

; 931  :     DWORD dwR = r >= 1.0f ? 0xff : r <= 0.0f ? 0x00 : (DWORD) (r * 255.0f + 0.5f);

  00027	8b 45 08	 mov	 eax, DWORD PTR _rColor$[ebp]
  0002a	f3 0f 10 00	 movss	 xmm0, DWORD PTR [eax]
  0002e	0f 2f 05 00 00
	00 00		 comiss	 xmm0, DWORD PTR __real@3f800000
  00035	72 09		 jb	 SHORT $LN11@SetOneColo
  00037	c7 45 f8 ff 00
	00 00		 mov	 DWORD PTR tv130[ebp], 255 ; 000000ffH
  0003e	eb 36		 jmp	 SHORT $LN12@SetOneColo
$LN11@SetOneColo:
  00040	8b 45 08	 mov	 eax, DWORD PTR _rColor$[ebp]
  00043	0f 57 c0	 xorps	 xmm0, xmm0
  00046	0f 2f 00	 comiss	 xmm0, DWORD PTR [eax]
  00049	72 06		 jb	 SHORT $LN9@SetOneColo
  0004b	83 65 fc 00	 and	 DWORD PTR tv129[ebp], 0
  0004f	eb 1f		 jmp	 SHORT $LN10@SetOneColo
$LN9@SetOneColo:
  00051	8b 45 08	 mov	 eax, DWORD PTR _rColor$[ebp]
  00054	f3 0f 10 00	 movss	 xmm0, DWORD PTR [eax]
  00058	f3 0f 59 05 00
	00 00 00	 mulss	 xmm0, DWORD PTR __real@437f0000
  00060	f3 0f 58 05 00
	00 00 00	 addss	 xmm0, DWORD PTR __real@3f000000
  00068	e8 00 00 00 00	 call	 __ftoui3
  0006d	89 45 fc	 mov	 DWORD PTR tv129[ebp], eax
$LN10@SetOneColo:
  00070	8b 45 fc	 mov	 eax, DWORD PTR tv129[ebp]
  00073	89 45 f8	 mov	 DWORD PTR tv130[ebp], eax
$LN12@SetOneColo:
  00076	8b 45 f8	 mov	 eax, DWORD PTR tv130[ebp]
  00079	89 45 d8	 mov	 DWORD PTR _dwR$3[ebp], eax

; 932  :     DWORD dwG = g >= 1.0f ? 0xff : g <= 0.0f ? 0x00 : (DWORD) (g * 255.0f + 0.5f);

  0007c	8b 45 08	 mov	 eax, DWORD PTR _rColor$[ebp]
  0007f	f3 0f 10 40 04	 movss	 xmm0, DWORD PTR [eax+4]
  00084	0f 2f 05 00 00
	00 00		 comiss	 xmm0, DWORD PTR __real@3f800000
  0008b	72 09		 jb	 SHORT $LN15@SetOneColo
  0008d	c7 45 f0 ff 00
	00 00		 mov	 DWORD PTR tv141[ebp], 255 ; 000000ffH
  00094	eb 38		 jmp	 SHORT $LN16@SetOneColo
$LN15@SetOneColo:
  00096	8b 45 08	 mov	 eax, DWORD PTR _rColor$[ebp]
  00099	0f 57 c0	 xorps	 xmm0, xmm0
  0009c	0f 2f 40 04	 comiss	 xmm0, DWORD PTR [eax+4]
  000a0	72 06		 jb	 SHORT $LN13@SetOneColo
  000a2	83 65 f4 00	 and	 DWORD PTR tv140[ebp], 0
  000a6	eb 20		 jmp	 SHORT $LN14@SetOneColo
$LN13@SetOneColo:
  000a8	8b 45 08	 mov	 eax, DWORD PTR _rColor$[ebp]
  000ab	f3 0f 10 40 04	 movss	 xmm0, DWORD PTR [eax+4]
  000b0	f3 0f 59 05 00
	00 00 00	 mulss	 xmm0, DWORD PTR __real@437f0000
  000b8	f3 0f 58 05 00
	00 00 00	 addss	 xmm0, DWORD PTR __real@3f000000
  000c0	e8 00 00 00 00	 call	 __ftoui3
  000c5	89 45 f4	 mov	 DWORD PTR tv140[ebp], eax
$LN14@SetOneColo:
  000c8	8b 45 f4	 mov	 eax, DWORD PTR tv140[ebp]
  000cb	89 45 f0	 mov	 DWORD PTR tv141[ebp], eax
$LN16@SetOneColo:
  000ce	8b 45 f0	 mov	 eax, DWORD PTR tv141[ebp]
  000d1	89 45 dc	 mov	 DWORD PTR _dwG$4[ebp], eax

; 933  :     DWORD dwB = b >= 1.0f ? 0xff : b <= 0.0f ? 0x00 : (DWORD) (b * 255.0f + 0.5f);

  000d4	8b 45 08	 mov	 eax, DWORD PTR _rColor$[ebp]
  000d7	f3 0f 10 40 08	 movss	 xmm0, DWORD PTR [eax+8]
  000dc	0f 2f 05 00 00
	00 00		 comiss	 xmm0, DWORD PTR __real@3f800000
  000e3	72 09		 jb	 SHORT $LN19@SetOneColo
  000e5	c7 45 e8 ff 00
	00 00		 mov	 DWORD PTR tv152[ebp], 255 ; 000000ffH
  000ec	eb 38		 jmp	 SHORT $LN20@SetOneColo
$LN19@SetOneColo:
  000ee	8b 45 08	 mov	 eax, DWORD PTR _rColor$[ebp]
  000f1	0f 57 c0	 xorps	 xmm0, xmm0
  000f4	0f 2f 40 08	 comiss	 xmm0, DWORD PTR [eax+8]
  000f8	72 06		 jb	 SHORT $LN17@SetOneColo
  000fa	83 65 ec 00	 and	 DWORD PTR tv151[ebp], 0
  000fe	eb 20		 jmp	 SHORT $LN18@SetOneColo
$LN17@SetOneColo:
  00100	8b 45 08	 mov	 eax, DWORD PTR _rColor$[ebp]
  00103	f3 0f 10 40 08	 movss	 xmm0, DWORD PTR [eax+8]
  00108	f3 0f 59 05 00
	00 00 00	 mulss	 xmm0, DWORD PTR __real@437f0000
  00110	f3 0f 58 05 00
	00 00 00	 addss	 xmm0, DWORD PTR __real@3f000000
  00118	e8 00 00 00 00	 call	 __ftoui3
  0011d	89 45 ec	 mov	 DWORD PTR tv151[ebp], eax
$LN18@SetOneColo:
  00120	8b 45 ec	 mov	 eax, DWORD PTR tv151[ebp]
  00123	89 45 e8	 mov	 DWORD PTR tv152[ebp], eax
$LN20@SetOneColo:
  00126	8b 45 e8	 mov	 eax, DWORD PTR tv152[ebp]
  00129	89 45 d0	 mov	 DWORD PTR _dwB$1[ebp], eax

; 934  :     DWORD dwA = a >= 1.0f ? 0xff : a <= 0.0f ? 0x00 : (DWORD) (a * 255.0f + 0.5f);

  0012c	8b 45 08	 mov	 eax, DWORD PTR _rColor$[ebp]
  0012f	f3 0f 10 40 0c	 movss	 xmm0, DWORD PTR [eax+12]
  00134	0f 2f 05 00 00
	00 00		 comiss	 xmm0, DWORD PTR __real@3f800000
  0013b	72 09		 jb	 SHORT $LN23@SetOneColo
  0013d	c7 45 e0 ff 00
	00 00		 mov	 DWORD PTR tv163[ebp], 255 ; 000000ffH
  00144	eb 38		 jmp	 SHORT $LN24@SetOneColo
$LN23@SetOneColo:
  00146	8b 45 08	 mov	 eax, DWORD PTR _rColor$[ebp]
  00149	0f 57 c0	 xorps	 xmm0, xmm0
  0014c	0f 2f 40 0c	 comiss	 xmm0, DWORD PTR [eax+12]
  00150	72 06		 jb	 SHORT $LN21@SetOneColo
  00152	83 65 e4 00	 and	 DWORD PTR tv162[ebp], 0
  00156	eb 20		 jmp	 SHORT $LN22@SetOneColo
$LN21@SetOneColo:
  00158	8b 45 08	 mov	 eax, DWORD PTR _rColor$[ebp]
  0015b	f3 0f 10 40 0c	 movss	 xmm0, DWORD PTR [eax+12]
  00160	f3 0f 59 05 00
	00 00 00	 mulss	 xmm0, DWORD PTR __real@437f0000
  00168	f3 0f 58 05 00
	00 00 00	 addss	 xmm0, DWORD PTR __real@3f000000
  00170	e8 00 00 00 00	 call	 __ftoui3
  00175	89 45 e4	 mov	 DWORD PTR tv162[ebp], eax
$LN22@SetOneColo:
  00178	8b 45 e4	 mov	 eax, DWORD PTR tv162[ebp]
  0017b	89 45 e0	 mov	 DWORD PTR tv163[ebp], eax
$LN24@SetOneColo:
  0017e	8b 45 e0	 mov	 eax, DWORD PTR tv163[ebp]
  00181	89 45 d4	 mov	 DWORD PTR _dwA$2[ebp], eax

; 935  : 
; 936  :     return (dwA << 24) | (dwR << 16) | (dwG << 8) | dwB;

  00184	8b 45 dc	 mov	 eax, DWORD PTR _dwG$4[ebp]
  00187	c1 e0 08	 shl	 eax, 8
  0018a	8b 4d d8	 mov	 ecx, DWORD PTR _dwR$3[ebp]
  0018d	c1 e1 10	 shl	 ecx, 16			; 00000010H
  00190	8b 55 d4	 mov	 edx, DWORD PTR _dwA$2[ebp]
  00193	c1 e2 18	 shl	 edx, 24			; 00000018H
  00196	0b d1		 or	 edx, ecx
  00198	0b d0		 or	 edx, eax
  0019a	0b 55 d0	 or	 edx, DWORD PTR _dwB$1[ebp]
; File D:\Metin2 Server Files\mainline\SRC_2014\Metin2Client\EterLib\GrpScreen.cpp

; 820  : 	STATEMANAGER.SetRenderState(D3DRS_TEXTUREFACTOR, rColor);

  0019d	52		 push	 edx
  0019e	6a 3c		 push	 60			; 0000003cH
  001a0	8b 0d 00 00 00
	00		 mov	 ecx, DWORD PTR ?ms_singleton@?$CSingleton@VCStateManager@@@@0PAVCStateManager@@A ; CSingleton<CStateManager>::ms_singleton
  001a6	e8 00 00 00 00	 call	 ?SetRenderState@CStateManager@@QAEXW4_D3DRENDERSTATETYPE@@K@Z ; CStateManager::SetRenderState

; 821  : 	STATEMANAGER.SetTextureStageState(0, D3DTSS_COLORARG1, D3DTA_TFACTOR);

  001ab	6a 03		 push	 3
  001ad	6a 02		 push	 2
  001af	6a 00		 push	 0
  001b1	8b 0d 00 00 00
	00		 mov	 ecx, DWORD PTR ?ms_singleton@?$CSingleton@VCStateManager@@@@0PAVCStateManager@@A ; CSingleton<CStateManager>::ms_singleton
  001b7	e8 00 00 00 00	 call	 ?SetTextureStageState@CStateManager@@QAEXKW4_D3DTEXTURESTAGESTATETYPE@@K@Z ; CStateManager::SetTextureStageState

; 822  : 	STATEMANAGER.SetTextureStageState(0, D3DTSS_COLOROP, D3DTOP_SELECTARG1);

  001bc	6a 02		 push	 2
  001be	6a 01		 push	 1
  001c0	6a 00		 push	 0
  001c2	8b 0d 00 00 00
	00		 mov	 ecx, DWORD PTR ?ms_singleton@?$CSingleton@VCStateManager@@@@0PAVCStateManager@@A ; CSingleton<CStateManager>::ms_singleton
  001c8	e8 00 00 00 00	 call	 ?SetTextureStageState@CStateManager@@QAEXKW4_D3DTEXTURESTAGESTATETYPE@@K@Z ; CStateManager::SetTextureStageState

; 823  : }

  001cd	c9		 leave
  001ce	c2 04 00	 ret	 4
?SetOneColorOperation@CScreen@@QAEXAAUD3DXCOLOR@@@Z ENDP ; CScreen::SetOneColorOperation
_TEXT	ENDS
; Function compile flags: /Odspy
; File D:\Metin2 Server Files\mainline\SRC_2014\Metin2Client\EterLib\GrpScreen.cpp
;	COMDAT ?SetBlendOperation@CScreen@@QAEXXZ
_TEXT	SEGMENT
_this$ = -4						; size = 4
?SetBlendOperation@CScreen@@QAEXXZ PROC			; CScreen::SetBlendOperation, COMDAT
; _this$ = ecx

; 803  : {

  00000	55		 push	 ebp
  00001	8b ec		 mov	 ebp, esp
  00003	51		 push	 ecx
  00004	89 4d fc	 mov	 DWORD PTR _this$[ebp], ecx

; 804  : 	STATEMANAGER.SetTexture(0, NULL);

  00007	6a 00		 push	 0
  00009	6a 00		 push	 0
  0000b	8b 0d 00 00 00
	00		 mov	 ecx, DWORD PTR ?ms_singleton@?$CSingleton@VCStateManager@@@@0PAVCStateManager@@A ; CSingleton<CStateManager>::ms_singleton
  00011	e8 00 00 00 00	 call	 ?SetTexture@CStateManager@@QAEXKPAUIDirect3DBaseTexture8@@@Z ; CStateManager::SetTexture

; 805  : 	STATEMANAGER.SetTextureStageState(0, D3DTSS_COLORARG1,	D3DTA_TEXTURE);

  00016	6a 02		 push	 2
  00018	6a 02		 push	 2
  0001a	6a 00		 push	 0
  0001c	8b 0d 00 00 00
	00		 mov	 ecx, DWORD PTR ?ms_singleton@?$CSingleton@VCStateManager@@@@0PAVCStateManager@@A ; CSingleton<CStateManager>::ms_singleton
  00022	e8 00 00 00 00	 call	 ?SetTextureStageState@CStateManager@@QAEXKW4_D3DTEXTURESTAGESTATETYPE@@K@Z ; CStateManager::SetTextureStageState

; 806  : 	STATEMANAGER.SetTextureStageState(0, D3DTSS_COLORARG2,	D3DTA_CURRENT);

  00027	6a 01		 push	 1
  00029	6a 03		 push	 3
  0002b	6a 00		 push	 0
  0002d	8b 0d 00 00 00
	00		 mov	 ecx, DWORD PTR ?ms_singleton@?$CSingleton@VCStateManager@@@@0PAVCStateManager@@A ; CSingleton<CStateManager>::ms_singleton
  00033	e8 00 00 00 00	 call	 ?SetTextureStageState@CStateManager@@QAEXKW4_D3DTEXTURESTAGESTATETYPE@@K@Z ; CStateManager::SetTextureStageState

; 807  : 	STATEMANAGER.SetTextureStageState(0, D3DTSS_COLOROP,	D3DTOP_MODULATE);

  00038	6a 04		 push	 4
  0003a	6a 01		 push	 1
  0003c	6a 00		 push	 0
  0003e	8b 0d 00 00 00
	00		 mov	 ecx, DWORD PTR ?ms_singleton@?$CSingleton@VCStateManager@@@@0PAVCStateManager@@A ; CSingleton<CStateManager>::ms_singleton
  00044	e8 00 00 00 00	 call	 ?SetTextureStageState@CStateManager@@QAEXKW4_D3DTEXTURESTAGESTATETYPE@@K@Z ; CStateManager::SetTextureStageState

; 808  : 	STATEMANAGER.SetTextureStageState(0, D3DTSS_ALPHAARG1,	D3DTA_TEXTURE);

  00049	6a 02		 push	 2
  0004b	6a 05		 push	 5
  0004d	6a 00		 push	 0
  0004f	8b 0d 00 00 00
	00		 mov	 ecx, DWORD PTR ?ms_singleton@?$CSingleton@VCStateManager@@@@0PAVCStateManager@@A ; CSingleton<CStateManager>::ms_singleton
  00055	e8 00 00 00 00	 call	 ?SetTextureStageState@CStateManager@@QAEXKW4_D3DTEXTURESTAGESTATETYPE@@K@Z ; CStateManager::SetTextureStageState

; 809  : 	STATEMANAGER.SetTextureStageState(0, D3DTSS_ALPHAARG2,	D3DTA_CURRENT);

  0005a	6a 01		 push	 1
  0005c	6a 06		 push	 6
  0005e	6a 00		 push	 0
  00060	8b 0d 00 00 00
	00		 mov	 ecx, DWORD PTR ?ms_singleton@?$CSingleton@VCStateManager@@@@0PAVCStateManager@@A ; CSingleton<CStateManager>::ms_singleton
  00066	e8 00 00 00 00	 call	 ?SetTextureStageState@CStateManager@@QAEXKW4_D3DTEXTURESTAGESTATETYPE@@K@Z ; CStateManager::SetTextureStageState

; 810  : 	STATEMANAGER.SetTextureStageState(0, D3DTSS_ALPHAOP,	D3DTOP_MODULATE);

  0006b	6a 04		 push	 4
  0006d	6a 04		 push	 4
  0006f	6a 00		 push	 0
  00071	8b 0d 00 00 00
	00		 mov	 ecx, DWORD PTR ?ms_singleton@?$CSingleton@VCStateManager@@@@0PAVCStateManager@@A ; CSingleton<CStateManager>::ms_singleton
  00077	e8 00 00 00 00	 call	 ?SetTextureStageState@CStateManager@@QAEXKW4_D3DTEXTURESTAGESTATETYPE@@K@Z ; CStateManager::SetTextureStageState

; 811  : 	STATEMANAGER.SetTextureStageState(1, D3DTSS_COLOROP,	D3DTOP_DISABLE);

  0007c	6a 01		 push	 1
  0007e	6a 01		 push	 1
  00080	6a 01		 push	 1
  00082	8b 0d 00 00 00
	00		 mov	 ecx, DWORD PTR ?ms_singleton@?$CSingleton@VCStateManager@@@@0PAVCStateManager@@A ; CSingleton<CStateManager>::ms_singleton
  00088	e8 00 00 00 00	 call	 ?SetTextureStageState@CStateManager@@QAEXKW4_D3DTEXTURESTAGESTATETYPE@@K@Z ; CStateManager::SetTextureStageState

; 812  : 	STATEMANAGER.SetTextureStageState(1, D3DTSS_ALPHAOP,	D3DTOP_DISABLE);

  0008d	6a 01		 push	 1
  0008f	6a 04		 push	 4
  00091	6a 01		 push	 1
  00093	8b 0d 00 00 00
	00		 mov	 ecx, DWORD PTR ?ms_singleton@?$CSingleton@VCStateManager@@@@0PAVCStateManager@@A ; CSingleton<CStateManager>::ms_singleton
  00099	e8 00 00 00 00	 call	 ?SetTextureStageState@CStateManager@@QAEXKW4_D3DTEXTURESTAGESTATETYPE@@K@Z ; CStateManager::SetTextureStageState

; 813  : }

  0009e	c9		 leave
  0009f	c3		 ret	 0
?SetBlendOperation@CScreen@@QAEXXZ ENDP			; CScreen::SetBlendOperation
_TEXT	ENDS
; Function compile flags: /Odspy
; File D:\Metin2 Server Files\mainline\SRC_2014\Metin2Client\EterLib\GrpScreen.cpp
;	COMDAT ?SetDiffuseOperation@CScreen@@QAEXXZ
_TEXT	SEGMENT
_this$ = -4						; size = 4
?SetDiffuseOperation@CScreen@@QAEXXZ PROC		; CScreen::SetDiffuseOperation, COMDAT
; _this$ = ecx

; 792  : {

  00000	55		 push	 ebp
  00001	8b ec		 mov	 ebp, esp
  00003	51		 push	 ecx
  00004	89 4d fc	 mov	 DWORD PTR _this$[ebp], ecx

; 793  : 	STATEMANAGER.SetTexture(0, NULL);

  00007	6a 00		 push	 0
  00009	6a 00		 push	 0
  0000b	8b 0d 00 00 00
	00		 mov	 ecx, DWORD PTR ?ms_singleton@?$CSingleton@VCStateManager@@@@0PAVCStateManager@@A ; CSingleton<CStateManager>::ms_singleton
  00011	e8 00 00 00 00	 call	 ?SetTexture@CStateManager@@QAEXKPAUIDirect3DBaseTexture8@@@Z ; CStateManager::SetTexture

; 794  : 	STATEMANAGER.SetTextureStageState(0, D3DTSS_COLORARG1,	D3DTA_TEXTURE);

  00016	6a 02		 push	 2
  00018	6a 02		 push	 2
  0001a	6a 00		 push	 0
  0001c	8b 0d 00 00 00
	00		 mov	 ecx, DWORD PTR ?ms_singleton@?$CSingleton@VCStateManager@@@@0PAVCStateManager@@A ; CSingleton<CStateManager>::ms_singleton
  00022	e8 00 00 00 00	 call	 ?SetTextureStageState@CStateManager@@QAEXKW4_D3DTEXTURESTAGESTATETYPE@@K@Z ; CStateManager::SetTextureStageState

; 795  : 	STATEMANAGER.SetTextureStageState(0, D3DTSS_COLORARG2,	D3DTA_DIFFUSE);

  00027	6a 00		 push	 0
  00029	6a 03		 push	 3
  0002b	6a 00		 push	 0
  0002d	8b 0d 00 00 00
	00		 mov	 ecx, DWORD PTR ?ms_singleton@?$CSingleton@VCStateManager@@@@0PAVCStateManager@@A ; CSingleton<CStateManager>::ms_singleton
  00033	e8 00 00 00 00	 call	 ?SetTextureStageState@CStateManager@@QAEXKW4_D3DTEXTURESTAGESTATETYPE@@K@Z ; CStateManager::SetTextureStageState

; 796  : 	STATEMANAGER.SetTextureStageState(0, D3DTSS_COLOROP,	D3DTOP_MODULATE);

  00038	6a 04		 push	 4
  0003a	6a 01		 push	 1
  0003c	6a 00		 push	 0
  0003e	8b 0d 00 00 00
	00		 mov	 ecx, DWORD PTR ?ms_singleton@?$CSingleton@VCStateManager@@@@0PAVCStateManager@@A ; CSingleton<CStateManager>::ms_singleton
  00044	e8 00 00 00 00	 call	 ?SetTextureStageState@CStateManager@@QAEXKW4_D3DTEXTURESTAGESTATETYPE@@K@Z ; CStateManager::SetTextureStageState

; 797  : 
; 798  : 	STATEMANAGER.SetTextureStageState(1, D3DTSS_COLOROP,	D3DTOP_DISABLE);

  00049	6a 01		 push	 1
  0004b	6a 01		 push	 1
  0004d	6a 01		 push	 1
  0004f	8b 0d 00 00 00
	00		 mov	 ecx, DWORD PTR ?ms_singleton@?$CSingleton@VCStateManager@@@@0PAVCStateManager@@A ; CSingleton<CStateManager>::ms_singleton
  00055	e8 00 00 00 00	 call	 ?SetTextureStageState@CStateManager@@QAEXKW4_D3DTEXTURESTAGESTATETYPE@@K@Z ; CStateManager::SetTextureStageState

; 799  : 	STATEMANAGER.SetTextureStageState(1, D3DTSS_ALPHAOP,	D3DTOP_DISABLE);

  0005a	6a 01		 push	 1
  0005c	6a 04		 push	 4
  0005e	6a 01		 push	 1
  00060	8b 0d 00 00 00
	00		 mov	 ecx, DWORD PTR ?ms_singleton@?$CSingleton@VCStateManager@@@@0PAVCStateManager@@A ; CSingleton<CStateManager>::ms_singleton
  00066	e8 00 00 00 00	 call	 ?SetTextureStageState@CStateManager@@QAEXKW4_D3DTEXTURESTAGESTATETYPE@@K@Z ; CStateManager::SetTextureStageState

; 800  : }

  0006b	c9		 leave
  0006c	c3		 ret	 0
?SetDiffuseOperation@CScreen@@QAEXXZ ENDP		; CScreen::SetDiffuseOperation
_TEXT	ENDS
; Function compile flags: /Odspy
; File D:\Metin2 Server Files\mainline\SRC_2014\Metin2Client\EterLib\GrpScreen.cpp
;	COMDAT ?SetColorOperation@CScreen@@QAEXXZ
_TEXT	SEGMENT
_this$ = -4						; size = 4
?SetColorOperation@CScreen@@QAEXXZ PROC			; CScreen::SetColorOperation, COMDAT
; _this$ = ecx

; 782  : {

  00000	55		 push	 ebp
  00001	8b ec		 mov	 ebp, esp
  00003	51		 push	 ecx
  00004	89 4d fc	 mov	 DWORD PTR _this$[ebp], ecx

; 783  : 	STATEMANAGER.SetTexture(0, NULL);

  00007	6a 00		 push	 0
  00009	6a 00		 push	 0
  0000b	8b 0d 00 00 00
	00		 mov	 ecx, DWORD PTR ?ms_singleton@?$CSingleton@VCStateManager@@@@0PAVCStateManager@@A ; CSingleton<CStateManager>::ms_singleton
  00011	e8 00 00 00 00	 call	 ?SetTexture@CStateManager@@QAEXKPAUIDirect3DBaseTexture8@@@Z ; CStateManager::SetTexture

; 784  : 	STATEMANAGER.SetTextureStageState(0, D3DTSS_COLORARG1,	D3DTA_DIFFUSE);

  00016	6a 00		 push	 0
  00018	6a 02		 push	 2
  0001a	6a 00		 push	 0
  0001c	8b 0d 00 00 00
	00		 mov	 ecx, DWORD PTR ?ms_singleton@?$CSingleton@VCStateManager@@@@0PAVCStateManager@@A ; CSingleton<CStateManager>::ms_singleton
  00022	e8 00 00 00 00	 call	 ?SetTextureStageState@CStateManager@@QAEXKW4_D3DTEXTURESTAGESTATETYPE@@K@Z ; CStateManager::SetTextureStageState

; 785  : 	STATEMANAGER.SetTextureStageState(0, D3DTSS_COLOROP,	D3DTOP_SELECTARG1);

  00027	6a 02		 push	 2
  00029	6a 01		 push	 1
  0002b	6a 00		 push	 0
  0002d	8b 0d 00 00 00
	00		 mov	 ecx, DWORD PTR ?ms_singleton@?$CSingleton@VCStateManager@@@@0PAVCStateManager@@A ; CSingleton<CStateManager>::ms_singleton
  00033	e8 00 00 00 00	 call	 ?SetTextureStageState@CStateManager@@QAEXKW4_D3DTEXTURESTAGESTATETYPE@@K@Z ; CStateManager::SetTextureStageState

; 786  : 	STATEMANAGER.SetTextureStageState(0, D3DTSS_ALPHAOP,	D3DTOP_DISABLE);

  00038	6a 01		 push	 1
  0003a	6a 04		 push	 4
  0003c	6a 00		 push	 0
  0003e	8b 0d 00 00 00
	00		 mov	 ecx, DWORD PTR ?ms_singleton@?$CSingleton@VCStateManager@@@@0PAVCStateManager@@A ; CSingleton<CStateManager>::ms_singleton
  00044	e8 00 00 00 00	 call	 ?SetTextureStageState@CStateManager@@QAEXKW4_D3DTEXTURESTAGESTATETYPE@@K@Z ; CStateManager::SetTextureStageState

; 787  : 	STATEMANAGER.SetTextureStageState(1, D3DTSS_COLOROP,	D3DTOP_DISABLE);

  00049	6a 01		 push	 1
  0004b	6a 01		 push	 1
  0004d	6a 01		 push	 1
  0004f	8b 0d 00 00 00
	00		 mov	 ecx, DWORD PTR ?ms_singleton@?$CSingleton@VCStateManager@@@@0PAVCStateManager@@A ; CSingleton<CStateManager>::ms_singleton
  00055	e8 00 00 00 00	 call	 ?SetTextureStageState@CStateManager@@QAEXKW4_D3DTEXTURESTAGESTATETYPE@@K@Z ; CStateManager::SetTextureStageState

; 788  : 	STATEMANAGER.SetTextureStageState(1, D3DTSS_ALPHAOP,	D3DTOP_DISABLE);

  0005a	6a 01		 push	 1
  0005c	6a 04		 push	 4
  0005e	6a 01		 push	 1
  00060	8b 0d 00 00 00
	00		 mov	 ecx, DWORD PTR ?ms_singleton@?$CSingleton@VCStateManager@@@@0PAVCStateManager@@A ; CSingleton<CStateManager>::ms_singleton
  00066	e8 00 00 00 00	 call	 ?SetTextureStageState@CStateManager@@QAEXKW4_D3DTEXTURESTAGESTATETYPE@@K@Z ; CStateManager::SetTextureStageState

; 789  : }

  0006b	c9		 leave
  0006c	c3		 ret	 0
?SetColorOperation@CScreen@@QAEXXZ ENDP			; CScreen::SetColorOperation
_TEXT	ENDS
; Function compile flags: /Odspy
; File D:\Metin2 Server Files\mainline\SRC_2014\Metin2Client\EterLib\GrpScreen.cpp
;	COMDAT ?RenderCylinder@CScreen@@QAEXPBUD3DXMATRIX@@MMMMMW4_D3DFILLMODE@@@Z
_TEXT	SEGMENT
_this$ = -4						; size = 4
_c_pmatWorld$ = 8					; size = 4
_fx$ = 12						; size = 4
_fy$ = 16						; size = 4
_fz$ = 20						; size = 4
_fRadius$ = 24						; size = 4
___formal$ = 28						; size = 4
_d3dFillMode$ = 32					; size = 4
?RenderCylinder@CScreen@@QAEXPBUD3DXMATRIX@@MMMMMW4_D3DFILLMODE@@@Z PROC ; CScreen::RenderCylinder, COMDAT
; _this$ = ecx

; 375  : {

  00000	55		 push	 ebp
  00001	8b ec		 mov	 ebp, esp
  00003	51		 push	 ecx
  00004	89 4d fc	 mov	 DWORD PTR _this$[ebp], ecx

; 376  : 	RenderD3DXMesh(ms_lpCylinderMesh, c_pmatWorld, fx, fy, fz, fRadius, d3dFillMode);

  00007	ff 75 20	 push	 DWORD PTR _d3dFillMode$[ebp]
  0000a	51		 push	 ecx
  0000b	f3 0f 10 45 18	 movss	 xmm0, DWORD PTR _fRadius$[ebp]
  00010	f3 0f 11 04 24	 movss	 DWORD PTR [esp], xmm0
  00015	51		 push	 ecx
  00016	f3 0f 10 45 14	 movss	 xmm0, DWORD PTR _fz$[ebp]
  0001b	f3 0f 11 04 24	 movss	 DWORD PTR [esp], xmm0
  00020	51		 push	 ecx
  00021	f3 0f 10 45 10	 movss	 xmm0, DWORD PTR _fy$[ebp]
  00026	f3 0f 11 04 24	 movss	 DWORD PTR [esp], xmm0
  0002b	51		 push	 ecx
  0002c	f3 0f 10 45 0c	 movss	 xmm0, DWORD PTR _fx$[ebp]
  00031	f3 0f 11 04 24	 movss	 DWORD PTR [esp], xmm0
  00036	ff 75 08	 push	 DWORD PTR _c_pmatWorld$[ebp]
  00039	ff 35 00 00 00
	00		 push	 DWORD PTR ?ms_lpCylinderMesh@CGraphicBase@@1PAUID3DXMesh@@A ; CGraphicBase::ms_lpCylinderMesh
  0003f	8b 4d fc	 mov	 ecx, DWORD PTR _this$[ebp]
  00042	e8 00 00 00 00	 call	 ?RenderD3DXMesh@CScreen@@QAEXPAUID3DXMesh@@PBUD3DXMATRIX@@MMMMW4_D3DFILLMODE@@@Z ; CScreen::RenderD3DXMesh

; 377  : }

  00047	c9		 leave
  00048	c2 1c 00	 ret	 28			; 0000001cH
?RenderCylinder@CScreen@@QAEXPBUD3DXMATRIX@@MMMMMW4_D3DFILLMODE@@@Z ENDP ; CScreen::RenderCylinder
_TEXT	ENDS
; Function compile flags: /Odspy
; File D:\Metin2 Server Files\mainline\SRC_2014\Metin2Client\EterLib\GrpScreen.cpp
;	COMDAT ?RenderSphere@CScreen@@QAEXPBUD3DXMATRIX@@MMMMW4_D3DFILLMODE@@@Z
_TEXT	SEGMENT
_this$ = -4						; size = 4
_c_pmatWorld$ = 8					; size = 4
_fx$ = 12						; size = 4
_fy$ = 16						; size = 4
_fz$ = 20						; size = 4
_fRadius$ = 24						; size = 4
_d3dFillMode$ = 28					; size = 4
?RenderSphere@CScreen@@QAEXPBUD3DXMATRIX@@MMMMW4_D3DFILLMODE@@@Z PROC ; CScreen::RenderSphere, COMDAT
; _this$ = ecx

; 370  : {

  00000	55		 push	 ebp
  00001	8b ec		 mov	 ebp, esp
  00003	51		 push	 ecx
  00004	89 4d fc	 mov	 DWORD PTR _this$[ebp], ecx

; 371  : 	RenderD3DXMesh(ms_lpSphereMesh, c_pmatWorld, fx, fy, fz, fRadius, d3dFillMode);

  00007	ff 75 1c	 push	 DWORD PTR _d3dFillMode$[ebp]
  0000a	51		 push	 ecx
  0000b	f3 0f 10 45 18	 movss	 xmm0, DWORD PTR _fRadius$[ebp]
  00010	f3 0f 11 04 24	 movss	 DWORD PTR [esp], xmm0
  00015	51		 push	 ecx
  00016	f3 0f 10 45 14	 movss	 xmm0, DWORD PTR _fz$[ebp]
  0001b	f3 0f 11 04 24	 movss	 DWORD PTR [esp], xmm0
  00020	51		 push	 ecx
  00021	f3 0f 10 45 10	 movss	 xmm0, DWORD PTR _fy$[ebp]
  00026	f3 0f 11 04 24	 movss	 DWORD PTR [esp], xmm0
  0002b	51		 push	 ecx
  0002c	f3 0f 10 45 0c	 movss	 xmm0, DWORD PTR _fx$[ebp]
  00031	f3 0f 11 04 24	 movss	 DWORD PTR [esp], xmm0
  00036	ff 75 08	 push	 DWORD PTR _c_pmatWorld$[ebp]
  00039	ff 35 00 00 00
	00		 push	 DWORD PTR ?ms_lpSphereMesh@CGraphicBase@@1PAUID3DXMesh@@A ; CGraphicBase::ms_lpSphereMesh
  0003f	8b 4d fc	 mov	 ecx, DWORD PTR _this$[ebp]
  00042	e8 00 00 00 00	 call	 ?RenderD3DXMesh@CScreen@@QAEXPAUID3DXMesh@@PBUD3DXMATRIX@@MMMMW4_D3DFILLMODE@@@Z ; CScreen::RenderD3DXMesh

; 372  : }

  00047	c9		 leave
  00048	c2 18 00	 ret	 24			; 00000018H
?RenderSphere@CScreen@@QAEXPBUD3DXMATRIX@@MMMMW4_D3DFILLMODE@@@Z ENDP ; CScreen::RenderSphere
_TEXT	ENDS
; Function compile flags: /Odspy
; File D:\Metin2 Server Files\mainline\SRC_2014\Metin2Client\EterLib\GrpScreen.cpp
; File D:\Metin2 Server Files\mainline\SRC_2014\M2Data\include\d3dx8math.inl
; File D:\Metin2 Server Files\mainline\SRC_2014\Metin2Client\EterLib\GrpScreen.cpp
; File D:\Metin2 Server Files\mainline\SRC_2014\M2Data\include\d3dx8math.inl
; File D:\Metin2 Server Files\mainline\SRC_2014\Metin2Client\EterLib\GrpScreen.cpp
; File D:\Metin2 Server Files\mainline\SRC_2014\Metin2Client\eterBase\Singleton.h
; File D:\Metin2 Server Files\mainline\SRC_2014\Metin2Client\EterLib\GrpScreen.cpp
; File D:\Metin2 Server Files\mainline\SRC_2014\Metin2Client\eterBase\Singleton.h
; File D:\Metin2 Server Files\mainline\SRC_2014\Metin2Client\EterLib\GrpScreen.cpp
;	COMDAT ?RenderD3DXMesh@CScreen@@QAEXPAUID3DXMesh@@PBUD3DXMATRIX@@MMMMW4_D3DFILLMODE@@@Z
_TEXT	SEGMENT
_SetRenderingOption$ = -364				; size = 8
_this$ = -356						; size = 4
$T2 = -352						; size = 4
_lpVertexBuffer$ = -348					; size = 4
_lpIndexBuffer$ = -344					; size = 4
$T3 = -340						; size = 4
$T4 = -336						; size = 64
_matT$5 = -272						; size = 64
_matScaling$ = -208					; size = 64
_matTranslation$ = -144					; size = 64
_matWorld$ = -80					; size = 64
__$ArrayPad$ = -16					; size = 4
__$EHRec$ = -12						; size = 12
_lpMesh$ = 8						; size = 4
_c_pmatWorld$ = 12					; size = 4
_fx$ = 16						; size = 4
_fy$ = 20						; size = 4
_fz$ = 24						; size = 4
_fRadius$ = 28						; size = 4
_d3dFillMode$ = 32					; size = 4
?RenderD3DXMesh@CScreen@@QAEXPAUID3DXMesh@@PBUD3DXMATRIX@@MMMMW4_D3DFILLMODE@@@Z PROC ; CScreen::RenderD3DXMesh, COMDAT
; _this$ = ecx

; 343  : {

  00000	55		 push	 ebp
  00001	8b ec		 mov	 ebp, esp
  00003	6a ff		 push	 -1
  00005	68 00 00 00 00	 push	 __ehhandler$?RenderD3DXMesh@CScreen@@QAEXPAUID3DXMesh@@PBUD3DXMATRIX@@MMMMW4_D3DFILLMODE@@@Z
  0000a	64 a1 00 00 00
	00		 mov	 eax, DWORD PTR fs:0
  00010	50		 push	 eax
  00011	81 ec 60 01 00
	00		 sub	 esp, 352		; 00000160H
  00017	a1 00 00 00 00	 mov	 eax, DWORD PTR ___security_cookie
  0001c	33 c5		 xor	 eax, ebp
  0001e	89 45 f0	 mov	 DWORD PTR __$ArrayPad$[ebp], eax
  00021	56		 push	 esi
  00022	57		 push	 edi
  00023	50		 push	 eax
  00024	8d 45 f4	 lea	 eax, DWORD PTR __$EHRec$[ebp]
  00027	64 a3 00 00 00
	00		 mov	 DWORD PTR fs:0, eax
  0002d	89 8d 9c fe ff
	ff		 mov	 DWORD PTR _this$[ebp], ecx

; 344  : 	D3DXMATRIX matTranslation;
; 345  : 	D3DXMATRIX matScaling;
; 346  : 
; 347  : 	D3DXMatrixTranslation(&matTranslation, fx, fy, fz);

  00033	51		 push	 ecx
  00034	f3 0f 10 45 18	 movss	 xmm0, DWORD PTR _fz$[ebp]
  00039	f3 0f 11 04 24	 movss	 DWORD PTR [esp], xmm0
  0003e	51		 push	 ecx
  0003f	f3 0f 10 45 14	 movss	 xmm0, DWORD PTR _fy$[ebp]
  00044	f3 0f 11 04 24	 movss	 DWORD PTR [esp], xmm0
  00049	51		 push	 ecx
  0004a	f3 0f 10 45 10	 movss	 xmm0, DWORD PTR _fx$[ebp]
  0004f	f3 0f 11 04 24	 movss	 DWORD PTR [esp], xmm0
  00054	8d 85 70 ff ff
	ff		 lea	 eax, DWORD PTR _matTranslation$[ebp]
  0005a	50		 push	 eax
  0005b	e8 00 00 00 00	 call	 _D3DXMatrixTranslation@16

; 348  : 	D3DXMatrixScaling(&matScaling, fRadius, fRadius, fRadius);

  00060	51		 push	 ecx
  00061	f3 0f 10 45 1c	 movss	 xmm0, DWORD PTR _fRadius$[ebp]
  00066	f3 0f 11 04 24	 movss	 DWORD PTR [esp], xmm0
  0006b	51		 push	 ecx
  0006c	f3 0f 10 45 1c	 movss	 xmm0, DWORD PTR _fRadius$[ebp]
  00071	f3 0f 11 04 24	 movss	 DWORD PTR [esp], xmm0
  00076	51		 push	 ecx
  00077	f3 0f 10 45 1c	 movss	 xmm0, DWORD PTR _fRadius$[ebp]
  0007c	f3 0f 11 04 24	 movss	 DWORD PTR [esp], xmm0
  00081	8d 85 30 ff ff
	ff		 lea	 eax, DWORD PTR _matScaling$[ebp]
  00087	50		 push	 eax
  00088	e8 00 00 00 00	 call	 _D3DXMatrixScaling@16
; File D:\Metin2 Server Files\mainline\SRC_2014\M2Data\include\d3dx8math.inl

; 580  :     D3DXMatrixMultiply(&matT, this, &mat);

  0008d	8d 85 70 ff ff
	ff		 lea	 eax, DWORD PTR _matTranslation$[ebp]
  00093	50		 push	 eax
  00094	8d 85 30 ff ff
	ff		 lea	 eax, DWORD PTR _matScaling$[ebp]
  0009a	50		 push	 eax
  0009b	8d 85 f0 fe ff
	ff		 lea	 eax, DWORD PTR _matT$5[ebp]
  000a1	50		 push	 eax
  000a2	e8 00 00 00 00	 call	 _D3DXMatrixMultiply@12

; 581  :     return matT;

  000a7	6a 10		 push	 16			; 00000010H
  000a9	59		 pop	 ecx
  000aa	8d b5 f0 fe ff
	ff		 lea	 esi, DWORD PTR _matT$5[ebp]
  000b0	8d bd b0 fe ff
	ff		 lea	 edi, DWORD PTR $T4[ebp]
  000b6	f3 a5		 rep movsd
; File D:\Metin2 Server Files\mainline\SRC_2014\Metin2Client\EterLib\GrpScreen.cpp

; 351  : 	matWorld = matScaling * matTranslation;

  000b8	6a 10		 push	 16			; 00000010H
  000ba	59		 pop	 ecx
  000bb	8d b5 b0 fe ff
	ff		 lea	 esi, DWORD PTR $T4[ebp]
  000c1	8d 7d b0	 lea	 edi, DWORD PTR _matWorld$[ebp]
  000c4	f3 a5		 rep movsd

; 352  : 
; 353  : 	if (c_pmatWorld)

  000c6	83 7d 0c 00	 cmp	 DWORD PTR _c_pmatWorld$[ebp], 0
  000ca	74 10		 je	 SHORT $LN15@RenderD3DX
; File D:\Metin2 Server Files\mainline\SRC_2014\M2Data\include\d3dx8math.inl

; 512  :     D3DXMatrixMultiply(this, this, &mat);

  000cc	ff 75 0c	 push	 DWORD PTR _c_pmatWorld$[ebp]
  000cf	8d 45 b0	 lea	 eax, DWORD PTR _matWorld$[ebp]
  000d2	50		 push	 eax
  000d3	8d 45 b0	 lea	 eax, DWORD PTR _matWorld$[ebp]
  000d6	50		 push	 eax
  000d7	e8 00 00 00 00	 call	 _D3DXMatrixMultiply@12
$LN15@RenderD3DX:
; File D:\Metin2 Server Files\mainline\SRC_2014\Metin2Client\EterLib\GrpScreen.cpp

; 358  : 	CD3DXMeshRenderingOption SetRenderingOption(d3dFillMode, matWorld);

  000dc	8d 45 b0	 lea	 eax, DWORD PTR _matWorld$[ebp]
  000df	50		 push	 eax
  000e0	ff 75 20	 push	 DWORD PTR _d3dFillMode$[ebp]
  000e3	8d 8d 94 fe ff
	ff		 lea	 ecx, DWORD PTR _SetRenderingOption$[ebp]
  000e9	e8 00 00 00 00	 call	 ??0CD3DXMeshRenderingOption@@QAE@W4_D3DFILLMODE@@ABUD3DXMATRIX@@@Z ; CD3DXMeshRenderingOption::CD3DXMeshRenderingOption
  000ee	83 65 fc 00	 and	 DWORD PTR __$EHRec$[ebp+8], 0

; 359  : 	LPDIRECT3DINDEXBUFFER8 lpIndexBuffer;
; 360  : 	LPDIRECT3DVERTEXBUFFER8 lpVertexBuffer;
; 361  : 	lpMesh->GetIndexBuffer(&lpIndexBuffer);

  000f2	8d 85 a8 fe ff
	ff		 lea	 eax, DWORD PTR _lpIndexBuffer$[ebp]
  000f8	50		 push	 eax
  000f9	8b 45 08	 mov	 eax, DWORD PTR _lpMesh$[ebp]
  000fc	8b 00		 mov	 eax, DWORD PTR [eax]
  000fe	ff 75 08	 push	 DWORD PTR _lpMesh$[ebp]
  00101	ff 50 34	 call	 DWORD PTR [eax+52]

; 362  : 	lpMesh->GetVertexBuffer(&lpVertexBuffer);

  00104	8d 85 a4 fe ff
	ff		 lea	 eax, DWORD PTR _lpVertexBuffer$[ebp]
  0010a	50		 push	 eax
  0010b	8b 45 08	 mov	 eax, DWORD PTR _lpMesh$[ebp]
  0010e	8b 00		 mov	 eax, DWORD PTR [eax]
  00110	ff 75 08	 push	 DWORD PTR _lpMesh$[ebp]
  00113	ff 50 30	 call	 DWORD PTR [eax+48]
; File D:\Metin2 Server Files\mainline\SRC_2014\Metin2Client\eterBase\Singleton.h

; 27   : 		return (*ms_singleton);

  00116	a1 00 00 00 00	 mov	 eax, DWORD PTR ?ms_singleton@?$CSingleton@VCStateManager@@@@0PAVCStateManager@@A ; CSingleton<CStateManager>::ms_singleton
  0011b	89 85 ac fe ff
	ff		 mov	 DWORD PTR $T3[ebp], eax
; File D:\Metin2 Server Files\mainline\SRC_2014\Metin2Client\EterLib\GrpScreen.cpp

; 363  : 	STATEMANAGER.SetVertexShader(lpMesh->GetFVF());

  00121	8b 45 08	 mov	 eax, DWORD PTR _lpMesh$[ebp]
  00124	8b 00		 mov	 eax, DWORD PTR [eax]
  00126	ff 75 08	 push	 DWORD PTR _lpMesh$[ebp]
  00129	ff 50 18	 call	 DWORD PTR [eax+24]
  0012c	50		 push	 eax
  0012d	8b 8d ac fe ff
	ff		 mov	 ecx, DWORD PTR $T3[ebp]
  00133	e8 00 00 00 00	 call	 ?SetVertexShader@CStateManager@@QAEXK@Z ; CStateManager::SetVertexShader

; 364  : 	STATEMANAGER.SetIndices(lpIndexBuffer, 0);

  00138	6a 00		 push	 0
  0013a	ff b5 a8 fe ff
	ff		 push	 DWORD PTR _lpIndexBuffer$[ebp]
  00140	8b 0d 00 00 00
	00		 mov	 ecx, DWORD PTR ?ms_singleton@?$CSingleton@VCStateManager@@@@0PAVCStateManager@@A ; CSingleton<CStateManager>::ms_singleton
  00146	e8 00 00 00 00	 call	 ?SetIndices@CStateManager@@QAEXPAUIDirect3DIndexBuffer8@@I@Z ; CStateManager::SetIndices

; 365  : 	STATEMANAGER.SetStreamSource(0, lpVertexBuffer, 24);

  0014b	6a 18		 push	 24			; 00000018H
  0014d	ff b5 a4 fe ff
	ff		 push	 DWORD PTR _lpVertexBuffer$[ebp]
  00153	6a 00		 push	 0
  00155	8b 0d 00 00 00
	00		 mov	 ecx, DWORD PTR ?ms_singleton@?$CSingleton@VCStateManager@@@@0PAVCStateManager@@A ; CSingleton<CStateManager>::ms_singleton
  0015b	e8 00 00 00 00	 call	 ?SetStreamSource@CStateManager@@QAEXIPAUIDirect3DVertexBuffer8@@I@Z ; CStateManager::SetStreamSource
; File D:\Metin2 Server Files\mainline\SRC_2014\Metin2Client\eterBase\Singleton.h

; 27   : 		return (*ms_singleton);

  00160	a1 00 00 00 00	 mov	 eax, DWORD PTR ?ms_singleton@?$CSingleton@VCStateManager@@@@0PAVCStateManager@@A ; CSingleton<CStateManager>::ms_singleton
  00165	89 85 a0 fe ff
	ff		 mov	 DWORD PTR $T2[ebp], eax
; File D:\Metin2 Server Files\mainline\SRC_2014\Metin2Client\EterLib\GrpScreen.cpp

; 366  : 	STATEMANAGER.DrawIndexedPrimitive(D3DPT_TRIANGLELIST, 0, lpMesh->GetNumVertices(), 0, lpMesh->GetNumFaces());

  0016b	8b 45 08	 mov	 eax, DWORD PTR _lpMesh$[ebp]
  0016e	8b 00		 mov	 eax, DWORD PTR [eax]
  00170	ff 75 08	 push	 DWORD PTR _lpMesh$[ebp]
  00173	ff 50 10	 call	 DWORD PTR [eax+16]
  00176	50		 push	 eax
  00177	6a 00		 push	 0
  00179	8b 45 08	 mov	 eax, DWORD PTR _lpMesh$[ebp]
  0017c	8b 00		 mov	 eax, DWORD PTR [eax]
  0017e	ff 75 08	 push	 DWORD PTR _lpMesh$[ebp]
  00181	ff 50 14	 call	 DWORD PTR [eax+20]
  00184	50		 push	 eax
  00185	6a 00		 push	 0
  00187	6a 04		 push	 4
  00189	8b 8d a0 fe ff
	ff		 mov	 ecx, DWORD PTR $T2[ebp]
  0018f	e8 00 00 00 00	 call	 ?DrawIndexedPrimitive@CStateManager@@QAEJW4_D3DPRIMITIVETYPE@@IIII@Z ; CStateManager::DrawIndexedPrimitive

; 367  : }

  00194	83 4d fc ff	 or	 DWORD PTR __$EHRec$[ebp+8], -1
  00198	8d 8d 94 fe ff
	ff		 lea	 ecx, DWORD PTR _SetRenderingOption$[ebp]
  0019e	e8 00 00 00 00	 call	 ??1CD3DXMeshRenderingOption@@UAE@XZ ; CD3DXMeshRenderingOption::~CD3DXMeshRenderingOption
  001a3	8b 4d f4	 mov	 ecx, DWORD PTR __$EHRec$[ebp]
  001a6	64 89 0d 00 00
	00 00		 mov	 DWORD PTR fs:0, ecx
  001ad	59		 pop	 ecx
  001ae	5f		 pop	 edi
  001af	5e		 pop	 esi
  001b0	8b 4d f0	 mov	 ecx, DWORD PTR __$ArrayPad$[ebp]
  001b3	33 cd		 xor	 ecx, ebp
  001b5	e8 00 00 00 00	 call	 @__security_check_cookie@4
  001ba	c9		 leave
  001bb	c2 1c 00	 ret	 28			; 0000001cH
_TEXT	ENDS
;	COMDAT text$x
text$x	SEGMENT
__unwindfunclet$?RenderD3DXMesh@CScreen@@QAEXPAUID3DXMesh@@PBUD3DXMATRIX@@MMMMW4_D3DFILLMODE@@@Z$0:
  00000	8d 8d 94 fe ff
	ff		 lea	 ecx, DWORD PTR _SetRenderingOption$[ebp]
  00006	e9 00 00 00 00	 jmp	 ??1CD3DXMeshRenderingOption@@UAE@XZ ; CD3DXMeshRenderingOption::~CD3DXMeshRenderingOption
  0000b	cc		 int	 3
  0000c	cc		 int	 3
  0000d	cc		 int	 3
  0000e	cc		 int	 3
  0000f	cc		 int	 3
__ehhandler$?RenderD3DXMesh@CScreen@@QAEXPAUID3DXMesh@@PBUD3DXMATRIX@@MMMMW4_D3DFILLMODE@@@Z:
  00010	90		 npad	 1
  00011	90		 npad	 1
  00012	8b 54 24 08	 mov	 edx, DWORD PTR [esp+8]
  00016	8d 42 0c	 lea	 eax, DWORD PTR [edx+12]
  00019	8b 8a 94 fe ff
	ff		 mov	 ecx, DWORD PTR [edx-364]
  0001f	33 c8		 xor	 ecx, eax
  00021	e8 00 00 00 00	 call	 @__security_check_cookie@4
  00026	8b 4a fc	 mov	 ecx, DWORD PTR [edx-4]
  00029	33 c8		 xor	 ecx, eax
  0002b	e8 00 00 00 00	 call	 @__security_check_cookie@4
  00030	b8 00 00 00 00	 mov	 eax, OFFSET __ehfuncinfo$?RenderD3DXMesh@CScreen@@QAEXPAUID3DXMesh@@PBUD3DXMATRIX@@MMMMW4_D3DFILLMODE@@@Z
  00035	e9 00 00 00 00	 jmp	 ___CxxFrameHandler3
text$x	ENDS
?RenderD3DXMesh@CScreen@@QAEXPAUID3DXMesh@@PBUD3DXMATRIX@@MMMMW4_D3DFILLMODE@@@Z ENDP ; CScreen::RenderD3DXMesh
; Function compile flags: /Odspy
; File D:\Metin2 Server Files\mainline\SRC_2014\Metin2Client\EterLib\GrpScreen.cpp
;	COMDAT ?DrawGrid@CScreen@@QAEXMMMMMMMMM@Z
_TEXT	SEGMENT
_this$ = -12						; size = 4
_x$ = -8						; size = 4
_y$ = -4						; size = 4
_xMin$ = 8						; size = 4
_yMin$ = 12						; size = 4
_xMax$ = 16						; size = 4
_yMax$ = 20						; size = 4
_xmajorStep$ = 24					; size = 4
_ymajorStep$ = 28					; size = 4
_xminorStep$ = 32					; size = 4
_yminorStep$ = 36					; size = 4
_zPos$ = 40						; size = 4
?DrawGrid@CScreen@@QAEXMMMMMMMMM@Z PROC			; CScreen::DrawGrid, COMDAT
; _this$ = ecx

; 456  : {

  00000	55		 push	 ebp
  00001	8b ec		 mov	 ebp, esp
  00003	83 ec 0c	 sub	 esp, 12			; 0000000cH
  00006	89 4d f4	 mov	 DWORD PTR _this$[ebp], ecx

; 457  : 	xMin*=xminorStep;

  00009	f3 0f 10 45 08	 movss	 xmm0, DWORD PTR _xMin$[ebp]
  0000e	f3 0f 59 45 20	 mulss	 xmm0, DWORD PTR _xminorStep$[ebp]
  00013	f3 0f 11 45 08	 movss	 DWORD PTR _xMin$[ebp], xmm0

; 458  : 	xMax*=xminorStep;

  00018	f3 0f 10 45 10	 movss	 xmm0, DWORD PTR _xMax$[ebp]
  0001d	f3 0f 59 45 20	 mulss	 xmm0, DWORD PTR _xminorStep$[ebp]
  00022	f3 0f 11 45 10	 movss	 DWORD PTR _xMax$[ebp], xmm0

; 459  : 	yMin*=yminorStep;

  00027	f3 0f 10 45 0c	 movss	 xmm0, DWORD PTR _yMin$[ebp]
  0002c	f3 0f 59 45 24	 mulss	 xmm0, DWORD PTR _yminorStep$[ebp]
  00031	f3 0f 11 45 0c	 movss	 DWORD PTR _yMin$[ebp], xmm0

; 460  : 	yMax*=yminorStep;

  00036	f3 0f 10 45 14	 movss	 xmm0, DWORD PTR _yMax$[ebp]
  0003b	f3 0f 59 45 24	 mulss	 xmm0, DWORD PTR _yminorStep$[ebp]
  00040	f3 0f 11 45 14	 movss	 DWORD PTR _yMax$[ebp], xmm0

; 461  : 	xmajorStep*=xminorStep;

  00045	f3 0f 10 45 18	 movss	 xmm0, DWORD PTR _xmajorStep$[ebp]
  0004a	f3 0f 59 45 20	 mulss	 xmm0, DWORD PTR _xminorStep$[ebp]
  0004f	f3 0f 11 45 18	 movss	 DWORD PTR _xmajorStep$[ebp], xmm0

; 462  : 	ymajorStep*=yminorStep;

  00054	f3 0f 10 45 1c	 movss	 xmm0, DWORD PTR _ymajorStep$[ebp]
  00059	f3 0f 59 45 24	 mulss	 xmm0, DWORD PTR _yminorStep$[ebp]
  0005e	f3 0f 11 45 1c	 movss	 DWORD PTR _ymajorStep$[ebp], xmm0

; 463  : 	
; 464  : 	float x, y;
; 465  : 	
; 466  : 	SetDiffuseColor(0.5f, 0.5f, 0.5f);

  00063	51		 push	 ecx
  00064	f3 0f 10 05 00
	00 00 00	 movss	 xmm0, DWORD PTR __real@3f800000
  0006c	f3 0f 11 04 24	 movss	 DWORD PTR [esp], xmm0
  00071	51		 push	 ecx
  00072	f3 0f 10 05 00
	00 00 00	 movss	 xmm0, DWORD PTR __real@3f000000
  0007a	f3 0f 11 04 24	 movss	 DWORD PTR [esp], xmm0
  0007f	51		 push	 ecx
  00080	f3 0f 10 05 00
	00 00 00	 movss	 xmm0, DWORD PTR __real@3f000000
  00088	f3 0f 11 04 24	 movss	 DWORD PTR [esp], xmm0
  0008d	51		 push	 ecx
  0008e	f3 0f 10 05 00
	00 00 00	 movss	 xmm0, DWORD PTR __real@3f000000
  00096	f3 0f 11 04 24	 movss	 DWORD PTR [esp], xmm0
  0009b	8b 4d f4	 mov	 ecx, DWORD PTR _this$[ebp]
  0009e	e8 00 00 00 00	 call	 ?SetDiffuseColor@CScreen@@QAEXMMMM@Z ; CScreen::SetDiffuseColor

; 467  : 	DrawMinorGrid(xMin, yMin, xMax, yMax, xminorStep, yminorStep, zPos);

  000a3	51		 push	 ecx
  000a4	f3 0f 10 45 28	 movss	 xmm0, DWORD PTR _zPos$[ebp]
  000a9	f3 0f 11 04 24	 movss	 DWORD PTR [esp], xmm0
  000ae	51		 push	 ecx
  000af	f3 0f 10 45 24	 movss	 xmm0, DWORD PTR _yminorStep$[ebp]
  000b4	f3 0f 11 04 24	 movss	 DWORD PTR [esp], xmm0
  000b9	51		 push	 ecx
  000ba	f3 0f 10 45 20	 movss	 xmm0, DWORD PTR _xminorStep$[ebp]
  000bf	f3 0f 11 04 24	 movss	 DWORD PTR [esp], xmm0
  000c4	51		 push	 ecx
  000c5	f3 0f 10 45 14	 movss	 xmm0, DWORD PTR _yMax$[ebp]
  000ca	f3 0f 11 04 24	 movss	 DWORD PTR [esp], xmm0
  000cf	51		 push	 ecx
  000d0	f3 0f 10 45 10	 movss	 xmm0, DWORD PTR _xMax$[ebp]
  000d5	f3 0f 11 04 24	 movss	 DWORD PTR [esp], xmm0
  000da	51		 push	 ecx
  000db	f3 0f 10 45 0c	 movss	 xmm0, DWORD PTR _yMin$[ebp]
  000e0	f3 0f 11 04 24	 movss	 DWORD PTR [esp], xmm0
  000e5	51		 push	 ecx
  000e6	f3 0f 10 45 08	 movss	 xmm0, DWORD PTR _xMin$[ebp]
  000eb	f3 0f 11 04 24	 movss	 DWORD PTR [esp], xmm0
  000f0	8b 4d f4	 mov	 ecx, DWORD PTR _this$[ebp]
  000f3	e8 00 00 00 00	 call	 ?DrawMinorGrid@CScreen@@QAEXMMMMMMM@Z ; CScreen::DrawMinorGrid

; 468  : 	
; 469  : 	SetDiffuseColor(0.7f, 0.7f, 0.7f);

  000f8	51		 push	 ecx
  000f9	f3 0f 10 05 00
	00 00 00	 movss	 xmm0, DWORD PTR __real@3f800000
  00101	f3 0f 11 04 24	 movss	 DWORD PTR [esp], xmm0
  00106	51		 push	 ecx
  00107	f3 0f 10 05 00
	00 00 00	 movss	 xmm0, DWORD PTR __real@3f333333
  0010f	f3 0f 11 04 24	 movss	 DWORD PTR [esp], xmm0
  00114	51		 push	 ecx
  00115	f3 0f 10 05 00
	00 00 00	 movss	 xmm0, DWORD PTR __real@3f333333
  0011d	f3 0f 11 04 24	 movss	 DWORD PTR [esp], xmm0
  00122	51		 push	 ecx
  00123	f3 0f 10 05 00
	00 00 00	 movss	 xmm0, DWORD PTR __real@3f333333
  0012b	f3 0f 11 04 24	 movss	 DWORD PTR [esp], xmm0
  00130	8b 4d f4	 mov	 ecx, DWORD PTR _this$[ebp]
  00133	e8 00 00 00 00	 call	 ?SetDiffuseColor@CScreen@@QAEXMMMM@Z ; CScreen::SetDiffuseColor

; 470  : 	for (y = 0.0f; y >= yMin; y -= ymajorStep)

  00138	0f 57 c0	 xorps	 xmm0, xmm0
  0013b	f3 0f 11 45 fc	 movss	 DWORD PTR _y$[ebp], xmm0
  00140	eb 0f		 jmp	 SHORT $LN4@DrawGrid
$LN2@DrawGrid:
  00142	f3 0f 10 45 fc	 movss	 xmm0, DWORD PTR _y$[ebp]
  00147	f3 0f 5c 45 1c	 subss	 xmm0, DWORD PTR _ymajorStep$[ebp]
  0014c	f3 0f 11 45 fc	 movss	 DWORD PTR _y$[ebp], xmm0
$LN4@DrawGrid:
  00151	f3 0f 10 45 fc	 movss	 xmm0, DWORD PTR _y$[ebp]
  00156	0f 2f 45 0c	 comiss	 xmm0, DWORD PTR _yMin$[ebp]
  0015a	72 41		 jb	 SHORT $LN3@DrawGrid

; 471  : 		RenderLine2d(xMin, y, xMax, y, zPos);

  0015c	51		 push	 ecx
  0015d	f3 0f 10 45 28	 movss	 xmm0, DWORD PTR _zPos$[ebp]
  00162	f3 0f 11 04 24	 movss	 DWORD PTR [esp], xmm0
  00167	51		 push	 ecx
  00168	f3 0f 10 45 fc	 movss	 xmm0, DWORD PTR _y$[ebp]
  0016d	f3 0f 11 04 24	 movss	 DWORD PTR [esp], xmm0
  00172	51		 push	 ecx
  00173	f3 0f 10 45 10	 movss	 xmm0, DWORD PTR _xMax$[ebp]
  00178	f3 0f 11 04 24	 movss	 DWORD PTR [esp], xmm0
  0017d	51		 push	 ecx
  0017e	f3 0f 10 45 fc	 movss	 xmm0, DWORD PTR _y$[ebp]
  00183	f3 0f 11 04 24	 movss	 DWORD PTR [esp], xmm0
  00188	51		 push	 ecx
  00189	f3 0f 10 45 08	 movss	 xmm0, DWORD PTR _xMin$[ebp]
  0018e	f3 0f 11 04 24	 movss	 DWORD PTR [esp], xmm0
  00193	8b 4d f4	 mov	 ecx, DWORD PTR _this$[ebp]
  00196	e8 00 00 00 00	 call	 ?RenderLine2d@CScreen@@QAEXMMMMM@Z ; CScreen::RenderLine2d
  0019b	eb a5		 jmp	 SHORT $LN2@DrawGrid
$LN3@DrawGrid:

; 472  : 	
; 473  : 	for (y = 0.0f; y <= yMax; y += ymajorStep)

  0019d	0f 57 c0	 xorps	 xmm0, xmm0
  001a0	f3 0f 11 45 fc	 movss	 DWORD PTR _y$[ebp], xmm0
  001a5	eb 0f		 jmp	 SHORT $LN7@DrawGrid
$LN5@DrawGrid:
  001a7	f3 0f 10 45 fc	 movss	 xmm0, DWORD PTR _y$[ebp]
  001ac	f3 0f 58 45 1c	 addss	 xmm0, DWORD PTR _ymajorStep$[ebp]
  001b1	f3 0f 11 45 fc	 movss	 DWORD PTR _y$[ebp], xmm0
$LN7@DrawGrid:
  001b6	f3 0f 10 45 14	 movss	 xmm0, DWORD PTR _yMax$[ebp]
  001bb	0f 2f 45 fc	 comiss	 xmm0, DWORD PTR _y$[ebp]
  001bf	72 41		 jb	 SHORT $LN6@DrawGrid

; 474  : 		RenderLine2d(xMin, y, xMax, y, zPos);

  001c1	51		 push	 ecx
  001c2	f3 0f 10 45 28	 movss	 xmm0, DWORD PTR _zPos$[ebp]
  001c7	f3 0f 11 04 24	 movss	 DWORD PTR [esp], xmm0
  001cc	51		 push	 ecx
  001cd	f3 0f 10 45 fc	 movss	 xmm0, DWORD PTR _y$[ebp]
  001d2	f3 0f 11 04 24	 movss	 DWORD PTR [esp], xmm0
  001d7	51		 push	 ecx
  001d8	f3 0f 10 45 10	 movss	 xmm0, DWORD PTR _xMax$[ebp]
  001dd	f3 0f 11 04 24	 movss	 DWORD PTR [esp], xmm0
  001e2	51		 push	 ecx
  001e3	f3 0f 10 45 fc	 movss	 xmm0, DWORD PTR _y$[ebp]
  001e8	f3 0f 11 04 24	 movss	 DWORD PTR [esp], xmm0
  001ed	51		 push	 ecx
  001ee	f3 0f 10 45 08	 movss	 xmm0, DWORD PTR _xMin$[ebp]
  001f3	f3 0f 11 04 24	 movss	 DWORD PTR [esp], xmm0
  001f8	8b 4d f4	 mov	 ecx, DWORD PTR _this$[ebp]
  001fb	e8 00 00 00 00	 call	 ?RenderLine2d@CScreen@@QAEXMMMMM@Z ; CScreen::RenderLine2d
  00200	eb a5		 jmp	 SHORT $LN5@DrawGrid
$LN6@DrawGrid:

; 475  : 	
; 476  : 	for (x = 0.0f; x >= xMin; x -= xmajorStep)

  00202	0f 57 c0	 xorps	 xmm0, xmm0
  00205	f3 0f 11 45 f8	 movss	 DWORD PTR _x$[ebp], xmm0
  0020a	eb 0f		 jmp	 SHORT $LN10@DrawGrid
$LN8@DrawGrid:
  0020c	f3 0f 10 45 f8	 movss	 xmm0, DWORD PTR _x$[ebp]
  00211	f3 0f 5c 45 18	 subss	 xmm0, DWORD PTR _xmajorStep$[ebp]
  00216	f3 0f 11 45 f8	 movss	 DWORD PTR _x$[ebp], xmm0
$LN10@DrawGrid:
  0021b	f3 0f 10 45 f8	 movss	 xmm0, DWORD PTR _x$[ebp]
  00220	0f 2f 45 08	 comiss	 xmm0, DWORD PTR _xMin$[ebp]
  00224	72 41		 jb	 SHORT $LN9@DrawGrid

; 477  : 		RenderLine2d(x, yMin, x, yMax, zPos);

  00226	51		 push	 ecx
  00227	f3 0f 10 45 28	 movss	 xmm0, DWORD PTR _zPos$[ebp]
  0022c	f3 0f 11 04 24	 movss	 DWORD PTR [esp], xmm0
  00231	51		 push	 ecx
  00232	f3 0f 10 45 14	 movss	 xmm0, DWORD PTR _yMax$[ebp]
  00237	f3 0f 11 04 24	 movss	 DWORD PTR [esp], xmm0
  0023c	51		 push	 ecx
  0023d	f3 0f 10 45 f8	 movss	 xmm0, DWORD PTR _x$[ebp]
  00242	f3 0f 11 04 24	 movss	 DWORD PTR [esp], xmm0
  00247	51		 push	 ecx
  00248	f3 0f 10 45 0c	 movss	 xmm0, DWORD PTR _yMin$[ebp]
  0024d	f3 0f 11 04 24	 movss	 DWORD PTR [esp], xmm0
  00252	51		 push	 ecx
  00253	f3 0f 10 45 f8	 movss	 xmm0, DWORD PTR _x$[ebp]
  00258	f3 0f 11 04 24	 movss	 DWORD PTR [esp], xmm0
  0025d	8b 4d f4	 mov	 ecx, DWORD PTR _this$[ebp]
  00260	e8 00 00 00 00	 call	 ?RenderLine2d@CScreen@@QAEXMMMMM@Z ; CScreen::RenderLine2d
  00265	eb a5		 jmp	 SHORT $LN8@DrawGrid
$LN9@DrawGrid:

; 478  : 	
; 479  : 	for (x = 0.0f; x <= yMax; x += xmajorStep)

  00267	0f 57 c0	 xorps	 xmm0, xmm0
  0026a	f3 0f 11 45 f8	 movss	 DWORD PTR _x$[ebp], xmm0
  0026f	eb 0f		 jmp	 SHORT $LN13@DrawGrid
$LN11@DrawGrid:
  00271	f3 0f 10 45 f8	 movss	 xmm0, DWORD PTR _x$[ebp]
  00276	f3 0f 58 45 18	 addss	 xmm0, DWORD PTR _xmajorStep$[ebp]
  0027b	f3 0f 11 45 f8	 movss	 DWORD PTR _x$[ebp], xmm0
$LN13@DrawGrid:
  00280	f3 0f 10 45 14	 movss	 xmm0, DWORD PTR _yMax$[ebp]
  00285	0f 2f 45 f8	 comiss	 xmm0, DWORD PTR _x$[ebp]
  00289	72 41		 jb	 SHORT $LN12@DrawGrid

; 480  : 		RenderLine2d(x, yMin, x, yMax, zPos);

  0028b	51		 push	 ecx
  0028c	f3 0f 10 45 28	 movss	 xmm0, DWORD PTR _zPos$[ebp]
  00291	f3 0f 11 04 24	 movss	 DWORD PTR [esp], xmm0
  00296	51		 push	 ecx
  00297	f3 0f 10 45 14	 movss	 xmm0, DWORD PTR _yMax$[ebp]
  0029c	f3 0f 11 04 24	 movss	 DWORD PTR [esp], xmm0
  002a1	51		 push	 ecx
  002a2	f3 0f 10 45 f8	 movss	 xmm0, DWORD PTR _x$[ebp]
  002a7	f3 0f 11 04 24	 movss	 DWORD PTR [esp], xmm0
  002ac	51		 push	 ecx
  002ad	f3 0f 10 45 0c	 movss	 xmm0, DWORD PTR _yMin$[ebp]
  002b2	f3 0f 11 04 24	 movss	 DWORD PTR [esp], xmm0
  002b7	51		 push	 ecx
  002b8	f3 0f 10 45 f8	 movss	 xmm0, DWORD PTR _x$[ebp]
  002bd	f3 0f 11 04 24	 movss	 DWORD PTR [esp], xmm0
  002c2	8b 4d f4	 mov	 ecx, DWORD PTR _this$[ebp]
  002c5	e8 00 00 00 00	 call	 ?RenderLine2d@CScreen@@QAEXMMMMM@Z ; CScreen::RenderLine2d
  002ca	eb a5		 jmp	 SHORT $LN11@DrawGrid
$LN12@DrawGrid:

; 481  : 
; 482  : 	SetDiffuseColor(1.0f, 1.0f, 1.0f);

  002cc	51		 push	 ecx
  002cd	f3 0f 10 05 00
	00 00 00	 movss	 xmm0, DWORD PTR __real@3f800000
  002d5	f3 0f 11 04 24	 movss	 DWORD PTR [esp], xmm0
  002da	51		 push	 ecx
  002db	f3 0f 10 05 00
	00 00 00	 movss	 xmm0, DWORD PTR __real@3f800000
  002e3	f3 0f 11 04 24	 movss	 DWORD PTR [esp], xmm0
  002e8	51		 push	 ecx
  002e9	f3 0f 10 05 00
	00 00 00	 movss	 xmm0, DWORD PTR __real@3f800000
  002f1	f3 0f 11 04 24	 movss	 DWORD PTR [esp], xmm0
  002f6	51		 push	 ecx
  002f7	f3 0f 10 05 00
	00 00 00	 movss	 xmm0, DWORD PTR __real@3f800000
  002ff	f3 0f 11 04 24	 movss	 DWORD PTR [esp], xmm0
  00304	8b 4d f4	 mov	 ecx, DWORD PTR _this$[ebp]
  00307	e8 00 00 00 00	 call	 ?SetDiffuseColor@CScreen@@QAEXMMMM@Z ; CScreen::SetDiffuseColor

; 483  : 	RenderLine2d(xMin, 0.0f, xMax, 0.0f, zPos);

  0030c	51		 push	 ecx
  0030d	f3 0f 10 45 28	 movss	 xmm0, DWORD PTR _zPos$[ebp]
  00312	f3 0f 11 04 24	 movss	 DWORD PTR [esp], xmm0
  00317	51		 push	 ecx
  00318	0f 57 c0	 xorps	 xmm0, xmm0
  0031b	f3 0f 11 04 24	 movss	 DWORD PTR [esp], xmm0
  00320	51		 push	 ecx
  00321	f3 0f 10 45 10	 movss	 xmm0, DWORD PTR _xMax$[ebp]
  00326	f3 0f 11 04 24	 movss	 DWORD PTR [esp], xmm0
  0032b	51		 push	 ecx
  0032c	0f 57 c0	 xorps	 xmm0, xmm0
  0032f	f3 0f 11 04 24	 movss	 DWORD PTR [esp], xmm0
  00334	51		 push	 ecx
  00335	f3 0f 10 45 08	 movss	 xmm0, DWORD PTR _xMin$[ebp]
  0033a	f3 0f 11 04 24	 movss	 DWORD PTR [esp], xmm0
  0033f	8b 4d f4	 mov	 ecx, DWORD PTR _this$[ebp]
  00342	e8 00 00 00 00	 call	 ?RenderLine2d@CScreen@@QAEXMMMMM@Z ; CScreen::RenderLine2d

; 484  : 	RenderLine2d(0.0f, yMin, 0.0f, yMax, zPos);

  00347	51		 push	 ecx
  00348	f3 0f 10 45 28	 movss	 xmm0, DWORD PTR _zPos$[ebp]
  0034d	f3 0f 11 04 24	 movss	 DWORD PTR [esp], xmm0
  00352	51		 push	 ecx
  00353	f3 0f 10 45 14	 movss	 xmm0, DWORD PTR _yMax$[ebp]
  00358	f3 0f 11 04 24	 movss	 DWORD PTR [esp], xmm0
  0035d	51		 push	 ecx
  0035e	0f 57 c0	 xorps	 xmm0, xmm0
  00361	f3 0f 11 04 24	 movss	 DWORD PTR [esp], xmm0
  00366	51		 push	 ecx
  00367	f3 0f 10 45 0c	 movss	 xmm0, DWORD PTR _yMin$[ebp]
  0036c	f3 0f 11 04 24	 movss	 DWORD PTR [esp], xmm0
  00371	51		 push	 ecx
  00372	0f 57 c0	 xorps	 xmm0, xmm0
  00375	f3 0f 11 04 24	 movss	 DWORD PTR [esp], xmm0
  0037a	8b 4d f4	 mov	 ecx, DWORD PTR _this$[ebp]
  0037d	e8 00 00 00 00	 call	 ?RenderLine2d@CScreen@@QAEXMMMMM@Z ; CScreen::RenderLine2d

; 485  : }

  00382	c9		 leave
  00383	c2 24 00	 ret	 36			; 00000024H
?DrawGrid@CScreen@@QAEXMMMMMMMMM@Z ENDP			; CScreen::DrawGrid
_TEXT	ENDS
; Function compile flags: /Odspy
; File D:\Metin2 Server Files\mainline\SRC_2014\Metin2Client\EterLib\GrpScreen.cpp
;	COMDAT ?DrawMinorGrid@CScreen@@QAEXMMMMMMM@Z
_TEXT	SEGMENT
_this$ = -12						; size = 4
_x$ = -8						; size = 4
_y$ = -4						; size = 4
_xMin$ = 8						; size = 4
_yMin$ = 12						; size = 4
_xMax$ = 16						; size = 4
_yMax$ = 20						; size = 4
_xminorStep$ = 24					; size = 4
_yminorStep$ = 28					; size = 4
_zPos$ = 32						; size = 4
?DrawMinorGrid@CScreen@@QAEXMMMMMMM@Z PROC		; CScreen::DrawMinorGrid, COMDAT
; _this$ = ecx

; 445  : {

  00000	55		 push	 ebp
  00001	8b ec		 mov	 ebp, esp
  00003	83 ec 0c	 sub	 esp, 12			; 0000000cH
  00006	89 4d f4	 mov	 DWORD PTR _this$[ebp], ecx

; 446  : 	float x, y;
; 447  : 	
; 448  : 	for (y = yMin; y <= yMax; y += yminorStep)

  00009	f3 0f 10 45 0c	 movss	 xmm0, DWORD PTR _yMin$[ebp]
  0000e	f3 0f 11 45 fc	 movss	 DWORD PTR _y$[ebp], xmm0
  00013	eb 0f		 jmp	 SHORT $LN4@DrawMinorG
$LN2@DrawMinorG:
  00015	f3 0f 10 45 fc	 movss	 xmm0, DWORD PTR _y$[ebp]
  0001a	f3 0f 58 45 1c	 addss	 xmm0, DWORD PTR _yminorStep$[ebp]
  0001f	f3 0f 11 45 fc	 movss	 DWORD PTR _y$[ebp], xmm0
$LN4@DrawMinorG:
  00024	f3 0f 10 45 14	 movss	 xmm0, DWORD PTR _yMax$[ebp]
  00029	0f 2f 45 fc	 comiss	 xmm0, DWORD PTR _y$[ebp]
  0002d	72 41		 jb	 SHORT $LN3@DrawMinorG

; 449  : 		RenderLine2d(xMin, y, xMax, y, zPos);

  0002f	51		 push	 ecx
  00030	f3 0f 10 45 20	 movss	 xmm0, DWORD PTR _zPos$[ebp]
  00035	f3 0f 11 04 24	 movss	 DWORD PTR [esp], xmm0
  0003a	51		 push	 ecx
  0003b	f3 0f 10 45 fc	 movss	 xmm0, DWORD PTR _y$[ebp]
  00040	f3 0f 11 04 24	 movss	 DWORD PTR [esp], xmm0
  00045	51		 push	 ecx
  00046	f3 0f 10 45 10	 movss	 xmm0, DWORD PTR _xMax$[ebp]
  0004b	f3 0f 11 04 24	 movss	 DWORD PTR [esp], xmm0
  00050	51		 push	 ecx
  00051	f3 0f 10 45 fc	 movss	 xmm0, DWORD PTR _y$[ebp]
  00056	f3 0f 11 04 24	 movss	 DWORD PTR [esp], xmm0
  0005b	51		 push	 ecx
  0005c	f3 0f 10 45 08	 movss	 xmm0, DWORD PTR _xMin$[ebp]
  00061	f3 0f 11 04 24	 movss	 DWORD PTR [esp], xmm0
  00066	8b 4d f4	 mov	 ecx, DWORD PTR _this$[ebp]
  00069	e8 00 00 00 00	 call	 ?RenderLine2d@CScreen@@QAEXMMMMM@Z ; CScreen::RenderLine2d
  0006e	eb a5		 jmp	 SHORT $LN2@DrawMinorG
$LN3@DrawMinorG:

; 450  : 
; 451  : 	for (x = xMin; x <= xMax; x += xminorStep)

  00070	f3 0f 10 45 08	 movss	 xmm0, DWORD PTR _xMin$[ebp]
  00075	f3 0f 11 45 f8	 movss	 DWORD PTR _x$[ebp], xmm0
  0007a	eb 0f		 jmp	 SHORT $LN7@DrawMinorG
$LN5@DrawMinorG:
  0007c	f3 0f 10 45 f8	 movss	 xmm0, DWORD PTR _x$[ebp]
  00081	f3 0f 58 45 18	 addss	 xmm0, DWORD PTR _xminorStep$[ebp]
  00086	f3 0f 11 45 f8	 movss	 DWORD PTR _x$[ebp], xmm0
$LN7@DrawMinorG:
  0008b	f3 0f 10 45 10	 movss	 xmm0, DWORD PTR _xMax$[ebp]
  00090	0f 2f 45 f8	 comiss	 xmm0, DWORD PTR _x$[ebp]
  00094	72 41		 jb	 SHORT $LN6@DrawMinorG

; 452  : 		RenderLine2d(x, yMin, x, yMax, zPos);

  00096	51		 push	 ecx
  00097	f3 0f 10 45 20	 movss	 xmm0, DWORD PTR _zPos$[ebp]
  0009c	f3 0f 11 04 24	 movss	 DWORD PTR [esp], xmm0
  000a1	51		 push	 ecx
  000a2	f3 0f 10 45 14	 movss	 xmm0, DWORD PTR _yMax$[ebp]
  000a7	f3 0f 11 04 24	 movss	 DWORD PTR [esp], xmm0
  000ac	51		 push	 ecx
  000ad	f3 0f 10 45 f8	 movss	 xmm0, DWORD PTR _x$[ebp]
  000b2	f3 0f 11 04 24	 movss	 DWORD PTR [esp], xmm0
  000b7	51		 push	 ecx
  000b8	f3 0f 10 45 0c	 movss	 xmm0, DWORD PTR _yMin$[ebp]
  000bd	f3 0f 11 04 24	 movss	 DWORD PTR [esp], xmm0
  000c2	51		 push	 ecx
  000c3	f3 0f 10 45 f8	 movss	 xmm0, DWORD PTR _x$[ebp]
  000c8	f3 0f 11 04 24	 movss	 DWORD PTR [esp], xmm0
  000cd	8b 4d f4	 mov	 ecx, DWORD PTR _this$[ebp]
  000d0	e8 00 00 00 00	 call	 ?RenderLine2d@CScreen@@QAEXMMMMM@Z ; CScreen::RenderLine2d
  000d5	eb a5		 jmp	 SHORT $LN5@DrawMinorG
$LN6@DrawMinorG:

; 453  : }

  000d7	c9		 leave
  000d8	c2 1c 00	 ret	 28			; 0000001cH
?DrawMinorGrid@CScreen@@QAEXMMMMMMM@Z ENDP		; CScreen::DrawMinorGrid
_TEXT	ENDS
; Function compile flags: /Odspy
; File D:\Metin2 Server Files\mainline\SRC_2014\Metin2Client\EterLib\GrpScreen.cpp
; File D:\Metin2 Server Files\mainline\SRC_2014\M2Data\include\d3dx8math.inl
; File D:\Metin2 Server Files\mainline\SRC_2014\Metin2Client\EterLib\GrpScreen.cpp
; File D:\Metin2 Server Files\mainline\SRC_2014\M2Data\include\d3dx8math.inl
; File D:\Metin2 Server Files\mainline\SRC_2014\Metin2Client\EterLib\GrpScreen.cpp
; File D:\Metin2 Server Files\mainline\SRC_2014\M2Data\include\d3dx8math.inl
; File D:\Metin2 Server Files\mainline\SRC_2014\Metin2Client\EterLib\GrpScreen.cpp
; File D:\Metin2 Server Files\mainline\SRC_2014\M2Data\include\d3dx8math.inl
; File D:\Metin2 Server Files\mainline\SRC_2014\Metin2Client\EterLib\GrpScreen.cpp
; File D:\Metin2 Server Files\mainline\SRC_2014\M2Data\include\d3dx8math.inl
; File D:\Metin2 Server Files\mainline\SRC_2014\Metin2Client\EterLib\GrpScreen.cpp
; File D:\Metin2 Server Files\mainline\SRC_2014\M2Data\include\d3dx8math.inl
; File D:\Metin2 Server Files\mainline\SRC_2014\Metin2Client\EterLib\GrpScreen.cpp
; File D:\Metin2 Server Files\mainline\SRC_2014\M2Data\include\d3dx8math.inl
; File D:\Metin2 Server Files\mainline\SRC_2014\Metin2Client\EterLib\GrpScreen.cpp
; File D:\Metin2 Server Files\mainline\SRC_2014\M2Data\include\d3dx8math.inl
; File D:\Metin2 Server Files\mainline\SRC_2014\Metin2Client\EterLib\GrpScreen.cpp
; File D:\Metin2 Server Files\mainline\SRC_2014\M2Data\include\d3dx8math.inl
; File D:\Metin2 Server Files\mainline\SRC_2014\Metin2Client\EterLib\GrpScreen.cpp
; File D:\Metin2 Server Files\mainline\SRC_2014\M2Data\include\d3dx8math.inl
; File D:\Metin2 Server Files\mainline\SRC_2014\Metin2Client\EterLib\GrpScreen.cpp
; File D:\Metin2 Server Files\mainline\SRC_2014\M2Data\include\d3dx8math.inl
; File D:\Metin2 Server Files\mainline\SRC_2014\Metin2Client\EterLib\GrpScreen.cpp
; File D:\Metin2 Server Files\mainline\SRC_2014\M2Data\include\d3dx8math.inl
; File D:\Metin2 Server Files\mainline\SRC_2014\Metin2Client\EterLib\GrpScreen.cpp
; File D:\Metin2 Server Files\mainline\SRC_2014\M2Data\include\d3dx8math.inl
; File D:\Metin2 Server Files\mainline\SRC_2014\Metin2Client\EterLib\GrpScreen.cpp
; File D:\Metin2 Server Files\mainline\SRC_2014\M2Data\include\d3dx8math.inl
; File D:\Metin2 Server Files\mainline\SRC_2014\Metin2Client\EterLib\GrpScreen.cpp
; File D:\Metin2 Server Files\mainline\SRC_2014\M2Data\include\d3dx8math.inl
; File D:\Metin2 Server Files\mainline\SRC_2014\Metin2Client\EterLib\GrpScreen.cpp
; File D:\Metin2 Server Files\mainline\SRC_2014\M2Data\include\d3dx8math.inl
; File D:\Metin2 Server Files\mainline\SRC_2014\Metin2Client\EterLib\GrpScreen.cpp
;	COMDAT ?RenderBillboard@CScreen@@QAEXPAUD3DXVECTOR3@@AAUD3DXCOLOR@@@Z
_TEXT	SEGMENT
_this$ = -324						; size = 4
_dwG$1 = -320						; size = 4
_fz$ = -316						; size = 4
_fy$ = -312						; size = 4
_fx$ = -308						; size = 4
$T2 = -304						; size = 8
$T3 = -296						; size = 8
$T4 = -288						; size = 8
$T5 = -280						; size = 8
_dwA$6 = -272						; size = 4
_dwB$7 = -268						; size = 4
_dwA$8 = -264						; size = 4
_dwR$9 = -260						; size = 4
_dwG$10 = -256						; size = 4
_fz$ = -252						; size = 4
_fy$ = -248						; size = 4
_fx$ = -244						; size = 4
_dwB$11 = -240						; size = 4
tv290 = -236						; size = 4
_dwR$12 = -232						; size = 4
_dwG$13 = -228						; size = 4
_fz$ = -224						; size = 4
_fy$ = -220						; size = 4
_fx$ = -216						; size = 4
_dwB$14 = -212						; size = 4
_dwA$15 = -208						; size = 4
_dwR$16 = -204						; size = 4
_dwG$17 = -200						; size = 4
_fz$ = -196						; size = 4
_fy$ = -192						; size = 4
_fx$ = -188						; size = 4
_dwB$18 = -184						; size = 4
_dwA$19 = -180						; size = 4
_dwR$20 = -176						; size = 4
tv475 = -172						; size = 4
tv402 = -168						; size = 4
tv412 = -164						; size = 4
tv413 = -160						; size = 4
tv474 = -156						; size = 4
tv571 = -152						; size = 4
tv570 = -148						; size = 4
tv560 = -144						; size = 4
tv559 = -140						; size = 4
tv549 = -136						; size = 4
tv548 = -132						; size = 4
tv538 = -128						; size = 4
tv537 = -124						; size = 4
tv508 = -120						; size = 4
tv507 = -116						; size = 4
tv497 = -112						; size = 4
tv496 = -108						; size = 4
tv486 = -104						; size = 4
tv485 = -100						; size = 4
tv401 = -96						; size = 4
tv391 = -92						; size = 4
tv390 = -88						; size = 4
tv380 = -84						; size = 4
tv379 = -80						; size = 4
tv350 = -76						; size = 4
tv349 = -72						; size = 4
tv339 = -68						; size = 4
tv338 = -64						; size = 4
tv328 = -60						; size = 4
tv327 = -56						; size = 4
tv317 = -52						; size = 4
tv316 = -48						; size = 4
___t$ = -44						; size = 4
___n$ = -40						; size = 4
$T21 = -36						; size = 12
$T22 = -24						; size = 12
$T23 = -12						; size = 12
$T24 = 0						; size = 12
_vertices$ = 12						; size = 96
__$ArrayPad$ = 108					; size = 4
_Position$ = 120					; size = 4
_Color$ = 124						; size = 4
?RenderBillboard@CScreen@@QAEXPAUD3DXVECTOR3@@AAUD3DXCOLOR@@@Z PROC ; CScreen::RenderBillboard, COMDAT
; _this$ = ecx

; 415  : {

  00000	55		 push	 ebp
  00001	8d 6c 24 90	 lea	 ebp, DWORD PTR [esp-112]
  00005	81 ec b4 01 00
	00		 sub	 esp, 436		; 000001b4H
  0000b	a1 00 00 00 00	 mov	 eax, DWORD PTR ___security_cookie
  00010	33 c5		 xor	 eax, ebp
  00012	89 45 6c	 mov	 DWORD PTR __$ArrayPad$[ebp], eax
  00015	56		 push	 esi
  00016	57		 push	 edi
  00017	89 8d bc fe ff
	ff		 mov	 DWORD PTR _this$[ebp], ecx

; 416  : 	assert(ms_lpd3dDevice != NULL);
; 417  : 	
; 418  : 	TPDTVertex vertices[4];

  0001d	c7 45 d8 04 00
	00 00		 mov	 DWORD PTR ___n$[ebp], 4
  00024	8d 45 0c	 lea	 eax, DWORD PTR _vertices$[ebp]
  00027	89 45 d4	 mov	 DWORD PTR ___t$[ebp], eax
$LN5@RenderBill:
  0002a	8b 45 d8	 mov	 eax, DWORD PTR ___n$[ebp]
  0002d	89 85 14 ff ff
	ff		 mov	 DWORD PTR tv290[ebp], eax
  00033	8b 45 d8	 mov	 eax, DWORD PTR ___n$[ebp]
  00036	48		 dec	 eax
  00037	89 45 d8	 mov	 DWORD PTR ___n$[ebp], eax
  0003a	83 bd 14 ff ff
	ff 00		 cmp	 DWORD PTR tv290[ebp], 0
  00041	76 0b		 jbe	 SHORT $LN6@RenderBill
  00043	8b 45 d4	 mov	 eax, DWORD PTR ___t$[ebp]
  00046	83 c0 18	 add	 eax, 24			; 00000018H
  00049	89 45 d4	 mov	 DWORD PTR ___t$[ebp], eax
  0004c	eb dc		 jmp	 SHORT $LN5@RenderBill
$LN6@RenderBill:

; 419  : 	vertices[0].position = TPosition(Position[0].x, Position[0].y, Position[0].z);

  0004e	6a 0c		 push	 12			; 0000000cH
  00050	58		 pop	 eax
  00051	6b c0 00	 imul	 eax, eax, 0
  00054	8b 4d 78	 mov	 ecx, DWORD PTR _Position$[ebp]
  00057	f3 0f 10 04 01	 movss	 xmm0, DWORD PTR [ecx+eax]
  0005c	f3 0f 11 85 cc
	fe ff ff	 movss	 DWORD PTR _fx$[ebp], xmm0
  00064	6a 0c		 push	 12			; 0000000cH
  00066	58		 pop	 eax
  00067	6b c0 00	 imul	 eax, eax, 0
  0006a	8b 4d 78	 mov	 ecx, DWORD PTR _Position$[ebp]
  0006d	f3 0f 10 44 01
	04		 movss	 xmm0, DWORD PTR [ecx+eax+4]
  00073	f3 0f 11 85 c8
	fe ff ff	 movss	 DWORD PTR _fy$[ebp], xmm0
  0007b	6a 0c		 push	 12			; 0000000cH
  0007d	58		 pop	 eax
  0007e	6b c0 00	 imul	 eax, eax, 0
  00081	8b 4d 78	 mov	 ecx, DWORD PTR _Position$[ebp]
  00084	f3 0f 10 44 01
	08		 movss	 xmm0, DWORD PTR [ecx+eax+8]
  0008a	f3 0f 11 85 c4
	fe ff ff	 movss	 DWORD PTR _fz$[ebp], xmm0
; File D:\Metin2 Server Files\mainline\SRC_2014\M2Data\include\d3dx8math.inl

; 180  :     x = fx;

  00092	f3 0f 10 85 cc
	fe ff ff	 movss	 xmm0, DWORD PTR _fx$[ebp]
  0009a	f3 0f 11 45 f4	 movss	 DWORD PTR $T23[ebp], xmm0

; 181  :     y = fy;

  0009f	f3 0f 10 85 c8
	fe ff ff	 movss	 xmm0, DWORD PTR _fy$[ebp]
  000a7	f3 0f 11 45 f8	 movss	 DWORD PTR $T23[ebp+4], xmm0

; 182  :     z = fz;

  000ac	f3 0f 10 85 c4
	fe ff ff	 movss	 xmm0, DWORD PTR _fz$[ebp]
  000b4	f3 0f 11 45 fc	 movss	 DWORD PTR $T23[ebp+8], xmm0
; File D:\Metin2 Server Files\mainline\SRC_2014\Metin2Client\EterLib\GrpScreen.cpp

; 419  : 	vertices[0].position = TPosition(Position[0].x, Position[0].y, Position[0].z);

  000b9	6a 18		 push	 24			; 00000018H
  000bb	58		 pop	 eax
  000bc	6b c0 00	 imul	 eax, eax, 0
  000bf	8d 7c 05 0c	 lea	 edi, DWORD PTR _vertices$[ebp+eax]
  000c3	8d 75 f4	 lea	 esi, DWORD PTR $T23[ebp]
  000c6	a5		 movsd
  000c7	a5		 movsd
  000c8	a5		 movsd
; File D:\Metin2 Server Files\mainline\SRC_2014\M2Data\include\d3dx8math.inl

; 931  :     DWORD dwR = r >= 1.0f ? 0xff : r <= 0.0f ? 0x00 : (DWORD) (r * 255.0f + 0.5f);

  000c9	8b 45 7c	 mov	 eax, DWORD PTR _Color$[ebp]
  000cc	f3 0f 10 00	 movss	 xmm0, DWORD PTR [eax]
  000d0	0f 2f 05 00 00
	00 00		 comiss	 xmm0, DWORD PTR __real@3f800000
  000d7	72 09		 jb	 SHORT $LN20@RenderBill
  000d9	c7 45 cc ff 00
	00 00		 mov	 DWORD PTR tv317[ebp], 255 ; 000000ffH
  000e0	eb 36		 jmp	 SHORT $LN21@RenderBill
$LN20@RenderBill:
  000e2	8b 45 7c	 mov	 eax, DWORD PTR _Color$[ebp]
  000e5	0f 57 c0	 xorps	 xmm0, xmm0
  000e8	0f 2f 00	 comiss	 xmm0, DWORD PTR [eax]
  000eb	72 06		 jb	 SHORT $LN18@RenderBill
  000ed	83 65 d0 00	 and	 DWORD PTR tv316[ebp], 0
  000f1	eb 1f		 jmp	 SHORT $LN19@RenderBill
$LN18@RenderBill:
  000f3	8b 45 7c	 mov	 eax, DWORD PTR _Color$[ebp]
  000f6	f3 0f 10 00	 movss	 xmm0, DWORD PTR [eax]
  000fa	f3 0f 59 05 00
	00 00 00	 mulss	 xmm0, DWORD PTR __real@437f0000
  00102	f3 0f 58 05 00
	00 00 00	 addss	 xmm0, DWORD PTR __real@3f000000
  0010a	e8 00 00 00 00	 call	 __ftoui3
  0010f	89 45 d0	 mov	 DWORD PTR tv316[ebp], eax
$LN19@RenderBill:
  00112	8b 45 d0	 mov	 eax, DWORD PTR tv316[ebp]
  00115	89 45 cc	 mov	 DWORD PTR tv317[ebp], eax
$LN21@RenderBill:
  00118	8b 45 cc	 mov	 eax, DWORD PTR tv317[ebp]
  0011b	89 85 50 ff ff
	ff		 mov	 DWORD PTR _dwR$20[ebp], eax

; 932  :     DWORD dwG = g >= 1.0f ? 0xff : g <= 0.0f ? 0x00 : (DWORD) (g * 255.0f + 0.5f);

  00121	8b 45 7c	 mov	 eax, DWORD PTR _Color$[ebp]
  00124	f3 0f 10 40 04	 movss	 xmm0, DWORD PTR [eax+4]
  00129	0f 2f 05 00 00
	00 00		 comiss	 xmm0, DWORD PTR __real@3f800000
  00130	72 09		 jb	 SHORT $LN24@RenderBill
  00132	c7 45 c4 ff 00
	00 00		 mov	 DWORD PTR tv328[ebp], 255 ; 000000ffH
  00139	eb 38		 jmp	 SHORT $LN25@RenderBill
$LN24@RenderBill:
  0013b	8b 45 7c	 mov	 eax, DWORD PTR _Color$[ebp]
  0013e	0f 57 c0	 xorps	 xmm0, xmm0
  00141	0f 2f 40 04	 comiss	 xmm0, DWORD PTR [eax+4]
  00145	72 06		 jb	 SHORT $LN22@RenderBill
  00147	83 65 c8 00	 and	 DWORD PTR tv327[ebp], 0
  0014b	eb 20		 jmp	 SHORT $LN23@RenderBill
$LN22@RenderBill:
  0014d	8b 45 7c	 mov	 eax, DWORD PTR _Color$[ebp]
  00150	f3 0f 10 40 04	 movss	 xmm0, DWORD PTR [eax+4]
  00155	f3 0f 59 05 00
	00 00 00	 mulss	 xmm0, DWORD PTR __real@437f0000
  0015d	f3 0f 58 05 00
	00 00 00	 addss	 xmm0, DWORD PTR __real@3f000000
  00165	e8 00 00 00 00	 call	 __ftoui3
  0016a	89 45 c8	 mov	 DWORD PTR tv327[ebp], eax
$LN23@RenderBill:
  0016d	8b 45 c8	 mov	 eax, DWORD PTR tv327[ebp]
  00170	89 45 c4	 mov	 DWORD PTR tv328[ebp], eax
$LN25@RenderBill:
  00173	8b 45 c4	 mov	 eax, DWORD PTR tv328[ebp]
  00176	89 85 c0 fe ff
	ff		 mov	 DWORD PTR _dwG$1[ebp], eax

; 933  :     DWORD dwB = b >= 1.0f ? 0xff : b <= 0.0f ? 0x00 : (DWORD) (b * 255.0f + 0.5f);

  0017c	8b 45 7c	 mov	 eax, DWORD PTR _Color$[ebp]
  0017f	f3 0f 10 40 08	 movss	 xmm0, DWORD PTR [eax+8]
  00184	0f 2f 05 00 00
	00 00		 comiss	 xmm0, DWORD PTR __real@3f800000
  0018b	72 09		 jb	 SHORT $LN28@RenderBill
  0018d	c7 45 bc ff 00
	00 00		 mov	 DWORD PTR tv339[ebp], 255 ; 000000ffH
  00194	eb 38		 jmp	 SHORT $LN29@RenderBill
$LN28@RenderBill:
  00196	8b 45 7c	 mov	 eax, DWORD PTR _Color$[ebp]
  00199	0f 57 c0	 xorps	 xmm0, xmm0
  0019c	0f 2f 40 08	 comiss	 xmm0, DWORD PTR [eax+8]
  001a0	72 06		 jb	 SHORT $LN26@RenderBill
  001a2	83 65 c0 00	 and	 DWORD PTR tv338[ebp], 0
  001a6	eb 20		 jmp	 SHORT $LN27@RenderBill
$LN26@RenderBill:
  001a8	8b 45 7c	 mov	 eax, DWORD PTR _Color$[ebp]
  001ab	f3 0f 10 40 08	 movss	 xmm0, DWORD PTR [eax+8]
  001b0	f3 0f 59 05 00
	00 00 00	 mulss	 xmm0, DWORD PTR __real@437f0000
  001b8	f3 0f 58 05 00
	00 00 00	 addss	 xmm0, DWORD PTR __real@3f000000
  001c0	e8 00 00 00 00	 call	 __ftoui3
  001c5	89 45 c0	 mov	 DWORD PTR tv338[ebp], eax
$LN27@RenderBill:
  001c8	8b 45 c0	 mov	 eax, DWORD PTR tv338[ebp]
  001cb	89 45 bc	 mov	 DWORD PTR tv339[ebp], eax
$LN29@RenderBill:
  001ce	8b 45 bc	 mov	 eax, DWORD PTR tv339[ebp]
  001d1	89 85 48 ff ff
	ff		 mov	 DWORD PTR _dwB$18[ebp], eax

; 934  :     DWORD dwA = a >= 1.0f ? 0xff : a <= 0.0f ? 0x00 : (DWORD) (a * 255.0f + 0.5f);

  001d7	8b 45 7c	 mov	 eax, DWORD PTR _Color$[ebp]
  001da	f3 0f 10 40 0c	 movss	 xmm0, DWORD PTR [eax+12]
  001df	0f 2f 05 00 00
	00 00		 comiss	 xmm0, DWORD PTR __real@3f800000
  001e6	72 09		 jb	 SHORT $LN32@RenderBill
  001e8	c7 45 b4 ff 00
	00 00		 mov	 DWORD PTR tv350[ebp], 255 ; 000000ffH
  001ef	eb 38		 jmp	 SHORT $LN33@RenderBill
$LN32@RenderBill:
  001f1	8b 45 7c	 mov	 eax, DWORD PTR _Color$[ebp]
  001f4	0f 57 c0	 xorps	 xmm0, xmm0
  001f7	0f 2f 40 0c	 comiss	 xmm0, DWORD PTR [eax+12]
  001fb	72 06		 jb	 SHORT $LN30@RenderBill
  001fd	83 65 b8 00	 and	 DWORD PTR tv349[ebp], 0
  00201	eb 20		 jmp	 SHORT $LN31@RenderBill
$LN30@RenderBill:
  00203	8b 45 7c	 mov	 eax, DWORD PTR _Color$[ebp]
  00206	f3 0f 10 40 0c	 movss	 xmm0, DWORD PTR [eax+12]
  0020b	f3 0f 59 05 00
	00 00 00	 mulss	 xmm0, DWORD PTR __real@437f0000
  00213	f3 0f 58 05 00
	00 00 00	 addss	 xmm0, DWORD PTR __real@3f000000
  0021b	e8 00 00 00 00	 call	 __ftoui3
  00220	89 45 b8	 mov	 DWORD PTR tv349[ebp], eax
$LN31@RenderBill:
  00223	8b 45 b8	 mov	 eax, DWORD PTR tv349[ebp]
  00226	89 45 b4	 mov	 DWORD PTR tv350[ebp], eax
$LN33@RenderBill:
  00229	8b 45 b4	 mov	 eax, DWORD PTR tv350[ebp]
  0022c	89 85 4c ff ff
	ff		 mov	 DWORD PTR _dwA$19[ebp], eax
; File D:\Metin2 Server Files\mainline\SRC_2014\Metin2Client\EterLib\GrpScreen.cpp

; 420  : 	vertices[0].diffuse = Color;

  00232	6a 18		 push	 24			; 00000018H
  00234	58		 pop	 eax
  00235	6b c0 00	 imul	 eax, eax, 0
; File D:\Metin2 Server Files\mainline\SRC_2014\M2Data\include\d3dx8math.inl

; 936  :     return (dwA << 24) | (dwR << 16) | (dwG << 8) | dwB;

  00238	8b 8d c0 fe ff
	ff		 mov	 ecx, DWORD PTR _dwG$1[ebp]
  0023e	c1 e1 08	 shl	 ecx, 8
  00241	8b 95 50 ff ff
	ff		 mov	 edx, DWORD PTR _dwR$20[ebp]
  00247	c1 e2 10	 shl	 edx, 16			; 00000010H
  0024a	8b b5 4c ff ff
	ff		 mov	 esi, DWORD PTR _dwA$19[ebp]
  00250	c1 e6 18	 shl	 esi, 24			; 00000018H
  00253	0b f2		 or	 esi, edx
  00255	0b f1		 or	 esi, ecx
  00257	0b b5 48 ff ff
	ff		 or	 esi, DWORD PTR _dwB$18[ebp]
; File D:\Metin2 Server Files\mainline\SRC_2014\Metin2Client\EterLib\GrpScreen.cpp

; 420  : 	vertices[0].diffuse = Color;

  0025d	89 74 05 18	 mov	 DWORD PTR _vertices$[ebp+eax+12], esi
; File D:\Metin2 Server Files\mainline\SRC_2014\M2Data\include\d3dx8math.inl

; 41   :     x = fx;

  00261	0f 57 c0	 xorps	 xmm0, xmm0
  00264	f3 0f 11 85 e8
	fe ff ff	 movss	 DWORD PTR $T5[ebp], xmm0

; 42   :     y = fy;

  0026c	0f 57 c0	 xorps	 xmm0, xmm0
  0026f	f3 0f 11 85 ec
	fe ff ff	 movss	 DWORD PTR $T5[ebp+4], xmm0
; File D:\Metin2 Server Files\mainline\SRC_2014\Metin2Client\EterLib\GrpScreen.cpp

; 421  : 	vertices[0].texCoord = TTextureCoordinate(0, 0);

  00277	8b 85 e8 fe ff
	ff		 mov	 eax, DWORD PTR $T5[ebp]
  0027d	8b 8d ec fe ff
	ff		 mov	 ecx, DWORD PTR $T5[ebp+4]
  00283	6a 18		 push	 24			; 00000018H
  00285	5a		 pop	 edx
  00286	6b d2 00	 imul	 edx, edx, 0
  00289	89 44 15 1c	 mov	 DWORD PTR _vertices$[ebp+edx+16], eax
  0028d	89 4c 15 20	 mov	 DWORD PTR _vertices$[ebp+edx+20], ecx

; 423  : 	vertices[1].position = TPosition(Position[1].x, Position[1].y, Position[1].z);

  00291	6a 0c		 push	 12			; 0000000cH
  00293	58		 pop	 eax
  00294	c1 e0 00	 shl	 eax, 0
  00297	8b 4d 78	 mov	 ecx, DWORD PTR _Position$[ebp]
  0029a	f3 0f 10 04 01	 movss	 xmm0, DWORD PTR [ecx+eax]
  0029f	f3 0f 11 85 44
	ff ff ff	 movss	 DWORD PTR _fx$[ebp], xmm0
  002a7	6a 0c		 push	 12			; 0000000cH
  002a9	58		 pop	 eax
  002aa	c1 e0 00	 shl	 eax, 0
  002ad	8b 4d 78	 mov	 ecx, DWORD PTR _Position$[ebp]
  002b0	f3 0f 10 44 01
	04		 movss	 xmm0, DWORD PTR [ecx+eax+4]
  002b6	f3 0f 11 85 40
	ff ff ff	 movss	 DWORD PTR _fy$[ebp], xmm0
  002be	6a 0c		 push	 12			; 0000000cH
  002c0	58		 pop	 eax
  002c1	c1 e0 00	 shl	 eax, 0
  002c4	8b 4d 78	 mov	 ecx, DWORD PTR _Position$[ebp]
  002c7	f3 0f 10 44 01
	08		 movss	 xmm0, DWORD PTR [ecx+eax+8]
  002cd	f3 0f 11 85 3c
	ff ff ff	 movss	 DWORD PTR _fz$[ebp], xmm0
; File D:\Metin2 Server Files\mainline\SRC_2014\M2Data\include\d3dx8math.inl

; 180  :     x = fx;

  002d5	f3 0f 10 85 44
	ff ff ff	 movss	 xmm0, DWORD PTR _fx$[ebp]
  002dd	f3 0f 11 45 dc	 movss	 DWORD PTR $T21[ebp], xmm0

; 181  :     y = fy;

  002e2	f3 0f 10 85 40
	ff ff ff	 movss	 xmm0, DWORD PTR _fy$[ebp]
  002ea	f3 0f 11 45 e0	 movss	 DWORD PTR $T21[ebp+4], xmm0

; 182  :     z = fz;

  002ef	f3 0f 10 85 3c
	ff ff ff	 movss	 xmm0, DWORD PTR _fz$[ebp]
  002f7	f3 0f 11 45 e4	 movss	 DWORD PTR $T21[ebp+8], xmm0
; File D:\Metin2 Server Files\mainline\SRC_2014\Metin2Client\EterLib\GrpScreen.cpp

; 423  : 	vertices[1].position = TPosition(Position[1].x, Position[1].y, Position[1].z);

  002fc	6a 18		 push	 24			; 00000018H
  002fe	58		 pop	 eax
  002ff	c1 e0 00	 shl	 eax, 0
  00302	8d 7c 05 0c	 lea	 edi, DWORD PTR _vertices$[ebp+eax]
  00306	8d 75 dc	 lea	 esi, DWORD PTR $T21[ebp]
  00309	a5		 movsd
  0030a	a5		 movsd
  0030b	a5		 movsd
; File D:\Metin2 Server Files\mainline\SRC_2014\M2Data\include\d3dx8math.inl

; 931  :     DWORD dwR = r >= 1.0f ? 0xff : r <= 0.0f ? 0x00 : (DWORD) (r * 255.0f + 0.5f);

  0030c	8b 45 7c	 mov	 eax, DWORD PTR _Color$[ebp]
  0030f	f3 0f 10 00	 movss	 xmm0, DWORD PTR [eax]
  00313	0f 2f 05 00 00
	00 00		 comiss	 xmm0, DWORD PTR __real@3f800000
  0031a	72 09		 jb	 SHORT $LN42@RenderBill
  0031c	c7 45 ac ff 00
	00 00		 mov	 DWORD PTR tv380[ebp], 255 ; 000000ffH
  00323	eb 36		 jmp	 SHORT $LN43@RenderBill
$LN42@RenderBill:
  00325	8b 45 7c	 mov	 eax, DWORD PTR _Color$[ebp]
  00328	0f 57 c0	 xorps	 xmm0, xmm0
  0032b	0f 2f 00	 comiss	 xmm0, DWORD PTR [eax]
  0032e	72 06		 jb	 SHORT $LN40@RenderBill
  00330	83 65 b0 00	 and	 DWORD PTR tv379[ebp], 0
  00334	eb 1f		 jmp	 SHORT $LN41@RenderBill
$LN40@RenderBill:
  00336	8b 45 7c	 mov	 eax, DWORD PTR _Color$[ebp]
  00339	f3 0f 10 00	 movss	 xmm0, DWORD PTR [eax]
  0033d	f3 0f 59 05 00
	00 00 00	 mulss	 xmm0, DWORD PTR __real@437f0000
  00345	f3 0f 58 05 00
	00 00 00	 addss	 xmm0, DWORD PTR __real@3f000000
  0034d	e8 00 00 00 00	 call	 __ftoui3
  00352	89 45 b0	 mov	 DWORD PTR tv379[ebp], eax
$LN41@RenderBill:
  00355	8b 45 b0	 mov	 eax, DWORD PTR tv379[ebp]
  00358	89 45 ac	 mov	 DWORD PTR tv380[ebp], eax
$LN43@RenderBill:
  0035b	8b 45 ac	 mov	 eax, DWORD PTR tv380[ebp]
  0035e	89 85 34 ff ff
	ff		 mov	 DWORD PTR _dwR$16[ebp], eax

; 932  :     DWORD dwG = g >= 1.0f ? 0xff : g <= 0.0f ? 0x00 : (DWORD) (g * 255.0f + 0.5f);

  00364	8b 45 7c	 mov	 eax, DWORD PTR _Color$[ebp]
  00367	f3 0f 10 40 04	 movss	 xmm0, DWORD PTR [eax+4]
  0036c	0f 2f 05 00 00
	00 00		 comiss	 xmm0, DWORD PTR __real@3f800000
  00373	72 09		 jb	 SHORT $LN46@RenderBill
  00375	c7 45 a4 ff 00
	00 00		 mov	 DWORD PTR tv391[ebp], 255 ; 000000ffH
  0037c	eb 38		 jmp	 SHORT $LN47@RenderBill
$LN46@RenderBill:
  0037e	8b 45 7c	 mov	 eax, DWORD PTR _Color$[ebp]
  00381	0f 57 c0	 xorps	 xmm0, xmm0
  00384	0f 2f 40 04	 comiss	 xmm0, DWORD PTR [eax+4]
  00388	72 06		 jb	 SHORT $LN44@RenderBill
  0038a	83 65 a8 00	 and	 DWORD PTR tv390[ebp], 0
  0038e	eb 20		 jmp	 SHORT $LN45@RenderBill
$LN44@RenderBill:
  00390	8b 45 7c	 mov	 eax, DWORD PTR _Color$[ebp]
  00393	f3 0f 10 40 04	 movss	 xmm0, DWORD PTR [eax+4]
  00398	f3 0f 59 05 00
	00 00 00	 mulss	 xmm0, DWORD PTR __real@437f0000
  003a0	f3 0f 58 05 00
	00 00 00	 addss	 xmm0, DWORD PTR __real@3f000000
  003a8	e8 00 00 00 00	 call	 __ftoui3
  003ad	89 45 a8	 mov	 DWORD PTR tv390[ebp], eax
$LN45@RenderBill:
  003b0	8b 45 a8	 mov	 eax, DWORD PTR tv390[ebp]
  003b3	89 45 a4	 mov	 DWORD PTR tv391[ebp], eax
$LN47@RenderBill:
  003b6	8b 45 a4	 mov	 eax, DWORD PTR tv391[ebp]
  003b9	89 85 38 ff ff
	ff		 mov	 DWORD PTR _dwG$17[ebp], eax

; 933  :     DWORD dwB = b >= 1.0f ? 0xff : b <= 0.0f ? 0x00 : (DWORD) (b * 255.0f + 0.5f);

  003bf	8b 45 7c	 mov	 eax, DWORD PTR _Color$[ebp]
  003c2	f3 0f 10 40 08	 movss	 xmm0, DWORD PTR [eax+8]
  003c7	0f 2f 05 00 00
	00 00		 comiss	 xmm0, DWORD PTR __real@3f800000
  003ce	72 0c		 jb	 SHORT $LN50@RenderBill
  003d0	c7 85 58 ff ff
	ff ff 00 00 00	 mov	 DWORD PTR tv402[ebp], 255 ; 000000ffH
  003da	eb 3b		 jmp	 SHORT $LN51@RenderBill
$LN50@RenderBill:
  003dc	8b 45 7c	 mov	 eax, DWORD PTR _Color$[ebp]
  003df	0f 57 c0	 xorps	 xmm0, xmm0
  003e2	0f 2f 40 08	 comiss	 xmm0, DWORD PTR [eax+8]
  003e6	72 06		 jb	 SHORT $LN48@RenderBill
  003e8	83 65 a0 00	 and	 DWORD PTR tv401[ebp], 0
  003ec	eb 20		 jmp	 SHORT $LN49@RenderBill
$LN48@RenderBill:
  003ee	8b 45 7c	 mov	 eax, DWORD PTR _Color$[ebp]
  003f1	f3 0f 10 40 08	 movss	 xmm0, DWORD PTR [eax+8]
  003f6	f3 0f 59 05 00
	00 00 00	 mulss	 xmm0, DWORD PTR __real@437f0000
  003fe	f3 0f 58 05 00
	00 00 00	 addss	 xmm0, DWORD PTR __real@3f000000
  00406	e8 00 00 00 00	 call	 __ftoui3
  0040b	89 45 a0	 mov	 DWORD PTR tv401[ebp], eax
$LN49@RenderBill:
  0040e	8b 45 a0	 mov	 eax, DWORD PTR tv401[ebp]
  00411	89 85 58 ff ff
	ff		 mov	 DWORD PTR tv402[ebp], eax
$LN51@RenderBill:
  00417	8b 85 58 ff ff
	ff		 mov	 eax, DWORD PTR tv402[ebp]
  0041d	89 85 2c ff ff
	ff		 mov	 DWORD PTR _dwB$14[ebp], eax

; 934  :     DWORD dwA = a >= 1.0f ? 0xff : a <= 0.0f ? 0x00 : (DWORD) (a * 255.0f + 0.5f);

  00423	8b 45 7c	 mov	 eax, DWORD PTR _Color$[ebp]
  00426	f3 0f 10 40 0c	 movss	 xmm0, DWORD PTR [eax+12]
  0042b	0f 2f 05 00 00
	00 00		 comiss	 xmm0, DWORD PTR __real@3f800000
  00432	72 0c		 jb	 SHORT $LN54@RenderBill
  00434	c7 85 60 ff ff
	ff ff 00 00 00	 mov	 DWORD PTR tv413[ebp], 255 ; 000000ffH
  0043e	eb 44		 jmp	 SHORT $LN55@RenderBill
$LN54@RenderBill:
  00440	8b 45 7c	 mov	 eax, DWORD PTR _Color$[ebp]
  00443	0f 57 c0	 xorps	 xmm0, xmm0
  00446	0f 2f 40 0c	 comiss	 xmm0, DWORD PTR [eax+12]
  0044a	72 09		 jb	 SHORT $LN52@RenderBill
  0044c	83 a5 5c ff ff
	ff 00		 and	 DWORD PTR tv412[ebp], 0
  00453	eb 23		 jmp	 SHORT $LN53@RenderBill
$LN52@RenderBill:
  00455	8b 45 7c	 mov	 eax, DWORD PTR _Color$[ebp]
  00458	f3 0f 10 40 0c	 movss	 xmm0, DWORD PTR [eax+12]
  0045d	f3 0f 59 05 00
	00 00 00	 mulss	 xmm0, DWORD PTR __real@437f0000
  00465	f3 0f 58 05 00
	00 00 00	 addss	 xmm0, DWORD PTR __real@3f000000
  0046d	e8 00 00 00 00	 call	 __ftoui3
  00472	89 85 5c ff ff
	ff		 mov	 DWORD PTR tv412[ebp], eax
$LN53@RenderBill:
  00478	8b 85 5c ff ff
	ff		 mov	 eax, DWORD PTR tv412[ebp]
  0047e	89 85 60 ff ff
	ff		 mov	 DWORD PTR tv413[ebp], eax
$LN55@RenderBill:
  00484	8b 85 60 ff ff
	ff		 mov	 eax, DWORD PTR tv413[ebp]
  0048a	89 85 30 ff ff
	ff		 mov	 DWORD PTR _dwA$15[ebp], eax
; File D:\Metin2 Server Files\mainline\SRC_2014\Metin2Client\EterLib\GrpScreen.cpp

; 424  : 	vertices[1].diffuse = Color;

  00490	6a 18		 push	 24			; 00000018H
  00492	58		 pop	 eax
  00493	c1 e0 00	 shl	 eax, 0
; File D:\Metin2 Server Files\mainline\SRC_2014\M2Data\include\d3dx8math.inl

; 936  :     return (dwA << 24) | (dwR << 16) | (dwG << 8) | dwB;

  00496	8b 8d 38 ff ff
	ff		 mov	 ecx, DWORD PTR _dwG$17[ebp]
  0049c	c1 e1 08	 shl	 ecx, 8
  0049f	8b 95 34 ff ff
	ff		 mov	 edx, DWORD PTR _dwR$16[ebp]
  004a5	c1 e2 10	 shl	 edx, 16			; 00000010H
  004a8	8b b5 30 ff ff
	ff		 mov	 esi, DWORD PTR _dwA$15[ebp]
  004ae	c1 e6 18	 shl	 esi, 24			; 00000018H
  004b1	0b f2		 or	 esi, edx
  004b3	0b f1		 or	 esi, ecx
  004b5	0b b5 2c ff ff
	ff		 or	 esi, DWORD PTR _dwB$14[ebp]
; File D:\Metin2 Server Files\mainline\SRC_2014\Metin2Client\EterLib\GrpScreen.cpp

; 424  : 	vertices[1].diffuse = Color;

  004bb	89 74 05 18	 mov	 DWORD PTR _vertices$[ebp+eax+12], esi
; File D:\Metin2 Server Files\mainline\SRC_2014\M2Data\include\d3dx8math.inl

; 41   :     x = fx;

  004bf	f3 0f 10 05 00
	00 00 00	 movss	 xmm0, DWORD PTR __real@3f800000
  004c7	f3 0f 11 85 e0
	fe ff ff	 movss	 DWORD PTR $T4[ebp], xmm0

; 42   :     y = fy;

  004cf	0f 57 c0	 xorps	 xmm0, xmm0
  004d2	f3 0f 11 85 e4
	fe ff ff	 movss	 DWORD PTR $T4[ebp+4], xmm0
; File D:\Metin2 Server Files\mainline\SRC_2014\Metin2Client\EterLib\GrpScreen.cpp

; 425  : 	vertices[1].texCoord = TTextureCoordinate(1, 0);

  004da	8b 85 e0 fe ff
	ff		 mov	 eax, DWORD PTR $T4[ebp]
  004e0	8b 8d e4 fe ff
	ff		 mov	 ecx, DWORD PTR $T4[ebp+4]
  004e6	6a 18		 push	 24			; 00000018H
  004e8	5a		 pop	 edx
  004e9	c1 e2 00	 shl	 edx, 0
  004ec	89 44 15 1c	 mov	 DWORD PTR _vertices$[ebp+edx+16], eax
  004f0	89 4c 15 20	 mov	 DWORD PTR _vertices$[ebp+edx+20], ecx

; 427  : 	vertices[2].position = TPosition(Position[2].x, Position[2].y, Position[2].z);

  004f4	6a 0c		 push	 12			; 0000000cH
  004f6	58		 pop	 eax
  004f7	d1 e0		 shl	 eax, 1
  004f9	8b 4d 78	 mov	 ecx, DWORD PTR _Position$[ebp]
  004fc	f3 0f 10 04 01	 movss	 xmm0, DWORD PTR [ecx+eax]
  00501	f3 0f 11 85 28
	ff ff ff	 movss	 DWORD PTR _fx$[ebp], xmm0
  00509	6a 0c		 push	 12			; 0000000cH
  0050b	58		 pop	 eax
  0050c	d1 e0		 shl	 eax, 1
  0050e	8b 4d 78	 mov	 ecx, DWORD PTR _Position$[ebp]
  00511	f3 0f 10 44 01
	04		 movss	 xmm0, DWORD PTR [ecx+eax+4]
  00517	f3 0f 11 85 24
	ff ff ff	 movss	 DWORD PTR _fy$[ebp], xmm0
  0051f	6a 0c		 push	 12			; 0000000cH
  00521	58		 pop	 eax
  00522	d1 e0		 shl	 eax, 1
  00524	8b 4d 78	 mov	 ecx, DWORD PTR _Position$[ebp]
  00527	f3 0f 10 44 01
	08		 movss	 xmm0, DWORD PTR [ecx+eax+8]
  0052d	f3 0f 11 85 20
	ff ff ff	 movss	 DWORD PTR _fz$[ebp], xmm0
; File D:\Metin2 Server Files\mainline\SRC_2014\M2Data\include\d3dx8math.inl

; 180  :     x = fx;

  00535	f3 0f 10 85 28
	ff ff ff	 movss	 xmm0, DWORD PTR _fx$[ebp]
  0053d	f3 0f 11 45 e8	 movss	 DWORD PTR $T22[ebp], xmm0

; 181  :     y = fy;

  00542	f3 0f 10 85 24
	ff ff ff	 movss	 xmm0, DWORD PTR _fy$[ebp]
  0054a	f3 0f 11 45 ec	 movss	 DWORD PTR $T22[ebp+4], xmm0

; 182  :     z = fz;

  0054f	f3 0f 10 85 20
	ff ff ff	 movss	 xmm0, DWORD PTR _fz$[ebp]
  00557	f3 0f 11 45 f0	 movss	 DWORD PTR $T22[ebp+8], xmm0
; File D:\Metin2 Server Files\mainline\SRC_2014\Metin2Client\EterLib\GrpScreen.cpp

; 427  : 	vertices[2].position = TPosition(Position[2].x, Position[2].y, Position[2].z);

  0055c	6a 18		 push	 24			; 00000018H
  0055e	58		 pop	 eax
  0055f	d1 e0		 shl	 eax, 1
  00561	8d 7c 05 0c	 lea	 edi, DWORD PTR _vertices$[ebp+eax]
  00565	8d 75 e8	 lea	 esi, DWORD PTR $T22[ebp]
  00568	a5		 movsd
  00569	a5		 movsd
  0056a	a5		 movsd
; File D:\Metin2 Server Files\mainline\SRC_2014\M2Data\include\d3dx8math.inl

; 931  :     DWORD dwR = r >= 1.0f ? 0xff : r <= 0.0f ? 0x00 : (DWORD) (r * 255.0f + 0.5f);

  0056b	8b 45 7c	 mov	 eax, DWORD PTR _Color$[ebp]
  0056e	f3 0f 10 00	 movss	 xmm0, DWORD PTR [eax]
  00572	0f 2f 05 00 00
	00 00		 comiss	 xmm0, DWORD PTR __real@3f800000
  00579	72 0c		 jb	 SHORT $LN64@RenderBill
  0057b	c7 85 54 ff ff
	ff ff 00 00 00	 mov	 DWORD PTR tv475[ebp], 255 ; 000000ffH
  00585	eb 42		 jmp	 SHORT $LN65@RenderBill
$LN64@RenderBill:
  00587	8b 45 7c	 mov	 eax, DWORD PTR _Color$[ebp]
  0058a	0f 57 c0	 xorps	 xmm0, xmm0
  0058d	0f 2f 00	 comiss	 xmm0, DWORD PTR [eax]
  00590	72 09		 jb	 SHORT $LN62@RenderBill
  00592	83 a5 64 ff ff
	ff 00		 and	 DWORD PTR tv474[ebp], 0
  00599	eb 22		 jmp	 SHORT $LN63@RenderBill
$LN62@RenderBill:
  0059b	8b 45 7c	 mov	 eax, DWORD PTR _Color$[ebp]
  0059e	f3 0f 10 00	 movss	 xmm0, DWORD PTR [eax]
  005a2	f3 0f 59 05 00
	00 00 00	 mulss	 xmm0, DWORD PTR __real@437f0000
  005aa	f3 0f 58 05 00
	00 00 00	 addss	 xmm0, DWORD PTR __real@3f000000
  005b2	e8 00 00 00 00	 call	 __ftoui3
  005b7	89 85 64 ff ff
	ff		 mov	 DWORD PTR tv474[ebp], eax
$LN63@RenderBill:
  005bd	8b 85 64 ff ff
	ff		 mov	 eax, DWORD PTR tv474[ebp]
  005c3	89 85 54 ff ff
	ff		 mov	 DWORD PTR tv475[ebp], eax
$LN65@RenderBill:
  005c9	8b 85 54 ff ff
	ff		 mov	 eax, DWORD PTR tv475[ebp]
  005cf	89 85 18 ff ff
	ff		 mov	 DWORD PTR _dwR$12[ebp], eax

; 932  :     DWORD dwG = g >= 1.0f ? 0xff : g <= 0.0f ? 0x00 : (DWORD) (g * 255.0f + 0.5f);

  005d5	8b 45 7c	 mov	 eax, DWORD PTR _Color$[ebp]
  005d8	f3 0f 10 40 04	 movss	 xmm0, DWORD PTR [eax+4]
  005dd	0f 2f 05 00 00
	00 00		 comiss	 xmm0, DWORD PTR __real@3f800000
  005e4	72 09		 jb	 SHORT $LN68@RenderBill
  005e6	c7 45 98 ff 00
	00 00		 mov	 DWORD PTR tv486[ebp], 255 ; 000000ffH
  005ed	eb 38		 jmp	 SHORT $LN69@RenderBill
$LN68@RenderBill:
  005ef	8b 45 7c	 mov	 eax, DWORD PTR _Color$[ebp]
  005f2	0f 57 c0	 xorps	 xmm0, xmm0
  005f5	0f 2f 40 04	 comiss	 xmm0, DWORD PTR [eax+4]
  005f9	72 06		 jb	 SHORT $LN66@RenderBill
  005fb	83 65 9c 00	 and	 DWORD PTR tv485[ebp], 0
  005ff	eb 20		 jmp	 SHORT $LN67@RenderBill
$LN66@RenderBill:
  00601	8b 45 7c	 mov	 eax, DWORD PTR _Color$[ebp]
  00604	f3 0f 10 40 04	 movss	 xmm0, DWORD PTR [eax+4]
  00609	f3 0f 59 05 00
	00 00 00	 mulss	 xmm0, DWORD PTR __real@437f0000
  00611	f3 0f 58 05 00
	00 00 00	 addss	 xmm0, DWORD PTR __real@3f000000
  00619	e8 00 00 00 00	 call	 __ftoui3
  0061e	89 45 9c	 mov	 DWORD PTR tv485[ebp], eax
$LN67@RenderBill:
  00621	8b 45 9c	 mov	 eax, DWORD PTR tv485[ebp]
  00624	89 45 98	 mov	 DWORD PTR tv486[ebp], eax
$LN69@RenderBill:
  00627	8b 45 98	 mov	 eax, DWORD PTR tv486[ebp]
  0062a	89 85 1c ff ff
	ff		 mov	 DWORD PTR _dwG$13[ebp], eax

; 933  :     DWORD dwB = b >= 1.0f ? 0xff : b <= 0.0f ? 0x00 : (DWORD) (b * 255.0f + 0.5f);

  00630	8b 45 7c	 mov	 eax, DWORD PTR _Color$[ebp]
  00633	f3 0f 10 40 08	 movss	 xmm0, DWORD PTR [eax+8]
  00638	0f 2f 05 00 00
	00 00		 comiss	 xmm0, DWORD PTR __real@3f800000
  0063f	72 09		 jb	 SHORT $LN72@RenderBill
  00641	c7 45 90 ff 00
	00 00		 mov	 DWORD PTR tv497[ebp], 255 ; 000000ffH
  00648	eb 38		 jmp	 SHORT $LN73@RenderBill
$LN72@RenderBill:
  0064a	8b 45 7c	 mov	 eax, DWORD PTR _Color$[ebp]
  0064d	0f 57 c0	 xorps	 xmm0, xmm0
  00650	0f 2f 40 08	 comiss	 xmm0, DWORD PTR [eax+8]
  00654	72 06		 jb	 SHORT $LN70@RenderBill
  00656	83 65 94 00	 and	 DWORD PTR tv496[ebp], 0
  0065a	eb 20		 jmp	 SHORT $LN71@RenderBill
$LN70@RenderBill:
  0065c	8b 45 7c	 mov	 eax, DWORD PTR _Color$[ebp]
  0065f	f3 0f 10 40 08	 movss	 xmm0, DWORD PTR [eax+8]
  00664	f3 0f 59 05 00
	00 00 00	 mulss	 xmm0, DWORD PTR __real@437f0000
  0066c	f3 0f 58 05 00
	00 00 00	 addss	 xmm0, DWORD PTR __real@3f000000
  00674	e8 00 00 00 00	 call	 __ftoui3
  00679	89 45 94	 mov	 DWORD PTR tv496[ebp], eax
$LN71@RenderBill:
  0067c	8b 45 94	 mov	 eax, DWORD PTR tv496[ebp]
  0067f	89 45 90	 mov	 DWORD PTR tv497[ebp], eax
$LN73@RenderBill:
  00682	8b 45 90	 mov	 eax, DWORD PTR tv497[ebp]
  00685	89 85 10 ff ff
	ff		 mov	 DWORD PTR _dwB$11[ebp], eax

; 934  :     DWORD dwA = a >= 1.0f ? 0xff : a <= 0.0f ? 0x00 : (DWORD) (a * 255.0f + 0.5f);

  0068b	8b 45 7c	 mov	 eax, DWORD PTR _Color$[ebp]
  0068e	f3 0f 10 40 0c	 movss	 xmm0, DWORD PTR [eax+12]
  00693	0f 2f 05 00 00
	00 00		 comiss	 xmm0, DWORD PTR __real@3f800000
  0069a	72 09		 jb	 SHORT $LN76@RenderBill
  0069c	c7 45 88 ff 00
	00 00		 mov	 DWORD PTR tv508[ebp], 255 ; 000000ffH
  006a3	eb 38		 jmp	 SHORT $LN77@RenderBill
$LN76@RenderBill:
  006a5	8b 45 7c	 mov	 eax, DWORD PTR _Color$[ebp]
  006a8	0f 57 c0	 xorps	 xmm0, xmm0
  006ab	0f 2f 40 0c	 comiss	 xmm0, DWORD PTR [eax+12]
  006af	72 06		 jb	 SHORT $LN74@RenderBill
  006b1	83 65 8c 00	 and	 DWORD PTR tv507[ebp], 0
  006b5	eb 20		 jmp	 SHORT $LN75@RenderBill
$LN74@RenderBill:
  006b7	8b 45 7c	 mov	 eax, DWORD PTR _Color$[ebp]
  006ba	f3 0f 10 40 0c	 movss	 xmm0, DWORD PTR [eax+12]
  006bf	f3 0f 59 05 00
	00 00 00	 mulss	 xmm0, DWORD PTR __real@437f0000
  006c7	f3 0f 58 05 00
	00 00 00	 addss	 xmm0, DWORD PTR __real@3f000000
  006cf	e8 00 00 00 00	 call	 __ftoui3
  006d4	89 45 8c	 mov	 DWORD PTR tv507[ebp], eax
$LN75@RenderBill:
  006d7	8b 45 8c	 mov	 eax, DWORD PTR tv507[ebp]
  006da	89 45 88	 mov	 DWORD PTR tv508[ebp], eax
$LN77@RenderBill:
  006dd	8b 45 88	 mov	 eax, DWORD PTR tv508[ebp]
  006e0	89 85 f0 fe ff
	ff		 mov	 DWORD PTR _dwA$6[ebp], eax
; File D:\Metin2 Server Files\mainline\SRC_2014\Metin2Client\EterLib\GrpScreen.cpp

; 428  : 	vertices[2].diffuse = Color;

  006e6	6a 18		 push	 24			; 00000018H
  006e8	58		 pop	 eax
  006e9	d1 e0		 shl	 eax, 1
; File D:\Metin2 Server Files\mainline\SRC_2014\M2Data\include\d3dx8math.inl

; 936  :     return (dwA << 24) | (dwR << 16) | (dwG << 8) | dwB;

  006eb	8b 8d 1c ff ff
	ff		 mov	 ecx, DWORD PTR _dwG$13[ebp]
  006f1	c1 e1 08	 shl	 ecx, 8
  006f4	8b 95 18 ff ff
	ff		 mov	 edx, DWORD PTR _dwR$12[ebp]
  006fa	c1 e2 10	 shl	 edx, 16			; 00000010H
  006fd	8b b5 f0 fe ff
	ff		 mov	 esi, DWORD PTR _dwA$6[ebp]
  00703	c1 e6 18	 shl	 esi, 24			; 00000018H
  00706	0b f2		 or	 esi, edx
  00708	0b f1		 or	 esi, ecx
  0070a	0b b5 10 ff ff
	ff		 or	 esi, DWORD PTR _dwB$11[ebp]
; File D:\Metin2 Server Files\mainline\SRC_2014\Metin2Client\EterLib\GrpScreen.cpp

; 428  : 	vertices[2].diffuse = Color;

  00710	89 74 05 18	 mov	 DWORD PTR _vertices$[ebp+eax+12], esi
; File D:\Metin2 Server Files\mainline\SRC_2014\M2Data\include\d3dx8math.inl

; 41   :     x = fx;

  00714	0f 57 c0	 xorps	 xmm0, xmm0
  00717	f3 0f 11 85 d8
	fe ff ff	 movss	 DWORD PTR $T3[ebp], xmm0

; 42   :     y = fy;

  0071f	f3 0f 10 05 00
	00 00 00	 movss	 xmm0, DWORD PTR __real@3f800000
  00727	f3 0f 11 85 dc
	fe ff ff	 movss	 DWORD PTR $T3[ebp+4], xmm0
; File D:\Metin2 Server Files\mainline\SRC_2014\Metin2Client\EterLib\GrpScreen.cpp

; 429  : 	vertices[2].texCoord = TTextureCoordinate(0, 1);

  0072f	8b 85 d8 fe ff
	ff		 mov	 eax, DWORD PTR $T3[ebp]
  00735	8b 8d dc fe ff
	ff		 mov	 ecx, DWORD PTR $T3[ebp+4]
  0073b	6a 18		 push	 24			; 00000018H
  0073d	5a		 pop	 edx
  0073e	d1 e2		 shl	 edx, 1
  00740	89 44 15 1c	 mov	 DWORD PTR _vertices$[ebp+edx+16], eax
  00744	89 4c 15 20	 mov	 DWORD PTR _vertices$[ebp+edx+20], ecx

; 431  : 	vertices[3].position = TPosition(Position[3].x, Position[3].y, Position[3].z);

  00748	6a 0c		 push	 12			; 0000000cH
  0074a	58		 pop	 eax
  0074b	6b c0 03	 imul	 eax, eax, 3
  0074e	8b 4d 78	 mov	 ecx, DWORD PTR _Position$[ebp]
  00751	f3 0f 10 04 01	 movss	 xmm0, DWORD PTR [ecx+eax]
  00756	f3 0f 11 85 0c
	ff ff ff	 movss	 DWORD PTR _fx$[ebp], xmm0
  0075e	6a 0c		 push	 12			; 0000000cH
  00760	58		 pop	 eax
  00761	6b c0 03	 imul	 eax, eax, 3
  00764	8b 4d 78	 mov	 ecx, DWORD PTR _Position$[ebp]
  00767	f3 0f 10 44 01
	04		 movss	 xmm0, DWORD PTR [ecx+eax+4]
  0076d	f3 0f 11 85 08
	ff ff ff	 movss	 DWORD PTR _fy$[ebp], xmm0
  00775	6a 0c		 push	 12			; 0000000cH
  00777	58		 pop	 eax
  00778	6b c0 03	 imul	 eax, eax, 3
  0077b	8b 4d 78	 mov	 ecx, DWORD PTR _Position$[ebp]
  0077e	f3 0f 10 44 01
	08		 movss	 xmm0, DWORD PTR [ecx+eax+8]
  00784	f3 0f 11 85 04
	ff ff ff	 movss	 DWORD PTR _fz$[ebp], xmm0
; File D:\Metin2 Server Files\mainline\SRC_2014\M2Data\include\d3dx8math.inl

; 180  :     x = fx;

  0078c	f3 0f 10 85 0c
	ff ff ff	 movss	 xmm0, DWORD PTR _fx$[ebp]
  00794	f3 0f 11 45 00	 movss	 DWORD PTR $T24[ebp], xmm0

; 181  :     y = fy;

  00799	f3 0f 10 85 08
	ff ff ff	 movss	 xmm0, DWORD PTR _fy$[ebp]
  007a1	f3 0f 11 45 04	 movss	 DWORD PTR $T24[ebp+4], xmm0

; 182  :     z = fz;

  007a6	f3 0f 10 85 04
	ff ff ff	 movss	 xmm0, DWORD PTR _fz$[ebp]
  007ae	f3 0f 11 45 08	 movss	 DWORD PTR $T24[ebp+8], xmm0
; File D:\Metin2 Server Files\mainline\SRC_2014\Metin2Client\EterLib\GrpScreen.cpp

; 431  : 	vertices[3].position = TPosition(Position[3].x, Position[3].y, Position[3].z);

  007b3	6a 18		 push	 24			; 00000018H
  007b5	58		 pop	 eax
  007b6	6b c0 03	 imul	 eax, eax, 3
  007b9	8d 7c 05 0c	 lea	 edi, DWORD PTR _vertices$[ebp+eax]
  007bd	8d 75 00	 lea	 esi, DWORD PTR $T24[ebp]
  007c0	a5		 movsd
  007c1	a5		 movsd
  007c2	a5		 movsd
; File D:\Metin2 Server Files\mainline\SRC_2014\M2Data\include\d3dx8math.inl

; 931  :     DWORD dwR = r >= 1.0f ? 0xff : r <= 0.0f ? 0x00 : (DWORD) (r * 255.0f + 0.5f);

  007c3	8b 45 7c	 mov	 eax, DWORD PTR _Color$[ebp]
  007c6	f3 0f 10 00	 movss	 xmm0, DWORD PTR [eax]
  007ca	0f 2f 05 00 00
	00 00		 comiss	 xmm0, DWORD PTR __real@3f800000
  007d1	72 09		 jb	 SHORT $LN86@RenderBill
  007d3	c7 45 80 ff 00
	00 00		 mov	 DWORD PTR tv538[ebp], 255 ; 000000ffH
  007da	eb 36		 jmp	 SHORT $LN87@RenderBill
$LN86@RenderBill:
  007dc	8b 45 7c	 mov	 eax, DWORD PTR _Color$[ebp]
  007df	0f 57 c0	 xorps	 xmm0, xmm0
  007e2	0f 2f 00	 comiss	 xmm0, DWORD PTR [eax]
  007e5	72 06		 jb	 SHORT $LN84@RenderBill
  007e7	83 65 84 00	 and	 DWORD PTR tv537[ebp], 0
  007eb	eb 1f		 jmp	 SHORT $LN85@RenderBill
$LN84@RenderBill:
  007ed	8b 45 7c	 mov	 eax, DWORD PTR _Color$[ebp]
  007f0	f3 0f 10 00	 movss	 xmm0, DWORD PTR [eax]
  007f4	f3 0f 59 05 00
	00 00 00	 mulss	 xmm0, DWORD PTR __real@437f0000
  007fc	f3 0f 58 05 00
	00 00 00	 addss	 xmm0, DWORD PTR __real@3f000000
  00804	e8 00 00 00 00	 call	 __ftoui3
  00809	89 45 84	 mov	 DWORD PTR tv537[ebp], eax
$LN85@RenderBill:
  0080c	8b 45 84	 mov	 eax, DWORD PTR tv537[ebp]
  0080f	89 45 80	 mov	 DWORD PTR tv538[ebp], eax
$LN87@RenderBill:
  00812	8b 45 80	 mov	 eax, DWORD PTR tv538[ebp]
  00815	89 85 fc fe ff
	ff		 mov	 DWORD PTR _dwR$9[ebp], eax

; 932  :     DWORD dwG = g >= 1.0f ? 0xff : g <= 0.0f ? 0x00 : (DWORD) (g * 255.0f + 0.5f);

  0081b	8b 45 7c	 mov	 eax, DWORD PTR _Color$[ebp]
  0081e	f3 0f 10 40 04	 movss	 xmm0, DWORD PTR [eax+4]
  00823	0f 2f 05 00 00
	00 00		 comiss	 xmm0, DWORD PTR __real@3f800000
  0082a	72 0c		 jb	 SHORT $LN90@RenderBill
  0082c	c7 85 78 ff ff
	ff ff 00 00 00	 mov	 DWORD PTR tv549[ebp], 255 ; 000000ffH
  00836	eb 44		 jmp	 SHORT $LN91@RenderBill
$LN90@RenderBill:
  00838	8b 45 7c	 mov	 eax, DWORD PTR _Color$[ebp]
  0083b	0f 57 c0	 xorps	 xmm0, xmm0
  0083e	0f 2f 40 04	 comiss	 xmm0, DWORD PTR [eax+4]
  00842	72 09		 jb	 SHORT $LN88@RenderBill
  00844	83 a5 7c ff ff
	ff 00		 and	 DWORD PTR tv548[ebp], 0
  0084b	eb 23		 jmp	 SHORT $LN89@RenderBill
$LN88@RenderBill:
  0084d	8b 45 7c	 mov	 eax, DWORD PTR _Color$[ebp]
  00850	f3 0f 10 40 04	 movss	 xmm0, DWORD PTR [eax+4]
  00855	f3 0f 59 05 00
	00 00 00	 mulss	 xmm0, DWORD PTR __real@437f0000
  0085d	f3 0f 58 05 00
	00 00 00	 addss	 xmm0, DWORD PTR __real@3f000000
  00865	e8 00 00 00 00	 call	 __ftoui3
  0086a	89 85 7c ff ff
	ff		 mov	 DWORD PTR tv548[ebp], eax
$LN89@RenderBill:
  00870	8b 85 7c ff ff
	ff		 mov	 eax, DWORD PTR tv548[ebp]
  00876	89 85 78 ff ff
	ff		 mov	 DWORD PTR tv549[ebp], eax
$LN91@RenderBill:
  0087c	8b 85 78 ff ff
	ff		 mov	 eax, DWORD PTR tv549[ebp]
  00882	89 85 00 ff ff
	ff		 mov	 DWORD PTR _dwG$10[ebp], eax

; 933  :     DWORD dwB = b >= 1.0f ? 0xff : b <= 0.0f ? 0x00 : (DWORD) (b * 255.0f + 0.5f);

  00888	8b 45 7c	 mov	 eax, DWORD PTR _Color$[ebp]
  0088b	f3 0f 10 40 08	 movss	 xmm0, DWORD PTR [eax+8]
  00890	0f 2f 05 00 00
	00 00		 comiss	 xmm0, DWORD PTR __real@3f800000
  00897	72 0c		 jb	 SHORT $LN94@RenderBill
  00899	c7 85 70 ff ff
	ff ff 00 00 00	 mov	 DWORD PTR tv560[ebp], 255 ; 000000ffH
  008a3	eb 44		 jmp	 SHORT $LN95@RenderBill
$LN94@RenderBill:
  008a5	8b 45 7c	 mov	 eax, DWORD PTR _Color$[ebp]
  008a8	0f 57 c0	 xorps	 xmm0, xmm0
  008ab	0f 2f 40 08	 comiss	 xmm0, DWORD PTR [eax+8]
  008af	72 09		 jb	 SHORT $LN92@RenderBill
  008b1	83 a5 74 ff ff
	ff 00		 and	 DWORD PTR tv559[ebp], 0
  008b8	eb 23		 jmp	 SHORT $LN93@RenderBill
$LN92@RenderBill:
  008ba	8b 45 7c	 mov	 eax, DWORD PTR _Color$[ebp]
  008bd	f3 0f 10 40 08	 movss	 xmm0, DWORD PTR [eax+8]
  008c2	f3 0f 59 05 00
	00 00 00	 mulss	 xmm0, DWORD PTR __real@437f0000
  008ca	f3 0f 58 05 00
	00 00 00	 addss	 xmm0, DWORD PTR __real@3f000000
  008d2	e8 00 00 00 00	 call	 __ftoui3
  008d7	89 85 74 ff ff
	ff		 mov	 DWORD PTR tv559[ebp], eax
$LN93@RenderBill:
  008dd	8b 85 74 ff ff
	ff		 mov	 eax, DWORD PTR tv559[ebp]
  008e3	89 85 70 ff ff
	ff		 mov	 DWORD PTR tv560[ebp], eax
$LN95@RenderBill:
  008e9	8b 85 70 ff ff
	ff		 mov	 eax, DWORD PTR tv560[ebp]
  008ef	89 85 f4 fe ff
	ff		 mov	 DWORD PTR _dwB$7[ebp], eax

; 934  :     DWORD dwA = a >= 1.0f ? 0xff : a <= 0.0f ? 0x00 : (DWORD) (a * 255.0f + 0.5f);

  008f5	8b 45 7c	 mov	 eax, DWORD PTR _Color$[ebp]
  008f8	f3 0f 10 40 0c	 movss	 xmm0, DWORD PTR [eax+12]
  008fd	0f 2f 05 00 00
	00 00		 comiss	 xmm0, DWORD PTR __real@3f800000
  00904	72 0c		 jb	 SHORT $LN98@RenderBill
  00906	c7 85 68 ff ff
	ff ff 00 00 00	 mov	 DWORD PTR tv571[ebp], 255 ; 000000ffH
  00910	eb 44		 jmp	 SHORT $LN99@RenderBill
$LN98@RenderBill:
  00912	8b 45 7c	 mov	 eax, DWORD PTR _Color$[ebp]
  00915	0f 57 c0	 xorps	 xmm0, xmm0
  00918	0f 2f 40 0c	 comiss	 xmm0, DWORD PTR [eax+12]
  0091c	72 09		 jb	 SHORT $LN96@RenderBill
  0091e	83 a5 6c ff ff
	ff 00		 and	 DWORD PTR tv570[ebp], 0
  00925	eb 23		 jmp	 SHORT $LN97@RenderBill
$LN96@RenderBill:
  00927	8b 45 7c	 mov	 eax, DWORD PTR _Color$[ebp]
  0092a	f3 0f 10 40 0c	 movss	 xmm0, DWORD PTR [eax+12]
  0092f	f3 0f 59 05 00
	00 00 00	 mulss	 xmm0, DWORD PTR __real@437f0000
  00937	f3 0f 58 05 00
	00 00 00	 addss	 xmm0, DWORD PTR __real@3f000000
  0093f	e8 00 00 00 00	 call	 __ftoui3
  00944	89 85 6c ff ff
	ff		 mov	 DWORD PTR tv570[ebp], eax
$LN97@RenderBill:
  0094a	8b 85 6c ff ff
	ff		 mov	 eax, DWORD PTR tv570[ebp]
  00950	89 85 68 ff ff
	ff		 mov	 DWORD PTR tv571[ebp], eax
$LN99@RenderBill:
  00956	8b 85 68 ff ff
	ff		 mov	 eax, DWORD PTR tv571[ebp]
  0095c	89 85 f8 fe ff
	ff		 mov	 DWORD PTR _dwA$8[ebp], eax
; File D:\Metin2 Server Files\mainline\SRC_2014\Metin2Client\EterLib\GrpScreen.cpp

; 432  : 	vertices[3].diffuse = Color;

  00962	6a 18		 push	 24			; 00000018H
  00964	58		 pop	 eax
  00965	6b c0 03	 imul	 eax, eax, 3
; File D:\Metin2 Server Files\mainline\SRC_2014\M2Data\include\d3dx8math.inl

; 936  :     return (dwA << 24) | (dwR << 16) | (dwG << 8) | dwB;

  00968	8b 8d 00 ff ff
	ff		 mov	 ecx, DWORD PTR _dwG$10[ebp]
  0096e	c1 e1 08	 shl	 ecx, 8
  00971	8b 95 fc fe ff
	ff		 mov	 edx, DWORD PTR _dwR$9[ebp]
  00977	c1 e2 10	 shl	 edx, 16			; 00000010H
  0097a	8b b5 f8 fe ff
	ff		 mov	 esi, DWORD PTR _dwA$8[ebp]
  00980	c1 e6 18	 shl	 esi, 24			; 00000018H
  00983	0b f2		 or	 esi, edx
  00985	0b f1		 or	 esi, ecx
  00987	0b b5 f4 fe ff
	ff		 or	 esi, DWORD PTR _dwB$7[ebp]
; File D:\Metin2 Server Files\mainline\SRC_2014\Metin2Client\EterLib\GrpScreen.cpp

; 432  : 	vertices[3].diffuse = Color;

  0098d	89 74 05 18	 mov	 DWORD PTR _vertices$[ebp+eax+12], esi
; File D:\Metin2 Server Files\mainline\SRC_2014\M2Data\include\d3dx8math.inl

; 41   :     x = fx;

  00991	f3 0f 10 05 00
	00 00 00	 movss	 xmm0, DWORD PTR __real@3f800000
  00999	f3 0f 11 85 d0
	fe ff ff	 movss	 DWORD PTR $T2[ebp], xmm0

; 42   :     y = fy;

  009a1	f3 0f 10 05 00
	00 00 00	 movss	 xmm0, DWORD PTR __real@3f800000
  009a9	f3 0f 11 85 d4
	fe ff ff	 movss	 DWORD PTR $T2[ebp+4], xmm0
; File D:\Metin2 Server Files\mainline\SRC_2014\Metin2Client\EterLib\GrpScreen.cpp

; 433  : 	vertices[3].texCoord = TTextureCoordinate(1, 1);

  009b1	8b 85 d0 fe ff
	ff		 mov	 eax, DWORD PTR $T2[ebp]
  009b7	8b 8d d4 fe ff
	ff		 mov	 ecx, DWORD PTR $T2[ebp+4]
  009bd	6a 18		 push	 24			; 00000018H
  009bf	5a		 pop	 edx
  009c0	6b d2 03	 imul	 edx, edx, 3
  009c3	89 44 15 1c	 mov	 DWORD PTR _vertices$[ebp+edx+16], eax
  009c7	89 4c 15 20	 mov	 DWORD PTR _vertices$[ebp+edx+20], ecx

; 434  : 	
; 435  : 	STATEMANAGER.SetVertexShader(D3DFVF_XYZ|D3DFVF_DIFFUSE|D3DFVF_TEX1);

  009cb	68 42 01 00 00	 push	 322			; 00000142H
  009d0	8b 0d 00 00 00
	00		 mov	 ecx, DWORD PTR ?ms_singleton@?$CSingleton@VCStateManager@@@@0PAVCStateManager@@A ; CSingleton<CStateManager>::ms_singleton
  009d6	e8 00 00 00 00	 call	 ?SetVertexShader@CStateManager@@QAEXK@Z ; CStateManager::SetVertexShader

; 436  : 
; 437  : 	// 2004.11.18.myevan.DrawIndexPrimitiveUP -> DynamicVertexBuffer
; 438  : 	SetDefaultIndexBuffer(DEFAULT_IB_FILL_RECT);

  009db	6a 05		 push	 5
  009dd	e8 00 00 00 00	 call	 ?SetDefaultIndexBuffer@CGraphicBase@@SAXI@Z ; CGraphicBase::SetDefaultIndexBuffer
  009e2	59		 pop	 ecx

; 439  : 	if (SetPDTStream(vertices, 4))

  009e3	6a 04		 push	 4
  009e5	8d 45 0c	 lea	 eax, DWORD PTR _vertices$[ebp]
  009e8	50		 push	 eax
  009e9	e8 00 00 00 00	 call	 ?SetPDTStream@CGraphicBase@@SA_NPAUSPDTVertex@@I@Z ; CGraphicBase::SetPDTStream
  009ee	59		 pop	 ecx
  009ef	59		 pop	 ecx
  009f0	0f b6 c0	 movzx	 eax, al
  009f3	85 c0		 test	 eax, eax
  009f5	74 15		 je	 SHORT $LN2@RenderBill

; 440  : 		STATEMANAGER.DrawIndexedPrimitive(D3DPT_TRIANGLELIST, 0, 4, 0, 2);

  009f7	6a 02		 push	 2
  009f9	6a 00		 push	 0
  009fb	6a 04		 push	 4
  009fd	6a 00		 push	 0
  009ff	6a 04		 push	 4
  00a01	8b 0d 00 00 00
	00		 mov	 ecx, DWORD PTR ?ms_singleton@?$CSingleton@VCStateManager@@@@0PAVCStateManager@@A ; CSingleton<CStateManager>::ms_singleton
  00a07	e8 00 00 00 00	 call	 ?DrawIndexedPrimitive@CStateManager@@QAEJW4_D3DPRIMITIVETYPE@@IIII@Z ; CStateManager::DrawIndexedPrimitive
$LN2@RenderBill:

; 441  : 	//OLD: STATEMANAGER.DrawIndexedPrimitiveUP(D3DPT_TRIANGLELIST, 0, 4, 2, &ms_fillRectIdxVector[0], D3DFMT_INDEX16, vertices, sizeof(TPDTVertex));
; 442  : }

  00a0c	5f		 pop	 edi
  00a0d	5e		 pop	 esi
  00a0e	8b 4d 6c	 mov	 ecx, DWORD PTR __$ArrayPad$[ebp]
  00a11	33 cd		 xor	 ecx, ebp
  00a13	e8 00 00 00 00	 call	 @__security_check_cookie@4
  00a18	83 c5 70	 add	 ebp, 112		; 00000070H
  00a1b	c9		 leave
  00a1c	c2 08 00	 ret	 8
?RenderBillboard@CScreen@@QAEXPAUD3DXVECTOR3@@AAUD3DXCOLOR@@@Z ENDP ; CScreen::RenderBillboard
_TEXT	ENDS
; Function compile flags: /Odspy
; File D:\Metin2 Server Files\mainline\SRC_2014\Metin2Client\EterLib\GrpScreen.cpp
; File D:\Metin2 Server Files\mainline\SRC_2014\M2Data\include\d3dx8math.inl
; File D:\Metin2 Server Files\mainline\SRC_2014\Metin2Client\EterLib\GrpScreen.cpp
; File D:\Metin2 Server Files\mainline\SRC_2014\M2Data\include\d3dx8math.inl
; File D:\Metin2 Server Files\mainline\SRC_2014\Metin2Client\EterLib\GrpScreen.cpp
; File D:\Metin2 Server Files\mainline\SRC_2014\M2Data\include\d3dx8math.inl
; File D:\Metin2 Server Files\mainline\SRC_2014\Metin2Client\EterLib\GrpScreen.cpp
; File D:\Metin2 Server Files\mainline\SRC_2014\M2Data\include\d3dx8math.inl
; File D:\Metin2 Server Files\mainline\SRC_2014\Metin2Client\EterLib\GrpScreen.cpp
; File D:\Metin2 Server Files\mainline\SRC_2014\M2Data\include\d3dx8math.inl
; File D:\Metin2 Server Files\mainline\SRC_2014\Metin2Client\EterLib\GrpScreen.cpp
; File D:\Metin2 Server Files\mainline\SRC_2014\M2Data\include\d3dx8math.inl
; File D:\Metin2 Server Files\mainline\SRC_2014\Metin2Client\EterLib\GrpScreen.cpp
; File D:\Metin2 Server Files\mainline\SRC_2014\M2Data\include\d3dx8math.inl
; File D:\Metin2 Server Files\mainline\SRC_2014\Metin2Client\EterLib\GrpScreen.cpp
; File D:\Metin2 Server Files\mainline\SRC_2014\M2Data\include\d3dx8math.inl
; File D:\Metin2 Server Files\mainline\SRC_2014\Metin2Client\EterLib\GrpScreen.cpp
;	COMDAT ?RenderTextureBox@CScreen@@QAEXMMMMMMMMM@Z
_TEXT	SEGMENT
_this$ = -112						; size = 4
$T1 = -108						; size = 8
$T2 = -100						; size = 8
$T3 = -92						; size = 8
$T4 = -84						; size = 8
tv198 = -76						; size = 4
___t$ = -72						; size = 4
___n$ = -68						; size = 4
$T5 = -64						; size = 12
$T6 = -52						; size = 12
$T7 = -40						; size = 12
$T8 = -28						; size = 12
_vertices$ = -16					; size = 96
__$ArrayPad$ = 80					; size = 4
_sx$ = 92						; size = 4
_sy$ = 96						; size = 4
_ex$ = 100						; size = 4
_ey$ = 104						; size = 4
_z$ = 108						; size = 4
_su$ = 112						; size = 4
_sv$ = 116						; size = 4
_eu$ = 120						; size = 4
_ev$ = 124						; size = 4
?RenderTextureBox@CScreen@@QAEXMMMMMMMMM@Z PROC		; CScreen::RenderTextureBox, COMDAT
; _this$ = ecx

; 380  : {

  00000	55		 push	 ebp
  00001	8d 6c 24 ac	 lea	 ebp, DWORD PTR [esp-84]
  00005	81 ec c4 00 00
	00		 sub	 esp, 196		; 000000c4H
  0000b	a1 00 00 00 00	 mov	 eax, DWORD PTR ___security_cookie
  00010	33 c5		 xor	 eax, ebp
  00012	89 45 50	 mov	 DWORD PTR __$ArrayPad$[ebp], eax
  00015	56		 push	 esi
  00016	57		 push	 edi
  00017	89 4d 90	 mov	 DWORD PTR _this$[ebp], ecx

; 381  : 	assert(ms_lpd3dDevice != NULL);
; 382  : 
; 383  : 	TPDTVertex vertices[4];

  0001a	c7 45 bc 04 00
	00 00		 mov	 DWORD PTR ___n$[ebp], 4
  00021	8d 45 f0	 lea	 eax, DWORD PTR _vertices$[ebp]
  00024	89 45 b8	 mov	 DWORD PTR ___t$[ebp], eax
$LN5@RenderText:
  00027	8b 45 bc	 mov	 eax, DWORD PTR ___n$[ebp]
  0002a	89 45 b4	 mov	 DWORD PTR tv198[ebp], eax
  0002d	8b 45 bc	 mov	 eax, DWORD PTR ___n$[ebp]
  00030	48		 dec	 eax
  00031	89 45 bc	 mov	 DWORD PTR ___n$[ebp], eax
  00034	83 7d b4 00	 cmp	 DWORD PTR tv198[ebp], 0
  00038	76 0b		 jbe	 SHORT $LN6@RenderText
  0003a	8b 45 b8	 mov	 eax, DWORD PTR ___t$[ebp]
  0003d	83 c0 18	 add	 eax, 24			; 00000018H
  00040	89 45 b8	 mov	 DWORD PTR ___t$[ebp], eax
  00043	eb e2		 jmp	 SHORT $LN5@RenderText
$LN6@RenderText:
; File D:\Metin2 Server Files\mainline\SRC_2014\M2Data\include\d3dx8math.inl

; 180  :     x = fx;

  00045	f3 0f 10 45 5c	 movss	 xmm0, DWORD PTR _sx$[ebp]
  0004a	f3 0f 11 45 e4	 movss	 DWORD PTR $T8[ebp], xmm0

; 181  :     y = fy;

  0004f	f3 0f 10 45 60	 movss	 xmm0, DWORD PTR _sy$[ebp]
  00054	f3 0f 11 45 e8	 movss	 DWORD PTR $T8[ebp+4], xmm0

; 182  :     z = fz;

  00059	f3 0f 10 45 6c	 movss	 xmm0, DWORD PTR _z$[ebp]
  0005e	f3 0f 11 45 ec	 movss	 DWORD PTR $T8[ebp+8], xmm0
; File D:\Metin2 Server Files\mainline\SRC_2014\Metin2Client\EterLib\GrpScreen.cpp

; 385  : 	vertices[0].position = TPosition(sx, sy, z);

  00063	6a 18		 push	 24			; 00000018H
  00065	58		 pop	 eax
  00066	6b c0 00	 imul	 eax, eax, 0
  00069	8d 7c 05 f0	 lea	 edi, DWORD PTR _vertices$[ebp+eax]
  0006d	8d 75 e4	 lea	 esi, DWORD PTR $T8[ebp]
  00070	a5		 movsd
  00071	a5		 movsd
  00072	a5		 movsd

; 386  : 	vertices[0].diffuse = ms_diffuseColor;

  00073	6a 18		 push	 24			; 00000018H
  00075	58		 pop	 eax
  00076	6b c0 00	 imul	 eax, eax, 0
  00079	8b 0d 00 00 00
	00		 mov	 ecx, DWORD PTR ?ms_diffuseColor@CScreen@@1KA ; CScreen::ms_diffuseColor
  0007f	89 4c 05 fc	 mov	 DWORD PTR _vertices$[ebp+eax+12], ecx
; File D:\Metin2 Server Files\mainline\SRC_2014\M2Data\include\d3dx8math.inl

; 41   :     x = fx;

  00083	f3 0f 10 45 70	 movss	 xmm0, DWORD PTR _su$[ebp]
  00088	f3 0f 11 45 ac	 movss	 DWORD PTR $T4[ebp], xmm0

; 42   :     y = fy;

  0008d	f3 0f 10 45 74	 movss	 xmm0, DWORD PTR _sv$[ebp]
  00092	f3 0f 11 45 b0	 movss	 DWORD PTR $T4[ebp+4], xmm0
; File D:\Metin2 Server Files\mainline\SRC_2014\Metin2Client\EterLib\GrpScreen.cpp

; 387  : 	vertices[0].texCoord = TTextureCoordinate(su, sv);

  00097	8b 45 ac	 mov	 eax, DWORD PTR $T4[ebp]
  0009a	8b 4d b0	 mov	 ecx, DWORD PTR $T4[ebp+4]
  0009d	6a 18		 push	 24			; 00000018H
  0009f	5a		 pop	 edx
  000a0	6b d2 00	 imul	 edx, edx, 0
  000a3	89 44 15 00	 mov	 DWORD PTR _vertices$[ebp+edx+16], eax
  000a7	89 4c 15 04	 mov	 DWORD PTR _vertices$[ebp+edx+20], ecx
; File D:\Metin2 Server Files\mainline\SRC_2014\M2Data\include\d3dx8math.inl

; 180  :     x = fx;

  000ab	f3 0f 10 45 64	 movss	 xmm0, DWORD PTR _ex$[ebp]
  000b0	f3 0f 11 45 d8	 movss	 DWORD PTR $T7[ebp], xmm0

; 181  :     y = fy;

  000b5	f3 0f 10 45 60	 movss	 xmm0, DWORD PTR _sy$[ebp]
  000ba	f3 0f 11 45 dc	 movss	 DWORD PTR $T7[ebp+4], xmm0

; 182  :     z = fz;

  000bf	f3 0f 10 45 6c	 movss	 xmm0, DWORD PTR _z$[ebp]
  000c4	f3 0f 11 45 e0	 movss	 DWORD PTR $T7[ebp+8], xmm0
; File D:\Metin2 Server Files\mainline\SRC_2014\Metin2Client\EterLib\GrpScreen.cpp

; 389  : 	vertices[1].position = TPosition(ex, sy, z);

  000c9	6a 18		 push	 24			; 00000018H
  000cb	58		 pop	 eax
  000cc	c1 e0 00	 shl	 eax, 0
  000cf	8d 7c 05 f0	 lea	 edi, DWORD PTR _vertices$[ebp+eax]
  000d3	8d 75 d8	 lea	 esi, DWORD PTR $T7[ebp]
  000d6	a5		 movsd
  000d7	a5		 movsd
  000d8	a5		 movsd

; 390  : 	vertices[1].diffuse = ms_diffuseColor;

  000d9	6a 18		 push	 24			; 00000018H
  000db	58		 pop	 eax
  000dc	c1 e0 00	 shl	 eax, 0
  000df	8b 0d 00 00 00
	00		 mov	 ecx, DWORD PTR ?ms_diffuseColor@CScreen@@1KA ; CScreen::ms_diffuseColor
  000e5	89 4c 05 fc	 mov	 DWORD PTR _vertices$[ebp+eax+12], ecx
; File D:\Metin2 Server Files\mainline\SRC_2014\M2Data\include\d3dx8math.inl

; 41   :     x = fx;

  000e9	f3 0f 10 45 78	 movss	 xmm0, DWORD PTR _eu$[ebp]
  000ee	f3 0f 11 45 a4	 movss	 DWORD PTR $T3[ebp], xmm0

; 42   :     y = fy;

  000f3	f3 0f 10 45 74	 movss	 xmm0, DWORD PTR _sv$[ebp]
  000f8	f3 0f 11 45 a8	 movss	 DWORD PTR $T3[ebp+4], xmm0
; File D:\Metin2 Server Files\mainline\SRC_2014\Metin2Client\EterLib\GrpScreen.cpp

; 391  : 	vertices[1].texCoord = TTextureCoordinate(eu, sv);

  000fd	8b 45 a4	 mov	 eax, DWORD PTR $T3[ebp]
  00100	8b 4d a8	 mov	 ecx, DWORD PTR $T3[ebp+4]
  00103	6a 18		 push	 24			; 00000018H
  00105	5a		 pop	 edx
  00106	c1 e2 00	 shl	 edx, 0
  00109	89 44 15 00	 mov	 DWORD PTR _vertices$[ebp+edx+16], eax
  0010d	89 4c 15 04	 mov	 DWORD PTR _vertices$[ebp+edx+20], ecx
; File D:\Metin2 Server Files\mainline\SRC_2014\M2Data\include\d3dx8math.inl

; 180  :     x = fx;

  00111	f3 0f 10 45 5c	 movss	 xmm0, DWORD PTR _sx$[ebp]
  00116	f3 0f 11 45 cc	 movss	 DWORD PTR $T6[ebp], xmm0

; 181  :     y = fy;

  0011b	f3 0f 10 45 68	 movss	 xmm0, DWORD PTR _ey$[ebp]
  00120	f3 0f 11 45 d0	 movss	 DWORD PTR $T6[ebp+4], xmm0

; 182  :     z = fz;

  00125	f3 0f 10 45 6c	 movss	 xmm0, DWORD PTR _z$[ebp]
  0012a	f3 0f 11 45 d4	 movss	 DWORD PTR $T6[ebp+8], xmm0
; File D:\Metin2 Server Files\mainline\SRC_2014\Metin2Client\EterLib\GrpScreen.cpp

; 393  : 	vertices[2].position = TPosition(sx, ey, z);

  0012f	6a 18		 push	 24			; 00000018H
  00131	58		 pop	 eax
  00132	d1 e0		 shl	 eax, 1
  00134	8d 7c 05 f0	 lea	 edi, DWORD PTR _vertices$[ebp+eax]
  00138	8d 75 cc	 lea	 esi, DWORD PTR $T6[ebp]
  0013b	a5		 movsd
  0013c	a5		 movsd
  0013d	a5		 movsd

; 394  : 	vertices[2].diffuse = ms_diffuseColor;

  0013e	6a 18		 push	 24			; 00000018H
  00140	58		 pop	 eax
  00141	d1 e0		 shl	 eax, 1
  00143	8b 0d 00 00 00
	00		 mov	 ecx, DWORD PTR ?ms_diffuseColor@CScreen@@1KA ; CScreen::ms_diffuseColor
  00149	89 4c 05 fc	 mov	 DWORD PTR _vertices$[ebp+eax+12], ecx
; File D:\Metin2 Server Files\mainline\SRC_2014\M2Data\include\d3dx8math.inl

; 41   :     x = fx;

  0014d	f3 0f 10 45 70	 movss	 xmm0, DWORD PTR _su$[ebp]
  00152	f3 0f 11 45 9c	 movss	 DWORD PTR $T2[ebp], xmm0

; 42   :     y = fy;

  00157	f3 0f 10 45 7c	 movss	 xmm0, DWORD PTR _ev$[ebp]
  0015c	f3 0f 11 45 a0	 movss	 DWORD PTR $T2[ebp+4], xmm0
; File D:\Metin2 Server Files\mainline\SRC_2014\Metin2Client\EterLib\GrpScreen.cpp

; 395  : 	vertices[2].texCoord = TTextureCoordinate(su, ev);

  00161	8b 45 9c	 mov	 eax, DWORD PTR $T2[ebp]
  00164	8b 4d a0	 mov	 ecx, DWORD PTR $T2[ebp+4]
  00167	6a 18		 push	 24			; 00000018H
  00169	5a		 pop	 edx
  0016a	d1 e2		 shl	 edx, 1
  0016c	89 44 15 00	 mov	 DWORD PTR _vertices$[ebp+edx+16], eax
  00170	89 4c 15 04	 mov	 DWORD PTR _vertices$[ebp+edx+20], ecx
; File D:\Metin2 Server Files\mainline\SRC_2014\M2Data\include\d3dx8math.inl

; 180  :     x = fx;

  00174	f3 0f 10 45 64	 movss	 xmm0, DWORD PTR _ex$[ebp]
  00179	f3 0f 11 45 c0	 movss	 DWORD PTR $T5[ebp], xmm0

; 181  :     y = fy;

  0017e	f3 0f 10 45 68	 movss	 xmm0, DWORD PTR _ey$[ebp]
  00183	f3 0f 11 45 c4	 movss	 DWORD PTR $T5[ebp+4], xmm0

; 182  :     z = fz;

  00188	f3 0f 10 45 6c	 movss	 xmm0, DWORD PTR _z$[ebp]
  0018d	f3 0f 11 45 c8	 movss	 DWORD PTR $T5[ebp+8], xmm0
; File D:\Metin2 Server Files\mainline\SRC_2014\Metin2Client\EterLib\GrpScreen.cpp

; 397  : 	vertices[3].position = TPosition(ex, ey, z);

  00192	6a 18		 push	 24			; 00000018H
  00194	58		 pop	 eax
  00195	6b c0 03	 imul	 eax, eax, 3
  00198	8d 7c 05 f0	 lea	 edi, DWORD PTR _vertices$[ebp+eax]
  0019c	8d 75 c0	 lea	 esi, DWORD PTR $T5[ebp]
  0019f	a5		 movsd
  001a0	a5		 movsd
  001a1	a5		 movsd

; 398  : 	vertices[3].diffuse = ms_diffuseColor;

  001a2	6a 18		 push	 24			; 00000018H
  001a4	58		 pop	 eax
  001a5	6b c0 03	 imul	 eax, eax, 3
  001a8	8b 0d 00 00 00
	00		 mov	 ecx, DWORD PTR ?ms_diffuseColor@CScreen@@1KA ; CScreen::ms_diffuseColor
  001ae	89 4c 05 fc	 mov	 DWORD PTR _vertices$[ebp+eax+12], ecx
; File D:\Metin2 Server Files\mainline\SRC_2014\M2Data\include\d3dx8math.inl

; 41   :     x = fx;

  001b2	f3 0f 10 45 78	 movss	 xmm0, DWORD PTR _eu$[ebp]
  001b7	f3 0f 11 45 94	 movss	 DWORD PTR $T1[ebp], xmm0

; 42   :     y = fy;

  001bc	f3 0f 10 45 7c	 movss	 xmm0, DWORD PTR _ev$[ebp]
  001c1	f3 0f 11 45 98	 movss	 DWORD PTR $T1[ebp+4], xmm0
; File D:\Metin2 Server Files\mainline\SRC_2014\Metin2Client\EterLib\GrpScreen.cpp

; 399  : 	vertices[3].texCoord = TTextureCoordinate(eu, ev);

  001c6	8b 45 94	 mov	 eax, DWORD PTR $T1[ebp]
  001c9	8b 4d 98	 mov	 ecx, DWORD PTR $T1[ebp+4]
  001cc	6a 18		 push	 24			; 00000018H
  001ce	5a		 pop	 edx
  001cf	6b d2 03	 imul	 edx, edx, 3
  001d2	89 44 15 00	 mov	 DWORD PTR _vertices$[ebp+edx+16], eax
  001d6	89 4c 15 04	 mov	 DWORD PTR _vertices$[ebp+edx+20], ecx

; 400  : 
; 401  : #ifdef WORLD_EDITOR
; 402  : 	STATEMANAGER.SetTransform(D3DTS_WORLD, ms_lpd3dMatStack->GetTop());
; 403  : #endif
; 404  : 	STATEMANAGER.SetVertexShader(D3DFVF_XYZ|D3DFVF_DIFFUSE|D3DFVF_TEX1);

  001da	68 42 01 00 00	 push	 322			; 00000142H
  001df	8b 0d 00 00 00
	00		 mov	 ecx, DWORD PTR ?ms_singleton@?$CSingleton@VCStateManager@@@@0PAVCStateManager@@A ; CSingleton<CStateManager>::ms_singleton
  001e5	e8 00 00 00 00	 call	 ?SetVertexShader@CStateManager@@QAEXK@Z ; CStateManager::SetVertexShader

; 405  : 
; 406  : 	// 2004.11.18.myevan.DrawIndexPrimitiveUP -> DynamicVertexBuffer
; 407  : 	SetDefaultIndexBuffer(DEFAULT_IB_FILL_RECT);

  001ea	6a 05		 push	 5
  001ec	e8 00 00 00 00	 call	 ?SetDefaultIndexBuffer@CGraphicBase@@SAXI@Z ; CGraphicBase::SetDefaultIndexBuffer
  001f1	59		 pop	 ecx

; 408  : 	if (SetPDTStream(vertices, 4))

  001f2	6a 04		 push	 4
  001f4	8d 45 f0	 lea	 eax, DWORD PTR _vertices$[ebp]
  001f7	50		 push	 eax
  001f8	e8 00 00 00 00	 call	 ?SetPDTStream@CGraphicBase@@SA_NPAUSPDTVertex@@I@Z ; CGraphicBase::SetPDTStream
  001fd	59		 pop	 ecx
  001fe	59		 pop	 ecx
  001ff	0f b6 c0	 movzx	 eax, al
  00202	85 c0		 test	 eax, eax
  00204	74 15		 je	 SHORT $LN2@RenderText

; 409  : 		STATEMANAGER.DrawIndexedPrimitive(D3DPT_TRIANGLELIST, 0, 4, 0, 2);

  00206	6a 02		 push	 2
  00208	6a 00		 push	 0
  0020a	6a 04		 push	 4
  0020c	6a 00		 push	 0
  0020e	6a 04		 push	 4
  00210	8b 0d 00 00 00
	00		 mov	 ecx, DWORD PTR ?ms_singleton@?$CSingleton@VCStateManager@@@@0PAVCStateManager@@A ; CSingleton<CStateManager>::ms_singleton
  00216	e8 00 00 00 00	 call	 ?DrawIndexedPrimitive@CStateManager@@QAEJW4_D3DPRIMITIVETYPE@@IIII@Z ; CStateManager::DrawIndexedPrimitive
$LN2@RenderText:

; 410  : 	//OLD: STATEMANAGER.DrawIndexedPrimitiveUP(D3DPT_TRIANGLELIST, 0, 4, 2, &ms_fillRectIdxVector[0], D3DFMT_INDEX16, vertices, sizeof(TPDTVertex));
; 411  : }

  0021b	5f		 pop	 edi
  0021c	5e		 pop	 esi
  0021d	8b 4d 50	 mov	 ecx, DWORD PTR __$ArrayPad$[ebp]
  00220	33 cd		 xor	 ecx, ebp
  00222	e8 00 00 00 00	 call	 @__security_check_cookie@4
  00227	83 c5 54	 add	 ebp, 84			; 00000054H
  0022a	c9		 leave
  0022b	c2 24 00	 ret	 36			; 00000024H
?RenderTextureBox@CScreen@@QAEXMMMMMMMMM@Z ENDP		; CScreen::RenderTextureBox
_TEXT	ENDS
; Function compile flags: /Odspy
; File D:\Metin2 Server Files\mainline\SRC_2014\Metin2Client\EterLib\GrpScreen.cpp
; File D:\Metin2 Server Files\mainline\SRC_2014\M2Data\include\d3dx8math.inl
; File D:\Metin2 Server Files\mainline\SRC_2014\Metin2Client\EterLib\GrpScreen.cpp
; File D:\Metin2 Server Files\mainline\SRC_2014\M2Data\include\d3dx8math.inl
; File D:\Metin2 Server Files\mainline\SRC_2014\Metin2Client\EterLib\GrpScreen.cpp
; File D:\Metin2 Server Files\mainline\SRC_2014\M2Data\include\d3dx8math.inl
; File D:\Metin2 Server Files\mainline\SRC_2014\Metin2Client\EterLib\GrpScreen.cpp
; File D:\Metin2 Server Files\mainline\SRC_2014\M2Data\include\d3dx8math.inl
; File D:\Metin2 Server Files\mainline\SRC_2014\Metin2Client\EterLib\GrpScreen.cpp
; File D:\Metin2 Server Files\mainline\SRC_2014\M2Data\include\d3dx8math.inl
; File D:\Metin2 Server Files\mainline\SRC_2014\Metin2Client\EterLib\GrpScreen.cpp
; File D:\Metin2 Server Files\mainline\SRC_2014\Metin2Client\eterBase\Singleton.h
; File D:\Metin2 Server Files\mainline\SRC_2014\Metin2Client\EterLib\GrpScreen.cpp
;	COMDAT ?RenderCube@CScreen@@QAEXMMMMMMUD3DXMATRIX@@@Z
_TEXT	SEGMENT
_this$ = -372						; size = 4
$T1 = -368						; size = 4
_fz$ = -364						; size = 4
_fy$ = -360						; size = 4
_fx$ = -356						; size = 4
_fz$ = -352						; size = 4
_fy$ = -348						; size = 4
_fx$ = -344						; size = 4
_this$ = -340						; size = 4
_this$ = -336						; size = 4
_i$2 = -332						; size = 4
$T3 = -328						; size = 12
$T4 = -316						; size = 12
_v3Center$ = -304					; size = 12
_vertices$ = -292					; size = 192
_v3Vertex$ = -100					; size = 96
__$ArrayPad$ = -4					; size = 4
_sx$ = 8						; size = 4
_sy$ = 12						; size = 4
_sz$ = 16						; size = 4
_ex$ = 20						; size = 4
_ey$ = 24						; size = 4
_ez$ = 28						; size = 4
_matRotation$ = 32					; size = 64
?RenderCube@CScreen@@QAEXMMMMMMUD3DXMATRIX@@@Z PROC	; CScreen::RenderCube, COMDAT
; _this$ = ecx

; 192  : {

  00000	55		 push	 ebp
  00001	8b ec		 mov	 ebp, esp
  00003	81 ec 74 01 00
	00		 sub	 esp, 372		; 00000174H
  00009	a1 00 00 00 00	 mov	 eax, DWORD PTR ___security_cookie
  0000e	33 c5		 xor	 eax, ebp
  00010	89 45 fc	 mov	 DWORD PTR __$ArrayPad$[ebp], eax
  00013	56		 push	 esi
  00014	57		 push	 edi
  00015	89 8d 8c fe ff
	ff		 mov	 DWORD PTR _this$[ebp], ecx

; 193  : 	D3DXVECTOR3 v3Center = D3DXVECTOR3((sx + ex) * 0.5f, (sy + ey) * 0.5f, (sz + ez) * 0.5f);

  0001b	f3 0f 10 45 08	 movss	 xmm0, DWORD PTR _sx$[ebp]
  00020	f3 0f 58 45 14	 addss	 xmm0, DWORD PTR _ex$[ebp]
  00025	f3 0f 59 05 00
	00 00 00	 mulss	 xmm0, DWORD PTR __real@3f000000
; File D:\Metin2 Server Files\mainline\SRC_2014\M2Data\include\d3dx8math.inl

; 180  :     x = fx;

  0002d	f3 0f 11 85 d0
	fe ff ff	 movss	 DWORD PTR _v3Center$[ebp], xmm0
; File D:\Metin2 Server Files\mainline\SRC_2014\Metin2Client\EterLib\GrpScreen.cpp

; 193  : 	D3DXVECTOR3 v3Center = D3DXVECTOR3((sx + ex) * 0.5f, (sy + ey) * 0.5f, (sz + ez) * 0.5f);

  00035	f3 0f 10 45 0c	 movss	 xmm0, DWORD PTR _sy$[ebp]
  0003a	f3 0f 58 45 18	 addss	 xmm0, DWORD PTR _ey$[ebp]
  0003f	f3 0f 59 05 00
	00 00 00	 mulss	 xmm0, DWORD PTR __real@3f000000
; File D:\Metin2 Server Files\mainline\SRC_2014\M2Data\include\d3dx8math.inl

; 181  :     y = fy;

  00047	f3 0f 11 85 d4
	fe ff ff	 movss	 DWORD PTR _v3Center$[ebp+4], xmm0
; File D:\Metin2 Server Files\mainline\SRC_2014\Metin2Client\EterLib\GrpScreen.cpp

; 193  : 	D3DXVECTOR3 v3Center = D3DXVECTOR3((sx + ex) * 0.5f, (sy + ey) * 0.5f, (sz + ez) * 0.5f);

  0004f	f3 0f 10 45 10	 movss	 xmm0, DWORD PTR _sz$[ebp]
  00054	f3 0f 58 45 1c	 addss	 xmm0, DWORD PTR _ez$[ebp]
  00059	f3 0f 59 05 00
	00 00 00	 mulss	 xmm0, DWORD PTR __real@3f000000
; File D:\Metin2 Server Files\mainline\SRC_2014\M2Data\include\d3dx8math.inl

; 182  :     z = fz;

  00061	f3 0f 11 85 d8
	fe ff ff	 movss	 DWORD PTR _v3Center$[ebp+8], xmm0

; 180  :     x = fx;

  00069	f3 0f 10 45 08	 movss	 xmm0, DWORD PTR _sx$[ebp]
  0006e	f3 0f 11 45 9c	 movss	 DWORD PTR _v3Vertex$[ebp], xmm0

; 181  :     y = fy;

  00073	f3 0f 10 45 0c	 movss	 xmm0, DWORD PTR _sy$[ebp]
  00078	f3 0f 11 45 a0	 movss	 DWORD PTR _v3Vertex$[ebp+4], xmm0

; 182  :     z = fz;

  0007d	f3 0f 10 45 10	 movss	 xmm0, DWORD PTR _sz$[ebp]
  00082	f3 0f 11 45 a4	 movss	 DWORD PTR _v3Vertex$[ebp+8], xmm0

; 180  :     x = fx;

  00087	f3 0f 10 45 14	 movss	 xmm0, DWORD PTR _ex$[ebp]
  0008c	f3 0f 11 45 a8	 movss	 DWORD PTR _v3Vertex$[ebp+12], xmm0

; 181  :     y = fy;

  00091	f3 0f 10 45 0c	 movss	 xmm0, DWORD PTR _sy$[ebp]
  00096	f3 0f 11 45 ac	 movss	 DWORD PTR _v3Vertex$[ebp+16], xmm0

; 182  :     z = fz;

  0009b	f3 0f 10 45 10	 movss	 xmm0, DWORD PTR _sz$[ebp]
  000a0	f3 0f 11 45 b0	 movss	 DWORD PTR _v3Vertex$[ebp+20], xmm0

; 180  :     x = fx;

  000a5	f3 0f 10 45 08	 movss	 xmm0, DWORD PTR _sx$[ebp]
  000aa	f3 0f 11 45 b4	 movss	 DWORD PTR _v3Vertex$[ebp+24], xmm0

; 181  :     y = fy;

  000af	f3 0f 10 45 18	 movss	 xmm0, DWORD PTR _ey$[ebp]
  000b4	f3 0f 11 45 b8	 movss	 DWORD PTR _v3Vertex$[ebp+28], xmm0

; 182  :     z = fz;

  000b9	f3 0f 10 45 10	 movss	 xmm0, DWORD PTR _sz$[ebp]
  000be	f3 0f 11 45 bc	 movss	 DWORD PTR _v3Vertex$[ebp+32], xmm0

; 180  :     x = fx;

  000c3	f3 0f 10 45 14	 movss	 xmm0, DWORD PTR _ex$[ebp]
  000c8	f3 0f 11 45 c0	 movss	 DWORD PTR _v3Vertex$[ebp+36], xmm0

; 181  :     y = fy;

  000cd	f3 0f 10 45 18	 movss	 xmm0, DWORD PTR _ey$[ebp]
  000d2	f3 0f 11 45 c4	 movss	 DWORD PTR _v3Vertex$[ebp+40], xmm0

; 182  :     z = fz;

  000d7	f3 0f 10 45 10	 movss	 xmm0, DWORD PTR _sz$[ebp]
  000dc	f3 0f 11 45 c8	 movss	 DWORD PTR _v3Vertex$[ebp+44], xmm0

; 180  :     x = fx;

  000e1	f3 0f 10 45 08	 movss	 xmm0, DWORD PTR _sx$[ebp]
  000e6	f3 0f 11 45 cc	 movss	 DWORD PTR _v3Vertex$[ebp+48], xmm0

; 181  :     y = fy;

  000eb	f3 0f 10 45 0c	 movss	 xmm0, DWORD PTR _sy$[ebp]
  000f0	f3 0f 11 45 d0	 movss	 DWORD PTR _v3Vertex$[ebp+52], xmm0

; 182  :     z = fz;

  000f5	f3 0f 10 45 1c	 movss	 xmm0, DWORD PTR _ez$[ebp]
  000fa	f3 0f 11 45 d4	 movss	 DWORD PTR _v3Vertex$[ebp+56], xmm0

; 180  :     x = fx;

  000ff	f3 0f 10 45 14	 movss	 xmm0, DWORD PTR _ex$[ebp]
  00104	f3 0f 11 45 d8	 movss	 DWORD PTR _v3Vertex$[ebp+60], xmm0

; 181  :     y = fy;

  00109	f3 0f 10 45 0c	 movss	 xmm0, DWORD PTR _sy$[ebp]
  0010e	f3 0f 11 45 dc	 movss	 DWORD PTR _v3Vertex$[ebp+64], xmm0

; 182  :     z = fz;

  00113	f3 0f 10 45 1c	 movss	 xmm0, DWORD PTR _ez$[ebp]
  00118	f3 0f 11 45 e0	 movss	 DWORD PTR _v3Vertex$[ebp+68], xmm0

; 180  :     x = fx;

  0011d	f3 0f 10 45 08	 movss	 xmm0, DWORD PTR _sx$[ebp]
  00122	f3 0f 11 45 e4	 movss	 DWORD PTR _v3Vertex$[ebp+72], xmm0

; 181  :     y = fy;

  00127	f3 0f 10 45 18	 movss	 xmm0, DWORD PTR _ey$[ebp]
  0012c	f3 0f 11 45 e8	 movss	 DWORD PTR _v3Vertex$[ebp+76], xmm0

; 182  :     z = fz;

  00131	f3 0f 10 45 1c	 movss	 xmm0, DWORD PTR _ez$[ebp]
  00136	f3 0f 11 45 ec	 movss	 DWORD PTR _v3Vertex$[ebp+80], xmm0

; 180  :     x = fx;

  0013b	f3 0f 10 45 14	 movss	 xmm0, DWORD PTR _ex$[ebp]
  00140	f3 0f 11 45 f0	 movss	 DWORD PTR _v3Vertex$[ebp+84], xmm0

; 181  :     y = fy;

  00145	f3 0f 10 45 18	 movss	 xmm0, DWORD PTR _ey$[ebp]
  0014a	f3 0f 11 45 f4	 movss	 DWORD PTR _v3Vertex$[ebp+88], xmm0

; 182  :     z = fz;

  0014f	f3 0f 10 45 1c	 movss	 xmm0, DWORD PTR _ez$[ebp]
  00154	f3 0f 11 45 f8	 movss	 DWORD PTR _v3Vertex$[ebp+92], xmm0
; File D:\Metin2 Server Files\mainline\SRC_2014\Metin2Client\EterLib\GrpScreen.cpp

; 207  : 	for(int i = 0; i < 8; i++)

  00159	83 a5 b4 fe ff
	ff 00		 and	 DWORD PTR _i$2[ebp], 0
  00160	eb 0d		 jmp	 SHORT $LN4@RenderCube
$LN2@RenderCube:
  00162	8b 85 b4 fe ff
	ff		 mov	 eax, DWORD PTR _i$2[ebp]
  00168	40		 inc	 eax
  00169	89 85 b4 fe ff
	ff		 mov	 DWORD PTR _i$2[ebp], eax
$LN4@RenderCube:
  0016f	83 bd b4 fe ff
	ff 08		 cmp	 DWORD PTR _i$2[ebp], 8
  00176	0f 8d f5 01 00
	00		 jge	 $LN3@RenderCube

; 209  : 		v3Vertex[i] = v3Vertex[i] - v3Center;

  0017c	6b 85 b4 fe ff
	ff 0c		 imul	 eax, DWORD PTR _i$2[ebp], 12
  00183	8d 44 05 9c	 lea	 eax, DWORD PTR _v3Vertex$[ebp+eax]
  00187	89 85 b0 fe ff
	ff		 mov	 DWORD PTR _this$[ebp], eax
; File D:\Metin2 Server Files\mainline\SRC_2014\M2Data\include\d3dx8math.inl

; 263  :     return D3DXVECTOR3(x - v.x, y - v.y, z - v.z);

  0018d	8b 85 b0 fe ff
	ff		 mov	 eax, DWORD PTR _this$[ebp]
  00193	f3 0f 10 00	 movss	 xmm0, DWORD PTR [eax]
  00197	f3 0f 5c 85 d0
	fe ff ff	 subss	 xmm0, DWORD PTR _v3Center$[ebp]
  0019f	f3 0f 11 85 a8
	fe ff ff	 movss	 DWORD PTR _fx$[ebp], xmm0
  001a7	8b 85 b0 fe ff
	ff		 mov	 eax, DWORD PTR _this$[ebp]
  001ad	f3 0f 10 40 04	 movss	 xmm0, DWORD PTR [eax+4]
  001b2	f3 0f 5c 85 d4
	fe ff ff	 subss	 xmm0, DWORD PTR _v3Center$[ebp+4]
  001ba	f3 0f 11 85 a4
	fe ff ff	 movss	 DWORD PTR _fy$[ebp], xmm0
  001c2	8b 85 b0 fe ff
	ff		 mov	 eax, DWORD PTR _this$[ebp]
  001c8	f3 0f 10 40 08	 movss	 xmm0, DWORD PTR [eax+8]
  001cd	f3 0f 5c 85 d8
	fe ff ff	 subss	 xmm0, DWORD PTR _v3Center$[ebp+8]
  001d5	f3 0f 11 85 a0
	fe ff ff	 movss	 DWORD PTR _fz$[ebp], xmm0

; 180  :     x = fx;

  001dd	f3 0f 10 85 a8
	fe ff ff	 movss	 xmm0, DWORD PTR _fx$[ebp]
  001e5	f3 0f 11 85 c4
	fe ff ff	 movss	 DWORD PTR $T4[ebp], xmm0

; 181  :     y = fy;

  001ed	f3 0f 10 85 a4
	fe ff ff	 movss	 xmm0, DWORD PTR _fy$[ebp]
  001f5	f3 0f 11 85 c8
	fe ff ff	 movss	 DWORD PTR $T4[ebp+4], xmm0

; 182  :     z = fz;

  001fd	f3 0f 10 85 a0
	fe ff ff	 movss	 xmm0, DWORD PTR _fz$[ebp]
  00205	f3 0f 11 85 cc
	fe ff ff	 movss	 DWORD PTR $T4[ebp+8], xmm0
; File D:\Metin2 Server Files\mainline\SRC_2014\Metin2Client\EterLib\GrpScreen.cpp

; 209  : 		v3Vertex[i] = v3Vertex[i] - v3Center;

  0020d	6b 85 b4 fe ff
	ff 0c		 imul	 eax, DWORD PTR _i$2[ebp], 12
  00214	8d 7c 05 9c	 lea	 edi, DWORD PTR _v3Vertex$[ebp+eax]
  00218	8d b5 c4 fe ff
	ff		 lea	 esi, DWORD PTR $T4[ebp]
  0021e	a5		 movsd
  0021f	a5		 movsd
  00220	a5		 movsd

; 210  : 		D3DXVec3TransformCoord(&v3Vertex[i], &v3Vertex[i], &matRotation);

  00221	8d 45 20	 lea	 eax, DWORD PTR _matRotation$[ebp]
  00224	50		 push	 eax
  00225	6b 85 b4 fe ff
	ff 0c		 imul	 eax, DWORD PTR _i$2[ebp], 12
  0022c	8d 44 05 9c	 lea	 eax, DWORD PTR _v3Vertex$[ebp+eax]
  00230	50		 push	 eax
  00231	6b 85 b4 fe ff
	ff 0c		 imul	 eax, DWORD PTR _i$2[ebp], 12
  00238	8d 44 05 9c	 lea	 eax, DWORD PTR _v3Vertex$[ebp+eax]
  0023c	50		 push	 eax
  0023d	e8 00 00 00 00	 call	 _D3DXVec3TransformCoord@12

; 211  : 		v3Vertex[i] = v3Vertex[i] + v3Center;

  00242	6b 85 b4 fe ff
	ff 0c		 imul	 eax, DWORD PTR _i$2[ebp], 12
  00249	8d 44 05 9c	 lea	 eax, DWORD PTR _v3Vertex$[ebp+eax]
  0024d	89 85 ac fe ff
	ff		 mov	 DWORD PTR _this$[ebp], eax
; File D:\Metin2 Server Files\mainline\SRC_2014\M2Data\include\d3dx8math.inl

; 257  :     return D3DXVECTOR3(x + v.x, y + v.y, z + v.z);

  00253	8b 85 ac fe ff
	ff		 mov	 eax, DWORD PTR _this$[ebp]
  00259	f3 0f 10 00	 movss	 xmm0, DWORD PTR [eax]
  0025d	f3 0f 58 85 d0
	fe ff ff	 addss	 xmm0, DWORD PTR _v3Center$[ebp]
  00265	f3 0f 11 85 9c
	fe ff ff	 movss	 DWORD PTR _fx$[ebp], xmm0
  0026d	8b 85 ac fe ff
	ff		 mov	 eax, DWORD PTR _this$[ebp]
  00273	f3 0f 10 40 04	 movss	 xmm0, DWORD PTR [eax+4]
  00278	f3 0f 58 85 d4
	fe ff ff	 addss	 xmm0, DWORD PTR _v3Center$[ebp+4]
  00280	f3 0f 11 85 98
	fe ff ff	 movss	 DWORD PTR _fy$[ebp], xmm0
  00288	8b 85 ac fe ff
	ff		 mov	 eax, DWORD PTR _this$[ebp]
  0028e	f3 0f 10 40 08	 movss	 xmm0, DWORD PTR [eax+8]
  00293	f3 0f 58 85 d8
	fe ff ff	 addss	 xmm0, DWORD PTR _v3Center$[ebp+8]
  0029b	f3 0f 11 85 94
	fe ff ff	 movss	 DWORD PTR _fz$[ebp], xmm0

; 180  :     x = fx;

  002a3	f3 0f 10 85 9c
	fe ff ff	 movss	 xmm0, DWORD PTR _fx$[ebp]
  002ab	f3 0f 11 85 b8
	fe ff ff	 movss	 DWORD PTR $T3[ebp], xmm0

; 181  :     y = fy;

  002b3	f3 0f 10 85 98
	fe ff ff	 movss	 xmm0, DWORD PTR _fy$[ebp]
  002bb	f3 0f 11 85 bc
	fe ff ff	 movss	 DWORD PTR $T3[ebp+4], xmm0

; 182  :     z = fz;

  002c3	f3 0f 10 85 94
	fe ff ff	 movss	 xmm0, DWORD PTR _fz$[ebp]
  002cb	f3 0f 11 85 c0
	fe ff ff	 movss	 DWORD PTR $T3[ebp+8], xmm0
; File D:\Metin2 Server Files\mainline\SRC_2014\Metin2Client\EterLib\GrpScreen.cpp

; 211  : 		v3Vertex[i] = v3Vertex[i] + v3Center;

  002d3	6b 85 b4 fe ff
	ff 0c		 imul	 eax, DWORD PTR _i$2[ebp], 12
  002da	8d 7c 05 9c	 lea	 edi, DWORD PTR _v3Vertex$[ebp+eax]
  002de	8d b5 b8 fe ff
	ff		 lea	 esi, DWORD PTR $T3[ebp]
  002e4	a5		 movsd
  002e5	a5		 movsd
  002e6	a5		 movsd

; 212  : 		vertices[i].px = v3Vertex[i].x;

  002e7	6b 85 b4 fe ff
	ff 0c		 imul	 eax, DWORD PTR _i$2[ebp], 12
  002ee	6b 8d b4 fe ff
	ff 18		 imul	 ecx, DWORD PTR _i$2[ebp], 24
  002f5	8b 44 05 9c	 mov	 eax, DWORD PTR _v3Vertex$[ebp+eax]
  002f9	89 84 0d dc fe
	ff ff		 mov	 DWORD PTR _vertices$[ebp+ecx], eax

; 213  : 		vertices[i].py = v3Vertex[i].y;

  00300	6b 85 b4 fe ff
	ff 0c		 imul	 eax, DWORD PTR _i$2[ebp], 12
  00307	6b 8d b4 fe ff
	ff 18		 imul	 ecx, DWORD PTR _i$2[ebp], 24
  0030e	8b 44 05 a0	 mov	 eax, DWORD PTR _v3Vertex$[ebp+eax+4]
  00312	89 84 0d e0 fe
	ff ff		 mov	 DWORD PTR _vertices$[ebp+ecx+4], eax

; 214  : 		vertices[i].pz = v3Vertex[i].z;

  00319	6b 85 b4 fe ff
	ff 0c		 imul	 eax, DWORD PTR _i$2[ebp], 12
  00320	6b 8d b4 fe ff
	ff 18		 imul	 ecx, DWORD PTR _i$2[ebp], 24
  00327	8b 44 05 a4	 mov	 eax, DWORD PTR _v3Vertex$[ebp+eax+8]
  0032b	89 84 0d e4 fe
	ff ff		 mov	 DWORD PTR _vertices$[ebp+ecx+8], eax

; 215  : 		vertices[i].diffuse = ms_diffuseColor;

  00332	6b 85 b4 fe ff
	ff 18		 imul	 eax, DWORD PTR _i$2[ebp], 24
  00339	8b 0d 00 00 00
	00		 mov	 ecx, DWORD PTR ?ms_diffuseColor@CScreen@@1KA ; CScreen::ms_diffuseColor
  0033f	89 8c 05 e8 fe
	ff ff		 mov	 DWORD PTR _vertices$[ebp+eax+12], ecx

; 216  : 		vertices[i].u = 0.0f; vertices[i].v = 0.0f;

  00346	6b 85 b4 fe ff
	ff 18		 imul	 eax, DWORD PTR _i$2[ebp], 24
  0034d	0f 57 c0	 xorps	 xmm0, xmm0
  00350	f3 0f 11 84 05
	ec fe ff ff	 movss	 DWORD PTR _vertices$[ebp+eax+16], xmm0
  00359	6b 85 b4 fe ff
	ff 18		 imul	 eax, DWORD PTR _i$2[ebp], 24
  00360	0f 57 c0	 xorps	 xmm0, xmm0
  00363	f3 0f 11 84 05
	f0 fe ff ff	 movss	 DWORD PTR _vertices$[ebp+eax+20], xmm0

; 217  : 	}

  0036c	e9 f1 fd ff ff	 jmp	 $LN2@RenderCube
$LN3@RenderCube:

; 218  : 
; 219  : 	if (SetPDTStream(vertices, 8))

  00371	6a 08		 push	 8
  00373	8d 85 dc fe ff
	ff		 lea	 eax, DWORD PTR _vertices$[ebp]
  00379	50		 push	 eax
  0037a	e8 00 00 00 00	 call	 ?SetPDTStream@CGraphicBase@@SA_NPAUSPDTVertexRaw@@I@Z ; CGraphicBase::SetPDTStream
  0037f	59		 pop	 ecx
  00380	59		 pop	 ecx
  00381	0f b6 c0	 movzx	 eax, al
  00384	85 c0		 test	 eax, eax
  00386	74 77		 je	 SHORT $LN5@RenderCube

; 220  : 	{
; 221  : 		STATEMANAGER.SetTexture(0, NULL);

  00388	6a 00		 push	 0
  0038a	6a 00		 push	 0
  0038c	8b 0d 00 00 00
	00		 mov	 ecx, DWORD PTR ?ms_singleton@?$CSingleton@VCStateManager@@@@0PAVCStateManager@@A ; CSingleton<CStateManager>::ms_singleton
  00392	e8 00 00 00 00	 call	 ?SetTexture@CStateManager@@QAEXKPAUIDirect3DBaseTexture8@@@Z ; CStateManager::SetTexture

; 222  : 		STATEMANAGER.SetTexture(1, NULL);

  00397	6a 00		 push	 0
  00399	6a 01		 push	 1
  0039b	8b 0d 00 00 00
	00		 mov	 ecx, DWORD PTR ?ms_singleton@?$CSingleton@VCStateManager@@@@0PAVCStateManager@@A ; CSingleton<CStateManager>::ms_singleton
  003a1	e8 00 00 00 00	 call	 ?SetTexture@CStateManager@@QAEXKPAUIDirect3DBaseTexture8@@@Z ; CStateManager::SetTexture

; 223  : 		STATEMANAGER.SetVertexShader(D3DFVF_XYZ|D3DFVF_DIFFUSE|D3DFVF_TEX1);

  003a6	68 42 01 00 00	 push	 322			; 00000142H
  003ab	8b 0d 00 00 00
	00		 mov	 ecx, DWORD PTR ?ms_singleton@?$CSingleton@VCStateManager@@@@0PAVCStateManager@@A ; CSingleton<CStateManager>::ms_singleton
  003b1	e8 00 00 00 00	 call	 ?SetVertexShader@CStateManager@@QAEXK@Z ; CStateManager::SetVertexShader
; File D:\Metin2 Server Files\mainline\SRC_2014\Metin2Client\eterBase\Singleton.h

; 27   : 		return (*ms_singleton);

  003b6	a1 00 00 00 00	 mov	 eax, DWORD PTR ?ms_singleton@?$CSingleton@VCStateManager@@@@0PAVCStateManager@@A ; CSingleton<CStateManager>::ms_singleton
  003bb	89 85 90 fe ff
	ff		 mov	 DWORD PTR $T1[ebp], eax
; File D:\Metin2 Server Files\mainline\SRC_2014\Metin2Client\EterLib\GrpScreen.cpp

; 224  : 		STATEMANAGER.SetTransform(D3DTS_WORLD, ms_lpd3dMatStack->GetTop());

  003c1	a1 00 00 00 00	 mov	 eax, DWORD PTR ?ms_lpd3dMatStack@CGraphicBase@@1PAUID3DXMatrixStack@@A ; CGraphicBase::ms_lpd3dMatStack
  003c6	8b 00		 mov	 eax, DWORD PTR [eax]
  003c8	ff 35 00 00 00
	00		 push	 DWORD PTR ?ms_lpd3dMatStack@CGraphicBase@@1PAUID3DXMatrixStack@@A ; CGraphicBase::ms_lpd3dMatStack
  003ce	ff 50 44	 call	 DWORD PTR [eax+68]
  003d1	50		 push	 eax
  003d2	68 00 01 00 00	 push	 256			; 00000100H
  003d7	8b 8d 90 fe ff
	ff		 mov	 ecx, DWORD PTR $T1[ebp]
  003dd	e8 00 00 00 00	 call	 ?SetTransform@CStateManager@@QAEXW4_D3DTRANSFORMSTATETYPE@@PBU_D3DMATRIX@@@Z ; CStateManager::SetTransform

; 225  : 
; 226  : 		SetDefaultIndexBuffer(DEFAULT_IB_FILL_CUBE);

  003e2	6a 06		 push	 6
  003e4	e8 00 00 00 00	 call	 ?SetDefaultIndexBuffer@CGraphicBase@@SAXI@Z ; CGraphicBase::SetDefaultIndexBuffer
  003e9	59		 pop	 ecx

; 227  : 		STATEMANAGER.DrawIndexedPrimitive(D3DPT_TRIANGLELIST, 0, 8, 0, 4*3);

  003ea	6a 0c		 push	 12			; 0000000cH
  003ec	6a 00		 push	 0
  003ee	6a 08		 push	 8
  003f0	6a 00		 push	 0
  003f2	6a 04		 push	 4
  003f4	8b 0d 00 00 00
	00		 mov	 ecx, DWORD PTR ?ms_singleton@?$CSingleton@VCStateManager@@@@0PAVCStateManager@@A ; CSingleton<CStateManager>::ms_singleton
  003fa	e8 00 00 00 00	 call	 ?DrawIndexedPrimitive@CStateManager@@QAEJW4_D3DPRIMITIVETYPE@@IIII@Z ; CStateManager::DrawIndexedPrimitive
$LN5@RenderCube:

; 228  : 	}
; 229  : }

  003ff	5f		 pop	 edi
  00400	5e		 pop	 esi
  00401	8b 4d fc	 mov	 ecx, DWORD PTR __$ArrayPad$[ebp]
  00404	33 cd		 xor	 ecx, ebp
  00406	e8 00 00 00 00	 call	 @__security_check_cookie@4
  0040b	c9		 leave
  0040c	c2 58 00	 ret	 88			; 00000058H
?RenderCube@CScreen@@QAEXMMMMMMUD3DXMATRIX@@@Z ENDP	; CScreen::RenderCube
_TEXT	ENDS
; Function compile flags: /Odspy
; File D:\Metin2 Server Files\mainline\SRC_2014\Metin2Client\EterLib\GrpScreen.cpp
; File D:\Metin2 Server Files\mainline\SRC_2014\Metin2Client\eterBase\Singleton.h
; File D:\Metin2 Server Files\mainline\SRC_2014\Metin2Client\EterLib\GrpScreen.cpp
;	COMDAT ?RenderCube@CScreen@@QAEXMMMMMM@Z
_TEXT	SEGMENT
_this$ = -108						; size = 4
$T1 = -104						; size = 4
_vertices$ = -100					; size = 192
__$ArrayPad$ = 92					; size = 4
_sx$ = 104						; size = 4
_sy$ = 108						; size = 4
_sz$ = 112						; size = 4
_ex$ = 116						; size = 4
_ey$ = 120						; size = 4
_ez$ = 124						; size = 4
?RenderCube@CScreen@@QAEXMMMMMM@Z PROC			; CScreen::RenderCube, COMDAT
; _this$ = ecx

; 165  : {

  00000	55		 push	 ebp
  00001	8d 6c 24 a0	 lea	 ebp, DWORD PTR [esp-96]
  00005	81 ec cc 00 00
	00		 sub	 esp, 204		; 000000ccH
  0000b	a1 00 00 00 00	 mov	 eax, DWORD PTR ___security_cookie
  00010	33 c5		 xor	 eax, ebp
  00012	89 45 5c	 mov	 DWORD PTR __$ArrayPad$[ebp], eax
  00015	89 4d 94	 mov	 DWORD PTR _this$[ebp], ecx

; 166  : 	SPDTVertexRaw vertices[8] =
; 167  : 	{
; 168  : 		{ sx, sy, sz, ms_diffuseColor, 0.0f, 0.0f  },

  00018	f3 0f 10 45 68	 movss	 xmm0, DWORD PTR _sx$[ebp]
  0001d	f3 0f 11 45 9c	 movss	 DWORD PTR _vertices$[ebp], xmm0
  00022	f3 0f 10 45 6c	 movss	 xmm0, DWORD PTR _sy$[ebp]
  00027	f3 0f 11 45 a0	 movss	 DWORD PTR _vertices$[ebp+4], xmm0
  0002c	f3 0f 10 45 70	 movss	 xmm0, DWORD PTR _sz$[ebp]
  00031	f3 0f 11 45 a4	 movss	 DWORD PTR _vertices$[ebp+8], xmm0
  00036	a1 00 00 00 00	 mov	 eax, DWORD PTR ?ms_diffuseColor@CScreen@@1KA ; CScreen::ms_diffuseColor
  0003b	89 45 a8	 mov	 DWORD PTR _vertices$[ebp+12], eax
  0003e	0f 57 c0	 xorps	 xmm0, xmm0
  00041	f3 0f 11 45 ac	 movss	 DWORD PTR _vertices$[ebp+16], xmm0
  00046	0f 57 c0	 xorps	 xmm0, xmm0
  00049	f3 0f 11 45 b0	 movss	 DWORD PTR _vertices$[ebp+20], xmm0

; 169  : 		{ ex, sy, sz, ms_diffuseColor, 0.0f, 0.0f  },

  0004e	f3 0f 10 45 74	 movss	 xmm0, DWORD PTR _ex$[ebp]
  00053	f3 0f 11 45 b4	 movss	 DWORD PTR _vertices$[ebp+24], xmm0
  00058	f3 0f 10 45 6c	 movss	 xmm0, DWORD PTR _sy$[ebp]
  0005d	f3 0f 11 45 b8	 movss	 DWORD PTR _vertices$[ebp+28], xmm0
  00062	f3 0f 10 45 70	 movss	 xmm0, DWORD PTR _sz$[ebp]
  00067	f3 0f 11 45 bc	 movss	 DWORD PTR _vertices$[ebp+32], xmm0
  0006c	a1 00 00 00 00	 mov	 eax, DWORD PTR ?ms_diffuseColor@CScreen@@1KA ; CScreen::ms_diffuseColor
  00071	89 45 c0	 mov	 DWORD PTR _vertices$[ebp+36], eax
  00074	0f 57 c0	 xorps	 xmm0, xmm0
  00077	f3 0f 11 45 c4	 movss	 DWORD PTR _vertices$[ebp+40], xmm0
  0007c	0f 57 c0	 xorps	 xmm0, xmm0
  0007f	f3 0f 11 45 c8	 movss	 DWORD PTR _vertices$[ebp+44], xmm0

; 170  : 		{ sx, ey, sz, ms_diffuseColor, 0.0f, 0.0f  },

  00084	f3 0f 10 45 68	 movss	 xmm0, DWORD PTR _sx$[ebp]
  00089	f3 0f 11 45 cc	 movss	 DWORD PTR _vertices$[ebp+48], xmm0
  0008e	f3 0f 10 45 78	 movss	 xmm0, DWORD PTR _ey$[ebp]
  00093	f3 0f 11 45 d0	 movss	 DWORD PTR _vertices$[ebp+52], xmm0
  00098	f3 0f 10 45 70	 movss	 xmm0, DWORD PTR _sz$[ebp]
  0009d	f3 0f 11 45 d4	 movss	 DWORD PTR _vertices$[ebp+56], xmm0
  000a2	a1 00 00 00 00	 mov	 eax, DWORD PTR ?ms_diffuseColor@CScreen@@1KA ; CScreen::ms_diffuseColor
  000a7	89 45 d8	 mov	 DWORD PTR _vertices$[ebp+60], eax
  000aa	0f 57 c0	 xorps	 xmm0, xmm0
  000ad	f3 0f 11 45 dc	 movss	 DWORD PTR _vertices$[ebp+64], xmm0
  000b2	0f 57 c0	 xorps	 xmm0, xmm0
  000b5	f3 0f 11 45 e0	 movss	 DWORD PTR _vertices$[ebp+68], xmm0

; 171  : 		{ ex, ey, sz, ms_diffuseColor, 0.0f, 0.0f  },

  000ba	f3 0f 10 45 74	 movss	 xmm0, DWORD PTR _ex$[ebp]
  000bf	f3 0f 11 45 e4	 movss	 DWORD PTR _vertices$[ebp+72], xmm0
  000c4	f3 0f 10 45 78	 movss	 xmm0, DWORD PTR _ey$[ebp]
  000c9	f3 0f 11 45 e8	 movss	 DWORD PTR _vertices$[ebp+76], xmm0
  000ce	f3 0f 10 45 70	 movss	 xmm0, DWORD PTR _sz$[ebp]
  000d3	f3 0f 11 45 ec	 movss	 DWORD PTR _vertices$[ebp+80], xmm0
  000d8	a1 00 00 00 00	 mov	 eax, DWORD PTR ?ms_diffuseColor@CScreen@@1KA ; CScreen::ms_diffuseColor
  000dd	89 45 f0	 mov	 DWORD PTR _vertices$[ebp+84], eax
  000e0	0f 57 c0	 xorps	 xmm0, xmm0
  000e3	f3 0f 11 45 f4	 movss	 DWORD PTR _vertices$[ebp+88], xmm0
  000e8	0f 57 c0	 xorps	 xmm0, xmm0
  000eb	f3 0f 11 45 f8	 movss	 DWORD PTR _vertices$[ebp+92], xmm0

; 172  : 		{ sx, sy, ez, ms_diffuseColor, 0.0f, 0.0f  },

  000f0	f3 0f 10 45 68	 movss	 xmm0, DWORD PTR _sx$[ebp]
  000f5	f3 0f 11 45 fc	 movss	 DWORD PTR _vertices$[ebp+96], xmm0
  000fa	f3 0f 10 45 6c	 movss	 xmm0, DWORD PTR _sy$[ebp]
  000ff	f3 0f 11 45 00	 movss	 DWORD PTR _vertices$[ebp+100], xmm0
  00104	f3 0f 10 45 7c	 movss	 xmm0, DWORD PTR _ez$[ebp]
  00109	f3 0f 11 45 04	 movss	 DWORD PTR _vertices$[ebp+104], xmm0
  0010e	a1 00 00 00 00	 mov	 eax, DWORD PTR ?ms_diffuseColor@CScreen@@1KA ; CScreen::ms_diffuseColor
  00113	89 45 08	 mov	 DWORD PTR _vertices$[ebp+108], eax
  00116	0f 57 c0	 xorps	 xmm0, xmm0
  00119	f3 0f 11 45 0c	 movss	 DWORD PTR _vertices$[ebp+112], xmm0
  0011e	0f 57 c0	 xorps	 xmm0, xmm0
  00121	f3 0f 11 45 10	 movss	 DWORD PTR _vertices$[ebp+116], xmm0

; 173  : 		{ ex, sy, ez, ms_diffuseColor, 0.0f, 0.0f  },

  00126	f3 0f 10 45 74	 movss	 xmm0, DWORD PTR _ex$[ebp]
  0012b	f3 0f 11 45 14	 movss	 DWORD PTR _vertices$[ebp+120], xmm0
  00130	f3 0f 10 45 6c	 movss	 xmm0, DWORD PTR _sy$[ebp]
  00135	f3 0f 11 45 18	 movss	 DWORD PTR _vertices$[ebp+124], xmm0
  0013a	f3 0f 10 45 7c	 movss	 xmm0, DWORD PTR _ez$[ebp]
  0013f	f3 0f 11 45 1c	 movss	 DWORD PTR _vertices$[ebp+128], xmm0
  00144	a1 00 00 00 00	 mov	 eax, DWORD PTR ?ms_diffuseColor@CScreen@@1KA ; CScreen::ms_diffuseColor
  00149	89 45 20	 mov	 DWORD PTR _vertices$[ebp+132], eax
  0014c	0f 57 c0	 xorps	 xmm0, xmm0
  0014f	f3 0f 11 45 24	 movss	 DWORD PTR _vertices$[ebp+136], xmm0
  00154	0f 57 c0	 xorps	 xmm0, xmm0
  00157	f3 0f 11 45 28	 movss	 DWORD PTR _vertices$[ebp+140], xmm0

; 174  : 		{ sx, ey, ez, ms_diffuseColor, 0.0f, 0.0f  },

  0015c	f3 0f 10 45 68	 movss	 xmm0, DWORD PTR _sx$[ebp]
  00161	f3 0f 11 45 2c	 movss	 DWORD PTR _vertices$[ebp+144], xmm0
  00166	f3 0f 10 45 78	 movss	 xmm0, DWORD PTR _ey$[ebp]
  0016b	f3 0f 11 45 30	 movss	 DWORD PTR _vertices$[ebp+148], xmm0
  00170	f3 0f 10 45 7c	 movss	 xmm0, DWORD PTR _ez$[ebp]
  00175	f3 0f 11 45 34	 movss	 DWORD PTR _vertices$[ebp+152], xmm0
  0017a	a1 00 00 00 00	 mov	 eax, DWORD PTR ?ms_diffuseColor@CScreen@@1KA ; CScreen::ms_diffuseColor
  0017f	89 45 38	 mov	 DWORD PTR _vertices$[ebp+156], eax
  00182	0f 57 c0	 xorps	 xmm0, xmm0
  00185	f3 0f 11 45 3c	 movss	 DWORD PTR _vertices$[ebp+160], xmm0
  0018a	0f 57 c0	 xorps	 xmm0, xmm0
  0018d	f3 0f 11 45 40	 movss	 DWORD PTR _vertices$[ebp+164], xmm0

; 175  : 		{ ex, ey, ez, ms_diffuseColor, 0.0f, 0.0f  },

  00192	f3 0f 10 45 74	 movss	 xmm0, DWORD PTR _ex$[ebp]
  00197	f3 0f 11 45 44	 movss	 DWORD PTR _vertices$[ebp+168], xmm0
  0019c	f3 0f 10 45 78	 movss	 xmm0, DWORD PTR _ey$[ebp]
  001a1	f3 0f 11 45 48	 movss	 DWORD PTR _vertices$[ebp+172], xmm0
  001a6	f3 0f 10 45 7c	 movss	 xmm0, DWORD PTR _ez$[ebp]
  001ab	f3 0f 11 45 4c	 movss	 DWORD PTR _vertices$[ebp+176], xmm0
  001b0	a1 00 00 00 00	 mov	 eax, DWORD PTR ?ms_diffuseColor@CScreen@@1KA ; CScreen::ms_diffuseColor
  001b5	89 45 50	 mov	 DWORD PTR _vertices$[ebp+180], eax
  001b8	0f 57 c0	 xorps	 xmm0, xmm0
  001bb	f3 0f 11 45 54	 movss	 DWORD PTR _vertices$[ebp+184], xmm0
  001c0	0f 57 c0	 xorps	 xmm0, xmm0
  001c3	f3 0f 11 45 58	 movss	 DWORD PTR _vertices$[ebp+188], xmm0

; 176  : 	};
; 177  : 	
; 178  : 
; 179  : 	if (SetPDTStream(vertices, 8))

  001c8	6a 08		 push	 8
  001ca	8d 45 9c	 lea	 eax, DWORD PTR _vertices$[ebp]
  001cd	50		 push	 eax
  001ce	e8 00 00 00 00	 call	 ?SetPDTStream@CGraphicBase@@SA_NPAUSPDTVertexRaw@@I@Z ; CGraphicBase::SetPDTStream
  001d3	59		 pop	 ecx
  001d4	59		 pop	 ecx
  001d5	0f b6 c0	 movzx	 eax, al
  001d8	85 c0		 test	 eax, eax
  001da	74 71		 je	 SHORT $LN2@RenderCube

; 180  : 	{
; 181  : 		STATEMANAGER.SetTexture(0, NULL);

  001dc	6a 00		 push	 0
  001de	6a 00		 push	 0
  001e0	8b 0d 00 00 00
	00		 mov	 ecx, DWORD PTR ?ms_singleton@?$CSingleton@VCStateManager@@@@0PAVCStateManager@@A ; CSingleton<CStateManager>::ms_singleton
  001e6	e8 00 00 00 00	 call	 ?SetTexture@CStateManager@@QAEXKPAUIDirect3DBaseTexture8@@@Z ; CStateManager::SetTexture

; 182  : 		STATEMANAGER.SetTexture(1, NULL);

  001eb	6a 00		 push	 0
  001ed	6a 01		 push	 1
  001ef	8b 0d 00 00 00
	00		 mov	 ecx, DWORD PTR ?ms_singleton@?$CSingleton@VCStateManager@@@@0PAVCStateManager@@A ; CSingleton<CStateManager>::ms_singleton
  001f5	e8 00 00 00 00	 call	 ?SetTexture@CStateManager@@QAEXKPAUIDirect3DBaseTexture8@@@Z ; CStateManager::SetTexture

; 183  : 		STATEMANAGER.SetVertexShader(D3DFVF_XYZ|D3DFVF_DIFFUSE|D3DFVF_TEX1);

  001fa	68 42 01 00 00	 push	 322			; 00000142H
  001ff	8b 0d 00 00 00
	00		 mov	 ecx, DWORD PTR ?ms_singleton@?$CSingleton@VCStateManager@@@@0PAVCStateManager@@A ; CSingleton<CStateManager>::ms_singleton
  00205	e8 00 00 00 00	 call	 ?SetVertexShader@CStateManager@@QAEXK@Z ; CStateManager::SetVertexShader
; File D:\Metin2 Server Files\mainline\SRC_2014\Metin2Client\eterBase\Singleton.h

; 27   : 		return (*ms_singleton);

  0020a	a1 00 00 00 00	 mov	 eax, DWORD PTR ?ms_singleton@?$CSingleton@VCStateManager@@@@0PAVCStateManager@@A ; CSingleton<CStateManager>::ms_singleton
  0020f	89 45 98	 mov	 DWORD PTR $T1[ebp], eax
; File D:\Metin2 Server Files\mainline\SRC_2014\Metin2Client\EterLib\GrpScreen.cpp

; 184  : 		STATEMANAGER.SetTransform(D3DTS_WORLD, ms_lpd3dMatStack->GetTop());

  00212	a1 00 00 00 00	 mov	 eax, DWORD PTR ?ms_lpd3dMatStack@CGraphicBase@@1PAUID3DXMatrixStack@@A ; CGraphicBase::ms_lpd3dMatStack
  00217	8b 00		 mov	 eax, DWORD PTR [eax]
  00219	ff 35 00 00 00
	00		 push	 DWORD PTR ?ms_lpd3dMatStack@CGraphicBase@@1PAUID3DXMatrixStack@@A ; CGraphicBase::ms_lpd3dMatStack
  0021f	ff 50 44	 call	 DWORD PTR [eax+68]
  00222	50		 push	 eax
  00223	68 00 01 00 00	 push	 256			; 00000100H
  00228	8b 4d 98	 mov	 ecx, DWORD PTR $T1[ebp]
  0022b	e8 00 00 00 00	 call	 ?SetTransform@CStateManager@@QAEXW4_D3DTRANSFORMSTATETYPE@@PBU_D3DMATRIX@@@Z ; CStateManager::SetTransform

; 185  : 
; 186  : 		SetDefaultIndexBuffer(DEFAULT_IB_FILL_CUBE);

  00230	6a 06		 push	 6
  00232	e8 00 00 00 00	 call	 ?SetDefaultIndexBuffer@CGraphicBase@@SAXI@Z ; CGraphicBase::SetDefaultIndexBuffer
  00237	59		 pop	 ecx

; 187  : 		STATEMANAGER.DrawIndexedPrimitive(D3DPT_TRIANGLELIST, 0, 8, 0, 4*3);

  00238	6a 0c		 push	 12			; 0000000cH
  0023a	6a 00		 push	 0
  0023c	6a 08		 push	 8
  0023e	6a 00		 push	 0
  00240	6a 04		 push	 4
  00242	8b 0d 00 00 00
	00		 mov	 ecx, DWORD PTR ?ms_singleton@?$CSingleton@VCStateManager@@@@0PAVCStateManager@@A ; CSingleton<CStateManager>::ms_singleton
  00248	e8 00 00 00 00	 call	 ?DrawIndexedPrimitive@CStateManager@@QAEJW4_D3DPRIMITIVETYPE@@IIII@Z ; CStateManager::DrawIndexedPrimitive
$LN2@RenderCube:

; 188  : 	}
; 189  : }

  0024d	8b 4d 5c	 mov	 ecx, DWORD PTR __$ArrayPad$[ebp]
  00250	33 cd		 xor	 ecx, ebp
  00252	e8 00 00 00 00	 call	 @__security_check_cookie@4
  00257	83 c5 60	 add	 ebp, 96			; 00000060H
  0025a	c9		 leave
  0025b	c2 18 00	 ret	 24			; 00000018H
?RenderCube@CScreen@@QAEXMMMMMM@Z ENDP			; CScreen::RenderCube
_TEXT	ENDS
; Function compile flags: /Odspy
; File D:\Metin2 Server Files\mainline\SRC_2014\Metin2Client\EterLib\GrpScreen.cpp
; File D:\Metin2 Server Files\mainline\SRC_2014\Metin2Client\eterBase\Singleton.h
; File D:\Metin2 Server Files\mainline\SRC_2014\Metin2Client\EterLib\GrpScreen.cpp
;	COMDAT ?RenderLineCube@CScreen@@QAEXMMMMMM@Z
_TEXT	SEGMENT
_this$ = -108						; size = 4
$T1 = -104						; size = 4
_vertices$ = -100					; size = 192
__$ArrayPad$ = 92					; size = 4
_sx$ = 104						; size = 4
_sy$ = 108						; size = 4
_sz$ = 112						; size = 4
_ex$ = 116						; size = 4
_ey$ = 120						; size = 4
_ez$ = 124						; size = 4
?RenderLineCube@CScreen@@QAEXMMMMMM@Z PROC		; CScreen::RenderLineCube, COMDAT
; _this$ = ecx

; 138  : {

  00000	55		 push	 ebp
  00001	8d 6c 24 a0	 lea	 ebp, DWORD PTR [esp-96]
  00005	81 ec cc 00 00
	00		 sub	 esp, 204		; 000000ccH
  0000b	a1 00 00 00 00	 mov	 eax, DWORD PTR ___security_cookie
  00010	33 c5		 xor	 eax, ebp
  00012	89 45 5c	 mov	 DWORD PTR __$ArrayPad$[ebp], eax
  00015	89 4d 94	 mov	 DWORD PTR _this$[ebp], ecx

; 139  : 	SPDTVertexRaw vertices[8] =
; 140  : 	{
; 141  : 		{ sx, sy, sz, ms_diffuseColor, 0.0f, 0.0f },

  00018	f3 0f 10 45 68	 movss	 xmm0, DWORD PTR _sx$[ebp]
  0001d	f3 0f 11 45 9c	 movss	 DWORD PTR _vertices$[ebp], xmm0
  00022	f3 0f 10 45 6c	 movss	 xmm0, DWORD PTR _sy$[ebp]
  00027	f3 0f 11 45 a0	 movss	 DWORD PTR _vertices$[ebp+4], xmm0
  0002c	f3 0f 10 45 70	 movss	 xmm0, DWORD PTR _sz$[ebp]
  00031	f3 0f 11 45 a4	 movss	 DWORD PTR _vertices$[ebp+8], xmm0
  00036	a1 00 00 00 00	 mov	 eax, DWORD PTR ?ms_diffuseColor@CScreen@@1KA ; CScreen::ms_diffuseColor
  0003b	89 45 a8	 mov	 DWORD PTR _vertices$[ebp+12], eax
  0003e	0f 57 c0	 xorps	 xmm0, xmm0
  00041	f3 0f 11 45 ac	 movss	 DWORD PTR _vertices$[ebp+16], xmm0
  00046	0f 57 c0	 xorps	 xmm0, xmm0
  00049	f3 0f 11 45 b0	 movss	 DWORD PTR _vertices$[ebp+20], xmm0

; 142  : 		{ ex, sy, sz, ms_diffuseColor, 0.0f, 0.0f },

  0004e	f3 0f 10 45 74	 movss	 xmm0, DWORD PTR _ex$[ebp]
  00053	f3 0f 11 45 b4	 movss	 DWORD PTR _vertices$[ebp+24], xmm0
  00058	f3 0f 10 45 6c	 movss	 xmm0, DWORD PTR _sy$[ebp]
  0005d	f3 0f 11 45 b8	 movss	 DWORD PTR _vertices$[ebp+28], xmm0
  00062	f3 0f 10 45 70	 movss	 xmm0, DWORD PTR _sz$[ebp]
  00067	f3 0f 11 45 bc	 movss	 DWORD PTR _vertices$[ebp+32], xmm0
  0006c	a1 00 00 00 00	 mov	 eax, DWORD PTR ?ms_diffuseColor@CScreen@@1KA ; CScreen::ms_diffuseColor
  00071	89 45 c0	 mov	 DWORD PTR _vertices$[ebp+36], eax
  00074	0f 57 c0	 xorps	 xmm0, xmm0
  00077	f3 0f 11 45 c4	 movss	 DWORD PTR _vertices$[ebp+40], xmm0
  0007c	0f 57 c0	 xorps	 xmm0, xmm0
  0007f	f3 0f 11 45 c8	 movss	 DWORD PTR _vertices$[ebp+44], xmm0

; 143  : 		{ sx, ey, sz, ms_diffuseColor, 0.0f, 0.0f },

  00084	f3 0f 10 45 68	 movss	 xmm0, DWORD PTR _sx$[ebp]
  00089	f3 0f 11 45 cc	 movss	 DWORD PTR _vertices$[ebp+48], xmm0
  0008e	f3 0f 10 45 78	 movss	 xmm0, DWORD PTR _ey$[ebp]
  00093	f3 0f 11 45 d0	 movss	 DWORD PTR _vertices$[ebp+52], xmm0
  00098	f3 0f 10 45 70	 movss	 xmm0, DWORD PTR _sz$[ebp]
  0009d	f3 0f 11 45 d4	 movss	 DWORD PTR _vertices$[ebp+56], xmm0
  000a2	a1 00 00 00 00	 mov	 eax, DWORD PTR ?ms_diffuseColor@CScreen@@1KA ; CScreen::ms_diffuseColor
  000a7	89 45 d8	 mov	 DWORD PTR _vertices$[ebp+60], eax
  000aa	0f 57 c0	 xorps	 xmm0, xmm0
  000ad	f3 0f 11 45 dc	 movss	 DWORD PTR _vertices$[ebp+64], xmm0
  000b2	0f 57 c0	 xorps	 xmm0, xmm0
  000b5	f3 0f 11 45 e0	 movss	 DWORD PTR _vertices$[ebp+68], xmm0

; 144  : 		{ ex, ey, sz, ms_diffuseColor, 0.0f, 0.0f },

  000ba	f3 0f 10 45 74	 movss	 xmm0, DWORD PTR _ex$[ebp]
  000bf	f3 0f 11 45 e4	 movss	 DWORD PTR _vertices$[ebp+72], xmm0
  000c4	f3 0f 10 45 78	 movss	 xmm0, DWORD PTR _ey$[ebp]
  000c9	f3 0f 11 45 e8	 movss	 DWORD PTR _vertices$[ebp+76], xmm0
  000ce	f3 0f 10 45 70	 movss	 xmm0, DWORD PTR _sz$[ebp]
  000d3	f3 0f 11 45 ec	 movss	 DWORD PTR _vertices$[ebp+80], xmm0
  000d8	a1 00 00 00 00	 mov	 eax, DWORD PTR ?ms_diffuseColor@CScreen@@1KA ; CScreen::ms_diffuseColor
  000dd	89 45 f0	 mov	 DWORD PTR _vertices$[ebp+84], eax
  000e0	0f 57 c0	 xorps	 xmm0, xmm0
  000e3	f3 0f 11 45 f4	 movss	 DWORD PTR _vertices$[ebp+88], xmm0
  000e8	0f 57 c0	 xorps	 xmm0, xmm0
  000eb	f3 0f 11 45 f8	 movss	 DWORD PTR _vertices$[ebp+92], xmm0

; 145  : 		{ sx, sy, ez, ms_diffuseColor, 0.0f, 0.0f },

  000f0	f3 0f 10 45 68	 movss	 xmm0, DWORD PTR _sx$[ebp]
  000f5	f3 0f 11 45 fc	 movss	 DWORD PTR _vertices$[ebp+96], xmm0
  000fa	f3 0f 10 45 6c	 movss	 xmm0, DWORD PTR _sy$[ebp]
  000ff	f3 0f 11 45 00	 movss	 DWORD PTR _vertices$[ebp+100], xmm0
  00104	f3 0f 10 45 7c	 movss	 xmm0, DWORD PTR _ez$[ebp]
  00109	f3 0f 11 45 04	 movss	 DWORD PTR _vertices$[ebp+104], xmm0
  0010e	a1 00 00 00 00	 mov	 eax, DWORD PTR ?ms_diffuseColor@CScreen@@1KA ; CScreen::ms_diffuseColor
  00113	89 45 08	 mov	 DWORD PTR _vertices$[ebp+108], eax
  00116	0f 57 c0	 xorps	 xmm0, xmm0
  00119	f3 0f 11 45 0c	 movss	 DWORD PTR _vertices$[ebp+112], xmm0
  0011e	0f 57 c0	 xorps	 xmm0, xmm0
  00121	f3 0f 11 45 10	 movss	 DWORD PTR _vertices$[ebp+116], xmm0

; 146  : 		{ ex, sy, ez, ms_diffuseColor, 0.0f, 0.0f },

  00126	f3 0f 10 45 74	 movss	 xmm0, DWORD PTR _ex$[ebp]
  0012b	f3 0f 11 45 14	 movss	 DWORD PTR _vertices$[ebp+120], xmm0
  00130	f3 0f 10 45 6c	 movss	 xmm0, DWORD PTR _sy$[ebp]
  00135	f3 0f 11 45 18	 movss	 DWORD PTR _vertices$[ebp+124], xmm0
  0013a	f3 0f 10 45 7c	 movss	 xmm0, DWORD PTR _ez$[ebp]
  0013f	f3 0f 11 45 1c	 movss	 DWORD PTR _vertices$[ebp+128], xmm0
  00144	a1 00 00 00 00	 mov	 eax, DWORD PTR ?ms_diffuseColor@CScreen@@1KA ; CScreen::ms_diffuseColor
  00149	89 45 20	 mov	 DWORD PTR _vertices$[ebp+132], eax
  0014c	0f 57 c0	 xorps	 xmm0, xmm0
  0014f	f3 0f 11 45 24	 movss	 DWORD PTR _vertices$[ebp+136], xmm0
  00154	0f 57 c0	 xorps	 xmm0, xmm0
  00157	f3 0f 11 45 28	 movss	 DWORD PTR _vertices$[ebp+140], xmm0

; 147  : 		{ sx, ey, ez, ms_diffuseColor, 0.0f, 0.0f },

  0015c	f3 0f 10 45 68	 movss	 xmm0, DWORD PTR _sx$[ebp]
  00161	f3 0f 11 45 2c	 movss	 DWORD PTR _vertices$[ebp+144], xmm0
  00166	f3 0f 10 45 78	 movss	 xmm0, DWORD PTR _ey$[ebp]
  0016b	f3 0f 11 45 30	 movss	 DWORD PTR _vertices$[ebp+148], xmm0
  00170	f3 0f 10 45 7c	 movss	 xmm0, DWORD PTR _ez$[ebp]
  00175	f3 0f 11 45 34	 movss	 DWORD PTR _vertices$[ebp+152], xmm0
  0017a	a1 00 00 00 00	 mov	 eax, DWORD PTR ?ms_diffuseColor@CScreen@@1KA ; CScreen::ms_diffuseColor
  0017f	89 45 38	 mov	 DWORD PTR _vertices$[ebp+156], eax
  00182	0f 57 c0	 xorps	 xmm0, xmm0
  00185	f3 0f 11 45 3c	 movss	 DWORD PTR _vertices$[ebp+160], xmm0
  0018a	0f 57 c0	 xorps	 xmm0, xmm0
  0018d	f3 0f 11 45 40	 movss	 DWORD PTR _vertices$[ebp+164], xmm0

; 148  : 		{ ex, ey, ez, ms_diffuseColor, 0.0f, 0.0f },

  00192	f3 0f 10 45 74	 movss	 xmm0, DWORD PTR _ex$[ebp]
  00197	f3 0f 11 45 44	 movss	 DWORD PTR _vertices$[ebp+168], xmm0
  0019c	f3 0f 10 45 78	 movss	 xmm0, DWORD PTR _ey$[ebp]
  001a1	f3 0f 11 45 48	 movss	 DWORD PTR _vertices$[ebp+172], xmm0
  001a6	f3 0f 10 45 7c	 movss	 xmm0, DWORD PTR _ez$[ebp]
  001ab	f3 0f 11 45 4c	 movss	 DWORD PTR _vertices$[ebp+176], xmm0
  001b0	a1 00 00 00 00	 mov	 eax, DWORD PTR ?ms_diffuseColor@CScreen@@1KA ; CScreen::ms_diffuseColor
  001b5	89 45 50	 mov	 DWORD PTR _vertices$[ebp+180], eax
  001b8	0f 57 c0	 xorps	 xmm0, xmm0
  001bb	f3 0f 11 45 54	 movss	 DWORD PTR _vertices$[ebp+184], xmm0
  001c0	0f 57 c0	 xorps	 xmm0, xmm0
  001c3	f3 0f 11 45 58	 movss	 DWORD PTR _vertices$[ebp+188], xmm0

; 149  : 	};
; 150  : 
; 151  : 
; 152  : 	if (SetPDTStream(vertices, 8))

  001c8	6a 08		 push	 8
  001ca	8d 45 9c	 lea	 eax, DWORD PTR _vertices$[ebp]
  001cd	50		 push	 eax
  001ce	e8 00 00 00 00	 call	 ?SetPDTStream@CGraphicBase@@SA_NPAUSPDTVertexRaw@@I@Z ; CGraphicBase::SetPDTStream
  001d3	59		 pop	 ecx
  001d4	59		 pop	 ecx
  001d5	0f b6 c0	 movzx	 eax, al
  001d8	85 c0		 test	 eax, eax
  001da	74 71		 je	 SHORT $LN2@RenderLine

; 153  : 	{
; 154  : 		STATEMANAGER.SetTexture(0, NULL);

  001dc	6a 00		 push	 0
  001de	6a 00		 push	 0
  001e0	8b 0d 00 00 00
	00		 mov	 ecx, DWORD PTR ?ms_singleton@?$CSingleton@VCStateManager@@@@0PAVCStateManager@@A ; CSingleton<CStateManager>::ms_singleton
  001e6	e8 00 00 00 00	 call	 ?SetTexture@CStateManager@@QAEXKPAUIDirect3DBaseTexture8@@@Z ; CStateManager::SetTexture

; 155  : 		STATEMANAGER.SetTexture(1, NULL);

  001eb	6a 00		 push	 0
  001ed	6a 01		 push	 1
  001ef	8b 0d 00 00 00
	00		 mov	 ecx, DWORD PTR ?ms_singleton@?$CSingleton@VCStateManager@@@@0PAVCStateManager@@A ; CSingleton<CStateManager>::ms_singleton
  001f5	e8 00 00 00 00	 call	 ?SetTexture@CStateManager@@QAEXKPAUIDirect3DBaseTexture8@@@Z ; CStateManager::SetTexture

; 156  : 		STATEMANAGER.SetVertexShader(D3DFVF_XYZ|D3DFVF_DIFFUSE|D3DFVF_TEX1);

  001fa	68 42 01 00 00	 push	 322			; 00000142H
  001ff	8b 0d 00 00 00
	00		 mov	 ecx, DWORD PTR ?ms_singleton@?$CSingleton@VCStateManager@@@@0PAVCStateManager@@A ; CSingleton<CStateManager>::ms_singleton
  00205	e8 00 00 00 00	 call	 ?SetVertexShader@CStateManager@@QAEXK@Z ; CStateManager::SetVertexShader
; File D:\Metin2 Server Files\mainline\SRC_2014\Metin2Client\eterBase\Singleton.h

; 27   : 		return (*ms_singleton);

  0020a	a1 00 00 00 00	 mov	 eax, DWORD PTR ?ms_singleton@?$CSingleton@VCStateManager@@@@0PAVCStateManager@@A ; CSingleton<CStateManager>::ms_singleton
  0020f	89 45 98	 mov	 DWORD PTR $T1[ebp], eax
; File D:\Metin2 Server Files\mainline\SRC_2014\Metin2Client\EterLib\GrpScreen.cpp

; 157  : 		STATEMANAGER.SetTransform(D3DTS_WORLD, ms_lpd3dMatStack->GetTop());

  00212	a1 00 00 00 00	 mov	 eax, DWORD PTR ?ms_lpd3dMatStack@CGraphicBase@@1PAUID3DXMatrixStack@@A ; CGraphicBase::ms_lpd3dMatStack
  00217	8b 00		 mov	 eax, DWORD PTR [eax]
  00219	ff 35 00 00 00
	00		 push	 DWORD PTR ?ms_lpd3dMatStack@CGraphicBase@@1PAUID3DXMatrixStack@@A ; CGraphicBase::ms_lpd3dMatStack
  0021f	ff 50 44	 call	 DWORD PTR [eax+68]
  00222	50		 push	 eax
  00223	68 00 01 00 00	 push	 256			; 00000100H
  00228	8b 4d 98	 mov	 ecx, DWORD PTR $T1[ebp]
  0022b	e8 00 00 00 00	 call	 ?SetTransform@CStateManager@@QAEXW4_D3DTRANSFORMSTATETYPE@@PBU_D3DMATRIX@@@Z ; CStateManager::SetTransform

; 158  : 		SetDefaultIndexBuffer(DEFAULT_IB_LINE_CUBE);

  00230	6a 03		 push	 3
  00232	e8 00 00 00 00	 call	 ?SetDefaultIndexBuffer@CGraphicBase@@SAXI@Z ; CGraphicBase::SetDefaultIndexBuffer
  00237	59		 pop	 ecx

; 159  : 
; 160  : 		STATEMANAGER.DrawIndexedPrimitive(D3DPT_LINELIST, 0, 8, 0, 4*3);

  00238	6a 0c		 push	 12			; 0000000cH
  0023a	6a 00		 push	 0
  0023c	6a 08		 push	 8
  0023e	6a 00		 push	 0
  00240	6a 02		 push	 2
  00242	8b 0d 00 00 00
	00		 mov	 ecx, DWORD PTR ?ms_singleton@?$CSingleton@VCStateManager@@@@0PAVCStateManager@@A ; CSingleton<CStateManager>::ms_singleton
  00248	e8 00 00 00 00	 call	 ?DrawIndexedPrimitive@CStateManager@@QAEJW4_D3DPRIMITIVETYPE@@IIII@Z ; CStateManager::DrawIndexedPrimitive
$LN2@RenderLine:

; 161  : 	}
; 162  : }

  0024d	8b 4d 5c	 mov	 ecx, DWORD PTR __$ArrayPad$[ebp]
  00250	33 cd		 xor	 ecx, ebp
  00252	e8 00 00 00 00	 call	 @__security_check_cookie@4
  00257	83 c5 60	 add	 ebp, 96			; 00000060H
  0025a	c9		 leave
  0025b	c2 18 00	 ret	 24			; 00000018H
?RenderLineCube@CScreen@@QAEXMMMMMM@Z ENDP		; CScreen::RenderLineCube
_TEXT	ENDS
; Function compile flags: /Odspy
; File D:\Metin2 Server Files\mainline\SRC_2014\Metin2Client\EterLib\GrpScreen.cpp
;	COMDAT ?RenderGradationBar3d@CScreen@@QAEXMMMMMMKK@Z
_TEXT	SEGMENT
_this$ = -104						; size = 4
_vertices$ = -100					; size = 96
__$ArrayPad$ = -4					; size = 4
_sx$ = 8						; size = 4
_sy$ = 12						; size = 4
_sz$ = 16						; size = 4
_ex$ = 20						; size = 4
_ey$ = 24						; size = 4
_ez$ = 28						; size = 4
_dwStartColor$ = 32					; size = 4
_dwEndColor$ = 36					; size = 4
?RenderGradationBar3d@CScreen@@QAEXMMMMMMKK@Z PROC	; CScreen::RenderGradationBar3d, COMDAT
; _this$ = ecx

; 115  : {

  00000	55		 push	 ebp
  00001	8b ec		 mov	 ebp, esp
  00003	83 ec 68	 sub	 esp, 104		; 00000068H
  00006	a1 00 00 00 00	 mov	 eax, DWORD PTR ___security_cookie
  0000b	33 c5		 xor	 eax, ebp
  0000d	89 45 fc	 mov	 DWORD PTR __$ArrayPad$[ebp], eax
  00010	89 4d 98	 mov	 DWORD PTR _this$[ebp], ecx

; 116  : 	assert(ms_lpd3dDevice != NULL);
; 117  : 	if (sx==ex) return;

  00013	f3 0f 10 45 08	 movss	 xmm0, DWORD PTR _sx$[ebp]
  00018	0f 2e 45 14	 ucomiss xmm0, DWORD PTR _ex$[ebp]
  0001c	9f		 lahf
  0001d	f6 c4 44	 test	 ah, 68			; 00000044H
  00020	7a 05		 jp	 SHORT $LN2@RenderGrad
  00022	e9 37 01 00 00	 jmp	 $LN1@RenderGrad
$LN2@RenderGrad:

; 118  : 	if (sy==ey) return;

  00027	f3 0f 10 45 0c	 movss	 xmm0, DWORD PTR _sy$[ebp]
  0002c	0f 2e 45 18	 ucomiss xmm0, DWORD PTR _ey$[ebp]
  00030	9f		 lahf
  00031	f6 c4 44	 test	 ah, 68			; 00000044H
  00034	7a 05		 jp	 SHORT $LN3@RenderGrad
  00036	e9 23 01 00 00	 jmp	 $LN1@RenderGrad
$LN3@RenderGrad:

; 119  : 
; 120  : 	SPDTVertexRaw vertices[4] =
; 121  : 	{
; 122  : 		{ sx, sy, sz, dwStartColor, 0.0f, 0.0f },

  0003b	f3 0f 10 45 08	 movss	 xmm0, DWORD PTR _sx$[ebp]
  00040	f3 0f 11 45 9c	 movss	 DWORD PTR _vertices$[ebp], xmm0
  00045	f3 0f 10 45 0c	 movss	 xmm0, DWORD PTR _sy$[ebp]
  0004a	f3 0f 11 45 a0	 movss	 DWORD PTR _vertices$[ebp+4], xmm0
  0004f	f3 0f 10 45 10	 movss	 xmm0, DWORD PTR _sz$[ebp]
  00054	f3 0f 11 45 a4	 movss	 DWORD PTR _vertices$[ebp+8], xmm0
  00059	8b 45 20	 mov	 eax, DWORD PTR _dwStartColor$[ebp]
  0005c	89 45 a8	 mov	 DWORD PTR _vertices$[ebp+12], eax
  0005f	0f 57 c0	 xorps	 xmm0, xmm0
  00062	f3 0f 11 45 ac	 movss	 DWORD PTR _vertices$[ebp+16], xmm0
  00067	0f 57 c0	 xorps	 xmm0, xmm0
  0006a	f3 0f 11 45 b0	 movss	 DWORD PTR _vertices$[ebp+20], xmm0

; 123  : 		{ sx, ey, ez, dwEndColor, 0.0f, 0.0f },

  0006f	f3 0f 10 45 08	 movss	 xmm0, DWORD PTR _sx$[ebp]
  00074	f3 0f 11 45 b4	 movss	 DWORD PTR _vertices$[ebp+24], xmm0
  00079	f3 0f 10 45 18	 movss	 xmm0, DWORD PTR _ey$[ebp]
  0007e	f3 0f 11 45 b8	 movss	 DWORD PTR _vertices$[ebp+28], xmm0
  00083	f3 0f 10 45 1c	 movss	 xmm0, DWORD PTR _ez$[ebp]
  00088	f3 0f 11 45 bc	 movss	 DWORD PTR _vertices$[ebp+32], xmm0
  0008d	8b 45 24	 mov	 eax, DWORD PTR _dwEndColor$[ebp]
  00090	89 45 c0	 mov	 DWORD PTR _vertices$[ebp+36], eax
  00093	0f 57 c0	 xorps	 xmm0, xmm0
  00096	f3 0f 11 45 c4	 movss	 DWORD PTR _vertices$[ebp+40], xmm0
  0009b	0f 57 c0	 xorps	 xmm0, xmm0
  0009e	f3 0f 11 45 c8	 movss	 DWORD PTR _vertices$[ebp+44], xmm0

; 124  : 		{ ex, sy, sz, dwStartColor, 0.0f, 0.0f },

  000a3	f3 0f 10 45 14	 movss	 xmm0, DWORD PTR _ex$[ebp]
  000a8	f3 0f 11 45 cc	 movss	 DWORD PTR _vertices$[ebp+48], xmm0
  000ad	f3 0f 10 45 0c	 movss	 xmm0, DWORD PTR _sy$[ebp]
  000b2	f3 0f 11 45 d0	 movss	 DWORD PTR _vertices$[ebp+52], xmm0
  000b7	f3 0f 10 45 10	 movss	 xmm0, DWORD PTR _sz$[ebp]
  000bc	f3 0f 11 45 d4	 movss	 DWORD PTR _vertices$[ebp+56], xmm0
  000c1	8b 45 20	 mov	 eax, DWORD PTR _dwStartColor$[ebp]
  000c4	89 45 d8	 mov	 DWORD PTR _vertices$[ebp+60], eax
  000c7	0f 57 c0	 xorps	 xmm0, xmm0
  000ca	f3 0f 11 45 dc	 movss	 DWORD PTR _vertices$[ebp+64], xmm0
  000cf	0f 57 c0	 xorps	 xmm0, xmm0
  000d2	f3 0f 11 45 e0	 movss	 DWORD PTR _vertices$[ebp+68], xmm0

; 125  : 		{ ex, ey, ez, dwEndColor, 0.0f, 0.0f },

  000d7	f3 0f 10 45 14	 movss	 xmm0, DWORD PTR _ex$[ebp]
  000dc	f3 0f 11 45 e4	 movss	 DWORD PTR _vertices$[ebp+72], xmm0
  000e1	f3 0f 10 45 18	 movss	 xmm0, DWORD PTR _ey$[ebp]
  000e6	f3 0f 11 45 e8	 movss	 DWORD PTR _vertices$[ebp+76], xmm0
  000eb	f3 0f 10 45 1c	 movss	 xmm0, DWORD PTR _ez$[ebp]
  000f0	f3 0f 11 45 ec	 movss	 DWORD PTR _vertices$[ebp+80], xmm0
  000f5	8b 45 24	 mov	 eax, DWORD PTR _dwEndColor$[ebp]
  000f8	89 45 f0	 mov	 DWORD PTR _vertices$[ebp+84], eax
  000fb	0f 57 c0	 xorps	 xmm0, xmm0
  000fe	f3 0f 11 45 f4	 movss	 DWORD PTR _vertices$[ebp+88], xmm0
  00103	0f 57 c0	 xorps	 xmm0, xmm0
  00106	f3 0f 11 45 f8	 movss	 DWORD PTR _vertices$[ebp+92], xmm0

; 126  : 	};
; 127  : 
; 128  : 	if (SetPDTStream(vertices, 4))

  0010b	6a 04		 push	 4
  0010d	8d 45 9c	 lea	 eax, DWORD PTR _vertices$[ebp]
  00110	50		 push	 eax
  00111	e8 00 00 00 00	 call	 ?SetPDTStream@CGraphicBase@@SA_NPAUSPDTVertexRaw@@I@Z ; CGraphicBase::SetPDTStream
  00116	59		 pop	 ecx
  00117	59		 pop	 ecx
  00118	0f b6 c0	 movzx	 eax, al
  0011b	85 c0		 test	 eax, eax
  0011d	74 3f		 je	 SHORT $LN4@RenderGrad

; 129  : 	{
; 130  : 		STATEMANAGER.SetTexture(0, NULL);

  0011f	6a 00		 push	 0
  00121	6a 00		 push	 0
  00123	8b 0d 00 00 00
	00		 mov	 ecx, DWORD PTR ?ms_singleton@?$CSingleton@VCStateManager@@@@0PAVCStateManager@@A ; CSingleton<CStateManager>::ms_singleton
  00129	e8 00 00 00 00	 call	 ?SetTexture@CStateManager@@QAEXKPAUIDirect3DBaseTexture8@@@Z ; CStateManager::SetTexture

; 131  : 		STATEMANAGER.SetTexture(1, NULL);

  0012e	6a 00		 push	 0
  00130	6a 01		 push	 1
  00132	8b 0d 00 00 00
	00		 mov	 ecx, DWORD PTR ?ms_singleton@?$CSingleton@VCStateManager@@@@0PAVCStateManager@@A ; CSingleton<CStateManager>::ms_singleton
  00138	e8 00 00 00 00	 call	 ?SetTexture@CStateManager@@QAEXKPAUIDirect3DBaseTexture8@@@Z ; CStateManager::SetTexture

; 132  : 		STATEMANAGER.SetVertexShader(D3DFVF_XYZ|D3DFVF_DIFFUSE|D3DFVF_TEX1);

  0013d	68 42 01 00 00	 push	 322			; 00000142H
  00142	8b 0d 00 00 00
	00		 mov	 ecx, DWORD PTR ?ms_singleton@?$CSingleton@VCStateManager@@@@0PAVCStateManager@@A ; CSingleton<CStateManager>::ms_singleton
  00148	e8 00 00 00 00	 call	 ?SetVertexShader@CStateManager@@QAEXK@Z ; CStateManager::SetVertexShader

; 133  : 		STATEMANAGER.DrawPrimitive(D3DPT_TRIANGLESTRIP, 0, 2);

  0014d	6a 02		 push	 2
  0014f	6a 00		 push	 0
  00151	6a 05		 push	 5
  00153	8b 0d 00 00 00
	00		 mov	 ecx, DWORD PTR ?ms_singleton@?$CSingleton@VCStateManager@@@@0PAVCStateManager@@A ; CSingleton<CStateManager>::ms_singleton
  00159	e8 00 00 00 00	 call	 ?DrawPrimitive@CStateManager@@QAEJW4_D3DPRIMITIVETYPE@@II@Z ; CStateManager::DrawPrimitive
$LN4@RenderGrad:
$LN1@RenderGrad:

; 134  : 	}
; 135  : }

  0015e	8b 4d fc	 mov	 ecx, DWORD PTR __$ArrayPad$[ebp]
  00161	33 cd		 xor	 ecx, ebp
  00163	e8 00 00 00 00	 call	 @__security_check_cookie@4
  00168	c9		 leave
  00169	c2 20 00	 ret	 32			; 00000020H
?RenderGradationBar3d@CScreen@@QAEXMMMMMMKK@Z ENDP	; CScreen::RenderGradationBar3d
_TEXT	ENDS
; Function compile flags: /Odspy
; File D:\Metin2 Server Files\mainline\SRC_2014\Metin2Client\EterLib\GrpScreen.cpp
;	COMDAT ?RenderBar3d@CScreen@@QAEXPBUD3DXVECTOR3@@@Z
_TEXT	SEGMENT
_this$ = -104						; size = 4
_vertices$ = -100					; size = 96
__$ArrayPad$ = -4					; size = 4
_c_pv3Positions$ = 8					; size = 4
?RenderBar3d@CScreen@@QAEXPBUD3DXVECTOR3@@@Z PROC	; CScreen::RenderBar3d, COMDAT
; _this$ = ecx

; 93   : {

  00000	55		 push	 ebp
  00001	8b ec		 mov	 ebp, esp
  00003	83 ec 68	 sub	 esp, 104		; 00000068H
  00006	a1 00 00 00 00	 mov	 eax, DWORD PTR ___security_cookie
  0000b	33 c5		 xor	 eax, ebp
  0000d	89 45 fc	 mov	 DWORD PTR __$ArrayPad$[ebp], eax
  00010	89 4d 98	 mov	 DWORD PTR _this$[ebp], ecx

; 94   : 	assert(ms_lpd3dDevice != NULL);
; 95   : 	
; 96   : 	SPDTVertexRaw vertices[4] =
; 97   : 	{
; 98   : 		{ c_pv3Positions[0].x, c_pv3Positions[0].y, c_pv3Positions[0].z, ms_diffuseColor, 0.0f, 0.0f },

  00013	6a 0c		 push	 12			; 0000000cH
  00015	58		 pop	 eax
  00016	6b c0 00	 imul	 eax, eax, 0
  00019	8b 4d 08	 mov	 ecx, DWORD PTR _c_pv3Positions$[ebp]
  0001c	f3 0f 10 04 01	 movss	 xmm0, DWORD PTR [ecx+eax]
  00021	f3 0f 11 45 9c	 movss	 DWORD PTR _vertices$[ebp], xmm0
  00026	6a 0c		 push	 12			; 0000000cH
  00028	58		 pop	 eax
  00029	6b c0 00	 imul	 eax, eax, 0
  0002c	8b 4d 08	 mov	 ecx, DWORD PTR _c_pv3Positions$[ebp]
  0002f	f3 0f 10 44 01
	04		 movss	 xmm0, DWORD PTR [ecx+eax+4]
  00035	f3 0f 11 45 a0	 movss	 DWORD PTR _vertices$[ebp+4], xmm0
  0003a	6a 0c		 push	 12			; 0000000cH
  0003c	58		 pop	 eax
  0003d	6b c0 00	 imul	 eax, eax, 0
  00040	8b 4d 08	 mov	 ecx, DWORD PTR _c_pv3Positions$[ebp]
  00043	f3 0f 10 44 01
	08		 movss	 xmm0, DWORD PTR [ecx+eax+8]
  00049	f3 0f 11 45 a4	 movss	 DWORD PTR _vertices$[ebp+8], xmm0
  0004e	a1 00 00 00 00	 mov	 eax, DWORD PTR ?ms_diffuseColor@CScreen@@1KA ; CScreen::ms_diffuseColor
  00053	89 45 a8	 mov	 DWORD PTR _vertices$[ebp+12], eax
  00056	0f 57 c0	 xorps	 xmm0, xmm0
  00059	f3 0f 11 45 ac	 movss	 DWORD PTR _vertices$[ebp+16], xmm0
  0005e	0f 57 c0	 xorps	 xmm0, xmm0
  00061	f3 0f 11 45 b0	 movss	 DWORD PTR _vertices$[ebp+20], xmm0

; 99   : 		{ c_pv3Positions[2].x, c_pv3Positions[2].y, c_pv3Positions[2].z, ms_diffuseColor, 0.0f, 0.0f },

  00066	6a 0c		 push	 12			; 0000000cH
  00068	58		 pop	 eax
  00069	d1 e0		 shl	 eax, 1
  0006b	8b 4d 08	 mov	 ecx, DWORD PTR _c_pv3Positions$[ebp]
  0006e	f3 0f 10 04 01	 movss	 xmm0, DWORD PTR [ecx+eax]
  00073	f3 0f 11 45 b4	 movss	 DWORD PTR _vertices$[ebp+24], xmm0
  00078	6a 0c		 push	 12			; 0000000cH
  0007a	58		 pop	 eax
  0007b	d1 e0		 shl	 eax, 1
  0007d	8b 4d 08	 mov	 ecx, DWORD PTR _c_pv3Positions$[ebp]
  00080	f3 0f 10 44 01
	04		 movss	 xmm0, DWORD PTR [ecx+eax+4]
  00086	f3 0f 11 45 b8	 movss	 DWORD PTR _vertices$[ebp+28], xmm0
  0008b	6a 0c		 push	 12			; 0000000cH
  0008d	58		 pop	 eax
  0008e	d1 e0		 shl	 eax, 1
  00090	8b 4d 08	 mov	 ecx, DWORD PTR _c_pv3Positions$[ebp]
  00093	f3 0f 10 44 01
	08		 movss	 xmm0, DWORD PTR [ecx+eax+8]
  00099	f3 0f 11 45 bc	 movss	 DWORD PTR _vertices$[ebp+32], xmm0
  0009e	a1 00 00 00 00	 mov	 eax, DWORD PTR ?ms_diffuseColor@CScreen@@1KA ; CScreen::ms_diffuseColor
  000a3	89 45 c0	 mov	 DWORD PTR _vertices$[ebp+36], eax
  000a6	0f 57 c0	 xorps	 xmm0, xmm0
  000a9	f3 0f 11 45 c4	 movss	 DWORD PTR _vertices$[ebp+40], xmm0
  000ae	0f 57 c0	 xorps	 xmm0, xmm0
  000b1	f3 0f 11 45 c8	 movss	 DWORD PTR _vertices$[ebp+44], xmm0

; 100  : 		{ c_pv3Positions[1].x, c_pv3Positions[1].y, c_pv3Positions[1].z, ms_diffuseColor, 0.0f, 0.0f },

  000b6	6a 0c		 push	 12			; 0000000cH
  000b8	58		 pop	 eax
  000b9	c1 e0 00	 shl	 eax, 0
  000bc	8b 4d 08	 mov	 ecx, DWORD PTR _c_pv3Positions$[ebp]
  000bf	f3 0f 10 04 01	 movss	 xmm0, DWORD PTR [ecx+eax]
  000c4	f3 0f 11 45 cc	 movss	 DWORD PTR _vertices$[ebp+48], xmm0
  000c9	6a 0c		 push	 12			; 0000000cH
  000cb	58		 pop	 eax
  000cc	c1 e0 00	 shl	 eax, 0
  000cf	8b 4d 08	 mov	 ecx, DWORD PTR _c_pv3Positions$[ebp]
  000d2	f3 0f 10 44 01
	04		 movss	 xmm0, DWORD PTR [ecx+eax+4]
  000d8	f3 0f 11 45 d0	 movss	 DWORD PTR _vertices$[ebp+52], xmm0
  000dd	6a 0c		 push	 12			; 0000000cH
  000df	58		 pop	 eax
  000e0	c1 e0 00	 shl	 eax, 0
  000e3	8b 4d 08	 mov	 ecx, DWORD PTR _c_pv3Positions$[ebp]
  000e6	f3 0f 10 44 01
	08		 movss	 xmm0, DWORD PTR [ecx+eax+8]
  000ec	f3 0f 11 45 d4	 movss	 DWORD PTR _vertices$[ebp+56], xmm0
  000f1	a1 00 00 00 00	 mov	 eax, DWORD PTR ?ms_diffuseColor@CScreen@@1KA ; CScreen::ms_diffuseColor
  000f6	89 45 d8	 mov	 DWORD PTR _vertices$[ebp+60], eax
  000f9	0f 57 c0	 xorps	 xmm0, xmm0
  000fc	f3 0f 11 45 dc	 movss	 DWORD PTR _vertices$[ebp+64], xmm0
  00101	0f 57 c0	 xorps	 xmm0, xmm0
  00104	f3 0f 11 45 e0	 movss	 DWORD PTR _vertices$[ebp+68], xmm0

; 101  : 		{ c_pv3Positions[3].x, c_pv3Positions[3].y, c_pv3Positions[3].z, ms_diffuseColor, 0.0f, 0.0f },

  00109	6a 0c		 push	 12			; 0000000cH
  0010b	58		 pop	 eax
  0010c	6b c0 03	 imul	 eax, eax, 3
  0010f	8b 4d 08	 mov	 ecx, DWORD PTR _c_pv3Positions$[ebp]
  00112	f3 0f 10 04 01	 movss	 xmm0, DWORD PTR [ecx+eax]
  00117	f3 0f 11 45 e4	 movss	 DWORD PTR _vertices$[ebp+72], xmm0
  0011c	6a 0c		 push	 12			; 0000000cH
  0011e	58		 pop	 eax
  0011f	6b c0 03	 imul	 eax, eax, 3
  00122	8b 4d 08	 mov	 ecx, DWORD PTR _c_pv3Positions$[ebp]
  00125	f3 0f 10 44 01
	04		 movss	 xmm0, DWORD PTR [ecx+eax+4]
  0012b	f3 0f 11 45 e8	 movss	 DWORD PTR _vertices$[ebp+76], xmm0
  00130	6a 0c		 push	 12			; 0000000cH
  00132	58		 pop	 eax
  00133	6b c0 03	 imul	 eax, eax, 3
  00136	8b 4d 08	 mov	 ecx, DWORD PTR _c_pv3Positions$[ebp]
  00139	f3 0f 10 44 01
	08		 movss	 xmm0, DWORD PTR [ecx+eax+8]
  0013f	f3 0f 11 45 ec	 movss	 DWORD PTR _vertices$[ebp+80], xmm0
  00144	a1 00 00 00 00	 mov	 eax, DWORD PTR ?ms_diffuseColor@CScreen@@1KA ; CScreen::ms_diffuseColor
  00149	89 45 f0	 mov	 DWORD PTR _vertices$[ebp+84], eax
  0014c	0f 57 c0	 xorps	 xmm0, xmm0
  0014f	f3 0f 11 45 f4	 movss	 DWORD PTR _vertices$[ebp+88], xmm0
  00154	0f 57 c0	 xorps	 xmm0, xmm0
  00157	f3 0f 11 45 f8	 movss	 DWORD PTR _vertices$[ebp+92], xmm0

; 102  : 	};
; 103  : 
; 104  : 
; 105  : 	if (SetPDTStream(vertices, 4))

  0015c	6a 04		 push	 4
  0015e	8d 45 9c	 lea	 eax, DWORD PTR _vertices$[ebp]
  00161	50		 push	 eax
  00162	e8 00 00 00 00	 call	 ?SetPDTStream@CGraphicBase@@SA_NPAUSPDTVertexRaw@@I@Z ; CGraphicBase::SetPDTStream
  00167	59		 pop	 ecx
  00168	59		 pop	 ecx
  00169	0f b6 c0	 movzx	 eax, al
  0016c	85 c0		 test	 eax, eax
  0016e	74 3f		 je	 SHORT $LN2@RenderBar3

; 106  : 	{
; 107  : 		STATEMANAGER.SetTexture(0, NULL);

  00170	6a 00		 push	 0
  00172	6a 00		 push	 0
  00174	8b 0d 00 00 00
	00		 mov	 ecx, DWORD PTR ?ms_singleton@?$CSingleton@VCStateManager@@@@0PAVCStateManager@@A ; CSingleton<CStateManager>::ms_singleton
  0017a	e8 00 00 00 00	 call	 ?SetTexture@CStateManager@@QAEXKPAUIDirect3DBaseTexture8@@@Z ; CStateManager::SetTexture

; 108  : 		STATEMANAGER.SetTexture(1, NULL);

  0017f	6a 00		 push	 0
  00181	6a 01		 push	 1
  00183	8b 0d 00 00 00
	00		 mov	 ecx, DWORD PTR ?ms_singleton@?$CSingleton@VCStateManager@@@@0PAVCStateManager@@A ; CSingleton<CStateManager>::ms_singleton
  00189	e8 00 00 00 00	 call	 ?SetTexture@CStateManager@@QAEXKPAUIDirect3DBaseTexture8@@@Z ; CStateManager::SetTexture

; 109  : 		STATEMANAGER.SetVertexShader(D3DFVF_XYZ|D3DFVF_DIFFUSE|D3DFVF_TEX1);

  0018e	68 42 01 00 00	 push	 322			; 00000142H
  00193	8b 0d 00 00 00
	00		 mov	 ecx, DWORD PTR ?ms_singleton@?$CSingleton@VCStateManager@@@@0PAVCStateManager@@A ; CSingleton<CStateManager>::ms_singleton
  00199	e8 00 00 00 00	 call	 ?SetVertexShader@CStateManager@@QAEXK@Z ; CStateManager::SetVertexShader

; 110  : 		STATEMANAGER.DrawPrimitive(D3DPT_TRIANGLESTRIP, 0, 2);

  0019e	6a 02		 push	 2
  001a0	6a 00		 push	 0
  001a2	6a 05		 push	 5
  001a4	8b 0d 00 00 00
	00		 mov	 ecx, DWORD PTR ?ms_singleton@?$CSingleton@VCStateManager@@@@0PAVCStateManager@@A ; CSingleton<CStateManager>::ms_singleton
  001aa	e8 00 00 00 00	 call	 ?DrawPrimitive@CStateManager@@QAEJW4_D3DPRIMITIVETYPE@@II@Z ; CStateManager::DrawPrimitive
$LN2@RenderBar3:

; 111  : 	}
; 112  : }

  001af	8b 4d fc	 mov	 ecx, DWORD PTR __$ArrayPad$[ebp]
  001b2	33 cd		 xor	 ecx, ebp
  001b4	e8 00 00 00 00	 call	 @__security_check_cookie@4
  001b9	c9		 leave
  001ba	c2 04 00	 ret	 4
?RenderBar3d@CScreen@@QAEXPBUD3DXVECTOR3@@@Z ENDP	; CScreen::RenderBar3d
_TEXT	ENDS
; Function compile flags: /Odspy
; File D:\Metin2 Server Files\mainline\SRC_2014\Metin2Client\EterLib\GrpScreen.cpp
;	COMDAT ?RenderBar3d@CScreen@@QAEXMMMMMM@Z
_TEXT	SEGMENT
_this$ = -104						; size = 4
_vertices$ = -100					; size = 96
__$ArrayPad$ = -4					; size = 4
_sx$ = 8						; size = 4
_sy$ = 12						; size = 4
_sz$ = 16						; size = 4
_ex$ = 20						; size = 4
_ey$ = 24						; size = 4
_ez$ = 28						; size = 4
?RenderBar3d@CScreen@@QAEXMMMMMM@Z PROC			; CScreen::RenderBar3d, COMDAT
; _this$ = ecx

; 70   : {

  00000	55		 push	 ebp
  00001	8b ec		 mov	 ebp, esp
  00003	83 ec 68	 sub	 esp, 104		; 00000068H
  00006	a1 00 00 00 00	 mov	 eax, DWORD PTR ___security_cookie
  0000b	33 c5		 xor	 eax, ebp
  0000d	89 45 fc	 mov	 DWORD PTR __$ArrayPad$[ebp], eax
  00010	89 4d 98	 mov	 DWORD PTR _this$[ebp], ecx

; 71   : 	assert(ms_lpd3dDevice != NULL);
; 72   : 
; 73   : 	SPDTVertexRaw vertices[4] =
; 74   : 	{
; 75   : 		{ sx, sy, sz, ms_diffuseColor, 0.0f, 0.0f },

  00013	f3 0f 10 45 08	 movss	 xmm0, DWORD PTR _sx$[ebp]
  00018	f3 0f 11 45 9c	 movss	 DWORD PTR _vertices$[ebp], xmm0
  0001d	f3 0f 10 45 0c	 movss	 xmm0, DWORD PTR _sy$[ebp]
  00022	f3 0f 11 45 a0	 movss	 DWORD PTR _vertices$[ebp+4], xmm0
  00027	f3 0f 10 45 10	 movss	 xmm0, DWORD PTR _sz$[ebp]
  0002c	f3 0f 11 45 a4	 movss	 DWORD PTR _vertices$[ebp+8], xmm0
  00031	a1 00 00 00 00	 mov	 eax, DWORD PTR ?ms_diffuseColor@CScreen@@1KA ; CScreen::ms_diffuseColor
  00036	89 45 a8	 mov	 DWORD PTR _vertices$[ebp+12], eax
  00039	0f 57 c0	 xorps	 xmm0, xmm0
  0003c	f3 0f 11 45 ac	 movss	 DWORD PTR _vertices$[ebp+16], xmm0
  00041	0f 57 c0	 xorps	 xmm0, xmm0
  00044	f3 0f 11 45 b0	 movss	 DWORD PTR _vertices$[ebp+20], xmm0

; 76   : 		{ sx, ey, ez, ms_diffuseColor, 0.0f, 0.0f },

  00049	f3 0f 10 45 08	 movss	 xmm0, DWORD PTR _sx$[ebp]
  0004e	f3 0f 11 45 b4	 movss	 DWORD PTR _vertices$[ebp+24], xmm0
  00053	f3 0f 10 45 18	 movss	 xmm0, DWORD PTR _ey$[ebp]
  00058	f3 0f 11 45 b8	 movss	 DWORD PTR _vertices$[ebp+28], xmm0
  0005d	f3 0f 10 45 1c	 movss	 xmm0, DWORD PTR _ez$[ebp]
  00062	f3 0f 11 45 bc	 movss	 DWORD PTR _vertices$[ebp+32], xmm0
  00067	a1 00 00 00 00	 mov	 eax, DWORD PTR ?ms_diffuseColor@CScreen@@1KA ; CScreen::ms_diffuseColor
  0006c	89 45 c0	 mov	 DWORD PTR _vertices$[ebp+36], eax
  0006f	0f 57 c0	 xorps	 xmm0, xmm0
  00072	f3 0f 11 45 c4	 movss	 DWORD PTR _vertices$[ebp+40], xmm0
  00077	0f 57 c0	 xorps	 xmm0, xmm0
  0007a	f3 0f 11 45 c8	 movss	 DWORD PTR _vertices$[ebp+44], xmm0

; 77   : 		{ ex, sy, sz, ms_diffuseColor, 0.0f, 0.0f },

  0007f	f3 0f 10 45 14	 movss	 xmm0, DWORD PTR _ex$[ebp]
  00084	f3 0f 11 45 cc	 movss	 DWORD PTR _vertices$[ebp+48], xmm0
  00089	f3 0f 10 45 0c	 movss	 xmm0, DWORD PTR _sy$[ebp]
  0008e	f3 0f 11 45 d0	 movss	 DWORD PTR _vertices$[ebp+52], xmm0
  00093	f3 0f 10 45 10	 movss	 xmm0, DWORD PTR _sz$[ebp]
  00098	f3 0f 11 45 d4	 movss	 DWORD PTR _vertices$[ebp+56], xmm0
  0009d	a1 00 00 00 00	 mov	 eax, DWORD PTR ?ms_diffuseColor@CScreen@@1KA ; CScreen::ms_diffuseColor
  000a2	89 45 d8	 mov	 DWORD PTR _vertices$[ebp+60], eax
  000a5	0f 57 c0	 xorps	 xmm0, xmm0
  000a8	f3 0f 11 45 dc	 movss	 DWORD PTR _vertices$[ebp+64], xmm0
  000ad	0f 57 c0	 xorps	 xmm0, xmm0
  000b0	f3 0f 11 45 e0	 movss	 DWORD PTR _vertices$[ebp+68], xmm0

; 78   : 		{ ex, ey, ez, ms_diffuseColor, 0.0f, 0.0f },

  000b5	f3 0f 10 45 14	 movss	 xmm0, DWORD PTR _ex$[ebp]
  000ba	f3 0f 11 45 e4	 movss	 DWORD PTR _vertices$[ebp+72], xmm0
  000bf	f3 0f 10 45 18	 movss	 xmm0, DWORD PTR _ey$[ebp]
  000c4	f3 0f 11 45 e8	 movss	 DWORD PTR _vertices$[ebp+76], xmm0
  000c9	f3 0f 10 45 1c	 movss	 xmm0, DWORD PTR _ez$[ebp]
  000ce	f3 0f 11 45 ec	 movss	 DWORD PTR _vertices$[ebp+80], xmm0
  000d3	a1 00 00 00 00	 mov	 eax, DWORD PTR ?ms_diffuseColor@CScreen@@1KA ; CScreen::ms_diffuseColor
  000d8	89 45 f0	 mov	 DWORD PTR _vertices$[ebp+84], eax
  000db	0f 57 c0	 xorps	 xmm0, xmm0
  000de	f3 0f 11 45 f4	 movss	 DWORD PTR _vertices$[ebp+88], xmm0
  000e3	0f 57 c0	 xorps	 xmm0, xmm0
  000e6	f3 0f 11 45 f8	 movss	 DWORD PTR _vertices$[ebp+92], xmm0

; 79   : 	};
; 80   : 
; 81   : 	
; 82   : 
; 83   : 	if (SetPDTStream(vertices, 4))

  000eb	6a 04		 push	 4
  000ed	8d 45 9c	 lea	 eax, DWORD PTR _vertices$[ebp]
  000f0	50		 push	 eax
  000f1	e8 00 00 00 00	 call	 ?SetPDTStream@CGraphicBase@@SA_NPAUSPDTVertexRaw@@I@Z ; CGraphicBase::SetPDTStream
  000f6	59		 pop	 ecx
  000f7	59		 pop	 ecx
  000f8	0f b6 c0	 movzx	 eax, al
  000fb	85 c0		 test	 eax, eax
  000fd	74 3f		 je	 SHORT $LN2@RenderBar3

; 84   : 	{
; 85   : 		STATEMANAGER.SetTexture(0, NULL);

  000ff	6a 00		 push	 0
  00101	6a 00		 push	 0
  00103	8b 0d 00 00 00
	00		 mov	 ecx, DWORD PTR ?ms_singleton@?$CSingleton@VCStateManager@@@@0PAVCStateManager@@A ; CSingleton<CStateManager>::ms_singleton
  00109	e8 00 00 00 00	 call	 ?SetTexture@CStateManager@@QAEXKPAUIDirect3DBaseTexture8@@@Z ; CStateManager::SetTexture

; 86   : 		STATEMANAGER.SetTexture(1, NULL);

  0010e	6a 00		 push	 0
  00110	6a 01		 push	 1
  00112	8b 0d 00 00 00
	00		 mov	 ecx, DWORD PTR ?ms_singleton@?$CSingleton@VCStateManager@@@@0PAVCStateManager@@A ; CSingleton<CStateManager>::ms_singleton
  00118	e8 00 00 00 00	 call	 ?SetTexture@CStateManager@@QAEXKPAUIDirect3DBaseTexture8@@@Z ; CStateManager::SetTexture

; 87   : 		STATEMANAGER.SetVertexShader(D3DFVF_XYZ|D3DFVF_DIFFUSE|D3DFVF_TEX1);

  0011d	68 42 01 00 00	 push	 322			; 00000142H
  00122	8b 0d 00 00 00
	00		 mov	 ecx, DWORD PTR ?ms_singleton@?$CSingleton@VCStateManager@@@@0PAVCStateManager@@A ; CSingleton<CStateManager>::ms_singleton
  00128	e8 00 00 00 00	 call	 ?SetVertexShader@CStateManager@@QAEXK@Z ; CStateManager::SetVertexShader

; 88   : 		STATEMANAGER.DrawPrimitive(D3DPT_TRIANGLESTRIP, 0, 2);

  0012d	6a 02		 push	 2
  0012f	6a 00		 push	 0
  00131	6a 05		 push	 5
  00133	8b 0d 00 00 00
	00		 mov	 ecx, DWORD PTR ?ms_singleton@?$CSingleton@VCStateManager@@@@0PAVCStateManager@@A ; CSingleton<CStateManager>::ms_singleton
  00139	e8 00 00 00 00	 call	 ?DrawPrimitive@CStateManager@@QAEJW4_D3DPRIMITIVETYPE@@II@Z ; CStateManager::DrawPrimitive
$LN2@RenderBar3:

; 89   : 	}
; 90   : }

  0013e	8b 4d fc	 mov	 ecx, DWORD PTR __$ArrayPad$[ebp]
  00141	33 cd		 xor	 ecx, ebp
  00143	e8 00 00 00 00	 call	 @__security_check_cookie@4
  00148	c9		 leave
  00149	c2 18 00	 ret	 24			; 00000018H
?RenderBar3d@CScreen@@QAEXMMMMMM@Z ENDP			; CScreen::RenderBar3d
_TEXT	ENDS
; Function compile flags: /Odspy
; File D:\Metin2 Server Files\mainline\SRC_2014\Metin2Client\EterLib\GrpScreen.cpp
;	COMDAT ?RenderBox3d@CScreen@@QAEXMMMMMM@Z
_TEXT	SEGMENT
_this$ = -104						; size = 4
_vertices$ = -100					; size = 192
__$ArrayPad$ = 92					; size = 4
_sx$ = 104						; size = 4
_sy$ = 108						; size = 4
_sz$ = 112						; size = 4
_ex$ = 116						; size = 4
_ey$ = 120						; size = 4
_ez$ = 124						; size = 4
?RenderBox3d@CScreen@@QAEXMMMMMM@Z PROC			; CScreen::RenderBox3d, COMDAT
; _this$ = ecx

; 38   : {

  00000	55		 push	 ebp
  00001	8d 6c 24 a0	 lea	 ebp, DWORD PTR [esp-96]
  00005	81 ec c8 00 00
	00		 sub	 esp, 200		; 000000c8H
  0000b	a1 00 00 00 00	 mov	 eax, DWORD PTR ___security_cookie
  00010	33 c5		 xor	 eax, ebp
  00012	89 45 5c	 mov	 DWORD PTR __$ArrayPad$[ebp], eax
  00015	89 4d 98	 mov	 DWORD PTR _this$[ebp], ecx

; 39   : 	if (GRAPHICS_CAPS_CAN_NOT_DRAW_LINE)

  00018	0f b6 05 00 00
	00 00		 movzx	 eax, BYTE PTR ?GRAPHICS_CAPS_CAN_NOT_DRAW_LINE@@3_NA ; GRAPHICS_CAPS_CAN_NOT_DRAW_LINE
  0001f	85 c0		 test	 eax, eax
  00021	74 05		 je	 SHORT $LN2@RenderBox3

; 40   : 		return;

  00023	e9 0b 02 00 00	 jmp	 $LN1@RenderBox3
$LN2@RenderBox3:

; 41   : 
; 42   : 	assert(ms_lpd3dDevice != NULL);
; 43   : 
; 44   : 	SPDTVertexRaw vertices[8] =
; 45   : 	{
; 46   : 		{ sx, sy, sz, ms_diffuseColor, 0.0f, 0.0f },	// 0

  00028	f3 0f 10 45 68	 movss	 xmm0, DWORD PTR _sx$[ebp]
  0002d	f3 0f 11 45 9c	 movss	 DWORD PTR _vertices$[ebp], xmm0
  00032	f3 0f 10 45 6c	 movss	 xmm0, DWORD PTR _sy$[ebp]
  00037	f3 0f 11 45 a0	 movss	 DWORD PTR _vertices$[ebp+4], xmm0
  0003c	f3 0f 10 45 70	 movss	 xmm0, DWORD PTR _sz$[ebp]
  00041	f3 0f 11 45 a4	 movss	 DWORD PTR _vertices$[ebp+8], xmm0
  00046	a1 00 00 00 00	 mov	 eax, DWORD PTR ?ms_diffuseColor@CScreen@@1KA ; CScreen::ms_diffuseColor
  0004b	89 45 a8	 mov	 DWORD PTR _vertices$[ebp+12], eax
  0004e	0f 57 c0	 xorps	 xmm0, xmm0
  00051	f3 0f 11 45 ac	 movss	 DWORD PTR _vertices$[ebp+16], xmm0
  00056	0f 57 c0	 xorps	 xmm0, xmm0
  00059	f3 0f 11 45 b0	 movss	 DWORD PTR _vertices$[ebp+20], xmm0

; 47   : 		{ ex, sy, sz, ms_diffuseColor, 0.0f, 0.0f },	// 1

  0005e	f3 0f 10 45 74	 movss	 xmm0, DWORD PTR _ex$[ebp]
  00063	f3 0f 11 45 b4	 movss	 DWORD PTR _vertices$[ebp+24], xmm0
  00068	f3 0f 10 45 6c	 movss	 xmm0, DWORD PTR _sy$[ebp]
  0006d	f3 0f 11 45 b8	 movss	 DWORD PTR _vertices$[ebp+28], xmm0
  00072	f3 0f 10 45 70	 movss	 xmm0, DWORD PTR _sz$[ebp]
  00077	f3 0f 11 45 bc	 movss	 DWORD PTR _vertices$[ebp+32], xmm0
  0007c	a1 00 00 00 00	 mov	 eax, DWORD PTR ?ms_diffuseColor@CScreen@@1KA ; CScreen::ms_diffuseColor
  00081	89 45 c0	 mov	 DWORD PTR _vertices$[ebp+36], eax
  00084	0f 57 c0	 xorps	 xmm0, xmm0
  00087	f3 0f 11 45 c4	 movss	 DWORD PTR _vertices$[ebp+40], xmm0
  0008c	0f 57 c0	 xorps	 xmm0, xmm0
  0008f	f3 0f 11 45 c8	 movss	 DWORD PTR _vertices$[ebp+44], xmm0

; 48   : 
; 49   : 		{ sx, sy, sz, ms_diffuseColor, 0.0f, 0.0f },	// 0

  00094	f3 0f 10 45 68	 movss	 xmm0, DWORD PTR _sx$[ebp]
  00099	f3 0f 11 45 cc	 movss	 DWORD PTR _vertices$[ebp+48], xmm0
  0009e	f3 0f 10 45 6c	 movss	 xmm0, DWORD PTR _sy$[ebp]
  000a3	f3 0f 11 45 d0	 movss	 DWORD PTR _vertices$[ebp+52], xmm0
  000a8	f3 0f 10 45 70	 movss	 xmm0, DWORD PTR _sz$[ebp]
  000ad	f3 0f 11 45 d4	 movss	 DWORD PTR _vertices$[ebp+56], xmm0
  000b2	a1 00 00 00 00	 mov	 eax, DWORD PTR ?ms_diffuseColor@CScreen@@1KA ; CScreen::ms_diffuseColor
  000b7	89 45 d8	 mov	 DWORD PTR _vertices$[ebp+60], eax
  000ba	0f 57 c0	 xorps	 xmm0, xmm0
  000bd	f3 0f 11 45 dc	 movss	 DWORD PTR _vertices$[ebp+64], xmm0
  000c2	0f 57 c0	 xorps	 xmm0, xmm0
  000c5	f3 0f 11 45 e0	 movss	 DWORD PTR _vertices$[ebp+68], xmm0

; 50   : 		{ sx, ey, ez, ms_diffuseColor, 0.0f, 0.0f },	// 2

  000ca	f3 0f 10 45 68	 movss	 xmm0, DWORD PTR _sx$[ebp]
  000cf	f3 0f 11 45 e4	 movss	 DWORD PTR _vertices$[ebp+72], xmm0
  000d4	f3 0f 10 45 78	 movss	 xmm0, DWORD PTR _ey$[ebp]
  000d9	f3 0f 11 45 e8	 movss	 DWORD PTR _vertices$[ebp+76], xmm0
  000de	f3 0f 10 45 7c	 movss	 xmm0, DWORD PTR _ez$[ebp]
  000e3	f3 0f 11 45 ec	 movss	 DWORD PTR _vertices$[ebp+80], xmm0
  000e8	a1 00 00 00 00	 mov	 eax, DWORD PTR ?ms_diffuseColor@CScreen@@1KA ; CScreen::ms_diffuseColor
  000ed	89 45 f0	 mov	 DWORD PTR _vertices$[ebp+84], eax
  000f0	0f 57 c0	 xorps	 xmm0, xmm0
  000f3	f3 0f 11 45 f4	 movss	 DWORD PTR _vertices$[ebp+88], xmm0
  000f8	0f 57 c0	 xorps	 xmm0, xmm0
  000fb	f3 0f 11 45 f8	 movss	 DWORD PTR _vertices$[ebp+92], xmm0

; 51   : 
; 52   : 		{ ex, sy, sz, ms_diffuseColor, 0.0f, 0.0f },	// 1

  00100	f3 0f 10 45 74	 movss	 xmm0, DWORD PTR _ex$[ebp]
  00105	f3 0f 11 45 fc	 movss	 DWORD PTR _vertices$[ebp+96], xmm0
  0010a	f3 0f 10 45 6c	 movss	 xmm0, DWORD PTR _sy$[ebp]
  0010f	f3 0f 11 45 00	 movss	 DWORD PTR _vertices$[ebp+100], xmm0
  00114	f3 0f 10 45 70	 movss	 xmm0, DWORD PTR _sz$[ebp]
  00119	f3 0f 11 45 04	 movss	 DWORD PTR _vertices$[ebp+104], xmm0
  0011e	a1 00 00 00 00	 mov	 eax, DWORD PTR ?ms_diffuseColor@CScreen@@1KA ; CScreen::ms_diffuseColor
  00123	89 45 08	 mov	 DWORD PTR _vertices$[ebp+108], eax
  00126	0f 57 c0	 xorps	 xmm0, xmm0
  00129	f3 0f 11 45 0c	 movss	 DWORD PTR _vertices$[ebp+112], xmm0
  0012e	0f 57 c0	 xorps	 xmm0, xmm0
  00131	f3 0f 11 45 10	 movss	 DWORD PTR _vertices$[ebp+116], xmm0

; 53   : 		{ ex, ey, ez, ms_diffuseColor, 0.0f, 0.0f },	// 3

  00136	f3 0f 10 45 74	 movss	 xmm0, DWORD PTR _ex$[ebp]
  0013b	f3 0f 11 45 14	 movss	 DWORD PTR _vertices$[ebp+120], xmm0
  00140	f3 0f 10 45 78	 movss	 xmm0, DWORD PTR _ey$[ebp]
  00145	f3 0f 11 45 18	 movss	 DWORD PTR _vertices$[ebp+124], xmm0
  0014a	f3 0f 10 45 7c	 movss	 xmm0, DWORD PTR _ez$[ebp]
  0014f	f3 0f 11 45 1c	 movss	 DWORD PTR _vertices$[ebp+128], xmm0
  00154	a1 00 00 00 00	 mov	 eax, DWORD PTR ?ms_diffuseColor@CScreen@@1KA ; CScreen::ms_diffuseColor
  00159	89 45 20	 mov	 DWORD PTR _vertices$[ebp+132], eax
  0015c	0f 57 c0	 xorps	 xmm0, xmm0
  0015f	f3 0f 11 45 24	 movss	 DWORD PTR _vertices$[ebp+136], xmm0
  00164	0f 57 c0	 xorps	 xmm0, xmm0
  00167	f3 0f 11 45 28	 movss	 DWORD PTR _vertices$[ebp+140], xmm0

; 54   : 
; 55   : 		{ sx, ey, ez, ms_diffuseColor, 0.0f, 0.0f },	// 2

  0016c	f3 0f 10 45 68	 movss	 xmm0, DWORD PTR _sx$[ebp]
  00171	f3 0f 11 45 2c	 movss	 DWORD PTR _vertices$[ebp+144], xmm0
  00176	f3 0f 10 45 78	 movss	 xmm0, DWORD PTR _ey$[ebp]
  0017b	f3 0f 11 45 30	 movss	 DWORD PTR _vertices$[ebp+148], xmm0
  00180	f3 0f 10 45 7c	 movss	 xmm0, DWORD PTR _ez$[ebp]
  00185	f3 0f 11 45 34	 movss	 DWORD PTR _vertices$[ebp+152], xmm0
  0018a	a1 00 00 00 00	 mov	 eax, DWORD PTR ?ms_diffuseColor@CScreen@@1KA ; CScreen::ms_diffuseColor
  0018f	89 45 38	 mov	 DWORD PTR _vertices$[ebp+156], eax
  00192	0f 57 c0	 xorps	 xmm0, xmm0
  00195	f3 0f 11 45 3c	 movss	 DWORD PTR _vertices$[ebp+160], xmm0
  0019a	0f 57 c0	 xorps	 xmm0, xmm0
  0019d	f3 0f 11 45 40	 movss	 DWORD PTR _vertices$[ebp+164], xmm0

; 56   : 		{ ex+1.0f, ey, ez, ms_diffuseColor, 0.0f, 0.0f }	// 3, (x 1 3)

  001a2	f3 0f 10 45 74	 movss	 xmm0, DWORD PTR _ex$[ebp]
  001a7	f3 0f 58 05 00
	00 00 00	 addss	 xmm0, DWORD PTR __real@3f800000
  001af	f3 0f 11 45 44	 movss	 DWORD PTR _vertices$[ebp+168], xmm0
  001b4	f3 0f 10 45 78	 movss	 xmm0, DWORD PTR _ey$[ebp]
  001b9	f3 0f 11 45 48	 movss	 DWORD PTR _vertices$[ebp+172], xmm0
  001be	f3 0f 10 45 7c	 movss	 xmm0, DWORD PTR _ez$[ebp]
  001c3	f3 0f 11 45 4c	 movss	 DWORD PTR _vertices$[ebp+176], xmm0
  001c8	a1 00 00 00 00	 mov	 eax, DWORD PTR ?ms_diffuseColor@CScreen@@1KA ; CScreen::ms_diffuseColor
  001cd	89 45 50	 mov	 DWORD PTR _vertices$[ebp+180], eax
  001d0	0f 57 c0	 xorps	 xmm0, xmm0
  001d3	f3 0f 11 45 54	 movss	 DWORD PTR _vertices$[ebp+184], xmm0
  001d8	0f 57 c0	 xorps	 xmm0, xmm0
  001db	f3 0f 11 45 58	 movss	 DWORD PTR _vertices$[ebp+188], xmm0

; 57   : 	};
; 58   : 
; 59   : 	// 2004.11.18.myevan.DrawIndexPrimitiveUP -> DynamicVertexBuffer
; 60   : 	if (SetPDTStream(vertices, 8))

  001e0	6a 08		 push	 8
  001e2	8d 45 9c	 lea	 eax, DWORD PTR _vertices$[ebp]
  001e5	50		 push	 eax
  001e6	e8 00 00 00 00	 call	 ?SetPDTStream@CGraphicBase@@SA_NPAUSPDTVertexRaw@@I@Z ; CGraphicBase::SetPDTStream
  001eb	59		 pop	 ecx
  001ec	59		 pop	 ecx
  001ed	0f b6 c0	 movzx	 eax, al
  001f0	85 c0		 test	 eax, eax
  001f2	74 3f		 je	 SHORT $LN3@RenderBox3

; 61   : 	{
; 62   : 		STATEMANAGER.SetTexture(0, NULL);

  001f4	6a 00		 push	 0
  001f6	6a 00		 push	 0
  001f8	8b 0d 00 00 00
	00		 mov	 ecx, DWORD PTR ?ms_singleton@?$CSingleton@VCStateManager@@@@0PAVCStateManager@@A ; CSingleton<CStateManager>::ms_singleton
  001fe	e8 00 00 00 00	 call	 ?SetTexture@CStateManager@@QAEXKPAUIDirect3DBaseTexture8@@@Z ; CStateManager::SetTexture

; 63   : 		STATEMANAGER.SetTexture(1, NULL);

  00203	6a 00		 push	 0
  00205	6a 01		 push	 1
  00207	8b 0d 00 00 00
	00		 mov	 ecx, DWORD PTR ?ms_singleton@?$CSingleton@VCStateManager@@@@0PAVCStateManager@@A ; CSingleton<CStateManager>::ms_singleton
  0020d	e8 00 00 00 00	 call	 ?SetTexture@CStateManager@@QAEXKPAUIDirect3DBaseTexture8@@@Z ; CStateManager::SetTexture

; 64   : 		STATEMANAGER.SetVertexShader(D3DFVF_XYZ|D3DFVF_DIFFUSE|D3DFVF_TEX1);

  00212	68 42 01 00 00	 push	 322			; 00000142H
  00217	8b 0d 00 00 00
	00		 mov	 ecx, DWORD PTR ?ms_singleton@?$CSingleton@VCStateManager@@@@0PAVCStateManager@@A ; CSingleton<CStateManager>::ms_singleton
  0021d	e8 00 00 00 00	 call	 ?SetVertexShader@CStateManager@@QAEXK@Z ; CStateManager::SetVertexShader

; 65   : 		STATEMANAGER.DrawPrimitive(D3DPT_LINELIST, 0, 4);

  00222	6a 04		 push	 4
  00224	6a 00		 push	 0
  00226	6a 02		 push	 2
  00228	8b 0d 00 00 00
	00		 mov	 ecx, DWORD PTR ?ms_singleton@?$CSingleton@VCStateManager@@@@0PAVCStateManager@@A ; CSingleton<CStateManager>::ms_singleton
  0022e	e8 00 00 00 00	 call	 ?DrawPrimitive@CStateManager@@QAEJW4_D3DPRIMITIVETYPE@@II@Z ; CStateManager::DrawPrimitive
$LN3@RenderBox3:
$LN1@RenderBox3:

; 66   : 	}
; 67   : }

  00233	8b 4d 5c	 mov	 ecx, DWORD PTR __$ArrayPad$[ebp]
  00236	33 cd		 xor	 ecx, ebp
  00238	e8 00 00 00 00	 call	 @__security_check_cookie@4
  0023d	83 c5 60	 add	 ebp, 96			; 00000060H
  00240	c9		 leave
  00241	c2 18 00	 ret	 24			; 00000018H
?RenderBox3d@CScreen@@QAEXMMMMMM@Z ENDP			; CScreen::RenderBox3d
_TEXT	ENDS
; Function compile flags: /Odspy
; File D:\Metin2 Server Files\mainline\SRC_2014\Metin2Client\EterLib\GrpScreen.cpp
;	COMDAT ?RenderLine3d@CScreen@@QAEXMMMMMM@Z
_TEXT	SEGMENT
_this$ = -56						; size = 4
_vertices$ = -52					; size = 48
__$ArrayPad$ = -4					; size = 4
_sx$ = 8						; size = 4
_sy$ = 12						; size = 4
_sz$ = 16						; size = 4
_ex$ = 20						; size = 4
_ey$ = 24						; size = 4
_ez$ = 28						; size = 4
?RenderLine3d@CScreen@@QAEXMMMMMM@Z PROC		; CScreen::RenderLine3d, COMDAT
; _this$ = ecx

; 15   : {

  00000	55		 push	 ebp
  00001	8b ec		 mov	 ebp, esp
  00003	83 ec 38	 sub	 esp, 56			; 00000038H
  00006	a1 00 00 00 00	 mov	 eax, DWORD PTR ___security_cookie
  0000b	33 c5		 xor	 eax, ebp
  0000d	89 45 fc	 mov	 DWORD PTR __$ArrayPad$[ebp], eax
  00010	89 4d c8	 mov	 DWORD PTR _this$[ebp], ecx

; 16   : 	if (GRAPHICS_CAPS_CAN_NOT_DRAW_LINE)

  00013	0f b6 05 00 00
	00 00		 movzx	 eax, BYTE PTR ?GRAPHICS_CAPS_CAN_NOT_DRAW_LINE@@3_NA ; GRAPHICS_CAPS_CAN_NOT_DRAW_LINE
  0001a	85 c0		 test	 eax, eax
  0001c	74 05		 je	 SHORT $LN2@RenderLine

; 17   : 		return;

  0001e	e9 bf 00 00 00	 jmp	 $LN1@RenderLine
$LN2@RenderLine:

; 18   : 
; 19   : 	assert(ms_lpd3dDevice != NULL);
; 20   : 
; 21   : 	SPDTVertexRaw vertices[2] =
; 22   : 	{
; 23   : 		{ sx, sy, sz, ms_diffuseColor, 0.0f, 0.0f },

  00023	f3 0f 10 45 08	 movss	 xmm0, DWORD PTR _sx$[ebp]
  00028	f3 0f 11 45 cc	 movss	 DWORD PTR _vertices$[ebp], xmm0
  0002d	f3 0f 10 45 0c	 movss	 xmm0, DWORD PTR _sy$[ebp]
  00032	f3 0f 11 45 d0	 movss	 DWORD PTR _vertices$[ebp+4], xmm0
  00037	f3 0f 10 45 10	 movss	 xmm0, DWORD PTR _sz$[ebp]
  0003c	f3 0f 11 45 d4	 movss	 DWORD PTR _vertices$[ebp+8], xmm0
  00041	a1 00 00 00 00	 mov	 eax, DWORD PTR ?ms_diffuseColor@CScreen@@1KA ; CScreen::ms_diffuseColor
  00046	89 45 d8	 mov	 DWORD PTR _vertices$[ebp+12], eax
  00049	0f 57 c0	 xorps	 xmm0, xmm0
  0004c	f3 0f 11 45 dc	 movss	 DWORD PTR _vertices$[ebp+16], xmm0
  00051	0f 57 c0	 xorps	 xmm0, xmm0
  00054	f3 0f 11 45 e0	 movss	 DWORD PTR _vertices$[ebp+20], xmm0

; 24   : 		{ ex, ey, ez, ms_diffuseColor, 0.0f, 0.0f }

  00059	f3 0f 10 45 14	 movss	 xmm0, DWORD PTR _ex$[ebp]
  0005e	f3 0f 11 45 e4	 movss	 DWORD PTR _vertices$[ebp+24], xmm0
  00063	f3 0f 10 45 18	 movss	 xmm0, DWORD PTR _ey$[ebp]
  00068	f3 0f 11 45 e8	 movss	 DWORD PTR _vertices$[ebp+28], xmm0
  0006d	f3 0f 10 45 1c	 movss	 xmm0, DWORD PTR _ez$[ebp]
  00072	f3 0f 11 45 ec	 movss	 DWORD PTR _vertices$[ebp+32], xmm0
  00077	a1 00 00 00 00	 mov	 eax, DWORD PTR ?ms_diffuseColor@CScreen@@1KA ; CScreen::ms_diffuseColor
  0007c	89 45 f0	 mov	 DWORD PTR _vertices$[ebp+36], eax
  0007f	0f 57 c0	 xorps	 xmm0, xmm0
  00082	f3 0f 11 45 f4	 movss	 DWORD PTR _vertices$[ebp+40], xmm0
  00087	0f 57 c0	 xorps	 xmm0, xmm0
  0008a	f3 0f 11 45 f8	 movss	 DWORD PTR _vertices$[ebp+44], xmm0

; 25   : 	};
; 26   : 	
; 27   : 	// 2004.11.18.myevan.DrawIndexPrimitiveUP -> DynamicVertexBuffer
; 28   : 	if (SetPDTStream(vertices, 2))

  0008f	6a 02		 push	 2
  00091	8d 45 cc	 lea	 eax, DWORD PTR _vertices$[ebp]
  00094	50		 push	 eax
  00095	e8 00 00 00 00	 call	 ?SetPDTStream@CGraphicBase@@SA_NPAUSPDTVertexRaw@@I@Z ; CGraphicBase::SetPDTStream
  0009a	59		 pop	 ecx
  0009b	59		 pop	 ecx
  0009c	0f b6 c0	 movzx	 eax, al
  0009f	85 c0		 test	 eax, eax
  000a1	74 3f		 je	 SHORT $LN3@RenderLine

; 29   : 	{	
; 30   : 		STATEMANAGER.SetTexture(0, NULL);

  000a3	6a 00		 push	 0
  000a5	6a 00		 push	 0
  000a7	8b 0d 00 00 00
	00		 mov	 ecx, DWORD PTR ?ms_singleton@?$CSingleton@VCStateManager@@@@0PAVCStateManager@@A ; CSingleton<CStateManager>::ms_singleton
  000ad	e8 00 00 00 00	 call	 ?SetTexture@CStateManager@@QAEXKPAUIDirect3DBaseTexture8@@@Z ; CStateManager::SetTexture

; 31   : 		STATEMANAGER.SetTexture(1, NULL);

  000b2	6a 00		 push	 0
  000b4	6a 01		 push	 1
  000b6	8b 0d 00 00 00
	00		 mov	 ecx, DWORD PTR ?ms_singleton@?$CSingleton@VCStateManager@@@@0PAVCStateManager@@A ; CSingleton<CStateManager>::ms_singleton
  000bc	e8 00 00 00 00	 call	 ?SetTexture@CStateManager@@QAEXKPAUIDirect3DBaseTexture8@@@Z ; CStateManager::SetTexture

; 32   : 		STATEMANAGER.SetVertexShader(D3DFVF_XYZ|D3DFVF_DIFFUSE|D3DFVF_TEX1);

  000c1	68 42 01 00 00	 push	 322			; 00000142H
  000c6	8b 0d 00 00 00
	00		 mov	 ecx, DWORD PTR ?ms_singleton@?$CSingleton@VCStateManager@@@@0PAVCStateManager@@A ; CSingleton<CStateManager>::ms_singleton
  000cc	e8 00 00 00 00	 call	 ?SetVertexShader@CStateManager@@QAEXK@Z ; CStateManager::SetVertexShader

; 33   : 		STATEMANAGER.DrawPrimitive(D3DPT_LINELIST, 0, 1);

  000d1	6a 01		 push	 1
  000d3	6a 00		 push	 0
  000d5	6a 02		 push	 2
  000d7	8b 0d 00 00 00
	00		 mov	 ecx, DWORD PTR ?ms_singleton@?$CSingleton@VCStateManager@@@@0PAVCStateManager@@A ; CSingleton<CStateManager>::ms_singleton
  000dd	e8 00 00 00 00	 call	 ?DrawPrimitive@CStateManager@@QAEJW4_D3DPRIMITIVETYPE@@II@Z ; CStateManager::DrawPrimitive
$LN3@RenderLine:
$LN1@RenderLine:

; 34   : 	}
; 35   : }

  000e2	8b 4d fc	 mov	 ecx, DWORD PTR __$ArrayPad$[ebp]
  000e5	33 cd		 xor	 ecx, ebp
  000e7	e8 00 00 00 00	 call	 @__security_check_cookie@4
  000ec	c9		 leave
  000ed	c2 18 00	 ret	 24			; 00000018H
?RenderLine3d@CScreen@@QAEXMMMMMM@Z ENDP		; CScreen::RenderLine3d
_TEXT	ENDS
; Function compile flags: /Odspy
; File D:\Metin2 Server Files\mainline\SRC_2014\Metin2Client\EterLib\GrpScreen.cpp
; File C:\Program Files (x86)\Microsoft Visual Studio\2019\Community\VC\Tools\MSVC\14.28.29333\include\vector
; File C:\Program Files (x86)\Microsoft Visual Studio\2019\Community\VC\Tools\MSVC\14.28.29333\include\xmemory
; File D:\Metin2 Server Files\mainline\SRC_2014\Metin2Client\EterLib\GrpScreen.cpp
; File C:\Program Files (x86)\Microsoft Visual Studio\2019\Community\VC\Tools\MSVC\14.28.29333\include\vector
; File D:\Metin2 Server Files\mainline\SRC_2014\Metin2Client\EterLib\GrpScreen.cpp
; File D:\Metin2 Server Files\mainline\SRC_2014\Metin2Client\eterBase\Singleton.h
; File D:\Metin2 Server Files\mainline\SRC_2014\Metin2Client\EterLib\GrpScreen.cpp
; File D:\Metin2 Server Files\mainline\SRC_2014\Metin2Client\EterLib\Camera.h
; File D:\Metin2 Server Files\mainline\SRC_2014\Metin2Client\EterLib\GrpScreen.cpp
; File C:\Program Files (x86)\Windows Kits\10\Include\10.0.18362.0\ucrt\corecrt_math.h
; File D:\Metin2 Server Files\mainline\SRC_2014\Metin2Client\EterLib\GrpScreen.cpp
; File D:\Metin2 Server Files\mainline\SRC_2014\M2Data\include\d3dx8math.inl
; File D:\Metin2 Server Files\mainline\SRC_2014\Metin2Client\EterLib\GrpScreen.cpp
; File D:\Metin2 Server Files\mainline\SRC_2014\M2Data\include\d3dx8math.inl
; File C:\Program Files (x86)\Microsoft Visual Studio\2019\Community\VC\Tools\MSVC\14.28.29333\include\vector
; File D:\Metin2 Server Files\mainline\SRC_2014\Metin2Client\EterLib\GrpScreen.cpp
; File C:\Program Files (x86)\Microsoft Visual Studio\2019\Community\VC\Tools\MSVC\14.28.29333\include\vector
; File D:\Metin2 Server Files\mainline\SRC_2014\Metin2Client\EterLib\GrpScreen.cpp
; File C:\Program Files (x86)\Microsoft Visual Studio\2019\Community\VC\Tools\MSVC\14.28.29333\include\vector
; File D:\Metin2 Server Files\mainline\SRC_2014\Metin2Client\EterLib\GrpScreen.cpp
; File C:\Program Files (x86)\Microsoft Visual Studio\2019\Community\VC\Tools\MSVC\14.28.29333\include\vector
; File D:\Metin2 Server Files\mainline\SRC_2014\Metin2Client\EterLib\GrpScreen.cpp
; File C:\Program Files (x86)\Microsoft Visual Studio\2019\Community\VC\Tools\MSVC\14.28.29333\include\vector
; File D:\Metin2 Server Files\mainline\SRC_2014\Metin2Client\EterLib\GrpScreen.cpp
; File C:\Program Files (x86)\Microsoft Visual Studio\2019\Community\VC\Tools\MSVC\14.28.29333\include\vector
; File D:\Metin2 Server Files\mainline\SRC_2014\Metin2Client\EterLib\GrpScreen.cpp
; File C:\Program Files (x86)\Microsoft Visual Studio\2019\Community\VC\Tools\MSVC\14.28.29333\include\vector
; File D:\Metin2 Server Files\mainline\SRC_2014\Metin2Client\EterLib\GrpScreen.cpp
; File C:\Program Files (x86)\Microsoft Visual Studio\2019\Community\VC\Tools\MSVC\14.28.29333\include\vector
; File D:\Metin2 Server Files\mainline\SRC_2014\Metin2Client\EterLib\GrpScreen.cpp
; File C:\Program Files (x86)\Microsoft Visual Studio\2019\Community\VC\Tools\MSVC\14.28.29333\include\vector
; File D:\Metin2 Server Files\mainline\SRC_2014\Metin2Client\EterLib\GrpScreen.cpp
; File C:\Program Files (x86)\Microsoft Visual Studio\2019\Community\VC\Tools\MSVC\14.28.29333\include\vector
; File D:\Metin2 Server Files\mainline\SRC_2014\Metin2Client\EterLib\GrpScreen.cpp
; File C:\Program Files (x86)\Microsoft Visual Studio\2019\Community\VC\Tools\MSVC\14.28.29333\include\vector
; File D:\Metin2 Server Files\mainline\SRC_2014\Metin2Client\EterLib\GrpScreen.cpp
;	COMDAT ?RenderCircle3d@CScreen@@QAEXMMMMH@Z
_TEXT	SEGMENT
$T2 = -104						; size = 4
$T3 = -100						; size = 4
$T4 = -96						; size = 4
$T5 = -92						; size = 4
$T6 = -88						; size = 4
__My_data$7 = -84					; size = 4
$T8 = -80						; size = 4
$T9 = -76						; size = 4
__My_data$10 = -72					; size = 4
__My_data$11 = -68					; size = 4
_this$ = -64						; size = 4
__My_data$12 = -60					; size = 4
__My_data$13 = -56					; size = 4
__My_data$14 = -52					; size = 4
$T15 = -48						; size = 4
$T16 = -44						; size = 4
$T17 = -40						; size = 4
$T18 = -36						; size = 4
$T19 = -32						; size = 4
$T20 = -28						; size = 4
__My_data$21 = -24					; size = 4
__My_data$22 = -20					; size = 4
__My_data$23 = -16					; size = 4
__$EHRec$ = -12						; size = 12
__My_data$24 = 0					; size = 4
__My_data$25 = 4					; size = 4
__My_data$26 = 8					; size = 4
_delta$ = 12						; size = 4
$T27 = 16						; size = 4
$T28 = 20						; size = 4
_c_rmatInvView$ = 24					; size = 4
__My_data$29 = 28					; size = 4
__My_data$30 = 32					; size = 4
$T31 = 36						; size = 4
__My_data$32 = 40					; size = 4
$T33 = 44						; size = 4
$T34 = 48						; size = 4
_this$ = 52						; size = 4
_this$ = 56						; size = 4
$T35 = 63						; size = 1
_theta$ = 64						; size = 4
_pts$ = 68						; size = 12
_count$ = 80						; size = 4
$T36 = 84						; size = 12
__$ArrayPad$ = 96					; size = 4
_fx$ = 108						; size = 4
_fy$ = 112						; size = 4
_fz$ = 116						; size = 4
_fRadius$ = 120						; size = 4
_iStep$ = 124						; size = 4
?RenderCircle3d@CScreen@@QAEXMMMMH@Z PROC		; CScreen::RenderCircle3d, COMDAT
; _this$ = ecx

; 282  : {

  00000	55		 push	 ebp
  00001	8d 6c 24 9c	 lea	 ebp, DWORD PTR [esp-100]
  00005	83 ec 64	 sub	 esp, 100		; 00000064H
  00008	6a ff		 push	 -1
  0000a	68 00 00 00 00	 push	 __ehhandler$?RenderCircle3d@CScreen@@QAEXMMMMH@Z
  0000f	64 a1 00 00 00
	00		 mov	 eax, DWORD PTR fs:0
  00015	50		 push	 eax
  00016	83 ec 5c	 sub	 esp, 92			; 0000005cH
  00019	a1 00 00 00 00	 mov	 eax, DWORD PTR ___security_cookie
  0001e	33 c5		 xor	 eax, ebp
  00020	89 45 60	 mov	 DWORD PTR __$ArrayPad$[ebp], eax
  00023	56		 push	 esi
  00024	57		 push	 edi
  00025	50		 push	 eax
  00026	8d 45 f4	 lea	 eax, DWORD PTR __$EHRec$[ebp]
  00029	64 a3 00 00 00
	00		 mov	 DWORD PTR fs:0, eax
  0002f	89 4d 38	 mov	 DWORD PTR _this$[ebp], ecx
; File C:\Program Files (x86)\Microsoft Visual Studio\2019\Community\VC\Tools\MSVC\14.28.29333\include\vector

; 445  :     vector() noexcept(is_nothrow_default_constructible_v<_Alty>) : _Mypair(_Zero_then_variadic_args_t{}) {

  00032	8d 45 44	 lea	 eax, DWORD PTR _pts$[ebp]
  00035	89 45 c0	 mov	 DWORD PTR _this$[ebp], eax
; File C:\Program Files (x86)\Microsoft Visual Studio\2019\Community\VC\Tools\MSVC\14.28.29333\include\xmemory

; 1339 :         : _Ty1(), _Myval2(_STD forward<_Other2>(_Val2)...) {}

  00038	8b 4d c0	 mov	 ecx, DWORD PTR _this$[ebp]
  0003b	e8 00 00 00 00	 call	 ??0?$_Vector_val@U?$_Simple_types@UD3DXVECTOR3@@@std@@@std@@QAE@XZ ; std::_Vector_val<std::_Simple_types<D3DXVECTOR3> >::_Vector_val<std::_Simple_types<D3DXVECTOR3> >
; File D:\Metin2 Server Files\mainline\SRC_2014\Metin2Client\EterLib\GrpScreen.cpp

; 285  : 	std::vector<D3DXVECTOR3> pts;

  00040	83 65 fc 00	 and	 DWORD PTR __$EHRec$[ebp+8], 0

; 286  : 
; 287  : 	pts.clear();

  00044	8d 4d 44	 lea	 ecx, DWORD PTR _pts$[ebp]
  00047	e8 00 00 00 00	 call	 ?clear@?$vector@UD3DXVECTOR3@@V?$allocator@UD3DXVECTOR3@@@std@@@std@@QAEXXZ ; std::vector<D3DXVECTOR3,std::allocator<D3DXVECTOR3> >::clear
; File C:\Program Files (x86)\Microsoft Visual Studio\2019\Community\VC\Tools\MSVC\14.28.29333\include\vector

; 1242 :         _Resize(_Newsize, _Value_init_tag{});

  0004c	8d 45 3f	 lea	 eax, DWORD PTR $T35[ebp]
  0004f	50		 push	 eax
  00050	ff 75 7c	 push	 DWORD PTR _iStep$[ebp]
  00053	8d 4d 44	 lea	 ecx, DWORD PTR _pts$[ebp]
  00056	e8 00 00 00 00	 call	 ??$_Resize@U_Value_init_tag@std@@@?$vector@UD3DXVECTOR3@@V?$allocator@UD3DXVECTOR3@@@std@@@std@@AAEXIABU_Value_init_tag@1@@Z ; std::vector<D3DXVECTOR3,std::allocator<D3DXVECTOR3> >::_Resize<std::_Value_init_tag>
; File D:\Metin2 Server Files\mainline\SRC_2014\Metin2Client\EterLib\GrpScreen.cpp

; 290  : 	theta = 0.0;

  0005b	0f 57 c0	 xorps	 xmm0, xmm0
  0005e	f3 0f 11 45 40	 movss	 DWORD PTR _theta$[ebp], xmm0

; 291  : 	delta = 2 * D3DX_PI / float(iStep);

  00063	f3 0f 2a 45 7c	 cvtsi2ss xmm0, DWORD PTR _iStep$[ebp]
  00068	f3 0f 10 0d 00
	00 00 00	 movss	 xmm1, DWORD PTR __real@40c90fdb
  00070	f3 0f 5e c8	 divss	 xmm1, xmm0
  00074	f3 0f 11 4d 0c	 movss	 DWORD PTR _delta$[ebp], xmm1
; File D:\Metin2 Server Files\mainline\SRC_2014\Metin2Client\eterBase\Singleton.h

; 27   : 		return (*ms_singleton);

  00079	a1 00 00 00 00	 mov	 eax, DWORD PTR ?ms_singleton@?$CSingleton@VCCameraManager@@@@0PAVCCameraManager@@A ; CSingleton<CCameraManager>::ms_singleton
  0007e	89 45 9c	 mov	 DWORD PTR $T3[ebp], eax
; File D:\Metin2 Server Files\mainline\SRC_2014\Metin2Client\EterLib\GrpScreen.cpp

; 293  : 	const D3DXMATRIX & c_rmatInvView = CCameraManager::Instance().GetCurrentCamera()->GetBillboardMatrix();

  00081	8b 4d 9c	 mov	 ecx, DWORD PTR $T3[ebp]
  00084	e8 00 00 00 00	 call	 ?GetCurrentCamera@CCameraManager@@QAEPAVCCamera@@XZ ; CCameraManager::GetCurrentCamera
  00089	89 45 34	 mov	 DWORD PTR _this$[ebp], eax
; File D:\Metin2 Server Files\mainline\SRC_2014\Metin2Client\EterLib\Camera.h

; 176  : 		const D3DXMATRIX & GetBillboardMatrix()const	{ return m_matBillboard; }

  0008c	8b 45 34	 mov	 eax, DWORD PTR _this$[ebp]
  0008f	05 ec 00 00 00	 add	 eax, 236		; 000000ecH
; File D:\Metin2 Server Files\mainline\SRC_2014\Metin2Client\EterLib\GrpScreen.cpp

; 293  : 	const D3DXMATRIX & c_rmatInvView = CCameraManager::Instance().GetCurrentCamera()->GetBillboardMatrix();

  00094	89 45 18	 mov	 DWORD PTR _c_rmatInvView$[ebp], eax

; 294  : 
; 295  : 	for (count=0; count<iStep; count++)

  00097	83 65 50 00	 and	 DWORD PTR _count$[ebp], 0
  0009b	eb 07		 jmp	 SHORT $LN4@RenderCirc
$LN2@RenderCirc:
  0009d	8b 45 50	 mov	 eax, DWORD PTR _count$[ebp]
  000a0	40		 inc	 eax
  000a1	89 45 50	 mov	 DWORD PTR _count$[ebp], eax
$LN4@RenderCirc:
  000a4	8b 45 50	 mov	 eax, DWORD PTR _count$[ebp]
  000a7	3b 45 7c	 cmp	 eax, DWORD PTR _iStep$[ebp]
  000aa	0f 8d b3 00 00
	00		 jge	 $LN3@RenderCirc
; File C:\Program Files (x86)\Windows Kits\10\Include\10.0.18362.0\ucrt\corecrt_math.h

; 750  :             return (float)sin(_X);

  000b0	f3 0f 5a 45 40	 cvtss2sd xmm0, DWORD PTR _theta$[ebp]
  000b5	51		 push	 ecx
  000b6	51		 push	 ecx
  000b7	f2 0f 11 04 24	 movsd	 QWORD PTR [esp], xmm0
  000bc	e8 00 00 00 00	 call	 _sin
  000c1	59		 pop	 ecx
  000c2	59		 pop	 ecx
  000c3	d9 5d 2c	 fstp	 DWORD PTR $T33[ebp]

; 649  :             return (float)cos(_X);

  000c6	f3 0f 5a 45 40	 cvtss2sd xmm0, DWORD PTR _theta$[ebp]
  000cb	51		 push	 ecx
  000cc	51		 push	 ecx
  000cd	f2 0f 11 04 24	 movsd	 QWORD PTR [esp], xmm0
  000d2	e8 00 00 00 00	 call	 _cos
  000d7	59		 pop	 ecx
  000d8	59		 pop	 ecx
  000d9	d9 5d 30	 fstp	 DWORD PTR $T34[ebp]
; File D:\Metin2 Server Files\mainline\SRC_2014\Metin2Client\EterLib\GrpScreen.cpp

; 297  : 		pts[count] = D3DXVECTOR3(fRadius * cosf(theta), fRadius * sinf(theta), 0.0f);

  000dc	f3 0f 10 45 78	 movss	 xmm0, DWORD PTR _fRadius$[ebp]
  000e1	f3 0f 59 45 30	 mulss	 xmm0, DWORD PTR $T34[ebp]
; File D:\Metin2 Server Files\mainline\SRC_2014\M2Data\include\d3dx8math.inl

; 180  :     x = fx;

  000e6	f3 0f 11 45 54	 movss	 DWORD PTR $T36[ebp], xmm0
; File D:\Metin2 Server Files\mainline\SRC_2014\Metin2Client\EterLib\GrpScreen.cpp

; 297  : 		pts[count] = D3DXVECTOR3(fRadius * cosf(theta), fRadius * sinf(theta), 0.0f);

  000eb	f3 0f 10 45 78	 movss	 xmm0, DWORD PTR _fRadius$[ebp]
  000f0	f3 0f 59 45 2c	 mulss	 xmm0, DWORD PTR $T33[ebp]
; File D:\Metin2 Server Files\mainline\SRC_2014\M2Data\include\d3dx8math.inl

; 181  :     y = fy;

  000f5	f3 0f 11 45 58	 movss	 DWORD PTR $T36[ebp+4], xmm0

; 182  :     z = fz;

  000fa	0f 57 c0	 xorps	 xmm0, xmm0
  000fd	f3 0f 11 45 5c	 movss	 DWORD PTR $T36[ebp+8], xmm0
; File C:\Program Files (x86)\Microsoft Visual Studio\2019\Community\VC\Tools\MSVC\14.28.29333\include\vector

; 1498 :         auto& _My_data = _Mypair._Myval2;

  00102	8d 45 44	 lea	 eax, DWORD PTR _pts$[ebp]
  00105	89 45 28	 mov	 DWORD PTR __My_data$32[ebp], eax

; 1504 :         return _My_data._Myfirst[_Pos];

  00108	6b 45 50 0c	 imul	 eax, DWORD PTR _count$[ebp], 12
  0010c	8b 4d 28	 mov	 ecx, DWORD PTR __My_data$32[ebp]
  0010f	03 01		 add	 eax, DWORD PTR [ecx]
  00111	89 45 24	 mov	 DWORD PTR $T31[ebp], eax
; File D:\Metin2 Server Files\mainline\SRC_2014\Metin2Client\EterLib\GrpScreen.cpp

; 297  : 		pts[count] = D3DXVECTOR3(fRadius * cosf(theta), fRadius * sinf(theta), 0.0f);

  00114	8d 75 54	 lea	 esi, DWORD PTR $T36[ebp]
  00117	8b 7d 24	 mov	 edi, DWORD PTR $T31[ebp]
  0011a	a5		 movsd
  0011b	a5		 movsd
  0011c	a5		 movsd
; File C:\Program Files (x86)\Microsoft Visual Studio\2019\Community\VC\Tools\MSVC\14.28.29333\include\vector

; 1498 :         auto& _My_data = _Mypair._Myval2;

  0011d	8d 45 44	 lea	 eax, DWORD PTR _pts$[ebp]
  00120	89 45 20	 mov	 DWORD PTR __My_data$30[ebp], eax

; 1504 :         return _My_data._Myfirst[_Pos];

  00123	6b 45 50 0c	 imul	 eax, DWORD PTR _count$[ebp], 12
  00127	8b 4d 20	 mov	 ecx, DWORD PTR __My_data$30[ebp]
  0012a	03 01		 add	 eax, DWORD PTR [ecx]
  0012c	89 45 14	 mov	 DWORD PTR $T28[ebp], eax

; 1498 :         auto& _My_data = _Mypair._Myval2;

  0012f	8d 45 44	 lea	 eax, DWORD PTR _pts$[ebp]
  00132	89 45 1c	 mov	 DWORD PTR __My_data$29[ebp], eax

; 1504 :         return _My_data._Myfirst[_Pos];

  00135	6b 45 50 0c	 imul	 eax, DWORD PTR _count$[ebp], 12
  00139	8b 4d 1c	 mov	 ecx, DWORD PTR __My_data$29[ebp]
  0013c	03 01		 add	 eax, DWORD PTR [ecx]
  0013e	89 45 10	 mov	 DWORD PTR $T27[ebp], eax
; File D:\Metin2 Server Files\mainline\SRC_2014\Metin2Client\EterLib\GrpScreen.cpp

; 298  : 		D3DXVec3TransformCoord(&pts[count], &pts[count], &c_rmatInvView);

  00141	ff 75 18	 push	 DWORD PTR _c_rmatInvView$[ebp]
  00144	ff 75 14	 push	 DWORD PTR $T28[ebp]
  00147	ff 75 10	 push	 DWORD PTR $T27[ebp]
  0014a	e8 00 00 00 00	 call	 _D3DXVec3TransformCoord@12

; 299  : 
; 300  : 		theta += delta;

  0014f	f3 0f 10 45 40	 movss	 xmm0, DWORD PTR _theta$[ebp]
  00154	f3 0f 58 45 0c	 addss	 xmm0, DWORD PTR _delta$[ebp]
  00159	f3 0f 11 45 40	 movss	 DWORD PTR _theta$[ebp], xmm0

; 301  : 	}

  0015e	e9 3a ff ff ff	 jmp	 $LN2@RenderCirc
$LN3@RenderCirc:

; 302  : 	for (count=0; count<iStep - 1; count++)

  00163	83 65 50 00	 and	 DWORD PTR _count$[ebp], 0
  00167	eb 07		 jmp	 SHORT $LN7@RenderCirc
$LN5@RenderCirc:
  00169	8b 45 50	 mov	 eax, DWORD PTR _count$[ebp]
  0016c	40		 inc	 eax
  0016d	89 45 50	 mov	 DWORD PTR _count$[ebp], eax
$LN7@RenderCirc:
  00170	8b 45 7c	 mov	 eax, DWORD PTR _iStep$[ebp]
  00173	48		 dec	 eax
  00174	39 45 50	 cmp	 DWORD PTR _count$[ebp], eax
  00177	0f 8d f2 00 00
	00		 jge	 $LN6@RenderCirc
; File C:\Program Files (x86)\Microsoft Visual Studio\2019\Community\VC\Tools\MSVC\14.28.29333\include\vector

; 1498 :         auto& _My_data = _Mypair._Myval2;

  0017d	8d 45 44	 lea	 eax, DWORD PTR _pts$[ebp]
  00180	89 45 08	 mov	 DWORD PTR __My_data$26[ebp], eax
; File D:\Metin2 Server Files\mainline\SRC_2014\Metin2Client\EterLib\GrpScreen.cpp

; 304  : 		RenderLine3d(fx+pts[count].x, fy+pts[count].y, fz+pts[count].z,

  00183	8b 45 50	 mov	 eax, DWORD PTR _count$[ebp]
  00186	40		 inc	 eax
; File C:\Program Files (x86)\Microsoft Visual Studio\2019\Community\VC\Tools\MSVC\14.28.29333\include\vector

; 1504 :         return _My_data._Myfirst[_Pos];

  00187	6b c0 0c	 imul	 eax, eax, 12
  0018a	8b 4d 08	 mov	 ecx, DWORD PTR __My_data$26[ebp]
  0018d	03 01		 add	 eax, DWORD PTR [ecx]
  0018f	89 45 e4	 mov	 DWORD PTR $T20[ebp], eax

; 1498 :         auto& _My_data = _Mypair._Myval2;

  00192	8d 45 44	 lea	 eax, DWORD PTR _pts$[ebp]
  00195	89 45 04	 mov	 DWORD PTR __My_data$25[ebp], eax
; File D:\Metin2 Server Files\mainline\SRC_2014\Metin2Client\EterLib\GrpScreen.cpp

; 304  : 		RenderLine3d(fx+pts[count].x, fy+pts[count].y, fz+pts[count].z,

  00198	8b 45 50	 mov	 eax, DWORD PTR _count$[ebp]
  0019b	40		 inc	 eax
; File C:\Program Files (x86)\Microsoft Visual Studio\2019\Community\VC\Tools\MSVC\14.28.29333\include\vector

; 1504 :         return _My_data._Myfirst[_Pos];

  0019c	6b c0 0c	 imul	 eax, eax, 12
  0019f	8b 4d 04	 mov	 ecx, DWORD PTR __My_data$25[ebp]
  001a2	03 01		 add	 eax, DWORD PTR [ecx]
  001a4	89 45 e0	 mov	 DWORD PTR $T19[ebp], eax

; 1498 :         auto& _My_data = _Mypair._Myval2;

  001a7	8d 45 44	 lea	 eax, DWORD PTR _pts$[ebp]
  001aa	89 45 00	 mov	 DWORD PTR __My_data$24[ebp], eax
; File D:\Metin2 Server Files\mainline\SRC_2014\Metin2Client\EterLib\GrpScreen.cpp

; 304  : 		RenderLine3d(fx+pts[count].x, fy+pts[count].y, fz+pts[count].z,

  001ad	8b 45 50	 mov	 eax, DWORD PTR _count$[ebp]
  001b0	40		 inc	 eax
; File C:\Program Files (x86)\Microsoft Visual Studio\2019\Community\VC\Tools\MSVC\14.28.29333\include\vector

; 1504 :         return _My_data._Myfirst[_Pos];

  001b1	6b c0 0c	 imul	 eax, eax, 12
  001b4	8b 4d 00	 mov	 ecx, DWORD PTR __My_data$24[ebp]
  001b7	03 01		 add	 eax, DWORD PTR [ecx]
  001b9	89 45 dc	 mov	 DWORD PTR $T18[ebp], eax

; 1498 :         auto& _My_data = _Mypair._Myval2;

  001bc	8d 45 44	 lea	 eax, DWORD PTR _pts$[ebp]
  001bf	89 45 f0	 mov	 DWORD PTR __My_data$23[ebp], eax

; 1504 :         return _My_data._Myfirst[_Pos];

  001c2	6b 45 50 0c	 imul	 eax, DWORD PTR _count$[ebp], 12
  001c6	8b 4d f0	 mov	 ecx, DWORD PTR __My_data$23[ebp]
  001c9	03 01		 add	 eax, DWORD PTR [ecx]
  001cb	89 45 d8	 mov	 DWORD PTR $T17[ebp], eax

; 1498 :         auto& _My_data = _Mypair._Myval2;

  001ce	8d 45 44	 lea	 eax, DWORD PTR _pts$[ebp]
  001d1	89 45 ec	 mov	 DWORD PTR __My_data$22[ebp], eax

; 1504 :         return _My_data._Myfirst[_Pos];

  001d4	6b 45 50 0c	 imul	 eax, DWORD PTR _count$[ebp], 12
  001d8	8b 4d ec	 mov	 ecx, DWORD PTR __My_data$22[ebp]
  001db	03 01		 add	 eax, DWORD PTR [ecx]
  001dd	89 45 d4	 mov	 DWORD PTR $T16[ebp], eax

; 1498 :         auto& _My_data = _Mypair._Myval2;

  001e0	8d 45 44	 lea	 eax, DWORD PTR _pts$[ebp]
  001e3	89 45 e8	 mov	 DWORD PTR __My_data$21[ebp], eax

; 1504 :         return _My_data._Myfirst[_Pos];

  001e6	6b 45 50 0c	 imul	 eax, DWORD PTR _count$[ebp], 12
  001ea	8b 4d e8	 mov	 ecx, DWORD PTR __My_data$21[ebp]
  001ed	03 01		 add	 eax, DWORD PTR [ecx]
  001ef	89 45 d0	 mov	 DWORD PTR $T15[ebp], eax
; File D:\Metin2 Server Files\mainline\SRC_2014\Metin2Client\EterLib\GrpScreen.cpp

; 304  : 		RenderLine3d(fx+pts[count].x, fy+pts[count].y, fz+pts[count].z,

  001f2	8b 45 e4	 mov	 eax, DWORD PTR $T20[ebp]
  001f5	f3 0f 10 45 74	 movss	 xmm0, DWORD PTR _fz$[ebp]
  001fa	f3 0f 58 40 08	 addss	 xmm0, DWORD PTR [eax+8]
  001ff	51		 push	 ecx
  00200	f3 0f 11 04 24	 movss	 DWORD PTR [esp], xmm0
  00205	8b 45 e0	 mov	 eax, DWORD PTR $T19[ebp]
  00208	f3 0f 10 45 70	 movss	 xmm0, DWORD PTR _fy$[ebp]
  0020d	f3 0f 58 40 04	 addss	 xmm0, DWORD PTR [eax+4]
  00212	51		 push	 ecx
  00213	f3 0f 11 04 24	 movss	 DWORD PTR [esp], xmm0
  00218	8b 45 dc	 mov	 eax, DWORD PTR $T18[ebp]
  0021b	f3 0f 10 45 6c	 movss	 xmm0, DWORD PTR _fx$[ebp]
  00220	f3 0f 58 00	 addss	 xmm0, DWORD PTR [eax]
  00224	51		 push	 ecx
  00225	f3 0f 11 04 24	 movss	 DWORD PTR [esp], xmm0
  0022a	8b 45 d8	 mov	 eax, DWORD PTR $T17[ebp]
  0022d	f3 0f 10 45 74	 movss	 xmm0, DWORD PTR _fz$[ebp]
  00232	f3 0f 58 40 08	 addss	 xmm0, DWORD PTR [eax+8]
  00237	51		 push	 ecx
  00238	f3 0f 11 04 24	 movss	 DWORD PTR [esp], xmm0
  0023d	8b 45 d4	 mov	 eax, DWORD PTR $T16[ebp]
  00240	f3 0f 10 45 70	 movss	 xmm0, DWORD PTR _fy$[ebp]
  00245	f3 0f 58 40 04	 addss	 xmm0, DWORD PTR [eax+4]
  0024a	51		 push	 ecx
  0024b	f3 0f 11 04 24	 movss	 DWORD PTR [esp], xmm0
  00250	8b 45 d0	 mov	 eax, DWORD PTR $T15[ebp]
  00253	f3 0f 10 45 6c	 movss	 xmm0, DWORD PTR _fx$[ebp]
  00258	f3 0f 58 00	 addss	 xmm0, DWORD PTR [eax]
  0025c	51		 push	 ecx
  0025d	f3 0f 11 04 24	 movss	 DWORD PTR [esp], xmm0
  00262	8b 4d 38	 mov	 ecx, DWORD PTR _this$[ebp]
  00265	e8 00 00 00 00	 call	 ?RenderLine3d@CScreen@@QAEXMMMMMM@Z ; CScreen::RenderLine3d

; 305  : 					 fx+pts[count + 1].x, fy+pts[count + 1].y, fz+pts[count + 1].z);
; 306  : 	}

  0026a	e9 fa fe ff ff	 jmp	 $LN5@RenderCirc
$LN6@RenderCirc:
; File C:\Program Files (x86)\Microsoft Visual Studio\2019\Community\VC\Tools\MSVC\14.28.29333\include\vector

; 1498 :         auto& _My_data = _Mypair._Myval2;

  0026f	8d 45 44	 lea	 eax, DWORD PTR _pts$[ebp]
  00272	89 45 cc	 mov	 DWORD PTR __My_data$14[ebp], eax

; 1504 :         return _My_data._Myfirst[_Pos];

  00275	33 c0		 xor	 eax, eax
  00277	6b c0 0c	 imul	 eax, eax, 12
  0027a	8b 4d cc	 mov	 ecx, DWORD PTR __My_data$14[ebp]
  0027d	03 01		 add	 eax, DWORD PTR [ecx]
  0027f	89 45 b4	 mov	 DWORD PTR $T9[ebp], eax

; 1498 :         auto& _My_data = _Mypair._Myval2;

  00282	8d 45 44	 lea	 eax, DWORD PTR _pts$[ebp]
  00285	89 45 c8	 mov	 DWORD PTR __My_data$13[ebp], eax

; 1504 :         return _My_data._Myfirst[_Pos];

  00288	33 c0		 xor	 eax, eax
  0028a	6b c0 0c	 imul	 eax, eax, 12
  0028d	8b 4d c8	 mov	 ecx, DWORD PTR __My_data$13[ebp]
  00290	03 01		 add	 eax, DWORD PTR [ecx]
  00292	89 45 b0	 mov	 DWORD PTR $T8[ebp], eax

; 1498 :         auto& _My_data = _Mypair._Myval2;

  00295	8d 45 44	 lea	 eax, DWORD PTR _pts$[ebp]
  00298	89 45 c4	 mov	 DWORD PTR __My_data$12[ebp], eax

; 1504 :         return _My_data._Myfirst[_Pos];

  0029b	33 c0		 xor	 eax, eax
  0029d	6b c0 0c	 imul	 eax, eax, 12
  002a0	8b 4d c4	 mov	 ecx, DWORD PTR __My_data$12[ebp]
  002a3	03 01		 add	 eax, DWORD PTR [ecx]
  002a5	89 45 98	 mov	 DWORD PTR $T2[ebp], eax

; 1498 :         auto& _My_data = _Mypair._Myval2;

  002a8	8d 45 44	 lea	 eax, DWORD PTR _pts$[ebp]
  002ab	89 45 ac	 mov	 DWORD PTR __My_data$7[ebp], eax
; File D:\Metin2 Server Files\mainline\SRC_2014\Metin2Client\EterLib\GrpScreen.cpp

; 307  : 	RenderLine3d(fx+pts[iStep - 1].x, fy+pts[iStep - 1].y, fz+pts[iStep - 1].z,

  002ae	8b 45 7c	 mov	 eax, DWORD PTR _iStep$[ebp]
  002b1	48		 dec	 eax
; File C:\Program Files (x86)\Microsoft Visual Studio\2019\Community\VC\Tools\MSVC\14.28.29333\include\vector

; 1504 :         return _My_data._Myfirst[_Pos];

  002b2	6b c0 0c	 imul	 eax, eax, 12
  002b5	8b 4d ac	 mov	 ecx, DWORD PTR __My_data$7[ebp]
  002b8	03 01		 add	 eax, DWORD PTR [ecx]
  002ba	89 45 a8	 mov	 DWORD PTR $T6[ebp], eax

; 1498 :         auto& _My_data = _Mypair._Myval2;

  002bd	8d 45 44	 lea	 eax, DWORD PTR _pts$[ebp]
  002c0	89 45 bc	 mov	 DWORD PTR __My_data$11[ebp], eax
; File D:\Metin2 Server Files\mainline\SRC_2014\Metin2Client\EterLib\GrpScreen.cpp

; 307  : 	RenderLine3d(fx+pts[iStep - 1].x, fy+pts[iStep - 1].y, fz+pts[iStep - 1].z,

  002c3	8b 45 7c	 mov	 eax, DWORD PTR _iStep$[ebp]
  002c6	48		 dec	 eax
; File C:\Program Files (x86)\Microsoft Visual Studio\2019\Community\VC\Tools\MSVC\14.28.29333\include\vector

; 1504 :         return _My_data._Myfirst[_Pos];

  002c7	6b c0 0c	 imul	 eax, eax, 12
  002ca	8b 4d bc	 mov	 ecx, DWORD PTR __My_data$11[ebp]
  002cd	03 01		 add	 eax, DWORD PTR [ecx]
  002cf	89 45 a4	 mov	 DWORD PTR $T5[ebp], eax

; 1498 :         auto& _My_data = _Mypair._Myval2;

  002d2	8d 45 44	 lea	 eax, DWORD PTR _pts$[ebp]
  002d5	89 45 b8	 mov	 DWORD PTR __My_data$10[ebp], eax
; File D:\Metin2 Server Files\mainline\SRC_2014\Metin2Client\EterLib\GrpScreen.cpp

; 307  : 	RenderLine3d(fx+pts[iStep - 1].x, fy+pts[iStep - 1].y, fz+pts[iStep - 1].z,

  002d8	8b 45 7c	 mov	 eax, DWORD PTR _iStep$[ebp]
  002db	48		 dec	 eax
; File C:\Program Files (x86)\Microsoft Visual Studio\2019\Community\VC\Tools\MSVC\14.28.29333\include\vector

; 1504 :         return _My_data._Myfirst[_Pos];

  002dc	6b c0 0c	 imul	 eax, eax, 12
  002df	8b 4d b8	 mov	 ecx, DWORD PTR __My_data$10[ebp]
  002e2	03 01		 add	 eax, DWORD PTR [ecx]
  002e4	89 45 a0	 mov	 DWORD PTR $T4[ebp], eax
; File D:\Metin2 Server Files\mainline\SRC_2014\Metin2Client\EterLib\GrpScreen.cpp

; 307  : 	RenderLine3d(fx+pts[iStep - 1].x, fy+pts[iStep - 1].y, fz+pts[iStep - 1].z,

  002e7	8b 45 b4	 mov	 eax, DWORD PTR $T9[ebp]
  002ea	f3 0f 10 45 74	 movss	 xmm0, DWORD PTR _fz$[ebp]
  002ef	f3 0f 58 40 08	 addss	 xmm0, DWORD PTR [eax+8]
  002f4	51		 push	 ecx
  002f5	f3 0f 11 04 24	 movss	 DWORD PTR [esp], xmm0
  002fa	8b 45 b0	 mov	 eax, DWORD PTR $T8[ebp]
  002fd	f3 0f 10 45 70	 movss	 xmm0, DWORD PTR _fy$[ebp]
  00302	f3 0f 58 40 04	 addss	 xmm0, DWORD PTR [eax+4]
  00307	51		 push	 ecx
  00308	f3 0f 11 04 24	 movss	 DWORD PTR [esp], xmm0
  0030d	8b 45 98	 mov	 eax, DWORD PTR $T2[ebp]
  00310	f3 0f 10 45 6c	 movss	 xmm0, DWORD PTR _fx$[ebp]
  00315	f3 0f 58 00	 addss	 xmm0, DWORD PTR [eax]
  00319	51		 push	 ecx
  0031a	f3 0f 11 04 24	 movss	 DWORD PTR [esp], xmm0
  0031f	8b 45 a8	 mov	 eax, DWORD PTR $T6[ebp]
  00322	f3 0f 10 45 74	 movss	 xmm0, DWORD PTR _fz$[ebp]
  00327	f3 0f 58 40 08	 addss	 xmm0, DWORD PTR [eax+8]
  0032c	51		 push	 ecx
  0032d	f3 0f 11 04 24	 movss	 DWORD PTR [esp], xmm0
  00332	8b 45 a4	 mov	 eax, DWORD PTR $T5[ebp]
  00335	f3 0f 10 45 70	 movss	 xmm0, DWORD PTR _fy$[ebp]
  0033a	f3 0f 58 40 04	 addss	 xmm0, DWORD PTR [eax+4]
  0033f	51		 push	 ecx
  00340	f3 0f 11 04 24	 movss	 DWORD PTR [esp], xmm0
  00345	8b 45 a0	 mov	 eax, DWORD PTR $T4[ebp]
  00348	f3 0f 10 45 6c	 movss	 xmm0, DWORD PTR _fx$[ebp]
  0034d	f3 0f 58 00	 addss	 xmm0, DWORD PTR [eax]
  00351	51		 push	 ecx
  00352	f3 0f 11 04 24	 movss	 DWORD PTR [esp], xmm0
  00357	8b 4d 38	 mov	 ecx, DWORD PTR _this$[ebp]
  0035a	e8 00 00 00 00	 call	 ?RenderLine3d@CScreen@@QAEXMMMMMM@Z ; CScreen::RenderLine3d

; 309  : }

  0035f	83 4d fc ff	 or	 DWORD PTR __$EHRec$[ebp+8], -1
; File C:\Program Files (x86)\Microsoft Visual Studio\2019\Community\VC\Tools\MSVC\14.28.29333\include\vector

; 673  :         _Tidy();

  00363	8d 4d 44	 lea	 ecx, DWORD PTR _pts$[ebp]
  00366	e8 00 00 00 00	 call	 ?_Tidy@?$vector@UD3DXVECTOR3@@V?$allocator@UD3DXVECTOR3@@@std@@@std@@AAEXXZ ; std::vector<D3DXVECTOR3,std::allocator<D3DXVECTOR3> >::_Tidy
; File D:\Metin2 Server Files\mainline\SRC_2014\Metin2Client\EterLib\GrpScreen.cpp

; 309  : }

  0036b	8b 4d f4	 mov	 ecx, DWORD PTR __$EHRec$[ebp]
  0036e	64 89 0d 00 00
	00 00		 mov	 DWORD PTR fs:0, ecx
  00375	59		 pop	 ecx
  00376	5f		 pop	 edi
  00377	5e		 pop	 esi
  00378	8b 4d 60	 mov	 ecx, DWORD PTR __$ArrayPad$[ebp]
  0037b	33 cd		 xor	 ecx, ebp
  0037d	e8 00 00 00 00	 call	 @__security_check_cookie@4
  00382	83 c5 64	 add	 ebp, 100		; 00000064H
  00385	c9		 leave
  00386	c2 14 00	 ret	 20			; 00000014H
_TEXT	ENDS
;	COMDAT text$x
text$x	SEGMENT
__unwindfunclet$?RenderCircle3d@CScreen@@QAEXMMMMH@Z$0:
  00000	8d 4d 44	 lea	 ecx, DWORD PTR _pts$[ebp]
  00003	e9 00 00 00 00	 jmp	 ??1?$vector@UD3DXVECTOR3@@V?$allocator@UD3DXVECTOR3@@@std@@@std@@QAE@XZ ; std::vector<D3DXVECTOR3,std::allocator<D3DXVECTOR3> >::~vector<D3DXVECTOR3,std::allocator<D3DXVECTOR3> >
  00008	cc		 int	 3
  00009	cc		 int	 3
  0000a	cc		 int	 3
  0000b	cc		 int	 3
  0000c	cc		 int	 3
__ehhandler$?RenderCircle3d@CScreen@@QAEXMMMMH@Z:
  0000d	90		 npad	 1
  0000e	90		 npad	 1
  0000f	8b 54 24 08	 mov	 edx, DWORD PTR [esp+8]
  00013	8d 42 0c	 lea	 eax, DWORD PTR [edx+12]
  00016	8b 4a 98	 mov	 ecx, DWORD PTR [edx-104]
  00019	33 c8		 xor	 ecx, eax
  0001b	e8 00 00 00 00	 call	 @__security_check_cookie@4
  00020	8b 4a 6c	 mov	 ecx, DWORD PTR [edx+108]
  00023	33 c8		 xor	 ecx, eax
  00025	e8 00 00 00 00	 call	 @__security_check_cookie@4
  0002a	b8 00 00 00 00	 mov	 eax, OFFSET __ehfuncinfo$?RenderCircle3d@CScreen@@QAEXMMMMH@Z
  0002f	e9 00 00 00 00	 jmp	 ___CxxFrameHandler3
text$x	ENDS
?RenderCircle3d@CScreen@@QAEXMMMMH@Z ENDP		; CScreen::RenderCircle3d
; Function compile flags: /Odspy
; File D:\Metin2 Server Files\mainline\SRC_2014\Metin2Client\EterLib\GrpScreen.cpp
; File C:\Program Files (x86)\Microsoft Visual Studio\2019\Community\VC\Tools\MSVC\14.28.29333\include\vector
; File C:\Program Files (x86)\Microsoft Visual Studio\2019\Community\VC\Tools\MSVC\14.28.29333\include\xmemory
; File D:\Metin2 Server Files\mainline\SRC_2014\Metin2Client\EterLib\GrpScreen.cpp
; File C:\Program Files (x86)\Microsoft Visual Studio\2019\Community\VC\Tools\MSVC\14.28.29333\include\vector
; File D:\Metin2 Server Files\mainline\SRC_2014\Metin2Client\EterLib\GrpScreen.cpp
; File C:\Program Files (x86)\Windows Kits\10\Include\10.0.18362.0\ucrt\corecrt_math.h
; File D:\Metin2 Server Files\mainline\SRC_2014\Metin2Client\EterLib\GrpScreen.cpp
; File C:\Program Files (x86)\Windows Kits\10\Include\10.0.18362.0\ucrt\corecrt_math.h
; File D:\Metin2 Server Files\mainline\SRC_2014\Metin2Client\EterLib\GrpScreen.cpp
; File D:\Metin2 Server Files\mainline\SRC_2014\M2Data\include\d3dx8math.inl
; File C:\Program Files (x86)\Microsoft Visual Studio\2019\Community\VC\Tools\MSVC\14.28.29333\include\vector
; File D:\Metin2 Server Files\mainline\SRC_2014\Metin2Client\EterLib\GrpScreen.cpp
; File C:\Program Files (x86)\Microsoft Visual Studio\2019\Community\VC\Tools\MSVC\14.28.29333\include\vector
; File D:\Metin2 Server Files\mainline\SRC_2014\Metin2Client\EterLib\GrpScreen.cpp
; File C:\Program Files (x86)\Microsoft Visual Studio\2019\Community\VC\Tools\MSVC\14.28.29333\include\vector
; File D:\Metin2 Server Files\mainline\SRC_2014\Metin2Client\EterLib\GrpScreen.cpp
; File C:\Program Files (x86)\Microsoft Visual Studio\2019\Community\VC\Tools\MSVC\14.28.29333\include\vector
; File D:\Metin2 Server Files\mainline\SRC_2014\Metin2Client\EterLib\GrpScreen.cpp
; File C:\Program Files (x86)\Microsoft Visual Studio\2019\Community\VC\Tools\MSVC\14.28.29333\include\vector
; File D:\Metin2 Server Files\mainline\SRC_2014\Metin2Client\EterLib\GrpScreen.cpp
; File C:\Program Files (x86)\Microsoft Visual Studio\2019\Community\VC\Tools\MSVC\14.28.29333\include\vector
; File D:\Metin2 Server Files\mainline\SRC_2014\Metin2Client\EterLib\GrpScreen.cpp
; File C:\Program Files (x86)\Microsoft Visual Studio\2019\Community\VC\Tools\MSVC\14.28.29333\include\vector
; File D:\Metin2 Server Files\mainline\SRC_2014\Metin2Client\EterLib\GrpScreen.cpp
; File C:\Program Files (x86)\Microsoft Visual Studio\2019\Community\VC\Tools\MSVC\14.28.29333\include\vector
; File D:\Metin2 Server Files\mainline\SRC_2014\Metin2Client\EterLib\GrpScreen.cpp
; File C:\Program Files (x86)\Microsoft Visual Studio\2019\Community\VC\Tools\MSVC\14.28.29333\include\vector
; File D:\Metin2 Server Files\mainline\SRC_2014\Metin2Client\EterLib\GrpScreen.cpp
; File C:\Program Files (x86)\Microsoft Visual Studio\2019\Community\VC\Tools\MSVC\14.28.29333\include\vector
; File D:\Metin2 Server Files\mainline\SRC_2014\Metin2Client\EterLib\GrpScreen.cpp
;	COMDAT ?RenderCircle2d@CScreen@@QAEXMMMMH@Z
_TEXT	SEGMENT
__My_data$2 = -96					; size = 4
__My_data$3 = -92					; size = 4
$T4 = -88						; size = 4
$T5 = -84						; size = 4
$T6 = -80						; size = 4
$T7 = -76						; size = 4
$T8 = -72						; size = 4
$T9 = -68						; size = 4
__My_data$10 = -64					; size = 4
__My_data$11 = -60					; size = 4
__My_data$12 = -56					; size = 4
__My_data$13 = -52					; size = 4
__My_data$14 = -48					; size = 4
__My_data$15 = -44					; size = 4
$T16 = -40						; size = 4
$T17 = -36						; size = 4
$T18 = -32						; size = 4
$T19 = -28						; size = 4
$T20 = -24						; size = 4
$T21 = -20						; size = 4
__My_data$22 = -16					; size = 4
__$EHRec$ = -12						; size = 12
__My_data$23 = 0					; size = 4
__My_data$24 = 4					; size = 4
__My_data$25 = 8					; size = 4
_delta$ = 12						; size = 4
$T26 = 16						; size = 4
__My_data$27 = 20					; size = 4
_z$ = 24						; size = 4
_y$ = 28						; size = 4
_x$ = 32						; size = 4
tv405 = 36						; size = 4
tv404 = 40						; size = 4
tv397 = 44						; size = 4
tv396 = 48						; size = 4
_this$ = 52						; size = 4
_this$ = 56						; size = 4
$T28 = 63						; size = 1
_theta$ = 64						; size = 4
_pts$ = 68						; size = 12
_count$ = 80						; size = 4
$T29 = 84						; size = 12
__$ArrayPad$ = 96					; size = 4
_fx$ = 108						; size = 4
_fy$ = 112						; size = 4
_fz$ = 116						; size = 4
_fRadius$ = 120						; size = 4
_iStep$ = 124						; size = 4
?RenderCircle2d@CScreen@@QAEXMMMMH@Z PROC		; CScreen::RenderCircle2d, COMDAT
; _this$ = ecx

; 252  : {

  00000	55		 push	 ebp
  00001	8d 6c 24 9c	 lea	 ebp, DWORD PTR [esp-100]
  00005	83 ec 64	 sub	 esp, 100		; 00000064H
  00008	6a ff		 push	 -1
  0000a	68 00 00 00 00	 push	 __ehhandler$?RenderCircle2d@CScreen@@QAEXMMMMH@Z
  0000f	64 a1 00 00 00
	00		 mov	 eax, DWORD PTR fs:0
  00015	50		 push	 eax
  00016	83 ec 54	 sub	 esp, 84			; 00000054H
  00019	a1 00 00 00 00	 mov	 eax, DWORD PTR ___security_cookie
  0001e	33 c5		 xor	 eax, ebp
  00020	89 45 60	 mov	 DWORD PTR __$ArrayPad$[ebp], eax
  00023	56		 push	 esi
  00024	57		 push	 edi
  00025	50		 push	 eax
  00026	8d 45 f4	 lea	 eax, DWORD PTR __$EHRec$[ebp]
  00029	64 a3 00 00 00
	00		 mov	 DWORD PTR fs:0, eax
  0002f	89 4d 38	 mov	 DWORD PTR _this$[ebp], ecx
; File C:\Program Files (x86)\Microsoft Visual Studio\2019\Community\VC\Tools\MSVC\14.28.29333\include\vector

; 445  :     vector() noexcept(is_nothrow_default_constructible_v<_Alty>) : _Mypair(_Zero_then_variadic_args_t{}) {

  00032	8d 45 44	 lea	 eax, DWORD PTR _pts$[ebp]
  00035	89 45 34	 mov	 DWORD PTR _this$[ebp], eax
; File C:\Program Files (x86)\Microsoft Visual Studio\2019\Community\VC\Tools\MSVC\14.28.29333\include\xmemory

; 1339 :         : _Ty1(), _Myval2(_STD forward<_Other2>(_Val2)...) {}

  00038	8b 4d 34	 mov	 ecx, DWORD PTR _this$[ebp]
  0003b	e8 00 00 00 00	 call	 ??0?$_Vector_val@U?$_Simple_types@UD3DXVECTOR3@@@std@@@std@@QAE@XZ ; std::_Vector_val<std::_Simple_types<D3DXVECTOR3> >::_Vector_val<std::_Simple_types<D3DXVECTOR3> >
; File D:\Metin2 Server Files\mainline\SRC_2014\Metin2Client\EterLib\GrpScreen.cpp

; 256  : 	std::vector<D3DXVECTOR3> pts;

  00040	83 65 fc 00	 and	 DWORD PTR __$EHRec$[ebp+8], 0

; 257  : 
; 258  : 	pts.clear();

  00044	8d 4d 44	 lea	 ecx, DWORD PTR _pts$[ebp]
  00047	e8 00 00 00 00	 call	 ?clear@?$vector@UD3DXVECTOR3@@V?$allocator@UD3DXVECTOR3@@@std@@@std@@QAEXXZ ; std::vector<D3DXVECTOR3,std::allocator<D3DXVECTOR3> >::clear
; File C:\Program Files (x86)\Microsoft Visual Studio\2019\Community\VC\Tools\MSVC\14.28.29333\include\vector

; 1242 :         _Resize(_Newsize, _Value_init_tag{});

  0004c	8d 45 3f	 lea	 eax, DWORD PTR $T28[ebp]
  0004f	50		 push	 eax
  00050	ff 75 7c	 push	 DWORD PTR _iStep$[ebp]
  00053	8d 4d 44	 lea	 ecx, DWORD PTR _pts$[ebp]
  00056	e8 00 00 00 00	 call	 ??$_Resize@U_Value_init_tag@std@@@?$vector@UD3DXVECTOR3@@V?$allocator@UD3DXVECTOR3@@@std@@@std@@AAEXIABU_Value_init_tag@1@@Z ; std::vector<D3DXVECTOR3,std::allocator<D3DXVECTOR3> >::_Resize<std::_Value_init_tag>
; File D:\Metin2 Server Files\mainline\SRC_2014\Metin2Client\EterLib\GrpScreen.cpp

; 261  : 	theta = 0.0;

  0005b	0f 57 c0	 xorps	 xmm0, xmm0
  0005e	f3 0f 11 45 40	 movss	 DWORD PTR _theta$[ebp], xmm0

; 262  : 	delta = 2 * D3DX_PI / float(iStep);

  00063	f3 0f 2a 45 7c	 cvtsi2ss xmm0, DWORD PTR _iStep$[ebp]
  00068	f3 0f 10 0d 00
	00 00 00	 movss	 xmm1, DWORD PTR __real@40c90fdb
  00070	f3 0f 5e c8	 divss	 xmm1, xmm0
  00074	f3 0f 11 4d 0c	 movss	 DWORD PTR _delta$[ebp], xmm1

; 263  : 
; 264  : 	for (count=0; count<iStep; count++)

  00079	83 65 50 00	 and	 DWORD PTR _count$[ebp], 0
  0007d	eb 07		 jmp	 SHORT $LN4@RenderCirc
$LN2@RenderCirc:
  0007f	8b 45 50	 mov	 eax, DWORD PTR _count$[ebp]
  00082	40		 inc	 eax
  00083	89 45 50	 mov	 DWORD PTR _count$[ebp], eax
$LN4@RenderCirc:
  00086	8b 45 50	 mov	 eax, DWORD PTR _count$[ebp]
  00089	3b 45 7c	 cmp	 eax, DWORD PTR _iStep$[ebp]
  0008c	0f 8d b7 00 00
	00		 jge	 $LN3@RenderCirc
; File C:\Program Files (x86)\Windows Kits\10\Include\10.0.18362.0\ucrt\corecrt_math.h

; 649  :             return (float)cos(_X);

  00092	f3 0f 5a 45 40	 cvtss2sd xmm0, DWORD PTR _theta$[ebp]
  00097	51		 push	 ecx
  00098	51		 push	 ecx
  00099	f2 0f 11 04 24	 movsd	 QWORD PTR [esp], xmm0
  0009e	e8 00 00 00 00	 call	 _cos
  000a3	59		 pop	 ecx
  000a4	59		 pop	 ecx
  000a5	d9 5d 30	 fstp	 DWORD PTR tv396[ebp]
  000a8	d9 45 30	 fld	 DWORD PTR tv396[ebp]
  000ab	d9 5d 2c	 fstp	 DWORD PTR tv397[ebp]
; File D:\Metin2 Server Files\mainline\SRC_2014\Metin2Client\EterLib\GrpScreen.cpp

; 266  : 		x = fx + fRadius * cosf(theta);

  000ae	f3 0f 10 45 2c	 movss	 xmm0, DWORD PTR tv397[ebp]
  000b3	f3 0f 59 45 78	 mulss	 xmm0, DWORD PTR _fRadius$[ebp]
  000b8	f3 0f 58 45 6c	 addss	 xmm0, DWORD PTR _fx$[ebp]
  000bd	f3 0f 11 45 20	 movss	 DWORD PTR _x$[ebp], xmm0
; File C:\Program Files (x86)\Windows Kits\10\Include\10.0.18362.0\ucrt\corecrt_math.h

; 750  :             return (float)sin(_X);

  000c2	f3 0f 5a 45 40	 cvtss2sd xmm0, DWORD PTR _theta$[ebp]
  000c7	51		 push	 ecx
  000c8	51		 push	 ecx
  000c9	f2 0f 11 04 24	 movsd	 QWORD PTR [esp], xmm0
  000ce	e8 00 00 00 00	 call	 _sin
  000d3	59		 pop	 ecx
  000d4	59		 pop	 ecx
  000d5	d9 5d 28	 fstp	 DWORD PTR tv404[ebp]
  000d8	d9 45 28	 fld	 DWORD PTR tv404[ebp]
  000db	d9 5d 24	 fstp	 DWORD PTR tv405[ebp]
; File D:\Metin2 Server Files\mainline\SRC_2014\Metin2Client\EterLib\GrpScreen.cpp

; 267  : 		y = fy + fRadius * sinf(theta);

  000de	f3 0f 10 45 24	 movss	 xmm0, DWORD PTR tv405[ebp]
  000e3	f3 0f 59 45 78	 mulss	 xmm0, DWORD PTR _fRadius$[ebp]
  000e8	f3 0f 58 45 70	 addss	 xmm0, DWORD PTR _fy$[ebp]
  000ed	f3 0f 11 45 1c	 movss	 DWORD PTR _y$[ebp], xmm0

; 268  : 		z = fz;

  000f2	f3 0f 10 45 74	 movss	 xmm0, DWORD PTR _fz$[ebp]
  000f7	f3 0f 11 45 18	 movss	 DWORD PTR _z$[ebp], xmm0
; File D:\Metin2 Server Files\mainline\SRC_2014\M2Data\include\d3dx8math.inl

; 180  :     x = fx;

  000fc	f3 0f 10 45 20	 movss	 xmm0, DWORD PTR _x$[ebp]
  00101	f3 0f 11 45 54	 movss	 DWORD PTR $T29[ebp], xmm0

; 181  :     y = fy;

  00106	f3 0f 10 45 1c	 movss	 xmm0, DWORD PTR _y$[ebp]
  0010b	f3 0f 11 45 58	 movss	 DWORD PTR $T29[ebp+4], xmm0

; 182  :     z = fz;

  00110	f3 0f 10 45 18	 movss	 xmm0, DWORD PTR _z$[ebp]
  00115	f3 0f 11 45 5c	 movss	 DWORD PTR $T29[ebp+8], xmm0
; File C:\Program Files (x86)\Microsoft Visual Studio\2019\Community\VC\Tools\MSVC\14.28.29333\include\vector

; 1498 :         auto& _My_data = _Mypair._Myval2;

  0011a	8d 45 44	 lea	 eax, DWORD PTR _pts$[ebp]
  0011d	89 45 14	 mov	 DWORD PTR __My_data$27[ebp], eax

; 1504 :         return _My_data._Myfirst[_Pos];

  00120	6b 45 50 0c	 imul	 eax, DWORD PTR _count$[ebp], 12
  00124	8b 4d 14	 mov	 ecx, DWORD PTR __My_data$27[ebp]
  00127	03 01		 add	 eax, DWORD PTR [ecx]
  00129	89 45 10	 mov	 DWORD PTR $T26[ebp], eax
; File D:\Metin2 Server Files\mainline\SRC_2014\Metin2Client\EterLib\GrpScreen.cpp

; 270  : 		pts[count] = D3DXVECTOR3(x, y, z);

  0012c	8d 75 54	 lea	 esi, DWORD PTR $T29[ebp]
  0012f	8b 7d 10	 mov	 edi, DWORD PTR $T26[ebp]
  00132	a5		 movsd
  00133	a5		 movsd
  00134	a5		 movsd

; 271  : 
; 272  : 		theta += delta;

  00135	f3 0f 10 45 40	 movss	 xmm0, DWORD PTR _theta$[ebp]
  0013a	f3 0f 58 45 0c	 addss	 xmm0, DWORD PTR _delta$[ebp]
  0013f	f3 0f 11 45 40	 movss	 DWORD PTR _theta$[ebp], xmm0

; 273  : 	}

  00144	e9 36 ff ff ff	 jmp	 $LN2@RenderCirc
$LN3@RenderCirc:

; 274  : 	for (count=0; count<iStep - 1; count++)

  00149	83 65 50 00	 and	 DWORD PTR _count$[ebp], 0
  0014d	eb 07		 jmp	 SHORT $LN7@RenderCirc
$LN5@RenderCirc:
  0014f	8b 45 50	 mov	 eax, DWORD PTR _count$[ebp]
  00152	40		 inc	 eax
  00153	89 45 50	 mov	 DWORD PTR _count$[ebp], eax
$LN7@RenderCirc:
  00156	8b 45 7c	 mov	 eax, DWORD PTR _iStep$[ebp]
  00159	48		 dec	 eax
  0015a	39 45 50	 cmp	 DWORD PTR _count$[ebp], eax
  0015d	0f 8d d4 00 00
	00		 jge	 $LN6@RenderCirc
; File C:\Program Files (x86)\Microsoft Visual Studio\2019\Community\VC\Tools\MSVC\14.28.29333\include\vector

; 1498 :         auto& _My_data = _Mypair._Myval2;

  00163	8d 45 44	 lea	 eax, DWORD PTR _pts$[ebp]
  00166	89 45 08	 mov	 DWORD PTR __My_data$25[ebp], eax
; File D:\Metin2 Server Files\mainline\SRC_2014\Metin2Client\EterLib\GrpScreen.cpp

; 276  : 		RenderLine3d(pts[count].x, pts[count].y, pts[count].z, pts[count + 1].x, pts[count + 1].y, pts[count + 1].z);

  00169	8b 45 50	 mov	 eax, DWORD PTR _count$[ebp]
  0016c	40		 inc	 eax
; File C:\Program Files (x86)\Microsoft Visual Studio\2019\Community\VC\Tools\MSVC\14.28.29333\include\vector

; 1504 :         return _My_data._Myfirst[_Pos];

  0016d	6b c0 0c	 imul	 eax, eax, 12
  00170	8b 4d 08	 mov	 ecx, DWORD PTR __My_data$25[ebp]
  00173	03 01		 add	 eax, DWORD PTR [ecx]
  00175	89 45 ec	 mov	 DWORD PTR $T21[ebp], eax

; 1498 :         auto& _My_data = _Mypair._Myval2;

  00178	8d 45 44	 lea	 eax, DWORD PTR _pts$[ebp]
  0017b	89 45 04	 mov	 DWORD PTR __My_data$24[ebp], eax
; File D:\Metin2 Server Files\mainline\SRC_2014\Metin2Client\EterLib\GrpScreen.cpp

; 276  : 		RenderLine3d(pts[count].x, pts[count].y, pts[count].z, pts[count + 1].x, pts[count + 1].y, pts[count + 1].z);

  0017e	8b 45 50	 mov	 eax, DWORD PTR _count$[ebp]
  00181	40		 inc	 eax
; File C:\Program Files (x86)\Microsoft Visual Studio\2019\Community\VC\Tools\MSVC\14.28.29333\include\vector

; 1504 :         return _My_data._Myfirst[_Pos];

  00182	6b c0 0c	 imul	 eax, eax, 12
  00185	8b 4d 04	 mov	 ecx, DWORD PTR __My_data$24[ebp]
  00188	03 01		 add	 eax, DWORD PTR [ecx]
  0018a	89 45 e8	 mov	 DWORD PTR $T20[ebp], eax

; 1498 :         auto& _My_data = _Mypair._Myval2;

  0018d	8d 45 44	 lea	 eax, DWORD PTR _pts$[ebp]
  00190	89 45 00	 mov	 DWORD PTR __My_data$23[ebp], eax
; File D:\Metin2 Server Files\mainline\SRC_2014\Metin2Client\EterLib\GrpScreen.cpp

; 276  : 		RenderLine3d(pts[count].x, pts[count].y, pts[count].z, pts[count + 1].x, pts[count + 1].y, pts[count + 1].z);

  00193	8b 45 50	 mov	 eax, DWORD PTR _count$[ebp]
  00196	40		 inc	 eax
; File C:\Program Files (x86)\Microsoft Visual Studio\2019\Community\VC\Tools\MSVC\14.28.29333\include\vector

; 1504 :         return _My_data._Myfirst[_Pos];

  00197	6b c0 0c	 imul	 eax, eax, 12
  0019a	8b 4d 00	 mov	 ecx, DWORD PTR __My_data$23[ebp]
  0019d	03 01		 add	 eax, DWORD PTR [ecx]
  0019f	89 45 e4	 mov	 DWORD PTR $T19[ebp], eax

; 1498 :         auto& _My_data = _Mypair._Myval2;

  001a2	8d 45 44	 lea	 eax, DWORD PTR _pts$[ebp]
  001a5	89 45 f0	 mov	 DWORD PTR __My_data$22[ebp], eax

; 1504 :         return _My_data._Myfirst[_Pos];

  001a8	6b 45 50 0c	 imul	 eax, DWORD PTR _count$[ebp], 12
  001ac	8b 4d f0	 mov	 ecx, DWORD PTR __My_data$22[ebp]
  001af	03 01		 add	 eax, DWORD PTR [ecx]
  001b1	89 45 e0	 mov	 DWORD PTR $T18[ebp], eax

; 1498 :         auto& _My_data = _Mypair._Myval2;

  001b4	8d 45 44	 lea	 eax, DWORD PTR _pts$[ebp]
  001b7	89 45 a4	 mov	 DWORD PTR __My_data$3[ebp], eax

; 1504 :         return _My_data._Myfirst[_Pos];

  001ba	6b 45 50 0c	 imul	 eax, DWORD PTR _count$[ebp], 12
  001be	8b 4d a4	 mov	 ecx, DWORD PTR __My_data$3[ebp]
  001c1	03 01		 add	 eax, DWORD PTR [ecx]
  001c3	89 45 dc	 mov	 DWORD PTR $T17[ebp], eax

; 1498 :         auto& _My_data = _Mypair._Myval2;

  001c6	8d 45 44	 lea	 eax, DWORD PTR _pts$[ebp]
  001c9	89 45 a0	 mov	 DWORD PTR __My_data$2[ebp], eax

; 1504 :         return _My_data._Myfirst[_Pos];

  001cc	6b 45 50 0c	 imul	 eax, DWORD PTR _count$[ebp], 12
  001d0	8b 4d a0	 mov	 ecx, DWORD PTR __My_data$2[ebp]
  001d3	03 01		 add	 eax, DWORD PTR [ecx]
  001d5	89 45 d8	 mov	 DWORD PTR $T16[ebp], eax
; File D:\Metin2 Server Files\mainline\SRC_2014\Metin2Client\EterLib\GrpScreen.cpp

; 276  : 		RenderLine3d(pts[count].x, pts[count].y, pts[count].z, pts[count + 1].x, pts[count + 1].y, pts[count + 1].z);

  001d8	8b 45 ec	 mov	 eax, DWORD PTR $T21[ebp]
  001db	51		 push	 ecx
  001dc	f3 0f 10 40 08	 movss	 xmm0, DWORD PTR [eax+8]
  001e1	f3 0f 11 04 24	 movss	 DWORD PTR [esp], xmm0
  001e6	8b 45 e8	 mov	 eax, DWORD PTR $T20[ebp]
  001e9	51		 push	 ecx
  001ea	f3 0f 10 40 04	 movss	 xmm0, DWORD PTR [eax+4]
  001ef	f3 0f 11 04 24	 movss	 DWORD PTR [esp], xmm0
  001f4	8b 45 e4	 mov	 eax, DWORD PTR $T19[ebp]
  001f7	51		 push	 ecx
  001f8	f3 0f 10 00	 movss	 xmm0, DWORD PTR [eax]
  001fc	f3 0f 11 04 24	 movss	 DWORD PTR [esp], xmm0
  00201	8b 45 e0	 mov	 eax, DWORD PTR $T18[ebp]
  00204	51		 push	 ecx
  00205	f3 0f 10 40 08	 movss	 xmm0, DWORD PTR [eax+8]
  0020a	f3 0f 11 04 24	 movss	 DWORD PTR [esp], xmm0
  0020f	8b 45 dc	 mov	 eax, DWORD PTR $T17[ebp]
  00212	51		 push	 ecx
  00213	f3 0f 10 40 04	 movss	 xmm0, DWORD PTR [eax+4]
  00218	f3 0f 11 04 24	 movss	 DWORD PTR [esp], xmm0
  0021d	8b 45 d8	 mov	 eax, DWORD PTR $T16[ebp]
  00220	51		 push	 ecx
  00221	f3 0f 10 00	 movss	 xmm0, DWORD PTR [eax]
  00225	f3 0f 11 04 24	 movss	 DWORD PTR [esp], xmm0
  0022a	8b 4d 38	 mov	 ecx, DWORD PTR _this$[ebp]
  0022d	e8 00 00 00 00	 call	 ?RenderLine3d@CScreen@@QAEXMMMMMM@Z ; CScreen::RenderLine3d

; 277  : 	}

  00232	e9 18 ff ff ff	 jmp	 $LN5@RenderCirc
$LN6@RenderCirc:
; File C:\Program Files (x86)\Microsoft Visual Studio\2019\Community\VC\Tools\MSVC\14.28.29333\include\vector

; 1498 :         auto& _My_data = _Mypair._Myval2;

  00237	8d 45 44	 lea	 eax, DWORD PTR _pts$[ebp]
  0023a	89 45 d4	 mov	 DWORD PTR __My_data$15[ebp], eax

; 1504 :         return _My_data._Myfirst[_Pos];

  0023d	33 c0		 xor	 eax, eax
  0023f	6b c0 0c	 imul	 eax, eax, 12
  00242	8b 4d d4	 mov	 ecx, DWORD PTR __My_data$15[ebp]
  00245	03 01		 add	 eax, DWORD PTR [ecx]
  00247	89 45 bc	 mov	 DWORD PTR $T9[ebp], eax

; 1498 :         auto& _My_data = _Mypair._Myval2;

  0024a	8d 45 44	 lea	 eax, DWORD PTR _pts$[ebp]
  0024d	89 45 d0	 mov	 DWORD PTR __My_data$14[ebp], eax

; 1504 :         return _My_data._Myfirst[_Pos];

  00250	33 c0		 xor	 eax, eax
  00252	6b c0 0c	 imul	 eax, eax, 12
  00255	8b 4d d0	 mov	 ecx, DWORD PTR __My_data$14[ebp]
  00258	03 01		 add	 eax, DWORD PTR [ecx]
  0025a	89 45 b8	 mov	 DWORD PTR $T8[ebp], eax

; 1498 :         auto& _My_data = _Mypair._Myval2;

  0025d	8d 45 44	 lea	 eax, DWORD PTR _pts$[ebp]
  00260	89 45 cc	 mov	 DWORD PTR __My_data$13[ebp], eax

; 1504 :         return _My_data._Myfirst[_Pos];

  00263	33 c0		 xor	 eax, eax
  00265	6b c0 0c	 imul	 eax, eax, 12
  00268	8b 4d cc	 mov	 ecx, DWORD PTR __My_data$13[ebp]
  0026b	03 01		 add	 eax, DWORD PTR [ecx]
  0026d	89 45 b4	 mov	 DWORD PTR $T7[ebp], eax

; 1498 :         auto& _My_data = _Mypair._Myval2;

  00270	8d 45 44	 lea	 eax, DWORD PTR _pts$[ebp]
  00273	89 45 c8	 mov	 DWORD PTR __My_data$12[ebp], eax
; File D:\Metin2 Server Files\mainline\SRC_2014\Metin2Client\EterLib\GrpScreen.cpp

; 278  : 	RenderLine3d(pts[iStep - 1].x, pts[iStep - 1].y, pts[iStep - 1].z, pts[0].x, pts[0].y, pts[0].z);

  00276	8b 45 7c	 mov	 eax, DWORD PTR _iStep$[ebp]
  00279	48		 dec	 eax
; File C:\Program Files (x86)\Microsoft Visual Studio\2019\Community\VC\Tools\MSVC\14.28.29333\include\vector

; 1504 :         return _My_data._Myfirst[_Pos];

  0027a	6b c0 0c	 imul	 eax, eax, 12
  0027d	8b 4d c8	 mov	 ecx, DWORD PTR __My_data$12[ebp]
  00280	03 01		 add	 eax, DWORD PTR [ecx]
  00282	89 45 b0	 mov	 DWORD PTR $T6[ebp], eax

; 1498 :         auto& _My_data = _Mypair._Myval2;

  00285	8d 45 44	 lea	 eax, DWORD PTR _pts$[ebp]
  00288	89 45 c4	 mov	 DWORD PTR __My_data$11[ebp], eax
; File D:\Metin2 Server Files\mainline\SRC_2014\Metin2Client\EterLib\GrpScreen.cpp

; 278  : 	RenderLine3d(pts[iStep - 1].x, pts[iStep - 1].y, pts[iStep - 1].z, pts[0].x, pts[0].y, pts[0].z);

  0028b	8b 45 7c	 mov	 eax, DWORD PTR _iStep$[ebp]
  0028e	48		 dec	 eax
; File C:\Program Files (x86)\Microsoft Visual Studio\2019\Community\VC\Tools\MSVC\14.28.29333\include\vector

; 1504 :         return _My_data._Myfirst[_Pos];

  0028f	6b c0 0c	 imul	 eax, eax, 12
  00292	8b 4d c4	 mov	 ecx, DWORD PTR __My_data$11[ebp]
  00295	03 01		 add	 eax, DWORD PTR [ecx]
  00297	89 45 ac	 mov	 DWORD PTR $T5[ebp], eax

; 1498 :         auto& _My_data = _Mypair._Myval2;

  0029a	8d 45 44	 lea	 eax, DWORD PTR _pts$[ebp]
  0029d	89 45 c0	 mov	 DWORD PTR __My_data$10[ebp], eax
; File D:\Metin2 Server Files\mainline\SRC_2014\Metin2Client\EterLib\GrpScreen.cpp

; 278  : 	RenderLine3d(pts[iStep - 1].x, pts[iStep - 1].y, pts[iStep - 1].z, pts[0].x, pts[0].y, pts[0].z);

  002a0	8b 45 7c	 mov	 eax, DWORD PTR _iStep$[ebp]
  002a3	48		 dec	 eax
; File C:\Program Files (x86)\Microsoft Visual Studio\2019\Community\VC\Tools\MSVC\14.28.29333\include\vector

; 1504 :         return _My_data._Myfirst[_Pos];

  002a4	6b c0 0c	 imul	 eax, eax, 12
  002a7	8b 4d c0	 mov	 ecx, DWORD PTR __My_data$10[ebp]
  002aa	03 01		 add	 eax, DWORD PTR [ecx]
  002ac	89 45 a8	 mov	 DWORD PTR $T4[ebp], eax
; File D:\Metin2 Server Files\mainline\SRC_2014\Metin2Client\EterLib\GrpScreen.cpp

; 278  : 	RenderLine3d(pts[iStep - 1].x, pts[iStep - 1].y, pts[iStep - 1].z, pts[0].x, pts[0].y, pts[0].z);

  002af	8b 45 bc	 mov	 eax, DWORD PTR $T9[ebp]
  002b2	51		 push	 ecx
  002b3	f3 0f 10 40 08	 movss	 xmm0, DWORD PTR [eax+8]
  002b8	f3 0f 11 04 24	 movss	 DWORD PTR [esp], xmm0
  002bd	8b 45 b8	 mov	 eax, DWORD PTR $T8[ebp]
  002c0	51		 push	 ecx
  002c1	f3 0f 10 40 04	 movss	 xmm0, DWORD PTR [eax+4]
  002c6	f3 0f 11 04 24	 movss	 DWORD PTR [esp], xmm0
  002cb	8b 45 b4	 mov	 eax, DWORD PTR $T7[ebp]
  002ce	51		 push	 ecx
  002cf	f3 0f 10 00	 movss	 xmm0, DWORD PTR [eax]
  002d3	f3 0f 11 04 24	 movss	 DWORD PTR [esp], xmm0
  002d8	8b 45 b0	 mov	 eax, DWORD PTR $T6[ebp]
  002db	51		 push	 ecx
  002dc	f3 0f 10 40 08	 movss	 xmm0, DWORD PTR [eax+8]
  002e1	f3 0f 11 04 24	 movss	 DWORD PTR [esp], xmm0
  002e6	8b 45 ac	 mov	 eax, DWORD PTR $T5[ebp]
  002e9	51		 push	 ecx
  002ea	f3 0f 10 40 04	 movss	 xmm0, DWORD PTR [eax+4]
  002ef	f3 0f 11 04 24	 movss	 DWORD PTR [esp], xmm0
  002f4	8b 45 a8	 mov	 eax, DWORD PTR $T4[ebp]
  002f7	51		 push	 ecx
  002f8	f3 0f 10 00	 movss	 xmm0, DWORD PTR [eax]
  002fc	f3 0f 11 04 24	 movss	 DWORD PTR [esp], xmm0
  00301	8b 4d 38	 mov	 ecx, DWORD PTR _this$[ebp]
  00304	e8 00 00 00 00	 call	 ?RenderLine3d@CScreen@@QAEXMMMMMM@Z ; CScreen::RenderLine3d

; 279  : }

  00309	83 4d fc ff	 or	 DWORD PTR __$EHRec$[ebp+8], -1
; File C:\Program Files (x86)\Microsoft Visual Studio\2019\Community\VC\Tools\MSVC\14.28.29333\include\vector

; 673  :         _Tidy();

  0030d	8d 4d 44	 lea	 ecx, DWORD PTR _pts$[ebp]
  00310	e8 00 00 00 00	 call	 ?_Tidy@?$vector@UD3DXVECTOR3@@V?$allocator@UD3DXVECTOR3@@@std@@@std@@AAEXXZ ; std::vector<D3DXVECTOR3,std::allocator<D3DXVECTOR3> >::_Tidy
; File D:\Metin2 Server Files\mainline\SRC_2014\Metin2Client\EterLib\GrpScreen.cpp

; 279  : }

  00315	8b 4d f4	 mov	 ecx, DWORD PTR __$EHRec$[ebp]
  00318	64 89 0d 00 00
	00 00		 mov	 DWORD PTR fs:0, ecx
  0031f	59		 pop	 ecx
  00320	5f		 pop	 edi
  00321	5e		 pop	 esi
  00322	8b 4d 60	 mov	 ecx, DWORD PTR __$ArrayPad$[ebp]
  00325	33 cd		 xor	 ecx, ebp
  00327	e8 00 00 00 00	 call	 @__security_check_cookie@4
  0032c	83 c5 64	 add	 ebp, 100		; 00000064H
  0032f	c9		 leave
  00330	c2 14 00	 ret	 20			; 00000014H
_TEXT	ENDS
;	COMDAT text$x
text$x	SEGMENT
__unwindfunclet$?RenderCircle2d@CScreen@@QAEXMMMMH@Z$0:
  00000	8d 4d 44	 lea	 ecx, DWORD PTR _pts$[ebp]
  00003	e9 00 00 00 00	 jmp	 ??1?$vector@UD3DXVECTOR3@@V?$allocator@UD3DXVECTOR3@@@std@@@std@@QAE@XZ ; std::vector<D3DXVECTOR3,std::allocator<D3DXVECTOR3> >::~vector<D3DXVECTOR3,std::allocator<D3DXVECTOR3> >
  00008	cc		 int	 3
  00009	cc		 int	 3
  0000a	cc		 int	 3
  0000b	cc		 int	 3
  0000c	cc		 int	 3
__ehhandler$?RenderCircle2d@CScreen@@QAEXMMMMH@Z:
  0000d	90		 npad	 1
  0000e	90		 npad	 1
  0000f	8b 54 24 08	 mov	 edx, DWORD PTR [esp+8]
  00013	8d 42 0c	 lea	 eax, DWORD PTR [edx+12]
  00016	8b 4a a0	 mov	 ecx, DWORD PTR [edx-96]
  00019	33 c8		 xor	 ecx, eax
  0001b	e8 00 00 00 00	 call	 @__security_check_cookie@4
  00020	8b 4a 6c	 mov	 ecx, DWORD PTR [edx+108]
  00023	33 c8		 xor	 ecx, eax
  00025	e8 00 00 00 00	 call	 @__security_check_cookie@4
  0002a	b8 00 00 00 00	 mov	 eax, OFFSET __ehfuncinfo$?RenderCircle2d@CScreen@@QAEXMMMMH@Z
  0002f	e9 00 00 00 00	 jmp	 ___CxxFrameHandler3
text$x	ENDS
?RenderCircle2d@CScreen@@QAEXMMMMH@Z ENDP		; CScreen::RenderCircle2d
; Function compile flags: /Odspy
; File D:\Metin2 Server Files\mainline\SRC_2014\Metin2Client\EterLib\GrpScreen.cpp
;	COMDAT ?RenderGradationBar2d@CScreen@@QAEXMMMMKKM@Z
_TEXT	SEGMENT
_this$ = -4						; size = 4
_sx$ = 8						; size = 4
_sy$ = 12						; size = 4
_ex$ = 16						; size = 4
_ey$ = 20						; size = 4
_dwStartColor$ = 24					; size = 4
_dwEndColor$ = 28					; size = 4
_ez$ = 32						; size = 4
?RenderGradationBar2d@CScreen@@QAEXMMMMKKM@Z PROC	; CScreen::RenderGradationBar2d, COMDAT
; _this$ = ecx

; 247  : {

  00000	55		 push	 ebp
  00001	8b ec		 mov	 ebp, esp
  00003	51		 push	 ecx
  00004	89 4d fc	 mov	 DWORD PTR _this$[ebp], ecx

; 248  : 	RenderGradationBar3d(sx, sy, ez, ex, ey, ez, dwStartColor, dwEndColor);

  00007	ff 75 1c	 push	 DWORD PTR _dwEndColor$[ebp]
  0000a	ff 75 18	 push	 DWORD PTR _dwStartColor$[ebp]
  0000d	51		 push	 ecx
  0000e	f3 0f 10 45 20	 movss	 xmm0, DWORD PTR _ez$[ebp]
  00013	f3 0f 11 04 24	 movss	 DWORD PTR [esp], xmm0
  00018	51		 push	 ecx
  00019	f3 0f 10 45 14	 movss	 xmm0, DWORD PTR _ey$[ebp]
  0001e	f3 0f 11 04 24	 movss	 DWORD PTR [esp], xmm0
  00023	51		 push	 ecx
  00024	f3 0f 10 45 10	 movss	 xmm0, DWORD PTR _ex$[ebp]
  00029	f3 0f 11 04 24	 movss	 DWORD PTR [esp], xmm0
  0002e	51		 push	 ecx
  0002f	f3 0f 10 45 20	 movss	 xmm0, DWORD PTR _ez$[ebp]
  00034	f3 0f 11 04 24	 movss	 DWORD PTR [esp], xmm0
  00039	51		 push	 ecx
  0003a	f3 0f 10 45 0c	 movss	 xmm0, DWORD PTR _sy$[ebp]
  0003f	f3 0f 11 04 24	 movss	 DWORD PTR [esp], xmm0
  00044	51		 push	 ecx
  00045	f3 0f 10 45 08	 movss	 xmm0, DWORD PTR _sx$[ebp]
  0004a	f3 0f 11 04 24	 movss	 DWORD PTR [esp], xmm0
  0004f	8b 4d fc	 mov	 ecx, DWORD PTR _this$[ebp]
  00052	e8 00 00 00 00	 call	 ?RenderGradationBar3d@CScreen@@QAEXMMMMMMKK@Z ; CScreen::RenderGradationBar3d

; 249  : }

  00057	c9		 leave
  00058	c2 1c 00	 ret	 28			; 0000001cH
?RenderGradationBar2d@CScreen@@QAEXMMMMKKM@Z ENDP	; CScreen::RenderGradationBar2d
_TEXT	ENDS
; Function compile flags: /Odspy
; File D:\Metin2 Server Files\mainline\SRC_2014\Metin2Client\EterLib\GrpScreen.cpp
;	COMDAT ?RenderBar2d@CScreen@@QAEXMMMMM@Z
_TEXT	SEGMENT
_this$ = -4						; size = 4
_sx$ = 8						; size = 4
_sy$ = 12						; size = 4
_ex$ = 16						; size = 4
_ey$ = 20						; size = 4
_z$ = 24						; size = 4
?RenderBar2d@CScreen@@QAEXMMMMM@Z PROC			; CScreen::RenderBar2d, COMDAT
; _this$ = ecx

; 242  : {

  00000	55		 push	 ebp
  00001	8b ec		 mov	 ebp, esp
  00003	51		 push	 ecx
  00004	89 4d fc	 mov	 DWORD PTR _this$[ebp], ecx

; 243  : 	RenderBar3d(sx, sy, z, ex, ey, z);

  00007	51		 push	 ecx
  00008	f3 0f 10 45 18	 movss	 xmm0, DWORD PTR _z$[ebp]
  0000d	f3 0f 11 04 24	 movss	 DWORD PTR [esp], xmm0
  00012	51		 push	 ecx
  00013	f3 0f 10 45 14	 movss	 xmm0, DWORD PTR _ey$[ebp]
  00018	f3 0f 11 04 24	 movss	 DWORD PTR [esp], xmm0
  0001d	51		 push	 ecx
  0001e	f3 0f 10 45 10	 movss	 xmm0, DWORD PTR _ex$[ebp]
  00023	f3 0f 11 04 24	 movss	 DWORD PTR [esp], xmm0
  00028	51		 push	 ecx
  00029	f3 0f 10 45 18	 movss	 xmm0, DWORD PTR _z$[ebp]
  0002e	f3 0f 11 04 24	 movss	 DWORD PTR [esp], xmm0
  00033	51		 push	 ecx
  00034	f3 0f 10 45 0c	 movss	 xmm0, DWORD PTR _sy$[ebp]
  00039	f3 0f 11 04 24	 movss	 DWORD PTR [esp], xmm0
  0003e	51		 push	 ecx
  0003f	f3 0f 10 45 08	 movss	 xmm0, DWORD PTR _sx$[ebp]
  00044	f3 0f 11 04 24	 movss	 DWORD PTR [esp], xmm0
  00049	8b 4d fc	 mov	 ecx, DWORD PTR _this$[ebp]
  0004c	e8 00 00 00 00	 call	 ?RenderBar3d@CScreen@@QAEXMMMMMM@Z ; CScreen::RenderBar3d

; 244  : }

  00051	c9		 leave
  00052	c2 14 00	 ret	 20			; 00000014H
?RenderBar2d@CScreen@@QAEXMMMMM@Z ENDP			; CScreen::RenderBar2d
_TEXT	ENDS
; Function compile flags: /Odspy
; File D:\Metin2 Server Files\mainline\SRC_2014\Metin2Client\EterLib\GrpScreen.cpp
;	COMDAT ?RenderBox2d@CScreen@@QAEXMMMMM@Z
_TEXT	SEGMENT
_this$ = -4						; size = 4
_sx$ = 8						; size = 4
_sy$ = 12						; size = 4
_ex$ = 16						; size = 4
_ey$ = 20						; size = 4
_z$ = 24						; size = 4
?RenderBox2d@CScreen@@QAEXMMMMM@Z PROC			; CScreen::RenderBox2d, COMDAT
; _this$ = ecx

; 237  : {

  00000	55		 push	 ebp
  00001	8b ec		 mov	 ebp, esp
  00003	51		 push	 ecx
  00004	89 4d fc	 mov	 DWORD PTR _this$[ebp], ecx

; 238  : 	RenderBox3d(sx, sy, z, ex, ey, z);

  00007	51		 push	 ecx
  00008	f3 0f 10 45 18	 movss	 xmm0, DWORD PTR _z$[ebp]
  0000d	f3 0f 11 04 24	 movss	 DWORD PTR [esp], xmm0
  00012	51		 push	 ecx
  00013	f3 0f 10 45 14	 movss	 xmm0, DWORD PTR _ey$[ebp]
  00018	f3 0f 11 04 24	 movss	 DWORD PTR [esp], xmm0
  0001d	51		 push	 ecx
  0001e	f3 0f 10 45 10	 movss	 xmm0, DWORD PTR _ex$[ebp]
  00023	f3 0f 11 04 24	 movss	 DWORD PTR [esp], xmm0
  00028	51		 push	 ecx
  00029	f3 0f 10 45 18	 movss	 xmm0, DWORD PTR _z$[ebp]
  0002e	f3 0f 11 04 24	 movss	 DWORD PTR [esp], xmm0
  00033	51		 push	 ecx
  00034	f3 0f 10 45 0c	 movss	 xmm0, DWORD PTR _sy$[ebp]
  00039	f3 0f 11 04 24	 movss	 DWORD PTR [esp], xmm0
  0003e	51		 push	 ecx
  0003f	f3 0f 10 45 08	 movss	 xmm0, DWORD PTR _sx$[ebp]
  00044	f3 0f 11 04 24	 movss	 DWORD PTR [esp], xmm0
  00049	8b 4d fc	 mov	 ecx, DWORD PTR _this$[ebp]
  0004c	e8 00 00 00 00	 call	 ?RenderBox3d@CScreen@@QAEXMMMMMM@Z ; CScreen::RenderBox3d

; 239  : }

  00051	c9		 leave
  00052	c2 14 00	 ret	 20			; 00000014H
?RenderBox2d@CScreen@@QAEXMMMMM@Z ENDP			; CScreen::RenderBox2d
_TEXT	ENDS
; Function compile flags: /Odspy
; File D:\Metin2 Server Files\mainline\SRC_2014\Metin2Client\EterLib\GrpScreen.cpp
;	COMDAT ?RenderLine2d@CScreen@@QAEXMMMMM@Z
_TEXT	SEGMENT
_this$ = -4						; size = 4
_sx$ = 8						; size = 4
_sy$ = 12						; size = 4
_ex$ = 16						; size = 4
_ey$ = 20						; size = 4
_z$ = 24						; size = 4
?RenderLine2d@CScreen@@QAEXMMMMM@Z PROC			; CScreen::RenderLine2d, COMDAT
; _this$ = ecx

; 232  : {

  00000	55		 push	 ebp
  00001	8b ec		 mov	 ebp, esp
  00003	51		 push	 ecx
  00004	89 4d fc	 mov	 DWORD PTR _this$[ebp], ecx

; 233  : 	RenderLine3d(sx, sy, z, ex, ey, z);

  00007	51		 push	 ecx
  00008	f3 0f 10 45 18	 movss	 xmm0, DWORD PTR _z$[ebp]
  0000d	f3 0f 11 04 24	 movss	 DWORD PTR [esp], xmm0
  00012	51		 push	 ecx
  00013	f3 0f 10 45 14	 movss	 xmm0, DWORD PTR _ey$[ebp]
  00018	f3 0f 11 04 24	 movss	 DWORD PTR [esp], xmm0
  0001d	51		 push	 ecx
  0001e	f3 0f 10 45 10	 movss	 xmm0, DWORD PTR _ex$[ebp]
  00023	f3 0f 11 04 24	 movss	 DWORD PTR [esp], xmm0
  00028	51		 push	 ecx
  00029	f3 0f 10 45 18	 movss	 xmm0, DWORD PTR _z$[ebp]
  0002e	f3 0f 11 04 24	 movss	 DWORD PTR [esp], xmm0
  00033	51		 push	 ecx
  00034	f3 0f 10 45 0c	 movss	 xmm0, DWORD PTR _sy$[ebp]
  00039	f3 0f 11 04 24	 movss	 DWORD PTR [esp], xmm0
  0003e	51		 push	 ecx
  0003f	f3 0f 10 45 08	 movss	 xmm0, DWORD PTR _sx$[ebp]
  00044	f3 0f 11 04 24	 movss	 DWORD PTR [esp], xmm0
  00049	8b 4d fc	 mov	 ecx, DWORD PTR _this$[ebp]
  0004c	e8 00 00 00 00	 call	 ?RenderLine3d@CScreen@@QAEXMMMMMM@Z ; CScreen::RenderLine3d

; 234  : }

  00051	c9		 leave
  00052	c2 14 00	 ret	 20			; 00000014H
?RenderLine2d@CScreen@@QAEXMMMMM@Z ENDP			; CScreen::RenderLine2d
_TEXT	ENDS
; Function compile flags: /Odspy
; File D:\Metin2 Server Files\mainline\SRC_2014\Metin2Client\EterLib\GrpScreen.cpp
;	COMDAT ?Show@CScreen@@QAEXPAUtagRECT@@PAUHWND__@@@Z
_TEXT	SEGMENT
_this$ = -4						; size = 4
_pSrcRect$ = 8						; size = 4
_hWnd$ = 12						; size = 4
?Show@CScreen@@QAEXPAUtagRECT@@PAUHWND__@@@Z PROC	; CScreen::Show, COMDAT
; _this$ = ecx

; 744  : {

  00000	55		 push	 ebp
  00001	8b ec		 mov	 ebp, esp
  00003	51		 push	 ecx
  00004	89 4d fc	 mov	 DWORD PTR _this$[ebp], ecx

; 745  : 	assert(ms_lpd3dDevice != NULL);
; 746  : 	ms_lpd3dDevice->Present(pSrcRect, NULL, hWnd, NULL);

  00007	6a 00		 push	 0
  00009	ff 75 0c	 push	 DWORD PTR _hWnd$[ebp]
  0000c	6a 00		 push	 0
  0000e	ff 75 08	 push	 DWORD PTR _pSrcRect$[ebp]
  00011	a1 00 00 00 00	 mov	 eax, DWORD PTR ?ms_lpd3dDevice@CGraphicBase@@1PAUIDirect3DDevice8@@A ; CGraphicBase::ms_lpd3dDevice
  00016	8b 00		 mov	 eax, DWORD PTR [eax]
  00018	ff 35 00 00 00
	00		 push	 DWORD PTR ?ms_lpd3dDevice@CGraphicBase@@1PAUIDirect3DDevice8@@A ; CGraphicBase::ms_lpd3dDevice
  0001e	ff 50 3c	 call	 DWORD PTR [eax+60]

; 747  : }

  00021	c9		 leave
  00022	c2 08 00	 ret	 8
?Show@CScreen@@QAEXPAUtagRECT@@PAUHWND__@@@Z ENDP	; CScreen::Show
_TEXT	ENDS
; Function compile flags: /Odspy
; File D:\Metin2 Server Files\mainline\SRC_2014\Metin2Client\EterLib\GrpScreen.cpp
;	COMDAT ?Show@CScreen@@QAEXPAUtagRECT@@@Z
_TEXT	SEGMENT
_this$ = -4						; size = 4
_pSrcRect$ = 8						; size = 4
?Show@CScreen@@QAEXPAUtagRECT@@@Z PROC			; CScreen::Show, COMDAT
; _this$ = ecx

; 738  : {

  00000	55		 push	 ebp
  00001	8b ec		 mov	 ebp, esp
  00003	51		 push	 ecx
  00004	89 4d fc	 mov	 DWORD PTR _this$[ebp], ecx

; 739  : 	assert(ms_lpd3dDevice != NULL);
; 740  : 	ms_lpd3dDevice->Present(pSrcRect, NULL, NULL, NULL);

  00007	6a 00		 push	 0
  00009	6a 00		 push	 0
  0000b	6a 00		 push	 0
  0000d	ff 75 08	 push	 DWORD PTR _pSrcRect$[ebp]
  00010	a1 00 00 00 00	 mov	 eax, DWORD PTR ?ms_lpd3dDevice@CGraphicBase@@1PAUIDirect3DDevice8@@A ; CGraphicBase::ms_lpd3dDevice
  00015	8b 00		 mov	 eax, DWORD PTR [eax]
  00017	ff 35 00 00 00
	00		 push	 DWORD PTR ?ms_lpd3dDevice@CGraphicBase@@1PAUIDirect3DDevice8@@A ; CGraphicBase::ms_lpd3dDevice
  0001d	ff 50 3c	 call	 DWORD PTR [eax+60]

; 741  : }

  00020	c9		 leave
  00021	c2 04 00	 ret	 4
?Show@CScreen@@QAEXPAUtagRECT@@@Z ENDP			; CScreen::Show
_TEXT	ENDS
; Function compile flags: /Odspy
; File D:\Metin2 Server Files\mainline\SRC_2014\Metin2Client\EterLib\GrpScreen.cpp
;	COMDAT ?Show@CScreen@@QAEXPAUHWND__@@@Z
_TEXT	SEGMENT
_this$ = -76						; size = 4
_hr$1 = -72						; size = 4
_rcRight$2 = -68					; size = 16
_rcLeft$3 = -52						; size = 16
_rcBottom$4 = -36					; size = 16
_rcTop$5 = -20						; size = 16
__$ArrayPad$ = -4					; size = 4
_hWnd$ = 8						; size = 4
?Show@CScreen@@QAEXPAUHWND__@@@Z PROC			; CScreen::Show, COMDAT
; _this$ = ecx

; 714  : {

  00000	55		 push	 ebp
  00001	8b ec		 mov	 ebp, esp
  00003	83 ec 4c	 sub	 esp, 76			; 0000004cH
  00006	a1 00 00 00 00	 mov	 eax, DWORD PTR ___security_cookie
  0000b	33 c5		 xor	 eax, ebp
  0000d	89 45 fc	 mov	 DWORD PTR __$ArrayPad$[ebp], eax
  00010	89 4d b4	 mov	 DWORD PTR _this$[ebp], ecx

; 715  : 	assert(ms_lpd3dDevice != NULL);
; 716  : 
; 717  : 	if (g_isBrowserMode)

  00013	0f b6 05 00 00
	00 00		 movzx	 eax, BYTE PTR ?g_isBrowserMode@@3_NA ; g_isBrowserMode
  0001a	85 c0		 test	 eax, eax
  0001c	0f 84 e6 00 00
	00		 je	 $LN2@Show

; 718  : 	{
; 719  : 		RECT rcTop={0, 0, ms_d3dPresentParameter.BackBufferWidth, g_rcBrowser.top};	

  00022	83 65 ec 00	 and	 DWORD PTR _rcTop$5[ebp], 0
  00026	83 65 f0 00	 and	 DWORD PTR _rcTop$5[ebp+4], 0
  0002a	a1 00 00 00 00	 mov	 eax, DWORD PTR ?ms_d3dPresentParameter@CGraphicBase@@1U_D3DPRESENT_PARAMETERS_@@A
  0002f	89 45 f4	 mov	 DWORD PTR _rcTop$5[ebp+8], eax
  00032	a1 04 00 00 00	 mov	 eax, DWORD PTR ?g_rcBrowser@@3UtagRECT@@A+4
  00037	89 45 f8	 mov	 DWORD PTR _rcTop$5[ebp+12], eax

; 720  : 		RECT rcBottom={0, g_rcBrowser.bottom, ms_d3dPresentParameter.BackBufferWidth, ms_d3dPresentParameter.BackBufferHeight};	

  0003a	83 65 dc 00	 and	 DWORD PTR _rcBottom$4[ebp], 0
  0003e	a1 0c 00 00 00	 mov	 eax, DWORD PTR ?g_rcBrowser@@3UtagRECT@@A+12
  00043	89 45 e0	 mov	 DWORD PTR _rcBottom$4[ebp+4], eax
  00046	a1 00 00 00 00	 mov	 eax, DWORD PTR ?ms_d3dPresentParameter@CGraphicBase@@1U_D3DPRESENT_PARAMETERS_@@A
  0004b	89 45 e4	 mov	 DWORD PTR _rcBottom$4[ebp+8], eax
  0004e	a1 04 00 00 00	 mov	 eax, DWORD PTR ?ms_d3dPresentParameter@CGraphicBase@@1U_D3DPRESENT_PARAMETERS_@@A+4
  00053	89 45 e8	 mov	 DWORD PTR _rcBottom$4[ebp+12], eax

; 721  : 		RECT rcLeft={0, g_rcBrowser.top, g_rcBrowser.left, g_rcBrowser.bottom};	

  00056	83 65 cc 00	 and	 DWORD PTR _rcLeft$3[ebp], 0
  0005a	a1 04 00 00 00	 mov	 eax, DWORD PTR ?g_rcBrowser@@3UtagRECT@@A+4
  0005f	89 45 d0	 mov	 DWORD PTR _rcLeft$3[ebp+4], eax
  00062	a1 00 00 00 00	 mov	 eax, DWORD PTR ?g_rcBrowser@@3UtagRECT@@A
  00067	89 45 d4	 mov	 DWORD PTR _rcLeft$3[ebp+8], eax
  0006a	a1 0c 00 00 00	 mov	 eax, DWORD PTR ?g_rcBrowser@@3UtagRECT@@A+12
  0006f	89 45 d8	 mov	 DWORD PTR _rcLeft$3[ebp+12], eax

; 722  : 		RECT rcRight={g_rcBrowser.right, g_rcBrowser.top, ms_d3dPresentParameter.BackBufferWidth, g_rcBrowser.bottom};		

  00072	a1 08 00 00 00	 mov	 eax, DWORD PTR ?g_rcBrowser@@3UtagRECT@@A+8
  00077	89 45 bc	 mov	 DWORD PTR _rcRight$2[ebp], eax
  0007a	a1 04 00 00 00	 mov	 eax, DWORD PTR ?g_rcBrowser@@3UtagRECT@@A+4
  0007f	89 45 c0	 mov	 DWORD PTR _rcRight$2[ebp+4], eax
  00082	a1 00 00 00 00	 mov	 eax, DWORD PTR ?ms_d3dPresentParameter@CGraphicBase@@1U_D3DPRESENT_PARAMETERS_@@A
  00087	89 45 c4	 mov	 DWORD PTR _rcRight$2[ebp+8], eax
  0008a	a1 0c 00 00 00	 mov	 eax, DWORD PTR ?g_rcBrowser@@3UtagRECT@@A+12
  0008f	89 45 c8	 mov	 DWORD PTR _rcRight$2[ebp+12], eax

; 723  : 		
; 724  : 		ms_lpd3dDevice->Present(&rcTop, &rcTop, hWnd, NULL);

  00092	6a 00		 push	 0
  00094	ff 75 08	 push	 DWORD PTR _hWnd$[ebp]
  00097	8d 45 ec	 lea	 eax, DWORD PTR _rcTop$5[ebp]
  0009a	50		 push	 eax
  0009b	8d 45 ec	 lea	 eax, DWORD PTR _rcTop$5[ebp]
  0009e	50		 push	 eax
  0009f	a1 00 00 00 00	 mov	 eax, DWORD PTR ?ms_lpd3dDevice@CGraphicBase@@1PAUIDirect3DDevice8@@A ; CGraphicBase::ms_lpd3dDevice
  000a4	8b 00		 mov	 eax, DWORD PTR [eax]
  000a6	ff 35 00 00 00
	00		 push	 DWORD PTR ?ms_lpd3dDevice@CGraphicBase@@1PAUIDirect3DDevice8@@A ; CGraphicBase::ms_lpd3dDevice
  000ac	ff 50 3c	 call	 DWORD PTR [eax+60]

; 725  : 		ms_lpd3dDevice->Present(&rcBottom, &rcBottom, hWnd, NULL);

  000af	6a 00		 push	 0
  000b1	ff 75 08	 push	 DWORD PTR _hWnd$[ebp]
  000b4	8d 45 dc	 lea	 eax, DWORD PTR _rcBottom$4[ebp]
  000b7	50		 push	 eax
  000b8	8d 45 dc	 lea	 eax, DWORD PTR _rcBottom$4[ebp]
  000bb	50		 push	 eax
  000bc	a1 00 00 00 00	 mov	 eax, DWORD PTR ?ms_lpd3dDevice@CGraphicBase@@1PAUIDirect3DDevice8@@A ; CGraphicBase::ms_lpd3dDevice
  000c1	8b 00		 mov	 eax, DWORD PTR [eax]
  000c3	ff 35 00 00 00
	00		 push	 DWORD PTR ?ms_lpd3dDevice@CGraphicBase@@1PAUIDirect3DDevice8@@A ; CGraphicBase::ms_lpd3dDevice
  000c9	ff 50 3c	 call	 DWORD PTR [eax+60]

; 726  : 		ms_lpd3dDevice->Present(&rcLeft, &rcLeft, hWnd, NULL);	

  000cc	6a 00		 push	 0
  000ce	ff 75 08	 push	 DWORD PTR _hWnd$[ebp]
  000d1	8d 45 cc	 lea	 eax, DWORD PTR _rcLeft$3[ebp]
  000d4	50		 push	 eax
  000d5	8d 45 cc	 lea	 eax, DWORD PTR _rcLeft$3[ebp]
  000d8	50		 push	 eax
  000d9	a1 00 00 00 00	 mov	 eax, DWORD PTR ?ms_lpd3dDevice@CGraphicBase@@1PAUIDirect3DDevice8@@A ; CGraphicBase::ms_lpd3dDevice
  000de	8b 00		 mov	 eax, DWORD PTR [eax]
  000e0	ff 35 00 00 00
	00		 push	 DWORD PTR ?ms_lpd3dDevice@CGraphicBase@@1PAUIDirect3DDevice8@@A ; CGraphicBase::ms_lpd3dDevice
  000e6	ff 50 3c	 call	 DWORD PTR [eax+60]

; 727  : 		ms_lpd3dDevice->Present(&rcRight, &rcRight, hWnd, NULL);

  000e9	6a 00		 push	 0
  000eb	ff 75 08	 push	 DWORD PTR _hWnd$[ebp]
  000ee	8d 45 bc	 lea	 eax, DWORD PTR _rcRight$2[ebp]
  000f1	50		 push	 eax
  000f2	8d 45 bc	 lea	 eax, DWORD PTR _rcRight$2[ebp]
  000f5	50		 push	 eax
  000f6	a1 00 00 00 00	 mov	 eax, DWORD PTR ?ms_lpd3dDevice@CGraphicBase@@1PAUIDirect3DDevice8@@A ; CGraphicBase::ms_lpd3dDevice
  000fb	8b 00		 mov	 eax, DWORD PTR [eax]
  000fd	ff 35 00 00 00
	00		 push	 DWORD PTR ?ms_lpd3dDevice@CGraphicBase@@1PAUIDirect3DDevice8@@A ; CGraphicBase::ms_lpd3dDevice
  00103	ff 50 3c	 call	 DWORD PTR [eax+60]

; 728  : 	}

  00106	eb 2d		 jmp	 SHORT $LN1@Show
$LN2@Show:

; 729  : 	else
; 730  : 	{
; 731  : 		HRESULT hr=ms_lpd3dDevice->Present(NULL, NULL, hWnd, NULL);

  00108	6a 00		 push	 0
  0010a	ff 75 08	 push	 DWORD PTR _hWnd$[ebp]
  0010d	6a 00		 push	 0
  0010f	6a 00		 push	 0
  00111	a1 00 00 00 00	 mov	 eax, DWORD PTR ?ms_lpd3dDevice@CGraphicBase@@1PAUIDirect3DDevice8@@A ; CGraphicBase::ms_lpd3dDevice
  00116	8b 00		 mov	 eax, DWORD PTR [eax]
  00118	ff 35 00 00 00
	00		 push	 DWORD PTR ?ms_lpd3dDevice@CGraphicBase@@1PAUIDirect3DDevice8@@A ; CGraphicBase::ms_lpd3dDevice
  0011e	ff 50 3c	 call	 DWORD PTR [eax+60]
  00121	89 45 b8	 mov	 DWORD PTR _hr$1[ebp], eax

; 732  : 		if (D3DERR_DEVICELOST == hr)

  00124	81 7d b8 68 08
	76 88		 cmp	 DWORD PTR _hr$1[ebp], -2005530520 ; 88760868H
  0012b	75 08		 jne	 SHORT $LN1@Show

; 733  : 			RestoreDevice();

  0012d	8b 4d b4	 mov	 ecx, DWORD PTR _this$[ebp]
  00130	e8 00 00 00 00	 call	 ?RestoreDevice@CScreen@@QAEHXZ ; CScreen::RestoreDevice
$LN1@Show:

; 734  : 	}	
; 735  : }

  00135	8b 4d fc	 mov	 ecx, DWORD PTR __$ArrayPad$[ebp]
  00138	33 cd		 xor	 ecx, ebp
  0013a	e8 00 00 00 00	 call	 @__security_check_cookie@4
  0013f	c9		 leave
  00140	c2 04 00	 ret	 4
?Show@CScreen@@QAEXPAUHWND__@@@Z ENDP			; CScreen::Show
_TEXT	ENDS
; Function compile flags: /Odspy
; File D:\Metin2 Server Files\mainline\SRC_2014\Metin2Client\EterLib\GrpScreen.cpp
;	COMDAT ?End@CScreen@@QAEXXZ
_TEXT	SEGMENT
_this$ = -4						; size = 4
?End@CScreen@@QAEXXZ PROC				; CScreen::End, COMDAT
; _this$ = ecx

; 706  : {

  00000	55		 push	 ebp
  00001	8b ec		 mov	 ebp, esp
  00003	51		 push	 ecx
  00004	89 4d fc	 mov	 DWORD PTR _this$[ebp], ecx

; 707  : 	STATEMANAGER.EndScene();

  00007	8b 0d 00 00 00
	00		 mov	 ecx, DWORD PTR ?ms_singleton@?$CSingleton@VCStateManager@@@@0PAVCStateManager@@A ; CSingleton<CStateManager>::ms_singleton
  0000d	e8 00 00 00 00	 call	 ?EndScene@CStateManager@@QAEXXZ ; CStateManager::EndScene

; 708  : }

  00012	c9		 leave
  00013	c3		 ret	 0
?End@CScreen@@QAEXXZ ENDP				; CScreen::End
_TEXT	ENDS
; Function compile flags: /Odspy
; File D:\Metin2 Server Files\mainline\SRC_2014\Metin2Client\EterLib\GrpScreen.cpp
; File D:\Metin2 Server Files\mainline\SRC_2014\Metin2Client\eterBase\Singleton.h
; File D:\Metin2 Server Files\mainline\SRC_2014\Metin2Client\EterLib\GrpScreen.cpp
;	COMDAT ?Begin@CScreen@@QAE_NXZ
_TEXT	SEGMENT
$T1 = -8						; size = 4
_this$ = -4						; size = 4
?Begin@CScreen@@QAE_NXZ PROC				; CScreen::Begin, COMDAT
; _this$ = ecx

; 692  : {

  00000	55		 push	 ebp
  00001	8b ec		 mov	 ebp, esp
  00003	51		 push	 ecx
  00004	51		 push	 ecx
  00005	89 4d fc	 mov	 DWORD PTR _this$[ebp], ecx

; 693  : 	assert(ms_lpd3dDevice != NULL);
; 694  : 	ResetFaceCount();

  00008	8b 4d fc	 mov	 ecx, DWORD PTR _this$[ebp]
  0000b	e8 00 00 00 00	 call	 ?ResetFaceCount@CGraphicBase@@QAEXXZ ; CGraphicBase::ResetFaceCount
; File D:\Metin2 Server Files\mainline\SRC_2014\Metin2Client\eterBase\Singleton.h

; 27   : 		return (*ms_singleton);

  00010	a1 00 00 00 00	 mov	 eax, DWORD PTR ?ms_singleton@?$CSingleton@VCStateManager@@@@0PAVCStateManager@@A ; CSingleton<CStateManager>::ms_singleton
  00015	89 45 f8	 mov	 DWORD PTR $T1[ebp], eax
; File D:\Metin2 Server Files\mainline\SRC_2014\Metin2Client\EterLib\GrpScreen.cpp

; 696  : 	if (!STATEMANAGER.BeginScene())

  00018	8b 4d f8	 mov	 ecx, DWORD PTR $T1[ebp]
  0001b	e8 00 00 00 00	 call	 ?BeginScene@CStateManager@@QAE_NXZ ; CStateManager::BeginScene
  00020	0f b6 c0	 movzx	 eax, al
  00023	85 c0		 test	 eax, eax
  00025	75 0f		 jne	 SHORT $LN2@Begin

; 697  : 	{
; 698  : 		Tracenf("BeginScene FAILED\n");

  00027	68 00 00 00 00	 push	 OFFSET ??_C@_0BD@HBCJANMB@BeginScene?5FAILED?6@
  0002c	e8 00 00 00 00	 call	 ?Tracenf@@YAXPBDZZ	; Tracenf
  00031	59		 pop	 ecx

; 699  : 		return false;

  00032	32 c0		 xor	 al, al
  00034	eb 02		 jmp	 SHORT $LN1@Begin
$LN2@Begin:

; 700  : 	}
; 701  : 
; 702  : 	return true;

  00036	b0 01		 mov	 al, 1
$LN1@Begin:

; 703  : }

  00038	c9		 leave
  00039	c3		 ret	 0
?Begin@CScreen@@QAE_NXZ ENDP				; CScreen::Begin
_TEXT	ENDS
; Function compile flags: /Odspy
; File D:\Metin2 Server Files\mainline\SRC_2014\Metin2Client\EterLib\GrpScreen.cpp
;	COMDAT ?Clear@CScreen@@QAEXXZ
_TEXT	SEGMENT
_this$ = -4						; size = 4
?Clear@CScreen@@QAEXXZ PROC				; CScreen::Clear, COMDAT
; _this$ = ecx

; 624  : {

  00000	55		 push	 ebp
  00001	8b ec		 mov	 ebp, esp
  00003	51		 push	 ecx
  00004	89 4d fc	 mov	 DWORD PTR _this$[ebp], ecx

; 625  : 	assert(ms_lpd3dDevice != NULL);
; 626  : 	ms_lpd3dDevice->Clear(0L, NULL, D3DCLEAR_TARGET | D3DCLEAR_ZBUFFER, ms_clearColor, ms_clearDepth, ms_clearStencil);

  00007	ff 35 00 00 00
	00		 push	 DWORD PTR ?ms_clearStencil@CScreen@@1KA ; CScreen::ms_clearStencil
  0000d	51		 push	 ecx
  0000e	f3 0f 10 05 00
	00 00 00	 movss	 xmm0, DWORD PTR ?ms_clearDepth@CScreen@@1MA
  00016	f3 0f 11 04 24	 movss	 DWORD PTR [esp], xmm0
  0001b	ff 35 00 00 00
	00		 push	 DWORD PTR ?ms_clearColor@CScreen@@1KA ; CScreen::ms_clearColor
  00021	6a 03		 push	 3
  00023	6a 00		 push	 0
  00025	6a 00		 push	 0
  00027	a1 00 00 00 00	 mov	 eax, DWORD PTR ?ms_lpd3dDevice@CGraphicBase@@1PAUIDirect3DDevice8@@A ; CGraphicBase::ms_lpd3dDevice
  0002c	8b 00		 mov	 eax, DWORD PTR [eax]
  0002e	ff 35 00 00 00
	00		 push	 DWORD PTR ?ms_lpd3dDevice@CGraphicBase@@1PAUIDirect3DDevice8@@A ; CGraphicBase::ms_lpd3dDevice
  00034	ff 90 90 00 00
	00		 call	 DWORD PTR [eax+144]

; 627  : }

  0003a	c9		 leave
  0003b	c3		 ret	 0
?Clear@CScreen@@QAEXXZ ENDP				; CScreen::Clear
_TEXT	ENDS
; Function compile flags: /Odspy
; File D:\Metin2 Server Files\mainline\SRC_2014\Metin2Client\EterLib\GrpScreen.cpp
;	COMDAT ?ClearDepthBuffer@CScreen@@QAEXXZ
_TEXT	SEGMENT
_this$ = -4						; size = 4
?ClearDepthBuffer@CScreen@@QAEXXZ PROC			; CScreen::ClearDepthBuffer, COMDAT
; _this$ = ecx

; 618  : {

  00000	55		 push	 ebp
  00001	8b ec		 mov	 ebp, esp
  00003	51		 push	 ecx
  00004	89 4d fc	 mov	 DWORD PTR _this$[ebp], ecx

; 619  : 	assert(ms_lpd3dDevice != NULL);
; 620  : 	ms_lpd3dDevice->Clear(0L, NULL, D3DCLEAR_ZBUFFER, ms_clearColor, ms_clearDepth, ms_clearStencil);

  00007	ff 35 00 00 00
	00		 push	 DWORD PTR ?ms_clearStencil@CScreen@@1KA ; CScreen::ms_clearStencil
  0000d	51		 push	 ecx
  0000e	f3 0f 10 05 00
	00 00 00	 movss	 xmm0, DWORD PTR ?ms_clearDepth@CScreen@@1MA
  00016	f3 0f 11 04 24	 movss	 DWORD PTR [esp], xmm0
  0001b	ff 35 00 00 00
	00		 push	 DWORD PTR ?ms_clearColor@CScreen@@1KA ; CScreen::ms_clearColor
  00021	6a 02		 push	 2
  00023	6a 00		 push	 0
  00025	6a 00		 push	 0
  00027	a1 00 00 00 00	 mov	 eax, DWORD PTR ?ms_lpd3dDevice@CGraphicBase@@1PAUIDirect3DDevice8@@A ; CGraphicBase::ms_lpd3dDevice
  0002c	8b 00		 mov	 eax, DWORD PTR [eax]
  0002e	ff 35 00 00 00
	00		 push	 DWORD PTR ?ms_lpd3dDevice@CGraphicBase@@1PAUIDirect3DDevice8@@A ; CGraphicBase::ms_lpd3dDevice
  00034	ff 90 90 00 00
	00		 call	 DWORD PTR [eax+144]

; 621  : }

  0003a	c9		 leave
  0003b	c3		 ret	 0
?ClearDepthBuffer@CScreen@@QAEXXZ ENDP			; CScreen::ClearDepthBuffer
_TEXT	ENDS
; Function compile flags: /Odspy
; File D:\Metin2 Server Files\mainline\SRC_2014\Metin2Client\EterLib\GrpScreen.cpp
;	COMDAT ??1CScreen@@UAE@XZ
_TEXT	SEGMENT
_this$ = -4						; size = 4
??1CScreen@@UAE@XZ PROC					; CScreen::~CScreen, COMDAT
; _this$ = ecx

; 843  : {

  00000	55		 push	 ebp
  00001	8b ec		 mov	 ebp, esp
  00003	51		 push	 ecx
  00004	89 4d fc	 mov	 DWORD PTR _this$[ebp], ecx
  00007	8b 45 fc	 mov	 eax, DWORD PTR _this$[ebp]
  0000a	c7 00 00 00 00
	00		 mov	 DWORD PTR [eax], OFFSET ??_7CScreen@@6B@

; 844  : }

  00010	8b 4d fc	 mov	 ecx, DWORD PTR _this$[ebp]
  00013	e8 00 00 00 00	 call	 ??1CGraphicCollisionObject@@UAE@XZ ; CGraphicCollisionObject::~CGraphicCollisionObject
  00018	c9		 leave
  00019	c3		 ret	 0
??1CScreen@@UAE@XZ ENDP					; CScreen::~CScreen
_TEXT	ENDS
; Function compile flags: /Odspy
; File D:\Metin2 Server Files\mainline\SRC_2014\Metin2Client\EterLib\GrpScreen.cpp
;	COMDAT ??0CScreen@@QAE@XZ
_TEXT	SEGMENT
_this$ = -4						; size = 4
??0CScreen@@QAE@XZ PROC					; CScreen::CScreen, COMDAT
; _this$ = ecx

; 839  : {

  00000	55		 push	 ebp
  00001	8b ec		 mov	 ebp, esp
  00003	51		 push	 ecx
  00004	89 4d fc	 mov	 DWORD PTR _this$[ebp], ecx
  00007	8b 4d fc	 mov	 ecx, DWORD PTR _this$[ebp]
  0000a	e8 00 00 00 00	 call	 ??0CGraphicCollisionObject@@QAE@XZ ; CGraphicCollisionObject::CGraphicCollisionObject
  0000f	8b 45 fc	 mov	 eax, DWORD PTR _this$[ebp]
  00012	c7 00 00 00 00
	00		 mov	 DWORD PTR [eax], OFFSET ??_7CScreen@@6B@

; 840  : }

  00018	8b 45 fc	 mov	 eax, DWORD PTR _this$[ebp]
  0001b	c9		 leave
  0001c	c3		 ret	 0
??0CScreen@@QAE@XZ ENDP					; CScreen::CScreen
_TEXT	ENDS
; Function compile flags: /Odspy
; File D:\Metin2 Server Files\mainline\SRC_2014\Metin2Client\EterLib\Ray.h
; File D:\Metin2 Server Files\mainline\SRC_2014\M2Data\include\d3dx8math.inl
; File D:\Metin2 Server Files\mainline\SRC_2014\Metin2Client\EterLib\Ray.h
; File D:\Metin2 Server Files\mainline\SRC_2014\M2Data\include\d3dx8math.inl
; File D:\Metin2 Server Files\mainline\SRC_2014\Metin2Client\EterLib\Ray.h
;	COMDAT ?SetDirection@CRay@@QAEXABUD3DXVECTOR3@@M@Z
_TEXT	SEGMENT
_fz$ = -68						; size = 4
_fy$ = -64						; size = 4
_fx$ = -60						; size = 4
_fz$ = -56						; size = 4
_fy$ = -52						; size = 4
_fx$ = -48						; size = 4
_this$ = -44						; size = 4
_f$ = -40						; size = 4
_v$ = -36						; size = 4
_this$ = -32						; size = 4
$T1 = -28						; size = 12
$T2 = -16						; size = 12
__$ArrayPad$ = -4					; size = 4
_v3Dir$ = 8						; size = 4
_fRayRange$ = 12					; size = 4
?SetDirection@CRay@@QAEXABUD3DXVECTOR3@@M@Z PROC	; CRay::SetDirection, COMDAT
; _this$ = ecx

; 26   : 		{

  00000	55		 push	 ebp
  00001	8b ec		 mov	 ebp, esp
  00003	83 ec 44	 sub	 esp, 68			; 00000044H
  00006	a1 00 00 00 00	 mov	 eax, DWORD PTR ___security_cookie
  0000b	33 c5		 xor	 eax, ebp
  0000d	89 45 fc	 mov	 DWORD PTR __$ArrayPad$[ebp], eax
  00010	56		 push	 esi
  00011	57		 push	 edi
  00012	89 4d e0	 mov	 DWORD PTR _this$[ebp], ecx

; 27   : 			assert(fRayRange >= 0);
; 28   : 			m_v3Direction = v3Dir;

  00015	8b 7d e0	 mov	 edi, DWORD PTR _this$[ebp]
  00018	83 c7 18	 add	 edi, 24			; 00000018H
  0001b	8b 75 08	 mov	 esi, DWORD PTR _v3Dir$[ebp]
  0001e	a5		 movsd
  0001f	a5		 movsd
  00020	a5		 movsd

; 29   : 			D3DXVec3Normalize(&m_v3Direction, &m_v3Direction);

  00021	8b 45 e0	 mov	 eax, DWORD PTR _this$[ebp]
  00024	83 c0 18	 add	 eax, 24			; 00000018H
  00027	50		 push	 eax
  00028	8b 45 e0	 mov	 eax, DWORD PTR _this$[ebp]
  0002b	83 c0 18	 add	 eax, 24			; 00000018H
  0002e	50		 push	 eax
  0002f	e8 00 00 00 00	 call	 _D3DXVec3Normalize@8

; 30   : 			m_fRayRange = fRayRange;

  00034	8b 45 e0	 mov	 eax, DWORD PTR _this$[ebp]
  00037	f3 0f 10 45 0c	 movss	 xmm0, DWORD PTR _fRayRange$[ebp]
  0003c	f3 0f 11 40 24	 movss	 DWORD PTR [eax+36], xmm0

; 31   : 			m_v3End = m_v3Start + m_fRayRange * m_v3Direction;

  00041	8b 45 e0	 mov	 eax, DWORD PTR _this$[ebp]
  00044	83 c0 18	 add	 eax, 24			; 00000018H
  00047	89 45 dc	 mov	 DWORD PTR _v$[ebp], eax
  0004a	8b 45 e0	 mov	 eax, DWORD PTR _this$[ebp]
  0004d	f3 0f 10 40 24	 movss	 xmm0, DWORD PTR [eax+36]
  00052	f3 0f 11 45 d8	 movss	 DWORD PTR _f$[ebp], xmm0
; File D:\Metin2 Server Files\mainline\SRC_2014\M2Data\include\d3dx8math.inl

; 283  :     return D3DXVECTOR3(f * v.x, f * v.y, f * v.z);

  00057	8b 45 dc	 mov	 eax, DWORD PTR _v$[ebp]
  0005a	f3 0f 10 45 d8	 movss	 xmm0, DWORD PTR _f$[ebp]
  0005f	f3 0f 59 00	 mulss	 xmm0, DWORD PTR [eax]
  00063	f3 0f 11 45 d0	 movss	 DWORD PTR _fx$[ebp], xmm0
  00068	8b 45 dc	 mov	 eax, DWORD PTR _v$[ebp]
  0006b	f3 0f 10 45 d8	 movss	 xmm0, DWORD PTR _f$[ebp]
  00070	f3 0f 59 40 04	 mulss	 xmm0, DWORD PTR [eax+4]
  00075	f3 0f 11 45 cc	 movss	 DWORD PTR _fy$[ebp], xmm0
  0007a	8b 45 dc	 mov	 eax, DWORD PTR _v$[ebp]
  0007d	f3 0f 10 45 d8	 movss	 xmm0, DWORD PTR _f$[ebp]
  00082	f3 0f 59 40 08	 mulss	 xmm0, DWORD PTR [eax+8]
  00087	f3 0f 11 45 c8	 movss	 DWORD PTR _fz$[ebp], xmm0

; 180  :     x = fx;

  0008c	f3 0f 10 45 d0	 movss	 xmm0, DWORD PTR _fx$[ebp]
  00091	f3 0f 11 45 f0	 movss	 DWORD PTR $T2[ebp], xmm0

; 181  :     y = fy;

  00096	f3 0f 10 45 cc	 movss	 xmm0, DWORD PTR _fy$[ebp]
  0009b	f3 0f 11 45 f4	 movss	 DWORD PTR $T2[ebp+4], xmm0

; 182  :     z = fz;

  000a0	f3 0f 10 45 c8	 movss	 xmm0, DWORD PTR _fz$[ebp]
  000a5	f3 0f 11 45 f8	 movss	 DWORD PTR $T2[ebp+8], xmm0
; File D:\Metin2 Server Files\mainline\SRC_2014\Metin2Client\EterLib\Ray.h

; 31   : 			m_v3End = m_v3Start + m_fRayRange * m_v3Direction;

  000aa	8b 45 e0	 mov	 eax, DWORD PTR _this$[ebp]
  000ad	89 45 d4	 mov	 DWORD PTR _this$[ebp], eax
; File D:\Metin2 Server Files\mainline\SRC_2014\M2Data\include\d3dx8math.inl

; 257  :     return D3DXVECTOR3(x + v.x, y + v.y, z + v.z);

  000b0	8b 45 d4	 mov	 eax, DWORD PTR _this$[ebp]
  000b3	f3 0f 10 00	 movss	 xmm0, DWORD PTR [eax]
  000b7	f3 0f 58 45 f0	 addss	 xmm0, DWORD PTR $T2[ebp]
  000bc	f3 0f 11 45 c4	 movss	 DWORD PTR _fx$[ebp], xmm0
  000c1	8b 45 d4	 mov	 eax, DWORD PTR _this$[ebp]
  000c4	f3 0f 10 40 04	 movss	 xmm0, DWORD PTR [eax+4]
  000c9	f3 0f 58 45 f4	 addss	 xmm0, DWORD PTR $T2[ebp+4]
  000ce	f3 0f 11 45 c0	 movss	 DWORD PTR _fy$[ebp], xmm0
  000d3	8b 45 d4	 mov	 eax, DWORD PTR _this$[ebp]
  000d6	f3 0f 10 40 08	 movss	 xmm0, DWORD PTR [eax+8]
  000db	f3 0f 58 45 f8	 addss	 xmm0, DWORD PTR $T2[ebp+8]
  000e0	f3 0f 11 45 bc	 movss	 DWORD PTR _fz$[ebp], xmm0

; 180  :     x = fx;

  000e5	f3 0f 10 45 c4	 movss	 xmm0, DWORD PTR _fx$[ebp]
  000ea	f3 0f 11 45 e4	 movss	 DWORD PTR $T1[ebp], xmm0

; 181  :     y = fy;

  000ef	f3 0f 10 45 c0	 movss	 xmm0, DWORD PTR _fy$[ebp]
  000f4	f3 0f 11 45 e8	 movss	 DWORD PTR $T1[ebp+4], xmm0

; 182  :     z = fz;

  000f9	f3 0f 10 45 bc	 movss	 xmm0, DWORD PTR _fz$[ebp]
  000fe	f3 0f 11 45 ec	 movss	 DWORD PTR $T1[ebp+8], xmm0
; File D:\Metin2 Server Files\mainline\SRC_2014\Metin2Client\EterLib\Ray.h

; 31   : 			m_v3End = m_v3Start + m_fRayRange * m_v3Direction;

  00103	8b 7d e0	 mov	 edi, DWORD PTR _this$[ebp]
  00106	83 c7 0c	 add	 edi, 12			; 0000000cH
  00109	8d 75 e4	 lea	 esi, DWORD PTR $T1[ebp]
  0010c	a5		 movsd
  0010d	a5		 movsd
  0010e	a5		 movsd

; 32   : 		}

  0010f	5f		 pop	 edi
  00110	5e		 pop	 esi
  00111	8b 4d fc	 mov	 ecx, DWORD PTR __$ArrayPad$[ebp]
  00114	33 cd		 xor	 ecx, ebp
  00116	e8 00 00 00 00	 call	 @__security_check_cookie@4
  0011b	c9		 leave
  0011c	c2 08 00	 ret	 8
?SetDirection@CRay@@QAEXABUD3DXVECTOR3@@M@Z ENDP	; CRay::SetDirection
_TEXT	ENDS
; Function compile flags: /Odspy
; File C:\Program Files (x86)\Microsoft Visual Studio\2019\Community\VC\Tools\MSVC\14.28.29333\include\xmemory
;	COMDAT ??$_Allocate_manually_vector_aligned@U_Default_allocate_traits@std@@@std@@YAPAXI@Z
_TEXT	SEGMENT
__Ptr$ = -12						; size = 4
__Block_size$ = -8					; size = 4
__Ptr_container$ = -4					; size = 4
__Bytes$ = 8						; size = 4
??$_Allocate_manually_vector_aligned@U_Default_allocate_traits@std@@@std@@YAPAXI@Z PROC ; std::_Allocate_manually_vector_aligned<std::_Default_allocate_traits>, COMDAT

; 113  : __declspec(allocator) void* _Allocate_manually_vector_aligned(const size_t _Bytes) {

  00000	55		 push	 ebp
  00001	8b ec		 mov	 ebp, esp
  00003	83 ec 0c	 sub	 esp, 12			; 0000000cH

; 114  :     // allocate _Bytes manually aligned to at least _Big_allocation_alignment
; 115  :     const size_t _Block_size = _Non_user_size + _Bytes;

  00006	8b 45 08	 mov	 eax, DWORD PTR __Bytes$[ebp]
  00009	83 c0 23	 add	 eax, 35			; 00000023H
  0000c	89 45 f8	 mov	 DWORD PTR __Block_size$[ebp], eax

; 116  :     if (_Block_size <= _Bytes) {

  0000f	8b 45 f8	 mov	 eax, DWORD PTR __Block_size$[ebp]
  00012	3b 45 08	 cmp	 eax, DWORD PTR __Bytes$[ebp]
  00015	77 05		 ja	 SHORT $LN12@Allocate_m

; 117  :         _Throw_bad_array_new_length(); // add overflow

  00017	e8 00 00 00 00	 call	 ?_Throw_bad_array_new_length@std@@YAXXZ ; std::_Throw_bad_array_new_length
$LN12@Allocate_m:

; 77   :         return ::operator new(_Bytes);

  0001c	ff 75 f8	 push	 DWORD PTR __Block_size$[ebp]
  0001f	e8 00 00 00 00	 call	 ??2@YAPAXI@Z		; operator new
  00024	59		 pop	 ecx

; 118  :     }
; 119  : 
; 120  :     const uintptr_t _Ptr_container = reinterpret_cast<uintptr_t>(_Traits::_Allocate(_Block_size));

  00025	89 45 fc	 mov	 DWORD PTR __Ptr_container$[ebp], eax
$LN4@Allocate_m:

; 121  :     _STL_VERIFY(_Ptr_container != 0, "invalid argument"); // validate even in release since we're doing p[-1]

  00028	83 7d fc 00	 cmp	 DWORD PTR __Ptr_container$[ebp], 0
  0002c	74 02		 je	 SHORT $LN7@Allocate_m
  0002e	eb 09		 jmp	 SHORT $LN2@Allocate_m
$LN7@Allocate_m:
  00030	e8 00 00 00 00	 call	 __invalid_parameter_noinfo_noreturn
  00035	33 c0		 xor	 eax, eax
  00037	75 f7		 jne	 SHORT $LN7@Allocate_m
$LN2@Allocate_m:
  00039	33 c0		 xor	 eax, eax
  0003b	75 eb		 jne	 SHORT $LN4@Allocate_m

; 122  :     void* const _Ptr = reinterpret_cast<void*>((_Ptr_container + _Non_user_size) & ~(_Big_allocation_alignment - 1));

  0003d	8b 45 fc	 mov	 eax, DWORD PTR __Ptr_container$[ebp]
  00040	83 c0 23	 add	 eax, 35			; 00000023H
  00043	83 e0 e0	 and	 eax, -32		; ffffffe0H
  00046	89 45 f4	 mov	 DWORD PTR __Ptr$[ebp], eax

; 123  :     static_cast<uintptr_t*>(_Ptr)[-1] = _Ptr_container;

  00049	6a 04		 push	 4
  0004b	58		 pop	 eax
  0004c	6b c0 ff	 imul	 eax, eax, -1
  0004f	8b 4d f4	 mov	 ecx, DWORD PTR __Ptr$[ebp]
  00052	8b 55 fc	 mov	 edx, DWORD PTR __Ptr_container$[ebp]
  00055	89 14 01	 mov	 DWORD PTR [ecx+eax], edx

; 124  : 
; 125  : #ifdef _DEBUG
; 126  :     static_cast<uintptr_t*>(_Ptr)[-2] = _Big_allocation_sentinel;
; 127  : #endif // _DEBUG
; 128  :     return _Ptr;

  00058	8b 45 f4	 mov	 eax, DWORD PTR __Ptr$[ebp]
$LN11@Allocate_m:

; 129  : }

  0005b	c9		 leave
  0005c	c3		 ret	 0
??$_Allocate_manually_vector_aligned@U_Default_allocate_traits@std@@@std@@YAPAXI@Z ENDP ; std::_Allocate_manually_vector_aligned<std::_Default_allocate_traits>
_TEXT	ENDS
; Function compile flags: /Odspy
; File C:\Program Files (x86)\Microsoft Visual Studio\2019\Community\VC\Tools\MSVC\14.28.29333\include\xmemory
;	COMDAT ??$_Allocate@$07U_Default_allocate_traits@std@@$0A@@std@@YAPAXI@Z
_TEXT	SEGMENT
__Bytes$ = 8						; size = 4
??$_Allocate@$07U_Default_allocate_traits@std@@$0A@@std@@YAPAXI@Z PROC ; std::_Allocate<8,std::_Default_allocate_traits,0>, COMDAT

; 197  : __declspec(allocator) void* _Allocate(const size_t _Bytes) {

  00000	55		 push	 ebp
  00001	8b ec		 mov	 ebp, esp

; 198  :     // allocate _Bytes when !_HAS_ALIGNED_NEW || _Align <= __STDCPP_DEFAULT_NEW_ALIGNMENT__
; 199  : #if defined(_M_IX86) || defined(_M_X64)
; 200  :     if (_Bytes >= _Big_allocation_threshold) { // boost the alignment of big allocations to help autovectorization

  00003	81 7d 08 00 10
	00 00		 cmp	 DWORD PTR __Bytes$[ebp], 4096 ; 00001000H
  0000a	72 0b		 jb	 SHORT $LN2@Allocate

; 201  :         return _Allocate_manually_vector_aligned<_Traits>(_Bytes);

  0000c	ff 75 08	 push	 DWORD PTR __Bytes$[ebp]
  0000f	e8 00 00 00 00	 call	 ??$_Allocate_manually_vector_aligned@U_Default_allocate_traits@std@@@std@@YAPAXI@Z ; std::_Allocate_manually_vector_aligned<std::_Default_allocate_traits>
  00014	59		 pop	 ecx
  00015	eb 13		 jmp	 SHORT $LN1@Allocate
$LN2@Allocate:

; 202  :     }
; 203  : #endif // defined(_M_IX86) || defined(_M_X64)
; 204  : 
; 205  :     if (_Bytes != 0) {

  00017	83 7d 08 00	 cmp	 DWORD PTR __Bytes$[ebp], 0
  0001b	74 0b		 je	 SHORT $LN3@Allocate

; 77   :         return ::operator new(_Bytes);

  0001d	ff 75 08	 push	 DWORD PTR __Bytes$[ebp]
  00020	e8 00 00 00 00	 call	 ??2@YAPAXI@Z		; operator new
  00025	59		 pop	 ecx

; 206  :         return _Traits::_Allocate(_Bytes);

  00026	eb 02		 jmp	 SHORT $LN1@Allocate
$LN3@Allocate:

; 207  :     }
; 208  : 
; 209  :     return nullptr;

  00028	33 c0		 xor	 eax, eax
$LN1@Allocate:

; 210  : }

  0002a	5d		 pop	 ebp
  0002b	c3		 ret	 0
??$_Allocate@$07U_Default_allocate_traits@std@@$0A@@std@@YAPAXI@Z ENDP ; std::_Allocate<8,std::_Default_allocate_traits,0>
_TEXT	ENDS
; Function compile flags: /Odspy
; File C:\Program Files (x86)\Microsoft Visual Studio\2019\Community\VC\Tools\MSVC\14.28.29333\include\xmemory
;	COMDAT ??$_Deallocate@$07$0A@@std@@YAXPAXI@Z
_TEXT	SEGMENT
__$EHRec$ = -12						; size = 12
__Ptr$ = 8						; size = 4
__Bytes$ = 12						; size = 4
??$_Deallocate@$07$0A@@std@@YAXPAXI@Z PROC		; std::_Deallocate<8,0>, COMDAT

; 213  : void _Deallocate(void* _Ptr, size_t _Bytes) noexcept {

  00000	55		 push	 ebp
  00001	8b ec		 mov	 ebp, esp
  00003	6a ff		 push	 -1
  00005	68 00 00 00 00	 push	 __ehhandler$??$_Deallocate@$07$0A@@std@@YAXPAXI@Z
  0000a	64 a1 00 00 00
	00		 mov	 eax, DWORD PTR fs:0
  00010	50		 push	 eax
  00011	a1 00 00 00 00	 mov	 eax, DWORD PTR ___security_cookie
  00016	33 c5		 xor	 eax, ebp
  00018	50		 push	 eax
  00019	8d 45 f4	 lea	 eax, DWORD PTR __$EHRec$[ebp]
  0001c	64 a3 00 00 00
	00		 mov	 DWORD PTR fs:0, eax

; 214  :     // deallocate storage allocated by _Allocate when !_HAS_ALIGNED_NEW || _Align <= __STDCPP_DEFAULT_NEW_ALIGNMENT__
; 215  : #if defined(_M_IX86) || defined(_M_X64)
; 216  :     if (_Bytes >= _Big_allocation_threshold) { // boost the alignment of big allocations to help autovectorization

  00022	81 7d 0c 00 10
	00 00		 cmp	 DWORD PTR __Bytes$[ebp], 4096 ; 00001000H
  00029	72 0f		 jb	 SHORT $LN2@Deallocate

; 217  :         _Adjust_manually_vector_aligned(_Ptr, _Bytes);

  0002b	8d 45 0c	 lea	 eax, DWORD PTR __Bytes$[ebp]
  0002e	50		 push	 eax
  0002f	8d 45 08	 lea	 eax, DWORD PTR __Ptr$[ebp]
  00032	50		 push	 eax
  00033	e8 00 00 00 00	 call	 ?_Adjust_manually_vector_aligned@std@@YAXAAPAXAAI@Z ; std::_Adjust_manually_vector_aligned
  00038	59		 pop	 ecx
  00039	59		 pop	 ecx
$LN2@Deallocate:

; 218  :     }
; 219  : #endif // defined(_M_IX86) || defined(_M_X64)
; 220  : 
; 221  :     ::operator delete(_Ptr, _Bytes);

  0003a	ff 75 0c	 push	 DWORD PTR __Bytes$[ebp]
  0003d	ff 75 08	 push	 DWORD PTR __Ptr$[ebp]
  00040	e8 00 00 00 00	 call	 ??3@YAXPAXI@Z		; operator delete
  00045	59		 pop	 ecx
  00046	59		 pop	 ecx

; 222  : }

  00047	8b 4d f4	 mov	 ecx, DWORD PTR __$EHRec$[ebp]
  0004a	64 89 0d 00 00
	00 00		 mov	 DWORD PTR fs:0, ecx
  00051	59		 pop	 ecx
  00052	c9		 leave
  00053	c3		 ret	 0
  00054	cc		 int	 3
  00055	cc		 int	 3
  00056	cc		 int	 3
  00057	cc		 int	 3
  00058	cc		 int	 3
_TEXT	ENDS
;	COMDAT text$x
text$x	SEGMENT
__ehhandler$??$_Deallocate@$07$0A@@std@@YAXPAXI@Z:
  00000	90		 npad	 1
  00001	90		 npad	 1
  00002	8b 54 24 08	 mov	 edx, DWORD PTR [esp+8]
  00006	8d 42 0c	 lea	 eax, DWORD PTR [edx+12]
  00009	8b 4a fc	 mov	 ecx, DWORD PTR [edx-4]
  0000c	33 c8		 xor	 ecx, eax
  0000e	e8 00 00 00 00	 call	 @__security_check_cookie@4
  00013	b8 00 00 00 00	 mov	 eax, OFFSET __ehfuncinfo$??$_Deallocate@$07$0A@@std@@YAXPAXI@Z
  00018	e9 00 00 00 00	 jmp	 ___CxxFrameHandler3
text$x	ENDS
??$_Deallocate@$07$0A@@std@@YAXPAXI@Z ENDP		; std::_Deallocate<8,0>
; Function compile flags: /Odspy
; File C:\Program Files (x86)\Microsoft Visual Studio\2019\Community\VC\Tools\MSVC\14.28.29333\include\xmemory
;	COMDAT ?_Adjust_manually_vector_aligned@std@@YAXAAPAXAAI@Z
_TEXT	SEGMENT
__Min_back_shift$ = -16					; size = 4
__Ptr_user$ = -12					; size = 4
__Ptr_container$ = -8					; size = 4
__Back_shift$ = -4					; size = 4
__Ptr$ = 8						; size = 4
__Bytes$ = 12						; size = 4
?_Adjust_manually_vector_aligned@std@@YAXAAPAXAAI@Z PROC ; std::_Adjust_manually_vector_aligned, COMDAT

; 132  : inline void _Adjust_manually_vector_aligned(void*& _Ptr, size_t& _Bytes) {

  00000	55		 push	 ebp
  00001	8b ec		 mov	 ebp, esp
  00003	83 ec 10	 sub	 esp, 16			; 00000010H

; 133  :     // adjust parameters from _Allocate_manually_vector_aligned to pass to operator delete
; 134  :     _Bytes += _Non_user_size;

  00006	8b 45 0c	 mov	 eax, DWORD PTR __Bytes$[ebp]
  00009	8b 00		 mov	 eax, DWORD PTR [eax]
  0000b	83 c0 23	 add	 eax, 35			; 00000023H
  0000e	8b 4d 0c	 mov	 ecx, DWORD PTR __Bytes$[ebp]
  00011	89 01		 mov	 DWORD PTR [ecx], eax

; 135  : 
; 136  :     const uintptr_t* const _Ptr_user = reinterpret_cast<uintptr_t*>(_Ptr);

  00013	8b 45 08	 mov	 eax, DWORD PTR __Ptr$[ebp]
  00016	8b 00		 mov	 eax, DWORD PTR [eax]
  00018	89 45 f4	 mov	 DWORD PTR __Ptr_user$[ebp], eax

; 137  :     const uintptr_t _Ptr_container   = _Ptr_user[-1];

  0001b	6a 04		 push	 4
  0001d	58		 pop	 eax
  0001e	6b c0 ff	 imul	 eax, eax, -1
  00021	8b 4d f4	 mov	 ecx, DWORD PTR __Ptr_user$[ebp]
  00024	8b 04 01	 mov	 eax, DWORD PTR [ecx+eax]
  00027	89 45 f8	 mov	 DWORD PTR __Ptr_container$[ebp], eax

; 138  : 
; 139  :     // If the following asserts, it likely means that we are performing
; 140  :     // an aligned delete on memory coming from an unaligned allocation.
; 141  :     _STL_ASSERT(_Ptr_user[-2] == _Big_allocation_sentinel, "invalid argument");
; 142  : 
; 143  :     // Extra paranoia on aligned allocation/deallocation; ensure _Ptr_container is
; 144  :     // in range [_Min_back_shift, _Non_user_size]
; 145  : #ifdef _DEBUG
; 146  :     constexpr uintptr_t _Min_back_shift = 2 * sizeof(void*);
; 147  : #else // ^^^ _DEBUG ^^^ // vvv !_DEBUG vvv
; 148  :     constexpr uintptr_t _Min_back_shift = sizeof(void*);

  0002a	c7 45 f0 04 00
	00 00		 mov	 DWORD PTR __Min_back_shift$[ebp], 4

; 149  : #endif // _DEBUG
; 150  :     const uintptr_t _Back_shift = reinterpret_cast<uintptr_t>(_Ptr) - _Ptr_container;

  00031	8b 45 08	 mov	 eax, DWORD PTR __Ptr$[ebp]
  00034	8b 00		 mov	 eax, DWORD PTR [eax]
  00036	2b 45 f8	 sub	 eax, DWORD PTR __Ptr_container$[ebp]
  00039	89 45 fc	 mov	 DWORD PTR __Back_shift$[ebp], eax
$LN4@Adjust_man:

; 151  :     _STL_VERIFY(_Back_shift >= _Min_back_shift && _Back_shift <= _Non_user_size, "invalid argument");

  0003c	83 7d fc 04	 cmp	 DWORD PTR __Back_shift$[ebp], 4
  00040	72 08		 jb	 SHORT $LN7@Adjust_man
  00042	83 7d fc 23	 cmp	 DWORD PTR __Back_shift$[ebp], 35 ; 00000023H
  00046	77 02		 ja	 SHORT $LN7@Adjust_man
  00048	eb 09		 jmp	 SHORT $LN2@Adjust_man
$LN7@Adjust_man:
  0004a	e8 00 00 00 00	 call	 __invalid_parameter_noinfo_noreturn
  0004f	33 c0		 xor	 eax, eax
  00051	75 f7		 jne	 SHORT $LN7@Adjust_man
$LN2@Adjust_man:
  00053	33 c0		 xor	 eax, eax
  00055	75 e5		 jne	 SHORT $LN4@Adjust_man

; 152  :     _Ptr = reinterpret_cast<void*>(_Ptr_container);

  00057	8b 45 08	 mov	 eax, DWORD PTR __Ptr$[ebp]
  0005a	8b 4d f8	 mov	 ecx, DWORD PTR __Ptr_container$[ebp]
  0005d	89 08		 mov	 DWORD PTR [eax], ecx
$LN10@Adjust_man:

; 153  : }

  0005f	c9		 leave
  00060	c3		 ret	 0
?_Adjust_manually_vector_aligned@std@@YAXAAPAXAAI@Z ENDP ; std::_Adjust_manually_vector_aligned
_TEXT	ENDS
; Function compile flags: /Odspy
; File C:\Program Files (x86)\Microsoft Visual Studio\2019\Community\VC\Tools\MSVC\14.28.29333\include\exception
;	COMDAT ?_Throw_bad_array_new_length@std@@YAXXZ
_TEXT	SEGMENT
$T1 = -12						; size = 12
?_Throw_bad_array_new_length@std@@YAXXZ PROC		; std::_Throw_bad_array_new_length, COMDAT

; 320  : [[noreturn]] inline void _Throw_bad_array_new_length() {

  00000	55		 push	 ebp
  00001	8b ec		 mov	 ebp, esp
  00003	83 ec 0c	 sub	 esp, 12			; 0000000cH

; 321  :     _THROW(bad_array_new_length{});

  00006	8d 4d f4	 lea	 ecx, DWORD PTR $T1[ebp]
  00009	e8 00 00 00 00	 call	 ??0bad_array_new_length@std@@QAE@XZ ; std::bad_array_new_length::bad_array_new_length
  0000e	68 00 00 00 00	 push	 OFFSET __TI3?AVbad_array_new_length@std@@
  00013	8d 45 f4	 lea	 eax, DWORD PTR $T1[ebp]
  00016	50		 push	 eax
  00017	e8 00 00 00 00	 call	 __CxxThrowException@8
$LN2@Throw_bad_:

; 322  : }

  0001c	c9		 leave
  0001d	c3		 ret	 0
?_Throw_bad_array_new_length@std@@YAXXZ ENDP		; std::_Throw_bad_array_new_length
_TEXT	ENDS
; Function compile flags: /Odspy
; File C:\Program Files (x86)\Microsoft Visual Studio\2019\Community\VC\Tools\MSVC\14.28.29333\include\vcruntime_exception.h
;	COMDAT ??_Gbad_array_new_length@std@@UAEPAXI@Z
_TEXT	SEGMENT
_this$ = -4						; size = 4
___flags$ = 8						; size = 4
??_Gbad_array_new_length@std@@UAEPAXI@Z PROC		; std::bad_array_new_length::`scalar deleting destructor', COMDAT
; _this$ = ecx
  00000	55		 push	 ebp
  00001	8b ec		 mov	 ebp, esp
  00003	51		 push	 ecx
  00004	89 4d fc	 mov	 DWORD PTR _this$[ebp], ecx

; 89   :     {

  00007	8b 45 fc	 mov	 eax, DWORD PTR _this$[ebp]
  0000a	c7 00 00 00 00
	00		 mov	 DWORD PTR [eax], OFFSET ??_7exception@std@@6B@

; 90   :         __std_exception_destroy(&_Data);

  00010	8b 45 fc	 mov	 eax, DWORD PTR _this$[ebp]
  00013	83 c0 04	 add	 eax, 4
  00016	50		 push	 eax
  00017	e8 00 00 00 00	 call	 ___std_exception_destroy
  0001c	59		 pop	 ecx
  0001d	8b 45 08	 mov	 eax, DWORD PTR ___flags$[ebp]
  00020	83 e0 01	 and	 eax, 1
  00023	74 0c		 je	 SHORT $LN2@scalar
  00025	6a 0c		 push	 12			; 0000000cH
  00027	ff 75 fc	 push	 DWORD PTR _this$[ebp]
  0002a	e8 00 00 00 00	 call	 ??3@YAXPAXI@Z		; operator delete
  0002f	59		 pop	 ecx
  00030	59		 pop	 ecx
$LN2@scalar:
  00031	8b 45 fc	 mov	 eax, DWORD PTR _this$[ebp]
  00034	c9		 leave
  00035	c2 04 00	 ret	 4
??_Gbad_array_new_length@std@@UAEPAXI@Z ENDP		; std::bad_array_new_length::`scalar deleting destructor'
_TEXT	ENDS
; Function compile flags: /Odspy
;	COMDAT ??0bad_array_new_length@std@@QAE@ABV01@@Z
_TEXT	SEGMENT
_this$ = -4						; size = 4
___that$ = 8						; size = 4
??0bad_array_new_length@std@@QAE@ABV01@@Z PROC		; std::bad_array_new_length::bad_array_new_length, COMDAT
; _this$ = ecx
  00000	55		 push	 ebp
  00001	8b ec		 mov	 ebp, esp
  00003	51		 push	 ecx
  00004	89 4d fc	 mov	 DWORD PTR _this$[ebp], ecx
  00007	ff 75 08	 push	 DWORD PTR ___that$[ebp]
  0000a	8b 4d fc	 mov	 ecx, DWORD PTR _this$[ebp]
  0000d	e8 00 00 00 00	 call	 ??0exception@std@@QAE@ABV01@@Z ; std::exception::exception
  00012	8b 45 fc	 mov	 eax, DWORD PTR _this$[ebp]
  00015	c7 00 00 00 00
	00		 mov	 DWORD PTR [eax], OFFSET ??_7bad_alloc@std@@6B@
  0001b	8b 45 fc	 mov	 eax, DWORD PTR _this$[ebp]
  0001e	c7 00 00 00 00
	00		 mov	 DWORD PTR [eax], OFFSET ??_7bad_array_new_length@std@@6B@
  00024	8b 45 fc	 mov	 eax, DWORD PTR _this$[ebp]
  00027	c9		 leave
  00028	c2 04 00	 ret	 4
??0bad_array_new_length@std@@QAE@ABV01@@Z ENDP		; std::bad_array_new_length::bad_array_new_length
_TEXT	ENDS
; Function compile flags: /Odspy
; File C:\Program Files (x86)\Microsoft Visual Studio\2019\Community\VC\Tools\MSVC\14.28.29333\include\vcruntime_exception.h
;	COMDAT ??1bad_array_new_length@std@@UAE@XZ
_TEXT	SEGMENT
_this$ = -4						; size = 4
??1bad_array_new_length@std@@UAE@XZ PROC		; std::bad_array_new_length::~bad_array_new_length, COMDAT
; _this$ = ecx
  00000	55		 push	 ebp
  00001	8b ec		 mov	 ebp, esp
  00003	51		 push	 ecx
  00004	89 4d fc	 mov	 DWORD PTR _this$[ebp], ecx

; 89   :     {

  00007	8b 45 fc	 mov	 eax, DWORD PTR _this$[ebp]
  0000a	c7 00 00 00 00
	00		 mov	 DWORD PTR [eax], OFFSET ??_7exception@std@@6B@

; 90   :         __std_exception_destroy(&_Data);

  00010	8b 45 fc	 mov	 eax, DWORD PTR _this$[ebp]
  00013	83 c0 04	 add	 eax, 4
  00016	50		 push	 eax
  00017	e8 00 00 00 00	 call	 ___std_exception_destroy
  0001c	59		 pop	 ecx
  0001d	c9		 leave
  0001e	c3		 ret	 0
??1bad_array_new_length@std@@UAE@XZ ENDP		; std::bad_array_new_length::~bad_array_new_length
_TEXT	ENDS
; Function compile flags: /Odspy
; File C:\Program Files (x86)\Microsoft Visual Studio\2019\Community\VC\Tools\MSVC\14.28.29333\include\vcruntime_exception.h
;	COMDAT ??0bad_array_new_length@std@@QAE@XZ
_TEXT	SEGMENT
_this$ = -4						; size = 4
??0bad_array_new_length@std@@QAE@XZ PROC		; std::bad_array_new_length::bad_array_new_length, COMDAT
; _this$ = ecx

; 141  :     {

  00000	55		 push	 ebp
  00001	8b ec		 mov	 ebp, esp
  00003	51		 push	 ecx
  00004	89 4d fc	 mov	 DWORD PTR _this$[ebp], ecx

; 66   :     {

  00007	8b 45 fc	 mov	 eax, DWORD PTR _this$[ebp]
  0000a	c7 00 00 00 00
	00		 mov	 DWORD PTR [eax], OFFSET ??_7exception@std@@6B@

; 65   :         : _Data()

  00010	33 c0		 xor	 eax, eax
  00012	8b 4d fc	 mov	 ecx, DWORD PTR _this$[ebp]
  00015	83 c1 04	 add	 ecx, 4
  00018	89 01		 mov	 DWORD PTR [ecx], eax
  0001a	89 41 04	 mov	 DWORD PTR [ecx+4], eax

; 67   :         _Data._What = _Message;

  0001d	8b 45 fc	 mov	 eax, DWORD PTR _this$[ebp]
  00020	c7 40 04 00 00
	00 00		 mov	 DWORD PTR [eax+4], OFFSET ??_C@_0BF@KINCDENJ@bad?5array?5new?5length@

; 130  :     {

  00027	8b 45 fc	 mov	 eax, DWORD PTR _this$[ebp]
  0002a	c7 00 00 00 00
	00		 mov	 DWORD PTR [eax], OFFSET ??_7bad_alloc@std@@6B@

; 141  :     {

  00030	8b 45 fc	 mov	 eax, DWORD PTR _this$[ebp]
  00033	c7 00 00 00 00
	00		 mov	 DWORD PTR [eax], OFFSET ??_7bad_array_new_length@std@@6B@

; 142  :     }

  00039	8b 45 fc	 mov	 eax, DWORD PTR _this$[ebp]
  0003c	c9		 leave
  0003d	c3		 ret	 0
??0bad_array_new_length@std@@QAE@XZ ENDP		; std::bad_array_new_length::bad_array_new_length
_TEXT	ENDS
; Function compile flags: /Odspy
; File C:\Program Files (x86)\Microsoft Visual Studio\2019\Community\VC\Tools\MSVC\14.28.29333\include\vcruntime_exception.h
;	COMDAT ??_Gbad_alloc@std@@UAEPAXI@Z
_TEXT	SEGMENT
_this$ = -4						; size = 4
___flags$ = 8						; size = 4
??_Gbad_alloc@std@@UAEPAXI@Z PROC			; std::bad_alloc::`scalar deleting destructor', COMDAT
; _this$ = ecx
  00000	55		 push	 ebp
  00001	8b ec		 mov	 ebp, esp
  00003	51		 push	 ecx
  00004	89 4d fc	 mov	 DWORD PTR _this$[ebp], ecx

; 89   :     {

  00007	8b 45 fc	 mov	 eax, DWORD PTR _this$[ebp]
  0000a	c7 00 00 00 00
	00		 mov	 DWORD PTR [eax], OFFSET ??_7exception@std@@6B@

; 90   :         __std_exception_destroy(&_Data);

  00010	8b 45 fc	 mov	 eax, DWORD PTR _this$[ebp]
  00013	83 c0 04	 add	 eax, 4
  00016	50		 push	 eax
  00017	e8 00 00 00 00	 call	 ___std_exception_destroy
  0001c	59		 pop	 ecx
  0001d	8b 45 08	 mov	 eax, DWORD PTR ___flags$[ebp]
  00020	83 e0 01	 and	 eax, 1
  00023	74 0c		 je	 SHORT $LN2@scalar
  00025	6a 0c		 push	 12			; 0000000cH
  00027	ff 75 fc	 push	 DWORD PTR _this$[ebp]
  0002a	e8 00 00 00 00	 call	 ??3@YAXPAXI@Z		; operator delete
  0002f	59		 pop	 ecx
  00030	59		 pop	 ecx
$LN2@scalar:
  00031	8b 45 fc	 mov	 eax, DWORD PTR _this$[ebp]
  00034	c9		 leave
  00035	c2 04 00	 ret	 4
??_Gbad_alloc@std@@UAEPAXI@Z ENDP			; std::bad_alloc::`scalar deleting destructor'
_TEXT	ENDS
; Function compile flags: /Odspy
;	COMDAT ??0bad_alloc@std@@QAE@ABV01@@Z
_TEXT	SEGMENT
_this$ = -4						; size = 4
___that$ = 8						; size = 4
??0bad_alloc@std@@QAE@ABV01@@Z PROC			; std::bad_alloc::bad_alloc, COMDAT
; _this$ = ecx
  00000	55		 push	 ebp
  00001	8b ec		 mov	 ebp, esp
  00003	51		 push	 ecx
  00004	89 4d fc	 mov	 DWORD PTR _this$[ebp], ecx
  00007	ff 75 08	 push	 DWORD PTR ___that$[ebp]
  0000a	8b 4d fc	 mov	 ecx, DWORD PTR _this$[ebp]
  0000d	e8 00 00 00 00	 call	 ??0exception@std@@QAE@ABV01@@Z ; std::exception::exception
  00012	8b 45 fc	 mov	 eax, DWORD PTR _this$[ebp]
  00015	c7 00 00 00 00
	00		 mov	 DWORD PTR [eax], OFFSET ??_7bad_alloc@std@@6B@
  0001b	8b 45 fc	 mov	 eax, DWORD PTR _this$[ebp]
  0001e	c9		 leave
  0001f	c2 04 00	 ret	 4
??0bad_alloc@std@@QAE@ABV01@@Z ENDP			; std::bad_alloc::bad_alloc
_TEXT	ENDS
; Function compile flags: /Odspy
; File C:\Program Files (x86)\Microsoft Visual Studio\2019\Community\VC\Tools\MSVC\14.28.29333\include\vcruntime_exception.h
;	COMDAT ??_Gexception@std@@UAEPAXI@Z
_TEXT	SEGMENT
_this$ = -4						; size = 4
___flags$ = 8						; size = 4
??_Gexception@std@@UAEPAXI@Z PROC			; std::exception::`scalar deleting destructor', COMDAT
; _this$ = ecx
  00000	55		 push	 ebp
  00001	8b ec		 mov	 ebp, esp
  00003	51		 push	 ecx
  00004	89 4d fc	 mov	 DWORD PTR _this$[ebp], ecx

; 89   :     {

  00007	8b 45 fc	 mov	 eax, DWORD PTR _this$[ebp]
  0000a	c7 00 00 00 00
	00		 mov	 DWORD PTR [eax], OFFSET ??_7exception@std@@6B@

; 90   :         __std_exception_destroy(&_Data);

  00010	8b 45 fc	 mov	 eax, DWORD PTR _this$[ebp]
  00013	83 c0 04	 add	 eax, 4
  00016	50		 push	 eax
  00017	e8 00 00 00 00	 call	 ___std_exception_destroy
  0001c	59		 pop	 ecx
  0001d	8b 45 08	 mov	 eax, DWORD PTR ___flags$[ebp]
  00020	83 e0 01	 and	 eax, 1
  00023	74 0c		 je	 SHORT $LN2@scalar
  00025	6a 0c		 push	 12			; 0000000cH
  00027	ff 75 fc	 push	 DWORD PTR _this$[ebp]
  0002a	e8 00 00 00 00	 call	 ??3@YAXPAXI@Z		; operator delete
  0002f	59		 pop	 ecx
  00030	59		 pop	 ecx
$LN2@scalar:
  00031	8b 45 fc	 mov	 eax, DWORD PTR _this$[ebp]
  00034	c9		 leave
  00035	c2 04 00	 ret	 4
??_Gexception@std@@UAEPAXI@Z ENDP			; std::exception::`scalar deleting destructor'
_TEXT	ENDS
; Function compile flags: /Odspy
; File C:\Program Files (x86)\Microsoft Visual Studio\2019\Community\VC\Tools\MSVC\14.28.29333\include\vcruntime_exception.h
;	COMDAT ?what@exception@std@@UBEPBDXZ
_TEXT	SEGMENT
tv69 = -8						; size = 4
_this$ = -4						; size = 4
?what@exception@std@@UBEPBDXZ PROC			; std::exception::what, COMDAT
; _this$ = ecx

; 94   :     {

  00000	55		 push	 ebp
  00001	8b ec		 mov	 ebp, esp
  00003	51		 push	 ecx
  00004	51		 push	 ecx
  00005	89 4d fc	 mov	 DWORD PTR _this$[ebp], ecx

; 95   :         return _Data._What ? _Data._What : "Unknown exception";

  00008	8b 45 fc	 mov	 eax, DWORD PTR _this$[ebp]
  0000b	83 78 04 00	 cmp	 DWORD PTR [eax+4], 0
  0000f	74 0b		 je	 SHORT $LN3@what
  00011	8b 45 fc	 mov	 eax, DWORD PTR _this$[ebp]
  00014	8b 40 04	 mov	 eax, DWORD PTR [eax+4]
  00017	89 45 f8	 mov	 DWORD PTR tv69[ebp], eax
  0001a	eb 07		 jmp	 SHORT $LN4@what
$LN3@what:
  0001c	c7 45 f8 00 00
	00 00		 mov	 DWORD PTR tv69[ebp], OFFSET ??_C@_0BC@EOODALEL@Unknown?5exception@
$LN4@what:
  00023	8b 45 f8	 mov	 eax, DWORD PTR tv69[ebp]

; 96   :     }

  00026	c9		 leave
  00027	c3		 ret	 0
?what@exception@std@@UBEPBDXZ ENDP			; std::exception::what
_TEXT	ENDS
; Function compile flags: /Odspy
; File C:\Program Files (x86)\Microsoft Visual Studio\2019\Community\VC\Tools\MSVC\14.28.29333\include\vcruntime_exception.h
;	COMDAT ??0exception@std@@QAE@ABV01@@Z
_TEXT	SEGMENT
_this$ = -4						; size = 4
__Other$ = 8						; size = 4
??0exception@std@@QAE@ABV01@@Z PROC			; std::exception::exception, COMDAT
; _this$ = ecx

; 72   :     {

  00000	55		 push	 ebp
  00001	8b ec		 mov	 ebp, esp
  00003	51		 push	 ecx
  00004	89 4d fc	 mov	 DWORD PTR _this$[ebp], ecx
  00007	8b 45 fc	 mov	 eax, DWORD PTR _this$[ebp]
  0000a	c7 00 00 00 00
	00		 mov	 DWORD PTR [eax], OFFSET ??_7exception@std@@6B@

; 71   :         : _Data()

  00010	33 c0		 xor	 eax, eax
  00012	8b 4d fc	 mov	 ecx, DWORD PTR _this$[ebp]
  00015	83 c1 04	 add	 ecx, 4
  00018	89 01		 mov	 DWORD PTR [ecx], eax
  0001a	89 41 04	 mov	 DWORD PTR [ecx+4], eax

; 73   :         __std_exception_copy(&_Other._Data, &_Data);

  0001d	8b 45 fc	 mov	 eax, DWORD PTR _this$[ebp]
  00020	83 c0 04	 add	 eax, 4
  00023	50		 push	 eax
  00024	8b 45 08	 mov	 eax, DWORD PTR __Other$[ebp]
  00027	83 c0 04	 add	 eax, 4
  0002a	50		 push	 eax
  0002b	e8 00 00 00 00	 call	 ___std_exception_copy
  00030	59		 pop	 ecx
  00031	59		 pop	 ecx

; 74   :     }

  00032	8b 45 fc	 mov	 eax, DWORD PTR _this$[ebp]
  00035	c9		 leave
  00036	c2 04 00	 ret	 4
??0exception@std@@QAE@ABV01@@Z ENDP			; std::exception::exception
_TEXT	ENDS
; Function compile flags: /Odspy
;	COMDAT ??_H@YGXPAXIIP6EPAX0@Z@Z
_TEXT	SEGMENT
tv66 = -4						; size = 4
___t$ = 8						; size = 4
___s$ = 12						; size = 4
___n$ = 16						; size = 4
___f$ = 20						; size = 4
??_H@YGXPAXIIP6EPAX0@Z@Z PROC				; `vector constructor iterator', COMDAT
  00000	55		 push	 ebp
  00001	8b ec		 mov	 ebp, esp
  00003	51		 push	 ecx
$LN2@vector:
  00004	8b 45 10	 mov	 eax, DWORD PTR ___n$[ebp]
  00007	89 45 fc	 mov	 DWORD PTR tv66[ebp], eax
  0000a	8b 45 10	 mov	 eax, DWORD PTR ___n$[ebp]
  0000d	48		 dec	 eax
  0000e	89 45 10	 mov	 DWORD PTR ___n$[ebp], eax
  00011	83 7d fc 00	 cmp	 DWORD PTR tv66[ebp], 0
  00015	76 11		 jbe	 SHORT $LN1@vector
  00017	8b 4d 08	 mov	 ecx, DWORD PTR ___t$[ebp]
  0001a	ff 55 14	 call	 DWORD PTR ___f$[ebp]
  0001d	8b 45 08	 mov	 eax, DWORD PTR ___t$[ebp]
  00020	03 45 0c	 add	 eax, DWORD PTR ___s$[ebp]
  00023	89 45 08	 mov	 DWORD PTR ___t$[ebp], eax
  00026	eb dc		 jmp	 SHORT $LN2@vector
$LN1@vector:
  00028	c9		 leave
  00029	c2 10 00	 ret	 16			; 00000010H
??_H@YGXPAXIIP6EPAX0@Z@Z ENDP				; `vector constructor iterator'
_TEXT	ENDS
END
