; Listing generated by Microsoft (R) Optimizing Compiler Version 19.28.29335.0 

	TITLE	D:\Metin2 Server Files\mainline\SRC_2014\Metin2Client\EterLib\GrpTexture.cpp
	.686P
	.XMM
	include listing.inc
	.model	flat

INCLUDELIB LIBCMT
INCLUDELIB OLDNAMES

PUBLIC	??_H@YGXPAXIIP6EPAX0@Z@Z			; `vector constructor iterator'
PUBLIC	?IsEmpty@CGraphicTexture@@UBE_NXZ		; CGraphicTexture::IsEmpty
PUBLIC	?GetWidth@CGraphicTexture@@QBEHXZ		; CGraphicTexture::GetWidth
PUBLIC	?GetHeight@CGraphicTexture@@QBEHXZ		; CGraphicTexture::GetHeight
PUBLIC	?SetTextureStage@CGraphicTexture@@QBEXH@Z	; CGraphicTexture::SetTextureStage
PUBLIC	?GetD3DTexture@CGraphicTexture@@QBEPAUIDirect3DTexture8@@XZ ; CGraphicTexture::GetD3DTexture
PUBLIC	?DestroyDeviceObjects@CGraphicTexture@@QAEXXZ	; CGraphicTexture::DestroyDeviceObjects
PUBLIC	??0CGraphicTexture@@IAE@XZ			; CGraphicTexture::CGraphicTexture
PUBLIC	??1CGraphicTexture@@MAE@XZ			; CGraphicTexture::~CGraphicTexture
PUBLIC	?Destroy@CGraphicTexture@@IAEXXZ		; CGraphicTexture::Destroy
PUBLIC	?Initialize@CGraphicTexture@@IAEXXZ		; CGraphicTexture::Initialize
PUBLIC	??_GCGraphicTexture@@MAEPAXI@Z			; CGraphicTexture::`scalar deleting destructor'
PUBLIC	??_7CGraphicTexture@@6B@			; CGraphicTexture::`vftable'
PUBLIC	?ms_singleton@?$CSingleton@VCStateManager@@@@0PAVCStateManager@@A ; CSingleton<CStateManager>::ms_singleton
PUBLIC	??_R4CGraphicTexture@@6B@			; CGraphicTexture::`RTTI Complete Object Locator'
PUBLIC	??_R0?AVCGraphicTexture@@@8			; CGraphicTexture `RTTI Type Descriptor'
PUBLIC	??_R3CGraphicTexture@@8				; CGraphicTexture::`RTTI Class Hierarchy Descriptor'
PUBLIC	??_R2CGraphicTexture@@8				; CGraphicTexture::`RTTI Base Class Array'
PUBLIC	??_R1A@?0A@EA@CGraphicTexture@@8		; CGraphicTexture::`RTTI Base Class Descriptor at (0,-1,0,64)'
PUBLIC	??_R1A@?0A@EA@CGraphicBase@@8			; CGraphicBase::`RTTI Base Class Descriptor at (0,-1,0,64)'
PUBLIC	??_R0?AVCGraphicBase@@@8			; CGraphicBase `RTTI Type Descriptor'
PUBLIC	??_R3CGraphicBase@@8				; CGraphicBase::`RTTI Class Hierarchy Descriptor'
PUBLIC	??_R2CGraphicBase@@8				; CGraphicBase::`RTTI Base Class Array'
EXTRN	??3@YAXPAXI@Z:PROC				; operator delete
EXTRN	??0CGraphicBase@@QAE@XZ:PROC			; CGraphicBase::CGraphicBase
EXTRN	??1CGraphicBase@@UAE@XZ:PROC			; CGraphicBase::~CGraphicBase
EXTRN	??_ECGraphicTexture@@MAEPAXI@Z:PROC		; CGraphicTexture::`vector deleting destructor'
EXTRN	?SetTexture@CStateManager@@QAEXKPAUIDirect3DBaseTexture8@@@Z:PROC ; CStateManager::SetTexture
EXTRN	@__security_check_cookie@4:PROC
EXTRN	___CxxFrameHandler3:PROC
EXTRN	??_7type_info@@6B@:QWORD			; type_info::`vftable'
EXTRN	___security_cookie:DWORD
;	COMDAT ?ms_singleton@?$CSingleton@VCStateManager@@@@0PAVCStateManager@@A
_BSS	SEGMENT
?ms_singleton@?$CSingleton@VCStateManager@@@@0PAVCStateManager@@A DD 01H DUP (?) ; CSingleton<CStateManager>::ms_singleton
_BSS	ENDS
;	COMDAT ??_R2CGraphicBase@@8
rdata$r	SEGMENT
??_R2CGraphicBase@@8 DD FLAT:??_R1A@?0A@EA@CGraphicBase@@8 ; CGraphicBase::`RTTI Base Class Array'
rdata$r	ENDS
;	COMDAT ??_R3CGraphicBase@@8
rdata$r	SEGMENT
??_R3CGraphicBase@@8 DD 00H				; CGraphicBase::`RTTI Class Hierarchy Descriptor'
	DD	00H
	DD	01H
	DD	FLAT:??_R2CGraphicBase@@8
rdata$r	ENDS
;	COMDAT ??_R0?AVCGraphicBase@@@8
data$rs	SEGMENT
??_R0?AVCGraphicBase@@@8 DD FLAT:??_7type_info@@6B@	; CGraphicBase `RTTI Type Descriptor'
	DD	00H
	DB	'.?AVCGraphicBase@@', 00H
data$rs	ENDS
;	COMDAT ??_R1A@?0A@EA@CGraphicBase@@8
rdata$r	SEGMENT
??_R1A@?0A@EA@CGraphicBase@@8 DD FLAT:??_R0?AVCGraphicBase@@@8 ; CGraphicBase::`RTTI Base Class Descriptor at (0,-1,0,64)'
	DD	00H
	DD	00H
	DD	0ffffffffH
	DD	00H
	DD	040H
	DD	FLAT:??_R3CGraphicBase@@8
rdata$r	ENDS
;	COMDAT ??_R1A@?0A@EA@CGraphicTexture@@8
rdata$r	SEGMENT
??_R1A@?0A@EA@CGraphicTexture@@8 DD FLAT:??_R0?AVCGraphicTexture@@@8 ; CGraphicTexture::`RTTI Base Class Descriptor at (0,-1,0,64)'
	DD	01H
	DD	00H
	DD	0ffffffffH
	DD	00H
	DD	040H
	DD	FLAT:??_R3CGraphicTexture@@8
rdata$r	ENDS
;	COMDAT ??_R2CGraphicTexture@@8
rdata$r	SEGMENT
??_R2CGraphicTexture@@8 DD FLAT:??_R1A@?0A@EA@CGraphicTexture@@8 ; CGraphicTexture::`RTTI Base Class Array'
	DD	FLAT:??_R1A@?0A@EA@CGraphicBase@@8
rdata$r	ENDS
;	COMDAT ??_R3CGraphicTexture@@8
rdata$r	SEGMENT
??_R3CGraphicTexture@@8 DD 00H				; CGraphicTexture::`RTTI Class Hierarchy Descriptor'
	DD	00H
	DD	02H
	DD	FLAT:??_R2CGraphicTexture@@8
rdata$r	ENDS
;	COMDAT ??_R0?AVCGraphicTexture@@@8
data$rs	SEGMENT
??_R0?AVCGraphicTexture@@@8 DD FLAT:??_7type_info@@6B@	; CGraphicTexture `RTTI Type Descriptor'
	DD	00H
	DB	'.?AVCGraphicTexture@@', 00H
data$rs	ENDS
;	COMDAT ??_R4CGraphicTexture@@6B@
rdata$r	SEGMENT
??_R4CGraphicTexture@@6B@ DD 00H			; CGraphicTexture::`RTTI Complete Object Locator'
	DD	00H
	DD	00H
	DD	FLAT:??_R0?AVCGraphicTexture@@@8
	DD	FLAT:??_R3CGraphicTexture@@8
rdata$r	ENDS
;	COMDAT ??_7CGraphicTexture@@6B@
CONST	SEGMENT
??_7CGraphicTexture@@6B@ DD FLAT:??_R4CGraphicTexture@@6B@ ; CGraphicTexture::`vftable'
	DD	FLAT:??_ECGraphicTexture@@MAEPAXI@Z
	DD	FLAT:?IsEmpty@CGraphicTexture@@UBE_NXZ
CONST	ENDS
;	COMDAT xdata$x
xdata$x	SEGMENT
__unwindtable$??0CGraphicTexture@@IAE@XZ DD 0ffffffffH
	DD	FLAT:__unwindfunclet$??0CGraphicTexture@@IAE@XZ$0
__ehfuncinfo$??0CGraphicTexture@@IAE@XZ DD 019930522H
	DD	01H
	DD	FLAT:__unwindtable$??0CGraphicTexture@@IAE@XZ
	DD	2 DUP(00H)
	DD	2 DUP(00H)
	DD	00H
	DD	01H
xdata$x	ENDS
; Function compile flags: /Odspy
;	COMDAT ??_GCGraphicTexture@@MAEPAXI@Z
_TEXT	SEGMENT
_this$ = -4						; size = 4
___flags$ = 8						; size = 4
??_GCGraphicTexture@@MAEPAXI@Z PROC			; CGraphicTexture::`scalar deleting destructor', COMDAT
; _this$ = ecx
  00000	55		 push	 ebp
  00001	8b ec		 mov	 ebp, esp
  00003	51		 push	 ecx
  00004	89 4d fc	 mov	 DWORD PTR _this$[ebp], ecx
  00007	8b 4d fc	 mov	 ecx, DWORD PTR _this$[ebp]
  0000a	e8 00 00 00 00	 call	 ??1CGraphicTexture@@MAE@XZ ; CGraphicTexture::~CGraphicTexture
  0000f	8b 45 08	 mov	 eax, DWORD PTR ___flags$[ebp]
  00012	83 e0 01	 and	 eax, 1
  00015	74 0c		 je	 SHORT $LN2@scalar
  00017	6a 14		 push	 20			; 00000014H
  00019	ff 75 fc	 push	 DWORD PTR _this$[ebp]
  0001c	e8 00 00 00 00	 call	 ??3@YAXPAXI@Z		; operator delete
  00021	59		 pop	 ecx
  00022	59		 pop	 ecx
$LN2@scalar:
  00023	8b 45 fc	 mov	 eax, DWORD PTR _this$[ebp]
  00026	c9		 leave
  00027	c2 04 00	 ret	 4
??_GCGraphicTexture@@MAEPAXI@Z ENDP			; CGraphicTexture::`scalar deleting destructor'
_TEXT	ENDS
; Function compile flags: /Odspy
; File D:\Metin2 Server Files\mainline\SRC_2014\Metin2Client\EterLib\GrpTexture.cpp
;	COMDAT ?Initialize@CGraphicTexture@@IAEXXZ
_TEXT	SEGMENT
_this$ = -4						; size = 4
?Initialize@CGraphicTexture@@IAEXXZ PROC		; CGraphicTexture::Initialize, COMDAT
; _this$ = ecx

; 19   : {

  00000	55		 push	 ebp
  00001	8b ec		 mov	 ebp, esp
  00003	51		 push	 ecx
  00004	89 4d fc	 mov	 DWORD PTR _this$[ebp], ecx

; 20   : 	m_lpd3dTexture = NULL;

  00007	8b 45 fc	 mov	 eax, DWORD PTR _this$[ebp]
  0000a	83 60 10 00	 and	 DWORD PTR [eax+16], 0

; 21   : 	m_width = 0;

  0000e	8b 45 fc	 mov	 eax, DWORD PTR _this$[ebp]
  00011	83 60 08 00	 and	 DWORD PTR [eax+8], 0

; 22   : 	m_height = 0;

  00015	8b 45 fc	 mov	 eax, DWORD PTR _this$[ebp]
  00018	83 60 0c 00	 and	 DWORD PTR [eax+12], 0

; 23   : 	m_bEmpty = true;

  0001c	8b 45 fc	 mov	 eax, DWORD PTR _this$[ebp]
  0001f	c6 40 04 01	 mov	 BYTE PTR [eax+4], 1

; 24   : }

  00023	c9		 leave
  00024	c3		 ret	 0
?Initialize@CGraphicTexture@@IAEXXZ ENDP		; CGraphicTexture::Initialize
_TEXT	ENDS
; Function compile flags: /Odspy
; File D:\Metin2 Server Files\mainline\SRC_2014\Metin2Client\EterLib\GrpTexture.cpp
;	COMDAT ?Destroy@CGraphicTexture@@IAEXXZ
_TEXT	SEGMENT
_this$ = -4						; size = 4
?Destroy@CGraphicTexture@@IAEXXZ PROC			; CGraphicTexture::Destroy, COMDAT
; _this$ = ecx

; 12   : {

  00000	55		 push	 ebp
  00001	8b ec		 mov	 ebp, esp
  00003	51		 push	 ecx
  00004	89 4d fc	 mov	 DWORD PTR _this$[ebp], ecx

; 13   : 	DestroyDeviceObjects();

  00007	8b 4d fc	 mov	 ecx, DWORD PTR _this$[ebp]
  0000a	e8 00 00 00 00	 call	 ?DestroyDeviceObjects@CGraphicTexture@@QAEXXZ ; CGraphicTexture::DestroyDeviceObjects

; 14   : 
; 15   : 	Initialize();

  0000f	8b 4d fc	 mov	 ecx, DWORD PTR _this$[ebp]
  00012	e8 00 00 00 00	 call	 ?Initialize@CGraphicTexture@@IAEXXZ ; CGraphicTexture::Initialize

; 16   : }

  00017	c9		 leave
  00018	c3		 ret	 0
?Destroy@CGraphicTexture@@IAEXXZ ENDP			; CGraphicTexture::Destroy
_TEXT	ENDS
; Function compile flags: /Odspy
; File D:\Metin2 Server Files\mainline\SRC_2014\Metin2Client\EterLib\GrpTexture.cpp
;	COMDAT ??1CGraphicTexture@@MAE@XZ
_TEXT	SEGMENT
_this$ = -4						; size = 4
??1CGraphicTexture@@MAE@XZ PROC				; CGraphicTexture::~CGraphicTexture, COMDAT
; _this$ = ecx

; 58   : {

  00000	55		 push	 ebp
  00001	8b ec		 mov	 ebp, esp
  00003	51		 push	 ecx
  00004	89 4d fc	 mov	 DWORD PTR _this$[ebp], ecx
  00007	8b 45 fc	 mov	 eax, DWORD PTR _this$[ebp]
  0000a	c7 00 00 00 00
	00		 mov	 DWORD PTR [eax], OFFSET ??_7CGraphicTexture@@6B@

; 59   : }

  00010	8b 4d fc	 mov	 ecx, DWORD PTR _this$[ebp]
  00013	e8 00 00 00 00	 call	 ??1CGraphicBase@@UAE@XZ	; CGraphicBase::~CGraphicBase
  00018	c9		 leave
  00019	c3		 ret	 0
??1CGraphicTexture@@MAE@XZ ENDP				; CGraphicTexture::~CGraphicTexture
_TEXT	ENDS
; Function compile flags: /Odspy
; File D:\Metin2 Server Files\mainline\SRC_2014\Metin2Client\EterLib\GrpTexture.cpp
;	COMDAT ??0CGraphicTexture@@IAE@XZ
_TEXT	SEGMENT
_this$ = -16						; size = 4
__$EHRec$ = -12						; size = 12
??0CGraphicTexture@@IAE@XZ PROC				; CGraphicTexture::CGraphicTexture, COMDAT
; _this$ = ecx

; 53   : {

  00000	55		 push	 ebp
  00001	8b ec		 mov	 ebp, esp
  00003	6a ff		 push	 -1
  00005	68 00 00 00 00	 push	 __ehhandler$??0CGraphicTexture@@IAE@XZ
  0000a	64 a1 00 00 00
	00		 mov	 eax, DWORD PTR fs:0
  00010	50		 push	 eax
  00011	51		 push	 ecx
  00012	a1 00 00 00 00	 mov	 eax, DWORD PTR ___security_cookie
  00017	33 c5		 xor	 eax, ebp
  00019	50		 push	 eax
  0001a	8d 45 f4	 lea	 eax, DWORD PTR __$EHRec$[ebp]
  0001d	64 a3 00 00 00
	00		 mov	 DWORD PTR fs:0, eax
  00023	89 4d f0	 mov	 DWORD PTR _this$[ebp], ecx
  00026	8b 4d f0	 mov	 ecx, DWORD PTR _this$[ebp]
  00029	e8 00 00 00 00	 call	 ??0CGraphicBase@@QAE@XZ	; CGraphicBase::CGraphicBase
  0002e	83 65 fc 00	 and	 DWORD PTR __$EHRec$[ebp+8], 0
  00032	8b 45 f0	 mov	 eax, DWORD PTR _this$[ebp]
  00035	c7 00 00 00 00
	00		 mov	 DWORD PTR [eax], OFFSET ??_7CGraphicTexture@@6B@

; 54   : 	Initialize();

  0003b	8b 4d f0	 mov	 ecx, DWORD PTR _this$[ebp]
  0003e	e8 00 00 00 00	 call	 ?Initialize@CGraphicTexture@@IAEXXZ ; CGraphicTexture::Initialize

; 55   : }

  00043	83 4d fc ff	 or	 DWORD PTR __$EHRec$[ebp+8], -1
  00047	8b 45 f0	 mov	 eax, DWORD PTR _this$[ebp]
  0004a	8b 4d f4	 mov	 ecx, DWORD PTR __$EHRec$[ebp]
  0004d	64 89 0d 00 00
	00 00		 mov	 DWORD PTR fs:0, ecx
  00054	59		 pop	 ecx
  00055	c9		 leave
  00056	c3		 ret	 0
_TEXT	ENDS
;	COMDAT text$x
text$x	SEGMENT
__unwindfunclet$??0CGraphicTexture@@IAE@XZ$0:
  00000	8b 4d f0	 mov	 ecx, DWORD PTR _this$[ebp]
  00003	e9 00 00 00 00	 jmp	 ??1CGraphicBase@@UAE@XZ	; CGraphicBase::~CGraphicBase
  00008	cc		 int	 3
  00009	cc		 int	 3
  0000a	cc		 int	 3
  0000b	cc		 int	 3
  0000c	cc		 int	 3
__ehhandler$??0CGraphicTexture@@IAE@XZ:
  0000d	90		 npad	 1
  0000e	90		 npad	 1
  0000f	8b 54 24 08	 mov	 edx, DWORD PTR [esp+8]
  00013	8d 42 0c	 lea	 eax, DWORD PTR [edx+12]
  00016	8b 4a f8	 mov	 ecx, DWORD PTR [edx-8]
  00019	33 c8		 xor	 ecx, eax
  0001b	e8 00 00 00 00	 call	 @__security_check_cookie@4
  00020	b8 00 00 00 00	 mov	 eax, OFFSET __ehfuncinfo$??0CGraphicTexture@@IAE@XZ
  00025	e9 00 00 00 00	 jmp	 ___CxxFrameHandler3
text$x	ENDS
??0CGraphicTexture@@IAE@XZ ENDP				; CGraphicTexture::CGraphicTexture
; Function compile flags: /Odspy
; File D:\Metin2 Server Files\mainline\SRC_2014\Metin2Client\EterLib\GrpTexture.cpp
; File D:\Metin2 Server Files\mainline\SRC_2014\Metin2Client\eterBase\Stl.h
; File D:\Metin2 Server Files\mainline\SRC_2014\Metin2Client\EterLib\GrpTexture.cpp
;	COMDAT ?DestroyDeviceObjects@CGraphicTexture@@QAEXXZ
_TEXT	SEGMENT
_this$ = -8						; size = 4
_rpObject$ = -4						; size = 4
?DestroyDeviceObjects@CGraphicTexture@@QAEXXZ PROC	; CGraphicTexture::DestroyDeviceObjects, COMDAT
; _this$ = ecx

; 7    : {

  00000	55		 push	 ebp
  00001	8b ec		 mov	 ebp, esp
  00003	51		 push	 ecx
  00004	51		 push	 ecx
  00005	89 4d f8	 mov	 DWORD PTR _this$[ebp], ecx

; 8    : 	safe_release(m_lpd3dTexture);

  00008	8b 45 f8	 mov	 eax, DWORD PTR _this$[ebp]
  0000b	83 c0 10	 add	 eax, 16			; 00000010H
  0000e	89 45 fc	 mov	 DWORD PTR _rpObject$[ebp], eax
; File D:\Metin2 Server Files\mainline\SRC_2014\Metin2Client\eterBase\Stl.h

; 138  : 	if (!rpObject)

  00011	8b 45 fc	 mov	 eax, DWORD PTR _rpObject$[ebp]
  00014	83 38 00	 cmp	 DWORD PTR [eax], 0
  00017	75 02		 jne	 SHORT $LN4@DestroyDev

; 139  : 		return;

  00019	eb 15		 jmp	 SHORT $LN1@DestroyDev
$LN4@DestroyDev:

; 140  : 	
; 141  : 	rpObject->Release();

  0001b	8b 45 fc	 mov	 eax, DWORD PTR _rpObject$[ebp]
  0001e	8b 00		 mov	 eax, DWORD PTR [eax]
  00020	8b 4d fc	 mov	 ecx, DWORD PTR _rpObject$[ebp]
  00023	8b 00		 mov	 eax, DWORD PTR [eax]
  00025	ff 31		 push	 DWORD PTR [ecx]
  00027	ff 50 08	 call	 DWORD PTR [eax+8]

; 142  : 	rpObject = NULL;

  0002a	8b 45 fc	 mov	 eax, DWORD PTR _rpObject$[ebp]
  0002d	83 20 00	 and	 DWORD PTR [eax], 0
$LN1@DestroyDev:
; File D:\Metin2 Server Files\mainline\SRC_2014\Metin2Client\EterLib\GrpTexture.cpp

; 9    : }

  00030	c9		 leave
  00031	c3		 ret	 0
?DestroyDeviceObjects@CGraphicTexture@@QAEXXZ ENDP	; CGraphicTexture::DestroyDeviceObjects
_TEXT	ENDS
; Function compile flags: /Odspy
; File D:\Metin2 Server Files\mainline\SRC_2014\Metin2Client\EterLib\GrpTexture.cpp
;	COMDAT ?GetD3DTexture@CGraphicTexture@@QBEPAUIDirect3DTexture8@@XZ
_TEXT	SEGMENT
_this$ = -4						; size = 4
?GetD3DTexture@CGraphicTexture@@QBEPAUIDirect3DTexture8@@XZ PROC ; CGraphicTexture::GetD3DTexture, COMDAT
; _this$ = ecx

; 38   : {

  00000	55		 push	 ebp
  00001	8b ec		 mov	 ebp, esp
  00003	51		 push	 ecx
  00004	89 4d fc	 mov	 DWORD PTR _this$[ebp], ecx

; 39   : 	return m_lpd3dTexture;

  00007	8b 45 fc	 mov	 eax, DWORD PTR _this$[ebp]
  0000a	8b 40 10	 mov	 eax, DWORD PTR [eax+16]

; 40   : }

  0000d	c9		 leave
  0000e	c3		 ret	 0
?GetD3DTexture@CGraphicTexture@@QBEPAUIDirect3DTexture8@@XZ ENDP ; CGraphicTexture::GetD3DTexture
_TEXT	ENDS
; Function compile flags: /Odspy
; File D:\Metin2 Server Files\mainline\SRC_2014\Metin2Client\EterLib\GrpTexture.cpp
;	COMDAT ?SetTextureStage@CGraphicTexture@@QBEXH@Z
_TEXT	SEGMENT
_this$ = -4						; size = 4
_stage$ = 8						; size = 4
?SetTextureStage@CGraphicTexture@@QBEXH@Z PROC		; CGraphicTexture::SetTextureStage, COMDAT
; _this$ = ecx

; 32   : {

  00000	55		 push	 ebp
  00001	8b ec		 mov	 ebp, esp
  00003	51		 push	 ecx
  00004	89 4d fc	 mov	 DWORD PTR _this$[ebp], ecx

; 33   : 	assert(ms_lpd3dDevice != NULL);
; 34   : 	STATEMANAGER.SetTexture(stage, m_lpd3dTexture);	

  00007	8b 45 fc	 mov	 eax, DWORD PTR _this$[ebp]
  0000a	ff 70 10	 push	 DWORD PTR [eax+16]
  0000d	ff 75 08	 push	 DWORD PTR _stage$[ebp]
  00010	8b 0d 00 00 00
	00		 mov	 ecx, DWORD PTR ?ms_singleton@?$CSingleton@VCStateManager@@@@0PAVCStateManager@@A ; CSingleton<CStateManager>::ms_singleton
  00016	e8 00 00 00 00	 call	 ?SetTexture@CStateManager@@QAEXKPAUIDirect3DBaseTexture8@@@Z ; CStateManager::SetTexture

; 35   : }

  0001b	c9		 leave
  0001c	c2 04 00	 ret	 4
?SetTextureStage@CGraphicTexture@@QBEXH@Z ENDP		; CGraphicTexture::SetTextureStage
_TEXT	ENDS
; Function compile flags: /Odspy
; File D:\Metin2 Server Files\mainline\SRC_2014\Metin2Client\EterLib\GrpTexture.cpp
;	COMDAT ?GetHeight@CGraphicTexture@@QBEHXZ
_TEXT	SEGMENT
_this$ = -4						; size = 4
?GetHeight@CGraphicTexture@@QBEHXZ PROC			; CGraphicTexture::GetHeight, COMDAT
; _this$ = ecx

; 48   : {

  00000	55		 push	 ebp
  00001	8b ec		 mov	 ebp, esp
  00003	51		 push	 ecx
  00004	89 4d fc	 mov	 DWORD PTR _this$[ebp], ecx

; 49   : 	return m_height;

  00007	8b 45 fc	 mov	 eax, DWORD PTR _this$[ebp]
  0000a	8b 40 0c	 mov	 eax, DWORD PTR [eax+12]

; 50   : }

  0000d	c9		 leave
  0000e	c3		 ret	 0
?GetHeight@CGraphicTexture@@QBEHXZ ENDP			; CGraphicTexture::GetHeight
_TEXT	ENDS
; Function compile flags: /Odspy
; File D:\Metin2 Server Files\mainline\SRC_2014\Metin2Client\EterLib\GrpTexture.cpp
;	COMDAT ?GetWidth@CGraphicTexture@@QBEHXZ
_TEXT	SEGMENT
_this$ = -4						; size = 4
?GetWidth@CGraphicTexture@@QBEHXZ PROC			; CGraphicTexture::GetWidth, COMDAT
; _this$ = ecx

; 43   : {

  00000	55		 push	 ebp
  00001	8b ec		 mov	 ebp, esp
  00003	51		 push	 ecx
  00004	89 4d fc	 mov	 DWORD PTR _this$[ebp], ecx

; 44   : 	return m_width;

  00007	8b 45 fc	 mov	 eax, DWORD PTR _this$[ebp]
  0000a	8b 40 08	 mov	 eax, DWORD PTR [eax+8]

; 45   : }

  0000d	c9		 leave
  0000e	c3		 ret	 0
?GetWidth@CGraphicTexture@@QBEHXZ ENDP			; CGraphicTexture::GetWidth
_TEXT	ENDS
; Function compile flags: /Odspy
; File D:\Metin2 Server Files\mainline\SRC_2014\Metin2Client\EterLib\GrpTexture.cpp
;	COMDAT ?IsEmpty@CGraphicTexture@@UBE_NXZ
_TEXT	SEGMENT
_this$ = -4						; size = 4
?IsEmpty@CGraphicTexture@@UBE_NXZ PROC			; CGraphicTexture::IsEmpty, COMDAT
; _this$ = ecx

; 27   : {

  00000	55		 push	 ebp
  00001	8b ec		 mov	 ebp, esp
  00003	51		 push	 ecx
  00004	89 4d fc	 mov	 DWORD PTR _this$[ebp], ecx

; 28   : 	return m_bEmpty;

  00007	8b 45 fc	 mov	 eax, DWORD PTR _this$[ebp]
  0000a	8a 40 04	 mov	 al, BYTE PTR [eax+4]

; 29   : }

  0000d	c9		 leave
  0000e	c3		 ret	 0
?IsEmpty@CGraphicTexture@@UBE_NXZ ENDP			; CGraphicTexture::IsEmpty
_TEXT	ENDS
; Function compile flags: /Odspy
;	COMDAT ??_H@YGXPAXIIP6EPAX0@Z@Z
_TEXT	SEGMENT
tv66 = -4						; size = 4
___t$ = 8						; size = 4
___s$ = 12						; size = 4
___n$ = 16						; size = 4
___f$ = 20						; size = 4
??_H@YGXPAXIIP6EPAX0@Z@Z PROC				; `vector constructor iterator', COMDAT
  00000	55		 push	 ebp
  00001	8b ec		 mov	 ebp, esp
  00003	51		 push	 ecx
$LN2@vector:
  00004	8b 45 10	 mov	 eax, DWORD PTR ___n$[ebp]
  00007	89 45 fc	 mov	 DWORD PTR tv66[ebp], eax
  0000a	8b 45 10	 mov	 eax, DWORD PTR ___n$[ebp]
  0000d	48		 dec	 eax
  0000e	89 45 10	 mov	 DWORD PTR ___n$[ebp], eax
  00011	83 7d fc 00	 cmp	 DWORD PTR tv66[ebp], 0
  00015	76 11		 jbe	 SHORT $LN1@vector
  00017	8b 4d 08	 mov	 ecx, DWORD PTR ___t$[ebp]
  0001a	ff 55 14	 call	 DWORD PTR ___f$[ebp]
  0001d	8b 45 08	 mov	 eax, DWORD PTR ___t$[ebp]
  00020	03 45 0c	 add	 eax, DWORD PTR ___s$[ebp]
  00023	89 45 08	 mov	 DWORD PTR ___t$[ebp], eax
  00026	eb dc		 jmp	 SHORT $LN2@vector
$LN1@vector:
  00028	c9		 leave
  00029	c2 10 00	 ret	 16			; 00000010H
??_H@YGXPAXIIP6EPAX0@Z@Z ENDP				; `vector constructor iterator'
_TEXT	ENDS
END
