; Listing generated by Microsoft (R) Optimizing Compiler Version 19.28.29335.0 

	TITLE	D:\Metin2 Server Files\mainline\SRC_2014\Metin2Client\EterLib\GrpVertexBufferStatic.cpp
	.686P
	.XMM
	include listing.inc
	.model	flat

INCLUDELIB LIBCMT
INCLUDELIB OLDNAMES

PUBLIC	??0CStaticVertexBuffer@@QAE@XZ			; CStaticVertexBuffer::CStaticVertexBuffer
PUBLIC	??1CStaticVertexBuffer@@UAE@XZ			; CStaticVertexBuffer::~CStaticVertexBuffer
PUBLIC	?Create@CStaticVertexBuffer@@QAE_NHK_N@Z	; CStaticVertexBuffer::Create
PUBLIC	??_GCStaticVertexBuffer@@UAEPAXI@Z		; CStaticVertexBuffer::`scalar deleting destructor'
PUBLIC	??_7CStaticVertexBuffer@@6B@			; CStaticVertexBuffer::`vftable'
PUBLIC	??_R4CStaticVertexBuffer@@6B@			; CStaticVertexBuffer::`RTTI Complete Object Locator'
PUBLIC	??_R0?AVCStaticVertexBuffer@@@8			; CStaticVertexBuffer `RTTI Type Descriptor'
PUBLIC	??_R3CStaticVertexBuffer@@8			; CStaticVertexBuffer::`RTTI Class Hierarchy Descriptor'
PUBLIC	??_R2CStaticVertexBuffer@@8			; CStaticVertexBuffer::`RTTI Base Class Array'
PUBLIC	??_R1A@?0A@EA@CStaticVertexBuffer@@8		; CStaticVertexBuffer::`RTTI Base Class Descriptor at (0,-1,0,64)'
PUBLIC	??_R1A@?0A@EA@CGraphicVertexBuffer@@8		; CGraphicVertexBuffer::`RTTI Base Class Descriptor at (0,-1,0,64)'
PUBLIC	??_R0?AVCGraphicVertexBuffer@@@8		; CGraphicVertexBuffer `RTTI Type Descriptor'
PUBLIC	??_R3CGraphicVertexBuffer@@8			; CGraphicVertexBuffer::`RTTI Class Hierarchy Descriptor'
PUBLIC	??_R2CGraphicVertexBuffer@@8			; CGraphicVertexBuffer::`RTTI Base Class Array'
PUBLIC	??_R1A@?0A@EA@CGraphicBase@@8			; CGraphicBase::`RTTI Base Class Descriptor at (0,-1,0,64)'
PUBLIC	??_R0?AVCGraphicBase@@@8			; CGraphicBase `RTTI Type Descriptor'
PUBLIC	??_R3CGraphicBase@@8				; CGraphicBase::`RTTI Class Hierarchy Descriptor'
PUBLIC	??_R2CGraphicBase@@8				; CGraphicBase::`RTTI Base Class Array'
EXTRN	??3@YAXPAXI@Z:PROC				; operator delete
EXTRN	??0CGraphicVertexBuffer@@QAE@XZ:PROC		; CGraphicVertexBuffer::CGraphicVertexBuffer
EXTRN	??1CGraphicVertexBuffer@@UAE@XZ:PROC		; CGraphicVertexBuffer::~CGraphicVertexBuffer
EXTRN	?Create@CGraphicVertexBuffer@@UAE_NHKKW4_D3DPOOL@@@Z:PROC ; CGraphicVertexBuffer::Create
EXTRN	?Lock@CGraphicVertexBuffer@@UAE_NPAPAX@Z:PROC	; CGraphicVertexBuffer::Lock
EXTRN	??_ECStaticVertexBuffer@@UAEPAXI@Z:PROC		; CStaticVertexBuffer::`vector deleting destructor'
EXTRN	??_7type_info@@6B@:QWORD			; type_info::`vftable'
;	COMDAT ??_R2CGraphicBase@@8
rdata$r	SEGMENT
??_R2CGraphicBase@@8 DD FLAT:??_R1A@?0A@EA@CGraphicBase@@8 ; CGraphicBase::`RTTI Base Class Array'
rdata$r	ENDS
;	COMDAT ??_R3CGraphicBase@@8
rdata$r	SEGMENT
??_R3CGraphicBase@@8 DD 00H				; CGraphicBase::`RTTI Class Hierarchy Descriptor'
	DD	00H
	DD	01H
	DD	FLAT:??_R2CGraphicBase@@8
rdata$r	ENDS
;	COMDAT ??_R0?AVCGraphicBase@@@8
data$rs	SEGMENT
??_R0?AVCGraphicBase@@@8 DD FLAT:??_7type_info@@6B@	; CGraphicBase `RTTI Type Descriptor'
	DD	00H
	DB	'.?AVCGraphicBase@@', 00H
data$rs	ENDS
;	COMDAT ??_R1A@?0A@EA@CGraphicBase@@8
rdata$r	SEGMENT
??_R1A@?0A@EA@CGraphicBase@@8 DD FLAT:??_R0?AVCGraphicBase@@@8 ; CGraphicBase::`RTTI Base Class Descriptor at (0,-1,0,64)'
	DD	00H
	DD	00H
	DD	0ffffffffH
	DD	00H
	DD	040H
	DD	FLAT:??_R3CGraphicBase@@8
rdata$r	ENDS
;	COMDAT ??_R2CGraphicVertexBuffer@@8
rdata$r	SEGMENT
??_R2CGraphicVertexBuffer@@8 DD FLAT:??_R1A@?0A@EA@CGraphicVertexBuffer@@8 ; CGraphicVertexBuffer::`RTTI Base Class Array'
	DD	FLAT:??_R1A@?0A@EA@CGraphicBase@@8
rdata$r	ENDS
;	COMDAT ??_R3CGraphicVertexBuffer@@8
rdata$r	SEGMENT
??_R3CGraphicVertexBuffer@@8 DD 00H			; CGraphicVertexBuffer::`RTTI Class Hierarchy Descriptor'
	DD	00H
	DD	02H
	DD	FLAT:??_R2CGraphicVertexBuffer@@8
rdata$r	ENDS
;	COMDAT ??_R0?AVCGraphicVertexBuffer@@@8
data$rs	SEGMENT
??_R0?AVCGraphicVertexBuffer@@@8 DD FLAT:??_7type_info@@6B@ ; CGraphicVertexBuffer `RTTI Type Descriptor'
	DD	00H
	DB	'.?AVCGraphicVertexBuffer@@', 00H
data$rs	ENDS
;	COMDAT ??_R1A@?0A@EA@CGraphicVertexBuffer@@8
rdata$r	SEGMENT
??_R1A@?0A@EA@CGraphicVertexBuffer@@8 DD FLAT:??_R0?AVCGraphicVertexBuffer@@@8 ; CGraphicVertexBuffer::`RTTI Base Class Descriptor at (0,-1,0,64)'
	DD	01H
	DD	00H
	DD	0ffffffffH
	DD	00H
	DD	040H
	DD	FLAT:??_R3CGraphicVertexBuffer@@8
rdata$r	ENDS
;	COMDAT ??_R1A@?0A@EA@CStaticVertexBuffer@@8
rdata$r	SEGMENT
??_R1A@?0A@EA@CStaticVertexBuffer@@8 DD FLAT:??_R0?AVCStaticVertexBuffer@@@8 ; CStaticVertexBuffer::`RTTI Base Class Descriptor at (0,-1,0,64)'
	DD	02H
	DD	00H
	DD	0ffffffffH
	DD	00H
	DD	040H
	DD	FLAT:??_R3CStaticVertexBuffer@@8
rdata$r	ENDS
;	COMDAT ??_R2CStaticVertexBuffer@@8
rdata$r	SEGMENT
??_R2CStaticVertexBuffer@@8 DD FLAT:??_R1A@?0A@EA@CStaticVertexBuffer@@8 ; CStaticVertexBuffer::`RTTI Base Class Array'
	DD	FLAT:??_R1A@?0A@EA@CGraphicVertexBuffer@@8
	DD	FLAT:??_R1A@?0A@EA@CGraphicBase@@8
rdata$r	ENDS
;	COMDAT ??_R3CStaticVertexBuffer@@8
rdata$r	SEGMENT
??_R3CStaticVertexBuffer@@8 DD 00H			; CStaticVertexBuffer::`RTTI Class Hierarchy Descriptor'
	DD	00H
	DD	03H
	DD	FLAT:??_R2CStaticVertexBuffer@@8
rdata$r	ENDS
;	COMDAT ??_R0?AVCStaticVertexBuffer@@@8
data$rs	SEGMENT
??_R0?AVCStaticVertexBuffer@@@8 DD FLAT:??_7type_info@@6B@ ; CStaticVertexBuffer `RTTI Type Descriptor'
	DD	00H
	DB	'.?AVCStaticVertexBuffer@@', 00H
data$rs	ENDS
;	COMDAT ??_R4CStaticVertexBuffer@@6B@
rdata$r	SEGMENT
??_R4CStaticVertexBuffer@@6B@ DD 00H			; CStaticVertexBuffer::`RTTI Complete Object Locator'
	DD	00H
	DD	00H
	DD	FLAT:??_R0?AVCStaticVertexBuffer@@@8
	DD	FLAT:??_R3CStaticVertexBuffer@@8
rdata$r	ENDS
;	COMDAT ??_7CStaticVertexBuffer@@6B@
CONST	SEGMENT
??_7CStaticVertexBuffer@@6B@ DD FLAT:??_R4CStaticVertexBuffer@@6B@ ; CStaticVertexBuffer::`vftable'
	DD	FLAT:??_ECStaticVertexBuffer@@UAEPAXI@Z
	DD	FLAT:?Create@CGraphicVertexBuffer@@UAE_NHKKW4_D3DPOOL@@@Z
	DD	FLAT:?Lock@CGraphicVertexBuffer@@UAE_NPAPAX@Z
CONST	ENDS
; Function compile flags: /Odspy
;	COMDAT ??_GCStaticVertexBuffer@@UAEPAXI@Z
_TEXT	SEGMENT
_this$ = -4						; size = 4
___flags$ = 8						; size = 4
??_GCStaticVertexBuffer@@UAEPAXI@Z PROC			; CStaticVertexBuffer::`scalar deleting destructor', COMDAT
; _this$ = ecx
  00000	55		 push	 ebp
  00001	8b ec		 mov	 ebp, esp
  00003	51		 push	 ecx
  00004	89 4d fc	 mov	 DWORD PTR _this$[ebp], ecx
  00007	8b 4d fc	 mov	 ecx, DWORD PTR _this$[ebp]
  0000a	e8 00 00 00 00	 call	 ??1CStaticVertexBuffer@@UAE@XZ ; CStaticVertexBuffer::~CStaticVertexBuffer
  0000f	8b 45 08	 mov	 eax, DWORD PTR ___flags$[ebp]
  00012	83 e0 01	 and	 eax, 1
  00015	74 0c		 je	 SHORT $LN2@scalar
  00017	6a 20		 push	 32			; 00000020H
  00019	ff 75 fc	 push	 DWORD PTR _this$[ebp]
  0001c	e8 00 00 00 00	 call	 ??3@YAXPAXI@Z		; operator delete
  00021	59		 pop	 ecx
  00022	59		 pop	 ecx
$LN2@scalar:
  00023	8b 45 fc	 mov	 eax, DWORD PTR _this$[ebp]
  00026	c9		 leave
  00027	c2 04 00	 ret	 4
??_GCStaticVertexBuffer@@UAEPAXI@Z ENDP			; CStaticVertexBuffer::`scalar deleting destructor'
_TEXT	ENDS
; Function compile flags: /Odspy
; File D:\Metin2 Server Files\mainline\SRC_2014\Metin2Client\EterLib\GrpVertexBufferStatic.cpp
;	COMDAT ?Create@CStaticVertexBuffer@@QAE_NHK_N@Z
_TEXT	SEGMENT
_this$ = -4						; size = 4
_vtxCount$ = 8						; size = 4
_fvf$ = 12						; size = 4
___formal$ = 16						; size = 1
?Create@CStaticVertexBuffer@@QAE_NHK_N@Z PROC		; CStaticVertexBuffer::Create, COMDAT
; _this$ = ecx

; 5    : {

  00000	55		 push	 ebp
  00001	8b ec		 mov	 ebp, esp
  00003	51		 push	 ecx
  00004	89 4d fc	 mov	 DWORD PTR _this$[ebp], ecx

; 6    : 	// 무조건 MANAGED 모드
; 7    : 	return CGraphicVertexBuffer::Create(vtxCount, fvf, D3DUSAGE_WRITEONLY, D3DPOOL_MANAGED);

  00007	6a 01		 push	 1
  00009	6a 08		 push	 8
  0000b	ff 75 0c	 push	 DWORD PTR _fvf$[ebp]
  0000e	ff 75 08	 push	 DWORD PTR _vtxCount$[ebp]
  00011	8b 4d fc	 mov	 ecx, DWORD PTR _this$[ebp]
  00014	e8 00 00 00 00	 call	 ?Create@CGraphicVertexBuffer@@UAE_NHKKW4_D3DPOOL@@@Z ; CGraphicVertexBuffer::Create

; 8    : }

  00019	c9		 leave
  0001a	c2 0c 00	 ret	 12			; 0000000cH
?Create@CStaticVertexBuffer@@QAE_NHK_N@Z ENDP		; CStaticVertexBuffer::Create
_TEXT	ENDS
; Function compile flags: /Odspy
; File D:\Metin2 Server Files\mainline\SRC_2014\Metin2Client\EterLib\GrpVertexBufferStatic.cpp
;	COMDAT ??1CStaticVertexBuffer@@UAE@XZ
_TEXT	SEGMENT
_this$ = -4						; size = 4
??1CStaticVertexBuffer@@UAE@XZ PROC			; CStaticVertexBuffer::~CStaticVertexBuffer, COMDAT
; _this$ = ecx

; 15   : {

  00000	55		 push	 ebp
  00001	8b ec		 mov	 ebp, esp
  00003	51		 push	 ecx
  00004	89 4d fc	 mov	 DWORD PTR _this$[ebp], ecx
  00007	8b 45 fc	 mov	 eax, DWORD PTR _this$[ebp]
  0000a	c7 00 00 00 00
	00		 mov	 DWORD PTR [eax], OFFSET ??_7CStaticVertexBuffer@@6B@

; 16   : }

  00010	8b 4d fc	 mov	 ecx, DWORD PTR _this$[ebp]
  00013	e8 00 00 00 00	 call	 ??1CGraphicVertexBuffer@@UAE@XZ ; CGraphicVertexBuffer::~CGraphicVertexBuffer
  00018	c9		 leave
  00019	c3		 ret	 0
??1CStaticVertexBuffer@@UAE@XZ ENDP			; CStaticVertexBuffer::~CStaticVertexBuffer
_TEXT	ENDS
; Function compile flags: /Odspy
; File D:\Metin2 Server Files\mainline\SRC_2014\Metin2Client\EterLib\GrpVertexBufferStatic.cpp
;	COMDAT ??0CStaticVertexBuffer@@QAE@XZ
_TEXT	SEGMENT
_this$ = -4						; size = 4
??0CStaticVertexBuffer@@QAE@XZ PROC			; CStaticVertexBuffer::CStaticVertexBuffer, COMDAT
; _this$ = ecx

; 11   : {

  00000	55		 push	 ebp
  00001	8b ec		 mov	 ebp, esp
  00003	51		 push	 ecx
  00004	89 4d fc	 mov	 DWORD PTR _this$[ebp], ecx
  00007	8b 4d fc	 mov	 ecx, DWORD PTR _this$[ebp]
  0000a	e8 00 00 00 00	 call	 ??0CGraphicVertexBuffer@@QAE@XZ ; CGraphicVertexBuffer::CGraphicVertexBuffer
  0000f	8b 45 fc	 mov	 eax, DWORD PTR _this$[ebp]
  00012	c7 00 00 00 00
	00		 mov	 DWORD PTR [eax], OFFSET ??_7CStaticVertexBuffer@@6B@

; 12   : }

  00018	8b 45 fc	 mov	 eax, DWORD PTR _this$[ebp]
  0001b	c9		 leave
  0001c	c3		 ret	 0
??0CStaticVertexBuffer@@QAE@XZ ENDP			; CStaticVertexBuffer::CStaticVertexBuffer
_TEXT	ENDS
END
