; Listing generated by Microsoft (R) Optimizing Compiler Version 19.28.29335.0 

	TITLE	D:\Metin2 Server Files\mainline\SRC_2014\Metin2Client\EterLib\IME.cpp
	.686P
	.XMM
	include listing.inc
	.model	flat

INCLUDELIB LIBCMT
INCLUDELIB OLDNAMES

PUBLIC	?_ImmLockIMC@CIME@@1P6GPAU__MIDL___MIDL_itf_dimm_0000_0012@@PAUHIMC__@@@ZA ; CIME::_ImmLockIMC
PUBLIC	?_ImmUnlockIMC@CIME@@1P6GHPAUHIMC__@@@ZA	; CIME::_ImmUnlockIMC
PUBLIC	?_ImmLockIMCC@CIME@@1P6GPAXPAUHIMCC__@@@ZA	; CIME::_ImmLockIMCC
PUBLIC	?_ImmUnlockIMCC@CIME@@1P6GHPAUHIMCC__@@@ZA	; CIME::_ImmUnlockIMCC
PUBLIC	?_GetReadingString@CIME@@1P6GIPAUHIMC__@@IPA_WPAH2PAI@ZA ; CIME::_GetReadingString
PUBLIC	?_ShowReadingWindow@CIME@@1P6GHPAUHIMC__@@H@ZA	; CIME::_ShowReadingWindow
PUBLIC	?ms_bInitialized@CIME@@2_NA			; CIME::ms_bInitialized
PUBLIC	?ms_bDisableIMECompletely@CIME@@2_NA		; CIME::ms_bDisableIMECompletely
PUBLIC	?ms_bUILessMode@CIME@@2_NA			; CIME::ms_bUILessMode
PUBLIC	?ms_bImeEnabled@CIME@@2_NA			; CIME::ms_bImeEnabled
PUBLIC	?ms_bCaptureInput@CIME@@2_NA			; CIME::ms_bCaptureInput
PUBLIC	?ms_bChineseIME@CIME@@2_NA			; CIME::ms_bChineseIME
PUBLIC	?ms_bUseIMMCandidate@CIME@@2_NA			; CIME::ms_bUseIMMCandidate
PUBLIC	?ms_hWnd@CIME@@2PAUHWND__@@A			; CIME::ms_hWnd
PUBLIC	?ms_hklCurrent@CIME@@2PAUHKL__@@A		; CIME::ms_hklCurrent
PUBLIC	?ms_szKeyboardLayout@CIME@@2PADA		; CIME::ms_szKeyboardLayout
PUBLIC	?ms_stOSVI@CIME@@2U_OSVERSIONINFOA@@A		; CIME::ms_stOSVI
PUBLIC	?ms_hImm32Dll@CIME@@2PAUHINSTANCE__@@A		; CIME::ms_hImm32Dll
PUBLIC	?ms_hCurrentImeDll@CIME@@2PAUHINSTANCE__@@A	; CIME::ms_hCurrentImeDll
PUBLIC	?ms_dwImeState@CIME@@2KA			; CIME::ms_dwImeState
PUBLIC	?ms_adwId@CIME@@2PAKA				; CIME::ms_adwId
PUBLIC	?ms_dwIMELevel@CIME@@2KA			; CIME::ms_dwIMELevel
PUBLIC	?ms_dwIMELevelSaved@CIME@@2KA			; CIME::ms_dwIMELevelSaved
PUBLIC	?ms_bCandidateList@CIME@@2_NA			; CIME::ms_bCandidateList
PUBLIC	?ms_dwCandidateCount@CIME@@2KA			; CIME::ms_dwCandidateCount
PUBLIC	?ms_bVerticalCandidate@CIME@@2_NA		; CIME::ms_bVerticalCandidate
PUBLIC	?ms_iCandListIndexBase@CIME@@2HA		; CIME::ms_iCandListIndexBase
PUBLIC	?ms_wszCandidate@CIME@@2PAY0BAA@_WA		; CIME::ms_wszCandidate
PUBLIC	?ms_dwCandidateSelection@CIME@@2KA		; CIME::ms_dwCandidateSelection
PUBLIC	?ms_dwCandidatePageSize@CIME@@2KA		; CIME::ms_dwCandidatePageSize
PUBLIC	?ms_bReadingInformation@CIME@@2_NA		; CIME::ms_bReadingInformation
PUBLIC	?ms_iReadingError@CIME@@2HA			; CIME::ms_iReadingError
PUBLIC	?ms_bHorizontalReading@CIME@@2_NA		; CIME::ms_bHorizontalReading
PUBLIC	?ms_wszCurrentIndicator@CIME@@2PA_WA		; CIME::ms_wszCurrentIndicator
PUBLIC	?ms_pEvent@CIME@@2PAVIIMEEventSink@@A		; CIME::ms_pEvent
PUBLIC	?m_wText@CIME@@2PA_WA				; CIME::m_wText
PUBLIC	?ms_compLen@CIME@@2HA				; CIME::ms_compLen
PUBLIC	?ms_curpos@CIME@@2HA				; CIME::ms_curpos
PUBLIC	?ms_lastpos@CIME@@2HA				; CIME::ms_lastpos
PUBLIC	?ms_ulbegin@CIME@@2HA				; CIME::ms_ulbegin
PUBLIC	?ms_ulend@CIME@@2HA				; CIME::ms_ulend
PUBLIC	?ms_uOutputCodePage@CIME@@2IA			; CIME::ms_uOutputCodePage
PUBLIC	?ms_uInputCodePage@CIME@@2IA			; CIME::ms_uInputCodePage
PUBLIC	?s_aszIndicator@@3PAY02_WA			; s_aszIndicator
PUBLIC	?gs_codePage@@3KA				; gs_codePage
PUBLIC	?m_tm@CTsfUiLessMode@@1PAUITfThreadMgrEx@@A	; CTsfUiLessMode::m_tm
PUBLIC	?m_dwUIElementSinkCookie@CTsfUiLessMode@@1KA	; CTsfUiLessMode::m_dwUIElementSinkCookie
PUBLIC	?m_dwAlpnSinkCookie@CTsfUiLessMode@@1KA		; CTsfUiLessMode::m_dwAlpnSinkCookie
PUBLIC	?m_dwOpenModeSinkCookie@CTsfUiLessMode@@1KA	; CTsfUiLessMode::m_dwOpenModeSinkCookie
PUBLIC	?m_dwConvModeSinkCookie@CTsfUiLessMode@@1KA	; CTsfUiLessMode::m_dwConvModeSinkCookie
PUBLIC	?m_TsfSink@CTsfUiLessMode@@1PAVCUIElementSink@1@A ; CTsfUiLessMode::m_TsfSink
PUBLIC	?m_nCandidateRefCount@CTsfUiLessMode@@1HA	; CTsfUiLessMode::m_nCandidateRefCount
_BSS	SEGMENT
?_ImmLockIMC@CIME@@1P6GPAU__MIDL___MIDL_itf_dimm_0000_0012@@PAUHIMC__@@@ZA DD 01H DUP (?) ; CIME::_ImmLockIMC
?_ImmUnlockIMC@CIME@@1P6GHPAUHIMC__@@@ZA DD 01H DUP (?)	; CIME::_ImmUnlockIMC
?_ImmLockIMCC@CIME@@1P6GPAXPAUHIMCC__@@@ZA DD 01H DUP (?) ; CIME::_ImmLockIMCC
?_ImmUnlockIMCC@CIME@@1P6GHPAUHIMCC__@@@ZA DD 01H DUP (?) ; CIME::_ImmUnlockIMCC
?_GetReadingString@CIME@@1P6GIPAUHIMC__@@IPA_WPAH2PAI@ZA DD 01H DUP (?) ; CIME::_GetReadingString
?_ShowReadingWindow@CIME@@1P6GHPAUHIMC__@@H@ZA DD 01H DUP (?) ; CIME::_ShowReadingWindow
?ms_bInitialized@CIME@@2_NA DB 01H DUP (?)		; CIME::ms_bInitialized
	ALIGN	4

?ms_bDisableIMECompletely@CIME@@2_NA DB 01H DUP (?)	; CIME::ms_bDisableIMECompletely
	ALIGN	4

?ms_bUILessMode@CIME@@2_NA DB 01H DUP (?)		; CIME::ms_bUILessMode
	ALIGN	4

?ms_bImeEnabled@CIME@@2_NA DB 01H DUP (?)		; CIME::ms_bImeEnabled
	ALIGN	4

?ms_bCaptureInput@CIME@@2_NA DB 01H DUP (?)		; CIME::ms_bCaptureInput
	ALIGN	4

?ms_bChineseIME@CIME@@2_NA DB 01H DUP (?)		; CIME::ms_bChineseIME
	ALIGN	4

?ms_bUseIMMCandidate@CIME@@2_NA DB 01H DUP (?)		; CIME::ms_bUseIMMCandidate
	ALIGN	4

?ms_hWnd@CIME@@2PAUHWND__@@A DD 01H DUP (?)		; CIME::ms_hWnd
?ms_hklCurrent@CIME@@2PAUHKL__@@A DD 01H DUP (?)	; CIME::ms_hklCurrent
?ms_szKeyboardLayout@CIME@@2PADA DB 0aH DUP (?)		; CIME::ms_szKeyboardLayout
	ALIGN	4

?ms_stOSVI@CIME@@2U_OSVERSIONINFOA@@A DB 094H DUP (?)	; CIME::ms_stOSVI
?ms_hImm32Dll@CIME@@2PAUHINSTANCE__@@A DD 01H DUP (?)	; CIME::ms_hImm32Dll
?ms_hCurrentImeDll@CIME@@2PAUHINSTANCE__@@A DD 01H DUP (?) ; CIME::ms_hCurrentImeDll
?ms_dwImeState@CIME@@2KA DD 01H DUP (?)			; CIME::ms_dwImeState
?ms_adwId@CIME@@2PAKA DD 02H DUP (?)			; CIME::ms_adwId
?ms_dwIMELevel@CIME@@2KA DD 01H DUP (?)			; CIME::ms_dwIMELevel
?ms_dwIMELevelSaved@CIME@@2KA DD 01H DUP (?)		; CIME::ms_dwIMELevelSaved
?ms_bCandidateList@CIME@@2_NA DB 01H DUP (?)		; CIME::ms_bCandidateList
	ALIGN	4

?ms_dwCandidateCount@CIME@@2KA DD 01H DUP (?)		; CIME::ms_dwCandidateCount
?ms_bVerticalCandidate@CIME@@2_NA DB 01H DUP (?)	; CIME::ms_bVerticalCandidate
	ALIGN	4

?ms_iCandListIndexBase@CIME@@2HA DD 01H DUP (?)		; CIME::ms_iCandListIndexBase
?ms_wszCandidate@CIME@@2PAY0BAA@_WA DW 0a00H DUP (?)	; CIME::ms_wszCandidate
?ms_dwCandidateSelection@CIME@@2KA DD 01H DUP (?)	; CIME::ms_dwCandidateSelection
?ms_dwCandidatePageSize@CIME@@2KA DD 01H DUP (?)	; CIME::ms_dwCandidatePageSize
?ms_bReadingInformation@CIME@@2_NA DB 01H DUP (?)	; CIME::ms_bReadingInformation
	ALIGN	4

?ms_iReadingError@CIME@@2HA DD 01H DUP (?)		; CIME::ms_iReadingError
?ms_bHorizontalReading@CIME@@2_NA DB 01H DUP (?)	; CIME::ms_bHorizontalReading
	ALIGN	4

?ms_wszCurrentIndicator@CIME@@2PA_WA DD 01H DUP (?)	; CIME::ms_wszCurrentIndicator
?ms_pEvent@CIME@@2PAVIIMEEventSink@@A DD 01H DUP (?)	; CIME::ms_pEvent
?m_wText@CIME@@2PA_WA DW 0400H DUP (?)			; CIME::m_wText
?ms_compLen@CIME@@2HA DD 01H DUP (?)			; CIME::ms_compLen
?ms_curpos@CIME@@2HA DD 01H DUP (?)			; CIME::ms_curpos
?ms_lastpos@CIME@@2HA DD 01H DUP (?)			; CIME::ms_lastpos
?ms_ulbegin@CIME@@2HA DD 01H DUP (?)			; CIME::ms_ulbegin
?ms_ulend@CIME@@2HA DD 01H DUP (?)			; CIME::ms_ulend
?ms_uOutputCodePage@CIME@@2IA DD 01H DUP (?)		; CIME::ms_uOutputCodePage
?ms_uInputCodePage@CIME@@2IA DD 01H DUP (?)		; CIME::ms_uInputCodePage
?gs_codePage@@3KA DD 01H DUP (?)			; gs_codePage
?m_tm@CTsfUiLessMode@@1PAUITfThreadMgrEx@@A DD 01H DUP (?) ; CTsfUiLessMode::m_tm
?m_TsfSink@CTsfUiLessMode@@1PAVCUIElementSink@1@A DD 01H DUP (?) ; CTsfUiLessMode::m_TsfSink
?m_nCandidateRefCount@CTsfUiLessMode@@1HA DD 01H DUP (?) ; CTsfUiLessMode::m_nCandidateRefCount
_BSS	ENDS
_DATA	SEGMENT
?s_aszIndicator@@3PAY02_WA DB 'E', 00H, 'n', 00H, 00H, 00H ; s_aszIndicator
	DB	080H, '{', 00H, 00H
	ORG $+2
	DB	'A~', 00H, 00H
	ORG $+2
	DB	00H, 0acH, 00H, 00H
	ORG $+2
	DB	'B0', 00H, 00H
	ORG $+2
	ORG $+2
?m_dwUIElementSinkCookie@CTsfUiLessMode@@1KA DD 0ffffffffH ; CTsfUiLessMode::m_dwUIElementSinkCookie
?m_dwAlpnSinkCookie@CTsfUiLessMode@@1KA DD 0ffffffffH	; CTsfUiLessMode::m_dwAlpnSinkCookie
?m_dwOpenModeSinkCookie@CTsfUiLessMode@@1KA DD 0ffffffffH ; CTsfUiLessMode::m_dwOpenModeSinkCookie
?m_dwConvModeSinkCookie@CTsfUiLessMode@@1KA DD 0ffffffffH ; CTsfUiLessMode::m_dwConvModeSinkCookie
_DATA	ENDS
PUBLIC	___local_stdio_printf_options
PUBLIC	_sprintf
PUBLIC	??0exception@std@@QAE@ABV01@@Z			; std::exception::exception
PUBLIC	?what@exception@std@@UBEPBDXZ			; std::exception::what
PUBLIC	??_Gexception@std@@UAEPAXI@Z			; std::exception::`scalar deleting destructor'
PUBLIC	??0bad_alloc@std@@QAE@ABV01@@Z			; std::bad_alloc::bad_alloc
PUBLIC	??_Gbad_alloc@std@@UAEPAXI@Z			; std::bad_alloc::`scalar deleting destructor'
PUBLIC	??0bad_array_new_length@std@@QAE@XZ		; std::bad_array_new_length::bad_array_new_length
PUBLIC	??1bad_array_new_length@std@@UAE@XZ		; std::bad_array_new_length::~bad_array_new_length
PUBLIC	??0bad_array_new_length@std@@QAE@ABV01@@Z	; std::bad_array_new_length::bad_array_new_length
PUBLIC	??_Gbad_array_new_length@std@@UAEPAXI@Z		; std::bad_array_new_length::`scalar deleting destructor'
PUBLIC	?_Throw_bad_array_new_length@std@@YAXXZ		; std::_Throw_bad_array_new_length
PUBLIC	?_Adjust_manually_vector_aligned@std@@YAXAAPAXAAI@Z ; std::_Adjust_manually_vector_aligned
PUBLIC	?_Xlen_string@std@@YAXXZ			; std::_Xlen_string
PUBLIC	?_Myptr@?$_String_val@U?$_Simple_types@D@std@@@std@@QAEPADXZ ; std::_String_val<std::_Simple_types<char> >::_Myptr
PUBLIC	??0?$basic_string@DU?$char_traits@D@std@@V?$allocator@D@2@@std@@QAE@QBD@Z ; std::basic_string<char,std::char_traits<char>,std::allocator<char> >::basic_string<char,std::char_traits<char>,std::allocator<char> >
PUBLIC	??1?$basic_string@DU?$char_traits@D@std@@V?$allocator@D@2@@std@@QAE@XZ ; std::basic_string<char,std::char_traits<char>,std::allocator<char> >::~basic_string<char,std::char_traits<char>,std::allocator<char> >
PUBLIC	?append@?$basic_string@DU?$char_traits@D@std@@V?$allocator@D@2@@std@@QAEAAV12@QBDI@Z ; std::basic_string<char,std::char_traits<char>,std::allocator<char> >::append
PUBLIC	?assign@?$basic_string@DU?$char_traits@D@std@@V?$allocator@D@2@@std@@QAEAAV12@QBDI@Z ; std::basic_string<char,std::char_traits<char>,std::allocator<char> >::assign
PUBLIC	?c_str@?$basic_string@DU?$char_traits@D@std@@V?$allocator@D@2@@std@@QBEPBDXZ ; std::basic_string<char,std::char_traits<char>,std::allocator<char> >::c_str
PUBLIC	?max_size@?$basic_string@DU?$char_traits@D@std@@V?$allocator@D@2@@std@@QBEIXZ ; std::basic_string<char,std::char_traits<char>,std::allocator<char> >::max_size
PUBLIC	?_Calculate_growth@?$basic_string@DU?$char_traits@D@std@@V?$allocator@D@2@@std@@CAIIII@Z ; std::basic_string<char,std::char_traits<char>,std::allocator<char> >::_Calculate_growth
PUBLIC	?_Calculate_growth@?$basic_string@DU?$char_traits@D@std@@V?$allocator@D@2@@std@@ABEII@Z ; std::basic_string<char,std::char_traits<char>,std::allocator<char> >::_Calculate_growth
PUBLIC	?_Tidy_init@?$basic_string@DU?$char_traits@D@std@@V?$allocator@D@2@@std@@AAEXXZ ; std::basic_string<char,std::char_traits<char>,std::allocator<char> >::_Tidy_init
PUBLIC	?_Tidy_deallocate@?$basic_string@DU?$char_traits@D@std@@V?$allocator@D@2@@std@@AAEXXZ ; std::basic_string<char,std::char_traits<char>,std::allocator<char> >::_Tidy_deallocate
PUBLIC	??1?$_Compressed_pair@V?$allocator@D@std@@V?$_String_val@U?$_Simple_types@D@std@@@2@$00@std@@QAE@XZ ; std::_Compressed_pair<std::allocator<char>,std::_String_val<std::_Simple_types<char> >,1>::~_Compressed_pair<std::allocator<char>,std::_String_val<std::_Simple_types<char> >,1>
PUBLIC	?deallocate@?$allocator@_W@std@@QAEXQA_WI@Z	; std::allocator<wchar_t>::deallocate
PUBLIC	??1?$basic_string@_WU?$char_traits@_W@std@@V?$allocator@_W@2@@std@@QAE@XZ ; std::basic_string<wchar_t,std::char_traits<wchar_t>,std::allocator<wchar_t> >::~basic_string<wchar_t,std::char_traits<wchar_t>,std::allocator<wchar_t> >
PUBLIC	?c_str@?$basic_string@_WU?$char_traits@_W@std@@V?$allocator@_W@2@@std@@QBEPB_WXZ ; std::basic_string<wchar_t,std::char_traits<wchar_t>,std::allocator<wchar_t> >::c_str
PUBLIC	?_Tidy_deallocate@?$basic_string@_WU?$char_traits@_W@std@@V?$allocator@_W@2@@std@@AAEXXZ ; std::basic_string<wchar_t,std::char_traits<wchar_t>,std::allocator<wchar_t> >::_Tidy_deallocate
PUBLIC	??$_Destroy_in_place@PA_W@std@@YAXAAPA_W@Z	; std::_Destroy_in_place<wchar_t *>
PUBLIC	??$_Destroy_in_place@PAD@std@@YAXAAPAD@Z	; std::_Destroy_in_place<char *>
PUBLIC	??$_Reallocate_for@V<lambda_9366063389c5f42a00a5088cf24e69de>@@PBD@?$basic_string@DU?$char_traits@D@std@@V?$allocator@D@2@@std@@AAEAAV01@IV<lambda_9366063389c5f42a00a5088cf24e69de>@@PBD@Z ; std::basic_string<char,std::char_traits<char>,std::allocator<char> >::_Reallocate_for<<lambda_9366063389c5f42a00a5088cf24e69de>,char const *>
PUBLIC	??$_Construct_in_place@PADABQAD@std@@YAXAAPADABQAD@Z ; std::_Construct_in_place<char *,char * const &>
PUBLIC	??$_Deallocate@$07$0A@@std@@YAXPAXI@Z		; std::_Deallocate<8,0>
PUBLIC	??$_Allocate@$07U_Default_allocate_traits@std@@$0A@@std@@YAPAXI@Z ; std::_Allocate<8,std::_Default_allocate_traits,0>
PUBLIC	??$_Allocate_manually_vector_aligned@U_Default_allocate_traits@std@@@std@@YAPAXI@Z ; std::_Allocate_manually_vector_aligned<std::_Default_allocate_traits>
PUBLIC	??0CIME@@QAE@XZ					; CIME::CIME
PUBLIC	??1CIME@@UAE@XZ					; CIME::~CIME
PUBLIC	?Initialize@CIME@@QAE_NPAUHWND__@@@Z		; CIME::Initialize
PUBLIC	?Uninitialize@CIME@@QAEXXZ			; CIME::Uninitialize
PUBLIC	?Clear@CIME@@SAXXZ				; CIME::Clear
PUBLIC	?SetMax@CIME@@QAEXH@Z				; CIME::SetMax
PUBLIC	?SetUserMax@CIME@@QAEXH@Z			; CIME::SetUserMax
PUBLIC	?SetText@CIME@@QAEXPBDH@Z			; CIME::SetText
PUBLIC	?GetText@CIME@@QAEHAAV?$basic_string@DU?$char_traits@D@std@@V?$allocator@D@2@@std@@_N@Z ; CIME::GetText
PUBLIC	?GetCodePageText@CIME@@QAEPBDXZ			; CIME::GetCodePageText
PUBLIC	?GetCodePage@CIME@@QAEHXZ			; CIME::GetCodePage
PUBLIC	?GetCandidateCount@CIME@@QAEHXZ			; CIME::GetCandidateCount
PUBLIC	?GetCandidatePageCount@CIME@@QAEHXZ		; CIME::GetCandidatePageCount
PUBLIC	?GetCandidate@CIME@@QAEHKAAV?$basic_string@DU?$char_traits@D@std@@V?$allocator@D@2@@std@@@Z ; CIME::GetCandidate
PUBLIC	?GetCandidateSelection@CIME@@QAEHXZ		; CIME::GetCandidateSelection
PUBLIC	?GetReading@CIME@@QAEHAAV?$basic_string@DU?$char_traits@D@std@@V?$allocator@D@2@@std@@@Z ; CIME::GetReading
PUBLIC	?GetReadingError@CIME@@QAEHXZ			; CIME::GetReadingError
PUBLIC	?SetInputMode@CIME@@QAEXK@Z			; CIME::SetInputMode
PUBLIC	?GetInputMode@CIME@@QAEKXZ			; CIME::GetInputMode
PUBLIC	?IsIMEEnabled@CIME@@QAE_NXZ			; CIME::IsIMEEnabled
PUBLIC	?EnableIME@CIME@@QAEX_N@Z			; CIME::EnableIME
PUBLIC	?DisableIME@CIME@@QAEXXZ			; CIME::DisableIME
PUBLIC	?EnableCaptureInput@CIME@@QAEXXZ		; CIME::EnableCaptureInput
PUBLIC	?DisableCaptureInput@CIME@@QAEXXZ		; CIME::DisableCaptureInput
PUBLIC	?IsCaptureEnabled@CIME@@QAE_NXZ			; CIME::IsCaptureEnabled
PUBLIC	?SetNumberMode@CIME@@QAEXXZ			; CIME::SetNumberMode
PUBLIC	?SetStringMode@CIME@@QAEXXZ			; CIME::SetStringMode
PUBLIC	?__IsWritable@CIME@@QAE_N_W@Z			; CIME::__IsWritable
PUBLIC	?AddExceptKey@CIME@@QAEX_W@Z			; CIME::AddExceptKey
PUBLIC	?ClearExceptKey@CIME@@QAEXXZ			; CIME::ClearExceptKey
PUBLIC	?PasteTextFromClipBoard@CIME@@QAEXXZ		; CIME::PasteTextFromClipBoard
PUBLIC	?EnablePaste@CIME@@QAEX_N@Z			; CIME::EnablePaste
PUBLIC	?PasteString@CIME@@QAEXPBD@Z			; CIME::PasteString
PUBLIC	?FinalizeString@CIME@@SAX_N@Z			; CIME::FinalizeString
PUBLIC	?UseDefaultIME@CIME@@QAEXXZ			; CIME::UseDefaultIME
PUBLIC	?GetCurPos@CIME@@SAHXZ				; CIME::GetCurPos
PUBLIC	?GetCompLen@CIME@@SAHXZ				; CIME::GetCompLen
PUBLIC	?GetULBegin@CIME@@SAHXZ				; CIME::GetULBegin
PUBLIC	?GetULEnd@CIME@@SAHXZ				; CIME::GetULEnd
PUBLIC	?CloseCandidateList@CIME@@SAXXZ			; CIME::CloseCandidateList
PUBLIC	?CloseReadingInformation@CIME@@SAXXZ		; CIME::CloseReadingInformation
PUBLIC	?ChangeInputLanguage@CIME@@SAXXZ		; CIME::ChangeInputLanguage
PUBLIC	?ChangeInputLanguageWorker@CIME@@SAXXZ		; CIME::ChangeInputLanguageWorker
PUBLIC	?WMInputLanguage@CIME@@QAEJPAUHWND__@@IIJ@Z	; CIME::WMInputLanguage
PUBLIC	?WMStartComposition@CIME@@QAEJPAUHWND__@@IIJ@Z	; CIME::WMStartComposition
PUBLIC	?WMComposition@CIME@@QAEJPAUHWND__@@IIJ@Z	; CIME::WMComposition
PUBLIC	?WMEndComposition@CIME@@QAEJPAUHWND__@@IIJ@Z	; CIME::WMEndComposition
PUBLIC	?WMNotify@CIME@@QAEJPAUHWND__@@IIJ@Z		; CIME::WMNotify
PUBLIC	?WMChar@CIME@@QAEJPAUHWND__@@IIJ@Z		; CIME::WMChar
PUBLIC	?IncCurPos@CIME@@IAEXXZ				; CIME::IncCurPos
PUBLIC	?DecCurPos@CIME@@IAEXXZ				; CIME::DecCurPos
PUBLIC	?SetCurPos@CIME@@IAEXH@Z			; CIME::SetCurPos
PUBLIC	?DelCurPos@CIME@@IAEXXZ				; CIME::DelCurPos
PUBLIC	?CheckInputLocale@CIME@@KAXXZ			; CIME::CheckInputLocale
PUBLIC	?CheckToggleState@CIME@@KAXXZ			; CIME::CheckToggleState
PUBLIC	?SetSupportLevel@CIME@@KAXK@Z			; CIME::SetSupportLevel
PUBLIC	?InsertString@CIME@@IAEXPA_WH@Z			; CIME::InsertString
PUBLIC	?OnChar@CIME@@IAEX_W@Z				; CIME::OnChar
PUBLIC	?GetCodePageFromLang@CIME@@IAEIG@Z		; CIME::GetCodePageFromLang
PUBLIC	?ResultProcess@CIME@@IAEXPAUHIMC__@@@Z		; CIME::ResultProcess
PUBLIC	?CompositionProcessBuilding@CIME@@IAEXPAUHIMC__@@@Z ; CIME::CompositionProcessBuilding
PUBLIC	?CompositionProcess@CIME@@IAEXPAUHIMC__@@@Z	; CIME::CompositionProcess
PUBLIC	?AttributeProcess@CIME@@IAEXPAUHIMC__@@@Z	; CIME::AttributeProcess
PUBLIC	?CandidateProcess@CIME@@IAEXPAUHIMC__@@@Z	; CIME::CandidateProcess
PUBLIC	?ReadingProcess@CIME@@IAEXPAUHIMC__@@@Z		; CIME::ReadingProcess
PUBLIC	?IsMax@CIME@@IAE_NPB_WH@Z			; CIME::IsMax
PUBLIC	?GetImeId@CIME@@IAEKI@Z				; CIME::GetImeId
PUBLIC	?GetReadingWindowOrientation@CIME@@IAE_NXZ	; CIME::GetReadingWindowOrientation
PUBLIC	?SetupImeApi@CIME@@KAXXZ			; CIME::SetupImeApi
PUBLIC	??0?$vector@_WV?$allocator@_W@std@@@std@@QAE@XZ	; std::vector<wchar_t,std::allocator<wchar_t> >::vector<wchar_t,std::allocator<wchar_t> >
PUBLIC	??1?$vector@_WV?$allocator@_W@std@@@std@@QAE@XZ	; std::vector<wchar_t,std::allocator<wchar_t> >::~vector<wchar_t,std::allocator<wchar_t> >
PUBLIC	?_Clear_and_reserve_geometric@?$vector@_WV?$allocator@_W@std@@@std@@AAEXI@Z ; std::vector<wchar_t,std::allocator<wchar_t> >::_Clear_and_reserve_geometric
PUBLIC	?clear@?$vector@_WV?$allocator@_W@std@@@std@@QAEXXZ ; std::vector<wchar_t,std::allocator<wchar_t> >::clear
PUBLIC	?max_size@?$vector@_WV?$allocator@_W@std@@@std@@QBEIXZ ; std::vector<wchar_t,std::allocator<wchar_t> >::max_size
PUBLIC	?_Destroy@?$vector@_WV?$allocator@_W@std@@@std@@AAEXPA_W0@Z ; std::vector<wchar_t,std::allocator<wchar_t> >::_Destroy
PUBLIC	?_Calculate_growth@?$vector@_WV?$allocator@_W@std@@@std@@ABEII@Z ; std::vector<wchar_t,std::allocator<wchar_t> >::_Calculate_growth
PUBLIC	?_Buy_raw@?$vector@_WV?$allocator@_W@std@@@std@@AAEXI@Z ; std::vector<wchar_t,std::allocator<wchar_t> >::_Buy_raw
PUBLIC	?_Change_array@?$vector@_WV?$allocator@_W@std@@@std@@AAEXQA_WII@Z ; std::vector<wchar_t,std::allocator<wchar_t> >::_Change_array
PUBLIC	?_Tidy@?$vector@_WV?$allocator@_W@std@@@std@@AAEXXZ ; std::vector<wchar_t,std::allocator<wchar_t> >::_Tidy
PUBLIC	?_Xlength@?$vector@_WV?$allocator@_W@std@@@std@@CAXXZ ; std::vector<wchar_t,std::allocator<wchar_t> >::_Xlength
PUBLIC	?_Getal@?$vector@_WV?$allocator@_W@std@@@std@@AAEAAV?$allocator@_W@2@XZ ; std::vector<wchar_t,std::allocator<wchar_t> >::_Getal
PUBLIC	??_GCIME@@UAEPAXI@Z				; CIME::`scalar deleting destructor'
PUBLIC	??0CUIElementSink@CTsfUiLessMode@@QAE@XZ	; CTsfUiLessMode::CUIElementSink::CUIElementSink
PUBLIC	??1CUIElementSink@CTsfUiLessMode@@QAE@XZ	; CTsfUiLessMode::CUIElementSink::~CUIElementSink
PUBLIC	?QueryInterface@CUIElementSink@CTsfUiLessMode@@UAGJABU_GUID@@PAPAX@Z ; CTsfUiLessMode::CUIElementSink::QueryInterface
PUBLIC	?AddRef@CUIElementSink@CTsfUiLessMode@@UAGKXZ	; CTsfUiLessMode::CUIElementSink::AddRef
PUBLIC	?Release@CUIElementSink@CTsfUiLessMode@@UAGKXZ	; CTsfUiLessMode::CUIElementSink::Release
PUBLIC	?BeginUIElement@CUIElementSink@CTsfUiLessMode@@UAGJKPAH@Z ; CTsfUiLessMode::CUIElementSink::BeginUIElement
PUBLIC	?UpdateUIElement@CUIElementSink@CTsfUiLessMode@@UAGJK@Z ; CTsfUiLessMode::CUIElementSink::UpdateUIElement
PUBLIC	?EndUIElement@CUIElementSink@CTsfUiLessMode@@UAGJK@Z ; CTsfUiLessMode::CUIElementSink::EndUIElement
PUBLIC	?OnActivated@CUIElementSink@CTsfUiLessMode@@UAGJKGABU_GUID@@00PAUHKL__@@K@Z ; CTsfUiLessMode::CUIElementSink::OnActivated
PUBLIC	?OnChange@CUIElementSink@CTsfUiLessMode@@UAGJABU_GUID@@@Z ; CTsfUiLessMode::CUIElementSink::OnChange
PUBLIC	?MakeReadingInformationString@CTsfUiLessMode@@KAXPAUITfReadingInformationUIElement@@@Z ; CTsfUiLessMode::MakeReadingInformationString
PUBLIC	?MakeCandidateStrings@CTsfUiLessMode@@KAXPAUITfCandidateListUIElement@@@Z ; CTsfUiLessMode::MakeCandidateStrings
PUBLIC	?GetUIElement@CTsfUiLessMode@@KAPAUITfUIElement@@K@Z ; CTsfUiLessMode::GetUIElement
PUBLIC	?GetCompartments@CTsfUiLessMode@@KAHPAPAUITfCompartmentMgr@@PAPAUITfCompartment@@1@Z ; CTsfUiLessMode::GetCompartments
PUBLIC	?SetupCompartmentSinks@CTsfUiLessMode@@KAHHPAUITfCompartment@@0@Z ; CTsfUiLessMode::SetupCompartmentSinks
PUBLIC	?SetupSinks@CTsfUiLessMode@@SAHXZ		; CTsfUiLessMode::SetupSinks
PUBLIC	?ReleaseSinks@CTsfUiLessMode@@SAXXZ		; CTsfUiLessMode::ReleaseSinks
PUBLIC	?CurrentInputLocaleIsIme@CTsfUiLessMode@@SAHXZ	; CTsfUiLessMode::CurrentInputLocaleIsIme
PUBLIC	?UpdateImeState@CTsfUiLessMode@@SAXH@Z		; CTsfUiLessMode::UpdateImeState
PUBLIC	?EnableUiUpdates@CTsfUiLessMode@@SAX_N@Z	; CTsfUiLessMode::EnableUiUpdates
PUBLIC	?Initialize@CDisableCicero@@QAEXXZ		; CDisableCicero::Initialize
PUBLIC	?Uninitialize@CDisableCicero@@QAEXXZ		; CDisableCicero::Uninitialize
PUBLIC	??$find@V?$_Vector_iterator@V?$_Vector_val@U?$_Simple_types@_W@std@@@std@@@std@@_W@std@@YA?AV?$_Vector_iterator@V?$_Vector_val@U?$_Simple_types@_W@std@@@std@@@0@V10@V10@AB_W@Z ; std::find<std::_Vector_iterator<std::_Vector_val<std::_Simple_types<wchar_t> > >,wchar_t>
PUBLIC	?deallocate@?$allocator@E@std@@QAEXQAEI@Z	; std::allocator<unsigned char>::deallocate
PUBLIC	??1?$vector@EV?$allocator@E@std@@@std@@QAE@XZ	; std::vector<unsigned char,std::allocator<unsigned char> >::~vector<unsigned char,std::allocator<unsigned char> >
PUBLIC	?_Destroy@?$vector@EV?$allocator@E@std@@@std@@AAEXPAE0@Z ; std::vector<unsigned char,std::allocator<unsigned char> >::_Destroy
PUBLIC	?_Calculate_growth@?$vector@EV?$allocator@E@std@@@std@@ABEII@Z ; std::vector<unsigned char,std::allocator<unsigned char> >::_Calculate_growth
PUBLIC	?_Change_array@?$vector@EV?$allocator@E@std@@@std@@AAEXQAEII@Z ; std::vector<unsigned char,std::allocator<unsigned char> >::_Change_array
PUBLIC	?_Tidy@?$vector@EV?$allocator@E@std@@@std@@AAEXXZ ; std::vector<unsigned char,std::allocator<unsigned char> >::_Tidy
PUBLIC	?_Xlength@?$vector@EV?$allocator@E@std@@@std@@CAXXZ ; std::vector<unsigned char,std::allocator<unsigned char> >::_Xlength
PUBLIC	?_Getal@?$vector@EV?$allocator@E@std@@@std@@AAEAAV?$allocator@E@2@XZ ; std::vector<unsigned char,std::allocator<unsigned char> >::_Getal
PUBLIC	??$_Resize@U_Value_init_tag@std@@@?$vector@EV?$allocator@E@std@@@std@@AAEXIABU_Value_init_tag@1@@Z ; std::vector<unsigned char,std::allocator<unsigned char> >::_Resize<std::_Value_init_tag>
PUBLIC	??$_Resize@U_Value_init_tag@std@@@?$vector@_WV?$allocator@_W@std@@@std@@AAEXIABU_Value_init_tag@1@@Z ; std::vector<wchar_t,std::allocator<wchar_t> >::_Resize<std::_Value_init_tag>
PUBLIC	??$emplace_back@AB_W@?$vector@_WV?$allocator@_W@std@@@std@@QAEXAB_W@Z ; std::vector<wchar_t,std::allocator<wchar_t> >::emplace_back<wchar_t const &>
PUBLIC	??$_Emplace_back_with_unused_capacity@AB_W@?$vector@_WV?$allocator@_W@std@@@std@@AAEXAB_W@Z ; std::vector<wchar_t,std::allocator<wchar_t> >::_Emplace_back_with_unused_capacity<wchar_t const &>
PUBLIC	??$_Emplace_reallocate@AB_W@?$vector@_WV?$allocator@_W@std@@@std@@QAEPA_WQA_WAB_W@Z ; std::vector<wchar_t,std::allocator<wchar_t> >::_Emplace_reallocate<wchar_t const &>
PUBLIC	??$_Destroy_range@V?$allocator@_W@std@@@std@@YAXPA_WQA_WAAV?$allocator@_W@0@@Z ; std::_Destroy_range<std::allocator<wchar_t> >
PUBLIC	??$_Reallocate_grow_by@V<lambda_ab246b20b9526e2ef7792587e4298a77>@@PBDI@?$basic_string@DU?$char_traits@D@std@@V?$allocator@D@2@@std@@AAEAAV01@IV<lambda_ab246b20b9526e2ef7792587e4298a77>@@PBDI@Z ; std::basic_string<char,std::char_traits<char>,std::allocator<char> >::_Reallocate_grow_by<<lambda_ab246b20b9526e2ef7792587e4298a77>,char const *,unsigned int>
PUBLIC	??$_Destroy_range@V?$allocator@E@std@@@std@@YAXPAEQAEAAV?$allocator@E@0@@Z ; std::_Destroy_range<std::allocator<unsigned char> >
PUBLIC	??$_Assign_range@PA_W@?$vector@_WV?$allocator@_W@std@@@std@@AAEXPA_W0Uforward_iterator_tag@1@@Z ; std::vector<wchar_t,std::allocator<wchar_t> >::_Assign_range<wchar_t *>
PUBLIC	??$_Resize_reallocate@U_Value_init_tag@std@@@?$vector@EV?$allocator@E@std@@@std@@AAEXIABU_Value_init_tag@1@@Z ; std::vector<unsigned char,std::allocator<unsigned char> >::_Resize_reallocate<std::_Value_init_tag>
PUBLIC	??$_Resize_reallocate@U_Value_init_tag@std@@@?$vector@_WV?$allocator@_W@std@@@std@@AAEXIABU_Value_init_tag@1@@Z ; std::vector<wchar_t,std::allocator<wchar_t> >::_Resize_reallocate<std::_Value_init_tag>
PUBLIC	??$_Uninitialized_value_construct_n@V?$allocator@E@std@@@std@@YAPAEPAEIAAV?$allocator@E@0@@Z ; std::_Uninitialized_value_construct_n<std::allocator<unsigned char> >
PUBLIC	??$_Uninitialized_move@PA_WV?$allocator@_W@std@@@std@@YAPA_WQA_W0PA_WAAV?$allocator@_W@0@@Z ; std::_Uninitialized_move<wchar_t *,std::allocator<wchar_t> >
PUBLIC	??$_Uninitialized_value_construct_n@V?$allocator@_W@std@@@std@@YAPA_WPA_WIAAV?$allocator@_W@0@@Z ; std::_Uninitialized_value_construct_n<std::allocator<wchar_t> >
PUBLIC	??$_Copy_memmove@PA_WPA_W@std@@YAPA_WPA_W00@Z	; std::_Copy_memmove<wchar_t *,wchar_t *>
PUBLIC	??$_Refancy@PA_W$0A@@std@@YAPA_WPA_W@Z		; std::_Refancy<wchar_t *,0>
PUBLIC	??$_Zero_range@PAE@std@@YAPAEQAE0@Z		; std::_Zero_range<unsigned char *>
PUBLIC	??$_Zero_range@PA_W@std@@YAPA_WQA_W0@Z		; std::_Zero_range<wchar_t *>
PUBLIC	??$_Uninitialized_move@PAEV?$allocator@E@std@@@std@@YAPAEQAE0PAEAAV?$allocator@E@0@@Z ; std::_Uninitialized_move<unsigned char *,std::allocator<unsigned char> >
PUBLIC	??$_Copy_memmove@PAEPAE@std@@YAPAEPAE00@Z	; std::_Copy_memmove<unsigned char *,unsigned char *>
PUBLIC	?QueryInterface@CUIElementSink@CTsfUiLessMode@@W3AGJABU_GUID@@PAPAX@Z ; [thunk]:CTsfUiLessMode::CUIElementSink::QueryInterface`adjustor{4}'
PUBLIC	?AddRef@CUIElementSink@CTsfUiLessMode@@W3AGKXZ	; [thunk]:CTsfUiLessMode::CUIElementSink::AddRef`adjustor{4}'
PUBLIC	?Release@CUIElementSink@CTsfUiLessMode@@W3AGKXZ	; [thunk]:CTsfUiLessMode::CUIElementSink::Release`adjustor{4}'
PUBLIC	?QueryInterface@CUIElementSink@CTsfUiLessMode@@W7AGJABU_GUID@@PAPAX@Z ; [thunk]:CTsfUiLessMode::CUIElementSink::QueryInterface`adjustor{8}'
PUBLIC	?AddRef@CUIElementSink@CTsfUiLessMode@@W7AGKXZ	; [thunk]:CTsfUiLessMode::CUIElementSink::AddRef`adjustor{8}'
PUBLIC	?Release@CUIElementSink@CTsfUiLessMode@@W7AGKXZ	; [thunk]:CTsfUiLessMode::CUIElementSink::Release`adjustor{8}'
PUBLIC	?_OptionsStorage@?1??__local_stdio_printf_options@@9@4_KA ; `__local_stdio_printf_options'::`2'::_OptionsStorage
PUBLIC	??_7exception@std@@6B@				; std::exception::`vftable'
PUBLIC	??_C@_0BC@EOODALEL@Unknown?5exception@		; `string'
PUBLIC	??_7bad_alloc@std@@6B@				; std::bad_alloc::`vftable'
PUBLIC	??_7bad_array_new_length@std@@6B@		; std::bad_array_new_length::`vftable'
PUBLIC	??_C@_0BF@KINCDENJ@bad?5array?5new?5length@	; `string'
PUBLIC	__TI3?AVbad_array_new_length@std@@
PUBLIC	__CTA3?AVbad_array_new_length@std@@
PUBLIC	??_R0?AVbad_array_new_length@std@@@8		; std::bad_array_new_length `RTTI Type Descriptor'
PUBLIC	__CT??_R0?AVbad_array_new_length@std@@@8??0bad_array_new_length@std@@QAE@ABV01@@Z12
PUBLIC	??_R0?AVbad_alloc@std@@@8			; std::bad_alloc `RTTI Type Descriptor'
PUBLIC	__CT??_R0?AVbad_alloc@std@@@8??0bad_alloc@std@@QAE@ABV01@@Z12
PUBLIC	??_R0?AVexception@std@@@8			; std::exception `RTTI Type Descriptor'
PUBLIC	__CT??_R0?AVexception@std@@@8??0exception@std@@QAE@ABV01@@Z12
PUBLIC	??_C@_0BA@JFNIOLAK@string?5too?5long@		; `string'
PUBLIC	??_R4exception@std@@6B@				; std::exception::`RTTI Complete Object Locator'
PUBLIC	??_R3exception@std@@8				; std::exception::`RTTI Class Hierarchy Descriptor'
PUBLIC	??_R2exception@std@@8				; std::exception::`RTTI Base Class Array'
PUBLIC	??_R1A@?0A@EA@exception@std@@8			; std::exception::`RTTI Base Class Descriptor at (0,-1,0,64)'
PUBLIC	??_R4bad_alloc@std@@6B@				; std::bad_alloc::`RTTI Complete Object Locator'
PUBLIC	??_R3bad_alloc@std@@8				; std::bad_alloc::`RTTI Class Hierarchy Descriptor'
PUBLIC	??_R2bad_alloc@std@@8				; std::bad_alloc::`RTTI Base Class Array'
PUBLIC	??_R1A@?0A@EA@bad_alloc@std@@8			; std::bad_alloc::`RTTI Base Class Descriptor at (0,-1,0,64)'
PUBLIC	??_R4bad_array_new_length@std@@6B@		; std::bad_array_new_length::`RTTI Complete Object Locator'
PUBLIC	??_R3bad_array_new_length@std@@8		; std::bad_array_new_length::`RTTI Class Hierarchy Descriptor'
PUBLIC	??_R2bad_array_new_length@std@@8		; std::bad_array_new_length::`RTTI Base Class Array'
PUBLIC	??_R1A@?0A@EA@bad_array_new_length@std@@8	; std::bad_array_new_length::`RTTI Base Class Descriptor at (0,-1,0,64)'
PUBLIC	?ms_wstrReading@CIME@@2V?$vector@_WV?$allocator@_W@std@@@std@@A ; CIME::ms_wstrReading
PUBLIC	??_7CIME@@6B@					; CIME::`vftable'
PUBLIC	??_7CUIElementSink@CTsfUiLessMode@@6BITfUIElementSink@@@ ; CTsfUiLessMode::CUIElementSink::`vftable'
PUBLIC	??_7CUIElementSink@CTsfUiLessMode@@6BITfInputProcessorProfileActivationSink@@@ ; CTsfUiLessMode::CUIElementSink::`vftable'
PUBLIC	??_7CUIElementSink@CTsfUiLessMode@@6BITfCompartmentEventSink@@@ ; CTsfUiLessMode::CUIElementSink::`vftable'
PUBLIC	__GUID_aa80e801_2021_11d2_93e0_0060b067b86e
PUBLIC	??_C@_0L@LPOFADGE@?2imm32?4dll@			; `string'
PUBLIC	??_C@_0L@JGAMEFKO@ImmLockIMC@			; `string'
PUBLIC	??_C@_0N@PDIACEGP@ImmUnlockIMC@			; `string'
PUBLIC	??_C@_0M@OKKMJOGM@ImmLockIMCC@			; `string'
PUBLIC	??_C@_0O@GKKOACL@ImmUnlockIMCC@			; `string'
PUBLIC	??_C@_0BL@MBEANDFB@ImmDisableTextFrameService@	; `string'
PUBLIC	??_C@_05JKJMOPAK@?$EA?$CF04d@			; `string'
PUBLIC	??_C@_05EFEJGKEJ@?$EA9999@			; `string'
PUBLIC	??_C@_11LOCGONAA@@				; `string'
PUBLIC	??_C@_0N@FFMHCBAD@TINTLGNT?4IME@		; `string'
PUBLIC	??_C@_0N@JMLDIBIB@CINTLGNT?4IME@		; `string'
PUBLIC	??_C@_0N@FHDFFBN@MSTCIPHA?4IME@			; `string'
PUBLIC	??_C@_0N@JFHOELJF@PINTLGNT?4IME@		; `string'
PUBLIC	??_C@_0N@ONOBNHOE@MSSCIPYA?4IME@		; `string'
PUBLIC	??_C@_01KICIPPFI@?2@				; `string'
PUBLIC	??_C@_0CL@PCFEMFCF@software?2microsoft?2windows?2curr@ ; `string'
PUBLIC	??_C@_07DEJAPC@MSTCIPH@				; `string'
PUBLIC	??_C@_08LMKCILHO@TINTLGNT@			; `string'
PUBLIC	??_C@_0BB@KFOMJFEN@Keyboard?5Mapping@		; `string'
PUBLIC	??_C@_0N@EMABPIGL@QQPINYIN?4IME@		; `string'
PUBLIC	??_C@_0M@IPABOCGB@SOGOUPY?4IME@			; `string'
PUBLIC	??_C@_0BC@KLAKFCEJ@GOOGLEPINYIN2?4IME@		; `string'
PUBLIC	??_C@_0BB@EOIFCLLM@GetReadingString@		; `string'
PUBLIC	??_C@_0BC@MEELNKEC@ShowReadingWindow@		; `string'
PUBLIC	__GUID_3e90ade3_7594_4cb0_bb58_69628f5f458c
PUBLIC	__GUID_4ea48a35_60ae_446f_8fd6_e6a8d82459f7
PUBLIC	__GUID_ea1ea136_19df_11d7_a6d2_00065b84435c
PUBLIC	__GUID_71c6e74e_0f28_11d8_a82a_00065b84435c
PUBLIC	__GUID_743abd5f_f26d_48df_8cc5_238492419b64
PUBLIC	__GUID_ea1ea139_19df_11d7_a6d2_00065b84435c
PUBLIC	__GUID_ea1ea138_19df_11d7_a6d2_00065b84435c
PUBLIC	__GUID_ea1ea135_19df_11d7_a6d2_00065b84435c
PUBLIC	__GUID_1f02b6c5_7842_4ee6_8a0b_9a24183a95ca
PUBLIC	__GUID_71c6e74c_0f28_11d8_a82a_00065b84435c
PUBLIC	??_C@_0BA@FOIKENOD@vector?5too?5long@		; `string'
PUBLIC	??_R0?AUIUnknown@@@8				; IUnknown `RTTI Type Descriptor'
PUBLIC	??_R3IUnknown@@8				; IUnknown::`RTTI Class Hierarchy Descriptor'
PUBLIC	??_R2IUnknown@@8				; IUnknown::`RTTI Base Class Array'
PUBLIC	??_R1A@?0A@EA@IUnknown@@8			; IUnknown::`RTTI Base Class Descriptor at (0,-1,0,64)'
PUBLIC	??_R4CIME@@6B@					; CIME::`RTTI Complete Object Locator'
PUBLIC	??_R0?AVCIME@@@8				; CIME `RTTI Type Descriptor'
PUBLIC	??_R3CIME@@8					; CIME::`RTTI Class Hierarchy Descriptor'
PUBLIC	??_R2CIME@@8					; CIME::`RTTI Base Class Array'
PUBLIC	??_R1A@?0A@EA@CIME@@8				; CIME::`RTTI Base Class Descriptor at (0,-1,0,64)'
PUBLIC	??_R0?AUITfCompartmentEventSink@@@8		; ITfCompartmentEventSink `RTTI Type Descriptor'
PUBLIC	??_R3ITfCompartmentEventSink@@8			; ITfCompartmentEventSink::`RTTI Class Hierarchy Descriptor'
PUBLIC	??_R2ITfCompartmentEventSink@@8			; ITfCompartmentEventSink::`RTTI Base Class Array'
PUBLIC	??_R1A@?0A@EA@ITfCompartmentEventSink@@8	; ITfCompartmentEventSink::`RTTI Base Class Descriptor at (0,-1,0,64)'
PUBLIC	??_R0?AUITfInputProcessorProfileActivationSink@@@8 ; ITfInputProcessorProfileActivationSink `RTTI Type Descriptor'
PUBLIC	??_R3ITfInputProcessorProfileActivationSink@@8	; ITfInputProcessorProfileActivationSink::`RTTI Class Hierarchy Descriptor'
PUBLIC	??_R2ITfInputProcessorProfileActivationSink@@8	; ITfInputProcessorProfileActivationSink::`RTTI Base Class Array'
PUBLIC	??_R1A@?0A@EA@ITfInputProcessorProfileActivationSink@@8 ; ITfInputProcessorProfileActivationSink::`RTTI Base Class Descriptor at (0,-1,0,64)'
PUBLIC	??_R0?AUITfUIElementSink@@@8			; ITfUIElementSink `RTTI Type Descriptor'
PUBLIC	??_R3ITfUIElementSink@@8			; ITfUIElementSink::`RTTI Class Hierarchy Descriptor'
PUBLIC	??_R2ITfUIElementSink@@8			; ITfUIElementSink::`RTTI Base Class Array'
PUBLIC	??_R1A@?0A@EA@ITfUIElementSink@@8		; ITfUIElementSink::`RTTI Base Class Descriptor at (0,-1,0,64)'
PUBLIC	??_R4CUIElementSink@CTsfUiLessMode@@6BITfUIElementSink@@@ ; CTsfUiLessMode::CUIElementSink::`RTTI Complete Object Locator'
PUBLIC	??_R0?AVCUIElementSink@CTsfUiLessMode@@@8	; CTsfUiLessMode::CUIElementSink `RTTI Type Descriptor'
PUBLIC	??_R3CUIElementSink@CTsfUiLessMode@@8		; CTsfUiLessMode::CUIElementSink::`RTTI Class Hierarchy Descriptor'
PUBLIC	??_R2CUIElementSink@CTsfUiLessMode@@8		; CTsfUiLessMode::CUIElementSink::`RTTI Base Class Array'
PUBLIC	??_R1A@?0A@EA@CUIElementSink@CTsfUiLessMode@@8	; CTsfUiLessMode::CUIElementSink::`RTTI Base Class Descriptor at (0,-1,0,64)'
PUBLIC	??_R1A@?0A@EC@IUnknown@@8			; IUnknown::`RTTI Base Class Descriptor at (0,-1,0,66)'
PUBLIC	??_R13?0A@EA@ITfInputProcessorProfileActivationSink@@8 ; ITfInputProcessorProfileActivationSink::`RTTI Base Class Descriptor at (4,-1,0,64)'
PUBLIC	??_R13?0A@EC@IUnknown@@8			; IUnknown::`RTTI Base Class Descriptor at (4,-1,0,66)'
PUBLIC	??_R17?0A@EA@ITfCompartmentEventSink@@8		; ITfCompartmentEventSink::`RTTI Base Class Descriptor at (8,-1,0,64)'
PUBLIC	??_R17?0A@EC@IUnknown@@8			; IUnknown::`RTTI Base Class Descriptor at (8,-1,0,66)'
PUBLIC	??_R4CUIElementSink@CTsfUiLessMode@@6BITfInputProcessorProfileActivationSink@@@ ; CTsfUiLessMode::CUIElementSink::`RTTI Complete Object Locator'
PUBLIC	??_R4CUIElementSink@CTsfUiLessMode@@6BITfCompartmentEventSink@@@ ; CTsfUiLessMode::CUIElementSink::`RTTI Complete Object Locator'
EXTRN	??2@YAPAXI@Z:PROC				; operator new
EXTRN	??3@YAXPAXI@Z:PROC				; operator delete
EXTRN	_atexit:PROC
EXTRN	___report_rangecheckfailure:PROC
EXTRN	___std_terminate:PROC
EXTRN	__invalid_parameter_noinfo_noreturn:PROC
EXTRN	_free:PROC
EXTRN	_malloc:PROC
EXTRN	_iswdigit:PROC
EXTRN	_towlower:PROC
EXTRN	_memcmp:PROC
EXTRN	_memcpy:PROC
EXTRN	_memmove:PROC
EXTRN	_memset:PROC
EXTRN	_wcscpy:PROC
EXTRN	_wcslen:PROC
EXTRN	_strcat:PROC
EXTRN	_strcpy:PROC
EXTRN	__stricmp:PROC
EXTRN	_strlen:PROC
EXTRN	__imp__GetSystemDirectoryA@8:PROC
EXTRN	__imp__GetVersionExA@4:PROC
EXTRN	__imp__FreeLibrary@4:PROC
EXTRN	__imp__GetProcAddress@8:PROC
EXTRN	__imp__LoadLibraryA@4:PROC
EXTRN	__imp__GlobalUnlock@4:PROC
EXTRN	__imp__GlobalLock@4:PROC
EXTRN	__imp__lstrlenW@4:PROC
EXTRN	__imp__GetKeyboardLayoutNameA@4:PROC
EXTRN	__imp__GetKeyboardLayout@4:PROC
EXTRN	__imp__DefWindowProcA@16:PROC
EXTRN	__imp__OpenClipboard@4:PROC
EXTRN	__imp__CloseClipboard@0:PROC
EXTRN	__imp__GetClipboardData@4:PROC
EXTRN	__imp__CharNextW@4:PROC
EXTRN	__imp__MultiByteToWideChar@24:PROC
EXTRN	__imp__WideCharToMultiByte@32:PROC
EXTRN	__imp__CompareStringA@24:PROC
EXTRN	__imp__GetLocaleInfoA@16:PROC
EXTRN	_GetFileVersionInfoSizeA@8:PROC
EXTRN	_GetFileVersionInfoA@16:PROC
EXTRN	_VerQueryValueA@16:PROC
EXTRN	__imp__RegCloseKey@4:PROC
EXTRN	__imp__RegOpenKeyExA@20:PROC
EXTRN	__imp__RegQueryValueExA@24:PROC
EXTRN	_ImmGetIMEFileNameA@12:PROC
EXTRN	_ImmIsIME@4:PROC
EXTRN	_ImmGetContext@4:PROC
EXTRN	_ImmReleaseContext@8:PROC
EXTRN	_ImmAssociateContext@8:PROC
EXTRN	_ImmGetCompositionStringW@16:PROC
EXTRN	_ImmSetCompositionStringW@24:PROC
EXTRN	_ImmGetCandidateListW@16:PROC
EXTRN	_ImmGetConversionStatus@12:PROC
EXTRN	_ImmSetConversionStatus@12:PROC
EXTRN	_ImmGetOpenStatus@4:PROC
EXTRN	_ImmNotifyIME@16:PROC
EXTRN	__imp__CoUninitialize@0:PROC
EXTRN	__imp__CoInitializeEx@8:PROC
EXTRN	__imp__CoCreateInstance@20:PROC
EXTRN	___stdio_common_vsprintf:PROC
EXTRN	___std_exception_copy:PROC
EXTRN	___std_exception_destroy:PROC
EXTRN	??_Eexception@std@@UAEPAXI@Z:PROC		; std::exception::`vector deleting destructor'
EXTRN	??_Ebad_alloc@std@@UAEPAXI@Z:PROC		; std::bad_alloc::`vector deleting destructor'
EXTRN	??_Ebad_array_new_length@std@@UAEPAXI@Z:PROC	; std::bad_array_new_length::`vector deleting destructor'
EXTRN	?_Xlength_error@std@@YAXPBD@Z:PROC		; std::_Xlength_error
EXTRN	??_ECIME@@UAEPAXI@Z:PROC			; CIME::`vector deleting destructor'
EXTRN	?GetTextTagOutputString@@YA?AV?$basic_string@_WU?$char_traits@_W@std@@V?$allocator@_W@2@@std@@PB_WH@Z:PROC ; GetTextTagOutputString
EXTRN	?GetTextTagOutputLen@@YAHPB_WH@Z:PROC		; GetTextTagOutputLen
EXTRN	?FindColorTagEndPosition@@YAHPB_WH@Z:PROC	; FindColorTagEndPosition
EXTRN	?FindColorTagStartPosition@@YAHPB_WH@Z:PROC	; FindColorTagStartPosition
EXTRN	?GetTextTagInternalPosFromRenderPos@@YAHPB_WHH@Z:PROC ; GetTextTagInternalPosFromRenderPos
EXTRN	?MIN@@YAHHH@Z:PROC				; MIN
EXTRN	__imp__SysFreeString@4:PROC
EXTRN	__imp__VariantClear@4:PROC
EXTRN	?GetDefaultCodePage@@YAKXZ:PROC			; GetDefaultCodePage
EXTRN	?ReadToken@@YAHPBD@Z:PROC			; ReadToken
EXTRN	?FindToken@@YAPBDPBD0@Z:PROC			; FindToken
EXTRN	@__security_check_cookie@4:PROC
EXTRN	__CxxThrowException@8:PROC
EXTRN	___CxxFrameHandler3:PROC
EXTRN	__alloca_probe_16:PROC
EXTRN	_IID_IUnknown:BYTE
EXTRN	??_7type_info@@6B@:QWORD			; type_info::`vftable'
EXTRN	_CLSID_TF_ThreadMgr:BYTE
EXTRN	_CLSID_TF_InputProcessorProfiles:BYTE
EXTRN	_GUID_COMPARTMENT_KEYBOARD_OPENCLOSE:BYTE
EXTRN	_GUID_TFCAT_TIP_KEYBOARD:BYTE
EXTRN	_IID_ITfCompartmentEventSink:BYTE
EXTRN	_IID_ITfCompartmentMgr:BYTE
EXTRN	_IID_ITfSource:BYTE
EXTRN	___security_cookie:DWORD
;	COMDAT ?_OptionsStorage@?1??__local_stdio_printf_options@@9@4_KA
_BSS	SEGMENT
?_OptionsStorage@?1??__local_stdio_printf_options@@9@4_KA DQ 01H DUP (?) ; `__local_stdio_printf_options'::`2'::_OptionsStorage
_BSS	ENDS
_BSS	SEGMENT
?ms_wstrReading@CIME@@2V?$vector@_WV?$allocator@_W@std@@@std@@A DB 0cH DUP (?) ; CIME::ms_wstrReading
	ALIGN	8

?g_disableCicero@@3VCDisableCicero@@A DQ 01H DUP (?)	; g_disableCicero
_BSS	ENDS
;	COMDAT ?szCodePage@?1??GetCodePageText@CIME@@QAEPBDXZ@4PADA
_BSS	SEGMENT
?szCodePage@?1??GetCodePageText@CIME@@QAEPBDXZ@4PADA DB 010H DUP (?) ; `CIME::GetCodePageText'::`2'::szCodePage
_BSS	ENDS
;	COMDAT ?s_bProcessing@?1??FinalizeString@CIME@@SAX_N@Z@4_NA
_BSS	SEGMENT
?s_bProcessing@?1??FinalizeString@CIME@@SAX_N@Z@4_NA DB 01H DUP (?) ; `CIME::FinalizeString'::`2'::s_bProcessing
_BSS	ENDS
;	COMDAT ?hklPrev@?1??GetImeId@CIME@@IAEKI@Z@4PAUHKL__@@A
_BSS	SEGMENT
?hklPrev@?1??GetImeId@CIME@@IAEKI@Z@4PAUHKL__@@A DD 01H DUP (?) ; `CIME::GetImeId'::`2'::hklPrev
_BSS	ENDS
;	COMDAT ?s_hklPrev@?1??CheckInputLocale@CIME@@KAXXZ@4PAUHKL__@@A
_BSS	SEGMENT
?s_hklPrev@?1??CheckInputLocale@CIME@@KAXXZ@4PAUHKL__@@A DD 01H DUP (?) ; `CIME::CheckInputLocale'::`2'::s_hklPrev
_BSS	ENDS
CRT$XCU	SEGMENT
??ms_wstrReading$initializer$@CIME@@2P6AXXZA@@3P6AXXZA DD FLAT:??__E?ms_wstrReading@CIME@@2V?$vector@_WV?$allocator@_W@std@@@std@@A@@YAXXZ ; ??ms_wstrReading$initializer$@CIME@@2P6AXXZA@@3P6AXXZA
CRT$XCU	ENDS
;	COMDAT ??_R4CUIElementSink@CTsfUiLessMode@@6BITfCompartmentEventSink@@@
rdata$r	SEGMENT
??_R4CUIElementSink@CTsfUiLessMode@@6BITfCompartmentEventSink@@@ DD 00H ; CTsfUiLessMode::CUIElementSink::`RTTI Complete Object Locator'
	DD	08H
	DD	00H
	DD	FLAT:??_R0?AVCUIElementSink@CTsfUiLessMode@@@8
	DD	FLAT:??_R3CUIElementSink@CTsfUiLessMode@@8
rdata$r	ENDS
;	COMDAT ??_R4CUIElementSink@CTsfUiLessMode@@6BITfInputProcessorProfileActivationSink@@@
rdata$r	SEGMENT
??_R4CUIElementSink@CTsfUiLessMode@@6BITfInputProcessorProfileActivationSink@@@ DD 00H ; CTsfUiLessMode::CUIElementSink::`RTTI Complete Object Locator'
	DD	04H
	DD	00H
	DD	FLAT:??_R0?AVCUIElementSink@CTsfUiLessMode@@@8
	DD	FLAT:??_R3CUIElementSink@CTsfUiLessMode@@8
rdata$r	ENDS
;	COMDAT ??_R17?0A@EC@IUnknown@@8
rdata$r	SEGMENT
??_R17?0A@EC@IUnknown@@8 DD FLAT:??_R0?AUIUnknown@@@8	; IUnknown::`RTTI Base Class Descriptor at (8,-1,0,66)'
	DD	00H
	DD	08H
	DD	0ffffffffH
	DD	00H
	DD	042H
	DD	FLAT:??_R3IUnknown@@8
rdata$r	ENDS
;	COMDAT ??_R17?0A@EA@ITfCompartmentEventSink@@8
rdata$r	SEGMENT
??_R17?0A@EA@ITfCompartmentEventSink@@8 DD FLAT:??_R0?AUITfCompartmentEventSink@@@8 ; ITfCompartmentEventSink::`RTTI Base Class Descriptor at (8,-1,0,64)'
	DD	01H
	DD	08H
	DD	0ffffffffH
	DD	00H
	DD	040H
	DD	FLAT:??_R3ITfCompartmentEventSink@@8
rdata$r	ENDS
;	COMDAT ??_R13?0A@EC@IUnknown@@8
rdata$r	SEGMENT
??_R13?0A@EC@IUnknown@@8 DD FLAT:??_R0?AUIUnknown@@@8	; IUnknown::`RTTI Base Class Descriptor at (4,-1,0,66)'
	DD	00H
	DD	04H
	DD	0ffffffffH
	DD	00H
	DD	042H
	DD	FLAT:??_R3IUnknown@@8
rdata$r	ENDS
;	COMDAT ??_R13?0A@EA@ITfInputProcessorProfileActivationSink@@8
rdata$r	SEGMENT
??_R13?0A@EA@ITfInputProcessorProfileActivationSink@@8 DD FLAT:??_R0?AUITfInputProcessorProfileActivationSink@@@8 ; ITfInputProcessorProfileActivationSink::`RTTI Base Class Descriptor at (4,-1,0,64)'
	DD	01H
	DD	04H
	DD	0ffffffffH
	DD	00H
	DD	040H
	DD	FLAT:??_R3ITfInputProcessorProfileActivationSink@@8
rdata$r	ENDS
;	COMDAT ??_R1A@?0A@EC@IUnknown@@8
rdata$r	SEGMENT
??_R1A@?0A@EC@IUnknown@@8 DD FLAT:??_R0?AUIUnknown@@@8	; IUnknown::`RTTI Base Class Descriptor at (0,-1,0,66)'
	DD	00H
	DD	00H
	DD	0ffffffffH
	DD	00H
	DD	042H
	DD	FLAT:??_R3IUnknown@@8
rdata$r	ENDS
;	COMDAT ??_R1A@?0A@EA@CUIElementSink@CTsfUiLessMode@@8
rdata$r	SEGMENT
??_R1A@?0A@EA@CUIElementSink@CTsfUiLessMode@@8 DD FLAT:??_R0?AVCUIElementSink@CTsfUiLessMode@@@8 ; CTsfUiLessMode::CUIElementSink::`RTTI Base Class Descriptor at (0,-1,0,64)'
	DD	06H
	DD	00H
	DD	0ffffffffH
	DD	00H
	DD	040H
	DD	FLAT:??_R3CUIElementSink@CTsfUiLessMode@@8
rdata$r	ENDS
;	COMDAT ??_R2CUIElementSink@CTsfUiLessMode@@8
rdata$r	SEGMENT
??_R2CUIElementSink@CTsfUiLessMode@@8 DD FLAT:??_R1A@?0A@EA@CUIElementSink@CTsfUiLessMode@@8 ; CTsfUiLessMode::CUIElementSink::`RTTI Base Class Array'
	DD	FLAT:??_R1A@?0A@EA@ITfUIElementSink@@8
	DD	FLAT:??_R1A@?0A@EC@IUnknown@@8
	DD	FLAT:??_R13?0A@EA@ITfInputProcessorProfileActivationSink@@8
	DD	FLAT:??_R13?0A@EC@IUnknown@@8
	DD	FLAT:??_R17?0A@EA@ITfCompartmentEventSink@@8
	DD	FLAT:??_R17?0A@EC@IUnknown@@8
rdata$r	ENDS
;	COMDAT ??_R3CUIElementSink@CTsfUiLessMode@@8
rdata$r	SEGMENT
??_R3CUIElementSink@CTsfUiLessMode@@8 DD 00H		; CTsfUiLessMode::CUIElementSink::`RTTI Class Hierarchy Descriptor'
	DD	05H
	DD	07H
	DD	FLAT:??_R2CUIElementSink@CTsfUiLessMode@@8
rdata$r	ENDS
;	COMDAT ??_R0?AVCUIElementSink@CTsfUiLessMode@@@8
data$rs	SEGMENT
??_R0?AVCUIElementSink@CTsfUiLessMode@@@8 DD FLAT:??_7type_info@@6B@ ; CTsfUiLessMode::CUIElementSink `RTTI Type Descriptor'
	DD	00H
	DB	'.?AVCUIElementSink@CTsfUiLessMode@@', 00H
data$rs	ENDS
;	COMDAT ??_R4CUIElementSink@CTsfUiLessMode@@6BITfUIElementSink@@@
rdata$r	SEGMENT
??_R4CUIElementSink@CTsfUiLessMode@@6BITfUIElementSink@@@ DD 00H ; CTsfUiLessMode::CUIElementSink::`RTTI Complete Object Locator'
	DD	00H
	DD	00H
	DD	FLAT:??_R0?AVCUIElementSink@CTsfUiLessMode@@@8
	DD	FLAT:??_R3CUIElementSink@CTsfUiLessMode@@8
rdata$r	ENDS
;	COMDAT ??_R1A@?0A@EA@ITfUIElementSink@@8
rdata$r	SEGMENT
??_R1A@?0A@EA@ITfUIElementSink@@8 DD FLAT:??_R0?AUITfUIElementSink@@@8 ; ITfUIElementSink::`RTTI Base Class Descriptor at (0,-1,0,64)'
	DD	01H
	DD	00H
	DD	0ffffffffH
	DD	00H
	DD	040H
	DD	FLAT:??_R3ITfUIElementSink@@8
rdata$r	ENDS
;	COMDAT ??_R2ITfUIElementSink@@8
rdata$r	SEGMENT
??_R2ITfUIElementSink@@8 DD FLAT:??_R1A@?0A@EA@ITfUIElementSink@@8 ; ITfUIElementSink::`RTTI Base Class Array'
	DD	FLAT:??_R1A@?0A@EA@IUnknown@@8
rdata$r	ENDS
;	COMDAT ??_R3ITfUIElementSink@@8
rdata$r	SEGMENT
??_R3ITfUIElementSink@@8 DD 00H				; ITfUIElementSink::`RTTI Class Hierarchy Descriptor'
	DD	00H
	DD	02H
	DD	FLAT:??_R2ITfUIElementSink@@8
rdata$r	ENDS
;	COMDAT ??_R0?AUITfUIElementSink@@@8
data$rs	SEGMENT
??_R0?AUITfUIElementSink@@@8 DD FLAT:??_7type_info@@6B@	; ITfUIElementSink `RTTI Type Descriptor'
	DD	00H
	DB	'.?AUITfUIElementSink@@', 00H
data$rs	ENDS
;	COMDAT ??_R1A@?0A@EA@ITfInputProcessorProfileActivationSink@@8
rdata$r	SEGMENT
??_R1A@?0A@EA@ITfInputProcessorProfileActivationSink@@8 DD FLAT:??_R0?AUITfInputProcessorProfileActivationSink@@@8 ; ITfInputProcessorProfileActivationSink::`RTTI Base Class Descriptor at (0,-1,0,64)'
	DD	01H
	DD	00H
	DD	0ffffffffH
	DD	00H
	DD	040H
	DD	FLAT:??_R3ITfInputProcessorProfileActivationSink@@8
rdata$r	ENDS
;	COMDAT ??_R2ITfInputProcessorProfileActivationSink@@8
rdata$r	SEGMENT
??_R2ITfInputProcessorProfileActivationSink@@8 DD FLAT:??_R1A@?0A@EA@ITfInputProcessorProfileActivationSink@@8 ; ITfInputProcessorProfileActivationSink::`RTTI Base Class Array'
	DD	FLAT:??_R1A@?0A@EA@IUnknown@@8
rdata$r	ENDS
;	COMDAT ??_R3ITfInputProcessorProfileActivationSink@@8
rdata$r	SEGMENT
??_R3ITfInputProcessorProfileActivationSink@@8 DD 00H	; ITfInputProcessorProfileActivationSink::`RTTI Class Hierarchy Descriptor'
	DD	00H
	DD	02H
	DD	FLAT:??_R2ITfInputProcessorProfileActivationSink@@8
rdata$r	ENDS
;	COMDAT ??_R0?AUITfInputProcessorProfileActivationSink@@@8
data$rs	SEGMENT
??_R0?AUITfInputProcessorProfileActivationSink@@@8 DD FLAT:??_7type_info@@6B@ ; ITfInputProcessorProfileActivationSink `RTTI Type Descriptor'
	DD	00H
	DB	'.?AUITfInputProcessorProfileActivationSink@@', 00H
data$rs	ENDS
;	COMDAT ??_R1A@?0A@EA@ITfCompartmentEventSink@@8
rdata$r	SEGMENT
??_R1A@?0A@EA@ITfCompartmentEventSink@@8 DD FLAT:??_R0?AUITfCompartmentEventSink@@@8 ; ITfCompartmentEventSink::`RTTI Base Class Descriptor at (0,-1,0,64)'
	DD	01H
	DD	00H
	DD	0ffffffffH
	DD	00H
	DD	040H
	DD	FLAT:??_R3ITfCompartmentEventSink@@8
rdata$r	ENDS
;	COMDAT ??_R2ITfCompartmentEventSink@@8
rdata$r	SEGMENT
??_R2ITfCompartmentEventSink@@8 DD FLAT:??_R1A@?0A@EA@ITfCompartmentEventSink@@8 ; ITfCompartmentEventSink::`RTTI Base Class Array'
	DD	FLAT:??_R1A@?0A@EA@IUnknown@@8
rdata$r	ENDS
;	COMDAT ??_R3ITfCompartmentEventSink@@8
rdata$r	SEGMENT
??_R3ITfCompartmentEventSink@@8 DD 00H			; ITfCompartmentEventSink::`RTTI Class Hierarchy Descriptor'
	DD	00H
	DD	02H
	DD	FLAT:??_R2ITfCompartmentEventSink@@8
rdata$r	ENDS
;	COMDAT ??_R0?AUITfCompartmentEventSink@@@8
data$rs	SEGMENT
??_R0?AUITfCompartmentEventSink@@@8 DD FLAT:??_7type_info@@6B@ ; ITfCompartmentEventSink `RTTI Type Descriptor'
	DD	00H
	DB	'.?AUITfCompartmentEventSink@@', 00H
data$rs	ENDS
;	COMDAT ??_R1A@?0A@EA@CIME@@8
rdata$r	SEGMENT
??_R1A@?0A@EA@CIME@@8 DD FLAT:??_R0?AVCIME@@@8		; CIME::`RTTI Base Class Descriptor at (0,-1,0,64)'
	DD	00H
	DD	00H
	DD	0ffffffffH
	DD	00H
	DD	040H
	DD	FLAT:??_R3CIME@@8
rdata$r	ENDS
;	COMDAT ??_R2CIME@@8
rdata$r	SEGMENT
??_R2CIME@@8 DD	FLAT:??_R1A@?0A@EA@CIME@@8		; CIME::`RTTI Base Class Array'
rdata$r	ENDS
;	COMDAT ??_R3CIME@@8
rdata$r	SEGMENT
??_R3CIME@@8 DD	00H					; CIME::`RTTI Class Hierarchy Descriptor'
	DD	00H
	DD	01H
	DD	FLAT:??_R2CIME@@8
rdata$r	ENDS
;	COMDAT ??_R0?AVCIME@@@8
data$rs	SEGMENT
??_R0?AVCIME@@@8 DD FLAT:??_7type_info@@6B@		; CIME `RTTI Type Descriptor'
	DD	00H
	DB	'.?AVCIME@@', 00H
data$rs	ENDS
;	COMDAT ??_R4CIME@@6B@
rdata$r	SEGMENT
??_R4CIME@@6B@ DD 00H					; CIME::`RTTI Complete Object Locator'
	DD	00H
	DD	00H
	DD	FLAT:??_R0?AVCIME@@@8
	DD	FLAT:??_R3CIME@@8
rdata$r	ENDS
;	COMDAT ??_R1A@?0A@EA@IUnknown@@8
rdata$r	SEGMENT
??_R1A@?0A@EA@IUnknown@@8 DD FLAT:??_R0?AUIUnknown@@@8	; IUnknown::`RTTI Base Class Descriptor at (0,-1,0,64)'
	DD	00H
	DD	00H
	DD	0ffffffffH
	DD	00H
	DD	040H
	DD	FLAT:??_R3IUnknown@@8
rdata$r	ENDS
;	COMDAT ??_R2IUnknown@@8
rdata$r	SEGMENT
??_R2IUnknown@@8 DD FLAT:??_R1A@?0A@EA@IUnknown@@8	; IUnknown::`RTTI Base Class Array'
rdata$r	ENDS
;	COMDAT ??_R3IUnknown@@8
rdata$r	SEGMENT
??_R3IUnknown@@8 DD 00H					; IUnknown::`RTTI Class Hierarchy Descriptor'
	DD	00H
	DD	01H
	DD	FLAT:??_R2IUnknown@@8
rdata$r	ENDS
;	COMDAT ??_R0?AUIUnknown@@@8
data$rs	SEGMENT
??_R0?AUIUnknown@@@8 DD FLAT:??_7type_info@@6B@		; IUnknown `RTTI Type Descriptor'
	DD	00H
	DB	'.?AUIUnknown@@', 00H
data$rs	ENDS
;	COMDAT ??_C@_0BA@FOIKENOD@vector?5too?5long@
CONST	SEGMENT
??_C@_0BA@FOIKENOD@vector?5too?5long@ DB 'vector too long', 00H ; `string'
CONST	ENDS
;	COMDAT ?_GUID_COMPARTMENT_KEYBOARD_INPUTMODE_CONVERSION@?1??GetCompartments@CTsfUiLessMode@@KAHPAPAUITfCompartmentMgr@@PAPAUITfCompartment@@1@Z@4U_GUID@@A
_DATA	SEGMENT
?_GUID_COMPARTMENT_KEYBOARD_INPUTMODE_CONVERSION@?1??GetCompartments@CTsfUiLessMode@@KAHPAPAUITfCompartmentMgr@@PAPAUITfCompartment@@1@Z@4U_GUID@@A DD 0ccf05dd8H ; `CTsfUiLessMode::GetCompartments'::`2'::_GUID_COMPARTMENT_KEYBOARD_INPUTMODE_CONVERSION
	DW	04a87H
	DW	011d7H
	DB	0a6H
	DB	0e2H
	DB	00H
	DB	06H
	DB	05bH
	DB	084H
	DB	043H
	DB	05cH
_DATA	ENDS
;	COMDAT __GUID_71c6e74c_0f28_11d8_a82a_00065b84435c
CONST	SEGMENT
__GUID_71c6e74c_0f28_11d8_a82a_00065b84435c DD 071c6e74cH
	DW	0f28H
	DW	011d8H
	DB	0a8H
	DB	02aH
	DB	00H
	DB	06H
	DB	05bH
	DB	084H
	DB	043H
	DB	05cH
CONST	ENDS
;	COMDAT __GUID_1f02b6c5_7842_4ee6_8a0b_9a24183a95ca
CONST	SEGMENT
__GUID_1f02b6c5_7842_4ee6_8a0b_9a24183a95ca DD 01f02b6c5H
	DW	07842H
	DW	04ee6H
	DB	08aH
	DB	0bH
	DB	09aH
	DB	024H
	DB	018H
	DB	03aH
	DB	095H
	DB	0caH
CONST	ENDS
;	COMDAT __GUID_ea1ea135_19df_11d7_a6d2_00065b84435c
CONST	SEGMENT
__GUID_ea1ea135_19df_11d7_a6d2_00065b84435c DD 0ea1ea135H
	DW	019dfH
	DW	011d7H
	DB	0a6H
	DB	0d2H
	DB	00H
	DB	06H
	DB	05bH
	DB	084H
	DB	043H
	DB	05cH
CONST	ENDS
;	COMDAT ?TF_PROFILE_DAYI@?1??OnActivated@CUIElementSink@CTsfUiLessMode@@UAGJKGABU_GUID@@00PAUHKL__@@K@Z@4U4@A
_DATA	SEGMENT
?TF_PROFILE_DAYI@?1??OnActivated@CUIElementSink@CTsfUiLessMode@@UAGJKGABU_GUID@@00PAUHKL__@@K@Z@4U4@A DD 037b2c25H ; `CTsfUiLessMode::CUIElementSink::OnActivated'::`2'::TF_PROFILE_DAYI
	DW	0480cH
	DW	04d7fH
	DB	0b0H
	DB	027H
	DB	0d6H
	DB	0caH
	DB	06bH
	DB	069H
	DB	078H
	DB	08aH
_DATA	ENDS
;	COMDAT __GUID_ea1ea138_19df_11d7_a6d2_00065b84435c
CONST	SEGMENT
__GUID_ea1ea138_19df_11d7_a6d2_00065b84435c DD 0ea1ea138H
	DW	019dfH
	DW	011d7H
	DB	0a6H
	DB	0d2H
	DB	00H
	DB	06H
	DB	05bH
	DB	084H
	DB	043H
	DB	05cH
CONST	ENDS
;	COMDAT __GUID_ea1ea139_19df_11d7_a6d2_00065b84435c
CONST	SEGMENT
__GUID_ea1ea139_19df_11d7_a6d2_00065b84435c DD 0ea1ea139H
	DW	019dfH
	DW	011d7H
	DB	0a6H
	DB	0d2H
	DB	00H
	DB	06H
	DB	05bH
	DB	084H
	DB	043H
	DB	05cH
CONST	ENDS
;	COMDAT __GUID_743abd5f_f26d_48df_8cc5_238492419b64
CONST	SEGMENT
__GUID_743abd5f_f26d_48df_8cc5_238492419b64 DD 0743abd5fH
	DW	0f26dH
	DW	048dfH
	DB	08cH
	DB	0c5H
	DB	023H
	DB	084H
	DB	092H
	DB	041H
	DB	09bH
	DB	064H
CONST	ENDS
;	COMDAT __GUID_71c6e74e_0f28_11d8_a82a_00065b84435c
CONST	SEGMENT
__GUID_71c6e74e_0f28_11d8_a82a_00065b84435c DD 071c6e74eH
	DW	0f28H
	DW	011d8H
	DB	0a8H
	DB	02aH
	DB	00H
	DB	06H
	DB	05bH
	DB	084H
	DB	043H
	DB	05cH
CONST	ENDS
;	COMDAT __GUID_ea1ea136_19df_11d7_a6d2_00065b84435c
CONST	SEGMENT
__GUID_ea1ea136_19df_11d7_a6d2_00065b84435c DD 0ea1ea136H
	DW	019dfH
	DW	011d7H
	DB	0a6H
	DB	0d2H
	DB	00H
	DB	06H
	DB	05bH
	DB	084H
	DB	043H
	DB	05cH
CONST	ENDS
;	COMDAT __GUID_4ea48a35_60ae_446f_8fd6_e6a8d82459f7
CONST	SEGMENT
__GUID_4ea48a35_60ae_446f_8fd6_e6a8d82459f7 DD 04ea48a35H
	DW	060aeH
	DW	0446fH
	DB	08fH
	DB	0d6H
	DB	0e6H
	DB	0a8H
	DB	0d8H
	DB	024H
	DB	059H
	DB	0f7H
CONST	ENDS
;	COMDAT __GUID_3e90ade3_7594_4cb0_bb58_69628f5f458c
CONST	SEGMENT
__GUID_3e90ade3_7594_4cb0_bb58_69628f5f458c DD 03e90ade3H
	DW	07594H
	DW	04cb0H
	DB	0bbH
	DB	058H
	DB	069H
	DB	062H
	DB	08fH
	DB	05fH
	DB	045H
	DB	08cH
CONST	ENDS
;	COMDAT ?s_uPrevCodePage@?1??CheckInputLocale@CIME@@KAXXZ@4IA
_DATA	SEGMENT
?s_uPrevCodePage@?1??CheckInputLocale@CIME@@KAXXZ@4IA DD 0ffffH ; `CIME::CheckInputLocale'::`2'::s_uPrevCodePage
_DATA	ENDS
;	COMDAT ??_C@_0BC@MEELNKEC@ShowReadingWindow@
CONST	SEGMENT
??_C@_0BC@MEELNKEC@ShowReadingWindow@ DB 'ShowReadingWindow', 00H ; `string'
CONST	ENDS
;	COMDAT ??_C@_0BB@EOIFCLLM@GetReadingString@
CONST	SEGMENT
??_C@_0BB@EOIFCLLM@GetReadingString@ DB 'GetReadingString', 00H ; `string'
CONST	ENDS
;	COMDAT ??_C@_0BC@KLAKFCEJ@GOOGLEPINYIN2?4IME@
CONST	SEGMENT
??_C@_0BC@KLAKFCEJ@GOOGLEPINYIN2?4IME@ DB 'GOOGLEPINYIN2.IME', 00H ; `string'
CONST	ENDS
;	COMDAT ??_C@_0M@IPABOCGB@SOGOUPY?4IME@
CONST	SEGMENT
??_C@_0M@IPABOCGB@SOGOUPY?4IME@ DB 'SOGOUPY.IME', 00H	; `string'
CONST	ENDS
;	COMDAT ??_C@_0N@EMABPIGL@QQPINYIN?4IME@
CONST	SEGMENT
??_C@_0N@EMABPIGL@QQPINYIN?4IME@ DB 'QQPINYIN.IME', 00H	; `string'
CONST	ENDS
;	COMDAT ??_C@_0BB@KFOMJFEN@Keyboard?5Mapping@
CONST	SEGMENT
??_C@_0BB@KFOMJFEN@Keyboard?5Mapping@ DB 'Keyboard Mapping', 00H ; `string'
CONST	ENDS
;	COMDAT ??_C@_08LMKCILHO@TINTLGNT@
CONST	SEGMENT
??_C@_08LMKCILHO@TINTLGNT@ DB 'TINTLGNT', 00H		; `string'
CONST	ENDS
;	COMDAT ??_C@_07DEJAPC@MSTCIPH@
CONST	SEGMENT
??_C@_07DEJAPC@MSTCIPH@ DB 'MSTCIPH', 00H		; `string'
CONST	ENDS
;	COMDAT ??_C@_0CL@PCFEMFCF@software?2microsoft?2windows?2curr@
CONST	SEGMENT
??_C@_0CL@PCFEMFCF@software?2microsoft?2windows?2curr@ DB 'software\micro'
	DB	'soft\windows\currentversion\', 00H		; `string'
CONST	ENDS
;	COMDAT ??_C@_01KICIPPFI@?2@
CONST	SEGMENT
??_C@_01KICIPPFI@?2@ DB '\', 00H			; `string'
CONST	ENDS
;	COMDAT ??_C@_0N@ONOBNHOE@MSSCIPYA?4IME@
CONST	SEGMENT
??_C@_0N@ONOBNHOE@MSSCIPYA?4IME@ DB 'MSSCIPYA.IME', 00H	; `string'
CONST	ENDS
;	COMDAT ??_C@_0N@JFHOELJF@PINTLGNT?4IME@
CONST	SEGMENT
??_C@_0N@JFHOELJF@PINTLGNT?4IME@ DB 'PINTLGNT.IME', 00H	; `string'
CONST	ENDS
;	COMDAT ??_C@_0N@FHDFFBN@MSTCIPHA?4IME@
CONST	SEGMENT
??_C@_0N@FHDFFBN@MSTCIPHA?4IME@ DB 'MSTCIPHA.IME', 00H	; `string'
CONST	ENDS
;	COMDAT ??_C@_0N@JMLDIBIB@CINTLGNT?4IME@
CONST	SEGMENT
??_C@_0N@JMLDIBIB@CINTLGNT?4IME@ DB 'CINTLGNT.IME', 00H	; `string'
CONST	ENDS
;	COMDAT ??_C@_0N@FFMHCBAD@TINTLGNT?4IME@
CONST	SEGMENT
??_C@_0N@FFMHCBAD@TINTLGNT?4IME@ DB 'TINTLGNT.IME', 00H	; `string'
CONST	ENDS
;	COMDAT ??_C@_11LOCGONAA@@
CONST	SEGMENT
??_C@_11LOCGONAA@@ DB 00H, 00H				; `string'
CONST	ENDS
;	COMDAT ??_C@_05EFEJGKEJ@?$EA9999@
CONST	SEGMENT
??_C@_05EFEJGKEJ@?$EA9999@ DB '@9999', 00H		; `string'
CONST	ENDS
;	COMDAT ??_C@_05JKJMOPAK@?$EA?$CF04d@
CONST	SEGMENT
??_C@_05JKJMOPAK@?$EA?$CF04d@ DB '@%04d', 00H		; `string'
CONST	ENDS
;	COMDAT ??_C@_0BL@MBEANDFB@ImmDisableTextFrameService@
CONST	SEGMENT
??_C@_0BL@MBEANDFB@ImmDisableTextFrameService@ DB 'ImmDisableTextFrameSer'
	DB	'vice', 00H					; `string'
CONST	ENDS
;	COMDAT ??_C@_0O@GKKOACL@ImmUnlockIMCC@
CONST	SEGMENT
??_C@_0O@GKKOACL@ImmUnlockIMCC@ DB 'ImmUnlockIMCC', 00H	; `string'
CONST	ENDS
;	COMDAT ??_C@_0M@OKKMJOGM@ImmLockIMCC@
CONST	SEGMENT
??_C@_0M@OKKMJOGM@ImmLockIMCC@ DB 'ImmLockIMCC', 00H	; `string'
CONST	ENDS
;	COMDAT ??_C@_0N@PDIACEGP@ImmUnlockIMC@
CONST	SEGMENT
??_C@_0N@PDIACEGP@ImmUnlockIMC@ DB 'ImmUnlockIMC', 00H	; `string'
CONST	ENDS
;	COMDAT ??_C@_0L@JGAMEFKO@ImmLockIMC@
CONST	SEGMENT
??_C@_0L@JGAMEFKO@ImmLockIMC@ DB 'ImmLockIMC', 00H	; `string'
CONST	ENDS
;	COMDAT ??_C@_0L@LPOFADGE@?2imm32?4dll@
CONST	SEGMENT
??_C@_0L@LPOFADGE@?2imm32?4dll@ DB '\imm32.dll', 00H	; `string'
CONST	ENDS
;	COMDAT __GUID_aa80e801_2021_11d2_93e0_0060b067b86e
CONST	SEGMENT
__GUID_aa80e801_2021_11d2_93e0_0060b067b86e DD 0aa80e801H
	DW	02021H
	DW	011d2H
	DB	093H
	DB	0e0H
	DB	00H
	DB	060H
	DB	0b0H
	DB	067H
	DB	0b8H
	DB	06eH
CONST	ENDS
;	COMDAT ??_7CUIElementSink@CTsfUiLessMode@@6BITfCompartmentEventSink@@@
CONST	SEGMENT
??_7CUIElementSink@CTsfUiLessMode@@6BITfCompartmentEventSink@@@ DD FLAT:??_R4CUIElementSink@CTsfUiLessMode@@6BITfCompartmentEventSink@@@ ; CTsfUiLessMode::CUIElementSink::`vftable'
	DD	FLAT:?QueryInterface@CUIElementSink@CTsfUiLessMode@@W7AGJABU_GUID@@PAPAX@Z
	DD	FLAT:?AddRef@CUIElementSink@CTsfUiLessMode@@W7AGKXZ
	DD	FLAT:?Release@CUIElementSink@CTsfUiLessMode@@W7AGKXZ
	DD	FLAT:?OnChange@CUIElementSink@CTsfUiLessMode@@UAGJABU_GUID@@@Z
CONST	ENDS
;	COMDAT ??_7CUIElementSink@CTsfUiLessMode@@6BITfInputProcessorProfileActivationSink@@@
CONST	SEGMENT
??_7CUIElementSink@CTsfUiLessMode@@6BITfInputProcessorProfileActivationSink@@@ DD FLAT:??_R4CUIElementSink@CTsfUiLessMode@@6BITfInputProcessorProfileActivationSink@@@ ; CTsfUiLessMode::CUIElementSink::`vftable'
	DD	FLAT:?QueryInterface@CUIElementSink@CTsfUiLessMode@@W3AGJABU_GUID@@PAPAX@Z
	DD	FLAT:?AddRef@CUIElementSink@CTsfUiLessMode@@W3AGKXZ
	DD	FLAT:?Release@CUIElementSink@CTsfUiLessMode@@W3AGKXZ
	DD	FLAT:?OnActivated@CUIElementSink@CTsfUiLessMode@@UAGJKGABU_GUID@@00PAUHKL__@@K@Z
CONST	ENDS
;	COMDAT ??_7CUIElementSink@CTsfUiLessMode@@6BITfUIElementSink@@@
CONST	SEGMENT
??_7CUIElementSink@CTsfUiLessMode@@6BITfUIElementSink@@@ DD FLAT:??_R4CUIElementSink@CTsfUiLessMode@@6BITfUIElementSink@@@ ; CTsfUiLessMode::CUIElementSink::`vftable'
	DD	FLAT:?QueryInterface@CUIElementSink@CTsfUiLessMode@@UAGJABU_GUID@@PAPAX@Z
	DD	FLAT:?AddRef@CUIElementSink@CTsfUiLessMode@@UAGKXZ
	DD	FLAT:?Release@CUIElementSink@CTsfUiLessMode@@UAGKXZ
	DD	FLAT:?BeginUIElement@CUIElementSink@CTsfUiLessMode@@UAGJKPAH@Z
	DD	FLAT:?UpdateUIElement@CUIElementSink@CTsfUiLessMode@@UAGJK@Z
	DD	FLAT:?EndUIElement@CUIElementSink@CTsfUiLessMode@@UAGJK@Z
CONST	ENDS
;	COMDAT ??_7CIME@@6B@
CONST	SEGMENT
??_7CIME@@6B@ DD FLAT:??_R4CIME@@6B@			; CIME::`vftable'
	DD	FLAT:??_ECIME@@UAEPAXI@Z
CONST	ENDS
;	COMDAT ??_R1A@?0A@EA@bad_array_new_length@std@@8
rdata$r	SEGMENT
??_R1A@?0A@EA@bad_array_new_length@std@@8 DD FLAT:??_R0?AVbad_array_new_length@std@@@8 ; std::bad_array_new_length::`RTTI Base Class Descriptor at (0,-1,0,64)'
	DD	02H
	DD	00H
	DD	0ffffffffH
	DD	00H
	DD	040H
	DD	FLAT:??_R3bad_array_new_length@std@@8
rdata$r	ENDS
;	COMDAT ??_R2bad_array_new_length@std@@8
rdata$r	SEGMENT
??_R2bad_array_new_length@std@@8 DD FLAT:??_R1A@?0A@EA@bad_array_new_length@std@@8 ; std::bad_array_new_length::`RTTI Base Class Array'
	DD	FLAT:??_R1A@?0A@EA@bad_alloc@std@@8
	DD	FLAT:??_R1A@?0A@EA@exception@std@@8
rdata$r	ENDS
;	COMDAT ??_R3bad_array_new_length@std@@8
rdata$r	SEGMENT
??_R3bad_array_new_length@std@@8 DD 00H			; std::bad_array_new_length::`RTTI Class Hierarchy Descriptor'
	DD	00H
	DD	03H
	DD	FLAT:??_R2bad_array_new_length@std@@8
rdata$r	ENDS
;	COMDAT ??_R4bad_array_new_length@std@@6B@
rdata$r	SEGMENT
??_R4bad_array_new_length@std@@6B@ DD 00H		; std::bad_array_new_length::`RTTI Complete Object Locator'
	DD	00H
	DD	00H
	DD	FLAT:??_R0?AVbad_array_new_length@std@@@8
	DD	FLAT:??_R3bad_array_new_length@std@@8
rdata$r	ENDS
;	COMDAT ??_R1A@?0A@EA@bad_alloc@std@@8
rdata$r	SEGMENT
??_R1A@?0A@EA@bad_alloc@std@@8 DD FLAT:??_R0?AVbad_alloc@std@@@8 ; std::bad_alloc::`RTTI Base Class Descriptor at (0,-1,0,64)'
	DD	01H
	DD	00H
	DD	0ffffffffH
	DD	00H
	DD	040H
	DD	FLAT:??_R3bad_alloc@std@@8
rdata$r	ENDS
;	COMDAT ??_R2bad_alloc@std@@8
rdata$r	SEGMENT
??_R2bad_alloc@std@@8 DD FLAT:??_R1A@?0A@EA@bad_alloc@std@@8 ; std::bad_alloc::`RTTI Base Class Array'
	DD	FLAT:??_R1A@?0A@EA@exception@std@@8
rdata$r	ENDS
;	COMDAT ??_R3bad_alloc@std@@8
rdata$r	SEGMENT
??_R3bad_alloc@std@@8 DD 00H				; std::bad_alloc::`RTTI Class Hierarchy Descriptor'
	DD	00H
	DD	02H
	DD	FLAT:??_R2bad_alloc@std@@8
rdata$r	ENDS
;	COMDAT ??_R4bad_alloc@std@@6B@
rdata$r	SEGMENT
??_R4bad_alloc@std@@6B@ DD 00H				; std::bad_alloc::`RTTI Complete Object Locator'
	DD	00H
	DD	00H
	DD	FLAT:??_R0?AVbad_alloc@std@@@8
	DD	FLAT:??_R3bad_alloc@std@@8
rdata$r	ENDS
;	COMDAT ??_R1A@?0A@EA@exception@std@@8
rdata$r	SEGMENT
??_R1A@?0A@EA@exception@std@@8 DD FLAT:??_R0?AVexception@std@@@8 ; std::exception::`RTTI Base Class Descriptor at (0,-1,0,64)'
	DD	00H
	DD	00H
	DD	0ffffffffH
	DD	00H
	DD	040H
	DD	FLAT:??_R3exception@std@@8
rdata$r	ENDS
;	COMDAT ??_R2exception@std@@8
rdata$r	SEGMENT
??_R2exception@std@@8 DD FLAT:??_R1A@?0A@EA@exception@std@@8 ; std::exception::`RTTI Base Class Array'
rdata$r	ENDS
;	COMDAT ??_R3exception@std@@8
rdata$r	SEGMENT
??_R3exception@std@@8 DD 00H				; std::exception::`RTTI Class Hierarchy Descriptor'
	DD	00H
	DD	01H
	DD	FLAT:??_R2exception@std@@8
rdata$r	ENDS
;	COMDAT ??_R4exception@std@@6B@
rdata$r	SEGMENT
??_R4exception@std@@6B@ DD 00H				; std::exception::`RTTI Complete Object Locator'
	DD	00H
	DD	00H
	DD	FLAT:??_R0?AVexception@std@@@8
	DD	FLAT:??_R3exception@std@@8
rdata$r	ENDS
;	COMDAT ??_C@_0BA@JFNIOLAK@string?5too?5long@
CONST	SEGMENT
??_C@_0BA@JFNIOLAK@string?5too?5long@ DB 'string too long', 00H ; `string'
CONST	ENDS
;	COMDAT __CT??_R0?AVexception@std@@@8??0exception@std@@QAE@ABV01@@Z12
xdata$x	SEGMENT
__CT??_R0?AVexception@std@@@8??0exception@std@@QAE@ABV01@@Z12 DD 00H
	DD	FLAT:??_R0?AVexception@std@@@8
	DD	00H
	DD	0ffffffffH
	ORG $+4
	DD	0cH
	DD	FLAT:??0exception@std@@QAE@ABV01@@Z
xdata$x	ENDS
;	COMDAT ??_R0?AVexception@std@@@8
data$r	SEGMENT
??_R0?AVexception@std@@@8 DD FLAT:??_7type_info@@6B@	; std::exception `RTTI Type Descriptor'
	DD	00H
	DB	'.?AVexception@std@@', 00H
data$r	ENDS
;	COMDAT __CT??_R0?AVbad_alloc@std@@@8??0bad_alloc@std@@QAE@ABV01@@Z12
xdata$x	SEGMENT
__CT??_R0?AVbad_alloc@std@@@8??0bad_alloc@std@@QAE@ABV01@@Z12 DD 010H
	DD	FLAT:??_R0?AVbad_alloc@std@@@8
	DD	00H
	DD	0ffffffffH
	ORG $+4
	DD	0cH
	DD	FLAT:??0bad_alloc@std@@QAE@ABV01@@Z
xdata$x	ENDS
;	COMDAT ??_R0?AVbad_alloc@std@@@8
data$r	SEGMENT
??_R0?AVbad_alloc@std@@@8 DD FLAT:??_7type_info@@6B@	; std::bad_alloc `RTTI Type Descriptor'
	DD	00H
	DB	'.?AVbad_alloc@std@@', 00H
data$r	ENDS
;	COMDAT __CT??_R0?AVbad_array_new_length@std@@@8??0bad_array_new_length@std@@QAE@ABV01@@Z12
xdata$x	SEGMENT
__CT??_R0?AVbad_array_new_length@std@@@8??0bad_array_new_length@std@@QAE@ABV01@@Z12 DD 00H
	DD	FLAT:??_R0?AVbad_array_new_length@std@@@8
	DD	00H
	DD	0ffffffffH
	ORG $+4
	DD	0cH
	DD	FLAT:??0bad_array_new_length@std@@QAE@ABV01@@Z
xdata$x	ENDS
;	COMDAT ??_R0?AVbad_array_new_length@std@@@8
data$r	SEGMENT
??_R0?AVbad_array_new_length@std@@@8 DD FLAT:??_7type_info@@6B@ ; std::bad_array_new_length `RTTI Type Descriptor'
	DD	00H
	DB	'.?AVbad_array_new_length@std@@', 00H
data$r	ENDS
;	COMDAT __CTA3?AVbad_array_new_length@std@@
xdata$x	SEGMENT
__CTA3?AVbad_array_new_length@std@@ DD 03H
	DD	FLAT:__CT??_R0?AVbad_array_new_length@std@@@8??0bad_array_new_length@std@@QAE@ABV01@@Z12
	DD	FLAT:__CT??_R0?AVbad_alloc@std@@@8??0bad_alloc@std@@QAE@ABV01@@Z12
	DD	FLAT:__CT??_R0?AVexception@std@@@8??0exception@std@@QAE@ABV01@@Z12
xdata$x	ENDS
;	COMDAT __TI3?AVbad_array_new_length@std@@
xdata$x	SEGMENT
__TI3?AVbad_array_new_length@std@@ DD 00H
	DD	FLAT:??1bad_array_new_length@std@@UAE@XZ
	DD	00H
	DD	FLAT:__CTA3?AVbad_array_new_length@std@@
xdata$x	ENDS
;	COMDAT ??_C@_0BF@KINCDENJ@bad?5array?5new?5length@
CONST	SEGMENT
??_C@_0BF@KINCDENJ@bad?5array?5new?5length@ DB 'bad array new length', 00H ; `string'
CONST	ENDS
;	COMDAT ??_7bad_array_new_length@std@@6B@
CONST	SEGMENT
??_7bad_array_new_length@std@@6B@ DD FLAT:??_R4bad_array_new_length@std@@6B@ ; std::bad_array_new_length::`vftable'
	DD	FLAT:??_Ebad_array_new_length@std@@UAEPAXI@Z
	DD	FLAT:?what@exception@std@@UBEPBDXZ
CONST	ENDS
;	COMDAT ??_7bad_alloc@std@@6B@
CONST	SEGMENT
??_7bad_alloc@std@@6B@ DD FLAT:??_R4bad_alloc@std@@6B@	; std::bad_alloc::`vftable'
	DD	FLAT:??_Ebad_alloc@std@@UAEPAXI@Z
	DD	FLAT:?what@exception@std@@UBEPBDXZ
CONST	ENDS
;	COMDAT ??_C@_0BC@EOODALEL@Unknown?5exception@
CONST	SEGMENT
??_C@_0BC@EOODALEL@Unknown?5exception@ DB 'Unknown exception', 00H ; `string'
CONST	ENDS
;	COMDAT ??_7exception@std@@6B@
CONST	SEGMENT
??_7exception@std@@6B@ DD FLAT:??_R4exception@std@@6B@	; std::exception::`vftable'
	DD	FLAT:??_Eexception@std@@UAEPAXI@Z
	DD	FLAT:?what@exception@std@@UBEPBDXZ
CONST	ENDS
;	COMDAT xdata$x
xdata$x	SEGMENT
__catchsym$??$_Resize_reallocate@U_Value_init_tag@std@@@?$vector@_WV?$allocator@_W@std@@@std@@AAEXIABU_Value_init_tag@1@@Z$26 DD 040H
	DD	00H
	DD	00H
	DD	FLAT:__catch$??$_Resize_reallocate@U_Value_init_tag@std@@@?$vector@_WV?$allocator@_W@std@@@std@@AAEXIABU_Value_init_tag@1@@Z$0
__unwindtable$??$_Resize_reallocate@U_Value_init_tag@std@@@?$vector@_WV?$allocator@_W@std@@@std@@AAEXIABU_Value_init_tag@1@@Z DD 0ffffffffH
	DD	00H
	DD	0ffffffffH
	DD	00H
__tryblocktable$??$_Resize_reallocate@U_Value_init_tag@std@@@?$vector@_WV?$allocator@_W@std@@@std@@AAEXIABU_Value_init_tag@1@@Z DD 00H
	DD	00H
	DD	01H
	DD	01H
	DD	FLAT:__catchsym$??$_Resize_reallocate@U_Value_init_tag@std@@@?$vector@_WV?$allocator@_W@std@@@std@@AAEXIABU_Value_init_tag@1@@Z$26
__ehfuncinfo$??$_Resize_reallocate@U_Value_init_tag@std@@@?$vector@_WV?$allocator@_W@std@@@std@@AAEXIABU_Value_init_tag@1@@Z DD 019930522H
	DD	02H
	DD	FLAT:__unwindtable$??$_Resize_reallocate@U_Value_init_tag@std@@@?$vector@_WV?$allocator@_W@std@@@std@@AAEXIABU_Value_init_tag@1@@Z
	DD	01H
	DD	FLAT:__tryblocktable$??$_Resize_reallocate@U_Value_init_tag@std@@@?$vector@_WV?$allocator@_W@std@@@std@@AAEXIABU_Value_init_tag@1@@Z
	DD	2 DUP(00H)
	DD	00H
	DD	01H
xdata$x	ENDS
;	COMDAT xdata$x
xdata$x	SEGMENT
__catchsym$??$_Resize_reallocate@U_Value_init_tag@std@@@?$vector@EV?$allocator@E@std@@@std@@AAEXIABU_Value_init_tag@1@@Z$26 DD 040H
	DD	00H
	DD	00H
	DD	FLAT:__catch$??$_Resize_reallocate@U_Value_init_tag@std@@@?$vector@EV?$allocator@E@std@@@std@@AAEXIABU_Value_init_tag@1@@Z$0
__unwindtable$??$_Resize_reallocate@U_Value_init_tag@std@@@?$vector@EV?$allocator@E@std@@@std@@AAEXIABU_Value_init_tag@1@@Z DD 0ffffffffH
	DD	00H
	DD	0ffffffffH
	DD	00H
__tryblocktable$??$_Resize_reallocate@U_Value_init_tag@std@@@?$vector@EV?$allocator@E@std@@@std@@AAEXIABU_Value_init_tag@1@@Z DD 00H
	DD	00H
	DD	01H
	DD	01H
	DD	FLAT:__catchsym$??$_Resize_reallocate@U_Value_init_tag@std@@@?$vector@EV?$allocator@E@std@@@std@@AAEXIABU_Value_init_tag@1@@Z$26
__ehfuncinfo$??$_Resize_reallocate@U_Value_init_tag@std@@@?$vector@EV?$allocator@E@std@@@std@@AAEXIABU_Value_init_tag@1@@Z DD 019930522H
	DD	02H
	DD	FLAT:__unwindtable$??$_Resize_reallocate@U_Value_init_tag@std@@@?$vector@EV?$allocator@E@std@@@std@@AAEXIABU_Value_init_tag@1@@Z
	DD	01H
	DD	FLAT:__tryblocktable$??$_Resize_reallocate@U_Value_init_tag@std@@@?$vector@EV?$allocator@E@std@@@std@@AAEXIABU_Value_init_tag@1@@Z
	DD	2 DUP(00H)
	DD	00H
	DD	01H
xdata$x	ENDS
;	COMDAT xdata$x
xdata$x	SEGMENT
__catchsym$??$_Emplace_reallocate@AB_W@?$vector@_WV?$allocator@_W@std@@@std@@QAEPA_WQA_WAB_W@Z$32 DD 040H
	DD	00H
	DD	00H
	DD	FLAT:__catch$??$_Emplace_reallocate@AB_W@?$vector@_WV?$allocator@_W@std@@@std@@QAEPA_WQA_WAB_W@Z$0
__unwindtable$??$_Emplace_reallocate@AB_W@?$vector@_WV?$allocator@_W@std@@@std@@QAEPA_WQA_WAB_W@Z DD 0ffffffffH
	DD	00H
	DD	0ffffffffH
	DD	00H
__tryblocktable$??$_Emplace_reallocate@AB_W@?$vector@_WV?$allocator@_W@std@@@std@@QAEPA_WQA_WAB_W@Z DD 00H
	DD	00H
	DD	01H
	DD	01H
	DD	FLAT:__catchsym$??$_Emplace_reallocate@AB_W@?$vector@_WV?$allocator@_W@std@@@std@@QAEPA_WQA_WAB_W@Z$32
__ehfuncinfo$??$_Emplace_reallocate@AB_W@?$vector@_WV?$allocator@_W@std@@@std@@QAEPA_WQA_WAB_W@Z DD 019930522H
	DD	02H
	DD	FLAT:__unwindtable$??$_Emplace_reallocate@AB_W@?$vector@_WV?$allocator@_W@std@@@std@@QAEPA_WQA_WAB_W@Z
	DD	01H
	DD	FLAT:__tryblocktable$??$_Emplace_reallocate@AB_W@?$vector@_WV?$allocator@_W@std@@@std@@QAEPA_WQA_WAB_W@Z
	DD	2 DUP(00H)
	DD	00H
	DD	01H
xdata$x	ENDS
;	COMDAT xdata$x
xdata$x	SEGMENT
__unwindtable$??__Fg_disableCicero@@YAXXZ DD 0ffffffffH
	DD	FLAT:___std_terminate
__ehfuncinfo$??__Fg_disableCicero@@YAXXZ DD 019930522H
	DD	01H
	DD	FLAT:__unwindtable$??__Fg_disableCicero@@YAXXZ
	DD	2 DUP(00H)
	DD	2 DUP(00H)
	DD	00H
	DD	01H
xdata$x	ENDS
;	COMDAT xdata$x
xdata$x	SEGMENT
__unwindtable$?SetupSinks@CTsfUiLessMode@@SAHXZ DD 0ffffffffH
	DD	FLAT:__unwindfunclet$?SetupSinks@CTsfUiLessMode@@SAHXZ$0
__ehfuncinfo$?SetupSinks@CTsfUiLessMode@@SAHXZ DD 019930522H
	DD	01H
	DD	FLAT:__unwindtable$?SetupSinks@CTsfUiLessMode@@SAHXZ
	DD	2 DUP(00H)
	DD	2 DUP(00H)
	DD	00H
	DD	01H
xdata$x	ENDS
;	COMDAT xdata$x
xdata$x	SEGMENT
__unwindtable$?IsMax@CIME@@IAE_NPB_WH@Z DD 0ffffffffH
	DD	FLAT:__unwindfunclet$?IsMax@CIME@@IAE_NPB_WH@Z$0
__ehfuncinfo$?IsMax@CIME@@IAE_NPB_WH@Z DD 019930522H
	DD	01H
	DD	FLAT:__unwindtable$?IsMax@CIME@@IAE_NPB_WH@Z
	DD	2 DUP(00H)
	DD	2 DUP(00H)
	DD	00H
	DD	01H
xdata$x	ENDS
;	COMDAT xdata$x
xdata$x	SEGMENT
__unwindtable$?CandidateProcess@CIME@@IAEXPAUHIMC__@@@Z DD 0ffffffffH
	DD	FLAT:__unwindfunclet$?CandidateProcess@CIME@@IAEXPAUHIMC__@@@Z$0
__ehfuncinfo$?CandidateProcess@CIME@@IAEXPAUHIMC__@@@Z DD 019930522H
	DD	01H
	DD	FLAT:__unwindtable$?CandidateProcess@CIME@@IAEXPAUHIMC__@@@Z
	DD	2 DUP(00H)
	DD	2 DUP(00H)
	DD	00H
	DD	01H
xdata$x	ENDS
;	COMDAT xdata$x
xdata$x	SEGMENT
__unwindtable$?PasteTextFromClipBoard@CIME@@QAEXXZ DD 0ffffffffH
	DD	FLAT:__unwindfunclet$?PasteTextFromClipBoard@CIME@@QAEXXZ$0
__ehfuncinfo$?PasteTextFromClipBoard@CIME@@QAEXXZ DD 019930522H
	DD	01H
	DD	FLAT:__unwindtable$?PasteTextFromClipBoard@CIME@@QAEXXZ
	DD	2 DUP(00H)
	DD	2 DUP(00H)
	DD	00H
	DD	01H
xdata$x	ENDS
;	COMDAT xdata$x
xdata$x	SEGMENT
__unwindtable$??0CIME@@QAE@XZ DD 0ffffffffH
	DD	FLAT:__unwindfunclet$??0CIME@@QAE@XZ$0
__ehfuncinfo$??0CIME@@QAE@XZ DD 019930522H
	DD	01H
	DD	FLAT:__unwindtable$??0CIME@@QAE@XZ
	DD	2 DUP(00H)
	DD	2 DUP(00H)
	DD	00H
	DD	01H
xdata$x	ENDS
;	COMDAT xdata$x
xdata$x	SEGMENT
__ehfuncinfo$??$_Deallocate@$07$0A@@std@@YAXPAXI@Z DD 019930522H
	DD	00H
	DD	00H
	DD	2 DUP(00H)
	DD	2 DUP(00H)
	DD	00H
	DD	05H
xdata$x	ENDS
;	COMDAT xdata$x
xdata$x	SEGMENT
__unwindtable$??0?$basic_string@DU?$char_traits@D@std@@V?$allocator@D@2@@std@@QAE@QBD@Z DD 0ffffffffH
	DD	FLAT:__unwindfunclet$??0?$basic_string@DU?$char_traits@D@std@@V?$allocator@D@2@@std@@QAE@QBD@Z$0
__ehfuncinfo$??0?$basic_string@DU?$char_traits@D@std@@V?$allocator@D@2@@std@@QAE@QBD@Z DD 019930522H
	DD	01H
	DD	FLAT:__unwindtable$??0?$basic_string@DU?$char_traits@D@std@@V?$allocator@D@2@@std@@QAE@QBD@Z
	DD	2 DUP(00H)
	DD	2 DUP(00H)
	DD	00H
	DD	01H
xdata$x	ENDS
CRT$XCU	SEGMENT
?g_disableCicero$initializer$@@3P6AXXZA DD FLAT:??__Eg_disableCicero@@YAXXZ ; g_disableCicero$initializer$
CRT$XCU	ENDS
; Function compile flags: /Odspy
;	COMDAT ?Release@CUIElementSink@CTsfUiLessMode@@W7AGKXZ
_TEXT	SEGMENT
?Release@CUIElementSink@CTsfUiLessMode@@W7AGKXZ PROC	; [thunk]:CTsfUiLessMode::CUIElementSink::Release`adjustor{8}', COMDAT
  00000	83 6c 24 04 08	 sub	 DWORD PTR [esp+4], 8
  00005	e9 00 00 00 00	 jmp	 ?Release@CUIElementSink@CTsfUiLessMode@@UAGKXZ ; CTsfUiLessMode::CUIElementSink::Release
?Release@CUIElementSink@CTsfUiLessMode@@W7AGKXZ ENDP	; [thunk]:CTsfUiLessMode::CUIElementSink::Release`adjustor{8}'
_TEXT	ENDS
; Function compile flags: /Odspy
;	COMDAT ?AddRef@CUIElementSink@CTsfUiLessMode@@W7AGKXZ
_TEXT	SEGMENT
?AddRef@CUIElementSink@CTsfUiLessMode@@W7AGKXZ PROC	; [thunk]:CTsfUiLessMode::CUIElementSink::AddRef`adjustor{8}', COMDAT
  00000	83 6c 24 04 08	 sub	 DWORD PTR [esp+4], 8
  00005	e9 00 00 00 00	 jmp	 ?AddRef@CUIElementSink@CTsfUiLessMode@@UAGKXZ ; CTsfUiLessMode::CUIElementSink::AddRef
?AddRef@CUIElementSink@CTsfUiLessMode@@W7AGKXZ ENDP	; [thunk]:CTsfUiLessMode::CUIElementSink::AddRef`adjustor{8}'
_TEXT	ENDS
; Function compile flags: /Odspy
;	COMDAT ?QueryInterface@CUIElementSink@CTsfUiLessMode@@W7AGJABU_GUID@@PAPAX@Z
_TEXT	SEGMENT
?QueryInterface@CUIElementSink@CTsfUiLessMode@@W7AGJABU_GUID@@PAPAX@Z PROC ; [thunk]:CTsfUiLessMode::CUIElementSink::QueryInterface`adjustor{8}', COMDAT
  00000	83 6c 24 04 08	 sub	 DWORD PTR [esp+4], 8
  00005	e9 00 00 00 00	 jmp	 ?QueryInterface@CUIElementSink@CTsfUiLessMode@@UAGJABU_GUID@@PAPAX@Z ; CTsfUiLessMode::CUIElementSink::QueryInterface
?QueryInterface@CUIElementSink@CTsfUiLessMode@@W7AGJABU_GUID@@PAPAX@Z ENDP ; [thunk]:CTsfUiLessMode::CUIElementSink::QueryInterface`adjustor{8}'
_TEXT	ENDS
; Function compile flags: /Odspy
;	COMDAT ?Release@CUIElementSink@CTsfUiLessMode@@W3AGKXZ
_TEXT	SEGMENT
?Release@CUIElementSink@CTsfUiLessMode@@W3AGKXZ PROC	; [thunk]:CTsfUiLessMode::CUIElementSink::Release`adjustor{4}', COMDAT
  00000	83 6c 24 04 04	 sub	 DWORD PTR [esp+4], 4
  00005	e9 00 00 00 00	 jmp	 ?Release@CUIElementSink@CTsfUiLessMode@@UAGKXZ ; CTsfUiLessMode::CUIElementSink::Release
?Release@CUIElementSink@CTsfUiLessMode@@W3AGKXZ ENDP	; [thunk]:CTsfUiLessMode::CUIElementSink::Release`adjustor{4}'
_TEXT	ENDS
; Function compile flags: /Odspy
;	COMDAT ?AddRef@CUIElementSink@CTsfUiLessMode@@W3AGKXZ
_TEXT	SEGMENT
?AddRef@CUIElementSink@CTsfUiLessMode@@W3AGKXZ PROC	; [thunk]:CTsfUiLessMode::CUIElementSink::AddRef`adjustor{4}', COMDAT
  00000	83 6c 24 04 04	 sub	 DWORD PTR [esp+4], 4
  00005	e9 00 00 00 00	 jmp	 ?AddRef@CUIElementSink@CTsfUiLessMode@@UAGKXZ ; CTsfUiLessMode::CUIElementSink::AddRef
?AddRef@CUIElementSink@CTsfUiLessMode@@W3AGKXZ ENDP	; [thunk]:CTsfUiLessMode::CUIElementSink::AddRef`adjustor{4}'
_TEXT	ENDS
; Function compile flags: /Odspy
;	COMDAT ?QueryInterface@CUIElementSink@CTsfUiLessMode@@W3AGJABU_GUID@@PAPAX@Z
_TEXT	SEGMENT
?QueryInterface@CUIElementSink@CTsfUiLessMode@@W3AGJABU_GUID@@PAPAX@Z PROC ; [thunk]:CTsfUiLessMode::CUIElementSink::QueryInterface`adjustor{4}', COMDAT
  00000	83 6c 24 04 04	 sub	 DWORD PTR [esp+4], 4
  00005	e9 00 00 00 00	 jmp	 ?QueryInterface@CUIElementSink@CTsfUiLessMode@@UAGJABU_GUID@@PAPAX@Z ; CTsfUiLessMode::CUIElementSink::QueryInterface
?QueryInterface@CUIElementSink@CTsfUiLessMode@@W3AGJABU_GUID@@PAPAX@Z ENDP ; [thunk]:CTsfUiLessMode::CUIElementSink::QueryInterface`adjustor{4}'
_TEXT	ENDS
; Function compile flags: /Odspy
; File C:\Program Files (x86)\Microsoft Visual Studio\2019\Community\VC\Tools\MSVC\14.28.29333\include\xutility
;	COMDAT ??$_Copy_memmove@PAEPAE@std@@YAPAEPAE00@Z
_TEXT	SEGMENT
__Last_ch$ = -16					; size = 4
__Count$ = -12						; size = 4
__Dest_ch$ = -8						; size = 4
__First_ch$ = -4					; size = 4
__First$ = 8						; size = 4
__Last$ = 12						; size = 4
__Dest$ = 16						; size = 4
??$_Copy_memmove@PAEPAE@std@@YAPAEPAE00@Z PROC		; std::_Copy_memmove<unsigned char *,unsigned char *>, COMDAT

; 4360 : _OutIt _Copy_memmove(_InIt _First, _InIt _Last, _OutIt _Dest) {

  00000	55		 push	 ebp
  00001	8b ec		 mov	 ebp, esp
  00003	83 ec 10	 sub	 esp, 16			; 00000010H

; 4361 :     const char* const _First_ch = const_cast<const char*>(reinterpret_cast<const volatile char*>(_First));

  00006	8b 45 08	 mov	 eax, DWORD PTR __First$[ebp]
  00009	89 45 fc	 mov	 DWORD PTR __First_ch$[ebp], eax

; 4362 :     const char* const _Last_ch  = const_cast<const char*>(reinterpret_cast<const volatile char*>(_Last));

  0000c	8b 45 0c	 mov	 eax, DWORD PTR __Last$[ebp]
  0000f	89 45 f0	 mov	 DWORD PTR __Last_ch$[ebp], eax

; 4363 :     char* const _Dest_ch        = const_cast<char*>(reinterpret_cast<volatile char*>(_Dest));

  00012	8b 45 10	 mov	 eax, DWORD PTR __Dest$[ebp]
  00015	89 45 f8	 mov	 DWORD PTR __Dest_ch$[ebp], eax

; 4364 :     const auto _Count           = static_cast<size_t>(_Last_ch - _First_ch);

  00018	8b 45 f0	 mov	 eax, DWORD PTR __Last_ch$[ebp]
  0001b	2b 45 fc	 sub	 eax, DWORD PTR __First_ch$[ebp]
  0001e	89 45 f4	 mov	 DWORD PTR __Count$[ebp], eax

; 4365 :     _CSTD memmove(_Dest_ch, _First_ch, _Count);

  00021	ff 75 f4	 push	 DWORD PTR __Count$[ebp]
  00024	ff 75 fc	 push	 DWORD PTR __First_ch$[ebp]
  00027	ff 75 f8	 push	 DWORD PTR __Dest_ch$[ebp]
  0002a	e8 00 00 00 00	 call	 _memmove
  0002f	83 c4 0c	 add	 esp, 12			; 0000000cH

; 4366 :     return reinterpret_cast<_OutIt>(_Dest_ch + _Count);

  00032	8b 45 f8	 mov	 eax, DWORD PTR __Dest_ch$[ebp]
  00035	03 45 f4	 add	 eax, DWORD PTR __Count$[ebp]

; 4367 : }

  00038	c9		 leave
  00039	c3		 ret	 0
??$_Copy_memmove@PAEPAE@std@@YAPAEPAE00@Z ENDP		; std::_Copy_memmove<unsigned char *,unsigned char *>
_TEXT	ENDS
; Function compile flags: /Odspy
; File C:\Program Files (x86)\Microsoft Visual Studio\2019\Community\VC\Tools\MSVC\14.28.29333\include\xmemory
; File C:\Program Files (x86)\Microsoft Visual Studio\2019\Community\VC\Tools\MSVC\14.28.29333\include\xstddef
; File C:\Program Files (x86)\Microsoft Visual Studio\2019\Community\VC\Tools\MSVC\14.28.29333\include\xmemory
;	COMDAT ??$_Uninitialized_move@PAEV?$allocator@E@std@@@std@@YAPAEQAE0PAEAAV?$allocator@E@0@@Z
_TEXT	SEGMENT
$T1 = -12						; size = 4
__UFirst$ = -8						; size = 4
__ULast$ = -4						; size = 4
__First$ = 8						; size = 4
__Last$ = 12						; size = 4
__Dest$ = 16						; size = 4
__Al$ = 20						; size = 4
??$_Uninitialized_move@PAEV?$allocator@E@std@@@std@@YAPAEQAE0PAEAAV?$allocator@E@0@@Z PROC ; std::_Uninitialized_move<unsigned char *,std::allocator<unsigned char> >, COMDAT

; 1685 :     const _InIt _First, const _InIt _Last, _Alloc_ptr_t<_Alloc> _Dest, _Alloc& _Al) {

  00000	55		 push	 ebp
  00001	8b ec		 mov	 ebp, esp
  00003	83 ec 0c	 sub	 esp, 12			; 0000000cH

; 1686 :     // move [_First, _Last) to raw _Dest, using _Al
; 1687 :     // note: only called internally from elsewhere in the STL
; 1688 :     using _Ptrval     = typename _Alloc::value_type*;
; 1689 :     auto _UFirst      = _Get_unwrapped(_First);

  00006	8b 45 08	 mov	 eax, DWORD PTR __First$[ebp]
  00009	89 45 f8	 mov	 DWORD PTR __UFirst$[ebp], eax

; 1690 :     const auto _ULast = _Get_unwrapped(_Last);

  0000c	8b 45 0c	 mov	 eax, DWORD PTR __Last$[ebp]
  0000f	89 45 fc	 mov	 DWORD PTR __ULast$[ebp], eax
; File C:\Program Files (x86)\Microsoft Visual Studio\2019\Community\VC\Tools\MSVC\14.28.29333\include\xstddef

; 289  :     return _Ptr;

  00012	8b 45 10	 mov	 eax, DWORD PTR __Dest$[ebp]
  00015	89 45 f4	 mov	 DWORD PTR $T1[ebp], eax
; File C:\Program Files (x86)\Microsoft Visual Studio\2019\Community\VC\Tools\MSVC\14.28.29333\include\xmemory

; 1693 :         _Copy_memmove(_UFirst, _ULast, _Unfancy(_Dest));

  00018	ff 75 f4	 push	 DWORD PTR $T1[ebp]
  0001b	ff 75 fc	 push	 DWORD PTR __ULast$[ebp]
  0001e	ff 75 f8	 push	 DWORD PTR __UFirst$[ebp]
  00021	e8 00 00 00 00	 call	 ??$_Copy_memmove@PAEPAE@std@@YAPAEPAE00@Z ; std::_Copy_memmove<unsigned char *,unsigned char *>
  00026	83 c4 0c	 add	 esp, 12			; 0000000cH

; 1694 :         return _Dest + (_ULast - _UFirst);

  00029	8b 45 fc	 mov	 eax, DWORD PTR __ULast$[ebp]
  0002c	2b 45 f8	 sub	 eax, DWORD PTR __UFirst$[ebp]
  0002f	03 45 10	 add	 eax, DWORD PTR __Dest$[ebp]

; 1695 :     } else {
; 1696 :         _Uninitialized_backout_al<_Alloc> _Backout{_Dest, _Al};
; 1697 :         for (; _UFirst != _ULast; ++_UFirst) {
; 1698 :             _Backout._Emplace_back(_STD move(*_UFirst));
; 1699 :         }
; 1700 : 
; 1701 :         return _Backout._Release();
; 1702 :     }
; 1703 : }

  00032	c9		 leave
  00033	c3		 ret	 0
??$_Uninitialized_move@PAEV?$allocator@E@std@@@std@@YAPAEQAE0PAEAAV?$allocator@E@0@@Z ENDP ; std::_Uninitialized_move<unsigned char *,std::allocator<unsigned char> >
_TEXT	ENDS
; Function compile flags: /Odspy
; File C:\Program Files (x86)\Microsoft Visual Studio\2019\Community\VC\Tools\MSVC\14.28.29333\include\xmemory
;	COMDAT ??$_Zero_range@PA_W@std@@YAPA_WQA_W0@Z
_TEXT	SEGMENT
__Last_ch$ = -8						; size = 4
__First_ch$ = -4					; size = 4
__First$ = 8						; size = 4
__Last$ = 12						; size = 4
??$_Zero_range@PA_W@std@@YAPA_WQA_W0@Z PROC		; std::_Zero_range<wchar_t *>, COMDAT

; 1852 : _Ptr _Zero_range(const _Ptr _First, const _Ptr _Last) { // fill [_First, _Last) with zeroes

  00000	55		 push	 ebp
  00001	8b ec		 mov	 ebp, esp
  00003	51		 push	 ecx
  00004	51		 push	 ecx

; 1853 :     char* const _First_ch = reinterpret_cast<char*>(_First);

  00005	8b 45 08	 mov	 eax, DWORD PTR __First$[ebp]
  00008	89 45 fc	 mov	 DWORD PTR __First_ch$[ebp], eax

; 1854 :     char* const _Last_ch  = reinterpret_cast<char*>(_Last);

  0000b	8b 45 0c	 mov	 eax, DWORD PTR __Last$[ebp]
  0000e	89 45 f8	 mov	 DWORD PTR __Last_ch$[ebp], eax

; 1855 :     _CSTD memset(_First_ch, 0, static_cast<size_t>(_Last_ch - _First_ch));

  00011	8b 45 f8	 mov	 eax, DWORD PTR __Last_ch$[ebp]
  00014	2b 45 fc	 sub	 eax, DWORD PTR __First_ch$[ebp]
  00017	50		 push	 eax
  00018	6a 00		 push	 0
  0001a	ff 75 fc	 push	 DWORD PTR __First_ch$[ebp]
  0001d	e8 00 00 00 00	 call	 _memset
  00022	83 c4 0c	 add	 esp, 12			; 0000000cH

; 1856 :     return _Last;

  00025	8b 45 0c	 mov	 eax, DWORD PTR __Last$[ebp]

; 1857 : }

  00028	c9		 leave
  00029	c3		 ret	 0
??$_Zero_range@PA_W@std@@YAPA_WQA_W0@Z ENDP		; std::_Zero_range<wchar_t *>
_TEXT	ENDS
; Function compile flags: /Odspy
; File C:\Program Files (x86)\Microsoft Visual Studio\2019\Community\VC\Tools\MSVC\14.28.29333\include\xmemory
;	COMDAT ??$_Zero_range@PAE@std@@YAPAEQAE0@Z
_TEXT	SEGMENT
__Last_ch$ = -8						; size = 4
__First_ch$ = -4					; size = 4
__First$ = 8						; size = 4
__Last$ = 12						; size = 4
??$_Zero_range@PAE@std@@YAPAEQAE0@Z PROC		; std::_Zero_range<unsigned char *>, COMDAT

; 1852 : _Ptr _Zero_range(const _Ptr _First, const _Ptr _Last) { // fill [_First, _Last) with zeroes

  00000	55		 push	 ebp
  00001	8b ec		 mov	 ebp, esp
  00003	51		 push	 ecx
  00004	51		 push	 ecx

; 1853 :     char* const _First_ch = reinterpret_cast<char*>(_First);

  00005	8b 45 08	 mov	 eax, DWORD PTR __First$[ebp]
  00008	89 45 fc	 mov	 DWORD PTR __First_ch$[ebp], eax

; 1854 :     char* const _Last_ch  = reinterpret_cast<char*>(_Last);

  0000b	8b 45 0c	 mov	 eax, DWORD PTR __Last$[ebp]
  0000e	89 45 f8	 mov	 DWORD PTR __Last_ch$[ebp], eax

; 1855 :     _CSTD memset(_First_ch, 0, static_cast<size_t>(_Last_ch - _First_ch));

  00011	8b 45 f8	 mov	 eax, DWORD PTR __Last_ch$[ebp]
  00014	2b 45 fc	 sub	 eax, DWORD PTR __First_ch$[ebp]
  00017	50		 push	 eax
  00018	6a 00		 push	 0
  0001a	ff 75 fc	 push	 DWORD PTR __First_ch$[ebp]
  0001d	e8 00 00 00 00	 call	 _memset
  00022	83 c4 0c	 add	 esp, 12			; 0000000cH

; 1856 :     return _Last;

  00025	8b 45 0c	 mov	 eax, DWORD PTR __Last$[ebp]

; 1857 : }

  00028	c9		 leave
  00029	c3		 ret	 0
??$_Zero_range@PAE@std@@YAPAEQAE0@Z ENDP		; std::_Zero_range<unsigned char *>
_TEXT	ENDS
; Function compile flags: /Odspy
; File C:\Program Files (x86)\Microsoft Visual Studio\2019\Community\VC\Tools\MSVC\14.28.29333\include\xmemory
;	COMDAT ??$_Refancy@PA_W$0A@@std@@YAPA_WPA_W@Z
_TEXT	SEGMENT
__Ptr$ = 8						; size = 4
??$_Refancy@PA_W$0A@@std@@YAPA_WPA_W@Z PROC		; std::_Refancy<wchar_t *,0>, COMDAT

; 261  : _Pointer _Refancy(_Pointer _Ptr) noexcept {

  00000	55		 push	 ebp
  00001	8b ec		 mov	 ebp, esp

; 262  :     return _Ptr;

  00003	8b 45 08	 mov	 eax, DWORD PTR __Ptr$[ebp]

; 263  : }

  00006	5d		 pop	 ebp
  00007	c3		 ret	 0
??$_Refancy@PA_W$0A@@std@@YAPA_WPA_W@Z ENDP		; std::_Refancy<wchar_t *,0>
_TEXT	ENDS
; Function compile flags: /Odspy
; File C:\Program Files (x86)\Microsoft Visual Studio\2019\Community\VC\Tools\MSVC\14.28.29333\include\xutility
;	COMDAT ??$_Copy_memmove@PA_WPA_W@std@@YAPA_WPA_W00@Z
_TEXT	SEGMENT
__Last_ch$ = -16					; size = 4
__Count$ = -12						; size = 4
__Dest_ch$ = -8						; size = 4
__First_ch$ = -4					; size = 4
__First$ = 8						; size = 4
__Last$ = 12						; size = 4
__Dest$ = 16						; size = 4
??$_Copy_memmove@PA_WPA_W@std@@YAPA_WPA_W00@Z PROC	; std::_Copy_memmove<wchar_t *,wchar_t *>, COMDAT

; 4360 : _OutIt _Copy_memmove(_InIt _First, _InIt _Last, _OutIt _Dest) {

  00000	55		 push	 ebp
  00001	8b ec		 mov	 ebp, esp
  00003	83 ec 10	 sub	 esp, 16			; 00000010H

; 4361 :     const char* const _First_ch = const_cast<const char*>(reinterpret_cast<const volatile char*>(_First));

  00006	8b 45 08	 mov	 eax, DWORD PTR __First$[ebp]
  00009	89 45 fc	 mov	 DWORD PTR __First_ch$[ebp], eax

; 4362 :     const char* const _Last_ch  = const_cast<const char*>(reinterpret_cast<const volatile char*>(_Last));

  0000c	8b 45 0c	 mov	 eax, DWORD PTR __Last$[ebp]
  0000f	89 45 f0	 mov	 DWORD PTR __Last_ch$[ebp], eax

; 4363 :     char* const _Dest_ch        = const_cast<char*>(reinterpret_cast<volatile char*>(_Dest));

  00012	8b 45 10	 mov	 eax, DWORD PTR __Dest$[ebp]
  00015	89 45 f8	 mov	 DWORD PTR __Dest_ch$[ebp], eax

; 4364 :     const auto _Count           = static_cast<size_t>(_Last_ch - _First_ch);

  00018	8b 45 f0	 mov	 eax, DWORD PTR __Last_ch$[ebp]
  0001b	2b 45 fc	 sub	 eax, DWORD PTR __First_ch$[ebp]
  0001e	89 45 f4	 mov	 DWORD PTR __Count$[ebp], eax

; 4365 :     _CSTD memmove(_Dest_ch, _First_ch, _Count);

  00021	ff 75 f4	 push	 DWORD PTR __Count$[ebp]
  00024	ff 75 fc	 push	 DWORD PTR __First_ch$[ebp]
  00027	ff 75 f8	 push	 DWORD PTR __Dest_ch$[ebp]
  0002a	e8 00 00 00 00	 call	 _memmove
  0002f	83 c4 0c	 add	 esp, 12			; 0000000cH

; 4366 :     return reinterpret_cast<_OutIt>(_Dest_ch + _Count);

  00032	8b 45 f8	 mov	 eax, DWORD PTR __Dest_ch$[ebp]
  00035	03 45 f4	 add	 eax, DWORD PTR __Count$[ebp]

; 4367 : }

  00038	c9		 leave
  00039	c3		 ret	 0
??$_Copy_memmove@PA_WPA_W@std@@YAPA_WPA_W00@Z ENDP	; std::_Copy_memmove<wchar_t *,wchar_t *>
_TEXT	ENDS
; Function compile flags: /Odspy
; File C:\Program Files (x86)\Microsoft Visual Studio\2019\Community\VC\Tools\MSVC\14.28.29333\include\xmemory
; File C:\Program Files (x86)\Microsoft Visual Studio\2019\Community\VC\Tools\MSVC\14.28.29333\include\xstddef
; File C:\Program Files (x86)\Microsoft Visual Studio\2019\Community\VC\Tools\MSVC\14.28.29333\include\xmemory
;	COMDAT ??$_Uninitialized_value_construct_n@V?$allocator@_W@std@@@std@@YAPA_WPA_WIAAV?$allocator@_W@0@@Z
_TEXT	SEGMENT
__PFirst$1 = -4						; size = 4
__First$ = 8						; size = 4
__Count$ = 12						; size = 4
__Al$ = 16						; size = 4
??$_Uninitialized_value_construct_n@V?$allocator@_W@std@@@std@@YAPA_WPA_WIAAV?$allocator@_W@0@@Z PROC ; std::_Uninitialized_value_construct_n<std::allocator<wchar_t> >, COMDAT

; 1862 :     _Alloc_ptr_t<_Alloc> _First, _Alloc_size_t<_Alloc> _Count, _Alloc& _Al) {

  00000	55		 push	 ebp
  00001	8b ec		 mov	 ebp, esp
  00003	51		 push	 ecx
; File C:\Program Files (x86)\Microsoft Visual Studio\2019\Community\VC\Tools\MSVC\14.28.29333\include\xstddef

; 289  :     return _Ptr;

  00004	8b 45 08	 mov	 eax, DWORD PTR __First$[ebp]
  00007	89 45 fc	 mov	 DWORD PTR __PFirst$1[ebp], eax
; File C:\Program Files (x86)\Microsoft Visual Studio\2019\Community\VC\Tools\MSVC\14.28.29333\include\xmemory

; 1867 :         _Zero_range(_PFirst, _PFirst + _Count);

  0000a	8b 45 0c	 mov	 eax, DWORD PTR __Count$[ebp]
  0000d	8b 4d fc	 mov	 ecx, DWORD PTR __PFirst$1[ebp]
  00010	8d 04 41	 lea	 eax, DWORD PTR [ecx+eax*2]
  00013	50		 push	 eax
  00014	ff 75 fc	 push	 DWORD PTR __PFirst$1[ebp]
  00017	e8 00 00 00 00	 call	 ??$_Zero_range@PA_W@std@@YAPA_WQA_W0@Z ; std::_Zero_range<wchar_t *>
  0001c	59		 pop	 ecx
  0001d	59		 pop	 ecx

; 1868 :         return _First + _Count;

  0001e	8b 45 0c	 mov	 eax, DWORD PTR __Count$[ebp]
  00021	8b 4d 08	 mov	 ecx, DWORD PTR __First$[ebp]
  00024	8d 04 41	 lea	 eax, DWORD PTR [ecx+eax*2]

; 1869 :     } else {
; 1870 :         _Uninitialized_backout_al<_Alloc> _Backout{_First, _Al};
; 1871 :         for (; 0 < _Count; --_Count) {
; 1872 :             _Backout._Emplace_back();
; 1873 :         }
; 1874 : 
; 1875 :         return _Backout._Release();
; 1876 :     }
; 1877 : }

  00027	c9		 leave
  00028	c3		 ret	 0
??$_Uninitialized_value_construct_n@V?$allocator@_W@std@@@std@@YAPA_WPA_WIAAV?$allocator@_W@0@@Z ENDP ; std::_Uninitialized_value_construct_n<std::allocator<wchar_t> >
_TEXT	ENDS
; Function compile flags: /Odspy
; File C:\Program Files (x86)\Microsoft Visual Studio\2019\Community\VC\Tools\MSVC\14.28.29333\include\xmemory
; File C:\Program Files (x86)\Microsoft Visual Studio\2019\Community\VC\Tools\MSVC\14.28.29333\include\xstddef
; File C:\Program Files (x86)\Microsoft Visual Studio\2019\Community\VC\Tools\MSVC\14.28.29333\include\xmemory
;	COMDAT ??$_Uninitialized_move@PA_WV?$allocator@_W@std@@@std@@YAPA_WQA_W0PA_WAAV?$allocator@_W@0@@Z
_TEXT	SEGMENT
$T1 = -12						; size = 4
__UFirst$ = -8						; size = 4
__ULast$ = -4						; size = 4
__First$ = 8						; size = 4
__Last$ = 12						; size = 4
__Dest$ = 16						; size = 4
__Al$ = 20						; size = 4
??$_Uninitialized_move@PA_WV?$allocator@_W@std@@@std@@YAPA_WQA_W0PA_WAAV?$allocator@_W@0@@Z PROC ; std::_Uninitialized_move<wchar_t *,std::allocator<wchar_t> >, COMDAT

; 1685 :     const _InIt _First, const _InIt _Last, _Alloc_ptr_t<_Alloc> _Dest, _Alloc& _Al) {

  00000	55		 push	 ebp
  00001	8b ec		 mov	 ebp, esp
  00003	83 ec 0c	 sub	 esp, 12			; 0000000cH

; 1686 :     // move [_First, _Last) to raw _Dest, using _Al
; 1687 :     // note: only called internally from elsewhere in the STL
; 1688 :     using _Ptrval     = typename _Alloc::value_type*;
; 1689 :     auto _UFirst      = _Get_unwrapped(_First);

  00006	8b 45 08	 mov	 eax, DWORD PTR __First$[ebp]
  00009	89 45 f8	 mov	 DWORD PTR __UFirst$[ebp], eax

; 1690 :     const auto _ULast = _Get_unwrapped(_Last);

  0000c	8b 45 0c	 mov	 eax, DWORD PTR __Last$[ebp]
  0000f	89 45 fc	 mov	 DWORD PTR __ULast$[ebp], eax
; File C:\Program Files (x86)\Microsoft Visual Studio\2019\Community\VC\Tools\MSVC\14.28.29333\include\xstddef

; 289  :     return _Ptr;

  00012	8b 45 10	 mov	 eax, DWORD PTR __Dest$[ebp]
  00015	89 45 f4	 mov	 DWORD PTR $T1[ebp], eax
; File C:\Program Files (x86)\Microsoft Visual Studio\2019\Community\VC\Tools\MSVC\14.28.29333\include\xmemory

; 1693 :         _Copy_memmove(_UFirst, _ULast, _Unfancy(_Dest));

  00018	ff 75 f4	 push	 DWORD PTR $T1[ebp]
  0001b	ff 75 fc	 push	 DWORD PTR __ULast$[ebp]
  0001e	ff 75 f8	 push	 DWORD PTR __UFirst$[ebp]
  00021	e8 00 00 00 00	 call	 ??$_Copy_memmove@PA_WPA_W@std@@YAPA_WPA_W00@Z ; std::_Copy_memmove<wchar_t *,wchar_t *>
  00026	83 c4 0c	 add	 esp, 12			; 0000000cH

; 1694 :         return _Dest + (_ULast - _UFirst);

  00029	8b 45 fc	 mov	 eax, DWORD PTR __ULast$[ebp]
  0002c	2b 45 f8	 sub	 eax, DWORD PTR __UFirst$[ebp]
  0002f	d1 f8		 sar	 eax, 1
  00031	8b 4d 10	 mov	 ecx, DWORD PTR __Dest$[ebp]
  00034	8d 04 41	 lea	 eax, DWORD PTR [ecx+eax*2]

; 1695 :     } else {
; 1696 :         _Uninitialized_backout_al<_Alloc> _Backout{_Dest, _Al};
; 1697 :         for (; _UFirst != _ULast; ++_UFirst) {
; 1698 :             _Backout._Emplace_back(_STD move(*_UFirst));
; 1699 :         }
; 1700 : 
; 1701 :         return _Backout._Release();
; 1702 :     }
; 1703 : }

  00037	c9		 leave
  00038	c3		 ret	 0
??$_Uninitialized_move@PA_WV?$allocator@_W@std@@@std@@YAPA_WQA_W0PA_WAAV?$allocator@_W@0@@Z ENDP ; std::_Uninitialized_move<wchar_t *,std::allocator<wchar_t> >
_TEXT	ENDS
; Function compile flags: /Odspy
; File C:\Program Files (x86)\Microsoft Visual Studio\2019\Community\VC\Tools\MSVC\14.28.29333\include\xmemory
; File C:\Program Files (x86)\Microsoft Visual Studio\2019\Community\VC\Tools\MSVC\14.28.29333\include\xstddef
; File C:\Program Files (x86)\Microsoft Visual Studio\2019\Community\VC\Tools\MSVC\14.28.29333\include\xmemory
;	COMDAT ??$_Uninitialized_value_construct_n@V?$allocator@E@std@@@std@@YAPAEPAEIAAV?$allocator@E@0@@Z
_TEXT	SEGMENT
__PFirst$1 = -4						; size = 4
__First$ = 8						; size = 4
__Count$ = 12						; size = 4
__Al$ = 16						; size = 4
??$_Uninitialized_value_construct_n@V?$allocator@E@std@@@std@@YAPAEPAEIAAV?$allocator@E@0@@Z PROC ; std::_Uninitialized_value_construct_n<std::allocator<unsigned char> >, COMDAT

; 1862 :     _Alloc_ptr_t<_Alloc> _First, _Alloc_size_t<_Alloc> _Count, _Alloc& _Al) {

  00000	55		 push	 ebp
  00001	8b ec		 mov	 ebp, esp
  00003	51		 push	 ecx
; File C:\Program Files (x86)\Microsoft Visual Studio\2019\Community\VC\Tools\MSVC\14.28.29333\include\xstddef

; 289  :     return _Ptr;

  00004	8b 45 08	 mov	 eax, DWORD PTR __First$[ebp]
  00007	89 45 fc	 mov	 DWORD PTR __PFirst$1[ebp], eax
; File C:\Program Files (x86)\Microsoft Visual Studio\2019\Community\VC\Tools\MSVC\14.28.29333\include\xmemory

; 1867 :         _Zero_range(_PFirst, _PFirst + _Count);

  0000a	8b 45 fc	 mov	 eax, DWORD PTR __PFirst$1[ebp]
  0000d	03 45 0c	 add	 eax, DWORD PTR __Count$[ebp]
  00010	50		 push	 eax
  00011	ff 75 fc	 push	 DWORD PTR __PFirst$1[ebp]
  00014	e8 00 00 00 00	 call	 ??$_Zero_range@PAE@std@@YAPAEQAE0@Z ; std::_Zero_range<unsigned char *>
  00019	59		 pop	 ecx
  0001a	59		 pop	 ecx

; 1868 :         return _First + _Count;

  0001b	8b 45 08	 mov	 eax, DWORD PTR __First$[ebp]
  0001e	03 45 0c	 add	 eax, DWORD PTR __Count$[ebp]

; 1869 :     } else {
; 1870 :         _Uninitialized_backout_al<_Alloc> _Backout{_First, _Al};
; 1871 :         for (; 0 < _Count; --_Count) {
; 1872 :             _Backout._Emplace_back();
; 1873 :         }
; 1874 : 
; 1875 :         return _Backout._Release();
; 1876 :     }
; 1877 : }

  00021	c9		 leave
  00022	c3		 ret	 0
??$_Uninitialized_value_construct_n@V?$allocator@E@std@@@std@@YAPAEPAEIAAV?$allocator@E@0@@Z ENDP ; std::_Uninitialized_value_construct_n<std::allocator<unsigned char> >
_TEXT	ENDS
; Function compile flags: /Odspy
; File C:\Program Files (x86)\Microsoft Visual Studio\2019\Community\VC\Tools\MSVC\14.28.29333\include\vector
; File C:\Program Files (x86)\Microsoft Visual Studio\2019\Community\VC\Tools\MSVC\14.28.29333\include\xmemory
; File C:\Program Files (x86)\Microsoft Visual Studio\2019\Community\VC\Tools\MSVC\14.28.29333\include\vector
; File C:\Program Files (x86)\Microsoft Visual Studio\2019\Community\VC\Tools\MSVC\14.28.29333\include\xmemory
; File C:\Program Files (x86)\Microsoft Visual Studio\2019\Community\VC\Tools\MSVC\14.28.29333\include\limits
; File C:\Program Files (x86)\Microsoft Visual Studio\2019\Community\VC\Tools\MSVC\14.28.29333\include\vector
; File C:\Program Files (x86)\Microsoft Visual Studio\2019\Community\VC\Tools\MSVC\14.28.29333\include\utility
; File C:\Program Files (x86)\Microsoft Visual Studio\2019\Community\VC\Tools\MSVC\14.28.29333\include\vector
; File C:\Program Files (x86)\Microsoft Visual Studio\2019\Community\VC\Tools\MSVC\14.28.29333\include\xmemory
; File C:\Program Files (x86)\Microsoft Visual Studio\2019\Community\VC\Tools\MSVC\14.28.29333\include\vector
; File C:\Program Files (x86)\Microsoft Visual Studio\2019\Community\VC\Tools\MSVC\14.28.29333\include\xmemory
; File C:\Program Files (x86)\Microsoft Visual Studio\2019\Community\VC\Tools\MSVC\14.28.29333\include\vector
; File C:\Program Files (x86)\Microsoft Visual Studio\2019\Community\VC\Tools\MSVC\14.28.29333\include\xmemory
; File C:\Program Files (x86)\Microsoft Visual Studio\2019\Community\VC\Tools\MSVC\14.28.29333\include\vector
; File C:\Program Files (x86)\Microsoft Visual Studio\2019\Community\VC\Tools\MSVC\14.28.29333\include\xmemory
; File C:\Program Files (x86)\Microsoft Visual Studio\2019\Community\VC\Tools\MSVC\14.28.29333\include\vector
;	COMDAT ??$_Resize_reallocate@U_Value_init_tag@std@@@?$vector@_WV?$allocator@_W@std@@@std@@AAEXIABU_Value_init_tag@1@@Z
_TEXT	SEGMENT
__Max_possible$2 = -148					; size = 4
$T3 = -144						; size = 4
$T4 = -140						; size = 4
__First$ = -136						; size = 4
__Last$ = -132						; size = 4
$T5 = -128						; size = 4
$T6 = -124						; size = 4
tv244 = -120						; size = 4
$T7 = -116						; size = 4
$T8 = -112						; size = 4
$T9 = -108						; size = 4
$T10 = -104						; size = 4
$T11 = -100						; size = 4
$T12 = -96						; size = 4
$T13 = -92						; size = 4
$T14 = -88						; size = 4
$T15 = -84						; size = 4
__Appended_last$ = -80					; size = 4
__Myfirst$ = -76					; size = 4
__Mylast$ = -72						; size = 4
__Oldsize$ = -68					; size = 4
__My_data$ = -64					; size = 4
tv147 = -60						; size = 4
$T16 = -56						; size = 4
$T17 = -52						; size = 4
__Appended_first$ = -48					; size = 4
___formal$ = -44					; size = 1
___formal$ = -40					; size = 1
__Overflow_is_possible$18 = -33				; size = 1
__Newvec$ = -32						; size = 4
__Newcapacity$ = -28					; size = 4
$T19 = -21						; size = 1
_this$ = -20						; size = 4
__$EHRec$ = -16						; size = 16
__Newsize$ = 8						; size = 4
__Val$ = 12						; size = 4
??$_Resize_reallocate@U_Value_init_tag@std@@@?$vector@_WV?$allocator@_W@std@@@std@@AAEXIABU_Value_init_tag@1@@Z PROC ; std::vector<wchar_t,std::allocator<wchar_t> >::_Resize_reallocate<std::_Value_init_tag>, COMDAT
; _this$ = ecx

; 1182 :     void _Resize_reallocate(const size_type _Newsize, const _Ty2& _Val) {

  00000	55		 push	 ebp
  00001	8b ec		 mov	 ebp, esp
  00003	6a ff		 push	 -1
  00005	68 00 00 00 00	 push	 __ehhandler$??$_Resize_reallocate@U_Value_init_tag@std@@@?$vector@_WV?$allocator@_W@std@@@std@@AAEXIABU_Value_init_tag@1@@Z
  0000a	64 a1 00 00 00
	00		 mov	 eax, DWORD PTR fs:0
  00010	50		 push	 eax
  00011	51		 push	 ecx
  00012	81 ec 84 00 00
	00		 sub	 esp, 132		; 00000084H
  00018	53		 push	 ebx
  00019	56		 push	 esi
  0001a	57		 push	 edi
  0001b	a1 00 00 00 00	 mov	 eax, DWORD PTR ___security_cookie
  00020	33 c5		 xor	 eax, ebp
  00022	50		 push	 eax
  00023	8d 45 f4	 lea	 eax, DWORD PTR __$EHRec$[ebp+4]
  00026	64 a3 00 00 00
	00		 mov	 DWORD PTR fs:0, eax
  0002c	89 65 f0	 mov	 DWORD PTR __$EHRec$[ebp], esp
  0002f	89 4d ec	 mov	 DWORD PTR _this$[ebp], ecx

; 1737 :         return _Mypair._Get_first();

  00032	8b 45 ec	 mov	 eax, DWORD PTR _this$[ebp]
; File C:\Program Files (x86)\Microsoft Visual Studio\2019\Community\VC\Tools\MSVC\14.28.29333\include\xmemory

; 1351 :         return *this;

  00035	89 45 ac	 mov	 DWORD PTR $T15[ebp], eax
; File C:\Program Files (x86)\Microsoft Visual Studio\2019\Community\VC\Tools\MSVC\14.28.29333\include\vector

; 1737 :         return _Mypair._Get_first();

  00038	8b 45 ac	 mov	 eax, DWORD PTR $T15[ebp]
  0003b	89 85 74 ff ff
	ff		 mov	 DWORD PTR $T4[ebp], eax
; File C:\Program Files (x86)\Microsoft Visual Studio\2019\Community\VC\Tools\MSVC\14.28.29333\include\xmemory

; 710  :         return static_cast<size_t>(-1) / sizeof(value_type);

  00041	c7 45 cc ff ff
	ff 7f		 mov	 DWORD PTR $T17[ebp], 2147483647 ; 7fffffffH
; File C:\Program Files (x86)\Microsoft Visual Studio\2019\Community\VC\Tools\MSVC\14.28.29333\include\limits

; 557  :         return INT_MAX;

  00048	c7 45 a8 ff ff
	ff 7f		 mov	 DWORD PTR $T14[ebp], 2147483647 ; 7fffffffH
; File C:\Program Files (x86)\Microsoft Visual Studio\2019\Community\VC\Tools\MSVC\14.28.29333\include\vector

; 1488 :         return (_STD min)(

  0004f	8b 45 a8	 mov	 eax, DWORD PTR $T14[ebp]
  00052	89 45 c8	 mov	 DWORD PTR $T16[ebp], eax
; File C:\Program Files (x86)\Microsoft Visual Studio\2019\Community\VC\Tools\MSVC\14.28.29333\include\utility

; 68   :     return _Right < _Left ? _Right : _Left;

  00055	8b 45 cc	 mov	 eax, DWORD PTR $T17[ebp]
  00058	3b 45 c8	 cmp	 eax, DWORD PTR $T16[ebp]
  0005b	73 08		 jae	 SHORT $LN26@Resize_rea
  0005d	8d 45 cc	 lea	 eax, DWORD PTR $T17[ebp]
  00060	89 45 c4	 mov	 DWORD PTR tv147[ebp], eax
  00063	eb 06		 jmp	 SHORT $LN27@Resize_rea
$LN26@Resize_rea:
  00065	8d 45 c8	 lea	 eax, DWORD PTR $T16[ebp]
  00068	89 45 c4	 mov	 DWORD PTR tv147[ebp], eax
$LN27@Resize_rea:
  0006b	8b 45 c4	 mov	 eax, DWORD PTR tv147[ebp]
  0006e	89 45 a4	 mov	 DWORD PTR $T13[ebp], eax
  00071	8b 45 a4	 mov	 eax, DWORD PTR $T13[ebp]
  00074	89 45 a0	 mov	 DWORD PTR $T12[ebp], eax
; File C:\Program Files (x86)\Microsoft Visual Studio\2019\Community\VC\Tools\MSVC\14.28.29333\include\vector

; 1488 :         return (_STD min)(

  00077	8b 45 a0	 mov	 eax, DWORD PTR $T12[ebp]
  0007a	8b 00		 mov	 eax, DWORD PTR [eax]
  0007c	89 45 9c	 mov	 DWORD PTR $T11[ebp], eax

; 1183 :         if (_Newsize > max_size()) {

  0007f	8b 45 08	 mov	 eax, DWORD PTR __Newsize$[ebp]
  00082	3b 45 9c	 cmp	 eax, DWORD PTR $T11[ebp]
  00085	76 05		 jbe	 SHORT $LN2@Resize_rea

; 1184 :             _Xlength();

  00087	e8 00 00 00 00	 call	 ?_Xlength@?$vector@_WV?$allocator@_W@std@@@std@@CAXXZ ; std::vector<wchar_t,std::allocator<wchar_t> >::_Xlength
$LN2@Resize_rea:

; 1185 :         }
; 1186 : 
; 1187 :         auto& _My_data    = _Mypair._Myval2;

  0008c	8b 45 ec	 mov	 eax, DWORD PTR _this$[ebp]
  0008f	89 45 c0	 mov	 DWORD PTR __My_data$[ebp], eax

; 1188 :         pointer& _Myfirst = _My_data._Myfirst;

  00092	8b 45 c0	 mov	 eax, DWORD PTR __My_data$[ebp]
  00095	89 45 b4	 mov	 DWORD PTR __Myfirst$[ebp], eax

; 1189 :         pointer& _Mylast  = _My_data._Mylast;

  00098	8b 45 c0	 mov	 eax, DWORD PTR __My_data$[ebp]
  0009b	83 c0 04	 add	 eax, 4
  0009e	89 45 b8	 mov	 DWORD PTR __Mylast$[ebp], eax

; 1190 : 
; 1191 :         const auto _Oldsize          = static_cast<size_type>(_Mylast - _Myfirst);

  000a1	8b 45 b8	 mov	 eax, DWORD PTR __Mylast$[ebp]
  000a4	8b 4d b4	 mov	 ecx, DWORD PTR __Myfirst$[ebp]
  000a7	8b 00		 mov	 eax, DWORD PTR [eax]
  000a9	2b 01		 sub	 eax, DWORD PTR [ecx]
  000ab	d1 f8		 sar	 eax, 1
  000ad	89 45 bc	 mov	 DWORD PTR __Oldsize$[ebp], eax

; 1192 :         const size_type _Newcapacity = _Calculate_growth(_Newsize);

  000b0	ff 75 08	 push	 DWORD PTR __Newsize$[ebp]
  000b3	8b 4d ec	 mov	 ecx, DWORD PTR _this$[ebp]
  000b6	e8 00 00 00 00	 call	 ?_Calculate_growth@?$vector@_WV?$allocator@_W@std@@@std@@ABEII@Z ; std::vector<wchar_t,std::allocator<wchar_t> >::_Calculate_growth
  000bb	89 45 e4	 mov	 DWORD PTR __Newcapacity$[ebp], eax

; 1733 :         return _Mypair._Get_first();

  000be	8b 45 ec	 mov	 eax, DWORD PTR _this$[ebp]
; File C:\Program Files (x86)\Microsoft Visual Studio\2019\Community\VC\Tools\MSVC\14.28.29333\include\xmemory

; 1347 :         return *this;

  000c1	89 45 98	 mov	 DWORD PTR $T10[ebp], eax
; File C:\Program Files (x86)\Microsoft Visual Studio\2019\Community\VC\Tools\MSVC\14.28.29333\include\vector

; 1733 :         return _Mypair._Get_first();

  000c4	8b 45 98	 mov	 eax, DWORD PTR $T10[ebp]
  000c7	89 85 70 ff ff
	ff		 mov	 DWORD PTR $T3[ebp], eax
; File C:\Program Files (x86)\Microsoft Visual Studio\2019\Community\VC\Tools\MSVC\14.28.29333\include\xmemory

; 56   :     constexpr bool _Overflow_is_possible = _Ty_size > 1;

  000cd	c6 45 df 01	 mov	 BYTE PTR __Overflow_is_possible$18[ebp], 1

; 57   : 
; 58   :     if _CONSTEXPR_IF (_Overflow_is_possible) {
; 59   :         constexpr size_t _Max_possible = static_cast<size_t>(-1) / _Ty_size;

  000d1	c7 85 6c ff ff
	ff ff ff ff 7f	 mov	 DWORD PTR __Max_possible$2[ebp], 2147483647 ; 7fffffffH

; 60   :         if (_Count > _Max_possible) {

  000db	81 7d e4 ff ff
	ff 7f		 cmp	 DWORD PTR __Newcapacity$[ebp], 2147483647 ; 7fffffffH
  000e2	76 05		 jbe	 SHORT $LN65@Resize_rea

; 61   :             _Throw_bad_array_new_length(); // multiply overflow

  000e4	e8 00 00 00 00	 call	 ?_Throw_bad_array_new_length@std@@YAXXZ ; std::_Throw_bad_array_new_length
$LN65@Resize_rea:

; 62   :         }
; 63   :     }
; 64   : 
; 65   :     return _Count * _Ty_size;

  000e9	8b 45 e4	 mov	 eax, DWORD PTR __Newcapacity$[ebp]
  000ec	d1 e0		 shl	 eax, 1
  000ee	89 45 94	 mov	 DWORD PTR $T9[ebp], eax

; 814  :         return static_cast<_Ty*>(_Allocate<_New_alignof<_Ty>>(_Get_size_of_n<sizeof(_Ty)>(_Count)));

  000f1	ff 75 94	 push	 DWORD PTR $T9[ebp]
  000f4	e8 00 00 00 00	 call	 ??$_Allocate@$07U_Default_allocate_traits@std@@$0A@@std@@YAPAXI@Z ; std::_Allocate<8,std::_Default_allocate_traits,0>
  000f9	59		 pop	 ecx
  000fa	89 45 e0	 mov	 DWORD PTR __Newvec$[ebp], eax
; File C:\Program Files (x86)\Microsoft Visual Studio\2019\Community\VC\Tools\MSVC\14.28.29333\include\vector

; 1195 :         const pointer _Appended_first = _Newvec + _Oldsize;

  000fd	8b 45 bc	 mov	 eax, DWORD PTR __Oldsize$[ebp]
  00100	8b 4d e0	 mov	 ecx, DWORD PTR __Newvec$[ebp]
  00103	8d 04 41	 lea	 eax, DWORD PTR [ecx+eax*2]
  00106	89 45 d0	 mov	 DWORD PTR __Appended_first$[ebp], eax

; 1196 :         pointer _Appended_last        = _Appended_first;

  00109	8b 45 d0	 mov	 eax, DWORD PTR __Appended_first$[ebp]
  0010c	89 45 b0	 mov	 DWORD PTR __Appended_last$[ebp], eax

; 1197 : 
; 1198 :         _TRY_BEGIN

  0010f	83 65 fc 00	 and	 DWORD PTR __$EHRec$[ebp+12], 0

; 1199 :         _Appended_last = _Ufill(_Appended_first, _Newsize - _Oldsize, _Val);

  00113	8b 45 0c	 mov	 eax, DWORD PTR __Val$[ebp]
  00116	8a 00		 mov	 al, BYTE PTR [eax]
  00118	88 45 d8	 mov	 BYTE PTR ___formal$[ebp], al

; 1733 :         return _Mypair._Get_first();

  0011b	8b 45 ec	 mov	 eax, DWORD PTR _this$[ebp]
; File C:\Program Files (x86)\Microsoft Visual Studio\2019\Community\VC\Tools\MSVC\14.28.29333\include\xmemory

; 1347 :         return *this;

  0011e	89 45 90	 mov	 DWORD PTR $T8[ebp], eax
; File C:\Program Files (x86)\Microsoft Visual Studio\2019\Community\VC\Tools\MSVC\14.28.29333\include\vector

; 1733 :         return _Mypair._Get_first();

  00121	8b 45 90	 mov	 eax, DWORD PTR $T8[ebp]
  00124	89 45 8c	 mov	 DWORD PTR $T7[ebp], eax

; 1583 :         return _Uninitialized_value_construct_n(_Dest, _Count, _Getal());

  00127	ff 75 8c	 push	 DWORD PTR $T7[ebp]

; 1199 :         _Appended_last = _Ufill(_Appended_first, _Newsize - _Oldsize, _Val);

  0012a	8b 45 08	 mov	 eax, DWORD PTR __Newsize$[ebp]
  0012d	2b 45 bc	 sub	 eax, DWORD PTR __Oldsize$[ebp]

; 1583 :         return _Uninitialized_value_construct_n(_Dest, _Count, _Getal());

  00130	50		 push	 eax
  00131	ff 75 d0	 push	 DWORD PTR __Appended_first$[ebp]
  00134	e8 00 00 00 00	 call	 ??$_Uninitialized_value_construct_n@V?$allocator@_W@std@@@std@@YAPA_WPA_WIAAV?$allocator@_W@0@@Z ; std::_Uninitialized_value_construct_n<std::allocator<wchar_t> >
  00139	83 c4 0c	 add	 esp, 12			; 0000000cH
  0013c	89 45 88	 mov	 DWORD PTR tv244[ebp], eax

; 1199 :         _Appended_last = _Ufill(_Appended_first, _Newsize - _Oldsize, _Val);

  0013f	8b 45 88	 mov	 eax, DWORD PTR tv244[ebp]
  00142	89 45 b0	 mov	 DWORD PTR __Appended_last$[ebp], eax

; 1200 :         _Umove_if_noexcept(_Myfirst, _Mylast, _Newvec);

  00145	8b 45 b8	 mov	 eax, DWORD PTR __Mylast$[ebp]
  00148	8b 00		 mov	 eax, DWORD PTR [eax]
  0014a	89 85 7c ff ff
	ff		 mov	 DWORD PTR __Last$[ebp], eax
  00150	8b 45 b4	 mov	 eax, DWORD PTR __Myfirst$[ebp]
  00153	8b 00		 mov	 eax, DWORD PTR [eax]
  00155	89 85 78 ff ff
	ff		 mov	 DWORD PTR __First$[ebp], eax

; 1607 :         _Umove_if_noexcept1(_First, _Last, _Dest,

  0015b	33 c0		 xor	 eax, eax
  0015d	88 45 eb	 mov	 BYTE PTR $T19[ebp], al
  00160	8a 45 eb	 mov	 al, BYTE PTR $T19[ebp]
  00163	88 45 d4	 mov	 BYTE PTR ___formal$[ebp], al

; 1733 :         return _Mypair._Get_first();

  00166	8b 45 ec	 mov	 eax, DWORD PTR _this$[ebp]
; File C:\Program Files (x86)\Microsoft Visual Studio\2019\Community\VC\Tools\MSVC\14.28.29333\include\xmemory

; 1347 :         return *this;

  00169	89 45 84	 mov	 DWORD PTR $T6[ebp], eax
; File C:\Program Files (x86)\Microsoft Visual Studio\2019\Community\VC\Tools\MSVC\14.28.29333\include\vector

; 1733 :         return _Mypair._Get_first();

  0016c	8b 45 84	 mov	 eax, DWORD PTR $T6[ebp]
  0016f	89 45 80	 mov	 DWORD PTR $T5[ebp], eax

; 1597 :         _Uninitialized_move(_First, _Last, _Dest, _Getal());

  00172	ff 75 80	 push	 DWORD PTR $T5[ebp]
  00175	ff 75 e0	 push	 DWORD PTR __Newvec$[ebp]
  00178	ff b5 7c ff ff
	ff		 push	 DWORD PTR __Last$[ebp]
  0017e	ff b5 78 ff ff
	ff		 push	 DWORD PTR __First$[ebp]
  00184	e8 00 00 00 00	 call	 ??$_Uninitialized_move@PA_WV?$allocator@_W@std@@@std@@YAPA_WQA_W0PA_WAAV?$allocator@_W@0@@Z ; std::_Uninitialized_move<wchar_t *,std::allocator<wchar_t> >
  00189	83 c4 10	 add	 esp, 16			; 00000010H

; 1200 :         _Umove_if_noexcept(_Myfirst, _Mylast, _Newvec);

  0018c	eb 32		 jmp	 SHORT $LN5@Resize_rea
__catch$??$_Resize_reallocate@U_Value_init_tag@std@@@?$vector@_WV?$allocator@_W@std@@@std@@AAEXIABU_Value_init_tag@1@@Z$0:

; 1201 :         _CATCH_ALL
; 1202 :         _Destroy(_Appended_first, _Appended_last);

  0018e	ff 75 b0	 push	 DWORD PTR __Appended_last$[ebp]
  00191	ff 75 d0	 push	 DWORD PTR __Appended_first$[ebp]
  00194	8b 4d ec	 mov	 ecx, DWORD PTR _this$[ebp]
  00197	e8 00 00 00 00	 call	 ?_Destroy@?$vector@_WV?$allocator@_W@std@@@std@@AAEXPA_W0@Z ; std::vector<wchar_t,std::allocator<wchar_t> >::_Destroy

; 1203 :         _Getal().deallocate(_Newvec, _Newcapacity);

  0019c	ff 75 e4	 push	 DWORD PTR __Newcapacity$[ebp]
  0019f	ff 75 e0	 push	 DWORD PTR __Newvec$[ebp]
  001a2	8b 4d ec	 mov	 ecx, DWORD PTR _this$[ebp]
  001a5	e8 00 00 00 00	 call	 ?_Getal@?$vector@_WV?$allocator@_W@std@@@std@@AAEAAV?$allocator@_W@2@XZ ; std::vector<wchar_t,std::allocator<wchar_t> >::_Getal
  001aa	8b c8		 mov	 ecx, eax
  001ac	e8 00 00 00 00	 call	 ?deallocate@?$allocator@_W@std@@QAEXQA_WI@Z ; std::allocator<wchar_t>::deallocate

; 1204 :         _RERAISE;

  001b1	6a 00		 push	 0
  001b3	6a 00		 push	 0
  001b5	e8 00 00 00 00	 call	 __CxxThrowException@8

; 1205 :         _CATCH_END

  001ba	b8 00 00 00 00	 mov	 eax, $LN8@Resize_rea
  001bf	c3		 ret	 0
$LN5@Resize_rea:
  001c0	83 4d fc ff	 or	 DWORD PTR __$EHRec$[ebp+12], -1
  001c4	eb 04		 jmp	 SHORT __tryend$??$_Resize_reallocate@U_Value_init_tag@std@@@?$vector@_WV?$allocator@_W@std@@@std@@AAEXIABU_Value_init_tag@1@@Z$1
$LN8@Resize_rea:
; File C:\Program Files (x86)\Microsoft Visual Studio\2019\Community\VC\Tools\MSVC\14.28.29333\include\xmemory
  001c6	83 4d fc ff	 or	 DWORD PTR __$EHRec$[ebp+12], -1
__tryend$??$_Resize_reallocate@U_Value_init_tag@std@@@?$vector@_WV?$allocator@_W@std@@@std@@AAEXIABU_Value_init_tag@1@@Z$1:
; File C:\Program Files (x86)\Microsoft Visual Studio\2019\Community\VC\Tools\MSVC\14.28.29333\include\vector

; 1206 : 
; 1207 :         _Change_array(_Newvec, _Newsize, _Newcapacity);

  001ca	ff 75 e4	 push	 DWORD PTR __Newcapacity$[ebp]
  001cd	ff 75 08	 push	 DWORD PTR __Newsize$[ebp]
  001d0	ff 75 e0	 push	 DWORD PTR __Newvec$[ebp]
  001d3	8b 4d ec	 mov	 ecx, DWORD PTR _this$[ebp]
  001d6	e8 00 00 00 00	 call	 ?_Change_array@?$vector@_WV?$allocator@_W@std@@@std@@AAEXQA_WII@Z ; std::vector<wchar_t,std::allocator<wchar_t> >::_Change_array
$LN68@Resize_rea:

; 1208 :     }

  001db	8b 4d f4	 mov	 ecx, DWORD PTR __$EHRec$[ebp+4]
  001de	64 89 0d 00 00
	00 00		 mov	 DWORD PTR fs:0, ecx
  001e5	59		 pop	 ecx
  001e6	5f		 pop	 edi
  001e7	5e		 pop	 esi
  001e8	5b		 pop	 ebx
  001e9	c9		 leave
  001ea	c2 08 00	 ret	 8
  001ed	cc		 int	 3
  001ee	cc		 int	 3
  001ef	cc		 int	 3
  001f0	cc		 int	 3
  001f1	cc		 int	 3
_TEXT	ENDS
;	COMDAT text$x
text$x	SEGMENT
__ehhandler$??$_Resize_reallocate@U_Value_init_tag@std@@@?$vector@_WV?$allocator@_W@std@@@std@@AAEXIABU_Value_init_tag@1@@Z:
  00000	90		 npad	 1
  00001	90		 npad	 1
  00002	8b 54 24 08	 mov	 edx, DWORD PTR [esp+8]
  00006	8d 42 0c	 lea	 eax, DWORD PTR [edx+12]
  00009	8b 8a 68 ff ff
	ff		 mov	 ecx, DWORD PTR [edx-152]
  0000f	33 c8		 xor	 ecx, eax
  00011	e8 00 00 00 00	 call	 @__security_check_cookie@4
  00016	b8 00 00 00 00	 mov	 eax, OFFSET __ehfuncinfo$??$_Resize_reallocate@U_Value_init_tag@std@@@?$vector@_WV?$allocator@_W@std@@@std@@AAEXIABU_Value_init_tag@1@@Z
  0001b	e9 00 00 00 00	 jmp	 ___CxxFrameHandler3
text$x	ENDS
??$_Resize_reallocate@U_Value_init_tag@std@@@?$vector@_WV?$allocator@_W@std@@@std@@AAEXIABU_Value_init_tag@1@@Z ENDP ; std::vector<wchar_t,std::allocator<wchar_t> >::_Resize_reallocate<std::_Value_init_tag>
; Function compile flags: /Odspy
; File C:\Program Files (x86)\Microsoft Visual Studio\2019\Community\VC\Tools\MSVC\14.28.29333\include\vector
; File C:\Program Files (x86)\Microsoft Visual Studio\2019\Community\VC\Tools\MSVC\14.28.29333\include\xmemory
; File C:\Program Files (x86)\Microsoft Visual Studio\2019\Community\VC\Tools\MSVC\14.28.29333\include\vector
; File C:\Program Files (x86)\Microsoft Visual Studio\2019\Community\VC\Tools\MSVC\14.28.29333\include\xmemory
; File C:\Program Files (x86)\Microsoft Visual Studio\2019\Community\VC\Tools\MSVC\14.28.29333\include\limits
; File C:\Program Files (x86)\Microsoft Visual Studio\2019\Community\VC\Tools\MSVC\14.28.29333\include\vector
; File C:\Program Files (x86)\Microsoft Visual Studio\2019\Community\VC\Tools\MSVC\14.28.29333\include\utility
; File C:\Program Files (x86)\Microsoft Visual Studio\2019\Community\VC\Tools\MSVC\14.28.29333\include\vector
; File C:\Program Files (x86)\Microsoft Visual Studio\2019\Community\VC\Tools\MSVC\14.28.29333\include\xmemory
; File C:\Program Files (x86)\Microsoft Visual Studio\2019\Community\VC\Tools\MSVC\14.28.29333\include\vector
; File C:\Program Files (x86)\Microsoft Visual Studio\2019\Community\VC\Tools\MSVC\14.28.29333\include\xmemory
; File C:\Program Files (x86)\Microsoft Visual Studio\2019\Community\VC\Tools\MSVC\14.28.29333\include\vector
; File C:\Program Files (x86)\Microsoft Visual Studio\2019\Community\VC\Tools\MSVC\14.28.29333\include\xmemory
; File C:\Program Files (x86)\Microsoft Visual Studio\2019\Community\VC\Tools\MSVC\14.28.29333\include\vector
; File C:\Program Files (x86)\Microsoft Visual Studio\2019\Community\VC\Tools\MSVC\14.28.29333\include\xmemory
; File C:\Program Files (x86)\Microsoft Visual Studio\2019\Community\VC\Tools\MSVC\14.28.29333\include\vector
;	COMDAT ??$_Resize_reallocate@U_Value_init_tag@std@@@?$vector@EV?$allocator@E@std@@@std@@AAEXIABU_Value_init_tag@1@@Z
_TEXT	SEGMENT
$T2 = -136						; size = 4
$T3 = -132						; size = 4
__First$ = -128						; size = 4
__Last$ = -124						; size = 4
$T4 = -120						; size = 4
$T5 = -116						; size = 4
tv238 = -112						; size = 4
$T6 = -108						; size = 4
$T7 = -104						; size = 4
$T8 = -100						; size = 4
$T9 = -96						; size = 4
$T10 = -92						; size = 4
$T11 = -88						; size = 4
$T12 = -84						; size = 4
$T13 = -80						; size = 4
__Appended_last$ = -76					; size = 4
__Myfirst$ = -72					; size = 4
__Mylast$ = -68						; size = 4
__Oldsize$ = -64					; size = 4
__My_data$ = -60					; size = 4
tv145 = -56						; size = 4
$T14 = -52						; size = 4
$T15 = -48						; size = 4
__Newcapacity$ = -44					; size = 4
__Appended_first$ = -40					; size = 4
__Newvec$ = -36						; size = 4
_this$ = -32						; size = 4
___formal$ = -28					; size = 1
___formal$ = -24					; size = 1
__Overflow_is_possible$16 = -18				; size = 1
$T17 = -17						; size = 1
__$EHRec$ = -16						; size = 16
__Newsize$ = 8						; size = 4
__Val$ = 12						; size = 4
??$_Resize_reallocate@U_Value_init_tag@std@@@?$vector@EV?$allocator@E@std@@@std@@AAEXIABU_Value_init_tag@1@@Z PROC ; std::vector<unsigned char,std::allocator<unsigned char> >::_Resize_reallocate<std::_Value_init_tag>, COMDAT
; _this$ = ecx

; 1182 :     void _Resize_reallocate(const size_type _Newsize, const _Ty2& _Val) {

  00000	55		 push	 ebp
  00001	8b ec		 mov	 ebp, esp
  00003	6a ff		 push	 -1
  00005	68 00 00 00 00	 push	 __ehhandler$??$_Resize_reallocate@U_Value_init_tag@std@@@?$vector@EV?$allocator@E@std@@@std@@AAEXIABU_Value_init_tag@1@@Z
  0000a	64 a1 00 00 00
	00		 mov	 eax, DWORD PTR fs:0
  00010	50		 push	 eax
  00011	51		 push	 ecx
  00012	83 ec 78	 sub	 esp, 120		; 00000078H
  00015	53		 push	 ebx
  00016	56		 push	 esi
  00017	57		 push	 edi
  00018	a1 00 00 00 00	 mov	 eax, DWORD PTR ___security_cookie
  0001d	33 c5		 xor	 eax, ebp
  0001f	50		 push	 eax
  00020	8d 45 f4	 lea	 eax, DWORD PTR __$EHRec$[ebp+4]
  00023	64 a3 00 00 00
	00		 mov	 DWORD PTR fs:0, eax
  00029	89 65 f0	 mov	 DWORD PTR __$EHRec$[ebp], esp
  0002c	89 4d e0	 mov	 DWORD PTR _this$[ebp], ecx

; 1737 :         return _Mypair._Get_first();

  0002f	8b 45 e0	 mov	 eax, DWORD PTR _this$[ebp]
; File C:\Program Files (x86)\Microsoft Visual Studio\2019\Community\VC\Tools\MSVC\14.28.29333\include\xmemory

; 1351 :         return *this;

  00032	89 45 b0	 mov	 DWORD PTR $T13[ebp], eax
; File C:\Program Files (x86)\Microsoft Visual Studio\2019\Community\VC\Tools\MSVC\14.28.29333\include\vector

; 1737 :         return _Mypair._Get_first();

  00035	8b 45 b0	 mov	 eax, DWORD PTR $T13[ebp]
  00038	89 85 7c ff ff
	ff		 mov	 DWORD PTR $T3[ebp], eax
; File C:\Program Files (x86)\Microsoft Visual Studio\2019\Community\VC\Tools\MSVC\14.28.29333\include\xmemory

; 710  :         return static_cast<size_t>(-1) / sizeof(value_type);

  0003e	83 4d d0 ff	 or	 DWORD PTR $T15[ebp], -1
; File C:\Program Files (x86)\Microsoft Visual Studio\2019\Community\VC\Tools\MSVC\14.28.29333\include\limits

; 557  :         return INT_MAX;

  00042	c7 45 ac ff ff
	ff 7f		 mov	 DWORD PTR $T12[ebp], 2147483647 ; 7fffffffH
; File C:\Program Files (x86)\Microsoft Visual Studio\2019\Community\VC\Tools\MSVC\14.28.29333\include\vector

; 1488 :         return (_STD min)(

  00049	8b 45 ac	 mov	 eax, DWORD PTR $T12[ebp]
  0004c	89 45 cc	 mov	 DWORD PTR $T14[ebp], eax
; File C:\Program Files (x86)\Microsoft Visual Studio\2019\Community\VC\Tools\MSVC\14.28.29333\include\utility

; 68   :     return _Right < _Left ? _Right : _Left;

  0004f	8b 45 d0	 mov	 eax, DWORD PTR $T15[ebp]
  00052	3b 45 cc	 cmp	 eax, DWORD PTR $T14[ebp]
  00055	73 08		 jae	 SHORT $LN26@Resize_rea
  00057	8d 45 d0	 lea	 eax, DWORD PTR $T15[ebp]
  0005a	89 45 c8	 mov	 DWORD PTR tv145[ebp], eax
  0005d	eb 06		 jmp	 SHORT $LN27@Resize_rea
$LN26@Resize_rea:
  0005f	8d 45 cc	 lea	 eax, DWORD PTR $T14[ebp]
  00062	89 45 c8	 mov	 DWORD PTR tv145[ebp], eax
$LN27@Resize_rea:
  00065	8b 45 c8	 mov	 eax, DWORD PTR tv145[ebp]
  00068	89 45 a8	 mov	 DWORD PTR $T11[ebp], eax
  0006b	8b 45 a8	 mov	 eax, DWORD PTR $T11[ebp]
  0006e	89 45 a4	 mov	 DWORD PTR $T10[ebp], eax
; File C:\Program Files (x86)\Microsoft Visual Studio\2019\Community\VC\Tools\MSVC\14.28.29333\include\vector

; 1488 :         return (_STD min)(

  00071	8b 45 a4	 mov	 eax, DWORD PTR $T10[ebp]
  00074	8b 00		 mov	 eax, DWORD PTR [eax]
  00076	89 45 a0	 mov	 DWORD PTR $T9[ebp], eax

; 1183 :         if (_Newsize > max_size()) {

  00079	8b 45 08	 mov	 eax, DWORD PTR __Newsize$[ebp]
  0007c	3b 45 a0	 cmp	 eax, DWORD PTR $T9[ebp]
  0007f	76 05		 jbe	 SHORT $LN2@Resize_rea

; 1184 :             _Xlength();

  00081	e8 00 00 00 00	 call	 ?_Xlength@?$vector@EV?$allocator@E@std@@@std@@CAXXZ ; std::vector<unsigned char,std::allocator<unsigned char> >::_Xlength
$LN2@Resize_rea:

; 1185 :         }
; 1186 : 
; 1187 :         auto& _My_data    = _Mypair._Myval2;

  00086	8b 45 e0	 mov	 eax, DWORD PTR _this$[ebp]
  00089	89 45 c4	 mov	 DWORD PTR __My_data$[ebp], eax

; 1188 :         pointer& _Myfirst = _My_data._Myfirst;

  0008c	8b 45 c4	 mov	 eax, DWORD PTR __My_data$[ebp]
  0008f	89 45 b8	 mov	 DWORD PTR __Myfirst$[ebp], eax

; 1189 :         pointer& _Mylast  = _My_data._Mylast;

  00092	8b 45 c4	 mov	 eax, DWORD PTR __My_data$[ebp]
  00095	83 c0 04	 add	 eax, 4
  00098	89 45 bc	 mov	 DWORD PTR __Mylast$[ebp], eax

; 1190 : 
; 1191 :         const auto _Oldsize          = static_cast<size_type>(_Mylast - _Myfirst);

  0009b	8b 45 bc	 mov	 eax, DWORD PTR __Mylast$[ebp]
  0009e	8b 4d b8	 mov	 ecx, DWORD PTR __Myfirst$[ebp]
  000a1	8b 00		 mov	 eax, DWORD PTR [eax]
  000a3	2b 01		 sub	 eax, DWORD PTR [ecx]
  000a5	89 45 c0	 mov	 DWORD PTR __Oldsize$[ebp], eax

; 1192 :         const size_type _Newcapacity = _Calculate_growth(_Newsize);

  000a8	ff 75 08	 push	 DWORD PTR __Newsize$[ebp]
  000ab	8b 4d e0	 mov	 ecx, DWORD PTR _this$[ebp]
  000ae	e8 00 00 00 00	 call	 ?_Calculate_growth@?$vector@EV?$allocator@E@std@@@std@@ABEII@Z ; std::vector<unsigned char,std::allocator<unsigned char> >::_Calculate_growth
  000b3	89 45 d4	 mov	 DWORD PTR __Newcapacity$[ebp], eax

; 1733 :         return _Mypair._Get_first();

  000b6	8b 45 e0	 mov	 eax, DWORD PTR _this$[ebp]
; File C:\Program Files (x86)\Microsoft Visual Studio\2019\Community\VC\Tools\MSVC\14.28.29333\include\xmemory

; 1347 :         return *this;

  000b9	89 45 9c	 mov	 DWORD PTR $T8[ebp], eax
; File C:\Program Files (x86)\Microsoft Visual Studio\2019\Community\VC\Tools\MSVC\14.28.29333\include\vector

; 1733 :         return _Mypair._Get_first();

  000bc	8b 45 9c	 mov	 eax, DWORD PTR $T8[ebp]
  000bf	89 85 78 ff ff
	ff		 mov	 DWORD PTR $T2[ebp], eax
; File C:\Program Files (x86)\Microsoft Visual Studio\2019\Community\VC\Tools\MSVC\14.28.29333\include\xmemory

; 56   :     constexpr bool _Overflow_is_possible = _Ty_size > 1;

  000c5	c6 45 ee 00	 mov	 BYTE PTR __Overflow_is_possible$16[ebp], 0

; 814  :         return static_cast<_Ty*>(_Allocate<_New_alignof<_Ty>>(_Get_size_of_n<sizeof(_Ty)>(_Count)));

  000c9	ff 75 d4	 push	 DWORD PTR __Newcapacity$[ebp]
  000cc	e8 00 00 00 00	 call	 ??$_Allocate@$07U_Default_allocate_traits@std@@$0A@@std@@YAPAXI@Z ; std::_Allocate<8,std::_Default_allocate_traits,0>
  000d1	59		 pop	 ecx
; File C:\Program Files (x86)\Microsoft Visual Studio\2019\Community\VC\Tools\MSVC\14.28.29333\include\vector

; 1194 :         const pointer _Newvec         = _Getal().allocate(_Newcapacity);

  000d2	89 45 dc	 mov	 DWORD PTR __Newvec$[ebp], eax

; 1195 :         const pointer _Appended_first = _Newvec + _Oldsize;

  000d5	8b 45 dc	 mov	 eax, DWORD PTR __Newvec$[ebp]
  000d8	03 45 c0	 add	 eax, DWORD PTR __Oldsize$[ebp]
  000db	89 45 d8	 mov	 DWORD PTR __Appended_first$[ebp], eax

; 1196 :         pointer _Appended_last        = _Appended_first;

  000de	8b 45 d8	 mov	 eax, DWORD PTR __Appended_first$[ebp]
  000e1	89 45 b4	 mov	 DWORD PTR __Appended_last$[ebp], eax

; 1197 : 
; 1198 :         _TRY_BEGIN

  000e4	83 65 fc 00	 and	 DWORD PTR __$EHRec$[ebp+12], 0

; 1199 :         _Appended_last = _Ufill(_Appended_first, _Newsize - _Oldsize, _Val);

  000e8	8b 45 0c	 mov	 eax, DWORD PTR __Val$[ebp]
  000eb	8a 00		 mov	 al, BYTE PTR [eax]
  000ed	88 45 e8	 mov	 BYTE PTR ___formal$[ebp], al

; 1733 :         return _Mypair._Get_first();

  000f0	8b 45 e0	 mov	 eax, DWORD PTR _this$[ebp]
; File C:\Program Files (x86)\Microsoft Visual Studio\2019\Community\VC\Tools\MSVC\14.28.29333\include\xmemory

; 1347 :         return *this;

  000f3	89 45 98	 mov	 DWORD PTR $T7[ebp], eax
; File C:\Program Files (x86)\Microsoft Visual Studio\2019\Community\VC\Tools\MSVC\14.28.29333\include\vector

; 1733 :         return _Mypair._Get_first();

  000f6	8b 45 98	 mov	 eax, DWORD PTR $T7[ebp]
  000f9	89 45 94	 mov	 DWORD PTR $T6[ebp], eax

; 1583 :         return _Uninitialized_value_construct_n(_Dest, _Count, _Getal());

  000fc	ff 75 94	 push	 DWORD PTR $T6[ebp]

; 1199 :         _Appended_last = _Ufill(_Appended_first, _Newsize - _Oldsize, _Val);

  000ff	8b 45 08	 mov	 eax, DWORD PTR __Newsize$[ebp]
  00102	2b 45 c0	 sub	 eax, DWORD PTR __Oldsize$[ebp]

; 1583 :         return _Uninitialized_value_construct_n(_Dest, _Count, _Getal());

  00105	50		 push	 eax
  00106	ff 75 d8	 push	 DWORD PTR __Appended_first$[ebp]
  00109	e8 00 00 00 00	 call	 ??$_Uninitialized_value_construct_n@V?$allocator@E@std@@@std@@YAPAEPAEIAAV?$allocator@E@0@@Z ; std::_Uninitialized_value_construct_n<std::allocator<unsigned char> >
  0010e	83 c4 0c	 add	 esp, 12			; 0000000cH
  00111	89 45 90	 mov	 DWORD PTR tv238[ebp], eax

; 1199 :         _Appended_last = _Ufill(_Appended_first, _Newsize - _Oldsize, _Val);

  00114	8b 45 90	 mov	 eax, DWORD PTR tv238[ebp]
  00117	89 45 b4	 mov	 DWORD PTR __Appended_last$[ebp], eax

; 1200 :         _Umove_if_noexcept(_Myfirst, _Mylast, _Newvec);

  0011a	8b 45 bc	 mov	 eax, DWORD PTR __Mylast$[ebp]
  0011d	8b 00		 mov	 eax, DWORD PTR [eax]
  0011f	89 45 84	 mov	 DWORD PTR __Last$[ebp], eax
  00122	8b 45 b8	 mov	 eax, DWORD PTR __Myfirst$[ebp]
  00125	8b 00		 mov	 eax, DWORD PTR [eax]
  00127	89 45 80	 mov	 DWORD PTR __First$[ebp], eax

; 1607 :         _Umove_if_noexcept1(_First, _Last, _Dest,

  0012a	33 c0		 xor	 eax, eax
  0012c	88 45 ef	 mov	 BYTE PTR $T17[ebp], al
  0012f	8a 45 ef	 mov	 al, BYTE PTR $T17[ebp]
  00132	88 45 e4	 mov	 BYTE PTR ___formal$[ebp], al

; 1733 :         return _Mypair._Get_first();

  00135	8b 45 e0	 mov	 eax, DWORD PTR _this$[ebp]
; File C:\Program Files (x86)\Microsoft Visual Studio\2019\Community\VC\Tools\MSVC\14.28.29333\include\xmemory

; 1347 :         return *this;

  00138	89 45 8c	 mov	 DWORD PTR $T5[ebp], eax
; File C:\Program Files (x86)\Microsoft Visual Studio\2019\Community\VC\Tools\MSVC\14.28.29333\include\vector

; 1733 :         return _Mypair._Get_first();

  0013b	8b 45 8c	 mov	 eax, DWORD PTR $T5[ebp]
  0013e	89 45 88	 mov	 DWORD PTR $T4[ebp], eax

; 1597 :         _Uninitialized_move(_First, _Last, _Dest, _Getal());

  00141	ff 75 88	 push	 DWORD PTR $T4[ebp]
  00144	ff 75 dc	 push	 DWORD PTR __Newvec$[ebp]
  00147	ff 75 84	 push	 DWORD PTR __Last$[ebp]
  0014a	ff 75 80	 push	 DWORD PTR __First$[ebp]
  0014d	e8 00 00 00 00	 call	 ??$_Uninitialized_move@PAEV?$allocator@E@std@@@std@@YAPAEQAE0PAEAAV?$allocator@E@0@@Z ; std::_Uninitialized_move<unsigned char *,std::allocator<unsigned char> >
  00152	83 c4 10	 add	 esp, 16			; 00000010H

; 1200 :         _Umove_if_noexcept(_Myfirst, _Mylast, _Newvec);

  00155	eb 32		 jmp	 SHORT $LN5@Resize_rea
__catch$??$_Resize_reallocate@U_Value_init_tag@std@@@?$vector@EV?$allocator@E@std@@@std@@AAEXIABU_Value_init_tag@1@@Z$0:

; 1201 :         _CATCH_ALL
; 1202 :         _Destroy(_Appended_first, _Appended_last);

  00157	ff 75 b4	 push	 DWORD PTR __Appended_last$[ebp]
  0015a	ff 75 d8	 push	 DWORD PTR __Appended_first$[ebp]
  0015d	8b 4d e0	 mov	 ecx, DWORD PTR _this$[ebp]
  00160	e8 00 00 00 00	 call	 ?_Destroy@?$vector@EV?$allocator@E@std@@@std@@AAEXPAE0@Z ; std::vector<unsigned char,std::allocator<unsigned char> >::_Destroy

; 1203 :         _Getal().deallocate(_Newvec, _Newcapacity);

  00165	ff 75 d4	 push	 DWORD PTR __Newcapacity$[ebp]
  00168	ff 75 dc	 push	 DWORD PTR __Newvec$[ebp]
  0016b	8b 4d e0	 mov	 ecx, DWORD PTR _this$[ebp]
  0016e	e8 00 00 00 00	 call	 ?_Getal@?$vector@EV?$allocator@E@std@@@std@@AAEAAV?$allocator@E@2@XZ ; std::vector<unsigned char,std::allocator<unsigned char> >::_Getal
  00173	8b c8		 mov	 ecx, eax
  00175	e8 00 00 00 00	 call	 ?deallocate@?$allocator@E@std@@QAEXQAEI@Z ; std::allocator<unsigned char>::deallocate

; 1204 :         _RERAISE;

  0017a	6a 00		 push	 0
  0017c	6a 00		 push	 0
  0017e	e8 00 00 00 00	 call	 __CxxThrowException@8

; 1205 :         _CATCH_END

  00183	b8 00 00 00 00	 mov	 eax, $LN8@Resize_rea
  00188	c3		 ret	 0
$LN5@Resize_rea:
  00189	83 4d fc ff	 or	 DWORD PTR __$EHRec$[ebp+12], -1
  0018d	eb 04		 jmp	 SHORT __tryend$??$_Resize_reallocate@U_Value_init_tag@std@@@?$vector@EV?$allocator@E@std@@@std@@AAEXIABU_Value_init_tag@1@@Z$1
$LN8@Resize_rea:
; File C:\Program Files (x86)\Microsoft Visual Studio\2019\Community\VC\Tools\MSVC\14.28.29333\include\xmemory
  0018f	83 4d fc ff	 or	 DWORD PTR __$EHRec$[ebp+12], -1
__tryend$??$_Resize_reallocate@U_Value_init_tag@std@@@?$vector@EV?$allocator@E@std@@@std@@AAEXIABU_Value_init_tag@1@@Z$1:
; File C:\Program Files (x86)\Microsoft Visual Studio\2019\Community\VC\Tools\MSVC\14.28.29333\include\vector

; 1206 : 
; 1207 :         _Change_array(_Newvec, _Newsize, _Newcapacity);

  00193	ff 75 d4	 push	 DWORD PTR __Newcapacity$[ebp]
  00196	ff 75 08	 push	 DWORD PTR __Newsize$[ebp]
  00199	ff 75 dc	 push	 DWORD PTR __Newvec$[ebp]
  0019c	8b 4d e0	 mov	 ecx, DWORD PTR _this$[ebp]
  0019f	e8 00 00 00 00	 call	 ?_Change_array@?$vector@EV?$allocator@E@std@@@std@@AAEXQAEII@Z ; std::vector<unsigned char,std::allocator<unsigned char> >::_Change_array
$LN4@Resize_rea:

; 1208 :     }

  001a4	8b 4d f4	 mov	 ecx, DWORD PTR __$EHRec$[ebp+4]
  001a7	64 89 0d 00 00
	00 00		 mov	 DWORD PTR fs:0, ecx
  001ae	59		 pop	 ecx
  001af	5f		 pop	 edi
  001b0	5e		 pop	 esi
  001b1	5b		 pop	 ebx
  001b2	c9		 leave
  001b3	c2 08 00	 ret	 8
  001b6	cc		 int	 3
  001b7	cc		 int	 3
  001b8	cc		 int	 3
  001b9	cc		 int	 3
  001ba	cc		 int	 3
_TEXT	ENDS
;	COMDAT text$x
text$x	SEGMENT
__ehhandler$??$_Resize_reallocate@U_Value_init_tag@std@@@?$vector@EV?$allocator@E@std@@@std@@AAEXIABU_Value_init_tag@1@@Z:
  00000	90		 npad	 1
  00001	90		 npad	 1
  00002	8b 54 24 08	 mov	 edx, DWORD PTR [esp+8]
  00006	8d 42 0c	 lea	 eax, DWORD PTR [edx+12]
  00009	8b 8a 74 ff ff
	ff		 mov	 ecx, DWORD PTR [edx-140]
  0000f	33 c8		 xor	 ecx, eax
  00011	e8 00 00 00 00	 call	 @__security_check_cookie@4
  00016	b8 00 00 00 00	 mov	 eax, OFFSET __ehfuncinfo$??$_Resize_reallocate@U_Value_init_tag@std@@@?$vector@EV?$allocator@E@std@@@std@@AAEXIABU_Value_init_tag@1@@Z
  0001b	e9 00 00 00 00	 jmp	 ___CxxFrameHandler3
text$x	ENDS
??$_Resize_reallocate@U_Value_init_tag@std@@@?$vector@EV?$allocator@E@std@@@std@@AAEXIABU_Value_init_tag@1@@Z ENDP ; std::vector<unsigned char,std::allocator<unsigned char> >::_Resize_reallocate<std::_Value_init_tag>
; Function compile flags: /Odspy
; File C:\Program Files (x86)\Microsoft Visual Studio\2019\Community\VC\Tools\MSVC\14.28.29333\include\vector
; File C:\Program Files (x86)\Microsoft Visual Studio\2019\Community\VC\Tools\MSVC\14.28.29333\include\xutility
; File C:\Program Files (x86)\Microsoft Visual Studio\2019\Community\VC\Tools\MSVC\14.28.29333\include\xmemory
; File C:\Program Files (x86)\Microsoft Visual Studio\2019\Community\VC\Tools\MSVC\14.28.29333\include\vector
; File C:\Program Files (x86)\Microsoft Visual Studio\2019\Community\VC\Tools\MSVC\14.28.29333\include\xstddef
; File C:\Program Files (x86)\Microsoft Visual Studio\2019\Community\VC\Tools\MSVC\14.28.29333\include\vector
;	COMDAT ??$_Assign_range@PA_W@?$vector@_WV?$allocator@_W@std@@@std@@AAEXPA_W0Uforward_iterator_tag@1@@Z
_TEXT	SEGMENT
__Mylast$ = -36						; size = 4
$T1 = -32						; size = 4
__Ptr$ = -28						; size = 4
__Oldcapacity$2 = -24					; size = 4
__Myend$ = -20						; size = 4
__Myfirst$ = -16					; size = 4
_this$ = -12						; size = 4
__Newsize$ = -8						; size = 4
__My_data$ = -4						; size = 4
__First$ = 8						; size = 4
__Last$ = 12						; size = 4
___formal$ = 16						; size = 1
??$_Assign_range@PA_W@?$vector@_WV?$allocator@_W@std@@@std@@AAEXPA_W0Uforward_iterator_tag@1@@Z PROC ; std::vector<wchar_t,std::allocator<wchar_t> >::_Assign_range<wchar_t *>, COMDAT
; _this$ = ecx

; 1094 :     void _Assign_range(_Iter _First, _Iter _Last, forward_iterator_tag) { // assign forward range [_First, _Last)

  00000	55		 push	 ebp
  00001	8b ec		 mov	 ebp, esp
  00003	83 ec 24	 sub	 esp, 36			; 00000024H
  00006	89 4d f4	 mov	 DWORD PTR _this$[ebp], ecx
; File C:\Program Files (x86)\Microsoft Visual Studio\2019\Community\VC\Tools\MSVC\14.28.29333\include\xutility

; 1794 :         return _Last - _First; // assume the iterator will do debug checking

  00009	8b 45 0c	 mov	 eax, DWORD PTR __Last$[ebp]
  0000c	2b 45 08	 sub	 eax, DWORD PTR __First$[ebp]
  0000f	d1 f8		 sar	 eax, 1
; File C:\Program Files (x86)\Microsoft Visual Studio\2019\Community\VC\Tools\MSVC\14.28.29333\include\xmemory

; 997  :     return _Len;

  00011	89 45 f8	 mov	 DWORD PTR __Newsize$[ebp], eax
; File C:\Program Files (x86)\Microsoft Visual Studio\2019\Community\VC\Tools\MSVC\14.28.29333\include\vector

; 1096 :         auto& _My_data      = _Mypair._Myval2;

  00014	8b 45 f4	 mov	 eax, DWORD PTR _this$[ebp]
  00017	89 45 fc	 mov	 DWORD PTR __My_data$[ebp], eax

; 1097 :         pointer& _Myfirst   = _My_data._Myfirst;

  0001a	8b 45 fc	 mov	 eax, DWORD PTR __My_data$[ebp]
  0001d	89 45 f0	 mov	 DWORD PTR __Myfirst$[ebp], eax

; 1098 :         pointer& _Mylast    = _My_data._Mylast;

  00020	8b 45 fc	 mov	 eax, DWORD PTR __My_data$[ebp]
  00023	83 c0 04	 add	 eax, 4
  00026	89 45 dc	 mov	 DWORD PTR __Mylast$[ebp], eax

; 1099 :         pointer& _Myend     = _My_data._Myend;

  00029	8b 45 fc	 mov	 eax, DWORD PTR __My_data$[ebp]
  0002c	83 c0 08	 add	 eax, 8
  0002f	89 45 ec	 mov	 DWORD PTR __Myend$[ebp], eax

; 1100 : 
; 1101 :         _My_data._Orphan_all();
; 1102 : 
; 1103 : #if _HAS_IF_CONSTEXPR
; 1104 :         if constexpr (conjunction_v<bool_constant<_Ptr_copy_cat<_Iter, _Ty*>::_Trivially_copyable>,
; 1105 :                           _Uses_default_construct<_Alty, _Ty*, decltype(*_First)>,
; 1106 :                           _Uses_default_destroy<_Alty, _Ty*>>) {
; 1107 :             const auto _Oldcapacity = static_cast<size_type>(_Myend - _Myfirst);

  00032	8b 45 ec	 mov	 eax, DWORD PTR __Myend$[ebp]
  00035	8b 4d f0	 mov	 ecx, DWORD PTR __Myfirst$[ebp]
  00038	8b 00		 mov	 eax, DWORD PTR [eax]
  0003a	2b 01		 sub	 eax, DWORD PTR [ecx]
  0003c	d1 f8		 sar	 eax, 1
  0003e	89 45 e8	 mov	 DWORD PTR __Oldcapacity$2[ebp], eax

; 1108 :             if (_Newsize > _Oldcapacity) {

  00041	8b 45 f8	 mov	 eax, DWORD PTR __Newsize$[ebp]
  00044	3b 45 e8	 cmp	 eax, DWORD PTR __Oldcapacity$2[ebp]
  00047	76 0b		 jbe	 SHORT $LN2@Assign_ran

; 1109 :                 _Clear_and_reserve_geometric(_Newsize);

  00049	ff 75 f8	 push	 DWORD PTR __Newsize$[ebp]
  0004c	8b 4d f4	 mov	 ecx, DWORD PTR _this$[ebp]
  0004f	e8 00 00 00 00	 call	 ?_Clear_and_reserve_geometric@?$vector@_WV?$allocator@_W@std@@@std@@AAEXI@Z ; std::vector<wchar_t,std::allocator<wchar_t> >::_Clear_and_reserve_geometric
$LN2@Assign_ran:

; 1112 :             _Mylast = _Refancy<pointer>(_Copy_memmove(_First, _Last, _Unfancy(_Myfirst)));

  00054	8b 45 f0	 mov	 eax, DWORD PTR __Myfirst$[ebp]
  00057	8b 00		 mov	 eax, DWORD PTR [eax]
  00059	89 45 e4	 mov	 DWORD PTR __Ptr$[ebp], eax
; File C:\Program Files (x86)\Microsoft Visual Studio\2019\Community\VC\Tools\MSVC\14.28.29333\include\xstddef

; 289  :     return _Ptr;

  0005c	8b 45 e4	 mov	 eax, DWORD PTR __Ptr$[ebp]
  0005f	89 45 e0	 mov	 DWORD PTR $T1[ebp], eax
; File C:\Program Files (x86)\Microsoft Visual Studio\2019\Community\VC\Tools\MSVC\14.28.29333\include\vector

; 1112 :             _Mylast = _Refancy<pointer>(_Copy_memmove(_First, _Last, _Unfancy(_Myfirst)));

  00062	ff 75 e0	 push	 DWORD PTR $T1[ebp]
  00065	ff 75 0c	 push	 DWORD PTR __Last$[ebp]
  00068	ff 75 08	 push	 DWORD PTR __First$[ebp]
  0006b	e8 00 00 00 00	 call	 ??$_Copy_memmove@PA_WPA_W@std@@YAPA_WPA_W00@Z ; std::_Copy_memmove<wchar_t *,wchar_t *>
  00070	83 c4 0c	 add	 esp, 12			; 0000000cH
  00073	50		 push	 eax
  00074	e8 00 00 00 00	 call	 ??$_Refancy@PA_W$0A@@std@@YAPA_WPA_W@Z ; std::_Refancy<wchar_t *,0>
  00079	59		 pop	 ecx
  0007a	8b 4d dc	 mov	 ecx, DWORD PTR __Mylast$[ebp]
  0007d	89 01		 mov	 DWORD PTR [ecx], eax

; 1113 :         } else
; 1114 : #endif // _HAS_IF_CONSTEXPR
; 1115 :         {
; 1116 :             auto _Oldsize = static_cast<size_type>(_Mylast - _Myfirst);
; 1117 : 
; 1118 :             if (_Newsize > _Oldsize) {
; 1119 :                 const auto _Oldcapacity = static_cast<size_type>(_Myend - _Myfirst);
; 1120 :                 if (_Newsize > _Oldcapacity) { // reallocate
; 1121 :                     _Clear_and_reserve_geometric(_Newsize);
; 1122 :                     _Oldsize = 0;
; 1123 :                 }
; 1124 : 
; 1125 :                 // performance note: traversing [_First, _Mid) twice
; 1126 :                 const _Iter _Mid = _STD next(_First, static_cast<difference_type>(_Oldsize));
; 1127 :                 _Copy_unchecked(_First, _Mid, _Myfirst);
; 1128 :                 _Mylast = _Ucopy(_Mid, _Last, _Mylast);
; 1129 :             } else {
; 1130 :                 const pointer _Newlast = _Myfirst + _Newsize;
; 1131 :                 _Copy_unchecked(_First, _Last, _Myfirst);
; 1132 :                 _Destroy(_Newlast, _Mylast);
; 1133 :                 _Mylast = _Newlast;
; 1134 :             }
; 1135 :         }
; 1136 :     }

  0007f	c9		 leave
  00080	c2 0c 00	 ret	 12			; 0000000cH
??$_Assign_range@PA_W@?$vector@_WV?$allocator@_W@std@@@std@@AAEXPA_W0Uforward_iterator_tag@1@@Z ENDP ; std::vector<wchar_t,std::allocator<wchar_t> >::_Assign_range<wchar_t *>
_TEXT	ENDS
; Function compile flags: /Odspy
; File C:\Program Files (x86)\Microsoft Visual Studio\2019\Community\VC\Tools\MSVC\14.28.29333\include\xmemory
;	COMDAT ??$_Destroy_range@V?$allocator@E@std@@@std@@YAXPAEQAEAAV?$allocator@E@0@@Z
_TEXT	SEGMENT
__First$ = 8						; size = 4
__Last$ = 12						; size = 4
__Al$ = 16						; size = 4
??$_Destroy_range@V?$allocator@E@std@@@std@@YAXPAEQAEAAV?$allocator@E@0@@Z PROC ; std::_Destroy_range<std::allocator<unsigned char> >, COMDAT

; 962  :     _Alloc_ptr_t<_Alloc> _First, const _Alloc_ptr_t<_Alloc> _Last, _Alloc& _Al) noexcept {

  00000	55		 push	 ebp
  00001	8b ec		 mov	 ebp, esp

; 963  :     // note that this is an optimization for debug mode codegen; in release mode the BE removes all of this
; 964  :     using _Ty = typename _Alloc::value_type;
; 965  :     if _CONSTEXPR_IF (!conjunction_v<is_trivially_destructible<_Ty>, _Uses_default_destroy<_Alloc, _Ty*>>) {
; 966  :         for (; _First != _Last; ++_First) {
; 967  :             allocator_traits<_Alloc>::destroy(_Al, _Unfancy(_First));
; 968  :         }
; 969  :     }
; 970  : }

  00003	5d		 pop	 ebp
  00004	c3		 ret	 0
??$_Destroy_range@V?$allocator@E@std@@@std@@YAXPAEQAEAAV?$allocator@E@0@@Z ENDP ; std::_Destroy_range<std::allocator<unsigned char> >
_TEXT	ENDS
; Function compile flags: /Odspy
; File C:\Program Files (x86)\Microsoft Visual Studio\2019\Community\VC\Tools\MSVC\14.28.29333\include\xstring
; File C:\Program Files (x86)\Microsoft Visual Studio\2019\Community\VC\Tools\MSVC\14.28.29333\include\xmemory
; File C:\Program Files (x86)\Microsoft Visual Studio\2019\Community\VC\Tools\MSVC\14.28.29333\include\xstring
; File C:\Program Files (x86)\Microsoft Visual Studio\2019\Community\VC\Tools\MSVC\14.28.29333\include\xmemory
; File C:\Program Files (x86)\Microsoft Visual Studio\2019\Community\VC\Tools\MSVC\14.28.29333\include\xstring
; File C:\Program Files (x86)\Microsoft Visual Studio\2019\Community\VC\Tools\MSVC\14.28.29333\include\xmemory
; File C:\Program Files (x86)\Microsoft Visual Studio\2019\Community\VC\Tools\MSVC\14.28.29333\include\xstring
; File C:\Program Files (x86)\Microsoft Visual Studio\2019\Community\VC\Tools\MSVC\14.28.29333\include\xstddef
; File C:\Program Files (x86)\Microsoft Visual Studio\2019\Community\VC\Tools\MSVC\14.28.29333\include\xstring
; File C:\Program Files (x86)\Microsoft Visual Studio\2019\Community\VC\Tools\MSVC\14.28.29333\include\xstddef
; File C:\Program Files (x86)\Microsoft Visual Studio\2019\Community\VC\Tools\MSVC\14.28.29333\include\xstring
; File C:\Program Files (x86)\Microsoft Visual Studio\2019\Community\VC\Tools\MSVC\14.28.29333\include\xmemory
; File C:\Program Files (x86)\Microsoft Visual Studio\2019\Community\VC\Tools\MSVC\14.28.29333\include\xstring
;	COMDAT ??$_Reallocate_grow_by@V<lambda_ab246b20b9526e2ef7792587e4298a77>@@PBDI@?$basic_string@DU?$char_traits@D@std@@V?$allocator@D@2@@std@@AAEAAV01@IV<lambda_ab246b20b9526e2ef7792587e4298a77>@@PBDI@Z
_TEXT	SEGMENT
__Al$ = -64						; size = 4
__First1$ = -60						; size = 4
__First1$ = -56						; size = 4
$T1 = -52						; size = 4
__Ptr$ = -48						; size = 4
$T2 = -44						; size = 4
__Old_ptr$3 = -40					; size = 4
__Old_capacity$ = -36					; size = 4
__New_capacity$ = -32					; size = 4
__New_size$ = -28					; size = 4
__New_ptr$ = -24					; size = 4
_this$ = -20						; size = 4
__Raw_new$ = -16					; size = 4
__My_data$ = -12					; size = 4
__Old_size$ = -8					; size = 4
__Overflow_is_possible$4 = -3				; size = 1
$T5 = -2						; size = 1
$T6 = -1						; size = 1
__Size_increase$ = 8					; size = 4
__Fn$ = 12						; size = 1
_<_Args_0>$ = 16					; size = 4
_<_Args_1>$ = 20					; size = 4
??$_Reallocate_grow_by@V<lambda_ab246b20b9526e2ef7792587e4298a77>@@PBDI@?$basic_string@DU?$char_traits@D@std@@V?$allocator@D@2@@std@@AAEAAV01@IV<lambda_ab246b20b9526e2ef7792587e4298a77>@@PBDI@Z PROC ; std::basic_string<char,std::char_traits<char>,std::allocator<char> >::_Reallocate_grow_by<<lambda_ab246b20b9526e2ef7792587e4298a77>,char const *,unsigned int>, COMDAT
; _this$ = ecx

; 4328 :     basic_string& _Reallocate_grow_by(const size_type _Size_increase, _Fty _Fn, _ArgTys... _Args) {

  00000	55		 push	 ebp
  00001	8b ec		 mov	 ebp, esp
  00003	83 ec 40	 sub	 esp, 64			; 00000040H
  00006	89 4d ec	 mov	 DWORD PTR _this$[ebp], ecx

; 4329 :         // reallocate to increase size by _Size_increase elements, new buffer prepared by
; 4330 :         // _Fn(_New_ptr, _Old_ptr, _Old_size, _Args...)
; 4331 :         auto& _My_data            = _Mypair._Myval2;

  00009	8b 45 ec	 mov	 eax, DWORD PTR _this$[ebp]
  0000c	89 45 f4	 mov	 DWORD PTR __My_data$[ebp], eax

; 4332 :         const size_type _Old_size = _My_data._Mysize;

  0000f	8b 45 f4	 mov	 eax, DWORD PTR __My_data$[ebp]
  00012	8b 40 10	 mov	 eax, DWORD PTR [eax+16]
  00015	89 45 f8	 mov	 DWORD PTR __Old_size$[ebp], eax

; 4333 :         if (max_size() - _Old_size < _Size_increase) {

  00018	8b 4d ec	 mov	 ecx, DWORD PTR _this$[ebp]
  0001b	e8 00 00 00 00	 call	 ?max_size@?$basic_string@DU?$char_traits@D@std@@V?$allocator@D@2@@std@@QBEIXZ ; std::basic_string<char,std::char_traits<char>,std::allocator<char> >::max_size
  00020	2b 45 f8	 sub	 eax, DWORD PTR __Old_size$[ebp]
  00023	3b 45 08	 cmp	 eax, DWORD PTR __Size_increase$[ebp]
  00026	73 05		 jae	 SHORT $LN2@Reallocate

; 4334 :             _Xlen_string(); // result too long

  00028	e8 00 00 00 00	 call	 ?_Xlen_string@std@@YAXXZ ; std::_Xlen_string
$LN2@Reallocate:

; 4335 :         }
; 4336 : 
; 4337 :         const size_type _New_size     = _Old_size + _Size_increase;

  0002d	8b 45 f8	 mov	 eax, DWORD PTR __Old_size$[ebp]
  00030	03 45 08	 add	 eax, DWORD PTR __Size_increase$[ebp]
  00033	89 45 e4	 mov	 DWORD PTR __New_size$[ebp], eax

; 4338 :         const size_type _Old_capacity = _My_data._Myres;

  00036	8b 45 f4	 mov	 eax, DWORD PTR __My_data$[ebp]
  00039	8b 40 14	 mov	 eax, DWORD PTR [eax+20]
  0003c	89 45 dc	 mov	 DWORD PTR __Old_capacity$[ebp], eax

; 4298 :         return _Calculate_growth(_Requested, _Mypair._Myval2._Myres, max_size());

  0003f	8b 4d ec	 mov	 ecx, DWORD PTR _this$[ebp]
  00042	e8 00 00 00 00	 call	 ?max_size@?$basic_string@DU?$char_traits@D@std@@V?$allocator@D@2@@std@@QBEIXZ ; std::basic_string<char,std::char_traits<char>,std::allocator<char> >::max_size
  00047	50		 push	 eax
  00048	8b 45 ec	 mov	 eax, DWORD PTR _this$[ebp]
  0004b	ff 70 14	 push	 DWORD PTR [eax+20]
  0004e	ff 75 e4	 push	 DWORD PTR __New_size$[ebp]
  00051	e8 00 00 00 00	 call	 ?_Calculate_growth@?$basic_string@DU?$char_traits@D@std@@V?$allocator@D@2@@std@@CAIIII@Z ; std::basic_string<char,std::char_traits<char>,std::allocator<char> >::_Calculate_growth
  00056	83 c4 0c	 add	 esp, 12			; 0000000cH
  00059	89 45 e0	 mov	 DWORD PTR __New_capacity$[ebp], eax

; 4409 :         return _Mypair._Get_first();

  0005c	8b 45 ec	 mov	 eax, DWORD PTR _this$[ebp]
; File C:\Program Files (x86)\Microsoft Visual Studio\2019\Community\VC\Tools\MSVC\14.28.29333\include\xmemory

; 1347 :         return *this;

  0005f	89 45 d4	 mov	 DWORD PTR $T2[ebp], eax
; File C:\Program Files (x86)\Microsoft Visual Studio\2019\Community\VC\Tools\MSVC\14.28.29333\include\xstring

; 4409 :         return _Mypair._Get_first();

  00062	8b 45 d4	 mov	 eax, DWORD PTR $T2[ebp]
  00065	89 45 c0	 mov	 DWORD PTR __Al$[ebp], eax
; File C:\Program Files (x86)\Microsoft Visual Studio\2019\Community\VC\Tools\MSVC\14.28.29333\include\xmemory

; 56   :     constexpr bool _Overflow_is_possible = _Ty_size > 1;

  00068	c6 45 fd 00	 mov	 BYTE PTR __Overflow_is_possible$4[ebp], 0
; File C:\Program Files (x86)\Microsoft Visual Studio\2019\Community\VC\Tools\MSVC\14.28.29333\include\xstring

; 4341 :         const pointer _New_ptr        = _Al.allocate(_New_capacity + 1); // throws

  0006c	8b 45 e0	 mov	 eax, DWORD PTR __New_capacity$[ebp]
  0006f	40		 inc	 eax
; File C:\Program Files (x86)\Microsoft Visual Studio\2019\Community\VC\Tools\MSVC\14.28.29333\include\xmemory

; 814  :         return static_cast<_Ty*>(_Allocate<_New_alignof<_Ty>>(_Get_size_of_n<sizeof(_Ty)>(_Count)));

  00070	50		 push	 eax
  00071	e8 00 00 00 00	 call	 ??$_Allocate@$07U_Default_allocate_traits@std@@$0A@@std@@YAPAXI@Z ; std::_Allocate<8,std::_Default_allocate_traits,0>
  00076	59		 pop	 ecx
; File C:\Program Files (x86)\Microsoft Visual Studio\2019\Community\VC\Tools\MSVC\14.28.29333\include\xstring

; 4341 :         const pointer _New_ptr        = _Al.allocate(_New_capacity + 1); // throws

  00077	89 45 e8	 mov	 DWORD PTR __New_ptr$[ebp], eax

; 4342 :         _My_data._Orphan_all();
; 4343 :         _My_data._Mysize      = _New_size;

  0007a	8b 45 f4	 mov	 eax, DWORD PTR __My_data$[ebp]
  0007d	8b 4d e4	 mov	 ecx, DWORD PTR __New_size$[ebp]
  00080	89 48 10	 mov	 DWORD PTR [eax+16], ecx

; 4344 :         _My_data._Myres       = _New_capacity;

  00083	8b 45 f4	 mov	 eax, DWORD PTR __My_data$[ebp]
  00086	8b 4d e0	 mov	 ecx, DWORD PTR __New_capacity$[ebp]
  00089	89 48 14	 mov	 DWORD PTR [eax+20], ecx

; 4345 :         _Elem* const _Raw_new = _Unfancy(_New_ptr);

  0008c	8b 45 e8	 mov	 eax, DWORD PTR __New_ptr$[ebp]
  0008f	89 45 d0	 mov	 DWORD PTR __Ptr$[ebp], eax
; File C:\Program Files (x86)\Microsoft Visual Studio\2019\Community\VC\Tools\MSVC\14.28.29333\include\xstddef

; 289  :     return _Ptr;

  00092	8b 45 d0	 mov	 eax, DWORD PTR __Ptr$[ebp]
  00095	89 45 f0	 mov	 DWORD PTR __Raw_new$[ebp], eax
; File C:\Program Files (x86)\Microsoft Visual Studio\2019\Community\VC\Tools\MSVC\14.28.29333\include\xstring

; 4346 :         if (_BUF_SIZE <= _Old_capacity) {

  00098	83 7d dc 10	 cmp	 DWORD PTR __Old_capacity$[ebp], 16 ; 00000010H
  0009c	72 65		 jb	 SHORT $LN3@Reallocate

; 4347 :             const pointer _Old_ptr = _My_data._Bx._Ptr;

  0009e	8b 45 f4	 mov	 eax, DWORD PTR __My_data$[ebp]
  000a1	8b 00		 mov	 eax, DWORD PTR [eax]
  000a3	89 45 d8	 mov	 DWORD PTR __Old_ptr$3[ebp], eax
; File C:\Program Files (x86)\Microsoft Visual Studio\2019\Community\VC\Tools\MSVC\14.28.29333\include\xstddef

; 289  :     return _Ptr;

  000a6	8b 45 d8	 mov	 eax, DWORD PTR __Old_ptr$3[ebp]
  000a9	89 45 cc	 mov	 DWORD PTR $T1[ebp], eax
; File C:\Program Files (x86)\Microsoft Visual Studio\2019\Community\VC\Tools\MSVC\14.28.29333\include\xstring

; 62   :         _CSTD memcpy(_First1, _First2, _Count * sizeof(_Elem));

  000ac	ff 75 f8	 push	 DWORD PTR __Old_size$[ebp]
  000af	ff 75 cc	 push	 DWORD PTR $T1[ebp]
  000b2	ff 75 f0	 push	 DWORD PTR __Raw_new$[ebp]
  000b5	e8 00 00 00 00	 call	 _memcpy
  000ba	83 c4 0c	 add	 esp, 12			; 0000000cH

; 2951 :                 _Traits::copy(_New_ptr + _Old_size, _Ptr, _Count);

  000bd	8b 45 f0	 mov	 eax, DWORD PTR __Raw_new$[ebp]
  000c0	03 45 f8	 add	 eax, DWORD PTR __Old_size$[ebp]
  000c3	89 45 c8	 mov	 DWORD PTR __First1$[ebp], eax

; 62   :         _CSTD memcpy(_First1, _First2, _Count * sizeof(_Elem));

  000c6	ff 75 14	 push	 DWORD PTR _<_Args_1>$[ebp]
  000c9	ff 75 10	 push	 DWORD PTR _<_Args_0>$[ebp]
  000cc	ff 75 c8	 push	 DWORD PTR __First1$[ebp]
  000cf	e8 00 00 00 00	 call	 _memcpy
  000d4	83 c4 0c	 add	 esp, 12			; 0000000cH

; 2952 :                 _Traits::assign(_New_ptr[_Old_size + _Count], _Elem());

  000d7	c6 45 ff 00	 mov	 BYTE PTR $T6[ebp], 0
  000db	8b 45 f8	 mov	 eax, DWORD PTR __Old_size$[ebp]
  000de	03 45 14	 add	 eax, DWORD PTR _<_Args_1>$[ebp]

; 428  :         _Left = _Right;

  000e1	8b 4d f0	 mov	 ecx, DWORD PTR __Raw_new$[ebp]
  000e4	8a 55 ff	 mov	 dl, BYTE PTR $T6[ebp]
  000e7	88 14 01	 mov	 BYTE PTR [ecx+eax], dl

; 4348 :             _Fn(_Raw_new, _Unfancy(_Old_ptr), _Old_size, _Args...);
; 4349 :             _Al.deallocate(_Old_ptr, _Old_capacity + 1);

  000ea	8b 45 dc	 mov	 eax, DWORD PTR __Old_capacity$[ebp]
  000ed	40		 inc	 eax
; File C:\Program Files (x86)\Microsoft Visual Studio\2019\Community\VC\Tools\MSVC\14.28.29333\include\xmemory

; 810  :         _Deallocate<_New_alignof<_Ty>>(_Ptr, sizeof(_Ty) * _Count);

  000ee	50		 push	 eax
  000ef	ff 75 d8	 push	 DWORD PTR __Old_ptr$3[ebp]
  000f2	e8 00 00 00 00	 call	 ??$_Deallocate@$07$0A@@std@@YAXPAXI@Z ; std::_Deallocate<8,0>
  000f7	59		 pop	 ecx
  000f8	59		 pop	 ecx
; File C:\Program Files (x86)\Microsoft Visual Studio\2019\Community\VC\Tools\MSVC\14.28.29333\include\xstring

; 4350 :             _My_data._Bx._Ptr = _New_ptr;

  000f9	8b 45 f4	 mov	 eax, DWORD PTR __My_data$[ebp]
  000fc	8b 4d e8	 mov	 ecx, DWORD PTR __New_ptr$[ebp]
  000ff	89 08		 mov	 DWORD PTR [eax], ecx

; 4351 :         } else {

  00101	eb 4c		 jmp	 SHORT $LN4@Reallocate
$LN3@Reallocate:

; 62   :         _CSTD memcpy(_First1, _First2, _Count * sizeof(_Elem));

  00103	ff 75 f8	 push	 DWORD PTR __Old_size$[ebp]
  00106	ff 75 f4	 push	 DWORD PTR __My_data$[ebp]
  00109	ff 75 f0	 push	 DWORD PTR __Raw_new$[ebp]
  0010c	e8 00 00 00 00	 call	 _memcpy
  00111	83 c4 0c	 add	 esp, 12			; 0000000cH

; 2951 :                 _Traits::copy(_New_ptr + _Old_size, _Ptr, _Count);

  00114	8b 45 f0	 mov	 eax, DWORD PTR __Raw_new$[ebp]
  00117	03 45 f8	 add	 eax, DWORD PTR __Old_size$[ebp]
  0011a	89 45 c4	 mov	 DWORD PTR __First1$[ebp], eax

; 62   :         _CSTD memcpy(_First1, _First2, _Count * sizeof(_Elem));

  0011d	ff 75 14	 push	 DWORD PTR _<_Args_1>$[ebp]
  00120	ff 75 10	 push	 DWORD PTR _<_Args_0>$[ebp]
  00123	ff 75 c4	 push	 DWORD PTR __First1$[ebp]
  00126	e8 00 00 00 00	 call	 _memcpy
  0012b	83 c4 0c	 add	 esp, 12			; 0000000cH

; 2952 :                 _Traits::assign(_New_ptr[_Old_size + _Count], _Elem());

  0012e	c6 45 fe 00	 mov	 BYTE PTR $T5[ebp], 0
  00132	8b 45 f8	 mov	 eax, DWORD PTR __Old_size$[ebp]
  00135	03 45 14	 add	 eax, DWORD PTR _<_Args_1>$[ebp]

; 428  :         _Left = _Right;

  00138	8b 4d f0	 mov	 ecx, DWORD PTR __Raw_new$[ebp]
  0013b	8a 55 fe	 mov	 dl, BYTE PTR $T5[ebp]
  0013e	88 14 01	 mov	 BYTE PTR [ecx+eax], dl

; 4352 :             _Fn(_Raw_new, _My_data._Bx._Buf, _Old_size, _Args...);
; 4353 :             _Construct_in_place(_My_data._Bx._Ptr, _New_ptr);

  00141	8d 45 e8	 lea	 eax, DWORD PTR __New_ptr$[ebp]
  00144	50		 push	 eax
  00145	ff 75 f4	 push	 DWORD PTR __My_data$[ebp]
  00148	e8 00 00 00 00	 call	 ??$_Construct_in_place@PADABQAD@std@@YAXAAPADABQAD@Z ; std::_Construct_in_place<char *,char * const &>
  0014d	59		 pop	 ecx
  0014e	59		 pop	 ecx
$LN4@Reallocate:

; 4354 :         }
; 4355 : 
; 4356 :         return *this;

  0014f	8b 45 ec	 mov	 eax, DWORD PTR _this$[ebp]
$LN5@Reallocate:

; 4357 :     }

  00152	c9		 leave
  00153	c2 10 00	 ret	 16			; 00000010H
??$_Reallocate_grow_by@V<lambda_ab246b20b9526e2ef7792587e4298a77>@@PBDI@?$basic_string@DU?$char_traits@D@std@@V?$allocator@D@2@@std@@AAEAAV01@IV<lambda_ab246b20b9526e2ef7792587e4298a77>@@PBDI@Z ENDP ; std::basic_string<char,std::char_traits<char>,std::allocator<char> >::_Reallocate_grow_by<<lambda_ab246b20b9526e2ef7792587e4298a77>,char const *,unsigned int>
_TEXT	ENDS
; Function compile flags: /Odspy
; File C:\Program Files (x86)\Microsoft Visual Studio\2019\Community\VC\Tools\MSVC\14.28.29333\include\xmemory
;	COMDAT ??$_Destroy_range@V?$allocator@_W@std@@@std@@YAXPA_WQA_WAAV?$allocator@_W@0@@Z
_TEXT	SEGMENT
__First$ = 8						; size = 4
__Last$ = 12						; size = 4
__Al$ = 16						; size = 4
??$_Destroy_range@V?$allocator@_W@std@@@std@@YAXPA_WQA_WAAV?$allocator@_W@0@@Z PROC ; std::_Destroy_range<std::allocator<wchar_t> >, COMDAT

; 962  :     _Alloc_ptr_t<_Alloc> _First, const _Alloc_ptr_t<_Alloc> _Last, _Alloc& _Al) noexcept {

  00000	55		 push	 ebp
  00001	8b ec		 mov	 ebp, esp

; 963  :     // note that this is an optimization for debug mode codegen; in release mode the BE removes all of this
; 964  :     using _Ty = typename _Alloc::value_type;
; 965  :     if _CONSTEXPR_IF (!conjunction_v<is_trivially_destructible<_Ty>, _Uses_default_destroy<_Alloc, _Ty*>>) {
; 966  :         for (; _First != _Last; ++_First) {
; 967  :             allocator_traits<_Alloc>::destroy(_Al, _Unfancy(_First));
; 968  :         }
; 969  :     }
; 970  : }

  00003	5d		 pop	 ebp
  00004	c3		 ret	 0
??$_Destroy_range@V?$allocator@_W@std@@@std@@YAXPA_WQA_WAAV?$allocator@_W@0@@Z ENDP ; std::_Destroy_range<std::allocator<wchar_t> >
_TEXT	ENDS
; Function compile flags: /Odspy
; File C:\Program Files (x86)\Microsoft Visual Studio\2019\Community\VC\Tools\MSVC\14.28.29333\include\vector
; File C:\Program Files (x86)\Microsoft Visual Studio\2019\Community\VC\Tools\MSVC\14.28.29333\include\xmemory
; File C:\Program Files (x86)\Microsoft Visual Studio\2019\Community\VC\Tools\MSVC\14.28.29333\include\vector
; File C:\Program Files (x86)\Microsoft Visual Studio\2019\Community\VC\Tools\MSVC\14.28.29333\include\xmemory
; File C:\Program Files (x86)\Microsoft Visual Studio\2019\Community\VC\Tools\MSVC\14.28.29333\include\vector
; File C:\Program Files (x86)\Microsoft Visual Studio\2019\Community\VC\Tools\MSVC\14.28.29333\include\xmemory
; File C:\Program Files (x86)\Microsoft Visual Studio\2019\Community\VC\Tools\MSVC\14.28.29333\include\limits
; File C:\Program Files (x86)\Microsoft Visual Studio\2019\Community\VC\Tools\MSVC\14.28.29333\include\vector
; File C:\Program Files (x86)\Microsoft Visual Studio\2019\Community\VC\Tools\MSVC\14.28.29333\include\utility
; File C:\Program Files (x86)\Microsoft Visual Studio\2019\Community\VC\Tools\MSVC\14.28.29333\include\vector
; File C:\Program Files (x86)\Microsoft Visual Studio\2019\Community\VC\Tools\MSVC\14.28.29333\include\xmemory
; File C:\Program Files (x86)\Microsoft Visual Studio\2019\Community\VC\Tools\MSVC\14.28.29333\include\vector
; File C:\Program Files (x86)\Microsoft Visual Studio\2019\Community\VC\Tools\MSVC\14.28.29333\include\type_traits
; File C:\Program Files (x86)\Microsoft Visual Studio\2019\Community\VC\Tools\MSVC\14.28.29333\include\vector
; File C:\Program Files (x86)\Microsoft Visual Studio\2019\Community\VC\Tools\MSVC\14.28.29333\include\xstddef
; File C:\Program Files (x86)\Microsoft Visual Studio\2019\Community\VC\Tools\MSVC\14.28.29333\include\vcruntime_new.h
; File C:\Program Files (x86)\Microsoft Visual Studio\2019\Community\VC\Tools\MSVC\14.28.29333\include\type_traits
; File C:\Program Files (x86)\Microsoft Visual Studio\2019\Community\VC\Tools\MSVC\14.28.29333\include\xmemory
; File C:\Program Files (x86)\Microsoft Visual Studio\2019\Community\VC\Tools\MSVC\14.28.29333\include\vector
; File C:\Program Files (x86)\Microsoft Visual Studio\2019\Community\VC\Tools\MSVC\14.28.29333\include\xmemory
; File C:\Program Files (x86)\Microsoft Visual Studio\2019\Community\VC\Tools\MSVC\14.28.29333\include\vector
; File C:\Program Files (x86)\Microsoft Visual Studio\2019\Community\VC\Tools\MSVC\14.28.29333\include\xmemory
; File C:\Program Files (x86)\Microsoft Visual Studio\2019\Community\VC\Tools\MSVC\14.28.29333\include\vector
; File C:\Program Files (x86)\Microsoft Visual Studio\2019\Community\VC\Tools\MSVC\14.28.29333\include\xmemory
; File C:\Program Files (x86)\Microsoft Visual Studio\2019\Community\VC\Tools\MSVC\14.28.29333\include\vector
;	COMDAT ??$_Emplace_reallocate@AB_W@?$vector@_WV?$allocator@_W@std@@@std@@QAEPA_WQA_WAB_W@Z
_TEXT	SEGMENT
__Max_possible$2 = -68					; size = 4
$T3 = -64						; size = 4
__Al$ = -60						; size = 4
__Last$ = -56						; size = 4
$T4 = -52						; size = 4
$T5 = -48						; size = 4
__First$ = -44						; size = 4
$T6 = -40						; size = 4
$T7 = -36						; size = 4
__First$ = -32						; size = 4
__Last$ = -28						; size = 4
$T8 = -24						; size = 4
$T9 = -20						; size = 4
__$EHRec$ = -16						; size = 16
$T10 = 0						; size = 4
$T11 = 4						; size = 4
$T12 = 8						; size = 4
$T13 = 12						; size = 4
$T14 = 16						; size = 4
$T15 = 20						; size = 4
$T16 = 24						; size = 4
$T17 = 28						; size = 4
$T18 = 32						; size = 4
$T19 = 36						; size = 4
$T20 = 40						; size = 4
__Newsize$ = 44						; size = 4
__Constructed_last$ = 48				; size = 4
__Oldsize$ = 52						; size = 4
tv172 = 56						; size = 4
$T21 = 60						; size = 4
$T22 = 64						; size = 4
__My_data$ = 68						; size = 4
__Constructed_first$ = 72				; size = 4
___formal$ = 76						; size = 1
__Overflow_is_possible$23 = 83				; size = 1
__Newcapacity$ = 84					; size = 4
__Mylast$ = 88						; size = 4
__Myfirst$ = 92						; size = 4
__Whereoff$ = 96					; size = 4
$T24 = 103						; size = 1
_this$ = 104						; size = 4
__Newvec$ = 108						; size = 4
__Whereptr$ = 120					; size = 4
_<_Val_0>$ = 124					; size = 4
??$_Emplace_reallocate@AB_W@?$vector@_WV?$allocator@_W@std@@@std@@QAEPA_WQA_WAB_W@Z PROC ; std::vector<wchar_t,std::allocator<wchar_t> >::_Emplace_reallocate<wchar_t const &>, COMDAT
; _this$ = ecx

; 725  :     pointer _Emplace_reallocate(const pointer _Whereptr, _Valty&&... _Val) {

  00000	55		 push	 ebp
  00001	8d 6c 24 90	 lea	 ebp, DWORD PTR [esp-112]
  00005	83 ec 70	 sub	 esp, 112		; 00000070H
  00008	6a ff		 push	 -1
  0000a	68 00 00 00 00	 push	 __ehhandler$??$_Emplace_reallocate@AB_W@?$vector@_WV?$allocator@_W@std@@@std@@QAEPA_WQA_WAB_W@Z
  0000f	64 a1 00 00 00
	00		 mov	 eax, DWORD PTR fs:0
  00015	50		 push	 eax
  00016	51		 push	 ecx
  00017	83 ec 34	 sub	 esp, 52			; 00000034H
  0001a	53		 push	 ebx
  0001b	56		 push	 esi
  0001c	57		 push	 edi
  0001d	a1 00 00 00 00	 mov	 eax, DWORD PTR ___security_cookie
  00022	33 c5		 xor	 eax, ebp
  00024	50		 push	 eax
  00025	8d 45 f4	 lea	 eax, DWORD PTR __$EHRec$[ebp+4]
  00028	64 a3 00 00 00
	00		 mov	 DWORD PTR fs:0, eax
  0002e	89 65 f0	 mov	 DWORD PTR __$EHRec$[ebp], esp
  00031	89 4d 68	 mov	 DWORD PTR _this$[ebp], ecx

; 1733 :         return _Mypair._Get_first();

  00034	8b 45 68	 mov	 eax, DWORD PTR _this$[ebp]
; File C:\Program Files (x86)\Microsoft Visual Studio\2019\Community\VC\Tools\MSVC\14.28.29333\include\xmemory

; 1347 :         return *this;

  00037	89 45 28	 mov	 DWORD PTR $T20[ebp], eax
; File C:\Program Files (x86)\Microsoft Visual Studio\2019\Community\VC\Tools\MSVC\14.28.29333\include\vector

; 1733 :         return _Mypair._Get_first();

  0003a	8b 45 28	 mov	 eax, DWORD PTR $T20[ebp]
  0003d	89 45 c4	 mov	 DWORD PTR __Al$[ebp], eax

; 726  :         // reallocate and insert by perfectly forwarding _Val at _Whereptr
; 727  :         _Alty& _Al        = _Getal();
; 728  :         auto& _My_data    = _Mypair._Myval2;

  00040	8b 45 68	 mov	 eax, DWORD PTR _this$[ebp]
  00043	89 45 44	 mov	 DWORD PTR __My_data$[ebp], eax

; 729  :         pointer& _Myfirst = _My_data._Myfirst;

  00046	8b 45 44	 mov	 eax, DWORD PTR __My_data$[ebp]
  00049	89 45 5c	 mov	 DWORD PTR __Myfirst$[ebp], eax

; 730  :         pointer& _Mylast  = _My_data._Mylast;

  0004c	8b 45 44	 mov	 eax, DWORD PTR __My_data$[ebp]
  0004f	83 c0 04	 add	 eax, 4
  00052	89 45 58	 mov	 DWORD PTR __Mylast$[ebp], eax

; 731  : 
; 732  :         _STL_INTERNAL_CHECK(_Mylast == _My_data._Myend); // check that we have no unused capacity
; 733  : 
; 734  :         const auto _Whereoff = static_cast<size_type>(_Whereptr - _Myfirst);

  00055	8b 45 5c	 mov	 eax, DWORD PTR __Myfirst$[ebp]
  00058	8b 4d 78	 mov	 ecx, DWORD PTR __Whereptr$[ebp]
  0005b	2b 08		 sub	 ecx, DWORD PTR [eax]
  0005d	d1 f9		 sar	 ecx, 1
  0005f	89 4d 60	 mov	 DWORD PTR __Whereoff$[ebp], ecx

; 735  :         const auto _Oldsize  = static_cast<size_type>(_Mylast - _Myfirst);

  00062	8b 45 58	 mov	 eax, DWORD PTR __Mylast$[ebp]
  00065	8b 4d 5c	 mov	 ecx, DWORD PTR __Myfirst$[ebp]
  00068	8b 00		 mov	 eax, DWORD PTR [eax]
  0006a	2b 01		 sub	 eax, DWORD PTR [ecx]
  0006c	d1 f8		 sar	 eax, 1
  0006e	89 45 34	 mov	 DWORD PTR __Oldsize$[ebp], eax

; 1737 :         return _Mypair._Get_first();

  00071	8b 45 68	 mov	 eax, DWORD PTR _this$[ebp]
; File C:\Program Files (x86)\Microsoft Visual Studio\2019\Community\VC\Tools\MSVC\14.28.29333\include\xmemory

; 1351 :         return *this;

  00074	89 45 24	 mov	 DWORD PTR $T19[ebp], eax
; File C:\Program Files (x86)\Microsoft Visual Studio\2019\Community\VC\Tools\MSVC\14.28.29333\include\vector

; 1737 :         return _Mypair._Get_first();

  00077	8b 45 24	 mov	 eax, DWORD PTR $T19[ebp]
  0007a	89 45 c0	 mov	 DWORD PTR $T3[ebp], eax
; File C:\Program Files (x86)\Microsoft Visual Studio\2019\Community\VC\Tools\MSVC\14.28.29333\include\xmemory

; 710  :         return static_cast<size_t>(-1) / sizeof(value_type);

  0007d	c7 45 40 ff ff
	ff 7f		 mov	 DWORD PTR $T22[ebp], 2147483647 ; 7fffffffH
; File C:\Program Files (x86)\Microsoft Visual Studio\2019\Community\VC\Tools\MSVC\14.28.29333\include\limits

; 557  :         return INT_MAX;

  00084	c7 45 20 ff ff
	ff 7f		 mov	 DWORD PTR $T18[ebp], 2147483647 ; 7fffffffH
; File C:\Program Files (x86)\Microsoft Visual Studio\2019\Community\VC\Tools\MSVC\14.28.29333\include\vector

; 1488 :         return (_STD min)(

  0008b	8b 45 20	 mov	 eax, DWORD PTR $T18[ebp]
  0008e	89 45 3c	 mov	 DWORD PTR $T21[ebp], eax
; File C:\Program Files (x86)\Microsoft Visual Studio\2019\Community\VC\Tools\MSVC\14.28.29333\include\utility

; 68   :     return _Right < _Left ? _Right : _Left;

  00091	8b 45 40	 mov	 eax, DWORD PTR $T22[ebp]
  00094	3b 45 3c	 cmp	 eax, DWORD PTR $T21[ebp]
  00097	73 08		 jae	 SHORT $LN34@Emplace_re
  00099	8d 45 40	 lea	 eax, DWORD PTR $T22[ebp]
  0009c	89 45 38	 mov	 DWORD PTR tv172[ebp], eax
  0009f	eb 06		 jmp	 SHORT $LN35@Emplace_re
$LN34@Emplace_re:
  000a1	8d 45 3c	 lea	 eax, DWORD PTR $T21[ebp]
  000a4	89 45 38	 mov	 DWORD PTR tv172[ebp], eax
$LN35@Emplace_re:
  000a7	8b 45 38	 mov	 eax, DWORD PTR tv172[ebp]
  000aa	89 45 1c	 mov	 DWORD PTR $T17[ebp], eax
  000ad	8b 45 1c	 mov	 eax, DWORD PTR $T17[ebp]
  000b0	89 45 18	 mov	 DWORD PTR $T16[ebp], eax
; File C:\Program Files (x86)\Microsoft Visual Studio\2019\Community\VC\Tools\MSVC\14.28.29333\include\vector

; 1488 :         return (_STD min)(

  000b3	8b 45 18	 mov	 eax, DWORD PTR $T16[ebp]
  000b6	8b 00		 mov	 eax, DWORD PTR [eax]
  000b8	89 45 14	 mov	 DWORD PTR $T15[ebp], eax

; 736  : 
; 737  :         if (_Oldsize == max_size()) {

  000bb	8b 45 34	 mov	 eax, DWORD PTR __Oldsize$[ebp]
  000be	3b 45 14	 cmp	 eax, DWORD PTR $T15[ebp]
  000c1	75 05		 jne	 SHORT $LN2@Emplace_re

; 738  :             _Xlength();

  000c3	e8 00 00 00 00	 call	 ?_Xlength@?$vector@_WV?$allocator@_W@std@@@std@@CAXXZ ; std::vector<wchar_t,std::allocator<wchar_t> >::_Xlength
$LN2@Emplace_re:

; 739  :         }
; 740  : 
; 741  :         const size_type _Newsize     = _Oldsize + 1;

  000c8	8b 45 34	 mov	 eax, DWORD PTR __Oldsize$[ebp]
  000cb	40		 inc	 eax
  000cc	89 45 2c	 mov	 DWORD PTR __Newsize$[ebp], eax

; 742  :         const size_type _Newcapacity = _Calculate_growth(_Newsize);

  000cf	ff 75 2c	 push	 DWORD PTR __Newsize$[ebp]
  000d2	8b 4d 68	 mov	 ecx, DWORD PTR _this$[ebp]
  000d5	e8 00 00 00 00	 call	 ?_Calculate_growth@?$vector@_WV?$allocator@_W@std@@@std@@ABEII@Z ; std::vector<wchar_t,std::allocator<wchar_t> >::_Calculate_growth
  000da	89 45 54	 mov	 DWORD PTR __Newcapacity$[ebp], eax
; File C:\Program Files (x86)\Microsoft Visual Studio\2019\Community\VC\Tools\MSVC\14.28.29333\include\xmemory

; 56   :     constexpr bool _Overflow_is_possible = _Ty_size > 1;

  000dd	c6 45 53 01	 mov	 BYTE PTR __Overflow_is_possible$23[ebp], 1

; 57   : 
; 58   :     if _CONSTEXPR_IF (_Overflow_is_possible) {
; 59   :         constexpr size_t _Max_possible = static_cast<size_t>(-1) / _Ty_size;

  000e1	c7 45 bc ff ff
	ff 7f		 mov	 DWORD PTR __Max_possible$2[ebp], 2147483647 ; 7fffffffH

; 60   :         if (_Count > _Max_possible) {

  000e8	81 7d 54 ff ff
	ff 7f		 cmp	 DWORD PTR __Newcapacity$[ebp], 2147483647 ; 7fffffffH
  000ef	76 05		 jbe	 SHORT $LN67@Emplace_re

; 61   :             _Throw_bad_array_new_length(); // multiply overflow

  000f1	e8 00 00 00 00	 call	 ?_Throw_bad_array_new_length@std@@YAXXZ ; std::_Throw_bad_array_new_length
$LN67@Emplace_re:

; 62   :         }
; 63   :     }
; 64   : 
; 65   :     return _Count * _Ty_size;

  000f6	8b 45 54	 mov	 eax, DWORD PTR __Newcapacity$[ebp]
  000f9	d1 e0		 shl	 eax, 1
  000fb	89 45 10	 mov	 DWORD PTR $T14[ebp], eax

; 814  :         return static_cast<_Ty*>(_Allocate<_New_alignof<_Ty>>(_Get_size_of_n<sizeof(_Ty)>(_Count)));

  000fe	ff 75 10	 push	 DWORD PTR $T14[ebp]
  00101	e8 00 00 00 00	 call	 ??$_Allocate@$07U_Default_allocate_traits@std@@$0A@@std@@YAPAXI@Z ; std::_Allocate<8,std::_Default_allocate_traits,0>
  00106	59		 pop	 ecx
  00107	89 45 6c	 mov	 DWORD PTR __Newvec$[ebp], eax
; File C:\Program Files (x86)\Microsoft Visual Studio\2019\Community\VC\Tools\MSVC\14.28.29333\include\vector

; 745  :         const pointer _Constructed_last = _Newvec + _Whereoff + 1;

  0010a	8b 45 60	 mov	 eax, DWORD PTR __Whereoff$[ebp]
  0010d	8b 4d 6c	 mov	 ecx, DWORD PTR __Newvec$[ebp]
  00110	8d 44 41 02	 lea	 eax, DWORD PTR [ecx+eax*2+2]
  00114	89 45 30	 mov	 DWORD PTR __Constructed_last$[ebp], eax

; 746  :         pointer _Constructed_first      = _Constructed_last;

  00117	8b 45 30	 mov	 eax, DWORD PTR __Constructed_last$[ebp]
  0011a	89 45 48	 mov	 DWORD PTR __Constructed_first$[ebp], eax

; 747  : 
; 748  :         _TRY_BEGIN

  0011d	83 65 fc 00	 and	 DWORD PTR __$EHRec$[ebp+12], 0
; File C:\Program Files (x86)\Microsoft Visual Studio\2019\Community\VC\Tools\MSVC\14.28.29333\include\type_traits

; 1443 :     return static_cast<_Ty&&>(_Arg);

  00121	8b 45 7c	 mov	 eax, DWORD PTR _<_Val_0>$[ebp]
  00124	89 45 08	 mov	 DWORD PTR $T12[ebp], eax
; File C:\Program Files (x86)\Microsoft Visual Studio\2019\Community\VC\Tools\MSVC\14.28.29333\include\vector

; 749  :         _Alty_traits::construct(_Al, _Unfancy(_Newvec + _Whereoff), _STD forward<_Valty>(_Val)...);

  00127	8b 45 60	 mov	 eax, DWORD PTR __Whereoff$[ebp]
  0012a	8b 4d 6c	 mov	 ecx, DWORD PTR __Newvec$[ebp]
  0012d	8d 04 41	 lea	 eax, DWORD PTR [ecx+eax*2]
; File C:\Program Files (x86)\Microsoft Visual Studio\2019\Community\VC\Tools\MSVC\14.28.29333\include\xstddef

; 289  :     return _Ptr;

  00130	89 45 0c	 mov	 DWORD PTR $T13[ebp], eax
; File C:\Program Files (x86)\Microsoft Visual Studio\2019\Community\VC\Tools\MSVC\14.28.29333\include\vcruntime_new.h

; 169  :         return _Where;

  00133	8b 45 0c	 mov	 eax, DWORD PTR $T13[ebp]
  00136	89 45 04	 mov	 DWORD PTR $T11[ebp], eax
; File C:\Program Files (x86)\Microsoft Visual Studio\2019\Community\VC\Tools\MSVC\14.28.29333\include\type_traits

; 1443 :     return static_cast<_Ty&&>(_Arg);

  00139	8b 45 08	 mov	 eax, DWORD PTR $T12[ebp]
  0013c	89 45 00	 mov	 DWORD PTR $T10[ebp], eax
; File C:\Program Files (x86)\Microsoft Visual Studio\2019\Community\VC\Tools\MSVC\14.28.29333\include\xmemory

; 701  :         ::new (const_cast<void*>(static_cast<const volatile void*>(_Ptr))) _Objty(_STD forward<_Types>(_Args)...);

  0013f	8b 45 04	 mov	 eax, DWORD PTR $T11[ebp]
  00142	8b 4d 00	 mov	 ecx, DWORD PTR $T10[ebp]
  00145	66 8b 09	 mov	 cx, WORD PTR [ecx]
  00148	66 89 08	 mov	 WORD PTR [eax], cx
; File C:\Program Files (x86)\Microsoft Visual Studio\2019\Community\VC\Tools\MSVC\14.28.29333\include\vector

; 750  :         _Constructed_first = _Newvec + _Whereoff;

  0014b	8b 45 60	 mov	 eax, DWORD PTR __Whereoff$[ebp]
  0014e	8b 4d 6c	 mov	 ecx, DWORD PTR __Newvec$[ebp]
  00151	8d 04 41	 lea	 eax, DWORD PTR [ecx+eax*2]
  00154	89 45 48	 mov	 DWORD PTR __Constructed_first$[ebp], eax

; 751  : 
; 752  :         if (_Whereptr == _Mylast) { // at back, provide strong guarantee

  00157	8b 45 58	 mov	 eax, DWORD PTR __Mylast$[ebp]
  0015a	8b 4d 78	 mov	 ecx, DWORD PTR __Whereptr$[ebp]
  0015d	3b 08		 cmp	 ecx, DWORD PTR [eax]
  0015f	75 3d		 jne	 SHORT $LN4@Emplace_re

; 753  :             _Umove_if_noexcept(_Myfirst, _Mylast, _Newvec);

  00161	8b 45 58	 mov	 eax, DWORD PTR __Mylast$[ebp]
  00164	8b 00		 mov	 eax, DWORD PTR [eax]
  00166	89 45 e4	 mov	 DWORD PTR __Last$[ebp], eax
  00169	8b 45 5c	 mov	 eax, DWORD PTR __Myfirst$[ebp]
  0016c	8b 00		 mov	 eax, DWORD PTR [eax]
  0016e	89 45 e0	 mov	 DWORD PTR __First$[ebp], eax

; 1607 :         _Umove_if_noexcept1(_First, _Last, _Dest,

  00171	33 c0		 xor	 eax, eax
  00173	88 45 67	 mov	 BYTE PTR $T24[ebp], al
  00176	8a 45 67	 mov	 al, BYTE PTR $T24[ebp]
  00179	88 45 4c	 mov	 BYTE PTR ___formal$[ebp], al

; 1733 :         return _Mypair._Get_first();

  0017c	8b 45 68	 mov	 eax, DWORD PTR _this$[ebp]
; File C:\Program Files (x86)\Microsoft Visual Studio\2019\Community\VC\Tools\MSVC\14.28.29333\include\xmemory

; 1347 :         return *this;

  0017f	89 45 ec	 mov	 DWORD PTR $T9[ebp], eax
; File C:\Program Files (x86)\Microsoft Visual Studio\2019\Community\VC\Tools\MSVC\14.28.29333\include\vector

; 1733 :         return _Mypair._Get_first();

  00182	8b 45 ec	 mov	 eax, DWORD PTR $T9[ebp]
  00185	89 45 e8	 mov	 DWORD PTR $T8[ebp], eax

; 1597 :         _Uninitialized_move(_First, _Last, _Dest, _Getal());

  00188	ff 75 e8	 push	 DWORD PTR $T8[ebp]
  0018b	ff 75 6c	 push	 DWORD PTR __Newvec$[ebp]
  0018e	ff 75 e4	 push	 DWORD PTR __Last$[ebp]
  00191	ff 75 e0	 push	 DWORD PTR __First$[ebp]
  00194	e8 00 00 00 00	 call	 ??$_Uninitialized_move@PA_WV?$allocator@_W@std@@@std@@YAPA_WQA_W0PA_WAAV?$allocator@_W@0@@Z ; std::_Uninitialized_move<wchar_t *,std::allocator<wchar_t> >
  00199	83 c4 10	 add	 esp, 16			; 00000010H

; 754  :         } else { // provide basic guarantee

  0019c	eb 5e		 jmp	 SHORT $LN5@Emplace_re
$LN4@Emplace_re:

; 755  :             _Umove(_Myfirst, _Whereptr, _Newvec);

  0019e	8b 45 5c	 mov	 eax, DWORD PTR __Myfirst$[ebp]
  001a1	8b 00		 mov	 eax, DWORD PTR [eax]
  001a3	89 45 d4	 mov	 DWORD PTR __First$[ebp], eax

; 1733 :         return _Mypair._Get_first();

  001a6	8b 45 68	 mov	 eax, DWORD PTR _this$[ebp]
; File C:\Program Files (x86)\Microsoft Visual Studio\2019\Community\VC\Tools\MSVC\14.28.29333\include\xmemory

; 1347 :         return *this;

  001a9	89 45 dc	 mov	 DWORD PTR $T7[ebp], eax
; File C:\Program Files (x86)\Microsoft Visual Studio\2019\Community\VC\Tools\MSVC\14.28.29333\include\vector

; 1733 :         return _Mypair._Get_first();

  001ac	8b 45 dc	 mov	 eax, DWORD PTR $T7[ebp]
  001af	89 45 d8	 mov	 DWORD PTR $T6[ebp], eax

; 1592 :         return _Uninitialized_move(_First, _Last, _Dest, _Getal());

  001b2	ff 75 d8	 push	 DWORD PTR $T6[ebp]
  001b5	ff 75 6c	 push	 DWORD PTR __Newvec$[ebp]
  001b8	ff 75 78	 push	 DWORD PTR __Whereptr$[ebp]
  001bb	ff 75 d4	 push	 DWORD PTR __First$[ebp]
  001be	e8 00 00 00 00	 call	 ??$_Uninitialized_move@PA_WV?$allocator@_W@std@@@std@@YAPA_WQA_W0PA_WAAV?$allocator@_W@0@@Z ; std::_Uninitialized_move<wchar_t *,std::allocator<wchar_t> >
  001c3	83 c4 10	 add	 esp, 16			; 00000010H

; 756  :             _Constructed_first = _Newvec;

  001c6	8b 45 6c	 mov	 eax, DWORD PTR __Newvec$[ebp]
  001c9	89 45 48	 mov	 DWORD PTR __Constructed_first$[ebp], eax

; 757  :             _Umove(_Whereptr, _Mylast, _Newvec + _Whereoff + 1);

  001cc	8b 45 58	 mov	 eax, DWORD PTR __Mylast$[ebp]
  001cf	8b 00		 mov	 eax, DWORD PTR [eax]
  001d1	89 45 c8	 mov	 DWORD PTR __Last$[ebp], eax

; 1733 :         return _Mypair._Get_first();

  001d4	8b 45 68	 mov	 eax, DWORD PTR _this$[ebp]
; File C:\Program Files (x86)\Microsoft Visual Studio\2019\Community\VC\Tools\MSVC\14.28.29333\include\xmemory

; 1347 :         return *this;

  001d7	89 45 d0	 mov	 DWORD PTR $T5[ebp], eax
; File C:\Program Files (x86)\Microsoft Visual Studio\2019\Community\VC\Tools\MSVC\14.28.29333\include\vector

; 1733 :         return _Mypair._Get_first();

  001da	8b 45 d0	 mov	 eax, DWORD PTR $T5[ebp]
  001dd	89 45 cc	 mov	 DWORD PTR $T4[ebp], eax

; 1592 :         return _Uninitialized_move(_First, _Last, _Dest, _Getal());

  001e0	ff 75 cc	 push	 DWORD PTR $T4[ebp]

; 757  :             _Umove(_Whereptr, _Mylast, _Newvec + _Whereoff + 1);

  001e3	8b 45 60	 mov	 eax, DWORD PTR __Whereoff$[ebp]
  001e6	8b 4d 6c	 mov	 ecx, DWORD PTR __Newvec$[ebp]
  001e9	8d 44 41 02	 lea	 eax, DWORD PTR [ecx+eax*2+2]

; 1592 :         return _Uninitialized_move(_First, _Last, _Dest, _Getal());

  001ed	50		 push	 eax
  001ee	ff 75 c8	 push	 DWORD PTR __Last$[ebp]
  001f1	ff 75 78	 push	 DWORD PTR __Whereptr$[ebp]
  001f4	e8 00 00 00 00	 call	 ??$_Uninitialized_move@PA_WV?$allocator@_W@std@@@std@@YAPA_WQA_W0PA_WAAV?$allocator@_W@0@@Z ; std::_Uninitialized_move<wchar_t *,std::allocator<wchar_t> >
  001f9	83 c4 10	 add	 esp, 16			; 00000010H
$LN5@Emplace_re:

; 757  :             _Umove(_Whereptr, _Mylast, _Newvec + _Whereoff + 1);

  001fc	eb 2b		 jmp	 SHORT $LN7@Emplace_re
__catch$??$_Emplace_reallocate@AB_W@?$vector@_WV?$allocator@_W@std@@@std@@QAEPA_WQA_WAB_W@Z$0:

; 758  :         }
; 759  :         _CATCH_ALL
; 760  :         _Destroy(_Constructed_first, _Constructed_last);

  001fe	ff 75 30	 push	 DWORD PTR __Constructed_last$[ebp]
  00201	ff 75 48	 push	 DWORD PTR __Constructed_first$[ebp]
  00204	8b 4d 68	 mov	 ecx, DWORD PTR _this$[ebp]
  00207	e8 00 00 00 00	 call	 ?_Destroy@?$vector@_WV?$allocator@_W@std@@@std@@AAEXPA_W0@Z ; std::vector<wchar_t,std::allocator<wchar_t> >::_Destroy

; 761  :         _Al.deallocate(_Newvec, _Newcapacity);

  0020c	ff 75 54	 push	 DWORD PTR __Newcapacity$[ebp]
  0020f	ff 75 6c	 push	 DWORD PTR __Newvec$[ebp]
  00212	8b 4d c4	 mov	 ecx, DWORD PTR __Al$[ebp]
  00215	e8 00 00 00 00	 call	 ?deallocate@?$allocator@_W@std@@QAEXQA_WI@Z ; std::allocator<wchar_t>::deallocate

; 762  :         _RERAISE;

  0021a	6a 00		 push	 0
  0021c	6a 00		 push	 0
  0021e	e8 00 00 00 00	 call	 __CxxThrowException@8

; 763  :         _CATCH_END

  00223	b8 00 00 00 00	 mov	 eax, $LN10@Emplace_re
  00228	c3		 ret	 0
$LN7@Emplace_re:
  00229	83 4d fc ff	 or	 DWORD PTR __$EHRec$[ebp+12], -1
  0022d	eb 04		 jmp	 SHORT __tryend$??$_Emplace_reallocate@AB_W@?$vector@_WV?$allocator@_W@std@@@std@@QAEPA_WQA_WAB_W@Z$1
$LN10@Emplace_re:
; File C:\Program Files (x86)\Microsoft Visual Studio\2019\Community\VC\Tools\MSVC\14.28.29333\include\xmemory
  0022f	83 4d fc ff	 or	 DWORD PTR __$EHRec$[ebp+12], -1
__tryend$??$_Emplace_reallocate@AB_W@?$vector@_WV?$allocator@_W@std@@@std@@QAEPA_WQA_WAB_W@Z$1:
; File C:\Program Files (x86)\Microsoft Visual Studio\2019\Community\VC\Tools\MSVC\14.28.29333\include\vector

; 764  : 
; 765  :         _Change_array(_Newvec, _Newsize, _Newcapacity);

  00233	ff 75 54	 push	 DWORD PTR __Newcapacity$[ebp]
  00236	ff 75 2c	 push	 DWORD PTR __Newsize$[ebp]
  00239	ff 75 6c	 push	 DWORD PTR __Newvec$[ebp]
  0023c	8b 4d 68	 mov	 ecx, DWORD PTR _this$[ebp]
  0023f	e8 00 00 00 00	 call	 ?_Change_array@?$vector@_WV?$allocator@_W@std@@@std@@AAEXQA_WII@Z ; std::vector<wchar_t,std::allocator<wchar_t> >::_Change_array

; 766  :         return _Newvec + _Whereoff;

  00244	8b 45 60	 mov	 eax, DWORD PTR __Whereoff$[ebp]
  00247	8b 4d 6c	 mov	 ecx, DWORD PTR __Newvec$[ebp]
  0024a	8d 04 41	 lea	 eax, DWORD PTR [ecx+eax*2]
$LN70@Emplace_re:

; 767  :     }

  0024d	8b 4d f4	 mov	 ecx, DWORD PTR __$EHRec$[ebp+4]
  00250	64 89 0d 00 00
	00 00		 mov	 DWORD PTR fs:0, ecx
  00257	59		 pop	 ecx
  00258	5f		 pop	 edi
  00259	5e		 pop	 esi
  0025a	5b		 pop	 ebx
  0025b	83 c5 70	 add	 ebp, 112		; 00000070H
  0025e	c9		 leave
  0025f	c2 08 00	 ret	 8
  00262	cc		 int	 3
  00263	cc		 int	 3
  00264	cc		 int	 3
  00265	cc		 int	 3
  00266	cc		 int	 3
_TEXT	ENDS
;	COMDAT text$x
text$x	SEGMENT
__ehhandler$??$_Emplace_reallocate@AB_W@?$vector@_WV?$allocator@_W@std@@@std@@QAEPA_WQA_WAB_W@Z:
  00000	90		 npad	 1
  00001	90		 npad	 1
  00002	8b 54 24 08	 mov	 edx, DWORD PTR [esp+8]
  00006	8d 42 0c	 lea	 eax, DWORD PTR [edx+12]
  00009	8b 4a b8	 mov	 ecx, DWORD PTR [edx-72]
  0000c	33 c8		 xor	 ecx, eax
  0000e	e8 00 00 00 00	 call	 @__security_check_cookie@4
  00013	b8 00 00 00 00	 mov	 eax, OFFSET __ehfuncinfo$??$_Emplace_reallocate@AB_W@?$vector@_WV?$allocator@_W@std@@@std@@QAEPA_WQA_WAB_W@Z
  00018	e9 00 00 00 00	 jmp	 ___CxxFrameHandler3
text$x	ENDS
??$_Emplace_reallocate@AB_W@?$vector@_WV?$allocator@_W@std@@@std@@QAEPA_WQA_WAB_W@Z ENDP ; std::vector<wchar_t,std::allocator<wchar_t> >::_Emplace_reallocate<wchar_t const &>
; Function compile flags: /Odspy
; File C:\Program Files (x86)\Microsoft Visual Studio\2019\Community\VC\Tools\MSVC\14.28.29333\include\vector
; File C:\Program Files (x86)\Microsoft Visual Studio\2019\Community\VC\Tools\MSVC\14.28.29333\include\type_traits
; File C:\Program Files (x86)\Microsoft Visual Studio\2019\Community\VC\Tools\MSVC\14.28.29333\include\vector
; File C:\Program Files (x86)\Microsoft Visual Studio\2019\Community\VC\Tools\MSVC\14.28.29333\include\xstddef
; File C:\Program Files (x86)\Microsoft Visual Studio\2019\Community\VC\Tools\MSVC\14.28.29333\include\vector
; File C:\Program Files (x86)\Microsoft Visual Studio\2019\Community\VC\Tools\MSVC\14.28.29333\include\xmemory
; File C:\Program Files (x86)\Microsoft Visual Studio\2019\Community\VC\Tools\MSVC\14.28.29333\include\vector
; File C:\Program Files (x86)\Microsoft Visual Studio\2019\Community\VC\Tools\MSVC\14.28.29333\include\vcruntime_new.h
; File C:\Program Files (x86)\Microsoft Visual Studio\2019\Community\VC\Tools\MSVC\14.28.29333\include\type_traits
; File C:\Program Files (x86)\Microsoft Visual Studio\2019\Community\VC\Tools\MSVC\14.28.29333\include\xmemory
; File C:\Program Files (x86)\Microsoft Visual Studio\2019\Community\VC\Tools\MSVC\14.28.29333\include\vector
;	COMDAT ??$_Emplace_back_with_unused_capacity@AB_W@?$vector@_WV?$allocator@_W@std@@@std@@AAEXAB_W@Z
_TEXT	SEGMENT
__Result$ = -44						; size = 4
$T1 = -40						; size = 4
$T2 = -36						; size = 4
$T3 = -32						; size = 4
$T4 = -28						; size = 4
$T5 = -24						; size = 4
$T6 = -20						; size = 4
__Ptr$ = -16						; size = 4
__My_data$ = -12					; size = 4
_this$ = -8						; size = 4
__Mylast$ = -4						; size = 4
_<_Val_0>$ = 8						; size = 4
??$_Emplace_back_with_unused_capacity@AB_W@?$vector@_WV?$allocator@_W@std@@@std@@AAEXAB_W@Z PROC ; std::vector<wchar_t,std::allocator<wchar_t> >::_Emplace_back_with_unused_capacity<wchar_t const &>, COMDAT
; _this$ = ecx

; 682  :     decltype(auto) _Emplace_back_with_unused_capacity(_Valty&&... _Val) {

  00000	55		 push	 ebp
  00001	8b ec		 mov	 ebp, esp
  00003	83 ec 2c	 sub	 esp, 44			; 0000002cH
  00006	89 4d f8	 mov	 DWORD PTR _this$[ebp], ecx

; 683  :         // insert by perfectly forwarding into element at end, provide strong guarantee
; 684  :         auto& _My_data   = _Mypair._Myval2;

  00009	8b 45 f8	 mov	 eax, DWORD PTR _this$[ebp]
  0000c	89 45 f4	 mov	 DWORD PTR __My_data$[ebp], eax

; 685  :         pointer& _Mylast = _My_data._Mylast;

  0000f	8b 45 f4	 mov	 eax, DWORD PTR __My_data$[ebp]
  00012	83 c0 04	 add	 eax, 4
  00015	89 45 fc	 mov	 DWORD PTR __Mylast$[ebp], eax
; File C:\Program Files (x86)\Microsoft Visual Studio\2019\Community\VC\Tools\MSVC\14.28.29333\include\type_traits

; 1443 :     return static_cast<_Ty&&>(_Arg);

  00018	8b 45 08	 mov	 eax, DWORD PTR _<_Val_0>$[ebp]
  0001b	89 45 e4	 mov	 DWORD PTR $T4[ebp], eax
; File C:\Program Files (x86)\Microsoft Visual Studio\2019\Community\VC\Tools\MSVC\14.28.29333\include\vector

; 687  :         _Alty_traits::construct(_Getal(), _Unfancy(_Mylast), _STD forward<_Valty>(_Val)...);

  0001e	8b 45 fc	 mov	 eax, DWORD PTR __Mylast$[ebp]
  00021	8b 00		 mov	 eax, DWORD PTR [eax]
  00023	89 45 f0	 mov	 DWORD PTR __Ptr$[ebp], eax
; File C:\Program Files (x86)\Microsoft Visual Studio\2019\Community\VC\Tools\MSVC\14.28.29333\include\xstddef

; 289  :     return _Ptr;

  00026	8b 45 f0	 mov	 eax, DWORD PTR __Ptr$[ebp]
  00029	89 45 e8	 mov	 DWORD PTR $T5[ebp], eax
; File C:\Program Files (x86)\Microsoft Visual Studio\2019\Community\VC\Tools\MSVC\14.28.29333\include\vector

; 1733 :         return _Mypair._Get_first();

  0002c	8b 45 f8	 mov	 eax, DWORD PTR _this$[ebp]
; File C:\Program Files (x86)\Microsoft Visual Studio\2019\Community\VC\Tools\MSVC\14.28.29333\include\xmemory

; 1347 :         return *this;

  0002f	89 45 ec	 mov	 DWORD PTR $T6[ebp], eax
; File C:\Program Files (x86)\Microsoft Visual Studio\2019\Community\VC\Tools\MSVC\14.28.29333\include\vector

; 1733 :         return _Mypair._Get_first();

  00032	8b 45 ec	 mov	 eax, DWORD PTR $T6[ebp]
  00035	89 45 d8	 mov	 DWORD PTR $T1[ebp], eax
; File C:\Program Files (x86)\Microsoft Visual Studio\2019\Community\VC\Tools\MSVC\14.28.29333\include\vcruntime_new.h

; 169  :         return _Where;

  00038	8b 45 e8	 mov	 eax, DWORD PTR $T5[ebp]
  0003b	89 45 e0	 mov	 DWORD PTR $T3[ebp], eax
; File C:\Program Files (x86)\Microsoft Visual Studio\2019\Community\VC\Tools\MSVC\14.28.29333\include\type_traits

; 1443 :     return static_cast<_Ty&&>(_Arg);

  0003e	8b 45 e4	 mov	 eax, DWORD PTR $T4[ebp]
  00041	89 45 dc	 mov	 DWORD PTR $T2[ebp], eax
; File C:\Program Files (x86)\Microsoft Visual Studio\2019\Community\VC\Tools\MSVC\14.28.29333\include\xmemory

; 701  :         ::new (const_cast<void*>(static_cast<const volatile void*>(_Ptr))) _Objty(_STD forward<_Types>(_Args)...);

  00044	8b 45 e0	 mov	 eax, DWORD PTR $T3[ebp]
  00047	8b 4d dc	 mov	 ecx, DWORD PTR $T2[ebp]
  0004a	66 8b 09	 mov	 cx, WORD PTR [ecx]
  0004d	66 89 08	 mov	 WORD PTR [eax], cx
; File C:\Program Files (x86)\Microsoft Visual Studio\2019\Community\VC\Tools\MSVC\14.28.29333\include\vector

; 689  :         _Ty& _Result = *_Mylast;

  00050	8b 45 fc	 mov	 eax, DWORD PTR __Mylast$[ebp]
  00053	8b 00		 mov	 eax, DWORD PTR [eax]
  00055	89 45 d4	 mov	 DWORD PTR __Result$[ebp], eax

; 690  :         ++_Mylast;

  00058	8b 45 fc	 mov	 eax, DWORD PTR __Mylast$[ebp]
  0005b	8b 00		 mov	 eax, DWORD PTR [eax]
  0005d	40		 inc	 eax
  0005e	40		 inc	 eax
  0005f	8b 4d fc	 mov	 ecx, DWORD PTR __Mylast$[ebp]
  00062	89 01		 mov	 DWORD PTR [ecx], eax

; 691  : #if _HAS_CXX17
; 692  :         return _Result;
; 693  : #else // ^^^ _HAS_CXX17 ^^^ // vvv !_HAS_CXX17 vvv
; 694  :         (void) _Result;
; 695  : #endif // _HAS_CXX17
; 696  :     }

  00064	c9		 leave
  00065	c2 04 00	 ret	 4
??$_Emplace_back_with_unused_capacity@AB_W@?$vector@_WV?$allocator@_W@std@@@std@@AAEXAB_W@Z ENDP ; std::vector<wchar_t,std::allocator<wchar_t> >::_Emplace_back_with_unused_capacity<wchar_t const &>
_TEXT	ENDS
; Function compile flags: /Odspy
; File C:\Program Files (x86)\Microsoft Visual Studio\2019\Community\VC\Tools\MSVC\14.28.29333\include\vector
; File C:\Program Files (x86)\Microsoft Visual Studio\2019\Community\VC\Tools\MSVC\14.28.29333\include\type_traits
; File C:\Program Files (x86)\Microsoft Visual Studio\2019\Community\VC\Tools\MSVC\14.28.29333\include\vector
; File C:\Program Files (x86)\Microsoft Visual Studio\2019\Community\VC\Tools\MSVC\14.28.29333\include\type_traits
; File C:\Program Files (x86)\Microsoft Visual Studio\2019\Community\VC\Tools\MSVC\14.28.29333\include\vector
;	COMDAT ??$emplace_back@AB_W@?$vector@_WV?$allocator@_W@std@@@std@@QAEXAB_W@Z
_TEXT	SEGMENT
__Result$ = -24						; size = 4
$T1 = -20						; size = 4
$T2 = -16						; size = 4
__Mylast$ = -12						; size = 4
__My_data$ = -8						; size = 4
_this$ = -4						; size = 4
_<_Val_0>$ = 8						; size = 4
??$emplace_back@AB_W@?$vector@_WV?$allocator@_W@std@@@std@@QAEXAB_W@Z PROC ; std::vector<wchar_t,std::allocator<wchar_t> >::emplace_back<wchar_t const &>, COMDAT
; _this$ = ecx

; 700  :     decltype(auto) emplace_back(_Valty&&... _Val) {

  00000	55		 push	 ebp
  00001	8b ec		 mov	 ebp, esp
  00003	83 ec 18	 sub	 esp, 24			; 00000018H
  00006	89 4d fc	 mov	 DWORD PTR _this$[ebp], ecx

; 701  :         // insert by perfectly forwarding into element at end, provide strong guarantee
; 702  :         auto& _My_data   = _Mypair._Myval2;

  00009	8b 45 fc	 mov	 eax, DWORD PTR _this$[ebp]
  0000c	89 45 f8	 mov	 DWORD PTR __My_data$[ebp], eax

; 703  :         pointer& _Mylast = _My_data._Mylast;

  0000f	8b 45 f8	 mov	 eax, DWORD PTR __My_data$[ebp]
  00012	83 c0 04	 add	 eax, 4
  00015	89 45 f4	 mov	 DWORD PTR __Mylast$[ebp], eax

; 704  :         if (_Mylast != _My_data._Myend) {

  00018	8b 45 f4	 mov	 eax, DWORD PTR __Mylast$[ebp]
  0001b	8b 4d f8	 mov	 ecx, DWORD PTR __My_data$[ebp]
  0001e	8b 00		 mov	 eax, DWORD PTR [eax]
  00020	3b 41 08	 cmp	 eax, DWORD PTR [ecx+8]
  00023	74 13		 je	 SHORT $LN2@emplace_ba
; File C:\Program Files (x86)\Microsoft Visual Studio\2019\Community\VC\Tools\MSVC\14.28.29333\include\type_traits

; 1443 :     return static_cast<_Ty&&>(_Arg);

  00025	8b 45 08	 mov	 eax, DWORD PTR _<_Val_0>$[ebp]
  00028	89 45 f0	 mov	 DWORD PTR $T2[ebp], eax
; File C:\Program Files (x86)\Microsoft Visual Studio\2019\Community\VC\Tools\MSVC\14.28.29333\include\vector

; 705  :             return _Emplace_back_with_unused_capacity(_STD forward<_Valty>(_Val)...);

  0002b	ff 75 f0	 push	 DWORD PTR $T2[ebp]
  0002e	8b 4d fc	 mov	 ecx, DWORD PTR _this$[ebp]
  00031	e8 00 00 00 00	 call	 ??$_Emplace_back_with_unused_capacity@AB_W@?$vector@_WV?$allocator@_W@std@@@std@@AAEXAB_W@Z ; std::vector<wchar_t,std::allocator<wchar_t> >::_Emplace_back_with_unused_capacity<wchar_t const &>
  00036	eb 19		 jmp	 SHORT $LN1@emplace_ba
$LN2@emplace_ba:
; File C:\Program Files (x86)\Microsoft Visual Studio\2019\Community\VC\Tools\MSVC\14.28.29333\include\type_traits

; 1443 :     return static_cast<_Ty&&>(_Arg);

  00038	8b 45 08	 mov	 eax, DWORD PTR _<_Val_0>$[ebp]
  0003b	89 45 ec	 mov	 DWORD PTR $T1[ebp], eax
; File C:\Program Files (x86)\Microsoft Visual Studio\2019\Community\VC\Tools\MSVC\14.28.29333\include\vector

; 708  :         _Ty& _Result = *_Emplace_reallocate(_Mylast, _STD forward<_Valty>(_Val)...);

  0003e	ff 75 ec	 push	 DWORD PTR $T1[ebp]
  00041	8b 45 f4	 mov	 eax, DWORD PTR __Mylast$[ebp]
  00044	ff 30		 push	 DWORD PTR [eax]
  00046	8b 4d fc	 mov	 ecx, DWORD PTR _this$[ebp]
  00049	e8 00 00 00 00	 call	 ??$_Emplace_reallocate@AB_W@?$vector@_WV?$allocator@_W@std@@@std@@QAEPA_WQA_WAB_W@Z ; std::vector<wchar_t,std::allocator<wchar_t> >::_Emplace_reallocate<wchar_t const &>
  0004e	89 45 e8	 mov	 DWORD PTR __Result$[ebp], eax
$LN1@emplace_ba:

; 709  : #if _HAS_CXX17
; 710  :         return _Result;
; 711  : #else // ^^^ _HAS_CXX17 ^^^ // vvv !_HAS_CXX17 vvv
; 712  :         (void) _Result;
; 713  : #endif // _HAS_CXX17
; 714  :     }

  00051	c9		 leave
  00052	c2 04 00	 ret	 4
??$emplace_back@AB_W@?$vector@_WV?$allocator@_W@std@@@std@@QAEXAB_W@Z ENDP ; std::vector<wchar_t,std::allocator<wchar_t> >::emplace_back<wchar_t const &>
_TEXT	ENDS
; Function compile flags: /Odspy
; File C:\Program Files (x86)\Microsoft Visual Studio\2019\Community\VC\Tools\MSVC\14.28.29333\include\vector
; File C:\Program Files (x86)\Microsoft Visual Studio\2019\Community\VC\Tools\MSVC\14.28.29333\include\xmemory
; File C:\Program Files (x86)\Microsoft Visual Studio\2019\Community\VC\Tools\MSVC\14.28.29333\include\vector
; File C:\Program Files (x86)\Microsoft Visual Studio\2019\Community\VC\Tools\MSVC\14.28.29333\include\xmemory
; File C:\Program Files (x86)\Microsoft Visual Studio\2019\Community\VC\Tools\MSVC\14.28.29333\include\vector
;	COMDAT ??$_Resize@U_Value_init_tag@std@@@?$vector@_WV?$allocator@_W@std@@@std@@AAEXIABU_Value_init_tag@1@@Z
_TEXT	SEGMENT
__Oldlast$1 = -56					; size = 4
$T2 = -52						; size = 4
$T3 = -48						; size = 4
__Oldcapacity$4 = -44					; size = 4
__Last$ = -40						; size = 4
$T5 = -36						; size = 4
$T6 = -32						; size = 4
__Newlast$7 = -28					; size = 4
__Oldsize$ = -24					; size = 4
__Myfirst$ = -20					; size = 4
__My_data$ = -16					; size = 4
_this$ = -12						; size = 4
__Mylast$ = -8						; size = 4
___formal$ = -4						; size = 1
__Newsize$ = 8						; size = 4
__Val$ = 12						; size = 4
??$_Resize@U_Value_init_tag@std@@@?$vector@_WV?$allocator@_W@std@@@std@@AAEXIABU_Value_init_tag@1@@Z PROC ; std::vector<wchar_t,std::allocator<wchar_t> >::_Resize<std::_Value_init_tag>, COMDAT
; _this$ = ecx

; 1211 :     void _Resize(const size_type _Newsize, const _Ty2& _Val) { // trim or append elements, provide strong guarantee

  00000	55		 push	 ebp
  00001	8b ec		 mov	 ebp, esp
  00003	83 ec 38	 sub	 esp, 56			; 00000038H
  00006	89 4d f4	 mov	 DWORD PTR _this$[ebp], ecx

; 1212 :         auto& _My_data      = _Mypair._Myval2;

  00009	8b 45 f4	 mov	 eax, DWORD PTR _this$[ebp]
  0000c	89 45 f0	 mov	 DWORD PTR __My_data$[ebp], eax

; 1213 :         pointer& _Myfirst   = _My_data._Myfirst;

  0000f	8b 45 f0	 mov	 eax, DWORD PTR __My_data$[ebp]
  00012	89 45 ec	 mov	 DWORD PTR __Myfirst$[ebp], eax

; 1214 :         pointer& _Mylast    = _My_data._Mylast;

  00015	8b 45 f0	 mov	 eax, DWORD PTR __My_data$[ebp]
  00018	83 c0 04	 add	 eax, 4
  0001b	89 45 f8	 mov	 DWORD PTR __Mylast$[ebp], eax

; 1215 :         const auto _Oldsize = static_cast<size_type>(_Mylast - _Myfirst);

  0001e	8b 45 f8	 mov	 eax, DWORD PTR __Mylast$[ebp]
  00021	8b 4d ec	 mov	 ecx, DWORD PTR __Myfirst$[ebp]
  00024	8b 00		 mov	 eax, DWORD PTR [eax]
  00026	2b 01		 sub	 eax, DWORD PTR [ecx]
  00028	d1 f8		 sar	 eax, 1
  0002a	89 45 e8	 mov	 DWORD PTR __Oldsize$[ebp], eax

; 1216 :         if (_Newsize < _Oldsize) { // trim

  0002d	8b 45 08	 mov	 eax, DWORD PTR __Newsize$[ebp]
  00030	3b 45 e8	 cmp	 eax, DWORD PTR __Oldsize$[ebp]
  00033	73 3d		 jae	 SHORT $LN2@Resize

; 1217 :             const pointer _Newlast = _Myfirst + _Newsize;

  00035	8b 45 ec	 mov	 eax, DWORD PTR __Myfirst$[ebp]
  00038	8b 00		 mov	 eax, DWORD PTR [eax]
  0003a	8b 4d 08	 mov	 ecx, DWORD PTR __Newsize$[ebp]
  0003d	8d 04 48	 lea	 eax, DWORD PTR [eax+ecx*2]
  00040	89 45 e4	 mov	 DWORD PTR __Newlast$7[ebp], eax

; 1218 :             _Orphan_range(_Newlast, _Mylast);
; 1219 :             _Destroy(_Newlast, _Mylast);

  00043	8b 45 f8	 mov	 eax, DWORD PTR __Mylast$[ebp]
  00046	8b 00		 mov	 eax, DWORD PTR [eax]
  00048	89 45 d8	 mov	 DWORD PTR __Last$[ebp], eax

; 1733 :         return _Mypair._Get_first();

  0004b	8b 45 f4	 mov	 eax, DWORD PTR _this$[ebp]
; File C:\Program Files (x86)\Microsoft Visual Studio\2019\Community\VC\Tools\MSVC\14.28.29333\include\xmemory

; 1347 :         return *this;

  0004e	89 45 e0	 mov	 DWORD PTR $T6[ebp], eax
; File C:\Program Files (x86)\Microsoft Visual Studio\2019\Community\VC\Tools\MSVC\14.28.29333\include\vector

; 1733 :         return _Mypair._Get_first();

  00051	8b 45 e0	 mov	 eax, DWORD PTR $T6[ebp]
  00054	89 45 dc	 mov	 DWORD PTR $T5[ebp], eax

; 1612 :         _Destroy_range(_First, _Last, _Getal());

  00057	ff 75 dc	 push	 DWORD PTR $T5[ebp]
  0005a	ff 75 d8	 push	 DWORD PTR __Last$[ebp]
  0005d	ff 75 e4	 push	 DWORD PTR __Newlast$7[ebp]
  00060	e8 00 00 00 00	 call	 ??$_Destroy_range@V?$allocator@_W@std@@@std@@YAXPA_WQA_WAAV?$allocator@_W@0@@Z ; std::_Destroy_range<std::allocator<wchar_t> >
  00065	83 c4 0c	 add	 esp, 12			; 0000000cH

; 1220 :             _Mylast = _Newlast;

  00068	8b 45 f8	 mov	 eax, DWORD PTR __Mylast$[ebp]
  0006b	8b 4d e4	 mov	 ecx, DWORD PTR __Newlast$7[ebp]
  0006e	89 08		 mov	 DWORD PTR [eax], ecx

; 1221 :             return;

  00070	eb 66		 jmp	 SHORT $LN1@Resize
$LN2@Resize:

; 1222 :         }
; 1223 : 
; 1224 :         if (_Newsize > _Oldsize) { // append

  00072	8b 45 08	 mov	 eax, DWORD PTR __Newsize$[ebp]
  00075	3b 45 e8	 cmp	 eax, DWORD PTR __Oldsize$[ebp]
  00078	76 5e		 jbe	 SHORT $LN1@Resize

; 1225 :             const auto _Oldcapacity = static_cast<size_type>(_My_data._Myend - _Myfirst);

  0007a	8b 45 f0	 mov	 eax, DWORD PTR __My_data$[ebp]
  0007d	8b 4d ec	 mov	 ecx, DWORD PTR __Myfirst$[ebp]
  00080	8b 40 08	 mov	 eax, DWORD PTR [eax+8]
  00083	2b 01		 sub	 eax, DWORD PTR [ecx]
  00085	d1 f8		 sar	 eax, 1
  00087	89 45 d4	 mov	 DWORD PTR __Oldcapacity$4[ebp], eax

; 1226 :             if (_Newsize > _Oldcapacity) { // reallocate

  0008a	8b 45 08	 mov	 eax, DWORD PTR __Newsize$[ebp]
  0008d	3b 45 d4	 cmp	 eax, DWORD PTR __Oldcapacity$4[ebp]
  00090	76 10		 jbe	 SHORT $LN4@Resize

; 1227 :                 _Resize_reallocate(_Newsize, _Val);

  00092	ff 75 0c	 push	 DWORD PTR __Val$[ebp]
  00095	ff 75 08	 push	 DWORD PTR __Newsize$[ebp]
  00098	8b 4d f4	 mov	 ecx, DWORD PTR _this$[ebp]
  0009b	e8 00 00 00 00	 call	 ??$_Resize_reallocate@U_Value_init_tag@std@@@?$vector@_WV?$allocator@_W@std@@@std@@AAEXIABU_Value_init_tag@1@@Z ; std::vector<wchar_t,std::allocator<wchar_t> >::_Resize_reallocate<std::_Value_init_tag>

; 1228 :                 return;

  000a0	eb 36		 jmp	 SHORT $LN1@Resize
$LN4@Resize:

; 1229 :             }
; 1230 : 
; 1231 :             const pointer _Oldlast = _Mylast;

  000a2	8b 45 f8	 mov	 eax, DWORD PTR __Mylast$[ebp]
  000a5	8b 00		 mov	 eax, DWORD PTR [eax]
  000a7	89 45 c8	 mov	 DWORD PTR __Oldlast$1[ebp], eax

; 1232 :             _Mylast                = _Ufill(_Oldlast, _Newsize - _Oldsize, _Val);

  000aa	8b 45 0c	 mov	 eax, DWORD PTR __Val$[ebp]
  000ad	8a 00		 mov	 al, BYTE PTR [eax]
  000af	88 45 fc	 mov	 BYTE PTR ___formal$[ebp], al

; 1733 :         return _Mypair._Get_first();

  000b2	8b 45 f4	 mov	 eax, DWORD PTR _this$[ebp]
; File C:\Program Files (x86)\Microsoft Visual Studio\2019\Community\VC\Tools\MSVC\14.28.29333\include\xmemory

; 1347 :         return *this;

  000b5	89 45 d0	 mov	 DWORD PTR $T3[ebp], eax
; File C:\Program Files (x86)\Microsoft Visual Studio\2019\Community\VC\Tools\MSVC\14.28.29333\include\vector

; 1733 :         return _Mypair._Get_first();

  000b8	8b 45 d0	 mov	 eax, DWORD PTR $T3[ebp]
  000bb	89 45 cc	 mov	 DWORD PTR $T2[ebp], eax

; 1583 :         return _Uninitialized_value_construct_n(_Dest, _Count, _Getal());

  000be	ff 75 cc	 push	 DWORD PTR $T2[ebp]

; 1232 :             _Mylast                = _Ufill(_Oldlast, _Newsize - _Oldsize, _Val);

  000c1	8b 45 08	 mov	 eax, DWORD PTR __Newsize$[ebp]
  000c4	2b 45 e8	 sub	 eax, DWORD PTR __Oldsize$[ebp]

; 1583 :         return _Uninitialized_value_construct_n(_Dest, _Count, _Getal());

  000c7	50		 push	 eax
  000c8	ff 75 c8	 push	 DWORD PTR __Oldlast$1[ebp]
  000cb	e8 00 00 00 00	 call	 ??$_Uninitialized_value_construct_n@V?$allocator@_W@std@@@std@@YAPA_WPA_WIAAV?$allocator@_W@0@@Z ; std::_Uninitialized_value_construct_n<std::allocator<wchar_t> >
  000d0	83 c4 0c	 add	 esp, 12			; 0000000cH

; 1232 :             _Mylast                = _Ufill(_Oldlast, _Newsize - _Oldsize, _Val);

  000d3	8b 4d f8	 mov	 ecx, DWORD PTR __Mylast$[ebp]
  000d6	89 01		 mov	 DWORD PTR [ecx], eax
$LN1@Resize:

; 1233 :             _Orphan_range(_Oldlast, _Oldlast);
; 1234 :         }
; 1235 : 
; 1236 :         // if _Newsize == _Oldsize, do nothing; avoid invalidating iterators
; 1237 :     }

  000d8	c9		 leave
  000d9	c2 08 00	 ret	 8
??$_Resize@U_Value_init_tag@std@@@?$vector@_WV?$allocator@_W@std@@@std@@AAEXIABU_Value_init_tag@1@@Z ENDP ; std::vector<wchar_t,std::allocator<wchar_t> >::_Resize<std::_Value_init_tag>
_TEXT	ENDS
; Function compile flags: /Odspy
; File C:\Program Files (x86)\Microsoft Visual Studio\2019\Community\VC\Tools\MSVC\14.28.29333\include\vector
; File C:\Program Files (x86)\Microsoft Visual Studio\2019\Community\VC\Tools\MSVC\14.28.29333\include\xmemory
; File C:\Program Files (x86)\Microsoft Visual Studio\2019\Community\VC\Tools\MSVC\14.28.29333\include\vector
; File C:\Program Files (x86)\Microsoft Visual Studio\2019\Community\VC\Tools\MSVC\14.28.29333\include\xmemory
; File C:\Program Files (x86)\Microsoft Visual Studio\2019\Community\VC\Tools\MSVC\14.28.29333\include\vector
;	COMDAT ??$_Resize@U_Value_init_tag@std@@@?$vector@EV?$allocator@E@std@@@std@@AAEXIABU_Value_init_tag@1@@Z
_TEXT	SEGMENT
__Oldlast$1 = -56					; size = 4
$T2 = -52						; size = 4
$T3 = -48						; size = 4
__Oldcapacity$4 = -44					; size = 4
__Last$ = -40						; size = 4
$T5 = -36						; size = 4
$T6 = -32						; size = 4
__Newlast$7 = -28					; size = 4
__Oldsize$ = -24					; size = 4
__Myfirst$ = -20					; size = 4
__My_data$ = -16					; size = 4
_this$ = -12						; size = 4
__Mylast$ = -8						; size = 4
___formal$ = -4						; size = 1
__Newsize$ = 8						; size = 4
__Val$ = 12						; size = 4
??$_Resize@U_Value_init_tag@std@@@?$vector@EV?$allocator@E@std@@@std@@AAEXIABU_Value_init_tag@1@@Z PROC ; std::vector<unsigned char,std::allocator<unsigned char> >::_Resize<std::_Value_init_tag>, COMDAT
; _this$ = ecx

; 1211 :     void _Resize(const size_type _Newsize, const _Ty2& _Val) { // trim or append elements, provide strong guarantee

  00000	55		 push	 ebp
  00001	8b ec		 mov	 ebp, esp
  00003	83 ec 38	 sub	 esp, 56			; 00000038H
  00006	89 4d f4	 mov	 DWORD PTR _this$[ebp], ecx

; 1212 :         auto& _My_data      = _Mypair._Myval2;

  00009	8b 45 f4	 mov	 eax, DWORD PTR _this$[ebp]
  0000c	89 45 f0	 mov	 DWORD PTR __My_data$[ebp], eax

; 1213 :         pointer& _Myfirst   = _My_data._Myfirst;

  0000f	8b 45 f0	 mov	 eax, DWORD PTR __My_data$[ebp]
  00012	89 45 ec	 mov	 DWORD PTR __Myfirst$[ebp], eax

; 1214 :         pointer& _Mylast    = _My_data._Mylast;

  00015	8b 45 f0	 mov	 eax, DWORD PTR __My_data$[ebp]
  00018	83 c0 04	 add	 eax, 4
  0001b	89 45 f8	 mov	 DWORD PTR __Mylast$[ebp], eax

; 1215 :         const auto _Oldsize = static_cast<size_type>(_Mylast - _Myfirst);

  0001e	8b 45 f8	 mov	 eax, DWORD PTR __Mylast$[ebp]
  00021	8b 4d ec	 mov	 ecx, DWORD PTR __Myfirst$[ebp]
  00024	8b 00		 mov	 eax, DWORD PTR [eax]
  00026	2b 01		 sub	 eax, DWORD PTR [ecx]
  00028	89 45 e8	 mov	 DWORD PTR __Oldsize$[ebp], eax

; 1216 :         if (_Newsize < _Oldsize) { // trim

  0002b	8b 45 08	 mov	 eax, DWORD PTR __Newsize$[ebp]
  0002e	3b 45 e8	 cmp	 eax, DWORD PTR __Oldsize$[ebp]
  00031	73 3a		 jae	 SHORT $LN2@Resize

; 1217 :             const pointer _Newlast = _Myfirst + _Newsize;

  00033	8b 45 ec	 mov	 eax, DWORD PTR __Myfirst$[ebp]
  00036	8b 00		 mov	 eax, DWORD PTR [eax]
  00038	03 45 08	 add	 eax, DWORD PTR __Newsize$[ebp]
  0003b	89 45 e4	 mov	 DWORD PTR __Newlast$7[ebp], eax

; 1218 :             _Orphan_range(_Newlast, _Mylast);
; 1219 :             _Destroy(_Newlast, _Mylast);

  0003e	8b 45 f8	 mov	 eax, DWORD PTR __Mylast$[ebp]
  00041	8b 00		 mov	 eax, DWORD PTR [eax]
  00043	89 45 d8	 mov	 DWORD PTR __Last$[ebp], eax

; 1733 :         return _Mypair._Get_first();

  00046	8b 45 f4	 mov	 eax, DWORD PTR _this$[ebp]
; File C:\Program Files (x86)\Microsoft Visual Studio\2019\Community\VC\Tools\MSVC\14.28.29333\include\xmemory

; 1347 :         return *this;

  00049	89 45 e0	 mov	 DWORD PTR $T6[ebp], eax
; File C:\Program Files (x86)\Microsoft Visual Studio\2019\Community\VC\Tools\MSVC\14.28.29333\include\vector

; 1733 :         return _Mypair._Get_first();

  0004c	8b 45 e0	 mov	 eax, DWORD PTR $T6[ebp]
  0004f	89 45 dc	 mov	 DWORD PTR $T5[ebp], eax

; 1612 :         _Destroy_range(_First, _Last, _Getal());

  00052	ff 75 dc	 push	 DWORD PTR $T5[ebp]
  00055	ff 75 d8	 push	 DWORD PTR __Last$[ebp]
  00058	ff 75 e4	 push	 DWORD PTR __Newlast$7[ebp]
  0005b	e8 00 00 00 00	 call	 ??$_Destroy_range@V?$allocator@E@std@@@std@@YAXPAEQAEAAV?$allocator@E@0@@Z ; std::_Destroy_range<std::allocator<unsigned char> >
  00060	83 c4 0c	 add	 esp, 12			; 0000000cH

; 1220 :             _Mylast = _Newlast;

  00063	8b 45 f8	 mov	 eax, DWORD PTR __Mylast$[ebp]
  00066	8b 4d e4	 mov	 ecx, DWORD PTR __Newlast$7[ebp]
  00069	89 08		 mov	 DWORD PTR [eax], ecx

; 1221 :             return;

  0006b	eb 64		 jmp	 SHORT $LN1@Resize
$LN2@Resize:

; 1222 :         }
; 1223 : 
; 1224 :         if (_Newsize > _Oldsize) { // append

  0006d	8b 45 08	 mov	 eax, DWORD PTR __Newsize$[ebp]
  00070	3b 45 e8	 cmp	 eax, DWORD PTR __Oldsize$[ebp]
  00073	76 5c		 jbe	 SHORT $LN1@Resize

; 1225 :             const auto _Oldcapacity = static_cast<size_type>(_My_data._Myend - _Myfirst);

  00075	8b 45 f0	 mov	 eax, DWORD PTR __My_data$[ebp]
  00078	8b 4d ec	 mov	 ecx, DWORD PTR __Myfirst$[ebp]
  0007b	8b 40 08	 mov	 eax, DWORD PTR [eax+8]
  0007e	2b 01		 sub	 eax, DWORD PTR [ecx]
  00080	89 45 d4	 mov	 DWORD PTR __Oldcapacity$4[ebp], eax

; 1226 :             if (_Newsize > _Oldcapacity) { // reallocate

  00083	8b 45 08	 mov	 eax, DWORD PTR __Newsize$[ebp]
  00086	3b 45 d4	 cmp	 eax, DWORD PTR __Oldcapacity$4[ebp]
  00089	76 10		 jbe	 SHORT $LN4@Resize

; 1227 :                 _Resize_reallocate(_Newsize, _Val);

  0008b	ff 75 0c	 push	 DWORD PTR __Val$[ebp]
  0008e	ff 75 08	 push	 DWORD PTR __Newsize$[ebp]
  00091	8b 4d f4	 mov	 ecx, DWORD PTR _this$[ebp]
  00094	e8 00 00 00 00	 call	 ??$_Resize_reallocate@U_Value_init_tag@std@@@?$vector@EV?$allocator@E@std@@@std@@AAEXIABU_Value_init_tag@1@@Z ; std::vector<unsigned char,std::allocator<unsigned char> >::_Resize_reallocate<std::_Value_init_tag>

; 1228 :                 return;

  00099	eb 36		 jmp	 SHORT $LN1@Resize
$LN4@Resize:

; 1229 :             }
; 1230 : 
; 1231 :             const pointer _Oldlast = _Mylast;

  0009b	8b 45 f8	 mov	 eax, DWORD PTR __Mylast$[ebp]
  0009e	8b 00		 mov	 eax, DWORD PTR [eax]
  000a0	89 45 c8	 mov	 DWORD PTR __Oldlast$1[ebp], eax

; 1232 :             _Mylast                = _Ufill(_Oldlast, _Newsize - _Oldsize, _Val);

  000a3	8b 45 0c	 mov	 eax, DWORD PTR __Val$[ebp]
  000a6	8a 00		 mov	 al, BYTE PTR [eax]
  000a8	88 45 fc	 mov	 BYTE PTR ___formal$[ebp], al

; 1733 :         return _Mypair._Get_first();

  000ab	8b 45 f4	 mov	 eax, DWORD PTR _this$[ebp]
; File C:\Program Files (x86)\Microsoft Visual Studio\2019\Community\VC\Tools\MSVC\14.28.29333\include\xmemory

; 1347 :         return *this;

  000ae	89 45 d0	 mov	 DWORD PTR $T3[ebp], eax
; File C:\Program Files (x86)\Microsoft Visual Studio\2019\Community\VC\Tools\MSVC\14.28.29333\include\vector

; 1733 :         return _Mypair._Get_first();

  000b1	8b 45 d0	 mov	 eax, DWORD PTR $T3[ebp]
  000b4	89 45 cc	 mov	 DWORD PTR $T2[ebp], eax

; 1583 :         return _Uninitialized_value_construct_n(_Dest, _Count, _Getal());

  000b7	ff 75 cc	 push	 DWORD PTR $T2[ebp]

; 1232 :             _Mylast                = _Ufill(_Oldlast, _Newsize - _Oldsize, _Val);

  000ba	8b 45 08	 mov	 eax, DWORD PTR __Newsize$[ebp]
  000bd	2b 45 e8	 sub	 eax, DWORD PTR __Oldsize$[ebp]

; 1583 :         return _Uninitialized_value_construct_n(_Dest, _Count, _Getal());

  000c0	50		 push	 eax
  000c1	ff 75 c8	 push	 DWORD PTR __Oldlast$1[ebp]
  000c4	e8 00 00 00 00	 call	 ??$_Uninitialized_value_construct_n@V?$allocator@E@std@@@std@@YAPAEPAEIAAV?$allocator@E@0@@Z ; std::_Uninitialized_value_construct_n<std::allocator<unsigned char> >
  000c9	83 c4 0c	 add	 esp, 12			; 0000000cH

; 1232 :             _Mylast                = _Ufill(_Oldlast, _Newsize - _Oldsize, _Val);

  000cc	8b 4d f8	 mov	 ecx, DWORD PTR __Mylast$[ebp]
  000cf	89 01		 mov	 DWORD PTR [ecx], eax
$LN1@Resize:

; 1233 :             _Orphan_range(_Oldlast, _Oldlast);
; 1234 :         }
; 1235 : 
; 1236 :         // if _Newsize == _Oldsize, do nothing; avoid invalidating iterators
; 1237 :     }

  000d1	c9		 leave
  000d2	c2 08 00	 ret	 8
??$_Resize@U_Value_init_tag@std@@@?$vector@EV?$allocator@E@std@@@std@@AAEXIABU_Value_init_tag@1@@Z ENDP ; std::vector<unsigned char,std::allocator<unsigned char> >::_Resize<std::_Value_init_tag>
_TEXT	ENDS
; Function compile flags: /Odspy
; File D:\Metin2 Server Files\mainline\SRC_2014\Metin2Client\EterLib\IME.cpp
;	COMDAT ?_strtoul@@YAKPBDPAPADH@Z
_TEXT	SEGMENT
_ul$1 = -8						; size = 4
_ulRet$ = -4						; size = 4
_psz$ = 8						; size = 4
___formal$ = 12						; size = 4
___formal$ = 16						; size = 4
?_strtoul@@YAKPBDPAPADH@Z PROC				; _strtoul, COMDAT

; 1405 : {

  00000	55		 push	 ebp
  00001	8b ec		 mov	 ebp, esp
  00003	51		 push	 ecx
  00004	51		 push	 ecx

; 1406 : 	if ( !psz )

  00005	83 7d 08 00	 cmp	 DWORD PTR _psz$[ebp], 0
  00009	75 07		 jne	 SHORT $LN6@strtoul

; 1407 : 		return 0;

  0000b	33 c0		 xor	 eax, eax
  0000d	e9 21 01 00 00	 jmp	 $LN1@strtoul
$LN6@strtoul:

; 1408 : 
; 1409 : 	ULONG ulRet = 0;

  00012	83 65 fc 00	 and	 DWORD PTR _ulRet$[ebp], 0

; 1410 : 	if ( psz[0] == '0' && ( psz[1] == 'x' || psz[1] == 'X' ) )

  00016	33 c0		 xor	 eax, eax
  00018	40		 inc	 eax
  00019	6b c0 00	 imul	 eax, eax, 0
  0001c	8b 4d 08	 mov	 ecx, DWORD PTR _psz$[ebp]
  0001f	0f be 04 01	 movsx	 eax, BYTE PTR [ecx+eax]
  00023	83 f8 30	 cmp	 eax, 48			; 00000030H
  00026	0f 85 ca 00 00
	00		 jne	 $LN4@strtoul
  0002c	33 c0		 xor	 eax, eax
  0002e	40		 inc	 eax
  0002f	c1 e0 00	 shl	 eax, 0
  00032	8b 4d 08	 mov	 ecx, DWORD PTR _psz$[ebp]
  00035	0f be 04 01	 movsx	 eax, BYTE PTR [ecx+eax]
  00039	83 f8 78	 cmp	 eax, 120		; 00000078H
  0003c	74 16		 je	 SHORT $LN9@strtoul
  0003e	33 c0		 xor	 eax, eax
  00040	40		 inc	 eax
  00041	c1 e0 00	 shl	 eax, 0
  00044	8b 4d 08	 mov	 ecx, DWORD PTR _psz$[ebp]
  00047	0f be 04 01	 movsx	 eax, BYTE PTR [ecx+eax]
  0004b	83 f8 58	 cmp	 eax, 88			; 00000058H
  0004e	0f 85 a2 00 00
	00		 jne	 $LN4@strtoul
$LN9@strtoul:

; 1411 : 	{
; 1412 : 		psz += 2;

  00054	8b 45 08	 mov	 eax, DWORD PTR _psz$[ebp]
  00057	40		 inc	 eax
  00058	40		 inc	 eax
  00059	89 45 08	 mov	 DWORD PTR _psz$[ebp], eax

; 1413 : 		ULONG ul = 0;

  0005c	83 65 f8 00	 and	 DWORD PTR _ul$1[ebp], 0
$LN2@strtoul:

; 1414 : 		while ( *psz )

  00060	8b 45 08	 mov	 eax, DWORD PTR _psz$[ebp]
  00063	0f be 00	 movsx	 eax, BYTE PTR [eax]
  00066	85 c0		 test	 eax, eax
  00068	0f 84 86 00 00
	00		 je	 $LN3@strtoul

; 1415 : 		{
; 1416 : 			if ( '0' <= *psz && *psz <= '9' )

  0006e	8b 45 08	 mov	 eax, DWORD PTR _psz$[ebp]
  00071	0f be 00	 movsx	 eax, BYTE PTR [eax]
  00074	83 f8 30	 cmp	 eax, 48			; 00000030H
  00077	7c 19		 jl	 SHORT $LN10@strtoul
  00079	8b 45 08	 mov	 eax, DWORD PTR _psz$[ebp]
  0007c	0f be 00	 movsx	 eax, BYTE PTR [eax]
  0007f	83 f8 39	 cmp	 eax, 57			; 00000039H
  00082	7f 0e		 jg	 SHORT $LN10@strtoul

; 1417 : 				ul = *psz - '0';

  00084	8b 45 08	 mov	 eax, DWORD PTR _psz$[ebp]
  00087	0f be 00	 movsx	 eax, BYTE PTR [eax]
  0008a	83 e8 30	 sub	 eax, 48			; 00000030H
  0008d	89 45 f8	 mov	 DWORD PTR _ul$1[ebp], eax
  00090	eb 4a		 jmp	 SHORT $LN11@strtoul
$LN10@strtoul:

; 1418 : 			else if ( 'A' <= *psz && *psz <= 'F' )

  00092	8b 45 08	 mov	 eax, DWORD PTR _psz$[ebp]
  00095	0f be 00	 movsx	 eax, BYTE PTR [eax]
  00098	83 f8 41	 cmp	 eax, 65			; 00000041H
  0009b	7c 19		 jl	 SHORT $LN12@strtoul
  0009d	8b 45 08	 mov	 eax, DWORD PTR _psz$[ebp]
  000a0	0f be 00	 movsx	 eax, BYTE PTR [eax]
  000a3	83 f8 46	 cmp	 eax, 70			; 00000046H
  000a6	7f 0e		 jg	 SHORT $LN12@strtoul

; 1419 : 				ul = *psz - 'A' + 10;

  000a8	8b 45 08	 mov	 eax, DWORD PTR _psz$[ebp]
  000ab	0f be 00	 movsx	 eax, BYTE PTR [eax]
  000ae	83 e8 37	 sub	 eax, 55			; 00000037H
  000b1	89 45 f8	 mov	 DWORD PTR _ul$1[ebp], eax
  000b4	eb 26		 jmp	 SHORT $LN11@strtoul
$LN12@strtoul:

; 1420 : 			else if ( 'a' <= *psz && *psz <= 'f' )

  000b6	8b 45 08	 mov	 eax, DWORD PTR _psz$[ebp]
  000b9	0f be 00	 movsx	 eax, BYTE PTR [eax]
  000bc	83 f8 61	 cmp	 eax, 97			; 00000061H
  000bf	7c 19		 jl	 SHORT $LN14@strtoul
  000c1	8b 45 08	 mov	 eax, DWORD PTR _psz$[ebp]
  000c4	0f be 00	 movsx	 eax, BYTE PTR [eax]
  000c7	83 f8 66	 cmp	 eax, 102		; 00000066H
  000ca	7f 0e		 jg	 SHORT $LN14@strtoul

; 1421 : 				ul = *psz - 'a' + 10;

  000cc	8b 45 08	 mov	 eax, DWORD PTR _psz$[ebp]
  000cf	0f be 00	 movsx	 eax, BYTE PTR [eax]
  000d2	83 e8 57	 sub	 eax, 87			; 00000057H
  000d5	89 45 f8	 mov	 DWORD PTR _ul$1[ebp], eax
  000d8	eb 02		 jmp	 SHORT $LN11@strtoul
$LN14@strtoul:

; 1422 : 			else
; 1423 : 				break;

  000da	eb 18		 jmp	 SHORT $LN3@strtoul
$LN11@strtoul:

; 1424 : 			ulRet = ulRet * 16 + ul;

  000dc	8b 45 fc	 mov	 eax, DWORD PTR _ulRet$[ebp]
  000df	c1 e0 04	 shl	 eax, 4
  000e2	03 45 f8	 add	 eax, DWORD PTR _ul$1[ebp]
  000e5	89 45 fc	 mov	 DWORD PTR _ulRet$[ebp], eax

; 1425 : 			psz++;

  000e8	8b 45 08	 mov	 eax, DWORD PTR _psz$[ebp]
  000eb	40		 inc	 eax
  000ec	89 45 08	 mov	 DWORD PTR _psz$[ebp], eax

; 1426 : 		}

  000ef	e9 6c ff ff ff	 jmp	 $LN2@strtoul
$LN3@strtoul:

; 1427 : 	}

  000f4	eb 3a		 jmp	 SHORT $LN8@strtoul
$LN4@strtoul:

; 1428 : 	else {
; 1429 : 		while ( *psz && ( '0' <= *psz && *psz <= '9' ) )

  000f6	8b 45 08	 mov	 eax, DWORD PTR _psz$[ebp]
  000f9	0f be 00	 movsx	 eax, BYTE PTR [eax]
  000fc	85 c0		 test	 eax, eax
  000fe	74 30		 je	 SHORT $LN8@strtoul
  00100	8b 45 08	 mov	 eax, DWORD PTR _psz$[ebp]
  00103	0f be 00	 movsx	 eax, BYTE PTR [eax]
  00106	83 f8 30	 cmp	 eax, 48			; 00000030H
  00109	7c 25		 jl	 SHORT $LN8@strtoul
  0010b	8b 45 08	 mov	 eax, DWORD PTR _psz$[ebp]
  0010e	0f be 00	 movsx	 eax, BYTE PTR [eax]
  00111	83 f8 39	 cmp	 eax, 57			; 00000039H
  00114	7f 1a		 jg	 SHORT $LN8@strtoul

; 1430 : 		{
; 1431 : 			ulRet = ulRet * 10 + ( *psz - '0' );

  00116	6b 45 fc 0a	 imul	 eax, DWORD PTR _ulRet$[ebp], 10
  0011a	8b 4d 08	 mov	 ecx, DWORD PTR _psz$[ebp]
  0011d	0f be 09	 movsx	 ecx, BYTE PTR [ecx]
  00120	8d 44 08 d0	 lea	 eax, DWORD PTR [eax+ecx-48]
  00124	89 45 fc	 mov	 DWORD PTR _ulRet$[ebp], eax

; 1432 : 			psz++;

  00127	8b 45 08	 mov	 eax, DWORD PTR _psz$[ebp]
  0012a	40		 inc	 eax
  0012b	89 45 08	 mov	 DWORD PTR _psz$[ebp], eax

; 1433 : 		}

  0012e	eb c6		 jmp	 SHORT $LN4@strtoul
$LN8@strtoul:

; 1434 : 	}
; 1435 : 	return ulRet;

  00130	8b 45 fc	 mov	 eax, DWORD PTR _ulRet$[ebp]
$LN1@strtoul:

; 1436 : }

  00133	c9		 leave
  00134	c3		 ret	 0
?_strtoul@@YAKPBDPAPADH@Z ENDP				; _strtoul
_TEXT	ENDS
; Function compile flags: /Odspy
; File C:\Program Files (x86)\Microsoft Visual Studio\2019\Community\VC\Tools\MSVC\14.28.29333\include\vector
; File C:\Program Files (x86)\Microsoft Visual Studio\2019\Community\VC\Tools\MSVC\14.28.29333\include\xmemory
; File C:\Program Files (x86)\Microsoft Visual Studio\2019\Community\VC\Tools\MSVC\14.28.29333\include\vector
;	COMDAT ?_Getal@?$vector@EV?$allocator@E@std@@@std@@AAEAAV?$allocator@E@2@XZ
_TEXT	SEGMENT
$T1 = -8						; size = 4
_this$ = -4						; size = 4
?_Getal@?$vector@EV?$allocator@E@std@@@std@@AAEAAV?$allocator@E@2@XZ PROC ; std::vector<unsigned char,std::allocator<unsigned char> >::_Getal, COMDAT
; _this$ = ecx

; 1732 :     _Alty& _Getal() noexcept {

  00000	55		 push	 ebp
  00001	8b ec		 mov	 ebp, esp
  00003	51		 push	 ecx
  00004	51		 push	 ecx
  00005	89 4d fc	 mov	 DWORD PTR _this$[ebp], ecx

; 1733 :         return _Mypair._Get_first();

  00008	8b 45 fc	 mov	 eax, DWORD PTR _this$[ebp]
; File C:\Program Files (x86)\Microsoft Visual Studio\2019\Community\VC\Tools\MSVC\14.28.29333\include\xmemory

; 1347 :         return *this;

  0000b	89 45 f8	 mov	 DWORD PTR $T1[ebp], eax
; File C:\Program Files (x86)\Microsoft Visual Studio\2019\Community\VC\Tools\MSVC\14.28.29333\include\vector

; 1733 :         return _Mypair._Get_first();

  0000e	8b 45 f8	 mov	 eax, DWORD PTR $T1[ebp]

; 1734 :     }

  00011	c9		 leave
  00012	c3		 ret	 0
?_Getal@?$vector@EV?$allocator@E@std@@@std@@AAEAAV?$allocator@E@2@XZ ENDP ; std::vector<unsigned char,std::allocator<unsigned char> >::_Getal
_TEXT	ENDS
; Function compile flags: /Odspy
; File C:\Program Files (x86)\Microsoft Visual Studio\2019\Community\VC\Tools\MSVC\14.28.29333\include\vector
;	COMDAT ?_Xlength@?$vector@EV?$allocator@E@std@@@std@@CAXXZ
_TEXT	SEGMENT
?_Xlength@?$vector@EV?$allocator@E@std@@@std@@CAXXZ PROC ; std::vector<unsigned char,std::allocator<unsigned char> >::_Xlength, COMDAT

; 1704 :     [[noreturn]] static void _Xlength() {

  00000	55		 push	 ebp
  00001	8b ec		 mov	 ebp, esp

; 1705 :         _Xlength_error("vector too long");

  00003	68 00 00 00 00	 push	 OFFSET ??_C@_0BA@FOIKENOD@vector?5too?5long@
  00008	e8 00 00 00 00	 call	 ?_Xlength_error@std@@YAXPBD@Z ; std::_Xlength_error
$LN2@Xlength:

; 1706 :     }

  0000d	5d		 pop	 ebp
  0000e	c3		 ret	 0
?_Xlength@?$vector@EV?$allocator@E@std@@@std@@CAXXZ ENDP ; std::vector<unsigned char,std::allocator<unsigned char> >::_Xlength
_TEXT	ENDS
; Function compile flags: /Odspy
; File C:\Program Files (x86)\Microsoft Visual Studio\2019\Community\VC\Tools\MSVC\14.28.29333\include\vector
; File C:\Program Files (x86)\Microsoft Visual Studio\2019\Community\VC\Tools\MSVC\14.28.29333\include\xmemory
; File C:\Program Files (x86)\Microsoft Visual Studio\2019\Community\VC\Tools\MSVC\14.28.29333\include\vector
; File C:\Program Files (x86)\Microsoft Visual Studio\2019\Community\VC\Tools\MSVC\14.28.29333\include\xmemory
; File C:\Program Files (x86)\Microsoft Visual Studio\2019\Community\VC\Tools\MSVC\14.28.29333\include\vector
; File C:\Program Files (x86)\Microsoft Visual Studio\2019\Community\VC\Tools\MSVC\14.28.29333\include\xmemory
; File C:\Program Files (x86)\Microsoft Visual Studio\2019\Community\VC\Tools\MSVC\14.28.29333\include\vector
;	COMDAT ?_Tidy@?$vector@EV?$allocator@E@std@@@std@@AAEXXZ
_TEXT	SEGMENT
$T1 = -52						; size = 4
__Ptr$ = -48						; size = 4
__Count$ = -44						; size = 4
$T2 = -40						; size = 4
__First$ = -36						; size = 4
__Last$ = -32						; size = 4
$T3 = -28						; size = 4
$T4 = -24						; size = 4
__Myend$ = -20						; size = 4
__Mylast$ = -16						; size = 4
_this$ = -12						; size = 4
__My_data$ = -8						; size = 4
__Myfirst$ = -4						; size = 4
?_Tidy@?$vector@EV?$allocator@E@std@@@std@@AAEXXZ PROC	; std::vector<unsigned char,std::allocator<unsigned char> >::_Tidy, COMDAT
; _this$ = ecx

; 1686 :     void _Tidy() noexcept { // free all storage

  00000	55		 push	 ebp
  00001	8b ec		 mov	 ebp, esp
  00003	83 ec 34	 sub	 esp, 52			; 00000034H
  00006	89 4d f4	 mov	 DWORD PTR _this$[ebp], ecx

; 1687 :         auto& _My_data    = _Mypair._Myval2;

  00009	8b 45 f4	 mov	 eax, DWORD PTR _this$[ebp]
  0000c	89 45 f8	 mov	 DWORD PTR __My_data$[ebp], eax

; 1688 :         pointer& _Myfirst = _My_data._Myfirst;

  0000f	8b 45 f8	 mov	 eax, DWORD PTR __My_data$[ebp]
  00012	89 45 fc	 mov	 DWORD PTR __Myfirst$[ebp], eax

; 1689 :         pointer& _Mylast  = _My_data._Mylast;

  00015	8b 45 f8	 mov	 eax, DWORD PTR __My_data$[ebp]
  00018	83 c0 04	 add	 eax, 4
  0001b	89 45 f0	 mov	 DWORD PTR __Mylast$[ebp], eax

; 1690 :         pointer& _Myend   = _My_data._Myend;

  0001e	8b 45 f8	 mov	 eax, DWORD PTR __My_data$[ebp]
  00021	83 c0 08	 add	 eax, 8
  00024	89 45 ec	 mov	 DWORD PTR __Myend$[ebp], eax

; 1691 : 
; 1692 :         _My_data._Orphan_all();
; 1693 : 
; 1694 :         if (_Myfirst) { // destroy and deallocate old array

  00027	8b 45 fc	 mov	 eax, DWORD PTR __Myfirst$[ebp]
  0002a	83 38 00	 cmp	 DWORD PTR [eax], 0
  0002d	74 6d		 je	 SHORT $LN3@Tidy

; 1695 :             _Destroy(_Myfirst, _Mylast);

  0002f	8b 45 f0	 mov	 eax, DWORD PTR __Mylast$[ebp]
  00032	8b 00		 mov	 eax, DWORD PTR [eax]
  00034	89 45 e0	 mov	 DWORD PTR __Last$[ebp], eax
  00037	8b 45 fc	 mov	 eax, DWORD PTR __Myfirst$[ebp]
  0003a	8b 00		 mov	 eax, DWORD PTR [eax]
  0003c	89 45 dc	 mov	 DWORD PTR __First$[ebp], eax

; 1733 :         return _Mypair._Get_first();

  0003f	8b 45 f4	 mov	 eax, DWORD PTR _this$[ebp]
; File C:\Program Files (x86)\Microsoft Visual Studio\2019\Community\VC\Tools\MSVC\14.28.29333\include\xmemory

; 1347 :         return *this;

  00042	89 45 e8	 mov	 DWORD PTR $T4[ebp], eax
; File C:\Program Files (x86)\Microsoft Visual Studio\2019\Community\VC\Tools\MSVC\14.28.29333\include\vector

; 1733 :         return _Mypair._Get_first();

  00045	8b 45 e8	 mov	 eax, DWORD PTR $T4[ebp]
  00048	89 45 e4	 mov	 DWORD PTR $T3[ebp], eax

; 1612 :         _Destroy_range(_First, _Last, _Getal());

  0004b	ff 75 e4	 push	 DWORD PTR $T3[ebp]
  0004e	ff 75 e0	 push	 DWORD PTR __Last$[ebp]
  00051	ff 75 dc	 push	 DWORD PTR __First$[ebp]
  00054	e8 00 00 00 00	 call	 ??$_Destroy_range@V?$allocator@E@std@@@std@@YAXPAEQAEAAV?$allocator@E@0@@Z ; std::_Destroy_range<std::allocator<unsigned char> >
  00059	83 c4 0c	 add	 esp, 12			; 0000000cH

; 1733 :         return _Mypair._Get_first();

  0005c	8b 45 f4	 mov	 eax, DWORD PTR _this$[ebp]
; File C:\Program Files (x86)\Microsoft Visual Studio\2019\Community\VC\Tools\MSVC\14.28.29333\include\xmemory

; 1347 :         return *this;

  0005f	89 45 d8	 mov	 DWORD PTR $T2[ebp], eax
; File C:\Program Files (x86)\Microsoft Visual Studio\2019\Community\VC\Tools\MSVC\14.28.29333\include\vector

; 1733 :         return _Mypair._Get_first();

  00062	8b 45 d8	 mov	 eax, DWORD PTR $T2[ebp]
  00065	89 45 cc	 mov	 DWORD PTR $T1[ebp], eax

; 1696 :             _Getal().deallocate(_Myfirst, static_cast<size_type>(_Myend - _Myfirst));

  00068	8b 45 ec	 mov	 eax, DWORD PTR __Myend$[ebp]
  0006b	8b 4d fc	 mov	 ecx, DWORD PTR __Myfirst$[ebp]
  0006e	8b 00		 mov	 eax, DWORD PTR [eax]
  00070	2b 01		 sub	 eax, DWORD PTR [ecx]
  00072	89 45 d4	 mov	 DWORD PTR __Count$[ebp], eax
  00075	8b 45 fc	 mov	 eax, DWORD PTR __Myfirst$[ebp]
  00078	8b 00		 mov	 eax, DWORD PTR [eax]
  0007a	89 45 d0	 mov	 DWORD PTR __Ptr$[ebp], eax
; File C:\Program Files (x86)\Microsoft Visual Studio\2019\Community\VC\Tools\MSVC\14.28.29333\include\xmemory

; 810  :         _Deallocate<_New_alignof<_Ty>>(_Ptr, sizeof(_Ty) * _Count);

  0007d	ff 75 d4	 push	 DWORD PTR __Count$[ebp]
  00080	ff 75 d0	 push	 DWORD PTR __Ptr$[ebp]
  00083	e8 00 00 00 00	 call	 ??$_Deallocate@$07$0A@@std@@YAXPAXI@Z ; std::_Deallocate<8,0>
  00088	59		 pop	 ecx
  00089	59		 pop	 ecx
; File C:\Program Files (x86)\Microsoft Visual Studio\2019\Community\VC\Tools\MSVC\14.28.29333\include\vector

; 1698 :             _Myfirst = pointer();

  0008a	8b 45 fc	 mov	 eax, DWORD PTR __Myfirst$[ebp]
  0008d	83 20 00	 and	 DWORD PTR [eax], 0

; 1699 :             _Mylast  = pointer();

  00090	8b 45 f0	 mov	 eax, DWORD PTR __Mylast$[ebp]
  00093	83 20 00	 and	 DWORD PTR [eax], 0

; 1700 :             _Myend   = pointer();

  00096	8b 45 ec	 mov	 eax, DWORD PTR __Myend$[ebp]
  00099	83 20 00	 and	 DWORD PTR [eax], 0
$LN3@Tidy:

; 1701 :         }
; 1702 :     }

  0009c	c9		 leave
  0009d	c3		 ret	 0
?_Tidy@?$vector@EV?$allocator@E@std@@@std@@AAEXXZ ENDP	; std::vector<unsigned char,std::allocator<unsigned char> >::_Tidy
_TEXT	ENDS
; Function compile flags: /Odspy
; File C:\Program Files (x86)\Microsoft Visual Studio\2019\Community\VC\Tools\MSVC\14.28.29333\include\vector
; File C:\Program Files (x86)\Microsoft Visual Studio\2019\Community\VC\Tools\MSVC\14.28.29333\include\xmemory
; File C:\Program Files (x86)\Microsoft Visual Studio\2019\Community\VC\Tools\MSVC\14.28.29333\include\vector
; File C:\Program Files (x86)\Microsoft Visual Studio\2019\Community\VC\Tools\MSVC\14.28.29333\include\xmemory
; File C:\Program Files (x86)\Microsoft Visual Studio\2019\Community\VC\Tools\MSVC\14.28.29333\include\vector
; File C:\Program Files (x86)\Microsoft Visual Studio\2019\Community\VC\Tools\MSVC\14.28.29333\include\xmemory
; File C:\Program Files (x86)\Microsoft Visual Studio\2019\Community\VC\Tools\MSVC\14.28.29333\include\vector
;	COMDAT ?_Change_array@?$vector@EV?$allocator@E@std@@@std@@AAEXQAEII@Z
_TEXT	SEGMENT
$T1 = -52						; size = 4
__Ptr$ = -48						; size = 4
__Count$ = -44						; size = 4
$T2 = -40						; size = 4
__First$ = -36						; size = 4
__Last$ = -32						; size = 4
$T3 = -28						; size = 4
$T4 = -24						; size = 4
__Myend$ = -20						; size = 4
__Mylast$ = -16						; size = 4
_this$ = -12						; size = 4
__My_data$ = -8						; size = 4
__Myfirst$ = -4						; size = 4
__Newvec$ = 8						; size = 4
__Newsize$ = 12						; size = 4
__Newcapacity$ = 16					; size = 4
?_Change_array@?$vector@EV?$allocator@E@std@@@std@@AAEXQAEII@Z PROC ; std::vector<unsigned char,std::allocator<unsigned char> >::_Change_array, COMDAT
; _this$ = ecx

; 1667 :     void _Change_array(const pointer _Newvec, const size_type _Newsize, const size_type _Newcapacity) {

  00000	55		 push	 ebp
  00001	8b ec		 mov	 ebp, esp
  00003	83 ec 34	 sub	 esp, 52			; 00000034H
  00006	89 4d f4	 mov	 DWORD PTR _this$[ebp], ecx

; 1668 :         // orphan all iterators, discard old array, acquire new array
; 1669 :         auto& _My_data    = _Mypair._Myval2;

  00009	8b 45 f4	 mov	 eax, DWORD PTR _this$[ebp]
  0000c	89 45 f8	 mov	 DWORD PTR __My_data$[ebp], eax

; 1670 :         pointer& _Myfirst = _My_data._Myfirst;

  0000f	8b 45 f8	 mov	 eax, DWORD PTR __My_data$[ebp]
  00012	89 45 fc	 mov	 DWORD PTR __Myfirst$[ebp], eax

; 1671 :         pointer& _Mylast  = _My_data._Mylast;

  00015	8b 45 f8	 mov	 eax, DWORD PTR __My_data$[ebp]
  00018	83 c0 04	 add	 eax, 4
  0001b	89 45 f0	 mov	 DWORD PTR __Mylast$[ebp], eax

; 1672 :         pointer& _Myend   = _My_data._Myend;

  0001e	8b 45 f8	 mov	 eax, DWORD PTR __My_data$[ebp]
  00021	83 c0 08	 add	 eax, 8
  00024	89 45 ec	 mov	 DWORD PTR __Myend$[ebp], eax

; 1673 : 
; 1674 :         _My_data._Orphan_all();
; 1675 : 
; 1676 :         if (_Myfirst) { // destroy and deallocate old array

  00027	8b 45 fc	 mov	 eax, DWORD PTR __Myfirst$[ebp]
  0002a	83 38 00	 cmp	 DWORD PTR [eax], 0
  0002d	74 5b		 je	 SHORT $LN2@Change_arr

; 1677 :             _Destroy(_Myfirst, _Mylast);

  0002f	8b 45 f0	 mov	 eax, DWORD PTR __Mylast$[ebp]
  00032	8b 00		 mov	 eax, DWORD PTR [eax]
  00034	89 45 e0	 mov	 DWORD PTR __Last$[ebp], eax
  00037	8b 45 fc	 mov	 eax, DWORD PTR __Myfirst$[ebp]
  0003a	8b 00		 mov	 eax, DWORD PTR [eax]
  0003c	89 45 dc	 mov	 DWORD PTR __First$[ebp], eax

; 1733 :         return _Mypair._Get_first();

  0003f	8b 45 f4	 mov	 eax, DWORD PTR _this$[ebp]
; File C:\Program Files (x86)\Microsoft Visual Studio\2019\Community\VC\Tools\MSVC\14.28.29333\include\xmemory

; 1347 :         return *this;

  00042	89 45 e8	 mov	 DWORD PTR $T4[ebp], eax
; File C:\Program Files (x86)\Microsoft Visual Studio\2019\Community\VC\Tools\MSVC\14.28.29333\include\vector

; 1733 :         return _Mypair._Get_first();

  00045	8b 45 e8	 mov	 eax, DWORD PTR $T4[ebp]
  00048	89 45 e4	 mov	 DWORD PTR $T3[ebp], eax

; 1612 :         _Destroy_range(_First, _Last, _Getal());

  0004b	ff 75 e4	 push	 DWORD PTR $T3[ebp]
  0004e	ff 75 e0	 push	 DWORD PTR __Last$[ebp]
  00051	ff 75 dc	 push	 DWORD PTR __First$[ebp]
  00054	e8 00 00 00 00	 call	 ??$_Destroy_range@V?$allocator@E@std@@@std@@YAXPAEQAEAAV?$allocator@E@0@@Z ; std::_Destroy_range<std::allocator<unsigned char> >
  00059	83 c4 0c	 add	 esp, 12			; 0000000cH

; 1733 :         return _Mypair._Get_first();

  0005c	8b 45 f4	 mov	 eax, DWORD PTR _this$[ebp]
; File C:\Program Files (x86)\Microsoft Visual Studio\2019\Community\VC\Tools\MSVC\14.28.29333\include\xmemory

; 1347 :         return *this;

  0005f	89 45 d8	 mov	 DWORD PTR $T2[ebp], eax
; File C:\Program Files (x86)\Microsoft Visual Studio\2019\Community\VC\Tools\MSVC\14.28.29333\include\vector

; 1733 :         return _Mypair._Get_first();

  00062	8b 45 d8	 mov	 eax, DWORD PTR $T2[ebp]
  00065	89 45 cc	 mov	 DWORD PTR $T1[ebp], eax

; 1678 :             _Getal().deallocate(_Myfirst, static_cast<size_type>(_Myend - _Myfirst));

  00068	8b 45 ec	 mov	 eax, DWORD PTR __Myend$[ebp]
  0006b	8b 4d fc	 mov	 ecx, DWORD PTR __Myfirst$[ebp]
  0006e	8b 00		 mov	 eax, DWORD PTR [eax]
  00070	2b 01		 sub	 eax, DWORD PTR [ecx]
  00072	89 45 d4	 mov	 DWORD PTR __Count$[ebp], eax
  00075	8b 45 fc	 mov	 eax, DWORD PTR __Myfirst$[ebp]
  00078	8b 00		 mov	 eax, DWORD PTR [eax]
  0007a	89 45 d0	 mov	 DWORD PTR __Ptr$[ebp], eax
; File C:\Program Files (x86)\Microsoft Visual Studio\2019\Community\VC\Tools\MSVC\14.28.29333\include\xmemory

; 810  :         _Deallocate<_New_alignof<_Ty>>(_Ptr, sizeof(_Ty) * _Count);

  0007d	ff 75 d4	 push	 DWORD PTR __Count$[ebp]
  00080	ff 75 d0	 push	 DWORD PTR __Ptr$[ebp]
  00083	e8 00 00 00 00	 call	 ??$_Deallocate@$07$0A@@std@@YAXPAXI@Z ; std::_Deallocate<8,0>
  00088	59		 pop	 ecx
  00089	59		 pop	 ecx
$LN2@Change_arr:
; File C:\Program Files (x86)\Microsoft Visual Studio\2019\Community\VC\Tools\MSVC\14.28.29333\include\vector

; 1681 :         _Myfirst = _Newvec;

  0008a	8b 45 fc	 mov	 eax, DWORD PTR __Myfirst$[ebp]
  0008d	8b 4d 08	 mov	 ecx, DWORD PTR __Newvec$[ebp]
  00090	89 08		 mov	 DWORD PTR [eax], ecx

; 1682 :         _Mylast  = _Newvec + _Newsize;

  00092	8b 45 08	 mov	 eax, DWORD PTR __Newvec$[ebp]
  00095	03 45 0c	 add	 eax, DWORD PTR __Newsize$[ebp]
  00098	8b 4d f0	 mov	 ecx, DWORD PTR __Mylast$[ebp]
  0009b	89 01		 mov	 DWORD PTR [ecx], eax

; 1683 :         _Myend   = _Newvec + _Newcapacity;

  0009d	8b 45 08	 mov	 eax, DWORD PTR __Newvec$[ebp]
  000a0	03 45 10	 add	 eax, DWORD PTR __Newcapacity$[ebp]
  000a3	8b 4d ec	 mov	 ecx, DWORD PTR __Myend$[ebp]
  000a6	89 01		 mov	 DWORD PTR [ecx], eax

; 1684 :     }

  000a8	c9		 leave
  000a9	c2 0c 00	 ret	 12			; 0000000cH
?_Change_array@?$vector@EV?$allocator@E@std@@@std@@AAEXQAEII@Z ENDP ; std::vector<unsigned char,std::allocator<unsigned char> >::_Change_array
_TEXT	ENDS
; Function compile flags: /Odspy
; File C:\Program Files (x86)\Microsoft Visual Studio\2019\Community\VC\Tools\MSVC\14.28.29333\include\vector
; File C:\Program Files (x86)\Microsoft Visual Studio\2019\Community\VC\Tools\MSVC\14.28.29333\include\xmemory
; File C:\Program Files (x86)\Microsoft Visual Studio\2019\Community\VC\Tools\MSVC\14.28.29333\include\vector
; File C:\Program Files (x86)\Microsoft Visual Studio\2019\Community\VC\Tools\MSVC\14.28.29333\include\xmemory
; File C:\Program Files (x86)\Microsoft Visual Studio\2019\Community\VC\Tools\MSVC\14.28.29333\include\limits
; File C:\Program Files (x86)\Microsoft Visual Studio\2019\Community\VC\Tools\MSVC\14.28.29333\include\vector
; File C:\Program Files (x86)\Microsoft Visual Studio\2019\Community\VC\Tools\MSVC\14.28.29333\include\utility
; File C:\Program Files (x86)\Microsoft Visual Studio\2019\Community\VC\Tools\MSVC\14.28.29333\include\vector
;	COMDAT ?_Calculate_growth@?$vector@EV?$allocator@E@std@@@std@@ABEII@Z
_TEXT	SEGMENT
$T1 = -52						; size = 4
$T2 = -48						; size = 4
$T3 = -44						; size = 4
$T4 = -40						; size = 4
$T5 = -36						; size = 4
__Geometric$ = -32					; size = 4
__Max$ = -28						; size = 4
tv81 = -24						; size = 4
$T6 = -20						; size = 4
$T7 = -16						; size = 4
_this$ = -12						; size = 4
__My_data$8 = -8					; size = 4
__Oldcapacity$ = -4					; size = 4
__Newsize$ = 8						; size = 4
?_Calculate_growth@?$vector@EV?$allocator@E@std@@@std@@ABEII@Z PROC ; std::vector<unsigned char,std::allocator<unsigned char> >::_Calculate_growth, COMDAT
; _this$ = ecx

; 1615 :     size_type _Calculate_growth(const size_type _Newsize) const {

  00000	55		 push	 ebp
  00001	8b ec		 mov	 ebp, esp
  00003	83 ec 34	 sub	 esp, 52			; 00000034H
  00006	89 4d f4	 mov	 DWORD PTR _this$[ebp], ecx

; 1493 :         auto& _My_data = _Mypair._Myval2;

  00009	8b 45 f4	 mov	 eax, DWORD PTR _this$[ebp]
  0000c	89 45 f8	 mov	 DWORD PTR __My_data$8[ebp], eax

; 1494 :         return static_cast<size_type>(_My_data._Myend - _My_data._Myfirst);

  0000f	8b 45 f8	 mov	 eax, DWORD PTR __My_data$8[ebp]
  00012	8b 4d f8	 mov	 ecx, DWORD PTR __My_data$8[ebp]
  00015	8b 40 08	 mov	 eax, DWORD PTR [eax+8]
  00018	2b 01		 sub	 eax, DWORD PTR [ecx]
  0001a	89 45 fc	 mov	 DWORD PTR __Oldcapacity$[ebp], eax

; 1737 :         return _Mypair._Get_first();

  0001d	8b 45 f4	 mov	 eax, DWORD PTR _this$[ebp]
; File C:\Program Files (x86)\Microsoft Visual Studio\2019\Community\VC\Tools\MSVC\14.28.29333\include\xmemory

; 1351 :         return *this;

  00020	89 45 dc	 mov	 DWORD PTR $T5[ebp], eax
; File C:\Program Files (x86)\Microsoft Visual Studio\2019\Community\VC\Tools\MSVC\14.28.29333\include\vector

; 1737 :         return _Mypair._Get_first();

  00023	8b 45 dc	 mov	 eax, DWORD PTR $T5[ebp]
  00026	89 45 cc	 mov	 DWORD PTR $T1[ebp], eax
; File C:\Program Files (x86)\Microsoft Visual Studio\2019\Community\VC\Tools\MSVC\14.28.29333\include\xmemory

; 710  :         return static_cast<size_t>(-1) / sizeof(value_type);

  00029	83 4d f0 ff	 or	 DWORD PTR $T7[ebp], -1
; File C:\Program Files (x86)\Microsoft Visual Studio\2019\Community\VC\Tools\MSVC\14.28.29333\include\limits

; 557  :         return INT_MAX;

  0002d	c7 45 d8 ff ff
	ff 7f		 mov	 DWORD PTR $T4[ebp], 2147483647 ; 7fffffffH
; File C:\Program Files (x86)\Microsoft Visual Studio\2019\Community\VC\Tools\MSVC\14.28.29333\include\vector

; 1488 :         return (_STD min)(

  00034	8b 45 d8	 mov	 eax, DWORD PTR $T4[ebp]
  00037	89 45 ec	 mov	 DWORD PTR $T6[ebp], eax
; File C:\Program Files (x86)\Microsoft Visual Studio\2019\Community\VC\Tools\MSVC\14.28.29333\include\utility

; 68   :     return _Right < _Left ? _Right : _Left;

  0003a	8b 45 f0	 mov	 eax, DWORD PTR $T7[ebp]
  0003d	3b 45 ec	 cmp	 eax, DWORD PTR $T6[ebp]
  00040	73 08		 jae	 SHORT $LN25@Calculate_
  00042	8d 45 f0	 lea	 eax, DWORD PTR $T7[ebp]
  00045	89 45 e8	 mov	 DWORD PTR tv81[ebp], eax
  00048	eb 06		 jmp	 SHORT $LN26@Calculate_
$LN25@Calculate_:
  0004a	8d 45 ec	 lea	 eax, DWORD PTR $T6[ebp]
  0004d	89 45 e8	 mov	 DWORD PTR tv81[ebp], eax
$LN26@Calculate_:
  00050	8b 45 e8	 mov	 eax, DWORD PTR tv81[ebp]
  00053	89 45 d4	 mov	 DWORD PTR $T3[ebp], eax
  00056	8b 45 d4	 mov	 eax, DWORD PTR $T3[ebp]
  00059	89 45 d0	 mov	 DWORD PTR $T2[ebp], eax
; File C:\Program Files (x86)\Microsoft Visual Studio\2019\Community\VC\Tools\MSVC\14.28.29333\include\vector

; 1488 :         return (_STD min)(

  0005c	8b 45 d0	 mov	 eax, DWORD PTR $T2[ebp]
  0005f	8b 00		 mov	 eax, DWORD PTR [eax]
  00061	89 45 e4	 mov	 DWORD PTR __Max$[ebp], eax

; 1616 :         // given _Oldcapacity and _Newsize, calculate geometric growth
; 1617 :         const size_type _Oldcapacity = capacity();
; 1618 :         const auto _Max              = max_size();
; 1619 : 
; 1620 :         if (_Oldcapacity > _Max - _Oldcapacity / 2) {

  00064	8b 45 fc	 mov	 eax, DWORD PTR __Oldcapacity$[ebp]
  00067	d1 e8		 shr	 eax, 1
  00069	8b 4d e4	 mov	 ecx, DWORD PTR __Max$[ebp]
  0006c	2b c8		 sub	 ecx, eax
  0006e	39 4d fc	 cmp	 DWORD PTR __Oldcapacity$[ebp], ecx
  00071	76 05		 jbe	 SHORT $LN2@Calculate_

; 1621 :             return _Max; // geometric growth would overflow

  00073	8b 45 e4	 mov	 eax, DWORD PTR __Max$[ebp]
  00076	eb 1b		 jmp	 SHORT $LN1@Calculate_
$LN2@Calculate_:

; 1622 :         }
; 1623 : 
; 1624 :         const size_type _Geometric = _Oldcapacity + _Oldcapacity / 2;

  00078	8b 45 fc	 mov	 eax, DWORD PTR __Oldcapacity$[ebp]
  0007b	d1 e8		 shr	 eax, 1
  0007d	03 45 fc	 add	 eax, DWORD PTR __Oldcapacity$[ebp]
  00080	89 45 e0	 mov	 DWORD PTR __Geometric$[ebp], eax

; 1625 : 
; 1626 :         if (_Geometric < _Newsize) {

  00083	8b 45 e0	 mov	 eax, DWORD PTR __Geometric$[ebp]
  00086	3b 45 08	 cmp	 eax, DWORD PTR __Newsize$[ebp]
  00089	73 05		 jae	 SHORT $LN3@Calculate_

; 1627 :             return _Newsize; // geometric growth would be insufficient

  0008b	8b 45 08	 mov	 eax, DWORD PTR __Newsize$[ebp]
  0008e	eb 03		 jmp	 SHORT $LN1@Calculate_
$LN3@Calculate_:

; 1628 :         }
; 1629 : 
; 1630 :         return _Geometric; // geometric growth is sufficient

  00090	8b 45 e0	 mov	 eax, DWORD PTR __Geometric$[ebp]
$LN1@Calculate_:

; 1631 :     }

  00093	c9		 leave
  00094	c2 04 00	 ret	 4
?_Calculate_growth@?$vector@EV?$allocator@E@std@@@std@@ABEII@Z ENDP ; std::vector<unsigned char,std::allocator<unsigned char> >::_Calculate_growth
_TEXT	ENDS
; Function compile flags: /Odspy
; File C:\Program Files (x86)\Microsoft Visual Studio\2019\Community\VC\Tools\MSVC\14.28.29333\include\vector
; File C:\Program Files (x86)\Microsoft Visual Studio\2019\Community\VC\Tools\MSVC\14.28.29333\include\xmemory
; File C:\Program Files (x86)\Microsoft Visual Studio\2019\Community\VC\Tools\MSVC\14.28.29333\include\vector
;	COMDAT ?_Destroy@?$vector@EV?$allocator@E@std@@@std@@AAEXPAE0@Z
_TEXT	SEGMENT
$T1 = -12						; size = 4
$T2 = -8						; size = 4
_this$ = -4						; size = 4
__First$ = 8						; size = 4
__Last$ = 12						; size = 4
?_Destroy@?$vector@EV?$allocator@E@std@@@std@@AAEXPAE0@Z PROC ; std::vector<unsigned char,std::allocator<unsigned char> >::_Destroy, COMDAT
; _this$ = ecx

; 1611 :     void _Destroy(pointer _First, pointer _Last) { // destroy [_First, _Last) using allocator

  00000	55		 push	 ebp
  00001	8b ec		 mov	 ebp, esp
  00003	83 ec 0c	 sub	 esp, 12			; 0000000cH
  00006	89 4d fc	 mov	 DWORD PTR _this$[ebp], ecx

; 1733 :         return _Mypair._Get_first();

  00009	8b 45 fc	 mov	 eax, DWORD PTR _this$[ebp]
; File C:\Program Files (x86)\Microsoft Visual Studio\2019\Community\VC\Tools\MSVC\14.28.29333\include\xmemory

; 1347 :         return *this;

  0000c	89 45 f8	 mov	 DWORD PTR $T2[ebp], eax
; File C:\Program Files (x86)\Microsoft Visual Studio\2019\Community\VC\Tools\MSVC\14.28.29333\include\vector

; 1733 :         return _Mypair._Get_first();

  0000f	8b 45 f8	 mov	 eax, DWORD PTR $T2[ebp]
  00012	89 45 f4	 mov	 DWORD PTR $T1[ebp], eax

; 1612 :         _Destroy_range(_First, _Last, _Getal());

  00015	ff 75 f4	 push	 DWORD PTR $T1[ebp]
  00018	ff 75 0c	 push	 DWORD PTR __Last$[ebp]
  0001b	ff 75 08	 push	 DWORD PTR __First$[ebp]
  0001e	e8 00 00 00 00	 call	 ??$_Destroy_range@V?$allocator@E@std@@@std@@YAXPAEQAEAAV?$allocator@E@0@@Z ; std::_Destroy_range<std::allocator<unsigned char> >
  00023	83 c4 0c	 add	 esp, 12			; 0000000cH

; 1613 :     }

  00026	c9		 leave
  00027	c2 08 00	 ret	 8
?_Destroy@?$vector@EV?$allocator@E@std@@@std@@AAEXPAE0@Z ENDP ; std::vector<unsigned char,std::allocator<unsigned char> >::_Destroy
_TEXT	ENDS
; Function compile flags: /Odspy
; File C:\Program Files (x86)\Microsoft Visual Studio\2019\Community\VC\Tools\MSVC\14.28.29333\include\vector
;	COMDAT ??1?$vector@EV?$allocator@E@std@@@std@@QAE@XZ
_TEXT	SEGMENT
_this$ = -4						; size = 4
??1?$vector@EV?$allocator@E@std@@@std@@QAE@XZ PROC	; std::vector<unsigned char,std::allocator<unsigned char> >::~vector<unsigned char,std::allocator<unsigned char> >, COMDAT
; _this$ = ecx

; 672  :     ~vector() noexcept {

  00000	55		 push	 ebp
  00001	8b ec		 mov	 ebp, esp
  00003	51		 push	 ecx
  00004	89 4d fc	 mov	 DWORD PTR _this$[ebp], ecx

; 673  :         _Tidy();

  00007	8b 4d fc	 mov	 ecx, DWORD PTR _this$[ebp]
  0000a	e8 00 00 00 00	 call	 ?_Tidy@?$vector@EV?$allocator@E@std@@@std@@AAEXXZ ; std::vector<unsigned char,std::allocator<unsigned char> >::_Tidy

; 674  : #if _ITERATOR_DEBUG_LEVEL != 0
; 675  :         auto&& _Alproxy = _GET_PROXY_ALLOCATOR(_Alty, _Getal());
; 676  :         _Delete_plain_internal(_Alproxy, _STD exchange(_Mypair._Myval2._Myproxy, nullptr));
; 677  : #endif // _ITERATOR_DEBUG_LEVEL != 0
; 678  :     }

  0000f	c9		 leave
  00010	c3		 ret	 0
??1?$vector@EV?$allocator@E@std@@@std@@QAE@XZ ENDP	; std::vector<unsigned char,std::allocator<unsigned char> >::~vector<unsigned char,std::allocator<unsigned char> >
_TEXT	ENDS
; Function compile flags: /Odspy
; File C:\Program Files (x86)\Microsoft Visual Studio\2019\Community\VC\Tools\MSVC\14.28.29333\include\xmemory
;	COMDAT ?deallocate@?$allocator@E@std@@QAEXQAEI@Z
_TEXT	SEGMENT
_this$ = -4						; size = 4
__Ptr$ = 8						; size = 4
__Count$ = 12						; size = 4
?deallocate@?$allocator@E@std@@QAEXQAEI@Z PROC		; std::allocator<unsigned char>::deallocate, COMDAT
; _this$ = ecx

; 808  :     void deallocate(_Ty* const _Ptr, const size_t _Count) {

  00000	55		 push	 ebp
  00001	8b ec		 mov	 ebp, esp
  00003	51		 push	 ecx
  00004	89 4d fc	 mov	 DWORD PTR _this$[ebp], ecx

; 809  :         // no overflow check on the following multiply; we assume _Allocate did that check
; 810  :         _Deallocate<_New_alignof<_Ty>>(_Ptr, sizeof(_Ty) * _Count);

  00007	ff 75 0c	 push	 DWORD PTR __Count$[ebp]
  0000a	ff 75 08	 push	 DWORD PTR __Ptr$[ebp]
  0000d	e8 00 00 00 00	 call	 ??$_Deallocate@$07$0A@@std@@YAXPAXI@Z ; std::_Deallocate<8,0>
  00012	59		 pop	 ecx
  00013	59		 pop	 ecx

; 811  :     }

  00014	c9		 leave
  00015	c2 08 00	 ret	 8
?deallocate@?$allocator@E@std@@QAEXQAEI@Z ENDP		; std::allocator<unsigned char>::deallocate
_TEXT	ENDS
; Function compile flags: /Odspy
; File C:\Program Files (x86)\Microsoft Visual Studio\2019\Community\VC\Tools\MSVC\14.28.29333\include\xutility
; File C:\Program Files (x86)\Microsoft Visual Studio\2019\Community\VC\Tools\MSVC\14.28.29333\include\vector
; File C:\Program Files (x86)\Microsoft Visual Studio\2019\Community\VC\Tools\MSVC\14.28.29333\include\xstddef
; File C:\Program Files (x86)\Microsoft Visual Studio\2019\Community\VC\Tools\MSVC\14.28.29333\include\vector
; File C:\Program Files (x86)\Microsoft Visual Studio\2019\Community\VC\Tools\MSVC\14.28.29333\include\xstddef
; File C:\Program Files (x86)\Microsoft Visual Studio\2019\Community\VC\Tools\MSVC\14.28.29333\include\vector
; File C:\Program Files (x86)\Microsoft Visual Studio\2019\Community\VC\Tools\MSVC\14.28.29333\include\xutility
; File C:\Program Files (x86)\Microsoft Visual Studio\2019\Community\VC\Tools\MSVC\14.28.29333\include\vector
; File C:\Program Files (x86)\Microsoft Visual Studio\2019\Community\VC\Tools\MSVC\14.28.29333\include\xutility
;	COMDAT ??$find@V?$_Vector_iterator@V?$_Vector_val@U?$_Simple_types@_W@std@@@std@@@std@@_W@std@@YA?AV?$_Vector_iterator@V?$_Vector_val@U?$_Simple_types@_W@std@@@std@@@0@V10@V10@AB_W@Z
_TEXT	SEGMENT
__It$ = -40						; size = 4
$T1 = -36						; size = 4
$T2 = -32						; size = 4
$T3 = -28						; size = 4
$T4 = -24						; size = 4
__Ptr$5 = -20						; size = 4
$T6 = -16						; size = 4
__Ptr$7 = -12						; size = 4
__First$ = -8						; size = 4
$T8 = -1						; size = 1
___$ReturnUdt$ = 8					; size = 4
__First$ = 12						; size = 4
__Last$ = 16						; size = 4
__Val$ = 20						; size = 4
??$find@V?$_Vector_iterator@V?$_Vector_val@U?$_Simple_types@_W@std@@@std@@@std@@_W@std@@YA?AV?$_Vector_iterator@V?$_Vector_val@U?$_Simple_types@_W@std@@@std@@@0@V10@V10@AB_W@Z PROC ; std::find<std::_Vector_iterator<std::_Vector_val<std::_Simple_types<wchar_t> > >,wchar_t>, COMDAT

; 5478 : _NODISCARD _CONSTEXPR20 _InIt find(_InIt _First, const _InIt _Last, const _Ty& _Val) { // find first matching _Val

  00000	55		 push	 ebp
  00001	8b ec		 mov	 ebp, esp
  00003	83 ec 28	 sub	 esp, 40			; 00000028H
; File C:\Program Files (x86)\Microsoft Visual Studio\2019\Community\VC\Tools\MSVC\14.28.29333\include\vector

; 310  :         return _Unfancy(this->_Ptr);

  00006	8b 45 10	 mov	 eax, DWORD PTR __Last$[ebp]
  00009	89 45 f4	 mov	 DWORD PTR __Ptr$7[ebp], eax
; File C:\Program Files (x86)\Microsoft Visual Studio\2019\Community\VC\Tools\MSVC\14.28.29333\include\xstddef

; 289  :     return _Ptr;

  0000c	8b 45 f4	 mov	 eax, DWORD PTR __Ptr$7[ebp]
  0000f	89 45 f0	 mov	 DWORD PTR $T6[ebp], eax
; File C:\Program Files (x86)\Microsoft Visual Studio\2019\Community\VC\Tools\MSVC\14.28.29333\include\vector

; 310  :         return _Unfancy(this->_Ptr);

  00012	8b 45 f0	 mov	 eax, DWORD PTR $T6[ebp]
  00015	89 45 e0	 mov	 DWORD PTR $T2[ebp], eax
  00018	8b 45 0c	 mov	 eax, DWORD PTR __First$[ebp]
  0001b	89 45 ec	 mov	 DWORD PTR __Ptr$5[ebp], eax
; File C:\Program Files (x86)\Microsoft Visual Studio\2019\Community\VC\Tools\MSVC\14.28.29333\include\xstddef

; 289  :     return _Ptr;

  0001e	8b 45 ec	 mov	 eax, DWORD PTR __Ptr$5[ebp]
  00021	89 45 e8	 mov	 DWORD PTR $T4[ebp], eax
; File C:\Program Files (x86)\Microsoft Visual Studio\2019\Community\VC\Tools\MSVC\14.28.29333\include\vector

; 310  :         return _Unfancy(this->_Ptr);

  00024	8b 45 e8	 mov	 eax, DWORD PTR $T4[ebp]
  00027	89 45 e4	 mov	 DWORD PTR $T3[ebp], eax
; File C:\Program Files (x86)\Microsoft Visual Studio\2019\Community\VC\Tools\MSVC\14.28.29333\include\xutility

; 5474 :     return _Find_unchecked1(_First, _Last, _Val, _Memchr_opt{});

  0002a	33 c0		 xor	 eax, eax
  0002c	88 45 ff	 mov	 BYTE PTR $T8[ebp], al
  0002f	8b 45 e4	 mov	 eax, DWORD PTR $T3[ebp]
  00032	89 45 f8	 mov	 DWORD PTR __First$[ebp], eax

; 5439 :     for (; _First != _Last; ++_First) {

  00035	eb 08		 jmp	 SHORT $LN26@find
$LN24@find:
  00037	8b 45 f8	 mov	 eax, DWORD PTR __First$[ebp]
  0003a	40		 inc	 eax
  0003b	40		 inc	 eax
  0003c	89 45 f8	 mov	 DWORD PTR __First$[ebp], eax
$LN26@find:
  0003f	8b 45 f8	 mov	 eax, DWORD PTR __First$[ebp]
  00042	3b 45 e0	 cmp	 eax, DWORD PTR $T2[ebp]
  00045	74 14		 je	 SHORT $LN21@find

; 5440 :         if (*_First == _Val) {

  00047	8b 45 f8	 mov	 eax, DWORD PTR __First$[ebp]
  0004a	0f b7 00	 movzx	 eax, WORD PTR [eax]
  0004d	8b 4d 14	 mov	 ecx, DWORD PTR __Val$[ebp]
  00050	0f b7 09	 movzx	 ecx, WORD PTR [ecx]
  00053	3b c1		 cmp	 eax, ecx
  00055	75 02		 jne	 SHORT $LN27@find

; 5441 :             break;

  00057	eb 02		 jmp	 SHORT $LN21@find
$LN27@find:

; 5442 :         }
; 5443 :     }

  00059	eb dc		 jmp	 SHORT $LN24@find
$LN21@find:

; 5479 :     _Adl_verify_range(_First, _Last);
; 5480 :     _Seek_wrapped(_First, _Find_unchecked(_Get_unwrapped(_First), _Get_unwrapped(_Last), _Val));

  0005b	8b 45 f8	 mov	 eax, DWORD PTR __First$[ebp]
  0005e	89 45 dc	 mov	 DWORD PTR $T1[ebp], eax

; 1490 :         _It._Seek_to(static_cast<_UIter&&>(_UIt));

  00061	8b 45 dc	 mov	 eax, DWORD PTR $T1[ebp]
  00064	89 45 d8	 mov	 DWORD PTR __It$[ebp], eax
; File C:\Program Files (x86)\Microsoft Visual Studio\2019\Community\VC\Tools\MSVC\14.28.29333\include\vector

; 195  :         _Ptr = _Refancy<_Tptr>(const_cast<value_type*>(_It));

  00067	ff 75 d8	 push	 DWORD PTR __It$[ebp]
  0006a	e8 00 00 00 00	 call	 ??$_Refancy@PA_W$0A@@std@@YAPA_WPA_W@Z ; std::_Refancy<wchar_t *,0>
  0006f	59		 pop	 ecx
  00070	89 45 0c	 mov	 DWORD PTR __First$[ebp], eax
; File C:\Program Files (x86)\Microsoft Visual Studio\2019\Community\VC\Tools\MSVC\14.28.29333\include\xutility

; 5481 :     return _First;

  00073	8b 45 08	 mov	 eax, DWORD PTR ___$ReturnUdt$[ebp]
  00076	8b 4d 0c	 mov	 ecx, DWORD PTR __First$[ebp]
  00079	89 08		 mov	 DWORD PTR [eax], ecx
  0007b	8b 45 08	 mov	 eax, DWORD PTR ___$ReturnUdt$[ebp]

; 5482 : }

  0007e	c9		 leave
  0007f	c3		 ret	 0
??$find@V?$_Vector_iterator@V?$_Vector_val@U?$_Simple_types@_W@std@@@std@@@std@@_W@std@@YA?AV?$_Vector_iterator@V?$_Vector_val@U?$_Simple_types@_W@std@@@std@@@0@V10@V10@AB_W@Z ENDP ; std::find<std::_Vector_iterator<std::_Vector_val<std::_Simple_types<wchar_t> > >,wchar_t>
_TEXT	ENDS
; Function compile flags: /Odspy
; File D:\Metin2 Server Files\mainline\SRC_2014\Metin2Client\EterLib\IME.cpp
;	COMDAT ??__Fg_disableCicero@@YAXXZ
text$yd	SEGMENT
__$EHRec$ = -12						; size = 12
??__Fg_disableCicero@@YAXXZ PROC			; `dynamic atexit destructor for 'g_disableCicero'', COMDAT
  00000	55		 push	 ebp
  00001	8b ec		 mov	 ebp, esp
  00003	6a ff		 push	 -1
  00005	68 00 00 00 00	 push	 __ehhandler$??__Fg_disableCicero@@YAXXZ
  0000a	64 a1 00 00 00
	00		 mov	 eax, DWORD PTR fs:0
  00010	50		 push	 eax
  00011	a1 00 00 00 00	 mov	 eax, DWORD PTR ___security_cookie
  00016	33 c5		 xor	 eax, ebp
  00018	50		 push	 eax
  00019	8d 45 f4	 lea	 eax, DWORD PTR __$EHRec$[ebp]
  0001c	64 a3 00 00 00
	00		 mov	 DWORD PTR fs:0, eax

; 221  : 	{

  00022	83 65 fc 00	 and	 DWORD PTR __$EHRec$[ebp+8], 0

; 222  : 		Uninitialize();

  00026	b9 00 00 00 00	 mov	 ecx, OFFSET ?g_disableCicero@@3VCDisableCicero@@A
  0002b	e8 00 00 00 00	 call	 ?Uninitialize@CDisableCicero@@QAEXXZ ; CDisableCicero::Uninitialize

; 223  : 	}

  00030	83 4d fc ff	 or	 DWORD PTR __$EHRec$[ebp+8], -1
  00034	8b 4d f4	 mov	 ecx, DWORD PTR __$EHRec$[ebp]
  00037	64 89 0d 00 00
	00 00		 mov	 DWORD PTR fs:0, ecx
  0003e	59		 pop	 ecx
  0003f	c9		 leave
  00040	c3		 ret	 0
  00041	cc		 int	 3
  00042	cc		 int	 3
  00043	cc		 int	 3
  00044	cc		 int	 3
  00045	cc		 int	 3
text$yd	ENDS
;	COMDAT text$x
text$x	SEGMENT
__ehhandler$??__Fg_disableCicero@@YAXXZ:
  00000	90		 npad	 1
  00001	90		 npad	 1
  00002	8b 54 24 08	 mov	 edx, DWORD PTR [esp+8]
  00006	8d 42 0c	 lea	 eax, DWORD PTR [edx+12]
  00009	8b 4a fc	 mov	 ecx, DWORD PTR [edx-4]
  0000c	33 c8		 xor	 ecx, eax
  0000e	e8 00 00 00 00	 call	 @__security_check_cookie@4
  00013	b8 00 00 00 00	 mov	 eax, OFFSET __ehfuncinfo$??__Fg_disableCicero@@YAXXZ
  00018	e9 00 00 00 00	 jmp	 ___CxxFrameHandler3
text$x	ENDS
??__Fg_disableCicero@@YAXXZ ENDP			; `dynamic atexit destructor for 'g_disableCicero''
; Function compile flags: /Odspy
; File D:\Metin2 Server Files\mainline\SRC_2014\Metin2Client\EterLib\IME.cpp
;	COMDAT ??__Eg_disableCicero@@YAXXZ
text$di	SEGMENT
??__Eg_disableCicero@@YAXXZ PROC			; `dynamic initializer for 'g_disableCicero'', COMDAT

; 272  : static CDisableCicero g_disableCicero;

  00000	55		 push	 ebp
  00001	8b ec		 mov	 ebp, esp

; 217  : 	CDisableCicero() : m_ptim( NULL ), m_bComInit( false )

  00003	83 25 00 00 00
	00 00		 and	 DWORD PTR ?g_disableCicero@@3VCDisableCicero@@A, 0
  0000a	c6 05 04 00 00
	00 00		 mov	 BYTE PTR ?g_disableCicero@@3VCDisableCicero@@A+4, 0

; 272  : static CDisableCicero g_disableCicero;

  00011	68 00 00 00 00	 push	 OFFSET ??__Fg_disableCicero@@YAXXZ ; `dynamic atexit destructor for 'g_disableCicero''
  00016	e8 00 00 00 00	 call	 _atexit
  0001b	59		 pop	 ecx
  0001c	5d		 pop	 ebp
  0001d	c3		 ret	 0
??__Eg_disableCicero@@YAXXZ ENDP			; `dynamic initializer for 'g_disableCicero''
text$di	ENDS
; Function compile flags: /Odspy
; File D:\Metin2 Server Files\mainline\SRC_2014\Metin2Client\EterLib\IME.cpp
;	COMDAT ?Uninitialize@CDisableCicero@@QAEXXZ
_TEXT	SEGMENT
_this$ = -4						; size = 4
?Uninitialize@CDisableCicero@@QAEXXZ PROC		; CDisableCicero::Uninitialize, COMDAT
; _this$ = ecx

; 243  : 	{

  00000	55		 push	 ebp
  00001	8b ec		 mov	 ebp, esp
  00003	51		 push	 ecx
  00004	89 4d fc	 mov	 DWORD PTR _this$[ebp], ecx

; 244  : 		if ( m_ptim )

  00007	8b 45 fc	 mov	 eax, DWORD PTR _this$[ebp]
  0000a	83 38 00	 cmp	 DWORD PTR [eax], 0
  0000d	74 15		 je	 SHORT $LN2@Uninitiali

; 245  : 		{
; 246  : 			m_ptim->Release();

  0000f	8b 45 fc	 mov	 eax, DWORD PTR _this$[ebp]
  00012	8b 00		 mov	 eax, DWORD PTR [eax]
  00014	8b 4d fc	 mov	 ecx, DWORD PTR _this$[ebp]
  00017	8b 00		 mov	 eax, DWORD PTR [eax]
  00019	ff 31		 push	 DWORD PTR [ecx]
  0001b	ff 50 08	 call	 DWORD PTR [eax+8]

; 247  : 			m_ptim = NULL;

  0001e	8b 45 fc	 mov	 eax, DWORD PTR _this$[ebp]
  00021	83 20 00	 and	 DWORD PTR [eax], 0
$LN2@Uninitiali:

; 248  : 		}
; 249  : 		if ( m_bComInit )

  00024	8b 45 fc	 mov	 eax, DWORD PTR _this$[ebp]
  00027	0f b6 40 04	 movzx	 eax, BYTE PTR [eax+4]
  0002b	85 c0		 test	 eax, eax
  0002d	74 06		 je	 SHORT $LN3@Uninitiali

; 250  : 			CoUninitialize();

  0002f	ff 15 00 00 00
	00		 call	 DWORD PTR __imp__CoUninitialize@0
$LN3@Uninitiali:

; 251  : 		m_bComInit = false;

  00035	8b 45 fc	 mov	 eax, DWORD PTR _this$[ebp]
  00038	c6 40 04 00	 mov	 BYTE PTR [eax+4], 0

; 252  : 	}

  0003c	c9		 leave
  0003d	c3		 ret	 0
?Uninitialize@CDisableCicero@@QAEXXZ ENDP		; CDisableCicero::Uninitialize
_TEXT	ENDS
; Function compile flags: /Odspy
; File D:\Metin2 Server Files\mainline\SRC_2014\Metin2Client\EterLib\IME.cpp
;	COMDAT ?Initialize@CDisableCicero@@QAEXXZ
_TEXT	SEGMENT
_hr$ = -8						; size = 4
_this$ = -4						; size = 4
?Initialize@CDisableCicero@@QAEXXZ PROC			; CDisableCicero::Initialize, COMDAT
; _this$ = ecx

; 225  : 	{

  00000	55		 push	 ebp
  00001	8b ec		 mov	 ebp, esp
  00003	51		 push	 ecx
  00004	51		 push	 ecx
  00005	89 4d fc	 mov	 DWORD PTR _this$[ebp], ecx

; 226  : 		if ( m_bComInit )

  00008	8b 45 fc	 mov	 eax, DWORD PTR _this$[ebp]
  0000b	0f b6 40 04	 movzx	 eax, BYTE PTR [eax+4]
  0000f	85 c0		 test	 eax, eax
  00011	74 02		 je	 SHORT $LN2@Initialize

; 227  : 		{
; 228  : 			return;

  00013	eb 34		 jmp	 SHORT $LN1@Initialize
$LN2@Initialize:

; 229  : 		}
; 230  : 		HRESULT hr;
; 231  : 		hr = CoInitializeEx( NULL, COINIT_APARTMENTTHREADED );

  00015	6a 02		 push	 2
  00017	6a 00		 push	 0
  00019	ff 15 00 00 00
	00		 call	 DWORD PTR __imp__CoInitializeEx@8
  0001f	89 45 f8	 mov	 DWORD PTR _hr$[ebp], eax

; 232  : 	    if ( SUCCEEDED( hr ) )

  00022	83 7d f8 00	 cmp	 DWORD PTR _hr$[ebp], 0
  00026	7c 21		 jl	 SHORT $LN1@Initialize

; 233  : 		{
; 234  : 			m_bComInit = true;

  00028	8b 45 fc	 mov	 eax, DWORD PTR _this$[ebp]
  0002b	c6 40 04 01	 mov	 BYTE PTR [eax+4], 1

; 235  : 			hr = CoCreateInstance( CLSID_TF_ThreadMgr,

  0002f	ff 75 fc	 push	 DWORD PTR _this$[ebp]
  00032	68 00 00 00 00	 push	 OFFSET __GUID_aa80e801_2021_11d2_93e0_0060b067b86e
  00037	6a 01		 push	 1
  00039	6a 00		 push	 0
  0003b	68 00 00 00 00	 push	 OFFSET _CLSID_TF_ThreadMgr
  00040	ff 15 00 00 00
	00		 call	 DWORD PTR __imp__CoCreateInstance@20
  00046	89 45 f8	 mov	 DWORD PTR _hr$[ebp], eax
$LN1@Initialize:

; 236  : 				NULL,
; 237  : 				CLSCTX_INPROC_SERVER,
; 238  : 				__uuidof(ITfThreadMgr),
; 239  : 				(void**)&m_ptim );
; 240  : 		}
; 241  : 	}

  00049	c9		 leave
  0004a	c3		 ret	 0
?Initialize@CDisableCicero@@QAEXXZ ENDP			; CDisableCicero::Initialize
_TEXT	ENDS
; Function compile flags: /Odspy
; File D:\Metin2 Server Files\mainline\SRC_2014\Metin2Client\EterLib\IME.cpp
;	COMDAT ?EnableUiUpdates@CTsfUiLessMode@@SAX_N@Z
_TEXT	SEGMENT
_hr$ = -8						; size = 4
_srcTm$ = -4						; size = 4
_bEnable$ = 8						; size = 1
?EnableUiUpdates@CTsfUiLessMode@@SAX_N@Z PROC		; CTsfUiLessMode::EnableUiUpdates, COMDAT

; 2006 : {

  00000	55		 push	 ebp
  00001	8b ec		 mov	 ebp, esp
  00003	51		 push	 ecx
  00004	51		 push	 ecx

; 2007 : 	if ( m_tm == NULL ||
; 2008 : 		 ( bEnable && m_dwUIElementSinkCookie != TF_INVALID_COOKIE )  ||

  00005	83 3d 00 00 00
	00 00		 cmp	 DWORD PTR ?m_tm@CTsfUiLessMode@@1PAUITfThreadMgrEx@@A, 0 ; CTsfUiLessMode::m_tm
  0000c	74 22		 je	 SHORT $LN3@EnableUiUp
  0000e	0f b6 45 08	 movzx	 eax, BYTE PTR _bEnable$[ebp]
  00012	85 c0		 test	 eax, eax
  00014	74 09		 je	 SHORT $LN4@EnableUiUp
  00016	83 3d 00 00 00
	00 ff		 cmp	 DWORD PTR ?m_dwUIElementSinkCookie@CTsfUiLessMode@@1KA, -1 ; CTsfUiLessMode::m_dwUIElementSinkCookie
  0001d	75 11		 jne	 SHORT $LN3@EnableUiUp
$LN4@EnableUiUp:
  0001f	0f b6 45 08	 movzx	 eax, BYTE PTR _bEnable$[ebp]
  00023	85 c0		 test	 eax, eax
  00025	75 0b		 jne	 SHORT $LN2@EnableUiUp
  00027	83 3d 00 00 00
	00 ff		 cmp	 DWORD PTR ?m_dwUIElementSinkCookie@CTsfUiLessMode@@1KA, -1 ; CTsfUiLessMode::m_dwUIElementSinkCookie
  0002e	75 02		 jne	 SHORT $LN2@EnableUiUp
$LN3@EnableUiUp:

; 2009 : 		 ( !bEnable && m_dwUIElementSinkCookie == TF_INVALID_COOKIE ) )
; 2010 : 	{
; 2011 : 		return;

  00030	eb 7a		 jmp	 SHORT $LN1@EnableUiUp
$LN2@EnableUiUp:

; 2012 : 	}
; 2013 : 	ITfSource *srcTm = NULL;

  00032	83 65 fc 00	 and	 DWORD PTR _srcTm$[ebp], 0

; 2014 : 	HRESULT hr = E_FAIL;

  00036	c7 45 f8 05 40
	00 80		 mov	 DWORD PTR _hr$[ebp], -2147467259 ; 80004005H

; 2015 : 	if (SUCCEEDED(hr = m_tm->QueryInterface(__uuidof(ITfSource), (void **)&srcTm)))

  0003d	8d 45 fc	 lea	 eax, DWORD PTR _srcTm$[ebp]
  00040	50		 push	 eax
  00041	68 00 00 00 00	 push	 OFFSET __GUID_4ea48a35_60ae_446f_8fd6_e6a8d82459f7
  00046	a1 00 00 00 00	 mov	 eax, DWORD PTR ?m_tm@CTsfUiLessMode@@1PAUITfThreadMgrEx@@A ; CTsfUiLessMode::m_tm
  0004b	8b 00		 mov	 eax, DWORD PTR [eax]
  0004d	ff 35 00 00 00
	00		 push	 DWORD PTR ?m_tm@CTsfUiLessMode@@1PAUITfThreadMgrEx@@A ; CTsfUiLessMode::m_tm
  00053	ff 10		 call	 DWORD PTR [eax]
  00055	89 45 f8	 mov	 DWORD PTR _hr$[ebp], eax
  00058	83 7d f8 00	 cmp	 DWORD PTR _hr$[ebp], 0
  0005c	7c 4e		 jl	 SHORT $LN1@EnableUiUp

; 2016 : 	{
; 2017 : 		if ( bEnable )

  0005e	0f b6 45 08	 movzx	 eax, BYTE PTR _bEnable$[ebp]
  00062	85 c0		 test	 eax, eax
  00064	74 20		 je	 SHORT $LN6@EnableUiUp

; 2018 : 		{
; 2019 : 			hr = srcTm->AdviseSink(__uuidof(ITfUIElementSink), (ITfUIElementSink*)m_TsfSink, &m_dwUIElementSinkCookie);

  00066	68 00 00 00 00	 push	 OFFSET ?m_dwUIElementSinkCookie@CTsfUiLessMode@@1KA ; CTsfUiLessMode::m_dwUIElementSinkCookie
  0006b	ff 35 00 00 00
	00		 push	 DWORD PTR ?m_TsfSink@CTsfUiLessMode@@1PAVCUIElementSink@1@A ; CTsfUiLessMode::m_TsfSink
  00071	68 00 00 00 00	 push	 OFFSET __GUID_ea1ea136_19df_11d7_a6d2_00065b84435c
  00076	8b 45 fc	 mov	 eax, DWORD PTR _srcTm$[ebp]
  00079	8b 00		 mov	 eax, DWORD PTR [eax]
  0007b	ff 75 fc	 push	 DWORD PTR _srcTm$[ebp]
  0007e	ff 50 0c	 call	 DWORD PTR [eax+12]
  00081	89 45 f8	 mov	 DWORD PTR _hr$[ebp], eax

; 2020 : 		}

  00084	eb 1b		 jmp	 SHORT $LN7@EnableUiUp
$LN6@EnableUiUp:

; 2021 : 		else
; 2022 : 		{
; 2023 : 			hr = srcTm->UnadviseSink(m_dwUIElementSinkCookie);

  00086	ff 35 00 00 00
	00		 push	 DWORD PTR ?m_dwUIElementSinkCookie@CTsfUiLessMode@@1KA ; CTsfUiLessMode::m_dwUIElementSinkCookie
  0008c	8b 45 fc	 mov	 eax, DWORD PTR _srcTm$[ebp]
  0008f	8b 00		 mov	 eax, DWORD PTR [eax]
  00091	ff 75 fc	 push	 DWORD PTR _srcTm$[ebp]
  00094	ff 50 10	 call	 DWORD PTR [eax+16]
  00097	89 45 f8	 mov	 DWORD PTR _hr$[ebp], eax

; 2024 : 			m_dwUIElementSinkCookie = TF_INVALID_COOKIE;

  0009a	83 0d 00 00 00
