; Listing generated by Microsoft (R) Optimizing Compiler Version 19.28.29335.0 

	TITLE	D:\Metin2 Server Files\mainline\SRC_2014\Metin2Client\EterLib\Input.cpp
	.686P
	.XMM
	include listing.inc
	.model	flat

INCLUDELIB LIBCMT
INCLUDELIB OLDNAMES

PUBLIC	?ms_lpDI@CInputDevice@@1PAUIDirectInput8A@@A	; CInputDevice::ms_lpDI
PUBLIC	?ms_lpKeyboard@CInputKeyboard@@1PAUIDirectInputDevice8A@@A ; CInputKeyboard::ms_lpKeyboard
PUBLIC	?ms_bPressedKey@CInputKeyboard@@1PA_NA		; CInputKeyboard::ms_bPressedKey
PUBLIC	?ms_diks@CInputKeyboard@@1PADA			; CInputKeyboard::ms_diks
_BSS	SEGMENT
?ms_lpDI@CInputDevice@@1PAUIDirectInput8A@@A DD 01H DUP (?) ; CInputDevice::ms_lpDI
?ms_lpKeyboard@CInputKeyboard@@1PAUIDirectInputDevice8A@@A DD 01H DUP (?) ; CInputKeyboard::ms_lpKeyboard
?ms_bPressedKey@CInputKeyboard@@1PA_NA DB 0100H DUP (?)	; CInputKeyboard::ms_bPressedKey
?ms_diks@CInputKeyboard@@1PADA DB 0100H DUP (?)		; CInputKeyboard::ms_diks
_BSS	ENDS
PUBLIC	??0CInputDevice@@QAE@XZ				; CInputDevice::CInputDevice
PUBLIC	??1CInputDevice@@UAE@XZ				; CInputDevice::~CInputDevice
PUBLIC	?CreateDevice@CInputDevice@@QAEJPAUHWND__@@@Z	; CInputDevice::CreateDevice
PUBLIC	??_GCInputDevice@@UAEPAXI@Z			; CInputDevice::`scalar deleting destructor'
PUBLIC	??0CInputKeyboard@@QAE@XZ			; CInputKeyboard::CInputKeyboard
PUBLIC	??1CInputKeyboard@@UAE@XZ			; CInputKeyboard::~CInputKeyboard
PUBLIC	?InitializeKeyboard@CInputKeyboard@@QAE_NPAUHWND__@@@Z ; CInputKeyboard::InitializeKeyboard
PUBLIC	?UpdateKeyboard@CInputKeyboard@@QAEXXZ		; CInputKeyboard::UpdateKeyboard
PUBLIC	?ResetKeyboard@CInputKeyboard@@QAEXXZ		; CInputKeyboard::ResetKeyboard
PUBLIC	?IsPressed@CInputKeyboard@@QAE_NH@Z		; CInputKeyboard::IsPressed
PUBLIC	?KeyDown@CInputKeyboard@@QAEXH@Z		; CInputKeyboard::KeyDown
PUBLIC	?KeyUp@CInputKeyboard@@QAEXH@Z			; CInputKeyboard::KeyUp
PUBLIC	??_GCInputKeyboard@@UAEPAXI@Z			; CInputKeyboard::`scalar deleting destructor'
PUBLIC	??_7CInputDevice@@6B@				; CInputDevice::`vftable'
PUBLIC	??_7CInputKeyboard@@6B@				; CInputKeyboard::`vftable'
PUBLIC	??_R4CInputDevice@@6B@				; CInputDevice::`RTTI Complete Object Locator'
PUBLIC	??_R0?AVCInputDevice@@@8			; CInputDevice `RTTI Type Descriptor'
PUBLIC	??_R3CInputDevice@@8				; CInputDevice::`RTTI Class Hierarchy Descriptor'
PUBLIC	??_R2CInputDevice@@8				; CInputDevice::`RTTI Base Class Array'
PUBLIC	??_R1A@?0A@EA@CInputDevice@@8			; CInputDevice::`RTTI Base Class Descriptor at (0,-1,0,64)'
PUBLIC	??_R4CInputKeyboard@@6B@			; CInputKeyboard::`RTTI Complete Object Locator'
PUBLIC	??_R0?AVCInputKeyboard@@@8			; CInputKeyboard `RTTI Type Descriptor'
PUBLIC	??_R3CInputKeyboard@@8				; CInputKeyboard::`RTTI Class Hierarchy Descriptor'
PUBLIC	??_R2CInputKeyboard@@8				; CInputKeyboard::`RTTI Base Class Array'
PUBLIC	??_R1A@?0A@EA@CInputKeyboard@@8			; CInputKeyboard::`RTTI Base Class Descriptor at (0,-1,0,64)'
EXTRN	__purecall:PROC
EXTRN	??3@YAXPAXI@Z:PROC				; operator delete
EXTRN	___report_rangecheckfailure:PROC
EXTRN	_memset:PROC
EXTRN	__imp__GetModuleHandleA@4:PROC
EXTRN	_DirectInput8Create@20:PROC
EXTRN	??_ECInputDevice@@UAEPAXI@Z:PROC		; CInputDevice::`vector deleting destructor'
EXTRN	??_ECInputKeyboard@@UAEPAXI@Z:PROC		; CInputKeyboard::`vector deleting destructor'
EXTRN	@__security_check_cookie@4:PROC
EXTRN	___CxxFrameHandler3:PROC
EXTRN	_IID_IDirectInput8A:BYTE
EXTRN	_GUID_SysKeyboard:BYTE
EXTRN	_c_dfDIKeyboard:BYTE
EXTRN	??_7type_info@@6B@:QWORD			; type_info::`vftable'
EXTRN	___security_cookie:DWORD
;	COMDAT ??_R1A@?0A@EA@CInputKeyboard@@8
rdata$r	SEGMENT
??_R1A@?0A@EA@CInputKeyboard@@8 DD FLAT:??_R0?AVCInputKeyboard@@@8 ; CInputKeyboard::`RTTI Base Class Descriptor at (0,-1,0,64)'
	DD	01H
	DD	00H
	DD	0ffffffffH
	DD	00H
	DD	040H
	DD	FLAT:??_R3CInputKeyboard@@8
rdata$r	ENDS
;	COMDAT ??_R2CInputKeyboard@@8
rdata$r	SEGMENT
??_R2CInputKeyboard@@8 DD FLAT:??_R1A@?0A@EA@CInputKeyboard@@8 ; CInputKeyboard::`RTTI Base Class Array'
	DD	FLAT:??_R1A@?0A@EA@CInputDevice@@8
rdata$r	ENDS
;	COMDAT ??_R3CInputKeyboard@@8
rdata$r	SEGMENT
??_R3CInputKeyboard@@8 DD 00H				; CInputKeyboard::`RTTI Class Hierarchy Descriptor'
	DD	00H
	DD	02H
	DD	FLAT:??_R2CInputKeyboard@@8
rdata$r	ENDS
;	COMDAT ??_R0?AVCInputKeyboard@@@8
data$rs	SEGMENT
??_R0?AVCInputKeyboard@@@8 DD FLAT:??_7type_info@@6B@	; CInputKeyboard `RTTI Type Descriptor'
	DD	00H
	DB	'.?AVCInputKeyboard@@', 00H
data$rs	ENDS
;	COMDAT ??_R4CInputKeyboard@@6B@
rdata$r	SEGMENT
??_R4CInputKeyboard@@6B@ DD 00H				; CInputKeyboard::`RTTI Complete Object Locator'
	DD	00H
	DD	00H
	DD	FLAT:??_R0?AVCInputKeyboard@@@8
	DD	FLAT:??_R3CInputKeyboard@@8
rdata$r	ENDS
;	COMDAT ??_R1A@?0A@EA@CInputDevice@@8
rdata$r	SEGMENT
??_R1A@?0A@EA@CInputDevice@@8 DD FLAT:??_R0?AVCInputDevice@@@8 ; CInputDevice::`RTTI Base Class Descriptor at (0,-1,0,64)'
	DD	00H
	DD	00H
	DD	0ffffffffH
	DD	00H
	DD	040H
	DD	FLAT:??_R3CInputDevice@@8
rdata$r	ENDS
;	COMDAT ??_R2CInputDevice@@8
rdata$r	SEGMENT
??_R2CInputDevice@@8 DD FLAT:??_R1A@?0A@EA@CInputDevice@@8 ; CInputDevice::`RTTI Base Class Array'
rdata$r	ENDS
;	COMDAT ??_R3CInputDevice@@8
rdata$r	SEGMENT
??_R3CInputDevice@@8 DD 00H				; CInputDevice::`RTTI Class Hierarchy Descriptor'
	DD	00H
	DD	01H
	DD	FLAT:??_R2CInputDevice@@8
rdata$r	ENDS
;	COMDAT ??_R0?AVCInputDevice@@@8
data$rs	SEGMENT
??_R0?AVCInputDevice@@@8 DD FLAT:??_7type_info@@6B@	; CInputDevice `RTTI Type Descriptor'
	DD	00H
	DB	'.?AVCInputDevice@@', 00H
data$rs	ENDS
;	COMDAT ??_R4CInputDevice@@6B@
rdata$r	SEGMENT
??_R4CInputDevice@@6B@ DD 00H				; CInputDevice::`RTTI Complete Object Locator'
	DD	00H
	DD	00H
	DD	FLAT:??_R0?AVCInputDevice@@@8
	DD	FLAT:??_R3CInputDevice@@8
rdata$r	ENDS
;	COMDAT ??_7CInputKeyboard@@6B@
CONST	SEGMENT
??_7CInputKeyboard@@6B@ DD FLAT:??_R4CInputKeyboard@@6B@ ; CInputKeyboard::`vftable'
	DD	FLAT:??_ECInputKeyboard@@UAEPAXI@Z
	DD	FLAT:__purecall
	DD	FLAT:__purecall
CONST	ENDS
;	COMDAT ??_7CInputDevice@@6B@
CONST	SEGMENT
??_7CInputDevice@@6B@ DD FLAT:??_R4CInputDevice@@6B@	; CInputDevice::`vftable'
	DD	FLAT:??_ECInputDevice@@UAEPAXI@Z
CONST	ENDS
;	COMDAT xdata$x
xdata$x	SEGMENT
__ehfuncinfo$??1CInputKeyboard@@UAE@XZ DD 019930522H
	DD	00H
	DD	00H
	DD	2 DUP(00H)
	DD	2 DUP(00H)
	DD	00H
	DD	05H
xdata$x	ENDS
;	COMDAT xdata$x
xdata$x	SEGMENT
__unwindtable$??0CInputKeyboard@@QAE@XZ DD 0ffffffffH
	DD	FLAT:__unwindfunclet$??0CInputKeyboard@@QAE@XZ$0
__ehfuncinfo$??0CInputKeyboard@@QAE@XZ DD 019930522H
	DD	01H
	DD	FLAT:__unwindtable$??0CInputKeyboard@@QAE@XZ
	DD	2 DUP(00H)
	DD	2 DUP(00H)
	DD	00H
	DD	01H
xdata$x	ENDS
;	COMDAT xdata$x
xdata$x	SEGMENT
__ehfuncinfo$??1CInputDevice@@UAE@XZ DD 019930522H
	DD	00H
	DD	00H
	DD	2 DUP(00H)
	DD	2 DUP(00H)
	DD	00H
	DD	05H
xdata$x	ENDS
; Function compile flags: /Odspy
;	COMDAT ??_GCInputKeyboard@@UAEPAXI@Z
_TEXT	SEGMENT
_this$ = -4						; size = 4
___flags$ = 8						; size = 4
??_GCInputKeyboard@@UAEPAXI@Z PROC			; CInputKeyboard::`scalar deleting destructor', COMDAT
; _this$ = ecx
  00000	55		 push	 ebp
  00001	8b ec		 mov	 ebp, esp
  00003	51		 push	 ecx
  00004	89 4d fc	 mov	 DWORD PTR _this$[ebp], ecx
  00007	8b 4d fc	 mov	 ecx, DWORD PTR _this$[ebp]
  0000a	e8 00 00 00 00	 call	 ??1CInputKeyboard@@UAE@XZ ; CInputKeyboard::~CInputKeyboard
  0000f	8b 45 08	 mov	 eax, DWORD PTR ___flags$[ebp]
  00012	83 e0 01	 and	 eax, 1
  00015	74 0c		 je	 SHORT $LN2@scalar
  00017	6a 04		 push	 4
  00019	ff 75 fc	 push	 DWORD PTR _this$[ebp]
  0001c	e8 00 00 00 00	 call	 ??3@YAXPAXI@Z		; operator delete
  00021	59		 pop	 ecx
  00022	59		 pop	 ecx
$LN2@scalar:
  00023	8b 45 fc	 mov	 eax, DWORD PTR _this$[ebp]
  00026	c9		 leave
  00027	c2 04 00	 ret	 4
??_GCInputKeyboard@@UAEPAXI@Z ENDP			; CInputKeyboard::`scalar deleting destructor'
_TEXT	ENDS
; Function compile flags: /Odspy
; File D:\Metin2 Server Files\mainline\SRC_2014\Metin2Client\EterLib\Input.cpp
;	COMDAT ?KeyUp@CInputKeyboard@@QAEXH@Z
_TEXT	SEGMENT
_this$ = -8						; size = 4
$T1 = -4						; size = 4
_iIndex$ = 8						; size = 4
?KeyUp@CInputKeyboard@@QAEXH@Z PROC			; CInputKeyboard::KeyUp, COMDAT
; _this$ = ecx

; 126  : {

  00000	55		 push	 ebp
  00001	8b ec		 mov	 ebp, esp
  00003	51		 push	 ecx
  00004	51		 push	 ecx
  00005	89 4d f8	 mov	 DWORD PTR _this$[ebp], ecx

; 127  : 	ms_bPressedKey[iIndex] = false;

  00008	8b 45 08	 mov	 eax, DWORD PTR _iIndex$[ebp]
  0000b	89 45 fc	 mov	 DWORD PTR $T1[ebp], eax
  0000e	81 7d fc 00 01
	00 00		 cmp	 DWORD PTR $T1[ebp], 256	; 00000100H
  00015	73 02		 jae	 SHORT $LN3@KeyUp
  00017	eb 05		 jmp	 SHORT $LN4@KeyUp
$LN3@KeyUp:
  00019	e8 00 00 00 00	 call	 ___report_rangecheckfailure
$LN4@KeyUp:
  0001e	8b 45 fc	 mov	 eax, DWORD PTR $T1[ebp]
  00021	c6 80 00 00 00
	00 00		 mov	 BYTE PTR ?ms_bPressedKey@CInputKeyboard@@1PA_NA[eax], 0

; 128  : 	OnKeyUp(iIndex);

  00028	ff 75 08	 push	 DWORD PTR _iIndex$[ebp]
  0002b	8b 45 f8	 mov	 eax, DWORD PTR _this$[ebp]
  0002e	8b 00		 mov	 eax, DWORD PTR [eax]
  00030	8b 4d f8	 mov	 ecx, DWORD PTR _this$[ebp]
  00033	ff 50 08	 call	 DWORD PTR [eax+8]
$LN2@KeyUp:

; 129  : }

  00036	c9		 leave
  00037	c2 04 00	 ret	 4
?KeyUp@CInputKeyboard@@QAEXH@Z ENDP			; CInputKeyboard::KeyUp
_TEXT	ENDS
; Function compile flags: /Odspy
; File D:\Metin2 Server Files\mainline\SRC_2014\Metin2Client\EterLib\Input.cpp
;	COMDAT ?KeyDown@CInputKeyboard@@QAEXH@Z
_TEXT	SEGMENT
_this$ = -4						; size = 4
_iIndex$ = 8						; size = 4
?KeyDown@CInputKeyboard@@QAEXH@Z PROC			; CInputKeyboard::KeyDown, COMDAT
; _this$ = ecx

; 120  : {

  00000	55		 push	 ebp
  00001	8b ec		 mov	 ebp, esp
  00003	51		 push	 ecx
  00004	89 4d fc	 mov	 DWORD PTR _this$[ebp], ecx

; 121  : 	ms_bPressedKey[iIndex] = true;

  00007	8b 45 08	 mov	 eax, DWORD PTR _iIndex$[ebp]
  0000a	c6 80 00 00 00
	00 01		 mov	 BYTE PTR ?ms_bPressedKey@CInputKeyboard@@1PA_NA[eax], 1

; 122  : 	OnKeyDown(iIndex);

  00011	ff 75 08	 push	 DWORD PTR _iIndex$[ebp]
  00014	8b 45 fc	 mov	 eax, DWORD PTR _this$[ebp]
  00017	8b 00		 mov	 eax, DWORD PTR [eax]
  00019	8b 4d fc	 mov	 ecx, DWORD PTR _this$[ebp]
  0001c	ff 50 04	 call	 DWORD PTR [eax+4]

; 123  : }

  0001f	c9		 leave
  00020	c2 04 00	 ret	 4
?KeyDown@CInputKeyboard@@QAEXH@Z ENDP			; CInputKeyboard::KeyDown
_TEXT	ENDS
; Function compile flags: /Odspy
; File D:\Metin2 Server Files\mainline\SRC_2014\Metin2Client\EterLib\Input.cpp
;	COMDAT ?IsPressed@CInputKeyboard@@QAE_NH@Z
_TEXT	SEGMENT
_this$ = -4						; size = 4
_iIndex$ = 8						; size = 4
?IsPressed@CInputKeyboard@@QAE_NH@Z PROC		; CInputKeyboard::IsPressed, COMDAT
; _this$ = ecx

; 132  : {

  00000	55		 push	 ebp
  00001	8b ec		 mov	 ebp, esp
  00003	51		 push	 ecx
  00004	89 4d fc	 mov	 DWORD PTR _this$[ebp], ecx

; 133  : 	return ms_bPressedKey[iIndex];

  00007	8b 45 08	 mov	 eax, DWORD PTR _iIndex$[ebp]
  0000a	8a 80 00 00 00
	00		 mov	 al, BYTE PTR ?ms_bPressedKey@CInputKeyboard@@1PA_NA[eax]

; 134  : }

  00010	c9		 leave
  00011	c2 04 00	 ret	 4
?IsPressed@CInputKeyboard@@QAE_NH@Z ENDP		; CInputKeyboard::IsPressed
_TEXT	ENDS
; Function compile flags: /Odspy
; File D:\Metin2 Server Files\mainline\SRC_2014\Metin2Client\EterLib\Input.cpp
;	COMDAT ?ResetKeyboard@CInputKeyboard@@QAEXXZ
_TEXT	SEGMENT
_this$ = -4						; size = 4
?ResetKeyboard@CInputKeyboard@@QAEXXZ PROC		; CInputKeyboard::ResetKeyboard, COMDAT
; _this$ = ecx

; 51   : {

  00000	55		 push	 ebp
  00001	8b ec		 mov	 ebp, esp
  00003	51		 push	 ecx
  00004	89 4d fc	 mov	 DWORD PTR _this$[ebp], ecx

; 52   : 	memset(ms_diks, 0, sizeof(ms_diks));

  00007	68 00 01 00 00	 push	 256			; 00000100H
  0000c	6a 00		 push	 0
  0000e	68 00 00 00 00	 push	 OFFSET ?ms_diks@CInputKeyboard@@1PADA ; CInputKeyboard::ms_diks
  00013	e8 00 00 00 00	 call	 _memset
  00018	83 c4 0c	 add	 esp, 12			; 0000000cH

; 53   : 	memset(ms_bPressedKey, 0, sizeof(ms_bPressedKey));

  0001b	68 00 01 00 00	 push	 256			; 00000100H
  00020	6a 00		 push	 0
  00022	68 00 00 00 00	 push	 OFFSET ?ms_bPressedKey@CInputKeyboard@@1PA_NA ; CInputKeyboard::ms_bPressedKey
  00027	e8 00 00 00 00	 call	 _memset
  0002c	83 c4 0c	 add	 esp, 12			; 0000000cH

; 54   : }

  0002f	c9		 leave
  00030	c3		 ret	 0
?ResetKeyboard@CInputKeyboard@@QAEXXZ ENDP		; CInputKeyboard::ResetKeyboard
_TEXT	ENDS
; Function compile flags: /Odspy
; File D:\Metin2 Server Files\mainline\SRC_2014\Metin2Client\EterLib\Input.cpp
;	COMDAT ?UpdateKeyboard@CInputKeyboard@@QAEXXZ
_TEXT	SEGMENT
_hr$ = -12						; size = 4
_this$ = -8						; size = 4
_i$1 = -4						; size = 4
?UpdateKeyboard@CInputKeyboard@@QAEXXZ PROC		; CInputKeyboard::UpdateKeyboard, COMDAT
; _this$ = ecx

; 90   : {

  00000	55		 push	 ebp
  00001	8b ec		 mov	 ebp, esp
  00003	83 ec 0c	 sub	 esp, 12			; 0000000cH
  00006	89 4d f8	 mov	 DWORD PTR _this$[ebp], ecx

; 91   : 	if (!ms_lpKeyboard)

  00009	83 3d 00 00 00
	00 00		 cmp	 DWORD PTR ?ms_lpKeyboard@CInputKeyboard@@1PAUIDirectInputDevice8A@@A, 0 ; CInputKeyboard::ms_lpKeyboard
  00010	75 05		 jne	 SHORT $LN5@UpdateKeyb

; 92   : 		return;

  00012	e9 9d 00 00 00	 jmp	 $LN1@UpdateKeyb
$LN5@UpdateKeyb:

; 93   : 
; 94   : 	HRESULT hr;
; 95   : 	
; 96   : 	hr = ms_lpKeyboard->GetDeviceState(sizeof(ms_diks), &ms_diks);

  00017	68 00 00 00 00	 push	 OFFSET ?ms_diks@CInputKeyboard@@1PADA ; CInputKeyboard::ms_diks
  0001c	68 00 01 00 00	 push	 256			; 00000100H
  00021	a1 00 00 00 00	 mov	 eax, DWORD PTR ?ms_lpKeyboard@CInputKeyboard@@1PAUIDirectInputDevice8A@@A ; CInputKeyboard::ms_lpKeyboard
  00026	8b 00		 mov	 eax, DWORD PTR [eax]
  00028	ff 35 00 00 00
	00		 push	 DWORD PTR ?ms_lpKeyboard@CInputKeyboard@@1PAUIDirectInputDevice8A@@A ; CInputKeyboard::ms_lpKeyboard
  0002e	ff 50 24	 call	 DWORD PTR [eax+36]
  00031	89 45 f4	 mov	 DWORD PTR _hr$[ebp], eax

; 97   : 
; 98   : 	if (FAILED(hr))

  00034	83 7d f4 00	 cmp	 DWORD PTR _hr$[ebp], 0
  00038	7d 15		 jge	 SHORT $LN6@UpdateKeyb

; 99   : 	{
; 100  : 		hr = ms_lpKeyboard->Acquire();			

  0003a	a1 00 00 00 00	 mov	 eax, DWORD PTR ?ms_lpKeyboard@CInputKeyboard@@1PAUIDirectInputDevice8A@@A ; CInputKeyboard::ms_lpKeyboard
  0003f	8b 00		 mov	 eax, DWORD PTR [eax]
  00041	ff 35 00 00 00
	00		 push	 DWORD PTR ?ms_lpKeyboard@CInputKeyboard@@1PAUIDirectInputDevice8A@@A ; CInputKeyboard::ms_lpKeyboard
  00047	ff 50 1c	 call	 DWORD PTR [eax+28]
  0004a	89 45 f4	 mov	 DWORD PTR _hr$[ebp], eax

; 101  : 		
; 102  : 		// 현재 어플리케이션이 비활성화 되어 있어 입력을 받을 수 없다.
; 103  : 		//if (hr == DIERR_OTHERAPPHASPRIO || hr == DIERR_NOTACQUIRED);
; 104  : 		return;

  0004d	eb 65		 jmp	 SHORT $LN1@UpdateKeyb
$LN6@UpdateKeyb:

; 105  : 	}
; 106  : 
; 107  : 	for (int i = 0; i < 256; ++i)

  0004f	83 65 fc 00	 and	 DWORD PTR _i$1[ebp], 0
  00053	eb 07		 jmp	 SHORT $LN4@UpdateKeyb
$LN2@UpdateKeyb:
  00055	8b 45 fc	 mov	 eax, DWORD PTR _i$1[ebp]
  00058	40		 inc	 eax
  00059	89 45 fc	 mov	 DWORD PTR _i$1[ebp], eax
$LN4@UpdateKeyb:
  0005c	81 7d fc 00 01
	00 00		 cmp	 DWORD PTR _i$1[ebp], 256 ; 00000100H
  00063	7d 4f		 jge	 SHORT $LN1@UpdateKeyb

; 108  : 	{
; 109  : 		if (ms_diks[i] & 0x80)

  00065	8b 45 fc	 mov	 eax, DWORD PTR _i$1[ebp]
  00068	0f be 80 00 00
	00 00		 movsx	 eax, BYTE PTR ?ms_diks@CInputKeyboard@@1PADA[eax]
  0006f	25 80 00 00 00	 and	 eax, 128		; 00000080H
  00074	74 1f		 je	 SHORT $LN7@UpdateKeyb

; 110  : 		{
; 111  : 			if (!IsPressed(i))

  00076	ff 75 fc	 push	 DWORD PTR _i$1[ebp]
  00079	8b 4d f8	 mov	 ecx, DWORD PTR _this$[ebp]
  0007c	e8 00 00 00 00	 call	 ?IsPressed@CInputKeyboard@@QAE_NH@Z ; CInputKeyboard::IsPressed
  00081	0f b6 c0	 movzx	 eax, al
  00084	85 c0		 test	 eax, eax
  00086	75 0b		 jne	 SHORT $LN9@UpdateKeyb

; 112  : 				KeyDown(i);

  00088	ff 75 fc	 push	 DWORD PTR _i$1[ebp]
  0008b	8b 4d f8	 mov	 ecx, DWORD PTR _this$[ebp]
  0008e	e8 00 00 00 00	 call	 ?KeyDown@CInputKeyboard@@QAEXH@Z ; CInputKeyboard::KeyDown
$LN9@UpdateKeyb:

; 113  : 		}

  00093	eb 1d		 jmp	 SHORT $LN8@UpdateKeyb
$LN7@UpdateKeyb:

; 114  : 		else if (IsPressed(i))

  00095	ff 75 fc	 push	 DWORD PTR _i$1[ebp]
  00098	8b 4d f8	 mov	 ecx, DWORD PTR _this$[ebp]
  0009b	e8 00 00 00 00	 call	 ?IsPressed@CInputKeyboard@@QAE_NH@Z ; CInputKeyboard::IsPressed
  000a0	0f b6 c0	 movzx	 eax, al
  000a3	85 c0		 test	 eax, eax
  000a5	74 0b		 je	 SHORT $LN8@UpdateKeyb

; 115  : 			KeyUp(i);

  000a7	ff 75 fc	 push	 DWORD PTR _i$1[ebp]
  000aa	8b 4d f8	 mov	 ecx, DWORD PTR _this$[ebp]
  000ad	e8 00 00 00 00	 call	 ?KeyUp@CInputKeyboard@@QAEXH@Z ; CInputKeyboard::KeyUp
$LN8@UpdateKeyb:

; 116  : 	}

  000b2	eb a1		 jmp	 SHORT $LN2@UpdateKeyb
$LN1@UpdateKeyb:

; 117  : }

  000b4	c9		 leave
  000b5	c3		 ret	 0
?UpdateKeyboard@CInputKeyboard@@QAEXXZ ENDP		; CInputKeyboard::UpdateKeyboard
_TEXT	ENDS
; Function compile flags: /Odspy
; File D:\Metin2 Server Files\mainline\SRC_2014\Metin2Client\EterLib\Input.cpp
;	COMDAT ?InitializeKeyboard@CInputKeyboard@@QAE_NPAUHWND__@@@Z
_TEXT	SEGMENT
_dwCoopFlags$ = -12					; size = 4
_this$ = -8						; size = 4
_hr$ = -4						; size = 4
_hWnd$ = 8						; size = 4
?InitializeKeyboard@CInputKeyboard@@QAE_NPAUHWND__@@@Z PROC ; CInputKeyboard::InitializeKeyboard, COMDAT
; _this$ = ecx

; 57   : {

  00000	55		 push	 ebp
  00001	8b ec		 mov	 ebp, esp
  00003	83 ec 0c	 sub	 esp, 12			; 0000000cH
  00006	53		 push	 ebx
  00007	56		 push	 esi
  00008	57		 push	 edi
  00009	89 4d f8	 mov	 DWORD PTR _this$[ebp], ecx

; 58   : 	NANOBEGIN

  0000c	eb		 DB	 -21			; ffffffebH
  0000d	03		 DB	 3
  0000e	d6		 DB	 -42			; ffffffd6H
  0000f	d7		 DB	 -41			; ffffffd7H
  00010	01		 DB	 1
  00011	83 3d 00 00 00
	00 00		 cmp	 DWORD PTR ?ms_lpKeyboard@CInputKeyboard@@1PAUIDirectInputDevice8A@@A, 0 ; CInputKeyboard::ms_lpKeyboard
  00018	74 07		 je	 SHORT $LN2@Initialize

; 59   : 
; 60   : 	if (ms_lpKeyboard)
; 61   : 		return true;

  0001a	b0 01		 mov	 al, 1
  0001c	e9 a2 00 00 00	 jmp	 $LN1@Initialize
$LN2@Initialize:

; 62   : 
; 63   : 	if (FAILED(CreateDevice(hWnd)))

  00021	ff 75 08	 push	 DWORD PTR _hWnd$[ebp]
  00024	8b 4d f8	 mov	 ecx, DWORD PTR _this$[ebp]
  00027	e8 00 00 00 00	 call	 ?CreateDevice@CInputDevice@@QAEJPAUHWND__@@@Z ; CInputDevice::CreateDevice
  0002c	85 c0		 test	 eax, eax
  0002e	7d 07		 jge	 SHORT $LN3@Initialize

; 64   : 		return false;

  00030	32 c0		 xor	 al, al
  00032	e9 8c 00 00 00	 jmp	 $LN1@Initialize
$LN3@Initialize:

; 65   : 	
; 66   : 	HRESULT hr;
; 67   : 
; 68   : 	// Obtain an interface to the system keyboard device.
; 69   : 	if (FAILED(hr = ms_lpDI->CreateDevice(GUID_SysKeyboard, &ms_lpKeyboard, NULL)))

  00037	6a 00		 push	 0
  00039	68 00 00 00 00	 push	 OFFSET ?ms_lpKeyboard@CInputKeyboard@@1PAUIDirectInputDevice8A@@A ; CInputKeyboard::ms_lpKeyboard
  0003e	68 00 00 00 00	 push	 OFFSET _GUID_SysKeyboard
  00043	a1 00 00 00 00	 mov	 eax, DWORD PTR ?ms_lpDI@CInputDevice@@1PAUIDirectInput8A@@A ; CInputDevice::ms_lpDI
  00048	8b 00		 mov	 eax, DWORD PTR [eax]
  0004a	ff 35 00 00 00
	00		 push	 DWORD PTR ?ms_lpDI@CInputDevice@@1PAUIDirectInput8A@@A ; CInputDevice::ms_lpDI
  00050	ff 50 0c	 call	 DWORD PTR [eax+12]
  00053	89 45 fc	 mov	 DWORD PTR _hr$[ebp], eax
  00056	83 7d fc 00	 cmp	 DWORD PTR _hr$[ebp], 0
  0005a	7d 04		 jge	 SHORT $LN4@Initialize

; 70   : 		return false;

  0005c	32 c0		 xor	 al, al
  0005e	eb 63		 jmp	 SHORT $LN1@Initialize
$LN4@Initialize:

; 71   : 
; 72   : 	if (FAILED(hr = ms_lpKeyboard->SetDataFormat(&c_dfDIKeyboard)))

  00060	68 00 00 00 00	 push	 OFFSET _c_dfDIKeyboard
  00065	a1 00 00 00 00	 mov	 eax, DWORD PTR ?ms_lpKeyboard@CInputKeyboard@@1PAUIDirectInputDevice8A@@A ; CInputKeyboard::ms_lpKeyboard
  0006a	8b 00		 mov	 eax, DWORD PTR [eax]
  0006c	ff 35 00 00 00
	00		 push	 DWORD PTR ?ms_lpKeyboard@CInputKeyboard@@1PAUIDirectInputDevice8A@@A ; CInputKeyboard::ms_lpKeyboard
  00072	ff 50 2c	 call	 DWORD PTR [eax+44]
  00075	89 45 fc	 mov	 DWORD PTR _hr$[ebp], eax
  00078	83 7d fc 00	 cmp	 DWORD PTR _hr$[ebp], 0
  0007c	7d 04		 jge	 SHORT $LN5@Initialize

; 73   : 		return false;

  0007e	32 c0		 xor	 al, al
  00080	eb 41		 jmp	 SHORT $LN1@Initialize
$LN5@Initialize:

; 74   : 
; 75   : // Alt + F4를 위해 비독점 모드로 - [levites]
; 76   : //	DWORD dwCoopFlags = DISCL_FOREGROUND | DISCL_EXCLUSIVE;
; 77   : //	DWORD dwCoopFlags = DISCL_NONEXCLUSIVE | DISCL_BACKGROUND;
; 78   : 	DWORD dwCoopFlags = DISCL_FOREGROUND | DISCL_NONEXCLUSIVE;

  00082	c7 45 f4 06 00
	00 00		 mov	 DWORD PTR _dwCoopFlags$[ebp], 6

; 79   : 
; 80   : 	if (FAILED(hr = ms_lpKeyboard->SetCooperativeLevel(hWnd, dwCoopFlags)))

  00089	ff 75 f4	 push	 DWORD PTR _dwCoopFlags$[ebp]
  0008c	ff 75 08	 push	 DWORD PTR _hWnd$[ebp]
  0008f	a1 00 00 00 00	 mov	 eax, DWORD PTR ?ms_lpKeyboard@CInputKeyboard@@1PAUIDirectInputDevice8A@@A ; CInputKeyboard::ms_lpKeyboard
  00094	8b 00		 mov	 eax, DWORD PTR [eax]
  00096	ff 35 00 00 00
	00		 push	 DWORD PTR ?ms_lpKeyboard@CInputKeyboard@@1PAUIDirectInputDevice8A@@A ; CInputKeyboard::ms_lpKeyboard
  0009c	ff 50 34	 call	 DWORD PTR [eax+52]
  0009f	89 45 fc	 mov	 DWORD PTR _hr$[ebp], eax
  000a2	83 7d fc 00	 cmp	 DWORD PTR _hr$[ebp], 0
  000a6	7d 04		 jge	 SHORT $LN6@Initialize

; 81   : 		return false;

  000a8	32 c0		 xor	 al, al
  000aa	eb 17		 jmp	 SHORT $LN1@Initialize
$LN6@Initialize:

; 82   : 
; 83   : 	ms_lpKeyboard->Acquire();

  000ac	a1 00 00 00 00	 mov	 eax, DWORD PTR ?ms_lpKeyboard@CInputKeyboard@@1PAUIDirectInputDevice8A@@A ; CInputKeyboard::ms_lpKeyboard
  000b1	8b 00		 mov	 eax, DWORD PTR [eax]
  000b3	ff 35 00 00 00
	00		 push	 DWORD PTR ?ms_lpKeyboard@CInputKeyboard@@1PAUIDirectInputDevice8A@@A ; CInputKeyboard::ms_lpKeyboard
  000b9	ff 50 1c	 call	 DWORD PTR [eax+28]

; 84   : 
; 85   : 	NANOEND

  000bc	eb		 DB	 -21			; ffffffebH
  000bd	03		 DB	 3
  000be	d6		 DB	 -42			; ffffffd6H
  000bf	d7		 DB	 -41			; ffffffd7H
  000c0	00		 DB	 0
  000c1	b0 01		 mov	 al, 1
$LN1@Initialize:

; 86   : 	return true;
; 87   : }

  000c3	5f		 pop	 edi
  000c4	5e		 pop	 esi
  000c5	5b		 pop	 ebx
  000c6	c9		 leave
  000c7	c2 04 00	 ret	 4
?InitializeKeyboard@CInputKeyboard@@QAE_NPAUHWND__@@@Z ENDP ; CInputKeyboard::InitializeKeyboard
_TEXT	ENDS
; Function compile flags: /Odspy
; File D:\Metin2 Server Files\mainline\SRC_2014\Metin2Client\EterLib\Input.cpp
;	COMDAT ??1CInputKeyboard@@UAE@XZ
_TEXT	SEGMENT
_this$ = -16						; size = 4
__$EHRec$ = -12						; size = 12
??1CInputKeyboard@@UAE@XZ PROC				; CInputKeyboard::~CInputKeyboard, COMDAT
; _this$ = ecx

; 43   : {

  00000	55		 push	 ebp
  00001	8b ec		 mov	 ebp, esp
  00003	6a ff		 push	 -1
  00005	68 00 00 00 00	 push	 __ehhandler$??1CInputKeyboard@@UAE@XZ
  0000a	64 a1 00 00 00
	00		 mov	 eax, DWORD PTR fs:0
  00010	50		 push	 eax
  00011	51		 push	 ecx
  00012	a1 00 00 00 00	 mov	 eax, DWORD PTR ___security_cookie
  00017	33 c5		 xor	 eax, ebp
  00019	50		 push	 eax
  0001a	8d 45 f4	 lea	 eax, DWORD PTR __$EHRec$[ebp]
  0001d	64 a3 00 00 00
	00		 mov	 DWORD PTR fs:0, eax
  00023	89 4d f0	 mov	 DWORD PTR _this$[ebp], ecx
  00026	8b 45 f0	 mov	 eax, DWORD PTR _this$[ebp]
  00029	c7 00 00 00 00
	00		 mov	 DWORD PTR [eax], OFFSET ??_7CInputKeyboard@@6B@

; 44   : 	if (ms_lpKeyboard)

  0002f	83 3d 00 00 00
	00 00		 cmp	 DWORD PTR ?ms_lpKeyboard@CInputKeyboard@@1PAUIDirectInputDevice8A@@A, 0 ; CInputKeyboard::ms_lpKeyboard
  00036	74 10		 je	 SHORT $LN2@CInputKeyb

; 45   : 		ms_lpKeyboard->Unacquire();

  00038	a1 00 00 00 00	 mov	 eax, DWORD PTR ?ms_lpKeyboard@CInputKeyboard@@1PAUIDirectInputDevice8A@@A ; CInputKeyboard::ms_lpKeyboard
  0003d	8b 00		 mov	 eax, DWORD PTR [eax]
  0003f	ff 35 00 00 00
	00		 push	 DWORD PTR ?ms_lpKeyboard@CInputKeyboard@@1PAUIDirectInputDevice8A@@A ; CInputKeyboard::ms_lpKeyboard
  00045	ff 50 20	 call	 DWORD PTR [eax+32]
$LN2@CInputKeyb:

; 46   : 
; 47   : 	SAFE_RELEASE(ms_lpKeyboard);

  00048	83 3d 00 00 00
	00 00		 cmp	 DWORD PTR ?ms_lpKeyboard@CInputKeyboard@@1PAUIDirectInputDevice8A@@A, 0 ; CInputKeyboard::ms_lpKeyboard
  0004f	74 17		 je	 SHORT $LN1@CInputKeyb
  00051	a1 00 00 00 00	 mov	 eax, DWORD PTR ?ms_lpKeyboard@CInputKeyboard@@1PAUIDirectInputDevice8A@@A ; CInputKeyboard::ms_lpKeyboard
  00056	8b 00		 mov	 eax, DWORD PTR [eax]
  00058	ff 35 00 00 00
	00		 push	 DWORD PTR ?ms_lpKeyboard@CInputKeyboard@@1PAUIDirectInputDevice8A@@A ; CInputKeyboard::ms_lpKeyboard
  0005e	ff 50 08	 call	 DWORD PTR [eax+8]
  00061	83 25 00 00 00
	00 00		 and	 DWORD PTR ?ms_lpKeyboard@CInputKeyboard@@1PAUIDirectInputDevice8A@@A, 0 ; CInputKeyboard::ms_lpKeyboard
$LN1@CInputKeyb:

; 48   : }

  00068	8b 4d f0	 mov	 ecx, DWORD PTR _this$[ebp]
  0006b	e8 00 00 00 00	 call	 ??1CInputDevice@@UAE@XZ	; CInputDevice::~CInputDevice
  00070	8b 4d f4	 mov	 ecx, DWORD PTR __$EHRec$[ebp]
  00073	64 89 0d 00 00
	00 00		 mov	 DWORD PTR fs:0, ecx
  0007a	59		 pop	 ecx
  0007b	c9		 leave
  0007c	c3		 ret	 0
  0007d	cc		 int	 3
  0007e	cc		 int	 3
  0007f	cc		 int	 3
  00080	cc		 int	 3
  00081	cc		 int	 3
_TEXT	ENDS
;	COMDAT text$x
text$x	SEGMENT
__ehhandler$??1CInputKeyboard@@UAE@XZ:
  00000	90		 npad	 1
  00001	90		 npad	 1
  00002	8b 54 24 08	 mov	 edx, DWORD PTR [esp+8]
  00006	8d 42 0c	 lea	 eax, DWORD PTR [edx+12]
  00009	8b 4a f8	 mov	 ecx, DWORD PTR [edx-8]
  0000c	33 c8		 xor	 ecx, eax
  0000e	e8 00 00 00 00	 call	 @__security_check_cookie@4
  00013	b8 00 00 00 00	 mov	 eax, OFFSET __ehfuncinfo$??1CInputKeyboard@@UAE@XZ
  00018	e9 00 00 00 00	 jmp	 ___CxxFrameHandler3
text$x	ENDS
??1CInputKeyboard@@UAE@XZ ENDP				; CInputKeyboard::~CInputKeyboard
; Function compile flags: /Odspy
; File D:\Metin2 Server Files\mainline\SRC_2014\Metin2Client\EterLib\Input.cpp
;	COMDAT ??0CInputKeyboard@@QAE@XZ
_TEXT	SEGMENT
_this$ = -16						; size = 4
__$EHRec$ = -12						; size = 12
??0CInputKeyboard@@QAE@XZ PROC				; CInputKeyboard::CInputKeyboard, COMDAT
; _this$ = ecx

; 38   : {

  00000	55		 push	 ebp
  00001	8b ec		 mov	 ebp, esp
  00003	6a ff		 push	 -1
  00005	68 00 00 00 00	 push	 __ehhandler$??0CInputKeyboard@@QAE@XZ
  0000a	64 a1 00 00 00
	00		 mov	 eax, DWORD PTR fs:0
  00010	50		 push	 eax
  00011	51		 push	 ecx
  00012	a1 00 00 00 00	 mov	 eax, DWORD PTR ___security_cookie
  00017	33 c5		 xor	 eax, ebp
  00019	50		 push	 eax
  0001a	8d 45 f4	 lea	 eax, DWORD PTR __$EHRec$[ebp]
  0001d	64 a3 00 00 00
	00		 mov	 DWORD PTR fs:0, eax
  00023	89 4d f0	 mov	 DWORD PTR _this$[ebp], ecx
  00026	8b 4d f0	 mov	 ecx, DWORD PTR _this$[ebp]
  00029	e8 00 00 00 00	 call	 ??0CInputDevice@@QAE@XZ	; CInputDevice::CInputDevice
  0002e	83 65 fc 00	 and	 DWORD PTR __$EHRec$[ebp+8], 0
  00032	8b 45 f0	 mov	 eax, DWORD PTR _this$[ebp]
  00035	c7 00 00 00 00
	00		 mov	 DWORD PTR [eax], OFFSET ??_7CInputKeyboard@@6B@

; 39   : 	ResetKeyboard();

  0003b	8b 4d f0	 mov	 ecx, DWORD PTR _this$[ebp]
  0003e	e8 00 00 00 00	 call	 ?ResetKeyboard@CInputKeyboard@@QAEXXZ ; CInputKeyboard::ResetKeyboard

; 40   : }

  00043	83 4d fc ff	 or	 DWORD PTR __$EHRec$[ebp+8], -1
  00047	8b 45 f0	 mov	 eax, DWORD PTR _this$[ebp]
  0004a	8b 4d f4	 mov	 ecx, DWORD PTR __$EHRec$[ebp]
  0004d	64 89 0d 00 00
	00 00		 mov	 DWORD PTR fs:0, ecx
  00054	59		 pop	 ecx
  00055	c9		 leave
  00056	c3		 ret	 0
_TEXT	ENDS
;	COMDAT text$x
text$x	SEGMENT
__unwindfunclet$??0CInputKeyboard@@QAE@XZ$0:
  00000	8b 4d f0	 mov	 ecx, DWORD PTR _this$[ebp]
  00003	e9 00 00 00 00	 jmp	 ??1CInputDevice@@UAE@XZ	; CInputDevice::~CInputDevice
  00008	cc		 int	 3
  00009	cc		 int	 3
  0000a	cc		 int	 3
  0000b	cc		 int	 3
  0000c	cc		 int	 3
__ehhandler$??0CInputKeyboard@@QAE@XZ:
  0000d	90		 npad	 1
  0000e	90		 npad	 1
  0000f	8b 54 24 08	 mov	 edx, DWORD PTR [esp+8]
  00013	8d 42 0c	 lea	 eax, DWORD PTR [edx+12]
  00016	8b 4a f8	 mov	 ecx, DWORD PTR [edx-8]
  00019	33 c8		 xor	 ecx, eax
  0001b	e8 00 00 00 00	 call	 @__security_check_cookie@4
  00020	b8 00 00 00 00	 mov	 eax, OFFSET __ehfuncinfo$??0CInputKeyboard@@QAE@XZ
  00025	e9 00 00 00 00	 jmp	 ___CxxFrameHandler3
text$x	ENDS
??0CInputKeyboard@@QAE@XZ ENDP				; CInputKeyboard::CInputKeyboard
; Function compile flags: /Odspy
;	COMDAT ??_GCInputDevice@@UAEPAXI@Z
_TEXT	SEGMENT
_this$ = -4						; size = 4
___flags$ = 8						; size = 4
??_GCInputDevice@@UAEPAXI@Z PROC			; CInputDevice::`scalar deleting destructor', COMDAT
; _this$ = ecx
  00000	55		 push	 ebp
  00001	8b ec		 mov	 ebp, esp
  00003	51		 push	 ecx
  00004	89 4d fc	 mov	 DWORD PTR _this$[ebp], ecx
  00007	8b 4d fc	 mov	 ecx, DWORD PTR _this$[ebp]
  0000a	e8 00 00 00 00	 call	 ??1CInputDevice@@UAE@XZ	; CInputDevice::~CInputDevice
  0000f	8b 45 08	 mov	 eax, DWORD PTR ___flags$[ebp]
  00012	83 e0 01	 and	 eax, 1
  00015	74 0c		 je	 SHORT $LN2@scalar
  00017	6a 04		 push	 4
  00019	ff 75 fc	 push	 DWORD PTR _this$[ebp]
  0001c	e8 00 00 00 00	 call	 ??3@YAXPAXI@Z		; operator delete
  00021	59		 pop	 ecx
  00022	59		 pop	 ecx
$LN2@scalar:
  00023	8b 45 fc	 mov	 eax, DWORD PTR _this$[ebp]
  00026	c9		 leave
  00027	c2 04 00	 ret	 4
??_GCInputDevice@@UAEPAXI@Z ENDP			; CInputDevice::`scalar deleting destructor'
_TEXT	ENDS
; Function compile flags: /Odspy
; File D:\Metin2 Server Files\mainline\SRC_2014\Metin2Client\EterLib\Input.cpp
;	COMDAT ?CreateDevice@CInputDevice@@QAEJPAUHWND__@@@Z
_TEXT	SEGMENT
_this$ = -8						; size = 4
_hr$ = -4						; size = 4
___formal$ = 8						; size = 4
?CreateDevice@CInputDevice@@QAEJPAUHWND__@@@Z PROC	; CInputDevice::CreateDevice, COMDAT
; _this$ = ecx

; 19   : {

  00000	55		 push	 ebp
  00001	8b ec		 mov	 ebp, esp
  00003	51		 push	 ecx
  00004	51		 push	 ecx
  00005	89 4d f8	 mov	 DWORD PTR _this$[ebp], ecx

; 20   : 	if (ms_lpDI)

  00008	83 3d 00 00 00
	00 00		 cmp	 DWORD PTR ?ms_lpDI@CInputDevice@@1PAUIDirectInput8A@@A, 0 ; CInputDevice::ms_lpDI
  0000f	74 14		 je	 SHORT $LN2@CreateDevi

; 21   : 	{
; 22   : 		ms_lpDI->AddRef();

  00011	a1 00 00 00 00	 mov	 eax, DWORD PTR ?ms_lpDI@CInputDevice@@1PAUIDirectInput8A@@A ; CInputDevice::ms_lpDI
  00016	8b 00		 mov	 eax, DWORD PTR [eax]
  00018	ff 35 00 00 00
	00		 push	 DWORD PTR ?ms_lpDI@CInputDevice@@1PAUIDirectInput8A@@A ; CInputDevice::ms_lpDI
  0001e	ff 50 04	 call	 DWORD PTR [eax+4]

; 23   : 		return S_OK;

  00021	33 c0		 xor	 eax, eax
  00023	eb 2f		 jmp	 SHORT $LN1@CreateDevi
$LN2@CreateDevi:

; 24   : 	}
; 25   : 
; 26   : 	HRESULT hr;
; 27   : 	
; 28   : 	// Create a DInput object
; 29   : 	if (FAILED(hr = DirectInput8Create(GetModuleHandle(NULL), DIRECTINPUT_VERSION, 

  00025	6a 00		 push	 0
  00027	68 00 00 00 00	 push	 OFFSET ?ms_lpDI@CInputDevice@@1PAUIDirectInput8A@@A ; CInputDevice::ms_lpDI
  0002c	68 00 00 00 00	 push	 OFFSET _IID_IDirectInput8A
  00031	68 00 08 00 00	 push	 2048			; 00000800H
  00036	6a 00		 push	 0
  00038	ff 15 00 00 00
	00		 call	 DWORD PTR __imp__GetModuleHandleA@4
  0003e	50		 push	 eax
  0003f	e8 00 00 00 00	 call	 _DirectInput8Create@20
  00044	89 45 fc	 mov	 DWORD PTR _hr$[ebp], eax
  00047	83 7d fc 00	 cmp	 DWORD PTR _hr$[ebp], 0
  0004b	7d 05		 jge	 SHORT $LN3@CreateDevi

; 30   : 					IID_IDirectInput8, (VOID**) &ms_lpDI, NULL)))
; 31   : 		return hr;

  0004d	8b 45 fc	 mov	 eax, DWORD PTR _hr$[ebp]
  00050	eb 02		 jmp	 SHORT $LN1@CreateDevi
$LN3@CreateDevi:

; 32   : 
; 33   : 	return S_OK;

  00052	33 c0		 xor	 eax, eax
$LN1@CreateDevi:

; 34   : }

  00054	c9		 leave
  00055	c2 04 00	 ret	 4
?CreateDevice@CInputDevice@@QAEJPAUHWND__@@@Z ENDP	; CInputDevice::CreateDevice
_TEXT	ENDS
; Function compile flags: /Odspy
; File D:\Metin2 Server Files\mainline\SRC_2014\Metin2Client\EterLib\Input.cpp
;	COMDAT ??1CInputDevice@@UAE@XZ
_TEXT	SEGMENT
_this$ = -16						; size = 4
__$EHRec$ = -12						; size = 12
??1CInputDevice@@UAE@XZ PROC				; CInputDevice::~CInputDevice, COMDAT
; _this$ = ecx

; 14   : {

  00000	55		 push	 ebp
  00001	8b ec		 mov	 ebp, esp
  00003	6a ff		 push	 -1
  00005	68 00 00 00 00	 push	 __ehhandler$??1CInputDevice@@UAE@XZ
  0000a	64 a1 00 00 00
	00		 mov	 eax, DWORD PTR fs:0
  00010	50		 push	 eax
  00011	51		 push	 ecx
  00012	a1 00 00 00 00	 mov	 eax, DWORD PTR ___security_cookie
  00017	33 c5		 xor	 eax, ebp
  00019	50		 push	 eax
  0001a	8d 45 f4	 lea	 eax, DWORD PTR __$EHRec$[ebp]
  0001d	64 a3 00 00 00
	00		 mov	 DWORD PTR fs:0, eax
  00023	89 4d f0	 mov	 DWORD PTR _this$[ebp], ecx
  00026	8b 45 f0	 mov	 eax, DWORD PTR _this$[ebp]
  00029	c7 00 00 00 00
	00		 mov	 DWORD PTR [eax], OFFSET ??_7CInputDevice@@6B@

; 15   : 	SAFE_RELEASE(ms_lpDI);

  0002f	83 3d 00 00 00
	00 00		 cmp	 DWORD PTR ?ms_lpDI@CInputDevice@@1PAUIDirectInput8A@@A, 0 ; CInputDevice::ms_lpDI
  00036	74 17		 je	 SHORT $LN3@CInputDevi
  00038	a1 00 00 00 00	 mov	 eax, DWORD PTR ?ms_lpDI@CInputDevice@@1PAUIDirectInput8A@@A ; CInputDevice::ms_lpDI
  0003d	8b 00		 mov	 eax, DWORD PTR [eax]
  0003f	ff 35 00 00 00
	00		 push	 DWORD PTR ?ms_lpDI@CInputDevice@@1PAUIDirectInput8A@@A ; CInputDevice::ms_lpDI
  00045	ff 50 08	 call	 DWORD PTR [eax+8]
  00048	83 25 00 00 00
	00 00		 and	 DWORD PTR ?ms_lpDI@CInputDevice@@1PAUIDirectInput8A@@A, 0 ; CInputDevice::ms_lpDI
$LN3@CInputDevi:

; 16   : }

  0004f	8b 4d f4	 mov	 ecx, DWORD PTR __$EHRec$[ebp]
  00052	64 89 0d 00 00
	00 00		 mov	 DWORD PTR fs:0, ecx
  00059	59		 pop	 ecx
  0005a	c9		 leave
  0005b	c3		 ret	 0
  0005c	cc		 int	 3
  0005d	cc		 int	 3
  0005e	cc		 int	 3
  0005f	cc		 int	 3
  00060	cc		 int	 3
_TEXT	ENDS
;	COMDAT text$x
text$x	SEGMENT
__ehhandler$??1CInputDevice@@UAE@XZ:
  00000	90		 npad	 1
  00001	90		 npad	 1
  00002	8b 54 24 08	 mov	 edx, DWORD PTR [esp+8]
  00006	8d 42 0c	 lea	 eax, DWORD PTR [edx+12]
  00009	8b 4a f8	 mov	 ecx, DWORD PTR [edx-8]
  0000c	33 c8		 xor	 ecx, eax
  0000e	e8 00 00 00 00	 call	 @__security_check_cookie@4
  00013	b8 00 00 00 00	 mov	 eax, OFFSET __ehfuncinfo$??1CInputDevice@@UAE@XZ
  00018	e9 00 00 00 00	 jmp	 ___CxxFrameHandler3
text$x	ENDS
??1CInputDevice@@UAE@XZ ENDP				; CInputDevice::~CInputDevice
; Function compile flags: /Odspy
; File D:\Metin2 Server Files\mainline\SRC_2014\Metin2Client\EterLib\Input.cpp
;	COMDAT ??0CInputDevice@@QAE@XZ
_TEXT	SEGMENT
_this$ = -4						; size = 4
??0CInputDevice@@QAE@XZ PROC				; CInputDevice::CInputDevice, COMDAT
; _this$ = ecx

; 10   : {

  00000	55		 push	 ebp
  00001	8b ec		 mov	 ebp, esp
  00003	51		 push	 ecx
  00004	89 4d fc	 mov	 DWORD PTR _this$[ebp], ecx
  00007	8b 45 fc	 mov	 eax, DWORD PTR _this$[ebp]
  0000a	c7 00 00 00 00
	00		 mov	 DWORD PTR [eax], OFFSET ??_7CInputDevice@@6B@

; 11   : }

  00010	8b 45 fc	 mov	 eax, DWORD PTR _this$[ebp]
  00013	c9		 leave
  00014	c3		 ret	 0
??0CInputDevice@@QAE@XZ ENDP				; CInputDevice::CInputDevice
_TEXT	ENDS
END
