; Listing generated by Microsoft (R) Optimizing Compiler Version 19.28.29335.0 

	TITLE	D:\Metin2 Server Files\mainline\SRC_2014\Metin2Client\EterLib\Mutex.cpp
	.686P
	.XMM
	include listing.inc
	.model	flat

INCLUDELIB LIBCMT
INCLUDELIB OLDNAMES

PUBLIC	??0Mutex@@QAE@XZ				; Mutex::Mutex
PUBLIC	??1Mutex@@QAE@XZ				; Mutex::~Mutex
PUBLIC	?Lock@Mutex@@QAEXXZ				; Mutex::Lock
PUBLIC	?Unlock@Mutex@@QAEXXZ				; Mutex::Unlock
EXTRN	__imp__InitializeCriticalSection@4:PROC
EXTRN	__imp__EnterCriticalSection@4:PROC
EXTRN	__imp__LeaveCriticalSection@4:PROC
EXTRN	__imp__DeleteCriticalSection@4:PROC
; Function compile flags: /Odspy
; File D:\Metin2 Server Files\mainline\SRC_2014\Metin2Client\EterLib\Mutex.cpp
;	COMDAT ?Unlock@Mutex@@QAEXXZ
_TEXT	SEGMENT
_this$ = -4						; size = 4
?Unlock@Mutex@@QAEXXZ PROC				; Mutex::Unlock, COMDAT
; _this$ = ecx

; 20   : {

  00000	55		 push	 ebp
  00001	8b ec		 mov	 ebp, esp
  00003	51		 push	 ecx
  00004	89 4d fc	 mov	 DWORD PTR _this$[ebp], ecx

; 21   : 	LeaveCriticalSection(&lock);

  00007	ff 75 fc	 push	 DWORD PTR _this$[ebp]
  0000a	ff 15 00 00 00
	00		 call	 DWORD PTR __imp__LeaveCriticalSection@4

; 22   : }

  00010	c9		 leave
  00011	c3		 ret	 0
?Unlock@Mutex@@QAEXXZ ENDP				; Mutex::Unlock
_TEXT	ENDS
; Function compile flags: /Odspy
; File D:\Metin2 Server Files\mainline\SRC_2014\Metin2Client\EterLib\Mutex.cpp
;	COMDAT ?Lock@Mutex@@QAEXXZ
_TEXT	SEGMENT
_this$ = -4						; size = 4
?Lock@Mutex@@QAEXXZ PROC				; Mutex::Lock, COMDAT
; _this$ = ecx

; 15   : {

  00000	55		 push	 ebp
  00001	8b ec		 mov	 ebp, esp
  00003	51		 push	 ecx
  00004	89 4d fc	 mov	 DWORD PTR _this$[ebp], ecx

; 16   : 	EnterCriticalSection(&lock);

  00007	ff 75 fc	 push	 DWORD PTR _this$[ebp]
  0000a	ff 15 00 00 00
	00		 call	 DWORD PTR __imp__EnterCriticalSection@4

; 17   : }

  00010	c9		 leave
  00011	c3		 ret	 0
?Lock@Mutex@@QAEXXZ ENDP				; Mutex::Lock
_TEXT	ENDS
; Function compile flags: /Odspy
; File D:\Metin2 Server Files\mainline\SRC_2014\Metin2Client\EterLib\Mutex.cpp
;	COMDAT ??1Mutex@@QAE@XZ
_TEXT	SEGMENT
_this$ = -4						; size = 4
??1Mutex@@QAE@XZ PROC					; Mutex::~Mutex, COMDAT
; _this$ = ecx

; 10   : {

  00000	55		 push	 ebp
  00001	8b ec		 mov	 ebp, esp
  00003	51		 push	 ecx
  00004	89 4d fc	 mov	 DWORD PTR _this$[ebp], ecx

; 11   : 	DeleteCriticalSection(&lock);

  00007	ff 75 fc	 push	 DWORD PTR _this$[ebp]
  0000a	ff 15 00 00 00
	00		 call	 DWORD PTR __imp__DeleteCriticalSection@4

; 12   : }

  00010	c9		 leave
  00011	c3		 ret	 0
??1Mutex@@QAE@XZ ENDP					; Mutex::~Mutex
_TEXT	ENDS
; Function compile flags: /Odspy
; File D:\Metin2 Server Files\mainline\SRC_2014\Metin2Client\EterLib\Mutex.cpp
;	COMDAT ??0Mutex@@QAE@XZ
_TEXT	SEGMENT
_this$ = -4						; size = 4
??0Mutex@@QAE@XZ PROC					; Mutex::Mutex, COMDAT
; _this$ = ecx

; 5    : {

  00000	55		 push	 ebp
  00001	8b ec		 mov	 ebp, esp
  00003	51		 push	 ecx
  00004	89 4d fc	 mov	 DWORD PTR _this$[ebp], ecx

; 6    : 	InitializeCriticalSection(&lock);

  00007	ff 75 fc	 push	 DWORD PTR _this$[ebp]
  0000a	ff 15 00 00 00
	00		 call	 DWORD PTR __imp__InitializeCriticalSection@4

; 7    : }

  00010	8b 45 fc	 mov	 eax, DWORD PTR _this$[ebp]
  00013	c9		 leave
  00014	c3		 ret	 0
??0Mutex@@QAE@XZ ENDP					; Mutex::Mutex
_TEXT	ENDS
END
