; Listing generated by Microsoft (R) Optimizing Compiler Version 19.28.29335.0 

	TITLE	D:\Metin2 Server Files\mainline\SRC_2014\Metin2Client\EterLib\NetDatagram.cpp
	.686P
	.XMM
	include listing.inc
	.model	flat

INCLUDELIB LIBCMT
INCLUDELIB OLDNAMES

PUBLIC	??0CNetworkDatagram@@QAE@XZ			; CNetworkDatagram::CNetworkDatagram
PUBLIC	??1CNetworkDatagram@@UAE@XZ			; CNetworkDatagram::~CNetworkDatagram
PUBLIC	?Destroy@CNetworkDatagram@@QAEXXZ		; CNetworkDatagram::Destroy
PUBLIC	?Create@CNetworkDatagram@@QAE_NI@Z		; CNetworkDatagram::Create
PUBLIC	?Update@CNetworkDatagram@@QAEXXZ		; CNetworkDatagram::Update
PUBLIC	?CanRecv@CNetworkDatagram@@QAE_NXZ		; CNetworkDatagram::CanRecv
PUBLIC	?PeekRecvFrom@CNetworkDatagram@@QAEHIPAXPAUsockaddr_in@@@Z ; CNetworkDatagram::PeekRecvFrom
PUBLIC	?RecvFrom@CNetworkDatagram@@QAEHIPAXPAUsockaddr_in@@@Z ; CNetworkDatagram::RecvFrom
PUBLIC	?SendTo@CNetworkDatagram@@QAEHIPBXABUsockaddr_in@@@Z ; CNetworkDatagram::SendTo
PUBLIC	?__Initialize@CNetworkDatagram@@AAEXXZ		; CNetworkDatagram::__Initialize
PUBLIC	??_GCNetworkDatagram@@UAEPAXI@Z			; CNetworkDatagram::`scalar deleting destructor'
PUBLIC	??_7CNetworkDatagram@@6B@			; CNetworkDatagram::`vftable'
PUBLIC	??_R4CNetworkDatagram@@6B@			; CNetworkDatagram::`RTTI Complete Object Locator'
PUBLIC	??_R0?AVCNetworkDatagram@@@8			; CNetworkDatagram `RTTI Type Descriptor'
PUBLIC	??_R3CNetworkDatagram@@8			; CNetworkDatagram::`RTTI Class Hierarchy Descriptor'
PUBLIC	??_R2CNetworkDatagram@@8			; CNetworkDatagram::`RTTI Base Class Array'
PUBLIC	??_R1A@?0A@EA@CNetworkDatagram@@8		; CNetworkDatagram::`RTTI Base Class Descriptor at (0,-1,0,64)'
EXTRN	??3@YAXPAXI@Z:PROC				; operator delete
EXTRN	_memset:PROC
EXTRN	___WSAFDIsSet@8:PROC
EXTRN	_bind@12:PROC
EXTRN	_closesocket@4:PROC
EXTRN	_ioctlsocket@12:PROC
EXTRN	_htons@4:PROC
EXTRN	_recvfrom@24:PROC
EXTRN	_select@20:PROC
EXTRN	_sendto@24:PROC
EXTRN	_socket@12:PROC
EXTRN	??_ECNetworkDatagram@@UAEPAXI@Z:PROC		; CNetworkDatagram::`vector deleting destructor'
EXTRN	@__security_check_cookie@4:PROC
EXTRN	___CxxFrameHandler3:PROC
EXTRN	??_7type_info@@6B@:QWORD			; type_info::`vftable'
EXTRN	___security_cookie:DWORD
;	COMDAT ??_R1A@?0A@EA@CNetworkDatagram@@8
rdata$r	SEGMENT
??_R1A@?0A@EA@CNetworkDatagram@@8 DD FLAT:??_R0?AVCNetworkDatagram@@@8 ; CNetworkDatagram::`RTTI Base Class Descriptor at (0,-1,0,64)'
	DD	00H
	DD	00H
	DD	0ffffffffH
	DD	00H
	DD	040H
	DD	FLAT:??_R3CNetworkDatagram@@8
rdata$r	ENDS
;	COMDAT ??_R2CNetworkDatagram@@8
rdata$r	SEGMENT
??_R2CNetworkDatagram@@8 DD FLAT:??_R1A@?0A@EA@CNetworkDatagram@@8 ; CNetworkDatagram::`RTTI Base Class Array'
rdata$r	ENDS
;	COMDAT ??_R3CNetworkDatagram@@8
rdata$r	SEGMENT
??_R3CNetworkDatagram@@8 DD 00H				; CNetworkDatagram::`RTTI Class Hierarchy Descriptor'
	DD	00H
	DD	01H
	DD	FLAT:??_R2CNetworkDatagram@@8
rdata$r	ENDS
;	COMDAT ??_R0?AVCNetworkDatagram@@@8
data$rs	SEGMENT
??_R0?AVCNetworkDatagram@@@8 DD FLAT:??_7type_info@@6B@	; CNetworkDatagram `RTTI Type Descriptor'
	DD	00H
	DB	'.?AVCNetworkDatagram@@', 00H
data$rs	ENDS
;	COMDAT ??_R4CNetworkDatagram@@6B@
rdata$r	SEGMENT
??_R4CNetworkDatagram@@6B@ DD 00H			; CNetworkDatagram::`RTTI Complete Object Locator'
	DD	00H
	DD	00H
	DD	FLAT:??_R0?AVCNetworkDatagram@@@8
	DD	FLAT:??_R3CNetworkDatagram@@8
rdata$r	ENDS
;	COMDAT ??_7CNetworkDatagram@@6B@
CONST	SEGMENT
??_7CNetworkDatagram@@6B@ DD FLAT:??_R4CNetworkDatagram@@6B@ ; CNetworkDatagram::`vftable'
	DD	FLAT:??_ECNetworkDatagram@@UAEPAXI@Z
CONST	ENDS
;	COMDAT xdata$x
xdata$x	SEGMENT
__ehfuncinfo$??1CNetworkDatagram@@UAE@XZ DD 019930522H
	DD	00H
	DD	00H
	DD	2 DUP(00H)
	DD	2 DUP(00H)
	DD	00H
	DD	05H
xdata$x	ENDS
; Function compile flags: /Odspy
;	COMDAT ??_GCNetworkDatagram@@UAEPAXI@Z
_TEXT	SEGMENT
_this$ = -4						; size = 4
___flags$ = 8						; size = 4
??_GCNetworkDatagram@@UAEPAXI@Z PROC			; CNetworkDatagram::`scalar deleting destructor', COMDAT
; _this$ = ecx
  00000	55		 push	 ebp
  00001	8b ec		 mov	 ebp, esp
  00003	51		 push	 ecx
  00004	89 4d fc	 mov	 DWORD PTR _this$[ebp], ecx
  00007	8b 4d fc	 mov	 ecx, DWORD PTR _this$[ebp]
  0000a	e8 00 00 00 00	 call	 ??1CNetworkDatagram@@UAE@XZ ; CNetworkDatagram::~CNetworkDatagram
  0000f	8b 45 08	 mov	 eax, DWORD PTR ___flags$[ebp]
  00012	83 e0 01	 and	 eax, 1
  00015	74 0f		 je	 SHORT $LN2@scalar
  00017	68 10 02 00 00	 push	 528			; 00000210H
  0001c	ff 75 fc	 push	 DWORD PTR _this$[ebp]
  0001f	e8 00 00 00 00	 call	 ??3@YAXPAXI@Z		; operator delete
  00024	59		 pop	 ecx
  00025	59		 pop	 ecx
$LN2@scalar:
  00026	8b 45 fc	 mov	 eax, DWORD PTR _this$[ebp]
  00029	c9		 leave
  0002a	c2 04 00	 ret	 4
??_GCNetworkDatagram@@UAEPAXI@Z ENDP			; CNetworkDatagram::`scalar deleting destructor'
_TEXT	ENDS
; Function compile flags: /Odspy
; File D:\Metin2 Server Files\mainline\SRC_2014\Metin2Client\EterLib\NetDatagram.cpp
;	COMDAT ?__Initialize@CNetworkDatagram@@AAEXXZ
_TEXT	SEGMENT
_this$ = -4						; size = 4
?__Initialize@CNetworkDatagram@@AAEXXZ PROC		; CNetworkDatagram::__Initialize, COMDAT
; _this$ = ecx

; 97   : {

  00000	55		 push	 ebp
  00001	8b ec		 mov	 ebp, esp
  00003	51		 push	 ecx
  00004	89 4d fc	 mov	 DWORD PTR _this$[ebp], ecx

; 98   : 	m_sock=INVALID_SOCKET;

  00007	8b 45 fc	 mov	 eax, DWORD PTR _this$[ebp]
  0000a	83 48 04 ff	 or	 DWORD PTR [eax+4], -1

; 99   : }

  0000e	c9		 leave
  0000f	c3		 ret	 0
?__Initialize@CNetworkDatagram@@AAEXXZ ENDP		; CNetworkDatagram::__Initialize
_TEXT	ENDS
; Function compile flags: /Odspy
; File D:\Metin2 Server Files\mainline\SRC_2014\Metin2Client\EterLib\NetDatagram.cpp
;	COMDAT ?SendTo@CNetworkDatagram@@QAEHIPBXABUsockaddr_in@@@Z
_TEXT	SEGMENT
_this$ = -4						; size = 4
_uBufLen$ = 8						; size = 4
_c_pvBuf$ = 12						; size = 4
_c_rkSockAddrIn$ = 16					; size = 4
?SendTo@CNetworkDatagram@@QAEHIPBXABUsockaddr_in@@@Z PROC ; CNetworkDatagram::SendTo, COMDAT
; _this$ = ecx

; 91   : {

  00000	55		 push	 ebp
  00001	8b ec		 mov	 ebp, esp
  00003	51		 push	 ecx
  00004	89 4d fc	 mov	 DWORD PTR _this$[ebp], ecx

; 92   : 	return sendto(m_sock, (const char *)c_pvBuf, uBufLen, 0, (PSOCKADDR)&c_rkSockAddrIn, sizeof(SOCKADDR_IN));

  00007	6a 10		 push	 16			; 00000010H
  00009	ff 75 10	 push	 DWORD PTR _c_rkSockAddrIn$[ebp]
  0000c	6a 00		 push	 0
  0000e	ff 75 08	 push	 DWORD PTR _uBufLen$[ebp]
  00011	ff 75 0c	 push	 DWORD PTR _c_pvBuf$[ebp]
  00014	8b 45 fc	 mov	 eax, DWORD PTR _this$[ebp]
  00017	ff 70 04	 push	 DWORD PTR [eax+4]
  0001a	e8 00 00 00 00	 call	 _sendto@24

; 93   : }

  0001f	c9		 leave
  00020	c2 0c 00	 ret	 12			; 0000000cH
?SendTo@CNetworkDatagram@@QAEHIPBXABUsockaddr_in@@@Z ENDP ; CNetworkDatagram::SendTo
_TEXT	ENDS
; Function compile flags: /Odspy
; File D:\Metin2 Server Files\mainline\SRC_2014\Metin2Client\EterLib\NetDatagram.cpp
;	COMDAT ?RecvFrom@CNetworkDatagram@@QAEHIPAXPAUsockaddr_in@@@Z
_TEXT	SEGMENT
_this$ = -8						; size = 4
_nSockAddrInLen$ = -4					; size = 4
_uBufLen$ = 8						; size = 4
_pvBuf$ = 12						; size = 4
_pkSockAddrIn$ = 16					; size = 4
?RecvFrom@CNetworkDatagram@@QAEHIPAXPAUsockaddr_in@@@Z PROC ; CNetworkDatagram::RecvFrom, COMDAT
; _this$ = ecx

; 85   : {

  00000	55		 push	 ebp
  00001	8b ec		 mov	 ebp, esp
  00003	51		 push	 ecx
  00004	51		 push	 ecx
  00005	89 4d f8	 mov	 DWORD PTR _this$[ebp], ecx

; 86   : 	int nSockAddrInLen=sizeof(SOCKADDR_IN);

  00008	c7 45 fc 10 00
	00 00		 mov	 DWORD PTR _nSockAddrInLen$[ebp], 16 ; 00000010H

; 87   : 	return recvfrom(m_sock, (char*)pvBuf, uBufLen, 0, (PSOCKADDR)pkSockAddrIn, &nSockAddrInLen);

  0000f	8d 45 fc	 lea	 eax, DWORD PTR _nSockAddrInLen$[ebp]
  00012	50		 push	 eax
  00013	ff 75 10	 push	 DWORD PTR _pkSockAddrIn$[ebp]
  00016	6a 00		 push	 0
  00018	ff 75 08	 push	 DWORD PTR _uBufLen$[ebp]
  0001b	ff 75 0c	 push	 DWORD PTR _pvBuf$[ebp]
  0001e	8b 45 f8	 mov	 eax, DWORD PTR _this$[ebp]
  00021	ff 70 04	 push	 DWORD PTR [eax+4]
  00024	e8 00 00 00 00	 call	 _recvfrom@24

; 88   : }

  00029	c9		 leave
  0002a	c2 0c 00	 ret	 12			; 0000000cH
?RecvFrom@CNetworkDatagram@@QAEHIPAXPAUsockaddr_in@@@Z ENDP ; CNetworkDatagram::RecvFrom
_TEXT	ENDS
; Function compile flags: /Odspy
; File D:\Metin2 Server Files\mainline\SRC_2014\Metin2Client\EterLib\NetDatagram.cpp
;	COMDAT ?PeekRecvFrom@CNetworkDatagram@@QAEHIPAXPAUsockaddr_in@@@Z
_TEXT	SEGMENT
_this$ = -8						; size = 4
_nSockAddrInLen$ = -4					; size = 4
_uBufLen$ = 8						; size = 4
_pvBuf$ = 12						; size = 4
_pkSockAddrIn$ = 16					; size = 4
?PeekRecvFrom@CNetworkDatagram@@QAEHIPAXPAUsockaddr_in@@@Z PROC ; CNetworkDatagram::PeekRecvFrom, COMDAT
; _this$ = ecx

; 79   : {

  00000	55		 push	 ebp
  00001	8b ec		 mov	 ebp, esp
  00003	51		 push	 ecx
  00004	51		 push	 ecx
  00005	89 4d f8	 mov	 DWORD PTR _this$[ebp], ecx

; 80   : 	int nSockAddrInLen=sizeof(SOCKADDR_IN);

  00008	c7 45 fc 10 00
	00 00		 mov	 DWORD PTR _nSockAddrInLen$[ebp], 16 ; 00000010H

; 81   : 	return recvfrom(m_sock, (char*)pvBuf, uBufLen, MSG_PEEK, (PSOCKADDR)pkSockAddrIn, &nSockAddrInLen);

  0000f	8d 45 fc	 lea	 eax, DWORD PTR _nSockAddrInLen$[ebp]
  00012	50		 push	 eax
  00013	ff 75 10	 push	 DWORD PTR _pkSockAddrIn$[ebp]
  00016	6a 02		 push	 2
  00018	ff 75 08	 push	 DWORD PTR _uBufLen$[ebp]
  0001b	ff 75 0c	 push	 DWORD PTR _pvBuf$[ebp]
  0001e	8b 45 f8	 mov	 eax, DWORD PTR _this$[ebp]
  00021	ff 70 04	 push	 DWORD PTR [eax+4]
  00024	e8 00 00 00 00	 call	 _recvfrom@24

; 82   : }

  00029	c9		 leave
  0002a	c2 0c 00	 ret	 12			; 0000000cH
?PeekRecvFrom@CNetworkDatagram@@QAEHIPAXPAUsockaddr_in@@@Z ENDP ; CNetworkDatagram::PeekRecvFrom
_TEXT	ENDS
; Function compile flags: /Odspy
; File D:\Metin2 Server Files\mainline\SRC_2014\Metin2Client\EterLib\NetDatagram.cpp
;	COMDAT ?CanRecv@CNetworkDatagram@@QAE_NXZ
_TEXT	SEGMENT
_this$ = -4						; size = 4
?CanRecv@CNetworkDatagram@@QAE_NXZ PROC			; CNetworkDatagram::CanRecv, COMDAT
; _this$ = ecx

; 70   : {

  00000	55		 push	 ebp
  00001	8b ec		 mov	 ebp, esp
  00003	51		 push	 ecx
  00004	89 4d fc	 mov	 DWORD PTR _this$[ebp], ecx

; 71   : 	if (FD_ISSET(m_sock, &m_fdsRecv))

  00007	8b 45 fc	 mov	 eax, DWORD PTR _this$[ebp]
  0000a	83 c0 08	 add	 eax, 8
  0000d	50		 push	 eax
  0000e	8b 45 fc	 mov	 eax, DWORD PTR _this$[ebp]
  00011	ff 70 04	 push	 DWORD PTR [eax+4]
  00014	e8 00 00 00 00	 call	 ___WSAFDIsSet@8
  00019	85 c0		 test	 eax, eax
  0001b	74 04		 je	 SHORT $LN2@CanRecv

; 72   : 		return true;

  0001d	b0 01		 mov	 al, 1
  0001f	eb 02		 jmp	 SHORT $LN1@CanRecv
$LN2@CanRecv:

; 73   : 
; 74   : 	return false;

  00021	32 c0		 xor	 al, al
$LN1@CanRecv:

; 75   : }

  00023	c9		 leave
  00024	c3		 ret	 0
?CanRecv@CNetworkDatagram@@QAE_NXZ ENDP			; CNetworkDatagram::CanRecv
_TEXT	ENDS
; Function compile flags: /Odspy
; File D:\Metin2 Server Files\mainline\SRC_2014\Metin2Client\EterLib\NetDatagram.cpp
;	COMDAT ?Update@CNetworkDatagram@@QAEXXZ
_TEXT	SEGMENT
_delay$ = -12						; size = 8
_this$ = -4						; size = 4
?Update@CNetworkDatagram@@QAEXXZ PROC			; CNetworkDatagram::Update, COMDAT
; _this$ = ecx

; 49   : {

  00000	55		 push	 ebp
  00001	8b ec		 mov	 ebp, esp
  00003	83 ec 0c	 sub	 esp, 12			; 0000000cH
  00006	89 4d fc	 mov	 DWORD PTR _this$[ebp], ecx

; 50   : 	if (m_sock == INVALID_SOCKET)

  00009	8b 45 fc	 mov	 eax, DWORD PTR _this$[ebp]
  0000c	83 78 04 ff	 cmp	 DWORD PTR [eax+4], -1
  00010	75 05		 jne	 SHORT $LN8@Update

; 51   : 		return;

  00012	e9 9f 00 00 00	 jmp	 $LN1@Update
$LN8@Update:

; 52   : 
; 53   : 	FD_ZERO(&m_fdsRecv);

  00017	8b 45 fc	 mov	 eax, DWORD PTR _this$[ebp]
  0001a	83 60 08 00	 and	 DWORD PTR [eax+8], 0

; 54   : 	FD_ZERO(&m_fdsSend);

  0001e	8b 45 fc	 mov	 eax, DWORD PTR _this$[ebp]
  00021	83 a0 0c 01 00
	00 00		 and	 DWORD PTR [eax+268], 0
$LN4@Update:

; 55   : 
; 56   : 	FD_SET(m_sock, &m_fdsRecv);

  00028	8b 45 fc	 mov	 eax, DWORD PTR _this$[ebp]
  0002b	83 78 08 40	 cmp	 DWORD PTR [eax+8], 64	; 00000040H
  0002f	73 20		 jae	 SHORT $LN2@Update
  00031	8b 45 fc	 mov	 eax, DWORD PTR _this$[ebp]
  00034	8b 40 08	 mov	 eax, DWORD PTR [eax+8]
  00037	8b 4d fc	 mov	 ecx, DWORD PTR _this$[ebp]
  0003a	8b 55 fc	 mov	 edx, DWORD PTR _this$[ebp]
  0003d	8b 52 04	 mov	 edx, DWORD PTR [edx+4]
  00040	89 54 81 0c	 mov	 DWORD PTR [ecx+eax*4+12], edx
  00044	8b 45 fc	 mov	 eax, DWORD PTR _this$[ebp]
  00047	8b 40 08	 mov	 eax, DWORD PTR [eax+8]
  0004a	40		 inc	 eax
  0004b	8b 4d fc	 mov	 ecx, DWORD PTR _this$[ebp]
  0004e	89 41 08	 mov	 DWORD PTR [ecx+8], eax
$LN2@Update:
  00051	33 c0		 xor	 eax, eax
  00053	75 d3		 jne	 SHORT $LN4@Update
$LN7@Update:

; 57   : 	FD_SET(m_sock, &m_fdsSend);

  00055	8b 45 fc	 mov	 eax, DWORD PTR _this$[ebp]
  00058	83 b8 0c 01 00
	00 40		 cmp	 DWORD PTR [eax+268], 64	; 00000040H
  0005f	73 2c		 jae	 SHORT $LN5@Update
  00061	8b 45 fc	 mov	 eax, DWORD PTR _this$[ebp]
  00064	8b 80 0c 01 00
	00		 mov	 eax, DWORD PTR [eax+268]
  0006a	8b 4d fc	 mov	 ecx, DWORD PTR _this$[ebp]
  0006d	8b 55 fc	 mov	 edx, DWORD PTR _this$[ebp]
  00070	8b 52 04	 mov	 edx, DWORD PTR [edx+4]
  00073	89 94 81 10 01
	00 00		 mov	 DWORD PTR [ecx+eax*4+272], edx
  0007a	8b 45 fc	 mov	 eax, DWORD PTR _this$[ebp]
  0007d	8b 80 0c 01 00
	00		 mov	 eax, DWORD PTR [eax+268]
  00083	40		 inc	 eax
  00084	8b 4d fc	 mov	 ecx, DWORD PTR _this$[ebp]
  00087	89 81 0c 01 00
	00		 mov	 DWORD PTR [ecx+268], eax
$LN5@Update:
  0008d	33 c0		 xor	 eax, eax
  0008f	75 c4		 jne	 SHORT $LN7@Update

; 58   : 
; 59   : 	TIMEVAL delay;
; 60   : 
; 61   : 	delay.tv_sec = 0;

  00091	83 65 f4 00	 and	 DWORD PTR _delay$[ebp], 0

; 62   : 	delay.tv_usec = 0;

  00095	83 65 f8 00	 and	 DWORD PTR _delay$[ebp+4], 0

; 63   : 	
; 64   : 	if (select(0, &m_fdsRecv, &m_fdsSend, NULL, &delay) == SOCKET_ERROR)

  00099	8d 45 f4	 lea	 eax, DWORD PTR _delay$[ebp]
  0009c	50		 push	 eax
  0009d	6a 00		 push	 0
  0009f	8b 45 fc	 mov	 eax, DWORD PTR _this$[ebp]
  000a2	05 0c 01 00 00	 add	 eax, 268		; 0000010cH
  000a7	50		 push	 eax
  000a8	8b 45 fc	 mov	 eax, DWORD PTR _this$[ebp]
  000ab	83 c0 08	 add	 eax, 8
  000ae	50		 push	 eax
  000af	6a 00		 push	 0
  000b1	e8 00 00 00 00	 call	 _select@20
$LN1@Update:

; 65   : 		return;
; 66   : }

  000b6	c9		 leave
  000b7	c3		 ret	 0
?Update@CNetworkDatagram@@QAEXXZ ENDP			; CNetworkDatagram::Update
_TEXT	ENDS
; Function compile flags: /Odspy
; File D:\Metin2 Server Files\mainline\SRC_2014\Metin2Client\EterLib\NetDatagram.cpp
;	COMDAT ?Create@CNetworkDatagram@@QAE_NI@Z
_TEXT	SEGMENT
_arg$ = -28						; size = 4
_this$ = -24						; size = 4
_sockAddrIn$ = -20					; size = 16
__$ArrayPad$ = -4					; size = 4
_uPort$ = 8						; size = 4
?Create@CNetworkDatagram@@QAE_NI@Z PROC			; CNetworkDatagram::Create, COMDAT
; _this$ = ecx

; 25   : {

  00000	55		 push	 ebp
  00001	8b ec		 mov	 ebp, esp
  00003	83 ec 1c	 sub	 esp, 28			; 0000001cH
  00006	a1 00 00 00 00	 mov	 eax, DWORD PTR ___security_cookie
  0000b	33 c5		 xor	 eax, ebp
  0000d	89 45 fc	 mov	 DWORD PTR __$ArrayPad$[ebp], eax
  00010	89 4d e8	 mov	 DWORD PTR _this$[ebp], ecx

; 26   : 	assert(INVALID_SOCKET==m_sock);
; 27   : 	m_sock = socket(AF_INET, SOCK_DGRAM, 0);

  00013	6a 00		 push	 0
  00015	6a 02		 push	 2
  00017	6a 02		 push	 2
  00019	e8 00 00 00 00	 call	 _socket@12
  0001e	8b 4d e8	 mov	 ecx, DWORD PTR _this$[ebp]
  00021	89 41 04	 mov	 DWORD PTR [ecx+4], eax

; 28   : 
; 29   : 	DWORD arg = 1;

  00024	c7 45 e4 01 00
	00 00		 mov	 DWORD PTR _arg$[ebp], 1

; 30   : 	ioctlsocket(m_sock, FIONBIO, &arg);	// Non-blocking mode

  0002b	8d 45 e4	 lea	 eax, DWORD PTR _arg$[ebp]
  0002e	50		 push	 eax
  0002f	68 7e 66 04 80	 push	 -2147195266		; 8004667eH
  00034	8b 45 e8	 mov	 eax, DWORD PTR _this$[ebp]
  00037	ff 70 04	 push	 DWORD PTR [eax+4]
  0003a	e8 00 00 00 00	 call	 _ioctlsocket@12

; 31   : 
; 32   : 	SOCKADDR_IN sockAddrIn;
; 33   : 	memset(&sockAddrIn, 0, sizeof(SOCKADDR_IN));

  0003f	6a 10		 push	 16			; 00000010H
  00041	6a 00		 push	 0
  00043	8d 45 ec	 lea	 eax, DWORD PTR _sockAddrIn$[ebp]
  00046	50		 push	 eax
  00047	e8 00 00 00 00	 call	 _memset
  0004c	83 c4 0c	 add	 esp, 12			; 0000000cH

; 34   : 	sockAddrIn.sin_family = AF_INET;

  0004f	6a 02		 push	 2
  00051	58		 pop	 eax
  00052	66 89 45 ec	 mov	 WORD PTR _sockAddrIn$[ebp], ax

; 35   : 	sockAddrIn.sin_addr.s_addr = INADDR_ANY;

  00056	83 65 f0 00	 and	 DWORD PTR _sockAddrIn$[ebp+4], 0

; 36   : 	sockAddrIn.sin_port = htons(uPort);

  0005a	ff 75 08	 push	 DWORD PTR _uPort$[ebp]
  0005d	e8 00 00 00 00	 call	 _htons@4
  00062	66 89 45 ee	 mov	 WORD PTR _sockAddrIn$[ebp+2], ax

; 37   : 
; 38   : 	if (SOCKET_ERROR == bind(m_sock, (PSOCKADDR)&sockAddrIn, sizeof(SOCKADDR_IN)))

  00066	6a 10		 push	 16			; 00000010H
  00068	8d 45 ec	 lea	 eax, DWORD PTR _sockAddrIn$[ebp]
  0006b	50		 push	 eax
  0006c	8b 45 e8	 mov	 eax, DWORD PTR _this$[ebp]
  0006f	ff 70 04	 push	 DWORD PTR [eax+4]
  00072	e8 00 00 00 00	 call	 _bind@12
  00077	83 f8 ff	 cmp	 eax, -1
  0007a	75 04		 jne	 SHORT $LN2@Create

; 39   : 	{
; 40   : 		return false;

  0007c	32 c0		 xor	 al, al
  0007e	eb 02		 jmp	 SHORT $LN1@Create
$LN2@Create:

; 41   : 	}
; 42   : 
; 43   : 	return true;

  00080	b0 01		 mov	 al, 1
$LN1@Create:

; 44   : }

  00082	8b 4d fc	 mov	 ecx, DWORD PTR __$ArrayPad$[ebp]
  00085	33 cd		 xor	 ecx, ebp
  00087	e8 00 00 00 00	 call	 @__security_check_cookie@4
  0008c	c9		 leave
  0008d	c2 04 00	 ret	 4
?Create@CNetworkDatagram@@QAE_NI@Z ENDP			; CNetworkDatagram::Create
_TEXT	ENDS
; Function compile flags: /Odspy
; File D:\Metin2 Server Files\mainline\SRC_2014\Metin2Client\EterLib\NetDatagram.cpp
;	COMDAT ?Destroy@CNetworkDatagram@@QAEXXZ
_TEXT	SEGMENT
_this$ = -4						; size = 4
?Destroy@CNetworkDatagram@@QAEXXZ PROC			; CNetworkDatagram::Destroy, COMDAT
; _this$ = ecx

; 15   : {

  00000	55		 push	 ebp
  00001	8b ec		 mov	 ebp, esp
  00003	51		 push	 ecx
  00004	89 4d fc	 mov	 DWORD PTR _this$[ebp], ecx

; 16   : 	if (INVALID_SOCKET==m_sock)

  00007	8b 45 fc	 mov	 eax, DWORD PTR _this$[ebp]
  0000a	83 78 04 ff	 cmp	 DWORD PTR [eax+4], -1
  0000e	75 02		 jne	 SHORT $LN2@Destroy

; 17   : 		return;

  00010	eb 13		 jmp	 SHORT $LN1@Destroy
$LN2@Destroy:

; 18   : 
; 19   : 	closesocket(m_sock);

  00012	8b 45 fc	 mov	 eax, DWORD PTR _this$[ebp]
  00015	ff 70 04	 push	 DWORD PTR [eax+4]
  00018	e8 00 00 00 00	 call	 _closesocket@4

; 20   : 	
; 21   : 	__Initialize();

  0001d	8b 4d fc	 mov	 ecx, DWORD PTR _this$[ebp]
  00020	e8 00 00 00 00	 call	 ?__Initialize@CNetworkDatagram@@AAEXXZ ; CNetworkDatagram::__Initialize
$LN1@Destroy:

; 22   : }

  00025	c9		 leave
  00026	c3		 ret	 0
?Destroy@CNetworkDatagram@@QAEXXZ ENDP			; CNetworkDatagram::Destroy
_TEXT	ENDS
; Function compile flags: /Odspy
; File D:\Metin2 Server Files\mainline\SRC_2014\Metin2Client\EterLib\NetDatagram.cpp
;	COMDAT ??1CNetworkDatagram@@UAE@XZ
_TEXT	SEGMENT
_this$ = -16						; size = 4
__$EHRec$ = -12						; size = 12
??1CNetworkDatagram@@UAE@XZ PROC			; CNetworkDatagram::~CNetworkDatagram, COMDAT
; _this$ = ecx

; 10   : {

  00000	55		 push	 ebp
  00001	8b ec		 mov	 ebp, esp
  00003	6a ff		 push	 -1
  00005	68 00 00 00 00	 push	 __ehhandler$??1CNetworkDatagram@@UAE@XZ
  0000a	64 a1 00 00 00
	00		 mov	 eax, DWORD PTR fs:0
  00010	50		 push	 eax
  00011	51		 push	 ecx
  00012	a1 00 00 00 00	 mov	 eax, DWORD PTR ___security_cookie
  00017	33 c5		 xor	 eax, ebp
  00019	50		 push	 eax
  0001a	8d 45 f4	 lea	 eax, DWORD PTR __$EHRec$[ebp]
  0001d	64 a3 00 00 00
	00		 mov	 DWORD PTR fs:0, eax
  00023	89 4d f0	 mov	 DWORD PTR _this$[ebp], ecx
  00026	8b 45 f0	 mov	 eax, DWORD PTR _this$[ebp]
  00029	c7 00 00 00 00
	00		 mov	 DWORD PTR [eax], OFFSET ??_7CNetworkDatagram@@6B@

; 11   : 	Destroy();

  0002f	8b 4d f0	 mov	 ecx, DWORD PTR _this$[ebp]
  00032	e8 00 00 00 00	 call	 ?Destroy@CNetworkDatagram@@QAEXXZ ; CNetworkDatagram::Destroy

; 12   : }

  00037	8b 4d f4	 mov	 ecx, DWORD PTR __$EHRec$[ebp]
  0003a	64 89 0d 00 00
	00 00		 mov	 DWORD PTR fs:0, ecx
  00041	59		 pop	 ecx
  00042	c9		 leave
  00043	c3		 ret	 0
  00044	cc		 int	 3
  00045	cc		 int	 3
  00046	cc		 int	 3
  00047	cc		 int	 3
  00048	cc		 int	 3
_TEXT	ENDS
;	COMDAT text$x
text$x	SEGMENT
__ehhandler$??1CNetworkDatagram@@UAE@XZ:
  00000	90		 npad	 1
  00001	90		 npad	 1
  00002	8b 54 24 08	 mov	 edx, DWORD PTR [esp+8]
  00006	8d 42 0c	 lea	 eax, DWORD PTR [edx+12]
  00009	8b 4a f8	 mov	 ecx, DWORD PTR [edx-8]
  0000c	33 c8		 xor	 ecx, eax
  0000e	e8 00 00 00 00	 call	 @__security_check_cookie@4
  00013	b8 00 00 00 00	 mov	 eax, OFFSET __ehfuncinfo$??1CNetworkDatagram@@UAE@XZ
  00018	e9 00 00 00 00	 jmp	 ___CxxFrameHandler3
text$x	ENDS
??1CNetworkDatagram@@UAE@XZ ENDP			; CNetworkDatagram::~CNetworkDatagram
; Function compile flags: /Odspy
; File D:\Metin2 Server Files\mainline\SRC_2014\Metin2Client\EterLib\NetDatagram.cpp
;	COMDAT ??0CNetworkDatagram@@QAE@XZ
_TEXT	SEGMENT
_this$ = -4						; size = 4
??0CNetworkDatagram@@QAE@XZ PROC			; CNetworkDatagram::CNetworkDatagram, COMDAT
; _this$ = ecx

; 5    : {

  00000	55		 push	 ebp
  00001	8b ec		 mov	 ebp, esp
  00003	51		 push	 ecx
  00004	89 4d fc	 mov	 DWORD PTR _this$[ebp], ecx
  00007	8b 45 fc	 mov	 eax, DWORD PTR _this$[ebp]
  0000a	c7 00 00 00 00
	00		 mov	 DWORD PTR [eax], OFFSET ??_7CNetworkDatagram@@6B@

; 6    : 	__Initialize();

  00010	8b 4d fc	 mov	 ecx, DWORD PTR _this$[ebp]
  00013	e8 00 00 00 00	 call	 ?__Initialize@CNetworkDatagram@@AAEXXZ ; CNetworkDatagram::__Initialize

; 7    : }

  00018	8b 45 fc	 mov	 eax, DWORD PTR _this$[ebp]
  0001b	c9		 leave
  0001c	c3		 ret	 0
??0CNetworkDatagram@@QAE@XZ ENDP			; CNetworkDatagram::CNetworkDatagram
_TEXT	ENDS
END
