; Listing generated by Microsoft (R) Optimizing Compiler Version 19.28.29335.0 

	TITLE	D:\Metin2 Server Files\mainline\SRC_2014\Metin2Client\EterLib\NetDevice.cpp
	.686P
	.XMM
	include listing.inc
	.model	flat

INCLUDELIB LIBCMT
INCLUDELIB OLDNAMES

PUBLIC	??0CNetworkDevice@@QAE@XZ			; CNetworkDevice::CNetworkDevice
PUBLIC	??1CNetworkDevice@@UAE@XZ			; CNetworkDevice::~CNetworkDevice
PUBLIC	?Destroy@CNetworkDevice@@QAEXXZ			; CNetworkDevice::Destroy
PUBLIC	?Create@CNetworkDevice@@QAE_NXZ			; CNetworkDevice::Create
PUBLIC	?Initialize@CNetworkDevice@@IAEXXZ		; CNetworkDevice::Initialize
PUBLIC	??_GCNetworkDevice@@UAEPAXI@Z			; CNetworkDevice::`scalar deleting destructor'
PUBLIC	??_7CNetworkDevice@@6B@				; CNetworkDevice::`vftable'
PUBLIC	??_R4CNetworkDevice@@6B@			; CNetworkDevice::`RTTI Complete Object Locator'
PUBLIC	??_R0?AVCNetworkDevice@@@8			; CNetworkDevice `RTTI Type Descriptor'
PUBLIC	??_R3CNetworkDevice@@8				; CNetworkDevice::`RTTI Class Hierarchy Descriptor'
PUBLIC	??_R2CNetworkDevice@@8				; CNetworkDevice::`RTTI Base Class Array'
PUBLIC	??_R1A@?0A@EA@CNetworkDevice@@8			; CNetworkDevice::`RTTI Base Class Descriptor at (0,-1,0,64)'
EXTRN	??3@YAXPAXI@Z:PROC				; operator delete
EXTRN	_WSAStartup@8:PROC
EXTRN	_WSACleanup@0:PROC
EXTRN	??_ECNetworkDevice@@UAEPAXI@Z:PROC		; CNetworkDevice::`vector deleting destructor'
EXTRN	@__security_check_cookie@4:PROC
EXTRN	___CxxFrameHandler3:PROC
EXTRN	??_7type_info@@6B@:QWORD			; type_info::`vftable'
EXTRN	___security_cookie:DWORD
;	COMDAT ??_R1A@?0A@EA@CNetworkDevice@@8
rdata$r	SEGMENT
??_R1A@?0A@EA@CNetworkDevice@@8 DD FLAT:??_R0?AVCNetworkDevice@@@8 ; CNetworkDevice::`RTTI Base Class Descriptor at (0,-1,0,64)'
	DD	00H
	DD	00H
	DD	0ffffffffH
	DD	00H
	DD	040H
	DD	FLAT:??_R3CNetworkDevice@@8
rdata$r	ENDS
;	COMDAT ??_R2CNetworkDevice@@8
rdata$r	SEGMENT
??_R2CNetworkDevice@@8 DD FLAT:??_R1A@?0A@EA@CNetworkDevice@@8 ; CNetworkDevice::`RTTI Base Class Array'
rdata$r	ENDS
;	COMDAT ??_R3CNetworkDevice@@8
rdata$r	SEGMENT
??_R3CNetworkDevice@@8 DD 00H				; CNetworkDevice::`RTTI Class Hierarchy Descriptor'
	DD	00H
	DD	01H
	DD	FLAT:??_R2CNetworkDevice@@8
rdata$r	ENDS
;	COMDAT ??_R0?AVCNetworkDevice@@@8
data$rs	SEGMENT
??_R0?AVCNetworkDevice@@@8 DD FLAT:??_7type_info@@6B@	; CNetworkDevice `RTTI Type Descriptor'
	DD	00H
	DB	'.?AVCNetworkDevice@@', 00H
data$rs	ENDS
;	COMDAT ??_R4CNetworkDevice@@6B@
rdata$r	SEGMENT
??_R4CNetworkDevice@@6B@ DD 00H				; CNetworkDevice::`RTTI Complete Object Locator'
	DD	00H
	DD	00H
	DD	FLAT:??_R0?AVCNetworkDevice@@@8
	DD	FLAT:??_R3CNetworkDevice@@8
rdata$r	ENDS
;	COMDAT ??_7CNetworkDevice@@6B@
CONST	SEGMENT
??_7CNetworkDevice@@6B@ DD FLAT:??_R4CNetworkDevice@@6B@ ; CNetworkDevice::`vftable'
	DD	FLAT:??_ECNetworkDevice@@UAEPAXI@Z
CONST	ENDS
;	COMDAT xdata$x
xdata$x	SEGMENT
__ehfuncinfo$??1CNetworkDevice@@UAE@XZ DD 019930522H
	DD	00H
	DD	00H
	DD	2 DUP(00H)
	DD	2 DUP(00H)
	DD	00H
	DD	05H
xdata$x	ENDS
; Function compile flags: /Odspy
;	COMDAT ??_GCNetworkDevice@@UAEPAXI@Z
_TEXT	SEGMENT
_this$ = -4						; size = 4
___flags$ = 8						; size = 4
??_GCNetworkDevice@@UAEPAXI@Z PROC			; CNetworkDevice::`scalar deleting destructor', COMDAT
; _this$ = ecx
  00000	55		 push	 ebp
  00001	8b ec		 mov	 ebp, esp
  00003	51		 push	 ecx
  00004	89 4d fc	 mov	 DWORD PTR _this$[ebp], ecx
  00007	8b 4d fc	 mov	 ecx, DWORD PTR _this$[ebp]
  0000a	e8 00 00 00 00	 call	 ??1CNetworkDevice@@UAE@XZ ; CNetworkDevice::~CNetworkDevice
  0000f	8b 45 08	 mov	 eax, DWORD PTR ___flags$[ebp]
  00012	83 e0 01	 and	 eax, 1
  00015	74 0c		 je	 SHORT $LN2@scalar
  00017	6a 08		 push	 8
  00019	ff 75 fc	 push	 DWORD PTR _this$[ebp]
  0001c	e8 00 00 00 00	 call	 ??3@YAXPAXI@Z		; operator delete
  00021	59		 pop	 ecx
  00022	59		 pop	 ecx
$LN2@scalar:
  00023	8b 45 fc	 mov	 eax, DWORD PTR _this$[ebp]
  00026	c9		 leave
  00027	c2 04 00	 ret	 4
??_GCNetworkDevice@@UAEPAXI@Z ENDP			; CNetworkDevice::`scalar deleting destructor'
_TEXT	ENDS
; Function compile flags: /Odspy
; File D:\Metin2 Server Files\mainline\SRC_2014\Metin2Client\EterLib\NetDevice.cpp
;	COMDAT ?Initialize@CNetworkDevice@@IAEXXZ
_TEXT	SEGMENT
_this$ = -4						; size = 4
?Initialize@CNetworkDevice@@IAEXXZ PROC			; CNetworkDevice::Initialize, COMDAT
; _this$ = ecx

; 15   : {

  00000	55		 push	 ebp
  00001	8b ec		 mov	 ebp, esp
  00003	51		 push	 ecx
  00004	89 4d fc	 mov	 DWORD PTR _this$[ebp], ecx

; 16   : 	m_isWSA=false;

  00007	8b 45 fc	 mov	 eax, DWORD PTR _this$[ebp]
  0000a	c6 40 04 00	 mov	 BYTE PTR [eax+4], 0

; 17   : }

  0000e	c9		 leave
  0000f	c3		 ret	 0
?Initialize@CNetworkDevice@@IAEXXZ ENDP			; CNetworkDevice::Initialize
_TEXT	ENDS
; Function compile flags: /Odspy
; File D:\Metin2 Server Files\mainline\SRC_2014\Metin2Client\EterLib\NetDevice.cpp
;	COMDAT ?Create@CNetworkDevice@@QAE_NXZ
_TEXT	SEGMENT
_this$ = -128						; size = 4
_wsaData$ = -124					; size = 400
__$ArrayPad$ = 276					; size = 4
?Create@CNetworkDevice@@QAE_NXZ PROC			; CNetworkDevice::Create, COMDAT
; _this$ = ecx

; 29   : {

  00000	55		 push	 ebp
  00001	8d ac 24 e8 fe
	ff ff		 lea	 ebp, DWORD PTR [esp-280]
  00008	81 ec 98 01 00
	00		 sub	 esp, 408		; 00000198H
  0000e	a1 00 00 00 00	 mov	 eax, DWORD PTR ___security_cookie
  00013	33 c5		 xor	 eax, ebp
  00015	89 85 14 01 00
	00		 mov	 DWORD PTR __$ArrayPad$[ebp], eax
  0001b	89 4d 80	 mov	 DWORD PTR _this$[ebp], ecx

; 30   : 	Destroy();

  0001e	8b 4d 80	 mov	 ecx, DWORD PTR _this$[ebp]
  00021	e8 00 00 00 00	 call	 ?Destroy@CNetworkDevice@@QAEXXZ ; CNetworkDevice::Destroy

; 31   : 
; 32   : 	Initialize();

  00026	8b 4d 80	 mov	 ecx, DWORD PTR _this$[ebp]
  00029	e8 00 00 00 00	 call	 ?Initialize@CNetworkDevice@@IAEXXZ ; CNetworkDevice::Initialize

; 33   : 
; 34   : 	WSADATA wsaData;
; 35   : 	if (WSAStartup(MAKEWORD(1, 1), &wsaData)!=0)

  0002e	8d 45 84	 lea	 eax, DWORD PTR _wsaData$[ebp]
  00031	50		 push	 eax
  00032	68 01 01 00 00	 push	 257			; 00000101H
  00037	e8 00 00 00 00	 call	 _WSAStartup@8
  0003c	85 c0		 test	 eax, eax
  0003e	74 04		 je	 SHORT $LN2@Create

; 36   : 		return false;

  00040	32 c0		 xor	 al, al
  00042	eb 09		 jmp	 SHORT $LN1@Create
$LN2@Create:

; 37   : 
; 38   : 	m_isWSA=true;

  00044	8b 45 80	 mov	 eax, DWORD PTR _this$[ebp]
  00047	c6 40 04 01	 mov	 BYTE PTR [eax+4], 1

; 39   : 	
; 40   : 	return true;

  0004b	b0 01		 mov	 al, 1
$LN1@Create:

; 41   : }

  0004d	8b 8d 14 01 00
	00		 mov	 ecx, DWORD PTR __$ArrayPad$[ebp]
  00053	33 cd		 xor	 ecx, ebp
  00055	e8 00 00 00 00	 call	 @__security_check_cookie@4
  0005a	81 c5 18 01 00
	00		 add	 ebp, 280		; 00000118H
  00060	c9		 leave
  00061	c3		 ret	 0
?Create@CNetworkDevice@@QAE_NXZ ENDP			; CNetworkDevice::Create
_TEXT	ENDS
; Function compile flags: /Odspy
; File D:\Metin2 Server Files\mainline\SRC_2014\Metin2Client\EterLib\NetDevice.cpp
;	COMDAT ?Destroy@CNetworkDevice@@QAEXXZ
_TEXT	SEGMENT
_this$ = -4						; size = 4
?Destroy@CNetworkDevice@@QAEXXZ PROC			; CNetworkDevice::Destroy, COMDAT
; _this$ = ecx

; 20   : {

  00000	55		 push	 ebp
  00001	8b ec		 mov	 ebp, esp
  00003	51		 push	 ecx
  00004	89 4d fc	 mov	 DWORD PTR _this$[ebp], ecx

; 21   : 	if (m_isWSA)

  00007	8b 45 fc	 mov	 eax, DWORD PTR _this$[ebp]
  0000a	0f b6 40 04	 movzx	 eax, BYTE PTR [eax+4]
  0000e	85 c0		 test	 eax, eax
  00010	74 0c		 je	 SHORT $LN1@Destroy

; 22   : 	{
; 23   : 		WSACleanup();

  00012	e8 00 00 00 00	 call	 _WSACleanup@0

; 24   : 		m_isWSA=false;

  00017	8b 45 fc	 mov	 eax, DWORD PTR _this$[ebp]
  0001a	c6 40 04 00	 mov	 BYTE PTR [eax+4], 0
$LN1@Destroy:

; 25   : 	}
; 26   : }

  0001e	c9		 leave
  0001f	c3		 ret	 0
?Destroy@CNetworkDevice@@QAEXXZ ENDP			; CNetworkDevice::Destroy
_TEXT	ENDS
; Function compile flags: /Odspy
; File D:\Metin2 Server Files\mainline\SRC_2014\Metin2Client\EterLib\NetDevice.cpp
;	COMDAT ??1CNetworkDevice@@UAE@XZ
_TEXT	SEGMENT
_this$ = -16						; size = 4
__$EHRec$ = -12						; size = 12
??1CNetworkDevice@@UAE@XZ PROC				; CNetworkDevice::~CNetworkDevice, COMDAT
; _this$ = ecx

; 10   : {

  00000	55		 push	 ebp
  00001	8b ec		 mov	 ebp, esp
  00003	6a ff		 push	 -1
  00005	68 00 00 00 00	 push	 __ehhandler$??1CNetworkDevice@@UAE@XZ
  0000a	64 a1 00 00 00
	00		 mov	 eax, DWORD PTR fs:0
  00010	50		 push	 eax
  00011	51		 push	 ecx
  00012	a1 00 00 00 00	 mov	 eax, DWORD PTR ___security_cookie
  00017	33 c5		 xor	 eax, ebp
  00019	50		 push	 eax
  0001a	8d 45 f4	 lea	 eax, DWORD PTR __$EHRec$[ebp]
  0001d	64 a3 00 00 00
	00		 mov	 DWORD PTR fs:0, eax
  00023	89 4d f0	 mov	 DWORD PTR _this$[ebp], ecx
  00026	8b 45 f0	 mov	 eax, DWORD PTR _this$[ebp]
  00029	c7 00 00 00 00
	00		 mov	 DWORD PTR [eax], OFFSET ??_7CNetworkDevice@@6B@

; 11   : 	Destroy();	

  0002f	8b 4d f0	 mov	 ecx, DWORD PTR _this$[ebp]
  00032	e8 00 00 00 00	 call	 ?Destroy@CNetworkDevice@@QAEXXZ ; CNetworkDevice::Destroy

; 12   : }

  00037	8b 4d f4	 mov	 ecx, DWORD PTR __$EHRec$[ebp]
  0003a	64 89 0d 00 00
	00 00		 mov	 DWORD PTR fs:0, ecx
  00041	59		 pop	 ecx
  00042	c9		 leave
  00043	c3		 ret	 0
  00044	cc		 int	 3
  00045	cc		 int	 3
  00046	cc		 int	 3
  00047	cc		 int	 3
  00048	cc		 int	 3
_TEXT	ENDS
;	COMDAT text$x
text$x	SEGMENT
__ehhandler$??1CNetworkDevice@@UAE@XZ:
  00000	90		 npad	 1
  00001	90		 npad	 1
  00002	8b 54 24 08	 mov	 edx, DWORD PTR [esp+8]
  00006	8d 42 0c	 lea	 eax, DWORD PTR [edx+12]
  00009	8b 4a f8	 mov	 ecx, DWORD PTR [edx-8]
  0000c	33 c8		 xor	 ecx, eax
  0000e	e8 00 00 00 00	 call	 @__security_check_cookie@4
  00013	b8 00 00 00 00	 mov	 eax, OFFSET __ehfuncinfo$??1CNetworkDevice@@UAE@XZ
  00018	e9 00 00 00 00	 jmp	 ___CxxFrameHandler3
text$x	ENDS
??1CNetworkDevice@@UAE@XZ ENDP				; CNetworkDevice::~CNetworkDevice
; Function compile flags: /Odspy
; File D:\Metin2 Server Files\mainline\SRC_2014\Metin2Client\EterLib\NetDevice.cpp
;	COMDAT ??0CNetworkDevice@@QAE@XZ
_TEXT	SEGMENT
_this$ = -4						; size = 4
??0CNetworkDevice@@QAE@XZ PROC				; CNetworkDevice::CNetworkDevice, COMDAT
; _this$ = ecx

; 5    : {

  00000	55		 push	 ebp
  00001	8b ec		 mov	 ebp, esp
  00003	51		 push	 ecx
  00004	89 4d fc	 mov	 DWORD PTR _this$[ebp], ecx
  00007	8b 45 fc	 mov	 eax, DWORD PTR _this$[ebp]
  0000a	c7 00 00 00 00
	00		 mov	 DWORD PTR [eax], OFFSET ??_7CNetworkDevice@@6B@

; 6    : 	Initialize();

  00010	8b 4d fc	 mov	 ecx, DWORD PTR _this$[ebp]
  00013	e8 00 00 00 00	 call	 ?Initialize@CNetworkDevice@@IAEXXZ ; CNetworkDevice::Initialize

; 7    : }

  00018	8b 45 fc	 mov	 eax, DWORD PTR _this$[ebp]
  0001b	c9		 leave
  0001c	c3		 ret	 0
??0CNetworkDevice@@QAE@XZ ENDP				; CNetworkDevice::CNetworkDevice
_TEXT	ENDS
END
