; Listing generated by Microsoft (R) Optimizing Compiler Version 19.28.29335.0 

	TITLE	D:\Metin2 Server Files\mainline\SRC_2014\Metin2Client\EterLib\NetDatagramSender.cpp
	.686P
	.XMM
	include listing.inc
	.model	flat

INCLUDELIB LIBCMT
INCLUDELIB OLDNAMES

PUBLIC	??0CNetDatagramSender@@QAE@XZ			; CNetDatagramSender::CNetDatagramSender
PUBLIC	??1CNetDatagramSender@@UAE@XZ			; CNetDatagramSender::~CNetDatagramSender
PUBLIC	?isSocket@CNetDatagramSender@@QAEHXZ		; CNetDatagramSender::isSocket
PUBLIC	?SetSocket@CNetDatagramSender@@QAEHPBDG@Z	; CNetDatagramSender::SetSocket
PUBLIC	?SetSocket@CNetDatagramSender@@QAEHKG@Z		; CNetDatagramSender::SetSocket
PUBLIC	?Send@CNetDatagramSender@@QAEHPBXH@Z		; CNetDatagramSender::Send
PUBLIC	??_GCNetDatagramSender@@UAEPAXI@Z		; CNetDatagramSender::`scalar deleting destructor'
PUBLIC	??_7CNetDatagramSender@@6B@			; CNetDatagramSender::`vftable'
PUBLIC	??_C@_0BH@MOCHFCJJ@Failed?5sending?5packet?6@	; `string'
PUBLIC	??_R4CNetDatagramSender@@6B@			; CNetDatagramSender::`RTTI Complete Object Locator'
PUBLIC	??_R0?AVCNetDatagramSender@@@8			; CNetDatagramSender `RTTI Type Descriptor'
PUBLIC	??_R3CNetDatagramSender@@8			; CNetDatagramSender::`RTTI Class Hierarchy Descriptor'
PUBLIC	??_R2CNetDatagramSender@@8			; CNetDatagramSender::`RTTI Base Class Array'
PUBLIC	??_R1A@?0A@EA@CNetDatagramSender@@8		; CNetDatagramSender::`RTTI Base Class Descriptor at (0,-1,0,64)'
EXTRN	??3@YAXPAXI@Z:PROC				; operator delete
EXTRN	_memset:PROC
EXTRN	?Tracef@@YAXPBDZZ:PROC				; Tracef
EXTRN	_htons@4:PROC
EXTRN	_inet_addr@4:PROC
EXTRN	_sendto@24:PROC
EXTRN	_socket@12:PROC
EXTRN	??_ECNetDatagramSender@@UAEPAXI@Z:PROC		; CNetDatagramSender::`vector deleting destructor'
EXTRN	??_7type_info@@6B@:QWORD			; type_info::`vftable'
;	COMDAT ??_R1A@?0A@EA@CNetDatagramSender@@8
rdata$r	SEGMENT
??_R1A@?0A@EA@CNetDatagramSender@@8 DD FLAT:??_R0?AVCNetDatagramSender@@@8 ; CNetDatagramSender::`RTTI Base Class Descriptor at (0,-1,0,64)'
	DD	00H
	DD	00H
	DD	0ffffffffH
	DD	00H
	DD	040H
	DD	FLAT:??_R3CNetDatagramSender@@8
rdata$r	ENDS
;	COMDAT ??_R2CNetDatagramSender@@8
rdata$r	SEGMENT
??_R2CNetDatagramSender@@8 DD FLAT:??_R1A@?0A@EA@CNetDatagramSender@@8 ; CNetDatagramSender::`RTTI Base Class Array'
rdata$r	ENDS
;	COMDAT ??_R3CNetDatagramSender@@8
rdata$r	SEGMENT
??_R3CNetDatagramSender@@8 DD 00H			; CNetDatagramSender::`RTTI Class Hierarchy Descriptor'
	DD	00H
	DD	01H
	DD	FLAT:??_R2CNetDatagramSender@@8
rdata$r	ENDS
;	COMDAT ??_R0?AVCNetDatagramSender@@@8
data$rs	SEGMENT
??_R0?AVCNetDatagramSender@@@8 DD FLAT:??_7type_info@@6B@ ; CNetDatagramSender `RTTI Type Descriptor'
	DD	00H
	DB	'.?AVCNetDatagramSender@@', 00H
data$rs	ENDS
;	COMDAT ??_R4CNetDatagramSender@@6B@
rdata$r	SEGMENT
??_R4CNetDatagramSender@@6B@ DD 00H			; CNetDatagramSender::`RTTI Complete Object Locator'
	DD	00H
	DD	00H
	DD	FLAT:??_R0?AVCNetDatagramSender@@@8
	DD	FLAT:??_R3CNetDatagramSender@@8
rdata$r	ENDS
;	COMDAT ??_C@_0BH@MOCHFCJJ@Failed?5sending?5packet?6@
CONST	SEGMENT
??_C@_0BH@MOCHFCJJ@Failed?5sending?5packet?6@ DB 'Failed sending packet', 0aH
	DB	00H						; `string'
CONST	ENDS
;	COMDAT ??_7CNetDatagramSender@@6B@
CONST	SEGMENT
??_7CNetDatagramSender@@6B@ DD FLAT:??_R4CNetDatagramSender@@6B@ ; CNetDatagramSender::`vftable'
	DD	FLAT:??_ECNetDatagramSender@@UAEPAXI@Z
CONST	ENDS
; Function compile flags: /Odspy
;	COMDAT ??_GCNetDatagramSender@@UAEPAXI@Z
_TEXT	SEGMENT
_this$ = -4						; size = 4
___flags$ = 8						; size = 4
??_GCNetDatagramSender@@UAEPAXI@Z PROC			; CNetDatagramSender::`scalar deleting destructor', COMDAT
; _this$ = ecx
  00000	55		 push	 ebp
  00001	8b ec		 mov	 ebp, esp
  00003	51		 push	 ecx
  00004	89 4d fc	 mov	 DWORD PTR _this$[ebp], ecx
  00007	8b 4d fc	 mov	 ecx, DWORD PTR _this$[ebp]
  0000a	e8 00 00 00 00	 call	 ??1CNetDatagramSender@@UAE@XZ ; CNetDatagramSender::~CNetDatagramSender
  0000f	8b 45 08	 mov	 eax, DWORD PTR ___flags$[ebp]
  00012	83 e0 01	 and	 eax, 1
  00015	74 0c		 je	 SHORT $LN2@scalar
  00017	6a 20		 push	 32			; 00000020H
  00019	ff 75 fc	 push	 DWORD PTR _this$[ebp]
  0001c	e8 00 00 00 00	 call	 ??3@YAXPAXI@Z		; operator delete
  00021	59		 pop	 ecx
  00022	59		 pop	 ecx
$LN2@scalar:
  00023	8b 45 fc	 mov	 eax, DWORD PTR _this$[ebp]
  00026	c9		 leave
  00027	c2 04 00	 ret	 4
??_GCNetDatagramSender@@UAEPAXI@Z ENDP			; CNetDatagramSender::`scalar deleting destructor'
_TEXT	ENDS
; Function compile flags: /Odspy
; File D:\Metin2 Server Files\mainline\SRC_2014\Metin2Client\EterLib\NetDatagramSender.cpp
;	COMDAT ?Send@CNetDatagramSender@@QAEHPBXH@Z
_TEXT	SEGMENT
_iSendingLength$ = -8					; size = 4
_this$ = -4						; size = 4
_pBuffer$ = 8						; size = 4
_iSize$ = 12						; size = 4
?Send@CNetDatagramSender@@QAEHPBXH@Z PROC		; CNetDatagramSender::Send, COMDAT
; _this$ = ecx

; 27   : {

  00000	55		 push	 ebp
  00001	8b ec		 mov	 ebp, esp
  00003	51		 push	 ecx
  00004	51		 push	 ecx
  00005	89 4d fc	 mov	 DWORD PTR _this$[ebp], ecx

; 28   : 	assert(isSocket());
; 29   : 
; 30   : 	int iSendingLength = sendto(m_Socket, (const char *)pBuffer, iSize, 0, (PSOCKADDR)&m_SockAddr, sizeof(SOCKADDR_IN));

  00008	6a 10		 push	 16			; 00000010H
  0000a	8b 45 fc	 mov	 eax, DWORD PTR _this$[ebp]
  0000d	83 c0 10	 add	 eax, 16			; 00000010H
  00010	50		 push	 eax
  00011	6a 00		 push	 0
  00013	ff 75 0c	 push	 DWORD PTR _iSize$[ebp]
  00016	ff 75 08	 push	 DWORD PTR _pBuffer$[ebp]
  00019	8b 45 fc	 mov	 eax, DWORD PTR _this$[ebp]
  0001c	ff 70 0c	 push	 DWORD PTR [eax+12]
  0001f	e8 00 00 00 00	 call	 _sendto@24
  00024	89 45 f8	 mov	 DWORD PTR _iSendingLength$[ebp], eax

; 31   : 	if (iSendingLength < 0)

  00027	83 7d f8 00	 cmp	 DWORD PTR _iSendingLength$[ebp], 0
  0002b	7d 0f		 jge	 SHORT $LN2@Send

; 32   : 	{
; 33   : 		Tracef("Failed sending packet\n");

  0002d	68 00 00 00 00	 push	 OFFSET ??_C@_0BH@MOCHFCJJ@Failed?5sending?5packet?6@
  00032	e8 00 00 00 00	 call	 ?Tracef@@YAXPBDZZ	; Tracef
  00037	59		 pop	 ecx

; 34   : 		return FALSE;

  00038	33 c0		 xor	 eax, eax
  0003a	eb 03		 jmp	 SHORT $LN1@Send
$LN2@Send:

; 35   : 	}
; 36   : 
; 37   : 	return TRUE;

  0003c	33 c0		 xor	 eax, eax
  0003e	40		 inc	 eax
$LN1@Send:

; 38   : }

  0003f	c9		 leave
  00040	c2 08 00	 ret	 8
?Send@CNetDatagramSender@@QAEHPBXH@Z ENDP		; CNetDatagramSender::Send
_TEXT	ENDS
; Function compile flags: /Odspy
; File D:\Metin2 Server Files\mainline\SRC_2014\Metin2Client\EterLib\NetDatagramSender.cpp
;	COMDAT ?SetSocket@CNetDatagramSender@@QAEHKG@Z
_TEXT	SEGMENT
_this$ = -4						; size = 4
_dwAddress$ = 8						; size = 4
_wPortIndex$ = 12					; size = 2
?SetSocket@CNetDatagramSender@@QAEHKG@Z PROC		; CNetDatagramSender::SetSocket, COMDAT
; _this$ = ecx

; 10   : {

  00000	55		 push	 ebp
  00001	8b ec		 mov	 ebp, esp
  00003	51		 push	 ecx
  00004	89 4d fc	 mov	 DWORD PTR _this$[ebp], ecx

; 11   : 	m_isSocket = TRUE;

  00007	8b 45 fc	 mov	 eax, DWORD PTR _this$[ebp]
  0000a	c7 40 04 01 00
	00 00		 mov	 DWORD PTR [eax+4], 1

; 12   : 
; 13   : 	m_dwAddress = dwAddress;

  00011	8b 45 fc	 mov	 eax, DWORD PTR _this$[ebp]
  00014	66 8b 4d 08	 mov	 cx, WORD PTR _dwAddress$[ebp]
  00018	66 89 48 08	 mov	 WORD PTR [eax+8], cx

; 14   : 	m_wPortIndex = wPortIndex;

  0001c	8b 45 fc	 mov	 eax, DWORD PTR _this$[ebp]
  0001f	66 8b 4d 0c	 mov	 cx, WORD PTR _wPortIndex$[ebp]
  00023	66 89 48 0a	 mov	 WORD PTR [eax+10], cx

; 15   : 
; 16   : 	m_Socket = socket(AF_INET, SOCK_DGRAM, 0);

  00027	6a 00		 push	 0
  00029	6a 02		 push	 2
  0002b	6a 02		 push	 2
  0002d	e8 00 00 00 00	 call	 _socket@12
  00032	8b 4d fc	 mov	 ecx, DWORD PTR _this$[ebp]
  00035	89 41 0c	 mov	 DWORD PTR [ecx+12], eax

; 17   : 
; 18   : 	memset(&m_SockAddr, 0, sizeof(SOCKADDR_IN));

  00038	6a 10		 push	 16			; 00000010H
  0003a	6a 00		 push	 0
  0003c	8b 45 fc	 mov	 eax, DWORD PTR _this$[ebp]
  0003f	83 c0 10	 add	 eax, 16			; 00000010H
  00042	50		 push	 eax
  00043	e8 00 00 00 00	 call	 _memset
  00048	83 c4 0c	 add	 esp, 12			; 0000000cH

; 19   : 	m_SockAddr.sin_family = AF_INET;

  0004b	6a 02		 push	 2
  0004d	58		 pop	 eax
  0004e	8b 4d fc	 mov	 ecx, DWORD PTR _this$[ebp]
  00051	66 89 41 10	 mov	 WORD PTR [ecx+16], ax

; 20   : 	m_SockAddr.sin_addr.s_addr = dwAddress;

  00055	8b 45 fc	 mov	 eax, DWORD PTR _this$[ebp]
  00058	8b 4d 08	 mov	 ecx, DWORD PTR _dwAddress$[ebp]
  0005b	89 48 14	 mov	 DWORD PTR [eax+20], ecx

; 21   : 	m_SockAddr.sin_port = htons(wPortIndex);

  0005e	ff 75 0c	 push	 DWORD PTR _wPortIndex$[ebp]
  00061	e8 00 00 00 00	 call	 _htons@4
  00066	8b 4d fc	 mov	 ecx, DWORD PTR _this$[ebp]
  00069	66 89 41 12	 mov	 WORD PTR [ecx+18], ax

; 22   : 
; 23   : 	return TRUE;

  0006d	33 c0		 xor	 eax, eax
  0006f	40		 inc	 eax

; 24   : }

  00070	c9		 leave
  00071	c2 08 00	 ret	 8
?SetSocket@CNetDatagramSender@@QAEHKG@Z ENDP		; CNetDatagramSender::SetSocket
_TEXT	ENDS
; Function compile flags: /Odspy
; File D:\Metin2 Server Files\mainline\SRC_2014\Metin2Client\EterLib\NetDatagramSender.cpp
;	COMDAT ?SetSocket@CNetDatagramSender@@QAEHPBDG@Z
_TEXT	SEGMENT
_this$ = -4						; size = 4
_c_szIP$ = 8						; size = 4
_wPortIndex$ = 12					; size = 2
?SetSocket@CNetDatagramSender@@QAEHPBDG@Z PROC		; CNetDatagramSender::SetSocket, COMDAT
; _this$ = ecx

; 5    : {

  00000	55		 push	 ebp
  00001	8b ec		 mov	 ebp, esp
  00003	51		 push	 ecx
  00004	89 4d fc	 mov	 DWORD PTR _this$[ebp], ecx

; 6    : 	return SetSocket(inet_addr(c_szIP), wPortIndex);

  00007	ff 75 0c	 push	 DWORD PTR _wPortIndex$[ebp]
  0000a	ff 75 08	 push	 DWORD PTR _c_szIP$[ebp]
  0000d	e8 00 00 00 00	 call	 _inet_addr@4
  00012	50		 push	 eax
  00013	8b 4d fc	 mov	 ecx, DWORD PTR _this$[ebp]
  00016	e8 00 00 00 00	 call	 ?SetSocket@CNetDatagramSender@@QAEHKG@Z ; CNetDatagramSender::SetSocket

; 7    : }

  0001b	c9		 leave
  0001c	c2 08 00	 ret	 8
?SetSocket@CNetDatagramSender@@QAEHPBDG@Z ENDP		; CNetDatagramSender::SetSocket
_TEXT	ENDS
; Function compile flags: /Odspy
; File D:\Metin2 Server Files\mainline\SRC_2014\Metin2Client\EterLib\NetDatagramSender.cpp
;	COMDAT ?isSocket@CNetDatagramSender@@QAEHXZ
_TEXT	SEGMENT
_this$ = -4						; size = 4
?isSocket@CNetDatagramSender@@QAEHXZ PROC		; CNetDatagramSender::isSocket, COMDAT
; _this$ = ecx

; 41   : {

  00000	55		 push	 ebp
  00001	8b ec		 mov	 ebp, esp
  00003	51		 push	 ecx
  00004	89 4d fc	 mov	 DWORD PTR _this$[ebp], ecx

; 42   : 	return m_isSocket;

  00007	8b 45 fc	 mov	 eax, DWORD PTR _this$[ebp]
  0000a	8b 40 04	 mov	 eax, DWORD PTR [eax+4]

; 43   : }

  0000d	c9		 leave
  0000e	c3		 ret	 0
?isSocket@CNetDatagramSender@@QAEHXZ ENDP		; CNetDatagramSender::isSocket
_TEXT	ENDS
; Function compile flags: /Odspy
; File D:\Metin2 Server Files\mainline\SRC_2014\Metin2Client\EterLib\NetDatagramSender.cpp
;	COMDAT ??1CNetDatagramSender@@UAE@XZ
_TEXT	SEGMENT
_this$ = -4						; size = 4
??1CNetDatagramSender@@UAE@XZ PROC			; CNetDatagramSender::~CNetDatagramSender, COMDAT
; _this$ = ecx

; 57   : {

  00000	55		 push	 ebp
  00001	8b ec		 mov	 ebp, esp
  00003	51		 push	 ecx
  00004	89 4d fc	 mov	 DWORD PTR _this$[ebp], ecx
  00007	8b 45 fc	 mov	 eax, DWORD PTR _this$[ebp]
  0000a	c7 00 00 00 00
	00		 mov	 DWORD PTR [eax], OFFSET ??_7CNetDatagramSender@@6B@

; 58   : }

  00010	c9		 leave
  00011	c3		 ret	 0
??1CNetDatagramSender@@UAE@XZ ENDP			; CNetDatagramSender::~CNetDatagramSender
_TEXT	ENDS
; Function compile flags: /Odspy
; File D:\Metin2 Server Files\mainline\SRC_2014\Metin2Client\EterLib\NetDatagramSender.cpp
;	COMDAT ??0CNetDatagramSender@@QAE@XZ
_TEXT	SEGMENT
_this$ = -4						; size = 4
??0CNetDatagramSender@@QAE@XZ PROC			; CNetDatagramSender::CNetDatagramSender, COMDAT
; _this$ = ecx

; 46   : {

  00000	55		 push	 ebp
  00001	8b ec		 mov	 ebp, esp
  00003	51		 push	 ecx
  00004	89 4d fc	 mov	 DWORD PTR _this$[ebp], ecx
  00007	8b 45 fc	 mov	 eax, DWORD PTR _this$[ebp]
  0000a	c7 00 00 00 00
	00		 mov	 DWORD PTR [eax], OFFSET ??_7CNetDatagramSender@@6B@

; 47   : 	m_isSocket = FALSE;

  00010	8b 45 fc	 mov	 eax, DWORD PTR _this$[ebp]
  00013	83 60 04 00	 and	 DWORD PTR [eax+4], 0

; 48   : 
; 49   : 	m_dwAddress = 0;

  00017	33 c0		 xor	 eax, eax
  00019	8b 4d fc	 mov	 ecx, DWORD PTR _this$[ebp]
  0001c	66 89 41 08	 mov	 WORD PTR [ecx+8], ax

; 50   : 	m_wPortIndex = 1000;

  00020	b8 e8 03 00 00	 mov	 eax, 1000		; 000003e8H
  00025	8b 4d fc	 mov	 ecx, DWORD PTR _this$[ebp]
  00028	66 89 41 0a	 mov	 WORD PTR [ecx+10], ax

; 51   : 
; 52   : 	m_Socket = 0;

  0002c	8b 45 fc	 mov	 eax, DWORD PTR _this$[ebp]
  0002f	83 60 0c 00	 and	 DWORD PTR [eax+12], 0

; 53   : 	memset(&m_SockAddr, 0, sizeof(SOCKADDR_IN));

  00033	6a 10		 push	 16			; 00000010H
  00035	6a 00		 push	 0
  00037	8b 45 fc	 mov	 eax, DWORD PTR _this$[ebp]
  0003a	83 c0 10	 add	 eax, 16			; 00000010H
  0003d	50		 push	 eax
  0003e	e8 00 00 00 00	 call	 _memset
  00043	83 c4 0c	 add	 esp, 12			; 0000000cH

; 54   : }

  00046	8b 45 fc	 mov	 eax, DWORD PTR _this$[ebp]
  00049	c9		 leave
  0004a	c3		 ret	 0
??0CNetDatagramSender@@QAE@XZ ENDP			; CNetDatagramSender::CNetDatagramSender
_TEXT	ENDS
END
