; Listing generated by Microsoft (R) Optimizing Compiler Version 19.28.29335.0 

	TITLE	D:\Metin2 Server Files\mainline\SRC_2014\Metin2Client\EterLib\ResourceManager.cpp
	.686P
	.XMM
	include listing.inc
	.model	flat

INCLUDELIB LIBCMT
INCLUDELIB OLDNAMES

PUBLIC	?m_totalKB@FDumpPrint@@2MA			; FDumpPrint::m_totalKB
PUBLIC	?g_iLoadingDelayTime@@3HA			; g_iLoadingDelayTime
_BSS	SEGMENT
?m_totalKB@FDumpPrint@@2MA DD 01H DUP (?)		; FDumpPrint::m_totalKB
_BSS	ENDS
CONST	SEGMENT
?piecewise_construct@std@@3Upiecewise_construct_t@1@B	ORG $+1 ; std::piecewise_construct
CONST	ENDS
_DATA	SEGMENT
?g_iLoadingDelayTime@@3HA DD 014H			; g_iLoadingDelayTime
_DATA	ENDS
PUBLIC	___local_stdio_printf_options
PUBLIC	_fprintf
PUBLIC	??0exception@std@@QAE@ABV01@@Z			; std::exception::exception
PUBLIC	?what@exception@std@@UBEPBDXZ			; std::exception::what
PUBLIC	??_Gexception@std@@UAEPAXI@Z			; std::exception::`scalar deleting destructor'
PUBLIC	??0bad_alloc@std@@QAE@ABV01@@Z			; std::bad_alloc::bad_alloc
PUBLIC	??_Gbad_alloc@std@@UAEPAXI@Z			; std::bad_alloc::`scalar deleting destructor'
PUBLIC	??0bad_array_new_length@std@@QAE@XZ		; std::bad_array_new_length::bad_array_new_length
PUBLIC	??1bad_array_new_length@std@@UAE@XZ		; std::bad_array_new_length::~bad_array_new_length
PUBLIC	??0bad_array_new_length@std@@QAE@ABV01@@Z	; std::bad_array_new_length::bad_array_new_length
PUBLIC	??_Gbad_array_new_length@std@@UAEPAXI@Z		; std::bad_array_new_length::`scalar deleting destructor'
PUBLIC	?_Throw_bad_array_new_length@std@@YAXXZ		; std::_Throw_bad_array_new_length
PUBLIC	?_Adjust_manually_vector_aligned@std@@YAXAAPAXAAI@Z ; std::_Adjust_manually_vector_aligned
PUBLIC	?_Xlen_string@std@@YAXXZ			; std::_Xlen_string
PUBLIC	?_Myptr@?$_String_val@U?$_Simple_types@D@std@@@std@@QAEPADXZ ; std::_String_val<std::_Simple_types<char> >::_Myptr
PUBLIC	?_Myptr@?$_String_val@U?$_Simple_types@D@std@@@std@@QBEPBDXZ ; std::_String_val<std::_Simple_types<char> >::_Myptr
PUBLIC	??0?$basic_string@DU?$char_traits@D@std@@V?$allocator@D@2@@std@@QAE@ABV01@@Z ; std::basic_string<char,std::char_traits<char>,std::allocator<char> >::basic_string<char,std::char_traits<char>,std::allocator<char> >
PUBLIC	??0?$basic_string@DU?$char_traits@D@std@@V?$allocator@D@2@@std@@QAE@QBD@Z ; std::basic_string<char,std::char_traits<char>,std::allocator<char> >::basic_string<char,std::char_traits<char>,std::allocator<char> >
PUBLIC	??0?$basic_string@DU?$char_traits@D@std@@V?$allocator@D@2@@std@@QAE@$$QAV01@@Z ; std::basic_string<char,std::char_traits<char>,std::allocator<char> >::basic_string<char,std::char_traits<char>,std::allocator<char> >
PUBLIC	?_Construct_lv_contents@?$basic_string@DU?$char_traits@D@std@@V?$allocator@D@2@@std@@AAEXABV12@@Z ; std::basic_string<char,std::char_traits<char>,std::allocator<char> >::_Construct_lv_contents
PUBLIC	??1?$basic_string@DU?$char_traits@D@std@@V?$allocator@D@2@@std@@QAE@XZ ; std::basic_string<char,std::char_traits<char>,std::allocator<char> >::~basic_string<char,std::char_traits<char>,std::allocator<char> >
PUBLIC	?assign@?$basic_string@DU?$char_traits@D@std@@V?$allocator@D@2@@std@@QAEAAV12@QBDI@Z ; std::basic_string<char,std::char_traits<char>,std::allocator<char> >::assign
PUBLIC	?c_str@?$basic_string@DU?$char_traits@D@std@@V?$allocator@D@2@@std@@QBEPBDXZ ; std::basic_string<char,std::char_traits<char>,std::allocator<char> >::c_str
PUBLIC	?max_size@?$basic_string@DU?$char_traits@D@std@@V?$allocator@D@2@@std@@QBEIXZ ; std::basic_string<char,std::char_traits<char>,std::allocator<char> >::max_size
PUBLIC	?compare@?$basic_string@DU?$char_traits@D@std@@V?$allocator@D@2@@std@@QBEHABV12@@Z ; std::basic_string<char,std::char_traits<char>,std::allocator<char> >::compare
PUBLIC	?_Calculate_growth@?$basic_string@DU?$char_traits@D@std@@V?$allocator@D@2@@std@@ABEII@Z ; std::basic_string<char,std::char_traits<char>,std::allocator<char> >::_Calculate_growth
PUBLIC	?_Tidy_init@?$basic_string@DU?$char_traits@D@std@@V?$allocator@D@2@@std@@AAEXXZ ; std::basic_string<char,std::char_traits<char>,std::allocator<char> >::_Tidy_init
PUBLIC	?_Tidy_deallocate@?$basic_string@DU?$char_traits@D@std@@V?$allocator@D@2@@std@@AAEXXZ ; std::basic_string<char,std::char_traits<char>,std::allocator<char> >::_Tidy_deallocate
PUBLIC	??1?$_Compressed_pair@V?$allocator@D@std@@V?$_String_val@U?$_Simple_types@D@std@@@2@$00@std@@QAE@XZ ; std::_Compressed_pair<std::allocator<char>,std::_String_val<std::_Simple_types<char> >,1>::~_Compressed_pair<std::allocator<char>,std::_String_val<std::_Simple_types<char> >,1>
PUBLIC	?_Throw_tree_length_error@std@@YAXXZ		; std::_Throw_tree_length_error
PUBLIC	??$_Destroy_in_place@PAD@std@@YAXAAPAD@Z	; std::_Destroy_in_place<char *>
PUBLIC	??$_Reallocate_for@V<lambda_9366063389c5f42a00a5088cf24e69de>@@PBD@?$basic_string@DU?$char_traits@D@std@@V?$allocator@D@2@@std@@AAEAAV01@IV<lambda_9366063389c5f42a00a5088cf24e69de>@@PBD@Z ; std::basic_string<char,std::char_traits<char>,std::allocator<char> >::_Reallocate_for<<lambda_9366063389c5f42a00a5088cf24e69de>,char const *>
PUBLIC	??$_Construct_in_place@PADABQAD@std@@YAXAAPADABQAD@Z ; std::_Construct_in_place<char *,char * const &>
PUBLIC	??$_Deallocate@$07$0A@@std@@YAXPAXI@Z		; std::_Deallocate<8,0>
PUBLIC	??$_Allocate@$07U_Default_allocate_traits@std@@$0A@@std@@YAPAXI@Z ; std::_Allocate<8,std::_Default_allocate_traits,0>
PUBLIC	??$_Allocate_manually_vector_aligned@U_Default_allocate_traits@std@@@std@@YAPAXI@Z ; std::_Allocate_manually_vector_aligned<std::_Default_allocate_traits>
PUBLIC	??_GSData@CFileLoaderThread@@QAEPAXI@Z		; CFileLoaderThread::SData::`scalar deleting destructor'
PUBLIC	??1?$CSingleton@VCResourceManager@@@@UAE@XZ	; CSingleton<CResourceManager>::~CSingleton<CResourceManager>
PUBLIC	??_G?$CSingleton@VCResourceManager@@@@UAEPAXI@Z	; CSingleton<CResourceManager>::`scalar deleting destructor'
PUBLIC	??0CResourceManager@@QAE@XZ			; CResourceManager::CResourceManager
PUBLIC	??1CResourceManager@@UAE@XZ			; CResourceManager::~CResourceManager
PUBLIC	?LoadStaticCache@CResourceManager@@QAEXPBD@Z	; CResourceManager::LoadStaticCache
PUBLIC	?DestroyDeletingList@CResourceManager@@QAEXXZ	; CResourceManager::DestroyDeletingList
PUBLIC	?Destroy@CResourceManager@@QAEXXZ		; CResourceManager::Destroy
PUBLIC	?InsertResourcePointer@CResourceManager@@QAEPAVCResource@@KPAV2@@Z ; CResourceManager::InsertResourcePointer
PUBLIC	?FindResourcePointer@CResourceManager@@QAEPAVCResource@@K@Z ; CResourceManager::FindResourcePointer
PUBLIC	?GetResourcePointer@CResourceManager@@QAEPAVCResource@@PBD@Z ; CResourceManager::GetResourcePointer
PUBLIC	?GetTypeResourcePointer@CResourceManager@@QAEPAVCResource@@PBDH@Z ; CResourceManager::GetTypeResourcePointer
PUBLIC	?isResourcePointerData@CResourceManager@@QAE_NK@Z ; CResourceManager::isResourcePointerData
PUBLIC	?RegisterResourceNewFunctionPointer@CResourceManager@@QAEXPBDP6APAVCResource@@0@Z@Z ; CResourceManager::RegisterResourceNewFunctionPointer
PUBLIC	?RegisterResourceNewFunctionByTypePointer@CResourceManager@@QAEXHP6APAVCResource@@PBD@Z@Z ; CResourceManager::RegisterResourceNewFunctionByTypePointer
PUBLIC	?DumpFileListToTextFile@CResourceManager@@QAEXPBD@Z ; CResourceManager::DumpFileListToTextFile
PUBLIC	?IsFileExist@CResourceManager@@QAE_NPBD@Z	; CResourceManager::IsFileExist
PUBLIC	?Update@CResourceManager@@QAEXXZ		; CResourceManager::Update
PUBLIC	?ReserveDeletingResource@CResourceManager@@QAEXPAVCResource@@@Z ; CResourceManager::ReserveDeletingResource
PUBLIC	?ProcessBackgroundLoading@CResourceManager@@QAEXXZ ; CResourceManager::ProcessBackgroundLoading
PUBLIC	?PushBackgroundLoadingSet@CResourceManager@@QAEXAAV?$set@V?$basic_string@DU?$char_traits@D@std@@V?$allocator@D@2@@std@@U?$less@V?$basic_string@DU?$char_traits@D@std@@V?$allocator@D@2@@std@@@2@V?$allocator@V?$basic_string@DU?$char_traits@D@std@@V?$allocator@D@2@@std@@@2@@std@@@Z ; CResourceManager::PushBackgroundLoadingSet
PUBLIC	?__DestroyDeletingResourceMap@CResourceManager@@IAEXXZ ; CResourceManager::__DestroyDeletingResourceMap
PUBLIC	?__DestroyResourceMap@CResourceManager@@IAEXXZ	; CResourceManager::__DestroyResourceMap
PUBLIC	?__DestroyCacheMap@CResourceManager@@IAEXXZ	; CResourceManager::__DestroyCacheMap
PUBLIC	?__GetFileCRC@CResourceManager@@IAEKPBDPAPBD@Z	; CResourceManager::__GetFileCRC
PUBLIC	??0?$_Tree@V?$_Tmap_traits@KPAVCResource@@U?$less@K@std@@V?$allocator@U?$pair@$$CBKPAVCResource@@@std@@@3@$0A@@std@@@std@@QAE@ABU?$less@K@1@@Z ; std::_Tree<std::_Tmap_traits<unsigned long,CResource *,std::less<unsigned long>,std::allocator<std::pair<unsigned long const ,CResource *> >,0> >::_Tree<std::_Tmap_traits<unsigned long,CResource *,std::less<unsigned long>,std::allocator<std::pair<unsigned long const ,CResource *> >,0> >
PUBLIC	??1?$_Tree@V?$_Tmap_traits@KPAVCResource@@U?$less@K@std@@V?$allocator@U?$pair@$$CBKPAVCResource@@@std@@@3@$0A@@std@@@std@@QAE@XZ ; std::_Tree<std::_Tmap_traits<unsigned long,CResource *,std::less<unsigned long>,std::allocator<std::pair<unsigned long const ,CResource *> >,0> >::~_Tree<std::_Tmap_traits<unsigned long,CResource *,std::less<unsigned long>,std::allocator<std::pair<unsigned long const ,CResource *> >,0> >
PUBLIC	?begin@?$_Tree@V?$_Tmap_traits@KPAVCResource@@U?$less@K@std@@V?$allocator@U?$pair@$$CBKPAVCResource@@@std@@@3@$0A@@std@@@std@@QAE?AV?$_Tree_iterator@V?$_Tree_val@U?$_Tree_simple_types@U?$pair@$$CBKPAVCResource@@@std@@@std@@@std@@@2@XZ ; std::_Tree<std::_Tmap_traits<unsigned long,CResource *,std::less<unsigned long>,std::allocator<std::pair<unsigned long const ,CResource *> >,0> >::begin
PUBLIC	?end@?$_Tree@V?$_Tmap_traits@KPAVCResource@@U?$less@K@std@@V?$allocator@U?$pair@$$CBKPAVCResource@@@std@@@3@$0A@@std@@@std@@QAE?AV?$_Tree_iterator@V?$_Tree_val@U?$_Tree_simple_types@U?$pair@$$CBKPAVCResource@@@std@@@std@@@std@@@2@XZ ; std::_Tree<std::_Tmap_traits<unsigned long,CResource *,std::less<unsigned long>,std::allocator<std::pair<unsigned long const ,CResource *> >,0> >::end
PUBLIC	?max_size@?$_Tree@V?$_Tmap_traits@KPAVCResource@@U?$less@K@std@@V?$allocator@U?$pair@$$CBKPAVCResource@@@std@@@3@$0A@@std@@@std@@QBEIXZ ; std::_Tree<std::_Tmap_traits<unsigned long,CResource *,std::less<unsigned long>,std::allocator<std::pair<unsigned long const ,CResource *> >,0> >::max_size
PUBLIC	?clear@?$_Tree@V?$_Tmap_traits@KPAVCResource@@U?$less@K@std@@V?$allocator@U?$pair@$$CBKPAVCResource@@@std@@@3@$0A@@std@@@std@@QAEXXZ ; std::_Tree<std::_Tmap_traits<unsigned long,CResource *,std::less<unsigned long>,std::allocator<std::pair<unsigned long const ,CResource *> >,0> >::clear
PUBLIC	?find@?$_Tree@V?$_Tmap_traits@KPAVCResource@@U?$less@K@std@@V?$allocator@U?$pair@$$CBKPAVCResource@@@std@@@3@$0A@@std@@@std@@QAE?AV?$_Tree_iterator@V?$_Tree_val@U?$_Tree_simple_types@U?$pair@$$CBKPAVCResource@@@std@@@std@@@std@@@2@ABK@Z ; std::_Tree<std::_Tmap_traits<unsigned long,CResource *,std::less<unsigned long>,std::allocator<std::pair<unsigned long const ,CResource *> >,0> >::find
PUBLIC	?_Check_grow_by_1@?$_Tree@V?$_Tmap_traits@KPAVCResource@@U?$less@K@std@@V?$allocator@U?$pair@$$CBKPAVCResource@@@std@@@3@$0A@@std@@@std@@IAEXXZ ; std::_Tree<std::_Tmap_traits<unsigned long,CResource *,std::less<unsigned long>,std::allocator<std::pair<unsigned long const ,CResource *> >,0> >::_Check_grow_by_1
PUBLIC	?_Alloc_sentinel_and_proxy@?$_Tree@V?$_Tmap_traits@KPAVCResource@@U?$less@K@std@@V?$allocator@U?$pair@$$CBKPAVCResource@@@std@@@3@$0A@@std@@@std@@IAEXXZ ; std::_Tree<std::_Tmap_traits<unsigned long,CResource *,std::less<unsigned long>,std::allocator<std::pair<unsigned long const ,CResource *> >,0> >::_Alloc_sentinel_and_proxy
PUBLIC	?_Lrotate@?$_Tree_val@U?$_Tree_simple_types@U?$pair@$$CBKPAVCResource@@@std@@@std@@@std@@QAEXPAU?$_Tree_node@U?$pair@$$CBKPAVCResource@@@std@@PAX@2@@Z ; std::_Tree_val<std::_Tree_simple_types<std::pair<unsigned long const ,CResource *> > >::_Lrotate
PUBLIC	?_Rrotate@?$_Tree_val@U?$_Tree_simple_types@U?$pair@$$CBKPAVCResource@@@std@@@std@@@std@@QAEXPAU?$_Tree_node@U?$pair@$$CBKPAVCResource@@@std@@PAX@2@@Z ; std::_Tree_val<std::_Tree_simple_types<std::pair<unsigned long const ,CResource *> > >::_Rrotate
PUBLIC	?_Insert_node@?$_Tree_val@U?$_Tree_simple_types@U?$pair@$$CBKPAVCResource@@@std@@@std@@@std@@QAEPAU?$_Tree_node@U?$pair@$$CBKPAVCResource@@@std@@PAX@2@U?$_Tree_id@PAU?$_Tree_node@U?$pair@$$CBKPAVCResource@@@std@@PAX@std@@@2@QAU32@@Z ; std::_Tree_val<std::_Tree_simple_types<std::pair<unsigned long const ,CResource *> > >::_Insert_node
PUBLIC	??1?$map@KPAVCResource@@U?$less@K@std@@V?$allocator@U?$pair@$$CBKPAVCResource@@@std@@@3@@std@@QAE@XZ ; std::map<unsigned long,CResource *,std::less<unsigned long>,std::allocator<std::pair<unsigned long const ,CResource *> > >::~map<unsigned long,CResource *,std::less<unsigned long>,std::allocator<std::pair<unsigned long const ,CResource *> > >
PUBLIC	??0?$_Tree@V?$_Tmap_traits@V?$basic_string@DU?$char_traits@D@std@@V?$allocator@D@2@@std@@P6APAVCResource@@PBD@ZU?$less@V?$basic_string@DU?$char_traits@D@std@@V?$allocator@D@2@@std@@@2@V?$allocator@U?$pair@$$CBV?$basic_string@DU?$char_traits@D@std@@V?$allocator@D@2@@std@@P6APAVCResource@@PBD@Z@std@@@2@$0A@@std@@@std@@QAE@ABU?$less@V?$basic_string@DU?$char_traits@D@std@@V?$allocator@D@2@@std@@@1@@Z ; std::_Tree<std::_Tmap_traits<std::basic_string<char,std::char_traits<char>,std::allocator<char> >,CResource * (__cdecl*)(char const *),std::less<std::basic_string<char,std::char_traits<char>,std::allocator<char> > >,std::allocator<std::pair<std::basic_string<char,std::char_traits<char>,std::allocator<char> > const ,CResource * (__cdecl*)(char const *)> >,0> >::_Tree<std::_Tmap_traits<std::basic_string<char,std::char_traits<char>,std::allocator<char> >,CResource * (__cdecl*)(char const *),std::less<std::basic_string<char,std::char_traits<char>,std::allocator<char> > >,std::allocator<std::pair<std::basic_string<char,std::char_traits<char>,std::allocator<char> > const ,CResource * (__cdecl*)(char const *)> >,0> >
PUBLIC	??1?$_Tree@V?$_Tmap_traits@V?$basic_string@DU?$char_traits@D@std@@V?$allocator@D@2@@std@@P6APAVCResource@@PBD@ZU?$less@V?$basic_string@DU?$char_traits@D@std@@V?$allocator@D@2@@std@@@2@V?$allocator@U?$pair@$$CBV?$basic_string@DU?$char_traits@D@std@@V?$allocator@D@2@@std@@P6APAVCResource@@PBD@Z@std@@@2@$0A@@std@@@std@@QAE@XZ ; std::_Tree<std::_Tmap_traits<std::basic_string<char,std::char_traits<char>,std::allocator<char> >,CResource * (__cdecl*)(char const *),std::less<std::basic_string<char,std::char_traits<char>,std::allocator<char> > >,std::allocator<std::pair<std::basic_string<char,std::char_traits<char>,std::allocator<char> > const ,CResource * (__cdecl*)(char const *)> >,0> >::~_Tree<std::_Tmap_traits<std::basic_string<char,std::char_traits<char>,std::allocator<char> >,CResource * (__cdecl*)(char const *),std::less<std::basic_string<char,std::char_traits<char>,std::allocator<char> > >,std::allocator<std::pair<std::basic_string<char,std::char_traits<char>,std::allocator<char> > const ,CResource * (__cdecl*)(char const *)> >,0> >
PUBLIC	?max_size@?$_Tree@V?$_Tmap_traits@V?$basic_string@DU?$char_traits@D@std@@V?$allocator@D@2@@std@@P6APAVCResource@@PBD@ZU?$less@V?$basic_string@DU?$char_traits@D@std@@V?$allocator@D@2@@std@@@2@V?$allocator@U?$pair@$$CBV?$basic_string@DU?$char_traits@D@std@@V?$allocator@D@2@@std@@P6APAVCResource@@PBD@Z@std@@@2@$0A@@std@@@std@@QBEIXZ ; std::_Tree<std::_Tmap_traits<std::basic_string<char,std::char_traits<char>,std::allocator<char> >,CResource * (__cdecl*)(char const *),std::less<std::basic_string<char,std::char_traits<char>,std::allocator<char> > >,std::allocator<std::pair<std::basic_string<char,std::char_traits<char>,std::allocator<char> > const ,CResource * (__cdecl*)(char const *)> >,0> >::max_size
PUBLIC	?find@?$_Tree@V?$_Tmap_traits@V?$basic_string@DU?$char_traits@D@std@@V?$allocator@D@2@@std@@P6APAVCResource@@PBD@ZU?$less@V?$basic_string@DU?$char_traits@D@std@@V?$allocator@D@2@@std@@@2@V?$allocator@U?$pair@$$CBV?$basic_string@DU?$char_traits@D@std@@V?$allocator@D@2@@std@@P6APAVCResource@@PBD@Z@std@@@2@$0A@@std@@@std@@QAE?AV?$_Tree_iterator@V?$_Tree_val@U?$_Tree_simple_types@U?$pair@$$CBV?$basic_string@DU?$char_traits@D@std@@V?$allocator@D@2@@std@@P6APAVCResource@@PBD@Z@std@@@std@@@std@@@2@ABV?$basic_string@DU?$char_traits@D@std@@V?$allocator@D@2@@2@@Z ; std::_Tree<std::_Tmap_traits<std::basic_string<char,std::char_traits<char>,std::allocator<char> >,CResource * (__cdecl*)(char const *),std::less<std::basic_string<char,std::char_traits<char>,std::allocator<char> > >,std::allocator<std::pair<std::basic_string<char,std::char_traits<char>,std::allocator<char> > const ,CResource * (__cdecl*)(char const *)> >,0> >::find
PUBLIC	?_Check_grow_by_1@?$_Tree@V?$_Tmap_traits@V?$basic_string@DU?$char_traits@D@std@@V?$allocator@D@2@@std@@P6APAVCResource@@PBD@ZU?$less@V?$basic_string@DU?$char_traits@D@std@@V?$allocator@D@2@@std@@@2@V?$allocator@U?$pair@$$CBV?$basic_string@DU?$char_traits@D@std@@V?$allocator@D@2@@std@@P6APAVCResource@@PBD@Z@std@@@2@$0A@@std@@@std@@IAEXXZ ; std::_Tree<std::_Tmap_traits<std::basic_string<char,std::char_traits<char>,std::allocator<char> >,CResource * (__cdecl*)(char const *),std::less<std::basic_string<char,std::char_traits<char>,std::allocator<char> > >,std::allocator<std::pair<std::basic_string<char,std::char_traits<char>,std::allocator<char> > const ,CResource * (__cdecl*)(char const *)> >,0> >::_Check_grow_by_1
PUBLIC	?_Alloc_sentinel_and_proxy@?$_Tree@V?$_Tmap_traits@V?$basic_string@DU?$char_traits@D@std@@V?$allocator@D@2@@std@@P6APAVCResource@@PBD@ZU?$less@V?$basic_string@DU?$char_traits@D@std@@V?$allocator@D@2@@std@@@2@V?$allocator@U?$pair@$$CBV?$basic_string@DU?$char_traits@D@std@@V?$allocator@D@2@@std@@P6APAVCResource@@PBD@Z@std@@@2@$0A@@std@@@std@@IAEXXZ ; std::_Tree<std::_Tmap_traits<std::basic_string<char,std::char_traits<char>,std::allocator<char> >,CResource * (__cdecl*)(char const *),std::less<std::basic_string<char,std::char_traits<char>,std::allocator<char> > >,std::allocator<std::pair<std::basic_string<char,std::char_traits<char>,std::allocator<char> > const ,CResource * (__cdecl*)(char const *)> >,0> >::_Alloc_sentinel_and_proxy
PUBLIC	?_Lrotate@?$_Tree_val@U?$_Tree_simple_types@U?$pair@$$CBV?$basic_string@DU?$char_traits@D@std@@V?$allocator@D@2@@std@@P6APAVCResource@@PBD@Z@std@@@std@@@std@@QAEXPAU?$_Tree_node@U?$pair@$$CBV?$basic_string@DU?$char_traits@D@std@@V?$allocator@D@2@@std@@P6APAVCResource@@PBD@Z@std@@PAX@2@@Z ; std::_Tree_val<std::_Tree_simple_types<std::pair<std::basic_string<char,std::char_traits<char>,std::allocator<char> > const ,CResource * (__cdecl*)(char const *)> > >::_Lrotate
PUBLIC	?_Rrotate@?$_Tree_val@U?$_Tree_simple_types@U?$pair@$$CBV?$basic_string@DU?$char_traits@D@std@@V?$allocator@D@2@@std@@P6APAVCResource@@PBD@Z@std@@@std@@@std@@QAEXPAU?$_Tree_node@U?$pair@$$CBV?$basic_string@DU?$char_traits@D@std@@V?$allocator@D@2@@std@@P6APAVCResource@@PBD@Z@std@@PAX@2@@Z ; std::_Tree_val<std::_Tree_simple_types<std::pair<std::basic_string<char,std::char_traits<char>,std::allocator<char> > const ,CResource * (__cdecl*)(char const *)> > >::_Rrotate
PUBLIC	?_Insert_node@?$_Tree_val@U?$_Tree_simple_types@U?$pair@$$CBV?$basic_string@DU?$char_traits@D@std@@V?$allocator@D@2@@std@@P6APAVCResource@@PBD@Z@std@@@std@@@std@@QAEPAU?$_Tree_node@U?$pair@$$CBV?$basic_string@DU?$char_traits@D@std@@V?$allocator@D@2@@std@@P6APAVCResource@@PBD@Z@std@@PAX@2@U?$_Tree_id@PAU?$_Tree_node@U?$pair@$$CBV?$basic_string@DU?$char_traits@D@std@@V?$allocator@D@2@@std@@P6APAVCResource@@PBD@Z@std@@PAX@std@@@2@QAU32@@Z ; std::_Tree_val<std::_Tree_simple_types<std::pair<std::basic_string<char,std::char_traits<char>,std::allocator<char> > const ,CResource * (__cdecl*)(char const *)> > >::_Insert_node
PUBLIC	??1?$map@V?$basic_string@DU?$char_traits@D@std@@V?$allocator@D@2@@std@@P6APAVCResource@@PBD@ZU?$less@V?$basic_string@DU?$char_traits@D@std@@V?$allocator@D@2@@std@@@2@V?$allocator@U?$pair@$$CBV?$basic_string@DU?$char_traits@D@std@@V?$allocator@D@2@@std@@P6APAVCResource@@PBD@Z@std@@@2@@std@@QAE@XZ ; std::map<std::basic_string<char,std::char_traits<char>,std::allocator<char> >,CResource * (__cdecl*)(char const *),std::less<std::basic_string<char,std::char_traits<char>,std::allocator<char> > >,std::allocator<std::pair<std::basic_string<char,std::char_traits<char>,std::allocator<char> > const ,CResource * (__cdecl*)(char const *)> > >::~map<std::basic_string<char,std::char_traits<char>,std::allocator<char> >,CResource * (__cdecl*)(char const *),std::less<std::basic_string<char,std::char_traits<char>,std::allocator<char> > >,std::allocator<std::pair<std::basic_string<char,std::char_traits<char>,std::allocator<char> > const ,CResource * (__cdecl*)(char const *)> > >
PUBLIC	??0?$_Tree@V?$_Tmap_traits@HP6APAVCResource@@PBD@ZU?$less@H@std@@V?$allocator@U?$pair@$$CBHP6APAVCResource@@PBD@Z@std@@@3@$0A@@std@@@std@@QAE@ABU?$less@H@1@@Z ; std::_Tree<std::_Tmap_traits<int,CResource * (__cdecl*)(char const *),std::less<int>,std::allocator<std::pair<int const ,CResource * (__cdecl*)(char const *)> >,0> >::_Tree<std::_Tmap_traits<int,CResource * (__cdecl*)(char const *),std::less<int>,std::allocator<std::pair<int const ,CResource * (__cdecl*)(char const *)> >,0> >
PUBLIC	??1?$_Tree@V?$_Tmap_traits@HP6APAVCResource@@PBD@ZU?$less@H@std@@V?$allocator@U?$pair@$$CBHP6APAVCResource@@PBD@Z@std@@@3@$0A@@std@@@std@@QAE@XZ ; std::_Tree<std::_Tmap_traits<int,CResource * (__cdecl*)(char const *),std::less<int>,std::allocator<std::pair<int const ,CResource * (__cdecl*)(char const *)> >,0> >::~_Tree<std::_Tmap_traits<int,CResource * (__cdecl*)(char const *),std::less<int>,std::allocator<std::pair<int const ,CResource * (__cdecl*)(char const *)> >,0> >
PUBLIC	?max_size@?$_Tree@V?$_Tmap_traits@HP6APAVCResource@@PBD@ZU?$less@H@std@@V?$allocator@U?$pair@$$CBHP6APAVCResource@@PBD@Z@std@@@3@$0A@@std@@@std@@QBEIXZ ; std::_Tree<std::_Tmap_traits<int,CResource * (__cdecl*)(char const *),std::less<int>,std::allocator<std::pair<int const ,CResource * (__cdecl*)(char const *)> >,0> >::max_size
PUBLIC	?find@?$_Tree@V?$_Tmap_traits@HP6APAVCResource@@PBD@ZU?$less@H@std@@V?$allocator@U?$pair@$$CBHP6APAVCResource@@PBD@Z@std@@@3@$0A@@std@@@std@@QAE?AV?$_Tree_iterator@V?$_Tree_val@U?$_Tree_simple_types@U?$pair@$$CBHP6APAVCResource@@PBD@Z@std@@@std@@@std@@@2@ABH@Z ; std::_Tree<std::_Tmap_traits<int,CResource * (__cdecl*)(char const *),std::less<int>,std::allocator<std::pair<int const ,CResource * (__cdecl*)(char const *)> >,0> >::find
PUBLIC	?_Check_grow_by_1@?$_Tree@V?$_Tmap_traits@HP6APAVCResource@@PBD@ZU?$less@H@std@@V?$allocator@U?$pair@$$CBHP6APAVCResource@@PBD@Z@std@@@3@$0A@@std@@@std@@IAEXXZ ; std::_Tree<std::_Tmap_traits<int,CResource * (__cdecl*)(char const *),std::less<int>,std::allocator<std::pair<int const ,CResource * (__cdecl*)(char const *)> >,0> >::_Check_grow_by_1
PUBLIC	?_Alloc_sentinel_and_proxy@?$_Tree@V?$_Tmap_traits@HP6APAVCResource@@PBD@ZU?$less@H@std@@V?$allocator@U?$pair@$$CBHP6APAVCResource@@PBD@Z@std@@@3@$0A@@std@@@std@@IAEXXZ ; std::_Tree<std::_Tmap_traits<int,CResource * (__cdecl*)(char const *),std::less<int>,std::allocator<std::pair<int const ,CResource * (__cdecl*)(char const *)> >,0> >::_Alloc_sentinel_and_proxy
PUBLIC	?_Lrotate@?$_Tree_val@U?$_Tree_simple_types@U?$pair@$$CBHP6APAVCResource@@PBD@Z@std@@@std@@@std@@QAEXPAU?$_Tree_node@U?$pair@$$CBHP6APAVCResource@@PBD@Z@std@@PAX@2@@Z ; std::_Tree_val<std::_Tree_simple_types<std::pair<int const ,CResource * (__cdecl*)(char const *)> > >::_Lrotate
PUBLIC	?_Rrotate@?$_Tree_val@U?$_Tree_simple_types@U?$pair@$$CBHP6APAVCResource@@PBD@Z@std@@@std@@@std@@QAEXPAU?$_Tree_node@U?$pair@$$CBHP6APAVCResource@@PBD@Z@std@@PAX@2@@Z ; std::_Tree_val<std::_Tree_simple_types<std::pair<int const ,CResource * (__cdecl*)(char const *)> > >::_Rrotate
PUBLIC	?_Insert_node@?$_Tree_val@U?$_Tree_simple_types@U?$pair@$$CBHP6APAVCResource@@PBD@Z@std@@@std@@@std@@QAEPAU?$_Tree_node@U?$pair@$$CBHP6APAVCResource@@PBD@Z@std@@PAX@2@U?$_Tree_id@PAU?$_Tree_node@U?$pair@$$CBHP6APAVCResource@@PBD@Z@std@@PAX@std@@@2@QAU32@@Z ; std::_Tree_val<std::_Tree_simple_types<std::pair<int const ,CResource * (__cdecl*)(char const *)> > >::_Insert_node
PUBLIC	??1?$map@HP6APAVCResource@@PBD@ZU?$less@H@std@@V?$allocator@U?$pair@$$CBHP6APAVCResource@@PBD@Z@std@@@3@@std@@QAE@XZ ; std::map<int,CResource * (__cdecl*)(char const *),std::less<int>,std::allocator<std::pair<int const ,CResource * (__cdecl*)(char const *)> > >::~map<int,CResource * (__cdecl*)(char const *),std::less<int>,std::allocator<std::pair<int const ,CResource * (__cdecl*)(char const *)> > >
PUBLIC	??0?$_Tree@V?$_Tmap_traits@PAVCResource@@KU?$less@PAVCResource@@@std@@V?$allocator@U?$pair@QAVCResource@@K@std@@@3@$0A@@std@@@std@@QAE@ABU?$less@PAVCResource@@@1@@Z ; std::_Tree<std::_Tmap_traits<CResource *,unsigned long,std::less<CResource *>,std::allocator<std::pair<CResource * const,unsigned long> >,0> >::_Tree<std::_Tmap_traits<CResource *,unsigned long,std::less<CResource *>,std::allocator<std::pair<CResource * const,unsigned long> >,0> >
PUBLIC	??1?$_Tree@V?$_Tmap_traits@PAVCResource@@KU?$less@PAVCResource@@@std@@V?$allocator@U?$pair@QAVCResource@@K@std@@@3@$0A@@std@@@std@@QAE@XZ ; std::_Tree<std::_Tmap_traits<CResource *,unsigned long,std::less<CResource *>,std::allocator<std::pair<CResource * const,unsigned long> >,0> >::~_Tree<std::_Tmap_traits<CResource *,unsigned long,std::less<CResource *>,std::allocator<std::pair<CResource * const,unsigned long> >,0> >
PUBLIC	?begin@?$_Tree@V?$_Tmap_traits@PAVCResource@@KU?$less@PAVCResource@@@std@@V?$allocator@U?$pair@QAVCResource@@K@std@@@3@$0A@@std@@@std@@QAE?AV?$_Tree_iterator@V?$_Tree_val@U?$_Tree_simple_types@U?$pair@QAVCResource@@K@std@@@std@@@std@@@2@XZ ; std::_Tree<std::_Tmap_traits<CResource *,unsigned long,std::less<CResource *>,std::allocator<std::pair<CResource * const,unsigned long> >,0> >::begin
PUBLIC	?max_size@?$_Tree@V?$_Tmap_traits@PAVCResource@@KU?$less@PAVCResource@@@std@@V?$allocator@U?$pair@QAVCResource@@K@std@@@3@$0A@@std@@@std@@QBEIXZ ; std::_Tree<std::_Tmap_traits<CResource *,unsigned long,std::less<CResource *>,std::allocator<std::pair<CResource * const,unsigned long> >,0> >::max_size
PUBLIC	?_Erase_unchecked@?$_Tree@V?$_Tmap_traits@PAVCResource@@KU?$less@PAVCResource@@@std@@V?$allocator@U?$pair@QAVCResource@@K@std@@@3@$0A@@std@@@std@@AAEPAU?$_Tree_node@U?$pair@QAVCResource@@K@std@@PAX@2@V?$_Tree_unchecked_const_iterator@V?$_Tree_val@U?$_Tree_simple_types@U?$pair@QAVCResource@@K@std@@@std@@@std@@U_Iterator_base0@2@@2@@Z ; std::_Tree<std::_Tmap_traits<CResource *,unsigned long,std::less<CResource *>,std::allocator<std::pair<CResource * const,unsigned long> >,0> >::_Erase_unchecked
PUBLIC	?clear@?$_Tree@V?$_Tmap_traits@PAVCResource@@KU?$less@PAVCResource@@@std@@V?$allocator@U?$pair@QAVCResource@@K@std@@@3@$0A@@std@@@std@@QAEXXZ ; std::_Tree<std::_Tmap_traits<CResource *,unsigned long,std::less<CResource *>,std::allocator<std::pair<CResource * const,unsigned long> >,0> >::clear
PUBLIC	?_Check_grow_by_1@?$_Tree@V?$_Tmap_traits@PAVCResource@@KU?$less@PAVCResource@@@std@@V?$allocator@U?$pair@QAVCResource@@K@std@@@3@$0A@@std@@@std@@IAEXXZ ; std::_Tree<std::_Tmap_traits<CResource *,unsigned long,std::less<CResource *>,std::allocator<std::pair<CResource * const,unsigned long> >,0> >::_Check_grow_by_1
PUBLIC	?_Alloc_sentinel_and_proxy@?$_Tree@V?$_Tmap_traits@PAVCResource@@KU?$less@PAVCResource@@@std@@V?$allocator@U?$pair@QAVCResource@@K@std@@@3@$0A@@std@@@std@@IAEXXZ ; std::_Tree<std::_Tmap_traits<CResource *,unsigned long,std::less<CResource *>,std::allocator<std::pair<CResource * const,unsigned long> >,0> >::_Alloc_sentinel_and_proxy
PUBLIC	?_Lrotate@?$_Tree_val@U?$_Tree_simple_types@U?$pair@QAVCResource@@K@std@@@std@@@std@@QAEXPAU?$_Tree_node@U?$pair@QAVCResource@@K@std@@PAX@2@@Z ; std::_Tree_val<std::_Tree_simple_types<std::pair<CResource * const,unsigned long> > >::_Lrotate
PUBLIC	?_Rrotate@?$_Tree_val@U?$_Tree_simple_types@U?$pair@QAVCResource@@K@std@@@std@@@std@@QAEXPAU?$_Tree_node@U?$pair@QAVCResource@@K@std@@PAX@2@@Z ; std::_Tree_val<std::_Tree_simple_types<std::pair<CResource * const,unsigned long> > >::_Rrotate
PUBLIC	?_Extract@?$_Tree_val@U?$_Tree_simple_types@U?$pair@QAVCResource@@K@std@@@std@@@std@@QAEPAU?$_Tree_node@U?$pair@QAVCResource@@K@std@@PAX@2@V?$_Tree_unchecked_const_iterator@V?$_Tree_val@U?$_Tree_simple_types@U?$pair@QAVCResource@@K@std@@@std@@@std@@U_Iterator_base0@2@@2@@Z ; std::_Tree_val<std::_Tree_simple_types<std::pair<CResource * const,unsigned long> > >::_Extract
PUBLIC	?_Insert_node@?$_Tree_val@U?$_Tree_simple_types@U?$pair@QAVCResource@@K@std@@@std@@@std@@QAEPAU?$_Tree_node@U?$pair@QAVCResource@@K@std@@PAX@2@U?$_Tree_id@PAU?$_Tree_node@U?$pair@QAVCResource@@K@std@@PAX@std@@@2@QAU32@@Z ; std::_Tree_val<std::_Tree_simple_types<std::pair<CResource * const,unsigned long> > >::_Insert_node
PUBLIC	??1?$map@PAVCResource@@KU?$less@PAVCResource@@@std@@V?$allocator@U?$pair@QAVCResource@@K@std@@@3@@std@@QAE@XZ ; std::map<CResource *,unsigned long,std::less<CResource *>,std::allocator<std::pair<CResource * const,unsigned long> > >::~map<CResource *,unsigned long,std::less<CResource *>,std::allocator<std::pair<CResource * const,unsigned long> > >
PUBLIC	??0?$_Tree@V?$_Tmap_traits@KV?$basic_string@DU?$char_traits@D@std@@V?$allocator@D@2@@std@@U?$less@K@2@V?$allocator@U?$pair@$$CBKV?$basic_string@DU?$char_traits@D@std@@V?$allocator@D@2@@std@@@std@@@2@$0A@@std@@@std@@QAE@ABU?$less@K@1@@Z ; std::_Tree<std::_Tmap_traits<unsigned long,std::basic_string<char,std::char_traits<char>,std::allocator<char> >,std::less<unsigned long>,std::allocator<std::pair<unsigned long const ,std::basic_string<char,std::char_traits<char>,std::allocator<char> > > >,0> >::_Tree<std::_Tmap_traits<unsigned long,std::basic_string<char,std::char_traits<char>,std::allocator<char> >,std::less<unsigned long>,std::allocator<std::pair<unsigned long const ,std::basic_string<char,std::char_traits<char>,std::allocator<char> > > >,0> >
PUBLIC	??1?$_Tree@V?$_Tmap_traits@KV?$basic_string@DU?$char_traits@D@std@@V?$allocator@D@2@@std@@U?$less@K@2@V?$allocator@U?$pair@$$CBKV?$basic_string@DU?$char_traits@D@std@@V?$allocator@D@2@@std@@@std@@@2@$0A@@std@@@std@@QAE@XZ ; std::_Tree<std::_Tmap_traits<unsigned long,std::basic_string<char,std::char_traits<char>,std::allocator<char> >,std::less<unsigned long>,std::allocator<std::pair<unsigned long const ,std::basic_string<char,std::char_traits<char>,std::allocator<char> > > >,0> >::~_Tree<std::_Tmap_traits<unsigned long,std::basic_string<char,std::char_traits<char>,std::allocator<char> >,std::less<unsigned long>,std::allocator<std::pair<unsigned long const ,std::basic_string<char,std::char_traits<char>,std::allocator<char> > > >,0> >
PUBLIC	?begin@?$_Tree@V?$_Tmap_traits@KV?$basic_string@DU?$char_traits@D@std@@V?$allocator@D@2@@std@@U?$less@K@2@V?$allocator@U?$pair@$$CBKV?$basic_string@DU?$char_traits@D@std@@V?$allocator@D@2@@std@@@std@@@2@$0A@@std@@@std@@QAE?AV?$_Tree_iterator@V?$_Tree_val@U?$_Tree_simple_types@U?$pair@$$CBKV?$basic_string@DU?$char_traits@D@std@@V?$allocator@D@2@@std@@@std@@@std@@@std@@@2@XZ ; std::_Tree<std::_Tmap_traits<unsigned long,std::basic_string<char,std::char_traits<char>,std::allocator<char> >,std::less<unsigned long>,std::allocator<std::pair<unsigned long const ,std::basic_string<char,std::char_traits<char>,std::allocator<char> > > >,0> >::begin
PUBLIC	?end@?$_Tree@V?$_Tmap_traits@KV?$basic_string@DU?$char_traits@D@std@@V?$allocator@D@2@@std@@U?$less@K@2@V?$allocator@U?$pair@$$CBKV?$basic_string@DU?$char_traits@D@std@@V?$allocator@D@2@@std@@@std@@@2@$0A@@std@@@std@@QAE?AV?$_Tree_iterator@V?$_Tree_val@U?$_Tree_simple_types@U?$pair@$$CBKV?$basic_string@DU?$char_traits@D@std@@V?$allocator@D@2@@std@@@std@@@std@@@std@@@2@XZ ; std::_Tree<std::_Tmap_traits<unsigned long,std::basic_string<char,std::char_traits<char>,std::allocator<char> >,std::less<unsigned long>,std::allocator<std::pair<unsigned long const ,std::basic_string<char,std::char_traits<char>,std::allocator<char> > > >,0> >::end
PUBLIC	?max_size@?$_Tree@V?$_Tmap_traits@KV?$basic_string@DU?$char_traits@D@std@@V?$allocator@D@2@@std@@U?$less@K@2@V?$allocator@U?$pair@$$CBKV?$basic_string@DU?$char_traits@D@std@@V?$allocator@D@2@@std@@@std@@@2@$0A@@std@@@std@@QBEIXZ ; std::_Tree<std::_Tmap_traits<unsigned long,std::basic_string<char,std::char_traits<char>,std::allocator<char> >,std::less<unsigned long>,std::allocator<std::pair<unsigned long const ,std::basic_string<char,std::char_traits<char>,std::allocator<char> > > >,0> >::max_size
PUBLIC	?_Erase_unchecked@?$_Tree@V?$_Tmap_traits@KV?$basic_string@DU?$char_traits@D@std@@V?$allocator@D@2@@std@@U?$less@K@2@V?$allocator@U?$pair@$$CBKV?$basic_string@DU?$char_traits@D@std@@V?$allocator@D@2@@std@@@std@@@2@$0A@@std@@@std@@AAEPAU?$_Tree_node@U?$pair@$$CBKV?$basic_string@DU?$char_traits@D@std@@V?$allocator@D@2@@std@@@std@@PAX@2@V?$_Tree_unchecked_const_iterator@V?$_Tree_val@U?$_Tree_simple_types@U?$pair@$$CBKV?$basic_string@DU?$char_traits@D@std@@V?$allocator@D@2@@std@@@std@@@std@@@std@@U_Iterator_base0@2@@2@@Z ; std::_Tree<std::_Tmap_traits<unsigned long,std::basic_string<char,std::char_traits<char>,std::allocator<char> >,std::less<unsigned long>,std::allocator<std::pair<unsigned long const ,std::basic_string<char,std::char_traits<char>,std::allocator<char> > > >,0> >::_Erase_unchecked
PUBLIC	?_Erase_unchecked@?$_Tree@V?$_Tmap_traits@KV?$basic_string@DU?$char_traits@D@std@@V?$allocator@D@2@@std@@U?$less@K@2@V?$allocator@U?$pair@$$CBKV?$basic_string@DU?$char_traits@D@std@@V?$allocator@D@2@@std@@@std@@@2@$0A@@std@@@std@@AAEPAU?$_Tree_node@U?$pair@$$CBKV?$basic_string@DU?$char_traits@D@std@@V?$allocator@D@2@@std@@@std@@PAX@2@V?$_Tree_unchecked_const_iterator@V?$_Tree_val@U?$_Tree_simple_types@U?$pair@$$CBKV?$basic_string@DU?$char_traits@D@std@@V?$allocator@D@2@@std@@@std@@@std@@@std@@U_Iterator_base0@2@@2@0@Z ; std::_Tree<std::_Tmap_traits<unsigned long,std::basic_string<char,std::char_traits<char>,std::allocator<char> >,std::less<unsigned long>,std::allocator<std::pair<unsigned long const ,std::basic_string<char,std::char_traits<char>,std::allocator<char> > > >,0> >::_Erase_unchecked
PUBLIC	?erase@?$_Tree@V?$_Tmap_traits@KV?$basic_string@DU?$char_traits@D@std@@V?$allocator@D@2@@std@@U?$less@K@2@V?$allocator@U?$pair@$$CBKV?$basic_string@DU?$char_traits@D@std@@V?$allocator@D@2@@std@@@std@@@2@$0A@@std@@@std@@QAEIABK@Z ; std::_Tree<std::_Tmap_traits<unsigned long,std::basic_string<char,std::char_traits<char>,std::allocator<char> >,std::less<unsigned long>,std::allocator<std::pair<unsigned long const ,std::basic_string<char,std::char_traits<char>,std::allocator<char> > > >,0> >::erase
PUBLIC	?clear@?$_Tree@V?$_Tmap_traits@KV?$basic_string@DU?$char_traits@D@std@@V?$allocator@D@2@@std@@U?$less@K@2@V?$allocator@U?$pair@$$CBKV?$basic_string@DU?$char_traits@D@std@@V?$allocator@D@2@@std@@@std@@@2@$0A@@std@@@std@@QAEXXZ ; std::_Tree<std::_Tmap_traits<unsigned long,std::basic_string<char,std::char_traits<char>,std::allocator<char> >,std::less<unsigned long>,std::allocator<std::pair<unsigned long const ,std::basic_string<char,std::char_traits<char>,std::allocator<char> > > >,0> >::clear
PUBLIC	?_Check_grow_by_1@?$_Tree@V?$_Tmap_traits@KV?$basic_string@DU?$char_traits@D@std@@V?$allocator@D@2@@std@@U?$less@K@2@V?$allocator@U?$pair@$$CBKV?$basic_string@DU?$char_traits@D@std@@V?$allocator@D@2@@std@@@std@@@2@$0A@@std@@@std@@IAEXXZ ; std::_Tree<std::_Tmap_traits<unsigned long,std::basic_string<char,std::char_traits<char>,std::allocator<char> >,std::less<unsigned long>,std::allocator<std::pair<unsigned long const ,std::basic_string<char,std::char_traits<char>,std::allocator<char> > > >,0> >::_Check_grow_by_1
PUBLIC	?_Alloc_sentinel_and_proxy@?$_Tree@V?$_Tmap_traits@KV?$basic_string@DU?$char_traits@D@std@@V?$allocator@D@2@@std@@U?$less@K@2@V?$allocator@U?$pair@$$CBKV?$basic_string@DU?$char_traits@D@std@@V?$allocator@D@2@@std@@@std@@@2@$0A@@std@@@std@@IAEXXZ ; std::_Tree<std::_Tmap_traits<unsigned long,std::basic_string<char,std::char_traits<char>,std::allocator<char> >,std::less<unsigned long>,std::allocator<std::pair<unsigned long const ,std::basic_string<char,std::char_traits<char>,std::allocator<char> > > >,0> >::_Alloc_sentinel_and_proxy
PUBLIC	?_Lrotate@?$_Tree_val@U?$_Tree_simple_types@U?$pair@$$CBKV?$basic_string@DU?$char_traits@D@std@@V?$allocator@D@2@@std@@@std@@@std@@@std@@QAEXPAU?$_Tree_node@U?$pair@$$CBKV?$basic_string@DU?$char_traits@D@std@@V?$allocator@D@2@@std@@@std@@PAX@2@@Z ; std::_Tree_val<std::_Tree_simple_types<std::pair<unsigned long const ,std::basic_string<char,std::char_traits<char>,std::allocator<char> > > > >::_Lrotate
PUBLIC	?_Rrotate@?$_Tree_val@U?$_Tree_simple_types@U?$pair@$$CBKV?$basic_string@DU?$char_traits@D@std@@V?$allocator@D@2@@std@@@std@@@std@@@std@@QAEXPAU?$_Tree_node@U?$pair@$$CBKV?$basic_string@DU?$char_traits@D@std@@V?$allocator@D@2@@std@@@std@@PAX@2@@Z ; std::_Tree_val<std::_Tree_simple_types<std::pair<unsigned long const ,std::basic_string<char,std::char_traits<char>,std::allocator<char> > > > >::_Rrotate
PUBLIC	?_Extract@?$_Tree_val@U?$_Tree_simple_types@U?$pair@$$CBKV?$basic_string@DU?$char_traits@D@std@@V?$allocator@D@2@@std@@@std@@@std@@@std@@QAEPAU?$_Tree_node@U?$pair@$$CBKV?$basic_string@DU?$char_traits@D@std@@V?$allocator@D@2@@std@@@std@@PAX@2@V?$_Tree_unchecked_const_iterator@V?$_Tree_val@U?$_Tree_simple_types@U?$pair@$$CBKV?$basic_string@DU?$char_traits@D@std@@V?$allocator@D@2@@std@@@std@@@std@@@std@@U_Iterator_base0@2@@2@@Z ; std::_Tree_val<std::_Tree_simple_types<std::pair<unsigned long const ,std::basic_string<char,std::char_traits<char>,std::allocator<char> > > > >::_Extract
PUBLIC	?_Insert_node@?$_Tree_val@U?$_Tree_simple_types@U?$pair@$$CBKV?$basic_string@DU?$char_traits@D@std@@V?$allocator@D@2@@std@@@std@@@std@@@std@@QAEPAU?$_Tree_node@U?$pair@$$CBKV?$basic_string@DU?$char_traits@D@std@@V?$allocator@D@2@@std@@@std@@PAX@2@U?$_Tree_id@PAU?$_Tree_node@U?$pair@$$CBKV?$basic_string@DU?$char_traits@D@std@@V?$allocator@D@2@@std@@@std@@PAX@std@@@2@QAU32@@Z ; std::_Tree_val<std::_Tree_simple_types<std::pair<unsigned long const ,std::basic_string<char,std::char_traits<char>,std::allocator<char> > > > >::_Insert_node
PUBLIC	??1?$map@KV?$basic_string@DU?$char_traits@D@std@@V?$allocator@D@2@@std@@U?$less@K@2@V?$allocator@U?$pair@$$CBKV?$basic_string@DU?$char_traits@D@std@@V?$allocator@D@2@@std@@@std@@@2@@std@@QAE@XZ ; std::map<unsigned long,std::basic_string<char,std::char_traits<char>,std::allocator<char> >,std::less<unsigned long>,std::allocator<std::pair<unsigned long const ,std::basic_string<char,std::char_traits<char>,std::allocator<char> > > > >::~map<unsigned long,std::basic_string<char,std::char_traits<char>,std::allocator<char> >,std::less<unsigned long>,std::allocator<std::pair<unsigned long const ,std::basic_string<char,std::char_traits<char>,std::allocator<char> > > > >
PUBLIC	??0?$_Tree@V?$_Tmap_traits@JPAVCResource@@U?$less@J@std@@V?$allocator@U?$pair@$$CBJPAVCResource@@@std@@@3@$0A@@std@@@std@@QAE@ABU?$less@J@1@@Z ; std::_Tree<std::_Tmap_traits<long,CResource *,std::less<long>,std::allocator<std::pair<long const ,CResource *> >,0> >::_Tree<std::_Tmap_traits<long,CResource *,std::less<long>,std::allocator<std::pair<long const ,CResource *> >,0> >
PUBLIC	??1?$_Tree@V?$_Tmap_traits@JPAVCResource@@U?$less@J@std@@V?$allocator@U?$pair@$$CBJPAVCResource@@@std@@@3@$0A@@std@@@std@@QAE@XZ ; std::_Tree<std::_Tmap_traits<long,CResource *,std::less<long>,std::allocator<std::pair<long const ,CResource *> >,0> >::~_Tree<std::_Tmap_traits<long,CResource *,std::less<long>,std::allocator<std::pair<long const ,CResource *> >,0> >
PUBLIC	?max_size@?$_Tree@V?$_Tmap_traits@JPAVCResource@@U?$less@J@std@@V?$allocator@U?$pair@$$CBJPAVCResource@@@std@@@3@$0A@@std@@@std@@QBEIXZ ; std::_Tree<std::_Tmap_traits<long,CResource *,std::less<long>,std::allocator<std::pair<long const ,CResource *> >,0> >::max_size
PUBLIC	?_Erase_unchecked@?$_Tree@V?$_Tmap_traits@JPAVCResource@@U?$less@J@std@@V?$allocator@U?$pair@$$CBJPAVCResource@@@std@@@3@$0A@@std@@@std@@AAEPAU?$_Tree_node@U?$pair@$$CBJPAVCResource@@@std@@PAX@2@V?$_Tree_unchecked_const_iterator@V?$_Tree_val@U?$_Tree_simple_types@U?$pair@$$CBJPAVCResource@@@std@@@std@@@std@@U_Iterator_base0@2@@2@@Z ; std::_Tree<std::_Tmap_traits<long,CResource *,std::less<long>,std::allocator<std::pair<long const ,CResource *> >,0> >::_Erase_unchecked
PUBLIC	?_Check_grow_by_1@?$_Tree@V?$_Tmap_traits@JPAVCResource@@U?$less@J@std@@V?$allocator@U?$pair@$$CBJPAVCResource@@@std@@@3@$0A@@std@@@std@@IAEXXZ ; std::_Tree<std::_Tmap_traits<long,CResource *,std::less<long>,std::allocator<std::pair<long const ,CResource *> >,0> >::_Check_grow_by_1
PUBLIC	?_Alloc_sentinel_and_proxy@?$_Tree@V?$_Tmap_traits@JPAVCResource@@U?$less@J@std@@V?$allocator@U?$pair@$$CBJPAVCResource@@@std@@@3@$0A@@std@@@std@@IAEXXZ ; std::_Tree<std::_Tmap_traits<long,CResource *,std::less<long>,std::allocator<std::pair<long const ,CResource *> >,0> >::_Alloc_sentinel_and_proxy
PUBLIC	?_Lrotate@?$_Tree_val@U?$_Tree_simple_types@U?$pair@$$CBJPAVCResource@@@std@@@std@@@std@@QAEXPAU?$_Tree_node@U?$pair@$$CBJPAVCResource@@@std@@PAX@2@@Z ; std::_Tree_val<std::_Tree_simple_types<std::pair<long const ,CResource *> > >::_Lrotate
PUBLIC	?_Rrotate@?$_Tree_val@U?$_Tree_simple_types@U?$pair@$$CBJPAVCResource@@@std@@@std@@@std@@QAEXPAU?$_Tree_node@U?$pair@$$CBJPAVCResource@@@std@@PAX@2@@Z ; std::_Tree_val<std::_Tree_simple_types<std::pair<long const ,CResource *> > >::_Rrotate
PUBLIC	?_Extract@?$_Tree_val@U?$_Tree_simple_types@U?$pair@$$CBJPAVCResource@@@std@@@std@@@std@@QAEPAU?$_Tree_node@U?$pair@$$CBJPAVCResource@@@std@@PAX@2@V?$_Tree_unchecked_const_iterator@V?$_Tree_val@U?$_Tree_simple_types@U?$pair@$$CBJPAVCResource@@@std@@@std@@@std@@U_Iterator_base0@2@@2@@Z ; std::_Tree_val<std::_Tree_simple_types<std::pair<long const ,CResource *> > >::_Extract
PUBLIC	?_Insert_node@?$_Tree_val@U?$_Tree_simple_types@U?$pair@$$CBJPAVCResource@@@std@@@std@@@std@@QAEPAU?$_Tree_node@U?$pair@$$CBJPAVCResource@@@std@@PAX@2@U?$_Tree_id@PAU?$_Tree_node@U?$pair@$$CBJPAVCResource@@@std@@PAX@std@@@2@QAU32@@Z ; std::_Tree_val<std::_Tree_simple_types<std::pair<long const ,CResource *> > >::_Insert_node
PUBLIC	??_GCResourceManager@@UAEPAXI@Z			; CResourceManager::`scalar deleting destructor'
PUBLIC	??E?$_Tree_unchecked_const_iterator@V?$_Tree_val@U?$_Tree_simple_types@U?$pair@$$CBKPAVCResource@@@std@@@std@@@std@@U_Iterator_base0@2@@std@@QAEAAV01@XZ ; std::_Tree_unchecked_const_iterator<std::_Tree_val<std::_Tree_simple_types<std::pair<unsigned long const ,CResource *> > >,std::_Iterator_base0>::operator++
PUBLIC	??$insert@$0A@$0A@@?$_Tree@V?$_Tmap_traits@KPAVCResource@@U?$less@K@std@@V?$allocator@U?$pair@$$CBKPAVCResource@@@std@@@3@$0A@@std@@@std@@QAE?AU?$pair@V?$_Tree_iterator@V?$_Tree_val@U?$_Tree_simple_types@U?$pair@$$CBKPAVCResource@@@std@@@std@@@std@@@std@@_N@1@$$QAU?$pair@$$CBKPAVCResource@@@1@@Z ; std::_Tree<std::_Tmap_traits<unsigned long,CResource *,std::less<unsigned long>,std::allocator<std::pair<unsigned long const ,CResource *> >,0> >::insert<0,0>
PUBLIC	??0?$_Tree_unchecked_const_iterator@V?$_Tree_val@U?$_Tree_simple_types@U?$pair@$$CBKV?$basic_string@DU?$char_traits@D@std@@V?$allocator@D@2@@std@@@std@@@std@@@std@@U_Iterator_base0@2@@std@@QAE@PAU?$_Tree_node@U?$pair@$$CBKV?$basic_string@DU?$char_traits@D@std@@V?$allocator@D@2@@std@@@std@@PAX@1@PBV?$_Tree_val@U?$_Tree_simple_types@U?$pair@$$CBKV?$basic_string@DU?$char_traits@D@std@@V?$allocator@D@2@@std@@@std@@@std@@@1@@Z ; std::_Tree_unchecked_const_iterator<std::_Tree_val<std::_Tree_simple_types<std::pair<unsigned long const ,std::basic_string<char,std::char_traits<char>,std::allocator<char> > > > >,std::_Iterator_base0>::_Tree_unchecked_const_iterator<std::_Tree_val<std::_Tree_simple_types<std::pair<unsigned long const ,std::basic_string<char,std::char_traits<char>,std::allocator<char> > > > >,std::_Iterator_base0>
PUBLIC	??E?$_Tree_unchecked_const_iterator@V?$_Tree_val@U?$_Tree_simple_types@U?$pair@$$CBKV?$basic_string@DU?$char_traits@D@std@@V?$allocator@D@2@@std@@@std@@@std@@@std@@U_Iterator_base0@2@@std@@QAEAAV01@XZ ; std::_Tree_unchecked_const_iterator<std::_Tree_val<std::_Tree_simple_types<std::pair<unsigned long const ,std::basic_string<char,std::char_traits<char>,std::allocator<char> > > > >,std::_Iterator_base0>::operator++
PUBLIC	??1?$pair@$$CBKV?$basic_string@DU?$char_traits@D@std@@V?$allocator@D@2@@std@@@std@@QAE@XZ ; std::pair<unsigned long const ,std::basic_string<char,std::char_traits<char>,std::allocator<char> > >::~pair<unsigned long const ,std::basic_string<char,std::char_traits<char>,std::allocator<char> > >
PUBLIC	??$erase@V?$_Tree_iterator@V?$_Tree_val@U?$_Tree_simple_types@U?$pair@$$CBKV?$basic_string@DU?$char_traits@D@std@@V?$allocator@D@2@@std@@@std@@@std@@@std@@@std@@$0A@@?$_Tree@V?$_Tmap_traits@KV?$basic_string@DU?$char_traits@D@std@@V?$allocator@D@2@@std@@U?$less@K@2@V?$allocator@U?$pair@$$CBKV?$basic_string@DU?$char_traits@D@std@@V?$allocator@D@2@@std@@@std@@@2@$0A@@std@@@std@@QAE?AV?$_Tree_iterator@V?$_Tree_val@U?$_Tree_simple_types@U?$pair@$$CBKV?$basic_string@DU?$char_traits@D@std@@V?$allocator@D@2@@std@@@std@@@std@@@std@@@1@V21@@Z ; std::_Tree<std::_Tmap_traits<unsigned long,std::basic_string<char,std::char_traits<char>,std::allocator<char> >,std::less<unsigned long>,std::allocator<std::pair<unsigned long const ,std::basic_string<char,std::char_traits<char>,std::allocator<char> > > >,0> >::erase<std::_Tree_iterator<std::_Tree_val<std::_Tree_simple_types<std::pair<unsigned long const ,std::basic_string<char,std::char_traits<char>,std::allocator<char> > > > > >,0>
PUBLIC	??$insert@$0A@$0A@@?$_Tree@V?$_Tmap_traits@KV?$basic_string@DU?$char_traits@D@std@@V?$allocator@D@2@@std@@U?$less@K@2@V?$allocator@U?$pair@$$CBKV?$basic_string@DU?$char_traits@D@std@@V?$allocator@D@2@@std@@@std@@@2@$0A@@std@@@std@@QAE?AU?$pair@V?$_Tree_iterator@V?$_Tree_val@U?$_Tree_simple_types@U?$pair@$$CBKV?$basic_string@DU?$char_traits@D@std@@V?$allocator@D@2@@std@@@std@@@std@@@std@@@std@@_N@1@$$QAU?$pair@$$CBKV?$basic_string@DU?$char_traits@D@std@@V?$allocator@D@2@@std@@@1@@Z ; std::_Tree<std::_Tmap_traits<unsigned long,std::basic_string<char,std::char_traits<char>,std::allocator<char> >,std::less<unsigned long>,std::allocator<std::pair<unsigned long const ,std::basic_string<char,std::char_traits<char>,std::allocator<char> > > >,0> >::insert<0,0>
PUBLIC	??$insert@$0A@$0A@@?$_Tree@V?$_Tmap_traits@JPAVCResource@@U?$less@J@std@@V?$allocator@U?$pair@$$CBJPAVCResource@@@std@@@3@$0A@@std@@@std@@QAE?AU?$pair@V?$_Tree_iterator@V?$_Tree_val@U?$_Tree_simple_types@U?$pair@$$CBJPAVCResource@@@std@@@std@@@std@@@std@@_N@1@$$QAU?$pair@$$CBJPAVCResource@@@1@@Z ; std::_Tree<std::_Tmap_traits<long,CResource *,std::less<long>,std::allocator<std::pair<long const ,CResource *> >,0> >::insert<0,0>
PUBLIC	??E?$_Tree_unchecked_const_iterator@V?$_Tree_val@U?$_Tree_simple_types@U?$pair@$$CBJPAVCResource@@@std@@@std@@@std@@U_Iterator_base0@2@@std@@QAEAAV01@XZ ; std::_Tree_unchecked_const_iterator<std::_Tree_val<std::_Tree_simple_types<std::pair<long const ,CResource *> > >,std::_Iterator_base0>::operator++
PUBLIC	??$_Eqrange@K@?$_Tree@V?$_Tmap_traits@KV?$basic_string@DU?$char_traits@D@std@@V?$allocator@D@2@@std@@U?$less@K@2@V?$allocator@U?$pair@$$CBKV?$basic_string@DU?$char_traits@D@std@@V?$allocator@D@2@@std@@@std@@@2@$0A@@std@@@std@@IBE?AU?$pair@PAU?$_Tree_node@U?$pair@$$CBKV?$basic_string@DU?$char_traits@D@std@@V?$allocator@D@2@@std@@@std@@PAX@std@@PAU12@@1@ABK@Z ; std::_Tree<std::_Tmap_traits<unsigned long,std::basic_string<char,std::char_traits<char>,std::allocator<char> >,std::less<unsigned long>,std::allocator<std::pair<unsigned long const ,std::basic_string<char,std::char_traits<char>,std::allocator<char> > > >,0> >::_Eqrange<unsigned long>
PUBLIC	??$erase@V?$_Tree_iterator@V?$_Tree_val@U?$_Tree_simple_types@U?$pair@$$CBJPAVCResource@@@std@@@std@@@std@@@std@@$0A@@?$_Tree@V?$_Tmap_traits@JPAVCResource@@U?$less@J@std@@V?$allocator@U?$pair@$$CBJPAVCResource@@@std@@@3@$0A@@std@@@std@@QAE?AV?$_Tree_iterator@V?$_Tree_val@U?$_Tree_simple_types@U?$pair@$$CBJPAVCResource@@@std@@@std@@@std@@@1@V21@@Z ; std::_Tree<std::_Tmap_traits<long,CResource *,std::less<long>,std::allocator<std::pair<long const ,CResource *> >,0> >::erase<std::_Tree_iterator<std::_Tree_val<std::_Tree_simple_types<std::pair<long const ,CResource *> > > >,0>
PUBLIC	??E?$_Tree_unchecked_const_iterator@V?$_Tree_val@U?$_Tree_simple_types@V?$basic_string@DU?$char_traits@D@std@@V?$allocator@D@2@@std@@@std@@@std@@U_Iterator_base0@2@@std@@QAEAAV01@XZ ; std::_Tree_unchecked_const_iterator<std::_Tree_val<std::_Tree_simple_types<std::basic_string<char,std::char_traits<char>,std::allocator<char> > > >,std::_Iterator_base0>::operator++
PUBLIC	??E?$_Tree_unchecked_const_iterator@V?$_Tree_val@U?$_Tree_simple_types@U?$pair@QAVCResource@@K@std@@@std@@@std@@U_Iterator_base0@2@@std@@QAEAAV01@XZ ; std::_Tree_unchecked_const_iterator<std::_Tree_val<std::_Tree_simple_types<std::pair<CResource * const,unsigned long> > >,std::_Iterator_base0>::operator++
PUBLIC	??$stl_wipe_second@V?$map@KPAVCResource@@U?$less@K@std@@V?$allocator@U?$pair@$$CBKPAVCResource@@@std@@@3@@std@@@@YAXAAV?$map@KPAVCResource@@U?$less@K@std@@V?$allocator@U?$pair@$$CBKPAVCResource@@@std@@@3@@std@@@Z ; stl_wipe_second<std::map<unsigned long,CResource *,std::less<unsigned long>,std::allocator<std::pair<unsigned long const ,CResource *> > > >
PUBLIC	?__ConvertPathName@@YAHPBDPADH@Z		; __ConvertPathName
PUBLIC	?DumpKBCompare@@YA_NABUSDumpData@@0@Z		; DumpKBCompare
PUBLIC	?DumpCostCompare@@YA_NABUSDumpData@@0@Z		; DumpCostCompare
PUBLIC	??RFDumpPrint@@QAEXAAUSDumpData@@@Z		; FDumpPrint::operator()
PUBLIC	?deallocate@?$allocator@USDumpData@@@std@@QAEXQAUSDumpData@@I@Z ; std::allocator<SDumpData>::deallocate
PUBLIC	??1?$vector@USDumpData@@V?$allocator@USDumpData@@@std@@@std@@QAE@XZ ; std::vector<SDumpData,std::allocator<SDumpData> >::~vector<SDumpData,std::allocator<SDumpData> >
PUBLIC	?_Destroy@?$vector@USDumpData@@V?$allocator@USDumpData@@@std@@@std@@AAEXPAUSDumpData@@0@Z ; std::vector<SDumpData,std::allocator<SDumpData> >::_Destroy
PUBLIC	?_Calculate_growth@?$vector@USDumpData@@V?$allocator@USDumpData@@@std@@@std@@ABEII@Z ; std::vector<SDumpData,std::allocator<SDumpData> >::_Calculate_growth
PUBLIC	?_Change_array@?$vector@USDumpData@@V?$allocator@USDumpData@@@std@@@std@@AAEXQAUSDumpData@@II@Z ; std::vector<SDumpData,std::allocator<SDumpData> >::_Change_array
PUBLIC	?_Tidy@?$vector@USDumpData@@V?$allocator@USDumpData@@@std@@@std@@AAEXXZ ; std::vector<SDumpData,std::allocator<SDumpData> >::_Tidy
PUBLIC	?_Xlength@?$vector@USDumpData@@V?$allocator@USDumpData@@@std@@@std@@CAXXZ ; std::vector<SDumpData,std::allocator<SDumpData> >::_Xlength
PUBLIC	??0?$_Vector_val@U?$_Simple_types@USDumpData@@@std@@@std@@QAE@XZ ; std::_Vector_val<std::_Simple_types<SDumpData> >::_Vector_val<std::_Simple_types<SDumpData> >
PUBLIC	??0?$_Vector_const_iterator@V?$_Vector_val@U?$_Simple_types@USDumpData@@@std@@@std@@@std@@QAE@PAUSDumpData@@PBU_Container_base0@1@@Z ; std::_Vector_const_iterator<std::_Vector_val<std::_Simple_types<SDumpData> > >::_Vector_const_iterator<std::_Vector_val<std::_Simple_types<SDumpData> > >
PUBLIC	??$sort@V?$_Vector_iterator@V?$_Vector_val@U?$_Simple_types@USDumpData@@@std@@@std@@@std@@P6A_NABUSDumpData@@0@Z@std@@YAXV?$_Vector_iterator@V?$_Vector_val@U?$_Simple_types@USDumpData@@@std@@@std@@@0@0P6A_NABUSDumpData@@1@Z@Z ; std::sort<std::_Vector_iterator<std::_Vector_val<std::_Simple_types<SDumpData> > >,bool (__cdecl*)(SDumpData const &,SDumpData const &)>
PUBLIC	??$for_each@V?$_Vector_iterator@V?$_Vector_val@U?$_Simple_types@USDumpData@@@std@@@std@@@std@@UFDumpCostPrint@@@std@@YA?AUFDumpCostPrint@@V?$_Vector_iterator@V?$_Vector_val@U?$_Simple_types@USDumpData@@@std@@@std@@@0@0U1@@Z ; std::for_each<std::_Vector_iterator<std::_Vector_val<std::_Simple_types<SDumpData> > >,FDumpCostPrint>
PUBLIC	??$erase@V?$_Tree_iterator@V?$_Tree_val@U?$_Tree_simple_types@U?$pair@QAVCResource@@K@std@@@std@@@std@@@std@@$0A@@?$_Tree@V?$_Tmap_traits@PAVCResource@@KU?$less@PAVCResource@@@std@@V?$allocator@U?$pair@QAVCResource@@K@std@@@3@$0A@@std@@@std@@QAE?AV?$_Tree_iterator@V?$_Tree_val@U?$_Tree_simple_types@U?$pair@QAVCResource@@K@std@@@std@@@std@@@1@V21@@Z ; std::_Tree<std::_Tmap_traits<CResource *,unsigned long,std::less<CResource *>,std::allocator<std::pair<CResource * const,unsigned long> >,0> >::erase<std::_Tree_iterator<std::_Tree_val<std::_Tree_simple_types<std::pair<CResource * const,unsigned long> > > >,0>
PUBLIC	??$insert@$0A@$0A@@?$_Tree@V?$_Tmap_traits@PAVCResource@@KU?$less@PAVCResource@@@std@@V?$allocator@U?$pair@QAVCResource@@K@std@@@3@$0A@@std@@@std@@QAE?AU?$pair@V?$_Tree_iterator@V?$_Tree_val@U?$_Tree_simple_types@U?$pair@QAVCResource@@K@std@@@std@@@std@@@std@@_N@1@$$QAU?$pair@QAVCResource@@K@1@@Z ; std::_Tree<std::_Tmap_traits<CResource *,unsigned long,std::less<CResource *>,std::allocator<std::pair<CResource * const,unsigned long> >,0> >::insert<0,0>
PUBLIC	??$emplace_back@ABUSDumpData@@@?$vector@USDumpData@@V?$allocator@USDumpData@@@std@@@std@@QAEXABUSDumpData@@@Z ; std::vector<SDumpData,std::allocator<SDumpData> >::emplace_back<SDumpData const &>
PUBLIC	??$_Emplace_reallocate@ABUSDumpData@@@?$vector@USDumpData@@V?$allocator@USDumpData@@@std@@@std@@QAEPAUSDumpData@@QAU2@ABU2@@Z ; std::vector<SDumpData,std::allocator<SDumpData> >::_Emplace_reallocate<SDumpData const &>
PUBLIC	??$_Find@K@?$_Tree@V?$_Tmap_traits@KV?$basic_string@DU?$char_traits@D@std@@V?$allocator@D@2@@std@@U?$less@K@2@V?$allocator@U?$pair@$$CBKV?$basic_string@DU?$char_traits@D@std@@V?$allocator@D@2@@std@@@std@@@2@$0A@@std@@@std@@ABEPAU?$_Tree_node@U?$pair@$$CBKV?$basic_string@DU?$char_traits@D@std@@V?$allocator@D@2@@std@@@std@@PAX@1@ABK@Z ; std::_Tree<std::_Tmap_traits<unsigned long,std::basic_string<char,std::char_traits<char>,std::allocator<char> >,std::less<unsigned long>,std::allocator<std::pair<unsigned long const ,std::basic_string<char,std::char_traits<char>,std::allocator<char> > > >,0> >::_Find<unsigned long>
PUBLIC	??$distance@V?$_Tree_unchecked_const_iterator@V?$_Tree_val@U?$_Tree_simple_types@U?$pair@$$CBKV?$basic_string@DU?$char_traits@D@std@@V?$allocator@D@2@@std@@@std@@@std@@@std@@U_Iterator_base0@2@@std@@@std@@YAHV?$_Tree_unchecked_const_iterator@V?$_Tree_val@U?$_Tree_simple_types@U?$pair@$$CBKV?$basic_string@DU?$char_traits@D@std@@V?$allocator@D@2@@std@@@std@@@std@@@std@@U_Iterator_base0@2@@0@0@Z ; std::distance<std::_Tree_unchecked_const_iterator<std::_Tree_val<std::_Tree_simple_types<std::pair<unsigned long const ,std::basic_string<char,std::char_traits<char>,std::allocator<char> > > > >,std::_Iterator_base0> >
PUBLIC	??$_Erase_tree@V?$allocator@U?$_Tree_node@U?$pair@QAVCResource@@K@std@@PAX@std@@@std@@@?$_Tree_val@U?$_Tree_simple_types@U?$pair@QAVCResource@@K@std@@@std@@@std@@QAEXAAV?$allocator@U?$_Tree_node@U?$pair@QAVCResource@@K@std@@PAX@std@@@1@PAU?$_Tree_node@U?$pair@QAVCResource@@K@std@@PAX@1@@Z ; std::_Tree_val<std::_Tree_simple_types<std::pair<CResource * const,unsigned long> > >::_Erase_tree<std::allocator<std::_Tree_node<std::pair<CResource * const,unsigned long>,void *> > >
PUBLIC	??$_Try_emplace@ABH$$V@?$map@HP6APAVCResource@@PBD@ZU?$less@H@std@@V?$allocator@U?$pair@$$CBHP6APAVCResource@@PBD@Z@std@@@3@@std@@AAE?AU?$pair@PAU?$_Tree_node@U?$pair@$$CBHP6APAVCResource@@PBD@Z@std@@PAX@std@@_N@1@ABH@Z ; std::map<int,CResource * (__cdecl*)(char const *),std::less<int>,std::allocator<std::pair<int const ,CResource * (__cdecl*)(char const *)> > >::_Try_emplace<int const &>
PUBLIC	??$_Find@H@?$_Tree@V?$_Tmap_traits@HP6APAVCResource@@PBD@ZU?$less@H@std@@V?$allocator@U?$pair@$$CBHP6APAVCResource@@PBD@Z@std@@@3@$0A@@std@@@std@@ABEPAU?$_Tree_node@U?$pair@$$CBHP6APAVCResource@@PBD@Z@std@@PAX@1@ABH@Z ; std::_Tree<std::_Tmap_traits<int,CResource * (__cdecl*)(char const *),std::less<int>,std::allocator<std::pair<int const ,CResource * (__cdecl*)(char const *)> >,0> >::_Find<int>
PUBLIC	??$_Try_emplace@V?$basic_string@DU?$char_traits@D@std@@V?$allocator@D@2@@std@@$$V@?$map@V?$basic_string@DU?$char_traits@D@std@@V?$allocator@D@2@@std@@P6APAVCResource@@PBD@ZU?$less@V?$basic_string@DU?$char_traits@D@std@@V?$allocator@D@2@@std@@@2@V?$allocator@U?$pair@$$CBV?$basic_string@DU?$char_traits@D@std@@V?$allocator@D@2@@std@@P6APAVCResource@@PBD@Z@std@@@2@@std@@AAE?AU?$pair@PAU?$_Tree_node@U?$pair@$$CBV?$basic_string@DU?$char_traits@D@std@@V?$allocator@D@2@@std@@P6APAVCResource@@PBD@Z@std@@PAX@std@@_N@1@$$QAV?$basic_string@DU?$char_traits@D@std@@V?$allocator@D@2@@1@@Z ; std::map<std::basic_string<char,std::char_traits<char>,std::allocator<char> >,CResource * (__cdecl*)(char const *),std::less<std::basic_string<char,std::char_traits<char>,std::allocator<char> > >,std::allocator<std::pair<std::basic_string<char,std::char_traits<char>,std::allocator<char> > const ,CResource * (__cdecl*)(char const *)> > >::_Try_emplace<std::basic_string<char,std::char_traits<char>,std::allocator<char> > >
PUBLIC	??$_Find@V?$basic_string@DU?$char_traits@D@std@@V?$allocator@D@2@@std@@@?$_Tree@V?$_Tmap_traits@V?$basic_string@DU?$char_traits@D@std@@V?$allocator@D@2@@std@@P6APAVCResource@@PBD@ZU?$less@V?$basic_string@DU?$char_traits@D@std@@V?$allocator@D@2@@std@@@2@V?$allocator@U?$pair@$$CBV?$basic_string@DU?$char_traits@D@std@@V?$allocator@D@2@@std@@P6APAVCResource@@PBD@Z@std@@@2@$0A@@std@@@std@@ABEPAU?$_Tree_node@U?$pair@$$CBV?$basic_string@DU?$char_traits@D@std@@V?$allocator@D@2@@std@@P6APAVCResource@@PBD@Z@std@@PAX@1@ABV?$basic_string@DU?$char_traits@D@std@@V?$allocator@D@2@@1@@Z ; std::_Tree<std::_Tmap_traits<std::basic_string<char,std::char_traits<char>,std::allocator<char> >,CResource * (__cdecl*)(char const *),std::less<std::basic_string<char,std::char_traits<char>,std::allocator<char> > >,std::allocator<std::pair<std::basic_string<char,std::char_traits<char>,std::allocator<char> > const ,CResource * (__cdecl*)(char const *)> >,0> >::_Find<std::basic_string<char,std::char_traits<char>,std::allocator<char> > >
PUBLIC	??$_Find@K@?$_Tree@V?$_Tmap_traits@KPAVCResource@@U?$less@K@std@@V?$allocator@U?$pair@$$CBKPAVCResource@@@std@@@3@$0A@@std@@@std@@ABEPAU?$_Tree_node@U?$pair@$$CBKPAVCResource@@@std@@PAX@1@ABK@Z ; std::_Tree<std::_Tmap_traits<unsigned long,CResource *,std::less<unsigned long>,std::allocator<std::pair<unsigned long const ,CResource *> >,0> >::_Find<unsigned long>
PUBLIC	??$_Erase_tree@V?$allocator@U?$_Tree_node@U?$pair@$$CBKPAVCResource@@@std@@PAX@std@@@std@@@?$_Tree_val@U?$_Tree_simple_types@U?$pair@$$CBKPAVCResource@@@std@@@std@@@std@@QAEXAAV?$allocator@U?$_Tree_node@U?$pair@$$CBKPAVCResource@@@std@@PAX@std@@@1@PAU?$_Tree_node@U?$pair@$$CBKPAVCResource@@@std@@PAX@1@@Z ; std::_Tree_val<std::_Tree_simple_types<std::pair<unsigned long const ,CResource *> > >::_Erase_tree<std::allocator<std::_Tree_node<std::pair<unsigned long const ,CResource *>,void *> > >
PUBLIC	??$_Destroy_range@V?$allocator@USDumpData@@@std@@@std@@YAXPAUSDumpData@@QAU1@AAV?$allocator@USDumpData@@@0@@Z ; std::_Destroy_range<std::allocator<SDumpData> >
PUBLIC	??$_Buyheadnode@V?$allocator@U?$_Tree_node@U?$pair@$$CBJPAVCResource@@@std@@PAX@std@@@std@@@?$_Tree_node@U?$pair@$$CBJPAVCResource@@@std@@PAX@std@@SAPAU01@AAV?$allocator@U?$_Tree_node@U?$pair@$$CBJPAVCResource@@@std@@PAX@std@@@1@@Z ; std::_Tree_node<std::pair<long const ,CResource *>,void *>::_Buyheadnode<std::allocator<std::_Tree_node<std::pair<long const ,CResource *>,void *> > >
PUBLIC	??$_Buyheadnode@V?$allocator@U?$_Tree_node@U?$pair@$$CBKV?$basic_string@DU?$char_traits@D@std@@V?$allocator@D@2@@std@@@std@@PAX@std@@@std@@@?$_Tree_node@U?$pair@$$CBKV?$basic_string@DU?$char_traits@D@std@@V?$allocator@D@2@@std@@@std@@PAX@std@@SAPAU01@AAV?$allocator@U?$_Tree_node@U?$pair@$$CBKV?$basic_string@DU?$char_traits@D@std@@V?$allocator@D@2@@std@@@std@@PAX@std@@@1@@Z ; std::_Tree_node<std::pair<unsigned long const ,std::basic_string<char,std::char_traits<char>,std::allocator<char> > >,void *>::_Buyheadnode<std::allocator<std::_Tree_node<std::pair<unsigned long const ,std::basic_string<char,std::char_traits<char>,std::allocator<char> > >,void *> > >
PUBLIC	??$_Erase_tree@V?$allocator@U?$_Tree_node@U?$pair@$$CBKV?$basic_string@DU?$char_traits@D@std@@V?$allocator@D@2@@std@@@std@@PAX@std@@@std@@@?$_Tree_val@U?$_Tree_simple_types@U?$pair@$$CBKV?$basic_string@DU?$char_traits@D@std@@V?$allocator@D@2@@std@@@std@@@std@@@std@@QAEXAAV?$allocator@U?$_Tree_node@U?$pair@$$CBKV?$basic_string@DU?$char_traits@D@std@@V?$allocator@D@2@@std@@@std@@PAX@std@@@1@PAU?$_Tree_node@U?$pair@$$CBKV?$basic_string@DU?$char_traits@D@std@@V?$allocator@D@2@@std@@@std@@PAX@1@@Z ; std::_Tree_val<std::_Tree_simple_types<std::pair<unsigned long const ,std::basic_string<char,std::char_traits<char>,std::allocator<char> > > > >::_Erase_tree<std::allocator<std::_Tree_node<std::pair<unsigned long const ,std::basic_string<char,std::char_traits<char>,std::allocator<char> > >,void *> > >
PUBLIC	??$_Freenode@V?$allocator@U?$_Tree_node@U?$pair@$$CBKV?$basic_string@DU?$char_traits@D@std@@V?$allocator@D@2@@std@@@std@@PAX@std@@@std@@@?$_Tree_node@U?$pair@$$CBKV?$basic_string@DU?$char_traits@D@std@@V?$allocator@D@2@@std@@@std@@PAX@std@@SAXAAV?$allocator@U?$_Tree_node@U?$pair@$$CBKV?$basic_string@DU?$char_traits@D@std@@V?$allocator@D@2@@std@@@std@@PAX@std@@@1@PAU01@@Z ; std::_Tree_node<std::pair<unsigned long const ,std::basic_string<char,std::char_traits<char>,std::allocator<char> > >,void *>::_Freenode<std::allocator<std::_Tree_node<std::pair<unsigned long const ,std::basic_string<char,std::char_traits<char>,std::allocator<char> > >,void *> > >
PUBLIC	??$_Buyheadnode@V?$allocator@U?$_Tree_node@U?$pair@QAVCResource@@K@std@@PAX@std@@@std@@@?$_Tree_node@U?$pair@QAVCResource@@K@std@@PAX@std@@SAPAU01@AAV?$allocator@U?$_Tree_node@U?$pair@QAVCResource@@K@std@@PAX@std@@@1@@Z ; std::_Tree_node<std::pair<CResource * const,unsigned long>,void *>::_Buyheadnode<std::allocator<std::_Tree_node<std::pair<CResource * const,unsigned long>,void *> > >
PUBLIC	??$_Buyheadnode@V?$allocator@U?$_Tree_node@U?$pair@$$CBHP6APAVCResource@@PBD@Z@std@@PAX@std@@@std@@@?$_Tree_node@U?$pair@$$CBHP6APAVCResource@@PBD@Z@std@@PAX@std@@SAPAU01@AAV?$allocator@U?$_Tree_node@U?$pair@$$CBHP6APAVCResource@@PBD@Z@std@@PAX@std@@@1@@Z ; std::_Tree_node<std::pair<int const ,CResource * (__cdecl*)(char const *)>,void *>::_Buyheadnode<std::allocator<std::_Tree_node<std::pair<int const ,CResource * (__cdecl*)(char const *)>,void *> > >
PUBLIC	??$_Buyheadnode@V?$allocator@U?$_Tree_node@U?$pair@$$CBV?$basic_string@DU?$char_traits@D@std@@V?$allocator@D@2@@std@@P6APAVCResource@@PBD@Z@std@@PAX@std@@@std@@@?$_Tree_node@U?$pair@$$CBV?$basic_string@DU?$char_traits@D@std@@V?$allocator@D@2@@std@@P6APAVCResource@@PBD@Z@std@@PAX@std@@SAPAU01@AAV?$allocator@U?$_Tree_node@U?$pair@$$CBV?$basic_string@DU?$char_traits@D@std@@V?$allocator@D@2@@std@@P6APAVCResource@@PBD@Z@std@@PAX@std@@@1@@Z ; std::_Tree_node<std::pair<std::basic_string<char,std::char_traits<char>,std::allocator<char> > const ,CResource * (__cdecl*)(char const *)>,void *>::_Buyheadnode<std::allocator<std::_Tree_node<std::pair<std::basic_string<char,std::char_traits<char>,std::allocator<char> > const ,CResource * (__cdecl*)(char const *)>,void *> > >
PUBLIC	??$_Buyheadnode@V?$allocator@U?$_Tree_node@U?$pair@$$CBKPAVCResource@@@std@@PAX@std@@@std@@@?$_Tree_node@U?$pair@$$CBKPAVCResource@@@std@@PAX@std@@SAPAU01@AAV?$allocator@U?$_Tree_node@U?$pair@$$CBKPAVCResource@@@std@@PAX@std@@@1@@Z ; std::_Tree_node<std::pair<unsigned long const ,CResource *>,void *>::_Buyheadnode<std::allocator<std::_Tree_node<std::pair<unsigned long const ,CResource *>,void *> > >
PUBLIC	??$_Emplace@U?$pair@$$CBKPAVCResource@@@std@@@?$_Tree@V?$_Tmap_traits@KPAVCResource@@U?$less@K@std@@V?$allocator@U?$pair@$$CBKPAVCResource@@@std@@@3@$0A@@std@@@std@@IAE?AU?$pair@PAU?$_Tree_node@U?$pair@$$CBKPAVCResource@@@std@@PAX@std@@_N@1@$$QAU?$pair@$$CBKPAVCResource@@@1@@Z ; std::_Tree<std::_Tmap_traits<unsigned long,CResource *,std::less<unsigned long>,std::allocator<std::pair<unsigned long const ,CResource *> >,0> >::_Emplace<std::pair<unsigned long const ,CResource *> >
PUBLIC	??$_Emplace@U?$pair@$$CBKV?$basic_string@DU?$char_traits@D@std@@V?$allocator@D@2@@std@@@std@@@?$_Tree@V?$_Tmap_traits@KV?$basic_string@DU?$char_traits@D@std@@V?$allocator@D@2@@std@@U?$less@K@2@V?$allocator@U?$pair@$$CBKV?$basic_string@DU?$char_traits@D@std@@V?$allocator@D@2@@std@@@std@@@2@$0A@@std@@@std@@IAE?AU?$pair@PAU?$_Tree_node@U?$pair@$$CBKV?$basic_string@DU?$char_traits@D@std@@V?$allocator@D@2@@std@@@std@@PAX@std@@_N@1@$$QAU?$pair@$$CBKV?$basic_string@DU?$char_traits@D@std@@V?$allocator@D@2@@std@@@1@@Z ; std::_Tree<std::_Tmap_traits<unsigned long,std::basic_string<char,std::char_traits<char>,std::allocator<char> >,std::less<unsigned long>,std::allocator<std::pair<unsigned long const ,std::basic_string<char,std::char_traits<char>,std::allocator<char> > > >,0> >::_Emplace<std::pair<unsigned long const ,std::basic_string<char,std::char_traits<char>,std::allocator<char> > > >
PUBLIC	??$_Emplace@U?$pair@$$CBJPAVCResource@@@std@@@?$_Tree@V?$_Tmap_traits@JPAVCResource@@U?$less@J@std@@V?$allocator@U?$pair@$$CBJPAVCResource@@@std@@@3@$0A@@std@@@std@@IAE?AU?$pair@PAU?$_Tree_node@U?$pair@$$CBJPAVCResource@@@std@@PAX@std@@_N@1@$$QAU?$pair@$$CBJPAVCResource@@@1@@Z ; std::_Tree<std::_Tmap_traits<long,CResource *,std::less<long>,std::allocator<std::pair<long const ,CResource *> >,0> >::_Emplace<std::pair<long const ,CResource *> >
PUBLIC	??$_Sort_unchecked@PAUSDumpData@@P6A_NABU1@0@Z@std@@YAXPAUSDumpData@@0HP6A_NABU1@1@Z@Z ; std::_Sort_unchecked<SDumpData *,bool (__cdecl*)(SDumpData const &,SDumpData const &)>
PUBLIC	??$_Emplace@U?$pair@QAVCResource@@K@std@@@?$_Tree@V?$_Tmap_traits@PAVCResource@@KU?$less@PAVCResource@@@std@@V?$allocator@U?$pair@QAVCResource@@K@std@@@3@$0A@@std@@@std@@IAE?AU?$pair@PAU?$_Tree_node@U?$pair@QAVCResource@@K@std@@PAX@std@@_N@1@$$QAU?$pair@QAVCResource@@K@1@@Z ; std::_Tree<std::_Tmap_traits<CResource *,unsigned long,std::less<CResource *>,std::allocator<std::pair<CResource * const,unsigned long> >,0> >::_Emplace<std::pair<CResource * const,unsigned long> >
PUBLIC	??$_Erase_tree@V?$allocator@U?$_Tree_node@U?$pair@$$CBJPAVCResource@@@std@@PAX@std@@@std@@@?$_Tree_val@U?$_Tree_simple_types@U?$pair@$$CBJPAVCResource@@@std@@@std@@@std@@QAEXAAV?$allocator@U?$_Tree_node@U?$pair@$$CBJPAVCResource@@@std@@PAX@std@@@1@PAU?$_Tree_node@U?$pair@$$CBJPAVCResource@@@std@@PAX@1@@Z ; std::_Tree_val<std::_Tree_simple_types<std::pair<long const ,CResource *> > >::_Erase_tree<std::allocator<std::_Tree_node<std::pair<long const ,CResource *>,void *> > >
PUBLIC	??$_Freenode0@V?$allocator@U?$_Tree_node@U?$pair@$$CBJPAVCResource@@@std@@PAX@std@@@std@@@?$_Tree_node@U?$pair@$$CBJPAVCResource@@@std@@PAX@std@@SAXAAV?$allocator@U?$_Tree_node@U?$pair@$$CBJPAVCResource@@@std@@PAX@std@@@1@PAU01@@Z ; std::_Tree_node<std::pair<long const ,CResource *>,void *>::_Freenode0<std::allocator<std::_Tree_node<std::pair<long const ,CResource *>,void *> > >
PUBLIC	??$_Find_lower_bound@K@?$_Tree@V?$_Tmap_traits@KV?$basic_string@DU?$char_traits@D@std@@V?$allocator@D@2@@std@@U?$less@K@2@V?$allocator@U?$pair@$$CBKV?$basic_string@DU?$char_traits@D@std@@V?$allocator@D@2@@std@@@std@@@2@$0A@@std@@@std@@IBE?AU?$_Tree_find_result@PAU?$_Tree_node@U?$pair@$$CBKV?$basic_string@DU?$char_traits@D@std@@V?$allocator@D@2@@std@@@std@@PAX@std@@@1@ABK@Z ; std::_Tree<std::_Tmap_traits<unsigned long,std::basic_string<char,std::char_traits<char>,std::allocator<char> >,std::less<unsigned long>,std::allocator<std::pair<unsigned long const ,std::basic_string<char,std::char_traits<char>,std::allocator<char> > > >,0> >::_Find_lower_bound<unsigned long>
PUBLIC	??$_Freenode0@V?$allocator@U?$_Tree_node@U?$pair@$$CBKV?$basic_string@DU?$char_traits@D@std@@V?$allocator@D@2@@std@@@std@@PAX@std@@@std@@@?$_Tree_node@U?$pair@$$CBKV?$basic_string@DU?$char_traits@D@std@@V?$allocator@D@2@@std@@@std@@PAX@std@@SAXAAV?$allocator@U?$_Tree_node@U?$pair@$$CBKV?$basic_string@DU?$char_traits@D@std@@V?$allocator@D@2@@std@@@std@@PAX@std@@@1@PAU01@@Z ; std::_Tree_node<std::pair<unsigned long const ,std::basic_string<char,std::char_traits<char>,std::allocator<char> > >,void *>::_Freenode0<std::allocator<std::_Tree_node<std::pair<unsigned long const ,std::basic_string<char,std::char_traits<char>,std::allocator<char> > >,void *> > >
PUBLIC	??$_Freenode0@V?$allocator@U?$_Tree_node@U?$pair@QAVCResource@@K@std@@PAX@std@@@std@@@?$_Tree_node@U?$pair@QAVCResource@@K@std@@PAX@std@@SAXAAV?$allocator@U?$_Tree_node@U?$pair@QAVCResource@@K@std@@PAX@std@@@1@PAU01@@Z ; std::_Tree_node<std::pair<CResource * const,unsigned long>,void *>::_Freenode0<std::allocator<std::_Tree_node<std::pair<CResource * const,unsigned long>,void *> > >
PUBLIC	??$_Find_lower_bound@H@?$_Tree@V?$_Tmap_traits@HP6APAVCResource@@PBD@ZU?$less@H@std@@V?$allocator@U?$pair@$$CBHP6APAVCResource@@PBD@Z@std@@@3@$0A@@std@@@std@@IBE?AU?$_Tree_find_result@PAU?$_Tree_node@U?$pair@$$CBHP6APAVCResource@@PBD@Z@std@@PAX@std@@@1@ABH@Z ; std::_Tree<std::_Tmap_traits<int,CResource * (__cdecl*)(char const *),std::less<int>,std::allocator<std::pair<int const ,CResource * (__cdecl*)(char const *)> >,0> >::_Find_lower_bound<int>
PUBLIC	?_Allocate@?$_Alloc_construct_ptr@V?$allocator@U?$_Tree_node@U?$pair@$$CBHP6APAVCResource@@PBD@Z@std@@PAX@std@@@std@@@std@@QAEXXZ ; std::_Alloc_construct_ptr<std::allocator<std::_Tree_node<std::pair<int const ,CResource * (__cdecl*)(char const *)>,void *> > >::_Allocate
PUBLIC	??1?$_Alloc_construct_ptr@V?$allocator@U?$_Tree_node@U?$pair@$$CBHP6APAVCResource@@PBD@Z@std@@PAX@std@@@std@@@std@@QAE@XZ ; std::_Alloc_construct_ptr<std::allocator<std::_Tree_node<std::pair<int const ,CResource * (__cdecl*)(char const *)>,void *> > >::~_Alloc_construct_ptr<std::allocator<std::_Tree_node<std::pair<int const ,CResource * (__cdecl*)(char const *)>,void *> > >
PUBLIC	??1?$_Tree_temp_node_alloc@V?$allocator@U?$_Tree_node@U?$pair@$$CBHP6APAVCResource@@PBD@Z@std@@PAX@std@@@std@@@std@@QAE@XZ ; std::_Tree_temp_node_alloc<std::allocator<std::_Tree_node<std::pair<int const ,CResource * (__cdecl*)(char const *)>,void *> > >::~_Tree_temp_node_alloc<std::allocator<std::_Tree_node<std::pair<int const ,CResource * (__cdecl*)(char const *)>,void *> > >
PUBLIC	??1?$_Tree_temp_node@V?$allocator@U?$_Tree_node@U?$pair@$$CBHP6APAVCResource@@PBD@Z@std@@PAX@std@@@std@@@std@@QAE@XZ ; std::_Tree_temp_node<std::allocator<std::_Tree_node<std::pair<int const ,CResource * (__cdecl*)(char const *)>,void *> > >::~_Tree_temp_node<std::allocator<std::_Tree_node<std::pair<int const ,CResource * (__cdecl*)(char const *)>,void *> > >
PUBLIC	??$?0ABUpiecewise_construct_t@std@@V?$tuple@ABH@1@V?$tuple@$$V@1@@?$_Tree_temp_node@V?$allocator@U?$_Tree_node@U?$pair@$$CBHP6APAVCResource@@PBD@Z@std@@PAX@std@@@std@@@std@@QAE@AAV?$allocator@U?$_Tree_node@U?$pair@$$CBHP6APAVCResource@@PBD@Z@std@@PAX@std@@@1@PAU?$_Tree_node@U?$pair@$$CBHP6APAVCResource@@PBD@Z@std@@PAX@1@ABUpiecewise_construct_t@1@$$QAV?$tuple@ABH@1@$$QAV?$tuple@$$V@1@@Z ; std::_Tree_temp_node<std::allocator<std::_Tree_node<std::pair<int const ,CResource * (__cdecl*)(char const *)>,void *> > >::_Tree_temp_node<std::allocator<std::_Tree_node<std::pair<int const ,CResource * (__cdecl*)(char const *)>,void *> > ><std::piecewise_construct_t const &,std::tuple<int const &>,std::tuple<> >
PUBLIC	??$_Erase_tree@V?$allocator@U?$_Tree_node@U?$pair@$$CBHP6APAVCResource@@PBD@Z@std@@PAX@std@@@std@@@?$_Tree_val@U?$_Tree_simple_types@U?$pair@$$CBHP6APAVCResource@@PBD@Z@std@@@std@@@std@@QAEXAAV?$allocator@U?$_Tree_node@U?$pair@$$CBHP6APAVCResource@@PBD@Z@std@@PAX@std@@@1@PAU?$_Tree_node@U?$pair@$$CBHP6APAVCResource@@PBD@Z@std@@PAX@1@@Z ; std::_Tree_val<std::_Tree_simple_types<std::pair<int const ,CResource * (__cdecl*)(char const *)> > >::_Erase_tree<std::allocator<std::_Tree_node<std::pair<int const ,CResource * (__cdecl*)(char const *)>,void *> > >
PUBLIC	??$_Freenode0@V?$allocator@U?$_Tree_node@U?$pair@$$CBHP6APAVCResource@@PBD@Z@std@@PAX@std@@@std@@@?$_Tree_node@U?$pair@$$CBHP6APAVCResource@@PBD@Z@std@@PAX@std@@SAXAAV?$allocator@U?$_Tree_node@U?$pair@$$CBHP6APAVCResource@@PBD@Z@std@@PAX@std@@@1@PAU01@@Z ; std::_Tree_node<std::pair<int const ,CResource * (__cdecl*)(char const *)>,void *>::_Freenode0<std::allocator<std::_Tree_node<std::pair<int const ,CResource * (__cdecl*)(char const *)>,void *> > >
PUBLIC	??$_Find_lower_bound@V?$basic_string@DU?$char_traits@D@std@@V?$allocator@D@2@@std@@@?$_Tree@V?$_Tmap_traits@V?$basic_string@DU?$char_traits@D@std@@V?$allocator@D@2@@std@@P6APAVCResource@@PBD@ZU?$less@V?$basic_string@DU?$char_traits@D@std@@V?$allocator@D@2@@std@@@2@V?$allocator@U?$pair@$$CBV?$basic_string@DU?$char_traits@D@std@@V?$allocator@D@2@@std@@P6APAVCResource@@PBD@Z@std@@@2@$0A@@std@@@std@@IBE?AU?$_Tree_find_result@PAU?$_Tree_node@U?$pair@$$CBV?$basic_string@DU?$char_traits@D@std@@V?$allocator@D@2@@std@@P6APAVCResource@@PBD@Z@std@@PAX@std@@@1@ABV?$basic_string@DU?$char_traits@D@std@@V?$allocator@D@2@@1@@Z ; std::_Tree<std::_Tmap_traits<std::basic_string<char,std::char_traits<char>,std::allocator<char> >,CResource * (__cdecl*)(char const *),std::less<std::basic_string<char,std::char_traits<char>,std::allocator<char> > >,std::allocator<std::pair<std::basic_string<char,std::char_traits<char>,std::allocator<char> > const ,CResource * (__cdecl*)(char const *)> >,0> >::_Find_lower_bound<std::basic_string<char,std::char_traits<char>,std::allocator<char> > >
PUBLIC	??$_Lower_bound_duplicate@V?$basic_string@DU?$char_traits@D@std@@V?$allocator@D@2@@std@@@?$_Tree@V?$_Tmap_traits@V?$basic_string@DU?$char_traits@D@std@@V?$allocator@D@2@@std@@P6APAVCResource@@PBD@ZU?$less@V?$basic_string@DU?$char_traits@D@std@@V?$allocator@D@2@@std@@@2@V?$allocator@U?$pair@$$CBV?$basic_string@DU?$char_traits@D@std@@V?$allocator@D@2@@std@@P6APAVCResource@@PBD@Z@std@@@2@$0A@@std@@@std@@IBE_NQAU?$_Tree_node@U?$pair@$$CBV?$basic_string@DU?$char_traits@D@std@@V?$allocator@D@2@@std@@P6APAVCResource@@PBD@Z@std@@PAX@1@ABV?$basic_string@DU?$char_traits@D@std@@V?$allocator@D@2@@1@@Z ; std::_Tree<std::_Tmap_traits<std::basic_string<char,std::char_traits<char>,std::allocator<char> >,CResource * (__cdecl*)(char const *),std::less<std::basic_string<char,std::char_traits<char>,std::allocator<char> > >,std::allocator<std::pair<std::basic_string<char,std::char_traits<char>,std::allocator<char> > const ,CResource * (__cdecl*)(char const *)> >,0> >::_Lower_bound_duplicate<std::basic_string<char,std::char_traits<char>,std::allocator<char> > >
PUBLIC	?_Allocate@?$_Alloc_construct_ptr@V?$allocator@U?$_Tree_node@U?$pair@$$CBV?$basic_string@DU?$char_traits@D@std@@V?$allocator@D@2@@std@@P6APAVCResource@@PBD@Z@std@@PAX@std@@@std@@@std@@QAEXXZ ; std::_Alloc_construct_ptr<std::allocator<std::_Tree_node<std::pair<std::basic_string<char,std::char_traits<char>,std::allocator<char> > const ,CResource * (__cdecl*)(char const *)>,void *> > >::_Allocate
PUBLIC	??1?$_Alloc_construct_ptr@V?$allocator@U?$_Tree_node@U?$pair@$$CBV?$basic_string@DU?$char_traits@D@std@@V?$allocator@D@2@@std@@P6APAVCResource@@PBD@Z@std@@PAX@std@@@std@@@std@@QAE@XZ ; std::_Alloc_construct_ptr<std::allocator<std::_Tree_node<std::pair<std::basic_string<char,std::char_traits<char>,std::allocator<char> > const ,CResource * (__cdecl*)(char const *)>,void *> > >::~_Alloc_construct_ptr<std::allocator<std::_Tree_node<std::pair<std::basic_string<char,std::char_traits<char>,std::allocator<char> > const ,CResource * (__cdecl*)(char const *)>,void *> > >
PUBLIC	??1?$_Tree_temp_node_alloc@V?$allocator@U?$_Tree_node@U?$pair@$$CBV?$basic_string@DU?$char_traits@D@std@@V?$allocator@D@2@@std@@P6APAVCResource@@PBD@Z@std@@PAX@std@@@std@@@std@@QAE@XZ ; std::_Tree_temp_node_alloc<std::allocator<std::_Tree_node<std::pair<std::basic_string<char,std::char_traits<char>,std::allocator<char> > const ,CResource * (__cdecl*)(char const *)>,void *> > >::~_Tree_temp_node_alloc<std::allocator<std::_Tree_node<std::pair<std::basic_string<char,std::char_traits<char>,std::allocator<char> > const ,CResource * (__cdecl*)(char const *)>,void *> > >
PUBLIC	??1?$_Tree_temp_node@V?$allocator@U?$_Tree_node@U?$pair@$$CBV?$basic_string@DU?$char_traits@D@std@@V?$allocator@D@2@@std@@P6APAVCResource@@PBD@Z@std@@PAX@std@@@std@@@std@@QAE@XZ ; std::_Tree_temp_node<std::allocator<std::_Tree_node<std::pair<std::basic_string<char,std::char_traits<char>,std::allocator<char> > const ,CResource * (__cdecl*)(char const *)>,void *> > >::~_Tree_temp_node<std::allocator<std::_Tree_node<std::pair<std::basic_string<char,std::char_traits<char>,std::allocator<char> > const ,CResource * (__cdecl*)(char const *)>,void *> > >
PUBLIC	??$?0ABUpiecewise_construct_t@std@@V?$tuple@$$QAV?$basic_string@DU?$char_traits@D@std@@V?$allocator@D@2@@std@@@1@V?$tuple@$$V@1@@?$_Tree_temp_node@V?$allocator@U?$_Tree_node@U?$pair@$$CBV?$basic_string@DU?$char_traits@D@std@@V?$allocator@D@2@@std@@P6APAVCResource@@PBD@Z@std@@PAX@std@@@std@@@std@@QAE@AAV?$allocator@U?$_Tree_node@U?$pair@$$CBV?$basic_string@DU?$char_traits@D@std@@V?$allocator@D@2@@std@@P6APAVCResource@@PBD@Z@std@@PAX@std@@@1@PAU?$_Tree_node@U?$pair@$$CBV?$basic_string@DU?$char_traits@D@std@@V?$allocator@D@2@@std@@P6APAVCResource@@PBD@Z@std@@PAX@1@ABUpiecewise_construct_t@1@$$QAV?$tuple@$$QAV?$basic_string@DU?$char_traits@D@std@@V?$allocator@D@2@@std@@@1@$$QAV?$tuple@$$V@1@@Z ; std::_Tree_temp_node<std::allocator<std::_Tree_node<std::pair<std::basic_string<char,std::char_traits<char>,std::allocator<char> > const ,CResource * (__cdecl*)(char const *)>,void *> > >::_Tree_temp_node<std::allocator<std::_Tree_node<std::pair<std::basic_string<char,std::char_traits<char>,std::allocator<char> > const ,CResource * (__cdecl*)(char const *)>,void *> > ><std::piecewise_construct_t const &,std::tuple<std::basic_string<char,std::char_traits<char>,std::allocator<char> > &&>,std::tuple<> >
PUBLIC	??$_Erase_tree@V?$allocator@U?$_Tree_node@U?$pair@$$CBV?$basic_string@DU?$char_traits@D@std@@V?$allocator@D@2@@std@@P6APAVCResource@@PBD@Z@std@@PAX@std@@@std@@@?$_Tree_val@U?$_Tree_simple_types@U?$pair@$$CBV?$basic_string@DU?$char_traits@D@std@@V?$allocator@D@2@@std@@P6APAVCResource@@PBD@Z@std@@@std@@@std@@QAEXAAV?$allocator@U?$_Tree_node@U?$pair@$$CBV?$basic_string@DU?$char_traits@D@std@@V?$allocator@D@2@@std@@P6APAVCResource@@PBD@Z@std@@PAX@std@@@1@PAU?$_Tree_node@U?$pair@$$CBV?$basic_string@DU?$char_traits@D@std@@V?$allocator@D@2@@std@@P6APAVCResource@@PBD@Z@std@@PAX@1@@Z ; std::_Tree_val<std::_Tree_simple_types<std::pair<std::basic_string<char,std::char_traits<char>,std::allocator<char> > const ,CResource * (__cdecl*)(char const *)> > >::_Erase_tree<std::allocator<std::_Tree_node<std::pair<std::basic_string<char,std::char_traits<char>,std::allocator<char> > const ,CResource * (__cdecl*)(char const *)>,void *> > >
PUBLIC	??$_Freenode0@V?$allocator@U?$_Tree_node@U?$pair@$$CBV?$basic_string@DU?$char_traits@D@std@@V?$allocator@D@2@@std@@P6APAVCResource@@PBD@Z@std@@PAX@std@@@std@@@?$_Tree_node@U?$pair@$$CBV?$basic_string@DU?$char_traits@D@std@@V?$allocator@D@2@@std@@P6APAVCResource@@PBD@Z@std@@PAX@std@@SAXAAV?$allocator@U?$_Tree_node@U?$pair@$$CBV?$basic_string@DU?$char_traits@D@std@@V?$allocator@D@2@@std@@P6APAVCResource@@PBD@Z@std@@PAX@std@@@1@PAU01@@Z ; std::_Tree_node<std::pair<std::basic_string<char,std::char_traits<char>,std::allocator<char> > const ,CResource * (__cdecl*)(char const *)>,void *>::_Freenode0<std::allocator<std::_Tree_node<std::pair<std::basic_string<char,std::char_traits<char>,std::allocator<char> > const ,CResource * (__cdecl*)(char const *)>,void *> > >
PUBLIC	??$_Find_lower_bound@K@?$_Tree@V?$_Tmap_traits@KPAVCResource@@U?$less@K@std@@V?$allocator@U?$pair@$$CBKPAVCResource@@@std@@@3@$0A@@std@@@std@@IBE?AU?$_Tree_find_result@PAU?$_Tree_node@U?$pair@$$CBKPAVCResource@@@std@@PAX@std@@@1@ABK@Z ; std::_Tree<std::_Tmap_traits<unsigned long,CResource *,std::less<unsigned long>,std::allocator<std::pair<unsigned long const ,CResource *> >,0> >::_Find_lower_bound<unsigned long>
PUBLIC	??$_Freenode0@V?$allocator@U?$_Tree_node@U?$pair@$$CBKPAVCResource@@@std@@PAX@std@@@std@@@?$_Tree_node@U?$pair@$$CBKPAVCResource@@@std@@PAX@std@@SAXAAV?$allocator@U?$_Tree_node@U?$pair@$$CBKPAVCResource@@@std@@PAX@std@@@1@PAU01@@Z ; std::_Tree_node<std::pair<unsigned long const ,CResource *>,void *>::_Freenode0<std::allocator<std::_Tree_node<std::pair<unsigned long const ,CResource *>,void *> > >
PUBLIC	??$_Construct_in_place@PAU?$_Tree_node@U?$pair@$$CBJPAVCResource@@@std@@PAX@std@@ABQAU12@@std@@YAXAAPAU?$_Tree_node@U?$pair@$$CBJPAVCResource@@@std@@PAX@0@ABQAU10@@Z ; std::_Construct_in_place<std::_Tree_node<std::pair<long const ,CResource *>,void *> *,std::_Tree_node<std::pair<long const ,CResource *>,void *> * const &>
PUBLIC	??$_Construct_in_place@PAU?$_Tree_node@U?$pair@$$CBKV?$basic_string@DU?$char_traits@D@std@@V?$allocator@D@2@@std@@@std@@PAX@std@@ABQAU12@@std@@YAXAAPAU?$_Tree_node@U?$pair@$$CBKV?$basic_string@DU?$char_traits@D@std@@V?$allocator@D@2@@std@@@std@@PAX@0@ABQAU10@@Z ; std::_Construct_in_place<std::_Tree_node<std::pair<unsigned long const ,std::basic_string<char,std::char_traits<char>,std::allocator<char> > >,void *> *,std::_Tree_node<std::pair<unsigned long const ,std::basic_string<char,std::char_traits<char>,std::allocator<char> > >,void *> * const &>
PUBLIC	??$_Construct_in_place@PAU?$_Tree_node@U?$pair@QAVCResource@@K@std@@PAX@std@@ABQAU12@@std@@YAXAAPAU?$_Tree_node@U?$pair@QAVCResource@@K@std@@PAX@0@ABQAU10@@Z ; std::_Construct_in_place<std::_Tree_node<std::pair<CResource * const,unsigned long>,void *> *,std::_Tree_node<std::pair<CResource * const,unsigned long>,void *> * const &>
PUBLIC	??$_Construct_in_place@PAU?$_Tree_node@U?$pair@$$CBHP6APAVCResource@@PBD@Z@std@@PAX@std@@ABQAU12@@std@@YAXAAPAU?$_Tree_node@U?$pair@$$CBHP6APAVCResource@@PBD@Z@std@@PAX@0@ABQAU10@@Z ; std::_Construct_in_place<std::_Tree_node<std::pair<int const ,CResource * (__cdecl*)(char const *)>,void *> *,std::_Tree_node<std::pair<int const ,CResource * (__cdecl*)(char const *)>,void *> * const &>
PUBLIC	??$_Construct_in_place@PAU?$_Tree_node@U?$pair@$$CBV?$basic_string@DU?$char_traits@D@std@@V?$allocator@D@2@@std@@P6APAVCResource@@PBD@Z@std@@PAX@std@@ABQAU12@@std@@YAXAAPAU?$_Tree_node@U?$pair@$$CBV?$basic_string@DU?$char_traits@D@std@@V?$allocator@D@2@@std@@P6APAVCResource@@PBD@Z@std@@PAX@0@ABQAU10@@Z ; std::_Construct_in_place<std::_Tree_node<std::pair<std::basic_string<char,std::char_traits<char>,std::allocator<char> > const ,CResource * (__cdecl*)(char const *)>,void *> *,std::_Tree_node<std::pair<std::basic_string<char,std::char_traits<char>,std::allocator<char> > const ,CResource * (__cdecl*)(char const *)>,void *> * const &>
PUBLIC	??$_Construct_in_place@PAU?$_Tree_node@U?$pair@$$CBKPAVCResource@@@std@@PAX@std@@ABQAU12@@std@@YAXAAPAU?$_Tree_node@U?$pair@$$CBKPAVCResource@@@std@@PAX@0@ABQAU10@@Z ; std::_Construct_in_place<std::_Tree_node<std::pair<unsigned long const ,CResource *>,void *> *,std::_Tree_node<std::pair<unsigned long const ,CResource *>,void *> * const &>
PUBLIC	??$_Destroy_in_place@PAU?$_Tree_node@U?$pair@$$CBV?$basic_string@DU?$char_traits@D@std@@V?$allocator@D@2@@std@@P6APAVCResource@@PBD@Z@std@@PAX@std@@@std@@YAXAAPAU?$_Tree_node@U?$pair@$$CBV?$basic_string@DU?$char_traits@D@std@@V?$allocator@D@2@@std@@P6APAVCResource@@PBD@Z@std@@PAX@0@@Z ; std::_Destroy_in_place<std::_Tree_node<std::pair<std::basic_string<char,std::char_traits<char>,std::allocator<char> > const ,CResource * (__cdecl*)(char const *)>,void *> *>
PUBLIC	??$_Destroy_in_place@PAU?$_Tree_node@U?$pair@$$CBHP6APAVCResource@@PBD@Z@std@@PAX@std@@@std@@YAXAAPAU?$_Tree_node@U?$pair@$$CBHP6APAVCResource@@PBD@Z@std@@PAX@0@@Z ; std::_Destroy_in_place<std::_Tree_node<std::pair<int const ,CResource * (__cdecl*)(char const *)>,void *> *>
PUBLIC	??$_Uninitialized_move@PAUSDumpData@@V?$allocator@USDumpData@@@std@@@std@@YAPAUSDumpData@@QAU1@0PAU1@AAV?$allocator@USDumpData@@@0@@Z ; std::_Uninitialized_move<SDumpData *,std::allocator<SDumpData> >
PUBLIC	?_Allocate@?$_Alloc_construct_ptr@V?$allocator@U?$_Tree_node@U?$pair@$$CBKPAVCResource@@@std@@PAX@std@@@std@@@std@@QAEXXZ ; std::_Alloc_construct_ptr<std::allocator<std::_Tree_node<std::pair<unsigned long const ,CResource *>,void *> > >::_Allocate
PUBLIC	??1?$_Alloc_construct_ptr@V?$allocator@U?$_Tree_node@U?$pair@$$CBKPAVCResource@@@std@@PAX@std@@@std@@@std@@QAE@XZ ; std::_Alloc_construct_ptr<std::allocator<std::_Tree_node<std::pair<unsigned long const ,CResource *>,void *> > >::~_Alloc_construct_ptr<std::allocator<std::_Tree_node<std::pair<unsigned long const ,CResource *>,void *> > >
PUBLIC	??1?$_Tree_temp_node@V?$allocator@U?$_Tree_node@U?$pair@$$CBKPAVCResource@@@std@@PAX@std@@@std@@@std@@QAE@XZ ; std::_Tree_temp_node<std::allocator<std::_Tree_node<std::pair<unsigned long const ,CResource *>,void *> > >::~_Tree_temp_node<std::allocator<std::_Tree_node<std::pair<unsigned long const ,CResource *>,void *> > >
PUBLIC	??$?0U?$pair@$$CBKPAVCResource@@@std@@@?$_Tree_temp_node@V?$allocator@U?$_Tree_node@U?$pair@$$CBKPAVCResource@@@std@@PAX@std@@@std@@@std@@QAE@AAV?$allocator@U?$_Tree_node@U?$pair@$$CBKPAVCResource@@@std@@PAX@std@@@1@PAU?$_Tree_node@U?$pair@$$CBKPAVCResource@@@std@@PAX@1@$$QAU?$pair@$$CBKPAVCResource@@@1@@Z ; std::_Tree_temp_node<std::allocator<std::_Tree_node<std::pair<unsigned long const ,CResource *>,void *> > >::_Tree_temp_node<std::allocator<std::_Tree_node<std::pair<unsigned long const ,CResource *>,void *> > ><std::pair<unsigned long const ,CResource *> >
PUBLIC	?_Allocate@?$_Alloc_construct_ptr@V?$allocator@U?$_Tree_node@U?$pair@$$CBKV?$basic_string@DU?$char_traits@D@std@@V?$allocator@D@2@@std@@@std@@PAX@std@@@std@@@std@@QAEXXZ ; std::_Alloc_construct_ptr<std::allocator<std::_Tree_node<std::pair<unsigned long const ,std::basic_string<char,std::char_traits<char>,std::allocator<char> > >,void *> > >::_Allocate
PUBLIC	??1?$_Alloc_construct_ptr@V?$allocator@U?$_Tree_node@U?$pair@$$CBKV?$basic_string@DU?$char_traits@D@std@@V?$allocator@D@2@@std@@@std@@PAX@std@@@std@@@std@@QAE@XZ ; std::_Alloc_construct_ptr<std::allocator<std::_Tree_node<std::pair<unsigned long const ,std::basic_string<char,std::char_traits<char>,std::allocator<char> > >,void *> > >::~_Alloc_construct_ptr<std::allocator<std::_Tree_node<std::pair<unsigned long const ,std::basic_string<char,std::char_traits<char>,std::allocator<char> > >,void *> > >
PUBLIC	??1?$_Tree_temp_node@V?$allocator@U?$_Tree_node@U?$pair@$$CBKV?$basic_string@DU?$char_traits@D@std@@V?$allocator@D@2@@std@@@std@@PAX@std@@@std@@@std@@QAE@XZ ; std::_Tree_temp_node<std::allocator<std::_Tree_node<std::pair<unsigned long const ,std::basic_string<char,std::char_traits<char>,std::allocator<char> > >,void *> > >::~_Tree_temp_node<std::allocator<std::_Tree_node<std::pair<unsigned long const ,std::basic_string<char,std::char_traits<char>,std::allocator<char> > >,void *> > >
PUBLIC	??$?0U?$pair@$$CBKV?$basic_string@DU?$char_traits@D@std@@V?$allocator@D@2@@std@@@std@@@?$_Tree_temp_node@V?$allocator@U?$_Tree_node@U?$pair@$$CBKV?$basic_string@DU?$char_traits@D@std@@V?$allocator@D@2@@std@@@std@@PAX@std@@@std@@@std@@QAE@AAV?$allocator@U?$_Tree_node@U?$pair@$$CBKV?$basic_string@DU?$char_traits@D@std@@V?$allocator@D@2@@std@@@std@@PAX@std@@@1@PAU?$_Tree_node@U?$pair@$$CBKV?$basic_string@DU?$char_traits@D@std@@V?$allocator@D@2@@std@@@std@@PAX@1@$$QAU?$pair@$$CBKV?$basic_string@DU?$char_traits@D@std@@V?$allocator@D@2@@std@@@1@@Z ; std::_Tree_temp_node<std::allocator<std::_Tree_node<std::pair<unsigned long const ,std::basic_string<char,std::char_traits<char>,std::allocator<char> > >,void *> > >::_Tree_temp_node<std::allocator<std::_Tree_node<std::pair<unsigned long const ,std::basic_string<char,std::char_traits<char>,std::allocator<char> > >,void *> > ><std::pair<unsigned long const ,std::basic_string<char,std::char_traits<char>,std::allocator<char> > > >
PUBLIC	??$_Find_lower_bound@J@?$_Tree@V?$_Tmap_traits@JPAVCResource@@U?$less@J@std@@V?$allocator@U?$pair@$$CBJPAVCResource@@@std@@@3@$0A@@std@@@std@@IBE?AU?$_Tree_find_result@PAU?$_Tree_node@U?$pair@$$CBJPAVCResource@@@std@@PAX@std@@@1@ABJ@Z ; std::_Tree<std::_Tmap_traits<long,CResource *,std::less<long>,std::allocator<std::pair<long const ,CResource *> >,0> >::_Find_lower_bound<long>
PUBLIC	?_Allocate@?$_Alloc_construct_ptr@V?$allocator@U?$_Tree_node@U?$pair@$$CBJPAVCResource@@@std@@PAX@std@@@std@@@std@@QAEXXZ ; std::_Alloc_construct_ptr<std::allocator<std::_Tree_node<std::pair<long const ,CResource *>,void *> > >::_Allocate
PUBLIC	??1?$_Alloc_construct_ptr@V?$allocator@U?$_Tree_node@U?$pair@$$CBJPAVCResource@@@std@@PAX@std@@@std@@@std@@QAE@XZ ; std::_Alloc_construct_ptr<std::allocator<std::_Tree_node<std::pair<long const ,CResource *>,void *> > >::~_Alloc_construct_ptr<std::allocator<std::_Tree_node<std::pair<long const ,CResource *>,void *> > >
PUBLIC	??1?$_Tree_temp_node@V?$allocator@U?$_Tree_node@U?$pair@$$CBJPAVCResource@@@std@@PAX@std@@@std@@@std@@QAE@XZ ; std::_Tree_temp_node<std::allocator<std::_Tree_node<std::pair<long const ,CResource *>,void *> > >::~_Tree_temp_node<std::allocator<std::_Tree_node<std::pair<long const ,CResource *>,void *> > >
PUBLIC	??$?0U?$pair@$$CBJPAVCResource@@@std@@@?$_Tree_temp_node@V?$allocator@U?$_Tree_node@U?$pair@$$CBJPAVCResource@@@std@@PAX@std@@@std@@@std@@QAE@AAV?$allocator@U?$_Tree_node@U?$pair@$$CBJPAVCResource@@@std@@PAX@std@@@1@PAU?$_Tree_node@U?$pair@$$CBJPAVCResource@@@std@@PAX@1@$$QAU?$pair@$$CBJPAVCResource@@@1@@Z ; std::_Tree_temp_node<std::allocator<std::_Tree_node<std::pair<long const ,CResource *>,void *> > >::_Tree_temp_node<std::allocator<std::_Tree_node<std::pair<long const ,CResource *>,void *> > ><std::pair<long const ,CResource *> >
PUBLIC	??$_Insertion_sort_unchecked@PAUSDumpData@@P6A_NABU1@0@Z@std@@YAPAUSDumpData@@QAU1@0P6A_NABU1@1@Z@Z ; std::_Insertion_sort_unchecked<SDumpData *,bool (__cdecl*)(SDumpData const &,SDumpData const &)>
PUBLIC	??$_Make_heap_unchecked@PAUSDumpData@@P6A_NABU1@0@Z@std@@YAXPAUSDumpData@@0P6A_NABU1@1@Z@Z ; std::_Make_heap_unchecked<SDumpData *,bool (__cdecl*)(SDumpData const &,SDumpData const &)>
PUBLIC	??$_Partition_by_median_guess_unchecked@PAUSDumpData@@P6A_NABU1@0@Z@std@@YA?AU?$pair@PAUSDumpData@@PAU1@@0@PAUSDumpData@@0P6A_NABU2@1@Z@Z ; std::_Partition_by_median_guess_unchecked<SDumpData *,bool (__cdecl*)(SDumpData const &,SDumpData const &)>
PUBLIC	??$_Find_lower_bound@PAVCResource@@@?$_Tree@V?$_Tmap_traits@PAVCResource@@KU?$less@PAVCResource@@@std@@V?$allocator@U?$pair@QAVCResource@@K@std@@@3@$0A@@std@@@std@@IBE?AU?$_Tree_find_result@PAU?$_Tree_node@U?$pair@QAVCResource@@K@std@@PAX@std@@@1@ABQAVCResource@@@Z ; std::_Tree<std::_Tmap_traits<CResource *,unsigned long,std::less<CResource *>,std::allocator<std::pair<CResource * const,unsigned long> >,0> >::_Find_lower_bound<CResource *>
PUBLIC	?_Allocate@?$_Alloc_construct_ptr@V?$allocator@U?$_Tree_node@U?$pair@QAVCResource@@K@std@@PAX@std@@@std@@@std@@QAEXXZ ; std::_Alloc_construct_ptr<std::allocator<std::_Tree_node<std::pair<CResource * const,unsigned long>,void *> > >::_Allocate
PUBLIC	??1?$_Alloc_construct_ptr@V?$allocator@U?$_Tree_node@U?$pair@QAVCResource@@K@std@@PAX@std@@@std@@@std@@QAE@XZ ; std::_Alloc_construct_ptr<std::allocator<std::_Tree_node<std::pair<CResource * const,unsigned long>,void *> > >::~_Alloc_construct_ptr<std::allocator<std::_Tree_node<std::pair<CResource * const,unsigned long>,void *> > >
PUBLIC	??1?$_Tree_temp_node@V?$allocator@U?$_Tree_node@U?$pair@QAVCResource@@K@std@@PAX@std@@@std@@@std@@QAE@XZ ; std::_Tree_temp_node<std::allocator<std::_Tree_node<std::pair<CResource * const,unsigned long>,void *> > >::~_Tree_temp_node<std::allocator<std::_Tree_node<std::pair<CResource * const,unsigned long>,void *> > >
PUBLIC	??$?0U?$pair@QAVCResource@@K@std@@@?$_Tree_temp_node@V?$allocator@U?$_Tree_node@U?$pair@QAVCResource@@K@std@@PAX@std@@@std@@@std@@QAE@AAV?$allocator@U?$_Tree_node@U?$pair@QAVCResource@@K@std@@PAX@std@@@1@PAU?$_Tree_node@U?$pair@QAVCResource@@K@std@@PAX@1@$$QAU?$pair@QAVCResource@@K@1@@Z ; std::_Tree_temp_node<std::allocator<std::_Tree_node<std::pair<CResource * const,unsigned long>,void *> > >::_Tree_temp_node<std::allocator<std::_Tree_node<std::pair<CResource * const,unsigned long>,void *> > ><std::pair<CResource * const,unsigned long> >
PUBLIC	??$_Destroy_in_place@PAU?$_Tree_node@U?$pair@$$CBJPAVCResource@@@std@@PAX@std@@@std@@YAXAAPAU?$_Tree_node@U?$pair@$$CBJPAVCResource@@@std@@PAX@0@@Z ; std::_Destroy_in_place<std::_Tree_node<std::pair<long const ,CResource *>,void *> *>
PUBLIC	??$_Destroy_in_place@PAU?$_Tree_node@U?$pair@$$CBKV?$basic_string@DU?$char_traits@D@std@@V?$allocator@D@2@@std@@@std@@PAX@std@@@std@@YAXAAPAU?$_Tree_node@U?$pair@$$CBKV?$basic_string@DU?$char_traits@D@std@@V?$allocator@D@2@@std@@@std@@PAX@0@@Z ; std::_Destroy_in_place<std::_Tree_node<std::pair<unsigned long const ,std::basic_string<char,std::char_traits<char>,std::allocator<char> > >,void *> *>
PUBLIC	??$_Destroy_in_place@PAU?$_Tree_node@U?$pair@QAVCResource@@K@std@@PAX@std@@@std@@YAXAAPAU?$_Tree_node@U?$pair@QAVCResource@@K@std@@PAX@0@@Z ; std::_Destroy_in_place<std::_Tree_node<std::pair<CResource * const,unsigned long>,void *> *>
PUBLIC	??$construct@U?$pair@$$CBHP6APAVCResource@@PBD@Z@std@@ABUpiecewise_construct_t@2@V?$tuple@ABH@2@V?$tuple@$$V@2@@?$_Default_allocator_traits@V?$allocator@U?$_Tree_node@U?$pair@$$CBHP6APAVCResource@@PBD@Z@std@@PAX@std@@@std@@@std@@SAXAAV?$allocator@U?$_Tree_node@U?$pair@$$CBHP6APAVCResource@@PBD@Z@std@@PAX@std@@@1@QAU?$pair@$$CBHP6APAVCResource@@PBD@Z@1@ABUpiecewise_construct_t@1@$$QAV?$tuple@ABH@1@$$QAV?$tuple@$$V@1@@Z ; std::_Default_allocator_traits<std::allocator<std::_Tree_node<std::pair<int const ,CResource * (__cdecl*)(char const *)>,void *> > >::construct<std::pair<int const ,CResource * (__cdecl*)(char const *)>,std::piecewise_construct_t const &,std::tuple<int const &>,std::tuple<> >
PUBLIC	??$_Construct_in_place@PAU?$_Tree_node@U?$pair@$$CBHP6APAVCResource@@PBD@Z@std@@PAX@std@@AAPAU12@@std@@YAXAAPAU?$_Tree_node@U?$pair@$$CBHP6APAVCResource@@PBD@Z@std@@PAX@0@0@Z ; std::_Construct_in_place<std::_Tree_node<std::pair<int const ,CResource * (__cdecl*)(char const *)>,void *> *,std::_Tree_node<std::pair<int const ,CResource * (__cdecl*)(char const *)>,void *> * &>
PUBLIC	??$construct@U?$pair@$$CBV?$basic_string@DU?$char_traits@D@std@@V?$allocator@D@2@@std@@P6APAVCResource@@PBD@Z@std@@ABUpiecewise_construct_t@2@V?$tuple@$$QAV?$basic_string@DU?$char_traits@D@std@@V?$allocator@D@2@@std@@@2@V?$tuple@$$V@2@@?$_Default_allocator_traits@V?$allocator@U?$_Tree_node@U?$pair@$$CBV?$basic_string@DU?$char_traits@D@std@@V?$allocator@D@2@@std@@P6APAVCResource@@PBD@Z@std@@PAX@std@@@std@@@std@@SAXAAV?$allocator@U?$_Tree_node@U?$pair@$$CBV?$basic_string@DU?$char_traits@D@std@@V?$allocator@D@2@@std@@P6APAVCResource@@PBD@Z@std@@PAX@std@@@1@QAU?$pair@$$CBV?$basic_string@DU?$char_traits@D@std@@V?$allocator@D@2@@std@@P6APAVCResource@@PBD@Z@1@ABUpiecewise_construct_t@1@$$QAV?$tuple@$$QAV?$basic_string@DU?$char_traits@D@std@@V?$allocator@D@2@@std@@@1@$$QAV?$tuple@$$V@1@@Z ; std::_Default_allocator_traits<std::allocator<std::_Tree_node<std::pair<std::basic_string<char,std::char_traits<char>,std::allocator<char> > const ,CResource * (__cdecl*)(char const *)>,void *> > >::construct<std::pair<std::basic_string<char,std::char_traits<char>,std::allocator<char> > const ,CResource * (__cdecl*)(char const *)>,std::piecewise_construct_t const &,std::tuple<std::basic_string<char,std::char_traits<char>,std::allocator<char> > &&>,std::tuple<> >
PUBLIC	??$_Construct_in_place@PAU?$_Tree_node@U?$pair@$$CBV?$basic_string@DU?$char_traits@D@std@@V?$allocator@D@2@@std@@P6APAVCResource@@PBD@Z@std@@PAX@std@@AAPAU12@@std@@YAXAAPAU?$_Tree_node@U?$pair@$$CBV?$basic_string@DU?$char_traits@D@std@@V?$allocator@D@2@@std@@P6APAVCResource@@PBD@Z@std@@PAX@0@0@Z ; std::_Construct_in_place<std::_Tree_node<std::pair<std::basic_string<char,std::char_traits<char>,std::allocator<char> > const ,CResource * (__cdecl*)(char const *)>,void *> *,std::_Tree_node<std::pair<std::basic_string<char,std::char_traits<char>,std::allocator<char> > const ,CResource * (__cdecl*)(char const *)>,void *> * &>
PUBLIC	??$_Freenode@V?$allocator@U?$_Tree_node@U?$pair@$$CBV?$basic_string@DU?$char_traits@D@std@@V?$allocator@D@2@@std@@P6APAVCResource@@PBD@Z@std@@PAX@std@@@std@@@?$_Tree_node@U?$pair@$$CBV?$basic_string@DU?$char_traits@D@std@@V?$allocator@D@2@@std@@P6APAVCResource@@PBD@Z@std@@PAX@std@@SAXAAV?$allocator@U?$_Tree_node@U?$pair@$$CBV?$basic_string@DU?$char_traits@D@std@@V?$allocator@D@2@@std@@P6APAVCResource@@PBD@Z@std@@PAX@std@@@1@PAU01@@Z ; std::_Tree_node<std::pair<std::basic_string<char,std::char_traits<char>,std::allocator<char> > const ,CResource * (__cdecl*)(char const *)>,void *>::_Freenode<std::allocator<std::_Tree_node<std::pair<std::basic_string<char,std::char_traits<char>,std::allocator<char> > const ,CResource * (__cdecl*)(char const *)>,void *> > >
PUBLIC	??$_Destroy_in_place@PAU?$_Tree_node@U?$pair@$$CBKPAVCResource@@@std@@PAX@std@@@std@@YAXAAPAU?$_Tree_node@U?$pair@$$CBKPAVCResource@@@std@@PAX@0@@Z ; std::_Destroy_in_place<std::_Tree_node<std::pair<unsigned long const ,CResource *>,void *> *>
PUBLIC	??$_Copy_memmove@PAUSDumpData@@PAU1@@std@@YAPAUSDumpData@@PAU1@00@Z ; std::_Copy_memmove<SDumpData *,SDumpData *>
PUBLIC	??$?MDU?$char_traits@D@std@@V?$allocator@D@1@@std@@YA_NABV?$basic_string@DU?$char_traits@D@std@@V?$allocator@D@2@@0@0@Z ; std::operator<<char,std::char_traits<char>,std::allocator<char> >
PUBLIC	??$_Construct_in_place@PAU?$_Tree_node@U?$pair@$$CBKPAVCResource@@@std@@PAX@std@@AAPAU12@@std@@YAXAAPAU?$_Tree_node@U?$pair@$$CBKPAVCResource@@@std@@PAX@0@0@Z ; std::_Construct_in_place<std::_Tree_node<std::pair<unsigned long const ,CResource *>,void *> *,std::_Tree_node<std::pair<unsigned long const ,CResource *>,void *> * &>
PUBLIC	??$_Construct_in_place@PAU?$_Tree_node@U?$pair@$$CBKV?$basic_string@DU?$char_traits@D@std@@V?$allocator@D@2@@std@@@std@@PAX@std@@AAPAU12@@std@@YAXAAPAU?$_Tree_node@U?$pair@$$CBKV?$basic_string@DU?$char_traits@D@std@@V?$allocator@D@2@@std@@@std@@PAX@0@0@Z ; std::_Construct_in_place<std::_Tree_node<std::pair<unsigned long const ,std::basic_string<char,std::char_traits<char>,std::allocator<char> > >,void *> *,std::_Tree_node<std::pair<unsigned long const ,std::basic_string<char,std::char_traits<char>,std::allocator<char> > >,void *> * &>
PUBLIC	??$_Construct_in_place@PAU?$_Tree_node@U?$pair@$$CBJPAVCResource@@@std@@PAX@std@@AAPAU12@@std@@YAXAAPAU?$_Tree_node@U?$pair@$$CBJPAVCResource@@@std@@PAX@0@0@Z ; std::_Construct_in_place<std::_Tree_node<std::pair<long const ,CResource *>,void *> *,std::_Tree_node<std::pair<long const ,CResource *>,void *> * &>
PUBLIC	??$_Pop_heap_hole_by_index@PAUSDumpData@@U1@P6A_NABU1@0@Z@std@@YAXPAUSDumpData@@HH$$QAU1@P6A_NABU1@2@Z@Z ; std::_Pop_heap_hole_by_index<SDumpData *,SDumpData,bool (__cdecl*)(SDumpData const &,SDumpData const &)>
PUBLIC	??$_Pop_heap_unchecked@PAUSDumpData@@P6A_NABU1@0@Z@std@@YAXPAUSDumpData@@0P6A_NABU1@1@Z@Z ; std::_Pop_heap_unchecked<SDumpData *,bool (__cdecl*)(SDumpData const &,SDumpData const &)>
PUBLIC	??$_Guess_median_unchecked@PAUSDumpData@@P6A_NABU1@0@Z@std@@YAXPAUSDumpData@@00P6A_NABU1@1@Z@Z ; std::_Guess_median_unchecked<SDumpData *,bool (__cdecl*)(SDumpData const &,SDumpData const &)>
PUBLIC	??$_Construct_in_place@PAU?$_Tree_node@U?$pair@QAVCResource@@K@std@@PAX@std@@AAPAU12@@std@@YAXAAPAU?$_Tree_node@U?$pair@QAVCResource@@K@std@@PAX@0@0@Z ; std::_Construct_in_place<std::_Tree_node<std::pair<CResource * const,unsigned long>,void *> *,std::_Tree_node<std::pair<CResource * const,unsigned long>,void *> * &>
PUBLIC	??$?0$$QAV?$basic_string@DU?$char_traits@D@std@@V?$allocator@D@2@@std@@$$Z$$V@?$pair@$$CBV?$basic_string@DU?$char_traits@D@std@@V?$allocator@D@2@@std@@P6APAVCResource@@PBD@Z@std@@QAE@Upiecewise_construct_t@1@V?$tuple@$$QAV?$basic_string@DU?$char_traits@D@std@@V?$allocator@D@2@@std@@@1@V?$tuple@$$V@1@@Z ; std::pair<std::basic_string<char,std::char_traits<char>,std::allocator<char> > const ,CResource * (__cdecl*)(char const *)>::pair<std::basic_string<char,std::char_traits<char>,std::allocator<char> > const ,CResource * (__cdecl*)(char const *)><std::basic_string<char,std::char_traits<char>,std::allocator<char> > &&>
PUBLIC	??$_Copy_backward_memmove@PAUSDumpData@@PAU1@@std@@YAPAUSDumpData@@PAU1@00@Z ; std::_Copy_backward_memmove<SDumpData *,SDumpData *>
PUBLIC	??$_Push_heap_by_index@PAUSDumpData@@U1@P6A_NABU1@0@Z@std@@YAXPAUSDumpData@@HH$$QAU1@P6A_NABU1@2@Z@Z ; std::_Push_heap_by_index<SDumpData *,SDumpData,bool (__cdecl*)(SDumpData const &,SDumpData const &)>
PUBLIC	??$_Med3_unchecked@PAUSDumpData@@P6A_NABU1@0@Z@std@@YAXPAUSDumpData@@00P6A_NABU1@1@Z@Z ; std::_Med3_unchecked<SDumpData *,bool (__cdecl*)(SDumpData const &,SDumpData const &)>
PUBLIC	?_OptionsStorage@?1??__local_stdio_printf_options@@9@4_KA ; `__local_stdio_printf_options'::`2'::_OptionsStorage
PUBLIC	??_7exception@std@@6B@				; std::exception::`vftable'
PUBLIC	??_C@_0BC@EOODALEL@Unknown?5exception@		; `string'
PUBLIC	??_7bad_alloc@std@@6B@				; std::bad_alloc::`vftable'
PUBLIC	??_7bad_array_new_length@std@@6B@		; std::bad_array_new_length::`vftable'
PUBLIC	??_C@_0BF@KINCDENJ@bad?5array?5new?5length@	; `string'
PUBLIC	__TI3?AVbad_array_new_length@std@@
PUBLIC	__CTA3?AVbad_array_new_length@std@@
PUBLIC	??_R0?AVbad_array_new_length@std@@@8		; std::bad_array_new_length `RTTI Type Descriptor'
PUBLIC	__CT??_R0?AVbad_array_new_length@std@@@8??0bad_array_new_length@std@@QAE@ABV01@@Z12
PUBLIC	??_R0?AVbad_alloc@std@@@8			; std::bad_alloc `RTTI Type Descriptor'
PUBLIC	__CT??_R0?AVbad_alloc@std@@@8??0bad_alloc@std@@QAE@ABV01@@Z12
PUBLIC	??_R0?AVexception@std@@@8			; std::exception `RTTI Type Descriptor'
PUBLIC	__CT??_R0?AVexception@std@@@8??0exception@std@@QAE@ABV01@@Z12
PUBLIC	??_C@_0BA@JFNIOLAK@string?5too?5long@		; `string'
PUBLIC	??_C@_0BB@GCADKGJO@map?1set?5too?5long@		; `string'
PUBLIC	??_R4exception@std@@6B@				; std::exception::`RTTI Complete Object Locator'
PUBLIC	??_R3exception@std@@8				; std::exception::`RTTI Class Hierarchy Descriptor'
PUBLIC	??_R2exception@std@@8				; std::exception::`RTTI Base Class Array'
PUBLIC	??_R1A@?0A@EA@exception@std@@8			; std::exception::`RTTI Base Class Descriptor at (0,-1,0,64)'
PUBLIC	??_R4bad_alloc@std@@6B@				; std::bad_alloc::`RTTI Complete Object Locator'
PUBLIC	??_R3bad_alloc@std@@8				; std::bad_alloc::`RTTI Class Hierarchy Descriptor'
PUBLIC	??_R2bad_alloc@std@@8				; std::bad_alloc::`RTTI Base Class Array'
PUBLIC	??_R1A@?0A@EA@bad_alloc@std@@8			; std::bad_alloc::`RTTI Base Class Descriptor at (0,-1,0,64)'
PUBLIC	??_R4bad_array_new_length@std@@6B@		; std::bad_array_new_length::`RTTI Complete Object Locator'
PUBLIC	??_R3bad_array_new_length@std@@8		; std::bad_array_new_length::`RTTI Class Hierarchy Descriptor'
PUBLIC	??_R2bad_array_new_length@std@@8		; std::bad_array_new_length::`RTTI Base Class Array'
PUBLIC	??_R1A@?0A@EA@bad_array_new_length@std@@8	; std::bad_array_new_length::`RTTI Base Class Descriptor at (0,-1,0,64)'
PUBLIC	?ms_singleton@?$CSingleton@VCEterPackManager@@@@0PAVCEterPackManager@@A ; CSingleton<CEterPackManager>::ms_singleton
PUBLIC	?ms_singleton@?$CSingleton@VCResourceManager@@@@0PAVCResourceManager@@A ; CSingleton<CResourceManager>::ms_singleton
PUBLIC	??_7?$CSingleton@VCResourceManager@@@@6B@	; CSingleton<CResourceManager>::`vftable'
PUBLIC	?ms_loadingThread@CResourceManager@@1VCFileLoaderThread@@A ; CResourceManager::ms_loadingThread
PUBLIC	??_7CResourceManager@@6B@			; CResourceManager::`vftable'
PUBLIC	??_C@_0CO@DICKOBGD@CResourceManager?3?3LoadStaticCac@ ; `string'
PUBLIC	??_C@_0DC@JIBACBGM@CResourceManager?3?3__DestroyDele@ ; `string'
PUBLIC	??_C@_0CK@GGPMOLNJ@CResourceManager?3?3__DestroyReso@ ; `string'
PUBLIC	??_C@_0DM@HFOFINBK@CResource?3?3InsertResourcePointe@ ; `string'
PUBLIC	??_C@_0DJ@NILLFGHO@ResourceManager?3?3GetResourcePoi@ ; `string'
PUBLIC	??_C@_0DG@LGINPHCP@CResourceManager?3?3GetResourcePo@ ; `string'
PUBLIC	??_C@_09COBKJKAL@?$CF6?41f?5?$CFs?6@		; `string'
PUBLIC	??_C@_08IGNPNJLM@?$CF?94d?5?$CFs?6@		; `string'
PUBLIC	??_C@_04DLFHDFGL@?4sub@				; `string'
PUBLIC	??_C@_02JDPG@rb@				; `string'
PUBLIC	??_C@_01NOFIACDB@w@				; `string'
PUBLIC	??_C@_0O@LJOLOKII@total?3?5?$CF?42fmb@		; `string'
PUBLIC	??_C@_0BA@FOIKENOD@vector?5too?5long@		; `string'
PUBLIC	??_R4CResourceManager@@6B@			; CResourceManager::`RTTI Complete Object Locator'
PUBLIC	??_R0?AVCResourceManager@@@8			; CResourceManager `RTTI Type Descriptor'
PUBLIC	??_R3CResourceManager@@8			; CResourceManager::`RTTI Class Hierarchy Descriptor'
PUBLIC	??_R2CResourceManager@@8			; CResourceManager::`RTTI Base Class Array'
PUBLIC	??_R1A@?0A@EA@CResourceManager@@8		; CResourceManager::`RTTI Base Class Descriptor at (0,-1,0,64)'
PUBLIC	??_R1A@?0A@EA@?$CSingleton@VCResourceManager@@@@8 ; CSingleton<CResourceManager>::`RTTI Base Class Descriptor at (0,-1,0,64)'
PUBLIC	??_R0?AV?$CSingleton@VCResourceManager@@@@@8	; CSingleton<CResourceManager> `RTTI Type Descriptor'
PUBLIC	??_R3?$CSingleton@VCResourceManager@@@@8	; CSingleton<CResourceManager>::`RTTI Class Hierarchy Descriptor'
PUBLIC	??_R2?$CSingleton@VCResourceManager@@@@8	; CSingleton<CResourceManager>::`RTTI Base Class Array'
PUBLIC	??_R4?$CSingleton@VCResourceManager@@@@6B@	; CSingleton<CResourceManager>::`RTTI Complete Object Locator'
PUBLIC	__real@44800000
EXTRN	??2@YAPAXI@Z:PROC				; operator new
EXTRN	??3@YAXPAXI@Z:PROC				; operator delete
EXTRN	??_V@YAXPAX@Z:PROC				; operator delete[]
EXTRN	_atexit:PROC
EXTRN	__invalid_parameter_noinfo_noreturn:PROC
EXTRN	_memcmp:PROC
EXTRN	_memcpy:PROC
EXTRN	_memmove:PROC
EXTRN	_strrchr:PROC
EXTRN	_strlen:PROC
EXTRN	__strnicmp:PROC
EXTRN	_strncpy:PROC
EXTRN	_fclose:PROC
EXTRN	_fopen:PROC
EXTRN	_fseek:PROC
EXTRN	_ftell:PROC
EXTRN	___stdio_common_vfprintf:PROC
EXTRN	___std_exception_copy:PROC
EXTRN	___std_exception_destroy:PROC
EXTRN	??_Eexception@std@@UAEPAXI@Z:PROC		; std::exception::`vector deleting destructor'
EXTRN	??_Ebad_alloc@std@@UAEPAXI@Z:PROC		; std::bad_alloc::`vector deleting destructor'
EXTRN	??_Ebad_array_new_length@std@@UAEPAXI@Z:PROC	; std::bad_array_new_length::`vector deleting destructor'
EXTRN	?_Xlength_error@std@@YAXPBD@Z:PROC		; std::_Xlength_error
EXTRN	?Lognf@@YAXIPBDZZ:PROC				; Lognf
EXTRN	?Tracenf@@YAXPBDZZ:PROC				; Tracenf
EXTRN	?TraceError@@YAXPBDZZ:PROC			; TraceError
EXTRN	?GetCRC32@@YAKPBDI@Z:PROC			; GetCRC32
EXTRN	?ELTimer_GetMSec@@YAKXZ:PROC			; ELTimer_GetMSec
EXTRN	?korean_tolower@@YADD@Z:PROC			; korean_tolower
EXTRN	??1CMappedFile@@UAE@XZ:PROC			; CMappedFile::~CMappedFile
EXTRN	?isExist@CEterPackManager@@QAE_NPBD@Z:PROC	; CEterPackManager::isExist
EXTRN	?AddReference@CReferenceObject@@QAEXXZ:PROC	; CReferenceObject::AddReference
EXTRN	?AddReferenceOnly@CReferenceObject@@QAEXXZ:PROC	; CReferenceObject::AddReferenceOnly
EXTRN	?Release@CReferenceObject@@QAEXXZ:PROC		; CReferenceObject::Release
EXTRN	?canDestroy@CReferenceObject@@QAE_NXZ:PROC	; CReferenceObject::canDestroy
EXTRN	?Clear@CResource@@QAEXXZ:PROC			; CResource::Clear
EXTRN	?SetDeleteImmediately@CResource@@SAX_N@Z:PROC	; CResource::SetDeleteImmediately
EXTRN	?IsData@CResource@@QBE_NXZ:PROC			; CResource::IsData
EXTRN	?IsEmpty@CResource@@QBE_NXZ:PROC		; CResource::IsEmpty
EXTRN	?IsType@CResource@@QAE_NK@Z:PROC		; CResource::IsType
EXTRN	??0CFileLoaderThread@@QAE@XZ:PROC		; CFileLoaderThread::CFileLoaderThread
EXTRN	??1CFileLoaderThread@@QAE@XZ:PROC		; CFileLoaderThread::~CFileLoaderThread
EXTRN	?Request@CFileLoaderThread@@QAEXAAV?$basic_string@DU?$char_traits@D@std@@V?$allocator@D@2@@std@@@Z:PROC ; CFileLoaderThread::Request
EXTRN	?Fetch@CFileLoaderThread@@QAE_NPAPAUSData@1@@Z:PROC ; CFileLoaderThread::Fetch
EXTRN	??_E?$CSingleton@VCResourceManager@@@@UAEPAXI@Z:PROC ; CSingleton<CResourceManager>::`vector deleting destructor'
EXTRN	??_ECResourceManager@@UAEPAXI@Z:PROC		; CResourceManager::`vector deleting destructor'
EXTRN	?Type@CGraphicImage@@SAKXZ:PROC			; CGraphicImage::Type
EXTRN	?GetWidth@CGraphicImage@@QBEHXZ:PROC		; CGraphicImage::GetWidth
EXTRN	?GetHeight@CGraphicImage@@QBEHXZ:PROC		; CGraphicImage::GetHeight
EXTRN	@__security_check_cookie@4:PROC
EXTRN	__CxxThrowException@8:PROC
EXTRN	___CxxFrameHandler3:PROC
EXTRN	??_7type_info@@6B@:QWORD			; type_info::`vftable'
EXTRN	___security_cookie:DWORD
EXTRN	__fltused:DWORD
;	COMDAT ?_OptionsStorage@?1??__local_stdio_printf_options@@9@4_KA
_BSS	SEGMENT
?_OptionsStorage@?1??__local_stdio_printf_options@@9@4_KA DQ 01H DUP (?) ; `__local_stdio_printf_options'::`2'::_OptionsStorage
_BSS	ENDS
;	COMDAT ?ms_singleton@?$CSingleton@VCEterPackManager@@@@0PAVCEterPackManager@@A
_BSS	SEGMENT
?ms_singleton@?$CSingleton@VCEterPackManager@@@@0PAVCEterPackManager@@A DD 01H DUP (?) ; CSingleton<CEterPackManager>::ms_singleton
_BSS	ENDS
;	COMDAT ?ms_singleton@?$CSingleton@VCResourceManager@@@@0PAVCResourceManager@@A
_BSS	SEGMENT
?ms_singleton@?$CSingleton@VCResourceManager@@@@0PAVCResourceManager@@A DD 01H DUP (?) ; CSingleton<CResourceManager>::ms_singleton
_BSS	ENDS
_BSS	SEGMENT
?ms_loadingThread@CResourceManager@@1VCFileLoaderThread@@A DB 070H DUP (?) ; CResourceManager::ms_loadingThread
_BSS	ENDS
;	COMDAT ?s_szFileExt@?BB@??GetTypeResourcePointer@CResourceManager@@QAEPAVCResource@@PBDH@Z@4PADA
_BSS	SEGMENT
?s_szFileExt@?BB@??GetTypeResourcePointer@CResourceManager@@QAEPAVCResource@@PBDH@Z@4PADA DB 09H DUP (?) ; `CResourceManager::GetTypeResourcePointer'::`17'::s_szFileExt
_BSS	ENDS
;	COMDAT ?s_szFileExt@?9??GetResourcePointer@CResourceManager@@QAEPAVCResource@@PBD@Z@4PADA
_BSS	SEGMENT
?s_szFileExt@?9??GetResourcePointer@CResourceManager@@QAEPAVCResource@@PBD@Z@4PADA DB 09H DUP (?) ; `CResourceManager::GetResourcePointer'::`10'::s_szFileExt
_BSS	ENDS
;	COMDAT ?s_szFullPathFileName@?1??__GetFileCRC@CResourceManager@@IAEKPBDPAPBD@Z@4PADA
_BSS	SEGMENT
?s_szFullPathFileName@?1??__GetFileCRC@CResourceManager@@IAEKPBDPAPBD@Z@4PADA DB 0104H DUP (?) ; `CResourceManager::__GetFileCRC'::`2'::s_szFullPathFileName
_BSS	ENDS
CRT$XCU	SEGMENT
??ms_loadingThread$initializer$@CResourceManager@@1P6AXXZA@@3P6AXXZA DD FLAT:??__E?ms_loadingThread@CResourceManager@@1VCFileLoaderThread@@A@@YAXXZ ; ??ms_loadingThread$initializer$@CResourceManager@@1P6AXXZA@@3P6AXXZA
CRT$XCU	ENDS
;	COMDAT __real@44800000
CONST	SEGMENT
__real@44800000 DD 044800000r			; 1024
CONST	ENDS
;	COMDAT ??_R4?$CSingleton@VCResourceManager@@@@6B@
rdata$r	SEGMENT
??_R4?$CSingleton@VCResourceManager@@@@6B@ DD 00H	; CSingleton<CResourceManager>::`RTTI Complete Object Locator'
	DD	00H
	DD	00H
	DD	FLAT:??_R0?AV?$CSingleton@VCResourceManager@@@@@8
	DD	FLAT:??_R3?$CSingleton@VCResourceManager@@@@8
rdata$r	ENDS
;	COMDAT ??_R2?$CSingleton@VCResourceManager@@@@8
rdata$r	SEGMENT
??_R2?$CSingleton@VCResourceManager@@@@8 DD FLAT:??_R1A@?0A@EA@?$CSingleton@VCResourceManager@@@@8 ; CSingleton<CResourceManager>::`RTTI Base Class Array'
rdata$r	ENDS
;	COMDAT ??_R3?$CSingleton@VCResourceManager@@@@8
rdata$r	SEGMENT
??_R3?$CSingleton@VCResourceManager@@@@8 DD 00H		; CSingleton<CResourceManager>::`RTTI Class Hierarchy Descriptor'
	DD	00H
	DD	01H
	DD	FLAT:??_R2?$CSingleton@VCResourceManager@@@@8
rdata$r	ENDS
;	COMDAT ??_R0?AV?$CSingleton@VCResourceManager@@@@@8
data$rs	SEGMENT
??_R0?AV?$CSingleton@VCResourceManager@@@@@8 DD FLAT:??_7type_info@@6B@ ; CSingleton<CResourceManager> `RTTI Type Descriptor'
	DD	00H
	DB	'.?AV?$CSingleton@VCResourceManager@@@@', 00H
data$rs	ENDS
;	COMDAT ??_R1A@?0A@EA@?$CSingleton@VCResourceManager@@@@8
rdata$r	SEGMENT
??_R1A@?0A@EA@?$CSingleton@VCResourceManager@@@@8 DD FLAT:??_R0?AV?$CSingleton@VCResourceManager@@@@@8 ; CSingleton<CResourceManager>::`RTTI Base Class Descriptor at (0,-1,0,64)'
	DD	00H
	DD	00H
	DD	0ffffffffH
	DD	00H
	DD	040H
	DD	FLAT:??_R3?$CSingleton@VCResourceManager@@@@8
rdata$r	ENDS
;	COMDAT ??_R1A@?0A@EA@CResourceManager@@8
rdata$r	SEGMENT
??_R1A@?0A@EA@CResourceManager@@8 DD FLAT:??_R0?AVCResourceManager@@@8 ; CResourceManager::`RTTI Base Class Descriptor at (0,-1,0,64)'
	DD	01H
	DD	00H
	DD	0ffffffffH
	DD	00H
	DD	040H
	DD	FLAT:??_R3CResourceManager@@8
rdata$r	ENDS
;	COMDAT ??_R2CResourceManager@@8
rdata$r	SEGMENT
??_R2CResourceManager@@8 DD FLAT:??_R1A@?0A@EA@CResourceManager@@8 ; CResourceManager::`RTTI Base Class Array'
	DD	FLAT:??_R1A@?0A@EA@?$CSingleton@VCResourceManager@@@@8
rdata$r	ENDS
;	COMDAT ??_R3CResourceManager@@8
rdata$r	SEGMENT
??_R3CResourceManager@@8 DD 00H				; CResourceManager::`RTTI Class Hierarchy Descriptor'
	DD	00H
	DD	02H
	DD	FLAT:??_R2CResourceManager@@8
rdata$r	ENDS
;	COMDAT ??_R0?AVCResourceManager@@@8
data$rs	SEGMENT
??_R0?AVCResourceManager@@@8 DD FLAT:??_7type_info@@6B@	; CResourceManager `RTTI Type Descriptor'
	DD	00H
	DB	'.?AVCResourceManager@@', 00H
data$rs	ENDS
;	COMDAT ??_R4CResourceManager@@6B@
rdata$r	SEGMENT
??_R4CResourceManager@@6B@ DD 00H			; CResourceManager::`RTTI Complete Object Locator'
	DD	00H
	DD	00H
	DD	FLAT:??_R0?AVCResourceManager@@@8
	DD	FLAT:??_R3CResourceManager@@8
rdata$r	ENDS
;	COMDAT ??_C@_0BA@FOIKENOD@vector?5too?5long@
CONST	SEGMENT
??_C@_0BA@FOIKENOD@vector?5too?5long@ DB 'vector too long', 00H ; `string'
CONST	ENDS
;	COMDAT ??_C@_0O@LJOLOKII@total?3?5?$CF?42fmb@
CONST	SEGMENT
??_C@_0O@LJOLOKII@total?3?5?$CF?42fmb@ DB 'total: %.2fmb', 00H ; `string'
CONST	ENDS
;	COMDAT ??_C@_01NOFIACDB@w@
CONST	SEGMENT
??_C@_01NOFIACDB@w@ DB 'w', 00H				; `string'
CONST	ENDS
;	COMDAT ??_C@_02JDPG@rb@
CONST	SEGMENT
??_C@_02JDPG@rb@ DB 'rb', 00H				; `string'
CONST	ENDS
;	COMDAT ??_C@_04DLFHDFGL@?4sub@
CONST	SEGMENT
??_C@_04DLFHDFGL@?4sub@ DB '.sub', 00H			; `string'
CONST	ENDS
;	COMDAT ??_C@_08IGNPNJLM@?$CF?94d?5?$CFs?6@
CONST	SEGMENT
??_C@_08IGNPNJLM@?$CF?94d?5?$CFs?6@ DB '%-4d %s', 0aH, 00H ; `string'
CONST	ENDS
;	COMDAT ??_C@_09COBKJKAL@?$CF6?41f?5?$CFs?6@
CONST	SEGMENT
??_C@_09COBKJKAL@?$CF6?41f?5?$CFs?6@ DB '%6.1f %s', 0aH, 00H ; `string'
CONST	ENDS
;	COMDAT ??_C@_0DG@LGINPHCP@CResourceManager?3?3GetResourcePo@
CONST	SEGMENT
??_C@_0DG@LGINPHCP@CResourceManager?3?3GetResourcePo@ DB 'CResourceManage'
	DB	'r::GetResourcePointer: filename error!', 00H ; `string'
CONST	ENDS
;	COMDAT ??_C@_0DJ@NILLFGHO@ResourceManager?3?3GetResourcePoi@
CONST	SEGMENT
??_C@_0DJ@NILLFGHO@ResourceManager?3?3GetResourcePoi@ DB 'ResourceManager'
	DB	'::GetResourcePointer: NOT SUPPORT FILE %s', 00H ; `string'
CONST	ENDS
;	COMDAT ??_C@_0DM@HFOFINBK@CResource?3?3InsertResourcePointe@
CONST	SEGMENT
??_C@_0DM@HFOFINBK@CResource?3?3InsertResourcePointe@ DB 'CResource::Inse'
	DB	'rtResourcePointer: %s is already registered', 0aH, 00H ; `string'
CONST	ENDS
;	COMDAT ??_C@_0CK@GGPMOLNJ@CResourceManager?3?3__DestroyReso@
CONST	SEGMENT
??_C@_0CK@GGPMOLNJ@CResourceManager?3?3__DestroyReso@ DB 'CResourceManage'
	DB	'r::__DestroyResourceMap %d', 00H		; `string'
CONST	ENDS
;	COMDAT ??_C@_0DC@JIBACBGM@CResourceManager?3?3__DestroyDele@
CONST	SEGMENT
??_C@_0DC@JIBACBGM@CResourceManager?3?3__DestroyDele@ DB 'CResourceManage'
	DB	'r::__DestroyDeletingResourceMap %d', 00H	; `string'
CONST	ENDS
;	COMDAT ??_C@_0CO@DICKOBGD@CResourceManager?3?3LoadStaticCac@
CONST	SEGMENT
??_C@_0CO@DICKOBGD@CResourceManager?3?3LoadStaticCac@ DB 'CResourceManage'
	DB	'r::LoadStaticCache %s - FAILED', 00H	; `string'
CONST	ENDS
;	COMDAT ??_7CResourceManager@@6B@
CONST	SEGMENT
??_7CResourceManager@@6B@ DD FLAT:??_R4CResourceManager@@6B@ ; CResourceManager::`vftable'
	DD	FLAT:??_ECResourceManager@@UAEPAXI@Z
CONST	ENDS
;	COMDAT ??_7?$CSingleton@VCResourceManager@@@@6B@
CONST	SEGMENT
??_7?$CSingleton@VCResourceManager@@@@6B@ DD FLAT:??_R4?$CSingleton@VCResourceManager@@@@6B@ ; CSingleton<CResourceManager>::`vftable'
	DD	FLAT:??_E?$CSingleton@VCResourceManager@@@@UAEPAXI@Z
CONST	ENDS
;	COMDAT ??_R1A@?0A@EA@bad_array_new_length@std@@8
rdata$r	SEGMENT
??_R1A@?0A@EA@bad_array_new_length@std@@8 DD FLAT:??_R0?AVbad_array_new_length@std@@@8 ; std::bad_array_new_length::`RTTI Base Class Descriptor at (0,-1,0,64)'
	DD	02H
	DD	00H
	DD	0ffffffffH
	DD	00H
	DD	040H
	DD	FLAT:??_R3bad_array_new_length@std@@8
rdata$r	ENDS
;	COMDAT ??_R2bad_array_new_length@std@@8
rdata$r	SEGMENT
??_R2bad_array_new_length@std@@8 DD FLAT:??_R1A@?0A@EA@bad_array_new_length@std@@8 ; std::bad_array_new_length::`RTTI Base Class Array'
	DD	FLAT:??_R1A@?0A@EA@bad_alloc@std@@8
	DD	FLAT:??_R1A@?0A@EA@exception@std@@8
rdata$r	ENDS
;	COMDAT ??_R3bad_array_new_length@std@@8
rdata$r	SEGMENT
??_R3bad_array_new_length@std@@8 DD 00H			; std::bad_array_new_length::`RTTI Class Hierarchy Descriptor'
	DD	00H
	DD	03H
	DD	FLAT:??_R2bad_array_new_length@std@@8
rdata$r	ENDS
;	COMDAT ??_R4bad_array_new_length@std@@6B@
rdata$r	SEGMENT
??_R4bad_array_new_length@std@@6B@ DD 00H		; std::bad_array_new_length::`RTTI Complete Object Locator'
	DD	00H
	DD	00H
	DD	FLAT:??_R0?AVbad_array_new_length@std@@@8
	DD	FLAT:??_R3bad_array_new_length@std@@8
rdata$r	ENDS
;	COMDAT ??_R1A@?0A@EA@bad_alloc@std@@8
rdata$r	SEGMENT
??_R1A@?0A@EA@bad_alloc@std@@8 DD FLAT:??_R0?AVbad_alloc@std@@@8 ; std::bad_alloc::`RTTI Base Class Descriptor at (0,-1,0,64)'
	DD	01H
	DD	00H
	DD	0ffffffffH
	DD	00H
	DD	040H
	DD	FLAT:??_R3bad_alloc@std@@8
rdata$r	ENDS
;	COMDAT ??_R2bad_alloc@std@@8
rdata$r	SEGMENT
??_R2bad_alloc@std@@8 DD FLAT:??_R1A@?0A@EA@bad_alloc@std@@8 ; std::bad_alloc::`RTTI Base Class Array'
	DD	FLAT:??_R1A@?0A@EA@exception@std@@8
rdata$r	ENDS
;	COMDAT ??_R3bad_alloc@std@@8
rdata$r	SEGMENT
??_R3bad_alloc@std@@8 DD 00H				; std::bad_alloc::`RTTI Class Hierarchy Descriptor'
	DD	00H
	DD	02H
	DD	FLAT:??_R2bad_alloc@std@@8
rdata$r	ENDS
;	COMDAT ??_R4bad_alloc@std@@6B@
rdata$r	SEGMENT
??_R4bad_alloc@std@@6B@ DD 00H				; std::bad_alloc::`RTTI Complete Object Locator'
	DD	00H
	DD	00H
	DD	FLAT:??_R0?AVbad_alloc@std@@@8
	DD	FLAT:??_R3bad_alloc@std@@8
rdata$r	ENDS
;	COMDAT ??_R1A@?0A@EA@exception@std@@8
rdata$r	SEGMENT
??_R1A@?0A@EA@exception@std@@8 DD FLAT:??_R0?AVexception@std@@@8 ; std::exception::`RTTI Base Class Descriptor at (0,-1,0,64)'
	DD	00H
	DD	00H
	DD	0ffffffffH
	DD	00H
	DD	040H
	DD	FLAT:??_R3exception@std@@8
rdata$r	ENDS
;	COMDAT ??_R2exception@std@@8
rdata$r	SEGMENT
??_R2exception@std@@8 DD FLAT:??_R1A@?0A@EA@exception@std@@8 ; std::exception::`RTTI Base Class Array'
rdata$r	ENDS
;	COMDAT ??_R3exception@std@@8
rdata$r	SEGMENT
??_R3exception@std@@8 DD 00H				; std::exception::`RTTI Class Hierarchy Descriptor'
	DD	00H
	DD	01H
	DD	FLAT:??_R2exception@std@@8
rdata$r	ENDS
;	COMDAT ??_R4exception@std@@6B@
rdata$r	SEGMENT
??_R4exception@std@@6B@ DD 00H				; std::exception::`RTTI Complete Object Locator'
	DD	00H
	DD	00H
	DD	FLAT:??_R0?AVexception@std@@@8
	DD	FLAT:??_R3exception@std@@8
rdata$r	ENDS
;	COMDAT ??_C@_0BB@GCADKGJO@map?1set?5too?5long@
CONST	SEGMENT
??_C@_0BB@GCADKGJO@map?1set?5too?5long@ DB 'map/set too long', 00H ; `string'
CONST	ENDS
;	COMDAT ??_C@_0BA@JFNIOLAK@string?5too?5long@
CONST	SEGMENT
??_C@_0BA@JFNIOLAK@string?5too?5long@ DB 'string too long', 00H ; `string'
CONST	ENDS
;	COMDAT __CT??_R0?AVexception@std@@@8??0exception@std@@QAE@ABV01@@Z12
xdata$x	SEGMENT
__CT??_R0?AVexception@std@@@8??0exception@std@@QAE@ABV01@@Z12 DD 00H
	DD	FLAT:??_R0?AVexception@std@@@8
	DD	00H
	DD	0ffffffffH
	ORG $+4
	DD	0cH
	DD	FLAT:??0exception@std@@QAE@ABV01@@Z
xdata$x	ENDS
;	COMDAT ??_R0?AVexception@std@@@8
data$r	SEGMENT
??_R0?AVexception@std@@@8 DD FLAT:??_7type_info@@6B@	; std::exception `RTTI Type Descriptor'
	DD	00H
	DB	'.?AVexception@std@@', 00H
data$r	ENDS
;	COMDAT __CT??_R0?AVbad_alloc@std@@@8??0bad_alloc@std@@QAE@ABV01@@Z12
xdata$x	SEGMENT
__CT??_R0?AVbad_alloc@std@@@8??0bad_alloc@std@@QAE@ABV01@@Z12 DD 010H
	DD	FLAT:??_R0?AVbad_alloc@std@@@8
	DD	00H
	DD	0ffffffffH
	ORG $+4
	DD	0cH
	DD	FLAT:??0bad_alloc@std@@QAE@ABV01@@Z
xdata$x	ENDS
;	COMDAT ??_R0?AVbad_alloc@std@@@8
data$r	SEGMENT
??_R0?AVbad_alloc@std@@@8 DD FLAT:??_7type_info@@6B@	; std::bad_alloc `RTTI Type Descriptor'
	DD	00H
	DB	'.?AVbad_alloc@std@@', 00H
data$r	ENDS
;	COMDAT __CT??_R0?AVbad_array_new_length@std@@@8??0bad_array_new_length@std@@QAE@ABV01@@Z12
xdata$x	SEGMENT
__CT??_R0?AVbad_array_new_length@std@@@8??0bad_array_new_length@std@@QAE@ABV01@@Z12 DD 00H
	DD	FLAT:??_R0?AVbad_array_new_length@std@@@8
	DD	00H
	DD	0ffffffffH
	ORG $+4
	DD	0cH
	DD	FLAT:??0bad_array_new_length@std@@QAE@ABV01@@Z
xdata$x	ENDS
;	COMDAT ??_R0?AVbad_array_new_length@std@@@8
data$r	SEGMENT
??_R0?AVbad_array_new_length@std@@@8 DD FLAT:??_7type_info@@6B@ ; std::bad_array_new_length `RTTI Type Descriptor'
	DD	00H
	DB	'.?AVbad_array_new_length@std@@', 00H
data$r	ENDS
;	COMDAT __CTA3?AVbad_array_new_length@std@@
xdata$x	SEGMENT
__CTA3?AVbad_array_new_length@std@@ DD 03H
	DD	FLAT:__CT??_R0?AVbad_array_new_length@std@@@8??0bad_array_new_length@std@@QAE@ABV01@@Z12
	DD	FLAT:__CT??_R0?AVbad_alloc@std@@@8??0bad_alloc@std@@QAE@ABV01@@Z12
	DD	FLAT:__CT??_R0?AVexception@std@@@8??0exception@std@@QAE@ABV01@@Z12
xdata$x	ENDS
;	COMDAT __TI3?AVbad_array_new_length@std@@
xdata$x	SEGMENT
__TI3?AVbad_array_new_length@std@@ DD 00H
	DD	FLAT:??1bad_array_new_length@std@@UAE@XZ
	DD	00H
	DD	FLAT:__CTA3?AVbad_array_new_length@std@@
xdata$x	ENDS
;	COMDAT ??_C@_0BF@KINCDENJ@bad?5array?5new?5length@
CONST	SEGMENT
??_C@_0BF@KINCDENJ@bad?5array?5new?5length@ DB 'bad array new length', 00H ; `string'
CONST	ENDS
;	COMDAT ??_7bad_array_new_length@std@@6B@
CONST	SEGMENT
??_7bad_array_new_length@std@@6B@ DD FLAT:??_R4bad_array_new_length@std@@6B@ ; std::bad_array_new_length::`vftable'
	DD	FLAT:??_Ebad_array_new_length@std@@UAEPAXI@Z
	DD	FLAT:?what@exception@std@@UBEPBDXZ
CONST	ENDS
;	COMDAT ??_7bad_alloc@std@@6B@
CONST	SEGMENT
??_7bad_alloc@std@@6B@ DD FLAT:??_R4bad_alloc@std@@6B@	; std::bad_alloc::`vftable'
	DD	FLAT:??_Ebad_alloc@std@@UAEPAXI@Z
	DD	FLAT:?what@exception@std@@UBEPBDXZ
CONST	ENDS
;	COMDAT ??_C@_0BC@EOODALEL@Unknown?5exception@
CONST	SEGMENT
??_C@_0BC@EOODALEL@Unknown?5exception@ DB 'Unknown exception', 00H ; `string'
CONST	ENDS
;	COMDAT ??_7exception@std@@6B@
CONST	SEGMENT
??_7exception@std@@6B@ DD FLAT:??_R4exception@std@@6B@	; std::exception::`vftable'
	DD	FLAT:??_Eexception@std@@UAEPAXI@Z
	DD	FLAT:?what@exception@std@@UBEPBDXZ
CONST	ENDS
;	COMDAT xdata$x
xdata$x	SEGMENT
__unwindtable$??$?0U?$pair@QAVCResource@@K@std@@@?$_Tree_temp_node@V?$allocator@U?$_Tree_node@U?$pair@QAVCResource@@K@std@@PAX@std@@@std@@@std@@QAE@AAV?$allocator@U?$_Tree_node@U?$pair@QAVCResource@@K@std@@PAX@std@@@1@PAU?$_Tree_node@U?$pair@QAVCResource@@K@std@@PAX@1@$$QAU?$pair@QAVCResource@@K@1@@Z DD 0ffffffffH
	DD	FLAT:__unwindfunclet$??$?0U?$pair@QAVCResource@@K@std@@@?$_Tree_temp_node@V?$allocator@U?$_Tree_node@U?$pair@QAVCResource@@K@std@@PAX@std@@@std@@@std@@QAE@AAV?$allocator@U?$_Tree_node@U?$pair@QAVCResource@@K@std@@PAX@std@@@1@PAU?$_Tree_node@U?$pair@QAVCResource@@K@std@@PAX@1@$$QAU?$pair@QAVCResource@@K@1@@Z$1
__ehfuncinfo$??$?0U?$pair@QAVCResource@@K@std@@@?$_Tree_temp_node@V?$allocator@U?$_Tree_node@U?$pair@QAVCResource@@K@std@@PAX@std@@@std@@@std@@QAE@AAV?$allocator@U?$_Tree_node@U?$pair@QAVCResource@@K@std@@PAX@std@@@1@PAU?$_Tree_node@U?$pair@QAVCResource@@K@std@@PAX@1@$$QAU?$pair@QAVCResource@@K@1@@Z DD 019930522H
	DD	01H
	DD	FLAT:__unwindtable$??$?0U?$pair@QAVCResource@@K@std@@@?$_Tree_temp_node@V?$allocator@U?$_Tree_node@U?$pair@QAVCResource@@K@std@@PAX@std@@@std@@@std@@QAE@AAV?$allocator@U?$_Tree_node@U?$pair@QAVCResource@@K@std@@PAX@std@@@1@PAU?$_Tree_node@U?$pair@QAVCResource@@K@std@@PAX@1@$$QAU?$pair@QAVCResource@@K@1@@Z
	DD	2 DUP(00H)
	DD	2 DUP(00H)
	DD	00H
	DD	01H
xdata$x	ENDS
;	COMDAT xdata$x
xdata$x	SEGMENT
__unwindtable$??$?0U?$pair@$$CBJPAVCResource@@@std@@@?$_Tree_temp_node@V?$allocator@U?$_Tree_node@U?$pair@$$CBJPAVCResource@@@std@@PAX@std@@@std@@@std@@QAE@AAV?$allocator@U?$_Tree_node@U?$pair@$$CBJPAVCResource@@@std@@PAX@std@@@1@PAU?$_Tree_node@U?$pair@$$CBJPAVCResource@@@std@@PAX@1@$$QAU?$pair@$$CBJPAVCResource@@@1@@Z DD 0ffffffffH
	DD	FLAT:__unwindfunclet$??$?0U?$pair@$$CBJPAVCResource@@@std@@@?$_Tree_temp_node@V?$allocator@U?$_Tree_node@U?$pair@$$CBJPAVCResource@@@std@@PAX@std@@@std@@@std@@QAE@AAV?$allocator@U?$_Tree_node@U?$pair@$$CBJPAVCResource@@@std@@PAX@std@@@1@PAU?$_Tree_node@U?$pair@$$CBJPAVCResource@@@std@@PAX@1@$$QAU?$pair@$$CBJPAVCResource@@@1@@Z$1
__ehfuncinfo$??$?0U?$pair@$$CBJPAVCResource@@@std@@@?$_Tree_temp_node@V?$allocator@U?$_Tree_node@U?$pair@$$CBJPAVCResource@@@std@@PAX@std@@@std@@@std@@QAE@AAV?$allocator@U?$_Tree_node@U?$pair@$$CBJPAVCResource@@@std@@PAX@std@@@1@PAU?$_Tree_node@U?$pair@$$CBJPAVCResource@@@std@@PAX@1@$$QAU?$pair@$$CBJPAVCResource@@@1@@Z DD 019930522H
	DD	01H
	DD	FLAT:__unwindtable$??$?0U?$pair@$$CBJPAVCResource@@@std@@@?$_Tree_temp_node@V?$allocator@U?$_Tree_node@U?$pair@$$CBJPAVCResource@@@std@@PAX@std@@@std@@@std@@QAE@AAV?$allocator@U?$_Tree_node@U?$pair@$$CBJPAVCResource@@@std@@PAX@std@@@1@PAU?$_Tree_node@U?$pair@$$CBJPAVCResource@@@std@@PAX@1@$$QAU?$pair@$$CBJPAVCResource@@@1@@Z
	DD	2 DUP(00H)
	DD	2 DUP(00H)
	DD	00H
	DD	01H
xdata$x	ENDS
;	COMDAT xdata$x
xdata$x	SEGMENT
__unwindtable$??$?0U?$pair@$$CBKV?$basic_string@DU?$char_traits@D@std@@V?$allocator@D@2@@std@@@std@@@?$_Tree_temp_node@V?$allocator@U?$_Tree_node@U?$pair@$$CBKV?$basic_string@DU?$char_traits@D@std@@V?$allocator@D@2@@std@@@std@@PAX@std@@@std@@@std@@QAE@AAV?$allocator@U?$_Tree_node@U?$pair@$$CBKV?$basic_string@DU?$char_traits@D@std@@V?$allocator@D@2@@std@@@std@@PAX@std@@@1@PAU?$_Tree_node@U?$pair@$$CBKV?$basic_string@DU?$char_traits@D@std@@V?$allocator@D@2@@std@@@std@@PAX@1@$$QAU?$pair@$$CBKV?$basic_string@DU?$char_traits@D@std@@V?$allocator@D@2@@std@@@1@@Z DD 0ffffffffH
	DD	FLAT:__unwindfunclet$??$?0U?$pair@$$CBKV?$basic_string@DU?$char_traits@D@std@@V?$allocator@D@2@@std@@@std@@@?$_Tree_temp_node@V?$allocator@U?$_Tree_node@U?$pair@$$CBKV?$basic_string@DU?$char_traits@D@std@@V?$allocator@D@2@@std@@@std@@PAX@std@@@std@@@std@@QAE@AAV?$allocator@U?$_Tree_node@U?$pair@$$CBKV?$basic_string@DU?$char_traits@D@std@@V?$allocator@D@2@@std@@@std@@PAX@std@@@1@PAU?$_Tree_node@U?$pair@$$CBKV?$basic_string@DU?$char_traits@D@std@@V?$allocator@D@2@@std@@@std@@PAX@1@$$QAU?$pair@$$CBKV?$basic_string@DU?$char_traits@D@std@@V?$allocator@D@2@@std@@@1@@Z$1
__ehfuncinfo$??$?0U?$pair@$$CBKV?$basic_string@DU?$char_traits@D@std@@V?$allocator@D@2@@std@@@std@@@?$_Tree_temp_node@V?$allocator@U?$_Tree_node@U?$pair@$$CBKV?$basic_string@DU?$char_traits@D@std@@V?$allocator@D@2@@std@@@std@@PAX@std@@@std@@@std@@QAE@AAV?$allocator@U?$_Tree_node@U?$pair@$$CBKV?$basic_string@DU?$char_traits@D@std@@V?$allocator@D@2@@std@@@std@@PAX@std@@@1@PAU?$_Tree_node@U?$pair@$$CBKV?$basic_string@DU?$char_traits@D@std@@V?$allocator@D@2@@std@@@std@@PAX@1@$$QAU?$pair@$$CBKV?$basic_string@DU?$char_traits@D@std@@V?$allocator@D@2@@std@@@1@@Z DD 019930522H
	DD	01H
	DD	FLAT:__unwindtable$??$?0U?$pair@$$CBKV?$basic_string@DU?$char_traits@D@std@@V?$allocator@D@2@@std@@@std@@@?$_Tree_temp_node@V?$allocator@U?$_Tree_node@U?$pair@$$CBKV?$basic_string@DU?$char_traits@D@std@@V?$allocator@D@2@@std@@@std@@PAX@std@@@std@@@std@@QAE@AAV?$allocator@U?$_Tree_node@U?$pair@$$CBKV?$basic_string@DU?$char_traits@D@std@@V?$allocator@D@2@@std@@@std@@PAX@std@@@1@PAU?$_Tree_node@U?$pair@$$CBKV?$basic_string@DU?$char_traits@D@std@@V?$allocator@D@2@@std@@@std@@PAX@1@$$QAU?$pair@$$CBKV?$basic_string@DU?$char_traits@D@std@@V?$allocator@D@2@@std@@@1@@Z
	DD	2 DUP(00H)
	DD	2 DUP(00H)
	DD	00H
	DD	01H
xdata$x	ENDS
;	COMDAT xdata$x
xdata$x	SEGMENT
__unwindtable$??$?0U?$pair@$$CBKPAVCResource@@@std@@@?$_Tree_temp_node@V?$allocator@U?$_Tree_node@U?$pair@$$CBKPAVCResource@@@std@@PAX@std@@@std@@@std@@QAE@AAV?$allocator@U?$_Tree_node@U?$pair@$$CBKPAVCResource@@@std@@PAX@std@@@1@PAU?$_Tree_node@U?$pair@$$CBKPAVCResource@@@std@@PAX@1@$$QAU?$pair@$$CBKPAVCResource@@@1@@Z DD 0ffffffffH
	DD	FLAT:__unwindfunclet$??$?0U?$pair@$$CBKPAVCResource@@@std@@@?$_Tree_temp_node@V?$allocator@U?$_Tree_node@U?$pair@$$CBKPAVCResource@@@std@@PAX@std@@@std@@@std@@QAE@AAV?$allocator@U?$_Tree_node@U?$pair@$$CBKPAVCResource@@@std@@PAX@std@@@1@PAU?$_Tree_node@U?$pair@$$CBKPAVCResource@@@std@@PAX@1@$$QAU?$pair@$$CBKPAVCResource@@@1@@Z$1
__ehfuncinfo$??$?0U?$pair@$$CBKPAVCResource@@@std@@@?$_Tree_temp_node@V?$allocator@U?$_Tree_node@U?$pair@$$CBKPAVCResource@@@std@@PAX@std@@@std@@@std@@QAE@AAV?$allocator@U?$_Tree_node@U?$pair@$$CBKPAVCResource@@@std@@PAX@std@@@1@PAU?$_Tree_node@U?$pair@$$CBKPAVCResource@@@std@@PAX@1@$$QAU?$pair@$$CBKPAVCResource@@@1@@Z DD 019930522H
	DD	01H
	DD	FLAT:__unwindtable$??$?0U?$pair@$$CBKPAVCResource@@@std@@@?$_Tree_temp_node@V?$allocator@U?$_Tree_node@U?$pair@$$CBKPAVCResource@@@std@@PAX@std@@@std@@@std@@QAE@AAV?$allocator@U?$_Tree_node@U?$pair@$$CBKPAVCResource@@@std@@PAX@std@@@1@PAU?$_Tree_node@U?$pair@$$CBKPAVCResource@@@std@@PAX@1@$$QAU?$pair@$$CBKPAVCResource@@@1@@Z
	DD	2 DUP(00H)
	DD	2 DUP(00H)
	DD	00H
	DD	01H
xdata$x	ENDS
;	COMDAT xdata$x
xdata$x	SEGMENT
__unwindtable$??$?0ABUpiecewise_construct_t@std@@V?$tuple@$$QAV?$basic_string@DU?$char_traits@D@std@@V?$allocator@D@2@@std@@@1@V?$tuple@$$V@1@@?$_Tree_temp_node@V?$allocator@U?$_Tree_node@U?$pair@$$CBV?$basic_string@DU?$char_traits@D@std@@V?$allocator@D@2@@std@@P6APAVCResource@@PBD@Z@std@@PAX@std@@@std@@@std@@QAE@AAV?$allocator@U?$_Tree_node@U?$pair@$$CBV?$basic_string@DU?$char_traits@D@std@@V?$allocator@D@2@@std@@P6APAVCResource@@PBD@Z@std@@PAX@std@@@1@PAU?$_Tree_node@U?$pair@$$CBV?$basic_string@DU?$char_traits@D@std@@V?$allocator@D@2@@std@@P6APAVCResource@@PBD@Z@std@@PAX@1@ABUpiecewise_construct_t@1@$$QAV?$tuple@$$QAV?$basic_string@DU?$char_traits@D@std@@V?$allocator@D@2@@std@@@1@$$QAV?$tuple@$$V@1@@Z DD 0ffffffffH
	DD	FLAT:__unwindfunclet$??$?0ABUpiecewise_construct_t@std@@V?$tuple@$$QAV?$basic_string@DU?$char_traits@D@std@@V?$allocator@D@2@@std@@@1@V?$tuple@$$V@1@@?$_Tree_temp_node@V?$allocator@U?$_Tree_node@U?$pair@$$CBV?$basic_string@DU?$char_traits@D@std@@V?$allocator@D@2@@std@@P6APAVCResource@@PBD@Z@std@@PAX@std@@@std@@@std@@QAE@AAV?$allocator@U?$_Tree_node@U?$pair@$$CBV?$basic_string@DU?$char_traits@D@std@@V?$allocator@D@2@@std@@P6APAVCResource@@PBD@Z@std@@PAX@std@@@1@PAU?$_Tree_node@U?$pair@$$CBV?$basic_string@DU?$char_traits@D@std@@V?$allocator@D@2@@std@@P6APAVCResource@@PBD@Z@std@@PAX@1@ABUpiecewise_construct_t@1@$$QAV?$tuple@$$QAV?$basic_string@DU?$char_traits@D@std@@V?$allocator@D@2@@std@@@1@$$QAV?$tuple@$$V@1@@Z$1
	DD	0ffffffffH
	DD	FLAT:__unwindfunclet$??$?0ABUpiecewise_construct_t@std@@V?$tuple@$$QAV?$basic_string@DU?$char_traits@D@std@@V?$allocator@D@2@@std@@@1@V?$tuple@$$V@1@@?$_Tree_temp_node@V?$allocator@U?$_Tree_node@U?$pair@$$CBV?$basic_string@DU?$char_traits@D@std@@V?$allocator@D@2@@std@@P6APAVCResource@@PBD@Z@std@@PAX@std@@@std@@@std@@QAE@AAV?$allocator@U?$_Tree_node@U?$pair@$$CBV?$basic_string@DU?$char_traits@D@std@@V?$allocator@D@2@@std@@P6APAVCResource@@PBD@Z@std@@PAX@std@@@1@PAU?$_Tree_node@U?$pair@$$CBV?$basic_string@DU?$char_traits@D@std@@V?$allocator@D@2@@std@@P6APAVCResource@@PBD@Z@std@@PAX@1@ABUpiecewise_construct_t@1@$$QAV?$tuple@$$QAV?$basic_string@DU?$char_traits@D@std@@V?$allocator@D@2@@std@@@1@$$QAV?$tuple@$$V@1@@Z$0
__ehfuncinfo$??$?0ABUpiecewise_construct_t@std@@V?$tuple@$$QAV?$basic_string@DU?$char_traits@D@std@@V?$allocator@D@2@@std@@@1@V?$tuple@$$V@1@@?$_Tree_temp_node@V?$allocator@U?$_Tree_node@U?$pair@$$CBV?$basic_string@DU?$char_traits@D@std@@V?$allocator@D@2@@std@@P6APAVCResource@@PBD@Z@std@@PAX@std@@@std@@@std@@QAE@AAV?$allocator@U?$_Tree_node@U?$pair@$$CBV?$basic_string@DU?$char_traits@D@std@@V?$allocator@D@2@@std@@P6APAVCResource@@PBD@Z@std@@PAX@std@@@1@PAU?$_Tree_node@U?$pair@$$CBV?$basic_string@DU?$char_traits@D@std@@V?$allocator@D@2@@std@@P6APAVCResource@@PBD@Z@std@@PAX@1@ABUpiecewise_construct_t@1@$$QAV?$tuple@$$QAV?$basic_string@DU?$char_traits@D@std@@V?$allocator@D@2@@std@@@1@$$QAV?$tuple@$$V@1@@Z DD 019930522H
	DD	02H
	DD	FLAT:__unwindtable$??$?0ABUpiecewise_construct_t@std@@V?$tuple@$$QAV?$basic_string@DU?$char_traits@D@std@@V?$allocator@D@2@@std@@@1@V?$tuple@$$V@1@@?$_Tree_temp_node@V?$allocator@U?$_Tree_node@U?$pair@$$CBV?$basic_string@DU?$char_traits@D@std@@V?$allocator@D@2@@std@@P6APAVCResource@@PBD@Z@std@@PAX@std@@@std@@@std@@QAE@AAV?$allocator@U?$_Tree_node@U?$pair@$$CBV?$basic_string@DU?$char_traits@D@std@@V?$allocator@D@2@@std@@P6APAVCResource@@PBD@Z@std@@PAX@std@@@1@PAU?$_Tree_node@U?$pair@$$CBV?$basic_string@DU?$char_traits@D@std@@V?$allocator@D@2@@std@@P6APAVCResource@@PBD@Z@std@@PAX@1@ABUpiecewise_construct_t@1@$$QAV?$tuple@$$QAV?$basic_string@DU?$char_traits@D@std@@V?$allocator@D@2@@std@@@1@$$QAV?$tuple@$$V@1@@Z
	DD	2 DUP(00H)
	DD	2 DUP(00H)
	DD	00H
	DD	01H
xdata$x	ENDS
;	COMDAT xdata$x
xdata$x	SEGMENT
__unwindtable$??$?0ABUpiecewise_construct_t@std@@V?$tuple@ABH@1@V?$tuple@$$V@1@@?$_Tree_temp_node@V?$allocator@U?$_Tree_node@U?$pair@$$CBHP6APAVCResource@@PBD@Z@std@@PAX@std@@@std@@@std@@QAE@AAV?$allocator@U?$_Tree_node@U?$pair@$$CBHP6APAVCResource@@PBD@Z@std@@PAX@std@@@1@PAU?$_Tree_node@U?$pair@$$CBHP6APAVCResource@@PBD@Z@std@@PAX@1@ABUpiecewise_construct_t@1@$$QAV?$tuple@ABH@1@$$QAV?$tuple@$$V@1@@Z DD 0ffffffffH
	DD	FLAT:__unwindfunclet$??$?0ABUpiecewise_construct_t@std@@V?$tuple@ABH@1@V?$tuple@$$V@1@@?$_Tree_temp_node@V?$allocator@U?$_Tree_node@U?$pair@$$CBHP6APAVCResource@@PBD@Z@std@@PAX@std@@@std@@@std@@QAE@AAV?$allocator@U?$_Tree_node@U?$pair@$$CBHP6APAVCResource@@PBD@Z@std@@PAX@std@@@1@PAU?$_Tree_node@U?$pair@$$CBHP6APAVCResource@@PBD@Z@std@@PAX@1@ABUpiecewise_construct_t@1@$$QAV?$tuple@ABH@1@$$QAV?$tuple@$$V@1@@Z$1
	DD	0ffffffffH
	DD	FLAT:__unwindfunclet$??$?0ABUpiecewise_construct_t@std@@V?$tuple@ABH@1@V?$tuple@$$V@1@@?$_Tree_temp_node@V?$allocator@U?$_Tree_node@U?$pair@$$CBHP6APAVCResource@@PBD@Z@std@@PAX@std@@@std@@@std@@QAE@AAV?$allocator@U?$_Tree_node@U?$pair@$$CBHP6APAVCResource@@PBD@Z@std@@PAX@std@@@1@PAU?$_Tree_node@U?$pair@$$CBHP6APAVCResource@@PBD@Z@std@@PAX@1@ABUpiecewise_construct_t@1@$$QAV?$tuple@ABH@1@$$QAV?$tuple@$$V@1@@Z$0
__ehfuncinfo$??$?0ABUpiecewise_construct_t@std@@V?$tuple@ABH@1@V?$tuple@$$V@1@@?$_Tree_temp_node@V?$allocator@U?$_Tree_node@U?$pair@$$CBHP6APAVCResource@@PBD@Z@std@@PAX@std@@@std@@@std@@QAE@AAV?$allocator@U?$_Tree_node@U?$pair@$$CBHP6APAVCResource@@PBD@Z@std@@PAX@std@@@1@PAU?$_Tree_node@U?$pair@$$CBHP6APAVCResource@@PBD@Z@std@@PAX@1@ABUpiecewise_construct_t@1@$$QAV?$tuple@ABH@1@$$QAV?$tuple@$$V@1@@Z DD 019930522H
	DD	02H
	DD	FLAT:__unwindtable$??$?0ABUpiecewise_construct_t@std@@V?$tuple@ABH@1@V?$tuple@$$V@1@@?$_Tree_temp_node@V?$allocator@U?$_Tree_node@U?$pair@$$CBHP6APAVCResource@@PBD@Z@std@@PAX@std@@@std@@@std@@QAE@AAV?$allocator@U?$_Tree_node@U?$pair@$$CBHP6APAVCResource@@PBD@Z@std@@PAX@std@@@1@PAU?$_Tree_node@U?$pair@$$CBHP6APAVCResource@@PBD@Z@std@@PAX@1@ABUpiecewise_construct_t@1@$$QAV?$tuple@ABH@1@$$QAV?$tuple@$$V@1@@Z
	DD	2 DUP(00H)
	DD	2 DUP(00H)
	DD	00H
	DD	01H
xdata$x	ENDS
;	COMDAT xdata$x
xdata$x	SEGMENT
__catchsym$??$_Emplace_reallocate@ABUSDumpData@@@?$vector@USDumpData@@V?$allocator@USDumpData@@@std@@@std@@QAEPAUSDumpData@@QAU2@ABU2@@Z$32 DD 040H
	DD	00H
	DD	00H
	DD	FLAT:__catch$??$_Emplace_reallocate@ABUSDumpData@@@?$vector@USDumpData@@V?$allocator@USDumpData@@@std@@@std@@QAEPAUSDumpData@@QAU2@ABU2@@Z$0
__unwindtable$??$_Emplace_reallocate@ABUSDumpData@@@?$vector@USDumpData@@V?$allocator@USDumpData@@@std@@@std@@QAEPAUSDumpData@@QAU2@ABU2@@Z DD 0ffffffffH
	DD	00H
	DD	0ffffffffH
	DD	00H
__tryblocktable$??$_Emplace_reallocate@ABUSDumpData@@@?$vector@USDumpData@@V?$allocator@USDumpData@@@std@@@std@@QAEPAUSDumpData@@QAU2@ABU2@@Z DD 00H
	DD	00H
	DD	01H
	DD	01H
	DD	FLAT:__catchsym$??$_Emplace_reallocate@ABUSDumpData@@@?$vector@USDumpData@@V?$allocator@USDumpData@@@std@@@std@@QAEPAUSDumpData@@QAU2@ABU2@@Z$32
__ehfuncinfo$??$_Emplace_reallocate@ABUSDumpData@@@?$vector@USDumpData@@V?$allocator@USDumpData@@@std@@@std@@QAEPAUSDumpData@@QAU2@ABU2@@Z DD 019930522H
	DD	02H
	DD	FLAT:__unwindtable$??$_Emplace_reallocate@ABUSDumpData@@@?$vector@USDumpData@@V?$allocator@USDumpData@@@std@@@std@@QAEPAUSDumpData@@QAU2@ABU2@@Z
	DD	01H
	DD	FLAT:__tryblocktable$??$_Emplace_reallocate@ABUSDumpData@@@?$vector@USDumpData@@V?$allocator@USDumpData@@@std@@@std@@QAEPAUSDumpData@@QAU2@ABU2@@Z
	DD	2 DUP(00H)
	DD	00H
	DD	01H
xdata$x	ENDS
;	COMDAT xdata$x
xdata$x	SEGMENT
__unwindtable$?PushBackgroundLoadingSet@CResourceManager@@QAEXAAV?$set@V?$basic_string@DU?$char_traits@D@std@@V?$allocator@D@2@@std@@U?$less@V?$basic_string@DU?$char_traits@D@std@@V?$allocator@D@2@@std@@@2@V?$allocator@V?$basic_string@DU?$char_traits@D@std@@V?$allocator@D@2@@std@@@2@@std@@@Z DD 0ffffffffH
	DD	FLAT:__unwindfunclet$?PushBackgroundLoadingSet@CResourceManager@@QAEXAAV?$set@V?$basic_string@DU?$char_traits@D@std@@V?$allocator@D@2@@std@@U?$less@V?$basic_string@DU?$char_traits@D@std@@V?$allocator@D@2@@std@@@2@V?$allocator@V?$basic_string@DU?$char_traits@D@std@@V?$allocator@D@2@@std@@@2@@std@@@Z$0
__ehfuncinfo$?PushBackgroundLoadingSet@CResourceManager@@QAEXAAV?$set@V?$basic_string@DU?$char_traits@D@std@@V?$allocator@D@2@@std@@U?$less@V?$basic_string@DU?$char_traits@D@std@@V?$allocator@D@2@@std@@@2@V?$allocator@V?$basic_string@DU?$char_traits@D@std@@V?$allocator@D@2@@std@@@2@@std@@@Z DD 019930522H
	DD	01H
	DD	FLAT:__unwindtable$?PushBackgroundLoadingSet@CResourceManager@@QAEXAAV?$set@V?$basic_string@DU?$char_traits@D@std@@V?$allocator@D@2@@std@@U?$less@V?$basic_string@DU?$char_traits@D@std@@V?$allocator@D@2@@std@@@2@V?$allocator@V?$basic_string@DU?$char_traits@D@std@@V?$allocator@D@2@@std@@@2@@std@@@Z
	DD	2 DUP(00H)
	DD	2 DUP(00H)
	DD	00H
	DD	01H
xdata$x	ENDS
;	COMDAT xdata$x
xdata$x	SEGMENT
__unwindtable$?ProcessBackgroundLoading@CResourceManager@@QAEXXZ DD 0ffffffffH
	DD	FLAT:__unwindfunclet$?ProcessBackgroundLoading@CResourceManager@@QAEXXZ$0
__ehfuncinfo$?ProcessBackgroundLoading@CResourceManager@@QAEXXZ DD 019930522H
	DD	01H
	DD	FLAT:__unwindtable$?ProcessBackgroundLoading@CResourceManager@@QAEXXZ
	DD	2 DUP(00H)
	DD	2 DUP(00H)
	DD	00H
	DD	01H
xdata$x	ENDS
;	COMDAT xdata$x
xdata$x	SEGMENT
__unwindtable$?DumpFileListToTextFile@CResourceManager@@QAEXPBD@Z DD 0ffffffffH
	DD	FLAT:__unwindfunclet$?DumpFileListToTextFile@CResourceManager@@QAEXPBD@Z$0
__ehfuncinfo$?DumpFileListToTextFile@CResourceManager@@QAEXPBD@Z DD 019930522H
	DD	01H
	DD	FLAT:__unwindtable$?DumpFileListToTextFile@CResourceManager@@QAEXPBD@Z
	DD	2 DUP(00H)
	DD	2 DUP(00H)
	DD	00H
	DD	01H
xdata$x	ENDS
;	COMDAT xdata$x
xdata$x	SEGMENT
__unwindtable$?RegisterResourceNewFunctionPointer@CResourceManager@@QAEXPBDP6APAVCResource@@0@Z@Z DD 0ffffffffH
	DD	FLAT:__unwindfunclet$?RegisterResourceNewFunctionPointer@CResourceManager@@QAEXPBDP6APAVCResource@@0@Z@Z$0
__ehfuncinfo$?RegisterResourceNewFunctionPointer@CResourceManager@@QAEXPBDP6APAVCResource@@0@Z@Z DD 019930522H
	DD	01H
	DD	FLAT:__unwindtable$?RegisterResourceNewFunctionPointer@CResourceManager@@QAEXPBDP6APAVCResource@@0@Z@Z
	DD	2 DUP(00H)
	DD	2 DUP(00H)
	DD	00H
	DD	01H
xdata$x	ENDS
;	COMDAT xdata$x
xdata$x	SEGMENT
__unwindtable$?GetTypeResourcePointer@CResourceManager@@QAEPAVCResource@@PBDH@Z DD 0ffffffffH
	DD	FLAT:__unwindfunclet$?GetTypeResourcePointer@CResourceManager@@QAEPAVCResource@@PBDH@Z$0
__ehfuncinfo$?GetTypeResourcePointer@CResourceManager@@QAEPAVCResource@@PBDH@Z DD 019930522H
	DD	01H
	DD	FLAT:__unwindtable$?GetTypeResourcePointer@CResourceManager@@QAEPAVCResource@@PBDH@Z
	DD	2 DUP(00H)
	DD	2 DUP(00H)
	DD	00H
	DD	01H
xdata$x	ENDS
;	COMDAT xdata$x
xdata$x	SEGMENT
__unwindtable$?GetResourcePointer@CResourceManager@@QAEPAVCResource@@PBD@Z DD 0ffffffffH
	DD	FLAT:__unwindfunclet$?GetResourcePointer@CResourceManager@@QAEPAVCResource@@PBD@Z$0
__ehfuncinfo$?GetResourcePointer@CResourceManager@@QAEPAVCResource@@PBD@Z DD 019930522H
	DD	01H
	DD	FLAT:__unwindtable$?GetResourcePointer@CResourceManager@@QAEPAVCResource@@PBD@Z
	DD	2 DUP(00H)
	DD	2 DUP(00H)
	DD	00H
	DD	01H
xdata$x	ENDS
;	COMDAT xdata$x
xdata$x	SEGMENT
__ehfuncinfo$??1CResourceManager@@UAE@XZ DD 019930522H
	DD	00H
	DD	00H
	DD	2 DUP(00H)
	DD	2 DUP(00H)
	DD	00H
	DD	05H
xdata$x	ENDS
;	COMDAT xdata$x
xdata$x	SEGMENT
__ehfuncinfo$??0CResourceManager@@QAE@XZ DD 019930522H
	DD	08H
	DD	FLAT:__unwindtable$??0CResourceManager@@QAE@XZ
	DD	2 DUP(00H)
	DD	2 DUP(00H)
	DD	00H
	DD	01H
__unwindtable$??0CResourceManager@@QAE@XZ DD 0ffffffffH
	DD	FLAT:__unwindfunclet$??0CResourceManager@@QAE@XZ$0
	DD	00H
	DD	FLAT:__unwindfunclet$??0CResourceManager@@QAE@XZ$1
	DD	01H
	DD	FLAT:__unwindfunclet$??0CResourceManager@@QAE@XZ$2
	DD	02H
	DD	FLAT:__unwindfunclet$??0CResourceManager@@QAE@XZ$3
	DD	03H
	DD	FLAT:__unwindfunclet$??0CResourceManager@@QAE@XZ$4
	DD	04H
	DD	FLAT:__unwindfunclet$??0CResourceManager@@QAE@XZ$5
	DD	05H
	DD	FLAT:__unwindfunclet$??0CResourceManager@@QAE@XZ$6
	DD	06H
	DD	FLAT:__unwindfunclet$??0CResourceManager@@QAE@XZ$7
xdata$x	ENDS
;	COMDAT xdata$x
xdata$x	SEGMENT
__ehfuncinfo$??$_Deallocate@$07$0A@@std@@YAXPAXI@Z DD 019930522H
	DD	00H
	DD	00H
	DD	2 DUP(00H)
	DD	2 DUP(00H)
	DD	00H
	DD	05H
xdata$x	ENDS
;	COMDAT xdata$x
xdata$x	SEGMENT
__unwindtable$??0?$basic_string@DU?$char_traits@D@std@@V?$allocator@D@2@@std@@QAE@QBD@Z DD 0ffffffffH
	DD	FLAT:__unwindfunclet$??0?$basic_string@DU?$char_traits@D@std@@V?$allocator@D@2@@std@@QAE@QBD@Z$0
__ehfuncinfo$??0?$basic_string@DU?$char_traits@D@std@@V?$allocator@D@2@@std@@QAE@QBD@Z DD 019930522H
	DD	01H
	DD	FLAT:__unwindtable$??0?$basic_string@DU?$char_traits@D@std@@V?$allocator@D@2@@std@@QAE@QBD@Z
	DD	2 DUP(00H)
	DD	2 DUP(00H)
	DD	00H
	DD	01H
xdata$x	ENDS
;	COMDAT xdata$x
xdata$x	SEGMENT
__unwindtable$??0?$basic_string@DU?$char_traits@D@std@@V?$allocator@D@2@@std@@QAE@ABV01@@Z DD 0ffffffffH
	DD	FLAT:__unwindfunclet$??0?$basic_string@DU?$char_traits@D@std@@V?$allocator@D@2@@std@@QAE@ABV01@@Z$0
__ehfuncinfo$??0?$basic_string@DU?$char_traits@D@std@@V?$allocator@D@2@@std@@QAE@ABV01@@Z DD 019930522H
	DD	01H
	DD	FLAT:__unwindtable$??0?$basic_string@DU?$char_traits@D@std@@V?$allocator@D@2@@std@@QAE@ABV01@@Z
	DD	2 DUP(00H)
	DD	2 DUP(00H)
	DD	00H
	DD	01H
xdata$x	ENDS
; Function compile flags: /Odspy
; File C:\Program Files (x86)\Microsoft Visual Studio\2019\Community\VC\Tools\MSVC\14.28.29333\include\algorithm
; File C:\Program Files (x86)\Microsoft Visual Studio\2019\Community\VC\Tools\MSVC\14.28.29333\include\type_traits
; File C:\Program Files (x86)\Microsoft Visual Studio\2019\Community\VC\Tools\MSVC\14.28.29333\include\utility
; File C:\Program Files (x86)\Microsoft Visual Studio\2019\Community\VC\Tools\MSVC\14.28.29333\include\type_traits
; File C:\Program Files (x86)\Microsoft Visual Studio\2019\Community\VC\Tools\MSVC\14.28.29333\include\utility
; File C:\Program Files (x86)\Microsoft Visual Studio\2019\Community\VC\Tools\MSVC\14.28.29333\include\type_traits
; File C:\Program Files (x86)\Microsoft Visual Studio\2019\Community\VC\Tools\MSVC\14.28.29333\include\utility
; File C:\Program Files (x86)\Microsoft Visual Studio\2019\Community\VC\Tools\MSVC\14.28.29333\include\algorithm
; File C:\Program Files (x86)\Microsoft Visual Studio\2019\Community\VC\Tools\MSVC\14.28.29333\include\type_traits
; File C:\Program Files (x86)\Microsoft Visual Studio\2019\Community\VC\Tools\MSVC\14.28.29333\include\utility
; File C:\Program Files (x86)\Microsoft Visual Studio\2019\Community\VC\Tools\MSVC\14.28.29333\include\type_traits
; File C:\Program Files (x86)\Microsoft Visual Studio\2019\Community\VC\Tools\MSVC\14.28.29333\include\utility
; File C:\Program Files (x86)\Microsoft Visual Studio\2019\Community\VC\Tools\MSVC\14.28.29333\include\type_traits
; File C:\Program Files (x86)\Microsoft Visual Studio\2019\Community\VC\Tools\MSVC\14.28.29333\include\utility
; File C:\Program Files (x86)\Microsoft Visual Studio\2019\Community\VC\Tools\MSVC\14.28.29333\include\algorithm
; File C:\Program Files (x86)\Microsoft Visual Studio\2019\Community\VC\Tools\MSVC\14.28.29333\include\type_traits
; File C:\Program Files (x86)\Microsoft Visual Studio\2019\Community\VC\Tools\MSVC\14.28.29333\include\utility
; File C:\Program Files (x86)\Microsoft Visual Studio\2019\Community\VC\Tools\MSVC\14.28.29333\include\type_traits
; File C:\Program Files (x86)\Microsoft Visual Studio\2019\Community\VC\Tools\MSVC\14.28.29333\include\utility
; File C:\Program Files (x86)\Microsoft Visual Studio\2019\Community\VC\Tools\MSVC\14.28.29333\include\type_traits
; File C:\Program Files (x86)\Microsoft Visual Studio\2019\Community\VC\Tools\MSVC\14.28.29333\include\utility
; File C:\Program Files (x86)\Microsoft Visual Studio\2019\Community\VC\Tools\MSVC\14.28.29333\include\algorithm
;	COMDAT ??$_Med3_unchecked@PAUSDumpData@@P6A_NABU1@0@Z@std@@YAXPAUSDumpData@@00P6A_NABU1@1@Z@Z
_TEXT	SEGMENT
__Tmp$1 = -72						; size = 12
__Tmp$2 = -60						; size = 12
__Tmp$3 = -48						; size = 12
$T4 = -36						; size = 4
$T5 = -32						; size = 4
$T6 = -28						; size = 4
$T7 = -24						; size = 4
$T8 = -20						; size = 4
$T9 = -16						; size = 4
$T10 = -12						; size = 4
$T11 = -8						; size = 4
$T12 = -4						; size = 4
__First$ = 8						; size = 4
__Mid$ = 12						; size = 4
__Last$ = 16						; size = 4
__Pred$ = 20						; size = 4
??$_Med3_unchecked@PAUSDumpData@@P6A_NABU1@0@Z@std@@YAXPAUSDumpData@@00P6A_NABU1@1@Z@Z PROC ; std::_Med3_unchecked<SDumpData *,bool (__cdecl*)(SDumpData const &,SDumpData const &)>, COMDAT

; 7434 : _CONSTEXPR20 void _Med3_unchecked(_RanIt _First, _RanIt _Mid, _RanIt _Last, _Pr _Pred) {

  00000	55		 push	 ebp
  00001	8b ec		 mov	 ebp, esp
  00003	83 ec 48	 sub	 esp, 72			; 00000048H
  00006	56		 push	 esi
  00007	57		 push	 edi

; 7435 :     // sort median of three elements to middle
; 7436 :     if (_DEBUG_LT_PRED(_Pred, *_Mid, *_First)) {

  00008	ff 75 08	 push	 DWORD PTR __First$[ebp]
  0000b	ff 75 0c	 push	 DWORD PTR __Mid$[ebp]
  0000e	ff 55 14	 call	 DWORD PTR __Pred$[ebp]
  00011	59		 pop	 ecx
  00012	59		 pop	 ecx
  00013	0f b6 c0	 movzx	 eax, al
  00016	85 c0		 test	 eax, eax
  00018	74 2d		 je	 SHORT $LN2@Med3_unche
; File C:\Program Files (x86)\Microsoft Visual Studio\2019\Community\VC\Tools\MSVC\14.28.29333\include\type_traits

; 1455 :     return static_cast<remove_reference_t<_Ty>&&>(_Arg);

  0001a	8b 45 0c	 mov	 eax, DWORD PTR __Mid$[ebp]
  0001d	89 45 fc	 mov	 DWORD PTR $T12[ebp], eax
; File C:\Program Files (x86)\Microsoft Visual Studio\2019\Community\VC\Tools\MSVC\14.28.29333\include\utility

; 104  :     _Ty _Tmp = _STD move(_Left);

  00020	8b 75 fc	 mov	 esi, DWORD PTR $T12[ebp]
  00023	8d 7d d0	 lea	 edi, DWORD PTR __Tmp$3[ebp]
  00026	a5		 movsd
  00027	a5		 movsd
  00028	a5		 movsd
; File C:\Program Files (x86)\Microsoft Visual Studio\2019\Community\VC\Tools\MSVC\14.28.29333\include\type_traits

; 1455 :     return static_cast<remove_reference_t<_Ty>&&>(_Arg);

  00029	8b 45 08	 mov	 eax, DWORD PTR __First$[ebp]
  0002c	89 45 f8	 mov	 DWORD PTR $T11[ebp], eax
; File C:\Program Files (x86)\Microsoft Visual Studio\2019\Community\VC\Tools\MSVC\14.28.29333\include\utility

; 105  :     _Left    = _STD move(_Right);

  0002f	8b 75 f8	 mov	 esi, DWORD PTR $T11[ebp]
  00032	8b 7d 0c	 mov	 edi, DWORD PTR __Mid$[ebp]
  00035	a5		 movsd
  00036	a5		 movsd
  00037	a5		 movsd
; File C:\Program Files (x86)\Microsoft Visual Studio\2019\Community\VC\Tools\MSVC\14.28.29333\include\type_traits

; 1455 :     return static_cast<remove_reference_t<_Ty>&&>(_Arg);

  00038	8d 45 d0	 lea	 eax, DWORD PTR __Tmp$3[ebp]
  0003b	89 45 f4	 mov	 DWORD PTR $T10[ebp], eax
; File C:\Program Files (x86)\Microsoft Visual Studio\2019\Community\VC\Tools\MSVC\14.28.29333\include\utility

; 106  :     _Right   = _STD move(_Tmp);

  0003e	8b 75 f4	 mov	 esi, DWORD PTR $T10[ebp]
  00041	8b 7d 08	 mov	 edi, DWORD PTR __First$[ebp]
  00044	a5		 movsd
  00045	a5		 movsd
  00046	a5		 movsd
$LN2@Med3_unche:
; File C:\Program Files (x86)\Microsoft Visual Studio\2019\Community\VC\Tools\MSVC\14.28.29333\include\algorithm

; 7440 :     if (_DEBUG_LT_PRED(_Pred, *_Last, *_Mid)) { // swap middle and last, then test first again

  00047	ff 75 0c	 push	 DWORD PTR __Mid$[ebp]
  0004a	ff 75 10	 push	 DWORD PTR __Last$[ebp]
  0004d	ff 55 14	 call	 DWORD PTR __Pred$[ebp]
  00050	59		 pop	 ecx
  00051	59		 pop	 ecx
  00052	0f b6 c0	 movzx	 eax, al
  00055	85 c0		 test	 eax, eax
  00057	74 6c		 je	 SHORT $LN1@Med3_unche
; File C:\Program Files (x86)\Microsoft Visual Studio\2019\Community\VC\Tools\MSVC\14.28.29333\include\type_traits

; 1455 :     return static_cast<remove_reference_t<_Ty>&&>(_Arg);

  00059	8b 45 10	 mov	 eax, DWORD PTR __Last$[ebp]
  0005c	89 45 f0	 mov	 DWORD PTR $T9[ebp], eax
; File C:\Program Files (x86)\Microsoft Visual Studio\2019\Community\VC\Tools\MSVC\14.28.29333\include\utility

; 104  :     _Ty _Tmp = _STD move(_Left);

  0005f	8b 75 f0	 mov	 esi, DWORD PTR $T9[ebp]
  00062	8d 7d c4	 lea	 edi, DWORD PTR __Tmp$2[ebp]
  00065	a5		 movsd
  00066	a5		 movsd
  00067	a5		 movsd
; File C:\Program Files (x86)\Microsoft Visual Studio\2019\Community\VC\Tools\MSVC\14.28.29333\include\type_traits

; 1455 :     return static_cast<remove_reference_t<_Ty>&&>(_Arg);

  00068	8b 45 0c	 mov	 eax, DWORD PTR __Mid$[ebp]
  0006b	89 45 ec	 mov	 DWORD PTR $T8[ebp], eax
; File C:\Program Files (x86)\Microsoft Visual Studio\2019\Community\VC\Tools\MSVC\14.28.29333\include\utility

; 105  :     _Left    = _STD move(_Right);

  0006e	8b 75 ec	 mov	 esi, DWORD PTR $T8[ebp]
  00071	8b 7d 10	 mov	 edi, DWORD PTR __Last$[ebp]
  00074	a5		 movsd
  00075	a5		 movsd
  00076	a5		 movsd
; File C:\Program Files (x86)\Microsoft Visual Studio\2019\Community\VC\Tools\MSVC\14.28.29333\include\type_traits

; 1455 :     return static_cast<remove_reference_t<_Ty>&&>(_Arg);

  00077	8d 45 c4	 lea	 eax, DWORD PTR __Tmp$2[ebp]
  0007a	89 45 e8	 mov	 DWORD PTR $T7[ebp], eax
; File C:\Program Files (x86)\Microsoft Visual Studio\2019\Community\VC\Tools\MSVC\14.28.29333\include\utility

; 106  :     _Right   = _STD move(_Tmp);

  0007d	8b 75 e8	 mov	 esi, DWORD PTR $T7[ebp]
  00080	8b 7d 0c	 mov	 edi, DWORD PTR __Mid$[ebp]
  00083	a5		 movsd
  00084	a5		 movsd
  00085	a5		 movsd
; File C:\Program Files (x86)\Microsoft Visual Studio\2019\Community\VC\Tools\MSVC\14.28.29333\include\algorithm

; 7443 :         if (_DEBUG_LT_PRED(_Pred, *_Mid, *_First)) {

  00086	ff 75 08	 push	 DWORD PTR __First$[ebp]
  00089	ff 75 0c	 push	 DWORD PTR __Mid$[ebp]
  0008c	ff 55 14	 call	 DWORD PTR __Pred$[ebp]
  0008f	59		 pop	 ecx
  00090	59		 pop	 ecx
  00091	0f b6 c0	 movzx	 eax, al
  00094	85 c0		 test	 eax, eax
  00096	74 2d		 je	 SHORT $LN1@Med3_unche
; File C:\Program Files (x86)\Microsoft Visual Studio\2019\Community\VC\Tools\MSVC\14.28.29333\include\type_traits

; 1455 :     return static_cast<remove_reference_t<_Ty>&&>(_Arg);

  00098	8b 45 0c	 mov	 eax, DWORD PTR __Mid$[ebp]
  0009b	89 45 e4	 mov	 DWORD PTR $T6[ebp], eax
; File C:\Program Files (x86)\Microsoft Visual Studio\2019\Community\VC\Tools\MSVC\14.28.29333\include\utility

; 104  :     _Ty _Tmp = _STD move(_Left);

  0009e	8b 75 e4	 mov	 esi, DWORD PTR $T6[ebp]
  000a1	8d 7d b8	 lea	 edi, DWORD PTR __Tmp$1[ebp]
  000a4	a5		 movsd
  000a5	a5		 movsd
  000a6	a5		 movsd
; File C:\Program Files (x86)\Microsoft Visual Studio\2019\Community\VC\Tools\MSVC\14.28.29333\include\type_traits

; 1455 :     return static_cast<remove_reference_t<_Ty>&&>(_Arg);

  000a7	8b 45 08	 mov	 eax, DWORD PTR __First$[ebp]
  000aa	89 45 e0	 mov	 DWORD PTR $T5[ebp], eax
; File C:\Program Files (x86)\Microsoft Visual Studio\2019\Community\VC\Tools\MSVC\14.28.29333\include\utility

; 105  :     _Left    = _STD move(_Right);

  000ad	8b 75 e0	 mov	 esi, DWORD PTR $T5[ebp]
  000b0	8b 7d 0c	 mov	 edi, DWORD PTR __Mid$[ebp]
  000b3	a5		 movsd
  000b4	a5		 movsd
  000b5	a5		 movsd
; File C:\Program Files (x86)\Microsoft Visual Studio\2019\Community\VC\Tools\MSVC\14.28.29333\include\type_traits

; 1455 :     return static_cast<remove_reference_t<_Ty>&&>(_Arg);

  000b6	8d 45 b8	 lea	 eax, DWORD PTR __Tmp$1[ebp]
  000b9	89 45 dc	 mov	 DWORD PTR $T4[ebp], eax
; File C:\Program Files (x86)\Microsoft Visual Studio\2019\Community\VC\Tools\MSVC\14.28.29333\include\utility

; 106  :     _Right   = _STD move(_Tmp);

  000bc	8b 75 dc	 mov	 esi, DWORD PTR $T4[ebp]
  000bf	8b 7d 08	 mov	 edi, DWORD PTR __First$[ebp]
  000c2	a5		 movsd
  000c3	a5		 movsd
  000c4	a5		 movsd
$LN1@Med3_unche:
; File C:\Program Files (x86)\Microsoft Visual Studio\2019\Community\VC\Tools\MSVC\14.28.29333\include\algorithm

; 7447 : }

  000c5	5f		 pop	 edi
  000c6	5e		 pop	 esi
  000c7	c9		 leave
  000c8	c3		 ret	 0
??$_Med3_unchecked@PAUSDumpData@@P6A_NABU1@0@Z@std@@YAXPAUSDumpData@@00P6A_NABU1@1@Z@Z ENDP ; std::_Med3_unchecked<SDumpData *,bool (__cdecl*)(SDumpData const &,SDumpData const &)>
_TEXT	ENDS
; Function compile flags: /Odspy
; File C:\Program Files (x86)\Microsoft Visual Studio\2019\Community\VC\Tools\MSVC\14.28.29333\include\algorithm
; File C:\Program Files (x86)\Microsoft Visual Studio\2019\Community\VC\Tools\MSVC\14.28.29333\include\type_traits
; File C:\Program Files (x86)\Microsoft Visual Studio\2019\Community\VC\Tools\MSVC\14.28.29333\include\algorithm
; File C:\Program Files (x86)\Microsoft Visual Studio\2019\Community\VC\Tools\MSVC\14.28.29333\include\type_traits
; File C:\Program Files (x86)\Microsoft Visual Studio\2019\Community\VC\Tools\MSVC\14.28.29333\include\algorithm
;	COMDAT ??$_Push_heap_by_index@PAUSDumpData@@U1@P6A_NABU1@0@Z@std@@YAXPAUSDumpData@@HH$$QAU1@P6A_NABU1@2@Z@Z
_TEXT	SEGMENT
$T1 = -12						; size = 4
$T2 = -8						; size = 4
__Idx$3 = -4						; size = 4
__First$ = 8						; size = 4
__Hole$ = 12						; size = 4
__Top$ = 16						; size = 4
__Val$ = 20						; size = 4
__Pred$ = 24						; size = 4
??$_Push_heap_by_index@PAUSDumpData@@U1@P6A_NABU1@0@Z@std@@YAXPAUSDumpData@@HH$$QAU1@P6A_NABU1@2@Z@Z PROC ; std::_Push_heap_by_index<SDumpData *,SDumpData,bool (__cdecl*)(SDumpData const &,SDumpData const &)>, COMDAT

; 6073 :     _RanIt _First, _Iter_diff_t<_RanIt> _Hole, _Iter_diff_t<_RanIt> _Top, _Ty&& _Val, _Pr _Pred) {

  00000	55		 push	 ebp
  00001	8b ec		 mov	 ebp, esp
  00003	83 ec 0c	 sub	 esp, 12			; 0000000cH
  00006	56		 push	 esi
  00007	57		 push	 edi

; 6074 :     // percolate _Hole to _Top or where _Val belongs
; 6075 :     using _Diff = _Iter_diff_t<_RanIt>;
; 6076 :     for (_Diff _Idx = (_Hole - 1) >> 1; // shift for codegen

  00008	8b 45 0c	 mov	 eax, DWORD PTR __Hole$[ebp]
  0000b	48		 dec	 eax
  0000c	d1 f8		 sar	 eax, 1
  0000e	89 45 fc	 mov	 DWORD PTR __Idx$3[ebp], eax
  00011	eb 09		 jmp	 SHORT $LN4@Push_heap_
$LN2@Push_heap_:

; 6078 :          _Idx = (_Hole - 1) >> 1) { // shift for codegen

  00013	8b 45 0c	 mov	 eax, DWORD PTR __Hole$[ebp]
  00016	48		 dec	 eax
  00017	d1 f8		 sar	 eax, 1
  00019	89 45 fc	 mov	 DWORD PTR __Idx$3[ebp], eax
$LN4@Push_heap_:

; 6077 :          _Top < _Hole && _DEBUG_LT_PRED(_Pred, *(_First + _Idx), _Val); //

  0001c	8b 45 10	 mov	 eax, DWORD PTR __Top$[ebp]
  0001f	3b 45 0c	 cmp	 eax, DWORD PTR __Hole$[ebp]
  00022	7d 36		 jge	 SHORT $LN3@Push_heap_
  00024	ff 75 14	 push	 DWORD PTR __Val$[ebp]
  00027	6b 45 fc 0c	 imul	 eax, DWORD PTR __Idx$3[ebp], 12
  0002b	03 45 08	 add	 eax, DWORD PTR __First$[ebp]
  0002e	50		 push	 eax
  0002f	ff 55 18	 call	 DWORD PTR __Pred$[ebp]
  00032	59		 pop	 ecx
  00033	59		 pop	 ecx
  00034	0f b6 c0	 movzx	 eax, al
  00037	85 c0		 test	 eax, eax
  00039	74 1f		 je	 SHORT $LN3@Push_heap_

; 6080 :         *(_First + _Hole) = _STD move(*(_First + _Idx));

  0003b	6b 45 fc 0c	 imul	 eax, DWORD PTR __Idx$3[ebp], 12
  0003f	03 45 08	 add	 eax, DWORD PTR __First$[ebp]
; File C:\Program Files (x86)\Microsoft Visual Studio\2019\Community\VC\Tools\MSVC\14.28.29333\include\type_traits

; 1455 :     return static_cast<remove_reference_t<_Ty>&&>(_Arg);

  00042	89 45 f8	 mov	 DWORD PTR $T2[ebp], eax
; File C:\Program Files (x86)\Microsoft Visual Studio\2019\Community\VC\Tools\MSVC\14.28.29333\include\algorithm

; 6080 :         *(_First + _Hole) = _STD move(*(_First + _Idx));

  00045	6b 7d 0c 0c	 imul	 edi, DWORD PTR __Hole$[ebp], 12
  00049	03 7d 08	 add	 edi, DWORD PTR __First$[ebp]
  0004c	8b 75 f8	 mov	 esi, DWORD PTR $T2[ebp]
  0004f	a5		 movsd
  00050	a5		 movsd
  00051	a5		 movsd

; 6081 :         _Hole             = _Idx;

  00052	8b 45 fc	 mov	 eax, DWORD PTR __Idx$3[ebp]
  00055	89 45 0c	 mov	 DWORD PTR __Hole$[ebp], eax

; 6082 :     }

  00058	eb b9		 jmp	 SHORT $LN2@Push_heap_
$LN3@Push_heap_:
; File C:\Program Files (x86)\Microsoft Visual Studio\2019\Community\VC\Tools\MSVC\14.28.29333\include\type_traits

; 1443 :     return static_cast<_Ty&&>(_Arg);

  0005a	8b 45 14	 mov	 eax, DWORD PTR __Val$[ebp]
  0005d	89 45 f4	 mov	 DWORD PTR $T1[ebp], eax
; File C:\Program Files (x86)\Microsoft Visual Studio\2019\Community\VC\Tools\MSVC\14.28.29333\include\algorithm

; 6084 :     *(_First + _Hole) = _STD forward<_Ty>(_Val); // drop _Val into final hole

  00060	6b 7d 0c 0c	 imul	 edi, DWORD PTR __Hole$[ebp], 12
  00064	03 7d 08	 add	 edi, DWORD PTR __First$[ebp]
  00067	8b 75 f4	 mov	 esi, DWORD PTR $T1[ebp]
  0006a	a5		 movsd
  0006b	a5		 movsd
  0006c	a5		 movsd

; 6085 : }

  0006d	5f		 pop	 edi
  0006e	5e		 pop	 esi
  0006f	c9		 leave
  00070	c3		 ret	 0
??$_Push_heap_by_index@PAUSDumpData@@U1@P6A_NABU1@0@Z@std@@YAXPAUSDumpData@@HH$$QAU1@P6A_NABU1@2@Z@Z ENDP ; std::_Push_heap_by_index<SDumpData *,SDumpData,bool (__cdecl*)(SDumpData const &,SDumpData const &)>
_TEXT	ENDS
; Function compile flags: /Odspy
; File C:\Program Files (x86)\Microsoft Visual Studio\2019\Community\VC\Tools\MSVC\14.28.29333\include\xutility
;	COMDAT ??$_Copy_backward_memmove@PAUSDumpData@@PAU1@@std@@YAPAUSDumpData@@PAU1@00@Z
_TEXT	SEGMENT
__Dest_ch$ = -16					; size = 4
__Last_ch$ = -12					; size = 4
__Count$ = -8						; size = 4
__First_ch$ = -4					; size = 4
__First$ = 8						; size = 4
__Last$ = 12						; size = 4
__Dest$ = 16						; size = 4
??$_Copy_backward_memmove@PAUSDumpData@@PAU1@@std@@YAPAUSDumpData@@PAU1@00@Z PROC ; std::_Copy_backward_memmove<SDumpData *,SDumpData *>, COMDAT

; 4535 : _BidIt2 _Copy_backward_memmove(_BidIt1 _First, _BidIt1 _Last, _BidIt2 _Dest) {

  00000	55		 push	 ebp
  00001	8b ec		 mov	 ebp, esp
  00003	83 ec 10	 sub	 esp, 16			; 00000010H

; 4536 :     // implement copy_backward-like function as memmove
; 4537 :     const char* const _First_ch = const_cast<const char*>(reinterpret_cast<const volatile char*>(_First));

  00006	8b 45 08	 mov	 eax, DWORD PTR __First$[ebp]
  00009	89 45 fc	 mov	 DWORD PTR __First_ch$[ebp], eax

; 4538 :     const char* const _Last_ch  = const_cast<const char*>(reinterpret_cast<const volatile char*>(_Last));

  0000c	8b 45 0c	 mov	 eax, DWORD PTR __Last$[ebp]
  0000f	89 45 f4	 mov	 DWORD PTR __Last_ch$[ebp], eax

; 4539 :     char* const _Dest_ch        = const_cast<char*>(reinterpret_cast<volatile char*>(_Dest));

  00012	8b 45 10	 mov	 eax, DWORD PTR __Dest$[ebp]
  00015	89 45 f0	 mov	 DWORD PTR __Dest_ch$[ebp], eax

; 4540 :     const auto _Count           = static_cast<size_t>(_Last_ch - _First_ch);

  00018	8b 45 f4	 mov	 eax, DWORD PTR __Last_ch$[ebp]
  0001b	2b 45 fc	 sub	 eax, DWORD PTR __First_ch$[ebp]
  0001e	89 45 f8	 mov	 DWORD PTR __Count$[ebp], eax

; 4541 :     return static_cast<_BidIt2>(_CSTD memmove(_Dest_ch - _Count, _First_ch, _Count));

  00021	ff 75 f8	 push	 DWORD PTR __Count$[ebp]
  00024	ff 75 fc	 push	 DWORD PTR __First_ch$[ebp]
  00027	8b 45 f0	 mov	 eax, DWORD PTR __Dest_ch$[ebp]
  0002a	2b 45 f8	 sub	 eax, DWORD PTR __Count$[ebp]
  0002d	50		 push	 eax
  0002e	e8 00 00 00 00	 call	 _memmove
  00033	83 c4 0c	 add	 esp, 12			; 0000000cH

; 4542 : }

  00036	c9		 leave
  00037	c3		 ret	 0
??$_Copy_backward_memmove@PAUSDumpData@@PAU1@@std@@YAPAUSDumpData@@PAU1@00@Z ENDP ; std::_Copy_backward_memmove<SDumpData *,SDumpData *>
_TEXT	ENDS
; Function compile flags: /Odspy
; File C:\Program Files (x86)\Microsoft Visual Studio\2019\Community\VC\Tools\MSVC\14.28.29333\include\tuple
; File C:\Program Files (x86)\Microsoft Visual Studio\2019\Community\VC\Tools\MSVC\14.28.29333\include\type_traits
; File C:\Program Files (x86)\Microsoft Visual Studio\2019\Community\VC\Tools\MSVC\14.28.29333\include\tuple
;	COMDAT ??$?0$$QAV?$basic_string@DU?$char_traits@D@std@@V?$allocator@D@2@@std@@$$Z$$V@?$pair@$$CBV?$basic_string@DU?$char_traits@D@std@@V?$allocator@D@2@@std@@P6APAVCResource@@PBD@Z@std@@QAE@Upiecewise_construct_t@1@V?$tuple@$$QAV?$basic_string@DU?$char_traits@D@std@@V?$allocator@D@2@@std@@@1@V?$tuple@$$V@1@@Z
_TEXT	SEGMENT
$T1 = -24						; size = 4
$T2 = -20						; size = 4
_this$ = -16						; size = 4
___formal$ = -12					; size = 1
___formal$ = -8						; size = 1
$T3 = -2						; size = 1
$T4 = -1						; size = 1
___formal$ = 8						; size = 1
__Val1$ = 12						; size = 4
__Val2$ = 16						; size = 1
??$?0$$QAV?$basic_string@DU?$char_traits@D@std@@V?$allocator@D@2@@std@@$$Z$$V@?$pair@$$CBV?$basic_string@DU?$char_traits@D@std@@V?$allocator@D@2@@std@@P6APAVCResource@@PBD@Z@std@@QAE@Upiecewise_construct_t@1@V?$tuple@$$QAV?$basic_string@DU?$char_traits@D@std@@V?$allocator@D@2@@std@@@1@V?$tuple@$$V@1@@Z PROC ; std::pair<std::basic_string<char,std::char_traits<char>,std::allocator<char> > const ,CResource * (__cdecl*)(char const *)>::pair<std::basic_string<char,std::char_traits<char>,std::allocator<char> > const ,CResource * (__cdecl*)(char const *)><std::basic_string<char,std::char_traits<char>,std::allocator<char> > &&>, COMDAT
; _this$ = ecx

; 986  :     : pair(_Val1, _Val2, index_sequence_for<_Types1...>{}, index_sequence_for<_Types2...>{}) {}

  00000	55		 push	 ebp
  00001	8b ec		 mov	 ebp, esp
  00003	83 ec 18	 sub	 esp, 24			; 00000018H
  00006	89 4d f0	 mov	 DWORD PTR _this$[ebp], ecx
  00009	33 c0		 xor	 eax, eax
  0000b	88 45 ff	 mov	 BYTE PTR $T4[ebp], al
  0000e	33 c0		 xor	 eax, eax
  00010	88 45 fe	 mov	 BYTE PTR $T3[ebp], al
  00013	8a 45 ff	 mov	 al, BYTE PTR $T4[ebp]
  00016	88 45 f8	 mov	 BYTE PTR ___formal$[ebp], al
  00019	8a 45 fe	 mov	 al, BYTE PTR $T3[ebp]
  0001c	88 45 f4	 mov	 BYTE PTR ___formal$[ebp], al
; File C:\Program Files (x86)\Microsoft Visual Studio\2019\Community\VC\Tools\MSVC\14.28.29333\include\type_traits

; 1455 :     return static_cast<remove_reference_t<_Ty>&&>(_Arg);

  0001f	8d 45 0c	 lea	 eax, DWORD PTR __Val1$[ebp]
  00022	89 45 ec	 mov	 DWORD PTR $T2[ebp], eax
; File C:\Program Files (x86)\Microsoft Visual Studio\2019\Community\VC\Tools\MSVC\14.28.29333\include\tuple

; 790  :     return static_cast<_Ty&&>(static_cast<_Ttype&>(_Tuple)._Myfirst._Val);

  00025	8b 45 ec	 mov	 eax, DWORD PTR $T2[ebp]
  00028	8b 00		 mov	 eax, DWORD PTR [eax]
  0002a	89 45 e8	 mov	 DWORD PTR $T1[ebp], eax

; 980  :     : first(_STD get<_Indexes1>(_STD move(_Val1))...), second(_STD get<_Indexes2>(_STD move(_Val2))...) {}

  0002d	ff 75 e8	 push	 DWORD PTR $T1[ebp]
  00030	8b 4d f0	 mov	 ecx, DWORD PTR _this$[ebp]
  00033	e8 00 00 00 00	 call	 ??0?$basic_string@DU?$char_traits@D@std@@V?$allocator@D@2@@std@@QAE@$$QAV01@@Z ; std::basic_string<char,std::char_traits<char>,std::allocator<char> >::basic_string<char,std::char_traits<char>,std::allocator<char> >
  00038	8b 45 f0	 mov	 eax, DWORD PTR _this$[ebp]
  0003b	83 60 18 00	 and	 DWORD PTR [eax+24], 0

; 986  :     : pair(_Val1, _Val2, index_sequence_for<_Types1...>{}, index_sequence_for<_Types2...>{}) {}

  0003f	8b 45 f0	 mov	 eax, DWORD PTR _this$[ebp]
  00042	c9		 leave
  00043	c2 0c 00	 ret	 12			; 0000000cH
??$?0$$QAV?$basic_string@DU?$char_traits@D@std@@V?$allocator@D@2@@std@@$$Z$$V@?$pair@$$CBV?$basic_string@DU?$char_traits@D@std@@V?$allocator@D@2@@std@@P6APAVCResource@@PBD@Z@std@@QAE@Upiecewise_construct_t@1@V?$tuple@$$QAV?$basic_string@DU?$char_traits@D@std@@V?$allocator@D@2@@std@@@1@V?$tuple@$$V@1@@Z ENDP ; std::pair<std::basic_string<char,std::char_traits<char>,std::allocator<char> > const ,CResource * (__cdecl*)(char const *)>::pair<std::basic_string<char,std::char_traits<char>,std::allocator<char> > const ,CResource * (__cdecl*)(char const *)><std::basic_string<char,std::char_traits<char>,std::allocator<char> > &&>
_TEXT	ENDS
; Function compile flags: /Odspy
; File C:\Program Files (x86)\Microsoft Visual Studio\2019\Community\VC\Tools\MSVC\14.28.29333\include\xmemory
; File C:\Program Files (x86)\Microsoft Visual Studio\2019\Community\VC\Tools\MSVC\14.28.29333\include\xstddef
; File C:\Program Files (x86)\Microsoft Visual Studio\2019\Community\VC\Tools\MSVC\14.28.29333\include\vcruntime_new.h
; File C:\Program Files (x86)\Microsoft Visual Studio\2019\Community\VC\Tools\MSVC\14.28.29333\include\type_traits
; File C:\Program Files (x86)\Microsoft Visual Studio\2019\Community\VC\Tools\MSVC\14.28.29333\include\xmemory
;	COMDAT ??$_Construct_in_place@PAU?$_Tree_node@U?$pair@QAVCResource@@K@std@@PAX@std@@AAPAU12@@std@@YAXAAPAU?$_Tree_node@U?$pair@QAVCResource@@K@std@@PAX@0@0@Z
_TEXT	SEGMENT
$T1 = -12						; size = 4
$T2 = -8						; size = 4
$T3 = -4						; size = 4
__Obj$ = 8						; size = 4
_<_Args_0>$ = 12					; size = 4
??$_Construct_in_place@PAU?$_Tree_node@U?$pair@QAVCResource@@K@std@@PAX@std@@AAPAU12@@std@@YAXAAPAU?$_Tree_node@U?$pair@QAVCResource@@K@std@@PAX@0@0@Z PROC ; std::_Construct_in_place<std::_Tree_node<std::pair<CResource * const,unsigned long>,void *> *,std::_Tree_node<std::pair<CResource * const,unsigned long>,void *> * &>, COMDAT

; 228  : void _Construct_in_place(_Ty& _Obj, _Types&&... _Args) noexcept(is_nothrow_constructible_v<_Ty, _Types...>) {

  00000	55		 push	 ebp
  00001	8b ec		 mov	 ebp, esp
  00003	83 ec 0c	 sub	 esp, 12			; 0000000cH
; File C:\Program Files (x86)\Microsoft Visual Studio\2019\Community\VC\Tools\MSVC\14.28.29333\include\xstddef

; 275  :     return __builtin_addressof(_Val);

  00006	8b 45 08	 mov	 eax, DWORD PTR __Obj$[ebp]
  00009	89 45 fc	 mov	 DWORD PTR $T3[ebp], eax
; File C:\Program Files (x86)\Microsoft Visual Studio\2019\Community\VC\Tools\MSVC\14.28.29333\include\vcruntime_new.h

; 169  :         return _Where;

  0000c	8b 45 fc	 mov	 eax, DWORD PTR $T3[ebp]
  0000f	89 45 f8	 mov	 DWORD PTR $T2[ebp], eax
; File C:\Program Files (x86)\Microsoft Visual Studio\2019\Community\VC\Tools\MSVC\14.28.29333\include\type_traits

; 1443 :     return static_cast<_Ty&&>(_Arg);

  00012	8b 45 0c	 mov	 eax, DWORD PTR _<_Args_0>$[ebp]
  00015	89 45 f4	 mov	 DWORD PTR $T1[ebp], eax
; File C:\Program Files (x86)\Microsoft Visual Studio\2019\Community\VC\Tools\MSVC\14.28.29333\include\xmemory

; 229  :     ::new (const_cast<void*>(static_cast<const volatile void*>(_STD addressof(_Obj))))

  00018	8b 45 f8	 mov	 eax, DWORD PTR $T2[ebp]
  0001b	8b 4d f4	 mov	 ecx, DWORD PTR $T1[ebp]
  0001e	8b 09		 mov	 ecx, DWORD PTR [ecx]
  00020	89 08		 mov	 DWORD PTR [eax], ecx

; 230  :         _Ty(_STD forward<_Types>(_Args)...);
; 231  : }

  00022	c9		 leave
  00023	c3		 ret	 0
??$_Construct_in_place@PAU?$_Tree_node@U?$pair@QAVCResource@@K@std@@PAX@std@@AAPAU12@@std@@YAXAAPAU?$_Tree_node@U?$pair@QAVCResource@@K@std@@PAX@0@0@Z ENDP ; std::_Construct_in_place<std::_Tree_node<std::pair<CResource * const,unsigned long>,void *> *,std::_Tree_node<std::pair<CResource * const,unsigned long>,void *> * &>
_TEXT	ENDS
; Function compile flags: /Odspy
; File C:\Program Files (x86)\Microsoft Visual Studio\2019\Community\VC\Tools\MSVC\14.28.29333\include\algorithm
;	COMDAT ??$_Guess_median_unchecked@PAUSDumpData@@P6A_NABU1@0@Z@std@@YAXPAUSDumpData@@00P6A_NABU1@1@Z@Z
_TEXT	SEGMENT
__Two_step$1 = -12					; size = 4
__Count$ = -8						; size = 4
__Step$2 = -4						; size = 4
__First$ = 8						; size = 4
__Mid$ = 12						; size = 4
__Last$ = 16						; size = 4
__Pred$ = 20						; size = 4
??$_Guess_median_unchecked@PAUSDumpData@@P6A_NABU1@0@Z@std@@YAXPAUSDumpData@@00P6A_NABU1@1@Z@Z PROC ; std::_Guess_median_unchecked<SDumpData *,bool (__cdecl*)(SDumpData const &,SDumpData const &)>, COMDAT

; 7450 : _CONSTEXPR20 void _Guess_median_unchecked(_RanIt _First, _RanIt _Mid, _RanIt _Last, _Pr _Pred) {

  00000	55		 push	 ebp
  00001	8b ec		 mov	 ebp, esp
  00003	83 ec 0c	 sub	 esp, 12			; 0000000cH

; 7451 :     // sort median element to middle
; 7452 :     using _Diff        = _Iter_diff_t<_RanIt>;
; 7453 :     const _Diff _Count = _Last - _First;

  00006	8b 45 10	 mov	 eax, DWORD PTR __Last$[ebp]
  00009	2b 45 08	 sub	 eax, DWORD PTR __First$[ebp]
  0000c	99		 cdq
  0000d	6a 0c		 push	 12			; 0000000cH
  0000f	59		 pop	 ecx
  00010	f7 f9		 idiv	 ecx
  00012	89 45 f8	 mov	 DWORD PTR __Count$[ebp], eax

; 7454 :     if (40 < _Count) { // Tukey's ninther

  00015	83 7d f8 28	 cmp	 DWORD PTR __Count$[ebp], 40 ; 00000028H
  00019	0f 8e 94 00 00
	00		 jle	 $LN2@Guess_medi

; 7455 :         const _Diff _Step     = (_Count + 1) >> 3; // +1 can't overflow because range was made inclusive in caller

  0001f	8b 45 f8	 mov	 eax, DWORD PTR __Count$[ebp]
  00022	40		 inc	 eax
  00023	c1 f8 03	 sar	 eax, 3
  00026	89 45 fc	 mov	 DWORD PTR __Step$2[ebp], eax

; 7456 :         const _Diff _Two_step = _Step << 1; // note: intentionally discards low-order bit

  00029	8b 45 fc	 mov	 eax, DWORD PTR __Step$2[ebp]
  0002c	d1 e0		 shl	 eax, 1
  0002e	89 45 f4	 mov	 DWORD PTR __Two_step$1[ebp], eax

; 7457 :         _Med3_unchecked(_First, _First + _Step, _First + _Two_step, _Pred);

  00031	ff 75 14	 push	 DWORD PTR __Pred$[ebp]
  00034	6b 45 f4 0c	 imul	 eax, DWORD PTR __Two_step$1[ebp], 12
  00038	03 45 08	 add	 eax, DWORD PTR __First$[ebp]
  0003b	50		 push	 eax
  0003c	6b 45 fc 0c	 imul	 eax, DWORD PTR __Step$2[ebp], 12
  00040	03 45 08	 add	 eax, DWORD PTR __First$[ebp]
  00043	50		 push	 eax
  00044	ff 75 08	 push	 DWORD PTR __First$[ebp]
  00047	e8 00 00 00 00	 call	 ??$_Med3_unchecked@PAUSDumpData@@P6A_NABU1@0@Z@std@@YAXPAUSDumpData@@00P6A_NABU1@1@Z@Z ; std::_Med3_unchecked<SDumpData *,bool (__cdecl*)(SDumpData const &,SDumpData const &)>
  0004c	83 c4 10	 add	 esp, 16			; 00000010H

; 7458 :         _Med3_unchecked(_Mid - _Step, _Mid, _Mid + _Step, _Pred);

  0004f	ff 75 14	 push	 DWORD PTR __Pred$[ebp]
  00052	6b 45 fc 0c	 imul	 eax, DWORD PTR __Step$2[ebp], 12
  00056	03 45 0c	 add	 eax, DWORD PTR __Mid$[ebp]
  00059	50		 push	 eax
  0005a	ff 75 0c	 push	 DWORD PTR __Mid$[ebp]
  0005d	6b 45 fc 0c	 imul	 eax, DWORD PTR __Step$2[ebp], 12
  00061	8b 4d 0c	 mov	 ecx, DWORD PTR __Mid$[ebp]
  00064	2b c8		 sub	 ecx, eax
  00066	51		 push	 ecx
  00067	e8 00 00 00 00	 call	 ??$_Med3_unchecked@PAUSDumpData@@P6A_NABU1@0@Z@std@@YAXPAUSDumpData@@00P6A_NABU1@1@Z@Z ; std::_Med3_unchecked<SDumpData *,bool (__cdecl*)(SDumpData const &,SDumpData const &)>
  0006c	83 c4 10	 add	 esp, 16			; 00000010H

; 7459 :         _Med3_unchecked(_Last - _Two_step, _Last - _Step, _Last, _Pred);

  0006f	ff 75 14	 push	 DWORD PTR __Pred$[ebp]
  00072	ff 75 10	 push	 DWORD PTR __Last$[ebp]
  00075	6b 45 fc 0c	 imul	 eax, DWORD PTR __Step$2[ebp], 12
  00079	8b 4d 10	 mov	 ecx, DWORD PTR __Last$[ebp]
  0007c	2b c8		 sub	 ecx, eax
  0007e	51		 push	 ecx
  0007f	6b 45 f4 0c	 imul	 eax, DWORD PTR __Two_step$1[ebp], 12
  00083	8b 4d 10	 mov	 ecx, DWORD PTR __Last$[ebp]
  00086	2b c8		 sub	 ecx, eax
  00088	51		 push	 ecx
  00089	e8 00 00 00 00	 call	 ??$_Med3_unchecked@PAUSDumpData@@P6A_NABU1@0@Z@std@@YAXPAUSDumpData@@00P6A_NABU1@1@Z@Z ; std::_Med3_unchecked<SDumpData *,bool (__cdecl*)(SDumpData const &,SDumpData const &)>
  0008e	83 c4 10	 add	 esp, 16			; 00000010H

; 7460 :         _Med3_unchecked(_First + _Step, _Mid, _Last - _Step, _Pred);

  00091	ff 75 14	 push	 DWORD PTR __Pred$[ebp]
  00094	6b 45 fc 0c	 imul	 eax, DWORD PTR __Step$2[ebp], 12
  00098	8b 4d 10	 mov	 ecx, DWORD PTR __Last$[ebp]
  0009b	2b c8		 sub	 ecx, eax
  0009d	51		 push	 ecx
  0009e	ff 75 0c	 push	 DWORD PTR __Mid$[ebp]
  000a1	6b 45 fc 0c	 imul	 eax, DWORD PTR __Step$2[ebp], 12
  000a5	03 45 08	 add	 eax, DWORD PTR __First$[ebp]
  000a8	50		 push	 eax
  000a9	e8 00 00 00 00	 call	 ??$_Med3_unchecked@PAUSDumpData@@P6A_NABU1@0@Z@std@@YAXPAUSDumpData@@00P6A_NABU1@1@Z@Z ; std::_Med3_unchecked<SDumpData *,bool (__cdecl*)(SDumpData const &,SDumpData const &)>
  000ae	83 c4 10	 add	 esp, 16			; 00000010H

; 7461 :     } else {

  000b1	eb 14		 jmp	 SHORT $LN1@Guess_medi
$LN2@Guess_medi:

; 7462 :         _Med3_unchecked(_First, _Mid, _Last, _Pred);

  000b3	ff 75 14	 push	 DWORD PTR __Pred$[ebp]
  000b6	ff 75 10	 push	 DWORD PTR __Last$[ebp]
  000b9	ff 75 0c	 push	 DWORD PTR __Mid$[ebp]
  000bc	ff 75 08	 push	 DWORD PTR __First$[ebp]
  000bf	e8 00 00 00 00	 call	 ??$_Med3_unchecked@PAUSDumpData@@P6A_NABU1@0@Z@std@@YAXPAUSDumpData@@00P6A_NABU1@1@Z@Z ; std::_Med3_unchecked<SDumpData *,bool (__cdecl*)(SDumpData const &,SDumpData const &)>
  000c4	83 c4 10	 add	 esp, 16			; 00000010H
$LN1@Guess_medi:

; 7463 :     }
; 7464 : }

  000c7	c9		 leave
  000c8	c3		 ret	 0
??$_Guess_median_unchecked@PAUSDumpData@@P6A_NABU1@0@Z@std@@YAXPAUSDumpData@@00P6A_NABU1@1@Z@Z ENDP ; std::_Guess_median_unchecked<SDumpData *,bool (__cdecl*)(SDumpData const &,SDumpData const &)>
_TEXT	ENDS
; Function compile flags: /Odspy
; File C:\Program Files (x86)\Microsoft Visual Studio\2019\Community\VC\Tools\MSVC\14.28.29333\include\algorithm
; File C:\Program Files (x86)\Microsoft Visual Studio\2019\Community\VC\Tools\MSVC\14.28.29333\include\type_traits
; File C:\Program Files (x86)\Microsoft Visual Studio\2019\Community\VC\Tools\MSVC\14.28.29333\include\algorithm
; File C:\Program Files (x86)\Microsoft Visual Studio\2019\Community\VC\Tools\MSVC\14.28.29333\include\type_traits
; File C:\Program Files (x86)\Microsoft Visual Studio\2019\Community\VC\Tools\MSVC\14.28.29333\include\algorithm
; File C:\Program Files (x86)\Microsoft Visual Studio\2019\Community\VC\Tools\MSVC\14.28.29333\include\type_traits
; File C:\Program Files (x86)\Microsoft Visual Studio\2019\Community\VC\Tools\MSVC\14.28.29333\include\algorithm
;	COMDAT ??$_Pop_heap_unchecked@PAUSDumpData@@P6A_NABU1@0@Z@std@@YAXPAUSDumpData@@0P6A_NABU1@1@Z@Z
_TEXT	SEGMENT
__Val$1 = -28						; size = 12
$T2 = -16						; size = 4
$T3 = -12						; size = 4
$T4 = -8						; size = 4
$T5 = -4						; size = 4
__First$ = 8						; size = 4
__Last$ = 12						; size = 4
__Pred$ = 16						; size = 4
??$_Pop_heap_unchecked@PAUSDumpData@@P6A_NABU1@0@Z@std@@YAXPAUSDumpData@@0P6A_NABU1@1@Z@Z PROC ; std::_Pop_heap_unchecked<SDumpData *,bool (__cdecl*)(SDumpData const &,SDumpData const &)>, COMDAT

; 6226 : _CONSTEXPR20 void _Pop_heap_unchecked(_RanIt _First, _RanIt _Last, _Pr _Pred) {

  00000	55		 push	 ebp
  00001	8b ec		 mov	 ebp, esp
  00003	83 ec 1c	 sub	 esp, 28			; 0000001cH
  00006	56		 push	 esi
  00007	57		 push	 edi

; 6227 :     // pop *_First to *(_Last - 1) and reheap
; 6228 :     if (2 <= _Last - _First) {

  00008	8b 45 0c	 mov	 eax, DWORD PTR __Last$[ebp]
  0000b	2b 45 08	 sub	 eax, DWORD PTR __First$[ebp]
  0000e	99		 cdq
  0000f	6a 0c		 push	 12			; 0000000cH
  00011	59		 pop	 ecx
  00012	f7 f9		 idiv	 ecx
  00014	83 f8 02	 cmp	 eax, 2
  00017	7c 53		 jl	 SHORT $LN1@Pop_heap_u

; 6229 :         --_Last;

  00019	8b 45 0c	 mov	 eax, DWORD PTR __Last$[ebp]
  0001c	83 e8 0c	 sub	 eax, 12			; 0000000cH
  0001f	89 45 0c	 mov	 DWORD PTR __Last$[ebp], eax
; File C:\Program Files (x86)\Microsoft Visual Studio\2019\Community\VC\Tools\MSVC\14.28.29333\include\type_traits

; 1455 :     return static_cast<remove_reference_t<_Ty>&&>(_Arg);

  00022	8b 45 0c	 mov	 eax, DWORD PTR __Last$[ebp]
  00025	89 45 fc	 mov	 DWORD PTR $T5[ebp], eax
; File C:\Program Files (x86)\Microsoft Visual Studio\2019\Community\VC\Tools\MSVC\14.28.29333\include\algorithm

; 6230 :         _Iter_value_t<_RanIt> _Val = _STD move(*_Last);

  00028	8b 75 fc	 mov	 esi, DWORD PTR $T5[ebp]
  0002b	8d 7d e4	 lea	 edi, DWORD PTR __Val$1[ebp]
  0002e	a5		 movsd
  0002f	a5		 movsd
  00030	a5		 movsd
; File C:\Program Files (x86)\Microsoft Visual Studio\2019\Community\VC\Tools\MSVC\14.28.29333\include\type_traits

; 1455 :     return static_cast<remove_reference_t<_Ty>&&>(_Arg);

  00031	8d 45 e4	 lea	 eax, DWORD PTR __Val$1[ebp]
  00034	89 45 f4	 mov	 DWORD PTR $T3[ebp], eax
  00037	8b 45 08	 mov	 eax, DWORD PTR __First$[ebp]
  0003a	89 45 f8	 mov	 DWORD PTR $T4[ebp], eax
; File C:\Program Files (x86)\Microsoft Visual Studio\2019\Community\VC\Tools\MSVC\14.28.29333\include\algorithm

; 6219 :     *_Dest      = _STD move(*_First);

  0003d	8b 75 f8	 mov	 esi, DWORD PTR $T4[ebp]
  00040	8b 7d 0c	 mov	 edi, DWORD PTR __Last$[ebp]
  00043	a5		 movsd
  00044	a5		 movsd
  00045	a5		 movsd
; File C:\Program Files (x86)\Microsoft Visual Studio\2019\Community\VC\Tools\MSVC\14.28.29333\include\type_traits

; 1443 :     return static_cast<_Ty&&>(_Arg);

  00046	8b 45 f4	 mov	 eax, DWORD PTR $T3[ebp]
  00049	89 45 f0	 mov	 DWORD PTR $T2[ebp], eax
; File C:\Program Files (x86)\Microsoft Visual Studio\2019\Community\VC\Tools\MSVC\14.28.29333\include\algorithm

; 6221 :     _Pop_heap_hole_by_index(

  0004c	ff 75 10	 push	 DWORD PTR __Pred$[ebp]
  0004f	ff 75 f0	 push	 DWORD PTR $T2[ebp]
  00052	8b 45 0c	 mov	 eax, DWORD PTR __Last$[ebp]
  00055	2b 45 08	 sub	 eax, DWORD PTR __First$[ebp]
  00058	99		 cdq
  00059	6a 0c		 push	 12			; 0000000cH
  0005b	59		 pop	 ecx
  0005c	f7 f9		 idiv	 ecx
  0005e	50		 push	 eax
  0005f	6a 00		 push	 0
  00061	ff 75 08	 push	 DWORD PTR __First$[ebp]
  00064	e8 00 00 00 00	 call	 ??$_Pop_heap_hole_by_index@PAUSDumpData@@U1@P6A_NABU1@0@Z@std@@YAXPAUSDumpData@@HH$$QAU1@P6A_NABU1@2@Z@Z ; std::_Pop_heap_hole_by_index<SDumpData *,SDumpData,bool (__cdecl*)(SDumpData const &,SDumpData const &)>
  00069	83 c4 14	 add	 esp, 20			; 00000014H
$LN1@Pop_heap_u:

; 6231 :         _Pop_heap_hole_unchecked(_First, _Last, _Last, _STD move(_Val), _Pred);
; 6232 :     }
; 6233 : }

  0006c	5f		 pop	 edi
  0006d	5e		 pop	 esi
  0006e	c9		 leave
  0006f	c3		 ret	 0
??$_Pop_heap_unchecked@PAUSDumpData@@P6A_NABU1@0@Z@std@@YAXPAUSDumpData@@0P6A_NABU1@1@Z@Z ENDP ; std::_Pop_heap_unchecked<SDumpData *,bool (__cdecl*)(SDumpData const &,SDumpData const &)>
_TEXT	ENDS
; Function compile flags: /Odspy
; File C:\Program Files (x86)\Microsoft Visual Studio\2019\Community\VC\Tools\MSVC\14.28.29333\include\algorithm
; File C:\Program Files (x86)\Microsoft Visual Studio\2019\Community\VC\Tools\MSVC\14.28.29333\include\type_traits
; File C:\Program Files (x86)\Microsoft Visual Studio\2019\Community\VC\Tools\MSVC\14.28.29333\include\algorithm
; File C:\Program Files (x86)\Microsoft Visual Studio\2019\Community\VC\Tools\MSVC\14.28.29333\include\type_traits
; File C:\Program Files (x86)\Microsoft Visual Studio\2019\Community\VC\Tools\MSVC\14.28.29333\include\algorithm
; File C:\Program Files (x86)\Microsoft Visual Studio\2019\Community\VC\Tools\MSVC\14.28.29333\include\type_traits
; File C:\Program Files (x86)\Microsoft Visual Studio\2019\Community\VC\Tools\MSVC\14.28.29333\include\algorithm
;	COMDAT ??$_Pop_heap_hole_by_index@PAUSDumpData@@U1@P6A_NABU1@0@Z@std@@YAXPAUSDumpData@@HH$$QAU1@P6A_NABU1@2@Z@Z
_TEXT	SEGMENT
__Top$ = -24						; size = 4
$T1 = -20						; size = 4
$T2 = -16						; size = 4
$T3 = -12						; size = 4
__Max_sequence_non_leaf$ = -8				; size = 4
__Idx$ = -4						; size = 4
__First$ = 8						; size = 4
__Hole$ = 12						; size = 4
__Bottom$ = 16						; size = 4
__Val$ = 20						; size = 4
__Pred$ = 24						; size = 4
??$_Pop_heap_hole_by_index@PAUSDumpData@@U1@P6A_NABU1@0@Z@std@@YAXPAUSDumpData@@HH$$QAU1@P6A_NABU1@2@Z@Z PROC ; std::_Pop_heap_hole_by_index<SDumpData *,SDumpData,bool (__cdecl*)(SDumpData const &,SDumpData const &)>, COMDAT

; 6186 :     _RanIt _First, _Iter_diff_t<_RanIt> _Hole, _Iter_diff_t<_RanIt> _Bottom, _Ty&& _Val, _Pr _Pred) {

  00000	55		 push	 ebp
  00001	8b ec		 mov	 ebp, esp
  00003	83 ec 18	 sub	 esp, 24			; 00000018H
  00006	56		 push	 esi
  00007	57		 push	 edi

; 6187 :     // percolate _Hole to _Bottom, then push _Val
; 6188 :     _STL_INTERNAL_CHECK(_Bottom > 0);
; 6189 : 
; 6190 :     using _Diff      = _Iter_diff_t<_RanIt>;
; 6191 :     const _Diff _Top = _Hole;

  00008	8b 45 0c	 mov	 eax, DWORD PTR __Hole$[ebp]
  0000b	89 45 e8	 mov	 DWORD PTR __Top$[ebp], eax

; 6192 :     _Diff _Idx       = _Hole;

  0000e	8b 45 0c	 mov	 eax, DWORD PTR __Hole$[ebp]
  00011	89 45 fc	 mov	 DWORD PTR __Idx$[ebp], eax

; 6193 : 
; 6194 :     // Check whether _Idx can have a child before calculating that child's index, since
; 6195 :     // calculating the child's index can trigger integer overflows
; 6196 :     const _Diff _Max_sequence_non_leaf = (_Bottom - 1) >> 1; // shift for codegen

  00014	8b 45 10	 mov	 eax, DWORD PTR __Bottom$[ebp]
  00017	48		 dec	 eax
  00018	d1 f8		 sar	 eax, 1
  0001a	89 45 f8	 mov	 DWORD PTR __Max_sequence_non_leaf$[ebp], eax
$LN2@Pop_heap_h:

; 6197 :     while (_Idx < _Max_sequence_non_leaf) { // move _Hole down to larger child

  0001d	8b 45 fc	 mov	 eax, DWORD PTR __Idx$[ebp]
  00020	3b 45 f8	 cmp	 eax, DWORD PTR __Max_sequence_non_leaf$[ebp]
  00023	7d 4f		 jge	 SHORT $LN3@Pop_heap_h

; 6198 :         _Idx = 2 * _Idx + 2;

  00025	8b 45 fc	 mov	 eax, DWORD PTR __Idx$[ebp]
  00028	8d 44 00 02	 lea	 eax, DWORD PTR [eax+eax+2]
  0002c	89 45 fc	 mov	 DWORD PTR __Idx$[ebp], eax

; 6199 :         if (_DEBUG_LT_PRED(_Pred, *(_First + _Idx), *(_First + (_Idx - 1)))) {

  0002f	8b 45 fc	 mov	 eax, DWORD PTR __Idx$[ebp]
  00032	48		 dec	 eax
  00033	6b c0 0c	 imul	 eax, eax, 12
  00036	03 45 08	 add	 eax, DWORD PTR __First$[ebp]
  00039	50		 push	 eax
  0003a	6b 45 fc 0c	 imul	 eax, DWORD PTR __Idx$[ebp], 12
  0003e	03 45 08	 add	 eax, DWORD PTR __First$[ebp]
  00041	50		 push	 eax
  00042	ff 55 18	 call	 DWORD PTR __Pred$[ebp]
  00045	59		 pop	 ecx
  00046	59		 pop	 ecx
  00047	0f b6 c0	 movzx	 eax, al
  0004a	85 c0		 test	 eax, eax
  0004c	74 07		 je	 SHORT $LN4@Pop_heap_h

; 6200 :             --_Idx;

  0004e	8b 45 fc	 mov	 eax, DWORD PTR __Idx$[ebp]
  00051	48		 dec	 eax
  00052	89 45 fc	 mov	 DWORD PTR __Idx$[ebp], eax
$LN4@Pop_heap_h:

; 6202 :         *(_First + _Hole) = _STD move(*(_First + _Idx));

  00055	6b 45 fc 0c	 imul	 eax, DWORD PTR __Idx$[ebp], 12
  00059	03 45 08	 add	 eax, DWORD PTR __First$[ebp]
; File C:\Program Files (x86)\Microsoft Visual Studio\2019\Community\VC\Tools\MSVC\14.28.29333\include\type_traits

; 1455 :     return static_cast<remove_reference_t<_Ty>&&>(_Arg);

  0005c	89 45 f4	 mov	 DWORD PTR $T3[ebp], eax
; File C:\Program Files (x86)\Microsoft Visual Studio\2019\Community\VC\Tools\MSVC\14.28.29333\include\algorithm

; 6202 :         *(_First + _Hole) = _STD move(*(_First + _Idx));

  0005f	6b 7d 0c 0c	 imul	 edi, DWORD PTR __Hole$[ebp], 12
  00063	03 7d 08	 add	 edi, DWORD PTR __First$[ebp]
  00066	8b 75 f4	 mov	 esi, DWORD PTR $T3[ebp]
  00069	a5		 movsd
  0006a	a5		 movsd
  0006b	a5		 movsd

; 6203 :         _Hole             = _Idx;

  0006c	8b 45 fc	 mov	 eax, DWORD PTR __Idx$[ebp]
  0006f	89 45 0c	 mov	 DWORD PTR __Hole$[ebp], eax

; 6204 :     }

  00072	eb a9		 jmp	 SHORT $LN2@Pop_heap_h
$LN3@Pop_heap_h:

; 6205 : 
; 6206 :     if (_Idx == _Max_sequence_non_leaf && _Bottom % 2 == 0) { // only child at bottom, move _Hole down to it

  00074	8b 45 fc	 mov	 eax, DWORD PTR __Idx$[ebp]
  00077	3b 45 f8	 cmp	 eax, DWORD PTR __Max_sequence_non_leaf$[ebp]
  0007a	75 34		 jne	 SHORT $LN5@Pop_heap_h
  0007c	8b 45 10	 mov	 eax, DWORD PTR __Bottom$[ebp]
  0007f	25 01 00 00 80	 and	 eax, -2147483647	; 80000001H
  00084	79 05		 jns	 SHORT $LN27@Pop_heap_h
  00086	48		 dec	 eax
  00087	83 c8 fe	 or	 eax, -2			; fffffffeH
  0008a	40		 inc	 eax
$LN27@Pop_heap_h:
  0008b	85 c0		 test	 eax, eax
  0008d	75 21		 jne	 SHORT $LN5@Pop_heap_h

; 6207 :         *(_First + _Hole) = _STD move(*(_First + (_Bottom - 1)));

  0008f	8b 45 10	 mov	 eax, DWORD PTR __Bottom$[ebp]
  00092	48		 dec	 eax
  00093	6b c0 0c	 imul	 eax, eax, 12
  00096	03 45 08	 add	 eax, DWORD PTR __First$[ebp]
; File C:\Program Files (x86)\Microsoft Visual Studio\2019\Community\VC\Tools\MSVC\14.28.29333\include\type_traits

; 1455 :     return static_cast<remove_reference_t<_Ty>&&>(_Arg);

  00099	89 45 f0	 mov	 DWORD PTR $T2[ebp], eax
; File C:\Program Files (x86)\Microsoft Visual Studio\2019\Community\VC\Tools\MSVC\14.28.29333\include\algorithm

; 6207 :         *(_First + _Hole) = _STD move(*(_First + (_Bottom - 1)));

  0009c	6b 7d 0c 0c	 imul	 edi, DWORD PTR __Hole$[ebp], 12
  000a0	03 7d 08	 add	 edi, DWORD PTR __First$[ebp]
  000a3	8b 75 f0	 mov	 esi, DWORD PTR $T2[ebp]
  000a6	a5		 movsd
  000a7	a5		 movsd
  000a8	a5		 movsd

; 6208 :         _Hole             = _Bottom - 1;

  000a9	8b 45 10	 mov	 eax, DWORD PTR __Bottom$[ebp]
  000ac	48		 dec	 eax
  000ad	89 45 0c	 mov	 DWORD PTR __Hole$[ebp], eax
$LN5@Pop_heap_h:
; File C:\Program Files (x86)\Microsoft Visual Studio\2019\Community\VC\Tools\MSVC\14.28.29333\include\type_traits

; 1443 :     return static_cast<_Ty&&>(_Arg);

  000b0	8b 45 14	 mov	 eax, DWORD PTR __Val$[ebp]
  000b3	89 45 ec	 mov	 DWORD PTR $T1[ebp], eax
; File C:\Program Files (x86)\Microsoft Visual Studio\2019\Community\VC\Tools\MSVC\14.28.29333\include\algorithm

; 6211 :     _Push_heap_by_index(_First, _Hole, _Top, _STD forward<_Ty>(_Val), _Pred);

  000b6	ff 75 18	 push	 DWORD PTR __Pred$[ebp]
  000b9	ff 75 ec	 push	 DWORD PTR $T1[ebp]
  000bc	ff 75 e8	 push	 DWORD PTR __Top$[ebp]
  000bf	ff 75 0c	 push	 DWORD PTR __Hole$[ebp]
  000c2	ff 75 08	 push	 DWORD PTR __First$[ebp]
  000c5	e8 00 00 00 00	 call	 ??$_Push_heap_by_index@PAUSDumpData@@U1@P6A_NABU1@0@Z@std@@YAXPAUSDumpData@@HH$$QAU1@P6A_NABU1@2@Z@Z ; std::_Push_heap_by_index<SDumpData *,SDumpData,bool (__cdecl*)(SDumpData const &,SDumpData const &)>
  000ca	83 c4 14	 add	 esp, 20			; 00000014H

; 6212 : }

  000cd	5f		 pop	 edi
  000ce	5e		 pop	 esi
  000cf	c9		 leave
  000d0	c3		 ret	 0
??$_Pop_heap_hole_by_index@PAUSDumpData@@U1@P6A_NABU1@0@Z@std@@YAXPAUSDumpData@@HH$$QAU1@P6A_NABU1@2@Z@Z ENDP ; std::_Pop_heap_hole_by_index<SDumpData *,SDumpData,bool (__cdecl*)(SDumpData const &,SDumpData const &)>
_TEXT	ENDS
; Function compile flags: /Odspy
; File C:\Program Files (x86)\Microsoft Visual Studio\2019\Community\VC\Tools\MSVC\14.28.29333\include\xmemory
; File C:\Program Files (x86)\Microsoft Visual Studio\2019\Community\VC\Tools\MSVC\14.28.29333\include\xstddef
; File C:\Program Files (x86)\Microsoft Visual Studio\2019\Community\VC\Tools\MSVC\14.28.29333\include\vcruntime_new.h
; File C:\Program Files (x86)\Microsoft Visual Studio\2019\Community\VC\Tools\MSVC\14.28.29333\include\type_traits
; File C:\Program Files (x86)\Microsoft Visual Studio\2019\Community\VC\Tools\MSVC\14.28.29333\include\xmemory
;	COMDAT ??$_Construct_in_place@PAU?$_Tree_node@U?$pair@$$CBJPAVCResource@@@std@@PAX@std@@AAPAU12@@std@@YAXAAPAU?$_Tree_node@U?$pair@$$CBJPAVCResource@@@std@@PAX@0@0@Z
_TEXT	SEGMENT
$T1 = -12						; size = 4
$T2 = -8						; size = 4
$T3 = -4						; size = 4
__Obj$ = 8						; size = 4
_<_Args_0>$ = 12					; size = 4
??$_Construct_in_place@PAU?$_Tree_node@U?$pair@$$CBJPAVCResource@@@std@@PAX@std@@AAPAU12@@std@@YAXAAPAU?$_Tree_node@U?$pair@$$CBJPAVCResource@@@std@@PAX@0@0@Z PROC ; std::_Construct_in_place<std::_Tree_node<std::pair<long const ,CResource *>,void *> *,std::_Tree_node<std::pair<long const ,CResource *>,void *> * &>, COMDAT

; 228  : void _Construct_in_place(_Ty& _Obj, _Types&&... _Args) noexcept(is_nothrow_constructible_v<_Ty, _Types...>) {

  00000	55		 push	 ebp
  00001	8b ec		 mov	 ebp, esp
  00003	83 ec 0c	 sub	 esp, 12			; 0000000cH
; File C:\Program Files (x86)\Microsoft Visual Studio\2019\Community\VC\Tools\MSVC\14.28.29333\include\xstddef

; 275  :     return __builtin_addressof(_Val);

  00006	8b 45 08	 mov	 eax, DWORD PTR __Obj$[ebp]
  00009	89 45 fc	 mov	 DWORD PTR $T3[ebp], eax
; File C:\Program Files (x86)\Microsoft Visual Studio\2019\Community\VC\Tools\MSVC\14.28.29333\include\vcruntime_new.h

; 169  :         return _Where;

  0000c	8b 45 fc	 mov	 eax, DWORD PTR $T3[ebp]
  0000f	89 45 f8	 mov	 DWORD PTR $T2[ebp], eax
; File C:\Program Files (x86)\Microsoft Visual Studio\2019\Community\VC\Tools\MSVC\14.28.29333\include\type_traits

; 1443 :     return static_cast<_Ty&&>(_Arg);

  00012	8b 45 0c	 mov	 eax, DWORD PTR _<_Args_0>$[ebp]
  00015	89 45 f4	 mov	 DWORD PTR $T1[ebp], eax
; File C:\Program Files (x86)\Microsoft Visual Studio\2019\Community\VC\Tools\MSVC\14.28.29333\include\xmemory

; 229  :     ::new (const_cast<void*>(static_cast<const volatile void*>(_STD addressof(_Obj))))

  00018	8b 45 f8	 mov	 eax, DWORD PTR $T2[ebp]
  0001b	8b 4d f4	 mov	 ecx, DWORD PTR $T1[ebp]
  0001e	8b 09		 mov	 ecx, DWORD PTR [ecx]
  00020	89 08		 mov	 DWORD PTR [eax], ecx

; 230  :         _Ty(_STD forward<_Types>(_Args)...);
; 231  : }

  00022	c9		 leave
  00023	c3		 ret	 0
??$_Construct_in_place@PAU?$_Tree_node@U?$pair@$$CBJPAVCResource@@@std@@PAX@std@@AAPAU12@@std@@YAXAAPAU?$_Tree_node@U?$pair@$$CBJPAVCResource@@@std@@PAX@0@0@Z ENDP ; std::_Construct_in_place<std::_Tree_node<std::pair<long const ,CResource *>,void *> *,std::_Tree_node<std::pair<long const ,CResource *>,void *> * &>
_TEXT	ENDS
; Function compile flags: /Odspy
; File C:\Program Files (x86)\Microsoft Visual Studio\2019\Community\VC\Tools\MSVC\14.28.29333\include\xmemory
; File C:\Program Files (x86)\Microsoft Visual Studio\2019\Community\VC\Tools\MSVC\14.28.29333\include\xstddef
; File C:\Program Files (x86)\Microsoft Visual Studio\2019\Community\VC\Tools\MSVC\14.28.29333\include\vcruntime_new.h
; File C:\Program Files (x86)\Microsoft Visual Studio\2019\Community\VC\Tools\MSVC\14.28.29333\include\type_traits
; File C:\Program Files (x86)\Microsoft Visual Studio\2019\Community\VC\Tools\MSVC\14.28.29333\include\xmemory
;	COMDAT ??$_Construct_in_place@PAU?$_Tree_node@U?$pair@$$CBKV?$basic_string@DU?$char_traits@D@std@@V?$allocator@D@2@@std@@@std@@PAX@std@@AAPAU12@@std@@YAXAAPAU?$_Tree_node@U?$pair@$$CBKV?$basic_string@DU?$char_traits@D@std@@V?$allocator@D@2@@std@@@std@@PAX@0@0@Z
_TEXT	SEGMENT
$T1 = -12						; size = 4
$T2 = -8						; size = 4
$T3 = -4						; size = 4
__Obj$ = 8						; size = 4
_<_Args_0>$ = 12					; size = 4
??$_Construct_in_place@PAU?$_Tree_node@U?$pair@$$CBKV?$basic_string@DU?$char_traits@D@std@@V?$allocator@D@2@@std@@@std@@PAX@std@@AAPAU12@@std@@YAXAAPAU?$_Tree_node@U?$pair@$$CBKV?$basic_string@DU?$char_traits@D@std@@V?$allocator@D@2@@std@@@std@@PAX@0@0@Z PROC ; std::_Construct_in_place<std::_Tree_node<std::pair<unsigned long const ,std::basic_string<char,std::char_traits<char>,std::allocator<char> > >,void *> *,std::_Tree_node<std::pair<unsigned long const ,std::basic_string<char,std::char_traits<char>,std::allocator<char> > >,void *> * &>, COMDAT

; 228  : void _Construct_in_place(_Ty& _Obj, _Types&&... _Args) noexcept(is_nothrow_constructible_v<_Ty, _Types...>) {

  00000	55		 push	 ebp
  00001	8b ec		 mov	 ebp, esp
  00003	83 ec 0c	 sub	 esp, 12			; 0000000cH
; File C:\Program Files (x86)\Microsoft Visual Studio\2019\Community\VC\Tools\MSVC\14.28.29333\include\xstddef

; 275  :     return __builtin_addressof(_Val);

  00006	8b 45 08	 mov	 eax, DWORD PTR __Obj$[ebp]
  00009	89 45 fc	 mov	 DWORD PTR $T3[ebp], eax
; File C:\Program Files (x86)\Microsoft Visual Studio\2019\Community\VC\Tools\MSVC\14.28.29333\include\vcruntime_new.h

; 169  :         return _Where;

  0000c	8b 45 fc	 mov	 eax, DWORD PTR $T3[ebp]
  0000f	89 45 f8	 mov	 DWORD PTR $T2[ebp], eax
; File C:\Program Files (x86)\Microsoft Visual Studio\2019\Community\VC\Tools\MSVC\14.28.29333\include\type_traits

; 1443 :     return static_cast<_Ty&&>(_Arg);

  00012	8b 45 0c	 mov	 eax, DWORD PTR _<_Args_0>$[ebp]
  00015	89 45 f4	 mov	 DWORD PTR $T1[ebp], eax
; File C:\Program Files (x86)\Microsoft Visual Studio\2019\Community\VC\Tools\MSVC\14.28.29333\include\xmemory

; 229  :     ::new (const_cast<void*>(static_cast<const volatile void*>(_STD addressof(_Obj))))

  00018	8b 45 f8	 mov	 eax, DWORD PTR $T2[ebp]
  0001b	8b 4d f4	 mov	 ecx, DWORD PTR $T1[ebp]
  0001e	8b 09		 mov	 ecx, DWORD PTR [ecx]
  00020	89 08		 mov	 DWORD PTR [eax], ecx

; 230  :         _Ty(_STD forward<_Types>(_Args)...);
; 231  : }

  00022	c9		 leave
  00023	c3		 ret	 0
??$_Construct_in_place@PAU?$_Tree_node@U?$pair@$$CBKV?$basic_string@DU?$char_traits@D@std@@V?$allocator@D@2@@std@@@std@@PAX@std@@AAPAU12@@std@@YAXAAPAU?$_Tree_node@U?$pair@$$CBKV?$basic_string@DU?$char_traits@D@std@@V?$allocator@D@2@@std@@@std@@PAX@0@0@Z ENDP ; std::_Construct_in_place<std::_Tree_node<std::pair<unsigned long const ,std::basic_string<char,std::char_traits<char>,std::allocator<char> > >,void *> *,std::_Tree_node<std::pair<unsigned long const ,std::basic_string<char,std::char_traits<char>,std::allocator<char> > >,void *> * &>
_TEXT	ENDS
; Function compile flags: /Odspy
; File C:\Program Files (x86)\Microsoft Visual Studio\2019\Community\VC\Tools\MSVC\14.28.29333\include\xmemory
; File C:\Program Files (x86)\Microsoft Visual Studio\2019\Community\VC\Tools\MSVC\14.28.29333\include\xstddef
; File C:\Program Files (x86)\Microsoft Visual Studio\2019\Community\VC\Tools\MSVC\14.28.29333\include\vcruntime_new.h
; File C:\Program Files (x86)\Microsoft Visual Studio\2019\Community\VC\Tools\MSVC\14.28.29333\include\type_traits
; File C:\Program Files (x86)\Microsoft Visual Studio\2019\Community\VC\Tools\MSVC\14.28.29333\include\xmemory
;	COMDAT ??$_Construct_in_place@PAU?$_Tree_node@U?$pair@$$CBKPAVCResource@@@std@@PAX@std@@AAPAU12@@std@@YAXAAPAU?$_Tree_node@U?$pair@$$CBKPAVCResource@@@std@@PAX@0@0@Z
_TEXT	SEGMENT
$T1 = -12						; size = 4
$T2 = -8						; size = 4
$T3 = -4						; size = 4
__Obj$ = 8						; size = 4
_<_Args_0>$ = 12					; size = 4
??$_Construct_in_place@PAU?$_Tree_node@U?$pair@$$CBKPAVCResource@@@std@@PAX@std@@AAPAU12@@std@@YAXAAPAU?$_Tree_node@U?$pair@$$CBKPAVCResource@@@std@@PAX@0@0@Z PROC ; std::_Construct_in_place<std::_Tree_node<std::pair<unsigned long const ,CResource *>,void *> *,std::_Tree_node<std::pair<unsigned long const ,CResource *>,void *> * &>, COMDAT

; 228  : void _Construct_in_place(_Ty& _Obj, _Types&&... _Args) noexcept(is_nothrow_constructible_v<_Ty, _Types...>) {

  00000	55		 push	 ebp
  00001	8b ec		 mov	 ebp, esp
  00003	83 ec 0c	 sub	 esp, 12			; 0000000cH
; File C:\Program Files (x86)\Microsoft Visual Studio\2019\Community\VC\Tools\MSVC\14.28.29333\include\xstddef

; 275  :     return __builtin_addressof(_Val);

  00006	8b 45 08	 mov	 eax, DWORD PTR __Obj$[ebp]
  00009	89 45 fc	 mov	 DWORD PTR $T3[ebp], eax
; File C:\Program Files (x86)\Microsoft Visual Studio\2019\Community\VC\Tools\MSVC\14.28.29333\include\vcruntime_new.h

; 169  :         return _Where;

  0000c	8b 45 fc	 mov	 eax, DWORD PTR $T3[ebp]
  0000f	89 45 f8	 mov	 DWORD PTR $T2[ebp], eax
; File C:\Program Files (x86)\Microsoft Visual Studio\2019\Community\VC\Tools\MSVC\14.28.29333\include\type_traits

; 1443 :     return static_cast<_Ty&&>(_Arg);

  00012	8b 45 0c	 mov	 eax, DWORD PTR _<_Args_0>$[ebp]
  00015	89 45 f4	 mov	 DWORD PTR $T1[ebp], eax
; File C:\Program Files (x86)\Microsoft Visual Studio\2019\Community\VC\Tools\MSVC\14.28.29333\include\xmemory

; 229  :     ::new (const_cast<void*>(static_cast<const volatile void*>(_STD addressof(_Obj))))

  00018	8b 45 f8	 mov	 eax, DWORD PTR $T2[ebp]
  0001b	8b 4d f4	 mov	 ecx, DWORD PTR $T1[ebp]
  0001e	8b 09		 mov	 ecx, DWORD PTR [ecx]
  00020	89 08		 mov	 DWORD PTR [eax], ecx

; 230  :         _Ty(_STD forward<_Types>(_Args)...);
; 231  : }

  00022	c9		 leave
  00023	c3		 ret	 0
??$_Construct_in_place@PAU?$_Tree_node@U?$pair@$$CBKPAVCResource@@@std@@PAX@std@@AAPAU12@@std@@YAXAAPAU?$_Tree_node@U?$pair@$$CBKPAVCResource@@@std@@PAX@0@0@Z ENDP ; std::_Construct_in_place<std::_Tree_node<std::pair<unsigned long const ,CResource *>,void *> *,std::_Tree_node<std::pair<unsigned long const ,CResource *>,void *> * &>
_TEXT	ENDS
; Function compile flags: /Odspy
; File C:\Program Files (x86)\Microsoft Visual Studio\2019\Community\VC\Tools\MSVC\14.28.29333\include\xstring
;	COMDAT ??$?MDU?$char_traits@D@std@@V?$allocator@D@1@@std@@YA_NABV?$basic_string@DU?$char_traits@D@std@@V?$allocator@D@2@@0@0@Z
_TEXT	SEGMENT
tv68 = -4						; size = 4
__Left$ = 8						; size = 4
__Right$ = 12						; size = 4
??$?MDU?$char_traits@D@std@@V?$allocator@D@1@@std@@YA_NABV?$basic_string@DU?$char_traits@D@std@@V?$allocator@D@2@@0@0@Z PROC ; std::operator<<char,std::char_traits<char>,std::allocator<char> >, COMDAT

; 4586 :     const basic_string<_Elem, _Traits, _Alloc>& _Left, const basic_string<_Elem, _Traits, _Alloc>& _Right) noexcept {

  00000	55		 push	 ebp
  00001	8b ec		 mov	 ebp, esp
  00003	51		 push	 ecx

; 4587 :     return _Left.compare(_Right) < 0;

  00004	ff 75 0c	 push	 DWORD PTR __Right$[ebp]
  00007	8b 4d 08	 mov	 ecx, DWORD PTR __Left$[ebp]
  0000a	e8 00 00 00 00	 call	 ?compare@?$basic_string@DU?$char_traits@D@std@@V?$allocator@D@2@@std@@QBEHABV12@@Z ; std::basic_string<char,std::char_traits<char>,std::allocator<char> >::compare
  0000f	85 c0		 test	 eax, eax
  00011	7d 09		 jge	 SHORT $LN3@operator
  00013	c7 45 fc 01 00
	00 00		 mov	 DWORD PTR tv68[ebp], 1
  0001a	eb 04		 jmp	 SHORT $LN4@operator
$LN3@operator:
  0001c	83 65 fc 00	 and	 DWORD PTR tv68[ebp], 0
$LN4@operator:
  00020	8a 45 fc	 mov	 al, BYTE PTR tv68[ebp]

; 4588 : }

  00023	c9		 leave
  00024	c3		 ret	 0
??$?MDU?$char_traits@D@std@@V?$allocator@D@1@@std@@YA_NABV?$basic_string@DU?$char_traits@D@std@@V?$allocator@D@2@@0@0@Z ENDP ; std::operator<<char,std::char_traits<char>,std::allocator<char> >
_TEXT	ENDS
; Function compile flags: /Odspy
; File C:\Program Files (x86)\Microsoft Visual Studio\2019\Community\VC\Tools\MSVC\14.28.29333\include\xutility
;	COMDAT ??$_Copy_memmove@PAUSDumpData@@PAU1@@std@@YAPAUSDumpData@@PAU1@00@Z
_TEXT	SEGMENT
__Last_ch$ = -16					; size = 4
__Count$ = -12						; size = 4
__Dest_ch$ = -8						; size = 4
__First_ch$ = -4					; size = 4
__First$ = 8						; size = 4
__Last$ = 12						; size = 4
__Dest$ = 16						; size = 4
??$_Copy_memmove@PAUSDumpData@@PAU1@@std@@YAPAUSDumpData@@PAU1@00@Z PROC ; std::_Copy_memmove<SDumpData *,SDumpData *>, COMDAT

; 4360 : _OutIt _Copy_memmove(_InIt _First, _InIt _Last, _OutIt _Dest) {

  00000	55		 push	 ebp
  00001	8b ec		 mov	 ebp, esp
  00003	83 ec 10	 sub	 esp, 16			; 00000010H

; 4361 :     const char* const _First_ch = const_cast<const char*>(reinterpret_cast<const volatile char*>(_First));

  00006	8b 45 08	 mov	 eax, DWORD PTR __First$[ebp]
  00009	89 45 fc	 mov	 DWORD PTR __First_ch$[ebp], eax

; 4362 :     const char* const _Last_ch  = const_cast<const char*>(reinterpret_cast<const volatile char*>(_Last));

  0000c	8b 45 0c	 mov	 eax, DWORD PTR __Last$[ebp]
  0000f	89 45 f0	 mov	 DWORD PTR __Last_ch$[ebp], eax

; 4363 :     char* const _Dest_ch        = const_cast<char*>(reinterpret_cast<volatile char*>(_Dest));

  00012	8b 45 10	 mov	 eax, DWORD PTR __Dest$[ebp]
  00015	89 45 f8	 mov	 DWORD PTR __Dest_ch$[ebp], eax

; 4364 :     const auto _Count           = static_cast<size_t>(_Last_ch - _First_ch);

  00018	8b 45 f0	 mov	 eax, DWORD PTR __Last_ch$[ebp]
  0001b	2b 45 fc	 sub	 eax, DWORD PTR __First_ch$[ebp]
  0001e	89 45 f4	 mov	 DWORD PTR __Count$[ebp], eax

; 4365 :     _CSTD memmove(_Dest_ch, _First_ch, _Count);

  00021	ff 75 f4	 push	 DWORD PTR __Count$[ebp]
  00024	ff 75 fc	 push	 DWORD PTR __First_ch$[ebp]
  00027	ff 75 f8	 push	 DWORD PTR __Dest_ch$[ebp]
  0002a	e8 00 00 00 00	 call	 _memmove
  0002f	83 c4 0c	 add	 esp, 12			; 0000000cH

; 4366 :     return reinterpret_cast<_OutIt>(_Dest_ch + _Count);

  00032	8b 45 f8	 mov	 eax, DWORD PTR __Dest_ch$[ebp]
  00035	03 45 f4	 add	 eax, DWORD PTR __Count$[ebp]

; 4367 : }

  00038	c9		 leave
  00039	c3		 ret	 0
??$_Copy_memmove@PAUSDumpData@@PAU1@@std@@YAPAUSDumpData@@PAU1@00@Z ENDP ; std::_Copy_memmove<SDumpData *,SDumpData *>
_TEXT	ENDS
; Function compile flags: /Odspy
; File C:\Program Files (x86)\Microsoft Visual Studio\2019\Community\VC\Tools\MSVC\14.28.29333\include\xmemory
;	COMDAT ??$_Destroy_in_place@PAU?$_Tree_node@U?$pair@$$CBKPAVCResource@@@std@@PAX@std@@@std@@YAXAAPAU?$_Tree_node@U?$pair@$$CBKPAVCResource@@@std@@PAX@0@@Z
_TEXT	SEGMENT
__Obj$ = 8						; size = 4
??$_Destroy_in_place@PAU?$_Tree_node@U?$pair@$$CBKPAVCResource@@@std@@PAX@std@@@std@@YAXAAPAU?$_Tree_node@U?$pair@$$CBKPAVCResource@@@std@@PAX@0@@Z PROC ; std::_Destroy_in_place<std::_Tree_node<std::pair<unsigned long const ,CResource *>,void *> *>, COMDAT

; 270  : /* _CONSTEXPR20_DYNALLOC */ void _Destroy_in_place(_Ty& _Obj) noexcept {

  00000	55		 push	 ebp
  00001	8b ec		 mov	 ebp, esp

; 271  : #if _HAS_IF_CONSTEXPR
; 272  :     if constexpr (is_array_v<_Ty>) {
; 273  :         _Destroy_range(_Obj, _Obj + extent_v<_Ty>);
; 274  :     } else
; 275  : #endif // _HAS_IF_CONSTEXPR
; 276  :     {
; 277  :         _Obj.~_Ty();
; 278  :     }
; 279  : }

  00003	5d		 pop	 ebp
  00004	c3		 ret	 0
??$_Destroy_in_place@PAU?$_Tree_node@U?$pair@$$CBKPAVCResource@@@std@@PAX@std@@@std@@YAXAAPAU?$_Tree_node@U?$pair@$$CBKPAVCResource@@@std@@PAX@0@@Z ENDP ; std::_Destroy_in_place<std::_Tree_node<std::pair<unsigned long const ,CResource *>,void *> *>
_TEXT	ENDS
; Function compile flags: /Odspy
; File C:\Program Files (x86)\Microsoft Visual Studio\2019\Community\VC\Tools\MSVC\14.28.29333\include\xtree
; File C:\Program Files (x86)\Microsoft Visual Studio\2019\Community\VC\Tools\MSVC\14.28.29333\include\xstddef
; File C:\Program Files (x86)\Microsoft Visual Studio\2019\Community\VC\Tools\MSVC\14.28.29333\include\xstring
; File C:\Program Files (x86)\Microsoft Visual Studio\2019\Community\VC\Tools\MSVC\14.28.29333\include\xtree
;	COMDAT ??$_Freenode@V?$allocator@U?$_Tree_node@U?$pair@$$CBV?$basic_string@DU?$char_traits@D@std@@V?$allocator@D@2@@std@@P6APAVCResource@@PBD@Z@std@@PAX@std@@@std@@@?$_Tree_node@U?$pair@$$CBV?$basic_string@DU?$char_traits@D@std@@V?$allocator@D@2@@std@@P6APAVCResource@@PBD@Z@std@@PAX@std@@SAXAAV?$allocator@U?$_Tree_node@U?$pair@$$CBV?$basic_string@DU?$char_traits@D@std@@V?$allocator@D@2@@std@@P6APAVCResource@@PBD@Z@std@@PAX@std@@@1@PAU01@@Z
_TEXT	SEGMENT
$T1 = -4						; size = 4
__Al$ = 8						; size = 4
__Ptr$ = 12						; size = 4
??$_Freenode@V?$allocator@U?$_Tree_node@U?$pair@$$CBV?$basic_string@DU?$char_traits@D@std@@V?$allocator@D@2@@std@@P6APAVCResource@@PBD@Z@std@@PAX@std@@@std@@@?$_Tree_node@U?$pair@$$CBV?$basic_string@DU?$char_traits@D@std@@V?$allocator@D@2@@std@@P6APAVCResource@@PBD@Z@std@@PAX@std@@SAXAAV?$allocator@U?$_Tree_node@U?$pair@$$CBV?$basic_string@DU?$char_traits@D@std@@V?$allocator@D@2@@std@@P6APAVCResource@@PBD@Z@std@@PAX@std@@@1@PAU01@@Z PROC ; std::_Tree_node<std::pair<std::basic_string<char,std::char_traits<char>,std::allocator<char> > const ,CResource * (__cdecl*)(char const *)>,void *>::_Freenode<std::allocator<std::_Tree_node<std::pair<std::basic_string<char,std::char_traits<char>,std::allocator<char> > const ,CResource * (__cdecl*)(char const *)>,void *> > >, COMDAT

; 377  :     static void _Freenode(_Alloc& _Al, _Nodeptr _Ptr) noexcept {

  00000	55		 push	 ebp
  00001	8b ec		 mov	 ebp, esp
  00003	51		 push	 ecx

; 378  :         static_assert(is_same_v<typename _Alloc::value_type, _Tree_node>, "Bad _Freenode call");
; 379  :         allocator_traits<_Alloc>::destroy(_Al, _STD addressof(_Ptr->_Myval));

  00004	8b 45 0c	 mov	 eax, DWORD PTR __Ptr$[ebp]
  00007	83 c0 10	 add	 eax, 16			; 00000010H
; File C:\Program Files (x86)\Microsoft Visual Studio\2019\Community\VC\Tools\MSVC\14.28.29333\include\xstddef

; 275  :     return __builtin_addressof(_Val);

  0000a	89 45 fc	 mov	 DWORD PTR $T1[ebp], eax
; File C:\Program Files (x86)\Microsoft Visual Studio\2019\Community\VC\Tools\MSVC\14.28.29333\include\xstring

; 2801 :         _Tidy_deallocate();

  0000d	8b 4d fc	 mov	 ecx, DWORD PTR $T1[ebp]
  00010	e8 00 00 00 00	 call	 ?_Tidy_deallocate@?$basic_string@DU?$char_traits@D@std@@V?$allocator@D@2@@std@@AAEXXZ ; std::basic_string<char,std::char_traits<char>,std::allocator<char> >::_Tidy_deallocate
  00015	33 c0		 xor	 eax, eax
  00017	83 e0 01	 and	 eax, 1
  0001a	74 0c		 je	 SHORT $LN6@Freenode
  0001c	6a 1c		 push	 28			; 0000001cH
  0001e	ff 75 fc	 push	 DWORD PTR $T1[ebp]
  00021	e8 00 00 00 00	 call	 ??3@YAXPAXI@Z		; operator delete
  00026	59		 pop	 ecx
  00027	59		 pop	 ecx
$LN6@Freenode:
; File C:\Program Files (x86)\Microsoft Visual Studio\2019\Community\VC\Tools\MSVC\14.28.29333\include\xtree

; 380  :         _Freenode0(_Al, _Ptr);

  00028	ff 75 0c	 push	 DWORD PTR __Ptr$[ebp]
  0002b	ff 75 08	 push	 DWORD PTR __Al$[ebp]
  0002e	e8 00 00 00 00	 call	 ??$_Freenode0@V?$allocator@U?$_Tree_node@U?$pair@$$CBV?$basic_string@DU?$char_traits@D@std@@V?$allocator@D@2@@std@@P6APAVCResource@@PBD@Z@std@@PAX@std@@@std@@@?$_Tree_node@U?$pair@$$CBV?$basic_string@DU?$char_traits@D@std@@V?$allocator@D@2@@std@@P6APAVCResource@@PBD@Z@std@@PAX@std@@SAXAAV?$allocator@U?$_Tree_node@U?$pair@$$CBV?$basic_string@DU?$char_traits@D@std@@V?$allocator@D@2@@std@@P6APAVCResource@@PBD@Z@std@@PAX@std@@@1@PAU01@@Z ; std::_Tree_node<std::pair<std::basic_string<char,std::char_traits<char>,std::allocator<char> > const ,CResource * (__cdecl*)(char const *)>,void *>::_Freenode0<std::allocator<std::_Tree_node<std::pair<std::basic_string<char,std::char_traits<char>,std::allocator<char> > const ,CResource * (__cdecl*)(char const *)>,void *> > >
  00033	59		 pop	 ecx
  00034	59		 pop	 ecx

; 381  :     }

  00035	c9		 leave
  00036	c3		 ret	 0
??$_Freenode@V?$allocator@U?$_Tree_node@U?$pair@$$CBV?$basic_string@DU?$char_traits@D@std@@V?$allocator@D@2@@std@@P6APAVCResource@@PBD@Z@std@@PAX@std@@@std@@@?$_Tree_node@U?$pair@$$CBV?$basic_string@DU?$char_traits@D@std@@V?$allocator@D@2@@std@@P6APAVCResource@@PBD@Z@std@@PAX@std@@SAXAAV?$allocator@U?$_Tree_node@U?$pair@$$CBV?$basic_string@DU?$char_traits@D@std@@V?$allocator@D@2@@std@@P6APAVCResource@@PBD@Z@std@@PAX@std@@@1@PAU01@@Z ENDP ; std::_Tree_node<std::pair<std::basic_string<char,std::char_traits<char>,std::allocator<char> > const ,CResource * (__cdecl*)(char const *)>,void *>::_Freenode<std::allocator<std::_Tree_node<std::pair<std::basic_string<char,std::char_traits<char>,std::allocator<char> > const ,CResource * (__cdecl*)(char const *)>,void *> > >
_TEXT	ENDS
; Function compile flags: /Odspy
; File C:\Program Files (x86)\Microsoft Visual Studio\2019\Community\VC\Tools\MSVC\14.28.29333\include\xmemory
; File C:\Program Files (x86)\Microsoft Visual Studio\2019\Community\VC\Tools\MSVC\14.28.29333\include\xstddef
; File C:\Program Files (x86)\Microsoft Visual Studio\2019\Community\VC\Tools\MSVC\14.28.29333\include\vcruntime_new.h
; File C:\Program Files (x86)\Microsoft Visual Studio\2019\Community\VC\Tools\MSVC\14.28.29333\include\type_traits
; File C:\Program Files (x86)\Microsoft Visual Studio\2019\Community\VC\Tools\MSVC\14.28.29333\include\xmemory
;	COMDAT ??$_Construct_in_place@PAU?$_Tree_node@U?$pair@$$CBV?$basic_string@DU?$char_traits@D@std@@V?$allocator@D@2@@std@@P6APAVCResource@@PBD@Z@std@@PAX@std@@AAPAU12@@std@@YAXAAPAU?$_Tree_node@U?$pair@$$CBV?$basic_string@DU?$char_traits@D@std@@V?$allocator@D@2@@std@@P6APAVCResource@@PBD@Z@std@@PAX@0@0@Z
_TEXT	SEGMENT
$T1 = -12						; size = 4
$T2 = -8						; size = 4
$T3 = -4						; size = 4
__Obj$ = 8						; size = 4
_<_Args_0>$ = 12					; size = 4
??$_Construct_in_place@PAU?$_Tree_node@U?$pair@$$CBV?$basic_string@DU?$char_traits@D@std@@V?$allocator@D@2@@std@@P6APAVCResource@@PBD@Z@std@@PAX@std@@AAPAU12@@std@@YAXAAPAU?$_Tree_node@U?$pair@$$CBV?$basic_string@DU?$char_traits@D@std@@V?$allocator@D@2@@std@@P6APAVCResource@@PBD@Z@std@@PAX@0@0@Z PROC ; std::_Construct_in_place<std::_Tree_node<std::pair<std::basic_string<char,std::char_traits<char>,std::allocator<char> > const ,CResource * (__cdecl*)(char const *)>,void *> *,std::_Tree_node<std::pair<std::basic_string<char,std::char_traits<char>,std::allocator<char> > const ,CResource * (__cdecl*)(char const *)>,void *> * &>, COMDAT

; 228  : void _Construct_in_place(_Ty& _Obj, _Types&&... _Args) noexcept(is_nothrow_constructible_v<_Ty, _Types...>) {

  00000	55		 push	 ebp
  00001	8b ec		 mov	 ebp, esp
  00003	83 ec 0c	 sub	 esp, 12			; 0000000cH
; File C:\Program Files (x86)\Microsoft Visual Studio\2019\Community\VC\Tools\MSVC\14.28.29333\include\xstddef

; 275  :     return __builtin_addressof(_Val);

  00006	8b 45 08	 mov	 eax, DWORD PTR __Obj$[ebp]
  00009	89 45 fc	 mov	 DWORD PTR $T3[ebp], eax
; File C:\Program Files (x86)\Microsoft Visual Studio\2019\Community\VC\Tools\MSVC\14.28.29333\include\vcruntime_new.h

; 169  :         return _Where;

  0000c	8b 45 fc	 mov	 eax, DWORD PTR $T3[ebp]
  0000f	89 45 f8	 mov	 DWORD PTR $T2[ebp], eax
; File C:\Program Files (x86)\Microsoft Visual Studio\2019\Community\VC\Tools\MSVC\14.28.29333\include\type_traits

; 1443 :     return static_cast<_Ty&&>(_Arg);

  00012	8b 45 0c	 mov	 eax, DWORD PTR _<_Args_0>$[ebp]
  00015	89 45 f4	 mov	 DWORD PTR $T1[ebp], eax
; File C:\Program Files (x86)\Microsoft Visual Studio\2019\Community\VC\Tools\MSVC\14.28.29333\include\xmemory

; 229  :     ::new (const_cast<void*>(static_cast<const volatile void*>(_STD addressof(_Obj))))

  00018	8b 45 f8	 mov	 eax, DWORD PTR $T2[ebp]
  0001b	8b 4d f4	 mov	 ecx, DWORD PTR $T1[ebp]
  0001e	8b 09		 mov	 ecx, DWORD PTR [ecx]
  00020	89 08		 mov	 DWORD PTR [eax], ecx

; 230  :         _Ty(_STD forward<_Types>(_Args)...);
; 231  : }

  00022	c9		 leave
  00023	c3		 ret	 0
??$_Construct_in_place@PAU?$_Tree_node@U?$pair@$$CBV?$basic_string@DU?$char_traits@D@std@@V?$allocator@D@2@@std@@P6APAVCResource@@PBD@Z@std@@PAX@std@@AAPAU12@@std@@YAXAAPAU?$_Tree_node@U?$pair@$$CBV?$basic_string@DU?$char_traits@D@std@@V?$allocator@D@2@@std@@P6APAVCResource@@PBD@Z@std@@PAX@0@0@Z ENDP ; std::_Construct_in_place<std::_Tree_node<std::pair<std::basic_string<char,std::char_traits<char>,std::allocator<char> > const ,CResource * (__cdecl*)(char const *)>,void *> *,std::_Tree_node<std::pair<std::basic_string<char,std::char_traits<char>,std::allocator<char> > const ,CResource * (__cdecl*)(char const *)>,void *> * &>
_TEXT	ENDS
; Function compile flags: /Odspy
; File C:\Program Files (x86)\Microsoft Visual Studio\2019\Community\VC\Tools\MSVC\14.28.29333\include\xmemory
; File C:\Program Files (x86)\Microsoft Visual Studio\2019\Community\VC\Tools\MSVC\14.28.29333\include\vcruntime_new.h
; File C:\Program Files (x86)\Microsoft Visual Studio\2019\Community\VC\Tools\MSVC\14.28.29333\include\type_traits
; File C:\Program Files (x86)\Microsoft Visual Studio\2019\Community\VC\Tools\MSVC\14.28.29333\include\xmemory
; File C:\Program Files (x86)\Microsoft Visual Studio\2019\Community\VC\Tools\MSVC\14.28.29333\include\type_traits
; File C:\Program Files (x86)\Microsoft Visual Studio\2019\Community\VC\Tools\MSVC\14.28.29333\include\xmemory
; File D:\Metin2 Server Files\mainline\SRC_2014\Metin2Client\EterLib\ResourceManager.cpp
; File C:\Program Files (x86)\Microsoft Visual Studio\2019\Community\VC\Tools\MSVC\14.28.29333\include\type_traits
; File C:\Program Files (x86)\Microsoft Visual Studio\2019\Community\VC\Tools\MSVC\14.28.29333\include\xmemory
;	COMDAT ??$construct@U?$pair@$$CBV?$basic_string@DU?$char_traits@D@std@@V?$allocator@D@2@@std@@P6APAVCResource@@PBD@Z@std@@ABUpiecewise_construct_t@2@V?$tuple@$$QAV?$basic_string@DU?$char_traits@D@std@@V?$allocator@D@2@@std@@@2@V?$tuple@$$V@2@@?$_Default_allocator_traits@V?$allocator@U?$_Tree_node@U?$pair@$$CBV?$basic_string@DU?$char_traits@D@std@@V?$allocator@D@2@@std@@P6APAVCResource@@PBD@Z@std@@PAX@std@@@std@@@std@@SAXAAV?$allocator@U?$_Tree_node@U?$pair@$$CBV?$basic_string@DU?$char_traits@D@std@@V?$allocator@D@2@@std@@P6APAVCResource@@PBD@Z@std@@PAX@std@@@1@QAU?$pair@$$CBV?$basic_string@DU?$char_traits@D@std@@V?$allocator@D@2@@std@@P6APAVCResource@@PBD@Z@1@ABUpiecewise_construct_t@1@$$QAV?$tuple@$$QAV?$basic_string@DU?$char_traits@D@std@@V?$allocator@D@2@@std@@@1@$$QAV?$tuple@$$V@1@@Z
_TEXT	SEGMENT
_this$ = -24						; size = 4
$T1 = -20						; size = 4
$T2 = -16						; size = 4
$T3 = -12						; size = 4
_this$ = -8						; size = 4
$T4 = -4						; size = 4
___formal$ = 8						; size = 4
__Ptr$ = 12						; size = 4
_<_Args_0>$ = 16					; size = 4
_<_Args_1>$ = 20					; size = 4
_<_Args_2>$ = 24					; size = 4
??$construct@U?$pair@$$CBV?$basic_string@DU?$char_traits@D@std@@V?$allocator@D@2@@std@@P6APAVCResource@@PBD@Z@std@@ABUpiecewise_construct_t@2@V?$tuple@$$QAV?$basic_string@DU?$char_traits@D@std@@V?$allocator@D@2@@std@@@2@V?$tuple@$$V@2@@?$_Default_allocator_traits@V?$allocator@U?$_Tree_node@U?$pair@$$CBV?$basic_string@DU?$char_traits@D@std@@V?$allocator@D@2@@std@@P6APAVCResource@@PBD@Z@std@@PAX@std@@@std@@@std@@SAXAAV?$allocator@U?$_Tree_node@U?$pair@$$CBV?$basic_string@DU?$char_traits@D@std@@V?$allocator@D@2@@std@@P6APAVCResource@@PBD@Z@std@@PAX@std@@@1@QAU?$pair@$$CBV?$basic_string@DU?$char_traits@D@std@@V?$allocator@D@2@@std@@P6APAVCResource@@PBD@Z@1@ABUpiecewise_construct_t@1@$$QAV?$tuple@$$QAV?$basic_string@DU?$char_traits@D@std@@V?$allocator@D@2@@std@@@1@$$QAV?$tuple@$$V@1@@Z PROC ; std::_Default_allocator_traits<std::allocator<std::_Tree_node<std::pair<std::basic_string<char,std::char_traits<char>,std::allocator<char> > const ,CResource * (__cdecl*)(char const *)>,void *> > >::construct<std::pair<std::basic_string<char,std::char_traits<char>,std::allocator<char> > const ,CResource * (__cdecl*)(char const *)>,std::piecewise_construct_t const &,std::tuple<std::basic_string<char,std::char_traits<char>,std::allocator<char> > &&>,std::tuple<> >, COMDAT

; 700  :     static void construct(_Alloc&, _Objty* const _Ptr, _Types&&... _Args) {

  00000	55		 push	 ebp
  00001	8b ec		 mov	 ebp, esp
  00003	83 ec 18	 sub	 esp, 24			; 00000018H
; File C:\Program Files (x86)\Microsoft Visual Studio\2019\Community\VC\Tools\MSVC\14.28.29333\include\vcruntime_new.h

; 169  :         return _Where;

  00006	8b 45 0c	 mov	 eax, DWORD PTR __Ptr$[ebp]
  00009	89 45 f0	 mov	 DWORD PTR $T2[ebp], eax
; File C:\Program Files (x86)\Microsoft Visual Studio\2019\Community\VC\Tools\MSVC\14.28.29333\include\type_traits

; 1443 :     return static_cast<_Ty&&>(_Arg);

  0000c	8b 45 18	 mov	 eax, DWORD PTR _<_Args_2>$[ebp]
  0000f	89 45 ec	 mov	 DWORD PTR $T1[ebp], eax
; File C:\Program Files (x86)\Microsoft Visual Studio\2019\Community\VC\Tools\MSVC\14.28.29333\include\xmemory

; 701  :         ::new (const_cast<void*>(static_cast<const volatile void*>(_Ptr))) _Objty(_STD forward<_Types>(_Args)...);

  00012	51		 push	 ecx
  00013	89 65 e8	 mov	 DWORD PTR _this$[ebp], esp
; File C:\Program Files (x86)\Microsoft Visual Studio\2019\Community\VC\Tools\MSVC\14.28.29333\include\type_traits

; 1443 :     return static_cast<_Ty&&>(_Arg);

  00016	8b 45 14	 mov	 eax, DWORD PTR _<_Args_1>$[ebp]
  00019	89 45 fc	 mov	 DWORD PTR $T4[ebp], eax
; File C:\Program Files (x86)\Microsoft Visual Studio\2019\Community\VC\Tools\MSVC\14.28.29333\include\xmemory

; 701  :         ::new (const_cast<void*>(static_cast<const volatile void*>(_Ptr))) _Objty(_STD forward<_Types>(_Args)...);

  0001c	51		 push	 ecx
  0001d	89 65 f8	 mov	 DWORD PTR _this$[ebp], esp
; File D:\Metin2 Server Files\mainline\SRC_2014\Metin2Client\EterLib\ResourceManager.cpp

  00020	8b 45 fc	 mov	 eax, DWORD PTR $T4[ebp]
  00023	8b 00		 mov	 eax, DWORD PTR [eax]
  00025	8b 4d f8	 mov	 ecx, DWORD PTR _this$[ebp]
  00028	89 01		 mov	 DWORD PTR [ecx], eax
; File C:\Program Files (x86)\Microsoft Visual Studio\2019\Community\VC\Tools\MSVC\14.28.29333\include\type_traits

; 1443 :     return static_cast<_Ty&&>(_Arg);

  0002a	8b 45 10	 mov	 eax, DWORD PTR _<_Args_0>$[ebp]
  0002d	89 45 f4	 mov	 DWORD PTR $T3[ebp], eax
; File C:\Program Files (x86)\Microsoft Visual Studio\2019\Community\VC\Tools\MSVC\14.28.29333\include\xmemory

; 701  :         ::new (const_cast<void*>(static_cast<const volatile void*>(_Ptr))) _Objty(_STD forward<_Types>(_Args)...);

  00030	8b 45 f4	 mov	 eax, DWORD PTR $T3[ebp]
  00033	0f b6 00	 movzx	 eax, BYTE PTR [eax]
  00036	50		 push	 eax
  00037	8b 4d f0	 mov	 ecx, DWORD PTR $T2[ebp]
  0003a	e8 00 00 00 00	 call	 ??$?0$$QAV?$basic_string@DU?$char_traits@D@std@@V?$allocator@D@2@@std@@$$Z$$V@?$pair@$$CBV?$basic_string@DU?$char_traits@D@std@@V?$allocator@D@2@@std@@P6APAVCResource@@PBD@Z@std@@QAE@Upiecewise_construct_t@1@V?$tuple@$$QAV?$basic_string@DU?$char_traits@D@std@@V?$allocator@D@2@@std@@@1@V?$tuple@$$V@1@@Z ; std::pair<std::basic_string<char,std::char_traits<char>,std::allocator<char> > const ,CResource * (__cdecl*)(char const *)>::pair<std::basic_string<char,std::char_traits<char>,std::allocator<char> > const ,CResource * (__cdecl*)(char const *)><std::basic_string<char,std::char_traits<char>,std::allocator<char> > &&>

; 702  :     }

  0003f	c9		 leave
  00040	c3		 ret	 0
??$construct@U?$pair@$$CBV?$basic_string@DU?$char_traits@D@std@@V?$allocator@D@2@@std@@P6APAVCResource@@PBD@Z@std@@ABUpiecewise_construct_t@2@V?$tuple@$$QAV?$basic_string@DU?$char_traits@D@std@@V?$allocator@D@2@@std@@@2@V?$tuple@$$V@2@@?$_Default_allocator_traits@V?$allocator@U?$_Tree_node@U?$pair@$$CBV?$basic_string@DU?$char_traits@D@std@@V?$allocator@D@2@@std@@P6APAVCResource@@PBD@Z@std@@PAX@std@@@std@@@std@@SAXAAV?$allocator@U?$_Tree_node@U?$pair@$$CBV?$basic_string@DU?$char_traits@D@std@@V?$allocator@D@2@@std@@P6APAVCResource@@PBD@Z@std@@PAX@std@@@1@QAU?$pair@$$CBV?$basic_string@DU?$char_traits@D@std@@V?$allocator@D@2@@std@@P6APAVCResource@@PBD@Z@1@ABUpiecewise_construct_t@1@$$QAV?$tuple@$$QAV?$basic_string@DU?$char_traits@D@std@@V?$allocator@D@2@@std@@@1@$$QAV?$tuple@$$V@1@@Z ENDP ; std::_Default_allocator_traits<std::allocator<std::_Tree_node<std::pair<std::basic_string<char,std::char_traits<char>,std::allocator<char> > const ,CResource * (__cdecl*)(char const *)>,void *> > >::construct<std::pair<std::basic_string<char,std::char_traits<char>,std::allocator<char> > const ,CResource * (__cdecl*)(char const *)>,std::piecewise_construct_t const &,std::tuple<std::basic_string<char,std::char_traits<char>,std::allocator<char> > &&>,std::tuple<> >
_TEXT	ENDS
; Function compile flags: /Odspy
; File C:\Program Files (x86)\Microsoft Visual Studio\2019\Community\VC\Tools\MSVC\14.28.29333\include\xmemory
; File C:\Program Files (x86)\Microsoft Visual Studio\2019\Community\VC\Tools\MSVC\14.28.29333\include\xstddef
; File C:\Program Files (x86)\Microsoft Visual Studio\2019\Community\VC\Tools\MSVC\14.28.29333\include\vcruntime_new.h
; File C:\Program Files (x86)\Microsoft Visual Studio\2019\Community\VC\Tools\MSVC\14.28.29333\include\type_traits
; File C:\Program Files (x86)\Microsoft Visual Studio\2019\Community\VC\Tools\MSVC\14.28.29333\include\xmemory
;	COMDAT ??$_Construct_in_place@PAU?$_Tree_node@U?$pair@$$CBHP6APAVCResource@@PBD@Z@std@@PAX@std@@AAPAU12@@std@@YAXAAPAU?$_Tree_node@U?$pair@$$CBHP6APAVCResource@@PBD@Z@std@@PAX@0@0@Z
_TEXT	SEGMENT
$T1 = -12						; size = 4
$T2 = -8						; size = 4
$T3 = -4						; size = 4
__Obj$ = 8						; size = 4
_<_Args_0>$ = 12					; size = 4
??$_Construct_in_place@PAU?$_Tree_node@U?$pair@$$CBHP6APAVCResource@@PBD@Z@std@@PAX@std@@AAPAU12@@std@@YAXAAPAU?$_Tree_node@U?$pair@$$CBHP6APAVCResource@@PBD@Z@std@@PAX@0@0@Z PROC ; std::_Construct_in_place<std::_Tree_node<std::pair<int const ,CResource * (__cdecl*)(char const *)>,void *> *,std::_Tree_node<std::pair<int const ,CResource * (__cdecl*)(char const *)>,void *> * &>, COMDAT

; 228  : void _Construct_in_place(_Ty& _Obj, _Types&&... _Args) noexcept(is_nothrow_constructible_v<_Ty, _Types...>) {

  00000	55		 push	 ebp
  00001	8b ec		 mov	 ebp, esp
  00003	83 ec 0c	 sub	 esp, 12			; 0000000cH
; File C:\Program Files (x86)\Microsoft Visual Studio\2019\Community\VC\Tools\MSVC\14.28.29333\include\xstddef

; 275  :     return __builtin_addressof(_Val);

  00006	8b 45 08	 mov	 eax, DWORD PTR __Obj$[ebp]
  00009	89 45 fc	 mov	 DWORD PTR $T3[ebp], eax
; File C:\Program Files (x86)\Microsoft Visual Studio\2019\Community\VC\Tools\MSVC\14.28.29333\include\vcruntime_new.h

; 169  :         return _Where;

  0000c	8b 45 fc	 mov	 eax, DWORD PTR $T3[ebp]
  0000f	89 45 f8	 mov	 DWORD PTR $T2[ebp], eax
; File C:\Program Files (x86)\Microsoft Visual Studio\2019\Community\VC\Tools\MSVC\14.28.29333\include\type_traits

; 1443 :     return static_cast<_Ty&&>(_Arg);

  00012	8b 45 0c	 mov	 eax, DWORD PTR _<_Args_0>$[ebp]
  00015	89 45 f4	 mov	 DWORD PTR $T1[ebp], eax
; File C:\Program Files (x86)\Microsoft Visual Studio\2019\Community\VC\Tools\MSVC\14.28.29333\include\xmemory

; 229  :     ::new (const_cast<void*>(static_cast<const volatile void*>(_STD addressof(_Obj))))

  00018	8b 45 f8	 mov	 eax, DWORD PTR $T2[ebp]
  0001b	8b 4d f4	 mov	 ecx, DWORD PTR $T1[ebp]
  0001e	8b 09		 mov	 ecx, DWORD PTR [ecx]
  00020	89 08		 mov	 DWORD PTR [eax], ecx

; 230  :         _Ty(_STD forward<_Types>(_Args)...);
; 231  : }

  00022	c9		 leave
  00023	c3		 ret	 0
??$_Construct_in_place@PAU?$_Tree_node@U?$pair@$$CBHP6APAVCResource@@PBD@Z@std@@PAX@std@@AAPAU12@@std@@YAXAAPAU?$_Tree_node@U?$pair@$$CBHP6APAVCResource@@PBD@Z@std@@PAX@0@0@Z ENDP ; std::_Construct_in_place<std::_Tree_node<std::pair<int const ,CResource * (__cdecl*)(char const *)>,void *> *,std::_Tree_node<std::pair<int const ,CResource * (__cdecl*)(char const *)>,void *> * &>
_TEXT	ENDS
; Function compile flags: /Odspy
; File C:\Program Files (x86)\Microsoft Visual Studio\2019\Community\VC\Tools\MSVC\14.28.29333\include\xmemory
; File C:\Program Files (x86)\Microsoft Visual Studio\2019\Community\VC\Tools\MSVC\14.28.29333\include\vcruntime_new.h
; File C:\Program Files (x86)\Microsoft Visual Studio\2019\Community\VC\Tools\MSVC\14.28.29333\include\type_traits
; File C:\Program Files (x86)\Microsoft Visual Studio\2019\Community\VC\Tools\MSVC\14.28.29333\include\xmemory
; File C:\Program Files (x86)\Microsoft Visual Studio\2019\Community\VC\Tools\MSVC\14.28.29333\include\type_traits
; File C:\Program Files (x86)\Microsoft Visual Studio\2019\Community\VC\Tools\MSVC\14.28.29333\include\xmemory
; File D:\Metin2 Server Files\mainline\SRC_2014\Metin2Client\EterLib\ResourceManager.cpp
; File C:\Program Files (x86)\Microsoft Visual Studio\2019\Community\VC\Tools\MSVC\14.28.29333\include\type_traits
; File C:\Program Files (x86)\Microsoft Visual Studio\2019\Community\VC\Tools\MSVC\14.28.29333\include\xmemory
; File C:\Program Files (x86)\Microsoft Visual Studio\2019\Community\VC\Tools\MSVC\14.28.29333\include\tuple
; File C:\Program Files (x86)\Microsoft Visual Studio\2019\Community\VC\Tools\MSVC\14.28.29333\include\type_traits
; File C:\Program Files (x86)\Microsoft Visual Studio\2019\Community\VC\Tools\MSVC\14.28.29333\include\tuple
; File C:\Program Files (x86)\Microsoft Visual Studio\2019\Community\VC\Tools\MSVC\14.28.29333\include\xmemory
;	COMDAT ??$construct@U?$pair@$$CBHP6APAVCResource@@PBD@Z@std@@ABUpiecewise_construct_t@2@V?$tuple@ABH@2@V?$tuple@$$V@2@@?$_Default_allocator_traits@V?$allocator@U?$_Tree_node@U?$pair@$$CBHP6APAVCResource@@PBD@Z@std@@PAX@std@@@std@@@std@@SAXAAV?$allocator@U?$_Tree_node@U?$pair@$$CBHP6APAVCResource@@PBD@Z@std@@PAX@std@@@1@QAU?$pair@$$CBHP6APAVCResource@@PBD@Z@1@ABUpiecewise_construct_t@1@$$QAV?$tuple@ABH@1@$$QAV?$tuple@$$V@1@@Z
_TEXT	SEGMENT
_this$ = -52						; size = 4
$T1 = -48						; size = 4
$T2 = -44						; size = 4
$T3 = -40						; size = 4
$T4 = -36						; size = 4
$T5 = -32						; size = 4
_this$ = -28						; size = 4
$T6 = -24						; size = 4
$T7 = -20						; size = 4
___formal$ = -16					; size = 1
___formal$ = -12					; size = 1
___formal$ = -8						; size = 1
$T8 = -3						; size = 1
$T9 = -2						; size = 1
$T10 = -1						; size = 1
___formal$ = 8						; size = 4
__Ptr$ = 12						; size = 4
_<_Args_0>$ = 16					; size = 4
_<_Args_1>$ = 20					; size = 4
_<_Args_2>$ = 24					; size = 4
??$construct@U?$pair@$$CBHP6APAVCResource@@PBD@Z@std@@ABUpiecewise_construct_t@2@V?$tuple@ABH@2@V?$tuple@$$V@2@@?$_Default_allocator_traits@V?$allocator@U?$_Tree_node@U?$pair@$$CBHP6APAVCResource@@PBD@Z@std@@PAX@std@@@std@@@std@@SAXAAV?$allocator@U?$_Tree_node@U?$pair@$$CBHP6APAVCResource@@PBD@Z@std@@PAX@std@@@1@QAU?$pair@$$CBHP6APAVCResource@@PBD@Z@1@ABUpiecewise_construct_t@1@$$QAV?$tuple@ABH@1@$$QAV?$tuple@$$V@1@@Z PROC ; std::_Default_allocator_traits<std::allocator<std::_Tree_node<std::pair<int const ,CResource * (__cdecl*)(char const *)>,void *> > >::construct<std::pair<int const ,CResource * (__cdecl*)(char const *)>,std::piecewise_construct_t const &,std::tuple<int const &>,std::tuple<> >, COMDAT

; 700  :     static void construct(_Alloc&, _Objty* const _Ptr, _Types&&... _Args) {

  00000	55		 push	 ebp
  00001	8b ec		 mov	 ebp, esp
  00003	83 ec 34	 sub	 esp, 52			; 00000034H
; File C:\Program Files (x86)\Microsoft Visual Studio\2019\Community\VC\Tools\MSVC\14.28.29333\include\vcruntime_new.h

; 169  :         return _Where;

  00006	8b 45 0c	 mov	 eax, DWORD PTR __Ptr$[ebp]
  00009	89 45 ec	 mov	 DWORD PTR $T7[ebp], eax
; File C:\Program Files (x86)\Microsoft Visual Studio\2019\Community\VC\Tools\MSVC\14.28.29333\include\type_traits

; 1443 :     return static_cast<_Ty&&>(_Arg);

  0000c	8b 45 18	 mov	 eax, DWORD PTR _<_Args_2>$[ebp]
  0000f	89 45 d0	 mov	 DWORD PTR $T1[ebp], eax
; File C:\Program Files (x86)\Microsoft Visual Studio\2019\Community\VC\Tools\MSVC\14.28.29333\include\xmemory

; 701  :         ::new (const_cast<void*>(static_cast<const volatile void*>(_Ptr))) _Objty(_STD forward<_Types>(_Args)...);

  00012	8d 45 fd	 lea	 eax, DWORD PTR $T8[ebp]
  00015	89 45 cc	 mov	 DWORD PTR _this$[ebp], eax
; File C:\Program Files (x86)\Microsoft Visual Studio\2019\Community\VC\Tools\MSVC\14.28.29333\include\type_traits

; 1443 :     return static_cast<_Ty&&>(_Arg);

  00018	8b 45 14	 mov	 eax, DWORD PTR _<_Args_1>$[ebp]
  0001b	89 45 e8	 mov	 DWORD PTR $T6[ebp], eax
; File C:\Program Files (x86)\Microsoft Visual Studio\2019\Community\VC\Tools\MSVC\14.28.29333\include\xmemory

; 701  :         ::new (const_cast<void*>(static_cast<const volatile void*>(_Ptr))) _Objty(_STD forward<_Types>(_Args)...);

  0001e	8d 45 dc	 lea	 eax, DWORD PTR $T4[ebp]
  00021	89 45 e4	 mov	 DWORD PTR _this$[ebp], eax
; File D:\Metin2 Server Files\mainline\SRC_2014\Metin2Client\EterLib\ResourceManager.cpp

  00024	8b 45 e8	 mov	 eax, DWORD PTR $T6[ebp]
  00027	8b 00		 mov	 eax, DWORD PTR [eax]
  00029	8b 4d e4	 mov	 ecx, DWORD PTR _this$[ebp]
  0002c	89 01		 mov	 DWORD PTR [ecx], eax
; File C:\Program Files (x86)\Microsoft Visual Studio\2019\Community\VC\Tools\MSVC\14.28.29333\include\type_traits

; 1443 :     return static_cast<_Ty&&>(_Arg);

  0002e	8b 45 10	 mov	 eax, DWORD PTR _<_Args_0>$[ebp]
  00031	89 45 e0	 mov	 DWORD PTR $T5[ebp], eax
; File C:\Program Files (x86)\Microsoft Visual Studio\2019\Community\VC\Tools\MSVC\14.28.29333\include\xmemory

; 701  :         ::new (const_cast<void*>(static_cast<const volatile void*>(_Ptr))) _Objty(_STD forward<_Types>(_Args)...);

  00034	8b 45 e0	 mov	 eax, DWORD PTR $T5[ebp]
  00037	8a 00		 mov	 al, BYTE PTR [eax]
  00039	88 45 f8	 mov	 BYTE PTR ___formal$[ebp], al
; File C:\Program Files (x86)\Microsoft Visual Studio\2019\Community\VC\Tools\MSVC\14.28.29333\include\tuple

; 986  :     : pair(_Val1, _Val2, index_sequence_for<_Types1...>{}, index_sequence_for<_Types2...>{}) {}

  0003c	33 c0		 xor	 eax, eax
  0003e	88 45 ff	 mov	 BYTE PTR $T10[ebp], al
  00041	33 c0		 xor	 eax, eax
  00043	88 45 fe	 mov	 BYTE PTR $T9[ebp], al
  00046	8a 45 ff	 mov	 al, BYTE PTR $T10[ebp]
  00049	88 45 f4	 mov	 BYTE PTR ___formal$[ebp], al
  0004c	8a 45 fe	 mov	 al, BYTE PTR $T9[ebp]
  0004f	88 45 f0	 mov	 BYTE PTR ___formal$[ebp], al
; File C:\Program Files (x86)\Microsoft Visual Studio\2019\Community\VC\Tools\MSVC\14.28.29333\include\type_traits

; 1455 :     return static_cast<remove_reference_t<_Ty>&&>(_Arg);

  00052	8d 45 dc	 lea	 eax, DWORD PTR $T4[ebp]
  00055	89 45 d8	 mov	 DWORD PTR $T3[ebp], eax
; File C:\Program Files (x86)\Microsoft Visual Studio\2019\Community\VC\Tools\MSVC\14.28.29333\include\tuple

; 790  :     return static_cast<_Ty&&>(static_cast<_Ttype&>(_Tuple)._Myfirst._Val);

  00058	8b 45 d8	 mov	 eax, DWORD PTR $T3[ebp]
  0005b	8b 00		 mov	 eax, DWORD PTR [eax]
  0005d	89 45 d4	 mov	 DWORD PTR $T2[ebp], eax

; 980  :     : first(_STD get<_Indexes1>(_STD move(_Val1))...), second(_STD get<_Indexes2>(_STD move(_Val2))...) {}

  00060	8b 45 ec	 mov	 eax, DWORD PTR $T7[ebp]
  00063	8b 4d d4	 mov	 ecx, DWORD PTR $T2[ebp]
  00066	8b 09		 mov	 ecx, DWORD PTR [ecx]
  00068	89 08		 mov	 DWORD PTR [eax], ecx
  0006a	8b 45 ec	 mov	 eax, DWORD PTR $T7[ebp]
  0006d	83 60 04 00	 and	 DWORD PTR [eax+4], 0
; File C:\Program Files (x86)\Microsoft Visual Studio\2019\Community\VC\Tools\MSVC\14.28.29333\include\xmemory

; 702  :     }

  00071	c9		 leave
  00072	c3		 ret	 0
??$construct@U?$pair@$$CBHP6APAVCResource@@PBD@Z@std@@ABUpiecewise_construct_t@2@V?$tuple@ABH@2@V?$tuple@$$V@2@@?$_Default_allocator_traits@V?$allocator@U?$_Tree_node@U?$pair@$$CBHP6APAVCResource@@PBD@Z@std@@PAX@std@@@std@@@std@@SAXAAV?$allocator@U?$_Tree_node@U?$pair@$$CBHP6APAVCResource@@PBD@Z@std@@PAX@std@@@1@QAU?$pair@$$CBHP6APAVCResource@@PBD@Z@1@ABUpiecewise_construct_t@1@$$QAV?$tuple@ABH@1@$$QAV?$tuple@$$V@1@@Z ENDP ; std::_Default_allocator_traits<std::allocator<std::_Tree_node<std::pair<int const ,CResource * (__cdecl*)(char const *)>,void *> > >::construct<std::pair<int const ,CResource * (__cdecl*)(char const *)>,std::piecewise_construct_t const &,std::tuple<int const &>,std::tuple<> >
_TEXT	ENDS
; Function compile flags: /Odspy
; File C:\Program Files (x86)\Microsoft Visual Studio\2019\Community\VC\Tools\MSVC\14.28.29333\include\xmemory
;	COMDAT ??$_Destroy_in_place@PAU?$_Tree_node@U?$pair@QAVCResource@@K@std@@PAX@std@@@std@@YAXAAPAU?$_Tree_node@U?$pair@QAVCResource@@K@std@@PAX@0@@Z
_TEXT	SEGMENT
__Obj$ = 8						; size = 4
??$_Destroy_in_place@PAU?$_Tree_node@U?$pair@QAVCResource@@K@std@@PAX@std@@@std@@YAXAAPAU?$_Tree_node@U?$pair@QAVCResource@@K@std@@PAX@0@@Z PROC ; std::_Destroy_in_place<std::_Tree_node<std::pair<CResource * const,unsigned long>,void *> *>, COMDAT

; 270  : /* _CONSTEXPR20_DYNALLOC */ void _Destroy_in_place(_Ty& _Obj) noexcept {

  00000	55		 push	 ebp
  00001	8b ec		 mov	 ebp, esp

; 271  : #if _HAS_IF_CONSTEXPR
; 272  :     if constexpr (is_array_v<_Ty>) {
; 273  :         _Destroy_range(_Obj, _Obj + extent_v<_Ty>);
; 274  :     } else
; 275  : #endif // _HAS_IF_CONSTEXPR
; 276  :     {
; 277  :         _Obj.~_Ty();
; 278  :     }
; 279  : }

  00003	5d		 pop	 ebp
  00004	c3		 ret	 0
??$_Destroy_in_place@PAU?$_Tree_node@U?$pair@QAVCResource@@K@std@@PAX@std@@@std@@YAXAAPAU?$_Tree_node@U?$pair@QAVCResource@@K@std@@PAX@0@@Z ENDP ; std::_Destroy_in_place<std::_Tree_node<std::pair<CResource * const,unsigned long>,void *> *>
_TEXT	ENDS
; Function compile flags: /Odspy
; File C:\Program Files (x86)\Microsoft Visual Studio\2019\Community\VC\Tools\MSVC\14.28.29333\include\xmemory
;	COMDAT ??$_Destroy_in_place@PAU?$_Tree_node@U?$pair@$$CBKV?$basic_string@DU?$char_traits@D@std@@V?$allocator@D@2@@std@@@std@@PAX@std@@@std@@YAXAAPAU?$_Tree_node@U?$pair@$$CBKV?$basic_string@DU?$char_traits@D@std@@V?$allocator@D@2@@std@@@std@@PAX@0@@Z
_TEXT	SEGMENT
__Obj$ = 8						; size = 4
??$_Destroy_in_place@PAU?$_Tree_node@U?$pair@$$CBKV?$basic_string@DU?$char_traits@D@std@@V?$allocator@D@2@@std@@@std@@PAX@std@@@std@@YAXAAPAU?$_Tree_node@U?$pair@$$CBKV?$basic_string@DU?$char_traits@D@std@@V?$allocator@D@2@@std@@@std@@PAX@0@@Z PROC ; std::_Destroy_in_place<std::_Tree_node<std::pair<unsigned long const ,std::basic_string<char,std::char_traits<char>,std::allocator<char> > >,void *> *>, COMDAT

; 270  : /* _CONSTEXPR20_DYNALLOC */ void _Destroy_in_place(_Ty& _Obj) noexcept {

  00000	55		 push	 ebp
  00001	8b ec		 mov	 ebp, esp

; 271  : #if _HAS_IF_CONSTEXPR
; 272  :     if constexpr (is_array_v<_Ty>) {
; 273  :         _Destroy_range(_Obj, _Obj + extent_v<_Ty>);
; 274  :     } else
; 275  : #endif // _HAS_IF_CONSTEXPR
; 276  :     {
; 277  :         _Obj.~_Ty();
; 278  :     }
; 279  : }

  00003	5d		 pop	 ebp
  00004	c3		 ret	 0
??$_Destroy_in_place@PAU?$_Tree_node@U?$pair@$$CBKV?$basic_string@DU?$char_traits@D@std@@V?$allocator@D@2@@std@@@std@@PAX@std@@@std@@YAXAAPAU?$_Tree_node@U?$pair@$$CBKV?$basic_string@DU?$char_traits@D@std@@V?$allocator@D@2@@std@@@std@@PAX@0@@Z ENDP ; std::_Destroy_in_place<std::_Tree_node<std::pair<unsigned long const ,std::basic_string<char,std::char_traits<char>,std::allocator<char> > >,void *> *>
_TEXT	ENDS
; Function compile flags: /Odspy
; File C:\Program Files (x86)\Microsoft Visual Studio\2019\Community\VC\Tools\MSVC\14.28.29333\include\xmemory
;	COMDAT ??$_Destroy_in_place@PAU?$_Tree_node@U?$pair@$$CBJPAVCResource@@@std@@PAX@std@@@std@@YAXAAPAU?$_Tree_node@U?$pair@$$CBJPAVCResource@@@std@@PAX@0@@Z
_TEXT	SEGMENT
__Obj$ = 8						; size = 4
??$_Destroy_in_place@PAU?$_Tree_node@U?$pair@$$CBJPAVCResource@@@std@@PAX@std@@@std@@YAXAAPAU?$_Tree_node@U?$pair@$$CBJPAVCResource@@@std@@PAX@0@@Z PROC ; std::_Destroy_in_place<std::_Tree_node<std::pair<long const ,CResource *>,void *> *>, COMDAT

; 270  : /* _CONSTEXPR20_DYNALLOC */ void _Destroy_in_place(_Ty& _Obj) noexcept {

  00000	55		 push	 ebp
  00001	8b ec		 mov	 ebp, esp

; 271  : #if _HAS_IF_CONSTEXPR
; 272  :     if constexpr (is_array_v<_Ty>) {
; 273  :         _Destroy_range(_Obj, _Obj + extent_v<_Ty>);
; 274  :     } else
; 275  : #endif // _HAS_IF_CONSTEXPR
; 276  :     {
; 277  :         _Obj.~_Ty();
; 278  :     }
; 279  : }

  00003	5d		 pop	 ebp
  00004	c3		 ret	 0
??$_Destroy_in_place@PAU?$_Tree_node@U?$pair@$$CBJPAVCResource@@@std@@PAX@std@@@std@@YAXAAPAU?$_Tree_node@U?$pair@$$CBJPAVCResource@@@std@@PAX@0@@Z ENDP ; std::_Destroy_in_place<std::_Tree_node<std::pair<long const ,CResource *>,void *> *>
_TEXT	ENDS
; Function compile flags: /Odspy
; File C:\Program Files (x86)\Microsoft Visual Studio\2019\Community\VC\Tools\MSVC\14.28.29333\include\xtree
; File C:\Program Files (x86)\Microsoft Visual Studio\2019\Community\VC\Tools\MSVC\14.28.29333\include\xmemory
; File C:\Program Files (x86)\Microsoft Visual Studio\2019\Community\VC\Tools\MSVC\14.28.29333\include\xtree
; File C:\Program Files (x86)\Microsoft Visual Studio\2019\Community\VC\Tools\MSVC\14.28.29333\include\type_traits
; File C:\Program Files (x86)\Microsoft Visual Studio\2019\Community\VC\Tools\MSVC\14.28.29333\include\xtree
; File C:\Program Files (x86)\Microsoft Visual Studio\2019\Community\VC\Tools\MSVC\14.28.29333\include\xstddef
; File C:\Program Files (x86)\Microsoft Visual Studio\2019\Community\VC\Tools\MSVC\14.28.29333\include\xtree
; File C:\Program Files (x86)\Microsoft Visual Studio\2019\Community\VC\Tools\MSVC\14.28.29333\include\vcruntime_new.h
; File C:\Program Files (x86)\Microsoft Visual Studio\2019\Community\VC\Tools\MSVC\14.28.29333\include\type_traits
; File C:\Program Files (x86)\Microsoft Visual Studio\2019\Community\VC\Tools\MSVC\14.28.29333\include\xmemory
; File C:\Program Files (x86)\Microsoft Visual Studio\2019\Community\VC\Tools\MSVC\14.28.29333\include\xtree
;	COMDAT ??$?0U?$pair@QAVCResource@@K@std@@@?$_Tree_temp_node@V?$allocator@U?$_Tree_node@U?$pair@QAVCResource@@K@std@@PAX@std@@@std@@@std@@QAE@AAV?$allocator@U?$_Tree_node@U?$pair@QAVCResource@@K@std@@PAX@std@@@1@PAU?$_Tree_node@U?$pair@QAVCResource@@K@std@@PAX@1@$$QAU?$pair@QAVCResource@@K@1@@Z
_TEXT	SEGMENT
___formal$ = -40					; size = 4
$T2 = -36						; size = 4
$T3 = -32						; size = 4
$T4 = -28						; size = 4
$T5 = -24						; size = 4
__Val$ = -20						; size = 4
_this$ = -16						; size = 4
__$EHRec$ = -12						; size = 12
__Al_$ = 8						; size = 4
__Myhead$ = 12						; size = 4
_<_Vals_0>$ = 16					; size = 4
??$?0U?$pair@QAVCResource@@K@std@@@?$_Tree_temp_node@V?$allocator@U?$_Tree_node@U?$pair@QAVCResource@@K@std@@PAX@std@@@std@@@std@@QAE@AAV?$allocator@U?$_Tree_node@U?$pair@QAVCResource@@K@std@@PAX@std@@@1@PAU?$_Tree_node@U?$pair@QAVCResource@@K@std@@PAX@1@$$QAU?$pair@QAVCResource@@K@1@@Z PROC ; std::_Tree_temp_node<std::allocator<std::_Tree_node<std::pair<CResource * const,unsigned long>,void *> > >::_Tree_temp_node<std::allocator<std::_Tree_node<std::pair<CResource * const,unsigned long>,void *> > ><std::pair<CResource * const,unsigned long> >, COMDAT
; _this$ = ecx

; 805  :         : _Tree_temp_node_alloc<_Alnode>(_Al_) {

  00000	55		 push	 ebp
  00001	8b ec		 mov	 ebp, esp
  00003	6a ff		 push	 -1
  00005	68 00 00 00 00	 push	 __ehhandler$??$?0U?$pair@QAVCResource@@K@std@@@?$_Tree_temp_node@V?$allocator@U?$_Tree_node@U?$pair@QAVCResource@@K@std@@PAX@std@@@std@@@std@@QAE@AAV?$allocator@U?$_Tree_node@U?$pair@QAVCResource@@K@std@@PAX@std@@@1@PAU?$_Tree_node@U?$pair@QAVCResource@@K@std@@PAX@1@$$QAU?$pair@QAVCResource@@K@1@@Z
  0000a	64 a1 00 00 00
	00		 mov	 eax, DWORD PTR fs:0
  00010	50		 push	 eax
  00011	83 ec 1c	 sub	 esp, 28			; 0000001cH
  00014	a1 00 00 00 00	 mov	 eax, DWORD PTR ___security_cookie
  00019	33 c5		 xor	 eax, ebp
  0001b	50		 push	 eax
  0001c	8d 45 f4	 lea	 eax, DWORD PTR __$EHRec$[ebp]
  0001f	64 a3 00 00 00
	00		 mov	 DWORD PTR fs:0, eax
  00025	89 4d f0	 mov	 DWORD PTR _this$[ebp], ecx
; File C:\Program Files (x86)\Microsoft Visual Studio\2019\Community\VC\Tools\MSVC\14.28.29333\include\xmemory

; 1045 :     explicit _Alloc_construct_ptr(_Alloc& _Al_) : _Al(_Al_), _Ptr(nullptr) {}

  00028	8b 45 f0	 mov	 eax, DWORD PTR _this$[ebp]
  0002b	8b 4d 08	 mov	 ecx, DWORD PTR __Al_$[ebp]
  0002e	89 08		 mov	 DWORD PTR [eax], ecx
  00030	8b 45 f0	 mov	 eax, DWORD PTR _this$[ebp]
  00033	83 60 04 00	 and	 DWORD PTR [eax+4], 0
; File C:\Program Files (x86)\Microsoft Visual Studio\2019\Community\VC\Tools\MSVC\14.28.29333\include\xtree

; 784  :     explicit _Tree_temp_node_alloc(_Alnode& _Al_) : _Alloc_construct_ptr<_Alnode>(_Al_) {

  00037	83 65 fc 00	 and	 DWORD PTR __$EHRec$[ebp+8], 0

; 785  :         _Alloc_construct_ptr<_Alnode>::_Allocate();

  0003b	8b 4d f0	 mov	 ecx, DWORD PTR _this$[ebp]
  0003e	e8 00 00 00 00	 call	 ?_Allocate@?$_Alloc_construct_ptr@V?$allocator@U?$_Tree_node@U?$pair@QAVCResource@@K@std@@PAX@std@@@std@@@std@@QAEXXZ ; std::_Alloc_construct_ptr<std::allocator<std::_Tree_node<std::pair<CResource * const,unsigned long>,void *> > >::_Allocate

; 786  :     }

  00043	83 4d fc ff	 or	 DWORD PTR __$EHRec$[ebp+8], -1
; File C:\Program Files (x86)\Microsoft Visual Studio\2019\Community\VC\Tools\MSVC\14.28.29333\include\type_traits

; 1443 :     return static_cast<_Ty&&>(_Arg);

  00047	8b 45 10	 mov	 eax, DWORD PTR _<_Vals_0>$[ebp]
  0004a	89 45 e4	 mov	 DWORD PTR $T4[ebp], eax
; File C:\Program Files (x86)\Microsoft Visual Studio\2019\Community\VC\Tools\MSVC\14.28.29333\include\xtree

; 806  :         _Alnode_traits::construct(this->_Al, _STD addressof(this->_Ptr->_Myval), _STD forward<_Valtys>(_Vals)...);

  0004d	8b 45 f0	 mov	 eax, DWORD PTR _this$[ebp]
  00050	8b 40 04	 mov	 eax, DWORD PTR [eax+4]
  00053	83 c0 10	 add	 eax, 16			; 00000010H
  00056	89 45 ec	 mov	 DWORD PTR __Val$[ebp], eax
; File C:\Program Files (x86)\Microsoft Visual Studio\2019\Community\VC\Tools\MSVC\14.28.29333\include\xstddef

; 275  :     return __builtin_addressof(_Val);

  00059	8b 45 ec	 mov	 eax, DWORD PTR __Val$[ebp]
  0005c	89 45 e8	 mov	 DWORD PTR $T5[ebp], eax
; File C:\Program Files (x86)\Microsoft Visual Studio\2019\Community\VC\Tools\MSVC\14.28.29333\include\xtree

; 806  :         _Alnode_traits::construct(this->_Al, _STD addressof(this->_Ptr->_Myval), _STD forward<_Valtys>(_Vals)...);

  0005f	8b 45 f0	 mov	 eax, DWORD PTR _this$[ebp]
  00062	8b 00		 mov	 eax, DWORD PTR [eax]
  00064	89 45 d8	 mov	 DWORD PTR ___formal$[ebp], eax
; File C:\Program Files (x86)\Microsoft Visual Studio\2019\Community\VC\Tools\MSVC\14.28.29333\include\vcruntime_new.h

; 169  :         return _Where;

  00067	8b 45 e8	 mov	 eax, DWORD PTR $T5[ebp]
  0006a	89 45 dc	 mov	 DWORD PTR $T2[ebp], eax
; File C:\Program Files (x86)\Microsoft Visual Studio\2019\Community\VC\Tools\MSVC\14.28.29333\include\type_traits

; 1443 :     return static_cast<_Ty&&>(_Arg);

  0006d	8b 45 e4	 mov	 eax, DWORD PTR $T4[ebp]
  00070	89 45 e0	 mov	 DWORD PTR $T3[ebp], eax
; File C:\Program Files (x86)\Microsoft Visual Studio\2019\Community\VC\Tools\MSVC\14.28.29333\include\xmemory

; 701  :         ::new (const_cast<void*>(static_cast<const volatile void*>(_Ptr))) _Objty(_STD forward<_Types>(_Args)...);

  00073	8b 45 e0	 mov	 eax, DWORD PTR $T3[ebp]
  00076	8b 08		 mov	 ecx, DWORD PTR [eax]
  00078	8b 40 04	 mov	 eax, DWORD PTR [eax+4]
  0007b	8b 55 dc	 mov	 edx, DWORD PTR $T2[ebp]
  0007e	89 0a		 mov	 DWORD PTR [edx], ecx
  00080	89 42 04	 mov	 DWORD PTR [edx+4], eax
; File C:\Program Files (x86)\Microsoft Visual Studio\2019\Community\VC\Tools\MSVC\14.28.29333\include\xtree

; 807  :         _Construct_in_place(this->_Ptr->_Left, _Myhead);

  00083	8d 45 0c	 lea	 eax, DWORD PTR __Myhead$[ebp]
  00086	50		 push	 eax
  00087	8b 45 f0	 mov	 eax, DWORD PTR _this$[ebp]
  0008a	ff 70 04	 push	 DWORD PTR [eax+4]
  0008d	e8 00 00 00 00	 call	 ??$_Construct_in_place@PAU?$_Tree_node@U?$pair@QAVCResource@@K@std@@PAX@std@@AAPAU12@@std@@YAXAAPAU?$_Tree_node@U?$pair@QAVCResource@@K@std@@PAX@0@0@Z ; std::_Construct_in_place<std::_Tree_node<std::pair<CResource * const,unsigned long>,void *> *,std::_Tree_node<std::pair<CResource * const,unsigned long>,void *> * &>
  00092	59		 pop	 ecx
  00093	59		 pop	 ecx

; 808  :         _Construct_in_place(this->_Ptr->_Parent, _Myhead);

  00094	8d 45 0c	 lea	 eax, DWORD PTR __Myhead$[ebp]
  00097	50		 push	 eax
  00098	8b 45 f0	 mov	 eax, DWORD PTR _this$[ebp]
  0009b	8b 40 04	 mov	 eax, DWORD PTR [eax+4]
  0009e	83 c0 04	 add	 eax, 4
  000a1	50		 push	 eax
  000a2	e8 00 00 00 00	 call	 ??$_Construct_in_place@PAU?$_Tree_node@U?$pair@QAVCResource@@K@std@@PAX@std@@AAPAU12@@std@@YAXAAPAU?$_Tree_node@U?$pair@QAVCResource@@K@std@@PAX@0@0@Z ; std::_Construct_in_place<std::_Tree_node<std::pair<CResource * const,unsigned long>,void *> *,std::_Tree_node<std::pair<CResource * const,unsigned long>,void *> * &>
  000a7	59		 pop	 ecx
  000a8	59		 pop	 ecx

; 809  :         _Construct_in_place(this->_Ptr->_Right, _Myhead);

  000a9	8d 45 0c	 lea	 eax, DWORD PTR __Myhead$[ebp]
  000ac	50		 push	 eax
  000ad	8b 45 f0	 mov	 eax, DWORD PTR _this$[ebp]
  000b0	8b 40 04	 mov	 eax, DWORD PTR [eax+4]
  000b3	83 c0 08	 add	 eax, 8
  000b6	50		 push	 eax
  000b7	e8 00 00 00 00	 call	 ??$_Construct_in_place@PAU?$_Tree_node@U?$pair@QAVCResource@@K@std@@PAX@std@@AAPAU12@@std@@YAXAAPAU?$_Tree_node@U?$pair@QAVCResource@@K@std@@PAX@0@0@Z ; std::_Construct_in_place<std::_Tree_node<std::pair<CResource * const,unsigned long>,void *> *,std::_Tree_node<std::pair<CResource * const,unsigned long>,void *> * &>
  000bc	59		 pop	 ecx
  000bd	59		 pop	 ecx

; 810  :         this->_Ptr->_Color = _Red;

  000be	8b 45 f0	 mov	 eax, DWORD PTR _this$[ebp]
  000c1	8b 40 04	 mov	 eax, DWORD PTR [eax+4]
  000c4	c6 40 0c 00	 mov	 BYTE PTR [eax+12], 0

; 811  :         this->_Ptr->_Isnil = false;

  000c8	8b 45 f0	 mov	 eax, DWORD PTR _this$[ebp]
  000cb	8b 40 04	 mov	 eax, DWORD PTR [eax+4]
  000ce	c6 40 0d 00	 mov	 BYTE PTR [eax+13], 0

; 812  :     }

  000d2	8b 45 f0	 mov	 eax, DWORD PTR _this$[ebp]
  000d5	8b 4d f4	 mov	 ecx, DWORD PTR __$EHRec$[ebp]
  000d8	64 89 0d 00 00
	00 00		 mov	 DWORD PTR fs:0, ecx
  000df	59		 pop	 ecx
  000e0	c9		 leave
  000e1	c2 0c 00	 ret	 12			; 0000000cH
_TEXT	ENDS
;	COMDAT text$x
text$x	SEGMENT
__unwindfunclet$??$?0U?$pair@QAVCResource@@K@std@@@?$_Tree_temp_node@V?$allocator@U?$_Tree_node@U?$pair@QAVCResource@@K@std@@PAX@std@@@std@@@std@@QAE@AAV?$allocator@U?$_Tree_node@U?$pair@QAVCResource@@K@std@@PAX@std@@@1@PAU?$_Tree_node@U?$pair@QAVCResource@@K@std@@PAX@1@$$QAU?$pair@QAVCResource@@K@1@@Z$1:
  00000	8b 4d f0	 mov	 ecx, DWORD PTR _this$[ebp]
  00003	e9 00 00 00 00	 jmp	 ??1?$_Alloc_construct_ptr@V?$allocator@U?$_Tree_node@U?$pair@QAVCResource@@K@std@@PAX@std@@@std@@@std@@QAE@XZ ; std::_Alloc_construct_ptr<std::allocator<std::_Tree_node<std::pair<CResource * const,unsigned long>,void *> > >::~_Alloc_construct_ptr<std::allocator<std::_Tree_node<std::pair<CResource * const,unsigned long>,void *> > >
  00008	cc		 int	 3
  00009	cc		 int	 3
  0000a	cc		 int	 3
  0000b	cc		 int	 3
  0000c	cc		 int	 3
__ehhandler$??$?0U?$pair@QAVCResource@@K@std@@@?$_Tree_temp_node@V?$allocator@U?$_Tree_node@U?$pair@QAVCResource@@K@std@@PAX@std@@@std@@@std@@QAE@AAV?$allocator@U?$_Tree_node@U?$pair@QAVCResource@@K@std@@PAX@std@@@1@PAU?$_Tree_node@U?$pair@QAVCResource@@K@std@@PAX@1@$$QAU?$pair@QAVCResource@@K@1@@Z:
  0000d	90		 npad	 1
  0000e	90		 npad	 1
  0000f	8b 54 24 08	 mov	 edx, DWORD PTR [esp+8]
  00013	8d 42 0c	 lea	 eax, DWORD PTR [edx+12]
  00016	8b 4a e0	 mov	 ecx, DWORD PTR [edx-32]
  00019	33 c8		 xor	 ecx, eax
  0001b	e8 00 00 00 00	 call	 @__security_check_cookie@4
  00020	b8 00 00 00 00	 mov	 eax, OFFSET __ehfuncinfo$??$?0U?$pair@QAVCResource@@K@std@@@?$_Tree_temp_node@V?$allocator@U?$_Tree_node@U?$pair@QAVCResource@@K@std@@PAX@std@@@std@@@std@@QAE@AAV?$allocator@U?$_Tree_node@U?$pair@QAVCResource@@K@std@@PAX@std@@@1@PAU?$_Tree_node@U?$pair@QAVCResource@@K@std@@PAX@1@$$QAU?$pair@QAVCResource@@K@1@@Z
  00025	e9 00 00 00 00	 jmp	 ___CxxFrameHandler3
text$x	ENDS
??$?0U?$pair@QAVCResource@@K@std@@@?$_Tree_temp_node@V?$allocator@U?$_Tree_node@U?$pair@QAVCResource@@K@std@@PAX@std@@@std@@@std@@QAE@AAV?$allocator@U?$_Tree_node@U?$pair@QAVCResource@@K@std@@PAX@std@@@1@PAU?$_Tree_node@U?$pair@QAVCResource@@K@std@@PAX@1@$$QAU?$pair@QAVCResource@@K@1@@Z ENDP ; std::_Tree_temp_node<std::allocator<std::_Tree_node<std::pair<CResource * const,unsigned long>,void *> > >::_Tree_temp_node<std::allocator<std::_Tree_node<std::pair<CResource * const,unsigned long>,void *> > ><std::pair<CResource * const,unsigned long> >
; Function compile flags: /Odspy
; File C:\Program Files (x86)\Microsoft Visual Studio\2019\Community\VC\Tools\MSVC\14.28.29333\include\xtree
; File C:\Program Files (x86)\Microsoft Visual Studio\2019\Community\VC\Tools\MSVC\14.28.29333\include\xstddef
; File C:\Program Files (x86)\Microsoft Visual Studio\2019\Community\VC\Tools\MSVC\14.28.29333\include\xtree
;	COMDAT ??1?$_Tree_temp_node@V?$allocator@U?$_Tree_node@U?$pair@QAVCResource@@K@std@@PAX@std@@@std@@@std@@QAE@XZ
_TEXT	SEGMENT
$T1 = -12						; size = 4
__Val$ = -8						; size = 4
_this$ = -4						; size = 4
??1?$_Tree_temp_node@V?$allocator@U?$_Tree_node@U?$pair@QAVCResource@@K@std@@PAX@std@@@std@@@std@@QAE@XZ PROC ; std::_Tree_temp_node<std::allocator<std::_Tree_node<std::pair<CResource * const,unsigned long>,void *> > >::~_Tree_temp_node<std::allocator<std::_Tree_node<std::pair<CResource * const,unsigned long>,void *> > >, COMDAT
; _this$ = ecx

; 817  :     ~_Tree_temp_node() {

  00000	55		 push	 ebp
  00001	8b ec		 mov	 ebp, esp
  00003	83 ec 0c	 sub	 esp, 12			; 0000000cH
  00006	89 4d fc	 mov	 DWORD PTR _this$[ebp], ecx

; 818  :         if (this->_Ptr) {

  00009	8b 45 fc	 mov	 eax, DWORD PTR _this$[ebp]
  0000c	83 78 04 00	 cmp	 DWORD PTR [eax+4], 0
  00010	74 3e		 je	 SHORT $LN9@Tree_temp_

; 819  :             _Destroy_in_place(this->_Ptr->_Left);

  00012	8b 45 fc	 mov	 eax, DWORD PTR _this$[ebp]
  00015	ff 70 04	 push	 DWORD PTR [eax+4]
  00018	e8 00 00 00 00	 call	 ??$_Destroy_in_place@PAU?$_Tree_node@U?$pair@QAVCResource@@K@std@@PAX@std@@@std@@YAXAAPAU?$_Tree_node@U?$pair@QAVCResource@@K@std@@PAX@0@@Z ; std::_Destroy_in_place<std::_Tree_node<std::pair<CResource * const,unsigned long>,void *> *>
  0001d	59		 pop	 ecx

; 820  :             _Destroy_in_place(this->_Ptr->_Parent);

  0001e	8b 45 fc	 mov	 eax, DWORD PTR _this$[ebp]
  00021	8b 40 04	 mov	 eax, DWORD PTR [eax+4]
  00024	83 c0 04	 add	 eax, 4
  00027	50		 push	 eax
  00028	e8 00 00 00 00	 call	 ??$_Destroy_in_place@PAU?$_Tree_node@U?$pair@QAVCResource@@K@std@@PAX@std@@@std@@YAXAAPAU?$_Tree_node@U?$pair@QAVCResource@@K@std@@PAX@0@@Z ; std::_Destroy_in_place<std::_Tree_node<std::pair<CResource * const,unsigned long>,void *> *>
  0002d	59		 pop	 ecx

; 821  :             _Destroy_in_place(this->_Ptr->_Right);

  0002e	8b 45 fc	 mov	 eax, DWORD PTR _this$[ebp]
  00031	8b 40 04	 mov	 eax, DWORD PTR [eax+4]
  00034	83 c0 08	 add	 eax, 8
  00037	50		 push	 eax
  00038	e8 00 00 00 00	 call	 ??$_Destroy_in_place@PAU?$_Tree_node@U?$pair@QAVCResource@@K@std@@PAX@std@@@std@@YAXAAPAU?$_Tree_node@U?$pair@QAVCResource@@K@std@@PAX@0@@Z ; std::_Destroy_in_place<std::_Tree_node<std::pair<CResource * const,unsigned long>,void *> *>
  0003d	59		 pop	 ecx

; 822  :             _Alnode_traits::destroy(this->_Al, _STD addressof(this->_Ptr->_Myval));

  0003e	8b 45 fc	 mov	 eax, DWORD PTR _this$[ebp]
  00041	8b 40 04	 mov	 eax, DWORD PTR [eax+4]
  00044	83 c0 10	 add	 eax, 16			; 00000010H
  00047	89 45 f8	 mov	 DWORD PTR __Val$[ebp], eax
; File C:\Program Files (x86)\Microsoft Visual Studio\2019\Community\VC\Tools\MSVC\14.28.29333\include\xstddef

; 275  :     return __builtin_addressof(_Val);

  0004a	8b 45 f8	 mov	 eax, DWORD PTR __Val$[ebp]
  0004d	89 45 f4	 mov	 DWORD PTR $T1[ebp], eax
$LN9@Tree_temp_:
  00050	8b 4d fc	 mov	 ecx, DWORD PTR _this$[ebp]
  00053	e8 00 00 00 00	 call	 ??1?$_Alloc_construct_ptr@V?$allocator@U?$_Tree_node@U?$pair@QAVCResource@@K@std@@PAX@std@@@std@@@std@@QAE@XZ ; std::_Alloc_construct_ptr<std::allocator<std::_Tree_node<std::pair<CResource * const,unsigned long>,void *> > >::~_Alloc_construct_ptr<std::allocator<std::_Tree_node<std::pair<CResource * const,unsigned long>,void *> > >
; File C:\Program Files (x86)\Microsoft Visual Studio\2019\Community\VC\Tools\MSVC\14.28.29333\include\xtree

; 824  :     }

  00058	c9		 leave
  00059	c3		 ret	 0
??1?$_Tree_temp_node@V?$allocator@U?$_Tree_node@U?$pair@QAVCResource@@K@std@@PAX@std@@@std@@@std@@QAE@XZ ENDP ; std::_Tree_temp_node<std::allocator<std::_Tree_node<std::pair<CResource * const,unsigned long>,void *> > >::~_Tree_temp_node<std::allocator<std::_Tree_node<std::pair<CResource * const,unsigned long>,void *> > >
_TEXT	ENDS
; Function compile flags: /Odspy
; File C:\Program Files (x86)\Microsoft Visual Studio\2019\Community\VC\Tools\MSVC\14.28.29333\include\xmemory
;	COMDAT ??1?$_Alloc_construct_ptr@V?$allocator@U?$_Tree_node@U?$pair@QAVCResource@@K@std@@PAX@std@@@std@@@std@@QAE@XZ
_TEXT	SEGMENT
_this$ = -12						; size = 4
__Ptr$ = -8						; size = 4
_this$ = -4						; size = 4
??1?$_Alloc_construct_ptr@V?$allocator@U?$_Tree_node@U?$pair@QAVCResource@@K@std@@PAX@std@@@std@@@std@@QAE@XZ PROC ; std::_Alloc_construct_ptr<std::allocator<std::_Tree_node<std::pair<CResource * const,unsigned long>,void *> > >::~_Alloc_construct_ptr<std::allocator<std::_Tree_node<std::pair<CResource * const,unsigned long>,void *> > >, COMDAT
; _this$ = ecx

; 1056 :     ~_Alloc_construct_ptr() { // if this instance is engaged, deallocate storage

  00000	55		 push	 ebp
  00001	8b ec		 mov	 ebp, esp
  00003	83 ec 0c	 sub	 esp, 12			; 0000000cH
  00006	89 4d fc	 mov	 DWORD PTR _this$[ebp], ecx

; 1057 :         if (_Ptr) {

  00009	8b 45 fc	 mov	 eax, DWORD PTR _this$[ebp]
  0000c	83 78 04 00	 cmp	 DWORD PTR [eax+4], 0
  00010	74 22		 je	 SHORT $LN3@Alloc_cons

; 1058 :             _Al.deallocate(_Ptr, 1);

  00012	8b 45 fc	 mov	 eax, DWORD PTR _this$[ebp]
  00015	8b 40 04	 mov	 eax, DWORD PTR [eax+4]
