; Listing generated by Microsoft (R) Optimizing Compiler Version 19.28.29335.0 

	TITLE	D:\Metin2 Server Files\mainline\SRC_2014\Metin2Client\EterLib\ScreenFilter.cpp
	.686P
	.XMM
	include listing.inc
	.model	flat

INCLUDELIB LIBCMT
INCLUDELIB OLDNAMES

PUBLIC	??_H@YGXPAXIIP6EPAX0@Z@Z			; `vector constructor iterator'
PUBLIC	??0CScreenFilter@@QAE@XZ			; CScreenFilter::CScreenFilter
PUBLIC	??1CScreenFilter@@UAE@XZ			; CScreenFilter::~CScreenFilter
PUBLIC	?SetEnable@CScreenFilter@@QAEXH@Z		; CScreenFilter::SetEnable
PUBLIC	?SetBlendType@CScreenFilter@@QAEXEE@Z		; CScreenFilter::SetBlendType
PUBLIC	?SetColor@CScreenFilter@@QAEXABUD3DXCOLOR@@@Z	; CScreenFilter::SetColor
PUBLIC	?Render@CScreenFilter@@QAEXXZ			; CScreenFilter::Render
PUBLIC	??_GCScreenFilter@@UAEPAXI@Z			; CScreenFilter::`scalar deleting destructor'
PUBLIC	??_7CScreenFilter@@6B@				; CScreenFilter::`vftable'
PUBLIC	?ms_singleton@?$CSingleton@VCStateManager@@@@0PAVCStateManager@@A ; CSingleton<CStateManager>::ms_singleton
PUBLIC	??_R4CScreenFilter@@6B@				; CScreenFilter::`RTTI Complete Object Locator'
PUBLIC	??_R0?AVCScreenFilter@@@8			; CScreenFilter `RTTI Type Descriptor'
PUBLIC	??_R3CScreenFilter@@8				; CScreenFilter::`RTTI Class Hierarchy Descriptor'
PUBLIC	??_R2CScreenFilter@@8				; CScreenFilter::`RTTI Base Class Array'
PUBLIC	??_R1A@?0A@EA@CScreenFilter@@8			; CScreenFilter::`RTTI Base Class Descriptor at (0,-1,0,64)'
PUBLIC	??_R1A@?0A@EA@CScreen@@8			; CScreen::`RTTI Base Class Descriptor at (0,-1,0,64)'
PUBLIC	??_R0?AVCScreen@@@8				; CScreen `RTTI Type Descriptor'
PUBLIC	??_R3CScreen@@8					; CScreen::`RTTI Class Hierarchy Descriptor'
PUBLIC	??_R2CScreen@@8					; CScreen::`RTTI Base Class Array'
PUBLIC	??_R1A@?0A@EA@CGraphicCollisionObject@@8	; CGraphicCollisionObject::`RTTI Base Class Descriptor at (0,-1,0,64)'
PUBLIC	??_R0?AVCGraphicCollisionObject@@@8		; CGraphicCollisionObject `RTTI Type Descriptor'
PUBLIC	??_R3CGraphicCollisionObject@@8			; CGraphicCollisionObject::`RTTI Class Hierarchy Descriptor'
PUBLIC	??_R2CGraphicCollisionObject@@8			; CGraphicCollisionObject::`RTTI Base Class Array'
PUBLIC	??_R1A@?0A@EA@CGraphicBase@@8			; CGraphicBase::`RTTI Base Class Descriptor at (0,-1,0,64)'
PUBLIC	??_R0?AVCGraphicBase@@@8			; CGraphicBase `RTTI Type Descriptor'
PUBLIC	??_R3CGraphicBase@@8				; CGraphicBase::`RTTI Class Hierarchy Descriptor'
PUBLIC	??_R2CGraphicBase@@8				; CGraphicBase::`RTTI Base Class Array'
PUBLIC	__real@43c80000
EXTRN	??3@YAXPAXI@Z:PROC				; operator delete
EXTRN	?SetOrtho2D@CGraphicBase@@QAEXMMM@Z:PROC	; CGraphicBase::SetOrtho2D
EXTRN	??0CScreen@@QAE@XZ:PROC				; CScreen::CScreen
EXTRN	??1CScreen@@UAE@XZ:PROC				; CScreen::~CScreen
EXTRN	?RenderBar2d@CScreen@@QAEXMMMMM@Z:PROC		; CScreen::RenderBar2d
EXTRN	?SetDiffuseColor@CScreen@@QAEXMMMM@Z:PROC	; CScreen::SetDiffuseColor
EXTRN	??_ECScreenFilter@@UAEPAXI@Z:PROC		; CScreenFilter::`vector deleting destructor'
EXTRN	?SaveRenderState@CStateManager@@QAEXW4_D3DRENDERSTATETYPE@@K@Z:PROC ; CStateManager::SaveRenderState
EXTRN	?RestoreRenderState@CStateManager@@QAEXW4_D3DRENDERSTATETYPE@@@Z:PROC ; CStateManager::RestoreRenderState
EXTRN	?SaveTransform@CStateManager@@QAEXW4_D3DTRANSFORMSTATETYPE@@PBU_D3DMATRIX@@@Z:PROC ; CStateManager::SaveTransform
EXTRN	?RestoreTransform@CStateManager@@QAEXW4_D3DTRANSFORMSTATETYPE@@@Z:PROC ; CStateManager::RestoreTransform
EXTRN	?SetTransform@CStateManager@@QAEXW4_D3DTRANSFORMSTATETYPE@@PBU_D3DMATRIX@@@Z:PROC ; CStateManager::SetTransform
EXTRN	??_7type_info@@6B@:QWORD			; type_info::`vftable'
EXTRN	?ms_matIdentity@CGraphicBase@@1UD3DXMATRIX@@A:BYTE ; CGraphicBase::ms_matIdentity
EXTRN	?ms_iWidth@CGraphicBase@@1HA:DWORD		; CGraphicBase::ms_iWidth
EXTRN	?ms_iHeight@CGraphicBase@@1HA:DWORD		; CGraphicBase::ms_iHeight
EXTRN	__fltused:DWORD
;	COMDAT ?ms_singleton@?$CSingleton@VCStateManager@@@@0PAVCStateManager@@A
_BSS	SEGMENT
?ms_singleton@?$CSingleton@VCStateManager@@@@0PAVCStateManager@@A DD 01H DUP (?) ; CSingleton<CStateManager>::ms_singleton
_BSS	ENDS
;	COMDAT __real@43c80000
CONST	SEGMENT
__real@43c80000 DD 043c80000r			; 400
CONST	ENDS
;	COMDAT ??_R2CGraphicBase@@8
rdata$r	SEGMENT
??_R2CGraphicBase@@8 DD FLAT:??_R1A@?0A@EA@CGraphicBase@@8 ; CGraphicBase::`RTTI Base Class Array'
rdata$r	ENDS
;	COMDAT ??_R3CGraphicBase@@8
rdata$r	SEGMENT
??_R3CGraphicBase@@8 DD 00H				; CGraphicBase::`RTTI Class Hierarchy Descriptor'
	DD	00H
	DD	01H
	DD	FLAT:??_R2CGraphicBase@@8
rdata$r	ENDS
;	COMDAT ??_R0?AVCGraphicBase@@@8
data$rs	SEGMENT
??_R0?AVCGraphicBase@@@8 DD FLAT:??_7type_info@@6B@	; CGraphicBase `RTTI Type Descriptor'
	DD	00H
	DB	'.?AVCGraphicBase@@', 00H
data$rs	ENDS
;	COMDAT ??_R1A@?0A@EA@CGraphicBase@@8
rdata$r	SEGMENT
??_R1A@?0A@EA@CGraphicBase@@8 DD FLAT:??_R0?AVCGraphicBase@@@8 ; CGraphicBase::`RTTI Base Class Descriptor at (0,-1,0,64)'
	DD	00H
	DD	00H
	DD	0ffffffffH
	DD	00H
	DD	040H
	DD	FLAT:??_R3CGraphicBase@@8
rdata$r	ENDS
;	COMDAT ??_R2CGraphicCollisionObject@@8
rdata$r	SEGMENT
??_R2CGraphicCollisionObject@@8 DD FLAT:??_R1A@?0A@EA@CGraphicCollisionObject@@8 ; CGraphicCollisionObject::`RTTI Base Class Array'
	DD	FLAT:??_R1A@?0A@EA@CGraphicBase@@8
rdata$r	ENDS
;	COMDAT ??_R3CGraphicCollisionObject@@8
rdata$r	SEGMENT
??_R3CGraphicCollisionObject@@8 DD 00H			; CGraphicCollisionObject::`RTTI Class Hierarchy Descriptor'
	DD	00H
	DD	02H
	DD	FLAT:??_R2CGraphicCollisionObject@@8
rdata$r	ENDS
;	COMDAT ??_R0?AVCGraphicCollisionObject@@@8
data$rs	SEGMENT
??_R0?AVCGraphicCollisionObject@@@8 DD FLAT:??_7type_info@@6B@ ; CGraphicCollisionObject `RTTI Type Descriptor'
	DD	00H
	DB	'.?AVCGraphicCollisionObject@@', 00H
data$rs	ENDS
;	COMDAT ??_R1A@?0A@EA@CGraphicCollisionObject@@8
rdata$r	SEGMENT
??_R1A@?0A@EA@CGraphicCollisionObject@@8 DD FLAT:??_R0?AVCGraphicCollisionObject@@@8 ; CGraphicCollisionObject::`RTTI Base Class Descriptor at (0,-1,0,64)'
	DD	01H
	DD	00H
	DD	0ffffffffH
	DD	00H
	DD	040H
	DD	FLAT:??_R3CGraphicCollisionObject@@8
rdata$r	ENDS
;	COMDAT ??_R2CScreen@@8
rdata$r	SEGMENT
??_R2CScreen@@8 DD FLAT:??_R1A@?0A@EA@CScreen@@8	; CScreen::`RTTI Base Class Array'
	DD	FLAT:??_R1A@?0A@EA@CGraphicCollisionObject@@8
	DD	FLAT:??_R1A@?0A@EA@CGraphicBase@@8
rdata$r	ENDS
;	COMDAT ??_R3CScreen@@8
rdata$r	SEGMENT
??_R3CScreen@@8 DD 00H					; CScreen::`RTTI Class Hierarchy Descriptor'
	DD	00H
	DD	03H
	DD	FLAT:??_R2CScreen@@8
rdata$r	ENDS
;	COMDAT ??_R0?AVCScreen@@@8
data$rs	SEGMENT
??_R0?AVCScreen@@@8 DD FLAT:??_7type_info@@6B@		; CScreen `RTTI Type Descriptor'
	DD	00H
	DB	'.?AVCScreen@@', 00H
data$rs	ENDS
;	COMDAT ??_R1A@?0A@EA@CScreen@@8
rdata$r	SEGMENT
??_R1A@?0A@EA@CScreen@@8 DD FLAT:??_R0?AVCScreen@@@8	; CScreen::`RTTI Base Class Descriptor at (0,-1,0,64)'
	DD	02H
	DD	00H
	DD	0ffffffffH
	DD	00H
	DD	040H
	DD	FLAT:??_R3CScreen@@8
rdata$r	ENDS
;	COMDAT ??_R1A@?0A@EA@CScreenFilter@@8
rdata$r	SEGMENT
??_R1A@?0A@EA@CScreenFilter@@8 DD FLAT:??_R0?AVCScreenFilter@@@8 ; CScreenFilter::`RTTI Base Class Descriptor at (0,-1,0,64)'
	DD	03H
	DD	00H
	DD	0ffffffffH
	DD	00H
	DD	040H
	DD	FLAT:??_R3CScreenFilter@@8
rdata$r	ENDS
;	COMDAT ??_R2CScreenFilter@@8
rdata$r	SEGMENT
??_R2CScreenFilter@@8 DD FLAT:??_R1A@?0A@EA@CScreenFilter@@8 ; CScreenFilter::`RTTI Base Class Array'
	DD	FLAT:??_R1A@?0A@EA@CScreen@@8
	DD	FLAT:??_R1A@?0A@EA@CGraphicCollisionObject@@8
	DD	FLAT:??_R1A@?0A@EA@CGraphicBase@@8
rdata$r	ENDS
;	COMDAT ??_R3CScreenFilter@@8
rdata$r	SEGMENT
??_R3CScreenFilter@@8 DD 00H				; CScreenFilter::`RTTI Class Hierarchy Descriptor'
	DD	00H
	DD	04H
	DD	FLAT:??_R2CScreenFilter@@8
rdata$r	ENDS
;	COMDAT ??_R0?AVCScreenFilter@@@8
data$rs	SEGMENT
??_R0?AVCScreenFilter@@@8 DD FLAT:??_7type_info@@6B@	; CScreenFilter `RTTI Type Descriptor'
	DD	00H
	DB	'.?AVCScreenFilter@@', 00H
data$rs	ENDS
;	COMDAT ??_R4CScreenFilter@@6B@
rdata$r	SEGMENT
??_R4CScreenFilter@@6B@ DD 00H				; CScreenFilter::`RTTI Complete Object Locator'
	DD	00H
	DD	00H
	DD	FLAT:??_R0?AVCScreenFilter@@@8
	DD	FLAT:??_R3CScreenFilter@@8
rdata$r	ENDS
;	COMDAT ??_7CScreenFilter@@6B@
CONST	SEGMENT
??_7CScreenFilter@@6B@ DD FLAT:??_R4CScreenFilter@@6B@	; CScreenFilter::`vftable'
	DD	FLAT:??_ECScreenFilter@@UAEPAXI@Z
CONST	ENDS
; Function compile flags: /Odspy
;	COMDAT ??_GCScreenFilter@@UAEPAXI@Z
_TEXT	SEGMENT
_this$ = -4						; size = 4
___flags$ = 8						; size = 4
??_GCScreenFilter@@UAEPAXI@Z PROC			; CScreenFilter::`scalar deleting destructor', COMDAT
; _this$ = ecx
  00000	55		 push	 ebp
  00001	8b ec		 mov	 ebp, esp
  00003	51		 push	 ecx
  00004	89 4d fc	 mov	 DWORD PTR _this$[ebp], ecx
  00007	8b 4d fc	 mov	 ecx, DWORD PTR _this$[ebp]
  0000a	e8 00 00 00 00	 call	 ??1CScreenFilter@@UAE@XZ ; CScreenFilter::~CScreenFilter
  0000f	8b 45 08	 mov	 eax, DWORD PTR ___flags$[ebp]
  00012	83 e0 01	 and	 eax, 1
  00015	74 0c		 je	 SHORT $LN2@scalar
  00017	6a 1c		 push	 28			; 0000001cH
  00019	ff 75 fc	 push	 DWORD PTR _this$[ebp]
  0001c	e8 00 00 00 00	 call	 ??3@YAXPAXI@Z		; operator delete
  00021	59		 pop	 ecx
  00022	59		 pop	 ecx
$LN2@scalar:
  00023	8b 45 fc	 mov	 eax, DWORD PTR _this$[ebp]
  00026	c9		 leave
  00027	c2 04 00	 ret	 4
??_GCScreenFilter@@UAEPAXI@Z ENDP			; CScreenFilter::`scalar deleting destructor'
_TEXT	ENDS
; Function compile flags: /Odspy
; File D:\Metin2 Server Files\mainline\SRC_2014\Metin2Client\EterLib\ScreenFilter.cpp
;	COMDAT ?Render@CScreenFilter@@QAEXXZ
_TEXT	SEGMENT
_this$ = -4						; size = 4
?Render@CScreenFilter@@QAEXXZ PROC			; CScreenFilter::Render, COMDAT
; _this$ = ecx

; 6    : {

  00000	55		 push	 ebp
  00001	8b ec		 mov	 ebp, esp
  00003	51		 push	 ecx
  00004	89 4d fc	 mov	 DWORD PTR _this$[ebp], ecx

; 7    : 	if (!m_bEnable)

  00007	8b 45 fc	 mov	 eax, DWORD PTR _this$[ebp]
  0000a	83 78 04 00	 cmp	 DWORD PTR [eax+4], 0
  0000e	75 05		 jne	 SHORT $LN2@Render

; 8    : 		return;

  00010	e9 64 01 00 00	 jmp	 $LN1@Render
$LN2@Render:

; 9    : 
; 10   : 	STATEMANAGER.SaveTransform(D3DTS_PROJECTION, &ms_matIdentity);

  00015	68 00 00 00 00	 push	 OFFSET ?ms_matIdentity@CGraphicBase@@1UD3DXMATRIX@@A ; CGraphicBase::ms_matIdentity
  0001a	6a 03		 push	 3
  0001c	8b 0d 00 00 00
	00		 mov	 ecx, DWORD PTR ?ms_singleton@?$CSingleton@VCStateManager@@@@0PAVCStateManager@@A ; CSingleton<CStateManager>::ms_singleton
  00022	e8 00 00 00 00	 call	 ?SaveTransform@CStateManager@@QAEXW4_D3DTRANSFORMSTATETYPE@@PBU_D3DMATRIX@@@Z ; CStateManager::SaveTransform

; 11   :  	STATEMANAGER.SaveTransform(D3DTS_VIEW, &ms_matIdentity);

  00027	68 00 00 00 00	 push	 OFFSET ?ms_matIdentity@CGraphicBase@@1UD3DXMATRIX@@A ; CGraphicBase::ms_matIdentity
  0002c	6a 02		 push	 2
  0002e	8b 0d 00 00 00
	00		 mov	 ecx, DWORD PTR ?ms_singleton@?$CSingleton@VCStateManager@@@@0PAVCStateManager@@A ; CSingleton<CStateManager>::ms_singleton
  00034	e8 00 00 00 00	 call	 ?SaveTransform@CStateManager@@QAEXW4_D3DTRANSFORMSTATETYPE@@PBU_D3DMATRIX@@@Z ; CStateManager::SaveTransform

; 12   :  	STATEMANAGER.SetTransform(D3DTS_WORLD, &ms_matIdentity);

  00039	68 00 00 00 00	 push	 OFFSET ?ms_matIdentity@CGraphicBase@@1UD3DXMATRIX@@A ; CGraphicBase::ms_matIdentity
  0003e	68 00 01 00 00	 push	 256			; 00000100H
  00043	8b 0d 00 00 00
	00		 mov	 ecx, DWORD PTR ?ms_singleton@?$CSingleton@VCStateManager@@@@0PAVCStateManager@@A ; CSingleton<CStateManager>::ms_singleton
  00049	e8 00 00 00 00	 call	 ?SetTransform@CStateManager@@QAEXW4_D3DTRANSFORMSTATETYPE@@PBU_D3DMATRIX@@@Z ; CStateManager::SetTransform

; 13   : 	STATEMANAGER.SaveRenderState(D3DRS_ALPHABLENDENABLE, TRUE);

  0004e	6a 01		 push	 1
  00050	6a 1b		 push	 27			; 0000001bH
  00052	8b 0d 00 00 00
	00		 mov	 ecx, DWORD PTR ?ms_singleton@?$CSingleton@VCStateManager@@@@0PAVCStateManager@@A ; CSingleton<CStateManager>::ms_singleton
  00058	e8 00 00 00 00	 call	 ?SaveRenderState@CStateManager@@QAEXW4_D3DRENDERSTATETYPE@@K@Z ; CStateManager::SaveRenderState

; 14   : 	STATEMANAGER.SaveRenderState(D3DRS_SRCBLEND, m_bySrcType);

  0005d	8b 45 fc	 mov	 eax, DWORD PTR _this$[ebp]
  00060	0f b6 40 08	 movzx	 eax, BYTE PTR [eax+8]
  00064	50		 push	 eax
  00065	6a 13		 push	 19			; 00000013H
  00067	8b 0d 00 00 00
	00		 mov	 ecx, DWORD PTR ?ms_singleton@?$CSingleton@VCStateManager@@@@0PAVCStateManager@@A ; CSingleton<CStateManager>::ms_singleton
  0006d	e8 00 00 00 00	 call	 ?SaveRenderState@CStateManager@@QAEXW4_D3DRENDERSTATETYPE@@K@Z ; CStateManager::SaveRenderState

; 15   : 	STATEMANAGER.SaveRenderState(D3DRS_DESTBLEND, m_byDestType);

  00072	8b 45 fc	 mov	 eax, DWORD PTR _this$[ebp]
  00075	0f b6 40 09	 movzx	 eax, BYTE PTR [eax+9]
  00079	50		 push	 eax
  0007a	6a 14		 push	 20			; 00000014H
  0007c	8b 0d 00 00 00
	00		 mov	 ecx, DWORD PTR ?ms_singleton@?$CSingleton@VCStateManager@@@@0PAVCStateManager@@A ; CSingleton<CStateManager>::ms_singleton
  00082	e8 00 00 00 00	 call	 ?SaveRenderState@CStateManager@@QAEXW4_D3DRENDERSTATETYPE@@K@Z ; CStateManager::SaveRenderState

; 16   : 
; 17   : 	SetOrtho2D(CScreen::ms_iWidth, CScreen::ms_iHeight, 400.0f);

  00087	51		 push	 ecx
  00088	f3 0f 10 05 00
	00 00 00	 movss	 xmm0, DWORD PTR __real@43c80000
  00090	f3 0f 11 04 24	 movss	 DWORD PTR [esp], xmm0
  00095	f3 0f 2a 05 00
	00 00 00	 cvtsi2ss xmm0, DWORD PTR ?ms_iHeight@CGraphicBase@@1HA ; CGraphicBase::ms_iHeight
  0009d	51		 push	 ecx
  0009e	f3 0f 11 04 24	 movss	 DWORD PTR [esp], xmm0
  000a3	f3 0f 2a 05 00
	00 00 00	 cvtsi2ss xmm0, DWORD PTR ?ms_iWidth@CGraphicBase@@1HA ; CGraphicBase::ms_iWidth
  000ab	51		 push	 ecx
  000ac	f3 0f 11 04 24	 movss	 DWORD PTR [esp], xmm0
  000b1	8b 4d fc	 mov	 ecx, DWORD PTR _this$[ebp]
  000b4	e8 00 00 00 00	 call	 ?SetOrtho2D@CGraphicBase@@QAEXMMM@Z ; CGraphicBase::SetOrtho2D

; 18   : 	SetDiffuseColor(m_Color.r, m_Color.g, m_Color.b, m_Color.a);

  000b9	8b 45 fc	 mov	 eax, DWORD PTR _this$[ebp]
  000bc	51		 push	 ecx
  000bd	f3 0f 10 40 18	 movss	 xmm0, DWORD PTR [eax+24]
  000c2	f3 0f 11 04 24	 movss	 DWORD PTR [esp], xmm0
  000c7	8b 45 fc	 mov	 eax, DWORD PTR _this$[ebp]
  000ca	51		 push	 ecx
  000cb	f3 0f 10 40 14	 movss	 xmm0, DWORD PTR [eax+20]
  000d0	f3 0f 11 04 24	 movss	 DWORD PTR [esp], xmm0
  000d5	8b 45 fc	 mov	 eax, DWORD PTR _this$[ebp]
  000d8	51		 push	 ecx
  000d9	f3 0f 10 40 10	 movss	 xmm0, DWORD PTR [eax+16]
  000de	f3 0f 11 04 24	 movss	 DWORD PTR [esp], xmm0
  000e3	8b 45 fc	 mov	 eax, DWORD PTR _this$[ebp]
  000e6	51		 push	 ecx
  000e7	f3 0f 10 40 0c	 movss	 xmm0, DWORD PTR [eax+12]
  000ec	f3 0f 11 04 24	 movss	 DWORD PTR [esp], xmm0
  000f1	8b 4d fc	 mov	 ecx, DWORD PTR _this$[ebp]
  000f4	e8 00 00 00 00	 call	 ?SetDiffuseColor@CScreen@@QAEXMMMM@Z ; CScreen::SetDiffuseColor

; 19   : 	RenderBar2d(0, 0, CScreen::ms_iWidth, CScreen::ms_iHeight);

  000f9	51		 push	 ecx
  000fa	0f 57 c0	 xorps	 xmm0, xmm0
  000fd	f3 0f 11 04 24	 movss	 DWORD PTR [esp], xmm0
  00102	f3 0f 2a 05 00
	00 00 00	 cvtsi2ss xmm0, DWORD PTR ?ms_iHeight@CGraphicBase@@1HA ; CGraphicBase::ms_iHeight
  0010a	51		 push	 ecx
  0010b	f3 0f 11 04 24	 movss	 DWORD PTR [esp], xmm0
  00110	f3 0f 2a 05 00
	00 00 00	 cvtsi2ss xmm0, DWORD PTR ?ms_iWidth@CGraphicBase@@1HA ; CGraphicBase::ms_iWidth
  00118	51		 push	 ecx
  00119	f3 0f 11 04 24	 movss	 DWORD PTR [esp], xmm0
  0011e	51		 push	 ecx
  0011f	0f 57 c0	 xorps	 xmm0, xmm0
  00122	f3 0f 11 04 24	 movss	 DWORD PTR [esp], xmm0
  00127	51		 push	 ecx
  00128	0f 57 c0	 xorps	 xmm0, xmm0
  0012b	f3 0f 11 04 24	 movss	 DWORD PTR [esp], xmm0
  00130	8b 4d fc	 mov	 ecx, DWORD PTR _this$[ebp]
  00133	e8 00 00 00 00	 call	 ?RenderBar2d@CScreen@@QAEXMMMMM@Z ; CScreen::RenderBar2d

; 20   : 
; 21   : 	STATEMANAGER.RestoreRenderState(D3DRS_ALPHABLENDENABLE);

  00138	6a 1b		 push	 27			; 0000001bH
  0013a	8b 0d 00 00 00
	00		 mov	 ecx, DWORD PTR ?ms_singleton@?$CSingleton@VCStateManager@@@@0PAVCStateManager@@A ; CSingleton<CStateManager>::ms_singleton
  00140	e8 00 00 00 00	 call	 ?RestoreRenderState@CStateManager@@QAEXW4_D3DRENDERSTATETYPE@@@Z ; CStateManager::RestoreRenderState

; 22   : 	STATEMANAGER.RestoreRenderState(D3DRS_SRCBLEND);

  00145	6a 13		 push	 19			; 00000013H
  00147	8b 0d 00 00 00
	00		 mov	 ecx, DWORD PTR ?ms_singleton@?$CSingleton@VCStateManager@@@@0PAVCStateManager@@A ; CSingleton<CStateManager>::ms_singleton
  0014d	e8 00 00 00 00	 call	 ?RestoreRenderState@CStateManager@@QAEXW4_D3DRENDERSTATETYPE@@@Z ; CStateManager::RestoreRenderState

; 23   : 	STATEMANAGER.RestoreRenderState(D3DRS_DESTBLEND);

  00152	6a 14		 push	 20			; 00000014H
  00154	8b 0d 00 00 00
	00		 mov	 ecx, DWORD PTR ?ms_singleton@?$CSingleton@VCStateManager@@@@0PAVCStateManager@@A ; CSingleton<CStateManager>::ms_singleton
  0015a	e8 00 00 00 00	 call	 ?RestoreRenderState@CStateManager@@QAEXW4_D3DRENDERSTATETYPE@@@Z ; CStateManager::RestoreRenderState

; 24   :  	STATEMANAGER.RestoreTransform(D3DTS_VIEW);

  0015f	6a 02		 push	 2
  00161	8b 0d 00 00 00
	00		 mov	 ecx, DWORD PTR ?ms_singleton@?$CSingleton@VCStateManager@@@@0PAVCStateManager@@A ; CSingleton<CStateManager>::ms_singleton
  00167	e8 00 00 00 00	 call	 ?RestoreTransform@CStateManager@@QAEXW4_D3DTRANSFORMSTATETYPE@@@Z ; CStateManager::RestoreTransform

; 25   : 	STATEMANAGER.RestoreTransform(D3DTS_PROJECTION);

  0016c	6a 03		 push	 3
  0016e	8b 0d 00 00 00
	00		 mov	 ecx, DWORD PTR ?ms_singleton@?$CSingleton@VCStateManager@@@@0PAVCStateManager@@A ; CSingleton<CStateManager>::ms_singleton
  00174	e8 00 00 00 00	 call	 ?RestoreTransform@CStateManager@@QAEXW4_D3DTRANSFORMSTATETYPE@@@Z ; CStateManager::RestoreTransform
$LN1@Render:

; 26   : }

  00179	c9		 leave
  0017a	c3		 ret	 0
?Render@CScreenFilter@@QAEXXZ ENDP			; CScreenFilter::Render
_TEXT	ENDS
; Function compile flags: /Odspy
; File D:\Metin2 Server Files\mainline\SRC_2014\Metin2Client\EterLib\ScreenFilter.cpp
;	COMDAT ?SetColor@CScreenFilter@@QAEXABUD3DXCOLOR@@@Z
_TEXT	SEGMENT
_this$ = -4						; size = 4
_c_rColor$ = 8						; size = 4
?SetColor@CScreenFilter@@QAEXABUD3DXCOLOR@@@Z PROC	; CScreenFilter::SetColor, COMDAT
; _this$ = ecx

; 39   : {

  00000	55		 push	 ebp
  00001	8b ec		 mov	 ebp, esp
  00003	51		 push	 ecx
  00004	56		 push	 esi
  00005	57		 push	 edi
  00006	89 4d fc	 mov	 DWORD PTR _this$[ebp], ecx

; 40   : 	m_Color = c_rColor;

  00009	8b 7d fc	 mov	 edi, DWORD PTR _this$[ebp]
  0000c	83 c7 0c	 add	 edi, 12			; 0000000cH
  0000f	8b 75 08	 mov	 esi, DWORD PTR _c_rColor$[ebp]
  00012	a5		 movsd
  00013	a5		 movsd
  00014	a5		 movsd
  00015	a5		 movsd

; 41   : }

  00016	5f		 pop	 edi
  00017	5e		 pop	 esi
  00018	c9		 leave
  00019	c2 04 00	 ret	 4
?SetColor@CScreenFilter@@QAEXABUD3DXCOLOR@@@Z ENDP	; CScreenFilter::SetColor
_TEXT	ENDS
; Function compile flags: /Odspy
; File D:\Metin2 Server Files\mainline\SRC_2014\Metin2Client\EterLib\ScreenFilter.cpp
;	COMDAT ?SetBlendType@CScreenFilter@@QAEXEE@Z
_TEXT	SEGMENT
_this$ = -4						; size = 4
_bySrcType$ = 8						; size = 1
_byDestType$ = 12					; size = 1
?SetBlendType@CScreenFilter@@QAEXEE@Z PROC		; CScreenFilter::SetBlendType, COMDAT
; _this$ = ecx

; 34   : {

  00000	55		 push	 ebp
  00001	8b ec		 mov	 ebp, esp
  00003	51		 push	 ecx
  00004	89 4d fc	 mov	 DWORD PTR _this$[ebp], ecx

; 35   : 	m_bySrcType = bySrcType;

  00007	8b 45 fc	 mov	 eax, DWORD PTR _this$[ebp]
  0000a	8a 4d 08	 mov	 cl, BYTE PTR _bySrcType$[ebp]
  0000d	88 48 08	 mov	 BYTE PTR [eax+8], cl

; 36   : 	m_byDestType = byDestType;

  00010	8b 45 fc	 mov	 eax, DWORD PTR _this$[ebp]
  00013	8a 4d 0c	 mov	 cl, BYTE PTR _byDestType$[ebp]
  00016	88 48 09	 mov	 BYTE PTR [eax+9], cl

; 37   : }

  00019	c9		 leave
  0001a	c2 08 00	 ret	 8
?SetBlendType@CScreenFilter@@QAEXEE@Z ENDP		; CScreenFilter::SetBlendType
_TEXT	ENDS
; Function compile flags: /Odspy
; File D:\Metin2 Server Files\mainline\SRC_2014\Metin2Client\EterLib\ScreenFilter.cpp
;	COMDAT ?SetEnable@CScreenFilter@@QAEXH@Z
_TEXT	SEGMENT
_this$ = -4						; size = 4
___formal$ = 8						; size = 4
?SetEnable@CScreenFilter@@QAEXH@Z PROC			; CScreenFilter::SetEnable, COMDAT
; _this$ = ecx

; 29   : {

  00000	55		 push	 ebp
  00001	8b ec		 mov	 ebp, esp
  00003	51		 push	 ecx
  00004	89 4d fc	 mov	 DWORD PTR _this$[ebp], ecx

; 30   : 	m_bEnable = FALSE;

  00007	8b 45 fc	 mov	 eax, DWORD PTR _this$[ebp]
  0000a	83 60 04 00	 and	 DWORD PTR [eax+4], 0

; 31   : }

  0000e	c9		 leave
  0000f	c2 04 00	 ret	 4
?SetEnable@CScreenFilter@@QAEXH@Z ENDP			; CScreenFilter::SetEnable
_TEXT	ENDS
; Function compile flags: /Odspy
; File D:\Metin2 Server Files\mainline\SRC_2014\Metin2Client\EterLib\ScreenFilter.cpp
;	COMDAT ??1CScreenFilter@@UAE@XZ
_TEXT	SEGMENT
_this$ = -4						; size = 4
??1CScreenFilter@@UAE@XZ PROC				; CScreenFilter::~CScreenFilter, COMDAT
; _this$ = ecx

; 51   : {

  00000	55		 push	 ebp
  00001	8b ec		 mov	 ebp, esp
  00003	51		 push	 ecx
  00004	89 4d fc	 mov	 DWORD PTR _this$[ebp], ecx
  00007	8b 45 fc	 mov	 eax, DWORD PTR _this$[ebp]
  0000a	c7 00 00 00 00
	00		 mov	 DWORD PTR [eax], OFFSET ??_7CScreenFilter@@6B@

; 52   : }

  00010	8b 4d fc	 mov	 ecx, DWORD PTR _this$[ebp]
  00013	e8 00 00 00 00	 call	 ??1CScreen@@UAE@XZ	; CScreen::~CScreen
  00018	c9		 leave
  00019	c3		 ret	 0
??1CScreenFilter@@UAE@XZ ENDP				; CScreenFilter::~CScreenFilter
_TEXT	ENDS
; Function compile flags: /Odspy
; File D:\Metin2 Server Files\mainline\SRC_2014\Metin2Client\EterLib\ScreenFilter.cpp
; File D:\Metin2 Server Files\mainline\SRC_2014\M2Data\include\d3dx8math.inl
; File D:\Metin2 Server Files\mainline\SRC_2014\Metin2Client\EterLib\ScreenFilter.cpp
;	COMDAT ??0CScreenFilter@@QAE@XZ
_TEXT	SEGMENT
$T1 = -20						; size = 16
_this$ = -4						; size = 4
??0CScreenFilter@@QAE@XZ PROC				; CScreenFilter::CScreenFilter, COMDAT
; _this$ = ecx

; 44   : {

  00000	55		 push	 ebp
  00001	8b ec		 mov	 ebp, esp
  00003	83 ec 14	 sub	 esp, 20			; 00000014H
  00006	56		 push	 esi
  00007	57		 push	 edi
  00008	89 4d fc	 mov	 DWORD PTR _this$[ebp], ecx
  0000b	8b 4d fc	 mov	 ecx, DWORD PTR _this$[ebp]
  0000e	e8 00 00 00 00	 call	 ??0CScreen@@QAE@XZ	; CScreen::CScreen
  00013	8b 45 fc	 mov	 eax, DWORD PTR _this$[ebp]
  00016	c7 00 00 00 00
	00		 mov	 DWORD PTR [eax], OFFSET ??_7CScreenFilter@@6B@

; 45   : 	m_bEnable = FALSE;

  0001c	8b 45 fc	 mov	 eax, DWORD PTR _this$[ebp]
  0001f	83 60 04 00	 and	 DWORD PTR [eax+4], 0

; 46   : 	m_bySrcType = D3DBLEND_SRCALPHA;

  00023	8b 45 fc	 mov	 eax, DWORD PTR _this$[ebp]
  00026	c6 40 08 05	 mov	 BYTE PTR [eax+8], 5

; 47   : 	m_byDestType = D3DBLEND_INVSRCALPHA;

  0002a	8b 45 fc	 mov	 eax, DWORD PTR _this$[ebp]
  0002d	c6 40 09 06	 mov	 BYTE PTR [eax+9], 6
; File D:\Metin2 Server Files\mainline\SRC_2014\M2Data\include\d3dx8math.inl

; 920  :     r = fr;

  00031	0f 57 c0	 xorps	 xmm0, xmm0
  00034	f3 0f 11 45 ec	 movss	 DWORD PTR $T1[ebp], xmm0

; 921  :     g = fg;

  00039	0f 57 c0	 xorps	 xmm0, xmm0
  0003c	f3 0f 11 45 f0	 movss	 DWORD PTR $T1[ebp+4], xmm0

; 922  :     b = fb;

  00041	0f 57 c0	 xorps	 xmm0, xmm0
  00044	f3 0f 11 45 f4	 movss	 DWORD PTR $T1[ebp+8], xmm0

; 923  :     a = fa;

  00049	0f 57 c0	 xorps	 xmm0, xmm0
  0004c	f3 0f 11 45 f8	 movss	 DWORD PTR $T1[ebp+12], xmm0
; File D:\Metin2 Server Files\mainline\SRC_2014\Metin2Client\EterLib\ScreenFilter.cpp

; 48   : 	m_Color = D3DXCOLOR(0.0f, 0.0f, 0.0f, 0.0f);

  00051	8b 7d fc	 mov	 edi, DWORD PTR _this$[ebp]
  00054	83 c7 0c	 add	 edi, 12			; 0000000cH
  00057	8d 75 ec	 lea	 esi, DWORD PTR $T1[ebp]
  0005a	a5		 movsd
  0005b	a5		 movsd
  0005c	a5		 movsd
  0005d	a5		 movsd

; 49   : }

  0005e	8b 45 fc	 mov	 eax, DWORD PTR _this$[ebp]
  00061	5f		 pop	 edi
  00062	5e		 pop	 esi
  00063	c9		 leave
  00064	c3		 ret	 0
??0CScreenFilter@@QAE@XZ ENDP				; CScreenFilter::CScreenFilter
_TEXT	ENDS
; Function compile flags: /Odspy
;	COMDAT ??_H@YGXPAXIIP6EPAX0@Z@Z
_TEXT	SEGMENT
tv66 = -4						; size = 4
___t$ = 8						; size = 4
___s$ = 12						; size = 4
___n$ = 16						; size = 4
___f$ = 20						; size = 4
??_H@YGXPAXIIP6EPAX0@Z@Z PROC				; `vector constructor iterator', COMDAT
  00000	55		 push	 ebp
  00001	8b ec		 mov	 ebp, esp
  00003	51		 push	 ecx
$LN2@vector:
  00004	8b 45 10	 mov	 eax, DWORD PTR ___n$[ebp]
  00007	89 45 fc	 mov	 DWORD PTR tv66[ebp], eax
  0000a	8b 45 10	 mov	 eax, DWORD PTR ___n$[ebp]
  0000d	48		 dec	 eax
  0000e	89 45 10	 mov	 DWORD PTR ___n$[ebp], eax
  00011	83 7d fc 00	 cmp	 DWORD PTR tv66[ebp], 0
  00015	76 11		 jbe	 SHORT $LN1@vector
  00017	8b 4d 08	 mov	 ecx, DWORD PTR ___t$[ebp]
  0001a	ff 55 14	 call	 DWORD PTR ___f$[ebp]
  0001d	8b 45 08	 mov	 eax, DWORD PTR ___t$[ebp]
  00020	03 45 0c	 add	 eax, DWORD PTR ___s$[ebp]
  00023	89 45 08	 mov	 DWORD PTR ___t$[ebp], eax
  00026	eb dc		 jmp	 SHORT $LN2@vector
$LN1@vector:
  00028	c9		 leave
  00029	c2 10 00	 ret	 16			; 00000010H
??_H@YGXPAXIIP6EPAX0@Z@Z ENDP				; `vector constructor iterator'
_TEXT	ENDS
END
