; Listing generated by Microsoft (R) Optimizing Compiler Version 19.28.29335.0 

	TITLE	D:\Metin2 Server Files\mainline\SRC_2014\Metin2Client\EterLib\SkyBox.cpp
	.686P
	.XMM
	include listing.inc
	.model	flat

INCLUDELIB LIBCMT
INCLUDELIB OLDNAMES

CONST	SEGMENT
?piecewise_construct@std@@3Upiecewise_construct_t@1@B	ORG $+1 ; std::piecewise_construct
CONST	ENDS
PUBLIC	??_H@YGXPAXIIP6EPAX0@Z@Z			; `vector constructor iterator'
PUBLIC	??0exception@std@@QAE@ABV01@@Z			; std::exception::exception
PUBLIC	?what@exception@std@@UBEPBDXZ			; std::exception::what
PUBLIC	??_Gexception@std@@UAEPAXI@Z			; std::exception::`scalar deleting destructor'
PUBLIC	??0bad_alloc@std@@QAE@ABV01@@Z			; std::bad_alloc::bad_alloc
PUBLIC	??_Gbad_alloc@std@@UAEPAXI@Z			; std::bad_alloc::`scalar deleting destructor'
PUBLIC	??0bad_array_new_length@std@@QAE@XZ		; std::bad_array_new_length::bad_array_new_length
PUBLIC	??1bad_array_new_length@std@@UAE@XZ		; std::bad_array_new_length::~bad_array_new_length
PUBLIC	??0bad_array_new_length@std@@QAE@ABV01@@Z	; std::bad_array_new_length::bad_array_new_length
PUBLIC	??_Gbad_array_new_length@std@@UAEPAXI@Z		; std::bad_array_new_length::`scalar deleting destructor'
PUBLIC	?_Throw_bad_array_new_length@std@@YAXXZ		; std::_Throw_bad_array_new_length
PUBLIC	?_Adjust_manually_vector_aligned@std@@YAXAAPAXAAI@Z ; std::_Adjust_manually_vector_aligned
PUBLIC	?_Xlen_string@std@@YAXXZ			; std::_Xlen_string
PUBLIC	??0?$_String_val@U?$_Simple_types@D@std@@@std@@QAE@XZ ; std::_String_val<std::_Simple_types<char> >::_String_val<std::_Simple_types<char> >
PUBLIC	?_Myptr@?$_String_val@U?$_Simple_types@D@std@@@std@@QAEPADXZ ; std::_String_val<std::_Simple_types<char> >::_Myptr
PUBLIC	?_Myptr@?$_String_val@U?$_Simple_types@D@std@@@std@@QBEPBDXZ ; std::_String_val<std::_Simple_types<char> >::_Myptr
PUBLIC	??0?$basic_string@DU?$char_traits@D@std@@V?$allocator@D@2@@std@@QAE@ABV01@@Z ; std::basic_string<char,std::char_traits<char>,std::allocator<char> >::basic_string<char,std::char_traits<char>,std::allocator<char> >
PUBLIC	??0?$basic_string@DU?$char_traits@D@std@@V?$allocator@D@2@@std@@QAE@XZ ; std::basic_string<char,std::char_traits<char>,std::allocator<char> >::basic_string<char,std::char_traits<char>,std::allocator<char> >
PUBLIC	??0?$basic_string@DU?$char_traits@D@std@@V?$allocator@D@2@@std@@QAE@QBD@Z ; std::basic_string<char,std::char_traits<char>,std::allocator<char> >::basic_string<char,std::char_traits<char>,std::allocator<char> >
PUBLIC	?_Construct_lv_contents@?$basic_string@DU?$char_traits@D@std@@V?$allocator@D@2@@std@@AAEXABV12@@Z ; std::basic_string<char,std::char_traits<char>,std::allocator<char> >::_Construct_lv_contents
PUBLIC	??1?$basic_string@DU?$char_traits@D@std@@V?$allocator@D@2@@std@@QAE@XZ ; std::basic_string<char,std::char_traits<char>,std::allocator<char> >::~basic_string<char,std::char_traits<char>,std::allocator<char> >
PUBLIC	?assign@?$basic_string@DU?$char_traits@D@std@@V?$allocator@D@2@@std@@QAEAAV12@QBDI@Z ; std::basic_string<char,std::char_traits<char>,std::allocator<char> >::assign
PUBLIC	?max_size@?$basic_string@DU?$char_traits@D@std@@V?$allocator@D@2@@std@@QBEIXZ ; std::basic_string<char,std::char_traits<char>,std::allocator<char> >::max_size
PUBLIC	?compare@?$basic_string@DU?$char_traits@D@std@@V?$allocator@D@2@@std@@QBEHABV12@@Z ; std::basic_string<char,std::char_traits<char>,std::allocator<char> >::compare
PUBLIC	?_Calculate_growth@?$basic_string@DU?$char_traits@D@std@@V?$allocator@D@2@@std@@ABEII@Z ; std::basic_string<char,std::char_traits<char>,std::allocator<char> >::_Calculate_growth
PUBLIC	?_Tidy_init@?$basic_string@DU?$char_traits@D@std@@V?$allocator@D@2@@std@@AAEXXZ ; std::basic_string<char,std::char_traits<char>,std::allocator<char> >::_Tidy_init
PUBLIC	?_Tidy_deallocate@?$basic_string@DU?$char_traits@D@std@@V?$allocator@D@2@@std@@AAEXXZ ; std::basic_string<char,std::char_traits<char>,std::allocator<char> >::_Tidy_deallocate
PUBLIC	??1?$_Compressed_pair@V?$allocator@D@std@@V?$_String_val@U?$_Simple_types@D@std@@@2@$00@std@@QAE@XZ ; std::_Compressed_pair<std::allocator<char>,std::_String_val<std::_Simple_types<char> >,1>::~_Compressed_pair<std::allocator<char>,std::_String_val<std::_Simple_types<char> >,1>
PUBLIC	?_Throw_tree_length_error@std@@YAXXZ		; std::_Throw_tree_length_error
PUBLIC	??$_Destroy_in_place@PAD@std@@YAXAAPAD@Z	; std::_Destroy_in_place<char *>
PUBLIC	??$_Reallocate_for@V<lambda_9366063389c5f42a00a5088cf24e69de>@@PBD@?$basic_string@DU?$char_traits@D@std@@V?$allocator@D@2@@std@@AAEAAV01@IV<lambda_9366063389c5f42a00a5088cf24e69de>@@PBD@Z ; std::basic_string<char,std::char_traits<char>,std::allocator<char> >::_Reallocate_for<<lambda_9366063389c5f42a00a5088cf24e69de>,char const *>
PUBLIC	??$_Construct_in_place@PADABQAD@std@@YAXAAPADABQAD@Z ; std::_Construct_in_place<char *,char * const &>
PUBLIC	??$_Deallocate@$07$0A@@std@@YAXPAXI@Z		; std::_Deallocate<8,0>
PUBLIC	??$_Allocate@$07U_Default_allocate_traits@std@@$0A@@std@@YAPAXI@Z ; std::_Allocate<8,std::_Default_allocate_traits,0>
PUBLIC	??$_Allocate_manually_vector_aligned@U_Default_allocate_traits@std@@@std@@YAPAXI@Z ; std::_Allocate_manually_vector_aligned<std::_Default_allocate_traits>
PUBLIC	??0CSkyObjectQuad@@QAE@XZ			; CSkyObjectQuad::CSkyObjectQuad
PUBLIC	??1CSkyObjectQuad@@UAE@XZ			; CSkyObjectQuad::~CSkyObjectQuad
PUBLIC	?Clear@CSkyObjectQuad@@QAEXABEABM111@Z		; CSkyObjectQuad::Clear
PUBLIC	?SetSrcColor@CSkyObjectQuad@@QAEXABEABM111@Z	; CSkyObjectQuad::SetSrcColor
PUBLIC	?SetTransition@CSkyObjectQuad@@QAEXABEABM111K@Z	; CSkyObjectQuad::SetTransition
PUBLIC	?SetVertex@CSkyObjectQuad@@QAEXABEABUSPDTVertex@@@Z ; CSkyObjectQuad::SetVertex
PUBLIC	?StartTransition@CSkyObjectQuad@@QAEXXZ		; CSkyObjectQuad::StartTransition
PUBLIC	?Update@CSkyObjectQuad@@QAE_NXZ			; CSkyObjectQuad::Update
PUBLIC	?Render@CSkyObjectQuad@@QAEXXZ			; CSkyObjectQuad::Render
PUBLIC	??_GCSkyObjectQuad@@UAEPAXI@Z			; CSkyObjectQuad::`scalar deleting destructor'
PUBLIC	??0CSkyObject@@QAE@XZ				; CSkyObject::CSkyObject
PUBLIC	??1CSkyObject@@UAE@XZ				; CSkyObject::~CSkyObject
PUBLIC	?Destroy@CSkyObject@@UAEXXZ			; CSkyObject::Destroy
PUBLIC	?Render@CSkyObject@@UAEXXZ			; CSkyObject::Render
PUBLIC	?Update@CSkyObject@@UAEXXZ			; CSkyObject::Update
PUBLIC	?StartTransition@CSkyObject@@UAEXXZ		; CSkyObject::StartTransition
PUBLIC	?GenerateTexture@CSkyObject@@IAEPAVCGraphicImageInstance@@PBD@Z ; CSkyObject::GenerateTexture
PUBLIC	?DeleteTexture@CSkyObject@@IAEXPAVCGraphicImageInstance@@@Z ; CSkyObject::DeleteTexture
PUBLIC	?deallocate@?$allocator@VCSkyObjectQuad@@@std@@QAEXQAVCSkyObjectQuad@@I@Z ; std::allocator<CSkyObjectQuad>::deallocate
PUBLIC	?clear@?$vector@VCSkyObjectQuad@@V?$allocator@VCSkyObjectQuad@@@std@@@std@@QAEXXZ ; std::vector<CSkyObjectQuad,std::allocator<CSkyObjectQuad> >::clear
PUBLIC	?at@?$vector@VCSkyObjectQuad@@V?$allocator@VCSkyObjectQuad@@@std@@@std@@QAEAAVCSkyObjectQuad@@I@Z ; std::vector<CSkyObjectQuad,std::allocator<CSkyObjectQuad> >::at
PUBLIC	?_Destroy@?$vector@VCSkyObjectQuad@@V?$allocator@VCSkyObjectQuad@@@std@@@std@@AAEXPAVCSkyObjectQuad@@0@Z ; std::vector<CSkyObjectQuad,std::allocator<CSkyObjectQuad> >::_Destroy
PUBLIC	?_Calculate_growth@?$vector@VCSkyObjectQuad@@V?$allocator@VCSkyObjectQuad@@@std@@@std@@ABEII@Z ; std::vector<CSkyObjectQuad,std::allocator<CSkyObjectQuad> >::_Calculate_growth
PUBLIC	?_Change_array@?$vector@VCSkyObjectQuad@@V?$allocator@VCSkyObjectQuad@@@std@@@std@@AAEXQAVCSkyObjectQuad@@II@Z ; std::vector<CSkyObjectQuad,std::allocator<CSkyObjectQuad> >::_Change_array
PUBLIC	?_Tidy@?$vector@VCSkyObjectQuad@@V?$allocator@VCSkyObjectQuad@@@std@@@std@@AAEXXZ ; std::vector<CSkyObjectQuad,std::allocator<CSkyObjectQuad> >::_Tidy
PUBLIC	?_Xlength@?$vector@VCSkyObjectQuad@@V?$allocator@VCSkyObjectQuad@@@std@@@std@@CAXXZ ; std::vector<CSkyObjectQuad,std::allocator<CSkyObjectQuad> >::_Xlength
PUBLIC	?_Xrange@?$vector@VCSkyObjectQuad@@V?$allocator@VCSkyObjectQuad@@@std@@@std@@CAXXZ ; std::vector<CSkyObjectQuad,std::allocator<CSkyObjectQuad> >::_Xrange
PUBLIC	?_Getal@?$vector@VCSkyObjectQuad@@V?$allocator@VCSkyObjectQuad@@@std@@@std@@AAEAAV?$allocator@VCSkyObjectQuad@@@2@XZ ; std::vector<CSkyObjectQuad,std::allocator<CSkyObjectQuad> >::_Getal
PUBLIC	?StartTransition@TSkyObjectFace@CSkyObject@@QAEXXZ ; CSkyObject::TSkyObjectFace::StartTransition
PUBLIC	?Update@TSkyObjectFace@CSkyObject@@QAE_NXZ	; CSkyObject::TSkyObjectFace::Update
PUBLIC	?Render@TSkyObjectFace@CSkyObject@@QAEXXZ	; CSkyObject::TSkyObjectFace::Render
PUBLIC	??0TSkyObjectFace@CSkyObject@@QAE@XZ		; CSkyObject::TSkyObjectFace::TSkyObjectFace
PUBLIC	??1TSkyObjectFace@CSkyObject@@QAE@XZ		; CSkyObject::TSkyObjectFace::~TSkyObjectFace
PUBLIC	??0?$_Tree@V?$_Tmap_traits@V?$basic_string@DU?$char_traits@D@std@@V?$allocator@D@2@@std@@PAVCGraphicImageInstance@@U?$less@V?$basic_string@DU?$char_traits@D@std@@V?$allocator@D@2@@std@@@2@V?$allocator@U?$pair@$$CBV?$basic_string@DU?$char_traits@D@std@@V?$allocator@D@2@@std@@PAVCGraphicImageInstance@@@std@@@2@$0A@@std@@@std@@QAE@ABU?$less@V?$basic_string@DU?$char_traits@D@std@@V?$allocator@D@2@@std@@@1@@Z ; std::_Tree<std::_Tmap_traits<std::basic_string<char,std::char_traits<char>,std::allocator<char> >,CGraphicImageInstance *,std::less<std::basic_string<char,std::char_traits<char>,std::allocator<char> > >,std::allocator<std::pair<std::basic_string<char,std::char_traits<char>,std::allocator<char> > const ,CGraphicImageInstance *> >,0> >::_Tree<std::_Tmap_traits<std::basic_string<char,std::char_traits<char>,std::allocator<char> >,CGraphicImageInstance *,std::less<std::basic_string<char,std::char_traits<char>,std::allocator<char> > >,std::allocator<std::pair<std::basic_string<char,std::char_traits<char>,std::allocator<char> > const ,CGraphicImageInstance *> >,0> >
PUBLIC	??1?$_Tree@V?$_Tmap_traits@V?$basic_string@DU?$char_traits@D@std@@V?$allocator@D@2@@std@@PAVCGraphicImageInstance@@U?$less@V?$basic_string@DU?$char_traits@D@std@@V?$allocator@D@2@@std@@@2@V?$allocator@U?$pair@$$CBV?$basic_string@DU?$char_traits@D@std@@V?$allocator@D@2@@std@@PAVCGraphicImageInstance@@@std@@@2@$0A@@std@@@std@@QAE@XZ ; std::_Tree<std::_Tmap_traits<std::basic_string<char,std::char_traits<char>,std::allocator<char> >,CGraphicImageInstance *,std::less<std::basic_string<char,std::char_traits<char>,std::allocator<char> > >,std::allocator<std::pair<std::basic_string<char,std::char_traits<char>,std::allocator<char> > const ,CGraphicImageInstance *> >,0> >::~_Tree<std::_Tmap_traits<std::basic_string<char,std::char_traits<char>,std::allocator<char> >,CGraphicImageInstance *,std::less<std::basic_string<char,std::char_traits<char>,std::allocator<char> > >,std::allocator<std::pair<std::basic_string<char,std::char_traits<char>,std::allocator<char> > const ,CGraphicImageInstance *> >,0> >
PUBLIC	?begin@?$_Tree@V?$_Tmap_traits@V?$basic_string@DU?$char_traits@D@std@@V?$allocator@D@2@@std@@PAVCGraphicImageInstance@@U?$less@V?$basic_string@DU?$char_traits@D@std@@V?$allocator@D@2@@std@@@2@V?$allocator@U?$pair@$$CBV?$basic_string@DU?$char_traits@D@std@@V?$allocator@D@2@@std@@PAVCGraphicImageInstance@@@std@@@2@$0A@@std@@@std@@QAE?AV?$_Tree_iterator@V?$_Tree_val@U?$_Tree_simple_types@U?$pair@$$CBV?$basic_string@DU?$char_traits@D@std@@V?$allocator@D@2@@std@@PAVCGraphicImageInstance@@@std@@@std@@@std@@@2@XZ ; std::_Tree<std::_Tmap_traits<std::basic_string<char,std::char_traits<char>,std::allocator<char> >,CGraphicImageInstance *,std::less<std::basic_string<char,std::char_traits<char>,std::allocator<char> > >,std::allocator<std::pair<std::basic_string<char,std::char_traits<char>,std::allocator<char> > const ,CGraphicImageInstance *> >,0> >::begin
PUBLIC	?max_size@?$_Tree@V?$_Tmap_traits@V?$basic_string@DU?$char_traits@D@std@@V?$allocator@D@2@@std@@PAVCGraphicImageInstance@@U?$less@V?$basic_string@DU?$char_traits@D@std@@V?$allocator@D@2@@std@@@2@V?$allocator@U?$pair@$$CBV?$basic_string@DU?$char_traits@D@std@@V?$allocator@D@2@@std@@PAVCGraphicImageInstance@@@std@@@2@$0A@@std@@@std@@QBEIXZ ; std::_Tree<std::_Tmap_traits<std::basic_string<char,std::char_traits<char>,std::allocator<char> >,CGraphicImageInstance *,std::less<std::basic_string<char,std::char_traits<char>,std::allocator<char> > >,std::allocator<std::pair<std::basic_string<char,std::char_traits<char>,std::allocator<char> > const ,CGraphicImageInstance *> >,0> >::max_size
PUBLIC	?clear@?$_Tree@V?$_Tmap_traits@V?$basic_string@DU?$char_traits@D@std@@V?$allocator@D@2@@std@@PAVCGraphicImageInstance@@U?$less@V?$basic_string@DU?$char_traits@D@std@@V?$allocator@D@2@@std@@@2@V?$allocator@U?$pair@$$CBV?$basic_string@DU?$char_traits@D@std@@V?$allocator@D@2@@std@@PAVCGraphicImageInstance@@@std@@@2@$0A@@std@@@std@@QAEXXZ ; std::_Tree<std::_Tmap_traits<std::basic_string<char,std::char_traits<char>,std::allocator<char> >,CGraphicImageInstance *,std::less<std::basic_string<char,std::char_traits<char>,std::allocator<char> > >,std::allocator<std::pair<std::basic_string<char,std::char_traits<char>,std::allocator<char> > const ,CGraphicImageInstance *> >,0> >::clear
PUBLIC	?find@?$_Tree@V?$_Tmap_traits@V?$basic_string@DU?$char_traits@D@std@@V?$allocator@D@2@@std@@PAVCGraphicImageInstance@@U?$less@V?$basic_string@DU?$char_traits@D@std@@V?$allocator@D@2@@std@@@2@V?$allocator@U?$pair@$$CBV?$basic_string@DU?$char_traits@D@std@@V?$allocator@D@2@@std@@PAVCGraphicImageInstance@@@std@@@2@$0A@@std@@@std@@QAE?AV?$_Tree_iterator@V?$_Tree_val@U?$_Tree_simple_types@U?$pair@$$CBV?$basic_string@DU?$char_traits@D@std@@V?$allocator@D@2@@std@@PAVCGraphicImageInstance@@@std@@@std@@@std@@@2@ABV?$basic_string@DU?$char_traits@D@std@@V?$allocator@D@2@@2@@Z ; std::_Tree<std::_Tmap_traits<std::basic_string<char,std::char_traits<char>,std::allocator<char> >,CGraphicImageInstance *,std::less<std::basic_string<char,std::char_traits<char>,std::allocator<char> > >,std::allocator<std::pair<std::basic_string<char,std::char_traits<char>,std::allocator<char> > const ,CGraphicImageInstance *> >,0> >::find
PUBLIC	?_Check_grow_by_1@?$_Tree@V?$_Tmap_traits@V?$basic_string@DU?$char_traits@D@std@@V?$allocator@D@2@@std@@PAVCGraphicImageInstance@@U?$less@V?$basic_string@DU?$char_traits@D@std@@V?$allocator@D@2@@std@@@2@V?$allocator@U?$pair@$$CBV?$basic_string@DU?$char_traits@D@std@@V?$allocator@D@2@@std@@PAVCGraphicImageInstance@@@std@@@2@$0A@@std@@@std@@IAEXXZ ; std::_Tree<std::_Tmap_traits<std::basic_string<char,std::char_traits<char>,std::allocator<char> >,CGraphicImageInstance *,std::less<std::basic_string<char,std::char_traits<char>,std::allocator<char> > >,std::allocator<std::pair<std::basic_string<char,std::char_traits<char>,std::allocator<char> > const ,CGraphicImageInstance *> >,0> >::_Check_grow_by_1
PUBLIC	?_Alloc_sentinel_and_proxy@?$_Tree@V?$_Tmap_traits@V?$basic_string@DU?$char_traits@D@std@@V?$allocator@D@2@@std@@PAVCGraphicImageInstance@@U?$less@V?$basic_string@DU?$char_traits@D@std@@V?$allocator@D@2@@std@@@2@V?$allocator@U?$pair@$$CBV?$basic_string@DU?$char_traits@D@std@@V?$allocator@D@2@@std@@PAVCGraphicImageInstance@@@std@@@2@$0A@@std@@@std@@IAEXXZ ; std::_Tree<std::_Tmap_traits<std::basic_string<char,std::char_traits<char>,std::allocator<char> >,CGraphicImageInstance *,std::less<std::basic_string<char,std::char_traits<char>,std::allocator<char> > >,std::allocator<std::pair<std::basic_string<char,std::char_traits<char>,std::allocator<char> > const ,CGraphicImageInstance *> >,0> >::_Alloc_sentinel_and_proxy
PUBLIC	?_Lrotate@?$_Tree_val@U?$_Tree_simple_types@U?$pair@$$CBV?$basic_string@DU?$char_traits@D@std@@V?$allocator@D@2@@std@@PAVCGraphicImageInstance@@@std@@@std@@@std@@QAEXPAU?$_Tree_node@U?$pair@$$CBV?$basic_string@DU?$char_traits@D@std@@V?$allocator@D@2@@std@@PAVCGraphicImageInstance@@@std@@PAX@2@@Z ; std::_Tree_val<std::_Tree_simple_types<std::pair<std::basic_string<char,std::char_traits<char>,std::allocator<char> > const ,CGraphicImageInstance *> > >::_Lrotate
PUBLIC	?_Rrotate@?$_Tree_val@U?$_Tree_simple_types@U?$pair@$$CBV?$basic_string@DU?$char_traits@D@std@@V?$allocator@D@2@@std@@PAVCGraphicImageInstance@@@std@@@std@@@std@@QAEXPAU?$_Tree_node@U?$pair@$$CBV?$basic_string@DU?$char_traits@D@std@@V?$allocator@D@2@@std@@PAVCGraphicImageInstance@@@std@@PAX@2@@Z ; std::_Tree_val<std::_Tree_simple_types<std::pair<std::basic_string<char,std::char_traits<char>,std::allocator<char> > const ,CGraphicImageInstance *> > >::_Rrotate
PUBLIC	?_Insert_node@?$_Tree_val@U?$_Tree_simple_types@U?$pair@$$CBV?$basic_string@DU?$char_traits@D@std@@V?$allocator@D@2@@std@@PAVCGraphicImageInstance@@@std@@@std@@@std@@QAEPAU?$_Tree_node@U?$pair@$$CBV?$basic_string@DU?$char_traits@D@std@@V?$allocator@D@2@@std@@PAVCGraphicImageInstance@@@std@@PAX@2@U?$_Tree_id@PAU?$_Tree_node@U?$pair@$$CBV?$basic_string@DU?$char_traits@D@std@@V?$allocator@D@2@@std@@PAVCGraphicImageInstance@@@std@@PAX@std@@@2@QAU32@@Z ; std::_Tree_val<std::_Tree_simple_types<std::pair<std::basic_string<char,std::char_traits<char>,std::allocator<char> > const ,CGraphicImageInstance *> > >::_Insert_node
PUBLIC	??1?$map@V?$basic_string@DU?$char_traits@D@std@@V?$allocator@D@2@@std@@PAVCGraphicImageInstance@@U?$less@V?$basic_string@DU?$char_traits@D@std@@V?$allocator@D@2@@std@@@2@V?$allocator@U?$pair@$$CBV?$basic_string@DU?$char_traits@D@std@@V?$allocator@D@2@@std@@PAVCGraphicImageInstance@@@std@@@2@@std@@QAE@XZ ; std::map<std::basic_string<char,std::char_traits<char>,std::allocator<char> >,CGraphicImageInstance *,std::less<std::basic_string<char,std::char_traits<char>,std::allocator<char> > >,std::allocator<std::pair<std::basic_string<char,std::char_traits<char>,std::allocator<char> > const ,CGraphicImageInstance *> > >::~map<std::basic_string<char,std::char_traits<char>,std::allocator<char> >,CGraphicImageInstance *,std::less<std::basic_string<char,std::char_traits<char>,std::allocator<char> > >,std::allocator<std::pair<std::basic_string<char,std::char_traits<char>,std::allocator<char> > const ,CGraphicImageInstance *> > >
PUBLIC	??_GCSkyObject@@UAEPAXI@Z			; CSkyObject::`scalar deleting destructor'
PUBLIC	??0CSkyBox@@QAE@XZ				; CSkyBox::CSkyBox
PUBLIC	??1CSkyBox@@UAE@XZ				; CSkyBox::~CSkyBox
PUBLIC	?Update@CSkyBox@@UAEXXZ				; CSkyBox::Update
PUBLIC	?Render@CSkyBox@@UAEXXZ				; CSkyBox::Render
PUBLIC	?RenderCloud@CSkyBox@@QAEXXZ			; CSkyBox::RenderCloud
PUBLIC	?Destroy@CSkyBox@@UAEXXZ			; CSkyBox::Destroy
PUBLIC	?Unload@CSkyBox@@QAEXXZ				; CSkyBox::Unload
PUBLIC	?SetSkyBoxScale@CSkyBox@@QAEXABUD3DXVECTOR3@@@Z	; CSkyBox::SetSkyBoxScale
PUBLIC	?SetGradientLevel@CSkyBox@@QAEXEE@Z		; CSkyBox::SetGradientLevel
PUBLIC	?SetFaceTexture@CSkyBox@@QAEXPBDH@Z		; CSkyBox::SetFaceTexture
PUBLIC	?SetCloudTexture@CSkyBox@@QAEXPBD@Z		; CSkyBox::SetCloudTexture
PUBLIC	?SetCloudScale@CSkyBox@@QAEXABUD3DXVECTOR2@@@Z	; CSkyBox::SetCloudScale
PUBLIC	?SetCloudHeight@CSkyBox@@QAEXM@Z		; CSkyBox::SetCloudHeight
PUBLIC	?SetCloudTextureScale@CSkyBox@@QAEXABUD3DXVECTOR2@@@Z ; CSkyBox::SetCloudTextureScale
PUBLIC	?SetCloudScrollSpeed@CSkyBox@@QAEXABUD3DXVECTOR2@@@Z ; CSkyBox::SetCloudScrollSpeed
PUBLIC	?SetCloudColor@CSkyBox@@QAEXABUTGradientColor@@0ABK@Z ; CSkyBox::SetCloudColor
PUBLIC	?Refresh@CSkyBox@@QAEXXZ			; CSkyBox::Refresh
PUBLIC	?SetSkyColor@CSkyBox@@QAEXABV?$vector@UTGradientColor@@V?$allocator@UTGradientColor@@@std@@@std@@0J@Z ; CSkyBox::SetSkyColor
PUBLIC	?StartTransition@CSkyBox@@UAEXXZ		; CSkyBox::StartTransition
PUBLIC	?SetSkyObjectQuadVertical@CSkyBox@@IAEXPAV?$vector@VCSkyObjectQuad@@V?$allocator@VCSkyObjectQuad@@@std@@@std@@PBUD3DXVECTOR2@@@Z ; CSkyBox::SetSkyObjectQuadVertical
PUBLIC	?SetSkyObjectQuadHorizon@CSkyBox@@IAEXPAV?$vector@VCSkyObjectQuad@@V?$allocator@VCSkyObjectQuad@@@std@@@std@@PBUD3DXVECTOR3@@@Z ; CSkyBox::SetSkyObjectQuadHorizon
PUBLIC	??_GCSkyBox@@UAEPAXI@Z				; CSkyBox::`scalar deleting destructor'
PUBLIC	??E?$_Tree_unchecked_const_iterator@V?$_Tree_val@U?$_Tree_simple_types@U?$pair@$$CBV?$basic_string@DU?$char_traits@D@std@@V?$allocator@D@2@@std@@PAVCGraphicImageInstance@@@std@@@std@@@std@@U_Iterator_base0@2@@std@@QAEAAV01@XZ ; std::_Tree_unchecked_const_iterator<std::_Tree_val<std::_Tree_simple_types<std::pair<std::basic_string<char,std::char_traits<char>,std::allocator<char> > const ,CGraphicImageInstance *> > >,std::_Iterator_base0>::operator++
PUBLIC	??1?$pair@$$CBV?$basic_string@DU?$char_traits@D@std@@V?$allocator@D@2@@std@@PAVCGraphicImageInstance@@@std@@QAE@XZ ; std::pair<std::basic_string<char,std::char_traits<char>,std::allocator<char> > const ,CGraphicImageInstance *>::~pair<std::basic_string<char,std::char_traits<char>,std::allocator<char> > const ,CGraphicImageInstance *>
PUBLIC	??$insert@$0A@$0A@@?$_Tree@V?$_Tmap_traits@V?$basic_string@DU?$char_traits@D@std@@V?$allocator@D@2@@std@@PAVCGraphicImageInstance@@U?$less@V?$basic_string@DU?$char_traits@D@std@@V?$allocator@D@2@@std@@@2@V?$allocator@U?$pair@$$CBV?$basic_string@DU?$char_traits@D@std@@V?$allocator@D@2@@std@@PAVCGraphicImageInstance@@@std@@@2@$0A@@std@@@std@@QAE?AU?$pair@V?$_Tree_iterator@V?$_Tree_val@U?$_Tree_simple_types@U?$pair@$$CBV?$basic_string@DU?$char_traits@D@std@@V?$allocator@D@2@@std@@PAVCGraphicImageInstance@@@std@@@std@@@std@@@std@@_N@1@$$QAU?$pair@$$CBV?$basic_string@DU?$char_traits@D@std@@V?$allocator@D@2@@std@@PAVCGraphicImageInstance@@@1@@Z ; std::_Tree<std::_Tmap_traits<std::basic_string<char,std::char_traits<char>,std::allocator<char> >,CGraphicImageInstance *,std::less<std::basic_string<char,std::char_traits<char>,std::allocator<char> > >,std::allocator<std::pair<std::basic_string<char,std::char_traits<char>,std::allocator<char> > const ,CGraphicImageInstance *> >,0> >::insert<0,0>
PUBLIC	??$_Try_emplace@ABV?$basic_string@DU?$char_traits@D@std@@V?$allocator@D@2@@std@@$$V@?$map@V?$basic_string@DU?$char_traits@D@std@@V?$allocator@D@2@@std@@PAVCGraphicImageInstance@@U?$less@V?$basic_string@DU?$char_traits@D@std@@V?$allocator@D@2@@std@@@2@V?$allocator@U?$pair@$$CBV?$basic_string@DU?$char_traits@D@std@@V?$allocator@D@2@@std@@PAVCGraphicImageInstance@@@std@@@2@@std@@AAE?AU?$pair@PAU?$_Tree_node@U?$pair@$$CBV?$basic_string@DU?$char_traits@D@std@@V?$allocator@D@2@@std@@PAVCGraphicImageInstance@@@std@@PAX@std@@_N@1@ABV?$basic_string@DU?$char_traits@D@std@@V?$allocator@D@2@@1@@Z ; std::map<std::basic_string<char,std::char_traits<char>,std::allocator<char> >,CGraphicImageInstance *,std::less<std::basic_string<char,std::char_traits<char>,std::allocator<char> > >,std::allocator<std::pair<std::basic_string<char,std::char_traits<char>,std::allocator<char> > const ,CGraphicImageInstance *> > >::_Try_emplace<std::basic_string<char,std::char_traits<char>,std::allocator<char> > const &>
PUBLIC	??$_Find@V?$basic_string@DU?$char_traits@D@std@@V?$allocator@D@2@@std@@@?$_Tree@V?$_Tmap_traits@V?$basic_string@DU?$char_traits@D@std@@V?$allocator@D@2@@std@@PAVCGraphicImageInstance@@U?$less@V?$basic_string@DU?$char_traits@D@std@@V?$allocator@D@2@@std@@@2@V?$allocator@U?$pair@$$CBV?$basic_string@DU?$char_traits@D@std@@V?$allocator@D@2@@std@@PAVCGraphicImageInstance@@@std@@@2@$0A@@std@@@std@@ABEPAU?$_Tree_node@U?$pair@$$CBV?$basic_string@DU?$char_traits@D@std@@V?$allocator@D@2@@std@@PAVCGraphicImageInstance@@@std@@PAX@1@ABV?$basic_string@DU?$char_traits@D@std@@V?$allocator@D@2@@1@@Z ; std::_Tree<std::_Tmap_traits<std::basic_string<char,std::char_traits<char>,std::allocator<char> >,CGraphicImageInstance *,std::less<std::basic_string<char,std::char_traits<char>,std::allocator<char> > >,std::allocator<std::pair<std::basic_string<char,std::char_traits<char>,std::allocator<char> > const ,CGraphicImageInstance *> >,0> >::_Find<std::basic_string<char,std::char_traits<char>,std::allocator<char> > >
PUBLIC	??$_Erase_tree@V?$allocator@U?$_Tree_node@U?$pair@$$CBV?$basic_string@DU?$char_traits@D@std@@V?$allocator@D@2@@std@@PAVCGraphicImageInstance@@@std@@PAX@std@@@std@@@?$_Tree_val@U?$_Tree_simple_types@U?$pair@$$CBV?$basic_string@DU?$char_traits@D@std@@V?$allocator@D@2@@std@@PAVCGraphicImageInstance@@@std@@@std@@@std@@QAEXAAV?$allocator@U?$_Tree_node@U?$pair@$$CBV?$basic_string@DU?$char_traits@D@std@@V?$allocator@D@2@@std@@PAVCGraphicImageInstance@@@std@@PAX@std@@@1@PAU?$_Tree_node@U?$pair@$$CBV?$basic_string@DU?$char_traits@D@std@@V?$allocator@D@2@@std@@PAVCGraphicImageInstance@@@std@@PAX@1@@Z ; std::_Tree_val<std::_Tree_simple_types<std::pair<std::basic_string<char,std::char_traits<char>,std::allocator<char> > const ,CGraphicImageInstance *> > >::_Erase_tree<std::allocator<std::_Tree_node<std::pair<std::basic_string<char,std::char_traits<char>,std::allocator<char> > const ,CGraphicImageInstance *>,void *> > >
PUBLIC	??$_Resize@U_Value_init_tag@std@@@?$vector@VCSkyObjectQuad@@V?$allocator@VCSkyObjectQuad@@@std@@@std@@AAEXIABU_Value_init_tag@1@@Z ; std::vector<CSkyObjectQuad,std::allocator<CSkyObjectQuad> >::_Resize<std::_Value_init_tag>
PUBLIC	??$_Destroy_range@V?$allocator@VCSkyObjectQuad@@@std@@@std@@YAXPAVCSkyObjectQuad@@QAV1@AAV?$allocator@VCSkyObjectQuad@@@0@@Z ; std::_Destroy_range<std::allocator<CSkyObjectQuad> >
PUBLIC	??$_Buyheadnode@V?$allocator@U?$_Tree_node@U?$pair@$$CBV?$basic_string@DU?$char_traits@D@std@@V?$allocator@D@2@@std@@PAVCGraphicImageInstance@@@std@@PAX@std@@@std@@@?$_Tree_node@U?$pair@$$CBV?$basic_string@DU?$char_traits@D@std@@V?$allocator@D@2@@std@@PAVCGraphicImageInstance@@@std@@PAX@std@@SAPAU01@AAV?$allocator@U?$_Tree_node@U?$pair@$$CBV?$basic_string@DU?$char_traits@D@std@@V?$allocator@D@2@@std@@PAVCGraphicImageInstance@@@std@@PAX@std@@@1@@Z ; std::_Tree_node<std::pair<std::basic_string<char,std::char_traits<char>,std::allocator<char> > const ,CGraphicImageInstance *>,void *>::_Buyheadnode<std::allocator<std::_Tree_node<std::pair<std::basic_string<char,std::char_traits<char>,std::allocator<char> > const ,CGraphicImageInstance *>,void *> > >
PUBLIC	??$_Emplace@U?$pair@$$CBV?$basic_string@DU?$char_traits@D@std@@V?$allocator@D@2@@std@@PAVCGraphicImageInstance@@@std@@@?$_Tree@V?$_Tmap_traits@V?$basic_string@DU?$char_traits@D@std@@V?$allocator@D@2@@std@@PAVCGraphicImageInstance@@U?$less@V?$basic_string@DU?$char_traits@D@std@@V?$allocator@D@2@@std@@@2@V?$allocator@U?$pair@$$CBV?$basic_string@DU?$char_traits@D@std@@V?$allocator@D@2@@std@@PAVCGraphicImageInstance@@@std@@@2@$0A@@std@@@std@@IAE?AU?$pair@PAU?$_Tree_node@U?$pair@$$CBV?$basic_string@DU?$char_traits@D@std@@V?$allocator@D@2@@std@@PAVCGraphicImageInstance@@@std@@PAX@std@@_N@1@$$QAU?$pair@$$CBV?$basic_string@DU?$char_traits@D@std@@V?$allocator@D@2@@std@@PAVCGraphicImageInstance@@@1@@Z ; std::_Tree<std::_Tmap_traits<std::basic_string<char,std::char_traits<char>,std::allocator<char> >,CGraphicImageInstance *,std::less<std::basic_string<char,std::char_traits<char>,std::allocator<char> > >,std::allocator<std::pair<std::basic_string<char,std::char_traits<char>,std::allocator<char> > const ,CGraphicImageInstance *> >,0> >::_Emplace<std::pair<std::basic_string<char,std::char_traits<char>,std::allocator<char> > const ,CGraphicImageInstance *> >
PUBLIC	??$_Find_lower_bound@V?$basic_string@DU?$char_traits@D@std@@V?$allocator@D@2@@std@@@?$_Tree@V?$_Tmap_traits@V?$basic_string@DU?$char_traits@D@std@@V?$allocator@D@2@@std@@PAVCGraphicImageInstance@@U?$less@V?$basic_string@DU?$char_traits@D@std@@V?$allocator@D@2@@std@@@2@V?$allocator@U?$pair@$$CBV?$basic_string@DU?$char_traits@D@std@@V?$allocator@D@2@@std@@PAVCGraphicImageInstance@@@std@@@2@$0A@@std@@@std@@IBE?AU?$_Tree_find_result@PAU?$_Tree_node@U?$pair@$$CBV?$basic_string@DU?$char_traits@D@std@@V?$allocator@D@2@@std@@PAVCGraphicImageInstance@@@std@@PAX@std@@@1@ABV?$basic_string@DU?$char_traits@D@std@@V?$allocator@D@2@@1@@Z ; std::_Tree<std::_Tmap_traits<std::basic_string<char,std::char_traits<char>,std::allocator<char> >,CGraphicImageInstance *,std::less<std::basic_string<char,std::char_traits<char>,std::allocator<char> > >,std::allocator<std::pair<std::basic_string<char,std::char_traits<char>,std::allocator<char> > const ,CGraphicImageInstance *> >,0> >::_Find_lower_bound<std::basic_string<char,std::char_traits<char>,std::allocator<char> > >
PUBLIC	??$_Lower_bound_duplicate@V?$basic_string@DU?$char_traits@D@std@@V?$allocator@D@2@@std@@@?$_Tree@V?$_Tmap_traits@V?$basic_string@DU?$char_traits@D@std@@V?$allocator@D@2@@std@@PAVCGraphicImageInstance@@U?$less@V?$basic_string@DU?$char_traits@D@std@@V?$allocator@D@2@@std@@@2@V?$allocator@U?$pair@$$CBV?$basic_string@DU?$char_traits@D@std@@V?$allocator@D@2@@std@@PAVCGraphicImageInstance@@@std@@@2@$0A@@std@@@std@@IBE_NQAU?$_Tree_node@U?$pair@$$CBV?$basic_string@DU?$char_traits@D@std@@V?$allocator@D@2@@std@@PAVCGraphicImageInstance@@@std@@PAX@1@ABV?$basic_string@DU?$char_traits@D@std@@V?$allocator@D@2@@1@@Z ; std::_Tree<std::_Tmap_traits<std::basic_string<char,std::char_traits<char>,std::allocator<char> >,CGraphicImageInstance *,std::less<std::basic_string<char,std::char_traits<char>,std::allocator<char> > >,std::allocator<std::pair<std::basic_string<char,std::char_traits<char>,std::allocator<char> > const ,CGraphicImageInstance *> >,0> >::_Lower_bound_duplicate<std::basic_string<char,std::char_traits<char>,std::allocator<char> > >
PUBLIC	?_Allocate@?$_Alloc_construct_ptr@V?$allocator@U?$_Tree_node@U?$pair@$$CBV?$basic_string@DU?$char_traits@D@std@@V?$allocator@D@2@@std@@PAVCGraphicImageInstance@@@std@@PAX@std@@@std@@@std@@QAEXXZ ; std::_Alloc_construct_ptr<std::allocator<std::_Tree_node<std::pair<std::basic_string<char,std::char_traits<char>,std::allocator<char> > const ,CGraphicImageInstance *>,void *> > >::_Allocate
PUBLIC	??1?$_Alloc_construct_ptr@V?$allocator@U?$_Tree_node@U?$pair@$$CBV?$basic_string@DU?$char_traits@D@std@@V?$allocator@D@2@@std@@PAVCGraphicImageInstance@@@std@@PAX@std@@@std@@@std@@QAE@XZ ; std::_Alloc_construct_ptr<std::allocator<std::_Tree_node<std::pair<std::basic_string<char,std::char_traits<char>,std::allocator<char> > const ,CGraphicImageInstance *>,void *> > >::~_Alloc_construct_ptr<std::allocator<std::_Tree_node<std::pair<std::basic_string<char,std::char_traits<char>,std::allocator<char> > const ,CGraphicImageInstance *>,void *> > >
PUBLIC	??1?$_Tree_temp_node_alloc@V?$allocator@U?$_Tree_node@U?$pair@$$CBV?$basic_string@DU?$char_traits@D@std@@V?$allocator@D@2@@std@@PAVCGraphicImageInstance@@@std@@PAX@std@@@std@@@std@@QAE@XZ ; std::_Tree_temp_node_alloc<std::allocator<std::_Tree_node<std::pair<std::basic_string<char,std::char_traits<char>,std::allocator<char> > const ,CGraphicImageInstance *>,void *> > >::~_Tree_temp_node_alloc<std::allocator<std::_Tree_node<std::pair<std::basic_string<char,std::char_traits<char>,std::allocator<char> > const ,CGraphicImageInstance *>,void *> > >
PUBLIC	??1?$_Tree_temp_node@V?$allocator@U?$_Tree_node@U?$pair@$$CBV?$basic_string@DU?$char_traits@D@std@@V?$allocator@D@2@@std@@PAVCGraphicImageInstance@@@std@@PAX@std@@@std@@@std@@QAE@XZ ; std::_Tree_temp_node<std::allocator<std::_Tree_node<std::pair<std::basic_string<char,std::char_traits<char>,std::allocator<char> > const ,CGraphicImageInstance *>,void *> > >::~_Tree_temp_node<std::allocator<std::_Tree_node<std::pair<std::basic_string<char,std::char_traits<char>,std::allocator<char> > const ,CGraphicImageInstance *>,void *> > >
PUBLIC	??$?0ABUpiecewise_construct_t@std@@V?$tuple@ABV?$basic_string@DU?$char_traits@D@std@@V?$allocator@D@2@@std@@@1@V?$tuple@$$V@1@@?$_Tree_temp_node@V?$allocator@U?$_Tree_node@U?$pair@$$CBV?$basic_string@DU?$char_traits@D@std@@V?$allocator@D@2@@std@@PAVCGraphicImageInstance@@@std@@PAX@std@@@std@@@std@@QAE@AAV?$allocator@U?$_Tree_node@U?$pair@$$CBV?$basic_string@DU?$char_traits@D@std@@V?$allocator@D@2@@std@@PAVCGraphicImageInstance@@@std@@PAX@std@@@1@PAU?$_Tree_node@U?$pair@$$CBV?$basic_string@DU?$char_traits@D@std@@V?$allocator@D@2@@std@@PAVCGraphicImageInstance@@@std@@PAX@1@ABUpiecewise_construct_t@1@$$QAV?$tuple@ABV?$basic_string@DU?$char_traits@D@std@@V?$allocator@D@2@@std@@@1@$$QAV?$tuple@$$V@1@@Z ; std::_Tree_temp_node<std::allocator<std::_Tree_node<std::pair<std::basic_string<char,std::char_traits<char>,std::allocator<char> > const ,CGraphicImageInstance *>,void *> > >::_Tree_temp_node<std::allocator<std::_Tree_node<std::pair<std::basic_string<char,std::char_traits<char>,std::allocator<char> > const ,CGraphicImageInstance *>,void *> > ><std::piecewise_construct_t const &,std::tuple<std::basic_string<char,std::char_traits<char>,std::allocator<char> > const &>,std::tuple<> >
PUBLIC	??$_Freenode@V?$allocator@U?$_Tree_node@U?$pair@$$CBV?$basic_string@DU?$char_traits@D@std@@V?$allocator@D@2@@std@@PAVCGraphicImageInstance@@@std@@PAX@std@@@std@@@?$_Tree_node@U?$pair@$$CBV?$basic_string@DU?$char_traits@D@std@@V?$allocator@D@2@@std@@PAVCGraphicImageInstance@@@std@@PAX@std@@SAXAAV?$allocator@U?$_Tree_node@U?$pair@$$CBV?$basic_string@DU?$char_traits@D@std@@V?$allocator@D@2@@std@@PAVCGraphicImageInstance@@@std@@PAX@std@@@1@PAU01@@Z ; std::_Tree_node<std::pair<std::basic_string<char,std::char_traits<char>,std::allocator<char> > const ,CGraphicImageInstance *>,void *>::_Freenode<std::allocator<std::_Tree_node<std::pair<std::basic_string<char,std::char_traits<char>,std::allocator<char> > const ,CGraphicImageInstance *>,void *> > >
PUBLIC	??$_Freenode0@V?$allocator@U?$_Tree_node@U?$pair@$$CBV?$basic_string@DU?$char_traits@D@std@@V?$allocator@D@2@@std@@PAVCGraphicImageInstance@@@std@@PAX@std@@@std@@@?$_Tree_node@U?$pair@$$CBV?$basic_string@DU?$char_traits@D@std@@V?$allocator@D@2@@std@@PAVCGraphicImageInstance@@@std@@PAX@std@@SAXAAV?$allocator@U?$_Tree_node@U?$pair@$$CBV?$basic_string@DU?$char_traits@D@std@@V?$allocator@D@2@@std@@PAVCGraphicImageInstance@@@std@@PAX@std@@@1@PAU01@@Z ; std::_Tree_node<std::pair<std::basic_string<char,std::char_traits<char>,std::allocator<char> > const ,CGraphicImageInstance *>,void *>::_Freenode0<std::allocator<std::_Tree_node<std::pair<std::basic_string<char,std::char_traits<char>,std::allocator<char> > const ,CGraphicImageInstance *>,void *> > >
PUBLIC	??$_Resize_reallocate@U_Value_init_tag@std@@@?$vector@VCSkyObjectQuad@@V?$allocator@VCSkyObjectQuad@@@std@@@std@@AAEXIABU_Value_init_tag@1@@Z ; std::vector<CSkyObjectQuad,std::allocator<CSkyObjectQuad> >::_Resize_reallocate<std::_Value_init_tag>
PUBLIC	??$_Construct_in_place@PAU?$_Tree_node@U?$pair@$$CBV?$basic_string@DU?$char_traits@D@std@@V?$allocator@D@2@@std@@PAVCGraphicImageInstance@@@std@@PAX@std@@ABQAU12@@std@@YAXAAPAU?$_Tree_node@U?$pair@$$CBV?$basic_string@DU?$char_traits@D@std@@V?$allocator@D@2@@std@@PAVCGraphicImageInstance@@@std@@PAX@0@ABQAU10@@Z ; std::_Construct_in_place<std::_Tree_node<std::pair<std::basic_string<char,std::char_traits<char>,std::allocator<char> > const ,CGraphicImageInstance *>,void *> *,std::_Tree_node<std::pair<std::basic_string<char,std::char_traits<char>,std::allocator<char> > const ,CGraphicImageInstance *>,void *> * const &>
PUBLIC	??$_Destroy_in_place@PAU?$_Tree_node@U?$pair@$$CBV?$basic_string@DU?$char_traits@D@std@@V?$allocator@D@2@@std@@PAVCGraphicImageInstance@@@std@@PAX@std@@@std@@YAXAAPAU?$_Tree_node@U?$pair@$$CBV?$basic_string@DU?$char_traits@D@std@@V?$allocator@D@2@@std@@PAVCGraphicImageInstance@@@std@@PAX@0@@Z ; std::_Destroy_in_place<std::_Tree_node<std::pair<std::basic_string<char,std::char_traits<char>,std::allocator<char> > const ,CGraphicImageInstance *>,void *> *>
PUBLIC	??$_Uninitialized_value_construct_n@V?$allocator@VCSkyObjectQuad@@@std@@@std@@YAPAVCSkyObjectQuad@@PAV1@IAAV?$allocator@VCSkyObjectQuad@@@0@@Z ; std::_Uninitialized_value_construct_n<std::allocator<CSkyObjectQuad> >
PUBLIC	??$?0U?$pair@$$CBV?$basic_string@DU?$char_traits@D@std@@V?$allocator@D@2@@std@@PAVCGraphicImageInstance@@@std@@@?$_Tree_temp_node@V?$allocator@U?$_Tree_node@U?$pair@$$CBV?$basic_string@DU?$char_traits@D@std@@V?$allocator@D@2@@std@@PAVCGraphicImageInstance@@@std@@PAX@std@@@std@@@std@@QAE@AAV?$allocator@U?$_Tree_node@U?$pair@$$CBV?$basic_string@DU?$char_traits@D@std@@V?$allocator@D@2@@std@@PAVCGraphicImageInstance@@@std@@PAX@std@@@1@PAU?$_Tree_node@U?$pair@$$CBV?$basic_string@DU?$char_traits@D@std@@V?$allocator@D@2@@std@@PAVCGraphicImageInstance@@@std@@PAX@1@$$QAU?$pair@$$CBV?$basic_string@DU?$char_traits@D@std@@V?$allocator@D@2@@std@@PAVCGraphicImageInstance@@@1@@Z ; std::_Tree_temp_node<std::allocator<std::_Tree_node<std::pair<std::basic_string<char,std::char_traits<char>,std::allocator<char> > const ,CGraphicImageInstance *>,void *> > >::_Tree_temp_node<std::allocator<std::_Tree_node<std::pair<std::basic_string<char,std::char_traits<char>,std::allocator<char> > const ,CGraphicImageInstance *>,void *> > ><std::pair<std::basic_string<char,std::char_traits<char>,std::allocator<char> > const ,CGraphicImageInstance *> >
PUBLIC	??$construct@U?$pair@$$CBV?$basic_string@DU?$char_traits@D@std@@V?$allocator@D@2@@std@@PAVCGraphicImageInstance@@@std@@ABUpiecewise_construct_t@2@V?$tuple@ABV?$basic_string@DU?$char_traits@D@std@@V?$allocator@D@2@@std@@@2@V?$tuple@$$V@2@@?$_Default_allocator_traits@V?$allocator@U?$_Tree_node@U?$pair@$$CBV?$basic_string@DU?$char_traits@D@std@@V?$allocator@D@2@@std@@PAVCGraphicImageInstance@@@std@@PAX@std@@@std@@@std@@SAXAAV?$allocator@U?$_Tree_node@U?$pair@$$CBV?$basic_string@DU?$char_traits@D@std@@V?$allocator@D@2@@std@@PAVCGraphicImageInstance@@@std@@PAX@std@@@1@QAU?$pair@$$CBV?$basic_string@DU?$char_traits@D@std@@V?$allocator@D@2@@std@@PAVCGraphicImageInstance@@@1@ABUpiecewise_construct_t@1@$$QAV?$tuple@ABV?$basic_string@DU?$char_traits@D@std@@V?$allocator@D@2@@std@@@1@$$QAV?$tuple@$$V@1@@Z ; std::_Default_allocator_traits<std::allocator<std::_Tree_node<std::pair<std::basic_string<char,std::char_traits<char>,std::allocator<char> > const ,CGraphicImageInstance *>,void *> > >::construct<std::pair<std::basic_string<char,std::char_traits<char>,std::allocator<char> > const ,CGraphicImageInstance *>,std::piecewise_construct_t const &,std::tuple<std::basic_string<char,std::char_traits<char>,std::allocator<char> > const &>,std::tuple<> >
PUBLIC	??$_Construct_in_place@PAU?$_Tree_node@U?$pair@$$CBV?$basic_string@DU?$char_traits@D@std@@V?$allocator@D@2@@std@@PAVCGraphicImageInstance@@@std@@PAX@std@@AAPAU12@@std@@YAXAAPAU?$_Tree_node@U?$pair@$$CBV?$basic_string@DU?$char_traits@D@std@@V?$allocator@D@2@@std@@PAVCGraphicImageInstance@@@std@@PAX@0@0@Z ; std::_Construct_in_place<std::_Tree_node<std::pair<std::basic_string<char,std::char_traits<char>,std::allocator<char> > const ,CGraphicImageInstance *>,void *> *,std::_Tree_node<std::pair<std::basic_string<char,std::char_traits<char>,std::allocator<char> > const ,CGraphicImageInstance *>,void *> * &>
PUBLIC	??1?$_Uninitialized_backout_al@V?$allocator@VCSkyObjectQuad@@@std@@@std@@QAE@XZ ; std::_Uninitialized_backout_al<std::allocator<CSkyObjectQuad> >::~_Uninitialized_backout_al<std::allocator<CSkyObjectQuad> >
PUBLIC	??$_Emplace_back@$$V@?$_Uninitialized_backout_al@V?$allocator@VCSkyObjectQuad@@@std@@@std@@QAEXXZ ; std::_Uninitialized_backout_al<std::allocator<CSkyObjectQuad> >::_Emplace_back<>
PUBLIC	??$?MDU?$char_traits@D@std@@V?$allocator@D@1@@std@@YA_NABV?$basic_string@DU?$char_traits@D@std@@V?$allocator@D@2@@0@0@Z ; std::operator<<char,std::char_traits<char>,std::allocator<char> >
PUBLIC	??$_Uninitialized_move@PAVCSkyObjectQuad@@V?$allocator@VCSkyObjectQuad@@@std@@@std@@YAPAVCSkyObjectQuad@@QAV1@0PAV1@AAV?$allocator@VCSkyObjectQuad@@@0@@Z ; std::_Uninitialized_move<CSkyObjectQuad *,std::allocator<CSkyObjectQuad> >
PUBLIC	??$?0ABV?$basic_string@DU?$char_traits@D@std@@V?$allocator@D@2@@std@@$$Z$$V@?$pair@$$CBV?$basic_string@DU?$char_traits@D@std@@V?$allocator@D@2@@std@@PAVCGraphicImageInstance@@@std@@QAE@Upiecewise_construct_t@1@V?$tuple@ABV?$basic_string@DU?$char_traits@D@std@@V?$allocator@D@2@@std@@@1@V?$tuple@$$V@1@@Z ; std::pair<std::basic_string<char,std::char_traits<char>,std::allocator<char> > const ,CGraphicImageInstance *>::pair<std::basic_string<char,std::char_traits<char>,std::allocator<char> > const ,CGraphicImageInstance *><std::basic_string<char,std::char_traits<char>,std::allocator<char> > const &>
PUBLIC	??$_Emplace_back@VCSkyObjectQuad@@@?$_Uninitialized_backout_al@V?$allocator@VCSkyObjectQuad@@@std@@@std@@QAEX$$QAVCSkyObjectQuad@@@Z ; std::_Uninitialized_backout_al<std::allocator<CSkyObjectQuad> >::_Emplace_back<CSkyObjectQuad>
PUBLIC	??_7exception@std@@6B@				; std::exception::`vftable'
PUBLIC	??_C@_0BC@EOODALEL@Unknown?5exception@		; `string'
PUBLIC	??_7bad_alloc@std@@6B@				; std::bad_alloc::`vftable'
PUBLIC	??_7bad_array_new_length@std@@6B@		; std::bad_array_new_length::`vftable'
PUBLIC	??_C@_0BF@KINCDENJ@bad?5array?5new?5length@	; `string'
PUBLIC	__TI3?AVbad_array_new_length@std@@
PUBLIC	__CTA3?AVbad_array_new_length@std@@
PUBLIC	??_R0?AVbad_array_new_length@std@@@8		; std::bad_array_new_length `RTTI Type Descriptor'
PUBLIC	__CT??_R0?AVbad_array_new_length@std@@@8??0bad_array_new_length@std@@QAE@ABV01@@Z12
PUBLIC	??_R0?AVbad_alloc@std@@@8			; std::bad_alloc `RTTI Type Descriptor'
PUBLIC	__CT??_R0?AVbad_alloc@std@@@8??0bad_alloc@std@@QAE@ABV01@@Z12
PUBLIC	??_R0?AVexception@std@@@8			; std::exception `RTTI Type Descriptor'
PUBLIC	__CT??_R0?AVexception@std@@@8??0exception@std@@QAE@ABV01@@Z12
PUBLIC	??_C@_0BA@JFNIOLAK@string?5too?5long@		; `string'
PUBLIC	??_C@_0BB@GCADKGJO@map?1set?5too?5long@		; `string'
PUBLIC	??_R4exception@std@@6B@				; std::exception::`RTTI Complete Object Locator'
PUBLIC	??_R3exception@std@@8				; std::exception::`RTTI Class Hierarchy Descriptor'
PUBLIC	??_R2exception@std@@8				; std::exception::`RTTI Base Class Array'
PUBLIC	??_R1A@?0A@EA@exception@std@@8			; std::exception::`RTTI Base Class Descriptor at (0,-1,0,64)'
PUBLIC	??_R4bad_alloc@std@@6B@				; std::bad_alloc::`RTTI Complete Object Locator'
PUBLIC	??_R3bad_alloc@std@@8				; std::bad_alloc::`RTTI Class Hierarchy Descriptor'
PUBLIC	??_R2bad_alloc@std@@8				; std::bad_alloc::`RTTI Base Class Array'
PUBLIC	??_R1A@?0A@EA@bad_alloc@std@@8			; std::bad_alloc::`RTTI Base Class Descriptor at (0,-1,0,64)'
PUBLIC	??_R4bad_array_new_length@std@@6B@		; std::bad_array_new_length::`RTTI Complete Object Locator'
PUBLIC	??_R3bad_array_new_length@std@@8		; std::bad_array_new_length::`RTTI Class Hierarchy Descriptor'
PUBLIC	??_R2bad_array_new_length@std@@8		; std::bad_array_new_length::`RTTI Base Class Array'
PUBLIC	??_R1A@?0A@EA@bad_array_new_length@std@@8	; std::bad_array_new_length::`RTTI Base Class Descriptor at (0,-1,0,64)'
PUBLIC	??_7CSkyObjectQuad@@6B@				; CSkyObjectQuad::`vftable'
PUBLIC	??_7CSkyObject@@6B@				; CSkyObject::`vftable'
PUBLIC	??_7CSkyBox@@6B@				; CSkyBox::`vftable'
PUBLIC	?ms_singleton@?$CSingleton@VCCameraManager@@@@0PAVCCameraManager@@A ; CSingleton<CCameraManager>::ms_singleton
PUBLIC	?ms_singleton@?$CSingleton@VCStateManager@@@@0PAVCStateManager@@A ; CSingleton<CStateManager>::ms_singleton
PUBLIC	?ms_singleton@?$CSingleton@VCResourceManager@@@@0PAVCResourceManager@@A ; CSingleton<CResourceManager>::ms_singleton
PUBLIC	?ms_singleton@?$CSingleton@VCTimer@@@@0PAVCTimer@@A ; CSingleton<CTimer>::ms_singleton
PUBLIC	??_C@_05HJNNLMDJ@front@				; `string'
PUBLIC	??_C@_04JFCNHLLM@back@				; `string'
PUBLIC	??_C@_04GOOOJOPP@left@				; `string'
PUBLIC	??_C@_05DHJDAOHK@right@				; `string'
PUBLIC	??_C@_03FGFCOCMD@top@				; `string'
PUBLIC	??_C@_06PMMPCIPB@bottom@			; `string'
PUBLIC	??_C@_0BJ@DHFDPMIM@invalid?5vector?5subscript@	; `string'
PUBLIC	??_C@_0BA@FOIKENOD@vector?5too?5long@		; `string'
PUBLIC	??_R4CSkyObjectQuad@@6B@			; CSkyObjectQuad::`RTTI Complete Object Locator'
PUBLIC	??_R0?AVCSkyObjectQuad@@@8			; CSkyObjectQuad `RTTI Type Descriptor'
PUBLIC	??_R3CSkyObjectQuad@@8				; CSkyObjectQuad::`RTTI Class Hierarchy Descriptor'
PUBLIC	??_R2CSkyObjectQuad@@8				; CSkyObjectQuad::`RTTI Base Class Array'
PUBLIC	??_R1A@?0A@EA@CSkyObjectQuad@@8			; CSkyObjectQuad::`RTTI Base Class Descriptor at (0,-1,0,64)'
PUBLIC	??_R4CSkyObject@@6B@				; CSkyObject::`RTTI Complete Object Locator'
PUBLIC	??_R0?AVCSkyObject@@@8				; CSkyObject `RTTI Type Descriptor'
PUBLIC	??_R3CSkyObject@@8				; CSkyObject::`RTTI Class Hierarchy Descriptor'
PUBLIC	??_R2CSkyObject@@8				; CSkyObject::`RTTI Base Class Array'
PUBLIC	??_R1A@?0A@EA@CSkyObject@@8			; CSkyObject::`RTTI Base Class Descriptor at (0,-1,0,64)'
PUBLIC	??_R1A@?0A@EA@CScreen@@8			; CScreen::`RTTI Base Class Descriptor at (0,-1,0,64)'
PUBLIC	??_R0?AVCScreen@@@8				; CScreen `RTTI Type Descriptor'
PUBLIC	??_R3CScreen@@8					; CScreen::`RTTI Class Hierarchy Descriptor'
PUBLIC	??_R2CScreen@@8					; CScreen::`RTTI Base Class Array'
PUBLIC	??_R1A@?0A@EA@CGraphicCollisionObject@@8	; CGraphicCollisionObject::`RTTI Base Class Descriptor at (0,-1,0,64)'
PUBLIC	??_R0?AVCGraphicCollisionObject@@@8		; CGraphicCollisionObject `RTTI Type Descriptor'
PUBLIC	??_R3CGraphicCollisionObject@@8			; CGraphicCollisionObject::`RTTI Class Hierarchy Descriptor'
PUBLIC	??_R2CGraphicCollisionObject@@8			; CGraphicCollisionObject::`RTTI Base Class Array'
PUBLIC	??_R1A@?0A@EA@CGraphicBase@@8			; CGraphicBase::`RTTI Base Class Descriptor at (0,-1,0,64)'
PUBLIC	??_R0?AVCGraphicBase@@@8			; CGraphicBase `RTTI Type Descriptor'
PUBLIC	??_R3CGraphicBase@@8				; CGraphicBase::`RTTI Class Hierarchy Descriptor'
PUBLIC	??_R2CGraphicBase@@8				; CGraphicBase::`RTTI Base Class Array'
PUBLIC	??_R4CSkyBox@@6B@				; CSkyBox::`RTTI Complete Object Locator'
PUBLIC	??_R0?AVCSkyBox@@@8				; CSkyBox `RTTI Type Descriptor'
PUBLIC	??_R3CSkyBox@@8					; CSkyBox::`RTTI Class Hierarchy Descriptor'
PUBLIC	??_R2CSkyBox@@8					; CSkyBox::`RTTI Base Class Array'
PUBLIC	??_R1A@?0A@EA@CSkyBox@@8			; CSkyBox::`RTTI Base Class Descriptor at (0,-1,0,64)'
PUBLIC	__real@3a83126f
PUBLIC	__real@3f000000
PUBLIC	__real@3f490fdb
PUBLIC	__real@3f800000
PUBLIC	__real@3faaaa8f
PUBLIC	__real@42480000
PUBLIC	__real@497423f0
PUBLIC	__real@bf800000
PUBLIC	__xmm@41f00000000000000000000000000000
PUBLIC	__xmm@80000000800000008000000080000000
EXTRN	??_L@YGXPAXIIP6EX0@Z1@Z:PROC			; `eh vector constructor iterator'
EXTRN	??_M@YGXPAXIIP6EX0@Z@Z:PROC			; `eh vector destructor iterator'
EXTRN	__purecall:PROC
EXTRN	??2@YAPAXI@Z:PROC				; operator new
EXTRN	??3@YAXPAXI@Z:PROC				; operator delete
EXTRN	__invalid_parameter_noinfo_noreturn:PROC
EXTRN	_memcmp:PROC
EXTRN	_memcpy:PROC
EXTRN	_memmove:PROC
EXTRN	_memset:PROC
EXTRN	_strlen:PROC
EXTRN	_D3DXMatrixScaling@16:PROC
EXTRN	_D3DXMatrixPerspectiveFovRH@20:PROC
EXTRN	___std_exception_copy:PROC
EXTRN	___std_exception_destroy:PROC
EXTRN	??_Eexception@std@@UAEPAXI@Z:PROC		; std::exception::`vector deleting destructor'
EXTRN	??_Ebad_alloc@std@@UAEPAXI@Z:PROC		; std::bad_alloc::`vector deleting destructor'
EXTRN	??_Ebad_array_new_length@std@@UAEPAXI@Z:PROC	; std::bad_array_new_length::`vector deleting destructor'
EXTRN	?_Xlength_error@std@@YAXPBD@Z:PROC		; std::_Xlength_error
EXTRN	?_Xout_of_range@std@@YAXPBD@Z:PROC		; std::_Xout_of_range
EXTRN	?SetPDTStream@CGraphicBase@@SA_NPAUSPDTVertex@@I@Z:PROC ; CGraphicBase::SetPDTStream
EXTRN	??0CScreen@@QAE@XZ:PROC				; CScreen::CScreen
EXTRN	??1CScreen@@UAE@XZ:PROC				; CScreen::~CScreen
EXTRN	?IsType@CResource@@QAE_NK@Z:PROC		; CResource::IsType
EXTRN	?GetD3DTexture@CGraphicTexture@@QBEPAUIDirect3DTexture8@@XZ:PROC ; CGraphicTexture::GetD3DTexture
EXTRN	?Type@CGraphicImage@@SAKXZ:PROC			; CGraphicImage::Type
EXTRN	??0CGraphicImageInstance@@QAE@XZ:PROC		; CGraphicImageInstance::CGraphicImageInstance
EXTRN	??1CGraphicImageInstance@@UAE@XZ:PROC		; CGraphicImageInstance::~CGraphicImageInstance
EXTRN	?SetImagePointer@CGraphicImageInstance@@QAEXPAVCGraphicImage@@@Z:PROC ; CGraphicImageInstance::SetImagePointer
EXTRN	?GetTexturePointer@CGraphicImageInstance@@QAEPAVCGraphicTexture@@XZ:PROC ; CGraphicImageInstance::GetTexturePointer
EXTRN	?GetTextureReference@CGraphicImageInstance@@QBEABVCGraphicTexture@@XZ:PROC ; CGraphicImageInstance::GetTextureReference
EXTRN	?New@CGraphicImageInstance@@SAPAV1@XZ:PROC	; CGraphicImageInstance::New
EXTRN	?Delete@CGraphicImageInstance@@SAXPAV1@@Z:PROC	; CGraphicImageInstance::Delete
EXTRN	??0CColorTransitionHelper@@QAE@XZ:PROC		; CColorTransitionHelper::CColorTransitionHelper
EXTRN	??1CColorTransitionHelper@@QAE@XZ:PROC		; CColorTransitionHelper::~CColorTransitionHelper
EXTRN	?Clear@CColorTransitionHelper@@QAEXABM000@Z:PROC ; CColorTransitionHelper::Clear
EXTRN	?SetSrcColor@CColorTransitionHelper@@QAEXABM000@Z:PROC ; CColorTransitionHelper::SetSrcColor
EXTRN	?SetTransition@CColorTransitionHelper@@QAEXABM000ABK@Z:PROC ; CColorTransitionHelper::SetTransition
EXTRN	?GetCurColor@CColorTransitionHelper@@QAEABKXZ:PROC ; CColorTransitionHelper::GetCurColor
EXTRN	?StartTransition@CColorTransitionHelper@@QAEXXZ:PROC ; CColorTransitionHelper::StartTransition
EXTRN	?Update@CColorTransitionHelper@@QAE_NXZ:PROC	; CColorTransitionHelper::Update
EXTRN	??_ECSkyObjectQuad@@UAEPAXI@Z:PROC		; CSkyObjectQuad::`vector deleting destructor'
EXTRN	??_ECSkyObject@@UAEPAXI@Z:PROC			; CSkyObject::`vector deleting destructor'
EXTRN	??_ECSkyBox@@UAEPAXI@Z:PROC			; CSkyBox::`vector deleting destructor'
EXTRN	?GetCurrentCamera@CCameraManager@@QAEPAVCCamera@@XZ:PROC ; CCameraManager::GetCurrentCamera
EXTRN	?SaveRenderState@CStateManager@@QAEXW4_D3DRENDERSTATETYPE@@K@Z:PROC ; CStateManager::SaveRenderState
EXTRN	?RestoreRenderState@CStateManager@@QAEXW4_D3DRENDERSTATETYPE@@@Z:PROC ; CStateManager::RestoreRenderState
EXTRN	?SetTexture@CStateManager@@QAEXKPAUIDirect3DBaseTexture8@@@Z:PROC ; CStateManager::SetTexture
EXTRN	?SaveTextureStageState@CStateManager@@QAEXKW4_D3DTEXTURESTAGESTATETYPE@@K@Z:PROC ; CStateManager::SaveTextureStageState
EXTRN	?RestoreTextureStageState@CStateManager@@QAEXKW4_D3DTEXTURESTAGESTATETYPE@@@Z:PROC ; CStateManager::RestoreTextureStageState
EXTRN	?SetTextureStageState@CStateManager@@QAEXKW4_D3DTEXTURESTAGESTATETYPE@@K@Z:PROC ; CStateManager::SetTextureStageState
EXTRN	?SetVertexShader@CStateManager@@QAEXK@Z:PROC	; CStateManager::SetVertexShader
EXTRN	?SaveTransform@CStateManager@@QAEXW4_D3DTRANSFORMSTATETYPE@@PBU_D3DMATRIX@@@Z:PROC ; CStateManager::SaveTransform
EXTRN	?RestoreTransform@CStateManager@@QAEXW4_D3DTRANSFORMSTATETYPE@@@Z:PROC ; CStateManager::RestoreTransform
EXTRN	?SetTransform@CStateManager@@QAEXW4_D3DTRANSFORMSTATETYPE@@PBU_D3DMATRIX@@@Z:PROC ; CStateManager::SetTransform
EXTRN	?DrawPrimitive@CStateManager@@QAEJW4_D3DPRIMITIVETYPE@@II@Z:PROC ; CStateManager::DrawPrimitive
EXTRN	?GetResourcePointer@CResourceManager@@QAEPAVCResource@@PBD@Z:PROC ; CResourceManager::GetResourcePointer
EXTRN	?GetCurrentMillisecond@CTimer@@QAEKXZ:PROC	; CTimer::GetCurrentMillisecond
EXTRN	@__security_check_cookie@4:PROC
EXTRN	__CxxThrowException@8:PROC
EXTRN	___CxxFrameHandler3:PROC
EXTRN	??_7type_info@@6B@:QWORD			; type_info::`vftable'
EXTRN	___security_cookie:DWORD
EXTRN	__fltused:DWORD
;	COMDAT ?ms_singleton@?$CSingleton@VCCameraManager@@@@0PAVCCameraManager@@A
_BSS	SEGMENT
?ms_singleton@?$CSingleton@VCCameraManager@@@@0PAVCCameraManager@@A DD 01H DUP (?) ; CSingleton<CCameraManager>::ms_singleton
_BSS	ENDS
;	COMDAT ?ms_singleton@?$CSingleton@VCStateManager@@@@0PAVCStateManager@@A
_BSS	SEGMENT
?ms_singleton@?$CSingleton@VCStateManager@@@@0PAVCStateManager@@A DD 01H DUP (?) ; CSingleton<CStateManager>::ms_singleton
_BSS	ENDS
;	COMDAT ?ms_singleton@?$CSingleton@VCResourceManager@@@@0PAVCResourceManager@@A
_BSS	SEGMENT
?ms_singleton@?$CSingleton@VCResourceManager@@@@0PAVCResourceManager@@A DD 01H DUP (?) ; CSingleton<CResourceManager>::ms_singleton
_BSS	ENDS
;	COMDAT ?ms_singleton@?$CSingleton@VCTimer@@@@0PAVCTimer@@A
_BSS	SEGMENT
?ms_singleton@?$CSingleton@VCTimer@@@@0PAVCTimer@@A DD 01H DUP (?) ; CSingleton<CTimer>::ms_singleton
_BSS	ENDS
;	COMDAT __xmm@80000000800000008000000080000000
CONST	SEGMENT
__xmm@80000000800000008000000080000000 DB 00H, 00H, 00H, 080H, 00H, 00H, 00H
	DB	080H, 00H, 00H, 00H, 080H, 00H, 00H, 00H, 080H
CONST	ENDS
;	COMDAT __xmm@41f00000000000000000000000000000
CONST	SEGMENT
__xmm@41f00000000000000000000000000000 DB 00H, 00H, 00H, 00H, 00H, 00H, 00H
	DB	00H, 00H, 00H, 00H, 00H, 00H, 00H, 0f0H, 'A'
CONST	ENDS
;	COMDAT __real@bf800000
CONST	SEGMENT
__real@bf800000 DD 0bf800000r			; -1
CONST	ENDS
;	COMDAT __real@497423f0
CONST	SEGMENT
__real@497423f0 DD 0497423f0r			; 999999
CONST	ENDS
;	COMDAT __real@42480000
CONST	SEGMENT
__real@42480000 DD 042480000r			; 50
CONST	ENDS
;	COMDAT __real@3faaaa8f
CONST	SEGMENT
__real@3faaaa8f DD 03faaaa8fr			; 1.33333
CONST	ENDS
;	COMDAT __real@3f800000
CONST	SEGMENT
__real@3f800000 DD 03f800000r			; 1
CONST	ENDS
;	COMDAT __real@3f490fdb
CONST	SEGMENT
__real@3f490fdb DD 03f490fdbr			; 0.785398
CONST	ENDS
;	COMDAT __real@3f000000
CONST	SEGMENT
__real@3f000000 DD 03f000000r			; 0.5
CONST	ENDS
;	COMDAT __real@3a83126f
CONST	SEGMENT
__real@3a83126f DD 03a83126fr			; 0.001
CONST	ENDS
;	COMDAT ??_R1A@?0A@EA@CSkyBox@@8
rdata$r	SEGMENT
??_R1A@?0A@EA@CSkyBox@@8 DD FLAT:??_R0?AVCSkyBox@@@8	; CSkyBox::`RTTI Base Class Descriptor at (0,-1,0,64)'
	DD	04H
	DD	00H
	DD	0ffffffffH
	DD	00H
	DD	040H
	DD	FLAT:??_R3CSkyBox@@8
rdata$r	ENDS
;	COMDAT ??_R2CSkyBox@@8
rdata$r	SEGMENT
??_R2CSkyBox@@8 DD FLAT:??_R1A@?0A@EA@CSkyBox@@8	; CSkyBox::`RTTI Base Class Array'
	DD	FLAT:??_R1A@?0A@EA@CSkyObject@@8
	DD	FLAT:??_R1A@?0A@EA@CScreen@@8
	DD	FLAT:??_R1A@?0A@EA@CGraphicCollisionObject@@8
	DD	FLAT:??_R1A@?0A@EA@CGraphicBase@@8
rdata$r	ENDS
;	COMDAT ??_R3CSkyBox@@8
rdata$r	SEGMENT
??_R3CSkyBox@@8 DD 00H					; CSkyBox::`RTTI Class Hierarchy Descriptor'
	DD	00H
	DD	05H
	DD	FLAT:??_R2CSkyBox@@8
rdata$r	ENDS
;	COMDAT ??_R0?AVCSkyBox@@@8
data$rs	SEGMENT
??_R0?AVCSkyBox@@@8 DD FLAT:??_7type_info@@6B@		; CSkyBox `RTTI Type Descriptor'
	DD	00H
	DB	'.?AVCSkyBox@@', 00H
data$rs	ENDS
;	COMDAT ??_R4CSkyBox@@6B@
rdata$r	SEGMENT
??_R4CSkyBox@@6B@ DD 00H				; CSkyBox::`RTTI Complete Object Locator'
	DD	00H
	DD	00H
	DD	FLAT:??_R0?AVCSkyBox@@@8
	DD	FLAT:??_R3CSkyBox@@8
rdata$r	ENDS
;	COMDAT ??_R2CGraphicBase@@8
rdata$r	SEGMENT
??_R2CGraphicBase@@8 DD FLAT:??_R1A@?0A@EA@CGraphicBase@@8 ; CGraphicBase::`RTTI Base Class Array'
rdata$r	ENDS
;	COMDAT ??_R3CGraphicBase@@8
rdata$r	SEGMENT
??_R3CGraphicBase@@8 DD 00H				; CGraphicBase::`RTTI Class Hierarchy Descriptor'
	DD	00H
	DD	01H
	DD	FLAT:??_R2CGraphicBase@@8
rdata$r	ENDS
;	COMDAT ??_R0?AVCGraphicBase@@@8
data$rs	SEGMENT
??_R0?AVCGraphicBase@@@8 DD FLAT:??_7type_info@@6B@	; CGraphicBase `RTTI Type Descriptor'
	DD	00H
	DB	'.?AVCGraphicBase@@', 00H
data$rs	ENDS
;	COMDAT ??_R1A@?0A@EA@CGraphicBase@@8
rdata$r	SEGMENT
??_R1A@?0A@EA@CGraphicBase@@8 DD FLAT:??_R0?AVCGraphicBase@@@8 ; CGraphicBase::`RTTI Base Class Descriptor at (0,-1,0,64)'
	DD	00H
	DD	00H
	DD	0ffffffffH
	DD	00H
	DD	040H
	DD	FLAT:??_R3CGraphicBase@@8
rdata$r	ENDS
;	COMDAT ??_R2CGraphicCollisionObject@@8
rdata$r	SEGMENT
??_R2CGraphicCollisionObject@@8 DD FLAT:??_R1A@?0A@EA@CGraphicCollisionObject@@8 ; CGraphicCollisionObject::`RTTI Base Class Array'
	DD	FLAT:??_R1A@?0A@EA@CGraphicBase@@8
rdata$r	ENDS
;	COMDAT ??_R3CGraphicCollisionObject@@8
rdata$r	SEGMENT
??_R3CGraphicCollisionObject@@8 DD 00H			; CGraphicCollisionObject::`RTTI Class Hierarchy Descriptor'
	DD	00H
	DD	02H
	DD	FLAT:??_R2CGraphicCollisionObject@@8
rdata$r	ENDS
;	COMDAT ??_R0?AVCGraphicCollisionObject@@@8
data$rs	SEGMENT
??_R0?AVCGraphicCollisionObject@@@8 DD FLAT:??_7type_info@@6B@ ; CGraphicCollisionObject `RTTI Type Descriptor'
	DD	00H
	DB	'.?AVCGraphicCollisionObject@@', 00H
data$rs	ENDS
;	COMDAT ??_R1A@?0A@EA@CGraphicCollisionObject@@8
rdata$r	SEGMENT
??_R1A@?0A@EA@CGraphicCollisionObject@@8 DD FLAT:??_R0?AVCGraphicCollisionObject@@@8 ; CGraphicCollisionObject::`RTTI Base Class Descriptor at (0,-1,0,64)'
	DD	01H
	DD	00H
	DD	0ffffffffH
	DD	00H
	DD	040H
	DD	FLAT:??_R3CGraphicCollisionObject@@8
rdata$r	ENDS
;	COMDAT ??_R2CScreen@@8
rdata$r	SEGMENT
??_R2CScreen@@8 DD FLAT:??_R1A@?0A@EA@CScreen@@8	; CScreen::`RTTI Base Class Array'
	DD	FLAT:??_R1A@?0A@EA@CGraphicCollisionObject@@8
	DD	FLAT:??_R1A@?0A@EA@CGraphicBase@@8
rdata$r	ENDS
;	COMDAT ??_R3CScreen@@8
rdata$r	SEGMENT
??_R3CScreen@@8 DD 00H					; CScreen::`RTTI Class Hierarchy Descriptor'
	DD	00H
	DD	03H
	DD	FLAT:??_R2CScreen@@8
rdata$r	ENDS
;	COMDAT ??_R0?AVCScreen@@@8
data$rs	SEGMENT
??_R0?AVCScreen@@@8 DD FLAT:??_7type_info@@6B@		; CScreen `RTTI Type Descriptor'
	DD	00H
	DB	'.?AVCScreen@@', 00H
data$rs	ENDS
;	COMDAT ??_R1A@?0A@EA@CScreen@@8
rdata$r	SEGMENT
??_R1A@?0A@EA@CScreen@@8 DD FLAT:??_R0?AVCScreen@@@8	; CScreen::`RTTI Base Class Descriptor at (0,-1,0,64)'
	DD	02H
	DD	00H
	DD	0ffffffffH
	DD	00H
	DD	040H
	DD	FLAT:??_R3CScreen@@8
rdata$r	ENDS
;	COMDAT ??_R1A@?0A@EA@CSkyObject@@8
rdata$r	SEGMENT
??_R1A@?0A@EA@CSkyObject@@8 DD FLAT:??_R0?AVCSkyObject@@@8 ; CSkyObject::`RTTI Base Class Descriptor at (0,-1,0,64)'
	DD	03H
	DD	00H
	DD	0ffffffffH
	DD	00H
	DD	040H
	DD	FLAT:??_R3CSkyObject@@8
rdata$r	ENDS
;	COMDAT ??_R2CSkyObject@@8
rdata$r	SEGMENT
??_R2CSkyObject@@8 DD FLAT:??_R1A@?0A@EA@CSkyObject@@8	; CSkyObject::`RTTI Base Class Array'
	DD	FLAT:??_R1A@?0A@EA@CScreen@@8
	DD	FLAT:??_R1A@?0A@EA@CGraphicCollisionObject@@8
	DD	FLAT:??_R1A@?0A@EA@CGraphicBase@@8
rdata$r	ENDS
;	COMDAT ??_R3CSkyObject@@8
rdata$r	SEGMENT
??_R3CSkyObject@@8 DD 00H				; CSkyObject::`RTTI Class Hierarchy Descriptor'
	DD	00H
	DD	04H
	DD	FLAT:??_R2CSkyObject@@8
rdata$r	ENDS
;	COMDAT ??_R0?AVCSkyObject@@@8
data$rs	SEGMENT
??_R0?AVCSkyObject@@@8 DD FLAT:??_7type_info@@6B@	; CSkyObject `RTTI Type Descriptor'
	DD	00H
	DB	'.?AVCSkyObject@@', 00H
data$rs	ENDS
;	COMDAT ??_R4CSkyObject@@6B@
rdata$r	SEGMENT
??_R4CSkyObject@@6B@ DD 00H				; CSkyObject::`RTTI Complete Object Locator'
	DD	00H
	DD	00H
	DD	FLAT:??_R0?AVCSkyObject@@@8
	DD	FLAT:??_R3CSkyObject@@8
rdata$r	ENDS
;	COMDAT ??_R1A@?0A@EA@CSkyObjectQuad@@8
rdata$r	SEGMENT
??_R1A@?0A@EA@CSkyObjectQuad@@8 DD FLAT:??_R0?AVCSkyObjectQuad@@@8 ; CSkyObjectQuad::`RTTI Base Class Descriptor at (0,-1,0,64)'
	DD	00H
	DD	00H
	DD	0ffffffffH
	DD	00H
	DD	040H
	DD	FLAT:??_R3CSkyObjectQuad@@8
rdata$r	ENDS
;	COMDAT ??_R2CSkyObjectQuad@@8
rdata$r	SEGMENT
??_R2CSkyObjectQuad@@8 DD FLAT:??_R1A@?0A@EA@CSkyObjectQuad@@8 ; CSkyObjectQuad::`RTTI Base Class Array'
rdata$r	ENDS
;	COMDAT ??_R3CSkyObjectQuad@@8
rdata$r	SEGMENT
??_R3CSkyObjectQuad@@8 DD 00H				; CSkyObjectQuad::`RTTI Class Hierarchy Descriptor'
	DD	00H
	DD	01H
	DD	FLAT:??_R2CSkyObjectQuad@@8
rdata$r	ENDS
;	COMDAT ??_R0?AVCSkyObjectQuad@@@8
data$rs	SEGMENT
??_R0?AVCSkyObjectQuad@@@8 DD FLAT:??_7type_info@@6B@	; CSkyObjectQuad `RTTI Type Descriptor'
	DD	00H
	DB	'.?AVCSkyObjectQuad@@', 00H
data$rs	ENDS
;	COMDAT ??_R4CSkyObjectQuad@@6B@
rdata$r	SEGMENT
??_R4CSkyObjectQuad@@6B@ DD 00H				; CSkyObjectQuad::`RTTI Complete Object Locator'
	DD	00H
	DD	00H
	DD	FLAT:??_R0?AVCSkyObjectQuad@@@8
	DD	FLAT:??_R3CSkyObjectQuad@@8
rdata$r	ENDS
;	COMDAT ??_C@_0BA@FOIKENOD@vector?5too?5long@
CONST	SEGMENT
??_C@_0BA@FOIKENOD@vector?5too?5long@ DB 'vector too long', 00H ; `string'
CONST	ENDS
;	COMDAT ??_C@_0BJ@DHFDPMIM@invalid?5vector?5subscript@
CONST	SEGMENT
??_C@_0BJ@DHFDPMIM@invalid?5vector?5subscript@ DB 'invalid vector subscri'
	DB	'pt', 00H					; `string'
CONST	ENDS
;	COMDAT ??_C@_06PMMPCIPB@bottom@
CONST	SEGMENT
??_C@_06PMMPCIPB@bottom@ DB 'bottom', 00H		; `string'
CONST	ENDS
;	COMDAT ??_C@_03FGFCOCMD@top@
CONST	SEGMENT
??_C@_03FGFCOCMD@top@ DB 'top', 00H			; `string'
CONST	ENDS
;	COMDAT ??_C@_05DHJDAOHK@right@
CONST	SEGMENT
??_C@_05DHJDAOHK@right@ DB 'right', 00H			; `string'
CONST	ENDS
;	COMDAT ??_C@_04GOOOJOPP@left@
CONST	SEGMENT
??_C@_04GOOOJOPP@left@ DB 'left', 00H			; `string'
CONST	ENDS
;	COMDAT ??_C@_04JFCNHLLM@back@
CONST	SEGMENT
??_C@_04JFCNHLLM@back@ DB 'back', 00H			; `string'
CONST	ENDS
;	COMDAT ??_C@_05HJNNLMDJ@front@
CONST	SEGMENT
??_C@_05HJNNLMDJ@front@ DB 'front', 00H			; `string'
CONST	ENDS
;	COMDAT ??_7CSkyBox@@6B@
CONST	SEGMENT
??_7CSkyBox@@6B@ DD FLAT:??_R4CSkyBox@@6B@		; CSkyBox::`vftable'
	DD	FLAT:??_ECSkyBox@@UAEPAXI@Z
	DD	FLAT:?Destroy@CSkyBox@@UAEXXZ
	DD	FLAT:?Render@CSkyBox@@UAEXXZ
	DD	FLAT:?Update@CSkyBox@@UAEXXZ
	DD	FLAT:?StartTransition@CSkyBox@@UAEXXZ
CONST	ENDS
;	COMDAT ??_7CSkyObject@@6B@
CONST	SEGMENT
??_7CSkyObject@@6B@ DD FLAT:??_R4CSkyObject@@6B@	; CSkyObject::`vftable'
	DD	FLAT:??_ECSkyObject@@UAEPAXI@Z
	DD	FLAT:__purecall
	DD	FLAT:__purecall
	DD	FLAT:__purecall
	DD	FLAT:?StartTransition@CSkyObject@@UAEXXZ
CONST	ENDS
;	COMDAT ??_7CSkyObjectQuad@@6B@
CONST	SEGMENT
??_7CSkyObjectQuad@@6B@ DD FLAT:??_R4CSkyObjectQuad@@6B@ ; CSkyObjectQuad::`vftable'
	DD	FLAT:??_ECSkyObjectQuad@@UAEPAXI@Z
CONST	ENDS
;	COMDAT ??_R1A@?0A@EA@bad_array_new_length@std@@8
rdata$r	SEGMENT
??_R1A@?0A@EA@bad_array_new_length@std@@8 DD FLAT:??_R0?AVbad_array_new_length@std@@@8 ; std::bad_array_new_length::`RTTI Base Class Descriptor at (0,-1,0,64)'
	DD	02H
	DD	00H
	DD	0ffffffffH
	DD	00H
	DD	040H
	DD	FLAT:??_R3bad_array_new_length@std@@8
rdata$r	ENDS
;	COMDAT ??_R2bad_array_new_length@std@@8
rdata$r	SEGMENT
??_R2bad_array_new_length@std@@8 DD FLAT:??_R1A@?0A@EA@bad_array_new_length@std@@8 ; std::bad_array_new_length::`RTTI Base Class Array'
	DD	FLAT:??_R1A@?0A@EA@bad_alloc@std@@8
	DD	FLAT:??_R1A@?0A@EA@exception@std@@8
rdata$r	ENDS
;	COMDAT ??_R3bad_array_new_length@std@@8
rdata$r	SEGMENT
??_R3bad_array_new_length@std@@8 DD 00H			; std::bad_array_new_length::`RTTI Class Hierarchy Descriptor'
	DD	00H
	DD	03H
	DD	FLAT:??_R2bad_array_new_length@std@@8
rdata$r	ENDS
;	COMDAT ??_R4bad_array_new_length@std@@6B@
rdata$r	SEGMENT
??_R4bad_array_new_length@std@@6B@ DD 00H		; std::bad_array_new_length::`RTTI Complete Object Locator'
	DD	00H
	DD	00H
	DD	FLAT:??_R0?AVbad_array_new_length@std@@@8
	DD	FLAT:??_R3bad_array_new_length@std@@8
rdata$r	ENDS
;	COMDAT ??_R1A@?0A@EA@bad_alloc@std@@8
rdata$r	SEGMENT
??_R1A@?0A@EA@bad_alloc@std@@8 DD FLAT:??_R0?AVbad_alloc@std@@@8 ; std::bad_alloc::`RTTI Base Class Descriptor at (0,-1,0,64)'
	DD	01H
	DD	00H
	DD	0ffffffffH
	DD	00H
	DD	040H
	DD	FLAT:??_R3bad_alloc@std@@8
rdata$r	ENDS
;	COMDAT ??_R2bad_alloc@std@@8
rdata$r	SEGMENT
??_R2bad_alloc@std@@8 DD FLAT:??_R1A@?0A@EA@bad_alloc@std@@8 ; std::bad_alloc::`RTTI Base Class Array'
	DD	FLAT:??_R1A@?0A@EA@exception@std@@8
rdata$r	ENDS
;	COMDAT ??_R3bad_alloc@std@@8
rdata$r	SEGMENT
??_R3bad_alloc@std@@8 DD 00H				; std::bad_alloc::`RTTI Class Hierarchy Descriptor'
	DD	00H
	DD	02H
	DD	FLAT:??_R2bad_alloc@std@@8
rdata$r	ENDS
;	COMDAT ??_R4bad_alloc@std@@6B@
rdata$r	SEGMENT
??_R4bad_alloc@std@@6B@ DD 00H				; std::bad_alloc::`RTTI Complete Object Locator'
	DD	00H
	DD	00H
	DD	FLAT:??_R0?AVbad_alloc@std@@@8
	DD	FLAT:??_R3bad_alloc@std@@8
rdata$r	ENDS
;	COMDAT ??_R1A@?0A@EA@exception@std@@8
rdata$r	SEGMENT
??_R1A@?0A@EA@exception@std@@8 DD FLAT:??_R0?AVexception@std@@@8 ; std::exception::`RTTI Base Class Descriptor at (0,-1,0,64)'
	DD	00H
	DD	00H
	DD	0ffffffffH
	DD	00H
	DD	040H
	DD	FLAT:??_R3exception@std@@8
rdata$r	ENDS
;	COMDAT ??_R2exception@std@@8
rdata$r	SEGMENT
??_R2exception@std@@8 DD FLAT:??_R1A@?0A@EA@exception@std@@8 ; std::exception::`RTTI Base Class Array'
rdata$r	ENDS
;	COMDAT ??_R3exception@std@@8
rdata$r	SEGMENT
??_R3exception@std@@8 DD 00H				; std::exception::`RTTI Class Hierarchy Descriptor'
	DD	00H
	DD	01H
	DD	FLAT:??_R2exception@std@@8
rdata$r	ENDS
;	COMDAT ??_R4exception@std@@6B@
rdata$r	SEGMENT
??_R4exception@std@@6B@ DD 00H				; std::exception::`RTTI Complete Object Locator'
	DD	00H
	DD	00H
	DD	FLAT:??_R0?AVexception@std@@@8
	DD	FLAT:??_R3exception@std@@8
rdata$r	ENDS
;	COMDAT ??_C@_0BB@GCADKGJO@map?1set?5too?5long@
CONST	SEGMENT
??_C@_0BB@GCADKGJO@map?1set?5too?5long@ DB 'map/set too long', 00H ; `string'
CONST	ENDS
;	COMDAT ??_C@_0BA@JFNIOLAK@string?5too?5long@
CONST	SEGMENT
??_C@_0BA@JFNIOLAK@string?5too?5long@ DB 'string too long', 00H ; `string'
CONST	ENDS
;	COMDAT __CT??_R0?AVexception@std@@@8??0exception@std@@QAE@ABV01@@Z12
xdata$x	SEGMENT
__CT??_R0?AVexception@std@@@8??0exception@std@@QAE@ABV01@@Z12 DD 00H
	DD	FLAT:??_R0?AVexception@std@@@8
	DD	00H
	DD	0ffffffffH
	ORG $+4
	DD	0cH
	DD	FLAT:??0exception@std@@QAE@ABV01@@Z
xdata$x	ENDS
;	COMDAT ??_R0?AVexception@std@@@8
data$r	SEGMENT
??_R0?AVexception@std@@@8 DD FLAT:??_7type_info@@6B@	; std::exception `RTTI Type Descriptor'
	DD	00H
	DB	'.?AVexception@std@@', 00H
data$r	ENDS
;	COMDAT __CT??_R0?AVbad_alloc@std@@@8??0bad_alloc@std@@QAE@ABV01@@Z12
xdata$x	SEGMENT
__CT??_R0?AVbad_alloc@std@@@8??0bad_alloc@std@@QAE@ABV01@@Z12 DD 010H
	DD	FLAT:??_R0?AVbad_alloc@std@@@8
	DD	00H
	DD	0ffffffffH
	ORG $+4
	DD	0cH
	DD	FLAT:??0bad_alloc@std@@QAE@ABV01@@Z
xdata$x	ENDS
;	COMDAT ??_R0?AVbad_alloc@std@@@8
data$r	SEGMENT
??_R0?AVbad_alloc@std@@@8 DD FLAT:??_7type_info@@6B@	; std::bad_alloc `RTTI Type Descriptor'
	DD	00H
	DB	'.?AVbad_alloc@std@@', 00H
data$r	ENDS
;	COMDAT __CT??_R0?AVbad_array_new_length@std@@@8??0bad_array_new_length@std@@QAE@ABV01@@Z12
xdata$x	SEGMENT
__CT??_R0?AVbad_array_new_length@std@@@8??0bad_array_new_length@std@@QAE@ABV01@@Z12 DD 00H
	DD	FLAT:??_R0?AVbad_array_new_length@std@@@8
	DD	00H
	DD	0ffffffffH
	ORG $+4
	DD	0cH
	DD	FLAT:??0bad_array_new_length@std@@QAE@ABV01@@Z
xdata$x	ENDS
;	COMDAT ??_R0?AVbad_array_new_length@std@@@8
data$r	SEGMENT
??_R0?AVbad_array_new_length@std@@@8 DD FLAT:??_7type_info@@6B@ ; std::bad_array_new_length `RTTI Type Descriptor'
	DD	00H
	DB	'.?AVbad_array_new_length@std@@', 00H
data$r	ENDS
;	COMDAT __CTA3?AVbad_array_new_length@std@@
xdata$x	SEGMENT
__CTA3?AVbad_array_new_length@std@@ DD 03H
	DD	FLAT:__CT??_R0?AVbad_array_new_length@std@@@8??0bad_array_new_length@std@@QAE@ABV01@@Z12
	DD	FLAT:__CT??_R0?AVbad_alloc@std@@@8??0bad_alloc@std@@QAE@ABV01@@Z12
	DD	FLAT:__CT??_R0?AVexception@std@@@8??0exception@std@@QAE@ABV01@@Z12
xdata$x	ENDS
;	COMDAT __TI3?AVbad_array_new_length@std@@
xdata$x	SEGMENT
__TI3?AVbad_array_new_length@std@@ DD 00H
	DD	FLAT:??1bad_array_new_length@std@@UAE@XZ
	DD	00H
	DD	FLAT:__CTA3?AVbad_array_new_length@std@@
xdata$x	ENDS
;	COMDAT ??_C@_0BF@KINCDENJ@bad?5array?5new?5length@
CONST	SEGMENT
??_C@_0BF@KINCDENJ@bad?5array?5new?5length@ DB 'bad array new length', 00H ; `string'
CONST	ENDS
;	COMDAT ??_7bad_array_new_length@std@@6B@
CONST	SEGMENT
??_7bad_array_new_length@std@@6B@ DD FLAT:??_R4bad_array_new_length@std@@6B@ ; std::bad_array_new_length::`vftable'
	DD	FLAT:??_Ebad_array_new_length@std@@UAEPAXI@Z
	DD	FLAT:?what@exception@std@@UBEPBDXZ
CONST	ENDS
;	COMDAT ??_7bad_alloc@std@@6B@
CONST	SEGMENT
??_7bad_alloc@std@@6B@ DD FLAT:??_R4bad_alloc@std@@6B@	; std::bad_alloc::`vftable'
	DD	FLAT:??_Ebad_alloc@std@@UAEPAXI@Z
	DD	FLAT:?what@exception@std@@UBEPBDXZ
CONST	ENDS
;	COMDAT ??_C@_0BC@EOODALEL@Unknown?5exception@
CONST	SEGMENT
??_C@_0BC@EOODALEL@Unknown?5exception@ DB 'Unknown exception', 00H ; `string'
CONST	ENDS
;	COMDAT ??_7exception@std@@6B@
CONST	SEGMENT
??_7exception@std@@6B@ DD FLAT:??_R4exception@std@@6B@	; std::exception::`vftable'
	DD	FLAT:??_Eexception@std@@UAEPAXI@Z
	DD	FLAT:?what@exception@std@@UBEPBDXZ
CONST	ENDS
;	COMDAT xdata$x
xdata$x	SEGMENT
__unwindtable$??$_Uninitialized_move@PAVCSkyObjectQuad@@V?$allocator@VCSkyObjectQuad@@@std@@@std@@YAPAVCSkyObjectQuad@@QAV1@0PAV1@AAV?$allocator@VCSkyObjectQuad@@@0@@Z DD 0ffffffffH
	DD	FLAT:__unwindfunclet$??$_Uninitialized_move@PAVCSkyObjectQuad@@V?$allocator@VCSkyObjectQuad@@@std@@@std@@YAPAVCSkyObjectQuad@@QAV1@0PAV1@AAV?$allocator@VCSkyObjectQuad@@@0@@Z$0
__ehfuncinfo$??$_Uninitialized_move@PAVCSkyObjectQuad@@V?$allocator@VCSkyObjectQuad@@@std@@@std@@YAPAVCSkyObjectQuad@@QAV1@0PAV1@AAV?$allocator@VCSkyObjectQuad@@@0@@Z DD 019930522H
	DD	01H
	DD	FLAT:__unwindtable$??$_Uninitialized_move@PAVCSkyObjectQuad@@V?$allocator@VCSkyObjectQuad@@@std@@@std@@YAPAVCSkyObjectQuad@@QAV1@0PAV1@AAV?$allocator@VCSkyObjectQuad@@@0@@Z
	DD	2 DUP(00H)
	DD	2 DUP(00H)
	DD	00H
	DD	01H
xdata$x	ENDS
;	COMDAT xdata$x
xdata$x	SEGMENT
__unwindtable$??$?0U?$pair@$$CBV?$basic_string@DU?$char_traits@D@std@@V?$allocator@D@2@@std@@PAVCGraphicImageInstance@@@std@@@?$_Tree_temp_node@V?$allocator@U?$_Tree_node@U?$pair@$$CBV?$basic_string@DU?$char_traits@D@std@@V?$allocator@D@2@@std@@PAVCGraphicImageInstance@@@std@@PAX@std@@@std@@@std@@QAE@AAV?$allocator@U?$_Tree_node@U?$pair@$$CBV?$basic_string@DU?$char_traits@D@std@@V?$allocator@D@2@@std@@PAVCGraphicImageInstance@@@std@@PAX@std@@@1@PAU?$_Tree_node@U?$pair@$$CBV?$basic_string@DU?$char_traits@D@std@@V?$allocator@D@2@@std@@PAVCGraphicImageInstance@@@std@@PAX@1@$$QAU?$pair@$$CBV?$basic_string@DU?$char_traits@D@std@@V?$allocator@D@2@@std@@PAVCGraphicImageInstance@@@1@@Z DD 0ffffffffH
	DD	FLAT:__unwindfunclet$??$?0U?$pair@$$CBV?$basic_string@DU?$char_traits@D@std@@V?$allocator@D@2@@std@@PAVCGraphicImageInstance@@@std@@@?$_Tree_temp_node@V?$allocator@U?$_Tree_node@U?$pair@$$CBV?$basic_string@DU?$char_traits@D@std@@V?$allocator@D@2@@std@@PAVCGraphicImageInstance@@@std@@PAX@std@@@std@@@std@@QAE@AAV?$allocator@U?$_Tree_node@U?$pair@$$CBV?$basic_string@DU?$char_traits@D@std@@V?$allocator@D@2@@std@@PAVCGraphicImageInstance@@@std@@PAX@std@@@1@PAU?$_Tree_node@U?$pair@$$CBV?$basic_string@DU?$char_traits@D@std@@V?$allocator@D@2@@std@@PAVCGraphicImageInstance@@@std@@PAX@1@$$QAU?$pair@$$CBV?$basic_string@DU?$char_traits@D@std@@V?$allocator@D@2@@std@@PAVCGraphicImageInstance@@@1@@Z$1
	DD	0ffffffffH
	DD	FLAT:__unwindfunclet$??$?0U?$pair@$$CBV?$basic_string@DU?$char_traits@D@std@@V?$allocator@D@2@@std@@PAVCGraphicImageInstance@@@std@@@?$_Tree_temp_node@V?$allocator@U?$_Tree_node@U?$pair@$$CBV?$basic_string@DU?$char_traits@D@std@@V?$allocator@D@2@@std@@PAVCGraphicImageInstance@@@std@@PAX@std@@@std@@@std@@QAE@AAV?$allocator@U?$_Tree_node@U?$pair@$$CBV?$basic_string@DU?$char_traits@D@std@@V?$allocator@D@2@@std@@PAVCGraphicImageInstance@@@std@@PAX@std@@@1@PAU?$_Tree_node@U?$pair@$$CBV?$basic_string@DU?$char_traits@D@std@@V?$allocator@D@2@@std@@PAVCGraphicImageInstance@@@std@@PAX@1@$$QAU?$pair@$$CBV?$basic_string@DU?$char_traits@D@std@@V?$allocator@D@2@@std@@PAVCGraphicImageInstance@@@1@@Z$0
__ehfuncinfo$??$?0U?$pair@$$CBV?$basic_string@DU?$char_traits@D@std@@V?$allocator@D@2@@std@@PAVCGraphicImageInstance@@@std@@@?$_Tree_temp_node@V?$allocator@U?$_Tree_node@U?$pair@$$CBV?$basic_string@DU?$char_traits@D@std@@V?$allocator@D@2@@std@@PAVCGraphicImageInstance@@@std@@PAX@std@@@std@@@std@@QAE@AAV?$allocator@U?$_Tree_node@U?$pair@$$CBV?$basic_string@DU?$char_traits@D@std@@V?$allocator@D@2@@std@@PAVCGraphicImageInstance@@@std@@PAX@std@@@1@PAU?$_Tree_node@U?$pair@$$CBV?$basic_string@DU?$char_traits@D@std@@V?$allocator@D@2@@std@@PAVCGraphicImageInstance@@@std@@PAX@1@$$QAU?$pair@$$CBV?$basic_string@DU?$char_traits@D@std@@V?$allocator@D@2@@std@@PAVCGraphicImageInstance@@@1@@Z DD 019930522H
	DD	02H
	DD	FLAT:__unwindtable$??$?0U?$pair@$$CBV?$basic_string@DU?$char_traits@D@std@@V?$allocator@D@2@@std@@PAVCGraphicImageInstance@@@std@@@?$_Tree_temp_node@V?$allocator@U?$_Tree_node@U?$pair@$$CBV?$basic_string@DU?$char_traits@D@std@@V?$allocator@D@2@@std@@PAVCGraphicImageInstance@@@std@@PAX@std@@@std@@@std@@QAE@AAV?$allocator@U?$_Tree_node@U?$pair@$$CBV?$basic_string@DU?$char_traits@D@std@@V?$allocator@D@2@@std@@PAVCGraphicImageInstance@@@std@@PAX@std@@@1@PAU?$_Tree_node@U?$pair@$$CBV?$basic_string@DU?$char_traits@D@std@@V?$allocator@D@2@@std@@PAVCGraphicImageInstance@@@std@@PAX@1@$$QAU?$pair@$$CBV?$basic_string@DU?$char_traits@D@std@@V?$allocator@D@2@@std@@PAVCGraphicImageInstance@@@1@@Z
	DD	2 DUP(00H)
	DD	2 DUP(00H)
	DD	00H
	DD	01H
xdata$x	ENDS
;	COMDAT xdata$x
xdata$x	SEGMENT
__unwindtable$??$_Uninitialized_value_construct_n@V?$allocator@VCSkyObjectQuad@@@std@@@std@@YAPAVCSkyObjectQuad@@PAV1@IAAV?$allocator@VCSkyObjectQuad@@@0@@Z DD 0ffffffffH
	DD	FLAT:__unwindfunclet$??$_Uninitialized_value_construct_n@V?$allocator@VCSkyObjectQuad@@@std@@@std@@YAPAVCSkyObjectQuad@@PAV1@IAAV?$allocator@VCSkyObjectQuad@@@0@@Z$0
__ehfuncinfo$??$_Uninitialized_value_construct_n@V?$allocator@VCSkyObjectQuad@@@std@@@std@@YAPAVCSkyObjectQuad@@PAV1@IAAV?$allocator@VCSkyObjectQuad@@@0@@Z DD 019930522H
	DD	01H
	DD	FLAT:__unwindtable$??$_Uninitialized_value_construct_n@V?$allocator@VCSkyObjectQuad@@@std@@@std@@YAPAVCSkyObjectQuad@@PAV1@IAAV?$allocator@VCSkyObjectQuad@@@0@@Z
	DD	2 DUP(00H)
	DD	2 DUP(00H)
	DD	00H
	DD	01H
xdata$x	ENDS
;	COMDAT xdata$x
xdata$x	SEGMENT
__catchsym$??$_Resize_reallocate@U_Value_init_tag@std@@@?$vector@VCSkyObjectQuad@@V?$allocator@VCSkyObjectQuad@@@std@@@std@@AAEXIABU_Value_init_tag@1@@Z$26 DD 040H
	DD	00H
	DD	00H
	DD	FLAT:__catch$??$_Resize_reallocate@U_Value_init_tag@std@@@?$vector@VCSkyObjectQuad@@V?$allocator@VCSkyObjectQuad@@@std@@@std@@AAEXIABU_Value_init_tag@1@@Z$0
__unwindtable$??$_Resize_reallocate@U_Value_init_tag@std@@@?$vector@VCSkyObjectQuad@@V?$allocator@VCSkyObjectQuad@@@std@@@std@@AAEXIABU_Value_init_tag@1@@Z DD 0ffffffffH
	DD	00H
	DD	0ffffffffH
	DD	00H
__tryblocktable$??$_Resize_reallocate@U_Value_init_tag@std@@@?$vector@VCSkyObjectQuad@@V?$allocator@VCSkyObjectQuad@@@std@@@std@@AAEXIABU_Value_init_tag@1@@Z DD 00H
	DD	00H
	DD	01H
	DD	01H
	DD	FLAT:__catchsym$??$_Resize_reallocate@U_Value_init_tag@std@@@?$vector@VCSkyObjectQuad@@V?$allocator@VCSkyObjectQuad@@@std@@@std@@AAEXIABU_Value_init_tag@1@@Z$26
__ehfuncinfo$??$_Resize_reallocate@U_Value_init_tag@std@@@?$vector@VCSkyObjectQuad@@V?$allocator@VCSkyObjectQuad@@@std@@@std@@AAEXIABU_Value_init_tag@1@@Z DD 019930522H
	DD	02H
	DD	FLAT:__unwindtable$??$_Resize_reallocate@U_Value_init_tag@std@@@?$vector@VCSkyObjectQuad@@V?$allocator@VCSkyObjectQuad@@@std@@@std@@AAEXIABU_Value_init_tag@1@@Z
	DD	01H
	DD	FLAT:__tryblocktable$??$_Resize_reallocate@U_Value_init_tag@std@@@?$vector@VCSkyObjectQuad@@V?$allocator@VCSkyObjectQuad@@@std@@@std@@AAEXIABU_Value_init_tag@1@@Z
	DD	2 DUP(00H)
	DD	00H
	DD	01H
xdata$x	ENDS
;	COMDAT xdata$x
xdata$x	SEGMENT
__unwindtable$??$?0ABUpiecewise_construct_t@std@@V?$tuple@ABV?$basic_string@DU?$char_traits@D@std@@V?$allocator@D@2@@std@@@1@V?$tuple@$$V@1@@?$_Tree_temp_node@V?$allocator@U?$_Tree_node@U?$pair@$$CBV?$basic_string@DU?$char_traits@D@std@@V?$allocator@D@2@@std@@PAVCGraphicImageInstance@@@std@@PAX@std@@@std@@@std@@QAE@AAV?$allocator@U?$_Tree_node@U?$pair@$$CBV?$basic_string@DU?$char_traits@D@std@@V?$allocator@D@2@@std@@PAVCGraphicImageInstance@@@std@@PAX@std@@@1@PAU?$_Tree_node@U?$pair@$$CBV?$basic_string@DU?$char_traits@D@std@@V?$allocator@D@2@@std@@PAVCGraphicImageInstance@@@std@@PAX@1@ABUpiecewise_construct_t@1@$$QAV?$tuple@ABV?$basic_string@DU?$char_traits@D@std@@V?$allocator@D@2@@std@@@1@$$QAV?$tuple@$$V@1@@Z DD 0ffffffffH
	DD	FLAT:__unwindfunclet$??$?0ABUpiecewise_construct_t@std@@V?$tuple@ABV?$basic_string@DU?$char_traits@D@std@@V?$allocator@D@2@@std@@@1@V?$tuple@$$V@1@@?$_Tree_temp_node@V?$allocator@U?$_Tree_node@U?$pair@$$CBV?$basic_string@DU?$char_traits@D@std@@V?$allocator@D@2@@std@@PAVCGraphicImageInstance@@@std@@PAX@std@@@std@@@std@@QAE@AAV?$allocator@U?$_Tree_node@U?$pair@$$CBV?$basic_string@DU?$char_traits@D@std@@V?$allocator@D@2@@std@@PAVCGraphicImageInstance@@@std@@PAX@std@@@1@PAU?$_Tree_node@U?$pair@$$CBV?$basic_string@DU?$char_traits@D@std@@V?$allocator@D@2@@std@@PAVCGraphicImageInstance@@@std@@PAX@1@ABUpiecewise_construct_t@1@$$QAV?$tuple@ABV?$basic_string@DU?$char_traits@D@std@@V?$allocator@D@2@@std@@@1@$$QAV?$tuple@$$V@1@@Z$1
	DD	0ffffffffH
	DD	FLAT:__unwindfunclet$??$?0ABUpiecewise_construct_t@std@@V?$tuple@ABV?$basic_string@DU?$char_traits@D@std@@V?$allocator@D@2@@std@@@1@V?$tuple@$$V@1@@?$_Tree_temp_node@V?$allocator@U?$_Tree_node@U?$pair@$$CBV?$basic_string@DU?$char_traits@D@std@@V?$allocator@D@2@@std@@PAVCGraphicImageInstance@@@std@@PAX@std@@@std@@@std@@QAE@AAV?$allocator@U?$_Tree_node@U?$pair@$$CBV?$basic_string@DU?$char_traits@D@std@@V?$allocator@D@2@@std@@PAVCGraphicImageInstance@@@std@@PAX@std@@@1@PAU?$_Tree_node@U?$pair@$$CBV?$basic_string@DU?$char_traits@D@std@@V?$allocator@D@2@@std@@PAVCGraphicImageInstance@@@std@@PAX@1@ABUpiecewise_construct_t@1@$$QAV?$tuple@ABV?$basic_string@DU?$char_traits@D@std@@V?$allocator@D@2@@std@@@1@$$QAV?$tuple@$$V@1@@Z$0
__ehfuncinfo$??$?0ABUpiecewise_construct_t@std@@V?$tuple@ABV?$basic_string@DU?$char_traits@D@std@@V?$allocator@D@2@@std@@@1@V?$tuple@$$V@1@@?$_Tree_temp_node@V?$allocator@U?$_Tree_node@U?$pair@$$CBV?$basic_string@DU?$char_traits@D@std@@V?$allocator@D@2@@std@@PAVCGraphicImageInstance@@@std@@PAX@std@@@std@@@std@@QAE@AAV?$allocator@U?$_Tree_node@U?$pair@$$CBV?$basic_string@DU?$char_traits@D@std@@V?$allocator@D@2@@std@@PAVCGraphicImageInstance@@@std@@PAX@std@@@1@PAU?$_Tree_node@U?$pair@$$CBV?$basic_string@DU?$char_traits@D@std@@V?$allocator@D@2@@std@@PAVCGraphicImageInstance@@@std@@PAX@1@ABUpiecewise_construct_t@1@$$QAV?$tuple@ABV?$basic_string@DU?$char_traits@D@std@@V?$allocator@D@2@@std@@@1@$$QAV?$tuple@$$V@1@@Z DD 019930522H
	DD	02H
	DD	FLAT:__unwindtable$??$?0ABUpiecewise_construct_t@std@@V?$tuple@ABV?$basic_string@DU?$char_traits@D@std@@V?$allocator@D@2@@std@@@1@V?$tuple@$$V@1@@?$_Tree_temp_node@V?$allocator@U?$_Tree_node@U?$pair@$$CBV?$basic_string@DU?$char_traits@D@std@@V?$allocator@D@2@@std@@PAVCGraphicImageInstance@@@std@@PAX@std@@@std@@@std@@QAE@AAV?$allocator@U?$_Tree_node@U?$pair@$$CBV?$basic_string@DU?$char_traits@D@std@@V?$allocator@D@2@@std@@PAVCGraphicImageInstance@@@std@@PAX@std@@@1@PAU?$_Tree_node@U?$pair@$$CBV?$basic_string@DU?$char_traits@D@std@@V?$allocator@D@2@@std@@PAVCGraphicImageInstance@@@std@@PAX@1@ABUpiecewise_construct_t@1@$$QAV?$tuple@ABV?$basic_string@DU?$char_traits@D@std@@V?$allocator@D@2@@std@@@1@$$QAV?$tuple@$$V@1@@Z
	DD	2 DUP(00H)
	DD	2 DUP(00H)
	DD	00H
	DD	01H
xdata$x	ENDS
;	COMDAT xdata$x
xdata$x	SEGMENT
__unwindtable$?SetCloudTexture@CSkyBox@@QAEXPBD@Z DD 0ffffffffH
	DD	FLAT:__unwindfunclet$?SetCloudTexture@CSkyBox@@QAEXPBD@Z$0
	DD	0ffffffffH
	DD	FLAT:__unwindfunclet$?SetCloudTexture@CSkyBox@@QAEXPBD@Z$1
__ehfuncinfo$?SetCloudTexture@CSkyBox@@QAEXPBD@Z DD 019930522H
	DD	02H
	DD	FLAT:__unwindtable$?SetCloudTexture@CSkyBox@@QAEXPBD@Z
	DD	2 DUP(00H)
	DD	2 DUP(00H)
	DD	00H
	DD	01H
xdata$x	ENDS
;	COMDAT xdata$x
xdata$x	SEGMENT
__unwindtable$?SetFaceTexture@CSkyBox@@QAEXPBDH@Z DD 0ffffffffH
	DD	FLAT:__unwindfunclet$?SetFaceTexture@CSkyBox@@QAEXPBDH@Z$0
	DD	0ffffffffH
	DD	FLAT:__unwindfunclet$?SetFaceTexture@CSkyBox@@QAEXPBDH@Z$1
__ehfuncinfo$?SetFaceTexture@CSkyBox@@QAEXPBDH@Z DD 019930522H
	DD	02H
	DD	FLAT:__unwindtable$?SetFaceTexture@CSkyBox@@QAEXPBDH@Z
	DD	2 DUP(00H)
	DD	2 DUP(00H)
	DD	00H
	DD	01H
xdata$x	ENDS
;	COMDAT xdata$x
xdata$x	SEGMENT
__ehfuncinfo$??1CSkyBox@@UAE@XZ DD 019930522H
	DD	00H
	DD	00H
	DD	2 DUP(00H)
	DD	2 DUP(00H)
	DD	00H
	DD	05H
xdata$x	ENDS
;	COMDAT xdata$x
xdata$x	SEGMENT
__unwindtable$??0CSkyBox@@QAE@XZ DD 0ffffffffH
	DD	FLAT:__unwindfunclet$??0CSkyBox@@QAE@XZ$0
__ehfuncinfo$??0CSkyBox@@QAE@XZ DD 019930522H
	DD	01H
	DD	FLAT:__unwindtable$??0CSkyBox@@QAE@XZ
	DD	2 DUP(00H)
	DD	2 DUP(00H)
	DD	00H
	DD	01H
xdata$x	ENDS
;	COMDAT xdata$x
xdata$x	SEGMENT
__ehfuncinfo$??1CSkyObject@@UAE@XZ DD 019930522H
	DD	00H
	DD	00H
	DD	2 DUP(00H)
	DD	2 DUP(00H)
	DD	00H
	DD	05H
xdata$x	ENDS
;	COMDAT xdata$x
xdata$x	SEGMENT
__ehfuncinfo$??0CSkyObject@@QAE@XZ DD 019930522H
	DD	05H
	DD	FLAT:__unwindtable$??0CSkyObject@@QAE@XZ
	DD	2 DUP(00H)
	DD	2 DUP(00H)
	DD	00H
	DD	01H
__unwindtable$??0CSkyObject@@QAE@XZ DD 0ffffffffH
	DD	FLAT:__unwindfunclet$??0CSkyObject@@QAE@XZ$0
	DD	00H
	DD	FLAT:__unwindfunclet$??0CSkyObject@@QAE@XZ$1
	DD	01H
	DD	FLAT:__unwindfunclet$??0CSkyObject@@QAE@XZ$2
	DD	02H
	DD	FLAT:__unwindfunclet$??0CSkyObject@@QAE@XZ$3
	DD	03H
	DD	FLAT:__unwindfunclet$??0CSkyObject@@QAE@XZ$4
xdata$x	ENDS
;	COMDAT xdata$x
xdata$x	SEGMENT
__ehfuncinfo$??1CSkyObjectQuad@@UAE@XZ DD 019930522H
	DD	00H
	DD	00H
	DD	2 DUP(00H)
	DD	2 DUP(00H)
	DD	00H
	DD	05H
xdata$x	ENDS
;	COMDAT xdata$x
xdata$x	SEGMENT
__ehfuncinfo$??$_Deallocate@$07$0A@@std@@YAXPAXI@Z DD 019930522H
	DD	00H
	DD	00H
	DD	2 DUP(00H)
	DD	2 DUP(00H)
	DD	00H
	DD	05H
xdata$x	ENDS
;	COMDAT xdata$x
xdata$x	SEGMENT
__unwindtable$??0?$basic_string@DU?$char_traits@D@std@@V?$allocator@D@2@@std@@QAE@QBD@Z DD 0ffffffffH
	DD	FLAT:__unwindfunclet$??0?$basic_string@DU?$char_traits@D@std@@V?$allocator@D@2@@std@@QAE@QBD@Z$0
__ehfuncinfo$??0?$basic_string@DU?$char_traits@D@std@@V?$allocator@D@2@@std@@QAE@QBD@Z DD 019930522H
	DD	01H
	DD	FLAT:__unwindtable$??0?$basic_string@DU?$char_traits@D@std@@V?$allocator@D@2@@std@@QAE@QBD@Z
	DD	2 DUP(00H)
	DD	2 DUP(00H)
	DD	00H
	DD	01H
xdata$x	ENDS
;	COMDAT xdata$x
xdata$x	SEGMENT
__unwindtable$??0?$basic_string@DU?$char_traits@D@std@@V?$allocator@D@2@@std@@QAE@ABV01@@Z DD 0ffffffffH
	DD	FLAT:__unwindfunclet$??0?$basic_string@DU?$char_traits@D@std@@V?$allocator@D@2@@std@@QAE@ABV01@@Z$0
__ehfuncinfo$??0?$basic_string@DU?$char_traits@D@std@@V?$allocator@D@2@@std@@QAE@ABV01@@Z DD 019930522H
	DD	01H
	DD	FLAT:__unwindtable$??0?$basic_string@DU?$char_traits@D@std@@V?$allocator@D@2@@std@@QAE@ABV01@@Z
	DD	2 DUP(00H)
	DD	2 DUP(00H)
	DD	00H
	DD	01H
xdata$x	ENDS
; Function compile flags: /Odspy
; File C:\Program Files (x86)\Microsoft Visual Studio\2019\Community\VC\Tools\MSVC\14.28.29333\include\xmemory
; File C:\Program Files (x86)\Microsoft Visual Studio\2019\Community\VC\Tools\MSVC\14.28.29333\include\type_traits
; File C:\Program Files (x86)\Microsoft Visual Studio\2019\Community\VC\Tools\MSVC\14.28.29333\include\xmemory
; File C:\Program Files (x86)\Microsoft Visual Studio\2019\Community\VC\Tools\MSVC\14.28.29333\include\xstddef
; File C:\Program Files (x86)\Microsoft Visual Studio\2019\Community\VC\Tools\MSVC\14.28.29333\include\xmemory
; File C:\Program Files (x86)\Microsoft Visual Studio\2019\Community\VC\Tools\MSVC\14.28.29333\include\vcruntime_new.h
; File C:\Program Files (x86)\Microsoft Visual Studio\2019\Community\VC\Tools\MSVC\14.28.29333\include\type_traits
; File C:\Program Files (x86)\Microsoft Visual Studio\2019\Community\VC\Tools\MSVC\14.28.29333\include\xmemory
;	COMDAT ??$_Emplace_back@VCSkyObjectQuad@@@?$_Uninitialized_backout_al@V?$allocator@VCSkyObjectQuad@@@std@@@std@@QAEX$$QAVCSkyObjectQuad@@@Z
_TEXT	SEGMENT
___formal$ = -28					; size = 4
$T1 = -24						; size = 4
$T2 = -20						; size = 4
__Ptr$ = -16						; size = 4
$T3 = -12						; size = 4
_this$ = -8						; size = 4
$T4 = -4						; size = 4
_<_Vals_0>$ = 8						; size = 4
??$_Emplace_back@VCSkyObjectQuad@@@?$_Uninitialized_backout_al@V?$allocator@VCSkyObjectQuad@@@std@@@std@@QAEX$$QAVCSkyObjectQuad@@@Z PROC ; std::_Uninitialized_backout_al<std::allocator<CSkyObjectQuad> >::_Emplace_back<CSkyObjectQuad>, COMDAT
; _this$ = ecx

; 1545 :     void _Emplace_back(_Types&&... _Vals) { // construct a new element at *_Last and increment

  00000	55		 push	 ebp
  00001	8b ec		 mov	 ebp, esp
  00003	83 ec 1c	 sub	 esp, 28			; 0000001cH
  00006	56		 push	 esi
  00007	57		 push	 edi
  00008	89 4d f8	 mov	 DWORD PTR _this$[ebp], ecx
; File C:\Program Files (x86)\Microsoft Visual Studio\2019\Community\VC\Tools\MSVC\14.28.29333\include\type_traits

; 1443 :     return static_cast<_Ty&&>(_Arg);

  0000b	8b 45 08	 mov	 eax, DWORD PTR _<_Vals_0>$[ebp]
  0000e	89 45 e8	 mov	 DWORD PTR $T1[ebp], eax
; File C:\Program Files (x86)\Microsoft Visual Studio\2019\Community\VC\Tools\MSVC\14.28.29333\include\xmemory

; 1546 :         allocator_traits<_Alloc>::construct(_Al, _Unfancy(_Last), _STD forward<_Types>(_Vals)...);

  00011	8b 45 f8	 mov	 eax, DWORD PTR _this$[ebp]
  00014	8b 40 04	 mov	 eax, DWORD PTR [eax+4]
  00017	89 45 f0	 mov	 DWORD PTR __Ptr$[ebp], eax
; File C:\Program Files (x86)\Microsoft Visual Studio\2019\Community\VC\Tools\MSVC\14.28.29333\include\xstddef

; 289  :     return _Ptr;

  0001a	8b 45 f0	 mov	 eax, DWORD PTR __Ptr$[ebp]
  0001d	89 45 ec	 mov	 DWORD PTR $T2[ebp], eax
; File C:\Program Files (x86)\Microsoft Visual Studio\2019\Community\VC\Tools\MSVC\14.28.29333\include\xmemory

; 1546 :         allocator_traits<_Alloc>::construct(_Al, _Unfancy(_Last), _STD forward<_Types>(_Vals)...);

  00020	8b 45 f8	 mov	 eax, DWORD PTR _this$[ebp]
  00023	8b 40 08	 mov	 eax, DWORD PTR [eax+8]
  00026	89 45 e4	 mov	 DWORD PTR ___formal$[ebp], eax
; File C:\Program Files (x86)\Microsoft Visual Studio\2019\Community\VC\Tools\MSVC\14.28.29333\include\vcruntime_new.h

; 169  :         return _Where;

  00029	8b 45 ec	 mov	 eax, DWORD PTR $T2[ebp]
  0002c	89 45 fc	 mov	 DWORD PTR $T4[ebp], eax
; File C:\Program Files (x86)\Microsoft Visual Studio\2019\Community\VC\Tools\MSVC\14.28.29333\include\type_traits

; 1443 :     return static_cast<_Ty&&>(_Arg);

  0002f	8b 45 e8	 mov	 eax, DWORD PTR $T1[ebp]
  00032	89 45 f4	 mov	 DWORD PTR $T3[ebp], eax
  00035	8b 45 fc	 mov	 eax, DWORD PTR $T4[ebp]
  00038	c7 00 00 00 00
	00		 mov	 DWORD PTR [eax], OFFSET ??_7CSkyObjectQuad@@6B@
  0003e	8b 75 f4	 mov	 esi, DWORD PTR $T3[ebp]
  00041	83 c6 04	 add	 esi, 4
  00044	8b 7d fc	 mov	 edi, DWORD PTR $T4[ebp]
  00047	83 c7 04	 add	 edi, 4
  0004a	6a 18		 push	 24			; 00000018H
  0004c	59		 pop	 ecx
  0004d	f3 a5		 rep movsd
  0004f	8b 45 fc	 mov	 eax, DWORD PTR $T4[ebp]
  00052	8b 4d f4	 mov	 ecx, DWORD PTR $T3[ebp]
  00055	8b 51 64	 mov	 edx, DWORD PTR [ecx+100]
  00058	8b 49 68	 mov	 ecx, DWORD PTR [ecx+104]
  0005b	89 50 64	 mov	 DWORD PTR [eax+100], edx
  0005e	89 48 68	 mov	 DWORD PTR [eax+104], ecx
  00061	8b 75 f4	 mov	 esi, DWORD PTR $T3[ebp]
  00064	83 c6 6c	 add	 esi, 108		; 0000006cH
  00067	8b 7d fc	 mov	 edi, DWORD PTR $T4[ebp]
  0006a	83 c7 6c	 add	 edi, 108		; 0000006cH
  0006d	6a 30		 push	 48			; 00000030H
  0006f	59		 pop	 ecx
  00070	f3 a5		 rep movsd
; File C:\Program Files (x86)\Microsoft Visual Studio\2019\Community\VC\Tools\MSVC\14.28.29333\include\xmemory

; 1547 :         ++_Last;

  00072	8b 45 f8	 mov	 eax, DWORD PTR _this$[ebp]
  00075	8b 40 04	 mov	 eax, DWORD PTR [eax+4]
  00078	05 2c 01 00 00	 add	 eax, 300		; 0000012cH
  0007d	8b 4d f8	 mov	 ecx, DWORD PTR _this$[ebp]
  00080	89 41 04	 mov	 DWORD PTR [ecx+4], eax

; 1548 :     }

  00083	5f		 pop	 edi
  00084	5e		 pop	 esi
  00085	c9		 leave
  00086	c2 04 00	 ret	 4
??$_Emplace_back@VCSkyObjectQuad@@@?$_Uninitialized_backout_al@V?$allocator@VCSkyObjectQuad@@@std@@@std@@QAEX$$QAVCSkyObjectQuad@@@Z ENDP ; std::_Uninitialized_backout_al<std::allocator<CSkyObjectQuad> >::_Emplace_back<CSkyObjectQuad>
_TEXT	ENDS
; Function compile flags: /Odspy
; File C:\Program Files (x86)\Microsoft Visual Studio\2019\Community\VC\Tools\MSVC\14.28.29333\include\tuple
; File C:\Program Files (x86)\Microsoft Visual Studio\2019\Community\VC\Tools\MSVC\14.28.29333\include\type_traits
; File C:\Program Files (x86)\Microsoft Visual Studio\2019\Community\VC\Tools\MSVC\14.28.29333\include\tuple
;	COMDAT ??$?0ABV?$basic_string@DU?$char_traits@D@std@@V?$allocator@D@2@@std@@$$Z$$V@?$pair@$$CBV?$basic_string@DU?$char_traits@D@std@@V?$allocator@D@2@@std@@PAVCGraphicImageInstance@@@std@@QAE@Upiecewise_construct_t@1@V?$tuple@ABV?$basic_string@DU?$char_traits@D@std@@V?$allocator@D@2@@std@@@1@V?$tuple@$$V@1@@Z
_TEXT	SEGMENT
$T1 = -24						; size = 4
$T2 = -20						; size = 4
_this$ = -16						; size = 4
___formal$ = -12					; size = 1
___formal$ = -8						; size = 1
$T3 = -2						; size = 1
$T4 = -1						; size = 1
___formal$ = 8						; size = 1
__Val1$ = 12						; size = 4
__Val2$ = 16						; size = 1
??$?0ABV?$basic_string@DU?$char_traits@D@std@@V?$allocator@D@2@@std@@$$Z$$V@?$pair@$$CBV?$basic_string@DU?$char_traits@D@std@@V?$allocator@D@2@@std@@PAVCGraphicImageInstance@@@std@@QAE@Upiecewise_construct_t@1@V?$tuple@ABV?$basic_string@DU?$char_traits@D@std@@V?$allocator@D@2@@std@@@1@V?$tuple@$$V@1@@Z PROC ; std::pair<std::basic_string<char,std::char_traits<char>,std::allocator<char> > const ,CGraphicImageInstance *>::pair<std::basic_string<char,std::char_traits<char>,std::allocator<char> > const ,CGraphicImageInstance *><std::basic_string<char,std::char_traits<char>,std::allocator<char> > const &>, COMDAT
; _this$ = ecx

; 986  :     : pair(_Val1, _Val2, index_sequence_for<_Types1...>{}, index_sequence_for<_Types2...>{}) {}

  00000	55		 push	 ebp
  00001	8b ec		 mov	 ebp, esp
  00003	83 ec 18	 sub	 esp, 24			; 00000018H
  00006	89 4d f0	 mov	 DWORD PTR _this$[ebp], ecx
  00009	33 c0		 xor	 eax, eax
  0000b	88 45 ff	 mov	 BYTE PTR $T4[ebp], al
  0000e	33 c0		 xor	 eax, eax
  00010	88 45 fe	 mov	 BYTE PTR $T3[ebp], al
  00013	8a 45 ff	 mov	 al, BYTE PTR $T4[ebp]
  00016	88 45 f8	 mov	 BYTE PTR ___formal$[ebp], al
  00019	8a 45 fe	 mov	 al, BYTE PTR $T3[ebp]
  0001c	88 45 f4	 mov	 BYTE PTR ___formal$[ebp], al
; File C:\Program Files (x86)\Microsoft Visual Studio\2019\Community\VC\Tools\MSVC\14.28.29333\include\type_traits

; 1455 :     return static_cast<remove_reference_t<_Ty>&&>(_Arg);

  0001f	8d 45 0c	 lea	 eax, DWORD PTR __Val1$[ebp]
  00022	89 45 ec	 mov	 DWORD PTR $T2[ebp], eax
; File C:\Program Files (x86)\Microsoft Visual Studio\2019\Community\VC\Tools\MSVC\14.28.29333\include\tuple

; 790  :     return static_cast<_Ty&&>(static_cast<_Ttype&>(_Tuple)._Myfirst._Val);

  00025	8b 45 ec	 mov	 eax, DWORD PTR $T2[ebp]
  00028	8b 00		 mov	 eax, DWORD PTR [eax]
  0002a	89 45 e8	 mov	 DWORD PTR $T1[ebp], eax

; 980  :     : first(_STD get<_Indexes1>(_STD move(_Val1))...), second(_STD get<_Indexes2>(_STD move(_Val2))...) {}

  0002d	ff 75 e8	 push	 DWORD PTR $T1[ebp]
  00030	8b 4d f0	 mov	 ecx, DWORD PTR _this$[ebp]
  00033	e8 00 00 00 00	 call	 ??0?$basic_string@DU?$char_traits@D@std@@V?$allocator@D@2@@std@@QAE@ABV01@@Z ; std::basic_string<char,std::char_traits<char>,std::allocator<char> >::basic_string<char,std::char_traits<char>,std::allocator<char> >
  00038	8b 45 f0	 mov	 eax, DWORD PTR _this$[ebp]
  0003b	83 60 18 00	 and	 DWORD PTR [eax+24], 0

; 986  :     : pair(_Val1, _Val2, index_sequence_for<_Types1...>{}, index_sequence_for<_Types2...>{}) {}

  0003f	8b 45 f0	 mov	 eax, DWORD PTR _this$[ebp]
  00042	c9		 leave
  00043	c2 0c 00	 ret	 12			; 0000000cH
??$?0ABV?$basic_string@DU?$char_traits@D@std@@V?$allocator@D@2@@std@@$$Z$$V@?$pair@$$CBV?$basic_string@DU?$char_traits@D@std@@V?$allocator@D@2@@std@@PAVCGraphicImageInstance@@@std@@QAE@Upiecewise_construct_t@1@V?$tuple@ABV?$basic_string@DU?$char_traits@D@std@@V?$allocator@D@2@@std@@@1@V?$tuple@$$V@1@@Z ENDP ; std::pair<std::basic_string<char,std::char_traits<char>,std::allocator<char> > const ,CGraphicImageInstance *>::pair<std::basic_string<char,std::char_traits<char>,std::allocator<char> > const ,CGraphicImageInstance *><std::basic_string<char,std::char_traits<char>,std::allocator<char> > const &>
_TEXT	ENDS
; Function compile flags: /Odspy
; File C:\Program Files (x86)\Microsoft Visual Studio\2019\Community\VC\Tools\MSVC\14.28.29333\include\xmemory
; File C:\Program Files (x86)\Microsoft Visual Studio\2019\Community\VC\Tools\MSVC\14.28.29333\include\type_traits
; File C:\Program Files (x86)\Microsoft Visual Studio\2019\Community\VC\Tools\MSVC\14.28.29333\include\xmemory
;	COMDAT ??$_Uninitialized_move@PAVCSkyObjectQuad@@V?$allocator@VCSkyObjectQuad@@@std@@@std@@YAPAVCSkyObjectQuad@@QAV1@0PAV1@AAV?$allocator@VCSkyObjectQuad@@@0@@Z
_TEXT	SEGMENT
__Backout$2 = -40					; size = 12
$T3 = -28						; size = 4
$T4 = -24						; size = 4
__ULast$ = -20						; size = 4
__UFirst$ = -16						; size = 4
__$EHRec$ = -12						; size = 12
__First$ = 8						; size = 4
__Last$ = 12						; size = 4
__Dest$ = 16						; size = 4
__Al$ = 20						; size = 4
??$_Uninitialized_move@PAVCSkyObjectQuad@@V?$allocator@VCSkyObjectQuad@@@std@@@std@@YAPAVCSkyObjectQuad@@QAV1@0PAV1@AAV?$allocator@VCSkyObjectQuad@@@0@@Z PROC ; std::_Uninitialized_move<CSkyObjectQuad *,std::allocator<CSkyObjectQuad> >, COMDAT

; 1685 :     const _InIt _First, const _InIt _Last, _Alloc_ptr_t<_Alloc> _Dest, _Alloc& _Al) {

  00000	55		 push	 ebp
  00001	8b ec		 mov	 ebp, esp
  00003	6a ff		 push	 -1
  00005	68 00 00 00 00	 push	 __ehhandler$??$_Uninitialized_move@PAVCSkyObjectQuad@@V?$allocator@VCSkyObjectQuad@@@std@@@std@@YAPAVCSkyObjectQuad@@QAV1@0PAV1@AAV?$allocator@VCSkyObjectQuad@@@0@@Z
  0000a	64 a1 00 00 00
	00		 mov	 eax, DWORD PTR fs:0
  00010	50		 push	 eax
  00011	83 ec 1c	 sub	 esp, 28			; 0000001cH
  00014	a1 00 00 00 00	 mov	 eax, DWORD PTR ___security_cookie
  00019	33 c5		 xor	 eax, ebp
  0001b	50		 push	 eax
  0001c	8d 45 f4	 lea	 eax, DWORD PTR __$EHRec$[ebp]
  0001f	64 a3 00 00 00
	00		 mov	 DWORD PTR fs:0, eax

; 1686 :     // move [_First, _Last) to raw _Dest, using _Al
; 1687 :     // note: only called internally from elsewhere in the STL
; 1688 :     using _Ptrval     = typename _Alloc::value_type*;
; 1689 :     auto _UFirst      = _Get_unwrapped(_First);

  00025	8b 45 08	 mov	 eax, DWORD PTR __First$[ebp]
  00028	89 45 f0	 mov	 DWORD PTR __UFirst$[ebp], eax

; 1690 :     const auto _ULast = _Get_unwrapped(_Last);

  0002b	8b 45 0c	 mov	 eax, DWORD PTR __Last$[ebp]
  0002e	89 45 ec	 mov	 DWORD PTR __ULast$[ebp], eax

; 1535 :     _Uninitialized_backout_al(pointer _Dest, _Alloc& _Al_) : _First(_Dest), _Last(_Dest), _Al(_Al_) {}

  00031	8b 45 10	 mov	 eax, DWORD PTR __Dest$[ebp]
  00034	89 45 d8	 mov	 DWORD PTR __Backout$2[ebp], eax
  00037	8b 45 10	 mov	 eax, DWORD PTR __Dest$[ebp]
  0003a	89 45 dc	 mov	 DWORD PTR __Backout$2[ebp+4], eax
  0003d	8b 45 14	 mov	 eax, DWORD PTR __Al$[ebp]
  00040	89 45 e0	 mov	 DWORD PTR __Backout$2[ebp+8], eax

; 1691 :     if constexpr (conjunction_v<bool_constant<_Ptr_move_cat<decltype(_UFirst), _Ptrval>::_Really_trivial>,
; 1692 :                       _Uses_default_construct<_Alloc, _Ptrval, decltype(_STD move(*_UFirst))>>) {
; 1693 :         _Copy_memmove(_UFirst, _ULast, _Unfancy(_Dest));
; 1694 :         return _Dest + (_ULast - _UFirst);
; 1695 :     } else {
; 1696 :         _Uninitialized_backout_al<_Alloc> _Backout{_Dest, _Al};

  00043	83 65 fc 00	 and	 DWORD PTR __$EHRec$[ebp+8], 0

; 1697 :         for (; _UFirst != _ULast; ++_UFirst) {

  00047	eb 0b		 jmp	 SHORT $LN4@Uninitiali
$LN2@Uninitiali:
  00049	8b 45 f0	 mov	 eax, DWORD PTR __UFirst$[ebp]
  0004c	05 2c 01 00 00	 add	 eax, 300		; 0000012cH
  00051	89 45 f0	 mov	 DWORD PTR __UFirst$[ebp], eax
$LN4@Uninitiali:
  00054	8b 45 f0	 mov	 eax, DWORD PTR __UFirst$[ebp]
  00057	3b 45 ec	 cmp	 eax, DWORD PTR __ULast$[ebp]
  0005a	74 13		 je	 SHORT $LN3@Uninitiali
; File C:\Program Files (x86)\Microsoft Visual Studio\2019\Community\VC\Tools\MSVC\14.28.29333\include\type_traits

; 1455 :     return static_cast<remove_reference_t<_Ty>&&>(_Arg);

  0005c	8b 45 f0	 mov	 eax, DWORD PTR __UFirst$[ebp]
  0005f	89 45 e8	 mov	 DWORD PTR $T4[ebp], eax
; File C:\Program Files (x86)\Microsoft Visual Studio\2019\Community\VC\Tools\MSVC\14.28.29333\include\xmemory

; 1698 :             _Backout._Emplace_back(_STD move(*_UFirst));

  00062	ff 75 e8	 push	 DWORD PTR $T4[ebp]
  00065	8d 4d d8	 lea	 ecx, DWORD PTR __Backout$2[ebp]
  00068	e8 00 00 00 00	 call	 ??$_Emplace_back@VCSkyObjectQuad@@@?$_Uninitialized_backout_al@V?$allocator@VCSkyObjectQuad@@@std@@@std@@QAEX$$QAVCSkyObjectQuad@@@Z ; std::_Uninitialized_backout_al<std::allocator<CSkyObjectQuad> >::_Emplace_back<CSkyObjectQuad>

; 1699 :         }

  0006d	eb da		 jmp	 SHORT $LN2@Uninitiali
$LN3@Uninitiali:

; 1551 :         _First = _Last;

  0006f	8b 45 dc	 mov	 eax, DWORD PTR __Backout$2[ebp+4]
  00072	89 45 d8	 mov	 DWORD PTR __Backout$2[ebp], eax

; 1552 :         return _Last;

  00075	8b 45 dc	 mov	 eax, DWORD PTR __Backout$2[ebp+4]
  00078	89 45 e4	 mov	 DWORD PTR $T3[ebp], eax

; 1700 : 
; 1701 :         return _Backout._Release();

  0007b	83 4d fc ff	 or	 DWORD PTR __$EHRec$[ebp+8], -1

; 1541 :         _Destroy_range(_First, _Last, _Al);

  0007f	ff 75 e0	 push	 DWORD PTR __Backout$2[ebp+8]
  00082	ff 75 dc	 push	 DWORD PTR __Backout$2[ebp+4]
  00085	ff 75 d8	 push	 DWORD PTR __Backout$2[ebp]
  00088	e8 00 00 00 00	 call	 ??$_Destroy_range@V?$allocator@VCSkyObjectQuad@@@std@@@std@@YAXPAVCSkyObjectQuad@@QAV1@AAV?$allocator@VCSkyObjectQuad@@@0@@Z ; std::_Destroy_range<std::allocator<CSkyObjectQuad> >
  0008d	83 c4 0c	 add	 esp, 12			; 0000000cH

; 1700 : 
; 1701 :         return _Backout._Release();

  00090	8b 45 e4	 mov	 eax, DWORD PTR $T3[ebp]

; 1702 :     }
; 1703 : }

  00093	8b 4d f4	 mov	 ecx, DWORD PTR __$EHRec$[ebp]
  00096	64 89 0d 00 00
	00 00		 mov	 DWORD PTR fs:0, ecx
  0009d	59		 pop	 ecx
  0009e	c9		 leave
  0009f	c3		 ret	 0
_TEXT	ENDS
;	COMDAT text$x
text$x	SEGMENT
__unwindfunclet$??$_Uninitialized_move@PAVCSkyObjectQuad@@V?$allocator@VCSkyObjectQuad@@@std@@@std@@YAPAVCSkyObjectQuad@@QAV1@0PAV1@AAV?$allocator@VCSkyObjectQuad@@@0@@Z$0:
  00000	8d 4d d8	 lea	 ecx, DWORD PTR __Backout$2[ebp]
  00003	e9 00 00 00 00	 jmp	 ??1?$_Uninitialized_backout_al@V?$allocator@VCSkyObjectQuad@@@std@@@std@@QAE@XZ ; std::_Uninitialized_backout_al<std::allocator<CSkyObjectQuad> >::~_Uninitialized_backout_al<std::allocator<CSkyObjectQuad> >
  00008	cc		 int	 3
  00009	cc		 int	 3
  0000a	cc		 int	 3
  0000b	cc		 int	 3
  0000c	cc		 int	 3
__ehhandler$??$_Uninitialized_move@PAVCSkyObjectQuad@@V?$allocator@VCSkyObjectQuad@@@std@@@std@@YAPAVCSkyObjectQuad@@QAV1@0PAV1@AAV?$allocator@VCSkyObjectQuad@@@0@@Z:
  0000d	90		 npad	 1
  0000e	90		 npad	 1
  0000f	8b 54 24 08	 mov	 edx, DWORD PTR [esp+8]
  00013	8d 42 0c	 lea	 eax, DWORD PTR [edx+12]
  00016	8b 4a e0	 mov	 ecx, DWORD PTR [edx-32]
  00019	33 c8		 xor	 ecx, eax
  0001b	e8 00 00 00 00	 call	 @__security_check_cookie@4
  00020	b8 00 00 00 00	 mov	 eax, OFFSET __ehfuncinfo$??$_Uninitialized_move@PAVCSkyObjectQuad@@V?$allocator@VCSkyObjectQuad@@@std@@@std@@YAPAVCSkyObjectQuad@@QAV1@0PAV1@AAV?$allocator@VCSkyObjectQuad@@@0@@Z
  00025	e9 00 00 00 00	 jmp	 ___CxxFrameHandler3
text$x	ENDS
??$_Uninitialized_move@PAVCSkyObjectQuad@@V?$allocator@VCSkyObjectQuad@@@std@@@std@@YAPAVCSkyObjectQuad@@QAV1@0PAV1@AAV?$allocator@VCSkyObjectQuad@@@0@@Z ENDP ; std::_Uninitialized_move<CSkyObjectQuad *,std::allocator<CSkyObjectQuad> >
; Function compile flags: /Odspy
; File C:\Program Files (x86)\Microsoft Visual Studio\2019\Community\VC\Tools\MSVC\14.28.29333\include\xstring
;	COMDAT ??$?MDU?$char_traits@D@std@@V?$allocator@D@1@@std@@YA_NABV?$basic_string@DU?$char_traits@D@std@@V?$allocator@D@2@@0@0@Z
_TEXT	SEGMENT
tv68 = -4						; size = 4
__Left$ = 8						; size = 4
__Right$ = 12						; size = 4
??$?MDU?$char_traits@D@std@@V?$allocator@D@1@@std@@YA_NABV?$basic_string@DU?$char_traits@D@std@@V?$allocator@D@2@@0@0@Z PROC ; std::operator<<char,std::char_traits<char>,std::allocator<char> >, COMDAT

; 4586 :     const basic_string<_Elem, _Traits, _Alloc>& _Left, const basic_string<_Elem, _Traits, _Alloc>& _Right) noexcept {

  00000	55		 push	 ebp
  00001	8b ec		 mov	 ebp, esp
  00003	51		 push	 ecx

; 4587 :     return _Left.compare(_Right) < 0;

  00004	ff 75 0c	 push	 DWORD PTR __Right$[ebp]
  00007	8b 4d 08	 mov	 ecx, DWORD PTR __Left$[ebp]
  0000a	e8 00 00 00 00	 call	 ?compare@?$basic_string@DU?$char_traits@D@std@@V?$allocator@D@2@@std@@QBEHABV12@@Z ; std::basic_string<char,std::char_traits<char>,std::allocator<char> >::compare
  0000f	85 c0		 test	 eax, eax
  00011	7d 09		 jge	 SHORT $LN3@operator
  00013	c7 45 fc 01 00
	00 00		 mov	 DWORD PTR tv68[ebp], 1
  0001a	eb 04		 jmp	 SHORT $LN4@operator
$LN3@operator:
  0001c	83 65 fc 00	 and	 DWORD PTR tv68[ebp], 0
$LN4@operator:
  00020	8a 45 fc	 mov	 al, BYTE PTR tv68[ebp]

; 4588 : }

  00023	c9		 leave
  00024	c3		 ret	 0
??$?MDU?$char_traits@D@std@@V?$allocator@D@1@@std@@YA_NABV?$basic_string@DU?$char_traits@D@std@@V?$allocator@D@2@@0@0@Z ENDP ; std::operator<<char,std::char_traits<char>,std::allocator<char> >
_TEXT	ENDS
; Function compile flags: /Odspy
; File C:\Program Files (x86)\Microsoft Visual Studio\2019\Community\VC\Tools\MSVC\14.28.29333\include\xmemory
; File C:\Program Files (x86)\Microsoft Visual Studio\2019\Community\VC\Tools\MSVC\14.28.29333\include\xstddef
; File C:\Program Files (x86)\Microsoft Visual Studio\2019\Community\VC\Tools\MSVC\14.28.29333\include\xmemory
; File C:\Program Files (x86)\Microsoft Visual Studio\2019\Community\VC\Tools\MSVC\14.28.29333\include\vcruntime_new.h
; File C:\Program Files (x86)\Microsoft Visual Studio\2019\Community\VC\Tools\MSVC\14.28.29333\include\xmemory
;	COMDAT ??$_Emplace_back@$$V@?$_Uninitialized_backout_al@V?$allocator@VCSkyObjectQuad@@@std@@@std@@QAEXXZ
_TEXT	SEGMENT
___formal$ = -20					; size = 4
$T1 = -16						; size = 4
$T2 = -12						; size = 4
__Ptr$ = -8						; size = 4
_this$ = -4						; size = 4
??$_Emplace_back@$$V@?$_Uninitialized_backout_al@V?$allocator@VCSkyObjectQuad@@@std@@@std@@QAEXXZ PROC ; std::_Uninitialized_backout_al<std::allocator<CSkyObjectQuad> >::_Emplace_back<>, COMDAT
; _this$ = ecx

; 1545 :     void _Emplace_back(_Types&&... _Vals) { // construct a new element at *_Last and increment

  00000	55		 push	 ebp
  00001	8b ec		 mov	 ebp, esp
  00003	83 ec 14	 sub	 esp, 20			; 00000014H
  00006	89 4d fc	 mov	 DWORD PTR _this$[ebp], ecx

; 1546 :         allocator_traits<_Alloc>::construct(_Al, _Unfancy(_Last), _STD forward<_Types>(_Vals)...);

  00009	8b 45 fc	 mov	 eax, DWORD PTR _this$[ebp]
  0000c	8b 40 04	 mov	 eax, DWORD PTR [eax+4]
  0000f	89 45 f8	 mov	 DWORD PTR __Ptr$[ebp], eax
; File C:\Program Files (x86)\Microsoft Visual Studio\2019\Community\VC\Tools\MSVC\14.28.29333\include\xstddef

; 289  :     return _Ptr;

  00012	8b 45 f8	 mov	 eax, DWORD PTR __Ptr$[ebp]
  00015	89 45 f4	 mov	 DWORD PTR $T2[ebp], eax
; File C:\Program Files (x86)\Microsoft Visual Studio\2019\Community\VC\Tools\MSVC\14.28.29333\include\xmemory

; 1546 :         allocator_traits<_Alloc>::construct(_Al, _Unfancy(_Last), _STD forward<_Types>(_Vals)...);

  00018	8b 45 fc	 mov	 eax, DWORD PTR _this$[ebp]
  0001b	8b 40 08	 mov	 eax, DWORD PTR [eax+8]
  0001e	89 45 ec	 mov	 DWORD PTR ___formal$[ebp], eax
; File C:\Program Files (x86)\Microsoft Visual Studio\2019\Community\VC\Tools\MSVC\14.28.29333\include\vcruntime_new.h

; 169  :         return _Where;

  00021	8b 45 f4	 mov	 eax, DWORD PTR $T2[ebp]
  00024	89 45 f0	 mov	 DWORD PTR $T1[ebp], eax
; File C:\Program Files (x86)\Microsoft Visual Studio\2019\Community\VC\Tools\MSVC\14.28.29333\include\xmemory

; 701  :         ::new (const_cast<void*>(static_cast<const volatile void*>(_Ptr))) _Objty(_STD forward<_Types>(_Args)...);

  00027	8b 4d f0	 mov	 ecx, DWORD PTR $T1[ebp]
  0002a	e8 00 00 00 00	 call	 ??0CSkyObjectQuad@@QAE@XZ ; CSkyObjectQuad::CSkyObjectQuad

; 1547 :         ++_Last;

  0002f	8b 45 fc	 mov	 eax, DWORD PTR _this$[ebp]
  00032	8b 40 04	 mov	 eax, DWORD PTR [eax+4]
  00035	05 2c 01 00 00	 add	 eax, 300		; 0000012cH
  0003a	8b 4d fc	 mov	 ecx, DWORD PTR _this$[ebp]
  0003d	89 41 04	 mov	 DWORD PTR [ecx+4], eax

; 1548 :     }

  00040	c9		 leave
  00041	c3		 ret	 0
??$_Emplace_back@$$V@?$_Uninitialized_backout_al@V?$allocator@VCSkyObjectQuad@@@std@@@std@@QAEXXZ ENDP ; std::_Uninitialized_backout_al<std::allocator<CSkyObjectQuad> >::_Emplace_back<>
_TEXT	ENDS
; Function compile flags: /Odspy
; File C:\Program Files (x86)\Microsoft Visual Studio\2019\Community\VC\Tools\MSVC\14.28.29333\include\xmemory
;	COMDAT ??1?$_Uninitialized_backout_al@V?$allocator@VCSkyObjectQuad@@@std@@@std@@QAE@XZ
_TEXT	SEGMENT
_this$ = -4						; size = 4
??1?$_Uninitialized_backout_al@V?$allocator@VCSkyObjectQuad@@@std@@@std@@QAE@XZ PROC ; std::_Uninitialized_backout_al<std::allocator<CSkyObjectQuad> >::~_Uninitialized_backout_al<std::allocator<CSkyObjectQuad> >, COMDAT
; _this$ = ecx

; 1540 :     ~_Uninitialized_backout_al() {

  00000	55		 push	 ebp
  00001	8b ec		 mov	 ebp, esp
  00003	51		 push	 ecx
  00004	89 4d fc	 mov	 DWORD PTR _this$[ebp], ecx

; 1541 :         _Destroy_range(_First, _Last, _Al);

  00007	8b 45 fc	 mov	 eax, DWORD PTR _this$[ebp]
  0000a	ff 70 08	 push	 DWORD PTR [eax+8]
  0000d	8b 45 fc	 mov	 eax, DWORD PTR _this$[ebp]
  00010	ff 70 04	 push	 DWORD PTR [eax+4]
  00013	8b 45 fc	 mov	 eax, DWORD PTR _this$[ebp]
  00016	ff 30		 push	 DWORD PTR [eax]
  00018	e8 00 00 00 00	 call	 ??$_Destroy_range@V?$allocator@VCSkyObjectQuad@@@std@@@std@@YAXPAVCSkyObjectQuad@@QAV1@AAV?$allocator@VCSkyObjectQuad@@@0@@Z ; std::_Destroy_range<std::allocator<CSkyObjectQuad> >
  0001d	83 c4 0c	 add	 esp, 12			; 0000000cH

; 1542 :     }

  00020	c9		 leave
  00021	c3		 ret	 0
??1?$_Uninitialized_backout_al@V?$allocator@VCSkyObjectQuad@@@std@@@std@@QAE@XZ ENDP ; std::_Uninitialized_backout_al<std::allocator<CSkyObjectQuad> >::~_Uninitialized_backout_al<std::allocator<CSkyObjectQuad> >
_TEXT	ENDS
; Function compile flags: /Odspy
; File C:\Program Files (x86)\Microsoft Visual Studio\2019\Community\VC\Tools\MSVC\14.28.29333\include\xmemory
; File C:\Program Files (x86)\Microsoft Visual Studio\2019\Community\VC\Tools\MSVC\14.28.29333\include\xstddef
; File C:\Program Files (x86)\Microsoft Visual Studio\2019\Community\VC\Tools\MSVC\14.28.29333\include\vcruntime_new.h
; File C:\Program Files (x86)\Microsoft Visual Studio\2019\Community\VC\Tools\MSVC\14.28.29333\include\type_traits
; File C:\Program Files (x86)\Microsoft Visual Studio\2019\Community\VC\Tools\MSVC\14.28.29333\include\xmemory
;	COMDAT ??$_Construct_in_place@PAU?$_Tree_node@U?$pair@$$CBV?$basic_string@DU?$char_traits@D@std@@V?$allocator@D@2@@std@@PAVCGraphicImageInstance@@@std@@PAX@std@@AAPAU12@@std@@YAXAAPAU?$_Tree_node@U?$pair@$$CBV?$basic_string@DU?$char_traits@D@std@@V?$allocator@D@2@@std@@PAVCGraphicImageInstance@@@std@@PAX@0@0@Z
_TEXT	SEGMENT
$T1 = -12						; size = 4
$T2 = -8						; size = 4
$T3 = -4						; size = 4
__Obj$ = 8						; size = 4
_<_Args_0>$ = 12					; size = 4
??$_Construct_in_place@PAU?$_Tree_node@U?$pair@$$CBV?$basic_string@DU?$char_traits@D@std@@V?$allocator@D@2@@std@@PAVCGraphicImageInstance@@@std@@PAX@std@@AAPAU12@@std@@YAXAAPAU?$_Tree_node@U?$pair@$$CBV?$basic_string@DU?$char_traits@D@std@@V?$allocator@D@2@@std@@PAVCGraphicImageInstance@@@std@@PAX@0@0@Z PROC ; std::_Construct_in_place<std::_Tree_node<std::pair<std::basic_string<char,std::char_traits<char>,std::allocator<char> > const ,CGraphicImageInstance *>,void *> *,std::_Tree_node<std::pair<std::basic_string<char,std::char_traits<char>,std::allocator<char> > const ,CGraphicImageInstance *>,void *> * &>, COMDAT

; 228  : void _Construct_in_place(_Ty& _Obj, _Types&&... _Args) noexcept(is_nothrow_constructible_v<_Ty, _Types...>) {

  00000	55		 push	 ebp
  00001	8b ec		 mov	 ebp, esp
  00003	83 ec 0c	 sub	 esp, 12			; 0000000cH
; File C:\Program Files (x86)\Microsoft Visual Studio\2019\Community\VC\Tools\MSVC\14.28.29333\include\xstddef

; 275  :     return __builtin_addressof(_Val);

  00006	8b 45 08	 mov	 eax, DWORD PTR __Obj$[ebp]
  00009	89 45 fc	 mov	 DWORD PTR $T3[ebp], eax
; File C:\Program Files (x86)\Microsoft Visual Studio\2019\Community\VC\Tools\MSVC\14.28.29333\include\vcruntime_new.h

; 169  :         return _Where;

  0000c	8b 45 fc	 mov	 eax, DWORD PTR $T3[ebp]
  0000f	89 45 f8	 mov	 DWORD PTR $T2[ebp], eax
; File C:\Program Files (x86)\Microsoft Visual Studio\2019\Community\VC\Tools\MSVC\14.28.29333\include\type_traits

; 1443 :     return static_cast<_Ty&&>(_Arg);

  00012	8b 45 0c	 mov	 eax, DWORD PTR _<_Args_0>$[ebp]
  00015	89 45 f4	 mov	 DWORD PTR $T1[ebp], eax
; File C:\Program Files (x86)\Microsoft Visual Studio\2019\Community\VC\Tools\MSVC\14.28.29333\include\xmemory

; 229  :     ::new (const_cast<void*>(static_cast<const volatile void*>(_STD addressof(_Obj))))

  00018	8b 45 f8	 mov	 eax, DWORD PTR $T2[ebp]
  0001b	8b 4d f4	 mov	 ecx, DWORD PTR $T1[ebp]
  0001e	8b 09		 mov	 ecx, DWORD PTR [ecx]
  00020	89 08		 mov	 DWORD PTR [eax], ecx

; 230  :         _Ty(_STD forward<_Types>(_Args)...);
; 231  : }

  00022	c9		 leave
  00023	c3		 ret	 0
??$_Construct_in_place@PAU?$_Tree_node@U?$pair@$$CBV?$basic_string@DU?$char_traits@D@std@@V?$allocator@D@2@@std@@PAVCGraphicImageInstance@@@std@@PAX@std@@AAPAU12@@std@@YAXAAPAU?$_Tree_node@U?$pair@$$CBV?$basic_string@DU?$char_traits@D@std@@V?$allocator@D@2@@std@@PAVCGraphicImageInstance@@@std@@PAX@0@0@Z ENDP ; std::_Construct_in_place<std::_Tree_node<std::pair<std::basic_string<char,std::char_traits<char>,std::allocator<char> > const ,CGraphicImageInstance *>,void *> *,std::_Tree_node<std::pair<std::basic_string<char,std::char_traits<char>,std::allocator<char> > const ,CGraphicImageInstance *>,void *> * &>
_TEXT	ENDS
; Function compile flags: /Odspy
; File C:\Program Files (x86)\Microsoft Visual Studio\2019\Community\VC\Tools\MSVC\14.28.29333\include\xmemory
; File C:\Program Files (x86)\Microsoft Visual Studio\2019\Community\VC\Tools\MSVC\14.28.29333\include\vcruntime_new.h
; File C:\Program Files (x86)\Microsoft Visual Studio\2019\Community\VC\Tools\MSVC\14.28.29333\include\type_traits
; File C:\Program Files (x86)\Microsoft Visual Studio\2019\Community\VC\Tools\MSVC\14.28.29333\include\xmemory
; File C:\Program Files (x86)\Microsoft Visual Studio\2019\Community\VC\Tools\MSVC\14.28.29333\include\type_traits
; File C:\Program Files (x86)\Microsoft Visual Studio\2019\Community\VC\Tools\MSVC\14.28.29333\include\xmemory
; File D:\Metin2 Server Files\mainline\SRC_2014\Metin2Client\EterLib\SkyBox.cpp
; File C:\Program Files (x86)\Microsoft Visual Studio\2019\Community\VC\Tools\MSVC\14.28.29333\include\type_traits
; File C:\Program Files (x86)\Microsoft Visual Studio\2019\Community\VC\Tools\MSVC\14.28.29333\include\xmemory
;	COMDAT ??$construct@U?$pair@$$CBV?$basic_string@DU?$char_traits@D@std@@V?$allocator@D@2@@std@@PAVCGraphicImageInstance@@@std@@ABUpiecewise_construct_t@2@V?$tuple@ABV?$basic_string@DU?$char_traits@D@std@@V?$allocator@D@2@@std@@@2@V?$tuple@$$V@2@@?$_Default_allocator_traits@V?$allocator@U?$_Tree_node@U?$pair@$$CBV?$basic_string@DU?$char_traits@D@std@@V?$allocator@D@2@@std@@PAVCGraphicImageInstance@@@std@@PAX@std@@@std@@@std@@SAXAAV?$allocator@U?$_Tree_node@U?$pair@$$CBV?$basic_string@DU?$char_traits@D@std@@V?$allocator@D@2@@std@@PAVCGraphicImageInstance@@@std@@PAX@std@@@1@QAU?$pair@$$CBV?$basic_string@DU?$char_traits@D@std@@V?$allocator@D@2@@std@@PAVCGraphicImageInstance@@@1@ABUpiecewise_construct_t@1@$$QAV?$tuple@ABV?$basic_string@DU?$char_traits@D@std@@V?$allocator@D@2@@std@@@1@$$QAV?$tuple@$$V@1@@Z
_TEXT	SEGMENT
_this$ = -24						; size = 4
$T1 = -20						; size = 4
$T2 = -16						; size = 4
$T3 = -12						; size = 4
_this$ = -8						; size = 4
$T4 = -4						; size = 4
___formal$ = 8						; size = 4
__Ptr$ = 12						; size = 4
_<_Args_0>$ = 16					; size = 4
_<_Args_1>$ = 20					; size = 4
_<_Args_2>$ = 24					; size = 4
??$construct@U?$pair@$$CBV?$basic_string@DU?$char_traits@D@std@@V?$allocator@D@2@@std@@PAVCGraphicImageInstance@@@std@@ABUpiecewise_construct_t@2@V?$tuple@ABV?$basic_string@DU?$char_traits@D@std@@V?$allocator@D@2@@std@@@2@V?$tuple@$$V@2@@?$_Default_allocator_traits@V?$allocator@U?$_Tree_node@U?$pair@$$CBV?$basic_string@DU?$char_traits@D@std@@V?$allocator@D@2@@std@@PAVCGraphicImageInstance@@@std@@PAX@std@@@std@@@std@@SAXAAV?$allocator@U?$_Tree_node@U?$pair@$$CBV?$basic_string@DU?$char_traits@D@std@@V?$allocator@D@2@@std@@PAVCGraphicImageInstance@@@std@@PAX@std@@@1@QAU?$pair@$$CBV?$basic_string@DU?$char_traits@D@std@@V?$allocator@D@2@@std@@PAVCGraphicImageInstance@@@1@ABUpiecewise_construct_t@1@$$QAV?$tuple@ABV?$basic_string@DU?$char_traits@D@std@@V?$allocator@D@2@@std@@@1@$$QAV?$tuple@$$V@1@@Z PROC ; std::_Default_allocator_traits<std::allocator<std::_Tree_node<std::pair<std::basic_string<char,std::char_traits<char>,std::allocator<char> > const ,CGraphicImageInstance *>,void *> > >::construct<std::pair<std::basic_string<char,std::char_traits<char>,std::allocator<char> > const ,CGraphicImageInstance *>,std::piecewise_construct_t const &,std::tuple<std::basic_string<char,std::char_traits<char>,std::allocator<char> > const &>,std::tuple<> >, COMDAT

; 700  :     static void construct(_Alloc&, _Objty* const _Ptr, _Types&&... _Args) {

  00000	55		 push	 ebp
  00001	8b ec		 mov	 ebp, esp
  00003	83 ec 18	 sub	 esp, 24			; 00000018H
; File C:\Program Files (x86)\Microsoft Visual Studio\2019\Community\VC\Tools\MSVC\14.28.29333\include\vcruntime_new.h

; 169  :         return _Where;

  00006	8b 45 0c	 mov	 eax, DWORD PTR __Ptr$[ebp]
  00009	89 45 f0	 mov	 DWORD PTR $T2[ebp], eax
; File C:\Program Files (x86)\Microsoft Visual Studio\2019\Community\VC\Tools\MSVC\14.28.29333\include\type_traits

; 1443 :     return static_cast<_Ty&&>(_Arg);

  0000c	8b 45 18	 mov	 eax, DWORD PTR _<_Args_2>$[ebp]
  0000f	89 45 ec	 mov	 DWORD PTR $T1[ebp], eax
; File C:\Program Files (x86)\Microsoft Visual Studio\2019\Community\VC\Tools\MSVC\14.28.29333\include\xmemory

; 701  :         ::new (const_cast<void*>(static_cast<const volatile void*>(_Ptr))) _Objty(_STD forward<_Types>(_Args)...);

  00012	51		 push	 ecx
  00013	89 65 e8	 mov	 DWORD PTR _this$[ebp], esp
; File C:\Program Files (x86)\Microsoft Visual Studio\2019\Community\VC\Tools\MSVC\14.28.29333\include\type_traits

; 1443 :     return static_cast<_Ty&&>(_Arg);

  00016	8b 45 14	 mov	 eax, DWORD PTR _<_Args_1>$[ebp]
  00019	89 45 fc	 mov	 DWORD PTR $T4[ebp], eax
; File C:\Program Files (x86)\Microsoft Visual Studio\2019\Community\VC\Tools\MSVC\14.28.29333\include\xmemory

; 701  :         ::new (const_cast<void*>(static_cast<const volatile void*>(_Ptr))) _Objty(_STD forward<_Types>(_Args)...);

  0001c	51		 push	 ecx
  0001d	89 65 f8	 mov	 DWORD PTR _this$[ebp], esp
; File D:\Metin2 Server Files\mainline\SRC_2014\Metin2Client\EterLib\SkyBox.cpp

  00020	8b 45 fc	 mov	 eax, DWORD PTR $T4[ebp]
  00023	8b 00		 mov	 eax, DWORD PTR [eax]
  00025	8b 4d f8	 mov	 ecx, DWORD PTR _this$[ebp]
  00028	89 01		 mov	 DWORD PTR [ecx], eax
; File C:\Program Files (x86)\Microsoft Visual Studio\2019\Community\VC\Tools\MSVC\14.28.29333\include\type_traits

; 1443 :     return static_cast<_Ty&&>(_Arg);

  0002a	8b 45 10	 mov	 eax, DWORD PTR _<_Args_0>$[ebp]
  0002d	89 45 f4	 mov	 DWORD PTR $T3[ebp], eax
; File C:\Program Files (x86)\Microsoft Visual Studio\2019\Community\VC\Tools\MSVC\14.28.29333\include\xmemory

; 701  :         ::new (const_cast<void*>(static_cast<const volatile void*>(_Ptr))) _Objty(_STD forward<_Types>(_Args)...);

  00030	8b 45 f4	 mov	 eax, DWORD PTR $T3[ebp]
  00033	0f b6 00	 movzx	 eax, BYTE PTR [eax]
  00036	50		 push	 eax
  00037	8b 4d f0	 mov	 ecx, DWORD PTR $T2[ebp]
  0003a	e8 00 00 00 00	 call	 ??$?0ABV?$basic_string@DU?$char_traits@D@std@@V?$allocator@D@2@@std@@$$Z$$V@?$pair@$$CBV?$basic_string@DU?$char_traits@D@std@@V?$allocator@D@2@@std@@PAVCGraphicImageInstance@@@std@@QAE@Upiecewise_construct_t@1@V?$tuple@ABV?$basic_string@DU?$char_traits@D@std@@V?$allocator@D@2@@std@@@1@V?$tuple@$$V@1@@Z ; std::pair<std::basic_string<char,std::char_traits<char>,std::allocator<char> > const ,CGraphicImageInstance *>::pair<std::basic_string<char,std::char_traits<char>,std::allocator<char> > const ,CGraphicImageInstance *><std::basic_string<char,std::char_traits<char>,std::allocator<char> > const &>

; 702  :     }

  0003f	c9		 leave
  00040	c3		 ret	 0
??$construct@U?$pair@$$CBV?$basic_string@DU?$char_traits@D@std@@V?$allocator@D@2@@std@@PAVCGraphicImageInstance@@@std@@ABUpiecewise_construct_t@2@V?$tuple@ABV?$basic_string@DU?$char_traits@D@std@@V?$allocator@D@2@@std@@@2@V?$tuple@$$V@2@@?$_Default_allocator_traits@V?$allocator@U?$_Tree_node@U?$pair@$$CBV?$basic_string@DU?$char_traits@D@std@@V?$allocator@D@2@@std@@PAVCGraphicImageInstance@@@std@@PAX@std@@@std@@@std@@SAXAAV?$allocator@U?$_Tree_node@U?$pair@$$CBV?$basic_string@DU?$char_traits@D@std@@V?$allocator@D@2@@std@@PAVCGraphicImageInstance@@@std@@PAX@std@@@1@QAU?$pair@$$CBV?$basic_string@DU?$char_traits@D@std@@V?$allocator@D@2@@std@@PAVCGraphicImageInstance@@@1@ABUpiecewise_construct_t@1@$$QAV?$tuple@ABV?$basic_string@DU?$char_traits@D@std@@V?$allocator@D@2@@std@@@1@$$QAV?$tuple@$$V@1@@Z ENDP ; std::_Default_allocator_traits<std::allocator<std::_Tree_node<std::pair<std::basic_string<char,std::char_traits<char>,std::allocator<char> > const ,CGraphicImageInstance *>,void *> > >::construct<std::pair<std::basic_string<char,std::char_traits<char>,std::allocator<char> > const ,CGraphicImageInstance *>,std::piecewise_construct_t const &,std::tuple<std::basic_string<char,std::char_traits<char>,std::allocator<char> > const &>,std::tuple<> >
_TEXT	ENDS
; Function compile flags: /Odspy
; File C:\Program Files (x86)\Microsoft Visual Studio\2019\Community\VC\Tools\MSVC\14.28.29333\include\xtree
; File C:\Program Files (x86)\Microsoft Visual Studio\2019\Community\VC\Tools\MSVC\14.28.29333\include\xmemory
; File C:\Program Files (x86)\Microsoft Visual Studio\2019\Community\VC\Tools\MSVC\14.28.29333\include\xtree
; File C:\Program Files (x86)\Microsoft Visual Studio\2019\Community\VC\Tools\MSVC\14.28.29333\include\type_traits
; File C:\Program Files (x86)\Microsoft Visual Studio\2019\Community\VC\Tools\MSVC\14.28.29333\include\xtree
; File C:\Program Files (x86)\Microsoft Visual Studio\2019\Community\VC\Tools\MSVC\14.28.29333\include\xstddef
; File C:\Program Files (x86)\Microsoft Visual Studio\2019\Community\VC\Tools\MSVC\14.28.29333\include\xtree
; File C:\Program Files (x86)\Microsoft Visual Studio\2019\Community\VC\Tools\MSVC\14.28.29333\include\vcruntime_new.h
; File C:\Program Files (x86)\Microsoft Visual Studio\2019\Community\VC\Tools\MSVC\14.28.29333\include\type_traits
; File D:\Metin2 Server Files\mainline\SRC_2014\Metin2Client\EterLib\SkyBox.cpp
; File C:\Program Files (x86)\Microsoft Visual Studio\2019\Community\VC\Tools\MSVC\14.28.29333\include\xtree
;	COMDAT ??$?0U?$pair@$$CBV?$basic_string@DU?$char_traits@D@std@@V?$allocator@D@2@@std@@PAVCGraphicImageInstance@@@std@@@?$_Tree_temp_node@V?$allocator@U?$_Tree_node@U?$pair@$$CBV?$basic_string@DU?$char_traits@D@std@@V?$allocator@D@2@@std@@PAVCGraphicImageInstance@@@std@@PAX@std@@@std@@@std@@QAE@AAV?$allocator@U?$_Tree_node@U?$pair@$$CBV?$basic_string@DU?$char_traits@D@std@@V?$allocator@D@2@@std@@PAVCGraphicImageInstance@@@std@@PAX@std@@@1@PAU?$_Tree_node@U?$pair@$$CBV?$basic_string@DU?$char_traits@D@std@@V?$allocator@D@2@@std@@PAVCGraphicImageInstance@@@std@@PAX@1@$$QAU?$pair@$$CBV?$basic_string@DU?$char_traits@D@std@@V?$allocator@D@2@@std@@PAVCGraphicImageInstance@@@1@@Z
_TEXT	SEGMENT
___formal$ = -40					; size = 4
$T2 = -36						; size = 4
$T3 = -32						; size = 4
__Val$ = -28						; size = 4
$T4 = -24						; size = 4
$T5 = -20						; size = 4
_this$ = -16						; size = 4
__$EHRec$ = -12						; size = 12
__Al_$ = 8						; size = 4
__Myhead$ = 12						; size = 4
_<_Vals_0>$ = 16					; size = 4
??$?0U?$pair@$$CBV?$basic_string@DU?$char_traits@D@std@@V?$allocator@D@2@@std@@PAVCGraphicImageInstance@@@std@@@?$_Tree_temp_node@V?$allocator@U?$_Tree_node@U?$pair@$$CBV?$basic_string@DU?$char_traits@D@std@@V?$allocator@D@2@@std@@PAVCGraphicImageInstance@@@std@@PAX@std@@@std@@@std@@QAE@AAV?$allocator@U?$_Tree_node@U?$pair@$$CBV?$basic_string@DU?$char_traits@D@std@@V?$allocator@D@2@@std@@PAVCGraphicImageInstance@@@std@@PAX@std@@@1@PAU?$_Tree_node@U?$pair@$$CBV?$basic_string@DU?$char_traits@D@std@@V?$allocator@D@2@@std@@PAVCGraphicImageInstance@@@std@@PAX@1@$$QAU?$pair@$$CBV?$basic_string@DU?$char_traits@D@std@@V?$allocator@D@2@@std@@PAVCGraphicImageInstance@@@1@@Z PROC ; std::_Tree_temp_node<std::allocator<std::_Tree_node<std::pair<std::basic_string<char,std::char_traits<char>,std::allocator<char> > const ,CGraphicImageInstance *>,void *> > >::_Tree_temp_node<std::allocator<std::_Tree_node<std::pair<std::basic_string<char,std::char_traits<char>,std::allocator<char> > const ,CGraphicImageInstance *>,void *> > ><std::pair<std::basic_string<char,std::char_traits<char>,std::allocator<char> > const ,CGraphicImageInstance *> >, COMDAT
; _this$ = ecx

; 805  :         : _Tree_temp_node_alloc<_Alnode>(_Al_) {

  00000	55		 push	 ebp
  00001	8b ec		 mov	 ebp, esp
  00003	6a ff		 push	 -1
  00005	68 00 00 00 00	 push	 __ehhandler$??$?0U?$pair@$$CBV?$basic_string@DU?$char_traits@D@std@@V?$allocator@D@2@@std@@PAVCGraphicImageInstance@@@std@@@?$_Tree_temp_node@V?$allocator@U?$_Tree_node@U?$pair@$$CBV?$basic_string@DU?$char_traits@D@std@@V?$allocator@D@2@@std@@PAVCGraphicImageInstance@@@std@@PAX@std@@@std@@@std@@QAE@AAV?$allocator@U?$_Tree_node@U?$pair@$$CBV?$basic_string@DU?$char_traits@D@std@@V?$allocator@D@2@@std@@PAVCGraphicImageInstance@@@std@@PAX@std@@@1@PAU?$_Tree_node@U?$pair@$$CBV?$basic_string@DU?$char_traits@D@std@@V?$allocator@D@2@@std@@PAVCGraphicImageInstance@@@std@@PAX@1@$$QAU?$pair@$$CBV?$basic_string@DU?$char_traits@D@std@@V?$allocator@D@2@@std@@PAVCGraphicImageInstance@@@1@@Z
  0000a	64 a1 00 00 00
	00		 mov	 eax, DWORD PTR fs:0
  00010	50		 push	 eax
  00011	83 ec 1c	 sub	 esp, 28			; 0000001cH
  00014	a1 00 00 00 00	 mov	 eax, DWORD PTR ___security_cookie
  00019	33 c5		 xor	 eax, ebp
  0001b	50		 push	 eax
  0001c	8d 45 f4	 lea	 eax, DWORD PTR __$EHRec$[ebp]
  0001f	64 a3 00 00 00
	00		 mov	 DWORD PTR fs:0, eax
  00025	89 4d f0	 mov	 DWORD PTR _this$[ebp], ecx
; File C:\Program Files (x86)\Microsoft Visual Studio\2019\Community\VC\Tools\MSVC\14.28.29333\include\xmemory

; 1045 :     explicit _Alloc_construct_ptr(_Alloc& _Al_) : _Al(_Al_), _Ptr(nullptr) {}

  00028	8b 45 f0	 mov	 eax, DWORD PTR _this$[ebp]
  0002b	8b 4d 08	 mov	 ecx, DWORD PTR __Al_$[ebp]
  0002e	89 08		 mov	 DWORD PTR [eax], ecx
  00030	8b 45 f0	 mov	 eax, DWORD PTR _this$[ebp]
  00033	83 60 04 00	 and	 DWORD PTR [eax+4], 0
; File C:\Program Files (x86)\Microsoft Visual Studio\2019\Community\VC\Tools\MSVC\14.28.29333\include\xtree

; 784  :     explicit _Tree_temp_node_alloc(_Alnode& _Al_) : _Alloc_construct_ptr<_Alnode>(_Al_) {

  00037	83 65 fc 00	 and	 DWORD PTR __$EHRec$[ebp+8], 0

; 785  :         _Alloc_construct_ptr<_Alnode>::_Allocate();

  0003b	8b 4d f0	 mov	 ecx, DWORD PTR _this$[ebp]
  0003e	e8 00 00 00 00	 call	 ?_Allocate@?$_Alloc_construct_ptr@V?$allocator@U?$_Tree_node@U?$pair@$$CBV?$basic_string@DU?$char_traits@D@std@@V?$allocator@D@2@@std@@PAVCGraphicImageInstance@@@std@@PAX@std@@@std@@@std@@QAEXXZ ; std::_Alloc_construct_ptr<std::allocator<std::_Tree_node<std::pair<std::basic_string<char,std::char_traits<char>,std::allocator<char> > const ,CGraphicImageInstance *>,void *> > >::_Allocate

; 805  :         : _Tree_temp_node_alloc<_Alnode>(_Al_) {

  00043	c7 45 fc 01 00
	00 00		 mov	 DWORD PTR __$EHRec$[ebp+8], 1
; File C:\Program Files (x86)\Microsoft Visual Studio\2019\Community\VC\Tools\MSVC\14.28.29333\include\type_traits

; 1443 :     return static_cast<_Ty&&>(_Arg);

  0004a	8b 45 10	 mov	 eax, DWORD PTR _<_Vals_0>$[ebp]
  0004d	89 45 dc	 mov	 DWORD PTR $T2[ebp], eax
; File C:\Program Files (x86)\Microsoft Visual Studio\2019\Community\VC\Tools\MSVC\14.28.29333\include\xtree

; 806  :         _Alnode_traits::construct(this->_Al, _STD addressof(this->_Ptr->_Myval), _STD forward<_Valtys>(_Vals)...);

  00050	8b 45 f0	 mov	 eax, DWORD PTR _this$[ebp]
  00053	8b 40 04	 mov	 eax, DWORD PTR [eax+4]
  00056	83 c0 10	 add	 eax, 16			; 00000010H
  00059	89 45 e4	 mov	 DWORD PTR __Val$[ebp], eax
; File C:\Program Files (x86)\Microsoft Visual Studio\2019\Community\VC\Tools\MSVC\14.28.29333\include\xstddef

; 275  :     return __builtin_addressof(_Val);

  0005c	8b 45 e4	 mov	 eax, DWORD PTR __Val$[ebp]
  0005f	89 45 e0	 mov	 DWORD PTR $T3[ebp], eax
; File C:\Program Files (x86)\Microsoft Visual Studio\2019\Community\VC\Tools\MSVC\14.28.29333\include\xtree

; 806  :         _Alnode_traits::construct(this->_Al, _STD addressof(this->_Ptr->_Myval), _STD forward<_Valtys>(_Vals)...);

  00062	8b 45 f0	 mov	 eax, DWORD PTR _this$[ebp]
  00065	8b 00		 mov	 eax, DWORD PTR [eax]
  00067	89 45 d8	 mov	 DWORD PTR ___formal$[ebp], eax
; File C:\Program Files (x86)\Microsoft Visual Studio\2019\Community\VC\Tools\MSVC\14.28.29333\include\vcruntime_new.h

; 169  :         return _Where;

  0006a	8b 45 e0	 mov	 eax, DWORD PTR $T3[ebp]
  0006d	89 45 ec	 mov	 DWORD PTR $T5[ebp], eax
; File C:\Program Files (x86)\Microsoft Visual Studio\2019\Community\VC\Tools\MSVC\14.28.29333\include\type_traits

; 1443 :     return static_cast<_Ty&&>(_Arg);

  00070	8b 45 dc	 mov	 eax, DWORD PTR $T2[ebp]
  00073	89 45 e8	 mov	 DWORD PTR $T4[ebp], eax
; File D:\Metin2 Server Files\mainline\SRC_2014\Metin2Client\EterLib\SkyBox.cpp

  00076	ff 75 e8	 push	 DWORD PTR $T4[ebp]
  00079	8b 4d ec	 mov	 ecx, DWORD PTR $T5[ebp]
  0007c	e8 00 00 00 00	 call	 ??0?$basic_string@DU?$char_traits@D@std@@V?$allocator@D@2@@std@@QAE@ABV01@@Z ; std::basic_string<char,std::char_traits<char>,std::allocator<char> >::basic_string<char,std::char_traits<char>,std::allocator<char> >
  00081	8b 45 ec	 mov	 eax, DWORD PTR $T5[ebp]
  00084	8b 4d e8	 mov	 ecx, DWORD PTR $T4[ebp]
  00087	8b 49 18	 mov	 ecx, DWORD PTR [ecx+24]
  0008a	89 48 18	 mov	 DWORD PTR [eax+24], ecx
; File C:\Program Files (x86)\Microsoft Visual Studio\2019\Community\VC\Tools\MSVC\14.28.29333\include\xtree

; 807  :         _Construct_in_place(this->_Ptr->_Left, _Myhead);

  0008d	8d 45 0c	 lea	 eax, DWORD PTR __Myhead$[ebp]
  00090	50		 push	 eax
  00091	8b 45 f0	 mov	 eax, DWORD PTR _this$[ebp]
  00094	ff 70 04	 push	 DWORD PTR [eax+4]
  00097	e8 00 00 00 00	 call	 ??$_Construct_in_place@PAU?$_Tree_node@U?$pair@$$CBV?$basic_string@DU?$char_traits@D@std@@V?$allocator@D@2@@std@@PAVCGraphicImageInstance@@@std@@PAX@std@@AAPAU12@@std@@YAXAAPAU?$_Tree_node@U?$pair@$$CBV?$basic_string@DU?$char_traits@D@std@@V?$allocator@D@2@@std@@PAVCGraphicImageInstance@@@std@@PAX@0@0@Z ; std::_Construct_in_place<std::_Tree_node<std::pair<std::basic_string<char,std::char_traits<char>,std::allocator<char> > const ,CGraphicImageInstance *>,void *> *,std::_Tree_node<std::pair<std::basic_string<char,std::char_traits<char>,std::allocator<char> > const ,CGraphicImageInstance *>,void *> * &>
  0009c	59		 pop	 ecx
  0009d	59		 pop	 ecx

; 808  :         _Construct_in_place(this->_Ptr->_Parent, _Myhead);

  0009e	8d 45 0c	 lea	 eax, DWORD PTR __Myhead$[ebp]
  000a1	50		 push	 eax
  000a2	8b 45 f0	 mov	 eax, DWORD PTR _this$[ebp]
  000a5	8b 40 04	 mov	 eax, DWORD PTR [eax+4]
  000a8	83 c0 04	 add	 eax, 4
  000ab	50		 push	 eax
  000ac	e8 00 00 00 00	 call	 ??$_Construct_in_place@PAU?$_Tree_node@U?$pair@$$CBV?$basic_string@DU?$char_traits@D@std@@V?$allocator@D@2@@std@@PAVCGraphicImageInstance@@@std@@PAX@std@@AAPAU12@@std@@YAXAAPAU?$_Tree_node@U?$pair@$$CBV?$basic_string@DU?$char_traits@D@std@@V?$allocator@D@2@@std@@PAVCGraphicImageInstance@@@std@@PAX@0@0@Z ; std::_Construct_in_place<std::_Tree_node<std::pair<std::basic_string<char,std::char_traits<char>,std::allocator<char> > const ,CGraphicImageInstance *>,void *> *,std::_Tree_node<std::pair<std::basic_string<char,std::char_traits<char>,std::allocator<char> > const ,CGraphicImageInstance *>,void *> * &>
  000b1	59		 pop	 ecx
  000b2	59		 pop	 ecx

; 809  :         _Construct_in_place(this->_Ptr->_Right, _Myhead);

  000b3	8d 45 0c	 lea	 eax, DWORD PTR __Myhead$[ebp]
  000b6	50		 push	 eax
  000b7	8b 45 f0	 mov	 eax, DWORD PTR _this$[ebp]
  000ba	8b 40 04	 mov	 eax, DWORD PTR [eax+4]
  000bd	83 c0 08	 add	 eax, 8
  000c0	50		 push	 eax
  000c1	e8 00 00 00 00	 call	 ??$_Construct_in_place@PAU?$_Tree_node@U?$pair@$$CBV?$basic_string@DU?$char_traits@D@std@@V?$allocator@D@2@@std@@PAVCGraphicImageInstance@@@std@@PAX@std@@AAPAU12@@std@@YAXAAPAU?$_Tree_node@U?$pair@$$CBV?$basic_string@DU?$char_traits@D@std@@V?$allocator@D@2@@std@@PAVCGraphicImageInstance@@@std@@PAX@0@0@Z ; std::_Construct_in_place<std::_Tree_node<std::pair<std::basic_string<char,std::char_traits<char>,std::allocator<char> > const ,CGraphicImageInstance *>,void *> *,std::_Tree_node<std::pair<std::basic_string<char,std::char_traits<char>,std::allocator<char> > const ,CGraphicImageInstance *>,void *> * &>
  000c6	59		 pop	 ecx
  000c7	59		 pop	 ecx

; 810  :         this->_Ptr->_Color = _Red;

  000c8	8b 45 f0	 mov	 eax, DWORD PTR _this$[ebp]
  000cb	8b 40 04	 mov	 eax, DWORD PTR [eax+4]
  000ce	c6 40 0c 00	 mov	 BYTE PTR [eax+12], 0

; 811  :         this->_Ptr->_Isnil = false;

  000d2	8b 45 f0	 mov	 eax, DWORD PTR _this$[ebp]
  000d5	8b 40 04	 mov	 eax, DWORD PTR [eax+4]
  000d8	c6 40 0d 00	 mov	 BYTE PTR [eax+13], 0

; 812  :     }

  000dc	83 4d fc ff	 or	 DWORD PTR __$EHRec$[ebp+8], -1
  000e0	8b 45 f0	 mov	 eax, DWORD PTR _this$[ebp]
  000e3	8b 4d f4	 mov	 ecx, DWORD PTR __$EHRec$[ebp]
  000e6	64 89 0d 00 00
	00 00		 mov	 DWORD PTR fs:0, ecx
  000ed	59		 pop	 ecx
  000ee	c9		 leave
  000ef	c2 0c 00	 ret	 12			; 0000000cH
_TEXT	ENDS
;	COMDAT text$x
text$x	SEGMENT
__unwindfunclet$??$?0U?$pair@$$CBV?$basic_string@DU?$char_traits@D@std@@V?$allocator@D@2@@std@@PAVCGraphicImageInstance@@@std@@@?$_Tree_temp_node@V?$allocator@U?$_Tree_node@U?$pair@$$CBV?$basic_string@DU?$char_traits@D@std@@V?$allocator@D@2@@std@@PAVCGraphicImageInstance@@@std@@PAX@std@@@std@@@std@@QAE@AAV?$allocator@U?$_Tree_node@U?$pair@$$CBV?$basic_string@DU?$char_traits@D@std@@V?$allocator@D@2@@std@@PAVCGraphicImageInstance@@@std@@PAX@std@@@1@PAU?$_Tree_node@U?$pair@$$CBV?$basic_string@DU?$char_traits@D@std@@V?$allocator@D@2@@std@@PAVCGraphicImageInstance@@@std@@PAX@1@$$QAU?$pair@$$CBV?$basic_string@DU?$char_traits@D@std@@V?$allocator@D@2@@std@@PAVCGraphicImageInstance@@@1@@Z$1:
  00000	8b 4d f0	 mov	 ecx, DWORD PTR _this$[ebp]
  00003	e9 00 00 00 00	 jmp	 ??1?$_Alloc_construct_ptr@V?$allocator@U?$_Tree_node@U?$pair@$$CBV?$basic_string@DU?$char_traits@D@std@@V?$allocator@D@2@@std@@PAVCGraphicImageInstance@@@std@@PAX@std@@@std@@@std@@QAE@XZ ; std::_Alloc_construct_ptr<std::allocator<std::_Tree_node<std::pair<std::basic_string<char,std::char_traits<char>,std::allocator<char> > const ,CGraphicImageInstance *>,void *> > >::~_Alloc_construct_ptr<std::allocator<std::_Tree_node<std::pair<std::basic_string<char,std::char_traits<char>,std::allocator<char> > const ,CGraphicImageInstance *>,void *> > >
__unwindfunclet$??$?0U?$pair@$$CBV?$basic_string@DU?$char_traits@D@std@@V?$allocator@D@2@@std@@PAVCGraphicImageInstance@@@std@@@?$_Tree_temp_node@V?$allocator@U?$_Tree_node@U?$pair@$$CBV?$basic_string@DU?$char_traits@D@std@@V?$allocator@D@2@@std@@PAVCGraphicImageInstance@@@std@@PAX@std@@@std@@@std@@QAE@AAV?$allocator@U?$_Tree_node@U?$pair@$$CBV?$basic_string@DU?$char_traits@D@std@@V?$allocator@D@2@@std@@PAVCGraphicImageInstance@@@std@@PAX@std@@@1@PAU?$_Tree_node@U?$pair@$$CBV?$basic_string@DU?$char_traits@D@std@@V?$allocator@D@2@@std@@PAVCGraphicImageInstance@@@std@@PAX@1@$$QAU?$pair@$$CBV?$basic_string@DU?$char_traits@D@std@@V?$allocator@D@2@@std@@PAVCGraphicImageInstance@@@1@@Z$0:
  00008	8b 4d f0	 mov	 ecx, DWORD PTR _this$[ebp]
  0000b	e9 00 00 00 00	 jmp	 ??1?$_Tree_temp_node_alloc@V?$allocator@U?$_Tree_node@U?$pair@$$CBV?$basic_string@DU?$char_traits@D@std@@V?$allocator@D@2@@std@@PAVCGraphicImageInstance@@@std@@PAX@std@@@std@@@std@@QAE@XZ
  00010	cc		 int	 3
  00011	cc		 int	 3
  00012	cc		 int	 3
  00013	cc		 int	 3
  00014	cc		 int	 3
__ehhandler$??$?0U?$pair@$$CBV?$basic_string@DU?$char_traits@D@std@@V?$allocator@D@2@@std@@PAVCGraphicImageInstance@@@std@@@?$_Tree_temp_node@V?$allocator@U?$_Tree_node@U?$pair@$$CBV?$basic_string@DU?$char_traits@D@std@@V?$allocator@D@2@@std@@PAVCGraphicImageInstance@@@std@@PAX@std@@@std@@@std@@QAE@AAV?$allocator@U?$_Tree_node@U?$pair@$$CBV?$basic_string@DU?$char_traits@D@std@@V?$allocator@D@2@@std@@PAVCGraphicImageInstance@@@std@@PAX@std@@@1@PAU?$_Tree_node@U?$pair@$$CBV?$basic_string@DU?$char_traits@D@std@@V?$allocator@D@2@@std@@PAVCGraphicImageInstance@@@std@@PAX@1@$$QAU?$pair@$$CBV?$basic_string@DU?$char_traits@D@std@@V?$allocator@D@2@@std@@PAVCGraphicImageInstance@@@1@@Z:
  00015	90		 npad	 1
  00016	90		 npad	 1
  00017	8b 54 24 08	 mov	 edx, DWORD PTR [esp+8]
  0001b	8d 42 0c	 lea	 eax, DWORD PTR [edx+12]
  0001e	8b 4a e0	 mov	 ecx, DWORD PTR [edx-32]
  00021	33 c8		 xor	 ecx, eax
  00023	e8 00 00 00 00	 call	 @__security_check_cookie@4
  00028	b8 00 00 00 00	 mov	 eax, OFFSET __ehfuncinfo$??$?0U?$pair@$$CBV?$basic_string@DU?$char_traits@D@std@@V?$allocator@D@2@@std@@PAVCGraphicImageInstance@@@std@@@?$_Tree_temp_node@V?$allocator@U?$_Tree_node@U?$pair@$$CBV?$basic_string@DU?$char_traits@D@std@@V?$allocator@D@2@@std@@PAVCGraphicImageInstance@@@std@@PAX@std@@@std@@@std@@QAE@AAV?$allocator@U?$_Tree_node@U?$pair@$$CBV?$basic_string@DU?$char_traits@D@std@@V?$allocator@D@2@@std@@PAVCGraphicImageInstance@@@std@@PAX@std@@@1@PAU?$_Tree_node@U?$pair@$$CBV?$basic_string@DU?$char_traits@D@std@@V?$allocator@D@2@@std@@PAVCGraphicImageInstance@@@std@@PAX@1@$$QAU?$pair@$$CBV?$basic_string@DU?$char_traits@D@std@@V?$allocator@D@2@@std@@PAVCGraphicImageInstance@@@1@@Z
  0002d	e9 00 00 00 00	 jmp	 ___CxxFrameHandler3
text$x	ENDS
??$?0U?$pair@$$CBV?$basic_string@DU?$char_traits@D@std@@V?$allocator@D@2@@std@@PAVCGraphicImageInstance@@@std@@@?$_Tree_temp_node@V?$allocator@U?$_Tree_node@U?$pair@$$CBV?$basic_string@DU?$char_traits@D@std@@V?$allocator@D@2@@std@@PAVCGraphicImageInstance@@@std@@PAX@std@@@std@@@std@@QAE@AAV?$allocator@U?$_Tree_node@U?$pair@$$CBV?$basic_string@DU?$char_traits@D@std@@V?$allocator@D@2@@std@@PAVCGraphicImageInstance@@@std@@PAX@std@@@1@PAU?$_Tree_node@U?$pair@$$CBV?$basic_string@DU?$char_traits@D@std@@V?$allocator@D@2@@std@@PAVCGraphicImageInstance@@@std@@PAX@1@$$QAU?$pair@$$CBV?$basic_string@DU?$char_traits@D@std@@V?$allocator@D@2@@std@@PAVCGraphicImageInstance@@@1@@Z ENDP ; std::_Tree_temp_node<std::allocator<std::_Tree_node<std::pair<std::basic_string<char,std::char_traits<char>,std::allocator<char> > const ,CGraphicImageInstance *>,void *> > >::_Tree_temp_node<std::allocator<std::_Tree_node<std::pair<std::basic_string<char,std::char_traits<char>,std::allocator<char> > const ,CGraphicImageInstance *>,void *> > ><std::pair<std::basic_string<char,std::char_traits<char>,std::allocator<char> > const ,CGraphicImageInstance *> >
; Function compile flags: /Odspy
; File C:\Program Files (x86)\Microsoft Visual Studio\2019\Community\VC\Tools\MSVC\14.28.29333\include\xmemory
;	COMDAT ??$_Uninitialized_value_construct_n@V?$allocator@VCSkyObjectQuad@@@std@@@std@@YAPAVCSkyObjectQuad@@PAV1@IAAV?$allocator@VCSkyObjectQuad@@@0@@Z
_TEXT	SEGMENT
__Backout$2 = -28					; size = 12
$T3 = -16						; size = 4
__$EHRec$ = -12						; size = 12
__First$ = 8						; size = 4
__Count$ = 12						; size = 4
__Al$ = 16						; size = 4
??$_Uninitialized_value_construct_n@V?$allocator@VCSkyObjectQuad@@@std@@@std@@YAPAVCSkyObjectQuad@@PAV1@IAAV?$allocator@VCSkyObjectQuad@@@0@@Z PROC ; std::_Uninitialized_value_construct_n<std::allocator<CSkyObjectQuad> >, COMDAT

; 1862 :     _Alloc_ptr_t<_Alloc> _First, _Alloc_size_t<_Alloc> _Count, _Alloc& _Al) {

  00000	55		 push	 ebp
  00001	8b ec		 mov	 ebp, esp
  00003	6a ff		 push	 -1
  00005	68 00 00 00 00	 push	 __ehhandler$??$_Uninitialized_value_construct_n@V?$allocator@VCSkyObjectQuad@@@std@@@std@@YAPAVCSkyObjectQuad@@PAV1@IAAV?$allocator@VCSkyObjectQuad@@@0@@Z
  0000a	64 a1 00 00 00
	00		 mov	 eax, DWORD PTR fs:0
  00010	50		 push	 eax
  00011	83 ec 10	 sub	 esp, 16			; 00000010H
  00014	a1 00 00 00 00	 mov	 eax, DWORD PTR ___security_cookie
  00019	33 c5		 xor	 eax, ebp
  0001b	50		 push	 eax
  0001c	8d 45 f4	 lea	 eax, DWORD PTR __$EHRec$[ebp]
  0001f	64 a3 00 00 00
	00		 mov	 DWORD PTR fs:0, eax

; 1535 :     _Uninitialized_backout_al(pointer _Dest, _Alloc& _Al_) : _First(_Dest), _Last(_Dest), _Al(_Al_) {}

  00025	8b 45 08	 mov	 eax, DWORD PTR __First$[ebp]
  00028	89 45 e4	 mov	 DWORD PTR __Backout$2[ebp], eax
  0002b	8b 45 08	 mov	 eax, DWORD PTR __First$[ebp]
  0002e	89 45 e8	 mov	 DWORD PTR __Backout$2[ebp+4], eax
  00031	8b 45 10	 mov	 eax, DWORD PTR __Al$[ebp]
  00034	89 45 ec	 mov	 DWORD PTR __Backout$2[ebp+8], eax

; 1863 :     // value-initialize _Count objects to raw _First, using _Al
; 1864 :     using _Ptrty = typename _Alloc::value_type*;
; 1865 :     if constexpr (_Use_memset_value_construct_v<_Ptrty> && _Uses_default_construct<_Alloc, _Ptrty>::value) {
; 1866 :         auto _PFirst = _Unfancy(_First);
; 1867 :         _Zero_range(_PFirst, _PFirst + _Count);
; 1868 :         return _First + _Count;
; 1869 :     } else {
; 1870 :         _Uninitialized_backout_al<_Alloc> _Backout{_First, _Al};

  00037	83 65 fc 00	 and	 DWORD PTR __$EHRec$[ebp+8], 0

; 1871 :         for (; 0 < _Count; --_Count) {

  0003b	eb 07		 jmp	 SHORT $LN4@Uninitiali
$LN2@Uninitiali:
  0003d	8b 45 0c	 mov	 eax, DWORD PTR __Count$[ebp]
  00040	48		 dec	 eax
  00041	89 45 0c	 mov	 DWORD PTR __Count$[ebp], eax
$LN4@Uninitiali:
  00044	83 7d 0c 00	 cmp	 DWORD PTR __Count$[ebp], 0
  00048	76 0a		 jbe	 SHORT $LN3@Uninitiali

; 1872 :             _Backout._Emplace_back();

  0004a	8d 4d e4	 lea	 ecx, DWORD PTR __Backout$2[ebp]
  0004d	e8 00 00 00 00	 call	 ??$_Emplace_back@$$V@?$_Uninitialized_backout_al@V?$allocator@VCSkyObjectQuad@@@std@@@std@@QAEXXZ ; std::_Uninitialized_backout_al<std::allocator<CSkyObjectQuad> >::_Emplace_back<>

; 1873 :         }

  00052	eb e9		 jmp	 SHORT $LN2@Uninitiali
$LN3@Uninitiali:

; 1551 :         _First = _Last;

  00054	8b 45 e8	 mov	 eax, DWORD PTR __Backout$2[ebp+4]
  00057	89 45 e4	 mov	 DWORD PTR __Backout$2[ebp], eax

; 1552 :         return _Last;

  0005a	8b 45 e8	 mov	 eax, DWORD PTR __Backout$2[ebp+4]
  0005d	89 45 f0	 mov	 DWORD PTR $T3[ebp], eax

; 1874 : 
; 1875 :         return _Backout._Release();

  00060	83 4d fc ff	 or	 DWORD PTR __$EHRec$[ebp+8], -1

; 1541 :         _Destroy_range(_First, _Last, _Al);

  00064	ff 75 ec	 push	 DWORD PTR __Backout$2[ebp+8]
  00067	ff 75 e8	 push	 DWORD PTR __Backout$2[ebp+4]
  0006a	ff 75 e4	 push	 DWORD PTR __Backout$2[ebp]
  0006d	e8 00 00 00 00	 call	 ??$_Destroy_range@V?$allocator@VCSkyObjectQuad@@@std@@@std@@YAXPAVCSkyObjectQuad@@QAV1@AAV?$allocator@VCSkyObjectQuad@@@0@@Z ; std::_Destroy_range<std::allocator<CSkyObjectQuad> >
  00072	83 c4 0c	 add	 esp, 12			; 0000000cH

; 1874 : 
; 1875 :         return _Backout._Release();

  00075	8b 45 f0	 mov	 eax, DWORD PTR $T3[ebp]

; 1876 :     }
; 1877 : }

  00078	8b 4d f4	 mov	 ecx, DWORD PTR __$EHRec$[ebp]
  0007b	64 89 0d 00 00
	00 00		 mov	 DWORD PTR fs:0, ecx
  00082	59		 pop	 ecx
  00083	c9		 leave
  00084	c3		 ret	 0
_TEXT	ENDS
;	COMDAT text$x
text$x	SEGMENT
__unwindfunclet$??$_Uninitialized_value_construct_n@V?$allocator@VCSkyObjectQuad@@@std@@@std@@YAPAVCSkyObjectQuad@@PAV1@IAAV?$allocator@VCSkyObjectQuad@@@0@@Z$0:
  00000	8d 4d e4	 lea	 ecx, DWORD PTR __Backout$2[ebp]
  00003	e9 00 00 00 00	 jmp	 ??1?$_Uninitialized_backout_al@V?$allocator@VCSkyObjectQuad@@@std@@@std@@QAE@XZ ; std::_Uninitialized_backout_al<std::allocator<CSkyObjectQuad> >::~_Uninitialized_backout_al<std::allocator<CSkyObjectQuad> >
  00008	cc		 int	 3
  00009	cc		 int	 3
  0000a	cc		 int	 3
  0000b	cc		 int	 3
  0000c	cc		 int	 3
__ehhandler$??$_Uninitialized_value_construct_n@V?$allocator@VCSkyObjectQuad@@@std@@@std@@YAPAVCSkyObjectQuad@@PAV1@IAAV?$allocator@VCSkyObjectQuad@@@0@@Z:
  0000d	90		 npad	 1
  0000e	90		 npad	 1
  0000f	8b 54 24 08	 mov	 edx, DWORD PTR [esp+8]
  00013	8d 42 0c	 lea	 eax, DWORD PTR [edx+12]
  00016	8b 4a ec	 mov	 ecx, DWORD PTR [edx-20]
  00019	33 c8		 xor	 ecx, eax
  0001b	e8 00 00 00 00	 call	 @__security_check_cookie@4
  00020	b8 00 00 00 00	 mov	 eax, OFFSET __ehfuncinfo$??$_Uninitialized_value_construct_n@V?$allocator@VCSkyObjectQuad@@@std@@@std@@YAPAVCSkyObjectQuad@@PAV1@IAAV?$allocator@VCSkyObjectQuad@@@0@@Z
  00025	e9 00 00 00 00	 jmp	 ___CxxFrameHandler3
text$x	ENDS
??$_Uninitialized_value_construct_n@V?$allocator@VCSkyObjectQuad@@@std@@@std@@YAPAVCSkyObjectQuad@@PAV1@IAAV?$allocator@VCSkyObjectQuad@@@0@@Z ENDP ; std::_Uninitialized_value_construct_n<std::allocator<CSkyObjectQuad> >
; Function compile flags: /Odspy
; File C:\Program Files (x86)\Microsoft Visual Studio\2019\Community\VC\Tools\MSVC\14.28.29333\include\xmemory
;	COMDAT ??$_Destroy_in_place@PAU?$_Tree_node@U?$pair@$$CBV?$basic_string@DU?$char_traits@D@std@@V?$allocator@D@2@@std@@PAVCGraphicImageInstance@@@std@@PAX@std@@@std@@YAXAAPAU?$_Tree_node@U?$pair@$$CBV?$basic_string@DU?$char_traits@D@std@@V?$allocator@D@2@@std@@PAVCGraphicImageInstance@@@std@@PAX@0@@Z
_TEXT	SEGMENT
__Obj$ = 8						; size = 4
??$_Destroy_in_place@PAU?$_Tree_node@U?$pair@$$CBV?$basic_string@DU?$char_traits@D@std@@V?$allocator@D@2@@std@@PAVCGraphicImageInstance@@@std@@PAX@std@@@std@@YAXAAPAU?$_Tree_node@U?$pair@$$CBV?$basic_string@DU?$char_traits@D@std@@V?$allocator@D@2@@std@@PAVCGraphicImageInstance@@@std@@PAX@0@@Z PROC ; std::_Destroy_in_place<std::_Tree_node<std::pair<std::basic_string<char,std::char_traits<char>,std::allocator<char> > const ,CGraphicImageInstance *>,void *> *>, COMDAT

; 270  : /* _CONSTEXPR20_DYNALLOC */ void _Destroy_in_place(_Ty& _Obj) noexcept {

  00000	55		 push	 ebp
  00001	8b ec		 mov	 ebp, esp

; 271  : #if _HAS_IF_CONSTEXPR
; 272  :     if constexpr (is_array_v<_Ty>) {
; 273  :         _Destroy_range(_Obj, _Obj + extent_v<_Ty>);
; 274  :     } else
; 275  : #endif // _HAS_IF_CONSTEXPR
; 276  :     {
; 277  :         _Obj.~_Ty();
; 278  :     }
; 279  : }

  00003	5d		 pop	 ebp
  00004	c3		 ret	 0
??$_Destroy_in_place@PAU?$_Tree_node@U?$pair@$$CBV?$basic_string@DU?$char_traits@D@std@@V?$allocator@D@2@@std@@PAVCGraphicImageInstance@@@std@@PAX@std@@@std@@YAXAAPAU?$_Tree_node@U?$pair@$$CBV?$basic_string@DU?$char_traits@D@std@@V?$allocator@D@2@@std@@PAVCGraphicImageInstance@@@std@@PAX@0@@Z ENDP ; std::_Destroy_in_place<std::_Tree_node<std::pair<std::basic_string<char,std::char_traits<char>,std::allocator<char> > const ,CGraphicImageInstance *>,void *> *>
_TEXT	ENDS
; Function compile flags: /Odspy
; File C:\Program Files (x86)\Microsoft Visual Studio\2019\Community\VC\Tools\MSVC\14.28.29333\include\xmemory
; File C:\Program Files (x86)\Microsoft Visual Studio\2019\Community\VC\Tools\MSVC\14.28.29333\include\xstddef
; File C:\Program Files (x86)\Microsoft Visual Studio\2019\Community\VC\Tools\MSVC\14.28.29333\include\vcruntime_new.h
; File C:\Program Files (x86)\Microsoft Visual Studio\2019\Community\VC\Tools\MSVC\14.28.29333\include\type_traits
; File C:\Program Files (x86)\Microsoft Visual Studio\2019\Community\VC\Tools\MSVC\14.28.29333\include\xmemory
;	COMDAT ??$_Construct_in_place@PAU?$_Tree_node@U?$pair@$$CBV?$basic_string@DU?$char_traits@D@std@@V?$allocator@D@2@@std@@PAVCGraphicImageInstance@@@std@@PAX@std@@ABQAU12@@std@@YAXAAPAU?$_Tree_node@U?$pair@$$CBV?$basic_string@DU?$char_traits@D@std@@V?$allocator@D@2@@std@@PAVCGraphicImageInstance@@@std@@PAX@0@ABQAU10@@Z
_TEXT	SEGMENT
$T1 = -12						; size = 4
$T2 = -8						; size = 4
$T3 = -4						; size = 4
__Obj$ = 8						; size = 4
_<_Args_0>$ = 12					; size = 4
??$_Construct_in_place@PAU?$_Tree_node@U?$pair@$$CBV?$basic_string@DU?$char_traits@D@std@@V?$allocator@D@2@@std@@PAVCGraphicImageInstance@@@std@@PAX@std@@ABQAU12@@std@@YAXAAPAU?$_Tree_node@U?$pair@$$CBV?$basic_string@DU?$char_traits@D@std@@V?$allocator@D@2@@std@@PAVCGraphicImageInstance@@@std@@PAX@0@ABQAU10@@Z PROC ; std::_Construct_in_place<std::_Tree_node<std::pair<std::basic_string<char,std::char_traits<char>,std::allocator<char> > const ,CGraphicImageInstance *>,void *> *,std::_Tree_node<std::pair<std::basic_string<char,std::char_traits<char>,std::allocator<char> > const ,CGraphicImageInstance *>,void *> * const &>, COMDAT

; 228  : void _Construct_in_place(_Ty& _Obj, _Types&&... _Args) noexcept(is_nothrow_constructible_v<_Ty, _Types...>) {

  00000	55		 push	 ebp
  00001	8b ec		 mov	 ebp, esp
  00003	83 ec 0c	 sub	 esp, 12			; 0000000cH
; File C:\Program Files (x86)\Microsoft Visual Studio\2019\Community\VC\Tools\MSVC\14.28.29333\include\xstddef

; 275  :     return __builtin_addressof(_Val);

  00006	8b 45 08	 mov	 eax, DWORD PTR __Obj$[ebp]
  00009	89 45 fc	 mov	 DWORD PTR $T3[ebp], eax
; File C:\Program Files (x86)\Microsoft Visual Studio\2019\Community\VC\Tools\MSVC\14.28.29333\include\vcruntime_new.h

; 169  :         return _Where;

  0000c	8b 45 fc	 mov	 eax, DWORD PTR $T3[ebp]
  0000f	89 45 f8	 mov	 DWORD PTR $T2[ebp], eax
; File C:\Program Files (x86)\Microsoft Visual Studio\2019\Community\VC\Tools\MSVC\14.28.29333\include\type_traits

; 1443 :     return static_cast<_Ty&&>(_Arg);

  00012	8b 45 0c	 mov	 eax, DWORD PTR _<_Args_0>$[ebp]
  00015	89 45 f4	 mov	 DWORD PTR $T1[ebp], eax
; File C:\Program Files (x86)\Microsoft Visual Studio\2019\Community\VC\Tools\MSVC\14.28.29333\include\xmemory

; 229  :     ::new (const_cast<void*>(static_cast<const volatile void*>(_STD addressof(_Obj))))

  00018	8b 45 f8	 mov	 eax, DWORD PTR $T2[ebp]
  0001b	8b 4d f4	 mov	 ecx, DWORD PTR $T1[ebp]
  0001e	8b 09		 mov	 ecx, DWORD PTR [ecx]
  00020	89 08		 mov	 DWORD PTR [eax], ecx

; 230  :         _Ty(_STD forward<_Types>(_Args)...);
; 231  : }

  00022	c9		 leave
  00023	c3		 ret	 0
??$_Construct_in_place@PAU?$_Tree_node@U?$pair@$$CBV?$basic_string@DU?$char_traits@D@std@@V?$allocator@D@2@@std@@PAVCGraphicImageInstance@@@std@@PAX@std@@ABQAU12@@std@@YAXAAPAU?$_Tree_node@U?$pair@$$CBV?$basic_string@DU?$char_traits@D@std@@V?$allocator@D@2@@std@@PAVCGraphicImageInstance@@@std@@PAX@0@ABQAU10@@Z ENDP ; std::_Construct_in_place<std::_Tree_node<std::pair<std::basic_string<char,std::char_traits<char>,std::allocator<char> > const ,CGraphicImageInstance *>,void *> *,std::_Tree_node<std::pair<std::basic_string<char,std::char_traits<char>,std::allocator<char> > const ,CGraphicImageInstance *>,void *> * const &>
_TEXT	ENDS
; Function compile flags: /Odspy
; File C:\Program Files (x86)\Microsoft Visual Studio\2019\Community\VC\Tools\MSVC\14.28.29333\include\vector
; File C:\Program Files (x86)\Microsoft Visual Studio\2019\Community\VC\Tools\MSVC\14.28.29333\include\xmemory
; File C:\Program Files (x86)\Microsoft Visual Studio\2019\Community\VC\Tools\MSVC\14.28.29333\include\vector
; File C:\Program Files (x86)\Microsoft Visual Studio\2019\Community\VC\Tools\MSVC\14.28.29333\include\xmemory
; File C:\Program Files (x86)\Microsoft Visual Studio\2019\Community\VC\Tools\MSVC\14.28.29333\include\limits
; File C:\Program Files (x86)\Microsoft Visual Studio\2019\Community\VC\Tools\MSVC\14.28.29333\include\vector
; File C:\Program Files (x86)\Microsoft Visual Studio\2019\Community\VC\Tools\MSVC\14.28.29333\include\utility
; File C:\Program Files (x86)\Microsoft Visual Studio\2019\Community\VC\Tools\MSVC\14.28.29333\include\vector
; File C:\Program Files (x86)\Microsoft Visual Studio\2019\Community\VC\Tools\MSVC\14.28.29333\include\xmemory
; File C:\Program Files (x86)\Microsoft Visual Studio\2019\Community\VC\Tools\MSVC\14.28.29333\include\vector
; File C:\Program Files (x86)\Microsoft Visual Studio\2019\Community\VC\Tools\MSVC\14.28.29333\include\xmemory
; File C:\Program Files (x86)\Microsoft Visual Studio\2019\Community\VC\Tools\MSVC\14.28.29333\include\vector
; File C:\Program Files (x86)\Microsoft Visual Studio\2019\Community\VC\Tools\MSVC\14.28.29333\include\xmemory
; File C:\Program Files (x86)\Microsoft Visual Studio\2019\Community\VC\Tools\MSVC\14.28.29333\include\vector
; File C:\Program Files (x86)\Microsoft Visual Studio\2019\Community\VC\Tools\MSVC\14.28.29333\include\xmemory
; File C:\Program Files (x86)\Microsoft Visual Studio\2019\Community\VC\Tools\MSVC\14.28.29333\include\vector
;	COMDAT ??$_Resize_reallocate@U_Value_init_tag@std@@@?$vector@VCSkyObjectQuad@@V?$allocator@VCSkyObjectQuad@@@std@@@std@@AAEXIABU_Value_init_tag@1@@Z
_TEXT	SEGMENT
__Max_possible$2 = -148					; size = 4
$T3 = -144						; size = 4
$T4 = -140						; size = 4
__First$ = -136						; size = 4
__Last$ = -132						; size = 4
$T5 = -128						; size = 4
$T6 = -124						; size = 4
tv244 = -120						; size = 4
$T7 = -116						; size = 4
$T8 = -112						; size = 4
$T9 = -108						; size = 4
$T10 = -104						; size = 4
$T11 = -100						; size = 4
$T12 = -96						; size = 4
$T13 = -92						; size = 4
$T14 = -88						; size = 4
$T15 = -84						; size = 4
__Appended_last$ = -80					; size = 4
__Myfirst$ = -76					; size = 4
__Mylast$ = -72						; size = 4
__Oldsize$ = -68					; size = 4
__My_data$ = -64					; size = 4
tv147 = -60						; size = 4
$T16 = -56						; size = 4
$T17 = -52						; size = 4
__Appended_first$ = -48					; size = 4
___formal$ = -44					; size = 1
___formal$ = -40					; size = 1
__Overflow_is_possible$18 = -33				; size = 1
__Newvec$ = -32						; size = 4
__Newcapacity$ = -28					; size = 4
$T19 = -21						; size = 1
_this$ = -20						; size = 4
__$EHRec$ = -16						; size = 16
__Newsize$ = 8						; size = 4
__Val$ = 12						; size = 4
??$_Resize_reallocate@U_Value_init_tag@std@@@?$vector@VCSkyObjectQuad@@V?$allocator@VCSkyObjectQuad@@@std@@@std@@AAEXIABU_Value_init_tag@1@@Z PROC ; std::vector<CSkyObjectQuad,std::allocator<CSkyObjectQuad> >::_Resize_reallocate<std::_Value_init_tag>, COMDAT
; _this$ = ecx

; 1182 :     void _Resize_reallocate(const size_type _Newsize, const _Ty2& _Val) {

  00000	55		 push	 ebp
  00001	8b ec		 mov	 ebp, esp
  00003	6a ff		 push	 -1
  00005	68 00 00 00 00	 push	 __ehhandler$??$_Resize_reallocate@U_Value_init_tag@std@@@?$vector@VCSkyObjectQuad@@V?$allocator@VCSkyObjectQuad@@@std@@@std@@AAEXIABU_Value_init_tag@1@@Z
  0000a	64 a1 00 00 00
	00		 mov	 eax, DWORD PTR fs:0
  00010	50		 push	 eax
  00011	51		 push	 ecx
  00012	81 ec 84 00 00
	00		 sub	 esp, 132		; 00000084H
  00018	53		 push	 ebx
  00019	56		 push	 esi
  0001a	57		 push	 edi
  0001b	a1 00 00 00 00	 mov	 eax, DWORD PTR ___security_cookie
  00020	33 c5		 xor	 eax, ebp
  00022	50		 push	 eax
  00023	8d 45 f4	 lea	 eax, DWORD PTR __$EHRec$[ebp+4]
  00026	64 a3 00 00 00
	00		 mov	 DWORD PTR fs:0, eax
  0002c	89 65 f0	 mov	 DWORD PTR __$EHRec$[ebp], esp
  0002f	89 4d ec	 mov	 DWORD PTR _this$[ebp], ecx

; 1737 :         return _Mypair._Get_first();

  00032	8b 45 ec	 mov	 eax, DWORD PTR _this$[ebp]
; File C:\Program Files (x86)\Microsoft Visual Studio\2019\Community\VC\Tools\MSVC\14.28.29333\include\xmemory

; 1351 :         return *this;

  00035	89 45 ac	 mov	 DWORD PTR $T15[ebp], eax
; File C:\Program Files (x86)\Microsoft Visual Studio\2019\Community\VC\Tools\MSVC\14.28.29333\include\vector

; 1737 :         return _Mypair._Get_first();

  00038	8b 45 ac	 mov	 eax, DWORD PTR $T15[ebp]
  0003b	89 85 74 ff ff
	ff		 mov	 DWORD PTR $T4[ebp], eax
; File C:\Program Files (x86)\Microsoft Visual Studio\2019\Community\VC\Tools\MSVC\14.28.29333\include\xmemory

; 710  :         return static_cast<size_t>(-1) / sizeof(value_type);

  00041	c7 45 cc 0d 74
	da 00		 mov	 DWORD PTR $T17[ebp], 14316557 ; 00da740dH
; File C:\Program Files (x86)\Microsoft Visual Studio\2019\Community\VC\Tools\MSVC\14.28.29333\include\limits

; 557  :         return INT_MAX;

  00048	c7 45 a8 ff ff
	ff 7f		 mov	 DWORD PTR $T14[ebp], 2147483647 ; 7fffffffH
; File C:\Program Files (x86)\Microsoft Visual Studio\2019\Community\VC\Tools\MSVC\14.28.29333\include\vector

; 1488 :         return (_STD min)(

  0004f	8b 45 a8	 mov	 eax, DWORD PTR $T14[ebp]
  00052	89 45 c8	 mov	 DWORD PTR $T16[ebp], eax
; File C:\Program Files (x86)\Microsoft Visual Studio\2019\Community\VC\Tools\MSVC\14.28.29333\include\utility

; 68   :     return _Right < _Left ? _Right : _Left;

  00055	8b 45 cc	 mov	 eax, DWORD PTR $T17[ebp]
  00058	3b 45 c8	 cmp	 eax, DWORD PTR $T16[ebp]
  0005b	73 08		 jae	 SHORT $LN26@Resize_rea
  0005d	8d 45 cc	 lea	 eax, DWORD PTR $T17[ebp]
  00060	89 45 c4	 mov	 DWORD PTR tv147[ebp], eax
  00063	eb 06		 jmp	 SHORT $LN27@Resize_rea
$LN26@Resize_rea:
  00065	8d 45 c8	 lea	 eax, DWORD PTR $T16[ebp]
  00068	89 45 c4	 mov	 DWORD PTR tv147[ebp], eax
$LN27@Resize_rea:
  0006b	8b 45 c4	 mov	 eax, DWORD PTR tv147[ebp]
  0006e	89 45 a4	 mov	 DWORD PTR $T13[ebp], eax
  00071	8b 45 a4	 mov	 eax, DWORD PTR $T13[ebp]
  00074	89 45 a0	 mov	 DWORD PTR $T12[ebp], eax
; File C:\Program Files (x86)\Microsoft Visual Studio\2019\Community\VC\Tools\MSVC\14.28.29333\include\vector

; 1488 :         return (_STD min)(

  00077	8b 45 a0	 mov	 eax, DWORD PTR $T12[ebp]
  0007a	8b 00		 mov	 eax, DWORD PTR [eax]
  0007c	89 45 9c	 mov	 DWORD PTR $T11[ebp], eax

; 1183 :         if (_Newsize > max_size()) {

  0007f	8b 45 08	 mov	 eax, DWORD PTR __Newsize$[ebp]
  00082	3b 45 9c	 cmp	 eax, DWORD PTR $T11[ebp]
  00085	76 05		 jbe	 SHORT $LN2@Resize_rea

; 1184 :             _Xlength();

  00087	e8 00 00 00 00	 call	 ?_Xlength@?$vector@VCSkyObjectQuad@@V?$allocator@VCSkyObjectQuad@@@std@@@std@@CAXXZ ; std::vector<CSkyObjectQuad,std::allocator<CSkyObjectQuad> >::_Xlength
$LN2@Resize_rea:

; 1185 :         }
; 1186 : 
; 1187 :         auto& _My_data    = _Mypair._Myval2;

  0008c	8b 45 ec	 mov	 eax, DWORD PTR _this$[ebp]
  0008f	89 45 c0	 mov	 DWORD PTR __My_data$[ebp], eax

; 1188 :         pointer& _Myfirst = _My_data._Myfirst;

  00092	8b 45 c0	 mov	 eax, DWORD PTR __My_data$[ebp]
  00095	89 45 b4	 mov	 DWORD PTR __Myfirst$[ebp], eax

; 1189 :         pointer& _Mylast  = _My_data._Mylast;

  00098	8b 45 c0	 mov	 eax, DWORD PTR __My_data$[ebp]
  0009b	83 c0 04	 add	 eax, 4
  0009e	89 45 b8	 mov	 DWORD PTR __Mylast$[ebp], eax

; 1190 : 
; 1191 :         const auto _Oldsize          = static_cast<size_type>(_Mylast - _Myfirst);

  000a1	8b 45 b8	 mov	 eax, DWORD PTR __Mylast$[ebp]
  000a4	8b 4d b4	 mov	 ecx, DWORD PTR __Myfirst$[ebp]
  000a7	8b 00		 mov	 eax, DWORD PTR [eax]
  000a9	2b 01		 sub	 eax, DWORD PTR [ecx]
  000ab	99		 cdq
  000ac	b9 2c 01 00 00	 mov	 ecx, 300		; 0000012cH
  000b1	f7 f9		 idiv	 ecx
  000b3	89 45 bc	 mov	 DWORD PTR __Oldsize$[ebp], eax

; 1192 :         const size_type _Newcapacity = _Calculate_growth(_Newsize);

  000b6	ff 75 08	 push	 DWORD PTR __Newsize$[ebp]
  000b9	8b 4d ec	 mov	 ecx, DWORD PTR _this$[ebp]
  000bc	e8 00 00 00 00	 call	 ?_Calculate_growth@?$vector@VCSkyObjectQuad@@V?$allocator@VCSkyObjectQuad@@@std@@@std@@ABEII@Z ; std::vector<CSkyObjectQuad,std::allocator<CSkyObjectQuad> >::_Calculate_growth
  000c1	89 45 e4	 mov	 DWORD PTR __Newcapacity$[ebp], eax

; 1733 :         return _Mypair._Get_first();

  000c4	8b 45 ec	 mov	 eax, DWORD PTR _this$[ebp]
; File C:\Program Files (x86)\Microsoft Visual Studio\2019\Community\VC\Tools\MSVC\14.28.29333\include\xmemory

; 1347 :         return *this;

  000c7	89 45 98	 mov	 DWORD PTR $T10[ebp], eax
; File C:\Program Files (x86)\Microsoft Visual Studio\2019\Community\VC\Tools\MSVC\14.28.29333\include\vector

; 1733 :         return _Mypair._Get_first();

  000ca	8b 45 98	 mov	 eax, DWORD PTR $T10[ebp]
  000cd	89 85 70 ff ff
	ff		 mov	 DWORD PTR $T3[ebp], eax
; File C:\Program Files (x86)\Microsoft Visual Studio\2019\Community\VC\Tools\MSVC\14.28.29333\include\xmemory

; 56   :     constexpr bool _Overflow_is_possible = _Ty_size > 1;

  000d3	c6 45 df 01	 mov	 BYTE PTR __Overflow_is_possible$18[ebp], 1

; 57   : 
; 58   :     if _CONSTEXPR_IF (_Overflow_is_possible) {
; 59   :         constexpr size_t _Max_possible = static_cast<size_t>(-1) / _Ty_size;

  000d7	c7 85 6c ff ff
	ff 0d 74 da 00	 mov	 DWORD PTR __Max_possible$2[ebp], 14316557 ; 00da740dH

; 60   :         if (_Count > _Max_possible) {

  000e1	81 7d e4 0d 74
	da 00		 cmp	 DWORD PTR __Newcapacity$[ebp], 14316557 ; 00da740dH
  000e8	76 05		 jbe	 SHORT $LN65@Resize_rea

; 61   :             _Throw_bad_array_new_length(); // multiply overflow

  000ea	e8 00 00 00 00	 call	 ?_Throw_bad_array_new_length@std@@YAXXZ ; std::_Throw_bad_array_new_length
$LN65@Resize_rea:

; 62   :         }
; 63   :     }
; 64   : 
; 65   :     return _Count * _Ty_size;

  000ef	69 45 e4 2c 01
	00 00		 imul	 eax, DWORD PTR __Newcapacity$[ebp], 300
  000f6	89 45 94	 mov	 DWORD PTR $T9[ebp], eax

; 814  :         return static_cast<_Ty*>(_Allocate<_New_alignof<_Ty>>(_Get_size_of_n<sizeof(_Ty)>(_Count)));

  000f9	ff 75 94	 push	 DWORD PTR $T9[ebp]
  000fc	e8 00 00 00 00	 call	 ??$_Allocate@$07U_Default_allocate_traits@std@@$0A@@std@@YAPAXI@Z ; std::_Allocate<8,std::_Default_allocate_traits,0>
  00101	59		 pop	 ecx
  00102	89 45 e0	 mov	 DWORD PTR __Newvec$[ebp], eax
; File C:\Program Files (x86)\Microsoft Visual Studio\2019\Community\VC\Tools\MSVC\14.28.29333\include\vector

; 1195 :         const pointer _Appended_first = _Newvec + _Oldsize;

  00105	69 45 bc 2c 01
	00 00		 imul	 eax, DWORD PTR __Oldsize$[ebp], 300
  0010c	03 45 e0	 add	 eax, DWORD PTR __Newvec$[ebp]
  0010f	89 45 d0	 mov	 DWORD PTR __Appended_first$[ebp], eax

; 1196 :         pointer _Appended_last        = _Appended_first;

  00112	8b 45 d0	 mov	 eax, DWORD PTR __Appended_first$[ebp]
  00115	89 45 b0	 mov	 DWORD PTR __Appended_last$[ebp], eax

; 1197 : 
; 1198 :         _TRY_BEGIN

  00118	83 65 fc 00	 and	 DWORD PTR __$EHRec$[ebp+12], 0

; 1199 :         _Appended_last = _Ufill(_Appended_first, _Newsize - _Oldsize, _Val);

  0011c	8b 45 0c	 mov	 eax, DWORD PTR __Val$[ebp]
  0011f	8a 00		 mov	 al, BYTE PTR [eax]
  00121	88 45 d8	 mov	 BYTE PTR ___formal$[ebp], al

; 1733 :         return _Mypair._Get_first();

  00124	8b 45 ec	 mov	 eax, DWORD PTR _this$[ebp]
; File C:\Program Files (x86)\Microsoft Visual Studio\2019\Community\VC\Tools\MSVC\14.28.29333\include\xmemory

; 1347 :         return *this;

  00127	89 45 90	 mov	 DWORD PTR $T8[ebp], eax
; File C:\Program Files (x86)\Microsoft Visual Studio\2019\Community\VC\Tools\MSVC\14.28.29333\include\vector

; 1733 :         return _Mypair._Get_first();

  0012a	8b 45 90	 mov	 eax, DWORD PTR $T8[ebp]
  0012d	89 45 8c	 mov	 DWORD PTR $T7[ebp], eax

; 1583 :         return _Uninitialized_value_construct_n(_Dest, _Count, _Getal());

  00130	ff 75 8c	 push	 DWORD PTR $T7[ebp]

; 1199 :         _Appended_last = _Ufill(_Appended_first, _Newsize - _Oldsize, _Val);

  00133	8b 45 08	 mov	 eax, DWORD PTR __Newsize$[ebp]
  00136	2b 45 bc	 sub	 eax, DWORD PTR __Oldsize$[ebp]

; 1583 :         return _Uninitialized_value_construct_n(_Dest, _Count, _Getal());

  00139	50		 push	 eax
  0013a	ff 75 d0	 push	 DWORD PTR __Appended_first$[ebp]
  0013d	e8 00 00 00 00	 call	 ??$_Uninitialized_value_construct_n@V?$allocator@VCSkyObjectQuad@@@std@@@std@@YAPAVCSkyObjectQuad@@PAV1@IAAV?$allocator@VCSkyObjectQuad@@@0@@Z ; std::_Uninitialized_value_construct_n<std::allocator<CSkyObjectQuad> >
  00142	83 c4 0c	 add	 esp, 12			; 0000000cH
  00145	89 45 88	 mov	 DWORD PTR tv244[ebp], eax

; 1199 :         _Appended_last = _Ufill(_Appended_first, _Newsize - _Oldsize, _Val);

  00148	8b 45 88	 mov	 eax, DWORD PTR tv244[ebp]
  0014b	89 45 b0	 mov	 DWORD PTR __Appended_last$[ebp], eax

; 1200 :         _Umove_if_noexcept(_Myfirst, _Mylast, _Newvec);

  0014e	8b 45 b8	 mov	 eax, DWORD PTR __Mylast$[ebp]
  00151	8b 00		 mov	 eax, DWORD PTR [eax]
  00153	89 85 7c ff ff
	ff		 mov	 DWORD PTR __Last$[ebp], eax
  00159	8b 45 b4	 mov	 eax, DWORD PTR __Myfirst$[ebp]
  0015c	8b 00		 mov	 eax, DWORD PTR [eax]
  0015e	89 85 78 ff ff
	ff		 mov	 DWORD PTR __First$[ebp], eax

; 1607 :         _Umove_if_noexcept1(_First, _Last, _Dest,

  00164	33 c0		 xor	 eax, eax
  00166	88 45 eb	 mov	 BYTE PTR $T19[ebp], al
  00169	8a 45 eb	 mov	 al, BYTE PTR $T19[ebp]
  0016c	88 45 d4	 mov	 BYTE PTR ___formal$[ebp], al

; 1733 :         return _Mypair._Get_first();

  0016f	8b 45 ec	 mov	 eax, DWORD PTR _this$[ebp]
; File C:\Program Files (x86)\Microsoft Visual Studio\2019\Community\VC\Tools\MSVC\14.28.29333\include\xmemory

; 1347 :         return *this;

  00172	89 45 84	 mov	 DWORD PTR $T6[ebp], eax
; File C:\Program Files (x86)\Microsoft Visual Studio\2019\Community\VC\Tools\MSVC\14.28.29333\include\vector

; 1733 :         return _Mypair._Get_first();

  00175	8b 45 84	 mov	 eax, DWORD PTR $T6[ebp]
  00178	89 45 80	 mov	 DWORD PTR $T5[ebp], eax

; 1597 :         _Uninitialized_move(_First, _Last, _Dest, _Getal());

  0017b	ff 75 80	 push	 DWORD PTR $T5[ebp]
  0017e	ff 75 e0	 push	 DWORD PTR __Newvec$[ebp]
  00181	ff b5 7c ff ff
	ff		 push	 DWORD PTR __Last$[ebp]
  00187	ff b5 78 ff ff
	ff		 push	 DWORD PTR __First$[ebp]
  0018d	e8 00 00 00 00	 call	 ??$_Uninitialized_move@PAVCSkyObjectQuad@@V?$allocator@VCSkyObjectQuad@@@std@@@std@@YAPAVCSkyObjectQuad@@QAV1@0PAV1@AAV?$allocator@VCSkyObjectQuad@@@0@@Z ; std::_Uninitialized_move<CSkyObjectQuad *,std::allocator<CSkyObjectQuad> >
  00192	83 c4 10	 add	 esp, 16			; 00000010H

; 1200 :         _Umove_if_noexcept(_Myfirst, _Mylast, _Newvec);

  00195	eb 32		 jmp	 SHORT $LN5@Resize_rea
__catch$??$_Resize_reallocate@U_Value_init_tag@std@@@?$vector@VCSkyObjectQuad@@V?$allocator@VCSkyObjectQuad@@@std@@@std@@AAEXIABU_Value_init_tag@1@@Z$0:

; 1201 :         _CATCH_ALL
; 1202 :         _Destroy(_Appended_first, _Appended_last);

  00197	ff 75 b0	 push	 DWORD PTR __Appended_last$[ebp]
  0019a	ff 75 d0	 push	 DWORD PTR __Appended_first$[ebp]
  0019d	8b 4d ec	 mov	 ecx, DWORD PTR _this$[ebp]
  001a0	e8 00 00 00 00	 call	 ?_Destroy@?$vector@VCSkyObjectQuad@@V?$allocator@VCSkyObjectQuad@@@std@@@std@@AAEXPAVCSkyObjectQuad@@0@Z ; std::vector<CSkyObjectQuad,std::allocator<CSkyObjectQuad> >::_Destroy

; 1203 :         _Getal().deallocate(_Newvec, _Newcapacity);

  001a5	ff 75 e4	 push	 DWORD PTR __Newcapacity$[ebp]
  001a8	ff 75 e0	 push	 DWORD PTR __Newvec$[ebp]
  001ab	8b 4d ec	 mov	 ecx, DWORD PTR _this$[ebp]
  001ae	e8 00 00 00 00	 call	 ?_Getal@?$vector@VCSkyObjectQuad@@V?$allocator@VCSkyObjectQuad@@@std@@@std@@AAEAAV?$allocator@VCSkyObjectQuad@@@2@XZ ; std::vector<CSkyObjectQuad,std::allocator<CSkyObjectQuad> >::_Getal
  001b3	8b c8		 mov	 ecx, eax
  001b5	e8 00 00 00 00	 call	 ?deallocate@?$allocator@VCSkyObjectQuad@@@std@@QAEXQAVCSkyObjectQuad@@I@Z ; std::allocator<CSkyObjectQuad>::deallocate

; 1204 :         _RERAISE;

  001ba	6a 00		 push	 0
  001bc	6a 00		 push	 0
  001be	e8 00 00 00 00	 call	 __CxxThrowException@8

; 1205 :         _CATCH_END

  001c3	b8 00 00 00 00	 mov	 eax, $LN8@Resize_rea
  001c8	c3		 ret	 0
$LN5@Resize_rea:
  001c9	83 4d fc ff	 or	 DWORD PTR __$EHRec$[ebp+12], -1
  001cd	eb 04		 jmp	 SHORT __tryend$??$_Resize_reallocate@U_Value_init_tag@std@@@?$vector@VCSkyObjectQuad@@V?$allocator@VCSkyObjectQuad@@@std@@@std@@AAEXIABU_Value_init_tag@1@@Z$1
$LN8@Resize_rea:
; File C:\Program Files (x86)\Microsoft Visual Studio\2019\Community\VC\Tools\MSVC\14.28.29333\include\xmemory
  001cf	83 4d fc ff	 or	 DWORD PTR __$EHRec$[ebp+12], -1
__tryend$??$_Resize_reallocate@U_Value_init_tag@std@@@?$vector@VCSkyObjectQuad@@V?$allocator@VCSkyObjectQuad@@@std@@@std@@AAEXIABU_Value_init_tag@1@@Z$1:
; File C:\Program Files (x86)\Microsoft Visual Studio\2019\Community\VC\Tools\MSVC\14.28.29333\include\vector

; 1206 : 
; 1207 :         _Change_array(_Newvec, _Newsize, _Newcapacity);

  001d3	ff 75 e4	 push	 DWORD PTR __Newcapacity$[ebp]
  001d6	ff 75 08	 push	 DWORD PTR __Newsize$[ebp]
  001d9	ff 75 e0	 push	 DWORD PTR __Newvec$[ebp]
  001dc	8b 4d ec	 mov	 ecx, DWORD PTR _this$[ebp]
  001df	e8 00 00 00 00	 call	 ?_Change_array@?$vector@VCSkyObjectQuad@@V?$allocator@VCSkyObjectQuad@@@std@@@std@@AAEXQAVCSkyObjectQuad@@II@Z ; std::vector<CSkyObjectQuad,std::allocator<CSkyObjectQuad> >::_Change_array
$LN68@Resize_rea:

; 1208 :     }

  001e4	8b 4d f4	 mov	 ecx, DWORD PTR __$EHRec$[ebp+4]
  001e7	64 89 0d 00 00
	00 00		 mov	 DWORD PTR fs:0, ecx
  001ee	59		 pop	 ecx
  001ef	5f		 pop	 edi
  001f0	5e		 pop	 esi
  001f1	5b		 pop	 ebx
  001f2	c9		 leave
  001f3	c2 08 00	 ret	 8
  001f6	cc		 int	 3
  001f7	cc		 int	 3
  001f8	cc		 int	 3
  001f9	cc		 int	 3
  001fa	cc		 int	 3
_TEXT	ENDS
;	COMDAT text$x
text$x	SEGMENT
__ehhandler$??$_Resize_reallocate@U_Value_init_tag@std@@@?$vector@VCSkyObjectQuad@@V?$allocator@VCSkyObjectQuad@@@std@@@std@@AAEXIABU_Value_init_tag@1@@Z:
  00000	90		 npad	 1
  00001	90		 npad	 1
  00002	8b 54 24 08	 mov	 edx, DWORD PTR [esp+8]
  00006	8d 42 0c	 lea	 eax, DWORD PTR [edx+12]
  00009	8b 8a 68 ff ff
	ff		 mov	 ecx, DWORD PTR [edx-152]
  0000f	33 c8		 xor	 ecx, eax
  00011	e8 00 00 00 00	 call	 @__security_check_cookie@4
  00016	b8 00 00 00 00	 mov	 eax, OFFSET __ehfuncinfo$??$_Resize_reallocate@U_Value_init_tag@std@@@?$vector@VCSkyObjectQuad@@V?$allocator@VCSkyObjectQuad@@@std@@@std@@AAEXIABU_Value_init_tag@1@@Z
  0001b	e9 00 00 00 00	 jmp	 ___CxxFrameHandler3
text$x	ENDS
??$_Resize_reallocate@U_Value_init_tag@std@@@?$vector@VCSkyObjectQuad@@V?$allocator@VCSkyObjectQuad@@@std@@@std@@AAEXIABU_Value_init_tag@1@@Z ENDP ; std::vector<CSkyObjectQuad,std::allocator<CSkyObjectQuad> >::_Resize_reallocate<std::_Value_init_tag>
; Function compile flags: /Odspy
; File C:\Program Files (x86)\Microsoft Visual Studio\2019\Community\VC\Tools\MSVC\14.28.29333\include\xtree
; File C:\Program Files (x86)\Microsoft Visual Studio\2019\Community\VC\Tools\MSVC\14.28.29333\include\xmemory
; File C:\Program Files (x86)\Microsoft Visual Studio\2019\Community\VC\Tools\MSVC\14.28.29333\include\xtree
;	COMDAT ??$_Freenode0@V?$allocator@U?$_Tree_node@U?$pair@$$CBV?$basic_string@DU?$char_traits@D@std@@V?$allocator@D@2@@std@@PAVCGraphicImageInstance@@@std@@PAX@std@@@std@@@?$_Tree_node@U?$pair@$$CBV?$basic_string@DU?$char_traits@D@std@@V?$allocator@D@2@@std@@PAVCGraphicImageInstance@@@std@@PAX@std@@SAXAAV?$allocator@U?$_Tree_node@U?$pair@$$CBV?$basic_string@DU?$char_traits@D@std@@V?$allocator@D@2@@std@@PAVCGraphicImageInstance@@@std@@PAX@std@@@1@PAU01@@Z
_TEXT	SEGMENT
__Al$ = 8						; size = 4
__Ptr$ = 12						; size = 4
??$_Freenode0@V?$allocator@U?$_Tree_node@U?$pair@$$CBV?$basic_string@DU?$char_traits@D@std@@V?$allocator@D@2@@std@@PAVCGraphicImageInstance@@@std@@PAX@std@@@std@@@?$_Tree_node@U?$pair@$$CBV?$basic_string@DU?$char_traits@D@std@@V?$allocator@D@2@@std@@PAVCGraphicImageInstance@@@std@@PAX@std@@SAXAAV?$allocator@U?$_Tree_node@U?$pair@$$CBV?$basic_string@DU?$char_traits@D@std@@V?$allocator@D@2@@std@@PAVCGraphicImageInstance@@@std@@PAX@std@@@1@PAU01@@Z PROC ; std::_Tree_node<std::pair<std::basic_string<char,std::char_traits<char>,std::allocator<char> > const ,CGraphicImageInstance *>,void *>::_Freenode0<std::allocator<std::_Tree_node<std::pair<std::basic_string<char,std::char_traits<char>,std::allocator<char> > const ,CGraphicImageInstance *>,void *> > >, COMDAT

; 368  :     static void _Freenode0(_Alloc& _Al, _Nodeptr _Ptr) noexcept {

  00000	55		 push	 ebp
  00001	8b ec		 mov	 ebp, esp

; 369  :         static_assert(is_same_v<typename _Alloc::value_type, _Tree_node>, "Bad _Freenode0 call");
; 370  :         _Destroy_in_place(_Ptr->_Left);

  00003	ff 75 0c	 push	 DWORD PTR __Ptr$[ebp]
  00006	e8 00 00 00 00	 call	 ??$_Destroy_in_place@PAU?$_Tree_node@U?$pair@$$CBV?$basic_string@DU?$char_traits@D@std@@V?$allocator@D@2@@std@@PAVCGraphicImageInstance@@@std@@PAX@std@@@std@@YAXAAPAU?$_Tree_node@U?$pair@$$CBV?$basic_string@DU?$char_traits@D@std@@V?$allocator@D@2@@std@@PAVCGraphicImageInstance@@@std@@PAX@0@@Z ; std::_Destroy_in_place<std::_Tree_node<std::pair<std::basic_string<char,std::char_traits<char>,std::allocator<char> > const ,CGraphicImageInstance *>,void *> *>
  0000b	59		 pop	 ecx

; 371  :         _Destroy_in_place(_Ptr->_Parent);

  0000c	8b 45 0c	 mov	 eax, DWORD PTR __Ptr$[ebp]
  0000f	83 c0 04	 add	 eax, 4
  00012	50		 push	 eax
  00013	e8 00 00 00 00	 call	 ??$_Destroy_in_place@PAU?$_Tree_node@U?$pair@$$CBV?$basic_string@DU?$char_traits@D@std@@V?$allocator@D@2@@std@@PAVCGraphicImageInstance@@@std@@PAX@std@@@std@@YAXAAPAU?$_Tree_node@U?$pair@$$CBV?$basic_string@DU?$char_traits@D@std@@V?$allocator@D@2@@std@@PAVCGraphicImageInstance@@@std@@PAX@0@@Z ; std::_Destroy_in_place<std::_Tree_node<std::pair<std::basic_string<char,std::char_traits<char>,std::allocator<char> > const ,CGraphicImageInstance *>,void *> *>
  00018	59		 pop	 ecx

; 372  :         _Destroy_in_place(_Ptr->_Right);

  00019	8b 45 0c	 mov	 eax, DWORD PTR __Ptr$[ebp]
  0001c	83 c0 08	 add	 eax, 8
  0001f	50		 push	 eax
  00020	e8 00 00 00 00	 call	 ??$_Destroy_in_place@PAU?$_Tree_node@U?$pair@$$CBV?$basic_string@DU?$char_traits@D@std@@V?$allocator@D@2@@std@@PAVCGraphicImageInstance@@@std@@PAX@std@@@std@@YAXAAPAU?$_Tree_node@U?$pair@$$CBV?$basic_string@DU?$char_traits@D@std@@V?$allocator@D@2@@std@@PAVCGraphicImageInstance@@@std@@PAX@0@@Z ; std::_Destroy_in_place<std::_Tree_node<std::pair<std::basic_string<char,std::char_traits<char>,std::allocator<char> > const ,CGraphicImageInstance *>,void *> *>
  00025	59		 pop	 ecx
; File C:\Program Files (x86)\Microsoft Visual Studio\2019\Community\VC\Tools\MSVC\14.28.29333\include\xmemory

; 696  :         _Deallocate<_New_alignof<value_type>>(_Ptr, sizeof(value_type) * _Count);

  00026	33 c0		 xor	 eax, eax
  00028	40		 inc	 eax
  00029	6b c0 2c	 imul	 eax, eax, 44
  0002c	50		 push	 eax
  0002d	ff 75 0c	 push	 DWORD PTR __Ptr$[ebp]
  00030	e8 00 00 00 00	 call	 ??$_Deallocate@$07$0A@@std@@YAXPAXI@Z ; std::_Deallocate<8,0>
  00035	59		 pop	 ecx
  00036	59		 pop	 ecx
; File C:\Program Files (x86)\Microsoft Visual Studio\2019\Community\VC\Tools\MSVC\14.28.29333\include\xtree

; 374  :     }

  00037	5d		 pop	 ebp
  00038	c3		 ret	 0
??$_Freenode0@V?$allocator@U?$_Tree_node@U?$pair@$$CBV?$basic_string@DU?$char_traits@D@std@@V?$allocator@D@2@@std@@PAVCGraphicImageInstance@@@std@@PAX@std@@@std@@@?$_Tree_node@U?$pair@$$CBV?$basic_string@DU?$char_traits@D@std@@V?$allocator@D@2@@std@@PAVCGraphicImageInstance@@@std@@PAX@std@@SAXAAV?$allocator@U?$_Tree_node@U?$pair@$$CBV?$basic_string@DU?$char_traits@D@std@@V?$allocator@D@2@@std@@PAVCGraphicImageInstance@@@std@@PAX@std@@@1@PAU01@@Z ENDP ; std::_Tree_node<std::pair<std::basic_string<char,std::char_traits<char>,std::allocator<char> > const ,CGraphicImageInstance *>,void *>::_Freenode0<std::allocator<std::_Tree_node<std::pair<std::basic_string<char,std::char_traits<char>,std::allocator<char> > const ,CGraphicImageInstance *>,void *> > >
_TEXT	ENDS
; Function compile flags: /Odspy
; File C:\Program Files (x86)\Microsoft Visual Studio\2019\Community\VC\Tools\MSVC\14.28.29333\include\xtree
; File C:\Program Files (x86)\Microsoft Visual Studio\2019\Community\VC\Tools\MSVC\14.28.29333\include\xstddef
; File C:\Program Files (x86)\Microsoft Visual Studio\2019\Community\VC\Tools\MSVC\14.28.29333\include\xstring
; File C:\Program Files (x86)\Microsoft Visual Studio\2019\Community\VC\Tools\MSVC\14.28.29333\include\xtree
;	COMDAT ??$_Freenode@V?$allocator@U?$_Tree_node@U?$pair@$$CBV?$basic_string@DU?$char_traits@D@std@@V?$allocator@D@2@@std@@PAVCGraphicImageInstance@@@std@@PAX@std@@@std@@@?$_Tree_node@U?$pair@$$CBV?$basic_string@DU?$char_traits@D@std@@V?$allocator@D@2@@std@@PAVCGraphicImageInstance@@@std@@PAX@std@@SAXAAV?$allocator@U?$_Tree_node@U?$pair@$$CBV?$basic_string@DU?$char_traits@D@std@@V?$allocator@D@2@@std@@PAVCGraphicImageInstance@@@std@@PAX@std@@@1@PAU01@@Z
_TEXT	SEGMENT
$T1 = -4						; size = 4
__Al$ = 8						; size = 4
__Ptr$ = 12						; size = 4
??$_Freenode@V?$allocator@U?$_Tree_node@U?$pair@$$CBV?$basic_string@DU?$char_traits@D@std@@V?$allocator@D@2@@std@@PAVCGraphicImageInstance@@@std@@PAX@std@@@std@@@?$_Tree_node@U?$pair@$$CBV?$basic_string@DU?$char_traits@D@std@@V?$allocator@D@2@@std@@PAVCGraphicImageInstance@@@std@@PAX@std@@SAXAAV?$allocator@U?$_Tree_node@U?$pair@$$CBV?$basic_string@DU?$char_traits@D@std@@V?$allocator@D@2@@std@@PAVCGraphicImageInstance@@@std@@PAX@std@@@1@PAU01@@Z PROC ; std::_Tree_node<std::pair<std::basic_string<char,std::char_traits<char>,std::allocator<char> > const ,CGraphicImageInstance *>,void *>::_Freenode<std::allocator<std::_Tree_node<std::pair<std::basic_string<char,std::char_traits<char>,std::allocator<char> > const ,CGraphicImageInstance *>,void *> > >, COMDAT

; 377  :     static void _Freenode(_Alloc& _Al, _Nodeptr _Ptr) noexcept {

  00000	55		 push	 ebp
  00001	8b ec		 mov	 ebp, esp
  00003	51		 push	 ecx

; 378  :         static_assert(is_same_v<typename _Alloc::value_type, _Tree_node>, "Bad _Freenode call");
; 379  :         allocator_traits<_Alloc>::destroy(_Al, _STD addressof(_Ptr->_Myval));

  00004	8b 45 0c	 mov	 eax, DWORD PTR __Ptr$[ebp]
  00007	83 c0 10	 add	 eax, 16			; 00000010H
; File C:\Program Files (x86)\Microsoft Visual Studio\2019\Community\VC\Tools\MSVC\14.28.29333\include\xstddef

; 275  :     return __builtin_addressof(_Val);

  0000a	89 45 fc	 mov	 DWORD PTR $T1[ebp], eax
; File C:\Program Files (x86)\Microsoft Visual Studio\2019\Community\VC\Tools\MSVC\14.28.29333\include\xstring

; 2801 :         _Tidy_deallocate();

  0000d	8b 4d fc	 mov	 ecx, DWORD PTR $T1[ebp]
  00010	e8 00 00 00 00	 call	 ?_Tidy_deallocate@?$basic_string@DU?$char_traits@D@std@@V?$allocator@D@2@@std@@AAEXXZ ; std::basic_string<char,std::char_traits<char>,std::allocator<char> >::_Tidy_deallocate
  00015	33 c0		 xor	 eax, eax
  00017	83 e0 01	 and	 eax, 1
  0001a	74 0c		 je	 SHORT $LN6@Freenode
  0001c	6a 1c		 push	 28			; 0000001cH
  0001e	ff 75 fc	 push	 DWORD PTR $T1[ebp]
  00021	e8 00 00 00 00	 call	 ??3@YAXPAXI@Z		; operator delete
  00026	59		 pop	 ecx
  00027	59		 pop	 ecx
$LN6@Freenode:
; File C:\Program Files (x86)\Microsoft Visual Studio\2019\Community\VC\Tools\MSVC\14.28.29333\include\xtree

; 380  :         _Freenode0(_Al, _Ptr);

  00028	ff 75 0c	 push	 DWORD PTR __Ptr$[ebp]
  0002b	ff 75 08	 push	 DWORD PTR __Al$[ebp]
  0002e	e8 00 00 00 00	 call	 ??$_Freenode0@V?$allocator@U?$_Tree_node@U?$pair@$$CBV?$basic_string@DU?$char_traits@D@std@@V?$allocator@D@2@@std@@PAVCGraphicImageInstance@@@std@@PAX@std@@@std@@@?$_Tree_node@U?$pair@$$CBV?$basic_string@DU?$char_traits@D@std@@V?$allocator@D@2@@std@@PAVCGraphicImageInstance@@@std@@PAX@std@@SAXAAV?$allocator@U?$_Tree_node@U?$pair@$$CBV?$basic_string@DU?$char_traits@D@std@@V?$allocator@D@2@@std@@PAVCGraphicImageInstance@@@std@@PAX@std@@@1@PAU01@@Z ; std::_Tree_node<std::pair<std::basic_string<char,std::char_traits<char>,std::allocator<char> > const ,CGraphicImageInstance *>,void *>::_Freenode0<std::allocator<std::_Tree_node<std::pair<std::basic_string<char,std::char_traits<char>,std::allocator<char> > const ,CGraphicImageInstance *>,void *> > >
  00033	59		 pop	 ecx
  00034	59		 pop	 ecx

; 381  :     }

  00035	c9		 leave
  00036	c3		 ret	 0
??$_Freenode@V?$allocator@U?$_Tree_node@U?$pair@$$CBV?$basic_string@DU?$char_traits@D@std@@V?$allocator@D@2@@std@@PAVCGraphicImageInstance@@@std@@PAX@std@@@std@@@?$_Tree_node@U?$pair@$$CBV?$basic_string@DU?$char_traits@D@std@@V?$allocator@D@2@@std@@PAVCGraphicImageInstance@@@std@@PAX@std@@SAXAAV?$allocator@U?$_Tree_node@U?$pair@$$CBV?$basic_string@DU?$char_traits@D@std@@V?$allocator@D@2@@std@@PAVCGraphicImageInstance@@@std@@PAX@std@@@1@PAU01@@Z ENDP ; std::_Tree_node<std::pair<std::basic_string<char,std::char_traits<char>,std::allocator<char> > const ,CGraphicImageInstance *>,void *>::_Freenode<std::allocator<std::_Tree_node<std::pair<std::basic_string<char,std::char_traits<char>,std::allocator<char> > const ,CGraphicImageInstance *>,void *> > >
_TEXT	ENDS
; Function compile flags: /Odspy
; File C:\Program Files (x86)\Microsoft Visual Studio\2019\Community\VC\Tools\MSVC\14.28.29333\include\xtree
; File C:\Program Files (x86)\Microsoft Visual Studio\2019\Community\VC\Tools\MSVC\14.28.29333\include\xmemory
; File C:\Program Files (x86)\Microsoft Visual Studio\2019\Community\VC\Tools\MSVC\14.28.29333\include\xtree
; File C:\Program Files (x86)\Microsoft Visual Studio\2019\Community\VC\Tools\MSVC\14.28.29333\include\type_traits
; File C:\Program Files (x86)\Microsoft Visual Studio\2019\Community\VC\Tools\MSVC\14.28.29333\include\xtree
; File C:\Program Files (x86)\Microsoft Visual Studio\2019\Community\VC\Tools\MSVC\14.28.29333\include\xstddef
; File C:\Program Files (x86)\Microsoft Visual Studio\2019\Community\VC\Tools\MSVC\14.28.29333\include\xtree
;	COMDAT ??$?0ABUpiecewise_construct_t@std@@V?$tuple@ABV?$basic_string@DU?$char_traits@D@std@@V?$allocator@D@2@@std@@@1@V?$tuple@$$V@1@@?$_Tree_temp_node@V?$allocator@U?$_Tree_node@U?$pair@$$CBV?$basic_string@DU?$char_traits@D@std@@V?$allocator@D@2@@std@@PAVCGraphicImageInstance@@@std@@PAX@std@@@std@@@std@@QAE@AAV?$allocator@U?$_Tree_node@U?$pair@$$CBV?$basic_string@DU?$char_traits@D@std@@V?$allocator@D@2@@std@@PAVCGraphicImageInstance@@@std@@PAX@std@@@1@PAU?$_Tree_node@U?$pair@$$CBV?$basic_string@DU?$char_traits@D@std@@V?$allocator@D@2@@std@@PAVCGraphicImageInstance@@@std@@PAX@1@ABUpiecewise_construct_t@1@$$QAV?$tuple@ABV?$basic_string@DU?$char_traits@D@std@@V?$allocator@D@2@@std@@@1@$$QAV?$tuple@$$V@1@@Z
_TEXT	SEGMENT
$T2 = -36						; size = 4
$T3 = -32						; size = 4
$T4 = -28						; size = 4
$T5 = -24						; size = 4
__Val$ = -20						; size = 4
_this$ = -16						; size = 4
__$EHRec$ = -12						; size = 12
__Al_$ = 8						; size = 4
__Myhead$ = 12						; size = 4
_<_Vals_0>$ = 16					; size = 4
_<_Vals_1>$ = 20					; size = 4
_<_Vals_2>$ = 24					; size = 4
??$?0ABUpiecewise_construct_t@std@@V?$tuple@ABV?$basic_string@DU?$char_traits@D@std@@V?$allocator@D@2@@std@@@1@V?$tuple@$$V@1@@?$_Tree_temp_node@V?$allocator@U?$_Tree_node@U?$pair@$$CBV?$basic_string@DU?$char_traits@D@std@@V?$allocator@D@2@@std@@PAVCGraphicImageInstance@@@std@@PAX@std@@@std@@@std@@QAE@AAV?$allocator@U?$_Tree_node@U?$pair@$$CBV?$basic_string@DU?$char_traits@D@std@@V?$allocator@D@2@@std@@PAVCGraphicImageInstance@@@std@@PAX@std@@@1@PAU?$_Tree_node@U?$pair@$$CBV?$basic_string@DU?$char_traits@D@std@@V?$allocator@D@2@@std@@PAVCGraphicImageInstance@@@std@@PAX@1@ABUpiecewise_construct_t@1@$$QAV?$tuple@ABV?$basic_string@DU?$char_traits@D@std@@V?$allocator@D@2@@std@@@1@$$QAV?$tuple@$$V@1@@Z PROC ; std::_Tree_temp_node<std::allocator<std::_Tree_node<std::pair<std::basic_string<char,std::char_traits<char>,std::allocator<char> > const ,CGraphicImageInstance *>,void *> > >::_Tree_temp_node<std::allocator<std::_Tree_node<std::pair<std::basic_string<char,std::char_traits<char>,std::allocator<char> > const ,CGraphicImageInstance *>,void *> > ><std::piecewise_construct_t const &,std::tuple<std::basic_string<char,std::char_traits<char>,std::allocator<char> > const &>,std::tuple<> >, COMDAT
; _this$ = ecx

; 805  :         : _Tree_temp_node_alloc<_Alnode>(_Al_) {

  00000	55		 push	 ebp
  00001	8b ec		 mov	 ebp, esp
  00003	6a ff		 push	 -1
  00005	68 00 00 00 00	 push	 __ehhandler$??$?0ABUpiecewise_construct_t@std@@V?$tuple@ABV?$basic_string@DU?$char_traits@D@std@@V?$allocator@D@2@@std@@@1@V?$tuple@$$V@1@@?$_Tree_temp_node@V?$allocator@U?$_Tree_node@U?$pair@$$CBV?$basic_string@DU?$char_traits@D@std@@V?$allocator@D@2@@std@@PAVCGraphicImageInstance@@@std@@PAX@std@@@std@@@std@@QAE@AAV?$allocator@U?$_Tree_node@U?$pair@$$CBV?$basic_string@DU?$char_traits@D@std@@V?$allocator@D@2@@std@@PAVCGraphicImageInstance@@@std@@PAX@std@@@1@PAU?$_Tree_node@U?$pair@$$CBV?$basic_string@DU?$char_traits@D@std@@V?$allocator@D@2@@std@@PAVCGraphicImageInstance@@@std@@PAX@1@ABUpiecewise_construct_t@1@$$QAV?$tuple@ABV?$basic_string@DU?$char_traits@D@std@@V?$allocator@D@2@@std@@@1@$$QAV?$tuple@$$V@1@@Z
  0000a	64 a1 00 00 00
	00		 mov	 eax, DWORD PTR fs:0
  00010	50		 push	 eax
  00011	83 ec 18	 sub	 esp, 24			; 00000018H
  00014	a1 00 00 00 00	 mov	 eax, DWORD PTR ___security_cookie
  00019	33 c5		 xor	 eax, ebp
  0001b	50		 push	 eax
  0001c	8d 45 f4	 lea	 eax, DWORD PTR __$EHRec$[ebp]
  0001f	64 a3 00 00 00
	00		 mov	 DWORD PTR fs:0, eax
  00025	89 4d f0	 mov	 DWORD PTR _this$[ebp], ecx
; File C:\Program Files (x86)\Microsoft Visual Studio\2019\Community\VC\Tools\MSVC\14.28.29333\include\xmemory

; 1045 :     explicit _Alloc_construct_ptr(_Alloc& _Al_) : _Al(_Al_), _Ptr(nullptr) {}

  00028	8b 45 f0	 mov	 eax, DWORD PTR _this$[ebp]
  0002b	8b 4d 08	 mov	 ecx, DWORD PTR __Al_$[ebp]
  0002e	89 08		 mov	 DWORD PTR [eax], ecx
  00030	8b 45 f0	 mov	 eax, DWORD PTR _this$[ebp]
  00033	83 60 04 00	 and	 DWORD PTR [eax+4], 0
; File C:\Program Files (x86)\Microsoft Visual Studio\2019\Community\VC\Tools\MSVC\14.28.29333\include\xtree

; 784  :     explicit _Tree_temp_node_alloc(_Alnode& _Al_) : _Alloc_construct_ptr<_Alnode>(_Al_) {

  00037	83 65 fc 00	 and	 DWORD PTR __$EHRec$[ebp+8], 0

; 785  :         _Alloc_construct_ptr<_Alnode>::_Allocate();

  0003b	8b 4d f0	 mov	 ecx, DWORD PTR _this$[ebp]
  0003e	e8 00 00 00 00	 call	 ?_Allocate@?$_Alloc_construct_ptr@V?$allocator@U?$_Tree_node@U?$pair@$$CBV?$basic_string@DU?$char_traits@D@std@@V?$allocator@D@2@@std@@PAVCGraphicImageInstance@@@std@@PAX@std@@@std@@@std@@QAEXXZ ; std::_Alloc_construct_ptr<std::allocator<std::_Tree_node<std::pair<std::basic_string<char,std::char_traits<char>,std::allocator<char> > const ,CGraphicImageInstance *>,void *> > >::_Allocate

; 805  :         : _Tree_temp_node_alloc<_Alnode>(_Al_) {

  00043	c7 45 fc 01 00
	00 00		 mov	 DWORD PTR __$EHRec$[ebp+8], 1
; File C:\Program Files (x86)\Microsoft Visual Studio\2019\Community\VC\Tools\MSVC\14.28.29333\include\type_traits

; 1443 :     return static_cast<_Ty&&>(_Arg);

  0004a	8b 45 18	 mov	 eax, DWORD PTR _<_Vals_2>$[ebp]
  0004d	89 45 e8	 mov	 DWORD PTR $T5[ebp], eax
  00050	8b 45 14	 mov	 eax, DWORD PTR _<_Vals_1>$[ebp]
  00053	89 45 e4	 mov	 DWORD PTR $T4[ebp], eax
  00056	8b 45 10	 mov	 eax, DWORD PTR _<_Vals_0>$[ebp]
  00059	89 45 e0	 mov	 DWORD PTR $T3[ebp], eax
; File C:\Program Files (x86)\Microsoft Visual Studio\2019\Community\VC\Tools\MSVC\14.28.29333\include\xtree

; 806  :         _Alnode_traits::construct(this->_Al, _STD addressof(this->_Ptr->_Myval), _STD forward<_Valtys>(_Vals)...);

  0005c	8b 45 f0	 mov	 eax, DWORD PTR _this$[ebp]
  0005f	8b 40 04	 mov	 eax, DWORD PTR [eax+4]
  00062	83 c0 10	 add	 eax, 16			; 00000010H
  00065	89 45 ec	 mov	 DWORD PTR __Val$[ebp], eax
; File C:\Program Files (x86)\Microsoft Visual Studio\2019\Community\VC\Tools\MSVC\14.28.29333\include\xstddef

; 275  :     return __builtin_addressof(_Val);

  00068	8b 45 ec	 mov	 eax, DWORD PTR __Val$[ebp]
  0006b	89 45 dc	 mov	 DWORD PTR $T2[ebp], eax
; File C:\Program Files (x86)\Microsoft Visual Studio\2019\Community\VC\Tools\MSVC\14.28.29333\include\xtree

; 806  :         _Alnode_traits::construct(this->_Al, _STD addressof(this->_Ptr->_Myval), _STD forward<_Valtys>(_Vals)...);

  0006e	ff 75 e8	 push	 DWORD PTR $T5[ebp]
  00071	ff 75 e4	 push	 DWORD PTR $T4[ebp]
  00074	ff 75 e0	 push	 DWORD PTR $T3[ebp]
  00077	ff 75 dc	 push	 DWORD PTR $T2[ebp]
  0007a	8b 45 f0	 mov	 eax, DWORD PTR _this$[ebp]
  0007d	ff 30		 push	 DWORD PTR [eax]
  0007f	e8 00 00 00 00	 call	 ??$construct@U?$pair@$$CBV?$basic_string@DU?$char_traits@D@std@@V?$allocator@D@2@@std@@PAVCGraphicImageInstance@@@std@@ABUpiecewise_construct_t@2@V?$tuple@ABV?$basic_string@DU?$char_traits@D@std@@V?$allocator@D@2@@std@@@2@V?$tuple@$$V@2@@?$_Default_allocator_traits@V?$allocator@U?$_Tree_node@U?$pair@$$CBV?$basic_string@DU?$char_traits@D@std@@V?$allocator@D@2@@std@@PAVCGraphicImageInstance@@@std@@PAX@std@@@std@@@std@@SAXAAV?$allocator@U?$_Tree_node@U?$pair@$$CBV?$basic_string@DU?$char_traits@D@std@@V?$allocator@D@2@@std@@PAVCGraphicImageInstance@@@std@@PAX@std@@@1@QAU?$pair@$$CBV?$basic_string@DU?$char_traits@D@std@@V?$allocator@D@2@@std@@PAVCGraphicImageInstance@@@1@ABUpiecewise_construct_t@1@$$QAV?$tuple@ABV?$basic_string@DU?$char_traits@D@std@@V?$allocator@D@2@@std@@@1@$$QAV?$tuple@$$V@1@@Z ; std::_Default_allocator_traits<std::allocator<std::_Tree_node<std::pair<std::basic_string<char,std::char_traits<char>,std::allocator<char> > const ,CGraphicImageInstance *>,void *> > >::construct<std::pair<std::basic_string<char,std::char_traits<char>,std::allocator<char> > const ,CGraphicImageInstance *>,std::piecewise_construct_t const &,std::tuple<std::basic_string<char,std::char_traits<char>,std::allocator<char> > const &>,std::tuple<> >
  00084	83 c4 14	 add	 esp, 20			; 00000014H

; 807  :         _Construct_in_place(this->_Ptr->_Left, _Myhead);

  00087	8d 45 0c	 lea	 eax, DWORD PTR __Myhead$[ebp]
  0008a	50		 push	 eax
  0008b	8b 45 f0	 mov	 eax, DWORD PTR _this$[ebp]
  0008e	ff 70 04	 push	 DWORD PTR [eax+4]
  00091	e8 00 00 00 00	 call	 ??$_Construct_in_place@PAU?$_Tree_node@U?$pair@$$CBV?$basic_string@DU?$char_traits@D@std@@V?$allocator@D@2@@std@@PAVCGraphicImageInstance@@@std@@PAX@std@@AAPAU12@@std@@YAXAAPAU?$_Tree_node@U?$pair@$$CBV?$basic_string@DU?$char_traits@D@std@@V?$allocator@D@2@@std@@PAVCGraphicImageInstance@@@std@@PAX@0@0@Z ; std::_Construct_in_place<std::_Tree_node<std::pair<std::basic_string<char,std::char_traits<char>,std::allocator<char> > const ,CGraphicImageInstance *>,void *> *,std::_Tree_node<std::pair<std::basic_string<char,std::char_traits<char>,std::allocator<char> > const ,CGraphicImageInstance *>,void *> * &>
  00096	59		 pop	 ecx
  00097	59		 pop	 ecx

; 808  :         _Construct_in_place(this->_Ptr->_Parent, _Myhead);

  00098	8d 45 0c	 lea	 eax, DWORD PTR __Myhead$[ebp]
  0009b	50		 push	 eax
  0009c	8b 45 f0	 mov	 eax, DWORD PTR _this$[ebp]
  0009f	8b 40 04	 mov	 eax, DWORD PTR [eax+4]
  000a2	83 c0 04	 add	 eax, 4
  000a5	50		 push	 eax
  000a6	e8 00 00 00 00	 call	 ??$_Construct_in_place@PAU?$_Tree_node@U?$pair@$$CBV?$basic_string@DU?$char_traits@D@std@@V?$allocator@D@2@@std@@PAVCGraphicImageInstance@@@std@@PAX@std@@AAPAU12@@std@@YAXAAPAU?$_Tree_node@U?$pair@$$CBV?$basic_string@DU?$char_traits@D@std@@V?$allocator@D@2@@std@@PAVCGraphicImageInstance@@@std@@PAX@0@0@Z ; std::_Construct_in_place<std::_Tree_node<std::pair<std::basic_string<char,std::char_traits<char>,std::allocator<char> > const ,CGraphicImageInstance *>,void *> *,std::_Tree_node<std::pair<std::basic_string<char,std::char_traits<char>,std::allocator<char> > const ,CGraphicImageInstance *>,void *> * &>
  000ab	59		 pop	 ecx
  000ac	59		 pop	 ecx

; 809  :         _Construct_in_place(this->_Ptr->_Right, _Myhead);

  000ad	8d 45 0c	 lea	 eax, DWORD PTR __Myhead$[ebp]
  000b0	50		 push	 eax
  000b1	8b 45 f0	 mov	 eax, DWORD PTR _this$[ebp]
  000b4	8b 40 04	 mov	 eax, DWORD PTR [eax+4]
  000b7	83 c0 08	 add	 eax, 8
  000ba	50		 push	 eax
  000bb	e8 00 00 00 00	 call	 ??$_Construct_in_place@PAU?$_Tree_node@U?$pair@$$CBV?$basic_string@DU?$char_traits@D@std@@V?$allocator@D@2@@std@@PAVCGraphicImageInstance@@@std@@PAX@std@@AAPAU12@@std@@YAXAAPAU?$_Tree_node@U?$pair@$$CBV?$basic_string@DU?$char_traits@D@std@@V?$allocator@D@2@@std@@PAVCGraphicImageInstance@@@std@@PAX@0@0@Z ; std::_Construct_in_place<std::_Tree_node<std::pair<std::basic_string<char,std::char_traits<char>,std::allocator<char> > const ,CGraphicImageInstance *>,void *> *,std::_Tree_node<std::pair<std::basic_string<char,std::char_traits<char>,std::allocator<char> > const ,CGraphicImageInstance *>,void *> * &>
  000c0	59		 pop	 ecx
  000c1	59		 pop	 ecx

; 810  :         this->_Ptr->_Color = _Red;

  000c2	8b 45 f0	 mov	 eax, DWORD PTR _this$[ebp]
  000c5	8b 40 04	 mov	 eax, DWORD PTR [eax+4]
  000c8	c6 40 0c 00	 mov	 BYTE PTR [eax+12], 0

; 811  :         this->_Ptr->_Isnil = false;

  000cc	8b 45 f0	 mov	 eax, DWORD PTR _this$[ebp]
  000cf	8b 40 04	 mov	 eax, DWORD PTR [eax+4]
  000d2	c6 40 0d 00	 mov	 BYTE PTR [eax+13], 0

; 812  :     }

  000d6	83 4d fc ff	 or	 DWORD PTR __$EHRec$[ebp+8], -1
  000da	8b 45 f0	 mov	 eax, DWORD PTR _this$[ebp]
  000dd	8b 4d f4	 mov	 ecx, DWORD PTR __$EHRec$[ebp]
  000e0	64 89 0d 00 00
	00 00		 mov	 DWORD PTR fs:0, ecx
  000e7	59		 pop	 ecx
  000e8	c9		 leave
  000e9	c2 14 00	 ret	 20			; 00000014H
_TEXT	ENDS
;	COMDAT text$x
text$x	SEGMENT
__unwindfunclet$??$?0ABUpiecewise_construct_t@std@@V?$tuple@ABV?$basic_string@DU?$char_traits@D@std@@V?$allocator@D@2@@std@@@1@V?$tuple@$$V@1@@?$_Tree_temp_node@V?$allocator@U?$_Tree_node@U?$pair@$$CBV?$basic_string@DU?$char_traits@D@std@@V?$allocator@D@2@@std@@PAVCGraphicImageInstance@@@std@@PAX@std@@@std@@@std@@QAE@AAV?$allocator@U?$_Tree_node@U?$pair@$$CBV?$basic_string@DU?$char_traits@D@std@@V?$allocator@D@2@@std@@PAVCGraphicImageInstance@@@std@@PAX@std@@@1@PAU?$_Tree_node@U?$pair@$$CBV?$basic_string@DU?$char_traits@D@std@@V?$allocator@D@2@@std@@PAVCGraphicImageInstance@@@std@@PAX@1@ABUpiecewise_construct_t@1@$$QAV?$tuple@ABV?$basic_string@DU?$char_traits@D@std@@V?$allocator@D@2@@std@@@1@$$QAV?$tuple@$$V@1@@Z$1:
  00000	8b 4d f0	 mov	 ecx, DWORD PTR _this$[ebp]
  00003	e9 00 00 00 00	 jmp	 ??1?$_Alloc_construct_ptr@V?$allocator@U?$_Tree_node@U?$pair@$$CBV?$basic_string@DU?$char_traits@D@std@@V?$allocator@D@2@@std@@PAVCGraphicImageInstance@@@std@@PAX@std@@@std@@@std@@QAE@XZ ; std::_Alloc_construct_ptr<std::allocator<std::_Tree_node<std::pair<std::basic_string<char,std::char_traits<char>,std::allocator<char> > const ,CGraphicImageInstance *>,void *> > >::~_Alloc_construct_ptr<std::allocator<std::_Tree_node<std::pair<std::basic_string<char,std::char_traits<char>,std::allocator<char> > const ,CGraphicImageInstance *>,void *> > >
__unwindfunclet$??$?0ABUpiecewise_construct_t@std@@V?$tuple@ABV?$basic_string@DU?$char_traits@D@std@@V?$allocator@D@2@@std@@@1@V?$tuple@$$V@1@@?$_Tree_temp_node@V?$allocator@U?$_Tree_node@U?$pair@$$CBV?$basic_string@DU?$char_traits@D@std@@V?$allocator@D@2@@std@@PAVCGraphicImageInstance@@@std@@PAX@std@@@std@@@std@@QAE@AAV?$allocator@U?$_Tree_node@U?$pair@$$CBV?$basic_string@DU?$char_traits@D@std@@V?$allocator@D@2@@std@@PAVCGraphicImageInstance@@@std@@PAX@std@@@1@PAU?$_Tree_node@U?$pair@$$CBV?$basic_string@DU?$char_traits@D@std@@V?$allocator@D@2@@std@@PAVCGraphicImageInstance@@@std@@PAX@1@ABUpiecewise_construct_t@1@$$QAV?$tuple@ABV?$basic_string@DU?$char_traits@D@std@@V?$allocator@D@2@@std@@@1@$$QAV?$tuple@$$V@1@@Z$0:
  00008	8b 4d f0	 mov	 ecx, DWORD PTR _this$[ebp]
  0000b	e9 00 00 00 00	 jmp	 ??1?$_Tree_temp_node_alloc@V?$allocator@U?$_Tree_node@U?$pair@$$CBV?$basic_string@DU?$char_traits@D@std@@V?$allocator@D@2@@std@@PAVCGraphicImageInstance@@@std@@PAX@std@@@std@@@std@@QAE@XZ
  00010	cc		 int	 3
  00011	cc		 int	 3
  00012	cc		 int	 3
  00013	cc		 int	 3
  00014	cc		 int	 3
__ehhandler$??$?0ABUpiecewise_construct_t@std@@V?$tuple@ABV?$basic_string@DU?$char_traits@D@std@@V?$allocator@D@2@@std@@@1@V?$tuple@$$V@1@@?$_Tree_temp_node@V?$allocator@U?$_Tree_node@U?$pair@$$CBV?$basic_string@DU?$char_traits@D@std@@V?$allocator@D@2@@std@@PAVCGraphicImageInstance@@@std@@PAX@std@@@std@@@std@@QAE@AAV?$allocator@U?$_Tree_node@U?$pair@$$CBV?$basic_string@DU?$char_traits@D@std@@V?$allocator@D@2@@std@@PAVCGraphicImageInstance@@@std@@PAX@std@@@1@PAU?$_Tree_node@U?$pair@$$CBV?$basic_string@DU?$char_traits@D@std@@V?$allocator@D@2@@std@@PAVCGraphicImageInstance@@@std@@PAX@1@ABUpiecewise_construct_t@1@$$QAV?$tuple@ABV?$basic_string@DU?$char_traits@D@std@@V?$allocator@D@2@@std@@@1@$$QAV?$tuple@$$V@1@@Z:
  00015	90		 npad	 1
  00016	90		 npad	 1
  00017	8b 54 24 08	 mov	 edx, DWORD PTR [esp+8]
  0001b	8d 42 0c	 lea	 eax, DWORD PTR [edx+12]
  0001e	8b 4a e4	 mov	 ecx, DWORD PTR [edx-28]
  00021	33 c8		 xor	 ecx, eax
  00023	e8 00 00 00 00	 call	 @__security_check_cookie@4
  00028	b8 00 00 00 00	 mov	 eax, OFFSET __ehfuncinfo$??$?0ABUpiecewise_construct_t@std@@V?$tuple@ABV?$basic_string@DU?$char_traits@D@std@@V?$allocator@D@2@@std@@@1@V?$tuple@$$V@1@@?$_Tree_temp_node@V?$allocator@U?$_Tree_node@U?$pair@$$CBV?$basic_string@DU?$char_traits@D@std@@V?$allocator@D@2@@std@@PAVCGraphicImageInstance@@@std@@PAX@std@@@std@@@std@@QAE@AAV?$allocator@U?$_Tree_node@U?$pair@$$CBV?$basic_string@DU?$char_traits@D@std@@V?$allocator@D@2@@std@@PAVCGraphicImageInstance@@@std@@PAX@std@@@1@PAU?$_Tree_node@U?$pair@$$CBV?$basic_string@DU?$char_traits@D@std@@V?$allocator@D@2@@std@@PAVCGraphicImageInstance@@@std@@PAX@1@ABUpiecewise_construct_t@1@$$QAV?$tuple@ABV?$basic_string@DU?$char_traits@D@std@@V?$allocator@D@2@@std@@@1@$$QAV?$tuple@$$V@1@@Z
  0002d	e9 00 00 00 00	 jmp	 ___CxxFrameHandler3
text$x	ENDS
??$?0ABUpiecewise_construct_t@std@@V?$tuple@ABV?$basic_string@DU?$char_traits@D@std@@V?$allocator@D@2@@std@@@1@V?$tuple@$$V@1@@?$_Tree_temp_node@V?$allocator@U?$_Tree_node@U?$pair@$$CBV?$basic_string@DU?$char_traits@D@std@@V?$allocator@D@2@@std@@PAVCGraphicImageInstance@@@std@@PAX@std@@@std@@@std@@QAE@AAV?$allocator@U?$_Tree_node@U?$pair@$$CBV?$basic_string@DU?$char_traits@D@std@@V?$allocator@D@2@@std@@PAVCGraphicImageInstance@@@std@@PAX@std@@@1@PAU?$_Tree_node@U?$pair@$$CBV?$basic_string@DU?$char_traits@D@std@@V?$allocator@D@2@@std@@PAVCGraphicImageInstance@@@std@@PAX@1@ABUpiecewise_construct_t@1@$$QAV?$tuple@ABV?$basic_string@DU?$char_traits@D@std@@V?$allocator@D@2@@std@@@1@$$QAV?$tuple@$$V@1@@Z ENDP ; std::_Tree_temp_node<std::allocator<std::_Tree_node<std::pair<std::basic_string<char,std::char_traits<char>,std::allocator<char> > const ,CGraphicImageInstance *>,void *> > >::_Tree_temp_node<std::allocator<std::_Tree_node<std::pair<std::basic_string<char,std::char_traits<char>,std::allocator<char> > const ,CGraphicImageInstance *>,void *> > ><std::piecewise_construct_t const &,std::tuple<std::basic_string<char,std::char_traits<char>,std::allocator<char> > const &>,std::tuple<> >
; Function compile flags: /Odspy
; File C:\Program Files (x86)\Microsoft Visual Studio\2019\Community\VC\Tools\MSVC\14.28.29333\include\xtree
; File C:\Program Files (x86)\Microsoft Visual Studio\2019\Community\VC\Tools\MSVC\14.28.29333\include\xstddef
; File C:\Program Files (x86)\Microsoft Visual Studio\2019\Community\VC\Tools\MSVC\14.28.29333\include\xtree
; File C:\Program Files (x86)\Microsoft Visual Studio\2019\Community\VC\Tools\MSVC\14.28.29333\include\xstring
; File C:\Program Files (x86)\Microsoft Visual Studio\2019\Community\VC\Tools\MSVC\14.28.29333\include\xtree
;	COMDAT ??1?$_Tree_temp_node@V?$allocator@U?$_Tree_node@U?$pair@$$CBV?$basic_string@DU?$char_traits@D@std@@V?$allocator@D@2@@std@@PAVCGraphicImageInstance@@@std@@PAX@std@@@std@@@std@@QAE@XZ
_TEXT	SEGMENT
___formal$ = -16					; size = 4
__Val$ = -12						; size = 4
$T1 = -8						; size = 4
_this$ = -4						; size = 4
??1?$_Tree_temp_node@V?$allocator@U?$_Tree_node@U?$pair@$$CBV?$basic_string@DU?$char_traits@D@std@@V?$allocator@D@2@@std@@PAVCGraphicImageInstance@@@std@@PAX@std@@@std@@@std@@QAE@XZ PROC ; std::_Tree_temp_node<std::allocator<std::_Tree_node<std::pair<std::basic_string<char,std::char_traits<char>,std::allocator<char> > const ,CGraphicImageInstance *>,void *> > >::~_Tree_temp_node<std::allocator<std::_Tree_node<std::pair<std::basic_string<char,std::char_traits<char>,std::allocator<char> > const ,CGraphicImageInstance *>,void *> > >, COMDAT
; _this$ = ecx

; 817  :     ~_Tree_temp_node() {

  00000	55		 push	 ebp
  00001	8b ec		 mov	 ebp, esp
  00003	83 ec 10	 sub	 esp, 16			; 00000010H
  00006	89 4d fc	 mov	 DWORD PTR _this$[ebp], ecx

; 818  :         if (this->_Ptr) {

  00009	8b 45 fc	 mov	 eax, DWORD PTR _this$[ebp]
  0000c	83 78 04 00	 cmp	 DWORD PTR [eax+4], 0
  00010	74 61		 je	 SHORT $LN28@Tree_temp_

; 819  :             _Destroy_in_place(this->_Ptr->_Left);

  00012	8b 45 fc	 mov	 eax, DWORD PTR _this$[ebp]
  00015	ff 70 04	 push	 DWORD PTR [eax+4]
  00018	e8 00 00 00 00	 call	 ??$_Destroy_in_place@PAU?$_Tree_node@U?$pair@$$CBV?$basic_string@DU?$char_traits@D@std@@V?$allocator@D@2@@std@@PAVCGraphicImageInstance@@@std@@PAX@std@@@std@@YAXAAPAU?$_Tree_node@U?$pair@$$CBV?$basic_string@DU?$char_traits@D@std@@V?$allocator@D@2@@std@@PAVCGraphicImageInstance@@@std@@PAX@0@@Z ; std::_Destroy_in_place<std::_Tree_node<std::pair<std::basic_string<char,std::char_traits<char>,std::allocator<char> > const ,CGraphicImageInstance *>,void *> *>
  0001d	59		 pop	 ecx

; 820  :             _Destroy_in_place(this->_Ptr->_Parent);

  0001e	8b 45 fc	 mov	 eax, DWORD PTR _this$[ebp]
  00021	8b 40 04	 mov	 eax, DWORD PTR [eax+4]
  00024	83 c0 04	 add	 eax, 4
  00027	50		 push	 eax
  00028	e8 00 00 00 00	 call	 ??$_Destroy_in_place@PAU?$_Tree_node@U?$pair@$$CBV?$basic_string@DU?$char_traits@D@std@@V?$allocator@D@2@@std@@PAVCGraphicImageInstance@@@std@@PAX@std@@@std@@YAXAAPAU?$_Tree_node@U?$pair@$$CBV?$basic_string@DU?$char_traits@D@std@@V?$allocator@D@2@@std@@PAVCGraphicImageInstance@@@std@@PAX@0@@Z ; std::_Destroy_in_place<std::_Tree_node<std::pair<std::basic_string<char,std::char_traits<char>,std::allocator<char> > const ,CGraphicImageInstance *>,void *> *>
  0002d	59		 pop	 ecx

; 821  :             _Destroy_in_place(this->_Ptr->_Right);

  0002e	8b 45 fc	 mov	 eax, DWORD PTR _this$[ebp]
  00031	8b 40 04	 mov	 eax, DWORD PTR [eax+4]
  00034	83 c0 08	 add	 eax, 8
  00037	50		 push	 eax
  00038	e8 00 00 00 00	 call	 ??$_Destroy_in_place@PAU?$_Tree_node@U?$pair@$$CBV?$basic_string@DU?$char_traits@D@std@@V?$allocator@D@2@@std@@PAVCGraphicImageInstance@@@std@@PAX@std@@@std@@YAXAAPAU?$_Tree_node@U?$pair@$$CBV?$basic_string@DU?$char_traits@D@std@@V?$allocator@D@2@@std@@PAVCGraphicImageInstance@@@std@@PAX@0@@Z ; std::_Destroy_in_place<std::_Tree_node<std::pair<std::basic_string<char,std::char_traits<char>,std::allocator<char> > const ,CGraphicImageInstance *>,void *> *>
  0003d	59		 pop	 ecx

; 822  :             _Alnode_traits::destroy(this->_Al, _STD addressof(this->_Ptr->_Myval));

  0003e	8b 45 fc	 mov	 eax, DWORD PTR _this$[ebp]
  00041	8b 40 04	 mov	 eax, DWORD PTR [eax+4]
  00044	83 c0 10	 add	 eax, 16			; 00000010H
  00047	89 45 f4	 mov	 DWORD PTR __Val$[ebp], eax
; File C:\Program Files (x86)\Microsoft Visual Studio\2019\Community\VC\Tools\MSVC\14.28.29333\include\xstddef

; 275  :     return __builtin_addressof(_Val);

  0004a	8b 45 f4	 mov	 eax, DWORD PTR __Val$[ebp]
  0004d	89 45 f8	 mov	 DWORD PTR $T1[ebp], eax
; File C:\Program Files (x86)\Microsoft Visual Studio\2019\Community\VC\Tools\MSVC\14.28.29333\include\xtree

; 822  :             _Alnode_traits::destroy(this->_Al, _STD addressof(this->_Ptr->_Myval));

  00050	8b 45 fc	 mov	 eax, DWORD PTR _this$[ebp]
  00053	8b 00		 mov	 eax, DWORD PTR [eax]
  00055	89 45 f0	 mov	 DWORD PTR ___formal$[ebp], eax
; File C:\Program Files (x86)\Microsoft Visual Studio\2019\Community\VC\Tools\MSVC\14.28.29333\include\xstring

; 2801 :         _Tidy_deallocate();

  00058	8b 4d f8	 mov	 ecx, DWORD PTR $T1[ebp]
  0005b	e8 00 00 00 00	 call	 ?_Tidy_deallocate@?$basic_string@DU?$char_traits@D@std@@V?$allocator@D@2@@std@@AAEXXZ ; std::basic_string<char,std::char_traits<char>,std::allocator<char> >::_Tidy_deallocate
  00060	33 c0		 xor	 eax, eax
  00062	83 e0 01	 and	 eax, 1
  00065	74 0c		 je	 SHORT $LN28@Tree_temp_
  00067	6a 1c		 push	 28			; 0000001cH
  00069	ff 75 f8	 push	 DWORD PTR $T1[ebp]
  0006c	e8 00 00 00 00	 call	 ??3@YAXPAXI@Z		; operator delete
  00071	59		 pop	 ecx
  00072	59		 pop	 ecx
$LN28@Tree_temp_:
  00073	8b 4d fc	 mov	 ecx, DWORD PTR _this$[ebp]
  00076	e8 00 00 00 00	 call	 ??1?$_Alloc_construct_ptr@V?$allocator@U?$_Tree_node@U?$pair@$$CBV?$basic_string@DU?$char_traits@D@std@@V?$allocator@D@2@@std@@PAVCGraphicImageInstance@@@std@@PAX@std@@@std@@@std@@QAE@XZ ; std::_Alloc_construct_ptr<std::allocator<std::_Tree_node<std::pair<std::basic_string<char,std::char_traits<char>,std::allocator<char> > const ,CGraphicImageInstance *>,void *> > >::~_Alloc_construct_ptr<std::allocator<std::_Tree_node<std::pair<std::basic_string<char,std::char_traits<char>,std::allocator<char> > const ,CGraphicImageInstance *>,void *> > >
; File C:\Program Files (x86)\Microsoft Visual Studio\2019\Community\VC\Tools\MSVC\14.28.29333\include\xtree

; 824  :     }

  0007b	c9		 leave
  0007c	c3		 ret	 0
??1?$_Tree_temp_node@V?$allocator@U?$_Tree_node@U?$pair@$$CBV?$basic_string@DU?$char_traits@D@std@@V?$allocator@D@2@@std@@PAVCGraphicImageInstance@@@std@@PAX@std@@@std@@@std@@QAE@XZ ENDP ; std::_Tree_temp_node<std::allocator<std::_Tree_node<std::pair<std::basic_string<char,std::char_traits<char>,std::allocator<char> > const ,CGraphicImageInstance *>,void *> > >::~_Tree_temp_node<std::allocator<std::_Tree_node<std::pair<std::basic_string<char,std::char_traits<char>,std::allocator<char> > const ,CGraphicImageInstance *>,void *> > >
_TEXT	ENDS
; Function compile flags: /Odspy
;	COMDAT ??1?$_Tree_temp_node_alloc@V?$allocator@U?$_Tree_node@U?$pair@$$CBV?$basic_string@DU?$char_traits@D@std@@V?$allocator@D@2@@std@@PAVCGraphicImageInstance@@@std@@PAX@std@@@std@@@std@@QAE@XZ
_TEXT	SEGMENT
_this$ = -4						; size = 4
??1?$_Tree_temp_node_alloc@V?$allocator@U?$_Tree_node@U?$pair@$$CBV?$basic_string@DU?$char_traits@D@std@@V?$allocator@D@2@@std@@PAVCGraphicImageInstance@@@std@@PAX@std@@@std@@@std@@QAE@XZ PROC ; std::_Tree_temp_node_alloc<std::allocator<std::_Tree_node<std::pair<std::basic_string<char,std::char_traits<char>,std::allocator<char> > const ,CGraphicImageInstance *>,void *> > >::~_Tree_temp_node_alloc<std::allocator<std::_Tree_node<std::pair<std::basic_string<char,std::char_traits<char>,std::allocator<char> > const ,CGraphicImageInstance *>,void *> > >, COMDAT
; _this$ = ecx
  00000	55		 push	 ebp
  00001	8b ec		 mov	 ebp, esp
  00003	51		 push	 ecx
  00004	89 4d fc	 mov	 DWORD PTR _this$[ebp], ecx
  00007	8b 4d fc	 mov	 ecx, DWORD PTR _this$[ebp]
  0000a	e8 00 00 00 00	 call	 ??1?$_Alloc_construct_ptr@V?$allocator@U?$_Tree_node@U?$pair@$$CBV?$basic_string@DU?$char_traits@D@std@@V?$allocator@D@2@@std@@PAVCGraphicImageInstance@@@std@@PAX@std@@@std@@@std@@QAE@XZ ; std::_Alloc_construct_ptr<std::allocator<std::_Tree_node<std::pair<std::basic_string<char,std::char_traits<char>,std::allocator<char> > const ,CGraphicImageInstance *>,void *> > >::~_Alloc_construct_ptr<std::allocator<std::_Tree_node<std::pair<std::basic_string<char,std::char_traits<char>,std::allocator<char> > const ,CGraphicImageInstance *>,void *> > >
  0000f	c9		 leave
  00010	c3		 ret	 0
??1?$_Tree_temp_node_alloc@V?$allocator@U?$_Tree_node@U?$pair@$$CBV?$basic_string@DU?$char_traits@D@std@@V?$allocator@D@2@@std@@PAVCGraphicImageInstance@@@std@@PAX@std@@@std@@@std@@QAE@XZ ENDP ; std::_Tree_temp_node_alloc<std::allocator<std::_Tree_node<std::pair<std::basic_string<char,std::char_traits<char>,std::allocator<char> > const ,CGraphicImageInstance *>,void *> > >::~_Tree_temp_node_alloc<std::allocator<std::_Tree_node<std::pair<std::basic_string<char,std::char_traits<char>,std::allocator<char> > const ,CGraphicImageInstance *>,void *> > >
_TEXT	ENDS
; Function compile flags: /Odspy
; File C:\Program Files (x86)\Microsoft Visual Studio\2019\Community\VC\Tools\MSVC\14.28.29333\include\xmemory
;	COMDAT ??1?$_Alloc_construct_ptr@V?$allocator@U?$_Tree_node@U?$pair@$$CBV?$basic_string@DU?$char_traits@D@std@@V?$allocator@D@2@@std@@PAVCGraphicImageInstance@@@std@@PAX@std@@@std@@@std@@QAE@XZ
_TEXT	SEGMENT
_this$ = -12						; size = 4
__Ptr$ = -8						; size = 4
_this$ = -4						; size = 4
??1?$_Alloc_construct_ptr@V?$allocator@U?$_Tree_node@U?$pair@$$CBV?$basic_string@DU?$char_traits@D@std@@V?$allocator@D@2@@std@@PAVCGraphicImageInstance@@@std@@PAX@std@@@std@@@std@@QAE@XZ PROC ; std::_Alloc_construct_ptr<std::allocator<std::_Tree_node<std::pair<std::basic_string<char,std::char_traits<char>,std::allocator<char> > const ,CGraphicImageInstance *>,void *> > >::~_Alloc_construct_ptr<std::allocator<std::_Tree_node<std::pair<std::basic_string<char,std::char_traits<char>,std::allocator<char> > const ,CGraphicImageInstance *>,void *> > >, COMDAT
; _this$ = ecx

; 1056 :     ~_Alloc_construct_ptr() { // if this instance is engaged, deallocate storage

  00000	55		 push	 ebp
  00001	8b ec		 mov	 ebp, esp
  00003	83 ec 0c	 sub	 esp, 12			; 0000000cH
  00006	89 4d fc	 mov	 DWORD PTR _this$[ebp], ecx

; 1057 :         if (_Ptr) {

  00009	8b 45 fc	 mov	 eax, DWORD PTR _this$[ebp]
  0000c	83 78 04 00	 cmp	 DWORD PTR [eax+4], 0
  00010	74 22		 je	 SHORT $LN3@Alloc_cons

; 1058 :             _Al.deallocate(_Ptr, 1);

  00012	8b 45 fc	 mov	 eax, DWORD PTR _this$[ebp]
  00015	8b 40 04	 mov	 eax, DWORD PTR [eax+4]
  00018	89 45 f8	 mov	 DWORD PTR __Ptr$[ebp], eax
  0001b	8b 45 fc	 mov	 eax, DWORD PTR _this$[ebp]
  0001e	8b 00		 mov	 eax, DWORD PTR [eax]
  00020	89 45 f4	 mov	 DWORD PTR _this$[ebp], eax

; 810  :         _Deallocate<_New_alignof<_Ty>>(_Ptr, sizeof(_Ty) * _Count);

  00023	33 c0		 xor	 eax, eax
  00025	40		 inc	 eax
  00026	6b c0 2c	 imul	 eax, eax, 44
  00029	50		 push	 eax
  0002a	ff 75 f8	 push	 DWORD PTR __Ptr$[ebp]
  0002d	e8 00 00 00 00	 call	 ??$_Deallocate@$07$0A@@std@@YAXPAXI@Z ; std::_Deallocate<8,0>
  00032	59		 pop	 ecx
  00033	59		 pop	 ecx
$LN3@Alloc_cons:

; 1059 :         }
; 1060 :     }

  00034	c9		 leave
  00035	c3		 ret	 0
??1?$_Alloc_construct_ptr@V?$allocator@U?$_Tree_node@U?$pair@$$CBV?$basic_string@DU?$char_traits@D@std@@V?$allocator@D@2@@std@@PAVCGraphicImageInstance@@@std@@PAX@std@@@std@@@std@@QAE@XZ ENDP ; std::_Alloc_construct_ptr<std::allocator<std::_Tree_node<std::pair<std::basic_string<char,std::char_traits<char>,std::allocator<char> > const ,CGraphicImageInstance *>,void *> > >::~_Alloc_construct_ptr<std::allocator<std::_Tree_node<std::pair<std::basic_string<char,std::char_traits<char>,std::allocator<char> > const ,CGraphicImageInstance *>,void *> > >
_TEXT	ENDS
; Function compile flags: /Odspy
; File C:\Program Files (x86)\Microsoft Visual Studio\2019\Community\VC\Tools\MSVC\14.28.29333\include\xmemory
;	COMDAT ?_Allocate@?$_Alloc_construct_ptr@V?$allocator@U?$_Tree_node@U?$pair@$$CBV?$basic_string@DU?$char_traits@D@std@@V?$allocator@D@2@@std@@PAVCGraphicImageInstance@@@std@@PAX@std@@@std@@@std@@QAEXXZ
_TEXT	SEGMENT
__Max_possible$1 = -24					; size = 4
_this$ = -20						; size = 4
$T2 = -16						; size = 4
$T3 = -12						; size = 4
_this$ = -8						; size = 4
__Overflow_is_possible$4 = -1				; size = 1
?_Allocate@?$_Alloc_construct_ptr@V?$allocator@U?$_Tree_node@U?$pair@$$CBV?$basic_string@DU?$char_traits@D@std@@V?$allocator@D@2@@std@@PAVCGraphicImageInstance@@@std@@PAX@std@@@std@@@std@@QAEXXZ PROC ; std::_Alloc_construct_ptr<std::allocator<std::_Tree_node<std::pair<std::basic_string<char,std::char_traits<char>,std::allocator<char> > const ,CGraphicImageInstance *>,void *> > >::_Allocate, COMDAT
; _this$ = ecx

; 1051 :     void _Allocate() { // disengage *this, then allocate a new memory block

  00000	55		 push	 ebp
  00001	8b ec		 mov	 ebp, esp
  00003	83 ec 18	 sub	 esp, 24			; 00000018H
  00006	89 4d f8	 mov	 DWORD PTR _this$[ebp], ecx

; 1052 :         _Ptr = nullptr; // if allocate throws, prevents double-free

  00009	8b 45 f8	 mov	 eax, DWORD PTR _this$[ebp]
  0000c	83 60 04 00	 and	 DWORD PTR [eax+4], 0

; 1053 :         _Ptr = _Al.allocate(1);

  00010	8b 45 f8	 mov	 eax, DWORD PTR _this$[ebp]
  00013	8b 00		 mov	 eax, DWORD PTR [eax]
  00015	89 45 ec	 mov	 DWORD PTR _this$[ebp], eax

; 56   :     constexpr bool _Overflow_is_possible = _Ty_size > 1;

  00018	c6 45 ff 01	 mov	 BYTE PTR __Overflow_is_possible$4[ebp], 1

; 57   : 
; 58   :     if _CONSTEXPR_IF (_Overflow_is_possible) {
; 59   :         constexpr size_t _Max_possible = static_cast<size_t>(-1) / _Ty_size;

  0001c	c7 45 e8 5d 74
	d1 05		 mov	 DWORD PTR __Max_possible$1[ebp], 97612893 ; 05d1745dH

; 60   :         if (_Count > _Max_possible) {

  00023	33 c0		 xor	 eax, eax
  00025	40		 inc	 eax
  00026	3d 5d 74 d1 05	 cmp	 eax, 97612893		; 05d1745dH
  0002b	76 05		 jbe	 SHORT $LN6@Allocate

; 61   :             _Throw_bad_array_new_length(); // multiply overflow

  0002d	e8 00 00 00 00	 call	 ?_Throw_bad_array_new_length@std@@YAXXZ ; std::_Throw_bad_array_new_length
$LN6@Allocate:

; 62   :         }
; 63   :     }
; 64   : 
; 65   :     return _Count * _Ty_size;

  00032	33 c0		 xor	 eax, eax
  00034	40		 inc	 eax
  00035	6b c0 2c	 imul	 eax, eax, 44
  00038	89 45 f4	 mov	 DWORD PTR $T3[ebp], eax

; 814  :         return static_cast<_Ty*>(_Allocate<_New_alignof<_Ty>>(_Get_size_of_n<sizeof(_Ty)>(_Count)));

  0003b	ff 75 f4	 push	 DWORD PTR $T3[ebp]
  0003e	e8 00 00 00 00	 call	 ??$_Allocate@$07U_Default_allocate_traits@std@@$0A@@std@@YAPAXI@Z ; std::_Allocate<8,std::_Default_allocate_traits,0>
  00043	59		 pop	 ecx
  00044	89 45 f0	 mov	 DWORD PTR $T2[ebp], eax

; 1053 :         _Ptr = _Al.allocate(1);

  00047	8b 45 f8	 mov	 eax, DWORD PTR _this$[ebp]
  0004a	8b 4d f0	 mov	 ecx, DWORD PTR $T2[ebp]
  0004d	89 48 04	 mov	 DWORD PTR [eax+4], ecx
$LN9@Allocate:

; 1054 :     }

  00050	c9		 leave
  00051	c3		 ret	 0
?_Allocate@?$_Alloc_construct_ptr@V?$allocator@U?$_Tree_node@U?$pair@$$CBV?$basic_string@DU?$char_traits@D@std@@V?$allocator@D@2@@std@@PAVCGraphicImageInstance@@@std@@PAX@std@@@std@@@std@@QAEXXZ ENDP ; std::_Alloc_construct_ptr<std::allocator<std::_Tree_node<std::pair<std::basic_string<char,std::char_traits<char>,std::allocator<char> > const ,CGraphicImageInstance *>,void *> > >::_Allocate
_TEXT	ENDS
; Function compile flags: /Odspy
; File C:\Program Files (x86)\Microsoft Visual Studio\2019\Community\VC\Tools\MSVC\14.28.29333\include\xtree
; File C:\Program Files (x86)\Microsoft Visual Studio\2019\Community\VC\Tools\MSVC\14.28.29333\include\xmemory
; File C:\Program Files (x86)\Microsoft Visual Studio\2019\Community\VC\Tools\MSVC\14.28.29333\include\xtree
; File C:\Program Files (x86)\Microsoft Visual Studio\2019\Community\VC\Tools\MSVC\14.28.29333\include\map
; File C:\Program Files (x86)\Microsoft Visual Studio\2019\Community\VC\Tools\MSVC\14.28.29333\include\xstddef
; File C:\Program Files (x86)\Microsoft Visual Studio\2019\Community\VC\Tools\MSVC\14.28.29333\include\xtree
;	COMDAT ??$_Lower_bound_duplicate@V?$basic_string@DU?$char_traits@D@std@@V?$allocator@D@2@@std@@@?$_Tree@V?$_Tmap_traits@V?$basic_string@DU?$char_traits@D@std@@V?$allocator@D@2@@std@@PAVCGraphicImageInstance@@U?$less@V?$basic_string@DU?$char_traits@D@std@@V?$allocator@D@2@@std@@@2@V?$allocator@U?$pair@$$CBV?$basic_string@DU?$char_traits@D@std@@V?$allocator@D@2@@std@@PAVCGraphicImageInstance@@@std@@@2@$0A@@std@@@std@@IBE_NQAU?$_Tree_node@U?$pair@$$CBV?$basic_string@DU?$char_traits@D@std@@V?$allocator@D@2@@std@@PAVCGraphicImageInstance@@@std@@PAX@1@ABV?$basic_string@DU?$char_traits@D@std@@V?$allocator@D@2@@1@@Z
_TEXT	SEGMENT
$T1 = -16						; size = 4
$T2 = -12						; size = 4
_this$ = -8						; size = 4
tv78 = -4						; size = 4
__Bound$ = 8						; size = 4
__Keyval$ = 12						; size = 4
??$_Lower_bound_duplicate@V?$basic_string@DU?$char_traits@D@std@@V?$allocator@D@2@@std@@@?$_Tree@V?$_Tmap_traits@V?$basic_string@DU?$char_traits@D@std@@V?$allocator@D@2@@std@@PAVCGraphicImageInstance@@U?$less@V?$basic_string@DU?$char_traits@D@std@@V?$allocator@D@2@@std@@@2@V?$allocator@U?$pair@$$CBV?$basic_string@DU?$char_traits@D@std@@V?$allocator@D@2@@std@@PAVCGraphicImageInstance@@@std@@@2@$0A@@std@@@std@@IBE_NQAU?$_Tree_node@U?$pair@$$CBV?$basic_string@DU?$char_traits@D@std@@V?$allocator@D@2@@std@@PAVCGraphicImageInstance@@@std@@PAX@1@ABV?$basic_string@DU?$char_traits@D@std@@V?$allocator@D@2@@1@@Z PROC ; std::_Tree<std::_Tmap_traits<std::basic_string<char,std::char_traits<char>,std::allocator<char> >,CGraphicImageInstance *,std::less<std::basic_string<char,std::char_traits<char>,std::allocator<char> > >,std::allocator<std::pair<std::basic_string<char,std::char_traits<char>,std::allocator<char> > const ,CGraphicImageInstance *> >,0> >::_Lower_bound_duplicate<std::basic_string<char,std::char_traits<char>,std::allocator<char> > >, COMDAT
; _this$ = ecx

; 1694 :     bool _Lower_bound_duplicate(const _Nodeptr _Bound, const _Keyty& _Keyval) const {

  00000	55		 push	 ebp
  00001	8b ec		 mov	 ebp, esp
  00003	83 ec 10	 sub	 esp, 16			; 00000010H
  00006	89 4d f8	 mov	 DWORD PTR _this$[ebp], ecx

; 1695 :         return !_Bound->_Isnil && !_DEBUG_LT_PRED(_Getcomp(), _Keyval, _Traits::_Kfn(_Bound->_Myval));

  00009	8b 45 08	 mov	 eax, DWORD PTR __Bound$[ebp]
  0000c	0f be 40 0d	 movsx	 eax, BYTE PTR [eax+13]
  00010	85 c0		 test	 eax, eax
  00012	75 2d		 jne	 SHORT $LN3@Lower_boun

; 2035 :         return _Mypair._Get_first();

  00014	8b 45 f8	 mov	 eax, DWORD PTR _this$[ebp]
; File C:\Program Files (x86)\Microsoft Visual Studio\2019\Community\VC\Tools\MSVC\14.28.29333\include\xmemory

; 1351 :         return *this;

  00017	89 45 f4	 mov	 DWORD PTR $T2[ebp], eax
; File C:\Program Files (x86)\Microsoft Visual Studio\2019\Community\VC\Tools\MSVC\14.28.29333\include\xtree

; 2035 :         return _Mypair._Get_first();

  0001a	8b 45 f4	 mov	 eax, DWORD PTR $T2[ebp]
  0001d	89 45 f0	 mov	 DWORD PTR $T1[ebp], eax
; File C:\Program Files (x86)\Microsoft Visual Studio\2019\Community\VC\Tools\MSVC\14.28.29333\include\map

; 69   :         return _Val.first;

  00020	8b 45 08	 mov	 eax, DWORD PTR __Bound$[ebp]
  00023	83 c0 10	 add	 eax, 16			; 00000010H
; File C:\Program Files (x86)\Microsoft Visual Studio\2019\Community\VC\Tools\MSVC\14.28.29333\include\xstddef

; 127  :         return _Left < _Right;

  00026	50		 push	 eax
  00027	ff 75 0c	 push	 DWORD PTR __Keyval$[ebp]
  0002a	e8 00 00 00 00	 call	 ??$?MDU?$char_traits@D@std@@V?$allocator@D@1@@std@@YA_NABV?$basic_string@DU?$char_traits@D@std@@V?$allocator@D@2@@0@0@Z ; std::operator<<char,std::char_traits<char>,std::allocator<char> >
  0002f	59		 pop	 ecx
  00030	59		 pop	 ecx
; File C:\Program Files (x86)\Microsoft Visual Studio\2019\Community\VC\Tools\MSVC\14.28.29333\include\xtree

; 1695 :         return !_Bound->_Isnil && !_DEBUG_LT_PRED(_Getcomp(), _Keyval, _Traits::_Kfn(_Bound->_Myval));

  00031	0f b6 c0	 movzx	 eax, al
  00034	85 c0		 test	 eax, eax
  00036	75 09		 jne	 SHORT $LN3@Lower_boun
  00038	c7 45 fc 01 00
	00 00		 mov	 DWORD PTR tv78[ebp], 1
  0003f	eb 04		 jmp	 SHORT $LN4@Lower_boun
$LN3@Lower_boun:
  00041	83 65 fc 00	 and	 DWORD PTR tv78[ebp], 0
$LN4@Lower_boun:
  00045	8a 45 fc	 mov	 al, BYTE PTR tv78[ebp]

; 1696 :     }

  00048	c9		 leave
  00049	c2 08 00	 ret	 8
??$_Lower_bound_duplicate@V?$basic_string@DU?$char_traits@D@std@@V?$allocator@D@2@@std@@@?$_Tree@V?$_Tmap_traits@V?$basic_string@DU?$char_traits@D@std@@V?$allocator@D@2@@std@@PAVCGraphicImageInstance@@U?$less@V?$basic_string@DU?$char_traits@D@std@@V?$allocator@D@2@@std@@@2@V?$allocator@U?$pair@$$CBV?$basic_string@DU?$char_traits@D@std@@V?$allocator@D@2@@std@@PAVCGraphicImageInstance@@@std@@@2@$0A@@std@@@std@@IBE_NQAU?$_Tree_node@U?$pair@$$CBV?$basic_string@DU?$char_traits@D@std@@V?$allocator@D@2@@std@@PAVCGraphicImageInstance@@@std@@PAX@1@ABV?$basic_string@DU?$char_traits@D@std@@V?$allocator@D@2@@1@@Z ENDP ; std::_Tree<std::_Tmap_traits<std::basic_string<char,std::char_traits<char>,std::allocator<char> >,CGraphicImageInstance *,std::less<std::basic_string<char,std::char_traits<char>,std::allocator<char> > >,std::allocator<std::pair<std::basic_string<char,std::char_traits<char>,std::allocator<char> > const ,CGraphicImageInstance *> >,0> >::_Lower_bound_duplicate<std::basic_string<char,std::char_traits<char>,std::allocator<char> > >
_TEXT	ENDS
; Function compile flags: /Odspy
; File C:\Program Files (x86)\Microsoft Visual Studio\2019\Community\VC\Tools\MSVC\14.28.29333\include\xtree
; File C:\Program Files (x86)\Microsoft Visual Studio\2019\Community\VC\Tools\MSVC\14.28.29333\include\xstddef
; File C:\Program Files (x86)\Microsoft Visual Studio\2019\Community\VC\Tools\MSVC\14.28.29333\include\xtree
; File C:\Program Files (x86)\Microsoft Visual Studio\2019\Community\VC\Tools\MSVC\14.28.29333\include\xmemory
; File C:\Program Files (x86)\Microsoft Visual Studio\2019\Community\VC\Tools\MSVC\14.28.29333\include\xtree
; File C:\Program Files (x86)\Microsoft Visual Studio\2019\Community\VC\Tools\MSVC\14.28.29333\include\xstddef
; File C:\Program Files (x86)\Microsoft Visual Studio\2019\Community\VC\Tools\MSVC\14.28.29333\include\map
; File C:\Program Files (x86)\Microsoft Visual Studio\2019\Community\VC\Tools\MSVC\14.28.29333\include\xstddef
; File C:\Program Files (x86)\Microsoft Visual Studio\2019\Community\VC\Tools\MSVC\14.28.29333\include\xtree
;	COMDAT ??$_Find_lower_bound@V?$basic_string@DU?$char_traits@D@std@@V?$allocator@D@2@@std@@@?$_Tree@V?$_Tmap_traits@V?$basic_string@DU?$char_traits@D@std@@V?$allocator@D@2@@std@@PAVCGraphicImageInstance@@U?$less@V?$basic_string@DU?$char_traits@D@std@@V?$allocator@D@2@@std@@@2@V?$allocator@U?$pair@$$CBV?$basic_string@DU?$char_traits@D@std@@V?$allocator@D@2@@std@@PAVCGraphicImageInstance@@@std@@@2@$0A@@std@@@std@@IBE?AU?$_Tree_find_result@PAU?$_Tree_node@U?$pair@$$CBV?$basic_string@DU?$char_traits@D@std@@V?$allocator@D@2@@std@@PAVCGraphicImageInstance@@@std@@PAX@std@@@1@ABV?$basic_string@DU?$char_traits@D@std@@V?$allocator@D@2@@1@@Z
_TEXT	SEGMENT
__Result$ = -36						; size = 12
$T1 = -24						; size = 4
$T2 = -20						; size = 4
$T3 = -16						; size = 4
_this$ = -12						; size = 4
__Scary$ = -8						; size = 4
__Trynode$ = -4						; size = 4
___$ReturnUdt$ = 8					; size = 4
__Keyval$ = 12						; size = 4
??$_Find_lower_bound@V?$basic_string@DU?$char_traits@D@std@@V?$allocator@D@2@@std@@@?$_Tree@V?$_Tmap_traits@V?$basic_string@DU?$char_traits@D@std@@V?$allocator@D@2@@std@@PAVCGraphicImageInstance@@U?$less@V?$basic_string@DU?$char_traits@D@std@@V?$allocator@D@2@@std@@@2@V?$allocator@U?$pair@$$CBV?$basic_string@DU?$char_traits@D@std@@V?$allocator@D@2@@std@@PAVCGraphicImageInstance@@@std@@@2@$0A@@std@@@std@@IBE?AU?$_Tree_find_result@PAU?$_Tree_node@U?$pair@$$CBV?$basic_string@DU?$char_traits@D@std@@V?$allocator@D@2@@std@@PAVCGraphicImageInstance@@@std@@PAX@std@@@1@ABV?$basic_string@DU?$char_traits@D@std@@V?$allocator@D@2@@1@@Z PROC ; std::_Tree<std::_Tmap_traits<std::basic_string<char,std::char_traits<char>,std::allocator<char> >,CGraphicImageInstance *,std::less<std::basic_string<char,std::char_traits<char>,std::allocator<char> > >,std::allocator<std::pair<std::basic_string<char,std::char_traits<char>,std::allocator<char> > const ,CGraphicImageInstance *> >,0> >::_Find_lower_bound<std::basic_string<char,std::char_traits<char>,std::allocator<char> > >, COMDAT
; _this$ = ecx

; 1699 :     _Tree_find_result<_Nodeptr> _Find_lower_bound(const _Keyty& _Keyval) const {

  00000	55		 push	 ebp
  00001	8b ec		 mov	 ebp, esp
  00003	83 ec 24	 sub	 esp, 36			; 00000024H
  00006	56		 push	 esi
  00007	57		 push	 edi
  00008	89 4d f4	 mov	 DWORD PTR _this$[ebp], ecx

; 2051 :         return _STD addressof(_Mypair._Myval2._Myval2);

  0000b	8b 45 f4	 mov	 eax, DWORD PTR _this$[ebp]
; File C:\Program Files (x86)\Microsoft Visual Studio\2019\Community\VC\Tools\MSVC\14.28.29333\include\xstddef

; 275  :     return __builtin_addressof(_Val);

  0000e	89 45 f0	 mov	 DWORD PTR $T3[ebp], eax
; File C:\Program Files (x86)\Microsoft Visual Studio\2019\Community\VC\Tools\MSVC\14.28.29333\include\xtree

; 2051 :         return _STD addressof(_Mypair._Myval2._Myval2);

  00011	8b 45 f0	 mov	 eax, DWORD PTR $T3[ebp]
  00014	89 45 f8	 mov	 DWORD PTR __Scary$[ebp], eax

; 1700 :         const auto _Scary = _Get_scary();
; 1701 :         _Tree_find_result<_Nodeptr> _Result{{_Scary->_Myhead->_Parent, _Tree_child::_Right}, _Scary->_Myhead};

  00017	8b 45 f8	 mov	 eax, DWORD PTR __Scary$[ebp]
  0001a	8b 00		 mov	 eax, DWORD PTR [eax]
  0001c	8b 40 04	 mov	 eax, DWORD PTR [eax+4]
  0001f	89 45 dc	 mov	 DWORD PTR __Result$[ebp], eax
  00022	83 65 e0 00	 and	 DWORD PTR __Result$[ebp+4], 0
  00026	8b 45 f8	 mov	 eax, DWORD PTR __Scary$[ebp]
  00029	8b 00		 mov	 eax, DWORD PTR [eax]
  0002b	89 45 e4	 mov	 DWORD PTR __Result$[ebp+8], eax

; 1702 :         _Nodeptr _Trynode = _Result._Location._Parent;

  0002e	8b 45 dc	 mov	 eax, DWORD PTR __Result$[ebp]
  00031	89 45 fc	 mov	 DWORD PTR __Trynode$[ebp], eax
$LN2@Find_lower:

; 1703 :         while (!_Trynode->_Isnil) {

  00034	8b 45 fc	 mov	 eax, DWORD PTR __Trynode$[ebp]
  00037	0f be 40 0d	 movsx	 eax, BYTE PTR [eax+13]
  0003b	85 c0		 test	 eax, eax
  0003d	75 50		 jne	 SHORT $LN3@Find_lower

; 1704 :             _Result._Location._Parent = _Trynode;

  0003f	8b 45 fc	 mov	 eax, DWORD PTR __Trynode$[ebp]
  00042	89 45 dc	 mov	 DWORD PTR __Result$[ebp], eax

; 2035 :         return _Mypair._Get_first();

  00045	8b 45 f4	 mov	 eax, DWORD PTR _this$[ebp]
; File C:\Program Files (x86)\Microsoft Visual Studio\2019\Community\VC\Tools\MSVC\14.28.29333\include\xmemory

; 1351 :         return *this;

  00048	89 45 ec	 mov	 DWORD PTR $T2[ebp], eax
; File C:\Program Files (x86)\Microsoft Visual Studio\2019\Community\VC\Tools\MSVC\14.28.29333\include\xtree

; 2035 :         return _Mypair._Get_first();

  0004b	8b 45 ec	 mov	 eax, DWORD PTR $T2[ebp]
  0004e	89 45 e8	 mov	 DWORD PTR $T1[ebp], eax
; File C:\Program Files (x86)\Microsoft Visual Studio\2019\Community\VC\Tools\MSVC\14.28.29333\include\xstddef

; 127  :         return _Left < _Right;

  00051	ff 75 0c	 push	 DWORD PTR __Keyval$[ebp]
; File C:\Program Files (x86)\Microsoft Visual Studio\2019\Community\VC\Tools\MSVC\14.28.29333\include\map

; 69   :         return _Val.first;

  00054	8b 45 fc	 mov	 eax, DWORD PTR __Trynode$[ebp]
  00057	83 c0 10	 add	 eax, 16			; 00000010H
; File C:\Program Files (x86)\Microsoft Visual Studio\2019\Community\VC\Tools\MSVC\14.28.29333\include\xstddef

; 127  :         return _Left < _Right;

  0005a	50		 push	 eax
  0005b	e8 00 00 00 00	 call	 ??$?MDU?$char_traits@D@std@@V?$allocator@D@1@@std@@YA_NABV?$basic_string@DU?$char_traits@D@std@@V?$allocator@D@2@@0@0@Z ; std::operator<<char,std::char_traits<char>,std::allocator<char> >
  00060	59		 pop	 ecx
  00061	59		 pop	 ecx
; File C:\Program Files (x86)\Microsoft Visual Studio\2019\Community\VC\Tools\MSVC\14.28.29333\include\xtree

; 1705 :             if (_DEBUG_LT_PRED(_Getcomp(), _Traits::_Kfn(_Trynode->_Myval), _Keyval)) {

  00062	0f b6 c0	 movzx	 eax, al
  00065	85 c0		 test	 eax, eax
  00067	74 0f		 je	 SHORT $LN4@Find_lower

; 1706 :                 _Result._Location._Child = _Tree_child::_Right;

  00069	83 65 e0 00	 and	 DWORD PTR __Result$[ebp+4], 0

; 1707 :                 _Trynode                 = _Trynode->_Right;

  0006d	8b 45 fc	 mov	 eax, DWORD PTR __Trynode$[ebp]
  00070	8b 40 08	 mov	 eax, DWORD PTR [eax+8]
  00073	89 45 fc	 mov	 DWORD PTR __Trynode$[ebp], eax

; 1708 :             } else {

  00076	eb 15		 jmp	 SHORT $LN5@Find_lower
$LN4@Find_lower:

; 1709 :                 _Result._Location._Child = _Tree_child::_Left;

  00078	c7 45 e0 01 00
	00 00		 mov	 DWORD PTR __Result$[ebp+4], 1

; 1710 :                 _Result._Bound           = _Trynode;

  0007f	8b 45 fc	 mov	 eax, DWORD PTR __Trynode$[ebp]
  00082	89 45 e4	 mov	 DWORD PTR __Result$[ebp+8], eax

; 1711 :                 _Trynode                 = _Trynode->_Left;

  00085	8b 45 fc	 mov	 eax, DWORD PTR __Trynode$[ebp]
  00088	8b 00		 mov	 eax, DWORD PTR [eax]
  0008a	89 45 fc	 mov	 DWORD PTR __Trynode$[ebp], eax
$LN5@Find_lower:

; 1712 :             }
; 1713 :         }

  0008d	eb a5		 jmp	 SHORT $LN2@Find_lower
$LN3@Find_lower:

; 1714 : 
; 1715 :         return _Result;

  0008f	8d 75 dc	 lea	 esi, DWORD PTR __Result$[ebp]
  00092	8b 7d 08	 mov	 edi, DWORD PTR ___$ReturnUdt$[ebp]
  00095	a5		 movsd
  00096	a5		 movsd
  00097	a5		 movsd
  00098	8b 45 08	 mov	 eax, DWORD PTR ___$ReturnUdt$[ebp]

; 1716 :     }

  0009b	5f		 pop	 edi
  0009c	5e		 pop	 esi
  0009d	c9		 leave
  0009e	c2 08 00	 ret	 8
??$_Find_lower_bound@V?$basic_string@DU?$char_traits@D@std@@V?$allocator@D@2@@std@@@?$_Tree@V?$_Tmap_traits@V?$basic_string@DU?$char_traits@D@std@@V?$allocator@D@2@@std@@PAVCGraphicImageInstance@@U?$less@V?$basic_string@DU?$char_traits@D@std@@V?$allocator@D@2@@std@@@2@V?$allocator@U?$pair@$$CBV?$basic_string@DU?$char_traits@D@std@@V?$allocator@D@2@@std@@PAVCGraphicImageInstance@@@std@@@2@$0A@@std@@@std@@IBE?AU?$_Tree_find_result@PAU?$_Tree_node@U?$pair@$$CBV?$basic_string@DU?$char_traits@D@std@@V?$allocator@D@2@@std@@PAVCGraphicImageInstance@@@std@@PAX@std@@@1@ABV?$basic_string@DU?$char_traits@D@std@@V?$allocator@D@2@@1@@Z ENDP ; std::_Tree<std::_Tmap_traits<std::basic_string<char,std::char_traits<char>,std::allocator<char> >,CGraphicImageInstance *,std::less<std::basic_string<char,std::char_traits<char>,std::allocator<char> > >,std::allocator<std::pair<std::basic_string<char,std::char_traits<char>,std::allocator<char> > const ,CGraphicImageInstance *> >,0> >::_Find_lower_bound<std::basic_string<char,std::char_traits<char>,std::allocator<char> > >
_TEXT	ENDS
; Function compile flags: /Odspy
; File C:\Program Files (x86)\Microsoft Visual Studio\2019\Community\VC\Tools\MSVC\14.28.29333\include\xtree
; File C:\Program Files (x86)\Microsoft Visual Studio\2019\Community\VC\Tools\MSVC\14.28.29333\include\xstddef
; File C:\Program Files (x86)\Microsoft Visual Studio\2019\Community\VC\Tools\MSVC\14.28.29333\include\xtree
; File C:\Program Files (x86)\Microsoft Visual Studio\2019\Community\VC\Tools\MSVC\14.28.29333\include\xmemory
; File C:\Program Files (x86)\Microsoft Visual Studio\2019\Community\VC\Tools\MSVC\14.28.29333\include\xtree
; File C:\Program Files (x86)\Microsoft Visual Studio\2019\Community\VC\Tools\MSVC\14.28.29333\include\type_traits
; File C:\Program Files (x86)\Microsoft Visual Studio\2019\Community\VC\Tools\MSVC\14.28.29333\include\utility
; File C:\Program Files (x86)\Microsoft Visual Studio\2019\Community\VC\Tools\MSVC\14.28.29333\include\type_traits
; File C:\Program Files (x86)\Microsoft Visual Studio\2019\Community\VC\Tools\MSVC\14.28.29333\include\utility
; File C:\Program Files (x86)\Microsoft Visual Studio\2019\Community\VC\Tools\MSVC\14.28.29333\include\xtree
; File C:\Program Files (x86)\Microsoft Visual Studio\2019\Community\VC\Tools\MSVC\14.28.29333\include\type_traits
; File C:\Program Files (x86)\Microsoft Visual Studio\2019\Community\VC\Tools\MSVC\14.28.29333\include\xtree
; File C:\Program Files (x86)\Microsoft Visual Studio\2019\Community\VC\Tools\MSVC\14.28.29333\include\xmemory
; File C:\Program Files (x86)\Microsoft Visual Studio\2019\Community\VC\Tools\MSVC\14.28.29333\include\xtree
; File C:\Program Files (x86)\Microsoft Visual Studio\2019\Community\VC\Tools\MSVC\14.28.29333\include\xmemory
; File C:\Program Files (x86)\Microsoft Visual Studio\2019\Community\VC\Tools\MSVC\14.28.29333\include\utility
; File C:\Program Files (x86)\Microsoft Visual Studio\2019\Community\VC\Tools\MSVC\14.28.29333\include\xmemory
; File C:\Program Files (x86)\Microsoft Visual Studio\2019\Community\VC\Tools\MSVC\14.28.29333\include\xtree
; File C:\Program Files (x86)\Microsoft Visual Studio\2019\Community\VC\Tools\MSVC\14.28.29333\include\type_traits
; File C:\Program Files (x86)\Microsoft Visual Studio\2019\Community\VC\Tools\MSVC\14.28.29333\include\utility
; File C:\Program Files (x86)\Microsoft Visual Studio\2019\Community\VC\Tools\MSVC\14.28.29333\include\type_traits
; File C:\Program Files (x86)\Microsoft Visual Studio\2019\Community\VC\Tools\MSVC\14.28.29333\include\utility
; File C:\Program Files (x86)\Microsoft Visual Studio\2019\Community\VC\Tools\MSVC\14.28.29333\include\xtree
;	COMDAT ??$_Emplace@U?$pair@$$CBV?$basic_string@DU?$char_traits@D@std@@V?$allocator@D@2@@std@@PAVCGraphicImageInstance@@@std@@@?$_Tree@V?$_Tmap_traits@V?$basic_string@DU?$char_traits@D@std@@V?$allocator@D@2@@std@@PAVCGraphicImageInstance@@U?$less@V?$basic_string@DU?$char_traits@D@std@@V?$allocator@D@2@@std@@@2@V?$allocator@U?$pair@$$CBV?$basic_string@DU?$char_traits@D@std@@V?$allocator@D@2@@std@@PAVCGraphicImageInstance@@@std@@@2@$0A@@std@@@std@@IAE?AU?$pair@PAU?$_Tree_node@U?$pair@$$CBV?$basic_string@DU?$char_traits@D@std@@V?$allocator@D@2@@std@@PAVCGraphicImageInstance@@@std@@PAX@std@@_N@1@$$QAU?$pair@$$CBV?$basic_string@DU?$char_traits@D@std@@V?$allocator@D@2@@std@@PAVCGraphicImageInstance@@@1@@Z
_TEXT	SEGMENT
$T1 = -108						; size = 12
__Loc$ = -96						; size = 12
$T2 = -84						; size = 8
$T3 = -76						; size = 4
$T4 = -72						; size = 4
$T5 = -68						; size = 4
__Inserted$ = -64					; size = 4
$T6 = -60						; size = 4
__Old_val$7 = -56					; size = 4
$T8 = -52						; size = 4
$T9 = -48						; size = 4
$T10 = -44						; size = 4
$T11 = -40						; size = 4
$T12 = -36						; size = 4
$T13 = -32						; size = 4
$T14 = -28						; size = 4
$T15 = -24						; size = 4
__Scary$ = -20						; size = 4
__Val$ = -16						; size = 4
__Keyval$16 = -12					; size = 4
_this$ = -8						; size = 4
$T17 = -2						; size = 1
$T18 = -1						; size = 1
___$ReturnUdt$ = 8					; size = 4
_<_Vals_0>$ = 12					; size = 4
??$_Emplace@U?$pair@$$CBV?$basic_string@DU?$char_traits@D@std@@V?$allocator@D@2@@std@@PAVCGraphicImageInstance@@@std@@@?$_Tree@V?$_Tmap_traits@V?$basic_string@DU?$char_traits@D@std@@V?$allocator@D@2@@std@@PAVCGraphicImageInstance@@U?$less@V?$basic_string@DU?$char_traits@D@std@@V?$allocator@D@2@@std@@@2@V?$allocator@U?$pair@$$CBV?$basic_string@DU?$char_traits@D@std@@V?$allocator@D@2@@std@@PAVCGraphicImageInstance@@@std@@@2@$0A@@std@@@std@@IAE?AU?$pair@PAU?$_Tree_node@U?$pair@$$CBV?$basic_string@DU?$char_traits@D@std@@V?$allocator@D@2@@std@@PAVCGraphicImageInstance@@@std@@PAX@std@@_N@1@$$QAU?$pair@$$CBV?$basic_string@DU?$char_traits@D@std@@V?$allocator@D@2@@std@@PAVCGraphicImageInstance@@@1@@Z PROC ; std::_Tree<std::_Tmap_traits<std::basic_string<char,std::char_traits<char>,std::allocator<char> >,CGraphicImageInstance *,std::less<std::basic_string<char,std::char_traits<char>,std::allocator<char> > >,std::allocator<std::pair<std::basic_string<char,std::char_traits<char>,std::allocator<char> > const ,CGraphicImageInstance *> >,0> >::_Emplace<std::pair<std::basic_string<char,std::char_traits<char>,std::allocator<char> > const ,CGraphicImageInstance *> >, COMDAT
; _this$ = ecx

; 1002 :     pair<_Nodeptr, bool> _Emplace(_Valtys&&... _Vals) {

  00000	55		 push	 ebp
  00001	8b ec		 mov	 ebp, esp
  00003	83 ec 6c	 sub	 esp, 108		; 0000006cH
  00006	56		 push	 esi
  00007	57		 push	 edi
  00008	89 4d f8	 mov	 DWORD PTR _this$[ebp], ecx

; 2047 :         return _STD addressof(_Mypair._Myval2._Myval2);

  0000b	8b 45 f8	 mov	 eax, DWORD PTR _this$[ebp]
; File C:\Program Files (x86)\Microsoft Visual Studio\2019\Community\VC\Tools\MSVC\14.28.29333\include\xstddef

; 275  :     return __builtin_addressof(_Val);

  0000e	89 45 e8	 mov	 DWORD PTR $T15[ebp], eax
; File C:\Program Files (x86)\Microsoft Visual Studio\2019\Community\VC\Tools\MSVC\14.28.29333\include\xtree

; 2047 :         return _STD addressof(_Mypair._Myval2._Myval2);

  00011	8b 45 e8	 mov	 eax, DWORD PTR $T15[ebp]
  00014	89 45 ec	 mov	 DWORD PTR __Scary$[ebp], eax
; File C:\Program Files (x86)\Microsoft Visual Studio\2019\Community\VC\Tools\MSVC\14.28.29333\include\xmemory

; 2000 :         return _Val.first;

  00017	8b 45 0c	 mov	 eax, DWORD PTR _<_Vals_0>$[ebp]
; File C:\Program Files (x86)\Microsoft Visual Studio\2019\Community\VC\Tools\MSVC\14.28.29333\include\xtree

; 1008 :             const auto& _Keyval = _In_place_key_extractor::_Extract(_Vals...);

  0001a	89 45 f4	 mov	 DWORD PTR __Keyval$16[ebp], eax

; 1009 :             _Loc                = _Find_lower_bound(_Keyval);

  0001d	ff 75 f4	 push	 DWORD PTR __Keyval$16[ebp]
  00020	8d 45 94	 lea	 eax, DWORD PTR $T1[ebp]
  00023	50		 push	 eax
  00024	8b 4d f8	 mov	 ecx, DWORD PTR _this$[ebp]
  00027	e8 00 00 00 00	 call	 ??$_Find_lower_bound@V?$basic_string@DU?$char_traits@D@std@@V?$allocator@D@2@@std@@@?$_Tree@V?$_Tmap_traits@V?$basic_string@DU?$char_traits@D@std@@V?$allocator@D@2@@std@@PAVCGraphicImageInstance@@U?$less@V?$basic_string@DU?$char_traits@D@std@@V?$allocator@D@2@@std@@@2@V?$allocator@U?$pair@$$CBV?$basic_string@DU?$char_traits@D@std@@V?$allocator@D@2@@std@@PAVCGraphicImageInstance@@@std@@@2@$0A@@std@@@std@@IBE?AU?$_Tree_find_result@PAU?$_Tree_node@U?$pair@$$CBV?$basic_string@DU?$char_traits@D@std@@V?$allocator@D@2@@std@@PAVCGraphicImageInstance@@@std@@PAX@std@@@1@ABV?$basic_string@DU?$char_traits@D@std@@V?$allocator@D@2@@1@@Z ; std::_Tree<std::_Tmap_traits<std::basic_string<char,std::char_traits<char>,std::allocator<char> >,CGraphicImageInstance *,std::less<std::basic_string<char,std::char_traits<char>,std::allocator<char> > >,std::allocator<std::pair<std::basic_string<char,std::char_traits<char>,std::allocator<char> > const ,CGraphicImageInstance *> >,0> >::_Find_lower_bound<std::basic_string<char,std::char_traits<char>,std::allocator<char> > >
  0002c	8b f0		 mov	 esi, eax
  0002e	8d 7d a0	 lea	 edi, DWORD PTR __Loc$[ebp]
  00031	a5		 movsd
  00032	a5		 movsd
  00033	a5		 movsd

; 1010 :             if (_Lower_bound_duplicate(_Loc._Bound, _Keyval)) {

  00034	ff 75 f4	 push	 DWORD PTR __Keyval$16[ebp]
  00037	ff 75 a8	 push	 DWORD PTR __Loc$[ebp+8]
  0003a	8b 4d f8	 mov	 ecx, DWORD PTR _this$[ebp]
  0003d	e8 00 00 00 00	 call	 ??$_Lower_bound_duplicate@V?$basic_string@DU?$char_traits@D@std@@V?$allocator@D@2@@std@@@?$_Tree@V?$_Tmap_traits@V?$basic_string@DU?$char_traits@D@std@@V?$allocator@D@2@@std@@PAVCGraphicImageInstance@@U?$less@V?$basic_string@DU?$char_traits@D@std@@V?$allocator@D@2@@std@@@2@V?$allocator@U?$pair@$$CBV?$basic_string@DU?$char_traits@D@std@@V?$allocator@D@2@@std@@PAVCGraphicImageInstance@@@std@@@2@$0A@@std@@@std@@IBE_NQAU?$_Tree_node@U?$pair@$$CBV?$basic_string@DU?$char_traits@D@std@@V?$allocator@D@2@@std@@PAVCGraphicImageInstance@@@std@@PAX@1@ABV?$basic_string@DU?$char_traits@D@std@@V?$allocator@D@2@@1@@Z ; std::_Tree<std::_Tmap_traits<std::basic_string<char,std::char_traits<char>,std::allocator<char> >,CGraphicImageInstance *,std::less<std::basic_string<char,std::char_traits<char>,std::allocator<char> > >,std::allocator<std::pair<std::basic_string<char,std::char_traits<char>,std::allocator<char> > const ,CGraphicImageInstance *> >,0> >::_Lower_bound_duplicate<std::basic_string<char,std::char_traits<char>,std::allocator<char> > >
  00042	0f b6 c0	 movzx	 eax, al
  00045	85 c0		 test	 eax, eax
  00047	74 2d		 je	 SHORT $LN2@Emplace

; 1011 :                 return {_Loc._Bound, false};

  00049	c6 45 ff 00	 mov	 BYTE PTR $T18[ebp], 0
; File C:\Program Files (x86)\Microsoft Visual Studio\2019\Community\VC\Tools\MSVC\14.28.29333\include\type_traits

; 1443 :     return static_cast<_Ty&&>(_Arg);

  0004d	8d 45 a8	 lea	 eax, DWORD PTR __Loc$[ebp+8]
  00050	89 45 e4	 mov	 DWORD PTR $T14[ebp], eax
; File C:\Program Files (x86)\Microsoft Visual Studio\2019\Community\VC\Tools\MSVC\14.28.29333\include\utility

; 190  :         : first(_STD forward<_Other1>(_Val1)), second(_STD forward<_Other2>(_Val2)) {}

  00053	8b 45 08	 mov	 eax, DWORD PTR ___$ReturnUdt$[ebp]
  00056	8b 4d e4	 mov	 ecx, DWORD PTR $T14[ebp]
  00059	8b 09		 mov	 ecx, DWORD PTR [ecx]
  0005b	89 08		 mov	 DWORD PTR [eax], ecx
; File C:\Program Files (x86)\Microsoft Visual Studio\2019\Community\VC\Tools\MSVC\14.28.29333\include\type_traits

; 1443 :     return static_cast<_Ty&&>(_Arg);

  0005d	8d 45 ff	 lea	 eax, DWORD PTR $T18[ebp]
  00060	89 45 e0	 mov	 DWORD PTR $T13[ebp], eax
; File C:\Program Files (x86)\Microsoft Visual Studio\2019\Community\VC\Tools\MSVC\14.28.29333\include\utility

; 190  :         : first(_STD forward<_Other1>(_Val1)), second(_STD forward<_Other2>(_Val2)) {}

  00063	8b 45 08	 mov	 eax, DWORD PTR ___$ReturnUdt$[ebp]
  00066	8b 4d e0	 mov	 ecx, DWORD PTR $T13[ebp]
  00069	8a 09		 mov	 cl, BYTE PTR [ecx]
  0006b	88 48 04	 mov	 BYTE PTR [eax+4], cl
; File C:\Program Files (x86)\Microsoft Visual Studio\2019\Community\VC\Tools\MSVC\14.28.29333\include\xtree

; 1011 :                 return {_Loc._Bound, false};

  0006e	8b 45 08	 mov	 eax, DWORD PTR ___$ReturnUdt$[ebp]
  00071	e9 9d 00 00 00	 jmp	 $LN1@Emplace
$LN2@Emplace:

; 1012 :             }
; 1013 : 
; 1014 :             _Check_grow_by_1();

  00076	8b 4d f8	 mov	 ecx, DWORD PTR _this$[ebp]
  00079	e8 00 00 00 00	 call	 ?_Check_grow_by_1@?$_Tree@V?$_Tmap_traits@V?$basic_string@DU?$char_traits@D@std@@V?$allocator@D@2@@std@@PAVCGraphicImageInstance@@U?$less@V?$basic_string@DU?$char_traits@D@std@@V?$allocator@D@2@@std@@@2@V?$allocator@U?$pair@$$CBV?$basic_string@DU?$char_traits@D@std@@V?$allocator@D@2@@std@@PAVCGraphicImageInstance@@@std@@@2@$0A@@std@@@std@@IAEXXZ ; std::_Tree<std::_Tmap_traits<std::basic_string<char,std::char_traits<char>,std::allocator<char> >,CGraphicImageInstance *,std::less<std::basic_string<char,std::char_traits<char>,std::allocator<char> > >,std::allocator<std::pair<std::basic_string<char,std::char_traits<char>,std::allocator<char> > const ,CGraphicImageInstance *> >,0> >::_Check_grow_by_1
; File C:\Program Files (x86)\Microsoft Visual Studio\2019\Community\VC\Tools\MSVC\14.28.29333\include\type_traits

; 1443 :     return static_cast<_Ty&&>(_Arg);

  0007e	8b 45 0c	 mov	 eax, DWORD PTR _<_Vals_0>$[ebp]
  00081	89 45 d8	 mov	 DWORD PTR $T11[ebp], eax
; File C:\Program Files (x86)\Microsoft Visual Studio\2019\Community\VC\Tools\MSVC\14.28.29333\include\xtree

; 2039 :         return _Mypair._Myval2._Get_first();

  00084	8b 45 f8	 mov	 eax, DWORD PTR _this$[ebp]
; File C:\Program Files (x86)\Microsoft Visual Studio\2019\Community\VC\Tools\MSVC\14.28.29333\include\xmemory

; 1347 :         return *this;

  00087	89 45 dc	 mov	 DWORD PTR $T12[ebp], eax
; File C:\Program Files (x86)\Microsoft Visual Studio\2019\Community\VC\Tools\MSVC\14.28.29333\include\xtree

; 2039 :         return _Mypair._Myval2._Get_first();

  0008a	8b 45 dc	 mov	 eax, DWORD PTR $T12[ebp]
  0008d	89 45 d4	 mov	 DWORD PTR $T10[ebp], eax

; 1015 :             _Inserted = _Tree_temp_node<_Alnode>(_Getal(), _Scary->_Myhead, _STD forward<_Valtys>(_Vals)...)._Release();

  00090	ff 75 d8	 push	 DWORD PTR $T11[ebp]
  00093	8b 45 ec	 mov	 eax, DWORD PTR __Scary$[ebp]
  00096	ff 30		 push	 DWORD PTR [eax]
  00098	ff 75 d4	 push	 DWORD PTR $T10[ebp]
  0009b	8d 4d ac	 lea	 ecx, DWORD PTR $T2[ebp]
  0009e	e8 00 00 00 00	 call	 ??$?0U?$pair@$$CBV?$basic_string@DU?$char_traits@D@std@@V?$allocator@D@2@@std@@PAVCGraphicImageInstance@@@std@@@?$_Tree_temp_node@V?$allocator@U?$_Tree_node@U?$pair@$$CBV?$basic_string@DU?$char_traits@D@std@@V?$allocator@D@2@@std@@PAVCGraphicImageInstance@@@std@@PAX@std@@@std@@@std@@QAE@AAV?$allocator@U?$_Tree_node@U?$pair@$$CBV?$basic_string@DU?$char_traits@D@std@@V?$allocator@D@2@@std@@PAVCGraphicImageInstance@@@std@@PAX@std@@@1@PAU?$_Tree_node@U?$pair@$$CBV?$basic_string@DU?$char_traits@D@std@@V?$allocator@D@2@@std@@PAVCGraphicImageInstance@@@std@@PAX@1@$$QAU?$pair@$$CBV?$basic_string@DU?$char_traits@D@std@@V?$allocator@D@2@@std@@PAVCGraphicImageInstance@@@1@@Z ; std::_Tree_temp_node<std::allocator<std::_Tree_node<std::pair<std::basic_string<char,std::char_traits<char>,std::allocator<char> > const ,CGraphicImageInstance *>,void *> > >::_Tree_temp_node<std::allocator<std::_Tree_node<std::pair<std::basic_string<char,std::char_traits<char>,std::allocator<char> > const ,CGraphicImageInstance *>,void *> > ><std::pair<std::basic_string<char,std::char_traits<char>,std::allocator<char> > const ,CGraphicImageInstance *> >
  000a3	89 45 d0	 mov	 DWORD PTR $T9[ebp], eax
; File C:\Program Files (x86)\Microsoft Visual Studio\2019\Community\VC\Tools\MSVC\14.28.29333\include\xmemory

; 1048 :         return _STD exchange(_Ptr, nullptr);

  000a6	83 65 cc 00	 and	 DWORD PTR $T8[ebp], 0
  000aa	8b 45 d0	 mov	 eax, DWORD PTR $T9[ebp]
  000ad	83 c0 04	 add	 eax, 4
  000b0	89 45 f0	 mov	 DWORD PTR __Val$[ebp], eax
; File C:\Program Files (x86)\Microsoft Visual Studio\2019\Community\VC\Tools\MSVC\14.28.29333\include\utility

; 598  :     _Ty _Old_val = static_cast<_Ty&&>(_Val);

  000b3	8b 45 f0	 mov	 eax, DWORD PTR __Val$[ebp]
  000b6	8b 00		 mov	 eax, DWORD PTR [eax]
  000b8	89 45 c8	 mov	 DWORD PTR __Old_val$7[ebp], eax

; 599  :     _Val         = static_cast<_Other&&>(_New_val);

  000bb	8b 45 f0	 mov	 eax, DWORD PTR __Val$[ebp]
  000be	8b 4d cc	 mov	 ecx, DWORD PTR $T8[ebp]
  000c1	89 08		 mov	 DWORD PTR [eax], ecx

; 600  :     return _Old_val;

  000c3	8b 45 c8	 mov	 eax, DWORD PTR __Old_val$7[ebp]
  000c6	89 45 c4	 mov	 DWORD PTR $T6[ebp], eax
; File C:\Program Files (x86)\Microsoft Visual Studio\2019\Community\VC\Tools\MSVC\14.28.29333\include\xmemory

; 1048 :         return _STD exchange(_Ptr, nullptr);

  000c9	8b 45 c4	 mov	 eax, DWORD PTR $T6[ebp]
  000cc	89 45 c0	 mov	 DWORD PTR __Inserted$[ebp], eax
; File C:\Program Files (x86)\Microsoft Visual Studio\2019\Community\VC\Tools\MSVC\14.28.29333\include\xtree

; 1015 :             _Inserted = _Tree_temp_node<_Alnode>(_Getal(), _Scary->_Myhead, _STD forward<_Valtys>(_Vals)...)._Release();

  000cf	8d 4d ac	 lea	 ecx, DWORD PTR $T2[ebp]
  000d2	e8 00 00 00 00	 call	 ??1?$_Tree_temp_node@V?$allocator@U?$_Tree_node@U?$pair@$$CBV?$basic_string@DU?$char_traits@D@std@@V?$allocator@D@2@@std@@PAVCGraphicImageInstance@@@std@@PAX@std@@@std@@@std@@QAE@XZ ; std::_Tree_temp_node<std::allocator<std::_Tree_node<std::pair<std::basic_string<char,std::char_traits<char>,std::allocator<char> > const ,CGraphicImageInstance *>,void *> > >::~_Tree_temp_node<std::allocator<std::_Tree_node<std::pair<std::basic_string<char,std::char_traits<char>,std::allocator<char> > const ,CGraphicImageInstance *>,void *> > >

; 1034 :         return {_Scary->_Insert_node(_Loc._Location, _Inserted), true};

  000d7	ff 75 c0	 push	 DWORD PTR __Inserted$[ebp]
  000da	ff 75 a4	 push	 DWORD PTR __Loc$[ebp+4]
  000dd	ff 75 a0	 push	 DWORD PTR __Loc$[ebp]
  000e0	8b 4d ec	 mov	 ecx, DWORD PTR __Scary$[ebp]
  000e3	e8 00 00 00 00	 call	 ?_Insert_node@?$_Tree_val@U?$_Tree_simple_types@U?$pair@$$CBV?$basic_string@DU?$char_traits@D@std@@V?$allocator@D@2@@std@@PAVCGraphicImageInstance@@@std@@@std@@@std@@QAEPAU?$_Tree_node@U?$pair@$$CBV?$basic_string@DU?$char_traits@D@std@@V?$allocator@D@2@@std@@PAVCGraphicImageInstance@@@std@@PAX@2@U?$_Tree_id@PAU?$_Tree_node@U?$pair@$$CBV?$basic_string@DU?$char_traits@D@std@@V?$allocator@D@2@@std@@PAVCGraphicImageInstance@@@std@@PAX@std@@@2@QAU32@@Z ; std::_Tree_val<std::_Tree_simple_types<std::pair<std::basic_string<char,std::char_traits<char>,std::allocator<char> > const ,CGraphicImageInstance *> > >::_Insert_node
  000e8	89 45 bc	 mov	 DWORD PTR $T5[ebp], eax
  000eb	c6 45 fe 01	 mov	 BYTE PTR $T17[ebp], 1
; File C:\Program Files (x86)\Microsoft Visual Studio\2019\Community\VC\Tools\MSVC\14.28.29333\include\type_traits

; 1443 :     return static_cast<_Ty&&>(_Arg);

  000ef	8d 45 bc	 lea	 eax, DWORD PTR $T5[ebp]
  000f2	89 45 b8	 mov	 DWORD PTR $T4[ebp], eax
; File C:\Program Files (x86)\Microsoft Visual Studio\2019\Community\VC\Tools\MSVC\14.28.29333\include\utility

; 190  :         : first(_STD forward<_Other1>(_Val1)), second(_STD forward<_Other2>(_Val2)) {}

  000f5	8b 45 08	 mov	 eax, DWORD PTR ___$ReturnUdt$[ebp]
  000f8	8b 4d b8	 mov	 ecx, DWORD PTR $T4[ebp]
  000fb	8b 09		 mov	 ecx, DWORD PTR [ecx]
  000fd	89 08		 mov	 DWORD PTR [eax], ecx
; File C:\Program Files (x86)\Microsoft Visual Studio\2019\Community\VC\Tools\MSVC\14.28.29333\include\type_traits

; 1443 :     return static_cast<_Ty&&>(_Arg);

  000ff	8d 45 fe	 lea	 eax, DWORD PTR $T17[ebp]
  00102	89 45 b4	 mov	 DWORD PTR $T3[ebp], eax
; File C:\Program Files (x86)\Microsoft Visual Studio\2019\Community\VC\Tools\MSVC\14.28.29333\include\utility

; 190  :         : first(_STD forward<_Other1>(_Val1)), second(_STD forward<_Other2>(_Val2)) {}

  00105	8b 45 08	 mov	 eax, DWORD PTR ___$ReturnUdt$[ebp]
  00108	8b 4d b4	 mov	 ecx, DWORD PTR $T3[ebp]
  0010b	8a 09		 mov	 cl, BYTE PTR [ecx]
  0010d	88 48 04	 mov	 BYTE PTR [eax+4], cl
; File C:\Program Files (x86)\Microsoft Visual Studio\2019\Community\VC\Tools\MSVC\14.28.29333\include\xtree

; 1034 :         return {_Scary->_Insert_node(_Loc._Location, _Inserted), true};

  00110	8b 45 08	 mov	 eax, DWORD PTR ___$ReturnUdt$[ebp]
$LN1@Emplace:

; 1035 :     }

  00113	5f		 pop	 edi
  00114	5e		 pop	 esi
  00115	c9		 leave
  00116	c2 08 00	 ret	 8
??$_Emplace@U?$pair@$$CBV?$basic_string@DU?$char_traits@D@std@@V?$allocator@D@2@@std@@PAVCGraphicImageInstance@@@std@@@?$_Tree@V?$_Tmap_traits@V?$basic_string@DU?$char_traits@D@std@@V?$allocator@D@2@@std@@PAVCGraphicImageInstance@@U?$less@V?$basic_string@DU?$char_traits@D@std@@V?$allocator@D@2@@std@@@2@V?$allocator@U?$pair@$$CBV?$basic_string@DU?$char_traits@D@std@@V?$allocator@D@2@@std@@PAVCGraphicImageInstance@@@std@@@2@$0A@@std@@@std@@IAE?AU?$pair@PAU?$_Tree_node@U?$pair@$$CBV?$basic_string@DU?$char_traits@D@std@@V?$allocator@D@2@@std@@PAVCGraphicImageInstance@@@std@@PAX@std@@_N@1@$$QAU?$pair@$$CBV?$basic_string@DU?$char_traits@D@std@@V?$allocator@D@2@@std@@PAVCGraphicImageInstance@@@1@@Z ENDP ; std::_Tree<std::_Tmap_traits<std::basic_string<char,std::char_traits<char>,std::allocator<char> >,CGraphicImageInstance *,std::less<std::basic_string<char,std::char_traits<char>,std::allocator<char> > >,std::allocator<std::pair<std::basic_string<char,std::char_traits<char>,std::allocator<char> > const ,CGraphicImageInstance *> >,0> >::_Emplace<std::pair<std::basic_string<char,std::char_traits<char>,std::allocator<char> > const ,CGraphicImageInstance *> >
_TEXT	ENDS
; Function compile flags: /Odspy
; File C:\Program Files (x86)\Microsoft Visual Studio\2019\Community\VC\Tools\MSVC\14.28.29333\include\xtree
; File C:\Program Files (x86)\Microsoft Visual Studio\2019\Community\VC\Tools\MSVC\14.28.29333\include\xmemory
; File C:\Program Files (x86)\Microsoft Visual Studio\2019\Community\VC\Tools\MSVC\14.28.29333\include\xtree
;	COMDAT ??$_Buyheadnode@V?$allocator@U?$_Tree_node@U?$pair@$$CBV?$basic_string@DU?$char_traits@D@std@@V?$allocator@D@2@@std@@PAVCGraphicImageInstance@@@std@@PAX@std@@@std@@@?$_Tree_node@U?$pair@$$CBV?$basic_string@DU?$char_traits@D@std@@V?$allocator@D@2@@std@@PAVCGraphicImageInstance@@@std@@PAX@std@@SAPAU01@AAV?$allocator@U?$_Tree_node@U?$pair@$$CBV?$basic_string@DU?$char_traits@D@std@@V?$allocator@D@2@@std@@PAVCGraphicImageInstance@@@std@@PAX@std@@@1@@Z
_TEXT	SEGMENT
__Max_possible$1 = -20					; size = 4
$T2 = -16						; size = 4
$T3 = -12						; size = 4
__Pnode$ = -8						; size = 4
__Overflow_is_possible$4 = -1				; size = 1
__Al$ = 8						; size = 4
??$_Buyheadnode@V?$allocator@U?$_Tree_node@U?$pair@$$CBV?$basic_string@DU?$char_traits@D@std@@V?$allocator@D@2@@std@@PAVCGraphicImageInstance@@@std@@PAX@std@@@std@@@?$_Tree_node@U?$pair@$$CBV?$basic_string@DU?$char_traits@D@std@@V?$allocator@D@2@@std@@PAVCGraphicImageInstance@@@std@@PAX@std@@SAPAU01@AAV?$allocator@U?$_Tree_node@U?$pair@$$CBV?$basic_string@DU?$char_traits@D@std@@V?$allocator@D@2@@std@@PAVCGraphicImageInstance@@@std@@PAX@std@@@1@@Z PROC ; std::_Tree_node<std::pair<std::basic_string<char,std::char_traits<char>,std::allocator<char> > const ,CGraphicImageInstance *>,void *>::_Buyheadnode<std::allocator<std::_Tree_node<std::pair<std::basic_string<char,std::char_traits<char>,std::allocator<char> > const ,CGraphicImageInstance *>,void *> > >, COMDAT

; 341  :     static _Nodeptr _Buyheadnode(_Alloc& _Al) {

  00000	55		 push	 ebp
  00001	8b ec		 mov	 ebp, esp
  00003	83 ec 14	 sub	 esp, 20			; 00000014H
; File C:\Program Files (x86)\Microsoft Visual Studio\2019\Community\VC\Tools\MSVC\14.28.29333\include\xmemory

; 56   :     constexpr bool _Overflow_is_possible = _Ty_size > 1;

  00006	c6 45 ff 01	 mov	 BYTE PTR __Overflow_is_possible$4[ebp], 1

; 57   : 
; 58   :     if _CONSTEXPR_IF (_Overflow_is_possible) {
; 59   :         constexpr size_t _Max_possible = static_cast<size_t>(-1) / _Ty_size;

  0000a	c7 45 ec 5d 74
	d1 05		 mov	 DWORD PTR __Max_possible$1[ebp], 97612893 ; 05d1745dH

; 60   :         if (_Count > _Max_possible) {

  00011	33 c0		 xor	 eax, eax
  00013	40		 inc	 eax
  00014	3d 5d 74 d1 05	 cmp	 eax, 97612893		; 05d1745dH
  00019	76 05		 jbe	 SHORT $LN6@Buyheadnod

; 61   :             _Throw_bad_array_new_length(); // multiply overflow

  0001b	e8 00 00 00 00	 call	 ?_Throw_bad_array_new_length@std@@YAXXZ ; std::_Throw_bad_array_new_length
$LN6@Buyheadnod:

; 62   :         }
; 63   :     }
; 64   : 
; 65   :     return _Count * _Ty_size;

  00020	33 c0		 xor	 eax, eax
  00022	40		 inc	 eax
  00023	6b c0 2c	 imul	 eax, eax, 44
  00026	89 45 f4	 mov	 DWORD PTR $T3[ebp], eax

; 814  :         return static_cast<_Ty*>(_Allocate<_New_alignof<_Ty>>(_Get_size_of_n<sizeof(_Ty)>(_Count)));

  00029	ff 75 f4	 push	 DWORD PTR $T3[ebp]
  0002c	e8 00 00 00 00	 call	 ??$_Allocate@$07U_Default_allocate_traits@std@@$0A@@std@@YAPAXI@Z ; std::_Allocate<8,std::_Default_allocate_traits,0>
  00031	59		 pop	 ecx
  00032	89 45 f0	 mov	 DWORD PTR $T2[ebp], eax
; File C:\Program Files (x86)\Microsoft Visual Studio\2019\Community\VC\Tools\MSVC\14.28.29333\include\xtree

; 343  :         const auto _Pnode = _Al.allocate(1);

  00035	8b 45 f0	 mov	 eax, DWORD PTR $T2[ebp]
  00038	89 45 f8	 mov	 DWORD PTR __Pnode$[ebp], eax

; 344  :         _Construct_in_place(_Pnode->_Left, _Pnode);

  0003b	8d 45 f8	 lea	 eax, DWORD PTR __Pnode$[ebp]
  0003e	50		 push	 eax
  0003f	ff 75 f8	 push	 DWORD PTR __Pnode$[ebp]
  00042	e8 00 00 00 00	 call	 ??$_Construct_in_place@PAU?$_Tree_node@U?$pair@$$CBV?$basic_string@DU?$char_traits@D@std@@V?$allocator@D@2@@std@@PAVCGraphicImageInstance@@@std@@PAX@std@@ABQAU12@@std@@YAXAAPAU?$_Tree_node@U?$pair@$$CBV?$basic_string@DU?$char_traits@D@std@@V?$allocator@D@2@@std@@PAVCGraphicImageInstance@@@std@@PAX@0@ABQAU10@@Z ; std::_Construct_in_place<std::_Tree_node<std::pair<std::basic_string<char,std::char_traits<char>,std::allocator<char> > const ,CGraphicImageInstance *>,void *> *,std::_Tree_node<std::pair<std::basic_string<char,std::char_traits<char>,std::allocator<char> > const ,CGraphicImageInstance *>,void *> * const &>
  00047	59		 pop	 ecx
  00048	59		 pop	 ecx

; 345  :         _Construct_in_place(_Pnode->_Parent, _Pnode);

  00049	8d 45 f8	 lea	 eax, DWORD PTR __Pnode$[ebp]
  0004c	50		 push	 eax
  0004d	8b 45 f8	 mov	 eax, DWORD PTR __Pnode$[ebp]
  00050	83 c0 04	 add	 eax, 4
  00053	50		 push	 eax
  00054	e8 00 00 00 00	 call	 ??$_Construct_in_place@PAU?$_Tree_node@U?$pair@$$CBV?$basic_string@DU?$char_traits@D@std@@V?$allocator@D@2@@std@@PAVCGraphicImageInstance@@@std@@PAX@std@@ABQAU12@@std@@YAXAAPAU?$_Tree_node@U?$pair@$$CBV?$basic_string@DU?$char_traits@D@std@@V?$allocator@D@2@@std@@PAVCGraphicImageInstance@@@std@@PAX@0@ABQAU10@@Z ; std::_Construct_in_place<std::_Tree_node<std::pair<std::basic_string<char,std::char_traits<char>,std::allocator<char> > const ,CGraphicImageInstance *>,void *> *,std::_Tree_node<std::pair<std::basic_string<char,std::char_traits<char>,std::allocator<char> > const ,CGraphicImageInstance *>,void *> * const &>
  00059	59		 pop	 ecx
  0005a	59		 pop	 ecx

; 346  :         _Construct_in_place(_Pnode->_Right, _Pnode);

  0005b	8d 45 f8	 lea	 eax, DWORD PTR __Pnode$[ebp]
  0005e	50		 push	 eax
  0005f	8b 45 f8	 mov	 eax, DWORD PTR __Pnode$[ebp]
  00062	83 c0 08	 add	 eax, 8
  00065	50		 push	 eax
  00066	e8 00 00 00 00	 call	 ??$_Construct_in_place@PAU?$_Tree_node@U?$pair@$$CBV?$basic_string@DU?$char_traits@D@std@@V?$allocator@D@2@@std@@PAVCGraphicImageInstance@@@std@@PAX@std@@ABQAU12@@std@@YAXAAPAU?$_Tree_node@U?$pair@$$CBV?$basic_string@DU?$char_traits@D@std@@V?$allocator@D@2@@std@@PAVCGraphicImageInstance@@@std@@PAX@0@ABQAU10@@Z ; std::_Construct_in_place<std::_Tree_node<std::pair<std::basic_string<char,std::char_traits<char>,std::allocator<char> > const ,CGraphicImageInstance *>,void *> *,std::_Tree_node<std::pair<std::basic_string<char,std::char_traits<char>,std::allocator<char> > const ,CGraphicImageInstance *>,void *> * const &>
  0006b	59		 pop	 ecx
  0006c	59		 pop	 ecx

; 347  :         _Pnode->_Color = _Black;

  0006d	8b 45 f8	 mov	 eax, DWORD PTR __Pnode$[ebp]
  00070	c6 40 0c 01	 mov	 BYTE PTR [eax+12], 1

; 348  :         _Pnode->_Isnil = true;

  00074	8b 45 f8	 mov	 eax, DWORD PTR __Pnode$[ebp]
  00077	c6 40 0d 01	 mov	 BYTE PTR [eax+13], 1

; 349  :         return _Pnode;

  0007b	8b 45 f8	 mov	 eax, DWORD PTR __Pnode$[ebp]
$LN9@Buyheadnod:

; 350  :     }

  0007e	c9		 leave
  0007f	c3		 ret	 0
??$_Buyheadnode@V?$allocator@U?$_Tree_node@U?$pair@$$CBV?$basic_string@DU?$char_traits@D@std@@V?$allocator@D@2@@std@@PAVCGraphicImageInstance@@@std@@PAX@std@@@std@@@?$_Tree_node@U?$pair@$$CBV?$basic_string@DU?$char_traits@D@std@@V?$allocator@D@2@@std@@PAVCGraphicImageInstance@@@std@@PAX@std@@SAPAU01@AAV?$allocator@U?$_Tree_node@U?$pair@$$CBV?$basic_string@DU?$char_traits@D@std@@V?$allocator@D@2@@std@@PAVCGraphicImageInstance@@@std@@PAX@std@@@1@@Z ENDP ; std::_Tree_node<std::pair<std::basic_string<char,std::char_traits<char>,std::allocator<char> > const ,CGraphicImageInstance *>,void *>::_Buyheadnode<std::allocator<std::_Tree_node<std::pair<std::basic_string<char,std::char_traits<char>,std::allocator<char> > const ,CGraphicImageInstance *>,void *> > >
_TEXT	ENDS
; Function compile flags: /Odspy
; File C:\Program Files (x86)\Microsoft Visual Studio\2019\Community\VC\Tools\MSVC\14.28.29333\include\xmemory
; File C:\Program Files (x86)\Microsoft Visual Studio\2019\Community\VC\Tools\MSVC\14.28.29333\include\xstddef
; File C:\Program Files (x86)\Microsoft Visual Studio\2019\Community\VC\Tools\MSVC\14.28.29333\include\xmemory
;	COMDAT ??$_Destroy_range@V?$allocator@VCSkyObjectQuad@@@std@@@std@@YAXPAVCSkyObjectQuad@@QAV1@AAV?$allocator@VCSkyObjectQuad@@@0@@Z
_TEXT	SEGMENT
$T1 = -4						; size = 4
__First$ = 8						; size = 4
__Last$ = 12						; size = 4
__Al$ = 16						; size = 4
??$_Destroy_range@V?$allocator@VCSkyObjectQuad@@@std@@@std@@YAXPAVCSkyObjectQuad@@QAV1@AAV?$allocator@VCSkyObjectQuad@@@0@@Z PROC ; std::_Destroy_range<std::allocator<CSkyObjectQuad> >, COMDAT

; 962  :     _Alloc_ptr_t<_Alloc> _First, const _Alloc_ptr_t<_Alloc> _Last, _Alloc& _Al) noexcept {

  00000	55		 push	 ebp
  00001	8b ec		 mov	 ebp, esp
  00003	51		 push	 ecx

; 963  :     // note that this is an optimization for debug mode codegen; in release mode the BE removes all of this
; 964  :     using _Ty = typename _Alloc::value_type;
; 965  :     if _CONSTEXPR_IF (!conjunction_v<is_trivially_destructible<_Ty>, _Uses_default_destroy<_Alloc, _Ty*>>) {
; 966  :         for (; _First != _Last; ++_First) {

  00004	eb 0b		 jmp	 SHORT $LN4@Destroy_ra
$LN2@Destroy_ra:
  00006	8b 45 08	 mov	 eax, DWORD PTR __First$[ebp]
  00009	05 2c 01 00 00	 add	 eax, 300		; 0000012cH
  0000e	89 45 08	 mov	 DWORD PTR __First$[ebp], eax
$LN4@Destroy_ra:
  00011	8b 45 08	 mov	 eax, DWORD PTR __First$[ebp]
  00014	3b 45 0c	 cmp	 eax, DWORD PTR __Last$[ebp]
  00017	74 14		 je	 SHORT $LN5@Destroy_ra
; File C:\Program Files (x86)\Microsoft Visual Studio\2019\Community\VC\Tools\MSVC\14.28.29333\include\xstddef

; 289  :     return _Ptr;

  00019	8b 45 08	 mov	 eax, DWORD PTR __First$[ebp]
  0001c	89 45 fc	 mov	 DWORD PTR $T1[ebp], eax
; File C:\Program Files (x86)\Microsoft Visual Studio\2019\Community\VC\Tools\MSVC\14.28.29333\include\xmemory

; 706  :         _Ptr->~_Uty();

  0001f	6a 00		 push	 0
  00021	8b 45 fc	 mov	 eax, DWORD PTR $T1[ebp]
  00024	8b 00		 mov	 eax, DWORD PTR [eax]
  00026	8b 4d fc	 mov	 ecx, DWORD PTR $T1[ebp]
  00029	ff 10		 call	 DWORD PTR [eax]

; 967  :             allocator_traits<_Alloc>::destroy(_Al, _Unfancy(_First));
; 968  :         }

  0002b	eb d9		 jmp	 SHORT $LN2@Destroy_ra
$LN5@Destroy_ra:

; 969  :     }
; 970  : }

  0002d	c9		 leave
  0002e	c3		 ret	 0
??$_Destroy_range@V?$allocator@VCSkyObjectQuad@@@std@@@std@@YAXPAVCSkyObjectQuad@@QAV1@AAV?$allocator@VCSkyObjectQuad@@@0@@Z ENDP ; std::_Destroy_range<std::allocator<CSkyObjectQuad> >
_TEXT	ENDS
; Function compile flags: /Odspy
; File C:\Program Files (x86)\Microsoft Visual Studio\2019\Community\VC\Tools\MSVC\14.28.29333\include\vector
; File C:\Program Files (x86)\Microsoft Visual Studio\2019\Community\VC\Tools\MSVC\14.28.29333\include\xmemory
; File C:\Program Files (x86)\Microsoft Visual Studio\2019\Community\VC\Tools\MSVC\14.28.29333\include\vector
; File C:\Program Files (x86)\Microsoft Visual Studio\2019\Community\VC\Tools\MSVC\14.28.29333\include\xmemory
; File C:\Program Files (x86)\Microsoft Visual Studio\2019\Community\VC\Tools\MSVC\14.28.29333\include\vector
;	COMDAT ??$_Resize@U_Value_init_tag@std@@@?$vector@VCSkyObjectQuad@@V?$allocator@VCSkyObjectQuad@@@std@@@std@@AAEXIABU_Value_init_tag@1@@Z
_TEXT	SEGMENT
__Oldlast$1 = -56					; size = 4
$T2 = -52						; size = 4
$T3 = -48						; size = 4
__Oldcapacity$4 = -44					; size = 4
__Last$ = -40						; size = 4
$T5 = -36						; size = 4
$T6 = -32						; size = 4
__Newlast$7 = -28					; size = 4
__Oldsize$ = -24					; size = 4
__Myfirst$ = -20					; size = 4
__My_data$ = -16					; size = 4
_this$ = -12						; size = 4
__Mylast$ = -8						; size = 4
___formal$ = -4						; size = 1
__Newsize$ = 8						; size = 4
__Val$ = 12						; size = 4
??$_Resize@U_Value_init_tag@std@@@?$vector@VCSkyObjectQuad@@V?$allocator@VCSkyObjectQuad@@@std@@@std@@AAEXIABU_Value_init_tag@1@@Z PROC ; std::vector<CSkyObjectQuad,std::allocator<CSkyObjectQuad> >::_Resize<std::_Value_init_tag>, COMDAT
; _this$ = ecx

; 1211 :     void _Resize(const size_type _Newsize, const _Ty2& _Val) { // trim or append elements, provide strong guarantee

  00000	55		 push	 ebp
  00001	8b ec		 mov	 ebp, esp
  00003	83 ec 38	 sub	 esp, 56			; 00000038H
  00006	89 4d f4	 mov	 DWORD PTR _this$[ebp], ecx

; 1212 :         auto& _My_data      = _Mypair._Myval2;

  00009	8b 45 f4	 mov	 eax, DWORD PTR _this$[ebp]
  0000c	89 45 f0	 mov	 DWORD PTR __My_data$[ebp], eax

; 1213 :         pointer& _Myfirst   = _My_data._Myfirst;

  0000f	8b 45 f0	 mov	 eax, DWORD PTR __My_data$[ebp]
  00012	89 45 ec	 mov	 DWORD PTR __Myfirst$[ebp], eax

; 1214 :         pointer& _Mylast    = _My_data._Mylast;

  00015	8b 45 f0	 mov	 eax, DWORD PTR __My_data$[ebp]
  00018	83 c0 04	 add	 eax, 4
  0001b	89 45 f8	 mov	 DWORD PTR __Mylast$[ebp], eax

; 1215 :         const auto _Oldsize = static_cast<size_type>(_Mylast - _Myfirst);

  0001e	8b 45 f8	 mov	 eax, DWORD PTR __Mylast$[ebp]
  00021	8b 4d ec	 mov	 ecx, DWORD PTR __Myfirst$[ebp]
  00024	8b 00		 mov	 eax, DWORD PTR [eax]
  00026	2b 01		 sub	 eax, DWORD PTR [ecx]
  00028	99		 cdq
  00029	b9 2c 01 00 00	 mov	 ecx, 300		; 0000012cH
  0002e	f7 f9		 idiv	 ecx
  00030	89 45 e8	 mov	 DWORD PTR __Oldsize$[ebp], eax

; 1216 :         if (_Newsize < _Oldsize) { // trim

  00033	8b 45 08	 mov	 eax, DWORD PTR __Newsize$[ebp]
  00036	3b 45 e8	 cmp	 eax, DWORD PTR __Oldsize$[ebp]
  00039	73 3e		 jae	 SHORT $LN2@Resize

; 1217 :             const pointer _Newlast = _Myfirst + _Newsize;

  0003b	69 45 08 2c 01
	00 00		 imul	 eax, DWORD PTR __Newsize$[ebp], 300
  00042	8b 4d ec	 mov	 ecx, DWORD PTR __Myfirst$[ebp]
  00045	03 01		 add	 eax, DWORD PTR [ecx]
  00047	89 45 e4	 mov	 DWORD PTR __Newlast$7[ebp], eax

; 1218 :             _Orphan_range(_Newlast, _Mylast);
; 1219 :             _Destroy(_Newlast, _Mylast);

  0004a	8b 45 f8	 mov	 eax, DWORD PTR __Mylast$[ebp]
  0004d	8b 00		 mov	 eax, DWORD PTR [eax]
  0004f	89 45 d8	 mov	 DWORD PTR __Last$[ebp], eax

; 1733 :         return _Mypair._Get_first();

  00052	8b 45 f4	 mov	 eax, DWORD PTR _this$[ebp]
; File C:\Program Files (x86)\Microsoft Visual Studio\2019\Community\VC\Tools\MSVC\14.28.29333\include\xmemory

; 1347 :         return *this;

  00055	89 45 e0	 mov	 DWORD PTR $T6[ebp], eax
; File C:\Program Files (x86)\Microsoft Visual Studio\2019\Community\VC\Tools\MSVC\14.28.29333\include\vector

; 1733 :         return _Mypair._Get_first();

  00058	8b 45 e0	 mov	 eax, DWORD PTR $T6[ebp]
  0005b	89 45 dc	 mov	 DWORD PTR $T5[ebp], eax

; 1612 :         _Destroy_range(_First, _Last, _Getal());

  0005e	ff 75 dc	 push	 DWORD PTR $T5[ebp]
  00061	ff 75 d8	 push	 DWORD PTR __Last$[ebp]
  00064	ff 75 e4	 push	 DWORD PTR __Newlast$7[ebp]
  00067	e8 00 00 00 00	 call	 ??$_Destroy_range@V?$allocator@VCSkyObjectQuad@@@std@@@std@@YAXPAVCSkyObjectQuad@@QAV1@AAV?$allocator@VCSkyObjectQuad@@@0@@Z ; std::_Destroy_range<std::allocator<CSkyObjectQuad> >
  0006c	83 c4 0c	 add	 esp, 12			; 0000000cH

; 1220 :             _Mylast = _Newlast;

  0006f	8b 45 f8	 mov	 eax, DWORD PTR __Mylast$[ebp]
  00072	8b 4d e4	 mov	 ecx, DWORD PTR __Newlast$7[ebp]
  00075	89 08		 mov	 DWORD PTR [eax], ecx

; 1221 :             return;

  00077	eb 6c		 jmp	 SHORT $LN1@Resize
$LN2@Resize:

; 1222 :         }
; 1223 : 
; 1224 :         if (_Newsize > _Oldsize) { // append

  00079	8b 45 08	 mov	 eax, DWORD PTR __Newsize$[ebp]
  0007c	3b 45 e8	 cmp	 eax, DWORD PTR __Oldsize$[ebp]
  0007f	76 64		 jbe	 SHORT $LN1@Resize

; 1225 :             const auto _Oldcapacity = static_cast<size_type>(_My_data._Myend - _Myfirst);

  00081	8b 45 f0	 mov	 eax, DWORD PTR __My_data$[ebp]
  00084	8b 4d ec	 mov	 ecx, DWORD PTR __Myfirst$[ebp]
  00087	8b 40 08	 mov	 eax, DWORD PTR [eax+8]
  0008a	2b 01		 sub	 eax, DWORD PTR [ecx]
  0008c	99		 cdq
  0008d	b9 2c 01 00 00	 mov	 ecx, 300		; 0000012cH
  00092	f7 f9		 idiv	 ecx
  00094	89 45 d4	 mov	 DWORD PTR __Oldcapacity$4[ebp], eax

; 1226 :             if (_Newsize > _Oldcapacity) { // reallocate

  00097	8b 45 08	 mov	 eax, DWORD PTR __Newsize$[ebp]
  0009a	3b 45 d4	 cmp	 eax, DWORD PTR __Oldcapacity$4[ebp]
  0009d	76 10		 jbe	 SHORT $LN4@Resize

; 1227 :                 _Resize_reallocate(_Newsize, _Val);

  0009f	ff 75 0c	 push	 DWORD PTR __Val$[ebp]
  000a2	ff 75 08	 push	 DWORD PTR __Newsize$[ebp]
  000a5	8b 4d f4	 mov	 ecx, DWORD PTR _this$[ebp]
  000a8	e8 00 00 00 00	 call	 ??$_Resize_reallocate@U_Value_init_tag@std@@@?$vector@VCSkyObjectQuad@@V?$allocator@VCSkyObjectQuad@@@std@@@std@@AAEXIABU_Value_init_tag@1@@Z ; std::vector<CSkyObjectQuad,std::allocator<CSkyObjectQuad> >::_Resize_reallocate<std::_Value_init_tag>

; 1228 :                 return;

  000ad	eb 36		 jmp	 SHORT $LN1@Resize
$LN4@Resize:

; 1229 :             }
; 1230 : 
; 1231 :             const pointer _Oldlast = _Mylast;

  000af	8b 45 f8	 mov	 eax, DWORD PTR __Mylast$[ebp]
  000b2	8b 00		 mov	 eax, DWORD PTR [eax]
  000b4	89 45 c8	 mov	 DWORD PTR __Oldlast$1[ebp], eax

; 1232 :             _Mylast                = _Ufill(_Oldlast, _Newsize - _Oldsize, _Val);

  000b7	8b 45 0c	 mov	 eax, DWORD PTR __Val$[ebp]
  000ba	8a 00		 mov	 al, BYTE PTR [eax]
  000bc	88 45 fc	 mov	 BYTE PTR ___formal$[ebp], al

; 1733 :         return _Mypair._Get_first();

  000bf	8b 45 f4	 mov	 eax, DWORD PTR _this$[ebp]
; File C:\Program Files (x86)\Microsoft Visual Studio\2019\Community\VC\Tools\MSVC\14.28.29333\include\xmemory

; 1347 :         return *this;

  000c2	89 45 d0	 mov	 DWORD PTR $T3[ebp], eax
; File C:\Program Files (x86)\Microsoft Visual Studio\2019\Community\VC\Tools\MSVC\14.28.29333\include\vector

; 1733 :         return _Mypair._Get_first();

  000c5	8b 45 d0	 mov	 eax, DWORD PTR $T3[ebp]
  000c8	89 45 cc	 mov	 DWORD PTR $T2[ebp], eax

; 1583 :         return _Uninitialized_value_construct_n(_Dest, _Count, _Getal());

  000cb	ff 75 cc	 push	 DWORD PTR $T2[ebp]

; 1232 :             _Mylast                = _Ufill(_Oldlast, _Newsize - _Oldsize, _Val);

  000ce	8b 45 08	 mov	 eax, DWORD PTR __Newsize$[ebp]
  000d1	2b 45 e8	 sub	 eax, DWORD PTR __Oldsize$[ebp]

; 1583 :         return _Uninitialized_value_construct_n(_Dest, _Count, _Getal());

  000d4	50		 push	 eax
  000d5	ff 75 c8	 push	 DWORD PTR __Oldlast$1[ebp]
  000d8	e8 00 00 00 00	 call	 ??$_Uninitialized_value_construct_n@V?$allocator@VCSkyObjectQuad@@@std@@@std@@YAPAVCSkyObjectQuad@@PAV1@IAAV?$allocator@VCSkyObjectQuad@@@0@@Z ; std::_Uninitialized_value_construct_n<std::allocator<CSkyObjectQuad> >
  000dd	83 c4 0c	 add	 esp, 12			; 0000000cH

; 1232 :             _Mylast                = _Ufill(_Oldlast, _Newsize - _Oldsize, _Val);

  000e0	8b 4d f8	 mov	 ecx, DWORD PTR __Mylast$[ebp]
  000e3	89 01		 mov	 DWORD PTR [ecx], eax
$LN1@Resize:

; 1233 :             _Orphan_range(_Oldlast, _Oldlast);
; 1234 :         }
; 1235 : 
; 1236 :         // if _Newsize == _Oldsize, do nothing; avoid invalidating iterators
; 1237 :     }

  000e5	c9		 leave
  000e6	c2 08 00	 ret	 8
??$_Resize@U_Value_init_tag@std@@@?$vector@VCSkyObjectQuad@@V?$allocator@VCSkyObjectQuad@@@std@@@std@@AAEXIABU_Value_init_tag@1@@Z ENDP ; std::vector<CSkyObjectQuad,std::allocator<CSkyObjectQuad> >::_Resize<std::_Value_init_tag>
_TEXT	ENDS
; Function compile flags: /Odspy
; File C:\Program Files (x86)\Microsoft Visual Studio\2019\Community\VC\Tools\MSVC\14.28.29333\include\xtree
; File C:\Program Files (x86)\Microsoft Visual Studio\2019\Community\VC\Tools\MSVC\14.28.29333\include\utility
; File C:\Program Files (x86)\Microsoft Visual Studio\2019\Community\VC\Tools\MSVC\14.28.29333\include\xtree
;	COMDAT ??$_Erase_tree@V?$allocator@U?$_Tree_node@U?$pair@$$CBV?$basic_string@DU?$char_traits@D@std@@V?$allocator@D@2@@std@@PAVCGraphicImageInstance@@@std@@PAX@std@@@std@@@?$_Tree_val@U?$_Tree_simple_types@U?$pair@$$CBV?$basic_string@DU?$char_traits@D@std@@V?$allocator@D@2@@std@@PAVCGraphicImageInstance@@@std@@@std@@@std@@QAEXAAV?$allocator@U?$_Tree_node@U?$pair@$$CBV?$basic_string@DU?$char_traits@D@std@@V?$allocator@D@2@@std@@PAVCGraphicImageInstance@@@std@@PAX@std@@@1@PAU?$_Tree_node@U?$pair@$$CBV?$basic_string@DU?$char_traits@D@std@@V?$allocator@D@2@@std@@PAVCGraphicImageInstance@@@std@@PAX@1@@Z
_TEXT	SEGMENT
$T1 = -16						; size = 4
__Old_val$2 = -12					; size = 4
__New_val$ = -8						; size = 4
_this$ = -4						; size = 4
__Al$ = 8						; size = 4
__Rootnode$ = 12					; size = 4
??$_Erase_tree@V?$allocator@U?$_Tree_node@U?$pair@$$CBV?$basic_string@DU?$char_traits@D@std@@V?$allocator@D@2@@std@@PAVCGraphicImageInstance@@@std@@PAX@std@@@std@@@?$_Tree_val@U?$_Tree_simple_types@U?$pair@$$CBV?$basic_string@DU?$char_traits@D@std@@V?$allocator@D@2@@std@@PAVCGraphicImageInstance@@@std@@@std@@@std@@QAEXAAV?$allocator@U?$_Tree_node@U?$pair@$$CBV?$basic_string@DU?$char_traits@D@std@@V?$allocator@D@2@@std@@PAVCGraphicImageInstance@@@std@@PAX@std@@@1@PAU?$_Tree_node@U?$pair@$$CBV?$basic_string@DU?$char_traits@D@std@@V?$allocator@D@2@@std@@PAVCGraphicImageInstance@@@std@@PAX@1@@Z PROC ; std::_Tree_val<std::_Tree_simple_types<std::pair<std::basic_string<char,std::char_traits<char>,std::allocator<char> > const ,CGraphicImageInstance *> > >::_Erase_tree<std::allocator<std::_Tree_node<std::pair<std::basic_string<char,std::char_traits<char>,std::allocator<char> > const ,CGraphicImageInstance *>,void *> > >, COMDAT
; _this$ = ecx

; 742  :     void _Erase_tree(_Alnode& _Al, _Nodeptr _Rootnode) noexcept {

  00000	55		 push	 ebp
  00001	8b ec		 mov	 ebp, esp
  00003	83 ec 10	 sub	 esp, 16			; 00000010H
  00006	89 4d fc	 mov	 DWORD PTR _this$[ebp], ecx
$LN2@Erase_tree:

; 743  :         while (!_Rootnode->_Isnil) { // free subtrees, then node

  00009	8b 45 0c	 mov	 eax, DWORD PTR __Rootnode$[ebp]
  0000c	0f be 40 0d	 movsx	 eax, BYTE PTR [eax+13]
  00010	85 c0		 test	 eax, eax
  00012	75 3a		 jne	 SHORT $LN4@Erase_tree

; 744  :             _Erase_tree(_Al, _Rootnode->_Right);

  00014	8b 45 0c	 mov	 eax, DWORD PTR __Rootnode$[ebp]
  00017	ff 70 08	 push	 DWORD PTR [eax+8]
  0001a	ff 75 08	 push	 DWORD PTR __Al$[ebp]
  0001d	8b 4d fc	 mov	 ecx, DWORD PTR _this$[ebp]
  00020	e8 00 00 00 00	 call	 ??$_Erase_tree@V?$allocator@U?$_Tree_node@U?$pair@$$CBV?$basic_string@DU?$char_traits@D@std@@V?$allocator@D@2@@std@@PAVCGraphicImageInstance@@@std@@PAX@std@@@std@@@?$_Tree_val@U?$_Tree_simple_types@U?$pair@$$CBV?$basic_string@DU?$char_traits@D@std@@V?$allocator@D@2@@std@@PAVCGraphicImageInstance@@@std@@@std@@@std@@QAEXAAV?$allocator@U?$_Tree_node@U?$pair@$$CBV?$basic_string@DU?$char_traits@D@std@@V?$allocator@D@2@@std@@PAVCGraphicImageInstance@@@std@@PAX@std@@@1@PAU?$_Tree_node@U?$pair@$$CBV?$basic_string@DU?$char_traits@D@std@@V?$allocator@D@2@@std@@PAVCGraphicImageInstance@@@std@@PAX@1@@Z ; std::_Tree_val<std::_Tree_simple_types<std::pair<std::basic_string<char,std::char_traits<char>,std::allocator<char> > const ,CGraphicImageInstance *> > >::_Erase_tree<std::allocator<std::_Tree_node<std::pair<std::basic_string<char,std::char_traits<char>,std::allocator<char> > const ,CGraphicImageInstance *>,void *> > >

; 745  :             _Alnode::value_type::_Freenode(_Al, _STD exchange(_Rootnode, _Rootnode->_Left));

  00025	8b 45 0c	 mov	 eax, DWORD PTR __Rootnode$[ebp]
  00028	89 45 f8	 mov	 DWORD PTR __New_val$[ebp], eax
; File C:\Program Files (x86)\Microsoft Visual Studio\2019\Community\VC\Tools\MSVC\14.28.29333\include\utility

; 598  :     _Ty _Old_val = static_cast<_Ty&&>(_Val);

  0002b	8b 45 0c	 mov	 eax, DWORD PTR __Rootnode$[ebp]
  0002e	89 45 f4	 mov	 DWORD PTR __Old_val$2[ebp], eax

; 599  :     _Val         = static_cast<_Other&&>(_New_val);

  00031	8b 45 f8	 mov	 eax, DWORD PTR __New_val$[ebp]
  00034	8b 00		 mov	 eax, DWORD PTR [eax]
  00036	89 45 0c	 mov	 DWORD PTR __Rootnode$[ebp], eax

; 600  :     return _Old_val;

  00039	8b 45 f4	 mov	 eax, DWORD PTR __Old_val$2[ebp]
  0003c	89 45 f0	 mov	 DWORD PTR $T1[ebp], eax
; File C:\Program Files (x86)\Microsoft Visual Studio\2019\Community\VC\Tools\MSVC\14.28.29333\include\xtree

; 745  :             _Alnode::value_type::_Freenode(_Al, _STD exchange(_Rootnode, _Rootnode->_Left));

  0003f	ff 75 f0	 push	 DWORD PTR $T1[ebp]
  00042	ff 75 08	 push	 DWORD PTR __Al$[ebp]
  00045	e8 00 00 00 00	 call	 ??$_Freenode@V?$allocator@U?$_Tree_node@U?$pair@$$CBV?$basic_string@DU?$char_traits@D@std@@V?$allocator@D@2@@std@@PAVCGraphicImageInstance@@@std@@PAX@std@@@std@@@?$_Tree_node@U?$pair@$$CBV?$basic_string@DU?$char_traits@D@std@@V?$allocator@D@2@@std@@PAVCGraphicImageInstance@@@std@@PAX@std@@SAXAAV?$allocator@U?$_Tree_node@U?$pair@$$CBV?$basic_string@DU?$char_traits@D@std@@V?$allocator@D@2@@std@@PAVCGraphicImageInstance@@@std@@PAX@std@@@1@PAU01@@Z ; std::_Tree_node<std::pair<std::basic_string<char,std::char_traits<char>,std::allocator<char> > const ,CGraphicImageInstance *>,void *>::_Freenode<std::allocator<std::_Tree_node<std::pair<std::basic_string<char,std::char_traits<char>,std::allocator<char> > const ,CGraphicImageInstance *>,void *> > >
  0004a	59		 pop	 ecx
  0004b	59		 pop	 ecx

; 746  :         }

  0004c	eb bb		 jmp	 SHORT $LN2@Erase_tree
$LN4@Erase_tree:

; 747  :     }

  0004e	c9		 leave
  0004f	c2 08 00	 ret	 8
??$_Erase_tree@V?$allocator@U?$_Tree_node@U?$pair@$$CBV?$basic_string@DU?$char_traits@D@std@@V?$allocator@D@2@@std@@PAVCGraphicImageInstance@@@std@@PAX@std@@@std@@@?$_Tree_val@U?$_Tree_simple_types@U?$pair@$$CBV?$basic_string@DU?$char_traits@D@std@@V?$allocator@D@2@@std@@PAVCGraphicImageInstance@@@std@@@std@@@std@@QAEXAAV?$allocator@U?$_Tree_node@U?$pair@$$CBV?$basic_string@DU?$char_traits@D@std@@V?$allocator@D@2@@std@@PAVCGraphicImageInstance@@@std@@PAX@std@@@1@PAU?$_Tree_node@U?$pair@$$CBV?$basic_string@DU?$char_traits@D@std@@V?$allocator@D@2@@std@@PAVCGraphicImageInstance@@@std@@PAX@1@@Z ENDP ; std::_Tree_val<std::_Tree_simple_types<std::pair<std::basic_string<char,std::char_traits<char>,std::allocator<char> > const ,CGraphicImageInstance *> > >::_Erase_tree<std::allocator<std::_Tree_node<std::pair<std::basic_string<char,std::char_traits<char>,std::allocator<char> > const ,CGraphicImageInstance *>,void *> > >
_TEXT	ENDS
; Function compile flags: /Odspy
; File C:\Program Files (x86)\Microsoft Visual Studio\2019\Community\VC\Tools\MSVC\14.28.29333\include\xtree
; File C:\Program Files (x86)\Microsoft Visual Studio\2019\Community\VC\Tools\MSVC\14.28.29333\include\xstddef
; File C:\Program Files (x86)\Microsoft Visual Studio\2019\Community\VC\Tools\MSVC\14.28.29333\include\xtree
;	COMDAT ??$_Find@V?$basic_string@DU?$char_traits@D@std@@V?$allocator@D@2@@std@@@?$_Tree@V?$_Tmap_traits@V?$basic_string@DU?$char_traits@D@std@@V?$allocator@D@2@@std@@PAVCGraphicImageInstance@@U?$less@V?$basic_string@DU?$char_traits@D@std@@V?$allocator@D@2@@std@@@2@V?$allocator@U?$pair@$$CBV?$basic_string@DU?$char_traits@D@std@@V?$allocator@D@2@@std@@PAVCGraphicImageInstance@@@std@@@2@$0A@@std@@@std@@ABEPAU?$_Tree_node@U?$pair@$$CBV?$basic_string@DU?$char_traits@D@std@@V?$allocator@D@2@@std@@PAVCGraphicImageInstance@@@std@@PAX@1@ABV?$basic_string@DU?$char_traits@D@std@@V?$allocator@D@2@@1@@Z
_TEXT	SEGMENT
__Loc$ = -24						; size = 12
$T1 = -12						; size = 4
$T2 = -8						; size = 4
_this$ = -4						; size = 4
__Keyval$ = 8						; size = 4
??$_Find@V?$basic_string@DU?$char_traits@D@std@@V?$allocator@D@2@@std@@@?$_Tree@V?$_Tmap_traits@V?$basic_string@DU?$char_traits@D@std@@V?$allocator@D@2@@std@@PAVCGraphicImageInstance@@U?$less@V?$basic_string@DU?$char_traits@D@std@@V?$allocator@D@2@@std@@@2@V?$allocator@U?$pair@$$CBV?$basic_string@DU?$char_traits@D@std@@V?$allocator@D@2@@std@@PAVCGraphicImageInstance@@@std@@@2@$0A@@std@@@std@@ABEPAU?$_Tree_node@U?$pair@$$CBV?$basic_string@DU?$char_traits@D@std@@V?$allocator@D@2@@std@@PAVCGraphicImageInstance@@@std@@PAX@1@ABV?$basic_string@DU?$char_traits@D@std@@V?$allocator@D@2@@1@@Z PROC ; std::_Tree<std::_Tmap_traits<std::basic_string<char,std::char_traits<char>,std::allocator<char> >,CGraphicImageInstance *,std::less<std::basic_string<char,std::char_traits<char>,std::allocator<char> > >,std::allocator<std::pair<std::basic_string<char,std::char_traits<char>,std::allocator<char> > const ,CGraphicImageInstance *> >,0> >::_Find<std::basic_string<char,std::char_traits<char>,std::allocator<char> > >, COMDAT
; _this$ = ecx

; 1457 :     _NODISCARD _Nodeptr _Find(const _Other& _Keyval) const {

  00000	55		 push	 ebp
  00001	8b ec		 mov	 ebp, esp
  00003	83 ec 18	 sub	 esp, 24			; 00000018H
  00006	89 4d fc	 mov	 DWORD PTR _this$[ebp], ecx

; 1458 :         const _Tree_find_result<_Nodeptr> _Loc = _Find_lower_bound(_Keyval);

  00009	ff 75 08	 push	 DWORD PTR __Keyval$[ebp]
  0000c	8d 45 e8	 lea	 eax, DWORD PTR __Loc$[ebp]
  0000f	50		 push	 eax
  00010	8b 4d fc	 mov	 ecx, DWORD PTR _this$[ebp]
  00013	e8 00 00 00 00	 call	 ??$_Find_lower_bound@V?$basic_string@DU?$char_traits@D@std@@V?$allocator@D@2@@std@@@?$_Tree@V?$_Tmap_traits@V?$basic_string@DU?$char_traits@D@std@@V?$allocator@D@2@@std@@PAVCGraphicImageInstance@@U?$less@V?$basic_string@DU?$char_traits@D@std@@V?$allocator@D@2@@std@@@2@V?$allocator@U?$pair@$$CBV?$basic_string@DU?$char_traits@D@std@@V?$allocator@D@2@@std@@PAVCGraphicImageInstance@@@std@@@2@$0A@@std@@@std@@IBE?AU?$_Tree_find_result@PAU?$_Tree_node@U?$pair@$$CBV?$basic_string@DU?$char_traits@D@std@@V?$allocator@D@2@@std@@PAVCGraphicImageInstance@@@std@@PAX@std@@@1@ABV?$basic_string@DU?$char_traits@D@std@@V?$allocator@D@2@@1@@Z ; std::_Tree<std::_Tmap_traits<std::basic_string<char,std::char_traits<char>,std::allocator<char> >,CGraphicImageInstance *,std::less<std::basic_string<char,std::char_traits<char>,std::allocator<char> > >,std::allocator<std::pair<std::basic_string<char,std::char_traits<char>,std::allocator<char> > const ,CGraphicImageInstance *> >,0> >::_Find_lower_bound<std::basic_string<char,std::char_traits<char>,std::allocator<char> > >

; 1459 :         if (_Lower_bound_duplicate(_Loc._Bound, _Keyval)) {

  00018	ff 75 08	 push	 DWORD PTR __Keyval$[ebp]
  0001b	ff 75 f0	 push	 DWORD PTR __Loc$[ebp+8]
  0001e	8b 4d fc	 mov	 ecx, DWORD PTR _this$[ebp]
  00021	e8 00 00 00 00	 call	 ??$_Lower_bound_duplicate@V?$basic_string@DU?$char_traits@D@std@@V?$allocator@D@2@@std@@@?$_Tree@V?$_Tmap_traits@V?$basic_string@DU?$char_traits@D@std@@V?$allocator@D@2@@std@@PAVCGraphicImageInstance@@U?$less@V?$basic_string@DU?$char_traits@D@std@@V?$allocator@D@2@@std@@@2@V?$allocator@U?$pair@$$CBV?$basic_string@DU?$char_traits@D@std@@V?$allocator@D@2@@std@@PAVCGraphicImageInstance@@@std@@@2@$0A@@std@@@std@@IBE_NQAU?$_Tree_node@U?$pair@$$CBV?$basic_string@DU?$char_traits@D@std@@V?$allocator@D@2@@std@@PAVCGraphicImageInstance@@@std@@PAX@1@ABV?$basic_string@DU?$char_traits@D@std@@V?$allocator@D@2@@1@@Z ; std::_Tree<std::_Tmap_traits<std::basic_string<char,std::char_traits<char>,std::allocator<char> >,CGraphicImageInstance *,std::less<std::basic_string<char,std::char_traits<char>,std::allocator<char> > >,std::allocator<std::pair<std::basic_string<char,std::char_traits<char>,std::allocator<char> > const ,CGraphicImageInstance *> >,0> >::_Lower_bound_duplicate<std::basic_string<char,std::char_traits<char>,std::allocator<char> > >
  00026	0f b6 c0	 movzx	 eax, al
  00029	85 c0		 test	 eax, eax
  0002b	74 05		 je	 SHORT $LN2@Find

; 1460 :             return _Loc._Bound;

  0002d	8b 45 f0	 mov	 eax, DWORD PTR __Loc$[ebp+8]
  00030	eb 11		 jmp	 SHORT $LN1@Find
$LN2@Find:

; 2051 :         return _STD addressof(_Mypair._Myval2._Myval2);

  00032	8b 45 fc	 mov	 eax, DWORD PTR _this$[ebp]
; File C:\Program Files (x86)\Microsoft Visual Studio\2019\Community\VC\Tools\MSVC\14.28.29333\include\xstddef

; 275  :     return __builtin_addressof(_Val);

  00035	89 45 f8	 mov	 DWORD PTR $T2[ebp], eax
; File C:\Program Files (x86)\Microsoft Visual Studio\2019\Community\VC\Tools\MSVC\14.28.29333\include\xtree

; 2051 :         return _STD addressof(_Mypair._Myval2._Myval2);

  00038	8b 45 f8	 mov	 eax, DWORD PTR $T2[ebp]
  0003b	89 45 f4	 mov	 DWORD PTR $T1[ebp], eax

; 1461 :         }
; 1462 : 
; 1463 :         return _Get_scary()->_Myhead;

  0003e	8b 45 f4	 mov	 eax, DWORD PTR $T1[ebp]
  00041	8b 00		 mov	 eax, DWORD PTR [eax]
$LN1@Find:

; 1464 :     }

  00043	c9		 leave
  00044	c2 04 00	 ret	 4
??$_Find@V?$basic_string@DU?$char_traits@D@std@@V?$allocator@D@2@@std@@@?$_Tree@V?$_Tmap_traits@V?$basic_string@DU?$char_traits@D@std@@V?$allocator@D@2@@std@@PAVCGraphicImageInstance@@U?$less@V?$basic_string@DU?$char_traits@D@std@@V?$allocator@D@2@@std@@@2@V?$allocator@U?$pair@$$CBV?$basic_string@DU?$char_traits@D@std@@V?$allocator@D@2@@std@@PAVCGraphicImageInstance@@@std@@@2@$0A@@std@@@std@@ABEPAU?$_Tree_node@U?$pair@$$CBV?$basic_string@DU?$char_traits@D@std@@V?$allocator@D@2@@std@@PAVCGraphicImageInstance@@@std@@PAX@1@ABV?$basic_string@DU?$char_traits@D@std@@V?$allocator@D@2@@1@@Z ENDP ; std::_Tree<std::_Tmap_traits<std::basic_string<char,std::char_traits<char>,std::allocator<char> >,CGraphicImageInstance *,std::less<std::basic_string<char,std::char_traits<char>,std::allocator<char> > >,std::allocator<std::pair<std::basic_string<char,std::char_traits<char>,std::allocator<char> > const ,CGraphicImageInstance *> >,0> >::_Find<std::basic_string<char,std::char_traits<char>,std::allocator<char> > >
_TEXT	ENDS
; Function compile flags: /Odspy
; File C:\Program Files (x86)\Microsoft Visual Studio\2019\Community\VC\Tools\MSVC\14.28.29333\include\map
; File C:\Program Files (x86)\Microsoft Visual Studio\2019\Community\VC\Tools\MSVC\14.28.29333\include\type_traits
; File C:\Program Files (x86)\Microsoft Visual Studio\2019\Community\VC\Tools\MSVC\14.28.29333\include\utility
; File C:\Program Files (x86)\Microsoft Visual Studio\2019\Community\VC\Tools\MSVC\14.28.29333\include\type_traits
; File C:\Program Files (x86)\Microsoft Visual Studio\2019\Community\VC\Tools\MSVC\14.28.29333\include\utility
; File C:\Program Files (x86)\Microsoft Visual Studio\2019\Community\VC\Tools\MSVC\14.28.29333\include\map
; File C:\Program Files (x86)\Microsoft Visual Studio\2019\Community\VC\Tools\MSVC\14.28.29333\include\xtree
; File C:\Program Files (x86)\Microsoft Visual Studio\2019\Community\VC\Tools\MSVC\14.28.29333\include\xstddef
; File C:\Program Files (x86)\Microsoft Visual Studio\2019\Community\VC\Tools\MSVC\14.28.29333\include\xtree
; File C:\Program Files (x86)\Microsoft Visual Studio\2019\Community\VC\Tools\MSVC\14.28.29333\include\tuple
; File C:\Program Files (x86)\Microsoft Visual Studio\2019\Community\VC\Tools\MSVC\14.28.29333\include\type_traits
; File C:\Program Files (x86)\Microsoft Visual Studio\2019\Community\VC\Tools\MSVC\14.28.29333\include\tuple
; File C:\Program Files (x86)\Microsoft Visual Studio\2019\Community\VC\Tools\MSVC\14.28.29333\include\type_traits
; File C:\Program Files (x86)\Microsoft Visual Studio\2019\Community\VC\Tools\MSVC\14.28.29333\include\tuple
; File C:\Program Files (x86)\Microsoft Visual Studio\2019\Community\VC\Tools\MSVC\14.28.29333\include\xtree
; File C:\Program Files (x86)\Microsoft Visual Studio\2019\Community\VC\Tools\MSVC\14.28.29333\include\xmemory
; File C:\Program Files (x86)\Microsoft Visual Studio\2019\Community\VC\Tools\MSVC\14.28.29333\include\xtree
; File C:\Program Files (x86)\Microsoft Visual Studio\2019\Community\VC\Tools\MSVC\14.28.29333\include\map
; File C:\Program Files (x86)\Microsoft Visual Studio\2019\Community\VC\Tools\MSVC\14.28.29333\include\xmemory
; File C:\Program Files (x86)\Microsoft Visual Studio\2019\Community\VC\Tools\MSVC\14.28.29333\include\utility
; File C:\Program Files (x86)\Microsoft Visual Studio\2019\Community\VC\Tools\MSVC\14.28.29333\include\xmemory
; File C:\Program Files (x86)\Microsoft Visual Studio\2019\Community\VC\Tools\MSVC\14.28.29333\include\map
; File C:\Program Files (x86)\Microsoft Visual Studio\2019\Community\VC\Tools\MSVC\14.28.29333\include\type_traits
; File C:\Program Files (x86)\Microsoft Visual Studio\2019\Community\VC\Tools\MSVC\14.28.29333\include\utility
; File C:\Program Files (x86)\Microsoft Visual Studio\2019\Community\VC\Tools\MSVC\14.28.29333\include\type_traits
; File C:\Program Files (x86)\Microsoft Visual Studio\2019\Community\VC\Tools\MSVC\14.28.29333\include\utility
; File C:\Program Files (x86)\Microsoft Visual Studio\2019\Community\VC\Tools\MSVC\14.28.29333\include\map
;	COMDAT ??$_Try_emplace@ABV?$basic_string@DU?$char_traits@D@std@@V?$allocator@D@2@@std@@$$V@?$map@V?$basic_string@DU?$char_traits@D@std@@V?$allocator@D@2@@std@@PAVCGraphicImageInstance@@U?$less@V?$basic_string@DU?$char_traits@D@std@@V?$allocator@D@2@@std@@@2@V?$allocator@U?$pair@$$CBV?$basic_string@DU?$char_traits@D@std@@V?$allocator@D@2@@std@@PAVCGraphicImageInstance@@@std@@@2@@std@@AAE?AU?$pair@PAU?$_Tree_node@U?$pair@$$CBV?$basic_string@DU?$char_traits@D@std@@V?$allocator@D@2@@std@@PAVCGraphicImageInstance@@@std@@PAX@std@@_N@1@ABV?$basic_string@DU?$char_traits@D@std@@V?$allocator@D@2@@1@@Z
_TEXT	SEGMENT
__Loc$ = -120						; size = 12
$T1 = -108						; size = 8
$T2 = -100						; size = 4
$T3 = -96						; size = 4
$T4 = -92						; size = 4
__Inserted$ = -88					; size = 4
$T5 = -84						; size = 4
__Old_val$6 = -80					; size = 4
$T7 = -76						; size = 4
$T8 = -72						; size = 4
$T9 = -68						; size = 4
$T10 = -64						; size = 4
$T11 = -60						; size = 4
$T12 = -56						; size = 4
$T13 = -52						; size = 4
$T14 = -48						; size = 4
_this$15 = -44						; size = 4
$T16 = -40						; size = 4
$T17 = -36						; size = 4
$T18 = -32						; size = 4
$T19 = -28						; size = 4
$T20 = -24						; size = 4
$T21 = -20						; size = 4
__Scary$ = -16						; size = 4
__Val$ = -12						; size = 4
_this$ = -8						; size = 4
$T22 = -3						; size = 1
$T23 = -2						; size = 1
$T24 = -1						; size = 1
___$ReturnUdt$ = 8					; size = 4
__Keyval$ = 12						; size = 4
??$_Try_emplace@ABV?$basic_string@DU?$char_traits@D@std@@V?$allocator@D@2@@std@@$$V@?$map@V?$basic_string@DU?$char_traits@D@std@@V?$allocator@D@2@@std@@PAVCGraphicImageInstance@@U?$less@V?$basic_string@DU?$char_traits@D@std@@V?$allocator@D@2@@std@@@2@V?$allocator@U?$pair@$$CBV?$basic_string@DU?$char_traits@D@std@@V?$allocator@D@2@@std@@PAVCGraphicImageInstance@@@std@@@2@@std@@AAE?AU?$pair@PAU?$_Tree_node@U?$pair@$$CBV?$basic_string@DU?$char_traits@D@std@@V?$allocator@D@2@@std@@PAVCGraphicImageInstance@@@std@@PAX@std@@_N@1@ABV?$basic_string@DU?$char_traits@D@std@@V?$allocator@D@2@@1@@Z PROC ; std::map<std::basic_string<char,std::char_traits<char>,std::allocator<char> >,CGraphicImageInstance *,std::less<std::basic_string<char,std::char_traits<char>,std::allocator<char> > >,std::allocator<std::pair<std::basic_string<char,std::char_traits<char>,std::allocator<char> > const ,CGraphicImageInstance *> > >::_Try_emplace<std::basic_string<char,std::char_traits<char>,std::allocator<char> > const &>, COMDAT
; _this$ = ecx

; 175  :     pair<_Nodeptr, bool> _Try_emplace(_Keyty&& _Keyval, _Mappedty&&... _Mapval) {

  00000	55		 push	 ebp
  00001	8b ec		 mov	 ebp, esp
  00003	83 ec 78	 sub	 esp, 120		; 00000078H
  00006	89 4d f8	 mov	 DWORD PTR _this$[ebp], ecx

; 176  :         const auto _Loc = _Mybase::_Find_lower_bound(_Keyval);

  00009	ff 75 0c	 push	 DWORD PTR __Keyval$[ebp]
  0000c	8d 45 88	 lea	 eax, DWORD PTR __Loc$[ebp]
  0000f	50		 push	 eax
  00010	8b 4d f8	 mov	 ecx, DWORD PTR _this$[ebp]
  00013	e8 00 00 00 00	 call	 ??$_Find_lower_bound@V?$basic_string@DU?$char_traits@D@std@@V?$allocator@D@2@@std@@@?$_Tree@V?$_Tmap_traits@V?$basic_string@DU?$char_traits@D@std@@V?$allocator@D@2@@std@@PAVCGraphicImageInstance@@U?$less@V?$basic_string@DU?$char_traits@D@std@@V?$allocator@D@2@@std@@@2@V?$allocator@U?$pair@$$CBV?$basic_string@DU?$char_traits@D@std@@V?$allocator@D@2@@std@@PAVCGraphicImageInstance@@@std@@@2@$0A@@std@@@std@@IBE?AU?$_Tree_find_result@PAU?$_Tree_node@U?$pair@$$CBV?$basic_string@DU?$char_traits@D@std@@V?$allocator@D@2@@std@@PAVCGraphicImageInstance@@@std@@PAX@std@@@1@ABV?$basic_string@DU?$char_traits@D@std@@V?$allocator@D@2@@1@@Z ; std::_Tree<std::_Tmap_traits<std::basic_string<char,std::char_traits<char>,std::allocator<char> >,CGraphicImageInstance *,std::less<std::basic_string<char,std::char_traits<char>,std::allocator<char> > >,std::allocator<std::pair<std::basic_string<char,std::char_traits<char>,std::allocator<char> > const ,CGraphicImageInstance *> >,0> >::_Find_lower_bound<std::basic_string<char,std::char_traits<char>,std::allocator<char> > >

; 177  :         if (_Mybase::_Lower_bound_duplicate(_Loc._Bound, _Keyval)) {

  00018	ff 75 0c	 push	 DWORD PTR __Keyval$[ebp]
  0001b	ff 75 90	 push	 DWORD PTR __Loc$[ebp+8]
  0001e	8b 4d f8	 mov	 ecx, DWORD PTR _this$[ebp]
  00021	e8 00 00 00 00	 call	 ??$_Lower_bound_duplicate@V?$basic_string@DU?$char_traits@D@std@@V?$allocator@D@2@@std@@@?$_Tree@V?$_Tmap_traits@V?$basic_string@DU?$char_traits@D@std@@V?$allocator@D@2@@std@@PAVCGraphicImageInstance@@U?$less@V?$basic_string@DU?$char_traits@D@std@@V?$allocator@D@2@@std@@@2@V?$allocator@U?$pair@$$CBV?$basic_string@DU?$char_traits@D@std@@V?$allocator@D@2@@std@@PAVCGraphicImageInstance@@@std@@@2@$0A@@std@@@std@@IBE_NQAU?$_Tree_node@U?$pair@$$CBV?$basic_string@DU?$char_traits@D@std@@V?$allocator@D@2@@std@@PAVCGraphicImageInstance@@@std@@PAX@1@ABV?$basic_string@DU?$char_traits@D@std@@V?$allocator@D@2@@1@@Z ; std::_Tree<std::_Tmap_traits<std::basic_string<char,std::char_traits<char>,std::allocator<char> >,CGraphicImageInstance *,std::less<std::basic_string<char,std::char_traits<char>,std::allocator<char> > >,std::allocator<std::pair<std::basic_string<char,std::char_traits<char>,std::allocator<char> > const ,CGraphicImageInstance *> >,0> >::_Lower_bound_duplicate<std::basic_string<char,std::char_traits<char>,std::allocator<char> > >
  00026	0f b6 c0	 movzx	 eax, al
  00029	85 c0		 test	 eax, eax
  0002b	74 2d		 je	 SHORT $LN2@Try_emplac

; 178  :             return {_Loc._Bound, false};

  0002d	c6 45 ff 00	 mov	 BYTE PTR $T24[ebp], 0
; File C:\Program Files (x86)\Microsoft Visual Studio\2019\Community\VC\Tools\MSVC\14.28.29333\include\type_traits

; 1443 :     return static_cast<_Ty&&>(_Arg);

  00031	8d 45 90	 lea	 eax, DWORD PTR __Loc$[ebp+8]
  00034	89 45 ec	 mov	 DWORD PTR $T21[ebp], eax
; File C:\Program Files (x86)\Microsoft Visual Studio\2019\Community\VC\Tools\MSVC\14.28.29333\include\utility

; 190  :         : first(_STD forward<_Other1>(_Val1)), second(_STD forward<_Other2>(_Val2)) {}

  00037	8b 45 08	 mov	 eax, DWORD PTR ___$ReturnUdt$[ebp]
  0003a	8b 4d ec	 mov	 ecx, DWORD PTR $T21[ebp]
  0003d	8b 09		 mov	 ecx, DWORD PTR [ecx]
  0003f	89 08		 mov	 DWORD PTR [eax], ecx
; File C:\Program Files (x86)\Microsoft Visual Studio\2019\Community\VC\Tools\MSVC\14.28.29333\include\type_traits

; 1443 :     return static_cast<_Ty&&>(_Arg);

  00041	8d 45 ff	 lea	 eax, DWORD PTR $T24[ebp]
  00044	89 45 e8	 mov	 DWORD PTR $T20[ebp], eax
; File C:\Program Files (x86)\Microsoft Visual Studio\2019\Community\VC\Tools\MSVC\14.28.29333\include\utility

; 190  :         : first(_STD forward<_Other1>(_Val1)), second(_STD forward<_Other2>(_Val2)) {}

  00047	8b 45 08	 mov	 eax, DWORD PTR ___$ReturnUdt$[ebp]
  0004a	8b 4d e8	 mov	 ecx, DWORD PTR $T20[ebp]
  0004d	8a 09		 mov	 cl, BYTE PTR [ecx]
  0004f	88 48 04	 mov	 BYTE PTR [eax+4], cl
; File C:\Program Files (x86)\Microsoft Visual Studio\2019\Community\VC\Tools\MSVC\14.28.29333\include\map

; 178  :             return {_Loc._Bound, false};

  00052	8b 45 08	 mov	 eax, DWORD PTR ___$ReturnUdt$[ebp]
  00055	e9 dd 00 00 00	 jmp	 $LN1@Try_emplac
$LN2@Try_emplac:

; 179  :         }
; 180  : 
; 181  :         _Mybase::_Check_grow_by_1();

  0005a	8b 4d f8	 mov	 ecx, DWORD PTR _this$[ebp]
  0005d	e8 00 00 00 00	 call	 ?_Check_grow_by_1@?$_Tree@V?$_Tmap_traits@V?$basic_string@DU?$char_traits@D@std@@V?$allocator@D@2@@std@@PAVCGraphicImageInstance@@U?$less@V?$basic_string@DU?$char_traits@D@std@@V?$allocator@D@2@@std@@@2@V?$allocator@U?$pair@$$CBV?$basic_string@DU?$char_traits@D@std@@V?$allocator@D@2@@std@@PAVCGraphicImageInstance@@@std@@@2@$0A@@std@@@std@@IAEXXZ ; std::_Tree<std::_Tmap_traits<std::basic_string<char,std::char_traits<char>,std::allocator<char> >,CGraphicImageInstance *,std::less<std::basic_string<char,std::char_traits<char>,std::allocator<char> > >,std::allocator<std::pair<std::basic_string<char,std::char_traits<char>,std::allocator<char> > const ,CGraphicImageInstance *> >,0> >::_Check_grow_by_1
; File C:\Program Files (x86)\Microsoft Visual Studio\2019\Community\VC\Tools\MSVC\14.28.29333\include\xtree

; 2047 :         return _STD addressof(_Mypair._Myval2._Myval2);

  00062	8b 45 f8	 mov	 eax, DWORD PTR _this$[ebp]
; File C:\Program Files (x86)\Microsoft Visual Studio\2019\Community\VC\Tools\MSVC\14.28.29333\include\xstddef

; 275  :     return __builtin_addressof(_Val);

  00065	89 45 e4	 mov	 DWORD PTR $T19[ebp], eax
; File C:\Program Files (x86)\Microsoft Visual Studio\2019\Community\VC\Tools\MSVC\14.28.29333\include\xtree

; 2047 :         return _STD addressof(_Mypair._Myval2._Myval2);

  00068	8b 45 e4	 mov	 eax, DWORD PTR $T19[ebp]
  0006b	89 45 f0	 mov	 DWORD PTR __Scary$[ebp], eax
; File C:\Program Files (x86)\Microsoft Visual Studio\2019\Community\VC\Tools\MSVC\14.28.29333\include\tuple

; 854  :     return tuple<_Types&&...>(_STD forward<_Types>(_Args)...);

  0006e	8d 45 fd	 lea	 eax, DWORD PTR $T22[ebp]
  00071	89 45 c4	 mov	 DWORD PTR $T11[ebp], eax
; File C:\Program Files (x86)\Microsoft Visual Studio\2019\Community\VC\Tools\MSVC\14.28.29333\include\type_traits

; 1443 :     return static_cast<_Ty&&>(_Arg);

  00074	8b 45 0c	 mov	 eax, DWORD PTR __Keyval$[ebp]
  00077	89 45 e0	 mov	 DWORD PTR $T18[ebp], eax
  0007a	8b 45 e0	 mov	 eax, DWORD PTR $T18[ebp]
  0007d	89 45 dc	 mov	 DWORD PTR $T17[ebp], eax
  00080	8b 45 dc	 mov	 eax, DWORD PTR $T17[ebp]
  00083	89 45 d8	 mov	 DWORD PTR $T16[ebp], eax
; File C:\Program Files (x86)\Microsoft Visual Studio\2019\Community\VC\Tools\MSVC\14.28.29333\include\tuple

; 245  :         : _Mybase(_Exact_args_t{}, _STD forward<_Rest2>(_Rest_arg)...), _Myfirst(_STD forward<_This2>(_This_arg)) {}

  00086	8d 45 cc	 lea	 eax, DWORD PTR $T13[ebp]
  00089	89 45 d4	 mov	 DWORD PTR _this$15[ebp], eax
; File C:\Program Files (x86)\Microsoft Visual Studio\2019\Community\VC\Tools\MSVC\14.28.29333\include\type_traits

; 1443 :     return static_cast<_Ty&&>(_Arg);

  0008c	8b 45 d8	 mov	 eax, DWORD PTR $T16[ebp]
  0008f	89 45 d0	 mov	 DWORD PTR $T14[ebp], eax
; File C:\Program Files (x86)\Microsoft Visual Studio\2019\Community\VC\Tools\MSVC\14.28.29333\include\tuple

; 163  :     constexpr _Tuple_val(_Other&& _Arg) : _Val(_STD forward<_Other>(_Arg)) {}

  00092	8b 45 d4	 mov	 eax, DWORD PTR _this$15[ebp]
  00095	8b 4d d0	 mov	 ecx, DWORD PTR $T14[ebp]
  00098	89 08		 mov	 DWORD PTR [eax], ecx

; 854  :     return tuple<_Types&&...>(_STD forward<_Types>(_Args)...);

  0009a	8d 45 cc	 lea	 eax, DWORD PTR $T13[ebp]
  0009d	89 45 c0	 mov	 DWORD PTR $T10[ebp], eax
; File C:\Program Files (x86)\Microsoft Visual Studio\2019\Community\VC\Tools\MSVC\14.28.29333\include\xtree

; 2039 :         return _Mypair._Myval2._Get_first();

  000a0	8b 45 f8	 mov	 eax, DWORD PTR _this$[ebp]
; File C:\Program Files (x86)\Microsoft Visual Studio\2019\Community\VC\Tools\MSVC\14.28.29333\include\xmemory

; 1347 :         return *this;

  000a3	89 45 c8	 mov	 DWORD PTR $T12[ebp], eax
; File C:\Program Files (x86)\Microsoft Visual Studio\2019\Community\VC\Tools\MSVC\14.28.29333\include\xtree

; 2039 :         return _Mypair._Myval2._Get_first();

  000a6	8b 45 c8	 mov	 eax, DWORD PTR $T12[ebp]
  000a9	89 45 bc	 mov	 DWORD PTR $T9[ebp], eax
; File C:\Program Files (x86)\Microsoft Visual Studio\2019\Community\VC\Tools\MSVC\14.28.29333\include\map

; 184  :         const auto _Inserted = _Tree_temp_node<_Alnode>(_Mybase::_Getal(), _Scary->_Myhead, piecewise_construct,

  000ac	ff 75 c4	 push	 DWORD PTR $T11[ebp]
  000af	ff 75 c0	 push	 DWORD PTR $T10[ebp]
  000b2	68 00 00 00 00	 push	 OFFSET ?piecewise_construct@std@@3Upiecewise_construct_t@1@B
  000b7	8b 45 f0	 mov	 eax, DWORD PTR __Scary$[ebp]
  000ba	ff 30		 push	 DWORD PTR [eax]
  000bc	ff 75 bc	 push	 DWORD PTR $T9[ebp]
  000bf	8d 4d 94	 lea	 ecx, DWORD PTR $T1[ebp]
  000c2	e8 00 00 00 00	 call	 ??$?0ABUpiecewise_construct_t@std@@V?$tuple@ABV?$basic_string@DU?$char_traits@D@std@@V?$allocator@D@2@@std@@@1@V?$tuple@$$V@1@@?$_Tree_temp_node@V?$allocator@U?$_Tree_node@U?$pair@$$CBV?$basic_string@DU?$char_traits@D@std@@V?$allocator@D@2@@std@@PAVCGraphicImageInstance@@@std@@PAX@std@@@std@@@std@@QAE@AAV?$allocator@U?$_Tree_node@U?$pair@$$CBV?$basic_string@DU?$char_traits@D@std@@V?$allocator@D@2@@std@@PAVCGraphicImageInstance@@@std@@PAX@std@@@1@PAU?$_Tree_node@U?$pair@$$CBV?$basic_string@DU?$char_traits@D@std@@V?$allocator@D@2@@std@@PAVCGraphicImageInstance@@@std@@PAX@1@ABUpiecewise_construct_t@1@$$QAV?$tuple@ABV?$basic_string@DU?$char_traits@D@std@@V?$allocator@D@2@@std@@@1@$$QAV?$tuple@$$V@1@@Z ; std::_Tree_temp_node<std::allocator<std::_Tree_node<std::pair<std::basic_string<char,std::char_traits<char>,std::allocator<char> > const ,CGraphicImageInstance *>,void *> > >::_Tree_temp_node<std::allocator<std::_Tree_node<std::pair<std::basic_string<char,std::char_traits<char>,std::allocator<char> > const ,CGraphicImageInstance *>,void *> > ><std::piecewise_construct_t const &,std::tuple<std::basic_string<char,std::char_traits<char>,std::allocator<char> > const &>,std::tuple<> >
  000c7	89 45 b8	 mov	 DWORD PTR $T8[ebp], eax
; File C:\Program Files (x86)\Microsoft Visual Studio\2019\Community\VC\Tools\MSVC\14.28.29333\include\xmemory

; 1048 :         return _STD exchange(_Ptr, nullptr);

  000ca	83 65 b4 00	 and	 DWORD PTR $T7[ebp], 0
  000ce	8b 45 b8	 mov	 eax, DWORD PTR $T8[ebp]
  000d1	83 c0 04	 add	 eax, 4
  000d4	89 45 f4	 mov	 DWORD PTR __Val$[ebp], eax
; File C:\Program Files (x86)\Microsoft Visual Studio\2019\Community\VC\Tools\MSVC\14.28.29333\include\utility

; 598  :     _Ty _Old_val = static_cast<_Ty&&>(_Val);

  000d7	8b 45 f4	 mov	 eax, DWORD PTR __Val$[ebp]
  000da	8b 00		 mov	 eax, DWORD PTR [eax]
  000dc	89 45 b0	 mov	 DWORD PTR __Old_val$6[ebp], eax

; 599  :     _Val         = static_cast<_Other&&>(_New_val);

  000df	8b 45 f4	 mov	 eax, DWORD PTR __Val$[ebp]
  000e2	8b 4d b4	 mov	 ecx, DWORD PTR $T7[ebp]
  000e5	89 08		 mov	 DWORD PTR [eax], ecx

; 600  :     return _Old_val;

  000e7	8b 45 b0	 mov	 eax, DWORD PTR __Old_val$6[ebp]
  000ea	89 45 ac	 mov	 DWORD PTR $T5[ebp], eax
; File C:\Program Files (x86)\Microsoft Visual Studio\2019\Community\VC\Tools\MSVC\14.28.29333\include\xmemory

; 1048 :         return _STD exchange(_Ptr, nullptr);

  000ed	8b 45 ac	 mov	 eax, DWORD PTR $T5[ebp]
  000f0	89 45 a8	 mov	 DWORD PTR __Inserted$[ebp], eax
; File C:\Program Files (x86)\Microsoft Visual Studio\2019\Community\VC\Tools\MSVC\14.28.29333\include\map

; 184  :         const auto _Inserted = _Tree_temp_node<_Alnode>(_Mybase::_Getal(), _Scary->_Myhead, piecewise_construct,

  000f3	8d 4d 94	 lea	 ecx, DWORD PTR $T1[ebp]
  000f6	e8 00 00 00 00	 call	 ??1?$_Tree_temp_node@V?$allocator@U?$_Tree_node@U?$pair@$$CBV?$basic_string@DU?$char_traits@D@std@@V?$allocator@D@2@@std@@PAVCGraphicImageInstance@@@std@@PAX@std@@@std@@@std@@QAE@XZ ; std::_Tree_temp_node<std::allocator<std::_Tree_node<std::pair<std::basic_string<char,std::char_traits<char>,std::allocator<char> > const ,CGraphicImageInstance *>,void *> > >::~_Tree_temp_node<std::allocator<std::_Tree_node<std::pair<std::basic_string<char,std::char_traits<char>,std::allocator<char> > const ,CGraphicImageInstance *>,void *> > >

; 190  :         return {_Scary->_Insert_node(_Loc._Location, _Inserted), true};

  000fb	ff 75 a8	 push	 DWORD PTR __Inserted$[ebp]
  000fe	ff 75 8c	 push	 DWORD PTR __Loc$[ebp+4]
  00101	ff 75 88	 push	 DWORD PTR __Loc$[ebp]
  00104	8b 4d f0	 mov	 ecx, DWORD PTR __Scary$[ebp]
  00107	e8 00 00 00 00	 call	 ?_Insert_node@?$_Tree_val@U?$_Tree_simple_types@U?$pair@$$CBV?$basic_string@DU?$char_traits@D@std@@V?$allocator@D@2@@std@@PAVCGraphicImageInstance@@@std@@@std@@@std@@QAEPAU?$_Tree_node@U?$pair@$$CBV?$basic_string@DU?$char_traits@D@std@@V?$allocator@D@2@@std@@PAVCGraphicImageInstance@@@std@@PAX@2@U?$_Tree_id@PAU?$_Tree_node@U?$pair@$$CBV?$basic_string@DU?$char_traits@D@std@@V?$allocator@D@2@@std@@PAVCGraphicImageInstance@@@std@@PAX@std@@@2@QAU32@@Z ; std::_Tree_val<std::_Tree_simple_types<std::pair<std::basic_string<char,std::char_traits<char>,std::allocator<char> > const ,CGraphicImageInstance *> > >::_Insert_node
  0010c	89 45 a4	 mov	 DWORD PTR $T4[ebp], eax
  0010f	c6 45 fe 01	 mov	 BYTE PTR $T23[ebp], 1
; File C:\Program Files (x86)\Microsoft Visual Studio\2019\Community\VC\Tools\MSVC\14.28.29333\include\type_traits

; 1443 :     return static_cast<_Ty&&>(_Arg);

  00113	8d 45 a4	 lea	 eax, DWORD PTR $T4[ebp]
  00116	89 45 a0	 mov	 DWORD PTR $T3[ebp], eax
; File C:\Program Files (x86)\Microsoft Visual Studio\2019\Community\VC\Tools\MSVC\14.28.29333\include\utility

; 190  :         : first(_STD forward<_Other1>(_Val1)), second(_STD forward<_Other2>(_Val2)) {}

  00119	8b 45 08	 mov	 eax, DWORD PTR ___$ReturnUdt$[ebp]
  0011c	8b 4d a0	 mov	 ecx, DWORD PTR $T3[ebp]
  0011f	8b 09		 mov	 ecx, DWORD PTR [ecx]
  00121	89 08		 mov	 DWORD PTR [eax], ecx
; File C:\Program Files (x86)\Microsoft Visual Studio\2019\Community\VC\Tools\MSVC\14.28.29333\include\type_traits

; 1443 :     return static_cast<_Ty&&>(_Arg);

  00123	8d 45 fe	 lea	 eax, DWORD PTR $T23[ebp]
  00126	89 45 9c	 mov	 DWORD PTR $T2[ebp], eax
; File C:\Program Files (x86)\Microsoft Visual Studio\2019\Community\VC\Tools\MSVC\14.28.29333\include\utility

; 190  :         : first(_STD forward<_Other1>(_Val1)), second(_STD forward<_Other2>(_Val2)) {}

  00129	8b 45 08	 mov	 eax, DWORD PTR ___$ReturnUdt$[ebp]
  0012c	8b 4d 9c	 mov	 ecx, DWORD PTR $T2[ebp]
  0012f	8a 09		 mov	 cl, BYTE PTR [ecx]
  00131	88 48 04	 mov	 BYTE PTR [eax+4], cl
; File C:\Program Files (x86)\Microsoft Visual Studio\2019\Community\VC\Tools\MSVC\14.28.29333\include\map

; 190  :         return {_Scary->_Insert_node(_Loc._Location, _Inserted), true};

  00134	8b 45 08	 mov	 eax, DWORD PTR ___$ReturnUdt$[ebp]
$LN1@Try_emplac:

; 191  :     }

  00137	c9		 leave
  00138	c2 08 00	 ret	 8
??$_Try_emplace@ABV?$basic_string@DU?$char_traits@D@std@@V?$allocator@D@2@@std@@$$V@?$map@V?$basic_string@DU?$char_traits@D@std@@V?$allocator@D@2@@std@@PAVCGraphicImageInstance@@U?$less@V?$basic_string@DU?$char_traits@D@std@@V?$allocator@D@2@@std@@@2@V?$allocator@U?$pair@$$CBV?$basic_string@DU?$char_traits@D@std@@V?$allocator@D@2@@std@@PAVCGraphicImageInstance@@@std@@@2@@std@@AAE?AU?$pair@PAU?$_Tree_node@U?$pair@$$CBV?$basic_string@DU?$char_traits@D@std@@V?$allocator@D@2@@std@@PAVCGraphicImageInstance@@@std@@PAX@std@@_N@1@ABV?$basic_string@DU?$char_traits@D@std@@V?$allocator@D@2@@1@@Z ENDP ; std::map<std::basic_string<char,std::char_traits<char>,std::allocator<char> >,CGraphicImageInstance *,std::less<std::basic_string<char,std::char_traits<char>,std::allocator<char> > >,std::allocator<std::pair<std::basic_string<char,std::char_traits<char>,std::allocator<char> > const ,CGraphicImageInstance *> > >::_Try_emplace<std::basic_string<char,std::char_traits<char>,std::allocator<char> > const &>
_TEXT	ENDS
; Function compile flags: /Odspy
; File C:\Program Files (x86)\Microsoft Visual Studio\2019\Community\VC\Tools\MSVC\14.28.29333\include\xtree
; File C:\Program Files (x86)\Microsoft Visual Studio\2019\Community\VC\Tools\MSVC\14.28.29333\include\type_traits
; File C:\Program Files (x86)\Microsoft Visual Studio\2019\Community\VC\Tools\MSVC\14.28.29333\include\xtree
; File C:\Program Files (x86)\Microsoft Visual Studio\2019\Community\VC\Tools\MSVC\14.28.29333\include\xstddef
; File C:\Program Files (x86)\Microsoft Visual Studio\2019\Community\VC\Tools\MSVC\14.28.29333\include\xtree
; File C:\Program Files (x86)\Microsoft Visual Studio\2019\Community\VC\Tools\MSVC\14.28.29333\include\type_traits
; File C:\Program Files (x86)\Microsoft Visual Studio\2019\Community\VC\Tools\MSVC\14.28.29333\include\utility
; File C:\Program Files (x86)\Microsoft Visual Studio\2019\Community\VC\Tools\MSVC\14.28.29333\include\type_traits
; File C:\Program Files (x86)\Microsoft Visual Studio\2019\Community\VC\Tools\MSVC\14.28.29333\include\utility
; File C:\Program Files (x86)\Microsoft Visual Studio\2019\Community\VC\Tools\MSVC\14.28.29333\include\xtree
;	COMDAT ??$insert@$0A@$0A@@?$_Tree@V?$_Tmap_traits@V?$basic_string@DU?$char_traits@D@std@@V?$allocator@D@2@@std@@PAVCGraphicImageInstance@@U?$less@V?$basic_string@DU?$char_traits@D@std@@V?$allocator@D@2@@std@@@2@V?$allocator@U?$pair@$$CBV?$basic_string@DU?$char_traits@D@std@@V?$allocator@D@2@@std@@PAVCGraphicImageInstance@@@std@@@2@$0A@@std@@@std@@QAE?AU?$pair@V?$_Tree_iterator@V?$_Tree_val@U?$_Tree_simple_types@U?$pair@$$CBV?$basic_string@DU?$char_traits@D@std@@V?$allocator@D@2@@std@@PAVCGraphicImageInstance@@@std@@@std@@@std@@@std@@_N@1@$$QAU?$pair@$$CBV?$basic_string@DU?$char_traits@D@std@@V?$allocator@D@2@@std@@PAVCGraphicImageInstance@@@1@@Z
_TEXT	SEGMENT
__Result$ = -40						; size = 8
$T1 = -32						; size = 4
$T2 = -28						; size = 4
$T3 = -24						; size = 4
$T4 = -20						; size = 4
___param0$ = -16					; size = 4
$T5 = -12						; size = 4
$T6 = -8						; size = 4
_this$ = -4						; size = 4
___$ReturnUdt$ = 8					; size = 4
__Val$ = 12						; size = 4
??$insert@$0A@$0A@@?$_Tree@V?$_Tmap_traits@V?$basic_string@DU?$char_traits@D@std@@V?$allocator@D@2@@std@@PAVCGraphicImageInstance@@U?$less@V?$basic_string@DU?$char_traits@D@std@@V?$allocator@D@2@@std@@@2@V?$allocator@U?$pair@$$CBV?$basic_string@DU?$char_traits@D@std@@V?$allocator@D@2@@std@@PAVCGraphicImageInstance@@@std@@@2@$0A@@std@@@std@@QAE?AU?$pair@V?$_Tree_iterator@V?$_Tree_val@U?$_Tree_simple_types@U?$pair@$$CBV?$basic_string@DU?$char_traits@D@std@@V?$allocator@D@2@@std@@PAVCGraphicImageInstance@@@std@@@std@@@std@@@std@@_N@1@$$QAU?$pair@$$CBV?$basic_string@DU?$char_traits@D@std@@V?$allocator@D@2@@std@@PAVCGraphicImageInstance@@@1@@Z PROC ; std::_Tree<std::_Tmap_traits<std::basic_string<char,std::char_traits<char>,std::allocator<char> >,CGraphicImageInstance *,std::less<std::basic_string<char,std::char_traits<char>,std::allocator<char> > >,std::allocator<std::pair<std::basic_string<char,std::char_traits<char>,std::allocator<char> > const ,CGraphicImageInstance *> >,0> >::insert<0,0>, COMDAT
; _this$ = ecx

; 1343 :     pair<iterator, bool> insert(value_type&& _Val) {

  00000	55		 push	 ebp
  00001	8b ec		 mov	 ebp, esp
  00003	83 ec 28	 sub	 esp, 40			; 00000028H
  00006	89 4d fc	 mov	 DWORD PTR _this$[ebp], ecx
; File C:\Program Files (x86)\Microsoft Visual Studio\2019\Community\VC\Tools\MSVC\14.28.29333\include\type_traits

; 1455 :     return static_cast<remove_reference_t<_Ty>&&>(_Arg);

  00009	8b 45 0c	 mov	 eax, DWORD PTR __Val$[ebp]
  0000c	89 45 f8	 mov	 DWORD PTR $T6[ebp], eax
; File C:\Program Files (x86)\Microsoft Visual Studio\2019\Community\VC\Tools\MSVC\14.28.29333\include\xtree

; 1344 :         const auto _Result = _Emplace(_STD move(_Val));

  0000f	ff 75 f8	 push	 DWORD PTR $T6[ebp]
  00012	8d 45 d8	 lea	 eax, DWORD PTR __Result$[ebp]
  00015	50		 push	 eax
  00016	8b 4d fc	 mov	 ecx, DWORD PTR _this$[ebp]
  00019	e8 00 00 00 00	 call	 ??$_Emplace@U?$pair@$$CBV?$basic_string@DU?$char_traits@D@std@@V?$allocator@D@2@@std@@PAVCGraphicImageInstance@@@std@@@?$_Tree@V?$_Tmap_traits@V?$basic_string@DU?$char_traits@D@std@@V?$allocator@D@2@@std@@PAVCGraphicImageInstance@@U?$less@V?$basic_string@DU?$char_traits@D@std@@V?$allocator@D@2@@std@@@2@V?$allocator@U?$pair@$$CBV?$basic_string@DU?$char_traits@D@std@@V?$allocator@D@2@@std@@PAVCGraphicImageInstance@@@std@@@2@$0A@@std@@@std@@IAE?AU?$pair@PAU?$_Tree_node@U?$pair@$$CBV?$basic_string@DU?$char_traits@D@std@@V?$allocator@D@2@@std@@PAVCGraphicImageInstance@@@std@@PAX@std@@_N@1@$$QAU?$pair@$$CBV?$basic_string@DU?$char_traits@D@std@@V?$allocator@D@2@@std@@PAVCGraphicImageInstance@@@1@@Z ; std::_Tree<std::_Tmap_traits<std::basic_string<char,std::char_traits<char>,std::allocator<char> >,CGraphicImageInstance *,std::less<std::basic_string<char,std::char_traits<char>,std::allocator<char> > >,std::allocator<std::pair<std::basic_string<char,std::char_traits<char>,std::allocator<char> > const ,CGraphicImageInstance *> >,0> >::_Emplace<std::pair<std::basic_string<char,std::char_traits<char>,std::allocator<char> > const ,CGraphicImageInstance *> >

; 2047 :         return _STD addressof(_Mypair._Myval2._Myval2);

  0001e	8b 45 fc	 mov	 eax, DWORD PTR _this$[ebp]
; File C:\Program Files (x86)\Microsoft Visual Studio\2019\Community\VC\Tools\MSVC\14.28.29333\include\xstddef

; 275  :     return __builtin_addressof(_Val);

  00021	89 45 f4	 mov	 DWORD PTR $T5[ebp], eax
; File C:\Program Files (x86)\Microsoft Visual Studio\2019\Community\VC\Tools\MSVC\14.28.29333\include\xtree

; 2047 :         return _STD addressof(_Mypair._Myval2._Myval2);

  00024	8b 45 f4	 mov	 eax, DWORD PTR $T5[ebp]
  00027	89 45 e0	 mov	 DWORD PTR $T1[ebp], eax

; 1345 :         return {iterator(_Result.first, _Get_scary()), _Result.second};

  0002a	8b 45 d8	 mov	 eax, DWORD PTR __Result$[ebp]
  0002d	89 45 f0	 mov	 DWORD PTR ___param0$[ebp], eax

; 39   :     _Tree_unchecked_const_iterator(_Nodeptr _Pnode, const _Mytree* _Plist) noexcept : _Ptr(_Pnode) {

  00030	8b 45 f0	 mov	 eax, DWORD PTR ___param0$[ebp]
  00033	89 45 ec	 mov	 DWORD PTR $T4[ebp], eax
; File C:\Program Files (x86)\Microsoft Visual Studio\2019\Community\VC\Tools\MSVC\14.28.29333\include\type_traits

; 1443 :     return static_cast<_Ty&&>(_Arg);

  00036	8d 45 ec	 lea	 eax, DWORD PTR $T4[ebp]
  00039	89 45 e8	 mov	 DWORD PTR $T3[ebp], eax
; File C:\Program Files (x86)\Microsoft Visual Studio\2019\Community\VC\Tools\MSVC\14.28.29333\include\utility

; 190  :         : first(_STD forward<_Other1>(_Val1)), second(_STD forward<_Other2>(_Val2)) {}

  0003c	8b 45 e8	 mov	 eax, DWORD PTR $T3[ebp]
  0003f	8b 00		 mov	 eax, DWORD PTR [eax]
  00041	8b 4d 08	 mov	 ecx, DWORD PTR ___$ReturnUdt$[ebp]
  00044	89 01		 mov	 DWORD PTR [ecx], eax
; File C:\Program Files (x86)\Microsoft Visual Studio\2019\Community\VC\Tools\MSVC\14.28.29333\include\type_traits

; 1443 :     return static_cast<_Ty&&>(_Arg);

  00046	8d 45 dc	 lea	 eax, DWORD PTR __Result$[ebp+4]
  00049	89 45 e4	 mov	 DWORD PTR $T2[ebp], eax
; File C:\Program Files (x86)\Microsoft Visual Studio\2019\Community\VC\Tools\MSVC\14.28.29333\include\utility

; 190  :         : first(_STD forward<_Other1>(_Val1)), second(_STD forward<_Other2>(_Val2)) {}

  0004c	8b 45 08	 mov	 eax, DWORD PTR ___$ReturnUdt$[ebp]
  0004f	8b 4d e4	 mov	 ecx, DWORD PTR $T2[ebp]
  00052	8a 09		 mov	 cl, BYTE PTR [ecx]
  00054	88 48 04	 mov	 BYTE PTR [eax+4], cl
; File C:\Program Files (x86)\Microsoft Visual Studio\2019\Community\VC\Tools\MSVC\14.28.29333\include\xtree

; 1345 :         return {iterator(_Result.first, _Get_scary()), _Result.second};

  00057	8b 45 08	 mov	 eax, DWORD PTR ___$ReturnUdt$[ebp]

; 1346 :     }

  0005a	c9		 leave
  0005b	c2 08 00	 ret	 8
??$insert@$0A@$0A@@?$_Tree@V?$_Tmap_traits@V?$basic_string@DU?$char_traits@D@std@@V?$allocator@D@2@@std@@PAVCGraphicImageInstance@@U?$less@V?$basic_string@DU?$char_traits@D@std@@V?$allocator@D@2@@std@@@2@V?$allocator@U?$pair@$$CBV?$basic_string@DU?$char_traits@D@std@@V?$allocator@D@2@@std@@PAVCGraphicImageInstance@@@std@@@2@$0A@@std@@@std@@QAE?AU?$pair@V?$_Tree_iterator@V?$_Tree_val@U?$_Tree_simple_types@U?$pair@$$CBV?$basic_string@DU?$char_traits@D@std@@V?$allocator@D@2@@std@@PAVCGraphicImageInstance@@@std@@@std@@@std@@@std@@_N@1@$$QAU?$pair@$$CBV?$basic_string@DU?$char_traits@D@std@@V?$allocator@D@2@@std@@PAVCGraphicImageInstance@@@1@@Z ENDP ; std::_Tree<std::_Tmap_traits<std::basic_string<char,std::char_traits<char>,std::allocator<char> >,CGraphicImageInstance *,std::less<std::basic_string<char,std::char_traits<char>,std::allocator<char> > >,std::allocator<std::pair<std::basic_string<char,std::char_traits<char>,std::allocator<char> > const ,CGraphicImageInstance *> >,0> >::insert<0,0>
_TEXT	ENDS
; Function compile flags: /Odspy
; File C:\Program Files (x86)\Microsoft Visual Studio\2019\Community\VC\Tools\MSVC\14.28.29333\include\xstring
;	COMDAT ??1?$pair@$$CBV?$basic_string@DU?$char_traits@D@std@@V?$allocator@D@2@@std@@PAVCGraphicImageInstance@@@std@@QAE@XZ
_TEXT	SEGMENT
_this$ = -4						; size = 4
??1?$pair@$$CBV?$basic_string@DU?$char_traits@D@std@@V?$allocator@D@2@@std@@PAVCGraphicImageInstance@@@std@@QAE@XZ PROC ; std::pair<std::basic_string<char,std::char_traits<char>,std::allocator<char> > const ,CGraphicImageInstance *>::~pair<std::basic_string<char,std::char_traits<char>,std::allocator<char> > const ,CGraphicImageInstance *>, COMDAT
; _this$ = ecx
  00000	55		 push	 ebp
  00001	8b ec		 mov	 ebp, esp
  00003	51		 push	 ecx
  00004	89 4d fc	 mov	 DWORD PTR _this$[ebp], ecx

; 2801 :         _Tidy_deallocate();

  00007	8b 4d fc	 mov	 ecx, DWORD PTR _this$[ebp]
  0000a	e8 00 00 00 00	 call	 ?_Tidy_deallocate@?$basic_string@DU?$char_traits@D@std@@V?$allocator@D@2@@std@@AAEXXZ ; std::basic_string<char,std::char_traits<char>,std::allocator<char> >::_Tidy_deallocate
  0000f	c9		 leave
  00010	c3		 ret	 0
??1?$pair@$$CBV?$basic_string@DU?$char_traits@D@std@@V?$allocator@D@2@@std@@PAVCGraphicImageInstance@@@std@@QAE@XZ ENDP ; std::pair<std::basic_string<char,std::char_traits<char>,std::allocator<char> > const ,CGraphicImageInstance *>::~pair<std::basic_string<char,std::char_traits<char>,std::allocator<char> > const ,CGraphicImageInstance *>
_TEXT	ENDS
; Function compile flags: /Odspy
; File C:\Program Files (x86)\Microsoft Visual Studio\2019\Community\VC\Tools\MSVC\14.28.29333\include\xtree
;	COMDAT ??E?$_Tree_unchecked_const_iterator@V?$_Tree_val@U?$_Tree_simple_types@U?$pair@$$CBV?$basic_string@DU?$char_traits@D@std@@V?$allocator@D@2@@std@@PAVCGraphicImageInstance@@@std@@@std@@@std@@U_Iterator_base0@2@@std@@QAEAAV01@XZ
_TEXT	SEGMENT
$T1 = -16						; size = 4
__Pnode$ = -12						; size = 4
__Pnode$2 = -8						; size = 4
_this$ = -4						; size = 4
??E?$_Tree_unchecked_const_iterator@V?$_Tree_val@U?$_Tree_simple_types@U?$pair@$$CBV?$basic_string@DU?$char_traits@D@std@@V?$allocator@D@2@@std@@PAVCGraphicImageInstance@@@std@@@std@@@std@@U_Iterator_base0@2@@std@@QAEAAV01@XZ PROC ; std::_Tree_unchecked_const_iterator<std::_Tree_val<std::_Tree_simple_types<std::pair<std::basic_string<char,std::char_traits<char>,std::allocator<char> > const ,CGraphicImageInstance *> > >,std::_Iterator_base0>::operator++, COMDAT
; _this$ = ecx

; 51   :     _Tree_unchecked_const_iterator& operator++() noexcept {

  00000	55		 push	 ebp
  00001	8b ec		 mov	 ebp, esp
  00003	83 ec 10	 sub	 esp, 16			; 00000010H
  00006	89 4d fc	 mov	 DWORD PTR _this$[ebp], ecx

; 52   :         if (_Ptr->_Right->_Isnil) { // climb looking for right subtree

  00009	8b 45 fc	 mov	 eax, DWORD PTR _this$[ebp]
  0000c	8b 00		 mov	 eax, DWORD PTR [eax]
  0000e	8b 40 08	 mov	 eax, DWORD PTR [eax+8]
  00011	0f be 40 0d	 movsx	 eax, BYTE PTR [eax+13]
  00015	85 c0		 test	 eax, eax
  00017	74 37		 je	 SHORT $LN4@operator
$LN2@operator:

; 53   :             _Nodeptr _Pnode;
; 54   :             while (!(_Pnode = _Ptr->_Parent)->_Isnil && _Ptr == _Pnode->_Right) {

  00019	8b 45 fc	 mov	 eax, DWORD PTR _this$[ebp]
  0001c	8b 00		 mov	 eax, DWORD PTR [eax]
  0001e	8b 40 04	 mov	 eax, DWORD PTR [eax+4]
  00021	89 45 f8	 mov	 DWORD PTR __Pnode$2[ebp], eax
  00024	8b 45 f8	 mov	 eax, DWORD PTR __Pnode$2[ebp]
  00027	0f be 40 0d	 movsx	 eax, BYTE PTR [eax+13]
  0002b	85 c0		 test	 eax, eax
  0002d	75 17		 jne	 SHORT $LN3@operator
  0002f	8b 45 fc	 mov	 eax, DWORD PTR _this$[ebp]
  00032	8b 4d f8	 mov	 ecx, DWORD PTR __Pnode$2[ebp]
  00035	8b 00		 mov	 eax, DWORD PTR [eax]
  00037	3b 41 08	 cmp	 eax, DWORD PTR [ecx+8]
  0003a	75 0a		 jne	 SHORT $LN3@operator

; 55   :                 _Ptr = _Pnode; // ==> parent while right subtree

  0003c	8b 45 fc	 mov	 eax, DWORD PTR _this$[ebp]
  0003f	8b 4d f8	 mov	 ecx, DWORD PTR __Pnode$2[ebp]
  00042	89 08		 mov	 DWORD PTR [eax], ecx

; 56   :             }

  00044	eb d3		 jmp	 SHORT $LN2@operator
$LN3@operator:

; 57   : 
; 58   :             _Ptr = _Pnode; // ==> parent (head if end())

  00046	8b 45 fc	 mov	 eax, DWORD PTR _this$[ebp]
  00049	8b 4d f8	 mov	 ecx, DWORD PTR __Pnode$2[ebp]
  0004c	89 08		 mov	 DWORD PTR [eax], ecx

; 59   :         } else {

  0004e	eb 30		 jmp	 SHORT $LN5@operator
$LN4@operator:

; 60   :             _Ptr = _Mytree::_Min(_Ptr->_Right); // ==> smallest of right subtree

  00050	8b 45 fc	 mov	 eax, DWORD PTR _this$[ebp]
  00053	8b 00		 mov	 eax, DWORD PTR [eax]
  00055	8b 40 08	 mov	 eax, DWORD PTR [eax+8]
  00058	89 45 f4	 mov	 DWORD PTR __Pnode$[ebp], eax
$LN8@operator:

; 451  :         while (!_Pnode->_Left->_Isnil) {

  0005b	8b 45 f4	 mov	 eax, DWORD PTR __Pnode$[ebp]
  0005e	8b 00		 mov	 eax, DWORD PTR [eax]
  00060	0f be 40 0d	 movsx	 eax, BYTE PTR [eax+13]
  00064	85 c0		 test	 eax, eax
  00066	75 0a		 jne	 SHORT $LN9@operator

; 452  :             _Pnode = _Pnode->_Left;

  00068	8b 45 f4	 mov	 eax, DWORD PTR __Pnode$[ebp]
  0006b	8b 00		 mov	 eax, DWORD PTR [eax]
  0006d	89 45 f4	 mov	 DWORD PTR __Pnode$[ebp], eax

; 453  :         }

  00070	eb e9		 jmp	 SHORT $LN8@operator
$LN9@operator:

; 454  : 
; 455  :         return _Pnode;

  00072	8b 45 f4	 mov	 eax, DWORD PTR __Pnode$[ebp]
  00075	89 45 f0	 mov	 DWORD PTR $T1[ebp], eax

; 60   :             _Ptr = _Mytree::_Min(_Ptr->_Right); // ==> smallest of right subtree

  00078	8b 45 fc	 mov	 eax, DWORD PTR _this$[ebp]
  0007b	8b 4d f0	 mov	 ecx, DWORD PTR $T1[ebp]
  0007e	89 08		 mov	 DWORD PTR [eax], ecx
$LN5@operator:

; 61   :         }
; 62   : 
; 63   :         return *this;

  00080	8b 45 fc	 mov	 eax, DWORD PTR _this$[ebp]

; 64   :     }

  00083	c9		 leave
  00084	c3		 ret	 0
??E?$_Tree_unchecked_const_iterator@V?$_Tree_val@U?$_Tree_simple_types@U?$pair@$$CBV?$basic_string@DU?$char_traits@D@std@@V?$allocator@D@2@@std@@PAVCGraphicImageInstance@@@std@@@std@@@std@@U_Iterator_base0@2@@std@@QAEAAV01@XZ ENDP ; std::_Tree_unchecked_const_iterator<std::_Tree_val<std::_Tree_simple_types<std::pair<std::basic_string<char,std::char_traits<char>,std::allocator<char> > const ,CGraphicImageInstance *> > >,std::_Iterator_base0>::operator++
_TEXT	ENDS
; Function compile flags: /Odspy
;	COMDAT ??_GCSkyBox@@UAEPAXI@Z
_TEXT	SEGMENT
_this$ = -4						; size = 4
___flags$ = 8						; size = 4
??_GCSkyBox@@UAEPAXI@Z PROC				; CSkyBox::`scalar deleting destructor', COMDAT
; _this$ = ecx
  00000	55		 push	 ebp
  00001	8b ec		 mov	 ebp, esp
  00003	51		 push	 ecx
  00004	89 4d fc	 mov	 DWORD PTR _this$[ebp], ecx
  00007	8b 4d fc	 mov	 ecx, DWORD PTR _this$[ebp]
  0000a	e8 00 00 00 00	 call	 ??1CSkyBox@@UAE@XZ	; CSkyBox::~CSkyBox
  0000f	8b 45 08	 mov	 eax, DWORD PTR ___flags$[ebp]
  00012	83 e0 01	 and	 eax, 1
  00015	74 0f		 je	 SHORT $LN2@scalar
  00017	68 80 03 00 00	 push	 896			; 00000380H
  0001c	ff 75 fc	 push	 DWORD PTR _this$[ebp]
  0001f	e8 00 00 00 00	 call	 ??3@YAXPAXI@Z		; operator delete
  00024	59		 pop	 ecx
  00025	59		 pop	 ecx
$LN2@scalar:
  00026	8b 45 fc	 mov	 eax, DWORD PTR _this$[ebp]
  00029	c9		 leave
  0002a	c2 04 00	 ret	 4
??_GCSkyBox@@UAEPAXI@Z ENDP				; CSkyBox::`scalar deleting destructor'
_TEXT	ENDS
; Function compile flags: /Odspy
; File D:\Metin2 Server Files\mainline\SRC_2014\Metin2Client\EterLib\SkyBox.cpp
; File C:\Program Files (x86)\Microsoft Visual Studio\2019\Community\VC\Tools\MSVC\14.28.29333\include\vector
; File D:\Metin2 Server Files\mainline\SRC_2014\Metin2Client\EterLib\SkyBox.cpp
;	COMDAT ?SetSkyObjectQuadHorizon@CSkyBox@@IAEXPAV?$vector@VCSkyObjectQuad@@V?$allocator@VCSkyObjectQuad@@@std@@@std@@PBUD3DXVECTOR3@@@Z
_TEXT	SEGMENT
_this$ = -44						; size = 4
$T1 = -37						; size = 1
_rSkyObjectQuad$ = -36					; size = 4
$T2 = -32						; size = 1
$T3 = -31						; size = 1
$T4 = -30						; size = 1
$T5 = -29						; size = 1
_aPDTVertex$ = -28					; size = 24
__$ArrayPad$ = -4					; size = 4
_pSkyObjectQuadVector$ = 8				; size = 4
_c_pv3QuadPoints$ = 12					; size = 4
?SetSkyObjectQuadHorizon@CSkyBox@@IAEXPAV?$vector@VCSkyObjectQuad@@V?$allocator@VCSkyObjectQuad@@@std@@@std@@PBUD3DXVECTOR3@@@Z PROC ; CSkyBox::SetSkyObjectQuadHorizon, COMDAT
; _this$ = ecx

; 404  : {

  00000	55		 push	 ebp
  00001	8b ec		 mov	 ebp, esp
  00003	83 ec 2c	 sub	 esp, 44			; 0000002cH
  00006	a1 00 00 00 00	 mov	 eax, DWORD PTR ___security_cookie
  0000b	33 c5		 xor	 eax, ebp
  0000d	89 45 fc	 mov	 DWORD PTR __$ArrayPad$[ebp], eax
  00010	56		 push	 esi
  00011	57		 push	 edi
  00012	89 4d d4	 mov	 DWORD PTR _this$[ebp], ecx

; 405  : 	pSkyObjectQuadVector->clear();

  00015	8b 4d 08	 mov	 ecx, DWORD PTR _pSkyObjectQuadVector$[ebp]
  00018	e8 00 00 00 00	 call	 ?clear@?$vector@VCSkyObjectQuad@@V?$allocator@VCSkyObjectQuad@@@std@@@std@@QAEXXZ ; std::vector<CSkyObjectQuad,std::allocator<CSkyObjectQuad> >::clear
; File C:\Program Files (x86)\Microsoft Visual Studio\2019\Community\VC\Tools\MSVC\14.28.29333\include\vector

; 1242 :         _Resize(_Newsize, _Value_init_tag{});

  0001d	8d 45 db	 lea	 eax, DWORD PTR $T1[ebp]
  00020	50		 push	 eax
  00021	6a 01		 push	 1
  00023	8b 4d 08	 mov	 ecx, DWORD PTR _pSkyObjectQuadVector$[ebp]
  00026	e8 00 00 00 00	 call	 ??$_Resize@U_Value_init_tag@std@@@?$vector@VCSkyObjectQuad@@V?$allocator@VCSkyObjectQuad@@@std@@@std@@AAEXIABU_Value_init_tag@1@@Z ; std::vector<CSkyObjectQuad,std::allocator<CSkyObjectQuad> >::_Resize<std::_Value_init_tag>
; File D:\Metin2 Server Files\mainline\SRC_2014\Metin2Client\EterLib\SkyBox.cpp

; 407  : 	CSkyObjectQuad & rSkyObjectQuad = pSkyObjectQuadVector->at(0);

  0002b	6a 00		 push	 0
  0002d	8b 4d 08	 mov	 ecx, DWORD PTR _pSkyObjectQuadVector$[ebp]
  00030	e8 00 00 00 00	 call	 ?at@?$vector@VCSkyObjectQuad@@V?$allocator@VCSkyObjectQuad@@@std@@@std@@QAEAAVCSkyObjectQuad@@I@Z ; std::vector<CSkyObjectQuad,std::allocator<CSkyObjectQuad> >::at
  00035	89 45 dc	 mov	 DWORD PTR _rSkyObjectQuad$[ebp], eax

; 408  : 
; 409  : 	TPDTVertex aPDTVertex;
; 410  : 	aPDTVertex.position		= c_pv3QuadPoints[0];

  00038	6a 0c		 push	 12			; 0000000cH
  0003a	58		 pop	 eax
  0003b	6b f0 00	 imul	 esi, eax, 0
  0003e	03 75 0c	 add	 esi, DWORD PTR _c_pv3QuadPoints$[ebp]
  00041	8d 7d e4	 lea	 edi, DWORD PTR _aPDTVertex$[ebp]
  00044	a5		 movsd
  00045	a5		 movsd
  00046	a5		 movsd

; 411  : 	aPDTVertex.texCoord.x	= 0.0f;

  00047	0f 57 c0	 xorps	 xmm0, xmm0
  0004a	f3 0f 11 45 f4	 movss	 DWORD PTR _aPDTVertex$[ebp+16], xmm0

; 412  : 	aPDTVertex.texCoord.y	= 1.0f;

  0004f	f3 0f 10 05 00
	00 00 00	 movss	 xmm0, DWORD PTR __real@3f800000
  00057	f3 0f 11 45 f8	 movss	 DWORD PTR _aPDTVertex$[ebp+20], xmm0

; 413  : 	rSkyObjectQuad.SetVertex(0, aPDTVertex);

  0005c	c6 45 e3 00	 mov	 BYTE PTR $T5[ebp], 0
  00060	8d 45 e4	 lea	 eax, DWORD PTR _aPDTVertex$[ebp]
  00063	50		 push	 eax
  00064	8d 45 e3	 lea	 eax, DWORD PTR $T5[ebp]
  00067	50		 push	 eax
  00068	8b 4d dc	 mov	 ecx, DWORD PTR _rSkyObjectQuad$[ebp]
  0006b	e8 00 00 00 00	 call	 ?SetVertex@CSkyObjectQuad@@QAEXABEABUSPDTVertex@@@Z ; CSkyObjectQuad::SetVertex

; 414  : 
; 415  : 	aPDTVertex.position		= c_pv3QuadPoints[1];

  00070	6a 0c		 push	 12			; 0000000cH
  00072	5e		 pop	 esi
  00073	c1 e6 00	 shl	 esi, 0
  00076	03 75 0c	 add	 esi, DWORD PTR _c_pv3QuadPoints$[ebp]
  00079	8d 7d e4	 lea	 edi, DWORD PTR _aPDTVertex$[ebp]
  0007c	a5		 movsd
  0007d	a5		 movsd
  0007e	a5		 movsd

; 416  : 	aPDTVertex.texCoord.x	= 0.0f;

  0007f	0f 57 c0	 xorps	 xmm0, xmm0
  00082	f3 0f 11 45 f4	 movss	 DWORD PTR _aPDTVertex$[ebp+16], xmm0

; 417  : 	aPDTVertex.texCoord.y	= 0.0f;

  00087	0f 57 c0	 xorps	 xmm0, xmm0
  0008a	f3 0f 11 45 f8	 movss	 DWORD PTR _aPDTVertex$[ebp+20], xmm0

; 418  : 	rSkyObjectQuad.SetVertex(1, aPDTVertex);

  0008f	c6 45 e2 01	 mov	 BYTE PTR $T4[ebp], 1
  00093	8d 45 e4	 lea	 eax, DWORD PTR _aPDTVertex$[ebp]
  00096	50		 push	 eax
  00097	8d 45 e2	 lea	 eax, DWORD PTR $T4[ebp]
  0009a	50		 push	 eax
  0009b	8b 4d dc	 mov	 ecx, DWORD PTR _rSkyObjectQuad$[ebp]
  0009e	e8 00 00 00 00	 call	 ?SetVertex@CSkyObjectQuad@@QAEXABEABUSPDTVertex@@@Z ; CSkyObjectQuad::SetVertex

; 419  : 
; 420  : 	aPDTVertex.position		= c_pv3QuadPoints[2];

  000a3	6a 0c		 push	 12			; 0000000cH
  000a5	5e		 pop	 esi
  000a6	d1 e6		 shl	 esi, 1
  000a8	03 75 0c	 add	 esi, DWORD PTR _c_pv3QuadPoints$[ebp]
  000ab	8d 7d e4	 lea	 edi, DWORD PTR _aPDTVertex$[ebp]
  000ae	a5		 movsd
  000af	a5		 movsd
  000b0	a5		 movsd

; 421  : 	aPDTVertex.texCoord.x	= 1.0f;

  000b1	f3 0f 10 05 00
	00 00 00	 movss	 xmm0, DWORD PTR __real@3f800000
  000b9	f3 0f 11 45 f4	 movss	 DWORD PTR _aPDTVertex$[ebp+16], xmm0

; 422  : 	aPDTVertex.texCoord.y	= 1.0f;

  000be	f3 0f 10 05 00
	00 00 00	 movss	 xmm0, DWORD PTR __real@3f800000
  000c6	f3 0f 11 45 f8	 movss	 DWORD PTR _aPDTVertex$[ebp+20], xmm0

; 423  : 	rSkyObjectQuad.SetVertex(2, aPDTVertex);

  000cb	c6 45 e1 02	 mov	 BYTE PTR $T3[ebp], 2
  000cf	8d 45 e4	 lea	 eax, DWORD PTR _aPDTVertex$[ebp]
  000d2	50		 push	 eax
  000d3	8d 45 e1	 lea	 eax, DWORD PTR $T3[ebp]
  000d6	50		 push	 eax
  000d7	8b 4d dc	 mov	 ecx, DWORD PTR _rSkyObjectQuad$[ebp]
  000da	e8 00 00 00 00	 call	 ?SetVertex@CSkyObjectQuad@@QAEXABEABUSPDTVertex@@@Z ; CSkyObjectQuad::SetVertex

; 424  : 
; 425  : 	aPDTVertex.position		= c_pv3QuadPoints[3];

  000df	6a 0c		 push	 12			; 0000000cH
  000e1	58		 pop	 eax
  000e2	6b f0 03	 imul	 esi, eax, 3
  000e5	03 75 0c	 add	 esi, DWORD PTR _c_pv3QuadPoints$[ebp]
  000e8	8d 7d e4	 lea	 edi, DWORD PTR _aPDTVertex$[ebp]
  000eb	a5		 movsd
  000ec	a5		 movsd
  000ed	a5		 movsd

; 426  : 	aPDTVertex.texCoord.x	= 1.0f;

  000ee	f3 0f 10 05 00
	00 00 00	 movss	 xmm0, DWORD PTR __real@3f800000
  000f6	f3 0f 11 45 f4	 movss	 DWORD PTR _aPDTVertex$[ebp+16], xmm0

; 427  : 	aPDTVertex.texCoord.y	= 0.0f;

  000fb	0f 57 c0	 xorps	 xmm0, xmm0
  000fe	f3 0f 11 45 f8	 movss	 DWORD PTR _aPDTVertex$[ebp+20], xmm0

; 428  : 	rSkyObjectQuad.SetVertex(3, aPDTVertex);

  00103	c6 45 e0 03	 mov	 BYTE PTR $T2[ebp], 3
  00107	8d 45 e4	 lea	 eax, DWORD PTR _aPDTVertex$[ebp]
  0010a	50		 push	 eax
  0010b	8d 45 e0	 lea	 eax, DWORD PTR $T2[ebp]
  0010e	50		 push	 eax
  0010f	8b 4d dc	 mov	 ecx, DWORD PTR _rSkyObjectQuad$[ebp]
  00112	e8 00 00 00 00	 call	 ?SetVertex@CSkyObjectQuad@@QAEXABEABUSPDTVertex@@@Z ; CSkyObjectQuad::SetVertex

; 429  : }

  00117	5f		 pop	 edi
  00118	5e		 pop	 esi
  00119	8b 4d fc	 mov	 ecx, DWORD PTR __$ArrayPad$[ebp]
  0011c	33 cd		 xor	 ecx, ebp
  0011e	e8 00 00 00 00	 call	 @__security_check_cookie@4
  00123	c9		 leave
  00124	c2 08 00	 ret	 8
?SetSkyObjectQuadHorizon@CSkyBox@@IAEXPAV?$vector@VCSkyObjectQuad@@V?$allocator@VCSkyObjectQuad@@@std@@@std@@PBUD3DXVECTOR3@@@Z ENDP ; CSkyBox::SetSkyObjectQuadHorizon
_TEXT	ENDS
; Function compile flags: /Odspy
; File D:\Metin2 Server Files\mainline\SRC_2014\Metin2Client\EterLib\SkyBox.cpp
; File C:\Program Files (x86)\Microsoft Visual Studio\2019\Community\VC\Tools\MSVC\14.28.29333\include\vector
; File D:\Metin2 Server Files\mainline\SRC_2014\Metin2Client\EterLib\SkyBox.cpp
;	COMDAT ?SetSkyObjectQuadVertical@CSkyBox@@IAEXPAV?$vector@VCSkyObjectQuad@@V?$allocator@VCSkyObjectQuad@@@std@@@std@@PBUD3DXVECTOR2@@@Z
_TEXT	SEGMENT
tv279 = -72						; size = 4
tv81 = -68						; size = 4
__Newsize$ = -64					; size = 4
$T1 = -57						; size = 1
_rSkyObjectQuad$2 = -56					; size = 4
_rSkyObjectQuad$3 = -52					; size = 4
_dwIndex$ = -48						; size = 4
$T4 = -44						; size = 1
$T5 = -43						; size = 1
$T6 = -42						; size = 1
$T7 = -41						; size = 1
$T8 = -40						; size = 1
$T9 = -39						; size = 1
$T10 = -38						; size = 1
$T11 = -37						; size = 1
_this$ = -36						; size = 4
_ucY$ = -29						; size = 1
_aPDTVertex$ = -28					; size = 24
__$ArrayPad$ = -4					; size = 4
_pSkyObjectQuadVector$ = 8				; size = 4
_c_pv2QuadPoints$ = 12					; size = 4
?SetSkyObjectQuadVertical@CSkyBox@@IAEXPAV?$vector@VCSkyObjectQuad@@V?$allocator@VCSkyObjectQuad@@@std@@@std@@PBUD3DXVECTOR2@@@Z PROC ; CSkyBox::SetSkyObjectQuadVertical, COMDAT
; _this$ = ecx

; 322  : {

  00000	55		 push	 ebp
  00001	8b ec		 mov	 ebp, esp
  00003	83 ec 48	 sub	 esp, 72			; 00000048H
  00006	a1 00 00 00 00	 mov	 eax, DWORD PTR ___security_cookie
  0000b	33 c5		 xor	 eax, ebp
  0000d	89 45 fc	 mov	 DWORD PTR __$ArrayPad$[ebp], eax
  00010	89 4d dc	 mov	 DWORD PTR _this$[ebp], ecx

; 323  : 	TPDTVertex aPDTVertex;
; 324  : 
; 325  : 	DWORD dwIndex = 0;

  00013	83 65 d0 00	 and	 DWORD PTR _dwIndex$[ebp], 0

; 326  : 
; 327  : 	pSkyObjectQuadVector->clear();

  00017	8b 4d 08	 mov	 ecx, DWORD PTR _pSkyObjectQuadVector$[ebp]
  0001a	e8 00 00 00 00	 call	 ?clear@?$vector@VCSkyObjectQuad@@V?$allocator@VCSkyObjectQuad@@@std@@@std@@QAEXXZ ; std::vector<CSkyObjectQuad,std::allocator<CSkyObjectQuad> >::clear

; 328  : 	pSkyObjectQuadVector->resize(m_ucVirticalGradientLevelUpper + m_ucVirticalGradientLevelLower);

  0001f	8b 45 dc	 mov	 eax, DWORD PTR _this$[ebp]
  00022	0f b6 80 15 02
	00 00		 movzx	 eax, BYTE PTR [eax+533]
  00029	8b 4d dc	 mov	 ecx, DWORD PTR _this$[ebp]
  0002c	0f b6 89 14 02
	00 00		 movzx	 ecx, BYTE PTR [ecx+532]
  00033	03 c8		 add	 ecx, eax
  00035	89 4d c0	 mov	 DWORD PTR __Newsize$[ebp], ecx
; File C:\Program Files (x86)\Microsoft Visual Studio\2019\Community\VC\Tools\MSVC\14.28.29333\include\vector

; 1242 :         _Resize(_Newsize, _Value_init_tag{});

  00038	8d 45 c7	 lea	 eax, DWORD PTR $T1[ebp]
  0003b	50		 push	 eax
  0003c	ff 75 c0	 push	 DWORD PTR __Newsize$[ebp]
  0003f	8b 4d 08	 mov	 ecx, DWORD PTR _pSkyObjectQuadVector$[ebp]
  00042	e8 00 00 00 00	 call	 ??$_Resize@U_Value_init_tag@std@@@?$vector@VCSkyObjectQuad@@V?$allocator@VCSkyObjectQuad@@@std@@@std@@AAEXIABU_Value_init_tag@1@@Z ; std::vector<CSkyObjectQuad,std::allocator<CSkyObjectQuad> >::_Resize<std::_Value_init_tag>
; File D:\Metin2 Server Files\mainline\SRC_2014\Metin2Client\EterLib\SkyBox.cpp

; 331  : 	for (ucY = 0; ucY < m_ucVirticalGradientLevelUpper; ++ucY)

  00047	c6 45 e3 00	 mov	 BYTE PTR _ucY$[ebp], 0
  0004b	eb 08		 jmp	 SHORT $LN4@SetSkyObje
$LN2@SetSkyObje:
  0004d	8a 45 e3	 mov	 al, BYTE PTR _ucY$[ebp]
  00050	04 01		 add	 al, 1
  00052	88 45 e3	 mov	 BYTE PTR _ucY$[ebp], al
$LN4@SetSkyObje:
  00055	0f b6 45 e3	 movzx	 eax, BYTE PTR _ucY$[ebp]
  00059	8b 4d dc	 mov	 ecx, DWORD PTR _this$[ebp]
  0005c	0f b6 89 14 02
	00 00		 movzx	 ecx, BYTE PTR [ecx+532]
  00063	3b c1		 cmp	 eax, ecx
  00065	0f 8d 82 02 00
	00		 jge	 $LN3@SetSkyObje

; 332  : 	{
; 333  : 		CSkyObjectQuad & rSkyObjectQuad = pSkyObjectQuadVector->at(dwIndex++);

  0006b	8b 45 d0	 mov	 eax, DWORD PTR _dwIndex$[ebp]
  0006e	89 45 bc	 mov	 DWORD PTR tv81[ebp], eax
  00071	ff 75 bc	 push	 DWORD PTR tv81[ebp]
  00074	8b 4d 08	 mov	 ecx, DWORD PTR _pSkyObjectQuadVector$[ebp]
  00077	e8 00 00 00 00	 call	 ?at@?$vector@VCSkyObjectQuad@@V?$allocator@VCSkyObjectQuad@@@std@@@std@@QAEAAVCSkyObjectQuad@@I@Z ; std::vector<CSkyObjectQuad,std::allocator<CSkyObjectQuad> >::at
  0007c	89 45 cc	 mov	 DWORD PTR _rSkyObjectQuad$3[ebp], eax
  0007f	8b 45 d0	 mov	 eax, DWORD PTR _dwIndex$[ebp]
  00082	40		 inc	 eax
  00083	89 45 d0	 mov	 DWORD PTR _dwIndex$[ebp], eax

; 334  : 
; 335  : 		aPDTVertex.position.x = c_pv2QuadPoints[0].x;

  00086	6a 08		 push	 8
  00088	58		 pop	 eax
  00089	6b c0 00	 imul	 eax, eax, 0
  0008c	8b 4d 0c	 mov	 ecx, DWORD PTR _c_pv2QuadPoints$[ebp]
  0008f	f3 0f 10 04 01	 movss	 xmm0, DWORD PTR [ecx+eax]
  00094	f3 0f 11 45 e4	 movss	 DWORD PTR _aPDTVertex$[ebp], xmm0

; 336  : 		aPDTVertex.position.y = c_pv2QuadPoints[0].y;

  00099	6a 08		 push	 8
  0009b	58		 pop	 eax
  0009c	6b c0 00	 imul	 eax, eax, 0
  0009f	8b 4d 0c	 mov	 ecx, DWORD PTR _c_pv2QuadPoints$[ebp]
  000a2	f3 0f 10 44 01
	04		 movss	 xmm0, DWORD PTR [ecx+eax+4]
  000a8	f3 0f 11 45 e8	 movss	 DWORD PTR _aPDTVertex$[ebp+4], xmm0

; 337  : 		aPDTVertex.position.z = 1.0f - (float)(ucY + 1)/ (float)(m_ucVirticalGradientLevelUpper); 

  000ad	0f b6 45 e3	 movzx	 eax, BYTE PTR _ucY$[ebp]
  000b1	40		 inc	 eax
  000b2	f3 0f 2a c0	 cvtsi2ss xmm0, eax
  000b6	8b 45 dc	 mov	 eax, DWORD PTR _this$[ebp]
  000b9	0f b6 80 14 02
	00 00		 movzx	 eax, BYTE PTR [eax+532]
  000c0	f3 0f 2a c8	 cvtsi2ss xmm1, eax
  000c4	f3 0f 5e c1	 divss	 xmm0, xmm1
  000c8	f3 0f 10 0d 00
	00 00 00	 movss	 xmm1, DWORD PTR __real@3f800000
  000d0	f3 0f 5c c8	 subss	 xmm1, xmm0
  000d4	f3 0f 11 4d ec	 movss	 DWORD PTR _aPDTVertex$[ebp+8], xmm1

; 338  : 		aPDTVertex.texCoord.x = 0.0f;

  000d9	0f 57 c0	 xorps	 xmm0, xmm0
  000dc	f3 0f 11 45 f4	 movss	 DWORD PTR _aPDTVertex$[ebp+16], xmm0

; 339  : 		aPDTVertex.texCoord.y = (float)(ucY + 1)/ (float)(m_ucVirticalGradientLevelUpper) * 0.5f;

  000e1	0f b6 45 e3	 movzx	 eax, BYTE PTR _ucY$[ebp]
  000e5	40		 inc	 eax
  000e6	f3 0f 2a c0	 cvtsi2ss xmm0, eax
  000ea	8b 45 dc	 mov	 eax, DWORD PTR _this$[ebp]
  000ed	0f b6 80 14 02
	00 00		 movzx	 eax, BYTE PTR [eax+532]
  000f4	f3 0f 2a c8	 cvtsi2ss xmm1, eax
  000f8	f3 0f 5e c1	 divss	 xmm0, xmm1
  000fc	f3 0f 59 05 00
	00 00 00	 mulss	 xmm0, DWORD PTR __real@3f000000
  00104	f3 0f 11 45 f8	 movss	 DWORD PTR _aPDTVertex$[ebp+20], xmm0

; 340  : 		rSkyObjectQuad.SetVertex(0 , aPDTVertex);

  00109	c6 45 db 00	 mov	 BYTE PTR $T11[ebp], 0
  0010d	8d 45 e4	 lea	 eax, DWORD PTR _aPDTVertex$[ebp]
  00110	50		 push	 eax
  00111	8d 45 db	 lea	 eax, DWORD PTR $T11[ebp]
  00114	50		 push	 eax
  00115	8b 4d cc	 mov	 ecx, DWORD PTR _rSkyObjectQuad$3[ebp]
  00118	e8 00 00 00 00	 call	 ?SetVertex@CSkyObjectQuad@@QAEXABEABUSPDTVertex@@@Z ; CSkyObjectQuad::SetVertex

; 341  : 		aPDTVertex.position.x = c_pv2QuadPoints[0].x;

  0011d	6a 08		 push	 8
  0011f	58		 pop	 eax
  00120	6b c0 00	 imul	 eax, eax, 0
  00123	8b 4d 0c	 mov	 ecx, DWORD PTR _c_pv2QuadPoints$[ebp]
  00126	f3 0f 10 04 01	 movss	 xmm0, DWORD PTR [ecx+eax]
  0012b	f3 0f 11 45 e4	 movss	 DWORD PTR _aPDTVertex$[ebp], xmm0

; 342  : 		aPDTVertex.position.y = c_pv2QuadPoints[0].y;

  00130	6a 08		 push	 8
  00132	58		 pop	 eax
  00133	6b c0 00	 imul	 eax, eax, 0
  00136	8b 4d 0c	 mov	 ecx, DWORD PTR _c_pv2QuadPoints$[ebp]
  00139	f3 0f 10 44 01
	04		 movss	 xmm0, DWORD PTR [ecx+eax+4]
  0013f	f3 0f 11 45 e8	 movss	 DWORD PTR _aPDTVertex$[ebp+4], xmm0

; 343  : 		aPDTVertex.position.z = 1.0f - (float)(ucY) / (float)(m_ucVirticalGradientLevelUpper); 

  00144	0f b6 45 e3	 movzx	 eax, BYTE PTR _ucY$[ebp]
  00148	f3 0f 2a c0	 cvtsi2ss xmm0, eax
  0014c	8b 45 dc	 mov	 eax, DWORD PTR _this$[ebp]
  0014f	0f b6 80 14 02
	00 00		 movzx	 eax, BYTE PTR [eax+532]
  00156	f3 0f 2a c8	 cvtsi2ss xmm1, eax
  0015a	f3 0f 5e c1	 divss	 xmm0, xmm1
  0015e	f3 0f 10 0d 00
	00 00 00	 movss	 xmm1, DWORD PTR __real@3f800000
  00166	f3 0f 5c c8	 subss	 xmm1, xmm0
  0016a	f3 0f 11 4d ec	 movss	 DWORD PTR _aPDTVertex$[ebp+8], xmm1

; 344  : 		aPDTVertex.texCoord.x = 0.0f;

  0016f	0f 57 c0	 xorps	 xmm0, xmm0
  00172	f3 0f 11 45 f4	 movss	 DWORD PTR _aPDTVertex$[ebp+16], xmm0

; 345  : 		aPDTVertex.texCoord.y = (float)(ucY)/ (float)(m_ucVirticalGradientLevelUpper) * 0.5f;

  00177	0f b6 45 e3	 movzx	 eax, BYTE PTR _ucY$[ebp]
  0017b	f3 0f 2a c0	 cvtsi2ss xmm0, eax
  0017f	8b 45 dc	 mov	 eax, DWORD PTR _this$[ebp]
  00182	0f b6 80 14 02
	00 00		 movzx	 eax, BYTE PTR [eax+532]
  00189	f3 0f 2a c8	 cvtsi2ss xmm1, eax
  0018d	f3 0f 5e c1	 divss	 xmm0, xmm1
  00191	f3 0f 59 05 00
	00 00 00	 mulss	 xmm0, DWORD PTR __real@3f000000
  00199	f3 0f 11 45 f8	 movss	 DWORD PTR _aPDTVertex$[ebp+20], xmm0

; 346  : 		rSkyObjectQuad.SetVertex(1, aPDTVertex);

  0019e	c6 45 da 01	 mov	 BYTE PTR $T10[ebp], 1
  001a2	8d 45 e4	 lea	 eax, DWORD PTR _aPDTVertex$[ebp]
  001a5	50		 push	 eax
  001a6	8d 45 da	 lea	 eax, DWORD PTR $T10[ebp]
  001a9	50		 push	 eax
  001aa	8b 4d cc	 mov	 ecx, DWORD PTR _rSkyObjectQuad$3[ebp]
  001ad	e8 00 00 00 00	 call	 ?SetVertex@CSkyObjectQuad@@QAEXABEABUSPDTVertex@@@Z ; CSkyObjectQuad::SetVertex

; 347  : 		aPDTVertex.position.x = c_pv2QuadPoints[1].x;

  001b2	6a 08		 push	 8
  001b4	58		 pop	 eax
  001b5	c1 e0 00	 shl	 eax, 0
  001b8	8b 4d 0c	 mov	 ecx, DWORD PTR _c_pv2QuadPoints$[ebp]
  001bb	f3 0f 10 04 01	 movss	 xmm0, DWORD PTR [ecx+eax]
  001c0	f3 0f 11 45 e4	 movss	 DWORD PTR _aPDTVertex$[ebp], xmm0

; 348  : 		aPDTVertex.position.y = c_pv2QuadPoints[1].y;

  001c5	6a 08		 push	 8
  001c7	58		 pop	 eax
  001c8	c1 e0 00	 shl	 eax, 0
  001cb	8b 4d 0c	 mov	 ecx, DWORD PTR _c_pv2QuadPoints$[ebp]
  001ce	f3 0f 10 44 01
	04		 movss	 xmm0, DWORD PTR [ecx+eax+4]
  001d4	f3 0f 11 45 e8	 movss	 DWORD PTR _aPDTVertex$[ebp+4], xmm0

; 349  : 		aPDTVertex.position.z = 1.0f - (float)(ucY + 1) / (float)(m_ucVirticalGradientLevelUpper); 

  001d9	0f b6 45 e3	 movzx	 eax, BYTE PTR _ucY$[ebp]
  001dd	40		 inc	 eax
  001de	f3 0f 2a c0	 cvtsi2ss xmm0, eax
  001e2	8b 45 dc	 mov	 eax, DWORD PTR _this$[ebp]
  001e5	0f b6 80 14 02
	00 00		 movzx	 eax, BYTE PTR [eax+532]
  001ec	f3 0f 2a c8	 cvtsi2ss xmm1, eax
  001f0	f3 0f 5e c1	 divss	 xmm0, xmm1
  001f4	f3 0f 10 0d 00
	00 00 00	 movss	 xmm1, DWORD PTR __real@3f800000
  001fc	f3 0f 5c c8	 subss	 xmm1, xmm0
  00200	f3 0f 11 4d ec	 movss	 DWORD PTR _aPDTVertex$[ebp+8], xmm1

; 350  : 		aPDTVertex.texCoord.x = 1.0f;

  00205	f3 0f 10 05 00
	00 00 00	 movss	 xmm0, DWORD PTR __real@3f800000
  0020d	f3 0f 11 45 f4	 movss	 DWORD PTR _aPDTVertex$[ebp+16], xmm0

; 351  : 		aPDTVertex.texCoord.y = (float)(ucY + 1)/ (float)(m_ucVirticalGradientLevelUpper) * 0.5f;

  00212	0f b6 45 e3	 movzx	 eax, BYTE PTR _ucY$[ebp]
  00216	40		 inc	 eax
  00217	f3 0f 2a c0	 cvtsi2ss xmm0, eax
  0021b	8b 45 dc	 mov	 eax, DWORD PTR _this$[ebp]
  0021e	0f b6 80 14 02
	00 00		 movzx	 eax, BYTE PTR [eax+532]
  00225	f3 0f 2a c8	 cvtsi2ss xmm1, eax
  00229	f3 0f 5e c1	 divss	 xmm0, xmm1
  0022d	f3 0f 59 05 00
	00 00 00	 mulss	 xmm0, DWORD PTR __real@3f000000
  00235	f3 0f 11 45 f8	 movss	 DWORD PTR _aPDTVertex$[ebp+20], xmm0

; 352  : 		rSkyObjectQuad.SetVertex(2, aPDTVertex);

  0023a	c6 45 d9 02	 mov	 BYTE PTR $T9[ebp], 2
  0023e	8d 45 e4	 lea	 eax, DWORD PTR _aPDTVertex$[ebp]
  00241	50		 push	 eax
  00242	8d 45 d9	 lea	 eax, DWORD PTR $T9[ebp]
  00245	50		 push	 eax
  00246	8b 4d cc	 mov	 ecx, DWORD PTR _rSkyObjectQuad$3[ebp]
  00249	e8 00 00 00 00	 call	 ?SetVertex@CSkyObjectQuad@@QAEXABEABUSPDTVertex@@@Z ; CSkyObjectQuad::SetVertex

; 353  : 		aPDTVertex.position.x = c_pv2QuadPoints[1].x;

  0024e	6a 08		 push	 8
  00250	58		 pop	 eax
  00251	c1 e0 00	 shl	 eax, 0
  00254	8b 4d 0c	 mov	 ecx, DWORD PTR _c_pv2QuadPoints$[ebp]
  00257	f3 0f 10 04 01	 movss	 xmm0, DWORD PTR [ecx+eax]
  0025c	f3 0f 11 45 e4	 movss	 DWORD PTR _aPDTVertex$[ebp], xmm0

; 354  : 		aPDTVertex.position.y = c_pv2QuadPoints[1].y;

  00261	6a 08		 push	 8
  00263	58		 pop	 eax
  00264	c1 e0 00	 shl	 eax, 0
  00267	8b 4d 0c	 mov	 ecx, DWORD PTR _c_pv2QuadPoints$[ebp]
  0026a	f3 0f 10 44 01
	04		 movss	 xmm0, DWORD PTR [ecx+eax+4]
  00270	f3 0f 11 45 e8	 movss	 DWORD PTR _aPDTVertex$[ebp+4], xmm0

; 355  : 		aPDTVertex.position.z = 1.0f - (float)(ucY) / (float)(m_ucVirticalGradientLevelUpper); 

  00275	0f b6 45 e3	 movzx	 eax, BYTE PTR _ucY$[ebp]
  00279	f3 0f 2a c0	 cvtsi2ss xmm0, eax
  0027d	8b 45 dc	 mov	 eax, DWORD PTR _this$[ebp]
  00280	0f b6 80 14 02
	00 00		 movzx	 eax, BYTE PTR [eax+532]
  00287	f3 0f 2a c8	 cvtsi2ss xmm1, eax
  0028b	f3 0f 5e c1	 divss	 xmm0, xmm1
  0028f	f3 0f 10 0d 00
	00 00 00	 movss	 xmm1, DWORD PTR __real@3f800000
  00297	f3 0f 5c c8	 subss	 xmm1, xmm0
  0029b	f3 0f 11 4d ec	 movss	 DWORD PTR _aPDTVertex$[ebp+8], xmm1

; 356  : 		aPDTVertex.texCoord.x = 1.0f;

  002a0	f3 0f 10 05 00
	00 00 00	 movss	 xmm0, DWORD PTR __real@3f800000
  002a8	f3 0f 11 45 f4	 movss	 DWORD PTR _aPDTVertex$[ebp+16], xmm0

; 357  : 		aPDTVertex.texCoord.y = (float)(ucY)/ (float)(m_ucVirticalGradientLevelUpper) * 0.5f;

  002ad	0f b6 45 e3	 movzx	 eax, BYTE PTR _ucY$[ebp]
  002b1	f3 0f 2a c0	 cvtsi2ss xmm0, eax
  002b5	8b 45 dc	 mov	 eax, DWORD PTR _this$[ebp]
  002b8	0f b6 80 14 02
	00 00		 movzx	 eax, BYTE PTR [eax+532]
  002bf	f3 0f 2a c8	 cvtsi2ss xmm1, eax
  002c3	f3 0f 5e c1	 divss	 xmm0, xmm1
  002c7	f3 0f 59 05 00
	00 00 00	 mulss	 xmm0, DWORD PTR __real@3f000000
  002cf	f3 0f 11 45 f8	 movss	 DWORD PTR _aPDTVertex$[ebp+20], xmm0

; 358  : 		rSkyObjectQuad.SetVertex(3, aPDTVertex);

  002d4	c6 45 d8 03	 mov	 BYTE PTR $T8[ebp], 3
  002d8	8d 45 e4	 lea	 eax, DWORD PTR _aPDTVertex$[ebp]
  002db	50		 push	 eax
  002dc	8d 45 d8	 lea	 eax, DWORD PTR $T8[ebp]
  002df	50		 push	 eax
  002e0	8b 4d cc	 mov	 ecx, DWORD PTR _rSkyObjectQuad$3[ebp]
  002e3	e8 00 00 00 00	 call	 ?SetVertex@CSkyObjectQuad@@QAEXABEABUSPDTVertex@@@Z ; CSkyObjectQuad::SetVertex

; 359  : 	}

  002e8	e9 60 fd ff ff	 jmp	 $LN2@SetSkyObje
$LN3@SetSkyObje:

; 360  : 	for (ucY = 0; ucY < m_ucVirticalGradientLevelLower; ++ucY)

  002ed	c6 45 e3 00	 mov	 BYTE PTR _ucY$[ebp], 0
  002f1	eb 08		 jmp	 SHORT $LN7@SetSkyObje
$LN5@SetSkyObje:
  002f3	8a 45 e3	 mov	 al, BYTE PTR _ucY$[ebp]
  002f6	04 01		 add	 al, 1
  002f8	88 45 e3	 mov	 BYTE PTR _ucY$[ebp], al
$LN7@SetSkyObje:
  002fb	0f b6 45 e3	 movzx	 eax, BYTE PTR _ucY$[ebp]
  002ff	8b 4d dc	 mov	 ecx, DWORD PTR _this$[ebp]
  00302	0f b6 89 15 02
	00 00		 movzx	 ecx, BYTE PTR [ecx+533]
  00309	3b c1		 cmp	 eax, ecx
  0030b	0f 8d 8e 02 00
	00		 jge	 $LN6@SetSkyObje

; 361  : 	{
; 362  : 		CSkyObjectQuad & rSkyObjectQuad = pSkyObjectQuadVector->at(dwIndex++);

  00311	8b 45 d0	 mov	 eax, DWORD PTR _dwIndex$[ebp]
  00314	89 45 b8	 mov	 DWORD PTR tv279[ebp], eax
  00317	ff 75 b8	 push	 DWORD PTR tv279[ebp]
  0031a	8b 4d 08	 mov	 ecx, DWORD PTR _pSkyObjectQuadVector$[ebp]
  0031d	e8 00 00 00 00	 call	 ?at@?$vector@VCSkyObjectQuad@@V?$allocator@VCSkyObjectQuad@@@std@@@std@@QAEAAVCSkyObjectQuad@@I@Z ; std::vector<CSkyObjectQuad,std::allocator<CSkyObjectQuad> >::at
  00322	89 45 c8	 mov	 DWORD PTR _rSkyObjectQuad$2[ebp], eax
  00325	8b 45 d0	 mov	 eax, DWORD PTR _dwIndex$[ebp]
  00328	40		 inc	 eax
  00329	89 45 d0	 mov	 DWORD PTR _dwIndex$[ebp], eax

; 363  : 
; 364  : 		aPDTVertex.position.x = c_pv2QuadPoints[0].x;

  0032c	6a 08		 push	 8
  0032e	58		 pop	 eax
  0032f	6b c0 00	 imul	 eax, eax, 0
  00332	8b 4d 0c	 mov	 ecx, DWORD PTR _c_pv2QuadPoints$[ebp]
  00335	f3 0f 10 04 01	 movss	 xmm0, DWORD PTR [ecx+eax]
  0033a	f3 0f 11 45 e4	 movss	 DWORD PTR _aPDTVertex$[ebp], xmm0

; 365  : 		aPDTVertex.position.y = c_pv2QuadPoints[0].y;

  0033f	6a 08		 push	 8
  00341	58		 pop	 eax
  00342	6b c0 00	 imul	 eax, eax, 0
  00345	8b 4d 0c	 mov	 ecx, DWORD PTR _c_pv2QuadPoints$[ebp]
  00348	f3 0f 10 44 01
	04		 movss	 xmm0, DWORD PTR [ecx+eax+4]
  0034e	f3 0f 11 45 e8	 movss	 DWORD PTR _aPDTVertex$[ebp+4], xmm0

; 366  : 		aPDTVertex.position.z = -(float)(ucY + 1)/ (float)(m_ucVirticalGradientLevelLower); 

  00353	0f b6 45 e3	 movzx	 eax, BYTE PTR _ucY$[ebp]
  00357	40		 inc	 eax
  00358	f3 0f 2a c0	 cvtsi2ss xmm0, eax
  0035c	0f 57 05 00 00
	00 00		 xorps	 xmm0, DWORD PTR __xmm@80000000800000008000000080000000
  00363	8b 45 dc	 mov	 eax, DWORD PTR _this$[ebp]
  00366	0f b6 80 15 02
	00 00		 movzx	 eax, BYTE PTR [eax+533]
  0036d	f3 0f 2a c8	 cvtsi2ss xmm1, eax
  00371	f3 0f 5e c1	 divss	 xmm0, xmm1
  00375	f3 0f 11 45 ec	 movss	 DWORD PTR _aPDTVertex$[ebp+8], xmm0

; 367  : 		aPDTVertex.texCoord.x = 0.0f;

  0037a	0f 57 c0	 xorps	 xmm0, xmm0
  0037d	f3 0f 11 45 f4	 movss	 DWORD PTR _aPDTVertex$[ebp+16], xmm0

; 368  : 		aPDTVertex.texCoord.y = 0.5f + (float)(ucY + 1)/ (float)(m_ucVirticalGradientLevelUpper) * 0.5f;

  00382	0f b6 45 e3	 movzx	 eax, BYTE PTR _ucY$[ebp]
  00386	40		 inc	 eax
  00387	f3 0f 2a c0	 cvtsi2ss xmm0, eax
  0038b	8b 45 dc	 mov	 eax, DWORD PTR _this$[ebp]
  0038e	0f b6 80 14 02
	00 00		 movzx	 eax, BYTE PTR [eax+532]
  00395	f3 0f 2a c8	 cvtsi2ss xmm1, eax
  00399	f3 0f 5e c1	 divss	 xmm0, xmm1
  0039d	f3 0f 59 05 00
	00 00 00	 mulss	 xmm0, DWORD PTR __real@3f000000
  003a5	f3 0f 58 05 00
	00 00 00	 addss	 xmm0, DWORD PTR __real@3f000000
  003ad	f3 0f 11 45 f8	 movss	 DWORD PTR _aPDTVertex$[ebp+20], xmm0

; 369  : 		rSkyObjectQuad.SetVertex(0, aPDTVertex);

  003b2	c6 45 d7 00	 mov	 BYTE PTR $T7[ebp], 0
  003b6	8d 45 e4	 lea	 eax, DWORD PTR _aPDTVertex$[ebp]
  003b9	50		 push	 eax
  003ba	8d 45 d7	 lea	 eax, DWORD PTR $T7[ebp]
  003bd	50		 push	 eax
  003be	8b 4d c8	 mov	 ecx, DWORD PTR _rSkyObjectQuad$2[ebp]
  003c1	e8 00 00 00 00	 call	 ?SetVertex@CSkyObjectQuad@@QAEXABEABUSPDTVertex@@@Z ; CSkyObjectQuad::SetVertex

; 370  : 		aPDTVertex.position.x = c_pv2QuadPoints[0].x;

  003c6	6a 08		 push	 8
  003c8	58		 pop	 eax
  003c9	6b c0 00	 imul	 eax, eax, 0
  003cc	8b 4d 0c	 mov	 ecx, DWORD PTR _c_pv2QuadPoints$[ebp]
  003cf	f3 0f 10 04 01	 movss	 xmm0, DWORD PTR [ecx+eax]
  003d4	f3 0f 11 45 e4	 movss	 DWORD PTR _aPDTVertex$[ebp], xmm0

; 371  : 		aPDTVertex.position.y = c_pv2QuadPoints[0].y;

  003d9	6a 08		 push	 8
  003db	58		 pop	 eax
  003dc	6b c0 00	 imul	 eax, eax, 0
  003df	8b 4d 0c	 mov	 ecx, DWORD PTR _c_pv2QuadPoints$[ebp]
  003e2	f3 0f 10 44 01
	04		 movss	 xmm0, DWORD PTR [ecx+eax+4]
  003e8	f3 0f 11 45 e8	 movss	 DWORD PTR _aPDTVertex$[ebp+4], xmm0

; 372  : 		aPDTVertex.position.z = -(float)(ucY) / (float)(m_ucVirticalGradientLevelLower);

  003ed	0f b6 45 e3	 movzx	 eax, BYTE PTR _ucY$[ebp]
  003f1	f3 0f 2a c0	 cvtsi2ss xmm0, eax
  003f5	0f 57 05 00 00
	00 00		 xorps	 xmm0, DWORD PTR __xmm@80000000800000008000000080000000
  003fc	8b 45 dc	 mov	 eax, DWORD PTR _this$[ebp]
  003ff	0f b6 80 15 02
	00 00		 movzx	 eax, BYTE PTR [eax+533]
  00406	f3 0f 2a c8	 cvtsi2ss xmm1, eax
  0040a	f3 0f 5e c1	 divss	 xmm0, xmm1
  0040e	f3 0f 11 45 ec	 movss	 DWORD PTR _aPDTVertex$[ebp+8], xmm0

; 373  : 		aPDTVertex.texCoord.x = 0.0f;

  00413	0f 57 c0	 xorps	 xmm0, xmm0
  00416	f3 0f 11 45 f4	 movss	 DWORD PTR _aPDTVertex$[ebp+16], xmm0

; 374  : 		aPDTVertex.texCoord.y = 0.5f + (float)(ucY)/ (float)(m_ucVirticalGradientLevelUpper) * 0.5f;

  0041b	0f b6 45 e3	 movzx	 eax, BYTE PTR _ucY$[ebp]
  0041f	f3 0f 2a c0	 cvtsi2ss xmm0, eax
  00423	8b 45 dc	 mov	 eax, DWORD PTR _this$[ebp]
  00426	0f b6 80 14 02
	00 00		 movzx	 eax, BYTE PTR [eax+532]
  0042d	f3 0f 2a c8	 cvtsi2ss xmm1, eax
  00431	f3 0f 5e c1	 divss	 xmm0, xmm1
  00435	f3 0f 59 05 00
	00 00 00	 mulss	 xmm0, DWORD PTR __real@3f000000
  0043d	f3 0f 58 05 00
	00 00 00	 addss	 xmm0, DWORD PTR __real@3f000000
  00445	f3 0f 11 45 f8	 movss	 DWORD PTR _aPDTVertex$[ebp+20], xmm0

; 375  : 		rSkyObjectQuad.SetVertex(1, aPDTVertex);

  0044a	c6 45 d6 01	 mov	 BYTE PTR $T6[ebp], 1
  0044e	8d 45 e4	 lea	 eax, DWORD PTR _aPDTVertex$[ebp]
  00451	50		 push	 eax
  00452	8d 45 d6	 lea	 eax, DWORD PTR $T6[ebp]
  00455	50		 push	 eax
  00456	8b 4d c8	 mov	 ecx, DWORD PTR _rSkyObjectQuad$2[ebp]
  00459	e8 00 00 00 00	 call	 ?SetVertex@CSkyObjectQuad@@QAEXABEABUSPDTVertex@@@Z ; CSkyObjectQuad::SetVertex

; 376  : 		aPDTVertex.position.x = c_pv2QuadPoints[1].x;

  0045e	6a 08		 push	 8
  00460	58		 pop	 eax
  00461	c1 e0 00	 shl	 eax, 0
  00464	8b 4d 0c	 mov	 ecx, DWORD PTR _c_pv2QuadPoints$[ebp]
  00467	f3 0f 10 04 01	 movss	 xmm0, DWORD PTR [ecx+eax]
  0046c	f3 0f 11 45 e4	 movss	 DWORD PTR _aPDTVertex$[ebp], xmm0

; 377  : 		aPDTVertex.position.y = c_pv2QuadPoints[1].y;

  00471	6a 08		 push	 8
  00473	58		 pop	 eax
  00474	c1 e0 00	 shl	 eax, 0
  00477	8b 4d 0c	 mov	 ecx, DWORD PTR _c_pv2QuadPoints$[ebp]
  0047a	f3 0f 10 44 01
	04		 movss	 xmm0, DWORD PTR [ecx+eax+4]
  00480	f3 0f 11 45 e8	 movss	 DWORD PTR _aPDTVertex$[ebp+4], xmm0

; 378  : 		aPDTVertex.position.z = -(float)(ucY + 1) / (float)(m_ucVirticalGradientLevelLower); 

  00485	0f b6 45 e3	 movzx	 eax, BYTE PTR _ucY$[ebp]
  00489	40		 inc	 eax
  0048a	f3 0f 2a c0	 cvtsi2ss xmm0, eax
  0048e	0f 57 05 00 00
	00 00		 xorps	 xmm0, DWORD PTR __xmm@80000000800000008000000080000000
  00495	8b 45 dc	 mov	 eax, DWORD PTR _this$[ebp]
  00498	0f b6 80 15 02
	00 00		 movzx	 eax, BYTE PTR [eax+533]
  0049f	f3 0f 2a c8	 cvtsi2ss xmm1, eax
  004a3	f3 0f 5e c1	 divss	 xmm0, xmm1
  004a7	f3 0f 11 45 ec	 movss	 DWORD PTR _aPDTVertex$[ebp+8], xmm0

; 379  : 		aPDTVertex.texCoord.x = 1.0f;

  004ac	f3 0f 10 05 00
	00 00 00	 movss	 xmm0, DWORD PTR __real@3f800000
  004b4	f3 0f 11 45 f4	 movss	 DWORD PTR _aPDTVertex$[ebp+16], xmm0

; 380  : 		aPDTVertex.texCoord.y = 0.5f + (float)(ucY + 1)/ (float)(m_ucVirticalGradientLevelUpper) * 0.5f;

  004b9	0f b6 45 e3	 movzx	 eax, BYTE PTR _ucY$[ebp]
  004bd	40		 inc	 eax
  004be	f3 0f 2a c0	 cvtsi2ss xmm0, eax
  004c2	8b 45 dc	 mov	 eax, DWORD PTR _this$[ebp]
  004c5	0f b6 80 14 02
	00 00		 movzx	 eax, BYTE PTR [eax+532]
  004cc	f3 0f 2a c8	 cvtsi2ss xmm1, eax
  004d0	f3 0f 5e c1	 divss	 xmm0, xmm1
  004d4	f3 0f 59 05 00
	00 00 00	 mulss	 xmm0, DWORD PTR __real@3f000000
  004dc	f3 0f 58 05 00
	00 00 00	 addss	 xmm0, DWORD PTR __real@3f000000
  004e4	f3 0f 11 45 f8	 movss	 DWORD PTR _aPDTVertex$[ebp+20], xmm0

; 381  : 		rSkyObjectQuad.SetVertex(2, aPDTVertex);

  004e9	c6 45 d5 02	 mov	 BYTE PTR $T5[ebp], 2
  004ed	8d 45 e4	 lea	 eax, DWORD PTR _aPDTVertex$[ebp]
  004f0	50		 push	 eax
  004f1	8d 45 d5	 lea	 eax, DWORD PTR $T5[ebp]
  004f4	50		 push	 eax
  004f5	8b 4d c8	 mov	 ecx, DWORD PTR _rSkyObjectQuad$2[ebp]
  004f8	e8 00 00 00 00	 call	 ?SetVertex@CSkyObjectQuad@@QAEXABEABUSPDTVertex@@@Z ; CSkyObjectQuad::SetVertex

; 382  : 		aPDTVertex.position.x = c_pv2QuadPoints[1].x;

  004fd	6a 08		 push	 8
  004ff	58		 pop	 eax
  00500	c1 e0 00	 shl	 eax, 0
  00503	8b 4d 0c	 mov	 ecx, DWORD PTR _c_pv2QuadPoints$[ebp]
  00506	f3 0f 10 04 01	 movss	 xmm0, DWORD PTR [ecx+eax]
  0050b	f3 0f 11 45 e4	 movss	 DWORD PTR _aPDTVertex$[ebp], xmm0

; 383  : 		aPDTVertex.position.y = c_pv2QuadPoints[1].y;

  00510	6a 08		 push	 8
  00512	58		 pop	 eax
  00513	c1 e0 00	 shl	 eax, 0
  00516	8b 4d 0c	 mov	 ecx, DWORD PTR _c_pv2QuadPoints$[ebp]
  00519	f3 0f 10 44 01
	04		 movss	 xmm0, DWORD PTR [ecx+eax+4]
  0051f	f3 0f 11 45 e8	 movss	 DWORD PTR _aPDTVertex$[ebp+4], xmm0

; 384  : 		aPDTVertex.position.z = -(float)(ucY) / (float)(m_ucVirticalGradientLevelLower); 

  00524	0f b6 45 e3	 movzx	 eax, BYTE PTR _ucY$[ebp]
  00528	f3 0f 2a c0	 cvtsi2ss xmm0, eax
  0052c	0f 57 05 00 00
	00 00		 xorps	 xmm0, DWORD PTR __xmm@80000000800000008000000080000000
  00533	8b 45 dc	 mov	 eax, DWORD PTR _this$[ebp]
  00536	0f b6 80 15 02
	00 00		 movzx	 eax, BYTE PTR [eax+533]
  0053d	f3 0f 2a c8	 cvtsi2ss xmm1, eax
  00541	f3 0f 5e c1	 divss	 xmm0, xmm1
  00545	f3 0f 11 45 ec	 movss	 DWORD PTR _aPDTVertex$[ebp+8], xmm0

; 385  : 		aPDTVertex.texCoord.x = 1.0f;

  0054a	f3 0f 10 05 00
	00 00 00	 movss	 xmm0, DWORD PTR __real@3f800000
  00552	f3 0f 11 45 f4	 movss	 DWORD PTR _aPDTVertex$[ebp+16], xmm0

; 386  : 		aPDTVertex.texCoord.y = 0.5f + (float)(ucY)/ (float)(m_ucVirticalGradientLevelUpper) * 0.5f;

  00557	0f b6 45 e3	 movzx	 eax, BYTE PTR _ucY$[ebp]
  0055b	f3 0f 2a c0	 cvtsi2ss xmm0, eax
  0055f	8b 45 dc	 mov	 eax, DWORD PTR _this$[ebp]
  00562	0f b6 80 14 02
	00 00		 movzx	 eax, BYTE PTR [eax+532]
  00569	f3 0f 2a c8	 cvtsi2ss xmm1, eax
  0056d	f3 0f 5e c1	 divss	 xmm0, xmm1
  00571	f3 0f 59 05 00
	00 00 00	 mulss	 xmm0, DWORD PTR __real@3f000000
  00579	f3 0f 58 05 00
	00 00 00	 addss	 xmm0, DWORD PTR __real@3f000000
  00581	f3 0f 11 45 f8	 movss	 DWORD PTR _aPDTVertex$[ebp+20], xmm0

; 387  : 		rSkyObjectQuad.SetVertex(3, aPDTVertex);

  00586	c6 45 d4 03	 mov	 BYTE PTR $T4[ebp], 3
  0058a	8d 45 e4	 lea	 eax, DWORD PTR _aPDTVertex$[ebp]
  0058d	50		 push	 eax
  0058e	8d 45 d4	 lea	 eax, DWORD PTR $T4[ebp]
  00591	50		 push	 eax
  00592	8b 4d c8	 mov	 ecx, DWORD PTR _rSkyObjectQuad$2[ebp]
  00595	e8 00 00 00 00	 call	 ?SetVertex@CSkyObjectQuad@@QAEXABEABUSPDTVertex@@@Z ; CSkyObjectQuad::SetVertex

; 388  : 	}

  0059a	e9 54 fd ff ff	 jmp	 $LN5@SetSkyObje
$LN6@SetSkyObje:

; 389  : }

  0059f	8b 4d fc	 mov	 ecx, DWORD PTR __$ArrayPad$[ebp]
  005a2	33 cd		 xor	 ecx, ebp
  005a4	e8 00 00 00 00	 call	 @__security_check_cookie@4
  005a9	c9		 leave
  005aa	c2 08 00	 ret	 8
?SetSkyObjectQuadVertical@CSkyBox@@IAEXPAV?$vector@VCSkyObjectQuad@@V?$allocator@VCSkyObjectQuad@@@std@@@std@@PBUD3DXVECTOR2@@@Z ENDP ; CSkyBox::SetSkyObjectQuadVertical
_TEXT	ENDS
; Function compile flags: /Odspy
; File D:\Metin2 Server Files\mainline\SRC_2014\Metin2Client\EterLib\SkyBox.cpp
;	COMDAT ?StartTransition@CSkyBox@@UAEXXZ
_TEXT	SEGMENT
_this$ = -8						; size = 4
_ucj$1 = -1						; size = 1
?StartTransition@CSkyBox@@UAEXXZ PROC			; CSkyBox::StartTransition, COMDAT
; _this$ = ecx

; 782  : {

  00000	55		 push	 ebp
  00001	8b ec		 mov	 ebp, esp
  00003	51		 push	 ecx
  00004	51		 push	 ecx
  00005	89 4d f8	 mov	 DWORD PTR _this$[ebp], ecx

; 783  : 	m_bTransitionStarted = true;

  00008	8b 45 f8	 mov	 eax, DWORD PTR _this$[ebp]
  0000b	c6 80 f0 01 00
	00 01		 mov	 BYTE PTR [eax+496], 1

; 784  : 	for (unsigned char ucj = 0; ucj < 6; ++ucj)

  00012	c6 45 ff 00	 mov	 BYTE PTR _ucj$1[ebp], 0
  00016	eb 08		 jmp	 SHORT $LN4@StartTrans
$LN2@StartTrans:
  00018	8a 45 ff	 mov	 al, BYTE PTR _ucj$1[ebp]
  0001b	04 01		 add	 al, 1
  0001d	88 45 ff	 mov	 BYTE PTR _ucj$1[ebp], al
$LN4@StartTrans:
  00020	0f b6 45 ff	 movzx	 eax, BYTE PTR _ucj$1[ebp]
  00024	83 f8 06	 cmp	 eax, 6
  00027	7d 18		 jge	 SHORT $LN3@StartTrans

; 785  : 		m_Faces[ucj].StartTransition();

  00029	0f b6 45 ff	 movzx	 eax, BYTE PTR _ucj$1[ebp]
  0002d	6b c0 3c	 imul	 eax, eax, 60
  00030	8b 4d f8	 mov	 ecx, DWORD PTR _this$[ebp]
  00033	8d 8c 01 18 02
	00 00		 lea	 ecx, DWORD PTR [ecx+eax+536]
  0003a	e8 00 00 00 00	 call	 ?StartTransition@TSkyObjectFace@CSkyObject@@QAEXXZ ; CSkyObject::TSkyObjectFace::StartTransition
  0003f	eb d7		 jmp	 SHORT $LN2@StartTrans
$LN3@StartTrans:

; 786  : 	m_FaceCloud.StartTransition();

  00041	8b 4d f8	 mov	 ecx, DWORD PTR _this$[ebp]
  00044	83 c1 04	 add	 ecx, 4
  00047	e8 00 00 00 00	 call	 ?StartTransition@TSkyObjectFace@CSkyObject@@QAEXXZ ; CSkyObject::TSkyObjectFace::StartTransition

; 787  : }

  0004c	c9		 leave
  0004d	c3		 ret	 0
?StartTransition@CSkyBox@@UAEXXZ ENDP			; CSkyBox::StartTransition
_TEXT	ENDS
; Function compile flags: /Odspy
; File D:\Metin2 Server Files\mainline\SRC_2014\Metin2Client\EterLib\SkyBox.cpp
; File C:\Program Files (x86)\Microsoft Visual Studio\2019\Community\VC\Tools\MSVC\14.28.29333\include\vector
; File D:\Metin2 Server Files\mainline\SRC_2014\Metin2Client\EterLib\SkyBox.cpp
; File C:\Program Files (x86)\Microsoft Visual Studio\2019\Community\VC\Tools\MSVC\14.28.29333\include\vector
; File D:\Metin2 Server Files\mainline\SRC_2014\Metin2Client\EterLib\SkyBox.cpp
; File C:\Program Files (x86)\Microsoft Visual Studio\2019\Community\VC\Tools\MSVC\14.28.29333\include\vector
; File D:\Metin2 Server Files\mainline\SRC_2014\Metin2Client\EterLib\SkyBox.cpp
; File C:\Program Files (x86)\Microsoft Visual Studio\2019\Community\VC\Tools\MSVC\14.28.29333\include\vector
; File D:\Metin2 Server Files\mainline\SRC_2014\Metin2Client\EterLib\SkyBox.cpp
; File C:\Program Files (x86)\Microsoft Visual Studio\2019\Community\VC\Tools\MSVC\14.28.29333\include\vector
; File D:\Metin2 Server Files\mainline\SRC_2014\Metin2Client\EterLib\SkyBox.cpp
; File C:\Program Files (x86)\Microsoft Visual Studio\2019\Community\VC\Tools\MSVC\14.28.29333\include\vector
; File D:\Metin2 Server Files\mainline\SRC_2014\Metin2Client\EterLib\SkyBox.cpp
; File C:\Program Files (x86)\Microsoft Visual Studio\2019\Community\VC\Tools\MSVC\14.28.29333\include\vector
; File D:\Metin2 Server Files\mainline\SRC_2014\Metin2Client\EterLib\SkyBox.cpp
; File C:\Program Files (x86)\Microsoft Visual Studio\2019\Community\VC\Tools\MSVC\14.28.29333\include\vector
; File D:\Metin2 Server Files\mainline\SRC_2014\Metin2Client\EterLib\SkyBox.cpp
; File C:\Program Files (x86)\Microsoft Visual Studio\2019\Community\VC\Tools\MSVC\14.28.29333\include\vector
; File D:\Metin2 Server Files\mainline\SRC_2014\Metin2Client\EterLib\SkyBox.cpp
; File C:\Program Files (x86)\Microsoft Visual Studio\2019\Community\VC\Tools\MSVC\14.28.29333\include\vector
; File D:\Metin2 Server Files\mainline\SRC_2014\Metin2Client\EterLib\SkyBox.cpp
; File C:\Program Files (x86)\Microsoft Visual Studio\2019\Community\VC\Tools\MSVC\14.28.29333\include\vector
; File D:\Metin2 Server Files\mainline\SRC_2014\Metin2Client\EterLib\SkyBox.cpp
; File C:\Program Files (x86)\Microsoft Visual Studio\2019\Community\VC\Tools\MSVC\14.28.29333\include\vector
; File D:\Metin2 Server Files\mainline\SRC_2014\Metin2Client\EterLib\SkyBox.cpp
; File C:\Program Files (x86)\Microsoft Visual Studio\2019\Community\VC\Tools\MSVC\14.28.29333\include\vector
; File D:\Metin2 Server Files\mainline\SRC_2014\Metin2Client\EterLib\SkyBox.cpp
; File C:\Program Files (x86)\Microsoft Visual Studio\2019\Community\VC\Tools\MSVC\14.28.29333\include\vector
; File D:\Metin2 Server Files\mainline\SRC_2014\Metin2Client\EterLib\SkyBox.cpp
; File C:\Program Files (x86)\Microsoft Visual Studio\2019\Community\VC\Tools\MSVC\14.28.29333\include\vector
; File D:\Metin2 Server Files\mainline\SRC_2014\Metin2Client\EterLib\SkyBox.cpp
; File C:\Program Files (x86)\Microsoft Visual Studio\2019\Community\VC\Tools\MSVC\14.28.29333\include\vector
; File D:\Metin2 Server Files\mainline\SRC_2014\Metin2Client\EterLib\SkyBox.cpp
; File C:\Program Files (x86)\Microsoft Visual Studio\2019\Community\VC\Tools\MSVC\14.28.29333\include\vector
; File D:\Metin2 Server Files\mainline\SRC_2014\Metin2Client\EterLib\SkyBox.cpp
; File C:\Program Files (x86)\Microsoft Visual Studio\2019\Community\VC\Tools\MSVC\14.28.29333\include\vector
; File D:\Metin2 Server Files\mainline\SRC_2014\Metin2Client\EterLib\SkyBox.cpp
; File C:\Program Files (x86)\Microsoft Visual Studio\2019\Community\VC\Tools\MSVC\14.28.29333\include\vector
; File D:\Metin2 Server Files\mainline\SRC_2014\Metin2Client\EterLib\SkyBox.cpp
; File C:\Program Files (x86)\Microsoft Visual Studio\2019\Community\VC\Tools\MSVC\14.28.29333\include\vector
; File D:\Metin2 Server Files\mainline\SRC_2014\Metin2Client\EterLib\SkyBox.cpp
; File C:\Program Files (x86)\Microsoft Visual Studio\2019\Community\VC\Tools\MSVC\14.28.29333\include\vector
; File D:\Metin2 Server Files\mainline\SRC_2014\Metin2Client\EterLib\SkyBox.cpp
; File C:\Program Files (x86)\Microsoft Visual Studio\2019\Community\VC\Tools\MSVC\14.28.29333\include\vector
; File D:\Metin2 Server Files\mainline\SRC_2014\Metin2Client\EterLib\SkyBox.cpp
; File C:\Program Files (x86)\Microsoft Visual Studio\2019\Community\VC\Tools\MSVC\14.28.29333\include\vector
; File D:\Metin2 Server Files\mainline\SRC_2014\Metin2Client\EterLib\SkyBox.cpp
; File C:\Program Files (x86)\Microsoft Visual Studio\2019\Community\VC\Tools\MSVC\14.28.29333\include\vector
; File D:\Metin2 Server Files\mainline\SRC_2014\Metin2Client\EterLib\SkyBox.cpp
; File C:\Program Files (x86)\Microsoft Visual Studio\2019\Community\VC\Tools\MSVC\14.28.29333\include\vector
; File D:\Metin2 Server Files\mainline\SRC_2014\Metin2Client\EterLib\SkyBox.cpp
; File C:\Program Files (x86)\Microsoft Visual Studio\2019\Community\VC\Tools\MSVC\14.28.29333\include\vector
; File D:\Metin2 Server Files\mainline\SRC_2014\Metin2Client\EterLib\SkyBox.cpp
; File C:\Program Files (x86)\Microsoft Visual Studio\2019\Community\VC\Tools\MSVC\14.28.29333\include\vector
; File D:\Metin2 Server Files\mainline\SRC_2014\Metin2Client\EterLib\SkyBox.cpp
; File C:\Program Files (x86)\Microsoft Visual Studio\2019\Community\VC\Tools\MSVC\14.28.29333\include\vector
; File D:\Metin2 Server Files\mainline\SRC_2014\Metin2Client\EterLib\SkyBox.cpp
; File C:\Program Files (x86)\Microsoft Visual Studio\2019\Community\VC\Tools\MSVC\14.28.29333\include\vector
; File D:\Metin2 Server Files\mainline\SRC_2014\Metin2Client\EterLib\SkyBox.cpp
; File C:\Program Files (x86)\Microsoft Visual Studio\2019\Community\VC\Tools\MSVC\14.28.29333\include\vector
; File D:\Metin2 Server Files\mainline\SRC_2014\Metin2Client\EterLib\SkyBox.cpp
; File C:\Program Files (x86)\Microsoft Visual Studio\2019\Community\VC\Tools\MSVC\14.28.29333\include\vector
; File D:\Metin2 Server Files\mainline\SRC_2014\Metin2Client\EterLib\SkyBox.cpp
;	COMDAT ?SetSkyColor@CSkyBox@@QAEXABV?$vector@UTGradientColor@@V?$allocator@UTGradientColor@@@std@@@std@@0J@Z
_TEXT	SEGMENT
$T1 = -768						; size = 4
$T2 = -764						; size = 4
$T3 = -760						; size = 4
$T4 = -756						; size = 4
__My_data$5 = -752					; size = 4
__My_data$6 = -748					; size = 4
__My_data$7 = -744					; size = 4
__My_data$8 = -740					; size = 4
$T9 = -736						; size = 4
$T10 = -732						; size = 4
$T11 = -728						; size = 4
$T12 = -724						; size = 4
__My_data$13 = -720					; size = 4
__My_data$14 = -716					; size = 4
__My_data$15 = -712					; size = 4
__My_data$16 = -708					; size = 4
$T17 = -704						; size = 4
$T18 = -700						; size = 4
$T19 = -696						; size = 4
$T20 = -692						; size = 4
__My_data$21 = -688					; size = 4
__My_data$22 = -684					; size = 4
__My_data$23 = -680					; size = 4
__My_data$24 = -676					; size = 4
$T25 = -672						; size = 4
$T26 = -668						; size = 4
$T27 = -664						; size = 4
$T28 = -660						; size = 4
__My_data$29 = -656					; size = 4
__My_data$30 = -652					; size = 4
__My_data$31 = -648					; size = 4
__My_data$32 = -644					; size = 4
$T33 = -640						; size = 4
$T34 = -636						; size = 4
$T35 = -632						; size = 4
$T36 = -628						; size = 4
__My_data$37 = -624					; size = 4
__My_data$38 = -620					; size = 4
__My_data$39 = -616					; size = 4
__My_data$40 = -612					; size = 4
$T41 = -608						; size = 4
$T42 = -604						; size = 4
$T43 = -600						; size = 4
$T44 = -596						; size = 4
__My_data$45 = -592					; size = 4
__My_data$46 = -588					; size = 4
__My_data$47 = -584					; size = 4
__My_data$48 = -580					; size = 4
$T49 = -576						; size = 4
$T50 = -572						; size = 4
$T51 = -568						; size = 4
$T52 = -564						; size = 4
__My_data$53 = -560					; size = 4
__My_data$54 = -556					; size = 4
__My_data$55 = -552					; size = 4
__My_data$56 = -548					; size = 4
$T57 = -544						; size = 4
$T58 = -540						; size = 4
$T59 = -536						; size = 4
$T60 = -532						; size = 4
__My_data$61 = -528					; size = 4
__My_data$62 = -524					; size = 4
__My_data$63 = -520					; size = 4
__My_data$64 = -516					; size = 4
__My_data$65 = -512					; size = 4
$T66 = -508						; size = 4
$T67 = -504						; size = 4
$T68 = -500						; size = 4
$T69 = -496						; size = 4
$T70 = -492						; size = 4
$T71 = -488						; size = 4
__My_data$72 = -484					; size = 4
__My_data$73 = -480					; size = 4
__My_data$74 = -476					; size = 4
__My_data$75 = -472					; size = 4
$T76 = -468						; size = 4
$T77 = -464						; size = 4
$T78 = -460						; size = 4
$T79 = -456						; size = 4
__My_data$80 = -452					; size = 4
__My_data$81 = -448					; size = 4
__My_data$82 = -444					; size = 4
__My_data$83 = -440					; size = 4
$T84 = -436						; size = 4
$T85 = -432						; size = 4
$T86 = -428						; size = 4
$T87 = -424						; size = 4
__My_data$88 = -420					; size = 4
__My_data$89 = -416					; size = 4
__My_data$90 = -412					; size = 4
__My_data$91 = -408					; size = 4
$T92 = -404						; size = 4
$T93 = -400						; size = 4
$T94 = -396						; size = 4
$T95 = -392						; size = 4
__My_data$96 = -388					; size = 4
__My_data$97 = -384					; size = 4
__My_data$98 = -380					; size = 4
__My_data$99 = -376					; size = 4
$T100 = -372						; size = 4
$T101 = -368						; size = 4
$T102 = -364						; size = 4
$T103 = -360						; size = 4
__My_data$104 = -356					; size = 4
__My_data$105 = -352					; size = 4
__My_data$106 = -348					; size = 4
__My_data$107 = -344					; size = 4
$T108 = -340						; size = 4
$T109 = -336						; size = 4
$T110 = -332						; size = 4
$T111 = -328						; size = 4
__My_data$112 = -324					; size = 4
__My_data$113 = -320					; size = 4
__My_data$114 = -316					; size = 4
__My_data$115 = -312					; size = 4
$T116 = -308						; size = 4
$T117 = -304						; size = 4
$T118 = -300						; size = 4
$T119 = -296						; size = 4
__My_data$120 = -292					; size = 4
__My_data$121 = -288					; size = 4
__My_data$122 = -284					; size = 4
__My_data$123 = -280					; size = 4
$T124 = -276						; size = 4
$T125 = -272						; size = 4
$T126 = -268						; size = 4
$T127 = -264						; size = 4
__My_data$128 = -260					; size = 4
__My_data$129 = -256					; size = 4
__My_data$130 = -252					; size = 4
__My_data$131 = -248					; size = 4
__My_data$132 = -244					; size = 4
$T133 = -240						; size = 4
$T134 = -236						; size = 4
$T135 = -232						; size = 4
$T136 = -228						; size = 4
$T137 = -224						; size = 4
__My_data$138 = -220					; size = 4
__My_data$139 = -216					; size = 4
__My_data$140 = -212					; size = 4
__My_data$141 = -208					; size = 4
$T142 = -204						; size = 4
$T143 = -200						; size = 4
$T144 = -196						; size = 4
$T145 = -192						; size = 4
__My_data$146 = -188					; size = 4
__My_data$147 = -184					; size = 4
__My_data$148 = -180					; size = 4
__My_data$149 = -176					; size = 4
$T150 = -172						; size = 4
$T151 = -168						; size = 4
$T152 = -164						; size = 4
$T153 = -160						; size = 4
__My_data$154 = -156					; size = 4
__My_data$155 = -152					; size = 4
__My_data$156 = -148					; size = 4
__My_data$157 = -144					; size = 4
$T158 = -140						; size = 4
$T159 = -136						; size = 4
$T160 = -132						; size = 4
$T161 = -128						; size = 4
__My_data$162 = -124					; size = 4
__My_data$163 = -120					; size = 4
__My_data$164 = -116					; size = 4
__My_data$165 = -112					; size = 4
$T166 = -108						; size = 4
$T167 = -104						; size = 4
$T168 = -100						; size = 4
$T169 = -96						; size = 4
__My_data$170 = -92					; size = 4
__My_data$171 = -88					; size = 4
__My_data$172 = -84					; size = 4
__My_data$173 = -80					; size = 4
$T174 = -76						; size = 4
$T175 = -72						; size = 4
$T176 = -68						; size = 4
$T177 = -64						; size = 4
__My_data$178 = -60					; size = 4
__My_data$179 = -56					; size = 4
__My_data$180 = -52					; size = 4
__My_data$181 = -48					; size = 4
$T182 = -44						; size = 4
$T183 = -40						; size = 4
$T184 = -36						; size = 4
$T185 = -32						; size = 4
__My_data$186 = -28					; size = 4
__My_data$187 = -24					; size = 4
__My_data$188 = -20					; size = 4
__My_data$189 = -16					; size = 4
$T190 = -12						; size = 4
$T191 = -8						; size = 4
$T192 = -4						; size = 4
$T193 = 0						; size = 4
__My_data$194 = 4					; size = 4
__My_data$195 = 8					; size = 4
__My_data$196 = 12					; size = 4
__My_data$197 = 16					; size = 4
__My_data$198 = 20					; size = 4
$T199 = 24						; size = 4
_aFaceBottom$ = 28					; size = 4
__My_data$200 = 32					; size = 4
__My_data$201 = 36					; size = 4
_aFaceTop$ = 40						; size = 4
__My_data$202 = 44					; size = 4
_aFace$203 = 48						; size = 4
__My_data$204 = 52					; size = 4
_this$ = 56						; size = 4
$T205 = 60						; size = 1
$T206 = 61						; size = 1
$T207 = 62						; size = 1
$T208 = 63						; size = 1
$T209 = 64						; size = 1
$T210 = 65						; size = 1
$T211 = 66						; size = 1
$T212 = 67						; size = 1
$T213 = 68						; size = 1
$T214 = 69						; size = 1
$T215 = 70						; size = 1
$T216 = 71						; size = 1
$T217 = 72						; size = 1
$T218 = 73						; size = 1
$T219 = 74						; size = 1
$T220 = 75						; size = 1
$T221 = 76						; size = 1
$T222 = 77						; size = 1
$T223 = 78						; size = 1
$T224 = 79						; size = 1
$T225 = 80						; size = 1
$T226 = 81						; size = 1
$T227 = 82						; size = 1
$T228 = 83						; size = 1
_aSkyObjectQuad$229 = 84				; size = 4
_aSkyObjectQuad$230 = 88				; size = 4
_aSkyObjectQuad$231 = 92				; size = 4
_uck$ = 96						; size = 4
_ucj$232 = 103						; size = 1
_ulVectorGradientColornum$ = 104			; size = 4
_c_rColorVector$ = 116					; size = 4
_c_rNextColorVector$ = 120				; size = 4
_lTransitionTime$ = 124					; size = 4
?SetSkyColor@CSkyBox@@QAEXABV?$vector@UTGradientColor@@V?$allocator@UTGradientColor@@@std@@@std@@0J@Z PROC ; CSkyBox::SetSkyColor, COMDAT
; _this$ = ecx

; 615  : {

  00000	55		 push	 ebp
  00001	8d 6c 24 94	 lea	 ebp, DWORD PTR [esp-108]
  00005	81 ec 6c 03 00
	00		 sub	 esp, 876		; 0000036cH
  0000b	89 4d 38	 mov	 DWORD PTR _this$[ebp], ecx

; 616  : 	unsigned long ulVectorGradientColornum = 0;

  0000e	83 65 68 00	 and	 DWORD PTR _ulVectorGradientColornum$[ebp], 0

; 617  : 	unsigned long uck;
; 618  : 	for (unsigned char ucj = 0; ucj < 4; ++ucj)

  00012	c6 45 67 00	 mov	 BYTE PTR _ucj$232[ebp], 0
  00016	eb 08		 jmp	 SHORT $LN4@SetSkyColo
$LN2@SetSkyColo:
  00018	8a 45 67	 mov	 al, BYTE PTR _ucj$232[ebp]
  0001b	04 01		 add	 al, 1
  0001d	88 45 67	 mov	 BYTE PTR _ucj$232[ebp], al
$LN4@SetSkyColo:
  00020	0f b6 45 67	 movzx	 eax, BYTE PTR _ucj$232[ebp]
  00024	83 f8 04	 cmp	 eax, 4
  00027	0f 8d f7 04 00
	00		 jge	 $LN3@SetSkyColo

; 619  : 	{
; 620  : 		TSkyObjectFace & aFace = m_Faces[ucj];

  0002d	0f b6 45 67	 movzx	 eax, BYTE PTR _ucj$232[ebp]
  00031	6b c0 3c	 imul	 eax, eax, 60
  00034	8b 4d 38	 mov	 ecx, DWORD PTR _this$[ebp]
  00037	8d 84 01 18 02
	00 00		 lea	 eax, DWORD PTR [ecx+eax+536]
  0003e	89 45 30	 mov	 DWORD PTR _aFace$203[ebp], eax

; 621  : 		ulVectorGradientColornum = 0;

  00041	83 65 68 00	 and	 DWORD PTR _ulVectorGradientColornum$[ebp], 0

; 622  : 		for (uck = 0; uck < aFace.m_SkyObjectQuadVector.size(); ++uck)

  00045	83 65 60 00	 and	 DWORD PTR _uck$[ebp], 0
  00049	eb 07		 jmp	 SHORT $LN7@SetSkyColo
$LN5@SetSkyColo:
  0004b	8b 45 60	 mov	 eax, DWORD PTR _uck$[ebp]
  0004e	40		 inc	 eax
  0004f	89 45 60	 mov	 DWORD PTR _uck$[ebp], eax
$LN7@SetSkyColo:
; File C:\Program Files (x86)\Microsoft Visual Studio\2019\Community\VC\Tools\MSVC\14.28.29333\include\vector

; 1483 :         auto& _My_data = _Mypair._Myval2;

  00052	8b 45 30	 mov	 eax, DWORD PTR _aFace$203[ebp]
  00055	83 c0 30	 add	 eax, 48			; 00000030H
  00058	89 45 34	 mov	 DWORD PTR __My_data$204[ebp], eax

; 1484 :         return static_cast<size_type>(_My_data._Mylast - _My_data._Myfirst);

  0005b	8b 45 34	 mov	 eax, DWORD PTR __My_data$204[ebp]
  0005e	8b 4d 34	 mov	 ecx, DWORD PTR __My_data$204[ebp]
  00061	8b 40 04	 mov	 eax, DWORD PTR [eax+4]
  00064	2b 01		 sub	 eax, DWORD PTR [ecx]
  00066	99		 cdq
  00067	b9 2c 01 00 00	 mov	 ecx, 300		; 0000012cH
  0006c	f7 f9		 idiv	 ecx
  0006e	89 45 18	 mov	 DWORD PTR $T199[ebp], eax
; File D:\Metin2 Server Files\mainline\SRC_2014\Metin2Client\EterLib\SkyBox.cpp

; 622  : 		for (uck = 0; uck < aFace.m_SkyObjectQuadVector.size(); ++uck)

  00071	8b 45 60	 mov	 eax, DWORD PTR _uck$[ebp]
  00074	3b 45 18	 cmp	 eax, DWORD PTR $T199[ebp]
  00077	0f 83 a2 04 00
	00		 jae	 $LN6@SetSkyColo
; File C:\Program Files (x86)\Microsoft Visual Studio\2019\Community\VC\Tools\MSVC\14.28.29333\include\vector

; 1498 :         auto& _My_data = _Mypair._Myval2;

  0007d	8b 45 30	 mov	 eax, DWORD PTR _aFace$203[ebp]
  00080	83 c0 30	 add	 eax, 48			; 00000030H
  00083	89 45 14	 mov	 DWORD PTR __My_data$198[ebp], eax

; 1499 : #if _CONTAINER_DEBUG_LEVEL > 0
; 1500 :         _STL_VERIFY(
; 1501 :             _Pos < static_cast<size_type>(_My_data._Mylast - _My_data._Myfirst), "vector subscript out of range");
; 1502 : #endif // _CONTAINER_DEBUG_LEVEL > 0
; 1503 : 
; 1504 :         return _My_data._Myfirst[_Pos];

  00086	69 45 60 2c 01
	00 00		 imul	 eax, DWORD PTR _uck$[ebp], 300
  0008d	8b 4d 14	 mov	 ecx, DWORD PTR __My_data$198[ebp]
  00090	03 01		 add	 eax, DWORD PTR [ecx]
  00092	89 45 5c	 mov	 DWORD PTR _aSkyObjectQuad$231[ebp], eax
; File D:\Metin2 Server Files\mainline\SRC_2014\Metin2Client\EterLib\SkyBox.cpp

; 626  : 			aSkyObjectQuad.SetSrcColor(0,

  00095	c6 45 40 00	 mov	 BYTE PTR $T209[ebp], 0
; File C:\Program Files (x86)\Microsoft Visual Studio\2019\Community\VC\Tools\MSVC\14.28.29333\include\vector

; 1508 :         auto& _My_data = _Mypair._Myval2;

  00099	8b 45 74	 mov	 eax, DWORD PTR _c_rColorVector$[ebp]
  0009c	89 45 10	 mov	 DWORD PTR __My_data$197[ebp], eax

; 1509 : #if _CONTAINER_DEBUG_LEVEL > 0
; 1510 :         _STL_VERIFY(
; 1511 :             _Pos < static_cast<size_type>(_My_data._Mylast - _My_data._Myfirst), "vector subscript out of range");
; 1512 : #endif // _CONTAINER_DEBUG_LEVEL > 0
; 1513 : 
; 1514 :         return _My_data._Myfirst[_Pos];

  0009f	8b 45 68	 mov	 eax, DWORD PTR _ulVectorGradientColornum$[ebp]
  000a2	c1 e0 05	 shl	 eax, 5
  000a5	8b 4d 10	 mov	 ecx, DWORD PTR __My_data$197[ebp]
  000a8	03 01		 add	 eax, DWORD PTR [ecx]
  000aa	89 45 00	 mov	 DWORD PTR $T193[ebp], eax

; 1508 :         auto& _My_data = _Mypair._Myval2;

  000ad	8b 45 74	 mov	 eax, DWORD PTR _c_rColorVector$[ebp]
  000b0	89 45 0c	 mov	 DWORD PTR __My_data$196[ebp], eax

; 1509 : #if _CONTAINER_DEBUG_LEVEL > 0
; 1510 :         _STL_VERIFY(
; 1511 :             _Pos < static_cast<size_type>(_My_data._Mylast - _My_data._Myfirst), "vector subscript out of range");
; 1512 : #endif // _CONTAINER_DEBUG_LEVEL > 0
; 1513 : 
; 1514 :         return _My_data._Myfirst[_Pos];

  000b3	8b 45 68	 mov	 eax, DWORD PTR _ulVectorGradientColornum$[ebp]
  000b6	c1 e0 05	 shl	 eax, 5
  000b9	8b 4d 0c	 mov	 ecx, DWORD PTR __My_data$196[ebp]
  000bc	03 01		 add	 eax, DWORD PTR [ecx]
  000be	89 45 fc	 mov	 DWORD PTR $T192[ebp], eax

; 1508 :         auto& _My_data = _Mypair._Myval2;

  000c1	8b 45 74	 mov	 eax, DWORD PTR _c_rColorVector$[ebp]
  000c4	89 45 08	 mov	 DWORD PTR __My_data$195[ebp], eax

; 1509 : #if _CONTAINER_DEBUG_LEVEL > 0
; 1510 :         _STL_VERIFY(
; 1511 :             _Pos < static_cast<size_type>(_My_data._Mylast - _My_data._Myfirst), "vector subscript out of range");
; 1512 : #endif // _CONTAINER_DEBUG_LEVEL > 0
; 1513 : 
; 1514 :         return _My_data._Myfirst[_Pos];

  000c7	8b 45 68	 mov	 eax, DWORD PTR _ulVectorGradientColornum$[ebp]
  000ca	c1 e0 05	 shl	 eax, 5
  000cd	8b 4d 08	 mov	 ecx, DWORD PTR __My_data$195[ebp]
  000d0	03 01		 add	 eax, DWORD PTR [ecx]
  000d2	89 45 f8	 mov	 DWORD PTR $T191[ebp], eax

; 1508 :         auto& _My_data = _Mypair._Myval2;

  000d5	8b 45 74	 mov	 eax, DWORD PTR _c_rColorVector$[ebp]
  000d8	89 45 04	 mov	 DWORD PTR __My_data$194[ebp], eax

; 1509 : #if _CONTAINER_DEBUG_LEVEL > 0
; 1510 :         _STL_VERIFY(
; 1511 :             _Pos < static_cast<size_type>(_My_data._Mylast - _My_data._Myfirst), "vector subscript out of range");
; 1512 : #endif // _CONTAINER_DEBUG_LEVEL > 0
; 1513 : 
; 1514 :         return _My_data._Myfirst[_Pos];

  000db	8b 45 68	 mov	 eax, DWORD PTR _ulVectorGradientColornum$[ebp]
  000de	c1 e0 05	 shl	 eax, 5
  000e1	8b 4d 04	 mov	 ecx, DWORD PTR __My_data$194[ebp]
  000e4	03 01		 add	 eax, DWORD PTR [ecx]
  000e6	89 45 f4	 mov	 DWORD PTR $T190[ebp], eax
; File D:\Metin2 Server Files\mainline\SRC_2014\Metin2Client\EterLib\SkyBox.cpp

; 626  : 			aSkyObjectQuad.SetSrcColor(0,

  000e9	8b 45 00	 mov	 eax, DWORD PTR $T193[ebp]
  000ec	83 c0 1c	 add	 eax, 28			; 0000001cH
  000ef	50		 push	 eax
  000f0	8b 45 fc	 mov	 eax, DWORD PTR $T192[ebp]
  000f3	83 c0 18	 add	 eax, 24			; 00000018H
  000f6	50		 push	 eax
  000f7	8b 45 f8	 mov	 eax, DWORD PTR $T191[ebp]
  000fa	83 c0 14	 add	 eax, 20			; 00000014H
  000fd	50		 push	 eax
  000fe	8b 45 f4	 mov	 eax, DWORD PTR $T190[ebp]
  00101	83 c0 10	 add	 eax, 16			; 00000010H
  00104	50		 push	 eax
  00105	8d 45 40	 lea	 eax, DWORD PTR $T209[ebp]
  00108	50		 push	 eax
  00109	8b 4d 5c	 mov	 ecx, DWORD PTR _aSkyObjectQuad$231[ebp]
  0010c	e8 00 00 00 00	 call	 ?SetSrcColor@CSkyObjectQuad@@QAEXABEABM111@Z ; CSkyObjectQuad::SetSrcColor

; 631  : 			aSkyObjectQuad.SetTransition(0, 

  00111	c6 45 3f 00	 mov	 BYTE PTR $T208[ebp], 0
; File C:\Program Files (x86)\Microsoft Visual Studio\2019\Community\VC\Tools\MSVC\14.28.29333\include\vector

; 1508 :         auto& _My_data = _Mypair._Myval2;

  00115	8b 45 78	 mov	 eax, DWORD PTR _c_rNextColorVector$[ebp]
  00118	89 45 f0	 mov	 DWORD PTR __My_data$189[ebp], eax

; 1509 : #if _CONTAINER_DEBUG_LEVEL > 0
; 1510 :         _STL_VERIFY(
; 1511 :             _Pos < static_cast<size_type>(_My_data._Mylast - _My_data._Myfirst), "vector subscript out of range");
; 1512 : #endif // _CONTAINER_DEBUG_LEVEL > 0
; 1513 : 
; 1514 :         return _My_data._Myfirst[_Pos];

  0011b	8b 45 68	 mov	 eax, DWORD PTR _ulVectorGradientColornum$[ebp]
  0011e	c1 e0 05	 shl	 eax, 5
  00121	8b 4d f0	 mov	 ecx, DWORD PTR __My_data$189[ebp]
  00124	03 01		 add	 eax, DWORD PTR [ecx]
  00126	89 45 e0	 mov	 DWORD PTR $T185[ebp], eax

; 1508 :         auto& _My_data = _Mypair._Myval2;

  00129	8b 45 78	 mov	 eax, DWORD PTR _c_rNextColorVector$[ebp]
  0012c	89 45 ec	 mov	 DWORD PTR __My_data$188[ebp], eax

; 1509 : #if _CONTAINER_DEBUG_LEVEL > 0
; 1510 :         _STL_VERIFY(
; 1511 :             _Pos < static_cast<size_type>(_My_data._Mylast - _My_data._Myfirst), "vector subscript out of range");
; 1512 : #endif // _CONTAINER_DEBUG_LEVEL > 0
; 1513 : 
; 1514 :         return _My_data._Myfirst[_Pos];

  0012f	8b 45 68	 mov	 eax, DWORD PTR _ulVectorGradientColornum$[ebp]
  00132	c1 e0 05	 shl	 eax, 5
  00135	8b 4d ec	 mov	 ecx, DWORD PTR __My_data$188[ebp]
  00138	03 01		 add	 eax, DWORD PTR [ecx]
  0013a	89 45 dc	 mov	 DWORD PTR $T184[ebp], eax

; 1508 :         auto& _My_data = _Mypair._Myval2;

  0013d	8b 45 78	 mov	 eax, DWORD PTR _c_rNextColorVector$[ebp]
  00140	89 45 e8	 mov	 DWORD PTR __My_data$187[ebp], eax

; 1509 : #if _CONTAINER_DEBUG_LEVEL > 0
; 1510 :         _STL_VERIFY(
; 1511 :             _Pos < static_cast<size_type>(_My_data._Mylast - _My_data._Myfirst), "vector subscript out of range");
; 1512 : #endif // _CONTAINER_DEBUG_LEVEL > 0
; 1513 : 
; 1514 :         return _My_data._Myfirst[_Pos];

  00143	8b 45 68	 mov	 eax, DWORD PTR _ulVectorGradientColornum$[ebp]
  00146	c1 e0 05	 shl	 eax, 5
  00149	8b 4d e8	 mov	 ecx, DWORD PTR __My_data$187[ebp]
  0014c	03 01		 add	 eax, DWORD PTR [ecx]
  0014e	89 45 d8	 mov	 DWORD PTR $T183[ebp], eax

; 1508 :         auto& _My_data = _Mypair._Myval2;

  00151	8b 45 78	 mov	 eax, DWORD PTR _c_rNextColorVector$[ebp]
  00154	89 45 e4	 mov	 DWORD PTR __My_data$186[ebp], eax

; 1509 : #if _CONTAINER_DEBUG_LEVEL > 0
; 1510 :         _STL_VERIFY(
; 1511 :             _Pos < static_cast<size_type>(_My_data._Mylast - _My_data._Myfirst), "vector subscript out of range");
; 1512 : #endif // _CONTAINER_DEBUG_LEVEL > 0
; 1513 : 
; 1514 :         return _My_data._Myfirst[_Pos];

  00157	8b 45 68	 mov	 eax, DWORD PTR _ulVectorGradientColornum$[ebp]
  0015a	c1 e0 05	 shl	 eax, 5
  0015d	8b 4d e4	 mov	 ecx, DWORD PTR __My_data$186[ebp]
  00160	03 01		 add	 eax, DWORD PTR [ecx]
  00162	89 45 d4	 mov	 DWORD PTR $T182[ebp], eax
; File D:\Metin2 Server Files\mainline\SRC_2014\Metin2Client\EterLib\SkyBox.cpp

; 631  : 			aSkyObjectQuad.SetTransition(0, 

  00165	ff 75 7c	 push	 DWORD PTR _lTransitionTime$[ebp]
  00168	8b 45 e0	 mov	 eax, DWORD PTR $T185[ebp]
  0016b	83 c0 1c	 add	 eax, 28			; 0000001cH
  0016e	50		 push	 eax
  0016f	8b 45 dc	 mov	 eax, DWORD PTR $T184[ebp]
  00172	83 c0 18	 add	 eax, 24			; 00000018H
  00175	50		 push	 eax
  00176	8b 45 d8	 mov	 eax, DWORD PTR $T183[ebp]
  00179	83 c0 14	 add	 eax, 20			; 00000014H
  0017c	50		 push	 eax
  0017d	8b 45 d4	 mov	 eax, DWORD PTR $T182[ebp]
  00180	83 c0 10	 add	 eax, 16			; 00000010H
  00183	50		 push	 eax
  00184	8d 45 3f	 lea	 eax, DWORD PTR $T208[ebp]
  00187	50		 push	 eax
  00188	8b 4d 5c	 mov	 ecx, DWORD PTR _aSkyObjectQuad$231[ebp]
  0018b	e8 00 00 00 00	 call	 ?SetTransition@CSkyObjectQuad@@QAEXABEABM111K@Z ; CSkyObjectQuad::SetTransition

; 637  : 			aSkyObjectQuad.SetSrcColor(1,

  00190	c6 45 3e 01	 mov	 BYTE PTR $T207[ebp], 1
; File C:\Program Files (x86)\Microsoft Visual Studio\2019\Community\VC\Tools\MSVC\14.28.29333\include\vector

; 1508 :         auto& _My_data = _Mypair._Myval2;

  00194	8b 45 74	 mov	 eax, DWORD PTR _c_rColorVector$[ebp]
  00197	89 45 d0	 mov	 DWORD PTR __My_data$181[ebp], eax

; 1509 : #if _CONTAINER_DEBUG_LEVEL > 0
; 1510 :         _STL_VERIFY(
; 1511 :             _Pos < static_cast<size_type>(_My_data._Mylast - _My_data._Myfirst), "vector subscript out of range");
; 1512 : #endif // _CONTAINER_DEBUG_LEVEL > 0
; 1513 : 
; 1514 :         return _My_data._Myfirst[_Pos];

  0019a	8b 45 68	 mov	 eax, DWORD PTR _ulVectorGradientColornum$[ebp]
  0019d	c1 e0 05	 shl	 eax, 5
  001a0	8b 4d d0	 mov	 ecx, DWORD PTR __My_data$181[ebp]
  001a3	03 01		 add	 eax, DWORD PTR [ecx]
  001a5	89 45 c0	 mov	 DWORD PTR $T177[ebp], eax

; 1508 :         auto& _My_data = _Mypair._Myval2;

  001a8	8b 45 74	 mov	 eax, DWORD PTR _c_rColorVector$[ebp]
  001ab	89 45 cc	 mov	 DWORD PTR __My_data$180[ebp], eax

; 1509 : #if _CONTAINER_DEBUG_LEVEL > 0
; 1510 :         _STL_VERIFY(
; 1511 :             _Pos < static_cast<size_type>(_My_data._Mylast - _My_data._Myfirst), "vector subscript out of range");
; 1512 : #endif // _CONTAINER_DEBUG_LEVEL > 0
; 1513 : 
; 1514 :         return _My_data._Myfirst[_Pos];

  001ae	8b 45 68	 mov	 eax, DWORD PTR _ulVectorGradientColornum$[ebp]
  001b1	c1 e0 05	 shl	 eax, 5
  001b4	8b 4d cc	 mov	 ecx, DWORD PTR __My_data$180[ebp]
  001b7	03 01		 add	 eax, DWORD PTR [ecx]
  001b9	89 45 bc	 mov	 DWORD PTR $T176[ebp], eax

; 1508 :         auto& _My_data = _Mypair._Myval2;

  001bc	8b 45 74	 mov	 eax, DWORD PTR _c_rColorVector$[ebp]
  001bf	89 45 c8	 mov	 DWORD PTR __My_data$179[ebp], eax

; 1509 : #if _CONTAINER_DEBUG_LEVEL > 0
; 1510 :         _STL_VERIFY(
; 1511 :             _Pos < static_cast<size_type>(_My_data._Mylast - _My_data._Myfirst), "vector subscript out of range");
; 1512 : #endif // _CONTAINER_DEBUG_LEVEL > 0
; 1513 : 
; 1514 :         return _My_data._Myfirst[_Pos];

  001c2	8b 45 68	 mov	 eax, DWORD PTR _ulVectorGradientColornum$[ebp]
  001c5	c1 e0 05	 shl	 eax, 5
  001c8	8b 4d c8	 mov	 ecx, DWORD PTR __My_data$179[ebp]
  001cb	03 01		 add	 eax, DWORD PTR [ecx]
  001cd	89 45 b8	 mov	 DWORD PTR $T175[ebp], eax

; 1508 :         auto& _My_data = _Mypair._Myval2;

  001d0	8b 45 74	 mov	 eax, DWORD PTR _c_rColorVector$[ebp]
  001d3	89 45 c4	 mov	 DWORD PTR __My_data$178[ebp], eax

; 1509 : #if _CONTAINER_DEBUG_LEVEL > 0
; 1510 :         _STL_VERIFY(
; 1511 :             _Pos < static_cast<size_type>(_My_data._Mylast - _My_data._Myfirst), "vector subscript out of range");
; 1512 : #endif // _CONTAINER_DEBUG_LEVEL > 0
; 1513 : 
; 1514 :         return _My_data._Myfirst[_Pos];

  001d6	8b 45 68	 mov	 eax, DWORD PTR _ulVectorGradientColornum$[ebp]
  001d9	c1 e0 05	 shl	 eax, 5
  001dc	8b 4d c4	 mov	 ecx, DWORD PTR __My_data$178[ebp]
  001df	03 01		 add	 eax, DWORD PTR [ecx]
  001e1	89 45 b4	 mov	 DWORD PTR $T174[ebp], eax
; File D:\Metin2 Server Files\mainline\SRC_2014\Metin2Client\EterLib\SkyBox.cpp

; 637  : 			aSkyObjectQuad.SetSrcColor(1,

  001e4	8b 45 c0	 mov	 eax, DWORD PTR $T177[ebp]
  001e7	83 c0 0c	 add	 eax, 12			; 0000000cH
  001ea	50		 push	 eax
  001eb	8b 45 bc	 mov	 eax, DWORD PTR $T176[ebp]
  001ee	83 c0 08	 add	 eax, 8
  001f1	50		 push	 eax
  001f2	8b 45 b8	 mov	 eax, DWORD PTR $T175[ebp]
  001f5	83 c0 04	 add	 eax, 4
  001f8	50		 push	 eax
  001f9	ff 75 b4	 push	 DWORD PTR $T174[ebp]
  001fc	8d 45 3e	 lea	 eax, DWORD PTR $T207[ebp]
  001ff	50		 push	 eax
  00200	8b 4d 5c	 mov	 ecx, DWORD PTR _aSkyObjectQuad$231[ebp]
  00203	e8 00 00 00 00	 call	 ?SetSrcColor@CSkyObjectQuad@@QAEXABEABM111@Z ; CSkyObjectQuad::SetSrcColor

; 642  : 			aSkyObjectQuad.SetTransition(1,

  00208	c6 45 3d 01	 mov	 BYTE PTR $T206[ebp], 1
; File C:\Program Files (x86)\Microsoft Visual Studio\2019\Community\VC\Tools\MSVC\14.28.29333\include\vector

; 1508 :         auto& _My_data = _Mypair._Myval2;

  0020c	8b 45 78	 mov	 eax, DWORD PTR _c_rNextColorVector$[ebp]
  0020f	89 45 b0	 mov	 DWORD PTR __My_data$173[ebp], eax

; 1509 : #if _CONTAINER_DEBUG_LEVEL > 0
; 1510 :         _STL_VERIFY(
; 1511 :             _Pos < static_cast<size_type>(_My_data._Mylast - _My_data._Myfirst), "vector subscript out of range");
; 1512 : #endif // _CONTAINER_DEBUG_LEVEL > 0
; 1513 : 
; 1514 :         return _My_data._Myfirst[_Pos];

  00212	8b 45 68	 mov	 eax, DWORD PTR _ulVectorGradientColornum$[ebp]
  00215	c1 e0 05	 shl	 eax, 5
  00218	8b 4d b0	 mov	 ecx, DWORD PTR __My_data$173[ebp]
  0021b	03 01		 add	 eax, DWORD PTR [ecx]
  0021d	89 45 a0	 mov	 DWORD PTR $T169[ebp], eax

; 1508 :         auto& _My_data = _Mypair._Myval2;

  00220	8b 45 78	 mov	 eax, DWORD PTR _c_rNextColorVector$[ebp]
  00223	89 45 ac	 mov	 DWORD PTR __My_data$172[ebp], eax

; 1509 : #if _CONTAINER_DEBUG_LEVEL > 0
; 1510 :         _STL_VERIFY(
; 1511 :             _Pos < static_cast<size_type>(_My_data._Mylast - _My_data._Myfirst), "vector subscript out of range");
; 1512 : #endif // _CONTAINER_DEBUG_LEVEL > 0
; 1513 : 
; 1514 :         return _My_data._Myfirst[_Pos];

  00226	8b 45 68	 mov	 eax, DWORD PTR _ulVectorGradientColornum$[ebp]
  00229	c1 e0 05	 shl	 eax, 5
  0022c	8b 4d ac	 mov	 ecx, DWORD PTR __My_data$172[ebp]
  0022f	03 01		 add	 eax, DWORD PTR [ecx]
  00231	89 45 9c	 mov	 DWORD PTR $T168[ebp], eax

; 1508 :         auto& _My_data = _Mypair._Myval2;

  00234	8b 45 78	 mov	 eax, DWORD PTR _c_rNextColorVector$[ebp]
  00237	89 45 a8	 mov	 DWORD PTR __My_data$171[ebp], eax

; 1509 : #if _CONTAINER_DEBUG_LEVEL > 0
; 1510 :         _STL_VERIFY(
; 1511 :             _Pos < static_cast<size_type>(_My_data._Mylast - _My_data._Myfirst), "vector subscript out of range");
; 1512 : #endif // _CONTAINER_DEBUG_LEVEL > 0
; 1513 : 
; 1514 :         return _My_data._Myfirst[_Pos];

  0023a	8b 45 68	 mov	 eax, DWORD PTR _ulVectorGradientColornum$[ebp]
  0023d	c1 e0 05	 shl	 eax, 5
  00240	8b 4d a8	 mov	 ecx, DWORD PTR __My_data$171[ebp]
  00243	03 01		 add	 eax, DWORD PTR [ecx]
  00245	89 45 98	 mov	 DWORD PTR $T167[ebp], eax

; 1508 :         auto& _My_data = _Mypair._Myval2;

  00248	8b 45 78	 mov	 eax, DWORD PTR _c_rNextColorVector$[ebp]
  0024b	89 45 a4	 mov	 DWORD PTR __My_data$170[ebp], eax

; 1509 : #if _CONTAINER_DEBUG_LEVEL > 0
; 1510 :         _STL_VERIFY(
; 1511 :             _Pos < static_cast<size_type>(_My_data._Mylast - _My_data._Myfirst), "vector subscript out of range");
; 1512 : #endif // _CONTAINER_DEBUG_LEVEL > 0
; 1513 : 
; 1514 :         return _My_data._Myfirst[_Pos];

  0024e	8b 45 68	 mov	 eax, DWORD PTR _ulVectorGradientColornum$[ebp]
  00251	c1 e0 05	 shl	 eax, 5
  00254	8b 4d a4	 mov	 ecx, DWORD PTR __My_data$170[ebp]
  00257	03 01		 add	 eax, DWORD PTR [ecx]
  00259	89 45 94	 mov	 DWORD PTR $T166[ebp], eax
; File D:\Metin2 Server Files\mainline\SRC_2014\Metin2Client\EterLib\SkyBox.cpp

; 642  : 			aSkyObjectQuad.SetTransition(1,

  0025c	ff 75 7c	 push	 DWORD PTR _lTransitionTime$[ebp]
  0025f	8b 45 a0	 mov	 eax, DWORD PTR $T169[ebp]
  00262	83 c0 0c	 add	 eax, 12			; 0000000cH
  00265	50		 push	 eax
  00266	8b 45 9c	 mov	 eax, DWORD PTR $T168[ebp]
  00269	83 c0 08	 add	 eax, 8
  0026c	50		 push	 eax
  0026d	8b 45 98	 mov	 eax, DWORD PTR $T167[ebp]
  00270	83 c0 04	 add	 eax, 4
  00273	50		 push	 eax
  00274	ff 75 94	 push	 DWORD PTR $T166[ebp]
  00277	8d 45 3d	 lea	 eax, DWORD PTR $T206[ebp]
  0027a	50		 push	 eax
  0027b	8b 4d 5c	 mov	 ecx, DWORD PTR _aSkyObjectQuad$231[ebp]
  0027e	e8 00 00 00 00	 call	 ?SetTransition@CSkyObjectQuad@@QAEXABEABM111K@Z ; CSkyObjectQuad::SetTransition

; 648  : 			aSkyObjectQuad.SetSrcColor(2,

  00283	c6 45 3c 02	 mov	 BYTE PTR $T205[ebp], 2
; File C:\Program Files (x86)\Microsoft Visual Studio\2019\Community\VC\Tools\MSVC\14.28.29333\include\vector

; 1508 :         auto& _My_data = _Mypair._Myval2;

  00287	8b 45 74	 mov	 eax, DWORD PTR _c_rColorVector$[ebp]
  0028a	89 45 90	 mov	 DWORD PTR __My_data$165[ebp], eax

; 1509 : #if _CONTAINER_DEBUG_LEVEL > 0
; 1510 :         _STL_VERIFY(
; 1511 :             _Pos < static_cast<size_type>(_My_data._Mylast - _My_data._Myfirst), "vector subscript out of range");
; 1512 : #endif // _CONTAINER_DEBUG_LEVEL > 0
; 1513 : 
; 1514 :         return _My_data._Myfirst[_Pos];

  0028d	8b 45 68	 mov	 eax, DWORD PTR _ulVectorGradientColornum$[ebp]
  00290	c1 e0 05	 shl	 eax, 5
  00293	8b 4d 90	 mov	 ecx, DWORD PTR __My_data$165[ebp]
  00296	03 01		 add	 eax, DWORD PTR [ecx]
  00298	89 45 80	 mov	 DWORD PTR $T161[ebp], eax

; 1508 :         auto& _My_data = _Mypair._Myval2;

  0029b	8b 45 74	 mov	 eax, DWORD PTR _c_rColorVector$[ebp]
  0029e	89 45 8c	 mov	 DWORD PTR __My_data$164[ebp], eax

; 1509 : #if _CONTAINER_DEBUG_LEVEL > 0
; 1510 :         _STL_VERIFY(
; 1511 :             _Pos < static_cast<size_type>(_My_data._Mylast - _My_data._Myfirst), "vector subscript out of range");
; 1512 : #endif // _CONTAINER_DEBUG_LEVEL > 0
; 1513 : 
; 1514 :         return _My_data._Myfirst[_Pos];

  002a1	8b 45 68	 mov	 eax, DWORD PTR _ulVectorGradientColornum$[ebp]
  002a4	c1 e0 05	 shl	 eax, 5
  002a7	8b 4d 8c	 mov	 ecx, DWORD PTR __My_data$164[ebp]
  002aa	03 01		 add	 eax, DWORD PTR [ecx]
  002ac	89 85 7c ff ff
	ff		 mov	 DWORD PTR $T160[ebp], eax

; 1508 :         auto& _My_data = _Mypair._Myval2;

  002b2	8b 45 74	 mov	 eax, DWORD PTR _c_rColorVector$[ebp]
  002b5	89 45 88	 mov	 DWORD PTR __My_data$163[ebp], eax

; 1509 : #if _CONTAINER_DEBUG_LEVEL > 0
; 1510 :         _STL_VERIFY(
; 1511 :             _Pos < static_cast<size_type>(_My_data._Mylast - _My_data._Myfirst), "vector subscript out of range");
; 1512 : #endif // _CONTAINER_DEBUG_LEVEL > 0
; 1513 : 
; 1514 :         return _My_data._Myfirst[_Pos];

  002b8	8b 45 68	 mov	 eax, DWORD PTR _ulVectorGradientColornum$[ebp]
  002bb	c1 e0 05	 shl	 eax, 5
  002be	8b 4d 88	 mov	 ecx, DWORD PTR __My_data$163[ebp]
  002c1	03 01		 add	 eax, DWORD PTR [ecx]
  002c3	89 85 78 ff ff
	ff		 mov	 DWORD PTR $T159[ebp], eax

; 1508 :         auto& _My_data = _Mypair._Myval2;

  002c9	8b 45 74	 mov	 eax, DWORD PTR _c_rColorVector$[ebp]
  002cc	89 45 84	 mov	 DWORD PTR __My_data$162[ebp], eax

; 1509 : #if _CONTAINER_DEBUG_LEVEL > 0
; 1510 :         _STL_VERIFY(
; 1511 :             _Pos < static_cast<size_type>(_My_data._Mylast - _My_data._Myfirst), "vector subscript out of range");
; 1512 : #endif // _CONTAINER_DEBUG_LEVEL > 0
; 1513 : 
; 1514 :         return _My_data._Myfirst[_Pos];

  002cf	8b 45 68	 mov	 eax, DWORD PTR _ulVectorGradientColornum$[ebp]
  002d2	c1 e0 05	 shl	 eax, 5
  002d5	8b 4d 84	 mov	 ecx, DWORD PTR __My_data$162[ebp]
  002d8	03 01		 add	 eax, DWORD PTR [ecx]
  002da	89 85 74 ff ff
	ff		 mov	 DWORD PTR $T158[ebp], eax
; File D:\Metin2 Server Files\mainline\SRC_2014\Metin2Client\EterLib\SkyBox.cpp

; 648  : 			aSkyObjectQuad.SetSrcColor(2,

  002e0	8b 45 80	 mov	 eax, DWORD PTR $T161[ebp]
  002e3	83 c0 1c	 add	 eax, 28			; 0000001cH
  002e6	50		 push	 eax
  002e7	8b 85 7c ff ff
	ff		 mov	 eax, DWORD PTR $T160[ebp]
  002ed	83 c0 18	 add	 eax, 24			; 00000018H
  002f0	50		 push	 eax
  002f1	8b 85 78 ff ff
	ff		 mov	 eax, DWORD PTR $T159[ebp]
  002f7	83 c0 14	 add	 eax, 20			; 00000014H
  002fa	50		 push	 eax
  002fb	8b 85 74 ff ff
	ff		 mov	 eax, DWORD PTR $T158[ebp]
  00301	83 c0 10	 add	 eax, 16			; 00000010H
  00304	50		 push	 eax
  00305	8d 45 3c	 lea	 eax, DWORD PTR $T205[ebp]
  00308	50		 push	 eax
  00309	8b 4d 5c	 mov	 ecx, DWORD PTR _aSkyObjectQuad$231[ebp]
  0030c	e8 00 00 00 00	 call	 ?SetSrcColor@CSkyObjectQuad@@QAEXABEABM111@Z ; CSkyObjectQuad::SetSrcColor

; 653  : 			aSkyObjectQuad.SetTransition(2,

  00311	c6 45 53 02	 mov	 BYTE PTR $T228[ebp], 2
; File C:\Program Files (x86)\Microsoft Visual Studio\2019\Community\VC\Tools\MSVC\14.28.29333\include\vector

; 1508 :         auto& _My_data = _Mypair._Myval2;

  00315	8b 45 78	 mov	 eax, DWORD PTR _c_rNextColorVector$[ebp]
  00318	89 85 70 ff ff
	ff		 mov	 DWORD PTR __My_data$157[ebp], eax

; 1509 : #if _CONTAINER_DEBUG_LEVEL > 0
; 1510 :         _STL_VERIFY(
; 1511 :             _Pos < static_cast<size_type>(_My_data._Mylast - _My_data._Myfirst), "vector subscript out of range");
; 1512 : #endif // _CONTAINER_DEBUG_LEVEL > 0
; 1513 : 
; 1514 :         return _My_data._Myfirst[_Pos];

  0031e	8b 45 68	 mov	 eax, DWORD PTR _ulVectorGradientColornum$[ebp]
  00321	c1 e0 05	 shl	 eax, 5
  00324	8b 8d 70 ff ff
	ff		 mov	 ecx, DWORD PTR __My_data$157[ebp]
  0032a	03 01		 add	 eax, DWORD PTR [ecx]
  0032c	89 85 60 ff ff
	ff		 mov	 DWORD PTR $T153[ebp], eax

; 1508 :         auto& _My_data = _Mypair._Myval2;

  00332	8b 45 78	 mov	 eax, DWORD PTR _c_rNextColorVector$[ebp]
  00335	89 85 6c ff ff
	ff		 mov	 DWORD PTR __My_data$156[ebp], eax

; 1509 : #if _CONTAINER_DEBUG_LEVEL > 0
; 1510 :         _STL_VERIFY(
; 1511 :             _Pos < static_cast<size_type>(_My_data._Mylast - _My_data._Myfirst), "vector subscript out of range");
; 1512 : #endif // _CONTAINER_DEBUG_LEVEL > 0
; 1513 : 
; 1514 :         return _My_data._Myfirst[_Pos];

  0033b	8b 45 68	 mov	 eax, DWORD PTR _ulVectorGradientColornum$[ebp]
  0033e	c1 e0 05	 shl	 eax, 5
  00341	8b 8d 6c ff ff
	ff		 mov	 ecx, DWORD PTR __My_data$156[ebp]
  00347	03 01		 add	 eax, DWORD PTR [ecx]
  00349	89 85 5c ff ff
	ff		 mov	 DWORD PTR $T152[ebp], eax

; 1508 :         auto& _My_data = _Mypair._Myval2;

  0034f	8b 45 78	 mov	 eax, DWORD PTR _c_rNextColorVector$[ebp]
  00352	89 85 68 ff ff
	ff		 mov	 DWORD PTR __My_data$155[ebp], eax

; 1509 : #if _CONTAINER_DEBUG_LEVEL > 0
; 1510 :         _STL_VERIFY(
; 1511 :             _Pos < static_cast<size_type>(_My_data._Mylast - _My_data._Myfirst), "vector subscript out of range");
; 1512 : #endif // _CONTAINER_DEBUG_LEVEL > 0
; 1513 : 
; 1514 :         return _My_data._Myfirst[_Pos];

  00358	8b 45 68	 mov	 eax, DWORD PTR _ulVectorGradientColornum$[ebp]
  0035b	c1 e0 05	 shl	 eax, 5
  0035e	8b 8d 68 ff ff
	ff		 mov	 ecx, DWORD PTR __My_data$155[ebp]
  00364	03 01		 add	 eax, DWORD PTR [ecx]
  00366	89 85 58 ff ff
	ff		 mov	 DWORD PTR $T151[ebp], eax

; 1508 :         auto& _My_data = _Mypair._Myval2;

  0036c	8b 45 78	 mov	 eax, DWORD PTR _c_rNextColorVector$[ebp]
  0036f	89 85 64 ff ff
	ff		 mov	 DWORD PTR __My_data$154[ebp], eax

; 1509 : #if _CONTAINER_DEBUG_LEVEL > 0
; 1510 :         _STL_VERIFY(
; 1511 :             _Pos < static_cast<size_type>(_My_data._Mylast - _My_data._Myfirst), "vector subscript out of range");
; 1512 : #endif // _CONTAINER_DEBUG_LEVEL > 0
; 1513 : 
; 1514 :         return _My_data._Myfirst[_Pos];

  00375	8b 45 68	 mov	 eax, DWORD PTR _ulVectorGradientColornum$[ebp]
  00378	c1 e0 05	 shl	 eax, 5
  0037b	8b 8d 64 ff ff
	ff		 mov	 ecx, DWORD PTR __My_data$154[ebp]
  00381	03 01		 add	 eax, DWORD PTR [ecx]
  00383	89 85 54 ff ff
	ff		 mov	 DWORD PTR $T150[ebp], eax
; File D:\Metin2 Server Files\mainline\SRC_2014\Metin2Client\EterLib\SkyBox.cpp

; 653  : 			aSkyObjectQuad.SetTransition(2,

  00389	ff 75 7c	 push	 DWORD PTR _lTransitionTime$[ebp]
  0038c	8b 85 60 ff ff
	ff		 mov	 eax, DWORD PTR $T153[ebp]
  00392	83 c0 1c	 add	 eax, 28			; 0000001cH
  00395	50		 push	 eax
  00396	8b 85 5c ff ff
	ff		 mov	 eax, DWORD PTR $T152[ebp]
  0039c	83 c0 18	 add	 eax, 24			; 00000018H
  0039f	50		 push	 eax
  003a0	8b 85 58 ff ff
	ff		 mov	 eax, DWORD PTR $T151[ebp]
  003a6	83 c0 14	 add	 eax, 20			; 00000014H
  003a9	50		 push	 eax
  003aa	8b 85 54 ff ff
	ff		 mov	 eax, DWORD PTR $T150[ebp]
  003b0	83 c0 10	 add	 eax, 16			; 00000010H
  003b3	50		 push	 eax
  003b4	8d 45 53	 lea	 eax, DWORD PTR $T228[ebp]
  003b7	50		 push	 eax
  003b8	8b 4d 5c	 mov	 ecx, DWORD PTR _aSkyObjectQuad$231[ebp]
  003bb	e8 00 00 00 00	 call	 ?SetTransition@CSkyObjectQuad@@QAEXABEABM111K@Z ; CSkyObjectQuad::SetTransition

; 659  : 			aSkyObjectQuad.SetSrcColor(3,

  003c0	c6 45 52 03	 mov	 BYTE PTR $T227[ebp], 3
; File C:\Program Files (x86)\Microsoft Visual Studio\2019\Community\VC\Tools\MSVC\14.28.29333\include\vector

; 1508 :         auto& _My_data = _Mypair._Myval2;

  003c4	8b 45 74	 mov	 eax, DWORD PTR _c_rColorVector$[ebp]
  003c7	89 85 50 ff ff
	ff		 mov	 DWORD PTR __My_data$149[ebp], eax

; 1509 : #if _CONTAINER_DEBUG_LEVEL > 0
; 1510 :         _STL_VERIFY(
; 1511 :             _Pos < static_cast<size_type>(_My_data._Mylast - _My_data._Myfirst), "vector subscript out of range");
; 1512 : #endif // _CONTAINER_DEBUG_LEVEL > 0
; 1513 : 
; 1514 :         return _My_data._Myfirst[_Pos];

  003cd	8b 45 68	 mov	 eax, DWORD PTR _ulVectorGradientColornum$[ebp]
  003d0	c1 e0 05	 shl	 eax, 5
  003d3	8b 8d 50 ff ff
	ff		 mov	 ecx, DWORD PTR __My_data$149[ebp]
  003d9	03 01		 add	 eax, DWORD PTR [ecx]
  003db	89 85 40 ff ff
	ff		 mov	 DWORD PTR $T145[ebp], eax

; 1508 :         auto& _My_data = _Mypair._Myval2;

  003e1	8b 45 74	 mov	 eax, DWORD PTR _c_rColorVector$[ebp]
  003e4	89 85 4c ff ff
	ff		 mov	 DWORD PTR __My_data$148[ebp], eax

; 1509 : #if _CONTAINER_DEBUG_LEVEL > 0
; 1510 :         _STL_VERIFY(
; 1511 :             _Pos < static_cast<size_type>(_My_data._Mylast - _My_data._Myfirst), "vector subscript out of range");
; 1512 : #endif // _CONTAINER_DEBUG_LEVEL > 0
; 1513 : 
; 1514 :         return _My_data._Myfirst[_Pos];

  003ea	8b 45 68	 mov	 eax, DWORD PTR _ulVectorGradientColornum$[ebp]
  003ed	c1 e0 05	 shl	 eax, 5
  003f0	8b 8d 4c ff ff
	ff		 mov	 ecx, DWORD PTR __My_data$148[ebp]
  003f6	03 01		 add	 eax, DWORD PTR [ecx]
  003f8	89 85 3c ff ff
	ff		 mov	 DWORD PTR $T144[ebp], eax

; 1508 :         auto& _My_data = _Mypair._Myval2;

  003fe	8b 45 74	 mov	 eax, DWORD PTR _c_rColorVector$[ebp]
  00401	89 85 48 ff ff
	ff		 mov	 DWORD PTR __My_data$147[ebp], eax

; 1509 : #if _CONTAINER_DEBUG_LEVEL > 0
; 1510 :         _STL_VERIFY(
; 1511 :             _Pos < static_cast<size_type>(_My_data._Mylast - _My_data._Myfirst), "vector subscript out of range");
; 1512 : #endif // _CONTAINER_DEBUG_LEVEL > 0
; 1513 : 
; 1514 :         return _My_data._Myfirst[_Pos];

  00407	8b 45 68	 mov	 eax, DWORD PTR _ulVectorGradientColornum$[ebp]
  0040a	c1 e0 05	 shl	 eax, 5
  0040d	8b 8d 48 ff ff
	ff		 mov	 ecx, DWORD PTR __My_data$147[ebp]
  00413	03 01		 add	 eax, DWORD PTR [ecx]
  00415	89 85 38 ff ff
	ff		 mov	 DWORD PTR $T143[ebp], eax

; 1508 :         auto& _My_data = _Mypair._Myval2;

  0041b	8b 45 74	 mov	 eax, DWORD PTR _c_rColorVector$[ebp]
  0041e	89 85 44 ff ff
	ff		 mov	 DWORD PTR __My_data$146[ebp], eax

; 1509 : #if _CONTAINER_DEBUG_LEVEL > 0
; 1510 :         _STL_VERIFY(
; 1511 :             _Pos < static_cast<size_type>(_My_data._Mylast - _My_data._Myfirst), "vector subscript out of range");
; 1512 : #endif // _CONTAINER_DEBUG_LEVEL > 0
; 1513 : 
; 1514 :         return _My_data._Myfirst[_Pos];

  00424	8b 45 68	 mov	 eax, DWORD PTR _ulVectorGradientColornum$[ebp]
  00427	c1 e0 05	 shl	 eax, 5
  0042a	8b 8d 44 ff ff
	ff		 mov	 ecx, DWORD PTR __My_data$146[ebp]
  00430	03 01		 add	 eax, DWORD PTR [ecx]
  00432	89 85 34 ff ff
	ff		 mov	 DWORD PTR $T142[ebp], eax
; File D:\Metin2 Server Files\mainline\SRC_2014\Metin2Client\EterLib\SkyBox.cpp

; 659  : 			aSkyObjectQuad.SetSrcColor(3,

  00438	8b 85 40 ff ff
	ff		 mov	 eax, DWORD PTR $T145[ebp]
  0043e	83 c0 0c	 add	 eax, 12			; 0000000cH
  00441	50		 push	 eax
  00442	8b 85 3c ff ff
	ff		 mov	 eax, DWORD PTR $T144[ebp]
  00448	83 c0 08	 add	 eax, 8
  0044b	50		 push	 eax
  0044c	8b 85 38 ff ff
	ff		 mov	 eax, DWORD PTR $T143[ebp]
  00452	83 c0 04	 add	 eax, 4
  00455	50		 push	 eax
  00456	ff b5 34 ff ff
	ff		 push	 DWORD PTR $T142[ebp]
  0045c	8d 45 52	 lea	 eax, DWORD PTR $T227[ebp]
  0045f	50		 push	 eax
  00460	8b 4d 5c	 mov	 ecx, DWORD PTR _aSkyObjectQuad$231[ebp]
  00463	e8 00 00 00 00	 call	 ?SetSrcColor@CSkyObjectQuad@@QAEXABEABM111@Z ; CSkyObjectQuad::SetSrcColor

; 664  : 			aSkyObjectQuad.SetTransition(3,

  00468	c6 45 51 03	 mov	 BYTE PTR $T226[ebp], 3
; File C:\Program Files (x86)\Microsoft Visual Studio\2019\Community\VC\Tools\MSVC\14.28.29333\include\vector

; 1508 :         auto& _My_data = _Mypair._Myval2;

  0046c	8b 45 78	 mov	 eax, DWORD PTR _c_rNextColorVector$[ebp]
  0046f	89 85 30 ff ff
	ff		 mov	 DWORD PTR __My_data$141[ebp], eax

; 1509 : #if _CONTAINER_DEBUG_LEVEL > 0
; 1510 :         _STL_VERIFY(
; 1511 :             _Pos < static_cast<size_type>(_My_data._Mylast - _My_data._Myfirst), "vector subscript out of range");
; 1512 : #endif // _CONTAINER_DEBUG_LEVEL > 0
; 1513 : 
; 1514 :         return _My_data._Myfirst[_Pos];

  00475	8b 45 68	 mov	 eax, DWORD PTR _ulVectorGradientColornum$[ebp]
  00478	c1 e0 05	 shl	 eax, 5
  0047b	8b 8d 30 ff ff
	ff		 mov	 ecx, DWORD PTR __My_data$141[ebp]
  00481	03 01		 add	 eax, DWORD PTR [ecx]
  00483	89 85 20 ff ff
	ff		 mov	 DWORD PTR $T137[ebp], eax

; 1508 :         auto& _My_data = _Mypair._Myval2;

  00489	8b 45 78	 mov	 eax, DWORD PTR _c_rNextColorVector$[ebp]
  0048c	89 85 2c ff ff
	ff		 mov	 DWORD PTR __My_data$140[ebp], eax

; 1509 : #if _CONTAINER_DEBUG_LEVEL > 0
; 1510 :         _STL_VERIFY(
; 1511 :             _Pos < static_cast<size_type>(_My_data._Mylast - _My_data._Myfirst), "vector subscript out of range");
; 1512 : #endif // _CONTAINER_DEBUG_LEVEL > 0
; 1513 : 
; 1514 :         return _My_data._Myfirst[_Pos];

  00492	8b 45 68	 mov	 eax, DWORD PTR _ulVectorGradientColornum$[ebp]
  00495	c1 e0 05	 shl	 eax, 5
  00498	8b 8d 2c ff ff
	ff		 mov	 ecx, DWORD PTR __My_data$140[ebp]
  0049e	03 01		 add	 eax, DWORD PTR [ecx]
  004a0	89 85 1c ff ff
	ff		 mov	 DWORD PTR $T136[ebp], eax

; 1508 :         auto& _My_data = _Mypair._Myval2;

  004a6	8b 45 78	 mov	 eax, DWORD PTR _c_rNextColorVector$[ebp]
  004a9	89 85 28 ff ff
	ff		 mov	 DWORD PTR __My_data$139[ebp], eax

; 1509 : #if _CONTAINER_DEBUG_LEVEL > 0
; 1510 :         _STL_VERIFY(
; 1511 :             _Pos < static_cast<size_type>(_My_data._Mylast - _My_data._Myfirst), "vector subscript out of range");
; 1512 : #endif // _CONTAINER_DEBUG_LEVEL > 0
; 1513 : 
; 1514 :         return _My_data._Myfirst[_Pos];

  004af	8b 45 68	 mov	 eax, DWORD PTR _ulVectorGradientColornum$[ebp]
  004b2	c1 e0 05	 shl	 eax, 5
  004b5	8b 8d 28 ff ff
	ff		 mov	 ecx, DWORD PTR __My_data$139[ebp]
  004bb	03 01		 add	 eax, DWORD PTR [ecx]
  004bd	89 85 18 ff ff
	ff		 mov	 DWORD PTR $T135[ebp], eax

; 1508 :         auto& _My_data = _Mypair._Myval2;

  004c3	8b 45 78	 mov	 eax, DWORD PTR _c_rNextColorVector$[ebp]
  004c6	89 85 24 ff ff
	ff		 mov	 DWORD PTR __My_data$138[ebp], eax

; 1509 : #if _CONTAINER_DEBUG_LEVEL > 0
; 1510 :         _STL_VERIFY(
; 1511 :             _Pos < static_cast<size_type>(_My_data._Mylast - _My_data._Myfirst), "vector subscript out of range");
; 1512 : #endif // _CONTAINER_DEBUG_LEVEL > 0
; 1513 : 
; 1514 :         return _My_data._Myfirst[_Pos];

  004cc	8b 45 68	 mov	 eax, DWORD PTR _ulVectorGradientColornum$[ebp]
  004cf	c1 e0 05	 shl	 eax, 5
  004d2	8b 8d 24 ff ff
	ff		 mov	 ecx, DWORD PTR __My_data$138[ebp]
  004d8	03 01		 add	 eax, DWORD PTR [ecx]
  004da	89 85 14 ff ff
	ff		 mov	 DWORD PTR $T134[ebp], eax
; File D:\Metin2 Server Files\mainline\SRC_2014\Metin2Client\EterLib\SkyBox.cpp

; 664  : 			aSkyObjectQuad.SetTransition(3,

  004e0	ff 75 7c	 push	 DWORD PTR _lTransitionTime$[ebp]
  004e3	8b 85 20 ff ff
	ff		 mov	 eax, DWORD PTR $T137[ebp]
  004e9	83 c0 0c	 add	 eax, 12			; 0000000cH
  004ec	50		 push	 eax
  004ed	8b 85 1c ff ff
	ff		 mov	 eax, DWORD PTR $T136[ebp]
  004f3	83 c0 08	 add	 eax, 8
  004f6	50		 push	 eax
  004f7	8b 85 18 ff ff
	ff		 mov	 eax, DWORD PTR $T135[ebp]
  004fd	83 c0 04	 add	 eax, 4
  00500	50		 push	 eax
  00501	ff b5 14 ff ff
	ff		 push	 DWORD PTR $T134[ebp]
  00507	8d 45 51	 lea	 eax, DWORD PTR $T226[ebp]
  0050a	50		 push	 eax
  0050b	8b 4d 5c	 mov	 ecx, DWORD PTR _aSkyObjectQuad$231[ebp]
  0050e	e8 00 00 00 00	 call	 ?SetTransition@CSkyObjectQuad@@QAEXABEABM111K@Z ; CSkyObjectQuad::SetTransition

; 665  : 				c_rNextColorVector[ulVectorGradientColornum].m_FirstColor.r,
; 666  : 				c_rNextColorVector[ulVectorGradientColornum].m_FirstColor.g,
; 667  : 				c_rNextColorVector[ulVectorGradientColornum].m_FirstColor.b,
; 668  : 				c_rNextColorVector[ulVectorGradientColornum].m_FirstColor.a,
; 669  : 				lTransitionTime);
; 670  : 
; 671  : 			ulVectorGradientColornum++;

  00513	8b 45 68	 mov	 eax, DWORD PTR _ulVectorGradientColornum$[ebp]
  00516	40		 inc	 eax
  00517	89 45 68	 mov	 DWORD PTR _ulVectorGradientColornum$[ebp], eax

; 672  : 		}

  0051a	e9 2c fb ff ff	 jmp	 $LN5@SetSkyColo
$LN6@SetSkyColo:

; 673  : 	}

  0051f	e9 f4 fa ff ff	 jmp	 $LN2@SetSkyColo
$LN3@SetSkyColo:

; 674  : 
; 675  : 	/////
; 676  : 
; 677  : 	TSkyObjectFace & aFaceTop = m_Faces[4];

  00524	6a 3c		 push	 60			; 0000003cH
  00526	58		 pop	 eax
  00527	c1 e0 02	 shl	 eax, 2
  0052a	8b 4d 38	 mov	 ecx, DWORD PTR _this$[ebp]
  0052d	8d 84 01 18 02
	00 00		 lea	 eax, DWORD PTR [ecx+eax+536]
  00534	89 45 28	 mov	 DWORD PTR _aFaceTop$[ebp], eax

; 678  : 	ulVectorGradientColornum = 0;

  00537	83 65 68 00	 and	 DWORD PTR _ulVectorGradientColornum$[ebp], 0

; 679  : 	for (uck = 0; uck < aFaceTop.m_SkyObjectQuadVector.size(); ++uck)

  0053b	83 65 60 00	 and	 DWORD PTR _uck$[ebp], 0
  0053f	eb 07		 jmp	 SHORT $LN10@SetSkyColo
$LN8@SetSkyColo:
  00541	8b 45 60	 mov	 eax, DWORD PTR _uck$[ebp]
  00544	40		 inc	 eax
  00545	89 45 60	 mov	 DWORD PTR _uck$[ebp], eax
$LN10@SetSkyColo:
; File C:\Program Files (x86)\Microsoft Visual Studio\2019\Community\VC\Tools\MSVC\14.28.29333\include\vector

; 1483 :         auto& _My_data = _Mypair._Myval2;

  00548	8b 45 28	 mov	 eax, DWORD PTR _aFaceTop$[ebp]
  0054b	83 c0 30	 add	 eax, 48			; 00000030H
  0054e	89 45 2c	 mov	 DWORD PTR __My_data$202[ebp], eax

; 1484 :         return static_cast<size_type>(_My_data._Mylast - _My_data._Myfirst);

  00551	8b 45 2c	 mov	 eax, DWORD PTR __My_data$202[ebp]
  00554	8b 4d 2c	 mov	 ecx, DWORD PTR __My_data$202[ebp]
  00557	8b 40 04	 mov	 eax, DWORD PTR [eax+4]
  0055a	2b 01		 sub	 eax, DWORD PTR [ecx]
  0055c	99		 cdq
  0055d	b9 2c 01 00 00	 mov	 ecx, 300		; 0000012cH
  00562	f7 f9		 idiv	 ecx
  00564	89 85 10 ff ff
	ff		 mov	 DWORD PTR $T133[ebp], eax
; File D:\Metin2 Server Files\mainline\SRC_2014\Metin2Client\EterLib\SkyBox.cpp

; 679  : 	for (uck = 0; uck < aFaceTop.m_SkyObjectQuadVector.size(); ++uck)

  0056a	8b 45 60	 mov	 eax, DWORD PTR _uck$[ebp]
  0056d	3b 85 10 ff ff
	ff		 cmp	 eax, DWORD PTR $T133[ebp]
  00573	0f 83 6f 05 00
	00		 jae	 $LN9@SetSkyColo
; File C:\Program Files (x86)\Microsoft Visual Studio\2019\Community\VC\Tools\MSVC\14.28.29333\include\vector

; 1498 :         auto& _My_data = _Mypair._Myval2;

  00579	8b 45 28	 mov	 eax, DWORD PTR _aFaceTop$[ebp]
  0057c	83 c0 30	 add	 eax, 48			; 00000030H
  0057f	89 85 0c ff ff
	ff		 mov	 DWORD PTR __My_data$132[ebp], eax

; 1499 : #if _CONTAINER_DEBUG_LEVEL > 0
; 1500 :         _STL_VERIFY(
; 1501 :             _Pos < static_cast<size_type>(_My_data._Mylast - _My_data._Myfirst), "vector subscript out of range");
; 1502 : #endif // _CONTAINER_DEBUG_LEVEL > 0
; 1503 : 
; 1504 :         return _My_data._Myfirst[_Pos];

  00585	69 45 60 2c 01
	00 00		 imul	 eax, DWORD PTR _uck$[ebp], 300
  0058c	8b 8d 0c ff ff
	ff		 mov	 ecx, DWORD PTR __My_data$132[ebp]
  00592	03 01		 add	 eax, DWORD PTR [ecx]
  00594	89 45 58	 mov	 DWORD PTR _aSkyObjectQuad$230[ebp], eax
; File D:\Metin2 Server Files\mainline\SRC_2014\Metin2Client\EterLib\SkyBox.cpp

; 683  : 		aSkyObjectQuad.SetSrcColor(0,

  00597	c6 45 50 00	 mov	 BYTE PTR $T225[ebp], 0
; File C:\Program Files (x86)\Microsoft Visual Studio\2019\Community\VC\Tools\MSVC\14.28.29333\include\vector

; 1508 :         auto& _My_data = _Mypair._Myval2;

  0059b	8b 45 74	 mov	 eax, DWORD PTR _c_rColorVector$[ebp]
  0059e	89 85 08 ff ff
	ff		 mov	 DWORD PTR __My_data$131[ebp], eax

; 1509 : #if _CONTAINER_DEBUG_LEVEL > 0
; 1510 :         _STL_VERIFY(
; 1511 :             _Pos < static_cast<size_type>(_My_data._Mylast - _My_data._Myfirst), "vector subscript out of range");
; 1512 : #endif // _CONTAINER_DEBUG_LEVEL > 0
; 1513 : 
; 1514 :         return _My_data._Myfirst[_Pos];

  005a4	8b 45 68	 mov	 eax, DWORD PTR _ulVectorGradientColornum$[ebp]
  005a7	c1 e0 05	 shl	 eax, 5
  005aa	8b 8d 08 ff ff
	ff		 mov	 ecx, DWORD PTR __My_data$131[ebp]
  005b0	03 01		 add	 eax, DWORD PTR [ecx]
  005b2	89 85 f8 fe ff
	ff		 mov	 DWORD PTR $T127[ebp], eax

; 1508 :         auto& _My_data = _Mypair._Myval2;

  005b8	8b 45 74	 mov	 eax, DWORD PTR _c_rColorVector$[ebp]
  005bb	89 85 04 ff ff
	ff		 mov	 DWORD PTR __My_data$130[ebp], eax

; 1509 : #if _CONTAINER_DEBUG_LEVEL > 0
; 1510 :         _STL_VERIFY(
; 1511 :             _Pos < static_cast<size_type>(_My_data._Mylast - _My_data._Myfirst), "vector subscript out of range");
; 1512 : #endif // _CONTAINER_DEBUG_LEVEL > 0
; 1513 : 
; 1514 :         return _My_data._Myfirst[_Pos];

  005c1	8b 45 68	 mov	 eax, DWORD PTR _ulVectorGradientColornum$[ebp]
  005c4	c1 e0 05	 shl	 eax, 5
  005c7	8b 8d 04 ff ff
	ff		 mov	 ecx, DWORD PTR __My_data$130[ebp]
  005cd	03 01		 add	 eax, DWORD PTR [ecx]
  005cf	89 85 f4 fe ff
	ff		 mov	 DWORD PTR $T126[ebp], eax

; 1508 :         auto& _My_data = _Mypair._Myval2;

  005d5	8b 45 74	 mov	 eax, DWORD PTR _c_rColorVector$[ebp]
  005d8	89 85 00 ff ff
	ff		 mov	 DWORD PTR __My_data$129[ebp], eax

; 1509 : #if _CONTAINER_DEBUG_LEVEL > 0
; 1510 :         _STL_VERIFY(
; 1511 :             _Pos < static_cast<size_type>(_My_data._Mylast - _My_data._Myfirst), "vector subscript out of range");
; 1512 : #endif // _CONTAINER_DEBUG_LEVEL > 0
; 1513 : 
; 1514 :         return _My_data._Myfirst[_Pos];

  005de	8b 45 68	 mov	 eax, DWORD PTR _ulVectorGradientColornum$[ebp]
  005e1	c1 e0 05	 shl	 eax, 5
  005e4	8b 8d 00 ff ff
	ff		 mov	 ecx, DWORD PTR __My_data$129[ebp]
  005ea	03 01		 add	 eax, DWORD PTR [ecx]
  005ec	89 85 f0 fe ff
	ff		 mov	 DWORD PTR $T125[ebp], eax

; 1508 :         auto& _My_data = _Mypair._Myval2;

  005f2	8b 45 74	 mov	 eax, DWORD PTR _c_rColorVector$[ebp]
  005f5	89 85 fc fe ff
	ff		 mov	 DWORD PTR __My_data$128[ebp], eax

; 1509 : #if _CONTAINER_DEBUG_LEVEL > 0
; 1510 :         _STL_VERIFY(
; 1511 :             _Pos < static_cast<size_type>(_My_data._Mylast - _My_data._Myfirst), "vector subscript out of range");
; 1512 : #endif // _CONTAINER_DEBUG_LEVEL > 0
; 1513 : 
; 1514 :         return _My_data._Myfirst[_Pos];

  005fb	8b 45 68	 mov	 eax, DWORD PTR _ulVectorGradientColornum$[ebp]
  005fe	c1 e0 05	 shl	 eax, 5
  00601	8b 8d fc fe ff
	ff		 mov	 ecx, DWORD PTR __My_data$128[ebp]
  00607	03 01		 add	 eax, DWORD PTR [ecx]
  00609	89 85 ec fe ff
	ff		 mov	 DWORD PTR $T124[ebp], eax
; File D:\Metin2 Server Files\mainline\SRC_2014\Metin2Client\EterLib\SkyBox.cpp

; 683  : 		aSkyObjectQuad.SetSrcColor(0,

  0060f	8b 85 f8 fe ff
	ff		 mov	 eax, DWORD PTR $T127[ebp]
  00615	83 c0 0c	 add	 eax, 12			; 0000000cH
  00618	50		 push	 eax
  00619	8b 85 f4 fe ff
	ff		 mov	 eax, DWORD PTR $T126[ebp]
  0061f	83 c0 08	 add	 eax, 8
  00622	50		 push	 eax
  00623	8b 85 f0 fe ff
	ff		 mov	 eax, DWORD PTR $T125[ebp]
  00629	83 c0 04	 add	 eax, 4
  0062c	50		 push	 eax
  0062d	ff b5 ec fe ff
	ff		 push	 DWORD PTR $T124[ebp]
  00633	8d 45 50	 lea	 eax, DWORD PTR $T225[ebp]
  00636	50		 push	 eax
  00637	8b 4d 58	 mov	 ecx, DWORD PTR _aSkyObjectQuad$230[ebp]
  0063a	e8 00 00 00 00	 call	 ?SetSrcColor@CSkyObjectQuad@@QAEXABEABM111@Z ; CSkyObjectQuad::SetSrcColor

; 688  : 		aSkyObjectQuad.SetTransition(0, 

  0063f	c6 45 4f 00	 mov	 BYTE PTR $T224[ebp], 0
; File C:\Program Files (x86)\Microsoft Visual Studio\2019\Community\VC\Tools\MSVC\14.28.29333\include\vector

; 1508 :         auto& _My_data = _Mypair._Myval2;

  00643	8b 45 78	 mov	 eax, DWORD PTR _c_rNextColorVector$[ebp]
  00646	89 85 e8 fe ff
	ff		 mov	 DWORD PTR __My_data$123[ebp], eax

; 1509 : #if _CONTAINER_DEBUG_LEVEL > 0
; 1510 :         _STL_VERIFY(
; 1511 :             _Pos < static_cast<size_type>(_My_data._Mylast - _My_data._Myfirst), "vector subscript out of range");
; 1512 : #endif // _CONTAINER_DEBUG_LEVEL > 0
; 1513 : 
; 1514 :         return _My_data._Myfirst[_Pos];

  0064c	8b 45 68	 mov	 eax, DWORD PTR _ulVectorGradientColornum$[ebp]
  0064f	c1 e0 05	 shl	 eax, 5
  00652	8b 8d e8 fe ff
	ff		 mov	 ecx, DWORD PTR __My_data$123[ebp]
  00658	03 01		 add	 eax, DWORD PTR [ecx]
  0065a	89 85 d8 fe ff
	ff		 mov	 DWORD PTR $T119[ebp], eax

; 1508 :         auto& _My_data = _Mypair._Myval2;

  00660	8b 45 78	 mov	 eax, DWORD PTR _c_rNextColorVector$[ebp]
  00663	89 85 e4 fe ff
	ff		 mov	 DWORD PTR __My_data$122[ebp], eax

; 1509 : #if _CONTAINER_DEBUG_LEVEL > 0
; 1510 :         _STL_VERIFY(
; 1511 :             _Pos < static_cast<size_type>(_My_data._Mylast - _My_data._Myfirst), "vector subscript out of range");
; 1512 : #endif // _CONTAINER_DEBUG_LEVEL > 0
; 1513 : 
; 1514 :         return _My_data._Myfirst[_Pos];

  00669	8b 45 68	 mov	 eax, DWORD PTR _ulVectorGradientColornum$[ebp]
  0066c	c1 e0 05	 shl	 eax, 5
  0066f	8b 8d e4 fe ff
	ff		 mov	 ecx, DWORD PTR __My_data$122[ebp]
  00675	03 01		 add	 eax, DWORD PTR [ecx]
  00677	89 85 d4 fe ff
	ff		 mov	 DWORD PTR $T118[ebp], eax

; 1508 :         auto& _My_data = _Mypair._Myval2;

  0067d	8b 45 78	 mov	 eax, DWORD PTR _c_rNextColorVector$[ebp]
  00680	89 85 e0 fe ff
	ff		 mov	 DWORD PTR __My_data$121[ebp], eax

; 1509 : #if _CONTAINER_DEBUG_LEVEL > 0
; 1510 :         _STL_VERIFY(
; 1511 :             _Pos < static_cast<size_type>(_My_data._Mylast - _My_data._Myfirst), "vector subscript out of range");
; 1512 : #endif // _CONTAINER_DEBUG_LEVEL > 0
; 1513 : 
; 1514 :         return _My_data._Myfirst[_Pos];

  00686	8b 45 68	 mov	 eax, DWORD PTR _ulVectorGradientColornum$[ebp]
  00689	c1 e0 05	 shl	 eax, 5
  0068c	8b 8d e0 fe ff
	ff		 mov	 ecx, DWORD PTR __My_data$121[ebp]
  00692	03 01		 add	 eax, DWORD PTR [ecx]
  00694	89 85 d0 fe ff
	ff		 mov	 DWORD PTR $T117[ebp], eax

; 1508 :         auto& _My_data = _Mypair._Myval2;

  0069a	8b 45 78	 mov	 eax, DWORD PTR _c_rNextColorVector$[ebp]
  0069d	89 85 dc fe ff
	ff		 mov	 DWORD PTR __My_data$120[ebp], eax

; 1509 : #if _CONTAINER_DEBUG_LEVEL > 0
; 1510 :         _STL_VERIFY(
; 1511 :             _Pos < static_cast<size_type>(_My_data._Mylast - _My_data._Myfirst), "vector subscript out of range");
; 1512 : #endif // _CONTAINER_DEBUG_LEVEL > 0
; 1513 : 
; 1514 :         return _My_data._Myfirst[_Pos];

  006a3	8b 45 68	 mov	 eax, DWORD PTR _ulVectorGradientColornum$[ebp]
  006a6	c1 e0 05	 shl	 eax, 5
  006a9	8b 8d dc fe ff
	ff		 mov	 ecx, DWORD PTR __My_data$120[ebp]
  006af	03 01		 add	 eax, DWORD PTR [ecx]
  006b1	89 85 cc fe ff
	ff		 mov	 DWORD PTR $T116[ebp], eax
; File D:\Metin2 Server Files\mainline\SRC_2014\Metin2Client\EterLib\SkyBox.cpp

; 688  : 		aSkyObjectQuad.SetTransition(0, 

  006b7	ff 75 7c	 push	 DWORD PTR _lTransitionTime$[ebp]
  006ba	8b 85 d8 fe ff
	ff		 mov	 eax, DWORD PTR $T119[ebp]
  006c0	83 c0 0c	 add	 eax, 12			; 0000000cH
  006c3	50		 push	 eax
  006c4	8b 85 d4 fe ff
	ff		 mov	 eax, DWORD PTR $T118[ebp]
  006ca	83 c0 08	 add	 eax, 8
  006cd	50		 push	 eax
  006ce	8b 85 d0 fe ff
	ff		 mov	 eax, DWORD PTR $T117[ebp]
  006d4	83 c0 04	 add	 eax, 4
  006d7	50		 push	 eax
  006d8	ff b5 cc fe ff
	ff		 push	 DWORD PTR $T116[ebp]
  006de	8d 45 4f	 lea	 eax, DWORD PTR $T224[ebp]
  006e1	50		 push	 eax
  006e2	8b 4d 58	 mov	 ecx, DWORD PTR _aSkyObjectQuad$230[ebp]
  006e5	e8 00 00 00 00	 call	 ?SetTransition@CSkyObjectQuad@@QAEXABEABM111K@Z ; CSkyObjectQuad::SetTransition

; 694  : 		aSkyObjectQuad.SetSrcColor(1,

  006ea	c6 45 4e 01	 mov	 BYTE PTR $T223[ebp], 1
; File C:\Program Files (x86)\Microsoft Visual Studio\2019\Community\VC\Tools\MSVC\14.28.29333\include\vector

; 1508 :         auto& _My_data = _Mypair._Myval2;

  006ee	8b 45 74	 mov	 eax, DWORD PTR _c_rColorVector$[ebp]
  006f1	89 85 c8 fe ff
	ff		 mov	 DWORD PTR __My_data$115[ebp], eax

; 1509 : #if _CONTAINER_DEBUG_LEVEL > 0
; 1510 :         _STL_VERIFY(
; 1511 :             _Pos < static_cast<size_type>(_My_data._Mylast - _My_data._Myfirst), "vector subscript out of range");
; 1512 : #endif // _CONTAINER_DEBUG_LEVEL > 0
; 1513 : 
; 1514 :         return _My_data._Myfirst[_Pos];

  006f7	8b 45 68	 mov	 eax, DWORD PTR _ulVectorGradientColornum$[ebp]
  006fa	c1 e0 05	 shl	 eax, 5
  006fd	8b 8d c8 fe ff
	ff		 mov	 ecx, DWORD PTR __My_data$115[ebp]
  00703	03 01		 add	 eax, DWORD PTR [ecx]
  00705	89 85 b8 fe ff
	ff		 mov	 DWORD PTR $T111[ebp], eax

; 1508 :         auto& _My_data = _Mypair._Myval2;

  0070b	8b 45 74	 mov	 eax, DWORD PTR _c_rColorVector$[ebp]
  0070e	89 85 c4 fe ff
	ff		 mov	 DWORD PTR __My_data$114[ebp], eax

; 1509 : #if _CONTAINER_DEBUG_LEVEL > 0
; 1510 :         _STL_VERIFY(
; 1511 :             _Pos < static_cast<size_type>(_My_data._Mylast - _My_data._Myfirst), "vector subscript out of range");
; 1512 : #endif // _CONTAINER_DEBUG_LEVEL > 0
; 1513 : 
; 1514 :         return _My_data._Myfirst[_Pos];

  00714	8b 45 68	 mov	 eax, DWORD PTR _ulVectorGradientColornum$[ebp]
  00717	c1 e0 05	 shl	 eax, 5
  0071a	8b 8d c4 fe ff
	ff		 mov	 ecx, DWORD PTR __My_data$114[ebp]
  00720	03 01		 add	 eax, DWORD PTR [ecx]
  00722	89 85 b4 fe ff
	ff		 mov	 DWORD PTR $T110[ebp], eax

; 1508 :         auto& _My_data = _Mypair._Myval2;

  00728	8b 45 74	 mov	 eax, DWORD PTR _c_rColorVector$[ebp]
  0072b	89 85 c0 fe ff
	ff		 mov	 DWORD PTR __My_data$113[ebp], eax

; 1509 : #if _CONTAINER_DEBUG_LEVEL > 0
; 1510 :         _STL_VERIFY(
; 1511 :             _Pos < static_cast<size_type>(_My_data._Mylast - _My_data._Myfirst), "vector subscript out of range");
; 1512 : #endif // _CONTAINER_DEBUG_LEVEL > 0
; 1513 : 
; 1514 :         return _My_data._Myfirst[_Pos];

  00731	8b 45 68	 mov	 eax, DWORD PTR _ulVectorGradientColornum$[ebp]
  00734	c1 e0 05	 shl	 eax, 5
  00737	8b 8d c0 fe ff
	ff		 mov	 ecx, DWORD PTR __My_data$113[ebp]
  0073d	03 01		 add	 eax, DWORD PTR [ecx]
  0073f	89 85 b0 fe ff
	ff		 mov	 DWORD PTR $T109[ebp], eax

; 1508 :         auto& _My_data = _Mypair._Myval2;

  00745	8b 45 74	 mov	 eax, DWORD PTR _c_rColorVector$[ebp]
  00748	89 85 bc fe ff
	ff		 mov	 DWORD PTR __My_data$112[ebp], eax

; 1509 : #if _CONTAINER_DEBUG_LEVEL > 0
; 1510 :         _STL_VERIFY(
; 1511 :             _Pos < static_cast<size_type>(_My_data._Mylast - _My_data._Myfirst), "vector subscript out of range");
; 1512 : #endif // _CONTAINER_DEBUG_LEVEL > 0
; 1513 : 
; 1514 :         return _My_data._Myfirst[_Pos];

  0074e	8b 45 68	 mov	 eax, DWORD PTR _ulVectorGradientColornum$[ebp]
  00751	c1 e0 05	 shl	 eax, 5
  00754	8b 8d bc fe ff
	ff		 mov	 ecx, DWORD PTR __My_data$112[ebp]
  0075a	03 01		 add	 eax, DWORD PTR [ecx]
  0075c	89 85 ac fe ff
	ff		 mov	 DWORD PTR $T108[ebp], eax
; File D:\Metin2 Server Files\mainline\SRC_2014\Metin2Client\EterLib\SkyBox.cpp

; 694  : 		aSkyObjectQuad.SetSrcColor(1,

  00762	8b 85 b8 fe ff
	ff		 mov	 eax, DWORD PTR $T111[ebp]
  00768	83 c0 0c	 add	 eax, 12			; 0000000cH
  0076b	50		 push	 eax
  0076c	8b 85 b4 fe ff
	ff		 mov	 eax, DWORD PTR $T110[ebp]
  00772	83 c0 08	 add	 eax, 8
  00775	50		 push	 eax
  00776	8b 85 b0 fe ff
	ff		 mov	 eax, DWORD PTR $T109[ebp]
  0077c	83 c0 04	 add	 eax, 4
  0077f	50		 push	 eax
  00780	ff b5 ac fe ff
	ff		 push	 DWORD PTR $T108[ebp]
  00786	8d 45 4e	 lea	 eax, DWORD PTR $T223[ebp]
  00789	50		 push	 eax
  0078a	8b 4d 58	 mov	 ecx, DWORD PTR _aSkyObjectQuad$230[ebp]
  0078d	e8 00 00 00 00	 call	 ?SetSrcColor@CSkyObjectQuad@@QAEXABEABM111@Z ; CSkyObjectQuad::SetSrcColor

; 699  : 		aSkyObjectQuad.SetTransition(1,

  00792	c6 45 4d 01	 mov	 BYTE PTR $T222[ebp], 1
; File C:\Program Files (x86)\Microsoft Visual Studio\2019\Community\VC\Tools\MSVC\14.28.29333\include\vector

; 1508 :         auto& _My_data = _Mypair._Myval2;

  00796	8b 45 78	 mov	 eax, DWORD PTR _c_rNextColorVector$[ebp]
  00799	89 85 a8 fe ff
	ff		 mov	 DWORD PTR __My_data$107[ebp], eax

; 1509 : #if _CONTAINER_DEBUG_LEVEL > 0
; 1510 :         _STL_VERIFY(
; 1511 :             _Pos < static_cast<size_type>(_My_data._Mylast - _My_data._Myfirst), "vector subscript out of range");
; 1512 : #endif // _CONTAINER_DEBUG_LEVEL > 0
; 1513 : 
; 1514 :         return _My_data._Myfirst[_Pos];

  0079f	8b 45 68	 mov	 eax, DWORD PTR _ulVectorGradientColornum$[ebp]
  007a2	c1 e0 05	 shl	 eax, 5
  007a5	8b 8d a8 fe ff
	ff		 mov	 ecx, DWORD PTR __My_data$107[ebp]
  007ab	03 01		 add	 eax, DWORD PTR [ecx]
  007ad	89 85 98 fe ff
	ff		 mov	 DWORD PTR $T103[ebp], eax

; 1508 :         auto& _My_data = _Mypair._Myval2;

  007b3	8b 45 78	 mov	 eax, DWORD PTR _c_rNextColorVector$[ebp]
  007b6	89 85 a4 fe ff
	ff		 mov	 DWORD PTR __My_data$106[ebp], eax

; 1509 : #if _CONTAINER_DEBUG_LEVEL > 0
; 1510 :         _STL_VERIFY(
; 1511 :             _Pos < static_cast<size_type>(_My_data._Mylast - _My_data._Myfirst), "vector subscript out of range");
; 1512 : #endif // _CONTAINER_DEBUG_LEVEL > 0
; 1513 : 
; 1514 :         return _My_data._Myfirst[_Pos];

  007bc	8b 45 68	 mov	 eax, DWORD PTR _ulVectorGradientColornum$[ebp]
  007bf	c1 e0 05	 shl	 eax, 5
  007c2	8b 8d a4 fe ff
	ff		 mov	 ecx, DWORD PTR __My_data$106[ebp]
  007c8	03 01		 add	 eax, DWORD PTR [ecx]
  007ca	89 85 94 fe ff
	ff		 mov	 DWORD PTR $T102[ebp], eax

; 1508 :         auto& _My_data = _Mypair._Myval2;

  007d0	8b 45 78	 mov	 eax, DWORD PTR _c_rNextColorVector$[ebp]
  007d3	89 85 a0 fe ff
	ff		 mov	 DWORD PTR __My_data$105[ebp], eax

; 1509 : #if _CONTAINER_DEBUG_LEVEL > 0
; 1510 :         _STL_VERIFY(
; 1511 :             _Pos < static_cast<size_type>(_My_data._Mylast - _My_data._Myfirst), "vector subscript out of range");
; 1512 : #endif // _CONTAINER_DEBUG_LEVEL > 0
; 1513 : 
; 1514 :         return _My_data._Myfirst[_Pos];

  007d9	8b 45 68	 mov	 eax, DWORD PTR _ulVectorGradientColornum$[ebp]
  007dc	c1 e0 05	 shl	 eax, 5
  007df	8b 8d a0 fe ff
	ff		 mov	 ecx, DWORD PTR __My_data$105[ebp]
  007e5	03 01		 add	 eax, DWORD PTR [ecx]
  007e7	89 85 90 fe ff
	ff		 mov	 DWORD PTR $T101[ebp], eax

; 1508 :         auto& _My_data = _Mypair._Myval2;

  007ed	8b 45 78	 mov	 eax, DWORD PTR _c_rNextColorVector$[ebp]
  007f0	89 85 9c fe ff
	ff		 mov	 DWORD PTR __My_data$104[ebp], eax

; 1509 : #if _CONTAINER_DEBUG_LEVEL > 0
; 1510 :         _STL_VERIFY(
; 1511 :             _Pos < static_cast<size_type>(_My_data._Mylast - _My_data._Myfirst), "vector subscript out of range");
; 1512 : #endif // _CONTAINER_DEBUG_LEVEL > 0
; 1513 : 
; 1514 :         return _My_data._Myfirst[_Pos];

  007f6	8b 45 68	 mov	 eax, DWORD PTR _ulVectorGradientColornum$[ebp]
  007f9	c1 e0 05	 shl	 eax, 5
  007fc	8b 8d 9c fe ff
	ff		 mov	 ecx, DWORD PTR __My_data$104[ebp]
  00802	03 01		 add	 eax, DWORD PTR [ecx]
  00804	89 85 8c fe ff
	ff		 mov	 DWORD PTR $T100[ebp], eax
; File D:\Metin2 Server Files\mainline\SRC_2014\Metin2Client\EterLib\SkyBox.cpp

; 699  : 		aSkyObjectQuad.SetTransition(1,

  0080a	ff 75 7c	 push	 DWORD PTR _lTransitionTime$[ebp]
  0080d	8b 85 98 fe ff
	ff		 mov	 eax, DWORD PTR $T103[ebp]
  00813	83 c0 0c	 add	 eax, 12			; 0000000cH
  00816	50		 push	 eax
  00817	8b 85 94 fe ff
	ff		 mov	 eax, DWORD PTR $T102[ebp]
  0081d	83 c0 08	 add	 eax, 8
  00820	50		 push	 eax
  00821	8b 85 90 fe ff
	ff		 mov	 eax, DWORD PTR $T101[ebp]
  00827	83 c0 04	 add	 eax, 4
  0082a	50		 push	 eax
  0082b	ff b5 8c fe ff
	ff		 push	 DWORD PTR $T100[ebp]
  00831	8d 45 4d	 lea	 eax, DWORD PTR $T222[ebp]
  00834	50		 push	 eax
  00835	8b 4d 58	 mov	 ecx, DWORD PTR _aSkyObjectQuad$230[ebp]
  00838	e8 00 00 00 00	 call	 ?SetTransition@CSkyObjectQuad@@QAEXABEABM111K@Z ; CSkyObjectQuad::SetTransition

; 705  : 		aSkyObjectQuad.SetSrcColor(2,

  0083d	c6 45 4c 02	 mov	 BYTE PTR $T221[ebp], 2
; File C:\Program Files (x86)\Microsoft Visual Studio\2019\Community\VC\Tools\MSVC\14.28.29333\include\vector

; 1508 :         auto& _My_data = _Mypair._Myval2;

  00841	8b 45 74	 mov	 eax, DWORD PTR _c_rColorVector$[ebp]
  00844	89 85 88 fe ff
	ff		 mov	 DWORD PTR __My_data$99[ebp], eax

; 1509 : #if _CONTAINER_DEBUG_LEVEL > 0
; 1510 :         _STL_VERIFY(
; 1511 :             _Pos < static_cast<size_type>(_My_data._Mylast - _My_data._Myfirst), "vector subscript out of range");
; 1512 : #endif // _CONTAINER_DEBUG_LEVEL > 0
; 1513 : 
; 1514 :         return _My_data._Myfirst[_Pos];

  0084a	8b 45 68	 mov	 eax, DWORD PTR _ulVectorGradientColornum$[ebp]
  0084d	c1 e0 05	 shl	 eax, 5
  00850	8b 8d 88 fe ff
	ff		 mov	 ecx, DWORD PTR __My_data$99[ebp]
  00856	03 01		 add	 eax, DWORD PTR [ecx]
  00858	89 85 78 fe ff
	ff		 mov	 DWORD PTR $T95[ebp], eax

; 1508 :         auto& _My_data = _Mypair._Myval2;

  0085e	8b 45 74	 mov	 eax, DWORD PTR _c_rColorVector$[ebp]
  00861	89 85 84 fe ff
	ff		 mov	 DWORD PTR __My_data$98[ebp], eax

; 1509 : #if _CONTAINER_DEBUG_LEVEL > 0
; 1510 :         _STL_VERIFY(
; 1511 :             _Pos < static_cast<size_type>(_My_data._Mylast - _My_data._Myfirst), "vector subscript out of range");
; 1512 : #endif // _CONTAINER_DEBUG_LEVEL > 0
; 1513 : 
; 1514 :         return _My_data._Myfirst[_Pos];

  00867	8b 45 68	 mov	 eax, DWORD PTR _ulVectorGradientColornum$[ebp]
  0086a	c1 e0 05	 shl	 eax, 5
  0086d	8b 8d 84 fe ff
	ff		 mov	 ecx, DWORD PTR __My_data$98[ebp]
  00873	03 01		 add	 eax, DWORD PTR [ecx]
  00875	89 85 74 fe ff
	ff		 mov	 DWORD PTR $T94[ebp], eax

; 1508 :         auto& _My_data = _Mypair._Myval2;

  0087b	8b 45 74	 mov	 eax, DWORD PTR _c_rColorVector$[ebp]
  0087e	89 85 80 fe ff
	ff		 mov	 DWORD PTR __My_data$97[ebp], eax

; 1509 : #if _CONTAINER_DEBUG_LEVEL > 0
; 1510 :         _STL_VERIFY(
; 1511 :             _Pos < static_cast<size_type>(_My_data._Mylast - _My_data._Myfirst), "vector subscript out of range");
; 1512 : #endif // _CONTAINER_DEBUG_LEVEL > 0
; 1513 : 
; 1514 :         return _My_data._Myfirst[_Pos];

  00884	8b 45 68	 mov	 eax, DWORD PTR _ulVectorGradientColornum$[ebp]
  00887	c1 e0 05	 shl	 eax, 5
  0088a	8b 8d 80 fe ff
	ff		 mov	 ecx, DWORD PTR __My_data$97[ebp]
  00890	03 01		 add	 eax, DWORD PTR [ecx]
  00892	89 85 70 fe ff
	ff		 mov	 DWORD PTR $T93[ebp], eax

; 1508 :         auto& _My_data = _Mypair._Myval2;

  00898	8b 45 74	 mov	 eax, DWORD PTR _c_rColorVector$[ebp]
  0089b	89 85 7c fe ff
	ff		 mov	 DWORD PTR __My_data$96[ebp], eax

; 1509 : #if _CONTAINER_DEBUG_LEVEL > 0
; 1510 :         _STL_VERIFY(
; 1511 :             _Pos < static_cast<size_type>(_My_data._Mylast - _My_data._Myfirst), "vector subscript out of range");
; 1512 : #endif // _CONTAINER_DEBUG_LEVEL > 0
; 1513 : 
; 1514 :         return _My_data._Myfirst[_Pos];

  008a1	8b 45 68	 mov	 eax, DWORD PTR _ulVectorGradientColornum$[ebp]
  008a4	c1 e0 05	 shl	 eax, 5
  008a7	8b 8d 7c fe ff
	ff		 mov	 ecx, DWORD PTR __My_data$96[ebp]
  008ad	03 01		 add	 eax, DWORD PTR [ecx]
  008af	89 85 6c fe ff
	ff		 mov	 DWORD PTR $T92[ebp], eax
; File D:\Metin2 Server Files\mainline\SRC_2014\Metin2Client\EterLib\SkyBox.cpp

; 705  : 		aSkyObjectQuad.SetSrcColor(2,

  008b5	8b 85 78 fe ff
	ff		 mov	 eax, DWORD PTR $T95[ebp]
  008bb	83 c0 0c	 add	 eax, 12			; 0000000cH
  008be	50		 push	 eax
  008bf	8b 85 74 fe ff
	ff		 mov	 eax, DWORD PTR $T94[ebp]
  008c5	83 c0 08	 add	 eax, 8
  008c8	50		 push	 eax
  008c9	8b 85 70 fe ff
	ff		 mov	 eax, DWORD PTR $T93[ebp]
  008cf	83 c0 04	 add	 eax, 4
  008d2	50		 push	 eax
  008d3	ff b5 6c fe ff
	ff		 push	 DWORD PTR $T92[ebp]
  008d9	8d 45 4c	 lea	 eax, DWORD PTR $T221[ebp]
  008dc	50		 push	 eax
  008dd	8b 4d 58	 mov	 ecx, DWORD PTR _aSkyObjectQuad$230[ebp]
  008e0	e8 00 00 00 00	 call	 ?SetSrcColor@CSkyObjectQuad@@QAEXABEABM111@Z ; CSkyObjectQuad::SetSrcColor

; 710  : 		aSkyObjectQuad.SetTransition(2,

  008e5	c6 45 4b 02	 mov	 BYTE PTR $T220[ebp], 2
; File C:\Program Files (x86)\Microsoft Visual Studio\2019\Community\VC\Tools\MSVC\14.28.29333\include\vector

; 1508 :         auto& _My_data = _Mypair._Myval2;

  008e9	8b 45 78	 mov	 eax, DWORD PTR _c_rNextColorVector$[ebp]
  008ec	89 85 68 fe ff
	ff		 mov	 DWORD PTR __My_data$91[ebp], eax

; 1509 : #if _CONTAINER_DEBUG_LEVEL > 0
; 1510 :         _STL_VERIFY(
; 1511 :             _Pos < static_cast<size_type>(_My_data._Mylast - _My_data._Myfirst), "vector subscript out of range");
; 1512 : #endif // _CONTAINER_DEBUG_LEVEL > 0
; 1513 : 
; 1514 :         return _My_data._Myfirst[_Pos];

  008f2	8b 45 68	 mov	 eax, DWORD PTR _ulVectorGradientColornum$[ebp]
  008f5	c1 e0 05	 shl	 eax, 5
  008f8	8b 8d 68 fe ff
	ff		 mov	 ecx, DWORD PTR __My_data$91[ebp]
  008fe	03 01		 add	 eax, DWORD PTR [ecx]
  00900	89 85 58 fe ff
	ff		 mov	 DWORD PTR $T87[ebp], eax

; 1508 :         auto& _My_data = _Mypair._Myval2;

  00906	8b 45 78	 mov	 eax, DWORD PTR _c_rNextColorVector$[ebp]
  00909	89 85 64 fe ff
	ff		 mov	 DWORD PTR __My_data$90[ebp], eax

; 1509 : #if _CONTAINER_DEBUG_LEVEL > 0
; 1510 :         _STL_VERIFY(
; 1511 :             _Pos < static_cast<size_type>(_My_data._Mylast - _My_data._Myfirst), "vector subscript out of range");
; 1512 : #endif // _CONTAINER_DEBUG_LEVEL > 0
; 1513 : 
; 1514 :         return _My_data._Myfirst[_Pos];

  0090f	8b 45 68	 mov	 eax, DWORD PTR _ulVectorGradientColornum$[ebp]
  00912	c1 e0 05	 shl	 eax, 5
  00915	8b 8d 64 fe ff
	ff		 mov	 ecx, DWORD PTR __My_data$90[ebp]
  0091b	03 01		 add	 eax, DWORD PTR [ecx]
  0091d	89 85 54 fe ff
	ff		 mov	 DWORD PTR $T86[ebp], eax

; 1508 :         auto& _My_data = _Mypair._Myval2;

  00923	8b 45 78	 mov	 eax, DWORD PTR _c_rNextColorVector$[ebp]
  00926	89 85 60 fe ff
	ff		 mov	 DWORD PTR __My_data$89[ebp], eax

; 1509 : #if _CONTAINER_DEBUG_LEVEL > 0
; 1510 :         _STL_VERIFY(
; 1511 :             _Pos < static_cast<size_type>(_My_data._Mylast - _My_data._Myfirst), "vector subscript out of range");
; 1512 : #endif // _CONTAINER_DEBUG_LEVEL > 0
; 1513 : 
; 1514 :         return _My_data._Myfirst[_Pos];

  0092c	8b 45 68	 mov	 eax, DWORD PTR _ulVectorGradientColornum$[ebp]
  0092f	c1 e0 05	 shl	 eax, 5
  00932	8b 8d 60 fe ff
	ff		 mov	 ecx, DWORD PTR __My_data$89[ebp]
  00938	03 01		 add	 eax, DWORD PTR [ecx]
  0093a	89 85 50 fe ff
	ff		 mov	 DWORD PTR $T85[ebp], eax

; 1508 :         auto& _My_data = _Mypair._Myval2;

  00940	8b 45 78	 mov	 eax, DWORD PTR _c_rNextColorVector$[ebp]
  00943	89 85 5c fe ff
	ff		 mov	 DWORD PTR __My_data$88[ebp], eax

; 1509 : #if _CONTAINER_DEBUG_LEVEL > 0
; 1510 :         _STL_VERIFY(
; 1511 :             _Pos < static_cast<size_type>(_My_data._Mylast - _My_data._Myfirst), "vector subscript out of range");
; 1512 : #endif // _CONTAINER_DEBUG_LEVEL > 0
; 1513 : 
; 1514 :         return _My_data._Myfirst[_Pos];

  00949	8b 45 68	 mov	 eax, DWORD PTR _ulVectorGradientColornum$[ebp]
  0094c	c1 e0 05	 shl	 eax, 5
  0094f	8b 8d 5c fe ff
	ff		 mov	 ecx, DWORD PTR __My_data$88[ebp]
  00955	03 01		 add	 eax, DWORD PTR [ecx]
  00957	89 85 4c fe ff
	ff		 mov	 DWORD PTR $T84[ebp], eax
; File D:\Metin2 Server Files\mainline\SRC_2014\Metin2Client\EterLib\SkyBox.cpp

; 710  : 		aSkyObjectQuad.SetTransition(2,

  0095d	ff 75 7c	 push	 DWORD PTR _lTransitionTime$[ebp]
  00960	8b 85 58 fe ff
	ff		 mov	 eax, DWORD PTR $T87[ebp]
  00966	83 c0 0c	 add	 eax, 12			; 0000000cH
  00969	50		 push	 eax
  0096a	8b 85 54 fe ff
	ff		 mov	 eax, DWORD PTR $T86[ebp]
  00970	83 c0 08	 add	 eax, 8
  00973	50		 push	 eax
  00974	8b 85 50 fe ff
	ff		 mov	 eax, DWORD PTR $T85[ebp]
  0097a	83 c0 04	 add	 eax, 4
  0097d	50		 push	 eax
  0097e	ff b5 4c fe ff
	ff		 push	 DWORD PTR $T84[ebp]
  00984	8d 45 4b	 lea	 eax, DWORD PTR $T220[ebp]
  00987	50		 push	 eax
  00988	8b 4d 58	 mov	 ecx, DWORD PTR _aSkyObjectQuad$230[ebp]
  0098b	e8 00 00 00 00	 call	 ?SetTransition@CSkyObjectQuad@@QAEXABEABM111K@Z ; CSkyObjectQuad::SetTransition

; 716  : 		aSkyObjectQuad.SetSrcColor(3,

  00990	c6 45 4a 03	 mov	 BYTE PTR $T219[ebp], 3
; File C:\Program Files (x86)\Microsoft Visual Studio\2019\Community\VC\Tools\MSVC\14.28.29333\include\vector

; 1508 :         auto& _My_data = _Mypair._Myval2;

  00994	8b 45 74	 mov	 eax, DWORD PTR _c_rColorVector$[ebp]
  00997	89 85 48 fe ff
	ff		 mov	 DWORD PTR __My_data$83[ebp], eax

; 1509 : #if _CONTAINER_DEBUG_LEVEL > 0
; 1510 :         _STL_VERIFY(
; 1511 :             _Pos < static_cast<size_type>(_My_data._Mylast - _My_data._Myfirst), "vector subscript out of range");
; 1512 : #endif // _CONTAINER_DEBUG_LEVEL > 0
; 1513 : 
; 1514 :         return _My_data._Myfirst[_Pos];

  0099d	8b 45 68	 mov	 eax, DWORD PTR _ulVectorGradientColornum$[ebp]
  009a0	c1 e0 05	 shl	 eax, 5
  009a3	8b 8d 48 fe ff
	ff		 mov	 ecx, DWORD PTR __My_data$83[ebp]
  009a9	03 01		 add	 eax, DWORD PTR [ecx]
  009ab	89 85 38 fe ff
	ff		 mov	 DWORD PTR $T79[ebp], eax

; 1508 :         auto& _My_data = _Mypair._Myval2;

  009b1	8b 45 74	 mov	 eax, DWORD PTR _c_rColorVector$[ebp]
  009b4	89 85 44 fe ff
	ff		 mov	 DWORD PTR __My_data$82[ebp], eax

; 1509 : #if _CONTAINER_DEBUG_LEVEL > 0
; 1510 :         _STL_VERIFY(
; 1511 :             _Pos < static_cast<size_type>(_My_data._Mylast - _My_data._Myfirst), "vector subscript out of range");
; 1512 : #endif // _CONTAINER_DEBUG_LEVEL > 0
; 1513 : 
; 1514 :         return _My_data._Myfirst[_Pos];

  009ba	8b 45 68	 mov	 eax, DWORD PTR _ulVectorGradientColornum$[ebp]
  009bd	c1 e0 05	 shl	 eax, 5
  009c0	8b 8d 44 fe ff
	ff		 mov	 ecx, DWORD PTR __My_data$82[ebp]
  009c6	03 01		 add	 eax, DWORD PTR [ecx]
  009c8	89 85 34 fe ff
	ff		 mov	 DWORD PTR $T78[ebp], eax

; 1508 :         auto& _My_data = _Mypair._Myval2;

  009ce	8b 45 74	 mov	 eax, DWORD PTR _c_rColorVector$[ebp]
  009d1	89 85 40 fe ff
	ff		 mov	 DWORD PTR __My_data$81[ebp], eax

; 1509 : #if _CONTAINER_DEBUG_LEVEL > 0
; 1510 :         _STL_VERIFY(
; 1511 :             _Pos < static_cast<size_type>(_My_data._Mylast - _My_data._Myfirst), "vector subscript out of range");
; 1512 : #endif // _CONTAINER_DEBUG_LEVEL > 0
; 1513 : 
; 1514 :         return _My_data._Myfirst[_Pos];

  009d7	8b 45 68	 mov	 eax, DWORD PTR _ulVectorGradientColornum$[ebp]
  009da	c1 e0 05	 shl	 eax, 5
  009dd	8b 8d 40 fe ff
	ff		 mov	 ecx, DWORD PTR __My_data$81[ebp]
  009e3	03 01		 add	 eax, DWORD PTR [ecx]
  009e5	89 85 30 fe ff
	ff		 mov	 DWORD PTR $T77[ebp], eax

; 1508 :         auto& _My_data = _Mypair._Myval2;

  009eb	8b 45 74	 mov	 eax, DWORD PTR _c_rColorVector$[ebp]
  009ee	89 85 3c fe ff
	ff		 mov	 DWORD PTR __My_data$80[ebp], eax

; 1509 : #if _CONTAINER_DEBUG_LEVEL > 0
; 1510 :         _STL_VERIFY(
; 1511 :             _Pos < static_cast<size_type>(_My_data._Mylast - _My_data._Myfirst), "vector subscript out of range");
; 1512 : #endif // _CONTAINER_DEBUG_LEVEL > 0
; 1513 : 
; 1514 :         return _My_data._Myfirst[_Pos];

  009f4	8b 45 68	 mov	 eax, DWORD PTR _ulVectorGradientColornum$[ebp]
  009f7	c1 e0 05	 shl	 eax, 5
  009fa	8b 8d 3c fe ff
	ff		 mov	 ecx, DWORD PTR __My_data$80[ebp]
  00a00	03 01		 add	 eax, DWORD PTR [ecx]
  00a02	89 85 2c fe ff
	ff		 mov	 DWORD PTR $T76[ebp], eax
; File D:\Metin2 Server Files\mainline\SRC_2014\Metin2Client\EterLib\SkyBox.cpp

; 716  : 		aSkyObjectQuad.SetSrcColor(3,

  00a08	8b 85 38 fe ff
	ff		 mov	 eax, DWORD PTR $T79[ebp]
  00a0e	83 c0 0c	 add	 eax, 12			; 0000000cH
  00a11	50		 push	 eax
  00a12	8b 85 34 fe ff
	ff		 mov	 eax, DWORD PTR $T78[ebp]
  00a18	83 c0 08	 add	 eax, 8
  00a1b	50		 push	 eax
  00a1c	8b 85 30 fe ff
	ff		 mov	 eax, DWORD PTR $T77[ebp]
  00a22	83 c0 04	 add	 eax, 4
  00a25	50		 push	 eax
  00a26	ff b5 2c fe ff
	ff		 push	 DWORD PTR $T76[ebp]
  00a2c	8d 45 4a	 lea	 eax, DWORD PTR $T219[ebp]
  00a2f	50		 push	 eax
  00a30	8b 4d 58	 mov	 ecx, DWORD PTR _aSkyObjectQuad$230[ebp]
  00a33	e8 00 00 00 00	 call	 ?SetSrcColor@CSkyObjectQuad@@QAEXABEABM111@Z ; CSkyObjectQuad::SetSrcColor

; 721  : 		aSkyObjectQuad.SetTransition(3,

  00a38	c6 45 49 03	 mov	 BYTE PTR $T218[ebp], 3
; File C:\Program Files (x86)\Microsoft Visual Studio\2019\Community\VC\Tools\MSVC\14.28.29333\include\vector

; 1508 :         auto& _My_data = _Mypair._Myval2;

  00a3c	8b 45 78	 mov	 eax, DWORD PTR _c_rNextColorVector$[ebp]
  00a3f	89 85 28 fe ff
	ff		 mov	 DWORD PTR __My_data$75[ebp], eax

; 1509 : #if _CONTAINER_DEBUG_LEVEL > 0
; 1510 :         _STL_VERIFY(
; 1511 :             _Pos < static_cast<size_type>(_My_data._Mylast - _My_data._Myfirst), "vector subscript out of range");
; 1512 : #endif // _CONTAINER_DEBUG_LEVEL > 0
; 1513 : 
; 1514 :         return _My_data._Myfirst[_Pos];

  00a45	8b 45 68	 mov	 eax, DWORD PTR _ulVectorGradientColornum$[ebp]
  00a48	c1 e0 05	 shl	 eax, 5
  00a4b	8b 8d 28 fe ff
	ff		 mov	 ecx, DWORD PTR __My_data$75[ebp]
  00a51	03 01		 add	 eax, DWORD PTR [ecx]
  00a53	89 85 18 fe ff
	ff		 mov	 DWORD PTR $T71[ebp], eax

; 1508 :         auto& _My_data = _Mypair._Myval2;

  00a59	8b 45 78	 mov	 eax, DWORD PTR _c_rNextColorVector$[ebp]
  00a5c	89 85 24 fe ff
	ff		 mov	 DWORD PTR __My_data$74[ebp], eax

; 1509 : #if _CONTAINER_DEBUG_LEVEL > 0
; 1510 :         _STL_VERIFY(
; 1511 :             _Pos < static_cast<size_type>(_My_data._Mylast - _My_data._Myfirst), "vector subscript out of range");
; 1512 : #endif // _CONTAINER_DEBUG_LEVEL > 0
; 1513 : 
; 1514 :         return _My_data._Myfirst[_Pos];

  00a62	8b 45 68	 mov	 eax, DWORD PTR _ulVectorGradientColornum$[ebp]
  00a65	c1 e0 05	 shl	 eax, 5
  00a68	8b 8d 24 fe ff
	ff		 mov	 ecx, DWORD PTR __My_data$74[ebp]
  00a6e	03 01		 add	 eax, DWORD PTR [ecx]
  00a70	89 85 14 fe ff
	ff		 mov	 DWORD PTR $T70[ebp], eax

; 1508 :         auto& _My_data = _Mypair._Myval2;

  00a76	8b 45 78	 mov	 eax, DWORD PTR _c_rNextColorVector$[ebp]
  00a79	89 85 20 fe ff
	ff		 mov	 DWORD PTR __My_data$73[ebp], eax

; 1509 : #if _CONTAINER_DEBUG_LEVEL > 0
; 1510 :         _STL_VERIFY(
; 1511 :             _Pos < static_cast<size_type>(_My_data._Mylast - _My_data._Myfirst), "vector subscript out of range");
; 1512 : #endif // _CONTAINER_DEBUG_LEVEL > 0
; 1513 : 
; 1514 :         return _My_data._Myfirst[_Pos];

  00a7f	8b 45 68	 mov	 eax, DWORD PTR _ulVectorGradientColornum$[ebp]
  00a82	c1 e0 05	 shl	 eax, 5
  00a85	8b 8d 20 fe ff
	ff		 mov	 ecx, DWORD PTR __My_data$73[ebp]
  00a8b	03 01		 add	 eax, DWORD PTR [ecx]
  00a8d	89 85 10 fe ff
	ff		 mov	 DWORD PTR $T69[ebp], eax

; 1508 :         auto& _My_data = _Mypair._Myval2;

  00a93	8b 45 78	 mov	 eax, DWORD PTR _c_rNextColorVector$[ebp]
  00a96	89 85 1c fe ff
	ff		 mov	 DWORD PTR __My_data$72[ebp], eax

; 1509 : #if _CONTAINER_DEBUG_LEVEL > 0
; 1510 :         _STL_VERIFY(
; 1511 :             _Pos < static_cast<size_type>(_My_data._Mylast - _My_data._Myfirst), "vector subscript out of range");
; 1512 : #endif // _CONTAINER_DEBUG_LEVEL > 0
; 1513 : 
; 1514 :         return _My_data._Myfirst[_Pos];

  00a9c	8b 45 68	 mov	 eax, DWORD PTR _ulVectorGradientColornum$[ebp]
  00a9f	c1 e0 05	 shl	 eax, 5
  00aa2	8b 8d 1c fe ff
	ff		 mov	 ecx, DWORD PTR __My_data$72[ebp]
  00aa8	03 01		 add	 eax, DWORD PTR [ecx]
  00aaa	89 85 0c fe ff
	ff		 mov	 DWORD PTR $T68[ebp], eax
; File D:\Metin2 Server Files\mainline\SRC_2014\Metin2Client\EterLib\SkyBox.cpp

; 721  : 		aSkyObjectQuad.SetTransition(3,

  00ab0	ff 75 7c	 push	 DWORD PTR _lTransitionTime$[ebp]
  00ab3	8b 85 18 fe ff
	ff		 mov	 eax, DWORD PTR $T71[ebp]
  00ab9	83 c0 0c	 add	 eax, 12			; 0000000cH
  00abc	50		 push	 eax
  00abd	8b 85 14 fe ff
	ff		 mov	 eax, DWORD PTR $T70[ebp]
  00ac3	83 c0 08	 add	 eax, 8
  00ac6	50		 push	 eax
  00ac7	8b 85 10 fe ff
	ff		 mov	 eax, DWORD PTR $T69[ebp]
  00acd	83 c0 04	 add	 eax, 4
  00ad0	50		 push	 eax
  00ad1	ff b5 0c fe ff
	ff		 push	 DWORD PTR $T68[ebp]
  00ad7	8d 45 49	 lea	 eax, DWORD PTR $T218[ebp]
  00ada	50		 push	 eax
  00adb	8b 4d 58	 mov	 ecx, DWORD PTR _aSkyObjectQuad$230[ebp]
  00ade	e8 00 00 00 00	 call	 ?SetTransition@CSkyObjectQuad@@QAEXABEABM111K@Z ; CSkyObjectQuad::SetTransition

; 722  : 			c_rNextColorVector[ulVectorGradientColornum].m_FirstColor.r,
; 723  : 			c_rNextColorVector[ulVectorGradientColornum].m_FirstColor.g,
; 724  : 			c_rNextColorVector[ulVectorGradientColornum].m_FirstColor.b,
; 725  : 			c_rNextColorVector[ulVectorGradientColornum].m_FirstColor.a,
; 726  : 			lTransitionTime);
; 727  : 	}

  00ae3	e9 59 fa ff ff	 jmp	 $LN8@SetSkyColo
$LN9@SetSkyColo:

; 728  : 	TSkyObjectFace & aFaceBottom = m_Faces[5];

  00ae8	6a 3c		 push	 60			; 0000003cH
  00aea	58		 pop	 eax
  00aeb	6b c0 05	 imul	 eax, eax, 5
  00aee	8b 4d 38	 mov	 ecx, DWORD PTR _this$[ebp]
  00af1	8d 84 01 18 02
	00 00		 lea	 eax, DWORD PTR [ecx+eax+536]
  00af8	89 45 1c	 mov	 DWORD PTR _aFaceBottom$[ebp], eax
; File C:\Program Files (x86)\Microsoft Visual Studio\2019\Community\VC\Tools\MSVC\14.28.29333\include\vector

; 1483 :         auto& _My_data = _Mypair._Myval2;

  00afb	8b 45 74	 mov	 eax, DWORD PTR _c_rColorVector$[ebp]
  00afe	89 45 24	 mov	 DWORD PTR __My_data$201[ebp], eax

; 1484 :         return static_cast<size_type>(_My_data._Mylast - _My_data._Myfirst);

  00b01	8b 45 24	 mov	 eax, DWORD PTR __My_data$201[ebp]
  00b04	8b 4d 24	 mov	 ecx, DWORD PTR __My_data$201[ebp]
  00b07	8b 40 04	 mov	 eax, DWORD PTR [eax+4]
  00b0a	2b 01		 sub	 eax, DWORD PTR [ecx]
  00b0c	c1 f8 05	 sar	 eax, 5
  00b0f	89 85 08 fe ff
	ff		 mov	 DWORD PTR $T67[ebp], eax
; File D:\Metin2 Server Files\mainline\SRC_2014\Metin2Client\EterLib\SkyBox.cpp

; 729  : 	ulVectorGradientColornum = c_rColorVector.size() - 1;

  00b15	8b 85 08 fe ff
	ff		 mov	 eax, DWORD PTR $T67[ebp]
  00b1b	48		 dec	 eax
  00b1c	89 45 68	 mov	 DWORD PTR _ulVectorGradientColornum$[ebp], eax

; 730  : 	for (uck = 0; uck < aFaceBottom.m_SkyObjectQuadVector.size(); ++uck)

  00b1f	83 65 60 00	 and	 DWORD PTR _uck$[ebp], 0
  00b23	eb 07		 jmp	 SHORT $LN13@SetSkyColo
$LN11@SetSkyColo:
  00b25	8b 45 60	 mov	 eax, DWORD PTR _uck$[ebp]
  00b28	40		 inc	 eax
  00b29	89 45 60	 mov	 DWORD PTR _uck$[ebp], eax
$LN13@SetSkyColo:
; File C:\Program Files (x86)\Microsoft Visual Studio\2019\Community\VC\Tools\MSVC\14.28.29333\include\vector

; 1483 :         auto& _My_data = _Mypair._Myval2;

  00b2c	8b 45 1c	 mov	 eax, DWORD PTR _aFaceBottom$[ebp]
  00b2f	83 c0 30	 add	 eax, 48			; 00000030H
  00b32	89 45 20	 mov	 DWORD PTR __My_data$200[ebp], eax

; 1484 :         return static_cast<size_type>(_My_data._Mylast - _My_data._Myfirst);

  00b35	8b 45 20	 mov	 eax, DWORD PTR __My_data$200[ebp]
  00b38	8b 4d 20	 mov	 ecx, DWORD PTR __My_data$200[ebp]
  00b3b	8b 40 04	 mov	 eax, DWORD PTR [eax+4]
  00b3e	2b 01		 sub	 eax, DWORD PTR [ecx]
  00b40	99		 cdq
  00b41	b9 2c 01 00 00	 mov	 ecx, 300		; 0000012cH
  00b46	f7 f9		 idiv	 ecx
  00b48	89 85 04 fe ff
	ff		 mov	 DWORD PTR $T66[ebp], eax
; File D:\Metin2 Server Files\mainline\SRC_2014\Metin2Client\EterLib\SkyBox.cpp

; 730  : 	for (uck = 0; uck < aFaceBottom.m_SkyObjectQuadVector.size(); ++uck)

  00b4e	8b 45 60	 mov	 eax, DWORD PTR _uck$[ebp]
  00b51	3b 85 04 fe ff
	ff		 cmp	 eax, DWORD PTR $T66[ebp]
  00b57	0f 83 8f 05 00
	00		 jae	 $LN1@SetSkyColo
; File C:\Program Files (x86)\Microsoft Visual Studio\2019\Community\VC\Tools\MSVC\14.28.29333\include\vector

; 1498 :         auto& _My_data = _Mypair._Myval2;

  00b5d	8b 45 1c	 mov	 eax, DWORD PTR _aFaceBottom$[ebp]
  00b60	83 c0 30	 add	 eax, 48			; 00000030H
  00b63	89 85 00 fe ff
	ff		 mov	 DWORD PTR __My_data$65[ebp], eax

; 1499 : #if _CONTAINER_DEBUG_LEVEL > 0
; 1500 :         _STL_VERIFY(
; 1501 :             _Pos < static_cast<size_type>(_My_data._Mylast - _My_data._Myfirst), "vector subscript out of range");
; 1502 : #endif // _CONTAINER_DEBUG_LEVEL > 0
; 1503 : 
; 1504 :         return _My_data._Myfirst[_Pos];

  00b69	69 45 60 2c 01
	00 00		 imul	 eax, DWORD PTR _uck$[ebp], 300
  00b70	8b 8d 00 fe ff
	ff		 mov	 ecx, DWORD PTR __My_data$65[ebp]
  00b76	03 01		 add	 eax, DWORD PTR [ecx]
  00b78	89 45 54	 mov	 DWORD PTR _aSkyObjectQuad$229[ebp], eax
; File D:\Metin2 Server Files\mainline\SRC_2014\Metin2Client\EterLib\SkyBox.cpp

; 734  : 		aSkyObjectQuad.SetSrcColor(0,

  00b7b	c6 45 48 00	 mov	 BYTE PTR $T217[ebp], 0
; File C:\Program Files (x86)\Microsoft Visual Studio\2019\Community\VC\Tools\MSVC\14.28.29333\include\vector

; 1508 :         auto& _My_data = _Mypair._Myval2;

  00b7f	8b 45 74	 mov	 eax, DWORD PTR _c_rColorVector$[ebp]
  00b82	89 85 fc fd ff
	ff		 mov	 DWORD PTR __My_data$64[ebp], eax

; 1509 : #if _CONTAINER_DEBUG_LEVEL > 0
; 1510 :         _STL_VERIFY(
; 1511 :             _Pos < static_cast<size_type>(_My_data._Mylast - _My_data._Myfirst), "vector subscript out of range");
; 1512 : #endif // _CONTAINER_DEBUG_LEVEL > 0
; 1513 : 
; 1514 :         return _My_data._Myfirst[_Pos];

  00b88	8b 45 68	 mov	 eax, DWORD PTR _ulVectorGradientColornum$[ebp]
  00b8b	c1 e0 05	 shl	 eax, 5
  00b8e	8b 8d fc fd ff
	ff		 mov	 ecx, DWORD PTR __My_data$64[ebp]
  00b94	03 01		 add	 eax, DWORD PTR [ecx]
  00b96	89 85 ec fd ff
	ff		 mov	 DWORD PTR $T60[ebp], eax

; 1508 :         auto& _My_data = _Mypair._Myval2;

  00b9c	8b 45 74	 mov	 eax, DWORD PTR _c_rColorVector$[ebp]
  00b9f	89 85 f8 fd ff
	ff		 mov	 DWORD PTR __My_data$63[ebp], eax

; 1509 : #if _CONTAINER_DEBUG_LEVEL > 0
; 1510 :         _STL_VERIFY(
; 1511 :             _Pos < static_cast<size_type>(_My_data._Mylast - _My_data._Myfirst), "vector subscript out of range");
; 1512 : #endif // _CONTAINER_DEBUG_LEVEL > 0
; 1513 : 
; 1514 :         return _My_data._Myfirst[_Pos];

  00ba5	8b 45 68	 mov	 eax, DWORD PTR _ulVectorGradientColornum$[ebp]
  00ba8	c1 e0 05	 shl	 eax, 5
  00bab	8b 8d f8 fd ff
	ff		 mov	 ecx, DWORD PTR __My_data$63[ebp]
  00bb1	03 01		 add	 eax, DWORD PTR [ecx]
  00bb3	89 85 e8 fd ff
	ff		 mov	 DWORD PTR $T59[ebp], eax

; 1508 :         auto& _My_data = _Mypair._Myval2;

  00bb9	8b 45 74	 mov	 eax, DWORD PTR _c_rColorVector$[ebp]
  00bbc	89 85 f4 fd ff
	ff		 mov	 DWORD PTR __My_data$62[ebp], eax

; 1509 : #if _CONTAINER_DEBUG_LEVEL > 0
; 1510 :         _STL_VERIFY(
; 1511 :             _Pos < static_cast<size_type>(_My_data._Mylast - _My_data._Myfirst), "vector subscript out of range");
; 1512 : #endif // _CONTAINER_DEBUG_LEVEL > 0
; 1513 : 
; 1514 :         return _My_data._Myfirst[_Pos];

  00bc2	8b 45 68	 mov	 eax, DWORD PTR _ulVectorGradientColornum$[ebp]
  00bc5	c1 e0 05	 shl	 eax, 5
  00bc8	8b 8d f4 fd ff
	ff		 mov	 ecx, DWORD PTR __My_data$62[ebp]
  00bce	03 01		 add	 eax, DWORD PTR [ecx]
  00bd0	89 85 e4 fd ff
	ff		 mov	 DWORD PTR $T58[ebp], eax

; 1508 :         auto& _My_data = _Mypair._Myval2;

  00bd6	8b 45 74	 mov	 eax, DWORD PTR _c_rColorVector$[ebp]
  00bd9	89 85 f0 fd ff
	ff		 mov	 DWORD PTR __My_data$61[ebp], eax

; 1509 : #if _CONTAINER_DEBUG_LEVEL > 0
; 1510 :         _STL_VERIFY(
; 1511 :             _Pos < static_cast<size_type>(_My_data._Mylast - _My_data._Myfirst), "vector subscript out of range");
; 1512 : #endif // _CONTAINER_DEBUG_LEVEL > 0
; 1513 : 
; 1514 :         return _My_data._Myfirst[_Pos];

  00bdf	8b 45 68	 mov	 eax, DWORD PTR _ulVectorGradientColornum$[ebp]
  00be2	c1 e0 05	 shl	 eax, 5
  00be5	8b 8d f0 fd ff
	ff		 mov	 ecx, DWORD PTR __My_data$61[ebp]
  00beb	03 01		 add	 eax, DWORD PTR [ecx]
  00bed	89 85 e0 fd ff
	ff		 mov	 DWORD PTR $T57[ebp], eax
; File D:\Metin2 Server Files\mainline\SRC_2014\Metin2Client\EterLib\SkyBox.cpp

; 734  : 		aSkyObjectQuad.SetSrcColor(0,

  00bf3	8b 85 ec fd ff
	ff		 mov	 eax, DWORD PTR $T60[ebp]
  00bf9	83 c0 1c	 add	 eax, 28			; 0000001cH
  00bfc	50		 push	 eax
  00bfd	8b 85 e8 fd ff
	ff		 mov	 eax, DWORD PTR $T59[ebp]
  00c03	83 c0 18	 add	 eax, 24			; 00000018H
  00c06	50		 push	 eax
  00c07	8b 85 e4 fd ff
	ff		 mov	 eax, DWORD PTR $T58[ebp]
  00c0d	83 c0 14	 add	 eax, 20			; 00000014H
  00c10	50		 push	 eax
  00c11	8b 85 e0 fd ff
	ff		 mov	 eax, DWORD PTR $T57[ebp]
  00c17	83 c0 10	 add	 eax, 16			; 00000010H
  00c1a	50		 push	 eax
  00c1b	8d 45 48	 lea	 eax, DWORD PTR $T217[ebp]
  00c1e	50		 push	 eax
  00c1f	8b 4d 54	 mov	 ecx, DWORD PTR _aSkyObjectQuad$229[ebp]
  00c22	e8 00 00 00 00	 call	 ?SetSrcColor@CSkyObjectQuad@@QAEXABEABM111@Z ; CSkyObjectQuad::SetSrcColor

; 739  : 		aSkyObjectQuad.SetTransition(0, 

  00c27	c6 45 47 00	 mov	 BYTE PTR $T216[ebp], 0
; File C:\Program Files (x86)\Microsoft Visual Studio\2019\Community\VC\Tools\MSVC\14.28.29333\include\vector

; 1508 :         auto& _My_data = _Mypair._Myval2;

  00c2b	8b 45 78	 mov	 eax, DWORD PTR _c_rNextColorVector$[ebp]
  00c2e	89 85 dc fd ff
	ff		 mov	 DWORD PTR __My_data$56[ebp], eax

; 1509 : #if _CONTAINER_DEBUG_LEVEL > 0
; 1510 :         _STL_VERIFY(
; 1511 :             _Pos < static_cast<size_type>(_My_data._Mylast - _My_data._Myfirst), "vector subscript out of range");
; 1512 : #endif // _CONTAINER_DEBUG_LEVEL > 0
; 1513 : 
; 1514 :         return _My_data._Myfirst[_Pos];

  00c34	8b 45 68	 mov	 eax, DWORD PTR _ulVectorGradientColornum$[ebp]
  00c37	c1 e0 05	 shl	 eax, 5
  00c3a	8b 8d dc fd ff
	ff		 mov	 ecx, DWORD PTR __My_data$56[ebp]
  00c40	03 01		 add	 eax, DWORD PTR [ecx]
  00c42	89 85 cc fd ff
	ff		 mov	 DWORD PTR $T52[ebp], eax

; 1508 :         auto& _My_data = _Mypair._Myval2;

  00c48	8b 45 78	 mov	 eax, DWORD PTR _c_rNextColorVector$[ebp]
  00c4b	89 85 d8 fd ff
	ff		 mov	 DWORD PTR __My_data$55[ebp], eax

; 1509 : #if _CONTAINER_DEBUG_LEVEL > 0
; 1510 :         _STL_VERIFY(
; 1511 :             _Pos < static_cast<size_type>(_My_data._Mylast - _My_data._Myfirst), "vector subscript out of range");
; 1512 : #endif // _CONTAINER_DEBUG_LEVEL > 0
; 1513 : 
; 1514 :         return _My_data._Myfirst[_Pos];

  00c51	8b 45 68	 mov	 eax, DWORD PTR _ulVectorGradientColornum$[ebp]
  00c54	c1 e0 05	 shl	 eax, 5
  00c57	8b 8d d8 fd ff
	ff		 mov	 ecx, DWORD PTR __My_data$55[ebp]
  00c5d	03 01		 add	 eax, DWORD PTR [ecx]
  00c5f	89 85 c8 fd ff
	ff		 mov	 DWORD PTR $T51[ebp], eax

; 1508 :         auto& _My_data = _Mypair._Myval2;

  00c65	8b 45 78	 mov	 eax, DWORD PTR _c_rNextColorVector$[ebp]
  00c68	89 85 d4 fd ff
	ff		 mov	 DWORD PTR __My_data$54[ebp], eax

; 1509 : #if _CONTAINER_DEBUG_LEVEL > 0
; 1510 :         _STL_VERIFY(
; 1511 :             _Pos < static_cast<size_type>(_My_data._Mylast - _My_data._Myfirst), "vector subscript out of range");
; 1512 : #endif // _CONTAINER_DEBUG_LEVEL > 0
; 1513 : 
; 1514 :         return _My_data._Myfirst[_Pos];

  00c6e	8b 45 68	 mov	 eax, DWORD PTR _ulVectorGradientColornum$[ebp]
  00c71	c1 e0 05	 shl	 eax, 5
  00c74	8b 8d d4 fd ff
	ff		 mov	 ecx, DWORD PTR __My_data$54[ebp]
  00c7a	03 01		 add	 eax, DWORD PTR [ecx]
  00c7c	89 85 c4 fd ff
	ff		 mov	 DWORD PTR $T50[ebp], eax

; 1508 :         auto& _My_data = _Mypair._Myval2;

  00c82	8b 45 78	 mov	 eax, DWORD PTR _c_rNextColorVector$[ebp]
  00c85	89 85 d0 fd ff
	ff		 mov	 DWORD PTR __My_data$53[ebp], eax

; 1509 : #if _CONTAINER_DEBUG_LEVEL > 0
; 1510 :         _STL_VERIFY(
; 1511 :             _Pos < static_cast<size_type>(_My_data._Mylast - _My_data._Myfirst), "vector subscript out of range");
; 1512 : #endif // _CONTAINER_DEBUG_LEVEL > 0
; 1513 : 
; 1514 :         return _My_data._Myfirst[_Pos];

  00c8b	8b 45 68	 mov	 eax, DWORD PTR _ulVectorGradientColornum$[ebp]
  00c8e	c1 e0 05	 shl	 eax, 5
  00c91	8b 8d d0 fd ff
	ff		 mov	 ecx, DWORD PTR __My_data$53[ebp]
  00c97	03 01		 add	 eax, DWORD PTR [ecx]
  00c99	89 85 c0 fd ff
	ff		 mov	 DWORD PTR $T49[ebp], eax
; File D:\Metin2 Server Files\mainline\SRC_2014\Metin2Client\EterLib\SkyBox.cpp

; 739  : 		aSkyObjectQuad.SetTransition(0, 

  00c9f	ff 75 7c	 push	 DWORD PTR _lTransitionTime$[ebp]
  00ca2	8b 85 cc fd ff
	ff		 mov	 eax, DWORD PTR $T52[ebp]
  00ca8	83 c0 1c	 add	 eax, 28			; 0000001cH
  00cab	50		 push	 eax
  00cac	8b 85 c8 fd ff
	ff		 mov	 eax, DWORD PTR $T51[ebp]
  00cb2	83 c0 18	 add	 eax, 24			; 00000018H
  00cb5	50		 push	 eax
  00cb6	8b 85 c4 fd ff
	ff		 mov	 eax, DWORD PTR $T50[ebp]
  00cbc	83 c0 14	 add	 eax, 20			; 00000014H
  00cbf	50		 push	 eax
  00cc0	8b 85 c0 fd ff
	ff		 mov	 eax, DWORD PTR $T49[ebp]
  00cc6	83 c0 10	 add	 eax, 16			; 00000010H
  00cc9	50		 push	 eax
  00cca	8d 45 47	 lea	 eax, DWORD PTR $T216[ebp]
  00ccd	50		 push	 eax
  00cce	8b 4d 54	 mov	 ecx, DWORD PTR _aSkyObjectQuad$229[ebp]
  00cd1	e8 00 00 00 00	 call	 ?SetTransition@CSkyObjectQuad@@QAEXABEABM111K@Z ; CSkyObjectQuad::SetTransition

; 745  : 		aSkyObjectQuad.SetSrcColor(1,

  00cd6	c6 45 46 01	 mov	 BYTE PTR $T215[ebp], 1
; File C:\Program Files (x86)\Microsoft Visual Studio\2019\Community\VC\Tools\MSVC\14.28.29333\include\vector

; 1508 :         auto& _My_data = _Mypair._Myval2;

  00cda	8b 45 74	 mov	 eax, DWORD PTR _c_rColorVector$[ebp]
  00cdd	89 85 bc fd ff
	ff		 mov	 DWORD PTR __My_data$48[ebp], eax

; 1509 : #if _CONTAINER_DEBUG_LEVEL > 0
; 1510 :         _STL_VERIFY(
; 1511 :             _Pos < static_cast<size_type>(_My_data._Mylast - _My_data._Myfirst), "vector subscript out of range");
; 1512 : #endif // _CONTAINER_DEBUG_LEVEL > 0
; 1513 : 
; 1514 :         return _My_data._Myfirst[_Pos];

  00ce3	8b 45 68	 mov	 eax, DWORD PTR _ulVectorGradientColornum$[ebp]
  00ce6	c1 e0 05	 shl	 eax, 5
  00ce9	8b 8d bc fd ff
	ff		 mov	 ecx, DWORD PTR __My_data$48[ebp]
  00cef	03 01		 add	 eax, DWORD PTR [ecx]
  00cf1	89 85 ac fd ff
	ff		 mov	 DWORD PTR $T44[ebp], eax

; 1508 :         auto& _My_data = _Mypair._Myval2;

  00cf7	8b 45 74	 mov	 eax, DWORD PTR _c_rColorVector$[ebp]
  00cfa	89 85 b8 fd ff
	ff		 mov	 DWORD PTR __My_data$47[ebp], eax

; 1509 : #if _CONTAINER_DEBUG_LEVEL > 0
; 1510 :         _STL_VERIFY(
; 1511 :             _Pos < static_cast<size_type>(_My_data._Mylast - _My_data._Myfirst), "vector subscript out of range");
; 1512 : #endif // _CONTAINER_DEBUG_LEVEL > 0
; 1513 : 
; 1514 :         return _My_data._Myfirst[_Pos];

  00d00	8b 45 68	 mov	 eax, DWORD PTR _ulVectorGradientColornum$[ebp]
  00d03	c1 e0 05	 shl	 eax, 5
  00d06	8b 8d b8 fd ff
	ff		 mov	 ecx, DWORD PTR __My_data$47[ebp]
  00d0c	03 01		 add	 eax, DWORD PTR [ecx]
  00d0e	89 85 a8 fd ff
	ff		 mov	 DWORD PTR $T43[ebp], eax

; 1508 :         auto& _My_data = _Mypair._Myval2;

  00d14	8b 45 74	 mov	 eax, DWORD PTR _c_rColorVector$[ebp]
  00d17	89 85 b4 fd ff
	ff		 mov	 DWORD PTR __My_data$46[ebp], eax

; 1509 : #if _CONTAINER_DEBUG_LEVEL > 0
; 1510 :         _STL_VERIFY(
; 1511 :             _Pos < static_cast<size_type>(_My_data._Mylast - _My_data._Myfirst), "vector subscript out of range");
; 1512 : #endif // _CONTAINER_DEBUG_LEVEL > 0
; 1513 : 
; 1514 :         return _My_data._Myfirst[_Pos];

  00d1d	8b 45 68	 mov	 eax, DWORD PTR _ulVectorGradientColornum$[ebp]
  00d20	c1 e0 05	 shl	 eax, 5
  00d23	8b 8d b4 fd ff
	ff		 mov	 ecx, DWORD PTR __My_data$46[ebp]
  00d29	03 01		 add	 eax, DWORD PTR [ecx]
  00d2b	89 85 a4 fd ff
	ff		 mov	 DWORD PTR $T42[ebp], eax

; 1508 :         auto& _My_data = _Mypair._Myval2;

  00d31	8b 45 74	 mov	 eax, DWORD PTR _c_rColorVector$[ebp]
  00d34	89 85 b0 fd ff
	ff		 mov	 DWORD PTR __My_data$45[ebp], eax

; 1509 : #if _CONTAINER_DEBUG_LEVEL > 0
; 1510 :         _STL_VERIFY(
; 1511 :             _Pos < static_cast<size_type>(_My_data._Mylast - _My_data._Myfirst), "vector subscript out of range");
; 1512 : #endif // _CONTAINER_DEBUG_LEVEL > 0
; 1513 : 
; 1514 :         return _My_data._Myfirst[_Pos];

  00d3a	8b 45 68	 mov	 eax, DWORD PTR _ulVectorGradientColornum$[ebp]
  00d3d	c1 e0 05	 shl	 eax, 5
  00d40	8b 8d b0 fd ff
	ff		 mov	 ecx, DWORD PTR __My_data$45[ebp]
  00d46	03 01		 add	 eax, DWORD PTR [ecx]
  00d48	89 85 a0 fd ff
	ff		 mov	 DWORD PTR $T41[ebp], eax
; File D:\Metin2 Server Files\mainline\SRC_2014\Metin2Client\EterLib\SkyBox.cpp

; 745  : 		aSkyObjectQuad.SetSrcColor(1,

  00d4e	8b 85 ac fd ff
	ff		 mov	 eax, DWORD PTR $T44[ebp]
  00d54	83 c0 1c	 add	 eax, 28			; 0000001cH
  00d57	50		 push	 eax
  00d58	8b 85 a8 fd ff
	ff		 mov	 eax, DWORD PTR $T43[ebp]
  00d5e	83 c0 18	 add	 eax, 24			; 00000018H
  00d61	50		 push	 eax
  00d62	8b 85 a4 fd ff
	ff		 mov	 eax, DWORD PTR $T42[ebp]
  00d68	83 c0 14	 add	 eax, 20			; 00000014H
  00d6b	50		 push	 eax
  00d6c	8b 85 a0 fd ff
	ff		 mov	 eax, DWORD PTR $T41[ebp]
  00d72	83 c0 10	 add	 eax, 16			; 00000010H
  00d75	50		 push	 eax
  00d76	8d 45 46	 lea	 eax, DWORD PTR $T215[ebp]
  00d79	50		 push	 eax
  00d7a	8b 4d 54	 mov	 ecx, DWORD PTR _aSkyObjectQuad$229[ebp]
  00d7d	e8 00 00 00 00	 call	 ?SetSrcColor@CSkyObjectQuad@@QAEXABEABM111@Z ; CSkyObjectQuad::SetSrcColor

; 750  : 		aSkyObjectQuad.SetTransition(1,

  00d82	c6 45 45 01	 mov	 BYTE PTR $T214[ebp], 1
; File C:\Program Files (x86)\Microsoft Visual Studio\2019\Community\VC\Tools\MSVC\14.28.29333\include\vector

; 1508 :         auto& _My_data = _Mypair._Myval2;

  00d86	8b 45 78	 mov	 eax, DWORD PTR _c_rNextColorVector$[ebp]
  00d89	89 85 9c fd ff
	ff		 mov	 DWORD PTR __My_data$40[ebp], eax

; 1509 : #if _CONTAINER_DEBUG_LEVEL > 0
; 1510 :         _STL_VERIFY(
; 1511 :             _Pos < static_cast<size_type>(_My_data._Mylast - _My_data._Myfirst), "vector subscript out of range");
; 1512 : #endif // _CONTAINER_DEBUG_LEVEL > 0
; 1513 : 
; 1514 :         return _My_data._Myfirst[_Pos];

  00d8f	8b 45 68	 mov	 eax, DWORD PTR _ulVectorGradientColornum$[ebp]
  00d92	c1 e0 05	 shl	 eax, 5
  00d95	8b 8d 9c fd ff
	ff		 mov	 ecx, DWORD PTR __My_data$40[ebp]
  00d9b	03 01		 add	 eax, DWORD PTR [ecx]
  00d9d	89 85 8c fd ff
	ff		 mov	 DWORD PTR $T36[ebp], eax

; 1508 :         auto& _My_data = _Mypair._Myval2;

  00da3	8b 45 78	 mov	 eax, DWORD PTR _c_rNextColorVector$[ebp]
  00da6	89 85 98 fd ff
	ff		 mov	 DWORD PTR __My_data$39[ebp], eax

; 1509 : #if _CONTAINER_DEBUG_LEVEL > 0
; 1510 :         _STL_VERIFY(
; 1511 :             _Pos < static_cast<size_type>(_My_data._Mylast - _My_data._Myfirst), "vector subscript out of range");
; 1512 : #endif // _CONTAINER_DEBUG_LEVEL > 0
; 1513 : 
; 1514 :         return _My_data._Myfirst[_Pos];

  00dac	8b 45 68	 mov	 eax, DWORD PTR _ulVectorGradientColornum$[ebp]
  00daf	c1 e0 05	 shl	 eax, 5
  00db2	8b 8d 98 fd ff
	ff		 mov	 ecx, DWORD PTR __My_data$39[ebp]
  00db8	03 01		 add	 eax, DWORD PTR [ecx]
  00dba	89 85 88 fd ff
	ff		 mov	 DWORD PTR $T35[ebp], eax

; 1508 :         auto& _My_data = _Mypair._Myval2;

  00dc0	8b 45 78	 mov	 eax, DWORD PTR _c_rNextColorVector$[ebp]
  00dc3	89 85 94 fd ff
	ff		 mov	 DWORD PTR __My_data$38[ebp], eax

; 1509 : #if _CONTAINER_DEBUG_LEVEL > 0
; 1510 :         _STL_VERIFY(
; 1511 :             _Pos < static_cast<size_type>(_My_data._Mylast - _My_data._Myfirst), "vector subscript out of range");
; 1512 : #endif // _CONTAINER_DEBUG_LEVEL > 0
; 1513 : 
; 1514 :         return _My_data._Myfirst[_Pos];

  00dc9	8b 45 68	 mov	 eax, DWORD PTR _ulVectorGradientColornum$[ebp]
  00dcc	c1 e0 05	 shl	 eax, 5
  00dcf	8b 8d 94 fd ff
	ff		 mov	 ecx, DWORD PTR __My_data$38[ebp]
  00dd5	03 01		 add	 eax, DWORD PTR [ecx]
  00dd7	89 85 84 fd ff
	ff		 mov	 DWORD PTR $T34[ebp], eax

; 1508 :         auto& _My_data = _Mypair._Myval2;

  00ddd	8b 45 78	 mov	 eax, DWORD PTR _c_rNextColorVector$[ebp]
  00de0	89 85 90 fd ff
	ff		 mov	 DWORD PTR __My_data$37[ebp], eax

; 1509 : #if _CONTAINER_DEBUG_LEVEL > 0
; 1510 :         _STL_VERIFY(
; 1511 :             _Pos < static_cast<size_type>(_My_data._Mylast - _My_data._Myfirst), "vector subscript out of range");
; 1512 : #endif // _CONTAINER_DEBUG_LEVEL > 0
; 1513 : 
; 1514 :         return _My_data._Myfirst[_Pos];

  00de6	8b 45 68	 mov	 eax, DWORD PTR _ulVectorGradientColornum$[ebp]
  00de9	c1 e0 05	 shl	 eax, 5
  00dec	8b 8d 90 fd ff
	ff		 mov	 ecx, DWORD PTR __My_data$37[ebp]
  00df2	03 01		 add	 eax, DWORD PTR [ecx]
  00df4	89 85 80 fd ff
	ff		 mov	 DWORD PTR $T33[ebp], eax
; File D:\Metin2 Server Files\mainline\SRC_2014\Metin2Client\EterLib\SkyBox.cpp

; 750  : 		aSkyObjectQuad.SetTransition(1,

  00dfa	ff 75 7c	 push	 DWORD PTR _lTransitionTime$[ebp]
  00dfd	8b 85 8c fd ff
	ff		 mov	 eax, DWORD PTR $T36[ebp]
  00e03	83 c0 1c	 add	 eax, 28			; 0000001cH
  00e06	50		 push	 eax
  00e07	8b 85 88 fd ff
	ff		 mov	 eax, DWORD PTR $T35[ebp]
  00e0d	83 c0 18	 add	 eax, 24			; 00000018H
  00e10	50		 push	 eax
  00e11	8b 85 84 fd ff
	ff		 mov	 eax, DWORD PTR $T34[ebp]
  00e17	83 c0 14	 add	 eax, 20			; 00000014H
  00e1a	50		 push	 eax
  00e1b	8b 85 80 fd ff
	ff		 mov	 eax, DWORD PTR $T33[ebp]
  00e21	83 c0 10	 add	 eax, 16			; 00000010H
  00e24	50		 push	 eax
  00e25	8d 45 45	 lea	 eax, DWORD PTR $T214[ebp]
  00e28	50		 push	 eax
  00e29	8b 4d 54	 mov	 ecx, DWORD PTR _aSkyObjectQuad$229[ebp]
  00e2c	e8 00 00 00 00	 call	 ?SetTransition@CSkyObjectQuad@@QAEXABEABM111K@Z ; CSkyObjectQuad::SetTransition

; 756  : 		aSkyObjectQuad.SetSrcColor(2,

  00e31	c6 45 44 02	 mov	 BYTE PTR $T213[ebp], 2
; File C:\Program Files (x86)\Microsoft Visual Studio\2019\Community\VC\Tools\MSVC\14.28.29333\include\vector

; 1508 :         auto& _My_data = _Mypair._Myval2;

  00e35	8b 45 74	 mov	 eax, DWORD PTR _c_rColorVector$[ebp]
  00e38	89 85 7c fd ff
	ff		 mov	 DWORD PTR __My_data$32[ebp], eax

; 1509 : #if _CONTAINER_DEBUG_LEVEL > 0
; 1510 :         _STL_VERIFY(
; 1511 :             _Pos < static_cast<size_type>(_My_data._Mylast - _My_data._Myfirst), "vector subscript out of range");
; 1512 : #endif // _CONTAINER_DEBUG_LEVEL > 0
; 1513 : 
; 1514 :         return _My_data._Myfirst[_Pos];

  00e3e	8b 45 68	 mov	 eax, DWORD PTR _ulVectorGradientColornum$[ebp]
  00e41	c1 e0 05	 shl	 eax, 5
  00e44	8b 8d 7c fd ff
	ff		 mov	 ecx, DWORD PTR __My_data$32[ebp]
  00e4a	03 01		 add	 eax, DWORD PTR [ecx]
  00e4c	89 85 6c fd ff
	ff		 mov	 DWORD PTR $T28[ebp], eax

; 1508 :         auto& _My_data = _Mypair._Myval2;

  00e52	8b 45 74	 mov	 eax, DWORD PTR _c_rColorVector$[ebp]
  00e55	89 85 78 fd ff
	ff		 mov	 DWORD PTR __My_data$31[ebp], eax

; 1509 : #if _CONTAINER_DEBUG_LEVEL > 0
; 1510 :         _STL_VERIFY(
; 1511 :             _Pos < static_cast<size_type>(_My_data._Mylast - _My_data._Myfirst), "vector subscript out of range");
; 1512 : #endif // _CONTAINER_DEBUG_LEVEL > 0
; 1513 : 
; 1514 :         return _My_data._Myfirst[_Pos];

  00e5b	8b 45 68	 mov	 eax, DWORD PTR _ulVectorGradientColornum$[ebp]
  00e5e	c1 e0 05	 shl	 eax, 5
  00e61	8b 8d 78 fd ff
	ff		 mov	 ecx, DWORD PTR __My_data$31[ebp]
  00e67	03 01		 add	 eax, DWORD PTR [ecx]
  00e69	89 85 68 fd ff
	ff		 mov	 DWORD PTR $T27[ebp], eax

; 1508 :         auto& _My_data = _Mypair._Myval2;

  00e6f	8b 45 74	 mov	 eax, DWORD PTR _c_rColorVector$[ebp]
  00e72	89 85 74 fd ff
	ff		 mov	 DWORD PTR __My_data$30[ebp], eax

; 1509 : #if _CONTAINER_DEBUG_LEVEL > 0
; 1510 :         _STL_VERIFY(
; 1511 :             _Pos < static_cast<size_type>(_My_data._Mylast - _My_data._Myfirst), "vector subscript out of range");
; 1512 : #endif // _CONTAINER_DEBUG_LEVEL > 0
; 1513 : 
; 1514 :         return _My_data._Myfirst[_Pos];

  00e78	8b 45 68	 mov	 eax, DWORD PTR _ulVectorGradientColornum$[ebp]
  00e7b	c1 e0 05	 shl	 eax, 5
  00e7e	8b 8d 74 fd ff
	ff		 mov	 ecx, DWORD PTR __My_data$30[ebp]
  00e84	03 01		 add	 eax, DWORD PTR [ecx]
  00e86	89 85 64 fd ff
	ff		 mov	 DWORD PTR $T26[ebp], eax

; 1508 :         auto& _My_data = _Mypair._Myval2;

  00e8c	8b 45 74	 mov	 eax, DWORD PTR _c_rColorVector$[ebp]
  00e8f	89 85 70 fd ff
	ff		 mov	 DWORD PTR __My_data$29[ebp], eax

; 1509 : #if _CONTAINER_DEBUG_LEVEL > 0
; 1510 :         _STL_VERIFY(
; 1511 :             _Pos < static_cast<size_type>(_My_data._Mylast - _My_data._Myfirst), "vector subscript out of range");
; 1512 : #endif // _CONTAINER_DEBUG_LEVEL > 0
; 1513 : 
; 1514 :         return _My_data._Myfirst[_Pos];

  00e95	8b 45 68	 mov	 eax, DWORD PTR _ulVectorGradientColornum$[ebp]
  00e98	c1 e0 05	 shl	 eax, 5
  00e9b	8b 8d 70 fd ff
	ff		 mov	 ecx, DWORD PTR __My_data$29[ebp]
  00ea1	03 01		 add	 eax, DWORD PTR [ecx]
  00ea3	89 85 60 fd ff
	ff		 mov	 DWORD PTR $T25[ebp], eax
; File D:\Metin2 Server Files\mainline\SRC_2014\Metin2Client\EterLib\SkyBox.cpp

; 756  : 		aSkyObjectQuad.SetSrcColor(2,

  00ea9	8b 85 6c fd ff
	ff		 mov	 eax, DWORD PTR $T28[ebp]
  00eaf	83 c0 1c	 add	 eax, 28			; 0000001cH
  00eb2	50		 push	 eax
  00eb3	8b 85 68 fd ff
	ff		 mov	 eax, DWORD PTR $T27[ebp]
  00eb9	83 c0 18	 add	 eax, 24			; 00000018H
  00ebc	50		 push	 eax
  00ebd	8b 85 64 fd ff
	ff		 mov	 eax, DWORD PTR $T26[ebp]
  00ec3	83 c0 14	 add	 eax, 20			; 00000014H
  00ec6	50		 push	 eax
  00ec7	8b 85 60 fd ff
	ff		 mov	 eax, DWORD PTR $T25[ebp]
  00ecd	83 c0 10	 add	 eax, 16			; 00000010H
  00ed0	50		 push	 eax
  00ed1	8d 45 44	 lea	 eax, DWORD PTR $T213[ebp]
  00ed4	50		 push	 eax
  00ed5	8b 4d 54	 mov	 ecx, DWORD PTR _aSkyObjectQuad$229[ebp]
  00ed8	e8 00 00 00 00	 call	 ?SetSrcColor@CSkyObjectQuad@@QAEXABEABM111@Z ; CSkyObjectQuad::SetSrcColor

; 761  : 		aSkyObjectQuad.SetTransition(2,

  00edd	c6 45 43 02	 mov	 BYTE PTR $T212[ebp], 2
; File C:\Program Files (x86)\Microsoft Visual Studio\2019\Community\VC\Tools\MSVC\14.28.29333\include\vector

; 1508 :         auto& _My_data = _Mypair._Myval2;

  00ee1	8b 45 78	 mov	 eax, DWORD PTR _c_rNextColorVector$[ebp]
  00ee4	89 85 5c fd ff
	ff		 mov	 DWORD PTR __My_data$24[ebp], eax

; 1509 : #if _CONTAINER_DEBUG_LEVEL > 0
; 1510 :         _STL_VERIFY(
; 1511 :             _Pos < static_cast<size_type>(_My_data._Mylast - _My_data._Myfirst), "vector subscript out of range");
; 1512 : #endif // _CONTAINER_DEBUG_LEVEL > 0
; 1513 : 
; 1514 :         return _My_data._Myfirst[_Pos];

  00eea	8b 45 68	 mov	 eax, DWORD PTR _ulVectorGradientColornum$[ebp]
  00eed	c1 e0 05	 shl	 eax, 5
  00ef0	8b 8d 5c fd ff
	ff		 mov	 ecx, DWORD PTR __My_data$24[ebp]
  00ef6	03 01		 add	 eax, DWORD PTR [ecx]
  00ef8	89 85 4c fd ff
	ff		 mov	 DWORD PTR $T20[ebp], eax

; 1508 :         auto& _My_data = _Mypair._Myval2;

  00efe	8b 45 78	 mov	 eax, DWORD PTR _c_rNextColorVector$[ebp]
  00f01	89 85 58 fd ff
	ff		 mov	 DWORD PTR __My_data$23[ebp], eax

; 1509 : #if _CONTAINER_DEBUG_LEVEL > 0
; 1510 :         _STL_VERIFY(
; 1511 :             _Pos < static_cast<size_type>(_My_data._Mylast - _My_data._Myfirst), "vector subscript out of range");
; 1512 : #endif // _CONTAINER_DEBUG_LEVEL > 0
; 1513 : 
; 1514 :         return _My_data._Myfirst[_Pos];

  00f07	8b 45 68	 mov	 eax, DWORD PTR _ulVectorGradientColornum$[ebp]
  00f0a	c1 e0 05	 shl	 eax, 5
  00f0d	8b 8d 58 fd ff
	ff		 mov	 ecx, DWORD PTR __My_data$23[ebp]
  00f13	03 01		 add	 eax, DWORD PTR [ecx]
  00f15	89 85 48 fd ff
	ff		 mov	 DWORD PTR $T19[ebp], eax

; 1508 :         auto& _My_data = _Mypair._Myval2;

  00f1b	8b 45 78	 mov	 eax, DWORD PTR _c_rNextColorVector$[ebp]
  00f1e	89 85 54 fd ff
	ff		 mov	 DWORD PTR __My_data$22[ebp], eax

; 1509 : #if _CONTAINER_DEBUG_LEVEL > 0
; 1510 :         _STL_VERIFY(
; 1511 :             _Pos < static_cast<size_type>(_My_data._Mylast - _My_data._Myfirst), "vector subscript out of range");
; 1512 : #endif // _CONTAINER_DEBUG_LEVEL > 0
; 1513 : 
; 1514 :         return _My_data._Myfirst[_Pos];

  00f24	8b 45 68	 mov	 eax, DWORD PTR _ulVectorGradientColornum$[ebp]
  00f27	c1 e0 05	 shl	 eax, 5
  00f2a	8b 8d 54 fd ff
	ff		 mov	 ecx, DWORD PTR __My_data$22[ebp]
  00f30	03 01		 add	 eax, DWORD PTR [ecx]
  00f32	89 85 44 fd ff
	ff		 mov	 DWORD PTR $T18[ebp], eax

; 1508 :         auto& _My_data = _Mypair._Myval2;

  00f38	8b 45 78	 mov	 eax, DWORD PTR _c_rNextColorVector$[ebp]
  00f3b	89 85 50 fd ff
	ff		 mov	 DWORD PTR __My_data$21[ebp], eax

; 1509 : #if _CONTAINER_DEBUG_LEVEL > 0
; 1510 :         _STL_VERIFY(
; 1511 :             _Pos < static_cast<size_type>(_My_data._Mylast - _My_data._Myfirst), "vector subscript out of range");
; 1512 : #endif // _CONTAINER_DEBUG_LEVEL > 0
; 1513 : 
; 1514 :         return _My_data._Myfirst[_Pos];

  00f41	8b 45 68	 mov	 eax, DWORD PTR _ulVectorGradientColornum$[ebp]
  00f44	c1 e0 05	 shl	 eax, 5
  00f47	8b 8d 50 fd ff
	ff		 mov	 ecx, DWORD PTR __My_data$21[ebp]
  00f4d	03 01		 add	 eax, DWORD PTR [ecx]
  00f4f	89 85 40 fd ff
	ff		 mov	 DWORD PTR $T17[ebp], eax
; File D:\Metin2 Server Files\mainline\SRC_2014\Metin2Client\EterLib\SkyBox.cpp

; 761  : 		aSkyObjectQuad.SetTransition(2,

  00f55	ff 75 7c	 push	 DWORD PTR _lTransitionTime$[ebp]
  00f58	8b 85 4c fd ff
	ff		 mov	 eax, DWORD PTR $T20[ebp]
  00f5e	83 c0 1c	 add	 eax, 28			; 0000001cH
  00f61	50		 push	 eax
  00f62	8b 85 48 fd ff
	ff		 mov	 eax, DWORD PTR $T19[ebp]
  00f68	83 c0 18	 add	 eax, 24			; 00000018H
  00f6b	50		 push	 eax
  00f6c	8b 85 44 fd ff
	ff		 mov	 eax, DWORD PTR $T18[ebp]
  00f72	83 c0 14	 add	 eax, 20			; 00000014H
  00f75	50		 push	 eax
  00f76	8b 85 40 fd ff
	ff		 mov	 eax, DWORD PTR $T17[ebp]
  00f7c	83 c0 10	 add	 eax, 16			; 00000010H
  00f7f	50		 push	 eax
  00f80	8d 45 43	 lea	 eax, DWORD PTR $T212[ebp]
  00f83	50		 push	 eax
  00f84	8b 4d 54	 mov	 ecx, DWORD PTR _aSkyObjectQuad$229[ebp]
  00f87	e8 00 00 00 00	 call	 ?SetTransition@CSkyObjectQuad@@QAEXABEABM111K@Z ; CSkyObjectQuad::SetTransition

; 767  : 		aSkyObjectQuad.SetSrcColor(3,

  00f8c	c6 45 42 03	 mov	 BYTE PTR $T211[ebp], 3
; File C:\Program Files (x86)\Microsoft Visual Studio\2019\Community\VC\Tools\MSVC\14.28.29333\include\vector

; 1508 :         auto& _My_data = _Mypair._Myval2;

  00f90	8b 45 74	 mov	 eax, DWORD PTR _c_rColorVector$[ebp]
  00f93	89 85 3c fd ff
	ff		 mov	 DWORD PTR __My_data$16[ebp], eax

; 1509 : #if _CONTAINER_DEBUG_LEVEL > 0
; 1510 :         _STL_VERIFY(
; 1511 :             _Pos < static_cast<size_type>(_My_data._Mylast - _My_data._Myfirst), "vector subscript out of range");
; 1512 : #endif // _CONTAINER_DEBUG_LEVEL > 0
; 1513 : 
; 1514 :         return _My_data._Myfirst[_Pos];

  00f99	8b 45 68	 mov	 eax, DWORD PTR _ulVectorGradientColornum$[ebp]
  00f9c	c1 e0 05	 shl	 eax, 5
  00f9f	8b 8d 3c fd ff
	ff		 mov	 ecx, DWORD PTR __My_data$16[ebp]
  00fa5	03 01		 add	 eax, DWORD PTR [ecx]
  00fa7	89 85 2c fd ff
	ff		 mov	 DWORD PTR $T12[ebp], eax

; 1508 :         auto& _My_data = _Mypair._Myval2;

  00fad	8b 45 74	 mov	 eax, DWORD PTR _c_rColorVector$[ebp]
  00fb0	89 85 38 fd ff
	ff		 mov	 DWORD PTR __My_data$15[ebp], eax

; 1509 : #if _CONTAINER_DEBUG_LEVEL > 0
; 1510 :         _STL_VERIFY(
; 1511 :             _Pos < static_cast<size_type>(_My_data._Mylast - _My_data._Myfirst), "vector subscript out of range");
; 1512 : #endif // _CONTAINER_DEBUG_LEVEL > 0
; 1513 : 
; 1514 :         return _My_data._Myfirst[_Pos];

  00fb6	8b 45 68	 mov	 eax, DWORD PTR _ulVectorGradientColornum$[ebp]
  00fb9	c1 e0 05	 shl	 eax, 5
  00fbc	8b 8d 38 fd ff
	ff		 mov	 ecx, DWORD PTR __My_data$15[ebp]
  00fc2	03 01		 add	 eax, DWORD PTR [ecx]
  00fc4	89 85 28 fd ff
	ff		 mov	 DWORD PTR $T11[ebp], eax

; 1508 :         auto& _My_data = _Mypair._Myval2;

  00fca	8b 45 74	 mov	 eax, DWORD PTR _c_rColorVector$[ebp]
  00fcd	89 85 34 fd ff
	ff		 mov	 DWORD PTR __My_data$14[ebp], eax

; 1509 : #if _CONTAINER_DEBUG_LEVEL > 0
; 1510 :         _STL_VERIFY(
; 1511 :             _Pos < static_cast<size_type>(_My_data._Mylast - _My_data._Myfirst), "vector subscript out of range");
; 1512 : #endif // _CONTAINER_DEBUG_LEVEL > 0
; 1513 : 
; 1514 :         return _My_data._Myfirst[_Pos];

  00fd3	8b 45 68	 mov	 eax, DWORD PTR _ulVectorGradientColornum$[ebp]
  00fd6	c1 e0 05	 shl	 eax, 5
  00fd9	8b 8d 34 fd ff
	ff		 mov	 ecx, DWORD PTR __My_data$14[ebp]
  00fdf	03 01		 add	 eax, DWORD PTR [ecx]
  00fe1	89 85 24 fd ff
	ff		 mov	 DWORD PTR $T10[ebp], eax

; 1508 :         auto& _My_data = _Mypair._Myval2;

  00fe7	8b 45 74	 mov	 eax, DWORD PTR _c_rColorVector$[ebp]
  00fea	89 85 30 fd ff
	ff		 mov	 DWORD PTR __My_data$13[ebp], eax

; 1509 : #if _CONTAINER_DEBUG_LEVEL > 0
; 1510 :         _STL_VERIFY(
; 1511 :             _Pos < static_cast<size_type>(_My_data._Mylast - _My_data._Myfirst), "vector subscript out of range");
; 1512 : #endif // _CONTAINER_DEBUG_LEVEL > 0
; 1513 : 
; 1514 :         return _My_data._Myfirst[_Pos];

  00ff0	8b 45 68	 mov	 eax, DWORD PTR _ulVectorGradientColornum$[ebp]
  00ff3	c1 e0 05	 shl	 eax, 5
  00ff6	8b 8d 30 fd ff
	ff		 mov	 ecx, DWORD PTR __My_data$13[ebp]
  00ffc	03 01		 add	 eax, DWORD PTR [ecx]
  00ffe	89 85 20 fd ff
	ff		 mov	 DWORD PTR $T9[ebp], eax
; File D:\Metin2 Server Files\mainline\SRC_2014\Metin2Client\EterLib\SkyBox.cpp

; 767  : 		aSkyObjectQuad.SetSrcColor(3,

  01004	8b 85 2c fd ff
	ff		 mov	 eax, DWORD PTR $T12[ebp]
  0100a	83 c0 1c	 add	 eax, 28			; 0000001cH
  0100d	50		 push	 eax
  0100e	8b 85 28 fd ff
	ff		 mov	 eax, DWORD PTR $T11[ebp]
  01014	83 c0 18	 add	 eax, 24			; 00000018H
  01017	50		 push	 eax
  01018	8b 85 24 fd ff
	ff		 mov	 eax, DWORD PTR $T10[ebp]
  0101e	83 c0 14	 add	 eax, 20			; 00000014H
  01021	50		 push	 eax
  01022	8b 85 20 fd ff
	ff		 mov	 eax, DWORD PTR $T9[ebp]
  01028	83 c0 10	 add	 eax, 16			; 00000010H
  0102b	50		 push	 eax
  0102c	8d 45 42	 lea	 eax, DWORD PTR $T211[ebp]
  0102f	50		 push	 eax
  01030	8b 4d 54	 mov	 ecx, DWORD PTR _aSkyObjectQuad$229[ebp]
  01033	e8 00 00 00 00	 call	 ?SetSrcColor@CSkyObjectQuad@@QAEXABEABM111@Z ; CSkyObjectQuad::SetSrcColor

; 772  : 		aSkyObjectQuad.SetTransition(3,

  01038	c6 45 41 03	 mov	 BYTE PTR $T210[ebp], 3
; File C:\Program Files (x86)\Microsoft Visual Studio\2019\Community\VC\Tools\MSVC\14.28.29333\include\vector

; 1508 :         auto& _My_data = _Mypair._Myval2;

  0103c	8b 45 78	 mov	 eax, DWORD PTR _c_rNextColorVector$[ebp]
  0103f	89 85 1c fd ff
	ff		 mov	 DWORD PTR __My_data$8[ebp], eax

; 1509 : #if _CONTAINER_DEBUG_LEVEL > 0
; 1510 :         _STL_VERIFY(
; 1511 :             _Pos < static_cast<size_type>(_My_data._Mylast - _My_data._Myfirst), "vector subscript out of range");
; 1512 : #endif // _CONTAINER_DEBUG_LEVEL > 0
; 1513 : 
; 1514 :         return _My_data._Myfirst[_Pos];

  01045	8b 45 68	 mov	 eax, DWORD PTR _ulVectorGradientColornum$[ebp]
  01048	c1 e0 05	 shl	 eax, 5
  0104b	8b 8d 1c fd ff
	ff		 mov	 ecx, DWORD PTR __My_data$8[ebp]
  01051	03 01		 add	 eax, DWORD PTR [ecx]
  01053	89 85 0c fd ff
	ff		 mov	 DWORD PTR $T4[ebp], eax

; 1508 :         auto& _My_data = _Mypair._Myval2;

  01059	8b 45 78	 mov	 eax, DWORD PTR _c_rNextColorVector$[ebp]
  0105c	89 85 18 fd ff
	ff		 mov	 DWORD PTR __My_data$7[ebp], eax

; 1509 : #if _CONTAINER_DEBUG_LEVEL > 0
; 1510 :         _STL_VERIFY(
; 1511 :             _Pos < static_cast<size_type>(_My_data._Mylast - _My_data._Myfirst), "vector subscript out of range");
; 1512 : #endif // _CONTAINER_DEBUG_LEVEL > 0
; 1513 : 
; 1514 :         return _My_data._Myfirst[_Pos];

  01062	8b 45 68	 mov	 eax, DWORD PTR _ulVectorGradientColornum$[ebp]
  01065	c1 e0 05	 shl	 eax, 5
  01068	8b 8d 18 fd ff
	ff		 mov	 ecx, DWORD PTR __My_data$7[ebp]
  0106e	03 01		 add	 eax, DWORD PTR [ecx]
  01070	89 85 08 fd ff
	ff		 mov	 DWORD PTR $T3[ebp], eax

; 1508 :         auto& _My_data = _Mypair._Myval2;

  01076	8b 45 78	 mov	 eax, DWORD PTR _c_rNextColorVector$[ebp]
  01079	89 85 14 fd ff
	ff		 mov	 DWORD PTR __My_data$6[ebp], eax

; 1509 : #if _CONTAINER_DEBUG_LEVEL > 0
; 1510 :         _STL_VERIFY(
; 1511 :             _Pos < static_cast<size_type>(_My_data._Mylast - _My_data._Myfirst), "vector subscript out of range");
; 1512 : #endif // _CONTAINER_DEBUG_LEVEL > 0
; 1513 : 
; 1514 :         return _My_data._Myfirst[_Pos];

  0107f	8b 45 68	 mov	 eax, DWORD PTR _ulVectorGradientColornum$[ebp]
  01082	c1 e0 05	 shl	 eax, 5
  01085	8b 8d 14 fd ff
	ff		 mov	 ecx, DWORD PTR __My_data$6[ebp]
  0108b	03 01		 add	 eax, DWORD PTR [ecx]
  0108d	89 85 04 fd ff
	ff		 mov	 DWORD PTR $T2[ebp], eax

; 1508 :         auto& _My_data = _Mypair._Myval2;

  01093	8b 45 78	 mov	 eax, DWORD PTR _c_rNextColorVector$[ebp]
  01096	89 85 10 fd ff
	ff		 mov	 DWORD PTR __My_data$5[ebp], eax

; 1509 : #if _CONTAINER_DEBUG_LEVEL > 0
; 1510 :         _STL_VERIFY(
; 1511 :             _Pos < static_cast<size_type>(_My_data._Mylast - _My_data._Myfirst), "vector subscript out of range");
; 1512 : #endif // _CONTAINER_DEBUG_LEVEL > 0
; 1513 : 
; 1514 :         return _My_data._Myfirst[_Pos];

  0109c	8b 45 68	 mov	 eax, DWORD PTR _ulVectorGradientColornum$[ebp]
  0109f	c1 e0 05	 shl	 eax, 5
  010a2	8b 8d 10 fd ff
	ff		 mov	 ecx, DWORD PTR __My_data$5[ebp]
  010a8	03 01		 add	 eax, DWORD PTR [ecx]
  010aa	89 85 00 fd ff
	ff		 mov	 DWORD PTR $T1[ebp], eax
; File D:\Metin2 Server Files\mainline\SRC_2014\Metin2Client\EterLib\SkyBox.cpp

; 772  : 		aSkyObjectQuad.SetTransition(3,

  010b0	ff 75 7c	 push	 DWORD PTR _lTransitionTime$[ebp]
  010b3	8b 85 0c fd ff
	ff		 mov	 eax, DWORD PTR $T4[ebp]
  010b9	83 c0 1c	 add	 eax, 28			; 0000001cH
  010bc	50		 push	 eax
  010bd	8b 85 08 fd ff
	ff		 mov	 eax, DWORD PTR $T3[ebp]
  010c3	83 c0 18	 add	 eax, 24			; 00000018H
  010c6	50		 push	 eax
  010c7	8b 85 04 fd ff
	ff		 mov	 eax, DWORD PTR $T2[ebp]
  010cd	83 c0 14	 add	 eax, 20			; 00000014H
  010d0	50		 push	 eax
  010d1	8b 85 00 fd ff
	ff		 mov	 eax, DWORD PTR $T1[ebp]
  010d7	83 c0 10	 add	 eax, 16			; 00000010H
  010da	50		 push	 eax
  010db	8d 45 41	 lea	 eax, DWORD PTR $T210[ebp]
  010de	50		 push	 eax
  010df	8b 4d 54	 mov	 ecx, DWORD PTR _aSkyObjectQuad$229[ebp]
  010e2	e8 00 00 00 00	 call	 ?SetTransition@CSkyObjectQuad@@QAEXABEABM111K@Z ; CSkyObjectQuad::SetTransition

; 773  : 			c_rNextColorVector[ulVectorGradientColornum].m_SecondColor.r,
; 774  : 			c_rNextColorVector[ulVectorGradientColornum].m_SecondColor.g,
; 775  : 			c_rNextColorVector[ulVectorGradientColornum].m_SecondColor.b,
; 776  : 			c_rNextColorVector[ulVectorGradientColornum].m_SecondColor.a,
; 777  : 			lTransitionTime);
; 778  : 	}

  010e7	e9 39 fa ff ff	 jmp	 $LN11@SetSkyColo
$LN1@SetSkyColo:

; 779  : }

  010ec	83 c5 6c	 add	 ebp, 108		; 0000006cH
  010ef	c9		 leave
  010f0	c2 0c 00	 ret	 12			; 0000000cH
?SetSkyColor@CSkyBox@@QAEXABV?$vector@UTGradientColor@@V?$allocator@UTGradientColor@@@std@@@std@@0J@Z ENDP ; CSkyBox::SetSkyColor
_TEXT	ENDS
; Function compile flags: /Odspy
; File D:\Metin2 Server Files\mainline\SRC_2014\Metin2Client\EterLib\SkyBox.cpp
; File D:\Metin2 Server Files\mainline\SRC_2014\M2Data\include\d3dx8math.inl
; File D:\Metin2 Server Files\mainline\SRC_2014\Metin2Client\EterLib\SkyBox.cpp
; File D:\Metin2 Server Files\mainline\SRC_2014\M2Data\include\d3dx8math.inl
; File D:\Metin2 Server Files\mainline\SRC_2014\Metin2Client\EterLib\SkyBox.cpp
; File C:\Program Files (x86)\Microsoft Visual Studio\2019\Community\VC\Tools\MSVC\14.28.29333\include\xstring
; File C:\Program Files (x86)\Microsoft Visual Studio\2019\Community\VC\Tools\MSVC\14.28.29333\include\xmemory
; File C:\Program Files (x86)\Microsoft Visual Studio\2019\Community\VC\Tools\MSVC\14.28.29333\include\xstring
; File D:\Metin2 Server Files\mainline\SRC_2014\Metin2Client\EterLib\SkyBox.cpp
; File C:\Program Files (x86)\Microsoft Visual Studio\2019\Community\VC\Tools\MSVC\14.28.29333\include\xstring
; File D:\Metin2 Server Files\mainline\SRC_2014\M2Data\include\d3dx8math.inl
; File D:\Metin2 Server Files\mainline\SRC_2014\Metin2Client\EterLib\SkyBox.cpp
; File D:\Metin2 Server Files\mainline\SRC_2014\M2Data\include\d3dx8math.inl
; File D:\Metin2 Server Files\mainline\SRC_2014\Metin2Client\EterLib\SkyBox.cpp
; File C:\Program Files (x86)\Microsoft Visual Studio\2019\Community\VC\Tools\MSVC\14.28.29333\include\xstring
; File C:\Program Files (x86)\Microsoft Visual Studio\2019\Community\VC\Tools\MSVC\14.28.29333\include\xmemory
; File C:\Program Files (x86)\Microsoft Visual Studio\2019\Community\VC\Tools\MSVC\14.28.29333\include\xstring
; File D:\Metin2 Server Files\mainline\SRC_2014\Metin2Client\EterLib\SkyBox.cpp
; File C:\Program Files (x86)\Microsoft Visual Studio\2019\Community\VC\Tools\MSVC\14.28.29333\include\xstring
; File D:\Metin2 Server Files\mainline\SRC_2014\M2Data\include\d3dx8math.inl
; File D:\Metin2 Server Files\mainline\SRC_2014\Metin2Client\EterLib\SkyBox.cpp
; File D:\Metin2 Server Files\mainline\SRC_2014\M2Data\include\d3dx8math.inl
; File D:\Metin2 Server Files\mainline\SRC_2014\Metin2Client\EterLib\SkyBox.cpp
; File C:\Program Files (x86)\Microsoft Visual Studio\2019\Community\VC\Tools\MSVC\14.28.29333\include\xstring
; File C:\Program Files (x86)\Microsoft Visual Studio\2019\Community\VC\Tools\MSVC\14.28.29333\include\xmemory
; File C:\Program Files (x86)\Microsoft Visual Studio\2019\Community\VC\Tools\MSVC\14.28.29333\include\xstring
; File D:\Metin2 Server Files\mainline\SRC_2014\Metin2Client\EterLib\SkyBox.cpp
; File C:\Program Files (x86)\Microsoft Visual Studio\2019\Community\VC\Tools\MSVC\14.28.29333\include\xstring
; File D:\Metin2 Server Files\mainline\SRC_2014\M2Data\include\d3dx8math.inl
; File D:\Metin2 Server Files\mainline\SRC_2014\Metin2Client\EterLib\SkyBox.cpp
; File D:\Metin2 Server Files\mainline\SRC_2014\M2Data\include\d3dx8math.inl
; File D:\Metin2 Server Files\mainline\SRC_2014\Metin2Client\EterLib\SkyBox.cpp
; File C:\Program Files (x86)\Microsoft Visual Studio\2019\Community\VC\Tools\MSVC\14.28.29333\include\xstring
; File C:\Program Files (x86)\Microsoft Visual Studio\2019\Community\VC\Tools\MSVC\14.28.29333\include\xmemory
; File C:\Program Files (x86)\Microsoft Visual Studio\2019\Community\VC\Tools\MSVC\14.28.29333\include\xstring
; File D:\Metin2 Server Files\mainline\SRC_2014\Metin2Client\EterLib\SkyBox.cpp
; File C:\Program Files (x86)\Microsoft Visual Studio\2019\Community\VC\Tools\MSVC\14.28.29333\include\xstring
; File D:\Metin2 Server Files\mainline\SRC_2014\M2Data\include\d3dx8math.inl
; File D:\Metin2 Server Files\mainline\SRC_2014\Metin2Client\EterLib\SkyBox.cpp
; File D:\Metin2 Server Files\mainline\SRC_2014\M2Data\include\d3dx8math.inl
; File D:\Metin2 Server Files\mainline\SRC_2014\Metin2Client\EterLib\SkyBox.cpp
; File D:\Metin2 Server Files\mainline\SRC_2014\M2Data\include\d3dx8math.inl
; File D:\Metin2 Server Files\mainline\SRC_2014\Metin2Client\EterLib\SkyBox.cpp
; File D:\Metin2 Server Files\mainline\SRC_2014\M2Data\include\d3dx8math.inl
; File D:\Metin2 Server Files\mainline\SRC_2014\Metin2Client\EterLib\SkyBox.cpp
; File C:\Program Files (x86)\Microsoft Visual Studio\2019\Community\VC\Tools\MSVC\14.28.29333\include\xstring
; File C:\Program Files (x86)\Microsoft Visual Studio\2019\Community\VC\Tools\MSVC\14.28.29333\include\xmemory
; File C:\Program Files (x86)\Microsoft Visual Studio\2019\Community\VC\Tools\MSVC\14.28.29333\include\xstring
; File D:\Metin2 Server Files\mainline\SRC_2014\Metin2Client\EterLib\SkyBox.cpp
; File C:\Program Files (x86)\Microsoft Visual Studio\2019\Community\VC\Tools\MSVC\14.28.29333\include\xstring
; File D:\Metin2 Server Files\mainline\SRC_2014\M2Data\include\d3dx8math.inl
; File D:\Metin2 Server Files\mainline\SRC_2014\Metin2Client\EterLib\SkyBox.cpp
; File D:\Metin2 Server Files\mainline\SRC_2014\M2Data\include\d3dx8math.inl
; File D:\Metin2 Server Files\mainline\SRC_2014\Metin2Client\EterLib\SkyBox.cpp
; File D:\Metin2 Server Files\mainline\SRC_2014\M2Data\include\d3dx8math.inl
; File D:\Metin2 Server Files\mainline\SRC_2014\Metin2Client\EterLib\SkyBox.cpp
; File D:\Metin2 Server Files\mainline\SRC_2014\M2Data\include\d3dx8math.inl
; File D:\Metin2 Server Files\mainline\SRC_2014\Metin2Client\EterLib\SkyBox.cpp
; File C:\Program Files (x86)\Microsoft Visual Studio\2019\Community\VC\Tools\MSVC\14.28.29333\include\xstring
; File C:\Program Files (x86)\Microsoft Visual Studio\2019\Community\VC\Tools\MSVC\14.28.29333\include\xmemory
; File C:\Program Files (x86)\Microsoft Visual Studio\2019\Community\VC\Tools\MSVC\14.28.29333\include\xstring
; File D:\Metin2 Server Files\mainline\SRC_2014\Metin2Client\EterLib\SkyBox.cpp
; File C:\Program Files (x86)\Microsoft Visual Studio\2019\Community\VC\Tools\MSVC\14.28.29333\include\xstring
; File D:\Metin2 Server Files\mainline\SRC_2014\Metin2Client\EterLib\SkyBox.cpp
; File D:\Metin2 Server Files\mainline\SRC_2014\M2Data\include\d3dx8math.inl
; File D:\Metin2 Server Files\mainline\SRC_2014\Metin2Client\EterLib\SkyBox.cpp
; File D:\Metin2 Server Files\mainline\SRC_2014\M2Data\include\d3dx8math.inl
; File D:\Metin2 Server Files\mainline\SRC_2014\Metin2Client\EterLib\SkyBox.cpp
; File D:\Metin2 Server Files\mainline\SRC_2014\M2Data\include\d3dx8math.inl
; File D:\Metin2 Server Files\mainline\SRC_2014\Metin2Client\EterLib\SkyBox.cpp
; File D:\Metin2 Server Files\mainline\SRC_2014\M2Data\include\d3dx8math.inl
; File D:\Metin2 Server Files\mainline\SRC_2014\Metin2Client\EterLib\SkyBox.cpp
; File C:\Program Files (x86)\Microsoft Visual Studio\2019\Community\VC\Tools\MSVC\14.28.29333\include\xstring
; File C:\Program Files (x86)\Microsoft Visual Studio\2019\Community\VC\Tools\MSVC\14.28.29333\include\xmemory
; File C:\Program Files (x86)\Microsoft Visual Studio\2019\Community\VC\Tools\MSVC\14.28.29333\include\xstring
; File D:\Metin2 Server Files\mainline\SRC_2014\Metin2Client\EterLib\SkyBox.cpp
; File C:\Program Files (x86)\Microsoft Visual Studio\2019\Community\VC\Tools\MSVC\14.28.29333\include\xstring
; File D:\Metin2 Server Files\mainline\SRC_2014\M2Data\include\d3dx8math.inl
; File D:\Metin2 Server Files\mainline\SRC_2014\Metin2Client\EterLib\SkyBox.cpp
; File D:\Metin2 Server Files\mainline\SRC_2014\M2Data\include\d3dx8math.inl
; File D:\Metin2 Server Files\mainline\SRC_2014\Metin2Client\EterLib\SkyBox.cpp
; File D:\Metin2 Server Files\mainline\SRC_2014\M2Data\include\d3dx8math.inl
; File D:\Metin2 Server Files\mainline\SRC_2014\Metin2Client\EterLib\SkyBox.cpp
; File D:\Metin2 Server Files\mainline\SRC_2014\M2Data\include\d3dx8math.inl
; File D:\Metin2 Server Files\mainline\SRC_2014\Metin2Client\EterLib\SkyBox.cpp
; File C:\Program Files (x86)\Microsoft Visual Studio\2019\Community\VC\Tools\MSVC\14.28.29333\include\xstring
; File C:\Program Files (x86)\Microsoft Visual Studio\2019\Community\VC\Tools\MSVC\14.28.29333\include\xmemory
; File C:\Program Files (x86)\Microsoft Visual Studio\2019\Community\VC\Tools\MSVC\14.28.29333\include\xstring
; File D:\Metin2 Server Files\mainline\SRC_2014\Metin2Client\EterLib\SkyBox.cpp
; File C:\Program Files (x86)\Microsoft Visual Studio\2019\Community\VC\Tools\MSVC\14.28.29333\include\xstring
; File D:\Metin2 Server Files\mainline\SRC_2014\M2Data\include\d3dx8math.inl
; File D:\Metin2 Server Files\mainline\SRC_2014\Metin2Client\EterLib\SkyBox.cpp
; File D:\Metin2 Server Files\mainline\SRC_2014\M2Data\include\d3dx8math.inl
; File D:\Metin2 Server Files\mainline\SRC_2014\Metin2Client\EterLib\SkyBox.cpp
; File D:\Metin2 Server Files\mainline\SRC_2014\M2Data\include\d3dx8math.inl
; File D:\Metin2 Server Files\mainline\SRC_2014\Metin2Client\EterLib\SkyBox.cpp
; File D:\Metin2 Server Files\mainline\SRC_2014\M2Data\include\d3dx8math.inl
; File D:\Metin2 Server Files\mainline\SRC_2014\Metin2Client\EterLib\SkyBox.cpp
; File C:\Program Files (x86)\Microsoft Visual Studio\2019\Community\VC\Tools\MSVC\14.28.29333\include\xstring
; File C:\Program Files (x86)\Microsoft Visual Studio\2019\Community\VC\Tools\MSVC\14.28.29333\include\xmemory
; File C:\Program Files (x86)\Microsoft Visual Studio\2019\Community\VC\Tools\MSVC\14.28.29333\include\xstring
; File D:\Metin2 Server Files\mainline\SRC_2014\Metin2Client\EterLib\SkyBox.cpp
; File C:\Program Files (x86)\Microsoft Visual Studio\2019\Community\VC\Tools\MSVC\14.28.29333\include\xstring
; File D:\Metin2 Server Files\mainline\SRC_2014\M2Data\include\d3dx8math.inl
; File D:\Metin2 Server Files\mainline\SRC_2014\Metin2Client\EterLib\SkyBox.cpp
; File D:\Metin2 Server Files\mainline\SRC_2014\M2Data\include\d3dx8math.inl
; File D:\Metin2 Server Files\mainline\SRC_2014\Metin2Client\EterLib\SkyBox.cpp
; File D:\Metin2 Server Files\mainline\SRC_2014\M2Data\include\d3dx8math.inl
; File D:\Metin2 Server Files\mainline\SRC_2014\Metin2Client\EterLib\SkyBox.cpp
; File D:\Metin2 Server Files\mainline\SRC_2014\M2Data\include\d3dx8math.inl
; File D:\Metin2 Server Files\mainline\SRC_2014\Metin2Client\EterLib\SkyBox.cpp
; File C:\Program Files (x86)\Microsoft Visual Studio\2019\Community\VC\Tools\MSVC\14.28.29333\include\xstring
; File C:\Program Files (x86)\Microsoft Visual Studio\2019\Community\VC\Tools\MSVC\14.28.29333\include\xmemory
; File C:\Program Files (x86)\Microsoft Visual Studio\2019\Community\VC\Tools\MSVC\14.28.29333\include\xstring
; File D:\Metin2 Server Files\mainline\SRC_2014\Metin2Client\EterLib\SkyBox.cpp
; File C:\Program Files (x86)\Microsoft Visual Studio\2019\Community\VC\Tools\MSVC\14.28.29333\include\xstring
; File D:\Metin2 Server Files\mainline\SRC_2014\M2Data\include\d3dx8math.inl
; File D:\Metin2 Server Files\mainline\SRC_2014\Metin2Client\EterLib\SkyBox.cpp
; File D:\Metin2 Server Files\mainline\SRC_2014\M2Data\include\d3dx8math.inl
; File D:\Metin2 Server Files\mainline\SRC_2014\Metin2Client\EterLib\SkyBox.cpp
; File D:\Metin2 Server Files\mainline\SRC_2014\M2Data\include\d3dx8math.inl
; File D:\Metin2 Server Files\mainline\SRC_2014\Metin2Client\EterLib\SkyBox.cpp
; File D:\Metin2 Server Files\mainline\SRC_2014\M2Data\include\d3dx8math.inl
; File D:\Metin2 Server Files\mainline\SRC_2014\Metin2Client\EterLib\SkyBox.cpp
; File C:\Program Files (x86)\Microsoft Visual Studio\2019\Community\VC\Tools\MSVC\14.28.29333\include\xstring
; File C:\Program Files (x86)\Microsoft Visual Studio\2019\Community\VC\Tools\MSVC\14.28.29333\include\xmemory
; File C:\Program Files (x86)\Microsoft Visual Studio\2019\Community\VC\Tools\MSVC\14.28.29333\include\xstring
; File D:\Metin2 Server Files\mainline\SRC_2014\Metin2Client\EterLib\SkyBox.cpp
; File C:\Program Files (x86)\Microsoft Visual Studio\2019\Community\VC\Tools\MSVC\14.28.29333\include\xstring
; File D:\Metin2 Server Files\mainline\SRC_2014\M2Data\include\d3dx8math.inl
; File D:\Metin2 Server Files\mainline\SRC_2014\Metin2Client\EterLib\SkyBox.cpp
; File D:\Metin2 Server Files\mainline\SRC_2014\M2Data\include\d3dx8math.inl
; File D:\Metin2 Server Files\mainline\SRC_2014\Metin2Client\EterLib\SkyBox.cpp
; File D:\Metin2 Server Files\mainline\SRC_2014\M2Data\include\d3dx8math.inl
; File D:\Metin2 Server Files\mainline\SRC_2014\Metin2Client\EterLib\SkyBox.cpp
; File D:\Metin2 Server Files\mainline\SRC_2014\M2Data\include\d3dx8math.inl
; File D:\Metin2 Server Files\mainline\SRC_2014\Metin2Client\EterLib\SkyBox.cpp
; File C:\Program Files (x86)\Microsoft Visual Studio\2019\Community\VC\Tools\MSVC\14.28.29333\include\xstring
; File C:\Program Files (x86)\Microsoft Visual Studio\2019\Community\VC\Tools\MSVC\14.28.29333\include\xmemory
; File C:\Program Files (x86)\Microsoft Visual Studio\2019\Community\VC\Tools\MSVC\14.28.29333\include\xstring
; File D:\Metin2 Server Files\mainline\SRC_2014\Metin2Client\EterLib\SkyBox.cpp
; File C:\Program Files (x86)\Microsoft Visual Studio\2019\Community\VC\Tools\MSVC\14.28.29333\include\xstring
; File D:\Metin2 Server Files\mainline\SRC_2014\M2Data\include\d3dx8math.inl
; File D:\Metin2 Server Files\mainline\SRC_2014\Metin2Client\EterLib\SkyBox.cpp
; File D:\Metin2 Server Files\mainline\SRC_2014\M2Data\include\d3dx8math.inl
; File D:\Metin2 Server Files\mainline\SRC_2014\Metin2Client\EterLib\SkyBox.cpp
; File D:\Metin2 Server Files\mainline\SRC_2014\M2Data\include\d3dx8math.inl
; File D:\Metin2 Server Files\mainline\SRC_2014\Metin2Client\EterLib\SkyBox.cpp
; File D:\Metin2 Server Files\mainline\SRC_2014\M2Data\include\d3dx8math.inl
; File D:\Metin2 Server Files\mainline\SRC_2014\Metin2Client\EterLib\SkyBox.cpp
;	COMDAT ?Refresh@CSkyBox@@QAEXXZ
_TEXT	SEGMENT
$T1 = -568						; size = 4
$T2 = -564						; size = 4
tv66 = -560						; size = 4
tv674 = -556						; size = 4
$T3 = -552						; size = 4
$T4 = -548						; size = 8
$T5 = -540						; size = 8
$T6 = -532						; size = 8
$T7 = -524						; size = 8
$T8 = -516						; size = 4
$T9 = -512						; size = 8
$T10 = -504						; size = 8
$T11 = -496						; size = 8
$T12 = -488						; size = 4
$T13 = -484						; size = 4
$T14 = -480						; size = 4
$T15 = -476						; size = 4
$T16 = -472						; size = 4
$T17 = -468						; size = 4
$T18 = -464						; size = 4
$T19 = -460						; size = 4
$T20 = -456						; size = 4
$T21 = -452						; size = 4
$T22 = -448						; size = 4
$T23 = -444						; size = 4
$T24 = -440						; size = 4
$T25 = -436						; size = 4
$T26 = -432						; size = 4
$T27 = -428						; size = 4
$T28 = -424						; size = 8
$T29 = -416						; size = 4
$T30 = -412						; size = 4
$T31 = -408						; size = 4
$T32 = -404						; size = 4
___t$ = -400						; size = 4
___t$ = -396						; size = 4
___n$ = -392						; size = 4
___n$ = -388						; size = 4
_v2QuadPoints$33 = -384					; size = 16
_this$ = -368						; size = 4
$T34 = -364						; size = 12
$T35 = -352						; size = 12
$T36 = -340						; size = 12
$T37 = -328						; size = 12
$T38 = -316						; size = 12
$T39 = -304						; size = 12
$T40 = -292						; size = 12
$T41 = -280						; size = 12
$T42 = -268						; size = 12
$T43 = -256						; size = 12
$T44 = -244						; size = 12
$T45 = -232						; size = 12
$T46 = -220						; size = 12
$T47 = -208						; size = 12
$T48 = -196						; size = 12
$T49 = -184						; size = 12
$T50 = -172						; size = 12
$T51 = -160						; size = 12
$T52 = -148						; size = 12
$T53 = -136						; size = 12
$T54 = -124						; size = 12
$T55 = -112						; size = 12
$T56 = -100						; size = 12
$T57 = -88						; size = 12
$T58 = -76						; size = 12
$T59 = -64						; size = 12
$T60 = -52						; size = 12
$T61 = -40						; size = 12
$T62 = -28						; size = 12
$T63 = -16						; size = 12
$T64 = -4						; size = 12
$T65 = 8						; size = 12
$T66 = 20						; size = 12
$T67 = 32						; size = 12
$T68 = 44						; size = 12
$T69 = 56						; size = 12
_v3QuadPoints$ = 68					; size = 48
__$ArrayPad$ = 116					; size = 4
?Refresh@CSkyBox@@QAEXXZ PROC				; CSkyBox::Refresh, COMDAT
; _this$ = ecx

; 432  : {

  00000	55		 push	 ebp
  00001	8d 6c 24 88	 lea	 ebp, DWORD PTR [esp-120]
  00005	81 ec b0 02 00
	00		 sub	 esp, 688		; 000002b0H
  0000b	a1 00 00 00 00	 mov	 eax, DWORD PTR ___security_cookie
  00010	33 c5		 xor	 eax, ebp
  00012	89 45 74	 mov	 DWORD PTR __$ArrayPad$[ebp], eax
  00015	56		 push	 esi
  00016	57		 push	 edi
  00017	89 8d 90 fe ff
	ff		 mov	 DWORD PTR _this$[ebp], ecx

; 433  : 	D3DXVECTOR3 v3QuadPoints[4];

  0001d	c7 85 7c fe ff
	ff 04 00 00 00	 mov	 DWORD PTR ___n$[ebp], 4
  00027	8d 45 44	 lea	 eax, DWORD PTR _v3QuadPoints$[ebp]
  0002a	89 85 74 fe ff
	ff		 mov	 DWORD PTR ___t$[ebp], eax
$LN9@Refresh:
  00030	8b 85 7c fe ff
	ff		 mov	 eax, DWORD PTR ___n$[ebp]
  00036	89 85 d4 fd ff
	ff		 mov	 DWORD PTR tv674[ebp], eax
  0003c	8b 85 7c fe ff
	ff		 mov	 eax, DWORD PTR ___n$[ebp]
  00042	48		 dec	 eax
  00043	89 85 7c fe ff
	ff		 mov	 DWORD PTR ___n$[ebp], eax
  00049	83 bd d4 fd ff
	ff 00		 cmp	 DWORD PTR tv674[ebp], 0
  00050	76 11		 jbe	 SHORT $LN10@Refresh
  00052	8b 85 74 fe ff
	ff		 mov	 eax, DWORD PTR ___t$[ebp]
  00058	83 c0 0c	 add	 eax, 12			; 0000000cH
  0005b	89 85 74 fe ff
	ff		 mov	 DWORD PTR ___t$[ebp], eax
  00061	eb cd		 jmp	 SHORT $LN9@Refresh
$LN10@Refresh:

; 434  : 
; 435  : 	if( m_ucRenderMode == CSkyObject::SKY_RENDER_MODE_DEFAULT ||  m_ucRenderMode == CSkyObject::SKY_RENDER_MODE_DIFFUSE )

  00063	8b 85 90 fe ff
	ff		 mov	 eax, DWORD PTR _this$[ebp]
  00069	0f b6 80 d4 01
	00 00		 movzx	 eax, BYTE PTR [eax+468]
  00070	85 c0		 test	 eax, eax
  00072	74 16		 je	 SHORT $LN4@Refresh
  00074	8b 85 90 fe ff
	ff		 mov	 eax, DWORD PTR _this$[ebp]
  0007a	0f b6 80 d4 01
	00 00		 movzx	 eax, BYTE PTR [eax+468]
  00081	83 f8 01	 cmp	 eax, 1
  00084	0f 85 85 06 00
	00		 jne	 $LN2@Refresh
$LN4@Refresh:

; 436  : 	{
; 437  : 		if (m_ucVirticalGradientLevelUpper + m_ucVirticalGradientLevelLower <= 0)

  0008a	8b 85 90 fe ff
	ff		 mov	 eax, DWORD PTR _this$[ebp]
  00090	0f b6 80 14 02
	00 00		 movzx	 eax, BYTE PTR [eax+532]
  00097	8b 8d 90 fe ff
	ff		 mov	 ecx, DWORD PTR _this$[ebp]
  0009d	0f b6 89 15 02
	00 00		 movzx	 ecx, BYTE PTR [ecx+533]
  000a4	03 c1		 add	 eax, ecx
  000a6	85 c0		 test	 eax, eax
  000a8	7f 05		 jg	 SHORT $LN5@Refresh

; 438  : 			return;

  000aa	e9 b5 0f 00 00	 jmp	 $LN1@Refresh
$LN5@Refresh:

; 439  : 
; 440  : 		D3DXVECTOR2 v2QuadPoints[2];

  000af	c7 85 78 fe ff
	ff 02 00 00 00	 mov	 DWORD PTR ___n$[ebp], 2
  000b9	8d 85 80 fe ff
	ff		 lea	 eax, DWORD PTR _v2QuadPoints$33[ebp]
  000bf	89 85 70 fe ff
	ff		 mov	 DWORD PTR ___t$[ebp], eax
$LN15@Refresh:
  000c5	8b 85 78 fe ff
	ff		 mov	 eax, DWORD PTR ___n$[ebp]
  000cb	89 85 d0 fd ff
	ff		 mov	 DWORD PTR tv66[ebp], eax
  000d1	8b 85 78 fe ff
	ff		 mov	 eax, DWORD PTR ___n$[ebp]
  000d7	48		 dec	 eax
  000d8	89 85 78 fe ff
	ff		 mov	 DWORD PTR ___n$[ebp], eax
  000de	83 bd d0 fd ff
	ff 00		 cmp	 DWORD PTR tv66[ebp], 0
  000e5	76 11		 jbe	 SHORT $LN16@Refresh
  000e7	8b 85 70 fe ff
	ff		 mov	 eax, DWORD PTR ___t$[ebp]
  000ed	83 c0 08	 add	 eax, 8
  000f0	89 85 70 fe ff
	ff		 mov	 DWORD PTR ___t$[ebp], eax
  000f6	eb cd		 jmp	 SHORT $LN15@Refresh
$LN16@Refresh:
; File D:\Metin2 Server Files\mainline\SRC_2014\M2Data\include\d3dx8math.inl

; 41   :     x = fx;

  000f8	f3 0f 10 05 00
	00 00 00	 movss	 xmm0, DWORD PTR __real@3f800000
  00100	f3 0f 11 85 10
	fe ff ff	 movss	 DWORD PTR $T11[ebp], xmm0

; 42   :     y = fy;

  00108	f3 0f 10 05 00
	00 00 00	 movss	 xmm0, DWORD PTR __real@bf800000
  00110	f3 0f 11 85 14
	fe ff ff	 movss	 DWORD PTR $T11[ebp+4], xmm0
; File D:\Metin2 Server Files\mainline\SRC_2014\Metin2Client\EterLib\SkyBox.cpp

; 443  : 		v2QuadPoints[0] = D3DXVECTOR2(1.0f, -1.0f);

  00118	8b 85 10 fe ff
	ff		 mov	 eax, DWORD PTR $T11[ebp]
  0011e	8b 8d 14 fe ff
	ff		 mov	 ecx, DWORD PTR $T11[ebp+4]
  00124	6a 08		 push	 8
  00126	5a		 pop	 edx
  00127	6b d2 00	 imul	 edx, edx, 0
  0012a	89 84 15 80 fe
	ff ff		 mov	 DWORD PTR _v2QuadPoints$33[ebp+edx], eax
  00131	89 8c 15 84 fe
	ff ff		 mov	 DWORD PTR _v2QuadPoints$33[ebp+edx+4], ecx
; File D:\Metin2 Server Files\mainline\SRC_2014\M2Data\include\d3dx8math.inl

; 41   :     x = fx;

  00138	f3 0f 10 05 00
	00 00 00	 movss	 xmm0, DWORD PTR __real@bf800000
  00140	f3 0f 11 85 08
	fe ff ff	 movss	 DWORD PTR $T10[ebp], xmm0

; 42   :     y = fy;

  00148	f3 0f 10 05 00
	00 00 00	 movss	 xmm0, DWORD PTR __real@bf800000
  00150	f3 0f 11 85 0c
	fe ff ff	 movss	 DWORD PTR $T10[ebp+4], xmm0
; File D:\Metin2 Server Files\mainline\SRC_2014\Metin2Client\EterLib\SkyBox.cpp

; 444  : 		v2QuadPoints[1] = D3DXVECTOR2(-1.0f, -1.0f);

  00158	8b 85 08 fe ff
	ff		 mov	 eax, DWORD PTR $T10[ebp]
  0015e	8b 8d 0c fe ff
	ff		 mov	 ecx, DWORD PTR $T10[ebp+4]
  00164	6a 08		 push	 8
  00166	5a		 pop	 edx
  00167	c1 e2 00	 shl	 edx, 0
  0016a	89 84 15 80 fe
	ff ff		 mov	 DWORD PTR _v2QuadPoints$33[ebp+edx], eax
  00171	89 8c 15 84 fe
	ff ff		 mov	 DWORD PTR _v2QuadPoints$33[ebp+edx+4], ecx

; 445  : 		SetSkyObjectQuadVertical(&m_Faces[0].m_SkyObjectQuadVector, v2QuadPoints);

  00178	8d 85 80 fe ff
	ff		 lea	 eax, DWORD PTR _v2QuadPoints$33[ebp]
  0017e	50		 push	 eax
  0017f	6a 3c		 push	 60			; 0000003cH
  00181	58		 pop	 eax
  00182	6b c0 00	 imul	 eax, eax, 0
  00185	8b 8d 90 fe ff
	ff		 mov	 ecx, DWORD PTR _this$[ebp]
  0018b	8d 84 01 48 02
	00 00		 lea	 eax, DWORD PTR [ecx+eax+584]
  00192	50		 push	 eax
  00193	8b 8d 90 fe ff
	ff		 mov	 ecx, DWORD PTR _this$[ebp]
  00199	e8 00 00 00 00	 call	 ?SetSkyObjectQuadVertical@CSkyBox@@IAEXPAV?$vector@VCSkyObjectQuad@@V?$allocator@VCSkyObjectQuad@@@std@@@std@@PBUD3DXVECTOR2@@@Z ; CSkyBox::SetSkyObjectQuadVertical
; File C:\Program Files (x86)\Microsoft Visual Studio\2019\Community\VC\Tools\MSVC\14.28.29333\include\xstring

; 389  :         return _CSTD strlen(reinterpret_cast<const char*>(_First));

  0019e	68 00 00 00 00	 push	 OFFSET ??_C@_05HJNNLMDJ@front@
  001a3	e8 00 00 00 00	 call	 _strlen
  001a8	59		 pop	 ecx
  001a9	89 85 cc fd ff
	ff		 mov	 DWORD PTR $T2[ebp], eax
; File C:\Program Files (x86)\Microsoft Visual Studio\2019\Community\VC\Tools\MSVC\14.28.29333\include\xmemory

; 997  :     return _Len;

  001af	8b 85 cc fd ff
	ff		 mov	 eax, DWORD PTR $T2[ebp]
  001b5	89 85 c8 fd ff
	ff		 mov	 DWORD PTR $T1[ebp], eax
; File C:\Program Files (x86)\Microsoft Visual Studio\2019\Community\VC\Tools\MSVC\14.28.29333\include\xstring

; 3062 :         return assign(_Ptr, _Convert_size<size_type>(_Traits::length(_Ptr)));

  001bb	ff b5 c8 fd ff
	ff		 push	 DWORD PTR $T1[ebp]
  001c1	68 00 00 00 00	 push	 OFFSET ??_C@_05HJNNLMDJ@front@
; File D:\Metin2 Server Files\mainline\SRC_2014\Metin2Client\EterLib\SkyBox.cpp

; 446  : 		m_Faces[0].m_strfacename = "front";

  001c6	6a 3c		 push	 60			; 0000003cH
  001c8	58		 pop	 eax
  001c9	6b c0 00	 imul	 eax, eax, 0
  001cc	8b 8d 90 fe ff
	ff		 mov	 ecx, DWORD PTR _this$[ebp]
  001d2	8d 8c 01 18 02
	00 00		 lea	 ecx, DWORD PTR [ecx+eax+536]
; File C:\Program Files (x86)\Microsoft Visual Studio\2019\Community\VC\Tools\MSVC\14.28.29333\include\xstring

; 3062 :         return assign(_Ptr, _Convert_size<size_type>(_Traits::length(_Ptr)));

  001d9	e8 00 00 00 00	 call	 ?assign@?$basic_string@DU?$char_traits@D@std@@V?$allocator@D@2@@std@@QAEAAV12@QBDI@Z ; std::basic_string<char,std::char_traits<char>,std::allocator<char> >::assign
; File D:\Metin2 Server Files\mainline\SRC_2014\M2Data\include\d3dx8math.inl

; 41   :     x = fx;

  001de	f3 0f 10 05 00
	00 00 00	 movss	 xmm0, DWORD PTR __real@bf800000
  001e6	f3 0f 11 85 00
	fe ff ff	 movss	 DWORD PTR $T9[ebp], xmm0

; 42   :     y = fy;

  001ee	f3 0f 10 05 00
	00 00 00	 movss	 xmm0, DWORD PTR __real@3f800000
  001f6	f3 0f 11 85 04
	fe ff ff	 movss	 DWORD PTR $T9[ebp+4], xmm0
; File D:\Metin2 Server Files\mainline\SRC_2014\Metin2Client\EterLib\SkyBox.cpp

; 449  : 		v2QuadPoints[0] = D3DXVECTOR2(-1.0f, 1.0f);

  001fe	8b 85 00 fe ff
	ff		 mov	 eax, DWORD PTR $T9[ebp]
  00204	8b 8d 04 fe ff
	ff		 mov	 ecx, DWORD PTR $T9[ebp+4]
  0020a	6a 08		 push	 8
  0020c	5a		 pop	 edx
  0020d	6b d2 00	 imul	 edx, edx, 0
  00210	89 84 15 80 fe
	ff ff		 mov	 DWORD PTR _v2QuadPoints$33[ebp+edx], eax
  00217	89 8c 15 84 fe
	ff ff		 mov	 DWORD PTR _v2QuadPoints$33[ebp+edx+4], ecx
; File D:\Metin2 Server Files\mainline\SRC_2014\M2Data\include\d3dx8math.inl

; 41   :     x = fx;

  0021e	f3 0f 10 05 00
	00 00 00	 movss	 xmm0, DWORD PTR __real@3f800000
  00226	f3 0f 11 85 f4
	fd ff ff	 movss	 DWORD PTR $T7[ebp], xmm0

; 42   :     y = fy;

  0022e	f3 0f 10 05 00
	00 00 00	 movss	 xmm0, DWORD PTR __real@3f800000
  00236	f3 0f 11 85 f8
	fd ff ff	 movss	 DWORD PTR $T7[ebp+4], xmm0
; File D:\Metin2 Server Files\mainline\SRC_2014\Metin2Client\EterLib\SkyBox.cpp

; 450  : 		v2QuadPoints[1] = D3DXVECTOR2(1.0f, 1.0f);

  0023e	8b 85 f4 fd ff
	ff		 mov	 eax, DWORD PTR $T7[ebp]
  00244	8b 8d f8 fd ff
	ff		 mov	 ecx, DWORD PTR $T7[ebp+4]
  0024a	6a 08		 push	 8
  0024c	5a		 pop	 edx
  0024d	c1 e2 00	 shl	 edx, 0
  00250	89 84 15 80 fe
	ff ff		 mov	 DWORD PTR _v2QuadPoints$33[ebp+edx], eax
  00257	89 8c 15 84 fe
	ff ff		 mov	 DWORD PTR _v2QuadPoints$33[ebp+edx+4], ecx

; 451  : 		SetSkyObjectQuadVertical(&m_Faces[1].m_SkyObjectQuadVector, v2QuadPoints);

  0025e	8d 85 80 fe ff
	ff		 lea	 eax, DWORD PTR _v2QuadPoints$33[ebp]
  00264	50		 push	 eax
  00265	6a 3c		 push	 60			; 0000003cH
  00267	58		 pop	 eax
  00268	c1 e0 00	 shl	 eax, 0
  0026b	8b 8d 90 fe ff
	ff		 mov	 ecx, DWORD PTR _this$[ebp]
  00271	8d 84 01 48 02
	00 00		 lea	 eax, DWORD PTR [ecx+eax+584]
  00278	50		 push	 eax
  00279	8b 8d 90 fe ff
	ff		 mov	 ecx, DWORD PTR _this$[ebp]
  0027f	e8 00 00 00 00	 call	 ?SetSkyObjectQuadVertical@CSkyBox@@IAEXPAV?$vector@VCSkyObjectQuad@@V?$allocator@VCSkyObjectQuad@@@std@@@std@@PBUD3DXVECTOR2@@@Z ; CSkyBox::SetSkyObjectQuadVertical
; File C:\Program Files (x86)\Microsoft Visual Studio\2019\Community\VC\Tools\MSVC\14.28.29333\include\xstring

; 389  :         return _CSTD strlen(reinterpret_cast<const char*>(_First));

  00284	68 00 00 00 00	 push	 OFFSET ??_C@_04JFCNHLLM@back@
  00289	e8 00 00 00 00	 call	 _strlen
  0028e	59		 pop	 ecx
  0028f	89 85 d8 fd ff
	ff		 mov	 DWORD PTR $T3[ebp], eax
; File C:\Program Files (x86)\Microsoft Visual Studio\2019\Community\VC\Tools\MSVC\14.28.29333\include\xmemory

; 997  :     return _Len;

  00295	8b 85 d8 fd ff
	ff		 mov	 eax, DWORD PTR $T3[ebp]
  0029b	89 85 6c fe ff
	ff		 mov	 DWORD PTR $T32[ebp], eax
; File C:\Program Files (x86)\Microsoft Visual Studio\2019\Community\VC\Tools\MSVC\14.28.29333\include\xstring

; 3062 :         return assign(_Ptr, _Convert_size<size_type>(_Traits::length(_Ptr)));

  002a1	ff b5 6c fe ff
	ff		 push	 DWORD PTR $T32[ebp]
  002a7	68 00 00 00 00	 push	 OFFSET ??_C@_04JFCNHLLM@back@
; File D:\Metin2 Server Files\mainline\SRC_2014\Metin2Client\EterLib\SkyBox.cpp

; 452  : 		m_Faces[1].m_strfacename = "back";

  002ac	6a 3c		 push	 60			; 0000003cH
  002ae	58		 pop	 eax
  002af	c1 e0 00	 shl	 eax, 0
  002b2	8b 8d 90 fe ff
	ff		 mov	 ecx, DWORD PTR _this$[ebp]
  002b8	8d 8c 01 18 02
	00 00		 lea	 ecx, DWORD PTR [ecx+eax+536]
; File C:\Program Files (x86)\Microsoft Visual Studio\2019\Community\VC\Tools\MSVC\14.28.29333\include\xstring

; 3062 :         return assign(_Ptr, _Convert_size<size_type>(_Traits::length(_Ptr)));

  002bf	e8 00 00 00 00	 call	 ?assign@?$basic_string@DU?$char_traits@D@std@@V?$allocator@D@2@@std@@QAEAAV12@QBDI@Z ; std::basic_string<char,std::char_traits<char>,std::allocator<char> >::assign
; File D:\Metin2 Server Files\mainline\SRC_2014\M2Data\include\d3dx8math.inl

; 41   :     x = fx;

  002c4	f3 0f 10 05 00
	00 00 00	 movss	 xmm0, DWORD PTR __real@bf800000
  002cc	f3 0f 11 85 ec
	fd ff ff	 movss	 DWORD PTR $T6[ebp], xmm0

; 42   :     y = fy;

  002d4	f3 0f 10 05 00
	00 00 00	 movss	 xmm0, DWORD PTR __real@bf800000
  002dc	f3 0f 11 85 f0
	fd ff ff	 movss	 DWORD PTR $T6[ebp+4], xmm0
; File D:\Metin2 Server Files\mainline\SRC_2014\Metin2Client\EterLib\SkyBox.cpp

; 455  : 		v2QuadPoints[0] = D3DXVECTOR2(-1.0f, -1.0f);

  002e4	8b 85 ec fd ff
	ff		 mov	 eax, DWORD PTR $T6[ebp]
  002ea	8b 8d f0 fd ff
	ff		 mov	 ecx, DWORD PTR $T6[ebp+4]
  002f0	6a 08		 push	 8
  002f2	5a		 pop	 edx
  002f3	6b d2 00	 imul	 edx, edx, 0
  002f6	89 84 15 80 fe
	ff ff		 mov	 DWORD PTR _v2QuadPoints$33[ebp+edx], eax
  002fd	89 8c 15 84 fe
	ff ff		 mov	 DWORD PTR _v2QuadPoints$33[ebp+edx+4], ecx
; File D:\Metin2 Server Files\mainline\SRC_2014\M2Data\include\d3dx8math.inl

; 41   :     x = fx;

  00304	f3 0f 10 05 00
	00 00 00	 movss	 xmm0, DWORD PTR __real@bf800000
  0030c	f3 0f 11 85 e4
	fd ff ff	 movss	 DWORD PTR $T5[ebp], xmm0

; 42   :     y = fy;

  00314	f3 0f 10 05 00
	00 00 00	 movss	 xmm0, DWORD PTR __real@3f800000
  0031c	f3 0f 11 85 e8
	fd ff ff	 movss	 DWORD PTR $T5[ebp+4], xmm0
; File D:\Metin2 Server Files\mainline\SRC_2014\Metin2Client\EterLib\SkyBox.cpp

; 456  : 		v2QuadPoints[1] = D3DXVECTOR2(-1.0f, 1.0f);

  00324	8b 85 e4 fd ff
	ff		 mov	 eax, DWORD PTR $T5[ebp]
  0032a	8b 8d e8 fd ff
	ff		 mov	 ecx, DWORD PTR $T5[ebp+4]
  00330	6a 08		 push	 8
  00332	5a		 pop	 edx
  00333	c1 e2 00	 shl	 edx, 0
  00336	89 84 15 80 fe
	ff ff		 mov	 DWORD PTR _v2QuadPoints$33[ebp+edx], eax
  0033d	89 8c 15 84 fe
	ff ff		 mov	 DWORD PTR _v2QuadPoints$33[ebp+edx+4], ecx

; 457  : 		SetSkyObjectQuadVertical(&m_Faces[2].m_SkyObjectQuadVector, v2QuadPoints);

  00344	8d 85 80 fe ff
	ff		 lea	 eax, DWORD PTR _v2QuadPoints$33[ebp]
  0034a	50		 push	 eax
  0034b	6a 3c		 push	 60			; 0000003cH
  0034d	58		 pop	 eax
  0034e	d1 e0		 shl	 eax, 1
  00350	8b 8d 90 fe ff
	ff		 mov	 ecx, DWORD PTR _this$[ebp]
  00356	8d 84 01 48 02
	00 00		 lea	 eax, DWORD PTR [ecx+eax+584]
  0035d	50		 push	 eax
  0035e	8b 8d 90 fe ff
	ff		 mov	 ecx, DWORD PTR _this$[ebp]
  00364	e8 00 00 00 00	 call	 ?SetSkyObjectQuadVertical@CSkyBox@@IAEXPAV?$vector@VCSkyObjectQuad@@V?$allocator@VCSkyObjectQuad@@@std@@@std@@PBUD3DXVECTOR2@@@Z ; CSkyBox::SetSkyObjectQuadVertical
; File C:\Program Files (x86)\Microsoft Visual Studio\2019\Community\VC\Tools\MSVC\14.28.29333\include\xstring

; 389  :         return _CSTD strlen(reinterpret_cast<const char*>(_First));

  00369	68 00 00 00 00	 push	 OFFSET ??_C@_04GOOOJOPP@left@
  0036e	e8 00 00 00 00	 call	 _strlen
  00373	59		 pop	 ecx
  00374	89 85 68 fe ff
	ff		 mov	 DWORD PTR $T31[ebp], eax
; File C:\Program Files (x86)\Microsoft Visual Studio\2019\Community\VC\Tools\MSVC\14.28.29333\include\xmemory

; 997  :     return _Len;

  0037a	8b 85 68 fe ff
	ff		 mov	 eax, DWORD PTR $T31[ebp]
  00380	89 85 64 fe ff
	ff		 mov	 DWORD PTR $T30[ebp], eax
; File C:\Program Files (x86)\Microsoft Visual Studio\2019\Community\VC\Tools\MSVC\14.28.29333\include\xstring

; 3062 :         return assign(_Ptr, _Convert_size<size_type>(_Traits::length(_Ptr)));

  00386	ff b5 64 fe ff
	ff		 push	 DWORD PTR $T30[ebp]
  0038c	68 00 00 00 00	 push	 OFFSET ??_C@_04GOOOJOPP@left@
; File D:\Metin2 Server Files\mainline\SRC_2014\Metin2Client\EterLib\SkyBox.cpp

; 458  : 		m_Faces[2].m_strfacename = "left";

  00391	6a 3c		 push	 60			; 0000003cH
  00393	58		 pop	 eax
  00394	d1 e0		 shl	 eax, 1
  00396	8b 8d 90 fe ff
	ff		 mov	 ecx, DWORD PTR _this$[ebp]
  0039c	8d 8c 01 18 02
	00 00		 lea	 ecx, DWORD PTR [ecx+eax+536]
; File C:\Program Files (x86)\Microsoft Visual Studio\2019\Community\VC\Tools\MSVC\14.28.29333\include\xstring

; 3062 :         return assign(_Ptr, _Convert_size<size_type>(_Traits::length(_Ptr)));

  003a3	e8 00 00 00 00	 call	 ?assign@?$basic_string@DU?$char_traits@D@std@@V?$allocator@D@2@@std@@QAEAAV12@QBDI@Z ; std::basic_string<char,std::char_traits<char>,std::allocator<char> >::assign
; File D:\Metin2 Server Files\mainline\SRC_2014\M2Data\include\d3dx8math.inl

; 41   :     x = fx;

  003a8	f3 0f 10 05 00
	00 00 00	 movss	 xmm0, DWORD PTR __real@3f800000
  003b0	f3 0f 11 85 dc
	fd ff ff	 movss	 DWORD PTR $T4[ebp], xmm0

; 42   :     y = fy;

  003b8	f3 0f 10 05 00
	00 00 00	 movss	 xmm0, DWORD PTR __real@3f800000
  003c0	f3 0f 11 85 e0
	fd ff ff	 movss	 DWORD PTR $T4[ebp+4], xmm0
; File D:\Metin2 Server Files\mainline\SRC_2014\Metin2Client\EterLib\SkyBox.cpp

; 461  : 		v2QuadPoints[0] = D3DXVECTOR2(1.0f, 1.0f);

  003c8	8b 85 dc fd ff
	ff		 mov	 eax, DWORD PTR $T4[ebp]
  003ce	8b 8d e0 fd ff
	ff		 mov	 ecx, DWORD PTR $T4[ebp+4]
  003d4	6a 08		 push	 8
  003d6	5a		 pop	 edx
  003d7	6b d2 00	 imul	 edx, edx, 0
  003da	89 84 15 80 fe
	ff ff		 mov	 DWORD PTR _v2QuadPoints$33[ebp+edx], eax
  003e1	89 8c 15 84 fe
	ff ff		 mov	 DWORD PTR _v2QuadPoints$33[ebp+edx+4], ecx
; File D:\Metin2 Server Files\mainline\SRC_2014\M2Data\include\d3dx8math.inl

; 41   :     x = fx;

  003e8	f3 0f 10 05 00
	00 00 00	 movss	 xmm0, DWORD PTR __real@3f800000
  003f0	f3 0f 11 85 58
	fe ff ff	 movss	 DWORD PTR $T28[ebp], xmm0

; 42   :     y = fy;

  003f8	f3 0f 10 05 00
	00 00 00	 movss	 xmm0, DWORD PTR __real@bf800000
  00400	f3 0f 11 85 5c
	fe ff ff	 movss	 DWORD PTR $T28[ebp+4], xmm0
; File D:\Metin2 Server Files\mainline\SRC_2014\Metin2Client\EterLib\SkyBox.cpp

; 462  : 		v2QuadPoints[1] = D3DXVECTOR2(1.0f, -1.0f);

  00408	8b 85 58 fe ff
	ff		 mov	 eax, DWORD PTR $T28[ebp]
  0040e	8b 8d 5c fe ff
	ff		 mov	 ecx, DWORD PTR $T28[ebp+4]
  00414	6a 08		 push	 8
  00416	5a		 pop	 edx
  00417	c1 e2 00	 shl	 edx, 0
  0041a	89 84 15 80 fe
	ff ff		 mov	 DWORD PTR _v2QuadPoints$33[ebp+edx], eax
  00421	89 8c 15 84 fe
	ff ff		 mov	 DWORD PTR _v2QuadPoints$33[ebp+edx+4], ecx

; 463  : 		SetSkyObjectQuadVertical(&m_Faces[3].m_SkyObjectQuadVector, v2QuadPoints);

  00428	8d 85 80 fe ff
	ff		 lea	 eax, DWORD PTR _v2QuadPoints$33[ebp]
  0042e	50		 push	 eax
  0042f	6a 3c		 push	 60			; 0000003cH
  00431	58		 pop	 eax
  00432	6b c0 03	 imul	 eax, eax, 3
  00435	8b 8d 90 fe ff
	ff		 mov	 ecx, DWORD PTR _this$[ebp]
  0043b	8d 84 01 48 02
	00 00		 lea	 eax, DWORD PTR [ecx+eax+584]
  00442	50		 push	 eax
  00443	8b 8d 90 fe ff
	ff		 mov	 ecx, DWORD PTR _this$[ebp]
  00449	e8 00 00 00 00	 call	 ?SetSkyObjectQuadVertical@CSkyBox@@IAEXPAV?$vector@VCSkyObjectQuad@@V?$allocator@VCSkyObjectQuad@@@std@@@std@@PBUD3DXVECTOR2@@@Z ; CSkyBox::SetSkyObjectQuadVertical
; File C:\Program Files (x86)\Microsoft Visual Studio\2019\Community\VC\Tools\MSVC\14.28.29333\include\xstring

; 389  :         return _CSTD strlen(reinterpret_cast<const char*>(_First));

  0044e	68 00 00 00 00	 push	 OFFSET ??_C@_05DHJDAOHK@right@
  00453	e8 00 00 00 00	 call	 _strlen
  00458	59		 pop	 ecx
  00459	89 85 60 fe ff
	ff		 mov	 DWORD PTR $T29[ebp], eax
; File C:\Program Files (x86)\Microsoft Visual Studio\2019\Community\VC\Tools\MSVC\14.28.29333\include\xmemory

; 997  :     return _Len;

  0045f	8b 85 60 fe ff
	ff		 mov	 eax, DWORD PTR $T29[ebp]
  00465	89 85 54 fe ff
	ff		 mov	 DWORD PTR $T27[ebp], eax
; File C:\Program Files (x86)\Microsoft Visual Studio\2019\Community\VC\Tools\MSVC\14.28.29333\include\xstring

; 3062 :         return assign(_Ptr, _Convert_size<size_type>(_Traits::length(_Ptr)));

  0046b	ff b5 54 fe ff
	ff		 push	 DWORD PTR $T27[ebp]
  00471	68 00 00 00 00	 push	 OFFSET ??_C@_05DHJDAOHK@right@
; File D:\Metin2 Server Files\mainline\SRC_2014\Metin2Client\EterLib\SkyBox.cpp

; 464  : 		m_Faces[3].m_strfacename = "right";

  00476	6a 3c		 push	 60			; 0000003cH
  00478	58		 pop	 eax
  00479	6b c0 03	 imul	 eax, eax, 3
  0047c	8b 8d 90 fe ff
	ff		 mov	 ecx, DWORD PTR _this$[ebp]
  00482	8d 8c 01 18 02
	00 00		 lea	 ecx, DWORD PTR [ecx+eax+536]
; File C:\Program Files (x86)\Microsoft Visual Studio\2019\Community\VC\Tools\MSVC\14.28.29333\include\xstring

; 3062 :         return assign(_Ptr, _Convert_size<size_type>(_Traits::length(_Ptr)));

  00489	e8 00 00 00 00	 call	 ?assign@?$basic_string@DU?$char_traits@D@std@@V?$allocator@D@2@@std@@QAEAAV12@QBDI@Z ; std::basic_string<char,std::char_traits<char>,std::allocator<char> >::assign
; File D:\Metin2 Server Files\mainline\SRC_2014\M2Data\include\d3dx8math.inl

; 180  :     x = fx;

  0048e	f3 0f 10 05 00
	00 00 00	 movss	 xmm0, DWORD PTR __real@3f800000
  00496	f3 0f 11 45 e4	 movss	 DWORD PTR $T62[ebp], xmm0

; 181  :     y = fy;

  0049b	f3 0f 10 05 00
	00 00 00	 movss	 xmm0, DWORD PTR __real@3f800000
  004a3	f3 0f 11 45 e8	 movss	 DWORD PTR $T62[ebp+4], xmm0

; 182  :     z = fz;

  004a8	f3 0f 10 05 00
	00 00 00	 movss	 xmm0, DWORD PTR __real@3f800000
  004b0	f3 0f 11 45 ec	 movss	 DWORD PTR $T62[ebp+8], xmm0
; File D:\Metin2 Server Files\mainline\SRC_2014\Metin2Client\EterLib\SkyBox.cpp

; 467  : 		v3QuadPoints[0] = D3DXVECTOR3(1.0f, 1.0f, 1.0f);

  004b5	6a 0c		 push	 12			; 0000000cH
  004b7	58		 pop	 eax
  004b8	6b c0 00	 imul	 eax, eax, 0
  004bb	8d 7c 05 44	 lea	 edi, DWORD PTR _v3QuadPoints$[ebp+eax]
  004bf	8d 75 e4	 lea	 esi, DWORD PTR $T62[ebp]
  004c2	a5		 movsd
  004c3	a5		 movsd
  004c4	a5		 movsd
; File D:\Metin2 Server Files\mainline\SRC_2014\M2Data\include\d3dx8math.inl

; 180  :     x = fx;

  004c5	f3 0f 10 05 00
	00 00 00	 movss	 xmm0, DWORD PTR __real@bf800000
  004cd	f3 0f 11 45 d8	 movss	 DWORD PTR $T61[ebp], xmm0

; 181  :     y = fy;

  004d2	f3 0f 10 05 00
	00 00 00	 movss	 xmm0, DWORD PTR __real@3f800000
  004da	f3 0f 11 45 dc	 movss	 DWORD PTR $T61[ebp+4], xmm0

; 182  :     z = fz;

  004df	f3 0f 10 05 00
	00 00 00	 movss	 xmm0, DWORD PTR __real@3f800000
  004e7	f3 0f 11 45 e0	 movss	 DWORD PTR $T61[ebp+8], xmm0
; File D:\Metin2 Server Files\mainline\SRC_2014\Metin2Client\EterLib\SkyBox.cpp

; 468  : 		v3QuadPoints[1] = D3DXVECTOR3(-1.0f, 1.0f, 1.0f);

  004ec	6a 0c		 push	 12			; 0000000cH
  004ee	58		 pop	 eax
  004ef	c1 e0 00	 shl	 eax, 0
  004f2	8d 7c 05 44	 lea	 edi, DWORD PTR _v3QuadPoints$[ebp+eax]
  004f6	8d 75 d8	 lea	 esi, DWORD PTR $T61[ebp]
  004f9	a5		 movsd
  004fa	a5		 movsd
  004fb	a5		 movsd
; File D:\Metin2 Server Files\mainline\SRC_2014\M2Data\include\d3dx8math.inl

; 180  :     x = fx;

  004fc	f3 0f 10 05 00
	00 00 00	 movss	 xmm0, DWORD PTR __real@3f800000
  00504	f3 0f 11 45 cc	 movss	 DWORD PTR $T60[ebp], xmm0

; 181  :     y = fy;

  00509	f3 0f 10 05 00
	00 00 00	 movss	 xmm0, DWORD PTR __real@bf800000
  00511	f3 0f 11 45 d0	 movss	 DWORD PTR $T60[ebp+4], xmm0

; 182  :     z = fz;

  00516	f3 0f 10 05 00
	00 00 00	 movss	 xmm0, DWORD PTR __real@3f800000
  0051e	f3 0f 11 45 d4	 movss	 DWORD PTR $T60[ebp+8], xmm0
; File D:\Metin2 Server Files\mainline\SRC_2014\Metin2Client\EterLib\SkyBox.cpp

; 469  : 		v3QuadPoints[2] = D3DXVECTOR3(1.0f, -1.0f, 1.0f);

  00523	6a 0c		 push	 12			; 0000000cH
  00525	58		 pop	 eax
  00526	d1 e0		 shl	 eax, 1
  00528	8d 7c 05 44	 lea	 edi, DWORD PTR _v3QuadPoints$[ebp+eax]
  0052c	8d 75 cc	 lea	 esi, DWORD PTR $T60[ebp]
  0052f	a5		 movsd
  00530	a5		 movsd
  00531	a5		 movsd
; File D:\Metin2 Server Files\mainline\SRC_2014\M2Data\include\d3dx8math.inl

; 180  :     x = fx;

  00532	f3 0f 10 05 00
	00 00 00	 movss	 xmm0, DWORD PTR __real@bf800000
  0053a	f3 0f 11 45 fc	 movss	 DWORD PTR $T64[ebp], xmm0

; 181  :     y = fy;

  0053f	f3 0f 10 05 00
	00 00 00	 movss	 xmm0, DWORD PTR __real@bf800000
  00547	f3 0f 11 45 00	 movss	 DWORD PTR $T64[ebp+4], xmm0

; 182  :     z = fz;

  0054c	f3 0f 10 05 00
	00 00 00	 movss	 xmm0, DWORD PTR __real@3f800000
  00554	f3 0f 11 45 04	 movss	 DWORD PTR $T64[ebp+8], xmm0
; File D:\Metin2 Server Files\mainline\SRC_2014\Metin2Client\EterLib\SkyBox.cpp

; 470  : 		v3QuadPoints[3] = D3DXVECTOR3(-1.0f, -1.0f, 1.0f);

  00559	6a 0c		 push	 12			; 0000000cH
  0055b	58		 pop	 eax
  0055c	6b c0 03	 imul	 eax, eax, 3
  0055f	8d 7c 05 44	 lea	 edi, DWORD PTR _v3QuadPoints$[ebp+eax]
  00563	8d 75 fc	 lea	 esi, DWORD PTR $T64[ebp]
  00566	a5		 movsd
  00567	a5		 movsd
  00568	a5		 movsd

; 471  : 		SetSkyObjectQuadHorizon(&m_Faces[4].m_SkyObjectQuadVector, v3QuadPoints);

  00569	8d 45 44	 lea	 eax, DWORD PTR _v3QuadPoints$[ebp]
  0056c	50		 push	 eax
  0056d	6a 3c		 push	 60			; 0000003cH
  0056f	58		 pop	 eax
  00570	c1 e0 02	 shl	 eax, 2
  00573	8b 8d 90 fe ff
	ff		 mov	 ecx, DWORD PTR _this$[ebp]
  00579	8d 84 01 48 02
	00 00		 lea	 eax, DWORD PTR [ecx+eax+584]
  00580	50		 push	 eax
  00581	8b 8d 90 fe ff
	ff		 mov	 ecx, DWORD PTR _this$[ebp]
  00587	e8 00 00 00 00	 call	 ?SetSkyObjectQuadHorizon@CSkyBox@@IAEXPAV?$vector@VCSkyObjectQuad@@V?$allocator@VCSkyObjectQuad@@@std@@@std@@PBUD3DXVECTOR3@@@Z ; CSkyBox::SetSkyObjectQuadHorizon
; File C:\Program Files (x86)\Microsoft Visual Studio\2019\Community\VC\Tools\MSVC\14.28.29333\include\xstring

; 389  :         return _CSTD strlen(reinterpret_cast<const char*>(_First));

  0058c	68 00 00 00 00	 push	 OFFSET ??_C@_03FGFCOCMD@top@
  00591	e8 00 00 00 00	 call	 _strlen
  00596	59		 pop	 ecx
  00597	89 85 50 fe ff
	ff		 mov	 DWORD PTR $T26[ebp], eax
; File C:\Program Files (x86)\Microsoft Visual Studio\2019\Community\VC\Tools\MSVC\14.28.29333\include\xmemory

; 997  :     return _Len;

  0059d	8b 85 50 fe ff
	ff		 mov	 eax, DWORD PTR $T26[ebp]
  005a3	89 85 4c fe ff
	ff		 mov	 DWORD PTR $T25[ebp], eax
; File C:\Program Files (x86)\Microsoft Visual Studio\2019\Community\VC\Tools\MSVC\14.28.29333\include\xstring

; 3062 :         return assign(_Ptr, _Convert_size<size_type>(_Traits::length(_Ptr)));

  005a9	ff b5 4c fe ff
	ff		 push	 DWORD PTR $T25[ebp]
  005af	68 00 00 00 00	 push	 OFFSET ??_C@_03FGFCOCMD@top@
; File D:\Metin2 Server Files\mainline\SRC_2014\Metin2Client\EterLib\SkyBox.cpp

; 472  : 		m_Faces[4].m_strfacename = "top";

  005b4	6a 3c		 push	 60			; 0000003cH
  005b6	58		 pop	 eax
  005b7	c1 e0 02	 shl	 eax, 2
  005ba	8b 8d 90 fe ff
	ff		 mov	 ecx, DWORD PTR _this$[ebp]
  005c0	8d 8c 01 18 02
	00 00		 lea	 ecx, DWORD PTR [ecx+eax+536]
; File C:\Program Files (x86)\Microsoft Visual Studio\2019\Community\VC\Tools\MSVC\14.28.29333\include\xstring

; 3062 :         return assign(_Ptr, _Convert_size<size_type>(_Traits::length(_Ptr)));

  005c7	e8 00 00 00 00	 call	 ?assign@?$basic_string@DU?$char_traits@D@std@@V?$allocator@D@2@@std@@QAEAAV12@QBDI@Z ; std::basic_string<char,std::char_traits<char>,std::allocator<char> >::assign
; File D:\Metin2 Server Files\mainline\SRC_2014\M2Data\include\d3dx8math.inl

; 180  :     x = fx;

  005cc	f3 0f 10 05 00
	00 00 00	 movss	 xmm0, DWORD PTR __real@bf800000
  005d4	f3 0f 11 45 c0	 movss	 DWORD PTR $T59[ebp], xmm0

; 181  :     y = fy;

  005d9	f3 0f 10 05 00
	00 00 00	 movss	 xmm0, DWORD PTR __real@3f800000
  005e1	f3 0f 11 45 c4	 movss	 DWORD PTR $T59[ebp+4], xmm0

; 182  :     z = fz;

  005e6	f3 0f 10 05 00
	00 00 00	 movss	 xmm0, DWORD PTR __real@bf800000
  005ee	f3 0f 11 45 c8	 movss	 DWORD PTR $T59[ebp+8], xmm0
; File D:\Metin2 Server Files\mainline\SRC_2014\Metin2Client\EterLib\SkyBox.cpp

; 475  : 		v3QuadPoints[0] = D3DXVECTOR3(-1.0f, 1.0f, -1.0f);

  005f3	6a 0c		 push	 12			; 0000000cH
  005f5	58		 pop	 eax
  005f6	6b c0 00	 imul	 eax, eax, 0
  005f9	8d 7c 05 44	 lea	 edi, DWORD PTR _v3QuadPoints$[ebp+eax]
  005fd	8d 75 c0	 lea	 esi, DWORD PTR $T59[ebp]
  00600	a5		 movsd
  00601	a5		 movsd
  00602	a5		 movsd
; File D:\Metin2 Server Files\mainline\SRC_2014\M2Data\include\d3dx8math.inl

; 180  :     x = fx;

  00603	f3 0f 10 05 00
	00 00 00	 movss	 xmm0, DWORD PTR __real@3f800000
  0060b	f3 0f 11 45 b4	 movss	 DWORD PTR $T58[ebp], xmm0

; 181  :     y = fy;

  00610	f3 0f 10 05 00
	00 00 00	 movss	 xmm0, DWORD PTR __real@3f800000
  00618	f3 0f 11 45 b8	 movss	 DWORD PTR $T58[ebp+4], xmm0

; 182  :     z = fz;

  0061d	f3 0f 10 05 00
	00 00 00	 movss	 xmm0, DWORD PTR __real@bf800000
  00625	f3 0f 11 45 bc	 movss	 DWORD PTR $T58[ebp+8], xmm0
; File D:\Metin2 Server Files\mainline\SRC_2014\Metin2Client\EterLib\SkyBox.cpp

; 476  : 		v3QuadPoints[1] = D3DXVECTOR3(1.0f, 1.0f, -1.0f);

  0062a	6a 0c		 push	 12			; 0000000cH
  0062c	58		 pop	 eax
  0062d	c1 e0 00	 shl	 eax, 0
  00630	8d 7c 05 44	 lea	 edi, DWORD PTR _v3QuadPoints$[ebp+eax]
  00634	8d 75 b4	 lea	 esi, DWORD PTR $T58[ebp]
  00637	a5		 movsd
  00638	a5		 movsd
  00639	a5		 movsd
; File D:\Metin2 Server Files\mainline\SRC_2014\M2Data\include\d3dx8math.inl

; 180  :     x = fx;

  0063a	f3 0f 10 05 00
	00 00 00	 movss	 xmm0, DWORD PTR __real@bf800000
  00642	f3 0f 11 45 a8	 movss	 DWORD PTR $T57[ebp], xmm0

; 181  :     y = fy;

  00647	f3 0f 10 05 00
	00 00 00	 movss	 xmm0, DWORD PTR __real@bf800000
  0064f	f3 0f 11 45 ac	 movss	 DWORD PTR $T57[ebp+4], xmm0

; 182  :     z = fz;

  00654	f3 0f 10 05 00
	00 00 00	 movss	 xmm0, DWORD PTR __real@bf800000
  0065c	f3 0f 11 45 b0	 movss	 DWORD PTR $T57[ebp+8], xmm0
; File D:\Metin2 Server Files\mainline\SRC_2014\Metin2Client\EterLib\SkyBox.cpp

; 477  : 		v3QuadPoints[2] = D3DXVECTOR3(-1.0f, -1.0f, -1.0f);

  00661	6a 0c		 push	 12			; 0000000cH
  00663	58		 pop	 eax
  00664	d1 e0		 shl	 eax, 1
  00666	8d 7c 05 44	 lea	 edi, DWORD PTR _v3QuadPoints$[ebp+eax]
  0066a	8d 75 a8	 lea	 esi, DWORD PTR $T57[ebp]
  0066d	a5		 movsd
  0066e	a5		 movsd
  0066f	a5		 movsd
; File D:\Metin2 Server Files\mainline\SRC_2014\M2Data\include\d3dx8math.inl

; 180  :     x = fx;

  00670	f3 0f 10 05 00
	00 00 00	 movss	 xmm0, DWORD PTR __real@3f800000
  00678	f3 0f 11 45 9c	 movss	 DWORD PTR $T56[ebp], xmm0

; 181  :     y = fy;

  0067d	f3 0f 10 05 00
	00 00 00	 movss	 xmm0, DWORD PTR __real@bf800000
  00685	f3 0f 11 45 a0	 movss	 DWORD PTR $T56[ebp+4], xmm0

; 182  :     z = fz;

  0068a	f3 0f 10 05 00
	00 00 00	 movss	 xmm0, DWORD PTR __real@bf800000
  00692	f3 0f 11 45 a4	 movss	 DWORD PTR $T56[ebp+8], xmm0
; File D:\Metin2 Server Files\mainline\SRC_2014\Metin2Client\EterLib\SkyBox.cpp

; 478  : 		v3QuadPoints[3] = D3DXVECTOR3(1.0f, -1.0f, -1.0f);

  00697	6a 0c		 push	 12			; 0000000cH
  00699	58		 pop	 eax
  0069a	6b c0 03	 imul	 eax, eax, 3
  0069d	8d 7c 05 44	 lea	 edi, DWORD PTR _v3QuadPoints$[ebp+eax]
  006a1	8d 75 9c	 lea	 esi, DWORD PTR $T56[ebp]
  006a4	a5		 movsd
  006a5	a5		 movsd
  006a6	a5		 movsd

; 479  : 		SetSkyObjectQuadHorizon(&m_Faces[5].m_SkyObjectQuadVector, v3QuadPoints);

  006a7	8d 45 44	 lea	 eax, DWORD PTR _v3QuadPoints$[ebp]
  006aa	50		 push	 eax
  006ab	6a 3c		 push	 60			; 0000003cH
  006ad	58		 pop	 eax
  006ae	6b c0 05	 imul	 eax, eax, 5
  006b1	8b 8d 90 fe ff
	ff		 mov	 ecx, DWORD PTR _this$[ebp]
  006b7	8d 84 01 48 02
	00 00		 lea	 eax, DWORD PTR [ecx+eax+584]
  006be	50		 push	 eax
  006bf	8b 8d 90 fe ff
	ff		 mov	 ecx, DWORD PTR _this$[ebp]
  006c5	e8 00 00 00 00	 call	 ?SetSkyObjectQuadHorizon@CSkyBox@@IAEXPAV?$vector@VCSkyObjectQuad@@V?$allocator@VCSkyObjectQuad@@@std@@@std@@PBUD3DXVECTOR3@@@Z ; CSkyBox::SetSkyObjectQuadHorizon
; File C:\Program Files (x86)\Microsoft Visual Studio\2019\Community\VC\Tools\MSVC\14.28.29333\include\xstring

; 389  :         return _CSTD strlen(reinterpret_cast<const char*>(_First));

  006ca	68 00 00 00 00	 push	 OFFSET ??_C@_06PMMPCIPB@bottom@
  006cf	e8 00 00 00 00	 call	 _strlen
  006d4	59		 pop	 ecx
  006d5	89 85 48 fe ff
	ff		 mov	 DWORD PTR $T24[ebp], eax
; File C:\Program Files (x86)\Microsoft Visual Studio\2019\Community\VC\Tools\MSVC\14.28.29333\include\xmemory

; 997  :     return _Len;

  006db	8b 85 48 fe ff
	ff		 mov	 eax, DWORD PTR $T24[ebp]
  006e1	89 85 44 fe ff
	ff		 mov	 DWORD PTR $T23[ebp], eax
; File C:\Program Files (x86)\Microsoft Visual Studio\2019\Community\VC\Tools\MSVC\14.28.29333\include\xstring

; 3062 :         return assign(_Ptr, _Convert_size<size_type>(_Traits::length(_Ptr)));

  006e7	ff b5 44 fe ff
	ff		 push	 DWORD PTR $T23[ebp]
  006ed	68 00 00 00 00	 push	 OFFSET ??_C@_06PMMPCIPB@bottom@
; File D:\Metin2 Server Files\mainline\SRC_2014\Metin2Client\EterLib\SkyBox.cpp

; 480  : 		m_Faces[5].m_strfacename = "bottom";

  006f2	6a 3c		 push	 60			; 0000003cH
  006f4	58		 pop	 eax
  006f5	6b c0 05	 imul	 eax, eax, 5
  006f8	8b 8d 90 fe ff
	ff		 mov	 ecx, DWORD PTR _this$[ebp]
  006fe	8d 8c 01 18 02
	00 00		 lea	 ecx, DWORD PTR [ecx+eax+536]
; File C:\Program Files (x86)\Microsoft Visual Studio\2019\Community\VC\Tools\MSVC\14.28.29333\include\xstring

; 3062 :         return assign(_Ptr, _Convert_size<size_type>(_Traits::length(_Ptr)));

  00705	e8 00 00 00 00	 call	 ?assign@?$basic_string@DU?$char_traits@D@std@@V?$allocator@D@2@@std@@QAEAAV12@QBDI@Z ; std::basic_string<char,std::char_traits<char>,std::allocator<char> >::assign
; File D:\Metin2 Server Files\mainline\SRC_2014\Metin2Client\EterLib\SkyBox.cpp

; 482  : 	}

  0070a	e9 69 08 00 00	 jmp	 $LN294@Refresh
$LN2@Refresh:

; 483  : 	else if( m_ucRenderMode == CSkyObject::SKY_RENDER_MODE_TEXTURE )

  0070f	8b 85 90 fe ff
	ff		 mov	 eax, DWORD PTR _this$[ebp]
  00715	0f b6 80 d4 01
	00 00		 movzx	 eax, BYTE PTR [eax+468]
  0071c	83 f8 02	 cmp	 eax, 2
  0071f	0f 85 53 08 00
	00		 jne	 $LN294@Refresh
; File D:\Metin2 Server Files\mainline\SRC_2014\M2Data\include\d3dx8math.inl

; 180  :     x = fx;

  00725	f3 0f 10 05 00
	00 00 00	 movss	 xmm0, DWORD PTR __real@3f800000
  0072d	f3 0f 11 45 f0	 movss	 DWORD PTR $T63[ebp], xmm0

; 181  :     y = fy;

  00732	f3 0f 10 05 00
	00 00 00	 movss	 xmm0, DWORD PTR __real@bf800000
  0073a	f3 0f 11 45 f4	 movss	 DWORD PTR $T63[ebp+4], xmm0

; 182  :     z = fz;

  0073f	f3 0f 10 05 00
	00 00 00	 movss	 xmm0, DWORD PTR __real@bf800000
  00747	f3 0f 11 45 f8	 movss	 DWORD PTR $T63[ebp+8], xmm0
; File D:\Metin2 Server Files\mainline\SRC_2014\Metin2Client\EterLib\SkyBox.cpp

; 486  : 		v3QuadPoints[0] = D3DXVECTOR3(1.0f, -1.0f, -1.0f);

  0074c	6a 0c		 push	 12			; 0000000cH
  0074e	58		 pop	 eax
  0074f	6b c0 00	 imul	 eax, eax, 0
  00752	8d 7c 05 44	 lea	 edi, DWORD PTR _v3QuadPoints$[ebp+eax]
  00756	8d 75 f0	 lea	 esi, DWORD PTR $T63[ebp]
  00759	a5		 movsd
  0075a	a5		 movsd
  0075b	a5		 movsd
; File D:\Metin2 Server Files\mainline\SRC_2014\M2Data\include\d3dx8math.inl

; 180  :     x = fx;

  0075c	f3 0f 10 05 00
	00 00 00	 movss	 xmm0, DWORD PTR __real@3f800000
  00764	f3 0f 11 45 90	 movss	 DWORD PTR $T55[ebp], xmm0

; 181  :     y = fy;

  00769	f3 0f 10 05 00
	00 00 00	 movss	 xmm0, DWORD PTR __real@bf800000
  00771	f3 0f 11 45 94	 movss	 DWORD PTR $T55[ebp+4], xmm0

; 182  :     z = fz;

  00776	f3 0f 10 05 00
	00 00 00	 movss	 xmm0, DWORD PTR __real@3f800000
  0077e	f3 0f 11 45 98	 movss	 DWORD PTR $T55[ebp+8], xmm0
; File D:\Metin2 Server Files\mainline\SRC_2014\Metin2Client\EterLib\SkyBox.cpp

; 487  : 		v3QuadPoints[1] = D3DXVECTOR3(1.0f, -1.0f, 1.0f);

  00783	6a 0c		 push	 12			; 0000000cH
  00785	58		 pop	 eax
  00786	c1 e0 00	 shl	 eax, 0
  00789	8d 7c 05 44	 lea	 edi, DWORD PTR _v3QuadPoints$[ebp+eax]
  0078d	8d 75 90	 lea	 esi, DWORD PTR $T55[ebp]
  00790	a5		 movsd
  00791	a5		 movsd
  00792	a5		 movsd
; File D:\Metin2 Server Files\mainline\SRC_2014\M2Data\include\d3dx8math.inl

; 180  :     x = fx;

  00793	f3 0f 10 05 00
	00 00 00	 movss	 xmm0, DWORD PTR __real@bf800000
  0079b	f3 0f 11 45 84	 movss	 DWORD PTR $T54[ebp], xmm0

; 181  :     y = fy;

  007a0	f3 0f 10 05 00
	00 00 00	 movss	 xmm0, DWORD PTR __real@bf800000
  007a8	f3 0f 11 45 88	 movss	 DWORD PTR $T54[ebp+4], xmm0

; 182  :     z = fz;

  007ad	f3 0f 10 05 00
	00 00 00	 movss	 xmm0, DWORD PTR __real@bf800000
  007b5	f3 0f 11 45 8c	 movss	 DWORD PTR $T54[ebp+8], xmm0
; File D:\Metin2 Server Files\mainline\SRC_2014\Metin2Client\EterLib\SkyBox.cpp

; 488  : 		v3QuadPoints[2] = D3DXVECTOR3(-1.0f, -1.0f, -1.0f);

  007ba	6a 0c		 push	 12			; 0000000cH
  007bc	58		 pop	 eax
  007bd	d1 e0		 shl	 eax, 1
  007bf	8d 7c 05 44	 lea	 edi, DWORD PTR _v3QuadPoints$[ebp+eax]
  007c3	8d 75 84	 lea	 esi, DWORD PTR $T54[ebp]
  007c6	a5		 movsd
  007c7	a5		 movsd
  007c8	a5		 movsd
; File D:\Metin2 Server Files\mainline\SRC_2014\M2Data\include\d3dx8math.inl

; 180  :     x = fx;

  007c9	f3 0f 10 05 00
	00 00 00	 movss	 xmm0, DWORD PTR __real@bf800000
  007d1	f3 0f 11 85 78
	ff ff ff	 movss	 DWORD PTR $T53[ebp], xmm0

; 181  :     y = fy;

  007d9	f3 0f 10 05 00
	00 00 00	 movss	 xmm0, DWORD PTR __real@bf800000
  007e1	f3 0f 11 85 7c
	ff ff ff	 movss	 DWORD PTR $T53[ebp+4], xmm0

; 182  :     z = fz;

  007e9	f3 0f 10 05 00
	00 00 00	 movss	 xmm0, DWORD PTR __real@3f800000
  007f1	f3 0f 11 45 80	 movss	 DWORD PTR $T53[ebp+8], xmm0
; File D:\Metin2 Server Files\mainline\SRC_2014\Metin2Client\EterLib\SkyBox.cpp

; 489  : 		v3QuadPoints[3] = D3DXVECTOR3(-1.0f, -1.0f, 1.0f);

  007f6	6a 0c		 push	 12			; 0000000cH
  007f8	58		 pop	 eax
  007f9	6b c0 03	 imul	 eax, eax, 3
  007fc	8d 7c 05 44	 lea	 edi, DWORD PTR _v3QuadPoints$[ebp+eax]
  00800	8d b5 78 ff ff
	ff		 lea	 esi, DWORD PTR $T53[ebp]
  00806	a5		 movsd
  00807	a5		 movsd
  00808	a5		 movsd

; 490  : 
; 491  : 		//UpdateSkyFaceQuadTransform(v3QuadPoints);
; 492  : 
; 493  : 		SetSkyObjectQuadHorizon(&m_Faces[0].m_SkyObjectQuadVector, v3QuadPoints);

  00809	8d 45 44	 lea	 eax, DWORD PTR _v3QuadPoints$[ebp]
  0080c	50		 push	 eax
  0080d	6a 3c		 push	 60			; 0000003cH
  0080f	58		 pop	 eax
  00810	6b c0 00	 imul	 eax, eax, 0
  00813	8b 8d 90 fe ff
	ff		 mov	 ecx, DWORD PTR _this$[ebp]
  00819	8d 84 01 48 02
	00 00		 lea	 eax, DWORD PTR [ecx+eax+584]
  00820	50		 push	 eax
  00821	8b 8d 90 fe ff
	ff		 mov	 ecx, DWORD PTR _this$[ebp]
  00827	e8 00 00 00 00	 call	 ?SetSkyObjectQuadHorizon@CSkyBox@@IAEXPAV?$vector@VCSkyObjectQuad@@V?$allocator@VCSkyObjectQuad@@@std@@@std@@PBUD3DXVECTOR3@@@Z ; CSkyBox::SetSkyObjectQuadHorizon
; File C:\Program Files (x86)\Microsoft Visual Studio\2019\Community\VC\Tools\MSVC\14.28.29333\include\xstring

; 389  :         return _CSTD strlen(reinterpret_cast<const char*>(_First));

  0082c	68 00 00 00 00	 push	 OFFSET ??_C@_05HJNNLMDJ@front@
  00831	e8 00 00 00 00	 call	 _strlen
  00836	59		 pop	 ecx
  00837	89 85 40 fe ff
	ff		 mov	 DWORD PTR $T22[ebp], eax
; File C:\Program Files (x86)\Microsoft Visual Studio\2019\Community\VC\Tools\MSVC\14.28.29333\include\xmemory

; 997  :     return _Len;

  0083d	8b 85 40 fe ff
	ff		 mov	 eax, DWORD PTR $T22[ebp]
  00843	89 85 3c fe ff
	ff		 mov	 DWORD PTR $T21[ebp], eax
; File C:\Program Files (x86)\Microsoft Visual Studio\2019\Community\VC\Tools\MSVC\14.28.29333\include\xstring

; 3062 :         return assign(_Ptr, _Convert_size<size_type>(_Traits::length(_Ptr)));

  00849	ff b5 3c fe ff
	ff		 push	 DWORD PTR $T21[ebp]
  0084f	68 00 00 00 00	 push	 OFFSET ??_C@_05HJNNLMDJ@front@
; File D:\Metin2 Server Files\mainline\SRC_2014\Metin2Client\EterLib\SkyBox.cpp

; 494  : 		m_Faces[0].m_strfacename = "front";

  00854	6a 3c		 push	 60			; 0000003cH
  00856	58		 pop	 eax
  00857	6b c0 00	 imul	 eax, eax, 0
  0085a	8b 8d 90 fe ff
	ff		 mov	 ecx, DWORD PTR _this$[ebp]
  00860	8d 8c 01 18 02
	00 00		 lea	 ecx, DWORD PTR [ecx+eax+536]
; File C:\Program Files (x86)\Microsoft Visual Studio\2019\Community\VC\Tools\MSVC\14.28.29333\include\xstring

; 3062 :         return assign(_Ptr, _Convert_size<size_type>(_Traits::length(_Ptr)));

  00867	e8 00 00 00 00	 call	 ?assign@?$basic_string@DU?$char_traits@D@std@@V?$allocator@D@2@@std@@QAEAAV12@QBDI@Z ; std::basic_string<char,std::char_traits<char>,std::allocator<char> >::assign
; File D:\Metin2 Server Files\mainline\SRC_2014\M2Data\include\d3dx8math.inl

; 180  :     x = fx;

  0086c	f3 0f 10 05 00
	00 00 00	 movss	 xmm0, DWORD PTR __real@bf800000
  00874	f3 0f 11 85 6c
	ff ff ff	 movss	 DWORD PTR $T52[ebp], xmm0

; 181  :     y = fy;

  0087c	f3 0f 10 05 00
	00 00 00	 movss	 xmm0, DWORD PTR __real@3f800000
  00884	f3 0f 11 85 70
	ff ff ff	 movss	 DWORD PTR $T52[ebp+4], xmm0

; 182  :     z = fz;

  0088c	f3 0f 10 05 00
	00 00 00	 movss	 xmm0, DWORD PTR __real@bf800000
  00894	f3 0f 11 85 74
	ff ff ff	 movss	 DWORD PTR $T52[ebp+8], xmm0
; File D:\Metin2 Server Files\mainline\SRC_2014\Metin2Client\EterLib\SkyBox.cpp

; 497  : 		v3QuadPoints[0] = D3DXVECTOR3(-1.0f, 1.0f, -1.0f);

  0089c	6a 0c		 push	 12			; 0000000cH
  0089e	58		 pop	 eax
  0089f	6b c0 00	 imul	 eax, eax, 0
  008a2	8d 7c 05 44	 lea	 edi, DWORD PTR _v3QuadPoints$[ebp+eax]
  008a6	8d b5 6c ff ff
	ff		 lea	 esi, DWORD PTR $T52[ebp]
  008ac	a5		 movsd
  008ad	a5		 movsd
  008ae	a5		 movsd
; File D:\Metin2 Server Files\mainline\SRC_2014\M2Data\include\d3dx8math.inl

; 180  :     x = fx;

  008af	f3 0f 10 05 00
	00 00 00	 movss	 xmm0, DWORD PTR __real@bf800000
  008b7	f3 0f 11 85 60
	ff ff ff	 movss	 DWORD PTR $T51[ebp], xmm0

; 181  :     y = fy;

  008bf	f3 0f 10 05 00
	00 00 00	 movss	 xmm0, DWORD PTR __real@3f800000
  008c7	f3 0f 11 85 64
	ff ff ff	 movss	 DWORD PTR $T51[ebp+4], xmm0

; 182  :     z = fz;

  008cf	f3 0f 10 05 00
	00 00 00	 movss	 xmm0, DWORD PTR __real@3f800000
  008d7	f3 0f 11 85 68
	ff ff ff	 movss	 DWORD PTR $T51[ebp+8], xmm0
; File D:\Metin2 Server Files\mainline\SRC_2014\Metin2Client\EterLib\SkyBox.cpp

; 498  : 		v3QuadPoints[1] = D3DXVECTOR3(-1.0f, 1.0f, 1.0f);

  008df	6a 0c		 push	 12			; 0000000cH
  008e1	58		 pop	 eax
  008e2	c1 e0 00	 shl	 eax, 0
  008e5	8d 7c 05 44	 lea	 edi, DWORD PTR _v3QuadPoints$[ebp+eax]
  008e9	8d b5 60 ff ff
	ff		 lea	 esi, DWORD PTR $T51[ebp]
  008ef	a5		 movsd
  008f0	a5		 movsd
  008f1	a5		 movsd
; File D:\Metin2 Server Files\mainline\SRC_2014\M2Data\include\d3dx8math.inl

; 180  :     x = fx;

  008f2	f3 0f 10 05 00
	00 00 00	 movss	 xmm0, DWORD PTR __real@3f800000
  008fa	f3 0f 11 85 54
	ff ff ff	 movss	 DWORD PTR $T50[ebp], xmm0

; 181  :     y = fy;

  00902	f3 0f 10 05 00
	00 00 00	 movss	 xmm0, DWORD PTR __real@3f800000
  0090a	f3 0f 11 85 58
	ff ff ff	 movss	 DWORD PTR $T50[ebp+4], xmm0

; 182  :     z = fz;

  00912	f3 0f 10 05 00
	00 00 00	 movss	 xmm0, DWORD PTR __real@bf800000
  0091a	f3 0f 11 85 5c
	ff ff ff	 movss	 DWORD PTR $T50[ebp+8], xmm0
; File D:\Metin2 Server Files\mainline\SRC_2014\Metin2Client\EterLib\SkyBox.cpp

; 499  : 		v3QuadPoints[2] = D3DXVECTOR3(1.0f, 1.0f, -1.0f);

  00922	6a 0c		 push	 12			; 0000000cH
  00924	58		 pop	 eax
  00925	d1 e0		 shl	 eax, 1
  00927	8d 7c 05 44	 lea	 edi, DWORD PTR _v3QuadPoints$[ebp+eax]
  0092b	8d b5 54 ff ff
	ff		 lea	 esi, DWORD PTR $T50[ebp]
  00931	a5		 movsd
  00932	a5		 movsd
  00933	a5		 movsd
; File D:\Metin2 Server Files\mainline\SRC_2014\M2Data\include\d3dx8math.inl

; 180  :     x = fx;

  00934	f3 0f 10 05 00
	00 00 00	 movss	 xmm0, DWORD PTR __real@3f800000
  0093c	f3 0f 11 85 48
	ff ff ff	 movss	 DWORD PTR $T49[ebp], xmm0

; 181  :     y = fy;

  00944	f3 0f 10 05 00
	00 00 00	 movss	 xmm0, DWORD PTR __real@3f800000
  0094c	f3 0f 11 85 4c
	ff ff ff	 movss	 DWORD PTR $T49[ebp+4], xmm0

; 182  :     z = fz;

  00954	f3 0f 10 05 00
	00 00 00	 movss	 xmm0, DWORD PTR __real@3f800000
  0095c	f3 0f 11 85 50
	ff ff ff	 movss	 DWORD PTR $T49[ebp+8], xmm0
; File D:\Metin2 Server Files\mainline\SRC_2014\Metin2Client\EterLib\SkyBox.cpp

; 500  : 		v3QuadPoints[3] = D3DXVECTOR3(1.0f, 1.0f, 1.0f);

  00964	6a 0c		 push	 12			; 0000000cH
  00966	58		 pop	 eax
  00967	6b c0 03	 imul	 eax, eax, 3
  0096a	8d 7c 05 44	 lea	 edi, DWORD PTR _v3QuadPoints$[ebp+eax]
  0096e	8d b5 48 ff ff
	ff		 lea	 esi, DWORD PTR $T49[ebp]
  00974	a5		 movsd
  00975	a5		 movsd
  00976	a5		 movsd

; 501  : 
; 502  : 		//UpdateSkyFaceQuadTransform(v3QuadPoints);
; 503  : 		
; 504  : 		SetSkyObjectQuadHorizon(&m_Faces[1].m_SkyObjectQuadVector, v3QuadPoints);

  00977	8d 45 44	 lea	 eax, DWORD PTR _v3QuadPoints$[ebp]
  0097a	50		 push	 eax
  0097b	6a 3c		 push	 60			; 0000003cH
  0097d	58		 pop	 eax
  0097e	c1 e0 00	 shl	 eax, 0
  00981	8b 8d 90 fe ff
	ff		 mov	 ecx, DWORD PTR _this$[ebp]
  00987	8d 84 01 48 02
	00 00		 lea	 eax, DWORD PTR [ecx+eax+584]
  0098e	50		 push	 eax
  0098f	8b 8d 90 fe ff
	ff		 mov	 ecx, DWORD PTR _this$[ebp]
  00995	e8 00 00 00 00	 call	 ?SetSkyObjectQuadHorizon@CSkyBox@@IAEXPAV?$vector@VCSkyObjectQuad@@V?$allocator@VCSkyObjectQuad@@@std@@@std@@PBUD3DXVECTOR3@@@Z ; CSkyBox::SetSkyObjectQuadHorizon
; File C:\Program Files (x86)\Microsoft Visual Studio\2019\Community\VC\Tools\MSVC\14.28.29333\include\xstring

; 389  :         return _CSTD strlen(reinterpret_cast<const char*>(_First));

  0099a	68 00 00 00 00	 push	 OFFSET ??_C@_04JFCNHLLM@back@
  0099f	e8 00 00 00 00	 call	 _strlen
  009a4	59		 pop	 ecx
  009a5	89 85 38 fe ff
	ff		 mov	 DWORD PTR $T20[ebp], eax
; File C:\Program Files (x86)\Microsoft Visual Studio\2019\Community\VC\Tools\MSVC\14.28.29333\include\xmemory

; 997  :     return _Len;

  009ab	8b 85 38 fe ff
	ff		 mov	 eax, DWORD PTR $T20[ebp]
  009b1	89 85 34 fe ff
	ff		 mov	 DWORD PTR $T19[ebp], eax
; File C:\Program Files (x86)\Microsoft Visual Studio\2019\Community\VC\Tools\MSVC\14.28.29333\include\xstring

; 3062 :         return assign(_Ptr, _Convert_size<size_type>(_Traits::length(_Ptr)));

  009b7	ff b5 34 fe ff
	ff		 push	 DWORD PTR $T19[ebp]
  009bd	68 00 00 00 00	 push	 OFFSET ??_C@_04JFCNHLLM@back@
; File D:\Metin2 Server Files\mainline\SRC_2014\Metin2Client\EterLib\SkyBox.cpp

; 505  : 		m_Faces[1].m_strfacename = "back";

  009c2	6a 3c		 push	 60			; 0000003cH
  009c4	58		 pop	 eax
  009c5	c1 e0 00	 shl	 eax, 0
  009c8	8b 8d 90 fe ff
	ff		 mov	 ecx, DWORD PTR _this$[ebp]
  009ce	8d 8c 01 18 02
	00 00		 lea	 ecx, DWORD PTR [ecx+eax+536]
; File C:\Program Files (x86)\Microsoft Visual Studio\2019\Community\VC\Tools\MSVC\14.28.29333\include\xstring

; 3062 :         return assign(_Ptr, _Convert_size<size_type>(_Traits::length(_Ptr)));

  009d5	e8 00 00 00 00	 call	 ?assign@?$basic_string@DU?$char_traits@D@std@@V?$allocator@D@2@@std@@QAEAAV12@QBDI@Z ; std::basic_string<char,std::char_traits<char>,std::allocator<char> >::assign
; File D:\Metin2 Server Files\mainline\SRC_2014\M2Data\include\d3dx8math.inl

; 180  :     x = fx;

  009da	f3 0f 10 05 00
	00 00 00	 movss	 xmm0, DWORD PTR __real@3f800000
  009e2	f3 0f 11 85 3c
	ff ff ff	 movss	 DWORD PTR $T48[ebp], xmm0

; 181  :     y = fy;

  009ea	f3 0f 10 05 00
	00 00 00	 movss	 xmm0, DWORD PTR __real@3f800000
  009f2	f3 0f 11 85 40
	ff ff ff	 movss	 DWORD PTR $T48[ebp+4], xmm0

; 182  :     z = fz;

  009fa	f3 0f 10 05 00
	00 00 00	 movss	 xmm0, DWORD PTR __real@bf800000
  00a02	f3 0f 11 85 44
	ff ff ff	 movss	 DWORD PTR $T48[ebp+8], xmm0
; File D:\Metin2 Server Files\mainline\SRC_2014\Metin2Client\EterLib\SkyBox.cpp

; 508  : 		v3QuadPoints[0] = D3DXVECTOR3(1.0f, 1.0f, -1.0f);

  00a0a	6a 0c		 push	 12			; 0000000cH
  00a0c	58		 pop	 eax
  00a0d	6b c0 00	 imul	 eax, eax, 0
  00a10	8d 7c 05 44	 lea	 edi, DWORD PTR _v3QuadPoints$[ebp+eax]
  00a14	8d b5 3c ff ff
	ff		 lea	 esi, DWORD PTR $T48[ebp]
  00a1a	a5		 movsd
  00a1b	a5		 movsd
  00a1c	a5		 movsd
; File D:\Metin2 Server Files\mainline\SRC_2014\M2Data\include\d3dx8math.inl

; 180  :     x = fx;

  00a1d	f3 0f 10 05 00
	00 00 00	 movss	 xmm0, DWORD PTR __real@3f800000
  00a25	f3 0f 11 85 30
	ff ff ff	 movss	 DWORD PTR $T47[ebp], xmm0

; 181  :     y = fy;

  00a2d	f3 0f 10 05 00
	00 00 00	 movss	 xmm0, DWORD PTR __real@3f800000
  00a35	f3 0f 11 85 34
	ff ff ff	 movss	 DWORD PTR $T47[ebp+4], xmm0

; 182  :     z = fz;

  00a3d	f3 0f 10 05 00
	00 00 00	 movss	 xmm0, DWORD PTR __real@3f800000
  00a45	f3 0f 11 85 38
	ff ff ff	 movss	 DWORD PTR $T47[ebp+8], xmm0
; File D:\Metin2 Server Files\mainline\SRC_2014\Metin2Client\EterLib\SkyBox.cpp

; 509  : 		v3QuadPoints[1] = D3DXVECTOR3(1.0f, 1.0f, 1.0f);

  00a4d	6a 0c		 push	 12			; 0000000cH
  00a4f	58		 pop	 eax
  00a50	c1 e0 00	 shl	 eax, 0
  00a53	8d 7c 05 44	 lea	 edi, DWORD PTR _v3QuadPoints$[ebp+eax]
  00a57	8d b5 30 ff ff
	ff		 lea	 esi, DWORD PTR $T47[ebp]
  00a5d	a5		 movsd
  00a5e	a5		 movsd
  00a5f	a5		 movsd
; File D:\Metin2 Server Files\mainline\SRC_2014\M2Data\include\d3dx8math.inl

; 180  :     x = fx;

  00a60	f3 0f 10 05 00
	00 00 00	 movss	 xmm0, DWORD PTR __real@3f800000
  00a68	f3 0f 11 85 24
	ff ff ff	 movss	 DWORD PTR $T46[ebp], xmm0

; 181  :     y = fy;

  00a70	f3 0f 10 05 00
	00 00 00	 movss	 xmm0, DWORD PTR __real@bf800000
  00a78	f3 0f 11 85 28
	ff ff ff	 movss	 DWORD PTR $T46[ebp+4], xmm0

; 182  :     z = fz;

  00a80	f3 0f 10 05 00
	00 00 00	 movss	 xmm0, DWORD PTR __real@bf800000
  00a88	f3 0f 11 85 2c
	ff ff ff	 movss	 DWORD PTR $T46[ebp+8], xmm0
; File D:\Metin2 Server Files\mainline\SRC_2014\Metin2Client\EterLib\SkyBox.cpp

; 510  : 		v3QuadPoints[2] = D3DXVECTOR3(1.0f, -1.0f, -1.0f);

  00a90	6a 0c		 push	 12			; 0000000cH
  00a92	58		 pop	 eax
  00a93	d1 e0		 shl	 eax, 1
  00a95	8d 7c 05 44	 lea	 edi, DWORD PTR _v3QuadPoints$[ebp+eax]
  00a99	8d b5 24 ff ff
	ff		 lea	 esi, DWORD PTR $T46[ebp]
  00a9f	a5		 movsd
  00aa0	a5		 movsd
  00aa1	a5		 movsd
; File D:\Metin2 Server Files\mainline\SRC_2014\M2Data\include\d3dx8math.inl

; 180  :     x = fx;

  00aa2	f3 0f 10 05 00
	00 00 00	 movss	 xmm0, DWORD PTR __real@3f800000
  00aaa	f3 0f 11 45 38	 movss	 DWORD PTR $T69[ebp], xmm0

; 181  :     y = fy;

  00aaf	f3 0f 10 05 00
	00 00 00	 movss	 xmm0, DWORD PTR __real@bf800000
  00ab7	f3 0f 11 45 3c	 movss	 DWORD PTR $T69[ebp+4], xmm0

; 182  :     z = fz;

  00abc	f3 0f 10 05 00
	00 00 00	 movss	 xmm0, DWORD PTR __real@3f800000
  00ac4	f3 0f 11 45 40	 movss	 DWORD PTR $T69[ebp+8], xmm0
; File D:\Metin2 Server Files\mainline\SRC_2014\Metin2Client\EterLib\SkyBox.cpp

; 511  : 		v3QuadPoints[3] = D3DXVECTOR3(1.0f, -1.0f, 1.0f);

  00ac9	6a 0c		 push	 12			; 0000000cH
  00acb	58		 pop	 eax
  00acc	6b c0 03	 imul	 eax, eax, 3
  00acf	8d 7c 05 44	 lea	 edi, DWORD PTR _v3QuadPoints$[ebp+eax]
  00ad3	8d 75 38	 lea	 esi, DWORD PTR $T69[ebp]
  00ad6	a5		 movsd
  00ad7	a5		 movsd
  00ad8	a5		 movsd

; 512  : 
; 513  : 		//UpdateSkyFaceQuadTransform(v3QuadPoints);
; 514  : 
; 515  : 		SetSkyObjectQuadHorizon(&m_Faces[2].m_SkyObjectQuadVector, v3QuadPoints);

  00ad9	8d 45 44	 lea	 eax, DWORD PTR _v3QuadPoints$[ebp]
  00adc	50		 push	 eax
  00add	6a 3c		 push	 60			; 0000003cH
  00adf	58		 pop	 eax
  00ae0	d1 e0		 shl	 eax, 1
  00ae2	8b 8d 90 fe ff
	ff		 mov	 ecx, DWORD PTR _this$[ebp]
  00ae8	8d 84 01 48 02
	00 00		 lea	 eax, DWORD PTR [ecx+eax+584]
  00aef	50		 push	 eax
  00af0	8b 8d 90 fe ff
	ff		 mov	 ecx, DWORD PTR _this$[ebp]
  00af6	e8 00 00 00 00	 call	 ?SetSkyObjectQuadHorizon@CSkyBox@@IAEXPAV?$vector@VCSkyObjectQuad@@V?$allocator@VCSkyObjectQuad@@@std@@@std@@PBUD3DXVECTOR3@@@Z ; CSkyBox::SetSkyObjectQuadHorizon
; File C:\Program Files (x86)\Microsoft Visual Studio\2019\Community\VC\Tools\MSVC\14.28.29333\include\xstring

; 389  :         return _CSTD strlen(reinterpret_cast<const char*>(_First));

  00afb	68 00 00 00 00	 push	 OFFSET ??_C@_04GOOOJOPP@left@
  00b00	e8 00 00 00 00	 call	 _strlen
  00b05	59		 pop	 ecx
  00b06	89 85 30 fe ff
	ff		 mov	 DWORD PTR $T18[ebp], eax
; File C:\Program Files (x86)\Microsoft Visual Studio\2019\Community\VC\Tools\MSVC\14.28.29333\include\xmemory

; 997  :     return _Len;

  00b0c	8b 85 30 fe ff
	ff		 mov	 eax, DWORD PTR $T18[ebp]
  00b12	89 85 2c fe ff
	ff		 mov	 DWORD PTR $T17[ebp], eax
; File C:\Program Files (x86)\Microsoft Visual Studio\2019\Community\VC\Tools\MSVC\14.28.29333\include\xstring

; 3062 :         return assign(_Ptr, _Convert_size<size_type>(_Traits::length(_Ptr)));

  00b18	ff b5 2c fe ff
	ff		 push	 DWORD PTR $T17[ebp]
  00b1e	68 00 00 00 00	 push	 OFFSET ??_C@_04GOOOJOPP@left@
; File D:\Metin2 Server Files\mainline\SRC_2014\Metin2Client\EterLib\SkyBox.cpp

; 516  : 		m_Faces[2].m_strfacename = "left";

  00b23	6a 3c		 push	 60			; 0000003cH
  00b25	58		 pop	 eax
  00b26	d1 e0		 shl	 eax, 1
  00b28	8b 8d 90 fe ff
	ff		 mov	 ecx, DWORD PTR _this$[ebp]
  00b2e	8d 8c 01 18 02
	00 00		 lea	 ecx, DWORD PTR [ecx+eax+536]
; File C:\Program Files (x86)\Microsoft Visual Studio\2019\Community\VC\Tools\MSVC\14.28.29333\include\xstring

; 3062 :         return assign(_Ptr, _Convert_size<size_type>(_Traits::length(_Ptr)));

  00b35	e8 00 00 00 00	 call	 ?assign@?$basic_string@DU?$char_traits@D@std@@V?$allocator@D@2@@std@@QAEAAV12@QBDI@Z ; std::basic_string<char,std::char_traits<char>,std::allocator<char> >::assign
; File D:\Metin2 Server Files\mainline\SRC_2014\M2Data\include\d3dx8math.inl

; 180  :     x = fx;

  00b3a	f3 0f 10 05 00
	00 00 00	 movss	 xmm0, DWORD PTR __real@bf800000
  00b42	f3 0f 11 85 18
	ff ff ff	 movss	 DWORD PTR $T45[ebp], xmm0

; 181  :     y = fy;

  00b4a	f3 0f 10 05 00
	00 00 00	 movss	 xmm0, DWORD PTR __real@bf800000
  00b52	f3 0f 11 85 1c
	ff ff ff	 movss	 DWORD PTR $T45[ebp+4], xmm0

; 182  :     z = fz;

  00b5a	f3 0f 10 05 00
	00 00 00	 movss	 xmm0, DWORD PTR __real@bf800000
  00b62	f3 0f 11 85 20
	ff ff ff	 movss	 DWORD PTR $T45[ebp+8], xmm0
; File D:\Metin2 Server Files\mainline\SRC_2014\Metin2Client\EterLib\SkyBox.cpp

; 519  : 		v3QuadPoints[0] = D3DXVECTOR3(-1.0f, -1.0f, -1.0f);

  00b6a	6a 0c		 push	 12			; 0000000cH
  00b6c	58		 pop	 eax
  00b6d	6b c0 00	 imul	 eax, eax, 0
  00b70	8d 7c 05 44	 lea	 edi, DWORD PTR _v3QuadPoints$[ebp+eax]
  00b74	8d b5 18 ff ff
	ff		 lea	 esi, DWORD PTR $T45[ebp]
  00b7a	a5		 movsd
  00b7b	a5		 movsd
  00b7c	a5		 movsd
; File D:\Metin2 Server Files\mainline\SRC_2014\M2Data\include\d3dx8math.inl

; 180  :     x = fx;

  00b7d	f3 0f 10 05 00
	00 00 00	 movss	 xmm0, DWORD PTR __real@bf800000
  00b85	f3 0f 11 85 0c
	ff ff ff	 movss	 DWORD PTR $T44[ebp], xmm0

; 181  :     y = fy;

  00b8d	f3 0f 10 05 00
	00 00 00	 movss	 xmm0, DWORD PTR __real@bf800000
  00b95	f3 0f 11 85 10
	ff ff ff	 movss	 DWORD PTR $T44[ebp+4], xmm0

; 182  :     z = fz;

  00b9d	f3 0f 10 05 00
	00 00 00	 movss	 xmm0, DWORD PTR __real@3f800000
  00ba5	f3 0f 11 85 14
	ff ff ff	 movss	 DWORD PTR $T44[ebp+8], xmm0
; File D:\Metin2 Server Files\mainline\SRC_2014\Metin2Client\EterLib\SkyBox.cpp

; 520  : 		v3QuadPoints[1] = D3DXVECTOR3(-1.0f, -1.0f, 1.0f);

  00bad	6a 0c		 push	 12			; 0000000cH
  00baf	58		 pop	 eax
  00bb0	c1 e0 00	 shl	 eax, 0
  00bb3	8d 7c 05 44	 lea	 edi, DWORD PTR _v3QuadPoints$[ebp+eax]
  00bb7	8d b5 0c ff ff
	ff		 lea	 esi, DWORD PTR $T44[ebp]
  00bbd	a5		 movsd
  00bbe	a5		 movsd
  00bbf	a5		 movsd
; File D:\Metin2 Server Files\mainline\SRC_2014\M2Data\include\d3dx8math.inl

; 180  :     x = fx;

  00bc0	f3 0f 10 05 00
	00 00 00	 movss	 xmm0, DWORD PTR __real@bf800000
  00bc8	f3 0f 11 85 00
	ff ff ff	 movss	 DWORD PTR $T43[ebp], xmm0

; 181  :     y = fy;

  00bd0	f3 0f 10 05 00
	00 00 00	 movss	 xmm0, DWORD PTR __real@3f800000
  00bd8	f3 0f 11 85 04
	ff ff ff	 movss	 DWORD PTR $T43[ebp+4], xmm0

; 182  :     z = fz;

  00be0	f3 0f 10 05 00
	00 00 00	 movss	 xmm0, DWORD PTR __real@bf800000
  00be8	f3 0f 11 85 08
	ff ff ff	 movss	 DWORD PTR $T43[ebp+8], xmm0
; File D:\Metin2 Server Files\mainline\SRC_2014\Metin2Client\EterLib\SkyBox.cpp

; 521  : 		v3QuadPoints[2] = D3DXVECTOR3(-1.0f, 1.0f, -1.0f);

  00bf0	6a 0c		 push	 12			; 0000000cH
  00bf2	58		 pop	 eax
  00bf3	d1 e0		 shl	 eax, 1
  00bf5	8d 7c 05 44	 lea	 edi, DWORD PTR _v3QuadPoints$[ebp+eax]
  00bf9	8d b5 00 ff ff
	ff		 lea	 esi, DWORD PTR $T43[ebp]
  00bff	a5		 movsd
  00c00	a5		 movsd
  00c01	a5		 movsd
; File D:\Metin2 Server Files\mainline\SRC_2014\M2Data\include\d3dx8math.inl

; 180  :     x = fx;

  00c02	f3 0f 10 05 00
	00 00 00	 movss	 xmm0, DWORD PTR __real@bf800000
  00c0a	f3 0f 11 85 f4
	fe ff ff	 movss	 DWORD PTR $T42[ebp], xmm0

; 181  :     y = fy;

  00c12	f3 0f 10 05 00
	00 00 00	 movss	 xmm0, DWORD PTR __real@3f800000
  00c1a	f3 0f 11 85 f8
	fe ff ff	 movss	 DWORD PTR $T42[ebp+4], xmm0

; 182  :     z = fz;

  00c22	f3 0f 10 05 00
	00 00 00	 movss	 xmm0, DWORD PTR __real@3f800000
  00c2a	f3 0f 11 85 fc
	fe ff ff	 movss	 DWORD PTR $T42[ebp+8], xmm0
; File D:\Metin2 Server Files\mainline\SRC_2014\Metin2Client\EterLib\SkyBox.cpp

; 522  : 		v3QuadPoints[3] = D3DXVECTOR3(-1.0f, 1.0f, 1.0f);

  00c32	6a 0c		 push	 12			; 0000000cH
  00c34	58		 pop	 eax
  00c35	6b c0 03	 imul	 eax, eax, 3
  00c38	8d 7c 05 44	 lea	 edi, DWORD PTR _v3QuadPoints$[ebp+eax]
  00c3c	8d b5 f4 fe ff
	ff		 lea	 esi, DWORD PTR $T42[ebp]
  00c42	a5		 movsd
  00c43	a5		 movsd
  00c44	a5		 movsd

; 523  : 		
; 524  : 		//UpdateSkyFaceQuadTransform(v3QuadPoints);
; 525  : 		
; 526  : 		SetSkyObjectQuadHorizon(&m_Faces[3].m_SkyObjectQuadVector, v3QuadPoints);

  00c45	8d 45 44	 lea	 eax, DWORD PTR _v3QuadPoints$[ebp]
  00c48	50		 push	 eax
  00c49	6a 3c		 push	 60			; 0000003cH
  00c4b	58		 pop	 eax
  00c4c	6b c0 03	 imul	 eax, eax, 3
  00c4f	8b 8d 90 fe ff
	ff		 mov	 ecx, DWORD PTR _this$[ebp]
  00c55	8d 84 01 48 02
	00 00		 lea	 eax, DWORD PTR [ecx+eax+584]
  00c5c	50		 push	 eax
  00c5d	8b 8d 90 fe ff
	ff		 mov	 ecx, DWORD PTR _this$[ebp]
  00c63	e8 00 00 00 00	 call	 ?SetSkyObjectQuadHorizon@CSkyBox@@IAEXPAV?$vector@VCSkyObjectQuad@@V?$allocator@VCSkyObjectQuad@@@std@@@std@@PBUD3DXVECTOR3@@@Z ; CSkyBox::SetSkyObjectQuadHorizon
; File C:\Program Files (x86)\Microsoft Visual Studio\2019\Community\VC\Tools\MSVC\14.28.29333\include\xstring

; 389  :         return _CSTD strlen(reinterpret_cast<const char*>(_First));

  00c68	68 00 00 00 00	 push	 OFFSET ??_C@_05DHJDAOHK@right@
  00c6d	e8 00 00 00 00	 call	 _strlen
  00c72	59		 pop	 ecx
  00c73	89 85 28 fe ff
	ff		 mov	 DWORD PTR $T16[ebp], eax
; File C:\Program Files (x86)\Microsoft Visual Studio\2019\Community\VC\Tools\MSVC\14.28.29333\include\xmemory

; 997  :     return _Len;

  00c79	8b 85 28 fe ff
	ff		 mov	 eax, DWORD PTR $T16[ebp]
  00c7f	89 85 24 fe ff
	ff		 mov	 DWORD PTR $T15[ebp], eax
; File C:\Program Files (x86)\Microsoft Visual Studio\2019\Community\VC\Tools\MSVC\14.28.29333\include\xstring

; 3062 :         return assign(_Ptr, _Convert_size<size_type>(_Traits::length(_Ptr)));

  00c85	ff b5 24 fe ff
	ff		 push	 DWORD PTR $T15[ebp]
  00c8b	68 00 00 00 00	 push	 OFFSET ??_C@_05DHJDAOHK@right@
; File D:\Metin2 Server Files\mainline\SRC_2014\Metin2Client\EterLib\SkyBox.cpp

; 527  : 		m_Faces[3].m_strfacename = "right";

  00c90	6a 3c		 push	 60			; 0000003cH
  00c92	58		 pop	 eax
  00c93	6b c0 03	 imul	 eax, eax, 3
  00c96	8b 8d 90 fe ff
	ff		 mov	 ecx, DWORD PTR _this$[ebp]
  00c9c	8d 8c 01 18 02
	00 00		 lea	 ecx, DWORD PTR [ecx+eax+536]
; File C:\Program Files (x86)\Microsoft Visual Studio\2019\Community\VC\Tools\MSVC\14.28.29333\include\xstring

; 3062 :         return assign(_Ptr, _Convert_size<size_type>(_Traits::length(_Ptr)));

  00ca3	e8 00 00 00 00	 call	 ?assign@?$basic_string@DU?$char_traits@D@std@@V?$allocator@D@2@@std@@QAEAAV12@QBDI@Z ; std::basic_string<char,std::char_traits<char>,std::allocator<char> >::assign
; File D:\Metin2 Server Files\mainline\SRC_2014\M2Data\include\d3dx8math.inl

; 180  :     x = fx;

  00ca8	f3 0f 10 05 00
	00 00 00	 movss	 xmm0, DWORD PTR __real@3f800000
  00cb0	f3 0f 11 85 e8
	fe ff ff	 movss	 DWORD PTR $T41[ebp], xmm0

; 181  :     y = fy;

  00cb8	f3 0f 10 05 00
	00 00 00	 movss	 xmm0, DWORD PTR __real@bf800000
  00cc0	f3 0f 11 85 ec
	fe ff ff	 movss	 DWORD PTR $T41[ebp+4], xmm0

; 182  :     z = fz;

  00cc8	f3 0f 10 05 00
	00 00 00	 movss	 xmm0, DWORD PTR __real@3f800000
  00cd0	f3 0f 11 85 f0
	fe ff ff	 movss	 DWORD PTR $T41[ebp+8], xmm0
; File D:\Metin2 Server Files\mainline\SRC_2014\Metin2Client\EterLib\SkyBox.cpp

; 530  : 		v3QuadPoints[0] = D3DXVECTOR3(1.0f, -1.0f, 1.0f); 

  00cd8	6a 0c		 push	 12			; 0000000cH
  00cda	58		 pop	 eax
  00cdb	6b c0 00	 imul	 eax, eax, 0
  00cde	8d 7c 05 44	 lea	 edi, DWORD PTR _v3QuadPoints$[ebp+eax]
  00ce2	8d b5 e8 fe ff
	ff		 lea	 esi, DWORD PTR $T41[ebp]
  00ce8	a5		 movsd
  00ce9	a5		 movsd
  00cea	a5		 movsd
; File D:\Metin2 Server Files\mainline\SRC_2014\M2Data\include\d3dx8math.inl

; 180  :     x = fx;

  00ceb	f3 0f 10 05 00
	00 00 00	 movss	 xmm0, DWORD PTR __real@3f800000
  00cf3	f3 0f 11 85 dc
	fe ff ff	 movss	 DWORD PTR $T40[ebp], xmm0

; 181  :     y = fy;

  00cfb	f3 0f 10 05 00
	00 00 00	 movss	 xmm0, DWORD PTR __real@3f800000
  00d03	f3 0f 11 85 e0
	fe ff ff	 movss	 DWORD PTR $T40[ebp+4], xmm0

; 182  :     z = fz;

  00d0b	f3 0f 10 05 00
	00 00 00	 movss	 xmm0, DWORD PTR __real@3f800000
  00d13	f3 0f 11 85 e4
	fe ff ff	 movss	 DWORD PTR $T40[ebp+8], xmm0
; File D:\Metin2 Server Files\mainline\SRC_2014\Metin2Client\EterLib\SkyBox.cpp

; 531  : 		v3QuadPoints[1] = D3DXVECTOR3(1.0f, 1.0f, 1.0f);

  00d1b	6a 0c		 push	 12			; 0000000cH
  00d1d	58		 pop	 eax
  00d1e	c1 e0 00	 shl	 eax, 0
  00d21	8d 7c 05 44	 lea	 edi, DWORD PTR _v3QuadPoints$[ebp+eax]
  00d25	8d b5 dc fe ff
	ff		 lea	 esi, DWORD PTR $T40[ebp]
  00d2b	a5		 movsd
  00d2c	a5		 movsd
  00d2d	a5		 movsd
; File D:\Metin2 Server Files\mainline\SRC_2014\M2Data\include\d3dx8math.inl

; 180  :     x = fx;

  00d2e	f3 0f 10 05 00
	00 00 00	 movss	 xmm0, DWORD PTR __real@bf800000
  00d36	f3 0f 11 85 d0
	fe ff ff	 movss	 DWORD PTR $T39[ebp], xmm0

; 181  :     y = fy;

  00d3e	f3 0f 10 05 00
	00 00 00	 movss	 xmm0, DWORD PTR __real@bf800000
  00d46	f3 0f 11 85 d4
	fe ff ff	 movss	 DWORD PTR $T39[ebp+4], xmm0

; 182  :     z = fz;

  00d4e	f3 0f 10 05 00
	00 00 00	 movss	 xmm0, DWORD PTR __real@3f800000
  00d56	f3 0f 11 85 d8
	fe ff ff	 movss	 DWORD PTR $T39[ebp+8], xmm0
; File D:\Metin2 Server Files\mainline\SRC_2014\Metin2Client\EterLib\SkyBox.cpp

; 532  : 		v3QuadPoints[2] = D3DXVECTOR3(-1.0f, -1.0f, 1.0f);

  00d5e	6a 0c		 push	 12			; 0000000cH
  00d60	58		 pop	 eax
  00d61	d1 e0		 shl	 eax, 1
  00d63	8d 7c 05 44	 lea	 edi, DWORD PTR _v3QuadPoints$[ebp+eax]
  00d67	8d b5 d0 fe ff
	ff		 lea	 esi, DWORD PTR $T39[ebp]
  00d6d	a5		 movsd
  00d6e	a5		 movsd
  00d6f	a5		 movsd
; File D:\Metin2 Server Files\mainline\SRC_2014\M2Data\include\d3dx8math.inl

; 180  :     x = fx;

  00d70	f3 0f 10 05 00
	00 00 00	 movss	 xmm0, DWORD PTR __real@bf800000
  00d78	f3 0f 11 85 c4
	fe ff ff	 movss	 DWORD PTR $T38[ebp], xmm0

; 181  :     y = fy;

  00d80	f3 0f 10 05 00
	00 00 00	 movss	 xmm0, DWORD PTR __real@3f800000
  00d88	f3 0f 11 85 c8
	fe ff ff	 movss	 DWORD PTR $T38[ebp+4], xmm0

; 182  :     z = fz;

  00d90	f3 0f 10 05 00
	00 00 00	 movss	 xmm0, DWORD PTR __real@3f800000
  00d98	f3 0f 11 85 cc
	fe ff ff	 movss	 DWORD PTR $T38[ebp+8], xmm0
; File D:\Metin2 Server Files\mainline\SRC_2014\Metin2Client\EterLib\SkyBox.cpp

; 533  : 		v3QuadPoints[3] = D3DXVECTOR3(-1.0f, 1.0f, 1.0f);

  00da0	6a 0c		 push	 12			; 0000000cH
  00da2	58		 pop	 eax
  00da3	6b c0 03	 imul	 eax, eax, 3
  00da6	8d 7c 05 44	 lea	 edi, DWORD PTR _v3QuadPoints$[ebp+eax]
  00daa	8d b5 c4 fe ff
	ff		 lea	 esi, DWORD PTR $T38[ebp]
  00db0	a5		 movsd
  00db1	a5		 movsd
  00db2	a5		 movsd

; 534  : 
; 535  : 		//UpdateSkyFaceQuadTransform(v3QuadPoints);
; 536  : 
; 537  : 		SetSkyObjectQuadHorizon(&m_Faces[4].m_SkyObjectQuadVector, v3QuadPoints);

  00db3	8d 45 44	 lea	 eax, DWORD PTR _v3QuadPoints$[ebp]
  00db6	50		 push	 eax
  00db7	6a 3c		 push	 60			; 0000003cH
  00db9	58		 pop	 eax
  00dba	c1 e0 02	 shl	 eax, 2
  00dbd	8b 8d 90 fe ff
	ff		 mov	 ecx, DWORD PTR _this$[ebp]
  00dc3	8d 84 01 48 02
	00 00		 lea	 eax, DWORD PTR [ecx+eax+584]
  00dca	50		 push	 eax
  00dcb	8b 8d 90 fe ff
	ff		 mov	 ecx, DWORD PTR _this$[ebp]
  00dd1	e8 00 00 00 00	 call	 ?SetSkyObjectQuadHorizon@CSkyBox@@IAEXPAV?$vector@VCSkyObjectQuad@@V?$allocator@VCSkyObjectQuad@@@std@@@std@@PBUD3DXVECTOR3@@@Z ; CSkyBox::SetSkyObjectQuadHorizon
; File C:\Program Files (x86)\Microsoft Visual Studio\2019\Community\VC\Tools\MSVC\14.28.29333\include\xstring

; 389  :         return _CSTD strlen(reinterpret_cast<const char*>(_First));

  00dd6	68 00 00 00 00	 push	 OFFSET ??_C@_03FGFCOCMD@top@
  00ddb	e8 00 00 00 00	 call	 _strlen
  00de0	59		 pop	 ecx
  00de1	89 85 20 fe ff
	ff		 mov	 DWORD PTR $T14[ebp], eax
; File C:\Program Files (x86)\Microsoft Visual Studio\2019\Community\VC\Tools\MSVC\14.28.29333\include\xmemory

; 997  :     return _Len;

  00de7	8b 85 20 fe ff
	ff		 mov	 eax, DWORD PTR $T14[ebp]
  00ded	89 85 1c fe ff
	ff		 mov	 DWORD PTR $T13[ebp], eax
; File C:\Program Files (x86)\Microsoft Visual Studio\2019\Community\VC\Tools\MSVC\14.28.29333\include\xstring

; 3062 :         return assign(_Ptr, _Convert_size<size_type>(_Traits::length(_Ptr)));

  00df3	ff b5 1c fe ff
	ff		 push	 DWORD PTR $T13[ebp]
  00df9	68 00 00 00 00	 push	 OFFSET ??_C@_03FGFCOCMD@top@
; File D:\Metin2 Server Files\mainline\SRC_2014\Metin2Client\EterLib\SkyBox.cpp

; 538  : 		m_Faces[4].m_strfacename = "top";

  00dfe	6a 3c		 push	 60			; 0000003cH
  00e00	58		 pop	 eax
  00e01	c1 e0 02	 shl	 eax, 2
  00e04	8b 8d 90 fe ff
	ff		 mov	 ecx, DWORD PTR _this$[ebp]
  00e0a	8d 8c 01 18 02
	00 00		 lea	 ecx, DWORD PTR [ecx+eax+536]
; File C:\Program Files (x86)\Microsoft Visual Studio\2019\Community\VC\Tools\MSVC\14.28.29333\include\xstring

; 3062 :         return assign(_Ptr, _Convert_size<size_type>(_Traits::length(_Ptr)));

  00e11	e8 00 00 00 00	 call	 ?assign@?$basic_string@DU?$char_traits@D@std@@V?$allocator@D@2@@std@@QAEAAV12@QBDI@Z ; std::basic_string<char,std::char_traits<char>,std::allocator<char> >::assign
; File D:\Metin2 Server Files\mainline\SRC_2014\M2Data\include\d3dx8math.inl

; 180  :     x = fx;

  00e16	f3 0f 10 05 00
	00 00 00	 movss	 xmm0, DWORD PTR __real@3f800000
  00e1e	f3 0f 11 45 08	 movss	 DWORD PTR $T65[ebp], xmm0

; 181  :     y = fy;

  00e23	f3 0f 10 05 00
	00 00 00	 movss	 xmm0, DWORD PTR __real@bf800000
  00e2b	f3 0f 11 45 0c	 movss	 DWORD PTR $T65[ebp+4], xmm0

; 182  :     z = fz;

  00e30	f3 0f 10 05 00
	00 00 00	 movss	 xmm0, DWORD PTR __real@bf800000
  00e38	f3 0f 11 45 10	 movss	 DWORD PTR $T65[ebp+8], xmm0
; File D:\Metin2 Server Files\mainline\SRC_2014\Metin2Client\EterLib\SkyBox.cpp

; 541  : 		v3QuadPoints[0] = D3DXVECTOR3(1.0f, -1.0f, -1.0f);

  00e3d	6a 0c		 push	 12			; 0000000cH
  00e3f	58		 pop	 eax
  00e40	6b c0 00	 imul	 eax, eax, 0
  00e43	8d 7c 05 44	 lea	 edi, DWORD PTR _v3QuadPoints$[ebp+eax]
  00e47	8d 75 08	 lea	 esi, DWORD PTR $T65[ebp]
  00e4a	a5		 movsd
  00e4b	a5		 movsd
  00e4c	a5		 movsd
; File D:\Metin2 Server Files\mainline\SRC_2014\M2Data\include\d3dx8math.inl

; 180  :     x = fx;

  00e4d	f3 0f 10 05 00
	00 00 00	 movss	 xmm0, DWORD PTR __real@3f800000
  00e55	f3 0f 11 85 b8
	fe ff ff	 movss	 DWORD PTR $T37[ebp], xmm0

; 181  :     y = fy;

  00e5d	f3 0f 10 05 00
	00 00 00	 movss	 xmm0, DWORD PTR __real@3f800000
  00e65	f3 0f 11 85 bc
	fe ff ff	 movss	 DWORD PTR $T37[ebp+4], xmm0

; 182  :     z = fz;

  00e6d	f3 0f 10 05 00
	00 00 00	 movss	 xmm0, DWORD PTR __real@bf800000
  00e75	f3 0f 11 85 c0
	fe ff ff	 movss	 DWORD PTR $T37[ebp+8], xmm0
; File D:\Metin2 Server Files\mainline\SRC_2014\Metin2Client\EterLib\SkyBox.cpp

; 542  : 		v3QuadPoints[1] = D3DXVECTOR3(1.0f, 1.0f, -1.0f);

  00e7d	6a 0c		 push	 12			; 0000000cH
  00e7f	58		 pop	 eax
  00e80	c1 e0 00	 shl	 eax, 0
  00e83	8d 7c 05 44	 lea	 edi, DWORD PTR _v3QuadPoints$[ebp+eax]
  00e87	8d b5 b8 fe ff
	ff		 lea	 esi, DWORD PTR $T37[ebp]
  00e8d	a5		 movsd
  00e8e	a5		 movsd
  00e8f	a5		 movsd
; File D:\Metin2 Server Files\mainline\SRC_2014\M2Data\include\d3dx8math.inl

; 180  :     x = fx;

  00e90	f3 0f 10 05 00
	00 00 00	 movss	 xmm0, DWORD PTR __real@bf800000
  00e98	f3 0f 11 85 ac
	fe ff ff	 movss	 DWORD PTR $T36[ebp], xmm0

; 181  :     y = fy;

  00ea0	f3 0f 10 05 00
	00 00 00	 movss	 xmm0, DWORD PTR __real@bf800000
  00ea8	f3 0f 11 85 b0
	fe ff ff	 movss	 DWORD PTR $T36[ebp+4], xmm0

; 182  :     z = fz;

  00eb0	f3 0f 10 05 00
	00 00 00	 movss	 xmm0, DWORD PTR __real@bf800000
  00eb8	f3 0f 11 85 b4
	fe ff ff	 movss	 DWORD PTR $T36[ebp+8], xmm0
; File D:\Metin2 Server Files\mainline\SRC_2014\Metin2Client\EterLib\SkyBox.cpp

; 543  : 		v3QuadPoints[2] = D3DXVECTOR3(-1.0f, -1.0f, -1.0f);

  00ec0	6a 0c		 push	 12			; 0000000cH
  00ec2	58		 pop	 eax
  00ec3	d1 e0		 shl	 eax, 1
  00ec5	8d 7c 05 44	 lea	 edi, DWORD PTR _v3QuadPoints$[ebp+eax]
  00ec9	8d b5 ac fe ff
	ff		 lea	 esi, DWORD PTR $T36[ebp]
  00ecf	a5		 movsd
  00ed0	a5		 movsd
  00ed1	a5		 movsd
; File D:\Metin2 Server Files\mainline\SRC_2014\M2Data\include\d3dx8math.inl

; 180  :     x = fx;

  00ed2	f3 0f 10 05 00
	00 00 00	 movss	 xmm0, DWORD PTR __real@bf800000
  00eda	f3 0f 11 85 a0
	fe ff ff	 movss	 DWORD PTR $T35[ebp], xmm0

; 181  :     y = fy;

  00ee2	f3 0f 10 05 00
	00 00 00	 movss	 xmm0, DWORD PTR __real@3f800000
  00eea	f3 0f 11 85 a4
	fe ff ff	 movss	 DWORD PTR $T35[ebp+4], xmm0

; 182  :     z = fz;

  00ef2	f3 0f 10 05 00
	00 00 00	 movss	 xmm0, DWORD PTR __real@bf800000
  00efa	f3 0f 11 85 a8
	fe ff ff	 movss	 DWORD PTR $T35[ebp+8], xmm0
; File D:\Metin2 Server Files\mainline\SRC_2014\Metin2Client\EterLib\SkyBox.cpp

; 544  : 		v3QuadPoints[3] = D3DXVECTOR3(-1.0f, 1.0f, -1.0f);

  00f02	6a 0c		 push	 12			; 0000000cH
  00f04	58		 pop	 eax
  00f05	6b c0 03	 imul	 eax, eax, 3
  00f08	8d 7c 05 44	 lea	 edi, DWORD PTR _v3QuadPoints$[ebp+eax]
  00f0c	8d b5 a0 fe ff
	ff		 lea	 esi, DWORD PTR $T35[ebp]
  00f12	a5		 movsd
  00f13	a5		 movsd
  00f14	a5		 movsd

; 545  : 
; 546  : 		//UpdateSkyFaceQuadTransform(v3QuadPoints);
; 547  : 		
; 548  : 		SetSkyObjectQuadHorizon(&m_Faces[5].m_SkyObjectQuadVector, v3QuadPoints);

  00f15	8d 45 44	 lea	 eax, DWORD PTR _v3QuadPoints$[ebp]
  00f18	50		 push	 eax
  00f19	6a 3c		 push	 60			; 0000003cH
  00f1b	58		 pop	 eax
  00f1c	6b c0 05	 imul	 eax, eax, 5
  00f1f	8b 8d 90 fe ff
	ff		 mov	 ecx, DWORD PTR _this$[ebp]
  00f25	8d 84 01 48 02
	00 00		 lea	 eax, DWORD PTR [ecx+eax+584]
  00f2c	50		 push	 eax
  00f2d	8b 8d 90 fe ff
	ff		 mov	 ecx, DWORD PTR _this$[ebp]
  00f33	e8 00 00 00 00	 call	 ?SetSkyObjectQuadHorizon@CSkyBox@@IAEXPAV?$vector@VCSkyObjectQuad@@V?$allocator@VCSkyObjectQuad@@@std@@@std@@PBUD3DXVECTOR3@@@Z ; CSkyBox::SetSkyObjectQuadHorizon
; File C:\Program Files (x86)\Microsoft Visual Studio\2019\Community\VC\Tools\MSVC\14.28.29333\include\xstring

; 389  :         return _CSTD strlen(reinterpret_cast<const char*>(_First));

  00f38	68 00 00 00 00	 push	 OFFSET ??_C@_06PMMPCIPB@bottom@
  00f3d	e8 00 00 00 00	 call	 _strlen
  00f42	59		 pop	 ecx
  00f43	89 85 fc fd ff
	ff		 mov	 DWORD PTR $T8[ebp], eax
; File C:\Program Files (x86)\Microsoft Visual Studio\2019\Community\VC\Tools\MSVC\14.28.29333\include\xmemory

; 997  :     return _Len;

  00f49	8b 85 fc fd ff
	ff		 mov	 eax, DWORD PTR $T8[ebp]
  00f4f	89 85 18 fe ff
	ff		 mov	 DWORD PTR $T12[ebp], eax
; File C:\Program Files (x86)\Microsoft Visual Studio\2019\Community\VC\Tools\MSVC\14.28.29333\include\xstring

; 3062 :         return assign(_Ptr, _Convert_size<size_type>(_Traits::length(_Ptr)));

  00f55	ff b5 18 fe ff
	ff		 push	 DWORD PTR $T12[ebp]
  00f5b	68 00 00 00 00	 push	 OFFSET ??_C@_06PMMPCIPB@bottom@
; File D:\Metin2 Server Files\mainline\SRC_2014\Metin2Client\EterLib\SkyBox.cpp

; 549  : 		m_Faces[5].m_strfacename = "bottom";

  00f60	6a 3c		 push	 60			; 0000003cH
  00f62	58		 pop	 eax
  00f63	6b c0 05	 imul	 eax, eax, 5
  00f66	8b 8d 90 fe ff
	ff		 mov	 ecx, DWORD PTR _this$[ebp]
  00f6c	8d 8c 01 18 02
	00 00		 lea	 ecx, DWORD PTR [ecx+eax+536]
; File C:\Program Files (x86)\Microsoft Visual Studio\2019\Community\VC\Tools\MSVC\14.28.29333\include\xstring

; 3062 :         return assign(_Ptr, _Convert_size<size_type>(_Traits::length(_Ptr)));

  00f73	e8 00 00 00 00	 call	 ?assign@?$basic_string@DU?$char_traits@D@std@@V?$allocator@D@2@@std@@QAEAAV12@QBDI@Z ; std::basic_string<char,std::char_traits<char>,std::allocator<char> >::assign
$LN294@Refresh:
; File D:\Metin2 Server Files\mainline\SRC_2014\M2Data\include\d3dx8math.inl

; 180  :     x = fx;

  00f78	f3 0f 10 05 00
	00 00 00	 movss	 xmm0, DWORD PTR __real@3f800000
  00f80	f3 0f 11 85 94
	fe ff ff	 movss	 DWORD PTR $T34[ebp], xmm0

; 181  :     y = fy;

  00f88	f3 0f 10 05 00
	00 00 00	 movss	 xmm0, DWORD PTR __real@3f800000
  00f90	f3 0f 11 85 98
	fe ff ff	 movss	 DWORD PTR $T34[ebp+4], xmm0

; 182  :     z = fz;

  00f98	0f 57 c0	 xorps	 xmm0, xmm0
  00f9b	f3 0f 11 85 9c
	fe ff ff	 movss	 DWORD PTR $T34[ebp+8], xmm0
; File D:\Metin2 Server Files\mainline\SRC_2014\Metin2Client\EterLib\SkyBox.cpp

; 553  : 	v3QuadPoints[0] = D3DXVECTOR3(1.0f, 1.0f, 0.0f);

  00fa3	6a 0c		 push	 12			; 0000000cH
  00fa5	58		 pop	 eax
  00fa6	6b c0 00	 imul	 eax, eax, 0
  00fa9	8d 7c 05 44	 lea	 edi, DWORD PTR _v3QuadPoints$[ebp+eax]
  00fad	8d b5 94 fe ff
	ff		 lea	 esi, DWORD PTR $T34[ebp]
  00fb3	a5		 movsd
  00fb4	a5		 movsd
  00fb5	a5		 movsd
; File D:\Metin2 Server Files\mainline\SRC_2014\M2Data\include\d3dx8math.inl

; 180  :     x = fx;

  00fb6	f3 0f 10 05 00
	00 00 00	 movss	 xmm0, DWORD PTR __real@bf800000
  00fbe	f3 0f 11 45 2c	 movss	 DWORD PTR $T68[ebp], xmm0

; 181  :     y = fy;

  00fc3	f3 0f 10 05 00
	00 00 00	 movss	 xmm0, DWORD PTR __real@3f800000
  00fcb	f3 0f 11 45 30	 movss	 DWORD PTR $T68[ebp+4], xmm0

; 182  :     z = fz;

  00fd0	0f 57 c0	 xorps	 xmm0, xmm0
  00fd3	f3 0f 11 45 34	 movss	 DWORD PTR $T68[ebp+8], xmm0
; File D:\Metin2 Server Files\mainline\SRC_2014\Metin2Client\EterLib\SkyBox.cpp

; 554  : 	v3QuadPoints[1] = D3DXVECTOR3(-1.0f, 1.0f, 0.0f);

  00fd8	6a 0c		 push	 12			; 0000000cH
  00fda	58		 pop	 eax
  00fdb	c1 e0 00	 shl	 eax, 0
  00fde	8d 7c 05 44	 lea	 edi, DWORD PTR _v3QuadPoints$[ebp+eax]
  00fe2	8d 75 2c	 lea	 esi, DWORD PTR $T68[ebp]
  00fe5	a5		 movsd
  00fe6	a5		 movsd
  00fe7	a5		 movsd
; File D:\Metin2 Server Files\mainline\SRC_2014\M2Data\include\d3dx8math.inl

; 180  :     x = fx;

  00fe8	f3 0f 10 05 00
	00 00 00	 movss	 xmm0, DWORD PTR __real@3f800000
  00ff0	f3 0f 11 45 20	 movss	 DWORD PTR $T67[ebp], xmm0

; 181  :     y = fy;

  00ff5	f3 0f 10 05 00
	00 00 00	 movss	 xmm0, DWORD PTR __real@bf800000
  00ffd	f3 0f 11 45 24	 movss	 DWORD PTR $T67[ebp+4], xmm0

; 182  :     z = fz;

  01002	0f 57 c0	 xorps	 xmm0, xmm0
  01005	f3 0f 11 45 28	 movss	 DWORD PTR $T67[ebp+8], xmm0
; File D:\Metin2 Server Files\mainline\SRC_2014\Metin2Client\EterLib\SkyBox.cpp

; 555  : 	v3QuadPoints[2] = D3DXVECTOR3(1.0f, -1.0f, 0.0f);

  0100a	6a 0c		 push	 12			; 0000000cH
  0100c	58		 pop	 eax
  0100d	d1 e0		 shl	 eax, 1
  0100f	8d 7c 05 44	 lea	 edi, DWORD PTR _v3QuadPoints$[ebp+eax]
  01013	8d 75 20	 lea	 esi, DWORD PTR $T67[ebp]
  01016	a5		 movsd
  01017	a5		 movsd
  01018	a5		 movsd
; File D:\Metin2 Server Files\mainline\SRC_2014\M2Data\include\d3dx8math.inl

; 180  :     x = fx;

  01019	f3 0f 10 05 00
	00 00 00	 movss	 xmm0, DWORD PTR __real@bf800000
  01021	f3 0f 11 45 14	 movss	 DWORD PTR $T66[ebp], xmm0

; 181  :     y = fy;

  01026	f3 0f 10 05 00
	00 00 00	 movss	 xmm0, DWORD PTR __real@bf800000
  0102e	f3 0f 11 45 18	 movss	 DWORD PTR $T66[ebp+4], xmm0

; 182  :     z = fz;

  01033	0f 57 c0	 xorps	 xmm0, xmm0
  01036	f3 0f 11 45 1c	 movss	 DWORD PTR $T66[ebp+8], xmm0
; File D:\Metin2 Server Files\mainline\SRC_2014\Metin2Client\EterLib\SkyBox.cpp

; 556  : 	v3QuadPoints[3] = D3DXVECTOR3(-1.0f, -1.0f, 0.0f);

  0103b	6a 0c		 push	 12			; 0000000cH
  0103d	58		 pop	 eax
  0103e	6b c0 03	 imul	 eax, eax, 3
  01041	8d 7c 05 44	 lea	 edi, DWORD PTR _v3QuadPoints$[ebp+eax]
  01045	8d 75 14	 lea	 esi, DWORD PTR $T66[ebp]
  01048	a5		 movsd
  01049	a5		 movsd
  0104a	a5		 movsd

; 557  : 	SetSkyObjectQuadHorizon(&m_FaceCloud.m_SkyObjectQuadVector, v3QuadPoints);

  0104b	8d 45 44	 lea	 eax, DWORD PTR _v3QuadPoints$[ebp]
  0104e	50		 push	 eax
  0104f	8b 85 90 fe ff
	ff		 mov	 eax, DWORD PTR _this$[ebp]
  01055	83 c0 34	 add	 eax, 52			; 00000034H
  01058	50		 push	 eax
  01059	8b 8d 90 fe ff
	ff		 mov	 ecx, DWORD PTR _this$[ebp]
  0105f	e8 00 00 00 00	 call	 ?SetSkyObjectQuadHorizon@CSkyBox@@IAEXPAV?$vector@VCSkyObjectQuad@@V?$allocator@VCSkyObjectQuad@@@std@@@std@@PBUD3DXVECTOR3@@@Z ; CSkyBox::SetSkyObjectQuadHorizon
$LN1@Refresh:

; 558  : }

  01064	5f		 pop	 edi
  01065	5e		 pop	 esi
  01066	8b 4d 74	 mov	 ecx, DWORD PTR __$ArrayPad$[ebp]
  01069	33 cd		 xor	 ecx, ebp
  0106b	e8 00 00 00 00	 call	 @__security_check_cookie@4
  01070	83 c5 78	 add	 ebp, 120		; 00000078H
  01073	c9		 leave
  01074	c3		 ret	 0
?Refresh@CSkyBox@@QAEXXZ ENDP				; CSkyBox::Refresh
_TEXT	ENDS
; Function compile flags: /Odspy
; File D:\Metin2 Server Files\mainline\SRC_2014\Metin2Client\EterLib\SkyBox.cpp
; File C:\Program Files (x86)\Microsoft Visual Studio\2019\Community\VC\Tools\MSVC\14.28.29333\include\vector
; File D:\Metin2 Server Files\mainline\SRC_2014\Metin2Client\EterLib\SkyBox.cpp
; File C:\Program Files (x86)\Microsoft Visual Studio\2019\Community\VC\Tools\MSVC\14.28.29333\include\vector
; File D:\Metin2 Server Files\mainline\SRC_2014\Metin2Client\EterLib\SkyBox.cpp
;	COMDAT ?SetCloudColor@CSkyBox@@QAEXABUTGradientColor@@0ABK@Z
_TEXT	SEGMENT
__My_data$1 = -36					; size = 4
$T2 = -32						; size = 4
_this$ = -28						; size = 4
_aFaceCloud$ = -24					; size = 4
__My_data$3 = -20					; size = 4
_dwk$4 = -16						; size = 4
_aSkyObjectQuad$5 = -12					; size = 4
$T6 = -8						; size = 1
$T7 = -7						; size = 1
$T8 = -6						; size = 1
$T9 = -5						; size = 1
$T10 = -4						; size = 1
$T11 = -3						; size = 1
$T12 = -2						; size = 1
$T13 = -1						; size = 1
_c_rColor$ = 8						; size = 4
_c_rNextColor$ = 12					; size = 4
_dwTransitionTime$ = 16					; size = 4
?SetCloudColor@CSkyBox@@QAEXABUTGradientColor@@0ABK@Z PROC ; CSkyBox::SetCloudColor, COMDAT
; _this$ = ecx

; 561  : {

  00000	55		 push	 ebp
  00001	8b ec		 mov	 ebp, esp
  00003	83 ec 24	 sub	 esp, 36			; 00000024H
  00006	89 4d e4	 mov	 DWORD PTR _this$[ebp], ecx

; 562  : 	TSkyObjectFace & aFaceCloud = m_FaceCloud;

  00009	8b 45 e4	 mov	 eax, DWORD PTR _this$[ebp]
  0000c	83 c0 04	 add	 eax, 4
  0000f	89 45 e8	 mov	 DWORD PTR _aFaceCloud$[ebp], eax

; 563  : 	for (DWORD dwk = 0; dwk < aFaceCloud.m_SkyObjectQuadVector.size(); ++dwk)

  00012	83 65 f0 00	 and	 DWORD PTR _dwk$4[ebp], 0
  00016	eb 07		 jmp	 SHORT $LN4@SetCloudCo
$LN2@SetCloudCo:
  00018	8b 45 f0	 mov	 eax, DWORD PTR _dwk$4[ebp]
  0001b	40		 inc	 eax
  0001c	89 45 f0	 mov	 DWORD PTR _dwk$4[ebp], eax
$LN4@SetCloudCo:
; File C:\Program Files (x86)\Microsoft Visual Studio\2019\Community\VC\Tools\MSVC\14.28.29333\include\vector

; 1483 :         auto& _My_data = _Mypair._Myval2;

  0001f	8b 45 e8	 mov	 eax, DWORD PTR _aFaceCloud$[ebp]
  00022	83 c0 30	 add	 eax, 48			; 00000030H
  00025	89 45 ec	 mov	 DWORD PTR __My_data$3[ebp], eax

; 1484 :         return static_cast<size_type>(_My_data._Mylast - _My_data._Myfirst);

  00028	8b 45 ec	 mov	 eax, DWORD PTR __My_data$3[ebp]
  0002b	8b 4d ec	 mov	 ecx, DWORD PTR __My_data$3[ebp]
  0002e	8b 40 04	 mov	 eax, DWORD PTR [eax+4]
  00031	2b 01		 sub	 eax, DWORD PTR [ecx]
  00033	99		 cdq
  00034	b9 2c 01 00 00	 mov	 ecx, 300		; 0000012cH
  00039	f7 f9		 idiv	 ecx
  0003b	89 45 e0	 mov	 DWORD PTR $T2[ebp], eax
; File D:\Metin2 Server Files\mainline\SRC_2014\Metin2Client\EterLib\SkyBox.cpp

; 563  : 	for (DWORD dwk = 0; dwk < aFaceCloud.m_SkyObjectQuadVector.size(); ++dwk)

  0003e	8b 45 f0	 mov	 eax, DWORD PTR _dwk$4[ebp]
  00041	3b 45 e0	 cmp	 eax, DWORD PTR $T2[ebp]
  00044	0f 83 71 01 00
	00		 jae	 $LN1@SetCloudCo
; File C:\Program Files (x86)\Microsoft Visual Studio\2019\Community\VC\Tools\MSVC\14.28.29333\include\vector

; 1498 :         auto& _My_data = _Mypair._Myval2;

  0004a	8b 45 e8	 mov	 eax, DWORD PTR _aFaceCloud$[ebp]
  0004d	83 c0 30	 add	 eax, 48			; 00000030H
  00050	89 45 dc	 mov	 DWORD PTR __My_data$1[ebp], eax

; 1499 : #if _CONTAINER_DEBUG_LEVEL > 0
; 1500 :         _STL_VERIFY(
; 1501 :             _Pos < static_cast<size_type>(_My_data._Mylast - _My_data._Myfirst), "vector subscript out of range");
; 1502 : #endif // _CONTAINER_DEBUG_LEVEL > 0
; 1503 : 
; 1504 :         return _My_data._Myfirst[_Pos];

  00053	69 45 f0 2c 01
	00 00		 imul	 eax, DWORD PTR _dwk$4[ebp], 300
  0005a	8b 4d dc	 mov	 ecx, DWORD PTR __My_data$1[ebp]
  0005d	03 01		 add	 eax, DWORD PTR [ecx]
  0005f	89 45 f4	 mov	 DWORD PTR _aSkyObjectQuad$5[ebp], eax
; File D:\Metin2 Server Files\mainline\SRC_2014\Metin2Client\EterLib\SkyBox.cpp

; 567  : 		aSkyObjectQuad.SetSrcColor(0,

  00062	c6 45 ff 00	 mov	 BYTE PTR $T13[ebp], 0
  00066	8b 45 08	 mov	 eax, DWORD PTR _c_rColor$[ebp]
  00069	83 c0 0c	 add	 eax, 12			; 0000000cH
  0006c	50		 push	 eax
  0006d	8b 45 08	 mov	 eax, DWORD PTR _c_rColor$[ebp]
  00070	83 c0 08	 add	 eax, 8
  00073	50		 push	 eax
  00074	8b 45 08	 mov	 eax, DWORD PTR _c_rColor$[ebp]
  00077	83 c0 04	 add	 eax, 4
  0007a	50		 push	 eax
  0007b	ff 75 08	 push	 DWORD PTR _c_rColor$[ebp]
  0007e	8d 45 ff	 lea	 eax, DWORD PTR $T13[ebp]
  00081	50		 push	 eax
  00082	8b 4d f4	 mov	 ecx, DWORD PTR _aSkyObjectQuad$5[ebp]
  00085	e8 00 00 00 00	 call	 ?SetSrcColor@CSkyObjectQuad@@QAEXABEABM111@Z ; CSkyObjectQuad::SetSrcColor

; 568  : 			c_rColor.m_FirstColor.r,
; 569  : 			c_rColor.m_FirstColor.g,
; 570  : 			c_rColor.m_FirstColor.b,
; 571  : 			c_rColor.m_FirstColor.a);
; 572  : 		aSkyObjectQuad.SetTransition(0, 

  0008a	c6 45 fe 00	 mov	 BYTE PTR $T12[ebp], 0
  0008e	8b 45 10	 mov	 eax, DWORD PTR _dwTransitionTime$[ebp]
  00091	ff 30		 push	 DWORD PTR [eax]
  00093	8b 45 0c	 mov	 eax, DWORD PTR _c_rNextColor$[ebp]
  00096	83 c0 0c	 add	 eax, 12			; 0000000cH
  00099	50		 push	 eax
  0009a	8b 45 0c	 mov	 eax, DWORD PTR _c_rNextColor$[ebp]
  0009d	83 c0 08	 add	 eax, 8
  000a0	50		 push	 eax
  000a1	8b 45 0c	 mov	 eax, DWORD PTR _c_rNextColor$[ebp]
  000a4	83 c0 04	 add	 eax, 4
  000a7	50		 push	 eax
  000a8	ff 75 0c	 push	 DWORD PTR _c_rNextColor$[ebp]
  000ab	8d 45 fe	 lea	 eax, DWORD PTR $T12[ebp]
  000ae	50		 push	 eax
  000af	8b 4d f4	 mov	 ecx, DWORD PTR _aSkyObjectQuad$5[ebp]
  000b2	e8 00 00 00 00	 call	 ?SetTransition@CSkyObjectQuad@@QAEXABEABM111K@Z ; CSkyObjectQuad::SetTransition

; 573  : 			c_rNextColor.m_FirstColor.r,
; 574  : 			c_rNextColor.m_FirstColor.g,
; 575  : 			c_rNextColor.m_FirstColor.b,
; 576  : 			c_rNextColor.m_FirstColor.a,
; 577  : 			dwTransitionTime);
; 578  : 		aSkyObjectQuad.SetSrcColor(1,

  000b7	c6 45 fd 01	 mov	 BYTE PTR $T11[ebp], 1
  000bb	8b 45 08	 mov	 eax, DWORD PTR _c_rColor$[ebp]
  000be	83 c0 0c	 add	 eax, 12			; 0000000cH
  000c1	50		 push	 eax
  000c2	8b 45 08	 mov	 eax, DWORD PTR _c_rColor$[ebp]
  000c5	83 c0 08	 add	 eax, 8
  000c8	50		 push	 eax
  000c9	8b 45 08	 mov	 eax, DWORD PTR _c_rColor$[ebp]
  000cc	83 c0 04	 add	 eax, 4
  000cf	50		 push	 eax
  000d0	ff 75 08	 push	 DWORD PTR _c_rColor$[ebp]
  000d3	8d 45 fd	 lea	 eax, DWORD PTR $T11[ebp]
  000d6	50		 push	 eax
  000d7	8b 4d f4	 mov	 ecx, DWORD PTR _aSkyObjectQuad$5[ebp]
  000da	e8 00 00 00 00	 call	 ?SetSrcColor@CSkyObjectQuad@@QAEXABEABM111@Z ; CSkyObjectQuad::SetSrcColor

; 579  : 			c_rColor.m_FirstColor.r,
; 580  : 			c_rColor.m_FirstColor.g,
; 581  : 			c_rColor.m_FirstColor.b,
; 582  : 			c_rColor.m_FirstColor.a);
; 583  : 		aSkyObjectQuad.SetTransition(1,

  000df	c6 45 fc 01	 mov	 BYTE PTR $T10[ebp], 1
  000e3	8b 45 10	 mov	 eax, DWORD PTR _dwTransitionTime$[ebp]
  000e6	ff 30		 push	 DWORD PTR [eax]
  000e8	8b 45 0c	 mov	 eax, DWORD PTR _c_rNextColor$[ebp]
  000eb	83 c0 0c	 add	 eax, 12			; 0000000cH
  000ee	50		 push	 eax
  000ef	8b 45 0c	 mov	 eax, DWORD PTR _c_rNextColor$[ebp]
  000f2	83 c0 08	 add	 eax, 8
  000f5	50		 push	 eax
  000f6	8b 45 0c	 mov	 eax, DWORD PTR _c_rNextColor$[ebp]
  000f9	83 c0 04	 add	 eax, 4
  000fc	50		 push	 eax
  000fd	ff 75 0c	 push	 DWORD PTR _c_rNextColor$[ebp]
  00100	8d 45 fc	 lea	 eax, DWORD PTR $T10[ebp]
  00103	50		 push	 eax
  00104	8b 4d f4	 mov	 ecx, DWORD PTR _aSkyObjectQuad$5[ebp]
  00107	e8 00 00 00 00	 call	 ?SetTransition@CSkyObjectQuad@@QAEXABEABM111K@Z ; CSkyObjectQuad::SetTransition

; 584  : 			c_rNextColor.m_FirstColor.r,
; 585  : 			c_rNextColor.m_FirstColor.g,
; 586  : 			c_rNextColor.m_FirstColor.b,
; 587  : 			c_rNextColor.m_FirstColor.a,
; 588  : 			dwTransitionTime);
; 589  : 		aSkyObjectQuad.SetSrcColor(2,

  0010c	c6 45 fb 02	 mov	 BYTE PTR $T9[ebp], 2
  00110	8b 45 08	 mov	 eax, DWORD PTR _c_rColor$[ebp]
  00113	83 c0 0c	 add	 eax, 12			; 0000000cH
  00116	50		 push	 eax
  00117	8b 45 08	 mov	 eax, DWORD PTR _c_rColor$[ebp]
  0011a	83 c0 08	 add	 eax, 8
  0011d	50		 push	 eax
  0011e	8b 45 08	 mov	 eax, DWORD PTR _c_rColor$[ebp]
  00121	83 c0 04	 add	 eax, 4
  00124	50		 push	 eax
  00125	ff 75 08	 push	 DWORD PTR _c_rColor$[ebp]
  00128	8d 45 fb	 lea	 eax, DWORD PTR $T9[ebp]
  0012b	50		 push	 eax
  0012c	8b 4d f4	 mov	 ecx, DWORD PTR _aSkyObjectQuad$5[ebp]
  0012f	e8 00 00 00 00	 call	 ?SetSrcColor@CSkyObjectQuad@@QAEXABEABM111@Z ; CSkyObjectQuad::SetSrcColor

; 590  : 			c_rColor.m_FirstColor.r,
; 591  : 			c_rColor.m_FirstColor.g,
; 592  : 			c_rColor.m_FirstColor.b,
; 593  : 			c_rColor.m_FirstColor.a);
; 594  : 		aSkyObjectQuad.SetTransition(2,

  00134	c6 45 fa 02	 mov	 BYTE PTR $T8[ebp], 2
  00138	8b 45 10	 mov	 eax, DWORD PTR _dwTransitionTime$[ebp]
  0013b	ff 30		 push	 DWORD PTR [eax]
  0013d	8b 45 0c	 mov	 eax, DWORD PTR _c_rNextColor$[ebp]
  00140	83 c0 0c	 add	 eax, 12			; 0000000cH
  00143	50		 push	 eax
  00144	8b 45 0c	 mov	 eax, DWORD PTR _c_rNextColor$[ebp]
  00147	83 c0 08	 add	 eax, 8
  0014a	50		 push	 eax
  0014b	8b 45 0c	 mov	 eax, DWORD PTR _c_rNextColor$[ebp]
  0014e	83 c0 04	 add	 eax, 4
  00151	50		 push	 eax
  00152	ff 75 0c	 push	 DWORD PTR _c_rNextColor$[ebp]
  00155	8d 45 fa	 lea	 eax, DWORD PTR $T8[ebp]
  00158	50		 push	 eax
  00159	8b 4d f4	 mov	 ecx, DWORD PTR _aSkyObjectQuad$5[ebp]
  0015c	e8 00 00 00 00	 call	 ?SetTransition@CSkyObjectQuad@@QAEXABEABM111K@Z ; CSkyObjectQuad::SetTransition

; 595  : 			c_rNextColor.m_FirstColor.r,
; 596  : 			c_rNextColor.m_FirstColor.g,
; 597  : 			c_rNextColor.m_FirstColor.b,
; 598  : 			c_rNextColor.m_FirstColor.a,
; 599  : 			dwTransitionTime);
; 600  : 		aSkyObjectQuad.SetSrcColor(3,

  00161	c6 45 f9 03	 mov	 BYTE PTR $T7[ebp], 3
  00165	8b 45 08	 mov	 eax, DWORD PTR _c_rColor$[ebp]
  00168	83 c0 0c	 add	 eax, 12			; 0000000cH
  0016b	50		 push	 eax
  0016c	8b 45 08	 mov	 eax, DWORD PTR _c_rColor$[ebp]
  0016f	83 c0 08	 add	 eax, 8
  00172	50		 push	 eax
  00173	8b 45 08	 mov	 eax, DWORD PTR _c_rColor$[ebp]
  00176	83 c0 04	 add	 eax, 4
  00179	50		 push	 eax
  0017a	ff 75 08	 push	 DWORD PTR _c_rColor$[ebp]
  0017d	8d 45 f9	 lea	 eax, DWORD PTR $T7[ebp]
  00180	50		 push	 eax
  00181	8b 4d f4	 mov	 ecx, DWORD PTR _aSkyObjectQuad$5[ebp]
  00184	e8 00 00 00 00	 call	 ?SetSrcColor@CSkyObjectQuad@@QAEXABEABM111@Z ; CSkyObjectQuad::SetSrcColor

; 601  : 			c_rColor.m_FirstColor.r,
; 602  : 			c_rColor.m_FirstColor.g,
; 603  : 			c_rColor.m_FirstColor.b,
; 604  : 			c_rColor.m_FirstColor.a);
; 605  : 		aSkyObjectQuad.SetTransition(3,

  00189	c6 45 f8 03	 mov	 BYTE PTR $T6[ebp], 3
  0018d	8b 45 10	 mov	 eax, DWORD PTR _dwTransitionTime$[ebp]
  00190	ff 30		 push	 DWORD PTR [eax]
  00192	8b 45 0c	 mov	 eax, DWORD PTR _c_rNextColor$[ebp]
  00195	83 c0 0c	 add	 eax, 12			; 0000000cH
  00198	50		 push	 eax
  00199	8b 45 0c	 mov	 eax, DWORD PTR _c_rNextColor$[ebp]
  0019c	83 c0 08	 add	 eax, 8
  0019f	50		 push	 eax
  001a0	8b 45 0c	 mov	 eax, DWORD PTR _c_rNextColor$[ebp]
  001a3	83 c0 04	 add	 eax, 4
  001a6	50		 push	 eax
  001a7	ff 75 0c	 push	 DWORD PTR _c_rNextColor$[ebp]
  001aa	8d 45 f8	 lea	 eax, DWORD PTR $T6[ebp]
  001ad	50		 push	 eax
  001ae	8b 4d f4	 mov	 ecx, DWORD PTR _aSkyObjectQuad$5[ebp]
  001b1	e8 00 00 00 00	 call	 ?SetTransition@CSkyObjectQuad@@QAEXABEABM111K@Z ; CSkyObjectQuad::SetTransition

; 606  : 			c_rNextColor.m_FirstColor.r,
; 607  : 			c_rNextColor.m_FirstColor.g,
; 608  : 			c_rNextColor.m_FirstColor.b,
; 609  : 			c_rNextColor.m_FirstColor.a,
; 610  : 			dwTransitionTime);
; 611  : 	}

  001b6	e9 5d fe ff ff	 jmp	 $LN2@SetCloudCo
$LN1@SetCloudCo:

; 612  : }

  001bb	c9		 leave
  001bc	c2 0c 00	 ret	 12			; 0000000cH
?SetCloudColor@CSkyBox@@QAEXABUTGradientColor@@0ABK@Z ENDP ; CSkyBox::SetCloudColor
_TEXT	ENDS
; Function compile flags: /Odspy
; File D:\Metin2 Server Files\mainline\SRC_2014\Metin2Client\EterLib\SkyBox.cpp
;	COMDAT ?SetCloudScrollSpeed@CSkyBox@@QAEXABUD3DXVECTOR2@@@Z
_TEXT	SEGMENT
_this$ = -4						; size = 4
_c_rv2CloudScrollSpeed$ = 8				; size = 4
?SetCloudScrollSpeed@CSkyBox@@QAEXABUD3DXVECTOR2@@@Z PROC ; CSkyBox::SetCloudScrollSpeed, COMDAT
; _this$ = ecx

; 303  : {

  00000	55		 push	 ebp
  00001	8b ec		 mov	 ebp, esp
  00003	51		 push	 ecx
  00004	89 4d fc	 mov	 DWORD PTR _this$[ebp], ecx

; 304  : 	m_fCloudScrollSpeedU = c_rv2CloudScrollSpeed.x;

  00007	8b 45 fc	 mov	 eax, DWORD PTR _this$[ebp]
  0000a	8b 4d 08	 mov	 ecx, DWORD PTR _c_rv2CloudScrollSpeed$[ebp]
  0000d	8b 09		 mov	 ecx, DWORD PTR [ecx]
  0000f	89 88 20 01 00
	00		 mov	 DWORD PTR [eax+288], ecx

; 305  : 	m_fCloudScrollSpeedV = c_rv2CloudScrollSpeed.y;

  00015	8b 45 fc	 mov	 eax, DWORD PTR _this$[ebp]
  00018	8b 4d 08	 mov	 ecx, DWORD PTR _c_rv2CloudScrollSpeed$[ebp]
  0001b	8b 49 04	 mov	 ecx, DWORD PTR [ecx+4]
  0001e	89 88 24 01 00
	00		 mov	 DWORD PTR [eax+292], ecx

; 306  : }

  00024	c9		 leave
  00025	c2 04 00	 ret	 4
?SetCloudScrollSpeed@CSkyBox@@QAEXABUD3DXVECTOR2@@@Z ENDP ; CSkyBox::SetCloudScrollSpeed
_TEXT	ENDS
; Function compile flags: /Odspy
; File D:\Metin2 Server Files\mainline\SRC_2014\Metin2Client\EterLib\SkyBox.cpp
;	COMDAT ?SetCloudTextureScale@CSkyBox@@QAEXABUD3DXVECTOR2@@@Z
_TEXT	SEGMENT
_this$ = -4						; size = 4
_c_rv2CloudTextureScale$ = 8				; size = 4
?SetCloudTextureScale@CSkyBox@@QAEXABUD3DXVECTOR2@@@Z PROC ; CSkyBox::SetCloudTextureScale, COMDAT
; _this$ = ecx

; 294  : {

  00000	55		 push	 ebp
  00001	8b ec		 mov	 ebp, esp
  00003	51		 push	 ecx
  00004	89 4d fc	 mov	 DWORD PTR _this$[ebp], ecx

; 295  : 	m_fCloudTextureScaleX = c_rv2CloudTextureScale.x;

  00007	8b 45 fc	 mov	 eax, DWORD PTR _this$[ebp]
  0000a	8b 4d 08	 mov	 ecx, DWORD PTR _c_rv2CloudTextureScale$[ebp]
  0000d	8b 09		 mov	 ecx, DWORD PTR [ecx]
  0000f	89 88 18 01 00
	00		 mov	 DWORD PTR [eax+280], ecx

; 296  : 	m_fCloudTextureScaleY = c_rv2CloudTextureScale.y;

  00015	8b 45 fc	 mov	 eax, DWORD PTR _this$[ebp]
  00018	8b 4d 08	 mov	 ecx, DWORD PTR _c_rv2CloudTextureScale$[ebp]
  0001b	8b 49 04	 mov	 ecx, DWORD PTR [ecx+4]
  0001e	89 88 1c 01 00
	00		 mov	 DWORD PTR [eax+284], ecx

; 297  : 
; 298  : 	m_matTextureCloud._11 = m_fCloudTextureScaleX;

  00024	8b 45 fc	 mov	 eax, DWORD PTR _this$[ebp]
  00027	8b 4d fc	 mov	 ecx, DWORD PTR _this$[ebp]
  0002a	8b 89 18 01 00
	00		 mov	 ecx, DWORD PTR [ecx+280]
  00030	89 88 c0 00 00
	00		 mov	 DWORD PTR [eax+192], ecx

; 299  : 	m_matTextureCloud._22 = m_fCloudTextureScaleY;

  00036	8b 45 fc	 mov	 eax, DWORD PTR _this$[ebp]
  00039	8b 4d fc	 mov	 ecx, DWORD PTR _this$[ebp]
  0003c	8b 89 1c 01 00
	00		 mov	 ecx, DWORD PTR [ecx+284]
  00042	89 88 d4 00 00
	00		 mov	 DWORD PTR [eax+212], ecx

; 300  : }

  00048	c9		 leave
  00049	c2 04 00	 ret	 4
?SetCloudTextureScale@CSkyBox@@QAEXABUD3DXVECTOR2@@@Z ENDP ; CSkyBox::SetCloudTextureScale
_TEXT	ENDS
; Function compile flags: /Odspy
; File D:\Metin2 Server Files\mainline\SRC_2014\Metin2Client\EterLib\SkyBox.cpp
;	COMDAT ?SetCloudHeight@CSkyBox@@QAEXM@Z
_TEXT	SEGMENT
_this$ = -4						; size = 4
_fHeight$ = 8						; size = 4
?SetCloudHeight@CSkyBox@@QAEXM@Z PROC			; CSkyBox::SetCloudHeight, COMDAT
; _this$ = ecx

; 289  : {

  00000	55		 push	 ebp
  00001	8b ec		 mov	 ebp, esp
  00003	51		 push	 ecx
  00004	89 4d fc	 mov	 DWORD PTR _this$[ebp], ecx

; 290  : 	m_fCloudHeight = fHeight;

  00007	8b 45 fc	 mov	 eax, DWORD PTR _this$[ebp]
  0000a	f3 0f 10 45 08	 movss	 xmm0, DWORD PTR _fHeight$[ebp]
  0000f	f3 0f 11 80 14
	01 00 00	 movss	 DWORD PTR [eax+276], xmm0

; 291  : }

  00017	c9		 leave
  00018	c2 04 00	 ret	 4
?SetCloudHeight@CSkyBox@@QAEXM@Z ENDP			; CSkyBox::SetCloudHeight
_TEXT	ENDS
; Function compile flags: /Odspy
; File D:\Metin2 Server Files\mainline\SRC_2014\Metin2Client\EterLib\SkyBox.cpp
;	COMDAT ?SetCloudScale@CSkyBox@@QAEXABUD3DXVECTOR2@@@Z
_TEXT	SEGMENT
_this$ = -4						; size = 4
_c_rv2CloudScale$ = 8					; size = 4
?SetCloudScale@CSkyBox@@QAEXABUD3DXVECTOR2@@@Z PROC	; CSkyBox::SetCloudScale, COMDAT
; _this$ = ecx

; 281  : {

  00000	55		 push	 ebp
  00001	8b ec		 mov	 ebp, esp
  00003	51		 push	 ecx
  00004	89 4d fc	 mov	 DWORD PTR _this$[ebp], ecx

; 282  : 	m_fCloudScaleX = c_rv2CloudScale.x;

  00007	8b 45 fc	 mov	 eax, DWORD PTR _this$[ebp]
  0000a	8b 4d 08	 mov	 ecx, DWORD PTR _c_rv2CloudScale$[ebp]
  0000d	8b 09		 mov	 ecx, DWORD PTR [ecx]
  0000f	89 88 0c 01 00
	00		 mov	 DWORD PTR [eax+268], ecx

; 283  : 	m_fCloudScaleY = c_rv2CloudScale.y;

  00015	8b 45 fc	 mov	 eax, DWORD PTR _this$[ebp]
  00018	8b 4d 08	 mov	 ecx, DWORD PTR _c_rv2CloudScale$[ebp]
  0001b	8b 49 04	 mov	 ecx, DWORD PTR [ecx+4]
  0001e	89 88 10 01 00
	00		 mov	 DWORD PTR [eax+272], ecx

; 284  : 
; 285  : 	D3DXMatrixScaling(&m_matWorldCloud, m_fCloudScaleX, m_fCloudScaleY, 1.0f);

  00024	51		 push	 ecx
  00025	f3 0f 10 05 00
	00 00 00	 movss	 xmm0, DWORD PTR __real@3f800000
  0002d	f3 0f 11 04 24	 movss	 DWORD PTR [esp], xmm0
  00032	8b 45 fc	 mov	 eax, DWORD PTR _this$[ebp]
  00035	51		 push	 ecx
  00036	f3 0f 10 80 10
	01 00 00	 movss	 xmm0, DWORD PTR [eax+272]
  0003e	f3 0f 11 04 24	 movss	 DWORD PTR [esp], xmm0
  00043	8b 45 fc	 mov	 eax, DWORD PTR _this$[ebp]
  00046	51		 push	 ecx
  00047	f3 0f 10 80 0c
	01 00 00	 movss	 xmm0, DWORD PTR [eax+268]
  0004f	f3 0f 11 04 24	 movss	 DWORD PTR [esp], xmm0
  00054	8b 45 fc	 mov	 eax, DWORD PTR _this$[ebp]
  00057	83 c0 40	 add	 eax, 64			; 00000040H
  0005a	50		 push	 eax
  0005b	e8 00 00 00 00	 call	 _D3DXMatrixScaling@16

; 286  : }

  00060	c9		 leave
  00061	c2 04 00	 ret	 4
?SetCloudScale@CSkyBox@@QAEXABUD3DXVECTOR2@@@Z ENDP	; CSkyBox::SetCloudScale
_TEXT	ENDS
; Function compile flags: /Odspy
; File D:\Metin2 Server Files\mainline\SRC_2014\Metin2Client\EterLib\SkyBox.cpp
; File C:\Program Files (x86)\Microsoft Visual Studio\2019\Community\VC\Tools\MSVC\14.28.29333\include\xstring
; File C:\Program Files (x86)\Microsoft Visual Studio\2019\Community\VC\Tools\MSVC\14.28.29333\include\xtree
; File C:\Program Files (x86)\Microsoft Visual Studio\2019\Community\VC\Tools\MSVC\14.28.29333\include\xstddef
; File C:\Program Files (x86)\Microsoft Visual Studio\2019\Community\VC\Tools\MSVC\14.28.29333\include\xtree
; File D:\Metin2 Server Files\mainline\SRC_2014\Metin2Client\EterLib\SkyBox.cpp
; File C:\Program Files (x86)\Microsoft Visual Studio\2019\Community\VC\Tools\MSVC\14.28.29333\include\xstring
; File C:\Program Files (x86)\Microsoft Visual Studio\2019\Community\VC\Tools\MSVC\14.28.29333\include\xmemory
; File C:\Program Files (x86)\Microsoft Visual Studio\2019\Community\VC\Tools\MSVC\14.28.29333\include\xstring
; File D:\Metin2 Server Files\mainline\SRC_2014\Metin2Client\EterLib\SkyBox.cpp
; File C:\Program Files (x86)\Microsoft Visual Studio\2019\Community\VC\Tools\MSVC\14.28.29333\include\xstring
; File D:\Metin2 Server Files\mainline\SRC_2014\Metin2Client\EterLib\SkyBox.cpp
; File C:\Program Files (x86)\Microsoft Visual Studio\2019\Community\VC\Tools\MSVC\14.28.29333\include\type_traits
; File C:\Program Files (x86)\Microsoft Visual Studio\2019\Community\VC\Tools\MSVC\14.28.29333\include\utility
; File C:\Program Files (x86)\Microsoft Visual Studio\2019\Community\VC\Tools\MSVC\14.28.29333\include\type_traits
; File C:\Program Files (x86)\Microsoft Visual Studio\2019\Community\VC\Tools\MSVC\14.28.29333\include\utility
; File D:\Metin2 Server Files\mainline\SRC_2014\Metin2Client\EterLib\SkyBox.cpp
; File C:\Program Files (x86)\Microsoft Visual Studio\2019\Community\VC\Tools\MSVC\14.28.29333\include\xstring
; File D:\Metin2 Server Files\mainline\SRC_2014\Metin2Client\EterLib\SkyBox.cpp
;	COMDAT ?SetCloudTexture@CSkyBox@@QAEXPBD@Z
_TEXT	SEGMENT
$T2 = -140						; size = 8
tv178 = -132						; size = 4
$T3 = -128						; size = 4
_pGraphicImageInstance$ = -124				; size = 4
$T4 = -120						; size = 4
$T5 = -116						; size = 4
$T6 = -112						; size = 4
_itor$ = -108						; size = 4
$T7 = -104						; size = 4
$T8 = -100						; size = 4
___param0$ = -96					; size = 4
__Scary$9 = -92						; size = 4
$T10 = -88						; size = 4
tv222 = -84						; size = 4
tv262 = -80						; size = 4
_this$ = -76						; size = 4
$T11 = -70						; size = 1
$T12 = -69						; size = 1
$T13 = -68						; size = 24
$T14 = -44						; size = 28
__$ArrayPad$ = -16					; size = 4
__$EHRec$ = -12						; size = 12
_c_szFileName$ = 8					; size = 4
?SetCloudTexture@CSkyBox@@QAEXPBD@Z PROC		; CSkyBox::SetCloudTexture, COMDAT
; _this$ = ecx

; 266  : {

  00000	55		 push	 ebp
  00001	8b ec		 mov	 ebp, esp
  00003	6a ff		 push	 -1
  00005	68 00 00 00 00	 push	 __ehhandler$?SetCloudTexture@CSkyBox@@QAEXPBD@Z
  0000a	64 a1 00 00 00
	00		 mov	 eax, DWORD PTR fs:0
  00010	50		 push	 eax
  00011	81 ec 80 00 00
	00		 sub	 esp, 128		; 00000080H
  00017	a1 00 00 00 00	 mov	 eax, DWORD PTR ___security_cookie
  0001c	33 c5		 xor	 eax, ebp
  0001e	89 45 f0	 mov	 DWORD PTR __$ArrayPad$[ebp], eax
  00021	50		 push	 eax
  00022	8d 45 f4	 lea	 eax, DWORD PTR __$EHRec$[ebp]
  00025	64 a3 00 00 00
	00		 mov	 DWORD PTR fs:0, eax
  0002b	89 4d b4	 mov	 DWORD PTR _this$[ebp], ecx

; 267  : 	TGraphicImageInstanceMap::iterator itor = m_GraphicImageInstanceMap.find(c_szFileName);

  0002e	ff 75 08	 push	 DWORD PTR _c_szFileName$[ebp]
  00031	8d 4d bc	 lea	 ecx, DWORD PTR $T13[ebp]
  00034	e8 00 00 00 00	 call	 ??0?$basic_string@DU?$char_traits@D@std@@V?$allocator@D@2@@std@@QAE@QBD@Z ; std::basic_string<char,std::char_traits<char>,std::allocator<char> >::basic_string<char,std::char_traits<char>,std::allocator<char> >
  00039	83 65 fc 00	 and	 DWORD PTR __$EHRec$[ebp+8], 0
  0003d	8d 45 bc	 lea	 eax, DWORD PTR $T13[ebp]
  00040	50		 push	 eax
  00041	8d 45 94	 lea	 eax, DWORD PTR _itor$[ebp]
  00044	50		 push	 eax
  00045	8b 4d b4	 mov	 ecx, DWORD PTR _this$[ebp]
  00048	81 c1 34 01 00
	00		 add	 ecx, 308		; 00000134H
  0004e	e8 00 00 00 00	 call	 ?find@?$_Tree@V?$_Tmap_traits@V?$basic_string@DU?$char_traits@D@std@@V?$allocator@D@2@@std@@PAVCGraphicImageInstance@@U?$less@V?$basic_string@DU?$char_traits@D@std@@V?$allocator@D@2@@std@@@2@V?$allocator@U?$pair@$$CBV?$basic_string@DU?$char_traits@D@std@@V?$allocator@D@2@@std@@PAVCGraphicImageInstance@@@std@@@2@$0A@@std@@@std@@QAE?AV?$_Tree_iterator@V?$_Tree_val@U?$_Tree_simple_types@U?$pair@$$CBV?$basic_string@DU?$char_traits@D@std@@V?$allocator@D@2@@std@@PAVCGraphicImageInstance@@@std@@@std@@@std@@@2@ABV?$basic_string@DU?$char_traits@D@std@@V?$allocator@D@2@@2@@Z ; std::_Tree<std::_Tmap_traits<std::basic_string<char,std::char_traits<char>,std::allocator<char> >,CGraphicImageInstance *,std::less<std::basic_string<char,std::char_traits<char>,std::allocator<char> > >,std::allocator<std::pair<std::basic_string<char,std::char_traits<char>,std::allocator<char> > const ,CGraphicImageInstance *> >,0> >::find
  00053	83 4d fc ff	 or	 DWORD PTR __$EHRec$[ebp+8], -1
; File C:\Program Files (x86)\Microsoft Visual Studio\2019\Community\VC\Tools\MSVC\14.28.29333\include\xstring

; 2801 :         _Tidy_deallocate();

  00057	8d 4d bc	 lea	 ecx, DWORD PTR $T13[ebp]
  0005a	e8 00 00 00 00	 call	 ?_Tidy_deallocate@?$basic_string@DU?$char_traits@D@std@@V?$allocator@D@2@@std@@AAEXXZ ; std::basic_string<char,std::char_traits<char>,std::allocator<char> >::_Tidy_deallocate
; File C:\Program Files (x86)\Microsoft Visual Studio\2019\Community\VC\Tools\MSVC\14.28.29333\include\xtree

; 2047 :         return _STD addressof(_Mypair._Myval2._Myval2);

  0005f	8b 45 b4	 mov	 eax, DWORD PTR _this$[ebp]
  00062	05 34 01 00 00	 add	 eax, 308		; 00000134H
; File C:\Program Files (x86)\Microsoft Visual Studio\2019\Community\VC\Tools\MSVC\14.28.29333\include\xstddef

; 275  :     return __builtin_addressof(_Val);

  00067	89 45 a8	 mov	 DWORD PTR $T10[ebp], eax
; File C:\Program Files (x86)\Microsoft Visual Studio\2019\Community\VC\Tools\MSVC\14.28.29333\include\xtree

; 2047 :         return _STD addressof(_Mypair._Myval2._Myval2);

  0006a	8b 45 a8	 mov	 eax, DWORD PTR $T10[ebp]
  0006d	89 45 a4	 mov	 DWORD PTR __Scary$9[ebp], eax

; 1250 :         return iterator(_Scary->_Myhead, _Scary);

  00070	8b 45 a4	 mov	 eax, DWORD PTR __Scary$9[ebp]
  00073	8b 00		 mov	 eax, DWORD PTR [eax]
  00075	89 45 a0	 mov	 DWORD PTR ___param0$[ebp], eax

; 39   :     _Tree_unchecked_const_iterator(_Nodeptr _Pnode, const _Mytree* _Plist) noexcept : _Ptr(_Pnode) {

  00078	8b 45 a0	 mov	 eax, DWORD PTR ___param0$[ebp]
  0007b	89 45 9c	 mov	 DWORD PTR $T8[ebp], eax

; 1250 :         return iterator(_Scary->_Myhead, _Scary);

  0007e	8d 45 9c	 lea	 eax, DWORD PTR $T8[ebp]
  00081	89 45 98	 mov	 DWORD PTR $T7[ebp], eax

; 232  :         return this->_Ptr == _Right._Ptr;

  00084	8b 45 98	 mov	 eax, DWORD PTR $T7[ebp]
  00087	8b 00		 mov	 eax, DWORD PTR [eax]
  00089	3b 45 94	 cmp	 eax, DWORD PTR _itor$[ebp]
  0008c	75 09		 jne	 SHORT $LN112@SetCloudTe
  0008e	c7 45 b0 01 00
	00 00		 mov	 DWORD PTR tv262[ebp], 1
  00095	eb 04		 jmp	 SHORT $LN113@SetCloudTe
$LN112@SetCloudTe:
  00097	83 65 b0 00	 and	 DWORD PTR tv262[ebp], 0
$LN113@SetCloudTe:
  0009b	8a 45 b0	 mov	 al, BYTE PTR tv262[ebp]
  0009e	88 45 bb	 mov	 BYTE PTR $T12[ebp], al

; 236  :         return !(*this == _Right);

  000a1	0f b6 45 bb	 movzx	 eax, BYTE PTR $T12[ebp]
  000a5	85 c0		 test	 eax, eax
  000a7	75 09		 jne	 SHORT $LN107@SetCloudTe
  000a9	c7 45 ac 01 00
	00 00		 mov	 DWORD PTR tv222[ebp], 1
  000b0	eb 04		 jmp	 SHORT $LN108@SetCloudTe
$LN107@SetCloudTe:
  000b2	83 65 ac 00	 and	 DWORD PTR tv222[ebp], 0
$LN108@SetCloudTe:
  000b6	8a 45 ac	 mov	 al, BYTE PTR tv222[ebp]
  000b9	88 45 ba	 mov	 BYTE PTR $T11[ebp], al
; File D:\Metin2 Server Files\mainline\SRC_2014\Metin2Client\EterLib\SkyBox.cpp

; 268  : 	if (m_GraphicImageInstanceMap.end() != itor)

  000bc	0f b6 45 ba	 movzx	 eax, BYTE PTR $T11[ebp]
  000c0	85 c0		 test	 eax, eax
  000c2	74 05		 je	 SHORT $LN2@SetCloudTe

; 269  : 		return;

  000c4	e9 8a 00 00 00	 jmp	 $LN1@SetCloudTe
$LN2@SetCloudTe:
; File C:\Program Files (x86)\Microsoft Visual Studio\2019\Community\VC\Tools\MSVC\14.28.29333\include\xstring

; 389  :         return _CSTD strlen(reinterpret_cast<const char*>(_First));

  000c9	ff 75 08	 push	 DWORD PTR _c_szFileName$[ebp]
  000cc	e8 00 00 00 00	 call	 _strlen
  000d1	59		 pop	 ecx
  000d2	89 45 90	 mov	 DWORD PTR $T6[ebp], eax
; File C:\Program Files (x86)\Microsoft Visual Studio\2019\Community\VC\Tools\MSVC\14.28.29333\include\xmemory

; 997  :     return _Len;

  000d5	8b 45 90	 mov	 eax, DWORD PTR $T6[ebp]
  000d8	89 45 8c	 mov	 DWORD PTR $T5[ebp], eax
; File C:\Program Files (x86)\Microsoft Visual Studio\2019\Community\VC\Tools\MSVC\14.28.29333\include\xstring

; 3062 :         return assign(_Ptr, _Convert_size<size_type>(_Traits::length(_Ptr)));

  000db	ff 75 8c	 push	 DWORD PTR $T5[ebp]
  000de	ff 75 08	 push	 DWORD PTR _c_szFileName$[ebp]
; File D:\Metin2 Server Files\mainline\SRC_2014\Metin2Client\EterLib\SkyBox.cpp

; 271  : 	m_FaceCloud.m_strfacename = c_szFileName;

  000e1	8b 4d b4	 mov	 ecx, DWORD PTR _this$[ebp]
  000e4	83 c1 04	 add	 ecx, 4
; File C:\Program Files (x86)\Microsoft Visual Studio\2019\Community\VC\Tools\MSVC\14.28.29333\include\xstring

; 3062 :         return assign(_Ptr, _Convert_size<size_type>(_Traits::length(_Ptr)));

  000e7	e8 00 00 00 00	 call	 ?assign@?$basic_string@DU?$char_traits@D@std@@V?$allocator@D@2@@std@@QAEAAV12@QBDI@Z ; std::basic_string<char,std::char_traits<char>,std::allocator<char> >::assign
; File D:\Metin2 Server Files\mainline\SRC_2014\Metin2Client\EterLib\SkyBox.cpp

; 272  : 	CGraphicImageInstance * pGraphicImageInstance = GenerateTexture(c_szFileName);

  000ec	ff 75 08	 push	 DWORD PTR _c_szFileName$[ebp]
  000ef	8b 4d b4	 mov	 ecx, DWORD PTR _this$[ebp]
  000f2	e8 00 00 00 00	 call	 ?GenerateTexture@CSkyObject@@IAEPAVCGraphicImageInstance@@PBD@Z ; CSkyObject::GenerateTexture
  000f7	89 45 84	 mov	 DWORD PTR _pGraphicImageInstance$[ebp], eax

; 273  : 	m_GraphicImageInstanceMap.insert(TGraphicImageInstanceMap::value_type(m_FaceCloud.m_strfacename, pGraphicImageInstance));

  000fa	8b 45 b4	 mov	 eax, DWORD PTR _this$[ebp]
  000fd	83 c0 04	 add	 eax, 4
; File C:\Program Files (x86)\Microsoft Visual Studio\2019\Community\VC\Tools\MSVC\14.28.29333\include\type_traits

; 1443 :     return static_cast<_Ty&&>(_Arg);

  00100	89 45 88	 mov	 DWORD PTR $T4[ebp], eax
; File C:\Program Files (x86)\Microsoft Visual Studio\2019\Community\VC\Tools\MSVC\14.28.29333\include\utility

; 190  :         : first(_STD forward<_Other1>(_Val1)), second(_STD forward<_Other2>(_Val2)) {}

  00103	ff 75 88	 push	 DWORD PTR $T4[ebp]
  00106	8d 4d d4	 lea	 ecx, DWORD PTR $T14[ebp]
  00109	e8 00 00 00 00	 call	 ??0?$basic_string@DU?$char_traits@D@std@@V?$allocator@D@2@@std@@QAE@ABV01@@Z ; std::basic_string<char,std::char_traits<char>,std::allocator<char> >::basic_string<char,std::char_traits<char>,std::allocator<char> >
; File C:\Program Files (x86)\Microsoft Visual Studio\2019\Community\VC\Tools\MSVC\14.28.29333\include\type_traits

; 1443 :     return static_cast<_Ty&&>(_Arg);

  0010e	8d 45 84	 lea	 eax, DWORD PTR _pGraphicImageInstance$[ebp]
  00111	89 45 80	 mov	 DWORD PTR $T3[ebp], eax
; File C:\Program Files (x86)\Microsoft Visual Studio\2019\Community\VC\Tools\MSVC\14.28.29333\include\utility

; 190  :         : first(_STD forward<_Other1>(_Val1)), second(_STD forward<_Other2>(_Val2)) {}

  00114	8b 45 80	 mov	 eax, DWORD PTR $T3[ebp]
  00117	8b 00		 mov	 eax, DWORD PTR [eax]
  00119	89 45 ec	 mov	 DWORD PTR $T14[ebp+24], eax
; File D:\Metin2 Server Files\mainline\SRC_2014\Metin2Client\EterLib\SkyBox.cpp

; 273  : 	m_GraphicImageInstanceMap.insert(TGraphicImageInstanceMap::value_type(m_FaceCloud.m_strfacename, pGraphicImageInstance));

  0011c	8d 45 d4	 lea	 eax, DWORD PTR $T14[ebp]
  0011f	89 85 7c ff ff
	ff		 mov	 DWORD PTR tv178[ebp], eax
  00125	c7 45 fc 01 00
	00 00		 mov	 DWORD PTR __$EHRec$[ebp+8], 1
  0012c	ff b5 7c ff ff
	ff		 push	 DWORD PTR tv178[ebp]
  00132	8d 85 74 ff ff
	ff		 lea	 eax, DWORD PTR $T2[ebp]
  00138	50		 push	 eax
  00139	8b 4d b4	 mov	 ecx, DWORD PTR _this$[ebp]
  0013c	81 c1 34 01 00
	00		 add	 ecx, 308		; 00000134H
  00142	e8 00 00 00 00	 call	 ??$insert@$0A@$0A@@?$_Tree@V?$_Tmap_traits@V?$basic_string@DU?$char_traits@D@std@@V?$allocator@D@2@@std@@PAVCGraphicImageInstance@@U?$less@V?$basic_string@DU?$char_traits@D@std@@V?$allocator@D@2@@std@@@2@V?$allocator@U?$pair@$$CBV?$basic_string@DU?$char_traits@D@std@@V?$allocator@D@2@@std@@PAVCGraphicImageInstance@@@std@@@2@$0A@@std@@@std@@QAE?AU?$pair@V?$_Tree_iterator@V?$_Tree_val@U?$_Tree_simple_types@U?$pair@$$CBV?$basic_string@DU?$char_traits@D@std@@V?$allocator@D@2@@std@@PAVCGraphicImageInstance@@@std@@@std@@@std@@@std@@_N@1@$$QAU?$pair@$$CBV?$basic_string@DU?$char_traits@D@std@@V?$allocator@D@2@@std@@PAVCGraphicImageInstance@@@1@@Z ; std::_Tree<std::_Tmap_traits<std::basic_string<char,std::char_traits<char>,std::allocator<char> >,CGraphicImageInstance *,std::less<std::basic_string<char,std::char_traits<char>,std::allocator<char> > >,std::allocator<std::pair<std::basic_string<char,std::char_traits<char>,std::allocator<char> > const ,CGraphicImageInstance *> >,0> >::insert<0,0>
  00147	83 4d fc ff	 or	 DWORD PTR __$EHRec$[ebp+8], -1
  0014b	8d 4d d4	 lea	 ecx, DWORD PTR $T14[ebp]
; File C:\Program Files (x86)\Microsoft Visual Studio\2019\Community\VC\Tools\MSVC\14.28.29333\include\xstring

; 2801 :         _Tidy_deallocate();

  0014e	e8 00 00 00 00	 call	 ?_Tidy_deallocate@?$basic_string@DU?$char_traits@D@std@@V?$allocator@D@2@@std@@AAEXXZ ; std::basic_string<char,std::char_traits<char>,std::allocator<char> >::_Tidy_deallocate
$LN1@SetCloudTe:
; File D:\Metin2 Server Files\mainline\SRC_2014\Metin2Client\EterLib\SkyBox.cpp

; 278  : }

  00153	8b 4d f4	 mov	 ecx, DWORD PTR __$EHRec$[ebp]
  00156	64 89 0d 00 00
	00 00		 mov	 DWORD PTR fs:0, ecx
  0015d	59		 pop	 ecx
  0015e	8b 4d f0	 mov	 ecx, DWORD PTR __$ArrayPad$[ebp]
  00161	33 cd		 xor	 ecx, ebp
  00163	e8 00 00 00 00	 call	 @__security_check_cookie@4
  00168	c9		 leave
  00169	c2 04 00	 ret	 4
_TEXT	ENDS
;	COMDAT text$x
text$x	SEGMENT
__unwindfunclet$?SetCloudTexture@CSkyBox@@QAEXPBD@Z$0:
  00000	8d 4d bc	 lea	 ecx, DWORD PTR $T13[ebp]
  00003	e9 00 00 00 00	 jmp	 ??1?$basic_string@DU?$char_traits@D@std@@V?$allocator@D@2@@std@@QAE@XZ ; std::basic_string<char,std::char_traits<char>,std::allocator<char> >::~basic_string<char,std::char_traits<char>,std::allocator<char> >
__unwindfunclet$?SetCloudTexture@CSkyBox@@QAEXPBD@Z$1:
  00008	8d 4d d4	 lea	 ecx, DWORD PTR $T14[ebp]
  0000b	e9 00 00 00 00	 jmp	 ??1?$pair@$$CBV?$basic_string@DU?$char_traits@D@std@@V?$allocator@D@2@@std@@PAVCGraphicImageInstance@@@std@@QAE@XZ
  00010	cc		 int	 3
  00011	cc		 int	 3
  00012	cc		 int	 3
  00013	cc		 int	 3
  00014	cc		 int	 3
__ehhandler$?SetCloudTexture@CSkyBox@@QAEXPBD@Z:
  00015	90		 npad	 1
  00016	90		 npad	 1
  00017	8b 54 24 08	 mov	 edx, DWORD PTR [esp+8]
  0001b	8d 42 0c	 lea	 eax, DWORD PTR [edx+12]
  0001e	8b 8a 7c ff ff
	ff		 mov	 ecx, DWORD PTR [edx-132]
  00024	33 c8		 xor	 ecx, eax
  00026	e8 00 00 00 00	 call	 @__security_check_cookie@4
  0002b	8b 4a fc	 mov	 ecx, DWORD PTR [edx-4]
  0002e	33 c8		 xor	 ecx, eax
  00030	e8 00 00 00 00	 call	 @__security_check_cookie@4
  00035	b8 00 00 00 00	 mov	 eax, OFFSET __ehfuncinfo$?SetCloudTexture@CSkyBox@@QAEXPBD@Z
  0003a	e9 00 00 00 00	 jmp	 ___CxxFrameHandler3
text$x	ENDS
?SetCloudTexture@CSkyBox@@QAEXPBD@Z ENDP		; CSkyBox::SetCloudTexture
; Function compile flags: /Odspy
; File D:\Metin2 Server Files\mainline\SRC_2014\Metin2Client\EterLib\SkyBox.cpp
; File C:\Program Files (x86)\Microsoft Visual Studio\2019\Community\VC\Tools\MSVC\14.28.29333\include\xstring
; File C:\Program Files (x86)\Microsoft Visual Studio\2019\Community\VC\Tools\MSVC\14.28.29333\include\xtree
; File C:\Program Files (x86)\Microsoft Visual Studio\2019\Community\VC\Tools\MSVC\14.28.29333\include\xstddef
; File C:\Program Files (x86)\Microsoft Visual Studio\2019\Community\VC\Tools\MSVC\14.28.29333\include\xtree
; File D:\Metin2 Server Files\mainline\SRC_2014\Metin2Client\EterLib\SkyBox.cpp
; File C:\Program Files (x86)\Microsoft Visual Studio\2019\Community\VC\Tools\MSVC\14.28.29333\include\xstring
; File C:\Program Files (x86)\Microsoft Visual Studio\2019\Community\VC\Tools\MSVC\14.28.29333\include\xmemory
; File C:\Program Files (x86)\Microsoft Visual Studio\2019\Community\VC\Tools\MSVC\14.28.29333\include\xstring
; File D:\Metin2 Server Files\mainline\SRC_2014\Metin2Client\EterLib\SkyBox.cpp
; File C:\Program Files (x86)\Microsoft Visual Studio\2019\Community\VC\Tools\MSVC\14.28.29333\include\xstring
; File D:\Metin2 Server Files\mainline\SRC_2014\Metin2Client\EterLib\SkyBox.cpp
; File C:\Program Files (x86)\Microsoft Visual Studio\2019\Community\VC\Tools\MSVC\14.28.29333\include\type_traits
; File C:\Program Files (x86)\Microsoft Visual Studio\2019\Community\VC\Tools\MSVC\14.28.29333\include\utility
; File C:\Program Files (x86)\Microsoft Visual Studio\2019\Community\VC\Tools\MSVC\14.28.29333\include\type_traits
; File C:\Program Files (x86)\Microsoft Visual Studio\2019\Community\VC\Tools\MSVC\14.28.29333\include\utility
; File D:\Metin2 Server Files\mainline\SRC_2014\Metin2Client\EterLib\SkyBox.cpp
; File C:\Program Files (x86)\Microsoft Visual Studio\2019\Community\VC\Tools\MSVC\14.28.29333\include\xstring
; File D:\Metin2 Server Files\mainline\SRC_2014\Metin2Client\EterLib\SkyBox.cpp
;	COMDAT ?SetFaceTexture@CSkyBox@@QAEXPBDH@Z
_TEXT	SEGMENT
$T2 = -32						; size = 8
tv172 = -24						; size = 4
$T3 = -20						; size = 4
_pGraphicImageInstance$ = -16				; size = 4
__$EHRec$ = -12						; size = 12
$T4 = 0							; size = 4
$T5 = 4							; size = 4
$T6 = 8							; size = 4
_itor$ = 12						; size = 4
$T7 = 16						; size = 4
$T8 = 20						; size = 4
___param0$ = 24						; size = 4
__Scary$9 = 28						; size = 4
$T10 = 32						; size = 4
__Ptr$ = 36						; size = 4
tv216 = 40						; size = 4
tv256 = 44						; size = 4
_this$ = 48						; size = 4
$T11 = 54						; size = 1
$T12 = 55						; size = 1
$T13 = 56						; size = 24
$T14 = 80						; size = 28
__$ArrayPad$ = 108					; size = 4
_c_szFileName$ = 120					; size = 4
_iFaceIndex$ = 124					; size = 4
?SetFaceTexture@CSkyBox@@QAEXPBDH@Z PROC		; CSkyBox::SetFaceTexture, COMDAT
; _this$ = ecx

; 250  : {

  00000	55		 push	 ebp
  00001	8d 6c 24 90	 lea	 ebp, DWORD PTR [esp-112]
  00005	83 ec 70	 sub	 esp, 112		; 00000070H
  00008	6a ff		 push	 -1
  0000a	68 00 00 00 00	 push	 __ehhandler$?SetFaceTexture@CSkyBox@@QAEXPBDH@Z
  0000f	64 a1 00 00 00
	00		 mov	 eax, DWORD PTR fs:0
  00015	50		 push	 eax
  00016	83 ec 14	 sub	 esp, 20			; 00000014H
  00019	a1 00 00 00 00	 mov	 eax, DWORD PTR ___security_cookie
  0001e	33 c5		 xor	 eax, ebp
  00020	89 45 6c	 mov	 DWORD PTR __$ArrayPad$[ebp], eax
  00023	50		 push	 eax
  00024	8d 45 f4	 lea	 eax, DWORD PTR __$EHRec$[ebp]
  00027	64 a3 00 00 00
	00		 mov	 DWORD PTR fs:0, eax
  0002d	89 4d 30	 mov	 DWORD PTR _this$[ebp], ecx

; 251  : 	if( iFaceIndex < 0 || iFaceIndex > 5 ) 

  00030	83 7d 7c 00	 cmp	 DWORD PTR _iFaceIndex$[ebp], 0
  00034	7c 06		 jl	 SHORT $LN3@SetFaceTex
  00036	83 7d 7c 05	 cmp	 DWORD PTR _iFaceIndex$[ebp], 5
  0003a	7e 05		 jle	 SHORT $LN2@SetFaceTex
$LN3@SetFaceTex:

; 252  : 		return;

  0003c	e9 29 01 00 00	 jmp	 $LN1@SetFaceTex
$LN2@SetFaceTex:

; 253  : 
; 254  : 	TGraphicImageInstanceMap::iterator itor = m_GraphicImageInstanceMap.find(c_szFileName);

  00041	ff 75 78	 push	 DWORD PTR _c_szFileName$[ebp]
  00044	8d 4d 38	 lea	 ecx, DWORD PTR $T13[ebp]
  00047	e8 00 00 00 00	 call	 ??0?$basic_string@DU?$char_traits@D@std@@V?$allocator@D@2@@std@@QAE@QBD@Z ; std::basic_string<char,std::char_traits<char>,std::allocator<char> >::basic_string<char,std::char_traits<char>,std::allocator<char> >
  0004c	83 65 fc 00	 and	 DWORD PTR __$EHRec$[ebp+8], 0
  00050	8d 45 38	 lea	 eax, DWORD PTR $T13[ebp]
  00053	50		 push	 eax
  00054	8d 45 0c	 lea	 eax, DWORD PTR _itor$[ebp]
  00057	50		 push	 eax
  00058	8b 4d 30	 mov	 ecx, DWORD PTR _this$[ebp]
  0005b	81 c1 34 01 00
	00		 add	 ecx, 308		; 00000134H
  00061	e8 00 00 00 00	 call	 ?find@?$_Tree@V?$_Tmap_traits@V?$basic_string@DU?$char_traits@D@std@@V?$allocator@D@2@@std@@PAVCGraphicImageInstance@@U?$less@V?$basic_string@DU?$char_traits@D@std@@V?$allocator@D@2@@std@@@2@V?$allocator@U?$pair@$$CBV?$basic_string@DU?$char_traits@D@std@@V?$allocator@D@2@@std@@PAVCGraphicImageInstance@@@std@@@2@$0A@@std@@@std@@QAE?AV?$_Tree_iterator@V?$_Tree_val@U?$_Tree_simple_types@U?$pair@$$CBV?$basic_string@DU?$char_traits@D@std@@V?$allocator@D@2@@std@@PAVCGraphicImageInstance@@@std@@@std@@@std@@@2@ABV?$basic_string@DU?$char_traits@D@std@@V?$allocator@D@2@@2@@Z ; std::_Tree<std::_Tmap_traits<std::basic_string<char,std::char_traits<char>,std::allocator<char> >,CGraphicImageInstance *,std::less<std::basic_string<char,std::char_traits<char>,std::allocator<char> > >,std::allocator<std::pair<std::basic_string<char,std::char_traits<char>,std::allocator<char> > const ,CGraphicImageInstance *> >,0> >::find
  00066	83 4d fc ff	 or	 DWORD PTR __$EHRec$[ebp+8], -1
; File C:\Program Files (x86)\Microsoft Visual Studio\2019\Community\VC\Tools\MSVC\14.28.29333\include\xstring

; 2801 :         _Tidy_deallocate();

  0006a	8d 4d 38	 lea	 ecx, DWORD PTR $T13[ebp]
  0006d	e8 00 00 00 00	 call	 ?_Tidy_deallocate@?$basic_string@DU?$char_traits@D@std@@V?$allocator@D@2@@std@@AAEXXZ ; std::basic_string<char,std::char_traits<char>,std::allocator<char> >::_Tidy_deallocate
; File C:\Program Files (x86)\Microsoft Visual Studio\2019\Community\VC\Tools\MSVC\14.28.29333\include\xtree

; 2047 :         return _STD addressof(_Mypair._Myval2._Myval2);

  00072	8b 45 30	 mov	 eax, DWORD PTR _this$[ebp]
  00075	05 34 01 00 00	 add	 eax, 308		; 00000134H
; File C:\Program Files (x86)\Microsoft Visual Studio\2019\Community\VC\Tools\MSVC\14.28.29333\include\xstddef

; 275  :     return __builtin_addressof(_Val);

  0007a	89 45 20	 mov	 DWORD PTR $T10[ebp], eax
; File C:\Program Files (x86)\Microsoft Visual Studio\2019\Community\VC\Tools\MSVC\14.28.29333\include\xtree

; 2047 :         return _STD addressof(_Mypair._Myval2._Myval2);

  0007d	8b 45 20	 mov	 eax, DWORD PTR $T10[ebp]
  00080	89 45 1c	 mov	 DWORD PTR __Scary$9[ebp], eax

; 1250 :         return iterator(_Scary->_Myhead, _Scary);

  00083	8b 45 1c	 mov	 eax, DWORD PTR __Scary$9[ebp]
  00086	8b 00		 mov	 eax, DWORD PTR [eax]
  00088	89 45 18	 mov	 DWORD PTR ___param0$[ebp], eax

; 39   :     _Tree_unchecked_const_iterator(_Nodeptr _Pnode, const _Mytree* _Plist) noexcept : _Ptr(_Pnode) {

  0008b	8b 45 18	 mov	 eax, DWORD PTR ___param0$[ebp]
  0008e	89 45 14	 mov	 DWORD PTR $T8[ebp], eax

; 1250 :         return iterator(_Scary->_Myhead, _Scary);

  00091	8d 45 14	 lea	 eax, DWORD PTR $T8[ebp]
  00094	89 45 10	 mov	 DWORD PTR $T7[ebp], eax

; 232  :         return this->_Ptr == _Right._Ptr;

  00097	8b 45 10	 mov	 eax, DWORD PTR $T7[ebp]
  0009a	8b 00		 mov	 eax, DWORD PTR [eax]
  0009c	3b 45 0c	 cmp	 eax, DWORD PTR _itor$[ebp]
  0009f	75 09		 jne	 SHORT $LN114@SetFaceTex
  000a1	c7 45 2c 01 00
	00 00		 mov	 DWORD PTR tv256[ebp], 1
  000a8	eb 04		 jmp	 SHORT $LN115@SetFaceTex
$LN114@SetFaceTex:
  000aa	83 65 2c 00	 and	 DWORD PTR tv256[ebp], 0
$LN115@SetFaceTex:
  000ae	8a 45 2c	 mov	 al, BYTE PTR tv256[ebp]
  000b1	88 45 37	 mov	 BYTE PTR $T12[ebp], al

; 236  :         return !(*this == _Right);

  000b4	0f b6 45 37	 movzx	 eax, BYTE PTR $T12[ebp]
  000b8	85 c0		 test	 eax, eax
  000ba	75 09		 jne	 SHORT $LN109@SetFaceTex
  000bc	c7 45 28 01 00
	00 00		 mov	 DWORD PTR tv216[ebp], 1
  000c3	eb 04		 jmp	 SHORT $LN110@SetFaceTex
$LN109@SetFaceTex:
  000c5	83 65 28 00	 and	 DWORD PTR tv216[ebp], 0
$LN110@SetFaceTex:
  000c9	8a 45 28	 mov	 al, BYTE PTR tv216[ebp]
  000cc	88 45 36	 mov	 BYTE PTR $T11[ebp], al
; File D:\Metin2 Server Files\mainline\SRC_2014\Metin2Client\EterLib\SkyBox.cpp

; 255  : 	if (m_GraphicImageInstanceMap.end() != itor)

  000cf	0f b6 45 36	 movzx	 eax, BYTE PTR $T11[ebp]
  000d3	85 c0		 test	 eax, eax
  000d5	74 05		 je	 SHORT $LN4@SetFaceTex

; 256  : 		return;

  000d7	e9 8e 00 00 00	 jmp	 $LN1@SetFaceTex
$LN4@SetFaceTex:

; 258  : 	m_Faces[iFaceIndex].m_strFaceTextureFileName = c_szFileName;

  000dc	8b 45 78	 mov	 eax, DWORD PTR _c_szFileName$[ebp]
  000df	89 45 24	 mov	 DWORD PTR __Ptr$[ebp], eax
; File C:\Program Files (x86)\Microsoft Visual Studio\2019\Community\VC\Tools\MSVC\14.28.29333\include\xstring

; 389  :         return _CSTD strlen(reinterpret_cast<const char*>(_First));

  000e2	ff 75 24	 push	 DWORD PTR __Ptr$[ebp]
  000e5	e8 00 00 00 00	 call	 _strlen
  000ea	59		 pop	 ecx
  000eb	89 45 08	 mov	 DWORD PTR $T6[ebp], eax
; File C:\Program Files (x86)\Microsoft Visual Studio\2019\Community\VC\Tools\MSVC\14.28.29333\include\xmemory

; 997  :     return _Len;

  000ee	8b 45 08	 mov	 eax, DWORD PTR $T6[ebp]
  000f1	89 45 04	 mov	 DWORD PTR $T5[ebp], eax
; File C:\Program Files (x86)\Microsoft Visual Studio\2019\Community\VC\Tools\MSVC\14.28.29333\include\xstring

; 3062 :         return assign(_Ptr, _Convert_size<size_type>(_Traits::length(_Ptr)));

  000f4	ff 75 04	 push	 DWORD PTR $T5[ebp]
  000f7	ff 75 24	 push	 DWORD PTR __Ptr$[ebp]
; File D:\Metin2 Server Files\mainline\SRC_2014\Metin2Client\EterLib\SkyBox.cpp

; 258  : 	m_Faces[iFaceIndex].m_strFaceTextureFileName = c_szFileName;

  000fa	6b 45 7c 3c	 imul	 eax, DWORD PTR _iFaceIndex$[ebp], 60
  000fe	8b 4d 30	 mov	 ecx, DWORD PTR _this$[ebp]
  00101	8d 8c 01 30 02
	00 00		 lea	 ecx, DWORD PTR [ecx+eax+560]
; File C:\Program Files (x86)\Microsoft Visual Studio\2019\Community\VC\Tools\MSVC\14.28.29333\include\xstring

; 3062 :         return assign(_Ptr, _Convert_size<size_type>(_Traits::length(_Ptr)));

  00108	e8 00 00 00 00	 call	 ?assign@?$basic_string@DU?$char_traits@D@std@@V?$allocator@D@2@@std@@QAEAAV12@QBDI@Z ; std::basic_string<char,std::char_traits<char>,std::allocator<char> >::assign
; File D:\Metin2 Server Files\mainline\SRC_2014\Metin2Client\EterLib\SkyBox.cpp

; 260  : 	CGraphicImageInstance * pGraphicImageInstance = GenerateTexture(c_szFileName);

  0010d	ff 75 78	 push	 DWORD PTR _c_szFileName$[ebp]
  00110	8b 4d 30	 mov	 ecx, DWORD PTR _this$[ebp]
  00113	e8 00 00 00 00	 call	 ?GenerateTexture@CSkyObject@@IAEPAVCGraphicImageInstance@@PBD@Z ; CSkyObject::GenerateTexture
  00118	89 45 f0	 mov	 DWORD PTR _pGraphicImageInstance$[ebp], eax
; File C:\Program Files (x86)\Microsoft Visual Studio\2019\Community\VC\Tools\MSVC\14.28.29333\include\type_traits

; 1443 :     return static_cast<_Ty&&>(_Arg);

  0011b	8d 45 78	 lea	 eax, DWORD PTR _c_szFileName$[ebp]
  0011e	89 45 00	 mov	 DWORD PTR $T4[ebp], eax
; File C:\Program Files (x86)\Microsoft Visual Studio\2019\Community\VC\Tools\MSVC\14.28.29333\include\utility

; 190  :         : first(_STD forward<_Other1>(_Val1)), second(_STD forward<_Other2>(_Val2)) {}

  00121	8b 45 00	 mov	 eax, DWORD PTR $T4[ebp]
  00124	ff 30		 push	 DWORD PTR [eax]
  00126	8d 4d 50	 lea	 ecx, DWORD PTR $T14[ebp]
  00129	e8 00 00 00 00	 call	 ??0?$basic_string@DU?$char_traits@D@std@@V?$allocator@D@2@@std@@QAE@QBD@Z ; std::basic_string<char,std::char_traits<char>,std::allocator<char> >::basic_string<char,std::char_traits<char>,std::allocator<char> >
; File C:\Program Files (x86)\Microsoft Visual Studio\2019\Community\VC\Tools\MSVC\14.28.29333\include\type_traits

; 1443 :     return static_cast<_Ty&&>(_Arg);

  0012e	8d 45 f0	 lea	 eax, DWORD PTR _pGraphicImageInstance$[ebp]
  00131	89 45 ec	 mov	 DWORD PTR $T3[ebp], eax
; File C:\Program Files (x86)\Microsoft Visual Studio\2019\Community\VC\Tools\MSVC\14.28.29333\include\utility

; 190  :         : first(_STD forward<_Other1>(_Val1)), second(_STD forward<_Other2>(_Val2)) {}

  00134	8b 45 ec	 mov	 eax, DWORD PTR $T3[ebp]
  00137	8b 00		 mov	 eax, DWORD PTR [eax]
  00139	89 45 68	 mov	 DWORD PTR $T14[ebp+24], eax
; File D:\Metin2 Server Files\mainline\SRC_2014\Metin2Client\EterLib\SkyBox.cpp

; 261  : 	m_GraphicImageInstanceMap.insert(TGraphicImageInstanceMap::value_type(c_szFileName, pGraphicImageInstance));

  0013c	8d 45 50	 lea	 eax, DWORD PTR $T14[ebp]
  0013f	89 45 e8	 mov	 DWORD PTR tv172[ebp], eax
  00142	c7 45 fc 01 00
	00 00		 mov	 DWORD PTR __$EHRec$[ebp+8], 1
  00149	ff 75 e8	 push	 DWORD PTR tv172[ebp]
  0014c	8d 45 e0	 lea	 eax, DWORD PTR $T2[ebp]
  0014f	50		 push	 eax
  00150	8b 4d 30	 mov	 ecx, DWORD PTR _this$[ebp]
  00153	81 c1 34 01 00
	00		 add	 ecx, 308		; 00000134H
  00159	e8 00 00 00 00	 call	 ??$insert@$0A@$0A@@?$_Tree@V?$_Tmap_traits@V?$basic_string@DU?$char_traits@D@std@@V?$allocator@D@2@@std@@PAVCGraphicImageInstance@@U?$less@V?$basic_string@DU?$char_traits@D@std@@V?$allocator@D@2@@std@@@2@V?$allocator@U?$pair@$$CBV?$basic_string@DU?$char_traits@D@std@@V?$allocator@D@2@@std@@PAVCGraphicImageInstance@@@std@@@2@$0A@@std@@@std@@QAE?AU?$pair@V?$_Tree_iterator@V?$_Tree_val@U?$_Tree_simple_types@U?$pair@$$CBV?$basic_string@DU?$char_traits@D@std@@V?$allocator@D@2@@std@@PAVCGraphicImageInstance@@@std@@@std@@@std@@@std@@_N@1@$$QAU?$pair@$$CBV?$basic_string@DU?$char_traits@D@std@@V?$allocator@D@2@@std@@PAVCGraphicImageInstance@@@1@@Z ; std::_Tree<std::_Tmap_traits<std::basic_string<char,std::char_traits<char>,std::allocator<char> >,CGraphicImageInstance *,std::less<std::basic_string<char,std::char_traits<char>,std::allocator<char> > >,std::allocator<std::pair<std::basic_string<char,std::char_traits<char>,std::allocator<char> > const ,CGraphicImageInstance *> >,0> >::insert<0,0>
  0015e	83 4d fc ff	 or	 DWORD PTR __$EHRec$[ebp+8], -1
  00162	8d 4d 50	 lea	 ecx, DWORD PTR $T14[ebp]
; File C:\Program Files (x86)\Microsoft Visual Studio\2019\Community\VC\Tools\MSVC\14.28.29333\include\xstring

; 2801 :         _Tidy_deallocate();

  00165	e8 00 00 00 00	 call	 ?_Tidy_deallocate@?$basic_string@DU?$char_traits@D@std@@V?$allocator@D@2@@std@@AAEXXZ ; std::basic_string<char,std::char_traits<char>,std::allocator<char> >::_Tidy_deallocate
$LN1@SetFaceTex:
; File D:\Metin2 Server Files\mainline\SRC_2014\Metin2Client\EterLib\SkyBox.cpp

; 262  : }

  0016a	8b 4d f4	 mov	 ecx, DWORD PTR __$EHRec$[ebp]
  0016d	64 89 0d 00 00
	00 00		 mov	 DWORD PTR fs:0, ecx
  00174	59		 pop	 ecx
  00175	8b 4d 6c	 mov	 ecx, DWORD PTR __$ArrayPad$[ebp]
  00178	33 cd		 xor	 ecx, ebp
  0017a	e8 00 00 00 00	 call	 @__security_check_cookie@4
  0017f	83 c5 70	 add	 ebp, 112		; 00000070H
  00182	c9		 leave
  00183	c2 08 00	 ret	 8
_TEXT	ENDS
;	COMDAT text$x
text$x	SEGMENT
__unwindfunclet$?SetFaceTexture@CSkyBox@@QAEXPBDH@Z$0:
  00000	8d 4d 38	 lea	 ecx, DWORD PTR $T13[ebp]
  00003	e9 00 00 00 00	 jmp	 ??1?$basic_string@DU?$char_traits@D@std@@V?$allocator@D@2@@std@@QAE@XZ ; std::basic_string<char,std::char_traits<char>,std::allocator<char> >::~basic_string<char,std::char_traits<char>,std::allocator<char> >
__unwindfunclet$?SetFaceTexture@CSkyBox@@QAEXPBDH@Z$1:
  00008	8d 4d 50	 lea	 ecx, DWORD PTR $T14[ebp]
  0000b	e9 00 00 00 00	 jmp	 ??1?$pair@$$CBV?$basic_string@DU?$char_traits@D@std@@V?$allocator@D@2@@std@@PAVCGraphicImageInstance@@@std@@QAE@XZ
  00010	cc		 int	 3
  00011	cc		 int	 3
  00012	cc		 int	 3
  00013	cc		 int	 3
  00014	cc		 int	 3
__ehhandler$?SetFaceTexture@CSkyBox@@QAEXPBDH@Z:
  00015	90		 npad	 1
  00016	90		 npad	 1
  00017	8b 54 24 08	 mov	 edx, DWORD PTR [esp+8]
  0001b	8d 42 0c	 lea	 eax, DWORD PTR [edx+12]
  0001e	8b 4a e8	 mov	 ecx, DWORD PTR [edx-24]
  00021	33 c8		 xor	 ecx, eax
  00023	e8 00 00 00 00	 call	 @__security_check_cookie@4
  00028	8b 4a 78	 mov	 ecx, DWORD PTR [edx+120]
  0002b	33 c8		 xor	 ecx, eax
  0002d	e8 00 00 00 00	 call	 @__security_check_cookie@4
  00032	b8 00 00 00 00	 mov	 eax, OFFSET __ehfuncinfo$?SetFaceTexture@CSkyBox@@QAEXPBDH@Z
  00037	e9 00 00 00 00	 jmp	 ___CxxFrameHandler3
text$x	ENDS
?SetFaceTexture@CSkyBox@@QAEXPBDH@Z ENDP		; CSkyBox::SetFaceTexture
; Function compile flags: /Odspy
; File D:\Metin2 Server Files\mainline\SRC_2014\Metin2Client\EterLib\SkyBox.cpp
;	COMDAT ?SetGradientLevel@CSkyBox@@QAEXEE@Z
_TEXT	SEGMENT
_this$ = -4						; size = 4
_byUpper$ = 8						; size = 1
_byLower$ = 12						; size = 1
?SetGradientLevel@CSkyBox@@QAEXEE@Z PROC		; CSkyBox::SetGradientLevel, COMDAT
; _this$ = ecx

; 244  : {

  00000	55		 push	 ebp
  00001	8b ec		 mov	 ebp, esp
  00003	51		 push	 ecx
  00004	89 4d fc	 mov	 DWORD PTR _this$[ebp], ecx

; 245  : 	m_ucVirticalGradientLevelUpper = byUpper;

  00007	8b 45 fc	 mov	 eax, DWORD PTR _this$[ebp]
  0000a	8a 4d 08	 mov	 cl, BYTE PTR _byUpper$[ebp]
  0000d	88 88 14 02 00
	00		 mov	 BYTE PTR [eax+532], cl

; 246  : 	m_ucVirticalGradientLevelLower = byLower;

  00013	8b 45 fc	 mov	 eax, DWORD PTR _this$[ebp]
  00016	8a 4d 0c	 mov	 cl, BYTE PTR _byLower$[ebp]
  00019	88 88 15 02 00
	00		 mov	 BYTE PTR [eax+533], cl

; 247  : }

  0001f	c9		 leave
  00020	c2 08 00	 ret	 8
?SetGradientLevel@CSkyBox@@QAEXEE@Z ENDP		; CSkyBox::SetGradientLevel
_TEXT	ENDS
; Function compile flags: /Odspy
; File D:\Metin2 Server Files\mainline\SRC_2014\Metin2Client\EterLib\SkyBox.cpp
;	COMDAT ?SetSkyBoxScale@CSkyBox@@QAEXABUD3DXVECTOR3@@@Z
_TEXT	SEGMENT
_this$ = -4						; size = 4
_c_rv3Scale$ = 8					; size = 4
?SetSkyBoxScale@CSkyBox@@QAEXABUD3DXVECTOR3@@@Z PROC	; CSkyBox::SetSkyBoxScale, COMDAT
; _this$ = ecx

; 234  : {

  00000	55		 push	 ebp
  00001	8b ec		 mov	 ebp, esp
  00003	51		 push	 ecx
  00004	89 4d fc	 mov	 DWORD PTR _this$[ebp], ecx

; 235  : 	m_fScaleX = c_rv3Scale.x;

  00007	8b 45 fc	 mov	 eax, DWORD PTR _this$[ebp]
  0000a	8b 4d 08	 mov	 ecx, DWORD PTR _c_rv3Scale$[ebp]
  0000d	8b 09		 mov	 ecx, DWORD PTR [ecx]
  0000f	89 88 c8 01 00
	00		 mov	 DWORD PTR [eax+456], ecx

; 236  : 	m_fScaleY = c_rv3Scale.y;

  00015	8b 45 fc	 mov	 eax, DWORD PTR _this$[ebp]
  00018	8b 4d 08	 mov	 ecx, DWORD PTR _c_rv3Scale$[ebp]
  0001b	8b 49 04	 mov	 ecx, DWORD PTR [ecx+4]
  0001e	89 88 cc 01 00
	00		 mov	 DWORD PTR [eax+460], ecx

; 237  : 	m_fScaleZ = c_rv3Scale.z;

  00024	8b 45 fc	 mov	 eax, DWORD PTR _this$[ebp]
  00027	8b 4d 08	 mov	 ecx, DWORD PTR _c_rv3Scale$[ebp]
  0002a	8b 49 08	 mov	 ecx, DWORD PTR [ecx+8]
  0002d	89 88 d0 01 00
	00		 mov	 DWORD PTR [eax+464], ecx

; 238  : 
; 239  : 	m_bSkyMatrixUpdated = true;

  00033	8b 45 fc	 mov	 eax, DWORD PTR _this$[ebp]
  00036	c6 80 f1 01 00
	00 01		 mov	 BYTE PTR [eax+497], 1

; 240  : 	D3DXMatrixScaling(&m_matWorld, m_fScaleX, m_fScaleY, m_fScaleZ);

  0003d	8b 45 fc	 mov	 eax, DWORD PTR _this$[ebp]
  00040	51		 push	 ecx
  00041	f3 0f 10 80 d0
	01 00 00	 movss	 xmm0, DWORD PTR [eax+464]
  00049	f3 0f 11 04 24	 movss	 DWORD PTR [esp], xmm0
  0004e	8b 45 fc	 mov	 eax, DWORD PTR _this$[ebp]
  00051	51		 push	 ecx
  00052	f3 0f 10 80 cc
	01 00 00	 movss	 xmm0, DWORD PTR [eax+460]
  0005a	f3 0f 11 04 24	 movss	 DWORD PTR [esp], xmm0
  0005f	8b 45 fc	 mov	 eax, DWORD PTR _this$[ebp]
  00062	51		 push	 ecx
  00063	f3 0f 10 80 c8
	01 00 00	 movss	 xmm0, DWORD PTR [eax+456]
  0006b	f3 0f 11 04 24	 movss	 DWORD PTR [esp], xmm0
  00070	8b 45 fc	 mov	 eax, DWORD PTR _this$[ebp]
  00073	05 3c 01 00 00	 add	 eax, 316		; 0000013cH
  00078	50		 push	 eax
  00079	e8 00 00 00 00	 call	 _D3DXMatrixScaling@16

; 241  : }

  0007e	c9		 leave
  0007f	c2 04 00	 ret	 4
?SetSkyBoxScale@CSkyBox@@QAEXABUD3DXVECTOR3@@@Z ENDP	; CSkyBox::SetSkyBoxScale
_TEXT	ENDS
; Function compile flags: /Odspy
; File D:\Metin2 Server Files\mainline\SRC_2014\Metin2Client\EterLib\SkyBox.cpp
; File C:\Program Files (x86)\Microsoft Visual Studio\2019\Community\VC\Tools\MSVC\14.28.29333\include\xtree
; File C:\Program Files (x86)\Microsoft Visual Studio\2019\Community\VC\Tools\MSVC\14.28.29333\include\xstddef
; File C:\Program Files (x86)\Microsoft Visual Studio\2019\Community\VC\Tools\MSVC\14.28.29333\include\xtree
; File D:\Metin2 Server Files\mainline\SRC_2014\Metin2Client\EterLib\SkyBox.cpp
; File C:\Program Files (x86)\Microsoft Visual Studio\2019\Community\VC\Tools\MSVC\14.28.29333\include\xtree
; File C:\Program Files (x86)\Microsoft Visual Studio\2019\Community\VC\Tools\MSVC\14.28.29333\include\xstddef
; File C:\Program Files (x86)\Microsoft Visual Studio\2019\Community\VC\Tools\MSVC\14.28.29333\include\xutility
; File C:\Program Files (x86)\Microsoft Visual Studio\2019\Community\VC\Tools\MSVC\14.28.29333\include\xtree
; File D:\Metin2 Server Files\mainline\SRC_2014\Metin2Client\EterLib\SkyBox.cpp
; File C:\Program Files (x86)\Microsoft Visual Studio\2019\Community\VC\Tools\MSVC\14.28.29333\include\xtree
; File D:\Metin2 Server Files\mainline\SRC_2014\Metin2Client\EterLib\SkyBox.cpp
;	COMDAT ?Unload@CSkyBox@@QAEXXZ
_TEXT	SEGMENT
$T1 = -60						; size = 4
$T2 = -56						; size = 4
$T3 = -52						; size = 4
$T4 = -48						; size = 4
$T5 = -44						; size = 4
$T6 = -40						; size = 4
$T7 = -36						; size = 4
___param0$ = -32					; size = 4
__Scary$8 = -28						; size = 4
$T9 = -24						; size = 4
tv172 = -20						; size = 4
tv207 = -16						; size = 4
_itor$ = -12						; size = 4
_this$ = -8						; size = 4
$T10 = -2						; size = 1
$T11 = -1						; size = 1
?Unload@CSkyBox@@QAEXXZ PROC				; CSkyBox::Unload, COMDAT
; _this$ = ecx

; 309  : {

  00000	55		 push	 ebp
  00001	8b ec		 mov	 ebp, esp
  00003	83 ec 3c	 sub	 esp, 60			; 0000003cH
  00006	89 4d f8	 mov	 DWORD PTR _this$[ebp], ecx

; 310  : 	TGraphicImageInstanceMap::iterator itor = m_GraphicImageInstanceMap.begin();

  00009	8d 45 f4	 lea	 eax, DWORD PTR _itor$[ebp]
  0000c	50		 push	 eax
  0000d	8b 4d f8	 mov	 ecx, DWORD PTR _this$[ebp]
  00010	81 c1 34 01 00
	00		 add	 ecx, 308		; 00000134H
  00016	e8 00 00 00 00	 call	 ?begin@?$_Tree@V?$_Tmap_traits@V?$basic_string@DU?$char_traits@D@std@@V?$allocator@D@2@@std@@PAVCGraphicImageInstance@@U?$less@V?$basic_string@DU?$char_traits@D@std@@V?$allocator@D@2@@std@@@2@V?$allocator@U?$pair@$$CBV?$basic_string@DU?$char_traits@D@std@@V?$allocator@D@2@@std@@PAVCGraphicImageInstance@@@std@@@2@$0A@@std@@@std@@QAE?AV?$_Tree_iterator@V?$_Tree_val@U?$_Tree_simple_types@U?$pair@$$CBV?$basic_string@DU?$char_traits@D@std@@V?$allocator@D@2@@std@@PAVCGraphicImageInstance@@@std@@@std@@@std@@@2@XZ ; std::_Tree<std::_Tmap_traits<std::basic_string<char,std::char_traits<char>,std::allocator<char> >,CGraphicImageInstance *,std::less<std::basic_string<char,std::char_traits<char>,std::allocator<char> > >,std::allocator<std::pair<std::basic_string<char,std::char_traits<char>,std::allocator<char> > const ,CGraphicImageInstance *> >,0> >::begin
$LN2@Unload:
; File C:\Program Files (x86)\Microsoft Visual Studio\2019\Community\VC\Tools\MSVC\14.28.29333\include\xtree

; 2047 :         return _STD addressof(_Mypair._Myval2._Myval2);

  0001b	8b 45 f8	 mov	 eax, DWORD PTR _this$[ebp]
  0001e	05 34 01 00 00	 add	 eax, 308		; 00000134H
; File C:\Program Files (x86)\Microsoft Visual Studio\2019\Community\VC\Tools\MSVC\14.28.29333\include\xstddef

; 275  :     return __builtin_addressof(_Val);

  00023	89 45 e8	 mov	 DWORD PTR $T9[ebp], eax
; File C:\Program Files (x86)\Microsoft Visual Studio\2019\Community\VC\Tools\MSVC\14.28.29333\include\xtree

; 2047 :         return _STD addressof(_Mypair._Myval2._Myval2);

  00026	8b 45 e8	 mov	 eax, DWORD PTR $T9[ebp]
  00029	89 45 e4	 mov	 DWORD PTR __Scary$8[ebp], eax

; 1250 :         return iterator(_Scary->_Myhead, _Scary);

  0002c	8b 45 e4	 mov	 eax, DWORD PTR __Scary$8[ebp]
  0002f	8b 00		 mov	 eax, DWORD PTR [eax]
  00031	89 45 e0	 mov	 DWORD PTR ___param0$[ebp], eax

; 39   :     _Tree_unchecked_const_iterator(_Nodeptr _Pnode, const _Mytree* _Plist) noexcept : _Ptr(_Pnode) {

  00034	8b 45 e0	 mov	 eax, DWORD PTR ___param0$[ebp]
  00037	89 45 dc	 mov	 DWORD PTR $T7[ebp], eax

; 1250 :         return iterator(_Scary->_Myhead, _Scary);

  0003a	8d 45 dc	 lea	 eax, DWORD PTR $T7[ebp]
  0003d	89 45 d8	 mov	 DWORD PTR $T6[ebp], eax

; 232  :         return this->_Ptr == _Right._Ptr;

  00040	8b 45 d8	 mov	 eax, DWORD PTR $T6[ebp]
  00043	8b 4d f4	 mov	 ecx, DWORD PTR _itor$[ebp]
  00046	3b 08		 cmp	 ecx, DWORD PTR [eax]
  00048	75 09		 jne	 SHORT $LN54@Unload
  0004a	c7 45 f0 01 00
	00 00		 mov	 DWORD PTR tv207[ebp], 1
  00051	eb 04		 jmp	 SHORT $LN55@Unload
$LN54@Unload:
  00053	83 65 f0 00	 and	 DWORD PTR tv207[ebp], 0
$LN55@Unload:
  00057	8a 45 f0	 mov	 al, BYTE PTR tv207[ebp]
  0005a	88 45 ff	 mov	 BYTE PTR $T11[ebp], al

; 236  :         return !(*this == _Right);

  0005d	0f b6 45 ff	 movzx	 eax, BYTE PTR $T11[ebp]
  00061	85 c0		 test	 eax, eax
  00063	75 09		 jne	 SHORT $LN49@Unload
  00065	c7 45 ec 01 00
	00 00		 mov	 DWORD PTR tv172[ebp], 1
  0006c	eb 04		 jmp	 SHORT $LN50@Unload
$LN49@Unload:
  0006e	83 65 ec 00	 and	 DWORD PTR tv172[ebp], 0
$LN50@Unload:
  00072	8a 45 ec	 mov	 al, BYTE PTR tv172[ebp]
  00075	88 45 fe	 mov	 BYTE PTR $T10[ebp], al
; File D:\Metin2 Server Files\mainline\SRC_2014\Metin2Client\EterLib\SkyBox.cpp

; 312  : 	while (itor != m_GraphicImageInstanceMap.end())

  00078	0f b6 45 fe	 movzx	 eax, BYTE PTR $T10[ebp]
  0007c	85 c0		 test	 eax, eax
  0007e	74 3c		 je	 SHORT $LN3@Unload
; File C:\Program Files (x86)\Microsoft Visual Studio\2019\Community\VC\Tools\MSVC\14.28.29333\include\xtree

; 185  :         return this->_Ptr->_Myval;

  00080	8b 45 f4	 mov	 eax, DWORD PTR _itor$[ebp]
  00083	83 c0 10	 add	 eax, 16			; 00000010H
  00086	89 45 d4	 mov	 DWORD PTR $T5[ebp], eax

; 273  :         return const_cast<reference>(_Mybase::operator*());

  00089	8b 45 d4	 mov	 eax, DWORD PTR $T5[ebp]
  0008c	89 45 d0	 mov	 DWORD PTR $T4[ebp], eax
; File C:\Program Files (x86)\Microsoft Visual Studio\2019\Community\VC\Tools\MSVC\14.28.29333\include\xstddef

; 275  :     return __builtin_addressof(_Val);

  0008f	8b 45 d0	 mov	 eax, DWORD PTR $T4[ebp]
  00092	89 45 cc	 mov	 DWORD PTR $T3[ebp], eax
; File C:\Program Files (x86)\Microsoft Visual Studio\2019\Community\VC\Tools\MSVC\14.28.29333\include\xutility

; 151  :         return _STD addressof(_Val);

  00095	8b 45 cc	 mov	 eax, DWORD PTR $T3[ebp]
  00098	89 45 c8	 mov	 DWORD PTR $T2[ebp], eax
; File C:\Program Files (x86)\Microsoft Visual Studio\2019\Community\VC\Tools\MSVC\14.28.29333\include\xtree

; 277  :         return pointer_traits<pointer>::pointer_to(**this);

  0009b	8b 45 c8	 mov	 eax, DWORD PTR $T2[ebp]
  0009e	89 45 c4	 mov	 DWORD PTR $T1[ebp], eax
; File D:\Metin2 Server Files\mainline\SRC_2014\Metin2Client\EterLib\SkyBox.cpp

; 314  : 		DeleteTexture(itor->second);

  000a1	8b 45 c4	 mov	 eax, DWORD PTR $T1[ebp]
  000a4	ff 70 18	 push	 DWORD PTR [eax+24]
  000a7	8b 4d f8	 mov	 ecx, DWORD PTR _this$[ebp]
  000aa	e8 00 00 00 00	 call	 ?DeleteTexture@CSkyObject@@IAEXPAVCGraphicImageInstance@@@Z ; CSkyObject::DeleteTexture
; File C:\Program Files (x86)\Microsoft Visual Studio\2019\Community\VC\Tools\MSVC\14.28.29333\include\xtree

; 198  :         _Mybase::operator++();

  000af	8d 4d f4	 lea	 ecx, DWORD PTR _itor$[ebp]
  000b2	e8 00 00 00 00	 call	 ??E?$_Tree_unchecked_const_iterator@V?$_Tree_val@U?$_Tree_simple_types@U?$pair@$$CBV?$basic_string@DU?$char_traits@D@std@@V?$allocator@D@2@@std@@PAVCGraphicImageInstance@@@std@@@std@@@std@@U_Iterator_base0@2@@std@@QAEAAV01@XZ ; std::_Tree_unchecked_const_iterator<std::_Tree_val<std::_Tree_simple_types<std::pair<std::basic_string<char,std::char_traits<char>,std::allocator<char> > const ,CGraphicImageInstance *> > >,std::_Iterator_base0>::operator++
; File D:\Metin2 Server Files\mainline\SRC_2014\Metin2Client\EterLib\SkyBox.cpp

; 316  : 	}

  000b7	e9 5f ff ff ff	 jmp	 $LN2@Unload
$LN3@Unload:

; 317  : 
; 318  : 	m_GraphicImageInstanceMap.clear();

  000bc	8b 4d f8	 mov	 ecx, DWORD PTR _this$[ebp]
  000bf	81 c1 34 01 00
	00		 add	 ecx, 308		; 00000134H
  000c5	e8 00 00 00 00	 call	 ?clear@?$_Tree@V?$_Tmap_traits@V?$basic_string@DU?$char_traits@D@std@@V?$allocator@D@2@@std@@PAVCGraphicImageInstance@@U?$less@V?$basic_string@DU?$char_traits@D@std@@V?$allocator@D@2@@std@@@2@V?$allocator@U?$pair@$$CBV?$basic_string@DU?$char_traits@D@std@@V?$allocator@D@2@@std@@PAVCGraphicImageInstance@@@std@@@2@$0A@@std@@@std@@QAEXXZ ; std::_Tree<std::_Tmap_traits<std::basic_string<char,std::char_traits<char>,std::allocator<char> >,CGraphicImageInstance *,std::less<std::basic_string<char,std::char_traits<char>,std::allocator<char> > >,std::allocator<std::pair<std::basic_string<char,std::char_traits<char>,std::allocator<char> > const ,CGraphicImageInstance *> >,0> >::clear

; 319  : }

  000ca	c9		 leave
  000cb	c3		 ret	 0
?Unload@CSkyBox@@QAEXXZ ENDP				; CSkyBox::Unload
_TEXT	ENDS
; Function compile flags: /Odspy
; File D:\Metin2 Server Files\mainline\SRC_2014\Metin2Client\EterLib\SkyBox.cpp
;	COMDAT ?Destroy@CSkyBox@@UAEXXZ
_TEXT	SEGMENT
_this$ = -4						; size = 4
?Destroy@CSkyBox@@UAEXXZ PROC				; CSkyBox::Destroy, COMDAT
; _this$ = ecx

; 229  : {

  00000	55		 push	 ebp
  00001	8b ec		 mov	 ebp, esp
  00003	51		 push	 ecx
  00004	89 4d fc	 mov	 DWORD PTR _this$[ebp], ecx

; 230  : 	Unload();

  00007	8b 4d fc	 mov	 ecx, DWORD PTR _this$[ebp]
  0000a	e8 00 00 00 00	 call	 ?Unload@CSkyBox@@QAEXXZ	; CSkyBox::Unload

; 231  : }

  0000f	c9		 leave
  00010	c3		 ret	 0
?Destroy@CSkyBox@@UAEXXZ ENDP				; CSkyBox::Destroy
_TEXT	ENDS
; Function compile flags: /Odspy
; File D:\Metin2 Server Files\mainline\SRC_2014\Metin2Client\EterLib\SkyBox.cpp
; File C:\Program Files (x86)\Microsoft Visual Studio\2019\Community\VC\Tools\MSVC\14.28.29333\include\map
; File D:\Metin2 Server Files\mainline\SRC_2014\Metin2Client\EterLib\SkyBox.cpp
; File C:\Program Files (x86)\Microsoft Visual Studio\2019\Community\VC\Tools\MSVC\14.28.29333\include\map
; File D:\Metin2 Server Files\mainline\SRC_2014\Metin2Client\EterLib\SkyBox.cpp
; File D:\Metin2 Server Files\mainline\SRC_2014\Metin2Client\eterBase\Singleton.h
; File D:\Metin2 Server Files\mainline\SRC_2014\Metin2Client\EterLib\SkyBox.cpp
; File D:\Metin2 Server Files\mainline\SRC_2014\Metin2Client\eterBase\Singleton.h
; File D:\Metin2 Server Files\mainline\SRC_2014\Metin2Client\EterLib\SkyBox.cpp
;	COMDAT ?RenderCloud@CSkyBox@@QAEXXZ
_TEXT	SEGMENT
$T1 = -120						; size = 8
tv406 = -112						; size = 8
tv387 = -104						; size = 8
$T2 = -96						; size = 4
$T3 = -92						; size = 4
_pCloudGraphicImageInstance$ = -88			; size = 4
tv403 = -84						; size = 4
tv384 = -80						; size = 4
_dwCurTime$ = -76					; size = 4
_this$ = -72						; size = 4
_matProjCloud$ = -68					; size = 64
__$ArrayPad$ = -4					; size = 4
?RenderCloud@CSkyBox@@QAEXXZ PROC			; CSkyBox::RenderCloud, COMDAT
; _this$ = ecx

; 870  : {

  00000	55		 push	 ebp
  00001	8b ec		 mov	 ebp, esp
  00003	83 ec 78	 sub	 esp, 120		; 00000078H
  00006	a1 00 00 00 00	 mov	 eax, DWORD PTR ___security_cookie
  0000b	33 c5		 xor	 eax, ebp
  0000d	89 45 fc	 mov	 DWORD PTR __$ArrayPad$[ebp], eax
  00010	89 4d b8	 mov	 DWORD PTR _this$[ebp], ecx

; 871  : 	CGraphicImageInstance * pCloudGraphicImageInstance = m_GraphicImageInstanceMap[m_FaceCloud.m_strfacename];

  00013	8b 45 b8	 mov	 eax, DWORD PTR _this$[ebp]
  00016	83 c0 04	 add	 eax, 4
; File C:\Program Files (x86)\Microsoft Visual Studio\2019\Community\VC\Tools\MSVC\14.28.29333\include\map

; 325  :         return _Try_emplace(_Keyval).first->_Myval.second;

  00019	50		 push	 eax
  0001a	8d 45 88	 lea	 eax, DWORD PTR $T1[ebp]
  0001d	50		 push	 eax
; File D:\Metin2 Server Files\mainline\SRC_2014\Metin2Client\EterLib\SkyBox.cpp

; 871  : 	CGraphicImageInstance * pCloudGraphicImageInstance = m_GraphicImageInstanceMap[m_FaceCloud.m_strfacename];

  0001e	8b 4d b8	 mov	 ecx, DWORD PTR _this$[ebp]
  00021	81 c1 34 01 00
	00		 add	 ecx, 308		; 00000134H
; File C:\Program Files (x86)\Microsoft Visual Studio\2019\Community\VC\Tools\MSVC\14.28.29333\include\map

; 325  :         return _Try_emplace(_Keyval).first->_Myval.second;

  00027	e8 00 00 00 00	 call	 ??$_Try_emplace@ABV?$basic_string@DU?$char_traits@D@std@@V?$allocator@D@2@@std@@$$V@?$map@V?$basic_string@DU?$char_traits@D@std@@V?$allocator@D@2@@std@@PAVCGraphicImageInstance@@U?$less@V?$basic_string@DU?$char_traits@D@std@@V?$allocator@D@2@@std@@@2@V?$allocator@U?$pair@$$CBV?$basic_string@DU?$char_traits@D@std@@V?$allocator@D@2@@std@@PAVCGraphicImageInstance@@@std@@@2@@std@@AAE?AU?$pair@PAU?$_Tree_node@U?$pair@$$CBV?$basic_string@DU?$char_traits@D@std@@V?$allocator@D@2@@std@@PAVCGraphicImageInstance@@@std@@PAX@std@@_N@1@ABV?$basic_string@DU?$char_traits@D@std@@V?$allocator@D@2@@1@@Z ; std::map<std::basic_string<char,std::char_traits<char>,std::allocator<char> >,CGraphicImageInstance *,std::less<std::basic_string<char,std::char_traits<char>,std::allocator<char> > >,std::allocator<std::pair<std::basic_string<char,std::char_traits<char>,std::allocator<char> > const ,CGraphicImageInstance *> > >::_Try_emplace<std::basic_string<char,std::char_traits<char>,std::allocator<char> > const &>
; File D:\Metin2 Server Files\mainline\SRC_2014\Metin2Client\EterLib\SkyBox.cpp

; 871  : 	CGraphicImageInstance * pCloudGraphicImageInstance = m_GraphicImageInstanceMap[m_FaceCloud.m_strfacename];

  0002c	8b 00		 mov	 eax, DWORD PTR [eax]
  0002e	8b 40 28	 mov	 eax, DWORD PTR [eax+40]
  00031	89 45 a8	 mov	 DWORD PTR _pCloudGraphicImageInstance$[ebp], eax

; 872  : 	if (!pCloudGraphicImageInstance)

  00034	83 7d a8 00	 cmp	 DWORD PTR _pCloudGraphicImageInstance$[ebp], 0
  00038	75 05		 jne	 SHORT $LN2@RenderClou

; 873  : 		return;

  0003a	e9 38 03 00 00	 jmp	 $LN1@RenderClou
$LN2@RenderClou:

; 874  : 
; 875  : 	// 2004.01.25 myevan    , DepthTest 
; 876  : 	STATEMANAGER.SaveRenderState(D3DRS_ZENABLE,	TRUE);

  0003f	6a 01		 push	 1
  00041	6a 07		 push	 7
  00043	8b 0d 00 00 00
	00		 mov	 ecx, DWORD PTR ?ms_singleton@?$CSingleton@VCStateManager@@@@0PAVCStateManager@@A ; CSingleton<CStateManager>::ms_singleton
  00049	e8 00 00 00 00	 call	 ?SaveRenderState@CStateManager@@QAEXW4_D3DRENDERSTATETYPE@@K@Z ; CStateManager::SaveRenderState

; 877  : 	STATEMANAGER.SaveRenderState(D3DRS_ZWRITEENABLE, FALSE);

  0004e	6a 00		 push	 0
  00050	6a 0e		 push	 14			; 0000000eH
  00052	8b 0d 00 00 00
	00		 mov	 ecx, DWORD PTR ?ms_singleton@?$CSingleton@VCStateManager@@@@0PAVCStateManager@@A ; CSingleton<CStateManager>::ms_singleton
  00058	e8 00 00 00 00	 call	 ?SaveRenderState@CStateManager@@QAEXW4_D3DRENDERSTATETYPE@@K@Z ; CStateManager::SaveRenderState

; 878  : 	STATEMANAGER.SaveRenderState(D3DRS_LIGHTING, FALSE);	

  0005d	6a 00		 push	 0
  0005f	68 89 00 00 00	 push	 137			; 00000089H
  00064	8b 0d 00 00 00
	00		 mov	 ecx, DWORD PTR ?ms_singleton@?$CSingleton@VCStateManager@@@@0PAVCStateManager@@A ; CSingleton<CStateManager>::ms_singleton
  0006a	e8 00 00 00 00	 call	 ?SaveRenderState@CStateManager@@QAEXW4_D3DRENDERSTATETYPE@@K@Z ; CStateManager::SaveRenderState

; 879  : 	STATEMANAGER.SaveRenderState(D3DRS_FOGENABLE, FALSE);

  0006f	6a 00		 push	 0
  00071	6a 1c		 push	 28			; 0000001cH
  00073	8b 0d 00 00 00
	00		 mov	 ecx, DWORD PTR ?ms_singleton@?$CSingleton@VCStateManager@@@@0PAVCStateManager@@A ; CSingleton<CStateManager>::ms_singleton
  00079	e8 00 00 00 00	 call	 ?SaveRenderState@CStateManager@@QAEXW4_D3DRENDERSTATETYPE@@K@Z ; CStateManager::SaveRenderState

; 880  : 	STATEMANAGER.SaveRenderState(D3DRS_ALPHABLENDENABLE, TRUE);

  0007e	6a 01		 push	 1
  00080	6a 1b		 push	 27			; 0000001bH
  00082	8b 0d 00 00 00
	00		 mov	 ecx, DWORD PTR ?ms_singleton@?$CSingleton@VCStateManager@@@@0PAVCStateManager@@A ; CSingleton<CStateManager>::ms_singleton
  00088	e8 00 00 00 00	 call	 ?SaveRenderState@CStateManager@@QAEXW4_D3DRENDERSTATETYPE@@K@Z ; CStateManager::SaveRenderState

; 881  : 	STATEMANAGER.SaveRenderState(D3DRS_SRCBLEND, D3DBLEND_ONE);

  0008d	6a 02		 push	 2
  0008f	6a 13		 push	 19			; 00000013H
  00091	8b 0d 00 00 00
	00		 mov	 ecx, DWORD PTR ?ms_singleton@?$CSingleton@VCStateManager@@@@0PAVCStateManager@@A ; CSingleton<CStateManager>::ms_singleton
  00097	e8 00 00 00 00	 call	 ?SaveRenderState@CStateManager@@QAEXW4_D3DRENDERSTATETYPE@@K@Z ; CStateManager::SaveRenderState

; 882  : 	STATEMANAGER.SaveRenderState(D3DRS_DESTBLEND, D3DBLEND_INVSRCCOLOR);

  0009c	6a 04		 push	 4
  0009e	6a 14		 push	 20			; 00000014H
  000a0	8b 0d 00 00 00
	00		 mov	 ecx, DWORD PTR ?ms_singleton@?$CSingleton@VCStateManager@@@@0PAVCStateManager@@A ; CSingleton<CStateManager>::ms_singleton
  000a6	e8 00 00 00 00	 call	 ?SaveRenderState@CStateManager@@QAEXW4_D3DRENDERSTATETYPE@@K@Z ; CStateManager::SaveRenderState

; 883  : 
; 884  : 	STATEMANAGER.SaveTextureStageState(0, D3DTSS_TEXTURETRANSFORMFLAGS, D3DTTFF_COUNT2);

  000ab	6a 02		 push	 2
  000ad	6a 18		 push	 24			; 00000018H
  000af	6a 00		 push	 0
  000b1	8b 0d 00 00 00
	00		 mov	 ecx, DWORD PTR ?ms_singleton@?$CSingleton@VCStateManager@@@@0PAVCStateManager@@A ; CSingleton<CStateManager>::ms_singleton
  000b7	e8 00 00 00 00	 call	 ?SaveTextureStageState@CStateManager@@QAEXKW4_D3DTEXTURESTAGESTATETYPE@@K@Z ; CStateManager::SaveTextureStageState

; 885  : 
; 886  : 	m_matTextureCloud._31 = m_fCloudPositionU;

  000bc	8b 45 b8	 mov	 eax, DWORD PTR _this$[ebp]
  000bf	8b 4d b8	 mov	 ecx, DWORD PTR _this$[ebp]
  000c2	8b 89 28 01 00
	00		 mov	 ecx, DWORD PTR [ecx+296]
  000c8	89 88 e0 00 00
	00		 mov	 DWORD PTR [eax+224], ecx

; 887  : 	m_matTextureCloud._32 = m_fCloudPositionV;

  000ce	8b 45 b8	 mov	 eax, DWORD PTR _this$[ebp]
  000d1	8b 4d b8	 mov	 ecx, DWORD PTR _this$[ebp]
  000d4	8b 89 2c 01 00
	00		 mov	 ecx, DWORD PTR [ecx+300]
  000da	89 88 e4 00 00
	00		 mov	 DWORD PTR [eax+228], ecx
; File D:\Metin2 Server Files\mainline\SRC_2014\Metin2Client\eterBase\Singleton.h

; 27   : 		return (*ms_singleton);

  000e0	a1 00 00 00 00	 mov	 eax, DWORD PTR ?ms_singleton@?$CSingleton@VCTimer@@@@0PAVCTimer@@A ; CSingleton<CTimer>::ms_singleton
  000e5	89 45 a4	 mov	 DWORD PTR $T3[ebp], eax
; File D:\Metin2 Server Files\mainline\SRC_2014\Metin2Client\EterLib\SkyBox.cpp

; 889  : 	DWORD dwCurTime = CTimer::Instance().GetCurrentMillisecond();

  000e8	8b 4d a4	 mov	 ecx, DWORD PTR $T3[ebp]
  000eb	e8 00 00 00 00	 call	 ?GetCurrentMillisecond@CTimer@@QAEKXZ ; CTimer::GetCurrentMillisecond
  000f0	89 45 b4	 mov	 DWORD PTR _dwCurTime$[ebp], eax

; 890  : 	
; 891  : 	m_fCloudPositionU += m_fCloudScrollSpeedU * (float)( dwCurTime - m_dwlastTime ) * 0.001f;

  000f3	8b 45 b8	 mov	 eax, DWORD PTR _this$[ebp]
  000f6	8b 4d b4	 mov	 ecx, DWORD PTR _dwCurTime$[ebp]
  000f9	2b 88 30 01 00
	00		 sub	 ecx, DWORD PTR [eax+304]
  000ff	89 4d b0	 mov	 DWORD PTR tv384[ebp], ecx
  00102	f2 0f 2a 45 b0	 cvtsi2sd xmm0, DWORD PTR tv384[ebp]
  00107	8b 45 b0	 mov	 eax, DWORD PTR tv384[ebp]
  0010a	c1 e8 1f	 shr	 eax, 31			; 0000001fH
  0010d	f2 0f 58 04 c5
	00 00 00 00	 addsd	 xmm0, QWORD PTR __xmm@41f00000000000000000000000000000[eax*8]
  00116	f2 0f 11 45 98	 movsd	 QWORD PTR tv387[ebp], xmm0
  0011b	f2 0f 5a 45 98	 cvtsd2ss xmm0, QWORD PTR tv387[ebp]
  00120	8b 45 b8	 mov	 eax, DWORD PTR _this$[ebp]
  00123	f3 0f 59 80 20
	01 00 00	 mulss	 xmm0, DWORD PTR [eax+288]
  0012b	f3 0f 59 05 00
	00 00 00	 mulss	 xmm0, DWORD PTR __real@3a83126f
  00133	8b 45 b8	 mov	 eax, DWORD PTR _this$[ebp]
  00136	f3 0f 58 80 28
	01 00 00	 addss	 xmm0, DWORD PTR [eax+296]
  0013e	8b 45 b8	 mov	 eax, DWORD PTR _this$[ebp]
  00141	f3 0f 11 80 28
	01 00 00	 movss	 DWORD PTR [eax+296], xmm0

; 892  : 	if (m_fCloudPositionU >= 1.0f)

  00149	8b 45 b8	 mov	 eax, DWORD PTR _this$[ebp]
  0014c	f3 0f 10 80 28
	01 00 00	 movss	 xmm0, DWORD PTR [eax+296]
  00154	0f 2f 05 00 00
	00 00		 comiss	 xmm0, DWORD PTR __real@3f800000
  0015b	72 0e		 jb	 SHORT $LN3@RenderClou

; 893  : 		m_fCloudPositionU = 0.0f;

  0015d	8b 45 b8	 mov	 eax, DWORD PTR _this$[ebp]
  00160	0f 57 c0	 xorps	 xmm0, xmm0
  00163	f3 0f 11 80 28
	01 00 00	 movss	 DWORD PTR [eax+296], xmm0
$LN3@RenderClou:

; 894  : 	
; 895  : 	m_fCloudPositionV += m_fCloudScrollSpeedV * (float)( dwCurTime - m_dwlastTime ) * 0.001f;

  0016b	8b 45 b8	 mov	 eax, DWORD PTR _this$[ebp]
  0016e	8b 4d b4	 mov	 ecx, DWORD PTR _dwCurTime$[ebp]
  00171	2b 88 30 01 00
	00		 sub	 ecx, DWORD PTR [eax+304]
  00177	89 4d ac	 mov	 DWORD PTR tv403[ebp], ecx
  0017a	f2 0f 2a 45 ac	 cvtsi2sd xmm0, DWORD PTR tv403[ebp]
  0017f	8b 45 ac	 mov	 eax, DWORD PTR tv403[ebp]
  00182	c1 e8 1f	 shr	 eax, 31			; 0000001fH
  00185	f2 0f 58 04 c5
	00 00 00 00	 addsd	 xmm0, QWORD PTR __xmm@41f00000000000000000000000000000[eax*8]
  0018e	f2 0f 11 45 90	 movsd	 QWORD PTR tv406[ebp], xmm0
  00193	f2 0f 5a 45 90	 cvtsd2ss xmm0, QWORD PTR tv406[ebp]
  00198	8b 45 b8	 mov	 eax, DWORD PTR _this$[ebp]
  0019b	f3 0f 59 80 24
	01 00 00	 mulss	 xmm0, DWORD PTR [eax+292]
  001a3	f3 0f 59 05 00
	00 00 00	 mulss	 xmm0, DWORD PTR __real@3a83126f
  001ab	8b 45 b8	 mov	 eax, DWORD PTR _this$[ebp]
  001ae	f3 0f 58 80 2c
	01 00 00	 addss	 xmm0, DWORD PTR [eax+300]
  001b6	8b 45 b8	 mov	 eax, DWORD PTR _this$[ebp]
  001b9	f3 0f 11 80 2c
	01 00 00	 movss	 DWORD PTR [eax+300], xmm0

; 896  : 	if (m_fCloudPositionV >= 1.0f)

  001c1	8b 45 b8	 mov	 eax, DWORD PTR _this$[ebp]
  001c4	f3 0f 10 80 2c
	01 00 00	 movss	 xmm0, DWORD PTR [eax+300]
  001cc	0f 2f 05 00 00
	00 00		 comiss	 xmm0, DWORD PTR __real@3f800000
  001d3	72 0e		 jb	 SHORT $LN4@RenderClou

; 897  : 		m_fCloudPositionV = 0.0f;

  001d5	8b 45 b8	 mov	 eax, DWORD PTR _this$[ebp]
  001d8	0f 57 c0	 xorps	 xmm0, xmm0
  001db	f3 0f 11 80 2c
	01 00 00	 movss	 DWORD PTR [eax+300], xmm0
$LN4@RenderClou:

; 898  : 	
; 899  : 	m_dwlastTime = dwCurTime;

  001e3	8b 45 b8	 mov	 eax, DWORD PTR _this$[ebp]
  001e6	8b 4d b4	 mov	 ecx, DWORD PTR _dwCurTime$[ebp]
  001e9	89 88 30 01 00
	00		 mov	 DWORD PTR [eax+304], ecx

; 900  : 	
; 901  : 	STATEMANAGER.SaveTransform(D3DTS_TEXTURE0, &m_matTextureCloud);

  001ef	8b 45 b8	 mov	 eax, DWORD PTR _this$[ebp]
  001f2	05 c0 00 00 00	 add	 eax, 192		; 000000c0H
  001f7	50		 push	 eax
  001f8	6a 10		 push	 16			; 00000010H
  001fa	8b 0d 00 00 00
	00		 mov	 ecx, DWORD PTR ?ms_singleton@?$CSingleton@VCStateManager@@@@0PAVCStateManager@@A ; CSingleton<CStateManager>::ms_singleton
  00200	e8 00 00 00 00	 call	 ?SaveTransform@CStateManager@@QAEXW4_D3DTRANSFORMSTATETYPE@@PBU_D3DMATRIX@@@Z ; CStateManager::SaveTransform

; 902  : 
; 903  : 	STATEMANAGER.SetTextureStageState(0, D3DTSS_COLOROP, D3DTOP_MODULATEINVALPHA_ADDCOLOR);

  00205	6a 14		 push	 20			; 00000014H
  00207	6a 01		 push	 1
  00209	6a 00		 push	 0
  0020b	8b 0d 00 00 00
	00		 mov	 ecx, DWORD PTR ?ms_singleton@?$CSingleton@VCStateManager@@@@0PAVCStateManager@@A ; CSingleton<CStateManager>::ms_singleton
  00211	e8 00 00 00 00	 call	 ?SetTextureStageState@CStateManager@@QAEXKW4_D3DTEXTURESTAGESTATETYPE@@K@Z ; CStateManager::SetTextureStageState

; 904  : 	STATEMANAGER.SetTextureStageState(0, D3DTSS_COLORARG1, D3DTA_TEXTURE);

  00216	6a 02		 push	 2
  00218	6a 02		 push	 2
  0021a	6a 00		 push	 0
  0021c	8b 0d 00 00 00
	00		 mov	 ecx, DWORD PTR ?ms_singleton@?$CSingleton@VCStateManager@@@@0PAVCStateManager@@A ; CSingleton<CStateManager>::ms_singleton
  00222	e8 00 00 00 00	 call	 ?SetTextureStageState@CStateManager@@QAEXKW4_D3DTEXTURESTAGESTATETYPE@@K@Z ; CStateManager::SetTextureStageState

; 905  :  	STATEMANAGER.SetTextureStageState(0, D3DTSS_COLORARG2, D3DTA_DIFFUSE);

  00227	6a 00		 push	 0
  00229	6a 03		 push	 3
  0022b	6a 00		 push	 0
  0022d	8b 0d 00 00 00
	00		 mov	 ecx, DWORD PTR ?ms_singleton@?$CSingleton@VCStateManager@@@@0PAVCStateManager@@A ; CSingleton<CStateManager>::ms_singleton
  00233	e8 00 00 00 00	 call	 ?SetTextureStageState@CStateManager@@QAEXKW4_D3DTEXTURESTAGESTATETYPE@@K@Z ; CStateManager::SetTextureStageState

; 906  : 	STATEMANAGER.SetTextureStageState(0, D3DTSS_ALPHAOP, D3DTOP_SELECTARG1);

  00238	6a 02		 push	 2
  0023a	6a 04		 push	 4
  0023c	6a 00		 push	 0
  0023e	8b 0d 00 00 00
	00		 mov	 ecx, DWORD PTR ?ms_singleton@?$CSingleton@VCStateManager@@@@0PAVCStateManager@@A ; CSingleton<CStateManager>::ms_singleton
  00244	e8 00 00 00 00	 call	 ?SetTextureStageState@CStateManager@@QAEXKW4_D3DTEXTURESTAGESTATETYPE@@K@Z ; CStateManager::SetTextureStageState

; 907  : 	STATEMANAGER.SetTextureStageState(0, D3DTSS_ALPHAARG1, D3DTA_TEXTURE);

  00249	6a 02		 push	 2
  0024b	6a 05		 push	 5
  0024d	6a 00		 push	 0
  0024f	8b 0d 00 00 00
	00		 mov	 ecx, DWORD PTR ?ms_singleton@?$CSingleton@VCStateManager@@@@0PAVCStateManager@@A ; CSingleton<CStateManager>::ms_singleton
  00255	e8 00 00 00 00	 call	 ?SetTextureStageState@CStateManager@@QAEXKW4_D3DTEXTURESTAGESTATETYPE@@K@Z ; CStateManager::SetTextureStageState

; 908  : 	
; 909  : 	D3DXMATRIX matProjCloud;
; 910  : 	D3DXMatrixPerspectiveFovRH(&matProjCloud, D3DX_PI * 0.25f, 1.33333f, 50.0f, 999999.0f);

  0025a	51		 push	 ecx
  0025b	f3 0f 10 05 00
	00 00 00	 movss	 xmm0, DWORD PTR __real@497423f0
  00263	f3 0f 11 04 24	 movss	 DWORD PTR [esp], xmm0
  00268	51		 push	 ecx
  00269	f3 0f 10 05 00
	00 00 00	 movss	 xmm0, DWORD PTR __real@42480000
  00271	f3 0f 11 04 24	 movss	 DWORD PTR [esp], xmm0
  00276	51		 push	 ecx
  00277	f3 0f 10 05 00
	00 00 00	 movss	 xmm0, DWORD PTR __real@3faaaa8f
  0027f	f3 0f 11 04 24	 movss	 DWORD PTR [esp], xmm0
  00284	51		 push	 ecx
  00285	f3 0f 10 05 00
	00 00 00	 movss	 xmm0, DWORD PTR __real@3f490fdb
  0028d	f3 0f 11 04 24	 movss	 DWORD PTR [esp], xmm0
  00292	8d 45 bc	 lea	 eax, DWORD PTR _matProjCloud$[ebp]
  00295	50		 push	 eax
  00296	e8 00 00 00 00	 call	 _D3DXMatrixPerspectiveFovRH@20

; 911  : 	STATEMANAGER.SetTransform(D3DTS_WORLD, &m_matWorldCloud);

  0029b	8b 45 b8	 mov	 eax, DWORD PTR _this$[ebp]
  0029e	83 c0 40	 add	 eax, 64			; 00000040H
  002a1	50		 push	 eax
  002a2	68 00 01 00 00	 push	 256			; 00000100H
  002a7	8b 0d 00 00 00
	00		 mov	 ecx, DWORD PTR ?ms_singleton@?$CSingleton@VCStateManager@@@@0PAVCStateManager@@A ; CSingleton<CStateManager>::ms_singleton
  002ad	e8 00 00 00 00	 call	 ?SetTransform@CStateManager@@QAEXW4_D3DTRANSFORMSTATETYPE@@PBU_D3DMATRIX@@@Z ; CStateManager::SetTransform

; 912  : 	STATEMANAGER.SaveTransform(D3DTS_PROJECTION, &matProjCloud);

  002b2	8d 45 bc	 lea	 eax, DWORD PTR _matProjCloud$[ebp]
  002b5	50		 push	 eax
  002b6	6a 03		 push	 3
  002b8	8b 0d 00 00 00
	00		 mov	 ecx, DWORD PTR ?ms_singleton@?$CSingleton@VCStateManager@@@@0PAVCStateManager@@A ; CSingleton<CStateManager>::ms_singleton
  002be	e8 00 00 00 00	 call	 ?SaveTransform@CStateManager@@QAEXW4_D3DTRANSFORMSTATETYPE@@PBU_D3DMATRIX@@@Z ; CStateManager::SaveTransform
; File D:\Metin2 Server Files\mainline\SRC_2014\Metin2Client\eterBase\Singleton.h

; 27   : 		return (*ms_singleton);

  002c3	a1 00 00 00 00	 mov	 eax, DWORD PTR ?ms_singleton@?$CSingleton@VCStateManager@@@@0PAVCStateManager@@A ; CSingleton<CStateManager>::ms_singleton
  002c8	89 45 a0	 mov	 DWORD PTR $T2[ebp], eax
; File D:\Metin2 Server Files\mainline\SRC_2014\Metin2Client\EterLib\SkyBox.cpp

; 913  : 	STATEMANAGER.SetTexture(0, pCloudGraphicImageInstance->GetTexturePointer()->GetD3DTexture());

  002cb	8b 4d a8	 mov	 ecx, DWORD PTR _pCloudGraphicImageInstance$[ebp]
  002ce	e8 00 00 00 00	 call	 ?GetTexturePointer@CGraphicImageInstance@@QAEPAVCGraphicTexture@@XZ ; CGraphicImageInstance::GetTexturePointer
  002d3	8b c8		 mov	 ecx, eax
  002d5	e8 00 00 00 00	 call	 ?GetD3DTexture@CGraphicTexture@@QBEPAUIDirect3DTexture8@@XZ ; CGraphicTexture::GetD3DTexture
  002da	50		 push	 eax
  002db	6a 00		 push	 0
  002dd	8b 4d a0	 mov	 ecx, DWORD PTR $T2[ebp]
  002e0	e8 00 00 00 00	 call	 ?SetTexture@CStateManager@@QAEXKPAUIDirect3DBaseTexture8@@@Z ; CStateManager::SetTexture

; 914  : 	m_FaceCloud.Render();

  002e5	8b 4d b8	 mov	 ecx, DWORD PTR _this$[ebp]
  002e8	83 c1 04	 add	 ecx, 4
  002eb	e8 00 00 00 00	 call	 ?Render@TSkyObjectFace@CSkyObject@@QAEXXZ ; CSkyObject::TSkyObjectFace::Render

; 915  : 	STATEMANAGER.RestoreTransform(D3DTS_PROJECTION);

  002f0	6a 03		 push	 3
  002f2	8b 0d 00 00 00
	00		 mov	 ecx, DWORD PTR ?ms_singleton@?$CSingleton@VCStateManager@@@@0PAVCStateManager@@A ; CSingleton<CStateManager>::ms_singleton
  002f8	e8 00 00 00 00	 call	 ?RestoreTransform@CStateManager@@QAEXW4_D3DTRANSFORMSTATETYPE@@@Z ; CStateManager::RestoreTransform

; 916  : 	
; 917  : 	STATEMANAGER.RestoreTransform(D3DTS_TEXTURE0);

  002fd	6a 10		 push	 16			; 00000010H
  002ff	8b 0d 00 00 00
	00		 mov	 ecx, DWORD PTR ?ms_singleton@?$CSingleton@VCStateManager@@@@0PAVCStateManager@@A ; CSingleton<CStateManager>::ms_singleton
  00305	e8 00 00 00 00	 call	 ?RestoreTransform@CStateManager@@QAEXW4_D3DTRANSFORMSTATETYPE@@@Z ; CStateManager::RestoreTransform

; 918  : 	STATEMANAGER.RestoreTextureStageState(0, D3DTSS_TEXTURETRANSFORMFLAGS);

  0030a	6a 18		 push	 24			; 00000018H
  0030c	6a 00		 push	 0
  0030e	8b 0d 00 00 00
	00		 mov	 ecx, DWORD PTR ?ms_singleton@?$CSingleton@VCStateManager@@@@0PAVCStateManager@@A ; CSingleton<CStateManager>::ms_singleton
  00314	e8 00 00 00 00	 call	 ?RestoreTextureStageState@CStateManager@@QAEXKW4_D3DTEXTURESTAGESTATETYPE@@@Z ; CStateManager::RestoreTextureStageState

; 919  : 
; 920  : 	STATEMANAGER.RestoreRenderState(D3DRS_LIGHTING);

  00319	68 89 00 00 00	 push	 137			; 00000089H
  0031e	8b 0d 00 00 00
	00		 mov	 ecx, DWORD PTR ?ms_singleton@?$CSingleton@VCStateManager@@@@0PAVCStateManager@@A ; CSingleton<CStateManager>::ms_singleton
  00324	e8 00 00 00 00	 call	 ?RestoreRenderState@CStateManager@@QAEXW4_D3DRENDERSTATETYPE@@@Z ; CStateManager::RestoreRenderState

; 921  : 	STATEMANAGER.RestoreRenderState(D3DRS_ZENABLE);

  00329	6a 07		 push	 7
  0032b	8b 0d 00 00 00
	00		 mov	 ecx, DWORD PTR ?ms_singleton@?$CSingleton@VCStateManager@@@@0PAVCStateManager@@A ; CSingleton<CStateManager>::ms_singleton
  00331	e8 00 00 00 00	 call	 ?RestoreRenderState@CStateManager@@QAEXW4_D3DRENDERSTATETYPE@@@Z ; CStateManager::RestoreRenderState

; 922  : 	STATEMANAGER.RestoreRenderState(D3DRS_ZWRITEENABLE);

  00336	6a 0e		 push	 14			; 0000000eH
  00338	8b 0d 00 00 00
	00		 mov	 ecx, DWORD PTR ?ms_singleton@?$CSingleton@VCStateManager@@@@0PAVCStateManager@@A ; CSingleton<CStateManager>::ms_singleton
  0033e	e8 00 00 00 00	 call	 ?RestoreRenderState@CStateManager@@QAEXW4_D3DRENDERSTATETYPE@@@Z ; CStateManager::RestoreRenderState

; 923  : 	STATEMANAGER.RestoreRenderState(D3DRS_FOGENABLE);

  00343	6a 1c		 push	 28			; 0000001cH
  00345	8b 0d 00 00 00
	00		 mov	 ecx, DWORD PTR ?ms_singleton@?$CSingleton@VCStateManager@@@@0PAVCStateManager@@A ; CSingleton<CStateManager>::ms_singleton
  0034b	e8 00 00 00 00	 call	 ?RestoreRenderState@CStateManager@@QAEXW4_D3DRENDERSTATETYPE@@@Z ; CStateManager::RestoreRenderState

; 924  : 	STATEMANAGER.RestoreRenderState(D3DRS_ALPHABLENDENABLE);

  00350	6a 1b		 push	 27			; 0000001bH
  00352	8b 0d 00 00 00
	00		 mov	 ecx, DWORD PTR ?ms_singleton@?$CSingleton@VCStateManager@@@@0PAVCStateManager@@A ; CSingleton<CStateManager>::ms_singleton
  00358	e8 00 00 00 00	 call	 ?RestoreRenderState@CStateManager@@QAEXW4_D3DRENDERSTATETYPE@@@Z ; CStateManager::RestoreRenderState

; 925  : 	STATEMANAGER.RestoreRenderState(D3DRS_SRCBLEND);

  0035d	6a 13		 push	 19			; 00000013H
  0035f	8b 0d 00 00 00
	00		 mov	 ecx, DWORD PTR ?ms_singleton@?$CSingleton@VCStateManager@@@@0PAVCStateManager@@A ; CSingleton<CStateManager>::ms_singleton
  00365	e8 00 00 00 00	 call	 ?RestoreRenderState@CStateManager@@QAEXW4_D3DRENDERSTATETYPE@@@Z ; CStateManager::RestoreRenderState

; 926  : 	STATEMANAGER.RestoreRenderState(D3DRS_DESTBLEND);

  0036a	6a 14		 push	 20			; 00000014H
  0036c	8b 0d 00 00 00
	00		 mov	 ecx, DWORD PTR ?ms_singleton@?$CSingleton@VCStateManager@@@@0PAVCStateManager@@A ; CSingleton<CStateManager>::ms_singleton
  00372	e8 00 00 00 00	 call	 ?RestoreRenderState@CStateManager@@QAEXW4_D3DRENDERSTATETYPE@@@Z ; CStateManager::RestoreRenderState
$LN1@RenderClou:

; 927  : }

  00377	8b 4d fc	 mov	 ecx, DWORD PTR __$ArrayPad$[ebp]
  0037a	33 cd		 xor	 ecx, ebp
  0037c	e8 00 00 00 00	 call	 @__security_check_cookie@4
  00381	c9		 leave
  00382	c3		 ret	 0
?RenderCloud@CSkyBox@@QAEXXZ ENDP			; CSkyBox::RenderCloud
_TEXT	ENDS
; Function compile flags: /Odspy
; File D:\Metin2 Server Files\mainline\SRC_2014\Metin2Client\EterLib\SkyBox.cpp
; File C:\Program Files (x86)\Microsoft Visual Studio\2019\Community\VC\Tools\MSVC\14.28.29333\include\map
; File D:\Metin2 Server Files\mainline\SRC_2014\Metin2Client\EterLib\SkyBox.cpp
; File C:\Program Files (x86)\Microsoft Visual Studio\2019\Community\VC\Tools\MSVC\14.28.29333\include\map
; File D:\Metin2 Server Files\mainline\SRC_2014\Metin2Client\EterLib\SkyBox.cpp
; File D:\Metin2 Server Files\mainline\SRC_2014\Metin2Client\eterBase\Singleton.h
; File D:\Metin2 Server Files\mainline\SRC_2014\Metin2Client\EterLib\SkyBox.cpp
;	COMDAT ?Render@CSkyBox@@UAEXXZ
_TEXT	SEGMENT
$T1 = -28						; size = 8
$T2 = -20						; size = 4
_pFaceImageInstance$3 = -16				; size = 4
_i$4 = -12						; size = 4
_i$5 = -8						; size = 4
_this$ = -4						; size = 4
?Render@CSkyBox@@UAEXXZ PROC				; CSkyBox::Render, COMDAT
; _this$ = ecx

; 805  : {

  00000	55		 push	 ebp
  00001	8b ec		 mov	 ebp, esp
  00003	83 ec 1c	 sub	 esp, 28			; 0000001cH
  00006	89 4d fc	 mov	 DWORD PTR _this$[ebp], ecx

; 806  : 	// 2004.01.25 myevan    , DepthTest 
; 807  : 	STATEMANAGER.SaveRenderState(D3DRS_ZENABLE,	TRUE);

  00009	6a 01		 push	 1
  0000b	6a 07		 push	 7
  0000d	8b 0d 00 00 00
	00		 mov	 ecx, DWORD PTR ?ms_singleton@?$CSingleton@VCStateManager@@@@0PAVCStateManager@@A ; CSingleton<CStateManager>::ms_singleton
  00013	e8 00 00 00 00	 call	 ?SaveRenderState@CStateManager@@QAEXW4_D3DRENDERSTATETYPE@@K@Z ; CStateManager::SaveRenderState

; 808  : 	STATEMANAGER.SaveRenderState(D3DRS_ZWRITEENABLE, FALSE);

  00018	6a 00		 push	 0
  0001a	6a 0e		 push	 14			; 0000000eH
  0001c	8b 0d 00 00 00
	00		 mov	 ecx, DWORD PTR ?ms_singleton@?$CSingleton@VCStateManager@@@@0PAVCStateManager@@A ; CSingleton<CStateManager>::ms_singleton
  00022	e8 00 00 00 00	 call	 ?SaveRenderState@CStateManager@@QAEXW4_D3DRENDERSTATETYPE@@K@Z ; CStateManager::SaveRenderState

; 809  : 	STATEMANAGER.SaveRenderState(D3DRS_LIGHTING, FALSE);

  00027	6a 00		 push	 0
  00029	68 89 00 00 00	 push	 137			; 00000089H
  0002e	8b 0d 00 00 00
	00		 mov	 ecx, DWORD PTR ?ms_singleton@?$CSingleton@VCStateManager@@@@0PAVCStateManager@@A ; CSingleton<CStateManager>::ms_singleton
  00034	e8 00 00 00 00	 call	 ?SaveRenderState@CStateManager@@QAEXW4_D3DRENDERSTATETYPE@@K@Z ; CStateManager::SaveRenderState

; 810  : 	STATEMANAGER.SaveRenderState(D3DRS_FOGENABLE, FALSE);

  00039	6a 00		 push	 0
  0003b	6a 1c		 push	 28			; 0000001cH
  0003d	8b 0d 00 00 00
	00		 mov	 ecx, DWORD PTR ?ms_singleton@?$CSingleton@VCStateManager@@@@0PAVCStateManager@@A ; CSingleton<CStateManager>::ms_singleton
  00043	e8 00 00 00 00	 call	 ?SaveRenderState@CStateManager@@QAEXW4_D3DRENDERSTATETYPE@@K@Z ; CStateManager::SaveRenderState

; 811  : 	STATEMANAGER.SaveRenderState(D3DRS_ALPHABLENDENABLE, FALSE);

  00048	6a 00		 push	 0
  0004a	6a 1b		 push	 27			; 0000001bH
  0004c	8b 0d 00 00 00
	00		 mov	 ecx, DWORD PTR ?ms_singleton@?$CSingleton@VCStateManager@@@@0PAVCStateManager@@A ; CSingleton<CStateManager>::ms_singleton
  00052	e8 00 00 00 00	 call	 ?SaveRenderState@CStateManager@@QAEXW4_D3DRENDERSTATETYPE@@K@Z ; CStateManager::SaveRenderState

; 812  : 
; 813  : 	STATEMANAGER.SaveTextureStageState(0, D3DTSS_COLOROP, D3DTOP_SELECTARG2);

  00057	6a 03		 push	 3
  00059	6a 01		 push	 1
  0005b	6a 00		 push	 0
  0005d	8b 0d 00 00 00
	00		 mov	 ecx, DWORD PTR ?ms_singleton@?$CSingleton@VCStateManager@@@@0PAVCStateManager@@A ; CSingleton<CStateManager>::ms_singleton
  00063	e8 00 00 00 00	 call	 ?SaveTextureStageState@CStateManager@@QAEXKW4_D3DTEXTURESTAGESTATETYPE@@K@Z ; CStateManager::SaveTextureStageState

; 814  : 	STATEMANAGER.SaveTextureStageState(0, D3DTSS_COLORARG1, D3DTA_TEXTURE);

  00068	6a 02		 push	 2
  0006a	6a 02		 push	 2
  0006c	6a 00		 push	 0
  0006e	8b 0d 00 00 00
	00		 mov	 ecx, DWORD PTR ?ms_singleton@?$CSingleton@VCStateManager@@@@0PAVCStateManager@@A ; CSingleton<CStateManager>::ms_singleton
  00074	e8 00 00 00 00	 call	 ?SaveTextureStageState@CStateManager@@QAEXKW4_D3DTEXTURESTAGESTATETYPE@@K@Z ; CStateManager::SaveTextureStageState

; 815  : 	STATEMANAGER.SaveTextureStageState(0, D3DTSS_COLORARG2, D3DTA_DIFFUSE);

  00079	6a 00		 push	 0
  0007b	6a 03		 push	 3
  0007d	6a 00		 push	 0
  0007f	8b 0d 00 00 00
	00		 mov	 ecx, DWORD PTR ?ms_singleton@?$CSingleton@VCStateManager@@@@0PAVCStateManager@@A ; CSingleton<CStateManager>::ms_singleton
  00085	e8 00 00 00 00	 call	 ?SaveTextureStageState@CStateManager@@QAEXKW4_D3DTEXTURESTAGESTATETYPE@@K@Z ; CStateManager::SaveTextureStageState

; 816  : 
; 817  : 	STATEMANAGER.SetTextureStageState(0, D3DTSS_ALPHAOP, D3DTOP_DISABLE);

  0008a	6a 01		 push	 1
  0008c	6a 04		 push	 4
  0008e	6a 00		 push	 0
  00090	8b 0d 00 00 00
	00		 mov	 ecx, DWORD PTR ?ms_singleton@?$CSingleton@VCStateManager@@@@0PAVCStateManager@@A ; CSingleton<CStateManager>::ms_singleton
  00096	e8 00 00 00 00	 call	 ?SetTextureStageState@CStateManager@@QAEXKW4_D3DTEXTURESTAGESTATETYPE@@K@Z ; CStateManager::SetTextureStageState

; 818  : 
; 819  : 	STATEMANAGER.SetTexture(1, NULL);

  0009b	6a 00		 push	 0
  0009d	6a 01		 push	 1
  0009f	8b 0d 00 00 00
	00		 mov	 ecx, DWORD PTR ?ms_singleton@?$CSingleton@VCStateManager@@@@0PAVCStateManager@@A ; CSingleton<CStateManager>::ms_singleton
  000a5	e8 00 00 00 00	 call	 ?SetTexture@CStateManager@@QAEXKPAUIDirect3DBaseTexture8@@@Z ; CStateManager::SetTexture

; 820  : 	STATEMANAGER.SetTextureStageState(1, D3DTSS_COLOROP, D3DTOP_DISABLE);

  000aa	6a 01		 push	 1
  000ac	6a 01		 push	 1
  000ae	6a 01		 push	 1
  000b0	8b 0d 00 00 00
	00		 mov	 ecx, DWORD PTR ?ms_singleton@?$CSingleton@VCStateManager@@@@0PAVCStateManager@@A ; CSingleton<CStateManager>::ms_singleton
  000b6	e8 00 00 00 00	 call	 ?SetTextureStageState@CStateManager@@QAEXKW4_D3DTEXTURESTAGESTATETYPE@@K@Z ; CStateManager::SetTextureStageState

; 821  : 	STATEMANAGER.SetTextureStageState(1, D3DTSS_ALPHAOP, D3DTOP_DISABLE);

  000bb	6a 01		 push	 1
  000bd	6a 04		 push	 4
  000bf	6a 01		 push	 1
  000c1	8b 0d 00 00 00
	00		 mov	 ecx, DWORD PTR ?ms_singleton@?$CSingleton@VCStateManager@@@@0PAVCStateManager@@A ; CSingleton<CStateManager>::ms_singleton
  000c7	e8 00 00 00 00	 call	 ?SetTextureStageState@CStateManager@@QAEXKW4_D3DTEXTURESTAGESTATETYPE@@K@Z ; CStateManager::SetTextureStageState

; 822  : 
; 823  :  	STATEMANAGER.SetVertexShader(D3DFVF_XYZ|D3DFVF_DIFFUSE|D3DFVF_TEX1);

  000cc	68 42 01 00 00	 push	 322			; 00000142H
  000d1	8b 0d 00 00 00
	00		 mov	 ecx, DWORD PTR ?ms_singleton@?$CSingleton@VCStateManager@@@@0PAVCStateManager@@A ; CSingleton<CStateManager>::ms_singleton
  000d7	e8 00 00 00 00	 call	 ?SetVertexShader@CStateManager@@QAEXK@Z ; CStateManager::SetVertexShader

; 824  : 
; 825  : 	STATEMANAGER.SetTransform(D3DTS_WORLD, &m_matWorld);

  000dc	8b 45 fc	 mov	 eax, DWORD PTR _this$[ebp]
  000df	05 3c 01 00 00	 add	 eax, 316		; 0000013cH
  000e4	50		 push	 eax
  000e5	68 00 01 00 00	 push	 256			; 00000100H
  000ea	8b 0d 00 00 00
	00		 mov	 ecx, DWORD PTR ?ms_singleton@?$CSingleton@VCStateManager@@@@0PAVCStateManager@@A ; CSingleton<CStateManager>::ms_singleton
  000f0	e8 00 00 00 00	 call	 ?SetTransform@CStateManager@@QAEXW4_D3DTRANSFORMSTATETYPE@@PBU_D3DMATRIX@@@Z ; CStateManager::SetTransform

; 826  : 
; 827  : 	//Render Face
; 828  : 	if( m_ucRenderMode == CSkyObject::SKY_RENDER_MODE_TEXTURE )

  000f5	8b 45 fc	 mov	 eax, DWORD PTR _this$[ebp]
  000f8	0f b6 80 d4 01
	00 00		 movzx	 eax, BYTE PTR [eax+468]
  000ff	83 f8 02	 cmp	 eax, 2
  00102	0f 85 ce 00 00
	00		 jne	 $LN8@Render

; 829  : 	{
; 830  : 		STATEMANAGER.SetTextureStageState(0, D3DTSS_COLOROP, D3DTOP_SELECTARG1);

  00108	6a 02		 push	 2
  0010a	6a 01		 push	 1
  0010c	6a 00		 push	 0
  0010e	8b 0d 00 00 00
	00		 mov	 ecx, DWORD PTR ?ms_singleton@?$CSingleton@VCStateManager@@@@0PAVCStateManager@@A ; CSingleton<CStateManager>::ms_singleton
  00114	e8 00 00 00 00	 call	 ?SetTextureStageState@CStateManager@@QAEXKW4_D3DTEXTURESTAGESTATETYPE@@K@Z ; CStateManager::SetTextureStageState

; 831  : 		STATEMANAGER.SaveTextureStageState(0, D3DTSS_ADDRESSU,	D3DTADDRESS_CLAMP);

  00119	6a 03		 push	 3
  0011b	6a 0d		 push	 13			; 0000000dH
  0011d	6a 00		 push	 0
  0011f	8b 0d 00 00 00
	00		 mov	 ecx, DWORD PTR ?ms_singleton@?$CSingleton@VCStateManager@@@@0PAVCStateManager@@A ; CSingleton<CStateManager>::ms_singleton
  00125	e8 00 00 00 00	 call	 ?SaveTextureStageState@CStateManager@@QAEXKW4_D3DTEXTURESTAGESTATETYPE@@K@Z ; CStateManager::SaveTextureStageState

; 832  : 		STATEMANAGER.SaveTextureStageState(0, D3DTSS_ADDRESSV,	D3DTADDRESS_CLAMP);

  0012a	6a 03		 push	 3
  0012c	6a 0e		 push	 14			; 0000000eH
  0012e	6a 00		 push	 0
  00130	8b 0d 00 00 00
	00		 mov	 ecx, DWORD PTR ?ms_singleton@?$CSingleton@VCStateManager@@@@0PAVCStateManager@@A ; CSingleton<CStateManager>::ms_singleton
  00136	e8 00 00 00 00	 call	 ?SaveTextureStageState@CStateManager@@QAEXKW4_D3DTEXTURESTAGESTATETYPE@@K@Z ; CStateManager::SaveTextureStageState

; 833  : 
; 834  : 		for (unsigned int i = 0; i < 6; ++i)

  0013b	83 65 f8 00	 and	 DWORD PTR _i$5[ebp], 0
  0013f	eb 07		 jmp	 SHORT $LN4@Render
$LN2@Render:
  00141	8b 45 f8	 mov	 eax, DWORD PTR _i$5[ebp]
  00144	40		 inc	 eax
  00145	89 45 f8	 mov	 DWORD PTR _i$5[ebp], eax
$LN4@Render:
  00148	83 7d f8 06	 cmp	 DWORD PTR _i$5[ebp], 6
  0014c	73 68		 jae	 SHORT $LN50@Render

; 836  : 			CGraphicImageInstance * pFaceImageInstance = m_GraphicImageInstanceMap[m_Faces[i].m_strFaceTextureFileName];

  0014e	6b 45 f8 3c	 imul	 eax, DWORD PTR _i$5[ebp], 60
  00152	8b 4d fc	 mov	 ecx, DWORD PTR _this$[ebp]
  00155	8d 84 01 30 02
	00 00		 lea	 eax, DWORD PTR [ecx+eax+560]
; File C:\Program Files (x86)\Microsoft Visual Studio\2019\Community\VC\Tools\MSVC\14.28.29333\include\map

; 325  :         return _Try_emplace(_Keyval).first->_Myval.second;

  0015c	50		 push	 eax
  0015d	8d 45 e4	 lea	 eax, DWORD PTR $T1[ebp]
  00160	50		 push	 eax
; File D:\Metin2 Server Files\mainline\SRC_2014\Metin2Client\EterLib\SkyBox.cpp

; 836  : 			CGraphicImageInstance * pFaceImageInstance = m_GraphicImageInstanceMap[m_Faces[i].m_strFaceTextureFileName];

  00161	8b 4d fc	 mov	 ecx, DWORD PTR _this$[ebp]
  00164	81 c1 34 01 00
	00		 add	 ecx, 308		; 00000134H
; File C:\Program Files (x86)\Microsoft Visual Studio\2019\Community\VC\Tools\MSVC\14.28.29333\include\map

; 325  :         return _Try_emplace(_Keyval).first->_Myval.second;

  0016a	e8 00 00 00 00	 call	 ??$_Try_emplace@ABV?$basic_string@DU?$char_traits@D@std@@V?$allocator@D@2@@std@@$$V@?$map@V?$basic_string@DU?$char_traits@D@std@@V?$allocator@D@2@@std@@PAVCGraphicImageInstance@@U?$less@V?$basic_string@DU?$char_traits@D@std@@V?$allocator@D@2@@std@@@2@V?$allocator@U?$pair@$$CBV?$basic_string@DU?$char_traits@D@std@@V?$allocator@D@2@@std@@PAVCGraphicImageInstance@@@std@@@2@@std@@AAE?AU?$pair@PAU?$_Tree_node@U?$pair@$$CBV?$basic_string@DU?$char_traits@D@std@@V?$allocator@D@2@@std@@PAVCGraphicImageInstance@@@std@@PAX@std@@_N@1@ABV?$basic_string@DU?$char_traits@D@std@@V?$allocator@D@2@@1@@Z ; std::map<std::basic_string<char,std::char_traits<char>,std::allocator<char> >,CGraphicImageInstance *,std::less<std::basic_string<char,std::char_traits<char>,std::allocator<char> > >,std::allocator<std::pair<std::basic_string<char,std::char_traits<char>,std::allocator<char> > const ,CGraphicImageInstance *> > >::_Try_emplace<std::basic_string<char,std::char_traits<char>,std::allocator<char> > const &>
; File D:\Metin2 Server Files\mainline\SRC_2014\Metin2Client\EterLib\SkyBox.cpp

; 836  : 			CGraphicImageInstance * pFaceImageInstance = m_GraphicImageInstanceMap[m_Faces[i].m_strFaceTextureFileName];

  0016f	8b 00		 mov	 eax, DWORD PTR [eax]
  00171	8b 40 28	 mov	 eax, DWORD PTR [eax+40]
  00174	89 45 f0	 mov	 DWORD PTR _pFaceImageInstance$3[ebp], eax

; 837  : 			if (!pFaceImageInstance)

  00177	83 7d f0 00	 cmp	 DWORD PTR _pFaceImageInstance$3[ebp], 0
  0017b	75 02		 jne	 SHORT $LN10@Render

; 838  : 				break;

  0017d	eb 37		 jmp	 SHORT $LN50@Render
$LN10@Render:
; File D:\Metin2 Server Files\mainline\SRC_2014\Metin2Client\eterBase\Singleton.h

; 27   : 		return (*ms_singleton);

  0017f	a1 00 00 00 00	 mov	 eax, DWORD PTR ?ms_singleton@?$CSingleton@VCStateManager@@@@0PAVCStateManager@@A ; CSingleton<CStateManager>::ms_singleton
  00184	89 45 ec	 mov	 DWORD PTR $T2[ebp], eax
; File D:\Metin2 Server Files\mainline\SRC_2014\Metin2Client\EterLib\SkyBox.cpp

; 840  : 			STATEMANAGER.SetTexture( 0, pFaceImageInstance->GetTextureReference().GetD3DTexture() );

  00187	8b 4d f0	 mov	 ecx, DWORD PTR _pFaceImageInstance$3[ebp]
  0018a	e8 00 00 00 00	 call	 ?GetTextureReference@CGraphicImageInstance@@QBEABVCGraphicTexture@@XZ ; CGraphicImageInstance::GetTextureReference
  0018f	8b c8		 mov	 ecx, eax
  00191	e8 00 00 00 00	 call	 ?GetD3DTexture@CGraphicTexture@@QBEPAUIDirect3DTexture8@@XZ ; CGraphicTexture::GetD3DTexture
  00196	50		 push	 eax
  00197	6a 00		 push	 0
  00199	8b 4d ec	 mov	 ecx, DWORD PTR $T2[ebp]
  0019c	e8 00 00 00 00	 call	 ?SetTexture@CStateManager@@QAEXKPAUIDirect3DBaseTexture8@@@Z ; CStateManager::SetTexture

; 841  : 
; 842  : 			m_Faces[i].Render();

  001a1	6b 45 f8 3c	 imul	 eax, DWORD PTR _i$5[ebp], 60
  001a5	8b 4d fc	 mov	 ecx, DWORD PTR _this$[ebp]
  001a8	8d 8c 01 18 02
	00 00		 lea	 ecx, DWORD PTR [ecx+eax+536]
  001af	e8 00 00 00 00	 call	 ?Render@TSkyObjectFace@CSkyObject@@QAEXXZ ; CSkyObject::TSkyObjectFace::Render

; 843  : 		}

  001b4	eb 8b		 jmp	 SHORT $LN2@Render
$LN50@Render:

; 844  : 
; 845  : 		//STATEMANAGER.SetTexture( 0, NULL );
; 846  : 
; 847  : 		STATEMANAGER.RestoreTextureStageState(0, D3DTSS_ADDRESSU);

  001b6	6a 0d		 push	 13			; 0000000dH
  001b8	6a 00		 push	 0
  001ba	8b 0d 00 00 00
	00		 mov	 ecx, DWORD PTR ?ms_singleton@?$CSingleton@VCStateManager@@@@0PAVCStateManager@@A ; CSingleton<CStateManager>::ms_singleton
  001c0	e8 00 00 00 00	 call	 ?RestoreTextureStageState@CStateManager@@QAEXKW4_D3DTEXTURESTAGESTATETYPE@@@Z ; CStateManager::RestoreTextureStageState

; 848  : 		STATEMANAGER.RestoreTextureStageState(0, D3DTSS_ADDRESSV);

  001c5	6a 0e		 push	 14			; 0000000eH
  001c7	6a 00		 push	 0
  001c9	8b 0d 00 00 00
	00		 mov	 ecx, DWORD PTR ?ms_singleton@?$CSingleton@VCStateManager@@@@0PAVCStateManager@@A ; CSingleton<CStateManager>::ms_singleton
  001cf	e8 00 00 00 00	 call	 ?RestoreTextureStageState@CStateManager@@QAEXKW4_D3DTEXTURESTAGESTATETYPE@@@Z ; CStateManager::RestoreTextureStageState

; 849  : 	}

  001d4	eb 28		 jmp	 SHORT $LN54@Render
$LN8@Render:

; 850  : 	else
; 851  : 	{
; 852  : 		for (unsigned int i = 0; i < 6; ++i)

  001d6	83 65 f4 00	 and	 DWORD PTR _i$4[ebp], 0
  001da	eb 07		 jmp	 SHORT $LN7@Render
$LN5@Render:
  001dc	8b 45 f4	 mov	 eax, DWORD PTR _i$4[ebp]
  001df	40		 inc	 eax
  001e0	89 45 f4	 mov	 DWORD PTR _i$4[ebp], eax
$LN7@Render:
  001e3	83 7d f4 06	 cmp	 DWORD PTR _i$4[ebp], 6
  001e7	73 15		 jae	 SHORT $LN54@Render

; 853  : 		{
; 854  : 			m_Faces[i].Render();

  001e9	6b 45 f4 3c	 imul	 eax, DWORD PTR _i$4[ebp], 60
  001ed	8b 4d fc	 mov	 ecx, DWORD PTR _this$[ebp]
  001f0	8d 8c 01 18 02
	00 00		 lea	 ecx, DWORD PTR [ecx+eax+536]
  001f7	e8 00 00 00 00	 call	 ?Render@TSkyObjectFace@CSkyObject@@QAEXXZ ; CSkyObject::TSkyObjectFace::Render

; 855  : 		}

  001fc	eb de		 jmp	 SHORT $LN5@Render
$LN54@Render:

; 856  : 	}
; 857  : 
; 858  : 	STATEMANAGER.RestoreRenderState(D3DRS_LIGHTING);

  001fe	68 89 00 00 00	 push	 137			; 00000089H
  00203	8b 0d 00 00 00
	00		 mov	 ecx, DWORD PTR ?ms_singleton@?$CSingleton@VCStateManager@@@@0PAVCStateManager@@A ; CSingleton<CStateManager>::ms_singleton
  00209	e8 00 00 00 00	 call	 ?RestoreRenderState@CStateManager@@QAEXW4_D3DRENDERSTATETYPE@@@Z ; CStateManager::RestoreRenderState

; 859  : 	STATEMANAGER.RestoreRenderState(D3DRS_ZENABLE);

  0020e	6a 07		 push	 7
  00210	8b 0d 00 00 00
	00		 mov	 ecx, DWORD PTR ?ms_singleton@?$CSingleton@VCStateManager@@@@0PAVCStateManager@@A ; CSingleton<CStateManager>::ms_singleton
  00216	e8 00 00 00 00	 call	 ?RestoreRenderState@CStateManager@@QAEXW4_D3DRENDERSTATETYPE@@@Z ; CStateManager::RestoreRenderState

; 860  : 	STATEMANAGER.RestoreRenderState(D3DRS_ZWRITEENABLE);

  0021b	6a 0e		 push	 14			; 0000000eH
  0021d	8b 0d 00 00 00
	00		 mov	 ecx, DWORD PTR ?ms_singleton@?$CSingleton@VCStateManager@@@@0PAVCStateManager@@A ; CSingleton<CStateManager>::ms_singleton
  00223	e8 00 00 00 00	 call	 ?RestoreRenderState@CStateManager@@QAEXW4_D3DRENDERSTATETYPE@@@Z ; CStateManager::RestoreRenderState

; 861  : 	STATEMANAGER.RestoreRenderState(D3DRS_FOGENABLE);

  00228	6a 1c		 push	 28			; 0000001cH
  0022a	8b 0d 00 00 00
	00		 mov	 ecx, DWORD PTR ?ms_singleton@?$CSingleton@VCStateManager@@@@0PAVCStateManager@@A ; CSingleton<CStateManager>::ms_singleton
  00230	e8 00 00 00 00	 call	 ?RestoreRenderState@CStateManager@@QAEXW4_D3DRENDERSTATETYPE@@@Z ; CStateManager::RestoreRenderState

; 862  : 	STATEMANAGER.RestoreRenderState(D3DRS_ALPHABLENDENABLE);

  00235	6a 1b		 push	 27			; 0000001bH
  00237	8b 0d 00 00 00
	00		 mov	 ecx, DWORD PTR ?ms_singleton@?$CSingleton@VCStateManager@@@@0PAVCStateManager@@A ; CSingleton<CStateManager>::ms_singleton
  0023d	e8 00 00 00 00	 call	 ?RestoreRenderState@CStateManager@@QAEXW4_D3DRENDERSTATETYPE@@@Z ; CStateManager::RestoreRenderState

; 863  : 
; 864  : 	STATEMANAGER.RestoreTextureStageState(0, D3DTSS_COLOROP);

  00242	6a 01		 push	 1
  00244	6a 00		 push	 0
  00246	8b 0d 00 00 00
	00		 mov	 ecx, DWORD PTR ?ms_singleton@?$CSingleton@VCStateManager@@@@0PAVCStateManager@@A ; CSingleton<CStateManager>::ms_singleton
  0024c	e8 00 00 00 00	 call	 ?RestoreTextureStageState@CStateManager@@QAEXKW4_D3DTEXTURESTAGESTATETYPE@@@Z ; CStateManager::RestoreTextureStageState

; 865  : 	STATEMANAGER.RestoreTextureStageState(0, D3DTSS_COLORARG1);

  00251	6a 02		 push	 2
  00253	6a 00		 push	 0
  00255	8b 0d 00 00 00
	00		 mov	 ecx, DWORD PTR ?ms_singleton@?$CSingleton@VCStateManager@@@@0PAVCStateManager@@A ; CSingleton<CStateManager>::ms_singleton
  0025b	e8 00 00 00 00	 call	 ?RestoreTextureStageState@CStateManager@@QAEXKW4_D3DTEXTURESTAGESTATETYPE@@@Z ; CStateManager::RestoreTextureStageState

; 866  : 	STATEMANAGER.RestoreTextureStageState(0, D3DTSS_COLORARG2);

  00260	6a 03		 push	 3
  00262	6a 00		 push	 0
  00264	8b 0d 00 00 00
	00		 mov	 ecx, DWORD PTR ?ms_singleton@?$CSingleton@VCStateManager@@@@0PAVCStateManager@@A ; CSingleton<CStateManager>::ms_singleton
  0026a	e8 00 00 00 00	 call	 ?RestoreTextureStageState@CStateManager@@QAEXKW4_D3DTEXTURESTAGESTATETYPE@@@Z ; CStateManager::RestoreTextureStageState

; 867  : }

  0026f	c9		 leave
  00270	c3		 ret	 0
?Render@CSkyBox@@UAEXXZ ENDP				; CSkyBox::Render
_TEXT	ENDS
; Function compile flags: /Odspy
; File D:\Metin2 Server Files\mainline\SRC_2014\Metin2Client\EterLib\SkyBox.cpp
;	COMDAT ?Update@CSkyBox@@UAEXXZ
_TEXT	SEGMENT
tv134 = -16						; size = 4
tv89 = -12						; size = 4
_this$ = -8						; size = 4
_uci$1 = -2						; size = 1
_bResult$ = -1						; size = 1
?Update@CSkyBox@@UAEXXZ PROC				; CSkyBox::Update, COMDAT
; _this$ = ecx

; 790  : {

  00000	55		 push	 ebp
  00001	8b ec		 mov	 ebp, esp
  00003	83 ec 10	 sub	 esp, 16			; 00000010H
  00006	89 4d f8	 mov	 DWORD PTR _this$[ebp], ecx

; 791  : 	CSkyObject::Update();

  00009	8b 4d f8	 mov	 ecx, DWORD PTR _this$[ebp]
  0000c	e8 00 00 00 00	 call	 ?Update@CSkyObject@@UAEXXZ ; CSkyObject::Update

; 792  : 
; 793  : 	if (!m_bTransitionStarted)

  00011	8b 45 f8	 mov	 eax, DWORD PTR _this$[ebp]
  00014	0f b6 80 f0 01
	00 00		 movzx	 eax, BYTE PTR [eax+496]
  0001b	85 c0		 test	 eax, eax
  0001d	75 05		 jne	 SHORT $LN5@Update

; 794  : 		return;

  0001f	e9 8e 00 00 00	 jmp	 $LN1@Update
$LN5@Update:

; 795  : 	
; 796  : 	bool bResult = false;

  00024	c6 45 ff 00	 mov	 BYTE PTR _bResult$[ebp], 0

; 797  : 	for (unsigned char uci = 0; uci < 6; ++uci)

  00028	c6 45 fe 00	 mov	 BYTE PTR _uci$1[ebp], 0
  0002c	eb 08		 jmp	 SHORT $LN4@Update
$LN2@Update:
  0002e	8a 45 fe	 mov	 al, BYTE PTR _uci$1[ebp]
  00031	04 01		 add	 al, 1
  00033	88 45 fe	 mov	 BYTE PTR _uci$1[ebp], al
$LN4@Update:
  00036	0f b6 45 fe	 movzx	 eax, BYTE PTR _uci$1[ebp]
  0003a	83 f8 06	 cmp	 eax, 6
  0003d	7d 3a		 jge	 SHORT $LN3@Update

; 798  :  		bResult = m_Faces[uci].Update() || bResult;

  0003f	0f b6 45 fe	 movzx	 eax, BYTE PTR _uci$1[ebp]
  00043	6b c0 3c	 imul	 eax, eax, 60
  00046	8b 4d f8	 mov	 ecx, DWORD PTR _this$[ebp]
  00049	8d 8c 01 18 02
	00 00		 lea	 ecx, DWORD PTR [ecx+eax+536]
  00050	e8 00 00 00 00	 call	 ?Update@TSkyObjectFace@CSkyObject@@QAE_NXZ ; CSkyObject::TSkyObjectFace::Update
  00055	0f b6 c0	 movzx	 eax, al
  00058	85 c0		 test	 eax, eax
  0005a	75 0e		 jne	 SHORT $LN7@Update
  0005c	0f b6 45 ff	 movzx	 eax, BYTE PTR _bResult$[ebp]
  00060	85 c0		 test	 eax, eax
  00062	75 06		 jne	 SHORT $LN7@Update
  00064	83 65 f4 00	 and	 DWORD PTR tv89[ebp], 0
  00068	eb 07		 jmp	 SHORT $LN8@Update
$LN7@Update:
  0006a	c7 45 f4 01 00
	00 00		 mov	 DWORD PTR tv89[ebp], 1
$LN8@Update:
  00071	8a 45 f4	 mov	 al, BYTE PTR tv89[ebp]
  00074	88 45 ff	 mov	 BYTE PTR _bResult$[ebp], al
  00077	eb b5		 jmp	 SHORT $LN2@Update
$LN3@Update:

; 799  :  	bResult = m_FaceCloud.Update() || bResult;

  00079	8b 4d f8	 mov	 ecx, DWORD PTR _this$[ebp]
  0007c	83 c1 04	 add	 ecx, 4
  0007f	e8 00 00 00 00	 call	 ?Update@TSkyObjectFace@CSkyObject@@QAE_NXZ ; CSkyObject::TSkyObjectFace::Update
  00084	0f b6 c0	 movzx	 eax, al
  00087	85 c0		 test	 eax, eax
  00089	75 0e		 jne	 SHORT $LN9@Update
  0008b	0f b6 45 ff	 movzx	 eax, BYTE PTR _bResult$[ebp]
  0008f	85 c0		 test	 eax, eax
  00091	75 06		 jne	 SHORT $LN9@Update
  00093	83 65 f0 00	 and	 DWORD PTR tv134[ebp], 0
  00097	eb 07		 jmp	 SHORT $LN10@Update
$LN9@Update:
  00099	c7 45 f0 01 00
	00 00		 mov	 DWORD PTR tv134[ebp], 1
$LN10@Update:
  000a0	8a 45 f0	 mov	 al, BYTE PTR tv134[ebp]
  000a3	88 45 ff	 mov	 BYTE PTR _bResult$[ebp], al

; 800  : 
; 801  : 	m_bTransitionStarted = bResult;

  000a6	8b 45 f8	 mov	 eax, DWORD PTR _this$[ebp]
  000a9	8a 4d ff	 mov	 cl, BYTE PTR _bResult$[ebp]
  000ac	88 88 f0 01 00
	00		 mov	 BYTE PTR [eax+496], cl
$LN1@Update:

; 802  : }

  000b2	c9		 leave
  000b3	c3		 ret	 0
?Update@CSkyBox@@UAEXXZ ENDP				; CSkyBox::Update
_TEXT	ENDS
; Function compile flags: /Odspy
; File D:\Metin2 Server Files\mainline\SRC_2014\Metin2Client\EterLib\SkyBox.cpp
;	COMDAT ??1CSkyBox@@UAE@XZ
_TEXT	SEGMENT
_this$ = -16						; size = 4
__$EHRec$ = -12						; size = 12
??1CSkyBox@@UAE@XZ PROC					; CSkyBox::~CSkyBox, COMDAT
; _this$ = ecx

; 224  : {

  00000	55		 push	 ebp
  00001	8b ec		 mov	 ebp, esp
  00003	6a ff		 push	 -1
  00005	68 00 00 00 00	 push	 __ehhandler$??1CSkyBox@@UAE@XZ
  0000a	64 a1 00 00 00
	00		 mov	 eax, DWORD PTR fs:0
  00010	50		 push	 eax
  00011	51		 push	 ecx
  00012	a1 00 00 00 00	 mov	 eax, DWORD PTR ___security_cookie
  00017	33 c5		 xor	 eax, ebp
  00019	50		 push	 eax
  0001a	8d 45 f4	 lea	 eax, DWORD PTR __$EHRec$[ebp]
  0001d	64 a3 00 00 00
	00		 mov	 DWORD PTR fs:0, eax
  00023	89 4d f0	 mov	 DWORD PTR _this$[ebp], ecx
  00026	8b 45 f0	 mov	 eax, DWORD PTR _this$[ebp]
  00029	c7 00 00 00 00
	00		 mov	 DWORD PTR [eax], OFFSET ??_7CSkyBox@@6B@

; 225  : 	Destroy();

  0002f	8b 4d f0	 mov	 ecx, DWORD PTR _this$[ebp]
  00032	e8 00 00 00 00	 call	 ?Destroy@CSkyBox@@UAEXXZ ; CSkyBox::Destroy

; 226  : }

  00037	68 00 00 00 00	 push	 OFFSET ??1TSkyObjectFace@CSkyObject@@QAE@XZ
  0003c	6a 06		 push	 6
  0003e	6a 3c		 push	 60			; 0000003cH
  00040	8b 45 f0	 mov	 eax, DWORD PTR _this$[ebp]
  00043	05 18 02 00 00	 add	 eax, 536		; 00000218H
  00048	50		 push	 eax
  00049	e8 00 00 00 00	 call	 ??_M@YGXPAXIIP6EX0@Z@Z
  0004e	8b 4d f0	 mov	 ecx, DWORD PTR _this$[ebp]
  00051	e8 00 00 00 00	 call	 ??1CSkyObject@@UAE@XZ	; CSkyObject::~CSkyObject
  00056	8b 4d f4	 mov	 ecx, DWORD PTR __$EHRec$[ebp]
  00059	64 89 0d 00 00
	00 00		 mov	 DWORD PTR fs:0, ecx
  00060	59		 pop	 ecx
  00061	c9		 leave
  00062	c3		 ret	 0
  00063	cc		 int	 3
  00064	cc		 int	 3
  00065	cc		 int	 3
  00066	cc		 int	 3
  00067	cc		 int	 3
_TEXT	ENDS
;	COMDAT text$x
text$x	SEGMENT
__ehhandler$??1CSkyBox@@UAE@XZ:
  00000	90		 npad	 1
  00001	90		 npad	 1
  00002	8b 54 24 08	 mov	 edx, DWORD PTR [esp+8]
  00006	8d 42 0c	 lea	 eax, DWORD PTR [edx+12]
  00009	8b 4a f8	 mov	 ecx, DWORD PTR [edx-8]
  0000c	33 c8		 xor	 ecx, eax
  0000e	e8 00 00 00 00	 call	 @__security_check_cookie@4
  00013	b8 00 00 00 00	 mov	 eax, OFFSET __ehfuncinfo$??1CSkyBox@@UAE@XZ
  00018	e9 00 00 00 00	 jmp	 ___CxxFrameHandler3
text$x	ENDS
??1CSkyBox@@UAE@XZ ENDP					; CSkyBox::~CSkyBox
; Function compile flags: /Odspy
; File D:\Metin2 Server Files\mainline\SRC_2014\Metin2Client\EterLib\SkyBox.cpp
;	COMDAT ??0CSkyBox@@QAE@XZ
_TEXT	SEGMENT
_this$ = -16						; size = 4
__$EHRec$ = -12						; size = 12
??0CSkyBox@@QAE@XZ PROC					; CSkyBox::CSkyBox, COMDAT
; _this$ = ecx

; 218  : {

  00000	55		 push	 ebp
  00001	8b ec		 mov	 ebp, esp
  00003	6a ff		 push	 -1
  00005	68 00 00 00 00	 push	 __ehhandler$??0CSkyBox@@QAE@XZ
  0000a	64 a1 00 00 00
	00		 mov	 eax, DWORD PTR fs:0
  00010	50		 push	 eax
  00011	51		 push	 ecx
  00012	a1 00 00 00 00	 mov	 eax, DWORD PTR ___security_cookie
  00017	33 c5		 xor	 eax, ebp
  00019	50		 push	 eax
  0001a	8d 45 f4	 lea	 eax, DWORD PTR __$EHRec$[ebp]
  0001d	64 a3 00 00 00
	00		 mov	 DWORD PTR fs:0, eax
  00023	89 4d f0	 mov	 DWORD PTR _this$[ebp], ecx
  00026	8b 4d f0	 mov	 ecx, DWORD PTR _this$[ebp]
  00029	e8 00 00 00 00	 call	 ??0CSkyObject@@QAE@XZ	; CSkyObject::CSkyObject
  0002e	83 65 fc 00	 and	 DWORD PTR __$EHRec$[ebp+8], 0
  00032	8b 45 f0	 mov	 eax, DWORD PTR _this$[ebp]
  00035	c7 00 00 00 00
	00		 mov	 DWORD PTR [eax], OFFSET ??_7CSkyBox@@6B@
  0003b	68 00 00 00 00	 push	 OFFSET ??1TSkyObjectFace@CSkyObject@@QAE@XZ
  00040	68 00 00 00 00	 push	 OFFSET ??0TSkyObjectFace@CSkyObject@@QAE@XZ
  00045	6a 06		 push	 6
  00047	6a 3c		 push	 60			; 0000003cH
  00049	8b 45 f0	 mov	 eax, DWORD PTR _this$[ebp]
  0004c	05 18 02 00 00	 add	 eax, 536		; 00000218H
  00051	50		 push	 eax
  00052	e8 00 00 00 00	 call	 ??_L@YGXPAXIIP6EX0@Z1@Z

; 219  : 	m_ucVirticalGradientLevelUpper = 0;

  00057	8b 45 f0	 mov	 eax, DWORD PTR _this$[ebp]
  0005a	c6 80 14 02 00
	00 00		 mov	 BYTE PTR [eax+532], 0

; 220  : 	m_ucVirticalGradientLevelLower = 0;

  00061	8b 45 f0	 mov	 eax, DWORD PTR _this$[ebp]
  00064	c6 80 15 02 00
	00 00		 mov	 BYTE PTR [eax+533], 0

; 221  : }

  0006b	83 4d fc ff	 or	 DWORD PTR __$EHRec$[ebp+8], -1
  0006f	8b 45 f0	 mov	 eax, DWORD PTR _this$[ebp]
  00072	8b 4d f4	 mov	 ecx, DWORD PTR __$EHRec$[ebp]
  00075	64 89 0d 00 00
	00 00		 mov	 DWORD PTR fs:0, ecx
  0007c	59		 pop	 ecx
  0007d	c9		 leave
  0007e	c3		 ret	 0
_TEXT	ENDS
;	COMDAT text$x
text$x	SEGMENT
__unwindfunclet$??0CSkyBox@@QAE@XZ$0:
  00000	8b 4d f0	 mov	 ecx, DWORD PTR _this$[ebp]
  00003	e9 00 00 00 00	 jmp	 ??1CSkyObject@@UAE@XZ	; CSkyObject::~CSkyObject
  00008	cc		 int	 3
  00009	cc		 int	 3
  0000a	cc		 int	 3
  0000b	cc		 int	 3
  0000c	cc		 int	 3
__ehhandler$??0CSkyBox@@QAE@XZ:
  0000d	90		 npad	 1
  0000e	90		 npad	 1
  0000f	8b 54 24 08	 mov	 edx, DWORD PTR [esp+8]
  00013	8d 42 0c	 lea	 eax, DWORD PTR [edx+12]
  00016	8b 4a f8	 mov	 ecx, DWORD PTR [edx-8]
  00019	33 c8		 xor	 ecx, eax
  0001b	e8 00 00 00 00	 call	 @__security_check_cookie@4
  00020	b8 00 00 00 00	 mov	 eax, OFFSET __ehfuncinfo$??0CSkyBox@@QAE@XZ
  00025	e9 00 00 00 00	 jmp	 ___CxxFrameHandler3
text$x	ENDS
??0CSkyBox@@QAE@XZ ENDP					; CSkyBox::CSkyBox
; Function compile flags: /Odspy
;	COMDAT ??_GCSkyObject@@UAEPAXI@Z
_TEXT	SEGMENT
_this$ = -4						; size = 4
___flags$ = 8						; size = 4
??_GCSkyObject@@UAEPAXI@Z PROC				; CSkyObject::`scalar deleting destructor', COMDAT
; _this$ = ecx
  00000	55		 push	 ebp
  00001	8b ec		 mov	 ebp, esp
  00003	51		 push	 ecx
  00004	89 4d fc	 mov	 DWORD PTR _this$[ebp], ecx
  00007	8b 4d fc	 mov	 ecx, DWORD PTR _this$[ebp]
  0000a	e8 00 00 00 00	 call	 ??1CSkyObject@@UAE@XZ	; CSkyObject::~CSkyObject
  0000f	8b 45 08	 mov	 eax, DWORD PTR ___flags$[ebp]
  00012	83 e0 01	 and	 eax, 1
  00015	74 0f		 je	 SHORT $LN2@scalar
  00017	68 14 02 00 00	 push	 532			; 00000214H
  0001c	ff 75 fc	 push	 DWORD PTR _this$[ebp]
  0001f	e8 00 00 00 00	 call	 ??3@YAXPAXI@Z		; operator delete
  00024	59		 pop	 ecx
  00025	59		 pop	 ecx
$LN2@scalar:
  00026	8b 45 fc	 mov	 eax, DWORD PTR _this$[ebp]
  00029	c9		 leave
  0002a	c2 04 00	 ret	 4
??_GCSkyObject@@UAEPAXI@Z ENDP				; CSkyObject::`scalar deleting destructor'
_TEXT	ENDS
; Function compile flags: /Odspy
;	COMDAT ??1?$map@V?$basic_string@DU?$char_traits@D@std@@V?$allocator@D@2@@std@@PAVCGraphicImageInstance@@U?$less@V?$basic_string@DU?$char_traits@D@std@@V?$allocator@D@2@@std@@@2@V?$allocator@U?$pair@$$CBV?$basic_string@DU?$char_traits@D@std@@V?$allocator@D@2@@std@@PAVCGraphicImageInstance@@@std@@@2@@std@@QAE@XZ
_TEXT	SEGMENT
_this$ = -4						; size = 4
??1?$map@V?$basic_string@DU?$char_traits@D@std@@V?$allocator@D@2@@std@@PAVCGraphicImageInstance@@U?$less@V?$basic_string@DU?$char_traits@D@std@@V?$allocator@D@2@@std@@@2@V?$allocator@U?$pair@$$CBV?$basic_string@DU?$char_traits@D@std@@V?$allocator@D@2@@std@@PAVCGraphicImageInstance@@@std@@@2@@std@@QAE@XZ PROC ; std::map<std::basic_string<char,std::char_traits<char>,std::allocator<char> >,CGraphicImageInstance *,std::less<std::basic_string<char,std::char_traits<char>,std::allocator<char> > >,std::allocator<std::pair<std::basic_string<char,std::char_traits<char>,std::allocator<char> > const ,CGraphicImageInstance *> > >::~map<std::basic_string<char,std::char_traits<char>,std::allocator<char> >,CGraphicImageInstance *,std::less<std::basic_string<char,std::char_traits<char>,std::allocator<char> > >,std::allocator<std::pair<std::basic_string<char,std::char_traits<char>,std::allocator<char> > const ,CGraphicImageInstance *> > >, COMDAT
; _this$ = ecx
  00000	55		 push	 ebp
  00001	8b ec		 mov	 ebp, esp
  00003	51		 push	 ecx
  00004	89 4d fc	 mov	 DWORD PTR _this$[ebp], ecx
  00007	8b 4d fc	 mov	 ecx, DWORD PTR _this$[ebp]
  0000a	e8 00 00 00 00	 call	 ??1?$_Tree@V?$_Tmap_traits@V?$basic_string@DU?$char_traits@D@std@@V?$allocator@D@2@@std@@PAVCGraphicImageInstance@@U?$less@V?$basic_string@DU?$char_traits@D@std@@V?$allocator@D@2@@std@@@2@V?$allocator@U?$pair@$$CBV?$basic_string@DU?$char_traits@D@std@@V?$allocator@D@2@@std@@PAVCGraphicImageInstance@@@std@@@2@$0A@@std@@@std@@QAE@XZ ; std::_Tree<std::_Tmap_traits<std::basic_string<char,std::char_traits<char>,std::allocator<char> >,CGraphicImageInstance *,std::less<std::basic_string<char,std::char_traits<char>,std::allocator<char> > >,std::allocator<std::pair<std::basic_string<char,std::char_traits<char>,std::allocator<char> > const ,CGraphicImageInstance *> >,0> >::~_Tree<std::_Tmap_traits<std::basic_string<char,std::char_traits<char>,std::allocator<char> >,CGraphicImageInstance *,std::less<std::basic_string<char,std::char_traits<char>,std::allocator<char> > >,std::allocator<std::pair<std::basic_string<char,std::char_traits<char>,std::allocator<char> > const ,CGraphicImageInstance *> >,0> >
  0000f	c9		 leave
  00010	c3		 ret	 0
??1?$map@V?$basic_string@DU?$char_traits@D@std@@V?$allocator@D@2@@std@@PAVCGraphicImageInstance@@U?$less@V?$basic_string@DU?$char_traits@D@std@@V?$allocator@D@2@@std@@@2@V?$allocator@U?$pair@$$CBV?$basic_string@DU?$char_traits@D@std@@V?$allocator@D@2@@std@@PAVCGraphicImageInstance@@@std@@@2@@std@@QAE@XZ ENDP ; std::map<std::basic_string<char,std::char_traits<char>,std::allocator<char> >,CGraphicImageInstance *,std::less<std::basic_string<char,std::char_traits<char>,std::allocator<char> > >,std::allocator<std::pair<std::basic_string<char,std::char_traits<char>,std::allocator<char> > const ,CGraphicImageInstance *> > >::~map<std::basic_string<char,std::char_traits<char>,std::allocator<char> >,CGraphicImageInstance *,std::less<std::basic_string<char,std::char_traits<char>,std::allocator<char> > >,std::allocator<std::pair<std::basic_string<char,std::char_traits<char>,std::allocator<char> > const ,CGraphicImageInstance *> > >
_TEXT	ENDS
; Function compile flags: /Odspy
; File C:\Program Files (x86)\Microsoft Visual Studio\2019\Community\VC\Tools\MSVC\14.28.29333\include\xtree
;	COMDAT ?_Insert_node@?$_Tree_val@U?$_Tree_simple_types@U?$pair@$$CBV?$basic_string@DU?$char_traits@D@std@@V?$allocator@D@2@@std@@PAVCGraphicImageInstance@@@std@@@std@@@std@@QAEPAU?$_Tree_node@U?$pair@$$CBV?$basic_string@DU?$char_traits@D@std@@V?$allocator@D@2@@std@@PAVCGraphicImageInstance@@@std@@PAX@2@U?$_Tree_id@PAU?$_Tree_node@U?$pair@$$CBV?$basic_string@DU?$char_traits@D@std@@V?$allocator@D@2@@std@@PAVCGraphicImageInstance@@@std@@PAX@std@@@2@QAU32@@Z
_TEXT	SEGMENT
__Parent_sibling$1 = -20				; size = 4
__Parent_sibling$2 = -16				; size = 4
_this$ = -12						; size = 4
__Head$ = -8						; size = 4
__Pnode$3 = -4						; size = 4
__Loc$ = 8						; size = 8
__Newnode$ = 16						; size = 4
?_Insert_node@?$_Tree_val@U?$_Tree_simple_types@U?$pair@$$CBV?$basic_string@DU?$char_traits@D@std@@V?$allocator@D@2@@std@@PAVCGraphicImageInstance@@@std@@@std@@@std@@QAEPAU?$_Tree_node@U?$pair@$$CBV?$basic_string@DU?$char_traits@D@std@@V?$allocator@D@2@@std@@PAVCGraphicImageInstance@@@std@@PAX@2@U?$_Tree_id@PAU?$_Tree_node@U?$pair@$$CBV?$basic_string@DU?$char_traits@D@std@@V?$allocator@D@2@@std@@PAVCGraphicImageInstance@@@std@@PAX@std@@@2@QAU32@@Z PROC ; std::_Tree_val<std::_Tree_simple_types<std::pair<std::basic_string<char,std::char_traits<char>,std::allocator<char> > const ,CGraphicImageInstance *> > >::_Insert_node, COMDAT
; _this$ = ecx

; 644  :     _Nodeptr _Insert_node(const _Tree_id<_Nodeptr> _Loc, const _Nodeptr _Newnode) noexcept {

  00000	55		 push	 ebp
  00001	8b ec		 mov	 ebp, esp
  00003	83 ec 14	 sub	 esp, 20			; 00000014H
  00006	89 4d f4	 mov	 DWORD PTR _this$[ebp], ecx

; 645  :         ++_Mysize;

  00009	8b 45 f4	 mov	 eax, DWORD PTR _this$[ebp]
  0000c	8b 40 04	 mov	 eax, DWORD PTR [eax+4]
  0000f	40		 inc	 eax
  00010	8b 4d f4	 mov	 ecx, DWORD PTR _this$[ebp]
  00013	89 41 04	 mov	 DWORD PTR [ecx+4], eax

; 646  :         const auto _Head  = _Myhead;

  00016	8b 45 f4	 mov	 eax, DWORD PTR _this$[ebp]
  00019	8b 00		 mov	 eax, DWORD PTR [eax]
  0001b	89 45 f8	 mov	 DWORD PTR __Head$[ebp], eax

; 647  :         _Newnode->_Parent = _Loc._Parent;

  0001e	8b 45 10	 mov	 eax, DWORD PTR __Newnode$[ebp]
  00021	8b 4d 08	 mov	 ecx, DWORD PTR __Loc$[ebp]
  00024	89 48 04	 mov	 DWORD PTR [eax+4], ecx

; 648  :         if (_Loc._Parent == _Head) { // first node in tree, just set head values

  00027	8b 45 08	 mov	 eax, DWORD PTR __Loc$[ebp]
  0002a	3b 45 f8	 cmp	 eax, DWORD PTR __Head$[ebp]
  0002d	75 29		 jne	 SHORT $LN5@Insert_nod

; 649  :             _Head->_Left     = _Newnode;

  0002f	8b 45 f8	 mov	 eax, DWORD PTR __Head$[ebp]
  00032	8b 4d 10	 mov	 ecx, DWORD PTR __Newnode$[ebp]
  00035	89 08		 mov	 DWORD PTR [eax], ecx

; 650  :             _Head->_Parent   = _Newnode;

  00037	8b 45 f8	 mov	 eax, DWORD PTR __Head$[ebp]
  0003a	8b 4d 10	 mov	 ecx, DWORD PTR __Newnode$[ebp]
  0003d	89 48 04	 mov	 DWORD PTR [eax+4], ecx

; 651  :             _Head->_Right    = _Newnode;

  00040	8b 45 f8	 mov	 eax, DWORD PTR __Head$[ebp]
  00043	8b 4d 10	 mov	 ecx, DWORD PTR __Newnode$[ebp]
  00046	89 48 08	 mov	 DWORD PTR [eax+8], ecx

; 652  :             _Newnode->_Color = _Black; // the root is black

  00049	8b 45 10	 mov	 eax, DWORD PTR __Newnode$[ebp]
  0004c	c6 40 0c 01	 mov	 BYTE PTR [eax+12], 1

; 653  :             return _Newnode;

  00050	8b 45 10	 mov	 eax, DWORD PTR __Newnode$[ebp]
  00053	e9 a3 01 00 00	 jmp	 $LN18@Insert_nod
$LN5@Insert_nod:

; 654  :         }
; 655  : 
; 656  :         _STL_INTERNAL_CHECK(_Loc._Child != _Tree_child::_Unused);
; 657  :         if (_Loc._Child == _Tree_child::_Right) { // add to right of _Loc._Parent

  00058	83 7d 0c 00	 cmp	 DWORD PTR __Loc$[ebp+4], 0
  0005c	75 1f		 jne	 SHORT $LN6@Insert_nod

; 658  :             _STL_INTERNAL_CHECK(_Loc._Parent->_Right->_Isnil);
; 659  :             _Loc._Parent->_Right = _Newnode;

  0005e	8b 45 08	 mov	 eax, DWORD PTR __Loc$[ebp]
  00061	8b 4d 10	 mov	 ecx, DWORD PTR __Newnode$[ebp]
  00064	89 48 08	 mov	 DWORD PTR [eax+8], ecx

; 660  :             if (_Loc._Parent == _Head->_Right) { // remember rightmost node

  00067	8b 45 f8	 mov	 eax, DWORD PTR __Head$[ebp]
  0006a	8b 4d 08	 mov	 ecx, DWORD PTR __Loc$[ebp]
  0006d	3b 48 08	 cmp	 ecx, DWORD PTR [eax+8]
  00070	75 09		 jne	 SHORT $LN8@Insert_nod

; 661  :                 _Head->_Right = _Newnode;

  00072	8b 45 f8	 mov	 eax, DWORD PTR __Head$[ebp]
  00075	8b 4d 10	 mov	 ecx, DWORD PTR __Newnode$[ebp]
  00078	89 48 08	 mov	 DWORD PTR [eax+8], ecx
$LN8@Insert_nod:

; 662  :             }
; 663  :         } else { // add to left of _Loc._Parent

  0007b	eb 1a		 jmp	 SHORT $LN7@Insert_nod
$LN6@Insert_nod:

; 664  :             _STL_INTERNAL_CHECK(_Loc._Parent->_Left->_Isnil);
; 665  :             _Loc._Parent->_Left = _Newnode;

  0007d	8b 45 08	 mov	 eax, DWORD PTR __Loc$[ebp]
  00080	8b 4d 10	 mov	 ecx, DWORD PTR __Newnode$[ebp]
  00083	89 08		 mov	 DWORD PTR [eax], ecx

; 666  :             if (_Loc._Parent == _Head->_Left) { // remember leftmost node

  00085	8b 45 f8	 mov	 eax, DWORD PTR __Head$[ebp]
  00088	8b 4d 08	 mov	 ecx, DWORD PTR __Loc$[ebp]
  0008b	3b 08		 cmp	 ecx, DWORD PTR [eax]
  0008d	75 08		 jne	 SHORT $LN7@Insert_nod

; 667  :                 _Head->_Left = _Newnode;

  0008f	8b 45 f8	 mov	 eax, DWORD PTR __Head$[ebp]
  00092	8b 4d 10	 mov	 ecx, DWORD PTR __Newnode$[ebp]
  00095	89 08		 mov	 DWORD PTR [eax], ecx
$LN7@Insert_nod:

; 668  :             }
; 669  :         }
; 670  : 
; 671  :         for (_Nodeptr _Pnode = _Newnode; _Pnode->_Parent->_Color == _Red;) {

  00097	8b 45 10	 mov	 eax, DWORD PTR __Newnode$[ebp]
  0009a	89 45 fc	 mov	 DWORD PTR __Pnode$3[ebp], eax
$LN4@Insert_nod:
  0009d	8b 45 fc	 mov	 eax, DWORD PTR __Pnode$3[ebp]
  000a0	8b 40 04	 mov	 eax, DWORD PTR [eax+4]
  000a3	0f be 40 0c	 movsx	 eax, BYTE PTR [eax+12]
  000a7	85 c0		 test	 eax, eax
  000a9	0f 85 3f 01 00
	00		 jne	 $LN3@Insert_nod

; 672  :             if (_Pnode->_Parent == _Pnode->_Parent->_Parent->_Left) { // fixup red-red in left subtree

  000af	8b 45 fc	 mov	 eax, DWORD PTR __Pnode$3[ebp]
  000b2	8b 40 04	 mov	 eax, DWORD PTR [eax+4]
  000b5	8b 40 04	 mov	 eax, DWORD PTR [eax+4]
  000b8	8b 4d fc	 mov	 ecx, DWORD PTR __Pnode$3[ebp]
  000bb	8b 49 04	 mov	 ecx, DWORD PTR [ecx+4]
  000be	3b 08		 cmp	 ecx, DWORD PTR [eax]
  000c0	0f 85 95 00 00
	00		 jne	 $LN10@Insert_nod

; 673  :                 const auto _Parent_sibling = _Pnode->_Parent->_Parent->_Right;

  000c6	8b 45 fc	 mov	 eax, DWORD PTR __Pnode$3[ebp]
  000c9	8b 40 04	 mov	 eax, DWORD PTR [eax+4]
  000cc	8b 40 04	 mov	 eax, DWORD PTR [eax+4]
  000cf	8b 40 08	 mov	 eax, DWORD PTR [eax+8]
  000d2	89 45 f0	 mov	 DWORD PTR __Parent_sibling$2[ebp], eax

; 674  :                 if (_Parent_sibling->_Color == _Red) { // parent's sibling has two red children, blacken both

  000d5	8b 45 f0	 mov	 eax, DWORD PTR __Parent_sibling$2[ebp]
  000d8	0f be 40 0c	 movsx	 eax, BYTE PTR [eax+12]
  000dc	85 c0		 test	 eax, eax
  000de	75 2c		 jne	 SHORT $LN12@Insert_nod

; 675  :                     _Pnode->_Parent->_Color          = _Black;

  000e0	8b 45 fc	 mov	 eax, DWORD PTR __Pnode$3[ebp]
  000e3	8b 40 04	 mov	 eax, DWORD PTR [eax+4]
  000e6	c6 40 0c 01	 mov	 BYTE PTR [eax+12], 1

; 676  :                     _Parent_sibling->_Color          = _Black;

  000ea	8b 45 f0	 mov	 eax, DWORD PTR __Parent_sibling$2[ebp]
  000ed	c6 40 0c 01	 mov	 BYTE PTR [eax+12], 1

; 677  :                     _Pnode->_Parent->_Parent->_Color = _Red;

  000f1	8b 45 fc	 mov	 eax, DWORD PTR __Pnode$3[ebp]
  000f4	8b 40 04	 mov	 eax, DWORD PTR [eax+4]
  000f7	8b 40 04	 mov	 eax, DWORD PTR [eax+4]
  000fa	c6 40 0c 00	 mov	 BYTE PTR [eax+12], 0

; 678  :                     _Pnode                           = _Pnode->_Parent->_Parent;

  000fe	8b 45 fc	 mov	 eax, DWORD PTR __Pnode$3[ebp]
  00101	8b 40 04	 mov	 eax, DWORD PTR [eax+4]
  00104	8b 40 04	 mov	 eax, DWORD PTR [eax+4]
  00107	89 45 fc	 mov	 DWORD PTR __Pnode$3[ebp], eax

; 679  :                 } else { // parent's sibling has red and black children

  0010a	eb 4a		 jmp	 SHORT $LN13@Insert_nod
$LN12@Insert_nod:

; 680  :                     if (_Pnode == _Pnode->_Parent->_Right) { // rotate right child to left

  0010c	8b 45 fc	 mov	 eax, DWORD PTR __Pnode$3[ebp]
  0010f	8b 40 04	 mov	 eax, DWORD PTR [eax+4]
  00112	8b 4d fc	 mov	 ecx, DWORD PTR __Pnode$3[ebp]
  00115	3b 48 08	 cmp	 ecx, DWORD PTR [eax+8]
  00118	75 14		 jne	 SHORT $LN14@Insert_nod

; 681  :                         _Pnode = _Pnode->_Parent;

  0011a	8b 45 fc	 mov	 eax, DWORD PTR __Pnode$3[ebp]
  0011d	8b 40 04	 mov	 eax, DWORD PTR [eax+4]
  00120	89 45 fc	 mov	 DWORD PTR __Pnode$3[ebp], eax

; 682  :                         _Lrotate(_Pnode);

  00123	ff 75 fc	 push	 DWORD PTR __Pnode$3[ebp]
  00126	8b 4d f4	 mov	 ecx, DWORD PTR _this$[ebp]
  00129	e8 00 00 00 00	 call	 ?_Lrotate@?$_Tree_val@U?$_Tree_simple_types@U?$pair@$$CBV?$basic_string@DU?$char_traits@D@std@@V?$allocator@D@2@@std@@PAVCGraphicImageInstance@@@std@@@std@@@std@@QAEXPAU?$_Tree_node@U?$pair@$$CBV?$basic_string@DU?$char_traits@D@std@@V?$allocator@D@2@@std@@PAVCGraphicImageInstance@@@std@@PAX@2@@Z ; std::_Tree_val<std::_Tree_simple_types<std::pair<std::basic_string<char,std::char_traits<char>,std::allocator<char> > const ,CGraphicImageInstance *> > >::_Lrotate
$LN14@Insert_nod:

; 683  :                     }
; 684  : 
; 685  :                     _Pnode->_Parent->_Color          = _Black; // propagate red up

  0012e	8b 45 fc	 mov	 eax, DWORD PTR __Pnode$3[ebp]
  00131	8b 40 04	 mov	 eax, DWORD PTR [eax+4]
  00134	c6 40 0c 01	 mov	 BYTE PTR [eax+12], 1

; 686  :                     _Pnode->_Parent->_Parent->_Color = _Red;

  00138	8b 45 fc	 mov	 eax, DWORD PTR __Pnode$3[ebp]
  0013b	8b 40 04	 mov	 eax, DWORD PTR [eax+4]
  0013e	8b 40 04	 mov	 eax, DWORD PTR [eax+4]
  00141	c6 40 0c 00	 mov	 BYTE PTR [eax+12], 0

; 687  :                     _Rrotate(_Pnode->_Parent->_Parent);

  00145	8b 45 fc	 mov	 eax, DWORD PTR __Pnode$3[ebp]
  00148	8b 40 04	 mov	 eax, DWORD PTR [eax+4]
  0014b	ff 70 04	 push	 DWORD PTR [eax+4]
  0014e	8b 4d f4	 mov	 ecx, DWORD PTR _this$[ebp]
  00151	e8 00 00 00 00	 call	 ?_Rrotate@?$_Tree_val@U?$_Tree_simple_types@U?$pair@$$CBV?$basic_string@DU?$char_traits@D@std@@V?$allocator@D@2@@std@@PAVCGraphicImageInstance@@@std@@@std@@@std@@QAEXPAU?$_Tree_node@U?$pair@$$CBV?$basic_string@DU?$char_traits@D@std@@V?$allocator@D@2@@std@@PAVCGraphicImageInstance@@@std@@PAX@2@@Z ; std::_Tree_val<std::_Tree_simple_types<std::pair<std::basic_string<char,std::char_traits<char>,std::allocator<char> > const ,CGraphicImageInstance *> > >::_Rrotate
$LN13@Insert_nod:

; 688  :                 }
; 689  :             } else { // fixup red-red in right subtree

  00156	e9 8e 00 00 00	 jmp	 $LN11@Insert_nod
$LN10@Insert_nod:

; 690  :                 const auto _Parent_sibling = _Pnode->_Parent->_Parent->_Left;

  0015b	8b 45 fc	 mov	 eax, DWORD PTR __Pnode$3[ebp]
  0015e	8b 40 04	 mov	 eax, DWORD PTR [eax+4]
  00161	8b 40 04	 mov	 eax, DWORD PTR [eax+4]
  00164	8b 00		 mov	 eax, DWORD PTR [eax]
  00166	89 45 ec	 mov	 DWORD PTR __Parent_sibling$1[ebp], eax

; 691  :                 if (_Parent_sibling->_Color == _Red) { // parent's sibling has two red children, blacken both

  00169	8b 45 ec	 mov	 eax, DWORD PTR __Parent_sibling$1[ebp]
  0016c	0f be 40 0c	 movsx	 eax, BYTE PTR [eax+12]
  00170	85 c0		 test	 eax, eax
  00172	75 2c		 jne	 SHORT $LN15@Insert_nod

; 692  :                     _Pnode->_Parent->_Color          = _Black;

  00174	8b 45 fc	 mov	 eax, DWORD PTR __Pnode$3[ebp]
  00177	8b 40 04	 mov	 eax, DWORD PTR [eax+4]
  0017a	c6 40 0c 01	 mov	 BYTE PTR [eax+12], 1

; 693  :                     _Parent_sibling->_Color          = _Black;

  0017e	8b 45 ec	 mov	 eax, DWORD PTR __Parent_sibling$1[ebp]
  00181	c6 40 0c 01	 mov	 BYTE PTR [eax+12], 1

; 694  :                     _Pnode->_Parent->_Parent->_Color = _Red;

  00185	8b 45 fc	 mov	 eax, DWORD PTR __Pnode$3[ebp]
  00188	8b 40 04	 mov	 eax, DWORD PTR [eax+4]
  0018b	8b 40 04	 mov	 eax, DWORD PTR [eax+4]
  0018e	c6 40 0c 00	 mov	 BYTE PTR [eax+12], 0

; 695  :                     _Pnode                           = _Pnode->_Parent->_Parent;

  00192	8b 45 fc	 mov	 eax, DWORD PTR __Pnode$3[ebp]
  00195	8b 40 04	 mov	 eax, DWORD PTR [eax+4]
  00198	8b 40 04	 mov	 eax, DWORD PTR [eax+4]
  0019b	89 45 fc	 mov	 DWORD PTR __Pnode$3[ebp], eax

; 696  :                 } else { // parent's sibling has red and black children

  0019e	eb 49		 jmp	 SHORT $LN11@Insert_nod
$LN15@Insert_nod:

; 697  :                     if (_Pnode == _Pnode->_Parent->_Left) { // rotate left child to right

  001a0	8b 45 fc	 mov	 eax, DWORD PTR __Pnode$3[ebp]
  001a3	8b 40 04	 mov	 eax, DWORD PTR [eax+4]
  001a6	8b 4d fc	 mov	 ecx, DWORD PTR __Pnode$3[ebp]
  001a9	3b 08		 cmp	 ecx, DWORD PTR [eax]
  001ab	75 14		 jne	 SHORT $LN17@Insert_nod

; 698  :                         _Pnode = _Pnode->_Parent;

  001ad	8b 45 fc	 mov	 eax, DWORD PTR __Pnode$3[ebp]
  001b0	8b 40 04	 mov	 eax, DWORD PTR [eax+4]
  001b3	89 45 fc	 mov	 DWORD PTR __Pnode$3[ebp], eax

; 699  :                         _Rrotate(_Pnode);

  001b6	ff 75 fc	 push	 DWORD PTR __Pnode$3[ebp]
  001b9	8b 4d f4	 mov	 ecx, DWORD PTR _this$[ebp]
  001bc	e8 00 00 00 00	 call	 ?_Rrotate@?$_Tree_val@U?$_Tree_simple_types@U?$pair@$$CBV?$basic_string@DU?$char_traits@D@std@@V?$allocator@D@2@@std@@PAVCGraphicImageInstance@@@std@@@std@@@std@@QAEXPAU?$_Tree_node@U?$pair@$$CBV?$basic_string@DU?$char_traits@D@std@@V?$allocator@D@2@@std@@PAVCGraphicImageInstance@@@std@@PAX@2@@Z ; std::_Tree_val<std::_Tree_simple_types<std::pair<std::basic_string<char,std::char_traits<char>,std::allocator<char> > const ,CGraphicImageInstance *> > >::_Rrotate
$LN17@Insert_nod:

; 700  :                     }
; 701  : 
; 702  :                     _Pnode->_Parent->_Color          = _Black; // propagate red up

  001c1	8b 45 fc	 mov	 eax, DWORD PTR __Pnode$3[ebp]
  001c4	8b 40 04	 mov	 eax, DWORD PTR [eax+4]
  001c7	c6 40 0c 01	 mov	 BYTE PTR [eax+12], 1

; 703  :                     _Pnode->_Parent->_Parent->_Color = _Red;

  001cb	8b 45 fc	 mov	 eax, DWORD PTR __Pnode$3[ebp]
  001ce	8b 40 04	 mov	 eax, DWORD PTR [eax+4]
  001d1	8b 40 04	 mov	 eax, DWORD PTR [eax+4]
  001d4	c6 40 0c 00	 mov	 BYTE PTR [eax+12], 0

; 704  :                     _Lrotate(_Pnode->_Parent->_Parent);

  001d8	8b 45 fc	 mov	 eax, DWORD PTR __Pnode$3[ebp]
  001db	8b 40 04	 mov	 eax, DWORD PTR [eax+4]
  001de	ff 70 04	 push	 DWORD PTR [eax+4]
  001e1	8b 4d f4	 mov	 ecx, DWORD PTR _this$[ebp]
  001e4	e8 00 00 00 00	 call	 ?_Lrotate@?$_Tree_val@U?$_Tree_simple_types@U?$pair@$$CBV?$basic_string@DU?$char_traits@D@std@@V?$allocator@D@2@@std@@PAVCGraphicImageInstance@@@std@@@std@@@std@@QAEXPAU?$_Tree_node@U?$pair@$$CBV?$basic_string@DU?$char_traits@D@std@@V?$allocator@D@2@@std@@PAVCGraphicImageInstance@@@std@@PAX@2@@Z ; std::_Tree_val<std::_Tree_simple_types<std::pair<std::basic_string<char,std::char_traits<char>,std::allocator<char> > const ,CGraphicImageInstance *> > >::_Lrotate
$LN11@Insert_nod:

; 705  :                 }
; 706  :             }
; 707  :         }

  001e9	e9 af fe ff ff	 jmp	 $LN4@Insert_nod
$LN3@Insert_nod:

; 708  : 
; 709  :         _Head->_Parent->_Color = _Black; // root is always black

  001ee	8b 45 f8	 mov	 eax, DWORD PTR __Head$[ebp]
  001f1	8b 40 04	 mov	 eax, DWORD PTR [eax+4]
  001f4	c6 40 0c 01	 mov	 BYTE PTR [eax+12], 1

; 710  :         return _Newnode;

  001f8	8b 45 10	 mov	 eax, DWORD PTR __Newnode$[ebp]
$LN18@Insert_nod:

; 711  :     }

  001fb	c9		 leave
  001fc	c2 0c 00	 ret	 12			; 0000000cH
?_Insert_node@?$_Tree_val@U?$_Tree_simple_types@U?$pair@$$CBV?$basic_string@DU?$char_traits@D@std@@V?$allocator@D@2@@std@@PAVCGraphicImageInstance@@@std@@@std@@@std@@QAEPAU?$_Tree_node@U?$pair@$$CBV?$basic_string@DU?$char_traits@D@std@@V?$allocator@D@2@@std@@PAVCGraphicImageInstance@@@std@@PAX@2@U?$_Tree_id@PAU?$_Tree_node@U?$pair@$$CBV?$basic_string@DU?$char_traits@D@std@@V?$allocator@D@2@@std@@PAVCGraphicImageInstance@@@std@@PAX@std@@@2@QAU32@@Z ENDP ; std::_Tree_val<std::_Tree_simple_types<std::pair<std::basic_string<char,std::char_traits<char>,std::allocator<char> > const ,CGraphicImageInstance *> > >::_Insert_node
_TEXT	ENDS
; Function compile flags: /Odspy
; File C:\Program Files (x86)\Microsoft Visual Studio\2019\Community\VC\Tools\MSVC\14.28.29333\include\xtree
;	COMDAT ?_Rrotate@?$_Tree_val@U?$_Tree_simple_types@U?$pair@$$CBV?$basic_string@DU?$char_traits@D@std@@V?$allocator@D@2@@std@@PAVCGraphicImageInstance@@@std@@@std@@@std@@QAEXPAU?$_Tree_node@U?$pair@$$CBV?$basic_string@DU?$char_traits@D@std@@V?$allocator@D@2@@std@@PAVCGraphicImageInstance@@@std@@PAX@2@@Z
_TEXT	SEGMENT
_this$ = -8						; size = 4
__Pnode$ = -4						; size = 4
__Wherenode$ = 8					; size = 4
?_Rrotate@?$_Tree_val@U?$_Tree_simple_types@U?$pair@$$CBV?$basic_string@DU?$char_traits@D@std@@V?$allocator@D@2@@std@@PAVCGraphicImageInstance@@@std@@@std@@@std@@QAEXPAU?$_Tree_node@U?$pair@$$CBV?$basic_string@DU?$char_traits@D@std@@V?$allocator@D@2@@std@@PAVCGraphicImageInstance@@@std@@PAX@2@@Z PROC ; std::_Tree_val<std::_Tree_simple_types<std::pair<std::basic_string<char,std::char_traits<char>,std::allocator<char> > const ,CGraphicImageInstance *> > >::_Rrotate, COMDAT
; _this$ = ecx

; 480  :     void _Rrotate(_Nodeptr _Wherenode) noexcept { // promote left node to root of subtree

  00000	55		 push	 ebp
  00001	8b ec		 mov	 ebp, esp
  00003	51		 push	 ecx
  00004	51		 push	 ecx
  00005	89 4d f8	 mov	 DWORD PTR _this$[ebp], ecx

; 481  :         _Nodeptr _Pnode   = _Wherenode->_Left;

  00008	8b 45 08	 mov	 eax, DWORD PTR __Wherenode$[ebp]
  0000b	8b 00		 mov	 eax, DWORD PTR [eax]
  0000d	89 45 fc	 mov	 DWORD PTR __Pnode$[ebp], eax

; 482  :         _Wherenode->_Left = _Pnode->_Right;

  00010	8b 45 08	 mov	 eax, DWORD PTR __Wherenode$[ebp]
  00013	8b 4d fc	 mov	 ecx, DWORD PTR __Pnode$[ebp]
  00016	8b 49 08	 mov	 ecx, DWORD PTR [ecx+8]
  00019	89 08		 mov	 DWORD PTR [eax], ecx

; 483  : 
; 484  :         if (!_Pnode->_Right->_Isnil) {

  0001b	8b 45 fc	 mov	 eax, DWORD PTR __Pnode$[ebp]
  0001e	8b 40 08	 mov	 eax, DWORD PTR [eax+8]
  00021	0f be 40 0d	 movsx	 eax, BYTE PTR [eax+13]
  00025	85 c0		 test	 eax, eax
  00027	75 0c		 jne	 SHORT $LN2@Rrotate

; 485  :             _Pnode->_Right->_Parent = _Wherenode;

  00029	8b 45 fc	 mov	 eax, DWORD PTR __Pnode$[ebp]
  0002c	8b 40 08	 mov	 eax, DWORD PTR [eax+8]
  0002f	8b 4d 08	 mov	 ecx, DWORD PTR __Wherenode$[ebp]
  00032	89 48 04	 mov	 DWORD PTR [eax+4], ecx
$LN2@Rrotate:

; 486  :         }
; 487  : 
; 488  :         _Pnode->_Parent = _Wherenode->_Parent;

  00035	8b 45 fc	 mov	 eax, DWORD PTR __Pnode$[ebp]
  00038	8b 4d 08	 mov	 ecx, DWORD PTR __Wherenode$[ebp]
  0003b	8b 49 04	 mov	 ecx, DWORD PTR [ecx+4]
  0003e	89 48 04	 mov	 DWORD PTR [eax+4], ecx

; 489  : 
; 490  :         if (_Wherenode == _Myhead->_Parent) {

  00041	8b 45 f8	 mov	 eax, DWORD PTR _this$[ebp]
  00044	8b 00		 mov	 eax, DWORD PTR [eax]
  00046	8b 4d 08	 mov	 ecx, DWORD PTR __Wherenode$[ebp]
  00049	3b 48 04	 cmp	 ecx, DWORD PTR [eax+4]
  0004c	75 0d		 jne	 SHORT $LN3@Rrotate

; 491  :             _Myhead->_Parent = _Pnode;

  0004e	8b 45 f8	 mov	 eax, DWORD PTR _this$[ebp]
  00051	8b 00		 mov	 eax, DWORD PTR [eax]
  00053	8b 4d fc	 mov	 ecx, DWORD PTR __Pnode$[ebp]
  00056	89 48 04	 mov	 DWORD PTR [eax+4], ecx
  00059	eb 27		 jmp	 SHORT $LN4@Rrotate
$LN3@Rrotate:

; 492  :         } else if (_Wherenode == _Wherenode->_Parent->_Right) {

  0005b	8b 45 08	 mov	 eax, DWORD PTR __Wherenode$[ebp]
  0005e	8b 40 04	 mov	 eax, DWORD PTR [eax+4]
  00061	8b 4d 08	 mov	 ecx, DWORD PTR __Wherenode$[ebp]
  00064	3b 48 08	 cmp	 ecx, DWORD PTR [eax+8]
  00067	75 0e		 jne	 SHORT $LN5@Rrotate

; 493  :             _Wherenode->_Parent->_Right = _Pnode;

  00069	8b 45 08	 mov	 eax, DWORD PTR __Wherenode$[ebp]
  0006c	8b 40 04	 mov	 eax, DWORD PTR [eax+4]
  0006f	8b 4d fc	 mov	 ecx, DWORD PTR __Pnode$[ebp]
  00072	89 48 08	 mov	 DWORD PTR [eax+8], ecx

; 494  :         } else {

  00075	eb 0b		 jmp	 SHORT $LN4@Rrotate
$LN5@Rrotate:

; 495  :             _Wherenode->_Parent->_Left = _Pnode;

  00077	8b 45 08	 mov	 eax, DWORD PTR __Wherenode$[ebp]
  0007a	8b 40 04	 mov	 eax, DWORD PTR [eax+4]
  0007d	8b 4d fc	 mov	 ecx, DWORD PTR __Pnode$[ebp]
  00080	89 08		 mov	 DWORD PTR [eax], ecx
$LN4@Rrotate:

; 496  :         }
; 497  : 
; 498  :         _Pnode->_Right      = _Wherenode;

  00082	8b 45 fc	 mov	 eax, DWORD PTR __Pnode$[ebp]
  00085	8b 4d 08	 mov	 ecx, DWORD PTR __Wherenode$[ebp]
  00088	89 48 08	 mov	 DWORD PTR [eax+8], ecx

; 499  :         _Wherenode->_Parent = _Pnode;

  0008b	8b 45 08	 mov	 eax, DWORD PTR __Wherenode$[ebp]
  0008e	8b 4d fc	 mov	 ecx, DWORD PTR __Pnode$[ebp]
  00091	89 48 04	 mov	 DWORD PTR [eax+4], ecx

; 500  :     }

  00094	c9		 leave
  00095	c2 04 00	 ret	 4
?_Rrotate@?$_Tree_val@U?$_Tree_simple_types@U?$pair@$$CBV?$basic_string@DU?$char_traits@D@std@@V?$allocator@D@2@@std@@PAVCGraphicImageInstance@@@std@@@std@@@std@@QAEXPAU?$_Tree_node@U?$pair@$$CBV?$basic_string@DU?$char_traits@D@std@@V?$allocator@D@2@@std@@PAVCGraphicImageInstance@@@std@@PAX@2@@Z ENDP ; std::_Tree_val<std::_Tree_simple_types<std::pair<std::basic_string<char,std::char_traits<char>,std::allocator<char> > const ,CGraphicImageInstance *> > >::_Rrotate
_TEXT	ENDS
; Function compile flags: /Odspy
; File C:\Program Files (x86)\Microsoft Visual Studio\2019\Community\VC\Tools\MSVC\14.28.29333\include\xtree
;	COMDAT ?_Lrotate@?$_Tree_val@U?$_Tree_simple_types@U?$pair@$$CBV?$basic_string@DU?$char_traits@D@std@@V?$allocator@D@2@@std@@PAVCGraphicImageInstance@@@std@@@std@@@std@@QAEXPAU?$_Tree_node@U?$pair@$$CBV?$basic_string@DU?$char_traits@D@std@@V?$allocator@D@2@@std@@PAVCGraphicImageInstance@@@std@@PAX@2@@Z
_TEXT	SEGMENT
_this$ = -8						; size = 4
__Pnode$ = -4						; size = 4
__Wherenode$ = 8					; size = 4
?_Lrotate@?$_Tree_val@U?$_Tree_simple_types@U?$pair@$$CBV?$basic_string@DU?$char_traits@D@std@@V?$allocator@D@2@@std@@PAVCGraphicImageInstance@@@std@@@std@@@std@@QAEXPAU?$_Tree_node@U?$pair@$$CBV?$basic_string@DU?$char_traits@D@std@@V?$allocator@D@2@@std@@PAVCGraphicImageInstance@@@std@@PAX@2@@Z PROC ; std::_Tree_val<std::_Tree_simple_types<std::pair<std::basic_string<char,std::char_traits<char>,std::allocator<char> > const ,CGraphicImageInstance *> > >::_Lrotate, COMDAT
; _this$ = ecx

; 458  :     void _Lrotate(_Nodeptr _Wherenode) noexcept { // promote right node to root of subtree

  00000	55		 push	 ebp
  00001	8b ec		 mov	 ebp, esp
  00003	51		 push	 ecx
  00004	51		 push	 ecx
  00005	89 4d f8	 mov	 DWORD PTR _this$[ebp], ecx

; 459  :         _Nodeptr _Pnode    = _Wherenode->_Right;

  00008	8b 45 08	 mov	 eax, DWORD PTR __Wherenode$[ebp]
  0000b	8b 40 08	 mov	 eax, DWORD PTR [eax+8]
  0000e	89 45 fc	 mov	 DWORD PTR __Pnode$[ebp], eax

; 460  :         _Wherenode->_Right = _Pnode->_Left;

  00011	8b 45 08	 mov	 eax, DWORD PTR __Wherenode$[ebp]
  00014	8b 4d fc	 mov	 ecx, DWORD PTR __Pnode$[ebp]
  00017	8b 09		 mov	 ecx, DWORD PTR [ecx]
  00019	89 48 08	 mov	 DWORD PTR [eax+8], ecx

; 461  : 
; 462  :         if (!_Pnode->_Left->_Isnil) {

  0001c	8b 45 fc	 mov	 eax, DWORD PTR __Pnode$[ebp]
  0001f	8b 00		 mov	 eax, DWORD PTR [eax]
  00021	0f be 40 0d	 movsx	 eax, BYTE PTR [eax+13]
  00025	85 c0		 test	 eax, eax
  00027	75 0b		 jne	 SHORT $LN2@Lrotate

; 463  :             _Pnode->_Left->_Parent = _Wherenode;

  00029	8b 45 fc	 mov	 eax, DWORD PTR __Pnode$[ebp]
  0002c	8b 00		 mov	 eax, DWORD PTR [eax]
  0002e	8b 4d 08	 mov	 ecx, DWORD PTR __Wherenode$[ebp]
  00031	89 48 04	 mov	 DWORD PTR [eax+4], ecx
$LN2@Lrotate:

; 464  :         }
; 465  : 
; 466  :         _Pnode->_Parent = _Wherenode->_Parent;

  00034	8b 45 fc	 mov	 eax, DWORD PTR __Pnode$[ebp]
  00037	8b 4d 08	 mov	 ecx, DWORD PTR __Wherenode$[ebp]
  0003a	8b 49 04	 mov	 ecx, DWORD PTR [ecx+4]
  0003d	89 48 04	 mov	 DWORD PTR [eax+4], ecx

; 467  : 
; 468  :         if (_Wherenode == _Myhead->_Parent) {

  00040	8b 45 f8	 mov	 eax, DWORD PTR _this$[ebp]
  00043	8b 00		 mov	 eax, DWORD PTR [eax]
  00045	8b 4d 08	 mov	 ecx, DWORD PTR __Wherenode$[ebp]
  00048	3b 48 04	 cmp	 ecx, DWORD PTR [eax+4]
  0004b	75 0d		 jne	 SHORT $LN3@Lrotate

; 469  :             _Myhead->_Parent = _Pnode;

  0004d	8b 45 f8	 mov	 eax, DWORD PTR _this$[ebp]
  00050	8b 00		 mov	 eax, DWORD PTR [eax]
  00052	8b 4d fc	 mov	 ecx, DWORD PTR __Pnode$[ebp]
  00055	89 48 04	 mov	 DWORD PTR [eax+4], ecx
  00058	eb 26		 jmp	 SHORT $LN4@Lrotate
$LN3@Lrotate:

; 470  :         } else if (_Wherenode == _Wherenode->_Parent->_Left) {

  0005a	8b 45 08	 mov	 eax, DWORD PTR __Wherenode$[ebp]
  0005d	8b 40 04	 mov	 eax, DWORD PTR [eax+4]
  00060	8b 4d 08	 mov	 ecx, DWORD PTR __Wherenode$[ebp]
  00063	3b 08		 cmp	 ecx, DWORD PTR [eax]
  00065	75 0d		 jne	 SHORT $LN5@Lrotate

; 471  :             _Wherenode->_Parent->_Left = _Pnode;

  00067	8b 45 08	 mov	 eax, DWORD PTR __Wherenode$[ebp]
  0006a	8b 40 04	 mov	 eax, DWORD PTR [eax+4]
  0006d	8b 4d fc	 mov	 ecx, DWORD PTR __Pnode$[ebp]
  00070	89 08		 mov	 DWORD PTR [eax], ecx

; 472  :         } else {

  00072	eb 0c		 jmp	 SHORT $LN4@Lrotate
$LN5@Lrotate:

; 473  :             _Wherenode->_Parent->_Right = _Pnode;

  00074	8b 45 08	 mov	 eax, DWORD PTR __Wherenode$[ebp]
  00077	8b 40 04	 mov	 eax, DWORD PTR [eax+4]
  0007a	8b 4d fc	 mov	 ecx, DWORD PTR __Pnode$[ebp]
  0007d	89 48 08	 mov	 DWORD PTR [eax+8], ecx
$LN4@Lrotate:

; 474  :         }
; 475  : 
; 476  :         _Pnode->_Left       = _Wherenode;

  00080	8b 45 fc	 mov	 eax, DWORD PTR __Pnode$[ebp]
  00083	8b 4d 08	 mov	 ecx, DWORD PTR __Wherenode$[ebp]
  00086	89 08		 mov	 DWORD PTR [eax], ecx

; 477  :         _Wherenode->_Parent = _Pnode;

  00088	8b 45 08	 mov	 eax, DWORD PTR __Wherenode$[ebp]
  0008b	8b 4d fc	 mov	 ecx, DWORD PTR __Pnode$[ebp]
  0008e	89 48 04	 mov	 DWORD PTR [eax+4], ecx

; 478  :     }

  00091	c9		 leave
  00092	c2 04 00	 ret	 4
?_Lrotate@?$_Tree_val@U?$_Tree_simple_types@U?$pair@$$CBV?$basic_string@DU?$char_traits@D@std@@V?$allocator@D@2@@std@@PAVCGraphicImageInstance@@@std@@@std@@@std@@QAEXPAU?$_Tree_node@U?$pair@$$CBV?$basic_string@DU?$char_traits@D@std@@V?$allocator@D@2@@std@@PAVCGraphicImageInstance@@@std@@PAX@2@@Z ENDP ; std::_Tree_val<std::_Tree_simple_types<std::pair<std::basic_string<char,std::char_traits<char>,std::allocator<char> > const ,CGraphicImageInstance *> > >::_Lrotate
_TEXT	ENDS
; Function compile flags: /Odspy
; File C:\Program Files (x86)\Microsoft Visual Studio\2019\Community\VC\Tools\MSVC\14.28.29333\include\xtree
; File C:\Program Files (x86)\Microsoft Visual Studio\2019\Community\VC\Tools\MSVC\14.28.29333\include\xstddef
; File C:\Program Files (x86)\Microsoft Visual Studio\2019\Community\VC\Tools\MSVC\14.28.29333\include\xtree
; File C:\Program Files (x86)\Microsoft Visual Studio\2019\Community\VC\Tools\MSVC\14.28.29333\include\xmemory
; File C:\Program Files (x86)\Microsoft Visual Studio\2019\Community\VC\Tools\MSVC\14.28.29333\include\xtree
;	COMDAT ?_Alloc_sentinel_and_proxy@?$_Tree@V?$_Tmap_traits@V?$basic_string@DU?$char_traits@D@std@@V?$allocator@D@2@@std@@PAVCGraphicImageInstance@@U?$less@V?$basic_string@DU?$char_traits@D@std@@V?$allocator@D@2@@std@@@2@V?$allocator@U?$pair@$$CBV?$basic_string@DU?$char_traits@D@std@@V?$allocator@D@2@@std@@PAVCGraphicImageInstance@@@std@@@2@$0A@@std@@@std@@IAEXXZ
_TEXT	SEGMENT
__Alproxy$ = -28					; size = 4
__Scary$ = -24						; size = 4
$T1 = -20						; size = 4
$T2 = -16						; size = 4
$T3 = -12						; size = 4
_this$ = -8						; size = 4
_$S12$ = -1						; size = 1
?_Alloc_sentinel_and_proxy@?$_Tree@V?$_Tmap_traits@V?$basic_string@DU?$char_traits@D@std@@V?$allocator@D@2@@std@@PAVCGraphicImageInstance@@U?$less@V?$basic_string@DU?$char_traits@D@std@@V?$allocator@D@2@@std@@@2@V?$allocator@U?$pair@$$CBV?$basic_string@DU?$char_traits@D@std@@V?$allocator@D@2@@std@@PAVCGraphicImageInstance@@@std@@@2@$0A@@std@@@std@@IAEXXZ PROC ; std::_Tree<std::_Tmap_traits<std::basic_string<char,std::char_traits<char>,std::allocator<char> >,CGraphicImageInstance *,std::less<std::basic_string<char,std::char_traits<char>,std::allocator<char> > >,std::allocator<std::pair<std::basic_string<char,std::char_traits<char>,std::allocator<char> > const ,CGraphicImageInstance *> >,0> >::_Alloc_sentinel_and_proxy, COMDAT
; _this$ = ecx

; 2017 :     void _Alloc_sentinel_and_proxy() {

  00000	55		 push	 ebp
  00001	8b ec		 mov	 ebp, esp
  00003	83 ec 1c	 sub	 esp, 28			; 0000001cH
  00006	89 4d f8	 mov	 DWORD PTR _this$[ebp], ecx

; 2047 :         return _STD addressof(_Mypair._Myval2._Myval2);

  00009	8b 45 f8	 mov	 eax, DWORD PTR _this$[ebp]
; File C:\Program Files (x86)\Microsoft Visual Studio\2019\Community\VC\Tools\MSVC\14.28.29333\include\xstddef

; 275  :     return __builtin_addressof(_Val);

  0000c	89 45 f4	 mov	 DWORD PTR $T3[ebp], eax
; File C:\Program Files (x86)\Microsoft Visual Studio\2019\Community\VC\Tools\MSVC\14.28.29333\include\xtree

; 2047 :         return _STD addressof(_Mypair._Myval2._Myval2);

  0000f	8b 45 f4	 mov	 eax, DWORD PTR $T3[ebp]
  00012	89 45 e8	 mov	 DWORD PTR __Scary$[ebp], eax

; 2018 :         const auto _Scary = _Get_scary();
; 2019 :         auto&& _Alproxy   = _GET_PROXY_ALLOCATOR(_Alnode, _Getal());

  00015	8d 45 ff	 lea	 eax, DWORD PTR _$S12$[ebp]
  00018	89 45 e4	 mov	 DWORD PTR __Alproxy$[ebp], eax

; 2039 :         return _Mypair._Myval2._Get_first();

  0001b	8b 45 f8	 mov	 eax, DWORD PTR _this$[ebp]
; File C:\Program Files (x86)\Microsoft Visual Studio\2019\Community\VC\Tools\MSVC\14.28.29333\include\xmemory

; 1347 :         return *this;

  0001e	89 45 f0	 mov	 DWORD PTR $T2[ebp], eax
; File C:\Program Files (x86)\Microsoft Visual Studio\2019\Community\VC\Tools\MSVC\14.28.29333\include\xtree

; 2039 :         return _Mypair._Myval2._Get_first();

  00021	8b 45 f0	 mov	 eax, DWORD PTR $T2[ebp]
  00024	89 45 ec	 mov	 DWORD PTR $T1[ebp], eax

; 2020 :         _Container_proxy_ptr<_Alnode> _Proxy(_Alproxy, *_Scary);
; 2021 :         _Scary->_Myhead = _Node::_Buyheadnode(_Getal());

  00027	ff 75 ec	 push	 DWORD PTR $T1[ebp]
  0002a	e8 00 00 00 00	 call	 ??$_Buyheadnode@V?$allocator@U?$_Tree_node@U?$pair@$$CBV?$basic_string@DU?$char_traits@D@std@@V?$allocator@D@2@@std@@PAVCGraphicImageInstance@@@std@@PAX@std@@@std@@@?$_Tree_node@U?$pair@$$CBV?$basic_string@DU?$char_traits@D@std@@V?$allocator@D@2@@std@@PAVCGraphicImageInstance@@@std@@PAX@std@@SAPAU01@AAV?$allocator@U?$_Tree_node@U?$pair@$$CBV?$basic_string@DU?$char_traits@D@std@@V?$allocator@D@2@@std@@PAVCGraphicImageInstance@@@std@@PAX@std@@@1@@Z ; std::_Tree_node<std::pair<std::basic_string<char,std::char_traits<char>,std::allocator<char> > const ,CGraphicImageInstance *>,void *>::_Buyheadnode<std::allocator<std::_Tree_node<std::pair<std::basic_string<char,std::char_traits<char>,std::allocator<char> > const ,CGraphicImageInstance *>,void *> > >
  0002f	59		 pop	 ecx
  00030	8b 4d e8	 mov	 ecx, DWORD PTR __Scary$[ebp]
  00033	89 01		 mov	 DWORD PTR [ecx], eax

; 2022 :         _Proxy._Release();
; 2023 :     }

  00035	c9		 leave
  00036	c3		 ret	 0
?_Alloc_sentinel_and_proxy@?$_Tree@V?$_Tmap_traits@V?$basic_string@DU?$char_traits@D@std@@V?$allocator@D@2@@std@@PAVCGraphicImageInstance@@U?$less@V?$basic_string@DU?$char_traits@D@std@@V?$allocator@D@2@@std@@@2@V?$allocator@U?$pair@$$CBV?$basic_string@DU?$char_traits@D@std@@V?$allocator@D@2@@std@@PAVCGraphicImageInstance@@@std@@@2@$0A@@std@@@std@@IAEXXZ ENDP ; std::_Tree<std::_Tmap_traits<std::basic_string<char,std::char_traits<char>,std::allocator<char> >,CGraphicImageInstance *,std::less<std::basic_string<char,std::char_traits<char>,std::allocator<char> > >,std::allocator<std::pair<std::basic_string<char,std::char_traits<char>,std::allocator<char> > const ,CGraphicImageInstance *> >,0> >::_Alloc_sentinel_and_proxy
_TEXT	ENDS
; Function compile flags: /Odspy
; File C:\Program Files (x86)\Microsoft Visual Studio\2019\Community\VC\Tools\MSVC\14.28.29333\include\xtree
; File C:\Program Files (x86)\Microsoft Visual Studio\2019\Community\VC\Tools\MSVC\14.28.29333\include\xstddef
; File C:\Program Files (x86)\Microsoft Visual Studio\2019\Community\VC\Tools\MSVC\14.28.29333\include\xtree
;	COMDAT ?_Check_grow_by_1@?$_Tree@V?$_Tmap_traits@V?$basic_string@DU?$char_traits@D@std@@V?$allocator@D@2@@std@@PAVCGraphicImageInstance@@U?$less@V?$basic_string@DU?$char_traits@D@std@@V?$allocator@D@2@@std@@@2@V?$allocator@U?$pair@$$CBV?$basic_string@DU?$char_traits@D@std@@V?$allocator@D@2@@std@@PAVCGraphicImageInstance@@@std@@@2@$0A@@std@@@std@@IAEXXZ
_TEXT	SEGMENT
$T1 = -12						; size = 4
$T2 = -8						; size = 4
_this$ = -4						; size = 4
?_Check_grow_by_1@?$_Tree@V?$_Tmap_traits@V?$basic_string@DU?$char_traits@D@std@@V?$allocator@D@2@@std@@PAVCGraphicImageInstance@@U?$less@V?$basic_string@DU?$char_traits@D@std@@V?$allocator@D@2@@std@@@2@V?$allocator@U?$pair@$$CBV?$basic_string@DU?$char_traits@D@std@@V?$allocator@D@2@@std@@PAVCGraphicImageInstance@@@std@@@2@$0A@@std@@@std@@IAEXXZ PROC ; std::_Tree<std::_Tmap_traits<std::basic_string<char,std::char_traits<char>,std::allocator<char> >,CGraphicImageInstance *,std::less<std::basic_string<char,std::char_traits<char>,std::allocator<char> > >,std::allocator<std::pair<std::basic_string<char,std::char_traits<char>,std::allocator<char> > const ,CGraphicImageInstance *> >,0> >::_Check_grow_by_1, COMDAT
; _this$ = ecx

; 1718 :     void _Check_grow_by_1() {

  00000	55		 push	 ebp
  00001	8b ec		 mov	 ebp, esp
  00003	83 ec 0c	 sub	 esp, 12			; 0000000cH
  00006	89 4d fc	 mov	 DWORD PTR _this$[ebp], ecx

; 2047 :         return _STD addressof(_Mypair._Myval2._Myval2);

  00009	8b 45 fc	 mov	 eax, DWORD PTR _this$[ebp]
; File C:\Program Files (x86)\Microsoft Visual Studio\2019\Community\VC\Tools\MSVC\14.28.29333\include\xstddef

; 275  :     return __builtin_addressof(_Val);

  0000c	89 45 f8	 mov	 DWORD PTR $T2[ebp], eax
; File C:\Program Files (x86)\Microsoft Visual Studio\2019\Community\VC\Tools\MSVC\14.28.29333\include\xtree

; 2047 :         return _STD addressof(_Mypair._Myval2._Myval2);

  0000f	8b 45 f8	 mov	 eax, DWORD PTR $T2[ebp]
  00012	89 45 f4	 mov	 DWORD PTR $T1[ebp], eax

; 1719 :         if (max_size() == _Get_scary()->_Mysize) {

  00015	8b 4d fc	 mov	 ecx, DWORD PTR _this$[ebp]
  00018	e8 00 00 00 00	 call	 ?max_size@?$_Tree@V?$_Tmap_traits@V?$basic_string@DU?$char_traits@D@std@@V?$allocator@D@2@@std@@PAVCGraphicImageInstance@@U?$less@V?$basic_string@DU?$char_traits@D@std@@V?$allocator@D@2@@std@@@2@V?$allocator@U?$pair@$$CBV?$basic_string@DU?$char_traits@D@std@@V?$allocator@D@2@@std@@PAVCGraphicImageInstance@@@std@@@2@$0A@@std@@@std@@QBEIXZ ; std::_Tree<std::_Tmap_traits<std::basic_string<char,std::char_traits<char>,std::allocator<char> >,CGraphicImageInstance *,std::less<std::basic_string<char,std::char_traits<char>,std::allocator<char> > >,std::allocator<std::pair<std::basic_string<char,std::char_traits<char>,std::allocator<char> > const ,CGraphicImageInstance *> >,0> >::max_size
  0001d	8b 4d f4	 mov	 ecx, DWORD PTR $T1[ebp]
  00020	3b 41 04	 cmp	 eax, DWORD PTR [ecx+4]
  00023	75 05		 jne	 SHORT $LN3@Check_grow

; 1720 :             _Throw_tree_length_error();

  00025	e8 00 00 00 00	 call	 ?_Throw_tree_length_error@std@@YAXXZ ; std::_Throw_tree_length_error
$LN3@Check_grow:

; 1721 :         }
; 1722 :     }

  0002a	c9		 leave
  0002b	c3		 ret	 0
?_Check_grow_by_1@?$_Tree@V?$_Tmap_traits@V?$basic_string@DU?$char_traits@D@std@@V?$allocator@D@2@@std@@PAVCGraphicImageInstance@@U?$less@V?$basic_string@DU?$char_traits@D@std@@V?$allocator@D@2@@std@@@2@V?$allocator@U?$pair@$$CBV?$basic_string@DU?$char_traits@D@std@@V?$allocator@D@2@@std@@PAVCGraphicImageInstance@@@std@@@2@$0A@@std@@@std@@IAEXXZ ENDP ; std::_Tree<std::_Tmap_traits<std::basic_string<char,std::char_traits<char>,std::allocator<char> >,CGraphicImageInstance *,std::less<std::basic_string<char,std::char_traits<char>,std::allocator<char> > >,std::allocator<std::pair<std::basic_string<char,std::char_traits<char>,std::allocator<char> > const ,CGraphicImageInstance *> >,0> >::_Check_grow_by_1
_TEXT	ENDS
; Function compile flags: /Odspy
; File C:\Program Files (x86)\Microsoft Visual Studio\2019\Community\VC\Tools\MSVC\14.28.29333\include\xtree
; File C:\Program Files (x86)\Microsoft Visual Studio\2019\Community\VC\Tools\MSVC\14.28.29333\include\xstddef
; File C:\Program Files (x86)\Microsoft Visual Studio\2019\Community\VC\Tools\MSVC\14.28.29333\include\xtree
;	COMDAT ?find@?$_Tree@V?$_Tmap_traits@V?$basic_string@DU?$char_traits@D@std@@V?$allocator@D@2@@std@@PAVCGraphicImageInstance@@U?$less@V?$basic_string@DU?$char_traits@D@std@@V?$allocator@D@2@@std@@@2@V?$allocator@U?$pair@$$CBV?$basic_string@DU?$char_traits@D@std@@V?$allocator@D@2@@std@@PAVCGraphicImageInstance@@@std@@@2@$0A@@std@@@std@@QAE?AV?$_Tree_iterator@V?$_Tree_val@U?$_Tree_simple_types@U?$pair@$$CBV?$basic_string@DU?$char_traits@D@std@@V?$allocator@D@2@@std@@PAVCGraphicImageInstance@@@std@@@std@@@std@@@2@ABV?$basic_string@DU?$char_traits@D@std@@V?$allocator@D@2@@2@@Z
_TEXT	SEGMENT
$T1 = -16						; size = 4
___param0$ = -12					; size = 4
$T2 = -8						; size = 4
_this$ = -4						; size = 4
___$ReturnUdt$ = 8					; size = 4
__Keyval$ = 12						; size = 4
?find@?$_Tree@V?$_Tmap_traits@V?$basic_string@DU?$char_traits@D@std@@V?$allocator@D@2@@std@@PAVCGraphicImageInstance@@U?$less@V?$basic_string@DU?$char_traits@D@std@@V?$allocator@D@2@@std@@@2@V?$allocator@U?$pair@$$CBV?$basic_string@DU?$char_traits@D@std@@V?$allocator@D@2@@std@@PAVCGraphicImageInstance@@@std@@@2@$0A@@std@@@std@@QAE?AV?$_Tree_iterator@V?$_Tree_val@U?$_Tree_simple_types@U?$pair@$$CBV?$basic_string@DU?$char_traits@D@std@@V?$allocator@D@2@@std@@PAVCGraphicImageInstance@@@std@@@std@@@std@@@2@ABV?$basic_string@DU?$char_traits@D@std@@V?$allocator@D@2@@2@@Z PROC ; std::_Tree<std::_Tmap_traits<std::basic_string<char,std::char_traits<char>,std::allocator<char> >,CGraphicImageInstance *,std::less<std::basic_string<char,std::char_traits<char>,std::allocator<char> > >,std::allocator<std::pair<std::basic_string<char,std::char_traits<char>,std::allocator<char> > const ,CGraphicImageInstance *> >,0> >::find, COMDAT
; _this$ = ecx

; 1467 :     _NODISCARD iterator find(const key_type& _Keyval) {

  00000	55		 push	 ebp
  00001	8b ec		 mov	 ebp, esp
  00003	83 ec 10	 sub	 esp, 16			; 00000010H
  00006	89 4d fc	 mov	 DWORD PTR _this$[ebp], ecx

; 2047 :         return _STD addressof(_Mypair._Myval2._Myval2);

  00009	8b 45 fc	 mov	 eax, DWORD PTR _this$[ebp]
; File C:\Program Files (x86)\Microsoft Visual Studio\2019\Community\VC\Tools\MSVC\14.28.29333\include\xstddef

; 275  :     return __builtin_addressof(_Val);

  0000c	89 45 f8	 mov	 DWORD PTR $T2[ebp], eax
; File C:\Program Files (x86)\Microsoft Visual Studio\2019\Community\VC\Tools\MSVC\14.28.29333\include\xtree

; 2047 :         return _STD addressof(_Mypair._Myval2._Myval2);

  0000f	8b 45 f8	 mov	 eax, DWORD PTR $T2[ebp]
  00012	89 45 f0	 mov	 DWORD PTR $T1[ebp], eax

; 1468 :         return iterator(_Find(_Keyval), _Get_scary());

  00015	ff 75 0c	 push	 DWORD PTR __Keyval$[ebp]
  00018	8b 4d fc	 mov	 ecx, DWORD PTR _this$[ebp]
  0001b	e8 00 00 00 00	 call	 ??$_Find@V?$basic_string@DU?$char_traits@D@std@@V?$allocator@D@2@@std@@@?$_Tree@V?$_Tmap_traits@V?$basic_string@DU?$char_traits@D@std@@V?$allocator@D@2@@std@@PAVCGraphicImageInstance@@U?$less@V?$basic_string@DU?$char_traits@D@std@@V?$allocator@D@2@@std@@@2@V?$allocator@U?$pair@$$CBV?$basic_string@DU?$char_traits@D@std@@V?$allocator@D@2@@std@@PAVCGraphicImageInstance@@@std@@@2@$0A@@std@@@std@@ABEPAU?$_Tree_node@U?$pair@$$CBV?$basic_string@DU?$char_traits@D@std@@V?$allocator@D@2@@std@@PAVCGraphicImageInstance@@@std@@PAX@1@ABV?$basic_string@DU?$char_traits@D@std@@V?$allocator@D@2@@1@@Z ; std::_Tree<std::_Tmap_traits<std::basic_string<char,std::char_traits<char>,std::allocator<char> >,CGraphicImageInstance *,std::less<std::basic_string<char,std::char_traits<char>,std::allocator<char> > >,std::allocator<std::pair<std::basic_string<char,std::char_traits<char>,std::allocator<char> > const ,CGraphicImageInstance *> >,0> >::_Find<std::basic_string<char,std::char_traits<char>,std::allocator<char> > >
  00020	89 45 f4	 mov	 DWORD PTR ___param0$[ebp], eax

; 39   :     _Tree_unchecked_const_iterator(_Nodeptr _Pnode, const _Mytree* _Plist) noexcept : _Ptr(_Pnode) {

  00023	8b 45 08	 mov	 eax, DWORD PTR ___$ReturnUdt$[ebp]
  00026	8b 4d f4	 mov	 ecx, DWORD PTR ___param0$[ebp]
  00029	89 08		 mov	 DWORD PTR [eax], ecx

; 1468 :         return iterator(_Find(_Keyval), _Get_scary());

  0002b	8b 45 08	 mov	 eax, DWORD PTR ___$ReturnUdt$[ebp]

; 1469 :     }

  0002e	c9		 leave
  0002f	c2 08 00	 ret	 8
?find@?$_Tree@V?$_Tmap_traits@V?$basic_string@DU?$char_traits@D@std@@V?$allocator@D@2@@std@@PAVCGraphicImageInstance@@U?$less@V?$basic_string@DU?$char_traits@D@std@@V?$allocator@D@2@@std@@@2@V?$allocator@U?$pair@$$CBV?$basic_string@DU?$char_traits@D@std@@V?$allocator@D@2@@std@@PAVCGraphicImageInstance@@@std@@@2@$0A@@std@@@std@@QAE?AV?$_Tree_iterator@V?$_Tree_val@U?$_Tree_simple_types@U?$pair@$$CBV?$basic_string@DU?$char_traits@D@std@@V?$allocator@D@2@@std@@PAVCGraphicImageInstance@@@std@@@std@@@std@@@2@ABV?$basic_string@DU?$char_traits@D@std@@V?$allocator@D@2@@2@@Z ENDP ; std::_Tree<std::_Tmap_traits<std::basic_string<char,std::char_traits<char>,std::allocator<char> >,CGraphicImageInstance *,std::less<std::basic_string<char,std::char_traits<char>,std::allocator<char> > >,std::allocator<std::pair<std::basic_string<char,std::char_traits<char>,std::allocator<char> > const ,CGraphicImageInstance *> >,0> >::find
_TEXT	ENDS
; Function compile flags: /Odspy
; File C:\Program Files (x86)\Microsoft Visual Studio\2019\Community\VC\Tools\MSVC\14.28.29333\include\xtree
; File C:\Program Files (x86)\Microsoft Visual Studio\2019\Community\VC\Tools\MSVC\14.28.29333\include\xstddef
; File C:\Program Files (x86)\Microsoft Visual Studio\2019\Community\VC\Tools\MSVC\14.28.29333\include\xtree
; File C:\Program Files (x86)\Microsoft Visual Studio\2019\Community\VC\Tools\MSVC\14.28.29333\include\xmemory
; File C:\Program Files (x86)\Microsoft Visual Studio\2019\Community\VC\Tools\MSVC\14.28.29333\include\xtree
;	COMDAT ?clear@?$_Tree@V?$_Tmap_traits@V?$basic_string@DU?$char_traits@D@std@@V?$allocator@D@2@@std@@PAVCGraphicImageInstance@@U?$less@V?$basic_string@DU?$char_traits@D@std@@V?$allocator@D@2@@std@@@2@V?$allocator@U?$pair@$$CBV?$basic_string@DU?$char_traits@D@std@@V?$allocator@D@2@@std@@PAVCGraphicImageInstance@@@std@@@2@$0A@@std@@@std@@QAEXXZ
_TEXT	SEGMENT
$T1 = -24						; size = 4
$T2 = -20						; size = 4
$T3 = -16						; size = 4
_this$ = -12						; size = 4
__Scary$ = -8						; size = 4
__Head$ = -4						; size = 4
?clear@?$_Tree@V?$_Tmap_traits@V?$basic_string@DU?$char_traits@D@std@@V?$allocator@D@2@@std@@PAVCGraphicImageInstance@@U?$less@V?$basic_string@DU?$char_traits@D@std@@V?$allocator@D@2@@std@@@2@V?$allocator@U?$pair@$$CBV?$basic_string@DU?$char_traits@D@std@@V?$allocator@D@2@@std@@PAVCGraphicImageInstance@@@std@@@2@$0A@@std@@@std@@QAEXXZ PROC ; std::_Tree<std::_Tmap_traits<std::basic_string<char,std::char_traits<char>,std::allocator<char> >,CGraphicImageInstance *,std::less<std::basic_string<char,std::char_traits<char>,std::allocator<char> > >,std::allocator<std::pair<std::basic_string<char,std::char_traits<char>,std::allocator<char> > const ,CGraphicImageInstance *> >,0> >::clear, COMDAT
; _this$ = ecx

; 1444 :     void clear() noexcept {

  00000	55		 push	 ebp
  00001	8b ec		 mov	 ebp, esp
  00003	83 ec 18	 sub	 esp, 24			; 00000018H
  00006	89 4d f4	 mov	 DWORD PTR _this$[ebp], ecx

; 2047 :         return _STD addressof(_Mypair._Myval2._Myval2);

  00009	8b 45 f4	 mov	 eax, DWORD PTR _this$[ebp]
; File C:\Program Files (x86)\Microsoft Visual Studio\2019\Community\VC\Tools\MSVC\14.28.29333\include\xstddef

; 275  :     return __builtin_addressof(_Val);

  0000c	89 45 f0	 mov	 DWORD PTR $T3[ebp], eax
; File C:\Program Files (x86)\Microsoft Visual Studio\2019\Community\VC\Tools\MSVC\14.28.29333\include\xtree

; 2047 :         return _STD addressof(_Mypair._Myval2._Myval2);

  0000f	8b 45 f0	 mov	 eax, DWORD PTR $T3[ebp]
  00012	89 45 f8	 mov	 DWORD PTR __Scary$[ebp], eax

; 1445 :         const auto _Scary = _Get_scary();
; 1446 :         _Scary->_Orphan_ptr(nullptr);
; 1447 :         auto _Head = _Scary->_Myhead;

  00015	8b 45 f8	 mov	 eax, DWORD PTR __Scary$[ebp]
  00018	8b 00		 mov	 eax, DWORD PTR [eax]
  0001a	89 45 fc	 mov	 DWORD PTR __Head$[ebp], eax

; 2039 :         return _Mypair._Myval2._Get_first();

  0001d	8b 45 f4	 mov	 eax, DWORD PTR _this$[ebp]
; File C:\Program Files (x86)\Microsoft Visual Studio\2019\Community\VC\Tools\MSVC\14.28.29333\include\xmemory

; 1347 :         return *this;

  00020	89 45 ec	 mov	 DWORD PTR $T2[ebp], eax
; File C:\Program Files (x86)\Microsoft Visual Studio\2019\Community\VC\Tools\MSVC\14.28.29333\include\xtree

; 2039 :         return _Mypair._Myval2._Get_first();

  00023	8b 45 ec	 mov	 eax, DWORD PTR $T2[ebp]
  00026	89 45 e8	 mov	 DWORD PTR $T1[ebp], eax

; 1448 :         _Scary->_Erase_tree(_Getal(), _Head->_Parent);

  00029	8b 45 fc	 mov	 eax, DWORD PTR __Head$[ebp]
  0002c	ff 70 04	 push	 DWORD PTR [eax+4]
  0002f	ff 75 e8	 push	 DWORD PTR $T1[ebp]
  00032	8b 4d f8	 mov	 ecx, DWORD PTR __Scary$[ebp]
  00035	e8 00 00 00 00	 call	 ??$_Erase_tree@V?$allocator@U?$_Tree_node@U?$pair@$$CBV?$basic_string@DU?$char_traits@D@std@@V?$allocator@D@2@@std@@PAVCGraphicImageInstance@@@std@@PAX@std@@@std@@@?$_Tree_val@U?$_Tree_simple_types@U?$pair@$$CBV?$basic_string@DU?$char_traits@D@std@@V?$allocator@D@2@@std@@PAVCGraphicImageInstance@@@std@@@std@@@std@@QAEXAAV?$allocator@U?$_Tree_node@U?$pair@$$CBV?$basic_string@DU?$char_traits@D@std@@V?$allocator@D@2@@std@@PAVCGraphicImageInstance@@@std@@PAX@std@@@1@PAU?$_Tree_node@U?$pair@$$CBV?$basic_string@DU?$char_traits@D@std@@V?$allocator@D@2@@std@@PAVCGraphicImageInstance@@@std@@PAX@1@@Z ; std::_Tree_val<std::_Tree_simple_types<std::pair<std::basic_string<char,std::char_traits<char>,std::allocator<char> > const ,CGraphicImageInstance *> > >::_Erase_tree<std::allocator<std::_Tree_node<std::pair<std::basic_string<char,std::char_traits<char>,std::allocator<char> > const ,CGraphicImageInstance *>,void *> > >

; 1449 :         _Head->_Parent  = _Head;

  0003a	8b 45 fc	 mov	 eax, DWORD PTR __Head$[ebp]
  0003d	8b 4d fc	 mov	 ecx, DWORD PTR __Head$[ebp]
  00040	89 48 04	 mov	 DWORD PTR [eax+4], ecx

; 1450 :         _Head->_Left    = _Head;

  00043	8b 45 fc	 mov	 eax, DWORD PTR __Head$[ebp]
  00046	8b 4d fc	 mov	 ecx, DWORD PTR __Head$[ebp]
  00049	89 08		 mov	 DWORD PTR [eax], ecx

; 1451 :         _Head->_Right   = _Head;

  0004b	8b 45 fc	 mov	 eax, DWORD PTR __Head$[ebp]
  0004e	8b 4d fc	 mov	 ecx, DWORD PTR __Head$[ebp]
  00051	89 48 08	 mov	 DWORD PTR [eax+8], ecx

; 1452 :         _Scary->_Mysize = 0;

  00054	8b 45 f8	 mov	 eax, DWORD PTR __Scary$[ebp]
  00057	83 60 04 00	 and	 DWORD PTR [eax+4], 0

; 1453 :     }

  0005b	c9		 leave
  0005c	c3		 ret	 0
?clear@?$_Tree@V?$_Tmap_traits@V?$basic_string@DU?$char_traits@D@std@@V?$allocator@D@2@@std@@PAVCGraphicImageInstance@@U?$less@V?$basic_string@DU?$char_traits@D@std@@V?$allocator@D@2@@std@@@2@V?$allocator@U?$pair@$$CBV?$basic_string@DU?$char_traits@D@std@@V?$allocator@D@2@@std@@PAVCGraphicImageInstance@@@std@@@2@$0A@@std@@@std@@QAEXXZ ENDP ; std::_Tree<std::_Tmap_traits<std::basic_string<char,std::char_traits<char>,std::allocator<char> >,CGraphicImageInstance *,std::less<std::basic_string<char,std::char_traits<char>,std::allocator<char> > >,std::allocator<std::pair<std::basic_string<char,std::char_traits<char>,std::allocator<char> > const ,CGraphicImageInstance *> >,0> >::clear
_TEXT	ENDS
; Function compile flags: /Odspy
; File C:\Program Files (x86)\Microsoft Visual Studio\2019\Community\VC\Tools\MSVC\14.28.29333\include\xtree
; File C:\Program Files (x86)\Microsoft Visual Studio\2019\Community\VC\Tools\MSVC\14.28.29333\include\xmemory
; File C:\Program Files (x86)\Microsoft Visual Studio\2019\Community\VC\Tools\MSVC\14.28.29333\include\xtree
; File C:\Program Files (x86)\Microsoft Visual Studio\2019\Community\VC\Tools\MSVC\14.28.29333\include\xmemory
; File C:\Program Files (x86)\Microsoft Visual Studio\2019\Community\VC\Tools\MSVC\14.28.29333\include\limits
; File C:\Program Files (x86)\Microsoft Visual Studio\2019\Community\VC\Tools\MSVC\14.28.29333\include\xtree
; File C:\Program Files (x86)\Microsoft Visual Studio\2019\Community\VC\Tools\MSVC\14.28.29333\include\utility
; File C:\Program Files (x86)\Microsoft Visual Studio\2019\Community\VC\Tools\MSVC\14.28.29333\include\xtree
;	COMDAT ?max_size@?$_Tree@V?$_Tmap_traits@V?$basic_string@DU?$char_traits@D@std@@V?$allocator@D@2@@std@@PAVCGraphicImageInstance@@U?$less@V?$basic_string@DU?$char_traits@D@std@@V?$allocator@D@2@@std@@@2@V?$allocator@U?$pair@$$CBV?$basic_string@DU?$char_traits@D@std@@V?$allocator@D@2@@std@@PAVCGraphicImageInstance@@@std@@@2@$0A@@std@@@std@@QBEIXZ
_TEXT	SEGMENT
$T1 = -36						; size = 4
$T2 = -32						; size = 4
$T3 = -28						; size = 4
$T4 = -24						; size = 4
$T5 = -20						; size = 4
_this$ = -16						; size = 4
tv68 = -12						; size = 4
$T6 = -8						; size = 4
$T7 = -4						; size = 4
?max_size@?$_Tree@V?$_Tmap_traits@V?$basic_string@DU?$char_traits@D@std@@V?$allocator@D@2@@std@@PAVCGraphicImageInstance@@U?$less@V?$basic_string@DU?$char_traits@D@std@@V?$allocator@D@2@@std@@@2@V?$allocator@U?$pair@$$CBV?$basic_string@DU?$char_traits@D@std@@V?$allocator@D@2@@std@@PAVCGraphicImageInstance@@@std@@@2@$0A@@std@@@std@@QBEIXZ PROC ; std::_Tree<std::_Tmap_traits<std::basic_string<char,std::char_traits<char>,std::allocator<char> >,CGraphicImageInstance *,std::less<std::basic_string<char,std::char_traits<char>,std::allocator<char> > >,std::allocator<std::pair<std::basic_string<char,std::char_traits<char>,std::allocator<char> > const ,CGraphicImageInstance *> >,0> >::max_size, COMDAT
; _this$ = ecx

; 1310 :     _NODISCARD size_type max_size() const noexcept {

  00000	55		 push	 ebp
  00001	8b ec		 mov	 ebp, esp
  00003	83 ec 24	 sub	 esp, 36			; 00000024H
  00006	89 4d f0	 mov	 DWORD PTR _this$[ebp], ecx

; 2043 :         return _Mypair._Myval2._Get_first();

  00009	8b 45 f0	 mov	 eax, DWORD PTR _this$[ebp]
; File C:\Program Files (x86)\Microsoft Visual Studio\2019\Community\VC\Tools\MSVC\14.28.29333\include\xmemory

; 1351 :         return *this;

  0000c	89 45 ec	 mov	 DWORD PTR $T5[ebp], eax
; File C:\Program Files (x86)\Microsoft Visual Studio\2019\Community\VC\Tools\MSVC\14.28.29333\include\xtree

; 2043 :         return _Mypair._Myval2._Get_first();

  0000f	8b 45 ec	 mov	 eax, DWORD PTR $T5[ebp]
  00012	89 45 dc	 mov	 DWORD PTR $T1[ebp], eax
; File C:\Program Files (x86)\Microsoft Visual Studio\2019\Community\VC\Tools\MSVC\14.28.29333\include\xmemory

; 710  :         return static_cast<size_t>(-1) / sizeof(value_type);

  00015	c7 45 fc 5d 74
	d1 05		 mov	 DWORD PTR $T7[ebp], 97612893 ; 05d1745dH
; File C:\Program Files (x86)\Microsoft Visual Studio\2019\Community\VC\Tools\MSVC\14.28.29333\include\limits

; 557  :         return INT_MAX;

  0001c	c7 45 e8 ff ff
	ff 7f		 mov	 DWORD PTR $T4[ebp], 2147483647 ; 7fffffffH
; File C:\Program Files (x86)\Microsoft Visual Studio\2019\Community\VC\Tools\MSVC\14.28.29333\include\xtree

; 1311 :         return (_STD min)(

  00023	8b 45 e8	 mov	 eax, DWORD PTR $T4[ebp]
  00026	89 45 f8	 mov	 DWORD PTR $T6[ebp], eax
; File C:\Program Files (x86)\Microsoft Visual Studio\2019\Community\VC\Tools\MSVC\14.28.29333\include\utility

; 68   :     return _Right < _Left ? _Right : _Left;

  00029	8b 45 fc	 mov	 eax, DWORD PTR $T7[ebp]
  0002c	3b 45 f8	 cmp	 eax, DWORD PTR $T6[ebp]
  0002f	73 08		 jae	 SHORT $LN17@max_size
  00031	8d 45 fc	 lea	 eax, DWORD PTR $T7[ebp]
  00034	89 45 f4	 mov	 DWORD PTR tv68[ebp], eax
  00037	eb 06		 jmp	 SHORT $LN18@max_size
$LN17@max_size:
  00039	8d 45 f8	 lea	 eax, DWORD PTR $T6[ebp]
  0003c	89 45 f4	 mov	 DWORD PTR tv68[ebp], eax
$LN18@max_size:
  0003f	8b 45 f4	 mov	 eax, DWORD PTR tv68[ebp]
  00042	89 45 e4	 mov	 DWORD PTR $T3[ebp], eax
  00045	8b 45 e4	 mov	 eax, DWORD PTR $T3[ebp]
  00048	89 45 e0	 mov	 DWORD PTR $T2[ebp], eax
; File C:\Program Files (x86)\Microsoft Visual Studio\2019\Community\VC\Tools\MSVC\14.28.29333\include\xtree

; 1311 :         return (_STD min)(

  0004b	8b 45 e0	 mov	 eax, DWORD PTR $T2[ebp]
  0004e	8b 00		 mov	 eax, DWORD PTR [eax]

; 1312 :             static_cast<size_type>((numeric_limits<difference_type>::max)()), _Alnode_traits::max_size(_Getal()));
; 1313 :     }

  00050	c9		 leave
  00051	c3		 ret	 0
?max_size@?$_Tree@V?$_Tmap_traits@V?$basic_string@DU?$char_traits@D@std@@V?$allocator@D@2@@std@@PAVCGraphicImageInstance@@U?$less@V?$basic_string@DU?$char_traits@D@std@@V?$allocator@D@2@@std@@@2@V?$allocator@U?$pair@$$CBV?$basic_string@DU?$char_traits@D@std@@V?$allocator@D@2@@std@@PAVCGraphicImageInstance@@@std@@@2@$0A@@std@@@std@@QBEIXZ ENDP ; std::_Tree<std::_Tmap_traits<std::basic_string<char,std::char_traits<char>,std::allocator<char> >,CGraphicImageInstance *,std::less<std::basic_string<char,std::char_traits<char>,std::allocator<char> > >,std::allocator<std::pair<std::basic_string<char,std::char_traits<char>,std::allocator<char> > const ,CGraphicImageInstance *> >,0> >::max_size
_TEXT	ENDS
; Function compile flags: /Odspy
; File C:\Program Files (x86)\Microsoft Visual Studio\2019\Community\VC\Tools\MSVC\14.28.29333\include\xtree
; File C:\Program Files (x86)\Microsoft Visual Studio\2019\Community\VC\Tools\MSVC\14.28.29333\include\xstddef
; File C:\Program Files (x86)\Microsoft Visual Studio\2019\Community\VC\Tools\MSVC\14.28.29333\include\xtree
;	COMDAT ?begin@?$_Tree@V?$_Tmap_traits@V?$basic_string@DU?$char_traits@D@std@@V?$allocator@D@2@@std@@PAVCGraphicImageInstance@@U?$less@V?$basic_string@DU?$char_traits@D@std@@V?$allocator@D@2@@std@@@2@V?$allocator@U?$pair@$$CBV?$basic_string@DU?$char_traits@D@std@@V?$allocator@D@2@@std@@PAVCGraphicImageInstance@@@std@@@2@$0A@@std@@@std@@QAE?AV?$_Tree_iterator@V?$_Tree_val@U?$_Tree_simple_types@U?$pair@$$CBV?$basic_string@DU?$char_traits@D@std@@V?$allocator@D@2@@std@@PAVCGraphicImageInstance@@@std@@@std@@@std@@@2@XZ
_TEXT	SEGMENT
___param0$ = -16					; size = 4
__Scary$ = -12						; size = 4
$T1 = -8						; size = 4
_this$ = -4						; size = 4
___$ReturnUdt$ = 8					; size = 4
?begin@?$_Tree@V?$_Tmap_traits@V?$basic_string@DU?$char_traits@D@std@@V?$allocator@D@2@@std@@PAVCGraphicImageInstance@@U?$less@V?$basic_string@DU?$char_traits@D@std@@V?$allocator@D@2@@std@@@2@V?$allocator@U?$pair@$$CBV?$basic_string@DU?$char_traits@D@std@@V?$allocator@D@2@@std@@PAVCGraphicImageInstance@@@std@@@2@$0A@@std@@@std@@QAE?AV?$_Tree_iterator@V?$_Tree_val@U?$_Tree_simple_types@U?$pair@$$CBV?$basic_string@DU?$char_traits@D@std@@V?$allocator@D@2@@std@@PAVCGraphicImageInstance@@@std@@@std@@@std@@@2@XZ PROC ; std::_Tree<std::_Tmap_traits<std::basic_string<char,std::char_traits<char>,std::allocator<char> >,CGraphicImageInstance *,std::less<std::basic_string<char,std::char_traits<char>,std::allocator<char> > >,std::allocator<std::pair<std::basic_string<char,std::char_traits<char>,std::allocator<char> > const ,CGraphicImageInstance *> >,0> >::begin, COMDAT
; _this$ = ecx

; 1238 :     _NODISCARD iterator begin() noexcept {

  00000	55		 push	 ebp
  00001	8b ec		 mov	 ebp, esp
  00003	83 ec 10	 sub	 esp, 16			; 00000010H
  00006	89 4d fc	 mov	 DWORD PTR _this$[ebp], ecx

; 2047 :         return _STD addressof(_Mypair._Myval2._Myval2);

  00009	8b 45 fc	 mov	 eax, DWORD PTR _this$[ebp]
; File C:\Program Files (x86)\Microsoft Visual Studio\2019\Community\VC\Tools\MSVC\14.28.29333\include\xstddef

; 275  :     return __builtin_addressof(_Val);

  0000c	89 45 f8	 mov	 DWORD PTR $T1[ebp], eax
; File C:\Program Files (x86)\Microsoft Visual Studio\2019\Community\VC\Tools\MSVC\14.28.29333\include\xtree

; 2047 :         return _STD addressof(_Mypair._Myval2._Myval2);

  0000f	8b 45 f8	 mov	 eax, DWORD PTR $T1[ebp]
  00012	89 45 f4	 mov	 DWORD PTR __Scary$[ebp], eax

; 1239 :         const auto _Scary = _Get_scary();
; 1240 :         return iterator(_Scary->_Myhead->_Left, _Scary);

  00015	8b 45 f4	 mov	 eax, DWORD PTR __Scary$[ebp]
  00018	8b 00		 mov	 eax, DWORD PTR [eax]
  0001a	8b 00		 mov	 eax, DWORD PTR [eax]
  0001c	89 45 f0	 mov	 DWORD PTR ___param0$[ebp], eax

; 39   :     _Tree_unchecked_const_iterator(_Nodeptr _Pnode, const _Mytree* _Plist) noexcept : _Ptr(_Pnode) {

  0001f	8b 45 08	 mov	 eax, DWORD PTR ___$ReturnUdt$[ebp]
  00022	8b 4d f0	 mov	 ecx, DWORD PTR ___param0$[ebp]
  00025	89 08		 mov	 DWORD PTR [eax], ecx

; 1239 :         const auto _Scary = _Get_scary();
; 1240 :         return iterator(_Scary->_Myhead->_Left, _Scary);

  00027	8b 45 08	 mov	 eax, DWORD PTR ___$ReturnUdt$[ebp]

; 1241 :     }

  0002a	c9		 leave
  0002b	c2 04 00	 ret	 4
?begin@?$_Tree@V?$_Tmap_traits@V?$basic_string@DU?$char_traits@D@std@@V?$allocator@D@2@@std@@PAVCGraphicImageInstance@@U?$less@V?$basic_string@DU?$char_traits@D@std@@V?$allocator@D@2@@std@@@2@V?$allocator@U?$pair@$$CBV?$basic_string@DU?$char_traits@D@std@@V?$allocator@D@2@@std@@PAVCGraphicImageInstance@@@std@@@2@$0A@@std@@@std@@QAE?AV?$_Tree_iterator@V?$_Tree_val@U?$_Tree_simple_types@U?$pair@$$CBV?$basic_string@DU?$char_traits@D@std@@V?$allocator@D@2@@std@@PAVCGraphicImageInstance@@@std@@@std@@@std@@@2@XZ ENDP ; std::_Tree<std::_Tmap_traits<std::basic_string<char,std::char_traits<char>,std::allocator<char> >,CGraphicImageInstance *,std::less<std::basic_string<char,std::char_traits<char>,std::allocator<char> > >,std::allocator<std::pair<std::basic_string<char,std::char_traits<char>,std::allocator<char> > const ,CGraphicImageInstance *> >,0> >::begin
_TEXT	ENDS
; Function compile flags: /Odspy
; File C:\Program Files (x86)\Microsoft Visual Studio\2019\Community\VC\Tools\MSVC\14.28.29333\include\xtree
; File C:\Program Files (x86)\Microsoft Visual Studio\2019\Community\VC\Tools\MSVC\14.28.29333\include\xstddef
; File C:\Program Files (x86)\Microsoft Visual Studio\2019\Community\VC\Tools\MSVC\14.28.29333\include\xtree
; File C:\Program Files (x86)\Microsoft Visual Studio\2019\Community\VC\Tools\MSVC\14.28.29333\include\xmemory
; File C:\Program Files (x86)\Microsoft Visual Studio\2019\Community\VC\Tools\MSVC\14.28.29333\include\xtree
;	COMDAT ??1?$_Tree@V?$_Tmap_traits@V?$basic_string@DU?$char_traits@D@std@@V?$allocator@D@2@@std@@PAVCGraphicImageInstance@@U?$less@V?$basic_string@DU?$char_traits@D@std@@V?$allocator@D@2@@std@@@2@V?$allocator@U?$pair@$$CBV?$basic_string@DU?$char_traits@D@std@@V?$allocator@D@2@@std@@PAVCGraphicImageInstance@@@std@@@2@$0A@@std@@@std@@QAE@XZ
_TEXT	SEGMENT
$T1 = -20						; size = 4
$T2 = -16						; size = 4
$T3 = -12						; size = 4
_this$ = -8						; size = 4
__Scary$ = -4						; size = 4
??1?$_Tree@V?$_Tmap_traits@V?$basic_string@DU?$char_traits@D@std@@V?$allocator@D@2@@std@@PAVCGraphicImageInstance@@U?$less@V?$basic_string@DU?$char_traits@D@std@@V?$allocator@D@2@@std@@@2@V?$allocator@U?$pair@$$CBV?$basic_string@DU?$char_traits@D@std@@V?$allocator@D@2@@std@@PAVCGraphicImageInstance@@@std@@@2@$0A@@std@@@std@@QAE@XZ PROC ; std::_Tree<std::_Tmap_traits<std::basic_string<char,std::char_traits<char>,std::allocator<char> >,CGraphicImageInstance *,std::less<std::basic_string<char,std::char_traits<char>,std::allocator<char> > >,std::allocator<std::pair<std::basic_string<char,std::char_traits<char>,std::allocator<char> > const ,CGraphicImageInstance *> >,0> >::~_Tree<std::_Tmap_traits<std::basic_string<char,std::char_traits<char>,std::allocator<char> >,CGraphicImageInstance *,std::less<std::basic_string<char,std::char_traits<char>,std::allocator<char> > >,std::allocator<std::pair<std::basic_string<char,std::char_traits<char>,std::allocator<char> > const ,CGraphicImageInstance *> >,0> >, COMDAT
; _this$ = ecx

; 1189 :     ~_Tree() noexcept {

  00000	55		 push	 ebp
  00001	8b ec		 mov	 ebp, esp
  00003	83 ec 14	 sub	 esp, 20			; 00000014H
  00006	89 4d f8	 mov	 DWORD PTR _this$[ebp], ecx

; 2047 :         return _STD addressof(_Mypair._Myval2._Myval2);

  00009	8b 45 f8	 mov	 eax, DWORD PTR _this$[ebp]
; File C:\Program Files (x86)\Microsoft Visual Studio\2019\Community\VC\Tools\MSVC\14.28.29333\include\xstddef

; 275  :     return __builtin_addressof(_Val);

  0000c	89 45 f0	 mov	 DWORD PTR $T2[ebp], eax
; File C:\Program Files (x86)\Microsoft Visual Studio\2019\Community\VC\Tools\MSVC\14.28.29333\include\xtree

; 2047 :         return _STD addressof(_Mypair._Myval2._Myval2);

  0000f	8b 45 f0	 mov	 eax, DWORD PTR $T2[ebp]
  00012	89 45 fc	 mov	 DWORD PTR __Scary$[ebp], eax

; 2039 :         return _Mypair._Myval2._Get_first();

  00015	8b 45 f8	 mov	 eax, DWORD PTR _this$[ebp]
; File C:\Program Files (x86)\Microsoft Visual Studio\2019\Community\VC\Tools\MSVC\14.28.29333\include\xmemory

; 1347 :         return *this;

  00018	89 45 ec	 mov	 DWORD PTR $T1[ebp], eax
; File C:\Program Files (x86)\Microsoft Visual Studio\2019\Community\VC\Tools\MSVC\14.28.29333\include\xtree

; 2039 :         return _Mypair._Myval2._Get_first();

  0001b	8b 45 ec	 mov	 eax, DWORD PTR $T1[ebp]
  0001e	89 45 f4	 mov	 DWORD PTR $T3[ebp], eax

; 752  :         _Erase_tree(_Al, _Myhead->_Parent);

  00021	8b 45 fc	 mov	 eax, DWORD PTR __Scary$[ebp]
  00024	8b 00		 mov	 eax, DWORD PTR [eax]
  00026	ff 70 04	 push	 DWORD PTR [eax+4]
  00029	ff 75 f4	 push	 DWORD PTR $T3[ebp]
  0002c	8b 4d fc	 mov	 ecx, DWORD PTR __Scary$[ebp]
  0002f	e8 00 00 00 00	 call	 ??$_Erase_tree@V?$allocator@U?$_Tree_node@U?$pair@$$CBV?$basic_string@DU?$char_traits@D@std@@V?$allocator@D@2@@std@@PAVCGraphicImageInstance@@@std@@PAX@std@@@std@@@?$_Tree_val@U?$_Tree_simple_types@U?$pair@$$CBV?$basic_string@DU?$char_traits@D@std@@V?$allocator@D@2@@std@@PAVCGraphicImageInstance@@@std@@@std@@@std@@QAEXAAV?$allocator@U?$_Tree_node@U?$pair@$$CBV?$basic_string@DU?$char_traits@D@std@@V?$allocator@D@2@@std@@PAVCGraphicImageInstance@@@std@@PAX@std@@@1@PAU?$_Tree_node@U?$pair@$$CBV?$basic_string@DU?$char_traits@D@std@@V?$allocator@D@2@@std@@PAVCGraphicImageInstance@@@std@@PAX@1@@Z ; std::_Tree_val<std::_Tree_simple_types<std::pair<std::basic_string<char,std::char_traits<char>,std::allocator<char> > const ,CGraphicImageInstance *> > >::_Erase_tree<std::allocator<std::_Tree_node<std::pair<std::basic_string<char,std::char_traits<char>,std::allocator<char> > const ,CGraphicImageInstance *>,void *> > >

; 753  :         _Alnode::value_type::_Freenode0(_Al, _Myhead);

  00034	8b 45 fc	 mov	 eax, DWORD PTR __Scary$[ebp]
  00037	ff 30		 push	 DWORD PTR [eax]
  00039	ff 75 f4	 push	 DWORD PTR $T3[ebp]
  0003c	e8 00 00 00 00	 call	 ??$_Freenode0@V?$allocator@U?$_Tree_node@U?$pair@$$CBV?$basic_string@DU?$char_traits@D@std@@V?$allocator@D@2@@std@@PAVCGraphicImageInstance@@@std@@PAX@std@@@std@@@?$_Tree_node@U?$pair@$$CBV?$basic_string@DU?$char_traits@D@std@@V?$allocator@D@2@@std@@PAVCGraphicImageInstance@@@std@@PAX@std@@SAXAAV?$allocator@U?$_Tree_node@U?$pair@$$CBV?$basic_string@DU?$char_traits@D@std@@V?$allocator@D@2@@std@@PAVCGraphicImageInstance@@@std@@PAX@std@@@1@PAU01@@Z ; std::_Tree_node<std::pair<std::basic_string<char,std::char_traits<char>,std::allocator<char> > const ,CGraphicImageInstance *>,void *>::_Freenode0<std::allocator<std::_Tree_node<std::pair<std::basic_string<char,std::char_traits<char>,std::allocator<char> > const ,CGraphicImageInstance *>,void *> > >
  00041	59		 pop	 ecx
  00042	59		 pop	 ecx

; 1190 :         const auto _Scary = _Get_scary();
; 1191 :         _Scary->_Erase_head(_Getal());
; 1192 : #if _ITERATOR_DEBUG_LEVEL != 0 // TRANSITION, ABI
; 1193 :         auto&& _Alproxy = _GET_PROXY_ALLOCATOR(_Alnode, _Getal());
; 1194 :         _Delete_plain_internal(_Alproxy, _Scary->_Myproxy);
; 1195 : #endif // _ITERATOR_DEBUG_LEVEL != 0
; 1196 :     }

  00043	c9		 leave
  00044	c3		 ret	 0
??1?$_Tree@V?$_Tmap_traits@V?$basic_string@DU?$char_traits@D@std@@V?$allocator@D@2@@std@@PAVCGraphicImageInstance@@U?$less@V?$basic_string@DU?$char_traits@D@std@@V?$allocator@D@2@@std@@@2@V?$allocator@U?$pair@$$CBV?$basic_string@DU?$char_traits@D@std@@V?$allocator@D@2@@std@@PAVCGraphicImageInstance@@@std@@@2@$0A@@std@@@std@@QAE@XZ ENDP ; std::_Tree<std::_Tmap_traits<std::basic_string<char,std::char_traits<char>,std::allocator<char> >,CGraphicImageInstance *,std::less<std::basic_string<char,std::char_traits<char>,std::allocator<char> > >,std::allocator<std::pair<std::basic_string<char,std::char_traits<char>,std::allocator<char> > const ,CGraphicImageInstance *> >,0> >::~_Tree<std::_Tmap_traits<std::basic_string<char,std::char_traits<char>,std::allocator<char> >,CGraphicImageInstance *,std::less<std::basic_string<char,std::char_traits<char>,std::allocator<char> > >,std::allocator<std::pair<std::basic_string<char,std::char_traits<char>,std::allocator<char> > const ,CGraphicImageInstance *> >,0> >
_TEXT	ENDS
; Function compile flags: /Odspy
; File C:\Program Files (x86)\Microsoft Visual Studio\2019\Community\VC\Tools\MSVC\14.28.29333\include\xtree
; File C:\Program Files (x86)\Microsoft Visual Studio\2019\Community\VC\Tools\MSVC\14.28.29333\include\type_traits
; File C:\Program Files (x86)\Microsoft Visual Studio\2019\Community\VC\Tools\MSVC\14.28.29333\include\xmemory
; File C:\Program Files (x86)\Microsoft Visual Studio\2019\Community\VC\Tools\MSVC\14.28.29333\include\xtree
;	COMDAT ??0?$_Tree@V?$_Tmap_traits@V?$basic_string@DU?$char_traits@D@std@@V?$allocator@D@2@@std@@PAVCGraphicImageInstance@@U?$less@V?$basic_string@DU?$char_traits@D@std@@V?$allocator@D@2@@std@@@2@V?$allocator@U?$pair@$$CBV?$basic_string@DU?$char_traits@D@std@@V?$allocator@D@2@@std@@PAVCGraphicImageInstance@@@std@@@2@$0A@@std@@@std@@QAE@ABU?$less@V?$basic_string@DU?$char_traits@D@std@@V?$allocator@D@2@@std@@@1@@Z
_TEXT	SEGMENT
_this$ = -28						; size = 4
_this$ = -24						; size = 4
$T1 = -20						; size = 4
_this$2 = -16						; size = 4
_this$ = -12						; size = 4
___formal$ = -8						; size = 1
$T3 = -1						; size = 1
__Parg$ = 8						; size = 4
??0?$_Tree@V?$_Tmap_traits@V?$basic_string@DU?$char_traits@D@std@@V?$allocator@D@2@@std@@PAVCGraphicImageInstance@@U?$less@V?$basic_string@DU?$char_traits@D@std@@V?$allocator@D@2@@std@@@2@V?$allocator@U?$pair@$$CBV?$basic_string@DU?$char_traits@D@std@@V?$allocator@D@2@@std@@PAVCGraphicImageInstance@@@std@@@2@$0A@@std@@@std@@QAE@ABU?$less@V?$basic_string@DU?$char_traits@D@std@@V?$allocator@D@2@@std@@@1@@Z PROC ; std::_Tree<std::_Tmap_traits<std::basic_string<char,std::char_traits<char>,std::allocator<char> >,CGraphicImageInstance *,std::less<std::basic_string<char,std::char_traits<char>,std::allocator<char> > >,std::allocator<std::pair<std::basic_string<char,std::char_traits<char>,std::allocator<char> > const ,CGraphicImageInstance *> >,0> >::_Tree<std::_Tmap_traits<std::basic_string<char,std::char_traits<char>,std::allocator<char> >,CGraphicImageInstance *,std::less<std::basic_string<char,std::char_traits<char>,std::allocator<char> > >,std::allocator<std::pair<std::basic_string<char,std::char_traits<char>,std::allocator<char> > const ,CGraphicImageInstance *> >,0> >, COMDAT
; _this$ = ecx

; 885  :     _Tree(const key_compare& _Parg) : _Mypair(_One_then_variadic_args_t{}, _Parg, _Zero_then_variadic_args_t{}) {

  00000	55		 push	 ebp
  00001	8b ec		 mov	 ebp, esp
  00003	83 ec 1c	 sub	 esp, 28			; 0000001cH
  00006	89 4d f4	 mov	 DWORD PTR _this$[ebp], ecx
  00009	8b 45 f4	 mov	 eax, DWORD PTR _this$[ebp]
  0000c	89 45 e8	 mov	 DWORD PTR _this$[ebp], eax
; File C:\Program Files (x86)\Microsoft Visual Studio\2019\Community\VC\Tools\MSVC\14.28.29333\include\type_traits

; 1443 :     return static_cast<_Ty&&>(_Arg);

  0000f	8d 45 ff	 lea	 eax, DWORD PTR $T3[ebp]
  00012	89 45 ec	 mov	 DWORD PTR $T1[ebp], eax
; File C:\Program Files (x86)\Microsoft Visual Studio\2019\Community\VC\Tools\MSVC\14.28.29333\include\xmemory

; 1344 :         : _Ty1(_STD forward<_Other1>(_Val1)), _Myval2(_STD forward<_Other2>(_Val2)...) {}

  00015	8b 45 ec	 mov	 eax, DWORD PTR $T1[ebp]
  00018	8a 00		 mov	 al, BYTE PTR [eax]
  0001a	88 45 f8	 mov	 BYTE PTR ___formal$[ebp], al
  0001d	8b 45 e8	 mov	 eax, DWORD PTR _this$[ebp]
  00020	89 45 e4	 mov	 DWORD PTR _this$[ebp], eax

; 1339 :         : _Ty1(), _Myval2(_STD forward<_Other2>(_Val2)...) {}

  00023	8b 45 e4	 mov	 eax, DWORD PTR _this$[ebp]
  00026	89 45 f0	 mov	 DWORD PTR _this$2[ebp], eax
; File C:\Program Files (x86)\Microsoft Visual Studio\2019\Community\VC\Tools\MSVC\14.28.29333\include\xtree

; 435  :     _Tree_val() noexcept : _Myhead(), _Mysize(0) {}

  00029	8b 45 f0	 mov	 eax, DWORD PTR _this$2[ebp]
  0002c	83 20 00	 and	 DWORD PTR [eax], 0
  0002f	8b 45 f0	 mov	 eax, DWORD PTR _this$2[ebp]
  00032	83 60 04 00	 and	 DWORD PTR [eax+4], 0

; 886  :         _Alloc_sentinel_and_proxy();

  00036	8b 4d f4	 mov	 ecx, DWORD PTR _this$[ebp]
  00039	e8 00 00 00 00	 call	 ?_Alloc_sentinel_and_proxy@?$_Tree@V?$_Tmap_traits@V?$basic_string@DU?$char_traits@D@std@@V?$allocator@D@2@@std@@PAVCGraphicImageInstance@@U?$less@V?$basic_string@DU?$char_traits@D@std@@V?$allocator@D@2@@std@@@2@V?$allocator@U?$pair@$$CBV?$basic_string@DU?$char_traits@D@std@@V?$allocator@D@2@@std@@PAVCGraphicImageInstance@@@std@@@2@$0A@@std@@@std@@IAEXXZ ; std::_Tree<std::_Tmap_traits<std::basic_string<char,std::char_traits<char>,std::allocator<char> >,CGraphicImageInstance *,std::less<std::basic_string<char,std::char_traits<char>,std::allocator<char> > >,std::allocator<std::pair<std::basic_string<char,std::char_traits<char>,std::allocator<char> > const ,CGraphicImageInstance *> >,0> >::_Alloc_sentinel_and_proxy

; 887  :     }

  0003e	8b 45 f4	 mov	 eax, DWORD PTR _this$[ebp]
  00041	c9		 leave
  00042	c2 04 00	 ret	 4
??0?$_Tree@V?$_Tmap_traits@V?$basic_string@DU?$char_traits@D@std@@V?$allocator@D@2@@std@@PAVCGraphicImageInstance@@U?$less@V?$basic_string@DU?$char_traits@D@std@@V?$allocator@D@2@@std@@@2@V?$allocator@U?$pair@$$CBV?$basic_string@DU?$char_traits@D@std@@V?$allocator@D@2@@std@@PAVCGraphicImageInstance@@@std@@@2@$0A@@std@@@std@@QAE@ABU?$less@V?$basic_string@DU?$char_traits@D@std@@V?$allocator@D@2@@std@@@1@@Z ENDP ; std::_Tree<std::_Tmap_traits<std::basic_string<char,std::char_traits<char>,std::allocator<char> >,CGraphicImageInstance *,std::less<std::basic_string<char,std::char_traits<char>,std::allocator<char> > >,std::allocator<std::pair<std::basic_string<char,std::char_traits<char>,std::allocator<char> > const ,CGraphicImageInstance *> >,0> >::_Tree<std::_Tmap_traits<std::basic_string<char,std::char_traits<char>,std::allocator<char> >,CGraphicImageInstance *,std::less<std::basic_string<char,std::char_traits<char>,std::allocator<char> > >,std::allocator<std::pair<std::basic_string<char,std::char_traits<char>,std::allocator<char> > const ,CGraphicImageInstance *> >,0> >
_TEXT	ENDS
; Function compile flags: /Odspy
; File C:\Program Files (x86)\Microsoft Visual Studio\2019\Community\VC\Tools\MSVC\14.28.29333\include\vector
; File C:\Program Files (x86)\Microsoft Visual Studio\2019\Community\VC\Tools\MSVC\14.28.29333\include\xstring
;	COMDAT ??1TSkyObjectFace@CSkyObject@@QAE@XZ
_TEXT	SEGMENT
_this$ = -4						; size = 4
??1TSkyObjectFace@CSkyObject@@QAE@XZ PROC		; CSkyObject::TSkyObjectFace::~TSkyObjectFace, COMDAT
; _this$ = ecx
  00000	55		 push	 ebp
  00001	8b ec		 mov	 ebp, esp
  00003	51		 push	 ecx
  00004	89 4d fc	 mov	 DWORD PTR _this$[ebp], ecx
  00007	8b 4d fc	 mov	 ecx, DWORD PTR _this$[ebp]
  0000a	83 c1 30	 add	 ecx, 48			; 00000030H
; File C:\Program Files (x86)\Microsoft Visual Studio\2019\Community\VC\Tools\MSVC\14.28.29333\include\vector

; 673  :         _Tidy();

  0000d	e8 00 00 00 00	 call	 ?_Tidy@?$vector@VCSkyObjectQuad@@V?$allocator@VCSkyObjectQuad@@@std@@@std@@AAEXXZ ; std::vector<CSkyObjectQuad,std::allocator<CSkyObjectQuad> >::_Tidy
  00012	8b 4d fc	 mov	 ecx, DWORD PTR _this$[ebp]
  00015	83 c1 18	 add	 ecx, 24			; 00000018H
; File C:\Program Files (x86)\Microsoft Visual Studio\2019\Community\VC\Tools\MSVC\14.28.29333\include\xstring

; 2801 :         _Tidy_deallocate();

  00018	e8 00 00 00 00	 call	 ?_Tidy_deallocate@?$basic_string@DU?$char_traits@D@std@@V?$allocator@D@2@@std@@AAEXXZ ; std::basic_string<char,std::char_traits<char>,std::allocator<char> >::_Tidy_deallocate
  0001d	8b 4d fc	 mov	 ecx, DWORD PTR _this$[ebp]
  00020	e8 00 00 00 00	 call	 ?_Tidy_deallocate@?$basic_string@DU?$char_traits@D@std@@V?$allocator@D@2@@std@@AAEXXZ ; std::basic_string<char,std::char_traits<char>,std::allocator<char> >::_Tidy_deallocate
  00025	c9		 leave
  00026	c3		 ret	 0
??1TSkyObjectFace@CSkyObject@@QAE@XZ ENDP		; CSkyObject::TSkyObjectFace::~TSkyObjectFace
_TEXT	ENDS
; Function compile flags: /Odspy
; File C:\Program Files (x86)\Microsoft Visual Studio\2019\Community\VC\Tools\MSVC\14.28.29333\include\vector
; File C:\Program Files (x86)\Microsoft Visual Studio\2019\Community\VC\Tools\MSVC\14.28.29333\include\xmemory
; File C:\Program Files (x86)\Microsoft Visual Studio\2019\Community\VC\Tools\MSVC\14.28.29333\include\vector
;	COMDAT ??0TSkyObjectFace@CSkyObject@@QAE@XZ
_TEXT	SEGMENT
_this$ = -16						; size = 4
_this$ = -12						; size = 4
_this$1 = -8						; size = 4
_this$ = -4						; size = 4
??0TSkyObjectFace@CSkyObject@@QAE@XZ PROC		; CSkyObject::TSkyObjectFace::TSkyObjectFace, COMDAT
; _this$ = ecx
  00000	55		 push	 ebp
  00001	8b ec		 mov	 ebp, esp
  00003	83 ec 10	 sub	 esp, 16			; 00000010H
  00006	89 4d fc	 mov	 DWORD PTR _this$[ebp], ecx
  00009	8b 4d fc	 mov	 ecx, DWORD PTR _this$[ebp]
  0000c	e8 00 00 00 00	 call	 ??0?$basic_string@DU?$char_traits@D@std@@V?$allocator@D@2@@std@@QAE@XZ ; std::basic_string<char,std::char_traits<char>,std::allocator<char> >::basic_string<char,std::char_traits<char>,std::allocator<char> >
  00011	8b 4d fc	 mov	 ecx, DWORD PTR _this$[ebp]
  00014	83 c1 18	 add	 ecx, 24			; 00000018H
  00017	e8 00 00 00 00	 call	 ??0?$basic_string@DU?$char_traits@D@std@@V?$allocator@D@2@@std@@QAE@XZ ; std::basic_string<char,std::char_traits<char>,std::allocator<char> >::basic_string<char,std::char_traits<char>,std::allocator<char> >
  0001c	8b 45 fc	 mov	 eax, DWORD PTR _this$[ebp]
  0001f	83 c0 30	 add	 eax, 48			; 00000030H
  00022	89 45 f4	 mov	 DWORD PTR _this$[ebp], eax

; 445  :     vector() noexcept(is_nothrow_default_constructible_v<_Alty>) : _Mypair(_Zero_then_variadic_args_t{}) {

  00025	8b 45 f4	 mov	 eax, DWORD PTR _this$[ebp]
  00028	89 45 f0	 mov	 DWORD PTR _this$[ebp], eax
; File C:\Program Files (x86)\Microsoft Visual Studio\2019\Community\VC\Tools\MSVC\14.28.29333\include\xmemory

; 1339 :         : _Ty1(), _Myval2(_STD forward<_Other2>(_Val2)...) {}

  0002b	8b 45 f0	 mov	 eax, DWORD PTR _this$[ebp]
  0002e	89 45 f8	 mov	 DWORD PTR _this$1[ebp], eax
; File C:\Program Files (x86)\Microsoft Visual Studio\2019\Community\VC\Tools\MSVC\14.28.29333\include\vector

; 375  :     _Vector_val() noexcept : _Myfirst(), _Mylast(), _Myend() {}

  00031	8b 45 f8	 mov	 eax, DWORD PTR _this$1[ebp]
  00034	83 20 00	 and	 DWORD PTR [eax], 0
  00037	8b 45 f8	 mov	 eax, DWORD PTR _this$1[ebp]
  0003a	83 60 04 00	 and	 DWORD PTR [eax+4], 0
  0003e	8b 45 f8	 mov	 eax, DWORD PTR _this$1[ebp]
  00041	83 60 08 00	 and	 DWORD PTR [eax+8], 0
  00045	8b 45 fc	 mov	 eax, DWORD PTR _this$[ebp]
  00048	c9		 leave
  00049	c3		 ret	 0
??0TSkyObjectFace@CSkyObject@@QAE@XZ ENDP		; CSkyObject::TSkyObjectFace::TSkyObjectFace
_TEXT	ENDS
; Function compile flags: /Odspy
; File D:\Metin2 Server Files\mainline\SRC_2014\Metin2Client\EterLib\SkyBox.cpp
; File C:\Program Files (x86)\Microsoft Visual Studio\2019\Community\VC\Tools\MSVC\14.28.29333\include\vector
; File D:\Metin2 Server Files\mainline\SRC_2014\Metin2Client\EterLib\SkyBox.cpp
; File C:\Program Files (x86)\Microsoft Visual Studio\2019\Community\VC\Tools\MSVC\14.28.29333\include\vector
; File D:\Metin2 Server Files\mainline\SRC_2014\Metin2Client\EterLib\SkyBox.cpp
; File C:\Program Files (x86)\Microsoft Visual Studio\2019\Community\VC\Tools\MSVC\14.28.29333\include\vector
; File D:\Metin2 Server Files\mainline\SRC_2014\Metin2Client\EterLib\SkyBox.cpp
;	COMDAT ?Render@TSkyObjectFace@CSkyObject@@QAEXXZ
_TEXT	SEGMENT
$T1 = -24						; size = 4
__My_data$2 = -20					; size = 4
$T3 = -16						; size = 4
_this$ = -12						; size = 4
__My_data$4 = -8					; size = 4
_uci$5 = -1						; size = 1
?Render@TSkyObjectFace@CSkyObject@@QAEXXZ PROC		; CSkyObject::TSkyObjectFace::Render, COMDAT
; _this$ = ecx

; 206  : {

  00000	55		 push	 ebp
  00001	8b ec		 mov	 ebp, esp
  00003	83 ec 18	 sub	 esp, 24			; 00000018H
  00006	89 4d f4	 mov	 DWORD PTR _this$[ebp], ecx

; 207  : 	for (unsigned char uci = 0; uci < m_SkyObjectQuadVector.size(); ++uci)

  00009	c6 45 ff 00	 mov	 BYTE PTR _uci$5[ebp], 0
  0000d	eb 08		 jmp	 SHORT $LN4@Render
$LN2@Render:
  0000f	8a 45 ff	 mov	 al, BYTE PTR _uci$5[ebp]
  00012	04 01		 add	 al, 1
  00014	88 45 ff	 mov	 BYTE PTR _uci$5[ebp], al
$LN4@Render:
; File C:\Program Files (x86)\Microsoft Visual Studio\2019\Community\VC\Tools\MSVC\14.28.29333\include\vector

; 1483 :         auto& _My_data = _Mypair._Myval2;

  00017	8b 45 f4	 mov	 eax, DWORD PTR _this$[ebp]
  0001a	83 c0 30	 add	 eax, 48			; 00000030H
  0001d	89 45 f8	 mov	 DWORD PTR __My_data$4[ebp], eax

; 1484 :         return static_cast<size_type>(_My_data._Mylast - _My_data._Myfirst);

  00020	8b 45 f8	 mov	 eax, DWORD PTR __My_data$4[ebp]
  00023	8b 4d f8	 mov	 ecx, DWORD PTR __My_data$4[ebp]
  00026	8b 40 04	 mov	 eax, DWORD PTR [eax+4]
  00029	2b 01		 sub	 eax, DWORD PTR [ecx]
  0002b	99		 cdq
  0002c	b9 2c 01 00 00	 mov	 ecx, 300		; 0000012cH
  00031	f7 f9		 idiv	 ecx
  00033	89 45 f0	 mov	 DWORD PTR $T3[ebp], eax
; File D:\Metin2 Server Files\mainline\SRC_2014\Metin2Client\EterLib\SkyBox.cpp

; 207  : 	for (unsigned char uci = 0; uci < m_SkyObjectQuadVector.size(); ++uci)

  00036	0f b6 45 ff	 movzx	 eax, BYTE PTR _uci$5[ebp]
  0003a	3b 45 f0	 cmp	 eax, DWORD PTR $T3[ebp]
  0003d	73 25		 jae	 SHORT $LN1@Render
; File C:\Program Files (x86)\Microsoft Visual Studio\2019\Community\VC\Tools\MSVC\14.28.29333\include\vector

; 1498 :         auto& _My_data = _Mypair._Myval2;

  0003f	8b 45 f4	 mov	 eax, DWORD PTR _this$[ebp]
  00042	83 c0 30	 add	 eax, 48			; 00000030H
  00045	89 45 ec	 mov	 DWORD PTR __My_data$2[ebp], eax
; File D:\Metin2 Server Files\mainline\SRC_2014\Metin2Client\EterLib\SkyBox.cpp

; 209  : 		m_SkyObjectQuadVector[uci].Render();

  00048	0f b6 45 ff	 movzx	 eax, BYTE PTR _uci$5[ebp]
; File C:\Program Files (x86)\Microsoft Visual Studio\2019\Community\VC\Tools\MSVC\14.28.29333\include\vector

; 1504 :         return _My_data._Myfirst[_Pos];

  0004c	69 c0 2c 01 00
	00		 imul	 eax, eax, 300
  00052	8b 4d ec	 mov	 ecx, DWORD PTR __My_data$2[ebp]
  00055	03 01		 add	 eax, DWORD PTR [ecx]
  00057	89 45 e8	 mov	 DWORD PTR $T1[ebp], eax
; File D:\Metin2 Server Files\mainline\SRC_2014\Metin2Client\EterLib\SkyBox.cpp

; 209  : 		m_SkyObjectQuadVector[uci].Render();

  0005a	8b 4d e8	 mov	 ecx, DWORD PTR $T1[ebp]
  0005d	e8 00 00 00 00	 call	 ?Render@CSkyObjectQuad@@QAEXXZ ; CSkyObjectQuad::Render

; 210  : 	}

  00062	eb ab		 jmp	 SHORT $LN2@Render
$LN1@Render:

; 211  : }

  00064	c9		 leave
  00065	c3		 ret	 0
?Render@TSkyObjectFace@CSkyObject@@QAEXXZ ENDP		; CSkyObject::TSkyObjectFace::Render
_TEXT	ENDS
; Function compile flags: /Odspy
; File D:\Metin2 Server Files\mainline\SRC_2014\Metin2Client\EterLib\SkyBox.cpp
; File C:\Program Files (x86)\Microsoft Visual Studio\2019\Community\VC\Tools\MSVC\14.28.29333\include\vector
; File D:\Metin2 Server Files\mainline\SRC_2014\Metin2Client\EterLib\SkyBox.cpp
; File C:\Program Files (x86)\Microsoft Visual Studio\2019\Community\VC\Tools\MSVC\14.28.29333\include\vector
; File D:\Metin2 Server Files\mainline\SRC_2014\Metin2Client\EterLib\SkyBox.cpp
;	COMDAT ?Update@TSkyObjectFace@CSkyObject@@QAE_NXZ
_TEXT	SEGMENT
$T1 = -32						; size = 4
__My_data$2 = -28					; size = 4
$T3 = -24						; size = 4
tv79 = -20						; size = 4
_this$ = -16						; size = 4
__My_data$4 = -12					; size = 4
_dwi$5 = -8						; size = 4
_bResult$ = -1						; size = 1
?Update@TSkyObjectFace@CSkyObject@@QAE_NXZ PROC		; CSkyObject::TSkyObjectFace::Update, COMDAT
; _this$ = ecx

; 198  : {

  00000	55		 push	 ebp
  00001	8b ec		 mov	 ebp, esp
  00003	83 ec 20	 sub	 esp, 32			; 00000020H
  00006	89 4d f0	 mov	 DWORD PTR _this$[ebp], ecx

; 199  : 	bool bResult = false;

  00009	c6 45 ff 00	 mov	 BYTE PTR _bResult$[ebp], 0

; 200  : 	for (DWORD dwi = 0; dwi < m_SkyObjectQuadVector.size(); ++dwi)

  0000d	83 65 f8 00	 and	 DWORD PTR _dwi$5[ebp], 0
  00011	eb 07		 jmp	 SHORT $LN4@Update
$LN2@Update:
  00013	8b 45 f8	 mov	 eax, DWORD PTR _dwi$5[ebp]
  00016	40		 inc	 eax
  00017	89 45 f8	 mov	 DWORD PTR _dwi$5[ebp], eax
$LN4@Update:
; File C:\Program Files (x86)\Microsoft Visual Studio\2019\Community\VC\Tools\MSVC\14.28.29333\include\vector

; 1483 :         auto& _My_data = _Mypair._Myval2;

  0001a	8b 45 f0	 mov	 eax, DWORD PTR _this$[ebp]
  0001d	83 c0 30	 add	 eax, 48			; 00000030H
  00020	89 45 f4	 mov	 DWORD PTR __My_data$4[ebp], eax

; 1484 :         return static_cast<size_type>(_My_data._Mylast - _My_data._Myfirst);

  00023	8b 45 f4	 mov	 eax, DWORD PTR __My_data$4[ebp]
  00026	8b 4d f4	 mov	 ecx, DWORD PTR __My_data$4[ebp]
  00029	8b 40 04	 mov	 eax, DWORD PTR [eax+4]
  0002c	2b 01		 sub	 eax, DWORD PTR [ecx]
  0002e	99		 cdq
  0002f	b9 2c 01 00 00	 mov	 ecx, 300		; 0000012cH
  00034	f7 f9		 idiv	 ecx
  00036	89 45 e8	 mov	 DWORD PTR $T3[ebp], eax
; File D:\Metin2 Server Files\mainline\SRC_2014\Metin2Client\EterLib\SkyBox.cpp

; 200  : 	for (DWORD dwi = 0; dwi < m_SkyObjectQuadVector.size(); ++dwi)

  00039	8b 45 f8	 mov	 eax, DWORD PTR _dwi$5[ebp]
  0003c	3b 45 e8	 cmp	 eax, DWORD PTR $T3[ebp]
  0003f	73 44		 jae	 SHORT $LN3@Update
; File C:\Program Files (x86)\Microsoft Visual Studio\2019\Community\VC\Tools\MSVC\14.28.29333\include\vector

; 1498 :         auto& _My_data = _Mypair._Myval2;

  00041	8b 45 f0	 mov	 eax, DWORD PTR _this$[ebp]
  00044	83 c0 30	 add	 eax, 48			; 00000030H
  00047	89 45 e4	 mov	 DWORD PTR __My_data$2[ebp], eax

; 1499 : #if _CONTAINER_DEBUG_LEVEL > 0
; 1500 :         _STL_VERIFY(
; 1501 :             _Pos < static_cast<size_type>(_My_data._Mylast - _My_data._Myfirst), "vector subscript out of range");
; 1502 : #endif // _CONTAINER_DEBUG_LEVEL > 0
; 1503 : 
; 1504 :         return _My_data._Myfirst[_Pos];

  0004a	69 45 f8 2c 01
	00 00		 imul	 eax, DWORD PTR _dwi$5[ebp], 300
  00051	8b 4d e4	 mov	 ecx, DWORD PTR __My_data$2[ebp]
  00054	03 01		 add	 eax, DWORD PTR [ecx]
  00056	89 45 e0	 mov	 DWORD PTR $T1[ebp], eax
; File D:\Metin2 Server Files\mainline\SRC_2014\Metin2Client\EterLib\SkyBox.cpp

; 201  :  		bResult = m_SkyObjectQuadVector[dwi].Update() || bResult;

  00059	8b 4d e0	 mov	 ecx, DWORD PTR $T1[ebp]
  0005c	e8 00 00 00 00	 call	 ?Update@CSkyObjectQuad@@QAE_NXZ ; CSkyObjectQuad::Update
  00061	0f b6 c0	 movzx	 eax, al
  00064	85 c0		 test	 eax, eax
  00066	75 0e		 jne	 SHORT $LN6@Update
  00068	0f b6 45 ff	 movzx	 eax, BYTE PTR _bResult$[ebp]
  0006c	85 c0		 test	 eax, eax
  0006e	75 06		 jne	 SHORT $LN6@Update
  00070	83 65 ec 00	 and	 DWORD PTR tv79[ebp], 0
  00074	eb 07		 jmp	 SHORT $LN7@Update
$LN6@Update:
  00076	c7 45 ec 01 00
	00 00		 mov	 DWORD PTR tv79[ebp], 1
$LN7@Update:
  0007d	8a 45 ec	 mov	 al, BYTE PTR tv79[ebp]
  00080	88 45 ff	 mov	 BYTE PTR _bResult$[ebp], al
  00083	eb 8e		 jmp	 SHORT $LN2@Update
$LN3@Update:

; 202  :  	return bResult;

  00085	8a 45 ff	 mov	 al, BYTE PTR _bResult$[ebp]

; 203  : }

  00088	c9		 leave
  00089	c3		 ret	 0
?Update@TSkyObjectFace@CSkyObject@@QAE_NXZ ENDP		; CSkyObject::TSkyObjectFace::Update
_TEXT	ENDS
; Function compile flags: /Odspy
; File D:\Metin2 Server Files\mainline\SRC_2014\Metin2Client\EterLib\SkyBox.cpp
; File C:\Program Files (x86)\Microsoft Visual Studio\2019\Community\VC\Tools\MSVC\14.28.29333\include\vector
; File D:\Metin2 Server Files\mainline\SRC_2014\Metin2Client\EterLib\SkyBox.cpp
; File C:\Program Files (x86)\Microsoft Visual Studio\2019\Community\VC\Tools\MSVC\14.28.29333\include\vector
; File D:\Metin2 Server Files\mainline\SRC_2014\Metin2Client\EterLib\SkyBox.cpp
; File C:\Program Files (x86)\Microsoft Visual Studio\2019\Community\VC\Tools\MSVC\14.28.29333\include\vector
; File D:\Metin2 Server Files\mainline\SRC_2014\Metin2Client\EterLib\SkyBox.cpp
;	COMDAT ?StartTransition@TSkyObjectFace@CSkyObject@@QAEXXZ
_TEXT	SEGMENT
$T1 = -24						; size = 4
__My_data$2 = -20					; size = 4
$T3 = -16						; size = 4
_this$ = -12						; size = 4
__My_data$4 = -8					; size = 4
_uci$5 = -1						; size = 1
?StartTransition@TSkyObjectFace@CSkyObject@@QAEXXZ PROC	; CSkyObject::TSkyObjectFace::StartTransition, COMDAT
; _this$ = ecx

; 190  : {

  00000	55		 push	 ebp
  00001	8b ec		 mov	 ebp, esp
  00003	83 ec 18	 sub	 esp, 24			; 00000018H
  00006	89 4d f4	 mov	 DWORD PTR _this$[ebp], ecx

; 191  : 	for (unsigned char uci = 0; uci < m_SkyObjectQuadVector.size(); ++uci)

  00009	c6 45 ff 00	 mov	 BYTE PTR _uci$5[ebp], 0
  0000d	eb 08		 jmp	 SHORT $LN4@StartTrans
$LN2@StartTrans:
  0000f	8a 45 ff	 mov	 al, BYTE PTR _uci$5[ebp]
  00012	04 01		 add	 al, 1
  00014	88 45 ff	 mov	 BYTE PTR _uci$5[ebp], al
$LN4@StartTrans:
; File C:\Program Files (x86)\Microsoft Visual Studio\2019\Community\VC\Tools\MSVC\14.28.29333\include\vector

; 1483 :         auto& _My_data = _Mypair._Myval2;

  00017	8b 45 f4	 mov	 eax, DWORD PTR _this$[ebp]
  0001a	83 c0 30	 add	 eax, 48			; 00000030H
  0001d	89 45 f8	 mov	 DWORD PTR __My_data$4[ebp], eax

; 1484 :         return static_cast<size_type>(_My_data._Mylast - _My_data._Myfirst);

  00020	8b 45 f8	 mov	 eax, DWORD PTR __My_data$4[ebp]
  00023	8b 4d f8	 mov	 ecx, DWORD PTR __My_data$4[ebp]
  00026	8b 40 04	 mov	 eax, DWORD PTR [eax+4]
  00029	2b 01		 sub	 eax, DWORD PTR [ecx]
  0002b	99		 cdq
  0002c	b9 2c 01 00 00	 mov	 ecx, 300		; 0000012cH
  00031	f7 f9		 idiv	 ecx
  00033	89 45 f0	 mov	 DWORD PTR $T3[ebp], eax
; File D:\Metin2 Server Files\mainline\SRC_2014\Metin2Client\EterLib\SkyBox.cpp

; 191  : 	for (unsigned char uci = 0; uci < m_SkyObjectQuadVector.size(); ++uci)

  00036	0f b6 45 ff	 movzx	 eax, BYTE PTR _uci$5[ebp]
  0003a	3b 45 f0	 cmp	 eax, DWORD PTR $T3[ebp]
  0003d	73 25		 jae	 SHORT $LN1@StartTrans
; File C:\Program Files (x86)\Microsoft Visual Studio\2019\Community\VC\Tools\MSVC\14.28.29333\include\vector

; 1498 :         auto& _My_data = _Mypair._Myval2;

  0003f	8b 45 f4	 mov	 eax, DWORD PTR _this$[ebp]
  00042	83 c0 30	 add	 eax, 48			; 00000030H
  00045	89 45 ec	 mov	 DWORD PTR __My_data$2[ebp], eax
; File D:\Metin2 Server Files\mainline\SRC_2014\Metin2Client\EterLib\SkyBox.cpp

; 193  : 		m_SkyObjectQuadVector[uci].StartTransition();

  00048	0f b6 45 ff	 movzx	 eax, BYTE PTR _uci$5[ebp]
; File C:\Program Files (x86)\Microsoft Visual Studio\2019\Community\VC\Tools\MSVC\14.28.29333\include\vector

; 1504 :         return _My_data._Myfirst[_Pos];

  0004c	69 c0 2c 01 00
	00		 imul	 eax, eax, 300
  00052	8b 4d ec	 mov	 ecx, DWORD PTR __My_data$2[ebp]
  00055	03 01		 add	 eax, DWORD PTR [ecx]
  00057	89 45 e8	 mov	 DWORD PTR $T1[ebp], eax
; File D:\Metin2 Server Files\mainline\SRC_2014\Metin2Client\EterLib\SkyBox.cpp

; 193  : 		m_SkyObjectQuadVector[uci].StartTransition();

  0005a	8b 4d e8	 mov	 ecx, DWORD PTR $T1[ebp]
  0005d	e8 00 00 00 00	 call	 ?StartTransition@CSkyObjectQuad@@QAEXXZ ; CSkyObjectQuad::StartTransition

; 194  : 	}

  00062	eb ab		 jmp	 SHORT $LN2@StartTrans
$LN1@StartTrans:

; 195  : }

  00064	c9		 leave
  00065	c3		 ret	 0
?StartTransition@TSkyObjectFace@CSkyObject@@QAEXXZ ENDP	; CSkyObject::TSkyObjectFace::StartTransition
_TEXT	ENDS
; Function compile flags: /Odspy
; File C:\Program Files (x86)\Microsoft Visual Studio\2019\Community\VC\Tools\MSVC\14.28.29333\include\vector
; File C:\Program Files (x86)\Microsoft Visual Studio\2019\Community\VC\Tools\MSVC\14.28.29333\include\xmemory
; File C:\Program Files (x86)\Microsoft Visual Studio\2019\Community\VC\Tools\MSVC\14.28.29333\include\vector
;	COMDAT ?_Getal@?$vector@VCSkyObjectQuad@@V?$allocator@VCSkyObjectQuad@@@std@@@std@@AAEAAV?$allocator@VCSkyObjectQuad@@@2@XZ
_TEXT	SEGMENT
$T1 = -8						; size = 4
_this$ = -4						; size = 4
?_Getal@?$vector@VCSkyObjectQuad@@V?$allocator@VCSkyObjectQuad@@@std@@@std@@AAEAAV?$allocator@VCSkyObjectQuad@@@2@XZ PROC ; std::vector<CSkyObjectQuad,std::allocator<CSkyObjectQuad> >::_Getal, COMDAT
; _this$ = ecx

; 1732 :     _Alty& _Getal() noexcept {

  00000	55		 push	 ebp
  00001	8b ec		 mov	 ebp, esp
  00003	51		 push	 ecx
  00004	51		 push	 ecx
  00005	89 4d fc	 mov	 DWORD PTR _this$[ebp], ecx

; 1733 :         return _Mypair._Get_first();

  00008	8b 45 fc	 mov	 eax, DWORD PTR _this$[ebp]
; File C:\Program Files (x86)\Microsoft Visual Studio\2019\Community\VC\Tools\MSVC\14.28.29333\include\xmemory

; 1347 :         return *this;

  0000b	89 45 f8	 mov	 DWORD PTR $T1[ebp], eax
; File C:\Program Files (x86)\Microsoft Visual Studio\2019\Community\VC\Tools\MSVC\14.28.29333\include\vector

; 1733 :         return _Mypair._Get_first();

  0000e	8b 45 f8	 mov	 eax, DWORD PTR $T1[ebp]

; 1734 :     }

  00011	c9		 leave
  00012	c3		 ret	 0
?_Getal@?$vector@VCSkyObjectQuad@@V?$allocator@VCSkyObjectQuad@@@std@@@std@@AAEAAV?$allocator@VCSkyObjectQuad@@@2@XZ ENDP ; std::vector<CSkyObjectQuad,std::allocator<CSkyObjectQuad> >::_Getal
_TEXT	ENDS
; Function compile flags: /Odspy
; File C:\Program Files (x86)\Microsoft Visual Studio\2019\Community\VC\Tools\MSVC\14.28.29333\include\vector
;	COMDAT ?_Xrange@?$vector@VCSkyObjectQuad@@V?$allocator@VCSkyObjectQuad@@@std@@@std@@CAXXZ
_TEXT	SEGMENT
?_Xrange@?$vector@VCSkyObjectQuad@@V?$allocator@VCSkyObjectQuad@@@std@@@std@@CAXXZ PROC ; std::vector<CSkyObjectQuad,std::allocator<CSkyObjectQuad> >::_Xrange, COMDAT

; 1708 :     [[noreturn]] static void _Xrange() {

  00000	55		 push	 ebp
  00001	8b ec		 mov	 ebp, esp

; 1709 :         _Xout_of_range("invalid vector subscript");

  00003	68 00 00 00 00	 push	 OFFSET ??_C@_0BJ@DHFDPMIM@invalid?5vector?5subscript@
  00008	e8 00 00 00 00	 call	 ?_Xout_of_range@std@@YAXPBD@Z ; std::_Xout_of_range
$LN2@Xrange:

; 1710 :     }

  0000d	5d		 pop	 ebp
  0000e	c3		 ret	 0
?_Xrange@?$vector@VCSkyObjectQuad@@V?$allocator@VCSkyObjectQuad@@@std@@@std@@CAXXZ ENDP ; std::vector<CSkyObjectQuad,std::allocator<CSkyObjectQuad> >::_Xrange
_TEXT	ENDS
; Function compile flags: /Odspy
; File C:\Program Files (x86)\Microsoft Visual Studio\2019\Community\VC\Tools\MSVC\14.28.29333\include\vector
;	COMDAT ?_Xlength@?$vector@VCSkyObjectQuad@@V?$allocator@VCSkyObjectQuad@@@std@@@std@@CAXXZ
_TEXT	SEGMENT
?_Xlength@?$vector@VCSkyObjectQuad@@V?$allocator@VCSkyObjectQuad@@@std@@@std@@CAXXZ PROC ; std::vector<CSkyObjectQuad,std::allocator<CSkyObjectQuad> >::_Xlength, COMDAT

; 1704 :     [[noreturn]] static void _Xlength() {

  00000	55		 push	 ebp
  00001	8b ec		 mov	 ebp, esp

; 1705 :         _Xlength_error("vector too long");

  00003	68 00 00 00 00	 push	 OFFSET ??_C@_0BA@FOIKENOD@vector?5too?5long@
  00008	e8 00 00 00 00	 call	 ?_Xlength_error@std@@YAXPBD@Z ; std::_Xlength_error
$LN2@Xlength:

; 1706 :     }

  0000d	5d		 pop	 ebp
  0000e	c3		 ret	 0
?_Xlength@?$vector@VCSkyObjectQuad@@V?$allocator@VCSkyObjectQuad@@@std@@@std@@CAXXZ ENDP ; std::vector<CSkyObjectQuad,std::allocator<CSkyObjectQuad> >::_Xlength
_TEXT	ENDS
; Function compile flags: /Odspy
; File C:\Program Files (x86)\Microsoft Visual Studio\2019\Community\VC\Tools\MSVC\14.28.29333\include\vector
; File C:\Program Files (x86)\Microsoft Visual Studio\2019\Community\VC\Tools\MSVC\14.28.29333\include\xmemory
; File C:\Program Files (x86)\Microsoft Visual Studio\2019\Community\VC\Tools\MSVC\14.28.29333\include\vector
; File C:\Program Files (x86)\Microsoft Visual Studio\2019\Community\VC\Tools\MSVC\14.28.29333\include\xmemory
; File C:\Program Files (x86)\Microsoft Visual Studio\2019\Community\VC\Tools\MSVC\14.28.29333\include\vector
; File C:\Program Files (x86)\Microsoft Visual Studio\2019\Community\VC\Tools\MSVC\14.28.29333\include\xmemory
; File C:\Program Files (x86)\Microsoft Visual Studio\2019\Community\VC\Tools\MSVC\14.28.29333\include\vector
;	COMDAT ?_Tidy@?$vector@VCSkyObjectQuad@@V?$allocator@VCSkyObjectQuad@@@std@@@std@@AAEXXZ
_TEXT	SEGMENT
$T1 = -52						; size = 4
__Ptr$ = -48						; size = 4
__Count$ = -44						; size = 4
$T2 = -40						; size = 4
__First$ = -36						; size = 4
__Last$ = -32						; size = 4
$T3 = -28						; size = 4
$T4 = -24						; size = 4
__Myend$ = -20						; size = 4
__Mylast$ = -16						; size = 4
_this$ = -12						; size = 4
__My_data$ = -8						; size = 4
__Myfirst$ = -4						; size = 4
?_Tidy@?$vector@VCSkyObjectQuad@@V?$allocator@VCSkyObjectQuad@@@std@@@std@@AAEXXZ PROC ; std::vector<CSkyObjectQuad,std::allocator<CSkyObjectQuad> >::_Tidy, COMDAT
; _this$ = ecx

; 1686 :     void _Tidy() noexcept { // free all storage

  00000	55		 push	 ebp
  00001	8b ec		 mov	 ebp, esp
  00003	83 ec 34	 sub	 esp, 52			; 00000034H
  00006	89 4d f4	 mov	 DWORD PTR _this$[ebp], ecx

; 1687 :         auto& _My_data    = _Mypair._Myval2;

  00009	8b 45 f4	 mov	 eax, DWORD PTR _this$[ebp]
  0000c	89 45 f8	 mov	 DWORD PTR __My_data$[ebp], eax

; 1688 :         pointer& _Myfirst = _My_data._Myfirst;

  0000f	8b 45 f8	 mov	 eax, DWORD PTR __My_data$[ebp]
  00012	89 45 fc	 mov	 DWORD PTR __Myfirst$[ebp], eax

; 1689 :         pointer& _Mylast  = _My_data._Mylast;

  00015	8b 45 f8	 mov	 eax, DWORD PTR __My_data$[ebp]
  00018	83 c0 04	 add	 eax, 4
  0001b	89 45 f0	 mov	 DWORD PTR __Mylast$[ebp], eax

; 1690 :         pointer& _Myend   = _My_data._Myend;

  0001e	8b 45 f8	 mov	 eax, DWORD PTR __My_data$[ebp]
  00021	83 c0 08	 add	 eax, 8
  00024	89 45 ec	 mov	 DWORD PTR __Myend$[ebp], eax

; 1691 : 
; 1692 :         _My_data._Orphan_all();
; 1693 : 
; 1694 :         if (_Myfirst) { // destroy and deallocate old array

  00027	8b 45 fc	 mov	 eax, DWORD PTR __Myfirst$[ebp]
  0002a	83 38 00	 cmp	 DWORD PTR [eax], 0
  0002d	74 7a		 je	 SHORT $LN3@Tidy

; 1695 :             _Destroy(_Myfirst, _Mylast);

  0002f	8b 45 f0	 mov	 eax, DWORD PTR __Mylast$[ebp]
  00032	8b 00		 mov	 eax, DWORD PTR [eax]
  00034	89 45 e0	 mov	 DWORD PTR __Last$[ebp], eax
  00037	8b 45 fc	 mov	 eax, DWORD PTR __Myfirst$[ebp]
  0003a	8b 00		 mov	 eax, DWORD PTR [eax]
  0003c	89 45 dc	 mov	 DWORD PTR __First$[ebp], eax

; 1733 :         return _Mypair._Get_first();

  0003f	8b 45 f4	 mov	 eax, DWORD PTR _this$[ebp]
; File C:\Program Files (x86)\Microsoft Visual Studio\2019\Community\VC\Tools\MSVC\14.28.29333\include\xmemory

; 1347 :         return *this;

  00042	89 45 e8	 mov	 DWORD PTR $T4[ebp], eax
; File C:\Program Files (x86)\Microsoft Visual Studio\2019\Community\VC\Tools\MSVC\14.28.29333\include\vector

; 1733 :         return _Mypair._Get_first();

  00045	8b 45 e8	 mov	 eax, DWORD PTR $T4[ebp]
  00048	89 45 e4	 mov	 DWORD PTR $T3[ebp], eax

; 1612 :         _Destroy_range(_First, _Last, _Getal());

  0004b	ff 75 e4	 push	 DWORD PTR $T3[ebp]
  0004e	ff 75 e0	 push	 DWORD PTR __Last$[ebp]
  00051	ff 75 dc	 push	 DWORD PTR __First$[ebp]
  00054	e8 00 00 00 00	 call	 ??$_Destroy_range@V?$allocator@VCSkyObjectQuad@@@std@@@std@@YAXPAVCSkyObjectQuad@@QAV1@AAV?$allocator@VCSkyObjectQuad@@@0@@Z ; std::_Destroy_range<std::allocator<CSkyObjectQuad> >
  00059	83 c4 0c	 add	 esp, 12			; 0000000cH

; 1733 :         return _Mypair._Get_first();

  0005c	8b 45 f4	 mov	 eax, DWORD PTR _this$[ebp]
; File C:\Program Files (x86)\Microsoft Visual Studio\2019\Community\VC\Tools\MSVC\14.28.29333\include\xmemory

; 1347 :         return *this;

  0005f	89 45 d8	 mov	 DWORD PTR $T2[ebp], eax
; File C:\Program Files (x86)\Microsoft Visual Studio\2019\Community\VC\Tools\MSVC\14.28.29333\include\vector

; 1733 :         return _Mypair._Get_first();

  00062	8b 45 d8	 mov	 eax, DWORD PTR $T2[ebp]
  00065	89 45 cc	 mov	 DWORD PTR $T1[ebp], eax

; 1696 :             _Getal().deallocate(_Myfirst, static_cast<size_type>(_Myend - _Myfirst));

  00068	8b 45 ec	 mov	 eax, DWORD PTR __Myend$[ebp]
  0006b	8b 4d fc	 mov	 ecx, DWORD PTR __Myfirst$[ebp]
  0006e	8b 00		 mov	 eax, DWORD PTR [eax]
  00070	2b 01		 sub	 eax, DWORD PTR [ecx]
  00072	99		 cdq
  00073	b9 2c 01 00 00	 mov	 ecx, 300		; 0000012cH
  00078	f7 f9		 idiv	 ecx
  0007a	89 45 d4	 mov	 DWORD PTR __Count$[ebp], eax
  0007d	8b 45 fc	 mov	 eax, DWORD PTR __Myfirst$[ebp]
  00080	8b 00		 mov	 eax, DWORD PTR [eax]
  00082	89 45 d0	 mov	 DWORD PTR __Ptr$[ebp], eax
; File C:\Program Files (x86)\Microsoft Visual Studio\2019\Community\VC\Tools\MSVC\14.28.29333\include\xmemory

; 810  :         _Deallocate<_New_alignof<_Ty>>(_Ptr, sizeof(_Ty) * _Count);

  00085	69 45 d4 2c 01
	00 00		 imul	 eax, DWORD PTR __Count$[ebp], 300
  0008c	50		 push	 eax
  0008d	ff 75 d0	 push	 DWORD PTR __Ptr$[ebp]
  00090	e8 00 00 00 00	 call	 ??$_Deallocate@$07$0A@@std@@YAXPAXI@Z ; std::_Deallocate<8,0>
  00095	59		 pop	 ecx
  00096	59		 pop	 ecx
; File C:\Program Files (x86)\Microsoft Visual Studio\2019\Community\VC\Tools\MSVC\14.28.29333\include\vector

; 1698 :             _Myfirst = pointer();

  00097	8b 45 fc	 mov	 eax, DWORD PTR __Myfirst$[ebp]
  0009a	83 20 00	 and	 DWORD PTR [eax], 0

; 1699 :             _Mylast  = pointer();

  0009d	8b 45 f0	 mov	 eax, DWORD PTR __Mylast$[ebp]
  000a0	83 20 00	 and	 DWORD PTR [eax], 0

; 1700 :             _Myend   = pointer();

  000a3	8b 45 ec	 mov	 eax, DWORD PTR __Myend$[ebp]
  000a6	83 20 00	 and	 DWORD PTR [eax], 0
$LN3@Tidy:

; 1701 :         }
; 1702 :     }

  000a9	c9		 leave
  000aa	c3		 ret	 0
?_Tidy@?$vector@VCSkyObjectQuad@@V?$allocator@VCSkyObjectQuad@@@std@@@std@@AAEXXZ ENDP ; std::vector<CSkyObjectQuad,std::allocator<CSkyObjectQuad> >::_Tidy
_TEXT	ENDS
; Function compile flags: /Odspy
; File C:\Program Files (x86)\Microsoft Visual Studio\2019\Community\VC\Tools\MSVC\14.28.29333\include\vector
; File C:\Program Files (x86)\Microsoft Visual Studio\2019\Community\VC\Tools\MSVC\14.28.29333\include\xmemory
; File C:\Program Files (x86)\Microsoft Visual Studio\2019\Community\VC\Tools\MSVC\14.28.29333\include\vector
; File C:\Program Files (x86)\Microsoft Visual Studio\2019\Community\VC\Tools\MSVC\14.28.29333\include\xmemory
; File C:\Program Files (x86)\Microsoft Visual Studio\2019\Community\VC\Tools\MSVC\14.28.29333\include\vector
; File C:\Program Files (x86)\Microsoft Visual Studio\2019\Community\VC\Tools\MSVC\14.28.29333\include\xmemory
; File C:\Program Files (x86)\Microsoft Visual Studio\2019\Community\VC\Tools\MSVC\14.28.29333\include\vector
;	COMDAT ?_Change_array@?$vector@VCSkyObjectQuad@@V?$allocator@VCSkyObjectQuad@@@std@@@std@@AAEXQAVCSkyObjectQuad@@II@Z
_TEXT	SEGMENT
$T1 = -52						; size = 4
__Ptr$ = -48						; size = 4
__Count$ = -44						; size = 4
$T2 = -40						; size = 4
__First$ = -36						; size = 4
__Last$ = -32						; size = 4
$T3 = -28						; size = 4
$T4 = -24						; size = 4
__Myend$ = -20						; size = 4
__Mylast$ = -16						; size = 4
_this$ = -12						; size = 4
__My_data$ = -8						; size = 4
__Myfirst$ = -4						; size = 4
__Newvec$ = 8						; size = 4
__Newsize$ = 12						; size = 4
__Newcapacity$ = 16					; size = 4
?_Change_array@?$vector@VCSkyObjectQuad@@V?$allocator@VCSkyObjectQuad@@@std@@@std@@AAEXQAVCSkyObjectQuad@@II@Z PROC ; std::vector<CSkyObjectQuad,std::allocator<CSkyObjectQuad> >::_Change_array, COMDAT
; _this$ = ecx

; 1667 :     void _Change_array(const pointer _Newvec, const size_type _Newsize, const size_type _Newcapacity) {

  00000	55		 push	 ebp
  00001	8b ec		 mov	 ebp, esp
  00003	83 ec 34	 sub	 esp, 52			; 00000034H
  00006	89 4d f4	 mov	 DWORD PTR _this$[ebp], ecx

; 1668 :         // orphan all iterators, discard old array, acquire new array
; 1669 :         auto& _My_data    = _Mypair._Myval2;

  00009	8b 45 f4	 mov	 eax, DWORD PTR _this$[ebp]
  0000c	89 45 f8	 mov	 DWORD PTR __My_data$[ebp], eax

; 1670 :         pointer& _Myfirst = _My_data._Myfirst;

  0000f	8b 45 f8	 mov	 eax, DWORD PTR __My_data$[ebp]
  00012	89 45 fc	 mov	 DWORD PTR __Myfirst$[ebp], eax

; 1671 :         pointer& _Mylast  = _My_data._Mylast;

  00015	8b 45 f8	 mov	 eax, DWORD PTR __My_data$[ebp]
  00018	83 c0 04	 add	 eax, 4
  0001b	89 45 f0	 mov	 DWORD PTR __Mylast$[ebp], eax

; 1672 :         pointer& _Myend   = _My_data._Myend;

  0001e	8b 45 f8	 mov	 eax, DWORD PTR __My_data$[ebp]
  00021	83 c0 08	 add	 eax, 8
  00024	89 45 ec	 mov	 DWORD PTR __Myend$[ebp], eax

; 1673 : 
; 1674 :         _My_data._Orphan_all();
; 1675 : 
; 1676 :         if (_Myfirst) { // destroy and deallocate old array

  00027	8b 45 fc	 mov	 eax, DWORD PTR __Myfirst$[ebp]
  0002a	83 38 00	 cmp	 DWORD PTR [eax], 0
  0002d	74 68		 je	 SHORT $LN2@Change_arr

; 1677 :             _Destroy(_Myfirst, _Mylast);

  0002f	8b 45 f0	 mov	 eax, DWORD PTR __Mylast$[ebp]
  00032	8b 00		 mov	 eax, DWORD PTR [eax]
  00034	89 45 e0	 mov	 DWORD PTR __Last$[ebp], eax
  00037	8b 45 fc	 mov	 eax, DWORD PTR __Myfirst$[ebp]
  0003a	8b 00		 mov	 eax, DWORD PTR [eax]
  0003c	89 45 dc	 mov	 DWORD PTR __First$[ebp], eax

; 1733 :         return _Mypair._Get_first();

  0003f	8b 45 f4	 mov	 eax, DWORD PTR _this$[ebp]
; File C:\Program Files (x86)\Microsoft Visual Studio\2019\Community\VC\Tools\MSVC\14.28.29333\include\xmemory

; 1347 :         return *this;

  00042	89 45 e8	 mov	 DWORD PTR $T4[ebp], eax
; File C:\Program Files (x86)\Microsoft Visual Studio\2019\Community\VC\Tools\MSVC\14.28.29333\include\vector

; 1733 :         return _Mypair._Get_first();

  00045	8b 45 e8	 mov	 eax, DWORD PTR $T4[ebp]
  00048	89 45 e4	 mov	 DWORD PTR $T3[ebp], eax

; 1612 :         _Destroy_range(_First, _Last, _Getal());

  0004b	ff 75 e4	 push	 DWORD PTR $T3[ebp]
  0004e	ff 75 e0	 push	 DWORD PTR __Last$[ebp]
  00051	ff 75 dc	 push	 DWORD PTR __First$[ebp]
  00054	e8 00 00 00 00	 call	 ??$_Destroy_range@V?$allocator@VCSkyObjectQuad@@@std@@@std@@YAXPAVCSkyObjectQuad@@QAV1@AAV?$allocator@VCSkyObjectQuad@@@0@@Z ; std::_Destroy_range<std::allocator<CSkyObjectQuad> >
  00059	83 c4 0c	 add	 esp, 12			; 0000000cH

; 1733 :         return _Mypair._Get_first();

  0005c	8b 45 f4	 mov	 eax, DWORD PTR _this$[ebp]
; File C:\Program Files (x86)\Microsoft Visual Studio\2019\Community\VC\Tools\MSVC\14.28.29333\include\xmemory

; 1347 :         return *this;

  0005f	89 45 d8	 mov	 DWORD PTR $T2[ebp], eax
; File C:\Program Files (x86)\Microsoft Visual Studio\2019\Community\VC\Tools\MSVC\14.28.29333\include\vector

; 1733 :         return _Mypair._Get_first();

  00062	8b 45 d8	 mov	 eax, DWORD PTR $T2[ebp]
  00065	89 45 cc	 mov	 DWORD PTR $T1[ebp], eax

; 1678 :             _Getal().deallocate(_Myfirst, static_cast<size_type>(_Myend - _Myfirst));

  00068	8b 45 ec	 mov	 eax, DWORD PTR __Myend$[ebp]
  0006b	8b 4d fc	 mov	 ecx, DWORD PTR __Myfirst$[ebp]
  0006e	8b 00		 mov	 eax, DWORD PTR [eax]
  00070	2b 01		 sub	 eax, DWORD PTR [ecx]
  00072	99		 cdq
  00073	b9 2c 01 00 00	 mov	 ecx, 300		; 0000012cH
  00078	f7 f9		 idiv	 ecx
  0007a	89 45 d4	 mov	 DWORD PTR __Count$[ebp], eax
  0007d	8b 45 fc	 mov	 eax, DWORD PTR __Myfirst$[ebp]
  00080	8b 00		 mov	 eax, DWORD PTR [eax]
  00082	89 45 d0	 mov	 DWORD PTR __Ptr$[ebp], eax
; File C:\Program Files (x86)\Microsoft Visual Studio\2019\Community\VC\Tools\MSVC\14.28.29333\include\xmemory

; 810  :         _Deallocate<_New_alignof<_Ty>>(_Ptr, sizeof(_Ty) * _Count);

  00085	69 45 d4 2c 01
	00 00		 imul	 eax, DWORD PTR __Count$[ebp], 300
  0008c	50		 push	 eax
  0008d	ff 75 d0	 push	 DWORD PTR __Ptr$[ebp]
  00090	e8 00 00 00 00	 call	 ??$_Deallocate@$07$0A@@std@@YAXPAXI@Z ; std::_Deallocate<8,0>
  00095	59		 pop	 ecx
  00096	59		 pop	 ecx
$LN2@Change_arr:
; File C:\Program Files (x86)\Microsoft Visual Studio\2019\Community\VC\Tools\MSVC\14.28.29333\include\vector

; 1681 :         _Myfirst = _Newvec;

  00097	8b 45 fc	 mov	 eax, DWORD PTR __Myfirst$[ebp]
  0009a	8b 4d 08	 mov	 ecx, DWORD PTR __Newvec$[ebp]
  0009d	89 08		 mov	 DWORD PTR [eax], ecx

; 1682 :         _Mylast  = _Newvec + _Newsize;

  0009f	69 45 0c 2c 01
	00 00		 imul	 eax, DWORD PTR __Newsize$[ebp], 300
  000a6	03 45 08	 add	 eax, DWORD PTR __Newvec$[ebp]
  000a9	8b 4d f0	 mov	 ecx, DWORD PTR __Mylast$[ebp]
  000ac	89 01		 mov	 DWORD PTR [ecx], eax

; 1683 :         _Myend   = _Newvec + _Newcapacity;

  000ae	69 45 10 2c 01
	00 00		 imul	 eax, DWORD PTR __Newcapacity$[ebp], 300
  000b5	03 45 08	 add	 eax, DWORD PTR __Newvec$[ebp]
  000b8	8b 4d ec	 mov	 ecx, DWORD PTR __Myend$[ebp]
  000bb	89 01		 mov	 DWORD PTR [ecx], eax

; 1684 :     }

  000bd	c9		 leave
  000be	c2 0c 00	 ret	 12			; 0000000cH
?_Change_array@?$vector@VCSkyObjectQuad@@V?$allocator@VCSkyObjectQuad@@@std@@@std@@AAEXQAVCSkyObjectQuad@@II@Z ENDP ; std::vector<CSkyObjectQuad,std::allocator<CSkyObjectQuad> >::_Change_array
_TEXT	ENDS
; Function compile flags: /Odspy
; File C:\Program Files (x86)\Microsoft Visual Studio\2019\Community\VC\Tools\MSVC\14.28.29333\include\vector
; File C:\Program Files (x86)\Microsoft Visual Studio\2019\Community\VC\Tools\MSVC\14.28.29333\include\xmemory
; File C:\Program Files (x86)\Microsoft Visual Studio\2019\Community\VC\Tools\MSVC\14.28.29333\include\vector
; File C:\Program Files (x86)\Microsoft Visual Studio\2019\Community\VC\Tools\MSVC\14.28.29333\include\xmemory
; File C:\Program Files (x86)\Microsoft Visual Studio\2019\Community\VC\Tools\MSVC\14.28.29333\include\limits
; File C:\Program Files (x86)\Microsoft Visual Studio\2019\Community\VC\Tools\MSVC\14.28.29333\include\vector
; File C:\Program Files (x86)\Microsoft Visual Studio\2019\Community\VC\Tools\MSVC\14.28.29333\include\utility
; File C:\Program Files (x86)\Microsoft Visual Studio\2019\Community\VC\Tools\MSVC\14.28.29333\include\vector
;	COMDAT ?_Calculate_growth@?$vector@VCSkyObjectQuad@@V?$allocator@VCSkyObjectQuad@@@std@@@std@@ABEII@Z
_TEXT	SEGMENT
$T1 = -52						; size = 4
$T2 = -48						; size = 4
$T3 = -44						; size = 4
$T4 = -40						; size = 4
$T5 = -36						; size = 4
__Geometric$ = -32					; size = 4
__Max$ = -28						; size = 4
tv82 = -24						; size = 4
$T6 = -20						; size = 4
$T7 = -16						; size = 4
_this$ = -12						; size = 4
__My_data$8 = -8					; size = 4
__Oldcapacity$ = -4					; size = 4
__Newsize$ = 8						; size = 4
?_Calculate_growth@?$vector@VCSkyObjectQuad@@V?$allocator@VCSkyObjectQuad@@@std@@@std@@ABEII@Z PROC ; std::vector<CSkyObjectQuad,std::allocator<CSkyObjectQuad> >::_Calculate_growth, COMDAT
; _this$ = ecx

; 1615 :     size_type _Calculate_growth(const size_type _Newsize) const {

  00000	55		 push	 ebp
  00001	8b ec		 mov	 ebp, esp
  00003	83 ec 34	 sub	 esp, 52			; 00000034H
  00006	89 4d f4	 mov	 DWORD PTR _this$[ebp], ecx

; 1493 :         auto& _My_data = _Mypair._Myval2;

  00009	8b 45 f4	 mov	 eax, DWORD PTR _this$[ebp]
  0000c	89 45 f8	 mov	 DWORD PTR __My_data$8[ebp], eax

; 1494 :         return static_cast<size_type>(_My_data._Myend - _My_data._Myfirst);

  0000f	8b 45 f8	 mov	 eax, DWORD PTR __My_data$8[ebp]
  00012	8b 4d f8	 mov	 ecx, DWORD PTR __My_data$8[ebp]
  00015	8b 40 08	 mov	 eax, DWORD PTR [eax+8]
  00018	2b 01		 sub	 eax, DWORD PTR [ecx]
  0001a	99		 cdq
  0001b	b9 2c 01 00 00	 mov	 ecx, 300		; 0000012cH
  00020	f7 f9		 idiv	 ecx
  00022	89 45 fc	 mov	 DWORD PTR __Oldcapacity$[ebp], eax

; 1737 :         return _Mypair._Get_first();

  00025	8b 45 f4	 mov	 eax, DWORD PTR _this$[ebp]
; File C:\Program Files (x86)\Microsoft Visual Studio\2019\Community\VC\Tools\MSVC\14.28.29333\include\xmemory

; 1351 :         return *this;

  00028	89 45 dc	 mov	 DWORD PTR $T5[ebp], eax
; File C:\Program Files (x86)\Microsoft Visual Studio\2019\Community\VC\Tools\MSVC\14.28.29333\include\vector

; 1737 :         return _Mypair._Get_first();

  0002b	8b 45 dc	 mov	 eax, DWORD PTR $T5[ebp]
  0002e	89 45 cc	 mov	 DWORD PTR $T1[ebp], eax
; File C:\Program Files (x86)\Microsoft Visual Studio\2019\Community\VC\Tools\MSVC\14.28.29333\include\xmemory

; 710  :         return static_cast<size_t>(-1) / sizeof(value_type);

  00031	c7 45 f0 0d 74
	da 00		 mov	 DWORD PTR $T7[ebp], 14316557 ; 00da740dH
; File C:\Program Files (x86)\Microsoft Visual Studio\2019\Community\VC\Tools\MSVC\14.28.29333\include\limits

; 557  :         return INT_MAX;

  00038	c7 45 d8 ff ff
	ff 7f		 mov	 DWORD PTR $T4[ebp], 2147483647 ; 7fffffffH
; File C:\Program Files (x86)\Microsoft Visual Studio\2019\Community\VC\Tools\MSVC\14.28.29333\include\vector

; 1488 :         return (_STD min)(

  0003f	8b 45 d8	 mov	 eax, DWORD PTR $T4[ebp]
  00042	89 45 ec	 mov	 DWORD PTR $T6[ebp], eax
; File C:\Program Files (x86)\Microsoft Visual Studio\2019\Community\VC\Tools\MSVC\14.28.29333\include\utility

; 68   :     return _Right < _Left ? _Right : _Left;

  00045	8b 45 f0	 mov	 eax, DWORD PTR $T7[ebp]
  00048	3b 45 ec	 cmp	 eax, DWORD PTR $T6[ebp]
  0004b	73 08		 jae	 SHORT $LN25@Calculate_
  0004d	8d 45 f0	 lea	 eax, DWORD PTR $T7[ebp]
  00050	89 45 e8	 mov	 DWORD PTR tv82[ebp], eax
  00053	eb 06		 jmp	 SHORT $LN26@Calculate_
$LN25@Calculate_:
  00055	8d 45 ec	 lea	 eax, DWORD PTR $T6[ebp]
  00058	89 45 e8	 mov	 DWORD PTR tv82[ebp], eax
$LN26@Calculate_:
  0005b	8b 45 e8	 mov	 eax, DWORD PTR tv82[ebp]
  0005e	89 45 d4	 mov	 DWORD PTR $T3[ebp], eax
  00061	8b 45 d4	 mov	 eax, DWORD PTR $T3[ebp]
  00064	89 45 d0	 mov	 DWORD PTR $T2[ebp], eax
; File C:\Program Files (x86)\Microsoft Visual Studio\2019\Community\VC\Tools\MSVC\14.28.29333\include\vector

; 1488 :         return (_STD min)(

  00067	8b 45 d0	 mov	 eax, DWORD PTR $T2[ebp]
  0006a	8b 00		 mov	 eax, DWORD PTR [eax]
  0006c	89 45 e4	 mov	 DWORD PTR __Max$[ebp], eax

; 1616 :         // given _Oldcapacity and _Newsize, calculate geometric growth
; 1617 :         const size_type _Oldcapacity = capacity();
; 1618 :         const auto _Max              = max_size();
; 1619 : 
; 1620 :         if (_Oldcapacity > _Max - _Oldcapacity / 2) {

  0006f	8b 45 fc	 mov	 eax, DWORD PTR __Oldcapacity$[ebp]
  00072	d1 e8		 shr	 eax, 1
  00074	8b 4d e4	 mov	 ecx, DWORD PTR __Max$[ebp]
  00077	2b c8		 sub	 ecx, eax
  00079	39 4d fc	 cmp	 DWORD PTR __Oldcapacity$[ebp], ecx
  0007c	76 05		 jbe	 SHORT $LN2@Calculate_

; 1621 :             return _Max; // geometric growth would overflow

  0007e	8b 45 e4	 mov	 eax, DWORD PTR __Max$[ebp]
  00081	eb 1b		 jmp	 SHORT $LN1@Calculate_
$LN2@Calculate_:

; 1622 :         }
; 1623 : 
; 1624 :         const size_type _Geometric = _Oldcapacity + _Oldcapacity / 2;

  00083	8b 45 fc	 mov	 eax, DWORD PTR __Oldcapacity$[ebp]
  00086	d1 e8		 shr	 eax, 1
  00088	03 45 fc	 add	 eax, DWORD PTR __Oldcapacity$[ebp]
  0008b	89 45 e0	 mov	 DWORD PTR __Geometric$[ebp], eax

; 1625 : 
; 1626 :         if (_Geometric < _Newsize) {

  0008e	8b 45 e0	 mov	 eax, DWORD PTR __Geometric$[ebp]
  00091	3b 45 08	 cmp	 eax, DWORD PTR __Newsize$[ebp]
  00094	73 05		 jae	 SHORT $LN3@Calculate_

; 1627 :             return _Newsize; // geometric growth would be insufficient

  00096	8b 45 08	 mov	 eax, DWORD PTR __Newsize$[ebp]
  00099	eb 03		 jmp	 SHORT $LN1@Calculate_
$LN3@Calculate_:

; 1628 :         }
; 1629 : 
; 1630 :         return _Geometric; // geometric growth is sufficient

  0009b	8b 45 e0	 mov	 eax, DWORD PTR __Geometric$[ebp]
$LN1@Calculate_:

; 1631 :     }

  0009e	c9		 leave
  0009f	c2 04 00	 ret	 4
?_Calculate_growth@?$vector@VCSkyObjectQuad@@V?$allocator@VCSkyObjectQuad@@@std@@@std@@ABEII@Z ENDP ; std::vector<CSkyObjectQuad,std::allocator<CSkyObjectQuad> >::_Calculate_growth
_TEXT	ENDS
; Function compile flags: /Odspy
; File C:\Program Files (x86)\Microsoft Visual Studio\2019\Community\VC\Tools\MSVC\14.28.29333\include\vector
; File C:\Program Files (x86)\Microsoft Visual Studio\2019\Community\VC\Tools\MSVC\14.28.29333\include\xmemory
; File C:\Program Files (x86)\Microsoft Visual Studio\2019\Community\VC\Tools\MSVC\14.28.29333\include\vector
;	COMDAT ?_Destroy@?$vector@VCSkyObjectQuad@@V?$allocator@VCSkyObjectQuad@@@std@@@std@@AAEXPAVCSkyObjectQuad@@0@Z
_TEXT	SEGMENT
$T1 = -12						; size = 4
$T2 = -8						; size = 4
_this$ = -4						; size = 4
__First$ = 8						; size = 4
__Last$ = 12						; size = 4
?_Destroy@?$vector@VCSkyObjectQuad@@V?$allocator@VCSkyObjectQuad@@@std@@@std@@AAEXPAVCSkyObjectQuad@@0@Z PROC ; std::vector<CSkyObjectQuad,std::allocator<CSkyObjectQuad> >::_Destroy, COMDAT
; _this$ = ecx

; 1611 :     void _Destroy(pointer _First, pointer _Last) { // destroy [_First, _Last) using allocator

  00000	55		 push	 ebp
  00001	8b ec		 mov	 ebp, esp
  00003	83 ec 0c	 sub	 esp, 12			; 0000000cH
  00006	89 4d fc	 mov	 DWORD PTR _this$[ebp], ecx

; 1733 :         return _Mypair._Get_first();

  00009	8b 45 fc	 mov	 eax, DWORD PTR _this$[ebp]
; File C:\Program Files (x86)\Microsoft Visual Studio\2019\Community\VC\Tools\MSVC\14.28.29333\include\xmemory

; 1347 :         return *this;

  0000c	89 45 f8	 mov	 DWORD PTR $T2[ebp], eax
; File C:\Program Files (x86)\Microsoft Visual Studio\2019\Community\VC\Tools\MSVC\14.28.29333\include\vector

; 1733 :         return _Mypair._Get_first();

  0000f	8b 45 f8	 mov	 eax, DWORD PTR $T2[ebp]
  00012	89 45 f4	 mov	 DWORD PTR $T1[ebp], eax

; 1612 :         _Destroy_range(_First, _Last, _Getal());

  00015	ff 75 f4	 push	 DWORD PTR $T1[ebp]
  00018	ff 75 0c	 push	 DWORD PTR __Last$[ebp]
  0001b	ff 75 08	 push	 DWORD PTR __First$[ebp]
  0001e	e8 00 00 00 00	 call	 ??$_Destroy_range@V?$allocator@VCSkyObjectQuad@@@std@@@std@@YAXPAVCSkyObjectQuad@@QAV1@AAV?$allocator@VCSkyObjectQuad@@@0@@Z ; std::_Destroy_range<std::allocator<CSkyObjectQuad> >
  00023	83 c4 0c	 add	 esp, 12			; 0000000cH

; 1613 :     }

  00026	c9		 leave
  00027	c2 08 00	 ret	 8
?_Destroy@?$vector@VCSkyObjectQuad@@V?$allocator@VCSkyObjectQuad@@@std@@@std@@AAEXPAVCSkyObjectQuad@@0@Z ENDP ; std::vector<CSkyObjectQuad,std::allocator<CSkyObjectQuad> >::_Destroy
_TEXT	ENDS
; Function compile flags: /Odspy
; File C:\Program Files (x86)\Microsoft Visual Studio\2019\Community\VC\Tools\MSVC\14.28.29333\include\vector
;	COMDAT ?at@?$vector@VCSkyObjectQuad@@V?$allocator@VCSkyObjectQuad@@@std@@@std@@QAEAAVCSkyObjectQuad@@I@Z
_TEXT	SEGMENT
_this$ = -8						; size = 4
__My_data$ = -4						; size = 4
__Pos$ = 8						; size = 4
?at@?$vector@VCSkyObjectQuad@@V?$allocator@VCSkyObjectQuad@@@std@@@std@@QAEAAVCSkyObjectQuad@@I@Z PROC ; std::vector<CSkyObjectQuad,std::allocator<CSkyObjectQuad> >::at, COMDAT
; _this$ = ecx

; 1517 :     _NODISCARD _Ty& at(const size_type _Pos) {

  00000	55		 push	 ebp
  00001	8b ec		 mov	 ebp, esp
  00003	51		 push	 ecx
  00004	51		 push	 ecx
  00005	89 4d f8	 mov	 DWORD PTR _this$[ebp], ecx

; 1518 :         auto& _My_data = _Mypair._Myval2;

  00008	8b 45 f8	 mov	 eax, DWORD PTR _this$[ebp]
  0000b	89 45 fc	 mov	 DWORD PTR __My_data$[ebp], eax

; 1519 :         if (static_cast<size_type>(_My_data._Mylast - _My_data._Myfirst) <= _Pos) {

  0000e	8b 45 fc	 mov	 eax, DWORD PTR __My_data$[ebp]
  00011	8b 4d fc	 mov	 ecx, DWORD PTR __My_data$[ebp]
  00014	8b 40 04	 mov	 eax, DWORD PTR [eax+4]
  00017	2b 01		 sub	 eax, DWORD PTR [ecx]
  00019	99		 cdq
  0001a	b9 2c 01 00 00	 mov	 ecx, 300		; 0000012cH
  0001f	f7 f9		 idiv	 ecx
  00021	3b 45 08	 cmp	 eax, DWORD PTR __Pos$[ebp]
  00024	77 05		 ja	 SHORT $LN2@at

; 1520 :             _Xrange();

  00026	e8 00 00 00 00	 call	 ?_Xrange@?$vector@VCSkyObjectQuad@@V?$allocator@VCSkyObjectQuad@@@std@@@std@@CAXXZ ; std::vector<CSkyObjectQuad,std::allocator<CSkyObjectQuad> >::_Xrange
$LN2@at:

; 1521 :         }
; 1522 : 
; 1523 :         return _My_data._Myfirst[_Pos];

  0002b	69 45 08 2c 01
	00 00		 imul	 eax, DWORD PTR __Pos$[ebp], 300
  00032	8b 4d fc	 mov	 ecx, DWORD PTR __My_data$[ebp]
  00035	03 01		 add	 eax, DWORD PTR [ecx]
$LN3@at:

; 1524 :     }

  00037	c9		 leave
  00038	c2 04 00	 ret	 4
?at@?$vector@VCSkyObjectQuad@@V?$allocator@VCSkyObjectQuad@@@std@@@std@@QAEAAVCSkyObjectQuad@@I@Z ENDP ; std::vector<CSkyObjectQuad,std::allocator<CSkyObjectQuad> >::at
_TEXT	ENDS
; Function compile flags: /Odspy
; File C:\Program Files (x86)\Microsoft Visual Studio\2019\Community\VC\Tools\MSVC\14.28.29333\include\vector
; File C:\Program Files (x86)\Microsoft Visual Studio\2019\Community\VC\Tools\MSVC\14.28.29333\include\xmemory
; File C:\Program Files (x86)\Microsoft Visual Studio\2019\Community\VC\Tools\MSVC\14.28.29333\include\vector
;	COMDAT ?clear@?$vector@VCSkyObjectQuad@@V?$allocator@VCSkyObjectQuad@@@std@@@std@@QAEXXZ
_TEXT	SEGMENT
__First$ = -32						; size = 4
__Last$ = -28						; size = 4
$T1 = -24						; size = 4
$T2 = -20						; size = 4
__Myfirst$ = -16					; size = 4
__Mylast$ = -12						; size = 4
_this$ = -8						; size = 4
__My_data$ = -4						; size = 4
?clear@?$vector@VCSkyObjectQuad@@V?$allocator@VCSkyObjectQuad@@@std@@@std@@QAEXXZ PROC ; std::vector<CSkyObjectQuad,std::allocator<CSkyObjectQuad> >::clear, COMDAT
; _this$ = ecx

; 1383 :     void clear() noexcept { // erase all

  00000	55		 push	 ebp
  00001	8b ec		 mov	 ebp, esp
  00003	83 ec 20	 sub	 esp, 32			; 00000020H
  00006	89 4d f8	 mov	 DWORD PTR _this$[ebp], ecx

; 1384 :         auto& _My_data    = _Mypair._Myval2;

  00009	8b 45 f8	 mov	 eax, DWORD PTR _this$[ebp]
  0000c	89 45 fc	 mov	 DWORD PTR __My_data$[ebp], eax

; 1385 :         pointer& _Myfirst = _My_data._Myfirst;

  0000f	8b 45 fc	 mov	 eax, DWORD PTR __My_data$[ebp]
  00012	89 45 f0	 mov	 DWORD PTR __Myfirst$[ebp], eax

; 1386 :         pointer& _Mylast  = _My_data._Mylast;

  00015	8b 45 fc	 mov	 eax, DWORD PTR __My_data$[ebp]
  00018	83 c0 04	 add	 eax, 4
  0001b	89 45 f4	 mov	 DWORD PTR __Mylast$[ebp], eax

; 1387 : 
; 1388 :         _My_data._Orphan_all();
; 1389 :         _Destroy(_Myfirst, _Mylast);

  0001e	8b 45 f4	 mov	 eax, DWORD PTR __Mylast$[ebp]
  00021	8b 00		 mov	 eax, DWORD PTR [eax]
  00023	89 45 e4	 mov	 DWORD PTR __Last$[ebp], eax
  00026	8b 45 f0	 mov	 eax, DWORD PTR __Myfirst$[ebp]
  00029	8b 00		 mov	 eax, DWORD PTR [eax]
  0002b	89 45 e0	 mov	 DWORD PTR __First$[ebp], eax

; 1733 :         return _Mypair._Get_first();

  0002e	8b 45 f8	 mov	 eax, DWORD PTR _this$[ebp]
; File C:\Program Files (x86)\Microsoft Visual Studio\2019\Community\VC\Tools\MSVC\14.28.29333\include\xmemory

; 1347 :         return *this;

  00031	89 45 ec	 mov	 DWORD PTR $T2[ebp], eax
; File C:\Program Files (x86)\Microsoft Visual Studio\2019\Community\VC\Tools\MSVC\14.28.29333\include\vector

; 1733 :         return _Mypair._Get_first();

  00034	8b 45 ec	 mov	 eax, DWORD PTR $T2[ebp]
  00037	89 45 e8	 mov	 DWORD PTR $T1[ebp], eax

; 1612 :         _Destroy_range(_First, _Last, _Getal());

  0003a	ff 75 e8	 push	 DWORD PTR $T1[ebp]
  0003d	ff 75 e4	 push	 DWORD PTR __Last$[ebp]
  00040	ff 75 e0	 push	 DWORD PTR __First$[ebp]
  00043	e8 00 00 00 00	 call	 ??$_Destroy_range@V?$allocator@VCSkyObjectQuad@@@std@@@std@@YAXPAVCSkyObjectQuad@@QAV1@AAV?$allocator@VCSkyObjectQuad@@@0@@Z ; std::_Destroy_range<std::allocator<CSkyObjectQuad> >
  00048	83 c4 0c	 add	 esp, 12			; 0000000cH

; 1390 :         _Mylast = _Myfirst;

  0004b	8b 45 f4	 mov	 eax, DWORD PTR __Mylast$[ebp]
  0004e	8b 4d f0	 mov	 ecx, DWORD PTR __Myfirst$[ebp]
  00051	8b 09		 mov	 ecx, DWORD PTR [ecx]
  00053	89 08		 mov	 DWORD PTR [eax], ecx

; 1391 :     }

  00055	c9		 leave
  00056	c3		 ret	 0
?clear@?$vector@VCSkyObjectQuad@@V?$allocator@VCSkyObjectQuad@@@std@@@std@@QAEXXZ ENDP ; std::vector<CSkyObjectQuad,std::allocator<CSkyObjectQuad> >::clear
_TEXT	ENDS
; Function compile flags: /Odspy
; File C:\Program Files (x86)\Microsoft Visual Studio\2019\Community\VC\Tools\MSVC\14.28.29333\include\xmemory
;	COMDAT ?deallocate@?$allocator@VCSkyObjectQuad@@@std@@QAEXQAVCSkyObjectQuad@@I@Z
_TEXT	SEGMENT
_this$ = -4						; size = 4
__Ptr$ = 8						; size = 4
__Count$ = 12						; size = 4
?deallocate@?$allocator@VCSkyObjectQuad@@@std@@QAEXQAVCSkyObjectQuad@@I@Z PROC ; std::allocator<CSkyObjectQuad>::deallocate, COMDAT
; _this$ = ecx

; 808  :     void deallocate(_Ty* const _Ptr, const size_t _Count) {

  00000	55		 push	 ebp
  00001	8b ec		 mov	 ebp, esp
  00003	51		 push	 ecx
  00004	89 4d fc	 mov	 DWORD PTR _this$[ebp], ecx

; 809  :         // no overflow check on the following multiply; we assume _Allocate did that check
; 810  :         _Deallocate<_New_alignof<_Ty>>(_Ptr, sizeof(_Ty) * _Count);

  00007	69 45 0c 2c 01
	00 00		 imul	 eax, DWORD PTR __Count$[ebp], 300
  0000e	50		 push	 eax
  0000f	ff 75 08	 push	 DWORD PTR __Ptr$[ebp]
  00012	e8 00 00 00 00	 call	 ??$_Deallocate@$07$0A@@std@@YAXPAXI@Z ; std::_Deallocate<8,0>
  00017	59		 pop	 ecx
  00018	59		 pop	 ecx

; 811  :     }

  00019	c9		 leave
  0001a	c2 08 00	 ret	 8
?deallocate@?$allocator@VCSkyObjectQuad@@@std@@QAEXQAVCSkyObjectQuad@@I@Z ENDP ; std::allocator<CSkyObjectQuad>::deallocate
_TEXT	ENDS
; Function compile flags: /Odspy
; File D:\Metin2 Server Files\mainline\SRC_2014\Metin2Client\EterLib\SkyBox.cpp
;	COMDAT ?DeleteTexture@CSkyObject@@IAEXPAVCGraphicImageInstance@@@Z
_TEXT	SEGMENT
_this$ = -4						; size = 4
_pImageInstance$ = 8					; size = 4
?DeleteTexture@CSkyObject@@IAEXPAVCGraphicImageInstance@@@Z PROC ; CSkyObject::DeleteTexture, COMDAT
; _this$ = ecx

; 176  : {

  00000	55		 push	 ebp
  00001	8b ec		 mov	 ebp, esp
  00003	51		 push	 ecx
  00004	89 4d fc	 mov	 DWORD PTR _this$[ebp], ecx

; 177  : 	if (pImageInstance)

  00007	83 7d 08 00	 cmp	 DWORD PTR _pImageInstance$[ebp], 0
  0000b	74 09		 je	 SHORT $LN1@DeleteText

; 178  : 		CGraphicImageInstance::Delete(pImageInstance);

  0000d	ff 75 08	 push	 DWORD PTR _pImageInstance$[ebp]
  00010	e8 00 00 00 00	 call	 ?Delete@CGraphicImageInstance@@SAXPAV1@@Z ; CGraphicImageInstance::Delete
  00015	59		 pop	 ecx
$LN1@DeleteText:

; 179  : }

  00016	c9		 leave
  00017	c2 04 00	 ret	 4
?DeleteTexture@CSkyObject@@IAEXPAVCGraphicImageInstance@@@Z ENDP ; CSkyObject::DeleteTexture
_TEXT	ENDS
; Function compile flags: /Odspy
; File D:\Metin2 Server Files\mainline\SRC_2014\Metin2Client\EterLib\SkyBox.cpp
; File D:\Metin2 Server Files\mainline\SRC_2014\Metin2Client\eterBase\Singleton.h
; File D:\Metin2 Server Files\mainline\SRC_2014\Metin2Client\EterLib\SkyBox.cpp
;	COMDAT ?GenerateTexture@CSkyObject@@IAEPAVCGraphicImageInstance@@PBD@Z
_TEXT	SEGMENT
_this$ = -16						; size = 4
$T1 = -12						; size = 4
_pImageInstance$ = -8					; size = 4
_pResource$ = -4					; size = 4
_szfilename$ = 8					; size = 4
?GenerateTexture@CSkyObject@@IAEPAVCGraphicImageInstance@@PBD@Z PROC ; CSkyObject::GenerateTexture, COMDAT
; _this$ = ecx

; 156  : {

  00000	55		 push	 ebp
  00001	8b ec		 mov	 ebp, esp
  00003	83 ec 10	 sub	 esp, 16			; 00000010H
  00006	89 4d f0	 mov	 DWORD PTR _this$[ebp], ecx

; 157  : 	assert(szfilename != NULL);
; 158  : 
; 159  : 	if (strlen(szfilename) <= 0)

  00009	ff 75 08	 push	 DWORD PTR _szfilename$[ebp]
  0000c	e8 00 00 00 00	 call	 _strlen
  00011	59		 pop	 ecx
; File D:\Metin2 Server Files\mainline\SRC_2014\Metin2Client\eterBase\Singleton.h

; 27   : 		return (*ms_singleton);

  00012	a1 00 00 00 00	 mov	 eax, DWORD PTR ?ms_singleton@?$CSingleton@VCResourceManager@@@@0PAVCResourceManager@@A ; CSingleton<CResourceManager>::ms_singleton
  00017	89 45 f4	 mov	 DWORD PTR $T1[ebp], eax
; File D:\Metin2 Server Files\mainline\SRC_2014\Metin2Client\EterLib\SkyBox.cpp

; 162  : 	CResource * pResource = CResourceManager::Instance().GetResourcePointer(szfilename);

  0001a	ff 75 08	 push	 DWORD PTR _szfilename$[ebp]
  0001d	8b 4d f4	 mov	 ecx, DWORD PTR $T1[ebp]
  00020	e8 00 00 00 00	 call	 ?GetResourcePointer@CResourceManager@@QAEPAVCResource@@PBD@Z ; CResourceManager::GetResourcePointer
  00025	89 45 fc	 mov	 DWORD PTR _pResource$[ebp], eax

; 163  : 
; 164  : 	if (!pResource->IsType(CGraphicImage::Type()))

  00028	e8 00 00 00 00	 call	 ?Type@CGraphicImage@@SAKXZ ; CGraphicImage::Type
  0002d	50		 push	 eax
  0002e	8b 4d fc	 mov	 ecx, DWORD PTR _pResource$[ebp]
  00031	e8 00 00 00 00	 call	 ?IsType@CResource@@QAE_NK@Z ; CResource::IsType
  00036	0f b6 c0	 movzx	 eax, al
  00039	85 c0		 test	 eax, eax
  0003b	75 04		 jne	 SHORT $LN3@GenerateTe

; 165  : 	{
; 166  : 		assert(false);
; 167  : 		return NULL;

  0003d	33 c0		 xor	 eax, eax
  0003f	eb 16		 jmp	 SHORT $LN1@GenerateTe
$LN3@GenerateTe:

; 168  : 	}
; 169  : 
; 170  : 	CGraphicImageInstance * pImageInstance = CGraphicImageInstance::New();

  00041	e8 00 00 00 00	 call	 ?New@CGraphicImageInstance@@SAPAV1@XZ ; CGraphicImageInstance::New
  00046	89 45 f8	 mov	 DWORD PTR _pImageInstance$[ebp], eax

; 171  : 	pImageInstance->SetImagePointer(static_cast<CGraphicImage *>(pResource));

  00049	ff 75 fc	 push	 DWORD PTR _pResource$[ebp]
  0004c	8b 4d f8	 mov	 ecx, DWORD PTR _pImageInstance$[ebp]
  0004f	e8 00 00 00 00	 call	 ?SetImagePointer@CGraphicImageInstance@@QAEXPAVCGraphicImage@@@Z ; CGraphicImageInstance::SetImagePointer

; 172  : 	return (pImageInstance);

  00054	8b 45 f8	 mov	 eax, DWORD PTR _pImageInstance$[ebp]
$LN1@GenerateTe:

; 173  : }

  00057	c9		 leave
  00058	c2 04 00	 ret	 4
?GenerateTexture@CSkyObject@@IAEPAVCGraphicImageInstance@@PBD@Z ENDP ; CSkyObject::GenerateTexture
_TEXT	ENDS
; Function compile flags: /Odspy
; File D:\Metin2 Server Files\mainline\SRC_2014\Metin2Client\EterLib\SkyBox.cpp
;	COMDAT ?StartTransition@CSkyObject@@UAEXXZ
_TEXT	SEGMENT
_this$ = -4						; size = 4
?StartTransition@CSkyObject@@UAEXXZ PROC		; CSkyObject::StartTransition, COMDAT
; _this$ = ecx

; 182  : {

  00000	55		 push	 ebp
  00001	8b ec		 mov	 ebp, esp
  00003	51		 push	 ecx
  00004	89 4d fc	 mov	 DWORD PTR _this$[ebp], ecx

; 183  : }

  00007	c9		 leave
  00008	c3		 ret	 0
?StartTransition@CSkyObject@@UAEXXZ ENDP		; CSkyObject::StartTransition
_TEXT	ENDS
; Function compile flags: /Odspy
; File D:\Metin2 Server Files\mainline\SRC_2014\Metin2Client\EterLib\SkyBox.cpp
; File D:\Metin2 Server Files\mainline\SRC_2014\Metin2Client\eterBase\Singleton.h
; File D:\Metin2 Server Files\mainline\SRC_2014\Metin2Client\EterLib\SkyBox.cpp
; File D:\Metin2 Server Files\mainline\SRC_2014\Metin2Client\EterLib\Camera.h
; File D:\Metin2 Server Files\mainline\SRC_2014\Metin2Client\EterLib\SkyBox.cpp
; File D:\Metin2 Server Files\mainline\SRC_2014\M2Data\include\d3dx8math.inl
; File D:\Metin2 Server Files\mainline\SRC_2014\Metin2Client\EterLib\SkyBox.cpp
;	COMDAT ?Update@CSkyObject@@UAEXXZ
_TEXT	SEGMENT
_this$ = -36						; size = 4
$T1 = -32						; size = 4
tv222 = -28						; size = 4
_this$ = -24						; size = 4
_this$ = -20						; size = 4
_v3Eye$ = -16						; size = 12
__$ArrayPad$ = -4					; size = 4
?Update@CSkyObject@@UAEXXZ PROC				; CSkyObject::Update, COMDAT
; _this$ = ecx

; 130  : {

  00000	55		 push	 ebp
  00001	8b ec		 mov	 ebp, esp
  00003	83 ec 24	 sub	 esp, 36			; 00000024H
  00006	a1 00 00 00 00	 mov	 eax, DWORD PTR ___security_cookie
  0000b	33 c5		 xor	 eax, ebp
  0000d	89 45 fc	 mov	 DWORD PTR __$ArrayPad$[ebp], eax
  00010	56		 push	 esi
  00011	57		 push	 edi
  00012	89 4d ec	 mov	 DWORD PTR _this$[ebp], ecx
; File D:\Metin2 Server Files\mainline\SRC_2014\Metin2Client\eterBase\Singleton.h

; 27   : 		return (*ms_singleton);

  00015	a1 00 00 00 00	 mov	 eax, DWORD PTR ?ms_singleton@?$CSingleton@VCCameraManager@@@@0PAVCCameraManager@@A ; CSingleton<CCameraManager>::ms_singleton
  0001a	89 45 e0	 mov	 DWORD PTR $T1[ebp], eax
; File D:\Metin2 Server Files\mainline\SRC_2014\Metin2Client\EterLib\SkyBox.cpp

; 131  : 	D3DXVECTOR3 v3Eye = CCameraManager::Instance().GetCurrentCamera()->GetEye();

  0001d	8b 4d e0	 mov	 ecx, DWORD PTR $T1[ebp]
  00020	e8 00 00 00 00	 call	 ?GetCurrentCamera@CCameraManager@@QAEPAVCCamera@@XZ ; CCameraManager::GetCurrentCamera
  00025	89 45 dc	 mov	 DWORD PTR _this$[ebp], eax
; File D:\Metin2 Server Files\mainline\SRC_2014\Metin2Client\EterLib\Camera.h

; 168  : 		const D3DXVECTOR3 & GetEye() const		{ return m_v3Eye; }

  00028	8b 75 dc	 mov	 esi, DWORD PTR _this$[ebp]
  0002b	83 c6 30	 add	 esi, 48			; 00000030H
; File D:\Metin2 Server Files\mainline\SRC_2014\Metin2Client\EterLib\SkyBox.cpp

; 131  : 	D3DXVECTOR3 v3Eye = CCameraManager::Instance().GetCurrentCamera()->GetEye();

  0002e	8d 7d f0	 lea	 edi, DWORD PTR _v3Eye$[ebp]
  00031	a5		 movsd
  00032	a5		 movsd
  00033	a5		 movsd

; 133  : 	if (m_v3Position == v3Eye)

  00034	8b 45 ec	 mov	 eax, DWORD PTR _this$[ebp]
  00037	05 bc 01 00 00	 add	 eax, 444		; 000001bcH
  0003c	89 45 e8	 mov	 DWORD PTR _this$[ebp], eax
; File D:\Metin2 Server Files\mainline\SRC_2014\M2Data\include\d3dx8math.inl

; 290  :     return x == v.x && y == v.y && z == v.z;

  0003f	8b 45 e8	 mov	 eax, DWORD PTR _this$[ebp]
  00042	f3 0f 10 00	 movss	 xmm0, DWORD PTR [eax]
  00046	0f 2e 45 f0	 ucomiss xmm0, DWORD PTR _v3Eye$[ebp]
  0004a	9f		 lahf
  0004b	f6 c4 44	 test	 ah, 68			; 00000044H
  0004e	7a 2d		 jp	 SHORT $LN12@Update
  00050	8b 45 e8	 mov	 eax, DWORD PTR _this$[ebp]
  00053	f3 0f 10 40 04	 movss	 xmm0, DWORD PTR [eax+4]
  00058	0f 2e 45 f4	 ucomiss xmm0, DWORD PTR _v3Eye$[ebp+4]
  0005c	9f		 lahf
  0005d	f6 c4 44	 test	 ah, 68			; 00000044H
  00060	7a 1b		 jp	 SHORT $LN12@Update
  00062	8b 45 e8	 mov	 eax, DWORD PTR _this$[ebp]
  00065	f3 0f 10 40 08	 movss	 xmm0, DWORD PTR [eax+8]
  0006a	0f 2e 45 f8	 ucomiss xmm0, DWORD PTR _v3Eye$[ebp+8]
  0006e	9f		 lahf
  0006f	f6 c4 44	 test	 ah, 68			; 00000044H
  00072	7a 09		 jp	 SHORT $LN12@Update
  00074	c7 45 e4 01 00
	00 00		 mov	 DWORD PTR tv222[ebp], 1
  0007b	eb 04		 jmp	 SHORT $LN13@Update
$LN12@Update:
  0007d	83 65 e4 00	 and	 DWORD PTR tv222[ebp], 0
$LN13@Update:
; File D:\Metin2 Server Files\mainline\SRC_2014\Metin2Client\EterLib\SkyBox.cpp

; 133  : 	if (m_v3Position == v3Eye)

  00081	83 7d e4 00	 cmp	 DWORD PTR tv222[ebp], 0
  00085	74 13		 je	 SHORT $LN3@Update

; 134  : 		if (m_bSkyMatrixUpdated == false)

  00087	8b 45 ec	 mov	 eax, DWORD PTR _this$[ebp]
  0008a	0f b6 80 f1 01
	00 00		 movzx	 eax, BYTE PTR [eax+497]
  00091	85 c0		 test	 eax, eax
  00093	75 05		 jne	 SHORT $LN3@Update

; 135  : 			return;

  00095	e9 99 00 00 00	 jmp	 $LN1@Update
$LN3@Update:

; 136  : 
; 137  : 	m_v3Position = v3Eye;

  0009a	8b 7d ec	 mov	 edi, DWORD PTR _this$[ebp]
  0009d	81 c7 bc 01 00
	00		 add	 edi, 444		; 000001bcH
  000a3	8d 75 f0	 lea	 esi, DWORD PTR _v3Eye$[ebp]
  000a6	a5		 movsd
  000a7	a5		 movsd
  000a8	a5		 movsd

; 138  : 
; 139  : 	m_matWorld._41 = m_v3Position.x;

  000a9	8b 45 ec	 mov	 eax, DWORD PTR _this$[ebp]
  000ac	8b 4d ec	 mov	 ecx, DWORD PTR _this$[ebp]
  000af	8b 89 bc 01 00
	00		 mov	 ecx, DWORD PTR [ecx+444]
  000b5	89 88 6c 01 00
	00		 mov	 DWORD PTR [eax+364], ecx

; 140  : 	m_matWorld._42 = m_v3Position.y;

  000bb	8b 45 ec	 mov	 eax, DWORD PTR _this$[ebp]
  000be	8b 4d ec	 mov	 ecx, DWORD PTR _this$[ebp]
  000c1	8b 89 c0 01 00
	00		 mov	 ecx, DWORD PTR [ecx+448]
  000c7	89 88 70 01 00
	00		 mov	 DWORD PTR [eax+368], ecx

; 141  : 	m_matWorld._43 = m_v3Position.z;

  000cd	8b 45 ec	 mov	 eax, DWORD PTR _this$[ebp]
  000d0	8b 4d ec	 mov	 ecx, DWORD PTR _this$[ebp]
  000d3	8b 89 c4 01 00
	00		 mov	 ecx, DWORD PTR [ecx+452]
  000d9	89 88 74 01 00
	00		 mov	 DWORD PTR [eax+372], ecx

; 142  : 
; 143  : 	m_matWorldCloud._41 = m_v3Position.x;

  000df	8b 45 ec	 mov	 eax, DWORD PTR _this$[ebp]
  000e2	8b 4d ec	 mov	 ecx, DWORD PTR _this$[ebp]
  000e5	8b 89 bc 01 00
	00		 mov	 ecx, DWORD PTR [ecx+444]
  000eb	89 48 70	 mov	 DWORD PTR [eax+112], ecx

; 144  : 	m_matWorldCloud._42 = m_v3Position.y;

  000ee	8b 45 ec	 mov	 eax, DWORD PTR _this$[ebp]
  000f1	8b 4d ec	 mov	 ecx, DWORD PTR _this$[ebp]
  000f4	8b 89 c0 01 00
	00		 mov	 ecx, DWORD PTR [ecx+448]
  000fa	89 48 74	 mov	 DWORD PTR [eax+116], ecx

; 145  : 	m_matWorldCloud._43 = m_v3Position.z + m_fCloudHeight;

  000fd	8b 45 ec	 mov	 eax, DWORD PTR _this$[ebp]
  00100	8b 4d ec	 mov	 ecx, DWORD PTR _this$[ebp]
  00103	f3 0f 10 80 c4
	01 00 00	 movss	 xmm0, DWORD PTR [eax+452]
  0010b	f3 0f 58 81 14
	01 00 00	 addss	 xmm0, DWORD PTR [ecx+276]
  00113	8b 45 ec	 mov	 eax, DWORD PTR _this$[ebp]
  00116	f3 0f 11 40 78	 movss	 DWORD PTR [eax+120], xmm0

; 146  : 
; 147  : 	if (m_bSkyMatrixUpdated)

  0011b	8b 45 ec	 mov	 eax, DWORD PTR _this$[ebp]
  0011e	0f b6 80 f1 01
	00 00		 movzx	 eax, BYTE PTR [eax+497]
  00125	85 c0		 test	 eax, eax
  00127	74 0a		 je	 SHORT $LN4@Update

; 148  : 		m_bSkyMatrixUpdated = false;

  00129	8b 45 ec	 mov	 eax, DWORD PTR _this$[ebp]
  0012c	c6 80 f1 01 00
	00 00		 mov	 BYTE PTR [eax+497], 0
$LN4@Update:
$LN1@Update:

; 149  : }

  00133	5f		 pop	 edi
  00134	5e		 pop	 esi
  00135	8b 4d fc	 mov	 ecx, DWORD PTR __$ArrayPad$[ebp]
  00138	33 cd		 xor	 ecx, ebp
  0013a	e8 00 00 00 00	 call	 @__security_check_cookie@4
  0013f	c9		 leave
  00140	c3		 ret	 0
?Update@CSkyObject@@UAEXXZ ENDP				; CSkyObject::Update
_TEXT	ENDS
; Function compile flags: /Odspy
; File D:\Metin2 Server Files\mainline\SRC_2014\Metin2Client\EterLib\SkyBox.cpp
;	COMDAT ?Render@CSkyObject@@UAEXXZ
_TEXT	SEGMENT
_this$ = -4						; size = 4
?Render@CSkyObject@@UAEXXZ PROC				; CSkyObject::Render, COMDAT
; _this$ = ecx

; 152  : {

  00000	55		 push	 ebp
  00001	8b ec		 mov	 ebp, esp
  00003	51		 push	 ecx
  00004	89 4d fc	 mov	 DWORD PTR _this$[ebp], ecx

; 153  : }

  00007	c9		 leave
  00008	c3		 ret	 0
?Render@CSkyObject@@UAEXXZ ENDP				; CSkyObject::Render
_TEXT	ENDS
; Function compile flags: /Odspy
; File D:\Metin2 Server Files\mainline\SRC_2014\Metin2Client\EterLib\SkyBox.cpp
;	COMDAT ?Destroy@CSkyObject@@UAEXXZ
_TEXT	SEGMENT
_this$ = -4						; size = 4
?Destroy@CSkyObject@@UAEXXZ PROC			; CSkyObject::Destroy, COMDAT
; _this$ = ecx

; 126  : {

  00000	55		 push	 ebp
  00001	8b ec		 mov	 ebp, esp
  00003	51		 push	 ecx
  00004	89 4d fc	 mov	 DWORD PTR _this$[ebp], ecx

; 127  : }

  00007	c9		 leave
  00008	c3		 ret	 0
?Destroy@CSkyObject@@UAEXXZ ENDP			; CSkyObject::Destroy
_TEXT	ENDS
; Function compile flags: /Odspy
; File D:\Metin2 Server Files\mainline\SRC_2014\Metin2Client\EterLib\SkyBox.cpp
; File C:\Program Files (x86)\Microsoft Visual Studio\2019\Community\VC\Tools\MSVC\14.28.29333\include\xstring
; File D:\Metin2 Server Files\mainline\SRC_2014\Metin2Client\EterLib\SkyBox.cpp
;	COMDAT ??1CSkyObject@@UAE@XZ
_TEXT	SEGMENT
_this$ = -16						; size = 4
__$EHRec$ = -12						; size = 12
??1CSkyObject@@UAE@XZ PROC				; CSkyObject::~CSkyObject, COMDAT
; _this$ = ecx

; 121  : {

  00000	55		 push	 ebp
  00001	8b ec		 mov	 ebp, esp
  00003	6a ff		 push	 -1
  00005	68 00 00 00 00	 push	 __ehhandler$??1CSkyObject@@UAE@XZ
  0000a	64 a1 00 00 00
	00		 mov	 eax, DWORD PTR fs:0
  00010	50		 push	 eax
  00011	51		 push	 ecx
  00012	a1 00 00 00 00	 mov	 eax, DWORD PTR ___security_cookie
  00017	33 c5		 xor	 eax, ebp
  00019	50		 push	 eax
  0001a	8d 45 f4	 lea	 eax, DWORD PTR __$EHRec$[ebp]
  0001d	64 a3 00 00 00
	00		 mov	 DWORD PTR fs:0, eax
  00023	89 4d f0	 mov	 DWORD PTR _this$[ebp], ecx
  00026	8b 45 f0	 mov	 eax, DWORD PTR _this$[ebp]
  00029	c7 00 00 00 00
	00		 mov	 DWORD PTR [eax], OFFSET ??_7CSkyObject@@6B@

; 122  : 	Destroy();

  0002f	8b 4d f0	 mov	 ecx, DWORD PTR _this$[ebp]
  00032	e8 00 00 00 00	 call	 ?Destroy@CSkyObject@@UAEXXZ ; CSkyObject::Destroy

; 123  : }

  00037	8b 4d f0	 mov	 ecx, DWORD PTR _this$[ebp]
  0003a	81 c1 f4 01 00
	00		 add	 ecx, 500		; 000001f4H
  00040	e8 00 00 00 00	 call	 ??1CGraphicImageInstance@@UAE@XZ ; CGraphicImageInstance::~CGraphicImageInstance
  00045	8b 4d f0	 mov	 ecx, DWORD PTR _this$[ebp]
  00048	81 c1 d8 01 00
	00		 add	 ecx, 472		; 000001d8H
; File C:\Program Files (x86)\Microsoft Visual Studio\2019\Community\VC\Tools\MSVC\14.28.29333\include\xstring

; 2801 :         _Tidy_deallocate();

  0004e	e8 00 00 00 00	 call	 ?_Tidy_deallocate@?$basic_string@DU?$char_traits@D@std@@V?$allocator@D@2@@std@@AAEXXZ ; std::basic_string<char,std::char_traits<char>,std::allocator<char> >::_Tidy_deallocate
; File D:\Metin2 Server Files\mainline\SRC_2014\Metin2Client\EterLib\SkyBox.cpp

; 123  : }

  00053	8b 4d f0	 mov	 ecx, DWORD PTR _this$[ebp]
  00056	81 c1 34 01 00
	00		 add	 ecx, 308		; 00000134H
  0005c	e8 00 00 00 00	 call	 ??1?$_Tree@V?$_Tmap_traits@V?$basic_string@DU?$char_traits@D@std@@V?$allocator@D@2@@std@@PAVCGraphicImageInstance@@U?$less@V?$basic_string@DU?$char_traits@D@std@@V?$allocator@D@2@@std@@@2@V?$allocator@U?$pair@$$CBV?$basic_string@DU?$char_traits@D@std@@V?$allocator@D@2@@std@@PAVCGraphicImageInstance@@@std@@@2@$0A@@std@@@std@@QAE@XZ ; std::_Tree<std::_Tmap_traits<std::basic_string<char,std::char_traits<char>,std::allocator<char> >,CGraphicImageInstance *,std::less<std::basic_string<char,std::char_traits<char>,std::allocator<char> > >,std::allocator<std::pair<std::basic_string<char,std::char_traits<char>,std::allocator<char> > const ,CGraphicImageInstance *> >,0> >::~_Tree<std::_Tmap_traits<std::basic_string<char,std::char_traits<char>,std::allocator<char> >,CGraphicImageInstance *,std::less<std::basic_string<char,std::char_traits<char>,std::allocator<char> > >,std::allocator<std::pair<std::basic_string<char,std::char_traits<char>,std::allocator<char> > const ,CGraphicImageInstance *> >,0> >
  00061	8b 4d f0	 mov	 ecx, DWORD PTR _this$[ebp]
  00064	83 c1 04	 add	 ecx, 4
  00067	e8 00 00 00 00	 call	 ??1TSkyObjectFace@CSkyObject@@QAE@XZ
  0006c	8b 4d f0	 mov	 ecx, DWORD PTR _this$[ebp]
  0006f	e8 00 00 00 00	 call	 ??1CScreen@@UAE@XZ	; CScreen::~CScreen
  00074	8b 4d f4	 mov	 ecx, DWORD PTR __$EHRec$[ebp]
  00077	64 89 0d 00 00
	00 00		 mov	 DWORD PTR fs:0, ecx
  0007e	59		 pop	 ecx
  0007f	c9		 leave
  00080	c3		 ret	 0
  00081	cc		 int	 3
  00082	cc		 int	 3
  00083	cc		 int	 3
  00084	cc		 int	 3
  00085	cc		 int	 3
_TEXT	ENDS
;	COMDAT text$x
text$x	SEGMENT
__ehhandler$??1CSkyObject@@UAE@XZ:
  00000	90		 npad	 1
  00001	90		 npad	 1
  00002	8b 54 24 08	 mov	 edx, DWORD PTR [esp+8]
  00006	8d 42 0c	 lea	 eax, DWORD PTR [edx+12]
  00009	8b 4a f8	 mov	 ecx, DWORD PTR [edx-8]
  0000c	33 c8		 xor	 ecx, eax
  0000e	e8 00 00 00 00	 call	 @__security_check_cookie@4
  00013	b8 00 00 00 00	 mov	 eax, OFFSET __ehfuncinfo$??1CSkyObject@@UAE@XZ
  00018	e9 00 00 00 00	 jmp	 ___CxxFrameHandler3
text$x	ENDS
??1CSkyObject@@UAE@XZ ENDP				; CSkyObject::~CSkyObject
; Function compile flags: /Odspy
; File D:\Metin2 Server Files\mainline\SRC_2014\Metin2Client\EterLib\SkyBox.cpp
; File C:\Program Files (x86)\Microsoft Visual Studio\2019\Community\VC\Tools\MSVC\14.28.29333\include\map
; File D:\Metin2 Server Files\mainline\SRC_2014\Metin2Client\EterLib\SkyBox.cpp
; File D:\Metin2 Server Files\mainline\SRC_2014\M2Data\include\d3dx8math.inl
; File D:\Metin2 Server Files\mainline\SRC_2014\Metin2Client\EterLib\SkyBox.cpp
; File C:\Program Files (x86)\Microsoft Visual Studio\2019\Community\VC\Tools\MSVC\14.28.29333\include\xstring
; File C:\Program Files (x86)\Microsoft Visual Studio\2019\Community\VC\Tools\MSVC\14.28.29333\include\xmemory
; File C:\Program Files (x86)\Microsoft Visual Studio\2019\Community\VC\Tools\MSVC\14.28.29333\include\xstring
; File D:\Metin2 Server Files\mainline\SRC_2014\Metin2Client\EterLib\SkyBox.cpp
; File D:\Metin2 Server Files\mainline\SRC_2014\M2Data\include\d3dx8math.inl
; File D:\Metin2 Server Files\mainline\SRC_2014\Metin2Client\EterLib\SkyBox.cpp
; File D:\Metin2 Server Files\mainline\SRC_2014\M2Data\include\d3dx8math.inl
; File D:\Metin2 Server Files\mainline\SRC_2014\Metin2Client\EterLib\SkyBox.cpp
; File D:\Metin2 Server Files\mainline\SRC_2014\M2Data\include\d3dx8math.inl
; File D:\Metin2 Server Files\mainline\SRC_2014\Metin2Client\eterBase\Singleton.h
; File D:\Metin2 Server Files\mainline\SRC_2014\Metin2Client\EterLib\SkyBox.cpp
;	COMDAT ??0CSkyObject@@QAE@XZ
_TEXT	SEGMENT
$T2 = -52						; size = 4
_this$ = -48						; size = 4
_this$ = -44						; size = 4
_this$ = -40						; size = 4
_this$ = -36						; size = 4
_pOut$ = -32						; size = 4
_pOut$ = -28						; size = 4
_pOut$ = -24						; size = 4
_this$ = -20						; size = 4
$T3 = -13						; size = 1
__$EHRec$ = -12						; size = 12
??0CSkyObject@@QAE@XZ PROC				; CSkyObject::CSkyObject, COMDAT
; _this$ = ecx

; 106  : {

  00000	55		 push	 ebp
  00001	8b ec		 mov	 ebp, esp
  00003	6a ff		 push	 -1
  00005	68 00 00 00 00	 push	 __ehhandler$??0CSkyObject@@QAE@XZ
  0000a	64 a1 00 00 00
	00		 mov	 eax, DWORD PTR fs:0
  00010	50		 push	 eax
  00011	83 ec 28	 sub	 esp, 40			; 00000028H
  00014	a1 00 00 00 00	 mov	 eax, DWORD PTR ___security_cookie
  00019	33 c5		 xor	 eax, ebp
  0001b	50		 push	 eax
  0001c	8d 45 f4	 lea	 eax, DWORD PTR __$EHRec$[ebp]
  0001f	64 a3 00 00 00
	00		 mov	 DWORD PTR fs:0, eax
  00025	89 4d ec	 mov	 DWORD PTR _this$[ebp], ecx
  00028	8b 4d ec	 mov	 ecx, DWORD PTR _this$[ebp]
  0002b	e8 00 00 00 00	 call	 ??0CScreen@@QAE@XZ	; CScreen::CScreen
  00030	83 65 fc 00	 and	 DWORD PTR __$EHRec$[ebp+8], 0
  00034	8b 45 ec	 mov	 eax, DWORD PTR _this$[ebp]
  00037	c7 00 00 00 00
	00		 mov	 DWORD PTR [eax], OFFSET ??_7CSkyObject@@6B@
  0003d	8b 4d ec	 mov	 ecx, DWORD PTR _this$[ebp]
  00040	83 c1 04	 add	 ecx, 4
  00043	e8 00 00 00 00	 call	 ??0TSkyObjectFace@CSkyObject@@QAE@XZ
  00048	c6 45 fc 01	 mov	 BYTE PTR __$EHRec$[ebp+8], 1
  0004c	8b 45 ec	 mov	 eax, DWORD PTR _this$[ebp]
  0004f	05 34 01 00 00	 add	 eax, 308		; 00000134H
  00054	89 45 d4	 mov	 DWORD PTR _this$[ebp], eax
; File C:\Program Files (x86)\Microsoft Visual Studio\2019\Community\VC\Tools\MSVC\14.28.29333\include\map

; 107  :     map() : _Mybase(key_compare()) {}

  00057	8d 45 f3	 lea	 eax, DWORD PTR $T3[ebp]
  0005a	50		 push	 eax
  0005b	8b 4d d4	 mov	 ecx, DWORD PTR _this$[ebp]
  0005e	e8 00 00 00 00	 call	 ??0?$_Tree@V?$_Tmap_traits@V?$basic_string@DU?$char_traits@D@std@@V?$allocator@D@2@@std@@PAVCGraphicImageInstance@@U?$less@V?$basic_string@DU?$char_traits@D@std@@V?$allocator@D@2@@std@@@2@V?$allocator@U?$pair@$$CBV?$basic_string@DU?$char_traits@D@std@@V?$allocator@D@2@@std@@PAVCGraphicImageInstance@@@std@@@2@$0A@@std@@@std@@QAE@ABU?$less@V?$basic_string@DU?$char_traits@D@std@@V?$allocator@D@2@@std@@@1@@Z ; std::_Tree<std::_Tmap_traits<std::basic_string<char,std::char_traits<char>,std::allocator<char> >,CGraphicImageInstance *,std::less<std::basic_string<char,std::char_traits<char>,std::allocator<char> > >,std::allocator<std::pair<std::basic_string<char,std::char_traits<char>,std::allocator<char> > const ,CGraphicImageInstance *> >,0> >::_Tree<std::_Tmap_traits<std::basic_string<char,std::char_traits<char>,std::allocator<char> >,CGraphicImageInstance *,std::less<std::basic_string<char,std::char_traits<char>,std::allocator<char> > >,std::allocator<std::pair<std::basic_string<char,std::char_traits<char>,std::allocator<char> > const ,CGraphicImageInstance *> >,0> >
; File D:\Metin2 Server Files\mainline\SRC_2014\Metin2Client\EterLib\SkyBox.cpp

; 106  : {

  00063	c6 45 fc 02	 mov	 BYTE PTR __$EHRec$[ebp+8], 2

; 102  : 	m_v3Position(0.0f, 0.0f, 0.0f),

  00067	8b 45 ec	 mov	 eax, DWORD PTR _this$[ebp]
  0006a	05 bc 01 00 00	 add	 eax, 444		; 000001bcH
  0006f	89 45 dc	 mov	 DWORD PTR _this$[ebp], eax
; File D:\Metin2 Server Files\mainline\SRC_2014\M2Data\include\d3dx8math.inl

; 180  :     x = fx;

  00072	8b 45 dc	 mov	 eax, DWORD PTR _this$[ebp]
  00075	0f 57 c0	 xorps	 xmm0, xmm0
  00078	f3 0f 11 00	 movss	 DWORD PTR [eax], xmm0

; 181  :     y = fy;

  0007c	8b 45 dc	 mov	 eax, DWORD PTR _this$[ebp]
  0007f	0f 57 c0	 xorps	 xmm0, xmm0
  00082	f3 0f 11 40 04	 movss	 DWORD PTR [eax+4], xmm0

; 182  :     z = fz;

  00087	8b 45 dc	 mov	 eax, DWORD PTR _this$[ebp]
  0008a	0f 57 c0	 xorps	 xmm0, xmm0
  0008d	f3 0f 11 40 08	 movss	 DWORD PTR [eax+8], xmm0
; File D:\Metin2 Server Files\mainline\SRC_2014\Metin2Client\EterLib\SkyBox.cpp

; 103  : 	m_fScaleX(1.0f),

  00092	8b 45 ec	 mov	 eax, DWORD PTR _this$[ebp]
  00095	f3 0f 10 05 00
	00 00 00	 movss	 xmm0, DWORD PTR __real@3f800000
  0009d	f3 0f 11 80 c8
	01 00 00	 movss	 DWORD PTR [eax+456], xmm0

; 104  : 	m_fScaleY(1.0f),

  000a5	8b 45 ec	 mov	 eax, DWORD PTR _this$[ebp]
  000a8	f3 0f 10 05 00
	00 00 00	 movss	 xmm0, DWORD PTR __real@3f800000
  000b0	f3 0f 11 80 cc
	01 00 00	 movss	 DWORD PTR [eax+460], xmm0

; 105  : 	m_fScaleZ(1.0f)

  000b8	8b 45 ec	 mov	 eax, DWORD PTR _this$[ebp]
  000bb	f3 0f 10 05 00
	00 00 00	 movss	 xmm0, DWORD PTR __real@3f800000
  000c3	f3 0f 11 80 d0
	01 00 00	 movss	 DWORD PTR [eax+464], xmm0

; 106  : {

  000cb	8b 45 ec	 mov	 eax, DWORD PTR _this$[ebp]
  000ce	05 d8 01 00 00	 add	 eax, 472		; 000001d8H
  000d3	89 45 d8	 mov	 DWORD PTR _this$[ebp], eax
; File C:\Program Files (x86)\Microsoft Visual Studio\2019\Community\VC\Tools\MSVC\14.28.29333\include\xstring

; 2365 :     basic_string() noexcept(is_nothrow_default_constructible_v<_Alty>) : _Mypair(_Zero_then_variadic_args_t{}) {

  000d6	8b 45 d8	 mov	 eax, DWORD PTR _this$[ebp]
  000d9	89 45 d0	 mov	 DWORD PTR _this$[ebp], eax
; File C:\Program Files (x86)\Microsoft Visual Studio\2019\Community\VC\Tools\MSVC\14.28.29333\include\xmemory

; 1339 :         : _Ty1(), _Myval2(_STD forward<_Other2>(_Val2)...) {}

  000dc	8b 4d d0	 mov	 ecx, DWORD PTR _this$[ebp]
  000df	e8 00 00 00 00	 call	 ??0?$_String_val@U?$_Simple_types@D@std@@@std@@QAE@XZ ; std::_String_val<std::_Simple_types<char> >::_String_val<std::_Simple_types<char> >
; File C:\Program Files (x86)\Microsoft Visual Studio\2019\Community\VC\Tools\MSVC\14.28.29333\include\xstring

; 2367 :         _Tidy_init();

  000e4	8b 4d d8	 mov	 ecx, DWORD PTR _this$[ebp]
  000e7	e8 00 00 00 00	 call	 ?_Tidy_init@?$basic_string@DU?$char_traits@D@std@@V?$allocator@D@2@@std@@AAEXXZ ; std::basic_string<char,std::char_traits<char>,std::allocator<char> >::_Tidy_init
; File D:\Metin2 Server Files\mainline\SRC_2014\Metin2Client\EterLib\SkyBox.cpp

; 106  : {

  000ec	c6 45 fc 03	 mov	 BYTE PTR __$EHRec$[ebp+8], 3
  000f0	8b 4d ec	 mov	 ecx, DWORD PTR _this$[ebp]
  000f3	81 c1 f4 01 00
	00		 add	 ecx, 500		; 000001f4H
  000f9	e8 00 00 00 00	 call	 ??0CGraphicImageInstance@@QAE@XZ ; CGraphicImageInstance::CGraphicImageInstance
  000fe	c6 45 fc 04	 mov	 BYTE PTR __$EHRec$[ebp+8], 4

; 107  : 	D3DXMatrixIdentity(&m_matWorld);

  00102	8b 45 ec	 mov	 eax, DWORD PTR _this$[ebp]
  00105	05 3c 01 00 00	 add	 eax, 316		; 0000013cH
  0010a	89 45 e8	 mov	 DWORD PTR _pOut$[ebp], eax
; File D:\Metin2 Server Files\mainline\SRC_2014\M2Data\include\d3dx8math.inl

; 1516 :     pOut->m[0][1] = pOut->m[0][2] = pOut->m[0][3] =

  0010d	6a 10		 push	 16			; 00000010H
  0010f	58		 pop	 eax
  00110	6b c0 03	 imul	 eax, eax, 3
  00113	03 45 e8	 add	 eax, DWORD PTR _pOut$[ebp]
  00116	6a 04		 push	 4
  00118	59		 pop	 ecx
  00119	d1 e1		 shl	 ecx, 1
  0011b	0f 57 c0	 xorps	 xmm0, xmm0
  0011e	f3 0f 11 04 08	 movss	 DWORD PTR [eax+ecx], xmm0
  00123	6a 10		 push	 16			; 00000010H
  00125	58		 pop	 eax
  00126	6b c0 03	 imul	 eax, eax, 3
  00129	03 45 e8	 add	 eax, DWORD PTR _pOut$[ebp]
  0012c	6a 04		 push	 4
  0012e	59		 pop	 ecx
  0012f	c1 e1 00	 shl	 ecx, 0
  00132	0f 57 c0	 xorps	 xmm0, xmm0
  00135	f3 0f 11 04 08	 movss	 DWORD PTR [eax+ecx], xmm0
  0013a	6a 10		 push	 16			; 00000010H
  0013c	58		 pop	 eax
  0013d	6b c0 03	 imul	 eax, eax, 3
  00140	03 45 e8	 add	 eax, DWORD PTR _pOut$[ebp]
  00143	6a 04		 push	 4
  00145	59		 pop	 ecx
  00146	6b c9 00	 imul	 ecx, ecx, 0
  00149	0f 57 c0	 xorps	 xmm0, xmm0
  0014c	f3 0f 11 04 08	 movss	 DWORD PTR [eax+ecx], xmm0
  00151	6a 10		 push	 16			; 00000010H
  00153	58		 pop	 eax
  00154	d1 e0		 shl	 eax, 1
  00156	03 45 e8	 add	 eax, DWORD PTR _pOut$[ebp]
  00159	6a 04		 push	 4
  0015b	59		 pop	 ecx
  0015c	6b c9 03	 imul	 ecx, ecx, 3
  0015f	0f 57 c0	 xorps	 xmm0, xmm0
  00162	f3 0f 11 04 08	 movss	 DWORD PTR [eax+ecx], xmm0
  00167	6a 10		 push	 16			; 00000010H
  00169	58		 pop	 eax
  0016a	d1 e0		 shl	 eax, 1
  0016c	03 45 e8	 add	 eax, DWORD PTR _pOut$[ebp]
  0016f	6a 04		 push	 4
  00171	59		 pop	 ecx
  00172	c1 e1 00	 shl	 ecx, 0
  00175	0f 57 c0	 xorps	 xmm0, xmm0
  00178	f3 0f 11 04 08	 movss	 DWORD PTR [eax+ecx], xmm0
  0017d	6a 10		 push	 16			; 00000010H
  0017f	58		 pop	 eax
  00180	d1 e0		 shl	 eax, 1
  00182	03 45 e8	 add	 eax, DWORD PTR _pOut$[ebp]
  00185	6a 04		 push	 4
  00187	59		 pop	 ecx
  00188	6b c9 00	 imul	 ecx, ecx, 0
  0018b	0f 57 c0	 xorps	 xmm0, xmm0
  0018e	f3 0f 11 04 08	 movss	 DWORD PTR [eax+ecx], xmm0
  00193	6a 10		 push	 16			; 00000010H
  00195	58		 pop	 eax
  00196	c1 e0 00	 shl	 eax, 0
  00199	03 45 e8	 add	 eax, DWORD PTR _pOut$[ebp]
  0019c	6a 04		 push	 4
  0019e	59		 pop	 ecx
  0019f	6b c9 03	 imul	 ecx, ecx, 3
  001a2	0f 57 c0	 xorps	 xmm0, xmm0
  001a5	f3 0f 11 04 08	 movss	 DWORD PTR [eax+ecx], xmm0
  001aa	6a 10		 push	 16			; 00000010H
  001ac	58		 pop	 eax
  001ad	c1 e0 00	 shl	 eax, 0
  001b0	03 45 e8	 add	 eax, DWORD PTR _pOut$[ebp]
  001b3	6a 04		 push	 4
  001b5	59		 pop	 ecx
  001b6	d1 e1		 shl	 ecx, 1
  001b8	0f 57 c0	 xorps	 xmm0, xmm0
  001bb	f3 0f 11 04 08	 movss	 DWORD PTR [eax+ecx], xmm0
  001c0	6a 10		 push	 16			; 00000010H
  001c2	58		 pop	 eax
  001c3	c1 e0 00	 shl	 eax, 0
  001c6	03 45 e8	 add	 eax, DWORD PTR _pOut$[ebp]
  001c9	6a 04		 push	 4
  001cb	59		 pop	 ecx
  001cc	6b c9 00	 imul	 ecx, ecx, 0
  001cf	0f 57 c0	 xorps	 xmm0, xmm0
  001d2	f3 0f 11 04 08	 movss	 DWORD PTR [eax+ecx], xmm0
  001d7	6a 10		 push	 16			; 00000010H
  001d9	58		 pop	 eax
  001da	6b c0 00	 imul	 eax, eax, 0
  001dd	03 45 e8	 add	 eax, DWORD PTR _pOut$[ebp]
  001e0	6a 04		 push	 4
  001e2	59		 pop	 ecx
  001e3	6b c9 03	 imul	 ecx, ecx, 3
  001e6	0f 57 c0	 xorps	 xmm0, xmm0
  001e9	f3 0f 11 04 08	 movss	 DWORD PTR [eax+ecx], xmm0
  001ee	6a 10		 push	 16			; 00000010H
  001f0	58		 pop	 eax
  001f1	6b c0 00	 imul	 eax, eax, 0
  001f4	03 45 e8	 add	 eax, DWORD PTR _pOut$[ebp]
  001f7	6a 04		 push	 4
  001f9	59		 pop	 ecx
  001fa	d1 e1		 shl	 ecx, 1
  001fc	0f 57 c0	 xorps	 xmm0, xmm0
  001ff	f3 0f 11 04 08	 movss	 DWORD PTR [eax+ecx], xmm0
  00204	6a 10		 push	 16			; 00000010H
  00206	58		 pop	 eax
  00207	6b c0 00	 imul	 eax, eax, 0
  0020a	03 45 e8	 add	 eax, DWORD PTR _pOut$[ebp]
  0020d	6a 04		 push	 4
  0020f	59		 pop	 ecx
  00210	c1 e1 00	 shl	 ecx, 0
  00213	0f 57 c0	 xorps	 xmm0, xmm0
  00216	f3 0f 11 04 08	 movss	 DWORD PTR [eax+ecx], xmm0

; 1517 :     pOut->m[1][0] = pOut->m[1][2] = pOut->m[1][3] =
; 1518 :     pOut->m[2][0] = pOut->m[2][1] = pOut->m[2][3] =
; 1519 :     pOut->m[3][0] = pOut->m[3][1] = pOut->m[3][2] = 0.0f;
; 1520 : 
; 1521 :     pOut->m[0][0] = pOut->m[1][1] = pOut->m[2][2] = pOut->m[3][3] = 1.0f;

  0021b	6a 10		 push	 16			; 00000010H
  0021d	58		 pop	 eax
  0021e	6b c0 03	 imul	 eax, eax, 3
  00221	03 45 e8	 add	 eax, DWORD PTR _pOut$[ebp]
  00224	6a 04		 push	 4
  00226	59		 pop	 ecx
  00227	6b c9 03	 imul	 ecx, ecx, 3
  0022a	f3 0f 10 05 00
	00 00 00	 movss	 xmm0, DWORD PTR __real@3f800000
  00232	f3 0f 11 04 08	 movss	 DWORD PTR [eax+ecx], xmm0
  00237	6a 10		 push	 16			; 00000010H
  00239	58		 pop	 eax
  0023a	d1 e0		 shl	 eax, 1
  0023c	03 45 e8	 add	 eax, DWORD PTR _pOut$[ebp]
  0023f	6a 04		 push	 4
  00241	59		 pop	 ecx
  00242	d1 e1		 shl	 ecx, 1
  00244	f3 0f 10 05 00
	00 00 00	 movss	 xmm0, DWORD PTR __real@3f800000
  0024c	f3 0f 11 04 08	 movss	 DWORD PTR [eax+ecx], xmm0
  00251	6a 10		 push	 16			; 00000010H
  00253	58		 pop	 eax
  00254	c1 e0 00	 shl	 eax, 0
  00257	03 45 e8	 add	 eax, DWORD PTR _pOut$[ebp]
  0025a	6a 04		 push	 4
  0025c	59		 pop	 ecx
  0025d	c1 e1 00	 shl	 ecx, 0
  00260	f3 0f 10 05 00
	00 00 00	 movss	 xmm0, DWORD PTR __real@3f800000
  00268	f3 0f 11 04 08	 movss	 DWORD PTR [eax+ecx], xmm0
  0026d	6a 10		 push	 16			; 00000010H
  0026f	58		 pop	 eax
  00270	6b c0 00	 imul	 eax, eax, 0
  00273	03 45 e8	 add	 eax, DWORD PTR _pOut$[ebp]
  00276	6a 04		 push	 4
  00278	59		 pop	 ecx
  00279	6b c9 00	 imul	 ecx, ecx, 0
  0027c	f3 0f 10 05 00
	00 00 00	 movss	 xmm0, DWORD PTR __real@3f800000
  00284	f3 0f 11 04 08	 movss	 DWORD PTR [eax+ecx], xmm0
; File D:\Metin2 Server Files\mainline\SRC_2014\Metin2Client\EterLib\SkyBox.cpp

; 108  : 	D3DXMatrixIdentity(&m_matTranslation);

  00289	8b 45 ec	 mov	 eax, DWORD PTR _this$[ebp]
  0028c	05 7c 01 00 00	 add	 eax, 380		; 0000017cH
  00291	89 45 e4	 mov	 DWORD PTR _pOut$[ebp], eax
; File D:\Metin2 Server Files\mainline\SRC_2014\M2Data\include\d3dx8math.inl

; 1516 :     pOut->m[0][1] = pOut->m[0][2] = pOut->m[0][3] =

  00294	6a 10		 push	 16			; 00000010H
  00296	58		 pop	 eax
  00297	6b c0 03	 imul	 eax, eax, 3
  0029a	03 45 e4	 add	 eax, DWORD PTR _pOut$[ebp]
  0029d	6a 04		 push	 4
  0029f	59		 pop	 ecx
  002a0	d1 e1		 shl	 ecx, 1
  002a2	0f 57 c0	 xorps	 xmm0, xmm0
  002a5	f3 0f 11 04 08	 movss	 DWORD PTR [eax+ecx], xmm0
  002aa	6a 10		 push	 16			; 00000010H
  002ac	58		 pop	 eax
  002ad	6b c0 03	 imul	 eax, eax, 3
  002b0	03 45 e4	 add	 eax, DWORD PTR _pOut$[ebp]
  002b3	6a 04		 push	 4
  002b5	59		 pop	 ecx
  002b6	c1 e1 00	 shl	 ecx, 0
  002b9	0f 57 c0	 xorps	 xmm0, xmm0
  002bc	f3 0f 11 04 08	 movss	 DWORD PTR [eax+ecx], xmm0
  002c1	6a 10		 push	 16			; 00000010H
  002c3	58		 pop	 eax
  002c4	6b c0 03	 imul	 eax, eax, 3
  002c7	03 45 e4	 add	 eax, DWORD PTR _pOut$[ebp]
  002ca	6a 04		 push	 4
  002cc	59		 pop	 ecx
  002cd	6b c9 00	 imul	 ecx, ecx, 0
  002d0	0f 57 c0	 xorps	 xmm0, xmm0
  002d3	f3 0f 11 04 08	 movss	 DWORD PTR [eax+ecx], xmm0
  002d8	6a 10		 push	 16			; 00000010H
  002da	58		 pop	 eax
  002db	d1 e0		 shl	 eax, 1
  002dd	03 45 e4	 add	 eax, DWORD PTR _pOut$[ebp]
  002e0	6a 04		 push	 4
  002e2	59		 pop	 ecx
  002e3	6b c9 03	 imul	 ecx, ecx, 3
  002e6	0f 57 c0	 xorps	 xmm0, xmm0
  002e9	f3 0f 11 04 08	 movss	 DWORD PTR [eax+ecx], xmm0
  002ee	6a 10		 push	 16			; 00000010H
  002f0	58		 pop	 eax
  002f1	d1 e0		 shl	 eax, 1
  002f3	03 45 e4	 add	 eax, DWORD PTR _pOut$[ebp]
  002f6	6a 04		 push	 4
  002f8	59		 pop	 ecx
  002f9	c1 e1 00	 shl	 ecx, 0
  002fc	0f 57 c0	 xorps	 xmm0, xmm0
  002ff	f3 0f 11 04 08	 movss	 DWORD PTR [eax+ecx], xmm0
  00304	6a 10		 push	 16			; 00000010H
  00306	58		 pop	 eax
  00307	d1 e0		 shl	 eax, 1
  00309	03 45 e4	 add	 eax, DWORD PTR _pOut$[ebp]
  0030c	6a 04		 push	 4
  0030e	59		 pop	 ecx
  0030f	6b c9 00	 imul	 ecx, ecx, 0
  00312	0f 57 c0	 xorps	 xmm0, xmm0
  00315	f3 0f 11 04 08	 movss	 DWORD PTR [eax+ecx], xmm0
  0031a	6a 10		 push	 16			; 00000010H
  0031c	58		 pop	 eax
  0031d	c1 e0 00	 shl	 eax, 0
  00320	03 45 e4	 add	 eax, DWORD PTR _pOut$[ebp]
  00323	6a 04		 push	 4
  00325	59		 pop	 ecx
  00326	6b c9 03	 imul	 ecx, ecx, 3
  00329	0f 57 c0	 xorps	 xmm0, xmm0
  0032c	f3 0f 11 04 08	 movss	 DWORD PTR [eax+ecx], xmm0
  00331	6a 10		 push	 16			; 00000010H
  00333	58		 pop	 eax
  00334	c1 e0 00	 shl	 eax, 0
  00337	03 45 e4	 add	 eax, DWORD PTR _pOut$[ebp]
  0033a	6a 04		 push	 4
  0033c	59		 pop	 ecx
  0033d	d1 e1		 shl	 ecx, 1
  0033f	0f 57 c0	 xorps	 xmm0, xmm0
  00342	f3 0f 11 04 08	 movss	 DWORD PTR [eax+ecx], xmm0
  00347	6a 10		 push	 16			; 00000010H
  00349	58		 pop	 eax
  0034a	c1 e0 00	 shl	 eax, 0
  0034d	03 45 e4	 add	 eax, DWORD PTR _pOut$[ebp]
  00350	6a 04		 push	 4
  00352	59		 pop	 ecx
  00353	6b c9 00	 imul	 ecx, ecx, 0
  00356	0f 57 c0	 xorps	 xmm0, xmm0
  00359	f3 0f 11 04 08	 movss	 DWORD PTR [eax+ecx], xmm0
  0035e	6a 10		 push	 16			; 00000010H
  00360	58		 pop	 eax
  00361	6b c0 00	 imul	 eax, eax, 0
  00364	03 45 e4	 add	 eax, DWORD PTR _pOut$[ebp]
  00367	6a 04		 push	 4
  00369	59		 pop	 ecx
  0036a	6b c9 03	 imul	 ecx, ecx, 3
  0036d	0f 57 c0	 xorps	 xmm0, xmm0
  00370	f3 0f 11 04 08	 movss	 DWORD PTR [eax+ecx], xmm0
  00375	6a 10		 push	 16			; 00000010H
  00377	58		 pop	 eax
  00378	6b c0 00	 imul	 eax, eax, 0
  0037b	03 45 e4	 add	 eax, DWORD PTR _pOut$[ebp]
  0037e	6a 04		 push	 4
  00380	59		 pop	 ecx
  00381	d1 e1		 shl	 ecx, 1
  00383	0f 57 c0	 xorps	 xmm0, xmm0
  00386	f3 0f 11 04 08	 movss	 DWORD PTR [eax+ecx], xmm0
  0038b	6a 10		 push	 16			; 00000010H
  0038d	58		 pop	 eax
  0038e	6b c0 00	 imul	 eax, eax, 0
  00391	03 45 e4	 add	 eax, DWORD PTR _pOut$[ebp]
  00394	6a 04		 push	 4
  00396	59		 pop	 ecx
  00397	c1 e1 00	 shl	 ecx, 0
  0039a	0f 57 c0	 xorps	 xmm0, xmm0
  0039d	f3 0f 11 04 08	 movss	 DWORD PTR [eax+ecx], xmm0

; 1517 :     pOut->m[1][0] = pOut->m[1][2] = pOut->m[1][3] =
; 1518 :     pOut->m[2][0] = pOut->m[2][1] = pOut->m[2][3] =
; 1519 :     pOut->m[3][0] = pOut->m[3][1] = pOut->m[3][2] = 0.0f;
; 1520 : 
; 1521 :     pOut->m[0][0] = pOut->m[1][1] = pOut->m[2][2] = pOut->m[3][3] = 1.0f;

  003a2	6a 10		 push	 16			; 00000010H
  003a4	58		 pop	 eax
  003a5	6b c0 03	 imul	 eax, eax, 3
  003a8	03 45 e4	 add	 eax, DWORD PTR _pOut$[ebp]
  003ab	6a 04		 push	 4
  003ad	59		 pop	 ecx
  003ae	6b c9 03	 imul	 ecx, ecx, 3
  003b1	f3 0f 10 05 00
	00 00 00	 movss	 xmm0, DWORD PTR __real@3f800000
  003b9	f3 0f 11 04 08	 movss	 DWORD PTR [eax+ecx], xmm0
  003be	6a 10		 push	 16			; 00000010H
  003c0	58		 pop	 eax
  003c1	d1 e0		 shl	 eax, 1
  003c3	03 45 e4	 add	 eax, DWORD PTR _pOut$[ebp]
  003c6	6a 04		 push	 4
  003c8	59		 pop	 ecx
  003c9	d1 e1		 shl	 ecx, 1
  003cb	f3 0f 10 05 00
	00 00 00	 movss	 xmm0, DWORD PTR __real@3f800000
  003d3	f3 0f 11 04 08	 movss	 DWORD PTR [eax+ecx], xmm0
  003d8	6a 10		 push	 16			; 00000010H
  003da	58		 pop	 eax
  003db	c1 e0 00	 shl	 eax, 0
  003de	03 45 e4	 add	 eax, DWORD PTR _pOut$[ebp]
  003e1	6a 04		 push	 4
  003e3	59		 pop	 ecx
  003e4	c1 e1 00	 shl	 ecx, 0
  003e7	f3 0f 10 05 00
	00 00 00	 movss	 xmm0, DWORD PTR __real@3f800000
  003ef	f3 0f 11 04 08	 movss	 DWORD PTR [eax+ecx], xmm0
  003f4	6a 10		 push	 16			; 00000010H
  003f6	58		 pop	 eax
  003f7	6b c0 00	 imul	 eax, eax, 0
  003fa	03 45 e4	 add	 eax, DWORD PTR _pOut$[ebp]
  003fd	6a 04		 push	 4
  003ff	59		 pop	 ecx
  00400	6b c9 00	 imul	 ecx, ecx, 0
  00403	f3 0f 10 05 00
	00 00 00	 movss	 xmm0, DWORD PTR __real@3f800000
  0040b	f3 0f 11 04 08	 movss	 DWORD PTR [eax+ecx], xmm0
; File D:\Metin2 Server Files\mainline\SRC_2014\Metin2Client\EterLib\SkyBox.cpp

; 109  : 	D3DXMatrixIdentity(&m_matTextureCloud);

  00410	8b 45 ec	 mov	 eax, DWORD PTR _this$[ebp]
  00413	05 c0 00 00 00	 add	 eax, 192		; 000000c0H
  00418	89 45 e0	 mov	 DWORD PTR _pOut$[ebp], eax
; File D:\Metin2 Server Files\mainline\SRC_2014\M2Data\include\d3dx8math.inl

; 1516 :     pOut->m[0][1] = pOut->m[0][2] = pOut->m[0][3] =

  0041b	6a 10		 push	 16			; 00000010H
  0041d	58		 pop	 eax
  0041e	6b c0 03	 imul	 eax, eax, 3
  00421	03 45 e0	 add	 eax, DWORD PTR _pOut$[ebp]
  00424	6a 04		 push	 4
  00426	59		 pop	 ecx
  00427	d1 e1		 shl	 ecx, 1
  00429	0f 57 c0	 xorps	 xmm0, xmm0
  0042c	f3 0f 11 04 08	 movss	 DWORD PTR [eax+ecx], xmm0
  00431	6a 10		 push	 16			; 00000010H
  00433	58		 pop	 eax
  00434	6b c0 03	 imul	 eax, eax, 3
  00437	03 45 e0	 add	 eax, DWORD PTR _pOut$[ebp]
  0043a	6a 04		 push	 4
  0043c	59		 pop	 ecx
  0043d	c1 e1 00	 shl	 ecx, 0
  00440	0f 57 c0	 xorps	 xmm0, xmm0
  00443	f3 0f 11 04 08	 movss	 DWORD PTR [eax+ecx], xmm0
  00448	6a 10		 push	 16			; 00000010H
  0044a	58		 pop	 eax
  0044b	6b c0 03	 imul	 eax, eax, 3
  0044e	03 45 e0	 add	 eax, DWORD PTR _pOut$[ebp]
  00451	6a 04		 push	 4
  00453	59		 pop	 ecx
  00454	6b c9 00	 imul	 ecx, ecx, 0
  00457	0f 57 c0	 xorps	 xmm0, xmm0
  0045a	f3 0f 11 04 08	 movss	 DWORD PTR [eax+ecx], xmm0
  0045f	6a 10		 push	 16			; 00000010H
  00461	58		 pop	 eax
  00462	d1 e0		 shl	 eax, 1
  00464	03 45 e0	 add	 eax, DWORD PTR _pOut$[ebp]
  00467	6a 04		 push	 4
  00469	59		 pop	 ecx
  0046a	6b c9 03	 imul	 ecx, ecx, 3
  0046d	0f 57 c0	 xorps	 xmm0, xmm0
  00470	f3 0f 11 04 08	 movss	 DWORD PTR [eax+ecx], xmm0
  00475	6a 10		 push	 16			; 00000010H
  00477	58		 pop	 eax
  00478	d1 e0		 shl	 eax, 1
  0047a	03 45 e0	 add	 eax, DWORD PTR _pOut$[ebp]
  0047d	6a 04		 push	 4
  0047f	59		 pop	 ecx
  00480	c1 e1 00	 shl	 ecx, 0
  00483	0f 57 c0	 xorps	 xmm0, xmm0
  00486	f3 0f 11 04 08	 movss	 DWORD PTR [eax+ecx], xmm0
  0048b	6a 10		 push	 16			; 00000010H
  0048d	58		 pop	 eax
  0048e	d1 e0		 shl	 eax, 1
  00490	03 45 e0	 add	 eax, DWORD PTR _pOut$[ebp]
  00493	6a 04		 push	 4
  00495	59		 pop	 ecx
  00496	6b c9 00	 imul	 ecx, ecx, 0
  00499	0f 57 c0	 xorps	 xmm0, xmm0
  0049c	f3 0f 11 04 08	 movss	 DWORD PTR [eax+ecx], xmm0
  004a1	6a 10		 push	 16			; 00000010H
  004a3	58		 pop	 eax
  004a4	c1 e0 00	 shl	 eax, 0
  004a7	03 45 e0	 add	 eax, DWORD PTR _pOut$[ebp]
  004aa	6a 04		 push	 4
  004ac	59		 pop	 ecx
  004ad	6b c9 03	 imul	 ecx, ecx, 3
  004b0	0f 57 c0	 xorps	 xmm0, xmm0
  004b3	f3 0f 11 04 08	 movss	 DWORD PTR [eax+ecx], xmm0
  004b8	6a 10		 push	 16			; 00000010H
  004ba	58		 pop	 eax
  004bb	c1 e0 00	 shl	 eax, 0
  004be	03 45 e0	 add	 eax, DWORD PTR _pOut$[ebp]
  004c1	6a 04		 push	 4
  004c3	59		 pop	 ecx
  004c4	d1 e1		 shl	 ecx, 1
  004c6	0f 57 c0	 xorps	 xmm0, xmm0
  004c9	f3 0f 11 04 08	 movss	 DWORD PTR [eax+ecx], xmm0
  004ce	6a 10		 push	 16			; 00000010H
  004d0	58		 pop	 eax
  004d1	c1 e0 00	 shl	 eax, 0
  004d4	03 45 e0	 add	 eax, DWORD PTR _pOut$[ebp]
  004d7	6a 04		 push	 4
  004d9	59		 pop	 ecx
  004da	6b c9 00	 imul	 ecx, ecx, 0
  004dd	0f 57 c0	 xorps	 xmm0, xmm0
  004e0	f3 0f 11 04 08	 movss	 DWORD PTR [eax+ecx], xmm0
  004e5	6a 10		 push	 16			; 00000010H
  004e7	58		 pop	 eax
  004e8	6b c0 00	 imul	 eax, eax, 0
  004eb	03 45 e0	 add	 eax, DWORD PTR _pOut$[ebp]
  004ee	6a 04		 push	 4
  004f0	59		 pop	 ecx
  004f1	6b c9 03	 imul	 ecx, ecx, 3
  004f4	0f 57 c0	 xorps	 xmm0, xmm0
  004f7	f3 0f 11 04 08	 movss	 DWORD PTR [eax+ecx], xmm0
  004fc	6a 10		 push	 16			; 00000010H
  004fe	58		 pop	 eax
  004ff	6b c0 00	 imul	 eax, eax, 0
  00502	03 45 e0	 add	 eax, DWORD PTR _pOut$[ebp]
  00505	6a 04		 push	 4
  00507	59		 pop	 ecx
  00508	d1 e1		 shl	 ecx, 1
  0050a	0f 57 c0	 xorps	 xmm0, xmm0
  0050d	f3 0f 11 04 08	 movss	 DWORD PTR [eax+ecx], xmm0
  00512	6a 10		 push	 16			; 00000010H
  00514	58		 pop	 eax
  00515	6b c0 00	 imul	 eax, eax, 0
  00518	03 45 e0	 add	 eax, DWORD PTR _pOut$[ebp]
  0051b	6a 04		 push	 4
  0051d	59		 pop	 ecx
  0051e	c1 e1 00	 shl	 ecx, 0
  00521	0f 57 c0	 xorps	 xmm0, xmm0
  00524	f3 0f 11 04 08	 movss	 DWORD PTR [eax+ecx], xmm0

; 1517 :     pOut->m[1][0] = pOut->m[1][2] = pOut->m[1][3] =
; 1518 :     pOut->m[2][0] = pOut->m[2][1] = pOut->m[2][3] =
; 1519 :     pOut->m[3][0] = pOut->m[3][1] = pOut->m[3][2] = 0.0f;
; 1520 : 
; 1521 :     pOut->m[0][0] = pOut->m[1][1] = pOut->m[2][2] = pOut->m[3][3] = 1.0f;

  00529	6a 10		 push	 16			; 00000010H
  0052b	58		 pop	 eax
  0052c	6b c0 03	 imul	 eax, eax, 3
  0052f	03 45 e0	 add	 eax, DWORD PTR _pOut$[ebp]
  00532	6a 04		 push	 4
  00534	59		 pop	 ecx
  00535	6b c9 03	 imul	 ecx, ecx, 3
  00538	f3 0f 10 05 00
	00 00 00	 movss	 xmm0, DWORD PTR __real@3f800000
  00540	f3 0f 11 04 08	 movss	 DWORD PTR [eax+ecx], xmm0
  00545	6a 10		 push	 16			; 00000010H
  00547	58		 pop	 eax
  00548	d1 e0		 shl	 eax, 1
  0054a	03 45 e0	 add	 eax, DWORD PTR _pOut$[ebp]
  0054d	6a 04		 push	 4
  0054f	59		 pop	 ecx
  00550	d1 e1		 shl	 ecx, 1
  00552	f3 0f 10 05 00
	00 00 00	 movss	 xmm0, DWORD PTR __real@3f800000
  0055a	f3 0f 11 04 08	 movss	 DWORD PTR [eax+ecx], xmm0
  0055f	6a 10		 push	 16			; 00000010H
  00561	58		 pop	 eax
  00562	c1 e0 00	 shl	 eax, 0
  00565	03 45 e0	 add	 eax, DWORD PTR _pOut$[ebp]
  00568	6a 04		 push	 4
  0056a	59		 pop	 ecx
  0056b	c1 e1 00	 shl	 ecx, 0
  0056e	f3 0f 10 05 00
	00 00 00	 movss	 xmm0, DWORD PTR __real@3f800000
  00576	f3 0f 11 04 08	 movss	 DWORD PTR [eax+ecx], xmm0
  0057b	6a 10		 push	 16			; 00000010H
  0057d	58		 pop	 eax
  0057e	6b c0 00	 imul	 eax, eax, 0
  00581	03 45 e0	 add	 eax, DWORD PTR _pOut$[ebp]
  00584	6a 04		 push	 4
  00586	59		 pop	 ecx
  00587	6b c9 00	 imul	 ecx, ecx, 0
  0058a	f3 0f 10 05 00
	00 00 00	 movss	 xmm0, DWORD PTR __real@3f800000
  00592	f3 0f 11 04 08	 movss	 DWORD PTR [eax+ecx], xmm0
; File D:\Metin2 Server Files\mainline\SRC_2014\Metin2Client\eterBase\Singleton.h

; 27   : 		return (*ms_singleton);

  00597	a1 00 00 00 00	 mov	 eax, DWORD PTR ?ms_singleton@?$CSingleton@VCTimer@@@@0PAVCTimer@@A ; CSingleton<CTimer>::ms_singleton
  0059c	89 45 cc	 mov	 DWORD PTR $T2[ebp], eax
; File D:\Metin2 Server Files\mainline\SRC_2014\Metin2Client\EterLib\SkyBox.cpp

; 111  : 	m_dwlastTime = CTimer::Instance().GetCurrentMillisecond();

  0059f	8b 4d cc	 mov	 ecx, DWORD PTR $T2[ebp]
  005a2	e8 00 00 00 00	 call	 ?GetCurrentMillisecond@CTimer@@QAEKXZ ; CTimer::GetCurrentMillisecond
  005a7	8b 4d ec	 mov	 ecx, DWORD PTR _this$[ebp]
  005aa	89 81 30 01 00
	00		 mov	 DWORD PTR [ecx+304], eax

; 112  : 
; 113  : 	m_fCloudPositionU = 0.0f;

  005b0	8b 45 ec	 mov	 eax, DWORD PTR _this$[ebp]
  005b3	0f 57 c0	 xorps	 xmm0, xmm0
  005b6	f3 0f 11 80 28
	01 00 00	 movss	 DWORD PTR [eax+296], xmm0

; 114  : 	m_fCloudPositionV = 0.0f;

  005be	8b 45 ec	 mov	 eax, DWORD PTR _this$[ebp]
  005c1	0f 57 c0	 xorps	 xmm0, xmm0
  005c4	f3 0f 11 80 2c
	01 00 00	 movss	 DWORD PTR [eax+300], xmm0

; 115  : 
; 116  : 	m_bTransitionStarted = false;

  005cc	8b 45 ec	 mov	 eax, DWORD PTR _this$[ebp]
  005cf	c6 80 f0 01 00
	00 00		 mov	 BYTE PTR [eax+496], 0

; 117  : 	m_bSkyMatrixUpdated = false;

  005d6	8b 45 ec	 mov	 eax, DWORD PTR _this$[ebp]
  005d9	c6 80 f1 01 00
	00 00		 mov	 BYTE PTR [eax+497], 0

; 118  : }

  005e0	83 4d fc ff	 or	 DWORD PTR __$EHRec$[ebp+8], -1
  005e4	8b 45 ec	 mov	 eax, DWORD PTR _this$[ebp]
  005e7	8b 4d f4	 mov	 ecx, DWORD PTR __$EHRec$[ebp]
  005ea	64 89 0d 00 00
	00 00		 mov	 DWORD PTR fs:0, ecx
  005f1	59		 pop	 ecx
  005f2	c9		 leave
  005f3	c3		 ret	 0
_TEXT	ENDS
;	COMDAT text$x
text$x	SEGMENT
__unwindfunclet$??0CSkyObject@@QAE@XZ$0:
  00000	8b 4d ec	 mov	 ecx, DWORD PTR _this$[ebp]
  00003	e9 00 00 00 00	 jmp	 ??1CScreen@@UAE@XZ	; CScreen::~CScreen
__unwindfunclet$??0CSkyObject@@QAE@XZ$1:
  00008	8b 4d ec	 mov	 ecx, DWORD PTR _this$[ebp]
  0000b	83 c1 04	 add	 ecx, 4
  0000e	e9 00 00 00 00	 jmp	 ??1TSkyObjectFace@CSkyObject@@QAE@XZ
__unwindfunclet$??0CSkyObject@@QAE@XZ$2:
  00013	8b 4d ec	 mov	 ecx, DWORD PTR _this$[ebp]
  00016	81 c1 34 01 00
	00		 add	 ecx, 308		; 00000134H
  0001c	e9 00 00 00 00	 jmp	 ??1?$map@V?$basic_string@DU?$char_traits@D@std@@V?$allocator@D@2@@std@@PAVCGraphicImageInstance@@U?$less@V?$basic_string@DU?$char_traits@D@std@@V?$allocator@D@2@@std@@@2@V?$allocator@U?$pair@$$CBV?$basic_string@DU?$char_traits@D@std@@V?$allocator@D@2@@std@@PAVCGraphicImageInstance@@@std@@@2@@std@@QAE@XZ
__unwindfunclet$??0CSkyObject@@QAE@XZ$3:
  00021	8b 4d ec	 mov	 ecx, DWORD PTR _this$[ebp]
  00024	81 c1 d8 01 00
	00		 add	 ecx, 472		; 000001d8H
  0002a	e9 00 00 00 00	 jmp	 ??1?$basic_string@DU?$char_traits@D@std@@V?$allocator@D@2@@std@@QAE@XZ ; std::basic_string<char,std::char_traits<char>,std::allocator<char> >::~basic_string<char,std::char_traits<char>,std::allocator<char> >
__unwindfunclet$??0CSkyObject@@QAE@XZ$4:
  0002f	8b 4d ec	 mov	 ecx, DWORD PTR _this$[ebp]
  00032	81 c1 f4 01 00
	00		 add	 ecx, 500		; 000001f4H
  00038	e9 00 00 00 00	 jmp	 ??1CGraphicImageInstance@@UAE@XZ ; CGraphicImageInstance::~CGraphicImageInstance
  0003d	cc		 int	 3
  0003e	cc		 int	 3
  0003f	cc		 int	 3
  00040	cc		 int	 3
  00041	cc		 int	 3
__ehhandler$??0CSkyObject@@QAE@XZ:
  00042	90		 npad	 1
  00043	90		 npad	 1
  00044	8b 54 24 08	 mov	 edx, DWORD PTR [esp+8]
  00048	8d 42 0c	 lea	 eax, DWORD PTR [edx+12]
  0004b	8b 4a d4	 mov	 ecx, DWORD PTR [edx-44]
  0004e	33 c8		 xor	 ecx, eax
  00050	e8 00 00 00 00	 call	 @__security_check_cookie@4
  00055	b8 00 00 00 00	 mov	 eax, OFFSET __ehfuncinfo$??0CSkyObject@@QAE@XZ
  0005a	e9 00 00 00 00	 jmp	 ___CxxFrameHandler3
text$x	ENDS
??0CSkyObject@@QAE@XZ ENDP				; CSkyObject::CSkyObject
; Function compile flags: /Odspy
;	COMDAT ??_GCSkyObjectQuad@@UAEPAXI@Z
_TEXT	SEGMENT
_this$ = -4						; size = 4
___flags$ = 8						; size = 4
??_GCSkyObjectQuad@@UAEPAXI@Z PROC			; CSkyObjectQuad::`scalar deleting destructor', COMDAT
; _this$ = ecx
  00000	55		 push	 ebp
  00001	8b ec		 mov	 ebp, esp
  00003	51		 push	 ecx
  00004	89 4d fc	 mov	 DWORD PTR _this$[ebp], ecx
  00007	8b 4d fc	 mov	 ecx, DWORD PTR _this$[ebp]
  0000a	e8 00 00 00 00	 call	 ??1CSkyObjectQuad@@UAE@XZ ; CSkyObjectQuad::~CSkyObjectQuad
  0000f	8b 45 08	 mov	 eax, DWORD PTR ___flags$[ebp]
  00012	83 e0 01	 and	 eax, 1
  00015	74 0f		 je	 SHORT $LN2@scalar
  00017	68 2c 01 00 00	 push	 300			; 0000012cH
  0001c	ff 75 fc	 push	 DWORD PTR _this$[ebp]
  0001f	e8 00 00 00 00	 call	 ??3@YAXPAXI@Z		; operator delete
  00024	59		 pop	 ecx
  00025	59		 pop	 ecx
$LN2@scalar:
  00026	8b 45 fc	 mov	 eax, DWORD PTR _this$[ebp]
  00029	c9		 leave
  0002a	c2 04 00	 ret	 4
??_GCSkyObjectQuad@@UAEPAXI@Z ENDP			; CSkyObjectQuad::`scalar deleting destructor'
_TEXT	ENDS
; Function compile flags: /Odspy
; File D:\Metin2 Server Files\mainline\SRC_2014\Metin2Client\EterLib\SkyBox.cpp
;	COMDAT ?Render@CSkyObjectQuad@@QAEXXZ
_TEXT	SEGMENT
_this$ = -4						; size = 4
?Render@CSkyObjectQuad@@QAEXXZ PROC			; CSkyObjectQuad::Render, COMDAT
; _this$ = ecx

; 92   : {

  00000	55		 push	 ebp
  00001	8b ec		 mov	 ebp, esp
  00003	51		 push	 ecx
  00004	89 4d fc	 mov	 DWORD PTR _this$[ebp], ecx

; 93   : 	if (CGraphicBase::SetPDTStream(m_Vertex, 4))

  00007	6a 04		 push	 4
  00009	8b 45 fc	 mov	 eax, DWORD PTR _this$[ebp]
  0000c	83 c0 04	 add	 eax, 4
  0000f	50		 push	 eax
  00010	e8 00 00 00 00	 call	 ?SetPDTStream@CGraphicBase@@SA_NPAUSPDTVertex@@I@Z ; CGraphicBase::SetPDTStream
  00015	59		 pop	 ecx
  00016	59		 pop	 ecx
  00017	0f b6 c0	 movzx	 eax, al
  0001a	85 c0		 test	 eax, eax
  0001c	74 11		 je	 SHORT $LN1@Render

; 94   : 		STATEMANAGER.DrawPrimitive(D3DPT_TRIANGLESTRIP, 0, 2);

  0001e	6a 02		 push	 2
  00020	6a 00		 push	 0
  00022	6a 05		 push	 5
  00024	8b 0d 00 00 00
	00		 mov	 ecx, DWORD PTR ?ms_singleton@?$CSingleton@VCStateManager@@@@0PAVCStateManager@@A ; CSingleton<CStateManager>::ms_singleton
  0002a	e8 00 00 00 00	 call	 ?DrawPrimitive@CStateManager@@QAEJW4_D3DPRIMITIVETYPE@@II@Z ; CStateManager::DrawPrimitive
$LN1@Render:

; 95   : 	//STATEMANAGER.DrawIndexedPrimitiveUP(D3DPT_TRIANGLESTRIP, 0, 4, 2, m_Indices, D3DFMT_INDEX16, &m_Vertex, sizeof(TPDTVertex));
; 96   : }

  0002f	c9		 leave
  00030	c3		 ret	 0
?Render@CSkyObjectQuad@@QAEXXZ ENDP			; CSkyObjectQuad::Render
_TEXT	ENDS
; Function compile flags: /Odspy
; File D:\Metin2 Server Files\mainline\SRC_2014\Metin2Client\EterLib\SkyBox.cpp
;	COMDAT ?Update@CSkyObjectQuad@@QAE_NXZ
_TEXT	SEGMENT
tv77 = -12						; size = 4
_this$ = -8						; size = 4
_bResult$ = -2						; size = 1
_uci$1 = -1						; size = 1
?Update@CSkyObjectQuad@@QAE_NXZ PROC			; CSkyObjectQuad::Update, COMDAT
; _this$ = ecx

; 81   : {

  00000	55		 push	 ebp
  00001	8b ec		 mov	 ebp, esp
  00003	83 ec 0c	 sub	 esp, 12			; 0000000cH
  00006	89 4d f8	 mov	 DWORD PTR _this$[ebp], ecx

; 82   : 	bool bResult = false;

  00009	c6 45 fe 00	 mov	 BYTE PTR _bResult$[ebp], 0

; 83   : 	for (unsigned char uci = 0; uci < 4; ++uci)

  0000d	c6 45 ff 00	 mov	 BYTE PTR _uci$1[ebp], 0
  00011	eb 08		 jmp	 SHORT $LN4@Update
$LN2@Update:
  00013	8a 45 ff	 mov	 al, BYTE PTR _uci$1[ebp]
  00016	04 01		 add	 al, 1
  00018	88 45 ff	 mov	 BYTE PTR _uci$1[ebp], al
$LN4@Update:
  0001b	0f b6 45 ff	 movzx	 eax, BYTE PTR _uci$1[ebp]
  0001f	83 f8 04	 cmp	 eax, 4
  00022	7d 62		 jge	 SHORT $LN3@Update

; 84   : 	{
; 85   : 		bResult = m_Helper[uci].Update() || bResult;

  00024	0f b6 45 ff	 movzx	 eax, BYTE PTR _uci$1[ebp]
  00028	6b c0 30	 imul	 eax, eax, 48
  0002b	8b 4d f8	 mov	 ecx, DWORD PTR _this$[ebp]
  0002e	8d 4c 01 6c	 lea	 ecx, DWORD PTR [ecx+eax+108]
  00032	e8 00 00 00 00	 call	 ?Update@CColorTransitionHelper@@QAE_NXZ ; CColorTransitionHelper::Update
  00037	0f b6 c0	 movzx	 eax, al
  0003a	85 c0		 test	 eax, eax
  0003c	75 0e		 jne	 SHORT $LN6@Update
  0003e	0f b6 45 fe	 movzx	 eax, BYTE PTR _bResult$[ebp]
  00042	85 c0		 test	 eax, eax
  00044	75 06		 jne	 SHORT $LN6@Update
  00046	83 65 f4 00	 and	 DWORD PTR tv77[ebp], 0
  0004a	eb 07		 jmp	 SHORT $LN7@Update
$LN6@Update:
  0004c	c7 45 f4 01 00
	00 00		 mov	 DWORD PTR tv77[ebp], 1
$LN7@Update:
  00053	8a 45 f4	 mov	 al, BYTE PTR tv77[ebp]
  00056	88 45 fe	 mov	 BYTE PTR _bResult$[ebp], al

; 86   : 		m_Vertex[m_Indices[uci]].diffuse = m_Helper[uci].GetCurColor();

  00059	0f b6 45 ff	 movzx	 eax, BYTE PTR _uci$1[ebp]
  0005d	6b c0 30	 imul	 eax, eax, 48
  00060	8b 4d f8	 mov	 ecx, DWORD PTR _this$[ebp]
  00063	8d 4c 01 6c	 lea	 ecx, DWORD PTR [ecx+eax+108]
  00067	e8 00 00 00 00	 call	 ?GetCurColor@CColorTransitionHelper@@QAEABKXZ ; CColorTransitionHelper::GetCurColor
  0006c	0f b6 4d ff	 movzx	 ecx, BYTE PTR _uci$1[ebp]
  00070	8b 55 f8	 mov	 edx, DWORD PTR _this$[ebp]
  00073	0f b7 4c 4a 64	 movzx	 ecx, WORD PTR [edx+ecx*2+100]
  00078	6b c9 18	 imul	 ecx, ecx, 24
  0007b	8b 55 f8	 mov	 edx, DWORD PTR _this$[ebp]
  0007e	8b 00		 mov	 eax, DWORD PTR [eax]
  00080	89 44 0a 10	 mov	 DWORD PTR [edx+ecx+16], eax

; 87   : 	}

  00084	eb 8d		 jmp	 SHORT $LN2@Update
$LN3@Update:

; 88   :  	return bResult;

  00086	8a 45 fe	 mov	 al, BYTE PTR _bResult$[ebp]

; 89   : }

  00089	c9		 leave
  0008a	c3		 ret	 0
?Update@CSkyObjectQuad@@QAE_NXZ ENDP			; CSkyObjectQuad::Update
_TEXT	ENDS
; Function compile flags: /Odspy
; File D:\Metin2 Server Files\mainline\SRC_2014\Metin2Client\EterLib\SkyBox.cpp
;	COMDAT ?StartTransition@CSkyObjectQuad@@QAEXXZ
_TEXT	SEGMENT
_this$ = -8						; size = 4
_uci$1 = -1						; size = 1
?StartTransition@CSkyObjectQuad@@QAEXXZ PROC		; CSkyObjectQuad::StartTransition, COMDAT
; _this$ = ecx

; 73   : {

  00000	55		 push	 ebp
  00001	8b ec		 mov	 ebp, esp
  00003	51		 push	 ecx
  00004	51		 push	 ecx
  00005	89 4d f8	 mov	 DWORD PTR _this$[ebp], ecx

; 74   : 	for (unsigned char uci = 0; uci < 4; ++uci)

  00008	c6 45 ff 00	 mov	 BYTE PTR _uci$1[ebp], 0
  0000c	eb 08		 jmp	 SHORT $LN4@StartTrans
$LN2@StartTrans:
  0000e	8a 45 ff	 mov	 al, BYTE PTR _uci$1[ebp]
  00011	04 01		 add	 al, 1
  00013	88 45 ff	 mov	 BYTE PTR _uci$1[ebp], al
$LN4@StartTrans:
  00016	0f b6 45 ff	 movzx	 eax, BYTE PTR _uci$1[ebp]
  0001a	83 f8 04	 cmp	 eax, 4
  0001d	7d 15		 jge	 SHORT $LN1@StartTrans

; 75   : 	{
; 76   : 		m_Helper[uci].StartTransition();

  0001f	0f b6 45 ff	 movzx	 eax, BYTE PTR _uci$1[ebp]
  00023	6b c0 30	 imul	 eax, eax, 48
  00026	8b 4d f8	 mov	 ecx, DWORD PTR _this$[ebp]
  00029	8d 4c 01 6c	 lea	 ecx, DWORD PTR [ecx+eax+108]
  0002d	e8 00 00 00 00	 call	 ?StartTransition@CColorTransitionHelper@@QAEXXZ ; CColorTransitionHelper::StartTransition

; 77   : 	}

  00032	eb da		 jmp	 SHORT $LN2@StartTrans
$LN1@StartTrans:

; 78   : }

  00034	c9		 leave
  00035	c3		 ret	 0
?StartTransition@CSkyObjectQuad@@QAEXXZ ENDP		; CSkyObjectQuad::StartTransition
_TEXT	ENDS
; Function compile flags: /Odspy
; File D:\Metin2 Server Files\mainline\SRC_2014\Metin2Client\EterLib\SkyBox.cpp
;	COMDAT ?SetVertex@CSkyObjectQuad@@QAEXABEABUSPDTVertex@@@Z
_TEXT	SEGMENT
_this$ = -4						; size = 4
_c_rucNumVertex$ = 8					; size = 4
_c_rPDTVertex$ = 12					; size = 4
?SetVertex@CSkyObjectQuad@@QAEXABEABUSPDTVertex@@@Z PROC ; CSkyObjectQuad::SetVertex, COMDAT
; _this$ = ecx

; 66   : {

  00000	55		 push	 ebp
  00001	8b ec		 mov	 ebp, esp
  00003	51		 push	 ecx
  00004	89 4d fc	 mov	 DWORD PTR _this$[ebp], ecx

; 67   : 	if (c_rucNumVertex > 3)

  00007	8b 45 08	 mov	 eax, DWORD PTR _c_rucNumVertex$[ebp]
  0000a	0f b6 00	 movzx	 eax, BYTE PTR [eax]
  0000d	83 f8 03	 cmp	 eax, 3
  00010	7e 02		 jle	 SHORT $LN2@SetVertex

; 68   : 		return;

  00012	eb 26		 jmp	 SHORT $LN1@SetVertex
$LN2@SetVertex:

; 69   : 	memcpy (&m_Vertex[m_Indices[c_rucNumVertex]], &c_rPDTVertex, sizeof(TPDTVertex)); 

  00014	6a 18		 push	 24			; 00000018H
  00016	ff 75 0c	 push	 DWORD PTR _c_rPDTVertex$[ebp]
  00019	8b 45 08	 mov	 eax, DWORD PTR _c_rucNumVertex$[ebp]
  0001c	0f b6 00	 movzx	 eax, BYTE PTR [eax]
  0001f	8b 4d fc	 mov	 ecx, DWORD PTR _this$[ebp]
  00022	0f b7 44 41 64	 movzx	 eax, WORD PTR [ecx+eax*2+100]
  00027	6b c0 18	 imul	 eax, eax, 24
  0002a	8b 4d fc	 mov	 ecx, DWORD PTR _this$[ebp]
  0002d	8d 44 01 04	 lea	 eax, DWORD PTR [ecx+eax+4]
  00031	50		 push	 eax
  00032	e8 00 00 00 00	 call	 _memcpy
  00037	83 c4 0c	 add	 esp, 12			; 0000000cH
$LN1@SetVertex:

; 70   : }

  0003a	c9		 leave
  0003b	c2 08 00	 ret	 8
?SetVertex@CSkyObjectQuad@@QAEXABEABUSPDTVertex@@@Z ENDP ; CSkyObjectQuad::SetVertex
_TEXT	ENDS
; Function compile flags: /Odspy
; File D:\Metin2 Server Files\mainline\SRC_2014\Metin2Client\EterLib\SkyBox.cpp
;	COMDAT ?SetTransition@CSkyObjectQuad@@QAEXABEABM111K@Z
_TEXT	SEGMENT
_this$ = -4						; size = 4
_c_rucNumVertex$ = 8					; size = 4
_c_rfRed$ = 12						; size = 4
_c_rfGreen$ = 16					; size = 4
_c_rfBlue$ = 20						; size = 4
_c_rfAlpha$ = 24					; size = 4
_dwDuration$ = 28					; size = 4
?SetTransition@CSkyObjectQuad@@QAEXABEABM111K@Z PROC	; CSkyObjectQuad::SetTransition, COMDAT
; _this$ = ecx

; 59   : {

  00000	55		 push	 ebp
  00001	8b ec		 mov	 ebp, esp
  00003	51		 push	 ecx
  00004	89 4d fc	 mov	 DWORD PTR _this$[ebp], ecx

; 60   : 	if (c_rucNumVertex > 3)

  00007	8b 45 08	 mov	 eax, DWORD PTR _c_rucNumVertex$[ebp]
  0000a	0f b6 00	 movzx	 eax, BYTE PTR [eax]
  0000d	83 f8 03	 cmp	 eax, 3
  00010	7e 02		 jle	 SHORT $LN2@SetTransit

; 61   : 		return;

  00012	eb 25		 jmp	 SHORT $LN1@SetTransit
$LN2@SetTransit:

; 62   : 	m_Helper[c_rucNumVertex].SetTransition(c_rfRed, c_rfGreen, c_rfBlue, c_rfAlpha, dwDuration);

  00014	8d 45 1c	 lea	 eax, DWORD PTR _dwDuration$[ebp]
  00017	50		 push	 eax
  00018	ff 75 18	 push	 DWORD PTR _c_rfAlpha$[ebp]
  0001b	ff 75 14	 push	 DWORD PTR _c_rfBlue$[ebp]
  0001e	ff 75 10	 push	 DWORD PTR _c_rfGreen$[ebp]
  00021	ff 75 0c	 push	 DWORD PTR _c_rfRed$[ebp]
  00024	8b 45 08	 mov	 eax, DWORD PTR _c_rucNumVertex$[ebp]
  00027	0f b6 00	 movzx	 eax, BYTE PTR [eax]
  0002a	6b c0 30	 imul	 eax, eax, 48
  0002d	8b 4d fc	 mov	 ecx, DWORD PTR _this$[ebp]
  00030	8d 4c 01 6c	 lea	 ecx, DWORD PTR [ecx+eax+108]
  00034	e8 00 00 00 00	 call	 ?SetTransition@CColorTransitionHelper@@QAEXABM000ABK@Z ; CColorTransitionHelper::SetTransition
$LN1@SetTransit:

; 63   : }

  00039	c9		 leave
  0003a	c2 18 00	 ret	 24			; 00000018H
?SetTransition@CSkyObjectQuad@@QAEXABEABM111K@Z ENDP	; CSkyObjectQuad::SetTransition
_TEXT	ENDS
; Function compile flags: /Odspy
; File D:\Metin2 Server Files\mainline\SRC_2014\Metin2Client\EterLib\SkyBox.cpp
;	COMDAT ?SetSrcColor@CSkyObjectQuad@@QAEXABEABM111@Z
_TEXT	SEGMENT
_this$ = -4						; size = 4
_c_rucNumVertex$ = 8					; size = 4
_c_rfRed$ = 12						; size = 4
_c_rfGreen$ = 16					; size = 4
_c_rfBlue$ = 20						; size = 4
_c_rfAlpha$ = 24					; size = 4
?SetSrcColor@CSkyObjectQuad@@QAEXABEABM111@Z PROC	; CSkyObjectQuad::SetSrcColor, COMDAT
; _this$ = ecx

; 47   : {

  00000	55		 push	 ebp
  00001	8b ec		 mov	 ebp, esp
  00003	51		 push	 ecx
  00004	89 4d fc	 mov	 DWORD PTR _this$[ebp], ecx

; 48   : 	if (c_rucNumVertex > 3)

  00007	8b 45 08	 mov	 eax, DWORD PTR _c_rucNumVertex$[ebp]
  0000a	0f b6 00	 movzx	 eax, BYTE PTR [eax]
  0000d	83 f8 03	 cmp	 eax, 3
  00010	7e 02		 jle	 SHORT $LN2@SetSrcColo

; 49   : 		return;

  00012	eb 21		 jmp	 SHORT $LN1@SetSrcColo
$LN2@SetSrcColo:

; 50   : 	m_Helper[c_rucNumVertex].SetSrcColor(c_rfRed, c_rfGreen, c_rfBlue, c_rfAlpha);

  00014	ff 75 18	 push	 DWORD PTR _c_rfAlpha$[ebp]
  00017	ff 75 14	 push	 DWORD PTR _c_rfBlue$[ebp]
  0001a	ff 75 10	 push	 DWORD PTR _c_rfGreen$[ebp]
  0001d	ff 75 0c	 push	 DWORD PTR _c_rfRed$[ebp]
  00020	8b 45 08	 mov	 eax, DWORD PTR _c_rucNumVertex$[ebp]
  00023	0f b6 00	 movzx	 eax, BYTE PTR [eax]
  00026	6b c0 30	 imul	 eax, eax, 48
  00029	8b 4d fc	 mov	 ecx, DWORD PTR _this$[ebp]
  0002c	8d 4c 01 6c	 lea	 ecx, DWORD PTR [ecx+eax+108]
  00030	e8 00 00 00 00	 call	 ?SetSrcColor@CColorTransitionHelper@@QAEXABM000@Z ; CColorTransitionHelper::SetSrcColor
$LN1@SetSrcColo:

; 51   : }

  00035	c9		 leave
  00036	c2 14 00	 ret	 20			; 00000014H
?SetSrcColor@CSkyObjectQuad@@QAEXABEABM111@Z ENDP	; CSkyObjectQuad::SetSrcColor
_TEXT	ENDS
; Function compile flags: /Odspy
; File D:\Metin2 Server Files\mainline\SRC_2014\Metin2Client\EterLib\SkyBox.cpp
;	COMDAT ?Clear@CSkyObjectQuad@@QAEXABEABM111@Z
_TEXT	SEGMENT
_this$ = -4						; size = 4
_c_rucNumVertex$ = 8					; size = 4
_c_rfRed$ = 12						; size = 4
_c_rfGreen$ = 16					; size = 4
_c_rfBlue$ = 20						; size = 4
_c_rfAlpha$ = 24					; size = 4
?Clear@CSkyObjectQuad@@QAEXABEABM111@Z PROC		; CSkyObjectQuad::Clear, COMDAT
; _this$ = ecx

; 36   : {

  00000	55		 push	 ebp
  00001	8b ec		 mov	 ebp, esp
  00003	51		 push	 ecx
  00004	89 4d fc	 mov	 DWORD PTR _this$[ebp], ecx

; 37   : 	if (c_rucNumVertex > 3)

  00007	8b 45 08	 mov	 eax, DWORD PTR _c_rucNumVertex$[ebp]
  0000a	0f b6 00	 movzx	 eax, BYTE PTR [eax]
  0000d	83 f8 03	 cmp	 eax, 3
  00010	7e 02		 jle	 SHORT $LN2@Clear

; 38   : 		return;

  00012	eb 21		 jmp	 SHORT $LN1@Clear
$LN2@Clear:

; 39   : 	m_Helper[c_rucNumVertex].Clear(c_rfRed, c_rfGreen, c_rfBlue, c_rfAlpha);

  00014	ff 75 18	 push	 DWORD PTR _c_rfAlpha$[ebp]
  00017	ff 75 14	 push	 DWORD PTR _c_rfBlue$[ebp]
  0001a	ff 75 10	 push	 DWORD PTR _c_rfGreen$[ebp]
  0001d	ff 75 0c	 push	 DWORD PTR _c_rfRed$[ebp]
  00020	8b 45 08	 mov	 eax, DWORD PTR _c_rucNumVertex$[ebp]
  00023	0f b6 00	 movzx	 eax, BYTE PTR [eax]
  00026	6b c0 30	 imul	 eax, eax, 48
  00029	8b 4d fc	 mov	 ecx, DWORD PTR _this$[ebp]
  0002c	8d 4c 01 6c	 lea	 ecx, DWORD PTR [ecx+eax+108]
  00030	e8 00 00 00 00	 call	 ?Clear@CColorTransitionHelper@@QAEXABM000@Z ; CColorTransitionHelper::Clear
$LN1@Clear:

; 40   : }

  00035	c9		 leave
  00036	c2 14 00	 ret	 20			; 00000014H
?Clear@CSkyObjectQuad@@QAEXABEABM111@Z ENDP		; CSkyObjectQuad::Clear
_TEXT	ENDS
; Function compile flags: /Odspy
; File D:\Metin2 Server Files\mainline\SRC_2014\Metin2Client\EterLib\SkyBox.cpp
;	COMDAT ??1CSkyObjectQuad@@UAE@XZ
_TEXT	SEGMENT
_this$ = -16						; size = 4
__$EHRec$ = -12						; size = 12
??1CSkyObjectQuad@@UAE@XZ PROC				; CSkyObjectQuad::~CSkyObjectQuad, COMDAT
; _this$ = ecx

; 28   : {

  00000	55		 push	 ebp
  00001	8b ec		 mov	 ebp, esp
  00003	6a ff		 push	 -1
  00005	68 00 00 00 00	 push	 __ehhandler$??1CSkyObjectQuad@@UAE@XZ
  0000a	64 a1 00 00 00
	00		 mov	 eax, DWORD PTR fs:0
  00010	50		 push	 eax
  00011	51		 push	 ecx
  00012	a1 00 00 00 00	 mov	 eax, DWORD PTR ___security_cookie
  00017	33 c5		 xor	 eax, ebp
  00019	50		 push	 eax
  0001a	8d 45 f4	 lea	 eax, DWORD PTR __$EHRec$[ebp]
  0001d	64 a3 00 00 00
	00		 mov	 DWORD PTR fs:0, eax
  00023	89 4d f0	 mov	 DWORD PTR _this$[ebp], ecx
  00026	8b 45 f0	 mov	 eax, DWORD PTR _this$[ebp]
  00029	c7 00 00 00 00
	00		 mov	 DWORD PTR [eax], OFFSET ??_7CSkyObjectQuad@@6B@

; 29   : }

  0002f	68 00 00 00 00	 push	 OFFSET ??1CColorTransitionHelper@@QAE@XZ ; CColorTransitionHelper::~CColorTransitionHelper
  00034	6a 04		 push	 4
  00036	6a 30		 push	 48			; 00000030H
  00038	8b 45 f0	 mov	 eax, DWORD PTR _this$[ebp]
  0003b	83 c0 6c	 add	 eax, 108		; 0000006cH
  0003e	50		 push	 eax
  0003f	e8 00 00 00 00	 call	 ??_M@YGXPAXIIP6EX0@Z@Z
  00044	8b 4d f4	 mov	 ecx, DWORD PTR __$EHRec$[ebp]
  00047	64 89 0d 00 00
	00 00		 mov	 DWORD PTR fs:0, ecx
  0004e	59		 pop	 ecx
  0004f	c9		 leave
  00050	c3		 ret	 0
  00051	cc		 int	 3
  00052	cc		 int	 3
  00053	cc		 int	 3
  00054	cc		 int	 3
  00055	cc		 int	 3
_TEXT	ENDS
;	COMDAT text$x
text$x	SEGMENT
__ehhandler$??1CSkyObjectQuad@@UAE@XZ:
  00000	90		 npad	 1
  00001	90		 npad	 1
  00002	8b 54 24 08	 mov	 edx, DWORD PTR [esp+8]
  00006	8d 42 0c	 lea	 eax, DWORD PTR [edx+12]
  00009	8b 4a f8	 mov	 ecx, DWORD PTR [edx-8]
  0000c	33 c8		 xor	 ecx, eax
  0000e	e8 00 00 00 00	 call	 @__security_check_cookie@4
  00013	b8 00 00 00 00	 mov	 eax, OFFSET __ehfuncinfo$??1CSkyObjectQuad@@UAE@XZ
  00018	e9 00 00 00 00	 jmp	 ___CxxFrameHandler3
text$x	ENDS
??1CSkyObjectQuad@@UAE@XZ ENDP				; CSkyObjectQuad::~CSkyObjectQuad
; Function compile flags: /Odspy
; File D:\Metin2 Server Files\mainline\SRC_2014\Metin2Client\EterLib\SkyBox.cpp
;	COMDAT ??0CSkyObjectQuad@@QAE@XZ
_TEXT	SEGMENT
tv142 = -20						; size = 4
___t$ = -16						; size = 4
___n$ = -12						; size = 4
_this$ = -8						; size = 4
_uci$1 = -1						; size = 1
??0CSkyObjectQuad@@QAE@XZ PROC				; CSkyObjectQuad::CSkyObjectQuad, COMDAT
; _this$ = ecx

; 14   : {

  00000	55		 push	 ebp
  00001	8b ec		 mov	 ebp, esp
  00003	83 ec 14	 sub	 esp, 20			; 00000014H
  00006	89 4d f8	 mov	 DWORD PTR _this$[ebp], ecx
  00009	8b 45 f8	 mov	 eax, DWORD PTR _this$[ebp]
  0000c	c7 00 00 00 00
	00		 mov	 DWORD PTR [eax], OFFSET ??_7CSkyObjectQuad@@6B@
  00012	c7 45 f4 04 00
	00 00		 mov	 DWORD PTR ___n$[ebp], 4
  00019	8b 45 f8	 mov	 eax, DWORD PTR _this$[ebp]
  0001c	83 c0 04	 add	 eax, 4
  0001f	89 45 f0	 mov	 DWORD PTR ___t$[ebp], eax
$LN8@CSkyObject:
  00022	8b 45 f4	 mov	 eax, DWORD PTR ___n$[ebp]
  00025	89 45 ec	 mov	 DWORD PTR tv142[ebp], eax
  00028	8b 45 f4	 mov	 eax, DWORD PTR ___n$[ebp]
  0002b	48		 dec	 eax
  0002c	89 45 f4	 mov	 DWORD PTR ___n$[ebp], eax
  0002f	83 7d ec 00	 cmp	 DWORD PTR tv142[ebp], 0
  00033	76 0b		 jbe	 SHORT $LN7@CSkyObject
  00035	8b 45 f0	 mov	 eax, DWORD PTR ___t$[ebp]
  00038	83 c0 18	 add	 eax, 24			; 00000018H
  0003b	89 45 f0	 mov	 DWORD PTR ___t$[ebp], eax
  0003e	eb e2		 jmp	 SHORT $LN8@CSkyObject
$LN7@CSkyObject:
  00040	68 00 00 00 00	 push	 OFFSET ??1CColorTransitionHelper@@QAE@XZ ; CColorTransitionHelper::~CColorTransitionHelper
  00045	68 00 00 00 00	 push	 OFFSET ??0CColorTransitionHelper@@QAE@XZ ; CColorTransitionHelper::CColorTransitionHelper
  0004a	6a 04		 push	 4
  0004c	6a 30		 push	 48			; 00000030H
  0004e	8b 45 f8	 mov	 eax, DWORD PTR _this$[ebp]
  00051	83 c0 6c	 add	 eax, 108		; 0000006cH
  00054	50		 push	 eax
  00055	e8 00 00 00 00	 call	 ??_L@YGXPAXIIP6EX0@Z1@Z

; 15   : 	// Index buffer
; 16   : 	m_Indices[0] = 0;

  0005a	6a 02		 push	 2
  0005c	58		 pop	 eax
  0005d	6b c0 00	 imul	 eax, eax, 0
  00060	33 c9		 xor	 ecx, ecx
  00062	8b 55 f8	 mov	 edx, DWORD PTR _this$[ebp]
  00065	66 89 4c 02 64	 mov	 WORD PTR [edx+eax+100], cx

; 17   : 	m_Indices[1] = 2;

  0006a	6a 02		 push	 2
  0006c	58		 pop	 eax
  0006d	c1 e0 00	 shl	 eax, 0
  00070	6a 02		 push	 2
  00072	59		 pop	 ecx
  00073	8b 55 f8	 mov	 edx, DWORD PTR _this$[ebp]
  00076	66 89 4c 02 64	 mov	 WORD PTR [edx+eax+100], cx

; 18   : 	m_Indices[2] = 1;

  0007b	6a 02		 push	 2
  0007d	58		 pop	 eax
  0007e	d1 e0		 shl	 eax, 1
  00080	33 c9		 xor	 ecx, ecx
  00082	41		 inc	 ecx
  00083	8b 55 f8	 mov	 edx, DWORD PTR _this$[ebp]
  00086	66 89 4c 02 64	 mov	 WORD PTR [edx+eax+100], cx

; 19   : 	m_Indices[3] = 3;

  0008b	6a 02		 push	 2
  0008d	58		 pop	 eax
  0008e	6b c0 03	 imul	 eax, eax, 3
  00091	6a 03		 push	 3
  00093	59		 pop	 ecx
  00094	8b 55 f8	 mov	 edx, DWORD PTR _this$[ebp]
  00097	66 89 4c 02 64	 mov	 WORD PTR [edx+eax+100], cx

; 20   : 
; 21   : 	for (unsigned char uci = 0; uci < 4; ++uci)

  0009c	c6 45 ff 00	 mov	 BYTE PTR _uci$1[ebp], 0
  000a0	eb 08		 jmp	 SHORT $LN4@CSkyObject
$LN2@CSkyObject:
  000a2	8a 45 ff	 mov	 al, BYTE PTR _uci$1[ebp]
  000a5	04 01		 add	 al, 1
  000a7	88 45 ff	 mov	 BYTE PTR _uci$1[ebp], al
$LN4@CSkyObject:
  000aa	0f b6 45 ff	 movzx	 eax, BYTE PTR _uci$1[ebp]
  000ae	83 f8 04	 cmp	 eax, 4
  000b1	7d 1d		 jge	 SHORT $LN1@CSkyObject

; 22   : 	{
; 23   : 		memset(&m_Vertex[uci], 0, sizeof(TPDTVertex));

  000b3	6a 18		 push	 24			; 00000018H
  000b5	6a 00		 push	 0
  000b7	0f b6 45 ff	 movzx	 eax, BYTE PTR _uci$1[ebp]
  000bb	6b c0 18	 imul	 eax, eax, 24
  000be	8b 4d f8	 mov	 ecx, DWORD PTR _this$[ebp]
  000c1	8d 44 01 04	 lea	 eax, DWORD PTR [ecx+eax+4]
  000c5	50		 push	 eax
  000c6	e8 00 00 00 00	 call	 _memset
  000cb	83 c4 0c	 add	 esp, 12			; 0000000cH

; 24   : 	}

  000ce	eb d2		 jmp	 SHORT $LN2@CSkyObject
$LN1@CSkyObject:

; 25   : }

  000d0	8b 45 f8	 mov	 eax, DWORD PTR _this$[ebp]
  000d3	c9		 leave
  000d4	c3		 ret	 0
??0CSkyObjectQuad@@QAE@XZ ENDP				; CSkyObjectQuad::CSkyObjectQuad
_TEXT	ENDS
; Function compile flags: /Odspy
; File C:\Program Files (x86)\Microsoft Visual Studio\2019\Community\VC\Tools\MSVC\14.28.29333\include\xmemory
;	COMDAT ??$_Allocate_manually_vector_aligned@U_Default_allocate_traits@std@@@std@@YAPAXI@Z
_TEXT	SEGMENT
__Ptr$ = -12						; size = 4
__Block_size$ = -8					; size = 4
__Ptr_container$ = -4					; size = 4
__Bytes$ = 8						; size = 4
??$_Allocate_manually_vector_aligned@U_Default_allocate_traits@std@@@std@@YAPAXI@Z PROC ; std::_Allocate_manually_vector_aligned<std::_Default_allocate_traits>, COMDAT

; 113  : __declspec(allocator) void* _Allocate_manually_vector_aligned(const size_t _Bytes) {

  00000	55		 push	 ebp
  00001	8b ec		 mov	 ebp, esp
  00003	83 ec 0c	 sub	 esp, 12			; 0000000cH

; 114  :     // allocate _Bytes manually aligned to at least _Big_allocation_alignment
; 115  :     const size_t _Block_size = _Non_user_size + _Bytes;

  00006	8b 45 08	 mov	 eax, DWORD PTR __Bytes$[ebp]
  00009	83 c0 23	 add	 eax, 35			; 00000023H
  0000c	89 45 f8	 mov	 DWORD PTR __Block_size$[ebp], eax

; 116  :     if (_Block_size <= _Bytes) {

  0000f	8b 45 f8	 mov	 eax, DWORD PTR __Block_size$[ebp]
  00012	3b 45 08	 cmp	 eax, DWORD PTR __Bytes$[ebp]
  00015	77 05		 ja	 SHORT $LN12@Allocate_m

; 117  :         _Throw_bad_array_new_length(); // add overflow

  00017	e8 00 00 00 00	 call	 ?_Throw_bad_array_new_length@std@@YAXXZ ; std::_Throw_bad_array_new_length
$LN12@Allocate_m:

; 77   :         return ::operator new(_Bytes);

  0001c	ff 75 f8	 push	 DWORD PTR __Block_size$[ebp]
  0001f	e8 00 00 00 00	 call	 ??2@YAPAXI@Z		; operator new
  00024	59		 pop	 ecx

; 118  :     }
; 119  : 
; 120  :     const uintptr_t _Ptr_container = reinterpret_cast<uintptr_t>(_Traits::_Allocate(_Block_size));

  00025	89 45 fc	 mov	 DWORD PTR __Ptr_container$[ebp], eax
$LN4@Allocate_m:

; 121  :     _STL_VERIFY(_Ptr_container != 0, "invalid argument"); // validate even in release since we're doing p[-1]

  00028	83 7d fc 00	 cmp	 DWORD PTR __Ptr_container$[ebp], 0
  0002c	74 02		 je	 SHORT $LN7@Allocate_m
  0002e	eb 09		 jmp	 SHORT $LN2@Allocate_m
$LN7@Allocate_m:
  00030	e8 00 00 00 00	 call	 __invalid_parameter_noinfo_noreturn
  00035	33 c0		 xor	 eax, eax
  00037	75 f7		 jne	 SHORT $LN7@Allocate_m
$LN2@Allocate_m:
  00039	33 c0		 xor	 eax, eax
  0003b	75 eb		 jne	 SHORT $LN4@Allocate_m

; 122  :     void* const _Ptr = reinterpret_cast<void*>((_Ptr_container + _Non_user_size) & ~(_Big_allocation_alignment - 1));

  0003d	8b 45 fc	 mov	 eax, DWORD PTR __Ptr_container$[ebp]
  00040	83 c0 23	 add	 eax, 35			; 00000023H
  00043	83 e0 e0	 and	 eax, -32		; ffffffe0H
  00046	89 45 f4	 mov	 DWORD PTR __Ptr$[ebp], eax

; 123  :     static_cast<uintptr_t*>(_Ptr)[-1] = _Ptr_container;

  00049	6a 04		 push	 4
  0004b	58		 pop	 eax
  0004c	6b c0 ff	 imul	 eax, eax, -1
  0004f	8b 4d f4	 mov	 ecx, DWORD PTR __Ptr$[ebp]
  00052	8b 55 fc	 mov	 edx, DWORD PTR __Ptr_container$[ebp]
  00055	89 14 01	 mov	 DWORD PTR [ecx+eax], edx

; 124  : 
; 125  : #ifdef _DEBUG
; 126  :     static_cast<uintptr_t*>(_Ptr)[-2] = _Big_allocation_sentinel;
; 127  : #endif // _DEBUG
; 128  :     return _Ptr;

  00058	8b 45 f4	 mov	 eax, DWORD PTR __Ptr$[ebp]
$LN11@Allocate_m:

; 129  : }

  0005b	c9		 leave
  0005c	c3		 ret	 0
??$_Allocate_manually_vector_aligned@U_Default_allocate_traits@std@@@std@@YAPAXI@Z ENDP ; std::_Allocate_manually_vector_aligned<std::_Default_allocate_traits>
_TEXT	ENDS
; Function compile flags: /Odspy
; File C:\Program Files (x86)\Microsoft Visual Studio\2019\Community\VC\Tools\MSVC\14.28.29333\include\xmemory
;	COMDAT ??$_Allocate@$07U_Default_allocate_traits@std@@$0A@@std@@YAPAXI@Z
_TEXT	SEGMENT
__Bytes$ = 8						; size = 4
??$_Allocate@$07U_Default_allocate_traits@std@@$0A@@std@@YAPAXI@Z PROC ; std::_Allocate<8,std::_Default_allocate_traits,0>, COMDAT

; 197  : __declspec(allocator) void* _Allocate(const size_t _Bytes) {

  00000	55		 push	 ebp
  00001	8b ec		 mov	 ebp, esp

; 198  :     // allocate _Bytes when !_HAS_ALIGNED_NEW || _Align <= __STDCPP_DEFAULT_NEW_ALIGNMENT__
; 199  : #if defined(_M_IX86) || defined(_M_X64)
; 200  :     if (_Bytes >= _Big_allocation_threshold) { // boost the alignment of big allocations to help autovectorization

  00003	81 7d 08 00 10
	00 00		 cmp	 DWORD PTR __Bytes$[ebp], 4096 ; 00001000H
  0000a	72 0b		 jb	 SHORT $LN2@Allocate

; 201  :         return _Allocate_manually_vector_aligned<_Traits>(_Bytes);

  0000c	ff 75 08	 push	 DWORD PTR __Bytes$[ebp]
  0000f	e8 00 00 00 00	 call	 ??$_Allocate_manually_vector_aligned@U_Default_allocate_traits@std@@@std@@YAPAXI@Z ; std::_Allocate_manually_vector_aligned<std::_Default_allocate_traits>
  00014	59		 pop	 ecx
  00015	eb 13		 jmp	 SHORT $LN1@Allocate
$LN2@Allocate:

; 202  :     }
; 203  : #endif // defined(_M_IX86) || defined(_M_X64)
; 204  : 
; 205  :     if (_Bytes != 0) {

  00017	83 7d 08 00	 cmp	 DWORD PTR __Bytes$[ebp], 0
  0001b	74 0b		 je	 SHORT $LN3@Allocate

; 77   :         return ::operator new(_Bytes);

  0001d	ff 75 08	 push	 DWORD PTR __Bytes$[ebp]
  00020	e8 00 00 00 00	 call	 ??2@YAPAXI@Z		; operator new
  00025	59		 pop	 ecx

; 206  :         return _Traits::_Allocate(_Bytes);

  00026	eb 02		 jmp	 SHORT $LN1@Allocate
$LN3@Allocate:

; 207  :     }
; 208  : 
; 209  :     return nullptr;

  00028	33 c0		 xor	 eax, eax
$LN1@Allocate:

; 210  : }

  0002a	5d		 pop	 ebp
  0002b	c3		 ret	 0
??$_Allocate@$07U_Default_allocate_traits@std@@$0A@@std@@YAPAXI@Z ENDP ; std::_Allocate<8,std::_Default_allocate_traits,0>
_TEXT	ENDS
; Function compile flags: /Odspy
; File C:\Program Files (x86)\Microsoft Visual Studio\2019\Community\VC\Tools\MSVC\14.28.29333\include\xmemory
;	COMDAT ??$_Deallocate@$07$0A@@std@@YAXPAXI@Z
_TEXT	SEGMENT
__$EHRec$ = -12						; size = 12
__Ptr$ = 8						; size = 4
__Bytes$ = 12						; size = 4
??$_Deallocate@$07$0A@@std@@YAXPAXI@Z PROC		; std::_Deallocate<8,0>, COMDAT

; 213  : void _Deallocate(void* _Ptr, size_t _Bytes) noexcept {

  00000	55		 push	 ebp
  00001	8b ec		 mov	 ebp, esp
  00003	6a ff		 push	 -1
  00005	68 00 00 00 00	 push	 __ehhandler$??$_Deallocate@$07$0A@@std@@YAXPAXI@Z
  0000a	64 a1 00 00 00
	00		 mov	 eax, DWORD PTR fs:0
  00010	50		 push	 eax
  00011	a1 00 00 00 00	 mov	 eax, DWORD PTR ___security_cookie
  00016	33 c5		 xor	 eax, ebp
  00018	50		 push	 eax
  00019	8d 45 f4	 lea	 eax, DWORD PTR __$EHRec$[ebp]
  0001c	64 a3 00 00 00
	00		 mov	 DWORD PTR fs:0, eax

; 214  :     // deallocate storage allocated by _Allocate when !_HAS_ALIGNED_NEW || _Align <= __STDCPP_DEFAULT_NEW_ALIGNMENT__
; 215  : #if defined(_M_IX86) || defined(_M_X64)
; 216  :     if (_Bytes >= _Big_allocation_threshold) { // boost the alignment of big allocations to help autovectorization

  00022	81 7d 0c 00 10
	00 00		 cmp	 DWORD PTR __Bytes$[ebp], 4096 ; 00001000H
  00029	72 0f		 jb	 SHORT $LN2@Deallocate

; 217  :         _Adjust_manually_vector_aligned(_Ptr, _Bytes);

  0002b	8d 45 0c	 lea	 eax, DWORD PTR __Bytes$[ebp]
  0002e	50		 push	 eax
  0002f	8d 45 08	 lea	 eax, DWORD PTR __Ptr$[ebp]
  00032	50		 push	 eax
  00033	e8 00 00 00 00	 call	 ?_Adjust_manually_vector_aligned@std@@YAXAAPAXAAI@Z ; std::_Adjust_manually_vector_aligned
  00038	59		 pop	 ecx
  00039	59		 pop	 ecx
$LN2@Deallocate:

; 218  :     }
; 219  : #endif // defined(_M_IX86) || defined(_M_X64)
; 220  : 
; 221  :     ::operator delete(_Ptr, _Bytes);

  0003a	ff 75 0c	 push	 DWORD PTR __Bytes$[ebp]
  0003d	ff 75 08	 push	 DWORD PTR __Ptr$[ebp]
  00040	e8 00 00 00 00	 call	 ??3@YAXPAXI@Z		; operator delete
  00045	59		 pop	 ecx
  00046	59		 pop	 ecx

; 222  : }

  00047	8b 4d f4	 mov	 ecx, DWORD PTR __$EHRec$[ebp]
  0004a	64 89 0d 00 00
	00 00		 mov	 DWORD PTR fs:0, ecx
  00051	59		 pop	 ecx
  00052	c9		 leave
  00053	c3		 ret	 0
  00054	cc		 int	 3
  00055	cc		 int	 3
  00056	cc		 int	 3
  00057	cc		 int	 3
  00058	cc		 int	 3
_TEXT	ENDS
;	COMDAT text$x
text$x	SEGMENT
__ehhandler$??$_Deallocate@$07$0A@@std@@YAXPAXI@Z:
  00000	90		 npad	 1
  00001	90		 npad	 1
  00002	8b 54 24 08	 mov	 edx, DWORD PTR [esp+8]
  00006	8d 42 0c	 lea	 eax, DWORD PTR [edx+12]
  00009	8b 4a fc	 mov	 ecx, DWORD PTR [edx-4]
  0000c	33 c8		 xor	 ecx, eax
  0000e	e8 00 00 00 00	 call	 @__security_check_cookie@4
  00013	b8 00 00 00 00	 mov	 eax, OFFSET __ehfuncinfo$??$_Deallocate@$07$0A@@std@@YAXPAXI@Z
  00018	e9 00 00 00 00	 jmp	 ___CxxFrameHandler3
text$x	ENDS
??$_Deallocate@$07$0A@@std@@YAXPAXI@Z ENDP		; std::_Deallocate<8,0>
; Function compile flags: /Odspy
; File C:\Program Files (x86)\Microsoft Visual Studio\2019\Community\VC\Tools\MSVC\14.28.29333\include\xmemory
; File C:\Program Files (x86)\Microsoft Visual Studio\2019\Community\VC\Tools\MSVC\14.28.29333\include\xstddef
; File C:\Program Files (x86)\Microsoft Visual Studio\2019\Community\VC\Tools\MSVC\14.28.29333\include\vcruntime_new.h
; File C:\Program Files (x86)\Microsoft Visual Studio\2019\Community\VC\Tools\MSVC\14.28.29333\include\type_traits
; File C:\Program Files (x86)\Microsoft Visual Studio\2019\Community\VC\Tools\MSVC\14.28.29333\include\xmemory
;	COMDAT ??$_Construct_in_place@PADABQAD@std@@YAXAAPADABQAD@Z
_TEXT	SEGMENT
$T1 = -12						; size = 4
$T2 = -8						; size = 4
$T3 = -4						; size = 4
__Obj$ = 8						; size = 4
_<_Args_0>$ = 12					; size = 4
??$_Construct_in_place@PADABQAD@std@@YAXAAPADABQAD@Z PROC ; std::_Construct_in_place<char *,char * const &>, COMDAT

; 228  : void _Construct_in_place(_Ty& _Obj, _Types&&... _Args) noexcept(is_nothrow_constructible_v<_Ty, _Types...>) {

  00000	55		 push	 ebp
  00001	8b ec		 mov	 ebp, esp
  00003	83 ec 0c	 sub	 esp, 12			; 0000000cH
; File C:\Program Files (x86)\Microsoft Visual Studio\2019\Community\VC\Tools\MSVC\14.28.29333\include\xstddef

; 275  :     return __builtin_addressof(_Val);

  00006	8b 45 08	 mov	 eax, DWORD PTR __Obj$[ebp]
  00009	89 45 fc	 mov	 DWORD PTR $T3[ebp], eax
; File C:\Program Files (x86)\Microsoft Visual Studio\2019\Community\VC\Tools\MSVC\14.28.29333\include\vcruntime_new.h

; 169  :         return _Where;

  0000c	8b 45 fc	 mov	 eax, DWORD PTR $T3[ebp]
  0000f	89 45 f8	 mov	 DWORD PTR $T2[ebp], eax
; File C:\Program Files (x86)\Microsoft Visual Studio\2019\Community\VC\Tools\MSVC\14.28.29333\include\type_traits

; 1443 :     return static_cast<_Ty&&>(_Arg);

  00012	8b 45 0c	 mov	 eax, DWORD PTR _<_Args_0>$[ebp]
  00015	89 45 f4	 mov	 DWORD PTR $T1[ebp], eax
; File C:\Program Files (x86)\Microsoft Visual Studio\2019\Community\VC\Tools\MSVC\14.28.29333\include\xmemory

; 229  :     ::new (const_cast<void*>(static_cast<const volatile void*>(_STD addressof(_Obj))))

  00018	8b 45 f8	 mov	 eax, DWORD PTR $T2[ebp]
  0001b	8b 4d f4	 mov	 ecx, DWORD PTR $T1[ebp]
  0001e	8b 09		 mov	 ecx, DWORD PTR [ecx]
  00020	89 08		 mov	 DWORD PTR [eax], ecx

; 230  :         _Ty(_STD forward<_Types>(_Args)...);
; 231  : }

  00022	c9		 leave
  00023	c3		 ret	 0
??$_Construct_in_place@PADABQAD@std@@YAXAAPADABQAD@Z ENDP ; std::_Construct_in_place<char *,char * const &>
_TEXT	ENDS
; Function compile flags: /Odspy
; File C:\Program Files (x86)\Microsoft Visual Studio\2019\Community\VC\Tools\MSVC\14.28.29333\include\xstring
; File C:\Program Files (x86)\Microsoft Visual Studio\2019\Community\VC\Tools\MSVC\14.28.29333\include\xmemory
; File C:\Program Files (x86)\Microsoft Visual Studio\2019\Community\VC\Tools\MSVC\14.28.29333\include\xstring
; File C:\Program Files (x86)\Microsoft Visual Studio\2019\Community\VC\Tools\MSVC\14.28.29333\include\xmemory
; File C:\Program Files (x86)\Microsoft Visual Studio\2019\Community\VC\Tools\MSVC\14.28.29333\include\xstring
; File C:\Program Files (x86)\Microsoft Visual Studio\2019\Community\VC\Tools\MSVC\14.28.29333\include\xmemory
; File C:\Program Files (x86)\Microsoft Visual Studio\2019\Community\VC\Tools\MSVC\14.28.29333\include\xstring
; File C:\Program Files (x86)\Microsoft Visual Studio\2019\Community\VC\Tools\MSVC\14.28.29333\include\xstddef
; File C:\Program Files (x86)\Microsoft Visual Studio\2019\Community\VC\Tools\MSVC\14.28.29333\include\xstring
; File C:\Program Files (x86)\Microsoft Visual Studio\2019\Community\VC\Tools\MSVC\14.28.29333\include\xmemory
; File C:\Program Files (x86)\Microsoft Visual Studio\2019\Community\VC\Tools\MSVC\14.28.29333\include\xstring
;	COMDAT ??$_Reallocate_for@V<lambda_9366063389c5f42a00a5088cf24e69de>@@PBD@?$basic_string@DU?$char_traits@D@std@@V?$allocator@D@2@@std@@AAEAAV01@IV<lambda_9366063389c5f42a00a5088cf24e69de>@@PBD@Z
_TEXT	SEGMENT
__Al$ = -40						; size = 4
__Ptr$ = -36						; size = 4
__Ptr$ = -32						; size = 4
$T1 = -28						; size = 4
__Old_capacity$ = -24					; size = 4
$T2 = -20						; size = 4
__New_capacity$ = -16					; size = 4
__New_ptr$ = -12					; size = 4
_this$ = -8						; size = 4
__Overflow_is_possible$3 = -2				; size = 1
$T4 = -1						; size = 1
__New_size$ = 8						; size = 4
__Fn$ = 12						; size = 1
_<_Args_0>$ = 16					; size = 4
??$_Reallocate_for@V<lambda_9366063389c5f42a00a5088cf24e69de>@@PBD@?$basic_string@DU?$char_traits@D@std@@V?$allocator@D@2@@std@@AAEAAV01@IV<lambda_9366063389c5f42a00a5088cf24e69de>@@PBD@Z PROC ; std::basic_string<char,std::char_traits<char>,std::allocator<char> >::_Reallocate_for<<lambda_9366063389c5f42a00a5088cf24e69de>,char const *>, COMDAT
; _this$ = ecx

; 4302 :     basic_string& _Reallocate_for(const size_type _New_size, _Fty _Fn, _ArgTys... _Args) {

  00000	55		 push	 ebp
  00001	8b ec		 mov	 ebp, esp
  00003	83 ec 28	 sub	 esp, 40			; 00000028H
  00006	89 4d f8	 mov	 DWORD PTR _this$[ebp], ecx

; 4303 :         // reallocate to store exactly _New_size elements, new buffer prepared by
; 4304 :         // _Fn(_New_ptr, _New_size, _Args...)
; 4305 :         if (_New_size > max_size()) {

  00009	8b 4d f8	 mov	 ecx, DWORD PTR _this$[ebp]
  0000c	e8 00 00 00 00	 call	 ?max_size@?$basic_string@DU?$char_traits@D@std@@V?$allocator@D@2@@std@@QBEIXZ ; std::basic_string<char,std::char_traits<char>,std::allocator<char> >::max_size
  00011	39 45 08	 cmp	 DWORD PTR __New_size$[ebp], eax
  00014	76 05		 jbe	 SHORT $LN2@Reallocate

; 4306 :             _Xlen_string(); // result too long

  00016	e8 00 00 00 00	 call	 ?_Xlen_string@std@@YAXXZ ; std::_Xlen_string
$LN2@Reallocate:

; 4307 :         }
; 4308 : 
; 4309 :         const size_type _Old_capacity = _Mypair._Myval2._Myres;

  0001b	8b 45 f8	 mov	 eax, DWORD PTR _this$[ebp]
  0001e	8b 40 14	 mov	 eax, DWORD PTR [eax+20]
  00021	89 45 e8	 mov	 DWORD PTR __Old_capacity$[ebp], eax

; 4310 :         const size_type _New_capacity = _Calculate_growth(_New_size);

  00024	ff 75 08	 push	 DWORD PTR __New_size$[ebp]
  00027	8b 4d f8	 mov	 ecx, DWORD PTR _this$[ebp]
  0002a	e8 00 00 00 00	 call	 ?_Calculate_growth@?$basic_string@DU?$char_traits@D@std@@V?$allocator@D@2@@std@@ABEII@Z ; std::basic_string<char,std::char_traits<char>,std::allocator<char> >::_Calculate_growth
  0002f	89 45 f0	 mov	 DWORD PTR __New_capacity$[ebp], eax

; 4409 :         return _Mypair._Get_first();

  00032	8b 45 f8	 mov	 eax, DWORD PTR _this$[ebp]
; File C:\Program Files (x86)\Microsoft Visual Studio\2019\Community\VC\Tools\MSVC\14.28.29333\include\xmemory

; 1347 :         return *this;

  00035	89 45 e4	 mov	 DWORD PTR $T1[ebp], eax
; File C:\Program Files (x86)\Microsoft Visual Studio\2019\Community\VC\Tools\MSVC\14.28.29333\include\xstring

; 4409 :         return _Mypair._Get_first();

  00038	8b 45 e4	 mov	 eax, DWORD PTR $T1[ebp]
  0003b	89 45 d8	 mov	 DWORD PTR __Al$[ebp], eax
; File C:\Program Files (x86)\Microsoft Visual Studio\2019\Community\VC\Tools\MSVC\14.28.29333\include\xmemory

; 56   :     constexpr bool _Overflow_is_possible = _Ty_size > 1;

  0003e	c6 45 fe 00	 mov	 BYTE PTR __Overflow_is_possible$3[ebp], 0
; File C:\Program Files (x86)\Microsoft Visual Studio\2019\Community\VC\Tools\MSVC\14.28.29333\include\xstring

; 4312 :         const pointer _New_ptr        = _Al.allocate(_New_capacity + 1); // throws

  00042	8b 45 f0	 mov	 eax, DWORD PTR __New_capacity$[ebp]
  00045	40		 inc	 eax
; File C:\Program Files (x86)\Microsoft Visual Studio\2019\Community\VC\Tools\MSVC\14.28.29333\include\xmemory

; 814  :         return static_cast<_Ty*>(_Allocate<_New_alignof<_Ty>>(_Get_size_of_n<sizeof(_Ty)>(_Count)));

  00046	50		 push	 eax
  00047	e8 00 00 00 00	 call	 ??$_Allocate@$07U_Default_allocate_traits@std@@$0A@@std@@YAPAXI@Z ; std::_Allocate<8,std::_Default_allocate_traits,0>
  0004c	59		 pop	 ecx
; File C:\Program Files (x86)\Microsoft Visual Studio\2019\Community\VC\Tools\MSVC\14.28.29333\include\xstring

; 4312 :         const pointer _New_ptr        = _Al.allocate(_New_capacity + 1); // throws

  0004d	89 45 f4	 mov	 DWORD PTR __New_ptr$[ebp], eax

; 4313 :         _Mypair._Myval2._Orphan_all();
; 4314 :         _Mypair._Myval2._Mysize = _New_size;

  00050	8b 45 f8	 mov	 eax, DWORD PTR _this$[ebp]
  00053	8b 4d 08	 mov	 ecx, DWORD PTR __New_size$[ebp]
  00056	89 48 10	 mov	 DWORD PTR [eax+16], ecx

; 4315 :         _Mypair._Myval2._Myres  = _New_capacity;

  00059	8b 45 f8	 mov	 eax, DWORD PTR _this$[ebp]
  0005c	8b 4d f0	 mov	 ecx, DWORD PTR __New_capacity$[ebp]
  0005f	89 48 14	 mov	 DWORD PTR [eax+20], ecx

; 4316 :         _Fn(_Unfancy(_New_ptr), _New_size, _Args...);

  00062	8b 45 f4	 mov	 eax, DWORD PTR __New_ptr$[ebp]
  00065	89 45 e0	 mov	 DWORD PTR __Ptr$[ebp], eax
; File C:\Program Files (x86)\Microsoft Visual Studio\2019\Community\VC\Tools\MSVC\14.28.29333\include\xstddef

; 289  :     return _Ptr;

  00068	8b 45 e0	 mov	 eax, DWORD PTR __Ptr$[ebp]
  0006b	89 45 ec	 mov	 DWORD PTR $T2[ebp], eax
; File C:\Program Files (x86)\Microsoft Visual Studio\2019\Community\VC\Tools\MSVC\14.28.29333\include\xstring

; 62   :         _CSTD memcpy(_First1, _First2, _Count * sizeof(_Elem));

  0006e	ff 75 08	 push	 DWORD PTR __New_size$[ebp]
  00071	ff 75 10	 push	 DWORD PTR _<_Args_0>$[ebp]
  00074	ff 75 ec	 push	 DWORD PTR $T2[ebp]
  00077	e8 00 00 00 00	 call	 _memcpy
  0007c	83 c4 0c	 add	 esp, 12			; 0000000cH

; 3056 :                 _Traits::assign(_New_ptr[_Count], _Elem());

  0007f	c6 45 ff 00	 mov	 BYTE PTR $T4[ebp], 0

; 428  :         _Left = _Right;

  00083	8b 45 ec	 mov	 eax, DWORD PTR $T2[ebp]
  00086	03 45 08	 add	 eax, DWORD PTR __New_size$[ebp]
  00089	8a 4d ff	 mov	 cl, BYTE PTR $T4[ebp]
  0008c	88 08		 mov	 BYTE PTR [eax], cl

; 4317 :         if (_BUF_SIZE <= _Old_capacity) {

  0008e	83 7d e8 10	 cmp	 DWORD PTR __Old_capacity$[ebp], 16 ; 00000010H
  00092	72 21		 jb	 SHORT $LN3@Reallocate

; 4318 :             _Al.deallocate(_Mypair._Myval2._Bx._Ptr, _Old_capacity + 1);

  00094	8b 45 f8	 mov	 eax, DWORD PTR _this$[ebp]
  00097	8b 00		 mov	 eax, DWORD PTR [eax]
  00099	89 45 dc	 mov	 DWORD PTR __Ptr$[ebp], eax
  0009c	8b 45 e8	 mov	 eax, DWORD PTR __Old_capacity$[ebp]
  0009f	40		 inc	 eax
; File C:\Program Files (x86)\Microsoft Visual Studio\2019\Community\VC\Tools\MSVC\14.28.29333\include\xmemory

; 810  :         _Deallocate<_New_alignof<_Ty>>(_Ptr, sizeof(_Ty) * _Count);

  000a0	50		 push	 eax
  000a1	ff 75 dc	 push	 DWORD PTR __Ptr$[ebp]
  000a4	e8 00 00 00 00	 call	 ??$_Deallocate@$07$0A@@std@@YAXPAXI@Z ; std::_Deallocate<8,0>
  000a9	59		 pop	 ecx
  000aa	59		 pop	 ecx
; File C:\Program Files (x86)\Microsoft Visual Studio\2019\Community\VC\Tools\MSVC\14.28.29333\include\xstring

; 4319 :             _Mypair._Myval2._Bx._Ptr = _New_ptr;

  000ab	8b 45 f8	 mov	 eax, DWORD PTR _this$[ebp]
  000ae	8b 4d f4	 mov	 ecx, DWORD PTR __New_ptr$[ebp]
  000b1	89 08		 mov	 DWORD PTR [eax], ecx

; 4320 :         } else {

  000b3	eb 0e		 jmp	 SHORT $LN4@Reallocate
$LN3@Reallocate:

; 4321 :             _Construct_in_place(_Mypair._Myval2._Bx._Ptr, _New_ptr);

  000b5	8d 45 f4	 lea	 eax, DWORD PTR __New_ptr$[ebp]
  000b8	50		 push	 eax
  000b9	ff 75 f8	 push	 DWORD PTR _this$[ebp]
  000bc	e8 00 00 00 00	 call	 ??$_Construct_in_place@PADABQAD@std@@YAXAAPADABQAD@Z ; std::_Construct_in_place<char *,char * const &>
  000c1	59		 pop	 ecx
  000c2	59		 pop	 ecx
$LN4@Reallocate:

; 4322 :         }
; 4323 : 
; 4324 :         return *this;

  000c3	8b 45 f8	 mov	 eax, DWORD PTR _this$[ebp]
$LN5@Reallocate:

; 4325 :     }

  000c6	c9		 leave
  000c7	c2 0c 00	 ret	 12			; 0000000cH
??$_Reallocate_for@V<lambda_9366063389c5f42a00a5088cf24e69de>@@PBD@?$basic_string@DU?$char_traits@D@std@@V?$allocator@D@2@@std@@AAEAAV01@IV<lambda_9366063389c5f42a00a5088cf24e69de>@@PBD@Z ENDP ; std::basic_string<char,std::char_traits<char>,std::allocator<char> >::_Reallocate_for<<lambda_9366063389c5f42a00a5088cf24e69de>,char const *>
_TEXT	ENDS
; Function compile flags: /Odspy
; File C:\Program Files (x86)\Microsoft Visual Studio\2019\Community\VC\Tools\MSVC\14.28.29333\include\xmemory
;	COMDAT ??$_Destroy_in_place@PAD@std@@YAXAAPAD@Z
_TEXT	SEGMENT
__Obj$ = 8						; size = 4
??$_Destroy_in_place@PAD@std@@YAXAAPAD@Z PROC		; std::_Destroy_in_place<char *>, COMDAT

; 270  : /* _CONSTEXPR20_DYNALLOC */ void _Destroy_in_place(_Ty& _Obj) noexcept {

  00000	55		 push	 ebp
  00001	8b ec		 mov	 ebp, esp

; 271  : #if _HAS_IF_CONSTEXPR
; 272  :     if constexpr (is_array_v<_Ty>) {
; 273  :         _Destroy_range(_Obj, _Obj + extent_v<_Ty>);
; 274  :     } else
; 275  : #endif // _HAS_IF_CONSTEXPR
; 276  :     {
; 277  :         _Obj.~_Ty();
; 278  :     }
; 279  : }

  00003	5d		 pop	 ebp
  00004	c3		 ret	 0
??$_Destroy_in_place@PAD@std@@YAXAAPAD@Z ENDP		; std::_Destroy_in_place<char *>
_TEXT	ENDS
; Function compile flags: /Odspy
; File C:\Program Files (x86)\Microsoft Visual Studio\2019\Community\VC\Tools\MSVC\14.28.29333\include\xtree
;	COMDAT ?_Throw_tree_length_error@std@@YAXXZ
_TEXT	SEGMENT
?_Throw_tree_length_error@std@@YAXXZ PROC		; std::_Throw_tree_length_error, COMDAT

; 414  : [[noreturn]] inline void _Throw_tree_length_error() {

  00000	55		 push	 ebp
  00001	8b ec		 mov	 ebp, esp

; 415  :     _Xlength_error("map/set too long");

  00003	68 00 00 00 00	 push	 OFFSET ??_C@_0BB@GCADKGJO@map?1set?5too?5long@
  00008	e8 00 00 00 00	 call	 ?_Xlength_error@std@@YAXPBD@Z ; std::_Xlength_error
$LN2@Throw_tree:

; 416  : }

  0000d	5d		 pop	 ebp
  0000e	c3		 ret	 0
?_Throw_tree_length_error@std@@YAXXZ ENDP		; std::_Throw_tree_length_error
_TEXT	ENDS
; Function compile flags: /Odspy
;	COMDAT ??1?$_Compressed_pair@V?$allocator@D@std@@V?$_String_val@U?$_Simple_types@D@std@@@2@$00@std@@QAE@XZ
_TEXT	SEGMENT
_this$ = -4						; size = 4
??1?$_Compressed_pair@V?$allocator@D@std@@V?$_String_val@U?$_Simple_types@D@std@@@2@$00@std@@QAE@XZ PROC ; std::_Compressed_pair<std::allocator<char>,std::_String_val<std::_Simple_types<char> >,1>::~_Compressed_pair<std::allocator<char>,std::_String_val<std::_Simple_types<char> >,1>, COMDAT
; _this$ = ecx
  00000	55		 push	 ebp
  00001	8b ec		 mov	 ebp, esp
  00003	51		 push	 ecx
  00004	89 4d fc	 mov	 DWORD PTR _this$[ebp], ecx
  00007	c9		 leave
  00008	c3		 ret	 0
??1?$_Compressed_pair@V?$allocator@D@std@@V?$_String_val@U?$_Simple_types@D@std@@@2@$00@std@@QAE@XZ ENDP ; std::_Compressed_pair<std::allocator<char>,std::_String_val<std::_Simple_types<char> >,1>::~_Compressed_pair<std::allocator<char>,std::_String_val<std::_Simple_types<char> >,1>
_TEXT	ENDS
; Function compile flags: /Odspy
; File C:\Program Files (x86)\Microsoft Visual Studio\2019\Community\VC\Tools\MSVC\14.28.29333\include\xstring
; File C:\Program Files (x86)\Microsoft Visual Studio\2019\Community\VC\Tools\MSVC\14.28.29333\include\xmemory
; File C:\Program Files (x86)\Microsoft Visual Studio\2019\Community\VC\Tools\MSVC\14.28.29333\include\xstring
; File C:\Program Files (x86)\Microsoft Visual Studio\2019\Community\VC\Tools\MSVC\14.28.29333\include\xmemory
; File C:\Program Files (x86)\Microsoft Visual Studio\2019\Community\VC\Tools\MSVC\14.28.29333\include\xstring
;	COMDAT ?_Tidy_deallocate@?$basic_string@DU?$char_traits@D@std@@V?$allocator@D@2@@std@@AAEXXZ
_TEXT	SEGMENT
__Al$1 = -28						; size = 4
__Ptr$2 = -24						; size = 4
__Count$ = -20						; size = 4
$T3 = -16						; size = 4
tv68 = -12						; size = 4
_this$ = -8						; size = 4
$T4 = -2						; size = 1
$T5 = -1						; size = 1
?_Tidy_deallocate@?$basic_string@DU?$char_traits@D@std@@V?$allocator@D@2@@std@@AAEXXZ PROC ; std::basic_string<char,std::char_traits<char>,std::allocator<char> >::_Tidy_deallocate, COMDAT
; _this$ = ecx

; 4383 :     void _Tidy_deallocate() noexcept { // initialize buffer, deallocating any storage

  00000	55		 push	 ebp
  00001	8b ec		 mov	 ebp, esp
  00003	83 ec 1c	 sub	 esp, 28			; 0000001cH
  00006	89 4d f8	 mov	 DWORD PTR _this$[ebp], ecx

; 2227 :         return _BUF_SIZE <= _Myres;

  00009	8b 45 f8	 mov	 eax, DWORD PTR _this$[ebp]
  0000c	83 78 14 10	 cmp	 DWORD PTR [eax+20], 16	; 00000010H
  00010	72 09		 jb	 SHORT $LN9@Tidy_deall
  00012	c7 45 f4 01 00
	00 00		 mov	 DWORD PTR tv68[ebp], 1
  00019	eb 04		 jmp	 SHORT $LN10@Tidy_deall
$LN9@Tidy_deall:
  0001b	83 65 f4 00	 and	 DWORD PTR tv68[ebp], 0
$LN10@Tidy_deall:
  0001f	8a 45 f4	 mov	 al, BYTE PTR tv68[ebp]
  00022	88 45 ff	 mov	 BYTE PTR $T5[ebp], al

; 4384 :         _Mypair._Myval2._Orphan_all();
; 4385 :         if (_Mypair._Myval2._Large_string_engaged()) {

  00025	0f b6 45 ff	 movzx	 eax, BYTE PTR $T5[ebp]
  00029	85 c0		 test	 eax, eax
  0002b	74 34		 je	 SHORT $LN2@Tidy_deall

; 4386 :             const pointer _Ptr = _Mypair._Myval2._Bx._Ptr;

  0002d	8b 45 f8	 mov	 eax, DWORD PTR _this$[ebp]
  00030	8b 00		 mov	 eax, DWORD PTR [eax]
  00032	89 45 e8	 mov	 DWORD PTR __Ptr$2[ebp], eax

; 4409 :         return _Mypair._Get_first();

  00035	8b 45 f8	 mov	 eax, DWORD PTR _this$[ebp]
; File C:\Program Files (x86)\Microsoft Visual Studio\2019\Community\VC\Tools\MSVC\14.28.29333\include\xmemory

; 1347 :         return *this;

  00038	89 45 f0	 mov	 DWORD PTR $T3[ebp], eax
; File C:\Program Files (x86)\Microsoft Visual Studio\2019\Community\VC\Tools\MSVC\14.28.29333\include\xstring

; 4409 :         return _Mypair._Get_first();

  0003b	8b 45 f0	 mov	 eax, DWORD PTR $T3[ebp]
  0003e	89 45 e4	 mov	 DWORD PTR __Al$1[ebp], eax

; 4387 :             auto& _Al          = _Getal();
; 4388 :             _Destroy_in_place(_Mypair._Myval2._Bx._Ptr);

  00041	ff 75 f8	 push	 DWORD PTR _this$[ebp]
  00044	e8 00 00 00 00	 call	 ??$_Destroy_in_place@PAD@std@@YAXAAPAD@Z ; std::_Destroy_in_place<char *>
  00049	59		 pop	 ecx

; 4389 :             _Al.deallocate(_Ptr, _Mypair._Myval2._Myres + 1);

  0004a	8b 45 f8	 mov	 eax, DWORD PTR _this$[ebp]
  0004d	8b 40 14	 mov	 eax, DWORD PTR [eax+20]
  00050	40		 inc	 eax
  00051	89 45 ec	 mov	 DWORD PTR __Count$[ebp], eax
; File C:\Program Files (x86)\Microsoft Visual Studio\2019\Community\VC\Tools\MSVC\14.28.29333\include\xmemory

; 810  :         _Deallocate<_New_alignof<_Ty>>(_Ptr, sizeof(_Ty) * _Count);

  00054	ff 75 ec	 push	 DWORD PTR __Count$[ebp]
  00057	ff 75 e8	 push	 DWORD PTR __Ptr$2[ebp]
  0005a	e8 00 00 00 00	 call	 ??$_Deallocate@$07$0A@@std@@YAXPAXI@Z ; std::_Deallocate<8,0>
  0005f	59		 pop	 ecx
  00060	59		 pop	 ecx
$LN2@Tidy_deall:
; File C:\Program Files (x86)\Microsoft Visual Studio\2019\Community\VC\Tools\MSVC\14.28.29333\include\xstring

; 4392 :         _Mypair._Myval2._Mysize = 0;

  00061	8b 45 f8	 mov	 eax, DWORD PTR _this$[ebp]
  00064	83 60 10 00	 and	 DWORD PTR [eax+16], 0

; 4393 :         _Mypair._Myval2._Myres  = _BUF_SIZE - 1;

  00068	8b 45 f8	 mov	 eax, DWORD PTR _this$[ebp]
  0006b	c7 40 14 0f 00
	00 00		 mov	 DWORD PTR [eax+20], 15	; 0000000fH

; 4394 :         // the _Traits::assign is last so the codegen doesn't think the char write can alias this
; 4395 :         _Traits::assign(_Mypair._Myval2._Bx._Buf[0], _Elem());

  00072	c6 45 fe 00	 mov	 BYTE PTR $T4[ebp], 0
  00076	33 c0		 xor	 eax, eax
  00078	40		 inc	 eax
  00079	6b c0 00	 imul	 eax, eax, 0

; 428  :         _Left = _Right;

  0007c	8b 4d f8	 mov	 ecx, DWORD PTR _this$[ebp]
  0007f	8a 55 fe	 mov	 dl, BYTE PTR $T4[ebp]
  00082	88 14 01	 mov	 BYTE PTR [ecx+eax], dl

; 4396 :     }

  00085	c9		 leave
  00086	c3		 ret	 0
?_Tidy_deallocate@?$basic_string@DU?$char_traits@D@std@@V?$allocator@D@2@@std@@AAEXXZ ENDP ; std::basic_string<char,std::char_traits<char>,std::allocator<char> >::_Tidy_deallocate
_TEXT	ENDS
; Function compile flags: /Odspy
; File C:\Program Files (x86)\Microsoft Visual Studio\2019\Community\VC\Tools\MSVC\14.28.29333\include\xstring
;	COMDAT ?_Tidy_init@?$basic_string@DU?$char_traits@D@std@@V?$allocator@D@2@@std@@AAEXXZ
_TEXT	SEGMENT
_this$ = -8						; size = 4
$T1 = -1						; size = 1
?_Tidy_init@?$basic_string@DU?$char_traits@D@std@@V?$allocator@D@2@@std@@AAEXXZ PROC ; std::basic_string<char,std::char_traits<char>,std::allocator<char> >::_Tidy_init, COMDAT
; _this$ = ecx

; 4376 :     void _Tidy_init() noexcept { // initialize basic_string data members

  00000	55		 push	 ebp
  00001	8b ec		 mov	 ebp, esp
  00003	51		 push	 ecx
  00004	51		 push	 ecx
  00005	89 4d f8	 mov	 DWORD PTR _this$[ebp], ecx

; 4377 :         _Mypair._Myval2._Mysize = 0;

  00008	8b 45 f8	 mov	 eax, DWORD PTR _this$[ebp]
  0000b	83 60 10 00	 and	 DWORD PTR [eax+16], 0

; 4378 :         _Mypair._Myval2._Myres  = _BUF_SIZE - 1;

  0000f	8b 45 f8	 mov	 eax, DWORD PTR _this$[ebp]
  00012	c7 40 14 0f 00
	00 00		 mov	 DWORD PTR [eax+20], 15	; 0000000fH

; 4379 :         // the _Traits::assign is last so the codegen doesn't think the char write can alias this
; 4380 :         _Traits::assign(_Mypair._Myval2._Bx._Buf[0], _Elem());

  00019	c6 45 ff 00	 mov	 BYTE PTR $T1[ebp], 0
  0001d	33 c0		 xor	 eax, eax
  0001f	40		 inc	 eax
  00020	6b c0 00	 imul	 eax, eax, 0

; 428  :         _Left = _Right;

  00023	8b 4d f8	 mov	 ecx, DWORD PTR _this$[ebp]
  00026	8a 55 ff	 mov	 dl, BYTE PTR $T1[ebp]
  00029	88 14 01	 mov	 BYTE PTR [ecx+eax], dl

; 4381 :     }

  0002c	c9		 leave
  0002d	c3		 ret	 0
?_Tidy_init@?$basic_string@DU?$char_traits@D@std@@V?$allocator@D@2@@std@@AAEXXZ ENDP ; std::basic_string<char,std::char_traits<char>,std::allocator<char> >::_Tidy_init
_TEXT	ENDS
; Function compile flags: /Odspy
; File C:\Program Files (x86)\Microsoft Visual Studio\2019\Community\VC\Tools\MSVC\14.28.29333\include\xstring
; File C:\Program Files (x86)\Microsoft Visual Studio\2019\Community\VC\Tools\MSVC\14.28.29333\include\utility
; File C:\Program Files (x86)\Microsoft Visual Studio\2019\Community\VC\Tools\MSVC\14.28.29333\include\xstring
;	COMDAT ?_Calculate_growth@?$basic_string@DU?$char_traits@D@std@@V?$allocator@D@2@@std@@ABEII@Z
_TEXT	SEGMENT
$T1 = -36						; size = 4
$T2 = -32						; size = 4
tv93 = -28						; size = 4
$T3 = -24						; size = 4
_this$ = -20						; size = 4
$T4 = -16						; size = 4
__Masked$5 = -12					; size = 4
__Old$ = -8						; size = 4
__Max$ = -4						; size = 4
__Requested$ = 8					; size = 4
?_Calculate_growth@?$basic_string@DU?$char_traits@D@std@@V?$allocator@D@2@@std@@ABEII@Z PROC ; std::basic_string<char,std::char_traits<char>,std::allocator<char> >::_Calculate_growth, COMDAT
; _this$ = ecx

; 4297 :     _NODISCARD size_type _Calculate_growth(const size_type _Requested) const noexcept {

  00000	55		 push	 ebp
  00001	8b ec		 mov	 ebp, esp
  00003	83 ec 24	 sub	 esp, 36			; 00000024H
  00006	89 4d ec	 mov	 DWORD PTR _this$[ebp], ecx

; 4298 :         return _Calculate_growth(_Requested, _Mypair._Myval2._Myres, max_size());

  00009	8b 4d ec	 mov	 ecx, DWORD PTR _this$[ebp]
  0000c	e8 00 00 00 00	 call	 ?max_size@?$basic_string@DU?$char_traits@D@std@@V?$allocator@D@2@@std@@QBEIXZ ; std::basic_string<char,std::char_traits<char>,std::allocator<char> >::max_size
  00011	89 45 fc	 mov	 DWORD PTR __Max$[ebp], eax
  00014	8b 45 ec	 mov	 eax, DWORD PTR _this$[ebp]
  00017	8b 40 14	 mov	 eax, DWORD PTR [eax+20]
  0001a	89 45 f8	 mov	 DWORD PTR __Old$[ebp], eax

; 4285 :         const size_type _Masked = _Requested | _ALLOC_MASK;

  0001d	8b 45 08	 mov	 eax, DWORD PTR __Requested$[ebp]
  00020	83 c8 0f	 or	 eax, 15			; 0000000fH
  00023	89 45 f4	 mov	 DWORD PTR __Masked$5[ebp], eax

; 4286 :         if (_Masked > _Max) { // the mask overflows, settle for max_size()

  00026	8b 45 f4	 mov	 eax, DWORD PTR __Masked$5[ebp]
  00029	3b 45 fc	 cmp	 eax, DWORD PTR __Max$[ebp]
  0002c	76 08		 jbe	 SHORT $LN29@Calculate_

; 4287 :             return _Max;

  0002e	8b 45 fc	 mov	 eax, DWORD PTR __Max$[ebp]
  00031	89 45 f0	 mov	 DWORD PTR $T4[ebp], eax
  00034	eb 4c		 jmp	 SHORT $LN31@Calculate_
$LN29@Calculate_:

; 4288 :         }
; 4289 : 
; 4290 :         if (_Old > _Max - _Old / 2) { // similarly, geometric overflows

  00036	8b 45 f8	 mov	 eax, DWORD PTR __Old$[ebp]
  00039	d1 e8		 shr	 eax, 1
  0003b	8b 4d fc	 mov	 ecx, DWORD PTR __Max$[ebp]
  0003e	2b c8		 sub	 ecx, eax
  00040	39 4d f8	 cmp	 DWORD PTR __Old$[ebp], ecx
  00043	76 08		 jbe	 SHORT $LN30@Calculate_

; 4291 :             return _Max;

  00045	8b 45 fc	 mov	 eax, DWORD PTR __Max$[ebp]
  00048	89 45 f0	 mov	 DWORD PTR $T4[ebp], eax
  0004b	eb 35		 jmp	 SHORT $LN31@Calculate_
$LN30@Calculate_:

; 4294 :         return (_STD max)(_Masked, _Old + _Old / 2);

  0004d	8b 45 f8	 mov	 eax, DWORD PTR __Old$[ebp]
  00050	d1 e8		 shr	 eax, 1
  00052	03 45 f8	 add	 eax, DWORD PTR __Old$[ebp]
  00055	89 45 e8	 mov	 DWORD PTR $T3[ebp], eax
; File C:\Program Files (x86)\Microsoft Visual Studio\2019\Community\VC\Tools\MSVC\14.28.29333\include\utility

; 44   :     return _Left < _Right ? _Right : _Left;

  00058	8b 45 f4	 mov	 eax, DWORD PTR __Masked$5[ebp]
  0005b	3b 45 e8	 cmp	 eax, DWORD PTR $T3[ebp]
  0005e	73 08		 jae	 SHORT $LN35@Calculate_
  00060	8d 45 e8	 lea	 eax, DWORD PTR $T3[ebp]
  00063	89 45 e4	 mov	 DWORD PTR tv93[ebp], eax
  00066	eb 06		 jmp	 SHORT $LN36@Calculate_
$LN35@Calculate_:
  00068	8d 45 f4	 lea	 eax, DWORD PTR __Masked$5[ebp]
  0006b	89 45 e4	 mov	 DWORD PTR tv93[ebp], eax
$LN36@Calculate_:
  0006e	8b 45 e4	 mov	 eax, DWORD PTR tv93[ebp]
  00071	89 45 e0	 mov	 DWORD PTR $T2[ebp], eax
  00074	8b 45 e0	 mov	 eax, DWORD PTR $T2[ebp]
  00077	89 45 dc	 mov	 DWORD PTR $T1[ebp], eax
; File C:\Program Files (x86)\Microsoft Visual Studio\2019\Community\VC\Tools\MSVC\14.28.29333\include\xstring

; 4294 :         return (_STD max)(_Masked, _Old + _Old / 2);

  0007a	8b 45 dc	 mov	 eax, DWORD PTR $T1[ebp]
  0007d	8b 00		 mov	 eax, DWORD PTR [eax]
  0007f	89 45 f0	 mov	 DWORD PTR $T4[ebp], eax
$LN31@Calculate_:

; 4298 :         return _Calculate_growth(_Requested, _Mypair._Myval2._Myres, max_size());

  00082	8b 45 f0	 mov	 eax, DWORD PTR $T4[ebp]

; 4299 :     }

  00085	c9		 leave
  00086	c2 04 00	 ret	 4
?_Calculate_growth@?$basic_string@DU?$char_traits@D@std@@V?$allocator@D@2@@std@@ABEII@Z ENDP ; std::basic_string<char,std::char_traits<char>,std::allocator<char> >::_Calculate_growth
_TEXT	ENDS
; Function compile flags: /Odspy
; File C:\Program Files (x86)\Microsoft Visual Studio\2019\Community\VC\Tools\MSVC\14.28.29333\include\xstring
; File C:\Program Files (x86)\Microsoft Visual Studio\2019\Community\VC\Tools\MSVC\14.28.29333\include\xstddef
; File C:\Program Files (x86)\Microsoft Visual Studio\2019\Community\VC\Tools\MSVC\14.28.29333\include\xstring
; File C:\Program Files (x86)\Microsoft Visual Studio\2019\Community\VC\Tools\MSVC\14.28.29333\include\xstddef
; File C:\Program Files (x86)\Microsoft Visual Studio\2019\Community\VC\Tools\MSVC\14.28.29333\include\xstring
; File C:\Program Files (x86)\Microsoft Visual Studio\2019\Community\VC\Tools\MSVC\14.28.29333\include\utility
; File C:\Program Files (x86)\Microsoft Visual Studio\2019\Community\VC\Tools\MSVC\14.28.29333\include\xstring
;	COMDAT ?compare@?$basic_string@DU?$char_traits@D@std@@V?$allocator@D@2@@std@@QBEHABV12@@Z
_TEXT	SEGMENT
$T1 = -80						; size = 4
$T2 = -76						; size = 4
__Count$ = -72						; size = 4
$T3 = -68						; size = 4
$T4 = -64						; size = 4
__Ptr$ = -60						; size = 4
__Ptr$ = -56						; size = 4
__Ans$5 = -52						; size = 4
tv146 = -48						; size = 4
_this$ = -44						; size = 4
__Result$6 = -40					; size = 4
tv137 = -36						; size = 4
__Result$7 = -32					; size = 4
tv95 = -28						; size = 4
_this$ = -24						; size = 4
_this$ = -20						; size = 4
$T8 = -16						; size = 4
__Right_size$ = -12					; size = 4
__Left_size$ = -8					; size = 4
$T9 = -2						; size = 1
$T10 = -1						; size = 1
__Right$ = 8						; size = 4
?compare@?$basic_string@DU?$char_traits@D@std@@V?$allocator@D@2@@std@@QBEHABV12@@Z PROC ; std::basic_string<char,std::char_traits<char>,std::allocator<char> >::compare, COMDAT
; _this$ = ecx

; 4212 :     _NODISCARD int compare(const basic_string& _Right) const noexcept { // compare [0, size()) with _Right

  00000	55		 push	 ebp
  00001	8b ec		 mov	 ebp, esp
  00003	83 ec 50	 sub	 esp, 80			; 00000050H
  00006	89 4d d4	 mov	 DWORD PTR _this$[ebp], ecx

; 4213 :         return _Traits_compare<_Traits>(_Mypair._Myval2._Myptr(), _Mypair._Myval2._Mysize,

  00009	8b 45 08	 mov	 eax, DWORD PTR __Right$[ebp]
  0000c	89 45 ec	 mov	 DWORD PTR _this$[ebp], eax

; 2218 :         const value_type* _Result = _Bx._Buf;

  0000f	8b 45 ec	 mov	 eax, DWORD PTR _this$[ebp]
  00012	89 45 e0	 mov	 DWORD PTR __Result$7[ebp], eax

; 2227 :         return _BUF_SIZE <= _Myres;

  00015	8b 45 ec	 mov	 eax, DWORD PTR _this$[ebp]
  00018	83 78 14 10	 cmp	 DWORD PTR [eax+20], 16	; 00000010H
  0001c	72 09		 jb	 SHORT $LN9@compare
  0001e	c7 45 e4 01 00
	00 00		 mov	 DWORD PTR tv95[ebp], 1
  00025	eb 04		 jmp	 SHORT $LN10@compare
$LN9@compare:
  00027	83 65 e4 00	 and	 DWORD PTR tv95[ebp], 0
$LN10@compare:
  0002b	8a 45 e4	 mov	 al, BYTE PTR tv95[ebp]
  0002e	88 45 ff	 mov	 BYTE PTR $T10[ebp], al

; 2219 :         if (_Large_string_engaged()) {

  00031	0f b6 45 ff	 movzx	 eax, BYTE PTR $T10[ebp]
  00035	85 c0		 test	 eax, eax
  00037	74 0e		 je	 SHORT $LN4@compare

; 2220 :             _Result = _Unfancy(_Bx._Ptr);

  00039	8b 45 ec	 mov	 eax, DWORD PTR _this$[ebp]
  0003c	8b 00		 mov	 eax, DWORD PTR [eax]
  0003e	89 45 c8	 mov	 DWORD PTR __Ptr$[ebp], eax
; File C:\Program Files (x86)\Microsoft Visual Studio\2019\Community\VC\Tools\MSVC\14.28.29333\include\xstddef

; 289  :     return _Ptr;

  00041	8b 45 c8	 mov	 eax, DWORD PTR __Ptr$[ebp]
  00044	89 45 e0	 mov	 DWORD PTR __Result$7[ebp], eax
$LN4@compare:
; File C:\Program Files (x86)\Microsoft Visual Studio\2019\Community\VC\Tools\MSVC\14.28.29333\include\xstring

; 2223 :         return _Result;

  00047	8b 45 e0	 mov	 eax, DWORD PTR __Result$7[ebp]
  0004a	89 45 b4	 mov	 DWORD PTR $T2[ebp], eax

; 4213 :         return _Traits_compare<_Traits>(_Mypair._Myval2._Myptr(), _Mypair._Myval2._Mysize,

  0004d	8b 45 d4	 mov	 eax, DWORD PTR _this$[ebp]
  00050	89 45 e8	 mov	 DWORD PTR _this$[ebp], eax

; 2218 :         const value_type* _Result = _Bx._Buf;

  00053	8b 45 e8	 mov	 eax, DWORD PTR _this$[ebp]
  00056	89 45 d8	 mov	 DWORD PTR __Result$6[ebp], eax

; 2227 :         return _BUF_SIZE <= _Myres;

  00059	8b 45 e8	 mov	 eax, DWORD PTR _this$[ebp]
  0005c	83 78 14 10	 cmp	 DWORD PTR [eax+20], 16	; 00000010H
  00060	72 09		 jb	 SHORT $LN21@compare
  00062	c7 45 dc 01 00
	00 00		 mov	 DWORD PTR tv137[ebp], 1
  00069	eb 04		 jmp	 SHORT $LN22@compare
$LN21@compare:
  0006b	83 65 dc 00	 and	 DWORD PTR tv137[ebp], 0
$LN22@compare:
  0006f	8a 45 dc	 mov	 al, BYTE PTR tv137[ebp]
  00072	88 45 fe	 mov	 BYTE PTR $T9[ebp], al

; 2219 :         if (_Large_string_engaged()) {

  00075	0f b6 45 fe	 movzx	 eax, BYTE PTR $T9[ebp]
  00079	85 c0		 test	 eax, eax
  0007b	74 0e		 je	 SHORT $LN16@compare

; 2220 :             _Result = _Unfancy(_Bx._Ptr);

  0007d	8b 45 e8	 mov	 eax, DWORD PTR _this$[ebp]
  00080	8b 00		 mov	 eax, DWORD PTR [eax]
  00082	89 45 c4	 mov	 DWORD PTR __Ptr$[ebp], eax
; File C:\Program Files (x86)\Microsoft Visual Studio\2019\Community\VC\Tools\MSVC\14.28.29333\include\xstddef

; 289  :     return _Ptr;

  00085	8b 45 c4	 mov	 eax, DWORD PTR __Ptr$[ebp]
  00088	89 45 d8	 mov	 DWORD PTR __Result$6[ebp], eax
$LN16@compare:
; File C:\Program Files (x86)\Microsoft Visual Studio\2019\Community\VC\Tools\MSVC\14.28.29333\include\xstring

; 2223 :         return _Result;

  0008b	8b 45 d8	 mov	 eax, DWORD PTR __Result$6[ebp]
  0008e	89 45 b0	 mov	 DWORD PTR $T1[ebp], eax

; 4213 :         return _Traits_compare<_Traits>(_Mypair._Myval2._Myptr(), _Mypair._Myval2._Mysize,

  00091	8b 45 08	 mov	 eax, DWORD PTR __Right$[ebp]
  00094	8b 40 10	 mov	 eax, DWORD PTR [eax+16]
  00097	89 45 f4	 mov	 DWORD PTR __Right_size$[ebp], eax
  0009a	8b 45 d4	 mov	 eax, DWORD PTR _this$[ebp]
  0009d	8b 40 10	 mov	 eax, DWORD PTR [eax+16]
  000a0	89 45 f8	 mov	 DWORD PTR __Left_size$[ebp], eax
; File C:\Program Files (x86)\Microsoft Visual Studio\2019\Community\VC\Tools\MSVC\14.28.29333\include\utility

; 68   :     return _Right < _Left ? _Right : _Left;

  000a3	8b 45 f4	 mov	 eax, DWORD PTR __Right_size$[ebp]
  000a6	3b 45 f8	 cmp	 eax, DWORD PTR __Left_size$[ebp]
  000a9	73 08		 jae	 SHORT $LN35@compare
  000ab	8d 45 f4	 lea	 eax, DWORD PTR __Right_size$[ebp]
  000ae	89 45 d0	 mov	 DWORD PTR tv146[ebp], eax
  000b1	eb 06		 jmp	 SHORT $LN36@compare
$LN35@compare:
  000b3	8d 45 f8	 lea	 eax, DWORD PTR __Left_size$[ebp]
  000b6	89 45 d0	 mov	 DWORD PTR tv146[ebp], eax
$LN36@compare:
  000b9	8b 45 d0	 mov	 eax, DWORD PTR tv146[ebp]
  000bc	89 45 c0	 mov	 DWORD PTR $T4[ebp], eax
  000bf	8b 45 c0	 mov	 eax, DWORD PTR $T4[ebp]
  000c2	89 45 bc	 mov	 DWORD PTR $T3[ebp], eax
; File C:\Program Files (x86)\Microsoft Visual Studio\2019\Community\VC\Tools\MSVC\14.28.29333\include\xstring

; 568  :     const int _Ans = _Traits::compare(_Left, _Right, (_STD min)(_Left_size, _Right_size));

  000c5	8b 45 bc	 mov	 eax, DWORD PTR $T3[ebp]
  000c8	8b 00		 mov	 eax, DWORD PTR [eax]
  000ca	89 45 b8	 mov	 DWORD PTR __Count$[ebp], eax

; 369  :         return _CSTD memcmp(_First1, _First2, _Count);

  000cd	ff 75 b8	 push	 DWORD PTR __Count$[ebp]
  000d0	ff 75 b4	 push	 DWORD PTR $T2[ebp]
  000d3	ff 75 b0	 push	 DWORD PTR $T1[ebp]
  000d6	e8 00 00 00 00	 call	 _memcmp
  000db	83 c4 0c	 add	 esp, 12			; 0000000cH
  000de	89 45 cc	 mov	 DWORD PTR __Ans$5[ebp], eax

; 570  :     if (_Ans != 0) {

  000e1	83 7d cc 00	 cmp	 DWORD PTR __Ans$5[ebp], 0
  000e5	74 08		 je	 SHORT $LN28@compare

; 571  :         return _Ans;

  000e7	8b 45 cc	 mov	 eax, DWORD PTR __Ans$5[ebp]
  000ea	89 45 f0	 mov	 DWORD PTR $T8[ebp], eax
  000ed	eb 23		 jmp	 SHORT $LN31@compare
$LN28@compare:

; 572  :     }
; 573  : 
; 574  :     if (_Left_size < _Right_size) {

  000ef	8b 45 f8	 mov	 eax, DWORD PTR __Left_size$[ebp]
  000f2	3b 45 f4	 cmp	 eax, DWORD PTR __Right_size$[ebp]
  000f5	73 06		 jae	 SHORT $LN29@compare

; 575  :         return -1;

  000f7	83 4d f0 ff	 or	 DWORD PTR $T8[ebp], -1
  000fb	eb 15		 jmp	 SHORT $LN31@compare
$LN29@compare:

; 576  :     }
; 577  : 
; 578  :     if (_Left_size > _Right_size) {

  000fd	8b 45 f8	 mov	 eax, DWORD PTR __Left_size$[ebp]
  00100	3b 45 f4	 cmp	 eax, DWORD PTR __Right_size$[ebp]
  00103	76 09		 jbe	 SHORT $LN30@compare

; 579  :         return 1;

  00105	c7 45 f0 01 00
	00 00		 mov	 DWORD PTR $T8[ebp], 1
  0010c	eb 04		 jmp	 SHORT $LN31@compare
$LN30@compare:

; 580  :     }
; 581  : 
; 582  :     return 0;

  0010e	83 65 f0 00	 and	 DWORD PTR $T8[ebp], 0
$LN31@compare:

; 4213 :         return _Traits_compare<_Traits>(_Mypair._Myval2._Myptr(), _Mypair._Myval2._Mysize,

  00112	8b 45 f0	 mov	 eax, DWORD PTR $T8[ebp]

; 4214 :             _Right._Mypair._Myval2._Myptr(), _Right._Mypair._Myval2._Mysize);
; 4215 :     }

  00115	c9		 leave
  00116	c2 04 00	 ret	 4
?compare@?$basic_string@DU?$char_traits@D@std@@V?$allocator@D@2@@std@@QBEHABV12@@Z ENDP ; std::basic_string<char,std::char_traits<char>,std::allocator<char> >::compare
_TEXT	ENDS
; Function compile flags: /Odspy
; File C:\Program Files (x86)\Microsoft Visual Studio\2019\Community\VC\Tools\MSVC\14.28.29333\include\xstring
; File C:\Program Files (x86)\Microsoft Visual Studio\2019\Community\VC\Tools\MSVC\14.28.29333\include\xmemory
; File C:\Program Files (x86)\Microsoft Visual Studio\2019\Community\VC\Tools\MSVC\14.28.29333\include\xstring
; File C:\Program Files (x86)\Microsoft Visual Studio\2019\Community\VC\Tools\MSVC\14.28.29333\include\xmemory
; File C:\Program Files (x86)\Microsoft Visual Studio\2019\Community\VC\Tools\MSVC\14.28.29333\include\xstring
; File C:\Program Files (x86)\Microsoft Visual Studio\2019\Community\VC\Tools\MSVC\14.28.29333\include\utility
; File C:\Program Files (x86)\Microsoft Visual Studio\2019\Community\VC\Tools\MSVC\14.28.29333\include\xstring
; File C:\Program Files (x86)\Microsoft Visual Studio\2019\Community\VC\Tools\MSVC\14.28.29333\include\limits
; File C:\Program Files (x86)\Microsoft Visual Studio\2019\Community\VC\Tools\MSVC\14.28.29333\include\xstring
; File C:\Program Files (x86)\Microsoft Visual Studio\2019\Community\VC\Tools\MSVC\14.28.29333\include\utility
; File C:\Program Files (x86)\Microsoft Visual Studio\2019\Community\VC\Tools\MSVC\14.28.29333\include\xstring
;	COMDAT ?max_size@?$basic_string@DU?$char_traits@D@std@@V?$allocator@D@2@@std@@QBEIXZ
_TEXT	SEGMENT
$T1 = -60						; size = 4
$T2 = -56						; size = 4
$T3 = -52						; size = 4
$T4 = -48						; size = 4
__Storage_max$ = -44					; size = 4
$T5 = -40						; size = 4
$T6 = -36						; size = 4
$T7 = -32						; size = 4
_this$ = -28						; size = 4
tv70 = -24						; size = 4
$T8 = -20						; size = 4
$T9 = -16						; size = 4
tv67 = -12						; size = 4
__Alloc_max$ = -8					; size = 4
$T10 = -4						; size = 4
?max_size@?$basic_string@DU?$char_traits@D@std@@V?$allocator@D@2@@std@@QBEIXZ PROC ; std::basic_string<char,std::char_traits<char>,std::allocator<char> >::max_size, COMDAT
; _this$ = ecx

; 3773 :     _NODISCARD size_type max_size() const noexcept {

  00000	55		 push	 ebp
  00001	8b ec		 mov	 ebp, esp
  00003	83 ec 3c	 sub	 esp, 60			; 0000003cH
  00006	89 4d e4	 mov	 DWORD PTR _this$[ebp], ecx

; 4413 :         return _Mypair._Get_first();

  00009	8b 45 e4	 mov	 eax, DWORD PTR _this$[ebp]
; File C:\Program Files (x86)\Microsoft Visual Studio\2019\Community\VC\Tools\MSVC\14.28.29333\include\xmemory

; 1351 :         return *this;

  0000c	89 45 e0	 mov	 DWORD PTR $T7[ebp], eax
; File C:\Program Files (x86)\Microsoft Visual Studio\2019\Community\VC\Tools\MSVC\14.28.29333\include\xstring

; 4413 :         return _Mypair._Get_first();

  0000f	8b 45 e0	 mov	 eax, DWORD PTR $T7[ebp]
  00012	89 45 c4	 mov	 DWORD PTR $T1[ebp], eax
; File C:\Program Files (x86)\Microsoft Visual Studio\2019\Community\VC\Tools\MSVC\14.28.29333\include\xmemory

; 710  :         return static_cast<size_t>(-1) / sizeof(value_type);

  00015	83 4d f8 ff	 or	 DWORD PTR __Alloc_max$[ebp], -1
; File C:\Program Files (x86)\Microsoft Visual Studio\2019\Community\VC\Tools\MSVC\14.28.29333\include\xstring

; 3775 :         const size_type _Storage_max = // can always store small string

  00019	c7 45 fc 10 00
	00 00		 mov	 DWORD PTR $T10[ebp], 16	; 00000010H
; File C:\Program Files (x86)\Microsoft Visual Studio\2019\Community\VC\Tools\MSVC\14.28.29333\include\utility

; 44   :     return _Left < _Right ? _Right : _Left;

  00020	8b 45 f8	 mov	 eax, DWORD PTR __Alloc_max$[ebp]
  00023	3b 45 fc	 cmp	 eax, DWORD PTR $T10[ebp]
  00026	73 08		 jae	 SHORT $LN14@max_size
  00028	8d 45 fc	 lea	 eax, DWORD PTR $T10[ebp]
  0002b	89 45 f4	 mov	 DWORD PTR tv67[ebp], eax
  0002e	eb 06		 jmp	 SHORT $LN15@max_size
$LN14@max_size:
  00030	8d 45 f8	 lea	 eax, DWORD PTR __Alloc_max$[ebp]
  00033	89 45 f4	 mov	 DWORD PTR tv67[ebp], eax
$LN15@max_size:
  00036	8b 45 f4	 mov	 eax, DWORD PTR tv67[ebp]
  00039	89 45 dc	 mov	 DWORD PTR $T6[ebp], eax
  0003c	8b 45 dc	 mov	 eax, DWORD PTR $T6[ebp]
  0003f	89 45 d8	 mov	 DWORD PTR $T5[ebp], eax
; File C:\Program Files (x86)\Microsoft Visual Studio\2019\Community\VC\Tools\MSVC\14.28.29333\include\xstring

; 3775 :         const size_type _Storage_max = // can always store small string

  00042	8b 45 d8	 mov	 eax, DWORD PTR $T5[ebp]
  00045	8b 00		 mov	 eax, DWORD PTR [eax]
  00047	89 45 d4	 mov	 DWORD PTR __Storage_max$[ebp], eax

; 3777 :         return (_STD min)(static_cast<size_type>((numeric_limits<difference_type>::max)()),

  0004a	8b 45 d4	 mov	 eax, DWORD PTR __Storage_max$[ebp]
  0004d	48		 dec	 eax
  0004e	89 45 f0	 mov	 DWORD PTR $T9[ebp], eax
; File C:\Program Files (x86)\Microsoft Visual Studio\2019\Community\VC\Tools\MSVC\14.28.29333\include\limits

; 557  :         return INT_MAX;

  00051	c7 45 d0 ff ff
	ff 7f		 mov	 DWORD PTR $T4[ebp], 2147483647 ; 7fffffffH
; File C:\Program Files (x86)\Microsoft Visual Studio\2019\Community\VC\Tools\MSVC\14.28.29333\include\xstring

; 3777 :         return (_STD min)(static_cast<size_type>((numeric_limits<difference_type>::max)()),

  00058	8b 45 d0	 mov	 eax, DWORD PTR $T4[ebp]
  0005b	89 45 ec	 mov	 DWORD PTR $T8[ebp], eax
; File C:\Program Files (x86)\Microsoft Visual Studio\2019\Community\VC\Tools\MSVC\14.28.29333\include\utility

; 68   :     return _Right < _Left ? _Right : _Left;

  0005e	8b 45 f0	 mov	 eax, DWORD PTR $T9[ebp]
  00061	3b 45 ec	 cmp	 eax, DWORD PTR $T8[ebp]
  00064	73 08		 jae	 SHORT $LN22@max_size
  00066	8d 45 f0	 lea	 eax, DWORD PTR $T9[ebp]
  00069	89 45 e8	 mov	 DWORD PTR tv70[ebp], eax
  0006c	eb 06		 jmp	 SHORT $LN23@max_size
$LN22@max_size:
  0006e	8d 45 ec	 lea	 eax, DWORD PTR $T8[ebp]
  00071	89 45 e8	 mov	 DWORD PTR tv70[ebp], eax
$LN23@max_size:
  00074	8b 45 e8	 mov	 eax, DWORD PTR tv70[ebp]
  00077	89 45 cc	 mov	 DWORD PTR $T3[ebp], eax
  0007a	8b 45 cc	 mov	 eax, DWORD PTR $T3[ebp]
  0007d	89 45 c8	 mov	 DWORD PTR $T2[ebp], eax
; File C:\Program Files (x86)\Microsoft Visual Studio\2019\Community\VC\Tools\MSVC\14.28.29333\include\xstring

; 3777 :         return (_STD min)(static_cast<size_type>((numeric_limits<difference_type>::max)()),

  00080	8b 45 c8	 mov	 eax, DWORD PTR $T2[ebp]
  00083	8b 00		 mov	 eax, DWORD PTR [eax]

; 3778 :             _Storage_max - 1 // -1 is for null terminator and/or npos
; 3779 :         );
; 3780 :     }

  00085	c9		 leave
  00086	c3		 ret	 0
?max_size@?$basic_string@DU?$char_traits@D@std@@V?$allocator@D@2@@std@@QBEIXZ ENDP ; std::basic_string<char,std::char_traits<char>,std::allocator<char> >::max_size
_TEXT	ENDS
; Function compile flags: /Odspy
; File C:\Program Files (x86)\Microsoft Visual Studio\2019\Community\VC\Tools\MSVC\14.28.29333\include\xstring
;	COMDAT ?assign@?$basic_string@DU?$char_traits@D@std@@V?$allocator@D@2@@std@@QAEAAV12@QBDI@Z
_TEXT	SEGMENT
$T1 = -16						; size = 1
__Old_ptr$2 = -12					; size = 4
_this$ = -8						; size = 4
$T3 = -1						; size = 1
__Ptr$ = 8						; size = 4
__Count$ = 12						; size = 4
?assign@?$basic_string@DU?$char_traits@D@std@@V?$allocator@D@2@@std@@QAEAAV12@QBDI@Z PROC ; std::basic_string<char,std::char_traits<char>,std::allocator<char> >::assign, COMDAT
; _this$ = ecx

; 3042 :     basic_string& assign(_In_reads_(_Count) const _Elem* const _Ptr, _CRT_GUARDOVERFLOW const size_type _Count) {

  00000	55		 push	 ebp
  00001	8b ec		 mov	 ebp, esp
  00003	83 ec 10	 sub	 esp, 16			; 00000010H
  00006	89 4d f8	 mov	 DWORD PTR _this$[ebp], ecx

; 3043 :         // assign [_Ptr, _Ptr + _Count)
; 3044 :         if (_Count <= _Mypair._Myval2._Myres) {

  00009	8b 45 f8	 mov	 eax, DWORD PTR _this$[ebp]
  0000c	8b 4d 0c	 mov	 ecx, DWORD PTR __Count$[ebp]
  0000f	3b 48 14	 cmp	 ecx, DWORD PTR [eax+20]
  00012	77 39		 ja	 SHORT $LN2@assign

; 3045 :             _Elem* const _Old_ptr   = _Mypair._Myval2._Myptr();

  00014	8b 4d f8	 mov	 ecx, DWORD PTR _this$[ebp]
  00017	e8 00 00 00 00	 call	 ?_Myptr@?$_String_val@U?$_Simple_types@D@std@@@std@@QAEPADXZ ; std::_String_val<std::_Simple_types<char> >::_Myptr
  0001c	89 45 f4	 mov	 DWORD PTR __Old_ptr$2[ebp], eax

; 3046 :             _Mypair._Myval2._Mysize = _Count;

  0001f	8b 45 f8	 mov	 eax, DWORD PTR _this$[ebp]
  00022	8b 4d 0c	 mov	 ecx, DWORD PTR __Count$[ebp]
  00025	89 48 10	 mov	 DWORD PTR [eax+16], ecx

; 119  :         _CSTD memmove(_First1, _First2, _Count * sizeof(_Elem));

  00028	ff 75 0c	 push	 DWORD PTR __Count$[ebp]
  0002b	ff 75 08	 push	 DWORD PTR __Ptr$[ebp]
  0002e	ff 75 f4	 push	 DWORD PTR __Old_ptr$2[ebp]
  00031	e8 00 00 00 00	 call	 _memmove
  00036	83 c4 0c	 add	 esp, 12			; 0000000cH

; 3047 :             _Traits::move(_Old_ptr, _Ptr, _Count);
; 3048 :             _Traits::assign(_Old_ptr[_Count], _Elem());

  00039	c6 45 ff 00	 mov	 BYTE PTR $T3[ebp], 0

; 428  :         _Left = _Right;

  0003d	8b 45 f4	 mov	 eax, DWORD PTR __Old_ptr$2[ebp]
  00040	03 45 0c	 add	 eax, DWORD PTR __Count$[ebp]
  00043	8a 4d ff	 mov	 cl, BYTE PTR $T3[ebp]
  00046	88 08		 mov	 BYTE PTR [eax], cl

; 3049 :             return *this;

  00048	8b 45 f8	 mov	 eax, DWORD PTR _this$[ebp]
  0004b	eb 16		 jmp	 SHORT $LN1@assign
$LN2@assign:

; 3050 :         }
; 3051 : 
; 3052 :         return _Reallocate_for(

  0004d	33 c0		 xor	 eax, eax
  0004f	88 45 f0	 mov	 BYTE PTR $T1[ebp], al
  00052	ff 75 08	 push	 DWORD PTR __Ptr$[ebp]
  00055	ff 75 f0	 push	 DWORD PTR $T1[ebp]
  00058	ff 75 0c	 push	 DWORD PTR __Count$[ebp]
  0005b	8b 4d f8	 mov	 ecx, DWORD PTR _this$[ebp]
  0005e	e8 00 00 00 00	 call	 ??$_Reallocate_for@V<lambda_9366063389c5f42a00a5088cf24e69de>@@PBD@?$basic_string@DU?$char_traits@D@std@@V?$allocator@D@2@@std@@AAEAAV01@IV<lambda_9366063389c5f42a00a5088cf24e69de>@@PBD@Z ; std::basic_string<char,std::char_traits<char>,std::allocator<char> >::_Reallocate_for<<lambda_9366063389c5f42a00a5088cf24e69de>,char const *>
$LN1@assign:

; 3053 :             _Count,
; 3054 :             [](_Elem* const _New_ptr, const size_type _Count, const _Elem* const _Ptr) {
; 3055 :                 _Traits::copy(_New_ptr, _Ptr, _Count);
; 3056 :                 _Traits::assign(_New_ptr[_Count], _Elem());
; 3057 :             },
; 3058 :             _Ptr);
; 3059 :     }

  00063	c9		 leave
  00064	c2 08 00	 ret	 8
?assign@?$basic_string@DU?$char_traits@D@std@@V?$allocator@D@2@@std@@QAEAAV12@QBDI@Z ENDP ; std::basic_string<char,std::char_traits<char>,std::allocator<char> >::assign
_TEXT	ENDS
; Function compile flags: /Odspy
; File C:\Program Files (x86)\Microsoft Visual Studio\2019\Community\VC\Tools\MSVC\14.28.29333\include\xstring
;	COMDAT ??1?$basic_string@DU?$char_traits@D@std@@V?$allocator@D@2@@std@@QAE@XZ
_TEXT	SEGMENT
_this$ = -4						; size = 4
??1?$basic_string@DU?$char_traits@D@std@@V?$allocator@D@2@@std@@QAE@XZ PROC ; std::basic_string<char,std::char_traits<char>,std::allocator<char> >::~basic_string<char,std::char_traits<char>,std::allocator<char> >, COMDAT
; _this$ = ecx

; 2800 :     ~basic_string() noexcept {

  00000	55		 push	 ebp
  00001	8b ec		 mov	 ebp, esp
  00003	51		 push	 ecx
  00004	89 4d fc	 mov	 DWORD PTR _this$[ebp], ecx

; 2801 :         _Tidy_deallocate();

  00007	8b 4d fc	 mov	 ecx, DWORD PTR _this$[ebp]
  0000a	e8 00 00 00 00	 call	 ?_Tidy_deallocate@?$basic_string@DU?$char_traits@D@std@@V?$allocator@D@2@@std@@AAEXXZ ; std::basic_string<char,std::char_traits<char>,std::allocator<char> >::_Tidy_deallocate

; 2802 : #if _ITERATOR_DEBUG_LEVEL != 0
; 2803 :         auto&& _Alproxy          = _GET_PROXY_ALLOCATOR(_Alty, _Getal());
; 2804 :         const auto _To_delete    = _Mypair._Myval2._Myproxy;
; 2805 :         _Mypair._Myval2._Myproxy = nullptr;
; 2806 :         _Delete_plain_internal(_Alproxy, _To_delete);
; 2807 : #endif // _ITERATOR_DEBUG_LEVEL != 0
; 2808 :     }

  0000f	c9		 leave
  00010	c3		 ret	 0
??1?$basic_string@DU?$char_traits@D@std@@V?$allocator@D@2@@std@@QAE@XZ ENDP ; std::basic_string<char,std::char_traits<char>,std::allocator<char> >::~basic_string<char,std::char_traits<char>,std::allocator<char> >
_TEXT	ENDS
; Function compile flags: /Odspy
; File C:\Program Files (x86)\Microsoft Visual Studio\2019\Community\VC\Tools\MSVC\14.28.29333\include\xstring
; File C:\Program Files (x86)\Microsoft Visual Studio\2019\Community\VC\Tools\MSVC\14.28.29333\include\xmemory
; File C:\Program Files (x86)\Microsoft Visual Studio\2019\Community\VC\Tools\MSVC\14.28.29333\include\xstring
; File C:\Program Files (x86)\Microsoft Visual Studio\2019\Community\VC\Tools\MSVC\14.28.29333\include\utility
; File C:\Program Files (x86)\Microsoft Visual Studio\2019\Community\VC\Tools\MSVC\14.28.29333\include\xstring
; File C:\Program Files (x86)\Microsoft Visual Studio\2019\Community\VC\Tools\MSVC\14.28.29333\include\xmemory
; File C:\Program Files (x86)\Microsoft Visual Studio\2019\Community\VC\Tools\MSVC\14.28.29333\include\xstring
; File C:\Program Files (x86)\Microsoft Visual Studio\2019\Community\VC\Tools\MSVC\14.28.29333\include\xmemory
; File C:\Program Files (x86)\Microsoft Visual Studio\2019\Community\VC\Tools\MSVC\14.28.29333\include\xstring
; File C:\Program Files (x86)\Microsoft Visual Studio\2019\Community\VC\Tools\MSVC\14.28.29333\include\xstddef
; File C:\Program Files (x86)\Microsoft Visual Studio\2019\Community\VC\Tools\MSVC\14.28.29333\include\xstring
;	COMDAT ?_Construct_lv_contents@?$basic_string@DU?$char_traits@D@std@@V?$allocator@D@2@@std@@AAEXABV12@@Z
_TEXT	SEGMENT
__Al$ = -72						; size = 4
$T1 = -68						; size = 4
__Ptr$ = -64						; size = 4
$T2 = -60						; size = 4
$T3 = -56						; size = 4
$T4 = -52						; size = 4
__First1$ = -48						; size = 4
__New_capacity$ = -44					; size = 4
__Right_ptr$ = -40					; size = 4
__New_array$ = -36					; size = 4
tv138 = -32						; size = 4
$T5 = -28						; size = 4
$T6 = -24						; size = 4
__Right_data$ = -20					; size = 4
_this$ = -16						; size = 4
__Right_size$ = -12					; size = 4
__My_data$ = -8						; size = 4
__Overflow_is_possible$7 = -1				; size = 1
__Right$ = 8						; size = 4
?_Construct_lv_contents@?$basic_string@DU?$char_traits@D@std@@V?$allocator@D@2@@std@@AAEXABV12@@Z PROC ; std::basic_string<char,std::char_traits<char>,std::allocator<char> >::_Construct_lv_contents, COMDAT
; _this$ = ecx

; 2728 :     void _Construct_lv_contents(const basic_string& _Right) {

  00000	55		 push	 ebp
  00001	8b ec		 mov	 ebp, esp
  00003	83 ec 48	 sub	 esp, 72			; 00000048H
  00006	89 4d f0	 mov	 DWORD PTR _this$[ebp], ecx

; 2729 :         // assign by copying data stored in _Right
; 2730 :         // pre: this != &_Right
; 2731 :         // pre: *this owns no memory, iterators orphaned (note:
; 2732 :         // _Buf/_Ptr/_Mysize/_Myres may be garbage init)
; 2733 :         auto& _Right_data             = _Right._Mypair._Myval2;

  00009	8b 45 08	 mov	 eax, DWORD PTR __Right$[ebp]
  0000c	89 45 ec	 mov	 DWORD PTR __Right_data$[ebp], eax

; 2734 :         const size_type _Right_size   = _Right_data._Mysize;

  0000f	8b 45 ec	 mov	 eax, DWORD PTR __Right_data$[ebp]
  00012	8b 40 10	 mov	 eax, DWORD PTR [eax+16]
  00015	89 45 f4	 mov	 DWORD PTR __Right_size$[ebp], eax

; 2735 :         const _Elem* const _Right_ptr = _Right_data._Myptr();

  00018	8b 4d ec	 mov	 ecx, DWORD PTR __Right_data$[ebp]
  0001b	e8 00 00 00 00	 call	 ?_Myptr@?$_String_val@U?$_Simple_types@D@std@@@std@@QBEPBDXZ ; std::_String_val<std::_Simple_types<char> >::_Myptr
  00020	89 45 d8	 mov	 DWORD PTR __Right_ptr$[ebp], eax

; 2736 :         auto& _My_data                = _Mypair._Myval2;

  00023	8b 45 f0	 mov	 eax, DWORD PTR _this$[ebp]
  00026	89 45 f8	 mov	 DWORD PTR __My_data$[ebp], eax

; 2737 :         if (_Right_size < _BUF_SIZE) { // stay small, don't allocate

  00029	83 7d f4 10	 cmp	 DWORD PTR __Right_size$[ebp], 16 ; 00000010H
  0002d	73 2e		 jae	 SHORT $LN2@Construct_

; 2738 :             _Traits::copy(_My_data._Bx._Buf, _Right_ptr, _BUF_SIZE);

  0002f	8b 45 f8	 mov	 eax, DWORD PTR __My_data$[ebp]
  00032	89 45 d0	 mov	 DWORD PTR __First1$[ebp], eax

; 62   :         _CSTD memcpy(_First1, _First2, _Count * sizeof(_Elem));

  00035	6a 10		 push	 16			; 00000010H
  00037	ff 75 d8	 push	 DWORD PTR __Right_ptr$[ebp]
  0003a	ff 75 d0	 push	 DWORD PTR __First1$[ebp]
  0003d	e8 00 00 00 00	 call	 _memcpy
  00042	83 c4 0c	 add	 esp, 12			; 0000000cH

; 2739 :             _My_data._Mysize = _Right_size;

  00045	8b 45 f8	 mov	 eax, DWORD PTR __My_data$[ebp]
  00048	8b 4d f4	 mov	 ecx, DWORD PTR __Right_size$[ebp]
  0004b	89 48 10	 mov	 DWORD PTR [eax+16], ecx

; 2740 :             _My_data._Myres  = _BUF_SIZE - 1;

  0004e	8b 45 f8	 mov	 eax, DWORD PTR __My_data$[ebp]
  00051	c7 40 14 0f 00
	00 00		 mov	 DWORD PTR [eax+20], 15	; 0000000fH

; 2741 :             return;

  00058	e9 9b 00 00 00	 jmp	 $LN1@Construct_
$LN2@Construct_:

; 4409 :         return _Mypair._Get_first();

  0005d	8b 45 f0	 mov	 eax, DWORD PTR _this$[ebp]
; File C:\Program Files (x86)\Microsoft Visual Studio\2019\Community\VC\Tools\MSVC\14.28.29333\include\xmemory

; 1347 :         return *this;

  00060	89 45 cc	 mov	 DWORD PTR $T4[ebp], eax
; File C:\Program Files (x86)\Microsoft Visual Studio\2019\Community\VC\Tools\MSVC\14.28.29333\include\xstring

; 4409 :         return _Mypair._Get_first();

  00063	8b 45 cc	 mov	 eax, DWORD PTR $T4[ebp]
  00066	89 45 b8	 mov	 DWORD PTR __Al$[ebp], eax

; 2745 :         const size_type _New_capacity = (_STD min)(_Right_size | _ALLOC_MASK, max_size());

  00069	8b 4d f0	 mov	 ecx, DWORD PTR _this$[ebp]
  0006c	e8 00 00 00 00	 call	 ?max_size@?$basic_string@DU?$char_traits@D@std@@V?$allocator@D@2@@std@@QBEIXZ ; std::basic_string<char,std::char_traits<char>,std::allocator<char> >::max_size
  00071	89 45 e8	 mov	 DWORD PTR $T6[ebp], eax
  00074	8b 45 f4	 mov	 eax, DWORD PTR __Right_size$[ebp]
  00077	83 c8 0f	 or	 eax, 15			; 0000000fH
  0007a	89 45 e4	 mov	 DWORD PTR $T5[ebp], eax
; File C:\Program Files (x86)\Microsoft Visual Studio\2019\Community\VC\Tools\MSVC\14.28.29333\include\utility

; 68   :     return _Right < _Left ? _Right : _Left;

  0007d	8b 45 e8	 mov	 eax, DWORD PTR $T6[ebp]
  00080	3b 45 e4	 cmp	 eax, DWORD PTR $T5[ebp]
  00083	73 08		 jae	 SHORT $LN52@Construct_
  00085	8d 45 e8	 lea	 eax, DWORD PTR $T6[ebp]
  00088	89 45 e0	 mov	 DWORD PTR tv138[ebp], eax
  0008b	eb 06		 jmp	 SHORT $LN53@Construct_
$LN52@Construct_:
  0008d	8d 45 e4	 lea	 eax, DWORD PTR $T5[ebp]
  00090	89 45 e0	 mov	 DWORD PTR tv138[ebp], eax
$LN53@Construct_:
  00093	8b 45 e0	 mov	 eax, DWORD PTR tv138[ebp]
  00096	89 45 c8	 mov	 DWORD PTR $T3[ebp], eax
  00099	8b 45 c8	 mov	 eax, DWORD PTR $T3[ebp]
  0009c	89 45 c4	 mov	 DWORD PTR $T2[ebp], eax
; File C:\Program Files (x86)\Microsoft Visual Studio\2019\Community\VC\Tools\MSVC\14.28.29333\include\xstring

; 2745 :         const size_type _New_capacity = (_STD min)(_Right_size | _ALLOC_MASK, max_size());

  0009f	8b 45 c4	 mov	 eax, DWORD PTR $T2[ebp]
  000a2	8b 00		 mov	 eax, DWORD PTR [eax]
  000a4	89 45 d4	 mov	 DWORD PTR __New_capacity$[ebp], eax
; File C:\Program Files (x86)\Microsoft Visual Studio\2019\Community\VC\Tools\MSVC\14.28.29333\include\xmemory

; 56   :     constexpr bool _Overflow_is_possible = _Ty_size > 1;

  000a7	c6 45 ff 00	 mov	 BYTE PTR __Overflow_is_possible$7[ebp], 0
; File C:\Program Files (x86)\Microsoft Visual Studio\2019\Community\VC\Tools\MSVC\14.28.29333\include\xstring

; 2746 :         const pointer _New_array      = _Al.allocate(_New_capacity + 1); // throws

  000ab	8b 45 d4	 mov	 eax, DWORD PTR __New_capacity$[ebp]
  000ae	40		 inc	 eax
; File C:\Program Files (x86)\Microsoft Visual Studio\2019\Community\VC\Tools\MSVC\14.28.29333\include\xmemory

; 814  :         return static_cast<_Ty*>(_Allocate<_New_alignof<_Ty>>(_Get_size_of_n<sizeof(_Ty)>(_Count)));

  000af	50		 push	 eax
  000b0	e8 00 00 00 00	 call	 ??$_Allocate@$07U_Default_allocate_traits@std@@$0A@@std@@YAPAXI@Z ; std::_Allocate<8,std::_Default_allocate_traits,0>
  000b5	59		 pop	 ecx
; File C:\Program Files (x86)\Microsoft Visual Studio\2019\Community\VC\Tools\MSVC\14.28.29333\include\xstring

; 2746 :         const pointer _New_array      = _Al.allocate(_New_capacity + 1); // throws

  000b6	89 45 dc	 mov	 DWORD PTR __New_array$[ebp], eax

; 2747 :         _Construct_in_place(_My_data._Bx._Ptr, _New_array);

  000b9	8d 45 dc	 lea	 eax, DWORD PTR __New_array$[ebp]
  000bc	50		 push	 eax
  000bd	ff 75 f8	 push	 DWORD PTR __My_data$[ebp]
  000c0	e8 00 00 00 00	 call	 ??$_Construct_in_place@PADABQAD@std@@YAXAAPADABQAD@Z ; std::_Construct_in_place<char *,char * const &>
  000c5	59		 pop	 ecx
  000c6	59		 pop	 ecx

; 2748 :         _Traits::copy(_Unfancy(_New_array), _Right_ptr, _Right_size + 1);

  000c7	8b 45 dc	 mov	 eax, DWORD PTR __New_array$[ebp]
  000ca	89 45 c0	 mov	 DWORD PTR __Ptr$[ebp], eax
; File C:\Program Files (x86)\Microsoft Visual Studio\2019\Community\VC\Tools\MSVC\14.28.29333\include\xstddef

; 289  :     return _Ptr;

  000cd	8b 45 c0	 mov	 eax, DWORD PTR __Ptr$[ebp]
  000d0	89 45 bc	 mov	 DWORD PTR $T1[ebp], eax
; File C:\Program Files (x86)\Microsoft Visual Studio\2019\Community\VC\Tools\MSVC\14.28.29333\include\xstring

; 2748 :         _Traits::copy(_Unfancy(_New_array), _Right_ptr, _Right_size + 1);

  000d3	8b 45 f4	 mov	 eax, DWORD PTR __Right_size$[ebp]
  000d6	40		 inc	 eax

; 62   :         _CSTD memcpy(_First1, _First2, _Count * sizeof(_Elem));

  000d7	50		 push	 eax
  000d8	ff 75 d8	 push	 DWORD PTR __Right_ptr$[ebp]
  000db	ff 75 bc	 push	 DWORD PTR $T1[ebp]
  000de	e8 00 00 00 00	 call	 _memcpy
  000e3	83 c4 0c	 add	 esp, 12			; 0000000cH

; 2749 :         _My_data._Mysize = _Right_size;

  000e6	8b 45 f8	 mov	 eax, DWORD PTR __My_data$[ebp]
  000e9	8b 4d f4	 mov	 ecx, DWORD PTR __Right_size$[ebp]
  000ec	89 48 10	 mov	 DWORD PTR [eax+16], ecx

; 2750 :         _My_data._Myres  = _New_capacity;

  000ef	8b 45 f8	 mov	 eax, DWORD PTR __My_data$[ebp]
  000f2	8b 4d d4	 mov	 ecx, DWORD PTR __New_capacity$[ebp]
  000f5	89 48 14	 mov	 DWORD PTR [eax+20], ecx
$LN1@Construct_:

; 2751 :     }

  000f8	c9		 leave
  000f9	c2 04 00	 ret	 4
?_Construct_lv_contents@?$basic_string@DU?$char_traits@D@std@@V?$allocator@D@2@@std@@AAEXABV12@@Z ENDP ; std::basic_string<char,std::char_traits<char>,std::allocator<char> >::_Construct_lv_contents
_TEXT	ENDS
; Function compile flags: /Odspy
; File C:\Program Files (x86)\Microsoft Visual Studio\2019\Community\VC\Tools\MSVC\14.28.29333\include\xstring
; File C:\Program Files (x86)\Microsoft Visual Studio\2019\Community\VC\Tools\MSVC\14.28.29333\include\xmemory
; File C:\Program Files (x86)\Microsoft Visual Studio\2019\Community\VC\Tools\MSVC\14.28.29333\include\xstring
; File C:\Program Files (x86)\Microsoft Visual Studio\2019\Community\VC\Tools\MSVC\14.28.29333\include\xmemory
; File C:\Program Files (x86)\Microsoft Visual Studio\2019\Community\VC\Tools\MSVC\14.28.29333\include\xstring
;	COMDAT ??0?$basic_string@DU?$char_traits@D@std@@V?$allocator@D@2@@std@@QAE@QBD@Z
_TEXT	SEGMENT
__Alproxy$ = -40					; size = 4
$T2 = -36						; size = 4
$T3 = -32						; size = 4
_this$ = -28						; size = 4
_this$ = -24						; size = 4
_this$ = -20						; size = 4
_$S6$ = -13						; size = 1
__$EHRec$ = -12						; size = 12
__Ptr$ = 8						; size = 4
??0?$basic_string@DU?$char_traits@D@std@@V?$allocator@D@2@@std@@QAE@QBD@Z PROC ; std::basic_string<char,std::char_traits<char>,std::allocator<char> >::basic_string<char,std::char_traits<char>,std::allocator<char> >, COMDAT
; _this$ = ecx

; 2413 :     basic_string(_In_z_ const _Elem* const _Ptr) : _Mypair(_Zero_then_variadic_args_t{}) {

  00000	55		 push	 ebp
  00001	8b ec		 mov	 ebp, esp
  00003	6a ff		 push	 -1
  00005	68 00 00 00 00	 push	 __ehhandler$??0?$basic_string@DU?$char_traits@D@std@@V?$allocator@D@2@@std@@QAE@QBD@Z
  0000a	64 a1 00 00 00
	00		 mov	 eax, DWORD PTR fs:0
  00010	50		 push	 eax
  00011	83 ec 1c	 sub	 esp, 28			; 0000001cH
  00014	a1 00 00 00 00	 mov	 eax, DWORD PTR ___security_cookie
  00019	33 c5		 xor	 eax, ebp
  0001b	50		 push	 eax
  0001c	8d 45 f4	 lea	 eax, DWORD PTR __$EHRec$[ebp]
  0001f	64 a3 00 00 00
	00		 mov	 DWORD PTR fs:0, eax
  00025	89 4d ec	 mov	 DWORD PTR _this$[ebp], ecx
  00028	8b 45 ec	 mov	 eax, DWORD PTR _this$[ebp]
  0002b	89 45 e4	 mov	 DWORD PTR _this$[ebp], eax
; File C:\Program Files (x86)\Microsoft Visual Studio\2019\Community\VC\Tools\MSVC\14.28.29333\include\xmemory

; 1339 :         : _Ty1(), _Myval2(_STD forward<_Other2>(_Val2)...) {}

  0002e	8b 45 e4	 mov	 eax, DWORD PTR _this$[ebp]
  00031	89 45 e8	 mov	 DWORD PTR _this$[ebp], eax
; File C:\Program Files (x86)\Microsoft Visual Studio\2019\Community\VC\Tools\MSVC\14.28.29333\include\xstring

; 2198 :     _String_val() noexcept : _Bx(), _Mysize(0), _Myres(0) {}

  00034	8b 45 e8	 mov	 eax, DWORD PTR _this$[ebp]
  00037	83 60 10 00	 and	 DWORD PTR [eax+16], 0
  0003b	8b 45 e8	 mov	 eax, DWORD PTR _this$[ebp]
  0003e	83 60 14 00	 and	 DWORD PTR [eax+20], 0

; 2413 :     basic_string(_In_z_ const _Elem* const _Ptr) : _Mypair(_Zero_then_variadic_args_t{}) {

  00042	83 65 fc 00	 and	 DWORD PTR __$EHRec$[ebp+8], 0

; 2414 :         auto&& _Alproxy = _GET_PROXY_ALLOCATOR(_Alty, _Getal());

  00046	8d 45 f3	 lea	 eax, DWORD PTR _$S6$[ebp]
  00049	89 45 d8	 mov	 DWORD PTR __Alproxy$[ebp], eax

; 2415 :         _Container_proxy_ptr<_Alty> _Proxy(_Alproxy, _Mypair._Myval2);
; 2416 :         _Tidy_init();

  0004c	8b 4d ec	 mov	 ecx, DWORD PTR _this$[ebp]
  0004f	e8 00 00 00 00	 call	 ?_Tidy_init@?$basic_string@DU?$char_traits@D@std@@V?$allocator@D@2@@std@@AAEXXZ ; std::basic_string<char,std::char_traits<char>,std::allocator<char> >::_Tidy_init

; 389  :         return _CSTD strlen(reinterpret_cast<const char*>(_First));

  00054	ff 75 08	 push	 DWORD PTR __Ptr$[ebp]
  00057	e8 00 00 00 00	 call	 _strlen
  0005c	59		 pop	 ecx
  0005d	89 45 e0	 mov	 DWORD PTR $T3[ebp], eax
; File C:\Program Files (x86)\Microsoft Visual Studio\2019\Community\VC\Tools\MSVC\14.28.29333\include\xmemory

; 997  :     return _Len;

  00060	8b 45 e0	 mov	 eax, DWORD PTR $T3[ebp]
  00063	89 45 dc	 mov	 DWORD PTR $T2[ebp], eax
; File C:\Program Files (x86)\Microsoft Visual Studio\2019\Community\VC\Tools\MSVC\14.28.29333\include\xstring

; 3062 :         return assign(_Ptr, _Convert_size<size_type>(_Traits::length(_Ptr)));

  00066	ff 75 dc	 push	 DWORD PTR $T2[ebp]
  00069	ff 75 08	 push	 DWORD PTR __Ptr$[ebp]
  0006c	8b 4d ec	 mov	 ecx, DWORD PTR _this$[ebp]
  0006f	e8 00 00 00 00	 call	 ?assign@?$basic_string@DU?$char_traits@D@std@@V?$allocator@D@2@@std@@QAEAAV12@QBDI@Z ; std::basic_string<char,std::char_traits<char>,std::allocator<char> >::assign

; 2417 :         assign(_Ptr);
; 2418 :         _Proxy._Release();
; 2419 :     }

  00074	83 4d fc ff	 or	 DWORD PTR __$EHRec$[ebp+8], -1
  00078	8b 45 ec	 mov	 eax, DWORD PTR _this$[ebp]
  0007b	8b 4d f4	 mov	 ecx, DWORD PTR __$EHRec$[ebp]
  0007e	64 89 0d 00 00
	00 00		 mov	 DWORD PTR fs:0, ecx
  00085	59		 pop	 ecx
  00086	c9		 leave
  00087	c2 04 00	 ret	 4
_TEXT	ENDS
;	COMDAT text$x
text$x	SEGMENT
__unwindfunclet$??0?$basic_string@DU?$char_traits@D@std@@V?$allocator@D@2@@std@@QAE@QBD@Z$0:
  00000	8b 4d ec	 mov	 ecx, DWORD PTR _this$[ebp]
  00003	e9 00 00 00 00	 jmp	 ??1?$_Compressed_pair@V?$allocator@D@std@@V?$_String_val@U?$_Simple_types@D@std@@@2@$00@std@@QAE@XZ
  00008	cc		 int	 3
  00009	cc		 int	 3
  0000a	cc		 int	 3
  0000b	cc		 int	 3
  0000c	cc		 int	 3
__ehhandler$??0?$basic_string@DU?$char_traits@D@std@@V?$allocator@D@2@@std@@QAE@QBD@Z:
  0000d	90		 npad	 1
  0000e	90		 npad	 1
  0000f	8b 54 24 08	 mov	 edx, DWORD PTR [esp+8]
  00013	8d 42 0c	 lea	 eax, DWORD PTR [edx+12]
  00016	8b 4a e0	 mov	 ecx, DWORD PTR [edx-32]
  00019	33 c8		 xor	 ecx, eax
  0001b	e8 00 00 00 00	 call	 @__security_check_cookie@4
  00020	b8 00 00 00 00	 mov	 eax, OFFSET __ehfuncinfo$??0?$basic_string@DU?$char_traits@D@std@@V?$allocator@D@2@@std@@QAE@QBD@Z
  00025	e9 00 00 00 00	 jmp	 ___CxxFrameHandler3
text$x	ENDS
??0?$basic_string@DU?$char_traits@D@std@@V?$allocator@D@2@@std@@QAE@QBD@Z ENDP ; std::basic_string<char,std::char_traits<char>,std::allocator<char> >::basic_string<char,std::char_traits<char>,std::allocator<char> >
; Function compile flags: /Odspy
; File C:\Program Files (x86)\Microsoft Visual Studio\2019\Community\VC\Tools\MSVC\14.28.29333\include\xstring
; File C:\Program Files (x86)\Microsoft Visual Studio\2019\Community\VC\Tools\MSVC\14.28.29333\include\xmemory
; File C:\Program Files (x86)\Microsoft Visual Studio\2019\Community\VC\Tools\MSVC\14.28.29333\include\xstring
;	COMDAT ??0?$basic_string@DU?$char_traits@D@std@@V?$allocator@D@2@@std@@QAE@XZ
_TEXT	SEGMENT
_this$ = -12						; size = 4
_this$ = -8						; size = 4
_this$ = -4						; size = 4
??0?$basic_string@DU?$char_traits@D@std@@V?$allocator@D@2@@std@@QAE@XZ PROC ; std::basic_string<char,std::char_traits<char>,std::allocator<char> >::basic_string<char,std::char_traits<char>,std::allocator<char> >, COMDAT
; _this$ = ecx

; 2365 :     basic_string() noexcept(is_nothrow_default_constructible_v<_Alty>) : _Mypair(_Zero_then_variadic_args_t{}) {

  00000	55		 push	 ebp
  00001	8b ec		 mov	 ebp, esp
  00003	83 ec 0c	 sub	 esp, 12			; 0000000cH
  00006	89 4d fc	 mov	 DWORD PTR _this$[ebp], ecx
  00009	8b 45 fc	 mov	 eax, DWORD PTR _this$[ebp]
  0000c	89 45 f4	 mov	 DWORD PTR _this$[ebp], eax
; File C:\Program Files (x86)\Microsoft Visual Studio\2019\Community\VC\Tools\MSVC\14.28.29333\include\xmemory

; 1339 :         : _Ty1(), _Myval2(_STD forward<_Other2>(_Val2)...) {}

  0000f	8b 45 f4	 mov	 eax, DWORD PTR _this$[ebp]
  00012	89 45 f8	 mov	 DWORD PTR _this$[ebp], eax
; File C:\Program Files (x86)\Microsoft Visual Studio\2019\Community\VC\Tools\MSVC\14.28.29333\include\xstring

; 2198 :     _String_val() noexcept : _Bx(), _Mysize(0), _Myres(0) {}

  00015	8b 45 f8	 mov	 eax, DWORD PTR _this$[ebp]
  00018	83 60 10 00	 and	 DWORD PTR [eax+16], 0
  0001c	8b 45 f8	 mov	 eax, DWORD PTR _this$[ebp]
  0001f	83 60 14 00	 and	 DWORD PTR [eax+20], 0

; 2366 :         _Mypair._Myval2._Alloc_proxy(_GET_PROXY_ALLOCATOR(_Alty, _Getal()));
; 2367 :         _Tidy_init();

  00023	8b 4d fc	 mov	 ecx, DWORD PTR _this$[ebp]
  00026	e8 00 00 00 00	 call	 ?_Tidy_init@?$basic_string@DU?$char_traits@D@std@@V?$allocator@D@2@@std@@AAEXXZ ; std::basic_string<char,std::char_traits<char>,std::allocator<char> >::_Tidy_init

; 2368 :     }

  0002b	8b 45 fc	 mov	 eax, DWORD PTR _this$[ebp]
  0002e	c9		 leave
  0002f	c3		 ret	 0
??0?$basic_string@DU?$char_traits@D@std@@V?$allocator@D@2@@std@@QAE@XZ ENDP ; std::basic_string<char,std::char_traits<char>,std::allocator<char> >::basic_string<char,std::char_traits<char>,std::allocator<char> >
_TEXT	ENDS
; Function compile flags: /Odspy
; File C:\Program Files (x86)\Microsoft Visual Studio\2019\Community\VC\Tools\MSVC\14.28.29333\include\xstring
; File C:\Program Files (x86)\Microsoft Visual Studio\2019\Community\VC\Tools\MSVC\14.28.29333\include\xmemory
; File C:\Program Files (x86)\Microsoft Visual Studio\2019\Community\VC\Tools\MSVC\14.28.29333\include\xstring
; File C:\Program Files (x86)\Microsoft Visual Studio\2019\Community\VC\Tools\MSVC\14.28.29333\include\xmemory
; File C:\Program Files (x86)\Microsoft Visual Studio\2019\Community\VC\Tools\MSVC\14.28.29333\include\xstring
;	COMDAT ??0?$basic_string@DU?$char_traits@D@std@@V?$allocator@D@2@@std@@QAE@ABV01@@Z
_TEXT	SEGMENT
__Alproxy$ = -40					; size = 4
$T2 = -36						; size = 4
_this$ = -32						; size = 4
$T3 = -28						; size = 4
_this$ = -24						; size = 4
_this$ = -20						; size = 4
_$S9$ = -13						; size = 1
__$EHRec$ = -12						; size = 12
__Right$ = 8						; size = 4
??0?$basic_string@DU?$char_traits@D@std@@V?$allocator@D@2@@std@@QAE@ABV01@@Z PROC ; std::basic_string<char,std::char_traits<char>,std::allocator<char> >::basic_string<char,std::char_traits<char>,std::allocator<char> >, COMDAT
; _this$ = ecx

; 2351 :         : _Mypair(_One_then_variadic_args_t{}, _Alty_traits::select_on_container_copy_construction(_Right._Getal())) {

  00000	55		 push	 ebp
  00001	8b ec		 mov	 ebp, esp
  00003	6a ff		 push	 -1
  00005	68 00 00 00 00	 push	 __ehhandler$??0?$basic_string@DU?$char_traits@D@std@@V?$allocator@D@2@@std@@QAE@ABV01@@Z
  0000a	64 a1 00 00 00
	00		 mov	 eax, DWORD PTR fs:0
  00010	50		 push	 eax
  00011	83 ec 1c	 sub	 esp, 28			; 0000001cH
  00014	a1 00 00 00 00	 mov	 eax, DWORD PTR ___security_cookie
  00019	33 c5		 xor	 eax, ebp
  0001b	50		 push	 eax
  0001c	8d 45 f4	 lea	 eax, DWORD PTR __$EHRec$[ebp]
  0001f	64 a3 00 00 00
	00		 mov	 DWORD PTR fs:0, eax
  00025	89 4d ec	 mov	 DWORD PTR _this$[ebp], ecx

; 4413 :         return _Mypair._Get_first();

  00028	8b 45 08	 mov	 eax, DWORD PTR __Right$[ebp]
; File C:\Program Files (x86)\Microsoft Visual Studio\2019\Community\VC\Tools\MSVC\14.28.29333\include\xmemory

; 1351 :         return *this;

  0002b	89 45 e4	 mov	 DWORD PTR $T3[ebp], eax
; File C:\Program Files (x86)\Microsoft Visual Studio\2019\Community\VC\Tools\MSVC\14.28.29333\include\xstring

; 4413 :         return _Mypair._Get_first();

  0002e	8b 45 e4	 mov	 eax, DWORD PTR $T3[ebp]
  00031	89 45 dc	 mov	 DWORD PTR $T2[ebp], eax

; 2351 :         : _Mypair(_One_then_variadic_args_t{}, _Alty_traits::select_on_container_copy_construction(_Right._Getal())) {

  00034	8b 45 ec	 mov	 eax, DWORD PTR _this$[ebp]
  00037	89 45 e0	 mov	 DWORD PTR _this$[ebp], eax
; File C:\Program Files (x86)\Microsoft Visual Studio\2019\Community\VC\Tools\MSVC\14.28.29333\include\xmemory

; 1344 :         : _Ty1(_STD forward<_Other1>(_Val1)), _Myval2(_STD forward<_Other2>(_Val2)...) {}

  0003a	8b 45 e0	 mov	 eax, DWORD PTR _this$[ebp]
  0003d	89 45 e8	 mov	 DWORD PTR _this$[ebp], eax
; File C:\Program Files (x86)\Microsoft Visual Studio\2019\Community\VC\Tools\MSVC\14.28.29333\include\xstring

; 2198 :     _String_val() noexcept : _Bx(), _Mysize(0), _Myres(0) {}

  00040	8b 45 e8	 mov	 eax, DWORD PTR _this$[ebp]
  00043	83 60 10 00	 and	 DWORD PTR [eax+16], 0
  00047	8b 45 e8	 mov	 eax, DWORD PTR _this$[ebp]
  0004a	83 60 14 00	 and	 DWORD PTR [eax+20], 0

; 2351 :         : _Mypair(_One_then_variadic_args_t{}, _Alty_traits::select_on_container_copy_construction(_Right._Getal())) {

  0004e	83 65 fc 00	 and	 DWORD PTR __$EHRec$[ebp+8], 0

; 2352 :         auto&& _Alproxy = _GET_PROXY_ALLOCATOR(_Alty, _Getal());

  00052	8d 45 f3	 lea	 eax, DWORD PTR _$S9$[ebp]
  00055	89 45 d8	 mov	 DWORD PTR __Alproxy$[ebp], eax

; 2353 :         _Container_proxy_ptr<_Alty> _Proxy(_Alproxy, _Mypair._Myval2);
; 2354 :         _Construct_lv_contents(_Right);

  00058	ff 75 08	 push	 DWORD PTR __Right$[ebp]
  0005b	8b 4d ec	 mov	 ecx, DWORD PTR _this$[ebp]
  0005e	e8 00 00 00 00	 call	 ?_Construct_lv_contents@?$basic_string@DU?$char_traits@D@std@@V?$allocator@D@2@@std@@AAEXABV12@@Z ; std::basic_string<char,std::char_traits<char>,std::allocator<char> >::_Construct_lv_contents

; 2355 :         _Proxy._Release();
; 2356 :     }

  00063	83 4d fc ff	 or	 DWORD PTR __$EHRec$[ebp+8], -1
  00067	8b 45 ec	 mov	 eax, DWORD PTR _this$[ebp]
  0006a	8b 4d f4	 mov	 ecx, DWORD PTR __$EHRec$[ebp]
  0006d	64 89 0d 00 00
	00 00		 mov	 DWORD PTR fs:0, ecx
  00074	59		 pop	 ecx
  00075	c9		 leave
  00076	c2 04 00	 ret	 4
_TEXT	ENDS
;	COMDAT text$x
text$x	SEGMENT
__unwindfunclet$??0?$basic_string@DU?$char_traits@D@std@@V?$allocator@D@2@@std@@QAE@ABV01@@Z$0:
  00000	8b 4d ec	 mov	 ecx, DWORD PTR _this$[ebp]
  00003	e9 00 00 00 00	 jmp	 ??1?$_Compressed_pair@V?$allocator@D@std@@V?$_String_val@U?$_Simple_types@D@std@@@2@$00@std@@QAE@XZ
  00008	cc		 int	 3
  00009	cc		 int	 3
  0000a	cc		 int	 3
  0000b	cc		 int	 3
  0000c	cc		 int	 3
__ehhandler$??0?$basic_string@DU?$char_traits@D@std@@V?$allocator@D@2@@std@@QAE@ABV01@@Z:
  0000d	90		 npad	 1
  0000e	90		 npad	 1
  0000f	8b 54 24 08	 mov	 edx, DWORD PTR [esp+8]
  00013	8d 42 0c	 lea	 eax, DWORD PTR [edx+12]
  00016	8b 4a e0	 mov	 ecx, DWORD PTR [edx-32]
  00019	33 c8		 xor	 ecx, eax
  0001b	e8 00 00 00 00	 call	 @__security_check_cookie@4
  00020	b8 00 00 00 00	 mov	 eax, OFFSET __ehfuncinfo$??0?$basic_string@DU?$char_traits@D@std@@V?$allocator@D@2@@std@@QAE@ABV01@@Z
  00025	e9 00 00 00 00	 jmp	 ___CxxFrameHandler3
text$x	ENDS
??0?$basic_string@DU?$char_traits@D@std@@V?$allocator@D@2@@std@@QAE@ABV01@@Z ENDP ; std::basic_string<char,std::char_traits<char>,std::allocator<char> >::basic_string<char,std::char_traits<char>,std::allocator<char> >
; Function compile flags: /Odspy
; File C:\Program Files (x86)\Microsoft Visual Studio\2019\Community\VC\Tools\MSVC\14.28.29333\include\xstring
; File C:\Program Files (x86)\Microsoft Visual Studio\2019\Community\VC\Tools\MSVC\14.28.29333\include\xstddef
; File C:\Program Files (x86)\Microsoft Visual Studio\2019\Community\VC\Tools\MSVC\14.28.29333\include\xstring
;	COMDAT ?_Myptr@?$_String_val@U?$_Simple_types@D@std@@@std@@QBEPBDXZ
_TEXT	SEGMENT
__Ptr$ = -20						; size = 4
__Result$ = -16						; size = 4
tv76 = -12						; size = 4
_this$ = -8						; size = 4
$T1 = -1						; size = 1
?_Myptr@?$_String_val@U?$_Simple_types@D@std@@@std@@QBEPBDXZ PROC ; std::_String_val<std::_Simple_types<char> >::_Myptr, COMDAT
; _this$ = ecx

; 2217 :     const value_type* _Myptr() const noexcept {

  00000	55		 push	 ebp
  00001	8b ec		 mov	 ebp, esp
  00003	83 ec 14	 sub	 esp, 20			; 00000014H
  00006	89 4d f8	 mov	 DWORD PTR _this$[ebp], ecx

; 2218 :         const value_type* _Result = _Bx._Buf;

  00009	8b 45 f8	 mov	 eax, DWORD PTR _this$[ebp]
  0000c	89 45 f0	 mov	 DWORD PTR __Result$[ebp], eax

; 2227 :         return _BUF_SIZE <= _Myres;

  0000f	8b 45 f8	 mov	 eax, DWORD PTR _this$[ebp]
  00012	83 78 14 10	 cmp	 DWORD PTR [eax+20], 16	; 00000010H
  00016	72 09		 jb	 SHORT $LN6@Myptr
  00018	c7 45 f4 01 00
	00 00		 mov	 DWORD PTR tv76[ebp], 1
  0001f	eb 04		 jmp	 SHORT $LN7@Myptr
$LN6@Myptr:
  00021	83 65 f4 00	 and	 DWORD PTR tv76[ebp], 0
$LN7@Myptr:
  00025	8a 45 f4	 mov	 al, BYTE PTR tv76[ebp]
  00028	88 45 ff	 mov	 BYTE PTR $T1[ebp], al

; 2219 :         if (_Large_string_engaged()) {

  0002b	0f b6 45 ff	 movzx	 eax, BYTE PTR $T1[ebp]
  0002f	85 c0		 test	 eax, eax
  00031	74 0e		 je	 SHORT $LN2@Myptr

; 2220 :             _Result = _Unfancy(_Bx._Ptr);

  00033	8b 45 f8	 mov	 eax, DWORD PTR _this$[ebp]
  00036	8b 00		 mov	 eax, DWORD PTR [eax]
  00038	89 45 ec	 mov	 DWORD PTR __Ptr$[ebp], eax
; File C:\Program Files (x86)\Microsoft Visual Studio\2019\Community\VC\Tools\MSVC\14.28.29333\include\xstddef

; 289  :     return _Ptr;

  0003b	8b 45 ec	 mov	 eax, DWORD PTR __Ptr$[ebp]
  0003e	89 45 f0	 mov	 DWORD PTR __Result$[ebp], eax
$LN2@Myptr:
; File C:\Program Files (x86)\Microsoft Visual Studio\2019\Community\VC\Tools\MSVC\14.28.29333\include\xstring

; 2223 :         return _Result;

  00041	8b 45 f0	 mov	 eax, DWORD PTR __Result$[ebp]

; 2224 :     }

  00044	c9		 leave
  00045	c3		 ret	 0
?_Myptr@?$_String_val@U?$_Simple_types@D@std@@@std@@QBEPBDXZ ENDP ; std::_String_val<std::_Simple_types<char> >::_Myptr
_TEXT	ENDS
; Function compile flags: /Odspy
; File C:\Program Files (x86)\Microsoft Visual Studio\2019\Community\VC\Tools\MSVC\14.28.29333\include\xstring
; File C:\Program Files (x86)\Microsoft Visual Studio\2019\Community\VC\Tools\MSVC\14.28.29333\include\xstddef
; File C:\Program Files (x86)\Microsoft Visual Studio\2019\Community\VC\Tools\MSVC\14.28.29333\include\xstring
;	COMDAT ?_Myptr@?$_String_val@U?$_Simple_types@D@std@@@std@@QAEPADXZ
_TEXT	SEGMENT
__Ptr$ = -20						; size = 4
__Result$ = -16						; size = 4
tv76 = -12						; size = 4
_this$ = -8						; size = 4
$T1 = -1						; size = 1
?_Myptr@?$_String_val@U?$_Simple_types@D@std@@@std@@QAEPADXZ PROC ; std::_String_val<std::_Simple_types<char> >::_Myptr, COMDAT
; _this$ = ecx

; 2208 :     value_type* _Myptr() noexcept {

  00000	55		 push	 ebp
  00001	8b ec		 mov	 ebp, esp
  00003	83 ec 14	 sub	 esp, 20			; 00000014H
  00006	89 4d f8	 mov	 DWORD PTR _this$[ebp], ecx

; 2209 :         value_type* _Result = _Bx._Buf;

  00009	8b 45 f8	 mov	 eax, DWORD PTR _this$[ebp]
  0000c	89 45 f0	 mov	 DWORD PTR __Result$[ebp], eax

; 2227 :         return _BUF_SIZE <= _Myres;

  0000f	8b 45 f8	 mov	 eax, DWORD PTR _this$[ebp]
  00012	83 78 14 10	 cmp	 DWORD PTR [eax+20], 16	; 00000010H
  00016	72 09		 jb	 SHORT $LN6@Myptr
  00018	c7 45 f4 01 00
	00 00		 mov	 DWORD PTR tv76[ebp], 1
  0001f	eb 04		 jmp	 SHORT $LN7@Myptr
$LN6@Myptr:
  00021	83 65 f4 00	 and	 DWORD PTR tv76[ebp], 0
$LN7@Myptr:
  00025	8a 45 f4	 mov	 al, BYTE PTR tv76[ebp]
  00028	88 45 ff	 mov	 BYTE PTR $T1[ebp], al

; 2210 :         if (_Large_string_engaged()) {

  0002b	0f b6 45 ff	 movzx	 eax, BYTE PTR $T1[ebp]
  0002f	85 c0		 test	 eax, eax
  00031	74 0e		 je	 SHORT $LN2@Myptr

; 2211 :             _Result = _Unfancy(_Bx._Ptr);

  00033	8b 45 f8	 mov	 eax, DWORD PTR _this$[ebp]
  00036	8b 00		 mov	 eax, DWORD PTR [eax]
  00038	89 45 ec	 mov	 DWORD PTR __Ptr$[ebp], eax
; File C:\Program Files (x86)\Microsoft Visual Studio\2019\Community\VC\Tools\MSVC\14.28.29333\include\xstddef

; 289  :     return _Ptr;

  0003b	8b 45 ec	 mov	 eax, DWORD PTR __Ptr$[ebp]
  0003e	89 45 f0	 mov	 DWORD PTR __Result$[ebp], eax
$LN2@Myptr:
; File C:\Program Files (x86)\Microsoft Visual Studio\2019\Community\VC\Tools\MSVC\14.28.29333\include\xstring

; 2214 :         return _Result;

  00041	8b 45 f0	 mov	 eax, DWORD PTR __Result$[ebp]

; 2215 :     }

  00044	c9		 leave
  00045	c3		 ret	 0
?_Myptr@?$_String_val@U?$_Simple_types@D@std@@@std@@QAEPADXZ ENDP ; std::_String_val<std::_Simple_types<char> >::_Myptr
_TEXT	ENDS
; Function compile flags: /Odspy
; File C:\Program Files (x86)\Microsoft Visual Studio\2019\Community\VC\Tools\MSVC\14.28.29333\include\xstring
;	COMDAT ??0?$_String_val@U?$_Simple_types@D@std@@@std@@QAE@XZ
_TEXT	SEGMENT
_this$ = -4						; size = 4
??0?$_String_val@U?$_Simple_types@D@std@@@std@@QAE@XZ PROC ; std::_String_val<std::_Simple_types<char> >::_String_val<std::_Simple_types<char> >, COMDAT
; _this$ = ecx

; 2198 :     _String_val() noexcept : _Bx(), _Mysize(0), _Myres(0) {}

  00000	55		 push	 ebp
  00001	8b ec		 mov	 ebp, esp
  00003	51		 push	 ecx
  00004	89 4d fc	 mov	 DWORD PTR _this$[ebp], ecx
  00007	8b 45 fc	 mov	 eax, DWORD PTR _this$[ebp]
  0000a	83 60 10 00	 and	 DWORD PTR [eax+16], 0
  0000e	8b 45 fc	 mov	 eax, DWORD PTR _this$[ebp]
  00011	83 60 14 00	 and	 DWORD PTR [eax+20], 0
  00015	8b 45 fc	 mov	 eax, DWORD PTR _this$[ebp]
  00018	c9		 leave
  00019	c3		 ret	 0
??0?$_String_val@U?$_Simple_types@D@std@@@std@@QAE@XZ ENDP ; std::_String_val<std::_Simple_types<char> >::_String_val<std::_Simple_types<char> >
_TEXT	ENDS
; Function compile flags: /Odspy
; File C:\Program Files (x86)\Microsoft Visual Studio\2019\Community\VC\Tools\MSVC\14.28.29333\include\xstring
;	COMDAT ?_Xlen_string@std@@YAXXZ
_TEXT	SEGMENT
?_Xlen_string@std@@YAXXZ PROC				; std::_Xlen_string, COMDAT

; 2274 : [[noreturn]] inline void _Xlen_string() {

  00000	55		 push	 ebp
  00001	8b ec		 mov	 ebp, esp

; 2275 :     _Xlength_error("string too long");

  00003	68 00 00 00 00	 push	 OFFSET ??_C@_0BA@JFNIOLAK@string?5too?5long@
  00008	e8 00 00 00 00	 call	 ?_Xlength_error@std@@YAXPBD@Z ; std::_Xlength_error
$LN2@Xlen_strin:

; 2276 : }

  0000d	5d		 pop	 ebp
  0000e	c3		 ret	 0
?_Xlen_string@std@@YAXXZ ENDP				; std::_Xlen_string
_TEXT	ENDS
; Function compile flags: /Odspy
; File C:\Program Files (x86)\Microsoft Visual Studio\2019\Community\VC\Tools\MSVC\14.28.29333\include\xmemory
;	COMDAT ?_Adjust_manually_vector_aligned@std@@YAXAAPAXAAI@Z
_TEXT	SEGMENT
__Min_back_shift$ = -16					; size = 4
__Ptr_user$ = -12					; size = 4
__Ptr_container$ = -8					; size = 4
__Back_shift$ = -4					; size = 4
__Ptr$ = 8						; size = 4
__Bytes$ = 12						; size = 4
?_Adjust_manually_vector_aligned@std@@YAXAAPAXAAI@Z PROC ; std::_Adjust_manually_vector_aligned, COMDAT

; 132  : inline void _Adjust_manually_vector_aligned(void*& _Ptr, size_t& _Bytes) {

  00000	55		 push	 ebp
  00001	8b ec		 mov	 ebp, esp
  00003	83 ec 10	 sub	 esp, 16			; 00000010H

; 133  :     // adjust parameters from _Allocate_manually_vector_aligned to pass to operator delete
; 134  :     _Bytes += _Non_user_size;

  00006	8b 45 0c	 mov	 eax, DWORD PTR __Bytes$[ebp]
  00009	8b 00		 mov	 eax, DWORD PTR [eax]
  0000b	83 c0 23	 add	 eax, 35			; 00000023H
  0000e	8b 4d 0c	 mov	 ecx, DWORD PTR __Bytes$[ebp]
  00011	89 01		 mov	 DWORD PTR [ecx], eax

; 135  : 
; 136  :     const uintptr_t* const _Ptr_user = reinterpret_cast<uintptr_t*>(_Ptr);

  00013	8b 45 08	 mov	 eax, DWORD PTR __Ptr$[ebp]
  00016	8b 00		 mov	 eax, DWORD PTR [eax]
  00018	89 45 f4	 mov	 DWORD PTR __Ptr_user$[ebp], eax

; 137  :     const uintptr_t _Ptr_container   = _Ptr_user[-1];

  0001b	6a 04		 push	 4
  0001d	58		 pop	 eax
  0001e	6b c0 ff	 imul	 eax, eax, -1
  00021	8b 4d f4	 mov	 ecx, DWORD PTR __Ptr_user$[ebp]
  00024	8b 04 01	 mov	 eax, DWORD PTR [ecx+eax]
  00027	89 45 f8	 mov	 DWORD PTR __Ptr_container$[ebp], eax

; 138  : 
; 139  :     // If the following asserts, it likely means that we are performing
; 140  :     // an aligned delete on memory coming from an unaligned allocation.
; 141  :     _STL_ASSERT(_Ptr_user[-2] == _Big_allocation_sentinel, "invalid argument");
; 142  : 
; 143  :     // Extra paranoia on aligned allocation/deallocation; ensure _Ptr_container is
; 144  :     // in range [_Min_back_shift, _Non_user_size]
; 145  : #ifdef _DEBUG
; 146  :     constexpr uintptr_t _Min_back_shift = 2 * sizeof(void*);
; 147  : #else // ^^^ _DEBUG ^^^ // vvv !_DEBUG vvv
; 148  :     constexpr uintptr_t _Min_back_shift = sizeof(void*);

  0002a	c7 45 f0 04 00
	00 00		 mov	 DWORD PTR __Min_back_shift$[ebp], 4

; 149  : #endif // _DEBUG
; 150  :     const uintptr_t _Back_shift = reinterpret_cast<uintptr_t>(_Ptr) - _Ptr_container;

  00031	8b 45 08	 mov	 eax, DWORD PTR __Ptr$[ebp]
  00034	8b 00		 mov	 eax, DWORD PTR [eax]
  00036	2b 45 f8	 sub	 eax, DWORD PTR __Ptr_container$[ebp]
  00039	89 45 fc	 mov	 DWORD PTR __Back_shift$[ebp], eax
$LN4@Adjust_man:

; 151  :     _STL_VERIFY(_Back_shift >= _Min_back_shift && _Back_shift <= _Non_user_size, "invalid argument");

  0003c	83 7d fc 04	 cmp	 DWORD PTR __Back_shift$[ebp], 4
  00040	72 08		 jb	 SHORT $LN7@Adjust_man
  00042	83 7d fc 23	 cmp	 DWORD PTR __Back_shift$[ebp], 35 ; 00000023H
  00046	77 02		 ja	 SHORT $LN7@Adjust_man
  00048	eb 09		 jmp	 SHORT $LN2@Adjust_man
$LN7@Adjust_man:
  0004a	e8 00 00 00 00	 call	 __invalid_parameter_noinfo_noreturn
  0004f	33 c0		 xor	 eax, eax
  00051	75 f7		 jne	 SHORT $LN7@Adjust_man
$LN2@Adjust_man:
  00053	33 c0		 xor	 eax, eax
  00055	75 e5		 jne	 SHORT $LN4@Adjust_man

; 152  :     _Ptr = reinterpret_cast<void*>(_Ptr_container);

  00057	8b 45 08	 mov	 eax, DWORD PTR __Ptr$[ebp]
  0005a	8b 4d f8	 mov	 ecx, DWORD PTR __Ptr_container$[ebp]
  0005d	89 08		 mov	 DWORD PTR [eax], ecx
$LN10@Adjust_man:

; 153  : }

  0005f	c9		 leave
  00060	c3		 ret	 0
?_Adjust_manually_vector_aligned@std@@YAXAAPAXAAI@Z ENDP ; std::_Adjust_manually_vector_aligned
_TEXT	ENDS
; Function compile flags: /Odspy
; File C:\Program Files (x86)\Microsoft Visual Studio\2019\Community\VC\Tools\MSVC\14.28.29333\include\exception
;	COMDAT ?_Throw_bad_array_new_length@std@@YAXXZ
_TEXT	SEGMENT
$T1 = -12						; size = 12
?_Throw_bad_array_new_length@std@@YAXXZ PROC		; std::_Throw_bad_array_new_length, COMDAT

; 320  : [[noreturn]] inline void _Throw_bad_array_new_length() {

  00000	55		 push	 ebp
  00001	8b ec		 mov	 ebp, esp
  00003	83 ec 0c	 sub	 esp, 12			; 0000000cH

; 321  :     _THROW(bad_array_new_length{});

  00006	8d 4d f4	 lea	 ecx, DWORD PTR $T1[ebp]
  00009	e8 00 00 00 00	 call	 ??0bad_array_new_length@std@@QAE@XZ ; std::bad_array_new_length::bad_array_new_length
  0000e	68 00 00 00 00	 push	 OFFSET __TI3?AVbad_array_new_length@std@@
  00013	8d 45 f4	 lea	 eax, DWORD PTR $T1[ebp]
  00016	50		 push	 eax
  00017	e8 00 00 00 00	 call	 __CxxThrowException@8
$LN2@Throw_bad_:

; 322  : }

  0001c	c9		 leave
  0001d	c3		 ret	 0
?_Throw_bad_array_new_length@std@@YAXXZ ENDP		; std::_Throw_bad_array_new_length
_TEXT	ENDS
; Function compile flags: /Odspy
; File C:\Program Files (x86)\Microsoft Visual Studio\2019\Community\VC\Tools\MSVC\14.28.29333\include\vcruntime_exception.h
;	COMDAT ??_Gbad_array_new_length@std@@UAEPAXI@Z
_TEXT	SEGMENT
_this$ = -4						; size = 4
___flags$ = 8						; size = 4
??_Gbad_array_new_length@std@@UAEPAXI@Z PROC		; std::bad_array_new_length::`scalar deleting destructor', COMDAT
; _this$ = ecx
  00000	55		 push	 ebp
  00001	8b ec		 mov	 ebp, esp
  00003	51		 push	 ecx
  00004	89 4d fc	 mov	 DWORD PTR _this$[ebp], ecx

; 89   :     {

  00007	8b 45 fc	 mov	 eax, DWORD PTR _this$[ebp]
  0000a	c7 00 00 00 00
	00		 mov	 DWORD PTR [eax], OFFSET ??_7exception@std@@6B@

; 90   :         __std_exception_destroy(&_Data);

  00010	8b 45 fc	 mov	 eax, DWORD PTR _this$[ebp]
  00013	83 c0 04	 add	 eax, 4
  00016	50		 push	 eax
  00017	e8 00 00 00 00	 call	 ___std_exception_destroy
  0001c	59		 pop	 ecx
  0001d	8b 45 08	 mov	 eax, DWORD PTR ___flags$[ebp]
  00020	83 e0 01	 and	 eax, 1
  00023	74 0c		 je	 SHORT $LN2@scalar
  00025	6a 0c		 push	 12			; 0000000cH
  00027	ff 75 fc	 push	 DWORD PTR _this$[ebp]
  0002a	e8 00 00 00 00	 call	 ??3@YAXPAXI@Z		; operator delete
  0002f	59		 pop	 ecx
  00030	59		 pop	 ecx
$LN2@scalar:
  00031	8b 45 fc	 mov	 eax, DWORD PTR _this$[ebp]
  00034	c9		 leave
  00035	c2 04 00	 ret	 4
??_Gbad_array_new_length@std@@UAEPAXI@Z ENDP		; std::bad_array_new_length::`scalar deleting destructor'
_TEXT	ENDS
; Function compile flags: /Odspy
;	COMDAT ??0bad_array_new_length@std@@QAE@ABV01@@Z
_TEXT	SEGMENT
_this$ = -4						; size = 4
___that$ = 8						; size = 4
??0bad_array_new_length@std@@QAE@ABV01@@Z PROC		; std::bad_array_new_length::bad_array_new_length, COMDAT
; _this$ = ecx
  00000	55		 push	 ebp
  00001	8b ec		 mov	 ebp, esp
  00003	51		 push	 ecx
  00004	89 4d fc	 mov	 DWORD PTR _this$[ebp], ecx
  00007	ff 75 08	 push	 DWORD PTR ___that$[ebp]
  0000a	8b 4d fc	 mov	 ecx, DWORD PTR _this$[ebp]
  0000d	e8 00 00 00 00	 call	 ??0exception@std@@QAE@ABV01@@Z ; std::exception::exception
  00012	8b 45 fc	 mov	 eax, DWORD PTR _this$[ebp]
  00015	c7 00 00 00 00
	00		 mov	 DWORD PTR [eax], OFFSET ??_7bad_alloc@std@@6B@
  0001b	8b 45 fc	 mov	 eax, DWORD PTR _this$[ebp]
  0001e	c7 00 00 00 00
	00		 mov	 DWORD PTR [eax], OFFSET ??_7bad_array_new_length@std@@6B@
  00024	8b 45 fc	 mov	 eax, DWORD PTR _this$[ebp]
  00027	c9		 leave
  00028	c2 04 00	 ret	 4
??0bad_array_new_length@std@@QAE@ABV01@@Z ENDP		; std::bad_array_new_length::bad_array_new_length
_TEXT	ENDS
; Function compile flags: /Odspy
; File C:\Program Files (x86)\Microsoft Visual Studio\2019\Community\VC\Tools\MSVC\14.28.29333\include\vcruntime_exception.h
;	COMDAT ??1bad_array_new_length@std@@UAE@XZ
_TEXT	SEGMENT
_this$ = -4						; size = 4
??1bad_array_new_length@std@@UAE@XZ PROC		; std::bad_array_new_length::~bad_array_new_length, COMDAT
; _this$ = ecx
  00000	55		 push	 ebp
  00001	8b ec		 mov	 ebp, esp
  00003	51		 push	 ecx
  00004	89 4d fc	 mov	 DWORD PTR _this$[ebp], ecx

; 89   :     {

  00007	8b 45 fc	 mov	 eax, DWORD PTR _this$[ebp]
  0000a	c7 00 00 00 00
	00		 mov	 DWORD PTR [eax], OFFSET ??_7exception@std@@6B@

; 90   :         __std_exception_destroy(&_Data);

  00010	8b 45 fc	 mov	 eax, DWORD PTR _this$[ebp]
  00013	83 c0 04	 add	 eax, 4
  00016	50		 push	 eax
  00017	e8 00 00 00 00	 call	 ___std_exception_destroy
  0001c	59		 pop	 ecx
  0001d	c9		 leave
  0001e	c3		 ret	 0
??1bad_array_new_length@std@@UAE@XZ ENDP		; std::bad_array_new_length::~bad_array_new_length
_TEXT	ENDS
; Function compile flags: /Odspy
; File C:\Program Files (x86)\Microsoft Visual Studio\2019\Community\VC\Tools\MSVC\14.28.29333\include\vcruntime_exception.h
;	COMDAT ??0bad_array_new_length@std@@QAE@XZ
_TEXT	SEGMENT
_this$ = -4						; size = 4
??0bad_array_new_length@std@@QAE@XZ PROC		; std::bad_array_new_length::bad_array_new_length, COMDAT
; _this$ = ecx

; 141  :     {

  00000	55		 push	 ebp
  00001	8b ec		 mov	 ebp, esp
  00003	51		 push	 ecx
  00004	89 4d fc	 mov	 DWORD PTR _this$[ebp], ecx

; 66   :     {

  00007	8b 45 fc	 mov	 eax, DWORD PTR _this$[ebp]
  0000a	c7 00 00 00 00
	00		 mov	 DWORD PTR [eax], OFFSET ??_7exception@std@@6B@

; 65   :         : _Data()

  00010	33 c0		 xor	 eax, eax
  00012	8b 4d fc	 mov	 ecx, DWORD PTR _this$[ebp]
  00015	83 c1 04	 add	 ecx, 4
  00018	89 01		 mov	 DWORD PTR [ecx], eax
  0001a	89 41 04	 mov	 DWORD PTR [ecx+4], eax

; 67   :         _Data._What = _Message;

  0001d	8b 45 fc	 mov	 eax, DWORD PTR _this$[ebp]
  00020	c7 40 04 00 00
	00 00		 mov	 DWORD PTR [eax+4], OFFSET ??_C@_0BF@KINCDENJ@bad?5array?5new?5length@

; 130  :     {

  00027	8b 45 fc	 mov	 eax, DWORD PTR _this$[ebp]
  0002a	c7 00 00 00 00
	00		 mov	 DWORD PTR [eax], OFFSET ??_7bad_alloc@std@@6B@

; 141  :     {

  00030	8b 45 fc	 mov	 eax, DWORD PTR _this$[ebp]
  00033	c7 00 00 00 00
	00		 mov	 DWORD PTR [eax], OFFSET ??_7bad_array_new_length@std@@6B@

; 142  :     }

  00039	8b 45 fc	 mov	 eax, DWORD PTR _this$[ebp]
  0003c	c9		 leave
  0003d	c3		 ret	 0
??0bad_array_new_length@std@@QAE@XZ ENDP		; std::bad_array_new_length::bad_array_new_length
_TEXT	ENDS
; Function compile flags: /Odspy
; File C:\Program Files (x86)\Microsoft Visual Studio\2019\Community\VC\Tools\MSVC\14.28.29333\include\vcruntime_exception.h
;	COMDAT ??_Gbad_alloc@std@@UAEPAXI@Z
_TEXT	SEGMENT
_this$ = -4						; size = 4
___flags$ = 8						; size = 4
??_Gbad_alloc@std@@UAEPAXI@Z PROC			; std::bad_alloc::`scalar deleting destructor', COMDAT
; _this$ = ecx
  00000	55		 push	 ebp
  00001	8b ec		 mov	 ebp, esp
  00003	51		 push	 ecx
  00004	89 4d fc	 mov	 DWORD PTR _this$[ebp], ecx

; 89   :     {

  00007	8b 45 fc	 mov	 eax, DWORD PTR _this$[ebp]
  0000a	c7 00 00 00 00
	00		 mov	 DWORD PTR [eax], OFFSET ??_7exception@std@@6B@

; 90   :         __std_exception_destroy(&_Data);

  00010	8b 45 fc	 mov	 eax, DWORD PTR _this$[ebp]
  00013	83 c0 04	 add	 eax, 4
  00016	50		 push	 eax
  00017	e8 00 00 00 00	 call	 ___std_exception_destroy
  0001c	59		 pop	 ecx
  0001d	8b 45 08	 mov	 eax, DWORD PTR ___flags$[ebp]
  00020	83 e0 01	 and	 eax, 1
  00023	74 0c		 je	 SHORT $LN2@scalar
  00025	6a 0c		 push	 12			; 0000000cH
  00027	ff 75 fc	 push	 DWORD PTR _this$[ebp]
  0002a	e8 00 00 00 00	 call	 ??3@YAXPAXI@Z		; operator delete
  0002f	59		 pop	 ecx
  00030	59		 pop	 ecx
$LN2@scalar:
  00031	8b 45 fc	 mov	 eax, DWORD PTR _this$[ebp]
  00034	c9		 leave
  00035	c2 04 00	 ret	 4
??_Gbad_alloc@std@@UAEPAXI@Z ENDP			; std::bad_alloc::`scalar deleting destructor'
_TEXT	ENDS
; Function compile flags: /Odspy
;	COMDAT ??0bad_alloc@std@@QAE@ABV01@@Z
_TEXT	SEGMENT
_this$ = -4						; size = 4
___that$ = 8						; size = 4
??0bad_alloc@std@@QAE@ABV01@@Z PROC			; std::bad_alloc::bad_alloc, COMDAT
; _this$ = ecx
  00000	55		 push	 ebp
  00001	8b ec		 mov	 ebp, esp
  00003	51		 push	 ecx
  00004	89 4d fc	 mov	 DWORD PTR _this$[ebp], ecx
  00007	ff 75 08	 push	 DWORD PTR ___that$[ebp]
  0000a	8b 4d fc	 mov	 ecx, DWORD PTR _this$[ebp]
  0000d	e8 00 00 00 00	 call	 ??0exception@std@@QAE@ABV01@@Z ; std::exception::exception
  00012	8b 45 fc	 mov	 eax, DWORD PTR _this$[ebp]
  00015	c7 00 00 00 00
	00		 mov	 DWORD PTR [eax], OFFSET ??_7bad_alloc@std@@6B@
  0001b	8b 45 fc	 mov	 eax, DWORD PTR _this$[ebp]
  0001e	c9		 leave
  0001f	c2 04 00	 ret	 4
??0bad_alloc@std@@QAE@ABV01@@Z ENDP			; std::bad_alloc::bad_alloc
_TEXT	ENDS
; Function compile flags: /Odspy
; File C:\Program Files (x86)\Microsoft Visual Studio\2019\Community\VC\Tools\MSVC\14.28.29333\include\vcruntime_exception.h
;	COMDAT ??_Gexception@std@@UAEPAXI@Z
_TEXT	SEGMENT
_this$ = -4						; size = 4
___flags$ = 8						; size = 4
??_Gexception@std@@UAEPAXI@Z PROC			; std::exception::`scalar deleting destructor', COMDAT
; _this$ = ecx
  00000	55		 push	 ebp
  00001	8b ec		 mov	 ebp, esp
  00003	51		 push	 ecx
  00004	89 4d fc	 mov	 DWORD PTR _this$[ebp], ecx

; 89   :     {

  00007	8b 45 fc	 mov	 eax, DWORD PTR _this$[ebp]
  0000a	c7 00 00 00 00
	00		 mov	 DWORD PTR [eax], OFFSET ??_7exception@std@@6B@

; 90   :         __std_exception_destroy(&_Data);

  00010	8b 45 fc	 mov	 eax, DWORD PTR _this$[ebp]
  00013	83 c0 04	 add	 eax, 4
  00016	50		 push	 eax
  00017	e8 00 00 00 00	 call	 ___std_exception_destroy
  0001c	59		 pop	 ecx
  0001d	8b 45 08	 mov	 eax, DWORD PTR ___flags$[ebp]
  00020	83 e0 01	 and	 eax, 1
  00023	74 0c		 je	 SHORT $LN2@scalar
  00025	6a 0c		 push	 12			; 0000000cH
  00027	ff 75 fc	 push	 DWORD PTR _this$[ebp]
  0002a	e8 00 00 00 00	 call	 ??3@YAXPAXI@Z		; operator delete
  0002f	59		 pop	 ecx
  00030	59		 pop	 ecx
$LN2@scalar:
  00031	8b 45 fc	 mov	 eax, DWORD PTR _this$[ebp]
  00034	c9		 leave
  00035	c2 04 00	 ret	 4
??_Gexception@std@@UAEPAXI@Z ENDP			; std::exception::`scalar deleting destructor'
_TEXT	ENDS
; Function compile flags: /Odspy
; File C:\Program Files (x86)\Microsoft Visual Studio\2019\Community\VC\Tools\MSVC\14.28.29333\include\vcruntime_exception.h
;	COMDAT ?what@exception@std@@UBEPBDXZ
_TEXT	SEGMENT
tv69 = -8						; size = 4
_this$ = -4						; size = 4
?what@exception@std@@UBEPBDXZ PROC			; std::exception::what, COMDAT
; _this$ = ecx

; 94   :     {

  00000	55		 push	 ebp
  00001	8b ec		 mov	 ebp, esp
  00003	51		 push	 ecx
  00004	51		 push	 ecx
  00005	89 4d fc	 mov	 DWORD PTR _this$[ebp], ecx

; 95   :         return _Data._What ? _Data._What : "Unknown exception";

  00008	8b 45 fc	 mov	 eax, DWORD PTR _this$[ebp]
  0000b	83 78 04 00	 cmp	 DWORD PTR [eax+4], 0
  0000f	74 0b		 je	 SHORT $LN3@what
  00011	8b 45 fc	 mov	 eax, DWORD PTR _this$[ebp]
  00014	8b 40 04	 mov	 eax, DWORD PTR [eax+4]
  00017	89 45 f8	 mov	 DWORD PTR tv69[ebp], eax
  0001a	eb 07		 jmp	 SHORT $LN4@what
$LN3@what:
  0001c	c7 45 f8 00 00
	00 00		 mov	 DWORD PTR tv69[ebp], OFFSET ??_C@_0BC@EOODALEL@Unknown?5exception@
$LN4@what:
  00023	8b 45 f8	 mov	 eax, DWORD PTR tv69[ebp]

; 96   :     }

  00026	c9		 leave
  00027	c3		 ret	 0
?what@exception@std@@UBEPBDXZ ENDP			; std::exception::what
_TEXT	ENDS
; Function compile flags: /Odspy
; File C:\Program Files (x86)\Microsoft Visual Studio\2019\Community\VC\Tools\MSVC\14.28.29333\include\vcruntime_exception.h
;	COMDAT ??0exception@std@@QAE@ABV01@@Z
_TEXT	SEGMENT
_this$ = -4						; size = 4
__Other$ = 8						; size = 4
??0exception@std@@QAE@ABV01@@Z PROC			; std::exception::exception, COMDAT
; _this$ = ecx

; 72   :     {

  00000	55		 push	 ebp
  00001	8b ec		 mov	 ebp, esp
  00003	51		 push	 ecx
  00004	89 4d fc	 mov	 DWORD PTR _this$[ebp], ecx
  00007	8b 45 fc	 mov	 eax, DWORD PTR _this$[ebp]
  0000a	c7 00 00 00 00
	00		 mov	 DWORD PTR [eax], OFFSET ??_7exception@std@@6B@

; 71   :         : _Data()

  00010	33 c0		 xor	 eax, eax
  00012	8b 4d fc	 mov	 ecx, DWORD PTR _this$[ebp]
  00015	83 c1 04	 add	 ecx, 4
  00018	89 01		 mov	 DWORD PTR [ecx], eax
  0001a	89 41 04	 mov	 DWORD PTR [ecx+4], eax

; 73   :         __std_exception_copy(&_Other._Data, &_Data);

  0001d	8b 45 fc	 mov	 eax, DWORD PTR _this$[ebp]
  00020	83 c0 04	 add	 eax, 4
  00023	50		 push	 eax
  00024	8b 45 08	 mov	 eax, DWORD PTR __Other$[ebp]
  00027	83 c0 04	 add	 eax, 4
  0002a	50		 push	 eax
  0002b	e8 00 00 00 00	 call	 ___std_exception_copy
  00030	59		 pop	 ecx
  00031	59		 pop	 ecx

; 74   :     }

  00032	8b 45 fc	 mov	 eax, DWORD PTR _this$[ebp]
  00035	c9		 leave
  00036	c2 04 00	 ret	 4
??0exception@std@@QAE@ABV01@@Z ENDP			; std::exception::exception
_TEXT	ENDS
; Function compile flags: /Odspy
;	COMDAT ??_H@YGXPAXIIP6EPAX0@Z@Z
_TEXT	SEGMENT
tv66 = -4						; size = 4
___t$ = 8						; size = 4
___s$ = 12						; size = 4
___n$ = 16						; size = 4
___f$ = 20						; size = 4
??_H@YGXPAXIIP6EPAX0@Z@Z PROC				; `vector constructor iterator', COMDAT
  00000	55		 push	 ebp
  00001	8b ec		 mov	 ebp, esp
  00003	51		 push	 ecx
$LN2@vector:
  00004	8b 45 10	 mov	 eax, DWORD PTR ___n$[ebp]
  00007	89 45 fc	 mov	 DWORD PTR tv66[ebp], eax
  0000a	8b 45 10	 mov	 eax, DWORD PTR ___n$[ebp]
  0000d	48		 dec	 eax
  0000e	89 45 10	 mov	 DWORD PTR ___n$[ebp], eax
  00011	83 7d fc 00	 cmp	 DWORD PTR tv66[ebp], 0
  00015	76 11		 jbe	 SHORT $LN1@vector
  00017	8b 4d 08	 mov	 ecx, DWORD PTR ___t$[ebp]
  0001a	ff 55 14	 call	 DWORD PTR ___f$[ebp]
  0001d	8b 45 08	 mov	 eax, DWORD PTR ___t$[ebp]
  00020	03 45 0c	 add	 eax, DWORD PTR ___s$[ebp]
  00023	89 45 08	 mov	 DWORD PTR ___t$[ebp], eax
  00026	eb dc		 jmp	 SHORT $LN2@vector
$LN1@vector:
  00028	c9		 leave
  00029	c2 10 00	 ret	 16			; 00000010H
??_H@YGXPAXIIP6EPAX0@Z@Z ENDP				; `vector constructor iterator'
_TEXT	ENDS
END
