; Listing generated by Microsoft (R) Optimizing Compiler Version 19.28.29335.0 

	TITLE	D:\Metin2 Server Files\mainline\SRC_2014\Metin2Client\EterLib\TargaResource.cpp
	.686P
	.XMM
	include listing.inc
	.model	flat

INCLUDELIB LIBCMT
INCLUDELIB OLDNAMES

PUBLIC	?Type@CTargaResource@@SAKXZ			; CTargaResource::Type
PUBLIC	??0CTargaResource@@QAE@PBD@Z			; CTargaResource::CTargaResource
PUBLIC	??1CTargaResource@@UAE@XZ			; CTargaResource::~CTargaResource
PUBLIC	?GetMemPtr@CTargaResource@@QAEPAKXZ		; CTargaResource::GetMemPtr
PUBLIC	?GetRect@CTargaResource@@QAEXAAK0@Z		; CTargaResource::GetRect
PUBLIC	?GetTgaHeader@CTargaResource@@QAEAAUTGA_HEADER@@XZ ; CTargaResource::GetTgaHeader
PUBLIC	?OnLoad@CTargaResource@@MAE_NHPBX@Z		; CTargaResource::OnLoad
PUBLIC	?OnClear@CTargaResource@@MAEXXZ			; CTargaResource::OnClear
PUBLIC	?OnIsEmpty@CTargaResource@@MBE_NXZ		; CTargaResource::OnIsEmpty
PUBLIC	?OnIsType@CTargaResource@@MAE_NK@Z		; CTargaResource::OnIsType
PUBLIC	??_GCTargaResource@@UAEPAXI@Z			; CTargaResource::`scalar deleting destructor'
PUBLIC	??_7CTargaResource@@6B@				; CTargaResource::`vftable'
PUBLIC	??_C@_0P@NDEBAEPK@CTargaResource@		; `string'
PUBLIC	??_R4CTargaResource@@6B@			; CTargaResource::`RTTI Complete Object Locator'
PUBLIC	??_R0?AVCTargaResource@@@8			; CTargaResource `RTTI Type Descriptor'
PUBLIC	??_R3CTargaResource@@8				; CTargaResource::`RTTI Class Hierarchy Descriptor'
PUBLIC	??_R2CTargaResource@@8				; CTargaResource::`RTTI Base Class Array'
PUBLIC	??_R1A@?0A@EA@CTargaResource@@8			; CTargaResource::`RTTI Base Class Descriptor at (0,-1,0,64)'
PUBLIC	??_R1A@?0A@EA@CResource@@8			; CResource::`RTTI Base Class Descriptor at (0,-1,0,64)'
PUBLIC	??_R0?AVCResource@@@8				; CResource `RTTI Type Descriptor'
PUBLIC	??_R3CResource@@8				; CResource::`RTTI Class Hierarchy Descriptor'
PUBLIC	??_R2CResource@@8				; CResource::`RTTI Base Class Array'
PUBLIC	??_R1A@?0A@EA@CReferenceObject@@8		; CReferenceObject::`RTTI Base Class Descriptor at (0,-1,0,64)'
PUBLIC	??_R0?AVCReferenceObject@@@8			; CReferenceObject `RTTI Type Descriptor'
PUBLIC	??_R3CReferenceObject@@8			; CReferenceObject::`RTTI Class Hierarchy Descriptor'
PUBLIC	??_R2CReferenceObject@@8			; CReferenceObject::`RTTI Base Class Array'
EXTRN	??3@YAXPAXI@Z:PROC				; operator delete
EXTRN	__Init_thread_header:PROC
EXTRN	__Init_thread_abort:PROC
EXTRN	__Init_thread_footer:PROC
EXTRN	?StringToType@CResource@@SAKPBD@Z:PROC		; CResource::StringToType
EXTRN	?CreateDeviceObjects@CResource@@UAE_NXZ:PROC	; CResource::CreateDeviceObjects
EXTRN	?DestroyDeviceObjects@CResource@@UAEXXZ:PROC	; CResource::DestroyDeviceObjects
EXTRN	??0CResource@@QAE@PBD@Z:PROC			; CResource::CResource
EXTRN	??1CResource@@UAE@XZ:PROC			; CResource::~CResource
EXTRN	?OnIsType@CResource@@MAE_NK@Z:PROC		; CResource::OnIsType
EXTRN	?OnConstruct@CResource@@MAEXXZ:PROC		; CResource::OnConstruct
EXTRN	?OnSelfDestruct@CResource@@MAEXXZ:PROC		; CResource::OnSelfDestruct
EXTRN	?Clear@CImage@@QAEXK@Z:PROC			; CImage::Clear
EXTRN	?GetWidth@CImage@@QBEHXZ:PROC			; CImage::GetWidth
EXTRN	?GetHeight@CImage@@QBEHXZ:PROC			; CImage::GetHeight
EXTRN	?GetBasePointer@CImage@@QAEPAKXZ:PROC		; CImage::GetBasePointer
EXTRN	?IsEmpty@CImage@@QBE_NXZ:PROC			; CImage::IsEmpty
EXTRN	??0CTGAImage@@QAE@XZ:PROC			; CTGAImage::CTGAImage
EXTRN	??1CTGAImage@@UAE@XZ:PROC			; CTGAImage::~CTGAImage
EXTRN	?GetHeader@CTGAImage@@QAEAAUTGA_HEADER@@XZ:PROC	; CTGAImage::GetHeader
EXTRN	??_ECTargaResource@@UAEPAXI@Z:PROC		; CTargaResource::`vector deleting destructor'
EXTRN	@__security_check_cookie@4:PROC
EXTRN	___CxxFrameHandler3:PROC
EXTRN	__Init_thread_epoch:DWORD
EXTRN	??_7type_info@@6B@:QWORD			; type_info::`vftable'
EXTRN	___security_cookie:DWORD
EXTRN	__tls_array:DWORD
EXTRN	__tls_index:DWORD
;	COMDAT ?s_type@?1??Type@CTargaResource@@SAKXZ@4KA
_BSS	SEGMENT
?s_type@?1??Type@CTargaResource@@SAKXZ@4KA DD 01H DUP (?) ; `CTargaResource::Type'::`2'::s_type
_BSS	ENDS
;	COMDAT ?$TSS0@?1??Type@CTargaResource@@SAKXZ@4HA
_BSS	SEGMENT
?$TSS0@?1??Type@CTargaResource@@SAKXZ@4HA DD 01H DUP (?) ; `CTargaResource::Type'::`2'::$TSS0
_BSS	ENDS
;	COMDAT ??_R2CReferenceObject@@8
rdata$r	SEGMENT
??_R2CReferenceObject@@8 DD FLAT:??_R1A@?0A@EA@CReferenceObject@@8 ; CReferenceObject::`RTTI Base Class Array'
rdata$r	ENDS
;	COMDAT ??_R3CReferenceObject@@8
rdata$r	SEGMENT
??_R3CReferenceObject@@8 DD 00H				; CReferenceObject::`RTTI Class Hierarchy Descriptor'
	DD	00H
	DD	01H
	DD	FLAT:??_R2CReferenceObject@@8
rdata$r	ENDS
;	COMDAT ??_R0?AVCReferenceObject@@@8
data$rs	SEGMENT
??_R0?AVCReferenceObject@@@8 DD FLAT:??_7type_info@@6B@	; CReferenceObject `RTTI Type Descriptor'
	DD	00H
	DB	'.?AVCReferenceObject@@', 00H
data$rs	ENDS
;	COMDAT ??_R1A@?0A@EA@CReferenceObject@@8
rdata$r	SEGMENT
??_R1A@?0A@EA@CReferenceObject@@8 DD FLAT:??_R0?AVCReferenceObject@@@8 ; CReferenceObject::`RTTI Base Class Descriptor at (0,-1,0,64)'
	DD	00H
	DD	00H
	DD	0ffffffffH
	DD	00H
	DD	040H
	DD	FLAT:??_R3CReferenceObject@@8
rdata$r	ENDS
;	COMDAT ??_R2CResource@@8
rdata$r	SEGMENT
??_R2CResource@@8 DD FLAT:??_R1A@?0A@EA@CResource@@8	; CResource::`RTTI Base Class Array'
	DD	FLAT:??_R1A@?0A@EA@CReferenceObject@@8
rdata$r	ENDS
;	COMDAT ??_R3CResource@@8
rdata$r	SEGMENT
??_R3CResource@@8 DD 00H				; CResource::`RTTI Class Hierarchy Descriptor'
	DD	00H
	DD	02H
	DD	FLAT:??_R2CResource@@8
rdata$r	ENDS
;	COMDAT ??_R0?AVCResource@@@8
data$rs	SEGMENT
??_R0?AVCResource@@@8 DD FLAT:??_7type_info@@6B@	; CResource `RTTI Type Descriptor'
	DD	00H
	DB	'.?AVCResource@@', 00H
data$rs	ENDS
;	COMDAT ??_R1A@?0A@EA@CResource@@8
rdata$r	SEGMENT
??_R1A@?0A@EA@CResource@@8 DD FLAT:??_R0?AVCResource@@@8 ; CResource::`RTTI Base Class Descriptor at (0,-1,0,64)'
	DD	01H
	DD	00H
	DD	0ffffffffH
	DD	00H
	DD	040H
	DD	FLAT:??_R3CResource@@8
rdata$r	ENDS
;	COMDAT ??_R1A@?0A@EA@CTargaResource@@8
rdata$r	SEGMENT
??_R1A@?0A@EA@CTargaResource@@8 DD FLAT:??_R0?AVCTargaResource@@@8 ; CTargaResource::`RTTI Base Class Descriptor at (0,-1,0,64)'
	DD	02H
	DD	00H
	DD	0ffffffffH
	DD	00H
	DD	040H
	DD	FLAT:??_R3CTargaResource@@8
rdata$r	ENDS
;	COMDAT ??_R2CTargaResource@@8
rdata$r	SEGMENT
??_R2CTargaResource@@8 DD FLAT:??_R1A@?0A@EA@CTargaResource@@8 ; CTargaResource::`RTTI Base Class Array'
	DD	FLAT:??_R1A@?0A@EA@CResource@@8
	DD	FLAT:??_R1A@?0A@EA@CReferenceObject@@8
rdata$r	ENDS
;	COMDAT ??_R3CTargaResource@@8
rdata$r	SEGMENT
??_R3CTargaResource@@8 DD 00H				; CTargaResource::`RTTI Class Hierarchy Descriptor'
	DD	00H
	DD	03H
	DD	FLAT:??_R2CTargaResource@@8
rdata$r	ENDS
;	COMDAT ??_R0?AVCTargaResource@@@8
data$rs	SEGMENT
??_R0?AVCTargaResource@@@8 DD FLAT:??_7type_info@@6B@	; CTargaResource `RTTI Type Descriptor'
	DD	00H
	DB	'.?AVCTargaResource@@', 00H
data$rs	ENDS
;	COMDAT ??_R4CTargaResource@@6B@
rdata$r	SEGMENT
??_R4CTargaResource@@6B@ DD 00H				; CTargaResource::`RTTI Complete Object Locator'
	DD	00H
	DD	00H
	DD	FLAT:??_R0?AVCTargaResource@@@8
	DD	FLAT:??_R3CTargaResource@@8
rdata$r	ENDS
;	COMDAT ??_C@_0P@NDEBAEPK@CTargaResource@
CONST	SEGMENT
??_C@_0P@NDEBAEPK@CTargaResource@ DB 'CTargaResource', 00H ; `string'
CONST	ENDS
;	COMDAT ??_7CTargaResource@@6B@
CONST	SEGMENT
??_7CTargaResource@@6B@ DD FLAT:??_R4CTargaResource@@6B@ ; CTargaResource::`vftable'
	DD	FLAT:??_ECTargaResource@@UAEPAXI@Z
	DD	FLAT:?OnConstruct@CResource@@MAEXXZ
	DD	FLAT:?OnSelfDestruct@CResource@@MAEXXZ
	DD	FLAT:?CreateDeviceObjects@CResource@@UAE_NXZ
	DD	FLAT:?DestroyDeviceObjects@CResource@@UAEXXZ
	DD	FLAT:?OnLoad@CTargaResource@@MAE_NHPBX@Z
	DD	FLAT:?OnClear@CTargaResource@@MAEXXZ
	DD	FLAT:?OnIsEmpty@CTargaResource@@MBE_NXZ
	DD	FLAT:?OnIsType@CTargaResource@@MAE_NK@Z
CONST	ENDS
;	COMDAT xdata$x
xdata$x	SEGMENT
__unwindtable$??0CTargaResource@@QAE@PBD@Z DD 0ffffffffH
	DD	FLAT:__unwindfunclet$??0CTargaResource@@QAE@PBD@Z$0
__ehfuncinfo$??0CTargaResource@@QAE@PBD@Z DD 019930522H
	DD	01H
	DD	FLAT:__unwindtable$??0CTargaResource@@QAE@PBD@Z
	DD	2 DUP(00H)
	DD	2 DUP(00H)
	DD	00H
	DD	01H
xdata$x	ENDS
;	COMDAT xdata$x
xdata$x	SEGMENT
__unwindtable$?Type@CTargaResource@@SAKXZ DD 0ffffffffH
	DD	FLAT:__unwindfunclet$?Type@CTargaResource@@SAKXZ$0
__ehfuncinfo$?Type@CTargaResource@@SAKXZ DD 019930522H
	DD	01H
	DD	FLAT:__unwindtable$?Type@CTargaResource@@SAKXZ
	DD	2 DUP(00H)
	DD	2 DUP(00H)
	DD	00H
	DD	01H
xdata$x	ENDS
; Function compile flags: /Odspy
;	COMDAT ??_GCTargaResource@@UAEPAXI@Z
_TEXT	SEGMENT
_this$ = -4						; size = 4
___flags$ = 8						; size = 4
??_GCTargaResource@@UAEPAXI@Z PROC			; CTargaResource::`scalar deleting destructor', COMDAT
; _this$ = ecx
  00000	55		 push	 ebp
  00001	8b ec		 mov	 ebp, esp
  00003	51		 push	 ecx
  00004	89 4d fc	 mov	 DWORD PTR _this$[ebp], ecx
  00007	8b 4d fc	 mov	 ecx, DWORD PTR _this$[ebp]
  0000a	e8 00 00 00 00	 call	 ??1CTargaResource@@UAE@XZ ; CTargaResource::~CTargaResource
  0000f	8b 45 08	 mov	 eax, DWORD PTR ___flags$[ebp]
  00012	83 e0 01	 and	 eax, 1
  00015	74 0c		 je	 SHORT $LN2@scalar
  00017	6a 70		 push	 112			; 00000070H
  00019	ff 75 fc	 push	 DWORD PTR _this$[ebp]
  0001c	e8 00 00 00 00	 call	 ??3@YAXPAXI@Z		; operator delete
  00021	59		 pop	 ecx
  00022	59		 pop	 ecx
$LN2@scalar:
  00023	8b 45 fc	 mov	 eax, DWORD PTR _this$[ebp]
  00026	c9		 leave
  00027	c2 04 00	 ret	 4
??_GCTargaResource@@UAEPAXI@Z ENDP			; CTargaResource::`scalar deleting destructor'
_TEXT	ENDS
; Function compile flags: /Odspy
; File D:\Metin2 Server Files\mainline\SRC_2014\Metin2Client\EterLib\TargaResource.cpp
;	COMDAT ?OnIsType@CTargaResource@@MAE_NK@Z
_TEXT	SEGMENT
_this$ = -4						; size = 4
_type$ = 8						; size = 4
?OnIsType@CTargaResource@@MAE_NK@Z PROC			; CTargaResource::OnIsType, COMDAT
; _this$ = ecx

; 19   : {

  00000	55		 push	 ebp
  00001	8b ec		 mov	 ebp, esp
  00003	51		 push	 ecx
  00004	89 4d fc	 mov	 DWORD PTR _this$[ebp], ecx

; 20   : 	if (CTargaResource::Type() == type)

  00007	e8 00 00 00 00	 call	 ?Type@CTargaResource@@SAKXZ ; CTargaResource::Type
  0000c	3b 45 08	 cmp	 eax, DWORD PTR _type$[ebp]
  0000f	75 04		 jne	 SHORT $LN2@OnIsType

; 21   : 		return true;

  00011	b0 01		 mov	 al, 1
  00013	eb 0b		 jmp	 SHORT $LN1@OnIsType
$LN2@OnIsType:

; 22   : 
; 23   : 	return CResource::OnIsType(type);

  00015	ff 75 08	 push	 DWORD PTR _type$[ebp]
  00018	8b 4d fc	 mov	 ecx, DWORD PTR _this$[ebp]
  0001b	e8 00 00 00 00	 call	 ?OnIsType@CResource@@MAE_NK@Z ; CResource::OnIsType
$LN1@OnIsType:

; 24   : }

  00020	c9		 leave
  00021	c2 04 00	 ret	 4
?OnIsType@CTargaResource@@MAE_NK@Z ENDP			; CTargaResource::OnIsType
_TEXT	ENDS
; Function compile flags: /Odspy
; File D:\Metin2 Server Files\mainline\SRC_2014\Metin2Client\EterLib\TargaResource.cpp
;	COMDAT ?OnIsEmpty@CTargaResource@@MBE_NXZ
_TEXT	SEGMENT
_this$ = -4						; size = 4
?OnIsEmpty@CTargaResource@@MBE_NXZ PROC			; CTargaResource::OnIsEmpty, COMDAT
; _this$ = ecx

; 37   : {

  00000	55		 push	 ebp
  00001	8b ec		 mov	 ebp, esp
  00003	51		 push	 ecx
  00004	89 4d fc	 mov	 DWORD PTR _this$[ebp], ecx

; 38   : 	return image.IsEmpty();

  00007	8b 4d fc	 mov	 ecx, DWORD PTR _this$[ebp]
  0000a	83 c1 2c	 add	 ecx, 44			; 0000002cH
  0000d	e8 00 00 00 00	 call	 ?IsEmpty@CImage@@QBE_NXZ ; CImage::IsEmpty

; 39   : }

  00012	c9		 leave
  00013	c3		 ret	 0
?OnIsEmpty@CTargaResource@@MBE_NXZ ENDP			; CTargaResource::OnIsEmpty
_TEXT	ENDS
; Function compile flags: /Odspy
; File D:\Metin2 Server Files\mainline\SRC_2014\Metin2Client\EterLib\TargaResource.cpp
;	COMDAT ?OnClear@CTargaResource@@MAEXXZ
_TEXT	SEGMENT
_this$ = -4						; size = 4
?OnClear@CTargaResource@@MAEXXZ PROC			; CTargaResource::OnClear, COMDAT
; _this$ = ecx

; 32   : {

  00000	55		 push	 ebp
  00001	8b ec		 mov	 ebp, esp
  00003	51		 push	 ecx
  00004	89 4d fc	 mov	 DWORD PTR _this$[ebp], ecx

; 33   : 	image.Clear();

  00007	6a 00		 push	 0
  00009	8b 4d fc	 mov	 ecx, DWORD PTR _this$[ebp]
  0000c	83 c1 2c	 add	 ecx, 44			; 0000002cH
  0000f	e8 00 00 00 00	 call	 ?Clear@CImage@@QAEXK@Z	; CImage::Clear

; 34   : }

  00014	c9		 leave
  00015	c3		 ret	 0
?OnClear@CTargaResource@@MAEXXZ ENDP			; CTargaResource::OnClear
_TEXT	ENDS
; Function compile flags: /Odspy
; File D:\Metin2 Server Files\mainline\SRC_2014\Metin2Client\EterLib\TargaResource.cpp
;	COMDAT ?OnLoad@CTargaResource@@MAE_NHPBX@Z
_TEXT	SEGMENT
_this$ = -4						; size = 4
_iSize$ = 8						; size = 4
_c_pvBuf$ = 12						; size = 4
?OnLoad@CTargaResource@@MAE_NHPBX@Z PROC		; CTargaResource::OnLoad, COMDAT
; _this$ = ecx

; 27   : {

  00000	55		 push	 ebp
  00001	8b ec		 mov	 ebp, esp
  00003	51		 push	 ecx
  00004	89 4d fc	 mov	 DWORD PTR _this$[ebp], ecx

; 28   : 	return image.LoadFromMemory(iSize, static_cast<const BYTE *>(c_pvBuf));

  00007	ff 75 0c	 push	 DWORD PTR _c_pvBuf$[ebp]
  0000a	ff 75 08	 push	 DWORD PTR _iSize$[ebp]
  0000d	8b 4d fc	 mov	 ecx, DWORD PTR _this$[ebp]
  00010	83 c1 2c	 add	 ecx, 44			; 0000002cH
  00013	8b 45 fc	 mov	 eax, DWORD PTR _this$[ebp]
  00016	8b 40 2c	 mov	 eax, DWORD PTR [eax+44]
  00019	ff 50 08	 call	 DWORD PTR [eax+8]

; 29   : }

  0001c	c9		 leave
  0001d	c2 08 00	 ret	 8
?OnLoad@CTargaResource@@MAE_NHPBX@Z ENDP		; CTargaResource::OnLoad
_TEXT	ENDS
; Function compile flags: /Odspy
; File D:\Metin2 Server Files\mainline\SRC_2014\Metin2Client\EterLib\TargaResource.cpp
;	COMDAT ?GetTgaHeader@CTargaResource@@QAEAAUTGA_HEADER@@XZ
_TEXT	SEGMENT
_this$ = -4						; size = 4
?GetTgaHeader@CTargaResource@@QAEAAUTGA_HEADER@@XZ PROC	; CTargaResource::GetTgaHeader, COMDAT
; _this$ = ecx

; 53   : {

  00000	55		 push	 ebp
  00001	8b ec		 mov	 ebp, esp
  00003	51		 push	 ecx
  00004	89 4d fc	 mov	 DWORD PTR _this$[ebp], ecx

; 54   : 	return image.GetHeader();

  00007	8b 4d fc	 mov	 ecx, DWORD PTR _this$[ebp]
  0000a	83 c1 2c	 add	 ecx, 44			; 0000002cH
  0000d	e8 00 00 00 00	 call	 ?GetHeader@CTGAImage@@QAEAAUTGA_HEADER@@XZ ; CTGAImage::GetHeader

; 55   : }

  00012	c9		 leave
  00013	c3		 ret	 0
?GetTgaHeader@CTargaResource@@QAEAAUTGA_HEADER@@XZ ENDP	; CTargaResource::GetTgaHeader
_TEXT	ENDS
; Function compile flags: /Odspy
; File D:\Metin2 Server Files\mainline\SRC_2014\Metin2Client\EterLib\TargaResource.cpp
;	COMDAT ?GetRect@CTargaResource@@QAEXAAK0@Z
_TEXT	SEGMENT
_this$ = -4						; size = 4
_w$ = 8							; size = 4
_h$ = 12						; size = 4
?GetRect@CTargaResource@@QAEXAAK0@Z PROC		; CTargaResource::GetRect, COMDAT
; _this$ = ecx

; 42   : {

  00000	55		 push	 ebp
  00001	8b ec		 mov	 ebp, esp
  00003	51		 push	 ecx
  00004	89 4d fc	 mov	 DWORD PTR _this$[ebp], ecx

; 43   : 	w = image.GetWidth();

  00007	8b 4d fc	 mov	 ecx, DWORD PTR _this$[ebp]
  0000a	83 c1 2c	 add	 ecx, 44			; 0000002cH
  0000d	e8 00 00 00 00	 call	 ?GetWidth@CImage@@QBEHXZ ; CImage::GetWidth
  00012	8b 4d 08	 mov	 ecx, DWORD PTR _w$[ebp]
  00015	89 01		 mov	 DWORD PTR [ecx], eax

; 44   : 	h = image.GetHeight();

  00017	8b 4d fc	 mov	 ecx, DWORD PTR _this$[ebp]
  0001a	83 c1 2c	 add	 ecx, 44			; 0000002cH
  0001d	e8 00 00 00 00	 call	 ?GetHeight@CImage@@QBEHXZ ; CImage::GetHeight
  00022	8b 4d 0c	 mov	 ecx, DWORD PTR _h$[ebp]
  00025	89 01		 mov	 DWORD PTR [ecx], eax

; 45   : }

  00027	c9		 leave
  00028	c2 08 00	 ret	 8
?GetRect@CTargaResource@@QAEXAAK0@Z ENDP		; CTargaResource::GetRect
_TEXT	ENDS
; Function compile flags: /Odspy
; File D:\Metin2 Server Files\mainline\SRC_2014\Metin2Client\EterLib\TargaResource.cpp
;	COMDAT ?GetMemPtr@CTargaResource@@QAEPAKXZ
_TEXT	SEGMENT
_this$ = -4						; size = 4
?GetMemPtr@CTargaResource@@QAEPAKXZ PROC		; CTargaResource::GetMemPtr, COMDAT
; _this$ = ecx

; 48   : {

  00000	55		 push	 ebp
  00001	8b ec		 mov	 ebp, esp
  00003	51		 push	 ecx
  00004	89 4d fc	 mov	 DWORD PTR _this$[ebp], ecx

; 49   : 	return image.GetBasePointer();

  00007	8b 4d fc	 mov	 ecx, DWORD PTR _this$[ebp]
  0000a	83 c1 2c	 add	 ecx, 44			; 0000002cH
  0000d	e8 00 00 00 00	 call	 ?GetBasePointer@CImage@@QAEPAKXZ ; CImage::GetBasePointer

; 50   : }

  00012	c9		 leave
  00013	c3		 ret	 0
?GetMemPtr@CTargaResource@@QAEPAKXZ ENDP		; CTargaResource::GetMemPtr
_TEXT	ENDS
; Function compile flags: /Odspy
; File D:\Metin2 Server Files\mainline\SRC_2014\Metin2Client\EterLib\TargaResource.cpp
;	COMDAT ??1CTargaResource@@UAE@XZ
_TEXT	SEGMENT
_this$ = -4						; size = 4
??1CTargaResource@@UAE@XZ PROC				; CTargaResource::~CTargaResource, COMDAT
; _this$ = ecx

; 9    : {

  00000	55		 push	 ebp
  00001	8b ec		 mov	 ebp, esp
  00003	51		 push	 ecx
  00004	89 4d fc	 mov	 DWORD PTR _this$[ebp], ecx
  00007	8b 45 fc	 mov	 eax, DWORD PTR _this$[ebp]
  0000a	c7 00 00 00 00
	00		 mov	 DWORD PTR [eax], OFFSET ??_7CTargaResource@@6B@

; 10   : }

  00010	8b 4d fc	 mov	 ecx, DWORD PTR _this$[ebp]
  00013	83 c1 2c	 add	 ecx, 44			; 0000002cH
  00016	e8 00 00 00 00	 call	 ??1CTGAImage@@UAE@XZ	; CTGAImage::~CTGAImage
  0001b	8b 4d fc	 mov	 ecx, DWORD PTR _this$[ebp]
  0001e	e8 00 00 00 00	 call	 ??1CResource@@UAE@XZ	; CResource::~CResource
  00023	c9		 leave
  00024	c3		 ret	 0
??1CTargaResource@@UAE@XZ ENDP				; CTargaResource::~CTargaResource
_TEXT	ENDS
; Function compile flags: /Odspy
; File D:\Metin2 Server Files\mainline\SRC_2014\Metin2Client\EterLib\TargaResource.cpp
;	COMDAT ??0CTargaResource@@QAE@PBD@Z
_TEXT	SEGMENT
_this$ = -16						; size = 4
__$EHRec$ = -12						; size = 12
_c_pszFileName$ = 8					; size = 4
??0CTargaResource@@QAE@PBD@Z PROC			; CTargaResource::CTargaResource, COMDAT
; _this$ = ecx

; 5    : {	

  00000	55		 push	 ebp
  00001	8b ec		 mov	 ebp, esp
  00003	6a ff		 push	 -1
  00005	68 00 00 00 00	 push	 __ehhandler$??0CTargaResource@@QAE@PBD@Z
  0000a	64 a1 00 00 00
	00		 mov	 eax, DWORD PTR fs:0
  00010	50		 push	 eax
  00011	51		 push	 ecx
  00012	a1 00 00 00 00	 mov	 eax, DWORD PTR ___security_cookie
  00017	33 c5		 xor	 eax, ebp
  00019	50		 push	 eax
  0001a	8d 45 f4	 lea	 eax, DWORD PTR __$EHRec$[ebp]
  0001d	64 a3 00 00 00
	00		 mov	 DWORD PTR fs:0, eax
  00023	89 4d f0	 mov	 DWORD PTR _this$[ebp], ecx

; 4    : CTargaResource::CTargaResource(const char * c_pszFileName) : CResource(c_pszFileName)

  00026	ff 75 08	 push	 DWORD PTR _c_pszFileName$[ebp]
  00029	8b 4d f0	 mov	 ecx, DWORD PTR _this$[ebp]
  0002c	e8 00 00 00 00	 call	 ??0CResource@@QAE@PBD@Z	; CResource::CResource
  00031	83 65 fc 00	 and	 DWORD PTR __$EHRec$[ebp+8], 0

; 5    : {	

  00035	8b 45 f0	 mov	 eax, DWORD PTR _this$[ebp]
  00038	c7 00 00 00 00
	00		 mov	 DWORD PTR [eax], OFFSET ??_7CTargaResource@@6B@
  0003e	8b 4d f0	 mov	 ecx, DWORD PTR _this$[ebp]
  00041	83 c1 2c	 add	 ecx, 44			; 0000002cH
  00044	e8 00 00 00 00	 call	 ??0CTGAImage@@QAE@XZ	; CTGAImage::CTGAImage

; 6    : }

  00049	83 4d fc ff	 or	 DWORD PTR __$EHRec$[ebp+8], -1
  0004d	8b 45 f0	 mov	 eax, DWORD PTR _this$[ebp]
  00050	8b 4d f4	 mov	 ecx, DWORD PTR __$EHRec$[ebp]
  00053	64 89 0d 00 00
	00 00		 mov	 DWORD PTR fs:0, ecx
  0005a	59		 pop	 ecx
  0005b	c9		 leave
  0005c	c2 04 00	 ret	 4
_TEXT	ENDS
;	COMDAT text$x
text$x	SEGMENT
__unwindfunclet$??0CTargaResource@@QAE@PBD@Z$0:
  00000	8b 4d f0	 mov	 ecx, DWORD PTR _this$[ebp]
  00003	e9 00 00 00 00	 jmp	 ??1CResource@@UAE@XZ	; CResource::~CResource
  00008	cc		 int	 3
  00009	cc		 int	 3
  0000a	cc		 int	 3
  0000b	cc		 int	 3
  0000c	cc		 int	 3
__ehhandler$??0CTargaResource@@QAE@PBD@Z:
  0000d	90		 npad	 1
  0000e	90		 npad	 1
  0000f	8b 54 24 08	 mov	 edx, DWORD PTR [esp+8]
  00013	8d 42 0c	 lea	 eax, DWORD PTR [edx+12]
  00016	8b 4a f8	 mov	 ecx, DWORD PTR [edx-8]
  00019	33 c8		 xor	 ecx, eax
  0001b	e8 00 00 00 00	 call	 @__security_check_cookie@4
  00020	b8 00 00 00 00	 mov	 eax, OFFSET __ehfuncinfo$??0CTargaResource@@QAE@PBD@Z
  00025	e9 00 00 00 00	 jmp	 ___CxxFrameHandler3
text$x	ENDS
??0CTargaResource@@QAE@PBD@Z ENDP			; CTargaResource::CTargaResource
; Function compile flags: /Odspy
; File D:\Metin2 Server Files\mainline\SRC_2014\Metin2Client\EterLib\TargaResource.cpp
;	COMDAT ?Type@CTargaResource@@SAKXZ
_TEXT	SEGMENT
__$EHRec$ = -12						; size = 12
?Type@CTargaResource@@SAKXZ PROC			; CTargaResource::Type, COMDAT

; 13   : {

  00000	55		 push	 ebp
  00001	8b ec		 mov	 ebp, esp
  00003	6a ff		 push	 -1
  00005	68 00 00 00 00	 push	 __ehhandler$?Type@CTargaResource@@SAKXZ
  0000a	64 a1 00 00 00
	00		 mov	 eax, DWORD PTR fs:0
  00010	50		 push	 eax
  00011	a1 00 00 00 00	 mov	 eax, DWORD PTR ___security_cookie
  00016	33 c5		 xor	 eax, ebp
  00018	50		 push	 eax
  00019	8d 45 f4	 lea	 eax, DWORD PTR __$EHRec$[ebp]
  0001c	64 a3 00 00 00
	00		 mov	 DWORD PTR fs:0, eax

; 14   : 	static TType s_type = StringToType("CTargaResource");

  00022	a1 00 00 00 00	 mov	 eax, DWORD PTR __tls_index
  00027	64 8b 0d 00 00
	00 00		 mov	 ecx, DWORD PTR fs:__tls_array
  0002e	8b 04 81	 mov	 eax, DWORD PTR [ecx+eax*4]
  00031	8b 0d 00 00 00
	00		 mov	 ecx, DWORD PTR ?$TSS0@?1??Type@CTargaResource@@SAKXZ@4HA
  00037	3b 88 00 00 00
	00		 cmp	 ecx, DWORD PTR __Init_thread_epoch[eax]
  0003d	7e 37		 jle	 SHORT $LN2@Type
  0003f	68 00 00 00 00	 push	 OFFSET ?$TSS0@?1??Type@CTargaResource@@SAKXZ@4HA
  00044	e8 00 00 00 00	 call	 __Init_thread_header
  00049	59		 pop	 ecx
  0004a	83 3d 00 00 00
	00 ff		 cmp	 DWORD PTR ?$TSS0@?1??Type@CTargaResource@@SAKXZ@4HA, -1
  00051	75 23		 jne	 SHORT $LN2@Type
  00053	83 65 fc 00	 and	 DWORD PTR __$EHRec$[ebp+8], 0
  00057	68 00 00 00 00	 push	 OFFSET ??_C@_0P@NDEBAEPK@CTargaResource@
  0005c	e8 00 00 00 00	 call	 ?StringToType@CResource@@SAKPBD@Z ; CResource::StringToType
  00061	59		 pop	 ecx
  00062	a3 00 00 00 00	 mov	 DWORD PTR ?s_type@?1??Type@CTargaResource@@SAKXZ@4KA, eax
  00067	83 4d fc ff	 or	 DWORD PTR __$EHRec$[ebp+8], -1
  0006b	68 00 00 00 00	 push	 OFFSET ?$TSS0@?1??Type@CTargaResource@@SAKXZ@4HA
  00070	e8 00 00 00 00	 call	 __Init_thread_footer
  00075	59		 pop	 ecx
$LN2@Type:

; 15   : 	return s_type;

  00076	a1 00 00 00 00	 mov	 eax, DWORD PTR ?s_type@?1??Type@CTargaResource@@SAKXZ@4KA

; 16   : }

  0007b	8b 4d f4	 mov	 ecx, DWORD PTR __$EHRec$[ebp]
  0007e	64 89 0d 00 00
	00 00		 mov	 DWORD PTR fs:0, ecx
  00085	59		 pop	 ecx
  00086	c9		 leave
  00087	c3		 ret	 0
_TEXT	ENDS
;	COMDAT text$x
text$x	SEGMENT
__unwindfunclet$?Type@CTargaResource@@SAKXZ$0:
  00000	68 00 00 00 00	 push	 OFFSET ?$TSS0@?1??Type@CTargaResource@@SAKXZ@4HA
  00005	e8 00 00 00 00	 call	 __Init_thread_abort
  0000a	59		 pop	 ecx
  0000b	c3		 ret	 0
  0000c	cc		 int	 3
  0000d	cc		 int	 3
  0000e	cc		 int	 3
  0000f	cc		 int	 3
  00010	cc		 int	 3
__ehhandler$?Type@CTargaResource@@SAKXZ:
  00011	90		 npad	 1
  00012	90		 npad	 1
  00013	8b 54 24 08	 mov	 edx, DWORD PTR [esp+8]
  00017	8d 42 0c	 lea	 eax, DWORD PTR [edx+12]
  0001a	8b 4a fc	 mov	 ecx, DWORD PTR [edx-4]
  0001d	33 c8		 xor	 ecx, eax
  0001f	e8 00 00 00 00	 call	 @__security_check_cookie@4
  00024	b8 00 00 00 00	 mov	 eax, OFFSET __ehfuncinfo$?Type@CTargaResource@@SAKXZ
  00029	e9 00 00 00 00	 jmp	 ___CxxFrameHandler3
text$x	ENDS
?Type@CTargaResource@@SAKXZ ENDP			; CTargaResource::Type
END
