; Listing generated by Microsoft (R) Optimizing Compiler Version 19.28.29335.0 

	TITLE	D:\Metin2 Server Files\mainline\SRC_2014\Metin2Client\EterLib\TextBar.cpp
	.686P
	.XMM
	include listing.inc
	.model	flat

INCLUDELIB LIBCMT
INCLUDELIB OLDNAMES

PUBLIC	??0CTextBar@@QAE@H_N@Z				; CTextBar::CTextBar
PUBLIC	??1CTextBar@@UAE@XZ				; CTextBar::~CTextBar
PUBLIC	?TextOutA@CTextBar@@QAEXHHPBD@Z			; CTextBar::TextOutA
PUBLIC	?SetTextColor@CTextBar@@QAEXHHH@Z		; CTextBar::SetTextColor
PUBLIC	?GetTextExtent@CTextBar@@QAEXPBDPAUtagSIZE@@@Z	; CTextBar::GetTextExtent
PUBLIC	?__SetFont@CTextBar@@IAEXH_N@Z			; CTextBar::__SetFont
PUBLIC	?OnCreate@CTextBar@@MAEXXZ			; CTextBar::OnCreate
PUBLIC	??_GCTextBar@@UAEPAXI@Z				; CTextBar::`scalar deleting destructor'
PUBLIC	??_7CTextBar@@6B@				; CTextBar::`vftable'
PUBLIC	??_R4CTextBar@@6B@				; CTextBar::`RTTI Complete Object Locator'
PUBLIC	??_R0?AVCTextBar@@@8				; CTextBar `RTTI Type Descriptor'
PUBLIC	??_R3CTextBar@@8				; CTextBar::`RTTI Class Hierarchy Descriptor'
PUBLIC	??_R2CTextBar@@8				; CTextBar::`RTTI Base Class Array'
PUBLIC	??_R1A@?0A@EA@CTextBar@@8			; CTextBar::`RTTI Base Class Descriptor at (0,-1,0,64)'
PUBLIC	??_R1A@?0A@EA@CDibBar@@8			; CDibBar::`RTTI Base Class Descriptor at (0,-1,0,64)'
PUBLIC	??_R0?AVCDibBar@@@8				; CDibBar `RTTI Type Descriptor'
PUBLIC	??_R3CDibBar@@8					; CDibBar::`RTTI Class Hierarchy Descriptor'
PUBLIC	??_R2CDibBar@@8					; CDibBar::`RTTI Base Class Array'
EXTRN	??3@YAXPAXI@Z:PROC				; operator delete
EXTRN	_memset:PROC
EXTRN	_strcpy:PROC
EXTRN	_strlen:PROC
EXTRN	__imp__CreateFontIndirectA@4:PROC
EXTRN	__imp__GetTextExtentPoint32A@16:PROC
EXTRN	__imp__SelectObject@8:PROC
EXTRN	__imp__SetTextColor@8:PROC
EXTRN	?SetBkMode@CGraphicDib@@QAEXH@Z:PROC		; CGraphicDib::SetBkMode
EXTRN	?TextOutA@CGraphicDib@@QAEXHHPBD@Z:PROC		; CGraphicDib::TextOutA
EXTRN	?GetDCHandle@CGraphicDib@@QAEPAUHDC__@@XZ:PROC	; CGraphicDib::GetDCHandle
EXTRN	??0CDibBar@@QAE@XZ:PROC				; CDibBar::CDibBar
EXTRN	??1CDibBar@@UAE@XZ:PROC				; CDibBar::~CDibBar
EXTRN	?Invalidate@CDibBar@@QAEXXZ:PROC		; CDibBar::Invalidate
EXTRN	??_ECTextBar@@UAEPAXI@Z:PROC			; CTextBar::`vector deleting destructor'
EXTRN	?GetCharsetFromCodePage@@YAHG@Z:PROC		; GetCharsetFromCodePage
EXTRN	?GetDefaultCodePage@@YAKXZ:PROC			; GetDefaultCodePage
EXTRN	?GetFontFaceFromCodePage@@YAPBDG@Z:PROC		; GetFontFaceFromCodePage
EXTRN	@__security_check_cookie@4:PROC
EXTRN	___CxxFrameHandler3:PROC
EXTRN	??_7type_info@@6B@:QWORD			; type_info::`vftable'
EXTRN	___security_cookie:DWORD
;	COMDAT ??_R2CDibBar@@8
rdata$r	SEGMENT
??_R2CDibBar@@8 DD FLAT:??_R1A@?0A@EA@CDibBar@@8	; CDibBar::`RTTI Base Class Array'
rdata$r	ENDS
;	COMDAT ??_R3CDibBar@@8
rdata$r	SEGMENT
??_R3CDibBar@@8 DD 00H					; CDibBar::`RTTI Class Hierarchy Descriptor'
	DD	00H
	DD	01H
	DD	FLAT:??_R2CDibBar@@8
rdata$r	ENDS
;	COMDAT ??_R0?AVCDibBar@@@8
data$rs	SEGMENT
??_R0?AVCDibBar@@@8 DD FLAT:??_7type_info@@6B@		; CDibBar `RTTI Type Descriptor'
	DD	00H
	DB	'.?AVCDibBar@@', 00H
data$rs	ENDS
;	COMDAT ??_R1A@?0A@EA@CDibBar@@8
rdata$r	SEGMENT
??_R1A@?0A@EA@CDibBar@@8 DD FLAT:??_R0?AVCDibBar@@@8	; CDibBar::`RTTI Base Class Descriptor at (0,-1,0,64)'
	DD	00H
	DD	00H
	DD	0ffffffffH
	DD	00H
	DD	040H
	DD	FLAT:??_R3CDibBar@@8
rdata$r	ENDS
;	COMDAT ??_R1A@?0A@EA@CTextBar@@8
rdata$r	SEGMENT
??_R1A@?0A@EA@CTextBar@@8 DD FLAT:??_R0?AVCTextBar@@@8	; CTextBar::`RTTI Base Class Descriptor at (0,-1,0,64)'
	DD	01H
	DD	00H
	DD	0ffffffffH
	DD	00H
	DD	040H
	DD	FLAT:??_R3CTextBar@@8
rdata$r	ENDS
;	COMDAT ??_R2CTextBar@@8
rdata$r	SEGMENT
??_R2CTextBar@@8 DD FLAT:??_R1A@?0A@EA@CTextBar@@8	; CTextBar::`RTTI Base Class Array'
	DD	FLAT:??_R1A@?0A@EA@CDibBar@@8
rdata$r	ENDS
;	COMDAT ??_R3CTextBar@@8
rdata$r	SEGMENT
??_R3CTextBar@@8 DD 00H					; CTextBar::`RTTI Class Hierarchy Descriptor'
	DD	00H
	DD	02H
	DD	FLAT:??_R2CTextBar@@8
rdata$r	ENDS
;	COMDAT ??_R0?AVCTextBar@@@8
data$rs	SEGMENT
??_R0?AVCTextBar@@@8 DD FLAT:??_7type_info@@6B@		; CTextBar `RTTI Type Descriptor'
	DD	00H
	DB	'.?AVCTextBar@@', 00H
data$rs	ENDS
;	COMDAT ??_R4CTextBar@@6B@
rdata$r	SEGMENT
??_R4CTextBar@@6B@ DD 00H				; CTextBar::`RTTI Complete Object Locator'
	DD	00H
	DD	00H
	DD	FLAT:??_R0?AVCTextBar@@@8
	DD	FLAT:??_R3CTextBar@@8
rdata$r	ENDS
;	COMDAT ??_7CTextBar@@6B@
CONST	SEGMENT
??_7CTextBar@@6B@ DD FLAT:??_R4CTextBar@@6B@		; CTextBar::`vftable'
	DD	FLAT:??_ECTextBar@@UAEPAXI@Z
	DD	FLAT:?OnCreate@CTextBar@@MAEXXZ
CONST	ENDS
;	COMDAT xdata$x
xdata$x	SEGMENT
__ehfuncinfo$??1CTextBar@@UAE@XZ DD 019930522H
	DD	00H
	DD	00H
	DD	2 DUP(00H)
	DD	2 DUP(00H)
	DD	00H
	DD	05H
xdata$x	ENDS
; Function compile flags: /Odspy
;	COMDAT ??_GCTextBar@@UAEPAXI@Z
_TEXT	SEGMENT
_this$ = -4						; size = 4
___flags$ = 8						; size = 4
??_GCTextBar@@UAEPAXI@Z PROC				; CTextBar::`scalar deleting destructor', COMDAT
; _this$ = ecx
  00000	55		 push	 ebp
  00001	8b ec		 mov	 ebp, esp
  00003	51		 push	 ecx
  00004	89 4d fc	 mov	 DWORD PTR _this$[ebp], ecx
  00007	8b 4d fc	 mov	 ecx, DWORD PTR _this$[ebp]
  0000a	e8 00 00 00 00	 call	 ??1CTextBar@@UAE@XZ	; CTextBar::~CTextBar
  0000f	8b 45 08	 mov	 eax, DWORD PTR ___flags$[ebp]
  00012	83 e0 01	 and	 eax, 1
  00015	74 0c		 je	 SHORT $LN2@scalar
  00017	6a 6c		 push	 108			; 0000006cH
  00019	ff 75 fc	 push	 DWORD PTR _this$[ebp]
  0001c	e8 00 00 00 00	 call	 ??3@YAXPAXI@Z		; operator delete
  00021	59		 pop	 ecx
  00022	59		 pop	 ecx
$LN2@scalar:
  00023	8b 45 fc	 mov	 eax, DWORD PTR _this$[ebp]
  00026	c9		 leave
  00027	c2 04 00	 ret	 4
??_GCTextBar@@UAEPAXI@Z ENDP				; CTextBar::`scalar deleting destructor'
_TEXT	ENDS
; Function compile flags: /Odspy
; File D:\Metin2 Server Files\mainline\SRC_2014\Metin2Client\EterLib\TextBar.cpp
;	COMDAT ?OnCreate@CTextBar@@MAEXXZ
_TEXT	SEGMENT
_this$ = -4						; size = 4
?OnCreate@CTextBar@@MAEXXZ PROC				; CTextBar::OnCreate, COMDAT
; _this$ = ecx

; 58   : {

  00000	55		 push	 ebp
  00001	8b ec		 mov	 ebp, esp
  00003	51		 push	 ecx
  00004	89 4d fc	 mov	 DWORD PTR _this$[ebp], ecx

; 59   : 	m_dib.SetBkMode(TRANSPARENT);

  00007	6a 01		 push	 1
  00009	8b 4d fc	 mov	 ecx, DWORD PTR _this$[ebp]
  0000c	83 c1 04	 add	 ecx, 4
  0000f	e8 00 00 00 00	 call	 ?SetBkMode@CGraphicDib@@QAEXH@Z ; CGraphicDib::SetBkMode

; 60   : 
; 61   : 	__SetFont(m_fontSize, m_isBold);

  00014	8b 45 fc	 mov	 eax, DWORD PTR _this$[ebp]
  00017	0f b6 40 68	 movzx	 eax, BYTE PTR [eax+104]
  0001b	50		 push	 eax
  0001c	8b 45 fc	 mov	 eax, DWORD PTR _this$[ebp]
  0001f	ff 70 64	 push	 DWORD PTR [eax+100]
  00022	8b 4d fc	 mov	 ecx, DWORD PTR _this$[ebp]
  00025	e8 00 00 00 00	 call	 ?__SetFont@CTextBar@@IAEXH_N@Z ; CTextBar::__SetFont

; 62   : }

  0002a	c9		 leave
  0002b	c3		 ret	 0
?OnCreate@CTextBar@@MAEXXZ ENDP				; CTextBar::OnCreate
_TEXT	ENDS
; Function compile flags: /Odspy
; File D:\Metin2 Server Files\mainline\SRC_2014\Metin2Client\EterLib\TextBar.cpp
;	COMDAT ?__SetFont@CTextBar@@IAEXH_N@Z
_TEXT	SEGMENT
_hdc$ = -76						; size = 4
_iCodePage$ = -72					; size = 4
_this$ = -68						; size = 4
_logFont$ = -64						; size = 60
__$ArrayPad$ = -4					; size = 4
_fontSize$ = 8						; size = 4
_isBold$ = 12						; size = 1
?__SetFont@CTextBar@@IAEXH_N@Z PROC			; CTextBar::__SetFont, COMDAT
; _this$ = ecx

; 6    : {

  00000	55		 push	 ebp
  00001	8b ec		 mov	 ebp, esp
  00003	83 ec 4c	 sub	 esp, 76			; 0000004cH
  00006	a1 00 00 00 00	 mov	 eax, DWORD PTR ___security_cookie
  0000b	33 c5		 xor	 eax, ebp
  0000d	89 45 fc	 mov	 DWORD PTR __$ArrayPad$[ebp], eax
  00010	89 4d bc	 mov	 DWORD PTR _this$[ebp], ecx

; 7    : 	int iCodePage = GetDefaultCodePage();

  00013	e8 00 00 00 00	 call	 ?GetDefaultCodePage@@YAKXZ ; GetDefaultCodePage
  00018	89 45 b8	 mov	 DWORD PTR _iCodePage$[ebp], eax

; 8    : 
; 9    : 	LOGFONT logFont;
; 10   : 
; 11   : 	memset(&logFont, 0, sizeof(LOGFONT));

  0001b	6a 3c		 push	 60			; 0000003cH
  0001d	6a 00		 push	 0
  0001f	8d 45 c0	 lea	 eax, DWORD PTR _logFont$[ebp]
  00022	50		 push	 eax
  00023	e8 00 00 00 00	 call	 _memset
  00028	83 c4 0c	 add	 esp, 12			; 0000000cH

; 12   : 
; 13   : 	logFont.lfHeight			= fontSize;

  0002b	8b 45 08	 mov	 eax, DWORD PTR _fontSize$[ebp]
  0002e	89 45 c0	 mov	 DWORD PTR _logFont$[ebp], eax

; 14   : 	logFont.lfEscapement		= 0;

  00031	83 65 c8 00	 and	 DWORD PTR _logFont$[ebp+8], 0

; 15   : 	logFont.lfOrientation		= 0;

  00035	83 65 cc 00	 and	 DWORD PTR _logFont$[ebp+12], 0

; 16   : 
; 17   : 	if (isBold)

  00039	0f b6 45 0c	 movzx	 eax, BYTE PTR _isBold$[ebp]
  0003d	85 c0		 test	 eax, eax
  0003f	74 09		 je	 SHORT $LN2@SetFont

; 18   : 		logFont.lfWeight			= FW_BOLD;

  00041	c7 45 d0 bc 02
	00 00		 mov	 DWORD PTR _logFont$[ebp+16], 700 ; 000002bcH
  00048	eb 07		 jmp	 SHORT $LN3@SetFont
$LN2@SetFont:

; 19   : 	else
; 20   : 		logFont.lfWeight			= FW_NORMAL;

  0004a	c7 45 d0 90 01
	00 00		 mov	 DWORD PTR _logFont$[ebp+16], 400 ; 00000190H
$LN3@SetFont:

; 21   : 	
; 22   : 	logFont.lfItalic			= FALSE;

  00051	c6 45 d4 00	 mov	 BYTE PTR _logFont$[ebp+20], 0

; 23   : 	logFont.lfUnderline			= FALSE;

  00055	c6 45 d5 00	 mov	 BYTE PTR _logFont$[ebp+21], 0

; 24   : 	logFont.lfStrikeOut			= FALSE;

  00059	c6 45 d6 00	 mov	 BYTE PTR _logFont$[ebp+22], 0

; 25   : 	logFont.lfCharSet			= GetCharsetFromCodePage(iCodePage);

  0005d	ff 75 b8	 push	 DWORD PTR _iCodePage$[ebp]
  00060	e8 00 00 00 00	 call	 ?GetCharsetFromCodePage@@YAHG@Z ; GetCharsetFromCodePage
  00065	59		 pop	 ecx
  00066	88 45 d7	 mov	 BYTE PTR _logFont$[ebp+23], al

; 26   : 	logFont.lfOutPrecision		= OUT_DEFAULT_PRECIS;

  00069	c6 45 d8 00	 mov	 BYTE PTR _logFont$[ebp+24], 0

; 27   : 	logFont.lfClipPrecision		= CLIP_DEFAULT_PRECIS;

  0006d	c6 45 d9 00	 mov	 BYTE PTR _logFont$[ebp+25], 0

; 28   : 	logFont.lfQuality			= ANTIALIASED_QUALITY;

  00071	c6 45 da 04	 mov	 BYTE PTR _logFont$[ebp+26], 4

; 29   : 	logFont.lfPitchAndFamily	= DEFAULT_PITCH;

  00075	c6 45 db 00	 mov	 BYTE PTR _logFont$[ebp+27], 0

; 30   : 	strcpy(logFont.lfFaceName, GetFontFaceFromCodePage(iCodePage));

  00079	ff 75 b8	 push	 DWORD PTR _iCodePage$[ebp]
  0007c	e8 00 00 00 00	 call	 ?GetFontFaceFromCodePage@@YAPBDG@Z ; GetFontFaceFromCodePage
  00081	59		 pop	 ecx
  00082	50		 push	 eax
  00083	8d 45 dc	 lea	 eax, DWORD PTR _logFont$[ebp+28]
  00086	50		 push	 eax
  00087	e8 00 00 00 00	 call	 _strcpy
  0008c	59		 pop	 ecx
  0008d	59		 pop	 ecx

; 31   : 	m_hFont = CreateFontIndirect(&logFont);

  0008e	8d 45 c0	 lea	 eax, DWORD PTR _logFont$[ebp]
  00091	50		 push	 eax
  00092	ff 15 00 00 00
	00		 call	 DWORD PTR __imp__CreateFontIndirectA@4
  00098	8b 4d bc	 mov	 ecx, DWORD PTR _this$[ebp]
  0009b	89 41 5c	 mov	 DWORD PTR [ecx+92], eax

; 32   : 
; 33   : 		
; 34   : 	HDC hdc = m_dib.GetDCHandle();

  0009e	8b 4d bc	 mov	 ecx, DWORD PTR _this$[ebp]
  000a1	83 c1 04	 add	 ecx, 4
  000a4	e8 00 00 00 00	 call	 ?GetDCHandle@CGraphicDib@@QAEPAUHDC__@@XZ ; CGraphicDib::GetDCHandle
  000a9	89 45 b4	 mov	 DWORD PTR _hdc$[ebp], eax

; 35   : 	m_hOldFont = (HFONT)SelectObject(hdc, m_hFont);

  000ac	8b 45 bc	 mov	 eax, DWORD PTR _this$[ebp]
  000af	ff 70 5c	 push	 DWORD PTR [eax+92]
  000b2	ff 75 b4	 push	 DWORD PTR _hdc$[ebp]
  000b5	ff 15 00 00 00
	00		 call	 DWORD PTR __imp__SelectObject@8
  000bb	8b 4d bc	 mov	 ecx, DWORD PTR _this$[ebp]
  000be	89 41 60	 mov	 DWORD PTR [ecx+96], eax

; 36   : 	
; 37   : }

  000c1	8b 4d fc	 mov	 ecx, DWORD PTR __$ArrayPad$[ebp]
  000c4	33 cd		 xor	 ecx, ebp
  000c6	e8 00 00 00 00	 call	 @__security_check_cookie@4
  000cb	c9		 leave
  000cc	c2 08 00	 ret	 8
?__SetFont@CTextBar@@IAEXH_N@Z ENDP			; CTextBar::__SetFont
_TEXT	ENDS
; Function compile flags: /Odspy
; File D:\Metin2 Server Files\mainline\SRC_2014\Metin2Client\EterLib\TextBar.cpp
;	COMDAT ?GetTextExtent@CTextBar@@QAEXPBDPAUtagSIZE@@@Z
_TEXT	SEGMENT
_hDC$ = -8						; size = 4
_this$ = -4						; size = 4
_c_szText$ = 8						; size = 4
_p_size$ = 12						; size = 4
?GetTextExtent@CTextBar@@QAEXPBDPAUtagSIZE@@@Z PROC	; CTextBar::GetTextExtent, COMDAT
; _this$ = ecx

; 46   : {

  00000	55		 push	 ebp
  00001	8b ec		 mov	 ebp, esp
  00003	51		 push	 ecx
  00004	51		 push	 ecx
  00005	89 4d fc	 mov	 DWORD PTR _this$[ebp], ecx

; 47   : 	HDC hDC = m_dib.GetDCHandle();

  00008	8b 4d fc	 mov	 ecx, DWORD PTR _this$[ebp]
  0000b	83 c1 04	 add	 ecx, 4
  0000e	e8 00 00 00 00	 call	 ?GetDCHandle@CGraphicDib@@QAEPAUHDC__@@XZ ; CGraphicDib::GetDCHandle
  00013	89 45 f8	 mov	 DWORD PTR _hDC$[ebp], eax

; 48   : 	GetTextExtentPoint32(hDC, c_szText, strlen(c_szText), p_size); 

  00016	ff 75 0c	 push	 DWORD PTR _p_size$[ebp]
  00019	ff 75 08	 push	 DWORD PTR _c_szText$[ebp]
  0001c	e8 00 00 00 00	 call	 _strlen
  00021	59		 pop	 ecx
  00022	50		 push	 eax
  00023	ff 75 08	 push	 DWORD PTR _c_szText$[ebp]
  00026	ff 75 f8	 push	 DWORD PTR _hDC$[ebp]
  00029	ff 15 00 00 00
	00		 call	 DWORD PTR __imp__GetTextExtentPoint32A@16

; 49   : }

  0002f	c9		 leave
  00030	c2 08 00	 ret	 8
?GetTextExtent@CTextBar@@QAEXPBDPAUtagSIZE@@@Z ENDP	; CTextBar::GetTextExtent
_TEXT	ENDS
; Function compile flags: /Odspy
; File D:\Metin2 Server Files\mainline\SRC_2014\Metin2Client\EterLib\TextBar.cpp
;	COMDAT ?SetTextColor@CTextBar@@QAEXHHH@Z
_TEXT	SEGMENT
_hDC$ = -8						; size = 4
_this$ = -4						; size = 4
_r$ = 8							; size = 4
_g$ = 12						; size = 4
_b$ = 16						; size = 4
?SetTextColor@CTextBar@@QAEXHHH@Z PROC			; CTextBar::SetTextColor, COMDAT
; _this$ = ecx

; 40   : {

  00000	55		 push	 ebp
  00001	8b ec		 mov	 ebp, esp
  00003	51		 push	 ecx
  00004	51		 push	 ecx
  00005	89 4d fc	 mov	 DWORD PTR _this$[ebp], ecx

; 41   : 	HDC hDC = m_dib.GetDCHandle();

  00008	8b 4d fc	 mov	 ecx, DWORD PTR _this$[ebp]
  0000b	83 c1 04	 add	 ecx, 4
  0000e	e8 00 00 00 00	 call	 ?GetDCHandle@CGraphicDib@@QAEPAUHDC__@@XZ ; CGraphicDib::GetDCHandle
  00013	89 45 f8	 mov	 DWORD PTR _hDC$[ebp], eax

; 42   : 	::SetTextColor(hDC, RGB(r, g, b));

  00016	0f b6 45 08	 movzx	 eax, BYTE PTR _r$[ebp]
  0001a	0f b6 4d 0c	 movzx	 ecx, BYTE PTR _g$[ebp]
  0001e	c1 e1 08	 shl	 ecx, 8
  00021	0b c1		 or	 eax, ecx
  00023	0f b6 4d 10	 movzx	 ecx, BYTE PTR _b$[ebp]
  00027	c1 e1 10	 shl	 ecx, 16			; 00000010H
  0002a	0b c1		 or	 eax, ecx
  0002c	50		 push	 eax
  0002d	ff 75 f8	 push	 DWORD PTR _hDC$[ebp]
  00030	ff 15 00 00 00
	00		 call	 DWORD PTR __imp__SetTextColor@8

; 43   : }

  00036	c9		 leave
  00037	c2 0c 00	 ret	 12			; 0000000cH
?SetTextColor@CTextBar@@QAEXHHH@Z ENDP			; CTextBar::SetTextColor
_TEXT	ENDS
; Function compile flags: /Odspy
; File D:\Metin2 Server Files\mainline\SRC_2014\Metin2Client\EterLib\TextBar.cpp
;	COMDAT ?TextOutA@CTextBar@@QAEXHHPBD@Z
_TEXT	SEGMENT
_this$ = -4						; size = 4
_ix$ = 8						; size = 4
_iy$ = 12						; size = 4
_c_szText$ = 16						; size = 4
?TextOutA@CTextBar@@QAEXHHPBD@Z PROC			; CTextBar::TextOutA, COMDAT
; _this$ = ecx

; 52   : {

  00000	55		 push	 ebp
  00001	8b ec		 mov	 ebp, esp
  00003	51		 push	 ecx
  00004	89 4d fc	 mov	 DWORD PTR _this$[ebp], ecx

; 53   : 	m_dib.TextOut(ix, iy, c_szText);

  00007	ff 75 10	 push	 DWORD PTR _c_szText$[ebp]
  0000a	ff 75 0c	 push	 DWORD PTR _iy$[ebp]
  0000d	ff 75 08	 push	 DWORD PTR _ix$[ebp]
  00010	8b 4d fc	 mov	 ecx, DWORD PTR _this$[ebp]
  00013	83 c1 04	 add	 ecx, 4
  00016	e8 00 00 00 00	 call	 ?TextOutA@CGraphicDib@@QAEXHHPBD@Z ; CGraphicDib::TextOutA

; 54   : 	Invalidate();

  0001b	8b 4d fc	 mov	 ecx, DWORD PTR _this$[ebp]
  0001e	e8 00 00 00 00	 call	 ?Invalidate@CDibBar@@QAEXXZ ; CDibBar::Invalidate

; 55   : }

  00023	c9		 leave
  00024	c2 0c 00	 ret	 12			; 0000000cH
?TextOutA@CTextBar@@QAEXHHPBD@Z ENDP			; CTextBar::TextOutA
_TEXT	ENDS
; Function compile flags: /Odspy
; File D:\Metin2 Server Files\mainline\SRC_2014\Metin2Client\EterLib\TextBar.cpp
;	COMDAT ??1CTextBar@@UAE@XZ
_TEXT	SEGMENT
_hdc$ = -20						; size = 4
_this$ = -16						; size = 4
__$EHRec$ = -12						; size = 12
??1CTextBar@@UAE@XZ PROC				; CTextBar::~CTextBar, COMDAT
; _this$ = ecx

; 73   : {

  00000	55		 push	 ebp
  00001	8b ec		 mov	 ebp, esp
  00003	6a ff		 push	 -1
  00005	68 00 00 00 00	 push	 __ehhandler$??1CTextBar@@UAE@XZ
  0000a	64 a1 00 00 00
	00		 mov	 eax, DWORD PTR fs:0
  00010	50		 push	 eax
  00011	51		 push	 ecx
  00012	51		 push	 ecx
  00013	a1 00 00 00 00	 mov	 eax, DWORD PTR ___security_cookie
  00018	33 c5		 xor	 eax, ebp
  0001a	50		 push	 eax
  0001b	8d 45 f4	 lea	 eax, DWORD PTR __$EHRec$[ebp]
  0001e	64 a3 00 00 00
	00		 mov	 DWORD PTR fs:0, eax
  00024	89 4d f0	 mov	 DWORD PTR _this$[ebp], ecx
  00027	8b 45 f0	 mov	 eax, DWORD PTR _this$[ebp]
  0002a	c7 00 00 00 00
	00		 mov	 DWORD PTR [eax], OFFSET ??_7CTextBar@@6B@

; 74   : 	HDC hdc = m_dib.GetDCHandle();

  00030	8b 4d f0	 mov	 ecx, DWORD PTR _this$[ebp]
  00033	83 c1 04	 add	 ecx, 4
  00036	e8 00 00 00 00	 call	 ?GetDCHandle@CGraphicDib@@QAEPAUHDC__@@XZ ; CGraphicDib::GetDCHandle
  0003b	89 45 ec	 mov	 DWORD PTR _hdc$[ebp], eax

; 75   : 	SelectObject(hdc, m_hOldFont);

  0003e	8b 45 f0	 mov	 eax, DWORD PTR _this$[ebp]
  00041	ff 70 60	 push	 DWORD PTR [eax+96]
  00044	ff 75 ec	 push	 DWORD PTR _hdc$[ebp]
  00047	ff 15 00 00 00
	00		 call	 DWORD PTR __imp__SelectObject@8

; 76   : }

  0004d	8b 4d f0	 mov	 ecx, DWORD PTR _this$[ebp]
  00050	e8 00 00 00 00	 call	 ??1CDibBar@@UAE@XZ	; CDibBar::~CDibBar
  00055	8b 4d f4	 mov	 ecx, DWORD PTR __$EHRec$[ebp]
  00058	64 89 0d 00 00
	00 00		 mov	 DWORD PTR fs:0, ecx
  0005f	59		 pop	 ecx
  00060	c9		 leave
  00061	c3		 ret	 0
  00062	cc		 int	 3
  00063	cc		 int	 3
  00064	cc		 int	 3
  00065	cc		 int	 3
  00066	cc		 int	 3
_TEXT	ENDS
;	COMDAT text$x
text$x	SEGMENT
__ehhandler$??1CTextBar@@UAE@XZ:
  00000	90		 npad	 1
  00001	90		 npad	 1
  00002	8b 54 24 08	 mov	 edx, DWORD PTR [esp+8]
  00006	8d 42 0c	 lea	 eax, DWORD PTR [edx+12]
  00009	8b 4a f4	 mov	 ecx, DWORD PTR [edx-12]
  0000c	33 c8		 xor	 ecx, eax
  0000e	e8 00 00 00 00	 call	 @__security_check_cookie@4
  00013	b8 00 00 00 00	 mov	 eax, OFFSET __ehfuncinfo$??1CTextBar@@UAE@XZ
  00018	e9 00 00 00 00	 jmp	 ___CxxFrameHandler3
text$x	ENDS
??1CTextBar@@UAE@XZ ENDP				; CTextBar::~CTextBar
; Function compile flags: /Odspy
; File D:\Metin2 Server Files\mainline\SRC_2014\Metin2Client\EterLib\TextBar.cpp
;	COMDAT ??0CTextBar@@QAE@H_N@Z
_TEXT	SEGMENT
_this$ = -4						; size = 4
_fontSize$ = 8						; size = 4
_isBold$ = 12						; size = 1
??0CTextBar@@QAE@H_N@Z PROC				; CTextBar::CTextBar, COMDAT
; _this$ = ecx

; 65   : {

  00000	55		 push	 ebp
  00001	8b ec		 mov	 ebp, esp
  00003	51		 push	 ecx
  00004	89 4d fc	 mov	 DWORD PTR _this$[ebp], ecx
  00007	8b 4d fc	 mov	 ecx, DWORD PTR _this$[ebp]
  0000a	e8 00 00 00 00	 call	 ??0CDibBar@@QAE@XZ	; CDibBar::CDibBar
  0000f	8b 45 fc	 mov	 eax, DWORD PTR _this$[ebp]
  00012	c7 00 00 00 00
	00		 mov	 DWORD PTR [eax], OFFSET ??_7CTextBar@@6B@

; 66   : 	m_hOldFont = NULL;	

  00018	8b 45 fc	 mov	 eax, DWORD PTR _this$[ebp]
  0001b	83 60 60 00	 and	 DWORD PTR [eax+96], 0

; 67   : 	m_fontSize = fontSize;

  0001f	8b 45 fc	 mov	 eax, DWORD PTR _this$[ebp]
  00022	8b 4d 08	 mov	 ecx, DWORD PTR _fontSize$[ebp]
  00025	89 48 64	 mov	 DWORD PTR [eax+100], ecx

; 68   : 	m_isBold = isBold;

  00028	8b 45 fc	 mov	 eax, DWORD PTR _this$[ebp]
  0002b	8a 4d 0c	 mov	 cl, BYTE PTR _isBold$[ebp]
  0002e	88 48 68	 mov	 BYTE PTR [eax+104], cl

; 69   : 	
; 70   : }

  00031	8b 45 fc	 mov	 eax, DWORD PTR _this$[ebp]
  00034	c9		 leave
  00035	c2 08 00	 ret	 8
??0CTextBar@@QAE@H_N@Z ENDP				; CTextBar::CTextBar
_TEXT	ENDS
END
