; Listing generated by Microsoft (R) Optimizing Compiler Version 19.28.29335.0 

	TITLE	D:\Metin2 Server Files\mainline\SRC_2014\Metin2Client\EterLib\Util.cpp
	.686P
	.XMM
	include listing.inc
	.model	flat

INCLUDELIB LIBCMT
INCLUDELIB OLDNAMES

CONST	SEGMENT
?piecewise_construct@std@@3Upiecewise_construct_t@1@B	ORG $+1 ; std::piecewise_construct
CONST	ENDS
PUBLIC	___local_stdio_printf_options
PUBLIC	_fprintf
PUBLIC	??0exception@std@@QAE@ABV01@@Z			; std::exception::exception
PUBLIC	?what@exception@std@@UBEPBDXZ			; std::exception::what
PUBLIC	??_Gexception@std@@UAEPAXI@Z			; std::exception::`scalar deleting destructor'
PUBLIC	??0bad_alloc@std@@QAE@ABV01@@Z			; std::bad_alloc::bad_alloc
PUBLIC	??_Gbad_alloc@std@@UAEPAXI@Z			; std::bad_alloc::`scalar deleting destructor'
PUBLIC	??0bad_array_new_length@std@@QAE@XZ		; std::bad_array_new_length::bad_array_new_length
PUBLIC	??1bad_array_new_length@std@@UAE@XZ		; std::bad_array_new_length::~bad_array_new_length
PUBLIC	??0bad_array_new_length@std@@QAE@ABV01@@Z	; std::bad_array_new_length::bad_array_new_length
PUBLIC	??_Gbad_array_new_length@std@@UAEPAXI@Z		; std::bad_array_new_length::`scalar deleting destructor'
PUBLIC	?_Throw_bad_array_new_length@std@@YAXXZ		; std::_Throw_bad_array_new_length
PUBLIC	?_Adjust_manually_vector_aligned@std@@YAXAAPAXAAI@Z ; std::_Adjust_manually_vector_aligned
PUBLIC	?_Xlen_string@std@@YAXXZ			; std::_Xlen_string
PUBLIC	?_Myptr@?$_String_val@U?$_Simple_types@D@std@@@std@@QAEPADXZ ; std::_String_val<std::_Simple_types<char> >::_Myptr
PUBLIC	?_Myptr@?$_String_val@U?$_Simple_types@D@std@@@std@@QBEPBDXZ ; std::_String_val<std::_Simple_types<char> >::_Myptr
PUBLIC	??0?$basic_string@DU?$char_traits@D@std@@V?$allocator@D@2@@std@@QAE@ABV01@@Z ; std::basic_string<char,std::char_traits<char>,std::allocator<char> >::basic_string<char,std::char_traits<char>,std::allocator<char> >
PUBLIC	??0?$basic_string@DU?$char_traits@D@std@@V?$allocator@D@2@@std@@QAE@XZ ; std::basic_string<char,std::char_traits<char>,std::allocator<char> >::basic_string<char,std::char_traits<char>,std::allocator<char> >
PUBLIC	??0?$basic_string@DU?$char_traits@D@std@@V?$allocator@D@2@@std@@QAE@QBD@Z ; std::basic_string<char,std::char_traits<char>,std::allocator<char> >::basic_string<char,std::char_traits<char>,std::allocator<char> >
PUBLIC	??0?$basic_string@DU?$char_traits@D@std@@V?$allocator@D@2@@std@@QAE@$$QAV01@@Z ; std::basic_string<char,std::char_traits<char>,std::allocator<char> >::basic_string<char,std::char_traits<char>,std::allocator<char> >
PUBLIC	?_Move_assign@?$basic_string@DU?$char_traits@D@std@@V?$allocator@D@2@@std@@AAEXAAV12@U_Equal_allocators@2@@Z ; std::basic_string<char,std::char_traits<char>,std::allocator<char> >::_Move_assign
PUBLIC	?_Construct_lv_contents@?$basic_string@DU?$char_traits@D@std@@V?$allocator@D@2@@std@@AAEXABV12@@Z ; std::basic_string<char,std::char_traits<char>,std::allocator<char> >::_Construct_lv_contents
PUBLIC	??1?$basic_string@DU?$char_traits@D@std@@V?$allocator@D@2@@std@@QAE@XZ ; std::basic_string<char,std::char_traits<char>,std::allocator<char> >::~basic_string<char,std::char_traits<char>,std::allocator<char> >
PUBLIC	?_Copy_assign@?$basic_string@DU?$char_traits@D@std@@V?$allocator@D@2@@std@@AAEXABV12@U?$integral_constant@_N$0A@@2@@Z ; std::basic_string<char,std::char_traits<char>,std::allocator<char> >::_Copy_assign
PUBLIC	?assign@?$basic_string@DU?$char_traits@D@std@@V?$allocator@D@2@@std@@QAEAAV12@QBDI@Z ; std::basic_string<char,std::char_traits<char>,std::allocator<char> >::assign
PUBLIC	?c_str@?$basic_string@DU?$char_traits@D@std@@V?$allocator@D@2@@std@@QBEPBDXZ ; std::basic_string<char,std::char_traits<char>,std::allocator<char> >::c_str
PUBLIC	?max_size@?$basic_string@DU?$char_traits@D@std@@V?$allocator@D@2@@std@@QBEIXZ ; std::basic_string<char,std::char_traits<char>,std::allocator<char> >::max_size
PUBLIC	?compare@?$basic_string@DU?$char_traits@D@std@@V?$allocator@D@2@@std@@QBEHABV12@@Z ; std::basic_string<char,std::char_traits<char>,std::allocator<char> >::compare
PUBLIC	?compare@?$basic_string@DU?$char_traits@D@std@@V?$allocator@D@2@@std@@QBEHQBD@Z ; std::basic_string<char,std::char_traits<char>,std::allocator<char> >::compare
PUBLIC	?_Calculate_growth@?$basic_string@DU?$char_traits@D@std@@V?$allocator@D@2@@std@@ABEII@Z ; std::basic_string<char,std::char_traits<char>,std::allocator<char> >::_Calculate_growth
PUBLIC	?_Tidy_init@?$basic_string@DU?$char_traits@D@std@@V?$allocator@D@2@@std@@AAEXXZ ; std::basic_string<char,std::char_traits<char>,std::allocator<char> >::_Tidy_init
PUBLIC	?_Tidy_deallocate@?$basic_string@DU?$char_traits@D@std@@V?$allocator@D@2@@std@@AAEXXZ ; std::basic_string<char,std::char_traits<char>,std::allocator<char> >::_Tidy_deallocate
PUBLIC	??1?$_Compressed_pair@V?$allocator@D@std@@V?$_String_val@U?$_Simple_types@D@std@@@2@$00@std@@QAE@XZ ; std::_Compressed_pair<std::allocator<char>,std::_String_val<std::_Simple_types<char> >,1>::~_Compressed_pair<std::allocator<char>,std::_String_val<std::_Simple_types<char> >,1>
PUBLIC	?_Throw_tree_length_error@std@@YAXXZ		; std::_Throw_tree_length_error
PUBLIC	??$_Destroy_in_place@PAD@std@@YAXAAPAD@Z	; std::_Destroy_in_place<char *>
PUBLIC	??$_Reallocate_for@V<lambda_9366063389c5f42a00a5088cf24e69de>@@PBD@?$basic_string@DU?$char_traits@D@std@@V?$allocator@D@2@@std@@AAEAAV01@IV<lambda_9366063389c5f42a00a5088cf24e69de>@@PBD@Z ; std::basic_string<char,std::char_traits<char>,std::allocator<char> >::_Reallocate_for<<lambda_9366063389c5f42a00a5088cf24e69de>,char const *>
PUBLIC	??$_Construct_in_place@PADABQAD@std@@YAXAAPADABQAD@Z ; std::_Construct_in_place<char *,char * const &>
PUBLIC	??$_Pocma@V?$allocator@D@std@@@std@@YAXAAV?$allocator@D@0@0@Z ; std::_Pocma<std::allocator<char> >
PUBLIC	??$_Deallocate@$07$0A@@std@@YAXPAXI@Z		; std::_Deallocate<8,0>
PUBLIC	??$_Allocate@$07U_Default_allocate_traits@std@@$0A@@std@@YAPAXI@Z ; std::_Allocate<8,std::_Default_allocate_traits,0>
PUBLIC	??$_Allocate_manually_vector_aligned@U_Default_allocate_traits@std@@@std@@YAPAXI@Z ; std::_Allocate_manually_vector_aligned<std::_Default_allocate_traits>
PUBLIC	?deallocate@?$allocator@V?$basic_string@DU?$char_traits@D@std@@V?$allocator@D@2@@std@@@std@@QAEXQAV?$basic_string@DU?$char_traits@D@std@@V?$allocator@D@2@@2@I@Z ; std::allocator<std::basic_string<char,std::char_traits<char>,std::allocator<char> > >::deallocate
PUBLIC	??0?$vector@V?$basic_string@DU?$char_traits@D@std@@V?$allocator@D@2@@std@@V?$allocator@V?$basic_string@DU?$char_traits@D@std@@V?$allocator@D@2@@std@@@2@@std@@QAE@ABV01@@Z ; std::vector<std::basic_string<char,std::char_traits<char>,std::allocator<char> >,std::allocator<std::basic_string<char,std::char_traits<char>,std::allocator<char> > > >::vector<std::basic_string<char,std::char_traits<char>,std::allocator<char> >,std::allocator<std::basic_string<char,std::char_traits<char>,std::allocator<char> > > >
PUBLIC	??0?$vector@V?$basic_string@DU?$char_traits@D@std@@V?$allocator@D@2@@std@@V?$allocator@V?$basic_string@DU?$char_traits@D@std@@V?$allocator@D@2@@std@@@2@@std@@QAE@$$QAV01@@Z ; std::vector<std::basic_string<char,std::char_traits<char>,std::allocator<char> >,std::allocator<std::basic_string<char,std::char_traits<char>,std::allocator<char> > > >::vector<std::basic_string<char,std::char_traits<char>,std::allocator<char> >,std::allocator<std::basic_string<char,std::char_traits<char>,std::allocator<char> > > >
PUBLIC	??1?$vector@V?$basic_string@DU?$char_traits@D@std@@V?$allocator@D@2@@std@@V?$allocator@V?$basic_string@DU?$char_traits@D@std@@V?$allocator@D@2@@std@@@2@@std@@QAE@XZ ; std::vector<std::basic_string<char,std::char_traits<char>,std::allocator<char> >,std::allocator<std::basic_string<char,std::char_traits<char>,std::allocator<char> > > >::~vector<std::basic_string<char,std::char_traits<char>,std::allocator<char> >,std::allocator<std::basic_string<char,std::char_traits<char>,std::allocator<char> > > >
PUBLIC	?erase@?$vector@V?$basic_string@DU?$char_traits@D@std@@V?$allocator@D@2@@std@@V?$allocator@V?$basic_string@DU?$char_traits@D@std@@V?$allocator@D@2@@std@@@2@@std@@QAE?AV?$_Vector_iterator@V?$_Vector_val@U?$_Simple_types@V?$basic_string@DU?$char_traits@D@std@@V?$allocator@D@2@@std@@@std@@@std@@@2@V?$_Vector_const_iterator@V?$_Vector_val@U?$_Simple_types@V?$basic_string@DU?$char_traits@D@std@@V?$allocator@D@2@@std@@@std@@@std@@@2@@Z ; std::vector<std::basic_string<char,std::char_traits<char>,std::allocator<char> >,std::allocator<std::basic_string<char,std::char_traits<char>,std::allocator<char> > > >::erase
PUBLIC	?clear@?$vector@V?$basic_string@DU?$char_traits@D@std@@V?$allocator@D@2@@std@@V?$allocator@V?$basic_string@DU?$char_traits@D@std@@V?$allocator@D@2@@std@@@2@@std@@QAEXXZ ; std::vector<std::basic_string<char,std::char_traits<char>,std::allocator<char> >,std::allocator<std::basic_string<char,std::char_traits<char>,std::allocator<char> > > >::clear
PUBLIC	?_Destroy@?$vector@V?$basic_string@DU?$char_traits@D@std@@V?$allocator@D@2@@std@@V?$allocator@V?$basic_string@DU?$char_traits@D@std@@V?$allocator@D@2@@std@@@2@@std@@AAEXPAV?$basic_string@DU?$char_traits@D@std@@V?$allocator@D@2@@2@0@Z ; std::vector<std::basic_string<char,std::char_traits<char>,std::allocator<char> >,std::allocator<std::basic_string<char,std::char_traits<char>,std::allocator<char> > > >::_Destroy
PUBLIC	?_Calculate_growth@?$vector@V?$basic_string@DU?$char_traits@D@std@@V?$allocator@D@2@@std@@V?$allocator@V?$basic_string@DU?$char_traits@D@std@@V?$allocator@D@2@@std@@@2@@std@@ABEII@Z ; std::vector<std::basic_string<char,std::char_traits<char>,std::allocator<char> >,std::allocator<std::basic_string<char,std::char_traits<char>,std::allocator<char> > > >::_Calculate_growth
PUBLIC	?_Buy_raw@?$vector@V?$basic_string@DU?$char_traits@D@std@@V?$allocator@D@2@@std@@V?$allocator@V?$basic_string@DU?$char_traits@D@std@@V?$allocator@D@2@@std@@@2@@std@@AAEXI@Z ; std::vector<std::basic_string<char,std::char_traits<char>,std::allocator<char> >,std::allocator<std::basic_string<char,std::char_traits<char>,std::allocator<char> > > >::_Buy_raw
PUBLIC	?_Change_array@?$vector@V?$basic_string@DU?$char_traits@D@std@@V?$allocator@D@2@@std@@V?$allocator@V?$basic_string@DU?$char_traits@D@std@@V?$allocator@D@2@@std@@@2@@std@@AAEXQAV?$basic_string@DU?$char_traits@D@std@@V?$allocator@D@2@@2@II@Z ; std::vector<std::basic_string<char,std::char_traits<char>,std::allocator<char> >,std::allocator<std::basic_string<char,std::char_traits<char>,std::allocator<char> > > >::_Change_array
PUBLIC	?_Tidy@?$vector@V?$basic_string@DU?$char_traits@D@std@@V?$allocator@D@2@@std@@V?$allocator@V?$basic_string@DU?$char_traits@D@std@@V?$allocator@D@2@@std@@@2@@std@@AAEXXZ ; std::vector<std::basic_string<char,std::char_traits<char>,std::allocator<char> >,std::allocator<std::basic_string<char,std::char_traits<char>,std::allocator<char> > > >::_Tidy
PUBLIC	?_Xlength@?$vector@V?$basic_string@DU?$char_traits@D@std@@V?$allocator@D@2@@std@@V?$allocator@V?$basic_string@DU?$char_traits@D@std@@V?$allocator@D@2@@std@@@2@@std@@CAXXZ ; std::vector<std::basic_string<char,std::char_traits<char>,std::allocator<char> >,std::allocator<std::basic_string<char,std::char_traits<char>,std::allocator<char> > > >::_Xlength
PUBLIC	??0?$_Vector_val@U?$_Simple_types@V?$basic_string@DU?$char_traits@D@std@@V?$allocator@D@2@@std@@@std@@@std@@QAE@XZ ; std::_Vector_val<std::_Simple_types<std::basic_string<char,std::char_traits<char>,std::allocator<char> > > >::_Vector_val<std::_Simple_types<std::basic_string<char,std::char_traits<char>,std::allocator<char> > > >
PUBLIC	?PrintfTabs@@YAXPAU_iobuf@@HPBDZZ		; PrintfTabs
PUBLIC	?LoadTextData@@YA_NPBDAAV?$map@V?$basic_string@DU?$char_traits@D@std@@V?$allocator@D@2@@std@@V12@U?$less@V?$basic_string@DU?$char_traits@D@std@@V?$allocator@D@2@@std@@@2@V?$allocator@U?$pair@$$CBV?$basic_string@DU?$char_traits@D@std@@V?$allocator@D@2@@std@@V12@@std@@@2@@std@@@Z ; LoadTextData
PUBLIC	?LoadMultipleTextData@@YA_NPBDAAV?$map@V?$basic_string@DU?$char_traits@D@std@@V?$allocator@D@2@@std@@V?$vector@V?$basic_string@DU?$char_traits@D@std@@V?$allocator@D@2@@std@@V?$allocator@V?$basic_string@DU?$char_traits@D@std@@V?$allocator@D@2@@std@@@2@@2@U?$less@V?$basic_string@DU?$char_traits@D@std@@V?$allocator@D@2@@std@@@2@V?$allocator@U?$pair@$$CBV?$basic_string@DU?$char_traits@D@std@@V?$allocator@D@2@@std@@V?$vector@V?$basic_string@DU?$char_traits@D@std@@V?$allocator@D@2@@std@@V?$allocator@V?$basic_string@DU?$char_traits@D@std@@V?$allocator@D@2@@std@@@2@@2@@std@@@2@@std@@@Z ; LoadMultipleTextData
PUBLIC	?TokenToVector@@YA?AUD3DXVECTOR3@@AAV?$vector@V?$basic_string@DU?$char_traits@D@std@@V?$allocator@D@2@@std@@V?$allocator@V?$basic_string@DU?$char_traits@D@std@@V?$allocator@D@2@@std@@@2@@std@@@Z ; TokenToVector
PUBLIC	?TokenToColor@@YA?AUD3DXCOLOR@@AAV?$vector@V?$basic_string@DU?$char_traits@D@std@@V?$allocator@D@2@@std@@V?$allocator@V?$basic_string@DU?$char_traits@D@std@@V?$allocator@D@2@@std@@@2@@std@@@Z ; TokenToColor
PUBLIC	?EnumFontFamExProc@@YGHPBUtagLOGFONTA@@PBUtagTEXTMETRICA@@KJ@Z ; EnumFontFamExProc
PUBLIC	?GetCharsetFromCodePage@@YAHG@Z			; GetCharsetFromCodePage
PUBLIC	?GetFontFaceFromCodePageNT@@YAPBDG@Z		; GetFontFaceFromCodePageNT
PUBLIC	?GetFontFaceFromCodePage9x@@YAPBDG@Z		; GetFontFaceFromCodePage9x
PUBLIC	?GetDefaultCodePage@@YAKXZ			; GetDefaultCodePage
PUBLIC	?GetDefaultFontFace@@YAPBDXZ			; GetDefaultFontFace
PUBLIC	?GetFontFaceFromCodePage@@YAPBDG@Z		; GetFontFaceFromCodePage
PUBLIC	?SetDefaultFontFace@@YAXPBD@Z			; SetDefaultFontFace
PUBLIC	?SetDefaultCodePage@@YA_NK@Z			; SetDefaultCodePage
PUBLIC	?base64_decode@@YAXPBDPAD@Z			; base64_decode
PUBLIC	?max_size@?$_Tree@V?$_Tmap_traits@V?$basic_string@DU?$char_traits@D@std@@V?$allocator@D@2@@std@@V12@U?$less@V?$basic_string@DU?$char_traits@D@std@@V?$allocator@D@2@@std@@@2@V?$allocator@U?$pair@$$CBV?$basic_string@DU?$char_traits@D@std@@V?$allocator@D@2@@std@@V12@@std@@@2@$0A@@std@@@std@@QBEIXZ ; std::_Tree<std::_Tmap_traits<std::basic_string<char,std::char_traits<char>,std::allocator<char> >,std::basic_string<char,std::char_traits<char>,std::allocator<char> >,std::less<std::basic_string<char,std::char_traits<char>,std::allocator<char> > >,std::allocator<std::pair<std::basic_string<char,std::char_traits<char>,std::allocator<char> > const ,std::basic_string<char,std::char_traits<char>,std::allocator<char> > > >,0> >::max_size
PUBLIC	?_Check_grow_by_1@?$_Tree@V?$_Tmap_traits@V?$basic_string@DU?$char_traits@D@std@@V?$allocator@D@2@@std@@V12@U?$less@V?$basic_string@DU?$char_traits@D@std@@V?$allocator@D@2@@std@@@2@V?$allocator@U?$pair@$$CBV?$basic_string@DU?$char_traits@D@std@@V?$allocator@D@2@@std@@V12@@std@@@2@$0A@@std@@@std@@IAEXXZ ; std::_Tree<std::_Tmap_traits<std::basic_string<char,std::char_traits<char>,std::allocator<char> >,std::basic_string<char,std::char_traits<char>,std::allocator<char> >,std::less<std::basic_string<char,std::char_traits<char>,std::allocator<char> > >,std::allocator<std::pair<std::basic_string<char,std::char_traits<char>,std::allocator<char> > const ,std::basic_string<char,std::char_traits<char>,std::allocator<char> > > >,0> >::_Check_grow_by_1
PUBLIC	?_Lrotate@?$_Tree_val@U?$_Tree_simple_types@U?$pair@$$CBV?$basic_string@DU?$char_traits@D@std@@V?$allocator@D@2@@std@@V12@@std@@@std@@@std@@QAEXPAU?$_Tree_node@U?$pair@$$CBV?$basic_string@DU?$char_traits@D@std@@V?$allocator@D@2@@std@@V12@@std@@PAX@2@@Z ; std::_Tree_val<std::_Tree_simple_types<std::pair<std::basic_string<char,std::char_traits<char>,std::allocator<char> > const ,std::basic_string<char,std::char_traits<char>,std::allocator<char> > > > >::_Lrotate
PUBLIC	?_Rrotate@?$_Tree_val@U?$_Tree_simple_types@U?$pair@$$CBV?$basic_string@DU?$char_traits@D@std@@V?$allocator@D@2@@std@@V12@@std@@@std@@@std@@QAEXPAU?$_Tree_node@U?$pair@$$CBV?$basic_string@DU?$char_traits@D@std@@V?$allocator@D@2@@std@@V12@@std@@PAX@2@@Z ; std::_Tree_val<std::_Tree_simple_types<std::pair<std::basic_string<char,std::char_traits<char>,std::allocator<char> > const ,std::basic_string<char,std::char_traits<char>,std::allocator<char> > > > >::_Rrotate
PUBLIC	?_Insert_node@?$_Tree_val@U?$_Tree_simple_types@U?$pair@$$CBV?$basic_string@DU?$char_traits@D@std@@V?$allocator@D@2@@std@@V12@@std@@@std@@@std@@QAEPAU?$_Tree_node@U?$pair@$$CBV?$basic_string@DU?$char_traits@D@std@@V?$allocator@D@2@@std@@V12@@std@@PAX@2@U?$_Tree_id@PAU?$_Tree_node@U?$pair@$$CBV?$basic_string@DU?$char_traits@D@std@@V?$allocator@D@2@@std@@V12@@std@@PAX@std@@@2@QAU32@@Z ; std::_Tree_val<std::_Tree_simple_types<std::pair<std::basic_string<char,std::char_traits<char>,std::allocator<char> > const ,std::basic_string<char,std::char_traits<char>,std::allocator<char> > > > >::_Insert_node
PUBLIC	?max_size@?$_Tree@V?$_Tmap_traits@V?$basic_string@DU?$char_traits@D@std@@V?$allocator@D@2@@std@@V?$vector@V?$basic_string@DU?$char_traits@D@std@@V?$allocator@D@2@@std@@V?$allocator@V?$basic_string@DU?$char_traits@D@std@@V?$allocator@D@2@@std@@@2@@2@U?$less@V?$basic_string@DU?$char_traits@D@std@@V?$allocator@D@2@@std@@@2@V?$allocator@U?$pair@$$CBV?$basic_string@DU?$char_traits@D@std@@V?$allocator@D@2@@std@@V?$vector@V?$basic_string@DU?$char_traits@D@std@@V?$allocator@D@2@@std@@V?$allocator@V?$basic_string@DU?$char_traits@D@std@@V?$allocator@D@2@@std@@@2@@2@@std@@@2@$0A@@std@@@std@@QBEIXZ ; std::_Tree<std::_Tmap_traits<std::basic_string<char,std::char_traits<char>,std::allocator<char> >,std::vector<std::basic_string<char,std::char_traits<char>,std::allocator<char> >,std::allocator<std::basic_string<char,std::char_traits<char>,std::allocator<char> > > >,std::less<std::basic_string<char,std::char_traits<char>,std::allocator<char> > >,std::allocator<std::pair<std::basic_string<char,std::char_traits<char>,std::allocator<char> > const ,std::vector<std::basic_string<char,std::char_traits<char>,std::allocator<char> >,std::allocator<std::basic_string<char,std::char_traits<char>,std::allocator<char> > > > > >,0> >::max_size
PUBLIC	?_Check_grow_by_1@?$_Tree@V?$_Tmap_traits@V?$basic_string@DU?$char_traits@D@std@@V?$allocator@D@2@@std@@V?$vector@V?$basic_string@DU?$char_traits@D@std@@V?$allocator@D@2@@std@@V?$allocator@V?$basic_string@DU?$char_traits@D@std@@V?$allocator@D@2@@std@@@2@@2@U?$less@V?$basic_string@DU?$char_traits@D@std@@V?$allocator@D@2@@std@@@2@V?$allocator@U?$pair@$$CBV?$basic_string@DU?$char_traits@D@std@@V?$allocator@D@2@@std@@V?$vector@V?$basic_string@DU?$char_traits@D@std@@V?$allocator@D@2@@std@@V?$allocator@V?$basic_string@DU?$char_traits@D@std@@V?$allocator@D@2@@std@@@2@@2@@std@@@2@$0A@@std@@@std@@IAEXXZ ; std::_Tree<std::_Tmap_traits<std::basic_string<char,std::char_traits<char>,std::allocator<char> >,std::vector<std::basic_string<char,std::char_traits<char>,std::allocator<char> >,std::allocator<std::basic_string<char,std::char_traits<char>,std::allocator<char> > > >,std::less<std::basic_string<char,std::char_traits<char>,std::allocator<char> > >,std::allocator<std::pair<std::basic_string<char,std::char_traits<char>,std::allocator<char> > const ,std::vector<std::basic_string<char,std::char_traits<char>,std::allocator<char> >,std::allocator<std::basic_string<char,std::char_traits<char>,std::allocator<char> > > > > >,0> >::_Check_grow_by_1
PUBLIC	?_Lrotate@?$_Tree_val@U?$_Tree_simple_types@U?$pair@$$CBV?$basic_string@DU?$char_traits@D@std@@V?$allocator@D@2@@std@@V?$vector@V?$basic_string@DU?$char_traits@D@std@@V?$allocator@D@2@@std@@V?$allocator@V?$basic_string@DU?$char_traits@D@std@@V?$allocator@D@2@@std@@@2@@2@@std@@@std@@@std@@QAEXPAU?$_Tree_node@U?$pair@$$CBV?$basic_string@DU?$char_traits@D@std@@V?$allocator@D@2@@std@@V?$vector@V?$basic_string@DU?$char_traits@D@std@@V?$allocator@D@2@@std@@V?$allocator@V?$basic_string@DU?$char_traits@D@std@@V?$allocator@D@2@@std@@@2@@2@@std@@PAX@2@@Z ; std::_Tree_val<std::_Tree_simple_types<std::pair<std::basic_string<char,std::char_traits<char>,std::allocator<char> > const ,std::vector<std::basic_string<char,std::char_traits<char>,std::allocator<char> >,std::allocator<std::basic_string<char,std::char_traits<char>,std::allocator<char> > > > > > >::_Lrotate
PUBLIC	?_Rrotate@?$_Tree_val@U?$_Tree_simple_types@U?$pair@$$CBV?$basic_string@DU?$char_traits@D@std@@V?$allocator@D@2@@std@@V?$vector@V?$basic_string@DU?$char_traits@D@std@@V?$allocator@D@2@@std@@V?$allocator@V?$basic_string@DU?$char_traits@D@std@@V?$allocator@D@2@@std@@@2@@2@@std@@@std@@@std@@QAEXPAU?$_Tree_node@U?$pair@$$CBV?$basic_string@DU?$char_traits@D@std@@V?$allocator@D@2@@std@@V?$vector@V?$basic_string@DU?$char_traits@D@std@@V?$allocator@D@2@@std@@V?$allocator@V?$basic_string@DU?$char_traits@D@std@@V?$allocator@D@2@@std@@@2@@2@@std@@PAX@2@@Z ; std::_Tree_val<std::_Tree_simple_types<std::pair<std::basic_string<char,std::char_traits<char>,std::allocator<char> > const ,std::vector<std::basic_string<char,std::char_traits<char>,std::allocator<char> >,std::allocator<std::basic_string<char,std::char_traits<char>,std::allocator<char> > > > > > >::_Rrotate
PUBLIC	?_Insert_node@?$_Tree_val@U?$_Tree_simple_types@U?$pair@$$CBV?$basic_string@DU?$char_traits@D@std@@V?$allocator@D@2@@std@@V?$vector@V?$basic_string@DU?$char_traits@D@std@@V?$allocator@D@2@@std@@V?$allocator@V?$basic_string@DU?$char_traits@D@std@@V?$allocator@D@2@@std@@@2@@2@@std@@@std@@@std@@QAEPAU?$_Tree_node@U?$pair@$$CBV?$basic_string@DU?$char_traits@D@std@@V?$allocator@D@2@@std@@V?$vector@V?$basic_string@DU?$char_traits@D@std@@V?$allocator@D@2@@std@@V?$allocator@V?$basic_string@DU?$char_traits@D@std@@V?$allocator@D@2@@std@@@2@@2@@std@@PAX@2@U?$_Tree_id@PAU?$_Tree_node@U?$pair@$$CBV?$basic_string@DU?$char_traits@D@std@@V?$allocator@D@2@@std@@V?$vector@V?$basic_string@DU?$char_traits@D@std@@V?$allocator@D@2@@std@@V?$allocator@V?$basic_string@DU?$char_traits@D@std@@V?$allocator@D@2@@std@@@2@@2@@std@@PAX@std@@@2@QAU32@@Z ; std::_Tree_val<std::_Tree_simple_types<std::pair<std::basic_string<char,std::char_traits<char>,std::allocator<char> > const ,std::vector<std::basic_string<char,std::char_traits<char>,std::allocator<char> >,std::allocator<std::basic_string<char,std::char_traits<char>,std::allocator<char> > > > > > >::_Insert_node
PUBLIC	??1?$pair@$$CBV?$basic_string@DU?$char_traits@D@std@@V?$allocator@D@2@@std@@V?$vector@V?$basic_string@DU?$char_traits@D@std@@V?$allocator@D@2@@std@@V?$allocator@V?$basic_string@DU?$char_traits@D@std@@V?$allocator@D@2@@std@@@2@@2@@std@@QAE@XZ ; std::pair<std::basic_string<char,std::char_traits<char>,std::allocator<char> > const ,std::vector<std::basic_string<char,std::char_traits<char>,std::allocator<char> >,std::allocator<std::basic_string<char,std::char_traits<char>,std::allocator<char> > > > >::~pair<std::basic_string<char,std::char_traits<char>,std::allocator<char> > const ,std::vector<std::basic_string<char,std::char_traits<char>,std::allocator<char> >,std::allocator<std::basic_string<char,std::char_traits<char>,std::allocator<char> > > > >
PUBLIC	??_G?$pair@$$CBV?$basic_string@DU?$char_traits@D@std@@V?$allocator@D@2@@std@@V?$vector@V?$basic_string@DU?$char_traits@D@std@@V?$allocator@D@2@@std@@V?$allocator@V?$basic_string@DU?$char_traits@D@std@@V?$allocator@D@2@@std@@@2@@2@@std@@QAEPAXI@Z ; std::pair<std::basic_string<char,std::char_traits<char>,std::allocator<char> > const ,std::vector<std::basic_string<char,std::char_traits<char>,std::allocator<char> >,std::allocator<std::basic_string<char,std::char_traits<char>,std::allocator<char> > > > >::`scalar deleting destructor'
PUBLIC	??$insert@$0A@$0A@@?$_Tree@V?$_Tmap_traits@V?$basic_string@DU?$char_traits@D@std@@V?$allocator@D@2@@std@@V?$vector@V?$basic_string@DU?$char_traits@D@std@@V?$allocator@D@2@@std@@V?$allocator@V?$basic_string@DU?$char_traits@D@std@@V?$allocator@D@2@@std@@@2@@2@U?$less@V?$basic_string@DU?$char_traits@D@std@@V?$allocator@D@2@@std@@@2@V?$allocator@U?$pair@$$CBV?$basic_string@DU?$char_traits@D@std@@V?$allocator@D@2@@std@@V?$vector@V?$basic_string@DU?$char_traits@D@std@@V?$allocator@D@2@@std@@V?$allocator@V?$basic_string@DU?$char_traits@D@std@@V?$allocator@D@2@@std@@@2@@2@@std@@@2@$0A@@std@@@std@@QAE?AU?$pair@V?$_Tree_iterator@V?$_Tree_val@U?$_Tree_simple_types@U?$pair@$$CBV?$basic_string@DU?$char_traits@D@std@@V?$allocator@D@2@@std@@V?$vector@V?$basic_string@DU?$char_traits@D@std@@V?$allocator@D@2@@std@@V?$allocator@V?$basic_string@DU?$char_traits@D@std@@V?$allocator@D@2@@std@@@2@@2@@std@@@std@@@std@@@std@@_N@1@$$QAU?$pair@$$CBV?$basic_string@DU?$char_traits@D@std@@V?$allocator@D@2@@std@@V?$vector@V?$basic_string@DU?$char_traits@D@std@@V?$allocator@D@2@@std@@V?$allocator@V?$basic_string@DU?$char_traits@D@std@@V?$allocator@D@2@@std@@@2@@2@@1@@Z ; std::_Tree<std::_Tmap_traits<std::basic_string<char,std::char_traits<char>,std::allocator<char> >,std::vector<std::basic_string<char,std::char_traits<char>,std::allocator<char> >,std::allocator<std::basic_string<char,std::char_traits<char>,std::allocator<char> > > >,std::less<std::basic_string<char,std::char_traits<char>,std::allocator<char> > >,std::allocator<std::pair<std::basic_string<char,std::char_traits<char>,std::allocator<char> > const ,std::vector<std::basic_string<char,std::char_traits<char>,std::allocator<char> >,std::allocator<std::basic_string<char,std::char_traits<char>,std::allocator<char> > > > > >,0> >::insert<0,0>
PUBLIC	?__base64_get@@YAHH@Z				; __base64_get
PUBLIC	?__strcat1@@YAXPADH@Z				; __strcat1
PUBLIC	??$_Try_emplace@ABV?$basic_string@DU?$char_traits@D@std@@V?$allocator@D@2@@std@@$$V@?$map@V?$basic_string@DU?$char_traits@D@std@@V?$allocator@D@2@@std@@V12@U?$less@V?$basic_string@DU?$char_traits@D@std@@V?$allocator@D@2@@std@@@2@V?$allocator@U?$pair@$$CBV?$basic_string@DU?$char_traits@D@std@@V?$allocator@D@2@@std@@V12@@std@@@2@@std@@AAE?AU?$pair@PAU?$_Tree_node@U?$pair@$$CBV?$basic_string@DU?$char_traits@D@std@@V?$allocator@D@2@@std@@V12@@std@@PAX@std@@_N@1@ABV?$basic_string@DU?$char_traits@D@std@@V?$allocator@D@2@@1@@Z ; std::map<std::basic_string<char,std::char_traits<char>,std::allocator<char> >,std::basic_string<char,std::char_traits<char>,std::allocator<char> >,std::less<std::basic_string<char,std::char_traits<char>,std::allocator<char> > >,std::allocator<std::pair<std::basic_string<char,std::char_traits<char>,std::allocator<char> > const ,std::basic_string<char,std::char_traits<char>,std::allocator<char> > > > >::_Try_emplace<std::basic_string<char,std::char_traits<char>,std::allocator<char> > const &>
PUBLIC	??_G?$pair@$$CBV?$basic_string@DU?$char_traits@D@std@@V?$allocator@D@2@@std@@V12@@std@@QAEPAXI@Z ; std::pair<std::basic_string<char,std::char_traits<char>,std::allocator<char> > const ,std::basic_string<char,std::char_traits<char>,std::allocator<char> > >::`scalar deleting destructor'
PUBLIC	??$_Move_unchecked@PAV?$basic_string@DU?$char_traits@D@std@@V?$allocator@D@2@@std@@PAV12@@std@@YAPAV?$basic_string@DU?$char_traits@D@std@@V?$allocator@D@2@@0@PAV10@00@Z ; std::_Move_unchecked<std::basic_string<char,std::char_traits<char>,std::allocator<char> > *,std::basic_string<char,std::char_traits<char>,std::allocator<char> > *>
PUBLIC	??$emplace_back@ABV?$basic_string@DU?$char_traits@D@std@@V?$allocator@D@2@@std@@@?$vector@V?$basic_string@DU?$char_traits@D@std@@V?$allocator@D@2@@std@@V?$allocator@V?$basic_string@DU?$char_traits@D@std@@V?$allocator@D@2@@std@@@2@@std@@QAEXABV?$basic_string@DU?$char_traits@D@std@@V?$allocator@D@2@@1@@Z ; std::vector<std::basic_string<char,std::char_traits<char>,std::allocator<char> >,std::allocator<std::basic_string<char,std::char_traits<char>,std::allocator<char> > > >::emplace_back<std::basic_string<char,std::char_traits<char>,std::allocator<char> > const &>
PUBLIC	??$_Emplace_back_with_unused_capacity@ABV?$basic_string@DU?$char_traits@D@std@@V?$allocator@D@2@@std@@@?$vector@V?$basic_string@DU?$char_traits@D@std@@V?$allocator@D@2@@std@@V?$allocator@V?$basic_string@DU?$char_traits@D@std@@V?$allocator@D@2@@std@@@2@@std@@AAEXABV?$basic_string@DU?$char_traits@D@std@@V?$allocator@D@2@@1@@Z ; std::vector<std::basic_string<char,std::char_traits<char>,std::allocator<char> >,std::allocator<std::basic_string<char,std::char_traits<char>,std::allocator<char> > > >::_Emplace_back_with_unused_capacity<std::basic_string<char,std::char_traits<char>,std::allocator<char> > const &>
PUBLIC	??$_Emplace_reallocate@ABV?$basic_string@DU?$char_traits@D@std@@V?$allocator@D@2@@std@@@?$vector@V?$basic_string@DU?$char_traits@D@std@@V?$allocator@D@2@@std@@V?$allocator@V?$basic_string@DU?$char_traits@D@std@@V?$allocator@D@2@@std@@@2@@std@@QAEPAV?$basic_string@DU?$char_traits@D@std@@V?$allocator@D@2@@1@QAV21@ABV21@@Z ; std::vector<std::basic_string<char,std::char_traits<char>,std::allocator<char> >,std::allocator<std::basic_string<char,std::char_traits<char>,std::allocator<char> > > >::_Emplace_reallocate<std::basic_string<char,std::char_traits<char>,std::allocator<char> > const &>
PUBLIC	??$_Destroy_range@V?$allocator@V?$basic_string@DU?$char_traits@D@std@@V?$allocator@D@2@@std@@@std@@@std@@YAXPAV?$basic_string@DU?$char_traits@D@std@@V?$allocator@D@2@@0@QAV10@AAV?$allocator@V?$basic_string@DU?$char_traits@D@std@@V?$allocator@D@2@@std@@@0@@Z ; std::_Destroy_range<std::allocator<std::basic_string<char,std::char_traits<char>,std::allocator<char> > > >
PUBLIC	??$_Pocca@V?$allocator@D@std@@@std@@YAXAAV?$allocator@D@0@ABV10@@Z ; std::_Pocca<std::allocator<char> >
PUBLIC	??$_Emplace@U?$pair@$$CBV?$basic_string@DU?$char_traits@D@std@@V?$allocator@D@2@@std@@V?$vector@V?$basic_string@DU?$char_traits@D@std@@V?$allocator@D@2@@std@@V?$allocator@V?$basic_string@DU?$char_traits@D@std@@V?$allocator@D@2@@std@@@2@@2@@std@@@?$_Tree@V?$_Tmap_traits@V?$basic_string@DU?$char_traits@D@std@@V?$allocator@D@2@@std@@V?$vector@V?$basic_string@DU?$char_traits@D@std@@V?$allocator@D@2@@std@@V?$allocator@V?$basic_string@DU?$char_traits@D@std@@V?$allocator@D@2@@std@@@2@@2@U?$less@V?$basic_string@DU?$char_traits@D@std@@V?$allocator@D@2@@std@@@2@V?$allocator@U?$pair@$$CBV?$basic_string@DU?$char_traits@D@std@@V?$allocator@D@2@@std@@V?$vector@V?$basic_string@DU?$char_traits@D@std@@V?$allocator@D@2@@std@@V?$allocator@V?$basic_string@DU?$char_traits@D@std@@V?$allocator@D@2@@std@@@2@@2@@std@@@2@$0A@@std@@@std@@IAE?AU?$pair@PAU?$_Tree_node@U?$pair@$$CBV?$basic_string@DU?$char_traits@D@std@@V?$allocator@D@2@@std@@V?$vector@V?$basic_string@DU?$char_traits@D@std@@V?$allocator@D@2@@std@@V?$allocator@V?$basic_string@DU?$char_traits@D@std@@V?$allocator@D@2@@std@@@2@@2@@std@@PAX@std@@_N@1@$$QAU?$pair@$$CBV?$basic_string@DU?$char_traits@D@std@@V?$allocator@D@2@@std@@V?$vector@V?$basic_string@DU?$char_traits@D@std@@V?$allocator@D@2@@std@@V?$allocator@V?$basic_string@DU?$char_traits@D@std@@V?$allocator@D@2@@std@@@2@@2@@1@@Z ; std::_Tree<std::_Tmap_traits<std::basic_string<char,std::char_traits<char>,std::allocator<char> >,std::vector<std::basic_string<char,std::char_traits<char>,std::allocator<char> >,std::allocator<std::basic_string<char,std::char_traits<char>,std::allocator<char> > > >,std::less<std::basic_string<char,std::char_traits<char>,std::allocator<char> > >,std::allocator<std::pair<std::basic_string<char,std::char_traits<char>,std::allocator<char> > const ,std::vector<std::basic_string<char,std::char_traits<char>,std::allocator<char> >,std::allocator<std::basic_string<char,std::char_traits<char>,std::allocator<char> > > > > >,0> >::_Emplace<std::pair<std::basic_string<char,std::char_traits<char>,std::allocator<char> > const ,std::vector<std::basic_string<char,std::char_traits<char>,std::allocator<char> >,std::allocator<std::basic_string<char,std::char_traits<char>,std::allocator<char> > > > > >
PUBLIC	??$_Find_lower_bound@V?$basic_string@DU?$char_traits@D@std@@V?$allocator@D@2@@std@@@?$_Tree@V?$_Tmap_traits@V?$basic_string@DU?$char_traits@D@std@@V?$allocator@D@2@@std@@V12@U?$less@V?$basic_string@DU?$char_traits@D@std@@V?$allocator@D@2@@std@@@2@V?$allocator@U?$pair@$$CBV?$basic_string@DU?$char_traits@D@std@@V?$allocator@D@2@@std@@V12@@std@@@2@$0A@@std@@@std@@IBE?AU?$_Tree_find_result@PAU?$_Tree_node@U?$pair@$$CBV?$basic_string@DU?$char_traits@D@std@@V?$allocator@D@2@@std@@V12@@std@@PAX@std@@@1@ABV?$basic_string@DU?$char_traits@D@std@@V?$allocator@D@2@@1@@Z ; std::_Tree<std::_Tmap_traits<std::basic_string<char,std::char_traits<char>,std::allocator<char> >,std::basic_string<char,std::char_traits<char>,std::allocator<char> >,std::less<std::basic_string<char,std::char_traits<char>,std::allocator<char> > >,std::allocator<std::pair<std::basic_string<char,std::char_traits<char>,std::allocator<char> > const ,std::basic_string<char,std::char_traits<char>,std::allocator<char> > > >,0> >::_Find_lower_bound<std::basic_string<char,std::char_traits<char>,std::allocator<char> > >
PUBLIC	??$_Lower_bound_duplicate@V?$basic_string@DU?$char_traits@D@std@@V?$allocator@D@2@@std@@@?$_Tree@V?$_Tmap_traits@V?$basic_string@DU?$char_traits@D@std@@V?$allocator@D@2@@std@@V12@U?$less@V?$basic_string@DU?$char_traits@D@std@@V?$allocator@D@2@@std@@@2@V?$allocator@U?$pair@$$CBV?$basic_string@DU?$char_traits@D@std@@V?$allocator@D@2@@std@@V12@@std@@@2@$0A@@std@@@std@@IBE_NQAU?$_Tree_node@U?$pair@$$CBV?$basic_string@DU?$char_traits@D@std@@V?$allocator@D@2@@std@@V12@@std@@PAX@1@ABV?$basic_string@DU?$char_traits@D@std@@V?$allocator@D@2@@1@@Z ; std::_Tree<std::_Tmap_traits<std::basic_string<char,std::char_traits<char>,std::allocator<char> >,std::basic_string<char,std::char_traits<char>,std::allocator<char> >,std::less<std::basic_string<char,std::char_traits<char>,std::allocator<char> > >,std::allocator<std::pair<std::basic_string<char,std::char_traits<char>,std::allocator<char> > const ,std::basic_string<char,std::char_traits<char>,std::allocator<char> > > >,0> >::_Lower_bound_duplicate<std::basic_string<char,std::char_traits<char>,std::allocator<char> > >
PUBLIC	?_Allocate@?$_Alloc_construct_ptr@V?$allocator@U?$_Tree_node@U?$pair@$$CBV?$basic_string@DU?$char_traits@D@std@@V?$allocator@D@2@@std@@V12@@std@@PAX@std@@@std@@@std@@QAEXXZ ; std::_Alloc_construct_ptr<std::allocator<std::_Tree_node<std::pair<std::basic_string<char,std::char_traits<char>,std::allocator<char> > const ,std::basic_string<char,std::char_traits<char>,std::allocator<char> > >,void *> > >::_Allocate
PUBLIC	??1?$_Alloc_construct_ptr@V?$allocator@U?$_Tree_node@U?$pair@$$CBV?$basic_string@DU?$char_traits@D@std@@V?$allocator@D@2@@std@@V12@@std@@PAX@std@@@std@@@std@@QAE@XZ ; std::_Alloc_construct_ptr<std::allocator<std::_Tree_node<std::pair<std::basic_string<char,std::char_traits<char>,std::allocator<char> > const ,std::basic_string<char,std::char_traits<char>,std::allocator<char> > >,void *> > >::~_Alloc_construct_ptr<std::allocator<std::_Tree_node<std::pair<std::basic_string<char,std::char_traits<char>,std::allocator<char> > const ,std::basic_string<char,std::char_traits<char>,std::allocator<char> > >,void *> > >
PUBLIC	??1?$_Tree_temp_node_alloc@V?$allocator@U?$_Tree_node@U?$pair@$$CBV?$basic_string@DU?$char_traits@D@std@@V?$allocator@D@2@@std@@V12@@std@@PAX@std@@@std@@@std@@QAE@XZ ; std::_Tree_temp_node_alloc<std::allocator<std::_Tree_node<std::pair<std::basic_string<char,std::char_traits<char>,std::allocator<char> > const ,std::basic_string<char,std::char_traits<char>,std::allocator<char> > >,void *> > >::~_Tree_temp_node_alloc<std::allocator<std::_Tree_node<std::pair<std::basic_string<char,std::char_traits<char>,std::allocator<char> > const ,std::basic_string<char,std::char_traits<char>,std::allocator<char> > >,void *> > >
PUBLIC	??1?$_Tree_temp_node@V?$allocator@U?$_Tree_node@U?$pair@$$CBV?$basic_string@DU?$char_traits@D@std@@V?$allocator@D@2@@std@@V12@@std@@PAX@std@@@std@@@std@@QAE@XZ ; std::_Tree_temp_node<std::allocator<std::_Tree_node<std::pair<std::basic_string<char,std::char_traits<char>,std::allocator<char> > const ,std::basic_string<char,std::char_traits<char>,std::allocator<char> > >,void *> > >::~_Tree_temp_node<std::allocator<std::_Tree_node<std::pair<std::basic_string<char,std::char_traits<char>,std::allocator<char> > const ,std::basic_string<char,std::char_traits<char>,std::allocator<char> > >,void *> > >
PUBLIC	??$?0ABUpiecewise_construct_t@std@@V?$tuple@ABV?$basic_string@DU?$char_traits@D@std@@V?$allocator@D@2@@std@@@1@V?$tuple@$$V@1@@?$_Tree_temp_node@V?$allocator@U?$_Tree_node@U?$pair@$$CBV?$basic_string@DU?$char_traits@D@std@@V?$allocator@D@2@@std@@V12@@std@@PAX@std@@@std@@@std@@QAE@AAV?$allocator@U?$_Tree_node@U?$pair@$$CBV?$basic_string@DU?$char_traits@D@std@@V?$allocator@D@2@@std@@V12@@std@@PAX@std@@@1@PAU?$_Tree_node@U?$pair@$$CBV?$basic_string@DU?$char_traits@D@std@@V?$allocator@D@2@@std@@V12@@std@@PAX@1@ABUpiecewise_construct_t@1@$$QAV?$tuple@ABV?$basic_string@DU?$char_traits@D@std@@V?$allocator@D@2@@std@@@1@$$QAV?$tuple@$$V@1@@Z ; std::_Tree_temp_node<std::allocator<std::_Tree_node<std::pair<std::basic_string<char,std::char_traits<char>,std::allocator<char> > const ,std::basic_string<char,std::char_traits<char>,std::allocator<char> > >,void *> > >::_Tree_temp_node<std::allocator<std::_Tree_node<std::pair<std::basic_string<char,std::char_traits<char>,std::allocator<char> > const ,std::basic_string<char,std::char_traits<char>,std::allocator<char> > >,void *> > ><std::piecewise_construct_t const &,std::tuple<std::basic_string<char,std::char_traits<char>,std::allocator<char> > const &>,std::tuple<> >
PUBLIC	??$_Destroy_in_place@PAU?$_Tree_node@U?$pair@$$CBV?$basic_string@DU?$char_traits@D@std@@V?$allocator@D@2@@std@@V12@@std@@PAX@std@@@std@@YAXAAPAU?$_Tree_node@U?$pair@$$CBV?$basic_string@DU?$char_traits@D@std@@V?$allocator@D@2@@std@@V12@@std@@PAX@0@@Z ; std::_Destroy_in_place<std::_Tree_node<std::pair<std::basic_string<char,std::char_traits<char>,std::allocator<char> > const ,std::basic_string<char,std::char_traits<char>,std::allocator<char> > >,void *> *>
PUBLIC	??$_Uninitialized_move@PAV?$basic_string@DU?$char_traits@D@std@@V?$allocator@D@2@@std@@V?$allocator@V?$basic_string@DU?$char_traits@D@std@@V?$allocator@D@2@@std@@@2@@std@@YAPAV?$basic_string@DU?$char_traits@D@std@@V?$allocator@D@2@@0@QAV10@0PAV10@AAV?$allocator@V?$basic_string@DU?$char_traits@D@std@@V?$allocator@D@2@@std@@@0@@Z ; std::_Uninitialized_move<std::basic_string<char,std::char_traits<char>,std::allocator<char> > *,std::allocator<std::basic_string<char,std::char_traits<char>,std::allocator<char> > > >
PUBLIC	??1?$_Tidy_guard@V?$vector@V?$basic_string@DU?$char_traits@D@std@@V?$allocator@D@2@@std@@V?$allocator@V?$basic_string@DU?$char_traits@D@std@@V?$allocator@D@2@@std@@@2@@std@@@std@@QAE@XZ ; std::_Tidy_guard<std::vector<std::basic_string<char,std::char_traits<char>,std::allocator<char> >,std::allocator<std::basic_string<char,std::char_traits<char>,std::allocator<char> > > > >::~_Tidy_guard<std::vector<std::basic_string<char,std::char_traits<char>,std::allocator<char> >,std::allocator<std::basic_string<char,std::char_traits<char>,std::allocator<char> > > > >
PUBLIC	??$_Find_lower_bound@V?$basic_string@DU?$char_traits@D@std@@V?$allocator@D@2@@std@@@?$_Tree@V?$_Tmap_traits@V?$basic_string@DU?$char_traits@D@std@@V?$allocator@D@2@@std@@V?$vector@V?$basic_string@DU?$char_traits@D@std@@V?$allocator@D@2@@std@@V?$allocator@V?$basic_string@DU?$char_traits@D@std@@V?$allocator@D@2@@std@@@2@@2@U?$less@V?$basic_string@DU?$char_traits@D@std@@V?$allocator@D@2@@std@@@2@V?$allocator@U?$pair@$$CBV?$basic_string@DU?$char_traits@D@std@@V?$allocator@D@2@@std@@V?$vector@V?$basic_string@DU?$char_traits@D@std@@V?$allocator@D@2@@std@@V?$allocator@V?$basic_string@DU?$char_traits@D@std@@V?$allocator@D@2@@std@@@2@@2@@std@@@2@$0A@@std@@@std@@IBE?AU?$_Tree_find_result@PAU?$_Tree_node@U?$pair@$$CBV?$basic_string@DU?$char_traits@D@std@@V?$allocator@D@2@@std@@V?$vector@V?$basic_string@DU?$char_traits@D@std@@V?$allocator@D@2@@std@@V?$allocator@V?$basic_string@DU?$char_traits@D@std@@V?$allocator@D@2@@std@@@2@@2@@std@@PAX@std@@@1@ABV?$basic_string@DU?$char_traits@D@std@@V?$allocator@D@2@@1@@Z ; std::_Tree<std::_Tmap_traits<std::basic_string<char,std::char_traits<char>,std::allocator<char> >,std::vector<std::basic_string<char,std::char_traits<char>,std::allocator<char> >,std::allocator<std::basic_string<char,std::char_traits<char>,std::allocator<char> > > >,std::less<std::basic_string<char,std::char_traits<char>,std::allocator<char> > >,std::allocator<std::pair<std::basic_string<char,std::char_traits<char>,std::allocator<char> > const ,std::vector<std::basic_string<char,std::char_traits<char>,std::allocator<char> >,std::allocator<std::basic_string<char,std::char_traits<char>,std::allocator<char> > > > > >,0> >::_Find_lower_bound<std::basic_string<char,std::char_traits<char>,std::allocator<char> > >
PUBLIC	??$_Lower_bound_duplicate@V?$basic_string@DU?$char_traits@D@std@@V?$allocator@D@2@@std@@@?$_Tree@V?$_Tmap_traits@V?$basic_string@DU?$char_traits@D@std@@V?$allocator@D@2@@std@@V?$vector@V?$basic_string@DU?$char_traits@D@std@@V?$allocator@D@2@@std@@V?$allocator@V?$basic_string@DU?$char_traits@D@std@@V?$allocator@D@2@@std@@@2@@2@U?$less@V?$basic_string@DU?$char_traits@D@std@@V?$allocator@D@2@@std@@@2@V?$allocator@U?$pair@$$CBV?$basic_string@DU?$char_traits@D@std@@V?$allocator@D@2@@std@@V?$vector@V?$basic_string@DU?$char_traits@D@std@@V?$allocator@D@2@@std@@V?$allocator@V?$basic_string@DU?$char_traits@D@std@@V?$allocator@D@2@@std@@@2@@2@@std@@@2@$0A@@std@@@std@@IBE_NQAU?$_Tree_node@U?$pair@$$CBV?$basic_string@DU?$char_traits@D@std@@V?$allocator@D@2@@std@@V?$vector@V?$basic_string@DU?$char_traits@D@std@@V?$allocator@D@2@@std@@V?$allocator@V?$basic_string@DU?$char_traits@D@std@@V?$allocator@D@2@@std@@@2@@2@@std@@PAX@1@ABV?$basic_string@DU?$char_traits@D@std@@V?$allocator@D@2@@1@@Z ; std::_Tree<std::_Tmap_traits<std::basic_string<char,std::char_traits<char>,std::allocator<char> >,std::vector<std::basic_string<char,std::char_traits<char>,std::allocator<char> >,std::allocator<std::basic_string<char,std::char_traits<char>,std::allocator<char> > > >,std::less<std::basic_string<char,std::char_traits<char>,std::allocator<char> > >,std::allocator<std::pair<std::basic_string<char,std::char_traits<char>,std::allocator<char> > const ,std::vector<std::basic_string<char,std::char_traits<char>,std::allocator<char> >,std::allocator<std::basic_string<char,std::char_traits<char>,std::allocator<char> > > > > >,0> >::_Lower_bound_duplicate<std::basic_string<char,std::char_traits<char>,std::allocator<char> > >
PUBLIC	?_Allocate@?$_Alloc_construct_ptr@V?$allocator@U?$_Tree_node@U?$pair@$$CBV?$basic_string@DU?$char_traits@D@std@@V?$allocator@D@2@@std@@V?$vector@V?$basic_string@DU?$char_traits@D@std@@V?$allocator@D@2@@std@@V?$allocator@V?$basic_string@DU?$char_traits@D@std@@V?$allocator@D@2@@std@@@2@@2@@std@@PAX@std@@@std@@@std@@QAEXXZ ; std::_Alloc_construct_ptr<std::allocator<std::_Tree_node<std::pair<std::basic_string<char,std::char_traits<char>,std::allocator<char> > const ,std::vector<std::basic_string<char,std::char_traits<char>,std::allocator<char> >,std::allocator<std::basic_string<char,std::char_traits<char>,std::allocator<char> > > > >,void *> > >::_Allocate
PUBLIC	??1?$_Alloc_construct_ptr@V?$allocator@U?$_Tree_node@U?$pair@$$CBV?$basic_string@DU?$char_traits@D@std@@V?$allocator@D@2@@std@@V?$vector@V?$basic_string@DU?$char_traits@D@std@@V?$allocator@D@2@@std@@V?$allocator@V?$basic_string@DU?$char_traits@D@std@@V?$allocator@D@2@@std@@@2@@2@@std@@PAX@std@@@std@@@std@@QAE@XZ ; std::_Alloc_construct_ptr<std::allocator<std::_Tree_node<std::pair<std::basic_string<char,std::char_traits<char>,std::allocator<char> > const ,std::vector<std::basic_string<char,std::char_traits<char>,std::allocator<char> >,std::allocator<std::basic_string<char,std::char_traits<char>,std::allocator<char> > > > >,void *> > >::~_Alloc_construct_ptr<std::allocator<std::_Tree_node<std::pair<std::basic_string<char,std::char_traits<char>,std::allocator<char> > const ,std::vector<std::basic_string<char,std::char_traits<char>,std::allocator<char> >,std::allocator<std::basic_string<char,std::char_traits<char>,std::allocator<char> > > > >,void *> > >
PUBLIC	??1?$_Tree_temp_node_alloc@V?$allocator@U?$_Tree_node@U?$pair@$$CBV?$basic_string@DU?$char_traits@D@std@@V?$allocator@D@2@@std@@V?$vector@V?$basic_string@DU?$char_traits@D@std@@V?$allocator@D@2@@std@@V?$allocator@V?$basic_string@DU?$char_traits@D@std@@V?$allocator@D@2@@std@@@2@@2@@std@@PAX@std@@@std@@@std@@QAE@XZ ; std::_Tree_temp_node_alloc<std::allocator<std::_Tree_node<std::pair<std::basic_string<char,std::char_traits<char>,std::allocator<char> > const ,std::vector<std::basic_string<char,std::char_traits<char>,std::allocator<char> >,std::allocator<std::basic_string<char,std::char_traits<char>,std::allocator<char> > > > >,void *> > >::~_Tree_temp_node_alloc<std::allocator<std::_Tree_node<std::pair<std::basic_string<char,std::char_traits<char>,std::allocator<char> > const ,std::vector<std::basic_string<char,std::char_traits<char>,std::allocator<char> >,std::allocator<std::basic_string<char,std::char_traits<char>,std::allocator<char> > > > >,void *> > >
PUBLIC	??1?$_Tree_temp_node@V?$allocator@U?$_Tree_node@U?$pair@$$CBV?$basic_string@DU?$char_traits@D@std@@V?$allocator@D@2@@std@@V?$vector@V?$basic_string@DU?$char_traits@D@std@@V?$allocator@D@2@@std@@V?$allocator@V?$basic_string@DU?$char_traits@D@std@@V?$allocator@D@2@@std@@@2@@2@@std@@PAX@std@@@std@@@std@@QAE@XZ ; std::_Tree_temp_node<std::allocator<std::_Tree_node<std::pair<std::basic_string<char,std::char_traits<char>,std::allocator<char> > const ,std::vector<std::basic_string<char,std::char_traits<char>,std::allocator<char> >,std::allocator<std::basic_string<char,std::char_traits<char>,std::allocator<char> > > > >,void *> > >::~_Tree_temp_node<std::allocator<std::_Tree_node<std::pair<std::basic_string<char,std::char_traits<char>,std::allocator<char> > const ,std::vector<std::basic_string<char,std::char_traits<char>,std::allocator<char> >,std::allocator<std::basic_string<char,std::char_traits<char>,std::allocator<char> > > > >,void *> > >
PUBLIC	??$?0U?$pair@$$CBV?$basic_string@DU?$char_traits@D@std@@V?$allocator@D@2@@std@@V?$vector@V?$basic_string@DU?$char_traits@D@std@@V?$allocator@D@2@@std@@V?$allocator@V?$basic_string@DU?$char_traits@D@std@@V?$allocator@D@2@@std@@@2@@2@@std@@@?$_Tree_temp_node@V?$allocator@U?$_Tree_node@U?$pair@$$CBV?$basic_string@DU?$char_traits@D@std@@V?$allocator@D@2@@std@@V?$vector@V?$basic_string@DU?$char_traits@D@std@@V?$allocator@D@2@@std@@V?$allocator@V?$basic_string@DU?$char_traits@D@std@@V?$allocator@D@2@@std@@@2@@2@@std@@PAX@std@@@std@@@std@@QAE@AAV?$allocator@U?$_Tree_node@U?$pair@$$CBV?$basic_string@DU?$char_traits@D@std@@V?$allocator@D@2@@std@@V?$vector@V?$basic_string@DU?$char_traits@D@std@@V?$allocator@D@2@@std@@V?$allocator@V?$basic_string@DU?$char_traits@D@std@@V?$allocator@D@2@@std@@@2@@2@@std@@PAX@std@@@1@PAU?$_Tree_node@U?$pair@$$CBV?$basic_string@DU?$char_traits@D@std@@V?$allocator@D@2@@std@@V?$vector@V?$basic_string@DU?$char_traits@D@std@@V?$allocator@D@2@@std@@V?$allocator@V?$basic_string@DU?$char_traits@D@std@@V?$allocator@D@2@@std@@@2@@2@@std@@PAX@1@$$QAU?$pair@$$CBV?$basic_string@DU?$char_traits@D@std@@V?$allocator@D@2@@std@@V?$vector@V?$basic_string@DU?$char_traits@D@std@@V?$allocator@D@2@@std@@V?$allocator@V?$basic_string@DU?$char_traits@D@std@@V?$allocator@D@2@@std@@@2@@2@@1@@Z ; std::_Tree_temp_node<std::allocator<std::_Tree_node<std::pair<std::basic_string<char,std::char_traits<char>,std::allocator<char> > const ,std::vector<std::basic_string<char,std::char_traits<char>,std::allocator<char> >,std::allocator<std::basic_string<char,std::char_traits<char>,std::allocator<char> > > > >,void *> > >::_Tree_temp_node<std::allocator<std::_Tree_node<std::pair<std::basic_string<char,std::char_traits<char>,std::allocator<char> > const ,std::vector<std::basic_string<char,std::char_traits<char>,std::allocator<char> >,std::allocator<std::basic_string<char,std::char_traits<char>,std::allocator<char> > > > >,void *> > ><std::pair<std::basic_string<char,std::char_traits<char>,std::allocator<char> > const ,std::vector<std::basic_string<char,std::char_traits<char>,std::allocator<char> >,std::allocator<std::basic_string<char,std::char_traits<char>,std::allocator<char> > > > > >
PUBLIC	??$construct@U?$pair@$$CBV?$basic_string@DU?$char_traits@D@std@@V?$allocator@D@2@@std@@V12@@std@@ABUpiecewise_construct_t@2@V?$tuple@ABV?$basic_string@DU?$char_traits@D@std@@V?$allocator@D@2@@std@@@2@V?$tuple@$$V@2@@?$_Default_allocator_traits@V?$allocator@U?$_Tree_node@U?$pair@$$CBV?$basic_string@DU?$char_traits@D@std@@V?$allocator@D@2@@std@@V12@@std@@PAX@std@@@std@@@std@@SAXAAV?$allocator@U?$_Tree_node@U?$pair@$$CBV?$basic_string@DU?$char_traits@D@std@@V?$allocator@D@2@@std@@V12@@std@@PAX@std@@@1@QAU?$pair@$$CBV?$basic_string@DU?$char_traits@D@std@@V?$allocator@D@2@@std@@V12@@1@ABUpiecewise_construct_t@1@$$QAV?$tuple@ABV?$basic_string@DU?$char_traits@D@std@@V?$allocator@D@2@@std@@@1@$$QAV?$tuple@$$V@1@@Z ; std::_Default_allocator_traits<std::allocator<std::_Tree_node<std::pair<std::basic_string<char,std::char_traits<char>,std::allocator<char> > const ,std::basic_string<char,std::char_traits<char>,std::allocator<char> > >,void *> > >::construct<std::pair<std::basic_string<char,std::char_traits<char>,std::allocator<char> > const ,std::basic_string<char,std::char_traits<char>,std::allocator<char> > >,std::piecewise_construct_t const &,std::tuple<std::basic_string<char,std::char_traits<char>,std::allocator<char> > const &>,std::tuple<> >
PUBLIC	??$_Construct_in_place@PAU?$_Tree_node@U?$pair@$$CBV?$basic_string@DU?$char_traits@D@std@@V?$allocator@D@2@@std@@V12@@std@@PAX@std@@AAPAU12@@std@@YAXAAPAU?$_Tree_node@U?$pair@$$CBV?$basic_string@DU?$char_traits@D@std@@V?$allocator@D@2@@std@@V12@@std@@PAX@0@0@Z ; std::_Construct_in_place<std::_Tree_node<std::pair<std::basic_string<char,std::char_traits<char>,std::allocator<char> > const ,std::basic_string<char,std::char_traits<char>,std::allocator<char> > >,void *> *,std::_Tree_node<std::pair<std::basic_string<char,std::char_traits<char>,std::allocator<char> > const ,std::basic_string<char,std::char_traits<char>,std::allocator<char> > >,void *> * &>
PUBLIC	??1?$_Uninitialized_backout_al@V?$allocator@V?$basic_string@DU?$char_traits@D@std@@V?$allocator@D@2@@std@@@std@@@std@@QAE@XZ ; std::_Uninitialized_backout_al<std::allocator<std::basic_string<char,std::char_traits<char>,std::allocator<char> > > >::~_Uninitialized_backout_al<std::allocator<std::basic_string<char,std::char_traits<char>,std::allocator<char> > > >
PUBLIC	??$_Emplace_back@V?$basic_string@DU?$char_traits@D@std@@V?$allocator@D@2@@std@@@?$_Uninitialized_backout_al@V?$allocator@V?$basic_string@DU?$char_traits@D@std@@V?$allocator@D@2@@std@@@std@@@std@@QAEX$$QAV?$basic_string@DU?$char_traits@D@std@@V?$allocator@D@2@@1@@Z ; std::_Uninitialized_backout_al<std::allocator<std::basic_string<char,std::char_traits<char>,std::allocator<char> > > >::_Emplace_back<std::basic_string<char,std::char_traits<char>,std::allocator<char> > >
PUBLIC	??$_Uninitialized_copy@PAV?$basic_string@DU?$char_traits@D@std@@V?$allocator@D@2@@std@@V?$allocator@V?$basic_string@DU?$char_traits@D@std@@V?$allocator@D@2@@std@@@2@@std@@YAPAV?$basic_string@DU?$char_traits@D@std@@V?$allocator@D@2@@0@QAV10@0PAV10@AAV?$allocator@V?$basic_string@DU?$char_traits@D@std@@V?$allocator@D@2@@std@@@0@@Z ; std::_Uninitialized_copy<std::basic_string<char,std::char_traits<char>,std::allocator<char> > *,std::allocator<std::basic_string<char,std::char_traits<char>,std::allocator<char> > > >
PUBLIC	??$_Destroy_in_place@PAU?$_Tree_node@U?$pair@$$CBV?$basic_string@DU?$char_traits@D@std@@V?$allocator@D@2@@std@@V?$vector@V?$basic_string@DU?$char_traits@D@std@@V?$allocator@D@2@@std@@V?$allocator@V?$basic_string@DU?$char_traits@D@std@@V?$allocator@D@2@@std@@@2@@2@@std@@PAX@std@@@std@@YAXAAPAU?$_Tree_node@U?$pair@$$CBV?$basic_string@DU?$char_traits@D@std@@V?$allocator@D@2@@std@@V?$vector@V?$basic_string@DU?$char_traits@D@std@@V?$allocator@D@2@@std@@V?$allocator@V?$basic_string@DU?$char_traits@D@std@@V?$allocator@D@2@@std@@@2@@2@@std@@PAX@0@@Z ; std::_Destroy_in_place<std::_Tree_node<std::pair<std::basic_string<char,std::char_traits<char>,std::allocator<char> > const ,std::vector<std::basic_string<char,std::char_traits<char>,std::allocator<char> >,std::allocator<std::basic_string<char,std::char_traits<char>,std::allocator<char> > > > >,void *> *>
PUBLIC	??$?MDU?$char_traits@D@std@@V?$allocator@D@1@@std@@YA_NABV?$basic_string@DU?$char_traits@D@std@@V?$allocator@D@2@@0@0@Z ; std::operator<<char,std::char_traits<char>,std::allocator<char> >
PUBLIC	??$_Construct_in_place@PAU?$_Tree_node@U?$pair@$$CBV?$basic_string@DU?$char_traits@D@std@@V?$allocator@D@2@@std@@V?$vector@V?$basic_string@DU?$char_traits@D@std@@V?$allocator@D@2@@std@@V?$allocator@V?$basic_string@DU?$char_traits@D@std@@V?$allocator@D@2@@std@@@2@@2@@std@@PAX@std@@AAPAU12@@std@@YAXAAPAU?$_Tree_node@U?$pair@$$CBV?$basic_string@DU?$char_traits@D@std@@V?$allocator@D@2@@std@@V?$vector@V?$basic_string@DU?$char_traits@D@std@@V?$allocator@D@2@@std@@V?$allocator@V?$basic_string@DU?$char_traits@D@std@@V?$allocator@D@2@@std@@@2@@2@@std@@PAX@0@0@Z ; std::_Construct_in_place<std::_Tree_node<std::pair<std::basic_string<char,std::char_traits<char>,std::allocator<char> > const ,std::vector<std::basic_string<char,std::char_traits<char>,std::allocator<char> >,std::allocator<std::basic_string<char,std::char_traits<char>,std::allocator<char> > > > >,void *> *,std::_Tree_node<std::pair<std::basic_string<char,std::char_traits<char>,std::allocator<char> > const ,std::vector<std::basic_string<char,std::char_traits<char>,std::allocator<char> >,std::allocator<std::basic_string<char,std::char_traits<char>,std::allocator<char> > > > >,void *> * &>
PUBLIC	??$?0ABV?$basic_string@DU?$char_traits@D@std@@V?$allocator@D@2@@std@@$$Z$$V@?$pair@$$CBV?$basic_string@DU?$char_traits@D@std@@V?$allocator@D@2@@std@@V12@@std@@QAE@Upiecewise_construct_t@1@V?$tuple@ABV?$basic_string@DU?$char_traits@D@std@@V?$allocator@D@2@@std@@@1@V?$tuple@$$V@1@@Z ; std::pair<std::basic_string<char,std::char_traits<char>,std::allocator<char> > const ,std::basic_string<char,std::char_traits<char>,std::allocator<char> > >::pair<std::basic_string<char,std::char_traits<char>,std::allocator<char> > const ,std::basic_string<char,std::char_traits<char>,std::allocator<char> > ><std::basic_string<char,std::char_traits<char>,std::allocator<char> > const &>
PUBLIC	??$_Emplace_back@AAV?$basic_string@DU?$char_traits@D@std@@V?$allocator@D@2@@std@@@?$_Uninitialized_backout_al@V?$allocator@V?$basic_string@DU?$char_traits@D@std@@V?$allocator@D@2@@std@@@std@@@std@@QAEXAAV?$basic_string@DU?$char_traits@D@std@@V?$allocator@D@2@@1@@Z ; std::_Uninitialized_backout_al<std::allocator<std::basic_string<char,std::char_traits<char>,std::allocator<char> > > >::_Emplace_back<std::basic_string<char,std::char_traits<char>,std::allocator<char> > &>
PUBLIC	?_OptionsStorage@?1??__local_stdio_printf_options@@9@4_KA ; `__local_stdio_printf_options'::`2'::_OptionsStorage
PUBLIC	??_7exception@std@@6B@				; std::exception::`vftable'
PUBLIC	??_C@_0BC@EOODALEL@Unknown?5exception@		; `string'
PUBLIC	??_7bad_alloc@std@@6B@				; std::bad_alloc::`vftable'
PUBLIC	??_7bad_array_new_length@std@@6B@		; std::bad_array_new_length::`vftable'
PUBLIC	??_C@_0BF@KINCDENJ@bad?5array?5new?5length@	; `string'
PUBLIC	__TI3?AVbad_array_new_length@std@@
PUBLIC	__CTA3?AVbad_array_new_length@std@@
PUBLIC	??_R0?AVbad_array_new_length@std@@@8		; std::bad_array_new_length `RTTI Type Descriptor'
PUBLIC	__CT??_R0?AVbad_array_new_length@std@@@8??0bad_array_new_length@std@@QAE@ABV01@@Z12
PUBLIC	??_R0?AVbad_alloc@std@@@8			; std::bad_alloc `RTTI Type Descriptor'
PUBLIC	__CT??_R0?AVbad_alloc@std@@@8??0bad_alloc@std@@QAE@ABV01@@Z12
PUBLIC	??_R0?AVexception@std@@@8			; std::exception `RTTI Type Descriptor'
PUBLIC	__CT??_R0?AVexception@std@@@8??0exception@std@@QAE@ABV01@@Z12
PUBLIC	??_C@_0BA@JFNIOLAK@string?5too?5long@		; `string'
PUBLIC	??_C@_0BB@GCADKGJO@map?1set?5too?5long@		; `string'
PUBLIC	??_R4exception@std@@6B@				; std::exception::`RTTI Complete Object Locator'
PUBLIC	??_R3exception@std@@8				; std::exception::`RTTI Class Hierarchy Descriptor'
PUBLIC	??_R2exception@std@@8				; std::exception::`RTTI Base Class Array'
PUBLIC	??_R1A@?0A@EA@exception@std@@8			; std::exception::`RTTI Base Class Descriptor at (0,-1,0,64)'
PUBLIC	??_R4bad_alloc@std@@6B@				; std::bad_alloc::`RTTI Complete Object Locator'
PUBLIC	??_R3bad_alloc@std@@8				; std::bad_alloc::`RTTI Class Hierarchy Descriptor'
PUBLIC	??_R2bad_alloc@std@@8				; std::bad_alloc::`RTTI Base Class Array'
PUBLIC	??_R1A@?0A@EA@bad_alloc@std@@8			; std::bad_alloc::`RTTI Base Class Descriptor at (0,-1,0,64)'
PUBLIC	??_R4bad_array_new_length@std@@6B@		; std::bad_array_new_length::`RTTI Complete Object Locator'
PUBLIC	??_R3bad_array_new_length@std@@8		; std::bad_array_new_length::`RTTI Class Hierarchy Descriptor'
PUBLIC	??_R2bad_array_new_length@std@@8		; std::bad_array_new_length::`RTTI Base Class Array'
PUBLIC	??_R1A@?0A@EA@bad_array_new_length@std@@8	; std::bad_array_new_length::`RTTI Base Class Descriptor at (0,-1,0,64)'
PUBLIC	??_C@_00CNPNBAHC@@				; `string'
PUBLIC	?ms_singleton@?$CSingleton@VCEterPackManager@@@@0PAVCEterPackManager@@A ; CSingleton<CEterPackManager>::ms_singleton
PUBLIC	??_C@_04PFOHOKJK@?5?5?5?5@			; `string'
PUBLIC	??_C@_02OJDBNLEE@?5?7@				; `string'
PUBLIC	??_C@_05FAGFPHJG@start@				; `string'
PUBLIC	??_C@_03JBJLGPFL@end@				; `string'
PUBLIC	??_C@_0L@IPEIPBIF@MS?5PGothic@			; `string'
PUBLIC	??_C@_08JCBFCDDN@GulimChe@			; `string'
PUBLIC	??_C@_06EOALHCBL@SimSun@			; `string'
PUBLIC	??_C@_07HOIPIFNA@MingLiU@			; `string'
PUBLIC	??_C@_06IAEPOIJG@Tahoma@			; `string'
PUBLIC	??_C@_05MPFIAJAP@Arial@				; `string'
PUBLIC	??_C@_0BA@GNIPJLFD@?$ICl?$ICr?5?$ICo?$IDS?$IDV?$IDb?$IDN@ ; `string'
PUBLIC	??_C@_06MFMMLLPC@?$LB?$LM?$LI?$LC?C?$LM@	; `string'
PUBLIC	??_C@_04IKDGCAJA@?K?N?L?e@			; `string'
PUBLIC	??_C@_06MNOHAHKD@?$LC?S?$KJ?z?E?i@		; `string'
PUBLIC	??_C@_0BA@FOIKENOD@vector?5too?5long@		; `string'
PUBLIC	__real@3f800000
EXTRN	??2@YAPAXI@Z:PROC				; operator new
EXTRN	??3@YAXPAXI@Z:PROC				; operator delete
EXTRN	_atexit:PROC
EXTRN	___report_rangecheckfailure:PROC
EXTRN	__invalid_parameter_noinfo_noreturn:PROC
EXTRN	_atof:PROC
EXTRN	_memcmp:PROC
EXTRN	_memcpy:PROC
EXTRN	_memmove:PROC
EXTRN	_memset:PROC
EXTRN	_strcat:PROC
EXTRN	_strcpy:PROC
EXTRN	__stricmp:PROC
EXTRN	_strlen:PROC
EXTRN	__imp__EnumFontFamiliesExA@20:PROC
EXTRN	__imp__GetDC@4:PROC
EXTRN	__imp__ReleaseDC@8:PROC
EXTRN	___stdio_common_vfprintf:PROC
EXTRN	___stdio_common_vsprintf:PROC
EXTRN	___std_exception_copy:PROC
EXTRN	___std_exception_destroy:PROC
EXTRN	??_Eexception@std@@UAEPAXI@Z:PROC		; std::exception::`vector deleting destructor'
EXTRN	??_Ebad_alloc@std@@UAEPAXI@Z:PROC		; std::bad_alloc::`vector deleting destructor'
EXTRN	??_Ebad_array_new_length@std@@UAEPAXI@Z:PROC	; std::bad_array_new_length::`vector deleting destructor'
EXTRN	?_Xlength_error@std@@YAXPBD@Z:PROC		; std::_Xlength_error
EXTRN	?stl_lowers@@YAXAAV?$basic_string@DU?$char_traits@D@std@@V?$allocator@D@2@@std@@@Z:PROC ; stl_lowers
EXTRN	??0CMappedFile@@QAE@XZ:PROC			; CMappedFile::CMappedFile
EXTRN	??1CMappedFile@@UAE@XZ:PROC			; CMappedFile::~CMappedFile
EXTRN	?Size@CMappedFile@@QAEKXZ:PROC			; CMappedFile::Size
EXTRN	?Get@CEterPackManager@@QAE_NAAVCMappedFile@@PBDPAPBX@Z:PROC ; CEterPackManager::Get
EXTRN	??0CMemoryTextFileLoader@@QAE@XZ:PROC		; CMemoryTextFileLoader::CMemoryTextFileLoader
EXTRN	??1CMemoryTextFileLoader@@UAE@XZ:PROC		; CMemoryTextFileLoader::~CMemoryTextFileLoader
EXTRN	?Bind@CMemoryTextFileLoader@@QAEXHPBX@Z:PROC	; CMemoryTextFileLoader::Bind
EXTRN	?GetLineCount@CMemoryTextFileLoader@@QAEKXZ:PROC ; CMemoryTextFileLoader::GetLineCount
EXTRN	?SplitLine@CMemoryTextFileLoader@@QAE_NKPAV?$vector@V?$basic_string@DU?$char_traits@D@std@@V?$allocator@D@2@@std@@V?$allocator@V?$basic_string@DU?$char_traits@D@std@@V?$allocator@D@2@@std@@@2@@std@@PBD@Z:PROC ; CMemoryTextFileLoader::SplitLine
EXTRN	@__security_check_cookie@4:PROC
EXTRN	__CxxThrowException@8:PROC
EXTRN	___CxxFrameHandler3:PROC
EXTRN	??_7type_info@@6B@:QWORD			; type_info::`vftable'
EXTRN	___security_cookie:DWORD
EXTRN	__fltused:DWORD
;	COMDAT ?_OptionsStorage@?1??__local_stdio_printf_options@@9@4_KA
_BSS	SEGMENT
?_OptionsStorage@?1??__local_stdio_printf_options@@9@4_KA DQ 01H DUP (?) ; `__local_stdio_printf_options'::`2'::_OptionsStorage
_BSS	ENDS
;	COMDAT ?ms_singleton@?$CSingleton@VCEterPackManager@@@@0PAVCEterPackManager@@A
_BSS	SEGMENT
?ms_singleton@?$CSingleton@VCEterPackManager@@@@0PAVCEterPackManager@@A DD 01H DUP (?) ; CSingleton<CEterPackManager>::ms_singleton
_BSS	ENDS
;	COMDAT ?szBuf@?1??PrintfTabs@@YAXPAU_iobuf@@HPBDZZ@4PADA
_BSS	SEGMENT
?szBuf@?1??PrintfTabs@@YAXPAU_iobuf@@HPBDZZ@4PADA DB 0400H DUP (?) ; `PrintfTabs'::`2'::szBuf
_BSS	ENDS
_BSS	SEGMENT
?gs_fontFace@@3V?$basic_string@DU?$char_traits@D@std@@V?$allocator@D@2@@std@@A DB 018H DUP (?) ; gs_fontFace
?gs_codePage@@3KA DD 01H DUP (?)			; gs_codePage
_BSS	ENDS
CRT$XCU	SEGMENT
?gs_fontFace$initializer$@@3P6AXXZA DD FLAT:??__Egs_fontFace@@YAXXZ ; gs_fontFace$initializer$
CRT$XCU	ENDS
;	COMDAT __real@3f800000
CONST	SEGMENT
__real@3f800000 DD 03f800000r			; 1
CONST	ENDS
;	COMDAT ??_C@_0BA@FOIKENOD@vector?5too?5long@
CONST	SEGMENT
??_C@_0BA@FOIKENOD@vector?5too?5long@ DB 'vector too long', 00H ; `string'
CONST	ENDS
;	COMDAT ??_C@_06MNOHAHKD@?$LC?S?$KJ?z?E?i@
CONST	SEGMENT
??_C@_06MNOHAHKD@?$LC?S?$KJ?z?E?i@ DB 0b2H, 0d3H, 0a9H, 0faH, 0c5H, 0e9H, 00H ; `string'
CONST	ENDS
;	COMDAT ??_C@_04IKDGCAJA@?K?N?L?e@
CONST	SEGMENT
??_C@_04IKDGCAJA@?K?N?L?e@ DB 0cbH, 0ceH, 0ccH, 0e5H, 00H ; `string'
CONST	ENDS
;	COMDAT ??_C@_06MFMMLLPC@?$LB?$LM?$LI?$LC?C?$LM@
CONST	SEGMENT
??_C@_06MFMMLLPC@?$LB?$LM?$LI?$LC?C?$LM@ DB 0b1H, 0bcH, 0b8H, 0b2H, 0c3H, 0bcH
	DB	00H						; `string'
CONST	ENDS
;	COMDAT ??_C@_0BA@GNIPJLFD@?$ICl?$ICr?5?$ICo?$IDS?$IDV?$IDb?$IDN@
CONST	SEGMENT
??_C@_0BA@GNIPJLFD@?$ICl?$ICr?5?$ICo?$IDS?$IDV?$IDb?$IDN@ DB 082H, 'l', 082H
	DB	'r ', 082H, 'o', 083H, 'S', 083H, 'V', 083H, 'b', 083H, 'N', 00H ; `string'
CONST	ENDS
;	COMDAT ??_C@_05MPFIAJAP@Arial@
CONST	SEGMENT
??_C@_05MPFIAJAP@Arial@ DB 'Arial', 00H			; `string'
CONST	ENDS
;	COMDAT ??_C@_06IAEPOIJG@Tahoma@
CONST	SEGMENT
??_C@_06IAEPOIJG@Tahoma@ DB 'Tahoma', 00H		; `string'
CONST	ENDS
;	COMDAT ??_C@_07HOIPIFNA@MingLiU@
CONST	SEGMENT
??_C@_07HOIPIFNA@MingLiU@ DB 'MingLiU', 00H		; `string'
CONST	ENDS
;	COMDAT ??_C@_06EOALHCBL@SimSun@
CONST	SEGMENT
??_C@_06EOALHCBL@SimSun@ DB 'SimSun', 00H		; `string'
CONST	ENDS
;	COMDAT ??_C@_08JCBFCDDN@GulimChe@
CONST	SEGMENT
??_C@_08JCBFCDDN@GulimChe@ DB 'GulimChe', 00H		; `string'
CONST	ENDS
;	COMDAT ??_C@_0L@IPEIPBIF@MS?5PGothic@
CONST	SEGMENT
??_C@_0L@IPEIPBIF@MS?5PGothic@ DB 'MS PGothic', 00H	; `string'
CONST	ENDS
;	COMDAT ??_C@_03JBJLGPFL@end@
CONST	SEGMENT
??_C@_03JBJLGPFL@end@ DB 'end', 00H			; `string'
CONST	ENDS
;	COMDAT ??_C@_05FAGFPHJG@start@
CONST	SEGMENT
??_C@_05FAGFPHJG@start@ DB 'start', 00H			; `string'
CONST	ENDS
;	COMDAT ??_C@_02OJDBNLEE@?5?7@
CONST	SEGMENT
??_C@_02OJDBNLEE@?5?7@ DB ' ', 09H, 00H			; `string'
CONST	ENDS
;	COMDAT ??_C@_04PFOHOKJK@?5?5?5?5@
CONST	SEGMENT
??_C@_04PFOHOKJK@?5?5?5?5@ DB '    ', 00H		; `string'
CONST	ENDS
;	COMDAT ??_C@_00CNPNBAHC@@
CONST	SEGMENT
??_C@_00CNPNBAHC@@ DB 00H				; `string'
CONST	ENDS
;	COMDAT ??_R1A@?0A@EA@bad_array_new_length@std@@8
rdata$r	SEGMENT
??_R1A@?0A@EA@bad_array_new_length@std@@8 DD FLAT:??_R0?AVbad_array_new_length@std@@@8 ; std::bad_array_new_length::`RTTI Base Class Descriptor at (0,-1,0,64)'
	DD	02H
	DD	00H
	DD	0ffffffffH
	DD	00H
	DD	040H
	DD	FLAT:??_R3bad_array_new_length@std@@8
rdata$r	ENDS
;	COMDAT ??_R2bad_array_new_length@std@@8
rdata$r	SEGMENT
??_R2bad_array_new_length@std@@8 DD FLAT:??_R1A@?0A@EA@bad_array_new_length@std@@8 ; std::bad_array_new_length::`RTTI Base Class Array'
	DD	FLAT:??_R1A@?0A@EA@bad_alloc@std@@8
	DD	FLAT:??_R1A@?0A@EA@exception@std@@8
rdata$r	ENDS
;	COMDAT ??_R3bad_array_new_length@std@@8
rdata$r	SEGMENT
??_R3bad_array_new_length@std@@8 DD 00H			; std::bad_array_new_length::`RTTI Class Hierarchy Descriptor'
	DD	00H
	DD	03H
	DD	FLAT:??_R2bad_array_new_length@std@@8
rdata$r	ENDS
;	COMDAT ??_R4bad_array_new_length@std@@6B@
rdata$r	SEGMENT
??_R4bad_array_new_length@std@@6B@ DD 00H		; std::bad_array_new_length::`RTTI Complete Object Locator'
	DD	00H
	DD	00H
	DD	FLAT:??_R0?AVbad_array_new_length@std@@@8
	DD	FLAT:??_R3bad_array_new_length@std@@8
rdata$r	ENDS
;	COMDAT ??_R1A@?0A@EA@bad_alloc@std@@8
rdata$r	SEGMENT
??_R1A@?0A@EA@bad_alloc@std@@8 DD FLAT:??_R0?AVbad_alloc@std@@@8 ; std::bad_alloc::`RTTI Base Class Descriptor at (0,-1,0,64)'
	DD	01H
	DD	00H
	DD	0ffffffffH
	DD	00H
	DD	040H
	DD	FLAT:??_R3bad_alloc@std@@8
rdata$r	ENDS
;	COMDAT ??_R2bad_alloc@std@@8
rdata$r	SEGMENT
??_R2bad_alloc@std@@8 DD FLAT:??_R1A@?0A@EA@bad_alloc@std@@8 ; std::bad_alloc::`RTTI Base Class Array'
	DD	FLAT:??_R1A@?0A@EA@exception@std@@8
rdata$r	ENDS
;	COMDAT ??_R3bad_alloc@std@@8
rdata$r	SEGMENT
??_R3bad_alloc@std@@8 DD 00H				; std::bad_alloc::`RTTI Class Hierarchy Descriptor'
	DD	00H
	DD	02H
	DD	FLAT:??_R2bad_alloc@std@@8
rdata$r	ENDS
;	COMDAT ??_R4bad_alloc@std@@6B@
rdata$r	SEGMENT
??_R4bad_alloc@std@@6B@ DD 00H				; std::bad_alloc::`RTTI Complete Object Locator'
	DD	00H
	DD	00H
	DD	FLAT:??_R0?AVbad_alloc@std@@@8
	DD	FLAT:??_R3bad_alloc@std@@8
rdata$r	ENDS
;	COMDAT ??_R1A@?0A@EA@exception@std@@8
rdata$r	SEGMENT
??_R1A@?0A@EA@exception@std@@8 DD FLAT:??_R0?AVexception@std@@@8 ; std::exception::`RTTI Base Class Descriptor at (0,-1,0,64)'
	DD	00H
	DD	00H
	DD	0ffffffffH
	DD	00H
	DD	040H
	DD	FLAT:??_R3exception@std@@8
rdata$r	ENDS
;	COMDAT ??_R2exception@std@@8
rdata$r	SEGMENT
??_R2exception@std@@8 DD FLAT:??_R1A@?0A@EA@exception@std@@8 ; std::exception::`RTTI Base Class Array'
rdata$r	ENDS
;	COMDAT ??_R3exception@std@@8
rdata$r	SEGMENT
??_R3exception@std@@8 DD 00H				; std::exception::`RTTI Class Hierarchy Descriptor'
	DD	00H
	DD	01H
	DD	FLAT:??_R2exception@std@@8
rdata$r	ENDS
;	COMDAT ??_R4exception@std@@6B@
rdata$r	SEGMENT
??_R4exception@std@@6B@ DD 00H				; std::exception::`RTTI Complete Object Locator'
	DD	00H
	DD	00H
	DD	FLAT:??_R0?AVexception@std@@@8
	DD	FLAT:??_R3exception@std@@8
rdata$r	ENDS
;	COMDAT ??_C@_0BB@GCADKGJO@map?1set?5too?5long@
CONST	SEGMENT
??_C@_0BB@GCADKGJO@map?1set?5too?5long@ DB 'map/set too long', 00H ; `string'
CONST	ENDS
;	COMDAT ??_C@_0BA@JFNIOLAK@string?5too?5long@
CONST	SEGMENT
??_C@_0BA@JFNIOLAK@string?5too?5long@ DB 'string too long', 00H ; `string'
CONST	ENDS
;	COMDAT __CT??_R0?AVexception@std@@@8??0exception@std@@QAE@ABV01@@Z12
xdata$x	SEGMENT
__CT??_R0?AVexception@std@@@8??0exception@std@@QAE@ABV01@@Z12 DD 00H
	DD	FLAT:??_R0?AVexception@std@@@8
	DD	00H
	DD	0ffffffffH
	ORG $+4
	DD	0cH
	DD	FLAT:??0exception@std@@QAE@ABV01@@Z
xdata$x	ENDS
;	COMDAT ??_R0?AVexception@std@@@8
data$r	SEGMENT
??_R0?AVexception@std@@@8 DD FLAT:??_7type_info@@6B@	; std::exception `RTTI Type Descriptor'
	DD	00H
	DB	'.?AVexception@std@@', 00H
data$r	ENDS
;	COMDAT __CT??_R0?AVbad_alloc@std@@@8??0bad_alloc@std@@QAE@ABV01@@Z12
xdata$x	SEGMENT
__CT??_R0?AVbad_alloc@std@@@8??0bad_alloc@std@@QAE@ABV01@@Z12 DD 010H
	DD	FLAT:??_R0?AVbad_alloc@std@@@8
	DD	00H
	DD	0ffffffffH
	ORG $+4
	DD	0cH
	DD	FLAT:??0bad_alloc@std@@QAE@ABV01@@Z
xdata$x	ENDS
;	COMDAT ??_R0?AVbad_alloc@std@@@8
data$r	SEGMENT
??_R0?AVbad_alloc@std@@@8 DD FLAT:??_7type_info@@6B@	; std::bad_alloc `RTTI Type Descriptor'
	DD	00H
	DB	'.?AVbad_alloc@std@@', 00H
data$r	ENDS
;	COMDAT __CT??_R0?AVbad_array_new_length@std@@@8??0bad_array_new_length@std@@QAE@ABV01@@Z12
xdata$x	SEGMENT
__CT??_R0?AVbad_array_new_length@std@@@8??0bad_array_new_length@std@@QAE@ABV01@@Z12 DD 00H
	DD	FLAT:??_R0?AVbad_array_new_length@std@@@8
	DD	00H
	DD	0ffffffffH
	ORG $+4
	DD	0cH
	DD	FLAT:??0bad_array_new_length@std@@QAE@ABV01@@Z
xdata$x	ENDS
;	COMDAT ??_R0?AVbad_array_new_length@std@@@8
data$r	SEGMENT
??_R0?AVbad_array_new_length@std@@@8 DD FLAT:??_7type_info@@6B@ ; std::bad_array_new_length `RTTI Type Descriptor'
	DD	00H
	DB	'.?AVbad_array_new_length@std@@', 00H
data$r	ENDS
;	COMDAT __CTA3?AVbad_array_new_length@std@@
xdata$x	SEGMENT
__CTA3?AVbad_array_new_length@std@@ DD 03H
	DD	FLAT:__CT??_R0?AVbad_array_new_length@std@@@8??0bad_array_new_length@std@@QAE@ABV01@@Z12
	DD	FLAT:__CT??_R0?AVbad_alloc@std@@@8??0bad_alloc@std@@QAE@ABV01@@Z12
	DD	FLAT:__CT??_R0?AVexception@std@@@8??0exception@std@@QAE@ABV01@@Z12
xdata$x	ENDS
;	COMDAT __TI3?AVbad_array_new_length@std@@
xdata$x	SEGMENT
__TI3?AVbad_array_new_length@std@@ DD 00H
	DD	FLAT:??1bad_array_new_length@std@@UAE@XZ
	DD	00H
	DD	FLAT:__CTA3?AVbad_array_new_length@std@@
xdata$x	ENDS
;	COMDAT ??_C@_0BF@KINCDENJ@bad?5array?5new?5length@
CONST	SEGMENT
??_C@_0BF@KINCDENJ@bad?5array?5new?5length@ DB 'bad array new length', 00H ; `string'
CONST	ENDS
;	COMDAT ??_7bad_array_new_length@std@@6B@
CONST	SEGMENT
??_7bad_array_new_length@std@@6B@ DD FLAT:??_R4bad_array_new_length@std@@6B@ ; std::bad_array_new_length::`vftable'
	DD	FLAT:??_Ebad_array_new_length@std@@UAEPAXI@Z
	DD	FLAT:?what@exception@std@@UBEPBDXZ
CONST	ENDS
;	COMDAT ??_7bad_alloc@std@@6B@
CONST	SEGMENT
??_7bad_alloc@std@@6B@ DD FLAT:??_R4bad_alloc@std@@6B@	; std::bad_alloc::`vftable'
	DD	FLAT:??_Ebad_alloc@std@@UAEPAXI@Z
	DD	FLAT:?what@exception@std@@UBEPBDXZ
CONST	ENDS
;	COMDAT ??_C@_0BC@EOODALEL@Unknown?5exception@
CONST	SEGMENT
??_C@_0BC@EOODALEL@Unknown?5exception@ DB 'Unknown exception', 00H ; `string'
CONST	ENDS
;	COMDAT ??_7exception@std@@6B@
CONST	SEGMENT
??_7exception@std@@6B@ DD FLAT:??_R4exception@std@@6B@	; std::exception::`vftable'
	DD	FLAT:??_Eexception@std@@UAEPAXI@Z
	DD	FLAT:?what@exception@std@@UBEPBDXZ
CONST	ENDS
;	COMDAT xdata$x
xdata$x	SEGMENT
__unwindtable$??$_Uninitialized_copy@PAV?$basic_string@DU?$char_traits@D@std@@V?$allocator@D@2@@std@@V?$allocator@V?$basic_string@DU?$char_traits@D@std@@V?$allocator@D@2@@std@@@2@@std@@YAPAV?$basic_string@DU?$char_traits@D@std@@V?$allocator@D@2@@0@QAV10@0PAV10@AAV?$allocator@V?$basic_string@DU?$char_traits@D@std@@V?$allocator@D@2@@std@@@0@@Z DD 0ffffffffH
	DD	FLAT:__unwindfunclet$??$_Uninitialized_copy@PAV?$basic_string@DU?$char_traits@D@std@@V?$allocator@D@2@@std@@V?$allocator@V?$basic_string@DU?$char_traits@D@std@@V?$allocator@D@2@@std@@@2@@std@@YAPAV?$basic_string@DU?$char_traits@D@std@@V?$allocator@D@2@@0@QAV10@0PAV10@AAV?$allocator@V?$basic_string@DU?$char_traits@D@std@@V?$allocator@D@2@@std@@@0@@Z$0
__ehfuncinfo$??$_Uninitialized_copy@PAV?$basic_string@DU?$char_traits@D@std@@V?$allocator@D@2@@std@@V?$allocator@V?$basic_string@DU?$char_traits@D@std@@V?$allocator@D@2@@std@@@2@@std@@YAPAV?$basic_string@DU?$char_traits@D@std@@V?$allocator@D@2@@0@QAV10@0PAV10@AAV?$allocator@V?$basic_string@DU?$char_traits@D@std@@V?$allocator@D@2@@std@@@0@@Z DD 019930522H
	DD	01H
	DD	FLAT:__unwindtable$??$_Uninitialized_copy@PAV?$basic_string@DU?$char_traits@D@std@@V?$allocator@D@2@@std@@V?$allocator@V?$basic_string@DU?$char_traits@D@std@@V?$allocator@D@2@@std@@@2@@std@@YAPAV?$basic_string@DU?$char_traits@D@std@@V?$allocator@D@2@@0@QAV10@0PAV10@AAV?$allocator@V?$basic_string@DU?$char_traits@D@std@@V?$allocator@D@2@@std@@@0@@Z
	DD	2 DUP(00H)
	DD	2 DUP(00H)
	DD	00H
	DD	01H
xdata$x	ENDS
;	COMDAT xdata$x
xdata$x	SEGMENT
__unwindtable$??$?0U?$pair@$$CBV?$basic_string@DU?$char_traits@D@std@@V?$allocator@D@2@@std@@V?$vector@V?$basic_string@DU?$char_traits@D@std@@V?$allocator@D@2@@std@@V?$allocator@V?$basic_string@DU?$char_traits@D@std@@V?$allocator@D@2@@std@@@2@@2@@std@@@?$_Tree_temp_node@V?$allocator@U?$_Tree_node@U?$pair@$$CBV?$basic_string@DU?$char_traits@D@std@@V?$allocator@D@2@@std@@V?$vector@V?$basic_string@DU?$char_traits@D@std@@V?$allocator@D@2@@std@@V?$allocator@V?$basic_string@DU?$char_traits@D@std@@V?$allocator@D@2@@std@@@2@@2@@std@@PAX@std@@@std@@@std@@QAE@AAV?$allocator@U?$_Tree_node@U?$pair@$$CBV?$basic_string@DU?$char_traits@D@std@@V?$allocator@D@2@@std@@V?$vector@V?$basic_string@DU?$char_traits@D@std@@V?$allocator@D@2@@std@@V?$allocator@V?$basic_string@DU?$char_traits@D@std@@V?$allocator@D@2@@std@@@2@@2@@std@@PAX@std@@@1@PAU?$_Tree_node@U?$pair@$$CBV?$basic_string@DU?$char_traits@D@std@@V?$allocator@D@2@@std@@V?$vector@V?$basic_string@DU?$char_traits@D@std@@V?$allocator@D@2@@std@@V?$allocator@V?$basic_string@DU?$char_traits@D@std@@V?$allocator@D@2@@std@@@2@@2@@std@@PAX@1@$$QAU?$pair@$$CBV?$basic_string@DU?$char_traits@D@std@@V?$allocator@D@2@@std@@V?$vector@V?$basic_string@DU?$char_traits@D@std@@V?$allocator@D@2@@std@@V?$allocator@V?$basic_string@DU?$char_traits@D@std@@V?$allocator@D@2@@std@@@2@@2@@1@@Z DD 0ffffffffH
	DD	FLAT:__unwindfunclet$??$?0U?$pair@$$CBV?$basic_string@DU?$char_traits@D@std@@V?$allocator@D@2@@std@@V?$vector@V?$basic_string@DU?$char_traits@D@std@@V?$allocator@D@2@@std@@V?$allocator@V?$basic_string@DU?$char_traits@D@std@@V?$allocator@D@2@@std@@@2@@2@@std@@@?$_Tree_temp_node@V?$allocator@U?$_Tree_node@U?$pair@$$CBV?$basic_string@DU?$char_traits@D@std@@V?$allocator@D@2@@std@@V?$vector@V?$basic_string@DU?$char_traits@D@std@@V?$allocator@D@2@@std@@V?$allocator@V?$basic_string@DU?$char_traits@D@std@@V?$allocator@D@2@@std@@@2@@2@@std@@PAX@std@@@std@@@std@@QAE@AAV?$allocator@U?$_Tree_node@U?$pair@$$CBV?$basic_string@DU?$char_traits@D@std@@V?$allocator@D@2@@std@@V?$vector@V?$basic_string@DU?$char_traits@D@std@@V?$allocator@D@2@@std@@V?$allocator@V?$basic_string@DU?$char_traits@D@std@@V?$allocator@D@2@@std@@@2@@2@@std@@PAX@std@@@1@PAU?$_Tree_node@U?$pair@$$CBV?$basic_string@DU?$char_traits@D@std@@V?$allocator@D@2@@std@@V?$vector@V?$basic_string@DU?$char_traits@D@std@@V?$allocator@D@2@@std@@V?$allocator@V?$basic_string@DU?$char_traits@D@std@@V?$allocator@D@2@@std@@@2@@2@@std@@PAX@1@$$QAU?$pair@$$CBV?$basic_string@DU?$char_traits@D@std@@V?$allocator@D@2@@std@@V?$vector@V?$basic_string@DU?$char_traits@D@std@@V?$allocator@D@2@@std@@V?$allocator@V?$basic_string@DU?$char_traits@D@std@@V?$allocator@D@2@@std@@@2@@2@@1@@Z$1
	DD	0ffffffffH
	DD	FLAT:__unwindfunclet$??$?0U?$pair@$$CBV?$basic_string@DU?$char_traits@D@std@@V?$allocator@D@2@@std@@V?$vector@V?$basic_string@DU?$char_traits@D@std@@V?$allocator@D@2@@std@@V?$allocator@V?$basic_string@DU?$char_traits@D@std@@V?$allocator@D@2@@std@@@2@@2@@std@@@?$_Tree_temp_node@V?$allocator@U?$_Tree_node@U?$pair@$$CBV?$basic_string@DU?$char_traits@D@std@@V?$allocator@D@2@@std@@V?$vector@V?$basic_string@DU?$char_traits@D@std@@V?$allocator@D@2@@std@@V?$allocator@V?$basic_string@DU?$char_traits@D@std@@V?$allocator@D@2@@std@@@2@@2@@std@@PAX@std@@@std@@@std@@QAE@AAV?$allocator@U?$_Tree_node@U?$pair@$$CBV?$basic_string@DU?$char_traits@D@std@@V?$allocator@D@2@@std@@V?$vector@V?$basic_string@DU?$char_traits@D@std@@V?$allocator@D@2@@std@@V?$allocator@V?$basic_string@DU?$char_traits@D@std@@V?$allocator@D@2@@std@@@2@@2@@std@@PAX@std@@@1@PAU?$_Tree_node@U?$pair@$$CBV?$basic_string@DU?$char_traits@D@std@@V?$allocator@D@2@@std@@V?$vector@V?$basic_string@DU?$char_traits@D@std@@V?$allocator@D@2@@std@@V?$allocator@V?$basic_string@DU?$char_traits@D@std@@V?$allocator@D@2@@std@@@2@@2@@std@@PAX@1@$$QAU?$pair@$$CBV?$basic_string@DU?$char_traits@D@std@@V?$allocator@D@2@@std@@V?$vector@V?$basic_string@DU?$char_traits@D@std@@V?$allocator@D@2@@std@@V?$allocator@V?$basic_string@DU?$char_traits@D@std@@V?$allocator@D@2@@std@@@2@@2@@1@@Z$0
__ehfuncinfo$??$?0U?$pair@$$CBV?$basic_string@DU?$char_traits@D@std@@V?$allocator@D@2@@std@@V?$vector@V?$basic_string@DU?$char_traits@D@std@@V?$allocator@D@2@@std@@V?$allocator@V?$basic_string@DU?$char_traits@D@std@@V?$allocator@D@2@@std@@@2@@2@@std@@@?$_Tree_temp_node@V?$allocator@U?$_Tree_node@U?$pair@$$CBV?$basic_string@DU?$char_traits@D@std@@V?$allocator@D@2@@std@@V?$vector@V?$basic_string@DU?$char_traits@D@std@@V?$allocator@D@2@@std@@V?$allocator@V?$basic_string@DU?$char_traits@D@std@@V?$allocator@D@2@@std@@@2@@2@@std@@PAX@std@@@std@@@std@@QAE@AAV?$allocator@U?$_Tree_node@U?$pair@$$CBV?$basic_string@DU?$char_traits@D@std@@V?$allocator@D@2@@std@@V?$vector@V?$basic_string@DU?$char_traits@D@std@@V?$allocator@D@2@@std@@V?$allocator@V?$basic_string@DU?$char_traits@D@std@@V?$allocator@D@2@@std@@@2@@2@@std@@PAX@std@@@1@PAU?$_Tree_node@U?$pair@$$CBV?$basic_string@DU?$char_traits@D@std@@V?$allocator@D@2@@std@@V?$vector@V?$basic_string@DU?$char_traits@D@std@@V?$allocator@D@2@@std@@V?$allocator@V?$basic_string@DU?$char_traits@D@std@@V?$allocator@D@2@@std@@@2@@2@@std@@PAX@1@$$QAU?$pair@$$CBV?$basic_string@DU?$char_traits@D@std@@V?$allocator@D@2@@std@@V?$vector@V?$basic_string@DU?$char_traits@D@std@@V?$allocator@D@2@@std@@V?$allocator@V?$basic_string@DU?$char_traits@D@std@@V?$allocator@D@2@@std@@@2@@2@@1@@Z DD 019930522H
	DD	02H
	DD	FLAT:__unwindtable$??$?0U?$pair@$$CBV?$basic_string@DU?$char_traits@D@std@@V?$allocator@D@2@@std@@V?$vector@V?$basic_string@DU?$char_traits@D@std@@V?$allocator@D@2@@std@@V?$allocator@V?$basic_string@DU?$char_traits@D@std@@V?$allocator@D@2@@std@@@2@@2@@std@@@?$_Tree_temp_node@V?$allocator@U?$_Tree_node@U?$pair@$$CBV?$basic_string@DU?$char_traits@D@std@@V?$allocator@D@2@@std@@V?$vector@V?$basic_string@DU?$char_traits@D@std@@V?$allocator@D@2@@std@@V?$allocator@V?$basic_string@DU?$char_traits@D@std@@V?$allocator@D@2@@std@@@2@@2@@std@@PAX@std@@@std@@@std@@QAE@AAV?$allocator@U?$_Tree_node@U?$pair@$$CBV?$basic_string@DU?$char_traits@D@std@@V?$allocator@D@2@@std@@V?$vector@V?$basic_string@DU?$char_traits@D@std@@V?$allocator@D@2@@std@@V?$allocator@V?$basic_string@DU?$char_traits@D@std@@V?$allocator@D@2@@std@@@2@@2@@std@@PAX@std@@@1@PAU?$_Tree_node@U?$pair@$$CBV?$basic_string@DU?$char_traits@D@std@@V?$allocator@D@2@@std@@V?$vector@V?$basic_string@DU?$char_traits@D@std@@V?$allocator@D@2@@std@@V?$allocator@V?$basic_string@DU?$char_traits@D@std@@V?$allocator@D@2@@std@@@2@@2@@std@@PAX@1@$$QAU?$pair@$$CBV?$basic_string@DU?$char_traits@D@std@@V?$allocator@D@2@@std@@V?$vector@V?$basic_string@DU?$char_traits@D@std@@V?$allocator@D@2@@std@@V?$allocator@V?$basic_string@DU?$char_traits@D@std@@V?$allocator@D@2@@std@@@2@@2@@1@@Z
	DD	2 DUP(00H)
	DD	2 DUP(00H)
	DD	00H
	DD	01H
xdata$x	ENDS
;	COMDAT xdata$x
xdata$x	SEGMENT
__unwindtable$??$_Uninitialized_move@PAV?$basic_string@DU?$char_traits@D@std@@V?$allocator@D@2@@std@@V?$allocator@V?$basic_string@DU?$char_traits@D@std@@V?$allocator@D@2@@std@@@2@@std@@YAPAV?$basic_string@DU?$char_traits@D@std@@V?$allocator@D@2@@0@QAV10@0PAV10@AAV?$allocator@V?$basic_string@DU?$char_traits@D@std@@V?$allocator@D@2@@std@@@0@@Z DD 0ffffffffH
	DD	FLAT:__unwindfunclet$??$_Uninitialized_move@PAV?$basic_string@DU?$char_traits@D@std@@V?$allocator@D@2@@std@@V?$allocator@V?$basic_string@DU?$char_traits@D@std@@V?$allocator@D@2@@std@@@2@@std@@YAPAV?$basic_string@DU?$char_traits@D@std@@V?$allocator@D@2@@0@QAV10@0PAV10@AAV?$allocator@V?$basic_string@DU?$char_traits@D@std@@V?$allocator@D@2@@std@@@0@@Z$0
__ehfuncinfo$??$_Uninitialized_move@PAV?$basic_string@DU?$char_traits@D@std@@V?$allocator@D@2@@std@@V?$allocator@V?$basic_string@DU?$char_traits@D@std@@V?$allocator@D@2@@std@@@2@@std@@YAPAV?$basic_string@DU?$char_traits@D@std@@V?$allocator@D@2@@0@QAV10@0PAV10@AAV?$allocator@V?$basic_string@DU?$char_traits@D@std@@V?$allocator@D@2@@std@@@0@@Z DD 019930522H
	DD	01H
	DD	FLAT:__unwindtable$??$_Uninitialized_move@PAV?$basic_string@DU?$char_traits@D@std@@V?$allocator@D@2@@std@@V?$allocator@V?$basic_string@DU?$char_traits@D@std@@V?$allocator@D@2@@std@@@2@@std@@YAPAV?$basic_string@DU?$char_traits@D@std@@V?$allocator@D@2@@0@QAV10@0PAV10@AAV?$allocator@V?$basic_string@DU?$char_traits@D@std@@V?$allocator@D@2@@std@@@0@@Z
	DD	2 DUP(00H)
	DD	2 DUP(00H)
	DD	00H
	DD	01H
xdata$x	ENDS
;	COMDAT xdata$x
xdata$x	SEGMENT
__unwindtable$??$?0ABUpiecewise_construct_t@std@@V?$tuple@ABV?$basic_string@DU?$char_traits@D@std@@V?$allocator@D@2@@std@@@1@V?$tuple@$$V@1@@?$_Tree_temp_node@V?$allocator@U?$_Tree_node@U?$pair@$$CBV?$basic_string@DU?$char_traits@D@std@@V?$allocator@D@2@@std@@V12@@std@@PAX@std@@@std@@@std@@QAE@AAV?$allocator@U?$_Tree_node@U?$pair@$$CBV?$basic_string@DU?$char_traits@D@std@@V?$allocator@D@2@@std@@V12@@std@@PAX@std@@@1@PAU?$_Tree_node@U?$pair@$$CBV?$basic_string@DU?$char_traits@D@std@@V?$allocator@D@2@@std@@V12@@std@@PAX@1@ABUpiecewise_construct_t@1@$$QAV?$tuple@ABV?$basic_string@DU?$char_traits@D@std@@V?$allocator@D@2@@std@@@1@$$QAV?$tuple@$$V@1@@Z DD 0ffffffffH
	DD	FLAT:__unwindfunclet$??$?0ABUpiecewise_construct_t@std@@V?$tuple@ABV?$basic_string@DU?$char_traits@D@std@@V?$allocator@D@2@@std@@@1@V?$tuple@$$V@1@@?$_Tree_temp_node@V?$allocator@U?$_Tree_node@U?$pair@$$CBV?$basic_string@DU?$char_traits@D@std@@V?$allocator@D@2@@std@@V12@@std@@PAX@std@@@std@@@std@@QAE@AAV?$allocator@U?$_Tree_node@U?$pair@$$CBV?$basic_string@DU?$char_traits@D@std@@V?$allocator@D@2@@std@@V12@@std@@PAX@std@@@1@PAU?$_Tree_node@U?$pair@$$CBV?$basic_string@DU?$char_traits@D@std@@V?$allocator@D@2@@std@@V12@@std@@PAX@1@ABUpiecewise_construct_t@1@$$QAV?$tuple@ABV?$basic_string@DU?$char_traits@D@std@@V?$allocator@D@2@@std@@@1@$$QAV?$tuple@$$V@1@@Z$1
	DD	0ffffffffH
	DD	FLAT:__unwindfunclet$??$?0ABUpiecewise_construct_t@std@@V?$tuple@ABV?$basic_string@DU?$char_traits@D@std@@V?$allocator@D@2@@std@@@1@V?$tuple@$$V@1@@?$_Tree_temp_node@V?$allocator@U?$_Tree_node@U?$pair@$$CBV?$basic_string@DU?$char_traits@D@std@@V?$allocator@D@2@@std@@V12@@std@@PAX@std@@@std@@@std@@QAE@AAV?$allocator@U?$_Tree_node@U?$pair@$$CBV?$basic_string@DU?$char_traits@D@std@@V?$allocator@D@2@@std@@V12@@std@@PAX@std@@@1@PAU?$_Tree_node@U?$pair@$$CBV?$basic_string@DU?$char_traits@D@std@@V?$allocator@D@2@@std@@V12@@std@@PAX@1@ABUpiecewise_construct_t@1@$$QAV?$tuple@ABV?$basic_string@DU?$char_traits@D@std@@V?$allocator@D@2@@std@@@1@$$QAV?$tuple@$$V@1@@Z$0
__ehfuncinfo$??$?0ABUpiecewise_construct_t@std@@V?$tuple@ABV?$basic_string@DU?$char_traits@D@std@@V?$allocator@D@2@@std@@@1@V?$tuple@$$V@1@@?$_Tree_temp_node@V?$allocator@U?$_Tree_node@U?$pair@$$CBV?$basic_string@DU?$char_traits@D@std@@V?$allocator@D@2@@std@@V12@@std@@PAX@std@@@std@@@std@@QAE@AAV?$allocator@U?$_Tree_node@U?$pair@$$CBV?$basic_string@DU?$char_traits@D@std@@V?$allocator@D@2@@std@@V12@@std@@PAX@std@@@1@PAU?$_Tree_node@U?$pair@$$CBV?$basic_string@DU?$char_traits@D@std@@V?$allocator@D@2@@std@@V12@@std@@PAX@1@ABUpiecewise_construct_t@1@$$QAV?$tuple@ABV?$basic_string@DU?$char_traits@D@std@@V?$allocator@D@2@@std@@@1@$$QAV?$tuple@$$V@1@@Z DD 019930522H
	DD	02H
	DD	FLAT:__unwindtable$??$?0ABUpiecewise_construct_t@std@@V?$tuple@ABV?$basic_string@DU?$char_traits@D@std@@V?$allocator@D@2@@std@@@1@V?$tuple@$$V@1@@?$_Tree_temp_node@V?$allocator@U?$_Tree_node@U?$pair@$$CBV?$basic_string@DU?$char_traits@D@std@@V?$allocator@D@2@@std@@V12@@std@@PAX@std@@@std@@@std@@QAE@AAV?$allocator@U?$_Tree_node@U?$pair@$$CBV?$basic_string@DU?$char_traits@D@std@@V?$allocator@D@2@@std@@V12@@std@@PAX@std@@@1@PAU?$_Tree_node@U?$pair@$$CBV?$basic_string@DU?$char_traits@D@std@@V?$allocator@D@2@@std@@V12@@std@@PAX@1@ABUpiecewise_construct_t@1@$$QAV?$tuple@ABV?$basic_string@DU?$char_traits@D@std@@V?$allocator@D@2@@std@@@1@$$QAV?$tuple@$$V@1@@Z
	DD	2 DUP(00H)
	DD	2 DUP(00H)
	DD	00H
	DD	01H
xdata$x	ENDS
;	COMDAT xdata$x
xdata$x	SEGMENT
__catchsym$??$_Emplace_reallocate@ABV?$basic_string@DU?$char_traits@D@std@@V?$allocator@D@2@@std@@@?$vector@V?$basic_string@DU?$char_traits@D@std@@V?$allocator@D@2@@std@@V?$allocator@V?$basic_string@DU?$char_traits@D@std@@V?$allocator@D@2@@std@@@2@@std@@QAEPAV?$basic_string@DU?$char_traits@D@std@@V?$allocator@D@2@@1@QAV21@ABV21@@Z$39 DD 040H
	DD	00H
	DD	00H
	DD	FLAT:__catch$??$_Emplace_reallocate@ABV?$basic_string@DU?$char_traits@D@std@@V?$allocator@D@2@@std@@@?$vector@V?$basic_string@DU?$char_traits@D@std@@V?$allocator@D@2@@std@@V?$allocator@V?$basic_string@DU?$char_traits@D@std@@V?$allocator@D@2@@std@@@2@@std@@QAEPAV?$basic_string@DU?$char_traits@D@std@@V?$allocator@D@2@@1@QAV21@ABV21@@Z$0
__unwindtable$??$_Emplace_reallocate@ABV?$basic_string@DU?$char_traits@D@std@@V?$allocator@D@2@@std@@@?$vector@V?$basic_string@DU?$char_traits@D@std@@V?$allocator@D@2@@std@@V?$allocator@V?$basic_string@DU?$char_traits@D@std@@V?$allocator@D@2@@std@@@2@@std@@QAEPAV?$basic_string@DU?$char_traits@D@std@@V?$allocator@D@2@@1@QAV21@ABV21@@Z DD 0ffffffffH
	DD	00H
	DD	0ffffffffH
	DD	00H
__tryblocktable$??$_Emplace_reallocate@ABV?$basic_string@DU?$char_traits@D@std@@V?$allocator@D@2@@std@@@?$vector@V?$basic_string@DU?$char_traits@D@std@@V?$allocator@D@2@@std@@V?$allocator@V?$basic_string@DU?$char_traits@D@std@@V?$allocator@D@2@@std@@@2@@std@@QAEPAV?$basic_string@DU?$char_traits@D@std@@V?$allocator@D@2@@1@QAV21@ABV21@@Z DD 00H
	DD	00H
	DD	01H
	DD	01H
	DD	FLAT:__catchsym$??$_Emplace_reallocate@ABV?$basic_string@DU?$char_traits@D@std@@V?$allocator@D@2@@std@@@?$vector@V?$basic_string@DU?$char_traits@D@std@@V?$allocator@D@2@@std@@V?$allocator@V?$basic_string@DU?$char_traits@D@std@@V?$allocator@D@2@@std@@@2@@std@@QAEPAV?$basic_string@DU?$char_traits@D@std@@V?$allocator@D@2@@1@QAV21@ABV21@@Z$39
__ehfuncinfo$??$_Emplace_reallocate@ABV?$basic_string@DU?$char_traits@D@std@@V?$allocator@D@2@@std@@@?$vector@V?$basic_string@DU?$char_traits@D@std@@V?$allocator@D@2@@std@@V?$allocator@V?$basic_string@DU?$char_traits@D@std@@V?$allocator@D@2@@std@@@2@@std@@QAEPAV?$basic_string@DU?$char_traits@D@std@@V?$allocator@D@2@@1@QAV21@ABV21@@Z DD 019930522H
	DD	02H
	DD	FLAT:__unwindtable$??$_Emplace_reallocate@ABV?$basic_string@DU?$char_traits@D@std@@V?$allocator@D@2@@std@@@?$vector@V?$basic_string@DU?$char_traits@D@std@@V?$allocator@D@2@@std@@V?$allocator@V?$basic_string@DU?$char_traits@D@std@@V?$allocator@D@2@@std@@@2@@std@@QAEPAV?$basic_string@DU?$char_traits@D@std@@V?$allocator@D@2@@1@QAV21@ABV21@@Z
	DD	01H
	DD	FLAT:__tryblocktable$??$_Emplace_reallocate@ABV?$basic_string@DU?$char_traits@D@std@@V?$allocator@D@2@@std@@@?$vector@V?$basic_string@DU?$char_traits@D@std@@V?$allocator@D@2@@std@@V?$allocator@V?$basic_string@DU?$char_traits@D@std@@V?$allocator@D@2@@std@@@2@@std@@QAEPAV?$basic_string@DU?$char_traits@D@std@@V?$allocator@D@2@@1@QAV21@ABV21@@Z
	DD	2 DUP(00H)
	DD	00H
	DD	01H
xdata$x	ENDS
;	COMDAT xdata$x
xdata$x	SEGMENT
__unwindtable$?SetDefaultCodePage@@YA_NK@Z DD 0ffffffffH
	DD	FLAT:__unwindfunclet$?SetDefaultCodePage@@YA_NK@Z$0
__ehfuncinfo$?SetDefaultCodePage@@YA_NK@Z DD 019930522H
	DD	01H
	DD	FLAT:__unwindtable$?SetDefaultCodePage@@YA_NK@Z
	DD	2 DUP(00H)
	DD	2 DUP(00H)
	DD	00H
	DD	01H
xdata$x	ENDS
;	COMDAT xdata$x
xdata$x	SEGMENT
__ehfuncinfo$?LoadMultipleTextData@@YA_NPBDAAV?$map@V?$basic_string@DU?$char_traits@D@std@@V?$allocator@D@2@@std@@V?$vector@V?$basic_string@DU?$char_traits@D@std@@V?$allocator@D@2@@std@@V?$allocator@V?$basic_string@DU?$char_traits@D@std@@V?$allocator@D@2@@std@@@2@@2@U?$less@V?$basic_string@DU?$char_traits@D@std@@V?$allocator@D@2@@std@@@2@V?$allocator@U?$pair@$$CBV?$basic_string@DU?$char_traits@D@std@@V?$allocator@D@2@@std@@V?$vector@V?$basic_string@DU?$char_traits@D@std@@V?$allocator@D@2@@std@@V?$allocator@V?$basic_string@DU?$char_traits@D@std@@V?$allocator@D@2@@std@@@2@@2@@std@@@2@@std@@@Z DD 019930522H
	DD	0aH
	DD	FLAT:__unwindtable$?LoadMultipleTextData@@YA_NPBDAAV?$map@V?$basic_string@DU?$char_traits@D@std@@V?$allocator@D@2@@std@@V?$vector@V?$basic_string@DU?$char_traits@D@std@@V?$allocator@D@2@@std@@V?$allocator@V?$basic_string@DU?$char_traits@D@std@@V?$allocator@D@2@@std@@@2@@2@U?$less@V?$basic_string@DU?$char_traits@D@std@@V?$allocator@D@2@@std@@@2@V?$allocator@U?$pair@$$CBV?$basic_string@DU?$char_traits@D@std@@V?$allocator@D@2@@std@@V?$vector@V?$basic_string@DU?$char_traits@D@std@@V?$allocator@D@2@@std@@V?$allocator@V?$basic_string@DU?$char_traits@D@std@@V?$allocator@D@2@@std@@@2@@2@@std@@@2@@std@@@Z
	DD	2 DUP(00H)
	DD	2 DUP(00H)
	DD	00H
	DD	01H
__unwindtable$?LoadMultipleTextData@@YA_NPBDAAV?$map@V?$basic_string@DU?$char_traits@D@std@@V?$allocator@D@2@@std@@V?$vector@V?$basic_string@DU?$char_traits@D@std@@V?$allocator@D@2@@std@@V?$allocator@V?$basic_string@DU?$char_traits@D@std@@V?$allocator@D@2@@std@@@2@@2@U?$less@V?$basic_string@DU?$char_traits@D@std@@V?$allocator@D@2@@std@@@2@V?$allocator@U?$pair@$$CBV?$basic_string@DU?$char_traits@D@std@@V?$allocator@D@2@@std@@V?$vector@V?$basic_string@DU?$char_traits@D@std@@V?$allocator@D@2@@std@@V?$allocator@V?$basic_string@DU?$char_traits@D@std@@V?$allocator@D@2@@std@@@2@@2@@std@@@2@@std@@@Z DD 0ffffffffH
	DD	FLAT:__unwindfunclet$?LoadMultipleTextData@@YA_NPBDAAV?$map@V?$basic_string@DU?$char_traits@D@std@@V?$allocator@D@2@@std@@V?$vector@V?$basic_string@DU?$char_traits@D@std@@V?$allocator@D@2@@std@@V?$allocator@V?$basic_string@DU?$char_traits@D@std@@V?$allocator@D@2@@std@@@2@@2@U?$less@V?$basic_string@DU?$char_traits@D@std@@V?$allocator@D@2@@std@@@2@V?$allocator@U?$pair@$$CBV?$basic_string@DU?$char_traits@D@std@@V?$allocator@D@2@@std@@V?$vector@V?$basic_string@DU?$char_traits@D@std@@V?$allocator@D@2@@std@@V?$allocator@V?$basic_string@DU?$char_traits@D@std@@V?$allocator@D@2@@std@@@2@@2@@std@@@2@@std@@@Z$0
	DD	00H
	DD	FLAT:__unwindfunclet$?LoadMultipleTextData@@YA_NPBDAAV?$map@V?$basic_string@DU?$char_traits@D@std@@V?$allocator@D@2@@std@@V?$vector@V?$basic_string@DU?$char_traits@D@std@@V?$allocator@D@2@@std@@V?$allocator@V?$basic_string@DU?$char_traits@D@std@@V?$allocator@D@2@@std@@@2@@2@U?$less@V?$basic_string@DU?$char_traits@D@std@@V?$allocator@D@2@@std@@@2@V?$allocator@U?$pair@$$CBV?$basic_string@DU?$char_traits@D@std@@V?$allocator@D@2@@std@@V?$vector@V?$basic_string@DU?$char_traits@D@std@@V?$allocator@D@2@@std@@V?$allocator@V?$basic_string@DU?$char_traits@D@std@@V?$allocator@D@2@@std@@@2@@2@@std@@@2@@std@@@Z$1
	DD	01H
	DD	FLAT:__unwindfunclet$?LoadMultipleTextData@@YA_NPBDAAV?$map@V?$basic_string@DU?$char_traits@D@std@@V?$allocator@D@2@@std@@V?$vector@V?$basic_string@DU?$char_traits@D@std@@V?$allocator@D@2@@std@@V?$allocator@V?$basic_string@DU?$char_traits@D@std@@V?$allocator@D@2@@std@@@2@@2@U?$less@V?$basic_string@DU?$char_traits@D@std@@V?$allocator@D@2@@std@@@2@V?$allocator@U?$pair@$$CBV?$basic_string@DU?$char_traits@D@std@@V?$allocator@D@2@@std@@V?$vector@V?$basic_string@DU?$char_traits@D@std@@V?$allocator@D@2@@std@@V?$allocator@V?$basic_string@DU?$char_traits@D@std@@V?$allocator@D@2@@std@@@2@@2@@std@@@2@@std@@@Z$2
	DD	02H
	DD	FLAT:__unwindfunclet$?LoadMultipleTextData@@YA_NPBDAAV?$map@V?$basic_string@DU?$char_traits@D@std@@V?$allocator@D@2@@std@@V?$vector@V?$basic_string@DU?$char_traits@D@std@@V?$allocator@D@2@@std@@V?$allocator@V?$basic_string@DU?$char_traits@D@std@@V?$allocator@D@2@@std@@@2@@2@U?$less@V?$basic_string@DU?$char_traits@D@std@@V?$allocator@D@2@@std@@@2@V?$allocator@U?$pair@$$CBV?$basic_string@DU?$char_traits@D@std@@V?$allocator@D@2@@std@@V?$vector@V?$basic_string@DU?$char_traits@D@std@@V?$allocator@D@2@@std@@V?$allocator@V?$basic_string@DU?$char_traits@D@std@@V?$allocator@D@2@@std@@@2@@2@@std@@@2@@std@@@Z$3
	DD	03H
	DD	FLAT:__unwindfunclet$?LoadMultipleTextData@@YA_NPBDAAV?$map@V?$basic_string@DU?$char_traits@D@std@@V?$allocator@D@2@@std@@V?$vector@V?$basic_string@DU?$char_traits@D@std@@V?$allocator@D@2@@std@@V?$allocator@V?$basic_string@DU?$char_traits@D@std@@V?$allocator@D@2@@std@@@2@@2@U?$less@V?$basic_string@DU?$char_traits@D@std@@V?$allocator@D@2@@std@@@2@V?$allocator@U?$pair@$$CBV?$basic_string@DU?$char_traits@D@std@@V?$allocator@D@2@@std@@V?$vector@V?$basic_string@DU?$char_traits@D@std@@V?$allocator@D@2@@std@@V?$allocator@V?$basic_string@DU?$char_traits@D@std@@V?$allocator@D@2@@std@@@2@@2@@std@@@2@@std@@@Z$4
	DD	04H
	DD	FLAT:__unwindfunclet$?LoadMultipleTextData@@YA_NPBDAAV?$map@V?$basic_string@DU?$char_traits@D@std@@V?$allocator@D@2@@std@@V?$vector@V?$basic_string@DU?$char_traits@D@std@@V?$allocator@D@2@@std@@V?$allocator@V?$basic_string@DU?$char_traits@D@std@@V?$allocator@D@2@@std@@@2@@2@U?$less@V?$basic_string@DU?$char_traits@D@std@@V?$allocator@D@2@@std@@@2@V?$allocator@U?$pair@$$CBV?$basic_string@DU?$char_traits@D@std@@V?$allocator@D@2@@std@@V?$vector@V?$basic_string@DU?$char_traits@D@std@@V?$allocator@D@2@@std@@V?$allocator@V?$basic_string@DU?$char_traits@D@std@@V?$allocator@D@2@@std@@@2@@2@@std@@@2@@std@@@Z$37
	DD	04H
	DD	FLAT:__unwindfunclet$?LoadMultipleTextData@@YA_NPBDAAV?$map@V?$basic_string@DU?$char_traits@D@std@@V?$allocator@D@2@@std@@V?$vector@V?$basic_string@DU?$char_traits@D@std@@V?$allocator@D@2@@std@@V?$allocator@V?$basic_string@DU?$char_traits@D@std@@V?$allocator@D@2@@std@@@2@@2@U?$less@V?$basic_string@DU?$char_traits@D@std@@V?$allocator@D@2@@std@@@2@V?$allocator@U?$pair@$$CBV?$basic_string@DU?$char_traits@D@std@@V?$allocator@D@2@@std@@V?$vector@V?$basic_string@DU?$char_traits@D@std@@V?$allocator@D@2@@std@@V?$allocator@V?$basic_string@DU?$char_traits@D@std@@V?$allocator@D@2@@std@@@2@@2@@std@@@2@@std@@@Z$5
	DD	02H
	DD	FLAT:__unwindfunclet$?LoadMultipleTextData@@YA_NPBDAAV?$map@V?$basic_string@DU?$char_traits@D@std@@V?$allocator@D@2@@std@@V?$vector@V?$basic_string@DU?$char_traits@D@std@@V?$allocator@D@2@@std@@V?$allocator@V?$basic_string@DU?$char_traits@D@std@@V?$allocator@D@2@@std@@@2@@2@U?$less@V?$basic_string@DU?$char_traits@D@std@@V?$allocator@D@2@@std@@@2@V?$allocator@U?$pair@$$CBV?$basic_string@DU?$char_traits@D@std@@V?$allocator@D@2@@std@@V?$vector@V?$basic_string@DU?$char_traits@D@std@@V?$allocator@D@2@@std@@V?$allocator@V?$basic_string@DU?$char_traits@D@std@@V?$allocator@D@2@@std@@@2@@2@@std@@@2@@std@@@Z$6
	DD	07H
	DD	FLAT:__unwindfunclet$?LoadMultipleTextData@@YA_NPBDAAV?$map@V?$basic_string@DU?$char_traits@D@std@@V?$allocator@D@2@@std@@V?$vector@V?$basic_string@DU?$char_traits@D@std@@V?$allocator@D@2@@std@@V?$allocator@V?$basic_string@DU?$char_traits@D@std@@V?$allocator@D@2@@std@@@2@@2@U?$less@V?$basic_string@DU?$char_traits@D@std@@V?$allocator@D@2@@std@@@2@V?$allocator@U?$pair@$$CBV?$basic_string@DU?$char_traits@D@std@@V?$allocator@D@2@@std@@V?$vector@V?$basic_string@DU?$char_traits@D@std@@V?$allocator@D@2@@std@@V?$allocator@V?$basic_string@DU?$char_traits@D@std@@V?$allocator@D@2@@std@@@2@@2@@std@@@2@@std@@@Z$85
	DD	07H
	DD	FLAT:__unwindfunclet$?LoadMultipleTextData@@YA_NPBDAAV?$map@V?$basic_string@DU?$char_traits@D@std@@V?$allocator@D@2@@std@@V?$vector@V?$basic_string@DU?$char_traits@D@std@@V?$allocator@D@2@@std@@V?$allocator@V?$basic_string@DU?$char_traits@D@std@@V?$allocator@D@2@@std@@@2@@2@U?$less@V?$basic_string@DU?$char_traits@D@std@@V?$allocator@D@2@@std@@@2@V?$allocator@U?$pair@$$CBV?$basic_string@DU?$char_traits@D@std@@V?$allocator@D@2@@std@@V?$vector@V?$basic_string@DU?$char_traits@D@std@@V?$allocator@D@2@@std@@V?$allocator@V?$basic_string@DU?$char_traits@D@std@@V?$allocator@D@2@@std@@@2@@2@@std@@@2@@std@@@Z$7
xdata$x	ENDS
;	COMDAT xdata$x
xdata$x	SEGMENT
__unwindtable$?LoadTextData@@YA_NPBDAAV?$map@V?$basic_string@DU?$char_traits@D@std@@V?$allocator@D@2@@std@@V12@U?$less@V?$basic_string@DU?$char_traits@D@std@@V?$allocator@D@2@@std@@@2@V?$allocator@U?$pair@$$CBV?$basic_string@DU?$char_traits@D@std@@V?$allocator@D@2@@std@@V12@@std@@@2@@std@@@Z DD 0ffffffffH
	DD	FLAT:__unwindfunclet$?LoadTextData@@YA_NPBDAAV?$map@V?$basic_string@DU?$char_traits@D@std@@V?$allocator@D@2@@std@@V12@U?$less@V?$basic_string@DU?$char_traits@D@std@@V?$allocator@D@2@@std@@@2@V?$allocator@U?$pair@$$CBV?$basic_string@DU?$char_traits@D@std@@V?$allocator@D@2@@std@@V12@@std@@@2@@std@@@Z$0
	DD	00H
	DD	FLAT:__unwindfunclet$?LoadTextData@@YA_NPBDAAV?$map@V?$basic_string@DU?$char_traits@D@std@@V?$allocator@D@2@@std@@V12@U?$less@V?$basic_string@DU?$char_traits@D@std@@V?$allocator@D@2@@std@@@2@V?$allocator@U?$pair@$$CBV?$basic_string@DU?$char_traits@D@std@@V?$allocator@D@2@@std@@V12@@std@@@2@@std@@@Z$1
	DD	01H
	DD	FLAT:__unwindfunclet$?LoadTextData@@YA_NPBDAAV?$map@V?$basic_string@DU?$char_traits@D@std@@V?$allocator@D@2@@std@@V12@U?$less@V?$basic_string@DU?$char_traits@D@std@@V?$allocator@D@2@@std@@@2@V?$allocator@U?$pair@$$CBV?$basic_string@DU?$char_traits@D@std@@V?$allocator@D@2@@std@@V12@@std@@@2@@std@@@Z$2
__ehfuncinfo$?LoadTextData@@YA_NPBDAAV?$map@V?$basic_string@DU?$char_traits@D@std@@V?$allocator@D@2@@std@@V12@U?$less@V?$basic_string@DU?$char_traits@D@std@@V?$allocator@D@2@@std@@@2@V?$allocator@U?$pair@$$CBV?$basic_string@DU?$char_traits@D@std@@V?$allocator@D@2@@std@@V12@@std@@@2@@std@@@Z DD 019930522H
	DD	03H
	DD	FLAT:__unwindtable$?LoadTextData@@YA_NPBDAAV?$map@V?$basic_string@DU?$char_traits@D@std@@V?$allocator@D@2@@std@@V12@U?$less@V?$basic_string@DU?$char_traits@D@std@@V?$allocator@D@2@@std@@@2@V?$allocator@U?$pair@$$CBV?$basic_string@DU?$char_traits@D@std@@V?$allocator@D@2@@std@@V12@@std@@@2@@std@@@Z
	DD	2 DUP(00H)
	DD	2 DUP(00H)
	DD	00H
	DD	01H
xdata$x	ENDS
;	COMDAT xdata$x
xdata$x	SEGMENT
__ehfuncinfo$?erase@?$vector@V?$basic_string@DU?$char_traits@D@std@@V?$allocator@D@2@@std@@V?$allocator@V?$basic_string@DU?$char_traits@D@std@@V?$allocator@D@2@@std@@@2@@std@@QAE?AV?$_Vector_iterator@V?$_Vector_val@U?$_Simple_types@V?$basic_string@DU?$char_traits@D@std@@V?$allocator@D@2@@std@@@std@@@std@@@2@V?$_Vector_const_iterator@V?$_Vector_val@U?$_Simple_types@V?$basic_string@DU?$char_traits@D@std@@V?$allocator@D@2@@std@@@std@@@std@@@2@@Z DD 019930522H
	DD	00H
	DD	00H
	DD	2 DUP(00H)
	DD	2 DUP(00H)
	DD	00H
	DD	05H
xdata$x	ENDS
;	COMDAT xdata$x
xdata$x	SEGMENT
__unwindtable$??0?$vector@V?$basic_string@DU?$char_traits@D@std@@V?$allocator@D@2@@std@@V?$allocator@V?$basic_string@DU?$char_traits@D@std@@V?$allocator@D@2@@std@@@2@@std@@QAE@ABV01@@Z DD 0ffffffffH
	DD	FLAT:__unwindfunclet$??0?$vector@V?$basic_string@DU?$char_traits@D@std@@V?$allocator@D@2@@std@@V?$allocator@V?$basic_string@DU?$char_traits@D@std@@V?$allocator@D@2@@std@@@2@@std@@QAE@ABV01@@Z$0
__ehfuncinfo$??0?$vector@V?$basic_string@DU?$char_traits@D@std@@V?$allocator@D@2@@std@@V?$allocator@V?$basic_string@DU?$char_traits@D@std@@V?$allocator@D@2@@std@@@2@@std@@QAE@ABV01@@Z DD 019930522H
	DD	01H
	DD	FLAT:__unwindtable$??0?$vector@V?$basic_string@DU?$char_traits@D@std@@V?$allocator@D@2@@std@@V?$allocator@V?$basic_string@DU?$char_traits@D@std@@V?$allocator@D@2@@std@@@2@@std@@QAE@ABV01@@Z
	DD	2 DUP(00H)
	DD	2 DUP(00H)
	DD	00H
	DD	01H
xdata$x	ENDS
;	COMDAT xdata$x
xdata$x	SEGMENT
__ehfuncinfo$??$_Deallocate@$07$0A@@std@@YAXPAXI@Z DD 019930522H
	DD	00H
	DD	00H
	DD	2 DUP(00H)
	DD	2 DUP(00H)
	DD	00H
	DD	05H
xdata$x	ENDS
;	COMDAT xdata$x
xdata$x	SEGMENT
__unwindtable$??0?$basic_string@DU?$char_traits@D@std@@V?$allocator@D@2@@std@@QAE@QBD@Z DD 0ffffffffH
	DD	FLAT:__unwindfunclet$??0?$basic_string@DU?$char_traits@D@std@@V?$allocator@D@2@@std@@QAE@QBD@Z$0
__ehfuncinfo$??0?$basic_string@DU?$char_traits@D@std@@V?$allocator@D@2@@std@@QAE@QBD@Z DD 019930522H
	DD	01H
	DD	FLAT:__unwindtable$??0?$basic_string@DU?$char_traits@D@std@@V?$allocator@D@2@@std@@QAE@QBD@Z
	DD	2 DUP(00H)
	DD	2 DUP(00H)
	DD	00H
	DD	01H
xdata$x	ENDS
;	COMDAT xdata$x
xdata$x	SEGMENT
__unwindtable$??0?$basic_string@DU?$char_traits@D@std@@V?$allocator@D@2@@std@@QAE@ABV01@@Z DD 0ffffffffH
	DD	FLAT:__unwindfunclet$??0?$basic_string@DU?$char_traits@D@std@@V?$allocator@D@2@@std@@QAE@ABV01@@Z$0
__ehfuncinfo$??0?$basic_string@DU?$char_traits@D@std@@V?$allocator@D@2@@std@@QAE@ABV01@@Z DD 019930522H
	DD	01H
	DD	FLAT:__unwindtable$??0?$basic_string@DU?$char_traits@D@std@@V?$allocator@D@2@@std@@QAE@ABV01@@Z
	DD	2 DUP(00H)
	DD	2 DUP(00H)
	DD	00H
	DD	01H
xdata$x	ENDS
; Function compile flags: /Odspy
; File C:\Program Files (x86)\Microsoft Visual Studio\2019\Community\VC\Tools\MSVC\14.28.29333\include\xmemory
; File C:\Program Files (x86)\Microsoft Visual Studio\2019\Community\VC\Tools\MSVC\14.28.29333\include\type_traits
; File C:\Program Files (x86)\Microsoft Visual Studio\2019\Community\VC\Tools\MSVC\14.28.29333\include\xmemory
; File C:\Program Files (x86)\Microsoft Visual Studio\2019\Community\VC\Tools\MSVC\14.28.29333\include\xstddef
; File C:\Program Files (x86)\Microsoft Visual Studio\2019\Community\VC\Tools\MSVC\14.28.29333\include\xmemory
; File C:\Program Files (x86)\Microsoft Visual Studio\2019\Community\VC\Tools\MSVC\14.28.29333\include\vcruntime_new.h
; File C:\Program Files (x86)\Microsoft Visual Studio\2019\Community\VC\Tools\MSVC\14.28.29333\include\type_traits
; File C:\Program Files (x86)\Microsoft Visual Studio\2019\Community\VC\Tools\MSVC\14.28.29333\include\xmemory
;	COMDAT ??$_Emplace_back@AAV?$basic_string@DU?$char_traits@D@std@@V?$allocator@D@2@@std@@@?$_Uninitialized_backout_al@V?$allocator@V?$basic_string@DU?$char_traits@D@std@@V?$allocator@D@2@@std@@@std@@@std@@QAEXAAV?$basic_string@DU?$char_traits@D@std@@V?$allocator@D@2@@1@@Z
_TEXT	SEGMENT
___formal$ = -28					; size = 4
$T1 = -24						; size = 4
$T2 = -20						; size = 4
$T3 = -16						; size = 4
$T4 = -12						; size = 4
__Ptr$ = -8						; size = 4
_this$ = -4						; size = 4
_<_Vals_0>$ = 8						; size = 4
??$_Emplace_back@AAV?$basic_string@DU?$char_traits@D@std@@V?$allocator@D@2@@std@@@?$_Uninitialized_backout_al@V?$allocator@V?$basic_string@DU?$char_traits@D@std@@V?$allocator@D@2@@std@@@std@@@std@@QAEXAAV?$basic_string@DU?$char_traits@D@std@@V?$allocator@D@2@@1@@Z PROC ; std::_Uninitialized_backout_al<std::allocator<std::basic_string<char,std::char_traits<char>,std::allocator<char> > > >::_Emplace_back<std::basic_string<char,std::char_traits<char>,std::allocator<char> > &>, COMDAT
; _this$ = ecx

; 1545 :     void _Emplace_back(_Types&&... _Vals) { // construct a new element at *_Last and increment

  00000	55		 push	 ebp
  00001	8b ec		 mov	 ebp, esp
  00003	83 ec 1c	 sub	 esp, 28			; 0000001cH
  00006	89 4d fc	 mov	 DWORD PTR _this$[ebp], ecx
; File C:\Program Files (x86)\Microsoft Visual Studio\2019\Community\VC\Tools\MSVC\14.28.29333\include\type_traits

; 1443 :     return static_cast<_Ty&&>(_Arg);

  00009	8b 45 08	 mov	 eax, DWORD PTR _<_Vals_0>$[ebp]
  0000c	89 45 f0	 mov	 DWORD PTR $T3[ebp], eax
; File C:\Program Files (x86)\Microsoft Visual Studio\2019\Community\VC\Tools\MSVC\14.28.29333\include\xmemory

; 1546 :         allocator_traits<_Alloc>::construct(_Al, _Unfancy(_Last), _STD forward<_Types>(_Vals)...);

  0000f	8b 45 fc	 mov	 eax, DWORD PTR _this$[ebp]
  00012	8b 40 04	 mov	 eax, DWORD PTR [eax+4]
  00015	89 45 f8	 mov	 DWORD PTR __Ptr$[ebp], eax
; File C:\Program Files (x86)\Microsoft Visual Studio\2019\Community\VC\Tools\MSVC\14.28.29333\include\xstddef

; 289  :     return _Ptr;

  00018	8b 45 f8	 mov	 eax, DWORD PTR __Ptr$[ebp]
  0001b	89 45 f4	 mov	 DWORD PTR $T4[ebp], eax
; File C:\Program Files (x86)\Microsoft Visual Studio\2019\Community\VC\Tools\MSVC\14.28.29333\include\xmemory

; 1546 :         allocator_traits<_Alloc>::construct(_Al, _Unfancy(_Last), _STD forward<_Types>(_Vals)...);

  0001e	8b 45 fc	 mov	 eax, DWORD PTR _this$[ebp]
  00021	8b 40 08	 mov	 eax, DWORD PTR [eax+8]
  00024	89 45 e4	 mov	 DWORD PTR ___formal$[ebp], eax
; File C:\Program Files (x86)\Microsoft Visual Studio\2019\Community\VC\Tools\MSVC\14.28.29333\include\vcruntime_new.h

; 169  :         return _Where;

  00027	8b 45 f4	 mov	 eax, DWORD PTR $T4[ebp]
  0002a	89 45 e8	 mov	 DWORD PTR $T1[ebp], eax
; File C:\Program Files (x86)\Microsoft Visual Studio\2019\Community\VC\Tools\MSVC\14.28.29333\include\type_traits

; 1443 :     return static_cast<_Ty&&>(_Arg);

  0002d	8b 45 f0	 mov	 eax, DWORD PTR $T3[ebp]
  00030	89 45 ec	 mov	 DWORD PTR $T2[ebp], eax
; File C:\Program Files (x86)\Microsoft Visual Studio\2019\Community\VC\Tools\MSVC\14.28.29333\include\xmemory

; 701  :         ::new (const_cast<void*>(static_cast<const volatile void*>(_Ptr))) _Objty(_STD forward<_Types>(_Args)...);

  00033	ff 75 ec	 push	 DWORD PTR $T2[ebp]
  00036	8b 4d e8	 mov	 ecx, DWORD PTR $T1[ebp]
  00039	e8 00 00 00 00	 call	 ??0?$basic_string@DU?$char_traits@D@std@@V?$allocator@D@2@@std@@QAE@ABV01@@Z ; std::basic_string<char,std::char_traits<char>,std::allocator<char> >::basic_string<char,std::char_traits<char>,std::allocator<char> >

; 1547 :         ++_Last;

  0003e	8b 45 fc	 mov	 eax, DWORD PTR _this$[ebp]
  00041	8b 40 04	 mov	 eax, DWORD PTR [eax+4]
  00044	83 c0 18	 add	 eax, 24			; 00000018H
  00047	8b 4d fc	 mov	 ecx, DWORD PTR _this$[ebp]
  0004a	89 41 04	 mov	 DWORD PTR [ecx+4], eax

; 1548 :     }

  0004d	c9		 leave
  0004e	c2 04 00	 ret	 4
??$_Emplace_back@AAV?$basic_string@DU?$char_traits@D@std@@V?$allocator@D@2@@std@@@?$_Uninitialized_backout_al@V?$allocator@V?$basic_string@DU?$char_traits@D@std@@V?$allocator@D@2@@std@@@std@@@std@@QAEXAAV?$basic_string@DU?$char_traits@D@std@@V?$allocator@D@2@@1@@Z ENDP ; std::_Uninitialized_backout_al<std::allocator<std::basic_string<char,std::char_traits<char>,std::allocator<char> > > >::_Emplace_back<std::basic_string<char,std::char_traits<char>,std::allocator<char> > &>
_TEXT	ENDS
; Function compile flags: /Odspy
; File C:\Program Files (x86)\Microsoft Visual Studio\2019\Community\VC\Tools\MSVC\14.28.29333\include\tuple
; File C:\Program Files (x86)\Microsoft Visual Studio\2019\Community\VC\Tools\MSVC\14.28.29333\include\type_traits
; File C:\Program Files (x86)\Microsoft Visual Studio\2019\Community\VC\Tools\MSVC\14.28.29333\include\tuple
;	COMDAT ??$?0ABV?$basic_string@DU?$char_traits@D@std@@V?$allocator@D@2@@std@@$$Z$$V@?$pair@$$CBV?$basic_string@DU?$char_traits@D@std@@V?$allocator@D@2@@std@@V12@@std@@QAE@Upiecewise_construct_t@1@V?$tuple@ABV?$basic_string@DU?$char_traits@D@std@@V?$allocator@D@2@@std@@@1@V?$tuple@$$V@1@@Z
_TEXT	SEGMENT
$T1 = -24						; size = 4
$T2 = -20						; size = 4
_this$ = -16						; size = 4
___formal$ = -12					; size = 1
___formal$ = -8						; size = 1
$T3 = -2						; size = 1
$T4 = -1						; size = 1
___formal$ = 8						; size = 1
__Val1$ = 12						; size = 4
__Val2$ = 16						; size = 1
??$?0ABV?$basic_string@DU?$char_traits@D@std@@V?$allocator@D@2@@std@@$$Z$$V@?$pair@$$CBV?$basic_string@DU?$char_traits@D@std@@V?$allocator@D@2@@std@@V12@@std@@QAE@Upiecewise_construct_t@1@V?$tuple@ABV?$basic_string@DU?$char_traits@D@std@@V?$allocator@D@2@@std@@@1@V?$tuple@$$V@1@@Z PROC ; std::pair<std::basic_string<char,std::char_traits<char>,std::allocator<char> > const ,std::basic_string<char,std::char_traits<char>,std::allocator<char> > >::pair<std::basic_string<char,std::char_traits<char>,std::allocator<char> > const ,std::basic_string<char,std::char_traits<char>,std::allocator<char> > ><std::basic_string<char,std::char_traits<char>,std::allocator<char> > const &>, COMDAT
; _this$ = ecx

; 986  :     : pair(_Val1, _Val2, index_sequence_for<_Types1...>{}, index_sequence_for<_Types2...>{}) {}

  00000	55		 push	 ebp
  00001	8b ec		 mov	 ebp, esp
  00003	83 ec 18	 sub	 esp, 24			; 00000018H
  00006	89 4d f0	 mov	 DWORD PTR _this$[ebp], ecx
  00009	33 c0		 xor	 eax, eax
  0000b	88 45 ff	 mov	 BYTE PTR $T4[ebp], al
  0000e	33 c0		 xor	 eax, eax
  00010	88 45 fe	 mov	 BYTE PTR $T3[ebp], al
  00013	8a 45 ff	 mov	 al, BYTE PTR $T4[ebp]
  00016	88 45 f8	 mov	 BYTE PTR ___formal$[ebp], al
  00019	8a 45 fe	 mov	 al, BYTE PTR $T3[ebp]
  0001c	88 45 f4	 mov	 BYTE PTR ___formal$[ebp], al
; File C:\Program Files (x86)\Microsoft Visual Studio\2019\Community\VC\Tools\MSVC\14.28.29333\include\type_traits

; 1455 :     return static_cast<remove_reference_t<_Ty>&&>(_Arg);

  0001f	8d 45 0c	 lea	 eax, DWORD PTR __Val1$[ebp]
  00022	89 45 ec	 mov	 DWORD PTR $T2[ebp], eax
; File C:\Program Files (x86)\Microsoft Visual Studio\2019\Community\VC\Tools\MSVC\14.28.29333\include\tuple

; 790  :     return static_cast<_Ty&&>(static_cast<_Ttype&>(_Tuple)._Myfirst._Val);

  00025	8b 45 ec	 mov	 eax, DWORD PTR $T2[ebp]
  00028	8b 00		 mov	 eax, DWORD PTR [eax]
  0002a	89 45 e8	 mov	 DWORD PTR $T1[ebp], eax

; 980  :     : first(_STD get<_Indexes1>(_STD move(_Val1))...), second(_STD get<_Indexes2>(_STD move(_Val2))...) {}

  0002d	ff 75 e8	 push	 DWORD PTR $T1[ebp]
  00030	8b 4d f0	 mov	 ecx, DWORD PTR _this$[ebp]
  00033	e8 00 00 00 00	 call	 ??0?$basic_string@DU?$char_traits@D@std@@V?$allocator@D@2@@std@@QAE@ABV01@@Z ; std::basic_string<char,std::char_traits<char>,std::allocator<char> >::basic_string<char,std::char_traits<char>,std::allocator<char> >
  00038	8b 4d f0	 mov	 ecx, DWORD PTR _this$[ebp]
  0003b	83 c1 18	 add	 ecx, 24			; 00000018H
  0003e	e8 00 00 00 00	 call	 ??0?$basic_string@DU?$char_traits@D@std@@V?$allocator@D@2@@std@@QAE@XZ ; std::basic_string<char,std::char_traits<char>,std::allocator<char> >::basic_string<char,std::char_traits<char>,std::allocator<char> >

; 986  :     : pair(_Val1, _Val2, index_sequence_for<_Types1...>{}, index_sequence_for<_Types2...>{}) {}

  00043	8b 45 f0	 mov	 eax, DWORD PTR _this$[ebp]
  00046	c9		 leave
  00047	c2 0c 00	 ret	 12			; 0000000cH
??$?0ABV?$basic_string@DU?$char_traits@D@std@@V?$allocator@D@2@@std@@$$Z$$V@?$pair@$$CBV?$basic_string@DU?$char_traits@D@std@@V?$allocator@D@2@@std@@V12@@std@@QAE@Upiecewise_construct_t@1@V?$tuple@ABV?$basic_string@DU?$char_traits@D@std@@V?$allocator@D@2@@std@@@1@V?$tuple@$$V@1@@Z ENDP ; std::pair<std::basic_string<char,std::char_traits<char>,std::allocator<char> > const ,std::basic_string<char,std::char_traits<char>,std::allocator<char> > >::pair<std::basic_string<char,std::char_traits<char>,std::allocator<char> > const ,std::basic_string<char,std::char_traits<char>,std::allocator<char> > ><std::basic_string<char,std::char_traits<char>,std::allocator<char> > const &>
_TEXT	ENDS
; Function compile flags: /Odspy
; File C:\Program Files (x86)\Microsoft Visual Studio\2019\Community\VC\Tools\MSVC\14.28.29333\include\xmemory
; File C:\Program Files (x86)\Microsoft Visual Studio\2019\Community\VC\Tools\MSVC\14.28.29333\include\xstddef
; File C:\Program Files (x86)\Microsoft Visual Studio\2019\Community\VC\Tools\MSVC\14.28.29333\include\vcruntime_new.h
; File C:\Program Files (x86)\Microsoft Visual Studio\2019\Community\VC\Tools\MSVC\14.28.29333\include\type_traits
; File C:\Program Files (x86)\Microsoft Visual Studio\2019\Community\VC\Tools\MSVC\14.28.29333\include\xmemory
;	COMDAT ??$_Construct_in_place@PAU?$_Tree_node@U?$pair@$$CBV?$basic_string@DU?$char_traits@D@std@@V?$allocator@D@2@@std@@V?$vector@V?$basic_string@DU?$char_traits@D@std@@V?$allocator@D@2@@std@@V?$allocator@V?$basic_string@DU?$char_traits@D@std@@V?$allocator@D@2@@std@@@2@@2@@std@@PAX@std@@AAPAU12@@std@@YAXAAPAU?$_Tree_node@U?$pair@$$CBV?$basic_string@DU?$char_traits@D@std@@V?$allocator@D@2@@std@@V?$vector@V?$basic_string@DU?$char_traits@D@std@@V?$allocator@D@2@@std@@V?$allocator@V?$basic_string@DU?$char_traits@D@std@@V?$allocator@D@2@@std@@@2@@2@@std@@PAX@0@0@Z
_TEXT	SEGMENT
$T1 = -12						; size = 4
$T2 = -8						; size = 4
$T3 = -4						; size = 4
__Obj$ = 8						; size = 4
_<_Args_0>$ = 12					; size = 4
??$_Construct_in_place@PAU?$_Tree_node@U?$pair@$$CBV?$basic_string@DU?$char_traits@D@std@@V?$allocator@D@2@@std@@V?$vector@V?$basic_string@DU?$char_traits@D@std@@V?$allocator@D@2@@std@@V?$allocator@V?$basic_string@DU?$char_traits@D@std@@V?$allocator@D@2@@std@@@2@@2@@std@@PAX@std@@AAPAU12@@std@@YAXAAPAU?$_Tree_node@U?$pair@$$CBV?$basic_string@DU?$char_traits@D@std@@V?$allocator@D@2@@std@@V?$vector@V?$basic_string@DU?$char_traits@D@std@@V?$allocator@D@2@@std@@V?$allocator@V?$basic_string@DU?$char_traits@D@std@@V?$allocator@D@2@@std@@@2@@2@@std@@PAX@0@0@Z PROC ; std::_Construct_in_place<std::_Tree_node<std::pair<std::basic_string<char,std::char_traits<char>,std::allocator<char> > const ,std::vector<std::basic_string<char,std::char_traits<char>,std::allocator<char> >,std::allocator<std::basic_string<char,std::char_traits<char>,std::allocator<char> > > > >,void *> *,std::_Tree_node<std::pair<std::basic_string<char,std::char_traits<char>,std::allocator<char> > const ,std::vector<std::basic_string<char,std::char_traits<char>,std::allocator<char> >,std::allocator<std::basic_string<char,std::char_traits<char>,std::allocator<char> > > > >,void *> * &>, COMDAT

; 228  : void _Construct_in_place(_Ty& _Obj, _Types&&... _Args) noexcept(is_nothrow_constructible_v<_Ty, _Types...>) {

  00000	55		 push	 ebp
  00001	8b ec		 mov	 ebp, esp
  00003	83 ec 0c	 sub	 esp, 12			; 0000000cH
; File C:\Program Files (x86)\Microsoft Visual Studio\2019\Community\VC\Tools\MSVC\14.28.29333\include\xstddef

; 275  :     return __builtin_addressof(_Val);

  00006	8b 45 08	 mov	 eax, DWORD PTR __Obj$[ebp]
  00009	89 45 fc	 mov	 DWORD PTR $T3[ebp], eax
; File C:\Program Files (x86)\Microsoft Visual Studio\2019\Community\VC\Tools\MSVC\14.28.29333\include\vcruntime_new.h

; 169  :         return _Where;

  0000c	8b 45 fc	 mov	 eax, DWORD PTR $T3[ebp]
  0000f	89 45 f8	 mov	 DWORD PTR $T2[ebp], eax
; File C:\Program Files (x86)\Microsoft Visual Studio\2019\Community\VC\Tools\MSVC\14.28.29333\include\type_traits

; 1443 :     return static_cast<_Ty&&>(_Arg);

  00012	8b 45 0c	 mov	 eax, DWORD PTR _<_Args_0>$[ebp]
  00015	89 45 f4	 mov	 DWORD PTR $T1[ebp], eax
; File C:\Program Files (x86)\Microsoft Visual Studio\2019\Community\VC\Tools\MSVC\14.28.29333\include\xmemory

; 229  :     ::new (const_cast<void*>(static_cast<const volatile void*>(_STD addressof(_Obj))))

  00018	8b 45 f8	 mov	 eax, DWORD PTR $T2[ebp]
  0001b	8b 4d f4	 mov	 ecx, DWORD PTR $T1[ebp]
  0001e	8b 09		 mov	 ecx, DWORD PTR [ecx]
  00020	89 08		 mov	 DWORD PTR [eax], ecx

; 230  :         _Ty(_STD forward<_Types>(_Args)...);
; 231  : }

  00022	c9		 leave
  00023	c3		 ret	 0
??$_Construct_in_place@PAU?$_Tree_node@U?$pair@$$CBV?$basic_string@DU?$char_traits@D@std@@V?$allocator@D@2@@std@@V?$vector@V?$basic_string@DU?$char_traits@D@std@@V?$allocator@D@2@@std@@V?$allocator@V?$basic_string@DU?$char_traits@D@std@@V?$allocator@D@2@@std@@@2@@2@@std@@PAX@std@@AAPAU12@@std@@YAXAAPAU?$_Tree_node@U?$pair@$$CBV?$basic_string@DU?$char_traits@D@std@@V?$allocator@D@2@@std@@V?$vector@V?$basic_string@DU?$char_traits@D@std@@V?$allocator@D@2@@std@@V?$allocator@V?$basic_string@DU?$char_traits@D@std@@V?$allocator@D@2@@std@@@2@@2@@std@@PAX@0@0@Z ENDP ; std::_Construct_in_place<std::_Tree_node<std::pair<std::basic_string<char,std::char_traits<char>,std::allocator<char> > const ,std::vector<std::basic_string<char,std::char_traits<char>,std::allocator<char> >,std::allocator<std::basic_string<char,std::char_traits<char>,std::allocator<char> > > > >,void *> *,std::_Tree_node<std::pair<std::basic_string<char,std::char_traits<char>,std::allocator<char> > const ,std::vector<std::basic_string<char,std::char_traits<char>,std::allocator<char> >,std::allocator<std::basic_string<char,std::char_traits<char>,std::allocator<char> > > > >,void *> * &>
_TEXT	ENDS
; Function compile flags: /Odspy
; File C:\Program Files (x86)\Microsoft Visual Studio\2019\Community\VC\Tools\MSVC\14.28.29333\include\xstring
;	COMDAT ??$?MDU?$char_traits@D@std@@V?$allocator@D@1@@std@@YA_NABV?$basic_string@DU?$char_traits@D@std@@V?$allocator@D@2@@0@0@Z
_TEXT	SEGMENT
tv68 = -4						; size = 4
__Left$ = 8						; size = 4
__Right$ = 12						; size = 4
??$?MDU?$char_traits@D@std@@V?$allocator@D@1@@std@@YA_NABV?$basic_string@DU?$char_traits@D@std@@V?$allocator@D@2@@0@0@Z PROC ; std::operator<<char,std::char_traits<char>,std::allocator<char> >, COMDAT

; 4586 :     const basic_string<_Elem, _Traits, _Alloc>& _Left, const basic_string<_Elem, _Traits, _Alloc>& _Right) noexcept {

  00000	55		 push	 ebp
  00001	8b ec		 mov	 ebp, esp
  00003	51		 push	 ecx

; 4587 :     return _Left.compare(_Right) < 0;

  00004	ff 75 0c	 push	 DWORD PTR __Right$[ebp]
  00007	8b 4d 08	 mov	 ecx, DWORD PTR __Left$[ebp]
  0000a	e8 00 00 00 00	 call	 ?compare@?$basic_string@DU?$char_traits@D@std@@V?$allocator@D@2@@std@@QBEHABV12@@Z ; std::basic_string<char,std::char_traits<char>,std::allocator<char> >::compare
  0000f	85 c0		 test	 eax, eax
  00011	7d 09		 jge	 SHORT $LN3@operator
  00013	c7 45 fc 01 00
	00 00		 mov	 DWORD PTR tv68[ebp], 1
  0001a	eb 04		 jmp	 SHORT $LN4@operator
$LN3@operator:
  0001c	83 65 fc 00	 and	 DWORD PTR tv68[ebp], 0
$LN4@operator:
  00020	8a 45 fc	 mov	 al, BYTE PTR tv68[ebp]

; 4588 : }

  00023	c9		 leave
  00024	c3		 ret	 0
??$?MDU?$char_traits@D@std@@V?$allocator@D@1@@std@@YA_NABV?$basic_string@DU?$char_traits@D@std@@V?$allocator@D@2@@0@0@Z ENDP ; std::operator<<char,std::char_traits<char>,std::allocator<char> >
_TEXT	ENDS
; Function compile flags: /Odspy
; File C:\Program Files (x86)\Microsoft Visual Studio\2019\Community\VC\Tools\MSVC\14.28.29333\include\xmemory
;	COMDAT ??$_Destroy_in_place@PAU?$_Tree_node@U?$pair@$$CBV?$basic_string@DU?$char_traits@D@std@@V?$allocator@D@2@@std@@V?$vector@V?$basic_string@DU?$char_traits@D@std@@V?$allocator@D@2@@std@@V?$allocator@V?$basic_string@DU?$char_traits@D@std@@V?$allocator@D@2@@std@@@2@@2@@std@@PAX@std@@@std@@YAXAAPAU?$_Tree_node@U?$pair@$$CBV?$basic_string@DU?$char_traits@D@std@@V?$allocator@D@2@@std@@V?$vector@V?$basic_string@DU?$char_traits@D@std@@V?$allocator@D@2@@std@@V?$allocator@V?$basic_string@DU?$char_traits@D@std@@V?$allocator@D@2@@std@@@2@@2@@std@@PAX@0@@Z
_TEXT	SEGMENT
__Obj$ = 8						; size = 4
??$_Destroy_in_place@PAU?$_Tree_node@U?$pair@$$CBV?$basic_string@DU?$char_traits@D@std@@V?$allocator@D@2@@std@@V?$vector@V?$basic_string@DU?$char_traits@D@std@@V?$allocator@D@2@@std@@V?$allocator@V?$basic_string@DU?$char_traits@D@std@@V?$allocator@D@2@@std@@@2@@2@@std@@PAX@std@@@std@@YAXAAPAU?$_Tree_node@U?$pair@$$CBV?$basic_string@DU?$char_traits@D@std@@V?$allocator@D@2@@std@@V?$vector@V?$basic_string@DU?$char_traits@D@std@@V?$allocator@D@2@@std@@V?$allocator@V?$basic_string@DU?$char_traits@D@std@@V?$allocator@D@2@@std@@@2@@2@@std@@PAX@0@@Z PROC ; std::_Destroy_in_place<std::_Tree_node<std::pair<std::basic_string<char,std::char_traits<char>,std::allocator<char> > const ,std::vector<std::basic_string<char,std::char_traits<char>,std::allocator<char> >,std::allocator<std::basic_string<char,std::char_traits<char>,std::allocator<char> > > > >,void *> *>, COMDAT

; 270  : /* _CONSTEXPR20_DYNALLOC */ void _Destroy_in_place(_Ty& _Obj) noexcept {

  00000	55		 push	 ebp
  00001	8b ec		 mov	 ebp, esp

; 271  : #if _HAS_IF_CONSTEXPR
; 272  :     if constexpr (is_array_v<_Ty>) {
; 273  :         _Destroy_range(_Obj, _Obj + extent_v<_Ty>);
; 274  :     } else
; 275  : #endif // _HAS_IF_CONSTEXPR
; 276  :     {
; 277  :         _Obj.~_Ty();
; 278  :     }
; 279  : }

  00003	5d		 pop	 ebp
  00004	c3		 ret	 0
??$_Destroy_in_place@PAU?$_Tree_node@U?$pair@$$CBV?$basic_string@DU?$char_traits@D@std@@V?$allocator@D@2@@std@@V?$vector@V?$basic_string@DU?$char_traits@D@std@@V?$allocator@D@2@@std@@V?$allocator@V?$basic_string@DU?$char_traits@D@std@@V?$allocator@D@2@@std@@@2@@2@@std@@PAX@std@@@std@@YAXAAPAU?$_Tree_node@U?$pair@$$CBV?$basic_string@DU?$char_traits@D@std@@V?$allocator@D@2@@std@@V?$vector@V?$basic_string@DU?$char_traits@D@std@@V?$allocator@D@2@@std@@V?$allocator@V?$basic_string@DU?$char_traits@D@std@@V?$allocator@D@2@@std@@@2@@2@@std@@PAX@0@@Z ENDP ; std::_Destroy_in_place<std::_Tree_node<std::pair<std::basic_string<char,std::char_traits<char>,std::allocator<char> > const ,std::vector<std::basic_string<char,std::char_traits<char>,std::allocator<char> >,std::allocator<std::basic_string<char,std::char_traits<char>,std::allocator<char> > > > >,void *> *>
_TEXT	ENDS
; Function compile flags: /Odspy
; File C:\Program Files (x86)\Microsoft Visual Studio\2019\Community\VC\Tools\MSVC\14.28.29333\include\xmemory
;	COMDAT ??$_Uninitialized_copy@PAV?$basic_string@DU?$char_traits@D@std@@V?$allocator@D@2@@std@@V?$allocator@V?$basic_string@DU?$char_traits@D@std@@V?$allocator@D@2@@std@@@2@@std@@YAPAV?$basic_string@DU?$char_traits@D@std@@V?$allocator@D@2@@0@QAV10@0PAV10@AAV?$allocator@V?$basic_string@DU?$char_traits@D@std@@V?$allocator@D@2@@std@@@0@@Z
_TEXT	SEGMENT
__Backout$2 = -32					; size = 12
__ULast$ = -20						; size = 4
__UFirst$ = -16						; size = 4
__$EHRec$ = -12						; size = 12
__First$ = 8						; size = 4
__Last$ = 12						; size = 4
__Dest$ = 16						; size = 4
__Al$ = 20						; size = 4
??$_Uninitialized_copy@PAV?$basic_string@DU?$char_traits@D@std@@V?$allocator@D@2@@std@@V?$allocator@V?$basic_string@DU?$char_traits@D@std@@V?$allocator@D@2@@std@@@2@@std@@YAPAV?$basic_string@DU?$char_traits@D@std@@V?$allocator@D@2@@0@QAV10@0PAV10@AAV?$allocator@V?$basic_string@DU?$char_traits@D@std@@V?$allocator@D@2@@std@@@0@@Z PROC ; std::_Uninitialized_copy<std::basic_string<char,std::char_traits<char>,std::allocator<char> > *,std::allocator<std::basic_string<char,std::char_traits<char>,std::allocator<char> > > >, COMDAT

; 1565 :     const _InIt _First, const _InIt _Last, _Alloc_ptr_t<_Alloc> _Dest, _Alloc& _Al) {

  00000	55		 push	 ebp
  00001	8b ec		 mov	 ebp, esp
  00003	6a ff		 push	 -1
  00005	68 00 00 00 00	 push	 __ehhandler$??$_Uninitialized_copy@PAV?$basic_string@DU?$char_traits@D@std@@V?$allocator@D@2@@std@@V?$allocator@V?$basic_string@DU?$char_traits@D@std@@V?$allocator@D@2@@std@@@2@@std@@YAPAV?$basic_string@DU?$char_traits@D@std@@V?$allocator@D@2@@0@QAV10@0PAV10@AAV?$allocator@V?$basic_string@DU?$char_traits@D@std@@V?$allocator@D@2@@std@@@0@@Z
  0000a	64 a1 00 00 00
	00		 mov	 eax, DWORD PTR fs:0
  00010	50		 push	 eax
  00011	83 ec 14	 sub	 esp, 20			; 00000014H
  00014	a1 00 00 00 00	 mov	 eax, DWORD PTR ___security_cookie
  00019	33 c5		 xor	 eax, ebp
  0001b	50		 push	 eax
  0001c	8d 45 f4	 lea	 eax, DWORD PTR __$EHRec$[ebp]
  0001f	64 a3 00 00 00
	00		 mov	 DWORD PTR fs:0, eax

; 1566 :     // copy [_First, _Last) to raw _Dest, using _Al
; 1567 :     // note: only called internally from elsewhere in the STL
; 1568 :     using _Ptrval = typename _Alloc::value_type*;
; 1569 : 
; 1570 :     auto _UFirst      = _Get_unwrapped(_First);

  00025	8b 45 08	 mov	 eax, DWORD PTR __First$[ebp]
  00028	89 45 f0	 mov	 DWORD PTR __UFirst$[ebp], eax

; 1571 :     const auto _ULast = _Get_unwrapped(_Last);

  0002b	8b 45 0c	 mov	 eax, DWORD PTR __Last$[ebp]
  0002e	89 45 ec	 mov	 DWORD PTR __ULast$[ebp], eax

; 1535 :     _Uninitialized_backout_al(pointer _Dest, _Alloc& _Al_) : _First(_Dest), _Last(_Dest), _Al(_Al_) {}

  00031	8b 45 10	 mov	 eax, DWORD PTR __Dest$[ebp]
  00034	89 45 e0	 mov	 DWORD PTR __Backout$2[ebp], eax
  00037	8b 45 10	 mov	 eax, DWORD PTR __Dest$[ebp]
  0003a	89 45 e4	 mov	 DWORD PTR __Backout$2[ebp+4], eax
  0003d	8b 45 14	 mov	 eax, DWORD PTR __Al$[ebp]
  00040	89 45 e8	 mov	 DWORD PTR __Backout$2[ebp+8], eax

; 1572 : 
; 1573 :     if constexpr (conjunction_v<bool_constant<_Ptr_copy_cat<decltype(_UFirst), _Ptrval>::_Really_trivial>,
; 1574 :                       _Uses_default_construct<_Alloc, _Ptrval, decltype(*_UFirst)>>) {
; 1575 :         _Copy_memmove(_UFirst, _ULast, _Unfancy(_Dest));
; 1576 :         _Dest += _ULast - _UFirst;
; 1577 :     } else {
; 1578 :         _Uninitialized_backout_al<_Alloc> _Backout{_Dest, _Al};

  00043	83 65 fc 00	 and	 DWORD PTR __$EHRec$[ebp+8], 0

; 1579 :         for (; _UFirst != _ULast; ++_UFirst) {

  00047	eb 09		 jmp	 SHORT $LN4@Uninitiali
$LN2@Uninitiali:
  00049	8b 45 f0	 mov	 eax, DWORD PTR __UFirst$[ebp]
  0004c	83 c0 18	 add	 eax, 24			; 00000018H
  0004f	89 45 f0	 mov	 DWORD PTR __UFirst$[ebp], eax
$LN4@Uninitiali:
  00052	8b 45 f0	 mov	 eax, DWORD PTR __UFirst$[ebp]
  00055	3b 45 ec	 cmp	 eax, DWORD PTR __ULast$[ebp]
  00058	74 0d		 je	 SHORT $LN3@Uninitiali

; 1580 :             _Backout._Emplace_back(*_UFirst);

  0005a	ff 75 f0	 push	 DWORD PTR __UFirst$[ebp]
  0005d	8d 4d e0	 lea	 ecx, DWORD PTR __Backout$2[ebp]
  00060	e8 00 00 00 00	 call	 ??$_Emplace_back@AAV?$basic_string@DU?$char_traits@D@std@@V?$allocator@D@2@@std@@@?$_Uninitialized_backout_al@V?$allocator@V?$basic_string@DU?$char_traits@D@std@@V?$allocator@D@2@@std@@@std@@@std@@QAEXAAV?$basic_string@DU?$char_traits@D@std@@V?$allocator@D@2@@1@@Z ; std::_Uninitialized_backout_al<std::allocator<std::basic_string<char,std::char_traits<char>,std::allocator<char> > > >::_Emplace_back<std::basic_string<char,std::char_traits<char>,std::allocator<char> > &>

; 1581 :         }

  00065	eb e2		 jmp	 SHORT $LN2@Uninitiali
$LN3@Uninitiali:

; 1551 :         _First = _Last;

  00067	8b 45 e4	 mov	 eax, DWORD PTR __Backout$2[ebp+4]
  0006a	89 45 e0	 mov	 DWORD PTR __Backout$2[ebp], eax

; 1552 :         return _Last;

  0006d	8b 45 e4	 mov	 eax, DWORD PTR __Backout$2[ebp+4]
  00070	89 45 10	 mov	 DWORD PTR __Dest$[ebp], eax

; 1582 : 
; 1583 :         _Dest = _Backout._Release();
; 1584 :     }

  00073	83 4d fc ff	 or	 DWORD PTR __$EHRec$[ebp+8], -1

; 1541 :         _Destroy_range(_First, _Last, _Al);

  00077	ff 75 e8	 push	 DWORD PTR __Backout$2[ebp+8]
  0007a	ff 75 e4	 push	 DWORD PTR __Backout$2[ebp+4]
  0007d	ff 75 e0	 push	 DWORD PTR __Backout$2[ebp]
  00080	e8 00 00 00 00	 call	 ??$_Destroy_range@V?$allocator@V?$basic_string@DU?$char_traits@D@std@@V?$allocator@D@2@@std@@@std@@@std@@YAXPAV?$basic_string@DU?$char_traits@D@std@@V?$allocator@D@2@@0@QAV10@AAV?$allocator@V?$basic_string@DU?$char_traits@D@std@@V?$allocator@D@2@@std@@@0@@Z ; std::_Destroy_range<std::allocator<std::basic_string<char,std::char_traits<char>,std::allocator<char> > > >
  00085	83 c4 0c	 add	 esp, 12			; 0000000cH

; 1585 : 
; 1586 :     return _Dest;

  00088	8b 45 10	 mov	 eax, DWORD PTR __Dest$[ebp]

; 1587 : }

  0008b	8b 4d f4	 mov	 ecx, DWORD PTR __$EHRec$[ebp]
  0008e	64 89 0d 00 00
	00 00		 mov	 DWORD PTR fs:0, ecx
  00095	59		 pop	 ecx
  00096	c9		 leave
  00097	c3		 ret	 0
_TEXT	ENDS
;	COMDAT text$x
text$x	SEGMENT
__unwindfunclet$??$_Uninitialized_copy@PAV?$basic_string@DU?$char_traits@D@std@@V?$allocator@D@2@@std@@V?$allocator@V?$basic_string@DU?$char_traits@D@std@@V?$allocator@D@2@@std@@@2@@std@@YAPAV?$basic_string@DU?$char_traits@D@std@@V?$allocator@D@2@@0@QAV10@0PAV10@AAV?$allocator@V?$basic_string@DU?$char_traits@D@std@@V?$allocator@D@2@@std@@@0@@Z$0:
  00000	8d 4d e0	 lea	 ecx, DWORD PTR __Backout$2[ebp]
  00003	e9 00 00 00 00	 jmp	 ??1?$_Uninitialized_backout_al@V?$allocator@V?$basic_string@DU?$char_traits@D@std@@V?$allocator@D@2@@std@@@std@@@std@@QAE@XZ ; std::_Uninitialized_backout_al<std::allocator<std::basic_string<char,std::char_traits<char>,std::allocator<char> > > >::~_Uninitialized_backout_al<std::allocator<std::basic_string<char,std::char_traits<char>,std::allocator<char> > > >
  00008	cc		 int	 3
  00009	cc		 int	 3
  0000a	cc		 int	 3
  0000b	cc		 int	 3
  0000c	cc		 int	 3
__ehhandler$??$_Uninitialized_copy@PAV?$basic_string@DU?$char_traits@D@std@@V?$allocator@D@2@@std@@V?$allocator@V?$basic_string@DU?$char_traits@D@std@@V?$allocator@D@2@@std@@@2@@std@@YAPAV?$basic_string@DU?$char_traits@D@std@@V?$allocator@D@2@@0@QAV10@0PAV10@AAV?$allocator@V?$basic_string@DU?$char_traits@D@std@@V?$allocator@D@2@@std@@@0@@Z:
  0000d	90		 npad	 1
  0000e	90		 npad	 1
  0000f	8b 54 24 08	 mov	 edx, DWORD PTR [esp+8]
  00013	8d 42 0c	 lea	 eax, DWORD PTR [edx+12]
  00016	8b 4a e8	 mov	 ecx, DWORD PTR [edx-24]
  00019	33 c8		 xor	 ecx, eax
  0001b	e8 00 00 00 00	 call	 @__security_check_cookie@4
  00020	b8 00 00 00 00	 mov	 eax, OFFSET __ehfuncinfo$??$_Uninitialized_copy@PAV?$basic_string@DU?$char_traits@D@std@@V?$allocator@D@2@@std@@V?$allocator@V?$basic_string@DU?$char_traits@D@std@@V?$allocator@D@2@@std@@@2@@std@@YAPAV?$basic_string@DU?$char_traits@D@std@@V?$allocator@D@2@@0@QAV10@0PAV10@AAV?$allocator@V?$basic_string@DU?$char_traits@D@std@@V?$allocator@D@2@@std@@@0@@Z
  00025	e9 00 00 00 00	 jmp	 ___CxxFrameHandler3
text$x	ENDS
??$_Uninitialized_copy@PAV?$basic_string@DU?$char_traits@D@std@@V?$allocator@D@2@@std@@V?$allocator@V?$basic_string@DU?$char_traits@D@std@@V?$allocator@D@2@@std@@@2@@std@@YAPAV?$basic_string@DU?$char_traits@D@std@@V?$allocator@D@2@@0@QAV10@0PAV10@AAV?$allocator@V?$basic_string@DU?$char_traits@D@std@@V?$allocator@D@2@@std@@@0@@Z ENDP ; std::_Uninitialized_copy<std::basic_string<char,std::char_traits<char>,std::allocator<char> > *,std::allocator<std::basic_string<char,std::char_traits<char>,std::allocator<char> > > >
; Function compile flags: /Odspy
; File C:\Program Files (x86)\Microsoft Visual Studio\2019\Community\VC\Tools\MSVC\14.28.29333\include\xmemory
; File C:\Program Files (x86)\Microsoft Visual Studio\2019\Community\VC\Tools\MSVC\14.28.29333\include\type_traits
; File C:\Program Files (x86)\Microsoft Visual Studio\2019\Community\VC\Tools\MSVC\14.28.29333\include\xmemory
; File C:\Program Files (x86)\Microsoft Visual Studio\2019\Community\VC\Tools\MSVC\14.28.29333\include\xstddef
; File C:\Program Files (x86)\Microsoft Visual Studio\2019\Community\VC\Tools\MSVC\14.28.29333\include\xmemory
; File C:\Program Files (x86)\Microsoft Visual Studio\2019\Community\VC\Tools\MSVC\14.28.29333\include\vcruntime_new.h
; File C:\Program Files (x86)\Microsoft Visual Studio\2019\Community\VC\Tools\MSVC\14.28.29333\include\type_traits
; File C:\Program Files (x86)\Microsoft Visual Studio\2019\Community\VC\Tools\MSVC\14.28.29333\include\xmemory
;	COMDAT ??$_Emplace_back@V?$basic_string@DU?$char_traits@D@std@@V?$allocator@D@2@@std@@@?$_Uninitialized_backout_al@V?$allocator@V?$basic_string@DU?$char_traits@D@std@@V?$allocator@D@2@@std@@@std@@@std@@QAEX$$QAV?$basic_string@DU?$char_traits@D@std@@V?$allocator@D@2@@1@@Z
_TEXT	SEGMENT
___formal$ = -28					; size = 4
$T1 = -24						; size = 4
$T2 = -20						; size = 4
$T3 = -16						; size = 4
$T4 = -12						; size = 4
__Ptr$ = -8						; size = 4
_this$ = -4						; size = 4
_<_Vals_0>$ = 8						; size = 4
??$_Emplace_back@V?$basic_string@DU?$char_traits@D@std@@V?$allocator@D@2@@std@@@?$_Uninitialized_backout_al@V?$allocator@V?$basic_string@DU?$char_traits@D@std@@V?$allocator@D@2@@std@@@std@@@std@@QAEX$$QAV?$basic_string@DU?$char_traits@D@std@@V?$allocator@D@2@@1@@Z PROC ; std::_Uninitialized_backout_al<std::allocator<std::basic_string<char,std::char_traits<char>,std::allocator<char> > > >::_Emplace_back<std::basic_string<char,std::char_traits<char>,std::allocator<char> > >, COMDAT
; _this$ = ecx

; 1545 :     void _Emplace_back(_Types&&... _Vals) { // construct a new element at *_Last and increment

  00000	55		 push	 ebp
  00001	8b ec		 mov	 ebp, esp
  00003	83 ec 1c	 sub	 esp, 28			; 0000001cH
  00006	89 4d fc	 mov	 DWORD PTR _this$[ebp], ecx
; File C:\Program Files (x86)\Microsoft Visual Studio\2019\Community\VC\Tools\MSVC\14.28.29333\include\type_traits

; 1443 :     return static_cast<_Ty&&>(_Arg);

  00009	8b 45 08	 mov	 eax, DWORD PTR _<_Vals_0>$[ebp]
  0000c	89 45 f0	 mov	 DWORD PTR $T3[ebp], eax
; File C:\Program Files (x86)\Microsoft Visual Studio\2019\Community\VC\Tools\MSVC\14.28.29333\include\xmemory

; 1546 :         allocator_traits<_Alloc>::construct(_Al, _Unfancy(_Last), _STD forward<_Types>(_Vals)...);

  0000f	8b 45 fc	 mov	 eax, DWORD PTR _this$[ebp]
  00012	8b 40 04	 mov	 eax, DWORD PTR [eax+4]
  00015	89 45 f8	 mov	 DWORD PTR __Ptr$[ebp], eax
; File C:\Program Files (x86)\Microsoft Visual Studio\2019\Community\VC\Tools\MSVC\14.28.29333\include\xstddef

; 289  :     return _Ptr;

  00018	8b 45 f8	 mov	 eax, DWORD PTR __Ptr$[ebp]
  0001b	89 45 f4	 mov	 DWORD PTR $T4[ebp], eax
; File C:\Program Files (x86)\Microsoft Visual Studio\2019\Community\VC\Tools\MSVC\14.28.29333\include\xmemory

; 1546 :         allocator_traits<_Alloc>::construct(_Al, _Unfancy(_Last), _STD forward<_Types>(_Vals)...);

  0001e	8b 45 fc	 mov	 eax, DWORD PTR _this$[ebp]
  00021	8b 40 08	 mov	 eax, DWORD PTR [eax+8]
  00024	89 45 e4	 mov	 DWORD PTR ___formal$[ebp], eax
; File C:\Program Files (x86)\Microsoft Visual Studio\2019\Community\VC\Tools\MSVC\14.28.29333\include\vcruntime_new.h

; 169  :         return _Where;

  00027	8b 45 f4	 mov	 eax, DWORD PTR $T4[ebp]
  0002a	89 45 e8	 mov	 DWORD PTR $T1[ebp], eax
; File C:\Program Files (x86)\Microsoft Visual Studio\2019\Community\VC\Tools\MSVC\14.28.29333\include\type_traits

; 1443 :     return static_cast<_Ty&&>(_Arg);

  0002d	8b 45 f0	 mov	 eax, DWORD PTR $T3[ebp]
  00030	89 45 ec	 mov	 DWORD PTR $T2[ebp], eax
; File C:\Program Files (x86)\Microsoft Visual Studio\2019\Community\VC\Tools\MSVC\14.28.29333\include\xmemory

; 701  :         ::new (const_cast<void*>(static_cast<const volatile void*>(_Ptr))) _Objty(_STD forward<_Types>(_Args)...);

  00033	ff 75 ec	 push	 DWORD PTR $T2[ebp]
  00036	8b 4d e8	 mov	 ecx, DWORD PTR $T1[ebp]
  00039	e8 00 00 00 00	 call	 ??0?$basic_string@DU?$char_traits@D@std@@V?$allocator@D@2@@std@@QAE@$$QAV01@@Z ; std::basic_string<char,std::char_traits<char>,std::allocator<char> >::basic_string<char,std::char_traits<char>,std::allocator<char> >

; 1547 :         ++_Last;

  0003e	8b 45 fc	 mov	 eax, DWORD PTR _this$[ebp]
  00041	8b 40 04	 mov	 eax, DWORD PTR [eax+4]
  00044	83 c0 18	 add	 eax, 24			; 00000018H
  00047	8b 4d fc	 mov	 ecx, DWORD PTR _this$[ebp]
  0004a	89 41 04	 mov	 DWORD PTR [ecx+4], eax

; 1548 :     }

  0004d	c9		 leave
  0004e	c2 04 00	 ret	 4
??$_Emplace_back@V?$basic_string@DU?$char_traits@D@std@@V?$allocator@D@2@@std@@@?$_Uninitialized_backout_al@V?$allocator@V?$basic_string@DU?$char_traits@D@std@@V?$allocator@D@2@@std@@@std@@@std@@QAEX$$QAV?$basic_string@DU?$char_traits@D@std@@V?$allocator@D@2@@1@@Z ENDP ; std::_Uninitialized_backout_al<std::allocator<std::basic_string<char,std::char_traits<char>,std::allocator<char> > > >::_Emplace_back<std::basic_string<char,std::char_traits<char>,std::allocator<char> > >
_TEXT	ENDS
; Function compile flags: /Odspy
; File C:\Program Files (x86)\Microsoft Visual Studio\2019\Community\VC\Tools\MSVC\14.28.29333\include\xmemory
;	COMDAT ??1?$_Uninitialized_backout_al@V?$allocator@V?$basic_string@DU?$char_traits@D@std@@V?$allocator@D@2@@std@@@std@@@std@@QAE@XZ
_TEXT	SEGMENT
_this$ = -4						; size = 4
??1?$_Uninitialized_backout_al@V?$allocator@V?$basic_string@DU?$char_traits@D@std@@V?$allocator@D@2@@std@@@std@@@std@@QAE@XZ PROC ; std::_Uninitialized_backout_al<std::allocator<std::basic_string<char,std::char_traits<char>,std::allocator<char> > > >::~_Uninitialized_backout_al<std::allocator<std::basic_string<char,std::char_traits<char>,std::allocator<char> > > >, COMDAT
; _this$ = ecx

; 1540 :     ~_Uninitialized_backout_al() {

  00000	55		 push	 ebp
  00001	8b ec		 mov	 ebp, esp
  00003	51		 push	 ecx
  00004	89 4d fc	 mov	 DWORD PTR _this$[ebp], ecx

; 1541 :         _Destroy_range(_First, _Last, _Al);

  00007	8b 45 fc	 mov	 eax, DWORD PTR _this$[ebp]
  0000a	ff 70 08	 push	 DWORD PTR [eax+8]
  0000d	8b 45 fc	 mov	 eax, DWORD PTR _this$[ebp]
  00010	ff 70 04	 push	 DWORD PTR [eax+4]
  00013	8b 45 fc	 mov	 eax, DWORD PTR _this$[ebp]
  00016	ff 30		 push	 DWORD PTR [eax]
  00018	e8 00 00 00 00	 call	 ??$_Destroy_range@V?$allocator@V?$basic_string@DU?$char_traits@D@std@@V?$allocator@D@2@@std@@@std@@@std@@YAXPAV?$basic_string@DU?$char_traits@D@std@@V?$allocator@D@2@@0@QAV10@AAV?$allocator@V?$basic_string@DU?$char_traits@D@std@@V?$allocator@D@2@@std@@@0@@Z ; std::_Destroy_range<std::allocator<std::basic_string<char,std::char_traits<char>,std::allocator<char> > > >
  0001d	83 c4 0c	 add	 esp, 12			; 0000000cH

; 1542 :     }

  00020	c9		 leave
  00021	c3		 ret	 0
??1?$_Uninitialized_backout_al@V?$allocator@V?$basic_string@DU?$char_traits@D@std@@V?$allocator@D@2@@std@@@std@@@std@@QAE@XZ ENDP ; std::_Uninitialized_backout_al<std::allocator<std::basic_string<char,std::char_traits<char>,std::allocator<char> > > >::~_Uninitialized_backout_al<std::allocator<std::basic_string<char,std::char_traits<char>,std::allocator<char> > > >
_TEXT	ENDS
; Function compile flags: /Odspy
; File C:\Program Files (x86)\Microsoft Visual Studio\2019\Community\VC\Tools\MSVC\14.28.29333\include\xmemory
; File C:\Program Files (x86)\Microsoft Visual Studio\2019\Community\VC\Tools\MSVC\14.28.29333\include\xstddef
; File C:\Program Files (x86)\Microsoft Visual Studio\2019\Community\VC\Tools\MSVC\14.28.29333\include\vcruntime_new.h
; File C:\Program Files (x86)\Microsoft Visual Studio\2019\Community\VC\Tools\MSVC\14.28.29333\include\type_traits
; File C:\Program Files (x86)\Microsoft Visual Studio\2019\Community\VC\Tools\MSVC\14.28.29333\include\xmemory
;	COMDAT ??$_Construct_in_place@PAU?$_Tree_node@U?$pair@$$CBV?$basic_string@DU?$char_traits@D@std@@V?$allocator@D@2@@std@@V12@@std@@PAX@std@@AAPAU12@@std@@YAXAAPAU?$_Tree_node@U?$pair@$$CBV?$basic_string@DU?$char_traits@D@std@@V?$allocator@D@2@@std@@V12@@std@@PAX@0@0@Z
_TEXT	SEGMENT
$T1 = -12						; size = 4
$T2 = -8						; size = 4
$T3 = -4						; size = 4
__Obj$ = 8						; size = 4
_<_Args_0>$ = 12					; size = 4
??$_Construct_in_place@PAU?$_Tree_node@U?$pair@$$CBV?$basic_string@DU?$char_traits@D@std@@V?$allocator@D@2@@std@@V12@@std@@PAX@std@@AAPAU12@@std@@YAXAAPAU?$_Tree_node@U?$pair@$$CBV?$basic_string@DU?$char_traits@D@std@@V?$allocator@D@2@@std@@V12@@std@@PAX@0@0@Z PROC ; std::_Construct_in_place<std::_Tree_node<std::pair<std::basic_string<char,std::char_traits<char>,std::allocator<char> > const ,std::basic_string<char,std::char_traits<char>,std::allocator<char> > >,void *> *,std::_Tree_node<std::pair<std::basic_string<char,std::char_traits<char>,std::allocator<char> > const ,std::basic_string<char,std::char_traits<char>,std::allocator<char> > >,void *> * &>, COMDAT

; 228  : void _Construct_in_place(_Ty& _Obj, _Types&&... _Args) noexcept(is_nothrow_constructible_v<_Ty, _Types...>) {

  00000	55		 push	 ebp
  00001	8b ec		 mov	 ebp, esp
  00003	83 ec 0c	 sub	 esp, 12			; 0000000cH
; File C:\Program Files (x86)\Microsoft Visual Studio\2019\Community\VC\Tools\MSVC\14.28.29333\include\xstddef

; 275  :     return __builtin_addressof(_Val);

  00006	8b 45 08	 mov	 eax, DWORD PTR __Obj$[ebp]
  00009	89 45 fc	 mov	 DWORD PTR $T3[ebp], eax
; File C:\Program Files (x86)\Microsoft Visual Studio\2019\Community\VC\Tools\MSVC\14.28.29333\include\vcruntime_new.h

; 169  :         return _Where;

  0000c	8b 45 fc	 mov	 eax, DWORD PTR $T3[ebp]
  0000f	89 45 f8	 mov	 DWORD PTR $T2[ebp], eax
; File C:\Program Files (x86)\Microsoft Visual Studio\2019\Community\VC\Tools\MSVC\14.28.29333\include\type_traits

; 1443 :     return static_cast<_Ty&&>(_Arg);

  00012	8b 45 0c	 mov	 eax, DWORD PTR _<_Args_0>$[ebp]
  00015	89 45 f4	 mov	 DWORD PTR $T1[ebp], eax
; File C:\Program Files (x86)\Microsoft Visual Studio\2019\Community\VC\Tools\MSVC\14.28.29333\include\xmemory

; 229  :     ::new (const_cast<void*>(static_cast<const volatile void*>(_STD addressof(_Obj))))

  00018	8b 45 f8	 mov	 eax, DWORD PTR $T2[ebp]
  0001b	8b 4d f4	 mov	 ecx, DWORD PTR $T1[ebp]
  0001e	8b 09		 mov	 ecx, DWORD PTR [ecx]
  00020	89 08		 mov	 DWORD PTR [eax], ecx

; 230  :         _Ty(_STD forward<_Types>(_Args)...);
; 231  : }

  00022	c9		 leave
  00023	c3		 ret	 0
??$_Construct_in_place@PAU?$_Tree_node@U?$pair@$$CBV?$basic_string@DU?$char_traits@D@std@@V?$allocator@D@2@@std@@V12@@std@@PAX@std@@AAPAU12@@std@@YAXAAPAU?$_Tree_node@U?$pair@$$CBV?$basic_string@DU?$char_traits@D@std@@V?$allocator@D@2@@std@@V12@@std@@PAX@0@0@Z ENDP ; std::_Construct_in_place<std::_Tree_node<std::pair<std::basic_string<char,std::char_traits<char>,std::allocator<char> > const ,std::basic_string<char,std::char_traits<char>,std::allocator<char> > >,void *> *,std::_Tree_node<std::pair<std::basic_string<char,std::char_traits<char>,std::allocator<char> > const ,std::basic_string<char,std::char_traits<char>,std::allocator<char> > >,void *> * &>
_TEXT	ENDS
; Function compile flags: /Odspy
; File C:\Program Files (x86)\Microsoft Visual Studio\2019\Community\VC\Tools\MSVC\14.28.29333\include\xmemory
; File C:\Program Files (x86)\Microsoft Visual Studio\2019\Community\VC\Tools\MSVC\14.28.29333\include\vcruntime_new.h
; File C:\Program Files (x86)\Microsoft Visual Studio\2019\Community\VC\Tools\MSVC\14.28.29333\include\type_traits
; File C:\Program Files (x86)\Microsoft Visual Studio\2019\Community\VC\Tools\MSVC\14.28.29333\include\xmemory
; File C:\Program Files (x86)\Microsoft Visual Studio\2019\Community\VC\Tools\MSVC\14.28.29333\include\type_traits
; File C:\Program Files (x86)\Microsoft Visual Studio\2019\Community\VC\Tools\MSVC\14.28.29333\include\xmemory
; File D:\Metin2 Server Files\mainline\SRC_2014\Metin2Client\EterLib\Util.cpp
; File C:\Program Files (x86)\Microsoft Visual Studio\2019\Community\VC\Tools\MSVC\14.28.29333\include\type_traits
; File C:\Program Files (x86)\Microsoft Visual Studio\2019\Community\VC\Tools\MSVC\14.28.29333\include\xmemory
;	COMDAT ??$construct@U?$pair@$$CBV?$basic_string@DU?$char_traits@D@std@@V?$allocator@D@2@@std@@V12@@std@@ABUpiecewise_construct_t@2@V?$tuple@ABV?$basic_string@DU?$char_traits@D@std@@V?$allocator@D@2@@std@@@2@V?$tuple@$$V@2@@?$_Default_allocator_traits@V?$allocator@U?$_Tree_node@U?$pair@$$CBV?$basic_string@DU?$char_traits@D@std@@V?$allocator@D@2@@std@@V12@@std@@PAX@std@@@std@@@std@@SAXAAV?$allocator@U?$_Tree_node@U?$pair@$$CBV?$basic_string@DU?$char_traits@D@std@@V?$allocator@D@2@@std@@V12@@std@@PAX@std@@@1@QAU?$pair@$$CBV?$basic_string@DU?$char_traits@D@std@@V?$allocator@D@2@@std@@V12@@1@ABUpiecewise_construct_t@1@$$QAV?$tuple@ABV?$basic_string@DU?$char_traits@D@std@@V?$allocator@D@2@@std@@@1@$$QAV?$tuple@$$V@1@@Z
_TEXT	SEGMENT
_this$ = -24						; size = 4
$T1 = -20						; size = 4
$T2 = -16						; size = 4
$T3 = -12						; size = 4
_this$ = -8						; size = 4
$T4 = -4						; size = 4
___formal$ = 8						; size = 4
__Ptr$ = 12						; size = 4
_<_Args_0>$ = 16					; size = 4
_<_Args_1>$ = 20					; size = 4
_<_Args_2>$ = 24					; size = 4
??$construct@U?$pair@$$CBV?$basic_string@DU?$char_traits@D@std@@V?$allocator@D@2@@std@@V12@@std@@ABUpiecewise_construct_t@2@V?$tuple@ABV?$basic_string@DU?$char_traits@D@std@@V?$allocator@D@2@@std@@@2@V?$tuple@$$V@2@@?$_Default_allocator_traits@V?$allocator@U?$_Tree_node@U?$pair@$$CBV?$basic_string@DU?$char_traits@D@std@@V?$allocator@D@2@@std@@V12@@std@@PAX@std@@@std@@@std@@SAXAAV?$allocator@U?$_Tree_node@U?$pair@$$CBV?$basic_string@DU?$char_traits@D@std@@V?$allocator@D@2@@std@@V12@@std@@PAX@std@@@1@QAU?$pair@$$CBV?$basic_string@DU?$char_traits@D@std@@V?$allocator@D@2@@std@@V12@@1@ABUpiecewise_construct_t@1@$$QAV?$tuple@ABV?$basic_string@DU?$char_traits@D@std@@V?$allocator@D@2@@std@@@1@$$QAV?$tuple@$$V@1@@Z PROC ; std::_Default_allocator_traits<std::allocator<std::_Tree_node<std::pair<std::basic_string<char,std::char_traits<char>,std::allocator<char> > const ,std::basic_string<char,std::char_traits<char>,std::allocator<char> > >,void *> > >::construct<std::pair<std::basic_string<char,std::char_traits<char>,std::allocator<char> > const ,std::basic_string<char,std::char_traits<char>,std::allocator<char> > >,std::piecewise_construct_t const &,std::tuple<std::basic_string<char,std::char_traits<char>,std::allocator<char> > const &>,std::tuple<> >, COMDAT

; 700  :     static void construct(_Alloc&, _Objty* const _Ptr, _Types&&... _Args) {

  00000	55		 push	 ebp
  00001	8b ec		 mov	 ebp, esp
  00003	83 ec 18	 sub	 esp, 24			; 00000018H
; File C:\Program Files (x86)\Microsoft Visual Studio\2019\Community\VC\Tools\MSVC\14.28.29333\include\vcruntime_new.h

; 169  :         return _Where;

  00006	8b 45 0c	 mov	 eax, DWORD PTR __Ptr$[ebp]
  00009	89 45 f0	 mov	 DWORD PTR $T2[ebp], eax
; File C:\Program Files (x86)\Microsoft Visual Studio\2019\Community\VC\Tools\MSVC\14.28.29333\include\type_traits

; 1443 :     return static_cast<_Ty&&>(_Arg);

  0000c	8b 45 18	 mov	 eax, DWORD PTR _<_Args_2>$[ebp]
  0000f	89 45 ec	 mov	 DWORD PTR $T1[ebp], eax
; File C:\Program Files (x86)\Microsoft Visual Studio\2019\Community\VC\Tools\MSVC\14.28.29333\include\xmemory

; 701  :         ::new (const_cast<void*>(static_cast<const volatile void*>(_Ptr))) _Objty(_STD forward<_Types>(_Args)...);

  00012	51		 push	 ecx
  00013	89 65 e8	 mov	 DWORD PTR _this$[ebp], esp
; File C:\Program Files (x86)\Microsoft Visual Studio\2019\Community\VC\Tools\MSVC\14.28.29333\include\type_traits

; 1443 :     return static_cast<_Ty&&>(_Arg);

  00016	8b 45 14	 mov	 eax, DWORD PTR _<_Args_1>$[ebp]
  00019	89 45 fc	 mov	 DWORD PTR $T4[ebp], eax
; File C:\Program Files (x86)\Microsoft Visual Studio\2019\Community\VC\Tools\MSVC\14.28.29333\include\xmemory

; 701  :         ::new (const_cast<void*>(static_cast<const volatile void*>(_Ptr))) _Objty(_STD forward<_Types>(_Args)...);

  0001c	51		 push	 ecx
  0001d	89 65 f8	 mov	 DWORD PTR _this$[ebp], esp
; File D:\Metin2 Server Files\mainline\SRC_2014\Metin2Client\EterLib\Util.cpp

  00020	8b 45 fc	 mov	 eax, DWORD PTR $T4[ebp]
  00023	8b 00		 mov	 eax, DWORD PTR [eax]
  00025	8b 4d f8	 mov	 ecx, DWORD PTR _this$[ebp]
  00028	89 01		 mov	 DWORD PTR [ecx], eax
; File C:\Program Files (x86)\Microsoft Visual Studio\2019\Community\VC\Tools\MSVC\14.28.29333\include\type_traits

; 1443 :     return static_cast<_Ty&&>(_Arg);

  0002a	8b 45 10	 mov	 eax, DWORD PTR _<_Args_0>$[ebp]
  0002d	89 45 f4	 mov	 DWORD PTR $T3[ebp], eax
; File C:\Program Files (x86)\Microsoft Visual Studio\2019\Community\VC\Tools\MSVC\14.28.29333\include\xmemory

; 701  :         ::new (const_cast<void*>(static_cast<const volatile void*>(_Ptr))) _Objty(_STD forward<_Types>(_Args)...);

  00030	8b 45 f4	 mov	 eax, DWORD PTR $T3[ebp]
  00033	0f b6 00	 movzx	 eax, BYTE PTR [eax]
  00036	50		 push	 eax
  00037	8b 4d f0	 mov	 ecx, DWORD PTR $T2[ebp]
  0003a	e8 00 00 00 00	 call	 ??$?0ABV?$basic_string@DU?$char_traits@D@std@@V?$allocator@D@2@@std@@$$Z$$V@?$pair@$$CBV?$basic_string@DU?$char_traits@D@std@@V?$allocator@D@2@@std@@V12@@std@@QAE@Upiecewise_construct_t@1@V?$tuple@ABV?$basic_string@DU?$char_traits@D@std@@V?$allocator@D@2@@std@@@1@V?$tuple@$$V@1@@Z ; std::pair<std::basic_string<char,std::char_traits<char>,std::allocator<char> > const ,std::basic_string<char,std::char_traits<char>,std::allocator<char> > >::pair<std::basic_string<char,std::char_traits<char>,std::allocator<char> > const ,std::basic_string<char,std::char_traits<char>,std::allocator<char> > ><std::basic_string<char,std::char_traits<char>,std::allocator<char> > const &>

; 702  :     }

  0003f	c9		 leave
  00040	c3		 ret	 0
??$construct@U?$pair@$$CBV?$basic_string@DU?$char_traits@D@std@@V?$allocator@D@2@@std@@V12@@std@@ABUpiecewise_construct_t@2@V?$tuple@ABV?$basic_string@DU?$char_traits@D@std@@V?$allocator@D@2@@std@@@2@V?$tuple@$$V@2@@?$_Default_allocator_traits@V?$allocator@U?$_Tree_node@U?$pair@$$CBV?$basic_string@DU?$char_traits@D@std@@V?$allocator@D@2@@std@@V12@@std@@PAX@std@@@std@@@std@@SAXAAV?$allocator@U?$_Tree_node@U?$pair@$$CBV?$basic_string@DU?$char_traits@D@std@@V?$allocator@D@2@@std@@V12@@std@@PAX@std@@@1@QAU?$pair@$$CBV?$basic_string@DU?$char_traits@D@std@@V?$allocator@D@2@@std@@V12@@1@ABUpiecewise_construct_t@1@$$QAV?$tuple@ABV?$basic_string@DU?$char_traits@D@std@@V?$allocator@D@2@@std@@@1@$$QAV?$tuple@$$V@1@@Z ENDP ; std::_Default_allocator_traits<std::allocator<std::_Tree_node<std::pair<std::basic_string<char,std::char_traits<char>,std::allocator<char> > const ,std::basic_string<char,std::char_traits<char>,std::allocator<char> > >,void *> > >::construct<std::pair<std::basic_string<char,std::char_traits<char>,std::allocator<char> > const ,std::basic_string<char,std::char_traits<char>,std::allocator<char> > >,std::piecewise_construct_t const &,std::tuple<std::basic_string<char,std::char_traits<char>,std::allocator<char> > const &>,std::tuple<> >
_TEXT	ENDS
; Function compile flags: /Odspy
; File C:\Program Files (x86)\Microsoft Visual Studio\2019\Community\VC\Tools\MSVC\14.28.29333\include\xtree
; File C:\Program Files (x86)\Microsoft Visual Studio\2019\Community\VC\Tools\MSVC\14.28.29333\include\xmemory
; File C:\Program Files (x86)\Microsoft Visual Studio\2019\Community\VC\Tools\MSVC\14.28.29333\include\xtree
; File C:\Program Files (x86)\Microsoft Visual Studio\2019\Community\VC\Tools\MSVC\14.28.29333\include\type_traits
; File C:\Program Files (x86)\Microsoft Visual Studio\2019\Community\VC\Tools\MSVC\14.28.29333\include\xtree
; File C:\Program Files (x86)\Microsoft Visual Studio\2019\Community\VC\Tools\MSVC\14.28.29333\include\xstddef
; File C:\Program Files (x86)\Microsoft Visual Studio\2019\Community\VC\Tools\MSVC\14.28.29333\include\xtree
; File C:\Program Files (x86)\Microsoft Visual Studio\2019\Community\VC\Tools\MSVC\14.28.29333\include\vcruntime_new.h
; File C:\Program Files (x86)\Microsoft Visual Studio\2019\Community\VC\Tools\MSVC\14.28.29333\include\type_traits
; File D:\Metin2 Server Files\mainline\SRC_2014\Metin2Client\EterLib\Util.cpp
; File C:\Program Files (x86)\Microsoft Visual Studio\2019\Community\VC\Tools\MSVC\14.28.29333\include\xtree
;	COMDAT ??$?0U?$pair@$$CBV?$basic_string@DU?$char_traits@D@std@@V?$allocator@D@2@@std@@V?$vector@V?$basic_string@DU?$char_traits@D@std@@V?$allocator@D@2@@std@@V?$allocator@V?$basic_string@DU?$char_traits@D@std@@V?$allocator@D@2@@std@@@2@@2@@std@@@?$_Tree_temp_node@V?$allocator@U?$_Tree_node@U?$pair@$$CBV?$basic_string@DU?$char_traits@D@std@@V?$allocator@D@2@@std@@V?$vector@V?$basic_string@DU?$char_traits@D@std@@V?$allocator@D@2@@std@@V?$allocator@V?$basic_string@DU?$char_traits@D@std@@V?$allocator@D@2@@std@@@2@@2@@std@@PAX@std@@@std@@@std@@QAE@AAV?$allocator@U?$_Tree_node@U?$pair@$$CBV?$basic_string@DU?$char_traits@D@std@@V?$allocator@D@2@@std@@V?$vector@V?$basic_string@DU?$char_traits@D@std@@V?$allocator@D@2@@std@@V?$allocator@V?$basic_string@DU?$char_traits@D@std@@V?$allocator@D@2@@std@@@2@@2@@std@@PAX@std@@@1@PAU?$_Tree_node@U?$pair@$$CBV?$basic_string@DU?$char_traits@D@std@@V?$allocator@D@2@@std@@V?$vector@V?$basic_string@DU?$char_traits@D@std@@V?$allocator@D@2@@std@@V?$allocator@V?$basic_string@DU?$char_traits@D@std@@V?$allocator@D@2@@std@@@2@@2@@std@@PAX@1@$$QAU?$pair@$$CBV?$basic_string@DU?$char_traits@D@std@@V?$allocator@D@2@@std@@V?$vector@V?$basic_string@DU?$char_traits@D@std@@V?$allocator@D@2@@std@@V?$allocator@V?$basic_string@DU?$char_traits@D@std@@V?$allocator@D@2@@std@@@2@@2@@1@@Z
_TEXT	SEGMENT
___formal$ = -40					; size = 4
$T2 = -36						; size = 4
$T3 = -32						; size = 4
__Val$ = -28						; size = 4
$T4 = -24						; size = 4
$T5 = -20						; size = 4
_this$ = -16						; size = 4
__$EHRec$ = -12						; size = 12
__Al_$ = 8						; size = 4
__Myhead$ = 12						; size = 4
_<_Vals_0>$ = 16					; size = 4
??$?0U?$pair@$$CBV?$basic_string@DU?$char_traits@D@std@@V?$allocator@D@2@@std@@V?$vector@V?$basic_string@DU?$char_traits@D@std@@V?$allocator@D@2@@std@@V?$allocator@V?$basic_string@DU?$char_traits@D@std@@V?$allocator@D@2@@std@@@2@@2@@std@@@?$_Tree_temp_node@V?$allocator@U?$_Tree_node@U?$pair@$$CBV?$basic_string@DU?$char_traits@D@std@@V?$allocator@D@2@@std@@V?$vector@V?$basic_string@DU?$char_traits@D@std@@V?$allocator@D@2@@std@@V?$allocator@V?$basic_string@DU?$char_traits@D@std@@V?$allocator@D@2@@std@@@2@@2@@std@@PAX@std@@@std@@@std@@QAE@AAV?$allocator@U?$_Tree_node@U?$pair@$$CBV?$basic_string@DU?$char_traits@D@std@@V?$allocator@D@2@@std@@V?$vector@V?$basic_string@DU?$char_traits@D@std@@V?$allocator@D@2@@std@@V?$allocator@V?$basic_string@DU?$char_traits@D@std@@V?$allocator@D@2@@std@@@2@@2@@std@@PAX@std@@@1@PAU?$_Tree_node@U?$pair@$$CBV?$basic_string@DU?$char_traits@D@std@@V?$allocator@D@2@@std@@V?$vector@V?$basic_string@DU?$char_traits@D@std@@V?$allocator@D@2@@std@@V?$allocator@V?$basic_string@DU?$char_traits@D@std@@V?$allocator@D@2@@std@@@2@@2@@std@@PAX@1@$$QAU?$pair@$$CBV?$basic_string@DU?$char_traits@D@std@@V?$allocator@D@2@@std@@V?$vector@V?$basic_string@DU?$char_traits@D@std@@V?$allocator@D@2@@std@@V?$allocator@V?$basic_string@DU?$char_traits@D@std@@V?$allocator@D@2@@std@@@2@@2@@1@@Z PROC ; std::_Tree_temp_node<std::allocator<std::_Tree_node<std::pair<std::basic_string<char,std::char_traits<char>,std::allocator<char> > const ,std::vector<std::basic_string<char,std::char_traits<char>,std::allocator<char> >,std::allocator<std::basic_string<char,std::char_traits<char>,std::allocator<char> > > > >,void *> > >::_Tree_temp_node<std::allocator<std::_Tree_node<std::pair<std::basic_string<char,std::char_traits<char>,std::allocator<char> > const ,std::vector<std::basic_string<char,std::char_traits<char>,std::allocator<char> >,std::allocator<std::basic_string<char,std::char_traits<char>,std::allocator<char> > > > >,void *> > ><std::pair<std::basic_string<char,std::char_traits<char>,std::allocator<char> > const ,std::vector<std::basic_string<char,std::char_traits<char>,std::allocator<char> >,std::allocator<std::basic_string<char,std::char_traits<char>,std::allocator<char> > > > > >, COMDAT
; _this$ = ecx

; 805  :         : _Tree_temp_node_alloc<_Alnode>(_Al_) {

  00000	55		 push	 ebp
  00001	8b ec		 mov	 ebp, esp
  00003	6a ff		 push	 -1
  00005	68 00 00 00 00	 push	 __ehhandler$??$?0U?$pair@$$CBV?$basic_string@DU?$char_traits@D@std@@V?$allocator@D@2@@std@@V?$vector@V?$basic_string@DU?$char_traits@D@std@@V?$allocator@D@2@@std@@V?$allocator@V?$basic_string@DU?$char_traits@D@std@@V?$allocator@D@2@@std@@@2@@2@@std@@@?$_Tree_temp_node@V?$allocator@U?$_Tree_node@U?$pair@$$CBV?$basic_string@DU?$char_traits@D@std@@V?$allocator@D@2@@std@@V?$vector@V?$basic_string@DU?$char_traits@D@std@@V?$allocator@D@2@@std@@V?$allocator@V?$basic_string@DU?$char_traits@D@std@@V?$allocator@D@2@@std@@@2@@2@@std@@PAX@std@@@std@@@std@@QAE@AAV?$allocator@U?$_Tree_node@U?$pair@$$CBV?$basic_string@DU?$char_traits@D@std@@V?$allocator@D@2@@std@@V?$vector@V?$basic_string@DU?$char_traits@D@std@@V?$allocator@D@2@@std@@V?$allocator@V?$basic_string@DU?$char_traits@D@std@@V?$allocator@D@2@@std@@@2@@2@@std@@PAX@std@@@1@PAU?$_Tree_node@U?$pair@$$CBV?$basic_string@DU?$char_traits@D@std@@V?$allocator@D@2@@std@@V?$vector@V?$basic_string@DU?$char_traits@D@std@@V?$allocator@D@2@@std@@V?$allocator@V?$basic_string@DU?$char_traits@D@std@@V?$allocator@D@2@@std@@@2@@2@@std@@PAX@1@$$QAU?$pair@$$CBV?$basic_string@DU?$char_traits@D@std@@V?$allocator@D@2@@std@@V?$vector@V?$basic_string@DU?$char_traits@D@std@@V?$allocator@D@2@@std@@V?$allocator@V?$basic_string@DU?$char_traits@D@std@@V?$allocator@D@2@@std@@@2@@2@@1@@Z
  0000a	64 a1 00 00 00
	00		 mov	 eax, DWORD PTR fs:0
  00010	50		 push	 eax
  00011	83 ec 1c	 sub	 esp, 28			; 0000001cH
  00014	a1 00 00 00 00	 mov	 eax, DWORD PTR ___security_cookie
  00019	33 c5		 xor	 eax, ebp
  0001b	50		 push	 eax
  0001c	8d 45 f4	 lea	 eax, DWORD PTR __$EHRec$[ebp]
  0001f	64 a3 00 00 00
	00		 mov	 DWORD PTR fs:0, eax
  00025	89 4d f0	 mov	 DWORD PTR _this$[ebp], ecx
; File C:\Program Files (x86)\Microsoft Visual Studio\2019\Community\VC\Tools\MSVC\14.28.29333\include\xmemory

; 1045 :     explicit _Alloc_construct_ptr(_Alloc& _Al_) : _Al(_Al_), _Ptr(nullptr) {}

  00028	8b 45 f0	 mov	 eax, DWORD PTR _this$[ebp]
  0002b	8b 4d 08	 mov	 ecx, DWORD PTR __Al_$[ebp]
  0002e	89 08		 mov	 DWORD PTR [eax], ecx
  00030	8b 45 f0	 mov	 eax, DWORD PTR _this$[ebp]
  00033	83 60 04 00	 and	 DWORD PTR [eax+4], 0
; File C:\Program Files (x86)\Microsoft Visual Studio\2019\Community\VC\Tools\MSVC\14.28.29333\include\xtree

; 784  :     explicit _Tree_temp_node_alloc(_Alnode& _Al_) : _Alloc_construct_ptr<_Alnode>(_Al_) {

  00037	83 65 fc 00	 and	 DWORD PTR __$EHRec$[ebp+8], 0

; 785  :         _Alloc_construct_ptr<_Alnode>::_Allocate();

  0003b	8b 4d f0	 mov	 ecx, DWORD PTR _this$[ebp]
  0003e	e8 00 00 00 00	 call	 ?_Allocate@?$_Alloc_construct_ptr@V?$allocator@U?$_Tree_node@U?$pair@$$CBV?$basic_string@DU?$char_traits@D@std@@V?$allocator@D@2@@std@@V?$vector@V?$basic_string@DU?$char_traits@D@std@@V?$allocator@D@2@@std@@V?$allocator@V?$basic_string@DU?$char_traits@D@std@@V?$allocator@D@2@@std@@@2@@2@@std@@PAX@std@@@std@@@std@@QAEXXZ ; std::_Alloc_construct_ptr<std::allocator<std::_Tree_node<std::pair<std::basic_string<char,std::char_traits<char>,std::allocator<char> > const ,std::vector<std::basic_string<char,std::char_traits<char>,std::allocator<char> >,std::allocator<std::basic_string<char,std::char_traits<char>,std::allocator<char> > > > >,void *> > >::_Allocate

; 805  :         : _Tree_temp_node_alloc<_Alnode>(_Al_) {

  00043	c7 45 fc 01 00
	00 00		 mov	 DWORD PTR __$EHRec$[ebp+8], 1
; File C:\Program Files (x86)\Microsoft Visual Studio\2019\Community\VC\Tools\MSVC\14.28.29333\include\type_traits

; 1443 :     return static_cast<_Ty&&>(_Arg);

  0004a	8b 45 10	 mov	 eax, DWORD PTR _<_Vals_0>$[ebp]
  0004d	89 45 dc	 mov	 DWORD PTR $T2[ebp], eax
; File C:\Program Files (x86)\Microsoft Visual Studio\2019\Community\VC\Tools\MSVC\14.28.29333\include\xtree

; 806  :         _Alnode_traits::construct(this->_Al, _STD addressof(this->_Ptr->_Myval), _STD forward<_Valtys>(_Vals)...);

  00050	8b 45 f0	 mov	 eax, DWORD PTR _this$[ebp]
  00053	8b 40 04	 mov	 eax, DWORD PTR [eax+4]
  00056	83 c0 10	 add	 eax, 16			; 00000010H
  00059	89 45 e4	 mov	 DWORD PTR __Val$[ebp], eax
; File C:\Program Files (x86)\Microsoft Visual Studio\2019\Community\VC\Tools\MSVC\14.28.29333\include\xstddef

; 275  :     return __builtin_addressof(_Val);

  0005c	8b 45 e4	 mov	 eax, DWORD PTR __Val$[ebp]
  0005f	89 45 e0	 mov	 DWORD PTR $T3[ebp], eax
; File C:\Program Files (x86)\Microsoft Visual Studio\2019\Community\VC\Tools\MSVC\14.28.29333\include\xtree

; 806  :         _Alnode_traits::construct(this->_Al, _STD addressof(this->_Ptr->_Myval), _STD forward<_Valtys>(_Vals)...);

  00062	8b 45 f0	 mov	 eax, DWORD PTR _this$[ebp]
  00065	8b 00		 mov	 eax, DWORD PTR [eax]
  00067	89 45 d8	 mov	 DWORD PTR ___formal$[ebp], eax
; File C:\Program Files (x86)\Microsoft Visual Studio\2019\Community\VC\Tools\MSVC\14.28.29333\include\vcruntime_new.h

; 169  :         return _Where;

  0006a	8b 45 e0	 mov	 eax, DWORD PTR $T3[ebp]
  0006d	89 45 e8	 mov	 DWORD PTR $T4[ebp], eax
; File C:\Program Files (x86)\Microsoft Visual Studio\2019\Community\VC\Tools\MSVC\14.28.29333\include\type_traits

; 1443 :     return static_cast<_Ty&&>(_Arg);

  00070	8b 45 dc	 mov	 eax, DWORD PTR $T2[ebp]
  00073	89 45 ec	 mov	 DWORD PTR $T5[ebp], eax
; File D:\Metin2 Server Files\mainline\SRC_2014\Metin2Client\EterLib\Util.cpp

  00076	ff 75 ec	 push	 DWORD PTR $T5[ebp]
  00079	8b 4d e8	 mov	 ecx, DWORD PTR $T4[ebp]
  0007c	e8 00 00 00 00	 call	 ??0?$basic_string@DU?$char_traits@D@std@@V?$allocator@D@2@@std@@QAE@ABV01@@Z ; std::basic_string<char,std::char_traits<char>,std::allocator<char> >::basic_string<char,std::char_traits<char>,std::allocator<char> >
  00081	8b 45 ec	 mov	 eax, DWORD PTR $T5[ebp]
  00084	83 c0 18	 add	 eax, 24			; 00000018H
  00087	50		 push	 eax
  00088	8b 4d e8	 mov	 ecx, DWORD PTR $T4[ebp]
  0008b	83 c1 18	 add	 ecx, 24			; 00000018H
  0008e	e8 00 00 00 00	 call	 ??0?$vector@V?$basic_string@DU?$char_traits@D@std@@V?$allocator@D@2@@std@@V?$allocator@V?$basic_string@DU?$char_traits@D@std@@V?$allocator@D@2@@std@@@2@@std@@QAE@$$QAV01@@Z ; std::vector<std::basic_string<char,std::char_traits<char>,std::allocator<char> >,std::allocator<std::basic_string<char,std::char_traits<char>,std::allocator<char> > > >::vector<std::basic_string<char,std::char_traits<char>,std::allocator<char> >,std::allocator<std::basic_string<char,std::char_traits<char>,std::allocator<char> > > >
; File C:\Program Files (x86)\Microsoft Visual Studio\2019\Community\VC\Tools\MSVC\14.28.29333\include\xtree

; 807  :         _Construct_in_place(this->_Ptr->_Left, _Myhead);

  00093	8d 45 0c	 lea	 eax, DWORD PTR __Myhead$[ebp]
  00096	50		 push	 eax
  00097	8b 45 f0	 mov	 eax, DWORD PTR _this$[ebp]
  0009a	ff 70 04	 push	 DWORD PTR [eax+4]
  0009d	e8 00 00 00 00	 call	 ??$_Construct_in_place@PAU?$_Tree_node@U?$pair@$$CBV?$basic_string@DU?$char_traits@D@std@@V?$allocator@D@2@@std@@V?$vector@V?$basic_string@DU?$char_traits@D@std@@V?$allocator@D@2@@std@@V?$allocator@V?$basic_string@DU?$char_traits@D@std@@V?$allocator@D@2@@std@@@2@@2@@std@@PAX@std@@AAPAU12@@std@@YAXAAPAU?$_Tree_node@U?$pair@$$CBV?$basic_string@DU?$char_traits@D@std@@V?$allocator@D@2@@std@@V?$vector@V?$basic_string@DU?$char_traits@D@std@@V?$allocator@D@2@@std@@V?$allocator@V?$basic_string@DU?$char_traits@D@std@@V?$allocator@D@2@@std@@@2@@2@@std@@PAX@0@0@Z ; std::_Construct_in_place<std::_Tree_node<std::pair<std::basic_string<char,std::char_traits<char>,std::allocator<char> > const ,std::vector<std::basic_string<char,std::char_traits<char>,std::allocator<char> >,std::allocator<std::basic_string<char,std::char_traits<char>,std::allocator<char> > > > >,void *> *,std::_Tree_node<std::pair<std::basic_string<char,std::char_traits<char>,std::allocator<char> > const ,std::vector<std::basic_string<char,std::char_traits<char>,std::allocator<char> >,std::allocator<std::basic_string<char,std::char_traits<char>,std::allocator<char> > > > >,void *> * &>
  000a2	59		 pop	 ecx
  000a3	59		 pop	 ecx

; 808  :         _Construct_in_place(this->_Ptr->_Parent, _Myhead);

  000a4	8d 45 0c	 lea	 eax, DWORD PTR __Myhead$[ebp]
  000a7	50		 push	 eax
  000a8	8b 45 f0	 mov	 eax, DWORD PTR _this$[ebp]
  000ab	8b 40 04	 mov	 eax, DWORD PTR [eax+4]
  000ae	83 c0 04	 add	 eax, 4
  000b1	50		 push	 eax
  000b2	e8 00 00 00 00	 call	 ??$_Construct_in_place@PAU?$_Tree_node@U?$pair@$$CBV?$basic_string@DU?$char_traits@D@std@@V?$allocator@D@2@@std@@V?$vector@V?$basic_string@DU?$char_traits@D@std@@V?$allocator@D@2@@std@@V?$allocator@V?$basic_string@DU?$char_traits@D@std@@V?$allocator@D@2@@std@@@2@@2@@std@@PAX@std@@AAPAU12@@std@@YAXAAPAU?$_Tree_node@U?$pair@$$CBV?$basic_string@DU?$char_traits@D@std@@V?$allocator@D@2@@std@@V?$vector@V?$basic_string@DU?$char_traits@D@std@@V?$allocator@D@2@@std@@V?$allocator@V?$basic_string@DU?$char_traits@D@std@@V?$allocator@D@2@@std@@@2@@2@@std@@PAX@0@0@Z ; std::_Construct_in_place<std::_Tree_node<std::pair<std::basic_string<char,std::char_traits<char>,std::allocator<char> > const ,std::vector<std::basic_string<char,std::char_traits<char>,std::allocator<char> >,std::allocator<std::basic_string<char,std::char_traits<char>,std::allocator<char> > > > >,void *> *,std::_Tree_node<std::pair<std::basic_string<char,std::char_traits<char>,std::allocator<char> > const ,std::vector<std::basic_string<char,std::char_traits<char>,std::allocator<char> >,std::allocator<std::basic_string<char,std::char_traits<char>,std::allocator<char> > > > >,void *> * &>
  000b7	59		 pop	 ecx
  000b8	59		 pop	 ecx

; 809  :         _Construct_in_place(this->_Ptr->_Right, _Myhead);

  000b9	8d 45 0c	 lea	 eax, DWORD PTR __Myhead$[ebp]
  000bc	50		 push	 eax
  000bd	8b 45 f0	 mov	 eax, DWORD PTR _this$[ebp]
  000c0	8b 40 04	 mov	 eax, DWORD PTR [eax+4]
  000c3	83 c0 08	 add	 eax, 8
  000c6	50		 push	 eax
  000c7	e8 00 00 00 00	 call	 ??$_Construct_in_place@PAU?$_Tree_node@U?$pair@$$CBV?$basic_string@DU?$char_traits@D@std@@V?$allocator@D@2@@std@@V?$vector@V?$basic_string@DU?$char_traits@D@std@@V?$allocator@D@2@@std@@V?$allocator@V?$basic_string@DU?$char_traits@D@std@@V?$allocator@D@2@@std@@@2@@2@@std@@PAX@std@@AAPAU12@@std@@YAXAAPAU?$_Tree_node@U?$pair@$$CBV?$basic_string@DU?$char_traits@D@std@@V?$allocator@D@2@@std@@V?$vector@V?$basic_string@DU?$char_traits@D@std@@V?$allocator@D@2@@std@@V?$allocator@V?$basic_string@DU?$char_traits@D@std@@V?$allocator@D@2@@std@@@2@@2@@std@@PAX@0@0@Z ; std::_Construct_in_place<std::_Tree_node<std::pair<std::basic_string<char,std::char_traits<char>,std::allocator<char> > const ,std::vector<std::basic_string<char,std::char_traits<char>,std::allocator<char> >,std::allocator<std::basic_string<char,std::char_traits<char>,std::allocator<char> > > > >,void *> *,std::_Tree_node<std::pair<std::basic_string<char,std::char_traits<char>,std::allocator<char> > const ,std::vector<std::basic_string<char,std::char_traits<char>,std::allocator<char> >,std::allocator<std::basic_string<char,std::char_traits<char>,std::allocator<char> > > > >,void *> * &>
  000cc	59		 pop	 ecx
  000cd	59		 pop	 ecx

; 810  :         this->_Ptr->_Color = _Red;

  000ce	8b 45 f0	 mov	 eax, DWORD PTR _this$[ebp]
  000d1	8b 40 04	 mov	 eax, DWORD PTR [eax+4]
  000d4	c6 40 0c 00	 mov	 BYTE PTR [eax+12], 0

; 811  :         this->_Ptr->_Isnil = false;

  000d8	8b 45 f0	 mov	 eax, DWORD PTR _this$[ebp]
  000db	8b 40 04	 mov	 eax, DWORD PTR [eax+4]
  000de	c6 40 0d 00	 mov	 BYTE PTR [eax+13], 0

; 812  :     }

  000e2	83 4d fc ff	 or	 DWORD PTR __$EHRec$[ebp+8], -1
  000e6	8b 45 f0	 mov	 eax, DWORD PTR _this$[ebp]
  000e9	8b 4d f4	 mov	 ecx, DWORD PTR __$EHRec$[ebp]
  000ec	64 89 0d 00 00
	00 00		 mov	 DWORD PTR fs:0, ecx
  000f3	59		 pop	 ecx
  000f4	c9		 leave
  000f5	c2 0c 00	 ret	 12			; 0000000cH
_TEXT	ENDS
;	COMDAT text$x
text$x	SEGMENT
__unwindfunclet$??$?0U?$pair@$$CBV?$basic_string@DU?$char_traits@D@std@@V?$allocator@D@2@@std@@V?$vector@V?$basic_string@DU?$char_traits@D@std@@V?$allocator@D@2@@std@@V?$allocator@V?$basic_string@DU?$char_traits@D@std@@V?$allocator@D@2@@std@@@2@@2@@std@@@?$_Tree_temp_node@V?$allocator@U?$_Tree_node@U?$pair@$$CBV?$basic_string@DU?$char_traits@D@std@@V?$allocator@D@2@@std@@V?$vector@V?$basic_string@DU?$char_traits@D@std@@V?$allocator@D@2@@std@@V?$allocator@V?$basic_string@DU?$char_traits@D@std@@V?$allocator@D@2@@std@@@2@@2@@std@@PAX@std@@@std@@@std@@QAE@AAV?$allocator@U?$_Tree_node@U?$pair@$$CBV?$basic_string@DU?$char_traits@D@std@@V?$allocator@D@2@@std@@V?$vector@V?$basic_string@DU?$char_traits@D@std@@V?$allocator@D@2@@std@@V?$allocator@V?$basic_string@DU?$char_traits@D@std@@V?$allocator@D@2@@std@@@2@@2@@std@@PAX@std@@@1@PAU?$_Tree_node@U?$pair@$$CBV?$basic_string@DU?$char_traits@D@std@@V?$allocator@D@2@@std@@V?$vector@V?$basic_string@DU?$char_traits@D@std@@V?$allocator@D@2@@std@@V?$allocator@V?$basic_string@DU?$char_traits@D@std@@V?$allocator@D@2@@std@@@2@@2@@std@@PAX@1@$$QAU?$pair@$$CBV?$basic_string@DU?$char_traits@D@std@@V?$allocator@D@2@@std@@V?$vector@V?$basic_string@DU?$char_traits@D@std@@V?$allocator@D@2@@std@@V?$allocator@V?$basic_string@DU?$char_traits@D@std@@V?$allocator@D@2@@std@@@2@@2@@1@@Z$1:
  00000	8b 4d f0	 mov	 ecx, DWORD PTR _this$[ebp]
  00003	e9 00 00 00 00	 jmp	 ??1?$_Alloc_construct_ptr@V?$allocator@U?$_Tree_node@U?$pair@$$CBV?$basic_string@DU?$char_traits@D@std@@V?$allocator@D@2@@std@@V?$vector@V?$basic_string@DU?$char_traits@D@std@@V?$allocator@D@2@@std@@V?$allocator@V?$basic_string@DU?$char_traits@D@std@@V?$allocator@D@2@@std@@@2@@2@@std@@PAX@std@@@std@@@std@@QAE@XZ ; std::_Alloc_construct_ptr<std::allocator<std::_Tree_node<std::pair<std::basic_string<char,std::char_traits<char>,std::allocator<char> > const ,std::vector<std::basic_string<char,std::char_traits<char>,std::allocator<char> >,std::allocator<std::basic_string<char,std::char_traits<char>,std::allocator<char> > > > >,void *> > >::~_Alloc_construct_ptr<std::allocator<std::_Tree_node<std::pair<std::basic_string<char,std::char_traits<char>,std::allocator<char> > const ,std::vector<std::basic_string<char,std::char_traits<char>,std::allocator<char> >,std::allocator<std::basic_string<char,std::char_traits<char>,std::allocator<char> > > > >,void *> > >
__unwindfunclet$??$?0U?$pair@$$CBV?$basic_string@DU?$char_traits@D@std@@V?$allocator@D@2@@std@@V?$vector@V?$basic_string@DU?$char_traits@D@std@@V?$allocator@D@2@@std@@V?$allocator@V?$basic_string@DU?$char_traits@D@std@@V?$allocator@D@2@@std@@@2@@2@@std@@@?$_Tree_temp_node@V?$allocator@U?$_Tree_node@U?$pair@$$CBV?$basic_string@DU?$char_traits@D@std@@V?$allocator@D@2@@std@@V?$vector@V?$basic_string@DU?$char_traits@D@std@@V?$allocator@D@2@@std@@V?$allocator@V?$basic_string@DU?$char_traits@D@std@@V?$allocator@D@2@@std@@@2@@2@@std@@PAX@std@@@std@@@std@@QAE@AAV?$allocator@U?$_Tree_node@U?$pair@$$CBV?$basic_string@DU?$char_traits@D@std@@V?$allocator@D@2@@std@@V?$vector@V?$basic_string@DU?$char_traits@D@std@@V?$allocator@D@2@@std@@V?$allocator@V?$basic_string@DU?$char_traits@D@std@@V?$allocator@D@2@@std@@@2@@2@@std@@PAX@std@@@1@PAU?$_Tree_node@U?$pair@$$CBV?$basic_string@DU?$char_traits@D@std@@V?$allocator@D@2@@std@@V?$vector@V?$basic_string@DU?$char_traits@D@std@@V?$allocator@D@2@@std@@V?$allocator@V?$basic_string@DU?$char_traits@D@std@@V?$allocator@D@2@@std@@@2@@2@@std@@PAX@1@$$QAU?$pair@$$CBV?$basic_string@DU?$char_traits@D@std@@V?$allocator@D@2@@std@@V?$vector@V?$basic_string@DU?$char_traits@D@std@@V?$allocator@D@2@@std@@V?$allocator@V?$basic_string@DU?$char_traits@D@std@@V?$allocator@D@2@@std@@@2@@2@@1@@Z$0:
  00008	8b 4d f0	 mov	 ecx, DWORD PTR _this$[ebp]
  0000b	e9 00 00 00 00	 jmp	 ??1?$_Tree_temp_node_alloc@V?$allocator@U?$_Tree_node@U?$pair@$$CBV?$basic_string@DU?$char_traits@D@std@@V?$allocator@D@2@@std@@V?$vector@V?$basic_string@DU?$char_traits@D@std@@V?$allocator@D@2@@std@@V?$allocator@V?$basic_string@DU?$char_traits@D@std@@V?$allocator@D@2@@std@@@2@@2@@std@@PAX@std@@@std@@@std@@QAE@XZ
  00010	cc		 int	 3
  00011	cc		 int	 3
  00012	cc		 int	 3
  00013	cc		 int	 3
  00014	cc		 int	 3
__ehhandler$??$?0U?$pair@$$CBV?$basic_string@DU?$char_traits@D@std@@V?$allocator@D@2@@std@@V?$vector@V?$basic_string@DU?$char_traits@D@std@@V?$allocator@D@2@@std@@V?$allocator@V?$basic_string@DU?$char_traits@D@std@@V?$allocator@D@2@@std@@@2@@2@@std@@@?$_Tree_temp_node@V?$allocator@U?$_Tree_node@U?$pair@$$CBV?$basic_string@DU?$char_traits@D@std@@V?$allocator@D@2@@std@@V?$vector@V?$basic_string@DU?$char_traits@D@std@@V?$allocator@D@2@@std@@V?$allocator@V?$basic_string@DU?$char_traits@D@std@@V?$allocator@D@2@@std@@@2@@2@@std@@PAX@std@@@std@@@std@@QAE@AAV?$allocator@U?$_Tree_node@U?$pair@$$CBV?$basic_string@DU?$char_traits@D@std@@V?$allocator@D@2@@std@@V?$vector@V?$basic_string@DU?$char_traits@D@std@@V?$allocator@D@2@@std@@V?$allocator@V?$basic_string@DU?$char_traits@D@std@@V?$allocator@D@2@@std@@@2@@2@@std@@PAX@std@@@1@PAU?$_Tree_node@U?$pair@$$CBV?$basic_string@DU?$char_traits@D@std@@V?$allocator@D@2@@std@@V?$vector@V?$basic_string@DU?$char_traits@D@std@@V?$allocator@D@2@@std@@V?$allocator@V?$basic_string@DU?$char_traits@D@std@@V?$allocator@D@2@@std@@@2@@2@@std@@PAX@1@$$QAU?$pair@$$CBV?$basic_string@DU?$char_traits@D@std@@V?$allocator@D@2@@std@@V?$vector@V?$basic_string@DU?$char_traits@D@std@@V?$allocator@D@2@@std@@V?$allocator@V?$basic_string@DU?$char_traits@D@std@@V?$allocator@D@2@@std@@@2@@2@@1@@Z:
  00015	90		 npad	 1
  00016	90		 npad	 1
  00017	8b 54 24 08	 mov	 edx, DWORD PTR [esp+8]
  0001b	8d 42 0c	 lea	 eax, DWORD PTR [edx+12]
  0001e	8b 4a e0	 mov	 ecx, DWORD PTR [edx-32]
  00021	33 c8		 xor	 ecx, eax
  00023	e8 00 00 00 00	 call	 @__security_check_cookie@4
  00028	b8 00 00 00 00	 mov	 eax, OFFSET __ehfuncinfo$??$?0U?$pair@$$CBV?$basic_string@DU?$char_traits@D@std@@V?$allocator@D@2@@std@@V?$vector@V?$basic_string@DU?$char_traits@D@std@@V?$allocator@D@2@@std@@V?$allocator@V?$basic_string@DU?$char_traits@D@std@@V?$allocator@D@2@@std@@@2@@2@@std@@@?$_Tree_temp_node@V?$allocator@U?$_Tree_node@U?$pair@$$CBV?$basic_string@DU?$char_traits@D@std@@V?$allocator@D@2@@std@@V?$vector@V?$basic_string@DU?$char_traits@D@std@@V?$allocator@D@2@@std@@V?$allocator@V?$basic_string@DU?$char_traits@D@std@@V?$allocator@D@2@@std@@@2@@2@@std@@PAX@std@@@std@@@std@@QAE@AAV?$allocator@U?$_Tree_node@U?$pair@$$CBV?$basic_string@DU?$char_traits@D@std@@V?$allocator@D@2@@std@@V?$vector@V?$basic_string@DU?$char_traits@D@std@@V?$allocator@D@2@@std@@V?$allocator@V?$basic_string@DU?$char_traits@D@std@@V?$allocator@D@2@@std@@@2@@2@@std@@PAX@std@@@1@PAU?$_Tree_node@U?$pair@$$CBV?$basic_string@DU?$char_traits@D@std@@V?$allocator@D@2@@std@@V?$vector@V?$basic_string@DU?$char_traits@D@std@@V?$allocator@D@2@@std@@V?$allocator@V?$basic_string@DU?$char_traits@D@std@@V?$allocator@D@2@@std@@@2@@2@@std@@PAX@1@$$QAU?$pair@$$CBV?$basic_string@DU?$char_traits@D@std@@V?$allocator@D@2@@std@@V?$vector@V?$basic_string@DU?$char_traits@D@std@@V?$allocator@D@2@@std@@V?$allocator@V?$basic_string@DU?$char_traits@D@std@@V?$allocator@D@2@@std@@@2@@2@@1@@Z
  0002d	e9 00 00 00 00	 jmp	 ___CxxFrameHandler3
text$x	ENDS
??$?0U?$pair@$$CBV?$basic_string@DU?$char_traits@D@std@@V?$allocator@D@2@@std@@V?$vector@V?$basic_string@DU?$char_traits@D@std@@V?$allocator@D@2@@std@@V?$allocator@V?$basic_string@DU?$char_traits@D@std@@V?$allocator@D@2@@std@@@2@@2@@std@@@?$_Tree_temp_node@V?$allocator@U?$_Tree_node@U?$pair@$$CBV?$basic_string@DU?$char_traits@D@std@@V?$allocator@D@2@@std@@V?$vector@V?$basic_string@DU?$char_traits@D@std@@V?$allocator@D@2@@std@@V?$allocator@V?$basic_string@DU?$char_traits@D@std@@V?$allocator@D@2@@std@@@2@@2@@std@@PAX@std@@@std@@@std@@QAE@AAV?$allocator@U?$_Tree_node@U?$pair@$$CBV?$basic_string@DU?$char_traits@D@std@@V?$allocator@D@2@@std@@V?$vector@V?$basic_string@DU?$char_traits@D@std@@V?$allocator@D@2@@std@@V?$allocator@V?$basic_string@DU?$char_traits@D@std@@V?$allocator@D@2@@std@@@2@@2@@std@@PAX@std@@@1@PAU?$_Tree_node@U?$pair@$$CBV?$basic_string@DU?$char_traits@D@std@@V?$allocator@D@2@@std@@V?$vector@V?$basic_string@DU?$char_traits@D@std@@V?$allocator@D@2@@std@@V?$allocator@V?$basic_string@DU?$char_traits@D@std@@V?$allocator@D@2@@std@@@2@@2@@std@@PAX@1@$$QAU?$pair@$$CBV?$basic_string@DU?$char_traits@D@std@@V?$allocator@D@2@@std@@V?$vector@V?$basic_string@DU?$char_traits@D@std@@V?$allocator@D@2@@std@@V?$allocator@V?$basic_string@DU?$char_traits@D@std@@V?$allocator@D@2@@std@@@2@@2@@1@@Z ENDP ; std::_Tree_temp_node<std::allocator<std::_Tree_node<std::pair<std::basic_string<char,std::char_traits<char>,std::allocator<char> > const ,std::vector<std::basic_string<char,std::char_traits<char>,std::allocator<char> >,std::allocator<std::basic_string<char,std::char_traits<char>,std::allocator<char> > > > >,void *> > >::_Tree_temp_node<std::allocator<std::_Tree_node<std::pair<std::basic_string<char,std::char_traits<char>,std::allocator<char> > const ,std::vector<std::basic_string<char,std::char_traits<char>,std::allocator<char> >,std::allocator<std::basic_string<char,std::char_traits<char>,std::allocator<char> > > > >,void *> > ><std::pair<std::basic_string<char,std::char_traits<char>,std::allocator<char> > const ,std::vector<std::basic_string<char,std::char_traits<char>,std::allocator<char> >,std::allocator<std::basic_string<char,std::char_traits<char>,std::allocator<char> > > > > >
; Function compile flags: /Odspy
; File C:\Program Files (x86)\Microsoft Visual Studio\2019\Community\VC\Tools\MSVC\14.28.29333\include\xtree
; File C:\Program Files (x86)\Microsoft Visual Studio\2019\Community\VC\Tools\MSVC\14.28.29333\include\xstddef
; File C:\Program Files (x86)\Microsoft Visual Studio\2019\Community\VC\Tools\MSVC\14.28.29333\include\xtree
; File C:\Program Files (x86)\Microsoft Visual Studio\2019\Community\VC\Tools\MSVC\14.28.29333\include\xmemory
; File C:\Program Files (x86)\Microsoft Visual Studio\2019\Community\VC\Tools\MSVC\14.28.29333\include\xtree
;	COMDAT ??1?$_Tree_temp_node@V?$allocator@U?$_Tree_node@U?$pair@$$CBV?$basic_string@DU?$char_traits@D@std@@V?$allocator@D@2@@std@@V?$vector@V?$basic_string@DU?$char_traits@D@std@@V?$allocator@D@2@@std@@V?$allocator@V?$basic_string@DU?$char_traits@D@std@@V?$allocator@D@2@@std@@@2@@2@@std@@PAX@std@@@std@@@std@@QAE@XZ
_TEXT	SEGMENT
___formal$ = -16					; size = 4
$T1 = -12						; size = 4
__Val$ = -8						; size = 4
_this$ = -4						; size = 4
??1?$_Tree_temp_node@V?$allocator@U?$_Tree_node@U?$pair@$$CBV?$basic_string@DU?$char_traits@D@std@@V?$allocator@D@2@@std@@V?$vector@V?$basic_string@DU?$char_traits@D@std@@V?$allocator@D@2@@std@@V?$allocator@V?$basic_string@DU?$char_traits@D@std@@V?$allocator@D@2@@std@@@2@@2@@std@@PAX@std@@@std@@@std@@QAE@XZ PROC ; std::_Tree_temp_node<std::allocator<std::_Tree_node<std::pair<std::basic_string<char,std::char_traits<char>,std::allocator<char> > const ,std::vector<std::basic_string<char,std::char_traits<char>,std::allocator<char> >,std::allocator<std::basic_string<char,std::char_traits<char>,std::allocator<char> > > > >,void *> > >::~_Tree_temp_node<std::allocator<std::_Tree_node<std::pair<std::basic_string<char,std::char_traits<char>,std::allocator<char> > const ,std::vector<std::basic_string<char,std::char_traits<char>,std::allocator<char> >,std::allocator<std::basic_string<char,std::char_traits<char>,std::allocator<char> > > > >,void *> > >, COMDAT
; _this$ = ecx

; 817  :     ~_Tree_temp_node() {

  00000	55		 push	 ebp
  00001	8b ec		 mov	 ebp, esp
  00003	83 ec 10	 sub	 esp, 16			; 00000010H
  00006	89 4d fc	 mov	 DWORD PTR _this$[ebp], ecx

; 818  :         if (this->_Ptr) {

  00009	8b 45 fc	 mov	 eax, DWORD PTR _this$[ebp]
  0000c	83 78 04 00	 cmp	 DWORD PTR [eax+4], 0
  00010	74 50		 je	 SHORT $LN54@Tree_temp_

; 819  :             _Destroy_in_place(this->_Ptr->_Left);

  00012	8b 45 fc	 mov	 eax, DWORD PTR _this$[ebp]
  00015	ff 70 04	 push	 DWORD PTR [eax+4]
  00018	e8 00 00 00 00	 call	 ??$_Destroy_in_place@PAU?$_Tree_node@U?$pair@$$CBV?$basic_string@DU?$char_traits@D@std@@V?$allocator@D@2@@std@@V?$vector@V?$basic_string@DU?$char_traits@D@std@@V?$allocator@D@2@@std@@V?$allocator@V?$basic_string@DU?$char_traits@D@std@@V?$allocator@D@2@@std@@@2@@2@@std@@PAX@std@@@std@@YAXAAPAU?$_Tree_node@U?$pair@$$CBV?$basic_string@DU?$char_traits@D@std@@V?$allocator@D@2@@std@@V?$vector@V?$basic_string@DU?$char_traits@D@std@@V?$allocator@D@2@@std@@V?$allocator@V?$basic_string@DU?$char_traits@D@std@@V?$allocator@D@2@@std@@@2@@2@@std@@PAX@0@@Z ; std::_Destroy_in_place<std::_Tree_node<std::pair<std::basic_string<char,std::char_traits<char>,std::allocator<char> > const ,std::vector<std::basic_string<char,std::char_traits<char>,std::allocator<char> >,std::allocator<std::basic_string<char,std::char_traits<char>,std::allocator<char> > > > >,void *> *>
  0001d	59		 pop	 ecx

; 820  :             _Destroy_in_place(this->_Ptr->_Parent);

  0001e	8b 45 fc	 mov	 eax, DWORD PTR _this$[ebp]
  00021	8b 40 04	 mov	 eax, DWORD PTR [eax+4]
  00024	83 c0 04	 add	 eax, 4
  00027	50		 push	 eax
  00028	e8 00 00 00 00	 call	 ??$_Destroy_in_place@PAU?$_Tree_node@U?$pair@$$CBV?$basic_string@DU?$char_traits@D@std@@V?$allocator@D@2@@std@@V?$vector@V?$basic_string@DU?$char_traits@D@std@@V?$allocator@D@2@@std@@V?$allocator@V?$basic_string@DU?$char_traits@D@std@@V?$allocator@D@2@@std@@@2@@2@@std@@PAX@std@@@std@@YAXAAPAU?$_Tree_node@U?$pair@$$CBV?$basic_string@DU?$char_traits@D@std@@V?$allocator@D@2@@std@@V?$vector@V?$basic_string@DU?$char_traits@D@std@@V?$allocator@D@2@@std@@V?$allocator@V?$basic_string@DU?$char_traits@D@std@@V?$allocator@D@2@@std@@@2@@2@@std@@PAX@0@@Z ; std::_Destroy_in_place<std::_Tree_node<std::pair<std::basic_string<char,std::char_traits<char>,std::allocator<char> > const ,std::vector<std::basic_string<char,std::char_traits<char>,std::allocator<char> >,std::allocator<std::basic_string<char,std::char_traits<char>,std::allocator<char> > > > >,void *> *>
  0002d	59		 pop	 ecx

; 821  :             _Destroy_in_place(this->_Ptr->_Right);

  0002e	8b 45 fc	 mov	 eax, DWORD PTR _this$[ebp]
  00031	8b 40 04	 mov	 eax, DWORD PTR [eax+4]
  00034	83 c0 08	 add	 eax, 8
  00037	50		 push	 eax
  00038	e8 00 00 00 00	 call	 ??$_Destroy_in_place@PAU?$_Tree_node@U?$pair@$$CBV?$basic_string@DU?$char_traits@D@std@@V?$allocator@D@2@@std@@V?$vector@V?$basic_string@DU?$char_traits@D@std@@V?$allocator@D@2@@std@@V?$allocator@V?$basic_string@DU?$char_traits@D@std@@V?$allocator@D@2@@std@@@2@@2@@std@@PAX@std@@@std@@YAXAAPAU?$_Tree_node@U?$pair@$$CBV?$basic_string@DU?$char_traits@D@std@@V?$allocator@D@2@@std@@V?$vector@V?$basic_string@DU?$char_traits@D@std@@V?$allocator@D@2@@std@@V?$allocator@V?$basic_string@DU?$char_traits@D@std@@V?$allocator@D@2@@std@@@2@@2@@std@@PAX@0@@Z ; std::_Destroy_in_place<std::_Tree_node<std::pair<std::basic_string<char,std::char_traits<char>,std::allocator<char> > const ,std::vector<std::basic_string<char,std::char_traits<char>,std::allocator<char> >,std::allocator<std::basic_string<char,std::char_traits<char>,std::allocator<char> > > > >,void *> *>
  0003d	59		 pop	 ecx

; 822  :             _Alnode_traits::destroy(this->_Al, _STD addressof(this->_Ptr->_Myval));

  0003e	8b 45 fc	 mov	 eax, DWORD PTR _this$[ebp]
  00041	8b 40 04	 mov	 eax, DWORD PTR [eax+4]
  00044	83 c0 10	 add	 eax, 16			; 00000010H
  00047	89 45 f8	 mov	 DWORD PTR __Val$[ebp], eax
; File C:\Program Files (x86)\Microsoft Visual Studio\2019\Community\VC\Tools\MSVC\14.28.29333\include\xstddef

; 275  :     return __builtin_addressof(_Val);

  0004a	8b 45 f8	 mov	 eax, DWORD PTR __Val$[ebp]
  0004d	89 45 f4	 mov	 DWORD PTR $T1[ebp], eax
; File C:\Program Files (x86)\Microsoft Visual Studio\2019\Community\VC\Tools\MSVC\14.28.29333\include\xtree

; 822  :             _Alnode_traits::destroy(this->_Al, _STD addressof(this->_Ptr->_Myval));

  00050	8b 45 fc	 mov	 eax, DWORD PTR _this$[ebp]
  00053	8b 00		 mov	 eax, DWORD PTR [eax]
  00055	89 45 f0	 mov	 DWORD PTR ___formal$[ebp], eax
; File C:\Program Files (x86)\Microsoft Visual Studio\2019\Community\VC\Tools\MSVC\14.28.29333\include\xmemory

; 706  :         _Ptr->~_Uty();

  00058	6a 00		 push	 0
  0005a	8b 4d f4	 mov	 ecx, DWORD PTR $T1[ebp]
  0005d	e8 00 00 00 00	 call	 ??_G?$pair@$$CBV?$basic_string@DU?$char_traits@D@std@@V?$allocator@D@2@@std@@V?$vector@V?$basic_string@DU?$char_traits@D@std@@V?$allocator@D@2@@std@@V?$allocator@V?$basic_string@DU?$char_traits@D@std@@V?$allocator@D@2@@std@@@2@@2@@std@@QAEPAXI@Z
$LN54@Tree_temp_:
  00062	8b 4d fc	 mov	 ecx, DWORD PTR _this$[ebp]
  00065	e8 00 00 00 00	 call	 ??1?$_Alloc_construct_ptr@V?$allocator@U?$_Tree_node@U?$pair@$$CBV?$basic_string@DU?$char_traits@D@std@@V?$allocator@D@2@@std@@V?$vector@V?$basic_string@DU?$char_traits@D@std@@V?$allocator@D@2@@std@@V?$allocator@V?$basic_string@DU?$char_traits@D@std@@V?$allocator@D@2@@std@@@2@@2@@std@@PAX@std@@@std@@@std@@QAE@XZ ; std::_Alloc_construct_ptr<std::allocator<std::_Tree_node<std::pair<std::basic_string<char,std::char_traits<char>,std::allocator<char> > const ,std::vector<std::basic_string<char,std::char_traits<char>,std::allocator<char> >,std::allocator<std::basic_string<char,std::char_traits<char>,std::allocator<char> > > > >,void *> > >::~_Alloc_construct_ptr<std::allocator<std::_Tree_node<std::pair<std::basic_string<char,std::char_traits<char>,std::allocator<char> > const ,std::vector<std::basic_string<char,std::char_traits<char>,std::allocator<char> >,std::allocator<std::basic_string<char,std::char_traits<char>,std::allocator<char> > > > >,void *> > >
; File C:\Program Files (x86)\Microsoft Visual Studio\2019\Community\VC\Tools\MSVC\14.28.29333\include\xtree

; 824  :     }

  0006a	c9		 leave
  0006b	c3		 ret	 0
??1?$_Tree_temp_node@V?$allocator@U?$_Tree_node@U?$pair@$$CBV?$basic_string@DU?$char_traits@D@std@@V?$allocator@D@2@@std@@V?$vector@V?$basic_string@DU?$char_traits@D@std@@V?$allocator@D@2@@std@@V?$allocator@V?$basic_string@DU?$char_traits@D@std@@V?$allocator@D@2@@std@@@2@@2@@std@@PAX@std@@@std@@@std@@QAE@XZ ENDP ; std::_Tree_temp_node<std::allocator<std::_Tree_node<std::pair<std::basic_string<char,std::char_traits<char>,std::allocator<char> > const ,std::vector<std::basic_string<char,std::char_traits<char>,std::allocator<char> >,std::allocator<std::basic_string<char,std::char_traits<char>,std::allocator<char> > > > >,void *> > >::~_Tree_temp_node<std::allocator<std::_Tree_node<std::pair<std::basic_string<char,std::char_traits<char>,std::allocator<char> > const ,std::vector<std::basic_string<char,std::char_traits<char>,std::allocator<char> >,std::allocator<std::basic_string<char,std::char_traits<char>,std::allocator<char> > > > >,void *> > >
_TEXT	ENDS
; Function compile flags: /Odspy
;	COMDAT ??1?$_Tree_temp_node_alloc@V?$allocator@U?$_Tree_node@U?$pair@$$CBV?$basic_string@DU?$char_traits@D@std@@V?$allocator@D@2@@std@@V?$vector@V?$basic_string@DU?$char_traits@D@std@@V?$allocator@D@2@@std@@V?$allocator@V?$basic_string@DU?$char_traits@D@std@@V?$allocator@D@2@@std@@@2@@2@@std@@PAX@std@@@std@@@std@@QAE@XZ
_TEXT	SEGMENT
_this$ = -4						; size = 4
??1?$_Tree_temp_node_alloc@V?$allocator@U?$_Tree_node@U?$pair@$$CBV?$basic_string@DU?$char_traits@D@std@@V?$allocator@D@2@@std@@V?$vector@V?$basic_string@DU?$char_traits@D@std@@V?$allocator@D@2@@std@@V?$allocator@V?$basic_string@DU?$char_traits@D@std@@V?$allocator@D@2@@std@@@2@@2@@std@@PAX@std@@@std@@@std@@QAE@XZ PROC ; std::_Tree_temp_node_alloc<std::allocator<std::_Tree_node<std::pair<std::basic_string<char,std::char_traits<char>,std::allocator<char> > const ,std::vector<std::basic_string<char,std::char_traits<char>,std::allocator<char> >,std::allocator<std::basic_string<char,std::char_traits<char>,std::allocator<char> > > > >,void *> > >::~_Tree_temp_node_alloc<std::allocator<std::_Tree_node<std::pair<std::basic_string<char,std::char_traits<char>,std::allocator<char> > const ,std::vector<std::basic_string<char,std::char_traits<char>,std::allocator<char> >,std::allocator<std::basic_string<char,std::char_traits<char>,std::allocator<char> > > > >,void *> > >, COMDAT
; _this$ = ecx
  00000	55		 push	 ebp
  00001	8b ec		 mov	 ebp, esp
  00003	51		 push	 ecx
  00004	89 4d fc	 mov	 DWORD PTR _this$[ebp], ecx
  00007	8b 4d fc	 mov	 ecx, DWORD PTR _this$[ebp]
  0000a	e8 00 00 00 00	 call	 ??1?$_Alloc_construct_ptr@V?$allocator@U?$_Tree_node@U?$pair@$$CBV?$basic_string@DU?$char_traits@D@std@@V?$allocator@D@2@@std@@V?$vector@V?$basic_string@DU?$char_traits@D@std@@V?$allocator@D@2@@std@@V?$allocator@V?$basic_string@DU?$char_traits@D@std@@V?$allocator@D@2@@std@@@2@@2@@std@@PAX@std@@@std@@@std@@QAE@XZ ; std::_Alloc_construct_ptr<std::allocator<std::_Tree_node<std::pair<std::basic_string<char,std::char_traits<char>,std::allocator<char> > const ,std::vector<std::basic_string<char,std::char_traits<char>,std::allocator<char> >,std::allocator<std::basic_string<char,std::char_traits<char>,std::allocator<char> > > > >,void *> > >::~_Alloc_construct_ptr<std::allocator<std::_Tree_node<std::pair<std::basic_string<char,std::char_traits<char>,std::allocator<char> > const ,std::vector<std::basic_string<char,std::char_traits<char>,std::allocator<char> >,std::allocator<std::basic_string<char,std::char_traits<char>,std::allocator<char> > > > >,void *> > >
  0000f	c9		 leave
  00010	c3		 ret	 0
??1?$_Tree_temp_node_alloc@V?$allocator@U?$_Tree_node@U?$pair@$$CBV?$basic_string@DU?$char_traits@D@std@@V?$allocator@D@2@@std@@V?$vector@V?$basic_string@DU?$char_traits@D@std@@V?$allocator@D@2@@std@@V?$allocator@V?$basic_string@DU?$char_traits@D@std@@V?$allocator@D@2@@std@@@2@@2@@std@@PAX@std@@@std@@@std@@QAE@XZ ENDP ; std::_Tree_temp_node_alloc<std::allocator<std::_Tree_node<std::pair<std::basic_string<char,std::char_traits<char>,std::allocator<char> > const ,std::vector<std::basic_string<char,std::char_traits<char>,std::allocator<char> >,std::allocator<std::basic_string<char,std::char_traits<char>,std::allocator<char> > > > >,void *> > >::~_Tree_temp_node_alloc<std::allocator<std::_Tree_node<std::pair<std::basic_string<char,std::char_traits<char>,std::allocator<char> > const ,std::vector<std::basic_string<char,std::char_traits<char>,std::allocator<char> >,std::allocator<std::basic_string<char,std::char_traits<char>,std::allocator<char> > > > >,void *> > >
_TEXT	ENDS
; Function compile flags: /Odspy
; File C:\Program Files (x86)\Microsoft Visual Studio\2019\Community\VC\Tools\MSVC\14.28.29333\include\xmemory
;	COMDAT ??1?$_Alloc_construct_ptr@V?$allocator@U?$_Tree_node@U?$pair@$$CBV?$basic_string@DU?$char_traits@D@std@@V?$allocator@D@2@@std@@V?$vector@V?$basic_string@DU?$char_traits@D@std@@V?$allocator@D@2@@std@@V?$allocator@V?$basic_string@DU?$char_traits@D@std@@V?$allocator@D@2@@std@@@2@@2@@std@@PAX@std@@@std@@@std@@QAE@XZ
_TEXT	SEGMENT
_this$ = -12						; size = 4
__Ptr$ = -8						; size = 4
_this$ = -4						; size = 4
??1?$_Alloc_construct_ptr@V?$allocator@U?$_Tree_node@U?$pair@$$CBV?$basic_string@DU?$char_traits@D@std@@V?$allocator@D@2@@std@@V?$vector@V?$basic_string@DU?$char_traits@D@std@@V?$allocator@D@2@@std@@V?$allocator@V?$basic_string@DU?$char_traits@D@std@@V?$allocator@D@2@@std@@@2@@2@@std@@PAX@std@@@std@@@std@@QAE@XZ PROC ; std::_Alloc_construct_ptr<std::allocator<std::_Tree_node<std::pair<std::basic_string<char,std::char_traits<char>,std::allocator<char> > const ,std::vector<std::basic_string<char,std::char_traits<char>,std::allocator<char> >,std::allocator<std::basic_string<char,std::char_traits<char>,std::allocator<char> > > > >,void *> > >::~_Alloc_construct_ptr<std::allocator<std::_Tree_node<std::pair<std::basic_string<char,std::char_traits<char>,std::allocator<char> > const ,std::vector<std::basic_string<char,std::char_traits<char>,std::allocator<char> >,std::allocator<std::basic_string<char,std::char_traits<char>,std::allocator<char> > > > >,void *> > >, COMDAT
; _this$ = ecx

; 1056 :     ~_Alloc_construct_ptr() { // if this instance is engaged, deallocate storage

  00000	55		 push	 ebp
  00001	8b ec		 mov	 ebp, esp
  00003	83 ec 0c	 sub	 esp, 12			; 0000000cH
  00006	89 4d fc	 mov	 DWORD PTR _this$[ebp], ecx

; 1057 :         if (_Ptr) {

  00009	8b 45 fc	 mov	 eax, DWORD PTR _this$[ebp]
  0000c	83 78 04 00	 cmp	 DWORD PTR [eax+4], 0
  00010	74 22		 je	 SHORT $LN3@Alloc_cons

; 1058 :             _Al.deallocate(_Ptr, 1);

  00012	8b 45 fc	 mov	 eax, DWORD PTR _this$[ebp]
  00015	8b 40 04	 mov	 eax, DWORD PTR [eax+4]
  00018	89 45 f8	 mov	 DWORD PTR __Ptr$[ebp], eax
  0001b	8b 45 fc	 mov	 eax, DWORD PTR _this$[ebp]
  0001e	8b 00		 mov	 eax, DWORD PTR [eax]
  00020	89 45 f4	 mov	 DWORD PTR _this$[ebp], eax

; 810  :         _Deallocate<_New_alignof<_Ty>>(_Ptr, sizeof(_Ty) * _Count);

  00023	33 c0		 xor	 eax, eax
  00025	40		 inc	 eax
  00026	6b c0 34	 imul	 eax, eax, 52
  00029	50		 push	 eax
  0002a	ff 75 f8	 push	 DWORD PTR __Ptr$[ebp]
  0002d	e8 00 00 00 00	 call	 ??$_Deallocate@$07$0A@@std@@YAXPAXI@Z ; std::_Deallocate<8,0>
  00032	59		 pop	 ecx
  00033	59		 pop	 ecx
$LN3@Alloc_cons:

; 1059 :         }
; 1060 :     }

  00034	c9		 leave
  00035	c3		 ret	 0
??1?$_Alloc_construct_ptr@V?$allocator@U?$_Tree_node@U?$pair@$$CBV?$basic_string@DU?$char_traits@D@std@@V?$allocator@D@2@@std@@V?$vector@V?$basic_string@DU?$char_traits@D@std@@V?$allocator@D@2@@std@@V?$allocator@V?$basic_string@DU?$char_traits@D@std@@V?$allocator@D@2@@std@@@2@@2@@std@@PAX@std@@@std@@@std@@QAE@XZ ENDP ; std::_Alloc_construct_ptr<std::allocator<std::_Tree_node<std::pair<std::basic_string<char,std::char_traits<char>,std::allocator<char> > const ,std::vector<std::basic_string<char,std::char_traits<char>,std::allocator<char> >,std::allocator<std::basic_string<char,std::char_traits<char>,std::allocator<char> > > > >,void *> > >::~_Alloc_construct_ptr<std::allocator<std::_Tree_node<std::pair<std::basic_string<char,std::char_traits<char>,std::allocator<char> > const ,std::vector<std::basic_string<char,std::char_traits<char>,std::allocator<char> >,std::allocator<std::basic_string<char,std::char_traits<char>,std::allocator<char> > > > >,void *> > >
_TEXT	ENDS
; Function compile flags: /Odspy
; File C:\Program Files (x86)\Microsoft Visual Studio\2019\Community\VC\Tools\MSVC\14.28.29333\include\xmemory
;	COMDAT ?_Allocate@?$_Alloc_construct_ptr@V?$allocator@U?$_Tree_node@U?$pair@$$CBV?$basic_string@DU?$char_traits@D@std@@V?$allocator@D@2@@std@@V?$vector@V?$basic_string@DU?$char_traits@D@std@@V?$allocator@D@2@@std@@V?$allocator@V?$basic_string@DU?$char_traits@D@std@@V?$allocator@D@2@@std@@@2@@2@@std@@PAX@std@@@std@@@std@@QAEXXZ
_TEXT	SEGMENT
__Max_possible$1 = -24					; size = 4
_this$ = -20						; size = 4
$T2 = -16						; size = 4
$T3 = -12						; size = 4
_this$ = -8						; size = 4
__Overflow_is_possible$4 = -1				; size = 1
?_Allocate@?$_Alloc_construct_ptr@V?$allocator@U?$_Tree_node@U?$pair@$$CBV?$basic_string@DU?$char_traits@D@std@@V?$allocator@D@2@@std@@V?$vector@V?$basic_string@DU?$char_traits@D@std@@V?$allocator@D@2@@std@@V?$allocator@V?$basic_string@DU?$char_traits@D@std@@V?$allocator@D@2@@std@@@2@@2@@std@@PAX@std@@@std@@@std@@QAEXXZ PROC ; std::_Alloc_construct_ptr<std::allocator<std::_Tree_node<std::pair<std::basic_string<char,std::char_traits<char>,std::allocator<char> > const ,std::vector<std::basic_string<char,std::char_traits<char>,std::allocator<char> >,std::allocator<std::basic_string<char,std::char_traits<char>,std::allocator<char> > > > >,void *> > >::_Allocate, COMDAT
; _this$ = ecx

; 1051 :     void _Allocate() { // disengage *this, then allocate a new memory block

  00000	55		 push	 ebp
  00001	8b ec		 mov	 ebp, esp
  00003	83 ec 18	 sub	 esp, 24			; 00000018H
  00006	89 4d f8	 mov	 DWORD PTR _this$[ebp], ecx

; 1052 :         _Ptr = nullptr; // if allocate throws, prevents double-free

  00009	8b 45 f8	 mov	 eax, DWORD PTR _this$[ebp]
  0000c	83 60 04 00	 and	 DWORD PTR [eax+4], 0

; 1053 :         _Ptr = _Al.allocate(1);

  00010	8b 45 f8	 mov	 eax, DWORD PTR _this$[ebp]
  00013	8b 00		 mov	 eax, DWORD PTR [eax]
  00015	89 45 ec	 mov	 DWORD PTR _this$[ebp], eax

; 56   :     constexpr bool _Overflow_is_possible = _Ty_size > 1;

  00018	c6 45 ff 01	 mov	 BYTE PTR __Overflow_is_possible$4[ebp], 1

; 57   : 
; 58   :     if _CONSTEXPR_IF (_Overflow_is_possible) {
; 59   :         constexpr size_t _Max_possible = static_cast<size_t>(-1) / _Ty_size;

  0001c	c7 45 e8 c4 4e
	ec 04		 mov	 DWORD PTR __Max_possible$1[ebp], 82595524 ; 04ec4ec4H

; 60   :         if (_Count > _Max_possible) {

  00023	33 c0		 xor	 eax, eax
  00025	40		 inc	 eax
  00026	3d c4 4e ec 04	 cmp	 eax, 82595524		; 04ec4ec4H
  0002b	76 05		 jbe	 SHORT $LN6@Allocate

; 61   :             _Throw_bad_array_new_length(); // multiply overflow

  0002d	e8 00 00 00 00	 call	 ?_Throw_bad_array_new_length@std@@YAXXZ ; std::_Throw_bad_array_new_length
$LN6@Allocate:

; 62   :         }
; 63   :     }
; 64   : 
; 65   :     return _Count * _Ty_size;

  00032	33 c0		 xor	 eax, eax
  00034	40		 inc	 eax
  00035	6b c0 34	 imul	 eax, eax, 52
  00038	89 45 f4	 mov	 DWORD PTR $T3[ebp], eax

; 814  :         return static_cast<_Ty*>(_Allocate<_New_alignof<_Ty>>(_Get_size_of_n<sizeof(_Ty)>(_Count)));

  0003b	ff 75 f4	 push	 DWORD PTR $T3[ebp]
  0003e	e8 00 00 00 00	 call	 ??$_Allocate@$07U_Default_allocate_traits@std@@$0A@@std@@YAPAXI@Z ; std::_Allocate<8,std::_Default_allocate_traits,0>
  00043	59		 pop	 ecx
  00044	89 45 f0	 mov	 DWORD PTR $T2[ebp], eax

; 1053 :         _Ptr = _Al.allocate(1);

  00047	8b 45 f8	 mov	 eax, DWORD PTR _this$[ebp]
  0004a	8b 4d f0	 mov	 ecx, DWORD PTR $T2[ebp]
  0004d	89 48 04	 mov	 DWORD PTR [eax+4], ecx
$LN9@Allocate:

; 1054 :     }

  00050	c9		 leave
  00051	c3		 ret	 0
?_Allocate@?$_Alloc_construct_ptr@V?$allocator@U?$_Tree_node@U?$pair@$$CBV?$basic_string@DU?$char_traits@D@std@@V?$allocator@D@2@@std@@V?$vector@V?$basic_string@DU?$char_traits@D@std@@V?$allocator@D@2@@std@@V?$allocator@V?$basic_string@DU?$char_traits@D@std@@V?$allocator@D@2@@std@@@2@@2@@std@@PAX@std@@@std@@@std@@QAEXXZ ENDP ; std::_Alloc_construct_ptr<std::allocator<std::_Tree_node<std::pair<std::basic_string<char,std::char_traits<char>,std::allocator<char> > const ,std::vector<std::basic_string<char,std::char_traits<char>,std::allocator<char> >,std::allocator<std::basic_string<char,std::char_traits<char>,std::allocator<char> > > > >,void *> > >::_Allocate
_TEXT	ENDS
; Function compile flags: /Odspy
; File C:\Program Files (x86)\Microsoft Visual Studio\2019\Community\VC\Tools\MSVC\14.28.29333\include\xtree
; File C:\Program Files (x86)\Microsoft Visual Studio\2019\Community\VC\Tools\MSVC\14.28.29333\include\xmemory
; File C:\Program Files (x86)\Microsoft Visual Studio\2019\Community\VC\Tools\MSVC\14.28.29333\include\xtree
; File C:\Program Files (x86)\Microsoft Visual Studio\2019\Community\VC\Tools\MSVC\14.28.29333\include\map
; File C:\Program Files (x86)\Microsoft Visual Studio\2019\Community\VC\Tools\MSVC\14.28.29333\include\xstddef
; File C:\Program Files (x86)\Microsoft Visual Studio\2019\Community\VC\Tools\MSVC\14.28.29333\include\xtree
;	COMDAT ??$_Lower_bound_duplicate@V?$basic_string@DU?$char_traits@D@std@@V?$allocator@D@2@@std@@@?$_Tree@V?$_Tmap_traits@V?$basic_string@DU?$char_traits@D@std@@V?$allocator@D@2@@std@@V?$vector@V?$basic_string@DU?$char_traits@D@std@@V?$allocator@D@2@@std@@V?$allocator@V?$basic_string@DU?$char_traits@D@std@@V?$allocator@D@2@@std@@@2@@2@U?$less@V?$basic_string@DU?$char_traits@D@std@@V?$allocator@D@2@@std@@@2@V?$allocator@U?$pair@$$CBV?$basic_string@DU?$char_traits@D@std@@V?$allocator@D@2@@std@@V?$vector@V?$basic_string@DU?$char_traits@D@std@@V?$allocator@D@2@@std@@V?$allocator@V?$basic_string@DU?$char_traits@D@std@@V?$allocator@D@2@@std@@@2@@2@@std@@@2@$0A@@std@@@std@@IBE_NQAU?$_Tree_node@U?$pair@$$CBV?$basic_string@DU?$char_traits@D@std@@V?$allocator@D@2@@std@@V?$vector@V?$basic_string@DU?$char_traits@D@std@@V?$allocator@D@2@@std@@V?$allocator@V?$basic_string@DU?$char_traits@D@std@@V?$allocator@D@2@@std@@@2@@2@@std@@PAX@1@ABV?$basic_string@DU?$char_traits@D@std@@V?$allocator@D@2@@1@@Z
_TEXT	SEGMENT
$T1 = -16						; size = 4
$T2 = -12						; size = 4
_this$ = -8						; size = 4
tv78 = -4						; size = 4
__Bound$ = 8						; size = 4
__Keyval$ = 12						; size = 4
??$_Lower_bound_duplicate@V?$basic_string@DU?$char_traits@D@std@@V?$allocator@D@2@@std@@@?$_Tree@V?$_Tmap_traits@V?$basic_string@DU?$char_traits@D@std@@V?$allocator@D@2@@std@@V?$vector@V?$basic_string@DU?$char_traits@D@std@@V?$allocator@D@2@@std@@V?$allocator@V?$basic_string@DU?$char_traits@D@std@@V?$allocator@D@2@@std@@@2@@2@U?$less@V?$basic_string@DU?$char_traits@D@std@@V?$allocator@D@2@@std@@@2@V?$allocator@U?$pair@$$CBV?$basic_string@DU?$char_traits@D@std@@V?$allocator@D@2@@std@@V?$vector@V?$basic_string@DU?$char_traits@D@std@@V?$allocator@D@2@@std@@V?$allocator@V?$basic_string@DU?$char_traits@D@std@@V?$allocator@D@2@@std@@@2@@2@@std@@@2@$0A@@std@@@std@@IBE_NQAU?$_Tree_node@U?$pair@$$CBV?$basic_string@DU?$char_traits@D@std@@V?$allocator@D@2@@std@@V?$vector@V?$basic_string@DU?$char_traits@D@std@@V?$allocator@D@2@@std@@V?$allocator@V?$basic_string@DU?$char_traits@D@std@@V?$allocator@D@2@@std@@@2@@2@@std@@PAX@1@ABV?$basic_string@DU?$char_traits@D@std@@V?$allocator@D@2@@1@@Z PROC ; std::_Tree<std::_Tmap_traits<std::basic_string<char,std::char_traits<char>,std::allocator<char> >,std::vector<std::basic_string<char,std::char_traits<char>,std::allocator<char> >,std::allocator<std::basic_string<char,std::char_traits<char>,std::allocator<char> > > >,std::less<std::basic_string<char,std::char_traits<char>,std::allocator<char> > >,std::allocator<std::pair<std::basic_string<char,std::char_traits<char>,std::allocator<char> > const ,std::vector<std::basic_string<char,std::char_traits<char>,std::allocator<char> >,std::allocator<std::basic_string<char,std::char_traits<char>,std::allocator<char> > > > > >,0> >::_Lower_bound_duplicate<std::basic_string<char,std::char_traits<char>,std::allocator<char> > >, COMDAT
; _this$ = ecx

; 1694 :     bool _Lower_bound_duplicate(const _Nodeptr _Bound, const _Keyty& _Keyval) const {

  00000	55		 push	 ebp
  00001	8b ec		 mov	 ebp, esp
  00003	83 ec 10	 sub	 esp, 16			; 00000010H
  00006	89 4d f8	 mov	 DWORD PTR _this$[ebp], ecx

; 1695 :         return !_Bound->_Isnil && !_DEBUG_LT_PRED(_Getcomp(), _Keyval, _Traits::_Kfn(_Bound->_Myval));

  00009	8b 45 08	 mov	 eax, DWORD PTR __Bound$[ebp]
  0000c	0f be 40 0d	 movsx	 eax, BYTE PTR [eax+13]
  00010	85 c0		 test	 eax, eax
  00012	75 2d		 jne	 SHORT $LN3@Lower_boun

; 2035 :         return _Mypair._Get_first();

  00014	8b 45 f8	 mov	 eax, DWORD PTR _this$[ebp]
; File C:\Program Files (x86)\Microsoft Visual Studio\2019\Community\VC\Tools\MSVC\14.28.29333\include\xmemory

; 1351 :         return *this;

  00017	89 45 f4	 mov	 DWORD PTR $T2[ebp], eax
; File C:\Program Files (x86)\Microsoft Visual Studio\2019\Community\VC\Tools\MSVC\14.28.29333\include\xtree

; 2035 :         return _Mypair._Get_first();

  0001a	8b 45 f4	 mov	 eax, DWORD PTR $T2[ebp]
  0001d	89 45 f0	 mov	 DWORD PTR $T1[ebp], eax
; File C:\Program Files (x86)\Microsoft Visual Studio\2019\Community\VC\Tools\MSVC\14.28.29333\include\map

; 69   :         return _Val.first;

  00020	8b 45 08	 mov	 eax, DWORD PTR __Bound$[ebp]
  00023	83 c0 10	 add	 eax, 16			; 00000010H
; File C:\Program Files (x86)\Microsoft Visual Studio\2019\Community\VC\Tools\MSVC\14.28.29333\include\xstddef

; 127  :         return _Left < _Right;

  00026	50		 push	 eax
  00027	ff 75 0c	 push	 DWORD PTR __Keyval$[ebp]
  0002a	e8 00 00 00 00	 call	 ??$?MDU?$char_traits@D@std@@V?$allocator@D@1@@std@@YA_NABV?$basic_string@DU?$char_traits@D@std@@V?$allocator@D@2@@0@0@Z ; std::operator<<char,std::char_traits<char>,std::allocator<char> >
  0002f	59		 pop	 ecx
  00030	59		 pop	 ecx
; File C:\Program Files (x86)\Microsoft Visual Studio\2019\Community\VC\Tools\MSVC\14.28.29333\include\xtree

; 1695 :         return !_Bound->_Isnil && !_DEBUG_LT_PRED(_Getcomp(), _Keyval, _Traits::_Kfn(_Bound->_Myval));

  00031	0f b6 c0	 movzx	 eax, al
  00034	85 c0		 test	 eax, eax
  00036	75 09		 jne	 SHORT $LN3@Lower_boun
  00038	c7 45 fc 01 00
	00 00		 mov	 DWORD PTR tv78[ebp], 1
  0003f	eb 04		 jmp	 SHORT $LN4@Lower_boun
$LN3@Lower_boun:
  00041	83 65 fc 00	 and	 DWORD PTR tv78[ebp], 0
$LN4@Lower_boun:
  00045	8a 45 fc	 mov	 al, BYTE PTR tv78[ebp]

; 1696 :     }

  00048	c9		 leave
  00049	c2 08 00	 ret	 8
??$_Lower_bound_duplicate@V?$basic_string@DU?$char_traits@D@std@@V?$allocator@D@2@@std@@@?$_Tree@V?$_Tmap_traits@V?$basic_string@DU?$char_traits@D@std@@V?$allocator@D@2@@std@@V?$vector@V?$basic_string@DU?$char_traits@D@std@@V?$allocator@D@2@@std@@V?$allocator@V?$basic_string@DU?$char_traits@D@std@@V?$allocator@D@2@@std@@@2@@2@U?$less@V?$basic_string@DU?$char_traits@D@std@@V?$allocator@D@2@@std@@@2@V?$allocator@U?$pair@$$CBV?$basic_string@DU?$char_traits@D@std@@V?$allocator@D@2@@std@@V?$vector@V?$basic_string@DU?$char_traits@D@std@@V?$allocator@D@2@@std@@V?$allocator@V?$basic_string@DU?$char_traits@D@std@@V?$allocator@D@2@@std@@@2@@2@@std@@@2@$0A@@std@@@std@@IBE_NQAU?$_Tree_node@U?$pair@$$CBV?$basic_string@DU?$char_traits@D@std@@V?$allocator@D@2@@std@@V?$vector@V?$basic_string@DU?$char_traits@D@std@@V?$allocator@D@2@@std@@V?$allocator@V?$basic_string@DU?$char_traits@D@std@@V?$allocator@D@2@@std@@@2@@2@@std@@PAX@1@ABV?$basic_string@DU?$char_traits@D@std@@V?$allocator@D@2@@1@@Z ENDP ; std::_Tree<std::_Tmap_traits<std::basic_string<char,std::char_traits<char>,std::allocator<char> >,std::vector<std::basic_string<char,std::char_traits<char>,std::allocator<char> >,std::allocator<std::basic_string<char,std::char_traits<char>,std::allocator<char> > > >,std::less<std::basic_string<char,std::char_traits<char>,std::allocator<char> > >,std::allocator<std::pair<std::basic_string<char,std::char_traits<char>,std::allocator<char> > const ,std::vector<std::basic_string<char,std::char_traits<char>,std::allocator<char> >,std::allocator<std::basic_string<char,std::char_traits<char>,std::allocator<char> > > > > >,0> >::_Lower_bound_duplicate<std::basic_string<char,std::char_traits<char>,std::allocator<char> > >
_TEXT	ENDS
; Function compile flags: /Odspy
; File C:\Program Files (x86)\Microsoft Visual Studio\2019\Community\VC\Tools\MSVC\14.28.29333\include\xtree
; File C:\Program Files (x86)\Microsoft Visual Studio\2019\Community\VC\Tools\MSVC\14.28.29333\include\xstddef
; File C:\Program Files (x86)\Microsoft Visual Studio\2019\Community\VC\Tools\MSVC\14.28.29333\include\xtree
; File C:\Program Files (x86)\Microsoft Visual Studio\2019\Community\VC\Tools\MSVC\14.28.29333\include\xmemory
; File C:\Program Files (x86)\Microsoft Visual Studio\2019\Community\VC\Tools\MSVC\14.28.29333\include\xtree
; File C:\Program Files (x86)\Microsoft Visual Studio\2019\Community\VC\Tools\MSVC\14.28.29333\include\xstddef
; File C:\Program Files (x86)\Microsoft Visual Studio\2019\Community\VC\Tools\MSVC\14.28.29333\include\map
; File C:\Program Files (x86)\Microsoft Visual Studio\2019\Community\VC\Tools\MSVC\14.28.29333\include\xstddef
; File C:\Program Files (x86)\Microsoft Visual Studio\2019\Community\VC\Tools\MSVC\14.28.29333\include\xtree
;	COMDAT ??$_Find_lower_bound@V?$basic_string@DU?$char_traits@D@std@@V?$allocator@D@2@@std@@@?$_Tree@V?$_Tmap_traits@V?$basic_string@DU?$char_traits@D@std@@V?$allocator@D@2@@std@@V?$vector@V?$basic_string@DU?$char_traits@D@std@@V?$allocator@D@2@@std@@V?$allocator@V?$basic_string@DU?$char_traits@D@std@@V?$allocator@D@2@@std@@@2@@2@U?$less@V?$basic_string@DU?$char_traits@D@std@@V?$allocator@D@2@@std@@@2@V?$allocator@U?$pair@$$CBV?$basic_string@DU?$char_traits@D@std@@V?$allocator@D@2@@std@@V?$vector@V?$basic_string@DU?$char_traits@D@std@@V?$allocator@D@2@@std@@V?$allocator@V?$basic_string@DU?$char_traits@D@std@@V?$allocator@D@2@@std@@@2@@2@@std@@@2@$0A@@std@@@std@@IBE?AU?$_Tree_find_result@PAU?$_Tree_node@U?$pair@$$CBV?$basic_string@DU?$char_traits@D@std@@V?$allocator@D@2@@std@@V?$vector@V?$basic_string@DU?$char_traits@D@std@@V?$allocator@D@2@@std@@V?$allocator@V?$basic_string@DU?$char_traits@D@std@@V?$allocator@D@2@@std@@@2@@2@@std@@PAX@std@@@1@ABV?$basic_string@DU?$char_traits@D@std@@V?$allocator@D@2@@1@@Z
_TEXT	SEGMENT
__Result$ = -36						; size = 12
$T1 = -24						; size = 4
$T2 = -20						; size = 4
$T3 = -16						; size = 4
_this$ = -12						; size = 4
__Scary$ = -8						; size = 4
__Trynode$ = -4						; size = 4
___$ReturnUdt$ = 8					; size = 4
__Keyval$ = 12						; size = 4
??$_Find_lower_bound@V?$basic_string@DU?$char_traits@D@std@@V?$allocator@D@2@@std@@@?$_Tree@V?$_Tmap_traits@V?$basic_string@DU?$char_traits@D@std@@V?$allocator@D@2@@std@@V?$vector@V?$basic_string@DU?$char_traits@D@std@@V?$allocator@D@2@@std@@V?$allocator@V?$basic_string@DU?$char_traits@D@std@@V?$allocator@D@2@@std@@@2@@2@U?$less@V?$basic_string@DU?$char_traits@D@std@@V?$allocator@D@2@@std@@@2@V?$allocator@U?$pair@$$CBV?$basic_string@DU?$char_traits@D@std@@V?$allocator@D@2@@std@@V?$vector@V?$basic_string@DU?$char_traits@D@std@@V?$allocator@D@2@@std@@V?$allocator@V?$basic_string@DU?$char_traits@D@std@@V?$allocator@D@2@@std@@@2@@2@@std@@@2@$0A@@std@@@std@@IBE?AU?$_Tree_find_result@PAU?$_Tree_node@U?$pair@$$CBV?$basic_string@DU?$char_traits@D@std@@V?$allocator@D@2@@std@@V?$vector@V?$basic_string@DU?$char_traits@D@std@@V?$allocator@D@2@@std@@V?$allocator@V?$basic_string@DU?$char_traits@D@std@@V?$allocator@D@2@@std@@@2@@2@@std@@PAX@std@@@1@ABV?$basic_string@DU?$char_traits@D@std@@V?$allocator@D@2@@1@@Z PROC ; std::_Tree<std::_Tmap_traits<std::basic_string<char,std::char_traits<char>,std::allocator<char> >,std::vector<std::basic_string<char,std::char_traits<char>,std::allocator<char> >,std::allocator<std::basic_string<char,std::char_traits<char>,std::allocator<char> > > >,std::less<std::basic_string<char,std::char_traits<char>,std::allocator<char> > >,std::allocator<std::pair<std::basic_string<char,std::char_traits<char>,std::allocator<char> > const ,std::vector<std::basic_string<char,std::char_traits<char>,std::allocator<char> >,std::allocator<std::basic_string<char,std::char_traits<char>,std::allocator<char> > > > > >,0> >::_Find_lower_bound<std::basic_string<char,std::char_traits<char>,std::allocator<char> > >, COMDAT
; _this$ = ecx

; 1699 :     _Tree_find_result<_Nodeptr> _Find_lower_bound(const _Keyty& _Keyval) const {

  00000	55		 push	 ebp
  00001	8b ec		 mov	 ebp, esp
  00003	83 ec 24	 sub	 esp, 36			; 00000024H
  00006	56		 push	 esi
  00007	57		 push	 edi
  00008	89 4d f4	 mov	 DWORD PTR _this$[ebp], ecx

; 2051 :         return _STD addressof(_Mypair._Myval2._Myval2);

  0000b	8b 45 f4	 mov	 eax, DWORD PTR _this$[ebp]
; File C:\Program Files (x86)\Microsoft Visual Studio\2019\Community\VC\Tools\MSVC\14.28.29333\include\xstddef

; 275  :     return __builtin_addressof(_Val);

  0000e	89 45 f0	 mov	 DWORD PTR $T3[ebp], eax
; File C:\Program Files (x86)\Microsoft Visual Studio\2019\Community\VC\Tools\MSVC\14.28.29333\include\xtree

; 2051 :         return _STD addressof(_Mypair._Myval2._Myval2);

  00011	8b 45 f0	 mov	 eax, DWORD PTR $T3[ebp]
  00014	89 45 f8	 mov	 DWORD PTR __Scary$[ebp], eax

; 1700 :         const auto _Scary = _Get_scary();
; 1701 :         _Tree_find_result<_Nodeptr> _Result{{_Scary->_Myhead->_Parent, _Tree_child::_Right}, _Scary->_Myhead};

  00017	8b 45 f8	 mov	 eax, DWORD PTR __Scary$[ebp]
  0001a	8b 00		 mov	 eax, DWORD PTR [eax]
  0001c	8b 40 04	 mov	 eax, DWORD PTR [eax+4]
  0001f	89 45 dc	 mov	 DWORD PTR __Result$[ebp], eax
  00022	83 65 e0 00	 and	 DWORD PTR __Result$[ebp+4], 0
  00026	8b 45 f8	 mov	 eax, DWORD PTR __Scary$[ebp]
  00029	8b 00		 mov	 eax, DWORD PTR [eax]
  0002b	89 45 e4	 mov	 DWORD PTR __Result$[ebp+8], eax

; 1702 :         _Nodeptr _Trynode = _Result._Location._Parent;

  0002e	8b 45 dc	 mov	 eax, DWORD PTR __Result$[ebp]
  00031	89 45 fc	 mov	 DWORD PTR __Trynode$[ebp], eax
$LN2@Find_lower:

; 1703 :         while (!_Trynode->_Isnil) {

  00034	8b 45 fc	 mov	 eax, DWORD PTR __Trynode$[ebp]
  00037	0f be 40 0d	 movsx	 eax, BYTE PTR [eax+13]
  0003b	85 c0		 test	 eax, eax
  0003d	75 50		 jne	 SHORT $LN3@Find_lower

; 1704 :             _Result._Location._Parent = _Trynode;

  0003f	8b 45 fc	 mov	 eax, DWORD PTR __Trynode$[ebp]
  00042	89 45 dc	 mov	 DWORD PTR __Result$[ebp], eax

; 2035 :         return _Mypair._Get_first();

  00045	8b 45 f4	 mov	 eax, DWORD PTR _this$[ebp]
; File C:\Program Files (x86)\Microsoft Visual Studio\2019\Community\VC\Tools\MSVC\14.28.29333\include\xmemory

; 1351 :         return *this;

  00048	89 45 ec	 mov	 DWORD PTR $T2[ebp], eax
; File C:\Program Files (x86)\Microsoft Visual Studio\2019\Community\VC\Tools\MSVC\14.28.29333\include\xtree

; 2035 :         return _Mypair._Get_first();

  0004b	8b 45 ec	 mov	 eax, DWORD PTR $T2[ebp]
  0004e	89 45 e8	 mov	 DWORD PTR $T1[ebp], eax
; File C:\Program Files (x86)\Microsoft Visual Studio\2019\Community\VC\Tools\MSVC\14.28.29333\include\xstddef

; 127  :         return _Left < _Right;

  00051	ff 75 0c	 push	 DWORD PTR __Keyval$[ebp]
; File C:\Program Files (x86)\Microsoft Visual Studio\2019\Community\VC\Tools\MSVC\14.28.29333\include\map

; 69   :         return _Val.first;

  00054	8b 45 fc	 mov	 eax, DWORD PTR __Trynode$[ebp]
  00057	83 c0 10	 add	 eax, 16			; 00000010H
; File C:\Program Files (x86)\Microsoft Visual Studio\2019\Community\VC\Tools\MSVC\14.28.29333\include\xstddef

; 127  :         return _Left < _Right;

  0005a	50		 push	 eax
  0005b	e8 00 00 00 00	 call	 ??$?MDU?$char_traits@D@std@@V?$allocator@D@1@@std@@YA_NABV?$basic_string@DU?$char_traits@D@std@@V?$allocator@D@2@@0@0@Z ; std::operator<<char,std::char_traits<char>,std::allocator<char> >
  00060	59		 pop	 ecx
  00061	59		 pop	 ecx
; File C:\Program Files (x86)\Microsoft Visual Studio\2019\Community\VC\Tools\MSVC\14.28.29333\include\xtree

; 1705 :             if (_DEBUG_LT_PRED(_Getcomp(), _Traits::_Kfn(_Trynode->_Myval), _Keyval)) {

  00062	0f b6 c0	 movzx	 eax, al
  00065	85 c0		 test	 eax, eax
  00067	74 0f		 je	 SHORT $LN4@Find_lower

; 1706 :                 _Result._Location._Child = _Tree_child::_Right;

  00069	83 65 e0 00	 and	 DWORD PTR __Result$[ebp+4], 0

; 1707 :                 _Trynode                 = _Trynode->_Right;

  0006d	8b 45 fc	 mov	 eax, DWORD PTR __Trynode$[ebp]
  00070	8b 40 08	 mov	 eax, DWORD PTR [eax+8]
  00073	89 45 fc	 mov	 DWORD PTR __Trynode$[ebp], eax

; 1708 :             } else {

  00076	eb 15		 jmp	 SHORT $LN5@Find_lower
$LN4@Find_lower:

; 1709 :                 _Result._Location._Child = _Tree_child::_Left;

  00078	c7 45 e0 01 00
	00 00		 mov	 DWORD PTR __Result$[ebp+4], 1

; 1710 :                 _Result._Bound           = _Trynode;

  0007f	8b 45 fc	 mov	 eax, DWORD PTR __Trynode$[ebp]
  00082	89 45 e4	 mov	 DWORD PTR __Result$[ebp+8], eax

; 1711 :                 _Trynode                 = _Trynode->_Left;

  00085	8b 45 fc	 mov	 eax, DWORD PTR __Trynode$[ebp]
  00088	8b 00		 mov	 eax, DWORD PTR [eax]
  0008a	89 45 fc	 mov	 DWORD PTR __Trynode$[ebp], eax
$LN5@Find_lower:

; 1712 :             }
; 1713 :         }

  0008d	eb a5		 jmp	 SHORT $LN2@Find_lower
$LN3@Find_lower:

; 1714 : 
; 1715 :         return _Result;

  0008f	8d 75 dc	 lea	 esi, DWORD PTR __Result$[ebp]
  00092	8b 7d 08	 mov	 edi, DWORD PTR ___$ReturnUdt$[ebp]
  00095	a5		 movsd
  00096	a5		 movsd
  00097	a5		 movsd
  00098	8b 45 08	 mov	 eax, DWORD PTR ___$ReturnUdt$[ebp]

; 1716 :     }

  0009b	5f		 pop	 edi
  0009c	5e		 pop	 esi
  0009d	c9		 leave
  0009e	c2 08 00	 ret	 8
??$_Find_lower_bound@V?$basic_string@DU?$char_traits@D@std@@V?$allocator@D@2@@std@@@?$_Tree@V?$_Tmap_traits@V?$basic_string@DU?$char_traits@D@std@@V?$allocator@D@2@@std@@V?$vector@V?$basic_string@DU?$char_traits@D@std@@V?$allocator@D@2@@std@@V?$allocator@V?$basic_string@DU?$char_traits@D@std@@V?$allocator@D@2@@std@@@2@@2@U?$less@V?$basic_string@DU?$char_traits@D@std@@V?$allocator@D@2@@std@@@2@V?$allocator@U?$pair@$$CBV?$basic_string@DU?$char_traits@D@std@@V?$allocator@D@2@@std@@V?$vector@V?$basic_string@DU?$char_traits@D@std@@V?$allocator@D@2@@std@@V?$allocator@V?$basic_string@DU?$char_traits@D@std@@V?$allocator@D@2@@std@@@2@@2@@std@@@2@$0A@@std@@@std@@IBE?AU?$_Tree_find_result@PAU?$_Tree_node@U?$pair@$$CBV?$basic_string@DU?$char_traits@D@std@@V?$allocator@D@2@@std@@V?$vector@V?$basic_string@DU?$char_traits@D@std@@V?$allocator@D@2@@std@@V?$allocator@V?$basic_string@DU?$char_traits@D@std@@V?$allocator@D@2@@std@@@2@@2@@std@@PAX@std@@@1@ABV?$basic_string@DU?$char_traits@D@std@@V?$allocator@D@2@@1@@Z ENDP ; std::_Tree<std::_Tmap_traits<std::basic_string<char,std::char_traits<char>,std::allocator<char> >,std::vector<std::basic_string<char,std::char_traits<char>,std::allocator<char> >,std::allocator<std::basic_string<char,std::char_traits<char>,std::allocator<char> > > >,std::less<std::basic_string<char,std::char_traits<char>,std::allocator<char> > >,std::allocator<std::pair<std::basic_string<char,std::char_traits<char>,std::allocator<char> > const ,std::vector<std::basic_string<char,std::char_traits<char>,std::allocator<char> >,std::allocator<std::basic_string<char,std::char_traits<char>,std::allocator<char> > > > > >,0> >::_Find_lower_bound<std::basic_string<char,std::char_traits<char>,std::allocator<char> > >
_TEXT	ENDS
; Function compile flags: /Odspy
; File C:\Program Files (x86)\Microsoft Visual Studio\2019\Community\VC\Tools\MSVC\14.28.29333\include\xmemory
;	COMDAT ??1?$_Tidy_guard@V?$vector@V?$basic_string@DU?$char_traits@D@std@@V?$allocator@D@2@@std@@V?$allocator@V?$basic_string@DU?$char_traits@D@std@@V?$allocator@D@2@@std@@@2@@std@@@std@@QAE@XZ
_TEXT	SEGMENT
_this$ = -4						; size = 4
??1?$_Tidy_guard@V?$vector@V?$basic_string@DU?$char_traits@D@std@@V?$allocator@D@2@@std@@V?$allocator@V?$basic_string@DU?$char_traits@D@std@@V?$allocator@D@2@@std@@@2@@std@@@std@@QAE@XZ PROC ; std::_Tidy_guard<std::vector<std::basic_string<char,std::char_traits<char>,std::allocator<char> >,std::allocator<std::basic_string<char,std::char_traits<char>,std::allocator<char> > > > >::~_Tidy_guard<std::vector<std::basic_string<char,std::char_traits<char>,std::allocator<char> >,std::allocator<std::basic_string<char,std::char_traits<char>,std::allocator<char> > > > >, COMDAT
; _this$ = ecx

; 30   :     ~_Tidy_guard() {

  00000	55		 push	 ebp
  00001	8b ec		 mov	 ebp, esp
  00003	51		 push	 ecx
  00004	89 4d fc	 mov	 DWORD PTR _this$[ebp], ecx

; 31   :         if (_Target) {

  00007	8b 45 fc	 mov	 eax, DWORD PTR _this$[ebp]
  0000a	83 38 00	 cmp	 DWORD PTR [eax], 0
  0000d	74 0a		 je	 SHORT $LN3@Tidy_guard

; 32   :             _Target->_Tidy();

  0000f	8b 45 fc	 mov	 eax, DWORD PTR _this$[ebp]
  00012	8b 08		 mov	 ecx, DWORD PTR [eax]
  00014	e8 00 00 00 00	 call	 ?_Tidy@?$vector@V?$basic_string@DU?$char_traits@D@std@@V?$allocator@D@2@@std@@V?$allocator@V?$basic_string@DU?$char_traits@D@std@@V?$allocator@D@2@@std@@@2@@std@@AAEXXZ ; std::vector<std::basic_string<char,std::char_traits<char>,std::allocator<char> >,std::allocator<std::basic_string<char,std::char_traits<char>,std::allocator<char> > > >::_Tidy
$LN3@Tidy_guard:

; 33   :         }
; 34   :     }

  00019	c9		 leave
  0001a	c3		 ret	 0
??1?$_Tidy_guard@V?$vector@V?$basic_string@DU?$char_traits@D@std@@V?$allocator@D@2@@std@@V?$allocator@V?$basic_string@DU?$char_traits@D@std@@V?$allocator@D@2@@std@@@2@@std@@@std@@QAE@XZ ENDP ; std::_Tidy_guard<std::vector<std::basic_string<char,std::char_traits<char>,std::allocator<char> >,std::allocator<std::basic_string<char,std::char_traits<char>,std::allocator<char> > > > >::~_Tidy_guard<std::vector<std::basic_string<char,std::char_traits<char>,std::allocator<char> >,std::allocator<std::basic_string<char,std::char_traits<char>,std::allocator<char> > > > >
_TEXT	ENDS
; Function compile flags: /Odspy
; File C:\Program Files (x86)\Microsoft Visual Studio\2019\Community\VC\Tools\MSVC\14.28.29333\include\xmemory
; File C:\Program Files (x86)\Microsoft Visual Studio\2019\Community\VC\Tools\MSVC\14.28.29333\include\type_traits
; File C:\Program Files (x86)\Microsoft Visual Studio\2019\Community\VC\Tools\MSVC\14.28.29333\include\xmemory
;	COMDAT ??$_Uninitialized_move@PAV?$basic_string@DU?$char_traits@D@std@@V?$allocator@D@2@@std@@V?$allocator@V?$basic_string@DU?$char_traits@D@std@@V?$allocator@D@2@@std@@@2@@std@@YAPAV?$basic_string@DU?$char_traits@D@std@@V?$allocator@D@2@@0@QAV10@0PAV10@AAV?$allocator@V?$basic_string@DU?$char_traits@D@std@@V?$allocator@D@2@@std@@@0@@Z
_TEXT	SEGMENT
__Backout$2 = -40					; size = 12
$T3 = -28						; size = 4
$T4 = -24						; size = 4
__ULast$ = -20						; size = 4
__UFirst$ = -16						; size = 4
__$EHRec$ = -12						; size = 12
__First$ = 8						; size = 4
__Last$ = 12						; size = 4
__Dest$ = 16						; size = 4
__Al$ = 20						; size = 4
??$_Uninitialized_move@PAV?$basic_string@DU?$char_traits@D@std@@V?$allocator@D@2@@std@@V?$allocator@V?$basic_string@DU?$char_traits@D@std@@V?$allocator@D@2@@std@@@2@@std@@YAPAV?$basic_string@DU?$char_traits@D@std@@V?$allocator@D@2@@0@QAV10@0PAV10@AAV?$allocator@V?$basic_string@DU?$char_traits@D@std@@V?$allocator@D@2@@std@@@0@@Z PROC ; std::_Uninitialized_move<std::basic_string<char,std::char_traits<char>,std::allocator<char> > *,std::allocator<std::basic_string<char,std::char_traits<char>,std::allocator<char> > > >, COMDAT

; 1685 :     const _InIt _First, const _InIt _Last, _Alloc_ptr_t<_Alloc> _Dest, _Alloc& _Al) {

  00000	55		 push	 ebp
  00001	8b ec		 mov	 ebp, esp
  00003	6a ff		 push	 -1
  00005	68 00 00 00 00	 push	 __ehhandler$??$_Uninitialized_move@PAV?$basic_string@DU?$char_traits@D@std@@V?$allocator@D@2@@std@@V?$allocator@V?$basic_string@DU?$char_traits@D@std@@V?$allocator@D@2@@std@@@2@@std@@YAPAV?$basic_string@DU?$char_traits@D@std@@V?$allocator@D@2@@0@QAV10@0PAV10@AAV?$allocator@V?$basic_string@DU?$char_traits@D@std@@V?$allocator@D@2@@std@@@0@@Z
  0000a	64 a1 00 00 00
	00		 mov	 eax, DWORD PTR fs:0
  00010	50		 push	 eax
  00011	83 ec 1c	 sub	 esp, 28			; 0000001cH
  00014	a1 00 00 00 00	 mov	 eax, DWORD PTR ___security_cookie
  00019	33 c5		 xor	 eax, ebp
  0001b	50		 push	 eax
  0001c	8d 45 f4	 lea	 eax, DWORD PTR __$EHRec$[ebp]
  0001f	64 a3 00 00 00
	00		 mov	 DWORD PTR fs:0, eax

; 1686 :     // move [_First, _Last) to raw _Dest, using _Al
; 1687 :     // note: only called internally from elsewhere in the STL
; 1688 :     using _Ptrval     = typename _Alloc::value_type*;
; 1689 :     auto _UFirst      = _Get_unwrapped(_First);

  00025	8b 45 08	 mov	 eax, DWORD PTR __First$[ebp]
  00028	89 45 f0	 mov	 DWORD PTR __UFirst$[ebp], eax

; 1690 :     const auto _ULast = _Get_unwrapped(_Last);

  0002b	8b 45 0c	 mov	 eax, DWORD PTR __Last$[ebp]
  0002e	89 45 ec	 mov	 DWORD PTR __ULast$[ebp], eax

; 1535 :     _Uninitialized_backout_al(pointer _Dest, _Alloc& _Al_) : _First(_Dest), _Last(_Dest), _Al(_Al_) {}

  00031	8b 45 10	 mov	 eax, DWORD PTR __Dest$[ebp]
  00034	89 45 d8	 mov	 DWORD PTR __Backout$2[ebp], eax
  00037	8b 45 10	 mov	 eax, DWORD PTR __Dest$[ebp]
  0003a	89 45 dc	 mov	 DWORD PTR __Backout$2[ebp+4], eax
  0003d	8b 45 14	 mov	 eax, DWORD PTR __Al$[ebp]
  00040	89 45 e0	 mov	 DWORD PTR __Backout$2[ebp+8], eax

; 1691 :     if constexpr (conjunction_v<bool_constant<_Ptr_move_cat<decltype(_UFirst), _Ptrval>::_Really_trivial>,
; 1692 :                       _Uses_default_construct<_Alloc, _Ptrval, decltype(_STD move(*_UFirst))>>) {
; 1693 :         _Copy_memmove(_UFirst, _ULast, _Unfancy(_Dest));
; 1694 :         return _Dest + (_ULast - _UFirst);
; 1695 :     } else {
; 1696 :         _Uninitialized_backout_al<_Alloc> _Backout{_Dest, _Al};

  00043	83 65 fc 00	 and	 DWORD PTR __$EHRec$[ebp+8], 0

; 1697 :         for (; _UFirst != _ULast; ++_UFirst) {

  00047	eb 09		 jmp	 SHORT $LN4@Uninitiali
$LN2@Uninitiali:
  00049	8b 45 f0	 mov	 eax, DWORD PTR __UFirst$[ebp]
  0004c	83 c0 18	 add	 eax, 24			; 00000018H
  0004f	89 45 f0	 mov	 DWORD PTR __UFirst$[ebp], eax
$LN4@Uninitiali:
  00052	8b 45 f0	 mov	 eax, DWORD PTR __UFirst$[ebp]
  00055	3b 45 ec	 cmp	 eax, DWORD PTR __ULast$[ebp]
  00058	74 13		 je	 SHORT $LN3@Uninitiali
; File C:\Program Files (x86)\Microsoft Visual Studio\2019\Community\VC\Tools\MSVC\14.28.29333\include\type_traits

; 1455 :     return static_cast<remove_reference_t<_Ty>&&>(_Arg);

  0005a	8b 45 f0	 mov	 eax, DWORD PTR __UFirst$[ebp]
  0005d	89 45 e8	 mov	 DWORD PTR $T4[ebp], eax
; File C:\Program Files (x86)\Microsoft Visual Studio\2019\Community\VC\Tools\MSVC\14.28.29333\include\xmemory

; 1698 :             _Backout._Emplace_back(_STD move(*_UFirst));

  00060	ff 75 e8	 push	 DWORD PTR $T4[ebp]
  00063	8d 4d d8	 lea	 ecx, DWORD PTR __Backout$2[ebp]
  00066	e8 00 00 00 00	 call	 ??$_Emplace_back@V?$basic_string@DU?$char_traits@D@std@@V?$allocator@D@2@@std@@@?$_Uninitialized_backout_al@V?$allocator@V?$basic_string@DU?$char_traits@D@std@@V?$allocator@D@2@@std@@@std@@@std@@QAEX$$QAV?$basic_string@DU?$char_traits@D@std@@V?$allocator@D@2@@1@@Z ; std::_Uninitialized_backout_al<std::allocator<std::basic_string<char,std::char_traits<char>,std::allocator<char> > > >::_Emplace_back<std::basic_string<char,std::char_traits<char>,std::allocator<char> > >

; 1699 :         }

  0006b	eb dc		 jmp	 SHORT $LN2@Uninitiali
$LN3@Uninitiali:

; 1551 :         _First = _Last;

  0006d	8b 45 dc	 mov	 eax, DWORD PTR __Backout$2[ebp+4]
  00070	89 45 d8	 mov	 DWORD PTR __Backout$2[ebp], eax

; 1552 :         return _Last;

  00073	8b 45 dc	 mov	 eax, DWORD PTR __Backout$2[ebp+4]
  00076	89 45 e4	 mov	 DWORD PTR $T3[ebp], eax

; 1700 : 
; 1701 :         return _Backout._Release();

  00079	83 4d fc ff	 or	 DWORD PTR __$EHRec$[ebp+8], -1

; 1541 :         _Destroy_range(_First, _Last, _Al);

  0007d	ff 75 e0	 push	 DWORD PTR __Backout$2[ebp+8]
  00080	ff 75 dc	 push	 DWORD PTR __Backout$2[ebp+4]
  00083	ff 75 d8	 push	 DWORD PTR __Backout$2[ebp]
  00086	e8 00 00 00 00	 call	 ??$_Destroy_range@V?$allocator@V?$basic_string@DU?$char_traits@D@std@@V?$allocator@D@2@@std@@@std@@@std@@YAXPAV?$basic_string@DU?$char_traits@D@std@@V?$allocator@D@2@@0@QAV10@AAV?$allocator@V?$basic_string@DU?$char_traits@D@std@@V?$allocator@D@2@@std@@@0@@Z ; std::_Destroy_range<std::allocator<std::basic_string<char,std::char_traits<char>,std::allocator<char> > > >
  0008b	83 c4 0c	 add	 esp, 12			; 0000000cH

; 1700 : 
; 1701 :         return _Backout._Release();

  0008e	8b 45 e4	 mov	 eax, DWORD PTR $T3[ebp]

; 1702 :     }
; 1703 : }

  00091	8b 4d f4	 mov	 ecx, DWORD PTR __$EHRec$[ebp]
  00094	64 89 0d 00 00
	00 00		 mov	 DWORD PTR fs:0, ecx
  0009b	59		 pop	 ecx
  0009c	c9		 leave
  0009d	c3		 ret	 0
_TEXT	ENDS
;	COMDAT text$x
text$x	SEGMENT
__unwindfunclet$??$_Uninitialized_move@PAV?$basic_string@DU?$char_traits@D@std@@V?$allocator@D@2@@std@@V?$allocator@V?$basic_string@DU?$char_traits@D@std@@V?$allocator@D@2@@std@@@2@@std@@YAPAV?$basic_string@DU?$char_traits@D@std@@V?$allocator@D@2@@0@QAV10@0PAV10@AAV?$allocator@V?$basic_string@DU?$char_traits@D@std@@V?$allocator@D@2@@std@@@0@@Z$0:
  00000	8d 4d d8	 lea	 ecx, DWORD PTR __Backout$2[ebp]
  00003	e9 00 00 00 00	 jmp	 ??1?$_Uninitialized_backout_al@V?$allocator@V?$basic_string@DU?$char_traits@D@std@@V?$allocator@D@2@@std@@@std@@@std@@QAE@XZ ; std::_Uninitialized_backout_al<std::allocator<std::basic_string<char,std::char_traits<char>,std::allocator<char> > > >::~_Uninitialized_backout_al<std::allocator<std::basic_string<char,std::char_traits<char>,std::allocator<char> > > >
  00008	cc		 int	 3
  00009	cc		 int	 3
  0000a	cc		 int	 3
  0000b	cc		 int	 3
  0000c	cc		 int	 3
__ehhandler$??$_Uninitialized_move@PAV?$basic_string@DU?$char_traits@D@std@@V?$allocator@D@2@@std@@V?$allocator@V?$basic_string@DU?$char_traits@D@std@@V?$allocator@D@2@@std@@@2@@std@@YAPAV?$basic_string@DU?$char_traits@D@std@@V?$allocator@D@2@@0@QAV10@0PAV10@AAV?$allocator@V?$basic_string@DU?$char_traits@D@std@@V?$allocator@D@2@@std@@@0@@Z:
  0000d	90		 npad	 1
  0000e	90		 npad	 1
  0000f	8b 54 24 08	 mov	 edx, DWORD PTR [esp+8]
  00013	8d 42 0c	 lea	 eax, DWORD PTR [edx+12]
  00016	8b 4a e0	 mov	 ecx, DWORD PTR [edx-32]
  00019	33 c8		 xor	 ecx, eax
  0001b	e8 00 00 00 00	 call	 @__security_check_cookie@4
  00020	b8 00 00 00 00	 mov	 eax, OFFSET __ehfuncinfo$??$_Uninitialized_move@PAV?$basic_string@DU?$char_traits@D@std@@V?$allocator@D@2@@std@@V?$allocator@V?$basic_string@DU?$char_traits@D@std@@V?$allocator@D@2@@std@@@2@@std@@YAPAV?$basic_string@DU?$char_traits@D@std@@V?$allocator@D@2@@0@QAV10@0PAV10@AAV?$allocator@V?$basic_string@DU?$char_traits@D@std@@V?$allocator@D@2@@std@@@0@@Z
  00025	e9 00 00 00 00	 jmp	 ___CxxFrameHandler3
text$x	ENDS
??$_Uninitialized_move@PAV?$basic_string@DU?$char_traits@D@std@@V?$allocator@D@2@@std@@V?$allocator@V?$basic_string@DU?$char_traits@D@std@@V?$allocator@D@2@@std@@@2@@std@@YAPAV?$basic_string@DU?$char_traits@D@std@@V?$allocator@D@2@@0@QAV10@0PAV10@AAV?$allocator@V?$basic_string@DU?$char_traits@D@std@@V?$allocator@D@2@@std@@@0@@Z ENDP ; std::_Uninitialized_move<std::basic_string<char,std::char_traits<char>,std::allocator<char> > *,std::allocator<std::basic_string<char,std::char_traits<char>,std::allocator<char> > > >
; Function compile flags: /Odspy
; File C:\Program Files (x86)\Microsoft Visual Studio\2019\Community\VC\Tools\MSVC\14.28.29333\include\xmemory
;	COMDAT ??$_Destroy_in_place@PAU?$_Tree_node@U?$pair@$$CBV?$basic_string@DU?$char_traits@D@std@@V?$allocator@D@2@@std@@V12@@std@@PAX@std@@@std@@YAXAAPAU?$_Tree_node@U?$pair@$$CBV?$basic_string@DU?$char_traits@D@std@@V?$allocator@D@2@@std@@V12@@std@@PAX@0@@Z
_TEXT	SEGMENT
__Obj$ = 8						; size = 4
??$_Destroy_in_place@PAU?$_Tree_node@U?$pair@$$CBV?$basic_string@DU?$char_traits@D@std@@V?$allocator@D@2@@std@@V12@@std@@PAX@std@@@std@@YAXAAPAU?$_Tree_node@U?$pair@$$CBV?$basic_string@DU?$char_traits@D@std@@V?$allocator@D@2@@std@@V12@@std@@PAX@0@@Z PROC ; std::_Destroy_in_place<std::_Tree_node<std::pair<std::basic_string<char,std::char_traits<char>,std::allocator<char> > const ,std::basic_string<char,std::char_traits<char>,std::allocator<char> > >,void *> *>, COMDAT

; 270  : /* _CONSTEXPR20_DYNALLOC */ void _Destroy_in_place(_Ty& _Obj) noexcept {

  00000	55		 push	 ebp
  00001	8b ec		 mov	 ebp, esp

; 271  : #if _HAS_IF_CONSTEXPR
; 272  :     if constexpr (is_array_v<_Ty>) {
; 273  :         _Destroy_range(_Obj, _Obj + extent_v<_Ty>);
; 274  :     } else
; 275  : #endif // _HAS_IF_CONSTEXPR
; 276  :     {
; 277  :         _Obj.~_Ty();
; 278  :     }
; 279  : }

  00003	5d		 pop	 ebp
  00004	c3		 ret	 0
??$_Destroy_in_place@PAU?$_Tree_node@U?$pair@$$CBV?$basic_string@DU?$char_traits@D@std@@V?$allocator@D@2@@std@@V12@@std@@PAX@std@@@std@@YAXAAPAU?$_Tree_node@U?$pair@$$CBV?$basic_string@DU?$char_traits@D@std@@V?$allocator@D@2@@std@@V12@@std@@PAX@0@@Z ENDP ; std::_Destroy_in_place<std::_Tree_node<std::pair<std::basic_string<char,std::char_traits<char>,std::allocator<char> > const ,std::basic_string<char,std::char_traits<char>,std::allocator<char> > >,void *> *>
_TEXT	ENDS
; Function compile flags: /Odspy
; File C:\Program Files (x86)\Microsoft Visual Studio\2019\Community\VC\Tools\MSVC\14.28.29333\include\xtree
; File C:\Program Files (x86)\Microsoft Visual Studio\2019\Community\VC\Tools\MSVC\14.28.29333\include\xmemory
; File C:\Program Files (x86)\Microsoft Visual Studio\2019\Community\VC\Tools\MSVC\14.28.29333\include\xtree
; File C:\Program Files (x86)\Microsoft Visual Studio\2019\Community\VC\Tools\MSVC\14.28.29333\include\type_traits
; File C:\Program Files (x86)\Microsoft Visual Studio\2019\Community\VC\Tools\MSVC\14.28.29333\include\xtree
; File C:\Program Files (x86)\Microsoft Visual Studio\2019\Community\VC\Tools\MSVC\14.28.29333\include\xstddef
; File C:\Program Files (x86)\Microsoft Visual Studio\2019\Community\VC\Tools\MSVC\14.28.29333\include\xtree
;	COMDAT ??$?0ABUpiecewise_construct_t@std@@V?$tuple@ABV?$basic_string@DU?$char_traits@D@std@@V?$allocator@D@2@@std@@@1@V?$tuple@$$V@1@@?$_Tree_temp_node@V?$allocator@U?$_Tree_node@U?$pair@$$CBV?$basic_string@DU?$char_traits@D@std@@V?$allocator@D@2@@std@@V12@@std@@PAX@std@@@std@@@std@@QAE@AAV?$allocator@U?$_Tree_node@U?$pair@$$CBV?$basic_string@DU?$char_traits@D@std@@V?$allocator@D@2@@std@@V12@@std@@PAX@std@@@1@PAU?$_Tree_node@U?$pair@$$CBV?$basic_string@DU?$char_traits@D@std@@V?$allocator@D@2@@std@@V12@@std@@PAX@1@ABUpiecewise_construct_t@1@$$QAV?$tuple@ABV?$basic_string@DU?$char_traits@D@std@@V?$allocator@D@2@@std@@@1@$$QAV?$tuple@$$V@1@@Z
_TEXT	SEGMENT
$T2 = -36						; size = 4
$T3 = -32						; size = 4
$T4 = -28						; size = 4
$T5 = -24						; size = 4
__Val$ = -20						; size = 4
_this$ = -16						; size = 4
__$EHRec$ = -12						; size = 12
__Al_$ = 8						; size = 4
__Myhead$ = 12						; size = 4
_<_Vals_0>$ = 16					; size = 4
_<_Vals_1>$ = 20					; size = 4
_<_Vals_2>$ = 24					; size = 4
??$?0ABUpiecewise_construct_t@std@@V?$tuple@ABV?$basic_string@DU?$char_traits@D@std@@V?$allocator@D@2@@std@@@1@V?$tuple@$$V@1@@?$_Tree_temp_node@V?$allocator@U?$_Tree_node@U?$pair@$$CBV?$basic_string@DU?$char_traits@D@std@@V?$allocator@D@2@@std@@V12@@std@@PAX@std@@@std@@@std@@QAE@AAV?$allocator@U?$_Tree_node@U?$pair@$$CBV?$basic_string@DU?$char_traits@D@std@@V?$allocator@D@2@@std@@V12@@std@@PAX@std@@@1@PAU?$_Tree_node@U?$pair@$$CBV?$basic_string@DU?$char_traits@D@std@@V?$allocator@D@2@@std@@V12@@std@@PAX@1@ABUpiecewise_construct_t@1@$$QAV?$tuple@ABV?$basic_string@DU?$char_traits@D@std@@V?$allocator@D@2@@std@@@1@$$QAV?$tuple@$$V@1@@Z PROC ; std::_Tree_temp_node<std::allocator<std::_Tree_node<std::pair<std::basic_string<char,std::char_traits<char>,std::allocator<char> > const ,std::basic_string<char,std::char_traits<char>,std::allocator<char> > >,void *> > >::_Tree_temp_node<std::allocator<std::_Tree_node<std::pair<std::basic_string<char,std::char_traits<char>,std::allocator<char> > const ,std::basic_string<char,std::char_traits<char>,std::allocator<char> > >,void *> > ><std::piecewise_construct_t const &,std::tuple<std::basic_string<char,std::char_traits<char>,std::allocator<char> > const &>,std::tuple<> >, COMDAT
; _this$ = ecx

; 805  :         : _Tree_temp_node_alloc<_Alnode>(_Al_) {

  00000	55		 push	 ebp
  00001	8b ec		 mov	 ebp, esp
  00003	6a ff		 push	 -1
  00005	68 00 00 00 00	 push	 __ehhandler$??$?0ABUpiecewise_construct_t@std@@V?$tuple@ABV?$basic_string@DU?$char_traits@D@std@@V?$allocator@D@2@@std@@@1@V?$tuple@$$V@1@@?$_Tree_temp_node@V?$allocator@U?$_Tree_node@U?$pair@$$CBV?$basic_string@DU?$char_traits@D@std@@V?$allocator@D@2@@std@@V12@@std@@PAX@std@@@std@@@std@@QAE@AAV?$allocator@U?$_Tree_node@U?$pair@$$CBV?$basic_string@DU?$char_traits@D@std@@V?$allocator@D@2@@std@@V12@@std@@PAX@std@@@1@PAU?$_Tree_node@U?$pair@$$CBV?$basic_string@DU?$char_traits@D@std@@V?$allocator@D@2@@std@@V12@@std@@PAX@1@ABUpiecewise_construct_t@1@$$QAV?$tuple@ABV?$basic_string@DU?$char_traits@D@std@@V?$allocator@D@2@@std@@@1@$$QAV?$tuple@$$V@1@@Z
  0000a	64 a1 00 00 00
	00		 mov	 eax, DWORD PTR fs:0
  00010	50		 push	 eax
  00011	83 ec 18	 sub	 esp, 24			; 00000018H
  00014	a1 00 00 00 00	 mov	 eax, DWORD PTR ___security_cookie
  00019	33 c5		 xor	 eax, ebp
  0001b	50		 push	 eax
  0001c	8d 45 f4	 lea	 eax, DWORD PTR __$EHRec$[ebp]
  0001f	64 a3 00 00 00
	00		 mov	 DWORD PTR fs:0, eax
  00025	89 4d f0	 mov	 DWORD PTR _this$[ebp], ecx
; File C:\Program Files (x86)\Microsoft Visual Studio\2019\Community\VC\Tools\MSVC\14.28.29333\include\xmemory

; 1045 :     explicit _Alloc_construct_ptr(_Alloc& _Al_) : _Al(_Al_), _Ptr(nullptr) {}

  00028	8b 45 f0	 mov	 eax, DWORD PTR _this$[ebp]
  0002b	8b 4d 08	 mov	 ecx, DWORD PTR __Al_$[ebp]
  0002e	89 08		 mov	 DWORD PTR [eax], ecx
  00030	8b 45 f0	 mov	 eax, DWORD PTR _this$[ebp]
  00033	83 60 04 00	 and	 DWORD PTR [eax+4], 0
; File C:\Program Files (x86)\Microsoft Visual Studio\2019\Community\VC\Tools\MSVC\14.28.29333\include\xtree

; 784  :     explicit _Tree_temp_node_alloc(_Alnode& _Al_) : _Alloc_construct_ptr<_Alnode>(_Al_) {

  00037	83 65 fc 00	 and	 DWORD PTR __$EHRec$[ebp+8], 0

; 785  :         _Alloc_construct_ptr<_Alnode>::_Allocate();

  0003b	8b 4d f0	 mov	 ecx, DWORD PTR _this$[ebp]
  0003e	e8 00 00 00 00	 call	 ?_Allocate@?$_Alloc_construct_ptr@V?$allocator@U?$_Tree_node@U?$pair@$$CBV?$basic_string@DU?$char_traits@D@std@@V?$allocator@D@2@@std@@V12@@std@@PAX@std@@@std@@@std@@QAEXXZ ; std::_Alloc_construct_ptr<std::allocator<std::_Tree_node<std::pair<std::basic_string<char,std::char_traits<char>,std::allocator<char> > const ,std::basic_string<char,std::char_traits<char>,std::allocator<char> > >,void *> > >::_Allocate

; 805  :         : _Tree_temp_node_alloc<_Alnode>(_Al_) {

  00043	c7 45 fc 01 00
	00 00		 mov	 DWORD PTR __$EHRec$[ebp+8], 1
; File C:\Program Files (x86)\Microsoft Visual Studio\2019\Community\VC\Tools\MSVC\14.28.29333\include\type_traits

; 1443 :     return static_cast<_Ty&&>(_Arg);

  0004a	8b 45 18	 mov	 eax, DWORD PTR _<_Vals_2>$[ebp]
  0004d	89 45 e8	 mov	 DWORD PTR $T5[ebp], eax
  00050	8b 45 14	 mov	 eax, DWORD PTR _<_Vals_1>$[ebp]
  00053	89 45 e4	 mov	 DWORD PTR $T4[ebp], eax
  00056	8b 45 10	 mov	 eax, DWORD PTR _<_Vals_0>$[ebp]
  00059	89 45 e0	 mov	 DWORD PTR $T3[ebp], eax
; File C:\Program Files (x86)\Microsoft Visual Studio\2019\Community\VC\Tools\MSVC\14.28.29333\include\xtree

; 806  :         _Alnode_traits::construct(this->_Al, _STD addressof(this->_Ptr->_Myval), _STD forward<_Valtys>(_Vals)...);

  0005c	8b 45 f0	 mov	 eax, DWORD PTR _this$[ebp]
  0005f	8b 40 04	 mov	 eax, DWORD PTR [eax+4]
  00062	83 c0 10	 add	 eax, 16			; 00000010H
  00065	89 45 ec	 mov	 DWORD PTR __Val$[ebp], eax
; File C:\Program Files (x86)\Microsoft Visual Studio\2019\Community\VC\Tools\MSVC\14.28.29333\include\xstddef

; 275  :     return __builtin_addressof(_Val);

  00068	8b 45 ec	 mov	 eax, DWORD PTR __Val$[ebp]
  0006b	89 45 dc	 mov	 DWORD PTR $T2[ebp], eax
; File C:\Program Files (x86)\Microsoft Visual Studio\2019\Community\VC\Tools\MSVC\14.28.29333\include\xtree

; 806  :         _Alnode_traits::construct(this->_Al, _STD addressof(this->_Ptr->_Myval), _STD forward<_Valtys>(_Vals)...);

  0006e	ff 75 e8	 push	 DWORD PTR $T5[ebp]
  00071	ff 75 e4	 push	 DWORD PTR $T4[ebp]
  00074	ff 75 e0	 push	 DWORD PTR $T3[ebp]
  00077	ff 75 dc	 push	 DWORD PTR $T2[ebp]
  0007a	8b 45 f0	 mov	 eax, DWORD PTR _this$[ebp]
  0007d	ff 30		 push	 DWORD PTR [eax]
  0007f	e8 00 00 00 00	 call	 ??$construct@U?$pair@$$CBV?$basic_string@DU?$char_traits@D@std@@V?$allocator@D@2@@std@@V12@@std@@ABUpiecewise_construct_t@2@V?$tuple@ABV?$basic_string@DU?$char_traits@D@std@@V?$allocator@D@2@@std@@@2@V?$tuple@$$V@2@@?$_Default_allocator_traits@V?$allocator@U?$_Tree_node@U?$pair@$$CBV?$basic_string@DU?$char_traits@D@std@@V?$allocator@D@2@@std@@V12@@std@@PAX@std@@@std@@@std@@SAXAAV?$allocator@U?$_Tree_node@U?$pair@$$CBV?$basic_string@DU?$char_traits@D@std@@V?$allocator@D@2@@std@@V12@@std@@PAX@std@@@1@QAU?$pair@$$CBV?$basic_string@DU?$char_traits@D@std@@V?$allocator@D@2@@std@@V12@@1@ABUpiecewise_construct_t@1@$$QAV?$tuple@ABV?$basic_string@DU?$char_traits@D@std@@V?$allocator@D@2@@std@@@1@$$QAV?$tuple@$$V@1@@Z ; std::_Default_allocator_traits<std::allocator<std::_Tree_node<std::pair<std::basic_string<char,std::char_traits<char>,std::allocator<char> > const ,std::basic_string<char,std::char_traits<char>,std::allocator<char> > >,void *> > >::construct<std::pair<std::basic_string<char,std::char_traits<char>,std::allocator<char> > const ,std::basic_string<char,std::char_traits<char>,std::allocator<char> > >,std::piecewise_construct_t const &,std::tuple<std::basic_string<char,std::char_traits<char>,std::allocator<char> > const &>,std::tuple<> >
  00084	83 c4 14	 add	 esp, 20			; 00000014H

; 807  :         _Construct_in_place(this->_Ptr->_Left, _Myhead);

  00087	8d 45 0c	 lea	 eax, DWORD PTR __Myhead$[ebp]
  0008a	50		 push	 eax
  0008b	8b 45 f0	 mov	 eax, DWORD PTR _this$[ebp]
  0008e	ff 70 04	 push	 DWORD PTR [eax+4]
  00091	e8 00 00 00 00	 call	 ??$_Construct_in_place@PAU?$_Tree_node@U?$pair@$$CBV?$basic_string@DU?$char_traits@D@std@@V?$allocator@D@2@@std@@V12@@std@@PAX@std@@AAPAU12@@std@@YAXAAPAU?$_Tree_node@U?$pair@$$CBV?$basic_string@DU?$char_traits@D@std@@V?$allocator@D@2@@std@@V12@@std@@PAX@0@0@Z ; std::_Construct_in_place<std::_Tree_node<std::pair<std::basic_string<char,std::char_traits<char>,std::allocator<char> > const ,std::basic_string<char,std::char_traits<char>,std::allocator<char> > >,void *> *,std::_Tree_node<std::pair<std::basic_string<char,std::char_traits<char>,std::allocator<char> > const ,std::basic_string<char,std::char_traits<char>,std::allocator<char> > >,void *> * &>
  00096	59		 pop	 ecx
  00097	59		 pop	 ecx

; 808  :         _Construct_in_place(this->_Ptr->_Parent, _Myhead);

  00098	8d 45 0c	 lea	 eax, DWORD PTR __Myhead$[ebp]
  0009b	50		 push	 eax
  0009c	8b 45 f0	 mov	 eax, DWORD PTR _this$[ebp]
  0009f	8b 40 04	 mov	 eax, DWORD PTR [eax+4]
  000a2	83 c0 04	 add	 eax, 4
  000a5	50		 push	 eax
  000a6	e8 00 00 00 00	 call	 ??$_Construct_in_place@PAU?$_Tree_node@U?$pair@$$CBV?$basic_string@DU?$char_traits@D@std@@V?$allocator@D@2@@std@@V12@@std@@PAX@std@@AAPAU12@@std@@YAXAAPAU?$_Tree_node@U?$pair@$$CBV?$basic_string@DU?$char_traits@D@std@@V?$allocator@D@2@@std@@V12@@std@@PAX@0@0@Z ; std::_Construct_in_place<std::_Tree_node<std::pair<std::basic_string<char,std::char_traits<char>,std::allocator<char> > const ,std::basic_string<char,std::char_traits<char>,std::allocator<char> > >,void *> *,std::_Tree_node<std::pair<std::basic_string<char,std::char_traits<char>,std::allocator<char> > const ,std::basic_string<char,std::char_traits<char>,std::allocator<char> > >,void *> * &>
  000ab	59		 pop	 ecx
  000ac	59		 pop	 ecx

; 809  :         _Construct_in_place(this->_Ptr->_Right, _Myhead);

  000ad	8d 45 0c	 lea	 eax, DWORD PTR __Myhead$[ebp]
  000b0	50		 push	 eax
  000b1	8b 45 f0	 mov	 eax, DWORD PTR _this$[ebp]
  000b4	8b 40 04	 mov	 eax, DWORD PTR [eax+4]
  000b7	83 c0 08	 add	 eax, 8
  000ba	50		 push	 eax
  000bb	e8 00 00 00 00	 call	 ??$_Construct_in_place@PAU?$_Tree_node@U?$pair@$$CBV?$basic_string@DU?$char_traits@D@std@@V?$allocator@D@2@@std@@V12@@std@@PAX@std@@AAPAU12@@std@@YAXAAPAU?$_Tree_node@U?$pair@$$CBV?$basic_string@DU?$char_traits@D@std@@V?$allocator@D@2@@std@@V12@@std@@PAX@0@0@Z ; std::_Construct_in_place<std::_Tree_node<std::pair<std::basic_string<char,std::char_traits<char>,std::allocator<char> > const ,std::basic_string<char,std::char_traits<char>,std::allocator<char> > >,void *> *,std::_Tree_node<std::pair<std::basic_string<char,std::char_traits<char>,std::allocator<char> > const ,std::basic_string<char,std::char_traits<char>,std::allocator<char> > >,void *> * &>
  000c0	59		 pop	 ecx
  000c1	59		 pop	 ecx

; 810  :         this->_Ptr->_Color = _Red;

  000c2	8b 45 f0	 mov	 eax, DWORD PTR _this$[ebp]
  000c5	8b 40 04	 mov	 eax, DWORD PTR [eax+4]
  000c8	c6 40 0c 00	 mov	 BYTE PTR [eax+12], 0

; 811  :         this->_Ptr->_Isnil = false;

  000cc	8b 45 f0	 mov	 eax, DWORD PTR _this$[ebp]
  000cf	8b 40 04	 mov	 eax, DWORD PTR [eax+4]
  000d2	c6 40 0d 00	 mov	 BYTE PTR [eax+13], 0

; 812  :     }

  000d6	83 4d fc ff	 or	 DWORD PTR __$EHRec$[ebp+8], -1
  000da	8b 45 f0	 mov	 eax, DWORD PTR _this$[ebp]
  000dd	8b 4d f4	 mov	 ecx, DWORD PTR __$EHRec$[ebp]
  000e0	64 89 0d 00 00
	00 00		 mov	 DWORD PTR fs:0, ecx
  000e7	59		 pop	 ecx
  000e8	c9		 leave
  000e9	c2 14 00	 ret	 20			; 00000014H
_TEXT	ENDS
;	COMDAT text$x
text$x	SEGMENT
__unwindfunclet$??$?0ABUpiecewise_construct_t@std@@V?$tuple@ABV?$basic_string@DU?$char_traits@D@std@@V?$allocator@D@2@@std@@@1@V?$tuple@$$V@1@@?$_Tree_temp_node@V?$allocator@U?$_Tree_node@U?$pair@$$CBV?$basic_string@DU?$char_traits@D@std@@V?$allocator@D@2@@std@@V12@@std@@PAX@std@@@std@@@std@@QAE@AAV?$allocator@U?$_Tree_node@U?$pair@$$CBV?$basic_string@DU?$char_traits@D@std@@V?$allocator@D@2@@std@@V12@@std@@PAX@std@@@1@PAU?$_Tree_node@U?$pair@$$CBV?$basic_string@DU?$char_traits@D@std@@V?$allocator@D@2@@std@@V12@@std@@PAX@1@ABUpiecewise_construct_t@1@$$QAV?$tuple@ABV?$basic_string@DU?$char_traits@D@std@@V?$allocator@D@2@@std@@@1@$$QAV?$tuple@$$V@1@@Z$1:
  00000	8b 4d f0	 mov	 ecx, DWORD PTR _this$[ebp]
  00003	e9 00 00 00 00	 jmp	 ??1?$_Alloc_construct_ptr@V?$allocator@U?$_Tree_node@U?$pair@$$CBV?$basic_string@DU?$char_traits@D@std@@V?$allocator@D@2@@std@@V12@@std@@PAX@std@@@std@@@std@@QAE@XZ ; std::_Alloc_construct_ptr<std::allocator<std::_Tree_node<std::pair<std::basic_string<char,std::char_traits<char>,std::allocator<char> > const ,std::basic_string<char,std::char_traits<char>,std::allocator<char> > >,void *> > >::~_Alloc_construct_ptr<std::allocator<std::_Tree_node<std::pair<std::basic_string<char,std::char_traits<char>,std::allocator<char> > const ,std::basic_string<char,std::char_traits<char>,std::allocator<char> > >,void *> > >
__unwindfunclet$??$?0ABUpiecewise_construct_t@std@@V?$tuple@ABV?$basic_string@DU?$char_traits@D@std@@V?$allocator@D@2@@std@@@1@V?$tuple@$$V@1@@?$_Tree_temp_node@V?$allocator@U?$_Tree_node@U?$pair@$$CBV?$basic_string@DU?$char_traits@D@std@@V?$allocator@D@2@@std@@V12@@std@@PAX@std@@@std@@@std@@QAE@AAV?$allocator@U?$_Tree_node@U?$pair@$$CBV?$basic_string@DU?$char_traits@D@std@@V?$allocator@D@2@@std@@V12@@std@@PAX@std@@@1@PAU?$_Tree_node@U?$pair@$$CBV?$basic_string@DU?$char_traits@D@std@@V?$allocator@D@2@@std@@V12@@std@@PAX@1@ABUpiecewise_construct_t@1@$$QAV?$tuple@ABV?$basic_string@DU?$char_traits@D@std@@V?$allocator@D@2@@std@@@1@$$QAV?$tuple@$$V@1@@Z$0:
  00008	8b 4d f0	 mov	 ecx, DWORD PTR _this$[ebp]
  0000b	e9 00 00 00 00	 jmp	 ??1?$_Tree_temp_node_alloc@V?$allocator@U?$_Tree_node@U?$pair@$$CBV?$basic_string@DU?$char_traits@D@std@@V?$allocator@D@2@@std@@V12@@std@@PAX@std@@@std@@@std@@QAE@XZ
  00010	cc		 int	 3
  00011	cc		 int	 3
  00012	cc		 int	 3
  00013	cc		 int	 3
  00014	cc		 int	 3
__ehhandler$??$?0ABUpiecewise_construct_t@std@@V?$tuple@ABV?$basic_string@DU?$char_traits@D@std@@V?$allocator@D@2@@std@@@1@V?$tuple@$$V@1@@?$_Tree_temp_node@V?$allocator@U?$_Tree_node@U?$pair@$$CBV?$basic_string@DU?$char_traits@D@std@@V?$allocator@D@2@@std@@V12@@std@@PAX@std@@@std@@@std@@QAE@AAV?$allocator@U?$_Tree_node@U?$pair@$$CBV?$basic_string@DU?$char_traits@D@std@@V?$allocator@D@2@@std@@V12@@std@@PAX@std@@@1@PAU?$_Tree_node@U?$pair@$$CBV?$basic_string@DU?$char_traits@D@std@@V?$allocator@D@2@@std@@V12@@std@@PAX@1@ABUpiecewise_construct_t@1@$$QAV?$tuple@ABV?$basic_string@DU?$char_traits@D@std@@V?$allocator@D@2@@std@@@1@$$QAV?$tuple@$$V@1@@Z:
  00015	90		 npad	 1
  00016	90		 npad	 1
  00017	8b 54 24 08	 mov	 edx, DWORD PTR [esp+8]
  0001b	8d 42 0c	 lea	 eax, DWORD PTR [edx+12]
  0001e	8b 4a e4	 mov	 ecx, DWORD PTR [edx-28]
  00021	33 c8		 xor	 ecx, eax
  00023	e8 00 00 00 00	 call	 @__security_check_cookie@4
  00028	b8 00 00 00 00	 mov	 eax, OFFSET __ehfuncinfo$??$?0ABUpiecewise_construct_t@std@@V?$tuple@ABV?$basic_string@DU?$char_traits@D@std@@V?$allocator@D@2@@std@@@1@V?$tuple@$$V@1@@?$_Tree_temp_node@V?$allocator@U?$_Tree_node@U?$pair@$$CBV?$basic_string@DU?$char_traits@D@std@@V?$allocator@D@2@@std@@V12@@std@@PAX@std@@@std@@@std@@QAE@AAV?$allocator@U?$_Tree_node@U?$pair@$$CBV?$basic_string@DU?$char_traits@D@std@@V?$allocator@D@2@@std@@V12@@std@@PAX@std@@@1@PAU?$_Tree_node@U?$pair@$$CBV?$basic_string@DU?$char_traits@D@std@@V?$allocator@D@2@@std@@V12@@std@@PAX@1@ABUpiecewise_construct_t@1@$$QAV?$tuple@ABV?$basic_string@DU?$char_traits@D@std@@V?$allocator@D@2@@std@@@1@$$QAV?$tuple@$$V@1@@Z
  0002d	e9 00 00 00 00	 jmp	 ___CxxFrameHandler3
text$x	ENDS
??$?0ABUpiecewise_construct_t@std@@V?$tuple@ABV?$basic_string@DU?$char_traits@D@std@@V?$allocator@D@2@@std@@@1@V?$tuple@$$V@1@@?$_Tree_temp_node@V?$allocator@U?$_Tree_node@U?$pair@$$CBV?$basic_string@DU?$char_traits@D@std@@V?$allocator@D@2@@std@@V12@@std@@PAX@std@@@std@@@std@@QAE@AAV?$allocator@U?$_Tree_node@U?$pair@$$CBV?$basic_string@DU?$char_traits@D@std@@V?$allocator@D@2@@std@@V12@@std@@PAX@std@@@1@PAU?$_Tree_node@U?$pair@$$CBV?$basic_string@DU?$char_traits@D@std@@V?$allocator@D@2@@std@@V12@@std@@PAX@1@ABUpiecewise_construct_t@1@$$QAV?$tuple@ABV?$basic_string@DU?$char_traits@D@std@@V?$allocator@D@2@@std@@@1@$$QAV?$tuple@$$V@1@@Z ENDP ; std::_Tree_temp_node<std::allocator<std::_Tree_node<std::pair<std::basic_string<char,std::char_traits<char>,std::allocator<char> > const ,std::basic_string<char,std::char_traits<char>,std::allocator<char> > >,void *> > >::_Tree_temp_node<std::allocator<std::_Tree_node<std::pair<std::basic_string<char,std::char_traits<char>,std::allocator<char> > const ,std::basic_string<char,std::char_traits<char>,std::allocator<char> > >,void *> > ><std::piecewise_construct_t const &,std::tuple<std::basic_string<char,std::char_traits<char>,std::allocator<char> > const &>,std::tuple<> >
; Function compile flags: /Odspy
; File C:\Program Files (x86)\Microsoft Visual Studio\2019\Community\VC\Tools\MSVC\14.28.29333\include\xtree
; File C:\Program Files (x86)\Microsoft Visual Studio\2019\Community\VC\Tools\MSVC\14.28.29333\include\xstddef
; File C:\Program Files (x86)\Microsoft Visual Studio\2019\Community\VC\Tools\MSVC\14.28.29333\include\xtree
; File C:\Program Files (x86)\Microsoft Visual Studio\2019\Community\VC\Tools\MSVC\14.28.29333\include\xmemory
; File C:\Program Files (x86)\Microsoft Visual Studio\2019\Community\VC\Tools\MSVC\14.28.29333\include\xtree
;	COMDAT ??1?$_Tree_temp_node@V?$allocator@U?$_Tree_node@U?$pair@$$CBV?$basic_string@DU?$char_traits@D@std@@V?$allocator@D@2@@std@@V12@@std@@PAX@std@@@std@@@std@@QAE@XZ
_TEXT	SEGMENT
___formal$ = -16					; size = 4
$T1 = -12						; size = 4
__Val$ = -8						; size = 4
_this$ = -4						; size = 4
??1?$_Tree_temp_node@V?$allocator@U?$_Tree_node@U?$pair@$$CBV?$basic_string@DU?$char_traits@D@std@@V?$allocator@D@2@@std@@V12@@std@@PAX@std@@@std@@@std@@QAE@XZ PROC ; std::_Tree_temp_node<std::allocator<std::_Tree_node<std::pair<std::basic_string<char,std::char_traits<char>,std::allocator<char> > const ,std::basic_string<char,std::char_traits<char>,std::allocator<char> > >,void *> > >::~_Tree_temp_node<std::allocator<std::_Tree_node<std::pair<std::basic_string<char,std::char_traits<char>,std::allocator<char> > const ,std::basic_string<char,std::char_traits<char>,std::allocator<char> > >,void *> > >, COMDAT
; _this$ = ecx

; 817  :     ~_Tree_temp_node() {

  00000	55		 push	 ebp
  00001	8b ec		 mov	 ebp, esp
  00003	83 ec 10	 sub	 esp, 16			; 00000010H
  00006	89 4d fc	 mov	 DWORD PTR _this$[ebp], ecx

; 818  :         if (this->_Ptr) {

  00009	8b 45 fc	 mov	 eax, DWORD PTR _this$[ebp]
  0000c	83 78 04 00	 cmp	 DWORD PTR [eax+4], 0
  00010	74 50		 je	 SHORT $LN40@Tree_temp_

; 819  :             _Destroy_in_place(this->_Ptr->_Left);

  00012	8b 45 fc	 mov	 eax, DWORD PTR _this$[ebp]
  00015	ff 70 04	 push	 DWORD PTR [eax+4]
  00018	e8 00 00 00 00	 call	 ??$_Destroy_in_place@PAU?$_Tree_node@U?$pair@$$CBV?$basic_string@DU?$char_traits@D@std@@V?$allocator@D@2@@std@@V12@@std@@PAX@std@@@std@@YAXAAPAU?$_Tree_node@U?$pair@$$CBV?$basic_string@DU?$char_traits@D@std@@V?$allocator@D@2@@std@@V12@@std@@PAX@0@@Z ; std::_Destroy_in_place<std::_Tree_node<std::pair<std::basic_string<char,std::char_traits<char>,std::allocator<char> > const ,std::basic_string<char,std::char_traits<char>,std::allocator<char> > >,void *> *>
  0001d	59		 pop	 ecx

; 820  :             _Destroy_in_place(this->_Ptr->_Parent);

  0001e	8b 45 fc	 mov	 eax, DWORD PTR _this$[ebp]
  00021	8b 40 04	 mov	 eax, DWORD PTR [eax+4]
  00024	83 c0 04	 add	 eax, 4
  00027	50		 push	 eax
  00028	e8 00 00 00 00	 call	 ??$_Destroy_in_place@PAU?$_Tree_node@U?$pair@$$CBV?$basic_string@DU?$char_traits@D@std@@V?$allocator@D@2@@std@@V12@@std@@PAX@std@@@std@@YAXAAPAU?$_Tree_node@U?$pair@$$CBV?$basic_string@DU?$char_traits@D@std@@V?$allocator@D@2@@std@@V12@@std@@PAX@0@@Z ; std::_Destroy_in_place<std::_Tree_node<std::pair<std::basic_string<char,std::char_traits<char>,std::allocator<char> > const ,std::basic_string<char,std::char_traits<char>,std::allocator<char> > >,void *> *>
  0002d	59		 pop	 ecx

; 821  :             _Destroy_in_place(this->_Ptr->_Right);

  0002e	8b 45 fc	 mov	 eax, DWORD PTR _this$[ebp]
  00031	8b 40 04	 mov	 eax, DWORD PTR [eax+4]
  00034	83 c0 08	 add	 eax, 8
  00037	50		 push	 eax
  00038	e8 00 00 00 00	 call	 ??$_Destroy_in_place@PAU?$_Tree_node@U?$pair@$$CBV?$basic_string@DU?$char_traits@D@std@@V?$allocator@D@2@@std@@V12@@std@@PAX@std@@@std@@YAXAAPAU?$_Tree_node@U?$pair@$$CBV?$basic_string@DU?$char_traits@D@std@@V?$allocator@D@2@@std@@V12@@std@@PAX@0@@Z ; std::_Destroy_in_place<std::_Tree_node<std::pair<std::basic_string<char,std::char_traits<char>,std::allocator<char> > const ,std::basic_string<char,std::char_traits<char>,std::allocator<char> > >,void *> *>
  0003d	59		 pop	 ecx

; 822  :             _Alnode_traits::destroy(this->_Al, _STD addressof(this->_Ptr->_Myval));

  0003e	8b 45 fc	 mov	 eax, DWORD PTR _this$[ebp]
  00041	8b 40 04	 mov	 eax, DWORD PTR [eax+4]
  00044	83 c0 10	 add	 eax, 16			; 00000010H
  00047	89 45 f8	 mov	 DWORD PTR __Val$[ebp], eax
; File C:\Program Files (x86)\Microsoft Visual Studio\2019\Community\VC\Tools\MSVC\14.28.29333\include\xstddef

; 275  :     return __builtin_addressof(_Val);

  0004a	8b 45 f8	 mov	 eax, DWORD PTR __Val$[ebp]
  0004d	89 45 f4	 mov	 DWORD PTR $T1[ebp], eax
; File C:\Program Files (x86)\Microsoft Visual Studio\2019\Community\VC\Tools\MSVC\14.28.29333\include\xtree

; 822  :             _Alnode_traits::destroy(this->_Al, _STD addressof(this->_Ptr->_Myval));

  00050	8b 45 fc	 mov	 eax, DWORD PTR _this$[ebp]
  00053	8b 00		 mov	 eax, DWORD PTR [eax]
  00055	89 45 f0	 mov	 DWORD PTR ___formal$[ebp], eax
; File C:\Program Files (x86)\Microsoft Visual Studio\2019\Community\VC\Tools\MSVC\14.28.29333\include\xmemory

; 706  :         _Ptr->~_Uty();

  00058	6a 00		 push	 0
  0005a	8b 4d f4	 mov	 ecx, DWORD PTR $T1[ebp]
  0005d	e8 00 00 00 00	 call	 ??_G?$pair@$$CBV?$basic_string@DU?$char_traits@D@std@@V?$allocator@D@2@@std@@V12@@std@@QAEPAXI@Z
$LN40@Tree_temp_:
  00062	8b 4d fc	 mov	 ecx, DWORD PTR _this$[ebp]
  00065	e8 00 00 00 00	 call	 ??1?$_Alloc_construct_ptr@V?$allocator@U?$_Tree_node@U?$pair@$$CBV?$basic_string@DU?$char_traits@D@std@@V?$allocator@D@2@@std@@V12@@std@@PAX@std@@@std@@@std@@QAE@XZ ; std::_Alloc_construct_ptr<std::allocator<std::_Tree_node<std::pair<std::basic_string<char,std::char_traits<char>,std::allocator<char> > const ,std::basic_string<char,std::char_traits<char>,std::allocator<char> > >,void *> > >::~_Alloc_construct_ptr<std::allocator<std::_Tree_node<std::pair<std::basic_string<char,std::char_traits<char>,std::allocator<char> > const ,std::basic_string<char,std::char_traits<char>,std::allocator<char> > >,void *> > >
; File C:\Program Files (x86)\Microsoft Visual Studio\2019\Community\VC\Tools\MSVC\14.28.29333\include\xtree

; 824  :     }

  0006a	c9		 leave
  0006b	c3		 ret	 0
??1?$_Tree_temp_node@V?$allocator@U?$_Tree_node@U?$pair@$$CBV?$basic_string@DU?$char_traits@D@std@@V?$allocator@D@2@@std@@V12@@std@@PAX@std@@@std@@@std@@QAE@XZ ENDP ; std::_Tree_temp_node<std::allocator<std::_Tree_node<std::pair<std::basic_string<char,std::char_traits<char>,std::allocator<char> > const ,std::basic_string<char,std::char_traits<char>,std::allocator<char> > >,void *> > >::~_Tree_temp_node<std::allocator<std::_Tree_node<std::pair<std::basic_string<char,std::char_traits<char>,std::allocator<char> > const ,std::basic_string<char,std::char_traits<char>,std::allocator<char> > >,void *> > >
_TEXT	ENDS
; Function compile flags: /Odspy
;	COMDAT ??1?$_Tree_temp_node_alloc@V?$allocator@U?$_Tree_node@U?$pair@$$CBV?$basic_string@DU?$char_traits@D@std@@V?$allocator@D@2@@std@@V12@@std@@PAX@std@@@std@@@std@@QAE@XZ
_TEXT	SEGMENT
_this$ = -4						; size = 4
??1?$_Tree_temp_node_alloc@V?$allocator@U?$_Tree_node@U?$pair@$$CBV?$basic_string@DU?$char_traits@D@std@@V?$allocator@D@2@@std@@V12@@std@@PAX@std@@@std@@@std@@QAE@XZ PROC ; std::_Tree_temp_node_alloc<std::allocator<std::_Tree_node<std::pair<std::basic_string<char,std::char_traits<char>,std::allocator<char> > const ,std::basic_string<char,std::char_traits<char>,std::allocator<char> > >,void *> > >::~_Tree_temp_node_alloc<std::allocator<std::_Tree_node<std::pair<std::basic_string<char,std::char_traits<char>,std::allocator<char> > const ,std::basic_string<char,std::char_traits<char>,std::allocator<char> > >,void *> > >, COMDAT
; _this$ = ecx
  00000	55		 push	 ebp
  00001	8b ec		 mov	 ebp, esp
  00003	51		 push	 ecx
  00004	89 4d fc	 mov	 DWORD PTR _this$[ebp], ecx
  00007	8b 4d fc	 mov	 ecx, DWORD PTR _this$[ebp]
  0000a	e8 00 00 00 00	 call	 ??1?$_Alloc_construct_ptr@V?$allocator@U?$_Tree_node@U?$pair@$$CBV?$basic_string@DU?$char_traits@D@std@@V?$allocator@D@2@@std@@V12@@std@@PAX@std@@@std@@@std@@QAE@XZ ; std::_Alloc_construct_ptr<std::allocator<std::_Tree_node<std::pair<std::basic_string<char,std::char_traits<char>,std::allocator<char> > const ,std::basic_string<char,std::char_traits<char>,std::allocator<char> > >,void *> > >::~_Alloc_construct_ptr<std::allocator<std::_Tree_node<std::pair<std::basic_string<char,std::char_traits<char>,std::allocator<char> > const ,std::basic_string<char,std::char_traits<char>,std::allocator<char> > >,void *> > >
  0000f	c9		 leave
  00010	c3		 ret	 0
??1?$_Tree_temp_node_alloc@V?$allocator@U?$_Tree_node@U?$pair@$$CBV?$basic_string@DU?$char_traits@D@std@@V?$allocator@D@2@@std@@V12@@std@@PAX@std@@@std@@@std@@QAE@XZ ENDP ; std::_Tree_temp_node_alloc<std::allocator<std::_Tree_node<std::pair<std::basic_string<char,std::char_traits<char>,std::allocator<char> > const ,std::basic_string<char,std::char_traits<char>,std::allocator<char> > >,void *> > >::~_Tree_temp_node_alloc<std::allocator<std::_Tree_node<std::pair<std::basic_string<char,std::char_traits<char>,std::allocator<char> > const ,std::basic_string<char,std::char_traits<char>,std::allocator<char> > >,void *> > >
_TEXT	ENDS
; Function compile flags: /Odspy
; File C:\Program Files (x86)\Microsoft Visual Studio\2019\Community\VC\Tools\MSVC\14.28.29333\include\xmemory
;	COMDAT ??1?$_Alloc_construct_ptr@V?$allocator@U?$_Tree_node@U?$pair@$$CBV?$basic_string@DU?$char_traits@D@std@@V?$allocator@D@2@@std@@V12@@std@@PAX@std@@@std@@@std@@QAE@XZ
_TEXT	SEGMENT
_this$ = -12						; size = 4
__Ptr$ = -8						; size = 4
_this$ = -4						; size = 4
??1?$_Alloc_construct_ptr@V?$allocator@U?$_Tree_node@U?$pair@$$CBV?$basic_string@DU?$char_traits@D@std@@V?$allocator@D@2@@std@@V12@@std@@PAX@std@@@std@@@std@@QAE@XZ PROC ; std::_Alloc_construct_ptr<std::allocator<std::_Tree_node<std::pair<std::basic_string<char,std::char_traits<char>,std::allocator<char> > const ,std::basic_string<char,std::char_traits<char>,std::allocator<char> > >,void *> > >::~_Alloc_construct_ptr<std::allocator<std::_Tree_node<std::pair<std::basic_string<char,std::char_traits<char>,std::allocator<char> > const ,std::basic_string<char,std::char_traits<char>,std::allocator<char> > >,void *> > >, COMDAT
; _this$ = ecx

; 1056 :     ~_Alloc_construct_ptr() { // if this instance is engaged, deallocate storage

  00000	55		 push	 ebp
  00001	8b ec		 mov	 ebp, esp
  00003	83 ec 0c	 sub	 esp, 12			; 0000000cH
  00006	89 4d fc	 mov	 DWORD PTR _this$[ebp], ecx

; 1057 :         if (_Ptr) {

  00009	8b 45 fc	 mov	 eax, DWORD PTR _this$[ebp]
  0000c	83 78 04 00	 cmp	 DWORD PTR [eax+4], 0
  00010	74 22		 je	 SHORT $LN3@Alloc_cons

; 1058 :             _Al.deallocate(_Ptr, 1);

  00012	8b 45 fc	 mov	 eax, DWORD PTR _this$[ebp]
  00015	8b 40 04	 mov	 eax, DWORD PTR [eax+4]
  00018	89 45 f8	 mov	 DWORD PTR __Ptr$[ebp], eax
  0001b	8b 45 fc	 mov	 eax, DWORD PTR _this$[ebp]
  0001e	8b 00		 mov	 eax, DWORD PTR [eax]
  00020	89 45 f4	 mov	 DWORD PTR _this$[ebp], eax

; 810  :         _Deallocate<_New_alignof<_Ty>>(_Ptr, sizeof(_Ty) * _Count);

  00023	33 c0		 xor	 eax, eax
  00025	40		 inc	 eax
  00026	c1 e0 06	 shl	 eax, 6
  00029	50		 push	 eax
  0002a	ff 75 f8	 push	 DWORD PTR __Ptr$[ebp]
  0002d	e8 00 00 00 00	 call	 ??$_Deallocate@$07$0A@@std@@YAXPAXI@Z ; std::_Deallocate<8,0>
  00032	59		 pop	 ecx
  00033	59		 pop	 ecx
$LN3@Alloc_cons:

; 1059 :         }
; 1060 :     }

  00034	c9		 leave
  00035	c3		 ret	 0
??1?$_Alloc_construct_ptr@V?$allocator@U?$_Tree_node@U?$pair@$$CBV?$basic_string@DU?$char_traits@D@std@@V?$allocator@D@2@@std@@V12@@std@@PAX@std@@@std@@@std@@QAE@XZ ENDP ; std::_Alloc_construct_ptr<std::allocator<std::_Tree_node<std::pair<std::basic_string<char,std::char_traits<char>,std::allocator<char> > const ,std::basic_string<char,std::char_traits<char>,std::allocator<char> > >,void *> > >::~_Alloc_construct_ptr<std::allocator<std::_Tree_node<std::pair<std::basic_string<char,std::char_traits<char>,std::allocator<char> > const ,std::basic_string<char,std::char_traits<char>,std::allocator<char> > >,void *> > >
_TEXT	ENDS
; Function compile flags: /Odspy
; File C:\Program Files (x86)\Microsoft Visual Studio\2019\Community\VC\Tools\MSVC\14.28.29333\include\xmemory
;	COMDAT ?_Allocate@?$_Alloc_construct_ptr@V?$allocator@U?$_Tree_node@U?$pair@$$CBV?$basic_string@DU?$char_traits@D@std@@V?$allocator@D@2@@std@@V12@@std@@PAX@std@@@std@@@std@@QAEXXZ
_TEXT	SEGMENT
__Max_possible$1 = -24					; size = 4
_this$ = -20						; size = 4
$T2 = -16						; size = 4
$T3 = -12						; size = 4
_this$ = -8						; size = 4
__Overflow_is_possible$4 = -1				; size = 1
?_Allocate@?$_Alloc_construct_ptr@V?$allocator@U?$_Tree_node@U?$pair@$$CBV?$basic_string@DU?$char_traits@D@std@@V?$allocator@D@2@@std@@V12@@std@@PAX@std@@@std@@@std@@QAEXXZ PROC ; std::_Alloc_construct_ptr<std::allocator<std::_Tree_node<std::pair<std::basic_string<char,std::char_traits<char>,std::allocator<char> > const ,std::basic_string<char,std::char_traits<char>,std::allocator<char> > >,void *> > >::_Allocate, COMDAT
; _this$ = ecx

; 1051 :     void _Allocate() { // disengage *this, then allocate a new memory block

  00000	55		 push	 ebp
  00001	8b ec		 mov	 ebp, esp
  00003	83 ec 18	 sub	 esp, 24			; 00000018H
  00006	89 4d f8	 mov	 DWORD PTR _this$[ebp], ecx

; 1052 :         _Ptr = nullptr; // if allocate throws, prevents double-free

  00009	8b 45 f8	 mov	 eax, DWORD PTR _this$[ebp]
  0000c	83 60 04 00	 and	 DWORD PTR [eax+4], 0

; 1053 :         _Ptr = _Al.allocate(1);

  00010	8b 45 f8	 mov	 eax, DWORD PTR _this$[ebp]
  00013	8b 00		 mov	 eax, DWORD PTR [eax]
  00015	89 45 ec	 mov	 DWORD PTR _this$[ebp], eax

; 56   :     constexpr bool _Overflow_is_possible = _Ty_size > 1;

  00018	c6 45 ff 01	 mov	 BYTE PTR __Overflow_is_possible$4[ebp], 1

; 57   : 
; 58   :     if _CONSTEXPR_IF (_Overflow_is_possible) {
; 59   :         constexpr size_t _Max_possible = static_cast<size_t>(-1) / _Ty_size;

  0001c	c7 45 e8 ff ff
	ff 03		 mov	 DWORD PTR __Max_possible$1[ebp], 67108863 ; 03ffffffH

; 60   :         if (_Count > _Max_possible) {

  00023	33 c0		 xor	 eax, eax
  00025	40		 inc	 eax
  00026	3d ff ff ff 03	 cmp	 eax, 67108863		; 03ffffffH
  0002b	76 05		 jbe	 SHORT $LN6@Allocate

; 61   :             _Throw_bad_array_new_length(); // multiply overflow

  0002d	e8 00 00 00 00	 call	 ?_Throw_bad_array_new_length@std@@YAXXZ ; std::_Throw_bad_array_new_length
$LN6@Allocate:

; 62   :         }
; 63   :     }
; 64   : 
; 65   :     return _Count * _Ty_size;

  00032	33 c0		 xor	 eax, eax
  00034	40		 inc	 eax
  00035	c1 e0 06	 shl	 eax, 6
  00038	89 45 f4	 mov	 DWORD PTR $T3[ebp], eax

; 814  :         return static_cast<_Ty*>(_Allocate<_New_alignof<_Ty>>(_Get_size_of_n<sizeof(_Ty)>(_Count)));

  0003b	ff 75 f4	 push	 DWORD PTR $T3[ebp]
  0003e	e8 00 00 00 00	 call	 ??$_Allocate@$07U_Default_allocate_traits@std@@$0A@@std@@YAPAXI@Z ; std::_Allocate<8,std::_Default_allocate_traits,0>
  00043	59		 pop	 ecx
  00044	89 45 f0	 mov	 DWORD PTR $T2[ebp], eax

; 1053 :         _Ptr = _Al.allocate(1);

  00047	8b 45 f8	 mov	 eax, DWORD PTR _this$[ebp]
  0004a	8b 4d f0	 mov	 ecx, DWORD PTR $T2[ebp]
  0004d	89 48 04	 mov	 DWORD PTR [eax+4], ecx
$LN9@Allocate:

; 1054 :     }

  00050	c9		 leave
  00051	c3		 ret	 0
?_Allocate@?$_Alloc_construct_ptr@V?$allocator@U?$_Tree_node@U?$pair@$$CBV?$basic_string@DU?$char_traits@D@std@@V?$allocator@D@2@@std@@V12@@std@@PAX@std@@@std@@@std@@QAEXXZ ENDP ; std::_Alloc_construct_ptr<std::allocator<std::_Tree_node<std::pair<std::basic_string<char,std::char_traits<char>,std::allocator<char> > const ,std::basic_string<char,std::char_traits<char>,std::allocator<char> > >,void *> > >::_Allocate
_TEXT	ENDS
; Function compile flags: /Odspy
; File C:\Program Files (x86)\Microsoft Visual Studio\2019\Community\VC\Tools\MSVC\14.28.29333\include\xtree
; File C:\Program Files (x86)\Microsoft Visual Studio\2019\Community\VC\Tools\MSVC\14.28.29333\include\xmemory
; File C:\Program Files (x86)\Microsoft Visual Studio\2019\Community\VC\Tools\MSVC\14.28.29333\include\xtree
; File C:\Program Files (x86)\Microsoft Visual Studio\2019\Community\VC\Tools\MSVC\14.28.29333\include\map
; File C:\Program Files (x86)\Microsoft Visual Studio\2019\Community\VC\Tools\MSVC\14.28.29333\include\xstddef
; File C:\Program Files (x86)\Microsoft Visual Studio\2019\Community\VC\Tools\MSVC\14.28.29333\include\xtree
;	COMDAT ??$_Lower_bound_duplicate@V?$basic_string@DU?$char_traits@D@std@@V?$allocator@D@2@@std@@@?$_Tree@V?$_Tmap_traits@V?$basic_string@DU?$char_traits@D@std@@V?$allocator@D@2@@std@@V12@U?$less@V?$basic_string@DU?$char_traits@D@std@@V?$allocator@D@2@@std@@@2@V?$allocator@U?$pair@$$CBV?$basic_string@DU?$char_traits@D@std@@V?$allocator@D@2@@std@@V12@@std@@@2@$0A@@std@@@std@@IBE_NQAU?$_Tree_node@U?$pair@$$CBV?$basic_string@DU?$char_traits@D@std@@V?$allocator@D@2@@std@@V12@@std@@PAX@1@ABV?$basic_string@DU?$char_traits@D@std@@V?$allocator@D@2@@1@@Z
_TEXT	SEGMENT
$T1 = -16						; size = 4
$T2 = -12						; size = 4
_this$ = -8						; size = 4
tv78 = -4						; size = 4
__Bound$ = 8						; size = 4
__Keyval$ = 12						; size = 4
??$_Lower_bound_duplicate@V?$basic_string@DU?$char_traits@D@std@@V?$allocator@D@2@@std@@@?$_Tree@V?$_Tmap_traits@V?$basic_string@DU?$char_traits@D@std@@V?$allocator@D@2@@std@@V12@U?$less@V?$basic_string@DU?$char_traits@D@std@@V?$allocator@D@2@@std@@@2@V?$allocator@U?$pair@$$CBV?$basic_string@DU?$char_traits@D@std@@V?$allocator@D@2@@std@@V12@@std@@@2@$0A@@std@@@std@@IBE_NQAU?$_Tree_node@U?$pair@$$CBV?$basic_string@DU?$char_traits@D@std@@V?$allocator@D@2@@std@@V12@@std@@PAX@1@ABV?$basic_string@DU?$char_traits@D@std@@V?$allocator@D@2@@1@@Z PROC ; std::_Tree<std::_Tmap_traits<std::basic_string<char,std::char_traits<char>,std::allocator<char> >,std::basic_string<char,std::char_traits<char>,std::allocator<char> >,std::less<std::basic_string<char,std::char_traits<char>,std::allocator<char> > >,std::allocator<std::pair<std::basic_string<char,std::char_traits<char>,std::allocator<char> > const ,std::basic_string<char,std::char_traits<char>,std::allocator<char> > > >,0> >::_Lower_bound_duplicate<std::basic_string<char,std::char_traits<char>,std::allocator<char> > >, COMDAT
; _this$ = ecx

; 1694 :     bool _Lower_bound_duplicate(const _Nodeptr _Bound, const _Keyty& _Keyval) const {

  00000	55		 push	 ebp
  00001	8b ec		 mov	 ebp, esp
  00003	83 ec 10	 sub	 esp, 16			; 00000010H
  00006	89 4d f8	 mov	 DWORD PTR _this$[ebp], ecx

; 1695 :         return !_Bound->_Isnil && !_DEBUG_LT_PRED(_Getcomp(), _Keyval, _Traits::_Kfn(_Bound->_Myval));

  00009	8b 45 08	 mov	 eax, DWORD PTR __Bound$[ebp]
  0000c	0f be 40 0d	 movsx	 eax, BYTE PTR [eax+13]
  00010	85 c0		 test	 eax, eax
  00012	75 2d		 jne	 SHORT $LN3@Lower_boun

; 2035 :         return _Mypair._Get_first();

  00014	8b 45 f8	 mov	 eax, DWORD PTR _this$[ebp]
; File C:\Program Files (x86)\Microsoft Visual Studio\2019\Community\VC\Tools\MSVC\14.28.29333\include\xmemory

; 1351 :         return *this;

  00017	89 45 f4	 mov	 DWORD PTR $T2[ebp], eax
; File C:\Program Files (x86)\Microsoft Visual Studio\2019\Community\VC\Tools\MSVC\14.28.29333\include\xtree

; 2035 :         return _Mypair._Get_first();

  0001a	8b 45 f4	 mov	 eax, DWORD PTR $T2[ebp]
  0001d	89 45 f0	 mov	 DWORD PTR $T1[ebp], eax
; File C:\Program Files (x86)\Microsoft Visual Studio\2019\Community\VC\Tools\MSVC\14.28.29333\include\map

; 69   :         return _Val.first;

  00020	8b 45 08	 mov	 eax, DWORD PTR __Bound$[ebp]
  00023	83 c0 10	 add	 eax, 16			; 00000010H
; File C:\Program Files (x86)\Microsoft Visual Studio\2019\Community\VC\Tools\MSVC\14.28.29333\include\xstddef

; 127  :         return _Left < _Right;

  00026	50		 push	 eax
  00027	ff 75 0c	 push	 DWORD PTR __Keyval$[ebp]
  0002a	e8 00 00 00 00	 call	 ??$?MDU?$char_traits@D@std@@V?$allocator@D@1@@std@@YA_NABV?$basic_string@DU?$char_traits@D@std@@V?$allocator@D@2@@0@0@Z ; std::operator<<char,std::char_traits<char>,std::allocator<char> >
  0002f	59		 pop	 ecx
  00030	59		 pop	 ecx
; File C:\Program Files (x86)\Microsoft Visual Studio\2019\Community\VC\Tools\MSVC\14.28.29333\include\xtree

; 1695 :         return !_Bound->_Isnil && !_DEBUG_LT_PRED(_Getcomp(), _Keyval, _Traits::_Kfn(_Bound->_Myval));

  00031	0f b6 c0	 movzx	 eax, al
  00034	85 c0		 test	 eax, eax
  00036	75 09		 jne	 SHORT $LN3@Lower_boun
  00038	c7 45 fc 01 00
	00 00		 mov	 DWORD PTR tv78[ebp], 1
  0003f	eb 04		 jmp	 SHORT $LN4@Lower_boun
$LN3@Lower_boun:
  00041	83 65 fc 00	 and	 DWORD PTR tv78[ebp], 0
$LN4@Lower_boun:
  00045	8a 45 fc	 mov	 al, BYTE PTR tv78[ebp]

; 1696 :     }

  00048	c9		 leave
  00049	c2 08 00	 ret	 8
??$_Lower_bound_duplicate@V?$basic_string@DU?$char_traits@D@std@@V?$allocator@D@2@@std@@@?$_Tree@V?$_Tmap_traits@V?$basic_string@DU?$char_traits@D@std@@V?$allocator@D@2@@std@@V12@U?$less@V?$basic_string@DU?$char_traits@D@std@@V?$allocator@D@2@@std@@@2@V?$allocator@U?$pair@$$CBV?$basic_string@DU?$char_traits@D@std@@V?$allocator@D@2@@std@@V12@@std@@@2@$0A@@std@@@std@@IBE_NQAU?$_Tree_node@U?$pair@$$CBV?$basic_string@DU?$char_traits@D@std@@V?$allocator@D@2@@std@@V12@@std@@PAX@1@ABV?$basic_string@DU?$char_traits@D@std@@V?$allocator@D@2@@1@@Z ENDP ; std::_Tree<std::_Tmap_traits<std::basic_string<char,std::char_traits<char>,std::allocator<char> >,std::basic_string<char,std::char_traits<char>,std::allocator<char> >,std::less<std::basic_string<char,std::char_traits<char>,std::allocator<char> > >,std::allocator<std::pair<std::basic_string<char,std::char_traits<char>,std::allocator<char> > const ,std::basic_string<char,std::char_traits<char>,std::allocator<char> > > >,0> >::_Lower_bound_duplicate<std::basic_string<char,std::char_traits<char>,std::allocator<char> > >
_TEXT	ENDS
; Function compile flags: /Odspy
; File C:\Program Files (x86)\Microsoft Visual Studio\2019\Community\VC\Tools\MSVC\14.28.29333\include\xtree
; File C:\Program Files (x86)\Microsoft Visual Studio\2019\Community\VC\Tools\MSVC\14.28.29333\include\xstddef
; File C:\Program Files (x86)\Microsoft Visual Studio\2019\Community\VC\Tools\MSVC\14.28.29333\include\xtree
; File C:\Program Files (x86)\Microsoft Visual Studio\2019\Community\VC\Tools\MSVC\14.28.29333\include\xmemory
; File C:\Program Files (x86)\Microsoft Visual Studio\2019\Community\VC\Tools\MSVC\14.28.29333\include\xtree
; File C:\Program Files (x86)\Microsoft Visual Studio\2019\Community\VC\Tools\MSVC\14.28.29333\include\xstddef
; File C:\Program Files (x86)\Microsoft Visual Studio\2019\Community\VC\Tools\MSVC\14.28.29333\include\map
; File C:\Program Files (x86)\Microsoft Visual Studio\2019\Community\VC\Tools\MSVC\14.28.29333\include\xstddef
; File C:\Program Files (x86)\Microsoft Visual Studio\2019\Community\VC\Tools\MSVC\14.28.29333\include\xtree
;	COMDAT ??$_Find_lower_bound@V?$basic_string@DU?$char_traits@D@std@@V?$allocator@D@2@@std@@@?$_Tree@V?$_Tmap_traits@V?$basic_string@DU?$char_traits@D@std@@V?$allocator@D@2@@std@@V12@U?$less@V?$basic_string@DU?$char_traits@D@std@@V?$allocator@D@2@@std@@@2@V?$allocator@U?$pair@$$CBV?$basic_string@DU?$char_traits@D@std@@V?$allocator@D@2@@std@@V12@@std@@@2@$0A@@std@@@std@@IBE?AU?$_Tree_find_result@PAU?$_Tree_node@U?$pair@$$CBV?$basic_string@DU?$char_traits@D@std@@V?$allocator@D@2@@std@@V12@@std@@PAX@std@@@1@ABV?$basic_string@DU?$char_traits@D@std@@V?$allocator@D@2@@1@@Z
_TEXT	SEGMENT
__Result$ = -36						; size = 12
$T1 = -24						; size = 4
$T2 = -20						; size = 4
$T3 = -16						; size = 4
_this$ = -12						; size = 4
__Scary$ = -8						; size = 4
__Trynode$ = -4						; size = 4
___$ReturnUdt$ = 8					; size = 4
__Keyval$ = 12						; size = 4
??$_Find_lower_bound@V?$basic_string@DU?$char_traits@D@std@@V?$allocator@D@2@@std@@@?$_Tree@V?$_Tmap_traits@V?$basic_string@DU?$char_traits@D@std@@V?$allocator@D@2@@std@@V12@U?$less@V?$basic_string@DU?$char_traits@D@std@@V?$allocator@D@2@@std@@@2@V?$allocator@U?$pair@$$CBV?$basic_string@DU?$char_traits@D@std@@V?$allocator@D@2@@std@@V12@@std@@@2@$0A@@std@@@std@@IBE?AU?$_Tree_find_result@PAU?$_Tree_node@U?$pair@$$CBV?$basic_string@DU?$char_traits@D@std@@V?$allocator@D@2@@std@@V12@@std@@PAX@std@@@1@ABV?$basic_string@DU?$char_traits@D@std@@V?$allocator@D@2@@1@@Z PROC ; std::_Tree<std::_Tmap_traits<std::basic_string<char,std::char_traits<char>,std::allocator<char> >,std::basic_string<char,std::char_traits<char>,std::allocator<char> >,std::less<std::basic_string<char,std::char_traits<char>,std::allocator<char> > >,std::allocator<std::pair<std::basic_string<char,std::char_traits<char>,std::allocator<char> > const ,std::basic_string<char,std::char_traits<char>,std::allocator<char> > > >,0> >::_Find_lower_bound<std::basic_string<char,std::char_traits<char>,std::allocator<char> > >, COMDAT
; _this$ = ecx

; 1699 :     _Tree_find_result<_Nodeptr> _Find_lower_bound(const _Keyty& _Keyval) const {

  00000	55		 push	 ebp
  00001	8b ec		 mov	 ebp, esp
  00003	83 ec 24	 sub	 esp, 36			; 00000024H
  00006	56		 push	 esi
  00007	57		 push	 edi
  00008	89 4d f4	 mov	 DWORD PTR _this$[ebp], ecx

; 2051 :         return _STD addressof(_Mypair._Myval2._Myval2);

  0000b	8b 45 f4	 mov	 eax, DWORD PTR _this$[ebp]
; File C:\Program Files (x86)\Microsoft Visual Studio\2019\Community\VC\Tools\MSVC\14.28.29333\include\xstddef

; 275  :     return __builtin_addressof(_Val);

  0000e	89 45 f0	 mov	 DWORD PTR $T3[ebp], eax
; File C:\Program Files (x86)\Microsoft Visual Studio\2019\Community\VC\Tools\MSVC\14.28.29333\include\xtree

; 2051 :         return _STD addressof(_Mypair._Myval2._Myval2);

  00011	8b 45 f0	 mov	 eax, DWORD PTR $T3[ebp]
  00014	89 45 f8	 mov	 DWORD PTR __Scary$[ebp], eax

; 1700 :         const auto _Scary = _Get_scary();
; 1701 :         _Tree_find_result<_Nodeptr> _Result{{_Scary->_Myhead->_Parent, _Tree_child::_Right}, _Scary->_Myhead};

  00017	8b 45 f8	 mov	 eax, DWORD PTR __Scary$[ebp]
  0001a	8b 00		 mov	 eax, DWORD PTR [eax]
  0001c	8b 40 04	 mov	 eax, DWORD PTR [eax+4]
  0001f	89 45 dc	 mov	 DWORD PTR __Result$[ebp], eax
  00022	83 65 e0 00	 and	 DWORD PTR __Result$[ebp+4], 0
  00026	8b 45 f8	 mov	 eax, DWORD PTR __Scary$[ebp]
  00029	8b 00		 mov	 eax, DWORD PTR [eax]
  0002b	89 45 e4	 mov	 DWORD PTR __Result$[ebp+8], eax

; 1702 :         _Nodeptr _Trynode = _Result._Location._Parent;

  0002e	8b 45 dc	 mov	 eax, DWORD PTR __Result$[ebp]
  00031	89 45 fc	 mov	 DWORD PTR __Trynode$[ebp], eax
$LN2@Find_lower:

; 1703 :         while (!_Trynode->_Isnil) {

  00034	8b 45 fc	 mov	 eax, DWORD PTR __Trynode$[ebp]
  00037	0f be 40 0d	 movsx	 eax, BYTE PTR [eax+13]
  0003b	85 c0		 test	 eax, eax
  0003d	75 50		 jne	 SHORT $LN3@Find_lower

; 1704 :             _Result._Location._Parent = _Trynode;

  0003f	8b 45 fc	 mov	 eax, DWORD PTR __Trynode$[ebp]
  00042	89 45 dc	 mov	 DWORD PTR __Result$[ebp], eax

; 2035 :         return _Mypair._Get_first();

  00045	8b 45 f4	 mov	 eax, DWORD PTR _this$[ebp]
; File C:\Program Files (x86)\Microsoft Visual Studio\2019\Community\VC\Tools\MSVC\14.28.29333\include\xmemory

; 1351 :         return *this;

  00048	89 45 ec	 mov	 DWORD PTR $T2[ebp], eax
; File C:\Program Files (x86)\Microsoft Visual Studio\2019\Community\VC\Tools\MSVC\14.28.29333\include\xtree

; 2035 :         return _Mypair._Get_first();

  0004b	8b 45 ec	 mov	 eax, DWORD PTR $T2[ebp]
  0004e	89 45 e8	 mov	 DWORD PTR $T1[ebp], eax
; File C:\Program Files (x86)\Microsoft Visual Studio\2019\Community\VC\Tools\MSVC\14.28.29333\include\xstddef

; 127  :         return _Left < _Right;

  00051	ff 75 0c	 push	 DWORD PTR __Keyval$[ebp]
; File C:\Program Files (x86)\Microsoft Visual Studio\2019\Community\VC\Tools\MSVC\14.28.29333\include\map

; 69   :         return _Val.first;

  00054	8b 45 fc	 mov	 eax, DWORD PTR __Trynode$[ebp]
  00057	83 c0 10	 add	 eax, 16			; 00000010H
; File C:\Program Files (x86)\Microsoft Visual Studio\2019\Community\VC\Tools\MSVC\14.28.29333\include\xstddef

; 127  :         return _Left < _Right;

  0005a	50		 push	 eax
  0005b	e8 00 00 00 00	 call	 ??$?MDU?$char_traits@D@std@@V?$allocator@D@1@@std@@YA_NABV?$basic_string@DU?$char_traits@D@std@@V?$allocator@D@2@@0@0@Z ; std::operator<<char,std::char_traits<char>,std::allocator<char> >
  00060	59		 pop	 ecx
  00061	59		 pop	 ecx
; File C:\Program Files (x86)\Microsoft Visual Studio\2019\Community\VC\Tools\MSVC\14.28.29333\include\xtree

; 1705 :             if (_DEBUG_LT_PRED(_Getcomp(), _Traits::_Kfn(_Trynode->_Myval), _Keyval)) {

  00062	0f b6 c0	 movzx	 eax, al
  00065	85 c0		 test	 eax, eax
  00067	74 0f		 je	 SHORT $LN4@Find_lower

; 1706 :                 _Result._Location._Child = _Tree_child::_Right;

  00069	83 65 e0 00	 and	 DWORD PTR __Result$[ebp+4], 0

; 1707 :                 _Trynode                 = _Trynode->_Right;

  0006d	8b 45 fc	 mov	 eax, DWORD PTR __Trynode$[ebp]
  00070	8b 40 08	 mov	 eax, DWORD PTR [eax+8]
  00073	89 45 fc	 mov	 DWORD PTR __Trynode$[ebp], eax

; 1708 :             } else {

  00076	eb 15		 jmp	 SHORT $LN5@Find_lower
$LN4@Find_lower:

; 1709 :                 _Result._Location._Child = _Tree_child::_Left;

  00078	c7 45 e0 01 00
	00 00		 mov	 DWORD PTR __Result$[ebp+4], 1

; 1710 :                 _Result._Bound           = _Trynode;

  0007f	8b 45 fc	 mov	 eax, DWORD PTR __Trynode$[ebp]
  00082	89 45 e4	 mov	 DWORD PTR __Result$[ebp+8], eax

; 1711 :                 _Trynode                 = _Trynode->_Left;

  00085	8b 45 fc	 mov	 eax, DWORD PTR __Trynode$[ebp]
  00088	8b 00		 mov	 eax, DWORD PTR [eax]
  0008a	89 45 fc	 mov	 DWORD PTR __Trynode$[ebp], eax
$LN5@Find_lower:

; 1712 :             }
; 1713 :         }

  0008d	eb a5		 jmp	 SHORT $LN2@Find_lower
$LN3@Find_lower:

; 1714 : 
; 1715 :         return _Result;

  0008f	8d 75 dc	 lea	 esi, DWORD PTR __Result$[ebp]
  00092	8b 7d 08	 mov	 edi, DWORD PTR ___$ReturnUdt$[ebp]
  00095	a5		 movsd
  00096	a5		 movsd
  00097	a5		 movsd
  00098	8b 45 08	 mov	 eax, DWORD PTR ___$ReturnUdt$[ebp]

; 1716 :     }

  0009b	5f		 pop	 edi
  0009c	5e		 pop	 esi
  0009d	c9		 leave
  0009e	c2 08 00	 ret	 8
??$_Find_lower_bound@V?$basic_string@DU?$char_traits@D@std@@V?$allocator@D@2@@std@@@?$_Tree@V?$_Tmap_traits@V?$basic_string@DU?$char_traits@D@std@@V?$allocator@D@2@@std@@V12@U?$less@V?$basic_string@DU?$char_traits@D@std@@V?$allocator@D@2@@std@@@2@V?$allocator@U?$pair@$$CBV?$basic_string@DU?$char_traits@D@std@@V?$allocator@D@2@@std@@V12@@std@@@2@$0A@@std@@@std@@IBE?AU?$_Tree_find_result@PAU?$_Tree_node@U?$pair@$$CBV?$basic_string@DU?$char_traits@D@std@@V?$allocator@D@2@@std@@V12@@std@@PAX@std@@@1@ABV?$basic_string@DU?$char_traits@D@std@@V?$allocator@D@2@@1@@Z ENDP ; std::_Tree<std::_Tmap_traits<std::basic_string<char,std::char_traits<char>,std::allocator<char> >,std::basic_string<char,std::char_traits<char>,std::allocator<char> >,std::less<std::basic_string<char,std::char_traits<char>,std::allocator<char> > >,std::allocator<std::pair<std::basic_string<char,std::char_traits<char>,std::allocator<char> > const ,std::basic_string<char,std::char_traits<char>,std::allocator<char> > > >,0> >::_Find_lower_bound<std::basic_string<char,std::char_traits<char>,std::allocator<char> > >
_TEXT	ENDS
; Function compile flags: /Odspy
; File C:\Program Files (x86)\Microsoft Visual Studio\2019\Community\VC\Tools\MSVC\14.28.29333\include\xtree
; File C:\Program Files (x86)\Microsoft Visual Studio\2019\Community\VC\Tools\MSVC\14.28.29333\include\xstddef
; File C:\Program Files (x86)\Microsoft Visual Studio\2019\Community\VC\Tools\MSVC\14.28.29333\include\xtree
; File C:\Program Files (x86)\Microsoft Visual Studio\2019\Community\VC\Tools\MSVC\14.28.29333\include\xmemory
; File C:\Program Files (x86)\Microsoft Visual Studio\2019\Community\VC\Tools\MSVC\14.28.29333\include\xtree
; File C:\Program Files (x86)\Microsoft Visual Studio\2019\Community\VC\Tools\MSVC\14.28.29333\include\type_traits
; File C:\Program Files (x86)\Microsoft Visual Studio\2019\Community\VC\Tools\MSVC\14.28.29333\include\utility
; File C:\Program Files (x86)\Microsoft Visual Studio\2019\Community\VC\Tools\MSVC\14.28.29333\include\type_traits
; File C:\Program Files (x86)\Microsoft Visual Studio\2019\Community\VC\Tools\MSVC\14.28.29333\include\utility
; File C:\Program Files (x86)\Microsoft Visual Studio\2019\Community\VC\Tools\MSVC\14.28.29333\include\xtree
; File C:\Program Files (x86)\Microsoft Visual Studio\2019\Community\VC\Tools\MSVC\14.28.29333\include\type_traits
; File C:\Program Files (x86)\Microsoft Visual Studio\2019\Community\VC\Tools\MSVC\14.28.29333\include\xtree
; File C:\Program Files (x86)\Microsoft Visual Studio\2019\Community\VC\Tools\MSVC\14.28.29333\include\xmemory
; File C:\Program Files (x86)\Microsoft Visual Studio\2019\Community\VC\Tools\MSVC\14.28.29333\include\xtree
; File C:\Program Files (x86)\Microsoft Visual Studio\2019\Community\VC\Tools\MSVC\14.28.29333\include\xmemory
; File C:\Program Files (x86)\Microsoft Visual Studio\2019\Community\VC\Tools\MSVC\14.28.29333\include\utility
; File C:\Program Files (x86)\Microsoft Visual Studio\2019\Community\VC\Tools\MSVC\14.28.29333\include\xmemory
; File C:\Program Files (x86)\Microsoft Visual Studio\2019\Community\VC\Tools\MSVC\14.28.29333\include\xtree
; File C:\Program Files (x86)\Microsoft Visual Studio\2019\Community\VC\Tools\MSVC\14.28.29333\include\type_traits
; File C:\Program Files (x86)\Microsoft Visual Studio\2019\Community\VC\Tools\MSVC\14.28.29333\include\utility
; File C:\Program Files (x86)\Microsoft Visual Studio\2019\Community\VC\Tools\MSVC\14.28.29333\include\type_traits
; File C:\Program Files (x86)\Microsoft Visual Studio\2019\Community\VC\Tools\MSVC\14.28.29333\include\utility
; File C:\Program Files (x86)\Microsoft Visual Studio\2019\Community\VC\Tools\MSVC\14.28.29333\include\xtree
;	COMDAT ??$_Emplace@U?$pair@$$CBV?$basic_string@DU?$char_traits@D@std@@V?$allocator@D@2@@std@@V?$vector@V?$basic_string@DU?$char_traits@D@std@@V?$allocator@D@2@@std@@V?$allocator@V?$basic_string@DU?$char_traits@D@std@@V?$allocator@D@2@@std@@@2@@2@@std@@@?$_Tree@V?$_Tmap_traits@V?$basic_string@DU?$char_traits@D@std@@V?$allocator@D@2@@std@@V?$vector@V?$basic_string@DU?$char_traits@D@std@@V?$allocator@D@2@@std@@V?$allocator@V?$basic_string@DU?$char_traits@D@std@@V?$allocator@D@2@@std@@@2@@2@U?$less@V?$basic_string@DU?$char_traits@D@std@@V?$allocator@D@2@@std@@@2@V?$allocator@U?$pair@$$CBV?$basic_string@DU?$char_traits@D@std@@V?$allocator@D@2@@std@@V?$vector@V?$basic_string@DU?$char_traits@D@std@@V?$allocator@D@2@@std@@V?$allocator@V?$basic_string@DU?$char_traits@D@std@@V?$allocator@D@2@@std@@@2@@2@@std@@@2@$0A@@std@@@std@@IAE?AU?$pair@PAU?$_Tree_node@U?$pair@$$CBV?$basic_string@DU?$char_traits@D@std@@V?$allocator@D@2@@std@@V?$vector@V?$basic_string@DU?$char_traits@D@std@@V?$allocator@D@2@@std@@V?$allocator@V?$basic_string@DU?$char_traits@D@std@@V?$allocator@D@2@@std@@@2@@2@@std@@PAX@std@@_N@1@$$QAU?$pair@$$CBV?$basic_string@DU?$char_traits@D@std@@V?$allocator@D@2@@std@@V?$vector@V?$basic_string@DU?$char_traits@D@std@@V?$allocator@D@2@@std@@V?$allocator@V?$basic_string@DU?$char_traits@D@std@@V?$allocator@D@2@@std@@@2@@2@@1@@Z
_TEXT	SEGMENT
$T1 = -108						; size = 12
__Loc$ = -96						; size = 12
$T2 = -84						; size = 8
$T3 = -76						; size = 4
$T4 = -72						; size = 4
$T5 = -68						; size = 4
__Inserted$ = -64					; size = 4
$T6 = -60						; size = 4
__Old_val$7 = -56					; size = 4
$T8 = -52						; size = 4
$T9 = -48						; size = 4
$T10 = -44						; size = 4
$T11 = -40						; size = 4
$T12 = -36						; size = 4
$T13 = -32						; size = 4
$T14 = -28						; size = 4
$T15 = -24						; size = 4
__Scary$ = -20						; size = 4
__Val$ = -16						; size = 4
__Keyval$16 = -12					; size = 4
_this$ = -8						; size = 4
$T17 = -2						; size = 1
$T18 = -1						; size = 1
___$ReturnUdt$ = 8					; size = 4
_<_Vals_0>$ = 12					; size = 4
??$_Emplace@U?$pair@$$CBV?$basic_string@DU?$char_traits@D@std@@V?$allocator@D@2@@std@@V?$vector@V?$basic_string@DU?$char_traits@D@std@@V?$allocator@D@2@@std@@V?$allocator@V?$basic_string@DU?$char_traits@D@std@@V?$allocator@D@2@@std@@@2@@2@@std@@@?$_Tree@V?$_Tmap_traits@V?$basic_string@DU?$char_traits@D@std@@V?$allocator@D@2@@std@@V?$vector@V?$basic_string@DU?$char_traits@D@std@@V?$allocator@D@2@@std@@V?$allocator@V?$basic_string@DU?$char_traits@D@std@@V?$allocator@D@2@@std@@@2@@2@U?$less@V?$basic_string@DU?$char_traits@D@std@@V?$allocator@D@2@@std@@@2@V?$allocator@U?$pair@$$CBV?$basic_string@DU?$char_traits@D@std@@V?$allocator@D@2@@std@@V?$vector@V?$basic_string@DU?$char_traits@D@std@@V?$allocator@D@2@@std@@V?$allocator@V?$basic_string@DU?$char_traits@D@std@@V?$allocator@D@2@@std@@@2@@2@@std@@@2@$0A@@std@@@std@@IAE?AU?$pair@PAU?$_Tree_node@U?$pair@$$CBV?$basic_string@DU?$char_traits@D@std@@V?$allocator@D@2@@std@@V?$vector@V?$basic_string@DU?$char_traits@D@std@@V?$allocator@D@2@@std@@V?$allocator@V?$basic_string@DU?$char_traits@D@std@@V?$allocator@D@2@@std@@@2@@2@@std@@PAX@std@@_N@1@$$QAU?$pair@$$CBV?$basic_string@DU?$char_traits@D@std@@V?$allocator@D@2@@std@@V?$vector@V?$basic_string@DU?$char_traits@D@std@@V?$allocator@D@2@@std@@V?$allocator@V?$basic_string@DU?$char_traits@D@std@@V?$allocator@D@2@@std@@@2@@2@@1@@Z PROC ; std::_Tree<std::_Tmap_traits<std::basic_string<char,std::char_traits<char>,std::allocator<char> >,std::vector<std::basic_string<char,std::char_traits<char>,std::allocator<char> >,std::allocator<std::basic_string<char,std::char_traits<char>,std::allocator<char> > > >,std::less<std::basic_string<char,std::char_traits<char>,std::allocator<char> > >,std::allocator<std::pair<std::basic_string<char,std::char_traits<char>,std::allocator<char> > const ,std::vector<std::basic_string<char,std::char_traits<char>,std::allocator<char> >,std::allocator<std::basic_string<char,std::char_traits<char>,std::allocator<char> > > > > >,0> >::_Emplace<std::pair<std::basic_string<char,std::char_traits<char>,std::allocator<char> > const ,std::vector<std::basic_string<char,std::char_traits<char>,std::allocator<char> >,std::allocator<std::basic_string<char,std::char_traits<char>,std::allocator<char> > > > > >, COMDAT
; _this$ = ecx

; 1002 :     pair<_Nodeptr, bool> _Emplace(_Valtys&&... _Vals) {

  00000	55		 push	 ebp
  00001	8b ec		 mov	 ebp, esp
  00003	83 ec 6c	 sub	 esp, 108		; 0000006cH
  00006	56		 push	 esi
  00007	57		 push	 edi
  00008	89 4d f8	 mov	 DWORD PTR _this$[ebp], ecx

; 2047 :         return _STD addressof(_Mypair._Myval2._Myval2);

  0000b	8b 45 f8	 mov	 eax, DWORD PTR _this$[ebp]
; File C:\Program Files (x86)\Microsoft Visual Studio\2019\Community\VC\Tools\MSVC\14.28.29333\include\xstddef

; 275  :     return __builtin_addressof(_Val);

  0000e	89 45 e8	 mov	 DWORD PTR $T15[ebp], eax
; File C:\Program Files (x86)\Microsoft Visual Studio\2019\Community\VC\Tools\MSVC\14.28.29333\include\xtree

; 2047 :         return _STD addressof(_Mypair._Myval2._Myval2);

  00011	8b 45 e8	 mov	 eax, DWORD PTR $T15[ebp]
  00014	89 45 ec	 mov	 DWORD PTR __Scary$[ebp], eax
; File C:\Program Files (x86)\Microsoft Visual Studio\2019\Community\VC\Tools\MSVC\14.28.29333\include\xmemory

; 2000 :         return _Val.first;

  00017	8b 45 0c	 mov	 eax, DWORD PTR _<_Vals_0>$[ebp]
; File C:\Program Files (x86)\Microsoft Visual Studio\2019\Community\VC\Tools\MSVC\14.28.29333\include\xtree

; 1008 :             const auto& _Keyval = _In_place_key_extractor::_Extract(_Vals...);

  0001a	89 45 f4	 mov	 DWORD PTR __Keyval$16[ebp], eax

; 1009 :             _Loc                = _Find_lower_bound(_Keyval);

  0001d	ff 75 f4	 push	 DWORD PTR __Keyval$16[ebp]
  00020	8d 45 94	 lea	 eax, DWORD PTR $T1[ebp]
  00023	50		 push	 eax
  00024	8b 4d f8	 mov	 ecx, DWORD PTR _this$[ebp]
  00027	e8 00 00 00 00	 call	 ??$_Find_lower_bound@V?$basic_string@DU?$char_traits@D@std@@V?$allocator@D@2@@std@@@?$_Tree@V?$_Tmap_traits@V?$basic_string@DU?$char_traits@D@std@@V?$allocator@D@2@@std@@V?$vector@V?$basic_string@DU?$char_traits@D@std@@V?$allocator@D@2@@std@@V?$allocator@V?$basic_string@DU?$char_traits@D@std@@V?$allocator@D@2@@std@@@2@@2@U?$less@V?$basic_string@DU?$char_traits@D@std@@V?$allocator@D@2@@std@@@2@V?$allocator@U?$pair@$$CBV?$basic_string@DU?$char_traits@D@std@@V?$allocator@D@2@@std@@V?$vector@V?$basic_string@DU?$char_traits@D@std@@V?$allocator@D@2@@std@@V?$allocator@V?$basic_string@DU?$char_traits@D@std@@V?$allocator@D@2@@std@@@2@@2@@std@@@2@$0A@@std@@@std@@IBE?AU?$_Tree_find_result@PAU?$_Tree_node@U?$pair@$$CBV?$basic_string@DU?$char_traits@D@std@@V?$allocator@D@2@@std@@V?$vector@V?$basic_string@DU?$char_traits@D@std@@V?$allocator@D@2@@std@@V?$allocator@V?$basic_string@DU?$char_traits@D@std@@V?$allocator@D@2@@std@@@2@@2@@std@@PAX@std@@@1@ABV?$basic_string@DU?$char_traits@D@std@@V?$allocator@D@2@@1@@Z ; std::_Tree<std::_Tmap_traits<std::basic_string<char,std::char_traits<char>,std::allocator<char> >,std::vector<std::basic_string<char,std::char_traits<char>,std::allocator<char> >,std::allocator<std::basic_string<char,std::char_traits<char>,std::allocator<char> > > >,std::less<std::basic_string<char,std::char_traits<char>,std::allocator<char> > >,std::allocator<std::pair<std::basic_string<char,std::char_traits<char>,std::allocator<char> > const ,std::vector<std::basic_string<char,std::char_traits<char>,std::allocator<char> >,std::allocator<std::basic_string<char,std::char_traits<char>,std::allocator<char> > > > > >,0> >::_Find_lower_bound<std::basic_string<char,std::char_traits<char>,std::allocator<char> > >
  0002c	8b f0		 mov	 esi, eax
  0002e	8d 7d a0	 lea	 edi, DWORD PTR __Loc$[ebp]
  00031	a5		 movsd
  00032	a5		 movsd
  00033	a5		 movsd

; 1010 :             if (_Lower_bound_duplicate(_Loc._Bound, _Keyval)) {

  00034	ff 75 f4	 push	 DWORD PTR __Keyval$16[ebp]
  00037	ff 75 a8	 push	 DWORD PTR __Loc$[ebp+8]
  0003a	8b 4d f8	 mov	 ecx, DWORD PTR _this$[ebp]
  0003d	e8 00 00 00 00	 call	 ??$_Lower_bound_duplicate@V?$basic_string@DU?$char_traits@D@std@@V?$allocator@D@2@@std@@@?$_Tree@V?$_Tmap_traits@V?$basic_string@DU?$char_traits@D@std@@V?$allocator@D@2@@std@@V?$vector@V?$basic_string@DU?$char_traits@D@std@@V?$allocator@D@2@@std@@V?$allocator@V?$basic_string@DU?$char_traits@D@std@@V?$allocator@D@2@@std@@@2@@2@U?$less@V?$basic_string@DU?$char_traits@D@std@@V?$allocator@D@2@@std@@@2@V?$allocator@U?$pair@$$CBV?$basic_string@DU?$char_traits@D@std@@V?$allocator@D@2@@std@@V?$vector@V?$basic_string@DU?$char_traits@D@std@@V?$allocator@D@2@@std@@V?$allocator@V?$basic_string@DU?$char_traits@D@std@@V?$allocator@D@2@@std@@@2@@2@@std@@@2@$0A@@std@@@std@@IBE_NQAU?$_Tree_node@U?$pair@$$CBV?$basic_string@DU?$char_traits@D@std@@V?$allocator@D@2@@std@@V?$vector@V?$basic_string@DU?$char_traits@D@std@@V?$allocator@D@2@@std@@V?$allocator@V?$basic_string@DU?$char_traits@D@std@@V?$allocator@D@2@@std@@@2@@2@@std@@PAX@1@ABV?$basic_string@DU?$char_traits@D@std@@V?$allocator@D@2@@1@@Z ; std::_Tree<std::_Tmap_traits<std::basic_string<char,std::char_traits<char>,std::allocator<char> >,std::vector<std::basic_string<char,std::char_traits<char>,std::allocator<char> >,std::allocator<std::basic_string<char,std::char_traits<char>,std::allocator<char> > > >,std::less<std::basic_string<char,std::char_traits<char>,std::allocator<char> > >,std::allocator<std::pair<std::basic_string<char,std::char_traits<char>,std::allocator<char> > const ,std::vector<std::basic_string<char,std::char_traits<char>,std::allocator<char> >,std::allocator<std::basic_string<char,std::char_traits<char>,std::allocator<char> > > > > >,0> >::_Lower_bound_duplicate<std::basic_string<char,std::char_traits<char>,std::allocator<char> > >
  00042	0f b6 c0	 movzx	 eax, al
  00045	85 c0		 test	 eax, eax
  00047	74 2d		 je	 SHORT $LN2@Emplace

; 1011 :                 return {_Loc._Bound, false};

  00049	c6 45 ff 00	 mov	 BYTE PTR $T18[ebp], 0
; File C:\Program Files (x86)\Microsoft Visual Studio\2019\Community\VC\Tools\MSVC\14.28.29333\include\type_traits

; 1443 :     return static_cast<_Ty&&>(_Arg);

  0004d	8d 45 a8	 lea	 eax, DWORD PTR __Loc$[ebp+8]
  00050	89 45 e4	 mov	 DWORD PTR $T14[ebp], eax
; File C:\Program Files (x86)\Microsoft Visual Studio\2019\Community\VC\Tools\MSVC\14.28.29333\include\utility

; 190  :         : first(_STD forward<_Other1>(_Val1)), second(_STD forward<_Other2>(_Val2)) {}

  00053	8b 45 08	 mov	 eax, DWORD PTR ___$ReturnUdt$[ebp]
  00056	8b 4d e4	 mov	 ecx, DWORD PTR $T14[ebp]
  00059	8b 09		 mov	 ecx, DWORD PTR [ecx]
  0005b	89 08		 mov	 DWORD PTR [eax], ecx
; File C:\Program Files (x86)\Microsoft Visual Studio\2019\Community\VC\Tools\MSVC\14.28.29333\include\type_traits

; 1443 :     return static_cast<_Ty&&>(_Arg);

  0005d	8d 45 ff	 lea	 eax, DWORD PTR $T18[ebp]
  00060	89 45 e0	 mov	 DWORD PTR $T13[ebp], eax
; File C:\Program Files (x86)\Microsoft Visual Studio\2019\Community\VC\Tools\MSVC\14.28.29333\include\utility

; 190  :         : first(_STD forward<_Other1>(_Val1)), second(_STD forward<_Other2>(_Val2)) {}

  00063	8b 45 08	 mov	 eax, DWORD PTR ___$ReturnUdt$[ebp]
  00066	8b 4d e0	 mov	 ecx, DWORD PTR $T13[ebp]
  00069	8a 09		 mov	 cl, BYTE PTR [ecx]
  0006b	88 48 04	 mov	 BYTE PTR [eax+4], cl
; File C:\Program Files (x86)\Microsoft Visual Studio\2019\Community\VC\Tools\MSVC\14.28.29333\include\xtree

; 1011 :                 return {_Loc._Bound, false};

  0006e	8b 45 08	 mov	 eax, DWORD PTR ___$ReturnUdt$[ebp]
  00071	e9 9d 00 00 00	 jmp	 $LN1@Emplace
$LN2@Emplace:

; 1012 :             }
; 1013 : 
; 1014 :             _Check_grow_by_1();

  00076	8b 4d f8	 mov	 ecx, DWORD PTR _this$[ebp]
  00079	e8 00 00 00 00	 call	 ?_Check_grow_by_1@?$_Tree@V?$_Tmap_traits@V?$basic_string@DU?$char_traits@D@std@@V?$allocator@D@2@@std@@V?$vector@V?$basic_string@DU?$char_traits@D@std@@V?$allocator@D@2@@std@@V?$allocator@V?$basic_string@DU?$char_traits@D@std@@V?$allocator@D@2@@std@@@2@@2@U?$less@V?$basic_string@DU?$char_traits@D@std@@V?$allocator@D@2@@std@@@2@V?$allocator@U?$pair@$$CBV?$basic_string@DU?$char_traits@D@std@@V?$allocator@D@2@@std@@V?$vector@V?$basic_string@DU?$char_traits@D@std@@V?$allocator@D@2@@std@@V?$allocator@V?$basic_string@DU?$char_traits@D@std@@V?$allocator@D@2@@std@@@2@@2@@std@@@2@$0A@@std@@@std@@IAEXXZ ; std::_Tree<std::_Tmap_traits<std::basic_string<char,std::char_traits<char>,std::allocator<char> >,std::vector<std::basic_string<char,std::char_traits<char>,std::allocator<char> >,std::allocator<std::basic_string<char,std::char_traits<char>,std::allocator<char> > > >,std::less<std::basic_string<char,std::char_traits<char>,std::allocator<char> > >,std::allocator<std::pair<std::basic_string<char,std::char_traits<char>,std::allocator<char> > const ,std::vector<std::basic_string<char,std::char_traits<char>,std::allocator<char> >,std::allocator<std::basic_string<char,std::char_traits<char>,std::allocator<char> > > > > >,0> >::_Check_grow_by_1
; File C:\Program Files (x86)\Microsoft Visual Studio\2019\Community\VC\Tools\MSVC\14.28.29333\include\type_traits

; 1443 :     return static_cast<_Ty&&>(_Arg);

  0007e	8b 45 0c	 mov	 eax, DWORD PTR _<_Vals_0>$[ebp]
  00081	89 45 d8	 mov	 DWORD PTR $T11[ebp], eax
; File C:\Program Files (x86)\Microsoft Visual Studio\2019\Community\VC\Tools\MSVC\14.28.29333\include\xtree

; 2039 :         return _Mypair._Myval2._Get_first();

  00084	8b 45 f8	 mov	 eax, DWORD PTR _this$[ebp]
; File C:\Program Files (x86)\Microsoft Visual Studio\2019\Community\VC\Tools\MSVC\14.28.29333\include\xmemory

; 1347 :         return *this;

  00087	89 45 dc	 mov	 DWORD PTR $T12[ebp], eax
; File C:\Program Files (x86)\Microsoft Visual Studio\2019\Community\VC\Tools\MSVC\14.28.29333\include\xtree

; 2039 :         return _Mypair._Myval2._Get_first();

  0008a	8b 45 dc	 mov	 eax, DWORD PTR $T12[ebp]
  0008d	89 45 d4	 mov	 DWORD PTR $T10[ebp], eax

; 1015 :             _Inserted = _Tree_temp_node<_Alnode>(_Getal(), _Scary->_Myhead, _STD forward<_Valtys>(_Vals)...)._Release();

  00090	ff 75 d8	 push	 DWORD PTR $T11[ebp]
  00093	8b 45 ec	 mov	 eax, DWORD PTR __Scary$[ebp]
  00096	ff 30		 push	 DWORD PTR [eax]
  00098	ff 75 d4	 push	 DWORD PTR $T10[ebp]
  0009b	8d 4d ac	 lea	 ecx, DWORD PTR $T2[ebp]
  0009e	e8 00 00 00 00	 call	 ??$?0U?$pair@$$CBV?$basic_string@DU?$char_traits@D@std@@V?$allocator@D@2@@std@@V?$vector@V?$basic_string@DU?$char_traits@D@std@@V?$allocator@D@2@@std@@V?$allocator@V?$basic_string@DU?$char_traits@D@std@@V?$allocator@D@2@@std@@@2@@2@@std@@@?$_Tree_temp_node@V?$allocator@U?$_Tree_node@U?$pair@$$CBV?$basic_string@DU?$char_traits@D@std@@V?$allocator@D@2@@std@@V?$vector@V?$basic_string@DU?$char_traits@D@std@@V?$allocator@D@2@@std@@V?$allocator@V?$basic_string@DU?$char_traits@D@std@@V?$allocator@D@2@@std@@@2@@2@@std@@PAX@std@@@std@@@std@@QAE@AAV?$allocator@U?$_Tree_node@U?$pair@$$CBV?$basic_string@DU?$char_traits@D@std@@V?$allocator@D@2@@std@@V?$vector@V?$basic_string@DU?$char_traits@D@std@@V?$allocator@D@2@@std@@V?$allocator@V?$basic_string@DU?$char_traits@D@std@@V?$allocator@D@2@@std@@@2@@2@@std@@PAX@std@@@1@PAU?$_Tree_node@U?$pair@$$CBV?$basic_string@DU?$char_traits@D@std@@V?$allocator@D@2@@std@@V?$vector@V?$basic_string@DU?$char_traits@D@std@@V?$allocator@D@2@@std@@V?$allocator@V?$basic_string@DU?$char_traits@D@std@@V?$allocator@D@2@@std@@@2@@2@@std@@PAX@1@$$QAU?$pair@$$CBV?$basic_string@DU?$char_traits@D@std@@V?$allocator@D@2@@std@@V?$vector@V?$basic_string@DU?$char_traits@D@std@@V?$allocator@D@2@@std@@V?$allocator@V?$basic_string@DU?$char_traits@D@std@@V?$allocator@D@2@@std@@@2@@2@@1@@Z ; std::_Tree_temp_node<std::allocator<std::_Tree_node<std::pair<std::basic_string<char,std::char_traits<char>,std::allocator<char> > const ,std::vector<std::basic_string<char,std::char_traits<char>,std::allocator<char> >,std::allocator<std::basic_string<char,std::char_traits<char>,std::allocator<char> > > > >,void *> > >::_Tree_temp_node<std::allocator<std::_Tree_node<std::pair<std::basic_string<char,std::char_traits<char>,std::allocator<char> > const ,std::vector<std::basic_string<char,std::char_traits<char>,std::allocator<char> >,std::allocator<std::basic_string<char,std::char_traits<char>,std::allocator<char> > > > >,void *> > ><std::pair<std::basic_string<char,std::char_traits<char>,std::allocator<char> > const ,std::vector<std::basic_string<char,std::char_traits<char>,std::allocator<char> >,std::allocator<std::basic_string<char,std::char_traits<char>,std::allocator<char> > > > > >
  000a3	89 45 d0	 mov	 DWORD PTR $T9[ebp], eax
; File C:\Program Files (x86)\Microsoft Visual Studio\2019\Community\VC\Tools\MSVC\14.28.29333\include\xmemory

; 1048 :         return _STD exchange(_Ptr, nullptr);

  000a6	83 65 cc 00	 and	 DWORD PTR $T8[ebp], 0
  000aa	8b 45 d0	 mov	 eax, DWORD PTR $T9[ebp]
  000ad	83 c0 04	 add	 eax, 4
  000b0	89 45 f0	 mov	 DWORD PTR __Val$[ebp], eax
; File C:\Program Files (x86)\Microsoft Visual Studio\2019\Community\VC\Tools\MSVC\14.28.29333\include\utility

; 598  :     _Ty _Old_val = static_cast<_Ty&&>(_Val);

  000b3	8b 45 f0	 mov	 eax, DWORD PTR __Val$[ebp]
  000b6	8b 00		 mov	 eax, DWORD PTR [eax]
  000b8	89 45 c8	 mov	 DWORD PTR __Old_val$7[ebp], eax

; 599  :     _Val         = static_cast<_Other&&>(_New_val);

  000bb	8b 45 f0	 mov	 eax, DWORD PTR __Val$[ebp]
  000be	8b 4d cc	 mov	 ecx, DWORD PTR $T8[ebp]
  000c1	89 08		 mov	 DWORD PTR [eax], ecx

; 600  :     return _Old_val;

  000c3	8b 45 c8	 mov	 eax, DWORD PTR __Old_val$7[ebp]
  000c6	89 45 c4	 mov	 DWORD PTR $T6[ebp], eax
; File C:\Program Files (x86)\Microsoft Visual Studio\2019\Community\VC\Tools\MSVC\14.28.29333\include\xmemory

; 1048 :         return _STD exchange(_Ptr, nullptr);

  000c9	8b 45 c4	 mov	 eax, DWORD PTR $T6[ebp]
  000cc	89 45 c0	 mov	 DWORD PTR __Inserted$[ebp], eax
; File C:\Program Files (x86)\Microsoft Visual Studio\2019\Community\VC\Tools\MSVC\14.28.29333\include\xtree

; 1015 :             _Inserted = _Tree_temp_node<_Alnode>(_Getal(), _Scary->_Myhead, _STD forward<_Valtys>(_Vals)...)._Release();

  000cf	8d 4d ac	 lea	 ecx, DWORD PTR $T2[ebp]
  000d2	e8 00 00 00 00	 call	 ??1?$_Tree_temp_node@V?$allocator@U?$_Tree_node@U?$pair@$$CBV?$basic_string@DU?$char_traits@D@std@@V?$allocator@D@2@@std@@V?$vector@V?$basic_string@DU?$char_traits@D@std@@V?$allocator@D@2@@std@@V?$allocator@V?$basic_string@DU?$char_traits@D@std@@V?$allocator@D@2@@std@@@2@@2@@std@@PAX@std@@@std@@@std@@QAE@XZ ; std::_Tree_temp_node<std::allocator<std::_Tree_node<std::pair<std::basic_string<char,std::char_traits<char>,std::allocator<char> > const ,std::vector<std::basic_string<char,std::char_traits<char>,std::allocator<char> >,std::allocator<std::basic_string<char,std::char_traits<char>,std::allocator<char> > > > >,void *> > >::~_Tree_temp_node<std::allocator<std::_Tree_node<std::pair<std::basic_string<char,std::char_traits<char>,std::allocator<char> > const ,std::vector<std::basic_string<char,std::char_traits<char>,std::allocator<char> >,std::allocator<std::basic_string<char,std::char_traits<char>,std::allocator<char> > > > >,void *> > >

; 1034 :         return {_Scary->_Insert_node(_Loc._Location, _Inserted), true};

  000d7	ff 75 c0	 push	 DWORD PTR __Inserted$[ebp]
  000da	ff 75 a4	 push	 DWORD PTR __Loc$[ebp+4]
  000dd	ff 75 a0	 push	 DWORD PTR __Loc$[ebp]
  000e0	8b 4d ec	 mov	 ecx, DWORD PTR __Scary$[ebp]
  000e3	e8 00 00 00 00	 call	 ?_Insert_node@?$_Tree_val@U?$_Tree_simple_types@U?$pair@$$CBV?$basic_string@DU?$char_traits@D@std@@V?$allocator@D@2@@std@@V?$vector@V?$basic_string@DU?$char_traits@D@std@@V?$allocator@D@2@@std@@V?$allocator@V?$basic_string@DU?$char_traits@D@std@@V?$allocator@D@2@@std@@@2@@2@@std@@@std@@@std@@QAEPAU?$_Tree_node@U?$pair@$$CBV?$basic_string@DU?$char_traits@D@std@@V?$allocator@D@2@@std@@V?$vector@V?$basic_string@DU?$char_traits@D@std@@V?$allocator@D@2@@std@@V?$allocator@V?$basic_string@DU?$char_traits@D@std@@V?$allocator@D@2@@std@@@2@@2@@std@@PAX@2@U?$_Tree_id@PAU?$_Tree_node@U?$pair@$$CBV?$basic_string@DU?$char_traits@D@std@@V?$allocator@D@2@@std@@V?$vector@V?$basic_string@DU?$char_traits@D@std@@V?$allocator@D@2@@std@@V?$allocator@V?$basic_string@DU?$char_traits@D@std@@V?$allocator@D@2@@std@@@2@@2@@std@@PAX@std@@@2@QAU32@@Z ; std::_Tree_val<std::_Tree_simple_types<std::pair<std::basic_string<char,std::char_traits<char>,std::allocator<char> > const ,std::vector<std::basic_string<char,std::char_traits<char>,std::allocator<char> >,std::allocator<std::basic_string<char,std::char_traits<char>,std::allocator<char> > > > > > >::_Insert_node
  000e8	89 45 bc	 mov	 DWORD PTR $T5[ebp], eax
  000eb	c6 45 fe 01	 mov	 BYTE PTR $T17[ebp], 1
; File C:\Program Files (x86)\Microsoft Visual Studio\2019\Community\VC\Tools\MSVC\14.28.29333\include\type_traits

; 1443 :     return static_cast<_Ty&&>(_Arg);

  000ef	8d 45 bc	 lea	 eax, DWORD PTR $T5[ebp]
  000f2	89 45 b8	 mov	 DWORD PTR $T4[ebp], eax
; File C:\Program Files (x86)\Microsoft Visual Studio\2019\Community\VC\Tools\MSVC\14.28.29333\include\utility

; 190  :         : first(_STD forward<_Other1>(_Val1)), second(_STD forward<_Other2>(_Val2)) {}

  000f5	8b 45 08	 mov	 eax, DWORD PTR ___$ReturnUdt$[ebp]
  000f8	8b 4d b8	 mov	 ecx, DWORD PTR $T4[ebp]
  000fb	8b 09		 mov	 ecx, DWORD PTR [ecx]
  000fd	89 08		 mov	 DWORD PTR [eax], ecx
; File C:\Program Files (x86)\Microsoft Visual Studio\2019\Community\VC\Tools\MSVC\14.28.29333\include\type_traits

; 1443 :     return static_cast<_Ty&&>(_Arg);

  000ff	8d 45 fe	 lea	 eax, DWORD PTR $T17[ebp]
  00102	89 45 b4	 mov	 DWORD PTR $T3[ebp], eax
; File C:\Program Files (x86)\Microsoft Visual Studio\2019\Community\VC\Tools\MSVC\14.28.29333\include\utility

; 190  :         : first(_STD forward<_Other1>(_Val1)), second(_STD forward<_Other2>(_Val2)) {}

  00105	8b 45 08	 mov	 eax, DWORD PTR ___$ReturnUdt$[ebp]
  00108	8b 4d b4	 mov	 ecx, DWORD PTR $T3[ebp]
  0010b	8a 09		 mov	 cl, BYTE PTR [ecx]
  0010d	88 48 04	 mov	 BYTE PTR [eax+4], cl
; File C:\Program Files (x86)\Microsoft Visual Studio\2019\Community\VC\Tools\MSVC\14.28.29333\include\xtree

; 1034 :         return {_Scary->_Insert_node(_Loc._Location, _Inserted), true};

  00110	8b 45 08	 mov	 eax, DWORD PTR ___$ReturnUdt$[ebp]
$LN1@Emplace:

; 1035 :     }

  00113	5f		 pop	 edi
  00114	5e		 pop	 esi
  00115	c9		 leave
  00116	c2 08 00	 ret	 8
??$_Emplace@U?$pair@$$CBV?$basic_string@DU?$char_traits@D@std@@V?$allocator@D@2@@std@@V?$vector@V?$basic_string@DU?$char_traits@D@std@@V?$allocator@D@2@@std@@V?$allocator@V?$basic_string@DU?$char_traits@D@std@@V?$allocator@D@2@@std@@@2@@2@@std@@@?$_Tree@V?$_Tmap_traits@V?$basic_string@DU?$char_traits@D@std@@V?$allocator@D@2@@std@@V?$vector@V?$basic_string@DU?$char_traits@D@std@@V?$allocator@D@2@@std@@V?$allocator@V?$basic_string@DU?$char_traits@D@std@@V?$allocator@D@2@@std@@@2@@2@U?$less@V?$basic_string@DU?$char_traits@D@std@@V?$allocator@D@2@@std@@@2@V?$allocator@U?$pair@$$CBV?$basic_string@DU?$char_traits@D@std@@V?$allocator@D@2@@std@@V?$vector@V?$basic_string@DU?$char_traits@D@std@@V?$allocator@D@2@@std@@V?$allocator@V?$basic_string@DU?$char_traits@D@std@@V?$allocator@D@2@@std@@@2@@2@@std@@@2@$0A@@std@@@std@@IAE?AU?$pair@PAU?$_Tree_node@U?$pair@$$CBV?$basic_string@DU?$char_traits@D@std@@V?$allocator@D@2@@std@@V?$vector@V?$basic_string@DU?$char_traits@D@std@@V?$allocator@D@2@@std@@V?$allocator@V?$basic_string@DU?$char_traits@D@std@@V?$allocator@D@2@@std@@@2@@2@@std@@PAX@std@@_N@1@$$QAU?$pair@$$CBV?$basic_string@DU?$char_traits@D@std@@V?$allocator@D@2@@std@@V?$vector@V?$basic_string@DU?$char_traits@D@std@@V?$allocator@D@2@@std@@V?$allocator@V?$basic_string@DU?$char_traits@D@std@@V?$allocator@D@2@@std@@@2@@2@@1@@Z ENDP ; std::_Tree<std::_Tmap_traits<std::basic_string<char,std::char_traits<char>,std::allocator<char> >,std::vector<std::basic_string<char,std::char_traits<char>,std::allocator<char> >,std::allocator<std::basic_string<char,std::char_traits<char>,std::allocator<char> > > >,std::less<std::basic_string<char,std::char_traits<char>,std::allocator<char> > >,std::allocator<std::pair<std::basic_string<char,std::char_traits<char>,std::allocator<char> > const ,std::vector<std::basic_string<char,std::char_traits<char>,std::allocator<char> >,std::allocator<std::basic_string<char,std::char_traits<char>,std::allocator<char> > > > > >,0> >::_Emplace<std::pair<std::basic_string<char,std::char_traits<char>,std::allocator<char> > const ,std::vector<std::basic_string<char,std::char_traits<char>,std::allocator<char> >,std::allocator<std::basic_string<char,std::char_traits<char>,std::allocator<char> > > > > >
_TEXT	ENDS
; Function compile flags: /Odspy
; File C:\Program Files (x86)\Microsoft Visual Studio\2019\Community\VC\Tools\MSVC\14.28.29333\include\xmemory
;	COMDAT ??$_Pocca@V?$allocator@D@std@@@std@@YAXAAV?$allocator@D@0@ABV10@@Z
_TEXT	SEGMENT
__Left$ = 8						; size = 4
__Right$ = 12						; size = 4
??$_Pocca@V?$allocator@D@std@@@std@@YAXAAV?$allocator@D@0@ABV10@@Z PROC ; std::_Pocca<std::allocator<char> >, COMDAT

; 885  : void _Pocca(_Alloc& _Left, const _Alloc& _Right) noexcept {

  00000	55		 push	 ebp
  00001	8b ec		 mov	 ebp, esp

; 886  :     if constexpr (allocator_traits<_Alloc>::propagate_on_container_copy_assignment::value) {
; 887  :         _Left = _Right;
; 888  :     }
; 889  : }

  00003	5d		 pop	 ebp
  00004	c3		 ret	 0
??$_Pocca@V?$allocator@D@std@@@std@@YAXAAV?$allocator@D@0@ABV10@@Z ENDP ; std::_Pocca<std::allocator<char> >
_TEXT	ENDS
; Function compile flags: /Odspy
; File C:\Program Files (x86)\Microsoft Visual Studio\2019\Community\VC\Tools\MSVC\14.28.29333\include\xmemory
; File C:\Program Files (x86)\Microsoft Visual Studio\2019\Community\VC\Tools\MSVC\14.28.29333\include\xstddef
; File C:\Program Files (x86)\Microsoft Visual Studio\2019\Community\VC\Tools\MSVC\14.28.29333\include\xstring
; File C:\Program Files (x86)\Microsoft Visual Studio\2019\Community\VC\Tools\MSVC\14.28.29333\include\xmemory
;	COMDAT ??$_Destroy_range@V?$allocator@V?$basic_string@DU?$char_traits@D@std@@V?$allocator@D@2@@std@@@std@@@std@@YAXPAV?$basic_string@DU?$char_traits@D@std@@V?$allocator@D@2@@0@QAV10@AAV?$allocator@V?$basic_string@DU?$char_traits@D@std@@V?$allocator@D@2@@std@@@0@@Z
_TEXT	SEGMENT
$T1 = -4						; size = 4
__First$ = 8						; size = 4
__Last$ = 12						; size = 4
__Al$ = 16						; size = 4
??$_Destroy_range@V?$allocator@V?$basic_string@DU?$char_traits@D@std@@V?$allocator@D@2@@std@@@std@@@std@@YAXPAV?$basic_string@DU?$char_traits@D@std@@V?$allocator@D@2@@0@QAV10@AAV?$allocator@V?$basic_string@DU?$char_traits@D@std@@V?$allocator@D@2@@std@@@0@@Z PROC ; std::_Destroy_range<std::allocator<std::basic_string<char,std::char_traits<char>,std::allocator<char> > > >, COMDAT

; 962  :     _Alloc_ptr_t<_Alloc> _First, const _Alloc_ptr_t<_Alloc> _Last, _Alloc& _Al) noexcept {

  00000	55		 push	 ebp
  00001	8b ec		 mov	 ebp, esp
  00003	51		 push	 ecx

; 963  :     // note that this is an optimization for debug mode codegen; in release mode the BE removes all of this
; 964  :     using _Ty = typename _Alloc::value_type;
; 965  :     if _CONSTEXPR_IF (!conjunction_v<is_trivially_destructible<_Ty>, _Uses_default_destroy<_Alloc, _Ty*>>) {
; 966  :         for (; _First != _Last; ++_First) {

  00004	eb 09		 jmp	 SHORT $LN4@Destroy_ra
$LN2@Destroy_ra:
  00006	8b 45 08	 mov	 eax, DWORD PTR __First$[ebp]
  00009	83 c0 18	 add	 eax, 24			; 00000018H
  0000c	89 45 08	 mov	 DWORD PTR __First$[ebp], eax
$LN4@Destroy_ra:
  0000f	8b 45 08	 mov	 eax, DWORD PTR __First$[ebp]
  00012	3b 45 0c	 cmp	 eax, DWORD PTR __Last$[ebp]
  00015	74 23		 je	 SHORT $LN5@Destroy_ra
; File C:\Program Files (x86)\Microsoft Visual Studio\2019\Community\VC\Tools\MSVC\14.28.29333\include\xstddef

; 289  :     return _Ptr;

  00017	8b 45 08	 mov	 eax, DWORD PTR __First$[ebp]
  0001a	89 45 fc	 mov	 DWORD PTR $T1[ebp], eax
; File C:\Program Files (x86)\Microsoft Visual Studio\2019\Community\VC\Tools\MSVC\14.28.29333\include\xstring

; 2801 :         _Tidy_deallocate();

  0001d	8b 4d fc	 mov	 ecx, DWORD PTR $T1[ebp]
  00020	e8 00 00 00 00	 call	 ?_Tidy_deallocate@?$basic_string@DU?$char_traits@D@std@@V?$allocator@D@2@@std@@AAEXXZ ; std::basic_string<char,std::char_traits<char>,std::allocator<char> >::_Tidy_deallocate
  00025	33 c0		 xor	 eax, eax
  00027	83 e0 01	 and	 eax, 1
  0002a	74 0c		 je	 SHORT $LN9@Destroy_ra
  0002c	6a 18		 push	 24			; 00000018H
  0002e	ff 75 fc	 push	 DWORD PTR $T1[ebp]
  00031	e8 00 00 00 00	 call	 ??3@YAXPAXI@Z		; operator delete
  00036	59		 pop	 ecx
  00037	59		 pop	 ecx
$LN9@Destroy_ra:
; File C:\Program Files (x86)\Microsoft Visual Studio\2019\Community\VC\Tools\MSVC\14.28.29333\include\xmemory

; 968  :         }

  00038	eb cc		 jmp	 SHORT $LN2@Destroy_ra
$LN5@Destroy_ra:

; 969  :     }
; 970  : }

  0003a	c9		 leave
  0003b	c3		 ret	 0
??$_Destroy_range@V?$allocator@V?$basic_string@DU?$char_traits@D@std@@V?$allocator@D@2@@std@@@std@@@std@@YAXPAV?$basic_string@DU?$char_traits@D@std@@V?$allocator@D@2@@0@QAV10@AAV?$allocator@V?$basic_string@DU?$char_traits@D@std@@V?$allocator@D@2@@std@@@0@@Z ENDP ; std::_Destroy_range<std::allocator<std::basic_string<char,std::char_traits<char>,std::allocator<char> > > >
_TEXT	ENDS
; Function compile flags: /Odspy
; File C:\Program Files (x86)\Microsoft Visual Studio\2019\Community\VC\Tools\MSVC\14.28.29333\include\vector
; File C:\Program Files (x86)\Microsoft Visual Studio\2019\Community\VC\Tools\MSVC\14.28.29333\include\xmemory
; File C:\Program Files (x86)\Microsoft Visual Studio\2019\Community\VC\Tools\MSVC\14.28.29333\include\vector
; File C:\Program Files (x86)\Microsoft Visual Studio\2019\Community\VC\Tools\MSVC\14.28.29333\include\xmemory
; File C:\Program Files (x86)\Microsoft Visual Studio\2019\Community\VC\Tools\MSVC\14.28.29333\include\vector
; File C:\Program Files (x86)\Microsoft Visual Studio\2019\Community\VC\Tools\MSVC\14.28.29333\include\xmemory
; File C:\Program Files (x86)\Microsoft Visual Studio\2019\Community\VC\Tools\MSVC\14.28.29333\include\limits
; File C:\Program Files (x86)\Microsoft Visual Studio\2019\Community\VC\Tools\MSVC\14.28.29333\include\vector
; File C:\Program Files (x86)\Microsoft Visual Studio\2019\Community\VC\Tools\MSVC\14.28.29333\include\utility
; File C:\Program Files (x86)\Microsoft Visual Studio\2019\Community\VC\Tools\MSVC\14.28.29333\include\vector
; File C:\Program Files (x86)\Microsoft Visual Studio\2019\Community\VC\Tools\MSVC\14.28.29333\include\xmemory
; File C:\Program Files (x86)\Microsoft Visual Studio\2019\Community\VC\Tools\MSVC\14.28.29333\include\vector
; File C:\Program Files (x86)\Microsoft Visual Studio\2019\Community\VC\Tools\MSVC\14.28.29333\include\type_traits
; File C:\Program Files (x86)\Microsoft Visual Studio\2019\Community\VC\Tools\MSVC\14.28.29333\include\vector
; File C:\Program Files (x86)\Microsoft Visual Studio\2019\Community\VC\Tools\MSVC\14.28.29333\include\xstddef
; File C:\Program Files (x86)\Microsoft Visual Studio\2019\Community\VC\Tools\MSVC\14.28.29333\include\vcruntime_new.h
; File C:\Program Files (x86)\Microsoft Visual Studio\2019\Community\VC\Tools\MSVC\14.28.29333\include\type_traits
; File C:\Program Files (x86)\Microsoft Visual Studio\2019\Community\VC\Tools\MSVC\14.28.29333\include\xmemory
; File C:\Program Files (x86)\Microsoft Visual Studio\2019\Community\VC\Tools\MSVC\14.28.29333\include\vector
; File C:\Program Files (x86)\Microsoft Visual Studio\2019\Community\VC\Tools\MSVC\14.28.29333\include\xmemory
; File C:\Program Files (x86)\Microsoft Visual Studio\2019\Community\VC\Tools\MSVC\14.28.29333\include\vector
; File C:\Program Files (x86)\Microsoft Visual Studio\2019\Community\VC\Tools\MSVC\14.28.29333\include\xmemory
; File C:\Program Files (x86)\Microsoft Visual Studio\2019\Community\VC\Tools\MSVC\14.28.29333\include\vector
; File C:\Program Files (x86)\Microsoft Visual Studio\2019\Community\VC\Tools\MSVC\14.28.29333\include\xmemory
; File C:\Program Files (x86)\Microsoft Visual Studio\2019\Community\VC\Tools\MSVC\14.28.29333\include\vector
;	COMDAT ??$_Emplace_reallocate@ABV?$basic_string@DU?$char_traits@D@std@@V?$allocator@D@2@@std@@@?$vector@V?$basic_string@DU?$char_traits@D@std@@V?$allocator@D@2@@std@@V?$allocator@V?$basic_string@DU?$char_traits@D@std@@V?$allocator@D@2@@std@@@2@@std@@QAEPAV?$basic_string@DU?$char_traits@D@std@@V?$allocator@D@2@@1@QAV21@ABV21@@Z
_TEXT	SEGMENT
__Max_possible$2 = -68					; size = 4
$T3 = -64						; size = 4
__Al$ = -60						; size = 4
__Last$ = -56						; size = 4
$T4 = -52						; size = 4
$T5 = -48						; size = 4
__First$ = -44						; size = 4
$T6 = -40						; size = 4
$T7 = -36						; size = 4
__First$ = -32						; size = 4
__Last$ = -28						; size = 4
$T8 = -24						; size = 4
$T9 = -20						; size = 4
__$EHRec$ = -16						; size = 16
$T10 = 0						; size = 4
$T11 = 4						; size = 4
$T12 = 8						; size = 4
$T13 = 12						; size = 4
$T14 = 16						; size = 4
$T15 = 20						; size = 4
$T16 = 24						; size = 4
$T17 = 28						; size = 4
$T18 = 32						; size = 4
$T19 = 36						; size = 4
$T20 = 40						; size = 4
__Newsize$ = 44						; size = 4
__Constructed_last$ = 48				; size = 4
__Oldsize$ = 52						; size = 4
tv172 = 56						; size = 4
$T21 = 60						; size = 4
$T22 = 64						; size = 4
__My_data$ = 68						; size = 4
__Constructed_first$ = 72				; size = 4
___formal$ = 76						; size = 1
__Overflow_is_possible$23 = 83				; size = 1
__Newcapacity$ = 84					; size = 4
__Mylast$ = 88						; size = 4
__Myfirst$ = 92						; size = 4
__Whereoff$ = 96					; size = 4
$T24 = 103						; size = 1
_this$ = 104						; size = 4
__Newvec$ = 108						; size = 4
__Whereptr$ = 120					; size = 4
_<_Val_0>$ = 124					; size = 4
??$_Emplace_reallocate@ABV?$basic_string@DU?$char_traits@D@std@@V?$allocator@D@2@@std@@@?$vector@V?$basic_string@DU?$char_traits@D@std@@V?$allocator@D@2@@std@@V?$allocator@V?$basic_string@DU?$char_traits@D@std@@V?$allocator@D@2@@std@@@2@@std@@QAEPAV?$basic_string@DU?$char_traits@D@std@@V?$allocator@D@2@@1@QAV21@ABV21@@Z PROC ; std::vector<std::basic_string<char,std::char_traits<char>,std::allocator<char> >,std::allocator<std::basic_string<char,std::char_traits<char>,std::allocator<char> > > >::_Emplace_reallocate<std::basic_string<char,std::char_traits<char>,std::allocator<char> > const &>, COMDAT
; _this$ = ecx

; 725  :     pointer _Emplace_reallocate(const pointer _Whereptr, _Valty&&... _Val) {

  00000	55		 push	 ebp
  00001	8d 6c 24 90	 lea	 ebp, DWORD PTR [esp-112]
  00005	83 ec 70	 sub	 esp, 112		; 00000070H
  00008	6a ff		 push	 -1
  0000a	68 00 00 00 00	 push	 __ehhandler$??$_Emplace_reallocate@ABV?$basic_string@DU?$char_traits@D@std@@V?$allocator@D@2@@std@@@?$vector@V?$basic_string@DU?$char_traits@D@std@@V?$allocator@D@2@@std@@V?$allocator@V?$basic_string@DU?$char_traits@D@std@@V?$allocator@D@2@@std@@@2@@std@@QAEPAV?$basic_string@DU?$char_traits@D@std@@V?$allocator@D@2@@1@QAV21@ABV21@@Z
  0000f	64 a1 00 00 00
	00		 mov	 eax, DWORD PTR fs:0
  00015	50		 push	 eax
  00016	51		 push	 ecx
  00017	83 ec 34	 sub	 esp, 52			; 00000034H
  0001a	53		 push	 ebx
  0001b	56		 push	 esi
  0001c	57		 push	 edi
  0001d	a1 00 00 00 00	 mov	 eax, DWORD PTR ___security_cookie
  00022	33 c5		 xor	 eax, ebp
  00024	50		 push	 eax
  00025	8d 45 f4	 lea	 eax, DWORD PTR __$EHRec$[ebp+4]
  00028	64 a3 00 00 00
	00		 mov	 DWORD PTR fs:0, eax
  0002e	89 65 f0	 mov	 DWORD PTR __$EHRec$[ebp], esp
  00031	89 4d 68	 mov	 DWORD PTR _this$[ebp], ecx

; 1733 :         return _Mypair._Get_first();

  00034	8b 45 68	 mov	 eax, DWORD PTR _this$[ebp]
; File C:\Program Files (x86)\Microsoft Visual Studio\2019\Community\VC\Tools\MSVC\14.28.29333\include\xmemory

; 1347 :         return *this;

  00037	89 45 28	 mov	 DWORD PTR $T20[ebp], eax
; File C:\Program Files (x86)\Microsoft Visual Studio\2019\Community\VC\Tools\MSVC\14.28.29333\include\vector

; 1733 :         return _Mypair._Get_first();

  0003a	8b 45 28	 mov	 eax, DWORD PTR $T20[ebp]
  0003d	89 45 c4	 mov	 DWORD PTR __Al$[ebp], eax

; 726  :         // reallocate and insert by perfectly forwarding _Val at _Whereptr
; 727  :         _Alty& _Al        = _Getal();
; 728  :         auto& _My_data    = _Mypair._Myval2;

  00040	8b 45 68	 mov	 eax, DWORD PTR _this$[ebp]
  00043	89 45 44	 mov	 DWORD PTR __My_data$[ebp], eax

; 729  :         pointer& _Myfirst = _My_data._Myfirst;

  00046	8b 45 44	 mov	 eax, DWORD PTR __My_data$[ebp]
  00049	89 45 5c	 mov	 DWORD PTR __Myfirst$[ebp], eax

; 730  :         pointer& _Mylast  = _My_data._Mylast;

  0004c	8b 45 44	 mov	 eax, DWORD PTR __My_data$[ebp]
  0004f	83 c0 04	 add	 eax, 4
  00052	89 45 58	 mov	 DWORD PTR __Mylast$[ebp], eax

; 731  : 
; 732  :         _STL_INTERNAL_CHECK(_Mylast == _My_data._Myend); // check that we have no unused capacity
; 733  : 
; 734  :         const auto _Whereoff = static_cast<size_type>(_Whereptr - _Myfirst);

  00055	8b 45 5c	 mov	 eax, DWORD PTR __Myfirst$[ebp]
  00058	8b 4d 78	 mov	 ecx, DWORD PTR __Whereptr$[ebp]
  0005b	2b 08		 sub	 ecx, DWORD PTR [eax]
  0005d	8b c1		 mov	 eax, ecx
  0005f	99		 cdq
  00060	6a 18		 push	 24			; 00000018H
  00062	59		 pop	 ecx
  00063	f7 f9		 idiv	 ecx
  00065	89 45 60	 mov	 DWORD PTR __Whereoff$[ebp], eax

; 735  :         const auto _Oldsize  = static_cast<size_type>(_Mylast - _Myfirst);

  00068	8b 45 58	 mov	 eax, DWORD PTR __Mylast$[ebp]
  0006b	8b 4d 5c	 mov	 ecx, DWORD PTR __Myfirst$[ebp]
  0006e	8b 00		 mov	 eax, DWORD PTR [eax]
  00070	2b 01		 sub	 eax, DWORD PTR [ecx]
  00072	99		 cdq
  00073	6a 18		 push	 24			; 00000018H
  00075	59		 pop	 ecx
  00076	f7 f9		 idiv	 ecx
  00078	89 45 34	 mov	 DWORD PTR __Oldsize$[ebp], eax

; 1737 :         return _Mypair._Get_first();

  0007b	8b 45 68	 mov	 eax, DWORD PTR _this$[ebp]
; File C:\Program Files (x86)\Microsoft Visual Studio\2019\Community\VC\Tools\MSVC\14.28.29333\include\xmemory

; 1351 :         return *this;

  0007e	89 45 24	 mov	 DWORD PTR $T19[ebp], eax
; File C:\Program Files (x86)\Microsoft Visual Studio\2019\Community\VC\Tools\MSVC\14.28.29333\include\vector

; 1737 :         return _Mypair._Get_first();

  00081	8b 45 24	 mov	 eax, DWORD PTR $T19[ebp]
  00084	89 45 c0	 mov	 DWORD PTR $T3[ebp], eax
; File C:\Program Files (x86)\Microsoft Visual Studio\2019\Community\VC\Tools\MSVC\14.28.29333\include\xmemory

; 710  :         return static_cast<size_t>(-1) / sizeof(value_type);

  00087	c7 45 40 aa aa
	aa 0a		 mov	 DWORD PTR $T22[ebp], 178956970 ; 0aaaaaaaH
; File C:\Program Files (x86)\Microsoft Visual Studio\2019\Community\VC\Tools\MSVC\14.28.29333\include\limits

; 557  :         return INT_MAX;

  0008e	c7 45 20 ff ff
	ff 7f		 mov	 DWORD PTR $T18[ebp], 2147483647 ; 7fffffffH
; File C:\Program Files (x86)\Microsoft Visual Studio\2019\Community\VC\Tools\MSVC\14.28.29333\include\vector

; 1488 :         return (_STD min)(

  00095	8b 45 20	 mov	 eax, DWORD PTR $T18[ebp]
  00098	89 45 3c	 mov	 DWORD PTR $T21[ebp], eax
; File C:\Program Files (x86)\Microsoft Visual Studio\2019\Community\VC\Tools\MSVC\14.28.29333\include\utility

; 68   :     return _Right < _Left ? _Right : _Left;

  0009b	8b 45 40	 mov	 eax, DWORD PTR $T22[ebp]
  0009e	3b 45 3c	 cmp	 eax, DWORD PTR $T21[ebp]
  000a1	73 08		 jae	 SHORT $LN34@Emplace_re
  000a3	8d 45 40	 lea	 eax, DWORD PTR $T22[ebp]
  000a6	89 45 38	 mov	 DWORD PTR tv172[ebp], eax
  000a9	eb 06		 jmp	 SHORT $LN35@Emplace_re
$LN34@Emplace_re:
  000ab	8d 45 3c	 lea	 eax, DWORD PTR $T21[ebp]
  000ae	89 45 38	 mov	 DWORD PTR tv172[ebp], eax
$LN35@Emplace_re:
  000b1	8b 45 38	 mov	 eax, DWORD PTR tv172[ebp]
  000b4	89 45 1c	 mov	 DWORD PTR $T17[ebp], eax
  000b7	8b 45 1c	 mov	 eax, DWORD PTR $T17[ebp]
  000ba	89 45 18	 mov	 DWORD PTR $T16[ebp], eax
; File C:\Program Files (x86)\Microsoft Visual Studio\2019\Community\VC\Tools\MSVC\14.28.29333\include\vector

; 1488 :         return (_STD min)(

  000bd	8b 45 18	 mov	 eax, DWORD PTR $T16[ebp]
  000c0	8b 00		 mov	 eax, DWORD PTR [eax]
  000c2	89 45 14	 mov	 DWORD PTR $T15[ebp], eax

; 736  : 
; 737  :         if (_Oldsize == max_size()) {

  000c5	8b 45 34	 mov	 eax, DWORD PTR __Oldsize$[ebp]
  000c8	3b 45 14	 cmp	 eax, DWORD PTR $T15[ebp]
  000cb	75 05		 jne	 SHORT $LN2@Emplace_re

; 738  :             _Xlength();

  000cd	e8 00 00 00 00	 call	 ?_Xlength@?$vector@V?$basic_string@DU?$char_traits@D@std@@V?$allocator@D@2@@std@@V?$allocator@V?$basic_string@DU?$char_traits@D@std@@V?$allocator@D@2@@std@@@2@@std@@CAXXZ ; std::vector<std::basic_string<char,std::char_traits<char>,std::allocator<char> >,std::allocator<std::basic_string<char,std::char_traits<char>,std::allocator<char> > > >::_Xlength
$LN2@Emplace_re:

; 739  :         }
; 740  : 
; 741  :         const size_type _Newsize     = _Oldsize + 1;

  000d2	8b 45 34	 mov	 eax, DWORD PTR __Oldsize$[ebp]
  000d5	40		 inc	 eax
  000d6	89 45 2c	 mov	 DWORD PTR __Newsize$[ebp], eax

; 742  :         const size_type _Newcapacity = _Calculate_growth(_Newsize);

  000d9	ff 75 2c	 push	 DWORD PTR __Newsize$[ebp]
  000dc	8b 4d 68	 mov	 ecx, DWORD PTR _this$[ebp]
  000df	e8 00 00 00 00	 call	 ?_Calculate_growth@?$vector@V?$basic_string@DU?$char_traits@D@std@@V?$allocator@D@2@@std@@V?$allocator@V?$basic_string@DU?$char_traits@D@std@@V?$allocator@D@2@@std@@@2@@std@@ABEII@Z ; std::vector<std::basic_string<char,std::char_traits<char>,std::allocator<char> >,std::allocator<std::basic_string<char,std::char_traits<char>,std::allocator<char> > > >::_Calculate_growth
  000e4	89 45 54	 mov	 DWORD PTR __Newcapacity$[ebp], eax
; File C:\Program Files (x86)\Microsoft Visual Studio\2019\Community\VC\Tools\MSVC\14.28.29333\include\xmemory

; 56   :     constexpr bool _Overflow_is_possible = _Ty_size > 1;

  000e7	c6 45 53 01	 mov	 BYTE PTR __Overflow_is_possible$23[ebp], 1

; 57   : 
; 58   :     if _CONSTEXPR_IF (_Overflow_is_possible) {
; 59   :         constexpr size_t _Max_possible = static_cast<size_t>(-1) / _Ty_size;

  000eb	c7 45 bc aa aa
	aa 0a		 mov	 DWORD PTR __Max_possible$2[ebp], 178956970 ; 0aaaaaaaH

; 60   :         if (_Count > _Max_possible) {

  000f2	81 7d 54 aa aa
	aa 0a		 cmp	 DWORD PTR __Newcapacity$[ebp], 178956970 ; 0aaaaaaaH
  000f9	76 05		 jbe	 SHORT $LN67@Emplace_re

; 61   :             _Throw_bad_array_new_length(); // multiply overflow

  000fb	e8 00 00 00 00	 call	 ?_Throw_bad_array_new_length@std@@YAXXZ ; std::_Throw_bad_array_new_length
$LN67@Emplace_re:

; 62   :         }
; 63   :     }
; 64   : 
; 65   :     return _Count * _Ty_size;

  00100	6b 45 54 18	 imul	 eax, DWORD PTR __Newcapacity$[ebp], 24
  00104	89 45 10	 mov	 DWORD PTR $T14[ebp], eax

; 814  :         return static_cast<_Ty*>(_Allocate<_New_alignof<_Ty>>(_Get_size_of_n<sizeof(_Ty)>(_Count)));

  00107	ff 75 10	 push	 DWORD PTR $T14[ebp]
  0010a	e8 00 00 00 00	 call	 ??$_Allocate@$07U_Default_allocate_traits@std@@$0A@@std@@YAPAXI@Z ; std::_Allocate<8,std::_Default_allocate_traits,0>
  0010f	59		 pop	 ecx
  00110	89 45 6c	 mov	 DWORD PTR __Newvec$[ebp], eax
; File C:\Program Files (x86)\Microsoft Visual Studio\2019\Community\VC\Tools\MSVC\14.28.29333\include\vector

; 745  :         const pointer _Constructed_last = _Newvec + _Whereoff + 1;

  00113	6b 45 60 18	 imul	 eax, DWORD PTR __Whereoff$[ebp], 24
  00117	8b 4d 6c	 mov	 ecx, DWORD PTR __Newvec$[ebp]
  0011a	8d 44 01 18	 lea	 eax, DWORD PTR [ecx+eax+24]
  0011e	89 45 30	 mov	 DWORD PTR __Constructed_last$[ebp], eax

; 746  :         pointer _Constructed_first      = _Constructed_last;

  00121	8b 45 30	 mov	 eax, DWORD PTR __Constructed_last$[ebp]
  00124	89 45 48	 mov	 DWORD PTR __Constructed_first$[ebp], eax

; 747  : 
; 748  :         _TRY_BEGIN

  00127	83 65 fc 00	 and	 DWORD PTR __$EHRec$[ebp+12], 0
; File C:\Program Files (x86)\Microsoft Visual Studio\2019\Community\VC\Tools\MSVC\14.28.29333\include\type_traits

; 1443 :     return static_cast<_Ty&&>(_Arg);

  0012b	8b 45 7c	 mov	 eax, DWORD PTR _<_Val_0>$[ebp]
  0012e	89 45 08	 mov	 DWORD PTR $T12[ebp], eax
; File C:\Program Files (x86)\Microsoft Visual Studio\2019\Community\VC\Tools\MSVC\14.28.29333\include\vector

; 749  :         _Alty_traits::construct(_Al, _Unfancy(_Newvec + _Whereoff), _STD forward<_Valty>(_Val)...);

  00131	6b 45 60 18	 imul	 eax, DWORD PTR __Whereoff$[ebp], 24
  00135	03 45 6c	 add	 eax, DWORD PTR __Newvec$[ebp]
; File C:\Program Files (x86)\Microsoft Visual Studio\2019\Community\VC\Tools\MSVC\14.28.29333\include\xstddef

; 289  :     return _Ptr;

  00138	89 45 0c	 mov	 DWORD PTR $T13[ebp], eax
; File C:\Program Files (x86)\Microsoft Visual Studio\2019\Community\VC\Tools\MSVC\14.28.29333\include\vcruntime_new.h

; 169  :         return _Where;

  0013b	8b 45 0c	 mov	 eax, DWORD PTR $T13[ebp]
  0013e	89 45 00	 mov	 DWORD PTR $T10[ebp], eax
; File C:\Program Files (x86)\Microsoft Visual Studio\2019\Community\VC\Tools\MSVC\14.28.29333\include\type_traits

; 1443 :     return static_cast<_Ty&&>(_Arg);

  00141	8b 45 08	 mov	 eax, DWORD PTR $T12[ebp]
  00144	89 45 04	 mov	 DWORD PTR $T11[ebp], eax
; File C:\Program Files (x86)\Microsoft Visual Studio\2019\Community\VC\Tools\MSVC\14.28.29333\include\xmemory

; 701  :         ::new (const_cast<void*>(static_cast<const volatile void*>(_Ptr))) _Objty(_STD forward<_Types>(_Args)...);

  00147	ff 75 04	 push	 DWORD PTR $T11[ebp]
  0014a	8b 4d 00	 mov	 ecx, DWORD PTR $T10[ebp]
  0014d	e8 00 00 00 00	 call	 ??0?$basic_string@DU?$char_traits@D@std@@V?$allocator@D@2@@std@@QAE@ABV01@@Z ; std::basic_string<char,std::char_traits<char>,std::allocator<char> >::basic_string<char,std::char_traits<char>,std::allocator<char> >
; File C:\Program Files (x86)\Microsoft Visual Studio\2019\Community\VC\Tools\MSVC\14.28.29333\include\vector

; 750  :         _Constructed_first = _Newvec + _Whereoff;

  00152	6b 45 60 18	 imul	 eax, DWORD PTR __Whereoff$[ebp], 24
  00156	03 45 6c	 add	 eax, DWORD PTR __Newvec$[ebp]
  00159	89 45 48	 mov	 DWORD PTR __Constructed_first$[ebp], eax

; 751  : 
; 752  :         if (_Whereptr == _Mylast) { // at back, provide strong guarantee

  0015c	8b 45 58	 mov	 eax, DWORD PTR __Mylast$[ebp]
  0015f	8b 4d 78	 mov	 ecx, DWORD PTR __Whereptr$[ebp]
  00162	3b 08		 cmp	 ecx, DWORD PTR [eax]
  00164	75 3d		 jne	 SHORT $LN4@Emplace_re

; 753  :             _Umove_if_noexcept(_Myfirst, _Mylast, _Newvec);

  00166	8b 45 58	 mov	 eax, DWORD PTR __Mylast$[ebp]
  00169	8b 00		 mov	 eax, DWORD PTR [eax]
  0016b	89 45 e4	 mov	 DWORD PTR __Last$[ebp], eax
  0016e	8b 45 5c	 mov	 eax, DWORD PTR __Myfirst$[ebp]
  00171	8b 00		 mov	 eax, DWORD PTR [eax]
  00173	89 45 e0	 mov	 DWORD PTR __First$[ebp], eax

; 1607 :         _Umove_if_noexcept1(_First, _Last, _Dest,

  00176	33 c0		 xor	 eax, eax
  00178	88 45 67	 mov	 BYTE PTR $T24[ebp], al
  0017b	8a 45 67	 mov	 al, BYTE PTR $T24[ebp]
  0017e	88 45 4c	 mov	 BYTE PTR ___formal$[ebp], al

; 1733 :         return _Mypair._Get_first();

  00181	8b 45 68	 mov	 eax, DWORD PTR _this$[ebp]
; File C:\Program Files (x86)\Microsoft Visual Studio\2019\Community\VC\Tools\MSVC\14.28.29333\include\xmemory

; 1347 :         return *this;

  00184	89 45 ec	 mov	 DWORD PTR $T9[ebp], eax
; File C:\Program Files (x86)\Microsoft Visual Studio\2019\Community\VC\Tools\MSVC\14.28.29333\include\vector

; 1733 :         return _Mypair._Get_first();

  00187	8b 45 ec	 mov	 eax, DWORD PTR $T9[ebp]
  0018a	89 45 e8	 mov	 DWORD PTR $T8[ebp], eax

; 1597 :         _Uninitialized_move(_First, _Last, _Dest, _Getal());

  0018d	ff 75 e8	 push	 DWORD PTR $T8[ebp]
  00190	ff 75 6c	 push	 DWORD PTR __Newvec$[ebp]
  00193	ff 75 e4	 push	 DWORD PTR __Last$[ebp]
  00196	ff 75 e0	 push	 DWORD PTR __First$[ebp]
  00199	e8 00 00 00 00	 call	 ??$_Uninitialized_move@PAV?$basic_string@DU?$char_traits@D@std@@V?$allocator@D@2@@std@@V?$allocator@V?$basic_string@DU?$char_traits@D@std@@V?$allocator@D@2@@std@@@2@@std@@YAPAV?$basic_string@DU?$char_traits@D@std@@V?$allocator@D@2@@0@QAV10@0PAV10@AAV?$allocator@V?$basic_string@DU?$char_traits@D@std@@V?$allocator@D@2@@std@@@0@@Z ; std::_Uninitialized_move<std::basic_string<char,std::char_traits<char>,std::allocator<char> > *,std::allocator<std::basic_string<char,std::char_traits<char>,std::allocator<char> > > >
  0019e	83 c4 10	 add	 esp, 16			; 00000010H

; 754  :         } else { // provide basic guarantee

  001a1	eb 5f		 jmp	 SHORT $LN5@Emplace_re
$LN4@Emplace_re:

; 755  :             _Umove(_Myfirst, _Whereptr, _Newvec);

  001a3	8b 45 5c	 mov	 eax, DWORD PTR __Myfirst$[ebp]
  001a6	8b 00		 mov	 eax, DWORD PTR [eax]
  001a8	89 45 d4	 mov	 DWORD PTR __First$[ebp], eax

; 1733 :         return _Mypair._Get_first();

  001ab	8b 45 68	 mov	 eax, DWORD PTR _this$[ebp]
; File C:\Program Files (x86)\Microsoft Visual Studio\2019\Community\VC\Tools\MSVC\14.28.29333\include\xmemory

; 1347 :         return *this;

  001ae	89 45 dc	 mov	 DWORD PTR $T7[ebp], eax
; File C:\Program Files (x86)\Microsoft Visual Studio\2019\Community\VC\Tools\MSVC\14.28.29333\include\vector

; 1733 :         return _Mypair._Get_first();

  001b1	8b 45 dc	 mov	 eax, DWORD PTR $T7[ebp]
  001b4	89 45 d8	 mov	 DWORD PTR $T6[ebp], eax

; 1592 :         return _Uninitialized_move(_First, _Last, _Dest, _Getal());

  001b7	ff 75 d8	 push	 DWORD PTR $T6[ebp]
  001ba	ff 75 6c	 push	 DWORD PTR __Newvec$[ebp]
  001bd	ff 75 78	 push	 DWORD PTR __Whereptr$[ebp]
  001c0	ff 75 d4	 push	 DWORD PTR __First$[ebp]
  001c3	e8 00 00 00 00	 call	 ??$_Uninitialized_move@PAV?$basic_string@DU?$char_traits@D@std@@V?$allocator@D@2@@std@@V?$allocator@V?$basic_string@DU?$char_traits@D@std@@V?$allocator@D@2@@std@@@2@@std@@YAPAV?$basic_string@DU?$char_traits@D@std@@V?$allocator@D@2@@0@QAV10@0PAV10@AAV?$allocator@V?$basic_string@DU?$char_traits@D@std@@V?$allocator@D@2@@std@@@0@@Z ; std::_Uninitialized_move<std::basic_string<char,std::char_traits<char>,std::allocator<char> > *,std::allocator<std::basic_string<char,std::char_traits<char>,std::allocator<char> > > >
  001c8	83 c4 10	 add	 esp, 16			; 00000010H

; 756  :             _Constructed_first = _Newvec;

  001cb	8b 45 6c	 mov	 eax, DWORD PTR __Newvec$[ebp]
  001ce	89 45 48	 mov	 DWORD PTR __Constructed_first$[ebp], eax

; 757  :             _Umove(_Whereptr, _Mylast, _Newvec + _Whereoff + 1);

  001d1	8b 45 58	 mov	 eax, DWORD PTR __Mylast$[ebp]
  001d4	8b 00		 mov	 eax, DWORD PTR [eax]
  001d6	89 45 c8	 mov	 DWORD PTR __Last$[ebp], eax

; 1733 :         return _Mypair._Get_first();

  001d9	8b 45 68	 mov	 eax, DWORD PTR _this$[ebp]
; File C:\Program Files (x86)\Microsoft Visual Studio\2019\Community\VC\Tools\MSVC\14.28.29333\include\xmemory

; 1347 :         return *this;

  001dc	89 45 d0	 mov	 DWORD PTR $T5[ebp], eax
; File C:\Program Files (x86)\Microsoft Visual Studio\2019\Community\VC\Tools\MSVC\14.28.29333\include\vector

; 1733 :         return _Mypair._Get_first();

  001df	8b 45 d0	 mov	 eax, DWORD PTR $T5[ebp]
  001e2	89 45 cc	 mov	 DWORD PTR $T4[ebp], eax

; 1592 :         return _Uninitialized_move(_First, _Last, _Dest, _Getal());

  001e5	ff 75 cc	 push	 DWORD PTR $T4[ebp]

; 757  :             _Umove(_Whereptr, _Mylast, _Newvec + _Whereoff + 1);

  001e8	6b 45 60 18	 imul	 eax, DWORD PTR __Whereoff$[ebp], 24
  001ec	8b 4d 6c	 mov	 ecx, DWORD PTR __Newvec$[ebp]
  001ef	8d 44 01 18	 lea	 eax, DWORD PTR [ecx+eax+24]

; 1592 :         return _Uninitialized_move(_First, _Last, _Dest, _Getal());

  001f3	50		 push	 eax
  001f4	ff 75 c8	 push	 DWORD PTR __Last$[ebp]
  001f7	ff 75 78	 push	 DWORD PTR __Whereptr$[ebp]
  001fa	e8 00 00 00 00	 call	 ??$_Uninitialized_move@PAV?$basic_string@DU?$char_traits@D@std@@V?$allocator@D@2@@std@@V?$allocator@V?$basic_string@DU?$char_traits@D@std@@V?$allocator@D@2@@std@@@2@@std@@YAPAV?$basic_string@DU?$char_traits@D@std@@V?$allocator@D@2@@0@QAV10@0PAV10@AAV?$allocator@V?$basic_string@DU?$char_traits@D@std@@V?$allocator@D@2@@std@@@0@@Z ; std::_Uninitialized_move<std::basic_string<char,std::char_traits<char>,std::allocator<char> > *,std::allocator<std::basic_string<char,std::char_traits<char>,std::allocator<char> > > >
  001ff	83 c4 10	 add	 esp, 16			; 00000010H
$LN5@Emplace_re:

; 757  :             _Umove(_Whereptr, _Mylast, _Newvec + _Whereoff + 1);

  00202	eb 2b		 jmp	 SHORT $LN7@Emplace_re
__catch$??$_Emplace_reallocate@ABV?$basic_string@DU?$char_traits@D@std@@V?$allocator@D@2@@std@@@?$vector@V?$basic_string@DU?$char_traits@D@std@@V?$allocator@D@2@@std@@V?$allocator@V?$basic_string@DU?$char_traits@D@std@@V?$allocator@D@2@@std@@@2@@std@@QAEPAV?$basic_string@DU?$char_traits@D@std@@V?$allocator@D@2@@1@QAV21@ABV21@@Z$0:

; 758  :         }
; 759  :         _CATCH_ALL
; 760  :         _Destroy(_Constructed_first, _Constructed_last);

  00204	ff 75 30	 push	 DWORD PTR __Constructed_last$[ebp]
  00207	ff 75 48	 push	 DWORD PTR __Constructed_first$[ebp]
  0020a	8b 4d 68	 mov	 ecx, DWORD PTR _this$[ebp]
  0020d	e8 00 00 00 00	 call	 ?_Destroy@?$vector@V?$basic_string@DU?$char_traits@D@std@@V?$allocator@D@2@@std@@V?$allocator@V?$basic_string@DU?$char_traits@D@std@@V?$allocator@D@2@@std@@@2@@std@@AAEXPAV?$basic_string@DU?$char_traits@D@std@@V?$allocator@D@2@@2@0@Z ; std::vector<std::basic_string<char,std::char_traits<char>,std::allocator<char> >,std::allocator<std::basic_string<char,std::char_traits<char>,std::allocator<char> > > >::_Destroy

; 761  :         _Al.deallocate(_Newvec, _Newcapacity);

  00212	ff 75 54	 push	 DWORD PTR __Newcapacity$[ebp]
  00215	ff 75 6c	 push	 DWORD PTR __Newvec$[ebp]
  00218	8b 4d c4	 mov	 ecx, DWORD PTR __Al$[ebp]
  0021b	e8 00 00 00 00	 call	 ?deallocate@?$allocator@V?$basic_string@DU?$char_traits@D@std@@V?$allocator@D@2@@std@@@std@@QAEXQAV?$basic_string@DU?$char_traits@D@std@@V?$allocator@D@2@@2@I@Z ; std::allocator<std::basic_string<char,std::char_traits<char>,std::allocator<char> > >::deallocate

; 762  :         _RERAISE;

  00220	6a 00		 push	 0
  00222	6a 00		 push	 0
  00224	e8 00 00 00 00	 call	 __CxxThrowException@8

; 763  :         _CATCH_END

  00229	b8 00 00 00 00	 mov	 eax, $LN10@Emplace_re
  0022e	c3		 ret	 0
$LN7@Emplace_re:
  0022f	83 4d fc ff	 or	 DWORD PTR __$EHRec$[ebp+12], -1
  00233	eb 04		 jmp	 SHORT __tryend$??$_Emplace_reallocate@ABV?$basic_string@DU?$char_traits@D@std@@V?$allocator@D@2@@std@@@?$vector@V?$basic_string@DU?$char_traits@D@std@@V?$allocator@D@2@@std@@V?$allocator@V?$basic_string@DU?$char_traits@D@std@@V?$allocator@D@2@@std@@@2@@std@@QAEPAV?$basic_string@DU?$char_traits@D@std@@V?$allocator@D@2@@1@QAV21@ABV21@@Z$1
$LN10@Emplace_re:
; File C:\Program Files (x86)\Microsoft Visual Studio\2019\Community\VC\Tools\MSVC\14.28.29333\include\xmemory
  00235	83 4d fc ff	 or	 DWORD PTR __$EHRec$[ebp+12], -1
__tryend$??$_Emplace_reallocate@ABV?$basic_string@DU?$char_traits@D@std@@V?$allocator@D@2@@std@@@?$vector@V?$basic_string@DU?$char_traits@D@std@@V?$allocator@D@2@@std@@V?$allocator@V?$basic_string@DU?$char_traits@D@std@@V?$allocator@D@2@@std@@@2@@std@@QAEPAV?$basic_string@DU?$char_traits@D@std@@V?$allocator@D@2@@1@QAV21@ABV21@@Z$1:
; File C:\Program Files (x86)\Microsoft Visual Studio\2019\Community\VC\Tools\MSVC\14.28.29333\include\vector

; 764  : 
; 765  :         _Change_array(_Newvec, _Newsize, _Newcapacity);

  00239	ff 75 54	 push	 DWORD PTR __Newcapacity$[ebp]
  0023c	ff 75 2c	 push	 DWORD PTR __Newsize$[ebp]
  0023f	ff 75 6c	 push	 DWORD PTR __Newvec$[ebp]
  00242	8b 4d 68	 mov	 ecx, DWORD PTR _this$[ebp]
  00245	e8 00 00 00 00	 call	 ?_Change_array@?$vector@V?$basic_string@DU?$char_traits@D@std@@V?$allocator@D@2@@std@@V?$allocator@V?$basic_string@DU?$char_traits@D@std@@V?$allocator@D@2@@std@@@2@@std@@AAEXQAV?$basic_string@DU?$char_traits@D@std@@V?$allocator@D@2@@2@II@Z ; std::vector<std::basic_string<char,std::char_traits<char>,std::allocator<char> >,std::allocator<std::basic_string<char,std::char_traits<char>,std::allocator<char> > > >::_Change_array

; 766  :         return _Newvec + _Whereoff;

  0024a	6b 45 60 18	 imul	 eax, DWORD PTR __Whereoff$[ebp], 24
  0024e	03 45 6c	 add	 eax, DWORD PTR __Newvec$[ebp]
$LN70@Emplace_re:

; 767  :     }

  00251	8b 4d f4	 mov	 ecx, DWORD PTR __$EHRec$[ebp+4]
  00254	64 89 0d 00 00
	00 00		 mov	 DWORD PTR fs:0, ecx
  0025b	59		 pop	 ecx
  0025c	5f		 pop	 edi
  0025d	5e		 pop	 esi
  0025e	5b		 pop	 ebx
  0025f	83 c5 70	 add	 ebp, 112		; 00000070H
  00262	c9		 leave
  00263	c2 08 00	 ret	 8
  00266	cc		 int	 3
  00267	cc		 int	 3
  00268	cc		 int	 3
  00269	cc		 int	 3
  0026a	cc		 int	 3
_TEXT	ENDS
;	COMDAT text$x
text$x	SEGMENT
__ehhandler$??$_Emplace_reallocate@ABV?$basic_string@DU?$char_traits@D@std@@V?$allocator@D@2@@std@@@?$vector@V?$basic_string@DU?$char_traits@D@std@@V?$allocator@D@2@@std@@V?$allocator@V?$basic_string@DU?$char_traits@D@std@@V?$allocator@D@2@@std@@@2@@std@@QAEPAV?$basic_string@DU?$char_traits@D@std@@V?$allocator@D@2@@1@QAV21@ABV21@@Z:
  00000	90		 npad	 1
  00001	90		 npad	 1
  00002	8b 54 24 08	 mov	 edx, DWORD PTR [esp+8]
  00006	8d 42 0c	 lea	 eax, DWORD PTR [edx+12]
  00009	8b 4a b8	 mov	 ecx, DWORD PTR [edx-72]
  0000c	33 c8		 xor	 ecx, eax
  0000e	e8 00 00 00 00	 call	 @__security_check_cookie@4
  00013	b8 00 00 00 00	 mov	 eax, OFFSET __ehfuncinfo$??$_Emplace_reallocate@ABV?$basic_string@DU?$char_traits@D@std@@V?$allocator@D@2@@std@@@?$vector@V?$basic_string@DU?$char_traits@D@std@@V?$allocator@D@2@@std@@V?$allocator@V?$basic_string@DU?$char_traits@D@std@@V?$allocator@D@2@@std@@@2@@std@@QAEPAV?$basic_string@DU?$char_traits@D@std@@V?$allocator@D@2@@1@QAV21@ABV21@@Z
  00018	e9 00 00 00 00	 jmp	 ___CxxFrameHandler3
text$x	ENDS
??$_Emplace_reallocate@ABV?$basic_string@DU?$char_traits@D@std@@V?$allocator@D@2@@std@@@?$vector@V?$basic_string@DU?$char_traits@D@std@@V?$allocator@D@2@@std@@V?$allocator@V?$basic_string@DU?$char_traits@D@std@@V?$allocator@D@2@@std@@@2@@std@@QAEPAV?$basic_string@DU?$char_traits@D@std@@V?$allocator@D@2@@1@QAV21@ABV21@@Z ENDP ; std::vector<std::basic_string<char,std::char_traits<char>,std::allocator<char> >,std::allocator<std::basic_string<char,std::char_traits<char>,std::allocator<char> > > >::_Emplace_reallocate<std::basic_string<char,std::char_traits<char>,std::allocator<char> > const &>
; Function compile flags: /Odspy
; File C:\Program Files (x86)\Microsoft Visual Studio\2019\Community\VC\Tools\MSVC\14.28.29333\include\vector
; File C:\Program Files (x86)\Microsoft Visual Studio\2019\Community\VC\Tools\MSVC\14.28.29333\include\type_traits
; File C:\Program Files (x86)\Microsoft Visual Studio\2019\Community\VC\Tools\MSVC\14.28.29333\include\vector
; File C:\Program Files (x86)\Microsoft Visual Studio\2019\Community\VC\Tools\MSVC\14.28.29333\include\xstddef
; File C:\Program Files (x86)\Microsoft Visual Studio\2019\Community\VC\Tools\MSVC\14.28.29333\include\vector
; File C:\Program Files (x86)\Microsoft Visual Studio\2019\Community\VC\Tools\MSVC\14.28.29333\include\xmemory
; File C:\Program Files (x86)\Microsoft Visual Studio\2019\Community\VC\Tools\MSVC\14.28.29333\include\vector
; File C:\Program Files (x86)\Microsoft Visual Studio\2019\Community\VC\Tools\MSVC\14.28.29333\include\vcruntime_new.h
; File C:\Program Files (x86)\Microsoft Visual Studio\2019\Community\VC\Tools\MSVC\14.28.29333\include\type_traits
; File C:\Program Files (x86)\Microsoft Visual Studio\2019\Community\VC\Tools\MSVC\14.28.29333\include\xmemory
; File C:\Program Files (x86)\Microsoft Visual Studio\2019\Community\VC\Tools\MSVC\14.28.29333\include\vector
;	COMDAT ??$_Emplace_back_with_unused_capacity@ABV?$basic_string@DU?$char_traits@D@std@@V?$allocator@D@2@@std@@@?$vector@V?$basic_string@DU?$char_traits@D@std@@V?$allocator@D@2@@std@@V?$allocator@V?$basic_string@DU?$char_traits@D@std@@V?$allocator@D@2@@std@@@2@@std@@AAEXABV?$basic_string@DU?$char_traits@D@std@@V?$allocator@D@2@@1@@Z
_TEXT	SEGMENT
__Result$ = -44						; size = 4
$T1 = -40						; size = 4
$T2 = -36						; size = 4
$T3 = -32						; size = 4
$T4 = -28						; size = 4
$T5 = -24						; size = 4
$T6 = -20						; size = 4
__Ptr$ = -16						; size = 4
__My_data$ = -12					; size = 4
_this$ = -8						; size = 4
__Mylast$ = -4						; size = 4
_<_Val_0>$ = 8						; size = 4
??$_Emplace_back_with_unused_capacity@ABV?$basic_string@DU?$char_traits@D@std@@V?$allocator@D@2@@std@@@?$vector@V?$basic_string@DU?$char_traits@D@std@@V?$allocator@D@2@@std@@V?$allocator@V?$basic_string@DU?$char_traits@D@std@@V?$allocator@D@2@@std@@@2@@std@@AAEXABV?$basic_string@DU?$char_traits@D@std@@V?$allocator@D@2@@1@@Z PROC ; std::vector<std::basic_string<char,std::char_traits<char>,std::allocator<char> >,std::allocator<std::basic_string<char,std::char_traits<char>,std::allocator<char> > > >::_Emplace_back_with_unused_capacity<std::basic_string<char,std::char_traits<char>,std::allocator<char> > const &>, COMDAT
; _this$ = ecx

; 682  :     decltype(auto) _Emplace_back_with_unused_capacity(_Valty&&... _Val) {

  00000	55		 push	 ebp
  00001	8b ec		 mov	 ebp, esp
  00003	83 ec 2c	 sub	 esp, 44			; 0000002cH
  00006	89 4d f8	 mov	 DWORD PTR _this$[ebp], ecx

; 683  :         // insert by perfectly forwarding into element at end, provide strong guarantee
; 684  :         auto& _My_data   = _Mypair._Myval2;

  00009	8b 45 f8	 mov	 eax, DWORD PTR _this$[ebp]
  0000c	89 45 f4	 mov	 DWORD PTR __My_data$[ebp], eax

; 685  :         pointer& _Mylast = _My_data._Mylast;

  0000f	8b 45 f4	 mov	 eax, DWORD PTR __My_data$[ebp]
  00012	83 c0 04	 add	 eax, 4
  00015	89 45 fc	 mov	 DWORD PTR __Mylast$[ebp], eax
; File C:\Program Files (x86)\Microsoft Visual Studio\2019\Community\VC\Tools\MSVC\14.28.29333\include\type_traits

; 1443 :     return static_cast<_Ty&&>(_Arg);

  00018	8b 45 08	 mov	 eax, DWORD PTR _<_Val_0>$[ebp]
  0001b	89 45 e4	 mov	 DWORD PTR $T4[ebp], eax
; File C:\Program Files (x86)\Microsoft Visual Studio\2019\Community\VC\Tools\MSVC\14.28.29333\include\vector

; 687  :         _Alty_traits::construct(_Getal(), _Unfancy(_Mylast), _STD forward<_Valty>(_Val)...);

  0001e	8b 45 fc	 mov	 eax, DWORD PTR __Mylast$[ebp]
  00021	8b 00		 mov	 eax, DWORD PTR [eax]
  00023	89 45 f0	 mov	 DWORD PTR __Ptr$[ebp], eax
; File C:\Program Files (x86)\Microsoft Visual Studio\2019\Community\VC\Tools\MSVC\14.28.29333\include\xstddef

; 289  :     return _Ptr;

  00026	8b 45 f0	 mov	 eax, DWORD PTR __Ptr$[ebp]
  00029	89 45 e8	 mov	 DWORD PTR $T5[ebp], eax
; File C:\Program Files (x86)\Microsoft Visual Studio\2019\Community\VC\Tools\MSVC\14.28.29333\include\vector

; 1733 :         return _Mypair._Get_first();

  0002c	8b 45 f8	 mov	 eax, DWORD PTR _this$[ebp]
; File C:\Program Files (x86)\Microsoft Visual Studio\2019\Community\VC\Tools\MSVC\14.28.29333\include\xmemory

; 1347 :         return *this;

  0002f	89 45 ec	 mov	 DWORD PTR $T6[ebp], eax
; File C:\Program Files (x86)\Microsoft Visual Studio\2019\Community\VC\Tools\MSVC\14.28.29333\include\vector

; 1733 :         return _Mypair._Get_first();

  00032	8b 45 ec	 mov	 eax, DWORD PTR $T6[ebp]
  00035	89 45 d8	 mov	 DWORD PTR $T1[ebp], eax
; File C:\Program Files (x86)\Microsoft Visual Studio\2019\Community\VC\Tools\MSVC\14.28.29333\include\vcruntime_new.h

; 169  :         return _Where;

  00038	8b 45 e8	 mov	 eax, DWORD PTR $T5[ebp]
  0003b	89 45 dc	 mov	 DWORD PTR $T2[ebp], eax
; File C:\Program Files (x86)\Microsoft Visual Studio\2019\Community\VC\Tools\MSVC\14.28.29333\include\type_traits

; 1443 :     return static_cast<_Ty&&>(_Arg);

  0003e	8b 45 e4	 mov	 eax, DWORD PTR $T4[ebp]
  00041	89 45 e0	 mov	 DWORD PTR $T3[ebp], eax
; File C:\Program Files (x86)\Microsoft Visual Studio\2019\Community\VC\Tools\MSVC\14.28.29333\include\xmemory

; 701  :         ::new (const_cast<void*>(static_cast<const volatile void*>(_Ptr))) _Objty(_STD forward<_Types>(_Args)...);

  00044	ff 75 e0	 push	 DWORD PTR $T3[ebp]
  00047	8b 4d dc	 mov	 ecx, DWORD PTR $T2[ebp]
  0004a	e8 00 00 00 00	 call	 ??0?$basic_string@DU?$char_traits@D@std@@V?$allocator@D@2@@std@@QAE@ABV01@@Z ; std::basic_string<char,std::char_traits<char>,std::allocator<char> >::basic_string<char,std::char_traits<char>,std::allocator<char> >
; File C:\Program Files (x86)\Microsoft Visual Studio\2019\Community\VC\Tools\MSVC\14.28.29333\include\vector

; 689  :         _Ty& _Result = *_Mylast;

  0004f	8b 45 fc	 mov	 eax, DWORD PTR __Mylast$[ebp]
  00052	8b 00		 mov	 eax, DWORD PTR [eax]
  00054	89 45 d4	 mov	 DWORD PTR __Result$[ebp], eax

; 690  :         ++_Mylast;

  00057	8b 45 fc	 mov	 eax, DWORD PTR __Mylast$[ebp]
  0005a	8b 00		 mov	 eax, DWORD PTR [eax]
  0005c	83 c0 18	 add	 eax, 24			; 00000018H
  0005f	8b 4d fc	 mov	 ecx, DWORD PTR __Mylast$[ebp]
  00062	89 01		 mov	 DWORD PTR [ecx], eax

; 691  : #if _HAS_CXX17
; 692  :         return _Result;
; 693  : #else // ^^^ _HAS_CXX17 ^^^ // vvv !_HAS_CXX17 vvv
; 694  :         (void) _Result;
; 695  : #endif // _HAS_CXX17
; 696  :     }

  00064	c9		 leave
  00065	c2 04 00	 ret	 4
??$_Emplace_back_with_unused_capacity@ABV?$basic_string@DU?$char_traits@D@std@@V?$allocator@D@2@@std@@@?$vector@V?$basic_string@DU?$char_traits@D@std@@V?$allocator@D@2@@std@@V?$allocator@V?$basic_string@DU?$char_traits@D@std@@V?$allocator@D@2@@std@@@2@@std@@AAEXABV?$basic_string@DU?$char_traits@D@std@@V?$allocator@D@2@@1@@Z ENDP ; std::vector<std::basic_string<char,std::char_traits<char>,std::allocator<char> >,std::allocator<std::basic_string<char,std::char_traits<char>,std::allocator<char> > > >::_Emplace_back_with_unused_capacity<std::basic_string<char,std::char_traits<char>,std::allocator<char> > const &>
_TEXT	ENDS
; Function compile flags: /Odspy
; File C:\Program Files (x86)\Microsoft Visual Studio\2019\Community\VC\Tools\MSVC\14.28.29333\include\vector
; File C:\Program Files (x86)\Microsoft Visual Studio\2019\Community\VC\Tools\MSVC\14.28.29333\include\type_traits
; File C:\Program Files (x86)\Microsoft Visual Studio\2019\Community\VC\Tools\MSVC\14.28.29333\include\vector
; File C:\Program Files (x86)\Microsoft Visual Studio\2019\Community\VC\Tools\MSVC\14.28.29333\include\type_traits
; File C:\Program Files (x86)\Microsoft Visual Studio\2019\Community\VC\Tools\MSVC\14.28.29333\include\vector
;	COMDAT ??$emplace_back@ABV?$basic_string@DU?$char_traits@D@std@@V?$allocator@D@2@@std@@@?$vector@V?$basic_string@DU?$char_traits@D@std@@V?$allocator@D@2@@std@@V?$allocator@V?$basic_string@DU?$char_traits@D@std@@V?$allocator@D@2@@std@@@2@@std@@QAEXABV?$basic_string@DU?$char_traits@D@std@@V?$allocator@D@2@@1@@Z
_TEXT	SEGMENT
__Result$ = -24						; size = 4
$T1 = -20						; size = 4
$T2 = -16						; size = 4
__Mylast$ = -12						; size = 4
__My_data$ = -8						; size = 4
_this$ = -4						; size = 4
_<_Val_0>$ = 8						; size = 4
??$emplace_back@ABV?$basic_string@DU?$char_traits@D@std@@V?$allocator@D@2@@std@@@?$vector@V?$basic_string@DU?$char_traits@D@std@@V?$allocator@D@2@@std@@V?$allocator@V?$basic_string@DU?$char_traits@D@std@@V?$allocator@D@2@@std@@@2@@std@@QAEXABV?$basic_string@DU?$char_traits@D@std@@V?$allocator@D@2@@1@@Z PROC ; std::vector<std::basic_string<char,std::char_traits<char>,std::allocator<char> >,std::allocator<std::basic_string<char,std::char_traits<char>,std::allocator<char> > > >::emplace_back<std::basic_string<char,std::char_traits<char>,std::allocator<char> > const &>, COMDAT
; _this$ = ecx

; 700  :     decltype(auto) emplace_back(_Valty&&... _Val) {

  00000	55		 push	 ebp
  00001	8b ec		 mov	 ebp, esp
  00003	83 ec 18	 sub	 esp, 24			; 00000018H
  00006	89 4d fc	 mov	 DWORD PTR _this$[ebp], ecx

; 701  :         // insert by perfectly forwarding into element at end, provide strong guarantee
; 702  :         auto& _My_data   = _Mypair._Myval2;

  00009	8b 45 fc	 mov	 eax, DWORD PTR _this$[ebp]
  0000c	89 45 f8	 mov	 DWORD PTR __My_data$[ebp], eax

; 703  :         pointer& _Mylast = _My_data._Mylast;

  0000f	8b 45 f8	 mov	 eax, DWORD PTR __My_data$[ebp]
  00012	83 c0 04	 add	 eax, 4
  00015	89 45 f4	 mov	 DWORD PTR __Mylast$[ebp], eax

; 704  :         if (_Mylast != _My_data._Myend) {

  00018	8b 45 f4	 mov	 eax, DWORD PTR __Mylast$[ebp]
  0001b	8b 4d f8	 mov	 ecx, DWORD PTR __My_data$[ebp]
  0001e	8b 00		 mov	 eax, DWORD PTR [eax]
  00020	3b 41 08	 cmp	 eax, DWORD PTR [ecx+8]
  00023	74 13		 je	 SHORT $LN2@emplace_ba
; File C:\Program Files (x86)\Microsoft Visual Studio\2019\Community\VC\Tools\MSVC\14.28.29333\include\type_traits

; 1443 :     return static_cast<_Ty&&>(_Arg);

  00025	8b 45 08	 mov	 eax, DWORD PTR _<_Val_0>$[ebp]
  00028	89 45 f0	 mov	 DWORD PTR $T2[ebp], eax
; File C:\Program Files (x86)\Microsoft Visual Studio\2019\Community\VC\Tools\MSVC\14.28.29333\include\vector

; 705  :             return _Emplace_back_with_unused_capacity(_STD forward<_Valty>(_Val)...);

  0002b	ff 75 f0	 push	 DWORD PTR $T2[ebp]
  0002e	8b 4d fc	 mov	 ecx, DWORD PTR _this$[ebp]
  00031	e8 00 00 00 00	 call	 ??$_Emplace_back_with_unused_capacity@ABV?$basic_string@DU?$char_traits@D@std@@V?$allocator@D@2@@std@@@?$vector@V?$basic_string@DU?$char_traits@D@std@@V?$allocator@D@2@@std@@V?$allocator@V?$basic_string@DU?$char_traits@D@std@@V?$allocator@D@2@@std@@@2@@std@@AAEXABV?$basic_string@DU?$char_traits@D@std@@V?$allocator@D@2@@1@@Z ; std::vector<std::basic_string<char,std::char_traits<char>,std::allocator<char> >,std::allocator<std::basic_string<char,std::char_traits<char>,std::allocator<char> > > >::_Emplace_back_with_unused_capacity<std::basic_string<char,std::char_traits<char>,std::allocator<char> > const &>
  00036	eb 19		 jmp	 SHORT $LN1@emplace_ba
$LN2@emplace_ba:
; File C:\Program Files (x86)\Microsoft Visual Studio\2019\Community\VC\Tools\MSVC\14.28.29333\include\type_traits

; 1443 :     return static_cast<_Ty&&>(_Arg);

  00038	8b 45 08	 mov	 eax, DWORD PTR _<_Val_0>$[ebp]
  0003b	89 45 ec	 mov	 DWORD PTR $T1[ebp], eax
; File C:\Program Files (x86)\Microsoft Visual Studio\2019\Community\VC\Tools\MSVC\14.28.29333\include\vector

; 708  :         _Ty& _Result = *_Emplace_reallocate(_Mylast, _STD forward<_Valty>(_Val)...);

  0003e	ff 75 ec	 push	 DWORD PTR $T1[ebp]
  00041	8b 45 f4	 mov	 eax, DWORD PTR __Mylast$[ebp]
  00044	ff 30		 push	 DWORD PTR [eax]
  00046	8b 4d fc	 mov	 ecx, DWORD PTR _this$[ebp]
  00049	e8 00 00 00 00	 call	 ??$_Emplace_reallocate@ABV?$basic_string@DU?$char_traits@D@std@@V?$allocator@D@2@@std@@@?$vector@V?$basic_string@DU?$char_traits@D@std@@V?$allocator@D@2@@std@@V?$allocator@V?$basic_string@DU?$char_traits@D@std@@V?$allocator@D@2@@std@@@2@@std@@QAEPAV?$basic_string@DU?$char_traits@D@std@@V?$allocator@D@2@@1@QAV21@ABV21@@Z ; std::vector<std::basic_string<char,std::char_traits<char>,std::allocator<char> >,std::allocator<std::basic_string<char,std::char_traits<char>,std::allocator<char> > > >::_Emplace_reallocate<std::basic_string<char,std::char_traits<char>,std::allocator<char> > const &>
  0004e	89 45 e8	 mov	 DWORD PTR __Result$[ebp], eax
$LN1@emplace_ba:

; 709  : #if _HAS_CXX17
; 710  :         return _Result;
; 711  : #else // ^^^ _HAS_CXX17 ^^^ // vvv !_HAS_CXX17 vvv
; 712  :         (void) _Result;
; 713  : #endif // _HAS_CXX17
; 714  :     }

  00051	c9		 leave
  00052	c2 04 00	 ret	 4
??$emplace_back@ABV?$basic_string@DU?$char_traits@D@std@@V?$allocator@D@2@@std@@@?$vector@V?$basic_string@DU?$char_traits@D@std@@V?$allocator@D@2@@std@@V?$allocator@V?$basic_string@DU?$char_traits@D@std@@V?$allocator@D@2@@std@@@2@@std@@QAEXABV?$basic_string@DU?$char_traits@D@std@@V?$allocator@D@2@@1@@Z ENDP ; std::vector<std::basic_string<char,std::char_traits<char>,std::allocator<char> >,std::allocator<std::basic_string<char,std::char_traits<char>,std::allocator<char> > > >::emplace_back<std::basic_string<char,std::char_traits<char>,std::allocator<char> > const &>
_TEXT	ENDS
; Function compile flags: /Odspy
; File C:\Program Files (x86)\Microsoft Visual Studio\2019\Community\VC\Tools\MSVC\14.28.29333\include\xutility
; File C:\Program Files (x86)\Microsoft Visual Studio\2019\Community\VC\Tools\MSVC\14.28.29333\include\type_traits
; File C:\Program Files (x86)\Microsoft Visual Studio\2019\Community\VC\Tools\MSVC\14.28.29333\include\xstddef
; File C:\Program Files (x86)\Microsoft Visual Studio\2019\Community\VC\Tools\MSVC\14.28.29333\include\xstring
; File C:\Program Files (x86)\Microsoft Visual Studio\2019\Community\VC\Tools\MSVC\14.28.29333\include\xutility
;	COMDAT ??$_Move_unchecked@PAV?$basic_string@DU?$char_traits@D@std@@V?$allocator@D@2@@std@@PAV12@@std@@YAPAV?$basic_string@DU?$char_traits@D@std@@V?$allocator@D@2@@0@PAV10@00@Z
_TEXT	SEGMENT
$T1 = -12						; size = 1
$T2 = -8						; size = 4
$T3 = -4						; size = 4
__First$ = 8						; size = 4
__Last$ = 12						; size = 4
__Dest$ = 16						; size = 4
??$_Move_unchecked@PAV?$basic_string@DU?$char_traits@D@std@@V?$allocator@D@2@@std@@PAV12@@std@@YAPAV?$basic_string@DU?$char_traits@D@std@@V?$allocator@D@2@@0@PAV10@00@Z PROC ; std::_Move_unchecked<std::basic_string<char,std::char_traits<char>,std::allocator<char> > *,std::basic_string<char,std::char_traits<char>,std::allocator<char> > *>, COMDAT

; 4620 : _CONSTEXPR20 _OutIt _Move_unchecked(_InIt _First, _InIt _Last, _OutIt _Dest) {

  00000	55		 push	 ebp
  00001	8b ec		 mov	 ebp, esp
  00003	83 ec 0c	 sub	 esp, 12			; 0000000cH

; 4621 :     // move [_First, _Last) to [_Dest, ...)
; 4622 :     // note: _Move_unchecked has callers other than the move family
; 4623 :     if constexpr (_Ptr_move_cat<_InIt, _OutIt>::_Trivially_copyable) {
; 4624 : #ifdef __cpp_lib_is_constant_evaluated
; 4625 :         if (!_STD is_constant_evaluated())
; 4626 : #endif // __cpp_lib_is_constant_evaluated
; 4627 :         {
; 4628 :             return _Copy_memmove(_First, _Last, _Dest);
; 4629 :         }
; 4630 :     }
; 4631 : 
; 4632 :     for (; _First != _Last; ++_Dest, (void) ++_First) {

  00006	eb 12		 jmp	 SHORT $LN4@Move_unche
$LN2@Move_unche:
  00008	8b 45 10	 mov	 eax, DWORD PTR __Dest$[ebp]
  0000b	83 c0 18	 add	 eax, 24			; 00000018H
  0000e	89 45 10	 mov	 DWORD PTR __Dest$[ebp], eax
  00011	8b 45 08	 mov	 eax, DWORD PTR __First$[ebp]
  00014	83 c0 18	 add	 eax, 24			; 00000018H
  00017	89 45 08	 mov	 DWORD PTR __First$[ebp], eax
$LN4@Move_unche:
  0001a	8b 45 08	 mov	 eax, DWORD PTR __First$[ebp]
  0001d	3b 45 0c	 cmp	 eax, DWORD PTR __Last$[ebp]
  00020	74 29		 je	 SHORT $LN3@Move_unche
; File C:\Program Files (x86)\Microsoft Visual Studio\2019\Community\VC\Tools\MSVC\14.28.29333\include\type_traits

; 1455 :     return static_cast<remove_reference_t<_Ty>&&>(_Arg);

  00022	8b 45 08	 mov	 eax, DWORD PTR __First$[ebp]
  00025	89 45 fc	 mov	 DWORD PTR $T3[ebp], eax
; File C:\Program Files (x86)\Microsoft Visual Studio\2019\Community\VC\Tools\MSVC\14.28.29333\include\xstddef

; 275  :     return __builtin_addressof(_Val);

  00028	8b 45 fc	 mov	 eax, DWORD PTR $T3[ebp]
  0002b	89 45 f8	 mov	 DWORD PTR $T2[ebp], eax
; File C:\Program Files (x86)\Microsoft Visual Studio\2019\Community\VC\Tools\MSVC\14.28.29333\include\xstring

; 2665 :         if (this != _STD addressof(_Right)) {

  0002e	8b 45 10	 mov	 eax, DWORD PTR __Dest$[ebp]
  00031	3b 45 f8	 cmp	 eax, DWORD PTR $T2[ebp]
  00034	74 13		 je	 SHORT $LN11@Move_unche

; 2666 :             _Move_assign(_Right, _Choose_pocma<_Alty>{});

  00036	33 c0		 xor	 eax, eax
  00038	88 45 f4	 mov	 BYTE PTR $T1[ebp], al
  0003b	ff 75 f4	 push	 DWORD PTR $T1[ebp]
  0003e	ff 75 fc	 push	 DWORD PTR $T3[ebp]
  00041	8b 4d 10	 mov	 ecx, DWORD PTR __Dest$[ebp]
  00044	e8 00 00 00 00	 call	 ?_Move_assign@?$basic_string@DU?$char_traits@D@std@@V?$allocator@D@2@@std@@AAEXAAV12@U_Equal_allocators@2@@Z ; std::basic_string<char,std::char_traits<char>,std::allocator<char> >::_Move_assign
$LN11@Move_unche:
; File C:\Program Files (x86)\Microsoft Visual Studio\2019\Community\VC\Tools\MSVC\14.28.29333\include\xutility

; 4634 :     }

  00049	eb bd		 jmp	 SHORT $LN2@Move_unche
$LN3@Move_unche:

; 4635 : 
; 4636 :     return _Dest;

  0004b	8b 45 10	 mov	 eax, DWORD PTR __Dest$[ebp]

; 4637 : }

  0004e	c9		 leave
  0004f	c3		 ret	 0
??$_Move_unchecked@PAV?$basic_string@DU?$char_traits@D@std@@V?$allocator@D@2@@std@@PAV12@@std@@YAPAV?$basic_string@DU?$char_traits@D@std@@V?$allocator@D@2@@0@PAV10@00@Z ENDP ; std::_Move_unchecked<std::basic_string<char,std::char_traits<char>,std::allocator<char> > *,std::basic_string<char,std::char_traits<char>,std::allocator<char> > *>
_TEXT	ENDS
; Function compile flags: /Odspy
; File C:\Program Files (x86)\Microsoft Visual Studio\2019\Community\VC\Tools\MSVC\14.28.29333\include\xstring
;	COMDAT ??_G?$pair@$$CBV?$basic_string@DU?$char_traits@D@std@@V?$allocator@D@2@@std@@V12@@std@@QAEPAXI@Z
_TEXT	SEGMENT
_this$ = -4						; size = 4
___flags$ = 8						; size = 4
??_G?$pair@$$CBV?$basic_string@DU?$char_traits@D@std@@V?$allocator@D@2@@std@@V12@@std@@QAEPAXI@Z PROC ; std::pair<std::basic_string<char,std::char_traits<char>,std::allocator<char> > const ,std::basic_string<char,std::char_traits<char>,std::allocator<char> > >::`scalar deleting destructor', COMDAT
; _this$ = ecx
  00000	55		 push	 ebp
  00001	8b ec		 mov	 ebp, esp
  00003	51		 push	 ecx
  00004	89 4d fc	 mov	 DWORD PTR _this$[ebp], ecx
  00007	8b 4d fc	 mov	 ecx, DWORD PTR _this$[ebp]
  0000a	83 c1 18	 add	 ecx, 24			; 00000018H

; 2801 :         _Tidy_deallocate();

  0000d	e8 00 00 00 00	 call	 ?_Tidy_deallocate@?$basic_string@DU?$char_traits@D@std@@V?$allocator@D@2@@std@@AAEXXZ ; std::basic_string<char,std::char_traits<char>,std::allocator<char> >::_Tidy_deallocate
  00012	8b 4d fc	 mov	 ecx, DWORD PTR _this$[ebp]
  00015	e8 00 00 00 00	 call	 ?_Tidy_deallocate@?$basic_string@DU?$char_traits@D@std@@V?$allocator@D@2@@std@@AAEXXZ ; std::basic_string<char,std::char_traits<char>,std::allocator<char> >::_Tidy_deallocate
  0001a	8b 45 08	 mov	 eax, DWORD PTR ___flags$[ebp]
  0001d	83 e0 01	 and	 eax, 1
  00020	74 0c		 je	 SHORT $LN2@scalar
  00022	6a 30		 push	 48			; 00000030H
  00024	ff 75 fc	 push	 DWORD PTR _this$[ebp]
  00027	e8 00 00 00 00	 call	 ??3@YAXPAXI@Z		; operator delete
  0002c	59		 pop	 ecx
  0002d	59		 pop	 ecx
$LN2@scalar:
  0002e	8b 45 fc	 mov	 eax, DWORD PTR _this$[ebp]
  00031	c9		 leave
  00032	c2 04 00	 ret	 4
??_G?$pair@$$CBV?$basic_string@DU?$char_traits@D@std@@V?$allocator@D@2@@std@@V12@@std@@QAEPAXI@Z ENDP ; std::pair<std::basic_string<char,std::char_traits<char>,std::allocator<char> > const ,std::basic_string<char,std::char_traits<char>,std::allocator<char> > >::`scalar deleting destructor'
_TEXT	ENDS
; Function compile flags: /Odspy
; File C:\Program Files (x86)\Microsoft Visual Studio\2019\Community\VC\Tools\MSVC\14.28.29333\include\map
; File C:\Program Files (x86)\Microsoft Visual Studio\2019\Community\VC\Tools\MSVC\14.28.29333\include\type_traits
; File C:\Program Files (x86)\Microsoft Visual Studio\2019\Community\VC\Tools\MSVC\14.28.29333\include\utility
; File C:\Program Files (x86)\Microsoft Visual Studio\2019\Community\VC\Tools\MSVC\14.28.29333\include\type_traits
; File C:\Program Files (x86)\Microsoft Visual Studio\2019\Community\VC\Tools\MSVC\14.28.29333\include\utility
; File C:\Program Files (x86)\Microsoft Visual Studio\2019\Community\VC\Tools\MSVC\14.28.29333\include\map
; File C:\Program Files (x86)\Microsoft Visual Studio\2019\Community\VC\Tools\MSVC\14.28.29333\include\xtree
; File C:\Program Files (x86)\Microsoft Visual Studio\2019\Community\VC\Tools\MSVC\14.28.29333\include\xstddef
; File C:\Program Files (x86)\Microsoft Visual Studio\2019\Community\VC\Tools\MSVC\14.28.29333\include\xtree
; File C:\Program Files (x86)\Microsoft Visual Studio\2019\Community\VC\Tools\MSVC\14.28.29333\include\tuple
; File C:\Program Files (x86)\Microsoft Visual Studio\2019\Community\VC\Tools\MSVC\14.28.29333\include\type_traits
; File C:\Program Files (x86)\Microsoft Visual Studio\2019\Community\VC\Tools\MSVC\14.28.29333\include\tuple
; File C:\Program Files (x86)\Microsoft Visual Studio\2019\Community\VC\Tools\MSVC\14.28.29333\include\type_traits
; File C:\Program Files (x86)\Microsoft Visual Studio\2019\Community\VC\Tools\MSVC\14.28.29333\include\tuple
; File C:\Program Files (x86)\Microsoft Visual Studio\2019\Community\VC\Tools\MSVC\14.28.29333\include\xtree
; File C:\Program Files (x86)\Microsoft Visual Studio\2019\Community\VC\Tools\MSVC\14.28.29333\include\xmemory
; File C:\Program Files (x86)\Microsoft Visual Studio\2019\Community\VC\Tools\MSVC\14.28.29333\include\xtree
; File C:\Program Files (x86)\Microsoft Visual Studio\2019\Community\VC\Tools\MSVC\14.28.29333\include\map
; File C:\Program Files (x86)\Microsoft Visual Studio\2019\Community\VC\Tools\MSVC\14.28.29333\include\xmemory
; File C:\Program Files (x86)\Microsoft Visual Studio\2019\Community\VC\Tools\MSVC\14.28.29333\include\utility
; File C:\Program Files (x86)\Microsoft Visual Studio\2019\Community\VC\Tools\MSVC\14.28.29333\include\xmemory
; File C:\Program Files (x86)\Microsoft Visual Studio\2019\Community\VC\Tools\MSVC\14.28.29333\include\map
; File C:\Program Files (x86)\Microsoft Visual Studio\2019\Community\VC\Tools\MSVC\14.28.29333\include\type_traits
; File C:\Program Files (x86)\Microsoft Visual Studio\2019\Community\VC\Tools\MSVC\14.28.29333\include\utility
; File C:\Program Files (x86)\Microsoft Visual Studio\2019\Community\VC\Tools\MSVC\14.28.29333\include\type_traits
; File C:\Program Files (x86)\Microsoft Visual Studio\2019\Community\VC\Tools\MSVC\14.28.29333\include\utility
; File C:\Program Files (x86)\Microsoft Visual Studio\2019\Community\VC\Tools\MSVC\14.28.29333\include\map
;	COMDAT ??$_Try_emplace@ABV?$basic_string@DU?$char_traits@D@std@@V?$allocator@D@2@@std@@$$V@?$map@V?$basic_string@DU?$char_traits@D@std@@V?$allocator@D@2@@std@@V12@U?$less@V?$basic_string@DU?$char_traits@D@std@@V?$allocator@D@2@@std@@@2@V?$allocator@U?$pair@$$CBV?$basic_string@DU?$char_traits@D@std@@V?$allocator@D@2@@std@@V12@@std@@@2@@std@@AAE?AU?$pair@PAU?$_Tree_node@U?$pair@$$CBV?$basic_string@DU?$char_traits@D@std@@V?$allocator@D@2@@std@@V12@@std@@PAX@std@@_N@1@ABV?$basic_string@DU?$char_traits@D@std@@V?$allocator@D@2@@1@@Z
_TEXT	SEGMENT
__Loc$ = -120						; size = 12
$T1 = -108						; size = 8
$T2 = -100						; size = 4
$T3 = -96						; size = 4
$T4 = -92						; size = 4
__Inserted$ = -88					; size = 4
$T5 = -84						; size = 4
__Old_val$6 = -80					; size = 4
$T7 = -76						; size = 4
$T8 = -72						; size = 4
$T9 = -68						; size = 4
$T10 = -64						; size = 4
$T11 = -60						; size = 4
$T12 = -56						; size = 4
$T13 = -52						; size = 4
$T14 = -48						; size = 4
_this$15 = -44						; size = 4
$T16 = -40						; size = 4
$T17 = -36						; size = 4
$T18 = -32						; size = 4
$T19 = -28						; size = 4
$T20 = -24						; size = 4
$T21 = -20						; size = 4
__Scary$ = -16						; size = 4
__Val$ = -12						; size = 4
_this$ = -8						; size = 4
$T22 = -3						; size = 1
$T23 = -2						; size = 1
$T24 = -1						; size = 1
___$ReturnUdt$ = 8					; size = 4
__Keyval$ = 12						; size = 4
??$_Try_emplace@ABV?$basic_string@DU?$char_traits@D@std@@V?$allocator@D@2@@std@@$$V@?$map@V?$basic_string@DU?$char_traits@D@std@@V?$allocator@D@2@@std@@V12@U?$less@V?$basic_string@DU?$char_traits@D@std@@V?$allocator@D@2@@std@@@2@V?$allocator@U?$pair@$$CBV?$basic_string@DU?$char_traits@D@std@@V?$allocator@D@2@@std@@V12@@std@@@2@@std@@AAE?AU?$pair@PAU?$_Tree_node@U?$pair@$$CBV?$basic_string@DU?$char_traits@D@std@@V?$allocator@D@2@@std@@V12@@std@@PAX@std@@_N@1@ABV?$basic_string@DU?$char_traits@D@std@@V?$allocator@D@2@@1@@Z PROC ; std::map<std::basic_string<char,std::char_traits<char>,std::allocator<char> >,std::basic_string<char,std::char_traits<char>,std::allocator<char> >,std::less<std::basic_string<char,std::char_traits<char>,std::allocator<char> > >,std::allocator<std::pair<std::basic_string<char,std::char_traits<char>,std::allocator<char> > const ,std::basic_string<char,std::char_traits<char>,std::allocator<char> > > > >::_Try_emplace<std::basic_string<char,std::char_traits<char>,std::allocator<char> > const &>, COMDAT
; _this$ = ecx

; 175  :     pair<_Nodeptr, bool> _Try_emplace(_Keyty&& _Keyval, _Mappedty&&... _Mapval) {

  00000	55		 push	 ebp
  00001	8b ec		 mov	 ebp, esp
  00003	83 ec 78	 sub	 esp, 120		; 00000078H
  00006	89 4d f8	 mov	 DWORD PTR _this$[ebp], ecx

; 176  :         const auto _Loc = _Mybase::_Find_lower_bound(_Keyval);

  00009	ff 75 0c	 push	 DWORD PTR __Keyval$[ebp]
  0000c	8d 45 88	 lea	 eax, DWORD PTR __Loc$[ebp]
  0000f	50		 push	 eax
  00010	8b 4d f8	 mov	 ecx, DWORD PTR _this$[ebp]
  00013	e8 00 00 00 00	 call	 ??$_Find_lower_bound@V?$basic_string@DU?$char_traits@D@std@@V?$allocator@D@2@@std@@@?$_Tree@V?$_Tmap_traits@V?$basic_string@DU?$char_traits@D@std@@V?$allocator@D@2@@std@@V12@U?$less@V?$basic_string@DU?$char_traits@D@std@@V?$allocator@D@2@@std@@@2@V?$allocator@U?$pair@$$CBV?$basic_string@DU?$char_traits@D@std@@V?$allocator@D@2@@std@@V12@@std@@@2@$0A@@std@@@std@@IBE?AU?$_Tree_find_result@PAU?$_Tree_node@U?$pair@$$CBV?$basic_string@DU?$char_traits@D@std@@V?$allocator@D@2@@std@@V12@@std@@PAX@std@@@1@ABV?$basic_string@DU?$char_traits@D@std@@V?$allocator@D@2@@1@@Z ; std::_Tree<std::_Tmap_traits<std::basic_string<char,std::char_traits<char>,std::allocator<char> >,std::basic_string<char,std::char_traits<char>,std::allocator<char> >,std::less<std::basic_string<char,std::char_traits<char>,std::allocator<char> > >,std::allocator<std::pair<std::basic_string<char,std::char_traits<char>,std::allocator<char> > const ,std::basic_string<char,std::char_traits<char>,std::allocator<char> > > >,0> >::_Find_lower_bound<std::basic_string<char,std::char_traits<char>,std::allocator<char> > >

; 177  :         if (_Mybase::_Lower_bound_duplicate(_Loc._Bound, _Keyval)) {

  00018	ff 75 0c	 push	 DWORD PTR __Keyval$[ebp]
  0001b	ff 75 90	 push	 DWORD PTR __Loc$[ebp+8]
  0001e	8b 4d f8	 mov	 ecx, DWORD PTR _this$[ebp]
  00021	e8 00 00 00 00	 call	 ??$_Lower_bound_duplicate@V?$basic_string@DU?$char_traits@D@std@@V?$allocator@D@2@@std@@@?$_Tree@V?$_Tmap_traits@V?$basic_string@DU?$char_traits@D@std@@V?$allocator@D@2@@std@@V12@U?$less@V?$basic_string@DU?$char_traits@D@std@@V?$allocator@D@2@@std@@@2@V?$allocator@U?$pair@$$CBV?$basic_string@DU?$char_traits@D@std@@V?$allocator@D@2@@std@@V12@@std@@@2@$0A@@std@@@std@@IBE_NQAU?$_Tree_node@U?$pair@$$CBV?$basic_string@DU?$char_traits@D@std@@V?$allocator@D@2@@std@@V12@@std@@PAX@1@ABV?$basic_string@DU?$char_traits@D@std@@V?$allocator@D@2@@1@@Z ; std::_Tree<std::_Tmap_traits<std::basic_string<char,std::char_traits<char>,std::allocator<char> >,std::basic_string<char,std::char_traits<char>,std::allocator<char> >,std::less<std::basic_string<char,std::char_traits<char>,std::allocator<char> > >,std::allocator<std::pair<std::basic_string<char,std::char_traits<char>,std::allocator<char> > const ,std::basic_string<char,std::char_traits<char>,std::allocator<char> > > >,0> >::_Lower_bound_duplicate<std::basic_string<char,std::char_traits<char>,std::allocator<char> > >
  00026	0f b6 c0	 movzx	 eax, al
  00029	85 c0		 test	 eax, eax
  0002b	74 2d		 je	 SHORT $LN2@Try_emplac

; 178  :             return {_Loc._Bound, false};

  0002d	c6 45 ff 00	 mov	 BYTE PTR $T24[ebp], 0
; File C:\Program Files (x86)\Microsoft Visual Studio\2019\Community\VC\Tools\MSVC\14.28.29333\include\type_traits

; 1443 :     return static_cast<_Ty&&>(_Arg);

  00031	8d 45 90	 lea	 eax, DWORD PTR __Loc$[ebp+8]
  00034	89 45 ec	 mov	 DWORD PTR $T21[ebp], eax
; File C:\Program Files (x86)\Microsoft Visual Studio\2019\Community\VC\Tools\MSVC\14.28.29333\include\utility

; 190  :         : first(_STD forward<_Other1>(_Val1)), second(_STD forward<_Other2>(_Val2)) {}

  00037	8b 45 08	 mov	 eax, DWORD PTR ___$ReturnUdt$[ebp]
  0003a	8b 4d ec	 mov	 ecx, DWORD PTR $T21[ebp]
  0003d	8b 09		 mov	 ecx, DWORD PTR [ecx]
  0003f	89 08		 mov	 DWORD PTR [eax], ecx
; File C:\Program Files (x86)\Microsoft Visual Studio\2019\Community\VC\Tools\MSVC\14.28.29333\include\type_traits

; 1443 :     return static_cast<_Ty&&>(_Arg);

  00041	8d 45 ff	 lea	 eax, DWORD PTR $T24[ebp]
  00044	89 45 e8	 mov	 DWORD PTR $T20[ebp], eax
; File C:\Program Files (x86)\Microsoft Visual Studio\2019\Community\VC\Tools\MSVC\14.28.29333\include\utility

; 190  :         : first(_STD forward<_Other1>(_Val1)), second(_STD forward<_Other2>(_Val2)) {}

  00047	8b 45 08	 mov	 eax, DWORD PTR ___$ReturnUdt$[ebp]
  0004a	8b 4d e8	 mov	 ecx, DWORD PTR $T20[ebp]
  0004d	8a 09		 mov	 cl, BYTE PTR [ecx]
  0004f	88 48 04	 mov	 BYTE PTR [eax+4], cl
; File C:\Program Files (x86)\Microsoft Visual Studio\2019\Community\VC\Tools\MSVC\14.28.29333\include\map

; 178  :             return {_Loc._Bound, false};

  00052	8b 45 08	 mov	 eax, DWORD PTR ___$ReturnUdt$[ebp]
  00055	e9 dd 00 00 00	 jmp	 $LN1@Try_emplac
$LN2@Try_emplac:

; 179  :         }
; 180  : 
; 181  :         _Mybase::_Check_grow_by_1();

  0005a	8b 4d f8	 mov	 ecx, DWORD PTR _this$[ebp]
  0005d	e8 00 00 00 00	 call	 ?_Check_grow_by_1@?$_Tree@V?$_Tmap_traits@V?$basic_string@DU?$char_traits@D@std@@V?$allocator@D@2@@std@@V12@U?$less@V?$basic_string@DU?$char_traits@D@std@@V?$allocator@D@2@@std@@@2@V?$allocator@U?$pair@$$CBV?$basic_string@DU?$char_traits@D@std@@V?$allocator@D@2@@std@@V12@@std@@@2@$0A@@std@@@std@@IAEXXZ ; std::_Tree<std::_Tmap_traits<std::basic_string<char,std::char_traits<char>,std::allocator<char> >,std::basic_string<char,std::char_traits<char>,std::allocator<char> >,std::less<std::basic_string<char,std::char_traits<char>,std::allocator<char> > >,std::allocator<std::pair<std::basic_string<char,std::char_traits<char>,std::allocator<char> > const ,std::basic_string<char,std::char_traits<char>,std::allocator<char> > > >,0> >::_Check_grow_by_1
; File C:\Program Files (x86)\Microsoft Visual Studio\2019\Community\VC\Tools\MSVC\14.28.29333\include\xtree

; 2047 :         return _STD addressof(_Mypair._Myval2._Myval2);

  00062	8b 45 f8	 mov	 eax, DWORD PTR _this$[ebp]
; File C:\Program Files (x86)\Microsoft Visual Studio\2019\Community\VC\Tools\MSVC\14.28.29333\include\xstddef

; 275  :     return __builtin_addressof(_Val);

  00065	89 45 e4	 mov	 DWORD PTR $T19[ebp], eax
; File C:\Program Files (x86)\Microsoft Visual Studio\2019\Community\VC\Tools\MSVC\14.28.29333\include\xtree

; 2047 :         return _STD addressof(_Mypair._Myval2._Myval2);

  00068	8b 45 e4	 mov	 eax, DWORD PTR $T19[ebp]
  0006b	89 45 f0	 mov	 DWORD PTR __Scary$[ebp], eax
; File C:\Program Files (x86)\Microsoft Visual Studio\2019\Community\VC\Tools\MSVC\14.28.29333\include\tuple

; 854  :     return tuple<_Types&&...>(_STD forward<_Types>(_Args)...);

  0006e	8d 45 fd	 lea	 eax, DWORD PTR $T22[ebp]
  00071	89 45 c4	 mov	 DWORD PTR $T11[ebp], eax
; File C:\Program Files (x86)\Microsoft Visual Studio\2019\Community\VC\Tools\MSVC\14.28.29333\include\type_traits

; 1443 :     return static_cast<_Ty&&>(_Arg);

  00074	8b 45 0c	 mov	 eax, DWORD PTR __Keyval$[ebp]
  00077	89 45 e0	 mov	 DWORD PTR $T18[ebp], eax
  0007a	8b 45 e0	 mov	 eax, DWORD PTR $T18[ebp]
  0007d	89 45 dc	 mov	 DWORD PTR $T17[ebp], eax
  00080	8b 45 dc	 mov	 eax, DWORD PTR $T17[ebp]
  00083	89 45 d8	 mov	 DWORD PTR $T16[ebp], eax
; File C:\Program Files (x86)\Microsoft Visual Studio\2019\Community\VC\Tools\MSVC\14.28.29333\include\tuple

; 245  :         : _Mybase(_Exact_args_t{}, _STD forward<_Rest2>(_Rest_arg)...), _Myfirst(_STD forward<_This2>(_This_arg)) {}

  00086	8d 45 cc	 lea	 eax, DWORD PTR $T13[ebp]
  00089	89 45 d4	 mov	 DWORD PTR _this$15[ebp], eax
; File C:\Program Files (x86)\Microsoft Visual Studio\2019\Community\VC\Tools\MSVC\14.28.29333\include\type_traits

; 1443 :     return static_cast<_Ty&&>(_Arg);

  0008c	8b 45 d8	 mov	 eax, DWORD PTR $T16[ebp]
  0008f	89 45 d0	 mov	 DWORD PTR $T14[ebp], eax
; File C:\Program Files (x86)\Microsoft Visual Studio\2019\Community\VC\Tools\MSVC\14.28.29333\include\tuple

; 163  :     constexpr _Tuple_val(_Other&& _Arg) : _Val(_STD forward<_Other>(_Arg)) {}

  00092	8b 45 d4	 mov	 eax, DWORD PTR _this$15[ebp]
  00095	8b 4d d0	 mov	 ecx, DWORD PTR $T14[ebp]
  00098	89 08		 mov	 DWORD PTR [eax], ecx

; 854  :     return tuple<_Types&&...>(_STD forward<_Types>(_Args)...);

  0009a	8d 45 cc	 lea	 eax, DWORD PTR $T13[ebp]
  0009d	89 45 c0	 mov	 DWORD PTR $T10[ebp], eax
; File C:\Program Files (x86)\Microsoft Visual Studio\2019\Community\VC\Tools\MSVC\14.28.29333\include\xtree

; 2039 :         return _Mypair._Myval2._Get_first();

  000a0	8b 45 f8	 mov	 eax, DWORD PTR _this$[ebp]
; File C:\Program Files (x86)\Microsoft Visual Studio\2019\Community\VC\Tools\MSVC\14.28.29333\include\xmemory

; 1347 :         return *this;

  000a3	89 45 c8	 mov	 DWORD PTR $T12[ebp], eax
; File C:\Program Files (x86)\Microsoft Visual Studio\2019\Community\VC\Tools\MSVC\14.28.29333\include\xtree

; 2039 :         return _Mypair._Myval2._Get_first();

  000a6	8b 45 c8	 mov	 eax, DWORD PTR $T12[ebp]
  000a9	89 45 bc	 mov	 DWORD PTR $T9[ebp], eax
; File C:\Program Files (x86)\Microsoft Visual Studio\2019\Community\VC\Tools\MSVC\14.28.29333\include\map

; 184  :         const auto _Inserted = _Tree_temp_node<_Alnode>(_Mybase::_Getal(), _Scary->_Myhead, piecewise_construct,

  000ac	ff 75 c4	 push	 DWORD PTR $T11[ebp]
  000af	ff 75 c0	 push	 DWORD PTR $T10[ebp]
  000b2	68 00 00 00 00	 push	 OFFSET ?piecewise_construct@std@@3Upiecewise_construct_t@1@B
  000b7	8b 45 f0	 mov	 eax, DWORD PTR __Scary$[ebp]
  000ba	ff 30		 push	 DWORD PTR [eax]
  000bc	ff 75 bc	 push	 DWORD PTR $T9[ebp]
  000bf	8d 4d 94	 lea	 ecx, DWORD PTR $T1[ebp]
  000c2	e8 00 00 00 00	 call	 ??$?0ABUpiecewise_construct_t@std@@V?$tuple@ABV?$basic_string@DU?$char_traits@D@std@@V?$allocator@D@2@@std@@@1@V?$tuple@$$V@1@@?$_Tree_temp_node@V?$allocator@U?$_Tree_node@U?$pair@$$CBV?$basic_string@DU?$char_traits@D@std@@V?$allocator@D@2@@std@@V12@@std@@PAX@std@@@std@@@std@@QAE@AAV?$allocator@U?$_Tree_node@U?$pair@$$CBV?$basic_string@DU?$char_traits@D@std@@V?$allocator@D@2@@std@@V12@@std@@PAX@std@@@1@PAU?$_Tree_node@U?$pair@$$CBV?$basic_string@DU?$char_traits@D@std@@V?$allocator@D@2@@std@@V12@@std@@PAX@1@ABUpiecewise_construct_t@1@$$QAV?$tuple@ABV?$basic_string@DU?$char_traits@D@std@@V?$allocator@D@2@@std@@@1@$$QAV?$tuple@$$V@1@@Z ; std::_Tree_temp_node<std::allocator<std::_Tree_node<std::pair<std::basic_string<char,std::char_traits<char>,std::allocator<char> > const ,std::basic_string<char,std::char_traits<char>,std::allocator<char> > >,void *> > >::_Tree_temp_node<std::allocator<std::_Tree_node<std::pair<std::basic_string<char,std::char_traits<char>,std::allocator<char> > const ,std::basic_string<char,std::char_traits<char>,std::allocator<char> > >,void *> > ><std::piecewise_construct_t const &,std::tuple<std::basic_string<char,std::char_traits<char>,std::allocator<char> > const &>,std::tuple<> >
  000c7	89 45 b8	 mov	 DWORD PTR $T8[ebp], eax
; File C:\Program Files (x86)\Microsoft Visual Studio\2019\Community\VC\Tools\MSVC\14.28.29333\include\xmemory

; 1048 :         return _STD exchange(_Ptr, nullptr);

  000ca	83 65 b4 00	 and	 DWORD PTR $T7[ebp], 0
  000ce	8b 45 b8	 mov	 eax, DWORD PTR $T8[ebp]
  000d1	83 c0 04	 add	 eax, 4
  000d4	89 45 f4	 mov	 DWORD PTR __Val$[ebp], eax
; File C:\Program Files (x86)\Microsoft Visual Studio\2019\Community\VC\Tools\MSVC\14.28.29333\include\utility

; 598  :     _Ty _Old_val = static_cast<_Ty&&>(_Val);

  000d7	8b 45 f4	 mov	 eax, DWORD PTR __Val$[ebp]
  000da	8b 00		 mov	 eax, DWORD PTR [eax]
  000dc	89 45 b0	 mov	 DWORD PTR __Old_val$6[ebp], eax

; 599  :     _Val         = static_cast<_Other&&>(_New_val);

  000df	8b 45 f4	 mov	 eax, DWORD PTR __Val$[ebp]
  000e2	8b 4d b4	 mov	 ecx, DWORD PTR $T7[ebp]
  000e5	89 08		 mov	 DWORD PTR [eax], ecx

; 600  :     return _Old_val;

  000e7	8b 45 b0	 mov	 eax, DWORD PTR __Old_val$6[ebp]
  000ea	89 45 ac	 mov	 DWORD PTR $T5[ebp], eax
; File C:\Program Files (x86)\Microsoft Visual Studio\2019\Community\VC\Tools\MSVC\14.28.29333\include\xmemory

; 1048 :         return _STD exchange(_Ptr, nullptr);

  000ed	8b 45 ac	 mov	 eax, DWORD PTR $T5[ebp]
  000f0	89 45 a8	 mov	 DWORD PTR __Inserted$[ebp], eax
; File C:\Program Files (x86)\Microsoft Visual Studio\2019\Community\VC\Tools\MSVC\14.28.29333\include\map

; 184  :         const auto _Inserted = _Tree_temp_node<_Alnode>(_Mybase::_Getal(), _Scary->_Myhead, piecewise_construct,

  000f3	8d 4d 94	 lea	 ecx, DWORD PTR $T1[ebp]
  000f6	e8 00 00 00 00	 call	 ??1?$_Tree_temp_node@V?$allocator@U?$_Tree_node@U?$pair@$$CBV?$basic_string@DU?$char_traits@D@std@@V?$allocator@D@2@@std@@V12@@std@@PAX@std@@@std@@@std@@QAE@XZ ; std::_Tree_temp_node<std::allocator<std::_Tree_node<std::pair<std::basic_string<char,std::char_traits<char>,std::allocator<char> > const ,std::basic_string<char,std::char_traits<char>,std::allocator<char> > >,void *> > >::~_Tree_temp_node<std::allocator<std::_Tree_node<std::pair<std::basic_string<char,std::char_traits<char>,std::allocator<char> > const ,std::basic_string<char,std::char_traits<char>,std::allocator<char> > >,void *> > >

; 190  :         return {_Scary->_Insert_node(_Loc._Location, _Inserted), true};

  000fb	ff 75 a8	 push	 DWORD PTR __Inserted$[ebp]
  000fe	ff 75 8c	 push	 DWORD PTR __Loc$[ebp+4]
  00101	ff 75 88	 push	 DWORD PTR __Loc$[ebp]
  00104	8b 4d f0	 mov	 ecx, DWORD PTR __Scary$[ebp]
  00107	e8 00 00 00 00	 call	 ?_Insert_node@?$_Tree_val@U?$_Tree_simple_types@U?$pair@$$CBV?$basic_string@DU?$char_traits@D@std@@V?$allocator@D@2@@std@@V12@@std@@@std@@@std@@QAEPAU?$_Tree_node@U?$pair@$$CBV?$basic_string@DU?$char_traits@D@std@@V?$allocator@D@2@@std@@V12@@std@@PAX@2@U?$_Tree_id@PAU?$_Tree_node@U?$pair@$$CBV?$basic_string@DU?$char_traits@D@std@@V?$allocator@D@2@@std@@V12@@std@@PAX@std@@@2@QAU32@@Z ; std::_Tree_val<std::_Tree_simple_types<std::pair<std::basic_string<char,std::char_traits<char>,std::allocator<char> > const ,std::basic_string<char,std::char_traits<char>,std::allocator<char> > > > >::_Insert_node
  0010c	89 45 a4	 mov	 DWORD PTR $T4[ebp], eax
  0010f	c6 45 fe 01	 mov	 BYTE PTR $T23[ebp], 1
; File C:\Program Files (x86)\Microsoft Visual Studio\2019\Community\VC\Tools\MSVC\14.28.29333\include\type_traits

; 1443 :     return static_cast<_Ty&&>(_Arg);

  00113	8d 45 a4	 lea	 eax, DWORD PTR $T4[ebp]
  00116	89 45 a0	 mov	 DWORD PTR $T3[ebp], eax
; File C:\Program Files (x86)\Microsoft Visual Studio\2019\Community\VC\Tools\MSVC\14.28.29333\include\utility

; 190  :         : first(_STD forward<_Other1>(_Val1)), second(_STD forward<_Other2>(_Val2)) {}

  00119	8b 45 08	 mov	 eax, DWORD PTR ___$ReturnUdt$[ebp]
  0011c	8b 4d a0	 mov	 ecx, DWORD PTR $T3[ebp]
  0011f	8b 09		 mov	 ecx, DWORD PTR [ecx]
  00121	89 08		 mov	 DWORD PTR [eax], ecx
; File C:\Program Files (x86)\Microsoft Visual Studio\2019\Community\VC\Tools\MSVC\14.28.29333\include\type_traits

; 1443 :     return static_cast<_Ty&&>(_Arg);

  00123	8d 45 fe	 lea	 eax, DWORD PTR $T23[ebp]
  00126	89 45 9c	 mov	 DWORD PTR $T2[ebp], eax
; File C:\Program Files (x86)\Microsoft Visual Studio\2019\Community\VC\Tools\MSVC\14.28.29333\include\utility

; 190  :         : first(_STD forward<_Other1>(_Val1)), second(_STD forward<_Other2>(_Val2)) {}

  00129	8b 45 08	 mov	 eax, DWORD PTR ___$ReturnUdt$[ebp]
  0012c	8b 4d 9c	 mov	 ecx, DWORD PTR $T2[ebp]
  0012f	8a 09		 mov	 cl, BYTE PTR [ecx]
  00131	88 48 04	 mov	 BYTE PTR [eax+4], cl
; File C:\Program Files (x86)\Microsoft Visual Studio\2019\Community\VC\Tools\MSVC\14.28.29333\include\map

; 190  :         return {_Scary->_Insert_node(_Loc._Location, _Inserted), true};

  00134	8b 45 08	 mov	 eax, DWORD PTR ___$ReturnUdt$[ebp]
$LN1@Try_emplac:

; 191  :     }

  00137	c9		 leave
  00138	c2 08 00	 ret	 8
??$_Try_emplace@ABV?$basic_string@DU?$char_traits@D@std@@V?$allocator@D@2@@std@@$$V@?$map@V?$basic_string@DU?$char_traits@D@std@@V?$allocator@D@2@@std@@V12@U?$less@V?$basic_string@DU?$char_traits@D@std@@V?$allocator@D@2@@std@@@2@V?$allocator@U?$pair@$$CBV?$basic_string@DU?$char_traits@D@std@@V?$allocator@D@2@@std@@V12@@std@@@2@@std@@AAE?AU?$pair@PAU?$_Tree_node@U?$pair@$$CBV?$basic_string@DU?$char_traits@D@std@@V?$allocator@D@2@@std@@V12@@std@@PAX@std@@_N@1@ABV?$basic_string@DU?$char_traits@D@std@@V?$allocator@D@2@@1@@Z ENDP ; std::map<std::basic_string<char,std::char_traits<char>,std::allocator<char> >,std::basic_string<char,std::char_traits<char>,std::allocator<char> >,std::less<std::basic_string<char,std::char_traits<char>,std::allocator<char> > >,std::allocator<std::pair<std::basic_string<char,std::char_traits<char>,std::allocator<char> > const ,std::basic_string<char,std::char_traits<char>,std::allocator<char> > > > >::_Try_emplace<std::basic_string<char,std::char_traits<char>,std::allocator<char> > const &>
_TEXT	ENDS
; Function compile flags: /Odspy
; File D:\Metin2 Server Files\mainline\SRC_2014\Metin2Client\EterLib\Util.cpp
;	COMDAT ?__strcat1@@YAXPADH@Z
_TEXT	SEGMENT
$T1 = -8						; size = 4
_result$ = -4						; size = 2
_str$ = 8						; size = 4
_i$ = 12						; size = 4
?__strcat1@@YAXPADH@Z PROC				; __strcat1, COMDAT

; 317  : {

  00000	55		 push	 ebp
  00001	8b ec		 mov	 ebp, esp
  00003	51		 push	 ecx
  00004	51		 push	 ecx

; 318  : 	char result[2];
; 319  : 	result[0] = i;

  00005	33 c0		 xor	 eax, eax
  00007	40		 inc	 eax
  00008	6b c0 00	 imul	 eax, eax, 0
  0000b	8a 4d 0c	 mov	 cl, BYTE PTR _i$[ebp]
  0000e	88 4c 05 fc	 mov	 BYTE PTR _result$[ebp+eax], cl

; 320  : 	result[1] = NULL;

  00012	c7 45 f8 01 00
	00 00		 mov	 DWORD PTR $T1[ebp], 1
  00019	83 7d f8 02	 cmp	 DWORD PTR $T1[ebp], 2
  0001d	73 02		 jae	 SHORT $LN3@strcat1
  0001f	eb 05		 jmp	 SHORT $LN4@strcat1
$LN3@strcat1:
  00021	e8 00 00 00 00	 call	 ___report_rangecheckfailure
$LN4@strcat1:
  00026	8b 45 f8	 mov	 eax, DWORD PTR $T1[ebp]
  00029	c6 44 05 fc 00	 mov	 BYTE PTR _result$[ebp+eax], 0

; 321  : 	strcat(str,result);

  0002e	8d 45 fc	 lea	 eax, DWORD PTR _result$[ebp]
  00031	50		 push	 eax
  00032	ff 75 08	 push	 DWORD PTR _str$[ebp]
  00035	e8 00 00 00 00	 call	 _strcat
  0003a	59		 pop	 ecx
  0003b	59		 pop	 ecx
$LN2@strcat1:

; 322  : }

  0003c	c9		 leave
  0003d	c3		 ret	 0
?__strcat1@@YAXPADH@Z ENDP				; __strcat1
_TEXT	ENDS
; Function compile flags: /Odspy
; File D:\Metin2 Server Files\mainline\SRC_2014\Metin2Client\EterLib\Util.cpp
;	COMDAT ?__base64_get@@YAHH@Z
_TEXT	SEGMENT
_c$ = 8							; size = 4
?__base64_get@@YAHH@Z PROC				; __base64_get, COMDAT

; 300  : {

  00000	55		 push	 ebp
  00001	8b ec		 mov	 ebp, esp

; 301  : 	if( 'A' <= c && c <= 'Z' )

  00003	83 7d 08 41	 cmp	 DWORD PTR _c$[ebp], 65	; 00000041H
  00007	7c 0e		 jl	 SHORT $LN2@base64_get
  00009	83 7d 08 5a	 cmp	 DWORD PTR _c$[ebp], 90	; 0000005aH
  0000d	7f 08		 jg	 SHORT $LN2@base64_get

; 302  : 		return c-'A';

  0000f	8b 45 08	 mov	 eax, DWORD PTR _c$[ebp]
  00012	83 e8 41	 sub	 eax, 65			; 00000041H
  00015	eb 4c		 jmp	 SHORT $LN1@base64_get
$LN2@base64_get:

; 303  : 	if( 'a' <= c && c <= 'z' )

  00017	83 7d 08 61	 cmp	 DWORD PTR _c$[ebp], 97	; 00000061H
  0001b	7c 0e		 jl	 SHORT $LN3@base64_get
  0001d	83 7d 08 7a	 cmp	 DWORD PTR _c$[ebp], 122	; 0000007aH
  00021	7f 08		 jg	 SHORT $LN3@base64_get

; 304  : 		return c - 'a' + 26;

  00023	8b 45 08	 mov	 eax, DWORD PTR _c$[ebp]
  00026	83 e8 47	 sub	 eax, 71			; 00000047H
  00029	eb 38		 jmp	 SHORT $LN1@base64_get
$LN3@base64_get:

; 305  : 	if( '0' <= c && c <= '9' )

  0002b	83 7d 08 30	 cmp	 DWORD PTR _c$[ebp], 48	; 00000030H
  0002f	7c 0e		 jl	 SHORT $LN4@base64_get
  00031	83 7d 08 39	 cmp	 DWORD PTR _c$[ebp], 57	; 00000039H
  00035	7f 08		 jg	 SHORT $LN4@base64_get

; 306  : 		return c - '0' + 52;

  00037	8b 45 08	 mov	 eax, DWORD PTR _c$[ebp]
  0003a	83 c0 04	 add	 eax, 4
  0003d	eb 24		 jmp	 SHORT $LN1@base64_get
$LN4@base64_get:

; 307  : 	if( c == '+' )

  0003f	83 7d 08 2b	 cmp	 DWORD PTR _c$[ebp], 43	; 0000002bH
  00043	75 05		 jne	 SHORT $LN5@base64_get

; 308  : 		return 62;

  00045	6a 3e		 push	 62			; 0000003eH
  00047	58		 pop	 eax
  00048	eb 19		 jmp	 SHORT $LN1@base64_get
$LN5@base64_get:

; 309  : 	if( c == '/' )

  0004a	83 7d 08 2f	 cmp	 DWORD PTR _c$[ebp], 47	; 0000002fH
  0004e	75 05		 jne	 SHORT $LN6@base64_get

; 310  : 		return 63;

  00050	6a 3f		 push	 63			; 0000003fH
  00052	58		 pop	 eax
  00053	eb 0e		 jmp	 SHORT $LN1@base64_get
$LN6@base64_get:

; 311  : 	if( c == '=' )	// end of line

  00055	83 7d 08 3d	 cmp	 DWORD PTR _c$[ebp], 61	; 0000003dH
  00059	75 05		 jne	 SHORT $LN7@base64_get

; 312  : 		return -1;

  0005b	83 c8 ff	 or	 eax, -1
  0005e	eb 03		 jmp	 SHORT $LN1@base64_get
$LN7@base64_get:

; 313  : 	return -2;	// non value;

  00060	6a fe		 push	 -2			; fffffffeH
  00062	58		 pop	 eax
$LN1@base64_get:

; 314  : }

  00063	5d		 pop	 ebp
  00064	c3		 ret	 0
?__base64_get@@YAHH@Z ENDP				; __base64_get
_TEXT	ENDS
; Function compile flags: /Odspy
; File C:\Program Files (x86)\Microsoft Visual Studio\2019\Community\VC\Tools\MSVC\14.28.29333\include\xstring
;	COMDAT ??__Fgs_fontFace@@YAXXZ
text$yd	SEGMENT
??__Fgs_fontFace@@YAXXZ PROC				; `dynamic atexit destructor for 'gs_fontFace'', COMDAT
  00000	55		 push	 ebp
  00001	8b ec		 mov	 ebp, esp

; 2801 :         _Tidy_deallocate();

  00003	b9 00 00 00 00	 mov	 ecx, OFFSET ?gs_fontFace@@3V?$basic_string@DU?$char_traits@D@std@@V?$allocator@D@2@@std@@A
  00008	e8 00 00 00 00	 call	 ?_Tidy_deallocate@?$basic_string@DU?$char_traits@D@std@@V?$allocator@D@2@@std@@AAEXXZ ; std::basic_string<char,std::char_traits<char>,std::allocator<char> >::_Tidy_deallocate
  0000d	5d		 pop	 ebp
  0000e	c3		 ret	 0
??__Fgs_fontFace@@YAXXZ ENDP				; `dynamic atexit destructor for 'gs_fontFace''
text$yd	ENDS
; Function compile flags: /Odspy
; File D:\Metin2 Server Files\mainline\SRC_2014\Metin2Client\EterLib\Util.cpp
;	COMDAT ??__Egs_fontFace@@YAXXZ
text$di	SEGMENT
??__Egs_fontFace@@YAXXZ PROC				; `dynamic initializer for 'gs_fontFace'', COMDAT

; 142  : static std::string	gs_fontFace="";

  00000	55		 push	 ebp
  00001	8b ec		 mov	 ebp, esp
  00003	68 00 00 00 00	 push	 OFFSET ??_C@_00CNPNBAHC@@
  00008	b9 00 00 00 00	 mov	 ecx, OFFSET ?gs_fontFace@@3V?$basic_string@DU?$char_traits@D@std@@V?$allocator@D@2@@std@@A
  0000d	e8 00 00 00 00	 call	 ??0?$basic_string@DU?$char_traits@D@std@@V?$allocator@D@2@@std@@QAE@QBD@Z ; std::basic_string<char,std::char_traits<char>,std::allocator<char> >::basic_string<char,std::char_traits<char>,std::allocator<char> >
  00012	68 00 00 00 00	 push	 OFFSET ??__Fgs_fontFace@@YAXXZ ; `dynamic atexit destructor for 'gs_fontFace''
  00017	e8 00 00 00 00	 call	 _atexit
  0001c	59		 pop	 ecx
  0001d	5d		 pop	 ebp
  0001e	c3		 ret	 0
??__Egs_fontFace@@YAXXZ ENDP				; `dynamic initializer for 'gs_fontFace''
text$di	ENDS
; Function compile flags: /Odspy
; File C:\Program Files (x86)\Microsoft Visual Studio\2019\Community\VC\Tools\MSVC\14.28.29333\include\xtree
; File C:\Program Files (x86)\Microsoft Visual Studio\2019\Community\VC\Tools\MSVC\14.28.29333\include\type_traits
; File C:\Program Files (x86)\Microsoft Visual Studio\2019\Community\VC\Tools\MSVC\14.28.29333\include\xtree
; File C:\Program Files (x86)\Microsoft Visual Studio\2019\Community\VC\Tools\MSVC\14.28.29333\include\xstddef
; File C:\Program Files (x86)\Microsoft Visual Studio\2019\Community\VC\Tools\MSVC\14.28.29333\include\xtree
; File C:\Program Files (x86)\Microsoft Visual Studio\2019\Community\VC\Tools\MSVC\14.28.29333\include\type_traits
; File C:\Program Files (x86)\Microsoft Visual Studio\2019\Community\VC\Tools\MSVC\14.28.29333\include\utility
; File C:\Program Files (x86)\Microsoft Visual Studio\2019\Community\VC\Tools\MSVC\14.28.29333\include\type_traits
; File C:\Program Files (x86)\Microsoft Visual Studio\2019\Community\VC\Tools\MSVC\14.28.29333\include\utility
; File C:\Program Files (x86)\Microsoft Visual Studio\2019\Community\VC\Tools\MSVC\14.28.29333\include\xtree
;	COMDAT ??$insert@$0A@$0A@@?$_Tree@V?$_Tmap_traits@V?$basic_string@DU?$char_traits@D@std@@V?$allocator@D@2@@std@@V?$vector@V?$basic_string@DU?$char_traits@D@std@@V?$allocator@D@2@@std@@V?$allocator@V?$basic_string@DU?$char_traits@D@std@@V?$allocator@D@2@@std@@@2@@2@U?$less@V?$basic_string@DU?$char_traits@D@std@@V?$allocator@D@2@@std@@@2@V?$allocator@U?$pair@$$CBV?$basic_string@DU?$char_traits@D@std@@V?$allocator@D@2@@std@@V?$vector@V?$basic_string@DU?$char_traits@D@std@@V?$allocator@D@2@@std@@V?$allocator@V?$basic_string@DU?$char_traits@D@std@@V?$allocator@D@2@@std@@@2@@2@@std@@@2@$0A@@std@@@std@@QAE?AU?$pair@V?$_Tree_iterator@V?$_Tree_val@U?$_Tree_simple_types@U?$pair@$$CBV?$basic_string@DU?$char_traits@D@std@@V?$allocator@D@2@@std@@V?$vector@V?$basic_string@DU?$char_traits@D@std@@V?$allocator@D@2@@std@@V?$allocator@V?$basic_string@DU?$char_traits@D@std@@V?$allocator@D@2@@std@@@2@@2@@std@@@std@@@std@@@std@@_N@1@$$QAU?$pair@$$CBV?$basic_string@DU?$char_traits@D@std@@V?$allocator@D@2@@std@@V?$vector@V?$basic_string@DU?$char_traits@D@std@@V?$allocator@D@2@@std@@V?$allocator@V?$basic_string@DU?$char_traits@D@std@@V?$allocator@D@2@@std@@@2@@2@@1@@Z
_TEXT	SEGMENT
__Result$ = -40						; size = 8
$T1 = -32						; size = 4
$T2 = -28						; size = 4
$T3 = -24						; size = 4
$T4 = -20						; size = 4
___param0$ = -16					; size = 4
$T5 = -12						; size = 4
$T6 = -8						; size = 4
_this$ = -4						; size = 4
___$ReturnUdt$ = 8					; size = 4
__Val$ = 12						; size = 4
??$insert@$0A@$0A@@?$_Tree@V?$_Tmap_traits@V?$basic_string@DU?$char_traits@D@std@@V?$allocator@D@2@@std@@V?$vector@V?$basic_string@DU?$char_traits@D@std@@V?$allocator@D@2@@std@@V?$allocator@V?$basic_string@DU?$char_traits@D@std@@V?$allocator@D@2@@std@@@2@@2@U?$less@V?$basic_string@DU?$char_traits@D@std@@V?$allocator@D@2@@std@@@2@V?$allocator@U?$pair@$$CBV?$basic_string@DU?$char_traits@D@std@@V?$allocator@D@2@@std@@V?$vector@V?$basic_string@DU?$char_traits@D@std@@V?$allocator@D@2@@std@@V?$allocator@V?$basic_string@DU?$char_traits@D@std@@V?$allocator@D@2@@std@@@2@@2@@std@@@2@$0A@@std@@@std@@QAE?AU?$pair@V?$_Tree_iterator@V?$_Tree_val@U?$_Tree_simple_types@U?$pair@$$CBV?$basic_string@DU?$char_traits@D@std@@V?$allocator@D@2@@std@@V?$vector@V?$basic_string@DU?$char_traits@D@std@@V?$allocator@D@2@@std@@V?$allocator@V?$basic_string@DU?$char_traits@D@std@@V?$allocator@D@2@@std@@@2@@2@@std@@@std@@@std@@@std@@_N@1@$$QAU?$pair@$$CBV?$basic_string@DU?$char_traits@D@std@@V?$allocator@D@2@@std@@V?$vector@V?$basic_string@DU?$char_traits@D@std@@V?$allocator@D@2@@std@@V?$allocator@V?$basic_string@DU?$char_traits@D@std@@V?$allocator@D@2@@std@@@2@@2@@1@@Z PROC ; std::_Tree<std::_Tmap_traits<std::basic_string<char,std::char_traits<char>,std::allocator<char> >,std::vector<std::basic_string<char,std::char_traits<char>,std::allocator<char> >,std::allocator<std::basic_string<char,std::char_traits<char>,std::allocator<char> > > >,std::less<std::basic_string<char,std::char_traits<char>,std::allocator<char> > >,std::allocator<std::pair<std::basic_string<char,std::char_traits<char>,std::allocator<char> > const ,std::vector<std::basic_string<char,std::char_traits<char>,std::allocator<char> >,std::allocator<std::basic_string<char,std::char_traits<char>,std::allocator<char> > > > > >,0> >::insert<0,0>, COMDAT
; _this$ = ecx

; 1343 :     pair<iterator, bool> insert(value_type&& _Val) {

  00000	55		 push	 ebp
  00001	8b ec		 mov	 ebp, esp
  00003	83 ec 28	 sub	 esp, 40			; 00000028H
  00006	89 4d fc	 mov	 DWORD PTR _this$[ebp], ecx
; File C:\Program Files (x86)\Microsoft Visual Studio\2019\Community\VC\Tools\MSVC\14.28.29333\include\type_traits

; 1455 :     return static_cast<remove_reference_t<_Ty>&&>(_Arg);

  00009	8b 45 0c	 mov	 eax, DWORD PTR __Val$[ebp]
  0000c	89 45 f8	 mov	 DWORD PTR $T6[ebp], eax
; File C:\Program Files (x86)\Microsoft Visual Studio\2019\Community\VC\Tools\MSVC\14.28.29333\include\xtree

; 1344 :         const auto _Result = _Emplace(_STD move(_Val));

  0000f	ff 75 f8	 push	 DWORD PTR $T6[ebp]
  00012	8d 45 d8	 lea	 eax, DWORD PTR __Result$[ebp]
  00015	50		 push	 eax
  00016	8b 4d fc	 mov	 ecx, DWORD PTR _this$[ebp]
  00019	e8 00 00 00 00	 call	 ??$_Emplace@U?$pair@$$CBV?$basic_string@DU?$char_traits@D@std@@V?$allocator@D@2@@std@@V?$vector@V?$basic_string@DU?$char_traits@D@std@@V?$allocator@D@2@@std@@V?$allocator@V?$basic_string@DU?$char_traits@D@std@@V?$allocator@D@2@@std@@@2@@2@@std@@@?$_Tree@V?$_Tmap_traits@V?$basic_string@DU?$char_traits@D@std@@V?$allocator@D@2@@std@@V?$vector@V?$basic_string@DU?$char_traits@D@std@@V?$allocator@D@2@@std@@V?$allocator@V?$basic_string@DU?$char_traits@D@std@@V?$allocator@D@2@@std@@@2@@2@U?$less@V?$basic_string@DU?$char_traits@D@std@@V?$allocator@D@2@@std@@@2@V?$allocator@U?$pair@$$CBV?$basic_string@DU?$char_traits@D@std@@V?$allocator@D@2@@std@@V?$vector@V?$basic_string@DU?$char_traits@D@std@@V?$allocator@D@2@@std@@V?$allocator@V?$basic_string@DU?$char_traits@D@std@@V?$allocator@D@2@@std@@@2@@2@@std@@@2@$0A@@std@@@std@@IAE?AU?$pair@PAU?$_Tree_node@U?$pair@$$CBV?$basic_string@DU?$char_traits@D@std@@V?$allocator@D@2@@std@@V?$vector@V?$basic_string@DU?$char_traits@D@std@@V?$allocator@D@2@@std@@V?$allocator@V?$basic_string@DU?$char_traits@D@std@@V?$allocator@D@2@@std@@@2@@2@@std@@PAX@std@@_N@1@$$QAU?$pair@$$CBV?$basic_string@DU?$char_traits@D@std@@V?$allocator@D@2@@std@@V?$vector@V?$basic_string@DU?$char_traits@D@std@@V?$allocator@D@2@@std@@V?$allocator@V?$basic_string@DU?$char_traits@D@std@@V?$allocator@D@2@@std@@@2@@2@@1@@Z ; std::_Tree<std::_Tmap_traits<std::basic_string<char,std::char_traits<char>,std::allocator<char> >,std::vector<std::basic_string<char,std::char_traits<char>,std::allocator<char> >,std::allocator<std::basic_string<char,std::char_traits<char>,std::allocator<char> > > >,std::less<std::basic_string<char,std::char_traits<char>,std::allocator<char> > >,std::allocator<std::pair<std::basic_string<char,std::char_traits<char>,std::allocator<char> > const ,std::vector<std::basic_string<char,std::char_traits<char>,std::allocator<char> >,std::allocator<std::basic_string<char,std::char_traits<char>,std::allocator<char> > > > > >,0> >::_Emplace<std::pair<std::basic_string<char,std::char_traits<char>,std::allocator<char> > const ,std::vector<std::basic_string<char,std::char_traits<char>,std::allocator<char> >,std::allocator<std::basic_string<char,std::char_traits<char>,std::allocator<char> > > > > >

; 2047 :         return _STD addressof(_Mypair._Myval2._Myval2);

  0001e	8b 45 fc	 mov	 eax, DWORD PTR _this$[ebp]
; File C:\Program Files (x86)\Microsoft Visual Studio\2019\Community\VC\Tools\MSVC\14.28.29333\include\xstddef

; 275  :     return __builtin_addressof(_Val);

  00021	89 45 f4	 mov	 DWORD PTR $T5[ebp], eax
; File C:\Program Files (x86)\Microsoft Visual Studio\2019\Community\VC\Tools\MSVC\14.28.29333\include\xtree

; 2047 :         return _STD addressof(_Mypair._Myval2._Myval2);

  00024	8b 45 f4	 mov	 eax, DWORD PTR $T5[ebp]
  00027	89 45 e0	 mov	 DWORD PTR $T1[ebp], eax

; 1345 :         return {iterator(_Result.first, _Get_scary()), _Result.second};

  0002a	8b 45 d8	 mov	 eax, DWORD PTR __Result$[ebp]
  0002d	89 45 f0	 mov	 DWORD PTR ___param0$[ebp], eax

; 39   :     _Tree_unchecked_const_iterator(_Nodeptr _Pnode, const _Mytree* _Plist) noexcept : _Ptr(_Pnode) {

  00030	8b 45 f0	 mov	 eax, DWORD PTR ___param0$[ebp]
  00033	89 45 ec	 mov	 DWORD PTR $T4[ebp], eax
; File C:\Program Files (x86)\Microsoft Visual Studio\2019\Community\VC\Tools\MSVC\14.28.29333\include\type_traits

; 1443 :     return static_cast<_Ty&&>(_Arg);

  00036	8d 45 ec	 lea	 eax, DWORD PTR $T4[ebp]
  00039	89 45 e8	 mov	 DWORD PTR $T3[ebp], eax
; File C:\Program Files (x86)\Microsoft Visual Studio\2019\Community\VC\Tools\MSVC\14.28.29333\include\utility

; 190  :         : first(_STD forward<_Other1>(_Val1)), second(_STD forward<_Other2>(_Val2)) {}

  0003c	8b 45 e8	 mov	 eax, DWORD PTR $T3[ebp]
  0003f	8b 00		 mov	 eax, DWORD PTR [eax]
  00041	8b 4d 08	 mov	 ecx, DWORD PTR ___$ReturnUdt$[ebp]
  00044	89 01		 mov	 DWORD PTR [ecx], eax
; File C:\Program Files (x86)\Microsoft Visual Studio\2019\Community\VC\Tools\MSVC\14.28.29333\include\type_traits

; 1443 :     return static_cast<_Ty&&>(_Arg);

  00046	8d 45 dc	 lea	 eax, DWORD PTR __Result$[ebp+4]
  00049	89 45 e4	 mov	 DWORD PTR $T2[ebp], eax
; File C:\Program Files (x86)\Microsoft Visual Studio\2019\Community\VC\Tools\MSVC\14.28.29333\include\utility

; 190  :         : first(_STD forward<_Other1>(_Val1)), second(_STD forward<_Other2>(_Val2)) {}

  0004c	8b 45 08	 mov	 eax, DWORD PTR ___$ReturnUdt$[ebp]
  0004f	8b 4d e4	 mov	 ecx, DWORD PTR $T2[ebp]
  00052	8a 09		 mov	 cl, BYTE PTR [ecx]
  00054	88 48 04	 mov	 BYTE PTR [eax+4], cl
; File C:\Program Files (x86)\Microsoft Visual Studio\2019\Community\VC\Tools\MSVC\14.28.29333\include\xtree

; 1345 :         return {iterator(_Result.first, _Get_scary()), _Result.second};

  00057	8b 45 08	 mov	 eax, DWORD PTR ___$ReturnUdt$[ebp]

; 1346 :     }

  0005a	c9		 leave
  0005b	c2 08 00	 ret	 8
??$insert@$0A@$0A@@?$_Tree@V?$_Tmap_traits@V?$basic_string@DU?$char_traits@D@std@@V?$allocator@D@2@@std@@V?$vector@V?$basic_string@DU?$char_traits@D@std@@V?$allocator@D@2@@std@@V?$allocator@V?$basic_string@DU?$char_traits@D@std@@V?$allocator@D@2@@std@@@2@@2@U?$less@V?$basic_string@DU?$char_traits@D@std@@V?$allocator@D@2@@std@@@2@V?$allocator@U?$pair@$$CBV?$basic_string@DU?$char_traits@D@std@@V?$allocator@D@2@@std@@V?$vector@V?$basic_string@DU?$char_traits@D@std@@V?$allocator@D@2@@std@@V?$allocator@V?$basic_string@DU?$char_traits@D@std@@V?$allocator@D@2@@std@@@2@@2@@std@@@2@$0A@@std@@@std@@QAE?AU?$pair@V?$_Tree_iterator@V?$_Tree_val@U?$_Tree_simple_types@U?$pair@$$CBV?$basic_string@DU?$char_traits@D@std@@V?$allocator@D@2@@std@@V?$vector@V?$basic_string@DU?$char_traits@D@std@@V?$allocator@D@2@@std@@V?$allocator@V?$basic_string@DU?$char_traits@D@std@@V?$allocator@D@2@@std@@@2@@2@@std@@@std@@@std@@@std@@_N@1@$$QAU?$pair@$$CBV?$basic_string@DU?$char_traits@D@std@@V?$allocator@D@2@@std@@V?$vector@V?$basic_string@DU?$char_traits@D@std@@V?$allocator@D@2@@std@@V?$allocator@V?$basic_string@DU?$char_traits@D@std@@V?$allocator@D@2@@std@@@2@@2@@1@@Z ENDP ; std::_Tree<std::_Tmap_traits<std::basic_string<char,std::char_traits<char>,std::allocator<char> >,std::vector<std::basic_string<char,std::char_traits<char>,std::allocator<char> >,std::allocator<std::basic_string<char,std::char_traits<char>,std::allocator<char> > > >,std::less<std::basic_string<char,std::char_traits<char>,std::allocator<char> > >,std::allocator<std::pair<std::basic_string<char,std::char_traits<char>,std::allocator<char> > const ,std::vector<std::basic_string<char,std::char_traits<char>,std::allocator<char> >,std::allocator<std::basic_string<char,std::char_traits<char>,std::allocator<char> > > > > >,0> >::insert<0,0>
_TEXT	ENDS
; Function compile flags: /Odspy
; File C:\Program Files (x86)\Microsoft Visual Studio\2019\Community\VC\Tools\MSVC\14.28.29333\include\vector
; File C:\Program Files (x86)\Microsoft Visual Studio\2019\Community\VC\Tools\MSVC\14.28.29333\include\xstring
;	COMDAT ??_G?$pair@$$CBV?$basic_string@DU?$char_traits@D@std@@V?$allocator@D@2@@std@@V?$vector@V?$basic_string@DU?$char_traits@D@std@@V?$allocator@D@2@@std@@V?$allocator@V?$basic_string@DU?$char_traits@D@std@@V?$allocator@D@2@@std@@@2@@2@@std@@QAEPAXI@Z
_TEXT	SEGMENT
_this$ = -4						; size = 4
___flags$ = 8						; size = 4
??_G?$pair@$$CBV?$basic_string@DU?$char_traits@D@std@@V?$allocator@D@2@@std@@V?$vector@V?$basic_string@DU?$char_traits@D@std@@V?$allocator@D@2@@std@@V?$allocator@V?$basic_string@DU?$char_traits@D@std@@V?$allocator@D@2@@std@@@2@@2@@std@@QAEPAXI@Z PROC ; std::pair<std::basic_string<char,std::char_traits<char>,std::allocator<char> > const ,std::vector<std::basic_string<char,std::char_traits<char>,std::allocator<char> >,std::allocator<std::basic_string<char,std::char_traits<char>,std::allocator<char> > > > >::`scalar deleting destructor', COMDAT
; _this$ = ecx
  00000	55		 push	 ebp
  00001	8b ec		 mov	 ebp, esp
  00003	51		 push	 ecx
  00004	89 4d fc	 mov	 DWORD PTR _this$[ebp], ecx
  00007	8b 4d fc	 mov	 ecx, DWORD PTR _this$[ebp]
  0000a	83 c1 18	 add	 ecx, 24			; 00000018H
; File C:\Program Files (x86)\Microsoft Visual Studio\2019\Community\VC\Tools\MSVC\14.28.29333\include\vector

; 673  :         _Tidy();

  0000d	e8 00 00 00 00	 call	 ?_Tidy@?$vector@V?$basic_string@DU?$char_traits@D@std@@V?$allocator@D@2@@std@@V?$allocator@V?$basic_string@DU?$char_traits@D@std@@V?$allocator@D@2@@std@@@2@@std@@AAEXXZ ; std::vector<std::basic_string<char,std::char_traits<char>,std::allocator<char> >,std::allocator<std::basic_string<char,std::char_traits<char>,std::allocator<char> > > >::_Tidy
; File C:\Program Files (x86)\Microsoft Visual Studio\2019\Community\VC\Tools\MSVC\14.28.29333\include\xstring

; 2801 :         _Tidy_deallocate();

  00012	8b 4d fc	 mov	 ecx, DWORD PTR _this$[ebp]
  00015	e8 00 00 00 00	 call	 ?_Tidy_deallocate@?$basic_string@DU?$char_traits@D@std@@V?$allocator@D@2@@std@@AAEXXZ ; std::basic_string<char,std::char_traits<char>,std::allocator<char> >::_Tidy_deallocate
  0001a	8b 45 08	 mov	 eax, DWORD PTR ___flags$[ebp]
  0001d	83 e0 01	 and	 eax, 1
  00020	74 0c		 je	 SHORT $LN2@scalar
  00022	6a 24		 push	 36			; 00000024H
  00024	ff 75 fc	 push	 DWORD PTR _this$[ebp]
  00027	e8 00 00 00 00	 call	 ??3@YAXPAXI@Z		; operator delete
  0002c	59		 pop	 ecx
  0002d	59		 pop	 ecx
$LN2@scalar:
  0002e	8b 45 fc	 mov	 eax, DWORD PTR _this$[ebp]
  00031	c9		 leave
  00032	c2 04 00	 ret	 4
??_G?$pair@$$CBV?$basic_string@DU?$char_traits@D@std@@V?$allocator@D@2@@std@@V?$vector@V?$basic_string@DU?$char_traits@D@std@@V?$allocator@D@2@@std@@V?$allocator@V?$basic_string@DU?$char_traits@D@std@@V?$allocator@D@2@@std@@@2@@2@@std@@QAEPAXI@Z ENDP ; std::pair<std::basic_string<char,std::char_traits<char>,std::allocator<char> > const ,std::vector<std::basic_string<char,std::char_traits<char>,std::allocator<char> >,std::allocator<std::basic_string<char,std::char_traits<char>,std::allocator<char> > > > >::`scalar deleting destructor'
_TEXT	ENDS
; Function compile flags: /Odspy
; File C:\Program Files (x86)\Microsoft Visual Studio\2019\Community\VC\Tools\MSVC\14.28.29333\include\vector
; File C:\Program Files (x86)\Microsoft Visual Studio\2019\Community\VC\Tools\MSVC\14.28.29333\include\xstring
;	COMDAT ??1?$pair@$$CBV?$basic_string@DU?$char_traits@D@std@@V?$allocator@D@2@@std@@V?$vector@V?$basic_string@DU?$char_traits@D@std@@V?$allocator@D@2@@std@@V?$allocator@V?$basic_string@DU?$char_traits@D@std@@V?$allocator@D@2@@std@@@2@@2@@std@@QAE@XZ
_TEXT	SEGMENT
_this$ = -4						; size = 4
??1?$pair@$$CBV?$basic_string@DU?$char_traits@D@std@@V?$allocator@D@2@@std@@V?$vector@V?$basic_string@DU?$char_traits@D@std@@V?$allocator@D@2@@std@@V?$allocator@V?$basic_string@DU?$char_traits@D@std@@V?$allocator@D@2@@std@@@2@@2@@std@@QAE@XZ PROC ; std::pair<std::basic_string<char,std::char_traits<char>,std::allocator<char> > const ,std::vector<std::basic_string<char,std::char_traits<char>,std::allocator<char> >,std::allocator<std::basic_string<char,std::char_traits<char>,std::allocator<char> > > > >::~pair<std::basic_string<char,std::char_traits<char>,std::allocator<char> > const ,std::vector<std::basic_string<char,std::char_traits<char>,std::allocator<char> >,std::allocator<std::basic_string<char,std::char_traits<char>,std::allocator<char> > > > >, COMDAT
; _this$ = ecx
  00000	55		 push	 ebp
  00001	8b ec		 mov	 ebp, esp
  00003	51		 push	 ecx
  00004	89 4d fc	 mov	 DWORD PTR _this$[ebp], ecx
  00007	8b 4d fc	 mov	 ecx, DWORD PTR _this$[ebp]
  0000a	83 c1 18	 add	 ecx, 24			; 00000018H
; File C:\Program Files (x86)\Microsoft Visual Studio\2019\Community\VC\Tools\MSVC\14.28.29333\include\vector

; 673  :         _Tidy();

  0000d	e8 00 00 00 00	 call	 ?_Tidy@?$vector@V?$basic_string@DU?$char_traits@D@std@@V?$allocator@D@2@@std@@V?$allocator@V?$basic_string@DU?$char_traits@D@std@@V?$allocator@D@2@@std@@@2@@std@@AAEXXZ ; std::vector<std::basic_string<char,std::char_traits<char>,std::allocator<char> >,std::allocator<std::basic_string<char,std::char_traits<char>,std::allocator<char> > > >::_Tidy
; File C:\Program Files (x86)\Microsoft Visual Studio\2019\Community\VC\Tools\MSVC\14.28.29333\include\xstring

; 2801 :         _Tidy_deallocate();

  00012	8b 4d fc	 mov	 ecx, DWORD PTR _this$[ebp]
  00015	e8 00 00 00 00	 call	 ?_Tidy_deallocate@?$basic_string@DU?$char_traits@D@std@@V?$allocator@D@2@@std@@AAEXXZ ; std::basic_string<char,std::char_traits<char>,std::allocator<char> >::_Tidy_deallocate
  0001a	c9		 leave
  0001b	c3		 ret	 0
??1?$pair@$$CBV?$basic_string@DU?$char_traits@D@std@@V?$allocator@D@2@@std@@V?$vector@V?$basic_string@DU?$char_traits@D@std@@V?$allocator@D@2@@std@@V?$allocator@V?$basic_string@DU?$char_traits@D@std@@V?$allocator@D@2@@std@@@2@@2@@std@@QAE@XZ ENDP ; std::pair<std::basic_string<char,std::char_traits<char>,std::allocator<char> > const ,std::vector<std::basic_string<char,std::char_traits<char>,std::allocator<char> >,std::allocator<std::basic_string<char,std::char_traits<char>,std::allocator<char> > > > >::~pair<std::basic_string<char,std::char_traits<char>,std::allocator<char> > const ,std::vector<std::basic_string<char,std::char_traits<char>,std::allocator<char> >,std::allocator<std::basic_string<char,std::char_traits<char>,std::allocator<char> > > > >
_TEXT	ENDS
; Function compile flags: /Odspy
; File C:\Program Files (x86)\Microsoft Visual Studio\2019\Community\VC\Tools\MSVC\14.28.29333\include\xtree
;	COMDAT ?_Insert_node@?$_Tree_val@U?$_Tree_simple_types@U?$pair@$$CBV?$basic_string@DU?$char_traits@D@std@@V?$allocator@D@2@@std@@V?$vector@V?$basic_string@DU?$char_traits@D@std@@V?$allocator@D@2@@std@@V?$allocator@V?$basic_string@DU?$char_traits@D@std@@V?$allocator@D@2@@std@@@2@@2@@std@@@std@@@std@@QAEPAU?$_Tree_node@U?$pair@$$CBV?$basic_string@DU?$char_traits@D@std@@V?$allocator@D@2@@std@@V?$vector@V?$basic_string@DU?$char_traits@D@std@@V?$allocator@D@2@@std@@V?$allocator@V?$basic_string@DU?$char_traits@D@std@@V?$allocator@D@2@@std@@@2@@2@@std@@PAX@2@U?$_Tree_id@PAU?$_Tree_node@U?$pair@$$CBV?$basic_string@DU?$char_traits@D@std@@V?$allocator@D@2@@std@@V?$vector@V?$basic_string@DU?$char_traits@D@std@@V?$allocator@D@2@@std@@V?$allocator@V?$basic_string@DU?$char_traits@D@std@@V?$allocator@D@2@@std@@@2@@2@@std@@PAX@std@@@2@QAU32@@Z
_TEXT	SEGMENT
__Parent_sibling$1 = -20				; size = 4
__Parent_sibling$2 = -16				; size = 4
_this$ = -12						; size = 4
__Head$ = -8						; size = 4
__Pnode$3 = -4						; size = 4
__Loc$ = 8						; size = 8
__Newnode$ = 16						; size = 4
?_Insert_node@?$_Tree_val@U?$_Tree_simple_types@U?$pair@$$CBV?$basic_string@DU?$char_traits@D@std@@V?$allocator@D@2@@std@@V?$vector@V?$basic_string@DU?$char_traits@D@std@@V?$allocator@D@2@@std@@V?$allocator@V?$basic_string@DU?$char_traits@D@std@@V?$allocator@D@2@@std@@@2@@2@@std@@@std@@@std@@QAEPAU?$_Tree_node@U?$pair@$$CBV?$basic_string@DU?$char_traits@D@std@@V?$allocator@D@2@@std@@V?$vector@V?$basic_string@DU?$char_traits@D@std@@V?$allocator@D@2@@std@@V?$allocator@V?$basic_string@DU?$char_traits@D@std@@V?$allocator@D@2@@std@@@2@@2@@std@@PAX@2@U?$_Tree_id@PAU?$_Tree_node@U?$pair@$$CBV?$basic_string@DU?$char_traits@D@std@@V?$allocator@D@2@@std@@V?$vector@V?$basic_string@DU?$char_traits@D@std@@V?$allocator@D@2@@std@@V?$allocator@V?$basic_string@DU?$char_traits@D@std@@V?$allocator@D@2@@std@@@2@@2@@std@@PAX@std@@@2@QAU32@@Z PROC ; std::_Tree_val<std::_Tree_simple_types<std::pair<std::basic_string<char,std::char_traits<char>,std::allocator<char> > const ,std::vector<std::basic_string<char,std::char_traits<char>,std::allocator<char> >,std::allocator<std::basic_string<char,std::char_traits<char>,std::allocator<char> > > > > > >::_Insert_node, COMDAT
; _this$ = ecx

; 644  :     _Nodeptr _Insert_node(const _Tree_id<_Nodeptr> _Loc, const _Nodeptr _Newnode) noexcept {

  00000	55		 push	 ebp
  00001	8b ec		 mov	 ebp, esp
  00003	83 ec 14	 sub	 esp, 20			; 00000014H
  00006	89 4d f4	 mov	 DWORD PTR _this$[ebp], ecx

; 645  :         ++_Mysize;

  00009	8b 45 f4	 mov	 eax, DWORD PTR _this$[ebp]
  0000c	8b 40 04	 mov	 eax, DWORD PTR [eax+4]
  0000f	40		 inc	 eax
  00010	8b 4d f4	 mov	 ecx, DWORD PTR _this$[ebp]
  00013	89 41 04	 mov	 DWORD PTR [ecx+4], eax

; 646  :         const auto _Head  = _Myhead;

  00016	8b 45 f4	 mov	 eax, DWORD PTR _this$[ebp]
  00019	8b 00		 mov	 eax, DWORD PTR [eax]
  0001b	89 45 f8	 mov	 DWORD PTR __Head$[ebp], eax

; 647  :         _Newnode->_Parent = _Loc._Parent;

  0001e	8b 45 10	 mov	 eax, DWORD PTR __Newnode$[ebp]
  00021	8b 4d 08	 mov	 ecx, DWORD PTR __Loc$[ebp]
  00024	89 48 04	 mov	 DWORD PTR [eax+4], ecx

; 648  :         if (_Loc._Parent == _Head) { // first node in tree, just set head values

  00027	8b 45 08	 mov	 eax, DWORD PTR __Loc$[ebp]
  0002a	3b 45 f8	 cmp	 eax, DWORD PTR __Head$[ebp]
  0002d	75 29		 jne	 SHORT $LN5@Insert_nod

; 649  :             _Head->_Left     = _Newnode;

  0002f	8b 45 f8	 mov	 eax, DWORD PTR __Head$[ebp]
  00032	8b 4d 10	 mov	 ecx, DWORD PTR __Newnode$[ebp]
  00035	89 08		 mov	 DWORD PTR [eax], ecx

; 650  :             _Head->_Parent   = _Newnode;

  00037	8b 45 f8	 mov	 eax, DWORD PTR __Head$[ebp]
  0003a	8b 4d 10	 mov	 ecx, DWORD PTR __Newnode$[ebp]
  0003d	89 48 04	 mov	 DWORD PTR [eax+4], ecx

; 651  :             _Head->_Right    = _Newnode;

  00040	8b 45 f8	 mov	 eax, DWORD PTR __Head$[ebp]
  00043	8b 4d 10	 mov	 ecx, DWORD PTR __Newnode$[ebp]
  00046	89 48 08	 mov	 DWORD PTR [eax+8], ecx

; 652  :             _Newnode->_Color = _Black; // the root is black

  00049	8b 45 10	 mov	 eax, DWORD PTR __Newnode$[ebp]
  0004c	c6 40 0c 01	 mov	 BYTE PTR [eax+12], 1

; 653  :             return _Newnode;

  00050	8b 45 10	 mov	 eax, DWORD PTR __Newnode$[ebp]
  00053	e9 a3 01 00 00	 jmp	 $LN18@Insert_nod
$LN5@Insert_nod:

; 654  :         }
; 655  : 
; 656  :         _STL_INTERNAL_CHECK(_Loc._Child != _Tree_child::_Unused);
; 657  :         if (_Loc._Child == _Tree_child::_Right) { // add to right of _Loc._Parent

  00058	83 7d 0c 00	 cmp	 DWORD PTR __Loc$[ebp+4], 0
  0005c	75 1f		 jne	 SHORT $LN6@Insert_nod

; 658  :             _STL_INTERNAL_CHECK(_Loc._Parent->_Right->_Isnil);
; 659  :             _Loc._Parent->_Right = _Newnode;

  0005e	8b 45 08	 mov	 eax, DWORD PTR __Loc$[ebp]
  00061	8b 4d 10	 mov	 ecx, DWORD PTR __Newnode$[ebp]
  00064	89 48 08	 mov	 DWORD PTR [eax+8], ecx

; 660  :             if (_Loc._Parent == _Head->_Right) { // remember rightmost node

  00067	8b 45 f8	 mov	 eax, DWORD PTR __Head$[ebp]
  0006a	8b 4d 08	 mov	 ecx, DWORD PTR __Loc$[ebp]
  0006d	3b 48 08	 cmp	 ecx, DWORD PTR [eax+8]
  00070	75 09		 jne	 SHORT $LN8@Insert_nod

; 661  :                 _Head->_Right = _Newnode;

  00072	8b 45 f8	 mov	 eax, DWORD PTR __Head$[ebp]
  00075	8b 4d 10	 mov	 ecx, DWORD PTR __Newnode$[ebp]
  00078	89 48 08	 mov	 DWORD PTR [eax+8], ecx
$LN8@Insert_nod:

; 662  :             }
; 663  :         } else { // add to left of _Loc._Parent

  0007b	eb 1a		 jmp	 SHORT $LN7@Insert_nod
$LN6@Insert_nod:

; 664  :             _STL_INTERNAL_CHECK(_Loc._Parent->_Left->_Isnil);
; 665  :             _Loc._Parent->_Left = _Newnode;

  0007d	8b 45 08	 mov	 eax, DWORD PTR __Loc$[ebp]
  00080	8b 4d 10	 mov	 ecx, DWORD PTR __Newnode$[ebp]
  00083	89 08		 mov	 DWORD PTR [eax], ecx

; 666  :             if (_Loc._Parent == _Head->_Left) { // remember leftmost node

  00085	8b 45 f8	 mov	 eax, DWORD PTR __Head$[ebp]
  00088	8b 4d 08	 mov	 ecx, DWORD PTR __Loc$[ebp]
  0008b	3b 08		 cmp	 ecx, DWORD PTR [eax]
  0008d	75 08		 jne	 SHORT $LN7@Insert_nod

; 667  :                 _Head->_Left = _Newnode;

  0008f	8b 45 f8	 mov	 eax, DWORD PTR __Head$[ebp]
  00092	8b 4d 10	 mov	 ecx, DWORD PTR __Newnode$[ebp]
  00095	89 08		 mov	 DWORD PTR [eax], ecx
$LN7@Insert_nod:

; 668  :             }
; 669  :         }
; 670  : 
; 671  :         for (_Nodeptr _Pnode = _Newnode; _Pnode->_Parent->_Color == _Red;) {

  00097	8b 45 10	 mov	 eax, DWORD PTR __Newnode$[ebp]
  0009a	89 45 fc	 mov	 DWORD PTR __Pnode$3[ebp], eax
$LN4@Insert_nod:
  0009d	8b 45 fc	 mov	 eax, DWORD PTR __Pnode$3[ebp]
  000a0	8b 40 04	 mov	 eax, DWORD PTR [eax+4]
  000a3	0f be 40 0c	 movsx	 eax, BYTE PTR [eax+12]
  000a7	85 c0		 test	 eax, eax
  000a9	0f 85 3f 01 00
	00		 jne	 $LN3@Insert_nod

; 672  :             if (_Pnode->_Parent == _Pnode->_Parent->_Parent->_Left) { // fixup red-red in left subtree

  000af	8b 45 fc	 mov	 eax, DWORD PTR __Pnode$3[ebp]
  000b2	8b 40 04	 mov	 eax, DWORD PTR [eax+4]
  000b5	8b 40 04	 mov	 eax, DWORD PTR [eax+4]
  000b8	8b 4d fc	 mov	 ecx, DWORD PTR __Pnode$3[ebp]
  000bb	8b 49 04	 mov	 ecx, DWORD PTR [ecx+4]
  000be	3b 08		 cmp	 ecx, DWORD PTR [eax]
  000c0	0f 85 95 00 00
	00		 jne	 $LN10@Insert_nod

; 673  :                 const auto _Parent_sibling = _Pnode->_Parent->_Parent->_Right;

  000c6	8b 45 fc	 mov	 eax, DWORD PTR __Pnode$3[ebp]
  000c9	8b 40 04	 mov	 eax, DWORD PTR [eax+4]
  000cc	8b 40 04	 mov	 eax, DWORD PTR [eax+4]
  000cf	8b 40 08	 mov	 eax, DWORD PTR [eax+8]
  000d2	89 45 f0	 mov	 DWORD PTR __Parent_sibling$2[ebp], eax

; 674  :                 if (_Parent_sibling->_Color == _Red) { // parent's sibling has two red children, blacken both

  000d5	8b 45 f0	 mov	 eax, DWORD PTR __Parent_sibling$2[ebp]
  000d8	0f be 40 0c	 movsx	 eax, BYTE PTR [eax+12]
  000dc	85 c0		 test	 eax, eax
  000de	75 2c		 jne	 SHORT $LN12@Insert_nod

; 675  :                     _Pnode->_Parent->_Color          = _Black;

  000e0	8b 45 fc	 mov	 eax, DWORD PTR __Pnode$3[ebp]
  000e3	8b 40 04	 mov	 eax, DWORD PTR [eax+4]
  000e6	c6 40 0c 01	 mov	 BYTE PTR [eax+12], 1

; 676  :                     _Parent_sibling->_Color          = _Black;

  000ea	8b 45 f0	 mov	 eax, DWORD PTR __Parent_sibling$2[ebp]
  000ed	c6 40 0c 01	 mov	 BYTE PTR [eax+12], 1

; 677  :                     _Pnode->_Parent->_Parent->_Color = _Red;

  000f1	8b 45 fc	 mov	 eax, DWORD PTR __Pnode$3[ebp]
  000f4	8b 40 04	 mov	 eax, DWORD PTR [eax+4]
  000f7	8b 40 04	 mov	 eax, DWORD PTR [eax+4]
  000fa	c6 40 0c 00	 mov	 BYTE PTR [eax+12], 0

; 678  :                     _Pnode                           = _Pnode->_Parent->_Parent;

  000fe	8b 45 fc	 mov	 eax, DWORD PTR __Pnode$3[ebp]
  00101	8b 40 04	 mov	 eax, DWORD PTR [eax+4]
  00104	8b 40 04	 mov	 eax, DWORD PTR [eax+4]
  00107	89 45 fc	 mov	 DWORD PTR __Pnode$3[ebp], eax

; 679  :                 } else { // parent's sibling has red and black children

  0010a	eb 4a		 jmp	 SHORT $LN13@Insert_nod
$LN12@Insert_nod:

; 680  :                     if (_Pnode == _Pnode->_Parent->_Right) { // rotate right child to left

  0010c	8b 45 fc	 mov	 eax, DWORD PTR __Pnode$3[ebp]
  0010f	8b 40 04	 mov	 eax, DWORD PTR [eax+4]
  00112	8b 4d fc	 mov	 ecx, DWORD PTR __Pnode$3[ebp]
  00115	3b 48 08	 cmp	 ecx, DWORD PTR [eax+8]
  00118	75 14		 jne	 SHORT $LN14@Insert_nod

; 681  :                         _Pnode = _Pnode->_Parent;

  0011a	8b 45 fc	 mov	 eax, DWORD PTR __Pnode$3[ebp]
  0011d	8b 40 04	 mov	 eax, DWORD PTR [eax+4]
  00120	89 45 fc	 mov	 DWORD PTR __Pnode$3[ebp], eax

; 682  :                         _Lrotate(_Pnode);

  00123	ff 75 fc	 push	 DWORD PTR __Pnode$3[ebp]
  00126	8b 4d f4	 mov	 ecx, DWORD PTR _this$[ebp]
  00129	e8 00 00 00 00	 call	 ?_Lrotate@?$_Tree_val@U?$_Tree_simple_types@U?$pair@$$CBV?$basic_string@DU?$char_traits@D@std@@V?$allocator@D@2@@std@@V?$vector@V?$basic_string@DU?$char_traits@D@std@@V?$allocator@D@2@@std@@V?$allocator@V?$basic_string@DU?$char_traits@D@std@@V?$allocator@D@2@@std@@@2@@2@@std@@@std@@@std@@QAEXPAU?$_Tree_node@U?$pair@$$CBV?$basic_string@DU?$char_traits@D@std@@V?$allocator@D@2@@std@@V?$vector@V?$basic_string@DU?$char_traits@D@std@@V?$allocator@D@2@@std@@V?$allocator@V?$basic_string@DU?$char_traits@D@std@@V?$allocator@D@2@@std@@@2@@2@@std@@PAX@2@@Z ; std::_Tree_val<std::_Tree_simple_types<std::pair<std::basic_string<char,std::char_traits<char>,std::allocator<char> > const ,std::vector<std::basic_string<char,std::char_traits<char>,std::allocator<char> >,std::allocator<std::basic_string<char,std::char_traits<char>,std::allocator<char> > > > > > >::_Lrotate
$LN14@Insert_nod:

; 683  :                     }
; 684  : 
; 685  :                     _Pnode->_Parent->_Color          = _Black; // propagate red up

  0012e	8b 45 fc	 mov	 eax, DWORD PTR __Pnode$3[ebp]
  00131	8b 40 04	 mov	 eax, DWORD PTR [eax+4]
  00134	c6 40 0c 01	 mov	 BYTE PTR [eax+12], 1

; 686  :                     _Pnode->_Parent->_Parent->_Color = _Red;

  00138	8b 45 fc	 mov	 eax, DWORD PTR __Pnode$3[ebp]
  0013b	8b 40 04	 mov	 eax, DWORD PTR [eax+4]
  0013e	8b 40 04	 mov	 eax, DWORD PTR [eax+4]
  00141	c6 40 0c 00	 mov	 BYTE PTR [eax+12], 0

; 687  :                     _Rrotate(_Pnode->_Parent->_Parent);

  00145	8b 45 fc	 mov	 eax, DWORD PTR __Pnode$3[ebp]
  00148	8b 40 04	 mov	 eax, DWORD PTR [eax+4]
  0014b	ff 70 04	 push	 DWORD PTR [eax+4]
  0014e	8b 4d f4	 mov	 ecx, DWORD PTR _this$[ebp]
  00151	e8 00 00 00 00	 call	 ?_Rrotate@?$_Tree_val@U?$_Tree_simple_types@U?$pair@$$CBV?$basic_string@DU?$char_traits@D@std@@V?$allocator@D@2@@std@@V?$vector@V?$basic_string@DU?$char_traits@D@std@@V?$allocator@D@2@@std@@V?$allocator@V?$basic_string@DU?$char_traits@D@std@@V?$allocator@D@2@@std@@@2@@2@@std@@@std@@@std@@QAEXPAU?$_Tree_node@U?$pair@$$CBV?$basic_string@DU?$char_traits@D@std@@V?$allocator@D@2@@std@@V?$vector@V?$basic_string@DU?$char_traits@D@std@@V?$allocator@D@2@@std@@V?$allocator@V?$basic_string@DU?$char_traits@D@std@@V?$allocator@D@2@@std@@@2@@2@@std@@PAX@2@@Z ; std::_Tree_val<std::_Tree_simple_types<std::pair<std::basic_string<char,std::char_traits<char>,std::allocator<char> > const ,std::vector<std::basic_string<char,std::char_traits<char>,std::allocator<char> >,std::allocator<std::basic_string<char,std::char_traits<char>,std::allocator<char> > > > > > >::_Rrotate
$LN13@Insert_nod:

; 688  :                 }
; 689  :             } else { // fixup red-red in right subtree

  00156	e9 8e 00 00 00	 jmp	 $LN11@Insert_nod
$LN10@Insert_nod:

; 690  :                 const auto _Parent_sibling = _Pnode->_Parent->_Parent->_Left;

  0015b	8b 45 fc	 mov	 eax, DWORD PTR __Pnode$3[ebp]
  0015e	8b 40 04	 mov	 eax, DWORD PTR [eax+4]
  00161	8b 40 04	 mov	 eax, DWORD PTR [eax+4]
  00164	8b 00		 mov	 eax, DWORD PTR [eax]
  00166	89 45 ec	 mov	 DWORD PTR __Parent_sibling$1[ebp], eax

; 691  :                 if (_Parent_sibling->_Color == _Red) { // parent's sibling has two red children, blacken both

  00169	8b 45 ec	 mov	 eax, DWORD PTR __Parent_sibling$1[ebp]
  0016c	0f be 40 0c	 movsx	 eax, BYTE PTR [eax+12]
  00170	85 c0		 test	 eax, eax
  00172	75 2c		 jne	 SHORT $LN15@Insert_nod

; 692  :                     _Pnode->_Parent->_Color          = _Black;

  00174	8b 45 fc	 mov	 eax, DWORD PTR __Pnode$3[ebp]
  00177	8b 40 04	 mov	 eax, DWORD PTR [eax+4]
  0017a	c6 40 0c 01	 mov	 BYTE PTR [eax+12], 1

; 693  :                     _Parent_sibling->_Color          = _Black;

  0017e	8b 45 ec	 mov	 eax, DWORD PTR __Parent_sibling$1[ebp]
  00181	c6 40 0c 01	 mov	 BYTE PTR [eax+12], 1

; 694  :                     _Pnode->_Parent->_Parent->_Color = _Red;

  00185	8b 45 fc	 mov	 eax, DWORD PTR __Pnode$3[ebp]
  00188	8b 40 04	 mov	 eax, DWORD PTR [eax+4]
  0018b	8b 40 04	 mov	 eax, DWORD PTR [eax+4]
  0018e	c6 40 0c 00	 mov	 BYTE PTR [eax+12], 0

; 695  :                     _Pnode                           = _Pnode->_Parent->_Parent;

  00192	8b 45 fc	 mov	 eax, DWORD PTR __Pnode$3[ebp]
  00195	8b 40 04	 mov	 eax, DWORD PTR [eax+4]
  00198	8b 40 04	 mov	 eax, DWORD PTR [eax+4]
  0019b	89 45 fc	 mov	 DWORD PTR __Pnode$3[ebp], eax

; 696  :                 } else { // parent's sibling has red and black children

  0019e	eb 49		 jmp	 SHORT $LN11@Insert_nod
$LN15@Insert_nod:

; 697  :                     if (_Pnode == _Pnode->_Parent->_Left) { // rotate left child to right

  001a0	8b 45 fc	 mov	 eax, DWORD PTR __Pnode$3[ebp]
  001a3	8b 40 04	 mov	 eax, DWORD PTR [eax+4]
  001a6	8b 4d fc	 mov	 ecx, DWORD PTR __Pnode$3[ebp]
  001a9	3b 08		 cmp	 ecx, DWORD PTR [eax]
  001ab	75 14		 jne	 SHORT $LN17@Insert_nod

; 698  :                         _Pnode = _Pnode->_Parent;

  001ad	8b 45 fc	 mov	 eax, DWORD PTR __Pnode$3[ebp]
  001b0	8b 40 04	 mov	 eax, DWORD PTR [eax+4]
  001b3	89 45 fc	 mov	 DWORD PTR __Pnode$3[ebp], eax

; 699  :                         _Rrotate(_Pnode);

  001b6	ff 75 fc	 push	 DWORD PTR __Pnode$3[ebp]
  001b9	8b 4d f4	 mov	 ecx, DWORD PTR _this$[ebp]
  001bc	e8 00 00 00 00	 call	 ?_Rrotate@?$_Tree_val@U?$_Tree_simple_types@U?$pair@$$CBV?$basic_string@DU?$char_traits@D@std@@V?$allocator@D@2@@std@@V?$vector@V?$basic_string@DU?$char_traits@D@std@@V?$allocator@D@2@@std@@V?$allocator@V?$basic_string@DU?$char_traits@D@std@@V?$allocator@D@2@@std@@@2@@2@@std@@@std@@@std@@QAEXPAU?$_Tree_node@U?$pair@$$CBV?$basic_string@DU?$char_traits@D@std@@V?$allocator@D@2@@std@@V?$vector@V?$basic_string@DU?$char_traits@D@std@@V?$allocator@D@2@@std@@V?$allocator@V?$basic_string@DU?$char_traits@D@std@@V?$allocator@D@2@@std@@@2@@2@@std@@PAX@2@@Z ; std::_Tree_val<std::_Tree_simple_types<std::pair<std::basic_string<char,std::char_traits<char>,std::allocator<char> > const ,std::vector<std::basic_string<char,std::char_traits<char>,std::allocator<char> >,std::allocator<std::basic_string<char,std::char_traits<char>,std::allocator<char> > > > > > >::_Rrotate
$LN17@Insert_nod:

; 700  :                     }
; 701  : 
; 702  :                     _Pnode->_Parent->_Color          = _Black; // propagate red up

  001c1	8b 45 fc	 mov	 eax, DWORD PTR __Pnode$3[ebp]
  001c4	8b 40 04	 mov	 eax, DWORD PTR [eax+4]
  001c7	c6 40 0c 01	 mov	 BYTE PTR [eax+12], 1

; 703  :                     _Pnode->_Parent->_Parent->_Color = _Red;

  001cb	8b 45 fc	 mov	 eax, DWORD PTR __Pnode$3[ebp]
  001ce	8b 40 04	 mov	 eax, DWORD PTR [eax+4]
  001d1	8b 40 04	 mov	 eax, DWORD PTR [eax+4]
  001d4	c6 40 0c 00	 mov	 BYTE PTR [eax+12], 0

; 704  :                     _Lrotate(_Pnode->_Parent->_Parent);

  001d8	8b 45 fc	 mov	 eax, DWORD PTR __Pnode$3[ebp]
  001db	8b 40 04	 mov	 eax, DWORD PTR [eax+4]
  001de	ff 70 04	 push	 DWORD PTR [eax+4]
  001e1	8b 4d f4	 mov	 ecx, DWORD PTR _this$[ebp]
  001e4	e8 00 00 00 00	 call	 ?_Lrotate@?$_Tree_val@U?$_Tree_simple_types@U?$pair@$$CBV?$basic_string@DU?$char_traits@D@std@@V?$allocator@D@2@@std@@V?$vector@V?$basic_string@DU?$char_traits@D@std@@V?$allocator@D@2@@std@@V?$allocator@V?$basic_string@DU?$char_traits@D@std@@V?$allocator@D@2@@std@@@2@@2@@std@@@std@@@std@@QAEXPAU?$_Tree_node@U?$pair@$$CBV?$basic_string@DU?$char_traits@D@std@@V?$allocator@D@2@@std@@V?$vector@V?$basic_string@DU?$char_traits@D@std@@V?$allocator@D@2@@std@@V?$allocator@V?$basic_string@DU?$char_traits@D@std@@V?$allocator@D@2@@std@@@2@@2@@std@@PAX@2@@Z ; std::_Tree_val<std::_Tree_simple_types<std::pair<std::basic_string<char,std::char_traits<char>,std::allocator<char> > const ,std::vector<std::basic_string<char,std::char_traits<char>,std::allocator<char> >,std::allocator<std::basic_string<char,std::char_traits<char>,std::allocator<char> > > > > > >::_Lrotate
$LN11@Insert_nod:

; 705  :                 }
; 706  :             }
; 707  :         }

  001e9	e9 af fe ff ff	 jmp	 $LN4@Insert_nod
$LN3@Insert_nod:

; 708  : 
; 709  :         _Head->_Parent->_Color = _Black; // root is always black

  001ee	8b 45 f8	 mov	 eax, DWORD PTR __Head$[ebp]
  001f1	8b 40 04	 mov	 eax, DWORD PTR [eax+4]
  001f4	c6 40 0c 01	 mov	 BYTE PTR [eax+12], 1

; 710  :         return _Newnode;

  001f8	8b 45 10	 mov	 eax, DWORD PTR __Newnode$[ebp]
$LN18@Insert_nod:

; 711  :     }

  001fb	c9		 leave
  001fc	c2 0c 00	 ret	 12			; 0000000cH
?_Insert_node@?$_Tree_val@U?$_Tree_simple_types@U?$pair@$$CBV?$basic_string@DU?$char_traits@D@std@@V?$allocator@D@2@@std@@V?$vector@V?$basic_string@DU?$char_traits@D@std@@V?$allocator@D@2@@std@@V?$allocator@V?$basic_string@DU?$char_traits@D@std@@V?$allocator@D@2@@std@@@2@@2@@std@@@std@@@std@@QAEPAU?$_Tree_node@U?$pair@$$CBV?$basic_string@DU?$char_traits@D@std@@V?$allocator@D@2@@std@@V?$vector@V?$basic_string@DU?$char_traits@D@std@@V?$allocator@D@2@@std@@V?$allocator@V?$basic_string@DU?$char_traits@D@std@@V?$allocator@D@2@@std@@@2@@2@@std@@PAX@2@U?$_Tree_id@PAU?$_Tree_node@U?$pair@$$CBV?$basic_string@DU?$char_traits@D@std@@V?$allocator@D@2@@std@@V?$vector@V?$basic_string@DU?$char_traits@D@std@@V?$allocator@D@2@@std@@V?$allocator@V?$basic_string@DU?$char_traits@D@std@@V?$allocator@D@2@@std@@@2@@2@@std@@PAX@std@@@2@QAU32@@Z ENDP ; std::_Tree_val<std::_Tree_simple_types<std::pair<std::basic_string<char,std::char_traits<char>,std::allocator<char> > const ,std::vector<std::basic_string<char,std::char_traits<char>,std::allocator<char> >,std::allocator<std::basic_string<char,std::char_traits<char>,std::allocator<char> > > > > > >::_Insert_node
_TEXT	ENDS
; Function compile flags: /Odspy
; File C:\Program Files (x86)\Microsoft Visual Studio\2019\Community\VC\Tools\MSVC\14.28.29333\include\xtree
;	COMDAT ?_Rrotate@?$_Tree_val@U?$_Tree_simple_types@U?$pair@$$CBV?$basic_string@DU?$char_traits@D@std@@V?$allocator@D@2@@std@@V?$vector@V?$basic_string@DU?$char_traits@D@std@@V?$allocator@D@2@@std@@V?$allocator@V?$basic_string@DU?$char_traits@D@std@@V?$allocator@D@2@@std@@@2@@2@@std@@@std@@@std@@QAEXPAU?$_Tree_node@U?$pair@$$CBV?$basic_string@DU?$char_traits@D@std@@V?$allocator@D@2@@std@@V?$vector@V?$basic_string@DU?$char_traits@D@std@@V?$allocator@D@2@@std@@V?$allocator@V?$basic_string@DU?$char_traits@D@std@@V?$allocator@D@2@@std@@@2@@2@@std@@PAX@2@@Z
_TEXT	SEGMENT
_this$ = -8						; size = 4
__Pnode$ = -4						; size = 4
__Wherenode$ = 8					; size = 4
?_Rrotate@?$_Tree_val@U?$_Tree_simple_types@U?$pair@$$CBV?$basic_string@DU?$char_traits@D@std@@V?$allocator@D@2@@std@@V?$vector@V?$basic_string@DU?$char_traits@D@std@@V?$allocator@D@2@@std@@V?$allocator@V?$basic_string@DU?$char_traits@D@std@@V?$allocator@D@2@@std@@@2@@2@@std@@@std@@@std@@QAEXPAU?$_Tree_node@U?$pair@$$CBV?$basic_string@DU?$char_traits@D@std@@V?$allocator@D@2@@std@@V?$vector@V?$basic_string@DU?$char_traits@D@std@@V?$allocator@D@2@@std@@V?$allocator@V?$basic_string@DU?$char_traits@D@std@@V?$allocator@D@2@@std@@@2@@2@@std@@PAX@2@@Z PROC ; std::_Tree_val<std::_Tree_simple_types<std::pair<std::basic_string<char,std::char_traits<char>,std::allocator<char> > const ,std::vector<std::basic_string<char,std::char_traits<char>,std::allocator<char> >,std::allocator<std::basic_string<char,std::char_traits<char>,std::allocator<char> > > > > > >::_Rrotate, COMDAT
; _this$ = ecx

; 480  :     void _Rrotate(_Nodeptr _Wherenode) noexcept { // promote left node to root of subtree

  00000	55		 push	 ebp
  00001	8b ec		 mov	 ebp, esp
  00003	51		 push	 ecx
  00004	51		 push	 ecx
  00005	89 4d f8	 mov	 DWORD PTR _this$[ebp], ecx

; 481  :         _Nodeptr _Pnode   = _Wherenode->_Left;

  00008	8b 45 08	 mov	 eax, DWORD PTR __Wherenode$[ebp]
  0000b	8b 00		 mov	 eax, DWORD PTR [eax]
  0000d	89 45 fc	 mov	 DWORD PTR __Pnode$[ebp], eax

; 482  :         _Wherenode->_Left = _Pnode->_Right;

  00010	8b 45 08	 mov	 eax, DWORD PTR __Wherenode$[ebp]
  00013	8b 4d fc	 mov	 ecx, DWORD PTR __Pnode$[ebp]
  00016	8b 49 08	 mov	 ecx, DWORD PTR [ecx+8]
  00019	89 08		 mov	 DWORD PTR [eax], ecx

; 483  : 
; 484  :         if (!_Pnode->_Right->_Isnil) {

  0001b	8b 45 fc	 mov	 eax, DWORD PTR __Pnode$[ebp]
  0001e	8b 40 08	 mov	 eax, DWORD PTR [eax+8]
  00021	0f be 40 0d	 movsx	 eax, BYTE PTR [eax+13]
  00025	85 c0		 test	 eax, eax
  00027	75 0c		 jne	 SHORT $LN2@Rrotate

; 485  :             _Pnode->_Right->_Parent = _Wherenode;

  00029	8b 45 fc	 mov	 eax, DWORD PTR __Pnode$[ebp]
  0002c	8b 40 08	 mov	 eax, DWORD PTR [eax+8]
  0002f	8b 4d 08	 mov	 ecx, DWORD PTR __Wherenode$[ebp]
  00032	89 48 04	 mov	 DWORD PTR [eax+4], ecx
$LN2@Rrotate:

; 486  :         }
; 487  : 
; 488  :         _Pnode->_Parent = _Wherenode->_Parent;

  00035	8b 45 fc	 mov	 eax, DWORD PTR __Pnode$[ebp]
  00038	8b 4d 08	 mov	 ecx, DWORD PTR __Wherenode$[ebp]
  0003b	8b 49 04	 mov	 ecx, DWORD PTR [ecx+4]
  0003e	89 48 04	 mov	 DWORD PTR [eax+4], ecx

; 489  : 
; 490  :         if (_Wherenode == _Myhead->_Parent) {

  00041	8b 45 f8	 mov	 eax, DWORD PTR _this$[ebp]
  00044	8b 00		 mov	 eax, DWORD PTR [eax]
  00046	8b 4d 08	 mov	 ecx, DWORD PTR __Wherenode$[ebp]
  00049	3b 48 04	 cmp	 ecx, DWORD PTR [eax+4]
  0004c	75 0d		 jne	 SHORT $LN3@Rrotate

; 491  :             _Myhead->_Parent = _Pnode;

  0004e	8b 45 f8	 mov	 eax, DWORD PTR _this$[ebp]
  00051	8b 00		 mov	 eax, DWORD PTR [eax]
  00053	8b 4d fc	 mov	 ecx, DWORD PTR __Pnode$[ebp]
  00056	89 48 04	 mov	 DWORD PTR [eax+4], ecx
  00059	eb 27		 jmp	 SHORT $LN4@Rrotate
$LN3@Rrotate:

; 492  :         } else if (_Wherenode == _Wherenode->_Parent->_Right) {

  0005b	8b 45 08	 mov	 eax, DWORD PTR __Wherenode$[ebp]
  0005e	8b 40 04	 mov	 eax, DWORD PTR [eax+4]
  00061	8b 4d 08	 mov	 ecx, DWORD PTR __Wherenode$[ebp]
  00064	3b 48 08	 cmp	 ecx, DWORD PTR [eax+8]
  00067	75 0e		 jne	 SHORT $LN5@Rrotate

; 493  :             _Wherenode->_Parent->_Right = _Pnode;

  00069	8b 45 08	 mov	 eax, DWORD PTR __Wherenode$[ebp]
  0006c	8b 40 04	 mov	 eax, DWORD PTR [eax+4]
  0006f	8b 4d fc	 mov	 ecx, DWORD PTR __Pnode$[ebp]
  00072	89 48 08	 mov	 DWORD PTR [eax+8], ecx

; 494  :         } else {

  00075	eb 0b		 jmp	 SHORT $LN4@Rrotate
$LN5@Rrotate:

; 495  :             _Wherenode->_Parent->_Left = _Pnode;

  00077	8b 45 08	 mov	 eax, DWORD PTR __Wherenode$[ebp]
  0007a	8b 40 04	 mov	 eax, DWORD PTR [eax+4]
  0007d	8b 4d fc	 mov	 ecx, DWORD PTR __Pnode$[ebp]
  00080	89 08		 mov	 DWORD PTR [eax], ecx
$LN4@Rrotate:

; 496  :         }
; 497  : 
; 498  :         _Pnode->_Right      = _Wherenode;

  00082	8b 45 fc	 mov	 eax, DWORD PTR __Pnode$[ebp]
  00085	8b 4d 08	 mov	 ecx, DWORD PTR __Wherenode$[ebp]
  00088	89 48 08	 mov	 DWORD PTR [eax+8], ecx

; 499  :         _Wherenode->_Parent = _Pnode;

  0008b	8b 45 08	 mov	 eax, DWORD PTR __Wherenode$[ebp]
  0008e	8b 4d fc	 mov	 ecx, DWORD PTR __Pnode$[ebp]
  00091	89 48 04	 mov	 DWORD PTR [eax+4], ecx

; 500  :     }

  00094	c9		 leave
  00095	c2 04 00	 ret	 4
?_Rrotate@?$_Tree_val@U?$_Tree_simple_types@U?$pair@$$CBV?$basic_string@DU?$char_traits@D@std@@V?$allocator@D@2@@std@@V?$vector@V?$basic_string@DU?$char_traits@D@std@@V?$allocator@D@2@@std@@V?$allocator@V?$basic_string@DU?$char_traits@D@std@@V?$allocator@D@2@@std@@@2@@2@@std@@@std@@@std@@QAEXPAU?$_Tree_node@U?$pair@$$CBV?$basic_string@DU?$char_traits@D@std@@V?$allocator@D@2@@std@@V?$vector@V?$basic_string@DU?$char_traits@D@std@@V?$allocator@D@2@@std@@V?$allocator@V?$basic_string@DU?$char_traits@D@std@@V?$allocator@D@2@@std@@@2@@2@@std@@PAX@2@@Z ENDP ; std::_Tree_val<std::_Tree_simple_types<std::pair<std::basic_string<char,std::char_traits<char>,std::allocator<char> > const ,std::vector<std::basic_string<char,std::char_traits<char>,std::allocator<char> >,std::allocator<std::basic_string<char,std::char_traits<char>,std::allocator<char> > > > > > >::_Rrotate
_TEXT	ENDS
; Function compile flags: /Odspy
; File C:\Program Files (x86)\Microsoft Visual Studio\2019\Community\VC\Tools\MSVC\14.28.29333\include\xtree
;	COMDAT ?_Lrotate@?$_Tree_val@U?$_Tree_simple_types@U?$pair@$$CBV?$basic_string@DU?$char_traits@D@std@@V?$allocator@D@2@@std@@V?$vector@V?$basic_string@DU?$char_traits@D@std@@V?$allocator@D@2@@std@@V?$allocator@V?$basic_string@DU?$char_traits@D@std@@V?$allocator@D@2@@std@@@2@@2@@std@@@std@@@std@@QAEXPAU?$_Tree_node@U?$pair@$$CBV?$basic_string@DU?$char_traits@D@std@@V?$allocator@D@2@@std@@V?$vector@V?$basic_string@DU?$char_traits@D@std@@V?$allocator@D@2@@std@@V?$allocator@V?$basic_string@DU?$char_traits@D@std@@V?$allocator@D@2@@std@@@2@@2@@std@@PAX@2@@Z
_TEXT	SEGMENT
_this$ = -8						; size = 4
__Pnode$ = -4						; size = 4
__Wherenode$ = 8					; size = 4
?_Lrotate@?$_Tree_val@U?$_Tree_simple_types@U?$pair@$$CBV?$basic_string@DU?$char_traits@D@std@@V?$allocator@D@2@@std@@V?$vector@V?$basic_string@DU?$char_traits@D@std@@V?$allocator@D@2@@std@@V?$allocator@V?$basic_string@DU?$char_traits@D@std@@V?$allocator@D@2@@std@@@2@@2@@std@@@std@@@std@@QAEXPAU?$_Tree_node@U?$pair@$$CBV?$basic_string@DU?$char_traits@D@std@@V?$allocator@D@2@@std@@V?$vector@V?$basic_string@DU?$char_traits@D@std@@V?$allocator@D@2@@std@@V?$allocator@V?$basic_string@DU?$char_traits@D@std@@V?$allocator@D@2@@std@@@2@@2@@std@@PAX@2@@Z PROC ; std::_Tree_val<std::_Tree_simple_types<std::pair<std::basic_string<char,std::char_traits<char>,std::allocator<char> > const ,std::vector<std::basic_string<char,std::char_traits<char>,std::allocator<char> >,std::allocator<std::basic_string<char,std::char_traits<char>,std::allocator<char> > > > > > >::_Lrotate, COMDAT
; _this$ = ecx

; 458  :     void _Lrotate(_Nodeptr _Wherenode) noexcept { // promote right node to root of subtree

  00000	55		 push	 ebp
  00001	8b ec		 mov	 ebp, esp
  00003	51		 push	 ecx
  00004	51		 push	 ecx
  00005	89 4d f8	 mov	 DWORD PTR _this$[ebp], ecx

; 459  :         _Nodeptr _Pnode    = _Wherenode->_Right;

  00008	8b 45 08	 mov	 eax, DWORD PTR __Wherenode$[ebp]
  0000b	8b 40 08	 mov	 eax, DWORD PTR [eax+8]
  0000e	89 45 fc	 mov	 DWORD PTR __Pnode$[ebp], eax

; 460  :         _Wherenode->_Right = _Pnode->_Left;

  00011	8b 45 08	 mov	 eax, DWORD PTR __Wherenode$[ebp]
  00014	8b 4d fc	 mov	 ecx, DWORD PTR __Pnode$[ebp]
  00017	8b 09		 mov	 ecx, DWORD PTR [ecx]
  00019	89 48 08	 mov	 DWORD PTR [eax+8], ecx

; 461  : 
; 462  :         if (!_Pnode->_Left->_Isnil) {

  0001c	8b 45 fc	 mov	 eax, DWORD PTR __Pnode$[ebp]
  0001f	8b 00		 mov	 eax, DWORD PTR [eax]
  00021	0f be 40 0d	 movsx	 eax, BYTE PTR [eax+13]
  00025	85 c0		 test	 eax, eax
  00027	75 0b		 jne	 SHORT $LN2@Lrotate

; 463  :             _Pnode->_Left->_Parent = _Wherenode;

  00029	8b 45 fc	 mov	 eax, DWORD PTR __Pnode$[ebp]
  0002c	8b 00		 mov	 eax, DWORD PTR [eax]
  0002e	8b 4d 08	 mov	 ecx, DWORD PTR __Wherenode$[ebp]
  00031	89 48 04	 mov	 DWORD PTR [eax+4], ecx
$LN2@Lrotate:

; 464  :         }
; 465  : 
; 466  :         _Pnode->_Parent = _Wherenode->_Parent;

  00034	8b 45 fc	 mov	 eax, DWORD PTR __Pnode$[ebp]
  00037	8b 4d 08	 mov	 ecx, DWORD PTR __Wherenode$[ebp]
  0003a	8b 49 04	 mov	 ecx, DWORD PTR [ecx+4]
  0003d	89 48 04	 mov	 DWORD PTR [eax+4], ecx

; 467  : 
; 468  :         if (_Wherenode == _Myhead->_Parent) {

  00040	8b 45 f8	 mov	 eax, DWORD PTR _this$[ebp]
  00043	8b 00		 mov	 eax, DWORD PTR [eax]
  00045	8b 4d 08	 mov	 ecx, DWORD PTR __Wherenode$[ebp]
  00048	3b 48 04	 cmp	 ecx, DWORD PTR [eax+4]
  0004b	75 0d		 jne	 SHORT $LN3@Lrotate

; 469  :             _Myhead->_Parent = _Pnode;

  0004d	8b 45 f8	 mov	 eax, DWORD PTR _this$[ebp]
  00050	8b 00		 mov	 eax, DWORD PTR [eax]
  00052	8b 4d fc	 mov	 ecx, DWORD PTR __Pnode$[ebp]
  00055	89 48 04	 mov	 DWORD PTR [eax+4], ecx
  00058	eb 26		 jmp	 SHORT $LN4@Lrotate
$LN3@Lrotate:

; 470  :         } else if (_Wherenode == _Wherenode->_Parent->_Left) {

  0005a	8b 45 08	 mov	 eax, DWORD PTR __Wherenode$[ebp]
  0005d	8b 40 04	 mov	 eax, DWORD PTR [eax+4]
  00060	8b 4d 08	 mov	 ecx, DWORD PTR __Wherenode$[ebp]
  00063	3b 08		 cmp	 ecx, DWORD PTR [eax]
  00065	75 0d		 jne	 SHORT $LN5@Lrotate

; 471  :             _Wherenode->_Parent->_Left = _Pnode;

  00067	8b 45 08	 mov	 eax, DWORD PTR __Wherenode$[ebp]
  0006a	8b 40 04	 mov	 eax, DWORD PTR [eax+4]
  0006d	8b 4d fc	 mov	 ecx, DWORD PTR __Pnode$[ebp]
  00070	89 08		 mov	 DWORD PTR [eax], ecx

; 472  :         } else {

  00072	eb 0c		 jmp	 SHORT $LN4@Lrotate
$LN5@Lrotate:

; 473  :             _Wherenode->_Parent->_Right = _Pnode;

  00074	8b 45 08	 mov	 eax, DWORD PTR __Wherenode$[ebp]
  00077	8b 40 04	 mov	 eax, DWORD PTR [eax+4]
  0007a	8b 4d fc	 mov	 ecx, DWORD PTR __Pnode$[ebp]
  0007d	89 48 08	 mov	 DWORD PTR [eax+8], ecx
$LN4@Lrotate:

; 474  :         }
; 475  : 
; 476  :         _Pnode->_Left       = _Wherenode;

  00080	8b 45 fc	 mov	 eax, DWORD PTR __Pnode$[ebp]
  00083	8b 4d 08	 mov	 ecx, DWORD PTR __Wherenode$[ebp]
  00086	89 08		 mov	 DWORD PTR [eax], ecx

; 477  :         _Wherenode->_Parent = _Pnode;

  00088	8b 45 08	 mov	 eax, DWORD PTR __Wherenode$[ebp]
  0008b	8b 4d fc	 mov	 ecx, DWORD PTR __Pnode$[ebp]
  0008e	89 48 04	 mov	 DWORD PTR [eax+4], ecx

; 478  :     }

  00091	c9		 leave
  00092	c2 04 00	 ret	 4
?_Lrotate@?$_Tree_val@U?$_Tree_simple_types@U?$pair@$$CBV?$basic_string@DU?$char_traits@D@std@@V?$allocator@D@2@@std@@V?$vector@V?$basic_string@DU?$char_traits@D@std@@V?$allocator@D@2@@std@@V?$allocator@V?$basic_string@DU?$char_traits@D@std@@V?$allocator@D@2@@std@@@2@@2@@std@@@std@@@std@@QAEXPAU?$_Tree_node@U?$pair@$$CBV?$basic_string@DU?$char_traits@D@std@@V?$allocator@D@2@@std@@V?$vector@V?$basic_string@DU?$char_traits@D@std@@V?$allocator@D@2@@std@@V?$allocator@V?$basic_string@DU?$char_traits@D@std@@V?$allocator@D@2@@std@@@2@@2@@std@@PAX@2@@Z ENDP ; std::_Tree_val<std::_Tree_simple_types<std::pair<std::basic_string<char,std::char_traits<char>,std::allocator<char> > const ,std::vector<std::basic_string<char,std::char_traits<char>,std::allocator<char> >,std::allocator<std::basic_string<char,std::char_traits<char>,std::allocator<char> > > > > > >::_Lrotate
_TEXT	ENDS
; Function compile flags: /Odspy
; File C:\Program Files (x86)\Microsoft Visual Studio\2019\Community\VC\Tools\MSVC\14.28.29333\include\xtree
; File C:\Program Files (x86)\Microsoft Visual Studio\2019\Community\VC\Tools\MSVC\14.28.29333\include\xstddef
; File C:\Program Files (x86)\Microsoft Visual Studio\2019\Community\VC\Tools\MSVC\14.28.29333\include\xtree
;	COMDAT ?_Check_grow_by_1@?$_Tree@V?$_Tmap_traits@V?$basic_string@DU?$char_traits@D@std@@V?$allocator@D@2@@std@@V?$vector@V?$basic_string@DU?$char_traits@D@std@@V?$allocator@D@2@@std@@V?$allocator@V?$basic_string@DU?$char_traits@D@std@@V?$allocator@D@2@@std@@@2@@2@U?$less@V?$basic_string@DU?$char_traits@D@std@@V?$allocator@D@2@@std@@@2@V?$allocator@U?$pair@$$CBV?$basic_string@DU?$char_traits@D@std@@V?$allocator@D@2@@std@@V?$vector@V?$basic_string@DU?$char_traits@D@std@@V?$allocator@D@2@@std@@V?$allocator@V?$basic_string@DU?$char_traits@D@std@@V?$allocator@D@2@@std@@@2@@2@@std@@@2@$0A@@std@@@std@@IAEXXZ
_TEXT	SEGMENT
$T1 = -12						; size = 4
$T2 = -8						; size = 4
_this$ = -4						; size = 4
?_Check_grow_by_1@?$_Tree@V?$_Tmap_traits@V?$basic_string@DU?$char_traits@D@std@@V?$allocator@D@2@@std@@V?$vector@V?$basic_string@DU?$char_traits@D@std@@V?$allocator@D@2@@std@@V?$allocator@V?$basic_string@DU?$char_traits@D@std@@V?$allocator@D@2@@std@@@2@@2@U?$less@V?$basic_string@DU?$char_traits@D@std@@V?$allocator@D@2@@std@@@2@V?$allocator@U?$pair@$$CBV?$basic_string@DU?$char_traits@D@std@@V?$allocator@D@2@@std@@V?$vector@V?$basic_string@DU?$char_traits@D@std@@V?$allocator@D@2@@std@@V?$allocator@V?$basic_string@DU?$char_traits@D@std@@V?$allocator@D@2@@std@@@2@@2@@std@@@2@$0A@@std@@@std@@IAEXXZ PROC ; std::_Tree<std::_Tmap_traits<std::basic_string<char,std::char_traits<char>,std::allocator<char> >,std::vector<std::basic_string<char,std::char_traits<char>,std::allocator<char> >,std::allocator<std::basic_string<char,std::char_traits<char>,std::allocator<char> > > >,std::less<std::basic_string<char,std::char_traits<char>,std::allocator<char> > >,std::allocator<std::pair<std::basic_string<char,std::char_traits<char>,std::allocator<char> > const ,std::vector<std::basic_string<char,std::char_traits<char>,std::allocator<char> >,std::allocator<std::basic_string<char,std::char_traits<char>,std::allocator<char> > > > > >,0> >::_Check_grow_by_1, COMDAT
; _this$ = ecx

; 1718 :     void _Check_grow_by_1() {

  00000	55		 push	 ebp
  00001	8b ec		 mov	 ebp, esp
  00003	83 ec 0c	 sub	 esp, 12			; 0000000cH
  00006	89 4d fc	 mov	 DWORD PTR _this$[ebp], ecx

; 2047 :         return _STD addressof(_Mypair._Myval2._Myval2);

  00009	8b 45 fc	 mov	 eax, DWORD PTR _this$[ebp]
; File C:\Program Files (x86)\Microsoft Visual Studio\2019\Community\VC\Tools\MSVC\14.28.29333\include\xstddef

; 275  :     return __builtin_addressof(_Val);

  0000c	89 45 f8	 mov	 DWORD PTR $T2[ebp], eax
; File C:\Program Files (x86)\Microsoft Visual Studio\2019\Community\VC\Tools\MSVC\14.28.29333\include\xtree

; 2047 :         return _STD addressof(_Mypair._Myval2._Myval2);

  0000f	8b 45 f8	 mov	 eax, DWORD PTR $T2[ebp]
  00012	89 45 f4	 mov	 DWORD PTR $T1[ebp], eax

; 1719 :         if (max_size() == _Get_scary()->_Mysize) {

  00015	8b 4d fc	 mov	 ecx, DWORD PTR _this$[ebp]
  00018	e8 00 00 00 00	 call	 ?max_size@?$_Tree@V?$_Tmap_traits@V?$basic_string@DU?$char_traits@D@std@@V?$allocator@D@2@@std@@V?$vector@V?$basic_string@DU?$char_traits@D@std@@V?$allocator@D@2@@std@@V?$allocator@V?$basic_string@DU?$char_traits@D@std@@V?$allocator@D@2@@std@@@2@@2@U?$less@V?$basic_string@DU?$char_traits@D@std@@V?$allocator@D@2@@std@@@2@V?$allocator@U?$pair@$$CBV?$basic_string@DU?$char_traits@D@std@@V?$allocator@D@2@@std@@V?$vector@V?$basic_string@DU?$char_traits@D@std@@V?$allocator@D@2@@std@@V?$allocator@V?$basic_string@DU?$char_traits@D@std@@V?$allocator@D@2@@std@@@2@@2@@std@@@2@$0A@@std@@@std@@QBEIXZ ; std::_Tree<std::_Tmap_traits<std::basic_string<char,std::char_traits<char>,std::allocator<char> >,std::vector<std::basic_string<char,std::char_traits<char>,std::allocator<char> >,std::allocator<std::basic_string<char,std::char_traits<char>,std::allocator<char> > > >,std::less<std::basic_string<char,std::char_traits<char>,std::allocator<char> > >,std::allocator<std::pair<std::basic_string<char,std::char_traits<char>,std::allocator<char> > const ,std::vector<std::basic_string<char,std::char_traits<char>,std::allocator<char> >,std::allocator<std::basic_string<char,std::char_traits<char>,std::allocator<char> > > > > >,0> >::max_size
  0001d	8b 4d f4	 mov	 ecx, DWORD PTR $T1[ebp]
  00020	3b 41 04	 cmp	 eax, DWORD PTR [ecx+4]
  00023	75 05		 jne	 SHORT $LN3@Check_grow

; 1720 :             _Throw_tree_length_error();

  00025	e8 00 00 00 00	 call	 ?_Throw_tree_length_error@std@@YAXXZ ; std::_Throw_tree_length_error
$LN3@Check_grow:

; 1721 :         }
; 1722 :     }

  0002a	c9		 leave
  0002b	c3		 ret	 0
?_Check_grow_by_1@?$_Tree@V?$_Tmap_traits@V?$basic_string@DU?$char_traits@D@std@@V?$allocator@D@2@@std@@V?$vector@V?$basic_string@DU?$char_traits@D@std@@V?$allocator@D@2@@std@@V?$allocator@V?$basic_string@DU?$char_traits@D@std@@V?$allocator@D@2@@std@@@2@@2@U?$less@V?$basic_string@DU?$char_traits@D@std@@V?$allocator@D@2@@std@@@2@V?$allocator@U?$pair@$$CBV?$basic_string@DU?$char_traits@D@std@@V?$allocator@D@2@@std@@V?$vector@V?$basic_string@DU?$char_traits@D@std@@V?$allocator@D@2@@std@@V?$allocator@V?$basic_string@DU?$char_traits@D@std@@V?$allocator@D@2@@std@@@2@@2@@std@@@2@$0A@@std@@@std@@IAEXXZ ENDP ; std::_Tree<std::_Tmap_traits<std::basic_string<char,std::char_traits<char>,std::allocator<char> >,std::vector<std::basic_string<char,std::char_traits<char>,std::allocator<char> >,std::allocator<std::basic_string<char,std::char_traits<char>,std::allocator<char> > > >,std::less<std::basic_string<char,std::char_traits<char>,std::allocator<char> > >,std::allocator<std::pair<std::basic_string<char,std::char_traits<char>,std::allocator<char> > const ,std::vector<std::basic_string<char,std::char_traits<char>,std::allocator<char> >,std::allocator<std::basic_string<char,std::char_traits<char>,std::allocator<char> > > > > >,0> >::_Check_grow_by_1
_TEXT	ENDS
; Function compile flags: /Odspy
; File C:\Program Files (x86)\Microsoft Visual Studio\2019\Community\VC\Tools\MSVC\14.28.29333\include\xtree
; File C:\Program Files (x86)\Microsoft Visual Studio\2019\Community\VC\Tools\MSVC\14.28.29333\include\xmemory
; File C:\Program Files (x86)\Microsoft Visual Studio\2019\Community\VC\Tools\MSVC\14.28.29333\include\xtree
; File C:\Program Files (x86)\Microsoft Visual Studio\2019\Community\VC\Tools\MSVC\14.28.29333\include\xmemory
; File C:\Program Files (x86)\Microsoft Visual Studio\2019\Community\VC\Tools\MSVC\14.28.29333\include\limits
; File C:\Program Files (x86)\Microsoft Visual Studio\2019\Community\VC\Tools\MSVC\14.28.29333\include\xtree
; File C:\Program Files (x86)\Microsoft Visual Studio\2019\Community\VC\Tools\MSVC\14.28.29333\include\utility
; File C:\Program Files (x86)\Microsoft Visual Studio\2019\Community\VC\Tools\MSVC\14.28.29333\include\xtree
;	COMDAT ?max_size@?$_Tree@V?$_Tmap_traits@V?$basic_string@DU?$char_traits@D@std@@V?$allocator@D@2@@std@@V?$vector@V?$basic_string@DU?$char_traits@D@std@@V?$allocator@D@2@@std@@V?$allocator@V?$basic_string@DU?$char_traits@D@std@@V?$allocator@D@2@@std@@@2@@2@U?$less@V?$basic_string@DU?$char_traits@D@std@@V?$allocator@D@2@@std@@@2@V?$allocator@U?$pair@$$CBV?$basic_string@DU?$char_traits@D@std@@V?$allocator@D@2@@std@@V?$vector@V?$basic_string@DU?$char_traits@D@std@@V?$allocator@D@2@@std@@V?$allocator@V?$basic_string@DU?$char_traits@D@std@@V?$allocator@D@2@@std@@@2@@2@@std@@@2@$0A@@std@@@std@@QBEIXZ
_TEXT	SEGMENT
$T1 = -36						; size = 4
$T2 = -32						; size = 4
$T3 = -28						; size = 4
$T4 = -24						; size = 4
$T5 = -20						; size = 4
_this$ = -16						; size = 4
tv68 = -12						; size = 4
$T6 = -8						; size = 4
$T7 = -4						; size = 4
?max_size@?$_Tree@V?$_Tmap_traits@V?$basic_string@DU?$char_traits@D@std@@V?$allocator@D@2@@std@@V?$vector@V?$basic_string@DU?$char_traits@D@std@@V?$allocator@D@2@@std@@V?$allocator@V?$basic_string@DU?$char_traits@D@std@@V?$allocator@D@2@@std@@@2@@2@U?$less@V?$basic_string@DU?$char_traits@D@std@@V?$allocator@D@2@@std@@@2@V?$allocator@U?$pair@$$CBV?$basic_string@DU?$char_traits@D@std@@V?$allocator@D@2@@std@@V?$vector@V?$basic_string@DU?$char_traits@D@std@@V?$allocator@D@2@@std@@V?$allocator@V?$basic_string@DU?$char_traits@D@std@@V?$allocator@D@2@@std@@@2@@2@@std@@@2@$0A@@std@@@std@@QBEIXZ PROC ; std::_Tree<std::_Tmap_traits<std::basic_string<char,std::char_traits<char>,std::allocator<char> >,std::vector<std::basic_string<char,std::char_traits<char>,std::allocator<char> >,std::allocator<std::basic_string<char,std::char_traits<char>,std::allocator<char> > > >,std::less<std::basic_string<char,std::char_traits<char>,std::allocator<char> > >,std::allocator<std::pair<std::basic_string<char,std::char_traits<char>,std::allocator<char> > const ,std::vector<std::basic_string<char,std::char_traits<char>,std::allocator<char> >,std::allocator<std::basic_string<char,std::char_traits<char>,std::allocator<char> > > > > >,0> >::max_size, COMDAT
; _this$ = ecx

; 1310 :     _NODISCARD size_type max_size() const noexcept {

  00000	55		 push	 ebp
  00001	8b ec		 mov	 ebp, esp
  00003	83 ec 24	 sub	 esp, 36			; 00000024H
  00006	89 4d f0	 mov	 DWORD PTR _this$[ebp], ecx

; 2043 :         return _Mypair._Myval2._Get_first();

  00009	8b 45 f0	 mov	 eax, DWORD PTR _this$[ebp]
; File C:\Program Files (x86)\Microsoft Visual Studio\2019\Community\VC\Tools\MSVC\14.28.29333\include\xmemory

; 1351 :         return *this;

  0000c	89 45 ec	 mov	 DWORD PTR $T5[ebp], eax
; File C:\Program Files (x86)\Microsoft Visual Studio\2019\Community\VC\Tools\MSVC\14.28.29333\include\xtree

; 2043 :         return _Mypair._Myval2._Get_first();

  0000f	8b 45 ec	 mov	 eax, DWORD PTR $T5[ebp]
  00012	89 45 dc	 mov	 DWORD PTR $T1[ebp], eax
; File C:\Program Files (x86)\Microsoft Visual Studio\2019\Community\VC\Tools\MSVC\14.28.29333\include\xmemory

; 710  :         return static_cast<size_t>(-1) / sizeof(value_type);

  00015	c7 45 fc c4 4e
	ec 04		 mov	 DWORD PTR $T7[ebp], 82595524 ; 04ec4ec4H
; File C:\Program Files (x86)\Microsoft Visual Studio\2019\Community\VC\Tools\MSVC\14.28.29333\include\limits

; 557  :         return INT_MAX;

  0001c	c7 45 e8 ff ff
	ff 7f		 mov	 DWORD PTR $T4[ebp], 2147483647 ; 7fffffffH
; File C:\Program Files (x86)\Microsoft Visual Studio\2019\Community\VC\Tools\MSVC\14.28.29333\include\xtree

; 1311 :         return (_STD min)(

  00023	8b 45 e8	 mov	 eax, DWORD PTR $T4[ebp]
  00026	89 45 f8	 mov	 DWORD PTR $T6[ebp], eax
; File C:\Program Files (x86)\Microsoft Visual Studio\2019\Community\VC\Tools\MSVC\14.28.29333\include\utility

; 68   :     return _Right < _Left ? _Right : _Left;

  00029	8b 45 fc	 mov	 eax, DWORD PTR $T7[ebp]
  0002c	3b 45 f8	 cmp	 eax, DWORD PTR $T6[ebp]
  0002f	73 08		 jae	 SHORT $LN17@max_size
  00031	8d 45 fc	 lea	 eax, DWORD PTR $T7[ebp]
  00034	89 45 f4	 mov	 DWORD PTR tv68[ebp], eax
  00037	eb 06		 jmp	 SHORT $LN18@max_size
$LN17@max_size:
  00039	8d 45 f8	 lea	 eax, DWORD PTR $T6[ebp]
  0003c	89 45 f4	 mov	 DWORD PTR tv68[ebp], eax
$LN18@max_size:
  0003f	8b 45 f4	 mov	 eax, DWORD PTR tv68[ebp]
  00042	89 45 e4	 mov	 DWORD PTR $T3[ebp], eax
  00045	8b 45 e4	 mov	 eax, DWORD PTR $T3[ebp]
  00048	89 45 e0	 mov	 DWORD PTR $T2[ebp], eax
; File C:\Program Files (x86)\Microsoft Visual Studio\2019\Community\VC\Tools\MSVC\14.28.29333\include\xtree

; 1311 :         return (_STD min)(

  0004b	8b 45 e0	 mov	 eax, DWORD PTR $T2[ebp]
  0004e	8b 00		 mov	 eax, DWORD PTR [eax]

; 1312 :             static_cast<size_type>((numeric_limits<difference_type>::max)()), _Alnode_traits::max_size(_Getal()));
; 1313 :     }

  00050	c9		 leave
  00051	c3		 ret	 0
?max_size@?$_Tree@V?$_Tmap_traits@V?$basic_string@DU?$char_traits@D@std@@V?$allocator@D@2@@std@@V?$vector@V?$basic_string@DU?$char_traits@D@std@@V?$allocator@D@2@@std@@V?$allocator@V?$basic_string@DU?$char_traits@D@std@@V?$allocator@D@2@@std@@@2@@2@U?$less@V?$basic_string@DU?$char_traits@D@std@@V?$allocator@D@2@@std@@@2@V?$allocator@U?$pair@$$CBV?$basic_string@DU?$char_traits@D@std@@V?$allocator@D@2@@std@@V?$vector@V?$basic_string@DU?$char_traits@D@std@@V?$allocator@D@2@@std@@V?$allocator@V?$basic_string@DU?$char_traits@D@std@@V?$allocator@D@2@@std@@@2@@2@@std@@@2@$0A@@std@@@std@@QBEIXZ ENDP ; std::_Tree<std::_Tmap_traits<std::basic_string<char,std::char_traits<char>,std::allocator<char> >,std::vector<std::basic_string<char,std::char_traits<char>,std::allocator<char> >,std::allocator<std::basic_string<char,std::char_traits<char>,std::allocator<char> > > >,std::less<std::basic_string<char,std::char_traits<char>,std::allocator<char> > >,std::allocator<std::pair<std::basic_string<char,std::char_traits<char>,std::allocator<char> > const ,std::vector<std::basic_string<char,std::char_traits<char>,std::allocator<char> >,std::allocator<std::basic_string<char,std::char_traits<char>,std::allocator<char> > > > > >,0> >::max_size
_TEXT	ENDS
; Function compile flags: /Odspy
; File C:\Program Files (x86)\Microsoft Visual Studio\2019\Community\VC\Tools\MSVC\14.28.29333\include\xtree
;	COMDAT ?_Insert_node@?$_Tree_val@U?$_Tree_simple_types@U?$pair@$$CBV?$basic_string@DU?$char_traits@D@std@@V?$allocator@D@2@@std@@V12@@std@@@std@@@std@@QAEPAU?$_Tree_node@U?$pair@$$CBV?$basic_string@DU?$char_traits@D@std@@V?$allocator@D@2@@std@@V12@@std@@PAX@2@U?$_Tree_id@PAU?$_Tree_node@U?$pair@$$CBV?$basic_string@DU?$char_traits@D@std@@V?$allocator@D@2@@std@@V12@@std@@PAX@std@@@2@QAU32@@Z
_TEXT	SEGMENT
__Parent_sibling$1 = -20				; size = 4
__Parent_sibling$2 = -16				; size = 4
_this$ = -12						; size = 4
__Head$ = -8						; size = 4
__Pnode$3 = -4						; size = 4
__Loc$ = 8						; size = 8
__Newnode$ = 16						; size = 4
?_Insert_node@?$_Tree_val@U?$_Tree_simple_types@U?$pair@$$CBV?$basic_string@DU?$char_traits@D@std@@V?$allocator@D@2@@std@@V12@@std@@@std@@@std@@QAEPAU?$_Tree_node@U?$pair@$$CBV?$basic_string@DU?$char_traits@D@std@@V?$allocator@D@2@@std@@V12@@std@@PAX@2@U?$_Tree_id@PAU?$_Tree_node@U?$pair@$$CBV?$basic_string@DU?$char_traits@D@std@@V?$allocator@D@2@@std@@V12@@std@@PAX@std@@@2@QAU32@@Z PROC ; std::_Tree_val<std::_Tree_simple_types<std::pair<std::basic_string<char,std::char_traits<char>,std::allocator<char> > const ,std::basic_string<char,std::char_traits<char>,std::allocator<char> > > > >::_Insert_node, COMDAT
; _this$ = ecx

; 644  :     _Nodeptr _Insert_node(const _Tree_id<_Nodeptr> _Loc, const _Nodeptr _Newnode) noexcept {

  00000	55		 push	 ebp
  00001	8b ec		 mov	 ebp, esp
  00003	83 ec 14	 sub	 esp, 20			; 00000014H
  00006	89 4d f4	 mov	 DWORD PTR _this$[ebp], ecx

; 645  :         ++_Mysize;

  00009	8b 45 f4	 mov	 eax, DWORD PTR _this$[ebp]
  0000c	8b 40 04	 mov	 eax, DWORD PTR [eax+4]
  0000f	40		 inc	 eax
  00010	8b 4d f4	 mov	 ecx, DWORD PTR _this$[ebp]
  00013	89 41 04	 mov	 DWORD PTR [ecx+4], eax

; 646  :         const auto _Head  = _Myhead;

  00016	8b 45 f4	 mov	 eax, DWORD PTR _this$[ebp]
  00019	8b 00		 mov	 eax, DWORD PTR [eax]
  0001b	89 45 f8	 mov	 DWORD PTR __Head$[ebp], eax

; 647  :         _Newnode->_Parent = _Loc._Parent;

  0001e	8b 45 10	 mov	 eax, DWORD PTR __Newnode$[ebp]
  00021	8b 4d 08	 mov	 ecx, DWORD PTR __Loc$[ebp]
  00024	89 48 04	 mov	 DWORD PTR [eax+4], ecx

; 648  :         if (_Loc._Parent == _Head) { // first node in tree, just set head values

  00027	8b 45 08	 mov	 eax, DWORD PTR __Loc$[ebp]
  0002a	3b 45 f8	 cmp	 eax, DWORD PTR __Head$[ebp]
  0002d	75 29		 jne	 SHORT $LN5@Insert_nod

; 649  :             _Head->_Left     = _Newnode;

  0002f	8b 45 f8	 mov	 eax, DWORD PTR __Head$[ebp]
  00032	8b 4d 10	 mov	 ecx, DWORD PTR __Newnode$[ebp]
  00035	89 08		 mov	 DWORD PTR [eax], ecx

; 650  :             _Head->_Parent   = _Newnode;

  00037	8b 45 f8	 mov	 eax, DWORD PTR __Head$[ebp]
  0003a	8b 4d 10	 mov	 ecx, DWORD PTR __Newnode$[ebp]
  0003d	89 48 04	 mov	 DWORD PTR [eax+4], ecx

; 651  :             _Head->_Right    = _Newnode;

  00040	8b 45 f8	 mov	 eax, DWORD PTR __Head$[ebp]
  00043	8b 4d 10	 mov	 ecx, DWORD PTR __Newnode$[ebp]
  00046	89 48 08	 mov	 DWORD PTR [eax+8], ecx

; 652  :             _Newnode->_Color = _Black; // the root is black

  00049	8b 45 10	 mov	 eax, DWORD PTR __Newnode$[ebp]
  0004c	c6 40 0c 01	 mov	 BYTE PTR [eax+12], 1

; 653  :             return _Newnode;

  00050	8b 45 10	 mov	 eax, DWORD PTR __Newnode$[ebp]
  00053	e9 a3 01 00 00	 jmp	 $LN18@Insert_nod
$LN5@Insert_nod:

; 654  :         }
; 655  : 
; 656  :         _STL_INTERNAL_CHECK(_Loc._Child != _Tree_child::_Unused);
; 657  :         if (_Loc._Child == _Tree_child::_Right) { // add to right of _Loc._Parent

  00058	83 7d 0c 00	 cmp	 DWORD PTR __Loc$[ebp+4], 0
  0005c	75 1f		 jne	 SHORT $LN6@Insert_nod

; 658  :             _STL_INTERNAL_CHECK(_Loc._Parent->_Right->_Isnil);
; 659  :             _Loc._Parent->_Right = _Newnode;

  0005e	8b 45 08	 mov	 eax, DWORD PTR __Loc$[ebp]
  00061	8b 4d 10	 mov	 ecx, DWORD PTR __Newnode$[ebp]
  00064	89 48 08	 mov	 DWORD PTR [eax+8], ecx

; 660  :             if (_Loc._Parent == _Head->_Right) { // remember rightmost node

  00067	8b 45 f8	 mov	 eax, DWORD PTR __Head$[ebp]
  0006a	8b 4d 08	 mov	 ecx, DWORD PTR __Loc$[ebp]
  0006d	3b 48 08	 cmp	 ecx, DWORD PTR [eax+8]
  00070	75 09		 jne	 SHORT $LN8@Insert_nod

; 661  :                 _Head->_Right = _Newnode;

  00072	8b 45 f8	 mov	 eax, DWORD PTR __Head$[ebp]
  00075	8b 4d 10	 mov	 ecx, DWORD PTR __Newnode$[ebp]
  00078	89 48 08	 mov	 DWORD PTR [eax+8], ecx
$LN8@Insert_nod:

; 662  :             }
; 663  :         } else { // add to left of _Loc._Parent

  0007b	eb 1a		 jmp	 SHORT $LN7@Insert_nod
$LN6@Insert_nod:

; 664  :             _STL_INTERNAL_CHECK(_Loc._Parent->_Left->_Isnil);
; 665  :             _Loc._Parent->_Left = _Newnode;

  0007d	8b 45 08	 mov	 eax, DWORD PTR __Loc$[ebp]
  00080	8b 4d 10	 mov	 ecx, DWORD PTR __Newnode$[ebp]
  00083	89 08		 mov	 DWORD PTR [eax], ecx

; 666  :             if (_Loc._Parent == _Head->_Left) { // remember leftmost node

  00085	8b 45 f8	 mov	 eax, DWORD PTR __Head$[ebp]
  00088	8b 4d 08	 mov	 ecx, DWORD PTR __Loc$[ebp]
  0008b	3b 08		 cmp	 ecx, DWORD PTR [eax]
  0008d	75 08		 jne	 SHORT $LN7@Insert_nod

; 667  :                 _Head->_Left = _Newnode;

  0008f	8b 45 f8	 mov	 eax, DWORD PTR __Head$[ebp]
  00092	8b 4d 10	 mov	 ecx, DWORD PTR __Newnode$[ebp]
  00095	89 08		 mov	 DWORD PTR [eax], ecx
$LN7@Insert_nod:

; 668  :             }
; 669  :         }
; 670  : 
; 671  :         for (_Nodeptr _Pnode = _Newnode; _Pnode->_Parent->_Color == _Red;) {

  00097	8b 45 10	 mov	 eax, DWORD PTR __Newnode$[ebp]
  0009a	89 45 fc	 mov	 DWORD PTR __Pnode$3[ebp], eax
$LN4@Insert_nod:
  0009d	8b 45 fc	 mov	 eax, DWORD PTR __Pnode$3[ebp]
  000a0	8b 40 04	 mov	 eax, DWORD PTR [eax+4]
  000a3	0f be 40 0c	 movsx	 eax, BYTE PTR [eax+12]
  000a7	85 c0		 test	 eax, eax
  000a9	0f 85 3f 01 00
	00		 jne	 $LN3@Insert_nod

; 672  :             if (_Pnode->_Parent == _Pnode->_Parent->_Parent->_Left) { // fixup red-red in left subtree

  000af	8b 45 fc	 mov	 eax, DWORD PTR __Pnode$3[ebp]
  000b2	8b 40 04	 mov	 eax, DWORD PTR [eax+4]
  000b5	8b 40 04	 mov	 eax, DWORD PTR [eax+4]
  000b8	8b 4d fc	 mov	 ecx, DWORD PTR __Pnode$3[ebp]
  000bb	8b 49 04	 mov	 ecx, DWORD PTR [ecx+4]
  000be	3b 08		 cmp	 ecx, DWORD PTR [eax]
  000c0	0f 85 95 00 00
	00		 jne	 $LN10@Insert_nod

; 673  :                 const auto _Parent_sibling = _Pnode->_Parent->_Parent->_Right;

  000c6	8b 45 fc	 mov	 eax, DWORD PTR __Pnode$3[ebp]
  000c9	8b 40 04	 mov	 eax, DWORD PTR [eax+4]
  000cc	8b 40 04	 mov	 eax, DWORD PTR [eax+4]
  000cf	8b 40 08	 mov	 eax, DWORD PTR [eax+8]
  000d2	89 45 f0	 mov	 DWORD PTR __Parent_sibling$2[ebp], eax

; 674  :                 if (_Parent_sibling->_Color == _Red) { // parent's sibling has two red children, blacken both

  000d5	8b 45 f0	 mov	 eax, DWORD PTR __Parent_sibling$2[ebp]
  000d8	0f be 40 0c	 movsx	 eax, BYTE PTR [eax+12]
  000dc	85 c0		 test	 eax, eax
  000de	75 2c		 jne	 SHORT $LN12@Insert_nod

; 675  :                     _Pnode->_Parent->_Color          = _Black;

  000e0	8b 45 fc	 mov	 eax, DWORD PTR __Pnode$3[ebp]
  000e3	8b 40 04	 mov	 eax, DWORD PTR [eax+4]
  000e6	c6 40 0c 01	 mov	 BYTE PTR [eax+12], 1

; 676  :                     _Parent_sibling->_Color          = _Black;

  000ea	8b 45 f0	 mov	 eax, DWORD PTR __Parent_sibling$2[ebp]
  000ed	c6 40 0c 01	 mov	 BYTE PTR [eax+12], 1

; 677  :                     _Pnode->_Parent->_Parent->_Color = _Red;

  000f1	8b 45 fc	 mov	 eax, DWORD PTR __Pnode$3[ebp]
  000f4	8b 40 04	 mov	 eax, DWORD PTR [eax+4]
  000f7	8b 40 04	 mov	 eax, DWORD PTR [eax+4]
  000fa	c6 40 0c 00	 mov	 BYTE PTR [eax+12], 0

; 678  :                     _Pnode                           = _Pnode->_Parent->_Parent;

  000fe	8b 45 fc	 mov	 eax, DWORD PTR __Pnode$3[ebp]
  00101	8b 40 04	 mov	 eax, DWORD PTR [eax+4]
  00104	8b 40 04	 mov	 eax, DWORD PTR [eax+4]
  00107	89 45 fc	 mov	 DWORD PTR __Pnode$3[ebp], eax

; 679  :                 } else { // parent's sibling has red and black children

  0010a	eb 4a		 jmp	 SHORT $LN13@Insert_nod
$LN12@Insert_nod:

; 680  :                     if (_Pnode == _Pnode->_Parent->_Right) { // rotate right child to left

  0010c	8b 45 fc	 mov	 eax, DWORD PTR __Pnode$3[ebp]
  0010f	8b 40 04	 mov	 eax, DWORD PTR [eax+4]
  00112	8b 4d fc	 mov	 ecx, DWORD PTR __Pnode$3[ebp]
  00115	3b 48 08	 cmp	 ecx, DWORD PTR [eax+8]
  00118	75 14		 jne	 SHORT $LN14@Insert_nod

; 681  :                         _Pnode = _Pnode->_Parent;

  0011a	8b 45 fc	 mov	 eax, DWORD PTR __Pnode$3[ebp]
  0011d	8b 40 04	 mov	 eax, DWORD PTR [eax+4]
  00120	89 45 fc	 mov	 DWORD PTR __Pnode$3[ebp], eax

; 682  :                         _Lrotate(_Pnode);

  00123	ff 75 fc	 push	 DWORD PTR __Pnode$3[ebp]
  00126	8b 4d f4	 mov	 ecx, DWORD PTR _this$[ebp]
  00129	e8 00 00 00 00	 call	 ?_Lrotate@?$_Tree_val@U?$_Tree_simple_types@U?$pair@$$CBV?$basic_string@DU?$char_traits@D@std@@V?$allocator@D@2@@std@@V12@@std@@@std@@@std@@QAEXPAU?$_Tree_node@U?$pair@$$CBV?$basic_string@DU?$char_traits@D@std@@V?$allocator@D@2@@std@@V12@@std@@PAX@2@@Z ; std::_Tree_val<std::_Tree_simple_types<std::pair<std::basic_string<char,std::char_traits<char>,std::allocator<char> > const ,std::basic_string<char,std::char_traits<char>,std::allocator<char> > > > >::_Lrotate
$LN14@Insert_nod:

; 683  :                     }
; 684  : 
; 685  :                     _Pnode->_Parent->_Color          = _Black; // propagate red up

  0012e	8b 45 fc	 mov	 eax, DWORD PTR __Pnode$3[ebp]
  00131	8b 40 04	 mov	 eax, DWORD PTR [eax+4]
  00134	c6 40 0c 01	 mov	 BYTE PTR [eax+12], 1

; 686  :                     _Pnode->_Parent->_Parent->_Color = _Red;

  00138	8b 45 fc	 mov	 eax, DWORD PTR __Pnode$3[ebp]
  0013b	8b 40 04	 mov	 eax, DWORD PTR [eax+4]
  0013e	8b 40 04	 mov	 eax, DWORD PTR [eax+4]
  00141	c6 40 0c 00	 mov	 BYTE PTR [eax+12], 0

; 687  :                     _Rrotate(_Pnode->_Parent->_Parent);

  00145	8b 45 fc	 mov	 eax, DWORD PTR __Pnode$3[ebp]
  00148	8b 40 04	 mov	 eax, DWORD PTR [eax+4]
  0014b	ff 70 04	 push	 DWORD PTR [eax+4]
  0014e	8b 4d f4	 mov	 ecx, DWORD PTR _this$[ebp]
  00151	e8 00 00 00 00	 call	 ?_Rrotate@?$_Tree_val@U?$_Tree_simple_types@U?$pair@$$CBV?$basic_string@DU?$char_traits@D@std@@V?$allocator@D@2@@std@@V12@@std@@@std@@@std@@QAEXPAU?$_Tree_node@U?$pair@$$CBV?$basic_string@DU?$char_traits@D@std@@V?$allocator@D@2@@std@@V12@@std@@PAX@2@@Z ; std::_Tree_val<std::_Tree_simple_types<std::pair<std::basic_string<char,std::char_traits<char>,std::allocator<char> > const ,std::basic_string<char,std::char_traits<char>,std::allocator<char> > > > >::_Rrotate
$LN13@Insert_nod:

; 688  :                 }
; 689  :             } else { // fixup red-red in right subtree

  00156	e9 8e 00 00 00	 jmp	 $LN11@Insert_nod
$LN10@Insert_nod:

; 690  :                 const auto _Parent_sibling = _Pnode->_Parent->_Parent->_Left;

  0015b	8b 45 fc	 mov	 eax, DWORD PTR __Pnode$3[ebp]
  0015e	8b 40 04	 mov	 eax, DWORD PTR [eax+4]
  00161	8b 40 04	 mov	 eax, DWORD PTR [eax+4]
  00164	8b 00		 mov	 eax, DWORD PTR [eax]
  00166	89 45 ec	 mov	 DWORD PTR __Parent_sibling$1[ebp], eax

; 691  :                 if (_Parent_sibling->_Color == _Red) { // parent's sibling has two red children, blacken both

  00169	8b 45 ec	 mov	 eax, DWORD PTR __Parent_sibling$1[ebp]
  0016c	0f be 40 0c	 movsx	 eax, BYTE PTR [eax+12]
  00170	85 c0		 test	 eax, eax
  00172	75 2c		 jne	 SHORT $LN15@Insert_nod

; 692  :                     _Pnode->_Parent->_Color          = _Black;

  00174	8b 45 fc	 mov	 eax, DWORD PTR __Pnode$3[ebp]
  00177	8b 40 04	 mov	 eax, DWORD PTR [eax+4]
  0017a	c6 40 0c 01	 mov	 BYTE PTR [eax+12], 1

; 693  :                     _Parent_sibling->_Color          = _Black;

  0017e	8b 45 ec	 mov	 eax, DWORD PTR __Parent_sibling$1[ebp]
  00181	c6 40 0c 01	 mov	 BYTE PTR [eax+12], 1

; 694  :                     _Pnode->_Parent->_Parent->_Color = _Red;

  00185	8b 45 fc	 mov	 eax, DWORD PTR __Pnode$3[ebp]
  00188	8b 40 04	 mov	 eax, DWORD PTR [eax+4]
  0018b	8b 40 04	 mov	 eax, DWORD PTR [eax+4]
  0018e	c6 40 0c 00	 mov	 BYTE PTR [eax+12], 0

; 695  :                     _Pnode                           = _Pnode->_Parent->_Parent;

  00192	8b 45 fc	 mov	 eax, DWORD PTR __Pnode$3[ebp]
  00195	8b 40 04	 mov	 eax, DWORD PTR [eax+4]
  00198	8b 40 04	 mov	 eax, DWORD PTR [eax+4]
  0019b	89 45 fc	 mov	 DWORD PTR __Pnode$3[ebp], eax

; 696  :                 } else { // parent's sibling has red and black children

  0019e	eb 49		 jmp	 SHORT $LN11@Insert_nod
$LN15@Insert_nod:

; 697  :                     if (_Pnode == _Pnode->_Parent->_Left) { // rotate left child to right

  001a0	8b 45 fc	 mov	 eax, DWORD PTR __Pnode$3[ebp]
  001a3	8b 40 04	 mov	 eax, DWORD PTR [eax+4]
  001a6	8b 4d fc	 mov	 ecx, DWORD PTR __Pnode$3[ebp]
  001a9	3b 08		 cmp	 ecx, DWORD PTR [eax]
  001ab	75 14		 jne	 SHORT $LN17@Insert_nod

; 698  :                         _Pnode = _Pnode->_Parent;

  001ad	8b 45 fc	 mov	 eax, DWORD PTR __Pnode$3[ebp]
  001b0	8b 40 04	 mov	 eax, DWORD PTR [eax+4]
  001b3	89 45 fc	 mov	 DWORD PTR __Pnode$3[ebp], eax

; 699  :                         _Rrotate(_Pnode);

  001b6	ff 75 fc	 push	 DWORD PTR __Pnode$3[ebp]
  001b9	8b 4d f4	 mov	 ecx, DWORD PTR _this$[ebp]
  001bc	e8 00 00 00 00	 call	 ?_Rrotate@?$_Tree_val@U?$_Tree_simple_types@U?$pair@$$CBV?$basic_string@DU?$char_traits@D@std@@V?$allocator@D@2@@std@@V12@@std@@@std@@@std@@QAEXPAU?$_Tree_node@U?$pair@$$CBV?$basic_string@DU?$char_traits@D@std@@V?$allocator@D@2@@std@@V12@@std@@PAX@2@@Z ; std::_Tree_val<std::_Tree_simple_types<std::pair<std::basic_string<char,std::char_traits<char>,std::allocator<char> > const ,std::basic_string<char,std::char_traits<char>,std::allocator<char> > > > >::_Rrotate
$LN17@Insert_nod:

; 700  :                     }
; 701  : 
; 702  :                     _Pnode->_Parent->_Color          = _Black; // propagate red up

  001c1	8b 45 fc	 mov	 eax, DWORD PTR __Pnode$3[ebp]
  001c4	8b 40 04	 mov	 eax, DWORD PTR [eax+4]
  001c7	c6 40 0c 01	 mov	 BYTE PTR [eax+12], 1

; 703  :                     _Pnode->_Parent->_Parent->_Color = _Red;

  001cb	8b 45 fc	 mov	 eax, DWORD PTR __Pnode$3[ebp]
  001ce	8b 40 04	 mov	 eax, DWORD PTR [eax+4]
  001d1	8b 40 04	 mov	 eax, DWORD PTR [eax+4]
  001d4	c6 40 0c 00	 mov	 BYTE PTR [eax+12], 0

; 704  :                     _Lrotate(_Pnode->_Parent->_Parent);

  001d8	8b 45 fc	 mov	 eax, DWORD PTR __Pnode$3[ebp]
  001db	8b 40 04	 mov	 eax, DWORD PTR [eax+4]
  001de	ff 70 04	 push	 DWORD PTR [eax+4]
  001e1	8b 4d f4	 mov	 ecx, DWORD PTR _this$[ebp]
  001e4	e8 00 00 00 00	 call	 ?_Lrotate@?$_Tree_val@U?$_Tree_simple_types@U?$pair@$$CBV?$basic_string@DU?$char_traits@D@std@@V?$allocator@D@2@@std@@V12@@std@@@std@@@std@@QAEXPAU?$_Tree_node@U?$pair@$$CBV?$basic_string@DU?$char_traits@D@std@@V?$allocator@D@2@@std@@V12@@std@@PAX@2@@Z ; std::_Tree_val<std::_Tree_simple_types<std::pair<std::basic_string<char,std::char_traits<char>,std::allocator<char> > const ,std::basic_string<char,std::char_traits<char>,std::allocator<char> > > > >::_Lrotate
$LN11@Insert_nod:

; 705  :                 }
; 706  :             }
; 707  :         }

  001e9	e9 af fe ff ff	 jmp	 $LN4@Insert_nod
$LN3@Insert_nod:

; 708  : 
; 709  :         _Head->_Parent->_Color = _Black; // root is always black

  001ee	8b 45 f8	 mov	 eax, DWORD PTR __Head$[ebp]
  001f1	8b 40 04	 mov	 eax, DWORD PTR [eax+4]
  001f4	c6 40 0c 01	 mov	 BYTE PTR [eax+12], 1

; 710  :         return _Newnode;

  001f8	8b 45 10	 mov	 eax, DWORD PTR __Newnode$[ebp]
$LN18@Insert_nod:

; 711  :     }

  001fb	c9		 leave
  001fc	c2 0c 00	 ret	 12			; 0000000cH
?_Insert_node@?$_Tree_val@U?$_Tree_simple_types@U?$pair@$$CBV?$basic_string@DU?$char_traits@D@std@@V?$allocator@D@2@@std@@V12@@std@@@std@@@std@@QAEPAU?$_Tree_node@U?$pair@$$CBV?$basic_string@DU?$char_traits@D@std@@V?$allocator@D@2@@std@@V12@@std@@PAX@2@U?$_Tree_id@PAU?$_Tree_node@U?$pair@$$CBV?$basic_string@DU?$char_traits@D@std@@V?$allocator@D@2@@std@@V12@@std@@PAX@std@@@2@QAU32@@Z ENDP ; std::_Tree_val<std::_Tree_simple_types<std::pair<std::basic_string<char,std::char_traits<char>,std::allocator<char> > const ,std::basic_string<char,std::char_traits<char>,std::allocator<char> > > > >::_Insert_node
_TEXT	ENDS
; Function compile flags: /Odspy
; File C:\Program Files (x86)\Microsoft Visual Studio\2019\Community\VC\Tools\MSVC\14.28.29333\include\xtree
;	COMDAT ?_Rrotate@?$_Tree_val@U?$_Tree_simple_types@U?$pair@$$CBV?$basic_string@DU?$char_traits@D@std@@V?$allocator@D@2@@std@@V12@@std@@@std@@@std@@QAEXPAU?$_Tree_node@U?$pair@$$CBV?$basic_string@DU?$char_traits@D@std@@V?$allocator@D@2@@std@@V12@@std@@PAX@2@@Z
_TEXT	SEGMENT
_this$ = -8						; size = 4
__Pnode$ = -4						; size = 4
__Wherenode$ = 8					; size = 4
?_Rrotate@?$_Tree_val@U?$_Tree_simple_types@U?$pair@$$CBV?$basic_string@DU?$char_traits@D@std@@V?$allocator@D@2@@std@@V12@@std@@@std@@@std@@QAEXPAU?$_Tree_node@U?$pair@$$CBV?$basic_string@DU?$char_traits@D@std@@V?$allocator@D@2@@std@@V12@@std@@PAX@2@@Z PROC ; std::_Tree_val<std::_Tree_simple_types<std::pair<std::basic_string<char,std::char_traits<char>,std::allocator<char> > const ,std::basic_string<char,std::char_traits<char>,std::allocator<char> > > > >::_Rrotate, COMDAT
; _this$ = ecx

; 480  :     void _Rrotate(_Nodeptr _Wherenode) noexcept { // promote left node to root of subtree

  00000	55		 push	 ebp
  00001	8b ec		 mov	 ebp, esp
  00003	51		 push	 ecx
  00004	51		 push	 ecx
  00005	89 4d f8	 mov	 DWORD PTR _this$[ebp], ecx

; 481  :         _Nodeptr _Pnode   = _Wherenode->_Left;

  00008	8b 45 08	 mov	 eax, DWORD PTR __Wherenode$[ebp]
  0000b	8b 00		 mov	 eax, DWORD PTR [eax]
  0000d	89 45 fc	 mov	 DWORD PTR __Pnode$[ebp], eax

; 482  :         _Wherenode->_Left = _Pnode->_Right;

  00010	8b 45 08	 mov	 eax, DWORD PTR __Wherenode$[ebp]
  00013	8b 4d fc	 mov	 ecx, DWORD PTR __Pnode$[ebp]
  00016	8b 49 08	 mov	 ecx, DWORD PTR [ecx+8]
  00019	89 08		 mov	 DWORD PTR [eax], ecx

; 483  : 
; 484  :         if (!_Pnode->_Right->_Isnil) {

  0001b	8b 45 fc	 mov	 eax, DWORD PTR __Pnode$[ebp]
  0001e	8b 40 08	 mov	 eax, DWORD PTR [eax+8]
  00021	0f be 40 0d	 movsx	 eax, BYTE PTR [eax+13]
  00025	85 c0		 test	 eax, eax
  00027	75 0c		 jne	 SHORT $LN2@Rrotate

; 485  :             _Pnode->_Right->_Parent = _Wherenode;

  00029	8b 45 fc	 mov	 eax, DWORD PTR __Pnode$[ebp]
  0002c	8b 40 08	 mov	 eax, DWORD PTR [eax+8]
  0002f	8b 4d 08	 mov	 ecx, DWORD PTR __Wherenode$[ebp]
  00032	89 48 04	 mov	 DWORD PTR [eax+4], ecx
$LN2@Rrotate:

; 486  :         }
; 487  : 
; 488  :         _Pnode->_Parent = _Wherenode->_Parent;

  00035	8b 45 fc	 mov	 eax, DWORD PTR __Pnode$[ebp]
  00038	8b 4d 08	 mov	 ecx, DWORD PTR __Wherenode$[ebp]
  0003b	8b 49 04	 mov	 ecx, DWORD PTR [ecx+4]
  0003e	89 48 04	 mov	 DWORD PTR [eax+4], ecx

; 489  : 
; 490  :         if (_Wherenode == _Myhead->_Parent) {

  00041	8b 45 f8	 mov	 eax, DWORD PTR _this$[ebp]
  00044	8b 00		 mov	 eax, DWORD PTR [eax]
  00046	8b 4d 08	 mov	 ecx, DWORD PTR __Wherenode$[ebp]
  00049	3b 48 04	 cmp	 ecx, DWORD PTR [eax+4]
  0004c	75 0d		 jne	 SHORT $LN3@Rrotate

; 491  :             _Myhead->_Parent = _Pnode;

  0004e	8b 45 f8	 mov	 eax, DWORD PTR _this$[ebp]
  00051	8b 00		 mov	 eax, DWORD PTR [eax]
  00053	8b 4d fc	 mov	 ecx, DWORD PTR __Pnode$[ebp]
  00056	89 48 04	 mov	 DWORD PTR [eax+4], ecx
  00059	eb 27		 jmp	 SHORT $LN4@Rrotate
$LN3@Rrotate:

; 492  :         } else if (_Wherenode == _Wherenode->_Parent->_Right) {

  0005b	8b 45 08	 mov	 eax, DWORD PTR __Wherenode$[ebp]
  0005e	8b 40 04	 mov	 eax, DWORD PTR [eax+4]
  00061	8b 4d 08	 mov	 ecx, DWORD PTR __Wherenode$[ebp]
  00064	3b 48 08	 cmp	 ecx, DWORD PTR [eax+8]
  00067	75 0e		 jne	 SHORT $LN5@Rrotate

; 493  :             _Wherenode->_Parent->_Right = _Pnode;

  00069	8b 45 08	 mov	 eax, DWORD PTR __Wherenode$[ebp]
  0006c	8b 40 04	 mov	 eax, DWORD PTR [eax+4]
  0006f	8b 4d fc	 mov	 ecx, DWORD PTR __Pnode$[ebp]
  00072	89 48 08	 mov	 DWORD PTR [eax+8], ecx

; 494  :         } else {

  00075	eb 0b		 jmp	 SHORT $LN4@Rrotate
$LN5@Rrotate:

; 495  :             _Wherenode->_Parent->_Left = _Pnode;

  00077	8b 45 08	 mov	 eax, DWORD PTR __Wherenode$[ebp]
  0007a	8b 40 04	 mov	 eax, DWORD PTR [eax+4]
  0007d	8b 4d fc	 mov	 ecx, DWORD PTR __Pnode$[ebp]
  00080	89 08		 mov	 DWORD PTR [eax], ecx
$LN4@Rrotate:

; 496  :         }
; 497  : 
; 498  :         _Pnode->_Right      = _Wherenode;

  00082	8b 45 fc	 mov	 eax, DWORD PTR __Pnode$[ebp]
  00085	8b 4d 08	 mov	 ecx, DWORD PTR __Wherenode$[ebp]
  00088	89 48 08	 mov	 DWORD PTR [eax+8], ecx

; 499  :         _Wherenode->_Parent = _Pnode;

  0008b	8b 45 08	 mov	 eax, DWORD PTR __Wherenode$[ebp]
  0008e	8b 4d fc	 mov	 ecx, DWORD PTR __Pnode$[ebp]
  00091	89 48 04	 mov	 DWORD PTR [eax+4], ecx

; 500  :     }

  00094	c9		 leave
  00095	c2 04 00	 ret	 4
?_Rrotate@?$_Tree_val@U?$_Tree_simple_types@U?$pair@$$CBV?$basic_string@DU?$char_traits@D@std@@V?$allocator@D@2@@std@@V12@@std@@@std@@@std@@QAEXPAU?$_Tree_node@U?$pair@$$CBV?$basic_string@DU?$char_traits@D@std@@V?$allocator@D@2@@std@@V12@@std@@PAX@2@@Z ENDP ; std::_Tree_val<std::_Tree_simple_types<std::pair<std::basic_string<char,std::char_traits<char>,std::allocator<char> > const ,std::basic_string<char,std::char_traits<char>,std::allocator<char> > > > >::_Rrotate
_TEXT	ENDS
; Function compile flags: /Odspy
; File C:\Program Files (x86)\Microsoft Visual Studio\2019\Community\VC\Tools\MSVC\14.28.29333\include\xtree
;	COMDAT ?_Lrotate@?$_Tree_val@U?$_Tree_simple_types@U?$pair@$$CBV?$basic_string@DU?$char_traits@D@std@@V?$allocator@D@2@@std@@V12@@std@@@std@@@std@@QAEXPAU?$_Tree_node@U?$pair@$$CBV?$basic_string@DU?$char_traits@D@std@@V?$allocator@D@2@@std@@V12@@std@@PAX@2@@Z
_TEXT	SEGMENT
_this$ = -8						; size = 4
__Pnode$ = -4						; size = 4
__Wherenode$ = 8					; size = 4
?_Lrotate@?$_Tree_val@U?$_Tree_simple_types@U?$pair@$$CBV?$basic_string@DU?$char_traits@D@std@@V?$allocator@D@2@@std@@V12@@std@@@std@@@std@@QAEXPAU?$_Tree_node@U?$pair@$$CBV?$basic_string@DU?$char_traits@D@std@@V?$allocator@D@2@@std@@V12@@std@@PAX@2@@Z PROC ; std::_Tree_val<std::_Tree_simple_types<std::pair<std::basic_string<char,std::char_traits<char>,std::allocator<char> > const ,std::basic_string<char,std::char_traits<char>,std::allocator<char> > > > >::_Lrotate, COMDAT
; _this$ = ecx

; 458  :     void _Lrotate(_Nodeptr _Wherenode) noexcept { // promote right node to root of subtree

  00000	55		 push	 ebp
  00001	8b ec		 mov	 ebp, esp
  00003	51		 push	 ecx
  00004	51		 push	 ecx
  00005	89 4d f8	 mov	 DWORD PTR _this$[ebp], ecx

; 459  :         _Nodeptr _Pnode    = _Wherenode->_Right;

  00008	8b 45 08	 mov	 eax, DWORD PTR __Wherenode$[ebp]
  0000b	8b 40 08	 mov	 eax, DWORD PTR [eax+8]
  0000e	89 45 fc	 mov	 DWORD PTR __Pnode$[ebp], eax

; 460  :         _Wherenode->_Right = _Pnode->_Left;

  00011	8b 45 08	 mov	 eax, DWORD PTR __Wherenode$[ebp]
  00014	8b 4d fc	 mov	 ecx, DWORD PTR __Pnode$[ebp]
  00017	8b 09		 mov	 ecx, DWORD PTR [ecx]
  00019	89 48 08	 mov	 DWORD PTR [eax+8], ecx

; 461  : 
; 462  :         if (!_Pnode->_Left->_Isnil) {

  0001c	8b 45 fc	 mov	 eax, DWORD PTR __Pnode$[ebp]
  0001f	8b 00		 mov	 eax, DWORD PTR [eax]
  00021	0f be 40 0d	 movsx	 eax, BYTE PTR [eax+13]
  00025	85 c0		 test	 eax, eax
  00027	75 0b		 jne	 SHORT $LN2@Lrotate

; 463  :             _Pnode->_Left->_Parent = _Wherenode;

  00029	8b 45 fc	 mov	 eax, DWORD PTR __Pnode$[ebp]
  0002c	8b 00		 mov	 eax, DWORD PTR [eax]
  0002e	8b 4d 08	 mov	 ecx, DWORD PTR __Wherenode$[ebp]
  00031	89 48 04	 mov	 DWORD PTR [eax+4], ecx
$LN2@Lrotate:

; 464  :         }
; 465  : 
; 466  :         _Pnode->_Parent = _Wherenode->_Parent;

  00034	8b 45 fc	 mov	 eax, DWORD PTR __Pnode$[ebp]
  00037	8b 4d 08	 mov	 ecx, DWORD PTR __Wherenode$[ebp]
  0003a	8b 49 04	 mov	 ecx, DWORD PTR [ecx+4]
  0003d	89 48 04	 mov	 DWORD PTR [eax+4], ecx

; 467  : 
; 468  :         if (_Wherenode == _Myhead->_Parent) {

  00040	8b 45 f8	 mov	 eax, DWORD PTR _this$[ebp]
  00043	8b 00		 mov	 eax, DWORD PTR [eax]
  00045	8b 4d 08	 mov	 ecx, DWORD PTR __Wherenode$[ebp]
  00048	3b 48 04	 cmp	 ecx, DWORD PTR [eax+4]
  0004b	75 0d		 jne	 SHORT $LN3@Lrotate

; 469  :             _Myhead->_Parent = _Pnode;

  0004d	8b 45 f8	 mov	 eax, DWORD PTR _this$[ebp]
  00050	8b 00		 mov	 eax, DWORD PTR [eax]
  00052	8b 4d fc	 mov	 ecx, DWORD PTR __Pnode$[ebp]
  00055	89 48 04	 mov	 DWORD PTR [eax+4], ecx
  00058	eb 26		 jmp	 SHORT $LN4@Lrotate
$LN3@Lrotate:

; 470  :         } else if (_Wherenode == _Wherenode->_Parent->_Left) {

  0005a	8b 45 08	 mov	 eax, DWORD PTR __Wherenode$[ebp]
  0005d	8b 40 04	 mov	 eax, DWORD PTR [eax+4]
  00060	8b 4d 08	 mov	 ecx, DWORD PTR __Wherenode$[ebp]
  00063	3b 08		 cmp	 ecx, DWORD PTR [eax]
  00065	75 0d		 jne	 SHORT $LN5@Lrotate

; 471  :             _Wherenode->_Parent->_Left = _Pnode;

  00067	8b 45 08	 mov	 eax, DWORD PTR __Wherenode$[ebp]
  0006a	8b 40 04	 mov	 eax, DWORD PTR [eax+4]
  0006d	8b 4d fc	 mov	 ecx, DWORD PTR __Pnode$[ebp]
  00070	89 08		 mov	 DWORD PTR [eax], ecx

; 472  :         } else {

  00072	eb 0c		 jmp	 SHORT $LN4@Lrotate
$LN5@Lrotate:

; 473  :             _Wherenode->_Parent->_Right = _Pnode;

  00074	8b 45 08	 mov	 eax, DWORD PTR __Wherenode$[ebp]
  00077	8b 40 04	 mov	 eax, DWORD PTR [eax+4]
  0007a	8b 4d fc	 mov	 ecx, DWORD PTR __Pnode$[ebp]
  0007d	89 48 08	 mov	 DWORD PTR [eax+8], ecx
$LN4@Lrotate:

; 474  :         }
; 475  : 
; 476  :         _Pnode->_Left       = _Wherenode;

  00080	8b 45 fc	 mov	 eax, DWORD PTR __Pnode$[ebp]
  00083	8b 4d 08	 mov	 ecx, DWORD PTR __Wherenode$[ebp]
  00086	89 08		 mov	 DWORD PTR [eax], ecx

; 477  :         _Wherenode->_Parent = _Pnode;

  00088	8b 45 08	 mov	 eax, DWORD PTR __Wherenode$[ebp]
  0008b	8b 4d fc	 mov	 ecx, DWORD PTR __Pnode$[ebp]
  0008e	89 48 04	 mov	 DWORD PTR [eax+4], ecx

; 478  :     }

  00091	c9		 leave
  00092	c2 04 00	 ret	 4
?_Lrotate@?$_Tree_val@U?$_Tree_simple_types@U?$pair@$$CBV?$basic_string@DU?$char_traits@D@std@@V?$allocator@D@2@@std@@V12@@std@@@std@@@std@@QAEXPAU?$_Tree_node@U?$pair@$$CBV?$basic_string@DU?$char_traits@D@std@@V?$allocator@D@2@@std@@V12@@std@@PAX@2@@Z ENDP ; std::_Tree_val<std::_Tree_simple_types<std::pair<std::basic_string<char,std::char_traits<char>,std::allocator<char> > const ,std::basic_string<char,std::char_traits<char>,std::allocator<char> > > > >::_Lrotate
_TEXT	ENDS
; Function compile flags: /Odspy
; File C:\Program Files (x86)\Microsoft Visual Studio\2019\Community\VC\Tools\MSVC\14.28.29333\include\xtree
; File C:\Program Files (x86)\Microsoft Visual Studio\2019\Community\VC\Tools\MSVC\14.28.29333\include\xstddef
; File C:\Program Files (x86)\Microsoft Visual Studio\2019\Community\VC\Tools\MSVC\14.28.29333\include\xtree
;	COMDAT ?_Check_grow_by_1@?$_Tree@V?$_Tmap_traits@V?$basic_string@DU?$char_traits@D@std@@V?$allocator@D@2@@std@@V12@U?$less@V?$basic_string@DU?$char_traits@D@std@@V?$allocator@D@2@@std@@@2@V?$allocator@U?$pair@$$CBV?$basic_string@DU?$char_traits@D@std@@V?$allocator@D@2@@std@@V12@@std@@@2@$0A@@std@@@std@@IAEXXZ
_TEXT	SEGMENT
$T1 = -12						; size = 4
$T2 = -8						; size = 4
_this$ = -4						; size = 4
?_Check_grow_by_1@?$_Tree@V?$_Tmap_traits@V?$basic_string@DU?$char_traits@D@std@@V?$allocator@D@2@@std@@V12@U?$less@V?$basic_string@DU?$char_traits@D@std@@V?$allocator@D@2@@std@@@2@V?$allocator@U?$pair@$$CBV?$basic_string@DU?$char_traits@D@std@@V?$allocator@D@2@@std@@V12@@std@@@2@$0A@@std@@@std@@IAEXXZ PROC ; std::_Tree<std::_Tmap_traits<std::basic_string<char,std::char_traits<char>,std::allocator<char> >,std::basic_string<char,std::char_traits<char>,std::allocator<char> >,std::less<std::basic_string<char,std::char_traits<char>,std::allocator<char> > >,std::allocator<std::pair<std::basic_string<char,std::char_traits<char>,std::allocator<char> > const ,std::basic_string<char,std::char_traits<char>,std::allocator<char> > > >,0> >::_Check_grow_by_1, COMDAT
; _this$ = ecx

; 1718 :     void _Check_grow_by_1() {

  00000	55		 push	 ebp
  00001	8b ec		 mov	 ebp, esp
  00003	83 ec 0c	 sub	 esp, 12			; 0000000cH
  00006	89 4d fc	 mov	 DWORD PTR _this$[ebp], ecx

; 2047 :         return _STD addressof(_Mypair._Myval2._Myval2);

  00009	8b 45 fc	 mov	 eax, DWORD PTR _this$[ebp]
; File C:\Program Files (x86)\Microsoft Visual Studio\2019\Community\VC\Tools\MSVC\14.28.29333\include\xstddef

; 275  :     return __builtin_addressof(_Val);

  0000c	89 45 f8	 mov	 DWORD PTR $T2[ebp], eax
; File C:\Program Files (x86)\Microsoft Visual Studio\2019\Community\VC\Tools\MSVC\14.28.29333\include\xtree

; 2047 :         return _STD addressof(_Mypair._Myval2._Myval2);

  0000f	8b 45 f8	 mov	 eax, DWORD PTR $T2[ebp]
  00012	89 45 f4	 mov	 DWORD PTR $T1[ebp], eax

; 1719 :         if (max_size() == _Get_scary()->_Mysize) {

  00015	8b 4d fc	 mov	 ecx, DWORD PTR _this$[ebp]
  00018	e8 00 00 00 00	 call	 ?max_size@?$_Tree@V?$_Tmap_traits@V?$basic_string@DU?$char_traits@D@std@@V?$allocator@D@2@@std@@V12@U?$less@V?$basic_string@DU?$char_traits@D@std@@V?$allocator@D@2@@std@@@2@V?$allocator@U?$pair@$$CBV?$basic_string@DU?$char_traits@D@std@@V?$allocator@D@2@@std@@V12@@std@@@2@$0A@@std@@@std@@QBEIXZ ; std::_Tree<std::_Tmap_traits<std::basic_string<char,std::char_traits<char>,std::allocator<char> >,std::basic_string<char,std::char_traits<char>,std::allocator<char> >,std::less<std::basic_string<char,std::char_traits<char>,std::allocator<char> > >,std::allocator<std::pair<std::basic_string<char,std::char_traits<char>,std::allocator<char> > const ,std::basic_string<char,std::char_traits<char>,std::allocator<char> > > >,0> >::max_size
  0001d	8b 4d f4	 mov	 ecx, DWORD PTR $T1[ebp]
  00020	3b 41 04	 cmp	 eax, DWORD PTR [ecx+4]
  00023	75 05		 jne	 SHORT $LN3@Check_grow

; 1720 :             _Throw_tree_length_error();

  00025	e8 00 00 00 00	 call	 ?_Throw_tree_length_error@std@@YAXXZ ; std::_Throw_tree_length_error
$LN3@Check_grow:

; 1721 :         }
; 1722 :     }

  0002a	c9		 leave
  0002b	c3		 ret	 0
?_Check_grow_by_1@?$_Tree@V?$_Tmap_traits@V?$basic_string@DU?$char_traits@D@std@@V?$allocator@D@2@@std@@V12@U?$less@V?$basic_string@DU?$char_traits@D@std@@V?$allocator@D@2@@std@@@2@V?$allocator@U?$pair@$$CBV?$basic_string@DU?$char_traits@D@std@@V?$allocator@D@2@@std@@V12@@std@@@2@$0A@@std@@@std@@IAEXXZ ENDP ; std::_Tree<std::_Tmap_traits<std::basic_string<char,std::char_traits<char>,std::allocator<char> >,std::basic_string<char,std::char_traits<char>,std::allocator<char> >,std::less<std::basic_string<char,std::char_traits<char>,std::allocator<char> > >,std::allocator<std::pair<std::basic_string<char,std::char_traits<char>,std::allocator<char> > const ,std::basic_string<char,std::char_traits<char>,std::allocator<char> > > >,0> >::_Check_grow_by_1
_TEXT	ENDS
; Function compile flags: /Odspy
; File C:\Program Files (x86)\Microsoft Visual Studio\2019\Community\VC\Tools\MSVC\14.28.29333\include\xtree
; File C:\Program Files (x86)\Microsoft Visual Studio\2019\Community\VC\Tools\MSVC\14.28.29333\include\xmemory
; File C:\Program Files (x86)\Microsoft Visual Studio\2019\Community\VC\Tools\MSVC\14.28.29333\include\xtree
; File C:\Program Files (x86)\Microsoft Visual Studio\2019\Community\VC\Tools\MSVC\14.28.29333\include\xmemory
; File C:\Program Files (x86)\Microsoft Visual Studio\2019\Community\VC\Tools\MSVC\14.28.29333\include\limits
; File C:\Program Files (x86)\Microsoft Visual Studio\2019\Community\VC\Tools\MSVC\14.28.29333\include\xtree
; File C:\Program Files (x86)\Microsoft Visual Studio\2019\Community\VC\Tools\MSVC\14.28.29333\include\utility
; File C:\Program Files (x86)\Microsoft Visual Studio\2019\Community\VC\Tools\MSVC\14.28.29333\include\xtree
;	COMDAT ?max_size@?$_Tree@V?$_Tmap_traits@V?$basic_string@DU?$char_traits@D@std@@V?$allocator@D@2@@std@@V12@U?$less@V?$basic_string@DU?$char_traits@D@std@@V?$allocator@D@2@@std@@@2@V?$allocator@U?$pair@$$CBV?$basic_string@DU?$char_traits@D@std@@V?$allocator@D@2@@std@@V12@@std@@@2@$0A@@std@@@std@@QBEIXZ
_TEXT	SEGMENT
$T1 = -36						; size = 4
$T2 = -32						; size = 4
$T3 = -28						; size = 4
$T4 = -24						; size = 4
$T5 = -20						; size = 4
_this$ = -16						; size = 4
tv68 = -12						; size = 4
$T6 = -8						; size = 4
$T7 = -4						; size = 4
?max_size@?$_Tree@V?$_Tmap_traits@V?$basic_string@DU?$char_traits@D@std@@V?$allocator@D@2@@std@@V12@U?$less@V?$basic_string@DU?$char_traits@D@std@@V?$allocator@D@2@@std@@@2@V?$allocator@U?$pair@$$CBV?$basic_string@DU?$char_traits@D@std@@V?$allocator@D@2@@std@@V12@@std@@@2@$0A@@std@@@std@@QBEIXZ PROC ; std::_Tree<std::_Tmap_traits<std::basic_string<char,std::char_traits<char>,std::allocator<char> >,std::basic_string<char,std::char_traits<char>,std::allocator<char> >,std::less<std::basic_string<char,std::char_traits<char>,std::allocator<char> > >,std::allocator<std::pair<std::basic_string<char,std::char_traits<char>,std::allocator<char> > const ,std::basic_string<char,std::char_traits<char>,std::allocator<char> > > >,0> >::max_size, COMDAT
; _this$ = ecx

; 1310 :     _NODISCARD size_type max_size() const noexcept {

  00000	55		 push	 ebp
  00001	8b ec		 mov	 ebp, esp
  00003	83 ec 24	 sub	 esp, 36			; 00000024H
  00006	89 4d f0	 mov	 DWORD PTR _this$[ebp], ecx

; 2043 :         return _Mypair._Myval2._Get_first();

  00009	8b 45 f0	 mov	 eax, DWORD PTR _this$[ebp]
; File C:\Program Files (x86)\Microsoft Visual Studio\2019\Community\VC\Tools\MSVC\14.28.29333\include\xmemory

; 1351 :         return *this;

  0000c	89 45 ec	 mov	 DWORD PTR $T5[ebp], eax
; File C:\Program Files (x86)\Microsoft Visual Studio\2019\Community\VC\Tools\MSVC\14.28.29333\include\xtree

; 2043 :         return _Mypair._Myval2._Get_first();

  0000f	8b 45 ec	 mov	 eax, DWORD PTR $T5[ebp]
  00012	89 45 dc	 mov	 DWORD PTR $T1[ebp], eax
; File C:\Program Files (x86)\Microsoft Visual Studio\2019\Community\VC\Tools\MSVC\14.28.29333\include\xmemory

; 710  :         return static_cast<size_t>(-1) / sizeof(value_type);

  00015	c7 45 fc ff ff
	ff 03		 mov	 DWORD PTR $T7[ebp], 67108863 ; 03ffffffH
; File C:\Program Files (x86)\Microsoft Visual Studio\2019\Community\VC\Tools\MSVC\14.28.29333\include\limits

; 557  :         return INT_MAX;

  0001c	c7 45 e8 ff ff
	ff 7f		 mov	 DWORD PTR $T4[ebp], 2147483647 ; 7fffffffH
; File C:\Program Files (x86)\Microsoft Visual Studio\2019\Community\VC\Tools\MSVC\14.28.29333\include\xtree

; 1311 :         return (_STD min)(

  00023	8b 45 e8	 mov	 eax, DWORD PTR $T4[ebp]
  00026	89 45 f8	 mov	 DWORD PTR $T6[ebp], eax
; File C:\Program Files (x86)\Microsoft Visual Studio\2019\Community\VC\Tools\MSVC\14.28.29333\include\utility

; 68   :     return _Right < _Left ? _Right : _Left;

  00029	8b 45 fc	 mov	 eax, DWORD PTR $T7[ebp]
  0002c	3b 45 f8	 cmp	 eax, DWORD PTR $T6[ebp]
  0002f	73 08		 jae	 SHORT $LN17@max_size
  00031	8d 45 fc	 lea	 eax, DWORD PTR $T7[ebp]
  00034	89 45 f4	 mov	 DWORD PTR tv68[ebp], eax
  00037	eb 06		 jmp	 SHORT $LN18@max_size
$LN17@max_size:
  00039	8d 45 f8	 lea	 eax, DWORD PTR $T6[ebp]
  0003c	89 45 f4	 mov	 DWORD PTR tv68[ebp], eax
$LN18@max_size:
  0003f	8b 45 f4	 mov	 eax, DWORD PTR tv68[ebp]
  00042	89 45 e4	 mov	 DWORD PTR $T3[ebp], eax
  00045	8b 45 e4	 mov	 eax, DWORD PTR $T3[ebp]
  00048	89 45 e0	 mov	 DWORD PTR $T2[ebp], eax
; File C:\Program Files (x86)\Microsoft Visual Studio\2019\Community\VC\Tools\MSVC\14.28.29333\include\xtree

; 1311 :         return (_STD min)(

  0004b	8b 45 e0	 mov	 eax, DWORD PTR $T2[ebp]
  0004e	8b 00		 mov	 eax, DWORD PTR [eax]

; 1312 :             static_cast<size_type>((numeric_limits<difference_type>::max)()), _Alnode_traits::max_size(_Getal()));
; 1313 :     }

  00050	c9		 leave
  00051	c3		 ret	 0
?max_size@?$_Tree@V?$_Tmap_traits@V?$basic_string@DU?$char_traits@D@std@@V?$allocator@D@2@@std@@V12@U?$less@V?$basic_string@DU?$char_traits@D@std@@V?$allocator@D@2@@std@@@2@V?$allocator@U?$pair@$$CBV?$basic_string@DU?$char_traits@D@std@@V?$allocator@D@2@@std@@V12@@std@@@2@$0A@@std@@@std@@QBEIXZ ENDP ; std::_Tree<std::_Tmap_traits<std::basic_string<char,std::char_traits<char>,std::allocator<char> >,std::basic_string<char,std::char_traits<char>,std::allocator<char> >,std::less<std::basic_string<char,std::char_traits<char>,std::allocator<char> > >,std::allocator<std::pair<std::basic_string<char,std::char_traits<char>,std::allocator<char> > const ,std::basic_string<char,std::char_traits<char>,std::allocator<char> > > >,0> >::max_size
_TEXT	ENDS
; Function compile flags: /Odspy
; File D:\Metin2 Server Files\mainline\SRC_2014\Metin2Client\EterLib\Util.cpp
;	COMDAT ?base64_decode@@YAXPBDPAD@Z
_TEXT	SEGMENT
_xor$1 = -40						; size = 4
_r$ = -36						; size = 4
_length$ = -32						; size = 4
_result$ = -28						; size = 4
_nCount$ = -24						; size = 4
_c$2 = -17						; size = 1
_i$ = -16						; size = 4
_szDest$ = -12						; size = 5
__$ArrayPad$ = -4					; size = 4
_str$ = 8						; size = 4
_resultStr$ = 12					; size = 4
?base64_decode@@YAXPBDPAD@Z PROC			; base64_decode, COMDAT

; 325  : {

  00000	55		 push	 ebp
  00001	8b ec		 mov	 ebp, esp
  00003	83 ec 28	 sub	 esp, 40			; 00000028H
  00006	a1 00 00 00 00	 mov	 eax, DWORD PTR ___security_cookie
  0000b	33 c5		 xor	 eax, ebp
  0000d	89 45 fc	 mov	 DWORD PTR __$ArrayPad$[ebp], eax

; 326  : 	int nCount=0, i=0, r, result;

  00010	83 65 e8 00	 and	 DWORD PTR _nCount$[ebp], 0
  00014	83 65 f0 00	 and	 DWORD PTR _i$[ebp], 0

; 327  : 	int length = strlen(str);

  00018	ff 75 08	 push	 DWORD PTR _str$[ebp]
  0001b	e8 00 00 00 00	 call	 _strlen
  00020	59		 pop	 ecx
  00021	89 45 e0	 mov	 DWORD PTR _length$[ebp], eax

; 328  : 	char szDest[5]="";

  00024	a0 00 00 00 00	 mov	 al, BYTE PTR ??_C@_00CNPNBAHC@@
  00029	88 45 f4	 mov	 BYTE PTR _szDest$[ebp], al
  0002c	33 c0		 xor	 eax, eax
  0002e	89 45 f5	 mov	 DWORD PTR _szDest$[ebp+1], eax

; 329  : 
; 330  : 	strcpy(resultStr,"");

  00031	68 00 00 00 00	 push	 OFFSET ??_C@_00CNPNBAHC@@
  00036	ff 75 0c	 push	 DWORD PTR _resultStr$[ebp]
  00039	e8 00 00 00 00	 call	 _strcpy
  0003e	59		 pop	 ecx
  0003f	59		 pop	 ecx
$LN2@base64_dec:

; 331  : 	while(nCount < length)

  00040	8b 45 e8	 mov	 eax, DWORD PTR _nCount$[ebp]
  00043	3b 45 e0	 cmp	 eax, DWORD PTR _length$[ebp]
  00046	0f 8d 0b 02 00
	00		 jge	 $LN3@base64_dec

; 332  : 	{
; 333  : 		i=0;

  0004c	83 65 f0 00	 and	 DWORD PTR _i$[ebp], 0

; 334  : 		strcpy(szDest, "");

  00050	68 00 00 00 00	 push	 OFFSET ??_C@_00CNPNBAHC@@
  00055	8d 45 f4	 lea	 eax, DWORD PTR _szDest$[ebp]
  00058	50		 push	 eax
  00059	e8 00 00 00 00	 call	 _strcpy
  0005e	59		 pop	 ecx
  0005f	59		 pop	 ecx
$LN4@base64_dec:

; 335  : 		while(nCount<length && i<4)	// 4  .

  00060	8b 45 e8	 mov	 eax, DWORD PTR _nCount$[ebp]
  00063	3b 45 e0	 cmp	 eax, DWORD PTR _length$[ebp]
  00066	7d 55		 jge	 SHORT $LN5@base64_dec
  00068	83 7d f0 04	 cmp	 DWORD PTR _i$[ebp], 4
  0006c	7d 4f		 jge	 SHORT $LN5@base64_dec

; 336  : 		{			
; 337  : 			r = str[nCount++];

  0006e	8b 45 08	 mov	 eax, DWORD PTR _str$[ebp]
  00071	03 45 e8	 add	 eax, DWORD PTR _nCount$[ebp]
  00074	0f be 00	 movsx	 eax, BYTE PTR [eax]
  00077	89 45 dc	 mov	 DWORD PTR _r$[ebp], eax
  0007a	8b 45 e8	 mov	 eax, DWORD PTR _nCount$[ebp]
  0007d	40		 inc	 eax
  0007e	89 45 e8	 mov	 DWORD PTR _nCount$[ebp], eax

; 338  : 			result = __base64_get(r);

  00081	ff 75 dc	 push	 DWORD PTR _r$[ebp]
  00084	e8 00 00 00 00	 call	 ?__base64_get@@YAHH@Z	; __base64_get
  00089	59		 pop	 ecx
  0008a	89 45 e4	 mov	 DWORD PTR _result$[ebp], eax

; 339  : 			if(result!=-2)

  0008d	83 7d e4 fe	 cmp	 DWORD PTR _result$[ebp], -2 ; fffffffeH
  00091	74 28		 je	 SHORT $LN9@base64_dec

; 340  : 			{
; 341  : 				if(result!=-1)

  00093	83 7d e4 ff	 cmp	 DWORD PTR _result$[ebp], -1
  00097	74 13		 je	 SHORT $LN10@base64_dec

; 342  : 					szDest[i++] = result;

  00099	8b 45 f0	 mov	 eax, DWORD PTR _i$[ebp]
  0009c	8a 4d e4	 mov	 cl, BYTE PTR _result$[ebp]
  0009f	88 4c 05 f4	 mov	 BYTE PTR _szDest$[ebp+eax], cl
  000a3	8b 45 f0	 mov	 eax, DWORD PTR _i$[ebp]
  000a6	40		 inc	 eax
  000a7	89 45 f0	 mov	 DWORD PTR _i$[ebp], eax
  000aa	eb 0f		 jmp	 SHORT $LN9@base64_dec
$LN10@base64_dec:

; 343  : 				else szDest[i++] = '@';	// It's end  (64    )

  000ac	8b 45 f0	 mov	 eax, DWORD PTR _i$[ebp]
  000af	c6 44 05 f4 40	 mov	 BYTE PTR _szDest$[ebp+eax], 64 ; 00000040H
  000b4	8b 45 f0	 mov	 eax, DWORD PTR _i$[ebp]
  000b7	40		 inc	 eax
  000b8	89 45 f0	 mov	 DWORD PTR _i$[ebp], eax
$LN9@base64_dec:

; 344  : 			}
; 345  : 		}

  000bb	eb a3		 jmp	 SHORT $LN4@base64_dec
$LN5@base64_dec:

; 346  : 
; 347  : 		if(i==4)	// 4   .  

  000bd	83 7d f0 04	 cmp	 DWORD PTR _i$[ebp], 4
  000c1	0f 85 8b 01 00
	00		 jne	 $LN12@base64_dec

; 348  : 		{	
; 349  : 			if( nCount+3 >= length )	//   .

  000c7	8b 45 e8	 mov	 eax, DWORD PTR _nCount$[ebp]
  000ca	83 c0 03	 add	 eax, 3
  000cd	3b 45 e0	 cmp	 eax, DWORD PTR _length$[ebp]
  000d0	0f 8c 06 01 00
	00		 jl	 $LN13@base64_dec

; 350  : 			{
; 351  : 				if( szDest[1] == '@' )

  000d6	33 c0		 xor	 eax, eax
  000d8	40		 inc	 eax
  000d9	c1 e0 00	 shl	 eax, 0
  000dc	0f be 44 05 f4	 movsx	 eax, BYTE PTR _szDest$[ebp+eax]
  000e1	83 f8 40	 cmp	 eax, 64			; 00000040H
  000e4	75 20		 jne	 SHORT $LN15@base64_dec

; 352  : 				{
; 353  : 					__strcat1(resultStr,(szDest[0]<<2));		

  000e6	33 c0		 xor	 eax, eax
  000e8	40		 inc	 eax
  000e9	6b c0 00	 imul	 eax, eax, 0
  000ec	0f be 44 05 f4	 movsx	 eax, BYTE PTR _szDest$[ebp+eax]
  000f1	c1 e0 02	 shl	 eax, 2
  000f4	50		 push	 eax
  000f5	ff 75 0c	 push	 DWORD PTR _resultStr$[ebp]
  000f8	e8 00 00 00 00	 call	 ?__strcat1@@YAXPADH@Z	; __strcat1
  000fd	59		 pop	 ecx
  000fe	59		 pop	 ecx

; 354  : 					break;

  000ff	e9 53 01 00 00	 jmp	 $LN3@base64_dec

; 355  : 				}// exit while loop

  00104	eb 29		 jmp	 SHORT $LN16@base64_dec
$LN15@base64_dec:

; 356  : 				else 
; 357  : 					__strcat1(resultStr,(szDest[0]<<2 | szDest[1]>>4));	// 1 Byte

  00106	33 c0		 xor	 eax, eax
  00108	40		 inc	 eax
  00109	6b c0 00	 imul	 eax, eax, 0
  0010c	0f be 44 05 f4	 movsx	 eax, BYTE PTR _szDest$[ebp+eax]
  00111	c1 e0 02	 shl	 eax, 2
  00114	33 c9		 xor	 ecx, ecx
  00116	41		 inc	 ecx
  00117	c1 e1 00	 shl	 ecx, 0
  0011a	0f be 4c 0d f4	 movsx	 ecx, BYTE PTR _szDest$[ebp+ecx]
  0011f	c1 f9 04	 sar	 ecx, 4
  00122	0b c1		 or	 eax, ecx
  00124	50		 push	 eax
  00125	ff 75 0c	 push	 DWORD PTR _resultStr$[ebp]
  00128	e8 00 00 00 00	 call	 ?__strcat1@@YAXPADH@Z	; __strcat1
  0012d	59		 pop	 ecx
  0012e	59		 pop	 ecx
$LN16@base64_dec:

; 358  : 				if( szDest[2] == '@' )

  0012f	33 c0		 xor	 eax, eax
  00131	40		 inc	 eax
  00132	d1 e0		 shl	 eax, 1
  00134	0f be 44 05 f4	 movsx	 eax, BYTE PTR _szDest$[ebp+eax]
  00139	83 f8 40	 cmp	 eax, 64			; 00000040H
  0013c	75 20		 jne	 SHORT $LN17@base64_dec

; 359  : 				{
; 360  : 					__strcat1(resultStr,(szDest[1]<<4));

  0013e	33 c0		 xor	 eax, eax
  00140	40		 inc	 eax
  00141	c1 e0 00	 shl	 eax, 0
  00144	0f be 44 05 f4	 movsx	 eax, BYTE PTR _szDest$[ebp+eax]
  00149	c1 e0 04	 shl	 eax, 4
  0014c	50		 push	 eax
  0014d	ff 75 0c	 push	 DWORD PTR _resultStr$[ebp]
  00150	e8 00 00 00 00	 call	 ?__strcat1@@YAXPADH@Z	; __strcat1
  00155	59		 pop	 ecx
  00156	59		 pop	 ecx

; 361  : 					break;

  00157	e9 fb 00 00 00	 jmp	 $LN3@base64_dec

; 362  : 				}

  0015c	eb 28		 jmp	 SHORT $LN18@base64_dec
$LN17@base64_dec:

; 363  : 				else 
; 364  : 					__strcat1(resultStr,(szDest[1]<<4 | szDest[2]>>2));	// 2 Byte				

  0015e	33 c0		 xor	 eax, eax
  00160	40		 inc	 eax
  00161	c1 e0 00	 shl	 eax, 0
  00164	0f be 44 05 f4	 movsx	 eax, BYTE PTR _szDest$[ebp+eax]
  00169	c1 e0 04	 shl	 eax, 4
  0016c	33 c9		 xor	 ecx, ecx
  0016e	41		 inc	 ecx
  0016f	d1 e1		 shl	 ecx, 1
  00171	0f be 4c 0d f4	 movsx	 ecx, BYTE PTR _szDest$[ebp+ecx]
  00176	c1 f9 02	 sar	 ecx, 2
  00179	0b c1		 or	 eax, ecx
  0017b	50		 push	 eax
  0017c	ff 75 0c	 push	 DWORD PTR _resultStr$[ebp]
  0017f	e8 00 00 00 00	 call	 ?__strcat1@@YAXPADH@Z	; __strcat1
  00184	59		 pop	 ecx
  00185	59		 pop	 ecx
$LN18@base64_dec:

; 365  : 				if( szDest[3] == '@' )

  00186	33 c0		 xor	 eax, eax
  00188	40		 inc	 eax
  00189	6b c0 03	 imul	 eax, eax, 3
  0018c	0f be 44 05 f4	 movsx	 eax, BYTE PTR _szDest$[ebp+eax]
  00191	83 f8 40	 cmp	 eax, 64			; 00000040H
  00194	75 1f		 jne	 SHORT $LN19@base64_dec

; 366  : 				{
; 367  : 					__strcat1(resultStr,(szDest[2]<<6));

  00196	33 c0		 xor	 eax, eax
  00198	40		 inc	 eax
  00199	d1 e0		 shl	 eax, 1
  0019b	0f be 44 05 f4	 movsx	 eax, BYTE PTR _szDest$[ebp+eax]
  001a0	c1 e0 06	 shl	 eax, 6
  001a3	50		 push	 eax
  001a4	ff 75 0c	 push	 DWORD PTR _resultStr$[ebp]
  001a7	e8 00 00 00 00	 call	 ?__strcat1@@YAXPADH@Z	; __strcat1
  001ac	59		 pop	 ecx
  001ad	59		 pop	 ecx

; 368  : 					break;

  001ae	e9 a4 00 00 00	 jmp	 $LN3@base64_dec

; 369  : 				}

  001b3	eb 25		 jmp	 SHORT $LN20@base64_dec
$LN19@base64_dec:

; 370  : 				else 
; 371  : 					__strcat1(resultStr,(szDest[2]<<6 | szDest[3]));	// 3 Byte				

  001b5	33 c0		 xor	 eax, eax
  001b7	40		 inc	 eax
  001b8	d1 e0		 shl	 eax, 1
  001ba	0f be 44 05 f4	 movsx	 eax, BYTE PTR _szDest$[ebp+eax]
  001bf	c1 e0 06	 shl	 eax, 6
  001c2	33 c9		 xor	 ecx, ecx
  001c4	41		 inc	 ecx
  001c5	6b c9 03	 imul	 ecx, ecx, 3
  001c8	0f be 4c 0d f4	 movsx	 ecx, BYTE PTR _szDest$[ebp+ecx]
  001cd	0b c1		 or	 eax, ecx
  001cf	50		 push	 eax
  001d0	ff 75 0c	 push	 DWORD PTR _resultStr$[ebp]
  001d3	e8 00 00 00 00	 call	 ?__strcat1@@YAXPADH@Z	; __strcat1
  001d8	59		 pop	 ecx
  001d9	59		 pop	 ecx
$LN20@base64_dec:

; 372  : 			}

  001da	eb 76		 jmp	 SHORT $LN12@base64_dec
$LN13@base64_dec:

; 373  : 			else
; 374  : 			{
; 375  : 				__strcat1(resultStr,(szDest[0]<<2 | szDest[1]>>4));	// 1 Byte

  001dc	33 c0		 xor	 eax, eax
  001de	40		 inc	 eax
  001df	6b c0 00	 imul	 eax, eax, 0
  001e2	0f be 44 05 f4	 movsx	 eax, BYTE PTR _szDest$[ebp+eax]
  001e7	c1 e0 02	 shl	 eax, 2
  001ea	33 c9		 xor	 ecx, ecx
  001ec	41		 inc	 ecx
  001ed	c1 e1 00	 shl	 ecx, 0
  001f0	0f be 4c 0d f4	 movsx	 ecx, BYTE PTR _szDest$[ebp+ecx]
  001f5	c1 f9 04	 sar	 ecx, 4
  001f8	0b c1		 or	 eax, ecx
  001fa	50		 push	 eax
  001fb	ff 75 0c	 push	 DWORD PTR _resultStr$[ebp]
  001fe	e8 00 00 00 00	 call	 ?__strcat1@@YAXPADH@Z	; __strcat1
  00203	59		 pop	 ecx
  00204	59		 pop	 ecx

; 376  : 				__strcat1(resultStr,(szDest[1]<<4 | szDest[2]>>2));	// 2 Byte				

  00205	33 c0		 xor	 eax, eax
  00207	40		 inc	 eax
  00208	c1 e0 00	 shl	 eax, 0
  0020b	0f be 44 05 f4	 movsx	 eax, BYTE PTR _szDest$[ebp+eax]
  00210	c1 e0 04	 shl	 eax, 4
  00213	33 c9		 xor	 ecx, ecx
  00215	41		 inc	 ecx
  00216	d1 e1		 shl	 ecx, 1
  00218	0f be 4c 0d f4	 movsx	 ecx, BYTE PTR _szDest$[ebp+ecx]
  0021d	c1 f9 02	 sar	 ecx, 2
  00220	0b c1		 or	 eax, ecx
  00222	50		 push	 eax
  00223	ff 75 0c	 push	 DWORD PTR _resultStr$[ebp]
  00226	e8 00 00 00 00	 call	 ?__strcat1@@YAXPADH@Z	; __strcat1
  0022b	59		 pop	 ecx
  0022c	59		 pop	 ecx

; 377  : 				__strcat1(resultStr,(szDest[2]<<6 | szDest[3]));	// 3 Byte

  0022d	33 c0		 xor	 eax, eax
  0022f	40		 inc	 eax
  00230	d1 e0		 shl	 eax, 1
  00232	0f be 44 05 f4	 movsx	 eax, BYTE PTR _szDest$[ebp+eax]
  00237	c1 e0 06	 shl	 eax, 6
  0023a	33 c9		 xor	 ecx, ecx
  0023c	41		 inc	 ecx
  0023d	6b c9 03	 imul	 ecx, ecx, 3
  00240	0f be 4c 0d f4	 movsx	 ecx, BYTE PTR _szDest$[ebp+ecx]
  00245	0b c1		 or	 eax, ecx
  00247	50		 push	 eax
  00248	ff 75 0c	 push	 DWORD PTR _resultStr$[ebp]
  0024b	e8 00 00 00 00	 call	 ?__strcat1@@YAXPADH@Z	; __strcat1
  00250	59		 pop	 ecx
  00251	59		 pop	 ecx
$LN12@base64_dec:

; 378  : 			}
; 379  : 		}
; 380  : 		
; 381  : 	}// end of while

  00252	e9 e9 fd ff ff	 jmp	 $LN2@base64_dec
$LN3@base64_dec:

; 382  : 
; 383  : 	for (i = 0; i < strlen(resultStr); i++) 

  00257	83 65 f0 00	 and	 DWORD PTR _i$[ebp], 0
  0025b	eb 07		 jmp	 SHORT $LN8@base64_dec
$LN6@base64_dec:
  0025d	8b 45 f0	 mov	 eax, DWORD PTR _i$[ebp]
  00260	40		 inc	 eax
  00261	89 45 f0	 mov	 DWORD PTR _i$[ebp], eax
$LN8@base64_dec:
  00264	ff 75 0c	 push	 DWORD PTR _resultStr$[ebp]
  00267	e8 00 00 00 00	 call	 _strlen
  0026c	59		 pop	 ecx
  0026d	39 45 f0	 cmp	 DWORD PTR _i$[ebp], eax
  00270	73 25		 jae	 SHORT $LN1@base64_dec

; 384  : 	{
; 385  : 		char c = resultStr[i];

  00272	8b 45 0c	 mov	 eax, DWORD PTR _resultStr$[ebp]
  00275	03 45 f0	 add	 eax, DWORD PTR _i$[ebp]
  00278	8a 00		 mov	 al, BYTE PTR [eax]
  0027a	88 45 ef	 mov	 BYTE PTR _c$2[ebp], al

; 386  : 		int xor = i + 5;

  0027d	8b 45 f0	 mov	 eax, DWORD PTR _i$[ebp]
  00280	83 c0 05	 add	 eax, 5
  00283	89 45 d8	 mov	 DWORD PTR _xor$1[ebp], eax

; 387  : 		resultStr[i] = char(c ^ xor);

  00286	0f be 45 ef	 movsx	 eax, BYTE PTR _c$2[ebp]
  0028a	33 45 d8	 xor	 eax, DWORD PTR _xor$1[ebp]
  0028d	8b 4d 0c	 mov	 ecx, DWORD PTR _resultStr$[ebp]
  00290	03 4d f0	 add	 ecx, DWORD PTR _i$[ebp]
  00293	88 01		 mov	 BYTE PTR [ecx], al

; 388  : 	}	

  00295	eb c6		 jmp	 SHORT $LN6@base64_dec
$LN1@base64_dec:

; 389  : 	// E
; 390  : }

  00297	8b 4d fc	 mov	 ecx, DWORD PTR __$ArrayPad$[ebp]
  0029a	33 cd		 xor	 ecx, ebp
  0029c	e8 00 00 00 00	 call	 @__security_check_cookie@4
  002a1	c9		 leave
  002a2	c3		 ret	 0
?base64_decode@@YAXPBDPAD@Z ENDP			; base64_decode
_TEXT	ENDS
; Function compile flags: /Odspy
; File D:\Metin2 Server Files\mainline\SRC_2014\Metin2Client\EterLib\Util.cpp
; File C:\Program Files (x86)\Microsoft Visual Studio\2019\Community\VC\Tools\MSVC\14.28.29333\include\xstring
; File D:\Metin2 Server Files\mainline\SRC_2014\Metin2Client\EterLib\Util.cpp
; File C:\Program Files (x86)\Microsoft Visual Studio\2019\Community\VC\Tools\MSVC\14.28.29333\include\xstring
; File D:\Metin2 Server Files\mainline\SRC_2014\Metin2Client\EterLib\Util.cpp
; File C:\Program Files (x86)\Microsoft Visual Studio\2019\Community\VC\Tools\MSVC\14.28.29333\include\xstring
; File D:\Metin2 Server Files\mainline\SRC_2014\Metin2Client\EterLib\Util.cpp
;	COMDAT ?SetDefaultCodePage@@YA_NK@Z
_TEXT	SEGMENT
$T2 = -52						; size = 4
tv95 = -48						; size = 4
$T3 = -43						; size = 1
$T4 = -42						; size = 1
$T5 = -41						; size = 1
_fontFace$ = -40					; size = 24
__$ArrayPad$ = -16					; size = 4
__$EHRec$ = -12						; size = 12
_codePage$ = 8						; size = 4
?SetDefaultCodePage@@YA_NK@Z PROC			; SetDefaultCodePage, COMDAT

; 286  : {

  00000	55		 push	 ebp
  00001	8b ec		 mov	 ebp, esp
  00003	6a ff		 push	 -1
  00005	68 00 00 00 00	 push	 __ehhandler$?SetDefaultCodePage@@YA_NK@Z
  0000a	64 a1 00 00 00
	00		 mov	 eax, DWORD PTR fs:0
  00010	50		 push	 eax
  00011	83 ec 28	 sub	 esp, 40			; 00000028H
  00014	a1 00 00 00 00	 mov	 eax, DWORD PTR ___security_cookie
  00019	33 c5		 xor	 eax, ebp
  0001b	89 45 f0	 mov	 DWORD PTR __$ArrayPad$[ebp], eax
  0001e	50		 push	 eax
  0001f	8d 45 f4	 lea	 eax, DWORD PTR __$EHRec$[ebp]
  00022	64 a3 00 00 00
	00		 mov	 DWORD PTR fs:0, eax

; 287  : 	gs_codePage=codePage;

  00028	8b 45 08	 mov	 eax, DWORD PTR _codePage$[ebp]
  0002b	a3 00 00 00 00	 mov	 DWORD PTR ?gs_codePage@@3KA, eax

; 288  : 
; 289  : 	std::string fontFace=GetFontFaceFromCodePage(codePage);

  00030	ff 75 08	 push	 DWORD PTR _codePage$[ebp]
  00033	e8 00 00 00 00	 call	 ?GetFontFaceFromCodePage@@YAPBDG@Z ; GetFontFaceFromCodePage
  00038	59		 pop	 ecx
  00039	50		 push	 eax
  0003a	8d 4d d8	 lea	 ecx, DWORD PTR _fontFace$[ebp]
  0003d	e8 00 00 00 00	 call	 ??0?$basic_string@DU?$char_traits@D@std@@V?$allocator@D@2@@std@@QAE@QBD@Z ; std::basic_string<char,std::char_traits<char>,std::allocator<char> >::basic_string<char,std::char_traits<char>,std::allocator<char> >
  00042	83 65 fc 00	 and	 DWORD PTR __$EHRec$[ebp+8], 0
; File C:\Program Files (x86)\Microsoft Visual Studio\2019\Community\VC\Tools\MSVC\14.28.29333\include\xstring

; 3770 :         return _Mypair._Myval2._Mysize;

  00046	8b 45 e8	 mov	 eax, DWORD PTR _fontFace$[ebp+16]
  00049	89 45 cc	 mov	 DWORD PTR $T2[ebp], eax

; 3848 :         return size() == 0;

  0004c	83 7d cc 00	 cmp	 DWORD PTR $T2[ebp], 0
  00050	75 09		 jne	 SHORT $LN36@SetDefault
  00052	c7 45 d0 01 00
	00 00		 mov	 DWORD PTR tv95[ebp], 1
  00059	eb 04		 jmp	 SHORT $LN37@SetDefault
$LN36@SetDefault:
  0005b	83 65 d0 00	 and	 DWORD PTR tv95[ebp], 0
$LN37@SetDefault:
  0005f	8a 45 d0	 mov	 al, BYTE PTR tv95[ebp]
  00062	88 45 d7	 mov	 BYTE PTR $T5[ebp], al
; File D:\Metin2 Server Files\mainline\SRC_2014\Metin2Client\EterLib\Util.cpp

; 290  : 	if (fontFace.empty())

  00065	0f b6 45 d7	 movzx	 eax, BYTE PTR $T5[ebp]
  00069	85 c0		 test	 eax, eax
  0006b	74 15		 je	 SHORT $LN2@SetDefault

; 291  : 		return false;

  0006d	c6 45 d6 00	 mov	 BYTE PTR $T4[ebp], 0
  00071	83 4d fc ff	 or	 DWORD PTR __$EHRec$[ebp+8], -1
; File C:\Program Files (x86)\Microsoft Visual Studio\2019\Community\VC\Tools\MSVC\14.28.29333\include\xstring

; 2801 :         _Tidy_deallocate();

  00075	8d 4d d8	 lea	 ecx, DWORD PTR _fontFace$[ebp]
  00078	e8 00 00 00 00	 call	 ?_Tidy_deallocate@?$basic_string@DU?$char_traits@D@std@@V?$allocator@D@2@@std@@AAEXXZ ; std::basic_string<char,std::char_traits<char>,std::allocator<char> >::_Tidy_deallocate
; File D:\Metin2 Server Files\mainline\SRC_2014\Metin2Client\EterLib\Util.cpp

; 291  : 		return false;

  0007d	8a 45 d6	 mov	 al, BYTE PTR $T4[ebp]
  00080	eb 22		 jmp	 SHORT $LN1@SetDefault
$LN2@SetDefault:

; 292  : 
; 293  : 	SetDefaultFontFace(fontFace.c_str());

  00082	8d 4d d8	 lea	 ecx, DWORD PTR _fontFace$[ebp]
  00085	e8 00 00 00 00	 call	 ?c_str@?$basic_string@DU?$char_traits@D@std@@V?$allocator@D@2@@std@@QBEPBDXZ ; std::basic_string<char,std::char_traits<char>,std::allocator<char> >::c_str
  0008a	50		 push	 eax
  0008b	e8 00 00 00 00	 call	 ?SetDefaultFontFace@@YAXPBD@Z ; SetDefaultFontFace
  00090	59		 pop	 ecx

; 295  : 	return true;

  00091	c6 45 d5 01	 mov	 BYTE PTR $T3[ebp], 1
  00095	83 4d fc ff	 or	 DWORD PTR __$EHRec$[ebp+8], -1
; File C:\Program Files (x86)\Microsoft Visual Studio\2019\Community\VC\Tools\MSVC\14.28.29333\include\xstring

; 2801 :         _Tidy_deallocate();

  00099	8d 4d d8	 lea	 ecx, DWORD PTR _fontFace$[ebp]
  0009c	e8 00 00 00 00	 call	 ?_Tidy_deallocate@?$basic_string@DU?$char_traits@D@std@@V?$allocator@D@2@@std@@AAEXXZ ; std::basic_string<char,std::char_traits<char>,std::allocator<char> >::_Tidy_deallocate
; File D:\Metin2 Server Files\mainline\SRC_2014\Metin2Client\EterLib\Util.cpp

; 295  : 	return true;

  000a1	8a 45 d5	 mov	 al, BYTE PTR $T3[ebp]
$LN1@SetDefault:

; 296  : }

  000a4	8b 4d f4	 mov	 ecx, DWORD PTR __$EHRec$[ebp]
  000a7	64 89 0d 00 00
	00 00		 mov	 DWORD PTR fs:0, ecx
  000ae	59		 pop	 ecx
  000af	8b 4d f0	 mov	 ecx, DWORD PTR __$ArrayPad$[ebp]
  000b2	33 cd		 xor	 ecx, ebp
  000b4	e8 00 00 00 00	 call	 @__security_check_cookie@4
  000b9	c9		 leave
  000ba	c3		 ret	 0
_TEXT	ENDS
;	COMDAT text$x
text$x	SEGMENT
__unwindfunclet$?SetDefaultCodePage@@YA_NK@Z$0:
  00000	8d 4d d8	 lea	 ecx, DWORD PTR _fontFace$[ebp]
  00003	e9 00 00 00 00	 jmp	 ??1?$basic_string@DU?$char_traits@D@std@@V?$allocator@D@2@@std@@QAE@XZ ; std::basic_string<char,std::char_traits<char>,std::allocator<char> >::~basic_string<char,std::char_traits<char>,std::allocator<char> >
  00008	cc		 int	 3
  00009	cc		 int	 3
  0000a	cc		 int	 3
  0000b	cc		 int	 3
  0000c	cc		 int	 3
__ehhandler$?SetDefaultCodePage@@YA_NK@Z:
  0000d	90		 npad	 1
  0000e	90		 npad	 1
  0000f	8b 54 24 08	 mov	 edx, DWORD PTR [esp+8]
  00013	8d 42 0c	 lea	 eax, DWORD PTR [edx+12]
  00016	8b 4a d4	 mov	 ecx, DWORD PTR [edx-44]
  00019	33 c8		 xor	 ecx, eax
  0001b	e8 00 00 00 00	 call	 @__security_check_cookie@4
  00020	8b 4a fc	 mov	 ecx, DWORD PTR [edx-4]
  00023	33 c8		 xor	 ecx, eax
  00025	e8 00 00 00 00	 call	 @__security_check_cookie@4
  0002a	b8 00 00 00 00	 mov	 eax, OFFSET __ehfuncinfo$?SetDefaultCodePage@@YA_NK@Z
  0002f	e9 00 00 00 00	 jmp	 ___CxxFrameHandler3
text$x	ENDS
?SetDefaultCodePage@@YA_NK@Z ENDP			; SetDefaultCodePage
; Function compile flags: /Odspy
; File D:\Metin2 Server Files\mainline\SRC_2014\Metin2Client\EterLib\Util.cpp
; File C:\Program Files (x86)\Microsoft Visual Studio\2019\Community\VC\Tools\MSVC\14.28.29333\include\xstring
; File C:\Program Files (x86)\Microsoft Visual Studio\2019\Community\VC\Tools\MSVC\14.28.29333\include\xmemory
; File C:\Program Files (x86)\Microsoft Visual Studio\2019\Community\VC\Tools\MSVC\14.28.29333\include\xstring
; File D:\Metin2 Server Files\mainline\SRC_2014\Metin2Client\EterLib\Util.cpp
;	COMDAT ?SetDefaultFontFace@@YAXPBD@Z
_TEXT	SEGMENT
$T1 = -8						; size = 4
$T2 = -4						; size = 4
_fontFace$ = 8						; size = 4
?SetDefaultFontFace@@YAXPBD@Z PROC			; SetDefaultFontFace, COMDAT

; 281  : {

  00000	55		 push	 ebp
  00001	8b ec		 mov	 ebp, esp
  00003	51		 push	 ecx
  00004	51		 push	 ecx
; File C:\Program Files (x86)\Microsoft Visual Studio\2019\Community\VC\Tools\MSVC\14.28.29333\include\xstring

; 389  :         return _CSTD strlen(reinterpret_cast<const char*>(_First));

  00005	ff 75 08	 push	 DWORD PTR _fontFace$[ebp]
  00008	e8 00 00 00 00	 call	 _strlen
  0000d	59		 pop	 ecx
  0000e	89 45 fc	 mov	 DWORD PTR $T2[ebp], eax
; File C:\Program Files (x86)\Microsoft Visual Studio\2019\Community\VC\Tools\MSVC\14.28.29333\include\xmemory

; 997  :     return _Len;

  00011	8b 45 fc	 mov	 eax, DWORD PTR $T2[ebp]
  00014	89 45 f8	 mov	 DWORD PTR $T1[ebp], eax
; File C:\Program Files (x86)\Microsoft Visual Studio\2019\Community\VC\Tools\MSVC\14.28.29333\include\xstring

; 3062 :         return assign(_Ptr, _Convert_size<size_type>(_Traits::length(_Ptr)));

  00017	ff 75 f8	 push	 DWORD PTR $T1[ebp]
  0001a	ff 75 08	 push	 DWORD PTR _fontFace$[ebp]
  0001d	b9 00 00 00 00	 mov	 ecx, OFFSET ?gs_fontFace@@3V?$basic_string@DU?$char_traits@D@std@@V?$allocator@D@2@@std@@A
  00022	e8 00 00 00 00	 call	 ?assign@?$basic_string@DU?$char_traits@D@std@@V?$allocator@D@2@@std@@QAEAAV12@QBDI@Z ; std::basic_string<char,std::char_traits<char>,std::allocator<char> >::assign
; File D:\Metin2 Server Files\mainline\SRC_2014\Metin2Client\EterLib\Util.cpp

; 283  : }

  00027	c9		 leave
  00028	c3		 ret	 0
?SetDefaultFontFace@@YAXPBD@Z ENDP			; SetDefaultFontFace
_TEXT	ENDS
; Function compile flags: /Odspy
; File D:\Metin2 Server Files\mainline\SRC_2014\Metin2Client\EterLib\Util.cpp
;	COMDAT ?GetFontFaceFromCodePage@@YAPBDG@Z
_TEXT	SEGMENT
_hDC$ = -72						; size = 4
_fontFace$ = -68					; size = 4
_logFont$ = -64						; size = 60
__$ArrayPad$ = -4					; size = 4
_codePage$ = 8						; size = 2
?GetFontFaceFromCodePage@@YAPBDG@Z PROC			; GetFontFaceFromCodePage, COMDAT

; 250  : {

  00000	55		 push	 ebp
  00001	8b ec		 mov	 ebp, esp
  00003	83 ec 48	 sub	 esp, 72			; 00000048H
  00006	a1 00 00 00 00	 mov	 eax, DWORD PTR ___security_cookie
  0000b	33 c5		 xor	 eax, ebp
  0000d	89 45 fc	 mov	 DWORD PTR __$ArrayPad$[ebp], eax

; 251  : 	LOGFONT logFont;
; 252  : 
; 253  : 	memset(&logFont, 0, sizeof(logFont));

  00010	6a 3c		 push	 60			; 0000003cH
  00012	6a 00		 push	 0
  00014	8d 45 c0	 lea	 eax, DWORD PTR _logFont$[ebp]
  00017	50		 push	 eax
  00018	e8 00 00 00 00	 call	 _memset
  0001d	83 c4 0c	 add	 esp, 12			; 0000000cH

; 254  : 
; 255  : 	logFont.lfCharSet = GetCharsetFromCodePage(codePage);

  00020	ff 75 08	 push	 DWORD PTR _codePage$[ebp]
  00023	e8 00 00 00 00	 call	 ?GetCharsetFromCodePage@@YAHG@Z ; GetCharsetFromCodePage
  00028	59		 pop	 ecx
  00029	88 45 d7	 mov	 BYTE PTR _logFont$[ebp+23], al

; 256  : 
; 257  : 	const char* fontFace = GetFontFaceFromCodePage9x(codePage);

  0002c	ff 75 08	 push	 DWORD PTR _codePage$[ebp]
  0002f	e8 00 00 00 00	 call	 ?GetFontFaceFromCodePage9x@@YAPBDG@Z ; GetFontFaceFromCodePage9x
  00034	59		 pop	 ecx
  00035	89 45 bc	 mov	 DWORD PTR _fontFace$[ebp], eax

; 258  : 
; 259  : 	HDC hDC=GetDC(NULL);

  00038	6a 00		 push	 0
  0003a	ff 15 00 00 00
	00		 call	 DWORD PTR __imp__GetDC@4
  00040	89 45 b8	 mov	 DWORD PTR _hDC$[ebp], eax

; 260  : 
; 261  : 	if(EnumFontFamiliesEx(hDC, &logFont, (FONTENUMPROC)EnumFontFamExProc, (LONG)fontFace, 0) == 0)

  00043	6a 00		 push	 0
  00045	ff 75 bc	 push	 DWORD PTR _fontFace$[ebp]
  00048	68 00 00 00 00	 push	 OFFSET ?EnumFontFamExProc@@YGHPBUtagLOGFONTA@@PBUtagTEXTMETRICA@@KJ@Z ; EnumFontFamExProc
  0004d	8d 45 c0	 lea	 eax, DWORD PTR _logFont$[ebp]
  00050	50		 push	 eax
  00051	ff 75 b8	 push	 DWORD PTR _hDC$[ebp]
  00054	ff 15 00 00 00
	00		 call	 DWORD PTR __imp__EnumFontFamiliesExA@20
  0005a	85 c0		 test	 eax, eax
  0005c	75 10		 jne	 SHORT $LN2@GetFontFac

; 262  : 	{
; 263  : 		ReleaseDC(NULL, hDC);

  0005e	ff 75 b8	 push	 DWORD PTR _hDC$[ebp]
  00061	6a 00		 push	 0
  00063	ff 15 00 00 00
	00		 call	 DWORD PTR __imp__ReleaseDC@8

; 264  : 		return fontFace;

  00069	8b 45 bc	 mov	 eax, DWORD PTR _fontFace$[ebp]
  0006c	eb 47		 jmp	 SHORT $LN1@GetFontFac
$LN2@GetFontFac:

; 265  : 	}
; 266  : 
; 267  : 	fontFace = GetFontFaceFromCodePageNT(codePage);

  0006e	ff 75 08	 push	 DWORD PTR _codePage$[ebp]
  00071	e8 00 00 00 00	 call	 ?GetFontFaceFromCodePageNT@@YAPBDG@Z ; GetFontFaceFromCodePageNT
  00076	59		 pop	 ecx
  00077	89 45 bc	 mov	 DWORD PTR _fontFace$[ebp], eax

; 268  : 
; 269  : 	if(EnumFontFamiliesEx(hDC, &logFont, (FONTENUMPROC)EnumFontFamExProc, (LONG)fontFace, 0) == 0)

  0007a	6a 00		 push	 0
  0007c	ff 75 bc	 push	 DWORD PTR _fontFace$[ebp]
  0007f	68 00 00 00 00	 push	 OFFSET ?EnumFontFamExProc@@YGHPBUtagLOGFONTA@@PBUtagTEXTMETRICA@@KJ@Z ; EnumFontFamExProc
  00084	8d 45 c0	 lea	 eax, DWORD PTR _logFont$[ebp]
  00087	50		 push	 eax
  00088	ff 75 b8	 push	 DWORD PTR _hDC$[ebp]
  0008b	ff 15 00 00 00
	00		 call	 DWORD PTR __imp__EnumFontFamiliesExA@20
  00091	85 c0		 test	 eax, eax
  00093	75 10		 jne	 SHORT $LN3@GetFontFac

; 270  : 	{
; 271  : 		ReleaseDC(NULL, hDC);

  00095	ff 75 b8	 push	 DWORD PTR _hDC$[ebp]
  00098	6a 00		 push	 0
  0009a	ff 15 00 00 00
	00		 call	 DWORD PTR __imp__ReleaseDC@8

; 272  : 		return fontFace;

  000a0	8b 45 bc	 mov	 eax, DWORD PTR _fontFace$[ebp]
  000a3	eb 10		 jmp	 SHORT $LN1@GetFontFac
$LN3@GetFontFac:

; 273  : 	}
; 274  : 
; 275  : 	ReleaseDC(NULL, hDC);

  000a5	ff 75 b8	 push	 DWORD PTR _hDC$[ebp]
  000a8	6a 00		 push	 0
  000aa	ff 15 00 00 00
	00		 call	 DWORD PTR __imp__ReleaseDC@8

; 276  : 
; 277  : 	return GetDefaultFontFace();

  000b0	e8 00 00 00 00	 call	 ?GetDefaultFontFace@@YAPBDXZ ; GetDefaultFontFace
$LN1@GetFontFac:

; 278  : }

  000b5	8b 4d fc	 mov	 ecx, DWORD PTR __$ArrayPad$[ebp]
  000b8	33 cd		 xor	 ecx, ebp
  000ba	e8 00 00 00 00	 call	 @__security_check_cookie@4
  000bf	c9		 leave
  000c0	c3		 ret	 0
?GetFontFaceFromCodePage@@YAPBDG@Z ENDP			; GetFontFaceFromCodePage
_TEXT	ENDS
; Function compile flags: /Odspy
; File D:\Metin2 Server Files\mainline\SRC_2014\Metin2Client\EterLib\Util.cpp
; File C:\Program Files (x86)\Microsoft Visual Studio\2019\Community\VC\Tools\MSVC\14.28.29333\include\xstring
; File D:\Metin2 Server Files\mainline\SRC_2014\Metin2Client\EterLib\Util.cpp
;	COMDAT ?GetDefaultFontFace@@YAPBDXZ
_TEXT	SEGMENT
$T1 = -4						; size = 4
?GetDefaultFontFace@@YAPBDXZ PROC			; GetDefaultFontFace, COMDAT

; 245  : {

  00000	55		 push	 ebp
  00001	8b ec		 mov	 ebp, esp
  00003	51		 push	 ecx
; File C:\Program Files (x86)\Microsoft Visual Studio\2019\Community\VC\Tools\MSVC\14.28.29333\include\xstring

; 3752 :         return _Mypair._Myval2._Myptr();

  00004	b9 00 00 00 00	 mov	 ecx, OFFSET ?gs_fontFace@@3V?$basic_string@DU?$char_traits@D@std@@V?$allocator@D@2@@std@@A
  00009	e8 00 00 00 00	 call	 ?_Myptr@?$_String_val@U?$_Simple_types@D@std@@@std@@QBEPBDXZ ; std::_String_val<std::_Simple_types<char> >::_Myptr
  0000e	89 45 fc	 mov	 DWORD PTR $T1[ebp], eax
; File D:\Metin2 Server Files\mainline\SRC_2014\Metin2Client\EterLib\Util.cpp

; 246  : 	return gs_fontFace.c_str();

  00011	8b 45 fc	 mov	 eax, DWORD PTR $T1[ebp]

; 247  : }

  00014	c9		 leave
  00015	c3		 ret	 0
?GetDefaultFontFace@@YAPBDXZ ENDP			; GetDefaultFontFace
_TEXT	ENDS
; Function compile flags: /Odspy
; File D:\Metin2 Server Files\mainline\SRC_2014\Metin2Client\EterLib\Util.cpp
;	COMDAT ?GetDefaultCodePage@@YAKXZ
_TEXT	SEGMENT
?GetDefaultCodePage@@YAKXZ PROC				; GetDefaultCodePage, COMDAT

; 240  : {

  00000	55		 push	 ebp
  00001	8b ec		 mov	 ebp, esp

; 241  : 	return gs_codePage;

  00003	a1 00 00 00 00	 mov	 eax, DWORD PTR ?gs_codePage@@3KA

; 242  : }

  00008	5d		 pop	 ebp
  00009	c3		 ret	 0
?GetDefaultCodePage@@YAKXZ ENDP				; GetDefaultCodePage
_TEXT	ENDS
; Function compile flags: /Odspy
; File D:\Metin2 Server Files\mainline\SRC_2014\Metin2Client\EterLib\Util.cpp
;	COMDAT ?GetFontFaceFromCodePage9x@@YAPBDG@Z
_TEXT	SEGMENT
tv65 = -4						; size = 4
_codePage$ = 8						; size = 2
?GetFontFaceFromCodePage9x@@YAPBDG@Z PROC		; GetFontFaceFromCodePage9x, COMDAT

; 213  : {

  00000	55		 push	 ebp
  00001	8b ec		 mov	 ebp, esp
  00003	51		 push	 ecx

; 214  : 	switch( codePage )

  00004	0f b7 45 08	 movzx	 eax, WORD PTR _codePage$[ebp]
  00008	89 45 fc	 mov	 DWORD PTR tv65[ebp], eax
  0000b	81 7d fc b6 03
	00 00		 cmp	 DWORD PTR tv65[ebp], 950 ; 000003b6H
  00012	7f 2f		 jg	 SHORT $LN15@GetFontFac
  00014	81 7d fc b6 03
	00 00		 cmp	 DWORD PTR tv65[ebp], 950 ; 000003b6H
  0001b	74 61		 je	 SHORT $LN7@GetFontFac
  0001d	81 7d fc 6a 03
	00 00		 cmp	 DWORD PTR tv65[ebp], 874 ; 0000036aH
  00024	74 5f		 je	 SHORT $LN8@GetFontFac
  00026	81 7d fc a4 03
	00 00		 cmp	 DWORD PTR tv65[ebp], 932 ; 000003a4H
  0002d	74 3a		 je	 SHORT $LN4@GetFontFac
  0002f	81 7d fc a8 03
	00 00		 cmp	 DWORD PTR tv65[ebp], 936 ; 000003a8H
  00036	74 3f		 je	 SHORT $LN6@GetFontFac
  00038	81 7d fc b5 03
	00 00		 cmp	 DWORD PTR tv65[ebp], 949 ; 000003b5H
  0003f	74 2f		 je	 SHORT $LN5@GetFontFac
  00041	eb 65		 jmp	 SHORT $LN13@GetFontFac
$LN15@GetFontFac:
  00043	81 7d fc e4 04
	00 00		 cmp	 DWORD PTR tv65[ebp], 1252 ; 000004e4H
  0004a	74 40		 je	 SHORT $LN9@GetFontFac
  0004c	81 7d fc e8 04
	00 00		 cmp	 DWORD PTR tv65[ebp], 1256 ; 000004e8H
  00053	74 3e		 je	 SHORT $LN10@GetFontFac
  00055	81 7d fc ea 04
	00 00		 cmp	 DWORD PTR tv65[ebp], 1258 ; 000004eaH
  0005c	74 3c		 je	 SHORT $LN11@GetFontFac
  0005e	81 7d fc e9 fd
	00 00		 cmp	 DWORD PTR tv65[ebp], 65001 ; 0000fde9H
  00065	74 3a		 je	 SHORT $LN12@GetFontFac
  00067	eb 3f		 jmp	 SHORT $LN13@GetFontFac
$LN4@GetFontFac:

; 215  : 	{
; 216  : 	case CP_932:
; 217  : 		return "lr oSVbN";

  00069	b8 00 00 00 00	 mov	 eax, OFFSET ??_C@_0BA@GNIPJLFD@?$ICl?$ICr?5?$ICo?$IDS?$IDV?$IDb?$IDN@
  0006e	eb 3d		 jmp	 SHORT $LN1@GetFontFac
$LN5@GetFontFac:

; 218  : 	case CP_949:
; 219  : 		return "";

  00070	b8 00 00 00 00	 mov	 eax, OFFSET ??_C@_06MFMMLLPC@?$LB?$LM?$LI?$LC?C?$LM@
  00075	eb 36		 jmp	 SHORT $LN1@GetFontFac
$LN6@GetFontFac:

; 220  : 	case CP_936:
; 221  : 		return "";

  00077	b8 00 00 00 00	 mov	 eax, OFFSET ??_C@_04IKDGCAJA@?K?N?L?e@
  0007c	eb 2f		 jmp	 SHORT $LN1@GetFontFac
$LN7@GetFontFac:

; 222  : 	case CP_950:
; 223  : 		return "";

  0007e	b8 00 00 00 00	 mov	 eax, OFFSET ??_C@_06MNOHAHKD@?$LC?S?$KJ?z?E?i@
  00083	eb 28		 jmp	 SHORT $LN1@GetFontFac
$LN8@GetFontFac:

; 224  : 	case CP_874:
; 225  : 		return "Tahoma";

  00085	b8 00 00 00 00	 mov	 eax, OFFSET ??_C@_06IAEPOIJG@Tahoma@
  0008a	eb 21		 jmp	 SHORT $LN1@GetFontFac
$LN9@GetFontFac:

; 226  : 	case CP_1252:
; 227  : 		return "Arial";

  0008c	b8 00 00 00 00	 mov	 eax, OFFSET ??_C@_05MPFIAJAP@Arial@
  00091	eb 1a		 jmp	 SHORT $LN1@GetFontFac
$LN10@GetFontFac:

; 228  : 	case CP_1256:
; 229  : 		return "Tahoma"; 

  00093	b8 00 00 00 00	 mov	 eax, OFFSET ??_C@_06IAEPOIJG@Tahoma@
  00098	eb 13		 jmp	 SHORT $LN1@GetFontFac
$LN11@GetFontFac:

; 230  : 	case CP_1258:
; 231  : 		return "Tahoma"; 

  0009a	b8 00 00 00 00	 mov	 eax, OFFSET ??_C@_06IAEPOIJG@Tahoma@
  0009f	eb 0c		 jmp	 SHORT $LN1@GetFontFac
$LN12@GetFontFac:

; 232  : 	case CP_65001:
; 233  : 		return "Arial"; 

  000a1	b8 00 00 00 00	 mov	 eax, OFFSET ??_C@_05MPFIAJAP@Arial@
  000a6	eb 05		 jmp	 SHORT $LN1@GetFontFac
$LN13@GetFontFac:

; 234  : 	default:
; 235  : 		return "Arial";

  000a8	b8 00 00 00 00	 mov	 eax, OFFSET ??_C@_05MPFIAJAP@Arial@
$LN1@GetFontFac:

; 236  : 	}
; 237  : }

  000ad	c9		 leave
  000ae	c3		 ret	 0
?GetFontFaceFromCodePage9x@@YAPBDG@Z ENDP		; GetFontFaceFromCodePage9x
_TEXT	ENDS
; Function compile flags: /Odspy
; File D:\Metin2 Server Files\mainline\SRC_2014\Metin2Client\EterLib\Util.cpp
;	COMDAT ?GetFontFaceFromCodePageNT@@YAPBDG@Z
_TEXT	SEGMENT
tv65 = -4						; size = 4
_codePage$ = 8						; size = 2
?GetFontFaceFromCodePageNT@@YAPBDG@Z PROC		; GetFontFaceFromCodePageNT, COMDAT

; 187  : {

  00000	55		 push	 ebp
  00001	8b ec		 mov	 ebp, esp
  00003	51		 push	 ecx

; 188  : 	switch( codePage )

  00004	0f b7 45 08	 movzx	 eax, WORD PTR _codePage$[ebp]
  00008	89 45 fc	 mov	 DWORD PTR tv65[ebp], eax
  0000b	81 7d fc b6 03
	00 00		 cmp	 DWORD PTR tv65[ebp], 950 ; 000003b6H
  00012	7f 2f		 jg	 SHORT $LN15@GetFontFac
  00014	81 7d fc b6 03
	00 00		 cmp	 DWORD PTR tv65[ebp], 950 ; 000003b6H
  0001b	74 61		 je	 SHORT $LN7@GetFontFac
  0001d	81 7d fc 6a 03
	00 00		 cmp	 DWORD PTR tv65[ebp], 874 ; 0000036aH
  00024	74 5f		 je	 SHORT $LN8@GetFontFac
  00026	81 7d fc a4 03
	00 00		 cmp	 DWORD PTR tv65[ebp], 932 ; 000003a4H
  0002d	74 3a		 je	 SHORT $LN4@GetFontFac
  0002f	81 7d fc a8 03
	00 00		 cmp	 DWORD PTR tv65[ebp], 936 ; 000003a8H
  00036	74 3f		 je	 SHORT $LN6@GetFontFac
  00038	81 7d fc b5 03
	00 00		 cmp	 DWORD PTR tv65[ebp], 949 ; 000003b5H
  0003f	74 2f		 je	 SHORT $LN5@GetFontFac
  00041	eb 65		 jmp	 SHORT $LN13@GetFontFac
$LN15@GetFontFac:
  00043	81 7d fc e4 04
	00 00		 cmp	 DWORD PTR tv65[ebp], 1252 ; 000004e4H
  0004a	74 40		 je	 SHORT $LN9@GetFontFac
  0004c	81 7d fc e8 04
	00 00		 cmp	 DWORD PTR tv65[ebp], 1256 ; 000004e8H
  00053	74 3e		 je	 SHORT $LN10@GetFontFac
  00055	81 7d fc ea 04
	00 00		 cmp	 DWORD PTR tv65[ebp], 1258 ; 000004eaH
  0005c	74 3c		 je	 SHORT $LN11@GetFontFac
  0005e	81 7d fc e9 fd
	00 00		 cmp	 DWORD PTR tv65[ebp], 65001 ; 0000fde9H
  00065	74 3a		 je	 SHORT $LN12@GetFontFac
  00067	eb 3f		 jmp	 SHORT $LN13@GetFontFac
$LN4@GetFontFac:

; 189  : 	{
; 190  : 	case CP_932:
; 191  : 		return "MS PGothic";

  00069	b8 00 00 00 00	 mov	 eax, OFFSET ??_C@_0L@IPEIPBIF@MS?5PGothic@
  0006e	eb 3d		 jmp	 SHORT $LN1@GetFontFac
$LN5@GetFontFac:

; 192  : 	case CP_949:
; 193  : 		return "GulimChe";

  00070	b8 00 00 00 00	 mov	 eax, OFFSET ??_C@_08JCBFCDDN@GulimChe@
  00075	eb 36		 jmp	 SHORT $LN1@GetFontFac
$LN6@GetFontFac:

; 194  : 	case CP_936:
; 195  : 		return "SimSun";

  00077	b8 00 00 00 00	 mov	 eax, OFFSET ??_C@_06EOALHCBL@SimSun@
  0007c	eb 2f		 jmp	 SHORT $LN1@GetFontFac
$LN7@GetFontFac:

; 196  : 	case CP_950:
; 197  : 		return "MingLiU";

  0007e	b8 00 00 00 00	 mov	 eax, OFFSET ??_C@_07HOIPIFNA@MingLiU@
  00083	eb 28		 jmp	 SHORT $LN1@GetFontFac
$LN8@GetFontFac:

; 198  : 	case CP_874:
; 199  : 		return "Tahoma";

  00085	b8 00 00 00 00	 mov	 eax, OFFSET ??_C@_06IAEPOIJG@Tahoma@
  0008a	eb 21		 jmp	 SHORT $LN1@GetFontFac
$LN9@GetFontFac:

; 200  : 	case CP_1252:
; 201  : 		return "Arial";

  0008c	b8 00 00 00 00	 mov	 eax, OFFSET ??_C@_05MPFIAJAP@Arial@
  00091	eb 1a		 jmp	 SHORT $LN1@GetFontFac
$LN10@GetFontFac:

; 202  : 	case CP_1256:
; 203  : 		return "Tahoma"; 

  00093	b8 00 00 00 00	 mov	 eax, OFFSET ??_C@_06IAEPOIJG@Tahoma@
  00098	eb 13		 jmp	 SHORT $LN1@GetFontFac
$LN11@GetFontFac:

; 204  : 	case CP_1258:
; 205  : 		return "Tahoma"; 

  0009a	b8 00 00 00 00	 mov	 eax, OFFSET ??_C@_06IAEPOIJG@Tahoma@
  0009f	eb 0c		 jmp	 SHORT $LN1@GetFontFac
$LN12@GetFontFac:

; 206  : 	case CP_65001:
; 207  : 		return "Arial";

  000a1	b8 00 00 00 00	 mov	 eax, OFFSET ??_C@_05MPFIAJAP@Arial@
  000a6	eb 05		 jmp	 SHORT $LN1@GetFontFac
$LN13@GetFontFac:

; 208  : 	default:
; 209  : 		return "Arial";

  000a8	b8 00 00 00 00	 mov	 eax, OFFSET ??_C@_05MPFIAJAP@Arial@
$LN1@GetFontFac:

; 210  : 	}
; 211  : }

  000ad	c9		 leave
  000ae	c3		 ret	 0
?GetFontFaceFromCodePageNT@@YAPBDG@Z ENDP		; GetFontFaceFromCodePageNT
_TEXT	ENDS
; Function compile flags: /Odspy
; File D:\Metin2 Server Files\mainline\SRC_2014\Metin2Client\EterLib\Util.cpp
;	COMDAT ?GetCharsetFromCodePage@@YAHG@Z
_TEXT	SEGMENT
tv65 = -4						; size = 4
_codePage$ = 8						; size = 2
?GetCharsetFromCodePage@@YAHG@Z PROC			; GetCharsetFromCodePage, COMDAT

; 151  : {

  00000	55		 push	 ebp
  00001	8b ec		 mov	 ebp, esp
  00003	51		 push	 ecx

; 152  : 	switch( codePage )

  00004	0f b7 45 08	 movzx	 eax, WORD PTR _codePage$[ebp]
  00008	89 45 fc	 mov	 DWORD PTR tv65[ebp], eax
  0000b	81 7d fc e3 04
	00 00		 cmp	 DWORD PTR tv65[ebp], 1251 ; 000004e3H
  00012	7f 50		 jg	 SHORT $LN19@GetCharset
  00014	81 7d fc e3 04
	00 00		 cmp	 DWORD PTR tv65[ebp], 1251 ; 000004e3H
  0001b	0f 84 cf 00 00
	00		 je	 $LN16@GetCharset
  00021	81 7d fc 6a 03
	00 00		 cmp	 DWORD PTR tv65[ebp], 874 ; 0000036aH
  00028	0f 84 b4 00 00
	00		 je	 $LN14@GetCharset
  0002e	81 7d fc a4 03
	00 00		 cmp	 DWORD PTR tv65[ebp], 932 ; 000003a4H
  00035	74 65		 je	 SHORT $LN4@GetCharset
  00037	81 7d fc a8 03
	00 00		 cmp	 DWORD PTR tv65[ebp], 936 ; 000003a8H
  0003e	74 6a		 je	 SHORT $LN6@GetCharset
  00040	81 7d fc b5 03
	00 00		 cmp	 DWORD PTR tv65[ebp], 949 ; 000003b5H
  00047	74 5a		 je	 SHORT $LN5@GetCharset
  00049	81 7d fc b6 03
	00 00		 cmp	 DWORD PTR tv65[ebp], 950 ; 000003b6H
  00050	74 5f		 je	 SHORT $LN7@GetCharset
  00052	81 7d fc e2 04
	00 00		 cmp	 DWORD PTR tv65[ebp], 1250 ; 000004e2H
  00059	0f 84 8a 00 00
	00		 je	 $LN15@GetCharset
  0005f	e9 93 00 00 00	 jmp	 $LN17@GetCharset
$LN19@GetCharset:
  00064	81 7d fc e5 04
	00 00		 cmp	 DWORD PTR tv65[ebp], 1253 ; 000004e5H
  0006b	74 4b		 je	 SHORT $LN8@GetCharset
  0006d	81 7d fc e6 04
	00 00		 cmp	 DWORD PTR tv65[ebp], 1254 ; 000004e6H
  00074	74 49		 je	 SHORT $LN9@GetCharset
  00076	81 7d fc e7 04
	00 00		 cmp	 DWORD PTR tv65[ebp], 1255 ; 000004e7H
  0007d	74 47		 je	 SHORT $LN10@GetCharset
  0007f	81 7d fc e8 04
	00 00		 cmp	 DWORD PTR tv65[ebp], 1256 ; 000004e8H
  00086	74 45		 je	 SHORT $LN11@GetCharset
  00088	81 7d fc e9 04
	00 00		 cmp	 DWORD PTR tv65[ebp], 1257 ; 000004e9H
  0008f	74 43		 je	 SHORT $LN12@GetCharset
  00091	81 7d fc ea 04
	00 00		 cmp	 DWORD PTR tv65[ebp], 1258 ; 000004eaH
  00098	74 41		 je	 SHORT $LN13@GetCharset
  0009a	eb 5b		 jmp	 SHORT $LN17@GetCharset
$LN4@GetCharset:

; 153  : 	{
; 154  : 	case CP_932:
; 155  : 		return SHIFTJIS_CHARSET;

  0009c	b8 80 00 00 00	 mov	 eax, 128		; 00000080H
  000a1	eb 57		 jmp	 SHORT $LN1@GetCharset
$LN5@GetCharset:

; 156  : 	case CP_949:
; 157  : 		return HANGUL_CHARSET;

  000a3	b8 81 00 00 00	 mov	 eax, 129		; 00000081H
  000a8	eb 50		 jmp	 SHORT $LN1@GetCharset
$LN6@GetCharset:

; 158  : 	case CP_936:
; 159  : 		return GB2312_CHARSET;

  000aa	b8 86 00 00 00	 mov	 eax, 134		; 00000086H
  000af	eb 49		 jmp	 SHORT $LN1@GetCharset
$LN7@GetCharset:

; 160  : 	case CP_950:
; 161  : 		return CHINESEBIG5_CHARSET;

  000b1	b8 88 00 00 00	 mov	 eax, 136		; 00000088H
  000b6	eb 42		 jmp	 SHORT $LN1@GetCharset
$LN8@GetCharset:

; 162  : 	case CP_1253:
; 163  : 		return GREEK_CHARSET;

  000b8	b8 a1 00 00 00	 mov	 eax, 161		; 000000a1H
  000bd	eb 3b		 jmp	 SHORT $LN1@GetCharset
$LN9@GetCharset:

; 164  : 	case CP_1254:
; 165  : 		return TURKISH_CHARSET;

  000bf	b8 a2 00 00 00	 mov	 eax, 162		; 000000a2H
  000c4	eb 34		 jmp	 SHORT $LN1@GetCharset
$LN10@GetCharset:

; 166  : 	case CP_1255:
; 167  : 		return HEBREW_CHARSET;

  000c6	b8 b1 00 00 00	 mov	 eax, 177		; 000000b1H
  000cb	eb 2d		 jmp	 SHORT $LN1@GetCharset
$LN11@GetCharset:

; 168  : 	case CP_1256:
; 169  : 		return ARABIC_CHARSET;

  000cd	b8 b2 00 00 00	 mov	 eax, 178		; 000000b2H
  000d2	eb 26		 jmp	 SHORT $LN1@GetCharset
$LN12@GetCharset:

; 170  : 	case CP_1257:
; 171  : 		return BALTIC_CHARSET;

  000d4	b8 ba 00 00 00	 mov	 eax, 186		; 000000baH
  000d9	eb 1f		 jmp	 SHORT $LN1@GetCharset
$LN13@GetCharset:

; 172  : 	case CP_1258:
; 173  : 		return VIETNAMESE_CHARSET;

  000db	b8 a3 00 00 00	 mov	 eax, 163		; 000000a3H
  000e0	eb 18		 jmp	 SHORT $LN1@GetCharset
$LN14@GetCharset:

; 174  : 	case CP_874:
; 175  : 		return THAI_CHARSET;

  000e2	b8 de 00 00 00	 mov	 eax, 222		; 000000deH
  000e7	eb 11		 jmp	 SHORT $LN1@GetCharset
$LN15@GetCharset:

; 176  : 	case CP_1250:
; 177  : 		return EASTEUROPE_CHARSET;

  000e9	b8 ee 00 00 00	 mov	 eax, 238		; 000000eeH
  000ee	eb 0a		 jmp	 SHORT $LN1@GetCharset
$LN16@GetCharset:

; 178  : 	case CP_1251:
; 179  : 		return RUSSIAN_CHARSET;

  000f0	b8 cc 00 00 00	 mov	 eax, 204		; 000000ccH
  000f5	eb 03		 jmp	 SHORT $LN1@GetCharset
$LN17@GetCharset:

; 180  : 	default:
; 181  : 		return DEFAULT_CHARSET;

  000f7	33 c0		 xor	 eax, eax
  000f9	40		 inc	 eax
$LN1@GetCharset:

; 182  : 	}
; 183  : }

  000fa	c9		 leave
  000fb	c3		 ret	 0
?GetCharsetFromCodePage@@YAHG@Z ENDP			; GetCharsetFromCodePage
_TEXT	ENDS
; Function compile flags: /Odspy
; File D:\Metin2 Server Files\mainline\SRC_2014\Metin2Client\EterLib\Util.cpp
;	COMDAT ?EnumFontFamExProc@@YGHPBUtagLOGFONTA@@PBUtagTEXTMETRICA@@KJ@Z
_TEXT	SEGMENT
_plogFont$ = 8						; size = 4
___formal$ = 12						; size = 4
___formal$ = 16						; size = 4
_lParam$ = 20						; size = 4
?EnumFontFamExProc@@YGHPBUtagLOGFONTA@@PBUtagTEXTMETRICA@@KJ@Z PROC ; EnumFontFamExProc, COMDAT

; 146  : {

  00000	55		 push	 ebp
  00001	8b ec		 mov	 ebp, esp

; 147  : 	return stricmp((const char*)lParam, plogFont->lfFaceName);

  00003	8b 45 08	 mov	 eax, DWORD PTR _plogFont$[ebp]
  00006	83 c0 1c	 add	 eax, 28			; 0000001cH
  00009	50		 push	 eax
  0000a	ff 75 14	 push	 DWORD PTR _lParam$[ebp]
  0000d	e8 00 00 00 00	 call	 __stricmp
  00012	59		 pop	 ecx
  00013	59		 pop	 ecx

; 148  : }

  00014	5d		 pop	 ebp
  00015	c2 10 00	 ret	 16			; 00000010H
?EnumFontFamExProc@@YGHPBUtagLOGFONTA@@PBUtagTEXTMETRICA@@KJ@Z ENDP ; EnumFontFamExProc
_TEXT	ENDS
; Function compile flags: /Odspy
; File D:\Metin2 Server Files\mainline\SRC_2014\Metin2Client\EterLib\Util.cpp
; File C:\Program Files (x86)\Microsoft Visual Studio\2019\Community\VC\Tools\MSVC\14.28.29333\include\vector
; File D:\Metin2 Server Files\mainline\SRC_2014\Metin2Client\EterLib\Util.cpp
; File D:\Metin2 Server Files\mainline\SRC_2014\M2Data\include\d3dx8math.inl
; File D:\Metin2 Server Files\mainline\SRC_2014\Metin2Client\EterLib\Util.cpp
; File C:\Program Files (x86)\Microsoft Visual Studio\2019\Community\VC\Tools\MSVC\14.28.29333\include\vector
; File D:\Metin2 Server Files\mainline\SRC_2014\Metin2Client\EterLib\Util.cpp
; File D:\Metin2 Server Files\mainline\SRC_2014\M2Data\include\d3dx8math.inl
; File D:\Metin2 Server Files\mainline\SRC_2014\Metin2Client\EterLib\Util.cpp
;	COMDAT ?TokenToColor@@YA?AUD3DXCOLOR@@AAV?$vector@V?$basic_string@DU?$char_traits@D@std@@V?$allocator@D@2@@std@@V?$allocator@V?$basic_string@DU?$char_traits@D@std@@V?$allocator@D@2@@std@@@2@@std@@@Z
_TEXT	SEGMENT
_fa$ = -56						; size = 4
_fb$ = -52						; size = 4
_fg$ = -48						; size = 4
_fr$ = -44						; size = 4
$T1 = -40						; size = 4
$T2 = -36						; size = 4
$T3 = -32						; size = 4
$T4 = -28						; size = 4
__My_data$5 = -24					; size = 4
__My_data$6 = -20					; size = 4
__My_data$7 = -16					; size = 4
__My_data$8 = -12					; size = 4
$T9 = -8						; size = 4
__My_data$10 = -4					; size = 4
___$ReturnUdt$ = 8					; size = 4
_rVector$ = 12						; size = 4
?TokenToColor@@YA?AUD3DXCOLOR@@AAV?$vector@V?$basic_string@DU?$char_traits@D@std@@V?$allocator@D@2@@std@@V?$allocator@V?$basic_string@DU?$char_traits@D@std@@V?$allocator@D@2@@std@@@2@@std@@@Z PROC ; TokenToColor, COMDAT

; 127  : {

  00000	55		 push	 ebp
  00001	8b ec		 mov	 ebp, esp
  00003	83 ec 38	 sub	 esp, 56			; 00000038H
; File C:\Program Files (x86)\Microsoft Visual Studio\2019\Community\VC\Tools\MSVC\14.28.29333\include\vector

; 1483 :         auto& _My_data = _Mypair._Myval2;

  00006	8b 45 0c	 mov	 eax, DWORD PTR _rVector$[ebp]
  00009	89 45 fc	 mov	 DWORD PTR __My_data$10[ebp], eax

; 1484 :         return static_cast<size_type>(_My_data._Mylast - _My_data._Myfirst);

  0000c	8b 45 fc	 mov	 eax, DWORD PTR __My_data$10[ebp]
  0000f	8b 4d fc	 mov	 ecx, DWORD PTR __My_data$10[ebp]
  00012	8b 40 04	 mov	 eax, DWORD PTR [eax+4]
  00015	2b 01		 sub	 eax, DWORD PTR [ecx]
  00017	99		 cdq
  00018	6a 18		 push	 24			; 00000018H
  0001a	59		 pop	 ecx
  0001b	f7 f9		 idiv	 ecx
  0001d	89 45 f8	 mov	 DWORD PTR $T9[ebp], eax
; File D:\Metin2 Server Files\mainline\SRC_2014\Metin2Client\EterLib\Util.cpp

; 128  : 	if (4 != rVector.size())

  00020	83 7d f8 04	 cmp	 DWORD PTR $T9[ebp], 4
  00024	74 47		 je	 SHORT $LN2@TokenToCol
; File D:\Metin2 Server Files\mainline\SRC_2014\M2Data\include\d3dx8math.inl

; 920  :     r = fr;

  00026	8b 45 08	 mov	 eax, DWORD PTR ___$ReturnUdt$[ebp]
  00029	f3 0f 10 05 00
	00 00 00	 movss	 xmm0, DWORD PTR __real@3f800000
  00031	f3 0f 11 00	 movss	 DWORD PTR [eax], xmm0

; 921  :     g = fg;

  00035	8b 45 08	 mov	 eax, DWORD PTR ___$ReturnUdt$[ebp]
  00038	f3 0f 10 05 00
	00 00 00	 movss	 xmm0, DWORD PTR __real@3f800000
  00040	f3 0f 11 40 04	 movss	 DWORD PTR [eax+4], xmm0

; 922  :     b = fb;

  00045	8b 45 08	 mov	 eax, DWORD PTR ___$ReturnUdt$[ebp]
  00048	f3 0f 10 05 00
	00 00 00	 movss	 xmm0, DWORD PTR __real@3f800000
  00050	f3 0f 11 40 08	 movss	 DWORD PTR [eax+8], xmm0

; 923  :     a = fa;

  00055	8b 45 08	 mov	 eax, DWORD PTR ___$ReturnUdt$[ebp]
  00058	f3 0f 10 05 00
	00 00 00	 movss	 xmm0, DWORD PTR __real@3f800000
  00060	f3 0f 11 40 0c	 movss	 DWORD PTR [eax+12], xmm0
; File D:\Metin2 Server Files\mainline\SRC_2014\Metin2Client\EterLib\Util.cpp

; 131  : 		return D3DXCOLOR(1.0f, 1.0f, 1.0f, 1.0f);

  00065	8b 45 08	 mov	 eax, DWORD PTR ___$ReturnUdt$[ebp]
  00068	e9 cd 00 00 00	 jmp	 $LN1@TokenToCol
$LN2@TokenToCol:
; File C:\Program Files (x86)\Microsoft Visual Studio\2019\Community\VC\Tools\MSVC\14.28.29333\include\vector

; 1498 :         auto& _My_data = _Mypair._Myval2;

  0006d	8b 45 0c	 mov	 eax, DWORD PTR _rVector$[ebp]
  00070	89 45 f4	 mov	 DWORD PTR __My_data$8[ebp], eax

; 1499 : #if _CONTAINER_DEBUG_LEVEL > 0
; 1500 :         _STL_VERIFY(
; 1501 :             _Pos < static_cast<size_type>(_My_data._Mylast - _My_data._Myfirst), "vector subscript out of range");
; 1502 : #endif // _CONTAINER_DEBUG_LEVEL > 0
; 1503 : 
; 1504 :         return _My_data._Myfirst[_Pos];

  00073	6a 03		 push	 3
  00075	58		 pop	 eax
  00076	6b c0 18	 imul	 eax, eax, 24
  00079	8b 4d f4	 mov	 ecx, DWORD PTR __My_data$8[ebp]
  0007c	03 01		 add	 eax, DWORD PTR [ecx]
  0007e	89 45 d8	 mov	 DWORD PTR $T1[ebp], eax

; 1498 :         auto& _My_data = _Mypair._Myval2;

  00081	8b 45 0c	 mov	 eax, DWORD PTR _rVector$[ebp]
  00084	89 45 f0	 mov	 DWORD PTR __My_data$7[ebp], eax

; 1499 : #if _CONTAINER_DEBUG_LEVEL > 0
; 1500 :         _STL_VERIFY(
; 1501 :             _Pos < static_cast<size_type>(_My_data._Mylast - _My_data._Myfirst), "vector subscript out of range");
; 1502 : #endif // _CONTAINER_DEBUG_LEVEL > 0
; 1503 : 
; 1504 :         return _My_data._Myfirst[_Pos];

  00087	6a 02		 push	 2
  00089	58		 pop	 eax
  0008a	6b c0 18	 imul	 eax, eax, 24
  0008d	8b 4d f0	 mov	 ecx, DWORD PTR __My_data$7[ebp]
  00090	03 01		 add	 eax, DWORD PTR [ecx]
  00092	89 45 dc	 mov	 DWORD PTR $T2[ebp], eax

; 1498 :         auto& _My_data = _Mypair._Myval2;

  00095	8b 45 0c	 mov	 eax, DWORD PTR _rVector$[ebp]
  00098	89 45 ec	 mov	 DWORD PTR __My_data$6[ebp], eax

; 1499 : #if _CONTAINER_DEBUG_LEVEL > 0
; 1500 :         _STL_VERIFY(
; 1501 :             _Pos < static_cast<size_type>(_My_data._Mylast - _My_data._Myfirst), "vector subscript out of range");
; 1502 : #endif // _CONTAINER_DEBUG_LEVEL > 0
; 1503 : 
; 1504 :         return _My_data._Myfirst[_Pos];

  0009b	33 c0		 xor	 eax, eax
  0009d	40		 inc	 eax
  0009e	6b c0 18	 imul	 eax, eax, 24
  000a1	8b 4d ec	 mov	 ecx, DWORD PTR __My_data$6[ebp]
  000a4	03 01		 add	 eax, DWORD PTR [ecx]
  000a6	89 45 e0	 mov	 DWORD PTR $T3[ebp], eax

; 1498 :         auto& _My_data = _Mypair._Myval2;

  000a9	8b 45 0c	 mov	 eax, DWORD PTR _rVector$[ebp]
  000ac	89 45 e8	 mov	 DWORD PTR __My_data$5[ebp], eax

; 1499 : #if _CONTAINER_DEBUG_LEVEL > 0
; 1500 :         _STL_VERIFY(
; 1501 :             _Pos < static_cast<size_type>(_My_data._Mylast - _My_data._Myfirst), "vector subscript out of range");
; 1502 : #endif // _CONTAINER_DEBUG_LEVEL > 0
; 1503 : 
; 1504 :         return _My_data._Myfirst[_Pos];

  000af	33 c0		 xor	 eax, eax
  000b1	6b c0 18	 imul	 eax, eax, 24
  000b4	8b 4d e8	 mov	 ecx, DWORD PTR __My_data$5[ebp]
  000b7	03 01		 add	 eax, DWORD PTR [ecx]
  000b9	89 45 e4	 mov	 DWORD PTR $T4[ebp], eax
; File D:\Metin2 Server Files\mainline\SRC_2014\Metin2Client\EterLib\Util.cpp

; 134  : 	return D3DXCOLOR(atof(rVector[0].c_str()),

  000bc	8b 4d e4	 mov	 ecx, DWORD PTR $T4[ebp]
  000bf	e8 00 00 00 00	 call	 ?c_str@?$basic_string@DU?$char_traits@D@std@@V?$allocator@D@2@@std@@QBEPBDXZ ; std::basic_string<char,std::char_traits<char>,std::allocator<char> >::c_str
  000c4	50		 push	 eax
  000c5	e8 00 00 00 00	 call	 _atof
  000ca	59		 pop	 ecx
  000cb	d9 5d d4	 fstp	 DWORD PTR _fr$[ebp]
  000ce	8b 4d e0	 mov	 ecx, DWORD PTR $T3[ebp]
  000d1	e8 00 00 00 00	 call	 ?c_str@?$basic_string@DU?$char_traits@D@std@@V?$allocator@D@2@@std@@QBEPBDXZ ; std::basic_string<char,std::char_traits<char>,std::allocator<char> >::c_str
  000d6	50		 push	 eax
  000d7	e8 00 00 00 00	 call	 _atof
  000dc	59		 pop	 ecx
  000dd	d9 5d d0	 fstp	 DWORD PTR _fg$[ebp]
  000e0	8b 4d dc	 mov	 ecx, DWORD PTR $T2[ebp]
  000e3	e8 00 00 00 00	 call	 ?c_str@?$basic_string@DU?$char_traits@D@std@@V?$allocator@D@2@@std@@QBEPBDXZ ; std::basic_string<char,std::char_traits<char>,std::allocator<char> >::c_str
  000e8	50		 push	 eax
  000e9	e8 00 00 00 00	 call	 _atof
  000ee	59		 pop	 ecx
  000ef	d9 5d cc	 fstp	 DWORD PTR _fb$[ebp]
  000f2	8b 4d d8	 mov	 ecx, DWORD PTR $T1[ebp]
  000f5	e8 00 00 00 00	 call	 ?c_str@?$basic_string@DU?$char_traits@D@std@@V?$allocator@D@2@@std@@QBEPBDXZ ; std::basic_string<char,std::char_traits<char>,std::allocator<char> >::c_str
  000fa	50		 push	 eax
  000fb	e8 00 00 00 00	 call	 _atof
  00100	59		 pop	 ecx
  00101	d9 5d c8	 fstp	 DWORD PTR _fa$[ebp]
; File D:\Metin2 Server Files\mainline\SRC_2014\M2Data\include\d3dx8math.inl

; 920  :     r = fr;

  00104	8b 45 08	 mov	 eax, DWORD PTR ___$ReturnUdt$[ebp]
  00107	f3 0f 10 45 d4	 movss	 xmm0, DWORD PTR _fr$[ebp]
  0010c	f3 0f 11 00	 movss	 DWORD PTR [eax], xmm0

; 921  :     g = fg;

  00110	8b 45 08	 mov	 eax, DWORD PTR ___$ReturnUdt$[ebp]
  00113	f3 0f 10 45 d0	 movss	 xmm0, DWORD PTR _fg$[ebp]
  00118	f3 0f 11 40 04	 movss	 DWORD PTR [eax+4], xmm0

; 922  :     b = fb;

  0011d	8b 45 08	 mov	 eax, DWORD PTR ___$ReturnUdt$[ebp]
  00120	f3 0f 10 45 cc	 movss	 xmm0, DWORD PTR _fb$[ebp]
  00125	f3 0f 11 40 08	 movss	 DWORD PTR [eax+8], xmm0

; 923  :     a = fa;

  0012a	8b 45 08	 mov	 eax, DWORD PTR ___$ReturnUdt$[ebp]
  0012d	f3 0f 10 45 c8	 movss	 xmm0, DWORD PTR _fa$[ebp]
  00132	f3 0f 11 40 0c	 movss	 DWORD PTR [eax+12], xmm0
; File D:\Metin2 Server Files\mainline\SRC_2014\Metin2Client\EterLib\Util.cpp

; 134  : 	return D3DXCOLOR(atof(rVector[0].c_str()),

  00137	8b 45 08	 mov	 eax, DWORD PTR ___$ReturnUdt$[ebp]
$LN1@TokenToCol:

; 135  : 						atof(rVector[1].c_str()),
; 136  : 						atof(rVector[2].c_str()),
; 137  : 						atof(rVector[3].c_str()));
; 138  : }

  0013a	c9		 leave
  0013b	c3		 ret	 0
?TokenToColor@@YA?AUD3DXCOLOR@@AAV?$vector@V?$basic_string@DU?$char_traits@D@std@@V?$allocator@D@2@@std@@V?$allocator@V?$basic_string@DU?$char_traits@D@std@@V?$allocator@D@2@@std@@@2@@std@@@Z ENDP ; TokenToColor
_TEXT	ENDS
; Function compile flags: /Odspy
; File D:\Metin2 Server Files\mainline\SRC_2014\Metin2Client\EterLib\Util.cpp
; File C:\Program Files (x86)\Microsoft Visual Studio\2019\Community\VC\Tools\MSVC\14.28.29333\include\vector
; File D:\Metin2 Server Files\mainline\SRC_2014\Metin2Client\EterLib\Util.cpp
; File D:\Metin2 Server Files\mainline\SRC_2014\M2Data\include\d3dx8math.inl
; File D:\Metin2 Server Files\mainline\SRC_2014\Metin2Client\EterLib\Util.cpp
; File C:\Program Files (x86)\Microsoft Visual Studio\2019\Community\VC\Tools\MSVC\14.28.29333\include\vector
; File D:\Metin2 Server Files\mainline\SRC_2014\Metin2Client\EterLib\Util.cpp
; File D:\Metin2 Server Files\mainline\SRC_2014\M2Data\include\d3dx8math.inl
; File D:\Metin2 Server Files\mainline\SRC_2014\Metin2Client\EterLib\Util.cpp
;	COMDAT ?TokenToVector@@YA?AUD3DXVECTOR3@@AAV?$vector@V?$basic_string@DU?$char_traits@D@std@@V?$allocator@D@2@@std@@V?$allocator@V?$basic_string@DU?$char_traits@D@std@@V?$allocator@D@2@@std@@@2@@std@@@Z
_TEXT	SEGMENT
_fz$ = -44						; size = 4
_fy$ = -40						; size = 4
_fx$ = -36						; size = 4
$T1 = -32						; size = 4
$T2 = -28						; size = 4
$T3 = -24						; size = 4
__My_data$4 = -20					; size = 4
__My_data$5 = -16					; size = 4
__My_data$6 = -12					; size = 4
$T7 = -8						; size = 4
__My_data$8 = -4					; size = 4
___$ReturnUdt$ = 8					; size = 4
_rVector$ = 12						; size = 4
?TokenToVector@@YA?AUD3DXVECTOR3@@AAV?$vector@V?$basic_string@DU?$char_traits@D@std@@V?$allocator@D@2@@std@@V?$allocator@V?$basic_string@DU?$char_traits@D@std@@V?$allocator@D@2@@std@@@2@@std@@@Z PROC ; TokenToVector, COMDAT

; 114  : {

  00000	55		 push	 ebp
  00001	8b ec		 mov	 ebp, esp
  00003	83 ec 2c	 sub	 esp, 44			; 0000002cH
; File C:\Program Files (x86)\Microsoft Visual Studio\2019\Community\VC\Tools\MSVC\14.28.29333\include\vector

; 1483 :         auto& _My_data = _Mypair._Myval2;

  00006	8b 45 0c	 mov	 eax, DWORD PTR _rVector$[ebp]
  00009	89 45 fc	 mov	 DWORD PTR __My_data$8[ebp], eax

; 1484 :         return static_cast<size_type>(_My_data._Mylast - _My_data._Myfirst);

  0000c	8b 45 fc	 mov	 eax, DWORD PTR __My_data$8[ebp]
  0000f	8b 4d fc	 mov	 ecx, DWORD PTR __My_data$8[ebp]
  00012	8b 40 04	 mov	 eax, DWORD PTR [eax+4]
  00015	2b 01		 sub	 eax, DWORD PTR [ecx]
  00017	99		 cdq
  00018	6a 18		 push	 24			; 00000018H
  0001a	59		 pop	 ecx
  0001b	f7 f9		 idiv	 ecx
  0001d	89 45 f8	 mov	 DWORD PTR $T7[ebp], eax
; File D:\Metin2 Server Files\mainline\SRC_2014\Metin2Client\EterLib\Util.cpp

; 115  : 	if (3 != rVector.size())

  00020	83 7d f8 03	 cmp	 DWORD PTR $T7[ebp], 3
  00024	74 28		 je	 SHORT $LN2@TokenToVec
; File D:\Metin2 Server Files\mainline\SRC_2014\M2Data\include\d3dx8math.inl

; 180  :     x = fx;

  00026	8b 45 08	 mov	 eax, DWORD PTR ___$ReturnUdt$[ebp]
  00029	0f 57 c0	 xorps	 xmm0, xmm0
  0002c	f3 0f 11 00	 movss	 DWORD PTR [eax], xmm0

; 181  :     y = fy;

  00030	8b 45 08	 mov	 eax, DWORD PTR ___$ReturnUdt$[ebp]
  00033	0f 57 c0	 xorps	 xmm0, xmm0
  00036	f3 0f 11 40 04	 movss	 DWORD PTR [eax+4], xmm0

; 182  :     z = fz;

  0003b	8b 45 08	 mov	 eax, DWORD PTR ___$ReturnUdt$[ebp]
  0003e	0f 57 c0	 xorps	 xmm0, xmm0
  00041	f3 0f 11 40 08	 movss	 DWORD PTR [eax+8], xmm0
; File D:\Metin2 Server Files\mainline\SRC_2014\Metin2Client\EterLib\Util.cpp

; 118  : 		return D3DXVECTOR3(0.0f, 0.0f, 0.0f);

  00046	8b 45 08	 mov	 eax, DWORD PTR ___$ReturnUdt$[ebp]
  00049	e9 9a 00 00 00	 jmp	 $LN1@TokenToVec
$LN2@TokenToVec:
; File C:\Program Files (x86)\Microsoft Visual Studio\2019\Community\VC\Tools\MSVC\14.28.29333\include\vector

; 1498 :         auto& _My_data = _Mypair._Myval2;

  0004e	8b 45 0c	 mov	 eax, DWORD PTR _rVector$[ebp]
  00051	89 45 f4	 mov	 DWORD PTR __My_data$6[ebp], eax

; 1499 : #if _CONTAINER_DEBUG_LEVEL > 0
; 1500 :         _STL_VERIFY(
; 1501 :             _Pos < static_cast<size_type>(_My_data._Mylast - _My_data._Myfirst), "vector subscript out of range");
; 1502 : #endif // _CONTAINER_DEBUG_LEVEL > 0
; 1503 : 
; 1504 :         return _My_data._Myfirst[_Pos];

  00054	6a 02		 push	 2
  00056	58		 pop	 eax
  00057	6b c0 18	 imul	 eax, eax, 24
  0005a	8b 4d f4	 mov	 ecx, DWORD PTR __My_data$6[ebp]
  0005d	03 01		 add	 eax, DWORD PTR [ecx]
  0005f	89 45 e0	 mov	 DWORD PTR $T1[ebp], eax

; 1498 :         auto& _My_data = _Mypair._Myval2;

  00062	8b 45 0c	 mov	 eax, DWORD PTR _rVector$[ebp]
  00065	89 45 f0	 mov	 DWORD PTR __My_data$5[ebp], eax

; 1499 : #if _CONTAINER_DEBUG_LEVEL > 0
; 1500 :         _STL_VERIFY(
; 1501 :             _Pos < static_cast<size_type>(_My_data._Mylast - _My_data._Myfirst), "vector subscript out of range");
; 1502 : #endif // _CONTAINER_DEBUG_LEVEL > 0
; 1503 : 
; 1504 :         return _My_data._Myfirst[_Pos];

  00068	33 c0		 xor	 eax, eax
  0006a	40		 inc	 eax
  0006b	6b c0 18	 imul	 eax, eax, 24
  0006e	8b 4d f0	 mov	 ecx, DWORD PTR __My_data$5[ebp]
  00071	03 01		 add	 eax, DWORD PTR [ecx]
  00073	89 45 e4	 mov	 DWORD PTR $T2[ebp], eax

; 1498 :         auto& _My_data = _Mypair._Myval2;

  00076	8b 45 0c	 mov	 eax, DWORD PTR _rVector$[ebp]
  00079	89 45 ec	 mov	 DWORD PTR __My_data$4[ebp], eax

; 1499 : #if _CONTAINER_DEBUG_LEVEL > 0
; 1500 :         _STL_VERIFY(
; 1501 :             _Pos < static_cast<size_type>(_My_data._Mylast - _My_data._Myfirst), "vector subscript out of range");
; 1502 : #endif // _CONTAINER_DEBUG_LEVEL > 0
; 1503 : 
; 1504 :         return _My_data._Myfirst[_Pos];

  0007c	33 c0		 xor	 eax, eax
  0007e	6b c0 18	 imul	 eax, eax, 24
  00081	8b 4d ec	 mov	 ecx, DWORD PTR __My_data$4[ebp]
  00084	03 01		 add	 eax, DWORD PTR [ecx]
  00086	89 45 e8	 mov	 DWORD PTR $T3[ebp], eax
; File D:\Metin2 Server Files\mainline\SRC_2014\Metin2Client\EterLib\Util.cpp

; 121  : 	return D3DXVECTOR3(atof(rVector[0].c_str()),

  00089	8b 4d e8	 mov	 ecx, DWORD PTR $T3[ebp]
  0008c	e8 00 00 00 00	 call	 ?c_str@?$basic_string@DU?$char_traits@D@std@@V?$allocator@D@2@@std@@QBEPBDXZ ; std::basic_string<char,std::char_traits<char>,std::allocator<char> >::c_str
  00091	50		 push	 eax
  00092	e8 00 00 00 00	 call	 _atof
  00097	59		 pop	 ecx
  00098	d9 5d dc	 fstp	 DWORD PTR _fx$[ebp]
  0009b	8b 4d e4	 mov	 ecx, DWORD PTR $T2[ebp]
  0009e	e8 00 00 00 00	 call	 ?c_str@?$basic_string@DU?$char_traits@D@std@@V?$allocator@D@2@@std@@QBEPBDXZ ; std::basic_string<char,std::char_traits<char>,std::allocator<char> >::c_str
  000a3	50		 push	 eax
  000a4	e8 00 00 00 00	 call	 _atof
  000a9	59		 pop	 ecx
  000aa	d9 5d d8	 fstp	 DWORD PTR _fy$[ebp]
  000ad	8b 4d e0	 mov	 ecx, DWORD PTR $T1[ebp]
  000b0	e8 00 00 00 00	 call	 ?c_str@?$basic_string@DU?$char_traits@D@std@@V?$allocator@D@2@@std@@QBEPBDXZ ; std::basic_string<char,std::char_traits<char>,std::allocator<char> >::c_str
  000b5	50		 push	 eax
  000b6	e8 00 00 00 00	 call	 _atof
  000bb	59		 pop	 ecx
  000bc	d9 5d d4	 fstp	 DWORD PTR _fz$[ebp]
; File D:\Metin2 Server Files\mainline\SRC_2014\M2Data\include\d3dx8math.inl

; 180  :     x = fx;

  000bf	8b 45 08	 mov	 eax, DWORD PTR ___$ReturnUdt$[ebp]
  000c2	f3 0f 10 45 dc	 movss	 xmm0, DWORD PTR _fx$[ebp]
  000c7	f3 0f 11 00	 movss	 DWORD PTR [eax], xmm0

; 181  :     y = fy;

  000cb	8b 45 08	 mov	 eax, DWORD PTR ___$ReturnUdt$[ebp]
  000ce	f3 0f 10 45 d8	 movss	 xmm0, DWORD PTR _fy$[ebp]
  000d3	f3 0f 11 40 04	 movss	 DWORD PTR [eax+4], xmm0

; 182  :     z = fz;

  000d8	8b 45 08	 mov	 eax, DWORD PTR ___$ReturnUdt$[ebp]
  000db	f3 0f 10 45 d4	 movss	 xmm0, DWORD PTR _fz$[ebp]
  000e0	f3 0f 11 40 08	 movss	 DWORD PTR [eax+8], xmm0
; File D:\Metin2 Server Files\mainline\SRC_2014\Metin2Client\EterLib\Util.cpp

; 121  : 	return D3DXVECTOR3(atof(rVector[0].c_str()),

  000e5	8b 45 08	 mov	 eax, DWORD PTR ___$ReturnUdt$[ebp]
$LN1@TokenToVec:

; 122  : 						atof(rVector[1].c_str()),
; 123  : 						atof(rVector[2].c_str()));
; 124  : }

  000e8	c9		 leave
  000e9	c3		 ret	 0
?TokenToVector@@YA?AUD3DXVECTOR3@@AAV?$vector@V?$basic_string@DU?$char_traits@D@std@@V?$allocator@D@2@@std@@V?$allocator@V?$basic_string@DU?$char_traits@D@std@@V?$allocator@D@2@@std@@@2@@std@@@Z ENDP ; TokenToVector
_TEXT	ENDS
; Function compile flags: /Odspy
; File D:\Metin2 Server Files\mainline\SRC_2014\Metin2Client\EterLib\Util.cpp
; File D:\Metin2 Server Files\mainline\SRC_2014\Metin2Client\eterBase\Singleton.h
; File D:\Metin2 Server Files\mainline\SRC_2014\Metin2Client\EterLib\Util.cpp
; File C:\Program Files (x86)\Microsoft Visual Studio\2019\Community\VC\Tools\MSVC\14.28.29333\include\vector
; File C:\Program Files (x86)\Microsoft Visual Studio\2019\Community\VC\Tools\MSVC\14.28.29333\include\xmemory
; File D:\Metin2 Server Files\mainline\SRC_2014\Metin2Client\EterLib\Util.cpp
; File C:\Program Files (x86)\Microsoft Visual Studio\2019\Community\VC\Tools\MSVC\14.28.29333\include\vector
; File D:\Metin2 Server Files\mainline\SRC_2014\Metin2Client\EterLib\Util.cpp
; File C:\Program Files (x86)\Microsoft Visual Studio\2019\Community\VC\Tools\MSVC\14.28.29333\include\vector
; File D:\Metin2 Server Files\mainline\SRC_2014\Metin2Client\EterLib\Util.cpp
; File C:\Program Files (x86)\Microsoft Visual Studio\2019\Community\VC\Tools\MSVC\14.28.29333\include\vector
; File C:\Program Files (x86)\Microsoft Visual Studio\2019\Community\VC\Tools\MSVC\14.28.29333\include\xmemory
; File D:\Metin2 Server Files\mainline\SRC_2014\Metin2Client\EterLib\Util.cpp
; File C:\Program Files (x86)\Microsoft Visual Studio\2019\Community\VC\Tools\MSVC\14.28.29333\include\vector
; File D:\Metin2 Server Files\mainline\SRC_2014\Metin2Client\EterLib\Util.cpp
; File C:\Program Files (x86)\Microsoft Visual Studio\2019\Community\VC\Tools\MSVC\14.28.29333\include\vector
; File D:\Metin2 Server Files\mainline\SRC_2014\Metin2Client\EterLib\Util.cpp
; File C:\Program Files (x86)\Microsoft Visual Studio\2019\Community\VC\Tools\MSVC\14.28.29333\include\vector
; File D:\Metin2 Server Files\mainline\SRC_2014\Metin2Client\EterLib\Util.cpp
; File C:\Program Files (x86)\Microsoft Visual Studio\2019\Community\VC\Tools\MSVC\14.28.29333\include\vector
; File D:\Metin2 Server Files\mainline\SRC_2014\Metin2Client\EterLib\Util.cpp
; File C:\Program Files (x86)\Microsoft Visual Studio\2019\Community\VC\Tools\MSVC\14.28.29333\include\vector
; File D:\Metin2 Server Files\mainline\SRC_2014\Metin2Client\EterLib\Util.cpp
; File C:\Program Files (x86)\Microsoft Visual Studio\2019\Community\VC\Tools\MSVC\14.28.29333\include\vector
; File D:\Metin2 Server Files\mainline\SRC_2014\Metin2Client\EterLib\Util.cpp
; File C:\Program Files (x86)\Microsoft Visual Studio\2019\Community\VC\Tools\MSVC\14.28.29333\include\type_traits
; File C:\Program Files (x86)\Microsoft Visual Studio\2019\Community\VC\Tools\MSVC\14.28.29333\include\utility
; File C:\Program Files (x86)\Microsoft Visual Studio\2019\Community\VC\Tools\MSVC\14.28.29333\include\type_traits
; File C:\Program Files (x86)\Microsoft Visual Studio\2019\Community\VC\Tools\MSVC\14.28.29333\include\utility
; File D:\Metin2 Server Files\mainline\SRC_2014\Metin2Client\EterLib\Util.cpp
; File C:\Program Files (x86)\Microsoft Visual Studio\2019\Community\VC\Tools\MSVC\14.28.29333\include\vector
; File C:\Program Files (x86)\Microsoft Visual Studio\2019\Community\VC\Tools\MSVC\14.28.29333\include\xstring
; File D:\Metin2 Server Files\mainline\SRC_2014\Metin2Client\EterLib\Util.cpp
; File C:\Program Files (x86)\Microsoft Visual Studio\2019\Community\VC\Tools\MSVC\14.28.29333\include\xstring
; File D:\Metin2 Server Files\mainline\SRC_2014\Metin2Client\EterLib\Util.cpp
; File C:\Program Files (x86)\Microsoft Visual Studio\2019\Community\VC\Tools\MSVC\14.28.29333\include\vector
; File D:\Metin2 Server Files\mainline\SRC_2014\Metin2Client\EterLib\Util.cpp
; File C:\Program Files (x86)\Microsoft Visual Studio\2019\Community\VC\Tools\MSVC\14.28.29333\include\vector
; File D:\Metin2 Server Files\mainline\SRC_2014\Metin2Client\EterLib\Util.cpp
; File C:\Program Files (x86)\Microsoft Visual Studio\2019\Community\VC\Tools\MSVC\14.28.29333\include\vector
; File C:\Program Files (x86)\Microsoft Visual Studio\2019\Community\VC\Tools\MSVC\14.28.29333\include\xstddef
; File C:\Program Files (x86)\Microsoft Visual Studio\2019\Community\VC\Tools\MSVC\14.28.29333\include\vector
; File D:\Metin2 Server Files\mainline\SRC_2014\Metin2Client\EterLib\Util.cpp
; File C:\Program Files (x86)\Microsoft Visual Studio\2019\Community\VC\Tools\MSVC\14.28.29333\include\type_traits
; File C:\Program Files (x86)\Microsoft Visual Studio\2019\Community\VC\Tools\MSVC\14.28.29333\include\utility
; File C:\Program Files (x86)\Microsoft Visual Studio\2019\Community\VC\Tools\MSVC\14.28.29333\include\type_traits
; File C:\Program Files (x86)\Microsoft Visual Studio\2019\Community\VC\Tools\MSVC\14.28.29333\include\utility
; File D:\Metin2 Server Files\mainline\SRC_2014\Metin2Client\EterLib\Util.cpp
; File C:\Program Files (x86)\Microsoft Visual Studio\2019\Community\VC\Tools\MSVC\14.28.29333\include\vector
; File C:\Program Files (x86)\Microsoft Visual Studio\2019\Community\VC\Tools\MSVC\14.28.29333\include\xstring
; File D:\Metin2 Server Files\mainline\SRC_2014\Metin2Client\EterLib\Util.cpp
; File C:\Program Files (x86)\Microsoft Visual Studio\2019\Community\VC\Tools\MSVC\14.28.29333\include\xstring
; File D:\Metin2 Server Files\mainline\SRC_2014\Metin2Client\EterLib\Util.cpp
; File C:\Program Files (x86)\Microsoft Visual Studio\2019\Community\VC\Tools\MSVC\14.28.29333\include\vector
; File D:\Metin2 Server Files\mainline\SRC_2014\Metin2Client\EterLib\Util.cpp
;	COMDAT ?LoadMultipleTextData@@YA_NPBDAAV?$map@V?$basic_string@DU?$char_traits@D@std@@V?$allocator@D@2@@std@@V?$vector@V?$basic_string@DU?$char_traits@D@std@@V?$allocator@D@2@@std@@V?$allocator@V?$basic_string@DU?$char_traits@D@std@@V?$allocator@D@2@@std@@@2@@2@U?$less@V?$basic_string@DU?$char_traits@D@std@@V?$allocator@D@2@@std@@@2@V?$allocator@U?$pair@$$CBV?$basic_string@DU?$char_traits@D@std@@V?$allocator@D@2@@std@@V?$vector@V?$basic_string@DU?$char_traits@D@std@@V?$allocator@D@2@@std@@V?$allocator@V?$basic_string@DU?$char_traits@D@std@@V?$allocator@D@2@@std@@@2@@2@@std@@@2@@std@@@Z
_TEXT	SEGMENT
$T2 = -220						; size = 8
$T3 = -212						; size = 8
$T4 = -204						; size = 4
$T5 = -200						; size = 4
_textFileLoader$ = -196					; size = 16
tv241 = -180						; size = 4
$T6 = -176						; size = 4
__My_data$7 = -172					; size = 4
$T8 = -168						; size = 4
__My_data$9 = -164					; size = 4
$T10 = -160						; size = 4
_pModelData$ = -156					; size = 4
_this$ = -152						; size = 4
$T11 = -148						; size = 4
$T12 = -144						; size = 4
$T13 = -140						; size = 4
$T14 = -136						; size = 4
$T15 = -132						; size = 4
___param0$ = -128					; size = 4
$T16 = -124						; size = 4
__My_data$17 = -120					; size = 4
tv238 = -116						; size = 4
$T18 = -112						; size = 4
$T19 = -108						; size = 4
$T20 = -104						; size = 4
__My_data$21 = -100					; size = 4
$T22 = -96						; size = 4
$T23 = -92						; size = 4
__My_data$24 = -88					; size = 4
$T25 = -84						; size = 4
__My_data$26 = -80					; size = 4
$T27 = -76						; size = 4
__My_data$28 = -72					; size = 4
$T29 = -68						; size = 4
__My_data$30 = -64					; size = 4
_this$ = -60						; size = 4
_stSubTokenVector$31 = -56				; size = 12
__My_data$32 = -44					; size = 4
__My_data$33 = -40					; size = 4
_stTokenVector$ = -36					; size = 12
_j$34 = -24						; size = 4
$T35 = -18						; size = 1
$T36 = -17						; size = 1
_i$ = -16						; size = 4
__$EHRec$ = -12						; size = 12
_File$ = 0						; size = 324
_key$37 = 324						; size = 24
_key$38 = 348						; size = 24
$T39 = 372						; size = 36
$T40 = 408						; size = 36
__$ArrayPad$ = 444					; size = 4
_c_szFileName$ = 456					; size = 4
_rstTokenVectorMap$ = 460				; size = 4
?LoadMultipleTextData@@YA_NPBDAAV?$map@V?$basic_string@DU?$char_traits@D@std@@V?$allocator@D@2@@std@@V?$vector@V?$basic_string@DU?$char_traits@D@std@@V?$allocator@D@2@@std@@V?$allocator@V?$basic_string@DU?$char_traits@D@std@@V?$allocator@D@2@@std@@@2@@2@U?$less@V?$basic_string@DU?$char_traits@D@std@@V?$allocator@D@2@@std@@@2@V?$allocator@U?$pair@$$CBV?$basic_string@DU?$char_traits@D@std@@V?$allocator@D@2@@std@@V?$vector@V?$basic_string@DU?$char_traits@D@std@@V?$allocator@D@2@@std@@V?$allocator@V?$basic_string@DU?$char_traits@D@std@@V?$allocator@D@2@@std@@@2@@2@@std@@@2@@std@@@Z PROC ; LoadMultipleTextData, COMDAT

; 52   : {

  00000	55		 push	 ebp
  00001	8d ac 24 40 fe
	ff ff		 lea	 ebp, DWORD PTR [esp-448]
  00008	81 ec c0 01 00
	00		 sub	 esp, 448		; 000001c0H
  0000e	6a ff		 push	 -1
  00010	68 00 00 00 00	 push	 __ehhandler$?LoadMultipleTextData@@YA_NPBDAAV?$map@V?$basic_string@DU?$char_traits@D@std@@V?$allocator@D@2@@std@@V?$vector@V?$basic_string@DU?$char_traits@D@std@@V?$allocator@D@2@@std@@V?$allocator@V?$basic_string@DU?$char_traits@D@std@@V?$allocator@D@2@@std@@@2@@2@U?$less@V?$basic_string@DU?$char_traits@D@std@@V?$allocator@D@2@@std@@@2@V?$allocator@U?$pair@$$CBV?$basic_string@DU?$char_traits@D@std@@V?$allocator@D@2@@std@@V?$vector@V?$basic_string@DU?$char_traits@D@std@@V?$allocator@D@2@@std@@V?$allocator@V?$basic_string@DU?$char_traits@D@std@@V?$allocator@D@2@@std@@@2@@2@@std@@@2@@std@@@Z
  00015	64 a1 00 00 00
	00		 mov	 eax, DWORD PTR fs:0
  0001b	50		 push	 eax
  0001c	81 ec d0 00 00
	00		 sub	 esp, 208		; 000000d0H
  00022	a1 00 00 00 00	 mov	 eax, DWORD PTR ___security_cookie
  00027	33 c5		 xor	 eax, ebp
  00029	89 85 bc 01 00
	00		 mov	 DWORD PTR __$ArrayPad$[ebp], eax
  0002f	50		 push	 eax
  00030	8d 45 f4	 lea	 eax, DWORD PTR __$EHRec$[ebp]
  00033	64 a3 00 00 00
	00		 mov	 DWORD PTR fs:0, eax

; 53   : 	LPCVOID pModelData;
; 54   : 	CMappedFile File;

  00039	8d 4d 00	 lea	 ecx, DWORD PTR _File$[ebp]
  0003c	e8 00 00 00 00	 call	 ??0CMappedFile@@QAE@XZ	; CMappedFile::CMappedFile
  00041	83 65 fc 00	 and	 DWORD PTR __$EHRec$[ebp+8], 0
; File D:\Metin2 Server Files\mainline\SRC_2014\Metin2Client\eterBase\Singleton.h

; 27   : 		return (*ms_singleton);

  00045	a1 00 00 00 00	 mov	 eax, DWORD PTR ?ms_singleton@?$CSingleton@VCEterPackManager@@@@0PAVCEterPackManager@@A ; CSingleton<CEterPackManager>::ms_singleton
  0004a	89 45 98	 mov	 DWORD PTR $T20[ebp], eax
; File D:\Metin2 Server Files\mainline\SRC_2014\Metin2Client\EterLib\Util.cpp

; 56   : 	if (!CEterPackManager::Instance().Get(File, c_szFileName, &pModelData))

  0004d	8d 85 64 ff ff
	ff		 lea	 eax, DWORD PTR _pModelData$[ebp]
  00053	50		 push	 eax
  00054	ff b5 c8 01 00
	00		 push	 DWORD PTR _c_szFileName$[ebp]
  0005a	8d 45 00	 lea	 eax, DWORD PTR _File$[ebp]
  0005d	50		 push	 eax
  0005e	8b 4d 98	 mov	 ecx, DWORD PTR $T20[ebp]
  00061	e8 00 00 00 00	 call	 ?Get@CEterPackManager@@QAE_NAAVCMappedFile@@PBDPAPBX@Z ; CEterPackManager::Get
  00066	0f b6 c0	 movzx	 eax, al
  00069	85 c0		 test	 eax, eax
  0006b	75 18		 jne	 SHORT $LN11@LoadMultip

; 57   : 		return false;

  0006d	c6 45 ef 00	 mov	 BYTE PTR $T36[ebp], 0
  00071	83 4d fc ff	 or	 DWORD PTR __$EHRec$[ebp+8], -1
  00075	8d 4d 00	 lea	 ecx, DWORD PTR _File$[ebp]
  00078	e8 00 00 00 00	 call	 ??1CMappedFile@@UAE@XZ	; CMappedFile::~CMappedFile
  0007d	8a 45 ef	 mov	 al, BYTE PTR $T36[ebp]
  00080	e9 e0 03 00 00	 jmp	 $LN1@LoadMultip
$LN11@LoadMultip:

; 58   : 
; 59   : 	DWORD i;
; 60   : 
; 61   : 	CMemoryTextFileLoader textFileLoader;

  00085	8d 8d 3c ff ff
	ff		 lea	 ecx, DWORD PTR _textFileLoader$[ebp]
  0008b	e8 00 00 00 00	 call	 ??0CMemoryTextFileLoader@@QAE@XZ ; CMemoryTextFileLoader::CMemoryTextFileLoader
  00090	c6 45 fc 01	 mov	 BYTE PTR __$EHRec$[ebp+8], 1
; File C:\Program Files (x86)\Microsoft Visual Studio\2019\Community\VC\Tools\MSVC\14.28.29333\include\vector

; 445  :     vector() noexcept(is_nothrow_default_constructible_v<_Alty>) : _Mypair(_Zero_then_variadic_args_t{}) {

  00094	8d 45 dc	 lea	 eax, DWORD PTR _stTokenVector$[ebp]
  00097	89 85 68 ff ff
	ff		 mov	 DWORD PTR _this$[ebp], eax
; File C:\Program Files (x86)\Microsoft Visual Studio\2019\Community\VC\Tools\MSVC\14.28.29333\include\xmemory

; 1339 :         : _Ty1(), _Myval2(_STD forward<_Other2>(_Val2)...) {}

  0009d	8b 8d 68 ff ff
	ff		 mov	 ecx, DWORD PTR _this$[ebp]
  000a3	e8 00 00 00 00	 call	 ??0?$_Vector_val@U?$_Simple_types@V?$basic_string@DU?$char_traits@D@std@@V?$allocator@D@2@@std@@@std@@@std@@QAE@XZ ; std::_Vector_val<std::_Simple_types<std::basic_string<char,std::char_traits<char>,std::allocator<char> > > >::_Vector_val<std::_Simple_types<std::basic_string<char,std::char_traits<char>,std::allocator<char> > > >
; File D:\Metin2 Server Files\mainline\SRC_2014\Metin2Client\EterLib\Util.cpp

; 62   : 	CTokenVector stTokenVector;

  000a8	c6 45 fc 02	 mov	 BYTE PTR __$EHRec$[ebp+8], 2

; 63   : 
; 64   : 	textFileLoader.Bind(File.Size(), pModelData);

  000ac	ff b5 64 ff ff
	ff		 push	 DWORD PTR _pModelData$[ebp]
  000b2	8d 4d 00	 lea	 ecx, DWORD PTR _File$[ebp]
  000b5	e8 00 00 00 00	 call	 ?Size@CMappedFile@@QAEKXZ ; CMappedFile::Size
  000ba	50		 push	 eax
  000bb	8d 8d 3c ff ff
	ff		 lea	 ecx, DWORD PTR _textFileLoader$[ebp]
  000c1	e8 00 00 00 00	 call	 ?Bind@CMemoryTextFileLoader@@QAEXHPBX@Z ; CMemoryTextFileLoader::Bind

; 65   : 
; 66   : 	for (i = 0; i < textFileLoader.GetLineCount(); ++i)

  000c6	83 65 f0 00	 and	 DWORD PTR _i$[ebp], 0
  000ca	eb 07		 jmp	 SHORT $LN4@LoadMultip
$LN2@LoadMultip:
  000cc	8b 45 f0	 mov	 eax, DWORD PTR _i$[ebp]
  000cf	40		 inc	 eax
  000d0	89 45 f0	 mov	 DWORD PTR _i$[ebp], eax
$LN4@LoadMultip:
  000d3	8d 8d 3c ff ff
	ff		 lea	 ecx, DWORD PTR _textFileLoader$[ebp]
  000d9	e8 00 00 00 00	 call	 ?GetLineCount@CMemoryTextFileLoader@@QAEKXZ ; CMemoryTextFileLoader::GetLineCount
  000de	39 45 f0	 cmp	 DWORD PTR _i$[ebp], eax
  000e1	0f 83 50 03 00
	00		 jae	 $LN3@LoadMultip

; 67   : 	{
; 68   : 		if (!textFileLoader.SplitLine(i, &stTokenVector))

  000e7	68 00 00 00 00	 push	 OFFSET ??_C@_02OJDBNLEE@?5?7@
  000ec	8d 45 dc	 lea	 eax, DWORD PTR _stTokenVector$[ebp]
  000ef	50		 push	 eax
  000f0	ff 75 f0	 push	 DWORD PTR _i$[ebp]
  000f3	8d 8d 3c ff ff
	ff		 lea	 ecx, DWORD PTR _textFileLoader$[ebp]
  000f9	e8 00 00 00 00	 call	 ?SplitLine@CMemoryTextFileLoader@@QAE_NKPAV?$vector@V?$basic_string@DU?$char_traits@D@std@@V?$allocator@D@2@@std@@V?$allocator@V?$basic_string@DU?$char_traits@D@std@@V?$allocator@D@2@@std@@@2@@std@@PBD@Z ; CMemoryTextFileLoader::SplitLine
  000fe	0f b6 c0	 movzx	 eax, al
  00101	85 c0		 test	 eax, eax
  00103	75 02		 jne	 SHORT $LN12@LoadMultip

; 69   : 			continue;

  00105	eb c5		 jmp	 SHORT $LN2@LoadMultip
$LN12@LoadMultip:
; File C:\Program Files (x86)\Microsoft Visual Studio\2019\Community\VC\Tools\MSVC\14.28.29333\include\vector

; 1498 :         auto& _My_data = _Mypair._Myval2;

  00107	8d 45 dc	 lea	 eax, DWORD PTR _stTokenVector$[ebp]
  0010a	89 85 5c ff ff
	ff		 mov	 DWORD PTR __My_data$9[ebp], eax

; 1499 : #if _CONTAINER_DEBUG_LEVEL > 0
; 1500 :         _STL_VERIFY(
; 1501 :             _Pos < static_cast<size_type>(_My_data._Mylast - _My_data._Myfirst), "vector subscript out of range");
; 1502 : #endif // _CONTAINER_DEBUG_LEVEL > 0
; 1503 : 
; 1504 :         return _My_data._Myfirst[_Pos];

  00110	33 c0		 xor	 eax, eax
  00112	6b c0 18	 imul	 eax, eax, 24
  00115	8b 8d 5c ff ff
	ff		 mov	 ecx, DWORD PTR __My_data$9[ebp]
  0011b	03 01		 add	 eax, DWORD PTR [ecx]
  0011d	89 85 58 ff ff
	ff		 mov	 DWORD PTR $T8[ebp], eax
; File D:\Metin2 Server Files\mainline\SRC_2014\Metin2Client\EterLib\Util.cpp

; 71   : 		stl_lowers(stTokenVector[0]);

  00123	ff b5 58 ff ff
	ff		 push	 DWORD PTR $T8[ebp]
  00129	e8 00 00 00 00	 call	 ?stl_lowers@@YAXAAV?$basic_string@DU?$char_traits@D@std@@V?$allocator@D@2@@std@@@Z ; stl_lowers
  0012e	59		 pop	 ecx
; File C:\Program Files (x86)\Microsoft Visual Studio\2019\Community\VC\Tools\MSVC\14.28.29333\include\vector

; 1498 :         auto& _My_data = _Mypair._Myval2;

  0012f	8d 45 dc	 lea	 eax, DWORD PTR _stTokenVector$[ebp]
  00132	89 85 54 ff ff
	ff		 mov	 DWORD PTR __My_data$7[ebp], eax

; 1499 : #if _CONTAINER_DEBUG_LEVEL > 0
; 1500 :         _STL_VERIFY(
; 1501 :             _Pos < static_cast<size_type>(_My_data._Mylast - _My_data._Myfirst), "vector subscript out of range");
; 1502 : #endif // _CONTAINER_DEBUG_LEVEL > 0
; 1503 : 
; 1504 :         return _My_data._Myfirst[_Pos];

  00138	33 c0		 xor	 eax, eax
  0013a	6b c0 18	 imul	 eax, eax, 24
  0013d	8b 8d 54 ff ff
	ff		 mov	 ecx, DWORD PTR __My_data$7[ebp]
  00143	03 01		 add	 eax, DWORD PTR [ecx]
  00145	89 85 50 ff ff
	ff		 mov	 DWORD PTR $T6[ebp], eax
; File D:\Metin2 Server Files\mainline\SRC_2014\Metin2Client\EterLib\Util.cpp

; 74   : 		if (0 == stTokenVector[0].compare("start"))

  0014b	68 00 00 00 00	 push	 OFFSET ??_C@_05FAGFPHJG@start@
  00150	8b 8d 50 ff ff
	ff		 mov	 ecx, DWORD PTR $T6[ebp]
  00156	e8 00 00 00 00	 call	 ?compare@?$basic_string@DU?$char_traits@D@std@@V?$allocator@D@2@@std@@QBEHQBD@Z ; std::basic_string<char,std::char_traits<char>,std::allocator<char> >::compare
  0015b	85 c0		 test	 eax, eax
  0015d	0f 85 cb 01 00
	00		 jne	 $LN13@LoadMultip
; File C:\Program Files (x86)\Microsoft Visual Studio\2019\Community\VC\Tools\MSVC\14.28.29333\include\vector

; 445  :     vector() noexcept(is_nothrow_default_constructible_v<_Alty>) : _Mypair(_Zero_then_variadic_args_t{}) {

  00163	8d 45 c8	 lea	 eax, DWORD PTR _stSubTokenVector$31[ebp]
  00166	89 45 c4	 mov	 DWORD PTR _this$[ebp], eax
; File C:\Program Files (x86)\Microsoft Visual Studio\2019\Community\VC\Tools\MSVC\14.28.29333\include\xmemory

; 1339 :         : _Ty1(), _Myval2(_STD forward<_Other2>(_Val2)...) {}

  00169	8b 4d c4	 mov	 ecx, DWORD PTR _this$[ebp]
  0016c	e8 00 00 00 00	 call	 ??0?$_Vector_val@U?$_Simple_types@V?$basic_string@DU?$char_traits@D@std@@V?$allocator@D@2@@std@@@std@@@std@@QAE@XZ ; std::_Vector_val<std::_Simple_types<std::basic_string<char,std::char_traits<char>,std::allocator<char> > > >::_Vector_val<std::_Simple_types<std::basic_string<char,std::char_traits<char>,std::allocator<char> > > >
; File D:\Metin2 Server Files\mainline\SRC_2014\Metin2Client\EterLib\Util.cpp

; 76   : 			CTokenVector stSubTokenVector;

  00171	c6 45 fc 03	 mov	 BYTE PTR __$EHRec$[ebp+8], 3
; File C:\Program Files (x86)\Microsoft Visual Studio\2019\Community\VC\Tools\MSVC\14.28.29333\include\vector

; 1498 :         auto& _My_data = _Mypair._Myval2;

  00175	8d 45 dc	 lea	 eax, DWORD PTR _stTokenVector$[ebp]
  00178	89 45 c0	 mov	 DWORD PTR __My_data$30[ebp], eax

; 1499 : #if _CONTAINER_DEBUG_LEVEL > 0
; 1500 :         _STL_VERIFY(
; 1501 :             _Pos < static_cast<size_type>(_My_data._Mylast - _My_data._Myfirst), "vector subscript out of range");
; 1502 : #endif // _CONTAINER_DEBUG_LEVEL > 0
; 1503 : 
; 1504 :         return _My_data._Myfirst[_Pos];

  0017b	33 c0		 xor	 eax, eax
  0017d	40		 inc	 eax
  0017e	6b c0 18	 imul	 eax, eax, 24
  00181	8b 4d c0	 mov	 ecx, DWORD PTR __My_data$30[ebp]
  00184	03 01		 add	 eax, DWORD PTR [ecx]
  00186	89 45 bc	 mov	 DWORD PTR $T29[ebp], eax
; File D:\Metin2 Server Files\mainline\SRC_2014\Metin2Client\EterLib\Util.cpp

; 78   : 			stl_lowers(stTokenVector[1]);

  00189	ff 75 bc	 push	 DWORD PTR $T29[ebp]
  0018c	e8 00 00 00 00	 call	 ?stl_lowers@@YAXAAV?$basic_string@DU?$char_traits@D@std@@V?$allocator@D@2@@std@@@Z ; stl_lowers
  00191	59		 pop	 ecx
; File C:\Program Files (x86)\Microsoft Visual Studio\2019\Community\VC\Tools\MSVC\14.28.29333\include\vector

; 1498 :         auto& _My_data = _Mypair._Myval2;

  00192	8d 45 dc	 lea	 eax, DWORD PTR _stTokenVector$[ebp]
  00195	89 45 b8	 mov	 DWORD PTR __My_data$28[ebp], eax

; 1499 : #if _CONTAINER_DEBUG_LEVEL > 0
; 1500 :         _STL_VERIFY(
; 1501 :             _Pos < static_cast<size_type>(_My_data._Mylast - _My_data._Myfirst), "vector subscript out of range");
; 1502 : #endif // _CONTAINER_DEBUG_LEVEL > 0
; 1503 : 
; 1504 :         return _My_data._Myfirst[_Pos];

  00198	33 c0		 xor	 eax, eax
  0019a	40		 inc	 eax
  0019b	6b c0 18	 imul	 eax, eax, 24
  0019e	8b 4d b8	 mov	 ecx, DWORD PTR __My_data$28[ebp]
  001a1	03 01		 add	 eax, DWORD PTR [ecx]
  001a3	89 45 b4	 mov	 DWORD PTR $T27[ebp], eax
; File D:\Metin2 Server Files\mainline\SRC_2014\Metin2Client\EterLib\Util.cpp

; 79   : 			std::string key = stTokenVector[1];

  001a6	ff 75 b4	 push	 DWORD PTR $T27[ebp]
  001a9	8d 8d 5c 01 00
	00		 lea	 ecx, DWORD PTR _key$38[ebp]
  001af	e8 00 00 00 00	 call	 ??0?$basic_string@DU?$char_traits@D@std@@V?$allocator@D@2@@std@@QAE@ABV01@@Z ; std::basic_string<char,std::char_traits<char>,std::allocator<char> >::basic_string<char,std::char_traits<char>,std::allocator<char> >
  001b4	c6 45 fc 04	 mov	 BYTE PTR __$EHRec$[ebp+8], 4

; 80   : 			stTokenVector.clear();

  001b8	8d 4d dc	 lea	 ecx, DWORD PTR _stTokenVector$[ebp]
  001bb	e8 00 00 00 00	 call	 ?clear@?$vector@V?$basic_string@DU?$char_traits@D@std@@V?$allocator@D@2@@std@@V?$allocator@V?$basic_string@DU?$char_traits@D@std@@V?$allocator@D@2@@std@@@2@@std@@QAEXXZ ; std::vector<std::basic_string<char,std::char_traits<char>,std::allocator<char> >,std::allocator<std::basic_string<char,std::char_traits<char>,std::allocator<char> > > >::clear

; 81   : 
; 82   : 			for (i=i+1; i < textFileLoader.GetLineCount(); ++i)

  001c0	8b 45 f0	 mov	 eax, DWORD PTR _i$[ebp]
  001c3	40		 inc	 eax
  001c4	89 45 f0	 mov	 DWORD PTR _i$[ebp], eax
  001c7	eb 07		 jmp	 SHORT $LN7@LoadMultip
$LN5@LoadMultip:
  001c9	8b 45 f0	 mov	 eax, DWORD PTR _i$[ebp]
  001cc	40		 inc	 eax
  001cd	89 45 f0	 mov	 DWORD PTR _i$[ebp], eax
$LN7@LoadMultip:
  001d0	8d 8d 3c ff ff
	ff		 lea	 ecx, DWORD PTR _textFileLoader$[ebp]
  001d6	e8 00 00 00 00	 call	 ?GetLineCount@CMemoryTextFileLoader@@QAEKXZ ; CMemoryTextFileLoader::GetLineCount
  001db	39 45 f0	 cmp	 DWORD PTR _i$[ebp], eax
  001de	0f 83 bb 00 00
	00		 jae	 $LN6@LoadMultip

; 83   : 			{
; 84   : 				if (!textFileLoader.SplitLine(i, &stSubTokenVector))

  001e4	68 00 00 00 00	 push	 OFFSET ??_C@_02OJDBNLEE@?5?7@
  001e9	8d 45 c8	 lea	 eax, DWORD PTR _stSubTokenVector$31[ebp]
  001ec	50		 push	 eax
  001ed	ff 75 f0	 push	 DWORD PTR _i$[ebp]
  001f0	8d 8d 3c ff ff
	ff		 lea	 ecx, DWORD PTR _textFileLoader$[ebp]
  001f6	e8 00 00 00 00	 call	 ?SplitLine@CMemoryTextFileLoader@@QAE_NKPAV?$vector@V?$basic_string@DU?$char_traits@D@std@@V?$allocator@D@2@@std@@V?$allocator@V?$basic_string@DU?$char_traits@D@std@@V?$allocator@D@2@@std@@@2@@std@@PBD@Z ; CMemoryTextFileLoader::SplitLine
  001fb	0f b6 c0	 movzx	 eax, al
  001fe	85 c0		 test	 eax, eax
  00200	75 02		 jne	 SHORT $LN15@LoadMultip

; 85   : 					continue;

  00202	eb c5		 jmp	 SHORT $LN5@LoadMultip
$LN15@LoadMultip:
; File C:\Program Files (x86)\Microsoft Visual Studio\2019\Community\VC\Tools\MSVC\14.28.29333\include\vector

; 1498 :         auto& _My_data = _Mypair._Myval2;

  00204	8d 45 c8	 lea	 eax, DWORD PTR _stSubTokenVector$31[ebp]
  00207	89 45 b0	 mov	 DWORD PTR __My_data$26[ebp], eax

; 1499 : #if _CONTAINER_DEBUG_LEVEL > 0
; 1500 :         _STL_VERIFY(
; 1501 :             _Pos < static_cast<size_type>(_My_data._Mylast - _My_data._Myfirst), "vector subscript out of range");
; 1502 : #endif // _CONTAINER_DEBUG_LEVEL > 0
; 1503 : 
; 1504 :         return _My_data._Myfirst[_Pos];

  0020a	33 c0		 xor	 eax, eax
  0020c	6b c0 18	 imul	 eax, eax, 24
  0020f	8b 4d b0	 mov	 ecx, DWORD PTR __My_data$26[ebp]
  00212	03 01		 add	 eax, DWORD PTR [ecx]
  00214	89 45 ac	 mov	 DWORD PTR $T25[ebp], eax
; File D:\Metin2 Server Files\mainline\SRC_2014\Metin2Client\EterLib\Util.cpp

; 87   : 				stl_lowers(stSubTokenVector[0]);

  00217	ff 75 ac	 push	 DWORD PTR $T25[ebp]
  0021a	e8 00 00 00 00	 call	 ?stl_lowers@@YAXAAV?$basic_string@DU?$char_traits@D@std@@V?$allocator@D@2@@std@@@Z ; stl_lowers
  0021f	59		 pop	 ecx
; File C:\Program Files (x86)\Microsoft Visual Studio\2019\Community\VC\Tools\MSVC\14.28.29333\include\vector

; 1498 :         auto& _My_data = _Mypair._Myval2;

  00220	8d 45 c8	 lea	 eax, DWORD PTR _stSubTokenVector$31[ebp]
  00223	89 45 a8	 mov	 DWORD PTR __My_data$24[ebp], eax

; 1499 : #if _CONTAINER_DEBUG_LEVEL > 0
; 1500 :         _STL_VERIFY(
; 1501 :             _Pos < static_cast<size_type>(_My_data._Mylast - _My_data._Myfirst), "vector subscript out of range");
; 1502 : #endif // _CONTAINER_DEBUG_LEVEL > 0
; 1503 : 
; 1504 :         return _My_data._Myfirst[_Pos];

  00226	33 c0		 xor	 eax, eax
  00228	6b c0 18	 imul	 eax, eax, 24
  0022b	8b 4d a8	 mov	 ecx, DWORD PTR __My_data$24[ebp]
  0022e	03 01		 add	 eax, DWORD PTR [ecx]
  00230	89 45 a4	 mov	 DWORD PTR $T23[ebp], eax
; File D:\Metin2 Server Files\mainline\SRC_2014\Metin2Client\EterLib\Util.cpp

; 89   : 				if (0 == stSubTokenVector[0].compare("end"))

  00233	68 00 00 00 00	 push	 OFFSET ??_C@_03JBJLGPFL@end@
  00238	8b 4d a4	 mov	 ecx, DWORD PTR $T23[ebp]
  0023b	e8 00 00 00 00	 call	 ?compare@?$basic_string@DU?$char_traits@D@std@@V?$allocator@D@2@@std@@QBEHQBD@Z ; std::basic_string<char,std::char_traits<char>,std::allocator<char> >::compare
  00240	85 c0		 test	 eax, eax
  00242	75 02		 jne	 SHORT $LN16@LoadMultip

; 90   : 				{
; 91   : 					break;

  00244	eb 59		 jmp	 SHORT $LN6@LoadMultip
$LN16@LoadMultip:

; 94   : 				for (DWORD j = 0; j < stSubTokenVector.size(); ++j)

  00246	83 65 e8 00	 and	 DWORD PTR _j$34[ebp], 0
  0024a	eb 07		 jmp	 SHORT $LN10@LoadMultip
$LN8@LoadMultip:
  0024c	8b 45 e8	 mov	 eax, DWORD PTR _j$34[ebp]
  0024f	40		 inc	 eax
  00250	89 45 e8	 mov	 DWORD PTR _j$34[ebp], eax
$LN10@LoadMultip:
; File C:\Program Files (x86)\Microsoft Visual Studio\2019\Community\VC\Tools\MSVC\14.28.29333\include\vector

; 1483 :         auto& _My_data = _Mypair._Myval2;

  00253	8d 45 c8	 lea	 eax, DWORD PTR _stSubTokenVector$31[ebp]
  00256	89 45 d8	 mov	 DWORD PTR __My_data$33[ebp], eax

; 1484 :         return static_cast<size_type>(_My_data._Mylast - _My_data._Myfirst);

  00259	8b 45 d8	 mov	 eax, DWORD PTR __My_data$33[ebp]
  0025c	8b 4d d8	 mov	 ecx, DWORD PTR __My_data$33[ebp]
  0025f	8b 40 04	 mov	 eax, DWORD PTR [eax+4]
  00262	2b 01		 sub	 eax, DWORD PTR [ecx]
  00264	99		 cdq
  00265	6a 18		 push	 24			; 00000018H
  00267	59		 pop	 ecx
  00268	f7 f9		 idiv	 ecx
  0026a	89 45 a0	 mov	 DWORD PTR $T22[ebp], eax
; File D:\Metin2 Server Files\mainline\SRC_2014\Metin2Client\EterLib\Util.cpp

; 94   : 				for (DWORD j = 0; j < stSubTokenVector.size(); ++j)

  0026d	8b 45 e8	 mov	 eax, DWORD PTR _j$34[ebp]
  00270	3b 45 a0	 cmp	 eax, DWORD PTR $T22[ebp]
  00273	73 25		 jae	 SHORT $LN9@LoadMultip
; File C:\Program Files (x86)\Microsoft Visual Studio\2019\Community\VC\Tools\MSVC\14.28.29333\include\vector

; 1498 :         auto& _My_data = _Mypair._Myval2;

  00275	8d 45 c8	 lea	 eax, DWORD PTR _stSubTokenVector$31[ebp]
  00278	89 45 9c	 mov	 DWORD PTR __My_data$21[ebp], eax

; 1499 : #if _CONTAINER_DEBUG_LEVEL > 0
; 1500 :         _STL_VERIFY(
; 1501 :             _Pos < static_cast<size_type>(_My_data._Mylast - _My_data._Myfirst), "vector subscript out of range");
; 1502 : #endif // _CONTAINER_DEBUG_LEVEL > 0
; 1503 : 
; 1504 :         return _My_data._Myfirst[_Pos];

  0027b	6b 45 e8 18	 imul	 eax, DWORD PTR _j$34[ebp], 24
  0027f	8b 4d 9c	 mov	 ecx, DWORD PTR __My_data$21[ebp]
  00282	03 01		 add	 eax, DWORD PTR [ecx]
  00284	89 85 60 ff ff
	ff		 mov	 DWORD PTR $T10[ebp], eax

; 717  :         emplace_back(_Val);

  0028a	ff b5 60 ff ff
	ff		 push	 DWORD PTR $T10[ebp]
  00290	8d 4d dc	 lea	 ecx, DWORD PTR _stTokenVector$[ebp]
  00293	e8 00 00 00 00	 call	 ??$emplace_back@ABV?$basic_string@DU?$char_traits@D@std@@V?$allocator@D@2@@std@@@?$vector@V?$basic_string@DU?$char_traits@D@std@@V?$allocator@D@2@@std@@V?$allocator@V?$basic_string@DU?$char_traits@D@std@@V?$allocator@D@2@@std@@@2@@std@@QAEXABV?$basic_string@DU?$char_traits@D@std@@V?$allocator@D@2@@1@@Z ; std::vector<std::basic_string<char,std::char_traits<char>,std::allocator<char> >,std::allocator<std::basic_string<char,std::char_traits<char>,std::allocator<char> > > >::emplace_back<std::basic_string<char,std::char_traits<char>,std::allocator<char> > const &>
; File D:\Metin2 Server Files\mainline\SRC_2014\Metin2Client\EterLib\Util.cpp

; 97   : 				}

  00298	eb b2		 jmp	 SHORT $LN8@LoadMultip
$LN9@LoadMultip:

; 98   : 			}

  0029a	e9 2a ff ff ff	 jmp	 $LN5@LoadMultip
$LN6@LoadMultip:
; File C:\Program Files (x86)\Microsoft Visual Studio\2019\Community\VC\Tools\MSVC\14.28.29333\include\type_traits

; 1443 :     return static_cast<_Ty&&>(_Arg);

  0029f	8d 85 5c 01 00
	00		 lea	 eax, DWORD PTR _key$38[ebp]
  002a5	89 45 94	 mov	 DWORD PTR $T19[ebp], eax
; File C:\Program Files (x86)\Microsoft Visual Studio\2019\Community\VC\Tools\MSVC\14.28.29333\include\utility

; 190  :         : first(_STD forward<_Other1>(_Val1)), second(_STD forward<_Other2>(_Val2)) {}

  002a8	ff 75 94	 push	 DWORD PTR $T19[ebp]
  002ab	8d 8d 98 01 00
	00		 lea	 ecx, DWORD PTR $T40[ebp]
  002b1	e8 00 00 00 00	 call	 ??0?$basic_string@DU?$char_traits@D@std@@V?$allocator@D@2@@std@@QAE@ABV01@@Z ; std::basic_string<char,std::char_traits<char>,std::allocator<char> >::basic_string<char,std::char_traits<char>,std::allocator<char> >
  002b6	c6 45 fc 05	 mov	 BYTE PTR __$EHRec$[ebp+8], 5
; File C:\Program Files (x86)\Microsoft Visual Studio\2019\Community\VC\Tools\MSVC\14.28.29333\include\type_traits

; 1443 :     return static_cast<_Ty&&>(_Arg);

  002ba	8d 45 dc	 lea	 eax, DWORD PTR _stTokenVector$[ebp]
  002bd	89 45 90	 mov	 DWORD PTR $T18[ebp], eax
; File C:\Program Files (x86)\Microsoft Visual Studio\2019\Community\VC\Tools\MSVC\14.28.29333\include\utility

; 190  :         : first(_STD forward<_Other1>(_Val1)), second(_STD forward<_Other2>(_Val2)) {}

  002c0	ff 75 90	 push	 DWORD PTR $T18[ebp]
  002c3	8d 8d b0 01 00
	00		 lea	 ecx, DWORD PTR $T40[ebp+24]
  002c9	e8 00 00 00 00	 call	 ??0?$vector@V?$basic_string@DU?$char_traits@D@std@@V?$allocator@D@2@@std@@V?$allocator@V?$basic_string@DU?$char_traits@D@std@@V?$allocator@D@2@@std@@@2@@std@@QAE@ABV01@@Z ; std::vector<std::basic_string<char,std::char_traits<char>,std::allocator<char> >,std::allocator<std::basic_string<char,std::char_traits<char>,std::allocator<char> > > >::vector<std::basic_string<char,std::char_traits<char>,std::allocator<char> >,std::allocator<std::basic_string<char,std::char_traits<char>,std::allocator<char> > > >
  002ce	c6 45 fc 04	 mov	 BYTE PTR __$EHRec$[ebp+8], 4
; File D:\Metin2 Server Files\mainline\SRC_2014\Metin2Client\EterLib\Util.cpp

; 100  : 			rstTokenVectorMap.insert(CTokenVectorMap::value_type(key, stTokenVector));

  002d2	8d 85 98 01 00
	00		 lea	 eax, DWORD PTR $T40[ebp]
  002d8	89 45 8c	 mov	 DWORD PTR tv238[ebp], eax
  002db	c6 45 fc 06	 mov	 BYTE PTR __$EHRec$[ebp+8], 6
  002df	ff 75 8c	 push	 DWORD PTR tv238[ebp]
  002e2	8d 85 2c ff ff
	ff		 lea	 eax, DWORD PTR $T3[ebp]
  002e8	50		 push	 eax
  002e9	8b 8d cc 01 00
	00		 mov	 ecx, DWORD PTR _rstTokenVectorMap$[ebp]
  002ef	e8 00 00 00 00	 call	 ??$insert@$0A@$0A@@?$_Tree@V?$_Tmap_traits@V?$basic_string@DU?$char_traits@D@std@@V?$allocator@D@2@@std@@V?$vector@V?$basic_string@DU?$char_traits@D@std@@V?$allocator@D@2@@std@@V?$allocator@V?$basic_string@DU?$char_traits@D@std@@V?$allocator@D@2@@std@@@2@@2@U?$less@V?$basic_string@DU?$char_traits@D@std@@V?$allocator@D@2@@std@@@2@V?$allocator@U?$pair@$$CBV?$basic_string@DU?$char_traits@D@std@@V?$allocator@D@2@@std@@V?$vector@V?$basic_string@DU?$char_traits@D@std@@V?$allocator@D@2@@std@@V?$allocator@V?$basic_string@DU?$char_traits@D@std@@V?$allocator@D@2@@std@@@2@@2@@std@@@2@$0A@@std@@@std@@QAE?AU?$pair@V?$_Tree_iterator@V?$_Tree_val@U?$_Tree_simple_types@U?$pair@$$CBV?$basic_string@DU?$char_traits@D@std@@V?$allocator@D@2@@std@@V?$vector@V?$basic_string@DU?$char_traits@D@std@@V?$allocator@D@2@@std@@V?$allocator@V?$basic_string@DU?$char_traits@D@std@@V?$allocator@D@2@@std@@@2@@2@@std@@@std@@@std@@@std@@_N@1@$$QAU?$pair@$$CBV?$basic_string@DU?$char_traits@D@std@@V?$allocator@D@2@@std@@V?$vector@V?$basic_string@DU?$char_traits@D@std@@V?$allocator@D@2@@std@@V?$allocator@V?$basic_string@DU?$char_traits@D@std@@V?$allocator@D@2@@std@@@2@@2@@1@@Z ; std::_Tree<std::_Tmap_traits<std::basic_string<char,std::char_traits<char>,std::allocator<char> >,std::vector<std::basic_string<char,std::char_traits<char>,std::allocator<char> >,std::allocator<std::basic_string<char,std::char_traits<char>,std::allocator<char> > > >,std::less<std::basic_string<char,std::char_traits<char>,std::allocator<char> > >,std::allocator<std::pair<std::basic_string<char,std::char_traits<char>,std::allocator<char> > const ,std::vector<std::basic_string<char,std::char_traits<char>,std::allocator<char> >,std::allocator<std::basic_string<char,std::char_traits<char>,std::allocator<char> > > > > >,0> >::insert<0,0>
  002f4	c6 45 fc 04	 mov	 BYTE PTR __$EHRec$[ebp+8], 4
  002f8	8d 8d b0 01 00
	00		 lea	 ecx, DWORD PTR $T40[ebp+24]
; File C:\Program Files (x86)\Microsoft Visual Studio\2019\Community\VC\Tools\MSVC\14.28.29333\include\vector

; 673  :         _Tidy();

  002fe	e8 00 00 00 00	 call	 ?_Tidy@?$vector@V?$basic_string@DU?$char_traits@D@std@@V?$allocator@D@2@@std@@V?$allocator@V?$basic_string@DU?$char_traits@D@std@@V?$allocator@D@2@@std@@@2@@std@@AAEXXZ ; std::vector<std::basic_string<char,std::char_traits<char>,std::allocator<char> >,std::allocator<std::basic_string<char,std::char_traits<char>,std::allocator<char> > > >::_Tidy
  00303	8d 8d 98 01 00
	00		 lea	 ecx, DWORD PTR $T40[ebp]
; File C:\Program Files (x86)\Microsoft Visual Studio\2019\Community\VC\Tools\MSVC\14.28.29333\include\xstring

; 2801 :         _Tidy_deallocate();

  00309	e8 00 00 00 00	 call	 ?_Tidy_deallocate@?$basic_string@DU?$char_traits@D@std@@V?$allocator@D@2@@std@@AAEXXZ ; std::basic_string<char,std::char_traits<char>,std::allocator<char> >::_Tidy_deallocate
; File D:\Metin2 Server Files\mainline\SRC_2014\Metin2Client\EterLib\Util.cpp

; 101  : 		}

  0030e	c6 45 fc 03	 mov	 BYTE PTR __$EHRec$[ebp+8], 3
; File C:\Program Files (x86)\Microsoft Visual Studio\2019\Community\VC\Tools\MSVC\14.28.29333\include\xstring

; 2801 :         _Tidy_deallocate();

  00312	8d 8d 5c 01 00
	00		 lea	 ecx, DWORD PTR _key$38[ebp]
  00318	e8 00 00 00 00	 call	 ?_Tidy_deallocate@?$basic_string@DU?$char_traits@D@std@@V?$allocator@D@2@@std@@AAEXXZ ; std::basic_string<char,std::char_traits<char>,std::allocator<char> >::_Tidy_deallocate
; File D:\Metin2 Server Files\mainline\SRC_2014\Metin2Client\EterLib\Util.cpp

; 101  : 		}

  0031d	c6 45 fc 02	 mov	 BYTE PTR __$EHRec$[ebp+8], 2
; File C:\Program Files (x86)\Microsoft Visual Studio\2019\Community\VC\Tools\MSVC\14.28.29333\include\vector

; 673  :         _Tidy();

  00321	8d 4d c8	 lea	 ecx, DWORD PTR _stSubTokenVector$31[ebp]
  00324	e8 00 00 00 00	 call	 ?_Tidy@?$vector@V?$basic_string@DU?$char_traits@D@std@@V?$allocator@D@2@@std@@V?$allocator@V?$basic_string@DU?$char_traits@D@std@@V?$allocator@D@2@@std@@@2@@std@@AAEXXZ ; std::vector<std::basic_string<char,std::char_traits<char>,std::allocator<char> >,std::allocator<std::basic_string<char,std::char_traits<char>,std::allocator<char> > > >::_Tidy
; File D:\Metin2 Server Files\mainline\SRC_2014\Metin2Client\EterLib\Util.cpp

; 101  : 		}

  00329	e9 04 01 00 00	 jmp	 $LN14@LoadMultip
$LN13@LoadMultip:
; File C:\Program Files (x86)\Microsoft Visual Studio\2019\Community\VC\Tools\MSVC\14.28.29333\include\vector

; 1498 :         auto& _My_data = _Mypair._Myval2;

  0032e	8d 45 dc	 lea	 eax, DWORD PTR _stTokenVector$[ebp]
  00331	89 45 88	 mov	 DWORD PTR __My_data$17[ebp], eax

; 1499 : #if _CONTAINER_DEBUG_LEVEL > 0
; 1500 :         _STL_VERIFY(
; 1501 :             _Pos < static_cast<size_type>(_My_data._Mylast - _My_data._Myfirst), "vector subscript out of range");
; 1502 : #endif // _CONTAINER_DEBUG_LEVEL > 0
; 1503 : 
; 1504 :         return _My_data._Myfirst[_Pos];

  00334	33 c0		 xor	 eax, eax
  00336	6b c0 18	 imul	 eax, eax, 24
  00339	8b 4d 88	 mov	 ecx, DWORD PTR __My_data$17[ebp]
  0033c	03 01		 add	 eax, DWORD PTR [ecx]
  0033e	89 45 84	 mov	 DWORD PTR $T16[ebp], eax
; File D:\Metin2 Server Files\mainline\SRC_2014\Metin2Client\EterLib\Util.cpp

; 104  : 			std::string key = stTokenVector[0];

  00341	ff 75 84	 push	 DWORD PTR $T16[ebp]
  00344	8d 8d 44 01 00
	00		 lea	 ecx, DWORD PTR _key$37[ebp]
  0034a	e8 00 00 00 00	 call	 ??0?$basic_string@DU?$char_traits@D@std@@V?$allocator@D@2@@std@@QAE@ABV01@@Z ; std::basic_string<char,std::char_traits<char>,std::allocator<char> >::basic_string<char,std::char_traits<char>,std::allocator<char> >
  0034f	c6 45 fc 07	 mov	 BYTE PTR __$EHRec$[ebp+8], 7
; File C:\Program Files (x86)\Microsoft Visual Studio\2019\Community\VC\Tools\MSVC\14.28.29333\include\vector

; 1410 :         auto& _My_data = _Mypair._Myval2;

  00353	8d 45 dc	 lea	 eax, DWORD PTR _stTokenVector$[ebp]
  00356	89 45 d4	 mov	 DWORD PTR __My_data$32[ebp], eax
; File C:\Program Files (x86)\Microsoft Visual Studio\2019\Community\VC\Tools\MSVC\14.28.29333\include\xstddef

; 275  :     return __builtin_addressof(_Val);

  00359	8b 45 d4	 mov	 eax, DWORD PTR __My_data$32[ebp]
  0035c	89 85 38 ff ff
	ff		 mov	 DWORD PTR $T5[ebp], eax
; File C:\Program Files (x86)\Microsoft Visual Studio\2019\Community\VC\Tools\MSVC\14.28.29333\include\vector

; 1411 :         return iterator(_My_data._Myfirst, _STD addressof(_My_data));

  00362	8b 45 d4	 mov	 eax, DWORD PTR __My_data$32[ebp]
  00365	8b 00		 mov	 eax, DWORD PTR [eax]
  00367	89 45 80	 mov	 DWORD PTR ___param0$[ebp], eax

; 42   :     _Vector_const_iterator(_Tptr _Parg, const _Container_base* _Pvector) noexcept : _Ptr(_Parg) {

  0036a	8b 45 80	 mov	 eax, DWORD PTR ___param0$[ebp]
  0036d	89 85 7c ff ff
	ff		 mov	 DWORD PTR $T15[ebp], eax

; 1411 :         return iterator(_My_data._Myfirst, _STD addressof(_My_data));

  00373	8d 85 7c ff ff
	ff		 lea	 eax, DWORD PTR $T15[ebp]
  00379	89 85 78 ff ff
	ff		 mov	 DWORD PTR $T14[ebp], eax
; File D:\Metin2 Server Files\mainline\SRC_2014\Metin2Client\EterLib\Util.cpp

; 105  : 			stTokenVector.erase(stTokenVector.begin());

  0037f	8b 85 78 ff ff
	ff		 mov	 eax, DWORD PTR $T14[ebp]
  00385	8b 00		 mov	 eax, DWORD PTR [eax]
  00387	89 85 74 ff ff
	ff		 mov	 DWORD PTR $T13[ebp], eax
  0038d	ff b5 74 ff ff
	ff		 push	 DWORD PTR $T13[ebp]
  00393	8d 85 34 ff ff
	ff		 lea	 eax, DWORD PTR $T4[ebp]
  00399	50		 push	 eax
  0039a	8d 4d dc	 lea	 ecx, DWORD PTR _stTokenVector$[ebp]
  0039d	e8 00 00 00 00	 call	 ?erase@?$vector@V?$basic_string@DU?$char_traits@D@std@@V?$allocator@D@2@@std@@V?$allocator@V?$basic_string@DU?$char_traits@D@std@@V?$allocator@D@2@@std@@@2@@std@@QAE?AV?$_Vector_iterator@V?$_Vector_val@U?$_Simple_types@V?$basic_string@DU?$char_traits@D@std@@V?$allocator@D@2@@std@@@std@@@std@@@2@V?$_Vector_const_iterator@V?$_Vector_val@U?$_Simple_types@V?$basic_string@DU?$char_traits@D@std@@V?$allocator@D@2@@std@@@std@@@std@@@2@@Z ; std::vector<std::basic_string<char,std::char_traits<char>,std::allocator<char> >,std::allocator<std::basic_string<char,std::char_traits<char>,std::allocator<char> > > >::erase
; File C:\Program Files (x86)\Microsoft Visual Studio\2019\Community\VC\Tools\MSVC\14.28.29333\include\type_traits

; 1443 :     return static_cast<_Ty&&>(_Arg);

  003a2	8d 85 44 01 00
	00		 lea	 eax, DWORD PTR _key$37[ebp]
  003a8	89 85 70 ff ff
	ff		 mov	 DWORD PTR $T12[ebp], eax
; File C:\Program Files (x86)\Microsoft Visual Studio\2019\Community\VC\Tools\MSVC\14.28.29333\include\utility

; 190  :         : first(_STD forward<_Other1>(_Val1)), second(_STD forward<_Other2>(_Val2)) {}

  003ae	ff b5 70 ff ff
	ff		 push	 DWORD PTR $T12[ebp]
  003b4	8d 8d 74 01 00
	00		 lea	 ecx, DWORD PTR $T39[ebp]
  003ba	e8 00 00 00 00	 call	 ??0?$basic_string@DU?$char_traits@D@std@@V?$allocator@D@2@@std@@QAE@ABV01@@Z ; std::basic_string<char,std::char_traits<char>,std::allocator<char> >::basic_string<char,std::char_traits<char>,std::allocator<char> >
  003bf	c6 45 fc 08	 mov	 BYTE PTR __$EHRec$[ebp+8], 8
; File C:\Program Files (x86)\Microsoft Visual Studio\2019\Community\VC\Tools\MSVC\14.28.29333\include\type_traits

; 1443 :     return static_cast<_Ty&&>(_Arg);

  003c3	8d 45 dc	 lea	 eax, DWORD PTR _stTokenVector$[ebp]
  003c6	89 85 6c ff ff
	ff		 mov	 DWORD PTR $T11[ebp], eax
; File C:\Program Files (x86)\Microsoft Visual Studio\2019\Community\VC\Tools\MSVC\14.28.29333\include\utility

; 190  :         : first(_STD forward<_Other1>(_Val1)), second(_STD forward<_Other2>(_Val2)) {}

  003cc	ff b5 6c ff ff
	ff		 push	 DWORD PTR $T11[ebp]
  003d2	8d 8d 8c 01 00
	00		 lea	 ecx, DWORD PTR $T39[ebp+24]
  003d8	e8 00 00 00 00	 call	 ??0?$vector@V?$basic_string@DU?$char_traits@D@std@@V?$allocator@D@2@@std@@V?$allocator@V?$basic_string@DU?$char_traits@D@std@@V?$allocator@D@2@@std@@@2@@std@@QAE@ABV01@@Z ; std::vector<std::basic_string<char,std::char_traits<char>,std::allocator<char> >,std::allocator<std::basic_string<char,std::char_traits<char>,std::allocator<char> > > >::vector<std::basic_string<char,std::char_traits<char>,std::allocator<char> >,std::allocator<std::basic_string<char,std::char_traits<char>,std::allocator<char> > > >
  003dd	c6 45 fc 07	 mov	 BYTE PTR __$EHRec$[ebp+8], 7
; File D:\Metin2 Server Files\mainline\SRC_2014\Metin2Client\EterLib\Util.cpp

; 106  : 			rstTokenVectorMap.insert(CTokenVectorMap::value_type(key, stTokenVector));

  003e1	8d 85 74 01 00
	00		 lea	 eax, DWORD PTR $T39[ebp]
  003e7	89 85 4c ff ff
	ff		 mov	 DWORD PTR tv241[ebp], eax
  003ed	c6 45 fc 09	 mov	 BYTE PTR __$EHRec$[ebp+8], 9
  003f1	ff b5 4c ff ff
	ff		 push	 DWORD PTR tv241[ebp]
  003f7	8d 85 24 ff ff
	ff		 lea	 eax, DWORD PTR $T2[ebp]
  003fd	50		 push	 eax
  003fe	8b 8d cc 01 00
	00		 mov	 ecx, DWORD PTR _rstTokenVectorMap$[ebp]
  00404	e8 00 00 00 00	 call	 ??$insert@$0A@$0A@@?$_Tree@V?$_Tmap_traits@V?$basic_string@DU?$char_traits@D@std@@V?$allocator@D@2@@std@@V?$vector@V?$basic_string@DU?$char_traits@D@std@@V?$allocator@D@2@@std@@V?$allocator@V?$basic_string@DU?$char_traits@D@std@@V?$allocator@D@2@@std@@@2@@2@U?$less@V?$basic_string@DU?$char_traits@D@std@@V?$allocator@D@2@@std@@@2@V?$allocator@U?$pair@$$CBV?$basic_string@DU?$char_traits@D@std@@V?$allocator@D@2@@std@@V?$vector@V?$basic_string@DU?$char_traits@D@std@@V?$allocator@D@2@@std@@V?$allocator@V?$basic_string@DU?$char_traits@D@std@@V?$allocator@D@2@@std@@@2@@2@@std@@@2@$0A@@std@@@std@@QAE?AU?$pair@V?$_Tree_iterator@V?$_Tree_val@U?$_Tree_simple_types@U?$pair@$$CBV?$basic_string@DU?$char_traits@D@std@@V?$allocator@D@2@@std@@V?$vector@V?$basic_string@DU?$char_traits@D@std@@V?$allocator@D@2@@std@@V?$allocator@V?$basic_string@DU?$char_traits@D@std@@V?$allocator@D@2@@std@@@2@@2@@std@@@std@@@std@@@std@@_N@1@$$QAU?$pair@$$CBV?$basic_string@DU?$char_traits@D@std@@V?$allocator@D@2@@std@@V?$vector@V?$basic_string@DU?$char_traits@D@std@@V?$allocator@D@2@@std@@V?$allocator@V?$basic_string@DU?$char_traits@D@std@@V?$allocator@D@2@@std@@@2@@2@@1@@Z ; std::_Tree<std::_Tmap_traits<std::basic_string<char,std::char_traits<char>,std::allocator<char> >,std::vector<std::basic_string<char,std::char_traits<char>,std::allocator<char> >,std::allocator<std::basic_string<char,std::char_traits<char>,std::allocator<char> > > >,std::less<std::basic_string<char,std::char_traits<char>,std::allocator<char> > >,std::allocator<std::pair<std::basic_string<char,std::char_traits<char>,std::allocator<char> > const ,std::vector<std::basic_string<char,std::char_traits<char>,std::allocator<char> >,std::allocator<std::basic_string<char,std::char_traits<char>,std::allocator<char> > > > > >,0> >::insert<0,0>
  00409	c6 45 fc 07	 mov	 BYTE PTR __$EHRec$[ebp+8], 7
  0040d	8d 8d 8c 01 00
	00		 lea	 ecx, DWORD PTR $T39[ebp+24]
; File C:\Program Files (x86)\Microsoft Visual Studio\2019\Community\VC\Tools\MSVC\14.28.29333\include\vector

; 673  :         _Tidy();

  00413	e8 00 00 00 00	 call	 ?_Tidy@?$vector@V?$basic_string@DU?$char_traits@D@std@@V?$allocator@D@2@@std@@V?$allocator@V?$basic_string@DU?$char_traits@D@std@@V?$allocator@D@2@@std@@@2@@std@@AAEXXZ ; std::vector<std::basic_string<char,std::char_traits<char>,std::allocator<char> >,std::allocator<std::basic_string<char,std::char_traits<char>,std::allocator<char> > > >::_Tidy
  00418	8d 8d 74 01 00
	00		 lea	 ecx, DWORD PTR $T39[ebp]
; File C:\Program Files (x86)\Microsoft Visual Studio\2019\Community\VC\Tools\MSVC\14.28.29333\include\xstring

; 2801 :         _Tidy_deallocate();

  0041e	e8 00 00 00 00	 call	 ?_Tidy_deallocate@?$basic_string@DU?$char_traits@D@std@@V?$allocator@D@2@@std@@AAEXXZ ; std::basic_string<char,std::char_traits<char>,std::allocator<char> >::_Tidy_deallocate
; File D:\Metin2 Server Files\mainline\SRC_2014\Metin2Client\EterLib\Util.cpp

; 107  : 		}

  00423	c6 45 fc 02	 mov	 BYTE PTR __$EHRec$[ebp+8], 2
; File C:\Program Files (x86)\Microsoft Visual Studio\2019\Community\VC\Tools\MSVC\14.28.29333\include\xstring

; 2801 :         _Tidy_deallocate();

  00427	8d 8d 44 01 00
	00		 lea	 ecx, DWORD PTR _key$37[ebp]
  0042d	e8 00 00 00 00	 call	 ?_Tidy_deallocate@?$basic_string@DU?$char_traits@D@std@@V?$allocator@D@2@@std@@AAEXXZ ; std::basic_string<char,std::char_traits<char>,std::allocator<char> >::_Tidy_deallocate
$LN14@LoadMultip:
; File D:\Metin2 Server Files\mainline\SRC_2014\Metin2Client\EterLib\Util.cpp

; 108  : 	}

  00432	e9 95 fc ff ff	 jmp	 $LN2@LoadMultip
$LN3@LoadMultip:

; 110  : 	return true;

  00437	c6 45 ee 01	 mov	 BYTE PTR $T35[ebp], 1
  0043b	c6 45 fc 01	 mov	 BYTE PTR __$EHRec$[ebp+8], 1
; File C:\Program Files (x86)\Microsoft Visual Studio\2019\Community\VC\Tools\MSVC\14.28.29333\include\vector

; 673  :         _Tidy();

  0043f	8d 4d dc	 lea	 ecx, DWORD PTR _stTokenVector$[ebp]
  00442	e8 00 00 00 00	 call	 ?_Tidy@?$vector@V?$basic_string@DU?$char_traits@D@std@@V?$allocator@D@2@@std@@V?$allocator@V?$basic_string@DU?$char_traits@D@std@@V?$allocator@D@2@@std@@@2@@std@@AAEXXZ ; std::vector<std::basic_string<char,std::char_traits<char>,std::allocator<char> >,std::allocator<std::basic_string<char,std::char_traits<char>,std::allocator<char> > > >::_Tidy
; File D:\Metin2 Server Files\mainline\SRC_2014\Metin2Client\EterLib\Util.cpp

; 110  : 	return true;

  00447	c6 45 fc 00	 mov	 BYTE PTR __$EHRec$[ebp+8], 0
  0044b	8d 8d 3c ff ff
	ff		 lea	 ecx, DWORD PTR _textFileLoader$[ebp]
  00451	e8 00 00 00 00	 call	 ??1CMemoryTextFileLoader@@UAE@XZ ; CMemoryTextFileLoader::~CMemoryTextFileLoader
  00456	83 4d fc ff	 or	 DWORD PTR __$EHRec$[ebp+8], -1
  0045a	8d 4d 00	 lea	 ecx, DWORD PTR _File$[ebp]
  0045d	e8 00 00 00 00	 call	 ??1CMappedFile@@UAE@XZ	; CMappedFile::~CMappedFile
  00462	8a 45 ee	 mov	 al, BYTE PTR $T35[ebp]
$LN1@LoadMultip:

; 111  : }

  00465	8b 4d f4	 mov	 ecx, DWORD PTR __$EHRec$[ebp]
  00468	64 89 0d 00 00
	00 00		 mov	 DWORD PTR fs:0, ecx
  0046f	59		 pop	 ecx
  00470	8b 8d bc 01 00
	00		 mov	 ecx, DWORD PTR __$ArrayPad$[ebp]
  00476	33 cd		 xor	 ecx, ebp
  00478	e8 00 00 00 00	 call	 @__security_check_cookie@4
  0047d	81 c5 c0 01 00
	00		 add	 ebp, 448		; 000001c0H
  00483	c9		 leave
  00484	c3		 ret	 0
_TEXT	ENDS
;	COMDAT text$x
text$x	SEGMENT
__unwindfunclet$?LoadMultipleTextData@@YA_NPBDAAV?$map@V?$basic_string@DU?$char_traits@D@std@@V?$allocator@D@2@@std@@V?$vector@V?$basic_string@DU?$char_traits@D@std@@V?$allocator@D@2@@std@@V?$allocator@V?$basic_string@DU?$char_traits@D@std@@V?$allocator@D@2@@std@@@2@@2@U?$less@V?$basic_string@DU?$char_traits@D@std@@V?$allocator@D@2@@std@@@2@V?$allocator@U?$pair@$$CBV?$basic_string@DU?$char_traits@D@std@@V?$allocator@D@2@@std@@V?$vector@V?$basic_string@DU?$char_traits@D@std@@V?$allocator@D@2@@std@@V?$allocator@V?$basic_string@DU?$char_traits@D@std@@V?$allocator@D@2@@std@@@2@@2@@std@@@2@@std@@@Z$0:
  00000	8d 4d 00	 lea	 ecx, DWORD PTR _File$[ebp]
  00003	e9 00 00 00 00	 jmp	 ??1CMappedFile@@UAE@XZ	; CMappedFile::~CMappedFile
__unwindfunclet$?LoadMultipleTextData@@YA_NPBDAAV?$map@V?$basic_string@DU?$char_traits@D@std@@V?$allocator@D@2@@std@@V?$vector@V?$basic_string@DU?$char_traits@D@std@@V?$allocator@D@2@@std@@V?$allocator@V?$basic_string@DU?$char_traits@D@std@@V?$allocator@D@2@@std@@@2@@2@U?$less@V?$basic_string@DU?$char_traits@D@std@@V?$allocator@D@2@@std@@@2@V?$allocator@U?$pair@$$CBV?$basic_string@DU?$char_traits@D@std@@V?$allocator@D@2@@std@@V?$vector@V?$basic_string@DU?$char_traits@D@std@@V?$allocator@D@2@@std@@V?$allocator@V?$basic_string@DU?$char_traits@D@std@@V?$allocator@D@2@@std@@@2@@2@@std@@@2@@std@@@Z$1:
  00008	8d 8d 3c ff ff
	ff		 lea	 ecx, DWORD PTR _textFileLoader$[ebp]
  0000e	e9 00 00 00 00	 jmp	 ??1CMemoryTextFileLoader@@UAE@XZ ; CMemoryTextFileLoader::~CMemoryTextFileLoader
__unwindfunclet$?LoadMultipleTextData@@YA_NPBDAAV?$map@V?$basic_string@DU?$char_traits@D@std@@V?$allocator@D@2@@std@@V?$vector@V?$basic_string@DU?$char_traits@D@std@@V?$allocator@D@2@@std@@V?$allocator@V?$basic_string@DU?$char_traits@D@std@@V?$allocator@D@2@@std@@@2@@2@U?$less@V?$basic_string@DU?$char_traits@D@std@@V?$allocator@D@2@@std@@@2@V?$allocator@U?$pair@$$CBV?$basic_string@DU?$char_traits@D@std@@V?$allocator@D@2@@std@@V?$vector@V?$basic_string@DU?$char_traits@D@std@@V?$allocator@D@2@@std@@V?$allocator@V?$basic_string@DU?$char_traits@D@std@@V?$allocator@D@2@@std@@@2@@2@@std@@@2@@std@@@Z$2:
  00013	8d 4d dc	 lea	 ecx, DWORD PTR _stTokenVector$[ebp]
  00016	e9 00 00 00 00	 jmp	 ??1?$vector@V?$basic_string@DU?$char_traits@D@std@@V?$allocator@D@2@@std@@V?$allocator@V?$basic_string@DU?$char_traits@D@std@@V?$allocator@D@2@@std@@@2@@std@@QAE@XZ ; std::vector<std::basic_string<char,std::char_traits<char>,std::allocator<char> >,std::allocator<std::basic_string<char,std::char_traits<char>,std::allocator<char> > > >::~vector<std::basic_string<char,std::char_traits<char>,std::allocator<char> >,std::allocator<std::basic_string<char,std::char_traits<char>,std::allocator<char> > > >
__unwindfunclet$?LoadMultipleTextData@@YA_NPBDAAV?$map@V?$basic_string@DU?$char_traits@D@std@@V?$allocator@D@2@@std@@V?$vector@V?$basic_string@DU?$char_traits@D@std@@V?$allocator@D@2@@std@@V?$allocator@V?$basic_string@DU?$char_traits@D@std@@V?$allocator@D@2@@std@@@2@@2@U?$less@V?$basic_string@DU?$char_traits@D@std@@V?$allocator@D@2@@std@@@2@V?$allocator@U?$pair@$$CBV?$basic_string@DU?$char_traits@D@std@@V?$allocator@D@2@@std@@V?$vector@V?$basic_string@DU?$char_traits@D@std@@V?$allocator@D@2@@std@@V?$allocator@V?$basic_string@DU?$char_traits@D@std@@V?$allocator@D@2@@std@@@2@@2@@std@@@2@@std@@@Z$3:
  0001b	8d 4d c8	 lea	 ecx, DWORD PTR _stSubTokenVector$31[ebp]
  0001e	e9 00 00 00 00	 jmp	 ??1?$vector@V?$basic_string@DU?$char_traits@D@std@@V?$allocator@D@2@@std@@V?$allocator@V?$basic_string@DU?$char_traits@D@std@@V?$allocator@D@2@@std@@@2@@std@@QAE@XZ ; std::vector<std::basic_string<char,std::char_traits<char>,std::allocator<char> >,std::allocator<std::basic_string<char,std::char_traits<char>,std::allocator<char> > > >::~vector<std::basic_string<char,std::char_traits<char>,std::allocator<char> >,std::allocator<std::basic_string<char,std::char_traits<char>,std::allocator<char> > > >
__unwindfunclet$?LoadMultipleTextData@@YA_NPBDAAV?$map@V?$basic_string@DU?$char_traits@D@std@@V?$allocator@D@2@@std@@V?$vector@V?$basic_string@DU?$char_traits@D@std@@V?$allocator@D@2@@std@@V?$allocator@V?$basic_string@DU?$char_traits@D@std@@V?$allocator@D@2@@std@@@2@@2@U?$less@V?$basic_string@DU?$char_traits@D@std@@V?$allocator@D@2@@std@@@2@V?$allocator@U?$pair@$$CBV?$basic_string@DU?$char_traits@D@std@@V?$allocator@D@2@@std@@V?$vector@V?$basic_string@DU?$char_traits@D@std@@V?$allocator@D@2@@std@@V?$allocator@V?$basic_string@DU?$char_traits@D@std@@V?$allocator@D@2@@std@@@2@@2@@std@@@2@@std@@@Z$4:
  00023	8d 8d 5c 01 00
	00		 lea	 ecx, DWORD PTR _key$38[ebp]
  00029	e9 00 00 00 00	 jmp	 ??1?$basic_string@DU?$char_traits@D@std@@V?$allocator@D@2@@std@@QAE@XZ ; std::basic_string<char,std::char_traits<char>,std::allocator<char> >::~basic_string<char,std::char_traits<char>,std::allocator<char> >
__unwindfunclet$?LoadMultipleTextData@@YA_NPBDAAV?$map@V?$basic_string@DU?$char_traits@D@std@@V?$allocator@D@2@@std@@V?$vector@V?$basic_string@DU?$char_traits@D@std@@V?$allocator@D@2@@std@@V?$allocator@V?$basic_string@DU?$char_traits@D@std@@V?$allocator@D@2@@std@@@2@@2@U?$less@V?$basic_string@DU?$char_traits@D@std@@V?$allocator@D@2@@std@@@2@V?$allocator@U?$pair@$$CBV?$basic_string@DU?$char_traits@D@std@@V?$allocator@D@2@@std@@V?$vector@V?$basic_string@DU?$char_traits@D@std@@V?$allocator@D@2@@std@@V?$allocator@V?$basic_string@DU?$char_traits@D@std@@V?$allocator@D@2@@std@@@2@@2@@std@@@2@@std@@@Z$37:
  0002e	8d 8d 98 01 00
	00		 lea	 ecx, DWORD PTR $T40[ebp]
  00034	e9 00 00 00 00	 jmp	 ??1?$basic_string@DU?$char_traits@D@std@@V?$allocator@D@2@@std@@QAE@XZ ; std::basic_string<char,std::char_traits<char>,std::allocator<char> >::~basic_string<char,std::char_traits<char>,std::allocator<char> >
__unwindfunclet$?LoadMultipleTextData@@YA_NPBDAAV?$map@V?$basic_string@DU?$char_traits@D@std@@V?$allocator@D@2@@std@@V?$vector@V?$basic_string@DU?$char_traits@D@std@@V?$allocator@D@2@@std@@V?$allocator@V?$basic_string@DU?$char_traits@D@std@@V?$allocator@D@2@@std@@@2@@2@U?$less@V?$basic_string@DU?$char_traits@D@std@@V?$allocator@D@2@@std@@@2@V?$allocator@U?$pair@$$CBV?$basic_string@DU?$char_traits@D@std@@V?$allocator@D@2@@std@@V?$vector@V?$basic_string@DU?$char_traits@D@std@@V?$allocator@D@2@@std@@V?$allocator@V?$basic_string@DU?$char_traits@D@std@@V?$allocator@D@2@@std@@@2@@2@@std@@@2@@std@@@Z$5:
  00039	8d 8d 98 01 00
	00		 lea	 ecx, DWORD PTR $T40[ebp]
  0003f	e9 00 00 00 00	 jmp	 ??1?$pair@$$CBV?$basic_string@DU?$char_traits@D@std@@V?$allocator@D@2@@std@@V?$vector@V?$basic_string@DU?$char_traits@D@std@@V?$allocator@D@2@@std@@V?$allocator@V?$basic_string@DU?$char_traits@D@std@@V?$allocator@D@2@@std@@@2@@2@@std@@QAE@XZ
__unwindfunclet$?LoadMultipleTextData@@YA_NPBDAAV?$map@V?$basic_string@DU?$char_traits@D@std@@V?$allocator@D@2@@std@@V?$vector@V?$basic_string@DU?$char_traits@D@std@@V?$allocator@D@2@@std@@V?$allocator@V?$basic_string@DU?$char_traits@D@std@@V?$allocator@D@2@@std@@@2@@2@U?$less@V?$basic_string@DU?$char_traits@D@std@@V?$allocator@D@2@@std@@@2@V?$allocator@U?$pair@$$CBV?$basic_string@DU?$char_traits@D@std@@V?$allocator@D@2@@std@@V?$vector@V?$basic_string@DU?$char_traits@D@std@@V?$allocator@D@2@@std@@V?$allocator@V?$basic_string@DU?$char_traits@D@std@@V?$allocator@D@2@@std@@@2@@2@@std@@@2@@std@@@Z$6:
  00044	8d 8d 44 01 00
	00		 lea	 ecx, DWORD PTR _key$37[ebp]
  0004a	e9 00 00 00 00	 jmp	 ??1?$basic_string@DU?$char_traits@D@std@@V?$allocator@D@2@@std@@QAE@XZ ; std::basic_string<char,std::char_traits<char>,std::allocator<char> >::~basic_string<char,std::char_traits<char>,std::allocator<char> >
__unwindfunclet$?LoadMultipleTextData@@YA_NPBDAAV?$map@V?$basic_string@DU?$char_traits@D@std@@V?$allocator@D@2@@std@@V?$vector@V?$basic_string@DU?$char_traits@D@std@@V?$allocator@D@2@@std@@V?$allocator@V?$basic_string@DU?$char_traits@D@std@@V?$allocator@D@2@@std@@@2@@2@U?$less@V?$basic_string@DU?$char_traits@D@std@@V?$allocator@D@2@@std@@@2@V?$allocator@U?$pair@$$CBV?$basic_string@DU?$char_traits@D@std@@V?$allocator@D@2@@std@@V?$vector@V?$basic_string@DU?$char_traits@D@std@@V?$allocator@D@2@@std@@V?$allocator@V?$basic_string@DU?$char_traits@D@std@@V?$allocator@D@2@@std@@@2@@2@@std@@@2@@std@@@Z$85:
  0004f	8d 8d 74 01 00
	00		 lea	 ecx, DWORD PTR $T39[ebp]
  00055	e9 00 00 00 00	 jmp	 ??1?$basic_string@DU?$char_traits@D@std@@V?$allocator@D@2@@std@@QAE@XZ ; std::basic_string<char,std::char_traits<char>,std::allocator<char> >::~basic_string<char,std::char_traits<char>,std::allocator<char> >
__unwindfunclet$?LoadMultipleTextData@@YA_NPBDAAV?$map@V?$basic_string@DU?$char_traits@D@std@@V?$allocator@D@2@@std@@V?$vector@V?$basic_string@DU?$char_traits@D@std@@V?$allocator@D@2@@std@@V?$allocator@V?$basic_string@DU?$char_traits@D@std@@V?$allocator@D@2@@std@@@2@@2@U?$less@V?$basic_string@DU?$char_traits@D@std@@V?$allocator@D@2@@std@@@2@V?$allocator@U?$pair@$$CBV?$basic_string@DU?$char_traits@D@std@@V?$allocator@D@2@@std@@V?$vector@V?$basic_string@DU?$char_traits@D@std@@V?$allocator@D@2@@std@@V?$allocator@V?$basic_string@DU?$char_traits@D@std@@V?$allocator@D@2@@std@@@2@@2@@std@@@2@@std@@@Z$7:
  0005a	8d 8d 74 01 00
	00		 lea	 ecx, DWORD PTR $T39[ebp]
  00060	e9 00 00 00 00	 jmp	 ??1?$pair@$$CBV?$basic_string@DU?$char_traits@D@std@@V?$allocator@D@2@@std@@V?$vector@V?$basic_string@DU?$char_traits@D@std@@V?$allocator@D@2@@std@@V?$allocator@V?$basic_string@DU?$char_traits@D@std@@V?$allocator@D@2@@std@@@2@@2@@std@@QAE@XZ
  00065	cc		 int	 3
  00066	cc		 int	 3
  00067	cc		 int	 3
  00068	cc		 int	 3
  00069	cc		 int	 3
__ehhandler$?LoadMultipleTextData@@YA_NPBDAAV?$map@V?$basic_string@DU?$char_traits@D@std@@V?$allocator@D@2@@std@@V?$vector@V?$basic_string@DU?$char_traits@D@std@@V?$allocator@D@2@@std@@V?$allocator@V?$basic_string@DU?$char_traits@D@std@@V?$allocator@D@2@@std@@@2@@2@U?$less@V?$basic_string@DU?$char_traits@D@std@@V?$allocator@D@2@@std@@@2@V?$allocator@U?$pair@$$CBV?$basic_string@DU?$char_traits@D@std@@V?$allocator@D@2@@std@@V?$vector@V?$basic_string@DU?$char_traits@D@std@@V?$allocator@D@2@@std@@V?$allocator@V?$basic_string@DU?$char_traits@D@std@@V?$allocator@D@2@@std@@@2@@2@@std@@@2@@std@@@Z:
  0006a	90		 npad	 1
  0006b	90		 npad	 1
  0006c	8b 54 24 08	 mov	 edx, DWORD PTR [esp+8]
  00070	8d 42 0c	 lea	 eax, DWORD PTR [edx+12]
  00073	8b 8a 2c ff ff
	ff		 mov	 ecx, DWORD PTR [edx-212]
  00079	33 c8		 xor	 ecx, eax
  0007b	e8 00 00 00 00	 call	 @__security_check_cookie@4
  00080	8b 8a c8 01 00
	00		 mov	 ecx, DWORD PTR [edx+456]
  00086	33 c8		 xor	 ecx, eax
  00088	e8 00 00 00 00	 call	 @__security_check_cookie@4
  0008d	b8 00 00 00 00	 mov	 eax, OFFSET __ehfuncinfo$?LoadMultipleTextData@@YA_NPBDAAV?$map@V?$basic_string@DU?$char_traits@D@std@@V?$allocator@D@2@@std@@V?$vector@V?$basic_string@DU?$char_traits@D@std@@V?$allocator@D@2@@std@@V?$allocator@V?$basic_string@DU?$char_traits@D@std@@V?$allocator@D@2@@std@@@2@@2@U?$less@V?$basic_string@DU?$char_traits@D@std@@V?$allocator@D@2@@std@@@2@V?$allocator@U?$pair@$$CBV?$basic_string@DU?$char_traits@D@std@@V?$allocator@D@2@@std@@V?$vector@V?$basic_string@DU?$char_traits@D@std@@V?$allocator@D@2@@std@@V?$allocator@V?$basic_string@DU?$char_traits@D@std@@V?$allocator@D@2@@std@@@2@@2@@std@@@2@@std@@@Z
  00092	e9 00 00 00 00	 jmp	 ___CxxFrameHandler3
text$x	ENDS
?LoadMultipleTextData@@YA_NPBDAAV?$map@V?$basic_string@DU?$char_traits@D@std@@V?$allocator@D@2@@std@@V?$vector@V?$basic_string@DU?$char_traits@D@std@@V?$allocator@D@2@@std@@V?$allocator@V?$basic_string@DU?$char_traits@D@std@@V?$allocator@D@2@@std@@@2@@2@U?$less@V?$basic_string@DU?$char_traits@D@std@@V?$allocator@D@2@@std@@@2@V?$allocator@U?$pair@$$CBV?$basic_string@DU?$char_traits@D@std@@V?$allocator@D@2@@std@@V?$vector@V?$basic_string@DU?$char_traits@D@std@@V?$allocator@D@2@@std@@V?$allocator@V?$basic_string@DU?$char_traits@D@std@@V?$allocator@D@2@@std@@@2@@2@@std@@@2@@std@@@Z ENDP ; LoadMultipleTextData
; Function compile flags: /Odspy
; File D:\Metin2 Server Files\mainline\SRC_2014\Metin2Client\EterLib\Util.cpp
; File D:\Metin2 Server Files\mainline\SRC_2014\Metin2Client\eterBase\Singleton.h
; File D:\Metin2 Server Files\mainline\SRC_2014\Metin2Client\EterLib\Util.cpp
; File C:\Program Files (x86)\Microsoft Visual Studio\2019\Community\VC\Tools\MSVC\14.28.29333\include\vector
; File C:\Program Files (x86)\Microsoft Visual Studio\2019\Community\VC\Tools\MSVC\14.28.29333\include\xmemory
; File C:\Program Files (x86)\Microsoft Visual Studio\2019\Community\VC\Tools\MSVC\14.28.29333\include\vector
; File D:\Metin2 Server Files\mainline\SRC_2014\Metin2Client\EterLib\Util.cpp
; File C:\Program Files (x86)\Microsoft Visual Studio\2019\Community\VC\Tools\MSVC\14.28.29333\include\vector
; File D:\Metin2 Server Files\mainline\SRC_2014\Metin2Client\EterLib\Util.cpp
; File C:\Program Files (x86)\Microsoft Visual Studio\2019\Community\VC\Tools\MSVC\14.28.29333\include\vector
; File D:\Metin2 Server Files\mainline\SRC_2014\Metin2Client\EterLib\Util.cpp
; File C:\Program Files (x86)\Microsoft Visual Studio\2019\Community\VC\Tools\MSVC\14.28.29333\include\vector
; File D:\Metin2 Server Files\mainline\SRC_2014\Metin2Client\EterLib\Util.cpp
; File C:\Program Files (x86)\Microsoft Visual Studio\2019\Community\VC\Tools\MSVC\14.28.29333\include\vector
; File D:\Metin2 Server Files\mainline\SRC_2014\Metin2Client\EterLib\Util.cpp
; File C:\Program Files (x86)\Microsoft Visual Studio\2019\Community\VC\Tools\MSVC\14.28.29333\include\vector
; File C:\Program Files (x86)\Microsoft Visual Studio\2019\Community\VC\Tools\MSVC\14.28.29333\include\map
; File D:\Metin2 Server Files\mainline\SRC_2014\Metin2Client\EterLib\Util.cpp
; File C:\Program Files (x86)\Microsoft Visual Studio\2019\Community\VC\Tools\MSVC\14.28.29333\include\xstddef
; File C:\Program Files (x86)\Microsoft Visual Studio\2019\Community\VC\Tools\MSVC\14.28.29333\include\xstring
; File D:\Metin2 Server Files\mainline\SRC_2014\Metin2Client\EterLib\Util.cpp
; File C:\Program Files (x86)\Microsoft Visual Studio\2019\Community\VC\Tools\MSVC\14.28.29333\include\vector
; File D:\Metin2 Server Files\mainline\SRC_2014\Metin2Client\EterLib\Util.cpp
;	COMDAT ?LoadTextData@@YA_NPBDAAV?$map@V?$basic_string@DU?$char_traits@D@std@@V?$allocator@D@2@@std@@V12@U?$less@V?$basic_string@DU?$char_traits@D@std@@V?$allocator@D@2@@std@@@2@V?$allocator@U?$pair@$$CBV?$basic_string@DU?$char_traits@D@std@@V?$allocator@D@2@@std@@V12@@std@@@2@@std@@@Z
_TEXT	SEGMENT
$T2 = -124						; size = 8
_textFileLoader$ = -116					; size = 16
$T3 = -100						; size = 1
$T4 = -96						; size = 4
$T5 = -92						; size = 4
__My_data$6 = -88					; size = 4
__My_data$7 = -84					; size = 4
$T8 = -80						; size = 4
__My_data$9 = -76					; size = 4
$T10 = -72						; size = 4
__My_data$11 = -68					; size = 4
$T12 = -64						; size = 4
_pMotionData$ = -60					; size = 4
_this$ = -56						; size = 4
$T13 = -52						; size = 4
_stTokenVector$ = -48					; size = 12
_this$ = -36						; size = 4
$T14 = -32						; size = 4
__My_data$15 = -28					; size = 4
_this$16 = -24						; size = 4
_i$17 = -20						; size = 4
$T18 = -15						; size = 1
$T19 = -14						; size = 1
$T20 = -13						; size = 1
__$EHRec$ = -12						; size = 12
_File$ = 0						; size = 324
__$ArrayPad$ = 324					; size = 4
_c_szFileName$ = 336					; size = 4
_rstTokenMap$ = 340					; size = 4
?LoadTextData@@YA_NPBDAAV?$map@V?$basic_string@DU?$char_traits@D@std@@V?$allocator@D@2@@std@@V12@U?$less@V?$basic_string@DU?$char_traits@D@std@@V?$allocator@D@2@@std@@@2@V?$allocator@U?$pair@$$CBV?$basic_string@DU?$char_traits@D@std@@V?$allocator@D@2@@std@@V12@@std@@@2@@std@@@Z PROC ; LoadTextData, COMDAT

; 22   : {

  00000	55		 push	 ebp
  00001	8d ac 24 b8 fe
	ff ff		 lea	 ebp, DWORD PTR [esp-328]
  00008	81 ec 48 01 00
	00		 sub	 esp, 328		; 00000148H
  0000e	6a ff		 push	 -1
  00010	68 00 00 00 00	 push	 __ehhandler$?LoadTextData@@YA_NPBDAAV?$map@V?$basic_string@DU?$char_traits@D@std@@V?$allocator@D@2@@std@@V12@U?$less@V?$basic_string@DU?$char_traits@D@std@@V?$allocator@D@2@@std@@@2@V?$allocator@U?$pair@$$CBV?$basic_string@DU?$char_traits@D@std@@V?$allocator@D@2@@std@@V12@@std@@@2@@std@@@Z
  00015	64 a1 00 00 00
	00		 mov	 eax, DWORD PTR fs:0
  0001b	50		 push	 eax
  0001c	83 ec 70	 sub	 esp, 112		; 00000070H
  0001f	a1 00 00 00 00	 mov	 eax, DWORD PTR ___security_cookie
  00024	33 c5		 xor	 eax, ebp
  00026	89 85 44 01 00
	00		 mov	 DWORD PTR __$ArrayPad$[ebp], eax
  0002c	50		 push	 eax
  0002d	8d 45 f4	 lea	 eax, DWORD PTR __$EHRec$[ebp]
  00030	64 a3 00 00 00
	00		 mov	 DWORD PTR fs:0, eax

; 23   : 	LPCVOID pMotionData;
; 24   : 	CMappedFile File;

  00036	8d 4d 00	 lea	 ecx, DWORD PTR _File$[ebp]
  00039	e8 00 00 00 00	 call	 ??0CMappedFile@@QAE@XZ	; CMappedFile::CMappedFile
  0003e	83 65 fc 00	 and	 DWORD PTR __$EHRec$[ebp+8], 0
; File D:\Metin2 Server Files\mainline\SRC_2014\Metin2Client\eterBase\Singleton.h

; 27   : 		return (*ms_singleton);

  00042	a1 00 00 00 00	 mov	 eax, DWORD PTR ?ms_singleton@?$CSingleton@VCEterPackManager@@@@0PAVCEterPackManager@@A ; CSingleton<CEterPackManager>::ms_singleton
  00047	89 45 cc	 mov	 DWORD PTR $T13[ebp], eax
; File D:\Metin2 Server Files\mainline\SRC_2014\Metin2Client\EterLib\Util.cpp

; 26   : 	if (!CEterPackManager::Instance().Get(File, c_szFileName, &pMotionData))

  0004a	8d 45 c4	 lea	 eax, DWORD PTR _pMotionData$[ebp]
  0004d	50		 push	 eax
  0004e	ff b5 50 01 00
	00		 push	 DWORD PTR _c_szFileName$[ebp]
  00054	8d 45 00	 lea	 eax, DWORD PTR _File$[ebp]
  00057	50		 push	 eax
  00058	8b 4d cc	 mov	 ecx, DWORD PTR $T13[ebp]
  0005b	e8 00 00 00 00	 call	 ?Get@CEterPackManager@@QAE_NAAVCMappedFile@@PBDPAPBX@Z ; CEterPackManager::Get
  00060	0f b6 c0	 movzx	 eax, al
  00063	85 c0		 test	 eax, eax
  00065	75 18		 jne	 SHORT $LN5@LoadTextDa

; 27   : 		return false;

  00067	c6 45 f3 00	 mov	 BYTE PTR $T20[ebp], 0
  0006b	83 4d fc ff	 or	 DWORD PTR __$EHRec$[ebp+8], -1
  0006f	8d 4d 00	 lea	 ecx, DWORD PTR _File$[ebp]
  00072	e8 00 00 00 00	 call	 ??1CMappedFile@@UAE@XZ	; CMappedFile::~CMappedFile
  00077	8a 45 f3	 mov	 al, BYTE PTR $T20[ebp]
  0007a	e9 9a 01 00 00	 jmp	 $LN1@LoadTextDa
$LN5@LoadTextDa:

; 28   : 
; 29   : 	CMemoryTextFileLoader textFileLoader;

  0007f	8d 4d 8c	 lea	 ecx, DWORD PTR _textFileLoader$[ebp]
  00082	e8 00 00 00 00	 call	 ??0CMemoryTextFileLoader@@QAE@XZ ; CMemoryTextFileLoader::CMemoryTextFileLoader
  00087	c6 45 fc 01	 mov	 BYTE PTR __$EHRec$[ebp+8], 1
; File C:\Program Files (x86)\Microsoft Visual Studio\2019\Community\VC\Tools\MSVC\14.28.29333\include\vector

; 445  :     vector() noexcept(is_nothrow_default_constructible_v<_Alty>) : _Mypair(_Zero_then_variadic_args_t{}) {

  0008b	8d 45 d0	 lea	 eax, DWORD PTR _stTokenVector$[ebp]
  0008e	89 45 c8	 mov	 DWORD PTR _this$[ebp], eax
; File C:\Program Files (x86)\Microsoft Visual Studio\2019\Community\VC\Tools\MSVC\14.28.29333\include\xmemory

; 1339 :         : _Ty1(), _Myval2(_STD forward<_Other2>(_Val2)...) {}

  00091	8b 45 c8	 mov	 eax, DWORD PTR _this$[ebp]
  00094	89 45 e8	 mov	 DWORD PTR _this$16[ebp], eax
; File C:\Program Files (x86)\Microsoft Visual Studio\2019\Community\VC\Tools\MSVC\14.28.29333\include\vector

; 375  :     _Vector_val() noexcept : _Myfirst(), _Mylast(), _Myend() {}

  00097	8b 45 e8	 mov	 eax, DWORD PTR _this$16[ebp]
  0009a	83 20 00	 and	 DWORD PTR [eax], 0
  0009d	8b 45 e8	 mov	 eax, DWORD PTR _this$16[ebp]
  000a0	83 60 04 00	 and	 DWORD PTR [eax+4], 0
  000a4	8b 45 e8	 mov	 eax, DWORD PTR _this$16[ebp]
  000a7	83 60 08 00	 and	 DWORD PTR [eax+8], 0
; File D:\Metin2 Server Files\mainline\SRC_2014\Metin2Client\EterLib\Util.cpp

; 30   : 	CTokenVector stTokenVector;

  000ab	c6 45 fc 02	 mov	 BYTE PTR __$EHRec$[ebp+8], 2

; 31   : 
; 32   : 	textFileLoader.Bind(File.Size(), pMotionData);

  000af	ff 75 c4	 push	 DWORD PTR _pMotionData$[ebp]
  000b2	8d 4d 00	 lea	 ecx, DWORD PTR _File$[ebp]
  000b5	e8 00 00 00 00	 call	 ?Size@CMappedFile@@QAEKXZ ; CMappedFile::Size
  000ba	50		 push	 eax
  000bb	8d 4d 8c	 lea	 ecx, DWORD PTR _textFileLoader$[ebp]
  000be	e8 00 00 00 00	 call	 ?Bind@CMemoryTextFileLoader@@QAEXHPBX@Z ; CMemoryTextFileLoader::Bind

; 33   : 
; 34   : 	for (DWORD i = 0; i < textFileLoader.GetLineCount(); ++i)

  000c3	83 65 ec 00	 and	 DWORD PTR _i$17[ebp], 0
  000c7	eb 07		 jmp	 SHORT $LN4@LoadTextDa
$LN2@LoadTextDa:
  000c9	8b 45 ec	 mov	 eax, DWORD PTR _i$17[ebp]
  000cc	40		 inc	 eax
  000cd	89 45 ec	 mov	 DWORD PTR _i$17[ebp], eax
$LN4@LoadTextDa:
  000d0	8d 4d 8c	 lea	 ecx, DWORD PTR _textFileLoader$[ebp]
  000d3	e8 00 00 00 00	 call	 ?GetLineCount@CMemoryTextFileLoader@@QAEKXZ ; CMemoryTextFileLoader::GetLineCount
  000d8	39 45 ec	 cmp	 DWORD PTR _i$17[ebp], eax
  000db	0f 83 0d 01 00
	00		 jae	 $LN3@LoadTextDa

; 35   : 	{
; 36   : 		if (!textFileLoader.SplitLine(i, &stTokenVector))

  000e1	68 00 00 00 00	 push	 OFFSET ??_C@_02OJDBNLEE@?5?7@
  000e6	8d 45 d0	 lea	 eax, DWORD PTR _stTokenVector$[ebp]
  000e9	50		 push	 eax
  000ea	ff 75 ec	 push	 DWORD PTR _i$17[ebp]
  000ed	8d 4d 8c	 lea	 ecx, DWORD PTR _textFileLoader$[ebp]
  000f0	e8 00 00 00 00	 call	 ?SplitLine@CMemoryTextFileLoader@@QAE_NKPAV?$vector@V?$basic_string@DU?$char_traits@D@std@@V?$allocator@D@2@@std@@V?$allocator@V?$basic_string@DU?$char_traits@D@std@@V?$allocator@D@2@@std@@@2@@std@@PBD@Z ; CMemoryTextFileLoader::SplitLine
  000f5	0f b6 c0	 movzx	 eax, al
  000f8	85 c0		 test	 eax, eax
  000fa	75 02		 jne	 SHORT $LN6@LoadTextDa

; 37   : 			continue;

  000fc	eb cb		 jmp	 SHORT $LN2@LoadTextDa
$LN6@LoadTextDa:
; File C:\Program Files (x86)\Microsoft Visual Studio\2019\Community\VC\Tools\MSVC\14.28.29333\include\vector

; 1483 :         auto& _My_data = _Mypair._Myval2;

  000fe	8d 45 d0	 lea	 eax, DWORD PTR _stTokenVector$[ebp]
  00101	89 45 e4	 mov	 DWORD PTR __My_data$15[ebp], eax

; 1484 :         return static_cast<size_type>(_My_data._Mylast - _My_data._Myfirst);

  00104	8b 45 e4	 mov	 eax, DWORD PTR __My_data$15[ebp]
  00107	8b 4d e4	 mov	 ecx, DWORD PTR __My_data$15[ebp]
  0010a	8b 40 04	 mov	 eax, DWORD PTR [eax+4]
  0010d	2b 01		 sub	 eax, DWORD PTR [ecx]
  0010f	99		 cdq
  00110	6a 18		 push	 24			; 00000018H
  00112	59		 pop	 ecx
  00113	f7 f9		 idiv	 ecx
  00115	89 45 c0	 mov	 DWORD PTR $T12[ebp], eax
; File D:\Metin2 Server Files\mainline\SRC_2014\Metin2Client\EterLib\Util.cpp

; 39   : 		if (2 != stTokenVector.size())

  00118	83 7d c0 02	 cmp	 DWORD PTR $T12[ebp], 2
  0011c	74 30		 je	 SHORT $LN7@LoadTextDa

; 40   : 			return false;

  0011e	c6 45 f2 00	 mov	 BYTE PTR $T19[ebp], 0
  00122	c6 45 fc 01	 mov	 BYTE PTR __$EHRec$[ebp+8], 1
; File C:\Program Files (x86)\Microsoft Visual Studio\2019\Community\VC\Tools\MSVC\14.28.29333\include\vector

; 673  :         _Tidy();

  00126	8d 4d d0	 lea	 ecx, DWORD PTR _stTokenVector$[ebp]
  00129	e8 00 00 00 00	 call	 ?_Tidy@?$vector@V?$basic_string@DU?$char_traits@D@std@@V?$allocator@D@2@@std@@V?$allocator@V?$basic_string@DU?$char_traits@D@std@@V?$allocator@D@2@@std@@@2@@std@@AAEXXZ ; std::vector<std::basic_string<char,std::char_traits<char>,std::allocator<char> >,std::allocator<std::basic_string<char,std::char_traits<char>,std::allocator<char> > > >::_Tidy
; File D:\Metin2 Server Files\mainline\SRC_2014\Metin2Client\EterLib\Util.cpp

; 40   : 			return false;

  0012e	c6 45 fc 00	 mov	 BYTE PTR __$EHRec$[ebp+8], 0
  00132	8d 4d 8c	 lea	 ecx, DWORD PTR _textFileLoader$[ebp]
  00135	e8 00 00 00 00	 call	 ??1CMemoryTextFileLoader@@UAE@XZ ; CMemoryTextFileLoader::~CMemoryTextFileLoader
  0013a	83 4d fc ff	 or	 DWORD PTR __$EHRec$[ebp+8], -1
  0013e	8d 4d 00	 lea	 ecx, DWORD PTR _File$[ebp]
  00141	e8 00 00 00 00	 call	 ??1CMappedFile@@UAE@XZ	; CMappedFile::~CMappedFile
  00146	8a 45 f2	 mov	 al, BYTE PTR $T19[ebp]
  00149	e9 cb 00 00 00	 jmp	 $LN1@LoadTextDa
$LN7@LoadTextDa:
; File C:\Program Files (x86)\Microsoft Visual Studio\2019\Community\VC\Tools\MSVC\14.28.29333\include\vector

; 1498 :         auto& _My_data = _Mypair._Myval2;

  0014e	8d 45 d0	 lea	 eax, DWORD PTR _stTokenVector$[ebp]
  00151	89 45 bc	 mov	 DWORD PTR __My_data$11[ebp], eax

; 1499 : #if _CONTAINER_DEBUG_LEVEL > 0
; 1500 :         _STL_VERIFY(
; 1501 :             _Pos < static_cast<size_type>(_My_data._Mylast - _My_data._Myfirst), "vector subscript out of range");
; 1502 : #endif // _CONTAINER_DEBUG_LEVEL > 0
; 1503 : 
; 1504 :         return _My_data._Myfirst[_Pos];

  00154	33 c0		 xor	 eax, eax
  00156	6b c0 18	 imul	 eax, eax, 24
  00159	8b 4d bc	 mov	 ecx, DWORD PTR __My_data$11[ebp]
  0015c	03 01		 add	 eax, DWORD PTR [ecx]
  0015e	89 45 b8	 mov	 DWORD PTR $T10[ebp], eax
; File D:\Metin2 Server Files\mainline\SRC_2014\Metin2Client\EterLib\Util.cpp

; 42   : 		stl_lowers(stTokenVector[0]);

  00161	ff 75 b8	 push	 DWORD PTR $T10[ebp]
  00164	e8 00 00 00 00	 call	 ?stl_lowers@@YAXAAV?$basic_string@DU?$char_traits@D@std@@V?$allocator@D@2@@std@@@Z ; stl_lowers
  00169	59		 pop	 ecx
; File C:\Program Files (x86)\Microsoft Visual Studio\2019\Community\VC\Tools\MSVC\14.28.29333\include\vector

; 1498 :         auto& _My_data = _Mypair._Myval2;

  0016a	8d 45 d0	 lea	 eax, DWORD PTR _stTokenVector$[ebp]
  0016d	89 45 b4	 mov	 DWORD PTR __My_data$9[ebp], eax

; 1499 : #if _CONTAINER_DEBUG_LEVEL > 0
; 1500 :         _STL_VERIFY(
; 1501 :             _Pos < static_cast<size_type>(_My_data._Mylast - _My_data._Myfirst), "vector subscript out of range");
; 1502 : #endif // _CONTAINER_DEBUG_LEVEL > 0
; 1503 : 
; 1504 :         return _My_data._Myfirst[_Pos];

  00170	33 c0		 xor	 eax, eax
  00172	40		 inc	 eax
  00173	6b c0 18	 imul	 eax, eax, 24
  00176	8b 4d b4	 mov	 ecx, DWORD PTR __My_data$9[ebp]
  00179	03 01		 add	 eax, DWORD PTR [ecx]
  0017b	89 45 b0	 mov	 DWORD PTR $T8[ebp], eax
; File D:\Metin2 Server Files\mainline\SRC_2014\Metin2Client\EterLib\Util.cpp

; 43   : 		stl_lowers(stTokenVector[1]);

  0017e	ff 75 b0	 push	 DWORD PTR $T8[ebp]
  00181	e8 00 00 00 00	 call	 ?stl_lowers@@YAXAAV?$basic_string@DU?$char_traits@D@std@@V?$allocator@D@2@@std@@@Z ; stl_lowers
  00186	59		 pop	 ecx
; File C:\Program Files (x86)\Microsoft Visual Studio\2019\Community\VC\Tools\MSVC\14.28.29333\include\vector

; 1498 :         auto& _My_data = _Mypair._Myval2;

  00187	8d 45 d0	 lea	 eax, DWORD PTR _stTokenVector$[ebp]
  0018a	89 45 ac	 mov	 DWORD PTR __My_data$7[ebp], eax

; 1499 : #if _CONTAINER_DEBUG_LEVEL > 0
; 1500 :         _STL_VERIFY(
; 1501 :             _Pos < static_cast<size_type>(_My_data._Mylast - _My_data._Myfirst), "vector subscript out of range");
; 1502 : #endif // _CONTAINER_DEBUG_LEVEL > 0
; 1503 : 
; 1504 :         return _My_data._Myfirst[_Pos];

  0018d	33 c0		 xor	 eax, eax
  0018f	40		 inc	 eax
  00190	6b c0 18	 imul	 eax, eax, 24
  00193	8b 4d ac	 mov	 ecx, DWORD PTR __My_data$7[ebp]
  00196	03 01		 add	 eax, DWORD PTR [ecx]
  00198	89 45 e0	 mov	 DWORD PTR $T14[ebp], eax

; 1498 :         auto& _My_data = _Mypair._Myval2;

  0019b	8d 45 d0	 lea	 eax, DWORD PTR _stTokenVector$[ebp]
  0019e	89 45 a8	 mov	 DWORD PTR __My_data$6[ebp], eax

; 1499 : #if _CONTAINER_DEBUG_LEVEL > 0
; 1500 :         _STL_VERIFY(
; 1501 :             _Pos < static_cast<size_type>(_My_data._Mylast - _My_data._Myfirst), "vector subscript out of range");
; 1502 : #endif // _CONTAINER_DEBUG_LEVEL > 0
; 1503 : 
; 1504 :         return _My_data._Myfirst[_Pos];

  001a1	33 c0		 xor	 eax, eax
  001a3	6b c0 18	 imul	 eax, eax, 24
  001a6	8b 4d a8	 mov	 ecx, DWORD PTR __My_data$6[ebp]
  001a9	03 01		 add	 eax, DWORD PTR [ecx]
  001ab	89 45 a4	 mov	 DWORD PTR $T5[ebp], eax
; File C:\Program Files (x86)\Microsoft Visual Studio\2019\Community\VC\Tools\MSVC\14.28.29333\include\map

; 325  :         return _Try_emplace(_Keyval).first->_Myval.second;

  001ae	ff 75 a4	 push	 DWORD PTR $T5[ebp]
  001b1	8d 45 84	 lea	 eax, DWORD PTR $T2[ebp]
  001b4	50		 push	 eax
  001b5	8b 8d 54 01 00
	00		 mov	 ecx, DWORD PTR _rstTokenMap$[ebp]
  001bb	e8 00 00 00 00	 call	 ??$_Try_emplace@ABV?$basic_string@DU?$char_traits@D@std@@V?$allocator@D@2@@std@@$$V@?$map@V?$basic_string@DU?$char_traits@D@std@@V?$allocator@D@2@@std@@V12@U?$less@V?$basic_string@DU?$char_traits@D@std@@V?$allocator@D@2@@std@@@2@V?$allocator@U?$pair@$$CBV?$basic_string@DU?$char_traits@D@std@@V?$allocator@D@2@@std@@V12@@std@@@2@@std@@AAE?AU?$pair@PAU?$_Tree_node@U?$pair@$$CBV?$basic_string@DU?$char_traits@D@std@@V?$allocator@D@2@@std@@V12@@std@@PAX@std@@_N@1@ABV?$basic_string@DU?$char_traits@D@std@@V?$allocator@D@2@@1@@Z ; std::map<std::basic_string<char,std::char_traits<char>,std::allocator<char> >,std::basic_string<char,std::char_traits<char>,std::allocator<char> >,std::less<std::basic_string<char,std::char_traits<char>,std::allocator<char> > >,std::allocator<std::pair<std::basic_string<char,std::char_traits<char>,std::allocator<char> > const ,std::basic_string<char,std::char_traits<char>,std::allocator<char> > > > >::_Try_emplace<std::basic_string<char,std::char_traits<char>,std::allocator<char> > const &>
  001c0	8b 00		 mov	 eax, DWORD PTR [eax]
  001c2	83 c0 28	 add	 eax, 40			; 00000028H
; File D:\Metin2 Server Files\mainline\SRC_2014\Metin2Client\EterLib\Util.cpp

; 45   : 		rstTokenMap[stTokenVector[0]] = stTokenVector[1];

  001c5	89 45 dc	 mov	 DWORD PTR _this$[ebp], eax
; File C:\Program Files (x86)\Microsoft Visual Studio\2019\Community\VC\Tools\MSVC\14.28.29333\include\xstddef

; 275  :     return __builtin_addressof(_Val);

  001c8	8b 45 e0	 mov	 eax, DWORD PTR $T14[ebp]
  001cb	89 45 a0	 mov	 DWORD PTR $T4[ebp], eax
; File C:\Program Files (x86)\Microsoft Visual Studio\2019\Community\VC\Tools\MSVC\14.28.29333\include\xstring

; 2863 :         if (this != _STD addressof(_Right)) {

  001ce	8b 45 dc	 mov	 eax, DWORD PTR _this$[ebp]
  001d1	3b 45 a0	 cmp	 eax, DWORD PTR $T4[ebp]
  001d4	74 13		 je	 SHORT $LN72@LoadTextDa

; 2864 :             _Copy_assign(_Right, _Choose_pocca<_Alty>{});

  001d6	33 c0		 xor	 eax, eax
  001d8	88 45 9c	 mov	 BYTE PTR $T3[ebp], al
  001db	ff 75 9c	 push	 DWORD PTR $T3[ebp]
  001de	ff 75 e0	 push	 DWORD PTR $T14[ebp]
  001e1	8b 4d dc	 mov	 ecx, DWORD PTR _this$[ebp]
  001e4	e8 00 00 00 00	 call	 ?_Copy_assign@?$basic_string@DU?$char_traits@D@std@@V?$allocator@D@2@@std@@AAEXABV12@U?$integral_constant@_N$0A@@2@@Z ; std::basic_string<char,std::char_traits<char>,std::allocator<char> >::_Copy_assign
$LN72@LoadTextDa:
; File D:\Metin2 Server Files\mainline\SRC_2014\Metin2Client\EterLib\Util.cpp

; 46   : 	}

  001e9	e9 db fe ff ff	 jmp	 $LN2@LoadTextDa
$LN3@LoadTextDa:

; 48   : 	return true;

  001ee	c6 45 f1 01	 mov	 BYTE PTR $T18[ebp], 1
  001f2	c6 45 fc 01	 mov	 BYTE PTR __$EHRec$[ebp+8], 1
; File C:\Program Files (x86)\Microsoft Visual Studio\2019\Community\VC\Tools\MSVC\14.28.29333\include\vector

; 673  :         _Tidy();

  001f6	8d 4d d0	 lea	 ecx, DWORD PTR _stTokenVector$[ebp]
  001f9	e8 00 00 00 00	 call	 ?_Tidy@?$vector@V?$basic_string@DU?$char_traits@D@std@@V?$allocator@D@2@@std@@V?$allocator@V?$basic_string@DU?$char_traits@D@std@@V?$allocator@D@2@@std@@@2@@std@@AAEXXZ ; std::vector<std::basic_string<char,std::char_traits<char>,std::allocator<char> >,std::allocator<std::basic_string<char,std::char_traits<char>,std::allocator<char> > > >::_Tidy
; File D:\Metin2 Server Files\mainline\SRC_2014\Metin2Client\EterLib\Util.cpp

; 48   : 	return true;

  001fe	c6 45 fc 00	 mov	 BYTE PTR __$EHRec$[ebp+8], 0
  00202	8d 4d 8c	 lea	 ecx, DWORD PTR _textFileLoader$[ebp]
  00205	e8 00 00 00 00	 call	 ??1CMemoryTextFileLoader@@UAE@XZ ; CMemoryTextFileLoader::~CMemoryTextFileLoader
  0020a	83 4d fc ff	 or	 DWORD PTR __$EHRec$[ebp+8], -1
  0020e	8d 4d 00	 lea	 ecx, DWORD PTR _File$[ebp]
  00211	e8 00 00 00 00	 call	 ??1CMappedFile@@UAE@XZ	; CMappedFile::~CMappedFile
  00216	8a 45 f1	 mov	 al, BYTE PTR $T18[ebp]
$LN1@LoadTextDa:

; 49   : }

  00219	8b 4d f4	 mov	 ecx, DWORD PTR __$EHRec$[ebp]
  0021c	64 89 0d 00 00
	00 00		 mov	 DWORD PTR fs:0, ecx
  00223	59		 pop	 ecx
  00224	8b 8d 44 01 00
	00		 mov	 ecx, DWORD PTR __$ArrayPad$[ebp]
  0022a	33 cd		 xor	 ecx, ebp
  0022c	e8 00 00 00 00	 call	 @__security_check_cookie@4
  00231	81 c5 48 01 00
	00		 add	 ebp, 328		; 00000148H
  00237	c9		 leave
  00238	c3		 ret	 0
_TEXT	ENDS
;	COMDAT text$x
text$x	SEGMENT
__unwindfunclet$?LoadTextData@@YA_NPBDAAV?$map@V?$basic_string@DU?$char_traits@D@std@@V?$allocator@D@2@@std@@V12@U?$less@V?$basic_string@DU?$char_traits@D@std@@V?$allocator@D@2@@std@@@2@V?$allocator@U?$pair@$$CBV?$basic_string@DU?$char_traits@D@std@@V?$allocator@D@2@@std@@V12@@std@@@2@@std@@@Z$0:
  00000	8d 4d 00	 lea	 ecx, DWORD PTR _File$[ebp]
  00003	e9 00 00 00 00	 jmp	 ??1CMappedFile@@UAE@XZ	; CMappedFile::~CMappedFile
__unwindfunclet$?LoadTextData@@YA_NPBDAAV?$map@V?$basic_string@DU?$char_traits@D@std@@V?$allocator@D@2@@std@@V12@U?$less@V?$basic_string@DU?$char_traits@D@std@@V?$allocator@D@2@@std@@@2@V?$allocator@U?$pair@$$CBV?$basic_string@DU?$char_traits@D@std@@V?$allocator@D@2@@std@@V12@@std@@@2@@std@@@Z$1:
  00008	8d 4d 8c	 lea	 ecx, DWORD PTR _textFileLoader$[ebp]
  0000b	e9 00 00 00 00	 jmp	 ??1CMemoryTextFileLoader@@UAE@XZ ; CMemoryTextFileLoader::~CMemoryTextFileLoader
__unwindfunclet$?LoadTextData@@YA_NPBDAAV?$map@V?$basic_string@DU?$char_traits@D@std@@V?$allocator@D@2@@std@@V12@U?$less@V?$basic_string@DU?$char_traits@D@std@@V?$allocator@D@2@@std@@@2@V?$allocator@U?$pair@$$CBV?$basic_string@DU?$char_traits@D@std@@V?$allocator@D@2@@std@@V12@@std@@@2@@std@@@Z$2:
  00010	8d 4d d0	 lea	 ecx, DWORD PTR _stTokenVector$[ebp]
  00013	e9 00 00 00 00	 jmp	 ??1?$vector@V?$basic_string@DU?$char_traits@D@std@@V?$allocator@D@2@@std@@V?$allocator@V?$basic_string@DU?$char_traits@D@std@@V?$allocator@D@2@@std@@@2@@std@@QAE@XZ ; std::vector<std::basic_string<char,std::char_traits<char>,std::allocator<char> >,std::allocator<std::basic_string<char,std::char_traits<char>,std::allocator<char> > > >::~vector<std::basic_string<char,std::char_traits<char>,std::allocator<char> >,std::allocator<std::basic_string<char,std::char_traits<char>,std::allocator<char> > > >
  00018	cc		 int	 3
  00019	cc		 int	 3
  0001a	cc		 int	 3
  0001b	cc		 int	 3
  0001c	cc		 int	 3
__ehhandler$?LoadTextData@@YA_NPBDAAV?$map@V?$basic_string@DU?$char_traits@D@std@@V?$allocator@D@2@@std@@V12@U?$less@V?$basic_string@DU?$char_traits@D@std@@V?$allocator@D@2@@std@@@2@V?$allocator@U?$pair@$$CBV?$basic_string@DU?$char_traits@D@std@@V?$allocator@D@2@@std@@V12@@std@@@2@@std@@@Z:
  0001d	90		 npad	 1
  0001e	90		 npad	 1
  0001f	8b 54 24 08	 mov	 edx, DWORD PTR [esp+8]
  00023	8d 42 0c	 lea	 eax, DWORD PTR [edx+12]
  00026	8b 4a 8c	 mov	 ecx, DWORD PTR [edx-116]
  00029	33 c8		 xor	 ecx, eax
  0002b	e8 00 00 00 00	 call	 @__security_check_cookie@4
  00030	8b 8a 50 01 00
	00		 mov	 ecx, DWORD PTR [edx+336]
  00036	33 c8		 xor	 ecx, eax
  00038	e8 00 00 00 00	 call	 @__security_check_cookie@4
  0003d	b8 00 00 00 00	 mov	 eax, OFFSET __ehfuncinfo$?LoadTextData@@YA_NPBDAAV?$map@V?$basic_string@DU?$char_traits@D@std@@V?$allocator@D@2@@std@@V12@U?$less@V?$basic_string@DU?$char_traits@D@std@@V?$allocator@D@2@@std@@@2@V?$allocator@U?$pair@$$CBV?$basic_string@DU?$char_traits@D@std@@V?$allocator@D@2@@std@@V12@@std@@@2@@std@@@Z
  00042	e9 00 00 00 00	 jmp	 ___CxxFrameHandler3
text$x	ENDS
?LoadTextData@@YA_NPBDAAV?$map@V?$basic_string@DU?$char_traits@D@std@@V?$allocator@D@2@@std@@V12@U?$less@V?$basic_string@DU?$char_traits@D@std@@V?$allocator@D@2@@std@@@2@V?$allocator@U?$pair@$$CBV?$basic_string@DU?$char_traits@D@std@@V?$allocator@D@2@@std@@V12@@std@@@2@@std@@@Z ENDP ; LoadTextData
; Function compile flags: /Odspy
; File D:\Metin2 Server Files\mainline\SRC_2014\Metin2Client\EterLib\Util.cpp
; File C:\Program Files (x86)\Windows Kits\10\Include\10.0.18362.0\ucrt\stdio.h
; File D:\Metin2 Server Files\mainline\SRC_2014\Metin2Client\EterLib\Util.cpp
;	COMDAT ?PrintfTabs@@YAXPAU_iobuf@@HPBDZZ
_TEXT	SEGMENT
tv91 = -20						; size = 4
__Format$ = -16						; size = 4
_args$ = -12						; size = 4
__Result$1 = -8						; size = 4
_i$2 = -4						; size = 4
_File$ = 8						; size = 4
_iTabCount$ = 12					; size = 4
_c_szString$ = 16					; size = 4
?PrintfTabs@@YAXPAU_iobuf@@HPBDZZ PROC			; PrintfTabs, COMDAT

; 7    : {

  00000	55		 push	 ebp
  00001	8b ec		 mov	 ebp, esp
  00003	83 ec 14	 sub	 esp, 20			; 00000014H

; 8    : 	va_list args;
; 9    : 	va_start(args, c_szString);

  00006	8d 45 14	 lea	 eax, DWORD PTR _c_szString$[ebp+4]
  00009	89 45 f4	 mov	 DWORD PTR _args$[ebp], eax

; 10   : 
; 11   : 	static char szBuf[1024];
; 12   : 	_vsnprintf(szBuf, sizeof(szBuf), c_szString, args);

  0000c	8b 45 10	 mov	 eax, DWORD PTR _c_szString$[ebp]
  0000f	89 45 f0	 mov	 DWORD PTR __Format$[ebp], eax
; File C:\Program Files (x86)\Windows Kits\10\Include\10.0.18362.0\ucrt\stdio.h

; 1390 :         int const _Result = __stdio_common_vsprintf(

  00012	ff 75 f4	 push	 DWORD PTR _args$[ebp]
  00015	6a 00		 push	 0
  00017	ff 75 f0	 push	 DWORD PTR __Format$[ebp]
  0001a	68 00 04 00 00	 push	 1024			; 00000400H
  0001f	68 00 00 00 00	 push	 OFFSET ?szBuf@?1??PrintfTabs@@YAXPAU_iobuf@@HPBDZZ@4PADA
  00024	e8 00 00 00 00	 call	 ___local_stdio_printf_options
  00029	8b 08		 mov	 ecx, DWORD PTR [eax]
  0002b	83 c9 01	 or	 ecx, 1
  0002e	8b 40 04	 mov	 eax, DWORD PTR [eax+4]
  00031	50		 push	 eax
  00032	51		 push	 ecx
  00033	e8 00 00 00 00	 call	 ___stdio_common_vsprintf
  00038	83 c4 1c	 add	 esp, 28			; 0000001cH
  0003b	89 45 f8	 mov	 DWORD PTR __Result$1[ebp], eax

; 1391 :             _CRT_INTERNAL_LOCAL_PRINTF_OPTIONS | _CRT_INTERNAL_PRINTF_LEGACY_VSPRINTF_NULL_TERMINATION,
; 1392 :             _Buffer, _BufferCount, _Format, _Locale, _ArgList);
; 1393 : 
; 1394 :         return _Result < 0 ? -1 : _Result;

  0003e	83 7d f8 00	 cmp	 DWORD PTR __Result$1[ebp], 0
  00042	7d 06		 jge	 SHORT $LN10@PrintfTabs
  00044	83 4d ec ff	 or	 DWORD PTR tv91[ebp], -1
  00048	eb 06		 jmp	 SHORT $LN6@PrintfTabs
$LN10@PrintfTabs:
  0004a	8b 45 f8	 mov	 eax, DWORD PTR __Result$1[ebp]
  0004d	89 45 ec	 mov	 DWORD PTR tv91[ebp], eax
$LN6@PrintfTabs:
; File D:\Metin2 Server Files\mainline\SRC_2014\Metin2Client\EterLib\Util.cpp

; 13   : 	va_end(args);

  00050	83 65 f4 00	 and	 DWORD PTR _args$[ebp], 0

; 14   : 
; 15   : 	for (int i = 0; i < iTabCount; ++i)

  00054	83 65 fc 00	 and	 DWORD PTR _i$2[ebp], 0
  00058	eb 07		 jmp	 SHORT $LN4@PrintfTabs
$LN2@PrintfTabs:
  0005a	8b 45 fc	 mov	 eax, DWORD PTR _i$2[ebp]
  0005d	40		 inc	 eax
  0005e	89 45 fc	 mov	 DWORD PTR _i$2[ebp], eax
$LN4@PrintfTabs:
  00061	8b 45 fc	 mov	 eax, DWORD PTR _i$2[ebp]
  00064	3b 45 0c	 cmp	 eax, DWORD PTR _iTabCount$[ebp]
  00067	7d 11		 jge	 SHORT $LN3@PrintfTabs

; 16   : 		fprintf(File, "    ");

  00069	68 00 00 00 00	 push	 OFFSET ??_C@_04PFOHOKJK@?5?5?5?5@
  0006e	ff 75 08	 push	 DWORD PTR _File$[ebp]
  00071	e8 00 00 00 00	 call	 _fprintf
  00076	59		 pop	 ecx
  00077	59		 pop	 ecx
  00078	eb e0		 jmp	 SHORT $LN2@PrintfTabs
$LN3@PrintfTabs:

; 17   : 
; 18   : 	fprintf(File, szBuf);

  0007a	68 00 00 00 00	 push	 OFFSET ?szBuf@?1??PrintfTabs@@YAXPAU_iobuf@@HPBDZZ@4PADA
  0007f	ff 75 08	 push	 DWORD PTR _File$[ebp]
  00082	e8 00 00 00 00	 call	 _fprintf
  00087	59		 pop	 ecx
  00088	59		 pop	 ecx

; 19   : }

  00089	c9		 leave
  0008a	c3		 ret	 0
?PrintfTabs@@YAXPAU_iobuf@@HPBDZZ ENDP			; PrintfTabs
_TEXT	ENDS
; Function compile flags: /Odspy
; File C:\Program Files (x86)\Microsoft Visual Studio\2019\Community\VC\Tools\MSVC\14.28.29333\include\vector
;	COMDAT ??0?$_Vector_val@U?$_Simple_types@V?$basic_string@DU?$char_traits@D@std@@V?$allocator@D@2@@std@@@std@@@std@@QAE@XZ
_TEXT	SEGMENT
_this$ = -4						; size = 4
??0?$_Vector_val@U?$_Simple_types@V?$basic_string@DU?$char_traits@D@std@@V?$allocator@D@2@@std@@@std@@@std@@QAE@XZ PROC ; std::_Vector_val<std::_Simple_types<std::basic_string<char,std::char_traits<char>,std::allocator<char> > > >::_Vector_val<std::_Simple_types<std::basic_string<char,std::char_traits<char>,std::allocator<char> > > >, COMDAT
; _this$ = ecx

; 375  :     _Vector_val() noexcept : _Myfirst(), _Mylast(), _Myend() {}

  00000	55		 push	 ebp
  00001	8b ec		 mov	 ebp, esp
  00003	51		 push	 ecx
  00004	89 4d fc	 mov	 DWORD PTR _this$[ebp], ecx
  00007	8b 45 fc	 mov	 eax, DWORD PTR _this$[ebp]
  0000a	83 20 00	 and	 DWORD PTR [eax], 0
  0000d	8b 45 fc	 mov	 eax, DWORD PTR _this$[ebp]
  00010	83 60 04 00	 and	 DWORD PTR [eax+4], 0
  00014	8b 45 fc	 mov	 eax, DWORD PTR _this$[ebp]
  00017	83 60 08 00	 and	 DWORD PTR [eax+8], 0
  0001b	8b 45 fc	 mov	 eax, DWORD PTR _this$[ebp]
  0001e	c9		 leave
  0001f	c3		 ret	 0
??0?$_Vector_val@U?$_Simple_types@V?$basic_string@DU?$char_traits@D@std@@V?$allocator@D@2@@std@@@std@@@std@@QAE@XZ ENDP ; std::_Vector_val<std::_Simple_types<std::basic_string<char,std::char_traits<char>,std::allocator<char> > > >::_Vector_val<std::_Simple_types<std::basic_string<char,std::char_traits<char>,std::allocator<char> > > >
_TEXT	ENDS
; Function compile flags: /Odspy
; File C:\Program Files (x86)\Microsoft Visual Studio\2019\Community\VC\Tools\MSVC\14.28.29333\include\vector
;	COMDAT ?_Xlength@?$vector@V?$basic_string@DU?$char_traits@D@std@@V?$allocator@D@2@@std@@V?$allocator@V?$basic_string@DU?$char_traits@D@std@@V?$allocator@D@2@@std@@@2@@std@@CAXXZ
_TEXT	SEGMENT
?_Xlength@?$vector@V?$basic_string@DU?$char_traits@D@std@@V?$allocator@D@2@@std@@V?$allocator@V?$basic_string@DU?$char_traits@D@std@@V?$allocator@D@2@@std@@@2@@std@@CAXXZ PROC ; std::vector<std::basic_string<char,std::char_traits<char>,std::allocator<char> >,std::allocator<std::basic_string<char,std::char_traits<char>,std::allocator<char> > > >::_Xlength, COMDAT

; 1704 :     [[noreturn]] static void _Xlength() {

  00000	55		 push	 ebp
  00001	8b ec		 mov	 ebp, esp

; 1705 :         _Xlength_error("vector too long");

  00003	68 00 00 00 00	 push	 OFFSET ??_C@_0BA@FOIKENOD@vector?5too?5long@
  00008	e8 00 00 00 00	 call	 ?_Xlength_error@std@@YAXPBD@Z ; std::_Xlength_error
$LN2@Xlength:

; 1706 :     }

  0000d	5d		 pop	 ebp
  0000e	c3		 ret	 0
?_Xlength@?$vector@V?$basic_string@DU?$char_traits@D@std@@V?$allocator@D@2@@std@@V?$allocator@V?$basic_string@DU?$char_traits@D@std@@V?$allocator@D@2@@std@@@2@@std@@CAXXZ ENDP ; std::vector<std::basic_string<char,std::char_traits<char>,std::allocator<char> >,std::allocator<std::basic_string<char,std::char_traits<char>,std::allocator<char> > > >::_Xlength
_TEXT	ENDS
; Function compile flags: /Odspy
; File C:\Program Files (x86)\Microsoft Visual Studio\2019\Community\VC\Tools\MSVC\14.28.29333\include\vector
; File C:\Program Files (x86)\Microsoft Visual Studio\2019\Community\VC\Tools\MSVC\14.28.29333\include\xmemory
; File C:\Program Files (x86)\Microsoft Visual Studio\2019\Community\VC\Tools\MSVC\14.28.29333\include\vector
; File C:\Program Files (x86)\Microsoft Visual Studio\2019\Community\VC\Tools\MSVC\14.28.29333\include\xmemory
; File C:\Program Files (x86)\Microsoft Visual Studio\2019\Community\VC\Tools\MSVC\14.28.29333\include\vector
; File C:\Program Files (x86)\Microsoft Visual Studio\2019\Community\VC\Tools\MSVC\14.28.29333\include\xmemory
; File C:\Program Files (x86)\Microsoft Visual Studio\2019\Community\VC\Tools\MSVC\14.28.29333\include\vector
;	COMDAT ?_Tidy@?$vector@V?$basic_string@DU?$char_traits@D@std@@V?$allocator@D@2@@std@@V?$allocator@V?$basic_string@DU?$char_traits@D@std@@V?$allocator@D@2@@std@@@2@@std@@AAEXXZ
_TEXT	SEGMENT
$T1 = -52						; size = 4
__Ptr$ = -48						; size = 4
__Count$ = -44						; size = 4
$T2 = -40						; size = 4
__First$ = -36						; size = 4
__Last$ = -32						; size = 4
$T3 = -28						; size = 4
$T4 = -24						; size = 4
__Myend$ = -20						; size = 4
__Mylast$ = -16						; size = 4
_this$ = -12						; size = 4
__My_data$ = -8						; size = 4
__Myfirst$ = -4						; size = 4
?_Tidy@?$vector@V?$basic_string@DU?$char_traits@D@std@@V?$allocator@D@2@@std@@V?$allocator@V?$basic_string@DU?$char_traits@D@std@@V?$allocator@D@2@@std@@@2@@std@@AAEXXZ PROC ; std::vector<std::basic_string<char,std::char_traits<char>,std::allocator<char> >,std::allocator<std::basic_string<char,std::char_traits<char>,std::allocator<char> > > >::_Tidy, COMDAT
; _this$ = ecx

; 1686 :     void _Tidy() noexcept { // free all storage

  00000	55		 push	 ebp
  00001	8b ec		 mov	 ebp, esp
  00003	83 ec 34	 sub	 esp, 52			; 00000034H
  00006	89 4d f4	 mov	 DWORD PTR _this$[ebp], ecx

; 1687 :         auto& _My_data    = _Mypair._Myval2;

  00009	8b 45 f4	 mov	 eax, DWORD PTR _this$[ebp]
  0000c	89 45 f8	 mov	 DWORD PTR __My_data$[ebp], eax

; 1688 :         pointer& _Myfirst = _My_data._Myfirst;

  0000f	8b 45 f8	 mov	 eax, DWORD PTR __My_data$[ebp]
  00012	89 45 fc	 mov	 DWORD PTR __Myfirst$[ebp], eax

; 1689 :         pointer& _Mylast  = _My_data._Mylast;

  00015	8b 45 f8	 mov	 eax, DWORD PTR __My_data$[ebp]
  00018	83 c0 04	 add	 eax, 4
  0001b	89 45 f0	 mov	 DWORD PTR __Mylast$[ebp], eax

; 1690 :         pointer& _Myend   = _My_data._Myend;

  0001e	8b 45 f8	 mov	 eax, DWORD PTR __My_data$[ebp]
  00021	83 c0 08	 add	 eax, 8
  00024	89 45 ec	 mov	 DWORD PTR __Myend$[ebp], eax

; 1691 : 
; 1692 :         _My_data._Orphan_all();
; 1693 : 
; 1694 :         if (_Myfirst) { // destroy and deallocate old array

  00027	8b 45 fc	 mov	 eax, DWORD PTR __Myfirst$[ebp]
  0002a	83 38 00	 cmp	 DWORD PTR [eax], 0
  0002d	74 75		 je	 SHORT $LN3@Tidy

; 1695 :             _Destroy(_Myfirst, _Mylast);

  0002f	8b 45 f0	 mov	 eax, DWORD PTR __Mylast$[ebp]
  00032	8b 00		 mov	 eax, DWORD PTR [eax]
  00034	89 45 e0	 mov	 DWORD PTR __Last$[ebp], eax
  00037	8b 45 fc	 mov	 eax, DWORD PTR __Myfirst$[ebp]
  0003a	8b 00		 mov	 eax, DWORD PTR [eax]
  0003c	89 45 dc	 mov	 DWORD PTR __First$[ebp], eax

; 1733 :         return _Mypair._Get_first();

  0003f	8b 45 f4	 mov	 eax, DWORD PTR _this$[ebp]
; File C:\Program Files (x86)\Microsoft Visual Studio\2019\Community\VC\Tools\MSVC\14.28.29333\include\xmemory

; 1347 :         return *this;

  00042	89 45 e8	 mov	 DWORD PTR $T4[ebp], eax
; File C:\Program Files (x86)\Microsoft Visual Studio\2019\Community\VC\Tools\MSVC\14.28.29333\include\vector

; 1733 :         return _Mypair._Get_first();

  00045	8b 45 e8	 mov	 eax, DWORD PTR $T4[ebp]
  00048	89 45 e4	 mov	 DWORD PTR $T3[ebp], eax

; 1612 :         _Destroy_range(_First, _Last, _Getal());

  0004b	ff 75 e4	 push	 DWORD PTR $T3[ebp]
  0004e	ff 75 e0	 push	 DWORD PTR __Last$[ebp]
  00051	ff 75 dc	 push	 DWORD PTR __First$[ebp]
  00054	e8 00 00 00 00	 call	 ??$_Destroy_range@V?$allocator@V?$basic_string@DU?$char_traits@D@std@@V?$allocator@D@2@@std@@@std@@@std@@YAXPAV?$basic_string@DU?$char_traits@D@std@@V?$allocator@D@2@@0@QAV10@AAV?$allocator@V?$basic_string@DU?$char_traits@D@std@@V?$allocator@D@2@@std@@@0@@Z ; std::_Destroy_range<std::allocator<std::basic_string<char,std::char_traits<char>,std::allocator<char> > > >
  00059	83 c4 0c	 add	 esp, 12			; 0000000cH

; 1733 :         return _Mypair._Get_first();

  0005c	8b 45 f4	 mov	 eax, DWORD PTR _this$[ebp]
; File C:\Program Files (x86)\Microsoft Visual Studio\2019\Community\VC\Tools\MSVC\14.28.29333\include\xmemory

; 1347 :         return *this;

  0005f	89 45 d8	 mov	 DWORD PTR $T2[ebp], eax
; File C:\Program Files (x86)\Microsoft Visual Studio\2019\Community\VC\Tools\MSVC\14.28.29333\include\vector

; 1733 :         return _Mypair._Get_first();

  00062	8b 45 d8	 mov	 eax, DWORD PTR $T2[ebp]
  00065	89 45 cc	 mov	 DWORD PTR $T1[ebp], eax

; 1696 :             _Getal().deallocate(_Myfirst, static_cast<size_type>(_Myend - _Myfirst));

  00068	8b 45 ec	 mov	 eax, DWORD PTR __Myend$[ebp]
  0006b	8b 4d fc	 mov	 ecx, DWORD PTR __Myfirst$[ebp]
  0006e	8b 00		 mov	 eax, DWORD PTR [eax]
  00070	2b 01		 sub	 eax, DWORD PTR [ecx]
  00072	99		 cdq
  00073	6a 18		 push	 24			; 00000018H
  00075	59		 pop	 ecx
  00076	f7 f9		 idiv	 ecx
  00078	89 45 d4	 mov	 DWORD PTR __Count$[ebp], eax
  0007b	8b 45 fc	 mov	 eax, DWORD PTR __Myfirst$[ebp]
  0007e	8b 00		 mov	 eax, DWORD PTR [eax]
  00080	89 45 d0	 mov	 DWORD PTR __Ptr$[ebp], eax
; File C:\Program Files (x86)\Microsoft Visual Studio\2019\Community\VC\Tools\MSVC\14.28.29333\include\xmemory

; 810  :         _Deallocate<_New_alignof<_Ty>>(_Ptr, sizeof(_Ty) * _Count);

  00083	6b 45 d4 18	 imul	 eax, DWORD PTR __Count$[ebp], 24
  00087	50		 push	 eax
  00088	ff 75 d0	 push	 DWORD PTR __Ptr$[ebp]
  0008b	e8 00 00 00 00	 call	 ??$_Deallocate@$07$0A@@std@@YAXPAXI@Z ; std::_Deallocate<8,0>
  00090	59		 pop	 ecx
  00091	59		 pop	 ecx
; File C:\Program Files (x86)\Microsoft Visual Studio\2019\Community\VC\Tools\MSVC\14.28.29333\include\vector

; 1698 :             _Myfirst = pointer();

  00092	8b 45 fc	 mov	 eax, DWORD PTR __Myfirst$[ebp]
  00095	83 20 00	 and	 DWORD PTR [eax], 0

; 1699 :             _Mylast  = pointer();

  00098	8b 45 f0	 mov	 eax, DWORD PTR __Mylast$[ebp]
  0009b	83 20 00	 and	 DWORD PTR [eax], 0

; 1700 :             _Myend   = pointer();

  0009e	8b 45 ec	 mov	 eax, DWORD PTR __Myend$[ebp]
  000a1	83 20 00	 and	 DWORD PTR [eax], 0
$LN3@Tidy:

; 1701 :         }
; 1702 :     }

  000a4	c9		 leave
  000a5	c3		 ret	 0
?_Tidy@?$vector@V?$basic_string@DU?$char_traits@D@std@@V?$allocator@D@2@@std@@V?$allocator@V?$basic_string@DU?$char_traits@D@std@@V?$allocator@D@2@@std@@@2@@std@@AAEXXZ ENDP ; std::vector<std::basic_string<char,std::char_traits<char>,std::allocator<char> >,std::allocator<std::basic_string<char,std::char_traits<char>,std::allocator<char> > > >::_Tidy
_TEXT	ENDS
; Function compile flags: /Odspy
; File C:\Program Files (x86)\Microsoft Visual Studio\2019\Community\VC\Tools\MSVC\14.28.29333\include\vector
; File C:\Program Files (x86)\Microsoft Visual Studio\2019\Community\VC\Tools\MSVC\14.28.29333\include\xmemory
; File C:\Program Files (x86)\Microsoft Visual Studio\2019\Community\VC\Tools\MSVC\14.28.29333\include\vector
; File C:\Program Files (x86)\Microsoft Visual Studio\2019\Community\VC\Tools\MSVC\14.28.29333\include\xmemory
; File C:\Program Files (x86)\Microsoft Visual Studio\2019\Community\VC\Tools\MSVC\14.28.29333\include\vector
; File C:\Program Files (x86)\Microsoft Visual Studio\2019\Community\VC\Tools\MSVC\14.28.29333\include\xmemory
; File C:\Program Files (x86)\Microsoft Visual Studio\2019\Community\VC\Tools\MSVC\14.28.29333\include\vector
;	COMDAT ?_Change_array@?$vector@V?$basic_string@DU?$char_traits@D@std@@V?$allocator@D@2@@std@@V?$allocator@V?$basic_string@DU?$char_traits@D@std@@V?$allocator@D@2@@std@@@2@@std@@AAEXQAV?$basic_string@DU?$char_traits@D@std@@V?$allocator@D@2@@2@II@Z
_TEXT	SEGMENT
$T1 = -52						; size = 4
__Ptr$ = -48						; size = 4
__Count$ = -44						; size = 4
$T2 = -40						; size = 4
__First$ = -36						; size = 4
__Last$ = -32						; size = 4
$T3 = -28						; size = 4
$T4 = -24						; size = 4
__Myend$ = -20						; size = 4
__Mylast$ = -16						; size = 4
_this$ = -12						; size = 4
__My_data$ = -8						; size = 4
__Myfirst$ = -4						; size = 4
__Newvec$ = 8						; size = 4
__Newsize$ = 12						; size = 4
__Newcapacity$ = 16					; size = 4
?_Change_array@?$vector@V?$basic_string@DU?$char_traits@D@std@@V?$allocator@D@2@@std@@V?$allocator@V?$basic_string@DU?$char_traits@D@std@@V?$allocator@D@2@@std@@@2@@std@@AAEXQAV?$basic_string@DU?$char_traits@D@std@@V?$allocator@D@2@@2@II@Z PROC ; std::vector<std::basic_string<char,std::char_traits<char>,std::allocator<char> >,std::allocator<std::basic_string<char,std::char_traits<char>,std::allocator<char> > > >::_Change_array, COMDAT
; _this$ = ecx

; 1667 :     void _Change_array(const pointer _Newvec, const size_type _Newsize, const size_type _Newcapacity) {

  00000	55		 push	 ebp
  00001	8b ec		 mov	 ebp, esp
  00003	83 ec 34	 sub	 esp, 52			; 00000034H
  00006	89 4d f4	 mov	 DWORD PTR _this$[ebp], ecx

; 1668 :         // orphan all iterators, discard old array, acquire new array
; 1669 :         auto& _My_data    = _Mypair._Myval2;

  00009	8b 45 f4	 mov	 eax, DWORD PTR _this$[ebp]
  0000c	89 45 f8	 mov	 DWORD PTR __My_data$[ebp], eax

; 1670 :         pointer& _Myfirst = _My_data._Myfirst;

  0000f	8b 45 f8	 mov	 eax, DWORD PTR __My_data$[ebp]
  00012	89 45 fc	 mov	 DWORD PTR __Myfirst$[ebp], eax

; 1671 :         pointer& _Mylast  = _My_data._Mylast;

  00015	8b 45 f8	 mov	 eax, DWORD PTR __My_data$[ebp]
  00018	83 c0 04	 add	 eax, 4
  0001b	89 45 f0	 mov	 DWORD PTR __Mylast$[ebp], eax

; 1672 :         pointer& _Myend   = _My_data._Myend;

  0001e	8b 45 f8	 mov	 eax, DWORD PTR __My_data$[ebp]
  00021	83 c0 08	 add	 eax, 8
  00024	89 45 ec	 mov	 DWORD PTR __Myend$[ebp], eax

; 1673 : 
; 1674 :         _My_data._Orphan_all();
; 1675 : 
; 1676 :         if (_Myfirst) { // destroy and deallocate old array

  00027	8b 45 fc	 mov	 eax, DWORD PTR __Myfirst$[ebp]
  0002a	83 38 00	 cmp	 DWORD PTR [eax], 0
  0002d	74 63		 je	 SHORT $LN2@Change_arr

; 1677 :             _Destroy(_Myfirst, _Mylast);

  0002f	8b 45 f0	 mov	 eax, DWORD PTR __Mylast$[ebp]
  00032	8b 00		 mov	 eax, DWORD PTR [eax]
  00034	89 45 e0	 mov	 DWORD PTR __Last$[ebp], eax
  00037	8b 45 fc	 mov	 eax, DWORD PTR __Myfirst$[ebp]
  0003a	8b 00		 mov	 eax, DWORD PTR [eax]
  0003c	89 45 dc	 mov	 DWORD PTR __First$[ebp], eax

; 1733 :         return _Mypair._Get_first();

  0003f	8b 45 f4	 mov	 eax, DWORD PTR _this$[ebp]
; File C:\Program Files (x86)\Microsoft Visual Studio\2019\Community\VC\Tools\MSVC\14.28.29333\include\xmemory

; 1347 :         return *this;

  00042	89 45 e8	 mov	 DWORD PTR $T4[ebp], eax
; File C:\Program Files (x86)\Microsoft Visual Studio\2019\Community\VC\Tools\MSVC\14.28.29333\include\vector

; 1733 :         return _Mypair._Get_first();

  00045	8b 45 e8	 mov	 eax, DWORD PTR $T4[ebp]
  00048	89 45 e4	 mov	 DWORD PTR $T3[ebp], eax

; 1612 :         _Destroy_range(_First, _Last, _Getal());

  0004b	ff 75 e4	 push	 DWORD PTR $T3[ebp]
  0004e	ff 75 e0	 push	 DWORD PTR __Last$[ebp]
  00051	ff 75 dc	 push	 DWORD PTR __First$[ebp]
  00054	e8 00 00 00 00	 call	 ??$_Destroy_range@V?$allocator@V?$basic_string@DU?$char_traits@D@std@@V?$allocator@D@2@@std@@@std@@@std@@YAXPAV?$basic_string@DU?$char_traits@D@std@@V?$allocator@D@2@@0@QAV10@AAV?$allocator@V?$basic_string@DU?$char_traits@D@std@@V?$allocator@D@2@@std@@@0@@Z ; std::_Destroy_range<std::allocator<std::basic_string<char,std::char_traits<char>,std::allocator<char> > > >
  00059	83 c4 0c	 add	 esp, 12			; 0000000cH

; 1733 :         return _Mypair._Get_first();

  0005c	8b 45 f4	 mov	 eax, DWORD PTR _this$[ebp]
; File C:\Program Files (x86)\Microsoft Visual Studio\2019\Community\VC\Tools\MSVC\14.28.29333\include\xmemory

; 1347 :         return *this;

  0005f	89 45 d8	 mov	 DWORD PTR $T2[ebp], eax
; File C:\Program Files (x86)\Microsoft Visual Studio\2019\Community\VC\Tools\MSVC\14.28.29333\include\vector

; 1733 :         return _Mypair._Get_first();

  00062	8b 45 d8	 mov	 eax, DWORD PTR $T2[ebp]
  00065	89 45 cc	 mov	 DWORD PTR $T1[ebp], eax

; 1678 :             _Getal().deallocate(_Myfirst, static_cast<size_type>(_Myend - _Myfirst));

  00068	8b 45 ec	 mov	 eax, DWORD PTR __Myend$[ebp]
  0006b	8b 4d fc	 mov	 ecx, DWORD PTR __Myfirst$[ebp]
  0006e	8b 00		 mov	 eax, DWORD PTR [eax]
  00070	2b 01		 sub	 eax, DWORD PTR [ecx]
  00072	99		 cdq
  00073	6a 18		 push	 24			; 00000018H
  00075	59		 pop	 ecx
  00076	f7 f9		 idiv	 ecx
  00078	89 45 d4	 mov	 DWORD PTR __Count$[ebp], eax
  0007b	8b 45 fc	 mov	 eax, DWORD PTR __Myfirst$[ebp]
  0007e	8b 00		 mov	 eax, DWORD PTR [eax]
  00080	89 45 d0	 mov	 DWORD PTR __Ptr$[ebp], eax
; File C:\Program Files (x86)\Microsoft Visual Studio\2019\Community\VC\Tools\MSVC\14.28.29333\include\xmemory

; 810  :         _Deallocate<_New_alignof<_Ty>>(_Ptr, sizeof(_Ty) * _Count);

  00083	6b 45 d4 18	 imul	 eax, DWORD PTR __Count$[ebp], 24
  00087	50		 push	 eax
  00088	ff 75 d0	 push	 DWORD PTR __Ptr$[ebp]
  0008b	e8 00 00 00 00	 call	 ??$_Deallocate@$07$0A@@std@@YAXPAXI@Z ; std::_Deallocate<8,0>
  00090	59		 pop	 ecx
  00091	59		 pop	 ecx
$LN2@Change_arr:
; File C:\Program Files (x86)\Microsoft Visual Studio\2019\Community\VC\Tools\MSVC\14.28.29333\include\vector

; 1681 :         _Myfirst = _Newvec;

  00092	8b 45 fc	 mov	 eax, DWORD PTR __Myfirst$[ebp]
  00095	8b 4d 08	 mov	 ecx, DWORD PTR __Newvec$[ebp]
  00098	89 08		 mov	 DWORD PTR [eax], ecx

; 1682 :         _Mylast  = _Newvec + _Newsize;

  0009a	6b 45 0c 18	 imul	 eax, DWORD PTR __Newsize$[ebp], 24
  0009e	03 45 08	 add	 eax, DWORD PTR __Newvec$[ebp]
  000a1	8b 4d f0	 mov	 ecx, DWORD PTR __Mylast$[ebp]
  000a4	89 01		 mov	 DWORD PTR [ecx], eax

; 1683 :         _Myend   = _Newvec + _Newcapacity;

  000a6	6b 45 10 18	 imul	 eax, DWORD PTR __Newcapacity$[ebp], 24
  000aa	03 45 08	 add	 eax, DWORD PTR __Newvec$[ebp]
  000ad	8b 4d ec	 mov	 ecx, DWORD PTR __Myend$[ebp]
  000b0	89 01		 mov	 DWORD PTR [ecx], eax

; 1684 :     }

  000b2	c9		 leave
  000b3	c2 0c 00	 ret	 12			; 0000000cH
?_Change_array@?$vector@V?$basic_string@DU?$char_traits@D@std@@V?$allocator@D@2@@std@@V?$allocator@V?$basic_string@DU?$char_traits@D@std@@V?$allocator@D@2@@std@@@2@@std@@AAEXQAV?$basic_string@DU?$char_traits@D@std@@V?$allocator@D@2@@2@II@Z ENDP ; std::vector<std::basic_string<char,std::char_traits<char>,std::allocator<char> >,std::allocator<std::basic_string<char,std::char_traits<char>,std::allocator<char> > > >::_Change_array
_TEXT	ENDS
; Function compile flags: /Odspy
; File C:\Program Files (x86)\Microsoft Visual Studio\2019\Community\VC\Tools\MSVC\14.28.29333\include\vector
; File C:\Program Files (x86)\Microsoft Visual Studio\2019\Community\VC\Tools\MSVC\14.28.29333\include\xmemory
; File C:\Program Files (x86)\Microsoft Visual Studio\2019\Community\VC\Tools\MSVC\14.28.29333\include\vector
; File C:\Program Files (x86)\Microsoft Visual Studio\2019\Community\VC\Tools\MSVC\14.28.29333\include\xmemory
; File C:\Program Files (x86)\Microsoft Visual Studio\2019\Community\VC\Tools\MSVC\14.28.29333\include\vector
;	COMDAT ?_Buy_raw@?$vector@V?$basic_string@DU?$char_traits@D@std@@V?$allocator@D@2@@std@@V?$allocator@V?$basic_string@DU?$char_traits@D@std@@V?$allocator@D@2@@std@@@2@@std@@AAEXI@Z
_TEXT	SEGMENT
__Max_possible$1 = -44					; size = 4
$T2 = -40						; size = 4
__Myend$ = -36						; size = 4
__Mylast$ = -32						; size = 4
__Myfirst$ = -28					; size = 4
$T3 = -24						; size = 4
$T4 = -20						; size = 4
_this$ = -16						; size = 4
__Newvec$ = -12						; size = 4
__My_data$ = -8						; size = 4
__Overflow_is_possible$5 = -1				; size = 1
__Newcapacity$ = 8					; size = 4
?_Buy_raw@?$vector@V?$basic_string@DU?$char_traits@D@std@@V?$allocator@D@2@@std@@V?$allocator@V?$basic_string@DU?$char_traits@D@std@@V?$allocator@D@2@@std@@@2@@std@@AAEXI@Z PROC ; std::vector<std::basic_string<char,std::char_traits<char>,std::allocator<char> >,std::allocator<std::basic_string<char,std::char_traits<char>,std::allocator<char> > > >::_Buy_raw, COMDAT
; _this$ = ecx

; 1633 :     void _Buy_raw(const size_type _Newcapacity) {

  00000	55		 push	 ebp
  00001	8b ec		 mov	 ebp, esp
  00003	83 ec 2c	 sub	 esp, 44			; 0000002cH
  00006	89 4d f0	 mov	 DWORD PTR _this$[ebp], ecx

; 1634 :         // allocate array with _Newcapacity elements
; 1635 :         auto& _My_data    = _Mypair._Myval2;

  00009	8b 45 f0	 mov	 eax, DWORD PTR _this$[ebp]
  0000c	89 45 f8	 mov	 DWORD PTR __My_data$[ebp], eax

; 1636 :         pointer& _Myfirst = _My_data._Myfirst;

  0000f	8b 45 f8	 mov	 eax, DWORD PTR __My_data$[ebp]
  00012	89 45 e4	 mov	 DWORD PTR __Myfirst$[ebp], eax

; 1637 :         pointer& _Mylast  = _My_data._Mylast;

  00015	8b 45 f8	 mov	 eax, DWORD PTR __My_data$[ebp]
  00018	83 c0 04	 add	 eax, 4
  0001b	89 45 e0	 mov	 DWORD PTR __Mylast$[ebp], eax

; 1638 :         pointer& _Myend   = _My_data._Myend;

  0001e	8b 45 f8	 mov	 eax, DWORD PTR __My_data$[ebp]
  00021	83 c0 08	 add	 eax, 8
  00024	89 45 dc	 mov	 DWORD PTR __Myend$[ebp], eax

; 1733 :         return _Mypair._Get_first();

  00027	8b 45 f0	 mov	 eax, DWORD PTR _this$[ebp]
; File C:\Program Files (x86)\Microsoft Visual Studio\2019\Community\VC\Tools\MSVC\14.28.29333\include\xmemory

; 1347 :         return *this;

  0002a	89 45 ec	 mov	 DWORD PTR $T4[ebp], eax
; File C:\Program Files (x86)\Microsoft Visual Studio\2019\Community\VC\Tools\MSVC\14.28.29333\include\vector

; 1733 :         return _Mypair._Get_first();

  0002d	8b 45 ec	 mov	 eax, DWORD PTR $T4[ebp]
  00030	89 45 d8	 mov	 DWORD PTR $T2[ebp], eax
; File C:\Program Files (x86)\Microsoft Visual Studio\2019\Community\VC\Tools\MSVC\14.28.29333\include\xmemory

; 56   :     constexpr bool _Overflow_is_possible = _Ty_size > 1;

  00033	c6 45 ff 01	 mov	 BYTE PTR __Overflow_is_possible$5[ebp], 1

; 57   : 
; 58   :     if _CONSTEXPR_IF (_Overflow_is_possible) {
; 59   :         constexpr size_t _Max_possible = static_cast<size_t>(-1) / _Ty_size;

  00037	c7 45 d4 aa aa
	aa 0a		 mov	 DWORD PTR __Max_possible$1[ebp], 178956970 ; 0aaaaaaaH

; 60   :         if (_Count > _Max_possible) {

  0003e	81 7d 08 aa aa
	aa 0a		 cmp	 DWORD PTR __Newcapacity$[ebp], 178956970 ; 0aaaaaaaH
  00045	76 05		 jbe	 SHORT $LN12@Buy_raw

; 61   :             _Throw_bad_array_new_length(); // multiply overflow

  00047	e8 00 00 00 00	 call	 ?_Throw_bad_array_new_length@std@@YAXXZ ; std::_Throw_bad_array_new_length
$LN12@Buy_raw:

; 62   :         }
; 63   :     }
; 64   : 
; 65   :     return _Count * _Ty_size;

  0004c	6b 45 08 18	 imul	 eax, DWORD PTR __Newcapacity$[ebp], 24
  00050	89 45 e8	 mov	 DWORD PTR $T3[ebp], eax

; 814  :         return static_cast<_Ty*>(_Allocate<_New_alignof<_Ty>>(_Get_size_of_n<sizeof(_Ty)>(_Count)));

  00053	ff 75 e8	 push	 DWORD PTR $T3[ebp]
  00056	e8 00 00 00 00	 call	 ??$_Allocate@$07U_Default_allocate_traits@std@@$0A@@std@@YAPAXI@Z ; std::_Allocate<8,std::_Default_allocate_traits,0>
  0005b	59		 pop	 ecx
  0005c	89 45 f4	 mov	 DWORD PTR __Newvec$[ebp], eax
; File C:\Program Files (x86)\Microsoft Visual Studio\2019\Community\VC\Tools\MSVC\14.28.29333\include\vector

; 1644 :         _Myfirst           = _Newvec;

  0005f	8b 45 e4	 mov	 eax, DWORD PTR __Myfirst$[ebp]
  00062	8b 4d f4	 mov	 ecx, DWORD PTR __Newvec$[ebp]
  00065	89 08		 mov	 DWORD PTR [eax], ecx

; 1645 :         _Mylast            = _Newvec;

  00067	8b 45 e0	 mov	 eax, DWORD PTR __Mylast$[ebp]
  0006a	8b 4d f4	 mov	 ecx, DWORD PTR __Newvec$[ebp]
  0006d	89 08		 mov	 DWORD PTR [eax], ecx

; 1646 :         _Myend             = _Newvec + _Newcapacity;

  0006f	6b 45 08 18	 imul	 eax, DWORD PTR __Newcapacity$[ebp], 24
  00073	03 45 f4	 add	 eax, DWORD PTR __Newvec$[ebp]
  00076	8b 4d dc	 mov	 ecx, DWORD PTR __Myend$[ebp]
  00079	89 01		 mov	 DWORD PTR [ecx], eax
$LN15@Buy_raw:

; 1647 :     }

  0007b	c9		 leave
  0007c	c2 04 00	 ret	 4
?_Buy_raw@?$vector@V?$basic_string@DU?$char_traits@D@std@@V?$allocator@D@2@@std@@V?$allocator@V?$basic_string@DU?$char_traits@D@std@@V?$allocator@D@2@@std@@@2@@std@@AAEXI@Z ENDP ; std::vector<std::basic_string<char,std::char_traits<char>,std::allocator<char> >,std::allocator<std::basic_string<char,std::char_traits<char>,std::allocator<char> > > >::_Buy_raw
_TEXT	ENDS
; Function compile flags: /Odspy
; File C:\Program Files (x86)\Microsoft Visual Studio\2019\Community\VC\Tools\MSVC\14.28.29333\include\vector
; File C:\Program Files (x86)\Microsoft Visual Studio\2019\Community\VC\Tools\MSVC\14.28.29333\include\xmemory
; File C:\Program Files (x86)\Microsoft Visual Studio\2019\Community\VC\Tools\MSVC\14.28.29333\include\vector
; File C:\Program Files (x86)\Microsoft Visual Studio\2019\Community\VC\Tools\MSVC\14.28.29333\include\xmemory
; File C:\Program Files (x86)\Microsoft Visual Studio\2019\Community\VC\Tools\MSVC\14.28.29333\include\limits
; File C:\Program Files (x86)\Microsoft Visual Studio\2019\Community\VC\Tools\MSVC\14.28.29333\include\vector
; File C:\Program Files (x86)\Microsoft Visual Studio\2019\Community\VC\Tools\MSVC\14.28.29333\include\utility
; File C:\Program Files (x86)\Microsoft Visual Studio\2019\Community\VC\Tools\MSVC\14.28.29333\include\vector
;	COMDAT ?_Calculate_growth@?$vector@V?$basic_string@DU?$char_traits@D@std@@V?$allocator@D@2@@std@@V?$allocator@V?$basic_string@DU?$char_traits@D@std@@V?$allocator@D@2@@std@@@2@@std@@ABEII@Z
_TEXT	SEGMENT
$T1 = -52						; size = 4
$T2 = -48						; size = 4
$T3 = -44						; size = 4
$T4 = -40						; size = 4
$T5 = -36						; size = 4
__Geometric$ = -32					; size = 4
__Max$ = -28						; size = 4
tv82 = -24						; size = 4
$T6 = -20						; size = 4
$T7 = -16						; size = 4
_this$ = -12						; size = 4
__My_data$8 = -8					; size = 4
__Oldcapacity$ = -4					; size = 4
__Newsize$ = 8						; size = 4
?_Calculate_growth@?$vector@V?$basic_string@DU?$char_traits@D@std@@V?$allocator@D@2@@std@@V?$allocator@V?$basic_string@DU?$char_traits@D@std@@V?$allocator@D@2@@std@@@2@@std@@ABEII@Z PROC ; std::vector<std::basic_string<char,std::char_traits<char>,std::allocator<char> >,std::allocator<std::basic_string<char,std::char_traits<char>,std::allocator<char> > > >::_Calculate_growth, COMDAT
; _this$ = ecx

; 1615 :     size_type _Calculate_growth(const size_type _Newsize) const {

  00000	55		 push	 ebp
  00001	8b ec		 mov	 ebp, esp
  00003	83 ec 34	 sub	 esp, 52			; 00000034H
  00006	89 4d f4	 mov	 DWORD PTR _this$[ebp], ecx

; 1493 :         auto& _My_data = _Mypair._Myval2;

  00009	8b 45 f4	 mov	 eax, DWORD PTR _this$[ebp]
  0000c	89 45 f8	 mov	 DWORD PTR __My_data$8[ebp], eax

; 1494 :         return static_cast<size_type>(_My_data._Myend - _My_data._Myfirst);

  0000f	8b 45 f8	 mov	 eax, DWORD PTR __My_data$8[ebp]
  00012	8b 4d f8	 mov	 ecx, DWORD PTR __My_data$8[ebp]
  00015	8b 40 08	 mov	 eax, DWORD PTR [eax+8]
  00018	2b 01		 sub	 eax, DWORD PTR [ecx]
  0001a	99		 cdq
  0001b	6a 18		 push	 24			; 00000018H
  0001d	59		 pop	 ecx
  0001e	f7 f9		 idiv	 ecx
  00020	89 45 fc	 mov	 DWORD PTR __Oldcapacity$[ebp], eax

; 1737 :         return _Mypair._Get_first();

  00023	8b 45 f4	 mov	 eax, DWORD PTR _this$[ebp]
; File C:\Program Files (x86)\Microsoft Visual Studio\2019\Community\VC\Tools\MSVC\14.28.29333\include\xmemory

; 1351 :         return *this;

  00026	89 45 dc	 mov	 DWORD PTR $T5[ebp], eax
; File C:\Program Files (x86)\Microsoft Visual Studio\2019\Community\VC\Tools\MSVC\14.28.29333\include\vector

; 1737 :         return _Mypair._Get_first();

  00029	8b 45 dc	 mov	 eax, DWORD PTR $T5[ebp]
  0002c	89 45 cc	 mov	 DWORD PTR $T1[ebp], eax
; File C:\Program Files (x86)\Microsoft Visual Studio\2019\Community\VC\Tools\MSVC\14.28.29333\include\xmemory

; 710  :         return static_cast<size_t>(-1) / sizeof(value_type);

  0002f	c7 45 f0 aa aa
	aa 0a		 mov	 DWORD PTR $T7[ebp], 178956970 ; 0aaaaaaaH
; File C:\Program Files (x86)\Microsoft Visual Studio\2019\Community\VC\Tools\MSVC\14.28.29333\include\limits

; 557  :         return INT_MAX;

  00036	c7 45 d8 ff ff
	ff 7f		 mov	 DWORD PTR $T4[ebp], 2147483647 ; 7fffffffH
; File C:\Program Files (x86)\Microsoft Visual Studio\2019\Community\VC\Tools\MSVC\14.28.29333\include\vector

; 1488 :         return (_STD min)(

  0003d	8b 45 d8	 mov	 eax, DWORD PTR $T4[ebp]
  00040	89 45 ec	 mov	 DWORD PTR $T6[ebp], eax
; File C:\Program Files (x86)\Microsoft Visual Studio\2019\Community\VC\Tools\MSVC\14.28.29333\include\utility

; 68   :     return _Right < _Left ? _Right : _Left;

  00043	8b 45 f0	 mov	 eax, DWORD PTR $T7[ebp]
  00046	3b 45 ec	 cmp	 eax, DWORD PTR $T6[ebp]
  00049	73 08		 jae	 SHORT $LN25@Calculate_
  0004b	8d 45 f0	 lea	 eax, DWORD PTR $T7[ebp]
  0004e	89 45 e8	 mov	 DWORD PTR tv82[ebp], eax
  00051	eb 06		 jmp	 SHORT $LN26@Calculate_
$LN25@Calculate_:
  00053	8d 45 ec	 lea	 eax, DWORD PTR $T6[ebp]
  00056	89 45 e8	 mov	 DWORD PTR tv82[ebp], eax
$LN26@Calculate_:
  00059	8b 45 e8	 mov	 eax, DWORD PTR tv82[ebp]
  0005c	89 45 d4	 mov	 DWORD PTR $T3[ebp], eax
  0005f	8b 45 d4	 mov	 eax, DWORD PTR $T3[ebp]
  00062	89 45 d0	 mov	 DWORD PTR $T2[ebp], eax
; File C:\Program Files (x86)\Microsoft Visual Studio\2019\Community\VC\Tools\MSVC\14.28.29333\include\vector

; 1488 :         return (_STD min)(

  00065	8b 45 d0	 mov	 eax, DWORD PTR $T2[ebp]
  00068	8b 00		 mov	 eax, DWORD PTR [eax]
  0006a	89 45 e4	 mov	 DWORD PTR __Max$[ebp], eax

; 1616 :         // given _Oldcapacity and _Newsize, calculate geometric growth
; 1617 :         const size_type _Oldcapacity = capacity();
; 1618 :         const auto _Max              = max_size();
; 1619 : 
; 1620 :         if (_Oldcapacity > _Max - _Oldcapacity / 2) {

  0006d	8b 45 fc	 mov	 eax, DWORD PTR __Oldcapacity$[ebp]
  00070	d1 e8		 shr	 eax, 1
  00072	8b 4d e4	 mov	 ecx, DWORD PTR __Max$[ebp]
  00075	2b c8		 sub	 ecx, eax
  00077	39 4d fc	 cmp	 DWORD PTR __Oldcapacity$[ebp], ecx
  0007a	76 05		 jbe	 SHORT $LN2@Calculate_

; 1621 :             return _Max; // geometric growth would overflow

  0007c	8b 45 e4	 mov	 eax, DWORD PTR __Max$[ebp]
  0007f	eb 1b		 jmp	 SHORT $LN1@Calculate_
$LN2@Calculate_:

; 1622 :         }
; 1623 : 
; 1624 :         const size_type _Geometric = _Oldcapacity + _Oldcapacity / 2;

  00081	8b 45 fc	 mov	 eax, DWORD PTR __Oldcapacity$[ebp]
  00084	d1 e8		 shr	 eax, 1
  00086	03 45 fc	 add	 eax, DWORD PTR __Oldcapacity$[ebp]
  00089	89 45 e0	 mov	 DWORD PTR __Geometric$[ebp], eax

; 1625 : 
; 1626 :         if (_Geometric < _Newsize) {

  0008c	8b 45 e0	 mov	 eax, DWORD PTR __Geometric$[ebp]
  0008f	3b 45 08	 cmp	 eax, DWORD PTR __Newsize$[ebp]
  00092	73 05		 jae	 SHORT $LN3@Calculate_

; 1627 :             return _Newsize; // geometric growth would be insufficient

  00094	8b 45 08	 mov	 eax, DWORD PTR __Newsize$[ebp]
  00097	eb 03		 jmp	 SHORT $LN1@Calculate_
$LN3@Calculate_:

; 1628 :         }
; 1629 : 
; 1630 :         return _Geometric; // geometric growth is sufficient

  00099	8b 45 e0	 mov	 eax, DWORD PTR __Geometric$[ebp]
$LN1@Calculate_:

; 1631 :     }

  0009c	c9		 leave
  0009d	c2 04 00	 ret	 4
?_Calculate_growth@?$vector@V?$basic_string@DU?$char_traits@D@std@@V?$allocator@D@2@@std@@V?$allocator@V?$basic_string@DU?$char_traits@D@std@@V?$allocator@D@2@@std@@@2@@std@@ABEII@Z ENDP ; std::vector<std::basic_string<char,std::char_traits<char>,std::allocator<char> >,std::allocator<std::basic_string<char,std::char_traits<char>,std::allocator<char> > > >::_Calculate_growth
_TEXT	ENDS
; Function compile flags: /Odspy
; File C:\Program Files (x86)\Microsoft Visual Studio\2019\Community\VC\Tools\MSVC\14.28.29333\include\vector
; File C:\Program Files (x86)\Microsoft Visual Studio\2019\Community\VC\Tools\MSVC\14.28.29333\include\xmemory
; File C:\Program Files (x86)\Microsoft Visual Studio\2019\Community\VC\Tools\MSVC\14.28.29333\include\vector
;	COMDAT ?_Destroy@?$vector@V?$basic_string@DU?$char_traits@D@std@@V?$allocator@D@2@@std@@V?$allocator@V?$basic_string@DU?$char_traits@D@std@@V?$allocator@D@2@@std@@@2@@std@@AAEXPAV?$basic_string@DU?$char_traits@D@std@@V?$allocator@D@2@@2@0@Z
_TEXT	SEGMENT
$T1 = -12						; size = 4
$T2 = -8						; size = 4
_this$ = -4						; size = 4
__First$ = 8						; size = 4
__Last$ = 12						; size = 4
?_Destroy@?$vector@V?$basic_string@DU?$char_traits@D@std@@V?$allocator@D@2@@std@@V?$allocator@V?$basic_string@DU?$char_traits@D@std@@V?$allocator@D@2@@std@@@2@@std@@AAEXPAV?$basic_string@DU?$char_traits@D@std@@V?$allocator@D@2@@2@0@Z PROC ; std::vector<std::basic_string<char,std::char_traits<char>,std::allocator<char> >,std::allocator<std::basic_string<char,std::char_traits<char>,std::allocator<char> > > >::_Destroy, COMDAT
; _this$ = ecx

; 1611 :     void _Destroy(pointer _First, pointer _Last) { // destroy [_First, _Last) using allocator

  00000	55		 push	 ebp
  00001	8b ec		 mov	 ebp, esp
  00003	83 ec 0c	 sub	 esp, 12			; 0000000cH
  00006	89 4d fc	 mov	 DWORD PTR _this$[ebp], ecx

; 1733 :         return _Mypair._Get_first();

  00009	8b 45 fc	 mov	 eax, DWORD PTR _this$[ebp]
; File C:\Program Files (x86)\Microsoft Visual Studio\2019\Community\VC\Tools\MSVC\14.28.29333\include\xmemory

; 1347 :         return *this;

  0000c	89 45 f8	 mov	 DWORD PTR $T2[ebp], eax
; File C:\Program Files (x86)\Microsoft Visual Studio\2019\Community\VC\Tools\MSVC\14.28.29333\include\vector

; 1733 :         return _Mypair._Get_first();

  0000f	8b 45 f8	 mov	 eax, DWORD PTR $T2[ebp]
  00012	89 45 f4	 mov	 DWORD PTR $T1[ebp], eax

; 1612 :         _Destroy_range(_First, _Last, _Getal());

  00015	ff 75 f4	 push	 DWORD PTR $T1[ebp]
  00018	ff 75 0c	 push	 DWORD PTR __Last$[ebp]
  0001b	ff 75 08	 push	 DWORD PTR __First$[ebp]
  0001e	e8 00 00 00 00	 call	 ??$_Destroy_range@V?$allocator@V?$basic_string@DU?$char_traits@D@std@@V?$allocator@D@2@@std@@@std@@@std@@YAXPAV?$basic_string@DU?$char_traits@D@std@@V?$allocator@D@2@@0@QAV10@AAV?$allocator@V?$basic_string@DU?$char_traits@D@std@@V?$allocator@D@2@@std@@@0@@Z ; std::_Destroy_range<std::allocator<std::basic_string<char,std::char_traits<char>,std::allocator<char> > > >
  00023	83 c4 0c	 add	 esp, 12			; 0000000cH

; 1613 :     }

  00026	c9		 leave
  00027	c2 08 00	 ret	 8
?_Destroy@?$vector@V?$basic_string@DU?$char_traits@D@std@@V?$allocator@D@2@@std@@V?$allocator@V?$basic_string@DU?$char_traits@D@std@@V?$allocator@D@2@@std@@@2@@std@@AAEXPAV?$basic_string@DU?$char_traits@D@std@@V?$allocator@D@2@@2@0@Z ENDP ; std::vector<std::basic_string<char,std::char_traits<char>,std::allocator<char> >,std::allocator<std::basic_string<char,std::char_traits<char>,std::allocator<char> > > >::_Destroy
_TEXT	ENDS
; Function compile flags: /Odspy
; File C:\Program Files (x86)\Microsoft Visual Studio\2019\Community\VC\Tools\MSVC\14.28.29333\include\vector
; File C:\Program Files (x86)\Microsoft Visual Studio\2019\Community\VC\Tools\MSVC\14.28.29333\include\xmemory
; File C:\Program Files (x86)\Microsoft Visual Studio\2019\Community\VC\Tools\MSVC\14.28.29333\include\vector
;	COMDAT ?clear@?$vector@V?$basic_string@DU?$char_traits@D@std@@V?$allocator@D@2@@std@@V?$allocator@V?$basic_string@DU?$char_traits@D@std@@V?$allocator@D@2@@std@@@2@@std@@QAEXXZ
_TEXT	SEGMENT
__First$ = -32						; size = 4
__Last$ = -28						; size = 4
$T1 = -24						; size = 4
$T2 = -20						; size = 4
__Myfirst$ = -16					; size = 4
__Mylast$ = -12						; size = 4
_this$ = -8						; size = 4
__My_data$ = -4						; size = 4
?clear@?$vector@V?$basic_string@DU?$char_traits@D@std@@V?$allocator@D@2@@std@@V?$allocator@V?$basic_string@DU?$char_traits@D@std@@V?$allocator@D@2@@std@@@2@@std@@QAEXXZ PROC ; std::vector<std::basic_string<char,std::char_traits<char>,std::allocator<char> >,std::allocator<std::basic_string<char,std::char_traits<char>,std::allocator<char> > > >::clear, COMDAT
; _this$ = ecx

; 1383 :     void clear() noexcept { // erase all

  00000	55		 push	 ebp
  00001	8b ec		 mov	 ebp, esp
  00003	83 ec 20	 sub	 esp, 32			; 00000020H
  00006	89 4d f8	 mov	 DWORD PTR _this$[ebp], ecx

; 1384 :         auto& _My_data    = _Mypair._Myval2;

  00009	8b 45 f8	 mov	 eax, DWORD PTR _this$[ebp]
  0000c	89 45 fc	 mov	 DWORD PTR __My_data$[ebp], eax

; 1385 :         pointer& _Myfirst = _My_data._Myfirst;

  0000f	8b 45 fc	 mov	 eax, DWORD PTR __My_data$[ebp]
  00012	89 45 f0	 mov	 DWORD PTR __Myfirst$[ebp], eax

; 1386 :         pointer& _Mylast  = _My_data._Mylast;

  00015	8b 45 fc	 mov	 eax, DWORD PTR __My_data$[ebp]
  00018	83 c0 04	 add	 eax, 4
  0001b	89 45 f4	 mov	 DWORD PTR __Mylast$[ebp], eax

; 1387 : 
; 1388 :         _My_data._Orphan_all();
; 1389 :         _Destroy(_Myfirst, _Mylast);

  0001e	8b 45 f4	 mov	 eax, DWORD PTR __Mylast$[ebp]
  00021	8b 00		 mov	 eax, DWORD PTR [eax]
  00023	89 45 e4	 mov	 DWORD PTR __Last$[ebp], eax
  00026	8b 45 f0	 mov	 eax, DWORD PTR __Myfirst$[ebp]
  00029	8b 00		 mov	 eax, DWORD PTR [eax]
  0002b	89 45 e0	 mov	 DWORD PTR __First$[ebp], eax

; 1733 :         return _Mypair._Get_first();

  0002e	8b 45 f8	 mov	 eax, DWORD PTR _this$[ebp]
; File C:\Program Files (x86)\Microsoft Visual Studio\2019\Community\VC\Tools\MSVC\14.28.29333\include\xmemory

; 1347 :         return *this;

  00031	89 45 ec	 mov	 DWORD PTR $T2[ebp], eax
; File C:\Program Files (x86)\Microsoft Visual Studio\2019\Community\VC\Tools\MSVC\14.28.29333\include\vector

; 1733 :         return _Mypair._Get_first();

  00034	8b 45 ec	 mov	 eax, DWORD PTR $T2[ebp]
  00037	89 45 e8	 mov	 DWORD PTR $T1[ebp], eax

; 1612 :         _Destroy_range(_First, _Last, _Getal());

  0003a	ff 75 e8	 push	 DWORD PTR $T1[ebp]
  0003d	ff 75 e4	 push	 DWORD PTR __Last$[ebp]
  00040	ff 75 e0	 push	 DWORD PTR __First$[ebp]
  00043	e8 00 00 00 00	 call	 ??$_Destroy_range@V?$allocator@V?$basic_string@DU?$char_traits@D@std@@V?$allocator@D@2@@std@@@std@@@std@@YAXPAV?$basic_string@DU?$char_traits@D@std@@V?$allocator@D@2@@0@QAV10@AAV?$allocator@V?$basic_string@DU?$char_traits@D@std@@V?$allocator@D@2@@std@@@0@@Z ; std::_Destroy_range<std::allocator<std::basic_string<char,std::char_traits<char>,std::allocator<char> > > >
  00048	83 c4 0c	 add	 esp, 12			; 0000000cH

; 1390 :         _Mylast = _Myfirst;

  0004b	8b 45 f4	 mov	 eax, DWORD PTR __Mylast$[ebp]
  0004e	8b 4d f0	 mov	 ecx, DWORD PTR __Myfirst$[ebp]
  00051	8b 09		 mov	 ecx, DWORD PTR [ecx]
  00053	89 08		 mov	 DWORD PTR [eax], ecx

; 1391 :     }

  00055	c9		 leave
  00056	c3		 ret	 0
?clear@?$vector@V?$basic_string@DU?$char_traits@D@std@@V?$allocator@D@2@@std@@V?$allocator@V?$basic_string@DU?$char_traits@D@std@@V?$allocator@D@2@@std@@@2@@std@@QAEXXZ ENDP ; std::vector<std::basic_string<char,std::char_traits<char>,std::allocator<char> >,std::allocator<std::basic_string<char,std::char_traits<char>,std::allocator<char> > > >::clear
_TEXT	ENDS
; Function compile flags: /Odspy
; File C:\Program Files (x86)\Microsoft Visual Studio\2019\Community\VC\Tools\MSVC\14.28.29333\include\vector
; File C:\Program Files (x86)\Microsoft Visual Studio\2019\Community\VC\Tools\MSVC\14.28.29333\include\xstddef
; File C:\Program Files (x86)\Microsoft Visual Studio\2019\Community\VC\Tools\MSVC\14.28.29333\include\vector
; File C:\Program Files (x86)\Microsoft Visual Studio\2019\Community\VC\Tools\MSVC\14.28.29333\include\xmemory
; File C:\Program Files (x86)\Microsoft Visual Studio\2019\Community\VC\Tools\MSVC\14.28.29333\include\vector
; File C:\Program Files (x86)\Microsoft Visual Studio\2019\Community\VC\Tools\MSVC\14.28.29333\include\xstring
; File C:\Program Files (x86)\Microsoft Visual Studio\2019\Community\VC\Tools\MSVC\14.28.29333\include\vector
; File C:\Program Files (x86)\Microsoft Visual Studio\2019\Community\VC\Tools\MSVC\14.28.29333\include\xstddef
; File C:\Program Files (x86)\Microsoft Visual Studio\2019\Community\VC\Tools\MSVC\14.28.29333\include\vector
;	COMDAT ?erase@?$vector@V?$basic_string@DU?$char_traits@D@std@@V?$allocator@D@2@@std@@V?$allocator@V?$basic_string@DU?$char_traits@D@std@@V?$allocator@D@2@@std@@@2@@std@@QAE?AV?$_Vector_iterator@V?$_Vector_val@U?$_Simple_types@V?$basic_string@DU?$char_traits@D@std@@V?$allocator@D@2@@std@@@std@@@std@@@2@V?$_Vector_const_iterator@V?$_Vector_val@U?$_Simple_types@V?$basic_string@DU?$char_traits@D@std@@V?$allocator@D@2@@std@@@std@@@std@@@2@@Z
_TEXT	SEGMENT
$T2 = -48						; size = 4
$T3 = -44						; size = 4
$T4 = -40						; size = 4
__Ptr$ = -36						; size = 4
__My_data$ = -32					; size = 4
$T5 = -28						; size = 4
_this$ = -24						; size = 4
__Whereptr$ = -20					; size = 4
__Mylast$ = -16						; size = 4
__$EHRec$ = -12						; size = 12
___$ReturnUdt$ = 8					; size = 4
__Where$ = 12						; size = 4
?erase@?$vector@V?$basic_string@DU?$char_traits@D@std@@V?$allocator@D@2@@std@@V?$allocator@V?$basic_string@DU?$char_traits@D@std@@V?$allocator@D@2@@std@@@2@@std@@QAE?AV?$_Vector_iterator@V?$_Vector_val@U?$_Simple_types@V?$basic_string@DU?$char_traits@D@std@@V?$allocator@D@2@@std@@@std@@@std@@@2@V?$_Vector_const_iterator@V?$_Vector_val@U?$_Simple_types@V?$basic_string@DU?$char_traits@D@std@@V?$allocator@D@2@@std@@@std@@@std@@@2@@Z PROC ; std::vector<std::basic_string<char,std::char_traits<char>,std::allocator<char> >,std::allocator<std::basic_string<char,std::char_traits<char>,std::allocator<char> > > >::erase, COMDAT
; _this$ = ecx

; 1341 :     iterator erase(const_iterator _Where) noexcept(is_nothrow_move_assignable_v<value_type>) /* strengthened */ {

  00000	55		 push	 ebp
  00001	8b ec		 mov	 ebp, esp
  00003	6a ff		 push	 -1
  00005	68 00 00 00 00	 push	 __ehhandler$?erase@?$vector@V?$basic_string@DU?$char_traits@D@std@@V?$allocator@D@2@@std@@V?$allocator@V?$basic_string@DU?$char_traits@D@std@@V?$allocator@D@2@@std@@@2@@std@@QAE?AV?$_Vector_iterator@V?$_Vector_val@U?$_Simple_types@V?$basic_string@DU?$char_traits@D@std@@V?$allocator@D@2@@std@@@std@@@std@@@2@V?$_Vector_const_iterator@V?$_Vector_val@U?$_Simple_types@V?$basic_string@DU?$char_traits@D@std@@V?$allocator@D@2@@std@@@std@@@std@@@2@@Z
  0000a	64 a1 00 00 00
	00		 mov	 eax, DWORD PTR fs:0
  00010	50		 push	 eax
  00011	83 ec 24	 sub	 esp, 36			; 00000024H
  00014	a1 00 00 00 00	 mov	 eax, DWORD PTR ___security_cookie
  00019	33 c5		 xor	 eax, ebp
  0001b	50		 push	 eax
  0001c	8d 45 f4	 lea	 eax, DWORD PTR __$EHRec$[ebp]
  0001f	64 a3 00 00 00
	00		 mov	 DWORD PTR fs:0, eax
  00025	89 4d e8	 mov	 DWORD PTR _this$[ebp], ecx

; 1342 :         const pointer _Whereptr = _Where._Ptr;

  00028	8b 45 0c	 mov	 eax, DWORD PTR __Where$[ebp]
  0002b	89 45 ec	 mov	 DWORD PTR __Whereptr$[ebp], eax

; 1343 :         auto& _My_data          = _Mypair._Myval2;

  0002e	8b 45 e8	 mov	 eax, DWORD PTR _this$[ebp]
  00031	89 45 e0	 mov	 DWORD PTR __My_data$[ebp], eax

; 1344 :         pointer& _Mylast        = _My_data._Mylast;

  00034	8b 45 e0	 mov	 eax, DWORD PTR __My_data$[ebp]
  00037	83 c0 04	 add	 eax, 4
  0003a	89 45 f0	 mov	 DWORD PTR __Mylast$[ebp], eax

; 1345 : 
; 1346 : #if _ITERATOR_DEBUG_LEVEL == 2
; 1347 :         _STL_VERIFY(
; 1348 :             _Where._Getcont() == _STD addressof(_My_data) && _Whereptr >= _My_data._Myfirst && _Mylast > _Whereptr,
; 1349 :             "vector erase iterator outside range");
; 1350 :         _Orphan_range(_Whereptr, _Mylast);
; 1351 : #endif // _ITERATOR_DEBUG_LEVEL == 2
; 1352 : 
; 1353 :         _Move_unchecked(_Whereptr + 1, _Mylast, _Whereptr);

  0003d	ff 75 ec	 push	 DWORD PTR __Whereptr$[ebp]
  00040	8b 45 f0	 mov	 eax, DWORD PTR __Mylast$[ebp]
  00043	ff 30		 push	 DWORD PTR [eax]
  00045	8b 45 ec	 mov	 eax, DWORD PTR __Whereptr$[ebp]
  00048	83 c0 18	 add	 eax, 24			; 00000018H
  0004b	50		 push	 eax
  0004c	e8 00 00 00 00	 call	 ??$_Move_unchecked@PAV?$basic_string@DU?$char_traits@D@std@@V?$allocator@D@2@@std@@PAV12@@std@@YAPAV?$basic_string@DU?$char_traits@D@std@@V?$allocator@D@2@@0@PAV10@00@Z ; std::_Move_unchecked<std::basic_string<char,std::char_traits<char>,std::allocator<char> > *,std::basic_string<char,std::char_traits<char>,std::allocator<char> > *>
  00051	83 c4 0c	 add	 esp, 12			; 0000000cH

; 1354 :         _Alty_traits::destroy(_Getal(), _Unfancy(_Mylast - 1));

  00054	8b 45 f0	 mov	 eax, DWORD PTR __Mylast$[ebp]
  00057	8b 00		 mov	 eax, DWORD PTR [eax]
  00059	83 e8 18	 sub	 eax, 24			; 00000018H
  0005c	89 45 dc	 mov	 DWORD PTR __Ptr$[ebp], eax
; File C:\Program Files (x86)\Microsoft Visual Studio\2019\Community\VC\Tools\MSVC\14.28.29333\include\xstddef

; 289  :     return _Ptr;

  0005f	8b 45 dc	 mov	 eax, DWORD PTR __Ptr$[ebp]
  00062	89 45 e4	 mov	 DWORD PTR $T5[ebp], eax
; File C:\Program Files (x86)\Microsoft Visual Studio\2019\Community\VC\Tools\MSVC\14.28.29333\include\vector

; 1733 :         return _Mypair._Get_first();

  00065	8b 45 e8	 mov	 eax, DWORD PTR _this$[ebp]
; File C:\Program Files (x86)\Microsoft Visual Studio\2019\Community\VC\Tools\MSVC\14.28.29333\include\xmemory

; 1347 :         return *this;

  00068	89 45 d8	 mov	 DWORD PTR $T4[ebp], eax
; File C:\Program Files (x86)\Microsoft Visual Studio\2019\Community\VC\Tools\MSVC\14.28.29333\include\vector

; 1733 :         return _Mypair._Get_first();

  0006b	8b 45 d8	 mov	 eax, DWORD PTR $T4[ebp]
  0006e	89 45 d4	 mov	 DWORD PTR $T3[ebp], eax
; File C:\Program Files (x86)\Microsoft Visual Studio\2019\Community\VC\Tools\MSVC\14.28.29333\include\xstring

; 2801 :         _Tidy_deallocate();

  00071	8b 4d e4	 mov	 ecx, DWORD PTR $T5[ebp]
  00074	e8 00 00 00 00	 call	 ?_Tidy_deallocate@?$basic_string@DU?$char_traits@D@std@@V?$allocator@D@2@@std@@AAEXXZ ; std::basic_string<char,std::char_traits<char>,std::allocator<char> >::_Tidy_deallocate
  00079	33 c0		 xor	 eax, eax
  0007b	83 e0 01	 and	 eax, 1
  0007e	74 0c		 je	 SHORT $LN54@erase
  00080	6a 18		 push	 24			; 00000018H
  00082	ff 75 e4	 push	 DWORD PTR $T5[ebp]
  00085	e8 00 00 00 00	 call	 ??3@YAXPAXI@Z		; operator delete
  0008a	59		 pop	 ecx
  0008b	59		 pop	 ecx
$LN54@erase:
; File C:\Program Files (x86)\Microsoft Visual Studio\2019\Community\VC\Tools\MSVC\14.28.29333\include\vector

; 1355 :         --_Mylast;

  0008c	8b 45 f0	 mov	 eax, DWORD PTR __Mylast$[ebp]
  0008f	8b 00		 mov	 eax, DWORD PTR [eax]
  00091	83 e8 18	 sub	 eax, 24			; 00000018H
  00094	8b 4d f0	 mov	 ecx, DWORD PTR __Mylast$[ebp]
  00097	89 01		 mov	 DWORD PTR [ecx], eax
; File C:\Program Files (x86)\Microsoft Visual Studio\2019\Community\VC\Tools\MSVC\14.28.29333\include\xstddef

; 275  :     return __builtin_addressof(_Val);

  00099	8b 45 e0	 mov	 eax, DWORD PTR __My_data$[ebp]
  0009c	89 45 d0	 mov	 DWORD PTR $T2[ebp], eax
; File C:\Program Files (x86)\Microsoft Visual Studio\2019\Community\VC\Tools\MSVC\14.28.29333\include\vector

; 42   :     _Vector_const_iterator(_Tptr _Parg, const _Container_base* _Pvector) noexcept : _Ptr(_Parg) {

  0009f	8b 45 08	 mov	 eax, DWORD PTR ___$ReturnUdt$[ebp]
  000a2	8b 4d ec	 mov	 ecx, DWORD PTR __Whereptr$[ebp]
  000a5	89 08		 mov	 DWORD PTR [eax], ecx

; 1356 :         return iterator(_Whereptr, _STD addressof(_My_data));

  000a7	8b 45 08	 mov	 eax, DWORD PTR ___$ReturnUdt$[ebp]

; 1357 :     }

  000aa	8b 4d f4	 mov	 ecx, DWORD PTR __$EHRec$[ebp]
  000ad	64 89 0d 00 00
	00 00		 mov	 DWORD PTR fs:0, ecx
  000b4	59		 pop	 ecx
  000b5	c9		 leave
  000b6	c2 08 00	 ret	 8
  000b9	cc		 int	 3
  000ba	cc		 int	 3
  000bb	cc		 int	 3
  000bc	cc		 int	 3
  000bd	cc		 int	 3
_TEXT	ENDS
;	COMDAT text$x
text$x	SEGMENT
__ehhandler$?erase@?$vector@V?$basic_string@DU?$char_traits@D@std@@V?$allocator@D@2@@std@@V?$allocator@V?$basic_string@DU?$char_traits@D@std@@V?$allocator@D@2@@std@@@2@@std@@QAE?AV?$_Vector_iterator@V?$_Vector_val@U?$_Simple_types@V?$basic_string@DU?$char_traits@D@std@@V?$allocator@D@2@@std@@@std@@@std@@@2@V?$_Vector_const_iterator@V?$_Vector_val@U?$_Simple_types@V?$basic_string@DU?$char_traits@D@std@@V?$allocator@D@2@@std@@@std@@@std@@@2@@Z:
  00000	90		 npad	 1
  00001	90		 npad	 1
  00002	8b 54 24 08	 mov	 edx, DWORD PTR [esp+8]
  00006	8d 42 0c	 lea	 eax, DWORD PTR [edx+12]
  00009	8b 4a d8	 mov	 ecx, DWORD PTR [edx-40]
  0000c	33 c8		 xor	 ecx, eax
  0000e	e8 00 00 00 00	 call	 @__security_check_cookie@4
  00013	b8 00 00 00 00	 mov	 eax, OFFSET __ehfuncinfo$?erase@?$vector@V?$basic_string@DU?$char_traits@D@std@@V?$allocator@D@2@@std@@V?$allocator@V?$basic_string@DU?$char_traits@D@std@@V?$allocator@D@2@@std@@@2@@std@@QAE?AV?$_Vector_iterator@V?$_Vector_val@U?$_Simple_types@V?$basic_string@DU?$char_traits@D@std@@V?$allocator@D@2@@std@@@std@@@std@@@2@V?$_Vector_const_iterator@V?$_Vector_val@U?$_Simple_types@V?$basic_string@DU?$char_traits@D@std@@V?$allocator@D@2@@std@@@std@@@std@@@2@@Z
  00018	e9 00 00 00 00	 jmp	 ___CxxFrameHandler3
text$x	ENDS
?erase@?$vector@V?$basic_string@DU?$char_traits@D@std@@V?$allocator@D@2@@std@@V?$allocator@V?$basic_string@DU?$char_traits@D@std@@V?$allocator@D@2@@std@@@2@@std@@QAE?AV?$_Vector_iterator@V?$_Vector_val@U?$_Simple_types@V?$basic_string@DU?$char_traits@D@std@@V?$allocator@D@2@@std@@@std@@@std@@@2@V?$_Vector_const_iterator@V?$_Vector_val@U?$_Simple_types@V?$basic_string@DU?$char_traits@D@std@@V?$allocator@D@2@@std@@@std@@@std@@@2@@Z ENDP ; std::vector<std::basic_string<char,std::char_traits<char>,std::allocator<char> >,std::allocator<std::basic_string<char,std::char_traits<char>,std::allocator<char> > > >::erase
; Function compile flags: /Odspy
; File C:\Program Files (x86)\Microsoft Visual Studio\2019\Community\VC\Tools\MSVC\14.28.29333\include\vector
;	COMDAT ??1?$vector@V?$basic_string@DU?$char_traits@D@std@@V?$allocator@D@2@@std@@V?$allocator@V?$basic_string@DU?$char_traits@D@std@@V?$allocator@D@2@@std@@@2@@std@@QAE@XZ
_TEXT	SEGMENT
_this$ = -4						; size = 4
??1?$vector@V?$basic_string@DU?$char_traits@D@std@@V?$allocator@D@2@@std@@V?$allocator@V?$basic_string@DU?$char_traits@D@std@@V?$allocator@D@2@@std@@@2@@std@@QAE@XZ PROC ; std::vector<std::basic_string<char,std::char_traits<char>,std::allocator<char> >,std::allocator<std::basic_string<char,std::char_traits<char>,std::allocator<char> > > >::~vector<std::basic_string<char,std::char_traits<char>,std::allocator<char> >,std::allocator<std::basic_string<char,std::char_traits<char>,std::allocator<char> > > >, COMDAT
; _this$ = ecx

; 672  :     ~vector() noexcept {

  00000	55		 push	 ebp
  00001	8b ec		 mov	 ebp, esp
  00003	51		 push	 ecx
  00004	89 4d fc	 mov	 DWORD PTR _this$[ebp], ecx

; 673  :         _Tidy();

  00007	8b 4d fc	 mov	 ecx, DWORD PTR _this$[ebp]
  0000a	e8 00 00 00 00	 call	 ?_Tidy@?$vector@V?$basic_string@DU?$char_traits@D@std@@V?$allocator@D@2@@std@@V?$allocator@V?$basic_string@DU?$char_traits@D@std@@V?$allocator@D@2@@std@@@2@@std@@AAEXXZ ; std::vector<std::basic_string<char,std::char_traits<char>,std::allocator<char> >,std::allocator<std::basic_string<char,std::char_traits<char>,std::allocator<char> > > >::_Tidy

; 674  : #if _ITERATOR_DEBUG_LEVEL != 0
; 675  :         auto&& _Alproxy = _GET_PROXY_ALLOCATOR(_Alty, _Getal());
; 676  :         _Delete_plain_internal(_Alproxy, _STD exchange(_Mypair._Myval2._Myproxy, nullptr));
; 677  : #endif // _ITERATOR_DEBUG_LEVEL != 0
; 678  :     }

  0000f	c9		 leave
  00010	c3		 ret	 0
??1?$vector@V?$basic_string@DU?$char_traits@D@std@@V?$allocator@D@2@@std@@V?$allocator@V?$basic_string@DU?$char_traits@D@std@@V?$allocator@D@2@@std@@@2@@std@@QAE@XZ ENDP ; std::vector<std::basic_string<char,std::char_traits<char>,std::allocator<char> >,std::allocator<std::basic_string<char,std::char_traits<char>,std::allocator<char> > > >::~vector<std::basic_string<char,std::char_traits<char>,std::allocator<char> >,std::allocator<std::basic_string<char,std::char_traits<char>,std::allocator<char> > > >
_TEXT	ENDS
; Function compile flags: /Odspy
; File C:\Program Files (x86)\Microsoft Visual Studio\2019\Community\VC\Tools\MSVC\14.28.29333\include\vector
; File C:\Program Files (x86)\Microsoft Visual Studio\2019\Community\VC\Tools\MSVC\14.28.29333\include\xmemory
; File C:\Program Files (x86)\Microsoft Visual Studio\2019\Community\VC\Tools\MSVC\14.28.29333\include\vector
; File C:\Program Files (x86)\Microsoft Visual Studio\2019\Community\VC\Tools\MSVC\14.28.29333\include\type_traits
; File C:\Program Files (x86)\Microsoft Visual Studio\2019\Community\VC\Tools\MSVC\14.28.29333\include\vector
; File C:\Program Files (x86)\Microsoft Visual Studio\2019\Community\VC\Tools\MSVC\14.28.29333\include\xmemory
; File C:\Program Files (x86)\Microsoft Visual Studio\2019\Community\VC\Tools\MSVC\14.28.29333\include\vector
;	COMDAT ??0?$vector@V?$basic_string@DU?$char_traits@D@std@@V?$allocator@D@2@@std@@V?$allocator@V?$basic_string@DU?$char_traits@D@std@@V?$allocator@D@2@@std@@@2@@std@@QAE@$$QAV01@@Z
_TEXT	SEGMENT
$T1 = -40						; size = 4
_this$ = -36						; size = 4
$T2 = -32						; size = 4
$T3 = -28						; size = 4
_this$ = -24						; size = 4
_this$ = -20						; size = 4
_this$ = -16						; size = 4
__Right$ = -12						; size = 4
___formal$ = -8						; size = 1
$T4 = -1						; size = 1
__Right$ = 8						; size = 4
??0?$vector@V?$basic_string@DU?$char_traits@D@std@@V?$allocator@D@2@@std@@V?$allocator@V?$basic_string@DU?$char_traits@D@std@@V?$allocator@D@2@@std@@@2@@std@@QAE@$$QAV01@@Z PROC ; std::vector<std::basic_string<char,std::char_traits<char>,std::allocator<char> >,std::allocator<std::basic_string<char,std::char_traits<char>,std::allocator<char> > > >::vector<std::basic_string<char,std::char_traits<char>,std::allocator<char> >,std::allocator<std::basic_string<char,std::char_traits<char>,std::allocator<char> > > >, COMDAT
; _this$ = ecx

; 581  :     vector(vector&& _Right) noexcept : _Mypair(_One_then_variadic_args_t{}, _STD move(_Right._Getal())) {

  00000	55		 push	 ebp
  00001	8b ec		 mov	 ebp, esp
  00003	83 ec 28	 sub	 esp, 40			; 00000028H
  00006	89 4d e8	 mov	 DWORD PTR _this$[ebp], ecx

; 1733 :         return _Mypair._Get_first();

  00009	8b 45 08	 mov	 eax, DWORD PTR __Right$[ebp]
; File C:\Program Files (x86)\Microsoft Visual Studio\2019\Community\VC\Tools\MSVC\14.28.29333\include\xmemory

; 1347 :         return *this;

  0000c	89 45 e4	 mov	 DWORD PTR $T3[ebp], eax
; File C:\Program Files (x86)\Microsoft Visual Studio\2019\Community\VC\Tools\MSVC\14.28.29333\include\vector

; 1733 :         return _Mypair._Get_first();

  0000f	8b 45 e4	 mov	 eax, DWORD PTR $T3[ebp]
  00012	89 45 e0	 mov	 DWORD PTR $T2[ebp], eax
; File C:\Program Files (x86)\Microsoft Visual Studio\2019\Community\VC\Tools\MSVC\14.28.29333\include\type_traits

; 1455 :     return static_cast<remove_reference_t<_Ty>&&>(_Arg);

  00015	8b 45 e0	 mov	 eax, DWORD PTR $T2[ebp]
  00018	89 45 d8	 mov	 DWORD PTR $T1[ebp], eax
; File C:\Program Files (x86)\Microsoft Visual Studio\2019\Community\VC\Tools\MSVC\14.28.29333\include\vector

; 581  :     vector(vector&& _Right) noexcept : _Mypair(_One_then_variadic_args_t{}, _STD move(_Right._Getal())) {

  0001b	8b 45 e8	 mov	 eax, DWORD PTR _this$[ebp]
  0001e	89 45 dc	 mov	 DWORD PTR _this$[ebp], eax
; File C:\Program Files (x86)\Microsoft Visual Studio\2019\Community\VC\Tools\MSVC\14.28.29333\include\xmemory

; 1344 :         : _Ty1(_STD forward<_Other1>(_Val1)), _Myval2(_STD forward<_Other2>(_Val2)...) {}

  00021	8b 45 dc	 mov	 eax, DWORD PTR _this$[ebp]
  00024	89 45 f0	 mov	 DWORD PTR _this$[ebp], eax
; File C:\Program Files (x86)\Microsoft Visual Studio\2019\Community\VC\Tools\MSVC\14.28.29333\include\vector

; 375  :     _Vector_val() noexcept : _Myfirst(), _Mylast(), _Myend() {}

  00027	8b 45 f0	 mov	 eax, DWORD PTR _this$[ebp]
  0002a	83 20 00	 and	 DWORD PTR [eax], 0
  0002d	8b 45 f0	 mov	 eax, DWORD PTR _this$[ebp]
  00030	83 60 04 00	 and	 DWORD PTR [eax+4], 0
  00034	8b 45 f0	 mov	 eax, DWORD PTR _this$[ebp]
  00037	83 60 08 00	 and	 DWORD PTR [eax+8], 0

; 582  :         _Mypair._Myval2._Alloc_proxy(_GET_PROXY_ALLOCATOR(_Alty, _Getal()));
; 583  :         _Move_construct(_Right, true_type{});

  0003b	33 c0		 xor	 eax, eax
  0003d	88 45 ff	 mov	 BYTE PTR $T4[ebp], al
  00040	8a 45 ff	 mov	 al, BYTE PTR $T4[ebp]
  00043	88 45 f8	 mov	 BYTE PTR ___formal$[ebp], al

; 557  :         _Mypair._Myval2._Take_contents(_Right._Mypair._Myval2);

  00046	8b 45 08	 mov	 eax, DWORD PTR __Right$[ebp]
  00049	89 45 f4	 mov	 DWORD PTR __Right$[ebp], eax
  0004c	8b 45 e8	 mov	 eax, DWORD PTR _this$[ebp]
  0004f	89 45 ec	 mov	 DWORD PTR _this$[ebp], eax

; 386  :         _Myfirst = _Right._Myfirst;

  00052	8b 45 ec	 mov	 eax, DWORD PTR _this$[ebp]
  00055	8b 4d f4	 mov	 ecx, DWORD PTR __Right$[ebp]
  00058	8b 09		 mov	 ecx, DWORD PTR [ecx]
  0005a	89 08		 mov	 DWORD PTR [eax], ecx

; 387  :         _Mylast  = _Right._Mylast;

  0005c	8b 45 ec	 mov	 eax, DWORD PTR _this$[ebp]
  0005f	8b 4d f4	 mov	 ecx, DWORD PTR __Right$[ebp]
  00062	8b 49 04	 mov	 ecx, DWORD PTR [ecx+4]
  00065	89 48 04	 mov	 DWORD PTR [eax+4], ecx

; 388  :         _Myend   = _Right._Myend;

  00068	8b 45 ec	 mov	 eax, DWORD PTR _this$[ebp]
  0006b	8b 4d f4	 mov	 ecx, DWORD PTR __Right$[ebp]
  0006e	8b 49 08	 mov	 ecx, DWORD PTR [ecx+8]
  00071	89 48 08	 mov	 DWORD PTR [eax+8], ecx

; 389  : 
; 390  :         _Right._Myfirst = pointer();

  00074	8b 45 f4	 mov	 eax, DWORD PTR __Right$[ebp]
  00077	83 20 00	 and	 DWORD PTR [eax], 0

; 391  :         _Right._Mylast  = pointer();

  0007a	8b 45 f4	 mov	 eax, DWORD PTR __Right$[ebp]
  0007d	83 60 04 00	 and	 DWORD PTR [eax+4], 0

; 392  :         _Right._Myend   = pointer();

  00081	8b 45 f4	 mov	 eax, DWORD PTR __Right$[ebp]
  00084	83 60 08 00	 and	 DWORD PTR [eax+8], 0

; 584  :     }

  00088	8b 45 e8	 mov	 eax, DWORD PTR _this$[ebp]
  0008b	c9		 leave
  0008c	c2 04 00	 ret	 4
??0?$vector@V?$basic_string@DU?$char_traits@D@std@@V?$allocator@D@2@@std@@V?$allocator@V?$basic_string@DU?$char_traits@D@std@@V?$allocator@D@2@@std@@@2@@std@@QAE@$$QAV01@@Z ENDP ; std::vector<std::basic_string<char,std::char_traits<char>,std::allocator<char> >,std::allocator<std::basic_string<char,std::char_traits<char>,std::allocator<char> > > >::vector<std::basic_string<char,std::char_traits<char>,std::allocator<char> >,std::allocator<std::basic_string<char,std::char_traits<char>,std::allocator<char> > > >
_TEXT	ENDS
; Function compile flags: /Odspy
; File C:\Program Files (x86)\Microsoft Visual Studio\2019\Community\VC\Tools\MSVC\14.28.29333\include\vector
; File C:\Program Files (x86)\Microsoft Visual Studio\2019\Community\VC\Tools\MSVC\14.28.29333\include\xmemory
; File C:\Program Files (x86)\Microsoft Visual Studio\2019\Community\VC\Tools\MSVC\14.28.29333\include\vector
; File C:\Program Files (x86)\Microsoft Visual Studio\2019\Community\VC\Tools\MSVC\14.28.29333\include\xmemory
; File C:\Program Files (x86)\Microsoft Visual Studio\2019\Community\VC\Tools\MSVC\14.28.29333\include\vector
; File C:\Program Files (x86)\Microsoft Visual Studio\2019\Community\VC\Tools\MSVC\14.28.29333\include\xmemory
; File C:\Program Files (x86)\Microsoft Visual Studio\2019\Community\VC\Tools\MSVC\14.28.29333\include\vector
; File C:\Program Files (x86)\Microsoft Visual Studio\2019\Community\VC\Tools\MSVC\14.28.29333\include\xmemory
; File C:\Program Files (x86)\Microsoft Visual Studio\2019\Community\VC\Tools\MSVC\14.28.29333\include\vector
;	COMDAT ??0?$vector@V?$basic_string@DU?$char_traits@D@std@@V?$allocator@D@2@@std@@V?$allocator@V?$basic_string@DU?$char_traits@D@std@@V?$allocator@D@2@@std@@@2@@std@@QAE@ABV01@@Z
_TEXT	SEGMENT
__Alproxy$ = -72					; size = 4
$T2 = -68						; size = 4
__Dest$ = -64						; size = 4
$T3 = -60						; size = 4
$T4 = -56						; size = 4
_this$ = -52						; size = 4
$T5 = -48						; size = 4
__My_data$ = -44					; size = 4
__Right_data$ = -40					; size = 4
__Guard$6 = -36						; size = 4
__Rightfirst$ = -32					; size = 4
__Rightlast$ = -28					; size = 4
_this$ = -24						; size = 4
_this$ = -20						; size = 4
_$S12$ = -13						; size = 1
__$EHRec$ = -12						; size = 12
__Right$ = 8						; size = 4
??0?$vector@V?$basic_string@DU?$char_traits@D@std@@V?$allocator@D@2@@std@@V?$allocator@V?$basic_string@DU?$char_traits@D@std@@V?$allocator@D@2@@std@@@2@@std@@QAE@ABV01@@Z PROC ; std::vector<std::basic_string<char,std::char_traits<char>,std::allocator<char> >,std::allocator<std::basic_string<char,std::char_traits<char>,std::allocator<char> > > >::vector<std::basic_string<char,std::char_traits<char>,std::allocator<char> >,std::allocator<std::basic_string<char,std::char_traits<char>,std::allocator<char> > > >, COMDAT
; _this$ = ecx

; 521  :         : _Mypair(_One_then_variadic_args_t{}, _Alty_traits::select_on_container_copy_construction(_Right._Getal())) {

  00000	55		 push	 ebp
  00001	8b ec		 mov	 ebp, esp
  00003	6a ff		 push	 -1
  00005	68 00 00 00 00	 push	 __ehhandler$??0?$vector@V?$basic_string@DU?$char_traits@D@std@@V?$allocator@D@2@@std@@V?$allocator@V?$basic_string@DU?$char_traits@D@std@@V?$allocator@D@2@@std@@@2@@std@@QAE@ABV01@@Z
  0000a	64 a1 00 00 00
	00		 mov	 eax, DWORD PTR fs:0
  00010	50		 push	 eax
  00011	83 ec 3c	 sub	 esp, 60			; 0000003cH
  00014	a1 00 00 00 00	 mov	 eax, DWORD PTR ___security_cookie
  00019	33 c5		 xor	 eax, ebp
  0001b	50		 push	 eax
  0001c	8d 45 f4	 lea	 eax, DWORD PTR __$EHRec$[ebp]
  0001f	64 a3 00 00 00
	00		 mov	 DWORD PTR fs:0, eax
  00025	89 4d ec	 mov	 DWORD PTR _this$[ebp], ecx

; 1737 :         return _Mypair._Get_first();

  00028	8b 45 08	 mov	 eax, DWORD PTR __Right$[ebp]
; File C:\Program Files (x86)\Microsoft Visual Studio\2019\Community\VC\Tools\MSVC\14.28.29333\include\xmemory

; 1351 :         return *this;

  0002b	89 45 d0	 mov	 DWORD PTR $T5[ebp], eax
; File C:\Program Files (x86)\Microsoft Visual Studio\2019\Community\VC\Tools\MSVC\14.28.29333\include\vector

; 1737 :         return _Mypair._Get_first();

  0002e	8b 45 d0	 mov	 eax, DWORD PTR $T5[ebp]
  00031	89 45 bc	 mov	 DWORD PTR $T2[ebp], eax

; 521  :         : _Mypair(_One_then_variadic_args_t{}, _Alty_traits::select_on_container_copy_construction(_Right._Getal())) {

  00034	8b 45 ec	 mov	 eax, DWORD PTR _this$[ebp]
  00037	89 45 cc	 mov	 DWORD PTR _this$[ebp], eax
; File C:\Program Files (x86)\Microsoft Visual Studio\2019\Community\VC\Tools\MSVC\14.28.29333\include\xmemory

; 1344 :         : _Ty1(_STD forward<_Other1>(_Val1)), _Myval2(_STD forward<_Other2>(_Val2)...) {}

  0003a	8b 45 cc	 mov	 eax, DWORD PTR _this$[ebp]
  0003d	89 45 e8	 mov	 DWORD PTR _this$[ebp], eax
; File C:\Program Files (x86)\Microsoft Visual Studio\2019\Community\VC\Tools\MSVC\14.28.29333\include\vector

; 375  :     _Vector_val() noexcept : _Myfirst(), _Mylast(), _Myend() {}

  00040	8b 45 e8	 mov	 eax, DWORD PTR _this$[ebp]
  00043	83 20 00	 and	 DWORD PTR [eax], 0
  00046	8b 45 e8	 mov	 eax, DWORD PTR _this$[ebp]
  00049	83 60 04 00	 and	 DWORD PTR [eax+4], 0
  0004d	8b 45 e8	 mov	 eax, DWORD PTR _this$[ebp]
  00050	83 60 08 00	 and	 DWORD PTR [eax+8], 0

; 522  :         auto&& _Alproxy           = _GET_PROXY_ALLOCATOR(_Alty, _Getal());

  00054	8d 45 f3	 lea	 eax, DWORD PTR _$S12$[ebp]
  00057	89 45 b8	 mov	 DWORD PTR __Alproxy$[ebp], eax

; 523  :         auto& _My_data            = _Mypair._Myval2;

  0005a	8b 45 ec	 mov	 eax, DWORD PTR _this$[ebp]
  0005d	89 45 d4	 mov	 DWORD PTR __My_data$[ebp], eax

; 524  :         const auto& _Right_data   = _Right._Mypair._Myval2;

  00060	8b 45 08	 mov	 eax, DWORD PTR __Right$[ebp]
  00063	89 45 d8	 mov	 DWORD PTR __Right_data$[ebp], eax

; 525  :         const pointer _Rightfirst = _Right_data._Myfirst;

  00066	8b 45 d8	 mov	 eax, DWORD PTR __Right_data$[ebp]
  00069	8b 00		 mov	 eax, DWORD PTR [eax]
  0006b	89 45 e0	 mov	 DWORD PTR __Rightfirst$[ebp], eax

; 526  :         const pointer _Rightlast  = _Right_data._Mylast;

  0006e	8b 45 d8	 mov	 eax, DWORD PTR __Right_data$[ebp]
  00071	8b 40 04	 mov	 eax, DWORD PTR [eax+4]
  00074	89 45 e4	 mov	 DWORD PTR __Rightlast$[ebp], eax

; 527  :         _Container_proxy_ptr<_Alty> _Proxy(_Alproxy, _My_data);
; 528  :         if (_Rightfirst != _Rightlast) {

  00077	8b 45 e0	 mov	 eax, DWORD PTR __Rightfirst$[ebp]
  0007a	3b 45 e4	 cmp	 eax, DWORD PTR __Rightlast$[ebp]
  0007d	74 63		 je	 SHORT $LN1@vector

; 529  :             _Buy_raw(static_cast<size_type>(_Rightlast - _Rightfirst));

  0007f	8b 45 e4	 mov	 eax, DWORD PTR __Rightlast$[ebp]
  00082	2b 45 e0	 sub	 eax, DWORD PTR __Rightfirst$[ebp]
  00085	99		 cdq
  00086	6a 18		 push	 24			; 00000018H
  00088	59		 pop	 ecx
  00089	f7 f9		 idiv	 ecx
  0008b	50		 push	 eax
  0008c	8b 4d ec	 mov	 ecx, DWORD PTR _this$[ebp]
  0008f	e8 00 00 00 00	 call	 ?_Buy_raw@?$vector@V?$basic_string@DU?$char_traits@D@std@@V?$allocator@D@2@@std@@V?$allocator@V?$basic_string@DU?$char_traits@D@std@@V?$allocator@D@2@@std@@@2@@std@@AAEXI@Z ; std::vector<std::basic_string<char,std::char_traits<char>,std::allocator<char> >,std::allocator<std::basic_string<char,std::char_traits<char>,std::allocator<char> > > >::_Buy_raw

; 530  :             _Tidy_guard<vector> _Guard{this};

  00094	8b 45 ec	 mov	 eax, DWORD PTR _this$[ebp]
  00097	89 45 dc	 mov	 DWORD PTR __Guard$6[ebp], eax
  0009a	83 65 fc 00	 and	 DWORD PTR __$EHRec$[ebp+8], 0

; 531  :             _My_data._Mylast = _Ucopy(_Rightfirst, _Rightlast, _My_data._Myfirst);

  0009e	8b 45 d4	 mov	 eax, DWORD PTR __My_data$[ebp]
  000a1	8b 00		 mov	 eax, DWORD PTR [eax]
  000a3	89 45 c0	 mov	 DWORD PTR __Dest$[ebp], eax

; 1733 :         return _Mypair._Get_first();

  000a6	8b 45 ec	 mov	 eax, DWORD PTR _this$[ebp]
; File C:\Program Files (x86)\Microsoft Visual Studio\2019\Community\VC\Tools\MSVC\14.28.29333\include\xmemory

; 1347 :         return *this;

  000a9	89 45 c8	 mov	 DWORD PTR $T4[ebp], eax
; File C:\Program Files (x86)\Microsoft Visual Studio\2019\Community\VC\Tools\MSVC\14.28.29333\include\vector

; 1733 :         return _Mypair._Get_first();

  000ac	8b 45 c8	 mov	 eax, DWORD PTR $T4[ebp]
  000af	89 45 c4	 mov	 DWORD PTR $T3[ebp], eax

; 1588 :         return _Uninitialized_copy(_First, _Last, _Dest, _Getal());

  000b2	ff 75 c4	 push	 DWORD PTR $T3[ebp]
  000b5	ff 75 c0	 push	 DWORD PTR __Dest$[ebp]
  000b8	ff 75 e4	 push	 DWORD PTR __Rightlast$[ebp]
  000bb	ff 75 e0	 push	 DWORD PTR __Rightfirst$[ebp]
  000be	e8 00 00 00 00	 call	 ??$_Uninitialized_copy@PAV?$basic_string@DU?$char_traits@D@std@@V?$allocator@D@2@@std@@V?$allocator@V?$basic_string@DU?$char_traits@D@std@@V?$allocator@D@2@@std@@@2@@std@@YAPAV?$basic_string@DU?$char_traits@D@std@@V?$allocator@D@2@@0@QAV10@0PAV10@AAV?$allocator@V?$basic_string@DU?$char_traits@D@std@@V?$allocator@D@2@@std@@@0@@Z ; std::_Uninitialized_copy<std::basic_string<char,std::char_traits<char>,std::allocator<char> > *,std::allocator<std::basic_string<char,std::char_traits<char>,std::allocator<char> > > >
  000c3	83 c4 10	 add	 esp, 16			; 00000010H

; 531  :             _My_data._Mylast = _Ucopy(_Rightfirst, _Rightlast, _My_data._Myfirst);

  000c6	8b 4d d4	 mov	 ecx, DWORD PTR __My_data$[ebp]
  000c9	89 41 04	 mov	 DWORD PTR [ecx+4], eax

; 532  :             _Guard._Target   = nullptr;

  000cc	83 65 dc 00	 and	 DWORD PTR __Guard$6[ebp], 0

; 533  :         }

  000d0	83 4d fc ff	 or	 DWORD PTR __$EHRec$[ebp+8], -1
; File C:\Program Files (x86)\Microsoft Visual Studio\2019\Community\VC\Tools\MSVC\14.28.29333\include\xmemory

; 31   :         if (_Target) {

  000d4	83 7d dc 00	 cmp	 DWORD PTR __Guard$6[ebp], 0
  000d8	74 08		 je	 SHORT $LN1@vector

; 32   :             _Target->_Tidy();

  000da	8b 4d dc	 mov	 ecx, DWORD PTR __Guard$6[ebp]
  000dd	e8 00 00 00 00	 call	 ?_Tidy@?$vector@V?$basic_string@DU?$char_traits@D@std@@V?$allocator@D@2@@std@@V?$allocator@V?$basic_string@DU?$char_traits@D@std@@V?$allocator@D@2@@std@@@2@@std@@AAEXXZ ; std::vector<std::basic_string<char,std::char_traits<char>,std::allocator<char> >,std::allocator<std::basic_string<char,std::char_traits<char>,std::allocator<char> > > >::_Tidy
$LN1@vector:
; File C:\Program Files (x86)\Microsoft Visual Studio\2019\Community\VC\Tools\MSVC\14.28.29333\include\vector

; 536  :     }

  000e2	8b 45 ec	 mov	 eax, DWORD PTR _this$[ebp]
  000e5	8b 4d f4	 mov	 ecx, DWORD PTR __$EHRec$[ebp]
  000e8	64 89 0d 00 00
	00 00		 mov	 DWORD PTR fs:0, ecx
  000ef	59		 pop	 ecx
  000f0	c9		 leave
  000f1	c2 04 00	 ret	 4
_TEXT	ENDS
;	COMDAT text$x
text$x	SEGMENT
__unwindfunclet$??0?$vector@V?$basic_string@DU?$char_traits@D@std@@V?$allocator@D@2@@std@@V?$allocator@V?$basic_string@DU?$char_traits@D@std@@V?$allocator@D@2@@std@@@2@@std@@QAE@ABV01@@Z$0:
  00000	8d 4d dc	 lea	 ecx, DWORD PTR __Guard$6[ebp]
  00003	e9 00 00 00 00	 jmp	 ??1?$_Tidy_guard@V?$vector@V?$basic_string@DU?$char_traits@D@std@@V?$allocator@D@2@@std@@V?$allocator@V?$basic_string@DU?$char_traits@D@std@@V?$allocator@D@2@@std@@@2@@std@@@std@@QAE@XZ ; std::_Tidy_guard<std::vector<std::basic_string<char,std::char_traits<char>,std::allocator<char> >,std::allocator<std::basic_string<char,std::char_traits<char>,std::allocator<char> > > > >::~_Tidy_guard<std::vector<std::basic_string<char,std::char_traits<char>,std::allocator<char> >,std::allocator<std::basic_string<char,std::char_traits<char>,std::allocator<char> > > > >
  00008	cc		 int	 3
  00009	cc		 int	 3
  0000a	cc		 int	 3
  0000b	cc		 int	 3
  0000c	cc		 int	 3
__ehhandler$??0?$vector@V?$basic_string@DU?$char_traits@D@std@@V?$allocator@D@2@@std@@V?$allocator@V?$basic_string@DU?$char_traits@D@std@@V?$allocator@D@2@@std@@@2@@std@@QAE@ABV01@@Z:
  0000d	90		 npad	 1
  0000e	90		 npad	 1
  0000f	8b 54 24 08	 mov	 edx, DWORD PTR [esp+8]
  00013	8d 42 0c	 lea	 eax, DWORD PTR [edx+12]
  00016	8b 4a c0	 mov	 ecx, DWORD PTR [edx-64]
  00019	33 c8		 xor	 ecx, eax
  0001b	e8 00 00 00 00	 call	 @__security_check_cookie@4
  00020	b8 00 00 00 00	 mov	 eax, OFFSET __ehfuncinfo$??0?$vector@V?$basic_string@DU?$char_traits@D@std@@V?$allocator@D@2@@std@@V?$allocator@V?$basic_string@DU?$char_traits@D@std@@V?$allocator@D@2@@std@@@2@@std@@QAE@ABV01@@Z
  00025	e9 00 00 00 00	 jmp	 ___CxxFrameHandler3
text$x	ENDS
??0?$vector@V?$basic_string@DU?$char_traits@D@std@@V?$allocator@D@2@@std@@V?$allocator@V?$basic_string@DU?$char_traits@D@std@@V?$allocator@D@2@@std@@@2@@std@@QAE@ABV01@@Z ENDP ; std::vector<std::basic_string<char,std::char_traits<char>,std::allocator<char> >,std::allocator<std::basic_string<char,std::char_traits<char>,std::allocator<char> > > >::vector<std::basic_string<char,std::char_traits<char>,std::allocator<char> >,std::allocator<std::basic_string<char,std::char_traits<char>,std::allocator<char> > > >
; Function compile flags: /Odspy
; File C:\Program Files (x86)\Microsoft Visual Studio\2019\Community\VC\Tools\MSVC\14.28.29333\include\xmemory
;	COMDAT ?deallocate@?$allocator@V?$basic_string@DU?$char_traits@D@std@@V?$allocator@D@2@@std@@@std@@QAEXQAV?$basic_string@DU?$char_traits@D@std@@V?$allocator@D@2@@2@I@Z
_TEXT	SEGMENT
_this$ = -4						; size = 4
__Ptr$ = 8						; size = 4
__Count$ = 12						; size = 4
?deallocate@?$allocator@V?$basic_string@DU?$char_traits@D@std@@V?$allocator@D@2@@std@@@std@@QAEXQAV?$basic_string@DU?$char_traits@D@std@@V?$allocator@D@2@@2@I@Z PROC ; std::allocator<std::basic_string<char,std::char_traits<char>,std::allocator<char> > >::deallocate, COMDAT
; _this$ = ecx

; 808  :     void deallocate(_Ty* const _Ptr, const size_t _Count) {

  00000	55		 push	 ebp
  00001	8b ec		 mov	 ebp, esp
  00003	51		 push	 ecx
  00004	89 4d fc	 mov	 DWORD PTR _this$[ebp], ecx

; 809  :         // no overflow check on the following multiply; we assume _Allocate did that check
; 810  :         _Deallocate<_New_alignof<_Ty>>(_Ptr, sizeof(_Ty) * _Count);

  00007	6b 45 0c 18	 imul	 eax, DWORD PTR __Count$[ebp], 24
  0000b	50		 push	 eax
  0000c	ff 75 08	 push	 DWORD PTR __Ptr$[ebp]
  0000f	e8 00 00 00 00	 call	 ??$_Deallocate@$07$0A@@std@@YAXPAXI@Z ; std::_Deallocate<8,0>
  00014	59		 pop	 ecx
  00015	59		 pop	 ecx

; 811  :     }

  00016	c9		 leave
  00017	c2 08 00	 ret	 8
?deallocate@?$allocator@V?$basic_string@DU?$char_traits@D@std@@V?$allocator@D@2@@std@@@std@@QAEXQAV?$basic_string@DU?$char_traits@D@std@@V?$allocator@D@2@@2@I@Z ENDP ; std::allocator<std::basic_string<char,std::char_traits<char>,std::allocator<char> > >::deallocate
_TEXT	ENDS
; Function compile flags: /Odspy
; File C:\Program Files (x86)\Microsoft Visual Studio\2019\Community\VC\Tools\MSVC\14.28.29333\include\xmemory
;	COMDAT ??$_Allocate_manually_vector_aligned@U_Default_allocate_traits@std@@@std@@YAPAXI@Z
_TEXT	SEGMENT
__Ptr$ = -12						; size = 4
__Block_size$ = -8					; size = 4
__Ptr_container$ = -4					; size = 4
__Bytes$ = 8						; size = 4
??$_Allocate_manually_vector_aligned@U_Default_allocate_traits@std@@@std@@YAPAXI@Z PROC ; std::_Allocate_manually_vector_aligned<std::_Default_allocate_traits>, COMDAT

; 113  : __declspec(allocator) void* _Allocate_manually_vector_aligned(const size_t _Bytes) {

  00000	55		 push	 ebp
  00001	8b ec		 mov	 ebp, esp
  00003	83 ec 0c	 sub	 esp, 12			; 0000000cH

; 114  :     // allocate _Bytes manually aligned to at least _Big_allocation_alignment
; 115  :     const size_t _Block_size = _Non_user_size + _Bytes;

  00006	8b 45 08	 mov	 eax, DWORD PTR __Bytes$[ebp]
  00009	83 c0 23	 add	 eax, 35			; 00000023H
  0000c	89 45 f8	 mov	 DWORD PTR __Block_size$[ebp], eax

; 116  :     if (_Block_size <= _Bytes) {

  0000f	8b 45 f8	 mov	 eax, DWORD PTR __Block_size$[ebp]
  00012	3b 45 08	 cmp	 eax, DWORD PTR __Bytes$[ebp]
  00015	77 05		 ja	 SHORT $LN12@Allocate_m

; 117  :         _Throw_bad_array_new_length(); // add overflow

  00017	e8 00 00 00 00	 call	 ?_Throw_bad_array_new_length@std@@YAXXZ ; std::_Throw_bad_array_new_length
$LN12@Allocate_m:

; 77   :         return ::operator new(_Bytes);

  0001c	ff 75 f8	 push	 DWORD PTR __Block_size$[ebp]
  0001f	e8 00 00 00 00	 call	 ??2@YAPAXI@Z		; operator new
  00024	59		 pop	 ecx

; 118  :     }
; 119  : 
; 120  :     const uintptr_t _Ptr_container = reinterpret_cast<uintptr_t>(_Traits::_Allocate(_Block_size));

  00025	89 45 fc	 mov	 DWORD PTR __Ptr_container$[ebp], eax
$LN4@Allocate_m:

; 121  :     _STL_VERIFY(_Ptr_container != 0, "invalid argument"); // validate even in release since we're doing p[-1]

  00028	83 7d fc 00	 cmp	 DWORD PTR __Ptr_container$[ebp], 0
  0002c	74 02		 je	 SHORT $LN7@Allocate_m
  0002e	eb 09		 jmp	 SHORT $LN2@Allocate_m
$LN7@Allocate_m:
  00030	e8 00 00 00 00	 call	 __invalid_parameter_noinfo_noreturn
  00035	33 c0		 xor	 eax, eax
  00037	75 f7		 jne	 SHORT $LN7@Allocate_m
$LN2@Allocate_m:
  00039	33 c0		 xor	 eax, eax
  0003b	75 eb		 jne	 SHORT $LN4@Allocate_m

; 122  :     void* const _Ptr = reinterpret_cast<void*>((_Ptr_container + _Non_user_size) & ~(_Big_allocation_alignment - 1));

  0003d	8b 45 fc	 mov	 eax, DWORD PTR __Ptr_container$[ebp]
  00040	83 c0 23	 add	 eax, 35			; 00000023H
  00043	83 e0 e0	 and	 eax, -32		; ffffffe0H
  00046	89 45 f4	 mov	 DWORD PTR __Ptr$[ebp], eax

; 123  :     static_cast<uintptr_t*>(_Ptr)[-1] = _Ptr_container;

  00049	6a 04		 push	 4
  0004b	58		 pop	 eax
  0004c	6b c0 ff	 imul	 eax, eax, -1
  0004f	8b 4d f4	 mov	 ecx, DWORD PTR __Ptr$[ebp]
  00052	8b 55 fc	 mov	 edx, DWORD PTR __Ptr_container$[ebp]
  00055	89 14 01	 mov	 DWORD PTR [ecx+eax], edx

; 124  : 
; 125  : #ifdef _DEBUG
; 126  :     static_cast<uintptr_t*>(_Ptr)[-2] = _Big_allocation_sentinel;
; 127  : #endif // _DEBUG
; 128  :     return _Ptr;

  00058	8b 45 f4	 mov	 eax, DWORD PTR __Ptr$[ebp]
$LN11@Allocate_m:

; 129  : }

  0005b	c9		 leave
  0005c	c3		 ret	 0
??$_Allocate_manually_vector_aligned@U_Default_allocate_traits@std@@@std@@YAPAXI@Z ENDP ; std::_Allocate_manually_vector_aligned<std::_Default_allocate_traits>
_TEXT	ENDS
; Function compile flags: /Odspy
; File C:\Program Files (x86)\Microsoft Visual Studio\2019\Community\VC\Tools\MSVC\14.28.29333\include\xmemory
;	COMDAT ??$_Allocate@$07U_Default_allocate_traits@std@@$0A@@std@@YAPAXI@Z
_TEXT	SEGMENT
__Bytes$ = 8						; size = 4
??$_Allocate@$07U_Default_allocate_traits@std@@$0A@@std@@YAPAXI@Z PROC ; std::_Allocate<8,std::_Default_allocate_traits,0>, COMDAT

; 197  : __declspec(allocator) void* _Allocate(const size_t _Bytes) {

  00000	55		 push	 ebp
  00001	8b ec		 mov	 ebp, esp

; 198  :     // allocate _Bytes when !_HAS_ALIGNED_NEW || _Align <= __STDCPP_DEFAULT_NEW_ALIGNMENT__
; 199  : #if defined(_M_IX86) || defined(_M_X64)
; 200  :     if (_Bytes >= _Big_allocation_threshold) { // boost the alignment of big allocations to help autovectorization

  00003	81 7d 08 00 10
	00 00		 cmp	 DWORD PTR __Bytes$[ebp], 4096 ; 00001000H
  0000a	72 0b		 jb	 SHORT $LN2@Allocate

; 201  :         return _Allocate_manually_vector_aligned<_Traits>(_Bytes);

  0000c	ff 75 08	 push	 DWORD PTR __Bytes$[ebp]
  0000f	e8 00 00 00 00	 call	 ??$_Allocate_manually_vector_aligned@U_Default_allocate_traits@std@@@std@@YAPAXI@Z ; std::_Allocate_manually_vector_aligned<std::_Default_allocate_traits>
  00014	59		 pop	 ecx
  00015	eb 13		 jmp	 SHORT $LN1@Allocate
$LN2@Allocate:

; 202  :     }
; 203  : #endif // defined(_M_IX86) || defined(_M_X64)
; 204  : 
; 205  :     if (_Bytes != 0) {

  00017	83 7d 08 00	 cmp	 DWORD PTR __Bytes$[ebp], 0
  0001b	74 0b		 je	 SHORT $LN3@Allocate

; 77   :         return ::operator new(_Bytes);

  0001d	ff 75 08	 push	 DWORD PTR __Bytes$[ebp]
  00020	e8 00 00 00 00	 call	 ??2@YAPAXI@Z		; operator new
  00025	59		 pop	 ecx

; 206  :         return _Traits::_Allocate(_Bytes);

  00026	eb 02		 jmp	 SHORT $LN1@Allocate
$LN3@Allocate:

; 207  :     }
; 208  : 
; 209  :     return nullptr;

  00028	33 c0		 xor	 eax, eax
$LN1@Allocate:

; 210  : }

  0002a	5d		 pop	 ebp
  0002b	c3		 ret	 0
??$_Allocate@$07U_Default_allocate_traits@std@@$0A@@std@@YAPAXI@Z ENDP ; std::_Allocate<8,std::_Default_allocate_traits,0>
_TEXT	ENDS
; Function compile flags: /Odspy
; File C:\Program Files (x86)\Microsoft Visual Studio\2019\Community\VC\Tools\MSVC\14.28.29333\include\xmemory
;	COMDAT ??$_Deallocate@$07$0A@@std@@YAXPAXI@Z
_TEXT	SEGMENT
__$EHRec$ = -12						; size = 12
__Ptr$ = 8						; size = 4
__Bytes$ = 12						; size = 4
??$_Deallocate@$07$0A@@std@@YAXPAXI@Z PROC		; std::_Deallocate<8,0>, COMDAT

; 213  : void _Deallocate(void* _Ptr, size_t _Bytes) noexcept {

  00000	55		 push	 ebp
  00001	8b ec		 mov	 ebp, esp
  00003	6a ff		 push	 -1
  00005	68 00 00 00 00	 push	 __ehhandler$??$_Deallocate@$07$0A@@std@@YAXPAXI@Z
  0000a	64 a1 00 00 00
	00		 mov	 eax, DWORD PTR fs:0
  00010	50		 push	 eax
  00011	a1 00 00 00 00	 mov	 eax, DWORD PTR ___security_cookie
  00016	33 c5		 xor	 eax, ebp
  00018	50		 push	 eax
  00019	8d 45 f4	 lea	 eax, DWORD PTR __$EHRec$[ebp]
  0001c	64 a3 00 00 00
	00		 mov	 DWORD PTR fs:0, eax

; 214  :     // deallocate storage allocated by _Allocate when !_HAS_ALIGNED_NEW || _Align <= __STDCPP_DEFAULT_NEW_ALIGNMENT__
; 215  : #if defined(_M_IX86) || defined(_M_X64)
; 216  :     if (_Bytes >= _Big_allocation_threshold) { // boost the alignment of big allocations to help autovectorization

  00022	81 7d 0c 00 10
	00 00		 cmp	 DWORD PTR __Bytes$[ebp], 4096 ; 00001000H
  00029	72 0f		 jb	 SHORT $LN2@Deallocate

; 217  :         _Adjust_manually_vector_aligned(_Ptr, _Bytes);

  0002b	8d 45 0c	 lea	 eax, DWORD PTR __Bytes$[ebp]
  0002e	50		 push	 eax
  0002f	8d 45 08	 lea	 eax, DWORD PTR __Ptr$[ebp]
  00032	50		 push	 eax
  00033	e8 00 00 00 00	 call	 ?_Adjust_manually_vector_aligned@std@@YAXAAPAXAAI@Z ; std::_Adjust_manually_vector_aligned
  00038	59		 pop	 ecx
  00039	59		 pop	 ecx
$LN2@Deallocate:

; 218  :     }
; 219  : #endif // defined(_M_IX86) || defined(_M_X64)
; 220  : 
; 221  :     ::operator delete(_Ptr, _Bytes);

  0003a	ff 75 0c	 push	 DWORD PTR __Bytes$[ebp]
  0003d	ff 75 08	 push	 DWORD PTR __Ptr$[ebp]
  00040	e8 00 00 00 00	 call	 ??3@YAXPAXI@Z		; operator delete
  00045	59		 pop	 ecx
  00046	59		 pop	 ecx

; 222  : }

  00047	8b 4d f4	 mov	 ecx, DWORD PTR __$EHRec$[ebp]
  0004a	64 89 0d 00 00
	00 00		 mov	 DWORD PTR fs:0, ecx
  00051	59		 pop	 ecx
  00052	c9		 leave
  00053	c3		 ret	 0
  00054	cc		 int	 3
  00055	cc		 int	 3
  00056	cc		 int	 3
  00057	cc		 int	 3
  00058	cc		 int	 3
_TEXT	ENDS
;	COMDAT text$x
text$x	SEGMENT
__ehhandler$??$_Deallocate@$07$0A@@std@@YAXPAXI@Z:
  00000	90		 npad	 1
  00001	90		 npad	 1
  00002	8b 54 24 08	 mov	 edx, DWORD PTR [esp+8]
  00006	8d 42 0c	 lea	 eax, DWORD PTR [edx+12]
  00009	8b 4a fc	 mov	 ecx, DWORD PTR [edx-4]
  0000c	33 c8		 xor	 ecx, eax
  0000e	e8 00 00 00 00	 call	 @__security_check_cookie@4
  00013	b8 00 00 00 00	 mov	 eax, OFFSET __ehfuncinfo$??$_Deallocate@$07$0A@@std@@YAXPAXI@Z
  00018	e9 00 00 00 00	 jmp	 ___CxxFrameHandler3
text$x	ENDS
??$_Deallocate@$07$0A@@std@@YAXPAXI@Z ENDP		; std::_Deallocate<8,0>
; Function compile flags: /Odspy
; File C:\Program Files (x86)\Microsoft Visual Studio\2019\Community\VC\Tools\MSVC\14.28.29333\include\xmemory
;	COMDAT ??$_Pocma@V?$allocator@D@std@@@std@@YAXAAV?$allocator@D@0@0@Z
_TEXT	SEGMENT
__Left$ = 8						; size = 4
__Right$ = 12						; size = 4
??$_Pocma@V?$allocator@D@std@@@std@@YAXAAV?$allocator@D@0@0@Z PROC ; std::_Pocma<std::allocator<char> >, COMDAT

; 908  : void _Pocma(_Alloc& _Left, _Alloc& _Right) noexcept { // (maybe) propagate on container move assignment

  00000	55		 push	 ebp
  00001	8b ec		 mov	 ebp, esp

; 909  :     if constexpr (allocator_traits<_Alloc>::propagate_on_container_move_assignment::value) {
; 910  :         _Left = _STD move(_Right);
; 911  :     }
; 912  : }

  00003	5d		 pop	 ebp
  00004	c3		 ret	 0
??$_Pocma@V?$allocator@D@std@@@std@@YAXAAV?$allocator@D@0@0@Z ENDP ; std::_Pocma<std::allocator<char> >
_TEXT	ENDS
; Function compile flags: /Odspy
; File C:\Program Files (x86)\Microsoft Visual Studio\2019\Community\VC\Tools\MSVC\14.28.29333\include\xmemory
; File C:\Program Files (x86)\Microsoft Visual Studio\2019\Community\VC\Tools\MSVC\14.28.29333\include\xstddef
; File C:\Program Files (x86)\Microsoft Visual Studio\2019\Community\VC\Tools\MSVC\14.28.29333\include\vcruntime_new.h
; File C:\Program Files (x86)\Microsoft Visual Studio\2019\Community\VC\Tools\MSVC\14.28.29333\include\type_traits
; File C:\Program Files (x86)\Microsoft Visual Studio\2019\Community\VC\Tools\MSVC\14.28.29333\include\xmemory
;	COMDAT ??$_Construct_in_place@PADABQAD@std@@YAXAAPADABQAD@Z
_TEXT	SEGMENT
$T1 = -12						; size = 4
$T2 = -8						; size = 4
$T3 = -4						; size = 4
__Obj$ = 8						; size = 4
_<_Args_0>$ = 12					; size = 4
??$_Construct_in_place@PADABQAD@std@@YAXAAPADABQAD@Z PROC ; std::_Construct_in_place<char *,char * const &>, COMDAT

; 228  : void _Construct_in_place(_Ty& _Obj, _Types&&... _Args) noexcept(is_nothrow_constructible_v<_Ty, _Types...>) {

  00000	55		 push	 ebp
  00001	8b ec		 mov	 ebp, esp
  00003	83 ec 0c	 sub	 esp, 12			; 0000000cH
; File C:\Program Files (x86)\Microsoft Visual Studio\2019\Community\VC\Tools\MSVC\14.28.29333\include\xstddef

; 275  :     return __builtin_addressof(_Val);

  00006	8b 45 08	 mov	 eax, DWORD PTR __Obj$[ebp]
  00009	89 45 fc	 mov	 DWORD PTR $T3[ebp], eax
; File C:\Program Files (x86)\Microsoft Visual Studio\2019\Community\VC\Tools\MSVC\14.28.29333\include\vcruntime_new.h

; 169  :         return _Where;

  0000c	8b 45 fc	 mov	 eax, DWORD PTR $T3[ebp]
  0000f	89 45 f8	 mov	 DWORD PTR $T2[ebp], eax
; File C:\Program Files (x86)\Microsoft Visual Studio\2019\Community\VC\Tools\MSVC\14.28.29333\include\type_traits

; 1443 :     return static_cast<_Ty&&>(_Arg);

  00012	8b 45 0c	 mov	 eax, DWORD PTR _<_Args_0>$[ebp]
  00015	89 45 f4	 mov	 DWORD PTR $T1[ebp], eax
; File C:\Program Files (x86)\Microsoft Visual Studio\2019\Community\VC\Tools\MSVC\14.28.29333\include\xmemory

; 229  :     ::new (const_cast<void*>(static_cast<const volatile void*>(_STD addressof(_Obj))))

  00018	8b 45 f8	 mov	 eax, DWORD PTR $T2[ebp]
  0001b	8b 4d f4	 mov	 ecx, DWORD PTR $T1[ebp]
  0001e	8b 09		 mov	 ecx, DWORD PTR [ecx]
  00020	89 08		 mov	 DWORD PTR [eax], ecx

; 230  :         _Ty(_STD forward<_Types>(_Args)...);
; 231  : }

  00022	c9		 leave
  00023	c3		 ret	 0
??$_Construct_in_place@PADABQAD@std@@YAXAAPADABQAD@Z ENDP ; std::_Construct_in_place<char *,char * const &>
_TEXT	ENDS
; Function compile flags: /Odspy
; File C:\Program Files (x86)\Microsoft Visual Studio\2019\Community\VC\Tools\MSVC\14.28.29333\include\xstring
; File C:\Program Files (x86)\Microsoft Visual Studio\2019\Community\VC\Tools\MSVC\14.28.29333\include\xmemory
; File C:\Program Files (x86)\Microsoft Visual Studio\2019\Community\VC\Tools\MSVC\14.28.29333\include\xstring
; File C:\Program Files (x86)\Microsoft Visual Studio\2019\Community\VC\Tools\MSVC\14.28.29333\include\xmemory
; File C:\Program Files (x86)\Microsoft Visual Studio\2019\Community\VC\Tools\MSVC\14.28.29333\include\xstring
; File C:\Program Files (x86)\Microsoft Visual Studio\2019\Community\VC\Tools\MSVC\14.28.29333\include\xmemory
; File C:\Program Files (x86)\Microsoft Visual Studio\2019\Community\VC\Tools\MSVC\14.28.29333\include\xstring
; File C:\Program Files (x86)\Microsoft Visual Studio\2019\Community\VC\Tools\MSVC\14.28.29333\include\xstddef
; File C:\Program Files (x86)\Microsoft Visual Studio\2019\Community\VC\Tools\MSVC\14.28.29333\include\xstring
; File C:\Program Files (x86)\Microsoft Visual Studio\2019\Community\VC\Tools\MSVC\14.28.29333\include\xmemory
; File C:\Program Files (x86)\Microsoft Visual Studio\2019\Community\VC\Tools\MSVC\14.28.29333\include\xstring
;	COMDAT ??$_Reallocate_for@V<lambda_9366063389c5f42a00a5088cf24e69de>@@PBD@?$basic_string@DU?$char_traits@D@std@@V?$allocator@D@2@@std@@AAEAAV01@IV<lambda_9366063389c5f42a00a5088cf24e69de>@@PBD@Z
_TEXT	SEGMENT
__Al$ = -40						; size = 4
__Ptr$ = -36						; size = 4
__Ptr$ = -32						; size = 4
$T1 = -28						; size = 4
__Old_capacity$ = -24					; size = 4
$T2 = -20						; size = 4
__New_capacity$ = -16					; size = 4
__New_ptr$ = -12					; size = 4
_this$ = -8						; size = 4
__Overflow_is_possible$3 = -2				; size = 1
$T4 = -1						; size = 1
__New_size$ = 8						; size = 4
__Fn$ = 12						; size = 1
_<_Args_0>$ = 16					; size = 4
??$_Reallocate_for@V<lambda_9366063389c5f42a00a5088cf24e69de>@@PBD@?$basic_string@DU?$char_traits@D@std@@V?$allocator@D@2@@std@@AAEAAV01@IV<lambda_9366063389c5f42a00a5088cf24e69de>@@PBD@Z PROC ; std::basic_string<char,std::char_traits<char>,std::allocator<char> >::_Reallocate_for<<lambda_9366063389c5f42a00a5088cf24e69de>,char const *>, COMDAT
; _this$ = ecx

; 4302 :     basic_string& _Reallocate_for(const size_type _New_size, _Fty _Fn, _ArgTys... _Args) {

  00000	55		 push	 ebp
  00001	8b ec		 mov	 ebp, esp
  00003	83 ec 28	 sub	 esp, 40			; 00000028H
  00006	89 4d f8	 mov	 DWORD PTR _this$[ebp], ecx

; 4303 :         // reallocate to store exactly _New_size elements, new buffer prepared by
; 4304 :         // _Fn(_New_ptr, _New_size, _Args...)
; 4305 :         if (_New_size > max_size()) {

  00009	8b 4d f8	 mov	 ecx, DWORD PTR _this$[ebp]
  0000c	e8 00 00 00 00	 call	 ?max_size@?$basic_string@DU?$char_traits@D@std@@V?$allocator@D@2@@std@@QBEIXZ ; std::basic_string<char,std::char_traits<char>,std::allocator<char> >::max_size
  00011	39 45 08	 cmp	 DWORD PTR __New_size$[ebp], eax
  00014	76 05		 jbe	 SHORT $LN2@Reallocate

; 4306 :             _Xlen_string(); // result too long

  00016	e8 00 00 00 00	 call	 ?_Xlen_string@std@@YAXXZ ; std::_Xlen_string
$LN2@Reallocate:

; 4307 :         }
; 4308 : 
; 4309 :         const size_type _Old_capacity = _Mypair._Myval2._Myres;

  0001b	8b 45 f8	 mov	 eax, DWORD PTR _this$[ebp]
  0001e	8b 40 14	 mov	 eax, DWORD PTR [eax+20]
  00021	89 45 e8	 mov	 DWORD PTR __Old_capacity$[ebp], eax

; 4310 :         const size_type _New_capacity = _Calculate_growth(_New_size);

  00024	ff 75 08	 push	 DWORD PTR __New_size$[ebp]
  00027	8b 4d f8	 mov	 ecx, DWORD PTR _this$[ebp]
  0002a	e8 00 00 00 00	 call	 ?_Calculate_growth@?$basic_string@DU?$char_traits@D@std@@V?$allocator@D@2@@std@@ABEII@Z ; std::basic_string<char,std::char_traits<char>,std::allocator<char> >::_Calculate_growth
  0002f	89 45 f0	 mov	 DWORD PTR __New_capacity$[ebp], eax

; 4409 :         return _Mypair._Get_first();

  00032	8b 45 f8	 mov	 eax, DWORD PTR _this$[ebp]
; File C:\Program Files (x86)\Microsoft Visual Studio\2019\Community\VC\Tools\MSVC\14.28.29333\include\xmemory

; 1347 :         return *this;

  00035	89 45 e4	 mov	 DWORD PTR $T1[ebp], eax
; File C:\Program Files (x86)\Microsoft Visual Studio\2019\Community\VC\Tools\MSVC\14.28.29333\include\xstring

; 4409 :         return _Mypair._Get_first();

  00038	8b 45 e4	 mov	 eax, DWORD PTR $T1[ebp]
  0003b	89 45 d8	 mov	 DWORD PTR __Al$[ebp], eax
; File C:\Program Files (x86)\Microsoft Visual Studio\2019\Community\VC\Tools\MSVC\14.28.29333\include\xmemory

; 56   :     constexpr bool _Overflow_is_possible = _Ty_size > 1;

  0003e	c6 45 fe 00	 mov	 BYTE PTR __Overflow_is_possible$3[ebp], 0
; File C:\Program Files (x86)\Microsoft Visual Studio\2019\Community\VC\Tools\MSVC\14.28.29333\include\xstring

; 4312 :         const pointer _New_ptr        = _Al.allocate(_New_capacity + 1); // throws

  00042	8b 45 f0	 mov	 eax, DWORD PTR __New_capacity$[ebp]
  00045	40		 inc	 eax
; File C:\Program Files (x86)\Microsoft Visual Studio\2019\Community\VC\Tools\MSVC\14.28.29333\include\xmemory

; 814  :         return static_cast<_Ty*>(_Allocate<_New_alignof<_Ty>>(_Get_size_of_n<sizeof(_Ty)>(_Count)));

  00046	50		 push	 eax
  00047	e8 00 00 00 00	 call	 ??$_Allocate@$07U_Default_allocate_traits@std@@$0A@@std@@YAPAXI@Z ; std::_Allocate<8,std::_Default_allocate_traits,0>
  0004c	59		 pop	 ecx
; File C:\Program Files (x86)\Microsoft Visual Studio\2019\Community\VC\Tools\MSVC\14.28.29333\include\xstring

; 4312 :         const pointer _New_ptr        = _Al.allocate(_New_capacity + 1); // throws

  0004d	89 45 f4	 mov	 DWORD PTR __New_ptr$[ebp], eax

; 4313 :         _Mypair._Myval2._Orphan_all();
; 4314 :         _Mypair._Myval2._Mysize = _New_size;

  00050	8b 45 f8	 mov	 eax, DWORD PTR _this$[ebp]
  00053	8b 4d 08	 mov	 ecx, DWORD PTR __New_size$[ebp]
  00056	89 48 10	 mov	 DWORD PTR [eax+16], ecx

; 4315 :         _Mypair._Myval2._Myres  = _New_capacity;

  00059	8b 45 f8	 mov	 eax, DWORD PTR _this$[ebp]
  0005c	8b 4d f0	 mov	 ecx, DWORD PTR __New_capacity$[ebp]
  0005f	89 48 14	 mov	 DWORD PTR [eax+20], ecx

; 4316 :         _Fn(_Unfancy(_New_ptr), _New_size, _Args...);

  00062	8b 45 f4	 mov	 eax, DWORD PTR __New_ptr$[ebp]
  00065	89 45 e0	 mov	 DWORD PTR __Ptr$[ebp], eax
; File C:\Program Files (x86)\Microsoft Visual Studio\2019\Community\VC\Tools\MSVC\14.28.29333\include\xstddef

; 289  :     return _Ptr;

  00068	8b 45 e0	 mov	 eax, DWORD PTR __Ptr$[ebp]
  0006b	89 45 ec	 mov	 DWORD PTR $T2[ebp], eax
; File C:\Program Files (x86)\Microsoft Visual Studio\2019\Community\VC\Tools\MSVC\14.28.29333\include\xstring

; 62   :         _CSTD memcpy(_First1, _First2, _Count * sizeof(_Elem));

  0006e	ff 75 08	 push	 DWORD PTR __New_size$[ebp]
  00071	ff 75 10	 push	 DWORD PTR _<_Args_0>$[ebp]
  00074	ff 75 ec	 push	 DWORD PTR $T2[ebp]
  00077	e8 00 00 00 00	 call	 _memcpy
  0007c	83 c4 0c	 add	 esp, 12			; 0000000cH

; 3056 :                 _Traits::assign(_New_ptr[_Count], _Elem());

  0007f	c6 45 ff 00	 mov	 BYTE PTR $T4[ebp], 0

; 428  :         _Left = _Right;

  00083	8b 45 ec	 mov	 eax, DWORD PTR $T2[ebp]
  00086	03 45 08	 add	 eax, DWORD PTR __New_size$[ebp]
  00089	8a 4d ff	 mov	 cl, BYTE PTR $T4[ebp]
  0008c	88 08		 mov	 BYTE PTR [eax], cl

; 4317 :         if (_BUF_SIZE <= _Old_capacity) {

  0008e	83 7d e8 10	 cmp	 DWORD PTR __Old_capacity$[ebp], 16 ; 00000010H
  00092	72 21		 jb	 SHORT $LN3@Reallocate

; 4318 :             _Al.deallocate(_Mypair._Myval2._Bx._Ptr, _Old_capacity + 1);

  00094	8b 45 f8	 mov	 eax, DWORD PTR _this$[ebp]
  00097	8b 00		 mov	 eax, DWORD PTR [eax]
  00099	89 45 dc	 mov	 DWORD PTR __Ptr$[ebp], eax
  0009c	8b 45 e8	 mov	 eax, DWORD PTR __Old_capacity$[ebp]
  0009f	40		 inc	 eax
; File C:\Program Files (x86)\Microsoft Visual Studio\2019\Community\VC\Tools\MSVC\14.28.29333\include\xmemory

; 810  :         _Deallocate<_New_alignof<_Ty>>(_Ptr, sizeof(_Ty) * _Count);

  000a0	50		 push	 eax
  000a1	ff 75 dc	 push	 DWORD PTR __Ptr$[ebp]
  000a4	e8 00 00 00 00	 call	 ??$_Deallocate@$07$0A@@std@@YAXPAXI@Z ; std::_Deallocate<8,0>
  000a9	59		 pop	 ecx
  000aa	59		 pop	 ecx
; File C:\Program Files (x86)\Microsoft Visual Studio\2019\Community\VC\Tools\MSVC\14.28.29333\include\xstring

; 4319 :             _Mypair._Myval2._Bx._Ptr = _New_ptr;

  000ab	8b 45 f8	 mov	 eax, DWORD PTR _this$[ebp]
  000ae	8b 4d f4	 mov	 ecx, DWORD PTR __New_ptr$[ebp]
  000b1	89 08		 mov	 DWORD PTR [eax], ecx

; 4320 :         } else {

  000b3	eb 0e		 jmp	 SHORT $LN4@Reallocate
$LN3@Reallocate:

; 4321 :             _Construct_in_place(_Mypair._Myval2._Bx._Ptr, _New_ptr);

  000b5	8d 45 f4	 lea	 eax, DWORD PTR __New_ptr$[ebp]
  000b8	50		 push	 eax
  000b9	ff 75 f8	 push	 DWORD PTR _this$[ebp]
  000bc	e8 00 00 00 00	 call	 ??$_Construct_in_place@PADABQAD@std@@YAXAAPADABQAD@Z ; std::_Construct_in_place<char *,char * const &>
  000c1	59		 pop	 ecx
  000c2	59		 pop	 ecx
$LN4@Reallocate:

; 4322 :         }
; 4323 : 
; 4324 :         return *this;

  000c3	8b 45 f8	 mov	 eax, DWORD PTR _this$[ebp]
$LN5@Reallocate:

; 4325 :     }

  000c6	c9		 leave
  000c7	c2 0c 00	 ret	 12			; 0000000cH
??$_Reallocate_for@V<lambda_9366063389c5f42a00a5088cf24e69de>@@PBD@?$basic_string@DU?$char_traits@D@std@@V?$allocator@D@2@@std@@AAEAAV01@IV<lambda_9366063389c5f42a00a5088cf24e69de>@@PBD@Z ENDP ; std::basic_string<char,std::char_traits<char>,std::allocator<char> >::_Reallocate_for<<lambda_9366063389c5f42a00a5088cf24e69de>,char const *>
_TEXT	ENDS
; Function compile flags: /Odspy
; File C:\Program Files (x86)\Microsoft Visual Studio\2019\Community\VC\Tools\MSVC\14.28.29333\include\xmemory
;	COMDAT ??$_Destroy_in_place@PAD@std@@YAXAAPAD@Z
_TEXT	SEGMENT
__Obj$ = 8						; size = 4
??$_Destroy_in_place@PAD@std@@YAXAAPAD@Z PROC		; std::_Destroy_in_place<char *>, COMDAT

; 270  : /* _CONSTEXPR20_DYNALLOC */ void _Destroy_in_place(_Ty& _Obj) noexcept {

  00000	55		 push	 ebp
  00001	8b ec		 mov	 ebp, esp

; 271  : #if _HAS_IF_CONSTEXPR
; 272  :     if constexpr (is_array_v<_Ty>) {
; 273  :         _Destroy_range(_Obj, _Obj + extent_v<_Ty>);
; 274  :     } else
; 275  : #endif // _HAS_IF_CONSTEXPR
; 276  :     {
; 277  :         _Obj.~_Ty();
; 278  :     }
; 279  : }

  00003	5d		 pop	 ebp
  00004	c3		 ret	 0
??$_Destroy_in_place@PAD@std@@YAXAAPAD@Z ENDP		; std::_Destroy_in_place<char *>
_TEXT	ENDS
; Function compile flags: /Odspy
; File C:\Program Files (x86)\Microsoft Visual Studio\2019\Community\VC\Tools\MSVC\14.28.29333\include\xtree
;	COMDAT ?_Throw_tree_length_error@std@@YAXXZ
_TEXT	SEGMENT
?_Throw_tree_length_error@std@@YAXXZ PROC		; std::_Throw_tree_length_error, COMDAT

; 414  : [[noreturn]] inline void _Throw_tree_length_error() {

  00000	55		 push	 ebp
  00001	8b ec		 mov	 ebp, esp

; 415  :     _Xlength_error("map/set too long");

  00003	68 00 00 00 00	 push	 OFFSET ??_C@_0BB@GCADKGJO@map?1set?5too?5long@
  00008	e8 00 00 00 00	 call	 ?_Xlength_error@std@@YAXPBD@Z ; std::_Xlength_error
$LN2@Throw_tree:

; 416  : }

  0000d	5d		 pop	 ebp
  0000e	c3		 ret	 0
?_Throw_tree_length_error@std@@YAXXZ ENDP		; std::_Throw_tree_length_error
_TEXT	ENDS
; Function compile flags: /Odspy
;	COMDAT ??1?$_Compressed_pair@V?$allocator@D@std@@V?$_String_val@U?$_Simple_types@D@std@@@2@$00@std@@QAE@XZ
_TEXT	SEGMENT
_this$ = -4						; size = 4
??1?$_Compressed_pair@V?$allocator@D@std@@V?$_String_val@U?$_Simple_types@D@std@@@2@$00@std@@QAE@XZ PROC ; std::_Compressed_pair<std::allocator<char>,std::_String_val<std::_Simple_types<char> >,1>::~_Compressed_pair<std::allocator<char>,std::_String_val<std::_Simple_types<char> >,1>, COMDAT
; _this$ = ecx
  00000	55		 push	 ebp
  00001	8b ec		 mov	 ebp, esp
  00003	51		 push	 ecx
  00004	89 4d fc	 mov	 DWORD PTR _this$[ebp], ecx
  00007	c9		 leave
  00008	c3		 ret	 0
??1?$_Compressed_pair@V?$allocator@D@std@@V?$_String_val@U?$_Simple_types@D@std@@@2@$00@std@@QAE@XZ ENDP ; std::_Compressed_pair<std::allocator<char>,std::_String_val<std::_Simple_types<char> >,1>::~_Compressed_pair<std::allocator<char>,std::_String_val<std::_Simple_types<char> >,1>
_TEXT	ENDS
; Function compile flags: /Odspy
; File C:\Program Files (x86)\Microsoft Visual Studio\2019\Community\VC\Tools\MSVC\14.28.29333\include\xstring
; File C:\Program Files (x86)\Microsoft Visual Studio\2019\Community\VC\Tools\MSVC\14.28.29333\include\xmemory
; File C:\Program Files (x86)\Microsoft Visual Studio\2019\Community\VC\Tools\MSVC\14.28.29333\include\xstring
; File C:\Program Files (x86)\Microsoft Visual Studio\2019\Community\VC\Tools\MSVC\14.28.29333\include\xmemory
; File C:\Program Files (x86)\Microsoft Visual Studio\2019\Community\VC\Tools\MSVC\14.28.29333\include\xstring
;	COMDAT ?_Tidy_deallocate@?$basic_string@DU?$char_traits@D@std@@V?$allocator@D@2@@std@@AAEXXZ
_TEXT	SEGMENT
__Al$1 = -28						; size = 4
__Ptr$2 = -24						; size = 4
__Count$ = -20						; size = 4
$T3 = -16						; size = 4
tv68 = -12						; size = 4
_this$ = -8						; size = 4
$T4 = -2						; size = 1
$T5 = -1						; size = 1
?_Tidy_deallocate@?$basic_string@DU?$char_traits@D@std@@V?$allocator@D@2@@std@@AAEXXZ PROC ; std::basic_string<char,std::char_traits<char>,std::allocator<char> >::_Tidy_deallocate, COMDAT
; _this$ = ecx

; 4383 :     void _Tidy_deallocate() noexcept { // initialize buffer, deallocating any storage

  00000	55		 push	 ebp
  00001	8b ec		 mov	 ebp, esp
  00003	83 ec 1c	 sub	 esp, 28			; 0000001cH
  00006	89 4d f8	 mov	 DWORD PTR _this$[ebp], ecx

; 2227 :         return _BUF_SIZE <= _Myres;

  00009	8b 45 f8	 mov	 eax, DWORD PTR _this$[ebp]
  0000c	83 78 14 10	 cmp	 DWORD PTR [eax+20], 16	; 00000010H
  00010	72 09		 jb	 SHORT $LN9@Tidy_deall
  00012	c7 45 f4 01 00
	00 00		 mov	 DWORD PTR tv68[ebp], 1
  00019	eb 04		 jmp	 SHORT $LN10@Tidy_deall
$LN9@Tidy_deall:
  0001b	83 65 f4 00	 and	 DWORD PTR tv68[ebp], 0
$LN10@Tidy_deall:
  0001f	8a 45 f4	 mov	 al, BYTE PTR tv68[ebp]
  00022	88 45 ff	 mov	 BYTE PTR $T5[ebp], al

; 4384 :         _Mypair._Myval2._Orphan_all();
; 4385 :         if (_Mypair._Myval2._Large_string_engaged()) {

  00025	0f b6 45 ff	 movzx	 eax, BYTE PTR $T5[ebp]
  00029	85 c0		 test	 eax, eax
  0002b	74 34		 je	 SHORT $LN2@Tidy_deall

; 4386 :             const pointer _Ptr = _Mypair._Myval2._Bx._Ptr;

  0002d	8b 45 f8	 mov	 eax, DWORD PTR _this$[ebp]
  00030	8b 00		 mov	 eax, DWORD PTR [eax]
  00032	89 45 e8	 mov	 DWORD PTR __Ptr$2[ebp], eax

; 4409 :         return _Mypair._Get_first();

  00035	8b 45 f8	 mov	 eax, DWORD PTR _this$[ebp]
; File C:\Program Files (x86)\Microsoft Visual Studio\2019\Community\VC\Tools\MSVC\14.28.29333\include\xmemory

; 1347 :         return *this;

  00038	89 45 f0	 mov	 DWORD PTR $T3[ebp], eax
; File C:\Program Files (x86)\Microsoft Visual Studio\2019\Community\VC\Tools\MSVC\14.28.29333\include\xstring

; 4409 :         return _Mypair._Get_first();

  0003b	8b 45 f0	 mov	 eax, DWORD PTR $T3[ebp]
  0003e	89 45 e4	 mov	 DWORD PTR __Al$1[ebp], eax

; 4387 :             auto& _Al          = _Getal();
; 4388 :             _Destroy_in_place(_Mypair._Myval2._Bx._Ptr);

  00041	ff 75 f8	 push	 DWORD PTR _this$[ebp]
  00044	e8 00 00 00 00	 call	 ??$_Destroy_in_place@PAD@std@@YAXAAPAD@Z ; std::_Destroy_in_place<char *>
  00049	59		 pop	 ecx

; 4389 :             _Al.deallocate(_Ptr, _Mypair._Myval2._Myres + 1);

  0004a	8b 45 f8	 mov	 eax, DWORD PTR _this$[ebp]
  0004d	8b 40 14	 mov	 eax, DWORD PTR [eax+20]
  00050	40		 inc	 eax
  00051	89 45 ec	 mov	 DWORD PTR __Count$[ebp], eax
; File C:\Program Files (x86)\Microsoft Visual Studio\2019\Community\VC\Tools\MSVC\14.28.29333\include\xmemory

; 810  :         _Deallocate<_New_alignof<_Ty>>(_Ptr, sizeof(_Ty) * _Count);

  00054	ff 75 ec	 push	 DWORD PTR __Count$[ebp]
  00057	ff 75 e8	 push	 DWORD PTR __Ptr$2[ebp]
  0005a	e8 00 00 00 00	 call	 ??$_Deallocate@$07$0A@@std@@YAXPAXI@Z ; std::_Deallocate<8,0>
  0005f	59		 pop	 ecx
  00060	59		 pop	 ecx
$LN2@Tidy_deall:
; File C:\Program Files (x86)\Microsoft Visual Studio\2019\Community\VC\Tools\MSVC\14.28.29333\include\xstring

; 4392 :         _Mypair._Myval2._Mysize = 0;

  00061	8b 45 f8	 mov	 eax, DWORD PTR _this$[ebp]
  00064	83 60 10 00	 and	 DWORD PTR [eax+16], 0

; 4393 :         _Mypair._Myval2._Myres  = _BUF_SIZE - 1;

  00068	8b 45 f8	 mov	 eax, DWORD PTR _this$[ebp]
  0006b	c7 40 14 0f 00
	00 00		 mov	 DWORD PTR [eax+20], 15	; 0000000fH

; 4394 :         // the _Traits::assign is last so the codegen doesn't think the char write can alias this
; 4395 :         _Traits::assign(_Mypair._Myval2._Bx._Buf[0], _Elem());

  00072	c6 45 fe 00	 mov	 BYTE PTR $T4[ebp], 0
  00076	33 c0		 xor	 eax, eax
  00078	40		 inc	 eax
  00079	6b c0 00	 imul	 eax, eax, 0

; 428  :         _Left = _Right;

  0007c	8b 4d f8	 mov	 ecx, DWORD PTR _this$[ebp]
  0007f	8a 55 fe	 mov	 dl, BYTE PTR $T4[ebp]
  00082	88 14 01	 mov	 BYTE PTR [ecx+eax], dl

; 4396 :     }

  00085	c9		 leave
  00086	c3		 ret	 0
?_Tidy_deallocate@?$basic_string@DU?$char_traits@D@std@@V?$allocator@D@2@@std@@AAEXXZ ENDP ; std::basic_string<char,std::char_traits<char>,std::allocator<char> >::_Tidy_deallocate
_TEXT	ENDS
; Function compile flags: /Odspy
; File C:\Program Files (x86)\Microsoft Visual Studio\2019\Community\VC\Tools\MSVC\14.28.29333\include\xstring
;	COMDAT ?_Tidy_init@?$basic_string@DU?$char_traits@D@std@@V?$allocator@D@2@@std@@AAEXXZ
_TEXT	SEGMENT
_this$ = -8						; size = 4
$T1 = -1						; size = 1
?_Tidy_init@?$basic_string@DU?$char_traits@D@std@@V?$allocator@D@2@@std@@AAEXXZ PROC ; std::basic_string<char,std::char_traits<char>,std::allocator<char> >::_Tidy_init, COMDAT
; _this$ = ecx

; 4376 :     void _Tidy_init() noexcept { // initialize basic_string data members

  00000	55		 push	 ebp
  00001	8b ec		 mov	 ebp, esp
  00003	51		 push	 ecx
  00004	51		 push	 ecx
  00005	89 4d f8	 mov	 DWORD PTR _this$[ebp], ecx

; 4377 :         _Mypair._Myval2._Mysize = 0;

  00008	8b 45 f8	 mov	 eax, DWORD PTR _this$[ebp]
  0000b	83 60 10 00	 and	 DWORD PTR [eax+16], 0

; 4378 :         _Mypair._Myval2._Myres  = _BUF_SIZE - 1;

  0000f	8b 45 f8	 mov	 eax, DWORD PTR _this$[ebp]
  00012	c7 40 14 0f 00
	00 00		 mov	 DWORD PTR [eax+20], 15	; 0000000fH

; 4379 :         // the _Traits::assign is last so the codegen doesn't think the char write can alias this
; 4380 :         _Traits::assign(_Mypair._Myval2._Bx._Buf[0], _Elem());

  00019	c6 45 ff 00	 mov	 BYTE PTR $T1[ebp], 0
  0001d	33 c0		 xor	 eax, eax
  0001f	40		 inc	 eax
  00020	6b c0 00	 imul	 eax, eax, 0

; 428  :         _Left = _Right;

  00023	8b 4d f8	 mov	 ecx, DWORD PTR _this$[ebp]
  00026	8a 55 ff	 mov	 dl, BYTE PTR $T1[ebp]
  00029	88 14 01	 mov	 BYTE PTR [ecx+eax], dl

; 4381 :     }

  0002c	c9		 leave
  0002d	c3		 ret	 0
?_Tidy_init@?$basic_string@DU?$char_traits@D@std@@V?$allocator@D@2@@std@@AAEXXZ ENDP ; std::basic_string<char,std::char_traits<char>,std::allocator<char> >::_Tidy_init
_TEXT	ENDS
; Function compile flags: /Odspy
; File C:\Program Files (x86)\Microsoft Visual Studio\2019\Community\VC\Tools\MSVC\14.28.29333\include\xstring
; File C:\Program Files (x86)\Microsoft Visual Studio\2019\Community\VC\Tools\MSVC\14.28.29333\include\utility
; File C:\Program Files (x86)\Microsoft Visual Studio\2019\Community\VC\Tools\MSVC\14.28.29333\include\xstring
;	COMDAT ?_Calculate_growth@?$basic_string@DU?$char_traits@D@std@@V?$allocator@D@2@@std@@ABEII@Z
_TEXT	SEGMENT
$T1 = -36						; size = 4
$T2 = -32						; size = 4
tv93 = -28						; size = 4
$T3 = -24						; size = 4
_this$ = -20						; size = 4
$T4 = -16						; size = 4
__Masked$5 = -12					; size = 4
__Old$ = -8						; size = 4
__Max$ = -4						; size = 4
__Requested$ = 8					; size = 4
?_Calculate_growth@?$basic_string@DU?$char_traits@D@std@@V?$allocator@D@2@@std@@ABEII@Z PROC ; std::basic_string<char,std::char_traits<char>,std::allocator<char> >::_Calculate_growth, COMDAT
; _this$ = ecx

; 4297 :     _NODISCARD size_type _Calculate_growth(const size_type _Requested) const noexcept {

  00000	55		 push	 ebp
  00001	8b ec		 mov	 ebp, esp
  00003	83 ec 24	 sub	 esp, 36			; 00000024H
  00006	89 4d ec	 mov	 DWORD PTR _this$[ebp], ecx

; 4298 :         return _Calculate_growth(_Requested, _Mypair._Myval2._Myres, max_size());

  00009	8b 4d ec	 mov	 ecx, DWORD PTR _this$[ebp]
  0000c	e8 00 00 00 00	 call	 ?max_size@?$basic_string@DU?$char_traits@D@std@@V?$allocator@D@2@@std@@QBEIXZ ; std::basic_string<char,std::char_traits<char>,std::allocator<char> >::max_size
  00011	89 45 fc	 mov	 DWORD PTR __Max$[ebp], eax
  00014	8b 45 ec	 mov	 eax, DWORD PTR _this$[ebp]
  00017	8b 40 14	 mov	 eax, DWORD PTR [eax+20]
  0001a	89 45 f8	 mov	 DWORD PTR __Old$[ebp], eax

; 4285 :         const size_type _Masked = _Requested | _ALLOC_MASK;

  0001d	8b 45 08	 mov	 eax, DWORD PTR __Requested$[ebp]
  00020	83 c8 0f	 or	 eax, 15			; 0000000fH
  00023	89 45 f4	 mov	 DWORD PTR __Masked$5[ebp], eax

; 4286 :         if (_Masked > _Max) { // the mask overflows, settle for max_size()

  00026	8b 45 f4	 mov	 eax, DWORD PTR __Masked$5[ebp]
  00029	3b 45 fc	 cmp	 eax, DWORD PTR __Max$[ebp]
  0002c	76 08		 jbe	 SHORT $LN29@Calculate_

; 4287 :             return _Max;

  0002e	8b 45 fc	 mov	 eax, DWORD PTR __Max$[ebp]
  00031	89 45 f0	 mov	 DWORD PTR $T4[ebp], eax
  00034	eb 4c		 jmp	 SHORT $LN31@Calculate_
$LN29@Calculate_:

; 4288 :         }
; 4289 : 
; 4290 :         if (_Old > _Max - _Old / 2) { // similarly, geometric overflows

  00036	8b 45 f8	 mov	 eax, DWORD PTR __Old$[ebp]
  00039	d1 e8		 shr	 eax, 1
  0003b	8b 4d fc	 mov	 ecx, DWORD PTR __Max$[ebp]
  0003e	2b c8		 sub	 ecx, eax
  00040	39 4d f8	 cmp	 DWORD PTR __Old$[ebp], ecx
  00043	76 08		 jbe	 SHORT $LN30@Calculate_

; 4291 :             return _Max;

  00045	8b 45 fc	 mov	 eax, DWORD PTR __Max$[ebp]
  00048	89 45 f0	 mov	 DWORD PTR $T4[ebp], eax
  0004b	eb 35		 jmp	 SHORT $LN31@Calculate_
$LN30@Calculate_:

; 4294 :         return (_STD max)(_Masked, _Old + _Old / 2);

  0004d	8b 45 f8	 mov	 eax, DWORD PTR __Old$[ebp]
  00050	d1 e8		 shr	 eax, 1
  00052	03 45 f8	 add	 eax, DWORD PTR __Old$[ebp]
  00055	89 45 e8	 mov	 DWORD PTR $T3[ebp], eax
; File C:\Program Files (x86)\Microsoft Visual Studio\2019\Community\VC\Tools\MSVC\14.28.29333\include\utility

; 44   :     return _Left < _Right ? _Right : _Left;

  00058	8b 45 f4	 mov	 eax, DWORD PTR __Masked$5[ebp]
  0005b	3b 45 e8	 cmp	 eax, DWORD PTR $T3[ebp]
  0005e	73 08		 jae	 SHORT $LN35@Calculate_
  00060	8d 45 e8	 lea	 eax, DWORD PTR $T3[ebp]
  00063	89 45 e4	 mov	 DWORD PTR tv93[ebp], eax
  00066	eb 06		 jmp	 SHORT $LN36@Calculate_
$LN35@Calculate_:
  00068	8d 45 f4	 lea	 eax, DWORD PTR __Masked$5[ebp]
  0006b	89 45 e4	 mov	 DWORD PTR tv93[ebp], eax
$LN36@Calculate_:
  0006e	8b 45 e4	 mov	 eax, DWORD PTR tv93[ebp]
  00071	89 45 e0	 mov	 DWORD PTR $T2[ebp], eax
  00074	8b 45 e0	 mov	 eax, DWORD PTR $T2[ebp]
  00077	89 45 dc	 mov	 DWORD PTR $T1[ebp], eax
; File C:\Program Files (x86)\Microsoft Visual Studio\2019\Community\VC\Tools\MSVC\14.28.29333\include\xstring

; 4294 :         return (_STD max)(_Masked, _Old + _Old / 2);

  0007a	8b 45 dc	 mov	 eax, DWORD PTR $T1[ebp]
  0007d	8b 00		 mov	 eax, DWORD PTR [eax]
  0007f	89 45 f0	 mov	 DWORD PTR $T4[ebp], eax
$LN31@Calculate_:

; 4298 :         return _Calculate_growth(_Requested, _Mypair._Myval2._Myres, max_size());

  00082	8b 45 f0	 mov	 eax, DWORD PTR $T4[ebp]

; 4299 :     }

  00085	c9		 leave
  00086	c2 04 00	 ret	 4
?_Calculate_growth@?$basic_string@DU?$char_traits@D@std@@V?$allocator@D@2@@std@@ABEII@Z ENDP ; std::basic_string<char,std::char_traits<char>,std::allocator<char> >::_Calculate_growth
_TEXT	ENDS
; Function compile flags: /Odspy
; File C:\Program Files (x86)\Microsoft Visual Studio\2019\Community\VC\Tools\MSVC\14.28.29333\include\xstring
; File C:\Program Files (x86)\Microsoft Visual Studio\2019\Community\VC\Tools\MSVC\14.28.29333\include\xstddef
; File C:\Program Files (x86)\Microsoft Visual Studio\2019\Community\VC\Tools\MSVC\14.28.29333\include\xstring
; File C:\Program Files (x86)\Microsoft Visual Studio\2019\Community\VC\Tools\MSVC\14.28.29333\include\utility
; File C:\Program Files (x86)\Microsoft Visual Studio\2019\Community\VC\Tools\MSVC\14.28.29333\include\xstring
;	COMDAT ?compare@?$basic_string@DU?$char_traits@D@std@@V?$allocator@D@2@@std@@QBEHQBD@Z
_TEXT	SEGMENT
$T1 = -64						; size = 4
__Count$ = -60						; size = 4
$T2 = -56						; size = 4
$T3 = -52						; size = 4
$T4 = -48						; size = 4
__Ptr$ = -44						; size = 4
__Ans$5 = -40						; size = 4
tv132 = -36						; size = 4
_this$ = -32						; size = 4
__Result$6 = -28					; size = 4
tv91 = -24						; size = 4
_this$ = -20						; size = 4
$T7 = -16						; size = 4
__Right_size$ = -12					; size = 4
__Left_size$ = -8					; size = 4
$T8 = -1						; size = 1
__Ptr$ = 8						; size = 4
?compare@?$basic_string@DU?$char_traits@D@std@@V?$allocator@D@2@@std@@QBEHQBD@Z PROC ; std::basic_string<char,std::char_traits<char>,std::allocator<char> >::compare, COMDAT
; _this$ = ecx

; 4233 :     _NODISCARD int compare(_In_z_ const _Elem* const _Ptr) const noexcept /* strengthened */ {

  00000	55		 push	 ebp
  00001	8b ec		 mov	 ebp, esp
  00003	83 ec 40	 sub	 esp, 64			; 00000040H
  00006	89 4d e0	 mov	 DWORD PTR _this$[ebp], ecx

; 389  :         return _CSTD strlen(reinterpret_cast<const char*>(_First));

  00009	ff 75 08	 push	 DWORD PTR __Ptr$[ebp]
  0000c	e8 00 00 00 00	 call	 _strlen
  00011	59		 pop	 ecx
  00012	89 45 d0	 mov	 DWORD PTR $T4[ebp], eax

; 4234 :         // compare [0, size()) with [_Ptr, <null>)
; 4235 :         return _Traits_compare<_Traits>(_Mypair._Myval2._Myptr(), _Mypair._Myval2._Mysize, _Ptr, _Traits::length(_Ptr));

  00015	8b 45 e0	 mov	 eax, DWORD PTR _this$[ebp]
  00018	89 45 ec	 mov	 DWORD PTR _this$[ebp], eax

; 2218 :         const value_type* _Result = _Bx._Buf;

  0001b	8b 45 ec	 mov	 eax, DWORD PTR _this$[ebp]
  0001e	89 45 e4	 mov	 DWORD PTR __Result$6[ebp], eax

; 2227 :         return _BUF_SIZE <= _Myres;

  00021	8b 45 ec	 mov	 eax, DWORD PTR _this$[ebp]
  00024	83 78 14 10	 cmp	 DWORD PTR [eax+20], 16	; 00000010H
  00028	72 09		 jb	 SHORT $LN12@compare
  0002a	c7 45 e8 01 00
	00 00		 mov	 DWORD PTR tv91[ebp], 1
  00031	eb 04		 jmp	 SHORT $LN13@compare
$LN12@compare:
  00033	83 65 e8 00	 and	 DWORD PTR tv91[ebp], 0
$LN13@compare:
  00037	8a 45 e8	 mov	 al, BYTE PTR tv91[ebp]
  0003a	88 45 ff	 mov	 BYTE PTR $T8[ebp], al

; 2219 :         if (_Large_string_engaged()) {

  0003d	0f b6 45 ff	 movzx	 eax, BYTE PTR $T8[ebp]
  00041	85 c0		 test	 eax, eax
  00043	74 0e		 je	 SHORT $LN7@compare

; 2220 :             _Result = _Unfancy(_Bx._Ptr);

  00045	8b 45 ec	 mov	 eax, DWORD PTR _this$[ebp]
  00048	8b 00		 mov	 eax, DWORD PTR [eax]
  0004a	89 45 d4	 mov	 DWORD PTR __Ptr$[ebp], eax
; File C:\Program Files (x86)\Microsoft Visual Studio\2019\Community\VC\Tools\MSVC\14.28.29333\include\xstddef

; 289  :     return _Ptr;

  0004d	8b 45 d4	 mov	 eax, DWORD PTR __Ptr$[ebp]
  00050	89 45 e4	 mov	 DWORD PTR __Result$6[ebp], eax
$LN7@compare:
; File C:\Program Files (x86)\Microsoft Visual Studio\2019\Community\VC\Tools\MSVC\14.28.29333\include\xstring

; 2223 :         return _Result;

  00053	8b 45 e4	 mov	 eax, DWORD PTR __Result$6[ebp]
  00056	89 45 c0	 mov	 DWORD PTR $T1[ebp], eax

; 4234 :         // compare [0, size()) with [_Ptr, <null>)
; 4235 :         return _Traits_compare<_Traits>(_Mypair._Myval2._Myptr(), _Mypair._Myval2._Mysize, _Ptr, _Traits::length(_Ptr));

  00059	8b 45 d0	 mov	 eax, DWORD PTR $T4[ebp]
  0005c	89 45 f4	 mov	 DWORD PTR __Right_size$[ebp], eax
  0005f	8b 45 e0	 mov	 eax, DWORD PTR _this$[ebp]
  00062	8b 40 10	 mov	 eax, DWORD PTR [eax+16]
  00065	89 45 f8	 mov	 DWORD PTR __Left_size$[ebp], eax
; File C:\Program Files (x86)\Microsoft Visual Studio\2019\Community\VC\Tools\MSVC\14.28.29333\include\utility

; 68   :     return _Right < _Left ? _Right : _Left;

  00068	8b 45 f4	 mov	 eax, DWORD PTR __Right_size$[ebp]
  0006b	3b 45 f8	 cmp	 eax, DWORD PTR __Left_size$[ebp]
  0006e	73 08		 jae	 SHORT $LN26@compare
  00070	8d 45 f4	 lea	 eax, DWORD PTR __Right_size$[ebp]
  00073	89 45 dc	 mov	 DWORD PTR tv132[ebp], eax
  00076	eb 06		 jmp	 SHORT $LN27@compare
$LN26@compare:
  00078	8d 45 f8	 lea	 eax, DWORD PTR __Left_size$[ebp]
  0007b	89 45 dc	 mov	 DWORD PTR tv132[ebp], eax
$LN27@compare:
  0007e	8b 45 dc	 mov	 eax, DWORD PTR tv132[ebp]
  00081	89 45 cc	 mov	 DWORD PTR $T3[ebp], eax
  00084	8b 45 cc	 mov	 eax, DWORD PTR $T3[ebp]
  00087	89 45 c8	 mov	 DWORD PTR $T2[ebp], eax
; File C:\Program Files (x86)\Microsoft Visual Studio\2019\Community\VC\Tools\MSVC\14.28.29333\include\xstring

; 568  :     const int _Ans = _Traits::compare(_Left, _Right, (_STD min)(_Left_size, _Right_size));

  0008a	8b 45 c8	 mov	 eax, DWORD PTR $T2[ebp]
  0008d	8b 00		 mov	 eax, DWORD PTR [eax]
  0008f	89 45 c4	 mov	 DWORD PTR __Count$[ebp], eax

; 369  :         return _CSTD memcmp(_First1, _First2, _Count);

  00092	ff 75 c4	 push	 DWORD PTR __Count$[ebp]
  00095	ff 75 08	 push	 DWORD PTR __Ptr$[ebp]
  00098	ff 75 c0	 push	 DWORD PTR $T1[ebp]
  0009b	e8 00 00 00 00	 call	 _memcmp
  000a0	83 c4 0c	 add	 esp, 12			; 0000000cH
  000a3	89 45 d8	 mov	 DWORD PTR __Ans$5[ebp], eax

; 570  :     if (_Ans != 0) {

  000a6	83 7d d8 00	 cmp	 DWORD PTR __Ans$5[ebp], 0
  000aa	74 08		 je	 SHORT $LN19@compare

; 571  :         return _Ans;

  000ac	8b 45 d8	 mov	 eax, DWORD PTR __Ans$5[ebp]
  000af	89 45 f0	 mov	 DWORD PTR $T7[ebp], eax
  000b2	eb 23		 jmp	 SHORT $LN22@compare
$LN19@compare:

; 572  :     }
; 573  : 
; 574  :     if (_Left_size < _Right_size) {

  000b4	8b 45 f8	 mov	 eax, DWORD PTR __Left_size$[ebp]
  000b7	3b 45 f4	 cmp	 eax, DWORD PTR __Right_size$[ebp]
  000ba	73 06		 jae	 SHORT $LN20@compare

; 575  :         return -1;

  000bc	83 4d f0 ff	 or	 DWORD PTR $T7[ebp], -1
  000c0	eb 15		 jmp	 SHORT $LN22@compare
$LN20@compare:

; 576  :     }
; 577  : 
; 578  :     if (_Left_size > _Right_size) {

  000c2	8b 45 f8	 mov	 eax, DWORD PTR __Left_size$[ebp]
  000c5	3b 45 f4	 cmp	 eax, DWORD PTR __Right_size$[ebp]
  000c8	76 09		 jbe	 SHORT $LN21@compare

; 579  :         return 1;

  000ca	c7 45 f0 01 00
	00 00		 mov	 DWORD PTR $T7[ebp], 1
  000d1	eb 04		 jmp	 SHORT $LN22@compare
$LN21@compare:

; 580  :     }
; 581  : 
; 582  :     return 0;

  000d3	83 65 f0 00	 and	 DWORD PTR $T7[ebp], 0
$LN22@compare:

; 4234 :         // compare [0, size()) with [_Ptr, <null>)
; 4235 :         return _Traits_compare<_Traits>(_Mypair._Myval2._Myptr(), _Mypair._Myval2._Mysize, _Ptr, _Traits::length(_Ptr));

  000d7	8b 45 f0	 mov	 eax, DWORD PTR $T7[ebp]

; 4236 :     }

  000da	c9		 leave
  000db	c2 04 00	 ret	 4
?compare@?$basic_string@DU?$char_traits@D@std@@V?$allocator@D@2@@std@@QBEHQBD@Z ENDP ; std::basic_string<char,std::char_traits<char>,std::allocator<char> >::compare
_TEXT	ENDS
; Function compile flags: /Odspy
; File C:\Program Files (x86)\Microsoft Visual Studio\2019\Community\VC\Tools\MSVC\14.28.29333\include\xstring
; File C:\Program Files (x86)\Microsoft Visual Studio\2019\Community\VC\Tools\MSVC\14.28.29333\include\xstddef
; File C:\Program Files (x86)\Microsoft Visual Studio\2019\Community\VC\Tools\MSVC\14.28.29333\include\xstring
; File C:\Program Files (x86)\Microsoft Visual Studio\2019\Community\VC\Tools\MSVC\14.28.29333\include\xstddef
; File C:\Program Files (x86)\Microsoft Visual Studio\2019\Community\VC\Tools\MSVC\14.28.29333\include\xstring
; File C:\Program Files (x86)\Microsoft Visual Studio\2019\Community\VC\Tools\MSVC\14.28.29333\include\utility
; File C:\Program Files (x86)\Microsoft Visual Studio\2019\Community\VC\Tools\MSVC\14.28.29333\include\xstring
;	COMDAT ?compare@?$basic_string@DU?$char_traits@D@std@@V?$allocator@D@2@@std@@QBEHABV12@@Z
_TEXT	SEGMENT
$T1 = -80						; size = 4
$T2 = -76						; size = 4
__Count$ = -72						; size = 4
$T3 = -68						; size = 4
$T4 = -64						; size = 4
__Ptr$ = -60						; size = 4
__Ptr$ = -56						; size = 4
__Ans$5 = -52						; size = 4
tv146 = -48						; size = 4
_this$ = -44						; size = 4
__Result$6 = -40					; size = 4
tv137 = -36						; size = 4
__Result$7 = -32					; size = 4
tv95 = -28						; size = 4
_this$ = -24						; size = 4
_this$ = -20						; size = 4
$T8 = -16						; size = 4
__Right_size$ = -12					; size = 4
__Left_size$ = -8					; size = 4
$T9 = -2						; size = 1
$T10 = -1						; size = 1
__Right$ = 8						; size = 4
?compare@?$basic_string@DU?$char_traits@D@std@@V?$allocator@D@2@@std@@QBEHABV12@@Z PROC ; std::basic_string<char,std::char_traits<char>,std::allocator<char> >::compare, COMDAT
; _this$ = ecx

; 4212 :     _NODISCARD int compare(const basic_string& _Right) const noexcept { // compare [0, size()) with _Right

  00000	55		 push	 ebp
  00001	8b ec		 mov	 ebp, esp
  00003	83 ec 50	 sub	 esp, 80			; 00000050H
  00006	89 4d d4	 mov	 DWORD PTR _this$[ebp], ecx

; 4213 :         return _Traits_compare<_Traits>(_Mypair._Myval2._Myptr(), _Mypair._Myval2._Mysize,

  00009	8b 45 08	 mov	 eax, DWORD PTR __Right$[ebp]
  0000c	89 45 ec	 mov	 DWORD PTR _this$[ebp], eax

; 2218 :         const value_type* _Result = _Bx._Buf;

  0000f	8b 45 ec	 mov	 eax, DWORD PTR _this$[ebp]
  00012	89 45 e0	 mov	 DWORD PTR __Result$7[ebp], eax

; 2227 :         return _BUF_SIZE <= _Myres;

  00015	8b 45 ec	 mov	 eax, DWORD PTR _this$[ebp]
  00018	83 78 14 10	 cmp	 DWORD PTR [eax+20], 16	; 00000010H
  0001c	72 09		 jb	 SHORT $LN9@compare
  0001e	c7 45 e4 01 00
	00 00		 mov	 DWORD PTR tv95[ebp], 1
  00025	eb 04		 jmp	 SHORT $LN10@compare
$LN9@compare:
  00027	83 65 e4 00	 and	 DWORD PTR tv95[ebp], 0
$LN10@compare:
  0002b	8a 45 e4	 mov	 al, BYTE PTR tv95[ebp]
  0002e	88 45 ff	 mov	 BYTE PTR $T10[ebp], al

; 2219 :         if (_Large_string_engaged()) {

  00031	0f b6 45 ff	 movzx	 eax, BYTE PTR $T10[ebp]
  00035	85 c0		 test	 eax, eax
  00037	74 0e		 je	 SHORT $LN4@compare

; 2220 :             _Result = _Unfancy(_Bx._Ptr);

  00039	8b 45 ec	 mov	 eax, DWORD PTR _this$[ebp]
  0003c	8b 00		 mov	 eax, DWORD PTR [eax]
  0003e	89 45 c8	 mov	 DWORD PTR __Ptr$[ebp], eax
; File C:\Program Files (x86)\Microsoft Visual Studio\2019\Community\VC\Tools\MSVC\14.28.29333\include\xstddef

; 289  :     return _Ptr;

  00041	8b 45 c8	 mov	 eax, DWORD PTR __Ptr$[ebp]
  00044	89 45 e0	 mov	 DWORD PTR __Result$7[ebp], eax
$LN4@compare:
; File C:\Program Files (x86)\Microsoft Visual Studio\2019\Community\VC\Tools\MSVC\14.28.29333\include\xstring

; 2223 :         return _Result;

  00047	8b 45 e0	 mov	 eax, DWORD PTR __Result$7[ebp]
  0004a	89 45 b4	 mov	 DWORD PTR $T2[ebp], eax

; 4213 :         return _Traits_compare<_Traits>(_Mypair._Myval2._Myptr(), _Mypair._Myval2._Mysize,

  0004d	8b 45 d4	 mov	 eax, DWORD PTR _this$[ebp]
  00050	89 45 e8	 mov	 DWORD PTR _this$[ebp], eax

; 2218 :         const value_type* _Result = _Bx._Buf;

  00053	8b 45 e8	 mov	 eax, DWORD PTR _this$[ebp]
  00056	89 45 d8	 mov	 DWORD PTR __Result$6[ebp], eax

; 2227 :         return _BUF_SIZE <= _Myres;

  00059	8b 45 e8	 mov	 eax, DWORD PTR _this$[ebp]
  0005c	83 78 14 10	 cmp	 DWORD PTR [eax+20], 16	; 00000010H
  00060	72 09		 jb	 SHORT $LN21@compare
  00062	c7 45 dc 01 00
	00 00		 mov	 DWORD PTR tv137[ebp], 1
  00069	eb 04		 jmp	 SHORT $LN22@compare
$LN21@compare:
  0006b	83 65 dc 00	 and	 DWORD PTR tv137[ebp], 0
$LN22@compare:
  0006f	8a 45 dc	 mov	 al, BYTE PTR tv137[ebp]
  00072	88 45 fe	 mov	 BYTE PTR $T9[ebp], al

; 2219 :         if (_Large_string_engaged()) {

  00075	0f b6 45 fe	 movzx	 eax, BYTE PTR $T9[ebp]
  00079	85 c0		 test	 eax, eax
  0007b	74 0e		 je	 SHORT $LN16@compare

; 2220 :             _Result = _Unfancy(_Bx._Ptr);

  0007d	8b 45 e8	 mov	 eax, DWORD PTR _this$[ebp]
  00080	8b 00		 mov	 eax, DWORD PTR [eax]
  00082	89 45 c4	 mov	 DWORD PTR __Ptr$[ebp], eax
; File C:\Program Files (x86)\Microsoft Visual Studio\2019\Community\VC\Tools\MSVC\14.28.29333\include\xstddef

; 289  :     return _Ptr;

  00085	8b 45 c4	 mov	 eax, DWORD PTR __Ptr$[ebp]
  00088	89 45 d8	 mov	 DWORD PTR __Result$6[ebp], eax
$LN16@compare:
; File C:\Program Files (x86)\Microsoft Visual Studio\2019\Community\VC\Tools\MSVC\14.28.29333\include\xstring

; 2223 :         return _Result;

  0008b	8b 45 d8	 mov	 eax, DWORD PTR __Result$6[ebp]
  0008e	89 45 b0	 mov	 DWORD PTR $T1[ebp], eax

; 4213 :         return _Traits_compare<_Traits>(_Mypair._Myval2._Myptr(), _Mypair._Myval2._Mysize,

  00091	8b 45 08	 mov	 eax, DWORD PTR __Right$[ebp]
  00094	8b 40 10	 mov	 eax, DWORD PTR [eax+16]
  00097	89 45 f4	 mov	 DWORD PTR __Right_size$[ebp], eax
  0009a	8b 45 d4	 mov	 eax, DWORD PTR _this$[ebp]
  0009d	8b 40 10	 mov	 eax, DWORD PTR [eax+16]
  000a0	89 45 f8	 mov	 DWORD PTR __Left_size$[ebp], eax
; File C:\Program Files (x86)\Microsoft Visual Studio\2019\Community\VC\Tools\MSVC\14.28.29333\include\utility

; 68   :     return _Right < _Left ? _Right : _Left;

  000a3	8b 45 f4	 mov	 eax, DWORD PTR __Right_size$[ebp]
  000a6	3b 45 f8	 cmp	 eax, DWORD PTR __Left_size$[ebp]
  000a9	73 08		 jae	 SHORT $LN35@compare
  000ab	8d 45 f4	 lea	 eax, DWORD PTR __Right_size$[ebp]
  000ae	89 45 d0	 mov	 DWORD PTR tv146[ebp], eax
  000b1	eb 06		 jmp	 SHORT $LN36@compare
$LN35@compare:
  000b3	8d 45 f8	 lea	 eax, DWORD PTR __Left_size$[ebp]
  000b6	89 45 d0	 mov	 DWORD PTR tv146[ebp], eax
$LN36@compare:
  000b9	8b 45 d0	 mov	 eax, DWORD PTR tv146[ebp]
  000bc	89 45 c0	 mov	 DWORD PTR $T4[ebp], eax
  000bf	8b 45 c0	 mov	 eax, DWORD PTR $T4[ebp]
  000c2	89 45 bc	 mov	 DWORD PTR $T3[ebp], eax
; File C:\Program Files (x86)\Microsoft Visual Studio\2019\Community\VC\Tools\MSVC\14.28.29333\include\xstring

; 568  :     const int _Ans = _Traits::compare(_Left, _Right, (_STD min)(_Left_size, _Right_size));

  000c5	8b 45 bc	 mov	 eax, DWORD PTR $T3[ebp]
  000c8	8b 00		 mov	 eax, DWORD PTR [eax]
  000ca	89 45 b8	 mov	 DWORD PTR __Count$[ebp], eax

; 369  :         return _CSTD memcmp(_First1, _First2, _Count);

  000cd	ff 75 b8	 push	 DWORD PTR __Count$[ebp]
  000d0	ff 75 b4	 push	 DWORD PTR $T2[ebp]
  000d3	ff 75 b0	 push	 DWORD PTR $T1[ebp]
  000d6	e8 00 00 00 00	 call	 _memcmp
  000db	83 c4 0c	 add	 esp, 12			; 0000000cH
  000de	89 45 cc	 mov	 DWORD PTR __Ans$5[ebp], eax

; 570  :     if (_Ans != 0) {

  000e1	83 7d cc 00	 cmp	 DWORD PTR __Ans$5[ebp], 0
  000e5	74 08		 je	 SHORT $LN28@compare

; 571  :         return _Ans;

  000e7	8b 45 cc	 mov	 eax, DWORD PTR __Ans$5[ebp]
  000ea	89 45 f0	 mov	 DWORD PTR $T8[ebp], eax
  000ed	eb 23		 jmp	 SHORT $LN31@compare
$LN28@compare:

; 572  :     }
; 573  : 
; 574  :     if (_Left_size < _Right_size) {

  000ef	8b 45 f8	 mov	 eax, DWORD PTR __Left_size$[ebp]
  000f2	3b 45 f4	 cmp	 eax, DWORD PTR __Right_size$[ebp]
  000f5	73 06		 jae	 SHORT $LN29@compare

; 575  :         return -1;

  000f7	83 4d f0 ff	 or	 DWORD PTR $T8[ebp], -1
  000fb	eb 15		 jmp	 SHORT $LN31@compare
$LN29@compare:

; 576  :     }
; 577  : 
; 578  :     if (_Left_size > _Right_size) {

  000fd	8b 45 f8	 mov	 eax, DWORD PTR __Left_size$[ebp]
  00100	3b 45 f4	 cmp	 eax, DWORD PTR __Right_size$[ebp]
  00103	76 09		 jbe	 SHORT $LN30@compare

; 579  :         return 1;

  00105	c7 45 f0 01 00
	00 00		 mov	 DWORD PTR $T8[ebp], 1
  0010c	eb 04		 jmp	 SHORT $LN31@compare
$LN30@compare:

; 580  :     }
; 581  : 
; 582  :     return 0;

  0010e	83 65 f0 00	 and	 DWORD PTR $T8[ebp], 0
$LN31@compare:

; 4213 :         return _Traits_compare<_Traits>(_Mypair._Myval2._Myptr(), _Mypair._Myval2._Mysize,

  00112	8b 45 f0	 mov	 eax, DWORD PTR $T8[ebp]

; 4214 :             _Right._Mypair._Myval2._Myptr(), _Right._Mypair._Myval2._Mysize);
; 4215 :     }

  00115	c9		 leave
  00116	c2 04 00	 ret	 4
?compare@?$basic_string@DU?$char_traits@D@std@@V?$allocator@D@2@@std@@QBEHABV12@@Z ENDP ; std::basic_string<char,std::char_traits<char>,std::allocator<char> >::compare
_TEXT	ENDS
; Function compile flags: /Odspy
; File C:\Program Files (x86)\Microsoft Visual Studio\2019\Community\VC\Tools\MSVC\14.28.29333\include\xstring
; File C:\Program Files (x86)\Microsoft Visual Studio\2019\Community\VC\Tools\MSVC\14.28.29333\include\xmemory
; File C:\Program Files (x86)\Microsoft Visual Studio\2019\Community\VC\Tools\MSVC\14.28.29333\include\xstring
; File C:\Program Files (x86)\Microsoft Visual Studio\2019\Community\VC\Tools\MSVC\14.28.29333\include\xmemory
; File C:\Program Files (x86)\Microsoft Visual Studio\2019\Community\VC\Tools\MSVC\14.28.29333\include\xstring
; File C:\Program Files (x86)\Microsoft Visual Studio\2019\Community\VC\Tools\MSVC\14.28.29333\include\utility
; File C:\Program Files (x86)\Microsoft Visual Studio\2019\Community\VC\Tools\MSVC\14.28.29333\include\xstring
; File C:\Program Files (x86)\Microsoft Visual Studio\2019\Community\VC\Tools\MSVC\14.28.29333\include\limits
; File C:\Program Files (x86)\Microsoft Visual Studio\2019\Community\VC\Tools\MSVC\14.28.29333\include\xstring
; File C:\Program Files (x86)\Microsoft Visual Studio\2019\Community\VC\Tools\MSVC\14.28.29333\include\utility
; File C:\Program Files (x86)\Microsoft Visual Studio\2019\Community\VC\Tools\MSVC\14.28.29333\include\xstring
;	COMDAT ?max_size@?$basic_string@DU?$char_traits@D@std@@V?$allocator@D@2@@std@@QBEIXZ
_TEXT	SEGMENT
$T1 = -60						; size = 4
$T2 = -56						; size = 4
$T3 = -52						; size = 4
$T4 = -48						; size = 4
__Storage_max$ = -44					; size = 4
$T5 = -40						; size = 4
$T6 = -36						; size = 4
$T7 = -32						; size = 4
_this$ = -28						; size = 4
tv70 = -24						; size = 4
$T8 = -20						; size = 4
$T9 = -16						; size = 4
tv67 = -12						; size = 4
__Alloc_max$ = -8					; size = 4
$T10 = -4						; size = 4
?max_size@?$basic_string@DU?$char_traits@D@std@@V?$allocator@D@2@@std@@QBEIXZ PROC ; std::basic_string<char,std::char_traits<char>,std::allocator<char> >::max_size, COMDAT
; _this$ = ecx

; 3773 :     _NODISCARD size_type max_size() const noexcept {

  00000	55		 push	 ebp
  00001	8b ec		 mov	 ebp, esp
  00003	83 ec 3c	 sub	 esp, 60			; 0000003cH
  00006	89 4d e4	 mov	 DWORD PTR _this$[ebp], ecx

; 4413 :         return _Mypair._Get_first();

  00009	8b 45 e4	 mov	 eax, DWORD PTR _this$[ebp]
; File C:\Program Files (x86)\Microsoft Visual Studio\2019\Community\VC\Tools\MSVC\14.28.29333\include\xmemory

; 1351 :         return *this;

  0000c	89 45 e0	 mov	 DWORD PTR $T7[ebp], eax
; File C:\Program Files (x86)\Microsoft Visual Studio\2019\Community\VC\Tools\MSVC\14.28.29333\include\xstring

; 4413 :         return _Mypair._Get_first();

  0000f	8b 45 e0	 mov	 eax, DWORD PTR $T7[ebp]
  00012	89 45 c4	 mov	 DWORD PTR $T1[ebp], eax
; File C:\Program Files (x86)\Microsoft Visual Studio\2019\Community\VC\Tools\MSVC\14.28.29333\include\xmemory

; 710  :         return static_cast<size_t>(-1) / sizeof(value_type);

  00015	83 4d f8 ff	 or	 DWORD PTR __Alloc_max$[ebp], -1
; File C:\Program Files (x86)\Microsoft Visual Studio\2019\Community\VC\Tools\MSVC\14.28.29333\include\xstring

; 3775 :         const size_type _Storage_max = // can always store small string

  00019	c7 45 fc 10 00
	00 00		 mov	 DWORD PTR $T10[ebp], 16	; 00000010H
; File C:\Program Files (x86)\Microsoft Visual Studio\2019\Community\VC\Tools\MSVC\14.28.29333\include\utility

; 44   :     return _Left < _Right ? _Right : _Left;

  00020	8b 45 f8	 mov	 eax, DWORD PTR __Alloc_max$[ebp]
  00023	3b 45 fc	 cmp	 eax, DWORD PTR $T10[ebp]
  00026	73 08		 jae	 SHORT $LN14@max_size
  00028	8d 45 fc	 lea	 eax, DWORD PTR $T10[ebp]
  0002b	89 45 f4	 mov	 DWORD PTR tv67[ebp], eax
  0002e	eb 06		 jmp	 SHORT $LN15@max_size
$LN14@max_size:
  00030	8d 45 f8	 lea	 eax, DWORD PTR __Alloc_max$[ebp]
  00033	89 45 f4	 mov	 DWORD PTR tv67[ebp], eax
$LN15@max_size:
  00036	8b 45 f4	 mov	 eax, DWORD PTR tv67[ebp]
  00039	89 45 dc	 mov	 DWORD PTR $T6[ebp], eax
  0003c	8b 45 dc	 mov	 eax, DWORD PTR $T6[ebp]
  0003f	89 45 d8	 mov	 DWORD PTR $T5[ebp], eax
; File C:\Program Files (x86)\Microsoft Visual Studio\2019\Community\VC\Tools\MSVC\14.28.29333\include\xstring

; 3775 :         const size_type _Storage_max = // can always store small string

  00042	8b 45 d8	 mov	 eax, DWORD PTR $T5[ebp]
  00045	8b 00		 mov	 eax, DWORD PTR [eax]
  00047	89 45 d4	 mov	 DWORD PTR __Storage_max$[ebp], eax

; 3777 :         return (_STD min)(static_cast<size_type>((numeric_limits<difference_type>::max)()),

  0004a	8b 45 d4	 mov	 eax, DWORD PTR __Storage_max$[ebp]
  0004d	48		 dec	 eax
  0004e	89 45 f0	 mov	 DWORD PTR $T9[ebp], eax
; File C:\Program Files (x86)\Microsoft Visual Studio\2019\Community\VC\Tools\MSVC\14.28.29333\include\limits

; 557  :         return INT_MAX;

  00051	c7 45 d0 ff ff
	ff 7f		 mov	 DWORD PTR $T4[ebp], 2147483647 ; 7fffffffH
; File C:\Program Files (x86)\Microsoft Visual Studio\2019\Community\VC\Tools\MSVC\14.28.29333\include\xstring

; 3777 :         return (_STD min)(static_cast<size_type>((numeric_limits<difference_type>::max)()),

  00058	8b 45 d0	 mov	 eax, DWORD PTR $T4[ebp]
  0005b	89 45 ec	 mov	 DWORD PTR $T8[ebp], eax
; File C:\Program Files (x86)\Microsoft Visual Studio\2019\Community\VC\Tools\MSVC\14.28.29333\include\utility

; 68   :     return _Right < _Left ? _Right : _Left;

  0005e	8b 45 f0	 mov	 eax, DWORD PTR $T9[ebp]
  00061	3b 45 ec	 cmp	 eax, DWORD PTR $T8[ebp]
  00064	73 08		 jae	 SHORT $LN22@max_size
  00066	8d 45 f0	 lea	 eax, DWORD PTR $T9[ebp]
  00069	89 45 e8	 mov	 DWORD PTR tv70[ebp], eax
  0006c	eb 06		 jmp	 SHORT $LN23@max_size
$LN22@max_size:
  0006e	8d 45 ec	 lea	 eax, DWORD PTR $T8[ebp]
  00071	89 45 e8	 mov	 DWORD PTR tv70[ebp], eax
$LN23@max_size:
  00074	8b 45 e8	 mov	 eax, DWORD PTR tv70[ebp]
  00077	89 45 cc	 mov	 DWORD PTR $T3[ebp], eax
  0007a	8b 45 cc	 mov	 eax, DWORD PTR $T3[ebp]
  0007d	89 45 c8	 mov	 DWORD PTR $T2[ebp], eax
; File C:\Program Files (x86)\Microsoft Visual Studio\2019\Community\VC\Tools\MSVC\14.28.29333\include\xstring

; 3777 :         return (_STD min)(static_cast<size_type>((numeric_limits<difference_type>::max)()),

  00080	8b 45 c8	 mov	 eax, DWORD PTR $T2[ebp]
  00083	8b 00		 mov	 eax, DWORD PTR [eax]

; 3778 :             _Storage_max - 1 // -1 is for null terminator and/or npos
; 3779 :         );
; 3780 :     }

  00085	c9		 leave
  00086	c3		 ret	 0
?max_size@?$basic_string@DU?$char_traits@D@std@@V?$allocator@D@2@@std@@QBEIXZ ENDP ; std::basic_string<char,std::char_traits<char>,std::allocator<char> >::max_size
_TEXT	ENDS
; Function compile flags: /Odspy
; File C:\Program Files (x86)\Microsoft Visual Studio\2019\Community\VC\Tools\MSVC\14.28.29333\include\xstring
; File C:\Program Files (x86)\Microsoft Visual Studio\2019\Community\VC\Tools\MSVC\14.28.29333\include\xstddef
; File C:\Program Files (x86)\Microsoft Visual Studio\2019\Community\VC\Tools\MSVC\14.28.29333\include\xstring
;	COMDAT ?c_str@?$basic_string@DU?$char_traits@D@std@@V?$allocator@D@2@@std@@QBEPBDXZ
_TEXT	SEGMENT
$T1 = -28						; size = 4
__Ptr$ = -24						; size = 4
_this$ = -20						; size = 4
__Result$2 = -16					; size = 4
tv80 = -12						; size = 4
_this$ = -8						; size = 4
$T3 = -1						; size = 1
?c_str@?$basic_string@DU?$char_traits@D@std@@V?$allocator@D@2@@std@@QBEPBDXZ PROC ; std::basic_string<char,std::char_traits<char>,std::allocator<char> >::c_str, COMDAT
; _this$ = ecx

; 3751 :     _NODISCARD _Ret_z_ const _Elem* c_str() const noexcept {

  00000	55		 push	 ebp
  00001	8b ec		 mov	 ebp, esp
  00003	83 ec 1c	 sub	 esp, 28			; 0000001cH
  00006	89 4d ec	 mov	 DWORD PTR _this$[ebp], ecx

; 3752 :         return _Mypair._Myval2._Myptr();

  00009	8b 45 ec	 mov	 eax, DWORD PTR _this$[ebp]
  0000c	89 45 f8	 mov	 DWORD PTR _this$[ebp], eax

; 2218 :         const value_type* _Result = _Bx._Buf;

  0000f	8b 45 f8	 mov	 eax, DWORD PTR _this$[ebp]
  00012	89 45 f0	 mov	 DWORD PTR __Result$2[ebp], eax

; 2227 :         return _BUF_SIZE <= _Myres;

  00015	8b 45 f8	 mov	 eax, DWORD PTR _this$[ebp]
  00018	83 78 14 10	 cmp	 DWORD PTR [eax+20], 16	; 00000010H
  0001c	72 09		 jb	 SHORT $LN9@c_str
  0001e	c7 45 f4 01 00
	00 00		 mov	 DWORD PTR tv80[ebp], 1
  00025	eb 04		 jmp	 SHORT $LN10@c_str
$LN9@c_str:
  00027	83 65 f4 00	 and	 DWORD PTR tv80[ebp], 0
$LN10@c_str:
  0002b	8a 45 f4	 mov	 al, BYTE PTR tv80[ebp]
  0002e	88 45 ff	 mov	 BYTE PTR $T3[ebp], al

; 2219 :         if (_Large_string_engaged()) {

  00031	0f b6 45 ff	 movzx	 eax, BYTE PTR $T3[ebp]
  00035	85 c0		 test	 eax, eax
  00037	74 0e		 je	 SHORT $LN4@c_str

; 2220 :             _Result = _Unfancy(_Bx._Ptr);

  00039	8b 45 f8	 mov	 eax, DWORD PTR _this$[ebp]
  0003c	8b 00		 mov	 eax, DWORD PTR [eax]
  0003e	89 45 e8	 mov	 DWORD PTR __Ptr$[ebp], eax
; File C:\Program Files (x86)\Microsoft Visual Studio\2019\Community\VC\Tools\MSVC\14.28.29333\include\xstddef

; 289  :     return _Ptr;

  00041	8b 45 e8	 mov	 eax, DWORD PTR __Ptr$[ebp]
  00044	89 45 f0	 mov	 DWORD PTR __Result$2[ebp], eax
$LN4@c_str:
; File C:\Program Files (x86)\Microsoft Visual Studio\2019\Community\VC\Tools\MSVC\14.28.29333\include\xstring

; 2223 :         return _Result;

  00047	8b 45 f0	 mov	 eax, DWORD PTR __Result$2[ebp]
  0004a	89 45 e4	 mov	 DWORD PTR $T1[ebp], eax

; 3752 :         return _Mypair._Myval2._Myptr();

  0004d	8b 45 e4	 mov	 eax, DWORD PTR $T1[ebp]

; 3753 :     }

  00050	c9		 leave
  00051	c3		 ret	 0
?c_str@?$basic_string@DU?$char_traits@D@std@@V?$allocator@D@2@@std@@QBEPBDXZ ENDP ; std::basic_string<char,std::char_traits<char>,std::allocator<char> >::c_str
_TEXT	ENDS
; Function compile flags: /Odspy
; File C:\Program Files (x86)\Microsoft Visual Studio\2019\Community\VC\Tools\MSVC\14.28.29333\include\xstring
;	COMDAT ?assign@?$basic_string@DU?$char_traits@D@std@@V?$allocator@D@2@@std@@QAEAAV12@QBDI@Z
_TEXT	SEGMENT
$T1 = -16						; size = 1
__Old_ptr$2 = -12					; size = 4
_this$ = -8						; size = 4
$T3 = -1						; size = 1
__Ptr$ = 8						; size = 4
__Count$ = 12						; size = 4
?assign@?$basic_string@DU?$char_traits@D@std@@V?$allocator@D@2@@std@@QAEAAV12@QBDI@Z PROC ; std::basic_string<char,std::char_traits<char>,std::allocator<char> >::assign, COMDAT
; _this$ = ecx

; 3042 :     basic_string& assign(_In_reads_(_Count) const _Elem* const _Ptr, _CRT_GUARDOVERFLOW const size_type _Count) {

  00000	55		 push	 ebp
  00001	8b ec		 mov	 ebp, esp
  00003	83 ec 10	 sub	 esp, 16			; 00000010H
  00006	89 4d f8	 mov	 DWORD PTR _this$[ebp], ecx

; 3043 :         // assign [_Ptr, _Ptr + _Count)
; 3044 :         if (_Count <= _Mypair._Myval2._Myres) {

  00009	8b 45 f8	 mov	 eax, DWORD PTR _this$[ebp]
  0000c	8b 4d 0c	 mov	 ecx, DWORD PTR __Count$[ebp]
  0000f	3b 48 14	 cmp	 ecx, DWORD PTR [eax+20]
  00012	77 39		 ja	 SHORT $LN2@assign

; 3045 :             _Elem* const _Old_ptr   = _Mypair._Myval2._Myptr();

  00014	8b 4d f8	 mov	 ecx, DWORD PTR _this$[ebp]
  00017	e8 00 00 00 00	 call	 ?_Myptr@?$_String_val@U?$_Simple_types@D@std@@@std@@QAEPADXZ ; std::_String_val<std::_Simple_types<char> >::_Myptr
  0001c	89 45 f4	 mov	 DWORD PTR __Old_ptr$2[ebp], eax

; 3046 :             _Mypair._Myval2._Mysize = _Count;

  0001f	8b 45 f8	 mov	 eax, DWORD PTR _this$[ebp]
  00022	8b 4d 0c	 mov	 ecx, DWORD PTR __Count$[ebp]
  00025	89 48 10	 mov	 DWORD PTR [eax+16], ecx

; 119  :         _CSTD memmove(_First1, _First2, _Count * sizeof(_Elem));

  00028	ff 75 0c	 push	 DWORD PTR __Count$[ebp]
  0002b	ff 75 08	 push	 DWORD PTR __Ptr$[ebp]
  0002e	ff 75 f4	 push	 DWORD PTR __Old_ptr$2[ebp]
  00031	e8 00 00 00 00	 call	 _memmove
  00036	83 c4 0c	 add	 esp, 12			; 0000000cH

; 3047 :             _Traits::move(_Old_ptr, _Ptr, _Count);
; 3048 :             _Traits::assign(_Old_ptr[_Count], _Elem());

  00039	c6 45 ff 00	 mov	 BYTE PTR $T3[ebp], 0

; 428  :         _Left = _Right;

  0003d	8b 45 f4	 mov	 eax, DWORD PTR __Old_ptr$2[ebp]
  00040	03 45 0c	 add	 eax, DWORD PTR __Count$[ebp]
  00043	8a 4d ff	 mov	 cl, BYTE PTR $T3[ebp]
  00046	88 08		 mov	 BYTE PTR [eax], cl

; 3049 :             return *this;

  00048	8b 45 f8	 mov	 eax, DWORD PTR _this$[ebp]
  0004b	eb 16		 jmp	 SHORT $LN1@assign
$LN2@assign:

; 3050 :         }
; 3051 : 
; 3052 :         return _Reallocate_for(

  0004d	33 c0		 xor	 eax, eax
  0004f	88 45 f0	 mov	 BYTE PTR $T1[ebp], al
  00052	ff 75 08	 push	 DWORD PTR __Ptr$[ebp]
  00055	ff 75 f0	 push	 DWORD PTR $T1[ebp]
  00058	ff 75 0c	 push	 DWORD PTR __Count$[ebp]
  0005b	8b 4d f8	 mov	 ecx, DWORD PTR _this$[ebp]
  0005e	e8 00 00 00 00	 call	 ??$_Reallocate_for@V<lambda_9366063389c5f42a00a5088cf24e69de>@@PBD@?$basic_string@DU?$char_traits@D@std@@V?$allocator@D@2@@std@@AAEAAV01@IV<lambda_9366063389c5f42a00a5088cf24e69de>@@PBD@Z ; std::basic_string<char,std::char_traits<char>,std::allocator<char> >::_Reallocate_for<<lambda_9366063389c5f42a00a5088cf24e69de>,char const *>
$LN1@assign:

; 3053 :             _Count,
; 3054 :             [](_Elem* const _New_ptr, const size_type _Count, const _Elem* const _Ptr) {
; 3055 :                 _Traits::copy(_New_ptr, _Ptr, _Count);
; 3056 :                 _Traits::assign(_New_ptr[_Count], _Elem());
; 3057 :             },
; 3058 :             _Ptr);
; 3059 :     }

  00063	c9		 leave
  00064	c2 08 00	 ret	 8
?assign@?$basic_string@DU?$char_traits@D@std@@V?$allocator@D@2@@std@@QAEAAV12@QBDI@Z ENDP ; std::basic_string<char,std::char_traits<char>,std::allocator<char> >::assign
_TEXT	ENDS
; Function compile flags: /Odspy
; File C:\Program Files (x86)\Microsoft Visual Studio\2019\Community\VC\Tools\MSVC\14.28.29333\include\xstring
; File C:\Program Files (x86)\Microsoft Visual Studio\2019\Community\VC\Tools\MSVC\14.28.29333\include\xmemory
; File C:\Program Files (x86)\Microsoft Visual Studio\2019\Community\VC\Tools\MSVC\14.28.29333\include\xstring
; File C:\Program Files (x86)\Microsoft Visual Studio\2019\Community\VC\Tools\MSVC\14.28.29333\include\xmemory
; File C:\Program Files (x86)\Microsoft Visual Studio\2019\Community\VC\Tools\MSVC\14.28.29333\include\xstring
; File C:\Program Files (x86)\Microsoft Visual Studio\2019\Community\VC\Tools\MSVC\14.28.29333\include\xstddef
; File C:\Program Files (x86)\Microsoft Visual Studio\2019\Community\VC\Tools\MSVC\14.28.29333\include\xstring
;	COMDAT ?_Copy_assign@?$basic_string@DU?$char_traits@D@std@@V?$allocator@D@2@@std@@AAEXABV12@U?$integral_constant@_N$0A@@2@@Z
_TEXT	SEGMENT
$T1 = -44						; size = 4
__Ptr$ = -40						; size = 4
$T2 = -36						; size = 4
$T3 = -32						; size = 4
$T4 = -28						; size = 4
$T5 = -24						; size = 4
_this$ = -20						; size = 4
__Result$6 = -16					; size = 4
tv134 = -12						; size = 4
_this$ = -8						; size = 4
$T7 = -1						; size = 1
__Right$ = 8						; size = 4
___formal$ = 12						; size = 1
?_Copy_assign@?$basic_string@DU?$char_traits@D@std@@V?$allocator@D@2@@std@@AAEXABV12@U?$integral_constant@_N$0A@@2@@Z PROC ; std::basic_string<char,std::char_traits<char>,std::allocator<char> >::_Copy_assign, COMDAT
; _this$ = ecx

; 2826 :     void _Copy_assign(const basic_string& _Right, false_type) {

  00000	55		 push	 ebp
  00001	8b ec		 mov	 ebp, esp
  00003	83 ec 2c	 sub	 esp, 44			; 0000002cH
  00006	89 4d ec	 mov	 DWORD PTR _this$[ebp], ecx

; 4413 :         return _Mypair._Get_first();

  00009	8b 45 08	 mov	 eax, DWORD PTR __Right$[ebp]
; File C:\Program Files (x86)\Microsoft Visual Studio\2019\Community\VC\Tools\MSVC\14.28.29333\include\xmemory

; 1351 :         return *this;

  0000c	89 45 e8	 mov	 DWORD PTR $T5[ebp], eax
; File C:\Program Files (x86)\Microsoft Visual Studio\2019\Community\VC\Tools\MSVC\14.28.29333\include\xstring

; 4413 :         return _Mypair._Get_first();

  0000f	8b 45 e8	 mov	 eax, DWORD PTR $T5[ebp]
  00012	89 45 e0	 mov	 DWORD PTR $T3[ebp], eax

; 4409 :         return _Mypair._Get_first();

  00015	8b 45 ec	 mov	 eax, DWORD PTR _this$[ebp]
; File C:\Program Files (x86)\Microsoft Visual Studio\2019\Community\VC\Tools\MSVC\14.28.29333\include\xmemory

; 1347 :         return *this;

  00018	89 45 e4	 mov	 DWORD PTR $T4[ebp], eax
; File C:\Program Files (x86)\Microsoft Visual Studio\2019\Community\VC\Tools\MSVC\14.28.29333\include\xstring

; 4409 :         return _Mypair._Get_first();

  0001b	8b 45 e4	 mov	 eax, DWORD PTR $T4[ebp]
  0001e	89 45 dc	 mov	 DWORD PTR $T2[ebp], eax

; 2827 :         _Pocca(_Getal(), _Right._Getal());

  00021	ff 75 e0	 push	 DWORD PTR $T3[ebp]
  00024	ff 75 dc	 push	 DWORD PTR $T2[ebp]
  00027	e8 00 00 00 00	 call	 ??$_Pocca@V?$allocator@D@std@@@std@@YAXAAV?$allocator@D@0@ABV10@@Z ; std::_Pocca<std::allocator<char> >
  0002c	59		 pop	 ecx
  0002d	59		 pop	 ecx

; 2828 :         assign(_Right._Mypair._Myval2._Myptr(), _Right._Mypair._Myval2._Mysize);

  0002e	8b 45 08	 mov	 eax, DWORD PTR __Right$[ebp]
  00031	89 45 f8	 mov	 DWORD PTR _this$[ebp], eax

; 2218 :         const value_type* _Result = _Bx._Buf;

  00034	8b 45 f8	 mov	 eax, DWORD PTR _this$[ebp]
  00037	89 45 f0	 mov	 DWORD PTR __Result$6[ebp], eax

; 2227 :         return _BUF_SIZE <= _Myres;

  0003a	8b 45 f8	 mov	 eax, DWORD PTR _this$[ebp]
  0003d	83 78 14 10	 cmp	 DWORD PTR [eax+20], 16	; 00000010H
  00041	72 09		 jb	 SHORT $LN21@Copy_assig
  00043	c7 45 f4 01 00
	00 00		 mov	 DWORD PTR tv134[ebp], 1
  0004a	eb 04		 jmp	 SHORT $LN22@Copy_assig
$LN21@Copy_assig:
  0004c	83 65 f4 00	 and	 DWORD PTR tv134[ebp], 0
$LN22@Copy_assig:
  00050	8a 45 f4	 mov	 al, BYTE PTR tv134[ebp]
  00053	88 45 ff	 mov	 BYTE PTR $T7[ebp], al

; 2219 :         if (_Large_string_engaged()) {

  00056	0f b6 45 ff	 movzx	 eax, BYTE PTR $T7[ebp]
  0005a	85 c0		 test	 eax, eax
  0005c	74 0e		 je	 SHORT $LN16@Copy_assig

; 2220 :             _Result = _Unfancy(_Bx._Ptr);

  0005e	8b 45 f8	 mov	 eax, DWORD PTR _this$[ebp]
  00061	8b 00		 mov	 eax, DWORD PTR [eax]
  00063	89 45 d8	 mov	 DWORD PTR __Ptr$[ebp], eax
; File C:\Program Files (x86)\Microsoft Visual Studio\2019\Community\VC\Tools\MSVC\14.28.29333\include\xstddef

; 289  :     return _Ptr;

  00066	8b 45 d8	 mov	 eax, DWORD PTR __Ptr$[ebp]
  00069	89 45 f0	 mov	 DWORD PTR __Result$6[ebp], eax
$LN16@Copy_assig:
; File C:\Program Files (x86)\Microsoft Visual Studio\2019\Community\VC\Tools\MSVC\14.28.29333\include\xstring

; 2223 :         return _Result;

  0006c	8b 45 f0	 mov	 eax, DWORD PTR __Result$6[ebp]
  0006f	89 45 d4	 mov	 DWORD PTR $T1[ebp], eax

; 2828 :         assign(_Right._Mypair._Myval2._Myptr(), _Right._Mypair._Myval2._Mysize);

  00072	8b 45 08	 mov	 eax, DWORD PTR __Right$[ebp]
  00075	ff 70 10	 push	 DWORD PTR [eax+16]
  00078	ff 75 d4	 push	 DWORD PTR $T1[ebp]
  0007b	8b 4d ec	 mov	 ecx, DWORD PTR _this$[ebp]
  0007e	e8 00 00 00 00	 call	 ?assign@?$basic_string@DU?$char_traits@D@std@@V?$allocator@D@2@@std@@QAEAAV12@QBDI@Z ; std::basic_string<char,std::char_traits<char>,std::allocator<char> >::assign

; 2829 :     }

  00083	c9		 leave
  00084	c2 08 00	 ret	 8
?_Copy_assign@?$basic_string@DU?$char_traits@D@std@@V?$allocator@D@2@@std@@AAEXABV12@U?$integral_constant@_N$0A@@2@@Z ENDP ; std::basic_string<char,std::char_traits<char>,std::allocator<char> >::_Copy_assign
_TEXT	ENDS
; Function compile flags: /Odspy
; File C:\Program Files (x86)\Microsoft Visual Studio\2019\Community\VC\Tools\MSVC\14.28.29333\include\xstring
;	COMDAT ??1?$basic_string@DU?$char_traits@D@std@@V?$allocator@D@2@@std@@QAE@XZ
_TEXT	SEGMENT
_this$ = -4						; size = 4
??1?$basic_string@DU?$char_traits@D@std@@V?$allocator@D@2@@std@@QAE@XZ PROC ; std::basic_string<char,std::char_traits<char>,std::allocator<char> >::~basic_string<char,std::char_traits<char>,std::allocator<char> >, COMDAT
; _this$ = ecx

; 2800 :     ~basic_string() noexcept {

  00000	55		 push	 ebp
  00001	8b ec		 mov	 ebp, esp
  00003	51		 push	 ecx
  00004	89 4d fc	 mov	 DWORD PTR _this$[ebp], ecx

; 2801 :         _Tidy_deallocate();

  00007	8b 4d fc	 mov	 ecx, DWORD PTR _this$[ebp]
  0000a	e8 00 00 00 00	 call	 ?_Tidy_deallocate@?$basic_string@DU?$char_traits@D@std@@V?$allocator@D@2@@std@@AAEXXZ ; std::basic_string<char,std::char_traits<char>,std::allocator<char> >::_Tidy_deallocate

; 2802 : #if _ITERATOR_DEBUG_LEVEL != 0
; 2803 :         auto&& _Alproxy          = _GET_PROXY_ALLOCATOR(_Alty, _Getal());
; 2804 :         const auto _To_delete    = _Mypair._Myval2._Myproxy;
; 2805 :         _Mypair._Myval2._Myproxy = nullptr;
; 2806 :         _Delete_plain_internal(_Alproxy, _To_delete);
; 2807 : #endif // _ITERATOR_DEBUG_LEVEL != 0
; 2808 :     }

  0000f	c9		 leave
  00010	c3		 ret	 0
??1?$basic_string@DU?$char_traits@D@std@@V?$allocator@D@2@@std@@QAE@XZ ENDP ; std::basic_string<char,std::char_traits<char>,std::allocator<char> >::~basic_string<char,std::char_traits<char>,std::allocator<char> >
_TEXT	ENDS
; Function compile flags: /Odspy
; File C:\Program Files (x86)\Microsoft Visual Studio\2019\Community\VC\Tools\MSVC\14.28.29333\include\xstring
; File C:\Program Files (x86)\Microsoft Visual Studio\2019\Community\VC\Tools\MSVC\14.28.29333\include\xmemory
; File C:\Program Files (x86)\Microsoft Visual Studio\2019\Community\VC\Tools\MSVC\14.28.29333\include\xstring
; File C:\Program Files (x86)\Microsoft Visual Studio\2019\Community\VC\Tools\MSVC\14.28.29333\include\utility
; File C:\Program Files (x86)\Microsoft Visual Studio\2019\Community\VC\Tools\MSVC\14.28.29333\include\xstring
; File C:\Program Files (x86)\Microsoft Visual Studio\2019\Community\VC\Tools\MSVC\14.28.29333\include\xmemory
; File C:\Program Files (x86)\Microsoft Visual Studio\2019\Community\VC\Tools\MSVC\14.28.29333\include\xstring
; File C:\Program Files (x86)\Microsoft Visual Studio\2019\Community\VC\Tools\MSVC\14.28.29333\include\xmemory
; File C:\Program Files (x86)\Microsoft Visual Studio\2019\Community\VC\Tools\MSVC\14.28.29333\include\xstring
; File C:\Program Files (x86)\Microsoft Visual Studio\2019\Community\VC\Tools\MSVC\14.28.29333\include\xstddef
; File C:\Program Files (x86)\Microsoft Visual Studio\2019\Community\VC\Tools\MSVC\14.28.29333\include\xstring
;	COMDAT ?_Construct_lv_contents@?$basic_string@DU?$char_traits@D@std@@V?$allocator@D@2@@std@@AAEXABV12@@Z
_TEXT	SEGMENT
__Al$ = -72						; size = 4
$T1 = -68						; size = 4
__Ptr$ = -64						; size = 4
$T2 = -60						; size = 4
$T3 = -56						; size = 4
$T4 = -52						; size = 4
__First1$ = -48						; size = 4
__New_capacity$ = -44					; size = 4
__Right_ptr$ = -40					; size = 4
__New_array$ = -36					; size = 4
tv138 = -32						; size = 4
$T5 = -28						; size = 4
$T6 = -24						; size = 4
__Right_data$ = -20					; size = 4
_this$ = -16						; size = 4
__Right_size$ = -12					; size = 4
__My_data$ = -8						; size = 4
__Overflow_is_possible$7 = -1				; size = 1
__Right$ = 8						; size = 4
?_Construct_lv_contents@?$basic_string@DU?$char_traits@D@std@@V?$allocator@D@2@@std@@AAEXABV12@@Z PROC ; std::basic_string<char,std::char_traits<char>,std::allocator<char> >::_Construct_lv_contents, COMDAT
; _this$ = ecx

; 2728 :     void _Construct_lv_contents(const basic_string& _Right) {

  00000	55		 push	 ebp
  00001	8b ec		 mov	 ebp, esp
  00003	83 ec 48	 sub	 esp, 72			; 00000048H
  00006	89 4d f0	 mov	 DWORD PTR _this$[ebp], ecx

; 2729 :         // assign by copying data stored in _Right
; 2730 :         // pre: this != &_Right
; 2731 :         // pre: *this owns no memory, iterators orphaned (note:
; 2732 :         // _Buf/_Ptr/_Mysize/_Myres may be garbage init)
; 2733 :         auto& _Right_data             = _Right._Mypair._Myval2;

  00009	8b 45 08	 mov	 eax, DWORD PTR __Right$[ebp]
  0000c	89 45 ec	 mov	 DWORD PTR __Right_data$[ebp], eax

; 2734 :         const size_type _Right_size   = _Right_data._Mysize;

  0000f	8b 45 ec	 mov	 eax, DWORD PTR __Right_data$[ebp]
  00012	8b 40 10	 mov	 eax, DWORD PTR [eax+16]
  00015	89 45 f4	 mov	 DWORD PTR __Right_size$[ebp], eax

; 2735 :         const _Elem* const _Right_ptr = _Right_data._Myptr();

  00018	8b 4d ec	 mov	 ecx, DWORD PTR __Right_data$[ebp]
  0001b	e8 00 00 00 00	 call	 ?_Myptr@?$_String_val@U?$_Simple_types@D@std@@@std@@QBEPBDXZ ; std::_String_val<std::_Simple_types<char> >::_Myptr
  00020	89 45 d8	 mov	 DWORD PTR __Right_ptr$[ebp], eax

; 2736 :         auto& _My_data                = _Mypair._Myval2;

  00023	8b 45 f0	 mov	 eax, DWORD PTR _this$[ebp]
  00026	89 45 f8	 mov	 DWORD PTR __My_data$[ebp], eax

; 2737 :         if (_Right_size < _BUF_SIZE) { // stay small, don't allocate

  00029	83 7d f4 10	 cmp	 DWORD PTR __Right_size$[ebp], 16 ; 00000010H
  0002d	73 2e		 jae	 SHORT $LN2@Construct_

; 2738 :             _Traits::copy(_My_data._Bx._Buf, _Right_ptr, _BUF_SIZE);

  0002f	8b 45 f8	 mov	 eax, DWORD PTR __My_data$[ebp]
  00032	89 45 d0	 mov	 DWORD PTR __First1$[ebp], eax

; 62   :         _CSTD memcpy(_First1, _First2, _Count * sizeof(_Elem));

  00035	6a 10		 push	 16			; 00000010H
  00037	ff 75 d8	 push	 DWORD PTR __Right_ptr$[ebp]
  0003a	ff 75 d0	 push	 DWORD PTR __First1$[ebp]
  0003d	e8 00 00 00 00	 call	 _memcpy
  00042	83 c4 0c	 add	 esp, 12			; 0000000cH

; 2739 :             _My_data._Mysize = _Right_size;

  00045	8b 45 f8	 mov	 eax, DWORD PTR __My_data$[ebp]
  00048	8b 4d f4	 mov	 ecx, DWORD PTR __Right_size$[ebp]
  0004b	89 48 10	 mov	 DWORD PTR [eax+16], ecx

; 2740 :             _My_data._Myres  = _BUF_SIZE - 1;

  0004e	8b 45 f8	 mov	 eax, DWORD PTR __My_data$[ebp]
  00051	c7 40 14 0f 00
	00 00		 mov	 DWORD PTR [eax+20], 15	; 0000000fH

; 2741 :             return;

  00058	e9 9b 00 00 00	 jmp	 $LN1@Construct_
$LN2@Construct_:

; 4409 :         return _Mypair._Get_first();

  0005d	8b 45 f0	 mov	 eax, DWORD PTR _this$[ebp]
; File C:\Program Files (x86)\Microsoft Visual Studio\2019\Community\VC\Tools\MSVC\14.28.29333\include\xmemory

; 1347 :         return *this;

  00060	89 45 cc	 mov	 DWORD PTR $T4[ebp], eax
; File C:\Program Files (x86)\Microsoft Visual Studio\2019\Community\VC\Tools\MSVC\14.28.29333\include\xstring

; 4409 :         return _Mypair._Get_first();

  00063	8b 45 cc	 mov	 eax, DWORD PTR $T4[ebp]
  00066	89 45 b8	 mov	 DWORD PTR __Al$[ebp], eax

; 2745 :         const size_type _New_capacity = (_STD min)(_Right_size | _ALLOC_MASK, max_size());

  00069	8b 4d f0	 mov	 ecx, DWORD PTR _this$[ebp]
  0006c	e8 00 00 00 00	 call	 ?max_size@?$basic_string@DU?$char_traits@D@std@@V?$allocator@D@2@@std@@QBEIXZ ; std::basic_string<char,std::char_traits<char>,std::allocator<char> >::max_size
  00071	89 45 e8	 mov	 DWORD PTR $T6[ebp], eax
  00074	8b 45 f4	 mov	 eax, DWORD PTR __Right_size$[ebp]
  00077	83 c8 0f	 or	 eax, 15			; 0000000fH
  0007a	89 45 e4	 mov	 DWORD PTR $T5[ebp], eax
; File C:\Program Files (x86)\Microsoft Visual Studio\2019\Community\VC\Tools\MSVC\14.28.29333\include\utility

; 68   :     return _Right < _Left ? _Right : _Left;

  0007d	8b 45 e8	 mov	 eax, DWORD PTR $T6[ebp]
  00080	3b 45 e4	 cmp	 eax, DWORD PTR $T5[ebp]
  00083	73 08		 jae	 SHORT $LN52@Construct_
  00085	8d 45 e8	 lea	 eax, DWORD PTR $T6[ebp]
  00088	89 45 e0	 mov	 DWORD PTR tv138[ebp], eax
  0008b	eb 06		 jmp	 SHORT $LN53@Construct_
$LN52@Construct_:
  0008d	8d 45 e4	 lea	 eax, DWORD PTR $T5[ebp]
  00090	89 45 e0	 mov	 DWORD PTR tv138[ebp], eax
$LN53@Construct_:
  00093	8b 45 e0	 mov	 eax, DWORD PTR tv138[ebp]
  00096	89 45 c8	 mov	 DWORD PTR $T3[ebp], eax
  00099	8b 45 c8	 mov	 eax, DWORD PTR $T3[ebp]
  0009c	89 45 c4	 mov	 DWORD PTR $T2[ebp], eax
; File C:\Program Files (x86)\Microsoft Visual Studio\2019\Community\VC\Tools\MSVC\14.28.29333\include\xstring

; 2745 :         const size_type _New_capacity = (_STD min)(_Right_size | _ALLOC_MASK, max_size());

  0009f	8b 45 c4	 mov	 eax, DWORD PTR $T2[ebp]
  000a2	8b 00		 mov	 eax, DWORD PTR [eax]
  000a4	89 45 d4	 mov	 DWORD PTR __New_capacity$[ebp], eax
; File C:\Program Files (x86)\Microsoft Visual Studio\2019\Community\VC\Tools\MSVC\14.28.29333\include\xmemory

; 56   :     constexpr bool _Overflow_is_possible = _Ty_size > 1;

  000a7	c6 45 ff 00	 mov	 BYTE PTR __Overflow_is_possible$7[ebp], 0
; File C:\Program Files (x86)\Microsoft Visual Studio\2019\Community\VC\Tools\MSVC\14.28.29333\include\xstring

; 2746 :         const pointer _New_array      = _Al.allocate(_New_capacity + 1); // throws

  000ab	8b 45 d4	 mov	 eax, DWORD PTR __New_capacity$[ebp]
  000ae	40		 inc	 eax
; File C:\Program Files (x86)\Microsoft Visual Studio\2019\Community\VC\Tools\MSVC\14.28.29333\include\xmemory

; 814  :         return static_cast<_Ty*>(_Allocate<_New_alignof<_Ty>>(_Get_size_of_n<sizeof(_Ty)>(_Count)));

  000af	50		 push	 eax
  000b0	e8 00 00 00 00	 call	 ??$_Allocate@$07U_Default_allocate_traits@std@@$0A@@std@@YAPAXI@Z ; std::_Allocate<8,std::_Default_allocate_traits,0>
  000b5	59		 pop	 ecx
; File C:\Program Files (x86)\Microsoft Visual Studio\2019\Community\VC\Tools\MSVC\14.28.29333\include\xstring

; 2746 :         const pointer _New_array      = _Al.allocate(_New_capacity + 1); // throws

  000b6	89 45 dc	 mov	 DWORD PTR __New_array$[ebp], eax

; 2747 :         _Construct_in_place(_My_data._Bx._Ptr, _New_array);

  000b9	8d 45 dc	 lea	 eax, DWORD PTR __New_array$[ebp]
  000bc	50		 push	 eax
  000bd	ff 75 f8	 push	 DWORD PTR __My_data$[ebp]
  000c0	e8 00 00 00 00	 call	 ??$_Construct_in_place@PADABQAD@std@@YAXAAPADABQAD@Z ; std::_Construct_in_place<char *,char * const &>
  000c5	59		 pop	 ecx
  000c6	59		 pop	 ecx

; 2748 :         _Traits::copy(_Unfancy(_New_array), _Right_ptr, _Right_size + 1);

  000c7	8b 45 dc	 mov	 eax, DWORD PTR __New_array$[ebp]
  000ca	89 45 c0	 mov	 DWORD PTR __Ptr$[ebp], eax
; File C:\Program Files (x86)\Microsoft Visual Studio\2019\Community\VC\Tools\MSVC\14.28.29333\include\xstddef

; 289  :     return _Ptr;

  000cd	8b 45 c0	 mov	 eax, DWORD PTR __Ptr$[ebp]
  000d0	89 45 bc	 mov	 DWORD PTR $T1[ebp], eax
; File C:\Program Files (x86)\Microsoft Visual Studio\2019\Community\VC\Tools\MSVC\14.28.29333\include\xstring

; 2748 :         _Traits::copy(_Unfancy(_New_array), _Right_ptr, _Right_size + 1);

  000d3	8b 45 f4	 mov	 eax, DWORD PTR __Right_size$[ebp]
  000d6	40		 inc	 eax

; 62   :         _CSTD memcpy(_First1, _First2, _Count * sizeof(_Elem));

  000d7	50		 push	 eax
  000d8	ff 75 d8	 push	 DWORD PTR __Right_ptr$[ebp]
  000db	ff 75 bc	 push	 DWORD PTR $T1[ebp]
  000de	e8 00 00 00 00	 call	 _memcpy
  000e3	83 c4 0c	 add	 esp, 12			; 0000000cH

; 2749 :         _My_data._Mysize = _Right_size;

  000e6	8b 45 f8	 mov	 eax, DWORD PTR __My_data$[ebp]
  000e9	8b 4d f4	 mov	 ecx, DWORD PTR __Right_size$[ebp]
  000ec	89 48 10	 mov	 DWORD PTR [eax+16], ecx

; 2750 :         _My_data._Myres  = _New_capacity;

  000ef	8b 45 f8	 mov	 eax, DWORD PTR __My_data$[ebp]
  000f2	8b 4d d4	 mov	 ecx, DWORD PTR __New_capacity$[ebp]
  000f5	89 48 14	 mov	 DWORD PTR [eax+20], ecx
$LN1@Construct_:

; 2751 :     }

  000f8	c9		 leave
  000f9	c2 04 00	 ret	 4
?_Construct_lv_contents@?$basic_string@DU?$char_traits@D@std@@V?$allocator@D@2@@std@@AAEXABV12@@Z ENDP ; std::basic_string<char,std::char_traits<char>,std::allocator<char> >::_Construct_lv_contents
_TEXT	ENDS
; Function compile flags: /Odspy
; File C:\Program Files (x86)\Microsoft Visual Studio\2019\Community\VC\Tools\MSVC\14.28.29333\include\xstring
; File C:\Program Files (x86)\Microsoft Visual Studio\2019\Community\VC\Tools\MSVC\14.28.29333\include\xmemory
; File C:\Program Files (x86)\Microsoft Visual Studio\2019\Community\VC\Tools\MSVC\14.28.29333\include\xstring
; File C:\Program Files (x86)\Microsoft Visual Studio\2019\Community\VC\Tools\MSVC\14.28.29333\include\xmemory
; File C:\Program Files (x86)\Microsoft Visual Studio\2019\Community\VC\Tools\MSVC\14.28.29333\include\xstring
; File C:\Program Files (x86)\Microsoft Visual Studio\2019\Community\VC\Tools\MSVC\14.28.29333\include\xstddef
; File C:\Program Files (x86)\Microsoft Visual Studio\2019\Community\VC\Tools\MSVC\14.28.29333\include\xstring
; File C:\Program Files (x86)\Microsoft Visual Studio\2019\Community\VC\Tools\MSVC\14.28.29333\include\xstddef
; File C:\Program Files (x86)\Microsoft Visual Studio\2019\Community\VC\Tools\MSVC\14.28.29333\include\xstring
;	COMDAT ?_Move_assign@?$basic_string@DU?$char_traits@D@std@@V?$allocator@D@2@@std@@AAEXAAV12@U_Equal_allocators@2@@Z
_TEXT	SEGMENT
__My_data_mem$1 = -36					; size = 4
__Right_data_mem$2 = -32				; size = 4
$T3 = -28						; size = 4
$T4 = -24						; size = 4
$T5 = -20						; size = 4
$T6 = -16						; size = 4
_this$ = -12						; size = 4
___formal$ = -8						; size = 1
$T7 = -1						; size = 1
__Right$ = 8						; size = 4
___formal$ = 12						; size = 1
?_Move_assign@?$basic_string@DU?$char_traits@D@std@@V?$allocator@D@2@@std@@AAEXAAV12@U_Equal_allocators@2@@Z PROC ; std::basic_string<char,std::char_traits<char>,std::allocator<char> >::_Move_assign, COMDAT
; _this$ = ecx

; 2636 :     void _Move_assign(basic_string& _Right, _Equal_allocators) noexcept {

  00000	55		 push	 ebp
  00001	8b ec		 mov	 ebp, esp
  00003	83 ec 24	 sub	 esp, 36			; 00000024H
  00006	89 4d f4	 mov	 DWORD PTR _this$[ebp], ecx

; 2637 :         _Tidy_deallocate();

  00009	8b 4d f4	 mov	 ecx, DWORD PTR _this$[ebp]
  0000c	e8 00 00 00 00	 call	 ?_Tidy_deallocate@?$basic_string@DU?$char_traits@D@std@@V?$allocator@D@2@@std@@AAEXXZ ; std::basic_string<char,std::char_traits<char>,std::allocator<char> >::_Tidy_deallocate

; 4409 :         return _Mypair._Get_first();

  00011	8b 45 08	 mov	 eax, DWORD PTR __Right$[ebp]
; File C:\Program Files (x86)\Microsoft Visual Studio\2019\Community\VC\Tools\MSVC\14.28.29333\include\xmemory

; 1347 :         return *this;

  00014	89 45 f0	 mov	 DWORD PTR $T6[ebp], eax
; File C:\Program Files (x86)\Microsoft Visual Studio\2019\Community\VC\Tools\MSVC\14.28.29333\include\xstring

; 4409 :         return _Mypair._Get_first();

  00017	8b 45 f0	 mov	 eax, DWORD PTR $T6[ebp]
  0001a	89 45 e8	 mov	 DWORD PTR $T4[ebp], eax
  0001d	8b 45 f4	 mov	 eax, DWORD PTR _this$[ebp]
; File C:\Program Files (x86)\Microsoft Visual Studio\2019\Community\VC\Tools\MSVC\14.28.29333\include\xmemory

; 1347 :         return *this;

  00020	89 45 ec	 mov	 DWORD PTR $T5[ebp], eax
; File C:\Program Files (x86)\Microsoft Visual Studio\2019\Community\VC\Tools\MSVC\14.28.29333\include\xstring

; 4409 :         return _Mypair._Get_first();

  00023	8b 45 ec	 mov	 eax, DWORD PTR $T5[ebp]
  00026	89 45 e4	 mov	 DWORD PTR $T3[ebp], eax

; 2638 :         _Pocma(_Getal(), _Right._Getal());

  00029	ff 75 e8	 push	 DWORD PTR $T4[ebp]
  0002c	ff 75 e4	 push	 DWORD PTR $T3[ebp]
  0002f	e8 00 00 00 00	 call	 ??$_Pocma@V?$allocator@D@std@@@std@@YAXAAV?$allocator@D@0@0@Z ; std::_Pocma<std::allocator<char> >
  00034	59		 pop	 ecx
  00035	59		 pop	 ecx

; 2639 :         _Take_contents(_Right, bool_constant<_Can_memcpy_val>{});

  00036	33 c0		 xor	 eax, eax
  00038	88 45 ff	 mov	 BYTE PTR $T7[ebp], al
  0003b	8a 45 ff	 mov	 al, BYTE PTR $T7[ebp]
  0003e	88 45 f8	 mov	 BYTE PTR ___formal$[ebp], al

; 2680 :         const auto _My_data_mem =

  00041	8b 45 f4	 mov	 eax, DWORD PTR _this$[ebp]
; File C:\Program Files (x86)\Microsoft Visual Studio\2019\Community\VC\Tools\MSVC\14.28.29333\include\xstddef

; 275  :     return __builtin_addressof(_Val);

  00044	89 45 dc	 mov	 DWORD PTR __My_data_mem$1[ebp], eax
; File C:\Program Files (x86)\Microsoft Visual Studio\2019\Community\VC\Tools\MSVC\14.28.29333\include\xstring

; 2682 :         const auto _Right_data_mem =

  00047	8b 45 08	 mov	 eax, DWORD PTR __Right$[ebp]
; File C:\Program Files (x86)\Microsoft Visual Studio\2019\Community\VC\Tools\MSVC\14.28.29333\include\xstddef

; 275  :     return __builtin_addressof(_Val);

  0004a	89 45 e0	 mov	 DWORD PTR __Right_data_mem$2[ebp], eax
; File C:\Program Files (x86)\Microsoft Visual Studio\2019\Community\VC\Tools\MSVC\14.28.29333\include\xstring

; 2684 :         _CSTD memcpy(_My_data_mem, _Right_data_mem, _Memcpy_val_size);

  0004d	6a 18		 push	 24			; 00000018H
  0004f	ff 75 e0	 push	 DWORD PTR __Right_data_mem$2[ebp]
  00052	ff 75 dc	 push	 DWORD PTR __My_data_mem$1[ebp]
  00055	e8 00 00 00 00	 call	 _memcpy
  0005a	83 c4 0c	 add	 esp, 12			; 0000000cH

; 2703 :         _Right._Tidy_init();

  0005d	8b 4d 08	 mov	 ecx, DWORD PTR __Right$[ebp]
  00060	e8 00 00 00 00	 call	 ?_Tidy_init@?$basic_string@DU?$char_traits@D@std@@V?$allocator@D@2@@std@@AAEXXZ ; std::basic_string<char,std::char_traits<char>,std::allocator<char> >::_Tidy_init

; 2640 :     }

  00065	c9		 leave
  00066	c2 08 00	 ret	 8
?_Move_assign@?$basic_string@DU?$char_traits@D@std@@V?$allocator@D@2@@std@@AAEXAAV12@U_Equal_allocators@2@@Z ENDP ; std::basic_string<char,std::char_traits<char>,std::allocator<char> >::_Move_assign
_TEXT	ENDS
; Function compile flags: /Odspy
; File C:\Program Files (x86)\Microsoft Visual Studio\2019\Community\VC\Tools\MSVC\14.28.29333\include\xstring
; File C:\Program Files (x86)\Microsoft Visual Studio\2019\Community\VC\Tools\MSVC\14.28.29333\include\xmemory
; File C:\Program Files (x86)\Microsoft Visual Studio\2019\Community\VC\Tools\MSVC\14.28.29333\include\xstring
; File C:\Program Files (x86)\Microsoft Visual Studio\2019\Community\VC\Tools\MSVC\14.28.29333\include\type_traits
; File C:\Program Files (x86)\Microsoft Visual Studio\2019\Community\VC\Tools\MSVC\14.28.29333\include\xstring
; File C:\Program Files (x86)\Microsoft Visual Studio\2019\Community\VC\Tools\MSVC\14.28.29333\include\xmemory
; File C:\Program Files (x86)\Microsoft Visual Studio\2019\Community\VC\Tools\MSVC\14.28.29333\include\xstring
; File C:\Program Files (x86)\Microsoft Visual Studio\2019\Community\VC\Tools\MSVC\14.28.29333\include\xstddef
; File C:\Program Files (x86)\Microsoft Visual Studio\2019\Community\VC\Tools\MSVC\14.28.29333\include\xstring
; File C:\Program Files (x86)\Microsoft Visual Studio\2019\Community\VC\Tools\MSVC\14.28.29333\include\xstddef
; File C:\Program Files (x86)\Microsoft Visual Studio\2019\Community\VC\Tools\MSVC\14.28.29333\include\xstring
;	COMDAT ??0?$basic_string@DU?$char_traits@D@std@@V?$allocator@D@2@@std@@QAE@$$QAV01@@Z
_TEXT	SEGMENT
$T1 = -40						; size = 4
__My_data_mem$2 = -36					; size = 4
__Right_data_mem$3 = -32				; size = 4
_this$ = -28						; size = 4
$T4 = -24						; size = 4
$T5 = -20						; size = 4
_this$ = -16						; size = 4
_this$ = -12						; size = 4
___formal$ = -8						; size = 1
$T6 = -1						; size = 1
__Right$ = 8						; size = 4
??0?$basic_string@DU?$char_traits@D@std@@V?$allocator@D@2@@std@@QAE@$$QAV01@@Z PROC ; std::basic_string<char,std::char_traits<char>,std::allocator<char> >::basic_string<char,std::char_traits<char>,std::allocator<char> >, COMDAT
; _this$ = ecx

; 2496 :     basic_string(basic_string&& _Right) noexcept : _Mypair(_One_then_variadic_args_t{}, _STD move(_Right._Getal())) {

  00000	55		 push	 ebp
  00001	8b ec		 mov	 ebp, esp
  00003	83 ec 28	 sub	 esp, 40			; 00000028H
  00006	89 4d f4	 mov	 DWORD PTR _this$[ebp], ecx

; 4409 :         return _Mypair._Get_first();

  00009	8b 45 08	 mov	 eax, DWORD PTR __Right$[ebp]
; File C:\Program Files (x86)\Microsoft Visual Studio\2019\Community\VC\Tools\MSVC\14.28.29333\include\xmemory

; 1347 :         return *this;

  0000c	89 45 ec	 mov	 DWORD PTR $T5[ebp], eax
; File C:\Program Files (x86)\Microsoft Visual Studio\2019\Community\VC\Tools\MSVC\14.28.29333\include\xstring

; 4409 :         return _Mypair._Get_first();

  0000f	8b 45 ec	 mov	 eax, DWORD PTR $T5[ebp]
  00012	89 45 e8	 mov	 DWORD PTR $T4[ebp], eax
; File C:\Program Files (x86)\Microsoft Visual Studio\2019\Community\VC\Tools\MSVC\14.28.29333\include\type_traits

; 1455 :     return static_cast<remove_reference_t<_Ty>&&>(_Arg);

  00015	8b 45 e8	 mov	 eax, DWORD PTR $T4[ebp]
  00018	89 45 d8	 mov	 DWORD PTR $T1[ebp], eax
; File C:\Program Files (x86)\Microsoft Visual Studio\2019\Community\VC\Tools\MSVC\14.28.29333\include\xstring

; 2496 :     basic_string(basic_string&& _Right) noexcept : _Mypair(_One_then_variadic_args_t{}, _STD move(_Right._Getal())) {

  0001b	8b 45 f4	 mov	 eax, DWORD PTR _this$[ebp]
  0001e	89 45 e4	 mov	 DWORD PTR _this$[ebp], eax
; File C:\Program Files (x86)\Microsoft Visual Studio\2019\Community\VC\Tools\MSVC\14.28.29333\include\xmemory

; 1344 :         : _Ty1(_STD forward<_Other1>(_Val1)), _Myval2(_STD forward<_Other2>(_Val2)...) {}

  00021	8b 45 e4	 mov	 eax, DWORD PTR _this$[ebp]
  00024	89 45 f0	 mov	 DWORD PTR _this$[ebp], eax
; File C:\Program Files (x86)\Microsoft Visual Studio\2019\Community\VC\Tools\MSVC\14.28.29333\include\xstring

; 2198 :     _String_val() noexcept : _Bx(), _Mysize(0), _Myres(0) {}

  00027	8b 45 f0	 mov	 eax, DWORD PTR _this$[ebp]
  0002a	83 60 10 00	 and	 DWORD PTR [eax+16], 0
  0002e	8b 45 f0	 mov	 eax, DWORD PTR _this$[ebp]
  00031	83 60 14 00	 and	 DWORD PTR [eax+20], 0

; 2497 :         _Mypair._Myval2._Alloc_proxy(_GET_PROXY_ALLOCATOR(_Alty, _Getal()));
; 2498 :         _Take_contents(_Right, bool_constant<_Can_memcpy_val>{});

  00035	33 c0		 xor	 eax, eax
  00037	88 45 ff	 mov	 BYTE PTR $T6[ebp], al
  0003a	8a 45 ff	 mov	 al, BYTE PTR $T6[ebp]
  0003d	88 45 f8	 mov	 BYTE PTR ___formal$[ebp], al

; 2680 :         const auto _My_data_mem =

  00040	8b 45 f4	 mov	 eax, DWORD PTR _this$[ebp]
; File C:\Program Files (x86)\Microsoft Visual Studio\2019\Community\VC\Tools\MSVC\14.28.29333\include\xstddef

; 275  :     return __builtin_addressof(_Val);

  00043	89 45 dc	 mov	 DWORD PTR __My_data_mem$2[ebp], eax
; File C:\Program Files (x86)\Microsoft Visual Studio\2019\Community\VC\Tools\MSVC\14.28.29333\include\xstring

; 2682 :         const auto _Right_data_mem =

  00046	8b 45 08	 mov	 eax, DWORD PTR __Right$[ebp]
; File C:\Program Files (x86)\Microsoft Visual Studio\2019\Community\VC\Tools\MSVC\14.28.29333\include\xstddef

; 275  :     return __builtin_addressof(_Val);

  00049	89 45 e0	 mov	 DWORD PTR __Right_data_mem$3[ebp], eax
; File C:\Program Files (x86)\Microsoft Visual Studio\2019\Community\VC\Tools\MSVC\14.28.29333\include\xstring

; 2684 :         _CSTD memcpy(_My_data_mem, _Right_data_mem, _Memcpy_val_size);

  0004c	6a 18		 push	 24			; 00000018H
  0004e	ff 75 e0	 push	 DWORD PTR __Right_data_mem$3[ebp]
  00051	ff 75 dc	 push	 DWORD PTR __My_data_mem$2[ebp]
  00054	e8 00 00 00 00	 call	 _memcpy
  00059	83 c4 0c	 add	 esp, 12			; 0000000cH

; 2703 :         _Right._Tidy_init();

  0005c	8b 4d 08	 mov	 ecx, DWORD PTR __Right$[ebp]
  0005f	e8 00 00 00 00	 call	 ?_Tidy_init@?$basic_string@DU?$char_traits@D@std@@V?$allocator@D@2@@std@@AAEXXZ ; std::basic_string<char,std::char_traits<char>,std::allocator<char> >::_Tidy_init

; 2499 :     }

  00064	8b 45 f4	 mov	 eax, DWORD PTR _this$[ebp]
  00067	c9		 leave
  00068	c2 04 00	 ret	 4
??0?$basic_string@DU?$char_traits@D@std@@V?$allocator@D@2@@std@@QAE@$$QAV01@@Z ENDP ; std::basic_string<char,std::char_traits<char>,std::allocator<char> >::basic_string<char,std::char_traits<char>,std::allocator<char> >
_TEXT	ENDS
; Function compile flags: /Odspy
; File C:\Program Files (x86)\Microsoft Visual Studio\2019\Community\VC\Tools\MSVC\14.28.29333\include\xstring
; File C:\Program Files (x86)\Microsoft Visual Studio\2019\Community\VC\Tools\MSVC\14.28.29333\include\xmemory
; File C:\Program Files (x86)\Microsoft Visual Studio\2019\Community\VC\Tools\MSVC\14.28.29333\include\xstring
; File C:\Program Files (x86)\Microsoft Visual Studio\2019\Community\VC\Tools\MSVC\14.28.29333\include\xmemory
; File C:\Program Files (x86)\Microsoft Visual Studio\2019\Community\VC\Tools\MSVC\14.28.29333\include\xstring
;	COMDAT ??0?$basic_string@DU?$char_traits@D@std@@V?$allocator@D@2@@std@@QAE@QBD@Z
_TEXT	SEGMENT
__Alproxy$ = -40					; size = 4
$T2 = -36						; size = 4
$T3 = -32						; size = 4
_this$ = -28						; size = 4
_this$ = -24						; size = 4
_this$ = -20						; size = 4
_$S6$ = -13						; size = 1
__$EHRec$ = -12						; size = 12
__Ptr$ = 8						; size = 4
??0?$basic_string@DU?$char_traits@D@std@@V?$allocator@D@2@@std@@QAE@QBD@Z PROC ; std::basic_string<char,std::char_traits<char>,std::allocator<char> >::basic_string<char,std::char_traits<char>,std::allocator<char> >, COMDAT
; _this$ = ecx

; 2413 :     basic_string(_In_z_ const _Elem* const _Ptr) : _Mypair(_Zero_then_variadic_args_t{}) {

  00000	55		 push	 ebp
  00001	8b ec		 mov	 ebp, esp
  00003	6a ff		 push	 -1
  00005	68 00 00 00 00	 push	 __ehhandler$??0?$basic_string@DU?$char_traits@D@std@@V?$allocator@D@2@@std@@QAE@QBD@Z
  0000a	64 a1 00 00 00
	00		 mov	 eax, DWORD PTR fs:0
  00010	50		 push	 eax
  00011	83 ec 1c	 sub	 esp, 28			; 0000001cH
  00014	a1 00 00 00 00	 mov	 eax, DWORD PTR ___security_cookie
  00019	33 c5		 xor	 eax, ebp
  0001b	50		 push	 eax
  0001c	8d 45 f4	 lea	 eax, DWORD PTR __$EHRec$[ebp]
  0001f	64 a3 00 00 00
	00		 mov	 DWORD PTR fs:0, eax
  00025	89 4d ec	 mov	 DWORD PTR _this$[ebp], ecx
  00028	8b 45 ec	 mov	 eax, DWORD PTR _this$[ebp]
  0002b	89 45 e4	 mov	 DWORD PTR _this$[ebp], eax
; File C:\Program Files (x86)\Microsoft Visual Studio\2019\Community\VC\Tools\MSVC\14.28.29333\include\xmemory

; 1339 :         : _Ty1(), _Myval2(_STD forward<_Other2>(_Val2)...) {}

  0002e	8b 45 e4	 mov	 eax, DWORD PTR _this$[ebp]
  00031	89 45 e8	 mov	 DWORD PTR _this$[ebp], eax
; File C:\Program Files (x86)\Microsoft Visual Studio\2019\Community\VC\Tools\MSVC\14.28.29333\include\xstring

; 2198 :     _String_val() noexcept : _Bx(), _Mysize(0), _Myres(0) {}

  00034	8b 45 e8	 mov	 eax, DWORD PTR _this$[ebp]
  00037	83 60 10 00	 and	 DWORD PTR [eax+16], 0
  0003b	8b 45 e8	 mov	 eax, DWORD PTR _this$[ebp]
  0003e	83 60 14 00	 and	 DWORD PTR [eax+20], 0

; 2413 :     basic_string(_In_z_ const _Elem* const _Ptr) : _Mypair(_Zero_then_variadic_args_t{}) {

  00042	83 65 fc 00	 and	 DWORD PTR __$EHRec$[ebp+8], 0

; 2414 :         auto&& _Alproxy = _GET_PROXY_ALLOCATOR(_Alty, _Getal());

  00046	8d 45 f3	 lea	 eax, DWORD PTR _$S6$[ebp]
  00049	89 45 d8	 mov	 DWORD PTR __Alproxy$[ebp], eax

; 2415 :         _Container_proxy_ptr<_Alty> _Proxy(_Alproxy, _Mypair._Myval2);
; 2416 :         _Tidy_init();

  0004c	8b 4d ec	 mov	 ecx, DWORD PTR _this$[ebp]
  0004f	e8 00 00 00 00	 call	 ?_Tidy_init@?$basic_string@DU?$char_traits@D@std@@V?$allocator@D@2@@std@@AAEXXZ ; std::basic_string<char,std::char_traits<char>,std::allocator<char> >::_Tidy_init

; 389  :         return _CSTD strlen(reinterpret_cast<const char*>(_First));

  00054	ff 75 08	 push	 DWORD PTR __Ptr$[ebp]
  00057	e8 00 00 00 00	 call	 _strlen
  0005c	59		 pop	 ecx
  0005d	89 45 e0	 mov	 DWORD PTR $T3[ebp], eax
; File C:\Program Files (x86)\Microsoft Visual Studio\2019\Community\VC\Tools\MSVC\14.28.29333\include\xmemory

; 997  :     return _Len;

  00060	8b 45 e0	 mov	 eax, DWORD PTR $T3[ebp]
  00063	89 45 dc	 mov	 DWORD PTR $T2[ebp], eax
; File C:\Program Files (x86)\Microsoft Visual Studio\2019\Community\VC\Tools\MSVC\14.28.29333\include\xstring

; 3062 :         return assign(_Ptr, _Convert_size<size_type>(_Traits::length(_Ptr)));

  00066	ff 75 dc	 push	 DWORD PTR $T2[ebp]
  00069	ff 75 08	 push	 DWORD PTR __Ptr$[ebp]
  0006c	8b 4d ec	 mov	 ecx, DWORD PTR _this$[ebp]
  0006f	e8 00 00 00 00	 call	 ?assign@?$basic_string@DU?$char_traits@D@std@@V?$allocator@D@2@@std@@QAEAAV12@QBDI@Z ; std::basic_string<char,std::char_traits<char>,std::allocator<char> >::assign

; 2417 :         assign(_Ptr);
; 2418 :         _Proxy._Release();
; 2419 :     }

  00074	83 4d fc ff	 or	 DWORD PTR __$EHRec$[ebp+8], -1
  00078	8b 45 ec	 mov	 eax, DWORD PTR _this$[ebp]
  0007b	8b 4d f4	 mov	 ecx, DWORD PTR __$EHRec$[ebp]
  0007e	64 89 0d 00 00
	00 00		 mov	 DWORD PTR fs:0, ecx
  00085	59		 pop	 ecx
  00086	c9		 leave
  00087	c2 04 00	 ret	 4
_TEXT	ENDS
;	COMDAT text$x
text$x	SEGMENT
__unwindfunclet$??0?$basic_string@DU?$char_traits@D@std@@V?$allocator@D@2@@std@@QAE@QBD@Z$0:
  00000	8b 4d ec	 mov	 ecx, DWORD PTR _this$[ebp]
  00003	e9 00 00 00 00	 jmp	 ??1?$_Compressed_pair@V?$allocator@D@std@@V?$_String_val@U?$_Simple_types@D@std@@@2@$00@std@@QAE@XZ
  00008	cc		 int	 3
  00009	cc		 int	 3
  0000a	cc		 int	 3
  0000b	cc		 int	 3
  0000c	cc		 int	 3
__ehhandler$??0?$basic_string@DU?$char_traits@D@std@@V?$allocator@D@2@@std@@QAE@QBD@Z:
  0000d	90		 npad	 1
  0000e	90		 npad	 1
  0000f	8b 54 24 08	 mov	 edx, DWORD PTR [esp+8]
  00013	8d 42 0c	 lea	 eax, DWORD PTR [edx+12]
  00016	8b 4a e0	 mov	 ecx, DWORD PTR [edx-32]
  00019	33 c8		 xor	 ecx, eax
  0001b	e8 00 00 00 00	 call	 @__security_check_cookie@4
  00020	b8 00 00 00 00	 mov	 eax, OFFSET __ehfuncinfo$??0?$basic_string@DU?$char_traits@D@std@@V?$allocator@D@2@@std@@QAE@QBD@Z
  00025	e9 00 00 00 00	 jmp	 ___CxxFrameHandler3
text$x	ENDS
??0?$basic_string@DU?$char_traits@D@std@@V?$allocator@D@2@@std@@QAE@QBD@Z ENDP ; std::basic_string<char,std::char_traits<char>,std::allocator<char> >::basic_string<char,std::char_traits<char>,std::allocator<char> >
; Function compile flags: /Odspy
; File C:\Program Files (x86)\Microsoft Visual Studio\2019\Community\VC\Tools\MSVC\14.28.29333\include\xstring
; File C:\Program Files (x86)\Microsoft Visual Studio\2019\Community\VC\Tools\MSVC\14.28.29333\include\xmemory
; File C:\Program Files (x86)\Microsoft Visual Studio\2019\Community\VC\Tools\MSVC\14.28.29333\include\xstring
;	COMDAT ??0?$basic_string@DU?$char_traits@D@std@@V?$allocator@D@2@@std@@QAE@XZ
_TEXT	SEGMENT
_this$ = -12						; size = 4
_this$ = -8						; size = 4
_this$ = -4						; size = 4
??0?$basic_string@DU?$char_traits@D@std@@V?$allocator@D@2@@std@@QAE@XZ PROC ; std::basic_string<char,std::char_traits<char>,std::allocator<char> >::basic_string<char,std::char_traits<char>,std::allocator<char> >, COMDAT
; _this$ = ecx

; 2365 :     basic_string() noexcept(is_nothrow_default_constructible_v<_Alty>) : _Mypair(_Zero_then_variadic_args_t{}) {

  00000	55		 push	 ebp
  00001	8b ec		 mov	 ebp, esp
  00003	83 ec 0c	 sub	 esp, 12			; 0000000cH
  00006	89 4d fc	 mov	 DWORD PTR _this$[ebp], ecx
  00009	8b 45 fc	 mov	 eax, DWORD PTR _this$[ebp]
  0000c	89 45 f4	 mov	 DWORD PTR _this$[ebp], eax
; File C:\Program Files (x86)\Microsoft Visual Studio\2019\Community\VC\Tools\MSVC\14.28.29333\include\xmemory

; 1339 :         : _Ty1(), _Myval2(_STD forward<_Other2>(_Val2)...) {}

  0000f	8b 45 f4	 mov	 eax, DWORD PTR _this$[ebp]
  00012	89 45 f8	 mov	 DWORD PTR _this$[ebp], eax
; File C:\Program Files (x86)\Microsoft Visual Studio\2019\Community\VC\Tools\MSVC\14.28.29333\include\xstring

; 2198 :     _String_val() noexcept : _Bx(), _Mysize(0), _Myres(0) {}

  00015	8b 45 f8	 mov	 eax, DWORD PTR _this$[ebp]
  00018	83 60 10 00	 and	 DWORD PTR [eax+16], 0
  0001c	8b 45 f8	 mov	 eax, DWORD PTR _this$[ebp]
  0001f	83 60 14 00	 and	 DWORD PTR [eax+20], 0

; 2366 :         _Mypair._Myval2._Alloc_proxy(_GET_PROXY_ALLOCATOR(_Alty, _Getal()));
; 2367 :         _Tidy_init();

  00023	8b 4d fc	 mov	 ecx, DWORD PTR _this$[ebp]
  00026	e8 00 00 00 00	 call	 ?_Tidy_init@?$basic_string@DU?$char_traits@D@std@@V?$allocator@D@2@@std@@AAEXXZ ; std::basic_string<char,std::char_traits<char>,std::allocator<char> >::_Tidy_init

; 2368 :     }

  0002b	8b 45 fc	 mov	 eax, DWORD PTR _this$[ebp]
  0002e	c9		 leave
  0002f	c3		 ret	 0
??0?$basic_string@DU?$char_traits@D@std@@V?$allocator@D@2@@std@@QAE@XZ ENDP ; std::basic_string<char,std::char_traits<char>,std::allocator<char> >::basic_string<char,std::char_traits<char>,std::allocator<char> >
_TEXT	ENDS
; Function compile flags: /Odspy
; File C:\Program Files (x86)\Microsoft Visual Studio\2019\Community\VC\Tools\MSVC\14.28.29333\include\xstring
; File C:\Program Files (x86)\Microsoft Visual Studio\2019\Community\VC\Tools\MSVC\14.28.29333\include\xmemory
; File C:\Program Files (x86)\Microsoft Visual Studio\2019\Community\VC\Tools\MSVC\14.28.29333\include\xstring
; File C:\Program Files (x86)\Microsoft Visual Studio\2019\Community\VC\Tools\MSVC\14.28.29333\include\xmemory
; File C:\Program Files (x86)\Microsoft Visual Studio\2019\Community\VC\Tools\MSVC\14.28.29333\include\xstring
;	COMDAT ??0?$basic_string@DU?$char_traits@D@std@@V?$allocator@D@2@@std@@QAE@ABV01@@Z
_TEXT	SEGMENT
__Alproxy$ = -40					; size = 4
$T2 = -36						; size = 4
_this$ = -32						; size = 4
$T3 = -28						; size = 4
_this$ = -24						; size = 4
_this$ = -20						; size = 4
_$S9$ = -13						; size = 1
__$EHRec$ = -12						; size = 12
__Right$ = 8						; size = 4
??0?$basic_string@DU?$char_traits@D@std@@V?$allocator@D@2@@std@@QAE@ABV01@@Z PROC ; std::basic_string<char,std::char_traits<char>,std::allocator<char> >::basic_string<char,std::char_traits<char>,std::allocator<char> >, COMDAT
; _this$ = ecx

; 2351 :         : _Mypair(_One_then_variadic_args_t{}, _Alty_traits::select_on_container_copy_construction(_Right._Getal())) {

  00000	55		 push	 ebp
  00001	8b ec		 mov	 ebp, esp
  00003	6a ff		 push	 -1
  00005	68 00 00 00 00	 push	 __ehhandler$??0?$basic_string@DU?$char_traits@D@std@@V?$allocator@D@2@@std@@QAE@ABV01@@Z
  0000a	64 a1 00 00 00
	00		 mov	 eax, DWORD PTR fs:0
  00010	50		 push	 eax
  00011	83 ec 1c	 sub	 esp, 28			; 0000001cH
  00014	a1 00 00 00 00	 mov	 eax, DWORD PTR ___security_cookie
  00019	33 c5		 xor	 eax, ebp
  0001b	50		 push	 eax
  0001c	8d 45 f4	 lea	 eax, DWORD PTR __$EHRec$[ebp]
  0001f	64 a3 00 00 00
	00		 mov	 DWORD PTR fs:0, eax
  00025	89 4d ec	 mov	 DWORD PTR _this$[ebp], ecx

; 4413 :         return _Mypair._Get_first();

  00028	8b 45 08	 mov	 eax, DWORD PTR __Right$[ebp]
; File C:\Program Files (x86)\Microsoft Visual Studio\2019\Community\VC\Tools\MSVC\14.28.29333\include\xmemory

; 1351 :         return *this;

  0002b	89 45 e4	 mov	 DWORD PTR $T3[ebp], eax
; File C:\Program Files (x86)\Microsoft Visual Studio\2019\Community\VC\Tools\MSVC\14.28.29333\include\xstring

; 4413 :         return _Mypair._Get_first();

  0002e	8b 45 e4	 mov	 eax, DWORD PTR $T3[ebp]
  00031	89 45 dc	 mov	 DWORD PTR $T2[ebp], eax

; 2351 :         : _Mypair(_One_then_variadic_args_t{}, _Alty_traits::select_on_container_copy_construction(_Right._Getal())) {

  00034	8b 45 ec	 mov	 eax, DWORD PTR _this$[ebp]
  00037	89 45 e0	 mov	 DWORD PTR _this$[ebp], eax
; File C:\Program Files (x86)\Microsoft Visual Studio\2019\Community\VC\Tools\MSVC\14.28.29333\include\xmemory

; 1344 :         : _Ty1(_STD forward<_Other1>(_Val1)), _Myval2(_STD forward<_Other2>(_Val2)...) {}

  0003a	8b 45 e0	 mov	 eax, DWORD PTR _this$[ebp]
  0003d	89 45 e8	 mov	 DWORD PTR _this$[ebp], eax
; File C:\Program Files (x86)\Microsoft Visual Studio\2019\Community\VC\Tools\MSVC\14.28.29333\include\xstring

; 2198 :     _String_val() noexcept : _Bx(), _Mysize(0), _Myres(0) {}

  00040	8b 45 e8	 mov	 eax, DWORD PTR _this$[ebp]
  00043	83 60 10 00	 and	 DWORD PTR [eax+16], 0
  00047	8b 45 e8	 mov	 eax, DWORD PTR _this$[ebp]
  0004a	83 60 14 00	 and	 DWORD PTR [eax+20], 0

; 2351 :         : _Mypair(_One_then_variadic_args_t{}, _Alty_traits::select_on_container_copy_construction(_Right._Getal())) {

  0004e	83 65 fc 00	 and	 DWORD PTR __$EHRec$[ebp+8], 0

; 2352 :         auto&& _Alproxy = _GET_PROXY_ALLOCATOR(_Alty, _Getal());

  00052	8d 45 f3	 lea	 eax, DWORD PTR _$S9$[ebp]
  00055	89 45 d8	 mov	 DWORD PTR __Alproxy$[ebp], eax

; 2353 :         _Container_proxy_ptr<_Alty> _Proxy(_Alproxy, _Mypair._Myval2);
; 2354 :         _Construct_lv_contents(_Right);

  00058	ff 75 08	 push	 DWORD PTR __Right$[ebp]
  0005b	8b 4d ec	 mov	 ecx, DWORD PTR _this$[ebp]
  0005e	e8 00 00 00 00	 call	 ?_Construct_lv_contents@?$basic_string@DU?$char_traits@D@std@@V?$allocator@D@2@@std@@AAEXABV12@@Z ; std::basic_string<char,std::char_traits<char>,std::allocator<char> >::_Construct_lv_contents

; 2355 :         _Proxy._Release();
; 2356 :     }

  00063	83 4d fc ff	 or	 DWORD PTR __$EHRec$[ebp+8], -1
  00067	8b 45 ec	 mov	 eax, DWORD PTR _this$[ebp]
  0006a	8b 4d f4	 mov	 ecx, DWORD PTR __$EHRec$[ebp]
  0006d	64 89 0d 00 00
	00 00		 mov	 DWORD PTR fs:0, ecx
  00074	59		 pop	 ecx
  00075	c9		 leave
  00076	c2 04 00	 ret	 4
_TEXT	ENDS
;	COMDAT text$x
text$x	SEGMENT
__unwindfunclet$??0?$basic_string@DU?$char_traits@D@std@@V?$allocator@D@2@@std@@QAE@ABV01@@Z$0:
  00000	8b 4d ec	 mov	 ecx, DWORD PTR _this$[ebp]
  00003	e9 00 00 00 00	 jmp	 ??1?$_Compressed_pair@V?$allocator@D@std@@V?$_String_val@U?$_Simple_types@D@std@@@2@$00@std@@QAE@XZ
  00008	cc		 int	 3
  00009	cc		 int	 3
  0000a	cc		 int	 3
  0000b	cc		 int	 3
  0000c	cc		 int	 3
__ehhandler$??0?$basic_string@DU?$char_traits@D@std@@V?$allocator@D@2@@std@@QAE@ABV01@@Z:
  0000d	90		 npad	 1
  0000e	90		 npad	 1
  0000f	8b 54 24 08	 mov	 edx, DWORD PTR [esp+8]
  00013	8d 42 0c	 lea	 eax, DWORD PTR [edx+12]
  00016	8b 4a e0	 mov	 ecx, DWORD PTR [edx-32]
  00019	33 c8		 xor	 ecx, eax
  0001b	e8 00 00 00 00	 call	 @__security_check_cookie@4
  00020	b8 00 00 00 00	 mov	 eax, OFFSET __ehfuncinfo$??0?$basic_string@DU?$char_traits@D@std@@V?$allocator@D@2@@std@@QAE@ABV01@@Z
  00025	e9 00 00 00 00	 jmp	 ___CxxFrameHandler3
text$x	ENDS
??0?$basic_string@DU?$char_traits@D@std@@V?$allocator@D@2@@std@@QAE@ABV01@@Z ENDP ; std::basic_string<char,std::char_traits<char>,std::allocator<char> >::basic_string<char,std::char_traits<char>,std::allocator<char> >
; Function compile flags: /Odspy
; File C:\Program Files (x86)\Microsoft Visual Studio\2019\Community\VC\Tools\MSVC\14.28.29333\include\xstring
; File C:\Program Files (x86)\Microsoft Visual Studio\2019\Community\VC\Tools\MSVC\14.28.29333\include\xstddef
; File C:\Program Files (x86)\Microsoft Visual Studio\2019\Community\VC\Tools\MSVC\14.28.29333\include\xstring
;	COMDAT ?_Myptr@?$_String_val@U?$_Simple_types@D@std@@@std@@QBEPBDXZ
_TEXT	SEGMENT
__Ptr$ = -20						; size = 4
__Result$ = -16						; size = 4
tv76 = -12						; size = 4
_this$ = -8						; size = 4
$T1 = -1						; size = 1
?_Myptr@?$_String_val@U?$_Simple_types@D@std@@@std@@QBEPBDXZ PROC ; std::_String_val<std::_Simple_types<char> >::_Myptr, COMDAT
; _this$ = ecx

; 2217 :     const value_type* _Myptr() const noexcept {

  00000	55		 push	 ebp
  00001	8b ec		 mov	 ebp, esp
  00003	83 ec 14	 sub	 esp, 20			; 00000014H
  00006	89 4d f8	 mov	 DWORD PTR _this$[ebp], ecx

; 2218 :         const value_type* _Result = _Bx._Buf;

  00009	8b 45 f8	 mov	 eax, DWORD PTR _this$[ebp]
  0000c	89 45 f0	 mov	 DWORD PTR __Result$[ebp], eax

; 2227 :         return _BUF_SIZE <= _Myres;

  0000f	8b 45 f8	 mov	 eax, DWORD PTR _this$[ebp]
  00012	83 78 14 10	 cmp	 DWORD PTR [eax+20], 16	; 00000010H
  00016	72 09		 jb	 SHORT $LN6@Myptr
  00018	c7 45 f4 01 00
	00 00		 mov	 DWORD PTR tv76[ebp], 1
  0001f	eb 04		 jmp	 SHORT $LN7@Myptr
$LN6@Myptr:
  00021	83 65 f4 00	 and	 DWORD PTR tv76[ebp], 0
$LN7@Myptr:
  00025	8a 45 f4	 mov	 al, BYTE PTR tv76[ebp]
  00028	88 45 ff	 mov	 BYTE PTR $T1[ebp], al

; 2219 :         if (_Large_string_engaged()) {

  0002b	0f b6 45 ff	 movzx	 eax, BYTE PTR $T1[ebp]
  0002f	85 c0		 test	 eax, eax
  00031	74 0e		 je	 SHORT $LN2@Myptr

; 2220 :             _Result = _Unfancy(_Bx._Ptr);

  00033	8b 45 f8	 mov	 eax, DWORD PTR _this$[ebp]
  00036	8b 00		 mov	 eax, DWORD PTR [eax]
  00038	89 45 ec	 mov	 DWORD PTR __Ptr$[ebp], eax
; File C:\Program Files (x86)\Microsoft Visual Studio\2019\Community\VC\Tools\MSVC\14.28.29333\include\xstddef

; 289  :     return _Ptr;

  0003b	8b 45 ec	 mov	 eax, DWORD PTR __Ptr$[ebp]
  0003e	89 45 f0	 mov	 DWORD PTR __Result$[ebp], eax
$LN2@Myptr:
; File C:\Program Files (x86)\Microsoft Visual Studio\2019\Community\VC\Tools\MSVC\14.28.29333\include\xstring

; 2223 :         return _Result;

  00041	8b 45 f0	 mov	 eax, DWORD PTR __Result$[ebp]

; 2224 :     }

  00044	c9		 leave
  00045	c3		 ret	 0
?_Myptr@?$_String_val@U?$_Simple_types@D@std@@@std@@QBEPBDXZ ENDP ; std::_String_val<std::_Simple_types<char> >::_Myptr
_TEXT	ENDS
; Function compile flags: /Odspy
; File C:\Program Files (x86)\Microsoft Visual Studio\2019\Community\VC\Tools\MSVC\14.28.29333\include\xstring
; File C:\Program Files (x86)\Microsoft Visual Studio\2019\Community\VC\Tools\MSVC\14.28.29333\include\xstddef
; File C:\Program Files (x86)\Microsoft Visual Studio\2019\Community\VC\Tools\MSVC\14.28.29333\include\xstring
;	COMDAT ?_Myptr@?$_String_val@U?$_Simple_types@D@std@@@std@@QAEPADXZ
_TEXT	SEGMENT
__Ptr$ = -20						; size = 4
__Result$ = -16						; size = 4
tv76 = -12						; size = 4
_this$ = -8						; size = 4
$T1 = -1						; size = 1
?_Myptr@?$_String_val@U?$_Simple_types@D@std@@@std@@QAEPADXZ PROC ; std::_String_val<std::_Simple_types<char> >::_Myptr, COMDAT
; _this$ = ecx

; 2208 :     value_type* _Myptr() noexcept {

  00000	55		 push	 ebp
  00001	8b ec		 mov	 ebp, esp
  00003	83 ec 14	 sub	 esp, 20			; 00000014H
  00006	89 4d f8	 mov	 DWORD PTR _this$[ebp], ecx

; 2209 :         value_type* _Result = _Bx._Buf;

  00009	8b 45 f8	 mov	 eax, DWORD PTR _this$[ebp]
  0000c	89 45 f0	 mov	 DWORD PTR __Result$[ebp], eax

; 2227 :         return _BUF_SIZE <= _Myres;

  0000f	8b 45 f8	 mov	 eax, DWORD PTR _this$[ebp]
  00012	83 78 14 10	 cmp	 DWORD PTR [eax+20], 16	; 00000010H
  00016	72 09		 jb	 SHORT $LN6@Myptr
  00018	c7 45 f4 01 00
	00 00		 mov	 DWORD PTR tv76[ebp], 1
  0001f	eb 04		 jmp	 SHORT $LN7@Myptr
$LN6@Myptr:
  00021	83 65 f4 00	 and	 DWORD PTR tv76[ebp], 0
$LN7@Myptr:
  00025	8a 45 f4	 mov	 al, BYTE PTR tv76[ebp]
  00028	88 45 ff	 mov	 BYTE PTR $T1[ebp], al

; 2210 :         if (_Large_string_engaged()) {

  0002b	0f b6 45 ff	 movzx	 eax, BYTE PTR $T1[ebp]
  0002f	85 c0		 test	 eax, eax
  00031	74 0e		 je	 SHORT $LN2@Myptr

; 2211 :             _Result = _Unfancy(_Bx._Ptr);

  00033	8b 45 f8	 mov	 eax, DWORD PTR _this$[ebp]
  00036	8b 00		 mov	 eax, DWORD PTR [eax]
  00038	89 45 ec	 mov	 DWORD PTR __Ptr$[ebp], eax
; File C:\Program Files (x86)\Microsoft Visual Studio\2019\Community\VC\Tools\MSVC\14.28.29333\include\xstddef

; 289  :     return _Ptr;

  0003b	8b 45 ec	 mov	 eax, DWORD PTR __Ptr$[ebp]
  0003e	89 45 f0	 mov	 DWORD PTR __Result$[ebp], eax
$LN2@Myptr:
; File C:\Program Files (x86)\Microsoft Visual Studio\2019\Community\VC\Tools\MSVC\14.28.29333\include\xstring

; 2214 :         return _Result;

  00041	8b 45 f0	 mov	 eax, DWORD PTR __Result$[ebp]

; 2215 :     }

  00044	c9		 leave
  00045	c3		 ret	 0
?_Myptr@?$_String_val@U?$_Simple_types@D@std@@@std@@QAEPADXZ ENDP ; std::_String_val<std::_Simple_types<char> >::_Myptr
_TEXT	ENDS
; Function compile flags: /Odspy
; File C:\Program Files (x86)\Microsoft Visual Studio\2019\Community\VC\Tools\MSVC\14.28.29333\include\xstring
;	COMDAT ?_Xlen_string@std@@YAXXZ
_TEXT	SEGMENT
?_Xlen_string@std@@YAXXZ PROC				; std::_Xlen_string, COMDAT

; 2274 : [[noreturn]] inline void _Xlen_string() {

  00000	55		 push	 ebp
  00001	8b ec		 mov	 ebp, esp

; 2275 :     _Xlength_error("string too long");

  00003	68 00 00 00 00	 push	 OFFSET ??_C@_0BA@JFNIOLAK@string?5too?5long@
  00008	e8 00 00 00 00	 call	 ?_Xlength_error@std@@YAXPBD@Z ; std::_Xlength_error
$LN2@Xlen_strin:

; 2276 : }

  0000d	5d		 pop	 ebp
  0000e	c3		 ret	 0
?_Xlen_string@std@@YAXXZ ENDP				; std::_Xlen_string
_TEXT	ENDS
; Function compile flags: /Odspy
; File C:\Program Files (x86)\Microsoft Visual Studio\2019\Community\VC\Tools\MSVC\14.28.29333\include\xmemory
;	COMDAT ?_Adjust_manually_vector_aligned@std@@YAXAAPAXAAI@Z
_TEXT	SEGMENT
__Min_back_shift$ = -16					; size = 4
__Ptr_user$ = -12					; size = 4
__Ptr_container$ = -8					; size = 4
__Back_shift$ = -4					; size = 4
__Ptr$ = 8						; size = 4
__Bytes$ = 12						; size = 4
?_Adjust_manually_vector_aligned@std@@YAXAAPAXAAI@Z PROC ; std::_Adjust_manually_vector_aligned, COMDAT

; 132  : inline void _Adjust_manually_vector_aligned(void*& _Ptr, size_t& _Bytes) {

  00000	55		 push	 ebp
  00001	8b ec		 mov	 ebp, esp
  00003	83 ec 10	 sub	 esp, 16			; 00000010H

; 133  :     // adjust parameters from _Allocate_manually_vector_aligned to pass to operator delete
; 134  :     _Bytes += _Non_user_size;

  00006	8b 45 0c	 mov	 eax, DWORD PTR __Bytes$[ebp]
  00009	8b 00		 mov	 eax, DWORD PTR [eax]
  0000b	83 c0 23	 add	 eax, 35			; 00000023H
  0000e	8b 4d 0c	 mov	 ecx, DWORD PTR __Bytes$[ebp]
  00011	89 01		 mov	 DWORD PTR [ecx], eax

; 135  : 
; 136  :     const uintptr_t* const _Ptr_user = reinterpret_cast<uintptr_t*>(_Ptr);

  00013	8b 45 08	 mov	 eax, DWORD PTR __Ptr$[ebp]
  00016	8b 00		 mov	 eax, DWORD PTR [eax]
  00018	89 45 f4	 mov	 DWORD PTR __Ptr_user$[ebp], eax

; 137  :     const uintptr_t _Ptr_container   = _Ptr_user[-1];

  0001b	6a 04		 push	 4
  0001d	58		 pop	 eax
  0001e	6b c0 ff	 imul	 eax, eax, -1
  00021	8b 4d f4	 mov	 ecx, DWORD PTR __Ptr_user$[ebp]
  00024	8b 04 01	 mov	 eax, DWORD PTR [ecx+eax]
  00027	89 45 f8	 mov	 DWORD PTR __Ptr_container$[ebp], eax

; 138  : 
; 139  :     // If the following asserts, it likely means that we are performing
; 140  :     // an aligned delete on memory coming from an unaligned allocation.
; 141  :     _STL_ASSERT(_Ptr_user[-2] == _Big_allocation_sentinel, "invalid argument");
; 142  : 
; 143  :     // Extra paranoia on aligned allocation/deallocation; ensure _Ptr_container is
; 144  :     // in range [_Min_back_shift, _Non_user_size]
; 145  : #ifdef _DEBUG
; 146  :     constexpr uintptr_t _Min_back_shift = 2 * sizeof(void*);
; 147  : #else // ^^^ _DEBUG ^^^ // vvv !_DEBUG vvv
; 148  :     constexpr uintptr_t _Min_back_shift = sizeof(void*);

  0002a	c7 45 f0 04 00
	00 00		 mov	 DWORD PTR __Min_back_shift$[ebp], 4

; 149  : #endif // _DEBUG
; 150  :     const uintptr_t _Back_shift = reinterpret_cast<uintptr_t>(_Ptr) - _Ptr_container;

  00031	8b 45 08	 mov	 eax, DWORD PTR __Ptr$[ebp]
  00034	8b 00		 mov	 eax, DWORD PTR [eax]
  00036	2b 45 f8	 sub	 eax, DWORD PTR __Ptr_container$[ebp]
  00039	89 45 fc	 mov	 DWORD PTR __Back_shift$[ebp], eax
$LN4@Adjust_man:

; 151  :     _STL_VERIFY(_Back_shift >= _Min_back_shift && _Back_shift <= _Non_user_size, "invalid argument");

  0003c	83 7d fc 04	 cmp	 DWORD PTR __Back_shift$[ebp], 4
  00040	72 08		 jb	 SHORT $LN7@Adjust_man
  00042	83 7d fc 23	 cmp	 DWORD PTR __Back_shift$[ebp], 35 ; 00000023H
  00046	77 02		 ja	 SHORT $LN7@Adjust_man
  00048	eb 09		 jmp	 SHORT $LN2@Adjust_man
$LN7@Adjust_man:
  0004a	e8 00 00 00 00	 call	 __invalid_parameter_noinfo_noreturn
  0004f	33 c0		 xor	 eax, eax
  00051	75 f7		 jne	 SHORT $LN7@Adjust_man
$LN2@Adjust_man:
  00053	33 c0		 xor	 eax, eax
  00055	75 e5		 jne	 SHORT $LN4@Adjust_man

; 152  :     _Ptr = reinterpret_cast<void*>(_Ptr_container);

  00057	8b 45 08	 mov	 eax, DWORD PTR __Ptr$[ebp]
  0005a	8b 4d f8	 mov	 ecx, DWORD PTR __Ptr_container$[ebp]
  0005d	89 08		 mov	 DWORD PTR [eax], ecx
$LN10@Adjust_man:

; 153  : }

  0005f	c9		 leave
  00060	c3		 ret	 0
?_Adjust_manually_vector_aligned@std@@YAXAAPAXAAI@Z ENDP ; std::_Adjust_manually_vector_aligned
_TEXT	ENDS
; Function compile flags: /Odspy
; File C:\Program Files (x86)\Microsoft Visual Studio\2019\Community\VC\Tools\MSVC\14.28.29333\include\exception
;	COMDAT ?_Throw_bad_array_new_length@std@@YAXXZ
_TEXT	SEGMENT
$T1 = -12						; size = 12
?_Throw_bad_array_new_length@std@@YAXXZ PROC		; std::_Throw_bad_array_new_length, COMDAT

; 320  : [[noreturn]] inline void _Throw_bad_array_new_length() {

  00000	55		 push	 ebp
  00001	8b ec		 mov	 ebp, esp
  00003	83 ec 0c	 sub	 esp, 12			; 0000000cH

; 321  :     _THROW(bad_array_new_length{});

  00006	8d 4d f4	 lea	 ecx, DWORD PTR $T1[ebp]
  00009	e8 00 00 00 00	 call	 ??0bad_array_new_length@std@@QAE@XZ ; std::bad_array_new_length::bad_array_new_length
  0000e	68 00 00 00 00	 push	 OFFSET __TI3?AVbad_array_new_length@std@@
  00013	8d 45 f4	 lea	 eax, DWORD PTR $T1[ebp]
  00016	50		 push	 eax
  00017	e8 00 00 00 00	 call	 __CxxThrowException@8
$LN2@Throw_bad_:

; 322  : }

  0001c	c9		 leave
  0001d	c3		 ret	 0
?_Throw_bad_array_new_length@std@@YAXXZ ENDP		; std::_Throw_bad_array_new_length
_TEXT	ENDS
; Function compile flags: /Odspy
; File C:\Program Files (x86)\Microsoft Visual Studio\2019\Community\VC\Tools\MSVC\14.28.29333\include\vcruntime_exception.h
;	COMDAT ??_Gbad_array_new_length@std@@UAEPAXI@Z
_TEXT	SEGMENT
_this$ = -4						; size = 4
___flags$ = 8						; size = 4
??_Gbad_array_new_length@std@@UAEPAXI@Z PROC		; std::bad_array_new_length::`scalar deleting destructor', COMDAT
; _this$ = ecx
  00000	55		 push	 ebp
  00001	8b ec		 mov	 ebp, esp
  00003	51		 push	 ecx
  00004	89 4d fc	 mov	 DWORD PTR _this$[ebp], ecx

; 89   :     {

  00007	8b 45 fc	 mov	 eax, DWORD PTR _this$[ebp]
  0000a	c7 00 00 00 00
	00		 mov	 DWORD PTR [eax], OFFSET ??_7exception@std@@6B@

; 90   :         __std_exception_destroy(&_Data);

  00010	8b 45 fc	 mov	 eax, DWORD PTR _this$[ebp]
  00013	83 c0 04	 add	 eax, 4
  00016	50		 push	 eax
  00017	e8 00 00 00 00	 call	 ___std_exception_destroy
  0001c	59		 pop	 ecx
  0001d	8b 45 08	 mov	 eax, DWORD PTR ___flags$[ebp]
  00020	83 e0 01	 and	 eax, 1
  00023	74 0c		 je	 SHORT $LN2@scalar
  00025	6a 0c		 push	 12			; 0000000cH
  00027	ff 75 fc	 push	 DWORD PTR _this$[ebp]
  0002a	e8 00 00 00 00	 call	 ??3@YAXPAXI@Z		; operator delete
  0002f	59		 pop	 ecx
  00030	59		 pop	 ecx
$LN2@scalar:
  00031	8b 45 fc	 mov	 eax, DWORD PTR _this$[ebp]
  00034	c9		 leave
  00035	c2 04 00	 ret	 4
??_Gbad_array_new_length@std@@UAEPAXI@Z ENDP		; std::bad_array_new_length::`scalar deleting destructor'
_TEXT	ENDS
; Function compile flags: /Odspy
;	COMDAT ??0bad_array_new_length@std@@QAE@ABV01@@Z
_TEXT	SEGMENT
_this$ = -4						; size = 4
___that$ = 8						; size = 4
??0bad_array_new_length@std@@QAE@ABV01@@Z PROC		; std::bad_array_new_length::bad_array_new_length, COMDAT
; _this$ = ecx
  00000	55		 push	 ebp
  00001	8b ec		 mov	 ebp, esp
  00003	51		 push	 ecx
  00004	89 4d fc	 mov	 DWORD PTR _this$[ebp], ecx
  00007	ff 75 08	 push	 DWORD PTR ___that$[ebp]
  0000a	8b 4d fc	 mov	 ecx, DWORD PTR _this$[ebp]
  0000d	e8 00 00 00 00	 call	 ??0exception@std@@QAE@ABV01@@Z ; std::exception::exception
  00012	8b 45 fc	 mov	 eax, DWORD PTR _this$[ebp]
  00015	c7 00 00 00 00
	00		 mov	 DWORD PTR [eax], OFFSET ??_7bad_alloc@std@@6B@
  0001b	8b 45 fc	 mov	 eax, DWORD PTR _this$[ebp]
  0001e	c7 00 00 00 00
	00		 mov	 DWORD PTR [eax], OFFSET ??_7bad_array_new_length@std@@6B@
  00024	8b 45 fc	 mov	 eax, DWORD PTR _this$[ebp]
  00027	c9		 leave
  00028	c2 04 00	 ret	 4
??0bad_array_new_length@std@@QAE@ABV01@@Z ENDP		; std::bad_array_new_length::bad_array_new_length
_TEXT	ENDS
; Function compile flags: /Odspy
; File C:\Program Files (x86)\Microsoft Visual Studio\2019\Community\VC\Tools\MSVC\14.28.29333\include\vcruntime_exception.h
;	COMDAT ??1bad_array_new_length@std@@UAE@XZ
_TEXT	SEGMENT
_this$ = -4						; size = 4
??1bad_array_new_length@std@@UAE@XZ PROC		; std::bad_array_new_length::~bad_array_new_length, COMDAT
; _this$ = ecx
  00000	55		 push	 ebp
  00001	8b ec		 mov	 ebp, esp
  00003	51		 push	 ecx
  00004	89 4d fc	 mov	 DWORD PTR _this$[ebp], ecx

; 89   :     {

  00007	8b 45 fc	 mov	 eax, DWORD PTR _this$[ebp]
  0000a	c7 00 00 00 00
	00		 mov	 DWORD PTR [eax], OFFSET ??_7exception@std@@6B@

; 90   :         __std_exception_destroy(&_Data);

  00010	8b 45 fc	 mov	 eax, DWORD PTR _this$[ebp]
  00013	83 c0 04	 add	 eax, 4
  00016	50		 push	 eax
  00017	e8 00 00 00 00	 call	 ___std_exception_destroy
  0001c	59		 pop	 ecx
  0001d	c9		 leave
  0001e	c3		 ret	 0
??1bad_array_new_length@std@@UAE@XZ ENDP		; std::bad_array_new_length::~bad_array_new_length
_TEXT	ENDS
; Function compile flags: /Odspy
; File C:\Program Files (x86)\Microsoft Visual Studio\2019\Community\VC\Tools\MSVC\14.28.29333\include\vcruntime_exception.h
;	COMDAT ??0bad_array_new_length@std@@QAE@XZ
_TEXT	SEGMENT
_this$ = -4						; size = 4
??0bad_array_new_length@std@@QAE@XZ PROC		; std::bad_array_new_length::bad_array_new_length, COMDAT
; _this$ = ecx

; 141  :     {

  00000	55		 push	 ebp
  00001	8b ec		 mov	 ebp, esp
  00003	51		 push	 ecx
  00004	89 4d fc	 mov	 DWORD PTR _this$[ebp], ecx

; 66   :     {

  00007	8b 45 fc	 mov	 eax, DWORD PTR _this$[ebp]
  0000a	c7 00 00 00 00
	00		 mov	 DWORD PTR [eax], OFFSET ??_7exception@std@@6B@

; 65   :         : _Data()

  00010	33 c0		 xor	 eax, eax
  00012	8b 4d fc	 mov	 ecx, DWORD PTR _this$[ebp]
  00015	83 c1 04	 add	 ecx, 4
  00018	89 01		 mov	 DWORD PTR [ecx], eax
  0001a	89 41 04	 mov	 DWORD PTR [ecx+4], eax

; 67   :         _Data._What = _Message;

  0001d	8b 45 fc	 mov	 eax, DWORD PTR _this$[ebp]
  00020	c7 40 04 00 00
	00 00		 mov	 DWORD PTR [eax+4], OFFSET ??_C@_0BF@KINCDENJ@bad?5array?5new?5length@

; 130  :     {

  00027	8b 45 fc	 mov	 eax, DWORD PTR _this$[ebp]
  0002a	c7 00 00 00 00
	00		 mov	 DWORD PTR [eax], OFFSET ??_7bad_alloc@std@@6B@

; 141  :     {

  00030	8b 45 fc	 mov	 eax, DWORD PTR _this$[ebp]
  00033	c7 00 00 00 00
	00		 mov	 DWORD PTR [eax], OFFSET ??_7bad_array_new_length@std@@6B@

; 142  :     }

  00039	8b 45 fc	 mov	 eax, DWORD PTR _this$[ebp]
  0003c	c9		 leave
  0003d	c3		 ret	 0
??0bad_array_new_length@std@@QAE@XZ ENDP		; std::bad_array_new_length::bad_array_new_length
_TEXT	ENDS
; Function compile flags: /Odspy
; File C:\Program Files (x86)\Microsoft Visual Studio\2019\Community\VC\Tools\MSVC\14.28.29333\include\vcruntime_exception.h
;	COMDAT ??_Gbad_alloc@std@@UAEPAXI@Z
_TEXT	SEGMENT
_this$ = -4						; size = 4
___flags$ = 8						; size = 4
??_Gbad_alloc@std@@UAEPAXI@Z PROC			; std::bad_alloc::`scalar deleting destructor', COMDAT
; _this$ = ecx
  00000	55		 push	 ebp
  00001	8b ec		 mov	 ebp, esp
  00003	51		 push	 ecx
  00004	89 4d fc	 mov	 DWORD PTR _this$[ebp], ecx

; 89   :     {

  00007	8b 45 fc	 mov	 eax, DWORD PTR _this$[ebp]
  0000a	c7 00 00 00 00
	00		 mov	 DWORD PTR [eax], OFFSET ??_7exception@std@@6B@

; 90   :         __std_exception_destroy(&_Data);

  00010	8b 45 fc	 mov	 eax, DWORD PTR _this$[ebp]
  00013	83 c0 04	 add	 eax, 4
  00016	50		 push	 eax
  00017	e8 00 00 00 00	 call	 ___std_exception_destroy
  0001c	59		 pop	 ecx
  0001d	8b 45 08	 mov	 eax, DWORD PTR ___flags$[ebp]
  00020	83 e0 01	 and	 eax, 1
  00023	74 0c		 je	 SHORT $LN2@scalar
  00025	6a 0c		 push	 12			; 0000000cH
  00027	ff 75 fc	 push	 DWORD PTR _this$[ebp]
  0002a	e8 00 00 00 00	 call	 ??3@YAXPAXI@Z		; operator delete
  0002f	59		 pop	 ecx
  00030	59		 pop	 ecx
$LN2@scalar:
  00031	8b 45 fc	 mov	 eax, DWORD PTR _this$[ebp]
  00034	c9		 leave
  00035	c2 04 00	 ret	 4
??_Gbad_alloc@std@@UAEPAXI@Z ENDP			; std::bad_alloc::`scalar deleting destructor'
_TEXT	ENDS
; Function compile flags: /Odspy
;	COMDAT ??0bad_alloc@std@@QAE@ABV01@@Z
_TEXT	SEGMENT
_this$ = -4						; size = 4
___that$ = 8						; size = 4
??0bad_alloc@std@@QAE@ABV01@@Z PROC			; std::bad_alloc::bad_alloc, COMDAT
; _this$ = ecx
  00000	55		 push	 ebp
  00001	8b ec		 mov	 ebp, esp
  00003	51		 push	 ecx
  00004	89 4d fc	 mov	 DWORD PTR _this$[ebp], ecx
  00007	ff 75 08	 push	 DWORD PTR ___that$[ebp]
  0000a	8b 4d fc	 mov	 ecx, DWORD PTR _this$[ebp]
  0000d	e8 00 00 00 00	 call	 ??0exception@std@@QAE@ABV01@@Z ; std::exception::exception
  00012	8b 45 fc	 mov	 eax, DWORD PTR _this$[ebp]
  00015	c7 00 00 00 00
	00		 mov	 DWORD PTR [eax], OFFSET ??_7bad_alloc@std@@6B@
  0001b	8b 45 fc	 mov	 eax, DWORD PTR _this$[ebp]
  0001e	c9		 leave
  0001f	c2 04 00	 ret	 4
??0bad_alloc@std@@QAE@ABV01@@Z ENDP			; std::bad_alloc::bad_alloc
_TEXT	ENDS
; Function compile flags: /Odspy
; File C:\Program Files (x86)\Microsoft Visual Studio\2019\Community\VC\Tools\MSVC\14.28.29333\include\vcruntime_exception.h
;	COMDAT ??_Gexception@std@@UAEPAXI@Z
_TEXT	SEGMENT
_this$ = -4						; size = 4
___flags$ = 8						; size = 4
??_Gexception@std@@UAEPAXI@Z PROC			; std::exception::`scalar deleting destructor', COMDAT
; _this$ = ecx
  00000	55		 push	 ebp
  00001	8b ec		 mov	 ebp, esp
  00003	51		 push	 ecx
  00004	89 4d fc	 mov	 DWORD PTR _this$[ebp], ecx

; 89   :     {

  00007	8b 45 fc	 mov	 eax, DWORD PTR _this$[ebp]
  0000a	c7 00 00 00 00
	00		 mov	 DWORD PTR [eax], OFFSET ??_7exception@std@@6B@

; 90   :         __std_exception_destroy(&_Data);

  00010	8b 45 fc	 mov	 eax, DWORD PTR _this$[ebp]
  00013	83 c0 04	 add	 eax, 4
  00016	50		 push	 eax
  00017	e8 00 00 00 00	 call	 ___std_exception_destroy
  0001c	59		 pop	 ecx
  0001d	8b 45 08	 mov	 eax, DWORD PTR ___flags$[ebp]
  00020	83 e0 01	 and	 eax, 1
  00023	74 0c		 je	 SHORT $LN2@scalar
  00025	6a 0c		 push	 12			; 0000000cH
  00027	ff 75 fc	 push	 DWORD PTR _this$[ebp]
  0002a	e8 00 00 00 00	 call	 ??3@YAXPAXI@Z		; operator delete
  0002f	59		 pop	 ecx
  00030	59		 pop	 ecx
$LN2@scalar:
  00031	8b 45 fc	 mov	 eax, DWORD PTR _this$[ebp]
  00034	c9		 leave
  00035	c2 04 00	 ret	 4
??_Gexception@std@@UAEPAXI@Z ENDP			; std::exception::`scalar deleting destructor'
_TEXT	ENDS
; Function compile flags: /Odspy
; File C:\Program Files (x86)\Microsoft Visual Studio\2019\Community\VC\Tools\MSVC\14.28.29333\include\vcruntime_exception.h
;	COMDAT ?what@exception@std@@UBEPBDXZ
_TEXT	SEGMENT
tv69 = -8						; size = 4
_this$ = -4						; size = 4
?what@exception@std@@UBEPBDXZ PROC			; std::exception::what, COMDAT
; _this$ = ecx

; 94   :     {

  00000	55		 push	 ebp
  00001	8b ec		 mov	 ebp, esp
  00003	51		 push	 ecx
  00004	51		 push	 ecx
  00005	89 4d fc	 mov	 DWORD PTR _this$[ebp], ecx

; 95   :         return _Data._What ? _Data._What : "Unknown exception";

  00008	8b 45 fc	 mov	 eax, DWORD PTR _this$[ebp]
  0000b	83 78 04 00	 cmp	 DWORD PTR [eax+4], 0
  0000f	74 0b		 je	 SHORT $LN3@what
  00011	8b 45 fc	 mov	 eax, DWORD PTR _this$[ebp]
  00014	8b 40 04	 mov	 eax, DWORD PTR [eax+4]
  00017	89 45 f8	 mov	 DWORD PTR tv69[ebp], eax
  0001a	eb 07		 jmp	 SHORT $LN4@what
$LN3@what:
  0001c	c7 45 f8 00 00
	00 00		 mov	 DWORD PTR tv69[ebp], OFFSET ??_C@_0BC@EOODALEL@Unknown?5exception@
$LN4@what:
  00023	8b 45 f8	 mov	 eax, DWORD PTR tv69[ebp]

; 96   :     }

  00026	c9		 leave
  00027	c3		 ret	 0
?what@exception@std@@UBEPBDXZ ENDP			; std::exception::what
_TEXT	ENDS
; Function compile flags: /Odspy
; File C:\Program Files (x86)\Microsoft Visual Studio\2019\Community\VC\Tools\MSVC\14.28.29333\include\vcruntime_exception.h
;	COMDAT ??0exception@std@@QAE@ABV01@@Z
_TEXT	SEGMENT
_this$ = -4						; size = 4
__Other$ = 8						; size = 4
??0exception@std@@QAE@ABV01@@Z PROC			; std::exception::exception, COMDAT
; _this$ = ecx

; 72   :     {

  00000	55		 push	 ebp
  00001	8b ec		 mov	 ebp, esp
  00003	51		 push	 ecx
  00004	89 4d fc	 mov	 DWORD PTR _this$[ebp], ecx
  00007	8b 45 fc	 mov	 eax, DWORD PTR _this$[ebp]
  0000a	c7 00 00 00 00
	00		 mov	 DWORD PTR [eax], OFFSET ??_7exception@std@@6B@

; 71   :         : _Data()

  00010	33 c0		 xor	 eax, eax
  00012	8b 4d fc	 mov	 ecx, DWORD PTR _this$[ebp]
  00015	83 c1 04	 add	 ecx, 4
  00018	89 01		 mov	 DWORD PTR [ecx], eax
  0001a	89 41 04	 mov	 DWORD PTR [ecx+4], eax

; 73   :         __std_exception_copy(&_Other._Data, &_Data);

  0001d	8b 45 fc	 mov	 eax, DWORD PTR _this$[ebp]
  00020	83 c0 04	 add	 eax, 4
  00023	50		 push	 eax
  00024	8b 45 08	 mov	 eax, DWORD PTR __Other$[ebp]
  00027	83 c0 04	 add	 eax, 4
  0002a	50		 push	 eax
  0002b	e8 00 00 00 00	 call	 ___std_exception_copy
  00030	59		 pop	 ecx
  00031	59		 pop	 ecx

; 74   :     }

  00032	8b 45 fc	 mov	 eax, DWORD PTR _this$[ebp]
  00035	c9		 leave
  00036	c2 04 00	 ret	 4
??0exception@std@@QAE@ABV01@@Z ENDP			; std::exception::exception
_TEXT	ENDS
; Function compile flags: /Odspy
; File C:\Program Files (x86)\Windows Kits\10\Include\10.0.18362.0\ucrt\stdio.h
;	COMDAT _fprintf
_TEXT	SEGMENT
__Result$ = -12						; size = 4
__Format$ = -8						; size = 4
__ArgList$ = -4						; size = 4
__Stream$ = 8						; size = 4
__Format$ = 12						; size = 4
_fprintf PROC						; COMDAT

; 835  :     {

  00000	55		 push	 ebp
  00001	8b ec		 mov	 ebp, esp
  00003	83 ec 0c	 sub	 esp, 12			; 0000000cH

; 836  :         int _Result;
; 837  :         va_list _ArgList;
; 838  :         __crt_va_start(_ArgList, _Format);

  00006	8d 45 10	 lea	 eax, DWORD PTR __Format$[ebp+4]
  00009	89 45 fc	 mov	 DWORD PTR __ArgList$[ebp], eax

; 839  :         _Result = _vfprintf_l(_Stream, _Format, NULL, _ArgList);

  0000c	8b 45 0c	 mov	 eax, DWORD PTR __Format$[ebp]
  0000f	89 45 f8	 mov	 DWORD PTR __Format$[ebp], eax

; 643  :         return __stdio_common_vfprintf(_CRT_INTERNAL_LOCAL_PRINTF_OPTIONS, _Stream, _Format, _Locale, _ArgList);

  00012	ff 75 fc	 push	 DWORD PTR __ArgList$[ebp]
  00015	6a 00		 push	 0
  00017	ff 75 f8	 push	 DWORD PTR __Format$[ebp]
  0001a	ff 75 08	 push	 DWORD PTR __Stream$[ebp]
  0001d	e8 00 00 00 00	 call	 ___local_stdio_printf_options
  00022	ff 70 04	 push	 DWORD PTR [eax+4]
  00025	ff 30		 push	 DWORD PTR [eax]
  00027	e8 00 00 00 00	 call	 ___stdio_common_vfprintf
  0002c	83 c4 18	 add	 esp, 24			; 00000018H

; 839  :         _Result = _vfprintf_l(_Stream, _Format, NULL, _ArgList);

  0002f	89 45 f4	 mov	 DWORD PTR __Result$[ebp], eax

; 840  :         __crt_va_end(_ArgList);

  00032	83 65 fc 00	 and	 DWORD PTR __ArgList$[ebp], 0

; 841  :         return _Result;

  00036	8b 45 f4	 mov	 eax, DWORD PTR __Result$[ebp]

; 842  :     }

  00039	c9		 leave
  0003a	c3		 ret	 0
_fprintf ENDP
_TEXT	ENDS
; Function compile flags: /Odspy
; File C:\Program Files (x86)\Windows Kits\10\Include\10.0.18362.0\ucrt\corecrt_stdio_config.h
;	COMDAT ___local_stdio_printf_options
_TEXT	SEGMENT
___local_stdio_printf_options PROC			; COMDAT

; 86   :     {

  00000	55		 push	 ebp
  00001	8b ec		 mov	 ebp, esp

; 87   :         static unsigned __int64 _OptionsStorage;
; 88   :         return &_OptionsStorage;

  00003	b8 00 00 00 00	 mov	 eax, OFFSET ?_OptionsStorage@?1??__local_stdio_printf_options@@9@4_KA ; `__local_stdio_printf_options'::`2'::_OptionsStorage

; 89   :     }

  00008	5d		 pop	 ebp
  00009	c3		 ret	 0
___local_stdio_printf_options ENDP
_TEXT	ENDS
END
