; Listing generated by Microsoft (R) Optimizing Compiler Version 19.28.29335.0 

	TITLE	D:\Metin2 Server Files\mainline\SRC_2014\Metin2Client\MilesLib\SoundManagerStream.cpp
	.686P
	.XMM
	include listing.inc
	.model	flat

INCLUDELIB LIBCMT
INCLUDELIB OLDNAMES

PUBLIC	??0CSoundManagerStream@@QAE@XZ			; CSoundManagerStream::CSoundManagerStream
PUBLIC	??1CSoundManagerStream@@UAE@XZ			; CSoundManagerStream::~CSoundManagerStream
PUBLIC	?Initialize@CSoundManagerStream@@QAE_NXZ	; CSoundManagerStream::Initialize
PUBLIC	?Destroy@CSoundManagerStream@@QAEXXZ		; CSoundManagerStream::Destroy
PUBLIC	?SetInstance@CSoundManagerStream@@QAE_NKPBD@Z	; CSoundManagerStream::SetInstance
PUBLIC	?GetInstance@CSoundManagerStream@@QAEPAVCSoundInstanceStream@@K@Z ; CSoundManagerStream::GetInstance
PUBLIC	?CheckInstanceIndex@CSoundManagerStream@@IAE_NK@Z ; CSoundManagerStream::CheckInstanceIndex
PUBLIC	??_GCSoundManagerStream@@UAEPAXI@Z		; CSoundManagerStream::`scalar deleting destructor'
PUBLIC	??_7CSoundManagerStream@@6B@			; CSoundManagerStream::`vftable'
PUBLIC	??_R1A@?0A@EA@CSoundBase@@8			; CSoundBase::`RTTI Base Class Descriptor at (0,-1,0,64)'
PUBLIC	??_R0?AVCSoundBase@@@8				; CSoundBase `RTTI Type Descriptor'
PUBLIC	??_R3CSoundBase@@8				; CSoundBase::`RTTI Class Hierarchy Descriptor'
PUBLIC	??_R2CSoundBase@@8				; CSoundBase::`RTTI Base Class Array'
PUBLIC	??_R4CSoundManagerStream@@6B@			; CSoundManagerStream::`RTTI Complete Object Locator'
PUBLIC	??_R0?AVCSoundManagerStream@@@8			; CSoundManagerStream `RTTI Type Descriptor'
PUBLIC	??_R3CSoundManagerStream@@8			; CSoundManagerStream::`RTTI Class Hierarchy Descriptor'
PUBLIC	??_R2CSoundManagerStream@@8			; CSoundManagerStream::`RTTI Base Class Array'
PUBLIC	??_R1A@?0A@EA@CSoundManagerStream@@8		; CSoundManagerStream::`RTTI Base Class Descriptor at (0,-1,0,64)'
EXTRN	??_L@YGXPAXIIP6EX0@Z1@Z:PROC			; `eh vector constructor iterator'
EXTRN	??_M@YGXPAXIIP6EX0@Z@Z:PROC			; `eh vector destructor iterator'
EXTRN	??3@YAXPAXI@Z:PROC				; operator delete
EXTRN	__imp__AIL_open_digital_driver@16:PROC
EXTRN	__imp__AIL_open_stream@12:PROC
EXTRN	??0CSoundBase@@QAE@XZ:PROC			; CSoundBase::CSoundBase
EXTRN	??1CSoundBase@@UAE@XZ:PROC			; CSoundBase::~CSoundBase
EXTRN	?Initialize@CSoundBase@@QAEXXZ:PROC		; CSoundBase::Initialize
EXTRN	?Destroy@CSoundBase@@QAEXXZ:PROC		; CSoundBase::Destroy
EXTRN	??0CSoundInstanceStream@@QAE@XZ:PROC		; CSoundInstanceStream::CSoundInstanceStream
EXTRN	??1CSoundInstanceStream@@UAE@XZ:PROC		; CSoundInstanceStream::~CSoundInstanceStream
EXTRN	?SetStream@CSoundInstanceStream@@QAEXPAU_STREAM@@@Z:PROC ; CSoundInstanceStream::SetStream
EXTRN	??_ECSoundManagerStream@@UAEPAXI@Z:PROC		; CSoundManagerStream::`vector deleting destructor'
EXTRN	@__security_check_cookie@4:PROC
EXTRN	___CxxFrameHandler3:PROC
EXTRN	??_7type_info@@6B@:QWORD			; type_info::`vftable'
EXTRN	?ms_DIGDriver@CSoundBase@@1PAU_DIG_DRIVER@@A:DWORD ; CSoundBase::ms_DIGDriver
EXTRN	___security_cookie:DWORD
;	COMDAT ??_R1A@?0A@EA@CSoundManagerStream@@8
rdata$r	SEGMENT
??_R1A@?0A@EA@CSoundManagerStream@@8 DD FLAT:??_R0?AVCSoundManagerStream@@@8 ; CSoundManagerStream::`RTTI Base Class Descriptor at (0,-1,0,64)'
	DD	01H
	DD	00H
	DD	0ffffffffH
	DD	00H
	DD	040H
	DD	FLAT:??_R3CSoundManagerStream@@8
rdata$r	ENDS
;	COMDAT ??_R2CSoundManagerStream@@8
rdata$r	SEGMENT
??_R2CSoundManagerStream@@8 DD FLAT:??_R1A@?0A@EA@CSoundManagerStream@@8 ; CSoundManagerStream::`RTTI Base Class Array'
	DD	FLAT:??_R1A@?0A@EA@CSoundBase@@8
rdata$r	ENDS
;	COMDAT ??_R3CSoundManagerStream@@8
rdata$r	SEGMENT
??_R3CSoundManagerStream@@8 DD 00H			; CSoundManagerStream::`RTTI Class Hierarchy Descriptor'
	DD	00H
	DD	02H
	DD	FLAT:??_R2CSoundManagerStream@@8
rdata$r	ENDS
;	COMDAT ??_R0?AVCSoundManagerStream@@@8
data$rs	SEGMENT
??_R0?AVCSoundManagerStream@@@8 DD FLAT:??_7type_info@@6B@ ; CSoundManagerStream `RTTI Type Descriptor'
	DD	00H
	DB	'.?AVCSoundManagerStream@@', 00H
data$rs	ENDS
;	COMDAT ??_R4CSoundManagerStream@@6B@
rdata$r	SEGMENT
??_R4CSoundManagerStream@@6B@ DD 00H			; CSoundManagerStream::`RTTI Complete Object Locator'
	DD	00H
	DD	00H
	DD	FLAT:??_R0?AVCSoundManagerStream@@@8
	DD	FLAT:??_R3CSoundManagerStream@@8
rdata$r	ENDS
;	COMDAT ??_R2CSoundBase@@8
rdata$r	SEGMENT
??_R2CSoundBase@@8 DD FLAT:??_R1A@?0A@EA@CSoundBase@@8	; CSoundBase::`RTTI Base Class Array'
rdata$r	ENDS
;	COMDAT ??_R3CSoundBase@@8
rdata$r	SEGMENT
??_R3CSoundBase@@8 DD 00H				; CSoundBase::`RTTI Class Hierarchy Descriptor'
	DD	00H
	DD	01H
	DD	FLAT:??_R2CSoundBase@@8
rdata$r	ENDS
;	COMDAT ??_R0?AVCSoundBase@@@8
data$rs	SEGMENT
??_R0?AVCSoundBase@@@8 DD FLAT:??_7type_info@@6B@	; CSoundBase `RTTI Type Descriptor'
	DD	00H
	DB	'.?AVCSoundBase@@', 00H
data$rs	ENDS
;	COMDAT ??_R1A@?0A@EA@CSoundBase@@8
rdata$r	SEGMENT
??_R1A@?0A@EA@CSoundBase@@8 DD FLAT:??_R0?AVCSoundBase@@@8 ; CSoundBase::`RTTI Base Class Descriptor at (0,-1,0,64)'
	DD	00H
	DD	00H
	DD	0ffffffffH
	DD	00H
	DD	040H
	DD	FLAT:??_R3CSoundBase@@8
rdata$r	ENDS
;	COMDAT ??_7CSoundManagerStream@@6B@
CONST	SEGMENT
??_7CSoundManagerStream@@6B@ DD FLAT:??_R4CSoundManagerStream@@6B@ ; CSoundManagerStream::`vftable'
	DD	FLAT:??_ECSoundManagerStream@@UAEPAXI@Z
CONST	ENDS
;	COMDAT xdata$x
xdata$x	SEGMENT
__ehfuncinfo$??1CSoundManagerStream@@UAE@XZ DD 019930522H
	DD	00H
	DD	00H
	DD	2 DUP(00H)
	DD	2 DUP(00H)
	DD	00H
	DD	05H
xdata$x	ENDS
;	COMDAT xdata$x
xdata$x	SEGMENT
__unwindtable$??0CSoundManagerStream@@QAE@XZ DD 0ffffffffH
	DD	FLAT:__unwindfunclet$??0CSoundManagerStream@@QAE@XZ$0
__ehfuncinfo$??0CSoundManagerStream@@QAE@XZ DD 019930522H
	DD	01H
	DD	FLAT:__unwindtable$??0CSoundManagerStream@@QAE@XZ
	DD	2 DUP(00H)
	DD	2 DUP(00H)
	DD	00H
	DD	01H
xdata$x	ENDS
; Function compile flags: /Odspy
;	COMDAT ??_GCSoundManagerStream@@UAEPAXI@Z
_TEXT	SEGMENT
_this$ = -4						; size = 4
___flags$ = 8						; size = 4
??_GCSoundManagerStream@@UAEPAXI@Z PROC			; CSoundManagerStream::`scalar deleting destructor', COMDAT
; _this$ = ecx
  00000	55		 push	 ebp
  00001	8b ec		 mov	 ebp, esp
  00003	51		 push	 ecx
  00004	89 4d fc	 mov	 DWORD PTR _this$[ebp], ecx
  00007	8b 4d fc	 mov	 ecx, DWORD PTR _this$[ebp]
  0000a	e8 00 00 00 00	 call	 ??1CSoundManagerStream@@UAE@XZ ; CSoundManagerStream::~CSoundManagerStream
  0000f	8b 45 08	 mov	 eax, DWORD PTR ___flags$[ebp]
  00012	83 e0 01	 and	 eax, 1
  00015	74 0c		 je	 SHORT $LN2@scalar
  00017	6a 1c		 push	 28			; 0000001cH
  00019	ff 75 fc	 push	 DWORD PTR _this$[ebp]
  0001c	e8 00 00 00 00	 call	 ??3@YAXPAXI@Z		; operator delete
  00021	59		 pop	 ecx
  00022	59		 pop	 ecx
$LN2@scalar:
  00023	8b 45 fc	 mov	 eax, DWORD PTR _this$[ebp]
  00026	c9		 leave
  00027	c2 04 00	 ret	 4
??_GCSoundManagerStream@@UAEPAXI@Z ENDP			; CSoundManagerStream::`scalar deleting destructor'
_TEXT	ENDS
; Function compile flags: /Odspy
; File D:\Metin2 Server Files\mainline\SRC_2014\Metin2Client\MilesLib\SoundManagerStream.cpp
;	COMDAT ?CheckInstanceIndex@CSoundManagerStream@@IAE_NK@Z
_TEXT	SEGMENT
_this$ = -4						; size = 4
_dwIndex$ = 8						; size = 4
?CheckInstanceIndex@CSoundManagerStream@@IAE_NK@Z PROC	; CSoundManagerStream::CheckInstanceIndex, COMDAT
; _this$ = ecx

; 59   : {

  00000	55		 push	 ebp
  00001	8b ec		 mov	 ebp, esp
  00003	51		 push	 ecx
  00004	89 4d fc	 mov	 DWORD PTR _this$[ebp], ecx

; 60   : 	if (dwIndex >= DWORD(MUSIC_INSTANCE_MAX_NUM))

  00007	83 7d 08 03	 cmp	 DWORD PTR _dwIndex$[ebp], 3
  0000b	72 04		 jb	 SHORT $LN2@CheckInsta

; 61   : 		return false;

  0000d	32 c0		 xor	 al, al
  0000f	eb 02		 jmp	 SHORT $LN1@CheckInsta
$LN2@CheckInsta:

; 62   : 
; 63   : 	return true;

  00011	b0 01		 mov	 al, 1
$LN1@CheckInsta:

; 64   : }

  00013	c9		 leave
  00014	c2 04 00	 ret	 4
?CheckInstanceIndex@CSoundManagerStream@@IAE_NK@Z ENDP	; CSoundManagerStream::CheckInstanceIndex
_TEXT	ENDS
; Function compile flags: /Odspy
; File D:\Metin2 Server Files\mainline\SRC_2014\Metin2Client\MilesLib\SoundManagerStream.cpp
;	COMDAT ?GetInstance@CSoundManagerStream@@QAEPAVCSoundInstanceStream@@K@Z
_TEXT	SEGMENT
_this$ = -4						; size = 4
_dwIndex$ = 8						; size = 4
?GetInstance@CSoundManagerStream@@QAEPAVCSoundInstanceStream@@K@Z PROC ; CSoundManagerStream::GetInstance, COMDAT
; _this$ = ecx

; 51   : {

  00000	55		 push	 ebp
  00001	8b ec		 mov	 ebp, esp
  00003	51		 push	 ecx
  00004	89 4d fc	 mov	 DWORD PTR _this$[ebp], ecx

; 52   : 	if (!CheckInstanceIndex(dwIndex))

  00007	ff 75 08	 push	 DWORD PTR _dwIndex$[ebp]
  0000a	8b 4d fc	 mov	 ecx, DWORD PTR _this$[ebp]
  0000d	e8 00 00 00 00	 call	 ?CheckInstanceIndex@CSoundManagerStream@@IAE_NK@Z ; CSoundManagerStream::CheckInstanceIndex
  00012	0f b6 c0	 movzx	 eax, al
  00015	85 c0		 test	 eax, eax
  00017	75 04		 jne	 SHORT $LN2@GetInstanc

; 53   : 		return NULL;

  00019	33 c0		 xor	 eax, eax
  0001b	eb 0a		 jmp	 SHORT $LN1@GetInstanc
$LN2@GetInstanc:

; 54   : 
; 55   : 	return &m_Instances[dwIndex];

  0001d	8b 45 08	 mov	 eax, DWORD PTR _dwIndex$[ebp]
  00020	8b 4d fc	 mov	 ecx, DWORD PTR _this$[ebp]
  00023	8d 44 c1 04	 lea	 eax, DWORD PTR [ecx+eax*8+4]
$LN1@GetInstanc:

; 56   : }

  00027	c9		 leave
  00028	c2 04 00	 ret	 4
?GetInstance@CSoundManagerStream@@QAEPAVCSoundInstanceStream@@K@Z ENDP ; CSoundManagerStream::GetInstance
_TEXT	ENDS
; Function compile flags: /Odspy
; File D:\Metin2 Server Files\mainline\SRC_2014\Metin2Client\MilesLib\SoundManagerStream.cpp
;	COMDAT ?SetInstance@CSoundManagerStream@@QAE_NKPBD@Z
_TEXT	SEGMENT
_this$ = -8						; size = 4
_hStream$ = -4						; size = 4
_dwIndex$ = 8						; size = 4
_filename$ = 12						; size = 4
?SetInstance@CSoundManagerStream@@QAE_NKPBD@Z PROC	; CSoundManagerStream::SetInstance, COMDAT
; _this$ = ecx

; 36   : {

  00000	55		 push	 ebp
  00001	8b ec		 mov	 ebp, esp
  00003	51		 push	 ecx
  00004	51		 push	 ecx
  00005	89 4d f8	 mov	 DWORD PTR _this$[ebp], ecx

; 37   : 	if (!CheckInstanceIndex(dwIndex))

  00008	ff 75 08	 push	 DWORD PTR _dwIndex$[ebp]
  0000b	8b 4d f8	 mov	 ecx, DWORD PTR _this$[ebp]
  0000e	e8 00 00 00 00	 call	 ?CheckInstanceIndex@CSoundManagerStream@@IAE_NK@Z ; CSoundManagerStream::CheckInstanceIndex
  00013	0f b6 c0	 movzx	 eax, al
  00016	85 c0		 test	 eax, eax
  00018	75 04		 jne	 SHORT $LN2@SetInstanc

; 38   : 		return false;

  0001a	32 c0		 xor	 al, al
  0001c	eb 32		 jmp	 SHORT $LN1@SetInstanc
$LN2@SetInstanc:

; 39   : 
; 40   : 	HSTREAM hStream = AIL_open_stream(ms_DIGDriver, filename, 0);

  0001e	6a 00		 push	 0
  00020	ff 75 0c	 push	 DWORD PTR _filename$[ebp]
  00023	ff 35 00 00 00
	00		 push	 DWORD PTR ?ms_DIGDriver@CSoundBase@@1PAU_DIG_DRIVER@@A ; CSoundBase::ms_DIGDriver
  00029	ff 15 00 00 00
	00		 call	 DWORD PTR __imp__AIL_open_stream@12
  0002f	89 45 fc	 mov	 DWORD PTR _hStream$[ebp], eax

; 41   : 
; 42   : 	if (NULL == hStream)

  00032	83 7d fc 00	 cmp	 DWORD PTR _hStream$[ebp], 0
  00036	75 04		 jne	 SHORT $LN3@SetInstanc

; 43   : 		return false;

  00038	32 c0		 xor	 al, al
  0003a	eb 14		 jmp	 SHORT $LN1@SetInstanc
$LN3@SetInstanc:

; 44   : 
; 45   : 	m_Instances[dwIndex].SetStream(hStream);

  0003c	ff 75 fc	 push	 DWORD PTR _hStream$[ebp]
  0003f	8b 45 08	 mov	 eax, DWORD PTR _dwIndex$[ebp]
  00042	8b 4d f8	 mov	 ecx, DWORD PTR _this$[ebp]
  00045	8d 4c c1 04	 lea	 ecx, DWORD PTR [ecx+eax*8+4]
  00049	e8 00 00 00 00	 call	 ?SetStream@CSoundInstanceStream@@QAEXPAU_STREAM@@@Z ; CSoundInstanceStream::SetStream

; 46   : 
; 47   : 	return true;

  0004e	b0 01		 mov	 al, 1
$LN1@SetInstanc:

; 48   : }

  00050	c9		 leave
  00051	c2 08 00	 ret	 8
?SetInstance@CSoundManagerStream@@QAE_NKPBD@Z ENDP	; CSoundManagerStream::SetInstance
_TEXT	ENDS
; Function compile flags: /Odspy
; File D:\Metin2 Server Files\mainline\SRC_2014\Metin2Client\MilesLib\SoundManagerStream.cpp
;	COMDAT ?Destroy@CSoundManagerStream@@QAEXXZ
_TEXT	SEGMENT
_this$ = -8						; size = 4
_i$1 = -4						; size = 4
?Destroy@CSoundManagerStream@@QAEXXZ PROC		; CSoundManagerStream::Destroy, COMDAT
; _this$ = ecx

; 28   : {	

  00000	55		 push	 ebp
  00001	8b ec		 mov	 ebp, esp
  00003	51		 push	 ecx
  00004	51		 push	 ecx
  00005	89 4d f8	 mov	 DWORD PTR _this$[ebp], ecx

; 29   : 	for (int i=0; i<MUSIC_INSTANCE_MAX_NUM; ++i)

  00008	83 65 fc 00	 and	 DWORD PTR _i$1[ebp], 0
  0000c	eb 07		 jmp	 SHORT $LN4@Destroy
$LN2@Destroy:
  0000e	8b 45 fc	 mov	 eax, DWORD PTR _i$1[ebp]
  00011	40		 inc	 eax
  00012	89 45 fc	 mov	 DWORD PTR _i$1[ebp], eax
$LN4@Destroy:
  00015	83 7d fc 03	 cmp	 DWORD PTR _i$1[ebp], 3
  00019	7d 19		 jge	 SHORT $LN3@Destroy

; 30   : 		m_Instances[i].Stop();

  0001b	8b 45 fc	 mov	 eax, DWORD PTR _i$1[ebp]
  0001e	8b 4d f8	 mov	 ecx, DWORD PTR _this$[ebp]
  00021	8d 4c c1 04	 lea	 ecx, DWORD PTR [ecx+eax*8+4]
  00025	8b 45 fc	 mov	 eax, DWORD PTR _i$1[ebp]
  00028	8b 55 f8	 mov	 edx, DWORD PTR _this$[ebp]
  0002b	8b 44 c2 04	 mov	 eax, DWORD PTR [edx+eax*8+4]
  0002f	ff 50 1c	 call	 DWORD PTR [eax+28]
  00032	eb da		 jmp	 SHORT $LN2@Destroy
$LN3@Destroy:

; 31   : 
; 32   : 	CSoundBase::Destroy();

  00034	8b 4d f8	 mov	 ecx, DWORD PTR _this$[ebp]
  00037	e8 00 00 00 00	 call	 ?Destroy@CSoundBase@@QAEXXZ ; CSoundBase::Destroy

; 33   : }

  0003c	c9		 leave
  0003d	c3		 ret	 0
?Destroy@CSoundManagerStream@@QAEXXZ ENDP		; CSoundManagerStream::Destroy
_TEXT	ENDS
; Function compile flags: /Odspy
; File D:\Metin2 Server Files\mainline\SRC_2014\Metin2Client\MilesLib\SoundManagerStream.cpp
;	COMDAT ?Initialize@CSoundManagerStream@@QAE_NXZ
_TEXT	SEGMENT
_this$ = -8						; size = 4
_i$1 = -4						; size = 4
?Initialize@CSoundManagerStream@@QAE_NXZ PROC		; CSoundManagerStream::Initialize, COMDAT
; _this$ = ecx

; 13   : {

  00000	55		 push	 ebp
  00001	8b ec		 mov	 ebp, esp
  00003	51		 push	 ecx
  00004	51		 push	 ecx
  00005	89 4d f8	 mov	 DWORD PTR _this$[ebp], ecx

; 14   : 	CSoundBase::Initialize();

  00008	8b 4d f8	 mov	 ecx, DWORD PTR _this$[ebp]
  0000b	e8 00 00 00 00	 call	 ?Initialize@CSoundBase@@QAEXXZ ; CSoundBase::Initialize

; 15   : 	
; 16   : 	if (ms_DIGDriver)

  00010	83 3d 00 00 00
	00 00		 cmp	 DWORD PTR ?ms_DIGDriver@CSoundBase@@1PAU_DIG_DRIVER@@A, 0 ; CSoundBase::ms_DIGDriver
  00017	74 04		 je	 SHORT $LN5@Initialize

; 17   : 		return true;

  00019	b0 01		 mov	 al, 1
  0001b	eb 44		 jmp	 SHORT $LN1@Initialize
$LN5@Initialize:

; 18   : 
; 19   : 	ms_DIGDriver = AIL_open_digital_driver(44100, 16, 2, 0);

  0001d	6a 00		 push	 0
  0001f	6a 02		 push	 2
  00021	6a 10		 push	 16			; 00000010H
  00023	68 44 ac 00 00	 push	 44100			; 0000ac44H
  00028	ff 15 00 00 00
	00		 call	 DWORD PTR __imp__AIL_open_digital_driver@16
  0002e	a3 00 00 00 00	 mov	 DWORD PTR ?ms_DIGDriver@CSoundBase@@1PAU_DIG_DRIVER@@A, eax ; CSoundBase::ms_DIGDriver

; 20   : 
; 21   : 	for (int i = 0; i < MUSIC_INSTANCE_MAX_NUM; ++i)

  00033	83 65 fc 00	 and	 DWORD PTR _i$1[ebp], 0
  00037	eb 07		 jmp	 SHORT $LN4@Initialize
$LN2@Initialize:
  00039	8b 45 fc	 mov	 eax, DWORD PTR _i$1[ebp]
  0003c	40		 inc	 eax
  0003d	89 45 fc	 mov	 DWORD PTR _i$1[ebp], eax
$LN4@Initialize:
  00040	83 7d fc 03	 cmp	 DWORD PTR _i$1[ebp], 3
  00044	7d 19		 jge	 SHORT $LN3@Initialize

; 22   : 		m_Instances[i].Initialize();

  00046	8b 45 fc	 mov	 eax, DWORD PTR _i$1[ebp]
  00049	8b 4d f8	 mov	 ecx, DWORD PTR _this$[ebp]
  0004c	8d 4c c1 04	 lea	 ecx, DWORD PTR [ecx+eax*8+4]
  00050	8b 45 fc	 mov	 eax, DWORD PTR _i$1[ebp]
  00053	8b 55 f8	 mov	 edx, DWORD PTR _this$[ebp]
  00056	8b 44 c2 04	 mov	 eax, DWORD PTR [edx+eax*8+4]
  0005a	ff 50 04	 call	 DWORD PTR [eax+4]
  0005d	eb da		 jmp	 SHORT $LN2@Initialize
$LN3@Initialize:

; 23   : 
; 24   : 	return true;

  0005f	b0 01		 mov	 al, 1
$LN1@Initialize:

; 25   : }

  00061	c9		 leave
  00062	c3		 ret	 0
?Initialize@CSoundManagerStream@@QAE_NXZ ENDP		; CSoundManagerStream::Initialize
_TEXT	ENDS
; Function compile flags: /Odspy
; File D:\Metin2 Server Files\mainline\SRC_2014\Metin2Client\MilesLib\SoundManagerStream.cpp
;	COMDAT ??1CSoundManagerStream@@UAE@XZ
_TEXT	SEGMENT
_this$ = -16						; size = 4
__$EHRec$ = -12						; size = 12
??1CSoundManagerStream@@UAE@XZ PROC			; CSoundManagerStream::~CSoundManagerStream, COMDAT
; _this$ = ecx

; 9    : {	

  00000	55		 push	 ebp
  00001	8b ec		 mov	 ebp, esp
  00003	6a ff		 push	 -1
  00005	68 00 00 00 00	 push	 __ehhandler$??1CSoundManagerStream@@UAE@XZ
  0000a	64 a1 00 00 00
	00		 mov	 eax, DWORD PTR fs:0
  00010	50		 push	 eax
  00011	51		 push	 ecx
  00012	a1 00 00 00 00	 mov	 eax, DWORD PTR ___security_cookie
  00017	33 c5		 xor	 eax, ebp
  00019	50		 push	 eax
  0001a	8d 45 f4	 lea	 eax, DWORD PTR __$EHRec$[ebp]
  0001d	64 a3 00 00 00
	00		 mov	 DWORD PTR fs:0, eax
  00023	89 4d f0	 mov	 DWORD PTR _this$[ebp], ecx
  00026	8b 45 f0	 mov	 eax, DWORD PTR _this$[ebp]
  00029	c7 00 00 00 00
	00		 mov	 DWORD PTR [eax], OFFSET ??_7CSoundManagerStream@@6B@

; 10   : }

  0002f	68 00 00 00 00	 push	 OFFSET ??1CSoundInstanceStream@@UAE@XZ ; CSoundInstanceStream::~CSoundInstanceStream
  00034	6a 03		 push	 3
  00036	6a 08		 push	 8
  00038	8b 45 f0	 mov	 eax, DWORD PTR _this$[ebp]
  0003b	83 c0 04	 add	 eax, 4
  0003e	50		 push	 eax
  0003f	e8 00 00 00 00	 call	 ??_M@YGXPAXIIP6EX0@Z@Z
  00044	8b 4d f0	 mov	 ecx, DWORD PTR _this$[ebp]
  00047	e8 00 00 00 00	 call	 ??1CSoundBase@@UAE@XZ	; CSoundBase::~CSoundBase
  0004c	8b 4d f4	 mov	 ecx, DWORD PTR __$EHRec$[ebp]
  0004f	64 89 0d 00 00
	00 00		 mov	 DWORD PTR fs:0, ecx
  00056	59		 pop	 ecx
  00057	c9		 leave
  00058	c3		 ret	 0
  00059	cc		 int	 3
  0005a	cc		 int	 3
  0005b	cc		 int	 3
  0005c	cc		 int	 3
  0005d	cc		 int	 3
_TEXT	ENDS
;	COMDAT text$x
text$x	SEGMENT
__ehhandler$??1CSoundManagerStream@@UAE@XZ:
  00000	90		 npad	 1
  00001	90		 npad	 1
  00002	8b 54 24 08	 mov	 edx, DWORD PTR [esp+8]
  00006	8d 42 0c	 lea	 eax, DWORD PTR [edx+12]
  00009	8b 4a f8	 mov	 ecx, DWORD PTR [edx-8]
  0000c	33 c8		 xor	 ecx, eax
  0000e	e8 00 00 00 00	 call	 @__security_check_cookie@4
  00013	b8 00 00 00 00	 mov	 eax, OFFSET __ehfuncinfo$??1CSoundManagerStream@@UAE@XZ
  00018	e9 00 00 00 00	 jmp	 ___CxxFrameHandler3
text$x	ENDS
??1CSoundManagerStream@@UAE@XZ ENDP			; CSoundManagerStream::~CSoundManagerStream
; Function compile flags: /Odspy
; File D:\Metin2 Server Files\mainline\SRC_2014\Metin2Client\MilesLib\SoundManagerStream.cpp
;	COMDAT ??0CSoundManagerStream@@QAE@XZ
_TEXT	SEGMENT
_this$ = -16						; size = 4
__$EHRec$ = -12						; size = 12
??0CSoundManagerStream@@QAE@XZ PROC			; CSoundManagerStream::CSoundManagerStream, COMDAT
; _this$ = ecx

; 5    : {

  00000	55		 push	 ebp
  00001	8b ec		 mov	 ebp, esp
  00003	6a ff		 push	 -1
  00005	68 00 00 00 00	 push	 __ehhandler$??0CSoundManagerStream@@QAE@XZ
  0000a	64 a1 00 00 00
	00		 mov	 eax, DWORD PTR fs:0
  00010	50		 push	 eax
  00011	51		 push	 ecx
  00012	a1 00 00 00 00	 mov	 eax, DWORD PTR ___security_cookie
  00017	33 c5		 xor	 eax, ebp
  00019	50		 push	 eax
  0001a	8d 45 f4	 lea	 eax, DWORD PTR __$EHRec$[ebp]
  0001d	64 a3 00 00 00
	00		 mov	 DWORD PTR fs:0, eax
  00023	89 4d f0	 mov	 DWORD PTR _this$[ebp], ecx
  00026	8b 4d f0	 mov	 ecx, DWORD PTR _this$[ebp]
  00029	e8 00 00 00 00	 call	 ??0CSoundBase@@QAE@XZ	; CSoundBase::CSoundBase
  0002e	83 65 fc 00	 and	 DWORD PTR __$EHRec$[ebp+8], 0
  00032	8b 45 f0	 mov	 eax, DWORD PTR _this$[ebp]
  00035	c7 00 00 00 00
	00		 mov	 DWORD PTR [eax], OFFSET ??_7CSoundManagerStream@@6B@
  0003b	68 00 00 00 00	 push	 OFFSET ??1CSoundInstanceStream@@UAE@XZ ; CSoundInstanceStream::~CSoundInstanceStream
  00040	68 00 00 00 00	 push	 OFFSET ??0CSoundInstanceStream@@QAE@XZ ; CSoundInstanceStream::CSoundInstanceStream
  00045	6a 03		 push	 3
  00047	6a 08		 push	 8
  00049	8b 45 f0	 mov	 eax, DWORD PTR _this$[ebp]
  0004c	83 c0 04	 add	 eax, 4
  0004f	50		 push	 eax
  00050	e8 00 00 00 00	 call	 ??_L@YGXPAXIIP6EX0@Z1@Z

; 6    : }

  00055	83 4d fc ff	 or	 DWORD PTR __$EHRec$[ebp+8], -1
  00059	8b 45 f0	 mov	 eax, DWORD PTR _this$[ebp]
  0005c	8b 4d f4	 mov	 ecx, DWORD PTR __$EHRec$[ebp]
  0005f	64 89 0d 00 00
	00 00		 mov	 DWORD PTR fs:0, ecx
  00066	59		 pop	 ecx
  00067	c9		 leave
  00068	c3		 ret	 0
_TEXT	ENDS
;	COMDAT text$x
text$x	SEGMENT
__unwindfunclet$??0CSoundManagerStream@@QAE@XZ$0:
  00000	8b 4d f0	 mov	 ecx, DWORD PTR _this$[ebp]
  00003	e9 00 00 00 00	 jmp	 ??1CSoundBase@@UAE@XZ	; CSoundBase::~CSoundBase
  00008	cc		 int	 3
  00009	cc		 int	 3
  0000a	cc		 int	 3
  0000b	cc		 int	 3
  0000c	cc		 int	 3
__ehhandler$??0CSoundManagerStream@@QAE@XZ:
  0000d	90		 npad	 1
  0000e	90		 npad	 1
  0000f	8b 54 24 08	 mov	 edx, DWORD PTR [esp+8]
  00013	8d 42 0c	 lea	 eax, DWORD PTR [edx+12]
  00016	8b 4a f8	 mov	 ecx, DWORD PTR [edx-8]
  00019	33 c8		 xor	 ecx, eax
  0001b	e8 00 00 00 00	 call	 @__security_check_cookie@4
  00020	b8 00 00 00 00	 mov	 eax, OFFSET __ehfuncinfo$??0CSoundManagerStream@@QAE@XZ
  00025	e9 00 00 00 00	 jmp	 ___CxxFrameHandler3
text$x	ENDS
??0CSoundManagerStream@@QAE@XZ ENDP			; CSoundManagerStream::CSoundManagerStream
END
