; Listing generated by Microsoft (R) Optimizing Compiler Version 19.28.29335.0 

	TITLE	D:\Metin2 Server Files\mainline\SRC_2014\Metin2Client\MilesLib\SoundInstance2D.cpp
	.686P
	.XMM
	include listing.inc
	.model	flat

INCLUDELIB LIBCMT
INCLUDELIB OLDNAMES

PUBLIC	??_GISoundInstance@@UAEPAXI@Z			; ISoundInstance::`scalar deleting destructor'
PUBLIC	??0CSoundInstance2D@@QAE@XZ			; CSoundInstance2D::CSoundInstance2D
PUBLIC	??1CSoundInstance2D@@UAE@XZ			; CSoundInstance2D::~CSoundInstance2D
PUBLIC	?Initialize@CSoundInstance2D@@UAE_NXZ		; CSoundInstance2D::Initialize
PUBLIC	?Destroy@CSoundInstance2D@@UAEXXZ		; CSoundInstance2D::Destroy
PUBLIC	?SetSound@CSoundInstance2D@@UAE_NPAVCSoundData@@@Z ; CSoundInstance2D::SetSound
PUBLIC	?Play@CSoundInstance2D@@UBEXHK@Z		; CSoundInstance2D::Play
PUBLIC	?Pause@CSoundInstance2D@@UBEXXZ			; CSoundInstance2D::Pause
PUBLIC	?Resume@CSoundInstance2D@@UBEXXZ		; CSoundInstance2D::Resume
PUBLIC	?Stop@CSoundInstance2D@@UAEXXZ			; CSoundInstance2D::Stop
PUBLIC	?GetVolume@CSoundInstance2D@@UBEXAAM@Z		; CSoundInstance2D::GetVolume
PUBLIC	?SetVolume@CSoundInstance2D@@UBEXM@Z		; CSoundInstance2D::SetVolume
PUBLIC	?IsDone@CSoundInstance2D@@UBE_NXZ		; CSoundInstance2D::IsDone
PUBLIC	?SetPosition@CSoundInstance2D@@UBEXMMM@Z	; CSoundInstance2D::SetPosition
PUBLIC	?SetOrientation@CSoundInstance2D@@UBEXMMMMMM@Z	; CSoundInstance2D::SetOrientation
PUBLIC	?SetVelocity@CSoundInstance2D@@UBEXMMMM@Z	; CSoundInstance2D::SetVelocity
PUBLIC	??_GCSoundInstance2D@@UAEPAXI@Z			; CSoundInstance2D::`scalar deleting destructor'
PUBLIC	??_7ISoundInstance@@6B@				; ISoundInstance::`vftable'
PUBLIC	??_7CSoundInstance2D@@6B@			; CSoundInstance2D::`vftable'
PUBLIC	??_C@_06DJHOIPC@?$CFs?3?5?$CFs@			; `string'
PUBLIC	??_R4ISoundInstance@@6B@			; ISoundInstance::`RTTI Complete Object Locator'
PUBLIC	??_R0?AVISoundInstance@@@8			; ISoundInstance `RTTI Type Descriptor'
PUBLIC	??_R3ISoundInstance@@8				; ISoundInstance::`RTTI Class Hierarchy Descriptor'
PUBLIC	??_R2ISoundInstance@@8				; ISoundInstance::`RTTI Base Class Array'
PUBLIC	??_R1A@?0A@EA@ISoundInstance@@8			; ISoundInstance::`RTTI Base Class Descriptor at (0,-1,0,64)'
PUBLIC	??_R1A@?0A@EA@CSoundBase@@8			; CSoundBase::`RTTI Base Class Descriptor at (0,-1,0,64)'
PUBLIC	??_R0?AVCSoundBase@@@8				; CSoundBase `RTTI Type Descriptor'
PUBLIC	??_R3CSoundBase@@8				; CSoundBase::`RTTI Class Hierarchy Descriptor'
PUBLIC	??_R2CSoundBase@@8				; CSoundBase::`RTTI Base Class Array'
PUBLIC	??_R4CSoundInstance2D@@6B@			; CSoundInstance2D::`RTTI Complete Object Locator'
PUBLIC	??_R0?AVCSoundInstance2D@@@8			; CSoundInstance2D `RTTI Type Descriptor'
PUBLIC	??_R3CSoundInstance2D@@8			; CSoundInstance2D::`RTTI Class Hierarchy Descriptor'
PUBLIC	??_R2CSoundInstance2D@@8			; CSoundInstance2D::`RTTI Base Class Array'
PUBLIC	??_R1A@?0A@EA@CSoundInstance2D@@8		; CSoundInstance2D::`RTTI Base Class Descriptor at (0,-1,0,64)'
PUBLIC	__real@3f000000
PUBLIC	__real@3f800000
EXTRN	__purecall:PROC
EXTRN	??3@YAXPAXI@Z:PROC				; operator delete
EXTRN	__imp__AIL_last_error@0:PROC
EXTRN	__imp__AIL_allocate_sample_handle@4:PROC
EXTRN	__imp__AIL_release_sample_handle@4:PROC
EXTRN	__imp__AIL_init_sample@4:PROC
EXTRN	__imp__AIL_set_sample_file@12:PROC
EXTRN	__imp__AIL_start_sample@4:PROC
EXTRN	__imp__AIL_stop_sample@4:PROC
EXTRN	__imp__AIL_resume_sample@4:PROC
EXTRN	__imp__AIL_end_sample@4:PROC
EXTRN	__imp__AIL_set_sample_volume_pan@12:PROC
EXTRN	__imp__AIL_set_sample_loop_count@8:PROC
EXTRN	__imp__AIL_sample_status@4:PROC
EXTRN	__imp__AIL_sample_volume_pan@12:PROC
EXTRN	?TraceError@@YAXPBDZZ:PROC			; TraceError
EXTRN	?Get@CSoundData@@QAEPAXXZ:PROC			; CSoundData::Get
EXTRN	?GetSize@CSoundData@@QAEKXZ:PROC		; CSoundData::GetSize
EXTRN	?Release@CSoundData@@QAEXXZ:PROC		; CSoundData::Release
EXTRN	?GetFileName@CSoundData@@QAEPBDXZ:PROC		; CSoundData::GetFileName
EXTRN	??0CSoundBase@@QAE@XZ:PROC			; CSoundBase::CSoundBase
EXTRN	??1CSoundBase@@UAE@XZ:PROC			; CSoundBase::~CSoundBase
EXTRN	??_EISoundInstance@@UAEPAXI@Z:PROC		; ISoundInstance::`vector deleting destructor'
EXTRN	??_ECSoundInstance2D@@UAEPAXI@Z:PROC		; CSoundInstance2D::`vector deleting destructor'
EXTRN	@__security_check_cookie@4:PROC
EXTRN	___CxxFrameHandler3:PROC
EXTRN	??_7type_info@@6B@:QWORD			; type_info::`vftable'
EXTRN	?ms_DIGDriver@CSoundBase@@1PAU_DIG_DRIVER@@A:DWORD ; CSoundBase::ms_DIGDriver
EXTRN	___security_cookie:DWORD
EXTRN	__fltused:DWORD
;	COMDAT __real@3f800000
CONST	SEGMENT
__real@3f800000 DD 03f800000r			; 1
CONST	ENDS
;	COMDAT __real@3f000000
CONST	SEGMENT
__real@3f000000 DD 03f000000r			; 0.5
CONST	ENDS
;	COMDAT ??_R1A@?0A@EA@CSoundInstance2D@@8
rdata$r	SEGMENT
??_R1A@?0A@EA@CSoundInstance2D@@8 DD FLAT:??_R0?AVCSoundInstance2D@@@8 ; CSoundInstance2D::`RTTI Base Class Descriptor at (0,-1,0,64)'
	DD	02H
	DD	00H
	DD	0ffffffffH
	DD	00H
	DD	040H
	DD	FLAT:??_R3CSoundInstance2D@@8
rdata$r	ENDS
;	COMDAT ??_R2CSoundInstance2D@@8
rdata$r	SEGMENT
??_R2CSoundInstance2D@@8 DD FLAT:??_R1A@?0A@EA@CSoundInstance2D@@8 ; CSoundInstance2D::`RTTI Base Class Array'
	DD	FLAT:??_R1A@?0A@EA@ISoundInstance@@8
	DD	FLAT:??_R1A@?0A@EA@CSoundBase@@8
rdata$r	ENDS
;	COMDAT ??_R3CSoundInstance2D@@8
rdata$r	SEGMENT
??_R3CSoundInstance2D@@8 DD 00H				; CSoundInstance2D::`RTTI Class Hierarchy Descriptor'
	DD	00H
	DD	03H
	DD	FLAT:??_R2CSoundInstance2D@@8
rdata$r	ENDS
;	COMDAT ??_R0?AVCSoundInstance2D@@@8
data$rs	SEGMENT
??_R0?AVCSoundInstance2D@@@8 DD FLAT:??_7type_info@@6B@	; CSoundInstance2D `RTTI Type Descriptor'
	DD	00H
	DB	'.?AVCSoundInstance2D@@', 00H
data$rs	ENDS
;	COMDAT ??_R4CSoundInstance2D@@6B@
rdata$r	SEGMENT
??_R4CSoundInstance2D@@6B@ DD 00H			; CSoundInstance2D::`RTTI Complete Object Locator'
	DD	00H
	DD	00H
	DD	FLAT:??_R0?AVCSoundInstance2D@@@8
	DD	FLAT:??_R3CSoundInstance2D@@8
rdata$r	ENDS
;	COMDAT ??_R2CSoundBase@@8
rdata$r	SEGMENT
??_R2CSoundBase@@8 DD FLAT:??_R1A@?0A@EA@CSoundBase@@8	; CSoundBase::`RTTI Base Class Array'
rdata$r	ENDS
;	COMDAT ??_R3CSoundBase@@8
rdata$r	SEGMENT
??_R3CSoundBase@@8 DD 00H				; CSoundBase::`RTTI Class Hierarchy Descriptor'
	DD	00H
	DD	01H
	DD	FLAT:??_R2CSoundBase@@8
rdata$r	ENDS
;	COMDAT ??_R0?AVCSoundBase@@@8
data$rs	SEGMENT
??_R0?AVCSoundBase@@@8 DD FLAT:??_7type_info@@6B@	; CSoundBase `RTTI Type Descriptor'
	DD	00H
	DB	'.?AVCSoundBase@@', 00H
data$rs	ENDS
;	COMDAT ??_R1A@?0A@EA@CSoundBase@@8
rdata$r	SEGMENT
??_R1A@?0A@EA@CSoundBase@@8 DD FLAT:??_R0?AVCSoundBase@@@8 ; CSoundBase::`RTTI Base Class Descriptor at (0,-1,0,64)'
	DD	00H
	DD	00H
	DD	0ffffffffH
	DD	00H
	DD	040H
	DD	FLAT:??_R3CSoundBase@@8
rdata$r	ENDS
;	COMDAT ??_R1A@?0A@EA@ISoundInstance@@8
rdata$r	SEGMENT
??_R1A@?0A@EA@ISoundInstance@@8 DD FLAT:??_R0?AVISoundInstance@@@8 ; ISoundInstance::`RTTI Base Class Descriptor at (0,-1,0,64)'
	DD	01H
	DD	00H
	DD	0ffffffffH
	DD	00H
	DD	040H
	DD	FLAT:??_R3ISoundInstance@@8
rdata$r	ENDS
;	COMDAT ??_R2ISoundInstance@@8
rdata$r	SEGMENT
??_R2ISoundInstance@@8 DD FLAT:??_R1A@?0A@EA@ISoundInstance@@8 ; ISoundInstance::`RTTI Base Class Array'
	DD	FLAT:??_R1A@?0A@EA@CSoundBase@@8
rdata$r	ENDS
;	COMDAT ??_R3ISoundInstance@@8
rdata$r	SEGMENT
??_R3ISoundInstance@@8 DD 00H				; ISoundInstance::`RTTI Class Hierarchy Descriptor'
	DD	00H
	DD	02H
	DD	FLAT:??_R2ISoundInstance@@8
rdata$r	ENDS
;	COMDAT ??_R0?AVISoundInstance@@@8
data$rs	SEGMENT
??_R0?AVISoundInstance@@@8 DD FLAT:??_7type_info@@6B@	; ISoundInstance `RTTI Type Descriptor'
	DD	00H
	DB	'.?AVISoundInstance@@', 00H
data$rs	ENDS
;	COMDAT ??_R4ISoundInstance@@6B@
rdata$r	SEGMENT
??_R4ISoundInstance@@6B@ DD 00H				; ISoundInstance::`RTTI Complete Object Locator'
	DD	00H
	DD	00H
	DD	FLAT:??_R0?AVISoundInstance@@@8
	DD	FLAT:??_R3ISoundInstance@@8
rdata$r	ENDS
;	COMDAT ??_C@_06DJHOIPC@?$CFs?3?5?$CFs@
CONST	SEGMENT
??_C@_06DJHOIPC@?$CFs?3?5?$CFs@ DB '%s: %s', 00H	; `string'
CONST	ENDS
;	COMDAT ??_7CSoundInstance2D@@6B@
CONST	SEGMENT
??_7CSoundInstance2D@@6B@ DD FLAT:??_R4CSoundInstance2D@@6B@ ; CSoundInstance2D::`vftable'
	DD	FLAT:??_ECSoundInstance2D@@UAEPAXI@Z
	DD	FLAT:?Initialize@CSoundInstance2D@@UAE_NXZ
	DD	FLAT:?Destroy@CSoundInstance2D@@UAEXXZ
	DD	FLAT:?SetSound@CSoundInstance2D@@UAE_NPAVCSoundData@@@Z
	DD	FLAT:?Play@CSoundInstance2D@@UBEXHK@Z
	DD	FLAT:?Pause@CSoundInstance2D@@UBEXXZ
	DD	FLAT:?Resume@CSoundInstance2D@@UBEXXZ
	DD	FLAT:?Stop@CSoundInstance2D@@UAEXXZ
	DD	FLAT:?GetVolume@CSoundInstance2D@@UBEXAAM@Z
	DD	FLAT:?SetVolume@CSoundInstance2D@@UBEXM@Z
	DD	FLAT:?IsDone@CSoundInstance2D@@UBE_NXZ
	DD	FLAT:?SetPosition@CSoundInstance2D@@UBEXMMM@Z
	DD	FLAT:?SetOrientation@CSoundInstance2D@@UBEXMMMMMM@Z
	DD	FLAT:?SetVelocity@CSoundInstance2D@@UBEXMMMM@Z
CONST	ENDS
;	COMDAT ??_7ISoundInstance@@6B@
CONST	SEGMENT
??_7ISoundInstance@@6B@ DD FLAT:??_R4ISoundInstance@@6B@ ; ISoundInstance::`vftable'
	DD	FLAT:??_EISoundInstance@@UAEPAXI@Z
	DD	FLAT:__purecall
	DD	FLAT:__purecall
	DD	FLAT:__purecall
	DD	FLAT:__purecall
	DD	FLAT:__purecall
	DD	FLAT:__purecall
	DD	FLAT:__purecall
	DD	FLAT:__purecall
	DD	FLAT:__purecall
	DD	FLAT:__purecall
	DD	FLAT:__purecall
	DD	FLAT:__purecall
	DD	FLAT:__purecall
CONST	ENDS
;	COMDAT xdata$x
xdata$x	SEGMENT
__ehfuncinfo$??1CSoundInstance2D@@UAE@XZ DD 019930522H
	DD	00H
	DD	00H
	DD	2 DUP(00H)
	DD	2 DUP(00H)
	DD	00H
	DD	05H
xdata$x	ENDS
; Function compile flags: /Odspy
;	COMDAT ??_GCSoundInstance2D@@UAEPAXI@Z
_TEXT	SEGMENT
_this$ = -4						; size = 4
___flags$ = 8						; size = 4
??_GCSoundInstance2D@@UAEPAXI@Z PROC			; CSoundInstance2D::`scalar deleting destructor', COMDAT
; _this$ = ecx
  00000	55		 push	 ebp
  00001	8b ec		 mov	 ebp, esp
  00003	51		 push	 ecx
  00004	89 4d fc	 mov	 DWORD PTR _this$[ebp], ecx
  00007	8b 4d fc	 mov	 ecx, DWORD PTR _this$[ebp]
  0000a	e8 00 00 00 00	 call	 ??1CSoundInstance2D@@UAE@XZ ; CSoundInstance2D::~CSoundInstance2D
  0000f	8b 45 08	 mov	 eax, DWORD PTR ___flags$[ebp]
  00012	83 e0 01	 and	 eax, 1
  00015	74 0c		 je	 SHORT $LN2@scalar
  00017	6a 0c		 push	 12			; 0000000cH
  00019	ff 75 fc	 push	 DWORD PTR _this$[ebp]
  0001c	e8 00 00 00 00	 call	 ??3@YAXPAXI@Z		; operator delete
  00021	59		 pop	 ecx
  00022	59		 pop	 ecx
$LN2@scalar:
  00023	8b 45 fc	 mov	 eax, DWORD PTR _this$[ebp]
  00026	c9		 leave
  00027	c2 04 00	 ret	 4
??_GCSoundInstance2D@@UAEPAXI@Z ENDP			; CSoundInstance2D::`scalar deleting destructor'
_TEXT	ENDS
; Function compile flags: /Odspy
; File D:\Metin2 Server Files\mainline\SRC_2014\Metin2Client\MilesLib\SoundInstance2D.cpp
;	COMDAT ?SetVelocity@CSoundInstance2D@@UBEXMMMM@Z
_TEXT	SEGMENT
_this$ = -4						; size = 4
_fx$ = 8						; size = 4
_fy$ = 12						; size = 4
_fz$ = 16						; size = 4
_fMagnitude$ = 20					; size = 4
?SetVelocity@CSoundInstance2D@@UBEXMMMM@Z PROC		; CSoundInstance2D::SetVelocity, COMDAT
; _this$ = ecx

; 119  : {

  00000	55		 push	 ebp
  00001	8b ec		 mov	 ebp, esp
  00003	51		 push	 ecx
  00004	89 4d fc	 mov	 DWORD PTR _this$[ebp], ecx

; 120  : 	assert(!"must not call this method");
; 121  : }

  00007	c9		 leave
  00008	c2 10 00	 ret	 16			; 00000010H
?SetVelocity@CSoundInstance2D@@UBEXMMMM@Z ENDP		; CSoundInstance2D::SetVelocity
_TEXT	ENDS
; Function compile flags: /Odspy
; File D:\Metin2 Server Files\mainline\SRC_2014\Metin2Client\MilesLib\SoundInstance2D.cpp
;	COMDAT ?SetOrientation@CSoundInstance2D@@UBEXMMMMMM@Z
_TEXT	SEGMENT
_this$ = -4						; size = 4
_x_face$ = 8						; size = 4
_y_face$ = 12						; size = 4
_z_face$ = 16						; size = 4
_x_normal$ = 20						; size = 4
_y_normal$ = 24						; size = 4
_z_normal$ = 28						; size = 4
?SetOrientation@CSoundInstance2D@@UBEXMMMMMM@Z PROC	; CSoundInstance2D::SetOrientation, COMDAT
; _this$ = ecx

; 114  : {

  00000	55		 push	 ebp
  00001	8b ec		 mov	 ebp, esp
  00003	51		 push	 ecx
  00004	89 4d fc	 mov	 DWORD PTR _this$[ebp], ecx

; 115  : 	assert(!"must not call this method");
; 116  : }

  00007	c9		 leave
  00008	c2 18 00	 ret	 24			; 00000018H
?SetOrientation@CSoundInstance2D@@UBEXMMMMMM@Z ENDP	; CSoundInstance2D::SetOrientation
_TEXT	ENDS
; Function compile flags: /Odspy
; File D:\Metin2 Server Files\mainline\SRC_2014\Metin2Client\MilesLib\SoundInstance2D.cpp
;	COMDAT ?SetPosition@CSoundInstance2D@@UBEXMMM@Z
_TEXT	SEGMENT
_this$ = -4						; size = 4
_x$ = 8							; size = 4
_y$ = 12						; size = 4
_z$ = 16						; size = 4
?SetPosition@CSoundInstance2D@@UBEXMMM@Z PROC		; CSoundInstance2D::SetPosition, COMDAT
; _this$ = ecx

; 108  : {

  00000	55		 push	 ebp
  00001	8b ec		 mov	 ebp, esp
  00003	51		 push	 ecx
  00004	89 4d fc	 mov	 DWORD PTR _this$[ebp], ecx

; 109  : 	assert(!"must not call this method");
; 110  : }

  00007	c9		 leave
  00008	c2 0c 00	 ret	 12			; 0000000cH
?SetPosition@CSoundInstance2D@@UBEXMMM@Z ENDP		; CSoundInstance2D::SetPosition
_TEXT	ENDS
; Function compile flags: /Odspy
; File D:\Metin2 Server Files\mainline\SRC_2014\Metin2Client\MilesLib\SoundInstance2D.cpp
;	COMDAT ?IsDone@CSoundInstance2D@@UBE_NXZ
_TEXT	SEGMENT
_this$ = -8						; size = 4
tv68 = -4						; size = 4
?IsDone@CSoundInstance2D@@UBE_NXZ PROC			; CSoundInstance2D::IsDone, COMDAT
; _this$ = ecx

; 70   : {

  00000	55		 push	 ebp
  00001	8b ec		 mov	 ebp, esp
  00003	51		 push	 ecx
  00004	51		 push	 ecx
  00005	89 4d f8	 mov	 DWORD PTR _this$[ebp], ecx

; 71   : 	return AIL_sample_status(m_sample) == SMP_DONE;

  00008	8b 45 f8	 mov	 eax, DWORD PTR _this$[ebp]
  0000b	ff 70 04	 push	 DWORD PTR [eax+4]
  0000e	ff 15 00 00 00
	00		 call	 DWORD PTR __imp__AIL_sample_status@4
  00014	83 f8 02	 cmp	 eax, 2
  00017	75 09		 jne	 SHORT $LN3@IsDone
  00019	c7 45 fc 01 00
	00 00		 mov	 DWORD PTR tv68[ebp], 1
  00020	eb 04		 jmp	 SHORT $LN4@IsDone
$LN3@IsDone:
  00022	83 65 fc 00	 and	 DWORD PTR tv68[ebp], 0
$LN4@IsDone:
  00026	8a 45 fc	 mov	 al, BYTE PTR tv68[ebp]

; 72   : }

  00029	c9		 leave
  0002a	c3		 ret	 0
?IsDone@CSoundInstance2D@@UBE_NXZ ENDP			; CSoundInstance2D::IsDone
_TEXT	ENDS
; Function compile flags: /Odspy
; File D:\Metin2 Server Files\mainline\SRC_2014\Metin2Client\MilesLib\SoundInstance2D.cpp
;	COMDAT ?SetVolume@CSoundInstance2D@@UBEXM@Z
_TEXT	SEGMENT
_this$ = -16						; size = 4
tv69 = -12						; size = 4
tv68 = -8						; size = 4
tv65 = -4						; size = 4
_volume$ = 8						; size = 4
?SetVolume@CSoundInstance2D@@UBEXM@Z PROC		; CSoundInstance2D::SetVolume, COMDAT
; _this$ = ecx

; 102  : {

  00000	55		 push	 ebp
  00001	8b ec		 mov	 ebp, esp
  00003	83 ec 10	 sub	 esp, 16			; 00000010H
  00006	89 4d f0	 mov	 DWORD PTR _this$[ebp], ecx

; 103  : 	volume = max(0.0f, min(1.0f, volume));

  00009	f3 0f 10 45 08	 movss	 xmm0, DWORD PTR _volume$[ebp]
  0000e	0f 2f 05 00 00
	00 00		 comiss	 xmm0, DWORD PTR __real@3f800000
  00015	76 0f		 jbe	 SHORT $LN3@SetVolume
  00017	f3 0f 10 05 00
	00 00 00	 movss	 xmm0, DWORD PTR __real@3f800000
  0001f	f3 0f 11 45 fc	 movss	 DWORD PTR tv65[ebp], xmm0
  00024	eb 0a		 jmp	 SHORT $LN4@SetVolume
$LN3@SetVolume:
  00026	f3 0f 10 45 08	 movss	 xmm0, DWORD PTR _volume$[ebp]
  0002b	f3 0f 11 45 fc	 movss	 DWORD PTR tv65[ebp], xmm0
$LN4@SetVolume:
  00030	0f 57 c0	 xorps	 xmm0, xmm0
  00033	0f 2f 45 fc	 comiss	 xmm0, DWORD PTR tv65[ebp]
  00037	76 0a		 jbe	 SHORT $LN7@SetVolume
  00039	0f 57 c0	 xorps	 xmm0, xmm0
  0003c	f3 0f 11 45 f4	 movss	 DWORD PTR tv69[ebp], xmm0
  00041	eb 31		 jmp	 SHORT $LN8@SetVolume
$LN7@SetVolume:
  00043	f3 0f 10 45 08	 movss	 xmm0, DWORD PTR _volume$[ebp]
  00048	0f 2f 05 00 00
	00 00		 comiss	 xmm0, DWORD PTR __real@3f800000
  0004f	76 0f		 jbe	 SHORT $LN5@SetVolume
  00051	f3 0f 10 05 00
	00 00 00	 movss	 xmm0, DWORD PTR __real@3f800000
  00059	f3 0f 11 45 f8	 movss	 DWORD PTR tv68[ebp], xmm0
  0005e	eb 0a		 jmp	 SHORT $LN6@SetVolume
$LN5@SetVolume:
  00060	f3 0f 10 45 08	 movss	 xmm0, DWORD PTR _volume$[ebp]
  00065	f3 0f 11 45 f8	 movss	 DWORD PTR tv68[ebp], xmm0
$LN6@SetVolume:
  0006a	f3 0f 10 45 f8	 movss	 xmm0, DWORD PTR tv68[ebp]
  0006f	f3 0f 11 45 f4	 movss	 DWORD PTR tv69[ebp], xmm0
$LN8@SetVolume:
  00074	f3 0f 10 45 f4	 movss	 xmm0, DWORD PTR tv69[ebp]
  00079	f3 0f 11 45 08	 movss	 DWORD PTR _volume$[ebp], xmm0

; 104  : 	AIL_set_sample_volume_pan(m_sample, volume, 0.5f);

  0007e	51		 push	 ecx
  0007f	f3 0f 10 05 00
	00 00 00	 movss	 xmm0, DWORD PTR __real@3f000000
  00087	f3 0f 11 04 24	 movss	 DWORD PTR [esp], xmm0
  0008c	51		 push	 ecx
  0008d	f3 0f 10 45 08	 movss	 xmm0, DWORD PTR _volume$[ebp]
  00092	f3 0f 11 04 24	 movss	 DWORD PTR [esp], xmm0
  00097	8b 45 f0	 mov	 eax, DWORD PTR _this$[ebp]
  0009a	ff 70 04	 push	 DWORD PTR [eax+4]
  0009d	ff 15 00 00 00
	00		 call	 DWORD PTR __imp__AIL_set_sample_volume_pan@12

; 105  : }

  000a3	c9		 leave
  000a4	c2 04 00	 ret	 4
?SetVolume@CSoundInstance2D@@UBEXM@Z ENDP		; CSoundInstance2D::SetVolume
_TEXT	ENDS
; Function compile flags: /Odspy
; File D:\Metin2 Server Files\mainline\SRC_2014\Metin2Client\MilesLib\SoundInstance2D.cpp
;	COMDAT ?GetVolume@CSoundInstance2D@@UBEXAAM@Z
_TEXT	SEGMENT
_this$ = -4						; size = 4
_rfVolume$ = 8						; size = 4
?GetVolume@CSoundInstance2D@@UBEXAAM@Z PROC		; CSoundInstance2D::GetVolume, COMDAT
; _this$ = ecx

; 97   : {

  00000	55		 push	 ebp
  00001	8b ec		 mov	 ebp, esp
  00003	51		 push	 ecx
  00004	89 4d fc	 mov	 DWORD PTR _this$[ebp], ecx

; 98   : 	AIL_sample_volume_pan(m_sample, &rfVolume, NULL);

  00007	6a 00		 push	 0
  00009	ff 75 08	 push	 DWORD PTR _rfVolume$[ebp]
  0000c	8b 45 fc	 mov	 eax, DWORD PTR _this$[ebp]
  0000f	ff 70 04	 push	 DWORD PTR [eax+4]
  00012	ff 15 00 00 00
	00		 call	 DWORD PTR __imp__AIL_sample_volume_pan@12

; 99   : }

  00018	c9		 leave
  00019	c2 04 00	 ret	 4
?GetVolume@CSoundInstance2D@@UBEXAAM@Z ENDP		; CSoundInstance2D::GetVolume
_TEXT	ENDS
; Function compile flags: /Odspy
; File D:\Metin2 Server Files\mainline\SRC_2014\Metin2Client\MilesLib\SoundInstance2D.cpp
;	COMDAT ?Stop@CSoundInstance2D@@UAEXXZ
_TEXT	SEGMENT
_this$ = -4						; size = 4
?Stop@CSoundInstance2D@@UAEXXZ PROC			; CSoundInstance2D::Stop, COMDAT
; _this$ = ecx

; 91   : {

  00000	55		 push	 ebp
  00001	8b ec		 mov	 ebp, esp
  00003	51		 push	 ecx
  00004	89 4d fc	 mov	 DWORD PTR _this$[ebp], ecx

; 92   : 	AIL_end_sample(m_sample);

  00007	8b 45 fc	 mov	 eax, DWORD PTR _this$[ebp]
  0000a	ff 70 04	 push	 DWORD PTR [eax+4]
  0000d	ff 15 00 00 00
	00		 call	 DWORD PTR __imp__AIL_end_sample@4

; 93   : 	m_sample = NULL;

  00013	8b 45 fc	 mov	 eax, DWORD PTR _this$[ebp]
  00016	83 60 04 00	 and	 DWORD PTR [eax+4], 0

; 94   : }

  0001a	c9		 leave
  0001b	c3		 ret	 0
?Stop@CSoundInstance2D@@UAEXXZ ENDP			; CSoundInstance2D::Stop
_TEXT	ENDS
; Function compile flags: /Odspy
; File D:\Metin2 Server Files\mainline\SRC_2014\Metin2Client\MilesLib\SoundInstance2D.cpp
;	COMDAT ?Resume@CSoundInstance2D@@UBEXXZ
_TEXT	SEGMENT
_this$ = -4						; size = 4
?Resume@CSoundInstance2D@@UBEXXZ PROC			; CSoundInstance2D::Resume, COMDAT
; _this$ = ecx

; 86   : {

  00000	55		 push	 ebp
  00001	8b ec		 mov	 ebp, esp
  00003	51		 push	 ecx
  00004	89 4d fc	 mov	 DWORD PTR _this$[ebp], ecx

; 87   : 	AIL_resume_sample(m_sample);

  00007	8b 45 fc	 mov	 eax, DWORD PTR _this$[ebp]
  0000a	ff 70 04	 push	 DWORD PTR [eax+4]
  0000d	ff 15 00 00 00
	00		 call	 DWORD PTR __imp__AIL_resume_sample@4

; 88   : }

  00013	c9		 leave
  00014	c3		 ret	 0
?Resume@CSoundInstance2D@@UBEXXZ ENDP			; CSoundInstance2D::Resume
_TEXT	ENDS
; Function compile flags: /Odspy
; File D:\Metin2 Server Files\mainline\SRC_2014\Metin2Client\MilesLib\SoundInstance2D.cpp
;	COMDAT ?Pause@CSoundInstance2D@@UBEXXZ
_TEXT	SEGMENT
_this$ = -4						; size = 4
?Pause@CSoundInstance2D@@UBEXXZ PROC			; CSoundInstance2D::Pause, COMDAT
; _this$ = ecx

; 81   : {

  00000	55		 push	 ebp
  00001	8b ec		 mov	 ebp, esp
  00003	51		 push	 ecx
  00004	89 4d fc	 mov	 DWORD PTR _this$[ebp], ecx

; 82   : 	AIL_stop_sample(m_sample);

  00007	8b 45 fc	 mov	 eax, DWORD PTR _this$[ebp]
  0000a	ff 70 04	 push	 DWORD PTR [eax+4]
  0000d	ff 15 00 00 00
	00		 call	 DWORD PTR __imp__AIL_stop_sample@4

; 83   : }

  00013	c9		 leave
  00014	c3		 ret	 0
?Pause@CSoundInstance2D@@UBEXXZ ENDP			; CSoundInstance2D::Pause
_TEXT	ENDS
; Function compile flags: /Odspy
; File D:\Metin2 Server Files\mainline\SRC_2014\Metin2Client\MilesLib\SoundInstance2D.cpp
;	COMDAT ?Play@CSoundInstance2D@@UBEXHK@Z
_TEXT	SEGMENT
_this$ = -4						; size = 4
_iLoopCount$ = 8					; size = 4
_dwPlayCycleTimeLimit$ = 12				; size = 4
?Play@CSoundInstance2D@@UBEXHK@Z PROC			; CSoundInstance2D::Play, COMDAT
; _this$ = ecx

; 75   : {

  00000	55		 push	 ebp
  00001	8b ec		 mov	 ebp, esp
  00003	51		 push	 ecx
  00004	89 4d fc	 mov	 DWORD PTR _this$[ebp], ecx

; 76   :     AIL_set_sample_loop_count(m_sample, iLoopCount);

  00007	ff 75 08	 push	 DWORD PTR _iLoopCount$[ebp]
  0000a	8b 45 fc	 mov	 eax, DWORD PTR _this$[ebp]
  0000d	ff 70 04	 push	 DWORD PTR [eax+4]
  00010	ff 15 00 00 00
	00		 call	 DWORD PTR __imp__AIL_set_sample_loop_count@8

; 77   : 	AIL_start_sample(m_sample);

  00016	8b 45 fc	 mov	 eax, DWORD PTR _this$[ebp]
  00019	ff 70 04	 push	 DWORD PTR [eax+4]
  0001c	ff 15 00 00 00
	00		 call	 DWORD PTR __imp__AIL_start_sample@4

; 78   : }

  00022	c9		 leave
  00023	c2 08 00	 ret	 8
?Play@CSoundInstance2D@@UBEXHK@Z ENDP			; CSoundInstance2D::Play
_TEXT	ENDS
; Function compile flags: /Odspy
; File D:\Metin2 Server Files\mainline\SRC_2014\Metin2Client\MilesLib\SoundInstance2D.cpp
;	COMDAT ?SetSound@CSoundInstance2D@@UAE_NPAVCSoundData@@@Z
_TEXT	SEGMENT
_lpData$ = -8						; size = 4
_this$ = -4						; size = 4
_pSoundData$ = 8					; size = 4
?SetSound@CSoundInstance2D@@UAE_NPAVCSoundData@@@Z PROC	; CSoundInstance2D::SetSound, COMDAT
; _this$ = ecx

; 34   : {

  00000	55		 push	 ebp
  00001	8b ec		 mov	 ebp, esp
  00003	51		 push	 ecx
  00004	51		 push	 ecx
  00005	89 4d fc	 mov	 DWORD PTR _this$[ebp], ecx

; 35   : 	assert(m_sample != NULL && pSoundData != NULL);
; 36   : 
; 37   : 	// 레퍼런스 카운트가 1이 될 때 로드를 해야 제대로 사이즈가 리턴
; 38   : 	// 되므로 반드시 Get을 호출 하고 진행해야 한다.
; 39   : 	// 또, m_pSoundData가 pSoundData와 같고 m_pSoundData의 레퍼런스
; 40   : 	// 카운터가 1일 경우, 불필요하게 로드가 일어나므로 미리 레퍼런스
; 41   : 	// 카운터를 올려놔야 한다.
; 42   : 	LPVOID lpData = pSoundData->Get();

  00008	8b 4d 08	 mov	 ecx, DWORD PTR _pSoundData$[ebp]
  0000b	e8 00 00 00 00	 call	 ?Get@CSoundData@@QAEPAXXZ ; CSoundData::Get
  00010	89 45 f8	 mov	 DWORD PTR _lpData$[ebp], eax

; 43   : 
; 44   : 	AIL_init_sample(m_sample);

  00013	8b 45 fc	 mov	 eax, DWORD PTR _this$[ebp]
  00016	ff 70 04	 push	 DWORD PTR [eax+4]
  00019	ff 15 00 00 00
	00		 call	 DWORD PTR __imp__AIL_init_sample@4

; 45   : 	
; 46   :     if (AIL_set_sample_file(m_sample, lpData, pSoundData->GetSize()) == NULL)

  0001f	8b 4d 08	 mov	 ecx, DWORD PTR _pSoundData$[ebp]
  00022	e8 00 00 00 00	 call	 ?GetSize@CSoundData@@QAEKXZ ; CSoundData::GetSize
  00027	50		 push	 eax
  00028	ff 75 f8	 push	 DWORD PTR _lpData$[ebp]
  0002b	8b 45 fc	 mov	 eax, DWORD PTR _this$[ebp]
  0002e	ff 70 04	 push	 DWORD PTR [eax+4]
  00031	ff 15 00 00 00
	00		 call	 DWORD PTR __imp__AIL_set_sample_file@12
  00037	85 c0		 test	 eax, eax
  00039	75 44		 jne	 SHORT $LN2@SetSound

; 47   : 	{
; 48   : 		if (m_pSoundData != NULL)

  0003b	8b 45 fc	 mov	 eax, DWORD PTR _this$[ebp]
  0003e	83 78 08 00	 cmp	 DWORD PTR [eax+8], 0
  00042	74 12		 je	 SHORT $LN3@SetSound

; 49   : 		{
; 50   : 			m_pSoundData->Release();

  00044	8b 45 fc	 mov	 eax, DWORD PTR _this$[ebp]
  00047	8b 48 08	 mov	 ecx, DWORD PTR [eax+8]
  0004a	e8 00 00 00 00	 call	 ?Release@CSoundData@@QAEXXZ ; CSoundData::Release

; 51   : 			m_pSoundData = NULL;

  0004f	8b 45 fc	 mov	 eax, DWORD PTR _this$[ebp]
  00052	83 60 08 00	 and	 DWORD PTR [eax+8], 0
$LN3@SetSound:

; 52   : 		}
; 53   : 
; 54   : 		pSoundData->Release();

  00056	8b 4d 08	 mov	 ecx, DWORD PTR _pSoundData$[ebp]
  00059	e8 00 00 00 00	 call	 ?Release@CSoundData@@QAEXXZ ; CSoundData::Release

; 55   : 		TraceError("%s: %s", AIL_last_error(), pSoundData->GetFileName());

  0005e	8b 4d 08	 mov	 ecx, DWORD PTR _pSoundData$[ebp]
  00061	e8 00 00 00 00	 call	 ?GetFileName@CSoundData@@QAEPBDXZ ; CSoundData::GetFileName
  00066	50		 push	 eax
  00067	ff 15 00 00 00
	00		 call	 DWORD PTR __imp__AIL_last_error@0
  0006d	50		 push	 eax
  0006e	68 00 00 00 00	 push	 OFFSET ??_C@_06DJHOIPC@?$CFs?3?5?$CFs@
  00073	e8 00 00 00 00	 call	 ?TraceError@@YAXPBDZZ	; TraceError
  00078	83 c4 0c	 add	 esp, 12			; 0000000cH

; 56   : 		return false;

  0007b	32 c0		 xor	 al, al
  0007d	eb 26		 jmp	 SHORT $LN1@SetSound
$LN2@SetSound:

; 57   : 	}
; 58   : 
; 59   : 	if (m_pSoundData != NULL)

  0007f	8b 45 fc	 mov	 eax, DWORD PTR _this$[ebp]
  00082	83 78 08 00	 cmp	 DWORD PTR [eax+8], 0
  00086	74 12		 je	 SHORT $LN4@SetSound

; 60   : 	{
; 61   : 		m_pSoundData->Release();

  00088	8b 45 fc	 mov	 eax, DWORD PTR _this$[ebp]
  0008b	8b 48 08	 mov	 ecx, DWORD PTR [eax+8]
  0008e	e8 00 00 00 00	 call	 ?Release@CSoundData@@QAEXXZ ; CSoundData::Release

; 62   : 		m_pSoundData = NULL;

  00093	8b 45 fc	 mov	 eax, DWORD PTR _this$[ebp]
  00096	83 60 08 00	 and	 DWORD PTR [eax+8], 0
$LN4@SetSound:

; 63   : 	}
; 64   : 	
; 65   : 	m_pSoundData = pSoundData;

  0009a	8b 45 fc	 mov	 eax, DWORD PTR _this$[ebp]
  0009d	8b 4d 08	 mov	 ecx, DWORD PTR _pSoundData$[ebp]
  000a0	89 48 08	 mov	 DWORD PTR [eax+8], ecx

; 66   : 	return true;

  000a3	b0 01		 mov	 al, 1
$LN1@SetSound:

; 67   : }

  000a5	c9		 leave
  000a6	c2 04 00	 ret	 4
?SetSound@CSoundInstance2D@@UAE_NPAVCSoundData@@@Z ENDP	; CSoundInstance2D::SetSound
_TEXT	ENDS
; Function compile flags: /Odspy
; File D:\Metin2 Server Files\mainline\SRC_2014\Metin2Client\MilesLib\SoundInstance2D.cpp
;	COMDAT ?Destroy@CSoundInstance2D@@UAEXXZ
_TEXT	SEGMENT
_this$ = -4						; size = 4
?Destroy@CSoundInstance2D@@UAEXXZ PROC			; CSoundInstance2D::Destroy, COMDAT
; _this$ = ecx

; 14   : {

  00000	55		 push	 ebp
  00001	8b ec		 mov	 ebp, esp
  00003	51		 push	 ecx
  00004	89 4d fc	 mov	 DWORD PTR _this$[ebp], ecx

; 15   : 	SAFE_RELEASE(m_pSoundData);

  00007	8b 45 fc	 mov	 eax, DWORD PTR _this$[ebp]
  0000a	83 78 08 00	 cmp	 DWORD PTR [eax+8], 0
  0000e	74 12		 je	 SHORT $LN2@Destroy
  00010	8b 45 fc	 mov	 eax, DWORD PTR _this$[ebp]
  00013	8b 48 08	 mov	 ecx, DWORD PTR [eax+8]
  00016	e8 00 00 00 00	 call	 ?Release@CSoundData@@QAEXXZ ; CSoundData::Release
  0001b	8b 45 fc	 mov	 eax, DWORD PTR _this$[ebp]
  0001e	83 60 08 00	 and	 DWORD PTR [eax+8], 0
$LN2@Destroy:

; 16   : 
; 17   : 	if (m_sample)

  00022	8b 45 fc	 mov	 eax, DWORD PTR _this$[ebp]
  00025	83 78 04 00	 cmp	 DWORD PTR [eax+4], 0
  00029	74 13		 je	 SHORT $LN1@Destroy

; 18   : 	{
; 19   : 		AIL_release_sample_handle(m_sample);

  0002b	8b 45 fc	 mov	 eax, DWORD PTR _this$[ebp]
  0002e	ff 70 04	 push	 DWORD PTR [eax+4]
  00031	ff 15 00 00 00
	00		 call	 DWORD PTR __imp__AIL_release_sample_handle@4

; 20   : 		m_sample = NULL;

  00037	8b 45 fc	 mov	 eax, DWORD PTR _this$[ebp]
  0003a	83 60 04 00	 and	 DWORD PTR [eax+4], 0
$LN1@Destroy:

; 21   : 	}
; 22   : }

  0003e	c9		 leave
  0003f	c3		 ret	 0
?Destroy@CSoundInstance2D@@UAEXXZ ENDP			; CSoundInstance2D::Destroy
_TEXT	ENDS
; Function compile flags: /Odspy
; File D:\Metin2 Server Files\mainline\SRC_2014\Metin2Client\MilesLib\SoundInstance2D.cpp
;	COMDAT ?Initialize@CSoundInstance2D@@UAE_NXZ
_TEXT	SEGMENT
_this$ = -8						; size = 4
tv71 = -1						; size = 1
?Initialize@CSoundInstance2D@@UAE_NXZ PROC		; CSoundInstance2D::Initialize, COMDAT
; _this$ = ecx

; 25   : {

  00000	55		 push	 ebp
  00001	8b ec		 mov	 ebp, esp
  00003	51		 push	 ecx
  00004	51		 push	 ecx
  00005	89 4d f8	 mov	 DWORD PTR _this$[ebp], ecx

; 26   : 	if (m_sample)

  00008	8b 45 f8	 mov	 eax, DWORD PTR _this$[ebp]
  0000b	83 78 04 00	 cmp	 DWORD PTR [eax+4], 0
  0000f	74 04		 je	 SHORT $LN2@Initialize

; 27   : 		return true;

  00011	b0 01		 mov	 al, 1
  00013	eb 28		 jmp	 SHORT $LN1@Initialize
$LN2@Initialize:

; 28   : 	
; 29   : 	m_sample = AIL_allocate_sample_handle(ms_DIGDriver);

  00015	ff 35 00 00 00
	00		 push	 DWORD PTR ?ms_DIGDriver@CSoundBase@@1PAU_DIG_DRIVER@@A ; CSoundBase::ms_DIGDriver
  0001b	ff 15 00 00 00
	00		 call	 DWORD PTR __imp__AIL_allocate_sample_handle@4
  00021	8b 4d f8	 mov	 ecx, DWORD PTR _this$[ebp]
  00024	89 41 04	 mov	 DWORD PTR [ecx+4], eax

; 30   : 	return m_sample ? true : false;

  00027	8b 45 f8	 mov	 eax, DWORD PTR _this$[ebp]
  0002a	83 78 04 00	 cmp	 DWORD PTR [eax+4], 0
  0002e	74 06		 je	 SHORT $LN4@Initialize
  00030	c6 45 ff 01	 mov	 BYTE PTR tv71[ebp], 1
  00034	eb 04		 jmp	 SHORT $LN5@Initialize
$LN4@Initialize:
  00036	c6 45 ff 00	 mov	 BYTE PTR tv71[ebp], 0
$LN5@Initialize:
  0003a	8a 45 ff	 mov	 al, BYTE PTR tv71[ebp]
$LN1@Initialize:

; 31   : }

  0003d	c9		 leave
  0003e	c3		 ret	 0
?Initialize@CSoundInstance2D@@UAE_NXZ ENDP		; CSoundInstance2D::Initialize
_TEXT	ENDS
; Function compile flags: /Odspy
; File D:\Metin2 Server Files\mainline\SRC_2014\Metin2Client\MilesLib\SoundInstance2D.cpp
; File D:\Metin2 Server Files\mainline\SRC_2014\Metin2Client\MilesLib\SoundInstance.h
; File D:\Metin2 Server Files\mainline\SRC_2014\Metin2Client\MilesLib\SoundInstance2D.cpp
;	COMDAT ??1CSoundInstance2D@@UAE@XZ
_TEXT	SEGMENT
_this$ = -16						; size = 4
__$EHRec$ = -12						; size = 12
??1CSoundInstance2D@@UAE@XZ PROC			; CSoundInstance2D::~CSoundInstance2D, COMDAT
; _this$ = ecx

; 9    : {

  00000	55		 push	 ebp
  00001	8b ec		 mov	 ebp, esp
  00003	6a ff		 push	 -1
  00005	68 00 00 00 00	 push	 __ehhandler$??1CSoundInstance2D@@UAE@XZ
  0000a	64 a1 00 00 00
	00		 mov	 eax, DWORD PTR fs:0
  00010	50		 push	 eax
  00011	51		 push	 ecx
  00012	a1 00 00 00 00	 mov	 eax, DWORD PTR ___security_cookie
  00017	33 c5		 xor	 eax, ebp
  00019	50		 push	 eax
  0001a	8d 45 f4	 lea	 eax, DWORD PTR __$EHRec$[ebp]
  0001d	64 a3 00 00 00
	00		 mov	 DWORD PTR fs:0, eax
  00023	89 4d f0	 mov	 DWORD PTR _this$[ebp], ecx
  00026	8b 45 f0	 mov	 eax, DWORD PTR _this$[ebp]
  00029	c7 00 00 00 00
	00		 mov	 DWORD PTR [eax], OFFSET ??_7CSoundInstance2D@@6B@

; 10   : 	Destroy();

  0002f	8b 4d f0	 mov	 ecx, DWORD PTR _this$[ebp]
  00032	e8 00 00 00 00	 call	 ?Destroy@CSoundInstance2D@@UAEXXZ ; CSoundInstance2D::Destroy
; File D:\Metin2 Server Files\mainline\SRC_2014\Metin2Client\MilesLib\SoundInstance.h

; 10   : 	virtual ~ISoundInstance() {}

  00037	8b 45 f0	 mov	 eax, DWORD PTR _this$[ebp]
  0003a	c7 00 00 00 00
	00		 mov	 DWORD PTR [eax], OFFSET ??_7ISoundInstance@@6B@
  00040	8b 4d f0	 mov	 ecx, DWORD PTR _this$[ebp]
  00043	e8 00 00 00 00	 call	 ??1CSoundBase@@UAE@XZ	; CSoundBase::~CSoundBase
; File D:\Metin2 Server Files\mainline\SRC_2014\Metin2Client\MilesLib\SoundInstance2D.cpp

; 11   : }

  00048	8b 4d f4	 mov	 ecx, DWORD PTR __$EHRec$[ebp]
  0004b	64 89 0d 00 00
	00 00		 mov	 DWORD PTR fs:0, ecx
  00052	59		 pop	 ecx
  00053	c9		 leave
  00054	c3		 ret	 0
  00055	cc		 int	 3
  00056	cc		 int	 3
  00057	cc		 int	 3
  00058	cc		 int	 3
  00059	cc		 int	 3
_TEXT	ENDS
;	COMDAT text$x
text$x	SEGMENT
__ehhandler$??1CSoundInstance2D@@UAE@XZ:
  00000	90		 npad	 1
  00001	90		 npad	 1
  00002	8b 54 24 08	 mov	 edx, DWORD PTR [esp+8]
  00006	8d 42 0c	 lea	 eax, DWORD PTR [edx+12]
  00009	8b 4a f8	 mov	 ecx, DWORD PTR [edx-8]
  0000c	33 c8		 xor	 ecx, eax
  0000e	e8 00 00 00 00	 call	 @__security_check_cookie@4
  00013	b8 00 00 00 00	 mov	 eax, OFFSET __ehfuncinfo$??1CSoundInstance2D@@UAE@XZ
  00018	e9 00 00 00 00	 jmp	 ___CxxFrameHandler3
text$x	ENDS
??1CSoundInstance2D@@UAE@XZ ENDP			; CSoundInstance2D::~CSoundInstance2D
; Function compile flags: /Odspy
; File D:\Metin2 Server Files\mainline\SRC_2014\Metin2Client\MilesLib\SoundInstance2D.cpp
; File D:\Metin2 Server Files\mainline\SRC_2014\Metin2Client\MilesLib\SoundInstance.h
; File D:\Metin2 Server Files\mainline\SRC_2014\Metin2Client\MilesLib\SoundInstance2D.cpp
;	COMDAT ??0CSoundInstance2D@@QAE@XZ
_TEXT	SEGMENT
_this$ = -4						; size = 4
??0CSoundInstance2D@@QAE@XZ PROC			; CSoundInstance2D::CSoundInstance2D, COMDAT
; _this$ = ecx

; 5    : {

  00000	55		 push	 ebp
  00001	8b ec		 mov	 ebp, esp
  00003	51		 push	 ecx
  00004	89 4d fc	 mov	 DWORD PTR _this$[ebp], ecx
; File D:\Metin2 Server Files\mainline\SRC_2014\Metin2Client\MilesLib\SoundInstance.h

; 9    : 	ISoundInstance() {}

  00007	8b 4d fc	 mov	 ecx, DWORD PTR _this$[ebp]
  0000a	e8 00 00 00 00	 call	 ??0CSoundBase@@QAE@XZ	; CSoundBase::CSoundBase
  0000f	8b 45 fc	 mov	 eax, DWORD PTR _this$[ebp]
  00012	c7 00 00 00 00
	00		 mov	 DWORD PTR [eax], OFFSET ??_7ISoundInstance@@6B@
; File D:\Metin2 Server Files\mainline\SRC_2014\Metin2Client\MilesLib\SoundInstance2D.cpp

; 5    : {

  00018	8b 45 fc	 mov	 eax, DWORD PTR _this$[ebp]
  0001b	c7 00 00 00 00
	00		 mov	 DWORD PTR [eax], OFFSET ??_7CSoundInstance2D@@6B@

; 4    : CSoundInstance2D::CSoundInstance2D() : m_sample(NULL), m_pSoundData(NULL)

  00021	8b 45 fc	 mov	 eax, DWORD PTR _this$[ebp]
  00024	83 60 04 00	 and	 DWORD PTR [eax+4], 0
  00028	8b 45 fc	 mov	 eax, DWORD PTR _this$[ebp]
  0002b	83 60 08 00	 and	 DWORD PTR [eax+8], 0

; 6    : }

  0002f	8b 45 fc	 mov	 eax, DWORD PTR _this$[ebp]
  00032	c9		 leave
  00033	c3		 ret	 0
??0CSoundInstance2D@@QAE@XZ ENDP			; CSoundInstance2D::CSoundInstance2D
_TEXT	ENDS
; Function compile flags: /Odspy
; File D:\Metin2 Server Files\mainline\SRC_2014\Metin2Client\MilesLib\SoundInstance.h
;	COMDAT ??_GISoundInstance@@UAEPAXI@Z
_TEXT	SEGMENT
_this$ = -4						; size = 4
___flags$ = 8						; size = 4
??_GISoundInstance@@UAEPAXI@Z PROC			; ISoundInstance::`scalar deleting destructor', COMDAT
; _this$ = ecx
  00000	55		 push	 ebp
  00001	8b ec		 mov	 ebp, esp
  00003	51		 push	 ecx
  00004	89 4d fc	 mov	 DWORD PTR _this$[ebp], ecx

; 10   : 	virtual ~ISoundInstance() {}

  00007	8b 45 fc	 mov	 eax, DWORD PTR _this$[ebp]
  0000a	c7 00 00 00 00
	00		 mov	 DWORD PTR [eax], OFFSET ??_7ISoundInstance@@6B@
  00010	8b 4d fc	 mov	 ecx, DWORD PTR _this$[ebp]
  00013	e8 00 00 00 00	 call	 ??1CSoundBase@@UAE@XZ	; CSoundBase::~CSoundBase
  00018	8b 45 08	 mov	 eax, DWORD PTR ___flags$[ebp]
  0001b	83 e0 01	 and	 eax, 1
  0001e	74 0c		 je	 SHORT $LN2@scalar
  00020	6a 04		 push	 4
  00022	ff 75 fc	 push	 DWORD PTR _this$[ebp]
  00025	e8 00 00 00 00	 call	 ??3@YAXPAXI@Z		; operator delete
  0002a	59		 pop	 ecx
  0002b	59		 pop	 ecx
$LN2@scalar:
  0002c	8b 45 fc	 mov	 eax, DWORD PTR _this$[ebp]
  0002f	c9		 leave
  00030	c2 04 00	 ret	 4
??_GISoundInstance@@UAEPAXI@Z ENDP			; ISoundInstance::`scalar deleting destructor'
_TEXT	ENDS
END
