; Listing generated by Microsoft (R) Optimizing Compiler Version 19.28.29335.0 

	TITLE	D:\Metin2 Server Files\mainline\SRC_2014\Metin2Client\MilesLib\SoundInstanceStream.cpp
	.686P
	.XMM
	include listing.inc
	.model	flat

INCLUDELIB LIBCMT
INCLUDELIB OLDNAMES

PUBLIC	??_GISoundInstance@@UAEPAXI@Z			; ISoundInstance::`scalar deleting destructor'
PUBLIC	??0CSoundInstanceStream@@QAE@XZ			; CSoundInstanceStream::CSoundInstanceStream
PUBLIC	??1CSoundInstanceStream@@UAE@XZ			; CSoundInstanceStream::~CSoundInstanceStream
PUBLIC	?Initialize@CSoundInstanceStream@@UAE_NXZ	; CSoundInstanceStream::Initialize
PUBLIC	?Destroy@CSoundInstanceStream@@UAEXXZ		; CSoundInstanceStream::Destroy
PUBLIC	?SetStream@CSoundInstanceStream@@QAEXPAU_STREAM@@@Z ; CSoundInstanceStream::SetStream
PUBLIC	?SetSound@CSoundInstanceStream@@UAE_NPAVCSoundData@@@Z ; CSoundInstanceStream::SetSound
PUBLIC	?Play@CSoundInstanceStream@@UBEXHK@Z		; CSoundInstanceStream::Play
PUBLIC	?Pause@CSoundInstanceStream@@UBEXXZ		; CSoundInstanceStream::Pause
PUBLIC	?Resume@CSoundInstanceStream@@UBEXXZ		; CSoundInstanceStream::Resume
PUBLIC	?Stop@CSoundInstanceStream@@UAEXXZ		; CSoundInstanceStream::Stop
PUBLIC	?GetVolume@CSoundInstanceStream@@UBEXAAM@Z	; CSoundInstanceStream::GetVolume
PUBLIC	?SetVolume@CSoundInstanceStream@@UBEXM@Z	; CSoundInstanceStream::SetVolume
PUBLIC	?IsDone@CSoundInstanceStream@@UBE_NXZ		; CSoundInstanceStream::IsDone
PUBLIC	?IsData@CSoundInstanceStream@@QBE_NXZ		; CSoundInstanceStream::IsData
PUBLIC	?SetPosition@CSoundInstanceStream@@UBEXMMM@Z	; CSoundInstanceStream::SetPosition
PUBLIC	?SetOrientation@CSoundInstanceStream@@UBEXMMMMMM@Z ; CSoundInstanceStream::SetOrientation
PUBLIC	?SetVelocity@CSoundInstanceStream@@UBEXMMMM@Z	; CSoundInstanceStream::SetVelocity
PUBLIC	??_GCSoundInstanceStream@@UAEPAXI@Z		; CSoundInstanceStream::`scalar deleting destructor'
PUBLIC	??_7ISoundInstance@@6B@				; ISoundInstance::`vftable'
PUBLIC	??_7CSoundInstanceStream@@6B@			; CSoundInstanceStream::`vftable'
PUBLIC	??_R4ISoundInstance@@6B@			; ISoundInstance::`RTTI Complete Object Locator'
PUBLIC	??_R0?AVISoundInstance@@@8			; ISoundInstance `RTTI Type Descriptor'
PUBLIC	??_R3ISoundInstance@@8				; ISoundInstance::`RTTI Class Hierarchy Descriptor'
PUBLIC	??_R2ISoundInstance@@8				; ISoundInstance::`RTTI Base Class Array'
PUBLIC	??_R1A@?0A@EA@ISoundInstance@@8			; ISoundInstance::`RTTI Base Class Descriptor at (0,-1,0,64)'
PUBLIC	??_R1A@?0A@EA@CSoundBase@@8			; CSoundBase::`RTTI Base Class Descriptor at (0,-1,0,64)'
PUBLIC	??_R0?AVCSoundBase@@@8				; CSoundBase `RTTI Type Descriptor'
PUBLIC	??_R3CSoundBase@@8				; CSoundBase::`RTTI Class Hierarchy Descriptor'
PUBLIC	??_R2CSoundBase@@8				; CSoundBase::`RTTI Base Class Array'
PUBLIC	??_R4CSoundInstanceStream@@6B@			; CSoundInstanceStream::`RTTI Complete Object Locator'
PUBLIC	??_R0?AVCSoundInstanceStream@@@8		; CSoundInstanceStream `RTTI Type Descriptor'
PUBLIC	??_R3CSoundInstanceStream@@8			; CSoundInstanceStream::`RTTI Class Hierarchy Descriptor'
PUBLIC	??_R2CSoundInstanceStream@@8			; CSoundInstanceStream::`RTTI Base Class Array'
PUBLIC	??_R1A@?0A@EA@CSoundInstanceStream@@8		; CSoundInstanceStream::`RTTI Base Class Descriptor at (0,-1,0,64)'
PUBLIC	__real@3f800000
EXTRN	__purecall:PROC
EXTRN	??3@YAXPAXI@Z:PROC				; operator delete
EXTRN	__imp__AIL_close_stream@4:PROC
EXTRN	__imp__AIL_start_stream@4:PROC
EXTRN	__imp__AIL_pause_stream@8:PROC
EXTRN	__imp__AIL_set_stream_volume_levels@12:PROC
EXTRN	__imp__AIL_stream_volume_levels@12:PROC
EXTRN	__imp__AIL_set_stream_loop_count@8:PROC
EXTRN	__imp__AIL_stream_status@4:PROC
EXTRN	??0CSoundBase@@QAE@XZ:PROC			; CSoundBase::CSoundBase
EXTRN	??1CSoundBase@@UAE@XZ:PROC			; CSoundBase::~CSoundBase
EXTRN	??_EISoundInstance@@UAEPAXI@Z:PROC		; ISoundInstance::`vector deleting destructor'
EXTRN	??_ECSoundInstanceStream@@UAEPAXI@Z:PROC	; CSoundInstanceStream::`vector deleting destructor'
EXTRN	@__security_check_cookie@4:PROC
EXTRN	___CxxFrameHandler3:PROC
EXTRN	??_7type_info@@6B@:QWORD			; type_info::`vftable'
EXTRN	___security_cookie:DWORD
EXTRN	__fltused:DWORD
;	COMDAT __real@3f800000
CONST	SEGMENT
__real@3f800000 DD 03f800000r			; 1
CONST	ENDS
;	COMDAT ??_R1A@?0A@EA@CSoundInstanceStream@@8
rdata$r	SEGMENT
??_R1A@?0A@EA@CSoundInstanceStream@@8 DD FLAT:??_R0?AVCSoundInstanceStream@@@8 ; CSoundInstanceStream::`RTTI Base Class Descriptor at (0,-1,0,64)'
	DD	02H
	DD	00H
	DD	0ffffffffH
	DD	00H
	DD	040H
	DD	FLAT:??_R3CSoundInstanceStream@@8
rdata$r	ENDS
;	COMDAT ??_R2CSoundInstanceStream@@8
rdata$r	SEGMENT
??_R2CSoundInstanceStream@@8 DD FLAT:??_R1A@?0A@EA@CSoundInstanceStream@@8 ; CSoundInstanceStream::`RTTI Base Class Array'
	DD	FLAT:??_R1A@?0A@EA@ISoundInstance@@8
	DD	FLAT:??_R1A@?0A@EA@CSoundBase@@8
rdata$r	ENDS
;	COMDAT ??_R3CSoundInstanceStream@@8
rdata$r	SEGMENT
??_R3CSoundInstanceStream@@8 DD 00H			; CSoundInstanceStream::`RTTI Class Hierarchy Descriptor'
	DD	00H
	DD	03H
	DD	FLAT:??_R2CSoundInstanceStream@@8
rdata$r	ENDS
;	COMDAT ??_R0?AVCSoundInstanceStream@@@8
data$rs	SEGMENT
??_R0?AVCSoundInstanceStream@@@8 DD FLAT:??_7type_info@@6B@ ; CSoundInstanceStream `RTTI Type Descriptor'
	DD	00H
	DB	'.?AVCSoundInstanceStream@@', 00H
data$rs	ENDS
;	COMDAT ??_R4CSoundInstanceStream@@6B@
rdata$r	SEGMENT
??_R4CSoundInstanceStream@@6B@ DD 00H			; CSoundInstanceStream::`RTTI Complete Object Locator'
	DD	00H
	DD	00H
	DD	FLAT:??_R0?AVCSoundInstanceStream@@@8
	DD	FLAT:??_R3CSoundInstanceStream@@8
rdata$r	ENDS
;	COMDAT ??_R2CSoundBase@@8
rdata$r	SEGMENT
??_R2CSoundBase@@8 DD FLAT:??_R1A@?0A@EA@CSoundBase@@8	; CSoundBase::`RTTI Base Class Array'
rdata$r	ENDS
;	COMDAT ??_R3CSoundBase@@8
rdata$r	SEGMENT
??_R3CSoundBase@@8 DD 00H				; CSoundBase::`RTTI Class Hierarchy Descriptor'
	DD	00H
	DD	01H
	DD	FLAT:??_R2CSoundBase@@8
rdata$r	ENDS
;	COMDAT ??_R0?AVCSoundBase@@@8
data$rs	SEGMENT
??_R0?AVCSoundBase@@@8 DD FLAT:??_7type_info@@6B@	; CSoundBase `RTTI Type Descriptor'
	DD	00H
	DB	'.?AVCSoundBase@@', 00H
data$rs	ENDS
;	COMDAT ??_R1A@?0A@EA@CSoundBase@@8
rdata$r	SEGMENT
??_R1A@?0A@EA@CSoundBase@@8 DD FLAT:??_R0?AVCSoundBase@@@8 ; CSoundBase::`RTTI Base Class Descriptor at (0,-1,0,64)'
	DD	00H
	DD	00H
	DD	0ffffffffH
	DD	00H
	DD	040H
	DD	FLAT:??_R3CSoundBase@@8
rdata$r	ENDS
;	COMDAT ??_R1A@?0A@EA@ISoundInstance@@8
rdata$r	SEGMENT
??_R1A@?0A@EA@ISoundInstance@@8 DD FLAT:??_R0?AVISoundInstance@@@8 ; ISoundInstance::`RTTI Base Class Descriptor at (0,-1,0,64)'
	DD	01H
	DD	00H
	DD	0ffffffffH
	DD	00H
	DD	040H
	DD	FLAT:??_R3ISoundInstance@@8
rdata$r	ENDS
;	COMDAT ??_R2ISoundInstance@@8
rdata$r	SEGMENT
??_R2ISoundInstance@@8 DD FLAT:??_R1A@?0A@EA@ISoundInstance@@8 ; ISoundInstance::`RTTI Base Class Array'
	DD	FLAT:??_R1A@?0A@EA@CSoundBase@@8
rdata$r	ENDS
;	COMDAT ??_R3ISoundInstance@@8
rdata$r	SEGMENT
??_R3ISoundInstance@@8 DD 00H				; ISoundInstance::`RTTI Class Hierarchy Descriptor'
	DD	00H
	DD	02H
	DD	FLAT:??_R2ISoundInstance@@8
rdata$r	ENDS
;	COMDAT ??_R0?AVISoundInstance@@@8
data$rs	SEGMENT
??_R0?AVISoundInstance@@@8 DD FLAT:??_7type_info@@6B@	; ISoundInstance `RTTI Type Descriptor'
	DD	00H
	DB	'.?AVISoundInstance@@', 00H
data$rs	ENDS
;	COMDAT ??_R4ISoundInstance@@6B@
rdata$r	SEGMENT
??_R4ISoundInstance@@6B@ DD 00H				; ISoundInstance::`RTTI Complete Object Locator'
	DD	00H
	DD	00H
	DD	FLAT:??_R0?AVISoundInstance@@@8
	DD	FLAT:??_R3ISoundInstance@@8
rdata$r	ENDS
;	COMDAT ??_7CSoundInstanceStream@@6B@
CONST	SEGMENT
??_7CSoundInstanceStream@@6B@ DD FLAT:??_R4CSoundInstanceStream@@6B@ ; CSoundInstanceStream::`vftable'
	DD	FLAT:??_ECSoundInstanceStream@@UAEPAXI@Z
	DD	FLAT:?Initialize@CSoundInstanceStream@@UAE_NXZ
	DD	FLAT:?Destroy@CSoundInstanceStream@@UAEXXZ
	DD	FLAT:?SetSound@CSoundInstanceStream@@UAE_NPAVCSoundData@@@Z
	DD	FLAT:?Play@CSoundInstanceStream@@UBEXHK@Z
	DD	FLAT:?Pause@CSoundInstanceStream@@UBEXXZ
	DD	FLAT:?Resume@CSoundInstanceStream@@UBEXXZ
	DD	FLAT:?Stop@CSoundInstanceStream@@UAEXXZ
	DD	FLAT:?GetVolume@CSoundInstanceStream@@UBEXAAM@Z
	DD	FLAT:?SetVolume@CSoundInstanceStream@@UBEXM@Z
	DD	FLAT:?IsDone@CSoundInstanceStream@@UBE_NXZ
	DD	FLAT:?SetPosition@CSoundInstanceStream@@UBEXMMM@Z
	DD	FLAT:?SetOrientation@CSoundInstanceStream@@UBEXMMMMMM@Z
	DD	FLAT:?SetVelocity@CSoundInstanceStream@@UBEXMMMM@Z
CONST	ENDS
;	COMDAT ??_7ISoundInstance@@6B@
CONST	SEGMENT
??_7ISoundInstance@@6B@ DD FLAT:??_R4ISoundInstance@@6B@ ; ISoundInstance::`vftable'
	DD	FLAT:??_EISoundInstance@@UAEPAXI@Z
	DD	FLAT:__purecall
	DD	FLAT:__purecall
	DD	FLAT:__purecall
	DD	FLAT:__purecall
	DD	FLAT:__purecall
	DD	FLAT:__purecall
	DD	FLAT:__purecall
	DD	FLAT:__purecall
	DD	FLAT:__purecall
	DD	FLAT:__purecall
	DD	FLAT:__purecall
	DD	FLAT:__purecall
	DD	FLAT:__purecall
CONST	ENDS
;	COMDAT xdata$x
xdata$x	SEGMENT
__ehfuncinfo$??1CSoundInstanceStream@@UAE@XZ DD 019930522H
	DD	00H
	DD	00H
	DD	2 DUP(00H)
	DD	2 DUP(00H)
	DD	00H
	DD	05H
xdata$x	ENDS
; Function compile flags: /Odspy
;	COMDAT ??_GCSoundInstanceStream@@UAEPAXI@Z
_TEXT	SEGMENT
_this$ = -4						; size = 4
___flags$ = 8						; size = 4
??_GCSoundInstanceStream@@UAEPAXI@Z PROC		; CSoundInstanceStream::`scalar deleting destructor', COMDAT
; _this$ = ecx
  00000	55		 push	 ebp
  00001	8b ec		 mov	 ebp, esp
  00003	51		 push	 ecx
  00004	89 4d fc	 mov	 DWORD PTR _this$[ebp], ecx
  00007	8b 4d fc	 mov	 ecx, DWORD PTR _this$[ebp]
  0000a	e8 00 00 00 00	 call	 ??1CSoundInstanceStream@@UAE@XZ ; CSoundInstanceStream::~CSoundInstanceStream
  0000f	8b 45 08	 mov	 eax, DWORD PTR ___flags$[ebp]
  00012	83 e0 01	 and	 eax, 1
  00015	74 0c		 je	 SHORT $LN2@scalar
  00017	6a 08		 push	 8
  00019	ff 75 fc	 push	 DWORD PTR _this$[ebp]
  0001c	e8 00 00 00 00	 call	 ??3@YAXPAXI@Z		; operator delete
  00021	59		 pop	 ecx
  00022	59		 pop	 ecx
$LN2@scalar:
  00023	8b 45 fc	 mov	 eax, DWORD PTR _this$[ebp]
  00026	c9		 leave
  00027	c2 04 00	 ret	 4
??_GCSoundInstanceStream@@UAEPAXI@Z ENDP		; CSoundInstanceStream::`scalar deleting destructor'
_TEXT	ENDS
; Function compile flags: /Odspy
; File D:\Metin2 Server Files\mainline\SRC_2014\Metin2Client\MilesLib\SoundInstanceStream.cpp
;	COMDAT ?SetVelocity@CSoundInstanceStream@@UBEXMMMM@Z
_TEXT	SEGMENT
_this$ = -4						; size = 4
_fx$ = 8						; size = 4
_fy$ = 12						; size = 4
_fz$ = 16						; size = 4
_fMagnitude$ = 20					; size = 4
?SetVelocity@CSoundInstanceStream@@UBEXMMMM@Z PROC	; CSoundInstanceStream::SetVelocity, COMDAT
; _this$ = ecx

; 113  : {

  00000	55		 push	 ebp
  00001	8b ec		 mov	 ebp, esp
  00003	51		 push	 ecx
  00004	89 4d fc	 mov	 DWORD PTR _this$[ebp], ecx

; 114  : }

  00007	c9		 leave
  00008	c2 10 00	 ret	 16			; 00000010H
?SetVelocity@CSoundInstanceStream@@UBEXMMMM@Z ENDP	; CSoundInstanceStream::SetVelocity
_TEXT	ENDS
; Function compile flags: /Odspy
; File D:\Metin2 Server Files\mainline\SRC_2014\Metin2Client\MilesLib\SoundInstanceStream.cpp
;	COMDAT ?SetOrientation@CSoundInstanceStream@@UBEXMMMMMM@Z
_TEXT	SEGMENT
_this$ = -4						; size = 4
_x_face$ = 8						; size = 4
_y_face$ = 12						; size = 4
_z_face$ = 16						; size = 4
_x_normal$ = 20						; size = 4
_y_normal$ = 24						; size = 4
_z_normal$ = 28						; size = 4
?SetOrientation@CSoundInstanceStream@@UBEXMMMMMM@Z PROC	; CSoundInstanceStream::SetOrientation, COMDAT
; _this$ = ecx

; 109  : {

  00000	55		 push	 ebp
  00001	8b ec		 mov	 ebp, esp
  00003	51		 push	 ecx
  00004	89 4d fc	 mov	 DWORD PTR _this$[ebp], ecx

; 110  : }

  00007	c9		 leave
  00008	c2 18 00	 ret	 24			; 00000018H
?SetOrientation@CSoundInstanceStream@@UBEXMMMMMM@Z ENDP	; CSoundInstanceStream::SetOrientation
_TEXT	ENDS
; Function compile flags: /Odspy
; File D:\Metin2 Server Files\mainline\SRC_2014\Metin2Client\MilesLib\SoundInstanceStream.cpp
;	COMDAT ?SetPosition@CSoundInstanceStream@@UBEXMMM@Z
_TEXT	SEGMENT
_this$ = -4						; size = 4
_x$ = 8							; size = 4
_y$ = 12						; size = 4
_z$ = 16						; size = 4
?SetPosition@CSoundInstanceStream@@UBEXMMM@Z PROC	; CSoundInstanceStream::SetPosition, COMDAT
; _this$ = ecx

; 104  : {

  00000	55		 push	 ebp
  00001	8b ec		 mov	 ebp, esp
  00003	51		 push	 ecx
  00004	89 4d fc	 mov	 DWORD PTR _this$[ebp], ecx

; 105  : }

  00007	c9		 leave
  00008	c2 0c 00	 ret	 12			; 0000000cH
?SetPosition@CSoundInstanceStream@@UBEXMMM@Z ENDP	; CSoundInstanceStream::SetPosition
_TEXT	ENDS
; Function compile flags: /Odspy
; File D:\Metin2 Server Files\mainline\SRC_2014\Metin2Client\MilesLib\SoundInstanceStream.cpp
;	COMDAT ?IsData@CSoundInstanceStream@@QBE_NXZ
_TEXT	SEGMENT
_this$ = -4						; size = 4
?IsData@CSoundInstanceStream@@QBE_NXZ PROC		; CSoundInstanceStream::IsData, COMDAT
; _this$ = ecx

; 38   : {

  00000	55		 push	 ebp
  00001	8b ec		 mov	 ebp, esp
  00003	51		 push	 ecx
  00004	89 4d fc	 mov	 DWORD PTR _this$[ebp], ecx

; 39   : 	if (m_stream)

  00007	8b 45 fc	 mov	 eax, DWORD PTR _this$[ebp]
  0000a	83 78 04 00	 cmp	 DWORD PTR [eax+4], 0
  0000e	74 04		 je	 SHORT $LN2@IsData

; 40   : 		return true;

  00010	b0 01		 mov	 al, 1
  00012	eb 02		 jmp	 SHORT $LN1@IsData
$LN2@IsData:

; 41   : 
; 42   : 	return false;

  00014	32 c0		 xor	 al, al
$LN1@IsData:

; 43   : }

  00016	c9		 leave
  00017	c3		 ret	 0
?IsData@CSoundInstanceStream@@QBE_NXZ ENDP		; CSoundInstanceStream::IsData
_TEXT	ENDS
; Function compile flags: /Odspy
; File D:\Metin2 Server Files\mainline\SRC_2014\Metin2Client\MilesLib\SoundInstanceStream.cpp
;	COMDAT ?IsDone@CSoundInstanceStream@@UBE_NXZ
_TEXT	SEGMENT
_this$ = -8						; size = 4
tv68 = -4						; size = 4
?IsDone@CSoundInstanceStream@@UBE_NXZ PROC		; CSoundInstanceStream::IsDone, COMDAT
; _this$ = ecx

; 33   : {

  00000	55		 push	 ebp
  00001	8b ec		 mov	 ebp, esp
  00003	51		 push	 ecx
  00004	51		 push	 ecx
  00005	89 4d f8	 mov	 DWORD PTR _this$[ebp], ecx

; 34   : 	return AIL_stream_status(m_stream) == -1;

  00008	8b 45 f8	 mov	 eax, DWORD PTR _this$[ebp]
  0000b	ff 70 04	 push	 DWORD PTR [eax+4]
  0000e	ff 15 00 00 00
	00		 call	 DWORD PTR __imp__AIL_stream_status@4
  00014	83 f8 ff	 cmp	 eax, -1
  00017	75 09		 jne	 SHORT $LN3@IsDone
  00019	c7 45 fc 01 00
	00 00		 mov	 DWORD PTR tv68[ebp], 1
  00020	eb 04		 jmp	 SHORT $LN4@IsDone
$LN3@IsDone:
  00022	83 65 fc 00	 and	 DWORD PTR tv68[ebp], 0
$LN4@IsDone:
  00026	8a 45 fc	 mov	 al, BYTE PTR tv68[ebp]

; 35   : }

  00029	c9		 leave
  0002a	c3		 ret	 0
?IsDone@CSoundInstanceStream@@UBE_NXZ ENDP		; CSoundInstanceStream::IsDone
_TEXT	ENDS
; Function compile flags: /Odspy
; File D:\Metin2 Server Files\mainline\SRC_2014\Metin2Client\MilesLib\SoundInstanceStream.cpp
;	COMDAT ?SetVolume@CSoundInstanceStream@@UBEXM@Z
_TEXT	SEGMENT
_this$ = -16						; size = 4
tv73 = -12						; size = 4
tv72 = -8						; size = 4
tv69 = -4						; size = 4
_volume$ = 8						; size = 4
?SetVolume@CSoundInstanceStream@@UBEXM@Z PROC		; CSoundInstanceStream::SetVolume, COMDAT
; _this$ = ecx

; 90   : {

  00000	55		 push	 ebp
  00001	8b ec		 mov	 ebp, esp
  00003	83 ec 10	 sub	 esp, 16			; 00000010H
  00006	89 4d f0	 mov	 DWORD PTR _this$[ebp], ecx

; 91   : 	if (!IsData())

  00009	8b 4d f0	 mov	 ecx, DWORD PTR _this$[ebp]
  0000c	e8 00 00 00 00	 call	 ?IsData@CSoundInstanceStream@@QBE_NXZ ; CSoundInstanceStream::IsData
  00011	0f b6 c0	 movzx	 eax, al
  00014	85 c0		 test	 eax, eax
  00016	75 05		 jne	 SHORT $LN2@SetVolume

; 92   : 		return;

  00018	e9 97 00 00 00	 jmp	 $LN1@SetVolume
$LN2@SetVolume:

; 93   : 
; 94   : 	volume = max(0.0f, min(1.0f, volume));

  0001d	f3 0f 10 45 08	 movss	 xmm0, DWORD PTR _volume$[ebp]
  00022	0f 2f 05 00 00
	00 00		 comiss	 xmm0, DWORD PTR __real@3f800000
  00029	76 0f		 jbe	 SHORT $LN4@SetVolume
  0002b	f3 0f 10 05 00
	00 00 00	 movss	 xmm0, DWORD PTR __real@3f800000
  00033	f3 0f 11 45 fc	 movss	 DWORD PTR tv69[ebp], xmm0
  00038	eb 0a		 jmp	 SHORT $LN5@SetVolume
$LN4@SetVolume:
  0003a	f3 0f 10 45 08	 movss	 xmm0, DWORD PTR _volume$[ebp]
  0003f	f3 0f 11 45 fc	 movss	 DWORD PTR tv69[ebp], xmm0
$LN5@SetVolume:
  00044	0f 57 c0	 xorps	 xmm0, xmm0
  00047	0f 2f 45 fc	 comiss	 xmm0, DWORD PTR tv69[ebp]
  0004b	76 0a		 jbe	 SHORT $LN8@SetVolume
  0004d	0f 57 c0	 xorps	 xmm0, xmm0
  00050	f3 0f 11 45 f4	 movss	 DWORD PTR tv73[ebp], xmm0
  00055	eb 31		 jmp	 SHORT $LN9@SetVolume
$LN8@SetVolume:
  00057	f3 0f 10 45 08	 movss	 xmm0, DWORD PTR _volume$[ebp]
  0005c	0f 2f 05 00 00
	00 00		 comiss	 xmm0, DWORD PTR __real@3f800000
  00063	76 0f		 jbe	 SHORT $LN6@SetVolume
  00065	f3 0f 10 05 00
	00 00 00	 movss	 xmm0, DWORD PTR __real@3f800000
  0006d	f3 0f 11 45 f8	 movss	 DWORD PTR tv72[ebp], xmm0
  00072	eb 0a		 jmp	 SHORT $LN7@SetVolume
$LN6@SetVolume:
  00074	f3 0f 10 45 08	 movss	 xmm0, DWORD PTR _volume$[ebp]
  00079	f3 0f 11 45 f8	 movss	 DWORD PTR tv72[ebp], xmm0
$LN7@SetVolume:
  0007e	f3 0f 10 45 f8	 movss	 xmm0, DWORD PTR tv72[ebp]
  00083	f3 0f 11 45 f4	 movss	 DWORD PTR tv73[ebp], xmm0
$LN9@SetVolume:
  00088	f3 0f 10 45 f4	 movss	 xmm0, DWORD PTR tv73[ebp]
  0008d	f3 0f 11 45 08	 movss	 DWORD PTR _volume$[ebp], xmm0

; 95   : 	AIL_set_stream_volume_levels(m_stream, volume, volume);

  00092	51		 push	 ecx
  00093	f3 0f 10 45 08	 movss	 xmm0, DWORD PTR _volume$[ebp]
  00098	f3 0f 11 04 24	 movss	 DWORD PTR [esp], xmm0
  0009d	51		 push	 ecx
  0009e	f3 0f 10 45 08	 movss	 xmm0, DWORD PTR _volume$[ebp]
  000a3	f3 0f 11 04 24	 movss	 DWORD PTR [esp], xmm0
  000a8	8b 45 f0	 mov	 eax, DWORD PTR _this$[ebp]
  000ab	ff 70 04	 push	 DWORD PTR [eax+4]
  000ae	ff 15 00 00 00
	00		 call	 DWORD PTR __imp__AIL_set_stream_volume_levels@12
$LN1@SetVolume:

; 96   : }

  000b4	c9		 leave
  000b5	c2 04 00	 ret	 4
?SetVolume@CSoundInstanceStream@@UBEXM@Z ENDP		; CSoundInstanceStream::SetVolume
_TEXT	ENDS
; Function compile flags: /Odspy
; File D:\Metin2 Server Files\mainline\SRC_2014\Metin2Client\MilesLib\SoundInstanceStream.cpp
;	COMDAT ?GetVolume@CSoundInstanceStream@@UBEXAAM@Z
_TEXT	SEGMENT
_tmp$ = -8						; size = 4
_this$ = -4						; size = 4
_rfVolume$ = 8						; size = 4
?GetVolume@CSoundInstanceStream@@UBEXAAM@Z PROC		; CSoundInstanceStream::GetVolume, COMDAT
; _this$ = ecx

; 80   : {

  00000	55		 push	 ebp
  00001	8b ec		 mov	 ebp, esp
  00003	51		 push	 ecx
  00004	51		 push	 ecx
  00005	89 4d fc	 mov	 DWORD PTR _this$[ebp], ecx

; 81   : 	float tmp;
; 82   : 
; 83   : 	if (!IsData())

  00008	8b 4d fc	 mov	 ecx, DWORD PTR _this$[ebp]
  0000b	e8 00 00 00 00	 call	 ?IsData@CSoundInstanceStream@@QBE_NXZ ; CSoundInstanceStream::IsData
  00010	0f b6 c0	 movzx	 eax, al
  00013	85 c0		 test	 eax, eax
  00015	75 02		 jne	 SHORT $LN2@GetVolume

; 84   : 		return;

  00017	eb 13		 jmp	 SHORT $LN1@GetVolume
$LN2@GetVolume:

; 85   : 
; 86   : 	AIL_stream_volume_levels(m_stream, &rfVolume, &tmp);

  00019	8d 45 f8	 lea	 eax, DWORD PTR _tmp$[ebp]
  0001c	50		 push	 eax
  0001d	ff 75 08	 push	 DWORD PTR _rfVolume$[ebp]
  00020	8b 45 fc	 mov	 eax, DWORD PTR _this$[ebp]
  00023	ff 70 04	 push	 DWORD PTR [eax+4]
  00026	ff 15 00 00 00
	00		 call	 DWORD PTR __imp__AIL_stream_volume_levels@12
$LN1@GetVolume:

; 87   : }

  0002c	c9		 leave
  0002d	c2 04 00	 ret	 4
?GetVolume@CSoundInstanceStream@@UBEXAAM@Z ENDP		; CSoundInstanceStream::GetVolume
_TEXT	ENDS
; Function compile flags: /Odspy
; File D:\Metin2 Server Files\mainline\SRC_2014\Metin2Client\MilesLib\SoundInstanceStream.cpp
;	COMDAT ?Stop@CSoundInstanceStream@@UAEXXZ
_TEXT	SEGMENT
_this$ = -4						; size = 4
?Stop@CSoundInstanceStream@@UAEXXZ PROC			; CSoundInstanceStream::Stop, COMDAT
; _this$ = ecx

; 71   : {

  00000	55		 push	 ebp
  00001	8b ec		 mov	 ebp, esp
  00003	51		 push	 ecx
  00004	89 4d fc	 mov	 DWORD PTR _this$[ebp], ecx

; 72   : 	if (!IsData())

  00007	8b 4d fc	 mov	 ecx, DWORD PTR _this$[ebp]
  0000a	e8 00 00 00 00	 call	 ?IsData@CSoundInstanceStream@@QBE_NXZ ; CSoundInstanceStream::IsData
  0000f	0f b6 c0	 movzx	 eax, al
  00012	85 c0		 test	 eax, eax
  00014	75 02		 jne	 SHORT $LN2@Stop

; 73   : 		return;

  00016	eb 13		 jmp	 SHORT $LN1@Stop
$LN2@Stop:

; 74   : 
; 75   : 	AIL_close_stream(m_stream);

  00018	8b 45 fc	 mov	 eax, DWORD PTR _this$[ebp]
  0001b	ff 70 04	 push	 DWORD PTR [eax+4]
  0001e	ff 15 00 00 00
	00		 call	 DWORD PTR __imp__AIL_close_stream@4

; 76   : 	m_stream = NULL;

  00024	8b 45 fc	 mov	 eax, DWORD PTR _this$[ebp]
  00027	83 60 04 00	 and	 DWORD PTR [eax+4], 0
$LN1@Stop:

; 77   : }

  0002b	c9		 leave
  0002c	c3		 ret	 0
?Stop@CSoundInstanceStream@@UAEXXZ ENDP			; CSoundInstanceStream::Stop
_TEXT	ENDS
; Function compile flags: /Odspy
; File D:\Metin2 Server Files\mainline\SRC_2014\Metin2Client\MilesLib\SoundInstanceStream.cpp
;	COMDAT ?Resume@CSoundInstanceStream@@UBEXXZ
_TEXT	SEGMENT
_this$ = -4						; size = 4
?Resume@CSoundInstanceStream@@UBEXXZ PROC		; CSoundInstanceStream::Resume, COMDAT
; _this$ = ecx

; 63   : {

  00000	55		 push	 ebp
  00001	8b ec		 mov	 ebp, esp
  00003	51		 push	 ecx
  00004	89 4d fc	 mov	 DWORD PTR _this$[ebp], ecx

; 64   : 	if (!IsData())

  00007	8b 4d fc	 mov	 ecx, DWORD PTR _this$[ebp]
  0000a	e8 00 00 00 00	 call	 ?IsData@CSoundInstanceStream@@QBE_NXZ ; CSoundInstanceStream::IsData
  0000f	0f b6 c0	 movzx	 eax, al
  00012	85 c0		 test	 eax, eax
  00014	75 02		 jne	 SHORT $LN2@Resume

; 65   : 		return;

  00016	eb 0e		 jmp	 SHORT $LN1@Resume
$LN2@Resume:

; 66   : 
; 67   : 	AIL_pause_stream(m_stream, 0);

  00018	6a 00		 push	 0
  0001a	8b 45 fc	 mov	 eax, DWORD PTR _this$[ebp]
  0001d	ff 70 04	 push	 DWORD PTR [eax+4]
  00020	ff 15 00 00 00
	00		 call	 DWORD PTR __imp__AIL_pause_stream@8
$LN1@Resume:

; 68   : }

  00026	c9		 leave
  00027	c3		 ret	 0
?Resume@CSoundInstanceStream@@UBEXXZ ENDP		; CSoundInstanceStream::Resume
_TEXT	ENDS
; Function compile flags: /Odspy
; File D:\Metin2 Server Files\mainline\SRC_2014\Metin2Client\MilesLib\SoundInstanceStream.cpp
;	COMDAT ?Pause@CSoundInstanceStream@@UBEXXZ
_TEXT	SEGMENT
_this$ = -4						; size = 4
?Pause@CSoundInstanceStream@@UBEXXZ PROC		; CSoundInstanceStream::Pause, COMDAT
; _this$ = ecx

; 55   : {

  00000	55		 push	 ebp
  00001	8b ec		 mov	 ebp, esp
  00003	51		 push	 ecx
  00004	89 4d fc	 mov	 DWORD PTR _this$[ebp], ecx

; 56   : 	if (!IsData())

  00007	8b 4d fc	 mov	 ecx, DWORD PTR _this$[ebp]
  0000a	e8 00 00 00 00	 call	 ?IsData@CSoundInstanceStream@@QBE_NXZ ; CSoundInstanceStream::IsData
  0000f	0f b6 c0	 movzx	 eax, al
  00012	85 c0		 test	 eax, eax
  00014	75 02		 jne	 SHORT $LN2@Pause

; 57   : 		return;

  00016	eb 0e		 jmp	 SHORT $LN1@Pause
$LN2@Pause:

; 58   : 
; 59   : 	AIL_pause_stream(m_stream, 1);

  00018	6a 01		 push	 1
  0001a	8b 45 fc	 mov	 eax, DWORD PTR _this$[ebp]
  0001d	ff 70 04	 push	 DWORD PTR [eax+4]
  00020	ff 15 00 00 00
	00		 call	 DWORD PTR __imp__AIL_pause_stream@8
$LN1@Pause:

; 60   : }

  00026	c9		 leave
  00027	c3		 ret	 0
?Pause@CSoundInstanceStream@@UBEXXZ ENDP		; CSoundInstanceStream::Pause
_TEXT	ENDS
; Function compile flags: /Odspy
; File D:\Metin2 Server Files\mainline\SRC_2014\Metin2Client\MilesLib\SoundInstanceStream.cpp
;	COMDAT ?Play@CSoundInstanceStream@@UBEXHK@Z
_TEXT	SEGMENT
_this$ = -4						; size = 4
_count$ = 8						; size = 4
_dwPlayCycleTimeLimit$ = 12				; size = 4
?Play@CSoundInstanceStream@@UBEXHK@Z PROC		; CSoundInstanceStream::Play, COMDAT
; _this$ = ecx

; 46   : {

  00000	55		 push	 ebp
  00001	8b ec		 mov	 ebp, esp
  00003	51		 push	 ecx
  00004	89 4d fc	 mov	 DWORD PTR _this$[ebp], ecx

; 47   : 	if (!IsData())

  00007	8b 4d fc	 mov	 ecx, DWORD PTR _this$[ebp]
  0000a	e8 00 00 00 00	 call	 ?IsData@CSoundInstanceStream@@QBE_NXZ ; CSoundInstanceStream::IsData
  0000f	0f b6 c0	 movzx	 eax, al
  00012	85 c0		 test	 eax, eax
  00014	75 02		 jne	 SHORT $LN2@Play

; 48   : 		return;

  00016	eb 1b		 jmp	 SHORT $LN1@Play
$LN2@Play:

; 49   : 
; 50   : 	AIL_set_stream_loop_count(m_stream, count);

  00018	ff 75 08	 push	 DWORD PTR _count$[ebp]
  0001b	8b 45 fc	 mov	 eax, DWORD PTR _this$[ebp]
  0001e	ff 70 04	 push	 DWORD PTR [eax+4]
  00021	ff 15 00 00 00
	00		 call	 DWORD PTR __imp__AIL_set_stream_loop_count@8

; 51   : 	AIL_start_stream(m_stream);

  00027	8b 45 fc	 mov	 eax, DWORD PTR _this$[ebp]
  0002a	ff 70 04	 push	 DWORD PTR [eax+4]
  0002d	ff 15 00 00 00
	00		 call	 DWORD PTR __imp__AIL_start_stream@4
$LN1@Play:

; 52   : }

  00033	c9		 leave
  00034	c2 08 00	 ret	 8
?Play@CSoundInstanceStream@@UBEXHK@Z ENDP		; CSoundInstanceStream::Play
_TEXT	ENDS
; Function compile flags: /Odspy
; File D:\Metin2 Server Files\mainline\SRC_2014\Metin2Client\MilesLib\SoundInstanceStream.cpp
;	COMDAT ?SetSound@CSoundInstanceStream@@UAE_NPAVCSoundData@@@Z
_TEXT	SEGMENT
_this$ = -4						; size = 4
_pSound$ = 8						; size = 4
?SetSound@CSoundInstanceStream@@UAE_NPAVCSoundData@@@Z PROC ; CSoundInstanceStream::SetSound, COMDAT
; _this$ = ecx

; 99   : {

  00000	55		 push	 ebp
  00001	8b ec		 mov	 ebp, esp
  00003	51		 push	 ecx
  00004	89 4d fc	 mov	 DWORD PTR _this$[ebp], ecx

; 100  : 	return true;

  00007	b0 01		 mov	 al, 1

; 101  : }

  00009	c9		 leave
  0000a	c2 04 00	 ret	 4
?SetSound@CSoundInstanceStream@@UAE_NPAVCSoundData@@@Z ENDP ; CSoundInstanceStream::SetSound
_TEXT	ENDS
; Function compile flags: /Odspy
; File D:\Metin2 Server Files\mainline\SRC_2014\Metin2Client\MilesLib\SoundInstanceStream.cpp
;	COMDAT ?SetStream@CSoundInstanceStream@@QAEXPAU_STREAM@@@Z
_TEXT	SEGMENT
_this$ = -4						; size = 4
_stream$ = 8						; size = 4
?SetStream@CSoundInstanceStream@@QAEXPAU_STREAM@@@Z PROC ; CSoundInstanceStream::SetStream, COMDAT
; _this$ = ecx

; 28   : {

  00000	55		 push	 ebp
  00001	8b ec		 mov	 ebp, esp
  00003	51		 push	 ecx
  00004	89 4d fc	 mov	 DWORD PTR _this$[ebp], ecx

; 29   : 	m_stream = stream;

  00007	8b 45 fc	 mov	 eax, DWORD PTR _this$[ebp]
  0000a	8b 4d 08	 mov	 ecx, DWORD PTR _stream$[ebp]
  0000d	89 48 04	 mov	 DWORD PTR [eax+4], ecx

; 30   : }

  00010	c9		 leave
  00011	c2 04 00	 ret	 4
?SetStream@CSoundInstanceStream@@QAEXPAU_STREAM@@@Z ENDP ; CSoundInstanceStream::SetStream
_TEXT	ENDS
; Function compile flags: /Odspy
; File D:\Metin2 Server Files\mainline\SRC_2014\Metin2Client\MilesLib\SoundInstanceStream.cpp
;	COMDAT ?Destroy@CSoundInstanceStream@@UAEXXZ
_TEXT	SEGMENT
_this$ = -4						; size = 4
?Destroy@CSoundInstanceStream@@UAEXXZ PROC		; CSoundInstanceStream::Destroy, COMDAT
; _this$ = ecx

; 14   : {

  00000	55		 push	 ebp
  00001	8b ec		 mov	 ebp, esp
  00003	51		 push	 ecx
  00004	89 4d fc	 mov	 DWORD PTR _this$[ebp], ecx

; 15   : 	if (m_stream != NULL)

  00007	8b 45 fc	 mov	 eax, DWORD PTR _this$[ebp]
  0000a	83 78 04 00	 cmp	 DWORD PTR [eax+4], 0
  0000e	74 13		 je	 SHORT $LN1@Destroy

; 16   : 	{
; 17   : 		AIL_close_stream(m_stream);

  00010	8b 45 fc	 mov	 eax, DWORD PTR _this$[ebp]
  00013	ff 70 04	 push	 DWORD PTR [eax+4]
  00016	ff 15 00 00 00
	00		 call	 DWORD PTR __imp__AIL_close_stream@4

; 18   : 		m_stream = NULL;

  0001c	8b 45 fc	 mov	 eax, DWORD PTR _this$[ebp]
  0001f	83 60 04 00	 and	 DWORD PTR [eax+4], 0
$LN1@Destroy:

; 19   : 	}
; 20   : }

  00023	c9		 leave
  00024	c3		 ret	 0
?Destroy@CSoundInstanceStream@@UAEXXZ ENDP		; CSoundInstanceStream::Destroy
_TEXT	ENDS
; Function compile flags: /Odspy
; File D:\Metin2 Server Files\mainline\SRC_2014\Metin2Client\MilesLib\SoundInstanceStream.cpp
;	COMDAT ?Initialize@CSoundInstanceStream@@UAE_NXZ
_TEXT	SEGMENT
_this$ = -4						; size = 4
?Initialize@CSoundInstanceStream@@UAE_NXZ PROC		; CSoundInstanceStream::Initialize, COMDAT
; _this$ = ecx

; 23   : {

  00000	55		 push	 ebp
  00001	8b ec		 mov	 ebp, esp
  00003	51		 push	 ecx
  00004	89 4d fc	 mov	 DWORD PTR _this$[ebp], ecx

; 24   : 	return true;

  00007	b0 01		 mov	 al, 1

; 25   : }

  00009	c9		 leave
  0000a	c3		 ret	 0
?Initialize@CSoundInstanceStream@@UAE_NXZ ENDP		; CSoundInstanceStream::Initialize
_TEXT	ENDS
; Function compile flags: /Odspy
; File D:\Metin2 Server Files\mainline\SRC_2014\Metin2Client\MilesLib\SoundInstanceStream.cpp
; File D:\Metin2 Server Files\mainline\SRC_2014\Metin2Client\MilesLib\SoundInstance.h
; File D:\Metin2 Server Files\mainline\SRC_2014\Metin2Client\MilesLib\SoundInstanceStream.cpp
;	COMDAT ??1CSoundInstanceStream@@UAE@XZ
_TEXT	SEGMENT
_this$ = -16						; size = 4
__$EHRec$ = -12						; size = 12
??1CSoundInstanceStream@@UAE@XZ PROC			; CSoundInstanceStream::~CSoundInstanceStream, COMDAT
; _this$ = ecx

; 9    : {

  00000	55		 push	 ebp
  00001	8b ec		 mov	 ebp, esp
  00003	6a ff		 push	 -1
  00005	68 00 00 00 00	 push	 __ehhandler$??1CSoundInstanceStream@@UAE@XZ
  0000a	64 a1 00 00 00
	00		 mov	 eax, DWORD PTR fs:0
  00010	50		 push	 eax
  00011	51		 push	 ecx
  00012	a1 00 00 00 00	 mov	 eax, DWORD PTR ___security_cookie
  00017	33 c5		 xor	 eax, ebp
  00019	50		 push	 eax
  0001a	8d 45 f4	 lea	 eax, DWORD PTR __$EHRec$[ebp]
  0001d	64 a3 00 00 00
	00		 mov	 DWORD PTR fs:0, eax
  00023	89 4d f0	 mov	 DWORD PTR _this$[ebp], ecx
  00026	8b 45 f0	 mov	 eax, DWORD PTR _this$[ebp]
  00029	c7 00 00 00 00
	00		 mov	 DWORD PTR [eax], OFFSET ??_7CSoundInstanceStream@@6B@

; 10   : 	Destroy();

  0002f	8b 4d f0	 mov	 ecx, DWORD PTR _this$[ebp]
  00032	e8 00 00 00 00	 call	 ?Destroy@CSoundInstanceStream@@UAEXXZ ; CSoundInstanceStream::Destroy
; File D:\Metin2 Server Files\mainline\SRC_2014\Metin2Client\MilesLib\SoundInstance.h

; 10   : 	virtual ~ISoundInstance() {}

  00037	8b 45 f0	 mov	 eax, DWORD PTR _this$[ebp]
  0003a	c7 00 00 00 00
	00		 mov	 DWORD PTR [eax], OFFSET ??_7ISoundInstance@@6B@
  00040	8b 4d f0	 mov	 ecx, DWORD PTR _this$[ebp]
  00043	e8 00 00 00 00	 call	 ??1CSoundBase@@UAE@XZ	; CSoundBase::~CSoundBase
; File D:\Metin2 Server Files\mainline\SRC_2014\Metin2Client\MilesLib\SoundInstanceStream.cpp

; 11   : }

  00048	8b 4d f4	 mov	 ecx, DWORD PTR __$EHRec$[ebp]
  0004b	64 89 0d 00 00
	00 00		 mov	 DWORD PTR fs:0, ecx
  00052	59		 pop	 ecx
  00053	c9		 leave
  00054	c3		 ret	 0
  00055	cc		 int	 3
  00056	cc		 int	 3
  00057	cc		 int	 3
  00058	cc		 int	 3
  00059	cc		 int	 3
_TEXT	ENDS
;	COMDAT text$x
text$x	SEGMENT
__ehhandler$??1CSoundInstanceStream@@UAE@XZ:
  00000	90		 npad	 1
  00001	90		 npad	 1
  00002	8b 54 24 08	 mov	 edx, DWORD PTR [esp+8]
  00006	8d 42 0c	 lea	 eax, DWORD PTR [edx+12]
  00009	8b 4a f8	 mov	 ecx, DWORD PTR [edx-8]
  0000c	33 c8		 xor	 ecx, eax
  0000e	e8 00 00 00 00	 call	 @__security_check_cookie@4
  00013	b8 00 00 00 00	 mov	 eax, OFFSET __ehfuncinfo$??1CSoundInstanceStream@@UAE@XZ
  00018	e9 00 00 00 00	 jmp	 ___CxxFrameHandler3
text$x	ENDS
??1CSoundInstanceStream@@UAE@XZ ENDP			; CSoundInstanceStream::~CSoundInstanceStream
; Function compile flags: /Odspy
; File D:\Metin2 Server Files\mainline\SRC_2014\Metin2Client\MilesLib\SoundInstanceStream.cpp
; File D:\Metin2 Server Files\mainline\SRC_2014\Metin2Client\MilesLib\SoundInstance.h
; File D:\Metin2 Server Files\mainline\SRC_2014\Metin2Client\MilesLib\SoundInstanceStream.cpp
;	COMDAT ??0CSoundInstanceStream@@QAE@XZ
_TEXT	SEGMENT
_this$ = -4						; size = 4
??0CSoundInstanceStream@@QAE@XZ PROC			; CSoundInstanceStream::CSoundInstanceStream, COMDAT
; _this$ = ecx

; 5    : {

  00000	55		 push	 ebp
  00001	8b ec		 mov	 ebp, esp
  00003	51		 push	 ecx
  00004	89 4d fc	 mov	 DWORD PTR _this$[ebp], ecx
; File D:\Metin2 Server Files\mainline\SRC_2014\Metin2Client\MilesLib\SoundInstance.h

; 9    : 	ISoundInstance() {}

  00007	8b 4d fc	 mov	 ecx, DWORD PTR _this$[ebp]
  0000a	e8 00 00 00 00	 call	 ??0CSoundBase@@QAE@XZ	; CSoundBase::CSoundBase
  0000f	8b 45 fc	 mov	 eax, DWORD PTR _this$[ebp]
  00012	c7 00 00 00 00
	00		 mov	 DWORD PTR [eax], OFFSET ??_7ISoundInstance@@6B@
; File D:\Metin2 Server Files\mainline\SRC_2014\Metin2Client\MilesLib\SoundInstanceStream.cpp

; 5    : {

  00018	8b 45 fc	 mov	 eax, DWORD PTR _this$[ebp]
  0001b	c7 00 00 00 00
	00		 mov	 DWORD PTR [eax], OFFSET ??_7CSoundInstanceStream@@6B@

; 4    : CSoundInstanceStream::CSoundInstanceStream() : m_stream(NULL)

  00021	8b 45 fc	 mov	 eax, DWORD PTR _this$[ebp]
  00024	83 60 04 00	 and	 DWORD PTR [eax+4], 0

; 6    : }

  00028	8b 45 fc	 mov	 eax, DWORD PTR _this$[ebp]
  0002b	c9		 leave
  0002c	c3		 ret	 0
??0CSoundInstanceStream@@QAE@XZ ENDP			; CSoundInstanceStream::CSoundInstanceStream
_TEXT	ENDS
; Function compile flags: /Odspy
; File D:\Metin2 Server Files\mainline\SRC_2014\Metin2Client\MilesLib\SoundInstance.h
;	COMDAT ??_GISoundInstance@@UAEPAXI@Z
_TEXT	SEGMENT
_this$ = -4						; size = 4
___flags$ = 8						; size = 4
??_GISoundInstance@@UAEPAXI@Z PROC			; ISoundInstance::`scalar deleting destructor', COMDAT
; _this$ = ecx
  00000	55		 push	 ebp
  00001	8b ec		 mov	 ebp, esp
  00003	51		 push	 ecx
  00004	89 4d fc	 mov	 DWORD PTR _this$[ebp], ecx

; 10   : 	virtual ~ISoundInstance() {}

  00007	8b 45 fc	 mov	 eax, DWORD PTR _this$[ebp]
  0000a	c7 00 00 00 00
	00		 mov	 DWORD PTR [eax], OFFSET ??_7ISoundInstance@@6B@
  00010	8b 4d fc	 mov	 ecx, DWORD PTR _this$[ebp]
  00013	e8 00 00 00 00	 call	 ??1CSoundBase@@UAE@XZ	; CSoundBase::~CSoundBase
  00018	8b 45 08	 mov	 eax, DWORD PTR ___flags$[ebp]
  0001b	83 e0 01	 and	 eax, 1
  0001e	74 0c		 je	 SHORT $LN2@scalar
  00020	6a 04		 push	 4
  00022	ff 75 fc	 push	 DWORD PTR _this$[ebp]
  00025	e8 00 00 00 00	 call	 ??3@YAXPAXI@Z		; operator delete
  0002a	59		 pop	 ecx
  0002b	59		 pop	 ecx
$LN2@scalar:
  0002c	8b 45 fc	 mov	 eax, DWORD PTR _this$[ebp]
  0002f	c9		 leave
  00030	c2 04 00	 ret	 4
??_GISoundInstance@@UAEPAXI@Z ENDP			; ISoundInstance::`scalar deleting destructor'
_TEXT	ENDS
END
