; Listing generated by Microsoft (R) Optimizing Compiler Version 19.28.29335.0 

	TITLE	D:\Metin2 Server Files\mainline\SRC_2014\Metin2Client\MilesLib\SoundInstance3D.cpp
	.686P
	.XMM
	include listing.inc
	.model	flat

INCLUDELIB LIBCMT
INCLUDELIB OLDNAMES

PUBLIC	??_GISoundInstance@@UAEPAXI@Z			; ISoundInstance::`scalar deleting destructor'
PUBLIC	??0CSoundInstance3D@@QAE@XZ			; CSoundInstance3D::CSoundInstance3D
PUBLIC	??1CSoundInstance3D@@UAE@XZ			; CSoundInstance3D::~CSoundInstance3D
PUBLIC	?Initialize@CSoundInstance3D@@UAE_NXZ		; CSoundInstance3D::Initialize
PUBLIC	?Destroy@CSoundInstance3D@@UAEXXZ		; CSoundInstance3D::Destroy
PUBLIC	?SetSound@CSoundInstance3D@@UAE_NPAVCSoundData@@@Z ; CSoundInstance3D::SetSound
PUBLIC	?Play@CSoundInstance3D@@UBEXHK@Z		; CSoundInstance3D::Play
PUBLIC	?Pause@CSoundInstance3D@@UBEXXZ			; CSoundInstance3D::Pause
PUBLIC	?Resume@CSoundInstance3D@@UBEXXZ		; CSoundInstance3D::Resume
PUBLIC	?Stop@CSoundInstance3D@@UAEXXZ			; CSoundInstance3D::Stop
PUBLIC	?GetVolume@CSoundInstance3D@@UBEXAAM@Z		; CSoundInstance3D::GetVolume
PUBLIC	?SetVolume@CSoundInstance3D@@UBEXM@Z		; CSoundInstance3D::SetVolume
PUBLIC	?IsDone@CSoundInstance3D@@UBE_NXZ		; CSoundInstance3D::IsDone
PUBLIC	?SetPosition@CSoundInstance3D@@UBEXMMM@Z	; CSoundInstance3D::SetPosition
PUBLIC	?SetOrientation@CSoundInstance3D@@UBEXMMMMMM@Z	; CSoundInstance3D::SetOrientation
PUBLIC	?SetVelocity@CSoundInstance3D@@UBEXMMMM@Z	; CSoundInstance3D::SetVelocity
PUBLIC	?UpdatePosition@CSoundInstance3D@@QAEXM@Z	; CSoundInstance3D::UpdatePosition
PUBLIC	??_GCSoundInstance3D@@UAEPAXI@Z			; CSoundInstance3D::`scalar deleting destructor'
PUBLIC	??_7ISoundInstance@@6B@				; ISoundInstance::`vftable'
PUBLIC	??_7CSoundInstance3D@@6B@			; CSoundInstance3D::`vftable'
PUBLIC	??_C@_06DJHOIPC@?$CFs?3?5?$CFs@			; `string'
PUBLIC	??_R4ISoundInstance@@6B@			; ISoundInstance::`RTTI Complete Object Locator'
PUBLIC	??_R0?AVISoundInstance@@@8			; ISoundInstance `RTTI Type Descriptor'
PUBLIC	??_R3ISoundInstance@@8				; ISoundInstance::`RTTI Class Hierarchy Descriptor'
PUBLIC	??_R2ISoundInstance@@8				; ISoundInstance::`RTTI Base Class Array'
PUBLIC	??_R1A@?0A@EA@ISoundInstance@@8			; ISoundInstance::`RTTI Base Class Descriptor at (0,-1,0,64)'
PUBLIC	??_R1A@?0A@EA@CSoundBase@@8			; CSoundBase::`RTTI Base Class Descriptor at (0,-1,0,64)'
PUBLIC	??_R0?AVCSoundBase@@@8				; CSoundBase `RTTI Type Descriptor'
PUBLIC	??_R3CSoundBase@@8				; CSoundBase::`RTTI Class Hierarchy Descriptor'
PUBLIC	??_R2CSoundBase@@8				; CSoundBase::`RTTI Base Class Array'
PUBLIC	??_R4CSoundInstance3D@@6B@			; CSoundInstance3D::`RTTI Complete Object Locator'
PUBLIC	??_R0?AVCSoundInstance3D@@@8			; CSoundInstance3D `RTTI Type Descriptor'
PUBLIC	??_R3CSoundInstance3D@@8			; CSoundInstance3D::`RTTI Class Hierarchy Descriptor'
PUBLIC	??_R2CSoundInstance3D@@8			; CSoundInstance3D::`RTTI Base Class Array'
PUBLIC	??_R1A@?0A@EA@CSoundInstance3D@@8		; CSoundInstance3D::`RTTI Base Class Descriptor at (0,-1,0,64)'
PUBLIC	__real@3f800000
PUBLIC	__xmm@80000000800000008000000080000000
EXTRN	__purecall:PROC
EXTRN	??3@YAXPAXI@Z:PROC				; operator delete
EXTRN	__imp__AIL_last_error@0:PROC
EXTRN	__imp__AIL_allocate_3D_sample_handle@4:PROC
EXTRN	__imp__AIL_release_3D_sample_handle@4:PROC
EXTRN	__imp__AIL_start_3D_sample@4:PROC
EXTRN	__imp__AIL_stop_3D_sample@4:PROC
EXTRN	__imp__AIL_resume_3D_sample@4:PROC
EXTRN	__imp__AIL_end_3D_sample@4:PROC
EXTRN	__imp__AIL_set_3D_sample_file@8:PROC
EXTRN	__imp__AIL_set_3D_sample_volume@8:PROC
EXTRN	__imp__AIL_set_3D_sample_loop_count@8:PROC
EXTRN	__imp__AIL_3D_sample_status@4:PROC
EXTRN	__imp__AIL_3D_sample_volume@4:PROC
EXTRN	__imp__AIL_set_3D_position@16:PROC
EXTRN	__imp__AIL_set_3D_velocity@20:PROC
EXTRN	__imp__AIL_update_3D_position@8:PROC
EXTRN	__imp__AIL_auto_update_3D_position@8:PROC
EXTRN	?TraceError@@YAXPBDZZ:PROC			; TraceError
EXTRN	?Get@CSoundData@@QAEPAXXZ:PROC			; CSoundData::Get
EXTRN	?Release@CSoundData@@QAEXXZ:PROC		; CSoundData::Release
EXTRN	?GetFileName@CSoundData@@QAEPBDXZ:PROC		; CSoundData::GetFileName
EXTRN	?SetPlayTime@CSoundData@@QAEXK@Z:PROC		; CSoundData::SetPlayTime
EXTRN	?GetPlayTime@CSoundData@@QAEKXZ:PROC		; CSoundData::GetPlayTime
EXTRN	??0CSoundBase@@QAE@XZ:PROC			; CSoundBase::CSoundBase
EXTRN	??1CSoundBase@@UAE@XZ:PROC			; CSoundBase::~CSoundBase
EXTRN	??_EISoundInstance@@UAEPAXI@Z:PROC		; ISoundInstance::`vector deleting destructor'
EXTRN	??_ECSoundInstance3D@@UAEPAXI@Z:PROC		; CSoundInstance3D::`vector deleting destructor'
EXTRN	?ELTimer_GetMSec@@YAKXZ:PROC			; ELTimer_GetMSec
EXTRN	@__security_check_cookie@4:PROC
EXTRN	___CxxFrameHandler3:PROC
EXTRN	??_7type_info@@6B@:QWORD			; type_info::`vftable'
EXTRN	?ms_pProviderDefault@CSoundBase@@1PAUSProvider@@A:DWORD ; CSoundBase::ms_pProviderDefault
EXTRN	___security_cookie:DWORD
EXTRN	__fltused:DWORD
;	COMDAT __xmm@80000000800000008000000080000000
CONST	SEGMENT
__xmm@80000000800000008000000080000000 DB 00H, 00H, 00H, 080H, 00H, 00H, 00H
	DB	080H, 00H, 00H, 00H, 080H, 00H, 00H, 00H, 080H
CONST	ENDS
;	COMDAT __real@3f800000
CONST	SEGMENT
__real@3f800000 DD 03f800000r			; 1
CONST	ENDS
;	COMDAT ??_R1A@?0A@EA@CSoundInstance3D@@8
rdata$r	SEGMENT
??_R1A@?0A@EA@CSoundInstance3D@@8 DD FLAT:??_R0?AVCSoundInstance3D@@@8 ; CSoundInstance3D::`RTTI Base Class Descriptor at (0,-1,0,64)'
	DD	02H
	DD	00H
	DD	0ffffffffH
	DD	00H
	DD	040H
	DD	FLAT:??_R3CSoundInstance3D@@8
rdata$r	ENDS
;	COMDAT ??_R2CSoundInstance3D@@8
rdata$r	SEGMENT
??_R2CSoundInstance3D@@8 DD FLAT:??_R1A@?0A@EA@CSoundInstance3D@@8 ; CSoundInstance3D::`RTTI Base Class Array'
	DD	FLAT:??_R1A@?0A@EA@ISoundInstance@@8
	DD	FLAT:??_R1A@?0A@EA@CSoundBase@@8
rdata$r	ENDS
;	COMDAT ??_R3CSoundInstance3D@@8
rdata$r	SEGMENT
??_R3CSoundInstance3D@@8 DD 00H				; CSoundInstance3D::`RTTI Class Hierarchy Descriptor'
	DD	00H
	DD	03H
	DD	FLAT:??_R2CSoundInstance3D@@8
rdata$r	ENDS
;	COMDAT ??_R0?AVCSoundInstance3D@@@8
data$rs	SEGMENT
??_R0?AVCSoundInstance3D@@@8 DD FLAT:??_7type_info@@6B@	; CSoundInstance3D `RTTI Type Descriptor'
	DD	00H
	DB	'.?AVCSoundInstance3D@@', 00H
data$rs	ENDS
;	COMDAT ??_R4CSoundInstance3D@@6B@
rdata$r	SEGMENT
??_R4CSoundInstance3D@@6B@ DD 00H			; CSoundInstance3D::`RTTI Complete Object Locator'
	DD	00H
	DD	00H
	DD	FLAT:??_R0?AVCSoundInstance3D@@@8
	DD	FLAT:??_R3CSoundInstance3D@@8
rdata$r	ENDS
;	COMDAT ??_R2CSoundBase@@8
rdata$r	SEGMENT
??_R2CSoundBase@@8 DD FLAT:??_R1A@?0A@EA@CSoundBase@@8	; CSoundBase::`RTTI Base Class Array'
rdata$r	ENDS
;	COMDAT ??_R3CSoundBase@@8
rdata$r	SEGMENT
??_R3CSoundBase@@8 DD 00H				; CSoundBase::`RTTI Class Hierarchy Descriptor'
	DD	00H
	DD	01H
	DD	FLAT:??_R2CSoundBase@@8
rdata$r	ENDS
;	COMDAT ??_R0?AVCSoundBase@@@8
data$rs	SEGMENT
??_R0?AVCSoundBase@@@8 DD FLAT:??_7type_info@@6B@	; CSoundBase `RTTI Type Descriptor'
	DD	00H
	DB	'.?AVCSoundBase@@', 00H
data$rs	ENDS
;	COMDAT ??_R1A@?0A@EA@CSoundBase@@8
rdata$r	SEGMENT
??_R1A@?0A@EA@CSoundBase@@8 DD FLAT:??_R0?AVCSoundBase@@@8 ; CSoundBase::`RTTI Base Class Descriptor at (0,-1,0,64)'
	DD	00H
	DD	00H
	DD	0ffffffffH
	DD	00H
	DD	040H
	DD	FLAT:??_R3CSoundBase@@8
rdata$r	ENDS
;	COMDAT ??_R1A@?0A@EA@ISoundInstance@@8
rdata$r	SEGMENT
??_R1A@?0A@EA@ISoundInstance@@8 DD FLAT:??_R0?AVISoundInstance@@@8 ; ISoundInstance::`RTTI Base Class Descriptor at (0,-1,0,64)'
	DD	01H
	DD	00H
	DD	0ffffffffH
	DD	00H
	DD	040H
	DD	FLAT:??_R3ISoundInstance@@8
rdata$r	ENDS
;	COMDAT ??_R2ISoundInstance@@8
rdata$r	SEGMENT
??_R2ISoundInstance@@8 DD FLAT:??_R1A@?0A@EA@ISoundInstance@@8 ; ISoundInstance::`RTTI Base Class Array'
	DD	FLAT:??_R1A@?0A@EA@CSoundBase@@8
rdata$r	ENDS
;	COMDAT ??_R3ISoundInstance@@8
rdata$r	SEGMENT
??_R3ISoundInstance@@8 DD 00H				; ISoundInstance::`RTTI Class Hierarchy Descriptor'
	DD	00H
	DD	02H
	DD	FLAT:??_R2ISoundInstance@@8
rdata$r	ENDS
;	COMDAT ??_R0?AVISoundInstance@@@8
data$rs	SEGMENT
??_R0?AVISoundInstance@@@8 DD FLAT:??_7type_info@@6B@	; ISoundInstance `RTTI Type Descriptor'
	DD	00H
	DB	'.?AVISoundInstance@@', 00H
data$rs	ENDS
;	COMDAT ??_R4ISoundInstance@@6B@
rdata$r	SEGMENT
??_R4ISoundInstance@@6B@ DD 00H				; ISoundInstance::`RTTI Complete Object Locator'
	DD	00H
	DD	00H
	DD	FLAT:??_R0?AVISoundInstance@@@8
	DD	FLAT:??_R3ISoundInstance@@8
rdata$r	ENDS
;	COMDAT ??_C@_06DJHOIPC@?$CFs?3?5?$CFs@
CONST	SEGMENT
??_C@_06DJHOIPC@?$CFs?3?5?$CFs@ DB '%s: %s', 00H	; `string'
CONST	ENDS
;	COMDAT ??_7CSoundInstance3D@@6B@
CONST	SEGMENT
??_7CSoundInstance3D@@6B@ DD FLAT:??_R4CSoundInstance3D@@6B@ ; CSoundInstance3D::`vftable'
	DD	FLAT:??_ECSoundInstance3D@@UAEPAXI@Z
	DD	FLAT:?Initialize@CSoundInstance3D@@UAE_NXZ
	DD	FLAT:?Destroy@CSoundInstance3D@@UAEXXZ
	DD	FLAT:?SetSound@CSoundInstance3D@@UAE_NPAVCSoundData@@@Z
	DD	FLAT:?Play@CSoundInstance3D@@UBEXHK@Z
	DD	FLAT:?Pause@CSoundInstance3D@@UBEXXZ
	DD	FLAT:?Resume@CSoundInstance3D@@UBEXXZ
	DD	FLAT:?Stop@CSoundInstance3D@@UAEXXZ
	DD	FLAT:?GetVolume@CSoundInstance3D@@UBEXAAM@Z
	DD	FLAT:?SetVolume@CSoundInstance3D@@UBEXM@Z
	DD	FLAT:?IsDone@CSoundInstance3D@@UBE_NXZ
	DD	FLAT:?SetPosition@CSoundInstance3D@@UBEXMMM@Z
	DD	FLAT:?SetOrientation@CSoundInstance3D@@UBEXMMMMMM@Z
	DD	FLAT:?SetVelocity@CSoundInstance3D@@UBEXMMMM@Z
CONST	ENDS
;	COMDAT ??_7ISoundInstance@@6B@
CONST	SEGMENT
??_7ISoundInstance@@6B@ DD FLAT:??_R4ISoundInstance@@6B@ ; ISoundInstance::`vftable'
	DD	FLAT:??_EISoundInstance@@UAEPAXI@Z
	DD	FLAT:__purecall
	DD	FLAT:__purecall
	DD	FLAT:__purecall
	DD	FLAT:__purecall
	DD	FLAT:__purecall
	DD	FLAT:__purecall
	DD	FLAT:__purecall
	DD	FLAT:__purecall
	DD	FLAT:__purecall
	DD	FLAT:__purecall
	DD	FLAT:__purecall
	DD	FLAT:__purecall
	DD	FLAT:__purecall
CONST	ENDS
;	COMDAT xdata$x
xdata$x	SEGMENT
__ehfuncinfo$??1CSoundInstance3D@@UAE@XZ DD 019930522H
	DD	00H
	DD	00H
	DD	2 DUP(00H)
	DD	2 DUP(00H)
	DD	00H
	DD	05H
xdata$x	ENDS
; Function compile flags: /Odspy
;	COMDAT ??_GCSoundInstance3D@@UAEPAXI@Z
_TEXT	SEGMENT
_this$ = -4						; size = 4
___flags$ = 8						; size = 4
??_GCSoundInstance3D@@UAEPAXI@Z PROC			; CSoundInstance3D::`scalar deleting destructor', COMDAT
; _this$ = ecx
  00000	55		 push	 ebp
  00001	8b ec		 mov	 ebp, esp
  00003	51		 push	 ecx
  00004	89 4d fc	 mov	 DWORD PTR _this$[ebp], ecx
  00007	8b 4d fc	 mov	 ecx, DWORD PTR _this$[ebp]
  0000a	e8 00 00 00 00	 call	 ??1CSoundInstance3D@@UAE@XZ ; CSoundInstance3D::~CSoundInstance3D
  0000f	8b 45 08	 mov	 eax, DWORD PTR ___flags$[ebp]
  00012	83 e0 01	 and	 eax, 1
  00015	74 0c		 je	 SHORT $LN2@scalar
  00017	6a 0c		 push	 12			; 0000000cH
  00019	ff 75 fc	 push	 DWORD PTR _this$[ebp]
  0001c	e8 00 00 00 00	 call	 ??3@YAXPAXI@Z		; operator delete
  00021	59		 pop	 ecx
  00022	59		 pop	 ecx
$LN2@scalar:
  00023	8b 45 fc	 mov	 eax, DWORD PTR _this$[ebp]
  00026	c9		 leave
  00027	c2 04 00	 ret	 4
??_GCSoundInstance3D@@UAEPAXI@Z ENDP			; CSoundInstance3D::`scalar deleting destructor'
_TEXT	ENDS
; Function compile flags: /Odspy
; File D:\Metin2 Server Files\mainline\SRC_2014\Metin2Client\MilesLib\SoundInstance3D.cpp
;	COMDAT ?UpdatePosition@CSoundInstance3D@@QAEXM@Z
_TEXT	SEGMENT
_this$ = -4						; size = 4
_fElapsedTime$ = 8					; size = 4
?UpdatePosition@CSoundInstance3D@@QAEXM@Z PROC		; CSoundInstance3D::UpdatePosition, COMDAT
; _this$ = ecx

; 135  : {

  00000	55		 push	 ebp
  00001	8b ec		 mov	 ebp, esp
  00003	51		 push	 ecx
  00004	89 4d fc	 mov	 DWORD PTR _this$[ebp], ecx

; 136  : 	AIL_update_3D_position(m_sample, fElapsedTime);

  00007	51		 push	 ecx
  00008	f3 0f 10 45 08	 movss	 xmm0, DWORD PTR _fElapsedTime$[ebp]
  0000d	f3 0f 11 04 24	 movss	 DWORD PTR [esp], xmm0
  00012	8b 45 fc	 mov	 eax, DWORD PTR _this$[ebp]
  00015	ff 70 04	 push	 DWORD PTR [eax+4]
  00018	ff 15 00 00 00
	00		 call	 DWORD PTR __imp__AIL_update_3D_position@8

; 137  : }

  0001e	c9		 leave
  0001f	c2 04 00	 ret	 4
?UpdatePosition@CSoundInstance3D@@QAEXM@Z ENDP		; CSoundInstance3D::UpdatePosition
_TEXT	ENDS
; Function compile flags: /Odspy
; File D:\Metin2 Server Files\mainline\SRC_2014\Metin2Client\MilesLib\SoundInstance3D.cpp
;	COMDAT ?SetVelocity@CSoundInstance3D@@UBEXMMMM@Z
_TEXT	SEGMENT
_this$ = -4						; size = 4
_fDistanceX$ = 8					; size = 4
_fDistanceY$ = 12					; size = 4
_fDistanceZ$ = 16					; size = 4
_fNagnitude$ = 20					; size = 4
?SetVelocity@CSoundInstance3D@@UBEXMMMM@Z PROC		; CSoundInstance3D::SetVelocity, COMDAT
; _this$ = ecx

; 129  : {

  00000	55		 push	 ebp
  00001	8b ec		 mov	 ebp, esp
  00003	51		 push	 ecx
  00004	89 4d fc	 mov	 DWORD PTR _this$[ebp], ecx

; 130  : 	AIL_set_3D_velocity(m_sample, fDistanceX, fDistanceY, fDistanceZ, fNagnitude);

  00007	51		 push	 ecx
  00008	f3 0f 10 45 14	 movss	 xmm0, DWORD PTR _fNagnitude$[ebp]
  0000d	f3 0f 11 04 24	 movss	 DWORD PTR [esp], xmm0
  00012	51		 push	 ecx
  00013	f3 0f 10 45 10	 movss	 xmm0, DWORD PTR _fDistanceZ$[ebp]
  00018	f3 0f 11 04 24	 movss	 DWORD PTR [esp], xmm0
  0001d	51		 push	 ecx
  0001e	f3 0f 10 45 0c	 movss	 xmm0, DWORD PTR _fDistanceY$[ebp]
  00023	f3 0f 11 04 24	 movss	 DWORD PTR [esp], xmm0
  00028	51		 push	 ecx
  00029	f3 0f 10 45 08	 movss	 xmm0, DWORD PTR _fDistanceX$[ebp]
  0002e	f3 0f 11 04 24	 movss	 DWORD PTR [esp], xmm0
  00033	8b 45 fc	 mov	 eax, DWORD PTR _this$[ebp]
  00036	ff 70 04	 push	 DWORD PTR [eax+4]
  00039	ff 15 00 00 00
	00		 call	 DWORD PTR __imp__AIL_set_3D_velocity@20

; 131  : 	AIL_auto_update_3D_position(m_sample, 1);

  0003f	6a 01		 push	 1
  00041	8b 45 fc	 mov	 eax, DWORD PTR _this$[ebp]
  00044	ff 70 04	 push	 DWORD PTR [eax+4]
  00047	ff 15 00 00 00
	00		 call	 DWORD PTR __imp__AIL_auto_update_3D_position@8

; 132  : }

  0004d	c9		 leave
  0004e	c2 10 00	 ret	 16			; 00000010H
?SetVelocity@CSoundInstance3D@@UBEXMMMM@Z ENDP		; CSoundInstance3D::SetVelocity
_TEXT	ENDS
; Function compile flags: /Odspy
; File D:\Metin2 Server Files\mainline\SRC_2014\Metin2Client\MilesLib\SoundInstance3D.cpp
;	COMDAT ?SetOrientation@CSoundInstance3D@@UBEXMMMMMM@Z
_TEXT	SEGMENT
_this$ = -4						; size = 4
_x_face$ = 8						; size = 4
_y_face$ = 12						; size = 4
_z_face$ = 16						; size = 4
_x_normal$ = 20						; size = 4
_y_normal$ = 24						; size = 4
_z_normal$ = 28						; size = 4
?SetOrientation@CSoundInstance3D@@UBEXMMMMMM@Z PROC	; CSoundInstance3D::SetOrientation, COMDAT
; _this$ = ecx

; 121  : {

  00000	55		 push	 ebp
  00001	8b ec		 mov	 ebp, esp
  00003	51		 push	 ecx
  00004	89 4d fc	 mov	 DWORD PTR _this$[ebp], ecx

; 122  : 	assert(!" CSoundInstance3D::SetOrientation - 사용 하지 않는 함수");
; 123  : //	AIL_set_3D_orientation(m_sample, 
; 124  : //						   x_face, y_face, z_face,
; 125  : //						   x_normal, y_normal, z_normal);
; 126  : }

  00007	c9		 leave
  00008	c2 18 00	 ret	 24			; 00000018H
?SetOrientation@CSoundInstance3D@@UBEXMMMMMM@Z ENDP	; CSoundInstance3D::SetOrientation
_TEXT	ENDS
; Function compile flags: /Odspy
; File D:\Metin2 Server Files\mainline\SRC_2014\Metin2Client\MilesLib\SoundInstance3D.cpp
;	COMDAT ?SetPosition@CSoundInstance3D@@UBEXMMM@Z
_TEXT	SEGMENT
_this$ = -4						; size = 4
_x$ = 8							; size = 4
_y$ = 12						; size = 4
_z$ = 16						; size = 4
?SetPosition@CSoundInstance3D@@UBEXMMM@Z PROC		; CSoundInstance3D::SetPosition, COMDAT
; _this$ = ecx

; 115  : {

  00000	55		 push	 ebp
  00001	8b ec		 mov	 ebp, esp
  00003	51		 push	 ecx
  00004	89 4d fc	 mov	 DWORD PTR _this$[ebp], ecx

; 116  : 	AIL_set_3D_position(m_sample, x, y, -z);

  00007	f3 0f 10 45 10	 movss	 xmm0, DWORD PTR _z$[ebp]
  0000c	0f 57 05 00 00
	00 00		 xorps	 xmm0, DWORD PTR __xmm@80000000800000008000000080000000
  00013	51		 push	 ecx
  00014	f3 0f 11 04 24	 movss	 DWORD PTR [esp], xmm0
  00019	51		 push	 ecx
  0001a	f3 0f 10 45 0c	 movss	 xmm0, DWORD PTR _y$[ebp]
  0001f	f3 0f 11 04 24	 movss	 DWORD PTR [esp], xmm0
  00024	51		 push	 ecx
  00025	f3 0f 10 45 08	 movss	 xmm0, DWORD PTR _x$[ebp]
  0002a	f3 0f 11 04 24	 movss	 DWORD PTR [esp], xmm0
  0002f	8b 45 fc	 mov	 eax, DWORD PTR _this$[ebp]
  00032	ff 70 04	 push	 DWORD PTR [eax+4]
  00035	ff 15 00 00 00
	00		 call	 DWORD PTR __imp__AIL_set_3D_position@16

; 117  : }

  0003b	c9		 leave
  0003c	c2 0c 00	 ret	 12			; 0000000cH
?SetPosition@CSoundInstance3D@@UBEXMMM@Z ENDP		; CSoundInstance3D::SetPosition
_TEXT	ENDS
; Function compile flags: /Odspy
; File D:\Metin2 Server Files\mainline\SRC_2014\Metin2Client\MilesLib\SoundInstance3D.cpp
;	COMDAT ?IsDone@CSoundInstance3D@@UBE_NXZ
_TEXT	SEGMENT
_this$ = -8						; size = 4
tv68 = -4						; size = 4
?IsDone@CSoundInstance3D@@UBE_NXZ PROC			; CSoundInstance3D::IsDone, COMDAT
; _this$ = ecx

; 66   : {

  00000	55		 push	 ebp
  00001	8b ec		 mov	 ebp, esp
  00003	51		 push	 ecx
  00004	51		 push	 ecx
  00005	89 4d f8	 mov	 DWORD PTR _this$[ebp], ecx

; 67   : 	return AIL_3D_sample_status(m_sample) == SMP_DONE;

  00008	8b 45 f8	 mov	 eax, DWORD PTR _this$[ebp]
  0000b	ff 70 04	 push	 DWORD PTR [eax+4]
  0000e	ff 15 00 00 00
	00		 call	 DWORD PTR __imp__AIL_3D_sample_status@4
  00014	83 f8 02	 cmp	 eax, 2
  00017	75 09		 jne	 SHORT $LN3@IsDone
  00019	c7 45 fc 01 00
	00 00		 mov	 DWORD PTR tv68[ebp], 1
  00020	eb 04		 jmp	 SHORT $LN4@IsDone
$LN3@IsDone:
  00022	83 65 fc 00	 and	 DWORD PTR tv68[ebp], 0
$LN4@IsDone:
  00026	8a 45 fc	 mov	 al, BYTE PTR tv68[ebp]

; 68   : }

  00029	c9		 leave
  0002a	c3		 ret	 0
?IsDone@CSoundInstance3D@@UBE_NXZ ENDP			; CSoundInstance3D::IsDone
_TEXT	ENDS
; Function compile flags: /Odspy
; File D:\Metin2 Server Files\mainline\SRC_2014\Metin2Client\MilesLib\SoundInstance3D.cpp
;	COMDAT ?SetVolume@CSoundInstance3D@@UBEXM@Z
_TEXT	SEGMENT
_this$ = -16						; size = 4
tv69 = -12						; size = 4
tv68 = -8						; size = 4
tv65 = -4						; size = 4
_volume$ = 8						; size = 4
?SetVolume@CSoundInstance3D@@UBEXM@Z PROC		; CSoundInstance3D::SetVolume, COMDAT
; _this$ = ecx

; 109  : {

  00000	55		 push	 ebp
  00001	8b ec		 mov	 ebp, esp
  00003	83 ec 10	 sub	 esp, 16			; 00000010H
  00006	89 4d f0	 mov	 DWORD PTR _this$[ebp], ecx

; 110  : 	volume = max(0.0f, min(1.0f, volume));

  00009	f3 0f 10 45 08	 movss	 xmm0, DWORD PTR _volume$[ebp]
  0000e	0f 2f 05 00 00
	00 00		 comiss	 xmm0, DWORD PTR __real@3f800000
  00015	76 0f		 jbe	 SHORT $LN3@SetVolume
  00017	f3 0f 10 05 00
	00 00 00	 movss	 xmm0, DWORD PTR __real@3f800000
  0001f	f3 0f 11 45 fc	 movss	 DWORD PTR tv65[ebp], xmm0
  00024	eb 0a		 jmp	 SHORT $LN4@SetVolume
$LN3@SetVolume:
  00026	f3 0f 10 45 08	 movss	 xmm0, DWORD PTR _volume$[ebp]
  0002b	f3 0f 11 45 fc	 movss	 DWORD PTR tv65[ebp], xmm0
$LN4@SetVolume:
  00030	0f 57 c0	 xorps	 xmm0, xmm0
  00033	0f 2f 45 fc	 comiss	 xmm0, DWORD PTR tv65[ebp]
  00037	76 0a		 jbe	 SHORT $LN7@SetVolume
  00039	0f 57 c0	 xorps	 xmm0, xmm0
  0003c	f3 0f 11 45 f4	 movss	 DWORD PTR tv69[ebp], xmm0
  00041	eb 31		 jmp	 SHORT $LN8@SetVolume
$LN7@SetVolume:
  00043	f3 0f 10 45 08	 movss	 xmm0, DWORD PTR _volume$[ebp]
  00048	0f 2f 05 00 00
	00 00		 comiss	 xmm0, DWORD PTR __real@3f800000
  0004f	76 0f		 jbe	 SHORT $LN5@SetVolume
  00051	f3 0f 10 05 00
	00 00 00	 movss	 xmm0, DWORD PTR __real@3f800000
  00059	f3 0f 11 45 f8	 movss	 DWORD PTR tv68[ebp], xmm0
  0005e	eb 0a		 jmp	 SHORT $LN6@SetVolume
$LN5@SetVolume:
  00060	f3 0f 10 45 08	 movss	 xmm0, DWORD PTR _volume$[ebp]
  00065	f3 0f 11 45 f8	 movss	 DWORD PTR tv68[ebp], xmm0
$LN6@SetVolume:
  0006a	f3 0f 10 45 f8	 movss	 xmm0, DWORD PTR tv68[ebp]
  0006f	f3 0f 11 45 f4	 movss	 DWORD PTR tv69[ebp], xmm0
$LN8@SetVolume:
  00074	f3 0f 10 45 f4	 movss	 xmm0, DWORD PTR tv69[ebp]
  00079	f3 0f 11 45 08	 movss	 DWORD PTR _volume$[ebp], xmm0

; 111  : 	AIL_set_3D_sample_volume(m_sample, volume);

  0007e	51		 push	 ecx
  0007f	f3 0f 10 45 08	 movss	 xmm0, DWORD PTR _volume$[ebp]
  00084	f3 0f 11 04 24	 movss	 DWORD PTR [esp], xmm0
  00089	8b 45 f0	 mov	 eax, DWORD PTR _this$[ebp]
  0008c	ff 70 04	 push	 DWORD PTR [eax+4]
  0008f	ff 15 00 00 00
	00		 call	 DWORD PTR __imp__AIL_set_3D_sample_volume@8

; 112  : }

  00095	c9		 leave
  00096	c2 04 00	 ret	 4
?SetVolume@CSoundInstance3D@@UBEXM@Z ENDP		; CSoundInstance3D::SetVolume
_TEXT	ENDS
; Function compile flags: /Odspy
; File D:\Metin2 Server Files\mainline\SRC_2014\Metin2Client\MilesLib\SoundInstance3D.cpp
;	COMDAT ?GetVolume@CSoundInstance3D@@UBEXAAM@Z
_TEXT	SEGMENT
_this$ = -4						; size = 4
_rfVolume$ = 8						; size = 4
?GetVolume@CSoundInstance3D@@UBEXAAM@Z PROC		; CSoundInstance3D::GetVolume, COMDAT
; _this$ = ecx

; 104  : {

  00000	55		 push	 ebp
  00001	8b ec		 mov	 ebp, esp
  00003	51		 push	 ecx
  00004	89 4d fc	 mov	 DWORD PTR _this$[ebp], ecx

; 105  : 	rfVolume = AIL_3D_sample_volume(m_sample);

  00007	8b 45 fc	 mov	 eax, DWORD PTR _this$[ebp]
  0000a	ff 70 04	 push	 DWORD PTR [eax+4]
  0000d	ff 15 00 00 00
	00		 call	 DWORD PTR __imp__AIL_3D_sample_volume@4
  00013	8b 45 08	 mov	 eax, DWORD PTR _rfVolume$[ebp]
  00016	d9 18		 fstp	 DWORD PTR [eax]

; 106  : }

  00018	c9		 leave
  00019	c2 04 00	 ret	 4
?GetVolume@CSoundInstance3D@@UBEXAAM@Z ENDP		; CSoundInstance3D::GetVolume
_TEXT	ENDS
; Function compile flags: /Odspy
; File D:\Metin2 Server Files\mainline\SRC_2014\Metin2Client\MilesLib\SoundInstance3D.cpp
;	COMDAT ?Stop@CSoundInstance3D@@UAEXXZ
_TEXT	SEGMENT
_this$ = -4						; size = 4
?Stop@CSoundInstance3D@@UAEXXZ PROC			; CSoundInstance3D::Stop, COMDAT
; _this$ = ecx

; 97   : {

  00000	55		 push	 ebp
  00001	8b ec		 mov	 ebp, esp
  00003	51		 push	 ecx
  00004	89 4d fc	 mov	 DWORD PTR _this$[ebp], ecx

; 98   : 	AIL_end_3D_sample(m_sample);

  00007	8b 45 fc	 mov	 eax, DWORD PTR _this$[ebp]
  0000a	ff 70 04	 push	 DWORD PTR [eax+4]
  0000d	ff 15 00 00 00
	00		 call	 DWORD PTR __imp__AIL_end_3D_sample@4

; 99   : //	m_sample = NULL;
; 100  : // NOTE : IsDone을 체크하려면 m_sample이 살아있어야 합니다 - [levites]
; 101  : }

  00013	c9		 leave
  00014	c3		 ret	 0
?Stop@CSoundInstance3D@@UAEXXZ ENDP			; CSoundInstance3D::Stop
_TEXT	ENDS
; Function compile flags: /Odspy
; File D:\Metin2 Server Files\mainline\SRC_2014\Metin2Client\MilesLib\SoundInstance3D.cpp
;	COMDAT ?Resume@CSoundInstance3D@@UBEXXZ
_TEXT	SEGMENT
_this$ = -4						; size = 4
?Resume@CSoundInstance3D@@UBEXXZ PROC			; CSoundInstance3D::Resume, COMDAT
; _this$ = ecx

; 92   : {

  00000	55		 push	 ebp
  00001	8b ec		 mov	 ebp, esp
  00003	51		 push	 ecx
  00004	89 4d fc	 mov	 DWORD PTR _this$[ebp], ecx

; 93   : 	AIL_resume_3D_sample(m_sample);

  00007	8b 45 fc	 mov	 eax, DWORD PTR _this$[ebp]
  0000a	ff 70 04	 push	 DWORD PTR [eax+4]
  0000d	ff 15 00 00 00
	00		 call	 DWORD PTR __imp__AIL_resume_3D_sample@4

; 94   : }

  00013	c9		 leave
  00014	c3		 ret	 0
?Resume@CSoundInstance3D@@UBEXXZ ENDP			; CSoundInstance3D::Resume
_TEXT	ENDS
; Function compile flags: /Odspy
; File D:\Metin2 Server Files\mainline\SRC_2014\Metin2Client\MilesLib\SoundInstance3D.cpp
;	COMDAT ?Pause@CSoundInstance3D@@UBEXXZ
_TEXT	SEGMENT
_this$ = -4						; size = 4
?Pause@CSoundInstance3D@@UBEXXZ PROC			; CSoundInstance3D::Pause, COMDAT
; _this$ = ecx

; 87   : {

  00000	55		 push	 ebp
  00001	8b ec		 mov	 ebp, esp
  00003	51		 push	 ecx
  00004	89 4d fc	 mov	 DWORD PTR _this$[ebp], ecx

; 88   : 	AIL_stop_3D_sample(m_sample);

  00007	8b 45 fc	 mov	 eax, DWORD PTR _this$[ebp]
  0000a	ff 70 04	 push	 DWORD PTR [eax+4]
  0000d	ff 15 00 00 00
	00		 call	 DWORD PTR __imp__AIL_stop_3D_sample@4

; 89   : }

  00013	c9		 leave
  00014	c3		 ret	 0
?Pause@CSoundInstance3D@@UBEXXZ ENDP			; CSoundInstance3D::Pause
_TEXT	ENDS
; Function compile flags: /Odspy
; File D:\Metin2 Server Files\mainline\SRC_2014\Metin2Client\MilesLib\SoundInstance3D.cpp
;	COMDAT ?Play@CSoundInstance3D@@UBEXHK@Z
_TEXT	SEGMENT
_dwCurTime$ = -8					; size = 4
_this$ = -4						; size = 4
_iLoopCount$ = 8					; size = 4
_dwPlayCycleTimeLimit$ = 12				; size = 4
?Play@CSoundInstance3D@@UBEXHK@Z PROC			; CSoundInstance3D::Play, COMDAT
; _this$ = ecx

; 71   : {

  00000	55		 push	 ebp
  00001	8b ec		 mov	 ebp, esp
  00003	51		 push	 ecx
  00004	51		 push	 ecx
  00005	89 4d fc	 mov	 DWORD PTR _this$[ebp], ecx

; 72   : 	if (!m_pSoundData)

  00008	8b 45 fc	 mov	 eax, DWORD PTR _this$[ebp]
  0000b	83 78 08 00	 cmp	 DWORD PTR [eax+8], 0
  0000f	75 02		 jne	 SHORT $LN2@Play

; 73   : 		return;

  00011	eb 48		 jmp	 SHORT $LN1@Play
$LN2@Play:

; 74   : 
; 75   : 	DWORD dwCurTime = ELTimer_GetMSec();

  00013	e8 00 00 00 00	 call	 ?ELTimer_GetMSec@@YAKXZ	; ELTimer_GetMSec
  00018	89 45 f8	 mov	 DWORD PTR _dwCurTime$[ebp], eax

; 76   : 
; 77   : 	if (dwCurTime - m_pSoundData->GetPlayTime() < dwPlayCycleTimeLimit)

  0001b	8b 45 fc	 mov	 eax, DWORD PTR _this$[ebp]
  0001e	8b 48 08	 mov	 ecx, DWORD PTR [eax+8]
  00021	e8 00 00 00 00	 call	 ?GetPlayTime@CSoundData@@QAEKXZ ; CSoundData::GetPlayTime
  00026	8b 4d f8	 mov	 ecx, DWORD PTR _dwCurTime$[ebp]
  00029	2b c8		 sub	 ecx, eax
  0002b	3b 4d 0c	 cmp	 ecx, DWORD PTR _dwPlayCycleTimeLimit$[ebp]
  0002e	73 02		 jae	 SHORT $LN3@Play

; 78   : 		return;

  00030	eb 29		 jmp	 SHORT $LN1@Play
$LN3@Play:

; 79   : 
; 80   : 	m_pSoundData->SetPlayTime(dwCurTime);

  00032	ff 75 f8	 push	 DWORD PTR _dwCurTime$[ebp]
  00035	8b 45 fc	 mov	 eax, DWORD PTR _this$[ebp]
  00038	8b 48 08	 mov	 ecx, DWORD PTR [eax+8]
  0003b	e8 00 00 00 00	 call	 ?SetPlayTime@CSoundData@@QAEXK@Z ; CSoundData::SetPlayTime

; 81   : 
; 82   : 	AIL_set_3D_sample_loop_count(m_sample, iLoopCount);

  00040	ff 75 08	 push	 DWORD PTR _iLoopCount$[ebp]
  00043	8b 45 fc	 mov	 eax, DWORD PTR _this$[ebp]
  00046	ff 70 04	 push	 DWORD PTR [eax+4]
  00049	ff 15 00 00 00
	00		 call	 DWORD PTR __imp__AIL_set_3D_sample_loop_count@8

; 83   : 	AIL_start_3D_sample(m_sample);

  0004f	8b 45 fc	 mov	 eax, DWORD PTR _this$[ebp]
  00052	ff 70 04	 push	 DWORD PTR [eax+4]
  00055	ff 15 00 00 00
	00		 call	 DWORD PTR __imp__AIL_start_3D_sample@4
$LN1@Play:

; 84   : }

  0005b	c9		 leave
  0005c	c2 08 00	 ret	 8
?Play@CSoundInstance3D@@UBEXHK@Z ENDP			; CSoundInstance3D::Play
_TEXT	ENDS
; Function compile flags: /Odspy
; File D:\Metin2 Server Files\mainline\SRC_2014\Metin2Client\MilesLib\SoundInstance3D.cpp
;	COMDAT ?SetSound@CSoundInstance3D@@UAE_NPAVCSoundData@@@Z
_TEXT	SEGMENT
_lpData$ = -8						; size = 4
_this$ = -4						; size = 4
_pSoundData$ = 8					; size = 4
?SetSound@CSoundInstance3D@@UAE_NPAVCSoundData@@@Z PROC	; CSoundInstance3D::SetSound, COMDAT
; _this$ = ecx

; 35   : {

  00000	55		 push	 ebp
  00001	8b ec		 mov	 ebp, esp
  00003	51		 push	 ecx
  00004	51		 push	 ecx
  00005	89 4d fc	 mov	 DWORD PTR _this$[ebp], ecx

; 36   : 	assert(m_sample != NULL && pSoundData != NULL);
; 37   : 
; 38   : 	// 레퍼런스 카운트가 1이 될 때 로드를 해야 제대로 사이즈가 리턴
; 39   : 	// 되므로 반드시 Get을 호출 하고 진행해야 한다.
; 40   : 	// 또, m_pSoundData가 pSoundData와 같고 m_pSoundData의 레퍼런스
; 41   : 	// 카운터가 1일 경우, 불필요하게 로드가 일어나므로 미리 레퍼런스
; 42   : 	// 카운터를 올려놔야 한다.
; 43   : 	LPVOID lpData = pSoundData->Get();

  00008	8b 4d 08	 mov	 ecx, DWORD PTR _pSoundData$[ebp]
  0000b	e8 00 00 00 00	 call	 ?Get@CSoundData@@QAEPAXXZ ; CSoundData::Get
  00010	89 45 f8	 mov	 DWORD PTR _lpData$[ebp], eax

; 44   : 	
; 45   : 	if (m_pSoundData != NULL)

  00013	8b 45 fc	 mov	 eax, DWORD PTR _this$[ebp]
  00016	83 78 08 00	 cmp	 DWORD PTR [eax+8], 0
  0001a	74 12		 je	 SHORT $LN2@SetSound

; 46   : 	{
; 47   : 		m_pSoundData->Release();

  0001c	8b 45 fc	 mov	 eax, DWORD PTR _this$[ebp]
  0001f	8b 48 08	 mov	 ecx, DWORD PTR [eax+8]
  00022	e8 00 00 00 00	 call	 ?Release@CSoundData@@QAEXXZ ; CSoundData::Release

; 48   : 		m_pSoundData = NULL;

  00027	8b 45 fc	 mov	 eax, DWORD PTR _this$[ebp]
  0002a	83 60 08 00	 and	 DWORD PTR [eax+8], 0
$LN2@SetSound:

; 49   : 	}
; 50   : 	
; 51   : 	if (AIL_set_3D_sample_file(m_sample, lpData) == NULL)

  0002e	ff 75 f8	 push	 DWORD PTR _lpData$[ebp]
  00031	8b 45 fc	 mov	 eax, DWORD PTR _this$[ebp]
  00034	ff 70 04	 push	 DWORD PTR [eax+4]
  00037	ff 15 00 00 00
	00		 call	 DWORD PTR __imp__AIL_set_3D_sample_file@8
  0003d	85 c0		 test	 eax, eax
  0003f	75 29		 jne	 SHORT $LN3@SetSound

; 52   : 	{
; 53   : 		TraceError("%s: %s", AIL_last_error(), pSoundData->GetFileName());

  00041	8b 4d 08	 mov	 ecx, DWORD PTR _pSoundData$[ebp]
  00044	e8 00 00 00 00	 call	 ?GetFileName@CSoundData@@QAEPBDXZ ; CSoundData::GetFileName
  00049	50		 push	 eax
  0004a	ff 15 00 00 00
	00		 call	 DWORD PTR __imp__AIL_last_error@0
  00050	50		 push	 eax
  00051	68 00 00 00 00	 push	 OFFSET ??_C@_06DJHOIPC@?$CFs?3?5?$CFs@
  00056	e8 00 00 00 00	 call	 ?TraceError@@YAXPBDZZ	; TraceError
  0005b	83 c4 0c	 add	 esp, 12			; 0000000cH

; 54   : 		pSoundData->Release();

  0005e	8b 4d 08	 mov	 ecx, DWORD PTR _pSoundData$[ebp]
  00061	e8 00 00 00 00	 call	 ?Release@CSoundData@@QAEXXZ ; CSoundData::Release

; 55   : 		return false;

  00066	32 c0		 xor	 al, al
  00068	eb 40		 jmp	 SHORT $LN1@SetSound
$LN3@SetSound:

; 56   : 	}
; 57   : 
; 58   : 	m_pSoundData = pSoundData;

  0006a	8b 45 fc	 mov	 eax, DWORD PTR _this$[ebp]
  0006d	8b 4d 08	 mov	 ecx, DWORD PTR _pSoundData$[ebp]
  00070	89 48 08	 mov	 DWORD PTR [eax+8], ecx

; 59   : 
; 60   : 	AIL_set_3D_position(m_sample, 0.0F, 0.0F, 0.0F);

  00073	51		 push	 ecx
  00074	0f 57 c0	 xorps	 xmm0, xmm0
  00077	f3 0f 11 04 24	 movss	 DWORD PTR [esp], xmm0
  0007c	51		 push	 ecx
  0007d	0f 57 c0	 xorps	 xmm0, xmm0
  00080	f3 0f 11 04 24	 movss	 DWORD PTR [esp], xmm0
  00085	51		 push	 ecx
  00086	0f 57 c0	 xorps	 xmm0, xmm0
  00089	f3 0f 11 04 24	 movss	 DWORD PTR [esp], xmm0
  0008e	8b 45 fc	 mov	 eax, DWORD PTR _this$[ebp]
  00091	ff 70 04	 push	 DWORD PTR [eax+4]
  00094	ff 15 00 00 00
	00		 call	 DWORD PTR __imp__AIL_set_3D_position@16

; 61   : 	AIL_auto_update_3D_position(m_sample, 0);

  0009a	6a 00		 push	 0
  0009c	8b 45 fc	 mov	 eax, DWORD PTR _this$[ebp]
  0009f	ff 70 04	 push	 DWORD PTR [eax+4]
  000a2	ff 15 00 00 00
	00		 call	 DWORD PTR __imp__AIL_auto_update_3D_position@8

; 62   : 	return true;

  000a8	b0 01		 mov	 al, 1
$LN1@SetSound:

; 63   : }

  000aa	c9		 leave
  000ab	c2 04 00	 ret	 4
?SetSound@CSoundInstance3D@@UAE_NPAVCSoundData@@@Z ENDP	; CSoundInstance3D::SetSound
_TEXT	ENDS
; Function compile flags: /Odspy
; File D:\Metin2 Server Files\mainline\SRC_2014\Metin2Client\MilesLib\SoundInstance3D.cpp
;	COMDAT ?Destroy@CSoundInstance3D@@UAEXXZ
_TEXT	SEGMENT
_this$ = -4						; size = 4
?Destroy@CSoundInstance3D@@UAEXXZ PROC			; CSoundInstance3D::Destroy, COMDAT
; _this$ = ecx

; 15   : {

  00000	55		 push	 ebp
  00001	8b ec		 mov	 ebp, esp
  00003	51		 push	 ecx
  00004	89 4d fc	 mov	 DWORD PTR _this$[ebp], ecx

; 16   : 	SAFE_RELEASE(m_pSoundData);

  00007	8b 45 fc	 mov	 eax, DWORD PTR _this$[ebp]
  0000a	83 78 08 00	 cmp	 DWORD PTR [eax+8], 0
  0000e	74 12		 je	 SHORT $LN2@Destroy
  00010	8b 45 fc	 mov	 eax, DWORD PTR _this$[ebp]
  00013	8b 48 08	 mov	 ecx, DWORD PTR [eax+8]
  00016	e8 00 00 00 00	 call	 ?Release@CSoundData@@QAEXXZ ; CSoundData::Release
  0001b	8b 45 fc	 mov	 eax, DWORD PTR _this$[ebp]
  0001e	83 60 08 00	 and	 DWORD PTR [eax+8], 0
$LN2@Destroy:

; 17   : 
; 18   : 	if (m_sample)

  00022	8b 45 fc	 mov	 eax, DWORD PTR _this$[ebp]
  00025	83 78 04 00	 cmp	 DWORD PTR [eax+4], 0
  00029	74 13		 je	 SHORT $LN1@Destroy

; 19   : 	{
; 20   : 		AIL_release_3D_sample_handle(m_sample);

  0002b	8b 45 fc	 mov	 eax, DWORD PTR _this$[ebp]
  0002e	ff 70 04	 push	 DWORD PTR [eax+4]
  00031	ff 15 00 00 00
	00		 call	 DWORD PTR __imp__AIL_release_3D_sample_handle@4

; 21   : 		m_sample = NULL;

  00037	8b 45 fc	 mov	 eax, DWORD PTR _this$[ebp]
  0003a	83 60 04 00	 and	 DWORD PTR [eax+4], 0
$LN1@Destroy:

; 22   : 	}
; 23   : }

  0003e	c9		 leave
  0003f	c3		 ret	 0
?Destroy@CSoundInstance3D@@UAEXXZ ENDP			; CSoundInstance3D::Destroy
_TEXT	ENDS
; Function compile flags: /Odspy
; File D:\Metin2 Server Files\mainline\SRC_2014\Metin2Client\MilesLib\SoundInstance3D.cpp
;	COMDAT ?Initialize@CSoundInstance3D@@UAE_NXZ
_TEXT	SEGMENT
_this$ = -8						; size = 4
tv72 = -1						; size = 1
?Initialize@CSoundInstance3D@@UAE_NXZ PROC		; CSoundInstance3D::Initialize, COMDAT
; _this$ = ecx

; 26   : {

  00000	55		 push	 ebp
  00001	8b ec		 mov	 ebp, esp
  00003	51		 push	 ecx
  00004	51		 push	 ecx
  00005	89 4d f8	 mov	 DWORD PTR _this$[ebp], ecx

; 27   : 	if (m_sample)

  00008	8b 45 f8	 mov	 eax, DWORD PTR _this$[ebp]
  0000b	83 78 04 00	 cmp	 DWORD PTR [eax+4], 0
  0000f	74 04		 je	 SHORT $LN2@Initialize

; 28   : 		return true;

  00011	b0 01		 mov	 al, 1
  00013	eb 2a		 jmp	 SHORT $LN1@Initialize
$LN2@Initialize:

; 29   : 
; 30   : 	m_sample = AIL_allocate_3D_sample_handle(ms_pProviderDefault->hProvider);

  00015	a1 00 00 00 00	 mov	 eax, DWORD PTR ?ms_pProviderDefault@CSoundBase@@1PAUSProvider@@A ; CSoundBase::ms_pProviderDefault
  0001a	ff 70 04	 push	 DWORD PTR [eax+4]
  0001d	ff 15 00 00 00
	00		 call	 DWORD PTR __imp__AIL_allocate_3D_sample_handle@4
  00023	8b 4d f8	 mov	 ecx, DWORD PTR _this$[ebp]
  00026	89 41 04	 mov	 DWORD PTR [ecx+4], eax

; 31   : 	return m_sample ? true : false;

  00029	8b 45 f8	 mov	 eax, DWORD PTR _this$[ebp]
  0002c	83 78 04 00	 cmp	 DWORD PTR [eax+4], 0
  00030	74 06		 je	 SHORT $LN4@Initialize
  00032	c6 45 ff 01	 mov	 BYTE PTR tv72[ebp], 1
  00036	eb 04		 jmp	 SHORT $LN5@Initialize
$LN4@Initialize:
  00038	c6 45 ff 00	 mov	 BYTE PTR tv72[ebp], 0
$LN5@Initialize:
  0003c	8a 45 ff	 mov	 al, BYTE PTR tv72[ebp]
$LN1@Initialize:

; 32   : }

  0003f	c9		 leave
  00040	c3		 ret	 0
?Initialize@CSoundInstance3D@@UAE_NXZ ENDP		; CSoundInstance3D::Initialize
_TEXT	ENDS
; Function compile flags: /Odspy
; File D:\Metin2 Server Files\mainline\SRC_2014\Metin2Client\MilesLib\SoundInstance3D.cpp
; File D:\Metin2 Server Files\mainline\SRC_2014\Metin2Client\MilesLib\SoundInstance.h
; File D:\Metin2 Server Files\mainline\SRC_2014\Metin2Client\MilesLib\SoundInstance3D.cpp
;	COMDAT ??1CSoundInstance3D@@UAE@XZ
_TEXT	SEGMENT
_this$ = -16						; size = 4
__$EHRec$ = -12						; size = 12
??1CSoundInstance3D@@UAE@XZ PROC			; CSoundInstance3D::~CSoundInstance3D, COMDAT
; _this$ = ecx

; 10   : {

  00000	55		 push	 ebp
  00001	8b ec		 mov	 ebp, esp
  00003	6a ff		 push	 -1
  00005	68 00 00 00 00	 push	 __ehhandler$??1CSoundInstance3D@@UAE@XZ
  0000a	64 a1 00 00 00
	00		 mov	 eax, DWORD PTR fs:0
  00010	50		 push	 eax
  00011	51		 push	 ecx
  00012	a1 00 00 00 00	 mov	 eax, DWORD PTR ___security_cookie
  00017	33 c5		 xor	 eax, ebp
  00019	50		 push	 eax
  0001a	8d 45 f4	 lea	 eax, DWORD PTR __$EHRec$[ebp]
  0001d	64 a3 00 00 00
	00		 mov	 DWORD PTR fs:0, eax
  00023	89 4d f0	 mov	 DWORD PTR _this$[ebp], ecx
  00026	8b 45 f0	 mov	 eax, DWORD PTR _this$[ebp]
  00029	c7 00 00 00 00
	00		 mov	 DWORD PTR [eax], OFFSET ??_7CSoundInstance3D@@6B@

; 11   : 	Destroy();

  0002f	8b 4d f0	 mov	 ecx, DWORD PTR _this$[ebp]
  00032	e8 00 00 00 00	 call	 ?Destroy@CSoundInstance3D@@UAEXXZ ; CSoundInstance3D::Destroy
; File D:\Metin2 Server Files\mainline\SRC_2014\Metin2Client\MilesLib\SoundInstance.h

; 10   : 	virtual ~ISoundInstance() {}

  00037	8b 45 f0	 mov	 eax, DWORD PTR _this$[ebp]
  0003a	c7 00 00 00 00
	00		 mov	 DWORD PTR [eax], OFFSET ??_7ISoundInstance@@6B@
  00040	8b 4d f0	 mov	 ecx, DWORD PTR _this$[ebp]
  00043	e8 00 00 00 00	 call	 ??1CSoundBase@@UAE@XZ	; CSoundBase::~CSoundBase
; File D:\Metin2 Server Files\mainline\SRC_2014\Metin2Client\MilesLib\SoundInstance3D.cpp

; 12   : }

  00048	8b 4d f4	 mov	 ecx, DWORD PTR __$EHRec$[ebp]
  0004b	64 89 0d 00 00
	00 00		 mov	 DWORD PTR fs:0, ecx
  00052	59		 pop	 ecx
  00053	c9		 leave
  00054	c3		 ret	 0
  00055	cc		 int	 3
  00056	cc		 int	 3
  00057	cc		 int	 3
  00058	cc		 int	 3
  00059	cc		 int	 3
_TEXT	ENDS
;	COMDAT text$x
text$x	SEGMENT
__ehhandler$??1CSoundInstance3D@@UAE@XZ:
  00000	90		 npad	 1
  00001	90		 npad	 1
  00002	8b 54 24 08	 mov	 edx, DWORD PTR [esp+8]
  00006	8d 42 0c	 lea	 eax, DWORD PTR [edx+12]
  00009	8b 4a f8	 mov	 ecx, DWORD PTR [edx-8]
  0000c	33 c8		 xor	 ecx, eax
  0000e	e8 00 00 00 00	 call	 @__security_check_cookie@4
  00013	b8 00 00 00 00	 mov	 eax, OFFSET __ehfuncinfo$??1CSoundInstance3D@@UAE@XZ
  00018	e9 00 00 00 00	 jmp	 ___CxxFrameHandler3
text$x	ENDS
??1CSoundInstance3D@@UAE@XZ ENDP			; CSoundInstance3D::~CSoundInstance3D
; Function compile flags: /Odspy
; File D:\Metin2 Server Files\mainline\SRC_2014\Metin2Client\MilesLib\SoundInstance3D.cpp
; File D:\Metin2 Server Files\mainline\SRC_2014\Metin2Client\MilesLib\SoundInstance.h
; File D:\Metin2 Server Files\mainline\SRC_2014\Metin2Client\MilesLib\SoundInstance3D.cpp
;	COMDAT ??0CSoundInstance3D@@QAE@XZ
_TEXT	SEGMENT
_this$ = -4						; size = 4
??0CSoundInstance3D@@QAE@XZ PROC			; CSoundInstance3D::CSoundInstance3D, COMDAT
; _this$ = ecx

; 6    : {

  00000	55		 push	 ebp
  00001	8b ec		 mov	 ebp, esp
  00003	51		 push	 ecx
  00004	89 4d fc	 mov	 DWORD PTR _this$[ebp], ecx
; File D:\Metin2 Server Files\mainline\SRC_2014\Metin2Client\MilesLib\SoundInstance.h

; 9    : 	ISoundInstance() {}

  00007	8b 4d fc	 mov	 ecx, DWORD PTR _this$[ebp]
  0000a	e8 00 00 00 00	 call	 ??0CSoundBase@@QAE@XZ	; CSoundBase::CSoundBase
  0000f	8b 45 fc	 mov	 eax, DWORD PTR _this$[ebp]
  00012	c7 00 00 00 00
	00		 mov	 DWORD PTR [eax], OFFSET ??_7ISoundInstance@@6B@
; File D:\Metin2 Server Files\mainline\SRC_2014\Metin2Client\MilesLib\SoundInstance3D.cpp

; 6    : {

  00018	8b 45 fc	 mov	 eax, DWORD PTR _this$[ebp]
  0001b	c7 00 00 00 00
	00		 mov	 DWORD PTR [eax], OFFSET ??_7CSoundInstance3D@@6B@

; 5    : CSoundInstance3D::CSoundInstance3D() : m_sample(NULL), m_pSoundData(NULL)

  00021	8b 45 fc	 mov	 eax, DWORD PTR _this$[ebp]
  00024	83 60 04 00	 and	 DWORD PTR [eax+4], 0
  00028	8b 45 fc	 mov	 eax, DWORD PTR _this$[ebp]
  0002b	83 60 08 00	 and	 DWORD PTR [eax+8], 0

; 7    : }

  0002f	8b 45 fc	 mov	 eax, DWORD PTR _this$[ebp]
  00032	c9		 leave
  00033	c3		 ret	 0
??0CSoundInstance3D@@QAE@XZ ENDP			; CSoundInstance3D::CSoundInstance3D
_TEXT	ENDS
; Function compile flags: /Odspy
; File D:\Metin2 Server Files\mainline\SRC_2014\Metin2Client\MilesLib\SoundInstance.h
;	COMDAT ??_GISoundInstance@@UAEPAXI@Z
_TEXT	SEGMENT
_this$ = -4						; size = 4
___flags$ = 8						; size = 4
??_GISoundInstance@@UAEPAXI@Z PROC			; ISoundInstance::`scalar deleting destructor', COMDAT
; _this$ = ecx
  00000	55		 push	 ebp
  00001	8b ec		 mov	 ebp, esp
  00003	51		 push	 ecx
  00004	89 4d fc	 mov	 DWORD PTR _this$[ebp], ecx

; 10   : 	virtual ~ISoundInstance() {}

  00007	8b 45 fc	 mov	 eax, DWORD PTR _this$[ebp]
  0000a	c7 00 00 00 00
	00		 mov	 DWORD PTR [eax], OFFSET ??_7ISoundInstance@@6B@
  00010	8b 4d fc	 mov	 ecx, DWORD PTR _this$[ebp]
  00013	e8 00 00 00 00	 call	 ??1CSoundBase@@UAE@XZ	; CSoundBase::~CSoundBase
  00018	8b 45 08	 mov	 eax, DWORD PTR ___flags$[ebp]
  0001b	83 e0 01	 and	 eax, 1
  0001e	74 0c		 je	 SHORT $LN2@scalar
  00020	6a 04		 push	 4
  00022	ff 75 fc	 push	 DWORD PTR _this$[ebp]
  00025	e8 00 00 00 00	 call	 ??3@YAXPAXI@Z		; operator delete
  0002a	59		 pop	 ecx
  0002b	59		 pop	 ecx
$LN2@scalar:
  0002c	8b 45 fc	 mov	 eax, DWORD PTR _this$[ebp]
  0002f	c9		 leave
  00030	c2 04 00	 ret	 4
??_GISoundInstance@@UAEPAXI@Z ENDP			; ISoundInstance::`scalar deleting destructor'
_TEXT	ENDS
END
