; Listing generated by Microsoft (R) Optimizing Compiler Version 19.28.29335.0 

	TITLE	D:\Metin2 Server Files\mainline\SRC_2014\Metin2Client\MilesLib\SoundManager.cpp
	.686P
	.XMM
	include listing.inc
	.model	flat

INCLUDELIB LIBCMT
INCLUDELIB OLDNAMES

PUBLIC	??0exception@std@@QAE@ABV01@@Z			; std::exception::exception
PUBLIC	?what@exception@std@@UBEPBDXZ			; std::exception::what
PUBLIC	??_Gexception@std@@UAEPAXI@Z			; std::exception::`scalar deleting destructor'
PUBLIC	??0bad_alloc@std@@QAE@ABV01@@Z			; std::bad_alloc::bad_alloc
PUBLIC	??_Gbad_alloc@std@@UAEPAXI@Z			; std::bad_alloc::`scalar deleting destructor'
PUBLIC	??0bad_array_new_length@std@@QAE@XZ		; std::bad_array_new_length::bad_array_new_length
PUBLIC	??1bad_array_new_length@std@@UAE@XZ		; std::bad_array_new_length::~bad_array_new_length
PUBLIC	??0bad_array_new_length@std@@QAE@ABV01@@Z	; std::bad_array_new_length::bad_array_new_length
PUBLIC	??_Gbad_array_new_length@std@@UAEPAXI@Z		; std::bad_array_new_length::`scalar deleting destructor'
PUBLIC	?_Throw_bad_array_new_length@std@@YAXXZ		; std::_Throw_bad_array_new_length
PUBLIC	?_Adjust_manually_vector_aligned@std@@YAXAAPAXAAI@Z ; std::_Adjust_manually_vector_aligned
PUBLIC	?_Xlen_string@std@@YAXXZ			; std::_Xlen_string
PUBLIC	??0?$_String_val@U?$_Simple_types@D@std@@@std@@QAE@XZ ; std::_String_val<std::_Simple_types<char> >::_String_val<std::_Simple_types<char> >
PUBLIC	?_Myptr@?$_String_val@U?$_Simple_types@D@std@@@std@@QAEPADXZ ; std::_String_val<std::_Simple_types<char> >::_Myptr
PUBLIC	?_Myptr@?$_String_val@U?$_Simple_types@D@std@@@std@@QBEPBDXZ ; std::_String_val<std::_Simple_types<char> >::_Myptr
PUBLIC	??0?$basic_string@DU?$char_traits@D@std@@V?$allocator@D@2@@std@@QAE@ABV01@@Z ; std::basic_string<char,std::char_traits<char>,std::allocator<char> >::basic_string<char,std::char_traits<char>,std::allocator<char> >
PUBLIC	??0?$basic_string@DU?$char_traits@D@std@@V?$allocator@D@2@@std@@QAE@XZ ; std::basic_string<char,std::char_traits<char>,std::allocator<char> >::basic_string<char,std::char_traits<char>,std::allocator<char> >
PUBLIC	??0?$basic_string@DU?$char_traits@D@std@@V?$allocator@D@2@@std@@QAE@QBD@Z ; std::basic_string<char,std::char_traits<char>,std::allocator<char> >::basic_string<char,std::char_traits<char>,std::allocator<char> >
PUBLIC	?_Construct_lv_contents@?$basic_string@DU?$char_traits@D@std@@V?$allocator@D@2@@std@@AAEXABV12@@Z ; std::basic_string<char,std::char_traits<char>,std::allocator<char> >::_Construct_lv_contents
PUBLIC	??1?$basic_string@DU?$char_traits@D@std@@V?$allocator@D@2@@std@@QAE@XZ ; std::basic_string<char,std::char_traits<char>,std::allocator<char> >::~basic_string<char,std::char_traits<char>,std::allocator<char> >
PUBLIC	?assign@?$basic_string@DU?$char_traits@D@std@@V?$allocator@D@2@@std@@QAEAAV12@QBDI@Z ; std::basic_string<char,std::char_traits<char>,std::allocator<char> >::assign
PUBLIC	?c_str@?$basic_string@DU?$char_traits@D@std@@V?$allocator@D@2@@std@@QBEPBDXZ ; std::basic_string<char,std::char_traits<char>,std::allocator<char> >::c_str
PUBLIC	?max_size@?$basic_string@DU?$char_traits@D@std@@V?$allocator@D@2@@std@@QBEIXZ ; std::basic_string<char,std::char_traits<char>,std::allocator<char> >::max_size
PUBLIC	?compare@?$basic_string@DU?$char_traits@D@std@@V?$allocator@D@2@@std@@QBEHABV12@@Z ; std::basic_string<char,std::char_traits<char>,std::allocator<char> >::compare
PUBLIC	?_Calculate_growth@?$basic_string@DU?$char_traits@D@std@@V?$allocator@D@2@@std@@ABEII@Z ; std::basic_string<char,std::char_traits<char>,std::allocator<char> >::_Calculate_growth
PUBLIC	?_Tidy_init@?$basic_string@DU?$char_traits@D@std@@V?$allocator@D@2@@std@@AAEXXZ ; std::basic_string<char,std::char_traits<char>,std::allocator<char> >::_Tidy_init
PUBLIC	?_Tidy_deallocate@?$basic_string@DU?$char_traits@D@std@@V?$allocator@D@2@@std@@AAEXXZ ; std::basic_string<char,std::char_traits<char>,std::allocator<char> >::_Tidy_deallocate
PUBLIC	??1?$_Compressed_pair@V?$allocator@D@std@@V?$_String_val@U?$_Simple_types@D@std@@@2@$00@std@@QAE@XZ ; std::_Compressed_pair<std::allocator<char>,std::_String_val<std::_Simple_types<char> >,1>::~_Compressed_pair<std::allocator<char>,std::_String_val<std::_Simple_types<char> >,1>
PUBLIC	?_Throw_tree_length_error@std@@YAXXZ		; std::_Throw_tree_length_error
PUBLIC	??1?$CSingleton@VCSoundManager@@@@UAE@XZ	; CSingleton<CSoundManager>::~CSingleton<CSoundManager>
PUBLIC	??_G?$CSingleton@VCSoundManager@@@@UAEPAXI@Z	; CSingleton<CSoundManager>::`scalar deleting destructor'
PUBLIC	??0CSoundManager@@QAE@XZ			; CSoundManager::CSoundManager
PUBLIC	??1CSoundManager@@UAE@XZ			; CSoundManager::~CSoundManager
PUBLIC	?Create@CSoundManager@@QAEHXZ			; CSoundManager::Create
PUBLIC	?Destroy@CSoundManager@@QAEXXZ			; CSoundManager::Destroy
PUBLIC	?SetPosition@CSoundManager@@QAEXMMM@Z		; CSoundManager::SetPosition
PUBLIC	?SetDirection@CSoundManager@@QAEXMMMMMM@Z	; CSoundManager::SetDirection
PUBLIC	?Update@CSoundManager@@QAEXXZ			; CSoundManager::Update
PUBLIC	?GetSoundScale@CSoundManager@@QAEMXZ		; CSoundManager::GetSoundScale
PUBLIC	?SetSoundScale@CSoundManager@@QAEXM@Z		; CSoundManager::SetSoundScale
PUBLIC	?SetAmbienceSoundScale@CSoundManager@@QAEXM@Z	; CSoundManager::SetAmbienceSoundScale
PUBLIC	?SetSoundVolume@CSoundManager@@QAEXM@Z		; CSoundManager::SetSoundVolume
PUBLIC	?SetSoundVolumeRatio@CSoundManager@@QAEXM@Z	; CSoundManager::SetSoundVolumeRatio
PUBLIC	?SetMusicVolume@CSoundManager@@QAEXM@Z		; CSoundManager::SetMusicVolume
PUBLIC	?SetSoundVolumeGrade@CSoundManager@@QAEXH@Z	; CSoundManager::SetSoundVolumeGrade
PUBLIC	?SaveVolume@CSoundManager@@QAEXXZ		; CSoundManager::SaveVolume
PUBLIC	?RestoreVolume@CSoundManager@@QAEXXZ		; CSoundManager::RestoreVolume
PUBLIC	?GetSoundVolume@CSoundManager@@QAEMXZ		; CSoundManager::GetSoundVolume
PUBLIC	?GetMusicVolume@CSoundManager@@QAEMXZ		; CSoundManager::GetMusicVolume
PUBLIC	?PlaySound2D@CSoundManager@@QAEXPBD@Z		; CSoundManager::PlaySound2D
PUBLIC	?PlaySound3D@CSoundManager@@QAEXMMMPBDH@Z	; CSoundManager::PlaySound3D
PUBLIC	?StopSound3D@CSoundManager@@QAEXH@Z		; CSoundManager::StopSound3D
PUBLIC	?PlayAmbienceSound3D@CSoundManager@@QAEHMMMPBDH@Z ; CSoundManager::PlayAmbienceSound3D
PUBLIC	?PlayCharacterSound3D@CSoundManager@@QAEXMMMPBDH@Z ; CSoundManager::PlayCharacterSound3D
PUBLIC	?SetSoundVolume3D@CSoundManager@@QAEXHM@Z	; CSoundManager::SetSoundVolume3D
PUBLIC	?StopAllSound3D@CSoundManager@@QAEXXZ		; CSoundManager::StopAllSound3D
PUBLIC	?PlayMusic@CSoundManager@@QAEXPBD@Z		; CSoundManager::PlayMusic
PUBLIC	?FadeInMusic@CSoundManager@@QAEXPBDM@Z		; CSoundManager::FadeInMusic
PUBLIC	?FadeOutMusic@CSoundManager@@QAEXPBDM@Z		; CSoundManager::FadeOutMusic
PUBLIC	?FadeLimitOutMusic@CSoundManager@@QAEXPBDMM@Z	; CSoundManager::FadeLimitOutMusic
PUBLIC	?FadeOutAllMusic@CSoundManager@@QAEXXZ		; CSoundManager::FadeOutAllMusic
PUBLIC	?FadeAll@CSoundManager@@QAEXXZ			; CSoundManager::FadeAll
PUBLIC	?UpdateSoundData@CSoundManager@@QAEXKPBV?$vector@USSoundData@NSound@@V?$allocator@USSoundData@NSound@@@std@@@std@@@Z ; CSoundManager::UpdateSoundData
PUBLIC	?UpdateSoundData@CSoundManager@@QAEXMMMKPBV?$vector@USSoundData@NSound@@V?$allocator@USSoundData@NSound@@@std@@@std@@@Z ; CSoundManager::UpdateSoundData
PUBLIC	?UpdateSoundInstance@CSoundManager@@QAEXMMMKPBV?$vector@USSoundInstance@NSound@@V?$allocator@USSoundInstance@NSound@@@std@@@std@@H@Z ; CSoundManager::UpdateSoundInstance
PUBLIC	?UpdateSoundInstance@CSoundManager@@QAEXKPBV?$vector@USSoundInstance@NSound@@V?$allocator@USSoundInstance@NSound@@@std@@@std@@@Z ; CSoundManager::UpdateSoundInstance
PUBLIC	?PlayMusic@CSoundManager@@IAEXKPBDMM@Z		; CSoundManager::PlayMusic
PUBLIC	?StopMusic@CSoundManager@@IAEXK@Z		; CSoundManager::StopMusic
PUBLIC	?GetMusicIndex@CSoundManager@@IAEHPBDPAK@Z	; CSoundManager::GetMusicIndex
PUBLIC	?__ConvertGradeVolumeToApplyVolume@CSoundManager@@IAEMH@Z ; CSoundManager::__ConvertGradeVolumeToApplyVolume
PUBLIC	?__ConvertRatioVolumeToApplyVolume@CSoundManager@@IAEMM@Z ; CSoundManager::__ConvertRatioVolumeToApplyVolume
PUBLIC	?__SetMusicVolume@CSoundManager@@IAEXM@Z	; CSoundManager::__SetMusicVolume
PUBLIC	?GetSoundInstance2D@CSoundManager@@IAEHPBDPAPAVISoundInstance@@@Z ; CSoundManager::GetSoundInstance2D
PUBLIC	?GetSoundInstance3D@CSoundManager@@IAEHPBDPAPAVISoundInstance@@@Z ; CSoundManager::GetSoundInstance3D
PUBLIC	??0?$_Tree@V?$_Tmap_traits@V?$basic_string@DU?$char_traits@D@std@@V?$allocator@D@2@@std@@MU?$less@V?$basic_string@DU?$char_traits@D@std@@V?$allocator@D@2@@std@@@2@V?$allocator@U?$pair@$$CBV?$basic_string@DU?$char_traits@D@std@@V?$allocator@D@2@@std@@M@std@@@2@$0A@@std@@@std@@QAE@ABU?$less@V?$basic_string@DU?$char_traits@D@std@@V?$allocator@D@2@@std@@@1@@Z ; std::_Tree<std::_Tmap_traits<std::basic_string<char,std::char_traits<char>,std::allocator<char> >,float,std::less<std::basic_string<char,std::char_traits<char>,std::allocator<char> > >,std::allocator<std::pair<std::basic_string<char,std::char_traits<char>,std::allocator<char> > const ,float> >,0> >::_Tree<std::_Tmap_traits<std::basic_string<char,std::char_traits<char>,std::allocator<char> >,float,std::less<std::basic_string<char,std::char_traits<char>,std::allocator<char> > >,std::allocator<std::pair<std::basic_string<char,std::char_traits<char>,std::allocator<char> > const ,float> >,0> >
PUBLIC	??1?$_Tree@V?$_Tmap_traits@V?$basic_string@DU?$char_traits@D@std@@V?$allocator@D@2@@std@@MU?$less@V?$basic_string@DU?$char_traits@D@std@@V?$allocator@D@2@@std@@@2@V?$allocator@U?$pair@$$CBV?$basic_string@DU?$char_traits@D@std@@V?$allocator@D@2@@std@@M@std@@@2@$0A@@std@@@std@@QAE@XZ ; std::_Tree<std::_Tmap_traits<std::basic_string<char,std::char_traits<char>,std::allocator<char> >,float,std::less<std::basic_string<char,std::char_traits<char>,std::allocator<char> > >,std::allocator<std::pair<std::basic_string<char,std::char_traits<char>,std::allocator<char> > const ,float> >,0> >::~_Tree<std::_Tmap_traits<std::basic_string<char,std::char_traits<char>,std::allocator<char> >,float,std::less<std::basic_string<char,std::char_traits<char>,std::allocator<char> > >,std::allocator<std::pair<std::basic_string<char,std::char_traits<char>,std::allocator<char> > const ,float> >,0> >
PUBLIC	?max_size@?$_Tree@V?$_Tmap_traits@V?$basic_string@DU?$char_traits@D@std@@V?$allocator@D@2@@std@@MU?$less@V?$basic_string@DU?$char_traits@D@std@@V?$allocator@D@2@@std@@@2@V?$allocator@U?$pair@$$CBV?$basic_string@DU?$char_traits@D@std@@V?$allocator@D@2@@std@@M@std@@@2@$0A@@std@@@std@@QBEIXZ ; std::_Tree<std::_Tmap_traits<std::basic_string<char,std::char_traits<char>,std::allocator<char> >,float,std::less<std::basic_string<char,std::char_traits<char>,std::allocator<char> > >,std::allocator<std::pair<std::basic_string<char,std::char_traits<char>,std::allocator<char> > const ,float> >,0> >::max_size
PUBLIC	?_Erase_unchecked@?$_Tree@V?$_Tmap_traits@V?$basic_string@DU?$char_traits@D@std@@V?$allocator@D@2@@std@@MU?$less@V?$basic_string@DU?$char_traits@D@std@@V?$allocator@D@2@@std@@@2@V?$allocator@U?$pair@$$CBV?$basic_string@DU?$char_traits@D@std@@V?$allocator@D@2@@std@@M@std@@@2@$0A@@std@@@std@@AAEPAU?$_Tree_node@U?$pair@$$CBV?$basic_string@DU?$char_traits@D@std@@V?$allocator@D@2@@std@@M@std@@PAX@2@V?$_Tree_unchecked_const_iterator@V?$_Tree_val@U?$_Tree_simple_types@U?$pair@$$CBV?$basic_string@DU?$char_traits@D@std@@V?$allocator@D@2@@std@@M@std@@@std@@@std@@U_Iterator_base0@2@@2@@Z ; std::_Tree<std::_Tmap_traits<std::basic_string<char,std::char_traits<char>,std::allocator<char> >,float,std::less<std::basic_string<char,std::char_traits<char>,std::allocator<char> > >,std::allocator<std::pair<std::basic_string<char,std::char_traits<char>,std::allocator<char> > const ,float> >,0> >::_Erase_unchecked
PUBLIC	?_Erase_unchecked@?$_Tree@V?$_Tmap_traits@V?$basic_string@DU?$char_traits@D@std@@V?$allocator@D@2@@std@@MU?$less@V?$basic_string@DU?$char_traits@D@std@@V?$allocator@D@2@@std@@@2@V?$allocator@U?$pair@$$CBV?$basic_string@DU?$char_traits@D@std@@V?$allocator@D@2@@std@@M@std@@@2@$0A@@std@@@std@@AAEPAU?$_Tree_node@U?$pair@$$CBV?$basic_string@DU?$char_traits@D@std@@V?$allocator@D@2@@std@@M@std@@PAX@2@V?$_Tree_unchecked_const_iterator@V?$_Tree_val@U?$_Tree_simple_types@U?$pair@$$CBV?$basic_string@DU?$char_traits@D@std@@V?$allocator@D@2@@std@@M@std@@@std@@@std@@U_Iterator_base0@2@@2@0@Z ; std::_Tree<std::_Tmap_traits<std::basic_string<char,std::char_traits<char>,std::allocator<char> >,float,std::less<std::basic_string<char,std::char_traits<char>,std::allocator<char> > >,std::allocator<std::pair<std::basic_string<char,std::char_traits<char>,std::allocator<char> > const ,float> >,0> >::_Erase_unchecked
PUBLIC	?erase@?$_Tree@V?$_Tmap_traits@V?$basic_string@DU?$char_traits@D@std@@V?$allocator@D@2@@std@@MU?$less@V?$basic_string@DU?$char_traits@D@std@@V?$allocator@D@2@@std@@@2@V?$allocator@U?$pair@$$CBV?$basic_string@DU?$char_traits@D@std@@V?$allocator@D@2@@std@@M@std@@@2@$0A@@std@@@std@@QAEIABV?$basic_string@DU?$char_traits@D@std@@V?$allocator@D@2@@2@@Z ; std::_Tree<std::_Tmap_traits<std::basic_string<char,std::char_traits<char>,std::allocator<char> >,float,std::less<std::basic_string<char,std::char_traits<char>,std::allocator<char> > >,std::allocator<std::pair<std::basic_string<char,std::char_traits<char>,std::allocator<char> > const ,float> >,0> >::erase
PUBLIC	?clear@?$_Tree@V?$_Tmap_traits@V?$basic_string@DU?$char_traits@D@std@@V?$allocator@D@2@@std@@MU?$less@V?$basic_string@DU?$char_traits@D@std@@V?$allocator@D@2@@std@@@2@V?$allocator@U?$pair@$$CBV?$basic_string@DU?$char_traits@D@std@@V?$allocator@D@2@@std@@M@std@@@2@$0A@@std@@@std@@QAEXXZ ; std::_Tree<std::_Tmap_traits<std::basic_string<char,std::char_traits<char>,std::allocator<char> >,float,std::less<std::basic_string<char,std::char_traits<char>,std::allocator<char> > >,std::allocator<std::pair<std::basic_string<char,std::char_traits<char>,std::allocator<char> > const ,float> >,0> >::clear
PUBLIC	?find@?$_Tree@V?$_Tmap_traits@V?$basic_string@DU?$char_traits@D@std@@V?$allocator@D@2@@std@@MU?$less@V?$basic_string@DU?$char_traits@D@std@@V?$allocator@D@2@@std@@@2@V?$allocator@U?$pair@$$CBV?$basic_string@DU?$char_traits@D@std@@V?$allocator@D@2@@std@@M@std@@@2@$0A@@std@@@std@@QAE?AV?$_Tree_iterator@V?$_Tree_val@U?$_Tree_simple_types@U?$pair@$$CBV?$basic_string@DU?$char_traits@D@std@@V?$allocator@D@2@@std@@M@std@@@std@@@std@@@2@ABV?$basic_string@DU?$char_traits@D@std@@V?$allocator@D@2@@2@@Z ; std::_Tree<std::_Tmap_traits<std::basic_string<char,std::char_traits<char>,std::allocator<char> >,float,std::less<std::basic_string<char,std::char_traits<char>,std::allocator<char> > >,std::allocator<std::pair<std::basic_string<char,std::char_traits<char>,std::allocator<char> > const ,float> >,0> >::find
PUBLIC	?_Check_grow_by_1@?$_Tree@V?$_Tmap_traits@V?$basic_string@DU?$char_traits@D@std@@V?$allocator@D@2@@std@@MU?$less@V?$basic_string@DU?$char_traits@D@std@@V?$allocator@D@2@@std@@@2@V?$allocator@U?$pair@$$CBV?$basic_string@DU?$char_traits@D@std@@V?$allocator@D@2@@std@@M@std@@@2@$0A@@std@@@std@@IAEXXZ ; std::_Tree<std::_Tmap_traits<std::basic_string<char,std::char_traits<char>,std::allocator<char> >,float,std::less<std::basic_string<char,std::char_traits<char>,std::allocator<char> > >,std::allocator<std::pair<std::basic_string<char,std::char_traits<char>,std::allocator<char> > const ,float> >,0> >::_Check_grow_by_1
PUBLIC	?_Alloc_sentinel_and_proxy@?$_Tree@V?$_Tmap_traits@V?$basic_string@DU?$char_traits@D@std@@V?$allocator@D@2@@std@@MU?$less@V?$basic_string@DU?$char_traits@D@std@@V?$allocator@D@2@@std@@@2@V?$allocator@U?$pair@$$CBV?$basic_string@DU?$char_traits@D@std@@V?$allocator@D@2@@std@@M@std@@@2@$0A@@std@@@std@@IAEXXZ ; std::_Tree<std::_Tmap_traits<std::basic_string<char,std::char_traits<char>,std::allocator<char> >,float,std::less<std::basic_string<char,std::char_traits<char>,std::allocator<char> > >,std::allocator<std::pair<std::basic_string<char,std::char_traits<char>,std::allocator<char> > const ,float> >,0> >::_Alloc_sentinel_and_proxy
PUBLIC	?_Lrotate@?$_Tree_val@U?$_Tree_simple_types@U?$pair@$$CBV?$basic_string@DU?$char_traits@D@std@@V?$allocator@D@2@@std@@M@std@@@std@@@std@@QAEXPAU?$_Tree_node@U?$pair@$$CBV?$basic_string@DU?$char_traits@D@std@@V?$allocator@D@2@@std@@M@std@@PAX@2@@Z ; std::_Tree_val<std::_Tree_simple_types<std::pair<std::basic_string<char,std::char_traits<char>,std::allocator<char> > const ,float> > >::_Lrotate
PUBLIC	?_Rrotate@?$_Tree_val@U?$_Tree_simple_types@U?$pair@$$CBV?$basic_string@DU?$char_traits@D@std@@V?$allocator@D@2@@std@@M@std@@@std@@@std@@QAEXPAU?$_Tree_node@U?$pair@$$CBV?$basic_string@DU?$char_traits@D@std@@V?$allocator@D@2@@std@@M@std@@PAX@2@@Z ; std::_Tree_val<std::_Tree_simple_types<std::pair<std::basic_string<char,std::char_traits<char>,std::allocator<char> > const ,float> > >::_Rrotate
PUBLIC	?_Extract@?$_Tree_val@U?$_Tree_simple_types@U?$pair@$$CBV?$basic_string@DU?$char_traits@D@std@@V?$allocator@D@2@@std@@M@std@@@std@@@std@@QAEPAU?$_Tree_node@U?$pair@$$CBV?$basic_string@DU?$char_traits@D@std@@V?$allocator@D@2@@std@@M@std@@PAX@2@V?$_Tree_unchecked_const_iterator@V?$_Tree_val@U?$_Tree_simple_types@U?$pair@$$CBV?$basic_string@DU?$char_traits@D@std@@V?$allocator@D@2@@std@@M@std@@@std@@@std@@U_Iterator_base0@2@@2@@Z ; std::_Tree_val<std::_Tree_simple_types<std::pair<std::basic_string<char,std::char_traits<char>,std::allocator<char> > const ,float> > >::_Extract
PUBLIC	?_Insert_node@?$_Tree_val@U?$_Tree_simple_types@U?$pair@$$CBV?$basic_string@DU?$char_traits@D@std@@V?$allocator@D@2@@std@@M@std@@@std@@@std@@QAEPAU?$_Tree_node@U?$pair@$$CBV?$basic_string@DU?$char_traits@D@std@@V?$allocator@D@2@@std@@M@std@@PAX@2@U?$_Tree_id@PAU?$_Tree_node@U?$pair@$$CBV?$basic_string@DU?$char_traits@D@std@@V?$allocator@D@2@@std@@M@std@@PAX@std@@@2@QAU32@@Z ; std::_Tree_val<std::_Tree_simple_types<std::pair<std::basic_string<char,std::char_traits<char>,std::allocator<char> > const ,float> > >::_Insert_node
PUBLIC	??_GCSoundManager@@UAEPAXI@Z			; CSoundManager::`scalar deleting destructor'
PUBLIC	?at@?$vector@USSoundInstance@NSound@@V?$allocator@USSoundInstance@NSound@@@std@@@std@@QBEABUSSoundInstance@NSound@@I@Z ; std::vector<NSound::SSoundInstance,std::allocator<NSound::SSoundInstance> >::at
PUBLIC	?_Xrange@?$vector@USSoundInstance@NSound@@V?$allocator@USSoundInstance@NSound@@@std@@@std@@CAXXZ ; std::vector<NSound::SSoundInstance,std::allocator<NSound::SSoundInstance> >::_Xrange
PUBLIC	??E?$_Tree_unchecked_const_iterator@V?$_Tree_val@U?$_Tree_simple_types@U?$pair@$$CBV?$basic_string@DU?$char_traits@D@std@@V?$allocator@D@2@@std@@M@std@@@std@@@std@@U_Iterator_base0@2@@std@@QAEAAV01@XZ ; std::_Tree_unchecked_const_iterator<std::_Tree_val<std::_Tree_simple_types<std::pair<std::basic_string<char,std::char_traits<char>,std::allocator<char> > const ,float> > >,std::_Iterator_base0>::operator++
PUBLIC	??1?$pair@$$CBV?$basic_string@DU?$char_traits@D@std@@V?$allocator@D@2@@std@@M@std@@QAE@XZ ; std::pair<std::basic_string<char,std::char_traits<char>,std::allocator<char> > const ,float>::~pair<std::basic_string<char,std::char_traits<char>,std::allocator<char> > const ,float>
PUBLIC	??$_Eqrange@V?$basic_string@DU?$char_traits@D@std@@V?$allocator@D@2@@std@@@?$_Tree@V?$_Tmap_traits@V?$basic_string@DU?$char_traits@D@std@@V?$allocator@D@2@@std@@MU?$less@V?$basic_string@DU?$char_traits@D@std@@V?$allocator@D@2@@std@@@2@V?$allocator@U?$pair@$$CBV?$basic_string@DU?$char_traits@D@std@@V?$allocator@D@2@@std@@M@std@@@2@$0A@@std@@@std@@IBE?AU?$pair@PAU?$_Tree_node@U?$pair@$$CBV?$basic_string@DU?$char_traits@D@std@@V?$allocator@D@2@@std@@M@std@@PAX@std@@PAU12@@1@ABV?$basic_string@DU?$char_traits@D@std@@V?$allocator@D@2@@1@@Z ; std::_Tree<std::_Tmap_traits<std::basic_string<char,std::char_traits<char>,std::allocator<char> >,float,std::less<std::basic_string<char,std::char_traits<char>,std::allocator<char> > >,std::allocator<std::pair<std::basic_string<char,std::char_traits<char>,std::allocator<char> > const ,float> >,0> >::_Eqrange<std::basic_string<char,std::char_traits<char>,std::allocator<char> > >
PUBLIC	??$insert@$0A@$0A@@?$_Tree@V?$_Tmap_traits@V?$basic_string@DU?$char_traits@D@std@@V?$allocator@D@2@@std@@MU?$less@V?$basic_string@DU?$char_traits@D@std@@V?$allocator@D@2@@std@@@2@V?$allocator@U?$pair@$$CBV?$basic_string@DU?$char_traits@D@std@@V?$allocator@D@2@@std@@M@std@@@2@$0A@@std@@@std@@QAE?AU?$pair@V?$_Tree_iterator@V?$_Tree_val@U?$_Tree_simple_types@U?$pair@$$CBV?$basic_string@DU?$char_traits@D@std@@V?$allocator@D@2@@std@@M@std@@@std@@@std@@@std@@_N@1@$$QAU?$pair@$$CBV?$basic_string@DU?$char_traits@D@std@@V?$allocator@D@2@@std@@M@1@@Z ; std::_Tree<std::_Tmap_traits<std::basic_string<char,std::char_traits<char>,std::allocator<char> >,float,std::less<std::basic_string<char,std::char_traits<char>,std::allocator<char> > >,std::allocator<std::pair<std::basic_string<char,std::char_traits<char>,std::allocator<char> > const ,float> >,0> >::insert<0,0>
PUBLIC	??$_Find@V?$basic_string@DU?$char_traits@D@std@@V?$allocator@D@2@@std@@@?$_Tree@V?$_Tmap_traits@V?$basic_string@DU?$char_traits@D@std@@V?$allocator@D@2@@std@@MU?$less@V?$basic_string@DU?$char_traits@D@std@@V?$allocator@D@2@@std@@@2@V?$allocator@U?$pair@$$CBV?$basic_string@DU?$char_traits@D@std@@V?$allocator@D@2@@std@@M@std@@@2@$0A@@std@@@std@@ABEPAU?$_Tree_node@U?$pair@$$CBV?$basic_string@DU?$char_traits@D@std@@V?$allocator@D@2@@std@@M@std@@PAX@1@ABV?$basic_string@DU?$char_traits@D@std@@V?$allocator@D@2@@1@@Z ; std::_Tree<std::_Tmap_traits<std::basic_string<char,std::char_traits<char>,std::allocator<char> >,float,std::less<std::basic_string<char,std::char_traits<char>,std::allocator<char> > >,std::allocator<std::pair<std::basic_string<char,std::char_traits<char>,std::allocator<char> > const ,float> >,0> >::_Find<std::basic_string<char,std::char_traits<char>,std::allocator<char> > >
PUBLIC	??$distance@V?$_Tree_unchecked_const_iterator@V?$_Tree_val@U?$_Tree_simple_types@U?$pair@$$CBV?$basic_string@DU?$char_traits@D@std@@V?$allocator@D@2@@std@@M@std@@@std@@@std@@U_Iterator_base0@2@@std@@@std@@YAHV?$_Tree_unchecked_const_iterator@V?$_Tree_val@U?$_Tree_simple_types@U?$pair@$$CBV?$basic_string@DU?$char_traits@D@std@@V?$allocator@D@2@@std@@M@std@@@std@@@std@@U_Iterator_base0@2@@0@0@Z ; std::distance<std::_Tree_unchecked_const_iterator<std::_Tree_val<std::_Tree_simple_types<std::pair<std::basic_string<char,std::char_traits<char>,std::allocator<char> > const ,float> > >,std::_Iterator_base0> >
PUBLIC	??$_Destroy_in_place@PAD@std@@YAXAAPAD@Z	; std::_Destroy_in_place<char *>
PUBLIC	??$_Reallocate_for@V<lambda_9366063389c5f42a00a5088cf24e69de>@@PBD@?$basic_string@DU?$char_traits@D@std@@V?$allocator@D@2@@std@@AAEAAV01@IV<lambda_9366063389c5f42a00a5088cf24e69de>@@PBD@Z ; std::basic_string<char,std::char_traits<char>,std::allocator<char> >::_Reallocate_for<<lambda_9366063389c5f42a00a5088cf24e69de>,char const *>
PUBLIC	??$_Buyheadnode@V?$allocator@U?$_Tree_node@U?$pair@$$CBV?$basic_string@DU?$char_traits@D@std@@V?$allocator@D@2@@std@@M@std@@PAX@std@@@std@@@?$_Tree_node@U?$pair@$$CBV?$basic_string@DU?$char_traits@D@std@@V?$allocator@D@2@@std@@M@std@@PAX@std@@SAPAU01@AAV?$allocator@U?$_Tree_node@U?$pair@$$CBV?$basic_string@DU?$char_traits@D@std@@V?$allocator@D@2@@std@@M@std@@PAX@std@@@1@@Z ; std::_Tree_node<std::pair<std::basic_string<char,std::char_traits<char>,std::allocator<char> > const ,float>,void *>::_Buyheadnode<std::allocator<std::_Tree_node<std::pair<std::basic_string<char,std::char_traits<char>,std::allocator<char> > const ,float>,void *> > >
PUBLIC	??$_Erase_tree@V?$allocator@U?$_Tree_node@U?$pair@$$CBV?$basic_string@DU?$char_traits@D@std@@V?$allocator@D@2@@std@@M@std@@PAX@std@@@std@@@?$_Tree_val@U?$_Tree_simple_types@U?$pair@$$CBV?$basic_string@DU?$char_traits@D@std@@V?$allocator@D@2@@std@@M@std@@@std@@@std@@QAEXAAV?$allocator@U?$_Tree_node@U?$pair@$$CBV?$basic_string@DU?$char_traits@D@std@@V?$allocator@D@2@@std@@M@std@@PAX@std@@@1@PAU?$_Tree_node@U?$pair@$$CBV?$basic_string@DU?$char_traits@D@std@@V?$allocator@D@2@@std@@M@std@@PAX@1@@Z ; std::_Tree_val<std::_Tree_simple_types<std::pair<std::basic_string<char,std::char_traits<char>,std::allocator<char> > const ,float> > >::_Erase_tree<std::allocator<std::_Tree_node<std::pair<std::basic_string<char,std::char_traits<char>,std::allocator<char> > const ,float>,void *> > >
PUBLIC	??$_Freenode@V?$allocator@U?$_Tree_node@U?$pair@$$CBV?$basic_string@DU?$char_traits@D@std@@V?$allocator@D@2@@std@@M@std@@PAX@std@@@std@@@?$_Tree_node@U?$pair@$$CBV?$basic_string@DU?$char_traits@D@std@@V?$allocator@D@2@@std@@M@std@@PAX@std@@SAXAAV?$allocator@U?$_Tree_node@U?$pair@$$CBV?$basic_string@DU?$char_traits@D@std@@V?$allocator@D@2@@std@@M@std@@PAX@std@@@1@PAU01@@Z ; std::_Tree_node<std::pair<std::basic_string<char,std::char_traits<char>,std::allocator<char> > const ,float>,void *>::_Freenode<std::allocator<std::_Tree_node<std::pair<std::basic_string<char,std::char_traits<char>,std::allocator<char> > const ,float>,void *> > >
PUBLIC	??$_Deallocate@$07$0A@@std@@YAXPAXI@Z		; std::_Deallocate<8,0>
PUBLIC	??$_Emplace@U?$pair@$$CBV?$basic_string@DU?$char_traits@D@std@@V?$allocator@D@2@@std@@M@std@@@?$_Tree@V?$_Tmap_traits@V?$basic_string@DU?$char_traits@D@std@@V?$allocator@D@2@@std@@MU?$less@V?$basic_string@DU?$char_traits@D@std@@V?$allocator@D@2@@std@@@2@V?$allocator@U?$pair@$$CBV?$basic_string@DU?$char_traits@D@std@@V?$allocator@D@2@@std@@M@std@@@2@$0A@@std@@@std@@IAE?AU?$pair@PAU?$_Tree_node@U?$pair@$$CBV?$basic_string@DU?$char_traits@D@std@@V?$allocator@D@2@@std@@M@std@@PAX@std@@_N@1@$$QAU?$pair@$$CBV?$basic_string@DU?$char_traits@D@std@@V?$allocator@D@2@@std@@M@1@@Z ; std::_Tree<std::_Tmap_traits<std::basic_string<char,std::char_traits<char>,std::allocator<char> >,float,std::less<std::basic_string<char,std::char_traits<char>,std::allocator<char> > >,std::allocator<std::pair<std::basic_string<char,std::char_traits<char>,std::allocator<char> > const ,float> >,0> >::_Emplace<std::pair<std::basic_string<char,std::char_traits<char>,std::allocator<char> > const ,float> >
PUBLIC	??$_Find_lower_bound@V?$basic_string@DU?$char_traits@D@std@@V?$allocator@D@2@@std@@@?$_Tree@V?$_Tmap_traits@V?$basic_string@DU?$char_traits@D@std@@V?$allocator@D@2@@std@@MU?$less@V?$basic_string@DU?$char_traits@D@std@@V?$allocator@D@2@@std@@@2@V?$allocator@U?$pair@$$CBV?$basic_string@DU?$char_traits@D@std@@V?$allocator@D@2@@std@@M@std@@@2@$0A@@std@@@std@@IBE?AU?$_Tree_find_result@PAU?$_Tree_node@U?$pair@$$CBV?$basic_string@DU?$char_traits@D@std@@V?$allocator@D@2@@std@@M@std@@PAX@std@@@1@ABV?$basic_string@DU?$char_traits@D@std@@V?$allocator@D@2@@1@@Z ; std::_Tree<std::_Tmap_traits<std::basic_string<char,std::char_traits<char>,std::allocator<char> >,float,std::less<std::basic_string<char,std::char_traits<char>,std::allocator<char> > >,std::allocator<std::pair<std::basic_string<char,std::char_traits<char>,std::allocator<char> > const ,float> >,0> >::_Find_lower_bound<std::basic_string<char,std::char_traits<char>,std::allocator<char> > >
PUBLIC	??$_Lower_bound_duplicate@V?$basic_string@DU?$char_traits@D@std@@V?$allocator@D@2@@std@@@?$_Tree@V?$_Tmap_traits@V?$basic_string@DU?$char_traits@D@std@@V?$allocator@D@2@@std@@MU?$less@V?$basic_string@DU?$char_traits@D@std@@V?$allocator@D@2@@std@@@2@V?$allocator@U?$pair@$$CBV?$basic_string@DU?$char_traits@D@std@@V?$allocator@D@2@@std@@M@std@@@2@$0A@@std@@@std@@IBE_NQAU?$_Tree_node@U?$pair@$$CBV?$basic_string@DU?$char_traits@D@std@@V?$allocator@D@2@@std@@M@std@@PAX@1@ABV?$basic_string@DU?$char_traits@D@std@@V?$allocator@D@2@@1@@Z ; std::_Tree<std::_Tmap_traits<std::basic_string<char,std::char_traits<char>,std::allocator<char> >,float,std::less<std::basic_string<char,std::char_traits<char>,std::allocator<char> > >,std::allocator<std::pair<std::basic_string<char,std::char_traits<char>,std::allocator<char> > const ,float> >,0> >::_Lower_bound_duplicate<std::basic_string<char,std::char_traits<char>,std::allocator<char> > >
PUBLIC	??$_Freenode0@V?$allocator@U?$_Tree_node@U?$pair@$$CBV?$basic_string@DU?$char_traits@D@std@@V?$allocator@D@2@@std@@M@std@@PAX@std@@@std@@@?$_Tree_node@U?$pair@$$CBV?$basic_string@DU?$char_traits@D@std@@V?$allocator@D@2@@std@@M@std@@PAX@std@@SAXAAV?$allocator@U?$_Tree_node@U?$pair@$$CBV?$basic_string@DU?$char_traits@D@std@@V?$allocator@D@2@@std@@M@std@@PAX@std@@@1@PAU01@@Z ; std::_Tree_node<std::pair<std::basic_string<char,std::char_traits<char>,std::allocator<char> > const ,float>,void *>::_Freenode0<std::allocator<std::_Tree_node<std::pair<std::basic_string<char,std::char_traits<char>,std::allocator<char> > const ,float>,void *> > >
PUBLIC	??$_Construct_in_place@PADABQAD@std@@YAXAAPADABQAD@Z ; std::_Construct_in_place<char *,char * const &>
PUBLIC	??$_Construct_in_place@PAU?$_Tree_node@U?$pair@$$CBV?$basic_string@DU?$char_traits@D@std@@V?$allocator@D@2@@std@@M@std@@PAX@std@@ABQAU12@@std@@YAXAAPAU?$_Tree_node@U?$pair@$$CBV?$basic_string@DU?$char_traits@D@std@@V?$allocator@D@2@@std@@M@std@@PAX@0@ABQAU10@@Z ; std::_Construct_in_place<std::_Tree_node<std::pair<std::basic_string<char,std::char_traits<char>,std::allocator<char> > const ,float>,void *> *,std::_Tree_node<std::pair<std::basic_string<char,std::char_traits<char>,std::allocator<char> > const ,float>,void *> * const &>
PUBLIC	??$?MDU?$char_traits@D@std@@V?$allocator@D@1@@std@@YA_NABV?$basic_string@DU?$char_traits@D@std@@V?$allocator@D@2@@0@0@Z ; std::operator<<char,std::char_traits<char>,std::allocator<char> >
PUBLIC	??$_Allocate@$07U_Default_allocate_traits@std@@$0A@@std@@YAPAXI@Z ; std::_Allocate<8,std::_Default_allocate_traits,0>
PUBLIC	?_Allocate@?$_Alloc_construct_ptr@V?$allocator@U?$_Tree_node@U?$pair@$$CBV?$basic_string@DU?$char_traits@D@std@@V?$allocator@D@2@@std@@M@std@@PAX@std@@@std@@@std@@QAEXXZ ; std::_Alloc_construct_ptr<std::allocator<std::_Tree_node<std::pair<std::basic_string<char,std::char_traits<char>,std::allocator<char> > const ,float>,void *> > >::_Allocate
PUBLIC	??1?$_Alloc_construct_ptr@V?$allocator@U?$_Tree_node@U?$pair@$$CBV?$basic_string@DU?$char_traits@D@std@@V?$allocator@D@2@@std@@M@std@@PAX@std@@@std@@@std@@QAE@XZ ; std::_Alloc_construct_ptr<std::allocator<std::_Tree_node<std::pair<std::basic_string<char,std::char_traits<char>,std::allocator<char> > const ,float>,void *> > >::~_Alloc_construct_ptr<std::allocator<std::_Tree_node<std::pair<std::basic_string<char,std::char_traits<char>,std::allocator<char> > const ,float>,void *> > >
PUBLIC	??1?$_Tree_temp_node_alloc@V?$allocator@U?$_Tree_node@U?$pair@$$CBV?$basic_string@DU?$char_traits@D@std@@V?$allocator@D@2@@std@@M@std@@PAX@std@@@std@@@std@@QAE@XZ ; std::_Tree_temp_node_alloc<std::allocator<std::_Tree_node<std::pair<std::basic_string<char,std::char_traits<char>,std::allocator<char> > const ,float>,void *> > >::~_Tree_temp_node_alloc<std::allocator<std::_Tree_node<std::pair<std::basic_string<char,std::char_traits<char>,std::allocator<char> > const ,float>,void *> > >
PUBLIC	??1?$_Tree_temp_node@V?$allocator@U?$_Tree_node@U?$pair@$$CBV?$basic_string@DU?$char_traits@D@std@@V?$allocator@D@2@@std@@M@std@@PAX@std@@@std@@@std@@QAE@XZ ; std::_Tree_temp_node<std::allocator<std::_Tree_node<std::pair<std::basic_string<char,std::char_traits<char>,std::allocator<char> > const ,float>,void *> > >::~_Tree_temp_node<std::allocator<std::_Tree_node<std::pair<std::basic_string<char,std::char_traits<char>,std::allocator<char> > const ,float>,void *> > >
PUBLIC	??$?0U?$pair@$$CBV?$basic_string@DU?$char_traits@D@std@@V?$allocator@D@2@@std@@M@std@@@?$_Tree_temp_node@V?$allocator@U?$_Tree_node@U?$pair@$$CBV?$basic_string@DU?$char_traits@D@std@@V?$allocator@D@2@@std@@M@std@@PAX@std@@@std@@@std@@QAE@AAV?$allocator@U?$_Tree_node@U?$pair@$$CBV?$basic_string@DU?$char_traits@D@std@@V?$allocator@D@2@@std@@M@std@@PAX@std@@@1@PAU?$_Tree_node@U?$pair@$$CBV?$basic_string@DU?$char_traits@D@std@@V?$allocator@D@2@@std@@M@std@@PAX@1@$$QAU?$pair@$$CBV?$basic_string@DU?$char_traits@D@std@@V?$allocator@D@2@@std@@M@1@@Z ; std::_Tree_temp_node<std::allocator<std::_Tree_node<std::pair<std::basic_string<char,std::char_traits<char>,std::allocator<char> > const ,float>,void *> > >::_Tree_temp_node<std::allocator<std::_Tree_node<std::pair<std::basic_string<char,std::char_traits<char>,std::allocator<char> > const ,float>,void *> > ><std::pair<std::basic_string<char,std::char_traits<char>,std::allocator<char> > const ,float> >
PUBLIC	??$_Destroy_in_place@PAU?$_Tree_node@U?$pair@$$CBV?$basic_string@DU?$char_traits@D@std@@V?$allocator@D@2@@std@@M@std@@PAX@std@@@std@@YAXAAPAU?$_Tree_node@U?$pair@$$CBV?$basic_string@DU?$char_traits@D@std@@V?$allocator@D@2@@std@@M@std@@PAX@0@@Z ; std::_Destroy_in_place<std::_Tree_node<std::pair<std::basic_string<char,std::char_traits<char>,std::allocator<char> > const ,float>,void *> *>
PUBLIC	??$_Allocate_manually_vector_aligned@U_Default_allocate_traits@std@@@std@@YAPAXI@Z ; std::_Allocate_manually_vector_aligned<std::_Default_allocate_traits>
PUBLIC	??$_Construct_in_place@PAU?$_Tree_node@U?$pair@$$CBV?$basic_string@DU?$char_traits@D@std@@V?$allocator@D@2@@std@@M@std@@PAX@std@@AAPAU12@@std@@YAXAAPAU?$_Tree_node@U?$pair@$$CBV?$basic_string@DU?$char_traits@D@std@@V?$allocator@D@2@@std@@M@std@@PAX@0@0@Z ; std::_Construct_in_place<std::_Tree_node<std::pair<std::basic_string<char,std::char_traits<char>,std::allocator<char> > const ,float>,void *> *,std::_Tree_node<std::pair<std::basic_string<char,std::char_traits<char>,std::allocator<char> > const ,float>,void *> * &>
PUBLIC	??_7exception@std@@6B@				; std::exception::`vftable'
PUBLIC	??_C@_0BC@EOODALEL@Unknown?5exception@		; `string'
PUBLIC	??_7bad_alloc@std@@6B@				; std::bad_alloc::`vftable'
PUBLIC	??_7bad_array_new_length@std@@6B@		; std::bad_array_new_length::`vftable'
PUBLIC	??_C@_0BF@KINCDENJ@bad?5array?5new?5length@	; `string'
PUBLIC	__TI3?AVbad_array_new_length@std@@
PUBLIC	__CTA3?AVbad_array_new_length@std@@
PUBLIC	??_R0?AVbad_array_new_length@std@@@8		; std::bad_array_new_length `RTTI Type Descriptor'
PUBLIC	__CT??_R0?AVbad_array_new_length@std@@@8??0bad_array_new_length@std@@QAE@ABV01@@Z12
PUBLIC	??_R0?AVbad_alloc@std@@@8			; std::bad_alloc `RTTI Type Descriptor'
PUBLIC	__CT??_R0?AVbad_alloc@std@@@8??0bad_alloc@std@@QAE@ABV01@@Z12
PUBLIC	??_R0?AVexception@std@@@8			; std::exception `RTTI Type Descriptor'
PUBLIC	__CT??_R0?AVexception@std@@@8??0exception@std@@QAE@ABV01@@Z12
PUBLIC	??_C@_0BA@JFNIOLAK@string?5too?5long@		; `string'
PUBLIC	??_C@_0BB@GCADKGJO@map?1set?5too?5long@		; `string'
PUBLIC	?ms_singleton@?$CSingleton@VCSoundManager@@@@0PAVCSoundManager@@A ; CSingleton<CSoundManager>::ms_singleton
PUBLIC	??_7?$CSingleton@VCSoundManager@@@@6B@		; CSingleton<CSoundManager>::`vftable'
PUBLIC	?ms_SoundManager2D@CSoundManager@@1VCSoundManager2D@@A ; CSoundManager::ms_SoundManager2D
PUBLIC	?ms_SoundManager3D@CSoundManager@@1VCSoundManager3D@@A ; CSoundManager::ms_SoundManager3D
PUBLIC	?ms_SoundManagerStream@CSoundManager@@1VCSoundManagerStream@@A ; CSoundManager::ms_SoundManagerStream
PUBLIC	??_7CSoundManager@@6B@				; CSoundManager::`vftable'
PUBLIC	?ms_singleton@?$CSingleton@VCTimer@@@@0PAVCTimer@@A ; CSingleton<CTimer>::ms_singleton
PUBLIC	??_C@_0DG@IHJECCAM@CSoundManager?3?3Create?5?9?5Sound2D@ ; `string'
PUBLIC	??_C@_0DK@HNOILEHO@CSoundManager?3?3Create?5?9?5SoundSt@ ; `string'
PUBLIC	??_C@_0DG@CCBPLCAC@CSoundManager?3?3Create?5?9?5Sound3D@ ; `string'
PUBLIC	??_C@_0CD@IKOINIJC@FadeOutMusic?3?5?$CFs?5?9?5ERROR?5NOT?5EX@ ; `string'
PUBLIC	??_C@_0CG@CAGDPBLM@FadeOutMusic?3?5?$CFs?5?9?5ERROR?5OUT?5OF@ ; `string'
PUBLIC	??_C@_0DM@BCCLJDHL@CSoundManager?3?3PlayMusic?5?9?5Fail@ ; `string'
PUBLIC	??_C@_0EC@EPLOEFBK@CSoundManager?3?3PlayMusic?5?9?5Ther@ ; `string'
PUBLIC	??_C@_0BJ@DHFDPMIM@invalid?5vector?5subscript@	; `string'
PUBLIC	??_R4exception@std@@6B@				; std::exception::`RTTI Complete Object Locator'
PUBLIC	??_R3exception@std@@8				; std::exception::`RTTI Class Hierarchy Descriptor'
PUBLIC	??_R2exception@std@@8				; std::exception::`RTTI Base Class Array'
PUBLIC	??_R1A@?0A@EA@exception@std@@8			; std::exception::`RTTI Base Class Descriptor at (0,-1,0,64)'
PUBLIC	??_R4bad_alloc@std@@6B@				; std::bad_alloc::`RTTI Complete Object Locator'
PUBLIC	??_R3bad_alloc@std@@8				; std::bad_alloc::`RTTI Class Hierarchy Descriptor'
PUBLIC	??_R2bad_alloc@std@@8				; std::bad_alloc::`RTTI Base Class Array'
PUBLIC	??_R1A@?0A@EA@bad_alloc@std@@8			; std::bad_alloc::`RTTI Base Class Descriptor at (0,-1,0,64)'
PUBLIC	??_R4bad_array_new_length@std@@6B@		; std::bad_array_new_length::`RTTI Complete Object Locator'
PUBLIC	??_R3bad_array_new_length@std@@8		; std::bad_array_new_length::`RTTI Class Hierarchy Descriptor'
PUBLIC	??_R2bad_array_new_length@std@@8		; std::bad_array_new_length::`RTTI Base Class Array'
PUBLIC	??_R1A@?0A@EA@bad_array_new_length@std@@8	; std::bad_array_new_length::`RTTI Base Class Descriptor at (0,-1,0,64)'
PUBLIC	??_R4CSoundManager@@6B@				; CSoundManager::`RTTI Complete Object Locator'
PUBLIC	??_R0?AVCSoundManager@@@8			; CSoundManager `RTTI Type Descriptor'
PUBLIC	??_R3CSoundManager@@8				; CSoundManager::`RTTI Class Hierarchy Descriptor'
PUBLIC	??_R2CSoundManager@@8				; CSoundManager::`RTTI Base Class Array'
PUBLIC	??_R1A@?0A@EA@CSoundManager@@8			; CSoundManager::`RTTI Base Class Descriptor at (0,-1,0,64)'
PUBLIC	??_R1A@?0A@EA@?$CSingleton@VCSoundManager@@@@8	; CSingleton<CSoundManager>::`RTTI Base Class Descriptor at (0,-1,0,64)'
PUBLIC	??_R0?AV?$CSingleton@VCSoundManager@@@@@8	; CSingleton<CSoundManager> `RTTI Type Descriptor'
PUBLIC	??_R3?$CSingleton@VCSoundManager@@@@8		; CSingleton<CSoundManager>::`RTTI Class Hierarchy Descriptor'
PUBLIC	??_R2?$CSingleton@VCSoundManager@@@@8		; CSingleton<CSoundManager>::`RTTI Base Class Array'
PUBLIC	??_R4?$CSingleton@VCSoundManager@@@@6B@		; CSingleton<CSoundManager>::`RTTI Complete Object Locator'
PUBLIC	__real@3c23d70a
PUBLIC	__real@3dcccccd
PUBLIC	__real@3e99999a
PUBLIC	__real@3f800000
PUBLIC	__real@4024000000000000
PUBLIC	__real@40a00000
PUBLIC	__real@43480000
PUBLIC	__real@447a0000
PUBLIC	__real@bf800000
EXTRN	??2@YAPAXI@Z:PROC				; operator new
EXTRN	??3@YAXPAXI@Z:PROC				; operator delete
EXTRN	_atexit:PROC
EXTRN	__invalid_parameter_noinfo_noreturn:PROC
EXTRN	_memcmp:PROC
EXTRN	_memcpy:PROC
EXTRN	_memmove:PROC
EXTRN	_strlen:PROC
EXTRN	?GetCaseCRC32@@YAKPBDI@Z:PROC			; GetCaseCRC32
EXTRN	_pow:PROC
EXTRN	___std_exception_copy:PROC
EXTRN	___std_exception_destroy:PROC
EXTRN	??_Eexception@std@@UAEPAXI@Z:PROC		; std::exception::`vector deleting destructor'
EXTRN	??_Ebad_alloc@std@@UAEPAXI@Z:PROC		; std::bad_alloc::`vector deleting destructor'
EXTRN	??_Ebad_array_new_length@std@@UAEPAXI@Z:PROC	; std::bad_array_new_length::`vector deleting destructor'
EXTRN	?_Xlength_error@std@@YAXPBD@Z:PROC		; std::_Xlength_error
EXTRN	?_Xout_of_range@std@@YAXPBD@Z:PROC		; std::_Xout_of_range
EXTRN	?StringPath@@YAXPBDAAV?$basic_string@DU?$char_traits@D@std@@V?$allocator@D@2@@std@@@Z:PROC ; StringPath
EXTRN	?fMIN@@YAMMM@Z:PROC				; fMIN
EXTRN	?fMAX@@YAMMM@Z:PROC				; fMAX
EXTRN	?Tracen@@YAXPBD@Z:PROC				; Tracen
EXTRN	?Tracenf@@YAXPBDZZ:PROC				; Tracenf
EXTRN	?TraceError@@YAXPBDZZ:PROC			; TraceError
EXTRN	??0CSoundManagerStream@@QAE@XZ:PROC		; CSoundManagerStream::CSoundManagerStream
EXTRN	??1CSoundManagerStream@@UAE@XZ:PROC		; CSoundManagerStream::~CSoundManagerStream
EXTRN	?Initialize@CSoundManagerStream@@QAE_NXZ:PROC	; CSoundManagerStream::Initialize
EXTRN	?Destroy@CSoundManagerStream@@QAEXXZ:PROC	; CSoundManagerStream::Destroy
EXTRN	?SetInstance@CSoundManagerStream@@QAE_NKPBD@Z:PROC ; CSoundManagerStream::SetInstance
EXTRN	?GetInstance@CSoundManagerStream@@QAEPAVCSoundInstanceStream@@K@Z:PROC ; CSoundManagerStream::GetInstance
EXTRN	??0CSoundManager2D@@QAE@XZ:PROC			; CSoundManager2D::CSoundManager2D
EXTRN	??1CSoundManager2D@@UAE@XZ:PROC			; CSoundManager2D::~CSoundManager2D
EXTRN	?Initialize@CSoundManager2D@@QAE_NXZ:PROC	; CSoundManager2D::Initialize
EXTRN	?Destroy@CSoundManager2D@@QAEXXZ:PROC		; CSoundManager2D::Destroy
EXTRN	?GetInstance@CSoundManager2D@@QAEPAVISoundInstance@@PBD@Z:PROC ; CSoundManager2D::GetInstance
EXTRN	??0CSoundManager3D@@QAE@XZ:PROC			; CSoundManager3D::CSoundManager3D
EXTRN	??1CSoundManager3D@@UAE@XZ:PROC			; CSoundManager3D::~CSoundManager3D
EXTRN	?Initialize@CSoundManager3D@@QAE_NXZ:PROC	; CSoundManager3D::Initialize
EXTRN	?Destroy@CSoundManager3D@@QAEXXZ:PROC		; CSoundManager3D::Destroy
EXTRN	?SetInstance@CSoundManager3D@@QAEHPBD@Z:PROC	; CSoundManager3D::SetInstance
EXTRN	?GetInstance@CSoundManager3D@@QAEPAVISoundInstance@@K@Z:PROC ; CSoundManager3D::GetInstance
EXTRN	?SetListenerDirection@CSoundManager3D@@QAEXMMMMMM@Z:PROC ; CSoundManager3D::SetListenerDirection
EXTRN	?SetListenerPosition@CSoundManager3D@@QAEXMMM@Z:PROC ; CSoundManager3D::SetListenerPosition
EXTRN	??_E?$CSingleton@VCSoundManager@@@@UAEPAXI@Z:PROC ; CSingleton<CSoundManager>::`vector deleting destructor'
EXTRN	??_ECSoundManager@@UAEPAXI@Z:PROC		; CSoundManager::`vector deleting destructor'
EXTRN	?GetCurrentSecond@CTimer@@QAEMXZ:PROC		; CTimer::GetCurrentSecond
EXTRN	@__security_check_cookie@4:PROC
EXTRN	__CxxThrowException@8:PROC
EXTRN	___CxxFrameHandler3:PROC
EXTRN	??_7type_info@@6B@:QWORD			; type_info::`vftable'
EXTRN	___security_cookie:DWORD
EXTRN	__fltused:DWORD
;	COMDAT ?ms_singleton@?$CSingleton@VCSoundManager@@@@0PAVCSoundManager@@A
_BSS	SEGMENT
?ms_singleton@?$CSingleton@VCSoundManager@@@@0PAVCSoundManager@@A DD 01H DUP (?) ; CSingleton<CSoundManager>::ms_singleton
_BSS	ENDS
_BSS	SEGMENT
?ms_SoundManager2D@CSoundManager@@1VCSoundManager2D@@A DB 034H DUP (?) ; CSoundManager::ms_SoundManager2D
?ms_SoundManager3D@CSoundManager@@1VCSoundManager3D@@A DB 01acH DUP (?) ; CSoundManager::ms_SoundManager3D
?ms_SoundManagerStream@CSoundManager@@1VCSoundManagerStream@@A DB 01cH DUP (?) ; CSoundManager::ms_SoundManagerStream
_BSS	ENDS
;	COMDAT ?ms_singleton@?$CSingleton@VCTimer@@@@0PAVCTimer@@A
_BSS	SEGMENT
?ms_singleton@?$CSingleton@VCTimer@@@@0PAVCTimer@@A DD 01H DUP (?) ; CSingleton<CTimer>::ms_singleton
_BSS	ENDS
CRT$XCU	SEGMENT
??ms_SoundManager2D$initializer$@CSoundManager@@1P6AXXZA@@3P6AXXZA DD FLAT:??__E?ms_SoundManager2D@CSoundManager@@1VCSoundManager2D@@A@@YAXXZ ; ??ms_SoundManager2D$initializer$@CSoundManager@@1P6AXXZA@@3P6AXXZA
CRT$XCU	ENDS
;	COMDAT __real@bf800000
CONST	SEGMENT
__real@bf800000 DD 0bf800000r			; -1
CONST	ENDS
;	COMDAT __real@447a0000
CONST	SEGMENT
__real@447a0000 DD 0447a0000r			; 1000
CONST	ENDS
;	COMDAT __real@43480000
CONST	SEGMENT
__real@43480000 DD 043480000r			; 200
CONST	ENDS
;	COMDAT __real@40a00000
CONST	SEGMENT
__real@40a00000 DD 040a00000r			; 5
CONST	ENDS
;	COMDAT __real@4024000000000000
CONST	SEGMENT
__real@4024000000000000 DQ 04024000000000000r	; 10
CONST	ENDS
;	COMDAT __real@3f800000
CONST	SEGMENT
__real@3f800000 DD 03f800000r			; 1
CONST	ENDS
;	COMDAT __real@3e99999a
CONST	SEGMENT
__real@3e99999a DD 03e99999ar			; 0.3
CONST	ENDS
;	COMDAT __real@3dcccccd
CONST	SEGMENT
__real@3dcccccd DD 03dcccccdr			; 0.1
CONST	ENDS
;	COMDAT __real@3c23d70a
CONST	SEGMENT
__real@3c23d70a DD 03c23d70ar			; 0.01
CONST	ENDS
;	COMDAT ??_R4?$CSingleton@VCSoundManager@@@@6B@
rdata$r	SEGMENT
??_R4?$CSingleton@VCSoundManager@@@@6B@ DD 00H		; CSingleton<CSoundManager>::`RTTI Complete Object Locator'
	DD	00H
	DD	00H
	DD	FLAT:??_R0?AV?$CSingleton@VCSoundManager@@@@@8
	DD	FLAT:??_R3?$CSingleton@VCSoundManager@@@@8
rdata$r	ENDS
;	COMDAT ??_R2?$CSingleton@VCSoundManager@@@@8
rdata$r	SEGMENT
??_R2?$CSingleton@VCSoundManager@@@@8 DD FLAT:??_R1A@?0A@EA@?$CSingleton@VCSoundManager@@@@8 ; CSingleton<CSoundManager>::`RTTI Base Class Array'
rdata$r	ENDS
;	COMDAT ??_R3?$CSingleton@VCSoundManager@@@@8
rdata$r	SEGMENT
??_R3?$CSingleton@VCSoundManager@@@@8 DD 00H		; CSingleton<CSoundManager>::`RTTI Class Hierarchy Descriptor'
	DD	00H
	DD	01H
	DD	FLAT:??_R2?$CSingleton@VCSoundManager@@@@8
rdata$r	ENDS
;	COMDAT ??_R0?AV?$CSingleton@VCSoundManager@@@@@8
data$rs	SEGMENT
??_R0?AV?$CSingleton@VCSoundManager@@@@@8 DD FLAT:??_7type_info@@6B@ ; CSingleton<CSoundManager> `RTTI Type Descriptor'
	DD	00H
	DB	'.?AV?$CSingleton@VCSoundManager@@@@', 00H
data$rs	ENDS
;	COMDAT ??_R1A@?0A@EA@?$CSingleton@VCSoundManager@@@@8
rdata$r	SEGMENT
??_R1A@?0A@EA@?$CSingleton@VCSoundManager@@@@8 DD FLAT:??_R0?AV?$CSingleton@VCSoundManager@@@@@8 ; CSingleton<CSoundManager>::`RTTI Base Class Descriptor at (0,-1,0,64)'
	DD	00H
	DD	00H
	DD	0ffffffffH
	DD	00H
	DD	040H
	DD	FLAT:??_R3?$CSingleton@VCSoundManager@@@@8
rdata$r	ENDS
;	COMDAT ??_R1A@?0A@EA@CSoundManager@@8
rdata$r	SEGMENT
??_R1A@?0A@EA@CSoundManager@@8 DD FLAT:??_R0?AVCSoundManager@@@8 ; CSoundManager::`RTTI Base Class Descriptor at (0,-1,0,64)'
	DD	01H
	DD	00H
	DD	0ffffffffH
	DD	00H
	DD	040H
	DD	FLAT:??_R3CSoundManager@@8
rdata$r	ENDS
;	COMDAT ??_R2CSoundManager@@8
rdata$r	SEGMENT
??_R2CSoundManager@@8 DD FLAT:??_R1A@?0A@EA@CSoundManager@@8 ; CSoundManager::`RTTI Base Class Array'
	DD	FLAT:??_R1A@?0A@EA@?$CSingleton@VCSoundManager@@@@8
rdata$r	ENDS
;	COMDAT ??_R3CSoundManager@@8
rdata$r	SEGMENT
??_R3CSoundManager@@8 DD 00H				; CSoundManager::`RTTI Class Hierarchy Descriptor'
	DD	00H
	DD	02H
	DD	FLAT:??_R2CSoundManager@@8
rdata$r	ENDS
;	COMDAT ??_R0?AVCSoundManager@@@8
data$rs	SEGMENT
??_R0?AVCSoundManager@@@8 DD FLAT:??_7type_info@@6B@	; CSoundManager `RTTI Type Descriptor'
	DD	00H
	DB	'.?AVCSoundManager@@', 00H
data$rs	ENDS
;	COMDAT ??_R4CSoundManager@@6B@
rdata$r	SEGMENT
??_R4CSoundManager@@6B@ DD 00H				; CSoundManager::`RTTI Complete Object Locator'
	DD	00H
	DD	00H
	DD	FLAT:??_R0?AVCSoundManager@@@8
	DD	FLAT:??_R3CSoundManager@@8
rdata$r	ENDS
;	COMDAT ??_R1A@?0A@EA@bad_array_new_length@std@@8
rdata$r	SEGMENT
??_R1A@?0A@EA@bad_array_new_length@std@@8 DD FLAT:??_R0?AVbad_array_new_length@std@@@8 ; std::bad_array_new_length::`RTTI Base Class Descriptor at (0,-1,0,64)'
	DD	02H
	DD	00H
	DD	0ffffffffH
	DD	00H
	DD	040H
	DD	FLAT:??_R3bad_array_new_length@std@@8
rdata$r	ENDS
;	COMDAT ??_R2bad_array_new_length@std@@8
rdata$r	SEGMENT
??_R2bad_array_new_length@std@@8 DD FLAT:??_R1A@?0A@EA@bad_array_new_length@std@@8 ; std::bad_array_new_length::`RTTI Base Class Array'
	DD	FLAT:??_R1A@?0A@EA@bad_alloc@std@@8
	DD	FLAT:??_R1A@?0A@EA@exception@std@@8
rdata$r	ENDS
;	COMDAT ??_R3bad_array_new_length@std@@8
rdata$r	SEGMENT
??_R3bad_array_new_length@std@@8 DD 00H			; std::bad_array_new_length::`RTTI Class Hierarchy Descriptor'
	DD	00H
	DD	03H
	DD	FLAT:??_R2bad_array_new_length@std@@8
rdata$r	ENDS
;	COMDAT ??_R4bad_array_new_length@std@@6B@
rdata$r	SEGMENT
??_R4bad_array_new_length@std@@6B@ DD 00H		; std::bad_array_new_length::`RTTI Complete Object Locator'
	DD	00H
	DD	00H
	DD	FLAT:??_R0?AVbad_array_new_length@std@@@8
	DD	FLAT:??_R3bad_array_new_length@std@@8
rdata$r	ENDS
;	COMDAT ??_R1A@?0A@EA@bad_alloc@std@@8
rdata$r	SEGMENT
??_R1A@?0A@EA@bad_alloc@std@@8 DD FLAT:??_R0?AVbad_alloc@std@@@8 ; std::bad_alloc::`RTTI Base Class Descriptor at (0,-1,0,64)'
	DD	01H
	DD	00H
	DD	0ffffffffH
	DD	00H
	DD	040H
	DD	FLAT:??_R3bad_alloc@std@@8
rdata$r	ENDS
;	COMDAT ??_R2bad_alloc@std@@8
rdata$r	SEGMENT
??_R2bad_alloc@std@@8 DD FLAT:??_R1A@?0A@EA@bad_alloc@std@@8 ; std::bad_alloc::`RTTI Base Class Array'
	DD	FLAT:??_R1A@?0A@EA@exception@std@@8
rdata$r	ENDS
;	COMDAT ??_R3bad_alloc@std@@8
rdata$r	SEGMENT
??_R3bad_alloc@std@@8 DD 00H				; std::bad_alloc::`RTTI Class Hierarchy Descriptor'
	DD	00H
	DD	02H
	DD	FLAT:??_R2bad_alloc@std@@8
rdata$r	ENDS
;	COMDAT ??_R4bad_alloc@std@@6B@
rdata$r	SEGMENT
??_R4bad_alloc@std@@6B@ DD 00H				; std::bad_alloc::`RTTI Complete Object Locator'
	DD	00H
	DD	00H
	DD	FLAT:??_R0?AVbad_alloc@std@@@8
	DD	FLAT:??_R3bad_alloc@std@@8
rdata$r	ENDS
;	COMDAT ??_R1A@?0A@EA@exception@std@@8
rdata$r	SEGMENT
??_R1A@?0A@EA@exception@std@@8 DD FLAT:??_R0?AVexception@std@@@8 ; std::exception::`RTTI Base Class Descriptor at (0,-1,0,64)'
	DD	00H
	DD	00H
	DD	0ffffffffH
	DD	00H
	DD	040H
	DD	FLAT:??_R3exception@std@@8
rdata$r	ENDS
;	COMDAT ??_R2exception@std@@8
rdata$r	SEGMENT
??_R2exception@std@@8 DD FLAT:??_R1A@?0A@EA@exception@std@@8 ; std::exception::`RTTI Base Class Array'
rdata$r	ENDS
;	COMDAT ??_R3exception@std@@8
rdata$r	SEGMENT
??_R3exception@std@@8 DD 00H				; std::exception::`RTTI Class Hierarchy Descriptor'
	DD	00H
	DD	01H
	DD	FLAT:??_R2exception@std@@8
rdata$r	ENDS
;	COMDAT ??_R4exception@std@@6B@
rdata$r	SEGMENT
??_R4exception@std@@6B@ DD 00H				; std::exception::`RTTI Complete Object Locator'
	DD	00H
	DD	00H
	DD	FLAT:??_R0?AVexception@std@@@8
	DD	FLAT:??_R3exception@std@@8
rdata$r	ENDS
;	COMDAT ??_C@_0BJ@DHFDPMIM@invalid?5vector?5subscript@
CONST	SEGMENT
??_C@_0BJ@DHFDPMIM@invalid?5vector?5subscript@ DB 'invalid vector subscri'
	DB	'pt', 00H					; `string'
CONST	ENDS
;	COMDAT ??_C@_0EC@EPLOEFBK@CSoundManager?3?3PlayMusic?5?9?5Ther@
CONST	SEGMENT
??_C@_0EC@EPLOEFBK@CSoundManager?3?3PlayMusic?5?9?5Ther@ DB 'CSoundManage'
	DB	'r::PlayMusic - There is no stream sound instance : %s', 00H ; `string'
CONST	ENDS
;	COMDAT ??_C@_0DM@BCCLJDHL@CSoundManager?3?3PlayMusic?5?9?5Fail@
CONST	SEGMENT
??_C@_0DM@BCCLJDHL@CSoundManager?3?3PlayMusic?5?9?5Fail@ DB 'CSoundManage'
	DB	'r::PlayMusic - Failed to load stream sound : %s', 00H ; `string'
CONST	ENDS
;	COMDAT ??_C@_0CG@CAGDPBLM@FadeOutMusic?3?5?$CFs?5?9?5ERROR?5OUT?5OF@
CONST	SEGMENT
??_C@_0CG@CAGDPBLM@FadeOutMusic?3?5?$CFs?5?9?5ERROR?5OUT?5OF@ DB 'FadeOut'
	DB	'Music: %s - ERROR OUT OF RANGE', 00H	; `string'
CONST	ENDS
;	COMDAT ??_C@_0CD@IKOINIJC@FadeOutMusic?3?5?$CFs?5?9?5ERROR?5NOT?5EX@
CONST	SEGMENT
??_C@_0CD@IKOINIJC@FadeOutMusic?3?5?$CFs?5?9?5ERROR?5NOT?5EX@ DB 'FadeOut'
	DB	'Music: %s - ERROR NOT EXIST', 00H		; `string'
CONST	ENDS
;	COMDAT ?s_fLimitDistance@?6??PlayCharacterSound3D@CSoundManager@@QAEXMMMPBDH@Z@4MA
_DATA	SEGMENT
?s_fLimitDistance@?6??PlayCharacterSound3D@CSoundManager@@QAEXMMMPBDH@Z@4MA DD 04bbebc20r ; 2.5e+07 ; `CSoundManager::PlayCharacterSound3D'::`7'::s_fLimitDistance
_DATA	ENDS
;	COMDAT ??_C@_0DG@CCBPLCAC@CSoundManager?3?3Create?5?9?5Sound3D@
CONST	SEGMENT
??_C@_0DG@CCBPLCAC@CSoundManager?3?3Create?5?9?5Sound3D@ DB 'CSoundManage'
	DB	'r::Create - Sound3D::Initialize - FAILURE', 00H ; `string'
CONST	ENDS
;	COMDAT ??_C@_0DK@HNOILEHO@CSoundManager?3?3Create?5?9?5SoundSt@
CONST	SEGMENT
??_C@_0DK@HNOILEHO@CSoundManager?3?3Create?5?9?5SoundSt@ DB 'CSoundManage'
	DB	'r::Create - SoundStream::Initialize - FAILURE', 00H ; `string'
CONST	ENDS
;	COMDAT ??_C@_0DG@IHJECCAM@CSoundManager?3?3Create?5?9?5Sound2D@
CONST	SEGMENT
??_C@_0DG@IHJECCAM@CSoundManager?3?3Create?5?9?5Sound2D@ DB 'CSoundManage'
	DB	'r::Create - Sound2D::Initialize - FAILURE', 00H ; `string'
CONST	ENDS
;	COMDAT ??_7CSoundManager@@6B@
CONST	SEGMENT
??_7CSoundManager@@6B@ DD FLAT:??_R4CSoundManager@@6B@	; CSoundManager::`vftable'
	DD	FLAT:??_ECSoundManager@@UAEPAXI@Z
CONST	ENDS
;	COMDAT ??_7?$CSingleton@VCSoundManager@@@@6B@
CONST	SEGMENT
??_7?$CSingleton@VCSoundManager@@@@6B@ DD FLAT:??_R4?$CSingleton@VCSoundManager@@@@6B@ ; CSingleton<CSoundManager>::`vftable'
	DD	FLAT:??_E?$CSingleton@VCSoundManager@@@@UAEPAXI@Z
CONST	ENDS
;	COMDAT ??_C@_0BB@GCADKGJO@map?1set?5too?5long@
CONST	SEGMENT
??_C@_0BB@GCADKGJO@map?1set?5too?5long@ DB 'map/set too long', 00H ; `string'
CONST	ENDS
;	COMDAT ??_C@_0BA@JFNIOLAK@string?5too?5long@
CONST	SEGMENT
??_C@_0BA@JFNIOLAK@string?5too?5long@ DB 'string too long', 00H ; `string'
CONST	ENDS
;	COMDAT __CT??_R0?AVexception@std@@@8??0exception@std@@QAE@ABV01@@Z12
xdata$x	SEGMENT
__CT??_R0?AVexception@std@@@8??0exception@std@@QAE@ABV01@@Z12 DD 00H
	DD	FLAT:??_R0?AVexception@std@@@8
	DD	00H
	DD	0ffffffffH
	ORG $+4
	DD	0cH
	DD	FLAT:??0exception@std@@QAE@ABV01@@Z
xdata$x	ENDS
;	COMDAT ??_R0?AVexception@std@@@8
data$r	SEGMENT
??_R0?AVexception@std@@@8 DD FLAT:??_7type_info@@6B@	; std::exception `RTTI Type Descriptor'
	DD	00H
	DB	'.?AVexception@std@@', 00H
data$r	ENDS
;	COMDAT __CT??_R0?AVbad_alloc@std@@@8??0bad_alloc@std@@QAE@ABV01@@Z12
xdata$x	SEGMENT
__CT??_R0?AVbad_alloc@std@@@8??0bad_alloc@std@@QAE@ABV01@@Z12 DD 010H
	DD	FLAT:??_R0?AVbad_alloc@std@@@8
	DD	00H
	DD	0ffffffffH
	ORG $+4
	DD	0cH
	DD	FLAT:??0bad_alloc@std@@QAE@ABV01@@Z
xdata$x	ENDS
;	COMDAT ??_R0?AVbad_alloc@std@@@8
data$r	SEGMENT
??_R0?AVbad_alloc@std@@@8 DD FLAT:??_7type_info@@6B@	; std::bad_alloc `RTTI Type Descriptor'
	DD	00H
	DB	'.?AVbad_alloc@std@@', 00H
data$r	ENDS
;	COMDAT __CT??_R0?AVbad_array_new_length@std@@@8??0bad_array_new_length@std@@QAE@ABV01@@Z12
xdata$x	SEGMENT
__CT??_R0?AVbad_array_new_length@std@@@8??0bad_array_new_length@std@@QAE@ABV01@@Z12 DD 00H
	DD	FLAT:??_R0?AVbad_array_new_length@std@@@8
	DD	00H
	DD	0ffffffffH
	ORG $+4
	DD	0cH
	DD	FLAT:??0bad_array_new_length@std@@QAE@ABV01@@Z
xdata$x	ENDS
;	COMDAT ??_R0?AVbad_array_new_length@std@@@8
data$r	SEGMENT
??_R0?AVbad_array_new_length@std@@@8 DD FLAT:??_7type_info@@6B@ ; std::bad_array_new_length `RTTI Type Descriptor'
	DD	00H
	DB	'.?AVbad_array_new_length@std@@', 00H
data$r	ENDS
;	COMDAT __CTA3?AVbad_array_new_length@std@@
xdata$x	SEGMENT
__CTA3?AVbad_array_new_length@std@@ DD 03H
	DD	FLAT:__CT??_R0?AVbad_array_new_length@std@@@8??0bad_array_new_length@std@@QAE@ABV01@@Z12
	DD	FLAT:__CT??_R0?AVbad_alloc@std@@@8??0bad_alloc@std@@QAE@ABV01@@Z12
	DD	FLAT:__CT??_R0?AVexception@std@@@8??0exception@std@@QAE@ABV01@@Z12
xdata$x	ENDS
;	COMDAT __TI3?AVbad_array_new_length@std@@
xdata$x	SEGMENT
__TI3?AVbad_array_new_length@std@@ DD 00H
	DD	FLAT:??1bad_array_new_length@std@@UAE@XZ
	DD	00H
	DD	FLAT:__CTA3?AVbad_array_new_length@std@@
xdata$x	ENDS
;	COMDAT ??_C@_0BF@KINCDENJ@bad?5array?5new?5length@
CONST	SEGMENT
??_C@_0BF@KINCDENJ@bad?5array?5new?5length@ DB 'bad array new length', 00H ; `string'
CONST	ENDS
;	COMDAT ??_7bad_array_new_length@std@@6B@
CONST	SEGMENT
??_7bad_array_new_length@std@@6B@ DD FLAT:??_R4bad_array_new_length@std@@6B@ ; std::bad_array_new_length::`vftable'
	DD	FLAT:??_Ebad_array_new_length@std@@UAEPAXI@Z
	DD	FLAT:?what@exception@std@@UBEPBDXZ
CONST	ENDS
;	COMDAT ??_7bad_alloc@std@@6B@
CONST	SEGMENT
??_7bad_alloc@std@@6B@ DD FLAT:??_R4bad_alloc@std@@6B@	; std::bad_alloc::`vftable'
	DD	FLAT:??_Ebad_alloc@std@@UAEPAXI@Z
	DD	FLAT:?what@exception@std@@UBEPBDXZ
CONST	ENDS
;	COMDAT ??_C@_0BC@EOODALEL@Unknown?5exception@
CONST	SEGMENT
??_C@_0BC@EOODALEL@Unknown?5exception@ DB 'Unknown exception', 00H ; `string'
CONST	ENDS
;	COMDAT ??_7exception@std@@6B@
CONST	SEGMENT
??_7exception@std@@6B@ DD FLAT:??_R4exception@std@@6B@	; std::exception::`vftable'
	DD	FLAT:??_Eexception@std@@UAEPAXI@Z
	DD	FLAT:?what@exception@std@@UBEPBDXZ
CONST	ENDS
;	COMDAT xdata$x
xdata$x	SEGMENT
__unwindtable$??$?0U?$pair@$$CBV?$basic_string@DU?$char_traits@D@std@@V?$allocator@D@2@@std@@M@std@@@?$_Tree_temp_node@V?$allocator@U?$_Tree_node@U?$pair@$$CBV?$basic_string@DU?$char_traits@D@std@@V?$allocator@D@2@@std@@M@std@@PAX@std@@@std@@@std@@QAE@AAV?$allocator@U?$_Tree_node@U?$pair@$$CBV?$basic_string@DU?$char_traits@D@std@@V?$allocator@D@2@@std@@M@std@@PAX@std@@@1@PAU?$_Tree_node@U?$pair@$$CBV?$basic_string@DU?$char_traits@D@std@@V?$allocator@D@2@@std@@M@std@@PAX@1@$$QAU?$pair@$$CBV?$basic_string@DU?$char_traits@D@std@@V?$allocator@D@2@@std@@M@1@@Z DD 0ffffffffH
	DD	FLAT:__unwindfunclet$??$?0U?$pair@$$CBV?$basic_string@DU?$char_traits@D@std@@V?$allocator@D@2@@std@@M@std@@@?$_Tree_temp_node@V?$allocator@U?$_Tree_node@U?$pair@$$CBV?$basic_string@DU?$char_traits@D@std@@V?$allocator@D@2@@std@@M@std@@PAX@std@@@std@@@std@@QAE@AAV?$allocator@U?$_Tree_node@U?$pair@$$CBV?$basic_string@DU?$char_traits@D@std@@V?$allocator@D@2@@std@@M@std@@PAX@std@@@1@PAU?$_Tree_node@U?$pair@$$CBV?$basic_string@DU?$char_traits@D@std@@V?$allocator@D@2@@std@@M@std@@PAX@1@$$QAU?$pair@$$CBV?$basic_string@DU?$char_traits@D@std@@V?$allocator@D@2@@std@@M@1@@Z$1
	DD	0ffffffffH
	DD	FLAT:__unwindfunclet$??$?0U?$pair@$$CBV?$basic_string@DU?$char_traits@D@std@@V?$allocator@D@2@@std@@M@std@@@?$_Tree_temp_node@V?$allocator@U?$_Tree_node@U?$pair@$$CBV?$basic_string@DU?$char_traits@D@std@@V?$allocator@D@2@@std@@M@std@@PAX@std@@@std@@@std@@QAE@AAV?$allocator@U?$_Tree_node@U?$pair@$$CBV?$basic_string@DU?$char_traits@D@std@@V?$allocator@D@2@@std@@M@std@@PAX@std@@@1@PAU?$_Tree_node@U?$pair@$$CBV?$basic_string@DU?$char_traits@D@std@@V?$allocator@D@2@@std@@M@std@@PAX@1@$$QAU?$pair@$$CBV?$basic_string@DU?$char_traits@D@std@@V?$allocator@D@2@@std@@M@1@@Z$0
__ehfuncinfo$??$?0U?$pair@$$CBV?$basic_string@DU?$char_traits@D@std@@V?$allocator@D@2@@std@@M@std@@@?$_Tree_temp_node@V?$allocator@U?$_Tree_node@U?$pair@$$CBV?$basic_string@DU?$char_traits@D@std@@V?$allocator@D@2@@std@@M@std@@PAX@std@@@std@@@std@@QAE@AAV?$allocator@U?$_Tree_node@U?$pair@$$CBV?$basic_string@DU?$char_traits@D@std@@V?$allocator@D@2@@std@@M@std@@PAX@std@@@1@PAU?$_Tree_node@U?$pair@$$CBV?$basic_string@DU?$char_traits@D@std@@V?$allocator@D@2@@std@@M@std@@PAX@1@$$QAU?$pair@$$CBV?$basic_string@DU?$char_traits@D@std@@V?$allocator@D@2@@std@@M@1@@Z DD 019930522H
	DD	02H
	DD	FLAT:__unwindtable$??$?0U?$pair@$$CBV?$basic_string@DU?$char_traits@D@std@@V?$allocator@D@2@@std@@M@std@@@?$_Tree_temp_node@V?$allocator@U?$_Tree_node@U?$pair@$$CBV?$basic_string@DU?$char_traits@D@std@@V?$allocator@D@2@@std@@M@std@@PAX@std@@@std@@@std@@QAE@AAV?$allocator@U?$_Tree_node@U?$pair@$$CBV?$basic_string@DU?$char_traits@D@std@@V?$allocator@D@2@@std@@M@std@@PAX@std@@@1@PAU?$_Tree_node@U?$pair@$$CBV?$basic_string@DU?$char_traits@D@std@@V?$allocator@D@2@@std@@M@std@@PAX@1@$$QAU?$pair@$$CBV?$basic_string@DU?$char_traits@D@std@@V?$allocator@D@2@@std@@M@1@@Z
	DD	2 DUP(00H)
	DD	2 DUP(00H)
	DD	00H
	DD	01H
xdata$x	ENDS
;	COMDAT xdata$x
xdata$x	SEGMENT
__ehfuncinfo$??$_Deallocate@$07$0A@@std@@YAXPAXI@Z DD 019930522H
	DD	00H
	DD	00H
	DD	2 DUP(00H)
	DD	2 DUP(00H)
	DD	00H
	DD	05H
xdata$x	ENDS
;	COMDAT xdata$x
xdata$x	SEGMENT
__unwindtable$?GetMusicIndex@CSoundManager@@IAEHPBDPAK@Z DD 0ffffffffH
	DD	FLAT:__unwindfunclet$?GetMusicIndex@CSoundManager@@IAEHPBDPAK@Z$0
__ehfuncinfo$?GetMusicIndex@CSoundManager@@IAEHPBDPAK@Z DD 019930522H
	DD	01H
	DD	FLAT:__unwindtable$?GetMusicIndex@CSoundManager@@IAEHPBDPAK@Z
	DD	2 DUP(00H)
	DD	2 DUP(00H)
	DD	00H
	DD	01H
xdata$x	ENDS
;	COMDAT xdata$x
xdata$x	SEGMENT
__unwindtable$?PlayMusic@CSoundManager@@IAEXKPBDMM@Z DD 0ffffffffH
	DD	FLAT:__unwindfunclet$?PlayMusic@CSoundManager@@IAEXKPBDMM@Z$0
__ehfuncinfo$?PlayMusic@CSoundManager@@IAEXKPBDMM@Z DD 019930522H
	DD	01H
	DD	FLAT:__unwindtable$?PlayMusic@CSoundManager@@IAEXKPBDMM@Z
	DD	2 DUP(00H)
	DD	2 DUP(00H)
	DD	00H
	DD	01H
xdata$x	ENDS
;	COMDAT xdata$x
xdata$x	SEGMENT
__unwindtable$?PlayCharacterSound3D@CSoundManager@@QAEXMMMPBDH@Z DD 0ffffffffH
	DD	FLAT:__unwindfunclet$?PlayCharacterSound3D@CSoundManager@@QAEXMMMPBDH@Z$0
	DD	0ffffffffH
	DD	FLAT:__unwindfunclet$?PlayCharacterSound3D@CSoundManager@@QAEXMMMPBDH@Z$1
	DD	0ffffffffH
	DD	FLAT:__unwindfunclet$?PlayCharacterSound3D@CSoundManager@@QAEXMMMPBDH@Z$2
__ehfuncinfo$?PlayCharacterSound3D@CSoundManager@@QAEXMMMPBDH@Z DD 019930522H
	DD	03H
	DD	FLAT:__unwindtable$?PlayCharacterSound3D@CSoundManager@@QAEXMMMPBDH@Z
	DD	2 DUP(00H)
	DD	2 DUP(00H)
	DD	00H
	DD	01H
xdata$x	ENDS
;	COMDAT xdata$x
xdata$x	SEGMENT
__unwindtable$??0CSoundManager@@QAE@XZ DD 0ffffffffH
	DD	FLAT:__unwindfunclet$??0CSoundManager@@QAE@XZ$0
__ehfuncinfo$??0CSoundManager@@QAE@XZ DD 019930522H
	DD	01H
	DD	FLAT:__unwindtable$??0CSoundManager@@QAE@XZ
	DD	2 DUP(00H)
	DD	2 DUP(00H)
	DD	00H
	DD	01H
xdata$x	ENDS
;	COMDAT xdata$x
xdata$x	SEGMENT
__unwindtable$??0?$basic_string@DU?$char_traits@D@std@@V?$allocator@D@2@@std@@QAE@QBD@Z DD 0ffffffffH
	DD	FLAT:__unwindfunclet$??0?$basic_string@DU?$char_traits@D@std@@V?$allocator@D@2@@std@@QAE@QBD@Z$0
__ehfuncinfo$??0?$basic_string@DU?$char_traits@D@std@@V?$allocator@D@2@@std@@QAE@QBD@Z DD 019930522H
	DD	01H
	DD	FLAT:__unwindtable$??0?$basic_string@DU?$char_traits@D@std@@V?$allocator@D@2@@std@@QAE@QBD@Z
	DD	2 DUP(00H)
	DD	2 DUP(00H)
	DD	00H
	DD	01H
xdata$x	ENDS
;	COMDAT xdata$x
xdata$x	SEGMENT
__unwindtable$??0?$basic_string@DU?$char_traits@D@std@@V?$allocator@D@2@@std@@QAE@ABV01@@Z DD 0ffffffffH
	DD	FLAT:__unwindfunclet$??0?$basic_string@DU?$char_traits@D@std@@V?$allocator@D@2@@std@@QAE@ABV01@@Z$0
__ehfuncinfo$??0?$basic_string@DU?$char_traits@D@std@@V?$allocator@D@2@@std@@QAE@ABV01@@Z DD 019930522H
	DD	01H
	DD	FLAT:__unwindtable$??0?$basic_string@DU?$char_traits@D@std@@V?$allocator@D@2@@std@@QAE@ABV01@@Z
	DD	2 DUP(00H)
	DD	2 DUP(00H)
	DD	00H
	DD	01H
xdata$x	ENDS
CRT$XCU	SEGMENT
??ms_SoundManager3D$initializer$@CSoundManager@@1P6AXXZA@@3P6AXXZA DD FLAT:??__E?ms_SoundManager3D@CSoundManager@@1VCSoundManager3D@@A@@YAXXZ ; ??ms_SoundManager3D$initializer$@CSoundManager@@1P6AXXZA@@3P6AXXZA
CRT$XCU	ENDS
CRT$XCU	SEGMENT
??ms_SoundManagerStream$initializer$@CSoundManager@@1P6AXXZA@@3P6AXXZA DD FLAT:??__E?ms_SoundManagerStream@CSoundManager@@1VCSoundManagerStream@@A@@YAXXZ ; ??ms_SoundManagerStream$initializer$@CSoundManager@@1P6AXXZA@@3P6AXXZA
CRT$XCU	ENDS
; Function compile flags: /Odspy
; File C:\Program Files (x86)\Microsoft Visual Studio\2019\Community\VC\Tools\MSVC\14.28.29333\include\xmemory
; File C:\Program Files (x86)\Microsoft Visual Studio\2019\Community\VC\Tools\MSVC\14.28.29333\include\xstddef
; File C:\Program Files (x86)\Microsoft Visual Studio\2019\Community\VC\Tools\MSVC\14.28.29333\include\vcruntime_new.h
; File C:\Program Files (x86)\Microsoft Visual Studio\2019\Community\VC\Tools\MSVC\14.28.29333\include\type_traits
; File C:\Program Files (x86)\Microsoft Visual Studio\2019\Community\VC\Tools\MSVC\14.28.29333\include\xmemory
;	COMDAT ??$_Construct_in_place@PAU?$_Tree_node@U?$pair@$$CBV?$basic_string@DU?$char_traits@D@std@@V?$allocator@D@2@@std@@M@std@@PAX@std@@AAPAU12@@std@@YAXAAPAU?$_Tree_node@U?$pair@$$CBV?$basic_string@DU?$char_traits@D@std@@V?$allocator@D@2@@std@@M@std@@PAX@0@0@Z
_TEXT	SEGMENT
$T1 = -12						; size = 4
$T2 = -8						; size = 4
$T3 = -4						; size = 4
__Obj$ = 8						; size = 4
_<_Args_0>$ = 12					; size = 4
??$_Construct_in_place@PAU?$_Tree_node@U?$pair@$$CBV?$basic_string@DU?$char_traits@D@std@@V?$allocator@D@2@@std@@M@std@@PAX@std@@AAPAU12@@std@@YAXAAPAU?$_Tree_node@U?$pair@$$CBV?$basic_string@DU?$char_traits@D@std@@V?$allocator@D@2@@std@@M@std@@PAX@0@0@Z PROC ; std::_Construct_in_place<std::_Tree_node<std::pair<std::basic_string<char,std::char_traits<char>,std::allocator<char> > const ,float>,void *> *,std::_Tree_node<std::pair<std::basic_string<char,std::char_traits<char>,std::allocator<char> > const ,float>,void *> * &>, COMDAT

; 228  : void _Construct_in_place(_Ty& _Obj, _Types&&... _Args) noexcept(is_nothrow_constructible_v<_Ty, _Types...>) {

  00000	55		 push	 ebp
  00001	8b ec		 mov	 ebp, esp
  00003	83 ec 0c	 sub	 esp, 12			; 0000000cH
; File C:\Program Files (x86)\Microsoft Visual Studio\2019\Community\VC\Tools\MSVC\14.28.29333\include\xstddef

; 275  :     return __builtin_addressof(_Val);

  00006	8b 45 08	 mov	 eax, DWORD PTR __Obj$[ebp]
  00009	89 45 fc	 mov	 DWORD PTR $T3[ebp], eax
; File C:\Program Files (x86)\Microsoft Visual Studio\2019\Community\VC\Tools\MSVC\14.28.29333\include\vcruntime_new.h

; 169  :         return _Where;

  0000c	8b 45 fc	 mov	 eax, DWORD PTR $T3[ebp]
  0000f	89 45 f8	 mov	 DWORD PTR $T2[ebp], eax
; File C:\Program Files (x86)\Microsoft Visual Studio\2019\Community\VC\Tools\MSVC\14.28.29333\include\type_traits

; 1443 :     return static_cast<_Ty&&>(_Arg);

  00012	8b 45 0c	 mov	 eax, DWORD PTR _<_Args_0>$[ebp]
  00015	89 45 f4	 mov	 DWORD PTR $T1[ebp], eax
; File C:\Program Files (x86)\Microsoft Visual Studio\2019\Community\VC\Tools\MSVC\14.28.29333\include\xmemory

; 229  :     ::new (const_cast<void*>(static_cast<const volatile void*>(_STD addressof(_Obj))))

  00018	8b 45 f8	 mov	 eax, DWORD PTR $T2[ebp]
  0001b	8b 4d f4	 mov	 ecx, DWORD PTR $T1[ebp]
  0001e	8b 09		 mov	 ecx, DWORD PTR [ecx]
  00020	89 08		 mov	 DWORD PTR [eax], ecx

; 230  :         _Ty(_STD forward<_Types>(_Args)...);
; 231  : }

  00022	c9		 leave
  00023	c3		 ret	 0
??$_Construct_in_place@PAU?$_Tree_node@U?$pair@$$CBV?$basic_string@DU?$char_traits@D@std@@V?$allocator@D@2@@std@@M@std@@PAX@std@@AAPAU12@@std@@YAXAAPAU?$_Tree_node@U?$pair@$$CBV?$basic_string@DU?$char_traits@D@std@@V?$allocator@D@2@@std@@M@std@@PAX@0@0@Z ENDP ; std::_Construct_in_place<std::_Tree_node<std::pair<std::basic_string<char,std::char_traits<char>,std::allocator<char> > const ,float>,void *> *,std::_Tree_node<std::pair<std::basic_string<char,std::char_traits<char>,std::allocator<char> > const ,float>,void *> * &>
_TEXT	ENDS
; Function compile flags: /Odspy
; File C:\Program Files (x86)\Microsoft Visual Studio\2019\Community\VC\Tools\MSVC\14.28.29333\include\xmemory
;	COMDAT ??$_Allocate_manually_vector_aligned@U_Default_allocate_traits@std@@@std@@YAPAXI@Z
_TEXT	SEGMENT
__Ptr$ = -12						; size = 4
__Block_size$ = -8					; size = 4
__Ptr_container$ = -4					; size = 4
__Bytes$ = 8						; size = 4
??$_Allocate_manually_vector_aligned@U_Default_allocate_traits@std@@@std@@YAPAXI@Z PROC ; std::_Allocate_manually_vector_aligned<std::_Default_allocate_traits>, COMDAT

; 113  : __declspec(allocator) void* _Allocate_manually_vector_aligned(const size_t _Bytes) {

  00000	55		 push	 ebp
  00001	8b ec		 mov	 ebp, esp
  00003	83 ec 0c	 sub	 esp, 12			; 0000000cH

; 114  :     // allocate _Bytes manually aligned to at least _Big_allocation_alignment
; 115  :     const size_t _Block_size = _Non_user_size + _Bytes;

  00006	8b 45 08	 mov	 eax, DWORD PTR __Bytes$[ebp]
  00009	83 c0 23	 add	 eax, 35			; 00000023H
  0000c	89 45 f8	 mov	 DWORD PTR __Block_size$[ebp], eax

; 116  :     if (_Block_size <= _Bytes) {

  0000f	8b 45 f8	 mov	 eax, DWORD PTR __Block_size$[ebp]
  00012	3b 45 08	 cmp	 eax, DWORD PTR __Bytes$[ebp]
  00015	77 05		 ja	 SHORT $LN12@Allocate_m

; 117  :         _Throw_bad_array_new_length(); // add overflow

  00017	e8 00 00 00 00	 call	 ?_Throw_bad_array_new_length@std@@YAXXZ ; std::_Throw_bad_array_new_length
$LN12@Allocate_m:

; 77   :         return ::operator new(_Bytes);

  0001c	ff 75 f8	 push	 DWORD PTR __Block_size$[ebp]
  0001f	e8 00 00 00 00	 call	 ??2@YAPAXI@Z		; operator new
  00024	59		 pop	 ecx

; 118  :     }
; 119  : 
; 120  :     const uintptr_t _Ptr_container = reinterpret_cast<uintptr_t>(_Traits::_Allocate(_Block_size));

  00025	89 45 fc	 mov	 DWORD PTR __Ptr_container$[ebp], eax
$LN4@Allocate_m:

; 121  :     _STL_VERIFY(_Ptr_container != 0, "invalid argument"); // validate even in release since we're doing p[-1]

  00028	83 7d fc 00	 cmp	 DWORD PTR __Ptr_container$[ebp], 0
  0002c	74 02		 je	 SHORT $LN7@Allocate_m
  0002e	eb 09		 jmp	 SHORT $LN2@Allocate_m
$LN7@Allocate_m:
  00030	e8 00 00 00 00	 call	 __invalid_parameter_noinfo_noreturn
  00035	33 c0		 xor	 eax, eax
  00037	75 f7		 jne	 SHORT $LN7@Allocate_m
$LN2@Allocate_m:
  00039	33 c0		 xor	 eax, eax
  0003b	75 eb		 jne	 SHORT $LN4@Allocate_m

; 122  :     void* const _Ptr = reinterpret_cast<void*>((_Ptr_container + _Non_user_size) & ~(_Big_allocation_alignment - 1));

  0003d	8b 45 fc	 mov	 eax, DWORD PTR __Ptr_container$[ebp]
  00040	83 c0 23	 add	 eax, 35			; 00000023H
  00043	83 e0 e0	 and	 eax, -32		; ffffffe0H
  00046	89 45 f4	 mov	 DWORD PTR __Ptr$[ebp], eax

; 123  :     static_cast<uintptr_t*>(_Ptr)[-1] = _Ptr_container;

  00049	6a 04		 push	 4
  0004b	58		 pop	 eax
  0004c	6b c0 ff	 imul	 eax, eax, -1
  0004f	8b 4d f4	 mov	 ecx, DWORD PTR __Ptr$[ebp]
  00052	8b 55 fc	 mov	 edx, DWORD PTR __Ptr_container$[ebp]
  00055	89 14 01	 mov	 DWORD PTR [ecx+eax], edx

; 124  : 
; 125  : #ifdef _DEBUG
; 126  :     static_cast<uintptr_t*>(_Ptr)[-2] = _Big_allocation_sentinel;
; 127  : #endif // _DEBUG
; 128  :     return _Ptr;

  00058	8b 45 f4	 mov	 eax, DWORD PTR __Ptr$[ebp]
$LN11@Allocate_m:

; 129  : }

  0005b	c9		 leave
  0005c	c3		 ret	 0
??$_Allocate_manually_vector_aligned@U_Default_allocate_traits@std@@@std@@YAPAXI@Z ENDP ; std::_Allocate_manually_vector_aligned<std::_Default_allocate_traits>
_TEXT	ENDS
; Function compile flags: /Odspy
; File C:\Program Files (x86)\Microsoft Visual Studio\2019\Community\VC\Tools\MSVC\14.28.29333\include\xmemory
;	COMDAT ??$_Destroy_in_place@PAU?$_Tree_node@U?$pair@$$CBV?$basic_string@DU?$char_traits@D@std@@V?$allocator@D@2@@std@@M@std@@PAX@std@@@std@@YAXAAPAU?$_Tree_node@U?$pair@$$CBV?$basic_string@DU?$char_traits@D@std@@V?$allocator@D@2@@std@@M@std@@PAX@0@@Z
_TEXT	SEGMENT
__Obj$ = 8						; size = 4
??$_Destroy_in_place@PAU?$_Tree_node@U?$pair@$$CBV?$basic_string@DU?$char_traits@D@std@@V?$allocator@D@2@@std@@M@std@@PAX@std@@@std@@YAXAAPAU?$_Tree_node@U?$pair@$$CBV?$basic_string@DU?$char_traits@D@std@@V?$allocator@D@2@@std@@M@std@@PAX@0@@Z PROC ; std::_Destroy_in_place<std::_Tree_node<std::pair<std::basic_string<char,std::char_traits<char>,std::allocator<char> > const ,float>,void *> *>, COMDAT

; 270  : /* _CONSTEXPR20_DYNALLOC */ void _Destroy_in_place(_Ty& _Obj) noexcept {

  00000	55		 push	 ebp
  00001	8b ec		 mov	 ebp, esp

; 271  : #if _HAS_IF_CONSTEXPR
; 272  :     if constexpr (is_array_v<_Ty>) {
; 273  :         _Destroy_range(_Obj, _Obj + extent_v<_Ty>);
; 274  :     } else
; 275  : #endif // _HAS_IF_CONSTEXPR
; 276  :     {
; 277  :         _Obj.~_Ty();
; 278  :     }
; 279  : }

  00003	5d		 pop	 ebp
  00004	c3		 ret	 0
??$_Destroy_in_place@PAU?$_Tree_node@U?$pair@$$CBV?$basic_string@DU?$char_traits@D@std@@V?$allocator@D@2@@std@@M@std@@PAX@std@@@std@@YAXAAPAU?$_Tree_node@U?$pair@$$CBV?$basic_string@DU?$char_traits@D@std@@V?$allocator@D@2@@std@@M@std@@PAX@0@@Z ENDP ; std::_Destroy_in_place<std::_Tree_node<std::pair<std::basic_string<char,std::char_traits<char>,std::allocator<char> > const ,float>,void *> *>
_TEXT	ENDS
; Function compile flags: /Odspy
; File C:\Program Files (x86)\Microsoft Visual Studio\2019\Community\VC\Tools\MSVC\14.28.29333\include\xtree
; File C:\Program Files (x86)\Microsoft Visual Studio\2019\Community\VC\Tools\MSVC\14.28.29333\include\xmemory
; File C:\Program Files (x86)\Microsoft Visual Studio\2019\Community\VC\Tools\MSVC\14.28.29333\include\xtree
; File C:\Program Files (x86)\Microsoft Visual Studio\2019\Community\VC\Tools\MSVC\14.28.29333\include\type_traits
; File C:\Program Files (x86)\Microsoft Visual Studio\2019\Community\VC\Tools\MSVC\14.28.29333\include\xtree
; File C:\Program Files (x86)\Microsoft Visual Studio\2019\Community\VC\Tools\MSVC\14.28.29333\include\xstddef
; File C:\Program Files (x86)\Microsoft Visual Studio\2019\Community\VC\Tools\MSVC\14.28.29333\include\xtree
; File C:\Program Files (x86)\Microsoft Visual Studio\2019\Community\VC\Tools\MSVC\14.28.29333\include\vcruntime_new.h
; File C:\Program Files (x86)\Microsoft Visual Studio\2019\Community\VC\Tools\MSVC\14.28.29333\include\type_traits
; File D:\Metin2 Server Files\mainline\SRC_2014\Metin2Client\MilesLib\SoundManager.cpp
; File C:\Program Files (x86)\Microsoft Visual Studio\2019\Community\VC\Tools\MSVC\14.28.29333\include\xtree
;	COMDAT ??$?0U?$pair@$$CBV?$basic_string@DU?$char_traits@D@std@@V?$allocator@D@2@@std@@M@std@@@?$_Tree_temp_node@V?$allocator@U?$_Tree_node@U?$pair@$$CBV?$basic_string@DU?$char_traits@D@std@@V?$allocator@D@2@@std@@M@std@@PAX@std@@@std@@@std@@QAE@AAV?$allocator@U?$_Tree_node@U?$pair@$$CBV?$basic_string@DU?$char_traits@D@std@@V?$allocator@D@2@@std@@M@std@@PAX@std@@@1@PAU?$_Tree_node@U?$pair@$$CBV?$basic_string@DU?$char_traits@D@std@@V?$allocator@D@2@@std@@M@std@@PAX@1@$$QAU?$pair@$$CBV?$basic_string@DU?$char_traits@D@std@@V?$allocator@D@2@@std@@M@1@@Z
_TEXT	SEGMENT
___formal$ = -40					; size = 4
$T2 = -36						; size = 4
$T3 = -32						; size = 4
__Val$ = -28						; size = 4
$T4 = -24						; size = 4
$T5 = -20						; size = 4
_this$ = -16						; size = 4
__$EHRec$ = -12						; size = 12
__Al_$ = 8						; size = 4
__Myhead$ = 12						; size = 4
_<_Vals_0>$ = 16					; size = 4
??$?0U?$pair@$$CBV?$basic_string@DU?$char_traits@D@std@@V?$allocator@D@2@@std@@M@std@@@?$_Tree_temp_node@V?$allocator@U?$_Tree_node@U?$pair@$$CBV?$basic_string@DU?$char_traits@D@std@@V?$allocator@D@2@@std@@M@std@@PAX@std@@@std@@@std@@QAE@AAV?$allocator@U?$_Tree_node@U?$pair@$$CBV?$basic_string@DU?$char_traits@D@std@@V?$allocator@D@2@@std@@M@std@@PAX@std@@@1@PAU?$_Tree_node@U?$pair@$$CBV?$basic_string@DU?$char_traits@D@std@@V?$allocator@D@2@@std@@M@std@@PAX@1@$$QAU?$pair@$$CBV?$basic_string@DU?$char_traits@D@std@@V?$allocator@D@2@@std@@M@1@@Z PROC ; std::_Tree_temp_node<std::allocator<std::_Tree_node<std::pair<std::basic_string<char,std::char_traits<char>,std::allocator<char> > const ,float>,void *> > >::_Tree_temp_node<std::allocator<std::_Tree_node<std::pair<std::basic_string<char,std::char_traits<char>,std::allocator<char> > const ,float>,void *> > ><std::pair<std::basic_string<char,std::char_traits<char>,std::allocator<char> > const ,float> >, COMDAT
; _this$ = ecx

; 805  :         : _Tree_temp_node_alloc<_Alnode>(_Al_) {

  00000	55		 push	 ebp
  00001	8b ec		 mov	 ebp, esp
  00003	6a ff		 push	 -1
  00005	68 00 00 00 00	 push	 __ehhandler$??$?0U?$pair@$$CBV?$basic_string@DU?$char_traits@D@std@@V?$allocator@D@2@@std@@M@std@@@?$_Tree_temp_node@V?$allocator@U?$_Tree_node@U?$pair@$$CBV?$basic_string@DU?$char_traits@D@std@@V?$allocator@D@2@@std@@M@std@@PAX@std@@@std@@@std@@QAE@AAV?$allocator@U?$_Tree_node@U?$pair@$$CBV?$basic_string@DU?$char_traits@D@std@@V?$allocator@D@2@@std@@M@std@@PAX@std@@@1@PAU?$_Tree_node@U?$pair@$$CBV?$basic_string@DU?$char_traits@D@std@@V?$allocator@D@2@@std@@M@std@@PAX@1@$$QAU?$pair@$$CBV?$basic_string@DU?$char_traits@D@std@@V?$allocator@D@2@@std@@M@1@@Z
  0000a	64 a1 00 00 00
	00		 mov	 eax, DWORD PTR fs:0
  00010	50		 push	 eax
  00011	83 ec 1c	 sub	 esp, 28			; 0000001cH
  00014	a1 00 00 00 00	 mov	 eax, DWORD PTR ___security_cookie
  00019	33 c5		 xor	 eax, ebp
  0001b	50		 push	 eax
  0001c	8d 45 f4	 lea	 eax, DWORD PTR __$EHRec$[ebp]
  0001f	64 a3 00 00 00
	00		 mov	 DWORD PTR fs:0, eax
  00025	89 4d f0	 mov	 DWORD PTR _this$[ebp], ecx
; File C:\Program Files (x86)\Microsoft Visual Studio\2019\Community\VC\Tools\MSVC\14.28.29333\include\xmemory

; 1045 :     explicit _Alloc_construct_ptr(_Alloc& _Al_) : _Al(_Al_), _Ptr(nullptr) {}

  00028	8b 45 f0	 mov	 eax, DWORD PTR _this$[ebp]
  0002b	8b 4d 08	 mov	 ecx, DWORD PTR __Al_$[ebp]
  0002e	89 08		 mov	 DWORD PTR [eax], ecx
  00030	8b 45 f0	 mov	 eax, DWORD PTR _this$[ebp]
  00033	83 60 04 00	 and	 DWORD PTR [eax+4], 0
; File C:\Program Files (x86)\Microsoft Visual Studio\2019\Community\VC\Tools\MSVC\14.28.29333\include\xtree

; 784  :     explicit _Tree_temp_node_alloc(_Alnode& _Al_) : _Alloc_construct_ptr<_Alnode>(_Al_) {

  00037	83 65 fc 00	 and	 DWORD PTR __$EHRec$[ebp+8], 0

; 785  :         _Alloc_construct_ptr<_Alnode>::_Allocate();

  0003b	8b 4d f0	 mov	 ecx, DWORD PTR _this$[ebp]
  0003e	e8 00 00 00 00	 call	 ?_Allocate@?$_Alloc_construct_ptr@V?$allocator@U?$_Tree_node@U?$pair@$$CBV?$basic_string@DU?$char_traits@D@std@@V?$allocator@D@2@@std@@M@std@@PAX@std@@@std@@@std@@QAEXXZ ; std::_Alloc_construct_ptr<std::allocator<std::_Tree_node<std::pair<std::basic_string<char,std::char_traits<char>,std::allocator<char> > const ,float>,void *> > >::_Allocate

; 805  :         : _Tree_temp_node_alloc<_Alnode>(_Al_) {

  00043	c7 45 fc 01 00
	00 00		 mov	 DWORD PTR __$EHRec$[ebp+8], 1
; File C:\Program Files (x86)\Microsoft Visual Studio\2019\Community\VC\Tools\MSVC\14.28.29333\include\type_traits

; 1443 :     return static_cast<_Ty&&>(_Arg);

  0004a	8b 45 10	 mov	 eax, DWORD PTR _<_Vals_0>$[ebp]
  0004d	89 45 dc	 mov	 DWORD PTR $T2[ebp], eax
; File C:\Program Files (x86)\Microsoft Visual Studio\2019\Community\VC\Tools\MSVC\14.28.29333\include\xtree

; 806  :         _Alnode_traits::construct(this->_Al, _STD addressof(this->_Ptr->_Myval), _STD forward<_Valtys>(_Vals)...);

  00050	8b 45 f0	 mov	 eax, DWORD PTR _this$[ebp]
  00053	8b 40 04	 mov	 eax, DWORD PTR [eax+4]
  00056	83 c0 10	 add	 eax, 16			; 00000010H
  00059	89 45 e4	 mov	 DWORD PTR __Val$[ebp], eax
; File C:\Program Files (x86)\Microsoft Visual Studio\2019\Community\VC\Tools\MSVC\14.28.29333\include\xstddef

; 275  :     return __builtin_addressof(_Val);

  0005c	8b 45 e4	 mov	 eax, DWORD PTR __Val$[ebp]
  0005f	89 45 e0	 mov	 DWORD PTR $T3[ebp], eax
; File C:\Program Files (x86)\Microsoft Visual Studio\2019\Community\VC\Tools\MSVC\14.28.29333\include\xtree

; 806  :         _Alnode_traits::construct(this->_Al, _STD addressof(this->_Ptr->_Myval), _STD forward<_Valtys>(_Vals)...);

  00062	8b 45 f0	 mov	 eax, DWORD PTR _this$[ebp]
  00065	8b 00		 mov	 eax, DWORD PTR [eax]
  00067	89 45 d8	 mov	 DWORD PTR ___formal$[ebp], eax
; File C:\Program Files (x86)\Microsoft Visual Studio\2019\Community\VC\Tools\MSVC\14.28.29333\include\vcruntime_new.h

; 169  :         return _Where;

  0006a	8b 45 e0	 mov	 eax, DWORD PTR $T3[ebp]
  0006d	89 45 ec	 mov	 DWORD PTR $T5[ebp], eax
; File C:\Program Files (x86)\Microsoft Visual Studio\2019\Community\VC\Tools\MSVC\14.28.29333\include\type_traits

; 1443 :     return static_cast<_Ty&&>(_Arg);

  00070	8b 45 dc	 mov	 eax, DWORD PTR $T2[ebp]
  00073	89 45 e8	 mov	 DWORD PTR $T4[ebp], eax
; File D:\Metin2 Server Files\mainline\SRC_2014\Metin2Client\MilesLib\SoundManager.cpp

  00076	ff 75 e8	 push	 DWORD PTR $T4[ebp]
  00079	8b 4d ec	 mov	 ecx, DWORD PTR $T5[ebp]
  0007c	e8 00 00 00 00	 call	 ??0?$basic_string@DU?$char_traits@D@std@@V?$allocator@D@2@@std@@QAE@ABV01@@Z ; std::basic_string<char,std::char_traits<char>,std::allocator<char> >::basic_string<char,std::char_traits<char>,std::allocator<char> >
  00081	8b 45 ec	 mov	 eax, DWORD PTR $T5[ebp]
  00084	8b 4d e8	 mov	 ecx, DWORD PTR $T4[ebp]
  00087	8b 49 18	 mov	 ecx, DWORD PTR [ecx+24]
  0008a	89 48 18	 mov	 DWORD PTR [eax+24], ecx
; File C:\Program Files (x86)\Microsoft Visual Studio\2019\Community\VC\Tools\MSVC\14.28.29333\include\xtree

; 807  :         _Construct_in_place(this->_Ptr->_Left, _Myhead);

  0008d	8d 45 0c	 lea	 eax, DWORD PTR __Myhead$[ebp]
  00090	50		 push	 eax
  00091	8b 45 f0	 mov	 eax, DWORD PTR _this$[ebp]
  00094	ff 70 04	 push	 DWORD PTR [eax+4]
  00097	e8 00 00 00 00	 call	 ??$_Construct_in_place@PAU?$_Tree_node@U?$pair@$$CBV?$basic_string@DU?$char_traits@D@std@@V?$allocator@D@2@@std@@M@std@@PAX@std@@AAPAU12@@std@@YAXAAPAU?$_Tree_node@U?$pair@$$CBV?$basic_string@DU?$char_traits@D@std@@V?$allocator@D@2@@std@@M@std@@PAX@0@0@Z ; std::_Construct_in_place<std::_Tree_node<std::pair<std::basic_string<char,std::char_traits<char>,std::allocator<char> > const ,float>,void *> *,std::_Tree_node<std::pair<std::basic_string<char,std::char_traits<char>,std::allocator<char> > const ,float>,void *> * &>
  0009c	59		 pop	 ecx
  0009d	59		 pop	 ecx

; 808  :         _Construct_in_place(this->_Ptr->_Parent, _Myhead);

  0009e	8d 45 0c	 lea	 eax, DWORD PTR __Myhead$[ebp]
  000a1	50		 push	 eax
  000a2	8b 45 f0	 mov	 eax, DWORD PTR _this$[ebp]
  000a5	8b 40 04	 mov	 eax, DWORD PTR [eax+4]
  000a8	83 c0 04	 add	 eax, 4
  000ab	50		 push	 eax
  000ac	e8 00 00 00 00	 call	 ??$_Construct_in_place@PAU?$_Tree_node@U?$pair@$$CBV?$basic_string@DU?$char_traits@D@std@@V?$allocator@D@2@@std@@M@std@@PAX@std@@AAPAU12@@std@@YAXAAPAU?$_Tree_node@U?$pair@$$CBV?$basic_string@DU?$char_traits@D@std@@V?$allocator@D@2@@std@@M@std@@PAX@0@0@Z ; std::_Construct_in_place<std::_Tree_node<std::pair<std::basic_string<char,std::char_traits<char>,std::allocator<char> > const ,float>,void *> *,std::_Tree_node<std::pair<std::basic_string<char,std::char_traits<char>,std::allocator<char> > const ,float>,void *> * &>
  000b1	59		 pop	 ecx
  000b2	59		 pop	 ecx

; 809  :         _Construct_in_place(this->_Ptr->_Right, _Myhead);

  000b3	8d 45 0c	 lea	 eax, DWORD PTR __Myhead$[ebp]
  000b6	50		 push	 eax
  000b7	8b 45 f0	 mov	 eax, DWORD PTR _this$[ebp]
  000ba	8b 40 04	 mov	 eax, DWORD PTR [eax+4]
  000bd	83 c0 08	 add	 eax, 8
  000c0	50		 push	 eax
  000c1	e8 00 00 00 00	 call	 ??$_Construct_in_place@PAU?$_Tree_node@U?$pair@$$CBV?$basic_string@DU?$char_traits@D@std@@V?$allocator@D@2@@std@@M@std@@PAX@std@@AAPAU12@@std@@YAXAAPAU?$_Tree_node@U?$pair@$$CBV?$basic_string@DU?$char_traits@D@std@@V?$allocator@D@2@@std@@M@std@@PAX@0@0@Z ; std::_Construct_in_place<std::_Tree_node<std::pair<std::basic_string<char,std::char_traits<char>,std::allocator<char> > const ,float>,void *> *,std::_Tree_node<std::pair<std::basic_string<char,std::char_traits<char>,std::allocator<char> > const ,float>,void *> * &>
  000c6	59		 pop	 ecx
  000c7	59		 pop	 ecx

; 810  :         this->_Ptr->_Color = _Red;

  000c8	8b 45 f0	 mov	 eax, DWORD PTR _this$[ebp]
  000cb	8b 40 04	 mov	 eax, DWORD PTR [eax+4]
  000ce	c6 40 0c 00	 mov	 BYTE PTR [eax+12], 0

; 811  :         this->_Ptr->_Isnil = false;

  000d2	8b 45 f0	 mov	 eax, DWORD PTR _this$[ebp]
  000d5	8b 40 04	 mov	 eax, DWORD PTR [eax+4]
  000d8	c6 40 0d 00	 mov	 BYTE PTR [eax+13], 0

; 812  :     }

  000dc	83 4d fc ff	 or	 DWORD PTR __$EHRec$[ebp+8], -1
  000e0	8b 45 f0	 mov	 eax, DWORD PTR _this$[ebp]
  000e3	8b 4d f4	 mov	 ecx, DWORD PTR __$EHRec$[ebp]
  000e6	64 89 0d 00 00
	00 00		 mov	 DWORD PTR fs:0, ecx
  000ed	59		 pop	 ecx
  000ee	c9		 leave
  000ef	c2 0c 00	 ret	 12			; 0000000cH
_TEXT	ENDS
;	COMDAT text$x
text$x	SEGMENT
__unwindfunclet$??$?0U?$pair@$$CBV?$basic_string@DU?$char_traits@D@std@@V?$allocator@D@2@@std@@M@std@@@?$_Tree_temp_node@V?$allocator@U?$_Tree_node@U?$pair@$$CBV?$basic_string@DU?$char_traits@D@std@@V?$allocator@D@2@@std@@M@std@@PAX@std@@@std@@@std@@QAE@AAV?$allocator@U?$_Tree_node@U?$pair@$$CBV?$basic_string@DU?$char_traits@D@std@@V?$allocator@D@2@@std@@M@std@@PAX@std@@@1@PAU?$_Tree_node@U?$pair@$$CBV?$basic_string@DU?$char_traits@D@std@@V?$allocator@D@2@@std@@M@std@@PAX@1@$$QAU?$pair@$$CBV?$basic_string@DU?$char_traits@D@std@@V?$allocator@D@2@@std@@M@1@@Z$1:
  00000	8b 4d f0	 mov	 ecx, DWORD PTR _this$[ebp]
  00003	e9 00 00 00 00	 jmp	 ??1?$_Alloc_construct_ptr@V?$allocator@U?$_Tree_node@U?$pair@$$CBV?$basic_string@DU?$char_traits@D@std@@V?$allocator@D@2@@std@@M@std@@PAX@std@@@std@@@std@@QAE@XZ ; std::_Alloc_construct_ptr<std::allocator<std::_Tree_node<std::pair<std::basic_string<char,std::char_traits<char>,std::allocator<char> > const ,float>,void *> > >::~_Alloc_construct_ptr<std::allocator<std::_Tree_node<std::pair<std::basic_string<char,std::char_traits<char>,std::allocator<char> > const ,float>,void *> > >
__unwindfunclet$??$?0U?$pair@$$CBV?$basic_string@DU?$char_traits@D@std@@V?$allocator@D@2@@std@@M@std@@@?$_Tree_temp_node@V?$allocator@U?$_Tree_node@U?$pair@$$CBV?$basic_string@DU?$char_traits@D@std@@V?$allocator@D@2@@std@@M@std@@PAX@std@@@std@@@std@@QAE@AAV?$allocator@U?$_Tree_node@U?$pair@$$CBV?$basic_string@DU?$char_traits@D@std@@V?$allocator@D@2@@std@@M@std@@PAX@std@@@1@PAU?$_Tree_node@U?$pair@$$CBV?$basic_string@DU?$char_traits@D@std@@V?$allocator@D@2@@std@@M@std@@PAX@1@$$QAU?$pair@$$CBV?$basic_string@DU?$char_traits@D@std@@V?$allocator@D@2@@std@@M@1@@Z$0:
  00008	8b 4d f0	 mov	 ecx, DWORD PTR _this$[ebp]
  0000b	e9 00 00 00 00	 jmp	 ??1?$_Tree_temp_node_alloc@V?$allocator@U?$_Tree_node@U?$pair@$$CBV?$basic_string@DU?$char_traits@D@std@@V?$allocator@D@2@@std@@M@std@@PAX@std@@@std@@@std@@QAE@XZ
  00010	cc		 int	 3
  00011	cc		 int	 3
  00012	cc		 int	 3
  00013	cc		 int	 3
  00014	cc		 int	 3
__ehhandler$??$?0U?$pair@$$CBV?$basic_string@DU?$char_traits@D@std@@V?$allocator@D@2@@std@@M@std@@@?$_Tree_temp_node@V?$allocator@U?$_Tree_node@U?$pair@$$CBV?$basic_string@DU?$char_traits@D@std@@V?$allocator@D@2@@std@@M@std@@PAX@std@@@std@@@std@@QAE@AAV?$allocator@U?$_Tree_node@U?$pair@$$CBV?$basic_string@DU?$char_traits@D@std@@V?$allocator@D@2@@std@@M@std@@PAX@std@@@1@PAU?$_Tree_node@U?$pair@$$CBV?$basic_string@DU?$char_traits@D@std@@V?$allocator@D@2@@std@@M@std@@PAX@1@$$QAU?$pair@$$CBV?$basic_string@DU?$char_traits@D@std@@V?$allocator@D@2@@std@@M@1@@Z:
  00015	90		 npad	 1
  00016	90		 npad	 1
  00017	8b 54 24 08	 mov	 edx, DWORD PTR [esp+8]
  0001b	8d 42 0c	 lea	 eax, DWORD PTR [edx+12]
  0001e	8b 4a e0	 mov	 ecx, DWORD PTR [edx-32]
  00021	33 c8		 xor	 ecx, eax
  00023	e8 00 00 00 00	 call	 @__security_check_cookie@4
  00028	b8 00 00 00 00	 mov	 eax, OFFSET __ehfuncinfo$??$?0U?$pair@$$CBV?$basic_string@DU?$char_traits@D@std@@V?$allocator@D@2@@std@@M@std@@@?$_Tree_temp_node@V?$allocator@U?$_Tree_node@U?$pair@$$CBV?$basic_string@DU?$char_traits@D@std@@V?$allocator@D@2@@std@@M@std@@PAX@std@@@std@@@std@@QAE@AAV?$allocator@U?$_Tree_node@U?$pair@$$CBV?$basic_string@DU?$char_traits@D@std@@V?$allocator@D@2@@std@@M@std@@PAX@std@@@1@PAU?$_Tree_node@U?$pair@$$CBV?$basic_string@DU?$char_traits@D@std@@V?$allocator@D@2@@std@@M@std@@PAX@1@$$QAU?$pair@$$CBV?$basic_string@DU?$char_traits@D@std@@V?$allocator@D@2@@std@@M@1@@Z
  0002d	e9 00 00 00 00	 jmp	 ___CxxFrameHandler3
text$x	ENDS
??$?0U?$pair@$$CBV?$basic_string@DU?$char_traits@D@std@@V?$allocator@D@2@@std@@M@std@@@?$_Tree_temp_node@V?$allocator@U?$_Tree_node@U?$pair@$$CBV?$basic_string@DU?$char_traits@D@std@@V?$allocator@D@2@@std@@M@std@@PAX@std@@@std@@@std@@QAE@AAV?$allocator@U?$_Tree_node@U?$pair@$$CBV?$basic_string@DU?$char_traits@D@std@@V?$allocator@D@2@@std@@M@std@@PAX@std@@@1@PAU?$_Tree_node@U?$pair@$$CBV?$basic_string@DU?$char_traits@D@std@@V?$allocator@D@2@@std@@M@std@@PAX@1@$$QAU?$pair@$$CBV?$basic_string@DU?$char_traits@D@std@@V?$allocator@D@2@@std@@M@1@@Z ENDP ; std::_Tree_temp_node<std::allocator<std::_Tree_node<std::pair<std::basic_string<char,std::char_traits<char>,std::allocator<char> > const ,float>,void *> > >::_Tree_temp_node<std::allocator<std::_Tree_node<std::pair<std::basic_string<char,std::char_traits<char>,std::allocator<char> > const ,float>,void *> > ><std::pair<std::basic_string<char,std::char_traits<char>,std::allocator<char> > const ,float> >
; Function compile flags: /Odspy
; File C:\Program Files (x86)\Microsoft Visual Studio\2019\Community\VC\Tools\MSVC\14.28.29333\include\xtree
; File C:\Program Files (x86)\Microsoft Visual Studio\2019\Community\VC\Tools\MSVC\14.28.29333\include\xstddef
; File C:\Program Files (x86)\Microsoft Visual Studio\2019\Community\VC\Tools\MSVC\14.28.29333\include\xtree
; File C:\Program Files (x86)\Microsoft Visual Studio\2019\Community\VC\Tools\MSVC\14.28.29333\include\xstring
; File C:\Program Files (x86)\Microsoft Visual Studio\2019\Community\VC\Tools\MSVC\14.28.29333\include\xtree
;	COMDAT ??1?$_Tree_temp_node@V?$allocator@U?$_Tree_node@U?$pair@$$CBV?$basic_string@DU?$char_traits@D@std@@V?$allocator@D@2@@std@@M@std@@PAX@std@@@std@@@std@@QAE@XZ
_TEXT	SEGMENT
___formal$ = -16					; size = 4
__Val$ = -12						; size = 4
$T1 = -8						; size = 4
_this$ = -4						; size = 4
??1?$_Tree_temp_node@V?$allocator@U?$_Tree_node@U?$pair@$$CBV?$basic_string@DU?$char_traits@D@std@@V?$allocator@D@2@@std@@M@std@@PAX@std@@@std@@@std@@QAE@XZ PROC ; std::_Tree_temp_node<std::allocator<std::_Tree_node<std::pair<std::basic_string<char,std::char_traits<char>,std::allocator<char> > const ,float>,void *> > >::~_Tree_temp_node<std::allocator<std::_Tree_node<std::pair<std::basic_string<char,std::char_traits<char>,std::allocator<char> > const ,float>,void *> > >, COMDAT
; _this$ = ecx

; 817  :     ~_Tree_temp_node() {

  00000	55		 push	 ebp
  00001	8b ec		 mov	 ebp, esp
  00003	83 ec 10	 sub	 esp, 16			; 00000010H
  00006	89 4d fc	 mov	 DWORD PTR _this$[ebp], ecx

; 818  :         if (this->_Ptr) {

  00009	8b 45 fc	 mov	 eax, DWORD PTR _this$[ebp]
  0000c	83 78 04 00	 cmp	 DWORD PTR [eax+4], 0
  00010	74 61		 je	 SHORT $LN28@Tree_temp_

; 819  :             _Destroy_in_place(this->_Ptr->_Left);

  00012	8b 45 fc	 mov	 eax, DWORD PTR _this$[ebp]
  00015	ff 70 04	 push	 DWORD PTR [eax+4]
  00018	e8 00 00 00 00	 call	 ??$_Destroy_in_place@PAU?$_Tree_node@U?$pair@$$CBV?$basic_string@DU?$char_traits@D@std@@V?$allocator@D@2@@std@@M@std@@PAX@std@@@std@@YAXAAPAU?$_Tree_node@U?$pair@$$CBV?$basic_string@DU?$char_traits@D@std@@V?$allocator@D@2@@std@@M@std@@PAX@0@@Z ; std::_Destroy_in_place<std::_Tree_node<std::pair<std::basic_string<char,std::char_traits<char>,std::allocator<char> > const ,float>,void *> *>
  0001d	59		 pop	 ecx

; 820  :             _Destroy_in_place(this->_Ptr->_Parent);

  0001e	8b 45 fc	 mov	 eax, DWORD PTR _this$[ebp]
  00021	8b 40 04	 mov	 eax, DWORD PTR [eax+4]
  00024	83 c0 04	 add	 eax, 4
  00027	50		 push	 eax
  00028	e8 00 00 00 00	 call	 ??$_Destroy_in_place@PAU?$_Tree_node@U?$pair@$$CBV?$basic_string@DU?$char_traits@D@std@@V?$allocator@D@2@@std@@M@std@@PAX@std@@@std@@YAXAAPAU?$_Tree_node@U?$pair@$$CBV?$basic_string@DU?$char_traits@D@std@@V?$allocator@D@2@@std@@M@std@@PAX@0@@Z ; std::_Destroy_in_place<std::_Tree_node<std::pair<std::basic_string<char,std::char_traits<char>,std::allocator<char> > const ,float>,void *> *>
  0002d	59		 pop	 ecx

; 821  :             _Destroy_in_place(this->_Ptr->_Right);

  0002e	8b 45 fc	 mov	 eax, DWORD PTR _this$[ebp]
  00031	8b 40 04	 mov	 eax, DWORD PTR [eax+4]
  00034	83 c0 08	 add	 eax, 8
  00037	50		 push	 eax
  00038	e8 00 00 00 00	 call	 ??$_Destroy_in_place@PAU?$_Tree_node@U?$pair@$$CBV?$basic_string@DU?$char_traits@D@std@@V?$allocator@D@2@@std@@M@std@@PAX@std@@@std@@YAXAAPAU?$_Tree_node@U?$pair@$$CBV?$basic_string@DU?$char_traits@D@std@@V?$allocator@D@2@@std@@M@std@@PAX@0@@Z ; std::_Destroy_in_place<std::_Tree_node<std::pair<std::basic_string<char,std::char_traits<char>,std::allocator<char> > const ,float>,void *> *>
  0003d	59		 pop	 ecx

; 822  :             _Alnode_traits::destroy(this->_Al, _STD addressof(this->_Ptr->_Myval));

  0003e	8b 45 fc	 mov	 eax, DWORD PTR _this$[ebp]
  00041	8b 40 04	 mov	 eax, DWORD PTR [eax+4]
  00044	83 c0 10	 add	 eax, 16			; 00000010H
  00047	89 45 f4	 mov	 DWORD PTR __Val$[ebp], eax
; File C:\Program Files (x86)\Microsoft Visual Studio\2019\Community\VC\Tools\MSVC\14.28.29333\include\xstddef

; 275  :     return __builtin_addressof(_Val);

  0004a	8b 45 f4	 mov	 eax, DWORD PTR __Val$[ebp]
  0004d	89 45 f8	 mov	 DWORD PTR $T1[ebp], eax
; File C:\Program Files (x86)\Microsoft Visual Studio\2019\Community\VC\Tools\MSVC\14.28.29333\include\xtree

; 822  :             _Alnode_traits::destroy(this->_Al, _STD addressof(this->_Ptr->_Myval));

  00050	8b 45 fc	 mov	 eax, DWORD PTR _this$[ebp]
  00053	8b 00		 mov	 eax, DWORD PTR [eax]
  00055	89 45 f0	 mov	 DWORD PTR ___formal$[ebp], eax
; File C:\Program Files (x86)\Microsoft Visual Studio\2019\Community\VC\Tools\MSVC\14.28.29333\include\xstring

; 2801 :         _Tidy_deallocate();

  00058	8b 4d f8	 mov	 ecx, DWORD PTR $T1[ebp]
  0005b	e8 00 00 00 00	 call	 ?_Tidy_deallocate@?$basic_string@DU?$char_traits@D@std@@V?$allocator@D@2@@std@@AAEXXZ ; std::basic_string<char,std::char_traits<char>,std::allocator<char> >::_Tidy_deallocate
  00060	33 c0		 xor	 eax, eax
  00062	83 e0 01	 and	 eax, 1
  00065	74 0c		 je	 SHORT $LN28@Tree_temp_
  00067	6a 1c		 push	 28			; 0000001cH
  00069	ff 75 f8	 push	 DWORD PTR $T1[ebp]
  0006c	e8 00 00 00 00	 call	 ??3@YAXPAXI@Z		; operator delete
  00071	59		 pop	 ecx
  00072	59		 pop	 ecx
$LN28@Tree_temp_:
  00073	8b 4d fc	 mov	 ecx, DWORD PTR _this$[ebp]
  00076	e8 00 00 00 00	 call	 ??1?$_Alloc_construct_ptr@V?$allocator@U?$_Tree_node@U?$pair@$$CBV?$basic_string@DU?$char_traits@D@std@@V?$allocator@D@2@@std@@M@std@@PAX@std@@@std@@@std@@QAE@XZ ; std::_Alloc_construct_ptr<std::allocator<std::_Tree_node<std::pair<std::basic_string<char,std::char_traits<char>,std::allocator<char> > const ,float>,void *> > >::~_Alloc_construct_ptr<std::allocator<std::_Tree_node<std::pair<std::basic_string<char,std::char_traits<char>,std::allocator<char> > const ,float>,void *> > >
; File C:\Program Files (x86)\Microsoft Visual Studio\2019\Community\VC\Tools\MSVC\14.28.29333\include\xtree

; 824  :     }

  0007b	c9		 leave
  0007c	c3		 ret	 0
??1?$_Tree_temp_node@V?$allocator@U?$_Tree_node@U?$pair@$$CBV?$basic_string@DU?$char_traits@D@std@@V?$allocator@D@2@@std@@M@std@@PAX@std@@@std@@@std@@QAE@XZ ENDP ; std::_Tree_temp_node<std::allocator<std::_Tree_node<std::pair<std::basic_string<char,std::char_traits<char>,std::allocator<char> > const ,float>,void *> > >::~_Tree_temp_node<std::allocator<std::_Tree_node<std::pair<std::basic_string<char,std::char_traits<char>,std::allocator<char> > const ,float>,void *> > >
_TEXT	ENDS
; Function compile flags: /Odspy
;	COMDAT ??1?$_Tree_temp_node_alloc@V?$allocator@U?$_Tree_node@U?$pair@$$CBV?$basic_string@DU?$char_traits@D@std@@V?$allocator@D@2@@std@@M@std@@PAX@std@@@std@@@std@@QAE@XZ
_TEXT	SEGMENT
_this$ = -4						; size = 4
??1?$_Tree_temp_node_alloc@V?$allocator@U?$_Tree_node@U?$pair@$$CBV?$basic_string@DU?$char_traits@D@std@@V?$allocator@D@2@@std@@M@std@@PAX@std@@@std@@@std@@QAE@XZ PROC ; std::_Tree_temp_node_alloc<std::allocator<std::_Tree_node<std::pair<std::basic_string<char,std::char_traits<char>,std::allocator<char> > const ,float>,void *> > >::~_Tree_temp_node_alloc<std::allocator<std::_Tree_node<std::pair<std::basic_string<char,std::char_traits<char>,std::allocator<char> > const ,float>,void *> > >, COMDAT
; _this$ = ecx
  00000	55		 push	 ebp
  00001	8b ec		 mov	 ebp, esp
  00003	51		 push	 ecx
  00004	89 4d fc	 mov	 DWORD PTR _this$[ebp], ecx
  00007	8b 4d fc	 mov	 ecx, DWORD PTR _this$[ebp]
  0000a	e8 00 00 00 00	 call	 ??1?$_Alloc_construct_ptr@V?$allocator@U?$_Tree_node@U?$pair@$$CBV?$basic_string@DU?$char_traits@D@std@@V?$allocator@D@2@@std@@M@std@@PAX@std@@@std@@@std@@QAE@XZ ; std::_Alloc_construct_ptr<std::allocator<std::_Tree_node<std::pair<std::basic_string<char,std::char_traits<char>,std::allocator<char> > const ,float>,void *> > >::~_Alloc_construct_ptr<std::allocator<std::_Tree_node<std::pair<std::basic_string<char,std::char_traits<char>,std::allocator<char> > const ,float>,void *> > >
  0000f	c9		 leave
  00010	c3		 ret	 0
??1?$_Tree_temp_node_alloc@V?$allocator@U?$_Tree_node@U?$pair@$$CBV?$basic_string@DU?$char_traits@D@std@@V?$allocator@D@2@@std@@M@std@@PAX@std@@@std@@@std@@QAE@XZ ENDP ; std::_Tree_temp_node_alloc<std::allocator<std::_Tree_node<std::pair<std::basic_string<char,std::char_traits<char>,std::allocator<char> > const ,float>,void *> > >::~_Tree_temp_node_alloc<std::allocator<std::_Tree_node<std::pair<std::basic_string<char,std::char_traits<char>,std::allocator<char> > const ,float>,void *> > >
_TEXT	ENDS
; Function compile flags: /Odspy
; File C:\Program Files (x86)\Microsoft Visual Studio\2019\Community\VC\Tools\MSVC\14.28.29333\include\xmemory
;	COMDAT ??1?$_Alloc_construct_ptr@V?$allocator@U?$_Tree_node@U?$pair@$$CBV?$basic_string@DU?$char_traits@D@std@@V?$allocator@D@2@@std@@M@std@@PAX@std@@@std@@@std@@QAE@XZ
_TEXT	SEGMENT
_this$ = -12						; size = 4
__Ptr$ = -8						; size = 4
_this$ = -4						; size = 4
??1?$_Alloc_construct_ptr@V?$allocator@U?$_Tree_node@U?$pair@$$CBV?$basic_string@DU?$char_traits@D@std@@V?$allocator@D@2@@std@@M@std@@PAX@std@@@std@@@std@@QAE@XZ PROC ; std::_Alloc_construct_ptr<std::allocator<std::_Tree_node<std::pair<std::basic_string<char,std::char_traits<char>,std::allocator<char> > const ,float>,void *> > >::~_Alloc_construct_ptr<std::allocator<std::_Tree_node<std::pair<std::basic_string<char,std::char_traits<char>,std::allocator<char> > const ,float>,void *> > >, COMDAT
; _this$ = ecx

; 1056 :     ~_Alloc_construct_ptr() { // if this instance is engaged, deallocate storage

  00000	55		 push	 ebp
  00001	8b ec		 mov	 ebp, esp
  00003	83 ec 0c	 sub	 esp, 12			; 0000000cH
  00006	89 4d fc	 mov	 DWORD PTR _this$[ebp], ecx

; 1057 :         if (_Ptr) {

  00009	8b 45 fc	 mov	 eax, DWORD PTR _this$[ebp]
  0000c	83 78 04 00	 cmp	 DWORD PTR [eax+4], 0
  00010	74 22		 je	 SHORT $LN3@Alloc_cons

; 1058 :             _Al.deallocate(_Ptr, 1);

  00012	8b 45 fc	 mov	 eax, DWORD PTR _this$[ebp]
  00015	8b 40 04	 mov	 eax, DWORD PTR [eax+4]
  00018	89 45 f8	 mov	 DWORD PTR __Ptr$[ebp], eax
  0001b	8b 45 fc	 mov	 eax, DWORD PTR _this$[ebp]
  0001e	8b 00		 mov	 eax, DWORD PTR [eax]
  00020	89 45 f4	 mov	 DWORD PTR _this$[ebp], eax

; 810  :         _Deallocate<_New_alignof<_Ty>>(_Ptr, sizeof(_Ty) * _Count);

  00023	33 c0		 xor	 eax, eax
  00025	40		 inc	 eax
  00026	6b c0 2c	 imul	 eax, eax, 44
  00029	50		 push	 eax
  0002a	ff 75 f8	 push	 DWORD PTR __Ptr$[ebp]
  0002d	e8 00 00 00 00	 call	 ??$_Deallocate@$07$0A@@std@@YAXPAXI@Z ; std::_Deallocate<8,0>
  00032	59		 pop	 ecx
  00033	59		 pop	 ecx
$LN3@Alloc_cons:

; 1059 :         }
; 1060 :     }

  00034	c9		 leave
  00035	c3		 ret	 0
??1?$_Alloc_construct_ptr@V?$allocator@U?$_Tree_node@U?$pair@$$CBV?$basic_string@DU?$char_traits@D@std@@V?$allocator@D@2@@std@@M@std@@PAX@std@@@std@@@std@@QAE@XZ ENDP ; std::_Alloc_construct_ptr<std::allocator<std::_Tree_node<std::pair<std::basic_string<char,std::char_traits<char>,std::allocator<char> > const ,float>,void *> > >::~_Alloc_construct_ptr<std::allocator<std::_Tree_node<std::pair<std::basic_string<char,std::char_traits<char>,std::allocator<char> > const ,float>,void *> > >
_TEXT	ENDS
; Function compile flags: /Odspy
; File C:\Program Files (x86)\Microsoft Visual Studio\2019\Community\VC\Tools\MSVC\14.28.29333\include\xmemory
;	COMDAT ?_Allocate@?$_Alloc_construct_ptr@V?$allocator@U?$_Tree_node@U?$pair@$$CBV?$basic_string@DU?$char_traits@D@std@@V?$allocator@D@2@@std@@M@std@@PAX@std@@@std@@@std@@QAEXXZ
_TEXT	SEGMENT
__Max_possible$1 = -24					; size = 4
_this$ = -20						; size = 4
$T2 = -16						; size = 4
$T3 = -12						; size = 4
_this$ = -8						; size = 4
__Overflow_is_possible$4 = -1				; size = 1
?_Allocate@?$_Alloc_construct_ptr@V?$allocator@U?$_Tree_node@U?$pair@$$CBV?$basic_string@DU?$char_traits@D@std@@V?$allocator@D@2@@std@@M@std@@PAX@std@@@std@@@std@@QAEXXZ PROC ; std::_Alloc_construct_ptr<std::allocator<std::_Tree_node<std::pair<std::basic_string<char,std::char_traits<char>,std::allocator<char> > const ,float>,void *> > >::_Allocate, COMDAT
; _this$ = ecx

; 1051 :     void _Allocate() { // disengage *this, then allocate a new memory block

  00000	55		 push	 ebp
  00001	8b ec		 mov	 ebp, esp
  00003	83 ec 18	 sub	 esp, 24			; 00000018H
  00006	89 4d f8	 mov	 DWORD PTR _this$[ebp], ecx

; 1052 :         _Ptr = nullptr; // if allocate throws, prevents double-free

  00009	8b 45 f8	 mov	 eax, DWORD PTR _this$[ebp]
  0000c	83 60 04 00	 and	 DWORD PTR [eax+4], 0

; 1053 :         _Ptr = _Al.allocate(1);

  00010	8b 45 f8	 mov	 eax, DWORD PTR _this$[ebp]
  00013	8b 00		 mov	 eax, DWORD PTR [eax]
  00015	89 45 ec	 mov	 DWORD PTR _this$[ebp], eax

; 56   :     constexpr bool _Overflow_is_possible = _Ty_size > 1;

  00018	c6 45 ff 01	 mov	 BYTE PTR __Overflow_is_possible$4[ebp], 1

; 57   : 
; 58   :     if _CONSTEXPR_IF (_Overflow_is_possible) {
; 59   :         constexpr size_t _Max_possible = static_cast<size_t>(-1) / _Ty_size;

  0001c	c7 45 e8 5d 74
	d1 05		 mov	 DWORD PTR __Max_possible$1[ebp], 97612893 ; 05d1745dH

; 60   :         if (_Count > _Max_possible) {

  00023	33 c0		 xor	 eax, eax
  00025	40		 inc	 eax
  00026	3d 5d 74 d1 05	 cmp	 eax, 97612893		; 05d1745dH
  0002b	76 05		 jbe	 SHORT $LN6@Allocate

; 61   :             _Throw_bad_array_new_length(); // multiply overflow

  0002d	e8 00 00 00 00	 call	 ?_Throw_bad_array_new_length@std@@YAXXZ ; std::_Throw_bad_array_new_length
$LN6@Allocate:

; 62   :         }
; 63   :     }
; 64   : 
; 65   :     return _Count * _Ty_size;

  00032	33 c0		 xor	 eax, eax
  00034	40		 inc	 eax
  00035	6b c0 2c	 imul	 eax, eax, 44
  00038	89 45 f4	 mov	 DWORD PTR $T3[ebp], eax

; 814  :         return static_cast<_Ty*>(_Allocate<_New_alignof<_Ty>>(_Get_size_of_n<sizeof(_Ty)>(_Count)));

  0003b	ff 75 f4	 push	 DWORD PTR $T3[ebp]
  0003e	e8 00 00 00 00	 call	 ??$_Allocate@$07U_Default_allocate_traits@std@@$0A@@std@@YAPAXI@Z ; std::_Allocate<8,std::_Default_allocate_traits,0>
  00043	59		 pop	 ecx
  00044	89 45 f0	 mov	 DWORD PTR $T2[ebp], eax

; 1053 :         _Ptr = _Al.allocate(1);

  00047	8b 45 f8	 mov	 eax, DWORD PTR _this$[ebp]
  0004a	8b 4d f0	 mov	 ecx, DWORD PTR $T2[ebp]
  0004d	89 48 04	 mov	 DWORD PTR [eax+4], ecx
$LN9@Allocate:

; 1054 :     }

  00050	c9		 leave
  00051	c3		 ret	 0
?_Allocate@?$_Alloc_construct_ptr@V?$allocator@U?$_Tree_node@U?$pair@$$CBV?$basic_string@DU?$char_traits@D@std@@V?$allocator@D@2@@std@@M@std@@PAX@std@@@std@@@std@@QAEXXZ ENDP ; std::_Alloc_construct_ptr<std::allocator<std::_Tree_node<std::pair<std::basic_string<char,std::char_traits<char>,std::allocator<char> > const ,float>,void *> > >::_Allocate
_TEXT	ENDS
; Function compile flags: /Odspy
; File C:\Program Files (x86)\Microsoft Visual Studio\2019\Community\VC\Tools\MSVC\14.28.29333\include\xmemory
;	COMDAT ??$_Allocate@$07U_Default_allocate_traits@std@@$0A@@std@@YAPAXI@Z
_TEXT	SEGMENT
__Bytes$ = 8						; size = 4
??$_Allocate@$07U_Default_allocate_traits@std@@$0A@@std@@YAPAXI@Z PROC ; std::_Allocate<8,std::_Default_allocate_traits,0>, COMDAT

; 197  : __declspec(allocator) void* _Allocate(const size_t _Bytes) {

  00000	55		 push	 ebp
  00001	8b ec		 mov	 ebp, esp

; 198  :     // allocate _Bytes when !_HAS_ALIGNED_NEW || _Align <= __STDCPP_DEFAULT_NEW_ALIGNMENT__
; 199  : #if defined(_M_IX86) || defined(_M_X64)
; 200  :     if (_Bytes >= _Big_allocation_threshold) { // boost the alignment of big allocations to help autovectorization

  00003	81 7d 08 00 10
	00 00		 cmp	 DWORD PTR __Bytes$[ebp], 4096 ; 00001000H
  0000a	72 0b		 jb	 SHORT $LN2@Allocate

; 201  :         return _Allocate_manually_vector_aligned<_Traits>(_Bytes);

  0000c	ff 75 08	 push	 DWORD PTR __Bytes$[ebp]
  0000f	e8 00 00 00 00	 call	 ??$_Allocate_manually_vector_aligned@U_Default_allocate_traits@std@@@std@@YAPAXI@Z ; std::_Allocate_manually_vector_aligned<std::_Default_allocate_traits>
  00014	59		 pop	 ecx
  00015	eb 13		 jmp	 SHORT $LN1@Allocate
$LN2@Allocate:

; 202  :     }
; 203  : #endif // defined(_M_IX86) || defined(_M_X64)
; 204  : 
; 205  :     if (_Bytes != 0) {

  00017	83 7d 08 00	 cmp	 DWORD PTR __Bytes$[ebp], 0
  0001b	74 0b		 je	 SHORT $LN3@Allocate

; 77   :         return ::operator new(_Bytes);

  0001d	ff 75 08	 push	 DWORD PTR __Bytes$[ebp]
  00020	e8 00 00 00 00	 call	 ??2@YAPAXI@Z		; operator new
  00025	59		 pop	 ecx

; 206  :         return _Traits::_Allocate(_Bytes);

  00026	eb 02		 jmp	 SHORT $LN1@Allocate
$LN3@Allocate:

; 207  :     }
; 208  : 
; 209  :     return nullptr;

  00028	33 c0		 xor	 eax, eax
$LN1@Allocate:

; 210  : }

  0002a	5d		 pop	 ebp
  0002b	c3		 ret	 0
??$_Allocate@$07U_Default_allocate_traits@std@@$0A@@std@@YAPAXI@Z ENDP ; std::_Allocate<8,std::_Default_allocate_traits,0>
_TEXT	ENDS
; Function compile flags: /Odspy
; File C:\Program Files (x86)\Microsoft Visual Studio\2019\Community\VC\Tools\MSVC\14.28.29333\include\xstring
;	COMDAT ??$?MDU?$char_traits@D@std@@V?$allocator@D@1@@std@@YA_NABV?$basic_string@DU?$char_traits@D@std@@V?$allocator@D@2@@0@0@Z
_TEXT	SEGMENT
tv68 = -4						; size = 4
__Left$ = 8						; size = 4
__Right$ = 12						; size = 4
??$?MDU?$char_traits@D@std@@V?$allocator@D@1@@std@@YA_NABV?$basic_string@DU?$char_traits@D@std@@V?$allocator@D@2@@0@0@Z PROC ; std::operator<<char,std::char_traits<char>,std::allocator<char> >, COMDAT

; 4586 :     const basic_string<_Elem, _Traits, _Alloc>& _Left, const basic_string<_Elem, _Traits, _Alloc>& _Right) noexcept {

  00000	55		 push	 ebp
  00001	8b ec		 mov	 ebp, esp
  00003	51		 push	 ecx

; 4587 :     return _Left.compare(_Right) < 0;

  00004	ff 75 0c	 push	 DWORD PTR __Right$[ebp]
  00007	8b 4d 08	 mov	 ecx, DWORD PTR __Left$[ebp]
  0000a	e8 00 00 00 00	 call	 ?compare@?$basic_string@DU?$char_traits@D@std@@V?$allocator@D@2@@std@@QBEHABV12@@Z ; std::basic_string<char,std::char_traits<char>,std::allocator<char> >::compare
  0000f	85 c0		 test	 eax, eax
  00011	7d 09		 jge	 SHORT $LN3@operator
  00013	c7 45 fc 01 00
	00 00		 mov	 DWORD PTR tv68[ebp], 1
  0001a	eb 04		 jmp	 SHORT $LN4@operator
$LN3@operator:
  0001c	83 65 fc 00	 and	 DWORD PTR tv68[ebp], 0
$LN4@operator:
  00020	8a 45 fc	 mov	 al, BYTE PTR tv68[ebp]

; 4588 : }

  00023	c9		 leave
  00024	c3		 ret	 0
??$?MDU?$char_traits@D@std@@V?$allocator@D@1@@std@@YA_NABV?$basic_string@DU?$char_traits@D@std@@V?$allocator@D@2@@0@0@Z ENDP ; std::operator<<char,std::char_traits<char>,std::allocator<char> >
_TEXT	ENDS
; Function compile flags: /Odspy
; File C:\Program Files (x86)\Microsoft Visual Studio\2019\Community\VC\Tools\MSVC\14.28.29333\include\xmemory
; File C:\Program Files (x86)\Microsoft Visual Studio\2019\Community\VC\Tools\MSVC\14.28.29333\include\xstddef
; File C:\Program Files (x86)\Microsoft Visual Studio\2019\Community\VC\Tools\MSVC\14.28.29333\include\vcruntime_new.h
; File C:\Program Files (x86)\Microsoft Visual Studio\2019\Community\VC\Tools\MSVC\14.28.29333\include\type_traits
; File C:\Program Files (x86)\Microsoft Visual Studio\2019\Community\VC\Tools\MSVC\14.28.29333\include\xmemory
;	COMDAT ??$_Construct_in_place@PAU?$_Tree_node@U?$pair@$$CBV?$basic_string@DU?$char_traits@D@std@@V?$allocator@D@2@@std@@M@std@@PAX@std@@ABQAU12@@std@@YAXAAPAU?$_Tree_node@U?$pair@$$CBV?$basic_string@DU?$char_traits@D@std@@V?$allocator@D@2@@std@@M@std@@PAX@0@ABQAU10@@Z
_TEXT	SEGMENT
$T1 = -12						; size = 4
$T2 = -8						; size = 4
$T3 = -4						; size = 4
__Obj$ = 8						; size = 4
_<_Args_0>$ = 12					; size = 4
??$_Construct_in_place@PAU?$_Tree_node@U?$pair@$$CBV?$basic_string@DU?$char_traits@D@std@@V?$allocator@D@2@@std@@M@std@@PAX@std@@ABQAU12@@std@@YAXAAPAU?$_Tree_node@U?$pair@$$CBV?$basic_string@DU?$char_traits@D@std@@V?$allocator@D@2@@std@@M@std@@PAX@0@ABQAU10@@Z PROC ; std::_Construct_in_place<std::_Tree_node<std::pair<std::basic_string<char,std::char_traits<char>,std::allocator<char> > const ,float>,void *> *,std::_Tree_node<std::pair<std::basic_string<char,std::char_traits<char>,std::allocator<char> > const ,float>,void *> * const &>, COMDAT

; 228  : void _Construct_in_place(_Ty& _Obj, _Types&&... _Args) noexcept(is_nothrow_constructible_v<_Ty, _Types...>) {

  00000	55		 push	 ebp
  00001	8b ec		 mov	 ebp, esp
  00003	83 ec 0c	 sub	 esp, 12			; 0000000cH
; File C:\Program Files (x86)\Microsoft Visual Studio\2019\Community\VC\Tools\MSVC\14.28.29333\include\xstddef

; 275  :     return __builtin_addressof(_Val);

  00006	8b 45 08	 mov	 eax, DWORD PTR __Obj$[ebp]
  00009	89 45 fc	 mov	 DWORD PTR $T3[ebp], eax
; File C:\Program Files (x86)\Microsoft Visual Studio\2019\Community\VC\Tools\MSVC\14.28.29333\include\vcruntime_new.h

; 169  :         return _Where;

  0000c	8b 45 fc	 mov	 eax, DWORD PTR $T3[ebp]
  0000f	89 45 f8	 mov	 DWORD PTR $T2[ebp], eax
; File C:\Program Files (x86)\Microsoft Visual Studio\2019\Community\VC\Tools\MSVC\14.28.29333\include\type_traits

; 1443 :     return static_cast<_Ty&&>(_Arg);

  00012	8b 45 0c	 mov	 eax, DWORD PTR _<_Args_0>$[ebp]
  00015	89 45 f4	 mov	 DWORD PTR $T1[ebp], eax
; File C:\Program Files (x86)\Microsoft Visual Studio\2019\Community\VC\Tools\MSVC\14.28.29333\include\xmemory

; 229  :     ::new (const_cast<void*>(static_cast<const volatile void*>(_STD addressof(_Obj))))

  00018	8b 45 f8	 mov	 eax, DWORD PTR $T2[ebp]
  0001b	8b 4d f4	 mov	 ecx, DWORD PTR $T1[ebp]
  0001e	8b 09		 mov	 ecx, DWORD PTR [ecx]
  00020	89 08		 mov	 DWORD PTR [eax], ecx

; 230  :         _Ty(_STD forward<_Types>(_Args)...);
; 231  : }

  00022	c9		 leave
  00023	c3		 ret	 0
??$_Construct_in_place@PAU?$_Tree_node@U?$pair@$$CBV?$basic_string@DU?$char_traits@D@std@@V?$allocator@D@2@@std@@M@std@@PAX@std@@ABQAU12@@std@@YAXAAPAU?$_Tree_node@U?$pair@$$CBV?$basic_string@DU?$char_traits@D@std@@V?$allocator@D@2@@std@@M@std@@PAX@0@ABQAU10@@Z ENDP ; std::_Construct_in_place<std::_Tree_node<std::pair<std::basic_string<char,std::char_traits<char>,std::allocator<char> > const ,float>,void *> *,std::_Tree_node<std::pair<std::basic_string<char,std::char_traits<char>,std::allocator<char> > const ,float>,void *> * const &>
_TEXT	ENDS
; Function compile flags: /Odspy
; File C:\Program Files (x86)\Microsoft Visual Studio\2019\Community\VC\Tools\MSVC\14.28.29333\include\xmemory
; File C:\Program Files (x86)\Microsoft Visual Studio\2019\Community\VC\Tools\MSVC\14.28.29333\include\xstddef
; File C:\Program Files (x86)\Microsoft Visual Studio\2019\Community\VC\Tools\MSVC\14.28.29333\include\vcruntime_new.h
; File C:\Program Files (x86)\Microsoft Visual Studio\2019\Community\VC\Tools\MSVC\14.28.29333\include\type_traits
; File C:\Program Files (x86)\Microsoft Visual Studio\2019\Community\VC\Tools\MSVC\14.28.29333\include\xmemory
;	COMDAT ??$_Construct_in_place@PADABQAD@std@@YAXAAPADABQAD@Z
_TEXT	SEGMENT
$T1 = -12						; size = 4
$T2 = -8						; size = 4
$T3 = -4						; size = 4
__Obj$ = 8						; size = 4
_<_Args_0>$ = 12					; size = 4
??$_Construct_in_place@PADABQAD@std@@YAXAAPADABQAD@Z PROC ; std::_Construct_in_place<char *,char * const &>, COMDAT

; 228  : void _Construct_in_place(_Ty& _Obj, _Types&&... _Args) noexcept(is_nothrow_constructible_v<_Ty, _Types...>) {

  00000	55		 push	 ebp
  00001	8b ec		 mov	 ebp, esp
  00003	83 ec 0c	 sub	 esp, 12			; 0000000cH
; File C:\Program Files (x86)\Microsoft Visual Studio\2019\Community\VC\Tools\MSVC\14.28.29333\include\xstddef

; 275  :     return __builtin_addressof(_Val);

  00006	8b 45 08	 mov	 eax, DWORD PTR __Obj$[ebp]
  00009	89 45 fc	 mov	 DWORD PTR $T3[ebp], eax
; File C:\Program Files (x86)\Microsoft Visual Studio\2019\Community\VC\Tools\MSVC\14.28.29333\include\vcruntime_new.h

; 169  :         return _Where;

  0000c	8b 45 fc	 mov	 eax, DWORD PTR $T3[ebp]
  0000f	89 45 f8	 mov	 DWORD PTR $T2[ebp], eax
; File C:\Program Files (x86)\Microsoft Visual Studio\2019\Community\VC\Tools\MSVC\14.28.29333\include\type_traits

; 1443 :     return static_cast<_Ty&&>(_Arg);

  00012	8b 45 0c	 mov	 eax, DWORD PTR _<_Args_0>$[ebp]
  00015	89 45 f4	 mov	 DWORD PTR $T1[ebp], eax
; File C:\Program Files (x86)\Microsoft Visual Studio\2019\Community\VC\Tools\MSVC\14.28.29333\include\xmemory

; 229  :     ::new (const_cast<void*>(static_cast<const volatile void*>(_STD addressof(_Obj))))

  00018	8b 45 f8	 mov	 eax, DWORD PTR $T2[ebp]
  0001b	8b 4d f4	 mov	 ecx, DWORD PTR $T1[ebp]
  0001e	8b 09		 mov	 ecx, DWORD PTR [ecx]
  00020	89 08		 mov	 DWORD PTR [eax], ecx

; 230  :         _Ty(_STD forward<_Types>(_Args)...);
; 231  : }

  00022	c9		 leave
  00023	c3		 ret	 0
??$_Construct_in_place@PADABQAD@std@@YAXAAPADABQAD@Z ENDP ; std::_Construct_in_place<char *,char * const &>
_TEXT	ENDS
; Function compile flags: /Odspy
; File C:\Program Files (x86)\Microsoft Visual Studio\2019\Community\VC\Tools\MSVC\14.28.29333\include\xtree
; File C:\Program Files (x86)\Microsoft Visual Studio\2019\Community\VC\Tools\MSVC\14.28.29333\include\xmemory
; File C:\Program Files (x86)\Microsoft Visual Studio\2019\Community\VC\Tools\MSVC\14.28.29333\include\xtree
;	COMDAT ??$_Freenode0@V?$allocator@U?$_Tree_node@U?$pair@$$CBV?$basic_string@DU?$char_traits@D@std@@V?$allocator@D@2@@std@@M@std@@PAX@std@@@std@@@?$_Tree_node@U?$pair@$$CBV?$basic_string@DU?$char_traits@D@std@@V?$allocator@D@2@@std@@M@std@@PAX@std@@SAXAAV?$allocator@U?$_Tree_node@U?$pair@$$CBV?$basic_string@DU?$char_traits@D@std@@V?$allocator@D@2@@std@@M@std@@PAX@std@@@1@PAU01@@Z
_TEXT	SEGMENT
__Al$ = 8						; size = 4
__Ptr$ = 12						; size = 4
??$_Freenode0@V?$allocator@U?$_Tree_node@U?$pair@$$CBV?$basic_string@DU?$char_traits@D@std@@V?$allocator@D@2@@std@@M@std@@PAX@std@@@std@@@?$_Tree_node@U?$pair@$$CBV?$basic_string@DU?$char_traits@D@std@@V?$allocator@D@2@@std@@M@std@@PAX@std@@SAXAAV?$allocator@U?$_Tree_node@U?$pair@$$CBV?$basic_string@DU?$char_traits@D@std@@V?$allocator@D@2@@std@@M@std@@PAX@std@@@1@PAU01@@Z PROC ; std::_Tree_node<std::pair<std::basic_string<char,std::char_traits<char>,std::allocator<char> > const ,float>,void *>::_Freenode0<std::allocator<std::_Tree_node<std::pair<std::basic_string<char,std::char_traits<char>,std::allocator<char> > const ,float>,void *> > >, COMDAT

; 368  :     static void _Freenode0(_Alloc& _Al, _Nodeptr _Ptr) noexcept {

  00000	55		 push	 ebp
  00001	8b ec		 mov	 ebp, esp

; 369  :         static_assert(is_same_v<typename _Alloc::value_type, _Tree_node>, "Bad _Freenode0 call");
; 370  :         _Destroy_in_place(_Ptr->_Left);

  00003	ff 75 0c	 push	 DWORD PTR __Ptr$[ebp]
  00006	e8 00 00 00 00	 call	 ??$_Destroy_in_place@PAU?$_Tree_node@U?$pair@$$CBV?$basic_string@DU?$char_traits@D@std@@V?$allocator@D@2@@std@@M@std@@PAX@std@@@std@@YAXAAPAU?$_Tree_node@U?$pair@$$CBV?$basic_string@DU?$char_traits@D@std@@V?$allocator@D@2@@std@@M@std@@PAX@0@@Z ; std::_Destroy_in_place<std::_Tree_node<std::pair<std::basic_string<char,std::char_traits<char>,std::allocator<char> > const ,float>,void *> *>
  0000b	59		 pop	 ecx

; 371  :         _Destroy_in_place(_Ptr->_Parent);

  0000c	8b 45 0c	 mov	 eax, DWORD PTR __Ptr$[ebp]
  0000f	83 c0 04	 add	 eax, 4
  00012	50		 push	 eax
  00013	e8 00 00 00 00	 call	 ??$_Destroy_in_place@PAU?$_Tree_node@U?$pair@$$CBV?$basic_string@DU?$char_traits@D@std@@V?$allocator@D@2@@std@@M@std@@PAX@std@@@std@@YAXAAPAU?$_Tree_node@U?$pair@$$CBV?$basic_string@DU?$char_traits@D@std@@V?$allocator@D@2@@std@@M@std@@PAX@0@@Z ; std::_Destroy_in_place<std::_Tree_node<std::pair<std::basic_string<char,std::char_traits<char>,std::allocator<char> > const ,float>,void *> *>
  00018	59		 pop	 ecx

; 372  :         _Destroy_in_place(_Ptr->_Right);

  00019	8b 45 0c	 mov	 eax, DWORD PTR __Ptr$[ebp]
  0001c	83 c0 08	 add	 eax, 8
  0001f	50		 push	 eax
  00020	e8 00 00 00 00	 call	 ??$_Destroy_in_place@PAU?$_Tree_node@U?$pair@$$CBV?$basic_string@DU?$char_traits@D@std@@V?$allocator@D@2@@std@@M@std@@PAX@std@@@std@@YAXAAPAU?$_Tree_node@U?$pair@$$CBV?$basic_string@DU?$char_traits@D@std@@V?$allocator@D@2@@std@@M@std@@PAX@0@@Z ; std::_Destroy_in_place<std::_Tree_node<std::pair<std::basic_string<char,std::char_traits<char>,std::allocator<char> > const ,float>,void *> *>
  00025	59		 pop	 ecx
; File C:\Program Files (x86)\Microsoft Visual Studio\2019\Community\VC\Tools\MSVC\14.28.29333\include\xmemory

; 696  :         _Deallocate<_New_alignof<value_type>>(_Ptr, sizeof(value_type) * _Count);

  00026	33 c0		 xor	 eax, eax
  00028	40		 inc	 eax
  00029	6b c0 2c	 imul	 eax, eax, 44
  0002c	50		 push	 eax
  0002d	ff 75 0c	 push	 DWORD PTR __Ptr$[ebp]
  00030	e8 00 00 00 00	 call	 ??$_Deallocate@$07$0A@@std@@YAXPAXI@Z ; std::_Deallocate<8,0>
  00035	59		 pop	 ecx
  00036	59		 pop	 ecx
; File C:\Program Files (x86)\Microsoft Visual Studio\2019\Community\VC\Tools\MSVC\14.28.29333\include\xtree

; 374  :     }

  00037	5d		 pop	 ebp
  00038	c3		 ret	 0
??$_Freenode0@V?$allocator@U?$_Tree_node@U?$pair@$$CBV?$basic_string@DU?$char_traits@D@std@@V?$allocator@D@2@@std@@M@std@@PAX@std@@@std@@@?$_Tree_node@U?$pair@$$CBV?$basic_string@DU?$char_traits@D@std@@V?$allocator@D@2@@std@@M@std@@PAX@std@@SAXAAV?$allocator@U?$_Tree_node@U?$pair@$$CBV?$basic_string@DU?$char_traits@D@std@@V?$allocator@D@2@@std@@M@std@@PAX@std@@@1@PAU01@@Z ENDP ; std::_Tree_node<std::pair<std::basic_string<char,std::char_traits<char>,std::allocator<char> > const ,float>,void *>::_Freenode0<std::allocator<std::_Tree_node<std::pair<std::basic_string<char,std::char_traits<char>,std::allocator<char> > const ,float>,void *> > >
_TEXT	ENDS
; Function compile flags: /Odspy
; File C:\Program Files (x86)\Microsoft Visual Studio\2019\Community\VC\Tools\MSVC\14.28.29333\include\xtree
; File C:\Program Files (x86)\Microsoft Visual Studio\2019\Community\VC\Tools\MSVC\14.28.29333\include\xmemory
; File C:\Program Files (x86)\Microsoft Visual Studio\2019\Community\VC\Tools\MSVC\14.28.29333\include\xtree
; File C:\Program Files (x86)\Microsoft Visual Studio\2019\Community\VC\Tools\MSVC\14.28.29333\include\map
; File C:\Program Files (x86)\Microsoft Visual Studio\2019\Community\VC\Tools\MSVC\14.28.29333\include\xstddef
; File C:\Program Files (x86)\Microsoft Visual Studio\2019\Community\VC\Tools\MSVC\14.28.29333\include\xtree
;	COMDAT ??$_Lower_bound_duplicate@V?$basic_string@DU?$char_traits@D@std@@V?$allocator@D@2@@std@@@?$_Tree@V?$_Tmap_traits@V?$basic_string@DU?$char_traits@D@std@@V?$allocator@D@2@@std@@MU?$less@V?$basic_string@DU?$char_traits@D@std@@V?$allocator@D@2@@std@@@2@V?$allocator@U?$pair@$$CBV?$basic_string@DU?$char_traits@D@std@@V?$allocator@D@2@@std@@M@std@@@2@$0A@@std@@@std@@IBE_NQAU?$_Tree_node@U?$pair@$$CBV?$basic_string@DU?$char_traits@D@std@@V?$allocator@D@2@@std@@M@std@@PAX@1@ABV?$basic_string@DU?$char_traits@D@std@@V?$allocator@D@2@@1@@Z
_TEXT	SEGMENT
$T1 = -16						; size = 4
$T2 = -12						; size = 4
_this$ = -8						; size = 4
tv78 = -4						; size = 4
__Bound$ = 8						; size = 4
__Keyval$ = 12						; size = 4
??$_Lower_bound_duplicate@V?$basic_string@DU?$char_traits@D@std@@V?$allocator@D@2@@std@@@?$_Tree@V?$_Tmap_traits@V?$basic_string@DU?$char_traits@D@std@@V?$allocator@D@2@@std@@MU?$less@V?$basic_string@DU?$char_traits@D@std@@V?$allocator@D@2@@std@@@2@V?$allocator@U?$pair@$$CBV?$basic_string@DU?$char_traits@D@std@@V?$allocator@D@2@@std@@M@std@@@2@$0A@@std@@@std@@IBE_NQAU?$_Tree_node@U?$pair@$$CBV?$basic_string@DU?$char_traits@D@std@@V?$allocator@D@2@@std@@M@std@@PAX@1@ABV?$basic_string@DU?$char_traits@D@std@@V?$allocator@D@2@@1@@Z PROC ; std::_Tree<std::_Tmap_traits<std::basic_string<char,std::char_traits<char>,std::allocator<char> >,float,std::less<std::basic_string<char,std::char_traits<char>,std::allocator<char> > >,std::allocator<std::pair<std::basic_string<char,std::char_traits<char>,std::allocator<char> > const ,float> >,0> >::_Lower_bound_duplicate<std::basic_string<char,std::char_traits<char>,std::allocator<char> > >, COMDAT
; _this$ = ecx

; 1694 :     bool _Lower_bound_duplicate(const _Nodeptr _Bound, const _Keyty& _Keyval) const {

  00000	55		 push	 ebp
  00001	8b ec		 mov	 ebp, esp
  00003	83 ec 10	 sub	 esp, 16			; 00000010H
  00006	89 4d f8	 mov	 DWORD PTR _this$[ebp], ecx

; 1695 :         return !_Bound->_Isnil && !_DEBUG_LT_PRED(_Getcomp(), _Keyval, _Traits::_Kfn(_Bound->_Myval));

  00009	8b 45 08	 mov	 eax, DWORD PTR __Bound$[ebp]
  0000c	0f be 40 0d	 movsx	 eax, BYTE PTR [eax+13]
  00010	85 c0		 test	 eax, eax
  00012	75 2d		 jne	 SHORT $LN3@Lower_boun

; 2035 :         return _Mypair._Get_first();

  00014	8b 45 f8	 mov	 eax, DWORD PTR _this$[ebp]
; File C:\Program Files (x86)\Microsoft Visual Studio\2019\Community\VC\Tools\MSVC\14.28.29333\include\xmemory

; 1351 :         return *this;

  00017	89 45 f4	 mov	 DWORD PTR $T2[ebp], eax
; File C:\Program Files (x86)\Microsoft Visual Studio\2019\Community\VC\Tools\MSVC\14.28.29333\include\xtree

; 2035 :         return _Mypair._Get_first();

  0001a	8b 45 f4	 mov	 eax, DWORD PTR $T2[ebp]
  0001d	89 45 f0	 mov	 DWORD PTR $T1[ebp], eax
; File C:\Program Files (x86)\Microsoft Visual Studio\2019\Community\VC\Tools\MSVC\14.28.29333\include\map

; 69   :         return _Val.first;

  00020	8b 45 08	 mov	 eax, DWORD PTR __Bound$[ebp]
  00023	83 c0 10	 add	 eax, 16			; 00000010H
; File C:\Program Files (x86)\Microsoft Visual Studio\2019\Community\VC\Tools\MSVC\14.28.29333\include\xstddef

; 127  :         return _Left < _Right;

  00026	50		 push	 eax
  00027	ff 75 0c	 push	 DWORD PTR __Keyval$[ebp]
  0002a	e8 00 00 00 00	 call	 ??$?MDU?$char_traits@D@std@@V?$allocator@D@1@@std@@YA_NABV?$basic_string@DU?$char_traits@D@std@@V?$allocator@D@2@@0@0@Z ; std::operator<<char,std::char_traits<char>,std::allocator<char> >
  0002f	59		 pop	 ecx
  00030	59		 pop	 ecx
; File C:\Program Files (x86)\Microsoft Visual Studio\2019\Community\VC\Tools\MSVC\14.28.29333\include\xtree

; 1695 :         return !_Bound->_Isnil && !_DEBUG_LT_PRED(_Getcomp(), _Keyval, _Traits::_Kfn(_Bound->_Myval));

  00031	0f b6 c0	 movzx	 eax, al
  00034	85 c0		 test	 eax, eax
  00036	75 09		 jne	 SHORT $LN3@Lower_boun
  00038	c7 45 fc 01 00
	00 00		 mov	 DWORD PTR tv78[ebp], 1
  0003f	eb 04		 jmp	 SHORT $LN4@Lower_boun
$LN3@Lower_boun:
  00041	83 65 fc 00	 and	 DWORD PTR tv78[ebp], 0
$LN4@Lower_boun:
  00045	8a 45 fc	 mov	 al, BYTE PTR tv78[ebp]

; 1696 :     }

  00048	c9		 leave
  00049	c2 08 00	 ret	 8
??$_Lower_bound_duplicate@V?$basic_string@DU?$char_traits@D@std@@V?$allocator@D@2@@std@@@?$_Tree@V?$_Tmap_traits@V?$basic_string@DU?$char_traits@D@std@@V?$allocator@D@2@@std@@MU?$less@V?$basic_string@DU?$char_traits@D@std@@V?$allocator@D@2@@std@@@2@V?$allocator@U?$pair@$$CBV?$basic_string@DU?$char_traits@D@std@@V?$allocator@D@2@@std@@M@std@@@2@$0A@@std@@@std@@IBE_NQAU?$_Tree_node@U?$pair@$$CBV?$basic_string@DU?$char_traits@D@std@@V?$allocator@D@2@@std@@M@std@@PAX@1@ABV?$basic_string@DU?$char_traits@D@std@@V?$allocator@D@2@@1@@Z ENDP ; std::_Tree<std::_Tmap_traits<std::basic_string<char,std::char_traits<char>,std::allocator<char> >,float,std::less<std::basic_string<char,std::char_traits<char>,std::allocator<char> > >,std::allocator<std::pair<std::basic_string<char,std::char_traits<char>,std::allocator<char> > const ,float> >,0> >::_Lower_bound_duplicate<std::basic_string<char,std::char_traits<char>,std::allocator<char> > >
_TEXT	ENDS
; Function compile flags: /Odspy
; File C:\Program Files (x86)\Microsoft Visual Studio\2019\Community\VC\Tools\MSVC\14.28.29333\include\xtree
; File C:\Program Files (x86)\Microsoft Visual Studio\2019\Community\VC\Tools\MSVC\14.28.29333\include\xstddef
; File C:\Program Files (x86)\Microsoft Visual Studio\2019\Community\VC\Tools\MSVC\14.28.29333\include\xtree
; File C:\Program Files (x86)\Microsoft Visual Studio\2019\Community\VC\Tools\MSVC\14.28.29333\include\xmemory
; File C:\Program Files (x86)\Microsoft Visual Studio\2019\Community\VC\Tools\MSVC\14.28.29333\include\xtree
; File C:\Program Files (x86)\Microsoft Visual Studio\2019\Community\VC\Tools\MSVC\14.28.29333\include\xstddef
; File C:\Program Files (x86)\Microsoft Visual Studio\2019\Community\VC\Tools\MSVC\14.28.29333\include\map
; File C:\Program Files (x86)\Microsoft Visual Studio\2019\Community\VC\Tools\MSVC\14.28.29333\include\xstddef
; File C:\Program Files (x86)\Microsoft Visual Studio\2019\Community\VC\Tools\MSVC\14.28.29333\include\xtree
;	COMDAT ??$_Find_lower_bound@V?$basic_string@DU?$char_traits@D@std@@V?$allocator@D@2@@std@@@?$_Tree@V?$_Tmap_traits@V?$basic_string@DU?$char_traits@D@std@@V?$allocator@D@2@@std@@MU?$less@V?$basic_string@DU?$char_traits@D@std@@V?$allocator@D@2@@std@@@2@V?$allocator@U?$pair@$$CBV?$basic_string@DU?$char_traits@D@std@@V?$allocator@D@2@@std@@M@std@@@2@$0A@@std@@@std@@IBE?AU?$_Tree_find_result@PAU?$_Tree_node@U?$pair@$$CBV?$basic_string@DU?$char_traits@D@std@@V?$allocator@D@2@@std@@M@std@@PAX@std@@@1@ABV?$basic_string@DU?$char_traits@D@std@@V?$allocator@D@2@@1@@Z
_TEXT	SEGMENT
__Result$ = -36						; size = 12
$T1 = -24						; size = 4
$T2 = -20						; size = 4
$T3 = -16						; size = 4
_this$ = -12						; size = 4
__Scary$ = -8						; size = 4
__Trynode$ = -4						; size = 4
___$ReturnUdt$ = 8					; size = 4
__Keyval$ = 12						; size = 4
??$_Find_lower_bound@V?$basic_string@DU?$char_traits@D@std@@V?$allocator@D@2@@std@@@?$_Tree@V?$_Tmap_traits@V?$basic_string@DU?$char_traits@D@std@@V?$allocator@D@2@@std@@MU?$less@V?$basic_string@DU?$char_traits@D@std@@V?$allocator@D@2@@std@@@2@V?$allocator@U?$pair@$$CBV?$basic_string@DU?$char_traits@D@std@@V?$allocator@D@2@@std@@M@std@@@2@$0A@@std@@@std@@IBE?AU?$_Tree_find_result@PAU?$_Tree_node@U?$pair@$$CBV?$basic_string@DU?$char_traits@D@std@@V?$allocator@D@2@@std@@M@std@@PAX@std@@@1@ABV?$basic_string@DU?$char_traits@D@std@@V?$allocator@D@2@@1@@Z PROC ; std::_Tree<std::_Tmap_traits<std::basic_string<char,std::char_traits<char>,std::allocator<char> >,float,std::less<std::basic_string<char,std::char_traits<char>,std::allocator<char> > >,std::allocator<std::pair<std::basic_string<char,std::char_traits<char>,std::allocator<char> > const ,float> >,0> >::_Find_lower_bound<std::basic_string<char,std::char_traits<char>,std::allocator<char> > >, COMDAT
; _this$ = ecx

; 1699 :     _Tree_find_result<_Nodeptr> _Find_lower_bound(const _Keyty& _Keyval) const {

  00000	55		 push	 ebp
  00001	8b ec		 mov	 ebp, esp
  00003	83 ec 24	 sub	 esp, 36			; 00000024H
  00006	56		 push	 esi
  00007	57		 push	 edi
  00008	89 4d f4	 mov	 DWORD PTR _this$[ebp], ecx

; 2051 :         return _STD addressof(_Mypair._Myval2._Myval2);

  0000b	8b 45 f4	 mov	 eax, DWORD PTR _this$[ebp]
; File C:\Program Files (x86)\Microsoft Visual Studio\2019\Community\VC\Tools\MSVC\14.28.29333\include\xstddef

; 275  :     return __builtin_addressof(_Val);

  0000e	89 45 f0	 mov	 DWORD PTR $T3[ebp], eax
; File C:\Program Files (x86)\Microsoft Visual Studio\2019\Community\VC\Tools\MSVC\14.28.29333\include\xtree

; 2051 :         return _STD addressof(_Mypair._Myval2._Myval2);

  00011	8b 45 f0	 mov	 eax, DWORD PTR $T3[ebp]
  00014	89 45 f8	 mov	 DWORD PTR __Scary$[ebp], eax

; 1700 :         const auto _Scary = _Get_scary();
; 1701 :         _Tree_find_result<_Nodeptr> _Result{{_Scary->_Myhead->_Parent, _Tree_child::_Right}, _Scary->_Myhead};

  00017	8b 45 f8	 mov	 eax, DWORD PTR __Scary$[ebp]
  0001a	8b 00		 mov	 eax, DWORD PTR [eax]
  0001c	8b 40 04	 mov	 eax, DWORD PTR [eax+4]
  0001f	89 45 dc	 mov	 DWORD PTR __Result$[ebp], eax
  00022	83 65 e0 00	 and	 DWORD PTR __Result$[ebp+4], 0
  00026	8b 45 f8	 mov	 eax, DWORD PTR __Scary$[ebp]
  00029	8b 00		 mov	 eax, DWORD PTR [eax]
  0002b	89 45 e4	 mov	 DWORD PTR __Result$[ebp+8], eax

; 1702 :         _Nodeptr _Trynode = _Result._Location._Parent;

  0002e	8b 45 dc	 mov	 eax, DWORD PTR __Result$[ebp]
  00031	89 45 fc	 mov	 DWORD PTR __Trynode$[ebp], eax
$LN2@Find_lower:

; 1703 :         while (!_Trynode->_Isnil) {

  00034	8b 45 fc	 mov	 eax, DWORD PTR __Trynode$[ebp]
  00037	0f be 40 0d	 movsx	 eax, BYTE PTR [eax+13]
  0003b	85 c0		 test	 eax, eax
  0003d	75 50		 jne	 SHORT $LN3@Find_lower

; 1704 :             _Result._Location._Parent = _Trynode;

  0003f	8b 45 fc	 mov	 eax, DWORD PTR __Trynode$[ebp]
  00042	89 45 dc	 mov	 DWORD PTR __Result$[ebp], eax

; 2035 :         return _Mypair._Get_first();

  00045	8b 45 f4	 mov	 eax, DWORD PTR _this$[ebp]
; File C:\Program Files (x86)\Microsoft Visual Studio\2019\Community\VC\Tools\MSVC\14.28.29333\include\xmemory

; 1351 :         return *this;

  00048	89 45 ec	 mov	 DWORD PTR $T2[ebp], eax
; File C:\Program Files (x86)\Microsoft Visual Studio\2019\Community\VC\Tools\MSVC\14.28.29333\include\xtree

; 2035 :         return _Mypair._Get_first();

  0004b	8b 45 ec	 mov	 eax, DWORD PTR $T2[ebp]
  0004e	89 45 e8	 mov	 DWORD PTR $T1[ebp], eax
; File C:\Program Files (x86)\Microsoft Visual Studio\2019\Community\VC\Tools\MSVC\14.28.29333\include\xstddef

; 127  :         return _Left < _Right;

  00051	ff 75 0c	 push	 DWORD PTR __Keyval$[ebp]
; File C:\Program Files (x86)\Microsoft Visual Studio\2019\Community\VC\Tools\MSVC\14.28.29333\include\map

; 69   :         return _Val.first;

  00054	8b 45 fc	 mov	 eax, DWORD PTR __Trynode$[ebp]
  00057	83 c0 10	 add	 eax, 16			; 00000010H
; File C:\Program Files (x86)\Microsoft Visual Studio\2019\Community\VC\Tools\MSVC\14.28.29333\include\xstddef

; 127  :         return _Left < _Right;

  0005a	50		 push	 eax
  0005b	e8 00 00 00 00	 call	 ??$?MDU?$char_traits@D@std@@V?$allocator@D@1@@std@@YA_NABV?$basic_string@DU?$char_traits@D@std@@V?$allocator@D@2@@0@0@Z ; std::operator<<char,std::char_traits<char>,std::allocator<char> >
  00060	59		 pop	 ecx
  00061	59		 pop	 ecx
; File C:\Program Files (x86)\Microsoft Visual Studio\2019\Community\VC\Tools\MSVC\14.28.29333\include\xtree

; 1705 :             if (_DEBUG_LT_PRED(_Getcomp(), _Traits::_Kfn(_Trynode->_Myval), _Keyval)) {

  00062	0f b6 c0	 movzx	 eax, al
  00065	85 c0		 test	 eax, eax
  00067	74 0f		 je	 SHORT $LN4@Find_lower

; 1706 :                 _Result._Location._Child = _Tree_child::_Right;

  00069	83 65 e0 00	 and	 DWORD PTR __Result$[ebp+4], 0

; 1707 :                 _Trynode                 = _Trynode->_Right;

  0006d	8b 45 fc	 mov	 eax, DWORD PTR __Trynode$[ebp]
  00070	8b 40 08	 mov	 eax, DWORD PTR [eax+8]
  00073	89 45 fc	 mov	 DWORD PTR __Trynode$[ebp], eax

; 1708 :             } else {

  00076	eb 15		 jmp	 SHORT $LN5@Find_lower
$LN4@Find_lower:

; 1709 :                 _Result._Location._Child = _Tree_child::_Left;

  00078	c7 45 e0 01 00
	00 00		 mov	 DWORD PTR __Result$[ebp+4], 1

; 1710 :                 _Result._Bound           = _Trynode;

  0007f	8b 45 fc	 mov	 eax, DWORD PTR __Trynode$[ebp]
  00082	89 45 e4	 mov	 DWORD PTR __Result$[ebp+8], eax

; 1711 :                 _Trynode                 = _Trynode->_Left;

  00085	8b 45 fc	 mov	 eax, DWORD PTR __Trynode$[ebp]
  00088	8b 00		 mov	 eax, DWORD PTR [eax]
  0008a	89 45 fc	 mov	 DWORD PTR __Trynode$[ebp], eax
$LN5@Find_lower:

; 1712 :             }
; 1713 :         }

  0008d	eb a5		 jmp	 SHORT $LN2@Find_lower
$LN3@Find_lower:

; 1714 : 
; 1715 :         return _Result;

  0008f	8d 75 dc	 lea	 esi, DWORD PTR __Result$[ebp]
  00092	8b 7d 08	 mov	 edi, DWORD PTR ___$ReturnUdt$[ebp]
  00095	a5		 movsd
  00096	a5		 movsd
  00097	a5		 movsd
  00098	8b 45 08	 mov	 eax, DWORD PTR ___$ReturnUdt$[ebp]

; 1716 :     }

  0009b	5f		 pop	 edi
  0009c	5e		 pop	 esi
  0009d	c9		 leave
  0009e	c2 08 00	 ret	 8
??$_Find_lower_bound@V?$basic_string@DU?$char_traits@D@std@@V?$allocator@D@2@@std@@@?$_Tree@V?$_Tmap_traits@V?$basic_string@DU?$char_traits@D@std@@V?$allocator@D@2@@std@@MU?$less@V?$basic_string@DU?$char_traits@D@std@@V?$allocator@D@2@@std@@@2@V?$allocator@U?$pair@$$CBV?$basic_string@DU?$char_traits@D@std@@V?$allocator@D@2@@std@@M@std@@@2@$0A@@std@@@std@@IBE?AU?$_Tree_find_result@PAU?$_Tree_node@U?$pair@$$CBV?$basic_string@DU?$char_traits@D@std@@V?$allocator@D@2@@std@@M@std@@PAX@std@@@1@ABV?$basic_string@DU?$char_traits@D@std@@V?$allocator@D@2@@1@@Z ENDP ; std::_Tree<std::_Tmap_traits<std::basic_string<char,std::char_traits<char>,std::allocator<char> >,float,std::less<std::basic_string<char,std::char_traits<char>,std::allocator<char> > >,std::allocator<std::pair<std::basic_string<char,std::char_traits<char>,std::allocator<char> > const ,float> >,0> >::_Find_lower_bound<std::basic_string<char,std::char_traits<char>,std::allocator<char> > >
_TEXT	ENDS
; Function compile flags: /Odspy
; File C:\Program Files (x86)\Microsoft Visual Studio\2019\Community\VC\Tools\MSVC\14.28.29333\include\xtree
; File C:\Program Files (x86)\Microsoft Visual Studio\2019\Community\VC\Tools\MSVC\14.28.29333\include\xstddef
; File C:\Program Files (x86)\Microsoft Visual Studio\2019\Community\VC\Tools\MSVC\14.28.29333\include\xtree
; File C:\Program Files (x86)\Microsoft Visual Studio\2019\Community\VC\Tools\MSVC\14.28.29333\include\xmemory
; File C:\Program Files (x86)\Microsoft Visual Studio\2019\Community\VC\Tools\MSVC\14.28.29333\include\xtree
; File C:\Program Files (x86)\Microsoft Visual Studio\2019\Community\VC\Tools\MSVC\14.28.29333\include\type_traits
; File C:\Program Files (x86)\Microsoft Visual Studio\2019\Community\VC\Tools\MSVC\14.28.29333\include\utility
; File C:\Program Files (x86)\Microsoft Visual Studio\2019\Community\VC\Tools\MSVC\14.28.29333\include\type_traits
; File C:\Program Files (x86)\Microsoft Visual Studio\2019\Community\VC\Tools\MSVC\14.28.29333\include\utility
; File C:\Program Files (x86)\Microsoft Visual Studio\2019\Community\VC\Tools\MSVC\14.28.29333\include\xtree
; File C:\Program Files (x86)\Microsoft Visual Studio\2019\Community\VC\Tools\MSVC\14.28.29333\include\type_traits
; File C:\Program Files (x86)\Microsoft Visual Studio\2019\Community\VC\Tools\MSVC\14.28.29333\include\xtree
; File C:\Program Files (x86)\Microsoft Visual Studio\2019\Community\VC\Tools\MSVC\14.28.29333\include\xmemory
; File C:\Program Files (x86)\Microsoft Visual Studio\2019\Community\VC\Tools\MSVC\14.28.29333\include\xtree
; File C:\Program Files (x86)\Microsoft Visual Studio\2019\Community\VC\Tools\MSVC\14.28.29333\include\xmemory
; File C:\Program Files (x86)\Microsoft Visual Studio\2019\Community\VC\Tools\MSVC\14.28.29333\include\utility
; File C:\Program Files (x86)\Microsoft Visual Studio\2019\Community\VC\Tools\MSVC\14.28.29333\include\xmemory
; File C:\Program Files (x86)\Microsoft Visual Studio\2019\Community\VC\Tools\MSVC\14.28.29333\include\xtree
; File C:\Program Files (x86)\Microsoft Visual Studio\2019\Community\VC\Tools\MSVC\14.28.29333\include\type_traits
; File C:\Program Files (x86)\Microsoft Visual Studio\2019\Community\VC\Tools\MSVC\14.28.29333\include\utility
; File C:\Program Files (x86)\Microsoft Visual Studio\2019\Community\VC\Tools\MSVC\14.28.29333\include\type_traits
; File C:\Program Files (x86)\Microsoft Visual Studio\2019\Community\VC\Tools\MSVC\14.28.29333\include\utility
; File C:\Program Files (x86)\Microsoft Visual Studio\2019\Community\VC\Tools\MSVC\14.28.29333\include\xtree
;	COMDAT ??$_Emplace@U?$pair@$$CBV?$basic_string@DU?$char_traits@D@std@@V?$allocator@D@2@@std@@M@std@@@?$_Tree@V?$_Tmap_traits@V?$basic_string@DU?$char_traits@D@std@@V?$allocator@D@2@@std@@MU?$less@V?$basic_string@DU?$char_traits@D@std@@V?$allocator@D@2@@std@@@2@V?$allocator@U?$pair@$$CBV?$basic_string@DU?$char_traits@D@std@@V?$allocator@D@2@@std@@M@std@@@2@$0A@@std@@@std@@IAE?AU?$pair@PAU?$_Tree_node@U?$pair@$$CBV?$basic_string@DU?$char_traits@D@std@@V?$allocator@D@2@@std@@M@std@@PAX@std@@_N@1@$$QAU?$pair@$$CBV?$basic_string@DU?$char_traits@D@std@@V?$allocator@D@2@@std@@M@1@@Z
_TEXT	SEGMENT
$T1 = -108						; size = 12
__Loc$ = -96						; size = 12
$T2 = -84						; size = 8
$T3 = -76						; size = 4
$T4 = -72						; size = 4
$T5 = -68						; size = 4
__Inserted$ = -64					; size = 4
$T6 = -60						; size = 4
__Old_val$7 = -56					; size = 4
$T8 = -52						; size = 4
$T9 = -48						; size = 4
$T10 = -44						; size = 4
$T11 = -40						; size = 4
$T12 = -36						; size = 4
$T13 = -32						; size = 4
$T14 = -28						; size = 4
$T15 = -24						; size = 4
__Scary$ = -20						; size = 4
__Val$ = -16						; size = 4
__Keyval$16 = -12					; size = 4
_this$ = -8						; size = 4
$T17 = -2						; size = 1
$T18 = -1						; size = 1
___$ReturnUdt$ = 8					; size = 4
_<_Vals_0>$ = 12					; size = 4
??$_Emplace@U?$pair@$$CBV?$basic_string@DU?$char_traits@D@std@@V?$allocator@D@2@@std@@M@std@@@?$_Tree@V?$_Tmap_traits@V?$basic_string@DU?$char_traits@D@std@@V?$allocator@D@2@@std@@MU?$less@V?$basic_string@DU?$char_traits@D@std@@V?$allocator@D@2@@std@@@2@V?$allocator@U?$pair@$$CBV?$basic_string@DU?$char_traits@D@std@@V?$allocator@D@2@@std@@M@std@@@2@$0A@@std@@@std@@IAE?AU?$pair@PAU?$_Tree_node@U?$pair@$$CBV?$basic_string@DU?$char_traits@D@std@@V?$allocator@D@2@@std@@M@std@@PAX@std@@_N@1@$$QAU?$pair@$$CBV?$basic_string@DU?$char_traits@D@std@@V?$allocator@D@2@@std@@M@1@@Z PROC ; std::_Tree<std::_Tmap_traits<std::basic_string<char,std::char_traits<char>,std::allocator<char> >,float,std::less<std::basic_string<char,std::char_traits<char>,std::allocator<char> > >,std::allocator<std::pair<std::basic_string<char,std::char_traits<char>,std::allocator<char> > const ,float> >,0> >::_Emplace<std::pair<std::basic_string<char,std::char_traits<char>,std::allocator<char> > const ,float> >, COMDAT
; _this$ = ecx

; 1002 :     pair<_Nodeptr, bool> _Emplace(_Valtys&&... _Vals) {

  00000	55		 push	 ebp
  00001	8b ec		 mov	 ebp, esp
  00003	83 ec 6c	 sub	 esp, 108		; 0000006cH
  00006	56		 push	 esi
  00007	57		 push	 edi
  00008	89 4d f8	 mov	 DWORD PTR _this$[ebp], ecx

; 2047 :         return _STD addressof(_Mypair._Myval2._Myval2);

  0000b	8b 45 f8	 mov	 eax, DWORD PTR _this$[ebp]
; File C:\Program Files (x86)\Microsoft Visual Studio\2019\Community\VC\Tools\MSVC\14.28.29333\include\xstddef

; 275  :     return __builtin_addressof(_Val);

  0000e	89 45 e8	 mov	 DWORD PTR $T15[ebp], eax
; File C:\Program Files (x86)\Microsoft Visual Studio\2019\Community\VC\Tools\MSVC\14.28.29333\include\xtree

; 2047 :         return _STD addressof(_Mypair._Myval2._Myval2);

  00011	8b 45 e8	 mov	 eax, DWORD PTR $T15[ebp]
  00014	89 45 ec	 mov	 DWORD PTR __Scary$[ebp], eax
; File C:\Program Files (x86)\Microsoft Visual Studio\2019\Community\VC\Tools\MSVC\14.28.29333\include\xmemory

; 2000 :         return _Val.first;

  00017	8b 45 0c	 mov	 eax, DWORD PTR _<_Vals_0>$[ebp]
; File C:\Program Files (x86)\Microsoft Visual Studio\2019\Community\VC\Tools\MSVC\14.28.29333\include\xtree

; 1008 :             const auto& _Keyval = _In_place_key_extractor::_Extract(_Vals...);

  0001a	89 45 f4	 mov	 DWORD PTR __Keyval$16[ebp], eax

; 1009 :             _Loc                = _Find_lower_bound(_Keyval);

  0001d	ff 75 f4	 push	 DWORD PTR __Keyval$16[ebp]
  00020	8d 45 94	 lea	 eax, DWORD PTR $T1[ebp]
  00023	50		 push	 eax
  00024	8b 4d f8	 mov	 ecx, DWORD PTR _this$[ebp]
  00027	e8 00 00 00 00	 call	 ??$_Find_lower_bound@V?$basic_string@DU?$char_traits@D@std@@V?$allocator@D@2@@std@@@?$_Tree@V?$_Tmap_traits@V?$basic_string@DU?$char_traits@D@std@@V?$allocator@D@2@@std@@MU?$less@V?$basic_string@DU?$char_traits@D@std@@V?$allocator@D@2@@std@@@2@V?$allocator@U?$pair@$$CBV?$basic_string@DU?$char_traits@D@std@@V?$allocator@D@2@@std@@M@std@@@2@$0A@@std@@@std@@IBE?AU?$_Tree_find_result@PAU?$_Tree_node@U?$pair@$$CBV?$basic_string@DU?$char_traits@D@std@@V?$allocator@D@2@@std@@M@std@@PAX@std@@@1@ABV?$basic_string@DU?$char_traits@D@std@@V?$allocator@D@2@@1@@Z ; std::_Tree<std::_Tmap_traits<std::basic_string<char,std::char_traits<char>,std::allocator<char> >,float,std::less<std::basic_string<char,std::char_traits<char>,std::allocator<char> > >,std::allocator<std::pair<std::basic_string<char,std::char_traits<char>,std::allocator<char> > const ,float> >,0> >::_Find_lower_bound<std::basic_string<char,std::char_traits<char>,std::allocator<char> > >
  0002c	8b f0		 mov	 esi, eax
  0002e	8d 7d a0	 lea	 edi, DWORD PTR __Loc$[ebp]
  00031	a5		 movsd
  00032	a5		 movsd
  00033	a5		 movsd

; 1010 :             if (_Lower_bound_duplicate(_Loc._Bound, _Keyval)) {

  00034	ff 75 f4	 push	 DWORD PTR __Keyval$16[ebp]
  00037	ff 75 a8	 push	 DWORD PTR __Loc$[ebp+8]
  0003a	8b 4d f8	 mov	 ecx, DWORD PTR _this$[ebp]
  0003d	e8 00 00 00 00	 call	 ??$_Lower_bound_duplicate@V?$basic_string@DU?$char_traits@D@std@@V?$allocator@D@2@@std@@@?$_Tree@V?$_Tmap_traits@V?$basic_string@DU?$char_traits@D@std@@V?$allocator@D@2@@std@@MU?$less@V?$basic_string@DU?$char_traits@D@std@@V?$allocator@D@2@@std@@@2@V?$allocator@U?$pair@$$CBV?$basic_string@DU?$char_traits@D@std@@V?$allocator@D@2@@std@@M@std@@@2@$0A@@std@@@std@@IBE_NQAU?$_Tree_node@U?$pair@$$CBV?$basic_string@DU?$char_traits@D@std@@V?$allocator@D@2@@std@@M@std@@PAX@1@ABV?$basic_string@DU?$char_traits@D@std@@V?$allocator@D@2@@1@@Z ; std::_Tree<std::_Tmap_traits<std::basic_string<char,std::char_traits<char>,std::allocator<char> >,float,std::less<std::basic_string<char,std::char_traits<char>,std::allocator<char> > >,std::allocator<std::pair<std::basic_string<char,std::char_traits<char>,std::allocator<char> > const ,float> >,0> >::_Lower_bound_duplicate<std::basic_string<char,std::char_traits<char>,std::allocator<char> > >
  00042	0f b6 c0	 movzx	 eax, al
  00045	85 c0		 test	 eax, eax
  00047	74 2d		 je	 SHORT $LN2@Emplace

; 1011 :                 return {_Loc._Bound, false};

  00049	c6 45 ff 00	 mov	 BYTE PTR $T18[ebp], 0
; File C:\Program Files (x86)\Microsoft Visual Studio\2019\Community\VC\Tools\MSVC\14.28.29333\include\type_traits

; 1443 :     return static_cast<_Ty&&>(_Arg);

  0004d	8d 45 a8	 lea	 eax, DWORD PTR __Loc$[ebp+8]
  00050	89 45 e4	 mov	 DWORD PTR $T14[ebp], eax
; File C:\Program Files (x86)\Microsoft Visual Studio\2019\Community\VC\Tools\MSVC\14.28.29333\include\utility

; 190  :         : first(_STD forward<_Other1>(_Val1)), second(_STD forward<_Other2>(_Val2)) {}

  00053	8b 45 08	 mov	 eax, DWORD PTR ___$ReturnUdt$[ebp]
  00056	8b 4d e4	 mov	 ecx, DWORD PTR $T14[ebp]
  00059	8b 09		 mov	 ecx, DWORD PTR [ecx]
  0005b	89 08		 mov	 DWORD PTR [eax], ecx
; File C:\Program Files (x86)\Microsoft Visual Studio\2019\Community\VC\Tools\MSVC\14.28.29333\include\type_traits

; 1443 :     return static_cast<_Ty&&>(_Arg);

  0005d	8d 45 ff	 lea	 eax, DWORD PTR $T18[ebp]
  00060	89 45 e0	 mov	 DWORD PTR $T13[ebp], eax
; File C:\Program Files (x86)\Microsoft Visual Studio\2019\Community\VC\Tools\MSVC\14.28.29333\include\utility

; 190  :         : first(_STD forward<_Other1>(_Val1)), second(_STD forward<_Other2>(_Val2)) {}

  00063	8b 45 08	 mov	 eax, DWORD PTR ___$ReturnUdt$[ebp]
  00066	8b 4d e0	 mov	 ecx, DWORD PTR $T13[ebp]
  00069	8a 09		 mov	 cl, BYTE PTR [ecx]
  0006b	88 48 04	 mov	 BYTE PTR [eax+4], cl
; File C:\Program Files (x86)\Microsoft Visual Studio\2019\Community\VC\Tools\MSVC\14.28.29333\include\xtree

; 1011 :                 return {_Loc._Bound, false};

  0006e	8b 45 08	 mov	 eax, DWORD PTR ___$ReturnUdt$[ebp]
  00071	e9 9d 00 00 00	 jmp	 $LN1@Emplace
$LN2@Emplace:

; 1012 :             }
; 1013 : 
; 1014 :             _Check_grow_by_1();

  00076	8b 4d f8	 mov	 ecx, DWORD PTR _this$[ebp]
  00079	e8 00 00 00 00	 call	 ?_Check_grow_by_1@?$_Tree@V?$_Tmap_traits@V?$basic_string@DU?$char_traits@D@std@@V?$allocator@D@2@@std@@MU?$less@V?$basic_string@DU?$char_traits@D@std@@V?$allocator@D@2@@std@@@2@V?$allocator@U?$pair@$$CBV?$basic_string@DU?$char_traits@D@std@@V?$allocator@D@2@@std@@M@std@@@2@$0A@@std@@@std@@IAEXXZ ; std::_Tree<std::_Tmap_traits<std::basic_string<char,std::char_traits<char>,std::allocator<char> >,float,std::less<std::basic_string<char,std::char_traits<char>,std::allocator<char> > >,std::allocator<std::pair<std::basic_string<char,std::char_traits<char>,std::allocator<char> > const ,float> >,0> >::_Check_grow_by_1
; File C:\Program Files (x86)\Microsoft Visual Studio\2019\Community\VC\Tools\MSVC\14.28.29333\include\type_traits

; 1443 :     return static_cast<_Ty&&>(_Arg);

  0007e	8b 45 0c	 mov	 eax, DWORD PTR _<_Vals_0>$[ebp]
  00081	89 45 d8	 mov	 DWORD PTR $T11[ebp], eax
; File C:\Program Files (x86)\Microsoft Visual Studio\2019\Community\VC\Tools\MSVC\14.28.29333\include\xtree

; 2039 :         return _Mypair._Myval2._Get_first();

  00084	8b 45 f8	 mov	 eax, DWORD PTR _this$[ebp]
; File C:\Program Files (x86)\Microsoft Visual Studio\2019\Community\VC\Tools\MSVC\14.28.29333\include\xmemory

; 1347 :         return *this;

  00087	89 45 dc	 mov	 DWORD PTR $T12[ebp], eax
; File C:\Program Files (x86)\Microsoft Visual Studio\2019\Community\VC\Tools\MSVC\14.28.29333\include\xtree

; 2039 :         return _Mypair._Myval2._Get_first();

  0008a	8b 45 dc	 mov	 eax, DWORD PTR $T12[ebp]
  0008d	89 45 d4	 mov	 DWORD PTR $T10[ebp], eax

; 1015 :             _Inserted = _Tree_temp_node<_Alnode>(_Getal(), _Scary->_Myhead, _STD forward<_Valtys>(_Vals)...)._Release();

  00090	ff 75 d8	 push	 DWORD PTR $T11[ebp]
  00093	8b 45 ec	 mov	 eax, DWORD PTR __Scary$[ebp]
  00096	ff 30		 push	 DWORD PTR [eax]
  00098	ff 75 d4	 push	 DWORD PTR $T10[ebp]
  0009b	8d 4d ac	 lea	 ecx, DWORD PTR $T2[ebp]
  0009e	e8 00 00 00 00	 call	 ??$?0U?$pair@$$CBV?$basic_string@DU?$char_traits@D@std@@V?$allocator@D@2@@std@@M@std@@@?$_Tree_temp_node@V?$allocator@U?$_Tree_node@U?$pair@$$CBV?$basic_string@DU?$char_traits@D@std@@V?$allocator@D@2@@std@@M@std@@PAX@std@@@std@@@std@@QAE@AAV?$allocator@U?$_Tree_node@U?$pair@$$CBV?$basic_string@DU?$char_traits@D@std@@V?$allocator@D@2@@std@@M@std@@PAX@std@@@1@PAU?$_Tree_node@U?$pair@$$CBV?$basic_string@DU?$char_traits@D@std@@V?$allocator@D@2@@std@@M@std@@PAX@1@$$QAU?$pair@$$CBV?$basic_string@DU?$char_traits@D@std@@V?$allocator@D@2@@std@@M@1@@Z ; std::_Tree_temp_node<std::allocator<std::_Tree_node<std::pair<std::basic_string<char,std::char_traits<char>,std::allocator<char> > const ,float>,void *> > >::_Tree_temp_node<std::allocator<std::_Tree_node<std::pair<std::basic_string<char,std::char_traits<char>,std::allocator<char> > const ,float>,void *> > ><std::pair<std::basic_string<char,std::char_traits<char>,std::allocator<char> > const ,float> >
  000a3	89 45 d0	 mov	 DWORD PTR $T9[ebp], eax
; File C:\Program Files (x86)\Microsoft Visual Studio\2019\Community\VC\Tools\MSVC\14.28.29333\include\xmemory

; 1048 :         return _STD exchange(_Ptr, nullptr);

  000a6	83 65 cc 00	 and	 DWORD PTR $T8[ebp], 0
  000aa	8b 45 d0	 mov	 eax, DWORD PTR $T9[ebp]
  000ad	83 c0 04	 add	 eax, 4
  000b0	89 45 f0	 mov	 DWORD PTR __Val$[ebp], eax
; File C:\Program Files (x86)\Microsoft Visual Studio\2019\Community\VC\Tools\MSVC\14.28.29333\include\utility

; 598  :     _Ty _Old_val = static_cast<_Ty&&>(_Val);

  000b3	8b 45 f0	 mov	 eax, DWORD PTR __Val$[ebp]
  000b6	8b 00		 mov	 eax, DWORD PTR [eax]
  000b8	89 45 c8	 mov	 DWORD PTR __Old_val$7[ebp], eax

; 599  :     _Val         = static_cast<_Other&&>(_New_val);

  000bb	8b 45 f0	 mov	 eax, DWORD PTR __Val$[ebp]
  000be	8b 4d cc	 mov	 ecx, DWORD PTR $T8[ebp]
  000c1	89 08		 mov	 DWORD PTR [eax], ecx

; 600  :     return _Old_val;

  000c3	8b 45 c8	 mov	 eax, DWORD PTR __Old_val$7[ebp]
  000c6	89 45 c4	 mov	 DWORD PTR $T6[ebp], eax
; File C:\Program Files (x86)\Microsoft Visual Studio\2019\Community\VC\Tools\MSVC\14.28.29333\include\xmemory

; 1048 :         return _STD exchange(_Ptr, nullptr);

  000c9	8b 45 c4	 mov	 eax, DWORD PTR $T6[ebp]
  000cc	89 45 c0	 mov	 DWORD PTR __Inserted$[ebp], eax
; File C:\Program Files (x86)\Microsoft Visual Studio\2019\Community\VC\Tools\MSVC\14.28.29333\include\xtree

; 1015 :             _Inserted = _Tree_temp_node<_Alnode>(_Getal(), _Scary->_Myhead, _STD forward<_Valtys>(_Vals)...)._Release();

  000cf	8d 4d ac	 lea	 ecx, DWORD PTR $T2[ebp]
  000d2	e8 00 00 00 00	 call	 ??1?$_Tree_temp_node@V?$allocator@U?$_Tree_node@U?$pair@$$CBV?$basic_string@DU?$char_traits@D@std@@V?$allocator@D@2@@std@@M@std@@PAX@std@@@std@@@std@@QAE@XZ ; std::_Tree_temp_node<std::allocator<std::_Tree_node<std::pair<std::basic_string<char,std::char_traits<char>,std::allocator<char> > const ,float>,void *> > >::~_Tree_temp_node<std::allocator<std::_Tree_node<std::pair<std::basic_string<char,std::char_traits<char>,std::allocator<char> > const ,float>,void *> > >

; 1034 :         return {_Scary->_Insert_node(_Loc._Location, _Inserted), true};

  000d7	ff 75 c0	 push	 DWORD PTR __Inserted$[ebp]
  000da	ff 75 a4	 push	 DWORD PTR __Loc$[ebp+4]
  000dd	ff 75 a0	 push	 DWORD PTR __Loc$[ebp]
  000e0	8b 4d ec	 mov	 ecx, DWORD PTR __Scary$[ebp]
  000e3	e8 00 00 00 00	 call	 ?_Insert_node@?$_Tree_val@U?$_Tree_simple_types@U?$pair@$$CBV?$basic_string@DU?$char_traits@D@std@@V?$allocator@D@2@@std@@M@std@@@std@@@std@@QAEPAU?$_Tree_node@U?$pair@$$CBV?$basic_string@DU?$char_traits@D@std@@V?$allocator@D@2@@std@@M@std@@PAX@2@U?$_Tree_id@PAU?$_Tree_node@U?$pair@$$CBV?$basic_string@DU?$char_traits@D@std@@V?$allocator@D@2@@std@@M@std@@PAX@std@@@2@QAU32@@Z ; std::_Tree_val<std::_Tree_simple_types<std::pair<std::basic_string<char,std::char_traits<char>,std::allocator<char> > const ,float> > >::_Insert_node
  000e8	89 45 bc	 mov	 DWORD PTR $T5[ebp], eax
  000eb	c6 45 fe 01	 mov	 BYTE PTR $T17[ebp], 1
; File C:\Program Files (x86)\Microsoft Visual Studio\2019\Community\VC\Tools\MSVC\14.28.29333\include\type_traits

; 1443 :     return static_cast<_Ty&&>(_Arg);

  000ef	8d 45 bc	 lea	 eax, DWORD PTR $T5[ebp]
  000f2	89 45 b8	 mov	 DWORD PTR $T4[ebp], eax
; File C:\Program Files (x86)\Microsoft Visual Studio\2019\Community\VC\Tools\MSVC\14.28.29333\include\utility

; 190  :         : first(_STD forward<_Other1>(_Val1)), second(_STD forward<_Other2>(_Val2)) {}

  000f5	8b 45 08	 mov	 eax, DWORD PTR ___$ReturnUdt$[ebp]
  000f8	8b 4d b8	 mov	 ecx, DWORD PTR $T4[ebp]
  000fb	8b 09		 mov	 ecx, DWORD PTR [ecx]
  000fd	89 08		 mov	 DWORD PTR [eax], ecx
; File C:\Program Files (x86)\Microsoft Visual Studio\2019\Community\VC\Tools\MSVC\14.28.29333\include\type_traits

; 1443 :     return static_cast<_Ty&&>(_Arg);

  000ff	8d 45 fe	 lea	 eax, DWORD PTR $T17[ebp]
  00102	89 45 b4	 mov	 DWORD PTR $T3[ebp], eax
; File C:\Program Files (x86)\Microsoft Visual Studio\2019\Community\VC\Tools\MSVC\14.28.29333\include\utility

; 190  :         : first(_STD forward<_Other1>(_Val1)), second(_STD forward<_Other2>(_Val2)) {}

  00105	8b 45 08	 mov	 eax, DWORD PTR ___$ReturnUdt$[ebp]
  00108	8b 4d b4	 mov	 ecx, DWORD PTR $T3[ebp]
  0010b	8a 09		 mov	 cl, BYTE PTR [ecx]
  0010d	88 48 04	 mov	 BYTE PTR [eax+4], cl
; File C:\Program Files (x86)\Microsoft Visual Studio\2019\Community\VC\Tools\MSVC\14.28.29333\include\xtree

; 1034 :         return {_Scary->_Insert_node(_Loc._Location, _Inserted), true};

  00110	8b 45 08	 mov	 eax, DWORD PTR ___$ReturnUdt$[ebp]
$LN1@Emplace:

; 1035 :     }

  00113	5f		 pop	 edi
  00114	5e		 pop	 esi
  00115	c9		 leave
  00116	c2 08 00	 ret	 8
??$_Emplace@U?$pair@$$CBV?$basic_string@DU?$char_traits@D@std@@V?$allocator@D@2@@std@@M@std@@@?$_Tree@V?$_Tmap_traits@V?$basic_string@DU?$char_traits@D@std@@V?$allocator@D@2@@std@@MU?$less@V?$basic_string@DU?$char_traits@D@std@@V?$allocator@D@2@@std@@@2@V?$allocator@U?$pair@$$CBV?$basic_string@DU?$char_traits@D@std@@V?$allocator@D@2@@std@@M@std@@@2@$0A@@std@@@std@@IAE?AU?$pair@PAU?$_Tree_node@U?$pair@$$CBV?$basic_string@DU?$char_traits@D@std@@V?$allocator@D@2@@std@@M@std@@PAX@std@@_N@1@$$QAU?$pair@$$CBV?$basic_string@DU?$char_traits@D@std@@V?$allocator@D@2@@std@@M@1@@Z ENDP ; std::_Tree<std::_Tmap_traits<std::basic_string<char,std::char_traits<char>,std::allocator<char> >,float,std::less<std::basic_string<char,std::char_traits<char>,std::allocator<char> > >,std::allocator<std::pair<std::basic_string<char,std::char_traits<char>,std::allocator<char> > const ,float> >,0> >::_Emplace<std::pair<std::basic_string<char,std::char_traits<char>,std::allocator<char> > const ,float> >
_TEXT	ENDS
; Function compile flags: /Odspy
; File C:\Program Files (x86)\Microsoft Visual Studio\2019\Community\VC\Tools\MSVC\14.28.29333\include\xmemory
;	COMDAT ??$_Deallocate@$07$0A@@std@@YAXPAXI@Z
_TEXT	SEGMENT
__$EHRec$ = -12						; size = 12
__Ptr$ = 8						; size = 4
__Bytes$ = 12						; size = 4
??$_Deallocate@$07$0A@@std@@YAXPAXI@Z PROC		; std::_Deallocate<8,0>, COMDAT

; 213  : void _Deallocate(void* _Ptr, size_t _Bytes) noexcept {

  00000	55		 push	 ebp
  00001	8b ec		 mov	 ebp, esp
  00003	6a ff		 push	 -1
  00005	68 00 00 00 00	 push	 __ehhandler$??$_Deallocate@$07$0A@@std@@YAXPAXI@Z
  0000a	64 a1 00 00 00
	00		 mov	 eax, DWORD PTR fs:0
  00010	50		 push	 eax
  00011	a1 00 00 00 00	 mov	 eax, DWORD PTR ___security_cookie
  00016	33 c5		 xor	 eax, ebp
  00018	50		 push	 eax
  00019	8d 45 f4	 lea	 eax, DWORD PTR __$EHRec$[ebp]
  0001c	64 a3 00 00 00
	00		 mov	 DWORD PTR fs:0, eax

; 214  :     // deallocate storage allocated by _Allocate when !_HAS_ALIGNED_NEW || _Align <= __STDCPP_DEFAULT_NEW_ALIGNMENT__
; 215  : #if defined(_M_IX86) || defined(_M_X64)
; 216  :     if (_Bytes >= _Big_allocation_threshold) { // boost the alignment of big allocations to help autovectorization

  00022	81 7d 0c 00 10
	00 00		 cmp	 DWORD PTR __Bytes$[ebp], 4096 ; 00001000H
  00029	72 0f		 jb	 SHORT $LN2@Deallocate

; 217  :         _Adjust_manually_vector_aligned(_Ptr, _Bytes);

  0002b	8d 45 0c	 lea	 eax, DWORD PTR __Bytes$[ebp]
  0002e	50		 push	 eax
  0002f	8d 45 08	 lea	 eax, DWORD PTR __Ptr$[ebp]
  00032	50		 push	 eax
  00033	e8 00 00 00 00	 call	 ?_Adjust_manually_vector_aligned@std@@YAXAAPAXAAI@Z ; std::_Adjust_manually_vector_aligned
  00038	59		 pop	 ecx
  00039	59		 pop	 ecx
$LN2@Deallocate:

; 218  :     }
; 219  : #endif // defined(_M_IX86) || defined(_M_X64)
; 220  : 
; 221  :     ::operator delete(_Ptr, _Bytes);

  0003a	ff 75 0c	 push	 DWORD PTR __Bytes$[ebp]
  0003d	ff 75 08	 push	 DWORD PTR __Ptr$[ebp]
  00040	e8 00 00 00 00	 call	 ??3@YAXPAXI@Z		; operator delete
  00045	59		 pop	 ecx
  00046	59		 pop	 ecx

; 222  : }

  00047	8b 4d f4	 mov	 ecx, DWORD PTR __$EHRec$[ebp]
  0004a	64 89 0d 00 00
	00 00		 mov	 DWORD PTR fs:0, ecx
  00051	59		 pop	 ecx
  00052	c9		 leave
  00053	c3		 ret	 0
  00054	cc		 int	 3
  00055	cc		 int	 3
  00056	cc		 int	 3
  00057	cc		 int	 3
  00058	cc		 int	 3
_TEXT	ENDS
;	COMDAT text$x
text$x	SEGMENT
__ehhandler$??$_Deallocate@$07$0A@@std@@YAXPAXI@Z:
  00000	90		 npad	 1
  00001	90		 npad	 1
  00002	8b 54 24 08	 mov	 edx, DWORD PTR [esp+8]
  00006	8d 42 0c	 lea	 eax, DWORD PTR [edx+12]
  00009	8b 4a fc	 mov	 ecx, DWORD PTR [edx-4]
  0000c	33 c8		 xor	 ecx, eax
  0000e	e8 00 00 00 00	 call	 @__security_check_cookie@4
  00013	b8 00 00 00 00	 mov	 eax, OFFSET __ehfuncinfo$??$_Deallocate@$07$0A@@std@@YAXPAXI@Z
  00018	e9 00 00 00 00	 jmp	 ___CxxFrameHandler3
text$x	ENDS
??$_Deallocate@$07$0A@@std@@YAXPAXI@Z ENDP		; std::_Deallocate<8,0>
; Function compile flags: /Odspy
; File C:\Program Files (x86)\Microsoft Visual Studio\2019\Community\VC\Tools\MSVC\14.28.29333\include\xtree
; File C:\Program Files (x86)\Microsoft Visual Studio\2019\Community\VC\Tools\MSVC\14.28.29333\include\xstddef
; File C:\Program Files (x86)\Microsoft Visual Studio\2019\Community\VC\Tools\MSVC\14.28.29333\include\xstring
; File C:\Program Files (x86)\Microsoft Visual Studio\2019\Community\VC\Tools\MSVC\14.28.29333\include\xtree
;	COMDAT ??$_Freenode@V?$allocator@U?$_Tree_node@U?$pair@$$CBV?$basic_string@DU?$char_traits@D@std@@V?$allocator@D@2@@std@@M@std@@PAX@std@@@std@@@?$_Tree_node@U?$pair@$$CBV?$basic_string@DU?$char_traits@D@std@@V?$allocator@D@2@@std@@M@std@@PAX@std@@SAXAAV?$allocator@U?$_Tree_node@U?$pair@$$CBV?$basic_string@DU?$char_traits@D@std@@V?$allocator@D@2@@std@@M@std@@PAX@std@@@1@PAU01@@Z
_TEXT	SEGMENT
$T1 = -4						; size = 4
__Al$ = 8						; size = 4
__Ptr$ = 12						; size = 4
??$_Freenode@V?$allocator@U?$_Tree_node@U?$pair@$$CBV?$basic_string@DU?$char_traits@D@std@@V?$allocator@D@2@@std@@M@std@@PAX@std@@@std@@@?$_Tree_node@U?$pair@$$CBV?$basic_string@DU?$char_traits@D@std@@V?$allocator@D@2@@std@@M@std@@PAX@std@@SAXAAV?$allocator@U?$_Tree_node@U?$pair@$$CBV?$basic_string@DU?$char_traits@D@std@@V?$allocator@D@2@@std@@M@std@@PAX@std@@@1@PAU01@@Z PROC ; std::_Tree_node<std::pair<std::basic_string<char,std::char_traits<char>,std::allocator<char> > const ,float>,void *>::_Freenode<std::allocator<std::_Tree_node<std::pair<std::basic_string<char,std::char_traits<char>,std::allocator<char> > const ,float>,void *> > >, COMDAT

; 377  :     static void _Freenode(_Alloc& _Al, _Nodeptr _Ptr) noexcept {

  00000	55		 push	 ebp
  00001	8b ec		 mov	 ebp, esp
  00003	51		 push	 ecx

; 378  :         static_assert(is_same_v<typename _Alloc::value_type, _Tree_node>, "Bad _Freenode call");
; 379  :         allocator_traits<_Alloc>::destroy(_Al, _STD addressof(_Ptr->_Myval));

  00004	8b 45 0c	 mov	 eax, DWORD PTR __Ptr$[ebp]
  00007	83 c0 10	 add	 eax, 16			; 00000010H
; File C:\Program Files (x86)\Microsoft Visual Studio\2019\Community\VC\Tools\MSVC\14.28.29333\include\xstddef

; 275  :     return __builtin_addressof(_Val);

  0000a	89 45 fc	 mov	 DWORD PTR $T1[ebp], eax
; File C:\Program Files (x86)\Microsoft Visual Studio\2019\Community\VC\Tools\MSVC\14.28.29333\include\xstring

; 2801 :         _Tidy_deallocate();

  0000d	8b 4d fc	 mov	 ecx, DWORD PTR $T1[ebp]
  00010	e8 00 00 00 00	 call	 ?_Tidy_deallocate@?$basic_string@DU?$char_traits@D@std@@V?$allocator@D@2@@std@@AAEXXZ ; std::basic_string<char,std::char_traits<char>,std::allocator<char> >::_Tidy_deallocate
  00015	33 c0		 xor	 eax, eax
  00017	83 e0 01	 and	 eax, 1
  0001a	74 0c		 je	 SHORT $LN6@Freenode
  0001c	6a 1c		 push	 28			; 0000001cH
  0001e	ff 75 fc	 push	 DWORD PTR $T1[ebp]
  00021	e8 00 00 00 00	 call	 ??3@YAXPAXI@Z		; operator delete
  00026	59		 pop	 ecx
  00027	59		 pop	 ecx
$LN6@Freenode:
; File C:\Program Files (x86)\Microsoft Visual Studio\2019\Community\VC\Tools\MSVC\14.28.29333\include\xtree

; 380  :         _Freenode0(_Al, _Ptr);

  00028	ff 75 0c	 push	 DWORD PTR __Ptr$[ebp]
  0002b	ff 75 08	 push	 DWORD PTR __Al$[ebp]
  0002e	e8 00 00 00 00	 call	 ??$_Freenode0@V?$allocator@U?$_Tree_node@U?$pair@$$CBV?$basic_string@DU?$char_traits@D@std@@V?$allocator@D@2@@std@@M@std@@PAX@std@@@std@@@?$_Tree_node@U?$pair@$$CBV?$basic_string@DU?$char_traits@D@std@@V?$allocator@D@2@@std@@M@std@@PAX@std@@SAXAAV?$allocator@U?$_Tree_node@U?$pair@$$CBV?$basic_string@DU?$char_traits@D@std@@V?$allocator@D@2@@std@@M@std@@PAX@std@@@1@PAU01@@Z ; std::_Tree_node<std::pair<std::basic_string<char,std::char_traits<char>,std::allocator<char> > const ,float>,void *>::_Freenode0<std::allocator<std::_Tree_node<std::pair<std::basic_string<char,std::char_traits<char>,std::allocator<char> > const ,float>,void *> > >
  00033	59		 pop	 ecx
  00034	59		 pop	 ecx

; 381  :     }

  00035	c9		 leave
  00036	c3		 ret	 0
??$_Freenode@V?$allocator@U?$_Tree_node@U?$pair@$$CBV?$basic_string@DU?$char_traits@D@std@@V?$allocator@D@2@@std@@M@std@@PAX@std@@@std@@@?$_Tree_node@U?$pair@$$CBV?$basic_string@DU?$char_traits@D@std@@V?$allocator@D@2@@std@@M@std@@PAX@std@@SAXAAV?$allocator@U?$_Tree_node@U?$pair@$$CBV?$basic_string@DU?$char_traits@D@std@@V?$allocator@D@2@@std@@M@std@@PAX@std@@@1@PAU01@@Z ENDP ; std::_Tree_node<std::pair<std::basic_string<char,std::char_traits<char>,std::allocator<char> > const ,float>,void *>::_Freenode<std::allocator<std::_Tree_node<std::pair<std::basic_string<char,std::char_traits<char>,std::allocator<char> > const ,float>,void *> > >
_TEXT	ENDS
; Function compile flags: /Odspy
; File C:\Program Files (x86)\Microsoft Visual Studio\2019\Community\VC\Tools\MSVC\14.28.29333\include\xtree
; File C:\Program Files (x86)\Microsoft Visual Studio\2019\Community\VC\Tools\MSVC\14.28.29333\include\utility
; File C:\Program Files (x86)\Microsoft Visual Studio\2019\Community\VC\Tools\MSVC\14.28.29333\include\xtree
;	COMDAT ??$_Erase_tree@V?$allocator@U?$_Tree_node@U?$pair@$$CBV?$basic_string@DU?$char_traits@D@std@@V?$allocator@D@2@@std@@M@std@@PAX@std@@@std@@@?$_Tree_val@U?$_Tree_simple_types@U?$pair@$$CBV?$basic_string@DU?$char_traits@D@std@@V?$allocator@D@2@@std@@M@std@@@std@@@std@@QAEXAAV?$allocator@U?$_Tree_node@U?$pair@$$CBV?$basic_string@DU?$char_traits@D@std@@V?$allocator@D@2@@std@@M@std@@PAX@std@@@1@PAU?$_Tree_node@U?$pair@$$CBV?$basic_string@DU?$char_traits@D@std@@V?$allocator@D@2@@std@@M@std@@PAX@1@@Z
_TEXT	SEGMENT
$T1 = -16						; size = 4
__Old_val$2 = -12					; size = 4
__New_val$ = -8						; size = 4
_this$ = -4						; size = 4
__Al$ = 8						; size = 4
__Rootnode$ = 12					; size = 4
??$_Erase_tree@V?$allocator@U?$_Tree_node@U?$pair@$$CBV?$basic_string@DU?$char_traits@D@std@@V?$allocator@D@2@@std@@M@std@@PAX@std@@@std@@@?$_Tree_val@U?$_Tree_simple_types@U?$pair@$$CBV?$basic_string@DU?$char_traits@D@std@@V?$allocator@D@2@@std@@M@std@@@std@@@std@@QAEXAAV?$allocator@U?$_Tree_node@U?$pair@$$CBV?$basic_string@DU?$char_traits@D@std@@V?$allocator@D@2@@std@@M@std@@PAX@std@@@1@PAU?$_Tree_node@U?$pair@$$CBV?$basic_string@DU?$char_traits@D@std@@V?$allocator@D@2@@std@@M@std@@PAX@1@@Z PROC ; std::_Tree_val<std::_Tree_simple_types<std::pair<std::basic_string<char,std::char_traits<char>,std::allocator<char> > const ,float> > >::_Erase_tree<std::allocator<std::_Tree_node<std::pair<std::basic_string<char,std::char_traits<char>,std::allocator<char> > const ,float>,void *> > >, COMDAT
; _this$ = ecx

; 742  :     void _Erase_tree(_Alnode& _Al, _Nodeptr _Rootnode) noexcept {

  00000	55		 push	 ebp
  00001	8b ec		 mov	 ebp, esp
  00003	83 ec 10	 sub	 esp, 16			; 00000010H
  00006	89 4d fc	 mov	 DWORD PTR _this$[ebp], ecx
$LN2@Erase_tree:

; 743  :         while (!_Rootnode->_Isnil) { // free subtrees, then node

  00009	8b 45 0c	 mov	 eax, DWORD PTR __Rootnode$[ebp]
  0000c	0f be 40 0d	 movsx	 eax, BYTE PTR [eax+13]
  00010	85 c0		 test	 eax, eax
  00012	75 3a		 jne	 SHORT $LN4@Erase_tree

; 744  :             _Erase_tree(_Al, _Rootnode->_Right);

  00014	8b 45 0c	 mov	 eax, DWORD PTR __Rootnode$[ebp]
  00017	ff 70 08	 push	 DWORD PTR [eax+8]
  0001a	ff 75 08	 push	 DWORD PTR __Al$[ebp]
  0001d	8b 4d fc	 mov	 ecx, DWORD PTR _this$[ebp]
  00020	e8 00 00 00 00	 call	 ??$_Erase_tree@V?$allocator@U?$_Tree_node@U?$pair@$$CBV?$basic_string@DU?$char_traits@D@std@@V?$allocator@D@2@@std@@M@std@@PAX@std@@@std@@@?$_Tree_val@U?$_Tree_simple_types@U?$pair@$$CBV?$basic_string@DU?$char_traits@D@std@@V?$allocator@D@2@@std@@M@std@@@std@@@std@@QAEXAAV?$allocator@U?$_Tree_node@U?$pair@$$CBV?$basic_string@DU?$char_traits@D@std@@V?$allocator@D@2@@std@@M@std@@PAX@std@@@1@PAU?$_Tree_node@U?$pair@$$CBV?$basic_string@DU?$char_traits@D@std@@V?$allocator@D@2@@std@@M@std@@PAX@1@@Z ; std::_Tree_val<std::_Tree_simple_types<std::pair<std::basic_string<char,std::char_traits<char>,std::allocator<char> > const ,float> > >::_Erase_tree<std::allocator<std::_Tree_node<std::pair<std::basic_string<char,std::char_traits<char>,std::allocator<char> > const ,float>,void *> > >

; 745  :             _Alnode::value_type::_Freenode(_Al, _STD exchange(_Rootnode, _Rootnode->_Left));

  00025	8b 45 0c	 mov	 eax, DWORD PTR __Rootnode$[ebp]
  00028	89 45 f8	 mov	 DWORD PTR __New_val$[ebp], eax
; File C:\Program Files (x86)\Microsoft Visual Studio\2019\Community\VC\Tools\MSVC\14.28.29333\include\utility

; 598  :     _Ty _Old_val = static_cast<_Ty&&>(_Val);

  0002b	8b 45 0c	 mov	 eax, DWORD PTR __Rootnode$[ebp]
  0002e	89 45 f4	 mov	 DWORD PTR __Old_val$2[ebp], eax

; 599  :     _Val         = static_cast<_Other&&>(_New_val);

  00031	8b 45 f8	 mov	 eax, DWORD PTR __New_val$[ebp]
  00034	8b 00		 mov	 eax, DWORD PTR [eax]
  00036	89 45 0c	 mov	 DWORD PTR __Rootnode$[ebp], eax

; 600  :     return _Old_val;

  00039	8b 45 f4	 mov	 eax, DWORD PTR __Old_val$2[ebp]
  0003c	89 45 f0	 mov	 DWORD PTR $T1[ebp], eax
; File C:\Program Files (x86)\Microsoft Visual Studio\2019\Community\VC\Tools\MSVC\14.28.29333\include\xtree

; 745  :             _Alnode::value_type::_Freenode(_Al, _STD exchange(_Rootnode, _Rootnode->_Left));

  0003f	ff 75 f0	 push	 DWORD PTR $T1[ebp]
  00042	ff 75 08	 push	 DWORD PTR __Al$[ebp]
  00045	e8 00 00 00 00	 call	 ??$_Freenode@V?$allocator@U?$_Tree_node@U?$pair@$$CBV?$basic_string@DU?$char_traits@D@std@@V?$allocator@D@2@@std@@M@std@@PAX@std@@@std@@@?$_Tree_node@U?$pair@$$CBV?$basic_string@DU?$char_traits@D@std@@V?$allocator@D@2@@std@@M@std@@PAX@std@@SAXAAV?$allocator@U?$_Tree_node@U?$pair@$$CBV?$basic_string@DU?$char_traits@D@std@@V?$allocator@D@2@@std@@M@std@@PAX@std@@@1@PAU01@@Z ; std::_Tree_node<std::pair<std::basic_string<char,std::char_traits<char>,std::allocator<char> > const ,float>,void *>::_Freenode<std::allocator<std::_Tree_node<std::pair<std::basic_string<char,std::char_traits<char>,std::allocator<char> > const ,float>,void *> > >
  0004a	59		 pop	 ecx
  0004b	59		 pop	 ecx

; 746  :         }

  0004c	eb bb		 jmp	 SHORT $LN2@Erase_tree
$LN4@Erase_tree:

; 747  :     }

  0004e	c9		 leave
  0004f	c2 08 00	 ret	 8
??$_Erase_tree@V?$allocator@U?$_Tree_node@U?$pair@$$CBV?$basic_string@DU?$char_traits@D@std@@V?$allocator@D@2@@std@@M@std@@PAX@std@@@std@@@?$_Tree_val@U?$_Tree_simple_types@U?$pair@$$CBV?$basic_string@DU?$char_traits@D@std@@V?$allocator@D@2@@std@@M@std@@@std@@@std@@QAEXAAV?$allocator@U?$_Tree_node@U?$pair@$$CBV?$basic_string@DU?$char_traits@D@std@@V?$allocator@D@2@@std@@M@std@@PAX@std@@@1@PAU?$_Tree_node@U?$pair@$$CBV?$basic_string@DU?$char_traits@D@std@@V?$allocator@D@2@@std@@M@std@@PAX@1@@Z ENDP ; std::_Tree_val<std::_Tree_simple_types<std::pair<std::basic_string<char,std::char_traits<char>,std::allocator<char> > const ,float> > >::_Erase_tree<std::allocator<std::_Tree_node<std::pair<std::basic_string<char,std::char_traits<char>,std::allocator<char> > const ,float>,void *> > >
_TEXT	ENDS
; Function compile flags: /Odspy
; File C:\Program Files (x86)\Microsoft Visual Studio\2019\Community\VC\Tools\MSVC\14.28.29333\include\xtree
; File C:\Program Files (x86)\Microsoft Visual Studio\2019\Community\VC\Tools\MSVC\14.28.29333\include\xmemory
; File C:\Program Files (x86)\Microsoft Visual Studio\2019\Community\VC\Tools\MSVC\14.28.29333\include\xtree
;	COMDAT ??$_Buyheadnode@V?$allocator@U?$_Tree_node@U?$pair@$$CBV?$basic_string@DU?$char_traits@D@std@@V?$allocator@D@2@@std@@M@std@@PAX@std@@@std@@@?$_Tree_node@U?$pair@$$CBV?$basic_string@DU?$char_traits@D@std@@V?$allocator@D@2@@std@@M@std@@PAX@std@@SAPAU01@AAV?$allocator@U?$_Tree_node@U?$pair@$$CBV?$basic_string@DU?$char_traits@D@std@@V?$allocator@D@2@@std@@M@std@@PAX@std@@@1@@Z
_TEXT	SEGMENT
__Max_possible$1 = -20					; size = 4
$T2 = -16						; size = 4
$T3 = -12						; size = 4
__Pnode$ = -8						; size = 4
__Overflow_is_possible$4 = -1				; size = 1
__Al$ = 8						; size = 4
??$_Buyheadnode@V?$allocator@U?$_Tree_node@U?$pair@$$CBV?$basic_string@DU?$char_traits@D@std@@V?$allocator@D@2@@std@@M@std@@PAX@std@@@std@@@?$_Tree_node@U?$pair@$$CBV?$basic_string@DU?$char_traits@D@std@@V?$allocator@D@2@@std@@M@std@@PAX@std@@SAPAU01@AAV?$allocator@U?$_Tree_node@U?$pair@$$CBV?$basic_string@DU?$char_traits@D@std@@V?$allocator@D@2@@std@@M@std@@PAX@std@@@1@@Z PROC ; std::_Tree_node<std::pair<std::basic_string<char,std::char_traits<char>,std::allocator<char> > const ,float>,void *>::_Buyheadnode<std::allocator<std::_Tree_node<std::pair<std::basic_string<char,std::char_traits<char>,std::allocator<char> > const ,float>,void *> > >, COMDAT

; 341  :     static _Nodeptr _Buyheadnode(_Alloc& _Al) {

  00000	55		 push	 ebp
  00001	8b ec		 mov	 ebp, esp
  00003	83 ec 14	 sub	 esp, 20			; 00000014H
; File C:\Program Files (x86)\Microsoft Visual Studio\2019\Community\VC\Tools\MSVC\14.28.29333\include\xmemory

; 56   :     constexpr bool _Overflow_is_possible = _Ty_size > 1;

  00006	c6 45 ff 01	 mov	 BYTE PTR __Overflow_is_possible$4[ebp], 1

; 57   : 
; 58   :     if _CONSTEXPR_IF (_Overflow_is_possible) {
; 59   :         constexpr size_t _Max_possible = static_cast<size_t>(-1) / _Ty_size;

  0000a	c7 45 ec 5d 74
	d1 05		 mov	 DWORD PTR __Max_possible$1[ebp], 97612893 ; 05d1745dH

; 60   :         if (_Count > _Max_possible) {

  00011	33 c0		 xor	 eax, eax
  00013	40		 inc	 eax
  00014	3d 5d 74 d1 05	 cmp	 eax, 97612893		; 05d1745dH
  00019	76 05		 jbe	 SHORT $LN6@Buyheadnod

; 61   :             _Throw_bad_array_new_length(); // multiply overflow

  0001b	e8 00 00 00 00	 call	 ?_Throw_bad_array_new_length@std@@YAXXZ ; std::_Throw_bad_array_new_length
$LN6@Buyheadnod:

; 62   :         }
; 63   :     }
; 64   : 
; 65   :     return _Count * _Ty_size;

  00020	33 c0		 xor	 eax, eax
  00022	40		 inc	 eax
  00023	6b c0 2c	 imul	 eax, eax, 44
  00026	89 45 f4	 mov	 DWORD PTR $T3[ebp], eax

; 814  :         return static_cast<_Ty*>(_Allocate<_New_alignof<_Ty>>(_Get_size_of_n<sizeof(_Ty)>(_Count)));

  00029	ff 75 f4	 push	 DWORD PTR $T3[ebp]
  0002c	e8 00 00 00 00	 call	 ??$_Allocate@$07U_Default_allocate_traits@std@@$0A@@std@@YAPAXI@Z ; std::_Allocate<8,std::_Default_allocate_traits,0>
  00031	59		 pop	 ecx
  00032	89 45 f0	 mov	 DWORD PTR $T2[ebp], eax
; File C:\Program Files (x86)\Microsoft Visual Studio\2019\Community\VC\Tools\MSVC\14.28.29333\include\xtree

; 343  :         const auto _Pnode = _Al.allocate(1);

  00035	8b 45 f0	 mov	 eax, DWORD PTR $T2[ebp]
  00038	89 45 f8	 mov	 DWORD PTR __Pnode$[ebp], eax

; 344  :         _Construct_in_place(_Pnode->_Left, _Pnode);

  0003b	8d 45 f8	 lea	 eax, DWORD PTR __Pnode$[ebp]
  0003e	50		 push	 eax
  0003f	ff 75 f8	 push	 DWORD PTR __Pnode$[ebp]
  00042	e8 00 00 00 00	 call	 ??$_Construct_in_place@PAU?$_Tree_node@U?$pair@$$CBV?$basic_string@DU?$char_traits@D@std@@V?$allocator@D@2@@std@@M@std@@PAX@std@@ABQAU12@@std@@YAXAAPAU?$_Tree_node@U?$pair@$$CBV?$basic_string@DU?$char_traits@D@std@@V?$allocator@D@2@@std@@M@std@@PAX@0@ABQAU10@@Z ; std::_Construct_in_place<std::_Tree_node<std::pair<std::basic_string<char,std::char_traits<char>,std::allocator<char> > const ,float>,void *> *,std::_Tree_node<std::pair<std::basic_string<char,std::char_traits<char>,std::allocator<char> > const ,float>,void *> * const &>
  00047	59		 pop	 ecx
  00048	59		 pop	 ecx

; 345  :         _Construct_in_place(_Pnode->_Parent, _Pnode);

  00049	8d 45 f8	 lea	 eax, DWORD PTR __Pnode$[ebp]
  0004c	50		 push	 eax
  0004d	8b 45 f8	 mov	 eax, DWORD PTR __Pnode$[ebp]
  00050	83 c0 04	 add	 eax, 4
  00053	50		 push	 eax
  00054	e8 00 00 00 00	 call	 ??$_Construct_in_place@PAU?$_Tree_node@U?$pair@$$CBV?$basic_string@DU?$char_traits@D@std@@V?$allocator@D@2@@std@@M@std@@PAX@std@@ABQAU12@@std@@YAXAAPAU?$_Tree_node@U?$pair@$$CBV?$basic_string@DU?$char_traits@D@std@@V?$allocator@D@2@@std@@M@std@@PAX@0@ABQAU10@@Z ; std::_Construct_in_place<std::_Tree_node<std::pair<std::basic_string<char,std::char_traits<char>,std::allocator<char> > const ,float>,void *> *,std::_Tree_node<std::pair<std::basic_string<char,std::char_traits<char>,std::allocator<char> > const ,float>,void *> * const &>
  00059	59		 pop	 ecx
  0005a	59		 pop	 ecx

; 346  :         _Construct_in_place(_Pnode->_Right, _Pnode);

  0005b	8d 45 f8	 lea	 eax, DWORD PTR __Pnode$[ebp]
  0005e	50		 push	 eax
  0005f	8b 45 f8	 mov	 eax, DWORD PTR __Pnode$[ebp]
  00062	83 c0 08	 add	 eax, 8
  00065	50		 push	 eax
  00066	e8 00 00 00 00	 call	 ??$_Construct_in_place@PAU?$_Tree_node@U?$pair@$$CBV?$basic_string@DU?$char_traits@D@std@@V?$allocator@D@2@@std@@M@std@@PAX@std@@ABQAU12@@std@@YAXAAPAU?$_Tree_node@U?$pair@$$CBV?$basic_string@DU?$char_traits@D@std@@V?$allocator@D@2@@std@@M@std@@PAX@0@ABQAU10@@Z ; std::_Construct_in_place<std::_Tree_node<std::pair<std::basic_string<char,std::char_traits<char>,std::allocator<char> > const ,float>,void *> *,std::_Tree_node<std::pair<std::basic_string<char,std::char_traits<char>,std::allocator<char> > const ,float>,void *> * const &>
  0006b	59		 pop	 ecx
  0006c	59		 pop	 ecx

; 347  :         _Pnode->_Color = _Black;

  0006d	8b 45 f8	 mov	 eax, DWORD PTR __Pnode$[ebp]
  00070	c6 40 0c 01	 mov	 BYTE PTR [eax+12], 1

; 348  :         _Pnode->_Isnil = true;

  00074	8b 45 f8	 mov	 eax, DWORD PTR __Pnode$[ebp]
  00077	c6 40 0d 01	 mov	 BYTE PTR [eax+13], 1

; 349  :         return _Pnode;

  0007b	8b 45 f8	 mov	 eax, DWORD PTR __Pnode$[ebp]
$LN9@Buyheadnod:

; 350  :     }

  0007e	c9		 leave
  0007f	c3		 ret	 0
??$_Buyheadnode@V?$allocator@U?$_Tree_node@U?$pair@$$CBV?$basic_string@DU?$char_traits@D@std@@V?$allocator@D@2@@std@@M@std@@PAX@std@@@std@@@?$_Tree_node@U?$pair@$$CBV?$basic_string@DU?$char_traits@D@std@@V?$allocator@D@2@@std@@M@std@@PAX@std@@SAPAU01@AAV?$allocator@U?$_Tree_node@U?$pair@$$CBV?$basic_string@DU?$char_traits@D@std@@V?$allocator@D@2@@std@@M@std@@PAX@std@@@1@@Z ENDP ; std::_Tree_node<std::pair<std::basic_string<char,std::char_traits<char>,std::allocator<char> > const ,float>,void *>::_Buyheadnode<std::allocator<std::_Tree_node<std::pair<std::basic_string<char,std::char_traits<char>,std::allocator<char> > const ,float>,void *> > >
_TEXT	ENDS
; Function compile flags: /Odspy
; File C:\Program Files (x86)\Microsoft Visual Studio\2019\Community\VC\Tools\MSVC\14.28.29333\include\xstring
; File C:\Program Files (x86)\Microsoft Visual Studio\2019\Community\VC\Tools\MSVC\14.28.29333\include\xmemory
; File C:\Program Files (x86)\Microsoft Visual Studio\2019\Community\VC\Tools\MSVC\14.28.29333\include\xstring
; File C:\Program Files (x86)\Microsoft Visual Studio\2019\Community\VC\Tools\MSVC\14.28.29333\include\xmemory
; File C:\Program Files (x86)\Microsoft Visual Studio\2019\Community\VC\Tools\MSVC\14.28.29333\include\xstring
; File C:\Program Files (x86)\Microsoft Visual Studio\2019\Community\VC\Tools\MSVC\14.28.29333\include\xmemory
; File C:\Program Files (x86)\Microsoft Visual Studio\2019\Community\VC\Tools\MSVC\14.28.29333\include\xstring
; File C:\Program Files (x86)\Microsoft Visual Studio\2019\Community\VC\Tools\MSVC\14.28.29333\include\xstddef
; File C:\Program Files (x86)\Microsoft Visual Studio\2019\Community\VC\Tools\MSVC\14.28.29333\include\xstring
; File C:\Program Files (x86)\Microsoft Visual Studio\2019\Community\VC\Tools\MSVC\14.28.29333\include\xmemory
; File C:\Program Files (x86)\Microsoft Visual Studio\2019\Community\VC\Tools\MSVC\14.28.29333\include\xstring
;	COMDAT ??$_Reallocate_for@V<lambda_9366063389c5f42a00a5088cf24e69de>@@PBD@?$basic_string@DU?$char_traits@D@std@@V?$allocator@D@2@@std@@AAEAAV01@IV<lambda_9366063389c5f42a00a5088cf24e69de>@@PBD@Z
_TEXT	SEGMENT
__Al$ = -40						; size = 4
__Ptr$ = -36						; size = 4
__Ptr$ = -32						; size = 4
$T1 = -28						; size = 4
__Old_capacity$ = -24					; size = 4
$T2 = -20						; size = 4
__New_capacity$ = -16					; size = 4
__New_ptr$ = -12					; size = 4
_this$ = -8						; size = 4
__Overflow_is_possible$3 = -2				; size = 1
$T4 = -1						; size = 1
__New_size$ = 8						; size = 4
__Fn$ = 12						; size = 1
_<_Args_0>$ = 16					; size = 4
??$_Reallocate_for@V<lambda_9366063389c5f42a00a5088cf24e69de>@@PBD@?$basic_string@DU?$char_traits@D@std@@V?$allocator@D@2@@std@@AAEAAV01@IV<lambda_9366063389c5f42a00a5088cf24e69de>@@PBD@Z PROC ; std::basic_string<char,std::char_traits<char>,std::allocator<char> >::_Reallocate_for<<lambda_9366063389c5f42a00a5088cf24e69de>,char const *>, COMDAT
; _this$ = ecx

; 4302 :     basic_string& _Reallocate_for(const size_type _New_size, _Fty _Fn, _ArgTys... _Args) {

  00000	55		 push	 ebp
  00001	8b ec		 mov	 ebp, esp
  00003	83 ec 28	 sub	 esp, 40			; 00000028H
  00006	89 4d f8	 mov	 DWORD PTR _this$[ebp], ecx

; 4303 :         // reallocate to store exactly _New_size elements, new buffer prepared by
; 4304 :         // _Fn(_New_ptr, _New_size, _Args...)
; 4305 :         if (_New_size > max_size()) {

  00009	8b 4d f8	 mov	 ecx, DWORD PTR _this$[ebp]
  0000c	e8 00 00 00 00	 call	 ?max_size@?$basic_string@DU?$char_traits@D@std@@V?$allocator@D@2@@std@@QBEIXZ ; std::basic_string<char,std::char_traits<char>,std::allocator<char> >::max_size
  00011	39 45 08	 cmp	 DWORD PTR __New_size$[ebp], eax
  00014	76 05		 jbe	 SHORT $LN2@Reallocate

; 4306 :             _Xlen_string(); // result too long

  00016	e8 00 00 00 00	 call	 ?_Xlen_string@std@@YAXXZ ; std::_Xlen_string
$LN2@Reallocate:

; 4307 :         }
; 4308 : 
; 4309 :         const size_type _Old_capacity = _Mypair._Myval2._Myres;

  0001b	8b 45 f8	 mov	 eax, DWORD PTR _this$[ebp]
  0001e	8b 40 14	 mov	 eax, DWORD PTR [eax+20]
  00021	89 45 e8	 mov	 DWORD PTR __Old_capacity$[ebp], eax

; 4310 :         const size_type _New_capacity = _Calculate_growth(_New_size);

  00024	ff 75 08	 push	 DWORD PTR __New_size$[ebp]
  00027	8b 4d f8	 mov	 ecx, DWORD PTR _this$[ebp]
  0002a	e8 00 00 00 00	 call	 ?_Calculate_growth@?$basic_string@DU?$char_traits@D@std@@V?$allocator@D@2@@std@@ABEII@Z ; std::basic_string<char,std::char_traits<char>,std::allocator<char> >::_Calculate_growth
  0002f	89 45 f0	 mov	 DWORD PTR __New_capacity$[ebp], eax

; 4409 :         return _Mypair._Get_first();

  00032	8b 45 f8	 mov	 eax, DWORD PTR _this$[ebp]
; File C:\Program Files (x86)\Microsoft Visual Studio\2019\Community\VC\Tools\MSVC\14.28.29333\include\xmemory

; 1347 :         return *this;

  00035	89 45 e4	 mov	 DWORD PTR $T1[ebp], eax
; File C:\Program Files (x86)\Microsoft Visual Studio\2019\Community\VC\Tools\MSVC\14.28.29333\include\xstring

; 4409 :         return _Mypair._Get_first();

  00038	8b 45 e4	 mov	 eax, DWORD PTR $T1[ebp]
  0003b	89 45 d8	 mov	 DWORD PTR __Al$[ebp], eax
; File C:\Program Files (x86)\Microsoft Visual Studio\2019\Community\VC\Tools\MSVC\14.28.29333\include\xmemory

; 56   :     constexpr bool _Overflow_is_possible = _Ty_size > 1;

  0003e	c6 45 fe 00	 mov	 BYTE PTR __Overflow_is_possible$3[ebp], 0
; File C:\Program Files (x86)\Microsoft Visual Studio\2019\Community\VC\Tools\MSVC\14.28.29333\include\xstring

; 4312 :         const pointer _New_ptr        = _Al.allocate(_New_capacity + 1); // throws

  00042	8b 45 f0	 mov	 eax, DWORD PTR __New_capacity$[ebp]
  00045	40		 inc	 eax
; File C:\Program Files (x86)\Microsoft Visual Studio\2019\Community\VC\Tools\MSVC\14.28.29333\include\xmemory

; 814  :         return static_cast<_Ty*>(_Allocate<_New_alignof<_Ty>>(_Get_size_of_n<sizeof(_Ty)>(_Count)));

  00046	50		 push	 eax
  00047	e8 00 00 00 00	 call	 ??$_Allocate@$07U_Default_allocate_traits@std@@$0A@@std@@YAPAXI@Z ; std::_Allocate<8,std::_Default_allocate_traits,0>
  0004c	59		 pop	 ecx
; File C:\Program Files (x86)\Microsoft Visual Studio\2019\Community\VC\Tools\MSVC\14.28.29333\include\xstring

; 4312 :         const pointer _New_ptr        = _Al.allocate(_New_capacity + 1); // throws

  0004d	89 45 f4	 mov	 DWORD PTR __New_ptr$[ebp], eax

; 4313 :         _Mypair._Myval2._Orphan_all();
; 4314 :         _Mypair._Myval2._Mysize = _New_size;

  00050	8b 45 f8	 mov	 eax, DWORD PTR _this$[ebp]
  00053	8b 4d 08	 mov	 ecx, DWORD PTR __New_size$[ebp]
  00056	89 48 10	 mov	 DWORD PTR [eax+16], ecx

; 4315 :         _Mypair._Myval2._Myres  = _New_capacity;

  00059	8b 45 f8	 mov	 eax, DWORD PTR _this$[ebp]
  0005c	8b 4d f0	 mov	 ecx, DWORD PTR __New_capacity$[ebp]
  0005f	89 48 14	 mov	 DWORD PTR [eax+20], ecx

; 4316 :         _Fn(_Unfancy(_New_ptr), _New_size, _Args...);

  00062	8b 45 f4	 mov	 eax, DWORD PTR __New_ptr$[ebp]
  00065	89 45 e0	 mov	 DWORD PTR __Ptr$[ebp], eax
; File C:\Program Files (x86)\Microsoft Visual Studio\2019\Community\VC\Tools\MSVC\14.28.29333\include\xstddef

; 289  :     return _Ptr;

  00068	8b 45 e0	 mov	 eax, DWORD PTR __Ptr$[ebp]
  0006b	89 45 ec	 mov	 DWORD PTR $T2[ebp], eax
; File C:\Program Files (x86)\Microsoft Visual Studio\2019\Community\VC\Tools\MSVC\14.28.29333\include\xstring

; 62   :         _CSTD memcpy(_First1, _First2, _Count * sizeof(_Elem));

  0006e	ff 75 08	 push	 DWORD PTR __New_size$[ebp]
  00071	ff 75 10	 push	 DWORD PTR _<_Args_0>$[ebp]
  00074	ff 75 ec	 push	 DWORD PTR $T2[ebp]
  00077	e8 00 00 00 00	 call	 _memcpy
  0007c	83 c4 0c	 add	 esp, 12			; 0000000cH

; 3056 :                 _Traits::assign(_New_ptr[_Count], _Elem());

  0007f	c6 45 ff 00	 mov	 BYTE PTR $T4[ebp], 0

; 428  :         _Left = _Right;

  00083	8b 45 ec	 mov	 eax, DWORD PTR $T2[ebp]
  00086	03 45 08	 add	 eax, DWORD PTR __New_size$[ebp]
  00089	8a 4d ff	 mov	 cl, BYTE PTR $T4[ebp]
  0008c	88 08		 mov	 BYTE PTR [eax], cl

; 4317 :         if (_BUF_SIZE <= _Old_capacity) {

  0008e	83 7d e8 10	 cmp	 DWORD PTR __Old_capacity$[ebp], 16 ; 00000010H
  00092	72 21		 jb	 SHORT $LN3@Reallocate

; 4318 :             _Al.deallocate(_Mypair._Myval2._Bx._Ptr, _Old_capacity + 1);

  00094	8b 45 f8	 mov	 eax, DWORD PTR _this$[ebp]
  00097	8b 00		 mov	 eax, DWORD PTR [eax]
  00099	89 45 dc	 mov	 DWORD PTR __Ptr$[ebp], eax
  0009c	8b 45 e8	 mov	 eax, DWORD PTR __Old_capacity$[ebp]
  0009f	40		 inc	 eax
; File C:\Program Files (x86)\Microsoft Visual Studio\2019\Community\VC\Tools\MSVC\14.28.29333\include\xmemory

; 810  :         _Deallocate<_New_alignof<_Ty>>(_Ptr, sizeof(_Ty) * _Count);

  000a0	50		 push	 eax
  000a1	ff 75 dc	 push	 DWORD PTR __Ptr$[ebp]
  000a4	e8 00 00 00 00	 call	 ??$_Deallocate@$07$0A@@std@@YAXPAXI@Z ; std::_Deallocate<8,0>
  000a9	59		 pop	 ecx
  000aa	59		 pop	 ecx
; File C:\Program Files (x86)\Microsoft Visual Studio\2019\Community\VC\Tools\MSVC\14.28.29333\include\xstring

; 4319 :             _Mypair._Myval2._Bx._Ptr = _New_ptr;

  000ab	8b 45 f8	 mov	 eax, DWORD PTR _this$[ebp]
  000ae	8b 4d f4	 mov	 ecx, DWORD PTR __New_ptr$[ebp]
  000b1	89 08		 mov	 DWORD PTR [eax], ecx

; 4320 :         } else {

  000b3	eb 0e		 jmp	 SHORT $LN4@Reallocate
$LN3@Reallocate:

; 4321 :             _Construct_in_place(_Mypair._Myval2._Bx._Ptr, _New_ptr);

  000b5	8d 45 f4	 lea	 eax, DWORD PTR __New_ptr$[ebp]
  000b8	50		 push	 eax
  000b9	ff 75 f8	 push	 DWORD PTR _this$[ebp]
  000bc	e8 00 00 00 00	 call	 ??$_Construct_in_place@PADABQAD@std@@YAXAAPADABQAD@Z ; std::_Construct_in_place<char *,char * const &>
  000c1	59		 pop	 ecx
  000c2	59		 pop	 ecx
$LN4@Reallocate:

; 4322 :         }
; 4323 : 
; 4324 :         return *this;

  000c3	8b 45 f8	 mov	 eax, DWORD PTR _this$[ebp]
$LN5@Reallocate:

; 4325 :     }

  000c6	c9		 leave
  000c7	c2 0c 00	 ret	 12			; 0000000cH
??$_Reallocate_for@V<lambda_9366063389c5f42a00a5088cf24e69de>@@PBD@?$basic_string@DU?$char_traits@D@std@@V?$allocator@D@2@@std@@AAEAAV01@IV<lambda_9366063389c5f42a00a5088cf24e69de>@@PBD@Z ENDP ; std::basic_string<char,std::char_traits<char>,std::allocator<char> >::_Reallocate_for<<lambda_9366063389c5f42a00a5088cf24e69de>,char const *>
_TEXT	ENDS
; Function compile flags: /Odspy
; File C:\Program Files (x86)\Microsoft Visual Studio\2019\Community\VC\Tools\MSVC\14.28.29333\include\xmemory
;	COMDAT ??$_Destroy_in_place@PAD@std@@YAXAAPAD@Z
_TEXT	SEGMENT
__Obj$ = 8						; size = 4
??$_Destroy_in_place@PAD@std@@YAXAAPAD@Z PROC		; std::_Destroy_in_place<char *>, COMDAT

; 270  : /* _CONSTEXPR20_DYNALLOC */ void _Destroy_in_place(_Ty& _Obj) noexcept {

  00000	55		 push	 ebp
  00001	8b ec		 mov	 ebp, esp

; 271  : #if _HAS_IF_CONSTEXPR
; 272  :     if constexpr (is_array_v<_Ty>) {
; 273  :         _Destroy_range(_Obj, _Obj + extent_v<_Ty>);
; 274  :     } else
; 275  : #endif // _HAS_IF_CONSTEXPR
; 276  :     {
; 277  :         _Obj.~_Ty();
; 278  :     }
; 279  : }

  00003	5d		 pop	 ebp
  00004	c3		 ret	 0
??$_Destroy_in_place@PAD@std@@YAXAAPAD@Z ENDP		; std::_Destroy_in_place<char *>
_TEXT	ENDS
; Function compile flags: /Odspy
; File C:\Program Files (x86)\Microsoft Visual Studio\2019\Community\VC\Tools\MSVC\14.28.29333\include\xutility
; File C:\Program Files (x86)\Microsoft Visual Studio\2019\Community\VC\Tools\MSVC\14.28.29333\include\xtree
; File C:\Program Files (x86)\Microsoft Visual Studio\2019\Community\VC\Tools\MSVC\14.28.29333\include\xutility
;	COMDAT ??$distance@V?$_Tree_unchecked_const_iterator@V?$_Tree_val@U?$_Tree_simple_types@U?$pair@$$CBV?$basic_string@DU?$char_traits@D@std@@V?$allocator@D@2@@std@@M@std@@@std@@@std@@U_Iterator_base0@2@@std@@@std@@YAHV?$_Tree_unchecked_const_iterator@V?$_Tree_val@U?$_Tree_simple_types@U?$pair@$$CBV?$basic_string@DU?$char_traits@D@std@@V?$allocator@D@2@@std@@M@std@@@std@@@std@@U_Iterator_base0@2@@0@0@Z
_TEXT	SEGMENT
__ULast$1 = -24						; size = 4
tv95 = -20						; size = 4
tv87 = -16						; size = 4
__UFirst$2 = -12					; size = 4
__Off$3 = -8						; size = 4
$T4 = -2						; size = 1
$T5 = -1						; size = 1
__First$ = 8						; size = 4
__Last$ = 12						; size = 4
??$distance@V?$_Tree_unchecked_const_iterator@V?$_Tree_val@U?$_Tree_simple_types@U?$pair@$$CBV?$basic_string@DU?$char_traits@D@std@@V?$allocator@D@2@@std@@M@std@@@std@@@std@@U_Iterator_base0@2@@std@@@std@@YAHV?$_Tree_unchecked_const_iterator@V?$_Tree_val@U?$_Tree_simple_types@U?$pair@$$CBV?$basic_string@DU?$char_traits@D@std@@V?$allocator@D@2@@std@@M@std@@@std@@@std@@U_Iterator_base0@2@@0@0@Z PROC ; std::distance<std::_Tree_unchecked_const_iterator<std::_Tree_val<std::_Tree_simple_types<std::pair<std::basic_string<char,std::char_traits<char>,std::allocator<char> > const ,float> > >,std::_Iterator_base0> >, COMDAT

; 1792 : _NODISCARD _CONSTEXPR17 _Iter_diff_t<_InIt> distance(_InIt _First, _InIt _Last) {

  00000	55		 push	 ebp
  00001	8b ec		 mov	 ebp, esp
  00003	83 ec 18	 sub	 esp, 24			; 00000018H

; 1793 :     if constexpr (_Is_random_iter_v<_InIt>) {
; 1794 :         return _Last - _First; // assume the iterator will do debug checking
; 1795 :     } else {
; 1796 :         _Adl_verify_range(_First, _Last);
; 1797 :         auto _UFirst             = _Get_unwrapped(_First);

  00006	8b 45 08	 mov	 eax, DWORD PTR __First$[ebp]
  00009	89 45 f4	 mov	 DWORD PTR __UFirst$2[ebp], eax

; 1798 :         const auto _ULast        = _Get_unwrapped(_Last);

  0000c	8b 45 0c	 mov	 eax, DWORD PTR __Last$[ebp]
  0000f	89 45 e8	 mov	 DWORD PTR __ULast$1[ebp], eax

; 1799 :         _Iter_diff_t<_InIt> _Off = 0;

  00012	83 65 f8 00	 and	 DWORD PTR __Off$3[ebp], 0
  00016	eb 08		 jmp	 SHORT $LN4@distance
$LN2@distance:

; 1800 :         for (; _UFirst != _ULast; ++_UFirst) {

  00018	8d 4d f4	 lea	 ecx, DWORD PTR __UFirst$2[ebp]
  0001b	e8 00 00 00 00	 call	 ??E?$_Tree_unchecked_const_iterator@V?$_Tree_val@U?$_Tree_simple_types@U?$pair@$$CBV?$basic_string@DU?$char_traits@D@std@@V?$allocator@D@2@@std@@M@std@@@std@@@std@@U_Iterator_base0@2@@std@@QAEAAV01@XZ ; std::_Tree_unchecked_const_iterator<std::_Tree_val<std::_Tree_simple_types<std::pair<std::basic_string<char,std::char_traits<char>,std::allocator<char> > const ,float> > >,std::_Iterator_base0>::operator++
$LN4@distance:
; File C:\Program Files (x86)\Microsoft Visual Studio\2019\Community\VC\Tools\MSVC\14.28.29333\include\xtree

; 98   :         return _Ptr == _Right._Ptr;

  00020	8b 45 f4	 mov	 eax, DWORD PTR __UFirst$2[ebp]
  00023	3b 45 e8	 cmp	 eax, DWORD PTR __ULast$1[ebp]
  00026	75 09		 jne	 SHORT $LN31@distance
  00028	c7 45 f0 01 00
	00 00		 mov	 DWORD PTR tv87[ebp], 1
  0002f	eb 04		 jmp	 SHORT $LN32@distance
$LN31@distance:
  00031	83 65 f0 00	 and	 DWORD PTR tv87[ebp], 0
$LN32@distance:
  00035	8a 45 f0	 mov	 al, BYTE PTR tv87[ebp]
  00038	88 45 ff	 mov	 BYTE PTR $T5[ebp], al

; 102  :         return !(*this == _Right);

  0003b	0f b6 45 ff	 movzx	 eax, BYTE PTR $T5[ebp]
  0003f	85 c0		 test	 eax, eax
  00041	75 09		 jne	 SHORT $LN26@distance
  00043	c7 45 ec 01 00
	00 00		 mov	 DWORD PTR tv95[ebp], 1
  0004a	eb 04		 jmp	 SHORT $LN27@distance
$LN26@distance:
  0004c	83 65 ec 00	 and	 DWORD PTR tv95[ebp], 0
$LN27@distance:
  00050	8a 45 ec	 mov	 al, BYTE PTR tv95[ebp]
  00053	88 45 fe	 mov	 BYTE PTR $T4[ebp], al
; File C:\Program Files (x86)\Microsoft Visual Studio\2019\Community\VC\Tools\MSVC\14.28.29333\include\xutility

; 1800 :         for (; _UFirst != _ULast; ++_UFirst) {

  00056	0f b6 45 fe	 movzx	 eax, BYTE PTR $T4[ebp]
  0005a	85 c0		 test	 eax, eax
  0005c	74 09		 je	 SHORT $LN3@distance

; 1801 :             ++_Off;

  0005e	8b 45 f8	 mov	 eax, DWORD PTR __Off$3[ebp]
  00061	40		 inc	 eax
  00062	89 45 f8	 mov	 DWORD PTR __Off$3[ebp], eax

; 1802 :         }

  00065	eb b1		 jmp	 SHORT $LN2@distance
$LN3@distance:

; 1803 : 
; 1804 :         return _Off;

  00067	8b 45 f8	 mov	 eax, DWORD PTR __Off$3[ebp]

; 1805 :     }
; 1806 : }

  0006a	c9		 leave
  0006b	c3		 ret	 0
??$distance@V?$_Tree_unchecked_const_iterator@V?$_Tree_val@U?$_Tree_simple_types@U?$pair@$$CBV?$basic_string@DU?$char_traits@D@std@@V?$allocator@D@2@@std@@M@std@@@std@@@std@@U_Iterator_base0@2@@std@@@std@@YAHV?$_Tree_unchecked_const_iterator@V?$_Tree_val@U?$_Tree_simple_types@U?$pair@$$CBV?$basic_string@DU?$char_traits@D@std@@V?$allocator@D@2@@std@@M@std@@@std@@@std@@U_Iterator_base0@2@@0@0@Z ENDP ; std::distance<std::_Tree_unchecked_const_iterator<std::_Tree_val<std::_Tree_simple_types<std::pair<std::basic_string<char,std::char_traits<char>,std::allocator<char> > const ,float> > >,std::_Iterator_base0> >
_TEXT	ENDS
; Function compile flags: /Odspy
; File C:\Program Files (x86)\Microsoft Visual Studio\2019\Community\VC\Tools\MSVC\14.28.29333\include\xtree
; File C:\Program Files (x86)\Microsoft Visual Studio\2019\Community\VC\Tools\MSVC\14.28.29333\include\xstddef
; File C:\Program Files (x86)\Microsoft Visual Studio\2019\Community\VC\Tools\MSVC\14.28.29333\include\xtree
;	COMDAT ??$_Find@V?$basic_string@DU?$char_traits@D@std@@V?$allocator@D@2@@std@@@?$_Tree@V?$_Tmap_traits@V?$basic_string@DU?$char_traits@D@std@@V?$allocator@D@2@@std@@MU?$less@V?$basic_string@DU?$char_traits@D@std@@V?$allocator@D@2@@std@@@2@V?$allocator@U?$pair@$$CBV?$basic_string@DU?$char_traits@D@std@@V?$allocator@D@2@@std@@M@std@@@2@$0A@@std@@@std@@ABEPAU?$_Tree_node@U?$pair@$$CBV?$basic_string@DU?$char_traits@D@std@@V?$allocator@D@2@@std@@M@std@@PAX@1@ABV?$basic_string@DU?$char_traits@D@std@@V?$allocator@D@2@@1@@Z
_TEXT	SEGMENT
__Loc$ = -24						; size = 12
$T1 = -12						; size = 4
$T2 = -8						; size = 4
_this$ = -4						; size = 4
__Keyval$ = 8						; size = 4
??$_Find@V?$basic_string@DU?$char_traits@D@std@@V?$allocator@D@2@@std@@@?$_Tree@V?$_Tmap_traits@V?$basic_string@DU?$char_traits@D@std@@V?$allocator@D@2@@std@@MU?$less@V?$basic_string@DU?$char_traits@D@std@@V?$allocator@D@2@@std@@@2@V?$allocator@U?$pair@$$CBV?$basic_string@DU?$char_traits@D@std@@V?$allocator@D@2@@std@@M@std@@@2@$0A@@std@@@std@@ABEPAU?$_Tree_node@U?$pair@$$CBV?$basic_string@DU?$char_traits@D@std@@V?$allocator@D@2@@std@@M@std@@PAX@1@ABV?$basic_string@DU?$char_traits@D@std@@V?$allocator@D@2@@1@@Z PROC ; std::_Tree<std::_Tmap_traits<std::basic_string<char,std::char_traits<char>,std::allocator<char> >,float,std::less<std::basic_string<char,std::char_traits<char>,std::allocator<char> > >,std::allocator<std::pair<std::basic_string<char,std::char_traits<char>,std::allocator<char> > const ,float> >,0> >::_Find<std::basic_string<char,std::char_traits<char>,std::allocator<char> > >, COMDAT
; _this$ = ecx

; 1457 :     _NODISCARD _Nodeptr _Find(const _Other& _Keyval) const {

  00000	55		 push	 ebp
  00001	8b ec		 mov	 ebp, esp
  00003	83 ec 18	 sub	 esp, 24			; 00000018H
  00006	89 4d fc	 mov	 DWORD PTR _this$[ebp], ecx

; 1458 :         const _Tree_find_result<_Nodeptr> _Loc = _Find_lower_bound(_Keyval);

  00009	ff 75 08	 push	 DWORD PTR __Keyval$[ebp]
  0000c	8d 45 e8	 lea	 eax, DWORD PTR __Loc$[ebp]
  0000f	50		 push	 eax
  00010	8b 4d fc	 mov	 ecx, DWORD PTR _this$[ebp]
  00013	e8 00 00 00 00	 call	 ??$_Find_lower_bound@V?$basic_string@DU?$char_traits@D@std@@V?$allocator@D@2@@std@@@?$_Tree@V?$_Tmap_traits@V?$basic_string@DU?$char_traits@D@std@@V?$allocator@D@2@@std@@MU?$less@V?$basic_string@DU?$char_traits@D@std@@V?$allocator@D@2@@std@@@2@V?$allocator@U?$pair@$$CBV?$basic_string@DU?$char_traits@D@std@@V?$allocator@D@2@@std@@M@std@@@2@$0A@@std@@@std@@IBE?AU?$_Tree_find_result@PAU?$_Tree_node@U?$pair@$$CBV?$basic_string@DU?$char_traits@D@std@@V?$allocator@D@2@@std@@M@std@@PAX@std@@@1@ABV?$basic_string@DU?$char_traits@D@std@@V?$allocator@D@2@@1@@Z ; std::_Tree<std::_Tmap_traits<std::basic_string<char,std::char_traits<char>,std::allocator<char> >,float,std::less<std::basic_string<char,std::char_traits<char>,std::allocator<char> > >,std::allocator<std::pair<std::basic_string<char,std::char_traits<char>,std::allocator<char> > const ,float> >,0> >::_Find_lower_bound<std::basic_string<char,std::char_traits<char>,std::allocator<char> > >

; 1459 :         if (_Lower_bound_duplicate(_Loc._Bound, _Keyval)) {

  00018	ff 75 08	 push	 DWORD PTR __Keyval$[ebp]
  0001b	ff 75 f0	 push	 DWORD PTR __Loc$[ebp+8]
  0001e	8b 4d fc	 mov	 ecx, DWORD PTR _this$[ebp]
  00021	e8 00 00 00 00	 call	 ??$_Lower_bound_duplicate@V?$basic_string@DU?$char_traits@D@std@@V?$allocator@D@2@@std@@@?$_Tree@V?$_Tmap_traits@V?$basic_string@DU?$char_traits@D@std@@V?$allocator@D@2@@std@@MU?$less@V?$basic_string@DU?$char_traits@D@std@@V?$allocator@D@2@@std@@@2@V?$allocator@U?$pair@$$CBV?$basic_string@DU?$char_traits@D@std@@V?$allocator@D@2@@std@@M@std@@@2@$0A@@std@@@std@@IBE_NQAU?$_Tree_node@U?$pair@$$CBV?$basic_string@DU?$char_traits@D@std@@V?$allocator@D@2@@std@@M@std@@PAX@1@ABV?$basic_string@DU?$char_traits@D@std@@V?$allocator@D@2@@1@@Z ; std::_Tree<std::_Tmap_traits<std::basic_string<char,std::char_traits<char>,std::allocator<char> >,float,std::less<std::basic_string<char,std::char_traits<char>,std::allocator<char> > >,std::allocator<std::pair<std::basic_string<char,std::char_traits<char>,std::allocator<char> > const ,float> >,0> >::_Lower_bound_duplicate<std::basic_string<char,std::char_traits<char>,std::allocator<char> > >
  00026	0f b6 c0	 movzx	 eax, al
  00029	85 c0		 test	 eax, eax
  0002b	74 05		 je	 SHORT $LN2@Find

; 1460 :             return _Loc._Bound;

  0002d	8b 45 f0	 mov	 eax, DWORD PTR __Loc$[ebp+8]
  00030	eb 11		 jmp	 SHORT $LN1@Find
$LN2@Find:

; 2051 :         return _STD addressof(_Mypair._Myval2._Myval2);

  00032	8b 45 fc	 mov	 eax, DWORD PTR _this$[ebp]
; File C:\Program Files (x86)\Microsoft Visual Studio\2019\Community\VC\Tools\MSVC\14.28.29333\include\xstddef

; 275  :     return __builtin_addressof(_Val);

  00035	89 45 f8	 mov	 DWORD PTR $T2[ebp], eax
; File C:\Program Files (x86)\Microsoft Visual Studio\2019\Community\VC\Tools\MSVC\14.28.29333\include\xtree

; 2051 :         return _STD addressof(_Mypair._Myval2._Myval2);

  00038	8b 45 f8	 mov	 eax, DWORD PTR $T2[ebp]
  0003b	89 45 f4	 mov	 DWORD PTR $T1[ebp], eax

; 1461 :         }
; 1462 : 
; 1463 :         return _Get_scary()->_Myhead;

  0003e	8b 45 f4	 mov	 eax, DWORD PTR $T1[ebp]
  00041	8b 00		 mov	 eax, DWORD PTR [eax]
$LN1@Find:

; 1464 :     }

  00043	c9		 leave
  00044	c2 04 00	 ret	 4
??$_Find@V?$basic_string@DU?$char_traits@D@std@@V?$allocator@D@2@@std@@@?$_Tree@V?$_Tmap_traits@V?$basic_string@DU?$char_traits@D@std@@V?$allocator@D@2@@std@@MU?$less@V?$basic_string@DU?$char_traits@D@std@@V?$allocator@D@2@@std@@@2@V?$allocator@U?$pair@$$CBV?$basic_string@DU?$char_traits@D@std@@V?$allocator@D@2@@std@@M@std@@@2@$0A@@std@@@std@@ABEPAU?$_Tree_node@U?$pair@$$CBV?$basic_string@DU?$char_traits@D@std@@V?$allocator@D@2@@std@@M@std@@PAX@1@ABV?$basic_string@DU?$char_traits@D@std@@V?$allocator@D@2@@1@@Z ENDP ; std::_Tree<std::_Tmap_traits<std::basic_string<char,std::char_traits<char>,std::allocator<char> >,float,std::less<std::basic_string<char,std::char_traits<char>,std::allocator<char> > >,std::allocator<std::pair<std::basic_string<char,std::char_traits<char>,std::allocator<char> > const ,float> >,0> >::_Find<std::basic_string<char,std::char_traits<char>,std::allocator<char> > >
_TEXT	ENDS
; Function compile flags: /Odspy
; File C:\Program Files (x86)\Microsoft Visual Studio\2019\Community\VC\Tools\MSVC\14.28.29333\include\xtree
; File C:\Program Files (x86)\Microsoft Visual Studio\2019\Community\VC\Tools\MSVC\14.28.29333\include\type_traits
; File C:\Program Files (x86)\Microsoft Visual Studio\2019\Community\VC\Tools\MSVC\14.28.29333\include\xtree
; File C:\Program Files (x86)\Microsoft Visual Studio\2019\Community\VC\Tools\MSVC\14.28.29333\include\xstddef
; File C:\Program Files (x86)\Microsoft Visual Studio\2019\Community\VC\Tools\MSVC\14.28.29333\include\xtree
; File C:\Program Files (x86)\Microsoft Visual Studio\2019\Community\VC\Tools\MSVC\14.28.29333\include\type_traits
; File C:\Program Files (x86)\Microsoft Visual Studio\2019\Community\VC\Tools\MSVC\14.28.29333\include\utility
; File C:\Program Files (x86)\Microsoft Visual Studio\2019\Community\VC\Tools\MSVC\14.28.29333\include\type_traits
; File C:\Program Files (x86)\Microsoft Visual Studio\2019\Community\VC\Tools\MSVC\14.28.29333\include\utility
; File C:\Program Files (x86)\Microsoft Visual Studio\2019\Community\VC\Tools\MSVC\14.28.29333\include\xtree
;	COMDAT ??$insert@$0A@$0A@@?$_Tree@V?$_Tmap_traits@V?$basic_string@DU?$char_traits@D@std@@V?$allocator@D@2@@std@@MU?$less@V?$basic_string@DU?$char_traits@D@std@@V?$allocator@D@2@@std@@@2@V?$allocator@U?$pair@$$CBV?$basic_string@DU?$char_traits@D@std@@V?$allocator@D@2@@std@@M@std@@@2@$0A@@std@@@std@@QAE?AU?$pair@V?$_Tree_iterator@V?$_Tree_val@U?$_Tree_simple_types@U?$pair@$$CBV?$basic_string@DU?$char_traits@D@std@@V?$allocator@D@2@@std@@M@std@@@std@@@std@@@std@@_N@1@$$QAU?$pair@$$CBV?$basic_string@DU?$char_traits@D@std@@V?$allocator@D@2@@std@@M@1@@Z
_TEXT	SEGMENT
__Result$ = -40						; size = 8
$T1 = -32						; size = 4
$T2 = -28						; size = 4
$T3 = -24						; size = 4
$T4 = -20						; size = 4
___param0$ = -16					; size = 4
$T5 = -12						; size = 4
$T6 = -8						; size = 4
_this$ = -4						; size = 4
___$ReturnUdt$ = 8					; size = 4
__Val$ = 12						; size = 4
??$insert@$0A@$0A@@?$_Tree@V?$_Tmap_traits@V?$basic_string@DU?$char_traits@D@std@@V?$allocator@D@2@@std@@MU?$less@V?$basic_string@DU?$char_traits@D@std@@V?$allocator@D@2@@std@@@2@V?$allocator@U?$pair@$$CBV?$basic_string@DU?$char_traits@D@std@@V?$allocator@D@2@@std@@M@std@@@2@$0A@@std@@@std@@QAE?AU?$pair@V?$_Tree_iterator@V?$_Tree_val@U?$_Tree_simple_types@U?$pair@$$CBV?$basic_string@DU?$char_traits@D@std@@V?$allocator@D@2@@std@@M@std@@@std@@@std@@@std@@_N@1@$$QAU?$pair@$$CBV?$basic_string@DU?$char_traits@D@std@@V?$allocator@D@2@@std@@M@1@@Z PROC ; std::_Tree<std::_Tmap_traits<std::basic_string<char,std::char_traits<char>,std::allocator<char> >,float,std::less<std::basic_string<char,std::char_traits<char>,std::allocator<char> > >,std::allocator<std::pair<std::basic_string<char,std::char_traits<char>,std::allocator<char> > const ,float> >,0> >::insert<0,0>, COMDAT
; _this$ = ecx

; 1343 :     pair<iterator, bool> insert(value_type&& _Val) {

  00000	55		 push	 ebp
  00001	8b ec		 mov	 ebp, esp
  00003	83 ec 28	 sub	 esp, 40			; 00000028H
  00006	89 4d fc	 mov	 DWORD PTR _this$[ebp], ecx
; File C:\Program Files (x86)\Microsoft Visual Studio\2019\Community\VC\Tools\MSVC\14.28.29333\include\type_traits

; 1455 :     return static_cast<remove_reference_t<_Ty>&&>(_Arg);

  00009	8b 45 0c	 mov	 eax, DWORD PTR __Val$[ebp]
  0000c	89 45 f8	 mov	 DWORD PTR $T6[ebp], eax
; File C:\Program Files (x86)\Microsoft Visual Studio\2019\Community\VC\Tools\MSVC\14.28.29333\include\xtree

; 1344 :         const auto _Result = _Emplace(_STD move(_Val));

  0000f	ff 75 f8	 push	 DWORD PTR $T6[ebp]
  00012	8d 45 d8	 lea	 eax, DWORD PTR __Result$[ebp]
  00015	50		 push	 eax
  00016	8b 4d fc	 mov	 ecx, DWORD PTR _this$[ebp]
  00019	e8 00 00 00 00	 call	 ??$_Emplace@U?$pair@$$CBV?$basic_string@DU?$char_traits@D@std@@V?$allocator@D@2@@std@@M@std@@@?$_Tree@V?$_Tmap_traits@V?$basic_string@DU?$char_traits@D@std@@V?$allocator@D@2@@std@@MU?$less@V?$basic_string@DU?$char_traits@D@std@@V?$allocator@D@2@@std@@@2@V?$allocator@U?$pair@$$CBV?$basic_string@DU?$char_traits@D@std@@V?$allocator@D@2@@std@@M@std@@@2@$0A@@std@@@std@@IAE?AU?$pair@PAU?$_Tree_node@U?$pair@$$CBV?$basic_string@DU?$char_traits@D@std@@V?$allocator@D@2@@std@@M@std@@PAX@std@@_N@1@$$QAU?$pair@$$CBV?$basic_string@DU?$char_traits@D@std@@V?$allocator@D@2@@std@@M@1@@Z ; std::_Tree<std::_Tmap_traits<std::basic_string<char,std::char_traits<char>,std::allocator<char> >,float,std::less<std::basic_string<char,std::char_traits<char>,std::allocator<char> > >,std::allocator<std::pair<std::basic_string<char,std::char_traits<char>,std::allocator<char> > const ,float> >,0> >::_Emplace<std::pair<std::basic_string<char,std::char_traits<char>,std::allocator<char> > const ,float> >

; 2047 :         return _STD addressof(_Mypair._Myval2._Myval2);

  0001e	8b 45 fc	 mov	 eax, DWORD PTR _this$[ebp]
; File C:\Program Files (x86)\Microsoft Visual Studio\2019\Community\VC\Tools\MSVC\14.28.29333\include\xstddef

; 275  :     return __builtin_addressof(_Val);

  00021	89 45 f4	 mov	 DWORD PTR $T5[ebp], eax
; File C:\Program Files (x86)\Microsoft Visual Studio\2019\Community\VC\Tools\MSVC\14.28.29333\include\xtree

; 2047 :         return _STD addressof(_Mypair._Myval2._Myval2);

  00024	8b 45 f4	 mov	 eax, DWORD PTR $T5[ebp]
  00027	89 45 e0	 mov	 DWORD PTR $T1[ebp], eax

; 1345 :         return {iterator(_Result.first, _Get_scary()), _Result.second};

  0002a	8b 45 d8	 mov	 eax, DWORD PTR __Result$[ebp]
  0002d	89 45 f0	 mov	 DWORD PTR ___param0$[ebp], eax

; 39   :     _Tree_unchecked_const_iterator(_Nodeptr _Pnode, const _Mytree* _Plist) noexcept : _Ptr(_Pnode) {

  00030	8b 45 f0	 mov	 eax, DWORD PTR ___param0$[ebp]
  00033	89 45 ec	 mov	 DWORD PTR $T4[ebp], eax
; File C:\Program Files (x86)\Microsoft Visual Studio\2019\Community\VC\Tools\MSVC\14.28.29333\include\type_traits

; 1443 :     return static_cast<_Ty&&>(_Arg);

  00036	8d 45 ec	 lea	 eax, DWORD PTR $T4[ebp]
  00039	89 45 e8	 mov	 DWORD PTR $T3[ebp], eax
; File C:\Program Files (x86)\Microsoft Visual Studio\2019\Community\VC\Tools\MSVC\14.28.29333\include\utility

; 190  :         : first(_STD forward<_Other1>(_Val1)), second(_STD forward<_Other2>(_Val2)) {}

  0003c	8b 45 e8	 mov	 eax, DWORD PTR $T3[ebp]
  0003f	8b 00		 mov	 eax, DWORD PTR [eax]
  00041	8b 4d 08	 mov	 ecx, DWORD PTR ___$ReturnUdt$[ebp]
  00044	89 01		 mov	 DWORD PTR [ecx], eax
; File C:\Program Files (x86)\Microsoft Visual Studio\2019\Community\VC\Tools\MSVC\14.28.29333\include\type_traits

; 1443 :     return static_cast<_Ty&&>(_Arg);

  00046	8d 45 dc	 lea	 eax, DWORD PTR __Result$[ebp+4]
  00049	89 45 e4	 mov	 DWORD PTR $T2[ebp], eax
; File C:\Program Files (x86)\Microsoft Visual Studio\2019\Community\VC\Tools\MSVC\14.28.29333\include\utility

; 190  :         : first(_STD forward<_Other1>(_Val1)), second(_STD forward<_Other2>(_Val2)) {}

  0004c	8b 45 08	 mov	 eax, DWORD PTR ___$ReturnUdt$[ebp]
  0004f	8b 4d e4	 mov	 ecx, DWORD PTR $T2[ebp]
  00052	8a 09		 mov	 cl, BYTE PTR [ecx]
  00054	88 48 04	 mov	 BYTE PTR [eax+4], cl
; File C:\Program Files (x86)\Microsoft Visual Studio\2019\Community\VC\Tools\MSVC\14.28.29333\include\xtree

; 1345 :         return {iterator(_Result.first, _Get_scary()), _Result.second};

  00057	8b 45 08	 mov	 eax, DWORD PTR ___$ReturnUdt$[ebp]

; 1346 :     }

  0005a	c9		 leave
  0005b	c2 08 00	 ret	 8
??$insert@$0A@$0A@@?$_Tree@V?$_Tmap_traits@V?$basic_string@DU?$char_traits@D@std@@V?$allocator@D@2@@std@@MU?$less@V?$basic_string@DU?$char_traits@D@std@@V?$allocator@D@2@@std@@@2@V?$allocator@U?$pair@$$CBV?$basic_string@DU?$char_traits@D@std@@V?$allocator@D@2@@std@@M@std@@@2@$0A@@std@@@std@@QAE?AU?$pair@V?$_Tree_iterator@V?$_Tree_val@U?$_Tree_simple_types@U?$pair@$$CBV?$basic_string@DU?$char_traits@D@std@@V?$allocator@D@2@@std@@M@std@@@std@@@std@@@std@@_N@1@$$QAU?$pair@$$CBV?$basic_string@DU?$char_traits@D@std@@V?$allocator@D@2@@std@@M@1@@Z ENDP ; std::_Tree<std::_Tmap_traits<std::basic_string<char,std::char_traits<char>,std::allocator<char> >,float,std::less<std::basic_string<char,std::char_traits<char>,std::allocator<char> > >,std::allocator<std::pair<std::basic_string<char,std::char_traits<char>,std::allocator<char> > const ,float> >,0> >::insert<0,0>
_TEXT	ENDS
; Function compile flags: /Odspy
; File C:\Program Files (x86)\Microsoft Visual Studio\2019\Community\VC\Tools\MSVC\14.28.29333\include\xtree
; File C:\Program Files (x86)\Microsoft Visual Studio\2019\Community\VC\Tools\MSVC\14.28.29333\include\xstddef
; File C:\Program Files (x86)\Microsoft Visual Studio\2019\Community\VC\Tools\MSVC\14.28.29333\include\xtree
; File C:\Program Files (x86)\Microsoft Visual Studio\2019\Community\VC\Tools\MSVC\14.28.29333\include\xmemory
; File C:\Program Files (x86)\Microsoft Visual Studio\2019\Community\VC\Tools\MSVC\14.28.29333\include\xtree
; File C:\Program Files (x86)\Microsoft Visual Studio\2019\Community\VC\Tools\MSVC\14.28.29333\include\map
; File C:\Program Files (x86)\Microsoft Visual Studio\2019\Community\VC\Tools\MSVC\14.28.29333\include\xtree
; File C:\Program Files (x86)\Microsoft Visual Studio\2019\Community\VC\Tools\MSVC\14.28.29333\include\xstddef
; File C:\Program Files (x86)\Microsoft Visual Studio\2019\Community\VC\Tools\MSVC\14.28.29333\include\xtree
; File C:\Program Files (x86)\Microsoft Visual Studio\2019\Community\VC\Tools\MSVC\14.28.29333\include\xstddef
; File C:\Program Files (x86)\Microsoft Visual Studio\2019\Community\VC\Tools\MSVC\14.28.29333\include\xtree
; File C:\Program Files (x86)\Microsoft Visual Studio\2019\Community\VC\Tools\MSVC\14.28.29333\include\xmemory
; File C:\Program Files (x86)\Microsoft Visual Studio\2019\Community\VC\Tools\MSVC\14.28.29333\include\xtree
; File C:\Program Files (x86)\Microsoft Visual Studio\2019\Community\VC\Tools\MSVC\14.28.29333\include\map
; File C:\Program Files (x86)\Microsoft Visual Studio\2019\Community\VC\Tools\MSVC\14.28.29333\include\xstddef
; File C:\Program Files (x86)\Microsoft Visual Studio\2019\Community\VC\Tools\MSVC\14.28.29333\include\xtree
; File C:\Program Files (x86)\Microsoft Visual Studio\2019\Community\VC\Tools\MSVC\14.28.29333\include\type_traits
; File C:\Program Files (x86)\Microsoft Visual Studio\2019\Community\VC\Tools\MSVC\14.28.29333\include\utility
; File C:\Program Files (x86)\Microsoft Visual Studio\2019\Community\VC\Tools\MSVC\14.28.29333\include\type_traits
; File C:\Program Files (x86)\Microsoft Visual Studio\2019\Community\VC\Tools\MSVC\14.28.29333\include\utility
; File C:\Program Files (x86)\Microsoft Visual Studio\2019\Community\VC\Tools\MSVC\14.28.29333\include\xtree
;	COMDAT ??$_Eqrange@V?$basic_string@DU?$char_traits@D@std@@V?$allocator@D@2@@std@@@?$_Tree@V?$_Tmap_traits@V?$basic_string@DU?$char_traits@D@std@@V?$allocator@D@2@@std@@MU?$less@V?$basic_string@DU?$char_traits@D@std@@V?$allocator@D@2@@std@@@2@V?$allocator@U?$pair@$$CBV?$basic_string@DU?$char_traits@D@std@@V?$allocator@D@2@@std@@M@std@@@2@$0A@@std@@@std@@IBE?AU?$pair@PAU?$_Tree_node@U?$pair@$$CBV?$basic_string@DU?$char_traits@D@std@@V?$allocator@D@2@@std@@M@std@@PAX@std@@PAU12@@1@ABV?$basic_string@DU?$char_traits@D@std@@V?$allocator@D@2@@1@@Z
_TEXT	SEGMENT
$T1 = -56						; size = 4
__Comp$ = -52						; size = 4
$T2 = -48						; size = 4
$T3 = -44						; size = 4
$T4 = -40						; size = 4
$T5 = -36						; size = 4
$T6 = -32						; size = 4
__Lonode$ = -28						; size = 4
tv133 = -24						; size = 4
__Nodekey$7 = -20					; size = 4
_this$ = -16						; size = 4
__Scary$ = -12						; size = 4
__Hinode$ = -8						; size = 4
__Pnode$ = -4						; size = 4
___$ReturnUdt$ = 8					; size = 4
__Keyval$ = 12						; size = 4
??$_Eqrange@V?$basic_string@DU?$char_traits@D@std@@V?$allocator@D@2@@std@@@?$_Tree@V?$_Tmap_traits@V?$basic_string@DU?$char_traits@D@std@@V?$allocator@D@2@@std@@MU?$less@V?$basic_string@DU?$char_traits@D@std@@V?$allocator@D@2@@std@@@2@V?$allocator@U?$pair@$$CBV?$basic_string@DU?$char_traits@D@std@@V?$allocator@D@2@@std@@M@std@@@2@$0A@@std@@@std@@IBE?AU?$pair@PAU?$_Tree_node@U?$pair@$$CBV?$basic_string@DU?$char_traits@D@std@@V?$allocator@D@2@@std@@M@std@@PAX@std@@PAU12@@1@ABV?$basic_string@DU?$char_traits@D@std@@V?$allocator@D@2@@1@@Z PROC ; std::_Tree<std::_Tmap_traits<std::basic_string<char,std::char_traits<char>,std::allocator<char> >,float,std::less<std::basic_string<char,std::char_traits<char>,std::allocator<char> > >,std::allocator<std::pair<std::basic_string<char,std::char_traits<char>,std::allocator<char> > const ,float> >,0> >::_Eqrange<std::basic_string<char,std::char_traits<char>,std::allocator<char> > >, COMDAT
; _this$ = ecx

; 1783 :         noexcept(_Nothrow_compare<key_compare, key_type, _Other>&& _Nothrow_compare<key_compare, _Other, key_type>) {

  00000	55		 push	 ebp
  00001	8b ec		 mov	 ebp, esp
  00003	83 ec 38	 sub	 esp, 56			; 00000038H
  00006	89 4d f0	 mov	 DWORD PTR _this$[ebp], ecx

; 2051 :         return _STD addressof(_Mypair._Myval2._Myval2);

  00009	8b 45 f0	 mov	 eax, DWORD PTR _this$[ebp]
; File C:\Program Files (x86)\Microsoft Visual Studio\2019\Community\VC\Tools\MSVC\14.28.29333\include\xstddef

; 275  :     return __builtin_addressof(_Val);

  0000c	89 45 e0	 mov	 DWORD PTR $T6[ebp], eax
; File C:\Program Files (x86)\Microsoft Visual Studio\2019\Community\VC\Tools\MSVC\14.28.29333\include\xtree

; 2051 :         return _STD addressof(_Mypair._Myval2._Myval2);

  0000f	8b 45 e0	 mov	 eax, DWORD PTR $T6[ebp]
  00012	89 45 f4	 mov	 DWORD PTR __Scary$[ebp], eax

; 2035 :         return _Mypair._Get_first();

  00015	8b 45 f0	 mov	 eax, DWORD PTR _this$[ebp]
; File C:\Program Files (x86)\Microsoft Visual Studio\2019\Community\VC\Tools\MSVC\14.28.29333\include\xmemory

; 1351 :         return *this;

  00018	89 45 dc	 mov	 DWORD PTR $T5[ebp], eax
; File C:\Program Files (x86)\Microsoft Visual Studio\2019\Community\VC\Tools\MSVC\14.28.29333\include\xtree

; 2035 :         return _Mypair._Get_first();

  0001b	8b 45 dc	 mov	 eax, DWORD PTR $T5[ebp]
  0001e	89 45 cc	 mov	 DWORD PTR __Comp$[ebp], eax

; 1784 :         // find range of nodes equivalent to _Keyval
; 1785 :         const auto _Scary = _Get_scary();
; 1786 :         const auto& _Comp = _Getcomp();
; 1787 :         _Nodeptr _Pnode   = _Scary->_Myhead->_Parent;

  00021	8b 45 f4	 mov	 eax, DWORD PTR __Scary$[ebp]
  00024	8b 00		 mov	 eax, DWORD PTR [eax]
  00026	8b 40 04	 mov	 eax, DWORD PTR [eax+4]
  00029	89 45 fc	 mov	 DWORD PTR __Pnode$[ebp], eax

; 1788 :         _Nodeptr _Lonode  = _Scary->_Myhead; // end() if search fails

  0002c	8b 45 f4	 mov	 eax, DWORD PTR __Scary$[ebp]
  0002f	8b 00		 mov	 eax, DWORD PTR [eax]
  00031	89 45 e4	 mov	 DWORD PTR __Lonode$[ebp], eax

; 1789 :         _Nodeptr _Hinode  = _Scary->_Myhead; // end() if search fails

  00034	8b 45 f4	 mov	 eax, DWORD PTR __Scary$[ebp]
  00037	8b 00		 mov	 eax, DWORD PTR [eax]
  00039	89 45 f8	 mov	 DWORD PTR __Hinode$[ebp], eax
$LN2@Eqrange:

; 1790 : 
; 1791 :         while (!_Pnode->_Isnil) {

  0003c	8b 45 fc	 mov	 eax, DWORD PTR __Pnode$[ebp]
  0003f	0f be 40 0d	 movsx	 eax, BYTE PTR [eax+13]
  00043	85 c0		 test	 eax, eax
  00045	75 5d		 jne	 SHORT $LN3@Eqrange
; File C:\Program Files (x86)\Microsoft Visual Studio\2019\Community\VC\Tools\MSVC\14.28.29333\include\map

; 69   :         return _Val.first;

  00047	8b 45 fc	 mov	 eax, DWORD PTR __Pnode$[ebp]
  0004a	83 c0 10	 add	 eax, 16			; 00000010H
; File C:\Program Files (x86)\Microsoft Visual Studio\2019\Community\VC\Tools\MSVC\14.28.29333\include\xtree

; 1792 :             const auto& _Nodekey = _Traits::_Kfn(_Pnode->_Myval);

  0004d	89 45 ec	 mov	 DWORD PTR __Nodekey$7[ebp], eax
; File C:\Program Files (x86)\Microsoft Visual Studio\2019\Community\VC\Tools\MSVC\14.28.29333\include\xstddef

; 127  :         return _Left < _Right;

  00050	ff 75 0c	 push	 DWORD PTR __Keyval$[ebp]
  00053	ff 75 ec	 push	 DWORD PTR __Nodekey$7[ebp]
  00056	e8 00 00 00 00	 call	 ??$?MDU?$char_traits@D@std@@V?$allocator@D@1@@std@@YA_NABV?$basic_string@DU?$char_traits@D@std@@V?$allocator@D@2@@0@0@Z ; std::operator<<char,std::char_traits<char>,std::allocator<char> >
  0005b	59		 pop	 ecx
  0005c	59		 pop	 ecx
; File C:\Program Files (x86)\Microsoft Visual Studio\2019\Community\VC\Tools\MSVC\14.28.29333\include\xtree

; 1793 :             if (_DEBUG_LT_PRED(_Comp, _Nodekey, _Keyval)) {

  0005d	0f b6 c0	 movzx	 eax, al
  00060	85 c0		 test	 eax, eax
  00062	74 0b		 je	 SHORT $LN6@Eqrange

; 1794 :                 _Pnode = _Pnode->_Right; // descend right subtree

  00064	8b 45 fc	 mov	 eax, DWORD PTR __Pnode$[ebp]
  00067	8b 40 08	 mov	 eax, DWORD PTR [eax+8]
  0006a	89 45 fc	 mov	 DWORD PTR __Pnode$[ebp], eax

; 1795 :             } else { // _Pnode not less than _Keyval, remember it

  0006d	eb 33		 jmp	 SHORT $LN7@Eqrange
$LN6@Eqrange:

; 1796 :                 if (_Hinode->_Isnil && _DEBUG_LT_PRED(_Comp, _Keyval, _Nodekey)) {

  0006f	8b 45 f8	 mov	 eax, DWORD PTR __Hinode$[ebp]
  00072	0f be 40 0d	 movsx	 eax, BYTE PTR [eax+13]
  00076	85 c0		 test	 eax, eax
  00078	74 1a		 je	 SHORT $LN8@Eqrange
; File C:\Program Files (x86)\Microsoft Visual Studio\2019\Community\VC\Tools\MSVC\14.28.29333\include\xstddef

; 127  :         return _Left < _Right;

  0007a	ff 75 ec	 push	 DWORD PTR __Nodekey$7[ebp]
  0007d	ff 75 0c	 push	 DWORD PTR __Keyval$[ebp]
  00080	e8 00 00 00 00	 call	 ??$?MDU?$char_traits@D@std@@V?$allocator@D@1@@std@@YA_NABV?$basic_string@DU?$char_traits@D@std@@V?$allocator@D@2@@0@0@Z ; std::operator<<char,std::char_traits<char>,std::allocator<char> >
  00085	59		 pop	 ecx
  00086	59		 pop	 ecx
; File C:\Program Files (x86)\Microsoft Visual Studio\2019\Community\VC\Tools\MSVC\14.28.29333\include\xtree

; 1796 :                 if (_Hinode->_Isnil && _DEBUG_LT_PRED(_Comp, _Keyval, _Nodekey)) {

  00087	0f b6 c0	 movzx	 eax, al
  0008a	85 c0		 test	 eax, eax
  0008c	74 06		 je	 SHORT $LN8@Eqrange

; 1797 :                     _Hinode = _Pnode; // _Pnode greater, remember it

  0008e	8b 45 fc	 mov	 eax, DWORD PTR __Pnode$[ebp]
  00091	89 45 f8	 mov	 DWORD PTR __Hinode$[ebp], eax
$LN8@Eqrange:

; 1798 :                 }
; 1799 : 
; 1800 :                 _Lonode = _Pnode;

  00094	8b 45 fc	 mov	 eax, DWORD PTR __Pnode$[ebp]
  00097	89 45 e4	 mov	 DWORD PTR __Lonode$[ebp], eax

; 1801 :                 _Pnode  = _Pnode->_Left; // descend left subtree

  0009a	8b 45 fc	 mov	 eax, DWORD PTR __Pnode$[ebp]
  0009d	8b 00		 mov	 eax, DWORD PTR [eax]
  0009f	89 45 fc	 mov	 DWORD PTR __Pnode$[ebp], eax
$LN7@Eqrange:

; 1802 :             }
; 1803 :         }

  000a2	eb 98		 jmp	 SHORT $LN2@Eqrange
$LN3@Eqrange:

; 1804 : 
; 1805 :         _Pnode = _Hinode->_Isnil ? _Scary->_Myhead->_Parent : _Hinode->_Left; // continue scan for upper bound

  000a4	8b 45 f8	 mov	 eax, DWORD PTR __Hinode$[ebp]
  000a7	0f be 40 0d	 movsx	 eax, BYTE PTR [eax+13]
  000ab	85 c0		 test	 eax, eax
  000ad	74 0d		 je	 SHORT $LN12@Eqrange
  000af	8b 45 f4	 mov	 eax, DWORD PTR __Scary$[ebp]
  000b2	8b 00		 mov	 eax, DWORD PTR [eax]
  000b4	8b 40 04	 mov	 eax, DWORD PTR [eax+4]
  000b7	89 45 e8	 mov	 DWORD PTR tv133[ebp], eax
  000ba	eb 08		 jmp	 SHORT $LN13@Eqrange
$LN12@Eqrange:
  000bc	8b 45 f8	 mov	 eax, DWORD PTR __Hinode$[ebp]
  000bf	8b 00		 mov	 eax, DWORD PTR [eax]
  000c1	89 45 e8	 mov	 DWORD PTR tv133[ebp], eax
$LN13@Eqrange:
  000c4	8b 45 e8	 mov	 eax, DWORD PTR tv133[ebp]
  000c7	89 45 fc	 mov	 DWORD PTR __Pnode$[ebp], eax
$LN4@Eqrange:

; 1806 :         while (!_Pnode->_Isnil) {

  000ca	8b 45 fc	 mov	 eax, DWORD PTR __Pnode$[ebp]
  000cd	0f be 40 0d	 movsx	 eax, BYTE PTR [eax+13]
  000d1	85 c0		 test	 eax, eax
  000d3	75 3f		 jne	 SHORT $LN5@Eqrange

; 2035 :         return _Mypair._Get_first();

  000d5	8b 45 f0	 mov	 eax, DWORD PTR _this$[ebp]
; File C:\Program Files (x86)\Microsoft Visual Studio\2019\Community\VC\Tools\MSVC\14.28.29333\include\xmemory

; 1351 :         return *this;

  000d8	89 45 d8	 mov	 DWORD PTR $T4[ebp], eax
; File C:\Program Files (x86)\Microsoft Visual Studio\2019\Community\VC\Tools\MSVC\14.28.29333\include\xtree

; 2035 :         return _Mypair._Get_first();

  000db	8b 45 d8	 mov	 eax, DWORD PTR $T4[ebp]
  000de	89 45 c8	 mov	 DWORD PTR $T1[ebp], eax
; File C:\Program Files (x86)\Microsoft Visual Studio\2019\Community\VC\Tools\MSVC\14.28.29333\include\map

; 69   :         return _Val.first;

  000e1	8b 45 fc	 mov	 eax, DWORD PTR __Pnode$[ebp]
  000e4	83 c0 10	 add	 eax, 16			; 00000010H
; File C:\Program Files (x86)\Microsoft Visual Studio\2019\Community\VC\Tools\MSVC\14.28.29333\include\xstddef

; 127  :         return _Left < _Right;

  000e7	50		 push	 eax
  000e8	ff 75 0c	 push	 DWORD PTR __Keyval$[ebp]
  000eb	e8 00 00 00 00	 call	 ??$?MDU?$char_traits@D@std@@V?$allocator@D@1@@std@@YA_NABV?$basic_string@DU?$char_traits@D@std@@V?$allocator@D@2@@0@0@Z ; std::operator<<char,std::char_traits<char>,std::allocator<char> >
  000f0	59		 pop	 ecx
  000f1	59		 pop	 ecx
; File C:\Program Files (x86)\Microsoft Visual Studio\2019\Community\VC\Tools\MSVC\14.28.29333\include\xtree

; 1807 :             if (_DEBUG_LT_PRED(_Getcomp(), _Keyval, _Traits::_Kfn(_Pnode->_Myval))) {

  000f2	0f b6 c0	 movzx	 eax, al
  000f5	85 c0		 test	 eax, eax
  000f7	74 10		 je	 SHORT $LN9@Eqrange

; 1808 :                 // _Pnode greater than _Keyval, remember it
; 1809 :                 _Hinode = _Pnode;

  000f9	8b 45 fc	 mov	 eax, DWORD PTR __Pnode$[ebp]
  000fc	89 45 f8	 mov	 DWORD PTR __Hinode$[ebp], eax

; 1810 :                 _Pnode  = _Pnode->_Left; // descend left subtree

  000ff	8b 45 fc	 mov	 eax, DWORD PTR __Pnode$[ebp]
  00102	8b 00		 mov	 eax, DWORD PTR [eax]
  00104	89 45 fc	 mov	 DWORD PTR __Pnode$[ebp], eax

; 1811 :             } else {

  00107	eb 09		 jmp	 SHORT $LN10@Eqrange
$LN9@Eqrange:

; 1812 :                 _Pnode = _Pnode->_Right; // descend right subtree

  00109	8b 45 fc	 mov	 eax, DWORD PTR __Pnode$[ebp]
  0010c	8b 40 08	 mov	 eax, DWORD PTR [eax+8]
  0010f	89 45 fc	 mov	 DWORD PTR __Pnode$[ebp], eax
$LN10@Eqrange:

; 1813 :             }
; 1814 :         }

  00112	eb b6		 jmp	 SHORT $LN4@Eqrange
$LN5@Eqrange:
; File C:\Program Files (x86)\Microsoft Visual Studio\2019\Community\VC\Tools\MSVC\14.28.29333\include\type_traits

; 1443 :     return static_cast<_Ty&&>(_Arg);

  00114	8d 45 e4	 lea	 eax, DWORD PTR __Lonode$[ebp]
  00117	89 45 d4	 mov	 DWORD PTR $T3[ebp], eax
; File C:\Program Files (x86)\Microsoft Visual Studio\2019\Community\VC\Tools\MSVC\14.28.29333\include\utility

; 190  :         : first(_STD forward<_Other1>(_Val1)), second(_STD forward<_Other2>(_Val2)) {}

  0011a	8b 45 08	 mov	 eax, DWORD PTR ___$ReturnUdt$[ebp]
  0011d	8b 4d d4	 mov	 ecx, DWORD PTR $T3[ebp]
  00120	8b 09		 mov	 ecx, DWORD PTR [ecx]
  00122	89 08		 mov	 DWORD PTR [eax], ecx
; File C:\Program Files (x86)\Microsoft Visual Studio\2019\Community\VC\Tools\MSVC\14.28.29333\include\type_traits

; 1443 :     return static_cast<_Ty&&>(_Arg);

  00124	8d 45 f8	 lea	 eax, DWORD PTR __Hinode$[ebp]
  00127	89 45 d0	 mov	 DWORD PTR $T2[ebp], eax
; File C:\Program Files (x86)\Microsoft Visual Studio\2019\Community\VC\Tools\MSVC\14.28.29333\include\utility

; 190  :         : first(_STD forward<_Other1>(_Val1)), second(_STD forward<_Other2>(_Val2)) {}

  0012a	8b 45 08	 mov	 eax, DWORD PTR ___$ReturnUdt$[ebp]
  0012d	8b 4d d0	 mov	 ecx, DWORD PTR $T2[ebp]
  00130	8b 09		 mov	 ecx, DWORD PTR [ecx]
  00132	89 48 04	 mov	 DWORD PTR [eax+4], ecx
; File C:\Program Files (x86)\Microsoft Visual Studio\2019\Community\VC\Tools\MSVC\14.28.29333\include\xtree

; 1816 :         return {_Lonode, _Hinode};

  00135	8b 45 08	 mov	 eax, DWORD PTR ___$ReturnUdt$[ebp]

; 1817 :     }

  00138	c9		 leave
  00139	c2 08 00	 ret	 8
??$_Eqrange@V?$basic_string@DU?$char_traits@D@std@@V?$allocator@D@2@@std@@@?$_Tree@V?$_Tmap_traits@V?$basic_string@DU?$char_traits@D@std@@V?$allocator@D@2@@std@@MU?$less@V?$basic_string@DU?$char_traits@D@std@@V?$allocator@D@2@@std@@@2@V?$allocator@U?$pair@$$CBV?$basic_string@DU?$char_traits@D@std@@V?$allocator@D@2@@std@@M@std@@@2@$0A@@std@@@std@@IBE?AU?$pair@PAU?$_Tree_node@U?$pair@$$CBV?$basic_string@DU?$char_traits@D@std@@V?$allocator@D@2@@std@@M@std@@PAX@std@@PAU12@@1@ABV?$basic_string@DU?$char_traits@D@std@@V?$allocator@D@2@@1@@Z ENDP ; std::_Tree<std::_Tmap_traits<std::basic_string<char,std::char_traits<char>,std::allocator<char> >,float,std::less<std::basic_string<char,std::char_traits<char>,std::allocator<char> > >,std::allocator<std::pair<std::basic_string<char,std::char_traits<char>,std::allocator<char> > const ,float> >,0> >::_Eqrange<std::basic_string<char,std::char_traits<char>,std::allocator<char> > >
_TEXT	ENDS
; Function compile flags: /Odspy
; File C:\Program Files (x86)\Microsoft Visual Studio\2019\Community\VC\Tools\MSVC\14.28.29333\include\xstring
;	COMDAT ??1?$pair@$$CBV?$basic_string@DU?$char_traits@D@std@@V?$allocator@D@2@@std@@M@std@@QAE@XZ
_TEXT	SEGMENT
_this$ = -4						; size = 4
??1?$pair@$$CBV?$basic_string@DU?$char_traits@D@std@@V?$allocator@D@2@@std@@M@std@@QAE@XZ PROC ; std::pair<std::basic_string<char,std::char_traits<char>,std::allocator<char> > const ,float>::~pair<std::basic_string<char,std::char_traits<char>,std::allocator<char> > const ,float>, COMDAT
; _this$ = ecx
  00000	55		 push	 ebp
  00001	8b ec		 mov	 ebp, esp
  00003	51		 push	 ecx
  00004	89 4d fc	 mov	 DWORD PTR _this$[ebp], ecx

; 2801 :         _Tidy_deallocate();

  00007	8b 4d fc	 mov	 ecx, DWORD PTR _this$[ebp]
  0000a	e8 00 00 00 00	 call	 ?_Tidy_deallocate@?$basic_string@DU?$char_traits@D@std@@V?$allocator@D@2@@std@@AAEXXZ ; std::basic_string<char,std::char_traits<char>,std::allocator<char> >::_Tidy_deallocate
  0000f	c9		 leave
  00010	c3		 ret	 0
??1?$pair@$$CBV?$basic_string@DU?$char_traits@D@std@@V?$allocator@D@2@@std@@M@std@@QAE@XZ ENDP ; std::pair<std::basic_string<char,std::char_traits<char>,std::allocator<char> > const ,float>::~pair<std::basic_string<char,std::char_traits<char>,std::allocator<char> > const ,float>
_TEXT	ENDS
; Function compile flags: /Odspy
; File C:\Program Files (x86)\Microsoft Visual Studio\2019\Community\VC\Tools\MSVC\14.28.29333\include\xtree
;	COMDAT ??E?$_Tree_unchecked_const_iterator@V?$_Tree_val@U?$_Tree_simple_types@U?$pair@$$CBV?$basic_string@DU?$char_traits@D@std@@V?$allocator@D@2@@std@@M@std@@@std@@@std@@U_Iterator_base0@2@@std@@QAEAAV01@XZ
_TEXT	SEGMENT
$T1 = -16						; size = 4
__Pnode$ = -12						; size = 4
__Pnode$2 = -8						; size = 4
_this$ = -4						; size = 4
??E?$_Tree_unchecked_const_iterator@V?$_Tree_val@U?$_Tree_simple_types@U?$pair@$$CBV?$basic_string@DU?$char_traits@D@std@@V?$allocator@D@2@@std@@M@std@@@std@@@std@@U_Iterator_base0@2@@std@@QAEAAV01@XZ PROC ; std::_Tree_unchecked_const_iterator<std::_Tree_val<std::_Tree_simple_types<std::pair<std::basic_string<char,std::char_traits<char>,std::allocator<char> > const ,float> > >,std::_Iterator_base0>::operator++, COMDAT
; _this$ = ecx

; 51   :     _Tree_unchecked_const_iterator& operator++() noexcept {

  00000	55		 push	 ebp
  00001	8b ec		 mov	 ebp, esp
  00003	83 ec 10	 sub	 esp, 16			; 00000010H
  00006	89 4d fc	 mov	 DWORD PTR _this$[ebp], ecx

; 52   :         if (_Ptr->_Right->_Isnil) { // climb looking for right subtree

  00009	8b 45 fc	 mov	 eax, DWORD PTR _this$[ebp]
  0000c	8b 00		 mov	 eax, DWORD PTR [eax]
  0000e	8b 40 08	 mov	 eax, DWORD PTR [eax+8]
  00011	0f be 40 0d	 movsx	 eax, BYTE PTR [eax+13]
  00015	85 c0		 test	 eax, eax
  00017	74 37		 je	 SHORT $LN4@operator
$LN2@operator:

; 53   :             _Nodeptr _Pnode;
; 54   :             while (!(_Pnode = _Ptr->_Parent)->_Isnil && _Ptr == _Pnode->_Right) {

  00019	8b 45 fc	 mov	 eax, DWORD PTR _this$[ebp]
  0001c	8b 00		 mov	 eax, DWORD PTR [eax]
  0001e	8b 40 04	 mov	 eax, DWORD PTR [eax+4]
  00021	89 45 f8	 mov	 DWORD PTR __Pnode$2[ebp], eax
  00024	8b 45 f8	 mov	 eax, DWORD PTR __Pnode$2[ebp]
  00027	0f be 40 0d	 movsx	 eax, BYTE PTR [eax+13]
  0002b	85 c0		 test	 eax, eax
  0002d	75 17		 jne	 SHORT $LN3@operator
  0002f	8b 45 fc	 mov	 eax, DWORD PTR _this$[ebp]
  00032	8b 4d f8	 mov	 ecx, DWORD PTR __Pnode$2[ebp]
  00035	8b 00		 mov	 eax, DWORD PTR [eax]
  00037	3b 41 08	 cmp	 eax, DWORD PTR [ecx+8]
  0003a	75 0a		 jne	 SHORT $LN3@operator

; 55   :                 _Ptr = _Pnode; // ==> parent while right subtree

  0003c	8b 45 fc	 mov	 eax, DWORD PTR _this$[ebp]
  0003f	8b 4d f8	 mov	 ecx, DWORD PTR __Pnode$2[ebp]
  00042	89 08		 mov	 DWORD PTR [eax], ecx

; 56   :             }

  00044	eb d3		 jmp	 SHORT $LN2@operator
$LN3@operator:

; 57   : 
; 58   :             _Ptr = _Pnode; // ==> parent (head if end())

  00046	8b 45 fc	 mov	 eax, DWORD PTR _this$[ebp]
  00049	8b 4d f8	 mov	 ecx, DWORD PTR __Pnode$2[ebp]
  0004c	89 08		 mov	 DWORD PTR [eax], ecx

; 59   :         } else {

  0004e	eb 30		 jmp	 SHORT $LN5@operator
$LN4@operator:

; 60   :             _Ptr = _Mytree::_Min(_Ptr->_Right); // ==> smallest of right subtree

  00050	8b 45 fc	 mov	 eax, DWORD PTR _this$[ebp]
  00053	8b 00		 mov	 eax, DWORD PTR [eax]
  00055	8b 40 08	 mov	 eax, DWORD PTR [eax+8]
  00058	89 45 f4	 mov	 DWORD PTR __Pnode$[ebp], eax
$LN8@operator:

; 451  :         while (!_Pnode->_Left->_Isnil) {

  0005b	8b 45 f4	 mov	 eax, DWORD PTR __Pnode$[ebp]
  0005e	8b 00		 mov	 eax, DWORD PTR [eax]
  00060	0f be 40 0d	 movsx	 eax, BYTE PTR [eax+13]
  00064	85 c0		 test	 eax, eax
  00066	75 0a		 jne	 SHORT $LN9@operator

; 452  :             _Pnode = _Pnode->_Left;

  00068	8b 45 f4	 mov	 eax, DWORD PTR __Pnode$[ebp]
  0006b	8b 00		 mov	 eax, DWORD PTR [eax]
  0006d	89 45 f4	 mov	 DWORD PTR __Pnode$[ebp], eax

; 453  :         }

  00070	eb e9		 jmp	 SHORT $LN8@operator
$LN9@operator:

; 454  : 
; 455  :         return _Pnode;

  00072	8b 45 f4	 mov	 eax, DWORD PTR __Pnode$[ebp]
  00075	89 45 f0	 mov	 DWORD PTR $T1[ebp], eax

; 60   :             _Ptr = _Mytree::_Min(_Ptr->_Right); // ==> smallest of right subtree

  00078	8b 45 fc	 mov	 eax, DWORD PTR _this$[ebp]
  0007b	8b 4d f0	 mov	 ecx, DWORD PTR $T1[ebp]
  0007e	89 08		 mov	 DWORD PTR [eax], ecx
$LN5@operator:

; 61   :         }
; 62   : 
; 63   :         return *this;

  00080	8b 45 fc	 mov	 eax, DWORD PTR _this$[ebp]

; 64   :     }

  00083	c9		 leave
  00084	c3		 ret	 0
??E?$_Tree_unchecked_const_iterator@V?$_Tree_val@U?$_Tree_simple_types@U?$pair@$$CBV?$basic_string@DU?$char_traits@D@std@@V?$allocator@D@2@@std@@M@std@@@std@@@std@@U_Iterator_base0@2@@std@@QAEAAV01@XZ ENDP ; std::_Tree_unchecked_const_iterator<std::_Tree_val<std::_Tree_simple_types<std::pair<std::basic_string<char,std::char_traits<char>,std::allocator<char> > const ,float> > >,std::_Iterator_base0>::operator++
_TEXT	ENDS
; Function compile flags: /Odspy
; File C:\Program Files (x86)\Microsoft Visual Studio\2019\Community\VC\Tools\MSVC\14.28.29333\include\vector
;	COMDAT ?_Xrange@?$vector@USSoundInstance@NSound@@V?$allocator@USSoundInstance@NSound@@@std@@@std@@CAXXZ
_TEXT	SEGMENT
?_Xrange@?$vector@USSoundInstance@NSound@@V?$allocator@USSoundInstance@NSound@@@std@@@std@@CAXXZ PROC ; std::vector<NSound::SSoundInstance,std::allocator<NSound::SSoundInstance> >::_Xrange, COMDAT

; 1708 :     [[noreturn]] static void _Xrange() {

  00000	55		 push	 ebp
  00001	8b ec		 mov	 ebp, esp

; 1709 :         _Xout_of_range("invalid vector subscript");

  00003	68 00 00 00 00	 push	 OFFSET ??_C@_0BJ@DHFDPMIM@invalid?5vector?5subscript@
  00008	e8 00 00 00 00	 call	 ?_Xout_of_range@std@@YAXPBD@Z ; std::_Xout_of_range
$LN2@Xrange:

; 1710 :     }

  0000d	5d		 pop	 ebp
  0000e	c3		 ret	 0
?_Xrange@?$vector@USSoundInstance@NSound@@V?$allocator@USSoundInstance@NSound@@@std@@@std@@CAXXZ ENDP ; std::vector<NSound::SSoundInstance,std::allocator<NSound::SSoundInstance> >::_Xrange
_TEXT	ENDS
; Function compile flags: /Odspy
; File C:\Program Files (x86)\Microsoft Visual Studio\2019\Community\VC\Tools\MSVC\14.28.29333\include\vector
;	COMDAT ?at@?$vector@USSoundInstance@NSound@@V?$allocator@USSoundInstance@NSound@@@std@@@std@@QBEABUSSoundInstance@NSound@@I@Z
_TEXT	SEGMENT
_this$ = -8						; size = 4
__My_data$ = -4						; size = 4
__Pos$ = 8						; size = 4
?at@?$vector@USSoundInstance@NSound@@V?$allocator@USSoundInstance@NSound@@@std@@@std@@QBEABUSSoundInstance@NSound@@I@Z PROC ; std::vector<NSound::SSoundInstance,std::allocator<NSound::SSoundInstance> >::at, COMDAT
; _this$ = ecx

; 1526 :     _NODISCARD const _Ty& at(const size_type _Pos) const {

  00000	55		 push	 ebp
  00001	8b ec		 mov	 ebp, esp
  00003	51		 push	 ecx
  00004	51		 push	 ecx
  00005	89 4d f8	 mov	 DWORD PTR _this$[ebp], ecx

; 1527 :         auto& _My_data = _Mypair._Myval2;

  00008	8b 45 f8	 mov	 eax, DWORD PTR _this$[ebp]
  0000b	89 45 fc	 mov	 DWORD PTR __My_data$[ebp], eax

; 1528 :         if (static_cast<size_type>(_My_data._Mylast - _My_data._Myfirst) <= _Pos) {

  0000e	8b 45 fc	 mov	 eax, DWORD PTR __My_data$[ebp]
  00011	8b 4d fc	 mov	 ecx, DWORD PTR __My_data$[ebp]
  00014	8b 40 04	 mov	 eax, DWORD PTR [eax+4]
  00017	2b 01		 sub	 eax, DWORD PTR [ecx]
  00019	99		 cdq
  0001a	6a 1c		 push	 28			; 0000001cH
  0001c	59		 pop	 ecx
  0001d	f7 f9		 idiv	 ecx
  0001f	3b 45 08	 cmp	 eax, DWORD PTR __Pos$[ebp]
  00022	77 05		 ja	 SHORT $LN2@at

; 1529 :             _Xrange();

  00024	e8 00 00 00 00	 call	 ?_Xrange@?$vector@USSoundInstance@NSound@@V?$allocator@USSoundInstance@NSound@@@std@@@std@@CAXXZ ; std::vector<NSound::SSoundInstance,std::allocator<NSound::SSoundInstance> >::_Xrange
$LN2@at:

; 1530 :         }
; 1531 : 
; 1532 :         return _My_data._Myfirst[_Pos];

  00029	6b 45 08 1c	 imul	 eax, DWORD PTR __Pos$[ebp], 28
  0002d	8b 4d fc	 mov	 ecx, DWORD PTR __My_data$[ebp]
  00030	03 01		 add	 eax, DWORD PTR [ecx]
$LN3@at:

; 1533 :     }

  00032	c9		 leave
  00033	c2 04 00	 ret	 4
?at@?$vector@USSoundInstance@NSound@@V?$allocator@USSoundInstance@NSound@@@std@@@std@@QBEABUSSoundInstance@NSound@@I@Z ENDP ; std::vector<NSound::SSoundInstance,std::allocator<NSound::SSoundInstance> >::at
_TEXT	ENDS
; Function compile flags: /Odspy
;	COMDAT ??__F?ms_SoundManagerStream@CSoundManager@@1VCSoundManagerStream@@A@@YAXXZ
text$yd	SEGMENT
??__F?ms_SoundManagerStream@CSoundManager@@1VCSoundManagerStream@@A@@YAXXZ PROC ; `dynamic atexit destructor for 'CSoundManager::ms_SoundManagerStream'', COMDAT
  00000	55		 push	 ebp
  00001	8b ec		 mov	 ebp, esp
  00003	b9 00 00 00 00	 mov	 ecx, OFFSET ?ms_SoundManagerStream@CSoundManager@@1VCSoundManagerStream@@A ; CSoundManager::ms_SoundManagerStream
  00008	e8 00 00 00 00	 call	 ??1CSoundManagerStream@@UAE@XZ ; CSoundManagerStream::~CSoundManagerStream
  0000d	5d		 pop	 ebp
  0000e	c3		 ret	 0
??__F?ms_SoundManagerStream@CSoundManager@@1VCSoundManagerStream@@A@@YAXXZ ENDP ; `dynamic atexit destructor for 'CSoundManager::ms_SoundManagerStream''
text$yd	ENDS
; Function compile flags: /Odspy
; File D:\Metin2 Server Files\mainline\SRC_2014\Metin2Client\MilesLib\SoundManager.cpp
;	COMDAT ??__E?ms_SoundManagerStream@CSoundManager@@1VCSoundManagerStream@@A@@YAXXZ
text$di	SEGMENT
??__E?ms_SoundManagerStream@CSoundManager@@1VCSoundManagerStream@@A@@YAXXZ PROC ; `dynamic initializer for 'CSoundManager::ms_SoundManagerStream'', COMDAT

; 9    : CSoundManagerStream CSoundManager::ms_SoundManagerStream;

  00000	55		 push	 ebp
  00001	8b ec		 mov	 ebp, esp
  00003	b9 00 00 00 00	 mov	 ecx, OFFSET ?ms_SoundManagerStream@CSoundManager@@1VCSoundManagerStream@@A ; CSoundManager::ms_SoundManagerStream
  00008	e8 00 00 00 00	 call	 ??0CSoundManagerStream@@QAE@XZ ; CSoundManagerStream::CSoundManagerStream
  0000d	68 00 00 00 00	 push	 OFFSET ??__F?ms_SoundManagerStream@CSoundManager@@1VCSoundManagerStream@@A@@YAXXZ ; `dynamic atexit destructor for 'CSoundManager::ms_SoundManagerStream''
  00012	e8 00 00 00 00	 call	 _atexit
  00017	59		 pop	 ecx
  00018	5d		 pop	 ebp
  00019	c3		 ret	 0
??__E?ms_SoundManagerStream@CSoundManager@@1VCSoundManagerStream@@A@@YAXXZ ENDP ; `dynamic initializer for 'CSoundManager::ms_SoundManagerStream''
text$di	ENDS
; Function compile flags: /Odspy
;	COMDAT ??__F?ms_SoundManager3D@CSoundManager@@1VCSoundManager3D@@A@@YAXXZ
text$yd	SEGMENT
??__F?ms_SoundManager3D@CSoundManager@@1VCSoundManager3D@@A@@YAXXZ PROC ; `dynamic atexit destructor for 'CSoundManager::ms_SoundManager3D'', COMDAT
  00000	55		 push	 ebp
  00001	8b ec		 mov	 ebp, esp
  00003	b9 00 00 00 00	 mov	 ecx, OFFSET ?ms_SoundManager3D@CSoundManager@@1VCSoundManager3D@@A ; CSoundManager::ms_SoundManager3D
  00008	e8 00 00 00 00	 call	 ??1CSoundManager3D@@UAE@XZ ; CSoundManager3D::~CSoundManager3D
  0000d	5d		 pop	 ebp
  0000e	c3		 ret	 0
??__F?ms_SoundManager3D@CSoundManager@@1VCSoundManager3D@@A@@YAXXZ ENDP ; `dynamic atexit destructor for 'CSoundManager::ms_SoundManager3D''
text$yd	ENDS
; Function compile flags: /Odspy
; File D:\Metin2 Server Files\mainline\SRC_2014\Metin2Client\MilesLib\SoundManager.cpp
;	COMDAT ??__E?ms_SoundManager3D@CSoundManager@@1VCSoundManager3D@@A@@YAXXZ
text$di	SEGMENT
??__E?ms_SoundManager3D@CSoundManager@@1VCSoundManager3D@@A@@YAXXZ PROC ; `dynamic initializer for 'CSoundManager::ms_SoundManager3D'', COMDAT

; 8    : CSoundManager3D CSoundManager::ms_SoundManager3D;

  00000	55		 push	 ebp
  00001	8b ec		 mov	 ebp, esp
  00003	b9 00 00 00 00	 mov	 ecx, OFFSET ?ms_SoundManager3D@CSoundManager@@1VCSoundManager3D@@A ; CSoundManager::ms_SoundManager3D
  00008	e8 00 00 00 00	 call	 ??0CSoundManager3D@@QAE@XZ ; CSoundManager3D::CSoundManager3D
  0000d	68 00 00 00 00	 push	 OFFSET ??__F?ms_SoundManager3D@CSoundManager@@1VCSoundManager3D@@A@@YAXXZ ; `dynamic atexit destructor for 'CSoundManager::ms_SoundManager3D''
  00012	e8 00 00 00 00	 call	 _atexit
  00017	59		 pop	 ecx
  00018	5d		 pop	 ebp
  00019	c3		 ret	 0
??__E?ms_SoundManager3D@CSoundManager@@1VCSoundManager3D@@A@@YAXXZ ENDP ; `dynamic initializer for 'CSoundManager::ms_SoundManager3D''
text$di	ENDS
; Function compile flags: /Odspy
;	COMDAT ??__F?ms_SoundManager2D@CSoundManager@@1VCSoundManager2D@@A@@YAXXZ
text$yd	SEGMENT
??__F?ms_SoundManager2D@CSoundManager@@1VCSoundManager2D@@A@@YAXXZ PROC ; `dynamic atexit destructor for 'CSoundManager::ms_SoundManager2D'', COMDAT
  00000	55		 push	 ebp
  00001	8b ec		 mov	 ebp, esp
  00003	b9 00 00 00 00	 mov	 ecx, OFFSET ?ms_SoundManager2D@CSoundManager@@1VCSoundManager2D@@A ; CSoundManager::ms_SoundManager2D
  00008	e8 00 00 00 00	 call	 ??1CSoundManager2D@@UAE@XZ ; CSoundManager2D::~CSoundManager2D
  0000d	5d		 pop	 ebp
  0000e	c3		 ret	 0
??__F?ms_SoundManager2D@CSoundManager@@1VCSoundManager2D@@A@@YAXXZ ENDP ; `dynamic atexit destructor for 'CSoundManager::ms_SoundManager2D''
text$yd	ENDS
; Function compile flags: /Odspy
; File D:\Metin2 Server Files\mainline\SRC_2014\Metin2Client\MilesLib\SoundManager.cpp
;	COMDAT ??__E?ms_SoundManager2D@CSoundManager@@1VCSoundManager2D@@A@@YAXXZ
text$di	SEGMENT
??__E?ms_SoundManager2D@CSoundManager@@1VCSoundManager2D@@A@@YAXXZ PROC ; `dynamic initializer for 'CSoundManager::ms_SoundManager2D'', COMDAT

; 7    : CSoundManager2D CSoundManager::ms_SoundManager2D;

  00000	55		 push	 ebp
  00001	8b ec		 mov	 ebp, esp
  00003	b9 00 00 00 00	 mov	 ecx, OFFSET ?ms_SoundManager2D@CSoundManager@@1VCSoundManager2D@@A ; CSoundManager::ms_SoundManager2D
  00008	e8 00 00 00 00	 call	 ??0CSoundManager2D@@QAE@XZ ; CSoundManager2D::CSoundManager2D
  0000d	68 00 00 00 00	 push	 OFFSET ??__F?ms_SoundManager2D@CSoundManager@@1VCSoundManager2D@@A@@YAXXZ ; `dynamic atexit destructor for 'CSoundManager::ms_SoundManager2D''
  00012	e8 00 00 00 00	 call	 _atexit
  00017	59		 pop	 ecx
  00018	5d		 pop	 ebp
  00019	c3		 ret	 0
??__E?ms_SoundManager2D@CSoundManager@@1VCSoundManager2D@@A@@YAXXZ ENDP ; `dynamic initializer for 'CSoundManager::ms_SoundManager2D''
text$di	ENDS
; Function compile flags: /Odspy
;	COMDAT ??_GCSoundManager@@UAEPAXI@Z
_TEXT	SEGMENT
_this$ = -4						; size = 4
___flags$ = 8						; size = 4
??_GCSoundManager@@UAEPAXI@Z PROC			; CSoundManager::`scalar deleting destructor', COMDAT
; _this$ = ecx
  00000	55		 push	 ebp
  00001	8b ec		 mov	 ebp, esp
  00003	51		 push	 ecx
  00004	89 4d fc	 mov	 DWORD PTR _this$[ebp], ecx
  00007	8b 4d fc	 mov	 ecx, DWORD PTR _this$[ebp]
  0000a	e8 00 00 00 00	 call	 ??1CSoundManager@@UAE@XZ ; CSoundManager::~CSoundManager
  0000f	8b 45 08	 mov	 eax, DWORD PTR ___flags$[ebp]
  00012	83 e0 01	 and	 eax, 1
  00015	74 0c		 je	 SHORT $LN2@scalar
  00017	6a 74		 push	 116			; 00000074H
  00019	ff 75 fc	 push	 DWORD PTR _this$[ebp]
  0001c	e8 00 00 00 00	 call	 ??3@YAXPAXI@Z		; operator delete
  00021	59		 pop	 ecx
  00022	59		 pop	 ecx
$LN2@scalar:
  00023	8b 45 fc	 mov	 eax, DWORD PTR _this$[ebp]
  00026	c9		 leave
  00027	c2 04 00	 ret	 4
??_GCSoundManager@@UAEPAXI@Z ENDP			; CSoundManager::`scalar deleting destructor'
_TEXT	ENDS
; Function compile flags: /Odspy
; File C:\Program Files (x86)\Microsoft Visual Studio\2019\Community\VC\Tools\MSVC\14.28.29333\include\xtree
;	COMDAT ?_Insert_node@?$_Tree_val@U?$_Tree_simple_types@U?$pair@$$CBV?$basic_string@DU?$char_traits@D@std@@V?$allocator@D@2@@std@@M@std@@@std@@@std@@QAEPAU?$_Tree_node@U?$pair@$$CBV?$basic_string@DU?$char_traits@D@std@@V?$allocator@D@2@@std@@M@std@@PAX@2@U?$_Tree_id@PAU?$_Tree_node@U?$pair@$$CBV?$basic_string@DU?$char_traits@D@std@@V?$allocator@D@2@@std@@M@std@@PAX@std@@@2@QAU32@@Z
_TEXT	SEGMENT
__Parent_sibling$1 = -20				; size = 4
__Parent_sibling$2 = -16				; size = 4
_this$ = -12						; size = 4
__Head$ = -8						; size = 4
__Pnode$3 = -4						; size = 4
__Loc$ = 8						; size = 8
__Newnode$ = 16						; size = 4
?_Insert_node@?$_Tree_val@U?$_Tree_simple_types@U?$pair@$$CBV?$basic_string@DU?$char_traits@D@std@@V?$allocator@D@2@@std@@M@std@@@std@@@std@@QAEPAU?$_Tree_node@U?$pair@$$CBV?$basic_string@DU?$char_traits@D@std@@V?$allocator@D@2@@std@@M@std@@PAX@2@U?$_Tree_id@PAU?$_Tree_node@U?$pair@$$CBV?$basic_string@DU?$char_traits@D@std@@V?$allocator@D@2@@std@@M@std@@PAX@std@@@2@QAU32@@Z PROC ; std::_Tree_val<std::_Tree_simple_types<std::pair<std::basic_string<char,std::char_traits<char>,std::allocator<char> > const ,float> > >::_Insert_node, COMDAT
; _this$ = ecx

; 644  :     _Nodeptr _Insert_node(const _Tree_id<_Nodeptr> _Loc, const _Nodeptr _Newnode) noexcept {

  00000	55		 push	 ebp
  00001	8b ec		 mov	 ebp, esp
  00003	83 ec 14	 sub	 esp, 20			; 00000014H
  00006	89 4d f4	 mov	 DWORD PTR _this$[ebp], ecx

; 645  :         ++_Mysize;

  00009	8b 45 f4	 mov	 eax, DWORD PTR _this$[ebp]
  0000c	8b 40 04	 mov	 eax, DWORD PTR [eax+4]
  0000f	40		 inc	 eax
  00010	8b 4d f4	 mov	 ecx, DWORD PTR _this$[ebp]
  00013	89 41 04	 mov	 DWORD PTR [ecx+4], eax

; 646  :         const auto _Head  = _Myhead;

  00016	8b 45 f4	 mov	 eax, DWORD PTR _this$[ebp]
  00019	8b 00		 mov	 eax, DWORD PTR [eax]
  0001b	89 45 f8	 mov	 DWORD PTR __Head$[ebp], eax

; 647  :         _Newnode->_Parent = _Loc._Parent;

  0001e	8b 45 10	 mov	 eax, DWORD PTR __Newnode$[ebp]
  00021	8b 4d 08	 mov	 ecx, DWORD PTR __Loc$[ebp]
  00024	89 48 04	 mov	 DWORD PTR [eax+4], ecx

; 648  :         if (_Loc._Parent == _Head) { // first node in tree, just set head values

  00027	8b 45 08	 mov	 eax, DWORD PTR __Loc$[ebp]
  0002a	3b 45 f8	 cmp	 eax, DWORD PTR __Head$[ebp]
  0002d	75 29		 jne	 SHORT $LN5@Insert_nod

; 649  :             _Head->_Left     = _Newnode;

  0002f	8b 45 f8	 mov	 eax, DWORD PTR __Head$[ebp]
  00032	8b 4d 10	 mov	 ecx, DWORD PTR __Newnode$[ebp]
  00035	89 08		 mov	 DWORD PTR [eax], ecx

; 650  :             _Head->_Parent   = _Newnode;

  00037	8b 45 f8	 mov	 eax, DWORD PTR __Head$[ebp]
  0003a	8b 4d 10	 mov	 ecx, DWORD PTR __Newnode$[ebp]
  0003d	89 48 04	 mov	 DWORD PTR [eax+4], ecx

; 651  :             _Head->_Right    = _Newnode;

  00040	8b 45 f8	 mov	 eax, DWORD PTR __Head$[ebp]
  00043	8b 4d 10	 mov	 ecx, DWORD PTR __Newnode$[ebp]
  00046	89 48 08	 mov	 DWORD PTR [eax+8], ecx

; 652  :             _Newnode->_Color = _Black; // the root is black

  00049	8b 45 10	 mov	 eax, DWORD PTR __Newnode$[ebp]
  0004c	c6 40 0c 01	 mov	 BYTE PTR [eax+12], 1

; 653  :             return _Newnode;

  00050	8b 45 10	 mov	 eax, DWORD PTR __Newnode$[ebp]
  00053	e9 a3 01 00 00	 jmp	 $LN18@Insert_nod
$LN5@Insert_nod:

; 654  :         }
; 655  : 
; 656  :         _STL_INTERNAL_CHECK(_Loc._Child != _Tree_child::_Unused);
; 657  :         if (_Loc._Child == _Tree_child::_Right) { // add to right of _Loc._Parent

  00058	83 7d 0c 00	 cmp	 DWORD PTR __Loc$[ebp+4], 0
  0005c	75 1f		 jne	 SHORT $LN6@Insert_nod

; 658  :             _STL_INTERNAL_CHECK(_Loc._Parent->_Right->_Isnil);
; 659  :             _Loc._Parent->_Right = _Newnode;

  0005e	8b 45 08	 mov	 eax, DWORD PTR __Loc$[ebp]
  00061	8b 4d 10	 mov	 ecx, DWORD PTR __Newnode$[ebp]
  00064	89 48 08	 mov	 DWORD PTR [eax+8], ecx

; 660  :             if (_Loc._Parent == _Head->_Right) { // remember rightmost node

  00067	8b 45 f8	 mov	 eax, DWORD PTR __Head$[ebp]
  0006a	8b 4d 08	 mov	 ecx, DWORD PTR __Loc$[ebp]
  0006d	3b 48 08	 cmp	 ecx, DWORD PTR [eax+8]
  00070	75 09		 jne	 SHORT $LN8@Insert_nod

; 661  :                 _Head->_Right = _Newnode;

  00072	8b 45 f8	 mov	 eax, DWORD PTR __Head$[ebp]
  00075	8b 4d 10	 mov	 ecx, DWORD PTR __Newnode$[ebp]
  00078	89 48 08	 mov	 DWORD PTR [eax+8], ecx
$LN8@Insert_nod:

; 662  :             }
; 663  :         } else { // add to left of _Loc._Parent

  0007b	eb 1a		 jmp	 SHORT $LN7@Insert_nod
$LN6@Insert_nod:

; 664  :             _STL_INTERNAL_CHECK(_Loc._Parent->_Left->_Isnil);
; 665  :             _Loc._Parent->_Left = _Newnode;

  0007d	8b 45 08	 mov	 eax, DWORD PTR __Loc$[ebp]
  00080	8b 4d 10	 mov	 ecx, DWORD PTR __Newnode$[ebp]
  00083	89 08		 mov	 DWORD PTR [eax], ecx

; 666  :             if (_Loc._Parent == _Head->_Left) { // remember leftmost node

  00085	8b 45 f8	 mov	 eax, DWORD PTR __Head$[ebp]
  00088	8b 4d 08	 mov	 ecx, DWORD PTR __Loc$[ebp]
  0008b	3b 08		 cmp	 ecx, DWORD PTR [eax]
  0008d	75 08		 jne	 SHORT $LN7@Insert_nod

; 667  :                 _Head->_Left = _Newnode;

  0008f	8b 45 f8	 mov	 eax, DWORD PTR __Head$[ebp]
  00092	8b 4d 10	 mov	 ecx, DWORD PTR __Newnode$[ebp]
  00095	89 08		 mov	 DWORD PTR [eax], ecx
$LN7@Insert_nod:

; 668  :             }
; 669  :         }
; 670  : 
; 671  :         for (_Nodeptr _Pnode = _Newnode; _Pnode->_Parent->_Color == _Red;) {

  00097	8b 45 10	 mov	 eax, DWORD PTR __Newnode$[ebp]
  0009a	89 45 fc	 mov	 DWORD PTR __Pnode$3[ebp], eax
$LN4@Insert_nod:
  0009d	8b 45 fc	 mov	 eax, DWORD PTR __Pnode$3[ebp]
  000a0	8b 40 04	 mov	 eax, DWORD PTR [eax+4]
  000a3	0f be 40 0c	 movsx	 eax, BYTE PTR [eax+12]
  000a7	85 c0		 test	 eax, eax
  000a9	0f 85 3f 01 00
	00		 jne	 $LN3@Insert_nod

; 672  :             if (_Pnode->_Parent == _Pnode->_Parent->_Parent->_Left) { // fixup red-red in left subtree

  000af	8b 45 fc	 mov	 eax, DWORD PTR __Pnode$3[ebp]
  000b2	8b 40 04	 mov	 eax, DWORD PTR [eax+4]
  000b5	8b 40 04	 mov	 eax, DWORD PTR [eax+4]
  000b8	8b 4d fc	 mov	 ecx, DWORD PTR __Pnode$3[ebp]
  000bb	8b 49 04	 mov	 ecx, DWORD PTR [ecx+4]
  000be	3b 08		 cmp	 ecx, DWORD PTR [eax]
  000c0	0f 85 95 00 00
	00		 jne	 $LN10@Insert_nod

; 673  :                 const auto _Parent_sibling = _Pnode->_Parent->_Parent->_Right;

  000c6	8b 45 fc	 mov	 eax, DWORD PTR __Pnode$3[ebp]
  000c9	8b 40 04	 mov	 eax, DWORD PTR [eax+4]
  000cc	8b 40 04	 mov	 eax, DWORD PTR [eax+4]
  000cf	8b 40 08	 mov	 eax, DWORD PTR [eax+8]
  000d2	89 45 f0	 mov	 DWORD PTR __Parent_sibling$2[ebp], eax

; 674  :                 if (_Parent_sibling->_Color == _Red) { // parent's sibling has two red children, blacken both

  000d5	8b 45 f0	 mov	 eax, DWORD PTR __Parent_sibling$2[ebp]
  000d8	0f be 40 0c	 movsx	 eax, BYTE PTR [eax+12]
  000dc	85 c0		 test	 eax, eax
  000de	75 2c		 jne	 SHORT $LN12@Insert_nod

; 675  :                     _Pnode->_Parent->_Color          = _Black;

  000e0	8b 45 fc	 mov	 eax, DWORD PTR __Pnode$3[ebp]
  000e3	8b 40 04	 mov	 eax, DWORD PTR [eax+4]
  000e6	c6 40 0c 01	 mov	 BYTE PTR [eax+12], 1

; 676  :                     _Parent_sibling->_Color          = _Black;

  000ea	8b 45 f0	 mov	 eax, DWORD PTR __Parent_sibling$2[ebp]
  000ed	c6 40 0c 01	 mov	 BYTE PTR [eax+12], 1

; 677  :                     _Pnode->_Parent->_Parent->_Color = _Red;

  000f1	8b 45 fc	 mov	 eax, DWORD PTR __Pnode$3[ebp]
  000f4	8b 40 04	 mov	 eax, DWORD PTR [eax+4]
  000f7	8b 40 04	 mov	 eax, DWORD PTR [eax+4]
  000fa	c6 40 0c 00	 mov	 BYTE PTR [eax+12], 0

; 678  :                     _Pnode                           = _Pnode->_Parent->_Parent;

  000fe	8b 45 fc	 mov	 eax, DWORD PTR __Pnode$3[ebp]
  00101	8b 40 04	 mov	 eax, DWORD PTR [eax+4]
  00104	8b 40 04	 mov	 eax, DWORD PTR [eax+4]
  00107	89 45 fc	 mov	 DWORD PTR __Pnode$3[ebp], eax

; 679  :                 } else { // parent's sibling has red and black children

  0010a	eb 4a		 jmp	 SHORT $LN13@Insert_nod
$LN12@Insert_nod:

; 680  :                     if (_Pnode == _Pnode->_Parent->_Right) { // rotate right child to left

  0010c	8b 45 fc	 mov	 eax, DWORD PTR __Pnode$3[ebp]
  0010f	8b 40 04	 mov	 eax, DWORD PTR [eax+4]
  00112	8b 4d fc	 mov	 ecx, DWORD PTR __Pnode$3[ebp]
  00115	3b 48 08	 cmp	 ecx, DWORD PTR [eax+8]
  00118	75 14		 jne	 SHORT $LN14@Insert_nod

; 681  :                         _Pnode = _Pnode->_Parent;

  0011a	8b 45 fc	 mov	 eax, DWORD PTR __Pnode$3[ebp]
  0011d	8b 40 04	 mov	 eax, DWORD PTR [eax+4]
  00120	89 45 fc	 mov	 DWORD PTR __Pnode$3[ebp], eax

; 682  :                         _Lrotate(_Pnode);

  00123	ff 75 fc	 push	 DWORD PTR __Pnode$3[ebp]
  00126	8b 4d f4	 mov	 ecx, DWORD PTR _this$[ebp]
  00129	e8 00 00 00 00	 call	 ?_Lrotate@?$_Tree_val@U?$_Tree_simple_types@U?$pair@$$CBV?$basic_string@DU?$char_traits@D@std@@V?$allocator@D@2@@std@@M@std@@@std@@@std@@QAEXPAU?$_Tree_node@U?$pair@$$CBV?$basic_string@DU?$char_traits@D@std@@V?$allocator@D@2@@std@@M@std@@PAX@2@@Z ; std::_Tree_val<std::_Tree_simple_types<std::pair<std::basic_string<char,std::char_traits<char>,std::allocator<char> > const ,float> > >::_Lrotate
$LN14@Insert_nod:

; 683  :                     }
; 684  : 
; 685  :                     _Pnode->_Parent->_Color          = _Black; // propagate red up

  0012e	8b 45 fc	 mov	 eax, DWORD PTR __Pnode$3[ebp]
  00131	8b 40 04	 mov	 eax, DWORD PTR [eax+4]
  00134	c6 40 0c 01	 mov	 BYTE PTR [eax+12], 1

; 686  :                     _Pnode->_Parent->_Parent->_Color = _Red;

  00138	8b 45 fc	 mov	 eax, DWORD PTR __Pnode$3[ebp]
  0013b	8b 40 04	 mov	 eax, DWORD PTR [eax+4]
  0013e	8b 40 04	 mov	 eax, DWORD PTR [eax+4]
  00141	c6 40 0c 00	 mov	 BYTE PTR [eax+12], 0

; 687  :                     _Rrotate(_Pnode->_Parent->_Parent);

  00145	8b 45 fc	 mov	 eax, DWORD PTR __Pnode$3[ebp]
  00148	8b 40 04	 mov	 eax, DWORD PTR [eax+4]
  0014b	ff 70 04	 push	 DWORD PTR [eax+4]
  0014e	8b 4d f4	 mov	 ecx, DWORD PTR _this$[ebp]
  00151	e8 00 00 00 00	 call	 ?_Rrotate@?$_Tree_val@U?$_Tree_simple_types@U?$pair@$$CBV?$basic_string@DU?$char_traits@D@std@@V?$allocator@D@2@@std@@M@std@@@std@@@std@@QAEXPAU?$_Tree_node@U?$pair@$$CBV?$basic_string@DU?$char_traits@D@std@@V?$allocator@D@2@@std@@M@std@@PAX@2@@Z ; std::_Tree_val<std::_Tree_simple_types<std::pair<std::basic_string<char,std::char_traits<char>,std::allocator<char> > const ,float> > >::_Rrotate
$LN13@Insert_nod:

; 688  :                 }
; 689  :             } else { // fixup red-red in right subtree

  00156	e9 8e 00 00 00	 jmp	 $LN11@Insert_nod
$LN10@Insert_nod:

; 690  :                 const auto _Parent_sibling = _Pnode->_Parent->_Parent->_Left;

  0015b	8b 45 fc	 mov	 eax, DWORD PTR __Pnode$3[ebp]
  0015e	8b 40 04	 mov	 eax, DWORD PTR [eax+4]
  00161	8b 40 04	 mov	 eax, DWORD PTR [eax+4]
  00164	8b 00		 mov	 eax, DWORD PTR [eax]
  00166	89 45 ec	 mov	 DWORD PTR __Parent_sibling$1[ebp], eax

; 691  :                 if (_Parent_sibling->_Color == _Red) { // parent's sibling has two red children, blacken both

  00169	8b 45 ec	 mov	 eax, DWORD PTR __Parent_sibling$1[ebp]
  0016c	0f be 40 0c	 movsx	 eax, BYTE PTR [eax+12]
  00170	85 c0		 test	 eax, eax
  00172	75 2c		 jne	 SHORT $LN15@Insert_nod

; 692  :                     _Pnode->_Parent->_Color          = _Black;

  00174	8b 45 fc	 mov	 eax, DWORD PTR __Pnode$3[ebp]
  00177	8b 40 04	 mov	 eax, DWORD PTR [eax+4]
  0017a	c6 40 0c 01	 mov	 BYTE PTR [eax+12], 1

; 693  :                     _Parent_sibling->_Color          = _Black;

  0017e	8b 45 ec	 mov	 eax, DWORD PTR __Parent_sibling$1[ebp]
  00181	c6 40 0c 01	 mov	 BYTE PTR [eax+12], 1

; 694  :                     _Pnode->_Parent->_Parent->_Color = _Red;

  00185	8b 45 fc	 mov	 eax, DWORD PTR __Pnode$3[ebp]
  00188	8b 40 04	 mov	 eax, DWORD PTR [eax+4]
  0018b	8b 40 04	 mov	 eax, DWORD PTR [eax+4]
  0018e	c6 40 0c 00	 mov	 BYTE PTR [eax+12], 0

; 695  :                     _Pnode                           = _Pnode->_Parent->_Parent;

  00192	8b 45 fc	 mov	 eax, DWORD PTR __Pnode$3[ebp]
  00195	8b 40 04	 mov	 eax, DWORD PTR [eax+4]
  00198	8b 40 04	 mov	 eax, DWORD PTR [eax+4]
  0019b	89 45 fc	 mov	 DWORD PTR __Pnode$3[ebp], eax

; 696  :                 } else { // parent's sibling has red and black children

  0019e	eb 49		 jmp	 SHORT $LN11@Insert_nod
$LN15@Insert_nod:

; 697  :                     if (_Pnode == _Pnode->_Parent->_Left) { // rotate left child to right

  001a0	8b 45 fc	 mov	 eax, DWORD PTR __Pnode$3[ebp]
  001a3	8b 40 04	 mov	 eax, DWORD PTR [eax+4]
  001a6	8b 4d fc	 mov	 ecx, DWORD PTR __Pnode$3[ebp]
  001a9	3b 08		 cmp	 ecx, DWORD PTR [eax]
  001ab	75 14		 jne	 SHORT $LN17@Insert_nod

; 698  :                         _Pnode = _Pnode->_Parent;

  001ad	8b 45 fc	 mov	 eax, DWORD PTR __Pnode$3[ebp]
  001b0	8b 40 04	 mov	 eax, DWORD PTR [eax+4]
  001b3	89 45 fc	 mov	 DWORD PTR __Pnode$3[ebp], eax

; 699  :                         _Rrotate(_Pnode);

  001b6	ff 75 fc	 push	 DWORD PTR __Pnode$3[ebp]
  001b9	8b 4d f4	 mov	 ecx, DWORD PTR _this$[ebp]
  001bc	e8 00 00 00 00	 call	 ?_Rrotate@?$_Tree_val@U?$_Tree_simple_types@U?$pair@$$CBV?$basic_string@DU?$char_traits@D@std@@V?$allocator@D@2@@std@@M@std@@@std@@@std@@QAEXPAU?$_Tree_node@U?$pair@$$CBV?$basic_string@DU?$char_traits@D@std@@V?$allocator@D@2@@std@@M@std@@PAX@2@@Z ; std::_Tree_val<std::_Tree_simple_types<std::pair<std::basic_string<char,std::char_traits<char>,std::allocator<char> > const ,float> > >::_Rrotate
$LN17@Insert_nod:

; 700  :                     }
; 701  : 
; 702  :                     _Pnode->_Parent->_Color          = _Black; // propagate red up

  001c1	8b 45 fc	 mov	 eax, DWORD PTR __Pnode$3[ebp]
  001c4	8b 40 04	 mov	 eax, DWORD PTR [eax+4]
  001c7	c6 40 0c 01	 mov	 BYTE PTR [eax+12], 1

; 703  :                     _Pnode->_Parent->_Parent->_Color = _Red;

  001cb	8b 45 fc	 mov	 eax, DWORD PTR __Pnode$3[ebp]
  001ce	8b 40 04	 mov	 eax, DWORD PTR [eax+4]
  001d1	8b 40 04	 mov	 eax, DWORD PTR [eax+4]
  001d4	c6 40 0c 00	 mov	 BYTE PTR [eax+12], 0

; 704  :                     _Lrotate(_Pnode->_Parent->_Parent);

  001d8	8b 45 fc	 mov	 eax, DWORD PTR __Pnode$3[ebp]
  001db	8b 40 04	 mov	 eax, DWORD PTR [eax+4]
  001de	ff 70 04	 push	 DWORD PTR [eax+4]
  001e1	8b 4d f4	 mov	 ecx, DWORD PTR _this$[ebp]
  001e4	e8 00 00 00 00	 call	 ?_Lrotate@?$_Tree_val@U?$_Tree_simple_types@U?$pair@$$CBV?$basic_string@DU?$char_traits@D@std@@V?$allocator@D@2@@std@@M@std@@@std@@@std@@QAEXPAU?$_Tree_node@U?$pair@$$CBV?$basic_string@DU?$char_traits@D@std@@V?$allocator@D@2@@std@@M@std@@PAX@2@@Z ; std::_Tree_val<std::_Tree_simple_types<std::pair<std::basic_string<char,std::char_traits<char>,std::allocator<char> > const ,float> > >::_Lrotate
$LN11@Insert_nod:

; 705  :                 }
; 706  :             }
; 707  :         }

  001e9	e9 af fe ff ff	 jmp	 $LN4@Insert_nod
$LN3@Insert_nod:

; 708  : 
; 709  :         _Head->_Parent->_Color = _Black; // root is always black

  001ee	8b 45 f8	 mov	 eax, DWORD PTR __Head$[ebp]
  001f1	8b 40 04	 mov	 eax, DWORD PTR [eax+4]
  001f4	c6 40 0c 01	 mov	 BYTE PTR [eax+12], 1

; 710  :         return _Newnode;

  001f8	8b 45 10	 mov	 eax, DWORD PTR __Newnode$[ebp]
$LN18@Insert_nod:

; 711  :     }

  001fb	c9		 leave
  001fc	c2 0c 00	 ret	 12			; 0000000cH
?_Insert_node@?$_Tree_val@U?$_Tree_simple_types@U?$pair@$$CBV?$basic_string@DU?$char_traits@D@std@@V?$allocator@D@2@@std@@M@std@@@std@@@std@@QAEPAU?$_Tree_node@U?$pair@$$CBV?$basic_string@DU?$char_traits@D@std@@V?$allocator@D@2@@std@@M@std@@PAX@2@U?$_Tree_id@PAU?$_Tree_node@U?$pair@$$CBV?$basic_string@DU?$char_traits@D@std@@V?$allocator@D@2@@std@@M@std@@PAX@std@@@2@QAU32@@Z ENDP ; std::_Tree_val<std::_Tree_simple_types<std::pair<std::basic_string<char,std::char_traits<char>,std::allocator<char> > const ,float> > >::_Insert_node
_TEXT	ENDS
; Function compile flags: /Odspy
; File C:\Program Files (x86)\Microsoft Visual Studio\2019\Community\VC\Tools\MSVC\14.28.29333\include\xtree
; File C:\Program Files (x86)\Microsoft Visual Studio\2019\Community\VC\Tools\MSVC\14.28.29333\include\type_traits
; File C:\Program Files (x86)\Microsoft Visual Studio\2019\Community\VC\Tools\MSVC\14.28.29333\include\utility
; File C:\Program Files (x86)\Microsoft Visual Studio\2019\Community\VC\Tools\MSVC\14.28.29333\include\type_traits
; File C:\Program Files (x86)\Microsoft Visual Studio\2019\Community\VC\Tools\MSVC\14.28.29333\include\utility
; File C:\Program Files (x86)\Microsoft Visual Studio\2019\Community\VC\Tools\MSVC\14.28.29333\include\type_traits
; File C:\Program Files (x86)\Microsoft Visual Studio\2019\Community\VC\Tools\MSVC\14.28.29333\include\utility
; File C:\Program Files (x86)\Microsoft Visual Studio\2019\Community\VC\Tools\MSVC\14.28.29333\include\xtree
;	COMDAT ?_Extract@?$_Tree_val@U?$_Tree_simple_types@U?$pair@$$CBV?$basic_string@DU?$char_traits@D@std@@V?$allocator@D@2@@std@@M@std@@@std@@@std@@QAEPAU?$_Tree_node@U?$pair@$$CBV?$basic_string@DU?$char_traits@D@std@@V?$allocator@D@2@@std@@M@std@@PAX@2@V?$_Tree_unchecked_const_iterator@V?$_Tree_val@U?$_Tree_simple_types@U?$pair@$$CBV?$basic_string@DU?$char_traits@D@std@@V?$allocator@D@2@@std@@M@std@@@std@@@std@@U_Iterator_base0@2@@2@@Z
_TEXT	SEGMENT
$T1 = -68						; size = 4
$T2 = -64						; size = 4
$T3 = -60						; size = 4
$T4 = -56						; size = 4
$T5 = -52						; size = 4
__Right$ = -48						; size = 4
__Left$ = -44						; size = 4
tv144 = -40						; size = 4
tv133 = -36						; size = 4
__Pnode$ = -32						; size = 4
__Pnode$ = -28						; size = 4
_this$ = -24						; size = 4
__Erasednode$ = -20					; size = 4
__Fixnode$ = -16					; size = 4
__Fixnodeparent$ = -12					; size = 4
__Pnode$ = -8						; size = 4
__Tmp$6 = -1						; size = 1
__Where$ = 8						; size = 4
?_Extract@?$_Tree_val@U?$_Tree_simple_types@U?$pair@$$CBV?$basic_string@DU?$char_traits@D@std@@V?$allocator@D@2@@std@@M@std@@@std@@@std@@QAEPAU?$_Tree_node@U?$pair@$$CBV?$basic_string@DU?$char_traits@D@std@@V?$allocator@D@2@@std@@M@std@@PAX@2@V?$_Tree_unchecked_const_iterator@V?$_Tree_val@U?$_Tree_simple_types@U?$pair@$$CBV?$basic_string@DU?$char_traits@D@std@@V?$allocator@D@2@@std@@M@std@@@std@@@std@@U_Iterator_base0@2@@2@@Z PROC ; std::_Tree_val<std::_Tree_simple_types<std::pair<std::basic_string<char,std::char_traits<char>,std::allocator<char> > const ,float> > >::_Extract, COMDAT
; _this$ = ecx

; 502  :     _Nodeptr _Extract(_Unchecked_const_iterator _Where) noexcept {

  00000	55		 push	 ebp
  00001	8b ec		 mov	 ebp, esp
  00003	83 ec 44	 sub	 esp, 68			; 00000044H
  00006	89 4d e8	 mov	 DWORD PTR _this$[ebp], ecx

; 503  :         _Nodeptr _Erasednode = _Where._Ptr; // node to erase

  00009	8b 45 08	 mov	 eax, DWORD PTR __Where$[ebp]
  0000c	89 45 ec	 mov	 DWORD PTR __Erasednode$[ebp], eax

; 504  :         ++_Where; // save successor iterator for return

  0000f	8d 4d 08	 lea	 ecx, DWORD PTR __Where$[ebp]
  00012	e8 00 00 00 00	 call	 ??E?$_Tree_unchecked_const_iterator@V?$_Tree_val@U?$_Tree_simple_types@U?$pair@$$CBV?$basic_string@DU?$char_traits@D@std@@V?$allocator@D@2@@std@@M@std@@@std@@@std@@U_Iterator_base0@2@@std@@QAEAAV01@XZ ; std::_Tree_unchecked_const_iterator<std::_Tree_val<std::_Tree_simple_types<std::pair<std::basic_string<char,std::char_traits<char>,std::allocator<char> > const ,float> > >,std::_Iterator_base0>::operator++

; 505  : 
; 506  :         _Nodeptr _Fixnode; // the node to recolor as needed
; 507  :         _Nodeptr _Fixnodeparent; // parent of _Fixnode (which may be nil)
; 508  :         _Nodeptr _Pnode = _Erasednode;

  00017	8b 45 ec	 mov	 eax, DWORD PTR __Erasednode$[ebp]
  0001a	89 45 f8	 mov	 DWORD PTR __Pnode$[ebp], eax

; 509  : 
; 510  :         if (_Pnode->_Left->_Isnil) {

  0001d	8b 45 f8	 mov	 eax, DWORD PTR __Pnode$[ebp]
  00020	8b 00		 mov	 eax, DWORD PTR [eax]
  00022	0f be 40 0d	 movsx	 eax, BYTE PTR [eax+13]
  00026	85 c0		 test	 eax, eax
  00028	74 0b		 je	 SHORT $LN5@Extract

; 511  :             _Fixnode = _Pnode->_Right; // stitch up right subtree

  0002a	8b 45 f8	 mov	 eax, DWORD PTR __Pnode$[ebp]
  0002d	8b 40 08	 mov	 eax, DWORD PTR [eax+8]
  00030	89 45 f0	 mov	 DWORD PTR __Fixnode$[ebp], eax
  00033	eb 27		 jmp	 SHORT $LN6@Extract
$LN5@Extract:

; 512  :         } else if (_Pnode->_Right->_Isnil) {

  00035	8b 45 f8	 mov	 eax, DWORD PTR __Pnode$[ebp]
  00038	8b 40 08	 mov	 eax, DWORD PTR [eax+8]
  0003b	0f be 40 0d	 movsx	 eax, BYTE PTR [eax+13]
  0003f	85 c0		 test	 eax, eax
  00041	74 0a		 je	 SHORT $LN7@Extract

; 513  :             _Fixnode = _Pnode->_Left; // stitch up left subtree

  00043	8b 45 f8	 mov	 eax, DWORD PTR __Pnode$[ebp]
  00046	8b 00		 mov	 eax, DWORD PTR [eax]
  00048	89 45 f0	 mov	 DWORD PTR __Fixnode$[ebp], eax

; 514  :         } else { // two subtrees, must lift successor node to replace erased

  0004b	eb 0f		 jmp	 SHORT $LN6@Extract
$LN7@Extract:

; 515  :             _Pnode   = _Where._Ptr; // _Pnode is successor node

  0004d	8b 45 08	 mov	 eax, DWORD PTR __Where$[ebp]
  00050	89 45 f8	 mov	 DWORD PTR __Pnode$[ebp], eax

; 516  :             _Fixnode = _Pnode->_Right; // _Fixnode is only subtree

  00053	8b 45 f8	 mov	 eax, DWORD PTR __Pnode$[ebp]
  00056	8b 40 08	 mov	 eax, DWORD PTR [eax+8]
  00059	89 45 f0	 mov	 DWORD PTR __Fixnode$[ebp], eax
$LN6@Extract:

; 517  :         }
; 518  : 
; 519  :         if (_Pnode == _Erasednode) { // at most one subtree, relink it

  0005c	8b 45 f8	 mov	 eax, DWORD PTR __Pnode$[ebp]
  0005f	3b 45 ec	 cmp	 eax, DWORD PTR __Erasednode$[ebp]
  00062	0f 85 01 01 00
	00		 jne	 $LN9@Extract

; 520  :             _Fixnodeparent = _Erasednode->_Parent;

  00068	8b 45 ec	 mov	 eax, DWORD PTR __Erasednode$[ebp]
  0006b	8b 40 04	 mov	 eax, DWORD PTR [eax+4]
  0006e	89 45 f4	 mov	 DWORD PTR __Fixnodeparent$[ebp], eax

; 521  :             if (!_Fixnode->_Isnil) {

  00071	8b 45 f0	 mov	 eax, DWORD PTR __Fixnode$[ebp]
  00074	0f be 40 0d	 movsx	 eax, BYTE PTR [eax+13]
  00078	85 c0		 test	 eax, eax
  0007a	75 09		 jne	 SHORT $LN11@Extract

; 522  :                 _Fixnode->_Parent = _Fixnodeparent; // link up

  0007c	8b 45 f0	 mov	 eax, DWORD PTR __Fixnode$[ebp]
  0007f	8b 4d f4	 mov	 ecx, DWORD PTR __Fixnodeparent$[ebp]
  00082	89 48 04	 mov	 DWORD PTR [eax+4], ecx
$LN11@Extract:

; 523  :             }
; 524  : 
; 525  :             if (_Myhead->_Parent == _Erasednode) {

  00085	8b 45 e8	 mov	 eax, DWORD PTR _this$[ebp]
  00088	8b 00		 mov	 eax, DWORD PTR [eax]
  0008a	8b 40 04	 mov	 eax, DWORD PTR [eax+4]
  0008d	3b 45 ec	 cmp	 eax, DWORD PTR __Erasednode$[ebp]
  00090	75 0d		 jne	 SHORT $LN12@Extract

; 526  :                 _Myhead->_Parent = _Fixnode; // link down from root

  00092	8b 45 e8	 mov	 eax, DWORD PTR _this$[ebp]
  00095	8b 00		 mov	 eax, DWORD PTR [eax]
  00097	8b 4d f0	 mov	 ecx, DWORD PTR __Fixnode$[ebp]
  0009a	89 48 04	 mov	 DWORD PTR [eax+4], ecx
  0009d	eb 1d		 jmp	 SHORT $LN13@Extract
$LN12@Extract:

; 527  :             } else if (_Fixnodeparent->_Left == _Erasednode) {

  0009f	8b 45 f4	 mov	 eax, DWORD PTR __Fixnodeparent$[ebp]
  000a2	8b 00		 mov	 eax, DWORD PTR [eax]
  000a4	3b 45 ec	 cmp	 eax, DWORD PTR __Erasednode$[ebp]
  000a7	75 0a		 jne	 SHORT $LN14@Extract

; 528  :                 _Fixnodeparent->_Left = _Fixnode; // link down to left

  000a9	8b 45 f4	 mov	 eax, DWORD PTR __Fixnodeparent$[ebp]
  000ac	8b 4d f0	 mov	 ecx, DWORD PTR __Fixnode$[ebp]
  000af	89 08		 mov	 DWORD PTR [eax], ecx

; 529  :             } else {

  000b1	eb 09		 jmp	 SHORT $LN13@Extract
$LN14@Extract:

; 530  :                 _Fixnodeparent->_Right = _Fixnode; // link down to right

  000b3	8b 45 f4	 mov	 eax, DWORD PTR __Fixnodeparent$[ebp]
  000b6	8b 4d f0	 mov	 ecx, DWORD PTR __Fixnode$[ebp]
  000b9	89 48 08	 mov	 DWORD PTR [eax+8], ecx
$LN13@Extract:

; 531  :             }
; 532  : 
; 533  :             if (_Myhead->_Left == _Erasednode) {

  000bc	8b 45 e8	 mov	 eax, DWORD PTR _this$[ebp]
  000bf	8b 00		 mov	 eax, DWORD PTR [eax]
  000c1	8b 00		 mov	 eax, DWORD PTR [eax]
  000c3	3b 45 ec	 cmp	 eax, DWORD PTR __Erasednode$[ebp]
  000c6	75 46		 jne	 SHORT $LN16@Extract

; 534  :                 _Myhead->_Left = _Fixnode->_Isnil ? _Fixnodeparent // smallest is parent of erased node

  000c8	8b 45 f0	 mov	 eax, DWORD PTR __Fixnode$[ebp]
  000cb	0f be 40 0d	 movsx	 eax, BYTE PTR [eax+13]
  000cf	85 c0		 test	 eax, eax
  000d1	74 08		 je	 SHORT $LN42@Extract
  000d3	8b 45 f4	 mov	 eax, DWORD PTR __Fixnodeparent$[ebp]
  000d6	89 45 dc	 mov	 DWORD PTR tv133[ebp], eax
  000d9	eb 29		 jmp	 SHORT $LN43@Extract
$LN42@Extract:
  000db	8b 45 f0	 mov	 eax, DWORD PTR __Fixnode$[ebp]
  000de	89 45 e4	 mov	 DWORD PTR __Pnode$[ebp], eax
  000e1	8b 45 c0	 mov	 eax, DWORD PTR $T2[ebp]
  000e4	89 45 dc	 mov	 DWORD PTR tv133[ebp], eax
$LN59@Extract:

; 451  :         while (!_Pnode->_Left->_Isnil) {

  000e7	8b 45 e4	 mov	 eax, DWORD PTR __Pnode$[ebp]
  000ea	8b 00		 mov	 eax, DWORD PTR [eax]
  000ec	0f be 40 0d	 movsx	 eax, BYTE PTR [eax+13]
  000f0	85 c0		 test	 eax, eax
  000f2	75 0a		 jne	 SHORT $LN60@Extract

; 452  :             _Pnode = _Pnode->_Left;

  000f4	8b 45 e4	 mov	 eax, DWORD PTR __Pnode$[ebp]
  000f7	8b 00		 mov	 eax, DWORD PTR [eax]
  000f9	89 45 e4	 mov	 DWORD PTR __Pnode$[ebp], eax

; 453  :         }

  000fc	eb e9		 jmp	 SHORT $LN59@Extract
$LN60@Extract:

; 454  : 
; 455  :         return _Pnode;

  000fe	8b 45 e4	 mov	 eax, DWORD PTR __Pnode$[ebp]
  00101	89 45 dc	 mov	 DWORD PTR tv133[ebp], eax
$LN43@Extract:

; 534  :                 _Myhead->_Left = _Fixnode->_Isnil ? _Fixnodeparent // smallest is parent of erased node

  00104	8b 45 e8	 mov	 eax, DWORD PTR _this$[ebp]
  00107	8b 00		 mov	 eax, DWORD PTR [eax]
  00109	8b 4d dc	 mov	 ecx, DWORD PTR tv133[ebp]
  0010c	89 08		 mov	 DWORD PTR [eax], ecx
$LN16@Extract:

; 535  :                                                   : _Min(_Fixnode); // smallest in relinked subtree
; 536  :             }
; 537  : 
; 538  :             if (_Myhead->_Right == _Erasednode) {

  0010e	8b 45 e8	 mov	 eax, DWORD PTR _this$[ebp]
  00111	8b 00		 mov	 eax, DWORD PTR [eax]
  00113	8b 40 08	 mov	 eax, DWORD PTR [eax+8]
  00116	3b 45 ec	 cmp	 eax, DWORD PTR __Erasednode$[ebp]
  00119	75 49		 jne	 SHORT $LN17@Extract

; 539  :                 _Myhead->_Right = _Fixnode->_Isnil ? _Fixnodeparent // largest is parent of erased node

  0011b	8b 45 f0	 mov	 eax, DWORD PTR __Fixnode$[ebp]
  0011e	0f be 40 0d	 movsx	 eax, BYTE PTR [eax+13]
  00122	85 c0		 test	 eax, eax
  00124	74 08		 je	 SHORT $LN44@Extract
  00126	8b 45 f4	 mov	 eax, DWORD PTR __Fixnodeparent$[ebp]
  00129	89 45 d8	 mov	 DWORD PTR tv144[ebp], eax
  0012c	eb 2b		 jmp	 SHORT $LN45@Extract
$LN44@Extract:
  0012e	8b 45 f0	 mov	 eax, DWORD PTR __Fixnode$[ebp]
  00131	89 45 e0	 mov	 DWORD PTR __Pnode$[ebp], eax
  00134	8b 45 bc	 mov	 eax, DWORD PTR $T1[ebp]
  00137	89 45 d8	 mov	 DWORD PTR tv144[ebp], eax
$LN64@Extract:

; 443  :         while (!_Pnode->_Right->_Isnil) {

  0013a	8b 45 e0	 mov	 eax, DWORD PTR __Pnode$[ebp]
  0013d	8b 40 08	 mov	 eax, DWORD PTR [eax+8]
  00140	0f be 40 0d	 movsx	 eax, BYTE PTR [eax+13]
  00144	85 c0		 test	 eax, eax
  00146	75 0b		 jne	 SHORT $LN65@Extract

; 444  :             _Pnode = _Pnode->_Right;

  00148	8b 45 e0	 mov	 eax, DWORD PTR __Pnode$[ebp]
  0014b	8b 40 08	 mov	 eax, DWORD PTR [eax+8]
  0014e	89 45 e0	 mov	 DWORD PTR __Pnode$[ebp], eax

; 445  :         }

  00151	eb e7		 jmp	 SHORT $LN64@Extract
$LN65@Extract:

; 446  : 
; 447  :         return _Pnode;

  00153	8b 45 e0	 mov	 eax, DWORD PTR __Pnode$[ebp]
  00156	89 45 d8	 mov	 DWORD PTR tv144[ebp], eax
$LN45@Extract:

; 539  :                 _Myhead->_Right = _Fixnode->_Isnil ? _Fixnodeparent // largest is parent of erased node

  00159	8b 45 e8	 mov	 eax, DWORD PTR _this$[ebp]
  0015c	8b 00		 mov	 eax, DWORD PTR [eax]
  0015e	8b 4d d8	 mov	 ecx, DWORD PTR tv144[ebp]
  00161	89 48 08	 mov	 DWORD PTR [eax+8], ecx
$LN17@Extract:

; 540  :                                                    : _Max(_Fixnode); // largest in relinked subtree
; 541  :             }
; 542  :         } else { // erased has two subtrees, _Pnode is successor to erased

  00164	e9 f1 00 00 00	 jmp	 $LN10@Extract
$LN9@Extract:

; 543  :             _Erasednode->_Left->_Parent = _Pnode; // link left up

  00169	8b 45 ec	 mov	 eax, DWORD PTR __Erasednode$[ebp]
  0016c	8b 00		 mov	 eax, DWORD PTR [eax]
  0016e	8b 4d f8	 mov	 ecx, DWORD PTR __Pnode$[ebp]
  00171	89 48 04	 mov	 DWORD PTR [eax+4], ecx

; 544  :             _Pnode->_Left               = _Erasednode->_Left; // link successor down

  00174	8b 45 f8	 mov	 eax, DWORD PTR __Pnode$[ebp]
  00177	8b 4d ec	 mov	 ecx, DWORD PTR __Erasednode$[ebp]
  0017a	8b 09		 mov	 ecx, DWORD PTR [ecx]
  0017c	89 08		 mov	 DWORD PTR [eax], ecx

; 545  : 
; 546  :             if (_Pnode == _Erasednode->_Right) {

  0017e	8b 45 ec	 mov	 eax, DWORD PTR __Erasednode$[ebp]
  00181	8b 4d f8	 mov	 ecx, DWORD PTR __Pnode$[ebp]
  00184	3b 48 08	 cmp	 ecx, DWORD PTR [eax+8]
  00187	75 08		 jne	 SHORT $LN18@Extract

; 547  :                 _Fixnodeparent = _Pnode; // successor is next to erased

  00189	8b 45 f8	 mov	 eax, DWORD PTR __Pnode$[ebp]
  0018c	89 45 f4	 mov	 DWORD PTR __Fixnodeparent$[ebp], eax

; 548  :             } else { // successor further down, link in place of erased

  0018f	eb 3d		 jmp	 SHORT $LN19@Extract
$LN18@Extract:

; 549  :                 _Fixnodeparent = _Pnode->_Parent; // parent is successor's

  00191	8b 45 f8	 mov	 eax, DWORD PTR __Pnode$[ebp]
  00194	8b 40 04	 mov	 eax, DWORD PTR [eax+4]
  00197	89 45 f4	 mov	 DWORD PTR __Fixnodeparent$[ebp], eax

; 550  :                 if (!_Fixnode->_Isnil) {

  0019a	8b 45 f0	 mov	 eax, DWORD PTR __Fixnode$[ebp]
  0019d	0f be 40 0d	 movsx	 eax, BYTE PTR [eax+13]
  001a1	85 c0		 test	 eax, eax
  001a3	75 09		 jne	 SHORT $LN20@Extract

; 551  :                     _Fixnode->_Parent = _Fixnodeparent; // link fix up

  001a5	8b 45 f0	 mov	 eax, DWORD PTR __Fixnode$[ebp]
  001a8	8b 4d f4	 mov	 ecx, DWORD PTR __Fixnodeparent$[ebp]
  001ab	89 48 04	 mov	 DWORD PTR [eax+4], ecx
$LN20@Extract:

; 552  :                 }
; 553  : 
; 554  :                 _Fixnodeparent->_Left        = _Fixnode; // link fix down

  001ae	8b 45 f4	 mov	 eax, DWORD PTR __Fixnodeparent$[ebp]
  001b1	8b 4d f0	 mov	 ecx, DWORD PTR __Fixnode$[ebp]
  001b4	89 08		 mov	 DWORD PTR [eax], ecx

; 555  :                 _Pnode->_Right               = _Erasednode->_Right; // link next down

  001b6	8b 45 f8	 mov	 eax, DWORD PTR __Pnode$[ebp]
  001b9	8b 4d ec	 mov	 ecx, DWORD PTR __Erasednode$[ebp]
  001bc	8b 49 08	 mov	 ecx, DWORD PTR [ecx+8]
  001bf	89 48 08	 mov	 DWORD PTR [eax+8], ecx

; 556  :                 _Erasednode->_Right->_Parent = _Pnode; // right up

  001c2	8b 45 ec	 mov	 eax, DWORD PTR __Erasednode$[ebp]
  001c5	8b 40 08	 mov	 eax, DWORD PTR [eax+8]
  001c8	8b 4d f8	 mov	 ecx, DWORD PTR __Pnode$[ebp]
  001cb	89 48 04	 mov	 DWORD PTR [eax+4], ecx
$LN19@Extract:

; 557  :             }
; 558  : 
; 559  :             if (_Myhead->_Parent == _Erasednode) {

  001ce	8b 45 e8	 mov	 eax, DWORD PTR _this$[ebp]
  001d1	8b 00		 mov	 eax, DWORD PTR [eax]
  001d3	8b 40 04	 mov	 eax, DWORD PTR [eax+4]
  001d6	3b 45 ec	 cmp	 eax, DWORD PTR __Erasednode$[ebp]
  001d9	75 0d		 jne	 SHORT $LN21@Extract

; 560  :                 _Myhead->_Parent = _Pnode; // link down from root

  001db	8b 45 e8	 mov	 eax, DWORD PTR _this$[ebp]
  001de	8b 00		 mov	 eax, DWORD PTR [eax]
  001e0	8b 4d f8	 mov	 ecx, DWORD PTR __Pnode$[ebp]
  001e3	89 48 04	 mov	 DWORD PTR [eax+4], ecx
  001e6	eb 26		 jmp	 SHORT $LN22@Extract
$LN21@Extract:

; 561  :             } else if (_Erasednode->_Parent->_Left == _Erasednode) {

  001e8	8b 45 ec	 mov	 eax, DWORD PTR __Erasednode$[ebp]
  001eb	8b 40 04	 mov	 eax, DWORD PTR [eax+4]
  001ee	8b 00		 mov	 eax, DWORD PTR [eax]
  001f0	3b 45 ec	 cmp	 eax, DWORD PTR __Erasednode$[ebp]
  001f3	75 0d		 jne	 SHORT $LN23@Extract

; 562  :                 _Erasednode->_Parent->_Left = _Pnode; // link down to left

  001f5	8b 45 ec	 mov	 eax, DWORD PTR __Erasednode$[ebp]
  001f8	8b 40 04	 mov	 eax, DWORD PTR [eax+4]
  001fb	8b 4d f8	 mov	 ecx, DWORD PTR __Pnode$[ebp]
  001fe	89 08		 mov	 DWORD PTR [eax], ecx

; 563  :             } else {

  00200	eb 0c		 jmp	 SHORT $LN22@Extract
$LN23@Extract:

; 564  :                 _Erasednode->_Parent->_Right = _Pnode; // link down to right

  00202	8b 45 ec	 mov	 eax, DWORD PTR __Erasednode$[ebp]
  00205	8b 40 04	 mov	 eax, DWORD PTR [eax+4]
  00208	8b 4d f8	 mov	 ecx, DWORD PTR __Pnode$[ebp]
  0020b	89 48 08	 mov	 DWORD PTR [eax+8], ecx
$LN22@Extract:

; 565  :             }
; 566  : 
; 567  :             _Pnode->_Parent = _Erasednode->_Parent; // link successor up

  0020e	8b 45 f8	 mov	 eax, DWORD PTR __Pnode$[ebp]
  00211	8b 4d ec	 mov	 ecx, DWORD PTR __Erasednode$[ebp]
  00214	8b 49 04	 mov	 ecx, DWORD PTR [ecx+4]
  00217	89 48 04	 mov	 DWORD PTR [eax+4], ecx

; 568  :             _STD swap(_Pnode->_Color, _Erasednode->_Color); // recolor it

  0021a	8b 45 ec	 mov	 eax, DWORD PTR __Erasednode$[ebp]
  0021d	83 c0 0c	 add	 eax, 12			; 0000000cH
  00220	89 45 d0	 mov	 DWORD PTR __Right$[ebp], eax
  00223	8b 45 f8	 mov	 eax, DWORD PTR __Pnode$[ebp]
  00226	83 c0 0c	 add	 eax, 12			; 0000000cH
  00229	89 45 d4	 mov	 DWORD PTR __Left$[ebp], eax
; File C:\Program Files (x86)\Microsoft Visual Studio\2019\Community\VC\Tools\MSVC\14.28.29333\include\type_traits

; 1455 :     return static_cast<remove_reference_t<_Ty>&&>(_Arg);

  0022c	8b 45 d4	 mov	 eax, DWORD PTR __Left$[ebp]
  0022f	89 45 cc	 mov	 DWORD PTR $T5[ebp], eax
; File C:\Program Files (x86)\Microsoft Visual Studio\2019\Community\VC\Tools\MSVC\14.28.29333\include\utility

; 104  :     _Ty _Tmp = _STD move(_Left);

  00232	8b 45 cc	 mov	 eax, DWORD PTR $T5[ebp]
  00235	8a 00		 mov	 al, BYTE PTR [eax]
  00237	88 45 ff	 mov	 BYTE PTR __Tmp$6[ebp], al
; File C:\Program Files (x86)\Microsoft Visual Studio\2019\Community\VC\Tools\MSVC\14.28.29333\include\type_traits

; 1455 :     return static_cast<remove_reference_t<_Ty>&&>(_Arg);

  0023a	8b 45 d0	 mov	 eax, DWORD PTR __Right$[ebp]
  0023d	89 45 c8	 mov	 DWORD PTR $T4[ebp], eax
; File C:\Program Files (x86)\Microsoft Visual Studio\2019\Community\VC\Tools\MSVC\14.28.29333\include\utility

; 105  :     _Left    = _STD move(_Right);

  00240	8b 45 d4	 mov	 eax, DWORD PTR __Left$[ebp]
  00243	8b 4d c8	 mov	 ecx, DWORD PTR $T4[ebp]
  00246	8a 09		 mov	 cl, BYTE PTR [ecx]
  00248	88 08		 mov	 BYTE PTR [eax], cl
; File C:\Program Files (x86)\Microsoft Visual Studio\2019\Community\VC\Tools\MSVC\14.28.29333\include\type_traits

; 1455 :     return static_cast<remove_reference_t<_Ty>&&>(_Arg);

  0024a	8d 45 ff	 lea	 eax, DWORD PTR __Tmp$6[ebp]
  0024d	89 45 c4	 mov	 DWORD PTR $T3[ebp], eax
; File C:\Program Files (x86)\Microsoft Visual Studio\2019\Community\VC\Tools\MSVC\14.28.29333\include\utility

; 106  :     _Right   = _STD move(_Tmp);

  00250	8b 45 d0	 mov	 eax, DWORD PTR __Right$[ebp]
  00253	8b 4d c4	 mov	 ecx, DWORD PTR $T3[ebp]
  00256	8a 09		 mov	 cl, BYTE PTR [ecx]
  00258	88 08		 mov	 BYTE PTR [eax], cl
$LN10@Extract:
; File C:\Program Files (x86)\Microsoft Visual Studio\2019\Community\VC\Tools\MSVC\14.28.29333\include\xtree

; 571  :         if (_Erasednode->_Color == _Black) { // erasing black link, must recolor/rebalance tree

  0025a	8b 45 ec	 mov	 eax, DWORD PTR __Erasednode$[ebp]
  0025d	0f be 40 0c	 movsx	 eax, BYTE PTR [eax+12]
  00261	83 f8 01	 cmp	 eax, 1
  00264	0f 85 f4 01 00
	00		 jne	 $LN25@Extract

; 572  :             for (; _Fixnode != _Myhead->_Parent && _Fixnode->_Color == _Black; _Fixnodeparent = _Fixnode->_Parent) {

  0026a	eb 09		 jmp	 SHORT $LN4@Extract
$LN2@Extract:
  0026c	8b 45 f0	 mov	 eax, DWORD PTR __Fixnode$[ebp]
  0026f	8b 40 04	 mov	 eax, DWORD PTR [eax+4]
  00272	89 45 f4	 mov	 DWORD PTR __Fixnodeparent$[ebp], eax
$LN4@Extract:
  00275	8b 45 e8	 mov	 eax, DWORD PTR _this$[ebp]
  00278	8b 00		 mov	 eax, DWORD PTR [eax]
  0027a	8b 4d f0	 mov	 ecx, DWORD PTR __Fixnode$[ebp]
  0027d	3b 48 04	 cmp	 ecx, DWORD PTR [eax+4]
  00280	0f 84 d1 01 00
	00		 je	 $LN3@Extract
  00286	8b 45 f0	 mov	 eax, DWORD PTR __Fixnode$[ebp]
  00289	0f be 40 0c	 movsx	 eax, BYTE PTR [eax+12]
  0028d	83 f8 01	 cmp	 eax, 1
  00290	0f 85 c1 01 00
	00		 jne	 $LN3@Extract

; 573  :                 if (_Fixnode == _Fixnodeparent->_Left) { // fixup left subtree

  00296	8b 45 f4	 mov	 eax, DWORD PTR __Fixnodeparent$[ebp]
  00299	8b 4d f0	 mov	 ecx, DWORD PTR __Fixnode$[ebp]
  0029c	3b 08		 cmp	 ecx, DWORD PTR [eax]
  0029e	0f 85 dd 00 00
	00		 jne	 $LN26@Extract

; 574  :                     _Pnode = _Fixnodeparent->_Right;

  002a4	8b 45 f4	 mov	 eax, DWORD PTR __Fixnodeparent$[ebp]
  002a7	8b 40 08	 mov	 eax, DWORD PTR [eax+8]
  002aa	89 45 f8	 mov	 DWORD PTR __Pnode$[ebp], eax

; 575  :                     if (_Pnode->_Color == _Red) { // rotate red up from right subtree

  002ad	8b 45 f8	 mov	 eax, DWORD PTR __Pnode$[ebp]
  002b0	0f be 40 0c	 movsx	 eax, BYTE PTR [eax+12]
  002b4	85 c0		 test	 eax, eax
  002b6	75 22		 jne	 SHORT $LN28@Extract

; 576  :                         _Pnode->_Color         = _Black;

  002b8	8b 45 f8	 mov	 eax, DWORD PTR __Pnode$[ebp]
  002bb	c6 40 0c 01	 mov	 BYTE PTR [eax+12], 1

; 577  :                         _Fixnodeparent->_Color = _Red;

  002bf	8b 45 f4	 mov	 eax, DWORD PTR __Fixnodeparent$[ebp]
  002c2	c6 40 0c 00	 mov	 BYTE PTR [eax+12], 0

; 578  :                         _Lrotate(_Fixnodeparent);

  002c6	ff 75 f4	 push	 DWORD PTR __Fixnodeparent$[ebp]
  002c9	8b 4d e8	 mov	 ecx, DWORD PTR _this$[ebp]
  002cc	e8 00 00 00 00	 call	 ?_Lrotate@?$_Tree_val@U?$_Tree_simple_types@U?$pair@$$CBV?$basic_string@DU?$char_traits@D@std@@V?$allocator@D@2@@std@@M@std@@@std@@@std@@QAEXPAU?$_Tree_node@U?$pair@$$CBV?$basic_string@DU?$char_traits@D@std@@V?$allocator@D@2@@std@@M@std@@PAX@2@@Z ; std::_Tree_val<std::_Tree_simple_types<std::pair<std::basic_string<char,std::char_traits<char>,std::allocator<char> > const ,float> > >::_Lrotate

; 579  :                         _Pnode = _Fixnodeparent->_Right;

  002d1	8b 45 f4	 mov	 eax, DWORD PTR __Fixnodeparent$[ebp]
  002d4	8b 40 08	 mov	 eax, DWORD PTR [eax+8]
  002d7	89 45 f8	 mov	 DWORD PTR __Pnode$[ebp], eax
$LN28@Extract:

; 580  :                     }
; 581  : 
; 582  :                     if (_Pnode->_Isnil) {

  002da	8b 45 f8	 mov	 eax, DWORD PTR __Pnode$[ebp]
  002dd	0f be 40 0d	 movsx	 eax, BYTE PTR [eax+13]
  002e1	85 c0		 test	 eax, eax
  002e3	74 0b		 je	 SHORT $LN29@Extract

; 583  :                         _Fixnode = _Fixnodeparent; // shouldn't happen

  002e5	8b 45 f4	 mov	 eax, DWORD PTR __Fixnodeparent$[ebp]
  002e8	89 45 f0	 mov	 DWORD PTR __Fixnode$[ebp], eax

; 584  :                     } else if (_Pnode->_Left->_Color == _Black

  002eb	e9 8c 00 00 00	 jmp	 $LN30@Extract
$LN29@Extract:

; 585  :                                && _Pnode->_Right->_Color == _Black) { // redden right subtree with black children

  002f0	8b 45 f8	 mov	 eax, DWORD PTR __Pnode$[ebp]
  002f3	8b 00		 mov	 eax, DWORD PTR [eax]
  002f5	0f be 40 0c	 movsx	 eax, BYTE PTR [eax+12]
  002f9	83 f8 01	 cmp	 eax, 1
  002fc	75 1e		 jne	 SHORT $LN31@Extract
  002fe	8b 45 f8	 mov	 eax, DWORD PTR __Pnode$[ebp]
  00301	8b 40 08	 mov	 eax, DWORD PTR [eax+8]
  00304	0f be 40 0c	 movsx	 eax, BYTE PTR [eax+12]
  00308	83 f8 01	 cmp	 eax, 1
  0030b	75 0f		 jne	 SHORT $LN31@Extract

; 586  :                         _Pnode->_Color = _Red;

  0030d	8b 45 f8	 mov	 eax, DWORD PTR __Pnode$[ebp]
  00310	c6 40 0c 00	 mov	 BYTE PTR [eax+12], 0

; 587  :                         _Fixnode       = _Fixnodeparent;

  00314	8b 45 f4	 mov	 eax, DWORD PTR __Fixnodeparent$[ebp]
  00317	89 45 f0	 mov	 DWORD PTR __Fixnode$[ebp], eax

; 588  :                     } else { // must rearrange right subtree

  0031a	eb 60		 jmp	 SHORT $LN30@Extract
$LN31@Extract:

; 589  :                         if (_Pnode->_Right->_Color == _Black) { // rotate red up from left sub-subtree

  0031c	8b 45 f8	 mov	 eax, DWORD PTR __Pnode$[ebp]
  0031f	8b 40 08	 mov	 eax, DWORD PTR [eax+8]
  00322	0f be 40 0c	 movsx	 eax, BYTE PTR [eax+12]
  00326	83 f8 01	 cmp	 eax, 1
  00329	75 24		 jne	 SHORT $LN33@Extract

; 590  :                             _Pnode->_Left->_Color = _Black;

  0032b	8b 45 f8	 mov	 eax, DWORD PTR __Pnode$[ebp]
  0032e	8b 00		 mov	 eax, DWORD PTR [eax]
  00330	c6 40 0c 01	 mov	 BYTE PTR [eax+12], 1

; 591  :                             _Pnode->_Color        = _Red;

  00334	8b 45 f8	 mov	 eax, DWORD PTR __Pnode$[ebp]
  00337	c6 40 0c 00	 mov	 BYTE PTR [eax+12], 0

; 592  :                             _Rrotate(_Pnode);

  0033b	ff 75 f8	 push	 DWORD PTR __Pnode$[ebp]
  0033e	8b 4d e8	 mov	 ecx, DWORD PTR _this$[ebp]
  00341	e8 00 00 00 00	 call	 ?_Rrotate@?$_Tree_val@U?$_Tree_simple_types@U?$pair@$$CBV?$basic_string@DU?$char_traits@D@std@@V?$allocator@D@2@@std@@M@std@@@std@@@std@@QAEXPAU?$_Tree_node@U?$pair@$$CBV?$basic_string@DU?$char_traits@D@std@@V?$allocator@D@2@@std@@M@std@@PAX@2@@Z ; std::_Tree_val<std::_Tree_simple_types<std::pair<std::basic_string<char,std::char_traits<char>,std::allocator<char> > const ,float> > >::_Rrotate

; 593  :                             _Pnode = _Fixnodeparent->_Right;

  00346	8b 45 f4	 mov	 eax, DWORD PTR __Fixnodeparent$[ebp]
  00349	8b 40 08	 mov	 eax, DWORD PTR [eax+8]
  0034c	89 45 f8	 mov	 DWORD PTR __Pnode$[ebp], eax
$LN33@Extract:

; 594  :                         }
; 595  : 
; 596  :                         _Pnode->_Color         = _Fixnodeparent->_Color;

  0034f	8b 45 f8	 mov	 eax, DWORD PTR __Pnode$[ebp]
  00352	8b 4d f4	 mov	 ecx, DWORD PTR __Fixnodeparent$[ebp]
  00355	8a 49 0c	 mov	 cl, BYTE PTR [ecx+12]
  00358	88 48 0c	 mov	 BYTE PTR [eax+12], cl

; 597  :                         _Fixnodeparent->_Color = _Black;

  0035b	8b 45 f4	 mov	 eax, DWORD PTR __Fixnodeparent$[ebp]
  0035e	c6 40 0c 01	 mov	 BYTE PTR [eax+12], 1

; 598  :                         _Pnode->_Right->_Color = _Black;

  00362	8b 45 f8	 mov	 eax, DWORD PTR __Pnode$[ebp]
  00365	8b 40 08	 mov	 eax, DWORD PTR [eax+8]
  00368	c6 40 0c 01	 mov	 BYTE PTR [eax+12], 1

; 599  :                         _Lrotate(_Fixnodeparent);

  0036c	ff 75 f4	 push	 DWORD PTR __Fixnodeparent$[ebp]
  0036f	8b 4d e8	 mov	 ecx, DWORD PTR _this$[ebp]
  00372	e8 00 00 00 00	 call	 ?_Lrotate@?$_Tree_val@U?$_Tree_simple_types@U?$pair@$$CBV?$basic_string@DU?$char_traits@D@std@@V?$allocator@D@2@@std@@M@std@@@std@@@std@@QAEXPAU?$_Tree_node@U?$pair@$$CBV?$basic_string@DU?$char_traits@D@std@@V?$allocator@D@2@@std@@M@std@@PAX@2@@Z ; std::_Tree_val<std::_Tree_simple_types<std::pair<std::basic_string<char,std::char_traits<char>,std::allocator<char> > const ,float> > >::_Lrotate

; 600  :                         break; // tree now recolored/rebalanced

  00377	e9 db 00 00 00	 jmp	 $LN3@Extract
$LN30@Extract:

; 601  :                     }
; 602  :                 } else { // fixup right subtree

  0037c	e9 d1 00 00 00	 jmp	 $LN27@Extract
$LN26@Extract:

; 603  :                     _Pnode = _Fixnodeparent->_Left;

  00381	8b 45 f4	 mov	 eax, DWORD PTR __Fixnodeparent$[ebp]
  00384	8b 00		 mov	 eax, DWORD PTR [eax]
  00386	89 45 f8	 mov	 DWORD PTR __Pnode$[ebp], eax

; 604  :                     if (_Pnode->_Color == _Red) { // rotate red up from left subtree

  00389	8b 45 f8	 mov	 eax, DWORD PTR __Pnode$[ebp]
  0038c	0f be 40 0c	 movsx	 eax, BYTE PTR [eax+12]
  00390	85 c0		 test	 eax, eax
  00392	75 21		 jne	 SHORT $LN34@Extract

; 605  :                         _Pnode->_Color         = _Black;

  00394	8b 45 f8	 mov	 eax, DWORD PTR __Pnode$[ebp]
  00397	c6 40 0c 01	 mov	 BYTE PTR [eax+12], 1

; 606  :                         _Fixnodeparent->_Color = _Red;

  0039b	8b 45 f4	 mov	 eax, DWORD PTR __Fixnodeparent$[ebp]
  0039e	c6 40 0c 00	 mov	 BYTE PTR [eax+12], 0

; 607  :                         _Rrotate(_Fixnodeparent);

  003a2	ff 75 f4	 push	 DWORD PTR __Fixnodeparent$[ebp]
  003a5	8b 4d e8	 mov	 ecx, DWORD PTR _this$[ebp]
  003a8	e8 00 00 00 00	 call	 ?_Rrotate@?$_Tree_val@U?$_Tree_simple_types@U?$pair@$$CBV?$basic_string@DU?$char_traits@D@std@@V?$allocator@D@2@@std@@M@std@@@std@@@std@@QAEXPAU?$_Tree_node@U?$pair@$$CBV?$basic_string@DU?$char_traits@D@std@@V?$allocator@D@2@@std@@M@std@@PAX@2@@Z ; std::_Tree_val<std::_Tree_simple_types<std::pair<std::basic_string<char,std::char_traits<char>,std::allocator<char> > const ,float> > >::_Rrotate

; 608  :                         _Pnode = _Fixnodeparent->_Left;

  003ad	8b 45 f4	 mov	 eax, DWORD PTR __Fixnodeparent$[ebp]
  003b0	8b 00		 mov	 eax, DWORD PTR [eax]
  003b2	89 45 f8	 mov	 DWORD PTR __Pnode$[ebp], eax
$LN34@Extract:

; 609  :                     }
; 610  : 
; 611  :                     if (_Pnode->_Isnil) {

  003b5	8b 45 f8	 mov	 eax, DWORD PTR __Pnode$[ebp]
  003b8	0f be 40 0d	 movsx	 eax, BYTE PTR [eax+13]
  003bc	85 c0		 test	 eax, eax
  003be	74 0b		 je	 SHORT $LN35@Extract

; 612  :                         _Fixnode = _Fixnodeparent; // shouldn't happen

  003c0	8b 45 f4	 mov	 eax, DWORD PTR __Fixnodeparent$[ebp]
  003c3	89 45 f0	 mov	 DWORD PTR __Fixnode$[ebp], eax

; 613  :                     } else if (_Pnode->_Right->_Color == _Black

  003c6	e9 87 00 00 00	 jmp	 $LN27@Extract
$LN35@Extract:

; 614  :                                && _Pnode->_Left->_Color == _Black) { // redden left subtree with black children

  003cb	8b 45 f8	 mov	 eax, DWORD PTR __Pnode$[ebp]
  003ce	8b 40 08	 mov	 eax, DWORD PTR [eax+8]
  003d1	0f be 40 0c	 movsx	 eax, BYTE PTR [eax+12]
  003d5	83 f8 01	 cmp	 eax, 1
  003d8	75 1d		 jne	 SHORT $LN37@Extract
  003da	8b 45 f8	 mov	 eax, DWORD PTR __Pnode$[ebp]
  003dd	8b 00		 mov	 eax, DWORD PTR [eax]
  003df	0f be 40 0c	 movsx	 eax, BYTE PTR [eax+12]
  003e3	83 f8 01	 cmp	 eax, 1
  003e6	75 0f		 jne	 SHORT $LN37@Extract

; 615  :                         _Pnode->_Color = _Red;

  003e8	8b 45 f8	 mov	 eax, DWORD PTR __Pnode$[ebp]
  003eb	c6 40 0c 00	 mov	 BYTE PTR [eax+12], 0

; 616  :                         _Fixnode       = _Fixnodeparent;

  003ef	8b 45 f4	 mov	 eax, DWORD PTR __Fixnodeparent$[ebp]
  003f2	89 45 f0	 mov	 DWORD PTR __Fixnode$[ebp], eax

; 617  :                     } else { // must rearrange left subtree

  003f5	eb 5b		 jmp	 SHORT $LN27@Extract
$LN37@Extract:

; 618  :                         if (_Pnode->_Left->_Color == _Black) { // rotate red up from right sub-subtree

  003f7	8b 45 f8	 mov	 eax, DWORD PTR __Pnode$[ebp]
  003fa	8b 00		 mov	 eax, DWORD PTR [eax]
  003fc	0f be 40 0c	 movsx	 eax, BYTE PTR [eax+12]
  00400	83 f8 01	 cmp	 eax, 1
  00403	75 24		 jne	 SHORT $LN39@Extract

; 619  :                             _Pnode->_Right->_Color = _Black;

  00405	8b 45 f8	 mov	 eax, DWORD PTR __Pnode$[ebp]
  00408	8b 40 08	 mov	 eax, DWORD PTR [eax+8]
  0040b	c6 40 0c 01	 mov	 BYTE PTR [eax+12], 1

; 620  :                             _Pnode->_Color         = _Red;

  0040f	8b 45 f8	 mov	 eax, DWORD PTR __Pnode$[ebp]
  00412	c6 40 0c 00	 mov	 BYTE PTR [eax+12], 0

; 621  :                             _Lrotate(_Pnode);

  00416	ff 75 f8	 push	 DWORD PTR __Pnode$[ebp]
  00419	8b 4d e8	 mov	 ecx, DWORD PTR _this$[ebp]
  0041c	e8 00 00 00 00	 call	 ?_Lrotate@?$_Tree_val@U?$_Tree_simple_types@U?$pair@$$CBV?$basic_string@DU?$char_traits@D@std@@V?$allocator@D@2@@std@@M@std@@@std@@@std@@QAEXPAU?$_Tree_node@U?$pair@$$CBV?$basic_string@DU?$char_traits@D@std@@V?$allocator@D@2@@std@@M@std@@PAX@2@@Z ; std::_Tree_val<std::_Tree_simple_types<std::pair<std::basic_string<char,std::char_traits<char>,std::allocator<char> > const ,float> > >::_Lrotate

; 622  :                             _Pnode = _Fixnodeparent->_Left;

  00421	8b 45 f4	 mov	 eax, DWORD PTR __Fixnodeparent$[ebp]
  00424	8b 00		 mov	 eax, DWORD PTR [eax]
  00426	89 45 f8	 mov	 DWORD PTR __Pnode$[ebp], eax
$LN39@Extract:

; 623  :                         }
; 624  : 
; 625  :                         _Pnode->_Color         = _Fixnodeparent->_Color;

  00429	8b 45 f8	 mov	 eax, DWORD PTR __Pnode$[ebp]
  0042c	8b 4d f4	 mov	 ecx, DWORD PTR __Fixnodeparent$[ebp]
  0042f	8a 49 0c	 mov	 cl, BYTE PTR [ecx+12]
  00432	88 48 0c	 mov	 BYTE PTR [eax+12], cl

; 626  :                         _Fixnodeparent->_Color = _Black;

  00435	8b 45 f4	 mov	 eax, DWORD PTR __Fixnodeparent$[ebp]
  00438	c6 40 0c 01	 mov	 BYTE PTR [eax+12], 1

; 627  :                         _Pnode->_Left->_Color  = _Black;

  0043c	8b 45 f8	 mov	 eax, DWORD PTR __Pnode$[ebp]
  0043f	8b 00		 mov	 eax, DWORD PTR [eax]
  00441	c6 40 0c 01	 mov	 BYTE PTR [eax+12], 1

; 628  :                         _Rrotate(_Fixnodeparent);

  00445	ff 75 f4	 push	 DWORD PTR __Fixnodeparent$[ebp]
  00448	8b 4d e8	 mov	 ecx, DWORD PTR _this$[ebp]
  0044b	e8 00 00 00 00	 call	 ?_Rrotate@?$_Tree_val@U?$_Tree_simple_types@U?$pair@$$CBV?$basic_string@DU?$char_traits@D@std@@V?$allocator@D@2@@std@@M@std@@@std@@@std@@QAEXPAU?$_Tree_node@U?$pair@$$CBV?$basic_string@DU?$char_traits@D@std@@V?$allocator@D@2@@std@@M@std@@PAX@2@@Z ; std::_Tree_val<std::_Tree_simple_types<std::pair<std::basic_string<char,std::char_traits<char>,std::allocator<char> > const ,float> > >::_Rrotate

; 629  :                         break; // tree now recolored/rebalanced

  00450	eb 05		 jmp	 SHORT $LN3@Extract
$LN27@Extract:

; 630  :                     }
; 631  :                 }
; 632  :             }

  00452	e9 15 fe ff ff	 jmp	 $LN2@Extract
$LN3@Extract:

; 633  : 
; 634  :             _Fixnode->_Color = _Black; // stopping node is black

  00457	8b 45 f0	 mov	 eax, DWORD PTR __Fixnode$[ebp]
  0045a	c6 40 0c 01	 mov	 BYTE PTR [eax+12], 1
$LN25@Extract:

; 635  :         }
; 636  : 
; 637  :         if (0 < _Mysize) {

  0045e	8b 45 e8	 mov	 eax, DWORD PTR _this$[ebp]
  00461	83 78 04 00	 cmp	 DWORD PTR [eax+4], 0
  00465	76 0d		 jbe	 SHORT $LN40@Extract

; 638  :             --_Mysize;

  00467	8b 45 e8	 mov	 eax, DWORD PTR _this$[ebp]
  0046a	8b 40 04	 mov	 eax, DWORD PTR [eax+4]
  0046d	48		 dec	 eax
  0046e	8b 4d e8	 mov	 ecx, DWORD PTR _this$[ebp]
  00471	89 41 04	 mov	 DWORD PTR [ecx+4], eax
$LN40@Extract:

; 639  :         }
; 640  : 
; 641  :         return _Erasednode;

  00474	8b 45 ec	 mov	 eax, DWORD PTR __Erasednode$[ebp]

; 642  :     }

  00477	c9		 leave
  00478	c2 04 00	 ret	 4
?_Extract@?$_Tree_val@U?$_Tree_simple_types@U?$pair@$$CBV?$basic_string@DU?$char_traits@D@std@@V?$allocator@D@2@@std@@M@std@@@std@@@std@@QAEPAU?$_Tree_node@U?$pair@$$CBV?$basic_string@DU?$char_traits@D@std@@V?$allocator@D@2@@std@@M@std@@PAX@2@V?$_Tree_unchecked_const_iterator@V?$_Tree_val@U?$_Tree_simple_types@U?$pair@$$CBV?$basic_string@DU?$char_traits@D@std@@V?$allocator@D@2@@std@@M@std@@@std@@@std@@U_Iterator_base0@2@@2@@Z ENDP ; std::_Tree_val<std::_Tree_simple_types<std::pair<std::basic_string<char,std::char_traits<char>,std::allocator<char> > const ,float> > >::_Extract
_TEXT	ENDS
; Function compile flags: /Odspy
; File C:\Program Files (x86)\Microsoft Visual Studio\2019\Community\VC\Tools\MSVC\14.28.29333\include\xtree
;	COMDAT ?_Rrotate@?$_Tree_val@U?$_Tree_simple_types@U?$pair@$$CBV?$basic_string@DU?$char_traits@D@std@@V?$allocator@D@2@@std@@M@std@@@std@@@std@@QAEXPAU?$_Tree_node@U?$pair@$$CBV?$basic_string@DU?$char_traits@D@std@@V?$allocator@D@2@@std@@M@std@@PAX@2@@Z
_TEXT	SEGMENT
_this$ = -8						; size = 4
__Pnode$ = -4						; size = 4
__Wherenode$ = 8					; size = 4
?_Rrotate@?$_Tree_val@U?$_Tree_simple_types@U?$pair@$$CBV?$basic_string@DU?$char_traits@D@std@@V?$allocator@D@2@@std@@M@std@@@std@@@std@@QAEXPAU?$_Tree_node@U?$pair@$$CBV?$basic_string@DU?$char_traits@D@std@@V?$allocator@D@2@@std@@M@std@@PAX@2@@Z PROC ; std::_Tree_val<std::_Tree_simple_types<std::pair<std::basic_string<char,std::char_traits<char>,std::allocator<char> > const ,float> > >::_Rrotate, COMDAT
; _this$ = ecx

; 480  :     void _Rrotate(_Nodeptr _Wherenode) noexcept { // promote left node to root of subtree

  00000	55		 push	 ebp
  00001	8b ec		 mov	 ebp, esp
  00003	51		 push	 ecx
  00004	51		 push	 ecx
  00005	89 4d f8	 mov	 DWORD PTR _this$[ebp], ecx

; 481  :         _Nodeptr _Pnode   = _Wherenode->_Left;

  00008	8b 45 08	 mov	 eax, DWORD PTR __Wherenode$[ebp]
  0000b	8b 00		 mov	 eax, DWORD PTR [eax]
  0000d	89 45 fc	 mov	 DWORD PTR __Pnode$[ebp], eax

; 482  :         _Wherenode->_Left = _Pnode->_Right;

  00010	8b 45 08	 mov	 eax, DWORD PTR __Wherenode$[ebp]
  00013	8b 4d fc	 mov	 ecx, DWORD PTR __Pnode$[ebp]
  00016	8b 49 08	 mov	 ecx, DWORD PTR [ecx+8]
  00019	89 08		 mov	 DWORD PTR [eax], ecx

; 483  : 
; 484  :         if (!_Pnode->_Right->_Isnil) {

  0001b	8b 45 fc	 mov	 eax, DWORD PTR __Pnode$[ebp]
  0001e	8b 40 08	 mov	 eax, DWORD PTR [eax+8]
  00021	0f be 40 0d	 movsx	 eax, BYTE PTR [eax+13]
  00025	85 c0		 test	 eax, eax
  00027	75 0c		 jne	 SHORT $LN2@Rrotate

; 485  :             _Pnode->_Right->_Parent = _Wherenode;

  00029	8b 45 fc	 mov	 eax, DWORD PTR __Pnode$[ebp]
  0002c	8b 40 08	 mov	 eax, DWORD PTR [eax+8]
  0002f	8b 4d 08	 mov	 ecx, DWORD PTR __Wherenode$[ebp]
  00032	89 48 04	 mov	 DWORD PTR [eax+4], ecx
$LN2@Rrotate:

; 486  :         }
; 487  : 
; 488  :         _Pnode->_Parent = _Wherenode->_Parent;

  00035	8b 45 fc	 mov	 eax, DWORD PTR __Pnode$[ebp]
  00038	8b 4d 08	 mov	 ecx, DWORD PTR __Wherenode$[ebp]
  0003b	8b 49 04	 mov	 ecx, DWORD PTR [ecx+4]
  0003e	89 48 04	 mov	 DWORD PTR [eax+4], ecx

; 489  : 
; 490  :         if (_Wherenode == _Myhead->_Parent) {

  00041	8b 45 f8	 mov	 eax, DWORD PTR _this$[ebp]
  00044	8b 00		 mov	 eax, DWORD PTR [eax]
  00046	8b 4d 08	 mov	 ecx, DWORD PTR __Wherenode$[ebp]
  00049	3b 48 04	 cmp	 ecx, DWORD PTR [eax+4]
  0004c	75 0d		 jne	 SHORT $LN3@Rrotate

; 491  :             _Myhead->_Parent = _Pnode;

  0004e	8b 45 f8	 mov	 eax, DWORD PTR _this$[ebp]
  00051	8b 00		 mov	 eax, DWORD PTR [eax]
  00053	8b 4d fc	 mov	 ecx, DWORD PTR __Pnode$[ebp]
  00056	89 48 04	 mov	 DWORD PTR [eax+4], ecx
  00059	eb 27		 jmp	 SHORT $LN4@Rrotate
$LN3@Rrotate:

; 492  :         } else if (_Wherenode == _Wherenode->_Parent->_Right) {

  0005b	8b 45 08	 mov	 eax, DWORD PTR __Wherenode$[ebp]
  0005e	8b 40 04	 mov	 eax, DWORD PTR [eax+4]
  00061	8b 4d 08	 mov	 ecx, DWORD PTR __Wherenode$[ebp]
  00064	3b 48 08	 cmp	 ecx, DWORD PTR [eax+8]
  00067	75 0e		 jne	 SHORT $LN5@Rrotate

; 493  :             _Wherenode->_Parent->_Right = _Pnode;

  00069	8b 45 08	 mov	 eax, DWORD PTR __Wherenode$[ebp]
  0006c	8b 40 04	 mov	 eax, DWORD PTR [eax+4]
  0006f	8b 4d fc	 mov	 ecx, DWORD PTR __Pnode$[ebp]
  00072	89 48 08	 mov	 DWORD PTR [eax+8], ecx

; 494  :         } else {

  00075	eb 0b		 jmp	 SHORT $LN4@Rrotate
$LN5@Rrotate:

; 495  :             _Wherenode->_Parent->_Left = _Pnode;

  00077	8b 45 08	 mov	 eax, DWORD PTR __Wherenode$[ebp]
  0007a	8b 40 04	 mov	 eax, DWORD PTR [eax+4]
  0007d	8b 4d fc	 mov	 ecx, DWORD PTR __Pnode$[ebp]
  00080	89 08		 mov	 DWORD PTR [eax], ecx
$LN4@Rrotate:

; 496  :         }
; 497  : 
; 498  :         _Pnode->_Right      = _Wherenode;

  00082	8b 45 fc	 mov	 eax, DWORD PTR __Pnode$[ebp]
  00085	8b 4d 08	 mov	 ecx, DWORD PTR __Wherenode$[ebp]
  00088	89 48 08	 mov	 DWORD PTR [eax+8], ecx

; 499  :         _Wherenode->_Parent = _Pnode;

  0008b	8b 45 08	 mov	 eax, DWORD PTR __Wherenode$[ebp]
  0008e	8b 4d fc	 mov	 ecx, DWORD PTR __Pnode$[ebp]
  00091	89 48 04	 mov	 DWORD PTR [eax+4], ecx

; 500  :     }

  00094	c9		 leave
  00095	c2 04 00	 ret	 4
?_Rrotate@?$_Tree_val@U?$_Tree_simple_types@U?$pair@$$CBV?$basic_string@DU?$char_traits@D@std@@V?$allocator@D@2@@std@@M@std@@@std@@@std@@QAEXPAU?$_Tree_node@U?$pair@$$CBV?$basic_string@DU?$char_traits@D@std@@V?$allocator@D@2@@std@@M@std@@PAX@2@@Z ENDP ; std::_Tree_val<std::_Tree_simple_types<std::pair<std::basic_string<char,std::char_traits<char>,std::allocator<char> > const ,float> > >::_Rrotate
_TEXT	ENDS
; Function compile flags: /Odspy
; File C:\Program Files (x86)\Microsoft Visual Studio\2019\Community\VC\Tools\MSVC\14.28.29333\include\xtree
;	COMDAT ?_Lrotate@?$_Tree_val@U?$_Tree_simple_types@U?$pair@$$CBV?$basic_string@DU?$char_traits@D@std@@V?$allocator@D@2@@std@@M@std@@@std@@@std@@QAEXPAU?$_Tree_node@U?$pair@$$CBV?$basic_string@DU?$char_traits@D@std@@V?$allocator@D@2@@std@@M@std@@PAX@2@@Z
_TEXT	SEGMENT
_this$ = -8						; size = 4
__Pnode$ = -4						; size = 4
__Wherenode$ = 8					; size = 4
?_Lrotate@?$_Tree_val@U?$_Tree_simple_types@U?$pair@$$CBV?$basic_string@DU?$char_traits@D@std@@V?$allocator@D@2@@std@@M@std@@@std@@@std@@QAEXPAU?$_Tree_node@U?$pair@$$CBV?$basic_string@DU?$char_traits@D@std@@V?$allocator@D@2@@std@@M@std@@PAX@2@@Z PROC ; std::_Tree_val<std::_Tree_simple_types<std::pair<std::basic_string<char,std::char_traits<char>,std::allocator<char> > const ,float> > >::_Lrotate, COMDAT
; _this$ = ecx

; 458  :     void _Lrotate(_Nodeptr _Wherenode) noexcept { // promote right node to root of subtree

  00000	55		 push	 ebp
  00001	8b ec		 mov	 ebp, esp
  00003	51		 push	 ecx
  00004	51		 push	 ecx
  00005	89 4d f8	 mov	 DWORD PTR _this$[ebp], ecx

; 459  :         _Nodeptr _Pnode    = _Wherenode->_Right;

  00008	8b 45 08	 mov	 eax, DWORD PTR __Wherenode$[ebp]
  0000b	8b 40 08	 mov	 eax, DWORD PTR [eax+8]
  0000e	89 45 fc	 mov	 DWORD PTR __Pnode$[ebp], eax

; 460  :         _Wherenode->_Right = _Pnode->_Left;

  00011	8b 45 08	 mov	 eax, DWORD PTR __Wherenode$[ebp]
  00014	8b 4d fc	 mov	 ecx, DWORD PTR __Pnode$[ebp]
  00017	8b 09		 mov	 ecx, DWORD PTR [ecx]
  00019	89 48 08	 mov	 DWORD PTR [eax+8], ecx

; 461  : 
; 462  :         if (!_Pnode->_Left->_Isnil) {

  0001c	8b 45 fc	 mov	 eax, DWORD PTR __Pnode$[ebp]
  0001f	8b 00		 mov	 eax, DWORD PTR [eax]
  00021	0f be 40 0d	 movsx	 eax, BYTE PTR [eax+13]
  00025	85 c0		 test	 eax, eax
  00027	75 0b		 jne	 SHORT $LN2@Lrotate

; 463  :             _Pnode->_Left->_Parent = _Wherenode;

  00029	8b 45 fc	 mov	 eax, DWORD PTR __Pnode$[ebp]
  0002c	8b 00		 mov	 eax, DWORD PTR [eax]
  0002e	8b 4d 08	 mov	 ecx, DWORD PTR __Wherenode$[ebp]
  00031	89 48 04	 mov	 DWORD PTR [eax+4], ecx
$LN2@Lrotate:

; 464  :         }
; 465  : 
; 466  :         _Pnode->_Parent = _Wherenode->_Parent;

  00034	8b 45 fc	 mov	 eax, DWORD PTR __Pnode$[ebp]
  00037	8b 4d 08	 mov	 ecx, DWORD PTR __Wherenode$[ebp]
  0003a	8b 49 04	 mov	 ecx, DWORD PTR [ecx+4]
  0003d	89 48 04	 mov	 DWORD PTR [eax+4], ecx

; 467  : 
; 468  :         if (_Wherenode == _Myhead->_Parent) {

  00040	8b 45 f8	 mov	 eax, DWORD PTR _this$[ebp]
  00043	8b 00		 mov	 eax, DWORD PTR [eax]
  00045	8b 4d 08	 mov	 ecx, DWORD PTR __Wherenode$[ebp]
  00048	3b 48 04	 cmp	 ecx, DWORD PTR [eax+4]
  0004b	75 0d		 jne	 SHORT $LN3@Lrotate

; 469  :             _Myhead->_Parent = _Pnode;

  0004d	8b 45 f8	 mov	 eax, DWORD PTR _this$[ebp]
  00050	8b 00		 mov	 eax, DWORD PTR [eax]
  00052	8b 4d fc	 mov	 ecx, DWORD PTR __Pnode$[ebp]
  00055	89 48 04	 mov	 DWORD PTR [eax+4], ecx
  00058	eb 26		 jmp	 SHORT $LN4@Lrotate
$LN3@Lrotate:

; 470  :         } else if (_Wherenode == _Wherenode->_Parent->_Left) {

  0005a	8b 45 08	 mov	 eax, DWORD PTR __Wherenode$[ebp]
  0005d	8b 40 04	 mov	 eax, DWORD PTR [eax+4]
  00060	8b 4d 08	 mov	 ecx, DWORD PTR __Wherenode$[ebp]
  00063	3b 08		 cmp	 ecx, DWORD PTR [eax]
  00065	75 0d		 jne	 SHORT $LN5@Lrotate

; 471  :             _Wherenode->_Parent->_Left = _Pnode;

  00067	8b 45 08	 mov	 eax, DWORD PTR __Wherenode$[ebp]
  0006a	8b 40 04	 mov	 eax, DWORD PTR [eax+4]
  0006d	8b 4d fc	 mov	 ecx, DWORD PTR __Pnode$[ebp]
  00070	89 08		 mov	 DWORD PTR [eax], ecx

; 472  :         } else {

  00072	eb 0c		 jmp	 SHORT $LN4@Lrotate
$LN5@Lrotate:

; 473  :             _Wherenode->_Parent->_Right = _Pnode;

  00074	8b 45 08	 mov	 eax, DWORD PTR __Wherenode$[ebp]
  00077	8b 40 04	 mov	 eax, DWORD PTR [eax+4]
  0007a	8b 4d fc	 mov	 ecx, DWORD PTR __Pnode$[ebp]
  0007d	89 48 08	 mov	 DWORD PTR [eax+8], ecx
$LN4@Lrotate:

; 474  :         }
; 475  : 
; 476  :         _Pnode->_Left       = _Wherenode;

  00080	8b 45 fc	 mov	 eax, DWORD PTR __Pnode$[ebp]
  00083	8b 4d 08	 mov	 ecx, DWORD PTR __Wherenode$[ebp]
  00086	89 08		 mov	 DWORD PTR [eax], ecx

; 477  :         _Wherenode->_Parent = _Pnode;

  00088	8b 45 08	 mov	 eax, DWORD PTR __Wherenode$[ebp]
  0008b	8b 4d fc	 mov	 ecx, DWORD PTR __Pnode$[ebp]
  0008e	89 48 04	 mov	 DWORD PTR [eax+4], ecx

; 478  :     }

  00091	c9		 leave
  00092	c2 04 00	 ret	 4
?_Lrotate@?$_Tree_val@U?$_Tree_simple_types@U?$pair@$$CBV?$basic_string@DU?$char_traits@D@std@@V?$allocator@D@2@@std@@M@std@@@std@@@std@@QAEXPAU?$_Tree_node@U?$pair@$$CBV?$basic_string@DU?$char_traits@D@std@@V?$allocator@D@2@@std@@M@std@@PAX@2@@Z ENDP ; std::_Tree_val<std::_Tree_simple_types<std::pair<std::basic_string<char,std::char_traits<char>,std::allocator<char> > const ,float> > >::_Lrotate
_TEXT	ENDS
; Function compile flags: /Odspy
; File C:\Program Files (x86)\Microsoft Visual Studio\2019\Community\VC\Tools\MSVC\14.28.29333\include\xtree
; File C:\Program Files (x86)\Microsoft Visual Studio\2019\Community\VC\Tools\MSVC\14.28.29333\include\xstddef
; File C:\Program Files (x86)\Microsoft Visual Studio\2019\Community\VC\Tools\MSVC\14.28.29333\include\xtree
; File C:\Program Files (x86)\Microsoft Visual Studio\2019\Community\VC\Tools\MSVC\14.28.29333\include\xmemory
; File C:\Program Files (x86)\Microsoft Visual Studio\2019\Community\VC\Tools\MSVC\14.28.29333\include\xtree
;	COMDAT ?_Alloc_sentinel_and_proxy@?$_Tree@V?$_Tmap_traits@V?$basic_string@DU?$char_traits@D@std@@V?$allocator@D@2@@std@@MU?$less@V?$basic_string@DU?$char_traits@D@std@@V?$allocator@D@2@@std@@@2@V?$allocator@U?$pair@$$CBV?$basic_string@DU?$char_traits@D@std@@V?$allocator@D@2@@std@@M@std@@@2@$0A@@std@@@std@@IAEXXZ
_TEXT	SEGMENT
__Alproxy$ = -28					; size = 4
__Scary$ = -24						; size = 4
$T1 = -20						; size = 4
$T2 = -16						; size = 4
$T3 = -12						; size = 4
_this$ = -8						; size = 4
_$S8$ = -1						; size = 1
?_Alloc_sentinel_and_proxy@?$_Tree@V?$_Tmap_traits@V?$basic_string@DU?$char_traits@D@std@@V?$allocator@D@2@@std@@MU?$less@V?$basic_string@DU?$char_traits@D@std@@V?$allocator@D@2@@std@@@2@V?$allocator@U?$pair@$$CBV?$basic_string@DU?$char_traits@D@std@@V?$allocator@D@2@@std@@M@std@@@2@$0A@@std@@@std@@IAEXXZ PROC ; std::_Tree<std::_Tmap_traits<std::basic_string<char,std::char_traits<char>,std::allocator<char> >,float,std::less<std::basic_string<char,std::char_traits<char>,std::allocator<char> > >,std::allocator<std::pair<std::basic_string<char,std::char_traits<char>,std::allocator<char> > const ,float> >,0> >::_Alloc_sentinel_and_proxy, COMDAT
; _this$ = ecx

; 2017 :     void _Alloc_sentinel_and_proxy() {

  00000	55		 push	 ebp
  00001	8b ec		 mov	 ebp, esp
  00003	83 ec 1c	 sub	 esp, 28			; 0000001cH
  00006	89 4d f8	 mov	 DWORD PTR _this$[ebp], ecx

; 2047 :         return _STD addressof(_Mypair._Myval2._Myval2);

  00009	8b 45 f8	 mov	 eax, DWORD PTR _this$[ebp]
; File C:\Program Files (x86)\Microsoft Visual Studio\2019\Community\VC\Tools\MSVC\14.28.29333\include\xstddef

; 275  :     return __builtin_addressof(_Val);

  0000c	89 45 f4	 mov	 DWORD PTR $T3[ebp], eax
; File C:\Program Files (x86)\Microsoft Visual Studio\2019\Community\VC\Tools\MSVC\14.28.29333\include\xtree

; 2047 :         return _STD addressof(_Mypair._Myval2._Myval2);

  0000f	8b 45 f4	 mov	 eax, DWORD PTR $T3[ebp]
  00012	89 45 e8	 mov	 DWORD PTR __Scary$[ebp], eax

; 2018 :         const auto _Scary = _Get_scary();
; 2019 :         auto&& _Alproxy   = _GET_PROXY_ALLOCATOR(_Alnode, _Getal());

  00015	8d 45 ff	 lea	 eax, DWORD PTR _$S8$[ebp]
  00018	89 45 e4	 mov	 DWORD PTR __Alproxy$[ebp], eax

; 2039 :         return _Mypair._Myval2._Get_first();

  0001b	8b 45 f8	 mov	 eax, DWORD PTR _this$[ebp]
; File C:\Program Files (x86)\Microsoft Visual Studio\2019\Community\VC\Tools\MSVC\14.28.29333\include\xmemory

; 1347 :         return *this;

  0001e	89 45 f0	 mov	 DWORD PTR $T2[ebp], eax
; File C:\Program Files (x86)\Microsoft Visual Studio\2019\Community\VC\Tools\MSVC\14.28.29333\include\xtree

; 2039 :         return _Mypair._Myval2._Get_first();

  00021	8b 45 f0	 mov	 eax, DWORD PTR $T2[ebp]
  00024	89 45 ec	 mov	 DWORD PTR $T1[ebp], eax

; 2020 :         _Container_proxy_ptr<_Alnode> _Proxy(_Alproxy, *_Scary);
; 2021 :         _Scary->_Myhead = _Node::_Buyheadnode(_Getal());

  00027	ff 75 ec	 push	 DWORD PTR $T1[ebp]
  0002a	e8 00 00 00 00	 call	 ??$_Buyheadnode@V?$allocator@U?$_Tree_node@U?$pair@$$CBV?$basic_string@DU?$char_traits@D@std@@V?$allocator@D@2@@std@@M@std@@PAX@std@@@std@@@?$_Tree_node@U?$pair@$$CBV?$basic_string@DU?$char_traits@D@std@@V?$allocator@D@2@@std@@M@std@@PAX@std@@SAPAU01@AAV?$allocator@U?$_Tree_node@U?$pair@$$CBV?$basic_string@DU?$char_traits@D@std@@V?$allocator@D@2@@std@@M@std@@PAX@std@@@1@@Z ; std::_Tree_node<std::pair<std::basic_string<char,std::char_traits<char>,std::allocator<char> > const ,float>,void *>::_Buyheadnode<std::allocator<std::_Tree_node<std::pair<std::basic_string<char,std::char_traits<char>,std::allocator<char> > const ,float>,void *> > >
  0002f	59		 pop	 ecx
  00030	8b 4d e8	 mov	 ecx, DWORD PTR __Scary$[ebp]
  00033	89 01		 mov	 DWORD PTR [ecx], eax

; 2022 :         _Proxy._Release();
; 2023 :     }

  00035	c9		 leave
  00036	c3		 ret	 0
?_Alloc_sentinel_and_proxy@?$_Tree@V?$_Tmap_traits@V?$basic_string@DU?$char_traits@D@std@@V?$allocator@D@2@@std@@MU?$less@V?$basic_string@DU?$char_traits@D@std@@V?$allocator@D@2@@std@@@2@V?$allocator@U?$pair@$$CBV?$basic_string@DU?$char_traits@D@std@@V?$allocator@D@2@@std@@M@std@@@2@$0A@@std@@@std@@IAEXXZ ENDP ; std::_Tree<std::_Tmap_traits<std::basic_string<char,std::char_traits<char>,std::allocator<char> >,float,std::less<std::basic_string<char,std::char_traits<char>,std::allocator<char> > >,std::allocator<std::pair<std::basic_string<char,std::char_traits<char>,std::allocator<char> > const ,float> >,0> >::_Alloc_sentinel_and_proxy
_TEXT	ENDS
; Function compile flags: /Odspy
; File C:\Program Files (x86)\Microsoft Visual Studio\2019\Community\VC\Tools\MSVC\14.28.29333\include\xtree
; File C:\Program Files (x86)\Microsoft Visual Studio\2019\Community\VC\Tools\MSVC\14.28.29333\include\xstddef
; File C:\Program Files (x86)\Microsoft Visual Studio\2019\Community\VC\Tools\MSVC\14.28.29333\include\xtree
;	COMDAT ?_Check_grow_by_1@?$_Tree@V?$_Tmap_traits@V?$basic_string@DU?$char_traits@D@std@@V?$allocator@D@2@@std@@MU?$less@V?$basic_string@DU?$char_traits@D@std@@V?$allocator@D@2@@std@@@2@V?$allocator@U?$pair@$$CBV?$basic_string@DU?$char_traits@D@std@@V?$allocator@D@2@@std@@M@std@@@2@$0A@@std@@@std@@IAEXXZ
_TEXT	SEGMENT
$T1 = -12						; size = 4
$T2 = -8						; size = 4
_this$ = -4						; size = 4
?_Check_grow_by_1@?$_Tree@V?$_Tmap_traits@V?$basic_string@DU?$char_traits@D@std@@V?$allocator@D@2@@std@@MU?$less@V?$basic_string@DU?$char_traits@D@std@@V?$allocator@D@2@@std@@@2@V?$allocator@U?$pair@$$CBV?$basic_string@DU?$char_traits@D@std@@V?$allocator@D@2@@std@@M@std@@@2@$0A@@std@@@std@@IAEXXZ PROC ; std::_Tree<std::_Tmap_traits<std::basic_string<char,std::char_traits<char>,std::allocator<char> >,float,std::less<std::basic_string<char,std::char_traits<char>,std::allocator<char> > >,std::allocator<std::pair<std::basic_string<char,std::char_traits<char>,std::allocator<char> > const ,float> >,0> >::_Check_grow_by_1, COMDAT
; _this$ = ecx

; 1718 :     void _Check_grow_by_1() {

  00000	55		 push	 ebp
  00001	8b ec		 mov	 ebp, esp
  00003	83 ec 0c	 sub	 esp, 12			; 0000000cH
  00006	89 4d fc	 mov	 DWORD PTR _this$[ebp], ecx

; 2047 :         return _STD addressof(_Mypair._Myval2._Myval2);

  00009	8b 45 fc	 mov	 eax, DWORD PTR _this$[ebp]
; File C:\Program Files (x86)\Microsoft Visual Studio\2019\Community\VC\Tools\MSVC\14.28.29333\include\xstddef

; 275  :     return __builtin_addressof(_Val);

  0000c	89 45 f8	 mov	 DWORD PTR $T2[ebp], eax
; File C:\Program Files (x86)\Microsoft Visual Studio\2019\Community\VC\Tools\MSVC\14.28.29333\include\xtree

; 2047 :         return _STD addressof(_Mypair._Myval2._Myval2);

  0000f	8b 45 f8	 mov	 eax, DWORD PTR $T2[ebp]
  00012	89 45 f4	 mov	 DWORD PTR $T1[ebp], eax

; 1719 :         if (max_size() == _Get_scary()->_Mysize) {

  00015	8b 4d fc	 mov	 ecx, DWORD PTR _this$[ebp]
  00018	e8 00 00 00 00	 call	 ?max_size@?$_Tree@V?$_Tmap_traits@V?$basic_string@DU?$char_traits@D@std@@V?$allocator@D@2@@std@@MU?$less@V?$basic_string@DU?$char_traits@D@std@@V?$allocator@D@2@@std@@@2@V?$allocator@U?$pair@$$CBV?$basic_string@DU?$char_traits@D@std@@V?$allocator@D@2@@std@@M@std@@@2@$0A@@std@@@std@@QBEIXZ ; std::_Tree<std::_Tmap_traits<std::basic_string<char,std::char_traits<char>,std::allocator<char> >,float,std::less<std::basic_string<char,std::char_traits<char>,std::allocator<char> > >,std::allocator<std::pair<std::basic_string<char,std::char_traits<char>,std::allocator<char> > const ,float> >,0> >::max_size
  0001d	8b 4d f4	 mov	 ecx, DWORD PTR $T1[ebp]
  00020	3b 41 04	 cmp	 eax, DWORD PTR [ecx+4]
  00023	75 05		 jne	 SHORT $LN3@Check_grow

; 1720 :             _Throw_tree_length_error();

  00025	e8 00 00 00 00	 call	 ?_Throw_tree_length_error@std@@YAXXZ ; std::_Throw_tree_length_error
$LN3@Check_grow:

; 1721 :         }
; 1722 :     }

  0002a	c9		 leave
  0002b	c3		 ret	 0
?_Check_grow_by_1@?$_Tree@V?$_Tmap_traits@V?$basic_string@DU?$char_traits@D@std@@V?$allocator@D@2@@std@@MU?$less@V?$basic_string@DU?$char_traits@D@std@@V?$allocator@D@2@@std@@@2@V?$allocator@U?$pair@$$CBV?$basic_string@DU?$char_traits@D@std@@V?$allocator@D@2@@std@@M@std@@@2@$0A@@std@@@std@@IAEXXZ ENDP ; std::_Tree<std::_Tmap_traits<std::basic_string<char,std::char_traits<char>,std::allocator<char> >,float,std::less<std::basic_string<char,std::char_traits<char>,std::allocator<char> > >,std::allocator<std::pair<std::basic_string<char,std::char_traits<char>,std::allocator<char> > const ,float> >,0> >::_Check_grow_by_1
_TEXT	ENDS
; Function compile flags: /Odspy
; File C:\Program Files (x86)\Microsoft Visual Studio\2019\Community\VC\Tools\MSVC\14.28.29333\include\xtree
; File C:\Program Files (x86)\Microsoft Visual Studio\2019\Community\VC\Tools\MSVC\14.28.29333\include\xstddef
; File C:\Program Files (x86)\Microsoft Visual Studio\2019\Community\VC\Tools\MSVC\14.28.29333\include\xtree
;	COMDAT ?find@?$_Tree@V?$_Tmap_traits@V?$basic_string@DU?$char_traits@D@std@@V?$allocator@D@2@@std@@MU?$less@V?$basic_string@DU?$char_traits@D@std@@V?$allocator@D@2@@std@@@2@V?$allocator@U?$pair@$$CBV?$basic_string@DU?$char_traits@D@std@@V?$allocator@D@2@@std@@M@std@@@2@$0A@@std@@@std@@QAE?AV?$_Tree_iterator@V?$_Tree_val@U?$_Tree_simple_types@U?$pair@$$CBV?$basic_string@DU?$char_traits@D@std@@V?$allocator@D@2@@std@@M@std@@@std@@@std@@@2@ABV?$basic_string@DU?$char_traits@D@std@@V?$allocator@D@2@@2@@Z
_TEXT	SEGMENT
$T1 = -16						; size = 4
___param0$ = -12					; size = 4
$T2 = -8						; size = 4
_this$ = -4						; size = 4
___$ReturnUdt$ = 8					; size = 4
__Keyval$ = 12						; size = 4
?find@?$_Tree@V?$_Tmap_traits@V?$basic_string@DU?$char_traits@D@std@@V?$allocator@D@2@@std@@MU?$less@V?$basic_string@DU?$char_traits@D@std@@V?$allocator@D@2@@std@@@2@V?$allocator@U?$pair@$$CBV?$basic_string@DU?$char_traits@D@std@@V?$allocator@D@2@@std@@M@std@@@2@$0A@@std@@@std@@QAE?AV?$_Tree_iterator@V?$_Tree_val@U?$_Tree_simple_types@U?$pair@$$CBV?$basic_string@DU?$char_traits@D@std@@V?$allocator@D@2@@std@@M@std@@@std@@@std@@@2@ABV?$basic_string@DU?$char_traits@D@std@@V?$allocator@D@2@@2@@Z PROC ; std::_Tree<std::_Tmap_traits<std::basic_string<char,std::char_traits<char>,std::allocator<char> >,float,std::less<std::basic_string<char,std::char_traits<char>,std::allocator<char> > >,std::allocator<std::pair<std::basic_string<char,std::char_traits<char>,std::allocator<char> > const ,float> >,0> >::find, COMDAT
; _this$ = ecx

; 1467 :     _NODISCARD iterator find(const key_type& _Keyval) {

  00000	55		 push	 ebp
  00001	8b ec		 mov	 ebp, esp
  00003	83 ec 10	 sub	 esp, 16			; 00000010H
  00006	89 4d fc	 mov	 DWORD PTR _this$[ebp], ecx

; 2047 :         return _STD addressof(_Mypair._Myval2._Myval2);

  00009	8b 45 fc	 mov	 eax, DWORD PTR _this$[ebp]
; File C:\Program Files (x86)\Microsoft Visual Studio\2019\Community\VC\Tools\MSVC\14.28.29333\include\xstddef

; 275  :     return __builtin_addressof(_Val);

  0000c	89 45 f8	 mov	 DWORD PTR $T2[ebp], eax
; File C:\Program Files (x86)\Microsoft Visual Studio\2019\Community\VC\Tools\MSVC\14.28.29333\include\xtree

; 2047 :         return _STD addressof(_Mypair._Myval2._Myval2);

  0000f	8b 45 f8	 mov	 eax, DWORD PTR $T2[ebp]
  00012	89 45 f0	 mov	 DWORD PTR $T1[ebp], eax

; 1468 :         return iterator(_Find(_Keyval), _Get_scary());

  00015	ff 75 0c	 push	 DWORD PTR __Keyval$[ebp]
  00018	8b 4d fc	 mov	 ecx, DWORD PTR _this$[ebp]
  0001b	e8 00 00 00 00	 call	 ??$_Find@V?$basic_string@DU?$char_traits@D@std@@V?$allocator@D@2@@std@@@?$_Tree@V?$_Tmap_traits@V?$basic_string@DU?$char_traits@D@std@@V?$allocator@D@2@@std@@MU?$less@V?$basic_string@DU?$char_traits@D@std@@V?$allocator@D@2@@std@@@2@V?$allocator@U?$pair@$$CBV?$basic_string@DU?$char_traits@D@std@@V?$allocator@D@2@@std@@M@std@@@2@$0A@@std@@@std@@ABEPAU?$_Tree_node@U?$pair@$$CBV?$basic_string@DU?$char_traits@D@std@@V?$allocator@D@2@@std@@M@std@@PAX@1@ABV?$basic_string@DU?$char_traits@D@std@@V?$allocator@D@2@@1@@Z ; std::_Tree<std::_Tmap_traits<std::basic_string<char,std::char_traits<char>,std::allocator<char> >,float,std::less<std::basic_string<char,std::char_traits<char>,std::allocator<char> > >,std::allocator<std::pair<std::basic_string<char,std::char_traits<char>,std::allocator<char> > const ,float> >,0> >::_Find<std::basic_string<char,std::char_traits<char>,std::allocator<char> > >
  00020	89 45 f4	 mov	 DWORD PTR ___param0$[ebp], eax

; 39   :     _Tree_unchecked_const_iterator(_Nodeptr _Pnode, const _Mytree* _Plist) noexcept : _Ptr(_Pnode) {

  00023	8b 45 08	 mov	 eax, DWORD PTR ___$ReturnUdt$[ebp]
  00026	8b 4d f4	 mov	 ecx, DWORD PTR ___param0$[ebp]
  00029	89 08		 mov	 DWORD PTR [eax], ecx

; 1468 :         return iterator(_Find(_Keyval), _Get_scary());

  0002b	8b 45 08	 mov	 eax, DWORD PTR ___$ReturnUdt$[ebp]

; 1469 :     }

  0002e	c9		 leave
  0002f	c2 08 00	 ret	 8
?find@?$_Tree@V?$_Tmap_traits@V?$basic_string@DU?$char_traits@D@std@@V?$allocator@D@2@@std@@MU?$less@V?$basic_string@DU?$char_traits@D@std@@V?$allocator@D@2@@std@@@2@V?$allocator@U?$pair@$$CBV?$basic_string@DU?$char_traits@D@std@@V?$allocator@D@2@@std@@M@std@@@2@$0A@@std@@@std@@QAE?AV?$_Tree_iterator@V?$_Tree_val@U?$_Tree_simple_types@U?$pair@$$CBV?$basic_string@DU?$char_traits@D@std@@V?$allocator@D@2@@std@@M@std@@@std@@@std@@@2@ABV?$basic_string@DU?$char_traits@D@std@@V?$allocator@D@2@@2@@Z ENDP ; std::_Tree<std::_Tmap_traits<std::basic_string<char,std::char_traits<char>,std::allocator<char> >,float,std::less<std::basic_string<char,std::char_traits<char>,std::allocator<char> > >,std::allocator<std::pair<std::basic_string<char,std::char_traits<char>,std::allocator<char> > const ,float> >,0> >::find
_TEXT	ENDS
; Function compile flags: /Odspy
; File C:\Program Files (x86)\Microsoft Visual Studio\2019\Community\VC\Tools\MSVC\14.28.29333\include\xtree
; File C:\Program Files (x86)\Microsoft Visual Studio\2019\Community\VC\Tools\MSVC\14.28.29333\include\xstddef
; File C:\Program Files (x86)\Microsoft Visual Studio\2019\Community\VC\Tools\MSVC\14.28.29333\include\xtree
; File C:\Program Files (x86)\Microsoft Visual Studio\2019\Community\VC\Tools\MSVC\14.28.29333\include\xmemory
; File C:\Program Files (x86)\Microsoft Visual Studio\2019\Community\VC\Tools\MSVC\14.28.29333\include\xtree
;	COMDAT ?clear@?$_Tree@V?$_Tmap_traits@V?$basic_string@DU?$char_traits@D@std@@V?$allocator@D@2@@std@@MU?$less@V?$basic_string@DU?$char_traits@D@std@@V?$allocator@D@2@@std@@@2@V?$allocator@U?$pair@$$CBV?$basic_string@DU?$char_traits@D@std@@V?$allocator@D@2@@std@@M@std@@@2@$0A@@std@@@std@@QAEXXZ
_TEXT	SEGMENT
$T1 = -24						; size = 4
$T2 = -20						; size = 4
$T3 = -16						; size = 4
_this$ = -12						; size = 4
__Scary$ = -8						; size = 4
__Head$ = -4						; size = 4
?clear@?$_Tree@V?$_Tmap_traits@V?$basic_string@DU?$char_traits@D@std@@V?$allocator@D@2@@std@@MU?$less@V?$basic_string@DU?$char_traits@D@std@@V?$allocator@D@2@@std@@@2@V?$allocator@U?$pair@$$CBV?$basic_string@DU?$char_traits@D@std@@V?$allocator@D@2@@std@@M@std@@@2@$0A@@std@@@std@@QAEXXZ PROC ; std::_Tree<std::_Tmap_traits<std::basic_string<char,std::char_traits<char>,std::allocator<char> >,float,std::less<std::basic_string<char,std::char_traits<char>,std::allocator<char> > >,std::allocator<std::pair<std::basic_string<char,std::char_traits<char>,std::allocator<char> > const ,float> >,0> >::clear, COMDAT
; _this$ = ecx

; 1444 :     void clear() noexcept {

  00000	55		 push	 ebp
  00001	8b ec		 mov	 ebp, esp
  00003	83 ec 18	 sub	 esp, 24			; 00000018H
  00006	89 4d f4	 mov	 DWORD PTR _this$[ebp], ecx

; 2047 :         return _STD addressof(_Mypair._Myval2._Myval2);

  00009	8b 45 f4	 mov	 eax, DWORD PTR _this$[ebp]
; File C:\Program Files (x86)\Microsoft Visual Studio\2019\Community\VC\Tools\MSVC\14.28.29333\include\xstddef

; 275  :     return __builtin_addressof(_Val);

  0000c	89 45 f0	 mov	 DWORD PTR $T3[ebp], eax
; File C:\Program Files (x86)\Microsoft Visual Studio\2019\Community\VC\Tools\MSVC\14.28.29333\include\xtree

; 2047 :         return _STD addressof(_Mypair._Myval2._Myval2);

  0000f	8b 45 f0	 mov	 eax, DWORD PTR $T3[ebp]
  00012	89 45 f8	 mov	 DWORD PTR __Scary$[ebp], eax

; 1445 :         const auto _Scary = _Get_scary();
; 1446 :         _Scary->_Orphan_ptr(nullptr);
; 1447 :         auto _Head = _Scary->_Myhead;

  00015	8b 45 f8	 mov	 eax, DWORD PTR __Scary$[ebp]
  00018	8b 00		 mov	 eax, DWORD PTR [eax]
  0001a	89 45 fc	 mov	 DWORD PTR __Head$[ebp], eax

; 2039 :         return _Mypair._Myval2._Get_first();

  0001d	8b 45 f4	 mov	 eax, DWORD PTR _this$[ebp]
; File C:\Program Files (x86)\Microsoft Visual Studio\2019\Community\VC\Tools\MSVC\14.28.29333\include\xmemory

; 1347 :         return *this;

  00020	89 45 ec	 mov	 DWORD PTR $T2[ebp], eax
; File C:\Program Files (x86)\Microsoft Visual Studio\2019\Community\VC\Tools\MSVC\14.28.29333\include\xtree

; 2039 :         return _Mypair._Myval2._Get_first();

  00023	8b 45 ec	 mov	 eax, DWORD PTR $T2[ebp]
  00026	89 45 e8	 mov	 DWORD PTR $T1[ebp], eax

; 1448 :         _Scary->_Erase_tree(_Getal(), _Head->_Parent);

  00029	8b 45 fc	 mov	 eax, DWORD PTR __Head$[ebp]
  0002c	ff 70 04	 push	 DWORD PTR [eax+4]
  0002f	ff 75 e8	 push	 DWORD PTR $T1[ebp]
  00032	8b 4d f8	 mov	 ecx, DWORD PTR __Scary$[ebp]
  00035	e8 00 00 00 00	 call	 ??$_Erase_tree@V?$allocator@U?$_Tree_node@U?$pair@$$CBV?$basic_string@DU?$char_traits@D@std@@V?$allocator@D@2@@std@@M@std@@PAX@std@@@std@@@?$_Tree_val@U?$_Tree_simple_types@U?$pair@$$CBV?$basic_string@DU?$char_traits@D@std@@V?$allocator@D@2@@std@@M@std@@@std@@@std@@QAEXAAV?$allocator@U?$_Tree_node@U?$pair@$$CBV?$basic_string@DU?$char_traits@D@std@@V?$allocator@D@2@@std@@M@std@@PAX@std@@@1@PAU?$_Tree_node@U?$pair@$$CBV?$basic_string@DU?$char_traits@D@std@@V?$allocator@D@2@@std@@M@std@@PAX@1@@Z ; std::_Tree_val<std::_Tree_simple_types<std::pair<std::basic_string<char,std::char_traits<char>,std::allocator<char> > const ,float> > >::_Erase_tree<std::allocator<std::_Tree_node<std::pair<std::basic_string<char,std::char_traits<char>,std::allocator<char> > const ,float>,void *> > >

; 1449 :         _Head->_Parent  = _Head;

  0003a	8b 45 fc	 mov	 eax, DWORD PTR __Head$[ebp]
  0003d	8b 4d fc	 mov	 ecx, DWORD PTR __Head$[ebp]
  00040	89 48 04	 mov	 DWORD PTR [eax+4], ecx

; 1450 :         _Head->_Left    = _Head;

  00043	8b 45 fc	 mov	 eax, DWORD PTR __Head$[ebp]
  00046	8b 4d fc	 mov	 ecx, DWORD PTR __Head$[ebp]
  00049	89 08		 mov	 DWORD PTR [eax], ecx

; 1451 :         _Head->_Right   = _Head;

  0004b	8b 45 fc	 mov	 eax, DWORD PTR __Head$[ebp]
  0004e	8b 4d fc	 mov	 ecx, DWORD PTR __Head$[ebp]
  00051	89 48 08	 mov	 DWORD PTR [eax+8], ecx

; 1452 :         _Scary->_Mysize = 0;

  00054	8b 45 f8	 mov	 eax, DWORD PTR __Scary$[ebp]
  00057	83 60 04 00	 and	 DWORD PTR [eax+4], 0

; 1453 :     }

  0005b	c9		 leave
  0005c	c3		 ret	 0
?clear@?$_Tree@V?$_Tmap_traits@V?$basic_string@DU?$char_traits@D@std@@V?$allocator@D@2@@std@@MU?$less@V?$basic_string@DU?$char_traits@D@std@@V?$allocator@D@2@@std@@@2@V?$allocator@U?$pair@$$CBV?$basic_string@DU?$char_traits@D@std@@V?$allocator@D@2@@std@@M@std@@@2@$0A@@std@@@std@@QAEXXZ ENDP ; std::_Tree<std::_Tmap_traits<std::basic_string<char,std::char_traits<char>,std::allocator<char> >,float,std::less<std::basic_string<char,std::char_traits<char>,std::allocator<char> > >,std::allocator<std::pair<std::basic_string<char,std::char_traits<char>,std::allocator<char> > const ,float> >,0> >::clear
_TEXT	ENDS
; Function compile flags: /Odspy
; File C:\Program Files (x86)\Microsoft Visual Studio\2019\Community\VC\Tools\MSVC\14.28.29333\include\xtree
;	COMDAT ?erase@?$_Tree@V?$_Tmap_traits@V?$basic_string@DU?$char_traits@D@std@@V?$allocator@D@2@@std@@MU?$less@V?$basic_string@DU?$char_traits@D@std@@V?$allocator@D@2@@std@@@2@V?$allocator@U?$pair@$$CBV?$basic_string@DU?$char_traits@D@std@@V?$allocator@D@2@@std@@M@std@@@2@$0A@@std@@@std@@QAEIABV?$basic_string@DU?$char_traits@D@std@@V?$allocator@D@2@@2@@Z
_TEXT	SEGMENT
__Where$ = -32						; size = 8
__Num$ = -24						; size = 4
__Pnode$ = -20						; size = 4
__Pnode$ = -16						; size = 4
_this$ = -12						; size = 4
__First$ = -8						; size = 4
__Last$ = -4						; size = 4
__Keyval$ = 8						; size = 4
?erase@?$_Tree@V?$_Tmap_traits@V?$basic_string@DU?$char_traits@D@std@@V?$allocator@D@2@@std@@MU?$less@V?$basic_string@DU?$char_traits@D@std@@V?$allocator@D@2@@std@@@2@V?$allocator@U?$pair@$$CBV?$basic_string@DU?$char_traits@D@std@@V?$allocator@D@2@@std@@M@std@@@2@$0A@@std@@@std@@QAEIABV?$basic_string@DU?$char_traits@D@std@@V?$allocator@D@2@@2@@Z PROC ; std::_Tree<std::_Tmap_traits<std::basic_string<char,std::char_traits<char>,std::allocator<char> >,float,std::less<std::basic_string<char,std::char_traits<char>,std::allocator<char> > >,std::allocator<std::pair<std::basic_string<char,std::char_traits<char>,std::allocator<char> > const ,float> >,0> >::erase, COMDAT
; _this$ = ecx

; 1435 :     size_type erase(const key_type& _Keyval) noexcept(noexcept(_Eqrange(_Keyval))) /* strengthened */ {

  00000	55		 push	 ebp
  00001	8b ec		 mov	 ebp, esp
  00003	83 ec 20	 sub	 esp, 32			; 00000020H
  00006	89 4d f4	 mov	 DWORD PTR _this$[ebp], ecx

; 1436 :         const auto _Where = _Eqrange(_Keyval);

  00009	ff 75 08	 push	 DWORD PTR __Keyval$[ebp]
  0000c	8d 45 e0	 lea	 eax, DWORD PTR __Where$[ebp]
  0000f	50		 push	 eax
  00010	8b 4d f4	 mov	 ecx, DWORD PTR _this$[ebp]
  00013	e8 00 00 00 00	 call	 ??$_Eqrange@V?$basic_string@DU?$char_traits@D@std@@V?$allocator@D@2@@std@@@?$_Tree@V?$_Tmap_traits@V?$basic_string@DU?$char_traits@D@std@@V?$allocator@D@2@@std@@MU?$less@V?$basic_string@DU?$char_traits@D@std@@V?$allocator@D@2@@std@@@2@V?$allocator@U?$pair@$$CBV?$basic_string@DU?$char_traits@D@std@@V?$allocator@D@2@@std@@M@std@@@2@$0A@@std@@@std@@IBE?AU?$pair@PAU?$_Tree_node@U?$pair@$$CBV?$basic_string@DU?$char_traits@D@std@@V?$allocator@D@2@@std@@M@std@@PAX@std@@PAU12@@1@ABV?$basic_string@DU?$char_traits@D@std@@V?$allocator@D@2@@1@@Z ; std::_Tree<std::_Tmap_traits<std::basic_string<char,std::char_traits<char>,std::allocator<char> >,float,std::less<std::basic_string<char,std::char_traits<char>,std::allocator<char> > >,std::allocator<std::pair<std::basic_string<char,std::char_traits<char>,std::allocator<char> > const ,float> >,0> >::_Eqrange<std::basic_string<char,std::char_traits<char>,std::allocator<char> > >

; 1437 :         const _Unchecked_const_iterator _First(_Where.first, nullptr);

  00018	8b 45 e0	 mov	 eax, DWORD PTR __Where$[ebp]
  0001b	89 45 f0	 mov	 DWORD PTR __Pnode$[ebp], eax

; 39   :     _Tree_unchecked_const_iterator(_Nodeptr _Pnode, const _Mytree* _Plist) noexcept : _Ptr(_Pnode) {

  0001e	8b 45 f0	 mov	 eax, DWORD PTR __Pnode$[ebp]
  00021	89 45 f8	 mov	 DWORD PTR __First$[ebp], eax

; 1438 :         const _Unchecked_const_iterator _Last(_Where.second, nullptr);

  00024	8b 45 e4	 mov	 eax, DWORD PTR __Where$[ebp+4]
  00027	89 45 ec	 mov	 DWORD PTR __Pnode$[ebp], eax

; 39   :     _Tree_unchecked_const_iterator(_Nodeptr _Pnode, const _Mytree* _Plist) noexcept : _Ptr(_Pnode) {

  0002a	8b 45 ec	 mov	 eax, DWORD PTR __Pnode$[ebp]
  0002d	89 45 fc	 mov	 DWORD PTR __Last$[ebp], eax

; 1439 :         const auto _Num = static_cast<size_type>(_STD distance(_First, _Last));

  00030	ff 75 fc	 push	 DWORD PTR __Last$[ebp]
  00033	ff 75 f8	 push	 DWORD PTR __First$[ebp]
  00036	e8 00 00 00 00	 call	 ??$distance@V?$_Tree_unchecked_const_iterator@V?$_Tree_val@U?$_Tree_simple_types@U?$pair@$$CBV?$basic_string@DU?$char_traits@D@std@@V?$allocator@D@2@@std@@M@std@@@std@@@std@@U_Iterator_base0@2@@std@@@std@@YAHV?$_Tree_unchecked_const_iterator@V?$_Tree_val@U?$_Tree_simple_types@U?$pair@$$CBV?$basic_string@DU?$char_traits@D@std@@V?$allocator@D@2@@std@@M@std@@@std@@@std@@U_Iterator_base0@2@@0@0@Z ; std::distance<std::_Tree_unchecked_const_iterator<std::_Tree_val<std::_Tree_simple_types<std::pair<std::basic_string<char,std::char_traits<char>,std::allocator<char> > const ,float> > >,std::_Iterator_base0> >
  0003b	59		 pop	 ecx
  0003c	59		 pop	 ecx
  0003d	89 45 e8	 mov	 DWORD PTR __Num$[ebp], eax

; 1440 :         _Erase_unchecked(_First, _Last);

  00040	ff 75 fc	 push	 DWORD PTR __Last$[ebp]
  00043	ff 75 f8	 push	 DWORD PTR __First$[ebp]
  00046	8b 4d f4	 mov	 ecx, DWORD PTR _this$[ebp]
  00049	e8 00 00 00 00	 call	 ?_Erase_unchecked@?$_Tree@V?$_Tmap_traits@V?$basic_string@DU?$char_traits@D@std@@V?$allocator@D@2@@std@@MU?$less@V?$basic_string@DU?$char_traits@D@std@@V?$allocator@D@2@@std@@@2@V?$allocator@U?$pair@$$CBV?$basic_string@DU?$char_traits@D@std@@V?$allocator@D@2@@std@@M@std@@@2@$0A@@std@@@std@@AAEPAU?$_Tree_node@U?$pair@$$CBV?$basic_string@DU?$char_traits@D@std@@V?$allocator@D@2@@std@@M@std@@PAX@2@V?$_Tree_unchecked_const_iterator@V?$_Tree_val@U?$_Tree_simple_types@U?$pair@$$CBV?$basic_string@DU?$char_traits@D@std@@V?$allocator@D@2@@std@@M@std@@@std@@@std@@U_Iterator_base0@2@@2@0@Z ; std::_Tree<std::_Tmap_traits<std::basic_string<char,std::char_traits<char>,std::allocator<char> >,float,std::less<std::basic_string<char,std::char_traits<char>,std::allocator<char> > >,std::allocator<std::pair<std::basic_string<char,std::char_traits<char>,std::allocator<char> > const ,float> >,0> >::_Erase_unchecked

; 1441 :         return _Num;

  0004e	8b 45 e8	 mov	 eax, DWORD PTR __Num$[ebp]

; 1442 :     }

  00051	c9		 leave
  00052	c2 04 00	 ret	 4
?erase@?$_Tree@V?$_Tmap_traits@V?$basic_string@DU?$char_traits@D@std@@V?$allocator@D@2@@std@@MU?$less@V?$basic_string@DU?$char_traits@D@std@@V?$allocator@D@2@@std@@@2@V?$allocator@U?$pair@$$CBV?$basic_string@DU?$char_traits@D@std@@V?$allocator@D@2@@std@@M@std@@@2@$0A@@std@@@std@@QAEIABV?$basic_string@DU?$char_traits@D@std@@V?$allocator@D@2@@2@@Z ENDP ; std::_Tree<std::_Tmap_traits<std::basic_string<char,std::char_traits<char>,std::allocator<char> >,float,std::less<std::basic_string<char,std::char_traits<char>,std::allocator<char> > >,std::allocator<std::pair<std::basic_string<char,std::char_traits<char>,std::allocator<char> > const ,float> >,0> >::erase
_TEXT	ENDS
; Function compile flags: /Odspy
; File C:\Program Files (x86)\Microsoft Visual Studio\2019\Community\VC\Tools\MSVC\14.28.29333\include\xtree
; File C:\Program Files (x86)\Microsoft Visual Studio\2019\Community\VC\Tools\MSVC\14.28.29333\include\xstddef
; File C:\Program Files (x86)\Microsoft Visual Studio\2019\Community\VC\Tools\MSVC\14.28.29333\include\xtree
;	COMDAT ?_Erase_unchecked@?$_Tree@V?$_Tmap_traits@V?$basic_string@DU?$char_traits@D@std@@V?$allocator@D@2@@std@@MU?$less@V?$basic_string@DU?$char_traits@D@std@@V?$allocator@D@2@@std@@@2@V?$allocator@U?$pair@$$CBV?$basic_string@DU?$char_traits@D@std@@V?$allocator@D@2@@std@@M@std@@@2@$0A@@std@@@std@@AAEPAU?$_Tree_node@U?$pair@$$CBV?$basic_string@DU?$char_traits@D@std@@V?$allocator@D@2@@std@@M@std@@PAX@2@V?$_Tree_unchecked_const_iterator@V?$_Tree_val@U?$_Tree_simple_types@U?$pair@$$CBV?$basic_string@DU?$char_traits@D@std@@V?$allocator@D@2@@std@@M@std@@@std@@@std@@U_Iterator_base0@2@@2@0@Z
_TEXT	SEGMENT
$T1 = -48						; size = 4
$T2 = -44						; size = 4
__Tmp$3 = -40						; size = 4
__Begin$ = -36						; size = 4
___param0$ = -32					; size = 4
$T4 = -28						; size = 4
$T5 = -24						; size = 4
tv153 = -20						; size = 4
tv136 = -16						; size = 4
tv129 = -12						; size = 4
_this$ = -8						; size = 4
$T6 = -3						; size = 1
$T7 = -2						; size = 1
$T8 = -1						; size = 1
__First$ = 8						; size = 4
__Last$ = 12						; size = 4
?_Erase_unchecked@?$_Tree@V?$_Tmap_traits@V?$basic_string@DU?$char_traits@D@std@@V?$allocator@D@2@@std@@MU?$less@V?$basic_string@DU?$char_traits@D@std@@V?$allocator@D@2@@std@@@2@V?$allocator@U?$pair@$$CBV?$basic_string@DU?$char_traits@D@std@@V?$allocator@D@2@@std@@M@std@@@2@$0A@@std@@@std@@AAEPAU?$_Tree_node@U?$pair@$$CBV?$basic_string@DU?$char_traits@D@std@@V?$allocator@D@2@@std@@M@std@@PAX@2@V?$_Tree_unchecked_const_iterator@V?$_Tree_val@U?$_Tree_simple_types@U?$pair@$$CBV?$basic_string@DU?$char_traits@D@std@@V?$allocator@D@2@@std@@M@std@@@std@@@std@@U_Iterator_base0@2@@2@0@Z PROC ; std::_Tree<std::_Tmap_traits<std::basic_string<char,std::char_traits<char>,std::allocator<char> >,float,std::less<std::basic_string<char,std::char_traits<char>,std::allocator<char> > >,std::allocator<std::pair<std::basic_string<char,std::char_traits<char>,std::allocator<char> > const ,float> >,0> >::_Erase_unchecked, COMDAT
; _this$ = ecx

; 1395 :     _Nodeptr _Erase_unchecked(_Unchecked_const_iterator _First, _Unchecked_const_iterator _Last) noexcept {

  00000	55		 push	 ebp
  00001	8b ec		 mov	 ebp, esp
  00003	83 ec 30	 sub	 esp, 48			; 00000030H
  00006	89 4d f8	 mov	 DWORD PTR _this$[ebp], ecx

; 2047 :         return _STD addressof(_Mypair._Myval2._Myval2);

  00009	8b 45 f8	 mov	 eax, DWORD PTR _this$[ebp]
; File C:\Program Files (x86)\Microsoft Visual Studio\2019\Community\VC\Tools\MSVC\14.28.29333\include\xstddef

; 275  :     return __builtin_addressof(_Val);

  0000c	89 45 e8	 mov	 DWORD PTR $T5[ebp], eax
; File C:\Program Files (x86)\Microsoft Visual Studio\2019\Community\VC\Tools\MSVC\14.28.29333\include\xtree

; 2047 :         return _STD addressof(_Mypair._Myval2._Myval2);

  0000f	8b 45 e8	 mov	 eax, DWORD PTR $T5[ebp]
  00012	89 45 e4	 mov	 DWORD PTR $T4[ebp], eax

; 1259 :         return _Unchecked_iterator(_Get_scary()->_Myhead->_Left, nullptr);

  00015	8b 45 e4	 mov	 eax, DWORD PTR $T4[ebp]
  00018	8b 00		 mov	 eax, DWORD PTR [eax]
  0001a	8b 00		 mov	 eax, DWORD PTR [eax]
  0001c	89 45 e0	 mov	 DWORD PTR ___param0$[ebp], eax

; 39   :     _Tree_unchecked_const_iterator(_Nodeptr _Pnode, const _Mytree* _Plist) noexcept : _Ptr(_Pnode) {

  0001f	8b 45 e0	 mov	 eax, DWORD PTR ___param0$[ebp]
  00022	89 45 dc	 mov	 DWORD PTR __Begin$[ebp], eax

; 98   :         return _Ptr == _Right._Ptr;

  00025	8b 45 08	 mov	 eax, DWORD PTR __First$[ebp]
  00028	3b 45 dc	 cmp	 eax, DWORD PTR __Begin$[ebp]
  0002b	75 09		 jne	 SHORT $LN26@Erase_unch
  0002d	c7 45 f4 01 00
	00 00		 mov	 DWORD PTR tv129[ebp], 1
  00034	eb 04		 jmp	 SHORT $LN27@Erase_unch
$LN26@Erase_unch:
  00036	83 65 f4 00	 and	 DWORD PTR tv129[ebp], 0
$LN27@Erase_unch:
  0003a	8a 45 f4	 mov	 al, BYTE PTR tv129[ebp]
  0003d	88 45 ff	 mov	 BYTE PTR $T8[ebp], al

; 1396 :         const auto _Begin = _Unchecked_begin();
; 1397 :         if (_First == _Begin && _Last._Ptr->_Isnil) {

  00040	0f b6 45 ff	 movzx	 eax, BYTE PTR $T8[ebp]
  00044	85 c0		 test	 eax, eax
  00046	74 18		 je	 SHORT $LN2@Erase_unch
  00048	8b 45 0c	 mov	 eax, DWORD PTR __Last$[ebp]
  0004b	0f be 40 0d	 movsx	 eax, BYTE PTR [eax+13]
  0004f	85 c0		 test	 eax, eax
  00051	74 0d		 je	 SHORT $LN2@Erase_unch

; 1398 :             // erase all
; 1399 :             clear();

  00053	8b 4d f8	 mov	 ecx, DWORD PTR _this$[ebp]
  00056	e8 00 00 00 00	 call	 ?clear@?$_Tree@V?$_Tmap_traits@V?$basic_string@DU?$char_traits@D@std@@V?$allocator@D@2@@std@@MU?$less@V?$basic_string@DU?$char_traits@D@std@@V?$allocator@D@2@@std@@@2@V?$allocator@U?$pair@$$CBV?$basic_string@DU?$char_traits@D@std@@V?$allocator@D@2@@std@@M@std@@@2@$0A@@std@@@std@@QAEXXZ ; std::_Tree<std::_Tmap_traits<std::basic_string<char,std::char_traits<char>,std::allocator<char> >,float,std::less<std::basic_string<char,std::char_traits<char>,std::allocator<char> > >,std::allocator<std::pair<std::basic_string<char,std::char_traits<char>,std::allocator<char> > const ,float> >,0> >::clear

; 1400 :             return _Last._Ptr;

  0005b	8b 45 0c	 mov	 eax, DWORD PTR __Last$[ebp]
  0005e	eb 6a		 jmp	 SHORT $LN5@Erase_unch
$LN2@Erase_unch:

; 98   :         return _Ptr == _Right._Ptr;

  00060	8b 45 08	 mov	 eax, DWORD PTR __First$[ebp]
  00063	3b 45 0c	 cmp	 eax, DWORD PTR __Last$[ebp]
  00066	75 09		 jne	 SHORT $LN94@Erase_unch
  00068	c7 45 f0 01 00
	00 00		 mov	 DWORD PTR tv136[ebp], 1
  0006f	eb 04		 jmp	 SHORT $LN95@Erase_unch
$LN94@Erase_unch:
  00071	83 65 f0 00	 and	 DWORD PTR tv136[ebp], 0
$LN95@Erase_unch:
  00075	8a 45 f0	 mov	 al, BYTE PTR tv136[ebp]
  00078	88 45 fe	 mov	 BYTE PTR $T7[ebp], al

; 102  :         return !(*this == _Right);

  0007b	0f b6 45 fe	 movzx	 eax, BYTE PTR $T7[ebp]
  0007f	85 c0		 test	 eax, eax
  00081	75 09		 jne	 SHORT $LN89@Erase_unch
  00083	c7 45 ec 01 00
	00 00		 mov	 DWORD PTR tv153[ebp], 1
  0008a	eb 04		 jmp	 SHORT $LN90@Erase_unch
$LN89@Erase_unch:
  0008c	83 65 ec 00	 and	 DWORD PTR tv153[ebp], 0
$LN90@Erase_unch:
  00090	8a 45 ec	 mov	 al, BYTE PTR tv153[ebp]
  00093	88 45 fd	 mov	 BYTE PTR $T6[ebp], al

; 1401 :         }
; 1402 : 
; 1403 :         // partial erase, one at a time
; 1404 :         while (_First != _Last) {

  00096	0f b6 45 fd	 movzx	 eax, BYTE PTR $T6[ebp]
  0009a	85 c0		 test	 eax, eax
  0009c	74 29		 je	 SHORT $LN3@Erase_unch

; 67   :         _Tree_unchecked_const_iterator _Tmp = *this;

  0009e	8b 45 08	 mov	 eax, DWORD PTR __First$[ebp]
  000a1	89 45 d8	 mov	 DWORD PTR __Tmp$3[ebp], eax

; 68   :         ++*this;

  000a4	8d 4d 08	 lea	 ecx, DWORD PTR __First$[ebp]
  000a7	e8 00 00 00 00	 call	 ??E?$_Tree_unchecked_const_iterator@V?$_Tree_val@U?$_Tree_simple_types@U?$pair@$$CBV?$basic_string@DU?$char_traits@D@std@@V?$allocator@D@2@@std@@M@std@@@std@@@std@@U_Iterator_base0@2@@std@@QAEAAV01@XZ ; std::_Tree_unchecked_const_iterator<std::_Tree_val<std::_Tree_simple_types<std::pair<std::basic_string<char,std::char_traits<char>,std::allocator<char> > const ,float> > >,std::_Iterator_base0>::operator++

; 69   :         return _Tmp;

  000ac	8b 45 d8	 mov	 eax, DWORD PTR __Tmp$3[ebp]
  000af	89 45 d4	 mov	 DWORD PTR $T2[ebp], eax
  000b2	8d 45 d4	 lea	 eax, DWORD PTR $T2[ebp]
  000b5	89 45 d0	 mov	 DWORD PTR $T1[ebp], eax

; 1405 :             _Erase_unchecked(_First++);

  000b8	8b 45 d0	 mov	 eax, DWORD PTR $T1[ebp]
  000bb	ff 30		 push	 DWORD PTR [eax]
  000bd	8b 4d f8	 mov	 ecx, DWORD PTR _this$[ebp]
  000c0	e8 00 00 00 00	 call	 ?_Erase_unchecked@?$_Tree@V?$_Tmap_traits@V?$basic_string@DU?$char_traits@D@std@@V?$allocator@D@2@@std@@MU?$less@V?$basic_string@DU?$char_traits@D@std@@V?$allocator@D@2@@std@@@2@V?$allocator@U?$pair@$$CBV?$basic_string@DU?$char_traits@D@std@@V?$allocator@D@2@@std@@M@std@@@2@$0A@@std@@@std@@AAEPAU?$_Tree_node@U?$pair@$$CBV?$basic_string@DU?$char_traits@D@std@@V?$allocator@D@2@@std@@M@std@@PAX@2@V?$_Tree_unchecked_const_iterator@V?$_Tree_val@U?$_Tree_simple_types@U?$pair@$$CBV?$basic_string@DU?$char_traits@D@std@@V?$allocator@D@2@@std@@M@std@@@std@@@std@@U_Iterator_base0@2@@2@@Z ; std::_Tree<std::_Tmap_traits<std::basic_string<char,std::char_traits<char>,std::allocator<char> >,float,std::less<std::basic_string<char,std::char_traits<char>,std::allocator<char> > >,std::allocator<std::pair<std::basic_string<char,std::char_traits<char>,std::allocator<char> > const ,float> >,0> >::_Erase_unchecked

; 1406 :         }

  000c5	eb 99		 jmp	 SHORT $LN2@Erase_unch
$LN3@Erase_unch:

; 1407 : 
; 1408 :         return _Last._Ptr;

  000c7	8b 45 0c	 mov	 eax, DWORD PTR __Last$[ebp]
$LN5@Erase_unch:

; 1409 :     }

  000ca	c9		 leave
  000cb	c2 08 00	 ret	 8
?_Erase_unchecked@?$_Tree@V?$_Tmap_traits@V?$basic_string@DU?$char_traits@D@std@@V?$allocator@D@2@@std@@MU?$less@V?$basic_string@DU?$char_traits@D@std@@V?$allocator@D@2@@std@@@2@V?$allocator@U?$pair@$$CBV?$basic_string@DU?$char_traits@D@std@@V?$allocator@D@2@@std@@M@std@@@2@$0A@@std@@@std@@AAEPAU?$_Tree_node@U?$pair@$$CBV?$basic_string@DU?$char_traits@D@std@@V?$allocator@D@2@@std@@M@std@@PAX@2@V?$_Tree_unchecked_const_iterator@V?$_Tree_val@U?$_Tree_simple_types@U?$pair@$$CBV?$basic_string@DU?$char_traits@D@std@@V?$allocator@D@2@@std@@M@std@@@std@@@std@@U_Iterator_base0@2@@2@0@Z ENDP ; std::_Tree<std::_Tmap_traits<std::basic_string<char,std::char_traits<char>,std::allocator<char> >,float,std::less<std::basic_string<char,std::char_traits<char>,std::allocator<char> > >,std::allocator<std::pair<std::basic_string<char,std::char_traits<char>,std::allocator<char> > const ,float> >,0> >::_Erase_unchecked
_TEXT	ENDS
; Function compile flags: /Odspy
; File C:\Program Files (x86)\Microsoft Visual Studio\2019\Community\VC\Tools\MSVC\14.28.29333\include\xtree
; File C:\Program Files (x86)\Microsoft Visual Studio\2019\Community\VC\Tools\MSVC\14.28.29333\include\xstddef
; File C:\Program Files (x86)\Microsoft Visual Studio\2019\Community\VC\Tools\MSVC\14.28.29333\include\xtree
; File C:\Program Files (x86)\Microsoft Visual Studio\2019\Community\VC\Tools\MSVC\14.28.29333\include\xmemory
; File C:\Program Files (x86)\Microsoft Visual Studio\2019\Community\VC\Tools\MSVC\14.28.29333\include\xtree
;	COMDAT ?_Erase_unchecked@?$_Tree@V?$_Tmap_traits@V?$basic_string@DU?$char_traits@D@std@@V?$allocator@D@2@@std@@MU?$less@V?$basic_string@DU?$char_traits@D@std@@V?$allocator@D@2@@std@@@2@V?$allocator@U?$pair@$$CBV?$basic_string@DU?$char_traits@D@std@@V?$allocator@D@2@@std@@M@std@@@2@$0A@@std@@@std@@AAEPAU?$_Tree_node@U?$pair@$$CBV?$basic_string@DU?$char_traits@D@std@@V?$allocator@D@2@@std@@M@std@@PAX@2@V?$_Tree_unchecked_const_iterator@V?$_Tree_val@U?$_Tree_simple_types@U?$pair@$$CBV?$basic_string@DU?$char_traits@D@std@@V?$allocator@D@2@@std@@M@std@@@std@@@std@@U_Iterator_base0@2@@2@@Z
_TEXT	SEGMENT
$T1 = -28						; size = 4
__Erasednode$ = -24					; size = 4
$T2 = -20						; size = 4
__Scary$ = -16						; size = 4
$T3 = -12						; size = 4
__Successor$ = -8					; size = 4
_this$ = -4						; size = 4
__Where$ = 8						; size = 4
?_Erase_unchecked@?$_Tree@V?$_Tmap_traits@V?$basic_string@DU?$char_traits@D@std@@V?$allocator@D@2@@std@@MU?$less@V?$basic_string@DU?$char_traits@D@std@@V?$allocator@D@2@@std@@@2@V?$allocator@U?$pair@$$CBV?$basic_string@DU?$char_traits@D@std@@V?$allocator@D@2@@std@@M@std@@@2@$0A@@std@@@std@@AAEPAU?$_Tree_node@U?$pair@$$CBV?$basic_string@DU?$char_traits@D@std@@V?$allocator@D@2@@std@@M@std@@PAX@2@V?$_Tree_unchecked_const_iterator@V?$_Tree_val@U?$_Tree_simple_types@U?$pair@$$CBV?$basic_string@DU?$char_traits@D@std@@V?$allocator@D@2@@std@@M@std@@@std@@@std@@U_Iterator_base0@2@@2@@Z PROC ; std::_Tree<std::_Tmap_traits<std::basic_string<char,std::char_traits<char>,std::allocator<char> >,float,std::less<std::basic_string<char,std::char_traits<char>,std::allocator<char> > >,std::allocator<std::pair<std::basic_string<char,std::char_traits<char>,std::allocator<char> > const ,float> >,0> >::_Erase_unchecked, COMDAT
; _this$ = ecx

; 1385 :     _Nodeptr _Erase_unchecked(_Unchecked_const_iterator _Where) noexcept {

  00000	55		 push	 ebp
  00001	8b ec		 mov	 ebp, esp
  00003	83 ec 1c	 sub	 esp, 28			; 0000001cH
  00006	89 4d fc	 mov	 DWORD PTR _this$[ebp], ecx

; 2047 :         return _STD addressof(_Mypair._Myval2._Myval2);

  00009	8b 45 fc	 mov	 eax, DWORD PTR _this$[ebp]
; File C:\Program Files (x86)\Microsoft Visual Studio\2019\Community\VC\Tools\MSVC\14.28.29333\include\xstddef

; 275  :     return __builtin_addressof(_Val);

  0000c	89 45 f4	 mov	 DWORD PTR $T3[ebp], eax
; File C:\Program Files (x86)\Microsoft Visual Studio\2019\Community\VC\Tools\MSVC\14.28.29333\include\xtree

; 2047 :         return _STD addressof(_Mypair._Myval2._Myval2);

  0000f	8b 45 f4	 mov	 eax, DWORD PTR $T3[ebp]
  00012	89 45 f0	 mov	 DWORD PTR __Scary$[ebp], eax

; 1386 :         const auto _Scary                    = _Get_scary();
; 1387 :         _Unchecked_const_iterator _Successor = _Where;

  00015	8b 45 08	 mov	 eax, DWORD PTR __Where$[ebp]
  00018	89 45 f8	 mov	 DWORD PTR __Successor$[ebp], eax

; 1388 :         ++_Successor; // save successor iterator for return

  0001b	8d 4d f8	 lea	 ecx, DWORD PTR __Successor$[ebp]
  0001e	e8 00 00 00 00	 call	 ??E?$_Tree_unchecked_const_iterator@V?$_Tree_val@U?$_Tree_simple_types@U?$pair@$$CBV?$basic_string@DU?$char_traits@D@std@@V?$allocator@D@2@@std@@M@std@@@std@@@std@@U_Iterator_base0@2@@std@@QAEAAV01@XZ ; std::_Tree_unchecked_const_iterator<std::_Tree_val<std::_Tree_simple_types<std::pair<std::basic_string<char,std::char_traits<char>,std::allocator<char> > const ,float> > >,std::_Iterator_base0>::operator++

; 1389 :         _Nodeptr _Erasednode = _Scary->_Extract(_Where); // node to erase

  00023	ff 75 08	 push	 DWORD PTR __Where$[ebp]
  00026	8b 4d f0	 mov	 ecx, DWORD PTR __Scary$[ebp]
  00029	e8 00 00 00 00	 call	 ?_Extract@?$_Tree_val@U?$_Tree_simple_types@U?$pair@$$CBV?$basic_string@DU?$char_traits@D@std@@V?$allocator@D@2@@std@@M@std@@@std@@@std@@QAEPAU?$_Tree_node@U?$pair@$$CBV?$basic_string@DU?$char_traits@D@std@@V?$allocator@D@2@@std@@M@std@@PAX@2@V?$_Tree_unchecked_const_iterator@V?$_Tree_val@U?$_Tree_simple_types@U?$pair@$$CBV?$basic_string@DU?$char_traits@D@std@@V?$allocator@D@2@@std@@M@std@@@std@@@std@@U_Iterator_base0@2@@2@@Z ; std::_Tree_val<std::_Tree_simple_types<std::pair<std::basic_string<char,std::char_traits<char>,std::allocator<char> > const ,float> > >::_Extract
  0002e	89 45 e8	 mov	 DWORD PTR __Erasednode$[ebp], eax

; 2039 :         return _Mypair._Myval2._Get_first();

  00031	8b 45 fc	 mov	 eax, DWORD PTR _this$[ebp]
; File C:\Program Files (x86)\Microsoft Visual Studio\2019\Community\VC\Tools\MSVC\14.28.29333\include\xmemory

; 1347 :         return *this;

  00034	89 45 ec	 mov	 DWORD PTR $T2[ebp], eax
; File C:\Program Files (x86)\Microsoft Visual Studio\2019\Community\VC\Tools\MSVC\14.28.29333\include\xtree

; 2039 :         return _Mypair._Myval2._Get_first();

  00037	8b 45 ec	 mov	 eax, DWORD PTR $T2[ebp]
  0003a	89 45 e4	 mov	 DWORD PTR $T1[ebp], eax

; 1390 :         _Scary->_Orphan_ptr(_Erasednode);
; 1391 :         _Node::_Freenode(_Getal(), _Erasednode); // delete erased node

  0003d	ff 75 e8	 push	 DWORD PTR __Erasednode$[ebp]
  00040	ff 75 e4	 push	 DWORD PTR $T1[ebp]
  00043	e8 00 00 00 00	 call	 ??$_Freenode@V?$allocator@U?$_Tree_node@U?$pair@$$CBV?$basic_string@DU?$char_traits@D@std@@V?$allocator@D@2@@std@@M@std@@PAX@std@@@std@@@?$_Tree_node@U?$pair@$$CBV?$basic_string@DU?$char_traits@D@std@@V?$allocator@D@2@@std@@M@std@@PAX@std@@SAXAAV?$allocator@U?$_Tree_node@U?$pair@$$CBV?$basic_string@DU?$char_traits@D@std@@V?$allocator@D@2@@std@@M@std@@PAX@std@@@1@PAU01@@Z ; std::_Tree_node<std::pair<std::basic_string<char,std::char_traits<char>,std::allocator<char> > const ,float>,void *>::_Freenode<std::allocator<std::_Tree_node<std::pair<std::basic_string<char,std::char_traits<char>,std::allocator<char> > const ,float>,void *> > >
  00048	59		 pop	 ecx
  00049	59		 pop	 ecx

; 1392 :         return _Successor._Ptr; // return successor nodeptr

  0004a	8b 45 f8	 mov	 eax, DWORD PTR __Successor$[ebp]

; 1393 :     }

  0004d	c9		 leave
  0004e	c2 04 00	 ret	 4
?_Erase_unchecked@?$_Tree@V?$_Tmap_traits@V?$basic_string@DU?$char_traits@D@std@@V?$allocator@D@2@@std@@MU?$less@V?$basic_string@DU?$char_traits@D@std@@V?$allocator@D@2@@std@@@2@V?$allocator@U?$pair@$$CBV?$basic_string@DU?$char_traits@D@std@@V?$allocator@D@2@@std@@M@std@@@2@$0A@@std@@@std@@AAEPAU?$_Tree_node@U?$pair@$$CBV?$basic_string@DU?$char_traits@D@std@@V?$allocator@D@2@@std@@M@std@@PAX@2@V?$_Tree_unchecked_const_iterator@V?$_Tree_val@U?$_Tree_simple_types@U?$pair@$$CBV?$basic_string@DU?$char_traits@D@std@@V?$allocator@D@2@@std@@M@std@@@std@@@std@@U_Iterator_base0@2@@2@@Z ENDP ; std::_Tree<std::_Tmap_traits<std::basic_string<char,std::char_traits<char>,std::allocator<char> >,float,std::less<std::basic_string<char,std::char_traits<char>,std::allocator<char> > >,std::allocator<std::pair<std::basic_string<char,std::char_traits<char>,std::allocator<char> > const ,float> >,0> >::_Erase_unchecked
_TEXT	ENDS
; Function compile flags: /Odspy
; File C:\Program Files (x86)\Microsoft Visual Studio\2019\Community\VC\Tools\MSVC\14.28.29333\include\xtree
; File C:\Program Files (x86)\Microsoft Visual Studio\2019\Community\VC\Tools\MSVC\14.28.29333\include\xmemory
; File C:\Program Files (x86)\Microsoft Visual Studio\2019\Community\VC\Tools\MSVC\14.28.29333\include\xtree
; File C:\Program Files (x86)\Microsoft Visual Studio\2019\Community\VC\Tools\MSVC\14.28.29333\include\xmemory
; File C:\Program Files (x86)\Microsoft Visual Studio\2019\Community\VC\Tools\MSVC\14.28.29333\include\limits
; File C:\Program Files (x86)\Microsoft Visual Studio\2019\Community\VC\Tools\MSVC\14.28.29333\include\xtree
; File C:\Program Files (x86)\Microsoft Visual Studio\2019\Community\VC\Tools\MSVC\14.28.29333\include\utility
; File C:\Program Files (x86)\Microsoft Visual Studio\2019\Community\VC\Tools\MSVC\14.28.29333\include\xtree
;	COMDAT ?max_size@?$_Tree@V?$_Tmap_traits@V?$basic_string@DU?$char_traits@D@std@@V?$allocator@D@2@@std@@MU?$less@V?$basic_string@DU?$char_traits@D@std@@V?$allocator@D@2@@std@@@2@V?$allocator@U?$pair@$$CBV?$basic_string@DU?$char_traits@D@std@@V?$allocator@D@2@@std@@M@std@@@2@$0A@@std@@@std@@QBEIXZ
_TEXT	SEGMENT
$T1 = -36						; size = 4
$T2 = -32						; size = 4
$T3 = -28						; size = 4
$T4 = -24						; size = 4
$T5 = -20						; size = 4
_this$ = -16						; size = 4
tv68 = -12						; size = 4
$T6 = -8						; size = 4
$T7 = -4						; size = 4
?max_size@?$_Tree@V?$_Tmap_traits@V?$basic_string@DU?$char_traits@D@std@@V?$allocator@D@2@@std@@MU?$less@V?$basic_string@DU?$char_traits@D@std@@V?$allocator@D@2@@std@@@2@V?$allocator@U?$pair@$$CBV?$basic_string@DU?$char_traits@D@std@@V?$allocator@D@2@@std@@M@std@@@2@$0A@@std@@@std@@QBEIXZ PROC ; std::_Tree<std::_Tmap_traits<std::basic_string<char,std::char_traits<char>,std::allocator<char> >,float,std::less<std::basic_string<char,std::char_traits<char>,std::allocator<char> > >,std::allocator<std::pair<std::basic_string<char,std::char_traits<char>,std::allocator<char> > const ,float> >,0> >::max_size, COMDAT
; _this$ = ecx

; 1310 :     _NODISCARD size_type max_size() const noexcept {

  00000	55		 push	 ebp
  00001	8b ec		 mov	 ebp, esp
  00003	83 ec 24	 sub	 esp, 36			; 00000024H
  00006	89 4d f0	 mov	 DWORD PTR _this$[ebp], ecx

; 2043 :         return _Mypair._Myval2._Get_first();

  00009	8b 45 f0	 mov	 eax, DWORD PTR _this$[ebp]
; File C:\Program Files (x86)\Microsoft Visual Studio\2019\Community\VC\Tools\MSVC\14.28.29333\include\xmemory

; 1351 :         return *this;

  0000c	89 45 ec	 mov	 DWORD PTR $T5[ebp], eax
; File C:\Program Files (x86)\Microsoft Visual Studio\2019\Community\VC\Tools\MSVC\14.28.29333\include\xtree

; 2043 :         return _Mypair._Myval2._Get_first();

  0000f	8b 45 ec	 mov	 eax, DWORD PTR $T5[ebp]
  00012	89 45 dc	 mov	 DWORD PTR $T1[ebp], eax
; File C:\Program Files (x86)\Microsoft Visual Studio\2019\Community\VC\Tools\MSVC\14.28.29333\include\xmemory

; 710  :         return static_cast<size_t>(-1) / sizeof(value_type);

  00015	c7 45 fc 5d 74
	d1 05		 mov	 DWORD PTR $T7[ebp], 97612893 ; 05d1745dH
; File C:\Program Files (x86)\Microsoft Visual Studio\2019\Community\VC\Tools\MSVC\14.28.29333\include\limits

; 557  :         return INT_MAX;

  0001c	c7 45 e8 ff ff
	ff 7f		 mov	 DWORD PTR $T4[ebp], 2147483647 ; 7fffffffH
; File C:\Program Files (x86)\Microsoft Visual Studio\2019\Community\VC\Tools\MSVC\14.28.29333\include\xtree

; 1311 :         return (_STD min)(

  00023	8b 45 e8	 mov	 eax, DWORD PTR $T4[ebp]
  00026	89 45 f8	 mov	 DWORD PTR $T6[ebp], eax
; File C:\Program Files (x86)\Microsoft Visual Studio\2019\Community\VC\Tools\MSVC\14.28.29333\include\utility

; 68   :     return _Right < _Left ? _Right : _Left;

  00029	8b 45 fc	 mov	 eax, DWORD PTR $T7[ebp]
  0002c	3b 45 f8	 cmp	 eax, DWORD PTR $T6[ebp]
  0002f	73 08		 jae	 SHORT $LN17@max_size
  00031	8d 45 fc	 lea	 eax, DWORD PTR $T7[ebp]
  00034	89 45 f4	 mov	 DWORD PTR tv68[ebp], eax
  00037	eb 06		 jmp	 SHORT $LN18@max_size
$LN17@max_size:
  00039	8d 45 f8	 lea	 eax, DWORD PTR $T6[ebp]
  0003c	89 45 f4	 mov	 DWORD PTR tv68[ebp], eax
$LN18@max_size:
  0003f	8b 45 f4	 mov	 eax, DWORD PTR tv68[ebp]
  00042	89 45 e4	 mov	 DWORD PTR $T3[ebp], eax
  00045	8b 45 e4	 mov	 eax, DWORD PTR $T3[ebp]
  00048	89 45 e0	 mov	 DWORD PTR $T2[ebp], eax
; File C:\Program Files (x86)\Microsoft Visual Studio\2019\Community\VC\Tools\MSVC\14.28.29333\include\xtree

; 1311 :         return (_STD min)(

  0004b	8b 45 e0	 mov	 eax, DWORD PTR $T2[ebp]
  0004e	8b 00		 mov	 eax, DWORD PTR [eax]

; 1312 :             static_cast<size_type>((numeric_limits<difference_type>::max)()), _Alnode_traits::max_size(_Getal()));
; 1313 :     }

  00050	c9		 leave
  00051	c3		 ret	 0
?max_size@?$_Tree@V?$_Tmap_traits@V?$basic_string@DU?$char_traits@D@std@@V?$allocator@D@2@@std@@MU?$less@V?$basic_string@DU?$char_traits@D@std@@V?$allocator@D@2@@std@@@2@V?$allocator@U?$pair@$$CBV?$basic_string@DU?$char_traits@D@std@@V?$allocator@D@2@@std@@M@std@@@2@$0A@@std@@@std@@QBEIXZ ENDP ; std::_Tree<std::_Tmap_traits<std::basic_string<char,std::char_traits<char>,std::allocator<char> >,float,std::less<std::basic_string<char,std::char_traits<char>,std::allocator<char> > >,std::allocator<std::pair<std::basic_string<char,std::char_traits<char>,std::allocator<char> > const ,float> >,0> >::max_size
_TEXT	ENDS
; Function compile flags: /Odspy
; File C:\Program Files (x86)\Microsoft Visual Studio\2019\Community\VC\Tools\MSVC\14.28.29333\include\xtree
; File C:\Program Files (x86)\Microsoft Visual Studio\2019\Community\VC\Tools\MSVC\14.28.29333\include\xstddef
; File C:\Program Files (x86)\Microsoft Visual Studio\2019\Community\VC\Tools\MSVC\14.28.29333\include\xtree
; File C:\Program Files (x86)\Microsoft Visual Studio\2019\Community\VC\Tools\MSVC\14.28.29333\include\xmemory
; File C:\Program Files (x86)\Microsoft Visual Studio\2019\Community\VC\Tools\MSVC\14.28.29333\include\xtree
;	COMDAT ??1?$_Tree@V?$_Tmap_traits@V?$basic_string@DU?$char_traits@D@std@@V?$allocator@D@2@@std@@MU?$less@V?$basic_string@DU?$char_traits@D@std@@V?$allocator@D@2@@std@@@2@V?$allocator@U?$pair@$$CBV?$basic_string@DU?$char_traits@D@std@@V?$allocator@D@2@@std@@M@std@@@2@$0A@@std@@@std@@QAE@XZ
_TEXT	SEGMENT
$T1 = -20						; size = 4
$T2 = -16						; size = 4
$T3 = -12						; size = 4
_this$ = -8						; size = 4
__Scary$ = -4						; size = 4
??1?$_Tree@V?$_Tmap_traits@V?$basic_string@DU?$char_traits@D@std@@V?$allocator@D@2@@std@@MU?$less@V?$basic_string@DU?$char_traits@D@std@@V?$allocator@D@2@@std@@@2@V?$allocator@U?$pair@$$CBV?$basic_string@DU?$char_traits@D@std@@V?$allocator@D@2@@std@@M@std@@@2@$0A@@std@@@std@@QAE@XZ PROC ; std::_Tree<std::_Tmap_traits<std::basic_string<char,std::char_traits<char>,std::allocator<char> >,float,std::less<std::basic_string<char,std::char_traits<char>,std::allocator<char> > >,std::allocator<std::pair<std::basic_string<char,std::char_traits<char>,std::allocator<char> > const ,float> >,0> >::~_Tree<std::_Tmap_traits<std::basic_string<char,std::char_traits<char>,std::allocator<char> >,float,std::less<std::basic_string<char,std::char_traits<char>,std::allocator<char> > >,std::allocator<std::pair<std::basic_string<char,std::char_traits<char>,std::allocator<char> > const ,float> >,0> >, COMDAT
; _this$ = ecx

; 1189 :     ~_Tree() noexcept {

  00000	55		 push	 ebp
  00001	8b ec		 mov	 ebp, esp
  00003	83 ec 14	 sub	 esp, 20			; 00000014H
  00006	89 4d f8	 mov	 DWORD PTR _this$[ebp], ecx

; 2047 :         return _STD addressof(_Mypair._Myval2._Myval2);

  00009	8b 45 f8	 mov	 eax, DWORD PTR _this$[ebp]
; File C:\Program Files (x86)\Microsoft Visual Studio\2019\Community\VC\Tools\MSVC\14.28.29333\include\xstddef

; 275  :     return __builtin_addressof(_Val);

  0000c	89 45 f0	 mov	 DWORD PTR $T2[ebp], eax
; File C:\Program Files (x86)\Microsoft Visual Studio\2019\Community\VC\Tools\MSVC\14.28.29333\include\xtree

; 2047 :         return _STD addressof(_Mypair._Myval2._Myval2);

  0000f	8b 45 f0	 mov	 eax, DWORD PTR $T2[ebp]
  00012	89 45 fc	 mov	 DWORD PTR __Scary$[ebp], eax

; 2039 :         return _Mypair._Myval2._Get_first();

  00015	8b 45 f8	 mov	 eax, DWORD PTR _this$[ebp]
; File C:\Program Files (x86)\Microsoft Visual Studio\2019\Community\VC\Tools\MSVC\14.28.29333\include\xmemory

; 1347 :         return *this;

  00018	89 45 ec	 mov	 DWORD PTR $T1[ebp], eax
; File C:\Program Files (x86)\Microsoft Visual Studio\2019\Community\VC\Tools\MSVC\14.28.29333\include\xtree

; 2039 :         return _Mypair._Myval2._Get_first();

  0001b	8b 45 ec	 mov	 eax, DWORD PTR $T1[ebp]
  0001e	89 45 f4	 mov	 DWORD PTR $T3[ebp], eax

; 752  :         _Erase_tree(_Al, _Myhead->_Parent);

  00021	8b 45 fc	 mov	 eax, DWORD PTR __Scary$[ebp]
  00024	8b 00		 mov	 eax, DWORD PTR [eax]
  00026	ff 70 04	 push	 DWORD PTR [eax+4]
  00029	ff 75 f4	 push	 DWORD PTR $T3[ebp]
  0002c	8b 4d fc	 mov	 ecx, DWORD PTR __Scary$[ebp]
  0002f	e8 00 00 00 00	 call	 ??$_Erase_tree@V?$allocator@U?$_Tree_node@U?$pair@$$CBV?$basic_string@DU?$char_traits@D@std@@V?$allocator@D@2@@std@@M@std@@PAX@std@@@std@@@?$_Tree_val@U?$_Tree_simple_types@U?$pair@$$CBV?$basic_string@DU?$char_traits@D@std@@V?$allocator@D@2@@std@@M@std@@@std@@@std@@QAEXAAV?$allocator@U?$_Tree_node@U?$pair@$$CBV?$basic_string@DU?$char_traits@D@std@@V?$allocator@D@2@@std@@M@std@@PAX@std@@@1@PAU?$_Tree_node@U?$pair@$$CBV?$basic_string@DU?$char_traits@D@std@@V?$allocator@D@2@@std@@M@std@@PAX@1@@Z ; std::_Tree_val<std::_Tree_simple_types<std::pair<std::basic_string<char,std::char_traits<char>,std::allocator<char> > const ,float> > >::_Erase_tree<std::allocator<std::_Tree_node<std::pair<std::basic_string<char,std::char_traits<char>,std::allocator<char> > const ,float>,void *> > >

; 753  :         _Alnode::value_type::_Freenode0(_Al, _Myhead);

  00034	8b 45 fc	 mov	 eax, DWORD PTR __Scary$[ebp]
  00037	ff 30		 push	 DWORD PTR [eax]
  00039	ff 75 f4	 push	 DWORD PTR $T3[ebp]
  0003c	e8 00 00 00 00	 call	 ??$_Freenode0@V?$allocator@U?$_Tree_node@U?$pair@$$CBV?$basic_string@DU?$char_traits@D@std@@V?$allocator@D@2@@std@@M@std@@PAX@std@@@std@@@?$_Tree_node@U?$pair@$$CBV?$basic_string@DU?$char_traits@D@std@@V?$allocator@D@2@@std@@M@std@@PAX@std@@SAXAAV?$allocator@U?$_Tree_node@U?$pair@$$CBV?$basic_string@DU?$char_traits@D@std@@V?$allocator@D@2@@std@@M@std@@PAX@std@@@1@PAU01@@Z ; std::_Tree_node<std::pair<std::basic_string<char,std::char_traits<char>,std::allocator<char> > const ,float>,void *>::_Freenode0<std::allocator<std::_Tree_node<std::pair<std::basic_string<char,std::char_traits<char>,std::allocator<char> > const ,float>,void *> > >
  00041	59		 pop	 ecx
  00042	59		 pop	 ecx

; 1190 :         const auto _Scary = _Get_scary();
; 1191 :         _Scary->_Erase_head(_Getal());
; 1192 : #if _ITERATOR_DEBUG_LEVEL != 0 // TRANSITION, ABI
; 1193 :         auto&& _Alproxy = _GET_PROXY_ALLOCATOR(_Alnode, _Getal());
; 1194 :         _Delete_plain_internal(_Alproxy, _Scary->_Myproxy);
; 1195 : #endif // _ITERATOR_DEBUG_LEVEL != 0
; 1196 :     }

  00043	c9		 leave
  00044	c3		 ret	 0
??1?$_Tree@V?$_Tmap_traits@V?$basic_string@DU?$char_traits@D@std@@V?$allocator@D@2@@std@@MU?$less@V?$basic_string@DU?$char_traits@D@std@@V?$allocator@D@2@@std@@@2@V?$allocator@U?$pair@$$CBV?$basic_string@DU?$char_traits@D@std@@V?$allocator@D@2@@std@@M@std@@@2@$0A@@std@@@std@@QAE@XZ ENDP ; std::_Tree<std::_Tmap_traits<std::basic_string<char,std::char_traits<char>,std::allocator<char> >,float,std::less<std::basic_string<char,std::char_traits<char>,std::allocator<char> > >,std::allocator<std::pair<std::basic_string<char,std::char_traits<char>,std::allocator<char> > const ,float> >,0> >::~_Tree<std::_Tmap_traits<std::basic_string<char,std::char_traits<char>,std::allocator<char> >,float,std::less<std::basic_string<char,std::char_traits<char>,std::allocator<char> > >,std::allocator<std::pair<std::basic_string<char,std::char_traits<char>,std::allocator<char> > const ,float> >,0> >
_TEXT	ENDS
; Function compile flags: /Odspy
; File C:\Program Files (x86)\Microsoft Visual Studio\2019\Community\VC\Tools\MSVC\14.28.29333\include\xtree
; File C:\Program Files (x86)\Microsoft Visual Studio\2019\Community\VC\Tools\MSVC\14.28.29333\include\type_traits
; File C:\Program Files (x86)\Microsoft Visual Studio\2019\Community\VC\Tools\MSVC\14.28.29333\include\xmemory
; File C:\Program Files (x86)\Microsoft Visual Studio\2019\Community\VC\Tools\MSVC\14.28.29333\include\xtree
;	COMDAT ??0?$_Tree@V?$_Tmap_traits@V?$basic_string@DU?$char_traits@D@std@@V?$allocator@D@2@@std@@MU?$less@V?$basic_string@DU?$char_traits@D@std@@V?$allocator@D@2@@std@@@2@V?$allocator@U?$pair@$$CBV?$basic_string@DU?$char_traits@D@std@@V?$allocator@D@2@@std@@M@std@@@2@$0A@@std@@@std@@QAE@ABU?$less@V?$basic_string@DU?$char_traits@D@std@@V?$allocator@D@2@@std@@@1@@Z
_TEXT	SEGMENT
_this$ = -28						; size = 4
_this$ = -24						; size = 4
$T1 = -20						; size = 4
_this$2 = -16						; size = 4
_this$ = -12						; size = 4
___formal$ = -8						; size = 1
$T3 = -1						; size = 1
__Parg$ = 8						; size = 4
??0?$_Tree@V?$_Tmap_traits@V?$basic_string@DU?$char_traits@D@std@@V?$allocator@D@2@@std@@MU?$less@V?$basic_string@DU?$char_traits@D@std@@V?$allocator@D@2@@std@@@2@V?$allocator@U?$pair@$$CBV?$basic_string@DU?$char_traits@D@std@@V?$allocator@D@2@@std@@M@std@@@2@$0A@@std@@@std@@QAE@ABU?$less@V?$basic_string@DU?$char_traits@D@std@@V?$allocator@D@2@@std@@@1@@Z PROC ; std::_Tree<std::_Tmap_traits<std::basic_string<char,std::char_traits<char>,std::allocator<char> >,float,std::less<std::basic_string<char,std::char_traits<char>,std::allocator<char> > >,std::allocator<std::pair<std::basic_string<char,std::char_traits<char>,std::allocator<char> > const ,float> >,0> >::_Tree<std::_Tmap_traits<std::basic_string<char,std::char_traits<char>,std::allocator<char> >,float,std::less<std::basic_string<char,std::char_traits<char>,std::allocator<char> > >,std::allocator<std::pair<std::basic_string<char,std::char_traits<char>,std::allocator<char> > const ,float> >,0> >, COMDAT
; _this$ = ecx

; 885  :     _Tree(const key_compare& _Parg) : _Mypair(_One_then_variadic_args_t{}, _Parg, _Zero_then_variadic_args_t{}) {

  00000	55		 push	 ebp
  00001	8b ec		 mov	 ebp, esp
  00003	83 ec 1c	 sub	 esp, 28			; 0000001cH
  00006	89 4d f4	 mov	 DWORD PTR _this$[ebp], ecx
  00009	8b 45 f4	 mov	 eax, DWORD PTR _this$[ebp]
  0000c	89 45 e8	 mov	 DWORD PTR _this$[ebp], eax
; File C:\Program Files (x86)\Microsoft Visual Studio\2019\Community\VC\Tools\MSVC\14.28.29333\include\type_traits

; 1443 :     return static_cast<_Ty&&>(_Arg);

  0000f	8d 45 ff	 lea	 eax, DWORD PTR $T3[ebp]
  00012	89 45 ec	 mov	 DWORD PTR $T1[ebp], eax
; File C:\Program Files (x86)\Microsoft Visual Studio\2019\Community\VC\Tools\MSVC\14.28.29333\include\xmemory

; 1344 :         : _Ty1(_STD forward<_Other1>(_Val1)), _Myval2(_STD forward<_Other2>(_Val2)...) {}

  00015	8b 45 ec	 mov	 eax, DWORD PTR $T1[ebp]
  00018	8a 00		 mov	 al, BYTE PTR [eax]
  0001a	88 45 f8	 mov	 BYTE PTR ___formal$[ebp], al
  0001d	8b 45 e8	 mov	 eax, DWORD PTR _this$[ebp]
  00020	89 45 e4	 mov	 DWORD PTR _this$[ebp], eax

; 1339 :         : _Ty1(), _Myval2(_STD forward<_Other2>(_Val2)...) {}

  00023	8b 45 e4	 mov	 eax, DWORD PTR _this$[ebp]
  00026	89 45 f0	 mov	 DWORD PTR _this$2[ebp], eax
; File C:\Program Files (x86)\Microsoft Visual Studio\2019\Community\VC\Tools\MSVC\14.28.29333\include\xtree

; 435  :     _Tree_val() noexcept : _Myhead(), _Mysize(0) {}

  00029	8b 45 f0	 mov	 eax, DWORD PTR _this$2[ebp]
  0002c	83 20 00	 and	 DWORD PTR [eax], 0
  0002f	8b 45 f0	 mov	 eax, DWORD PTR _this$2[ebp]
  00032	83 60 04 00	 and	 DWORD PTR [eax+4], 0

; 886  :         _Alloc_sentinel_and_proxy();

  00036	8b 4d f4	 mov	 ecx, DWORD PTR _this$[ebp]
  00039	e8 00 00 00 00	 call	 ?_Alloc_sentinel_and_proxy@?$_Tree@V?$_Tmap_traits@V?$basic_string@DU?$char_traits@D@std@@V?$allocator@D@2@@std@@MU?$less@V?$basic_string@DU?$char_traits@D@std@@V?$allocator@D@2@@std@@@2@V?$allocator@U?$pair@$$CBV?$basic_string@DU?$char_traits@D@std@@V?$allocator@D@2@@std@@M@std@@@2@$0A@@std@@@std@@IAEXXZ ; std::_Tree<std::_Tmap_traits<std::basic_string<char,std::char_traits<char>,std::allocator<char> >,float,std::less<std::basic_string<char,std::char_traits<char>,std::allocator<char> > >,std::allocator<std::pair<std::basic_string<char,std::char_traits<char>,std::allocator<char> > const ,float> >,0> >::_Alloc_sentinel_and_proxy

; 887  :     }

  0003e	8b 45 f4	 mov	 eax, DWORD PTR _this$[ebp]
  00041	c9		 leave
  00042	c2 04 00	 ret	 4
??0?$_Tree@V?$_Tmap_traits@V?$basic_string@DU?$char_traits@D@std@@V?$allocator@D@2@@std@@MU?$less@V?$basic_string@DU?$char_traits@D@std@@V?$allocator@D@2@@std@@@2@V?$allocator@U?$pair@$$CBV?$basic_string@DU?$char_traits@D@std@@V?$allocator@D@2@@std@@M@std@@@2@$0A@@std@@@std@@QAE@ABU?$less@V?$basic_string@DU?$char_traits@D@std@@V?$allocator@D@2@@std@@@1@@Z ENDP ; std::_Tree<std::_Tmap_traits<std::basic_string<char,std::char_traits<char>,std::allocator<char> >,float,std::less<std::basic_string<char,std::char_traits<char>,std::allocator<char> > >,std::allocator<std::pair<std::basic_string<char,std::char_traits<char>,std::allocator<char> > const ,float> >,0> >::_Tree<std::_Tmap_traits<std::basic_string<char,std::char_traits<char>,std::allocator<char> >,float,std::less<std::basic_string<char,std::char_traits<char>,std::allocator<char> > >,std::allocator<std::pair<std::basic_string<char,std::char_traits<char>,std::allocator<char> > const ,float> >,0> >
_TEXT	ENDS
; Function compile flags: /Odspy
; File D:\Metin2 Server Files\mainline\SRC_2014\Metin2Client\MilesLib\SoundManager.cpp
;	COMDAT ?GetSoundInstance3D@CSoundManager@@IAEHPBDPAPAVISoundInstance@@@Z
_TEXT	SEGMENT
_this$ = -8						; size = 4
_iIndex$ = -4						; size = 4
_c_szFileName$ = 8					; size = 4
_ppInstance$ = 12					; size = 4
?GetSoundInstance3D@CSoundManager@@IAEHPBDPAPAVISoundInstance@@@Z PROC ; CSoundManager::GetSoundInstance3D, COMDAT
; _this$ = ecx

; 308  : {

  00000	55		 push	 ebp
  00001	8b ec		 mov	 ebp, esp
  00003	51		 push	 ecx
  00004	51		 push	 ecx
  00005	89 4d f8	 mov	 DWORD PTR _this$[ebp], ecx

; 309  : 	int iIndex = ms_SoundManager3D.SetInstance(c_szFileName);

  00008	ff 75 08	 push	 DWORD PTR _c_szFileName$[ebp]
  0000b	b9 00 00 00 00	 mov	 ecx, OFFSET ?ms_SoundManager3D@CSoundManager@@1VCSoundManager3D@@A ; CSoundManager::ms_SoundManager3D
  00010	e8 00 00 00 00	 call	 ?SetInstance@CSoundManager3D@@QAEHPBD@Z ; CSoundManager3D::SetInstance
  00015	89 45 fc	 mov	 DWORD PTR _iIndex$[ebp], eax

; 310  : 
; 311  : 	if (-1 == iIndex)

  00018	83 7d fc ff	 cmp	 DWORD PTR _iIndex$[ebp], -1
  0001c	75 04		 jne	 SHORT $LN2@GetSoundIn

; 312  : 		return FALSE;

  0001e	33 c0		 xor	 eax, eax
  00020	eb 21		 jmp	 SHORT $LN1@GetSoundIn
$LN2@GetSoundIn:

; 313  : 
; 314  : 	*ppInstance = ms_SoundManager3D.GetInstance(iIndex);

  00022	ff 75 fc	 push	 DWORD PTR _iIndex$[ebp]
  00025	b9 00 00 00 00	 mov	 ecx, OFFSET ?ms_SoundManager3D@CSoundManager@@1VCSoundManager3D@@A ; CSoundManager::ms_SoundManager3D
  0002a	e8 00 00 00 00	 call	 ?GetInstance@CSoundManager3D@@QAEPAVISoundInstance@@K@Z ; CSoundManager3D::GetInstance
  0002f	8b 4d 0c	 mov	 ecx, DWORD PTR _ppInstance$[ebp]
  00032	89 01		 mov	 DWORD PTR [ecx], eax

; 315  : 
; 316  : 	if (!*ppInstance)

  00034	8b 45 0c	 mov	 eax, DWORD PTR _ppInstance$[ebp]
  00037	83 38 00	 cmp	 DWORD PTR [eax], 0
  0003a	75 04		 jne	 SHORT $LN3@GetSoundIn

; 317  : 		return FALSE;

  0003c	33 c0		 xor	 eax, eax
  0003e	eb 03		 jmp	 SHORT $LN1@GetSoundIn
$LN3@GetSoundIn:

; 318  : 
; 319  : 	return TRUE;

  00040	33 c0		 xor	 eax, eax
  00042	40		 inc	 eax
$LN1@GetSoundIn:

; 320  : }

  00043	c9		 leave
  00044	c2 08 00	 ret	 8
?GetSoundInstance3D@CSoundManager@@IAEHPBDPAPAVISoundInstance@@@Z ENDP ; CSoundManager::GetSoundInstance3D
_TEXT	ENDS
; Function compile flags: /Odspy
; File D:\Metin2 Server Files\mainline\SRC_2014\Metin2Client\MilesLib\SoundManager.cpp
;	COMDAT ?GetSoundInstance2D@CSoundManager@@IAEHPBDPAPAVISoundInstance@@@Z
_TEXT	SEGMENT
_this$ = -4						; size = 4
_c_szSoundFileName$ = 8					; size = 4
_ppInstance$ = 12					; size = 4
?GetSoundInstance2D@CSoundManager@@IAEHPBDPAPAVISoundInstance@@@Z PROC ; CSoundManager::GetSoundInstance2D, COMDAT
; _this$ = ecx

; 298  : {

  00000	55		 push	 ebp
  00001	8b ec		 mov	 ebp, esp
  00003	51		 push	 ecx
  00004	89 4d fc	 mov	 DWORD PTR _this$[ebp], ecx

; 299  : 	*ppInstance = ms_SoundManager2D.GetInstance(c_szSoundFileName);

  00007	ff 75 08	 push	 DWORD PTR _c_szSoundFileName$[ebp]
  0000a	b9 00 00 00 00	 mov	 ecx, OFFSET ?ms_SoundManager2D@CSoundManager@@1VCSoundManager2D@@A ; CSoundManager::ms_SoundManager2D
  0000f	e8 00 00 00 00	 call	 ?GetInstance@CSoundManager2D@@QAEPAVISoundInstance@@PBD@Z ; CSoundManager2D::GetInstance
  00014	8b 4d 0c	 mov	 ecx, DWORD PTR _ppInstance$[ebp]
  00017	89 01		 mov	 DWORD PTR [ecx], eax

; 300  : 
; 301  : 	if (!*ppInstance)

  00019	8b 45 0c	 mov	 eax, DWORD PTR _ppInstance$[ebp]
  0001c	83 38 00	 cmp	 DWORD PTR [eax], 0
  0001f	75 04		 jne	 SHORT $LN2@GetSoundIn

; 302  : 		return FALSE;

  00021	33 c0		 xor	 eax, eax
  00023	eb 03		 jmp	 SHORT $LN1@GetSoundIn
$LN2@GetSoundIn:

; 303  : 
; 304  : 	return TRUE;

  00025	33 c0		 xor	 eax, eax
  00027	40		 inc	 eax
$LN1@GetSoundIn:

; 305  : }

  00028	c9		 leave
  00029	c2 08 00	 ret	 8
?GetSoundInstance2D@CSoundManager@@IAEHPBDPAPAVISoundInstance@@@Z ENDP ; CSoundManager::GetSoundInstance2D
_TEXT	ENDS
; Function compile flags: /Odspy
; File D:\Metin2 Server Files\mainline\SRC_2014\Metin2Client\MilesLib\SoundManager.cpp
;	COMDAT ?__SetMusicVolume@CSoundManager@@IAEXM@Z
_TEXT	SEGMENT
_pInstance$1 = -16					; size = 4
_rMusicInstance$2 = -12					; size = 4
_i$3 = -8						; size = 4
_this$ = -4						; size = 4
_fVolume$ = 8						; size = 4
?__SetMusicVolume@CSoundManager@@IAEXM@Z PROC		; CSoundManager::__SetMusicVolume, COMDAT
; _this$ = ecx

; 217  : {

  00000	55		 push	 ebp
  00001	8b ec		 mov	 ebp, esp
  00003	83 ec 10	 sub	 esp, 16			; 00000010H
  00006	89 4d fc	 mov	 DWORD PTR _this$[ebp], ecx

; 218  : 	if (m_isSoundDisable)

  00009	8b 45 fc	 mov	 eax, DWORD PTR _this$[ebp]
  0000c	83 78 08 00	 cmp	 DWORD PTR [eax+8], 0
  00010	74 12		 je	 SHORT $LN5@SetMusicVo

; 219  : 	{
; 220  : 		m_fBackupMusicVolume = fVolume;

  00012	8b 45 fc	 mov	 eax, DWORD PTR _this$[ebp]
  00015	f3 0f 10 45 08	 movss	 xmm0, DWORD PTR _fVolume$[ebp]
  0001a	f3 0f 11 40 28	 movss	 DWORD PTR [eax+40], xmm0

; 221  : 		return;

  0001f	e9 d6 00 00 00	 jmp	 $LN1@SetMusicVo
$LN5@SetMusicVo:

; 222  : 	}
; 223  : 
; 224  : 	fVolume = fMAX(fVolume, 0.0f);

  00024	51		 push	 ecx
  00025	0f 57 c0	 xorps	 xmm0, xmm0
  00028	f3 0f 11 04 24	 movss	 DWORD PTR [esp], xmm0
  0002d	51		 push	 ecx
  0002e	f3 0f 10 45 08	 movss	 xmm0, DWORD PTR _fVolume$[ebp]
  00033	f3 0f 11 04 24	 movss	 DWORD PTR [esp], xmm0
  00038	e8 00 00 00 00	 call	 ?fMAX@@YAMMM@Z		; fMAX
  0003d	59		 pop	 ecx
  0003e	59		 pop	 ecx
  0003f	d9 5d 08	 fstp	 DWORD PTR _fVolume$[ebp]

; 225  : 	fVolume = fMIN(fVolume, 1.0f);

  00042	51		 push	 ecx
  00043	f3 0f 10 05 00
	00 00 00	 movss	 xmm0, DWORD PTR __real@3f800000
  0004b	f3 0f 11 04 24	 movss	 DWORD PTR [esp], xmm0
  00050	51		 push	 ecx
  00051	f3 0f 10 45 08	 movss	 xmm0, DWORD PTR _fVolume$[ebp]
  00056	f3 0f 11 04 24	 movss	 DWORD PTR [esp], xmm0
  0005b	e8 00 00 00 00	 call	 ?fMIN@@YAMMM@Z		; fMIN
  00060	59		 pop	 ecx
  00061	59		 pop	 ecx
  00062	d9 5d 08	 fstp	 DWORD PTR _fVolume$[ebp]

; 226  : 	m_fMusicVolume = fVolume;

  00065	8b 45 fc	 mov	 eax, DWORD PTR _this$[ebp]
  00068	f3 0f 10 45 08	 movss	 xmm0, DWORD PTR _fVolume$[ebp]
  0006d	f3 0f 11 40 24	 movss	 DWORD PTR [eax+36], xmm0

; 227  : 
; 228  : 	if (!m_isSoundDisable)

  00072	8b 45 fc	 mov	 eax, DWORD PTR _this$[ebp]
  00075	83 78 08 00	 cmp	 DWORD PTR [eax+8], 0
  00079	75 0d		 jne	 SHORT $LN6@SetMusicVo

; 229  : 	{
; 230  : 		m_fBackupMusicVolume = fVolume;

  0007b	8b 45 fc	 mov	 eax, DWORD PTR _this$[ebp]
  0007e	f3 0f 10 45 08	 movss	 xmm0, DWORD PTR _fVolume$[ebp]
  00083	f3 0f 11 40 28	 movss	 DWORD PTR [eax+40], xmm0
$LN6@SetMusicVo:

; 231  : 	}
; 232  : 
; 233  : 	for (int i = 0; i < CSoundManagerStream::MUSIC_INSTANCE_MAX_NUM; ++i)

  00088	83 65 f8 00	 and	 DWORD PTR _i$3[ebp], 0
  0008c	eb 07		 jmp	 SHORT $LN4@SetMusicVo
$LN2@SetMusicVo:
  0008e	8b 45 f8	 mov	 eax, DWORD PTR _i$3[ebp]
  00091	40		 inc	 eax
  00092	89 45 f8	 mov	 DWORD PTR _i$3[ebp], eax
$LN4@SetMusicVo:
  00095	83 7d f8 03	 cmp	 DWORD PTR _i$3[ebp], 3
  00099	7d 5f		 jge	 SHORT $LN3@SetMusicVo

; 234  : 	{
; 235  : 		TMusicInstance & rMusicInstance = m_MusicInstances[i];

  0009b	6b 45 f8 14	 imul	 eax, DWORD PTR _i$3[ebp], 20
  0009f	8b 4d fc	 mov	 ecx, DWORD PTR _this$[ebp]
  000a2	8d 44 01 30	 lea	 eax, DWORD PTR [ecx+eax+48]
  000a6	89 45 f4	 mov	 DWORD PTR _rMusicInstance$2[ebp], eax

; 236  : 		if (MUSIC_STATE_OFF == rMusicInstance.MusicState)

  000a9	8b 45 f4	 mov	 eax, DWORD PTR _rMusicInstance$2[ebp]
  000ac	83 78 04 00	 cmp	 DWORD PTR [eax+4], 0
  000b0	75 02		 jne	 SHORT $LN7@SetMusicVo

; 237  : 			continue;

  000b2	eb da		 jmp	 SHORT $LN2@SetMusicVo
$LN7@SetMusicVo:

; 238  : 		if (MUSIC_STATE_FADE_OUT == rMusicInstance.MusicState)

  000b4	8b 45 f4	 mov	 eax, DWORD PTR _rMusicInstance$2[ebp]
  000b7	83 78 04 03	 cmp	 DWORD PTR [eax+4], 3
  000bb	75 02		 jne	 SHORT $LN8@SetMusicVo

; 239  : 			continue;

  000bd	eb cf		 jmp	 SHORT $LN2@SetMusicVo
$LN8@SetMusicVo:

; 240  : 
; 241  : 		rMusicInstance.fVolume = fVolume;

  000bf	8b 45 f4	 mov	 eax, DWORD PTR _rMusicInstance$2[ebp]
  000c2	f3 0f 10 45 08	 movss	 xmm0, DWORD PTR _fVolume$[ebp]
  000c7	f3 0f 11 40 08	 movss	 DWORD PTR [eax+8], xmm0

; 242  : 
; 243  : 		CSoundInstanceStream * pInstance = ms_SoundManagerStream.GetInstance(i);

  000cc	ff 75 f8	 push	 DWORD PTR _i$3[ebp]
  000cf	b9 00 00 00 00	 mov	 ecx, OFFSET ?ms_SoundManagerStream@CSoundManager@@1VCSoundManagerStream@@A ; CSoundManager::ms_SoundManagerStream
  000d4	e8 00 00 00 00	 call	 ?GetInstance@CSoundManagerStream@@QAEPAVCSoundInstanceStream@@K@Z ; CSoundManagerStream::GetInstance
  000d9	89 45 f0	 mov	 DWORD PTR _pInstance$1[ebp], eax

; 244  : 		if (pInstance)

  000dc	83 7d f0 00	 cmp	 DWORD PTR _pInstance$1[ebp], 0
  000e0	74 16		 je	 SHORT $LN9@SetMusicVo

; 245  : 			pInstance->SetVolume(fVolume);

  000e2	51		 push	 ecx
  000e3	f3 0f 10 45 08	 movss	 xmm0, DWORD PTR _fVolume$[ebp]
  000e8	f3 0f 11 04 24	 movss	 DWORD PTR [esp], xmm0
  000ed	8b 45 f0	 mov	 eax, DWORD PTR _pInstance$1[ebp]
  000f0	8b 00		 mov	 eax, DWORD PTR [eax]
  000f2	8b 4d f0	 mov	 ecx, DWORD PTR _pInstance$1[ebp]
  000f5	ff 50 24	 call	 DWORD PTR [eax+36]
$LN9@SetMusicVo:

; 246  : 	}

  000f8	eb 94		 jmp	 SHORT $LN2@SetMusicVo
$LN3@SetMusicVo:
$LN1@SetMusicVo:

; 247  : }

  000fa	c9		 leave
  000fb	c2 04 00	 ret	 4
?__SetMusicVolume@CSoundManager@@IAEXM@Z ENDP		; CSoundManager::__SetMusicVolume
_TEXT	ENDS
; Function compile flags: /Odspy
; File D:\Metin2 Server Files\mainline\SRC_2014\Metin2Client\MilesLib\SoundManager.cpp
;	COMDAT ?__ConvertRatioVolumeToApplyVolume@CSoundManager@@IAEMM@Z
_TEXT	SEGMENT
_this$ = -8						; size = 4
tv80 = -4						; size = 4
_fRatioVolume$ = 8					; size = 4
?__ConvertRatioVolumeToApplyVolume@CSoundManager@@IAEMM@Z PROC ; CSoundManager::__ConvertRatioVolumeToApplyVolume, COMDAT
; _this$ = ecx

; 250  : {

  00000	55		 push	 ebp
  00001	8b ec		 mov	 ebp, esp
  00003	51		 push	 ecx
  00004	51		 push	 ecx
  00005	89 4d f8	 mov	 DWORD PTR _this$[ebp], ecx

; 251  : 	if (0.1f>fRatioVolume)

  00008	f3 0f 10 05 00
	00 00 00	 movss	 xmm0, DWORD PTR __real@3dcccccd
  00010	0f 2f 45 08	 comiss	 xmm0, DWORD PTR _fRatioVolume$[ebp]
  00014	76 05		 jbe	 SHORT $LN2@ConvertRat

; 252  : 		return fRatioVolume;

  00016	d9 45 08	 fld	 DWORD PTR _fRatioVolume$[ebp]
  00019	eb 35		 jmp	 SHORT $LN1@ConvertRat
$LN2@ConvertRat:

; 253  : 
; 254  : 	return (float)pow(10.0f, (-1.0f + fRatioVolume));

  0001b	f3 0f 10 05 00
	00 00 00	 movss	 xmm0, DWORD PTR __real@bf800000
  00023	f3 0f 58 45 08	 addss	 xmm0, DWORD PTR _fRatioVolume$[ebp]
  00028	f3 0f 5a c0	 cvtss2sd xmm0, xmm0
  0002c	51		 push	 ecx
  0002d	51		 push	 ecx
  0002e	f2 0f 11 04 24	 movsd	 QWORD PTR [esp], xmm0
  00033	51		 push	 ecx
  00034	51		 push	 ecx
  00035	f2 0f 10 05 00
	00 00 00	 movsd	 xmm0, QWORD PTR __real@4024000000000000
  0003d	f2 0f 11 04 24	 movsd	 QWORD PTR [esp], xmm0
  00042	e8 00 00 00 00	 call	 _pow
  00047	83 c4 10	 add	 esp, 16			; 00000010H
  0004a	d9 5d fc	 fstp	 DWORD PTR tv80[ebp]
  0004d	d9 45 fc	 fld	 DWORD PTR tv80[ebp]
$LN1@ConvertRat:

; 255  : }

  00050	c9		 leave
  00051	c2 04 00	 ret	 4
?__ConvertRatioVolumeToApplyVolume@CSoundManager@@IAEMM@Z ENDP ; CSoundManager::__ConvertRatioVolumeToApplyVolume
_TEXT	ENDS
; Function compile flags: /Odspy
; File D:\Metin2 Server Files\mainline\SRC_2014\Metin2Client\MilesLib\SoundManager.cpp
;	COMDAT ?__ConvertGradeVolumeToApplyVolume@CSoundManager@@IAEMH@Z
_TEXT	SEGMENT
_this$ = -4						; size = 4
_nGradeVolume$ = 8					; size = 4
?__ConvertGradeVolumeToApplyVolume@CSoundManager@@IAEMH@Z PROC ; CSoundManager::__ConvertGradeVolumeToApplyVolume, COMDAT
; _this$ = ecx

; 258  : {

  00000	55		 push	 ebp
  00001	8b ec		 mov	 ebp, esp
  00003	51		 push	 ecx
  00004	89 4d fc	 mov	 DWORD PTR _this$[ebp], ecx

; 259  : 	return __ConvertRatioVolumeToApplyVolume(nGradeVolume/5.0f);	

  00007	f3 0f 2a 45 08	 cvtsi2ss xmm0, DWORD PTR _nGradeVolume$[ebp]
  0000c	f3 0f 5e 05 00
	00 00 00	 divss	 xmm0, DWORD PTR __real@40a00000
  00014	51		 push	 ecx
  00015	f3 0f 11 04 24	 movss	 DWORD PTR [esp], xmm0
  0001a	8b 4d fc	 mov	 ecx, DWORD PTR _this$[ebp]
  0001d	e8 00 00 00 00	 call	 ?__ConvertRatioVolumeToApplyVolume@CSoundManager@@IAEMM@Z ; CSoundManager::__ConvertRatioVolumeToApplyVolume

; 260  : }

  00022	c9		 leave
  00023	c2 04 00	 ret	 4
?__ConvertGradeVolumeToApplyVolume@CSoundManager@@IAEMH@Z ENDP ; CSoundManager::__ConvertGradeVolumeToApplyVolume
_TEXT	ENDS
; Function compile flags: /Odspy
; File D:\Metin2 Server Files\mainline\SRC_2014\Metin2Client\MilesLib\SoundManager.cpp
; File C:\Program Files (x86)\Microsoft Visual Studio\2019\Community\VC\Tools\MSVC\14.28.29333\include\xstring
; File C:\Program Files (x86)\Microsoft Visual Studio\2019\Community\VC\Tools\MSVC\14.28.29333\include\xmemory
; File C:\Program Files (x86)\Microsoft Visual Studio\2019\Community\VC\Tools\MSVC\14.28.29333\include\xstring
; File D:\Metin2 Server Files\mainline\SRC_2014\Metin2Client\MilesLib\SoundManager.cpp
; File C:\Program Files (x86)\Microsoft Visual Studio\2019\Community\VC\Tools\MSVC\14.28.29333\include\xstring
; File D:\Metin2 Server Files\mainline\SRC_2014\Metin2Client\MilesLib\SoundManager.cpp
; File C:\Program Files (x86)\Microsoft Visual Studio\2019\Community\VC\Tools\MSVC\14.28.29333\include\xstring
; File D:\Metin2 Server Files\mainline\SRC_2014\Metin2Client\MilesLib\SoundManager.cpp
; File C:\Program Files (x86)\Microsoft Visual Studio\2019\Community\VC\Tools\MSVC\14.28.29333\include\xstring
; File D:\Metin2 Server Files\mainline\SRC_2014\Metin2Client\MilesLib\SoundManager.cpp
;	COMDAT ?GetMusicIndex@CSoundManager@@IAEHPBDPAK@Z
_TEXT	SEGMENT
$T2 = -72						; size = 4
$T3 = -68						; size = 4
_dwCRC$ = -64						; size = 4
_this$ = -60						; size = 4
$T4 = -56						; size = 4
_this$ = -52						; size = 4
_c_rMusicInstance$5 = -48				; size = 4
_i$6 = -44						; size = 4
_strFileName$ = -40					; size = 24
__$ArrayPad$ = -16					; size = 4
__$EHRec$ = -12						; size = 12
_c_szFileName$ = 8					; size = 4
_pdwIndex$ = 12						; size = 4
?GetMusicIndex@CSoundManager@@IAEHPBDPAK@Z PROC		; CSoundManager::GetMusicIndex, COMDAT
; _this$ = ecx

; 621  : {

  00000	55		 push	 ebp
  00001	8b ec		 mov	 ebp, esp
  00003	6a ff		 push	 -1
  00005	68 00 00 00 00	 push	 __ehhandler$?GetMusicIndex@CSoundManager@@IAEHPBDPAK@Z
  0000a	64 a1 00 00 00
	00		 mov	 eax, DWORD PTR fs:0
  00010	50		 push	 eax
  00011	83 ec 3c	 sub	 esp, 60			; 0000003cH
  00014	a1 00 00 00 00	 mov	 eax, DWORD PTR ___security_cookie
  00019	33 c5		 xor	 eax, ebp
  0001b	89 45 f0	 mov	 DWORD PTR __$ArrayPad$[ebp], eax
  0001e	50		 push	 eax
  0001f	8d 45 f4	 lea	 eax, DWORD PTR __$EHRec$[ebp]
  00022	64 a3 00 00 00
	00		 mov	 DWORD PTR fs:0, eax
  00028	89 4d c4	 mov	 DWORD PTR _this$[ebp], ecx
; File C:\Program Files (x86)\Microsoft Visual Studio\2019\Community\VC\Tools\MSVC\14.28.29333\include\xstring

; 2365 :     basic_string() noexcept(is_nothrow_default_constructible_v<_Alty>) : _Mypair(_Zero_then_variadic_args_t{}) {

  0002b	8d 45 d8	 lea	 eax, DWORD PTR _strFileName$[ebp]
  0002e	89 45 cc	 mov	 DWORD PTR _this$[ebp], eax
; File C:\Program Files (x86)\Microsoft Visual Studio\2019\Community\VC\Tools\MSVC\14.28.29333\include\xmemory

; 1339 :         : _Ty1(), _Myval2(_STD forward<_Other2>(_Val2)...) {}

  00031	8b 4d cc	 mov	 ecx, DWORD PTR _this$[ebp]
  00034	e8 00 00 00 00	 call	 ??0?$_String_val@U?$_Simple_types@D@std@@@std@@QAE@XZ ; std::_String_val<std::_Simple_types<char> >::_String_val<std::_Simple_types<char> >
; File C:\Program Files (x86)\Microsoft Visual Studio\2019\Community\VC\Tools\MSVC\14.28.29333\include\xstring

; 2367 :         _Tidy_init();

  00039	8d 4d d8	 lea	 ecx, DWORD PTR _strFileName$[ebp]
  0003c	e8 00 00 00 00	 call	 ?_Tidy_init@?$basic_string@DU?$char_traits@D@std@@V?$allocator@D@2@@std@@AAEXXZ ; std::basic_string<char,std::char_traits<char>,std::allocator<char> >::_Tidy_init
; File D:\Metin2 Server Files\mainline\SRC_2014\Metin2Client\MilesLib\SoundManager.cpp

; 622  : 	std::string strFileName;

  00041	83 65 fc 00	 and	 DWORD PTR __$EHRec$[ebp+8], 0

; 623  : 	StringPath(c_szFileName, strFileName);

  00045	8d 45 d8	 lea	 eax, DWORD PTR _strFileName$[ebp]
  00048	50		 push	 eax
  00049	ff 75 08	 push	 DWORD PTR _c_szFileName$[ebp]
  0004c	e8 00 00 00 00	 call	 ?StringPath@@YAXPBDAAV?$basic_string@DU?$char_traits@D@std@@V?$allocator@D@2@@std@@@Z ; StringPath
  00051	59		 pop	 ecx
  00052	59		 pop	 ecx
; File C:\Program Files (x86)\Microsoft Visual Studio\2019\Community\VC\Tools\MSVC\14.28.29333\include\xstring

; 3766 :         return _Mypair._Myval2._Mysize;

  00053	8b 45 e8	 mov	 eax, DWORD PTR _strFileName$[ebp+16]
  00056	89 45 c8	 mov	 DWORD PTR $T4[ebp], eax
; File D:\Metin2 Server Files\mainline\SRC_2014\Metin2Client\MilesLib\SoundManager.cpp

; 624  : 	DWORD dwCRC = GetCaseCRC32(strFileName.c_str(), strFileName.length());

  00059	ff 75 c8	 push	 DWORD PTR $T4[ebp]
  0005c	8d 4d d8	 lea	 ecx, DWORD PTR _strFileName$[ebp]
  0005f	e8 00 00 00 00	 call	 ?c_str@?$basic_string@DU?$char_traits@D@std@@V?$allocator@D@2@@std@@QBEPBDXZ ; std::basic_string<char,std::char_traits<char>,std::allocator<char> >::c_str
  00064	50		 push	 eax
  00065	e8 00 00 00 00	 call	 ?GetCaseCRC32@@YAKPBDI@Z ; GetCaseCRC32
  0006a	59		 pop	 ecx
  0006b	59		 pop	 ecx
  0006c	89 45 c0	 mov	 DWORD PTR _dwCRC$[ebp], eax

; 625  : 
; 626  : 	for (int i = 0; i < CSoundManagerStream::MUSIC_INSTANCE_MAX_NUM; ++i)

  0006f	83 65 d4 00	 and	 DWORD PTR _i$6[ebp], 0
  00073	eb 07		 jmp	 SHORT $LN4@GetMusicIn
$LN2@GetMusicIn:
  00075	8b 45 d4	 mov	 eax, DWORD PTR _i$6[ebp]
  00078	40		 inc	 eax
  00079	89 45 d4	 mov	 DWORD PTR _i$6[ebp], eax
$LN4@GetMusicIn:
  0007c	83 7d d4 03	 cmp	 DWORD PTR _i$6[ebp], 3
  00080	7d 43		 jge	 SHORT $LN3@GetMusicIn

; 627  : 	{
; 628  : 		const TMusicInstance & c_rMusicInstance = m_MusicInstances[i];

  00082	6b 45 d4 14	 imul	 eax, DWORD PTR _i$6[ebp], 20
  00086	8b 4d c4	 mov	 ecx, DWORD PTR _this$[ebp]
  00089	8d 44 01 30	 lea	 eax, DWORD PTR [ecx+eax+48]
  0008d	89 45 d0	 mov	 DWORD PTR _c_rMusicInstance$5[ebp], eax

; 629  : 		if (MUSIC_STATE_OFF != c_rMusicInstance.MusicState)

  00090	8b 45 d0	 mov	 eax, DWORD PTR _c_rMusicInstance$5[ebp]
  00093	83 78 04 00	 cmp	 DWORD PTR [eax+4], 0
  00097	74 2a		 je	 SHORT $LN5@GetMusicIn

; 630  : 		if (c_rMusicInstance.dwMusicFileNameCRC == dwCRC)

  00099	8b 45 d0	 mov	 eax, DWORD PTR _c_rMusicInstance$5[ebp]
  0009c	8b 00		 mov	 eax, DWORD PTR [eax]
  0009e	3b 45 c0	 cmp	 eax, DWORD PTR _dwCRC$[ebp]
  000a1	75 20		 jne	 SHORT $LN5@GetMusicIn

; 631  : 		{
; 632  : 			*pdwIndex = i;

  000a3	8b 45 0c	 mov	 eax, DWORD PTR _pdwIndex$[ebp]
  000a6	8b 4d d4	 mov	 ecx, DWORD PTR _i$6[ebp]
  000a9	89 08		 mov	 DWORD PTR [eax], ecx

; 633  : 			return TRUE;

  000ab	c7 45 bc 01 00
	00 00		 mov	 DWORD PTR $T3[ebp], 1
  000b2	83 4d fc ff	 or	 DWORD PTR __$EHRec$[ebp+8], -1
; File C:\Program Files (x86)\Microsoft Visual Studio\2019\Community\VC\Tools\MSVC\14.28.29333\include\xstring

; 2801 :         _Tidy_deallocate();

  000b6	8d 4d d8	 lea	 ecx, DWORD PTR _strFileName$[ebp]
  000b9	e8 00 00 00 00	 call	 ?_Tidy_deallocate@?$basic_string@DU?$char_traits@D@std@@V?$allocator@D@2@@std@@AAEXXZ ; std::basic_string<char,std::char_traits<char>,std::allocator<char> >::_Tidy_deallocate
; File D:\Metin2 Server Files\mainline\SRC_2014\Metin2Client\MilesLib\SoundManager.cpp

; 633  : 			return TRUE;

  000be	8b 45 bc	 mov	 eax, DWORD PTR $T3[ebp]
  000c1	eb 15		 jmp	 SHORT $LN1@GetMusicIn
$LN5@GetMusicIn:

; 634  : 		}
; 635  : 	}

  000c3	eb b0		 jmp	 SHORT $LN2@GetMusicIn
$LN3@GetMusicIn:

; 637  : 	return FALSE;

  000c5	83 65 b8 00	 and	 DWORD PTR $T2[ebp], 0
  000c9	83 4d fc ff	 or	 DWORD PTR __$EHRec$[ebp+8], -1
; File C:\Program Files (x86)\Microsoft Visual Studio\2019\Community\VC\Tools\MSVC\14.28.29333\include\xstring

; 2801 :         _Tidy_deallocate();

  000cd	8d 4d d8	 lea	 ecx, DWORD PTR _strFileName$[ebp]
  000d0	e8 00 00 00 00	 call	 ?_Tidy_deallocate@?$basic_string@DU?$char_traits@D@std@@V?$allocator@D@2@@std@@AAEXXZ ; std::basic_string<char,std::char_traits<char>,std::allocator<char> >::_Tidy_deallocate
; File D:\Metin2 Server Files\mainline\SRC_2014\Metin2Client\MilesLib\SoundManager.cpp

; 637  : 	return FALSE;

  000d5	8b 45 b8	 mov	 eax, DWORD PTR $T2[ebp]
$LN1@GetMusicIn:

; 638  : }

  000d8	8b 4d f4	 mov	 ecx, DWORD PTR __$EHRec$[ebp]
  000db	64 89 0d 00 00
	00 00		 mov	 DWORD PTR fs:0, ecx
  000e2	59		 pop	 ecx
  000e3	8b 4d f0	 mov	 ecx, DWORD PTR __$ArrayPad$[ebp]
  000e6	33 cd		 xor	 ecx, ebp
  000e8	e8 00 00 00 00	 call	 @__security_check_cookie@4
  000ed	c9		 leave
  000ee	c2 08 00	 ret	 8
_TEXT	ENDS
;	COMDAT text$x
text$x	SEGMENT
__unwindfunclet$?GetMusicIndex@CSoundManager@@IAEHPBDPAK@Z$0:
  00000	8d 4d d8	 lea	 ecx, DWORD PTR _strFileName$[ebp]
  00003	e9 00 00 00 00	 jmp	 ??1?$basic_string@DU?$char_traits@D@std@@V?$allocator@D@2@@std@@QAE@XZ ; std::basic_string<char,std::char_traits<char>,std::allocator<char> >::~basic_string<char,std::char_traits<char>,std::allocator<char> >
  00008	cc		 int	 3
  00009	cc		 int	 3
  0000a	cc		 int	 3
  0000b	cc		 int	 3
  0000c	cc		 int	 3
__ehhandler$?GetMusicIndex@CSoundManager@@IAEHPBDPAK@Z:
  0000d	90		 npad	 1
  0000e	90		 npad	 1
  0000f	8b 54 24 08	 mov	 edx, DWORD PTR [esp+8]
  00013	8d 42 0c	 lea	 eax, DWORD PTR [edx+12]
  00016	8b 4a c0	 mov	 ecx, DWORD PTR [edx-64]
  00019	33 c8		 xor	 ecx, eax
  0001b	e8 00 00 00 00	 call	 @__security_check_cookie@4
  00020	8b 4a fc	 mov	 ecx, DWORD PTR [edx-4]
  00023	33 c8		 xor	 ecx, eax
  00025	e8 00 00 00 00	 call	 @__security_check_cookie@4
  0002a	b8 00 00 00 00	 mov	 eax, OFFSET __ehfuncinfo$?GetMusicIndex@CSoundManager@@IAEHPBDPAK@Z
  0002f	e9 00 00 00 00	 jmp	 ___CxxFrameHandler3
text$x	ENDS
?GetMusicIndex@CSoundManager@@IAEHPBDPAK@Z ENDP		; CSoundManager::GetMusicIndex
; Function compile flags: /Odspy
; File D:\Metin2 Server Files\mainline\SRC_2014\Metin2Client\MilesLib\SoundManager.cpp
;	COMDAT ?StopMusic@CSoundManager@@IAEXK@Z
_TEXT	SEGMENT
_this$ = -12						; size = 4
_pInstance$ = -8					; size = 4
_rMusicInstance$ = -4					; size = 4
_dwIndex$ = 8						; size = 4
?StopMusic@CSoundManager@@IAEXK@Z PROC			; CSoundManager::StopMusic, COMDAT
; _this$ = ecx

; 603  : {

  00000	55		 push	 ebp
  00001	8b ec		 mov	 ebp, esp
  00003	83 ec 0c	 sub	 esp, 12			; 0000000cH
  00006	89 4d f4	 mov	 DWORD PTR _this$[ebp], ecx

; 604  : 	if (dwIndex >= CSoundManagerStream::MUSIC_INSTANCE_MAX_NUM)

  00009	83 7d 08 03	 cmp	 DWORD PTR _dwIndex$[ebp], 3
  0000d	72 02		 jb	 SHORT $LN2@StopMusic

; 605  : 		return;

  0000f	eb 54		 jmp	 SHORT $LN1@StopMusic
$LN2@StopMusic:

; 606  : 
; 607  : 	CSoundInstanceStream * pInstance = ms_SoundManagerStream.GetInstance(dwIndex);

  00011	ff 75 08	 push	 DWORD PTR _dwIndex$[ebp]
  00014	b9 00 00 00 00	 mov	 ecx, OFFSET ?ms_SoundManagerStream@CSoundManager@@1VCSoundManagerStream@@A ; CSoundManager::ms_SoundManagerStream
  00019	e8 00 00 00 00	 call	 ?GetInstance@CSoundManagerStream@@QAEPAVCSoundInstanceStream@@K@Z ; CSoundManagerStream::GetInstance
  0001e	89 45 f8	 mov	 DWORD PTR _pInstance$[ebp], eax

; 608  : 	if (!pInstance)

  00021	83 7d f8 00	 cmp	 DWORD PTR _pInstance$[ebp], 0
  00025	75 02		 jne	 SHORT $LN3@StopMusic

; 609  : 		return;

  00027	eb 3c		 jmp	 SHORT $LN1@StopMusic
$LN3@StopMusic:

; 610  : 
; 611  : 	pInstance->Stop();

  00029	8b 45 f8	 mov	 eax, DWORD PTR _pInstance$[ebp]
  0002c	8b 00		 mov	 eax, DWORD PTR [eax]
  0002e	8b 4d f8	 mov	 ecx, DWORD PTR _pInstance$[ebp]
  00031	ff 50 1c	 call	 DWORD PTR [eax+28]

; 612  : 
; 613  : 	TMusicInstance & rMusicInstance = m_MusicInstances[dwIndex];

  00034	6b 45 08 14	 imul	 eax, DWORD PTR _dwIndex$[ebp], 20
  00038	8b 4d f4	 mov	 ecx, DWORD PTR _this$[ebp]
  0003b	8d 44 01 30	 lea	 eax, DWORD PTR [ecx+eax+48]
  0003f	89 45 fc	 mov	 DWORD PTR _rMusicInstance$[ebp], eax

; 614  : 	rMusicInstance.fVolume = 0.0f;

  00042	8b 45 fc	 mov	 eax, DWORD PTR _rMusicInstance$[ebp]
  00045	0f 57 c0	 xorps	 xmm0, xmm0
  00048	f3 0f 11 40 08	 movss	 DWORD PTR [eax+8], xmm0

; 615  : 	rMusicInstance.fVolumeSpeed = 0.0f;

  0004d	8b 45 fc	 mov	 eax, DWORD PTR _rMusicInstance$[ebp]
  00050	0f 57 c0	 xorps	 xmm0, xmm0
  00053	f3 0f 11 40 10	 movss	 DWORD PTR [eax+16], xmm0

; 616  : 	rMusicInstance.MusicState = MUSIC_STATE_OFF;

  00058	8b 45 fc	 mov	 eax, DWORD PTR _rMusicInstance$[ebp]
  0005b	83 60 04 00	 and	 DWORD PTR [eax+4], 0

; 617  : 	rMusicInstance.dwMusicFileNameCRC = 0;

  0005f	8b 45 fc	 mov	 eax, DWORD PTR _rMusicInstance$[ebp]
  00062	83 20 00	 and	 DWORD PTR [eax], 0
$LN1@StopMusic:

; 618  : }

  00065	c9		 leave
  00066	c2 04 00	 ret	 4
?StopMusic@CSoundManager@@IAEXK@Z ENDP			; CSoundManager::StopMusic
_TEXT	ENDS
; Function compile flags: /Odspy
; File D:\Metin2 Server Files\mainline\SRC_2014\Metin2Client\MilesLib\SoundManager.cpp
; File C:\Program Files (x86)\Microsoft Visual Studio\2019\Community\VC\Tools\MSVC\14.28.29333\include\xstring
; File D:\Metin2 Server Files\mainline\SRC_2014\Metin2Client\MilesLib\SoundManager.cpp
; File C:\Program Files (x86)\Microsoft Visual Studio\2019\Community\VC\Tools\MSVC\14.28.29333\include\xstring
; File D:\Metin2 Server Files\mainline\SRC_2014\Metin2Client\MilesLib\SoundManager.cpp
;	COMDAT ?PlayMusic@CSoundManager@@IAEXKPBDMM@Z
_TEXT	SEGMENT
$T2 = -56						; size = 4
_this$ = -52						; size = 4
_rMusicInstance$ = -48					; size = 4
_pInstance$ = -44					; size = 4
_strFileName$ = -40					; size = 24
__$ArrayPad$ = -16					; size = 4
__$EHRec$ = -12						; size = 12
_dwIndex$ = 8						; size = 4
_c_szFileName$ = 12					; size = 4
_fVolume$ = 16						; size = 4
_fVolumeSpeed$ = 20					; size = 4
?PlayMusic@CSoundManager@@IAEXKPBDMM@Z PROC		; CSoundManager::PlayMusic, COMDAT
; _this$ = ecx

; 572  : {

  00000	55		 push	 ebp
  00001	8b ec		 mov	 ebp, esp
  00003	6a ff		 push	 -1
  00005	68 00 00 00 00	 push	 __ehhandler$?PlayMusic@CSoundManager@@IAEXKPBDMM@Z
  0000a	64 a1 00 00 00
	00		 mov	 eax, DWORD PTR fs:0
  00010	50		 push	 eax
  00011	83 ec 2c	 sub	 esp, 44			; 0000002cH
  00014	a1 00 00 00 00	 mov	 eax, DWORD PTR ___security_cookie
  00019	33 c5		 xor	 eax, ebp
  0001b	89 45 f0	 mov	 DWORD PTR __$ArrayPad$[ebp], eax
  0001e	50		 push	 eax
  0001f	8d 45 f4	 lea	 eax, DWORD PTR __$EHRec$[ebp]
  00022	64 a3 00 00 00
	00		 mov	 DWORD PTR fs:0, eax
  00028	89 4d cc	 mov	 DWORD PTR _this$[ebp], ecx

; 573  : 	if (dwIndex >= CSoundManagerStream::MUSIC_INSTANCE_MAX_NUM)

  0002b	83 7d 08 03	 cmp	 DWORD PTR _dwIndex$[ebp], 3
  0002f	72 05		 jb	 SHORT $LN2@PlayMusic

; 574  : 		return;

  00031	e9 f0 00 00 00	 jmp	 $LN1@PlayMusic
$LN2@PlayMusic:

; 575  : 
; 576  : 	if (!ms_SoundManagerStream.SetInstance(dwIndex, c_szFileName))

  00036	ff 75 0c	 push	 DWORD PTR _c_szFileName$[ebp]
  00039	ff 75 08	 push	 DWORD PTR _dwIndex$[ebp]
  0003c	b9 00 00 00 00	 mov	 ecx, OFFSET ?ms_SoundManagerStream@CSoundManager@@1VCSoundManagerStream@@A ; CSoundManager::ms_SoundManagerStream
  00041	e8 00 00 00 00	 call	 ?SetInstance@CSoundManagerStream@@QAE_NKPBD@Z ; CSoundManagerStream::SetInstance
  00046	0f b6 c0	 movzx	 eax, al
  00049	85 c0		 test	 eax, eax
  0004b	75 14		 jne	 SHORT $LN3@PlayMusic

; 577  : 	{
; 578  : 		TraceError("CSoundManager::PlayMusic - Failed to load stream sound : %s", c_szFileName);

  0004d	ff 75 0c	 push	 DWORD PTR _c_szFileName$[ebp]
  00050	68 00 00 00 00	 push	 OFFSET ??_C@_0DM@BCCLJDHL@CSoundManager?3?3PlayMusic?5?9?5Fail@
  00055	e8 00 00 00 00	 call	 ?TraceError@@YAXPBDZZ	; TraceError
  0005a	59		 pop	 ecx
  0005b	59		 pop	 ecx

; 579  : 		return;

  0005c	e9 c5 00 00 00	 jmp	 $LN1@PlayMusic
$LN3@PlayMusic:

; 580  : 	}
; 581  : 
; 582  : 	CSoundInstanceStream * pInstance = ms_SoundManagerStream.GetInstance(dwIndex);

  00061	ff 75 08	 push	 DWORD PTR _dwIndex$[ebp]
  00064	b9 00 00 00 00	 mov	 ecx, OFFSET ?ms_SoundManagerStream@CSoundManager@@1VCSoundManagerStream@@A ; CSoundManager::ms_SoundManagerStream
  00069	e8 00 00 00 00	 call	 ?GetInstance@CSoundManagerStream@@QAEPAVCSoundInstanceStream@@K@Z ; CSoundManagerStream::GetInstance
  0006e	89 45 d4	 mov	 DWORD PTR _pInstance$[ebp], eax

; 583  : 	if (!pInstance)

  00071	83 7d d4 00	 cmp	 DWORD PTR _pInstance$[ebp], 0
  00075	75 14		 jne	 SHORT $LN4@PlayMusic

; 584  : 	{
; 585  : 		TraceError("CSoundManager::PlayMusic - There is no stream sound instance : %s", c_szFileName);

  00077	ff 75 0c	 push	 DWORD PTR _c_szFileName$[ebp]
  0007a	68 00 00 00 00	 push	 OFFSET ??_C@_0EC@EPLOEFBK@CSoundManager?3?3PlayMusic?5?9?5Ther@
  0007f	e8 00 00 00 00	 call	 ?TraceError@@YAXPBDZZ	; TraceError
  00084	59		 pop	 ecx
  00085	59		 pop	 ecx

; 586  : 		return;

  00086	e9 9b 00 00 00	 jmp	 $LN1@PlayMusic
$LN4@PlayMusic:

; 587  : 	}
; 588  : 
; 589  : 	pInstance->SetVolume(fVolume);

  0008b	51		 push	 ecx
  0008c	f3 0f 10 45 10	 movss	 xmm0, DWORD PTR _fVolume$[ebp]
  00091	f3 0f 11 04 24	 movss	 DWORD PTR [esp], xmm0
  00096	8b 45 d4	 mov	 eax, DWORD PTR _pInstance$[ebp]
  00099	8b 00		 mov	 eax, DWORD PTR [eax]
  0009b	8b 4d d4	 mov	 ecx, DWORD PTR _pInstance$[ebp]
  0009e	ff 50 24	 call	 DWORD PTR [eax+36]

; 590  : 	pInstance->Play(0);

  000a1	6a 00		 push	 0
  000a3	6a 00		 push	 0
  000a5	8b 45 d4	 mov	 eax, DWORD PTR _pInstance$[ebp]
  000a8	8b 00		 mov	 eax, DWORD PTR [eax]
  000aa	8b 4d d4	 mov	 ecx, DWORD PTR _pInstance$[ebp]
  000ad	ff 50 10	 call	 DWORD PTR [eax+16]

; 591  : 
; 592  : 	TMusicInstance & rMusicInstance = m_MusicInstances[dwIndex];

  000b0	6b 45 08 14	 imul	 eax, DWORD PTR _dwIndex$[ebp], 20
  000b4	8b 4d cc	 mov	 ecx, DWORD PTR _this$[ebp]
  000b7	8d 44 01 30	 lea	 eax, DWORD PTR [ecx+eax+48]
  000bb	89 45 d0	 mov	 DWORD PTR _rMusicInstance$[ebp], eax

; 593  : 	rMusicInstance.fVolume = fVolume;

  000be	8b 45 d0	 mov	 eax, DWORD PTR _rMusicInstance$[ebp]
  000c1	f3 0f 10 45 10	 movss	 xmm0, DWORD PTR _fVolume$[ebp]
  000c6	f3 0f 11 40 08	 movss	 DWORD PTR [eax+8], xmm0

; 594  : 	rMusicInstance.fVolumeSpeed = fVolumeSpeed;

  000cb	8b 45 d0	 mov	 eax, DWORD PTR _rMusicInstance$[ebp]
  000ce	f3 0f 10 45 14	 movss	 xmm0, DWORD PTR _fVolumeSpeed$[ebp]
  000d3	f3 0f 11 40 10	 movss	 DWORD PTR [eax+16], xmm0

; 595  : 	rMusicInstance.MusicState = MUSIC_STATE_FADE_IN;

  000d8	8b 45 d0	 mov	 eax, DWORD PTR _rMusicInstance$[ebp]
  000db	c7 40 04 02 00
	00 00		 mov	 DWORD PTR [eax+4], 2

; 596  : 
; 597  : 	std::string strFileName;

  000e2	8d 4d d8	 lea	 ecx, DWORD PTR _strFileName$[ebp]
  000e5	e8 00 00 00 00	 call	 ??0?$basic_string@DU?$char_traits@D@std@@V?$allocator@D@2@@std@@QAE@XZ ; std::basic_string<char,std::char_traits<char>,std::allocator<char> >::basic_string<char,std::char_traits<char>,std::allocator<char> >
  000ea	83 65 fc 00	 and	 DWORD PTR __$EHRec$[ebp+8], 0

; 598  : 	StringPath(c_szFileName, strFileName);

  000ee	8d 45 d8	 lea	 eax, DWORD PTR _strFileName$[ebp]
  000f1	50		 push	 eax
  000f2	ff 75 0c	 push	 DWORD PTR _c_szFileName$[ebp]
  000f5	e8 00 00 00 00	 call	 ?StringPath@@YAXPBDAAV?$basic_string@DU?$char_traits@D@std@@V?$allocator@D@2@@std@@@Z ; StringPath
  000fa	59		 pop	 ecx
  000fb	59		 pop	 ecx
; File C:\Program Files (x86)\Microsoft Visual Studio\2019\Community\VC\Tools\MSVC\14.28.29333\include\xstring

; 3766 :         return _Mypair._Myval2._Mysize;

  000fc	8b 45 e8	 mov	 eax, DWORD PTR _strFileName$[ebp+16]
  000ff	89 45 c8	 mov	 DWORD PTR $T2[ebp], eax
; File D:\Metin2 Server Files\mainline\SRC_2014\Metin2Client\MilesLib\SoundManager.cpp

; 599  : 	rMusicInstance.dwMusicFileNameCRC = GetCaseCRC32(strFileName.c_str(), strFileName.length());

  00102	ff 75 c8	 push	 DWORD PTR $T2[ebp]
  00105	8d 4d d8	 lea	 ecx, DWORD PTR _strFileName$[ebp]
  00108	e8 00 00 00 00	 call	 ?c_str@?$basic_string@DU?$char_traits@D@std@@V?$allocator@D@2@@std@@QBEPBDXZ ; std::basic_string<char,std::char_traits<char>,std::allocator<char> >::c_str
  0010d	50		 push	 eax
  0010e	e8 00 00 00 00	 call	 ?GetCaseCRC32@@YAKPBDI@Z ; GetCaseCRC32
  00113	59		 pop	 ecx
  00114	59		 pop	 ecx
  00115	8b 4d d0	 mov	 ecx, DWORD PTR _rMusicInstance$[ebp]
  00118	89 01		 mov	 DWORD PTR [ecx], eax

; 600  : }

  0011a	83 4d fc ff	 or	 DWORD PTR __$EHRec$[ebp+8], -1
; File C:\Program Files (x86)\Microsoft Visual Studio\2019\Community\VC\Tools\MSVC\14.28.29333\include\xstring

; 2801 :         _Tidy_deallocate();

  0011e	8d 4d d8	 lea	 ecx, DWORD PTR _strFileName$[ebp]
  00121	e8 00 00 00 00	 call	 ?_Tidy_deallocate@?$basic_string@DU?$char_traits@D@std@@V?$allocator@D@2@@std@@AAEXXZ ; std::basic_string<char,std::char_traits<char>,std::allocator<char> >::_Tidy_deallocate
$LN1@PlayMusic:
; File D:\Metin2 Server Files\mainline\SRC_2014\Metin2Client\MilesLib\SoundManager.cpp

; 600  : }

  00126	8b 4d f4	 mov	 ecx, DWORD PTR __$EHRec$[ebp]
  00129	64 89 0d 00 00
	00 00		 mov	 DWORD PTR fs:0, ecx
  00130	59		 pop	 ecx
  00131	8b 4d f0	 mov	 ecx, DWORD PTR __$ArrayPad$[ebp]
  00134	33 cd		 xor	 ecx, ebp
  00136	e8 00 00 00 00	 call	 @__security_check_cookie@4
  0013b	c9		 leave
  0013c	c2 10 00	 ret	 16			; 00000010H
_TEXT	ENDS
;	COMDAT text$x
text$x	SEGMENT
__unwindfunclet$?PlayMusic@CSoundManager@@IAEXKPBDMM@Z$0:
  00000	8d 4d d8	 lea	 ecx, DWORD PTR _strFileName$[ebp]
  00003	e9 00 00 00 00	 jmp	 ??1?$basic_string@DU?$char_traits@D@std@@V?$allocator@D@2@@std@@QAE@XZ ; std::basic_string<char,std::char_traits<char>,std::allocator<char> >::~basic_string<char,std::char_traits<char>,std::allocator<char> >
  00008	cc		 int	 3
  00009	cc		 int	 3
  0000a	cc		 int	 3
  0000b	cc		 int	 3
  0000c	cc		 int	 3
__ehhandler$?PlayMusic@CSoundManager@@IAEXKPBDMM@Z:
  0000d	90		 npad	 1
  0000e	90		 npad	 1
  0000f	8b 54 24 08	 mov	 edx, DWORD PTR [esp+8]
  00013	8d 42 0c	 lea	 eax, DWORD PTR [edx+12]
  00016	8b 4a d0	 mov	 ecx, DWORD PTR [edx-48]
  00019	33 c8		 xor	 ecx, eax
  0001b	e8 00 00 00 00	 call	 @__security_check_cookie@4
  00020	8b 4a fc	 mov	 ecx, DWORD PTR [edx-4]
  00023	33 c8		 xor	 ecx, eax
  00025	e8 00 00 00 00	 call	 @__security_check_cookie@4
  0002a	b8 00 00 00 00	 mov	 eax, OFFSET __ehfuncinfo$?PlayMusic@CSoundManager@@IAEXKPBDMM@Z
  0002f	e9 00 00 00 00	 jmp	 ___CxxFrameHandler3
text$x	ENDS
?PlayMusic@CSoundManager@@IAEXKPBDMM@Z ENDP		; CSoundManager::PlayMusic
; Function compile flags: /Odspy
; File D:\Metin2 Server Files\mainline\SRC_2014\Metin2Client\MilesLib\SoundManager.cpp
; File C:\Program Files (x86)\Microsoft Visual Studio\2019\Community\VC\Tools\MSVC\14.28.29333\include\vector
; File D:\Metin2 Server Files\mainline\SRC_2014\Metin2Client\MilesLib\SoundManager.cpp
;	COMDAT ?UpdateSoundInstance@CSoundManager@@QAEXKPBV?$vector@USSoundInstance@NSound@@V?$allocator@USSoundInstance@NSound@@@std@@@std@@@Z
_TEXT	SEGMENT
_this$ = -20						; size = 4
$T1 = -16						; size = 4
_c_rSoundInstance$2 = -12				; size = 4
__My_data$3 = -8					; size = 4
_i$4 = -4						; size = 4
_dwcurFrame$ = 8					; size = 4
_c_pSoundInstanceVector$ = 12				; size = 4
?UpdateSoundInstance@CSoundManager@@QAEXKPBV?$vector@USSoundInstance@NSound@@V?$allocator@USSoundInstance@NSound@@@std@@@std@@@Z PROC ; CSoundManager::UpdateSoundInstance, COMDAT
; _this$ = ecx

; 171  : {

  00000	55		 push	 ebp
  00001	8b ec		 mov	 ebp, esp
  00003	83 ec 14	 sub	 esp, 20			; 00000014H
  00006	89 4d ec	 mov	 DWORD PTR _this$[ebp], ecx

; 172  : 	for (DWORD i = 0; i < c_pSoundInstanceVector->size(); ++i)

  00009	83 65 fc 00	 and	 DWORD PTR _i$4[ebp], 0
  0000d	eb 07		 jmp	 SHORT $LN4@UpdateSoun
$LN2@UpdateSoun:
  0000f	8b 45 fc	 mov	 eax, DWORD PTR _i$4[ebp]
  00012	40		 inc	 eax
  00013	89 45 fc	 mov	 DWORD PTR _i$4[ebp], eax
$LN4@UpdateSoun:
; File C:\Program Files (x86)\Microsoft Visual Studio\2019\Community\VC\Tools\MSVC\14.28.29333\include\vector

; 1483 :         auto& _My_data = _Mypair._Myval2;

  00016	8b 45 0c	 mov	 eax, DWORD PTR _c_pSoundInstanceVector$[ebp]
  00019	89 45 f8	 mov	 DWORD PTR __My_data$3[ebp], eax

; 1484 :         return static_cast<size_type>(_My_data._Mylast - _My_data._Myfirst);

  0001c	8b 45 f8	 mov	 eax, DWORD PTR __My_data$3[ebp]
  0001f	8b 4d f8	 mov	 ecx, DWORD PTR __My_data$3[ebp]
  00022	8b 40 04	 mov	 eax, DWORD PTR [eax+4]
  00025	2b 01		 sub	 eax, DWORD PTR [ecx]
  00027	99		 cdq
  00028	6a 1c		 push	 28			; 0000001cH
  0002a	59		 pop	 ecx
  0002b	f7 f9		 idiv	 ecx
  0002d	89 45 f0	 mov	 DWORD PTR $T1[ebp], eax
; File D:\Metin2 Server Files\mainline\SRC_2014\Metin2Client\MilesLib\SoundManager.cpp

; 172  : 	for (DWORD i = 0; i < c_pSoundInstanceVector->size(); ++i)

  00030	8b 45 fc	 mov	 eax, DWORD PTR _i$4[ebp]
  00033	3b 45 f0	 cmp	 eax, DWORD PTR $T1[ebp]
  00036	73 2e		 jae	 SHORT $LN1@UpdateSoun

; 173  : 	{
; 174  : 		const NSound::TSoundInstance & c_rSoundInstance = c_pSoundInstanceVector->at(i);

  00038	ff 75 fc	 push	 DWORD PTR _i$4[ebp]
  0003b	8b 4d 0c	 mov	 ecx, DWORD PTR _c_pSoundInstanceVector$[ebp]
  0003e	e8 00 00 00 00	 call	 ?at@?$vector@USSoundInstance@NSound@@V?$allocator@USSoundInstance@NSound@@@std@@@std@@QBEABUSSoundInstance@NSound@@I@Z ; std::vector<NSound::SSoundInstance,std::allocator<NSound::SSoundInstance> >::at
  00043	89 45 f4	 mov	 DWORD PTR _c_rSoundInstance$2[ebp], eax

; 175  : 
; 176  : 		if (c_rSoundInstance.dwFrame == dwcurFrame)

  00046	8b 45 f4	 mov	 eax, DWORD PTR _c_rSoundInstance$2[ebp]
  00049	8b 00		 mov	 eax, DWORD PTR [eax]
  0004b	3b 45 08	 cmp	 eax, DWORD PTR _dwcurFrame$[ebp]
  0004e	75 14		 jne	 SHORT $LN5@UpdateSoun

; 177  : 		{
; 178  : 			PlaySound2D(c_rSoundInstance.strSoundFileName.c_str());

  00050	8b 4d f4	 mov	 ecx, DWORD PTR _c_rSoundInstance$2[ebp]
  00053	83 c1 04	 add	 ecx, 4
  00056	e8 00 00 00 00	 call	 ?c_str@?$basic_string@DU?$char_traits@D@std@@V?$allocator@D@2@@std@@QBEPBDXZ ; std::basic_string<char,std::char_traits<char>,std::allocator<char> >::c_str
  0005b	50		 push	 eax
  0005c	8b 4d ec	 mov	 ecx, DWORD PTR _this$[ebp]
  0005f	e8 00 00 00 00	 call	 ?PlaySound2D@CSoundManager@@QAEXPBD@Z ; CSoundManager::PlaySound2D
$LN5@UpdateSoun:

; 179  : 		}
; 180  : 	}

  00064	eb a9		 jmp	 SHORT $LN2@UpdateSoun
$LN1@UpdateSoun:

; 181  : }

  00066	c9		 leave
  00067	c2 08 00	 ret	 8
?UpdateSoundInstance@CSoundManager@@QAEXKPBV?$vector@USSoundInstance@NSound@@V?$allocator@USSoundInstance@NSound@@@std@@@std@@@Z ENDP ; CSoundManager::UpdateSoundInstance
_TEXT	ENDS
; Function compile flags: /Odspy
; File D:\Metin2 Server Files\mainline\SRC_2014\Metin2Client\MilesLib\SoundManager.cpp
; File C:\Program Files (x86)\Microsoft Visual Studio\2019\Community\VC\Tools\MSVC\14.28.29333\include\vector
; File D:\Metin2 Server Files\mainline\SRC_2014\Metin2Client\MilesLib\SoundManager.cpp
;	COMDAT ?UpdateSoundInstance@CSoundManager@@QAEXMMMKPBV?$vector@USSoundInstance@NSound@@V?$allocator@USSoundInstance@NSound@@@std@@@std@@H@Z
_TEXT	SEGMENT
_this$ = -20						; size = 4
$T1 = -16						; size = 4
_c_rSoundInstance$2 = -12				; size = 4
__My_data$3 = -8					; size = 4
_i$4 = -4						; size = 4
_fx$ = 8						; size = 4
_fy$ = 12						; size = 4
_fz$ = 16						; size = 4
_dwcurFrame$ = 20					; size = 4
_c_pSoundInstanceVector$ = 24				; size = 4
_bCheckFrequency$ = 28					; size = 4
?UpdateSoundInstance@CSoundManager@@QAEXMMMKPBV?$vector@USSoundInstance@NSound@@V?$allocator@USSoundInstance@NSound@@@std@@@std@@H@Z PROC ; CSoundManager::UpdateSoundInstance, COMDAT
; _this$ = ecx

; 158  : {

  00000	55		 push	 ebp
  00001	8b ec		 mov	 ebp, esp
  00003	83 ec 14	 sub	 esp, 20			; 00000014H
  00006	89 4d ec	 mov	 DWORD PTR _this$[ebp], ecx

; 159  : 	for (DWORD i = 0; i < c_pSoundInstanceVector->size(); ++i)

  00009	83 65 fc 00	 and	 DWORD PTR _i$4[ebp], 0
  0000d	eb 07		 jmp	 SHORT $LN4@UpdateSoun
$LN2@UpdateSoun:
  0000f	8b 45 fc	 mov	 eax, DWORD PTR _i$4[ebp]
  00012	40		 inc	 eax
  00013	89 45 fc	 mov	 DWORD PTR _i$4[ebp], eax
$LN4@UpdateSoun:
; File C:\Program Files (x86)\Microsoft Visual Studio\2019\Community\VC\Tools\MSVC\14.28.29333\include\vector

; 1483 :         auto& _My_data = _Mypair._Myval2;

  00016	8b 45 18	 mov	 eax, DWORD PTR _c_pSoundInstanceVector$[ebp]
  00019	89 45 f8	 mov	 DWORD PTR __My_data$3[ebp], eax

; 1484 :         return static_cast<size_type>(_My_data._Mylast - _My_data._Myfirst);

  0001c	8b 45 f8	 mov	 eax, DWORD PTR __My_data$3[ebp]
  0001f	8b 4d f8	 mov	 ecx, DWORD PTR __My_data$3[ebp]
  00022	8b 40 04	 mov	 eax, DWORD PTR [eax+4]
  00025	2b 01		 sub	 eax, DWORD PTR [ecx]
  00027	99		 cdq
  00028	6a 1c		 push	 28			; 0000001cH
  0002a	59		 pop	 ecx
  0002b	f7 f9		 idiv	 ecx
  0002d	89 45 f0	 mov	 DWORD PTR $T1[ebp], eax
; File D:\Metin2 Server Files\mainline\SRC_2014\Metin2Client\MilesLib\SoundManager.cpp

; 159  : 	for (DWORD i = 0; i < c_pSoundInstanceVector->size(); ++i)

  00030	8b 45 fc	 mov	 eax, DWORD PTR _i$4[ebp]
  00033	3b 45 f0	 cmp	 eax, DWORD PTR $T1[ebp]
  00036	73 52		 jae	 SHORT $LN3@UpdateSoun

; 160  : 	{
; 161  : 		const NSound::TSoundInstance & c_rSoundInstance = c_pSoundInstanceVector->at(i);

  00038	ff 75 fc	 push	 DWORD PTR _i$4[ebp]
  0003b	8b 4d 18	 mov	 ecx, DWORD PTR _c_pSoundInstanceVector$[ebp]
  0003e	e8 00 00 00 00	 call	 ?at@?$vector@USSoundInstance@NSound@@V?$allocator@USSoundInstance@NSound@@@std@@@std@@QBEABUSSoundInstance@NSound@@I@Z ; std::vector<NSound::SSoundInstance,std::allocator<NSound::SSoundInstance> >::at
  00043	89 45 f4	 mov	 DWORD PTR _c_rSoundInstance$2[ebp], eax

; 162  : 		if (c_rSoundInstance.dwFrame == dwcurFrame)

  00046	8b 45 f4	 mov	 eax, DWORD PTR _c_rSoundInstance$2[ebp]
  00049	8b 00		 mov	 eax, DWORD PTR [eax]
  0004b	3b 45 14	 cmp	 eax, DWORD PTR _dwcurFrame$[ebp]
  0004e	75 38		 jne	 SHORT $LN5@UpdateSoun

; 163  : 		{
; 164  : 			//Tracenf("PLAY SOUND %s", c_rSoundInstance.strSoundFileName.c_str());
; 165  : 			PlayCharacterSound3D(fx, fy, fz, c_rSoundInstance.strSoundFileName.c_str(), bCheckFrequency);

  00050	ff 75 1c	 push	 DWORD PTR _bCheckFrequency$[ebp]
  00053	8b 4d f4	 mov	 ecx, DWORD PTR _c_rSoundInstance$2[ebp]
  00056	83 c1 04	 add	 ecx, 4
  00059	e8 00 00 00 00	 call	 ?c_str@?$basic_string@DU?$char_traits@D@std@@V?$allocator@D@2@@std@@QBEPBDXZ ; std::basic_string<char,std::char_traits<char>,std::allocator<char> >::c_str
  0005e	50		 push	 eax
  0005f	51		 push	 ecx
  00060	f3 0f 10 45 10	 movss	 xmm0, DWORD PTR _fz$[ebp]
  00065	f3 0f 11 04 24	 movss	 DWORD PTR [esp], xmm0
  0006a	51		 push	 ecx
  0006b	f3 0f 10 45 0c	 movss	 xmm0, DWORD PTR _fy$[ebp]
  00070	f3 0f 11 04 24	 movss	 DWORD PTR [esp], xmm0
  00075	51		 push	 ecx
  00076	f3 0f 10 45 08	 movss	 xmm0, DWORD PTR _fx$[ebp]
  0007b	f3 0f 11 04 24	 movss	 DWORD PTR [esp], xmm0
  00080	8b 4d ec	 mov	 ecx, DWORD PTR _this$[ebp]
  00083	e8 00 00 00 00	 call	 ?PlayCharacterSound3D@CSoundManager@@QAEXMMMPBDH@Z ; CSoundManager::PlayCharacterSound3D
$LN5@UpdateSoun:

; 166  : 		}
; 167  : 	}

  00088	eb 85		 jmp	 SHORT $LN2@UpdateSoun
$LN3@UpdateSoun:

; 168  : }

  0008a	c9		 leave
  0008b	c2 18 00	 ret	 24			; 00000018H
?UpdateSoundInstance@CSoundManager@@QAEXMMMKPBV?$vector@USSoundInstance@NSound@@V?$allocator@USSoundInstance@NSound@@@std@@@std@@H@Z ENDP ; CSoundManager::UpdateSoundInstance
_TEXT	ENDS
; Function compile flags: /Odspy
; File D:\Metin2 Server Files\mainline\SRC_2014\Metin2Client\MilesLib\SoundManager.cpp
;	COMDAT ?UpdateSoundData@CSoundManager@@QAEXMMMKPBV?$vector@USSoundData@NSound@@V?$allocator@USSoundData@NSound@@@std@@@std@@@Z
_TEXT	SEGMENT
_this$ = -4						; size = 4
_fx$ = 8						; size = 4
_fy$ = 12						; size = 4
_fz$ = 16						; size = 4
_dwcurTime$ = 20					; size = 4
_c_pSoundDataVector$ = 24				; size = 4
?UpdateSoundData@CSoundManager@@QAEXMMMKPBV?$vector@USSoundData@NSound@@V?$allocator@USSoundData@NSound@@@std@@@std@@@Z PROC ; CSoundManager::UpdateSoundData, COMDAT
; _this$ = ecx

; 153  : {

  00000	55		 push	 ebp
  00001	8b ec		 mov	 ebp, esp
  00003	51		 push	 ecx
  00004	89 4d fc	 mov	 DWORD PTR _this$[ebp], ecx

; 154  : 	assert(!"CSoundManager::UpdateSoundData");
; 155  : }

  00007	c9		 leave
  00008	c2 14 00	 ret	 20			; 00000014H
?UpdateSoundData@CSoundManager@@QAEXMMMKPBV?$vector@USSoundData@NSound@@V?$allocator@USSoundData@NSound@@@std@@@std@@@Z ENDP ; CSoundManager::UpdateSoundData
_TEXT	ENDS
; Function compile flags: /Odspy
; File D:\Metin2 Server Files\mainline\SRC_2014\Metin2Client\MilesLib\SoundManager.cpp
;	COMDAT ?UpdateSoundData@CSoundManager@@QAEXKPBV?$vector@USSoundData@NSound@@V?$allocator@USSoundData@NSound@@@std@@@std@@@Z
_TEXT	SEGMENT
_this$ = -4						; size = 4
_dwcurTime$ = 8						; size = 4
_c_pSoundDataVector$ = 12				; size = 4
?UpdateSoundData@CSoundManager@@QAEXKPBV?$vector@USSoundData@NSound@@V?$allocator@USSoundData@NSound@@@std@@@std@@@Z PROC ; CSoundManager::UpdateSoundData, COMDAT
; _this$ = ecx

; 148  : {

  00000	55		 push	 ebp
  00001	8b ec		 mov	 ebp, esp
  00003	51		 push	 ecx
  00004	89 4d fc	 mov	 DWORD PTR _this$[ebp], ecx

; 149  : 	assert(!"CSoundManager::UpdateSoundData");
; 150  : }

  00007	c9		 leave
  00008	c2 08 00	 ret	 8
?UpdateSoundData@CSoundManager@@QAEXKPBV?$vector@USSoundData@NSound@@V?$allocator@USSoundData@NSound@@@std@@@std@@@Z ENDP ; CSoundManager::UpdateSoundData
_TEXT	ENDS
; Function compile flags: /Odspy
; File D:\Metin2 Server Files\mainline\SRC_2014\Metin2Client\MilesLib\SoundManager.cpp
;	COMDAT ?FadeAll@CSoundManager@@QAEXXZ
_TEXT	SEGMENT
_this$ = -4						; size = 4
?FadeAll@CSoundManager@@QAEXXZ PROC			; CSoundManager::FadeAll, COMDAT
; _this$ = ecx

; 641  : {

  00000	55		 push	 ebp
  00001	8b ec		 mov	 ebp, esp
  00003	51		 push	 ecx
  00004	89 4d fc	 mov	 DWORD PTR _this$[ebp], ecx

; 642  : 	FadeOutAllMusic();

  00007	8b 4d fc	 mov	 ecx, DWORD PTR _this$[ebp]
  0000a	e8 00 00 00 00	 call	 ?FadeOutAllMusic@CSoundManager@@QAEXXZ ; CSoundManager::FadeOutAllMusic

; 643  : }

  0000f	c9		 leave
  00010	c3		 ret	 0
?FadeAll@CSoundManager@@QAEXXZ ENDP			; CSoundManager::FadeAll
_TEXT	ENDS
; Function compile flags: /Odspy
; File D:\Metin2 Server Files\mainline\SRC_2014\Metin2Client\MilesLib\SoundManager.cpp
;	COMDAT ?FadeOutAllMusic@CSoundManager@@QAEXXZ
_TEXT	SEGMENT
_this$ = -8						; size = 4
_i$1 = -4						; size = 4
?FadeOutAllMusic@CSoundManager@@QAEXXZ PROC		; CSoundManager::FadeOutAllMusic, COMDAT
; _this$ = ecx

; 536  : {

  00000	55		 push	 ebp
  00001	8b ec		 mov	 ebp, esp
  00003	51		 push	 ecx
  00004	51		 push	 ecx
  00005	89 4d f8	 mov	 DWORD PTR _this$[ebp], ecx

; 537  : 	//Tracenf("FadeOutAllMusic");
; 538  : 
; 539  : 	for (int i = 0; i < CSoundManagerStream::MUSIC_INSTANCE_MAX_NUM; ++i)

  00008	83 65 fc 00	 and	 DWORD PTR _i$1[ebp], 0
  0000c	eb 07		 jmp	 SHORT $LN4@FadeOutAll
$LN2@FadeOutAll:
  0000e	8b 45 fc	 mov	 eax, DWORD PTR _i$1[ebp]
  00011	40		 inc	 eax
  00012	89 45 fc	 mov	 DWORD PTR _i$1[ebp], eax
$LN4@FadeOutAll:
  00015	83 7d fc 03	 cmp	 DWORD PTR _i$1[ebp], 3
  00019	7d 36		 jge	 SHORT $LN3@FadeOutAll

; 540  : 	{
; 541  : 		if (MUSIC_STATE_OFF == m_MusicInstances[i].MusicState)

  0001b	6b 45 fc 14	 imul	 eax, DWORD PTR _i$1[ebp], 20
  0001f	8b 4d f8	 mov	 ecx, DWORD PTR _this$[ebp]
  00022	83 7c 01 34 00	 cmp	 DWORD PTR [ecx+eax+52], 0
  00027	75 02		 jne	 SHORT $LN5@FadeOutAll

; 542  : 			continue;

  00029	eb e3		 jmp	 SHORT $LN2@FadeOutAll
$LN5@FadeOutAll:

; 543  : 
; 544  : 		m_MusicInstances[i].MusicState = MUSIC_STATE_FADE_OUT;

  0002b	6b 45 fc 14	 imul	 eax, DWORD PTR _i$1[ebp], 20
  0002f	8b 4d f8	 mov	 ecx, DWORD PTR _this$[ebp]
  00032	c7 44 01 34 03
	00 00 00	 mov	 DWORD PTR [ecx+eax+52], 3

; 545  : 		m_MusicInstances[i].fVolumeSpeed = 0.01f;

  0003a	6b 45 fc 14	 imul	 eax, DWORD PTR _i$1[ebp], 20
  0003e	8b 4d f8	 mov	 ecx, DWORD PTR _this$[ebp]
  00041	f3 0f 10 05 00
	00 00 00	 movss	 xmm0, DWORD PTR __real@3c23d70a
  00049	f3 0f 11 44 01
	40		 movss	 DWORD PTR [ecx+eax+64], xmm0

; 546  : 	}

  0004f	eb bd		 jmp	 SHORT $LN2@FadeOutAll
$LN3@FadeOutAll:

; 547  : }

  00051	c9		 leave
  00052	c3		 ret	 0
?FadeOutAllMusic@CSoundManager@@QAEXXZ ENDP		; CSoundManager::FadeOutAllMusic
_TEXT	ENDS
; Function compile flags: /Odspy
; File D:\Metin2 Server Files\mainline\SRC_2014\Metin2Client\MilesLib\SoundManager.cpp
;	COMDAT ?FadeLimitOutMusic@CSoundManager@@QAEXPBDMM@Z
_TEXT	SEGMENT
_dwIndex$ = -12						; size = 4
_rkMusicInst$ = -8					; size = 4
_this$ = -4						; size = 4
_c_szFileName$ = 8					; size = 4
_fLimitVolume$ = 12					; size = 4
_fVolumeSpeed$ = 16					; size = 4
?FadeLimitOutMusic@CSoundManager@@QAEXPBDMM@Z PROC	; CSoundManager::FadeLimitOutMusic, COMDAT
; _this$ = ecx

; 490  : {

  00000	55		 push	 ebp
  00001	8b ec		 mov	 ebp, esp
  00003	83 ec 0c	 sub	 esp, 12			; 0000000cH
  00006	89 4d fc	 mov	 DWORD PTR _this$[ebp], ecx

; 491  : 	//Tracenf("FadeLimitOutMusic: %s", c_szFileName);
; 492  : 
; 493  : 	DWORD dwIndex;
; 494  : 	if (!GetMusicIndex(c_szFileName, &dwIndex))

  00009	8d 45 f4	 lea	 eax, DWORD PTR _dwIndex$[ebp]
  0000c	50		 push	 eax
  0000d	ff 75 08	 push	 DWORD PTR _c_szFileName$[ebp]
  00010	8b 4d fc	 mov	 ecx, DWORD PTR _this$[ebp]
  00013	e8 00 00 00 00	 call	 ?GetMusicIndex@CSoundManager@@IAEHPBDPAK@Z ; CSoundManager::GetMusicIndex
  00018	85 c0		 test	 eax, eax
  0001a	75 11		 jne	 SHORT $LN2@FadeLimitO

; 495  : 	{
; 496  : 		Tracenf("FadeOutMusic: %s - ERROR NOT EXIST", c_szFileName);

  0001c	ff 75 08	 push	 DWORD PTR _c_szFileName$[ebp]
  0001f	68 00 00 00 00	 push	 OFFSET ??_C@_0CD@IKOINIJC@FadeOutMusic?3?5?$CFs?5?9?5ERROR?5NOT?5EX@
  00024	e8 00 00 00 00	 call	 ?Tracenf@@YAXPBDZZ	; Tracenf
  00029	59		 pop	 ecx
  0002a	59		 pop	 ecx

; 497  : 		return;

  0002b	eb 55		 jmp	 SHORT $LN1@FadeLimitO
$LN2@FadeLimitO:

; 498  : 	}
; 499  : 
; 500  : 	if (dwIndex >= CSoundManagerStream::MUSIC_INSTANCE_MAX_NUM)

  0002d	83 7d f4 03	 cmp	 DWORD PTR _dwIndex$[ebp], 3
  00031	72 11		 jb	 SHORT $LN3@FadeLimitO

; 501  : 	{
; 502  : 		Tracenf("FadeOutMusic: %s - ERROR OUT OF RANGE", c_szFileName);

  00033	ff 75 08	 push	 DWORD PTR _c_szFileName$[ebp]
  00036	68 00 00 00 00	 push	 OFFSET ??_C@_0CG@CAGDPBLM@FadeOutMusic?3?5?$CFs?5?9?5ERROR?5OUT?5OF@
  0003b	e8 00 00 00 00	 call	 ?Tracenf@@YAXPBDZZ	; Tracenf
  00040	59		 pop	 ecx
  00041	59		 pop	 ecx

; 503  : 		return;

  00042	eb 3e		 jmp	 SHORT $LN1@FadeLimitO
$LN3@FadeLimitO:

; 504  : 	}
; 505  : 
; 506  : 	SMusicInstance& rkMusicInst=m_MusicInstances[dwIndex];

  00044	6b 45 f4 14	 imul	 eax, DWORD PTR _dwIndex$[ebp], 20
  00048	8b 4d fc	 mov	 ecx, DWORD PTR _this$[ebp]
  0004b	8d 44 01 30	 lea	 eax, DWORD PTR [ecx+eax+48]
  0004f	89 45 f8	 mov	 DWORD PTR _rkMusicInst$[ebp], eax

; 507  : 	rkMusicInst.MusicState = MUSIC_STATE_FADE_LIMIT_OUT;	

  00052	8b 45 f8	 mov	 eax, DWORD PTR _rkMusicInst$[ebp]
  00055	c7 40 04 04 00
	00 00		 mov	 DWORD PTR [eax+4], 4

; 508  : 	rkMusicInst.fVolumeSpeed = fVolumeSpeed;	

  0005c	8b 45 f8	 mov	 eax, DWORD PTR _rkMusicInst$[ebp]
  0005f	f3 0f 10 45 10	 movss	 xmm0, DWORD PTR _fVolumeSpeed$[ebp]
  00064	f3 0f 11 40 10	 movss	 DWORD PTR [eax+16], xmm0

; 509  : 	rkMusicInst.fLimitVolume = __ConvertRatioVolumeToApplyVolume(fLimitVolume);

  00069	51		 push	 ecx
  0006a	f3 0f 10 45 0c	 movss	 xmm0, DWORD PTR _fLimitVolume$[ebp]
  0006f	f3 0f 11 04 24	 movss	 DWORD PTR [esp], xmm0
  00074	8b 4d fc	 mov	 ecx, DWORD PTR _this$[ebp]
  00077	e8 00 00 00 00	 call	 ?__ConvertRatioVolumeToApplyVolume@CSoundManager@@IAEMM@Z ; CSoundManager::__ConvertRatioVolumeToApplyVolume
  0007c	8b 45 f8	 mov	 eax, DWORD PTR _rkMusicInst$[ebp]
  0007f	d9 58 0c	 fstp	 DWORD PTR [eax+12]
$LN1@FadeLimitO:

; 510  : 
; 511  : 	//Tracenf("LimitVolume %f(%f)", fLimitVolume, rkMusicInst.fLimitVolume);
; 512  : }

  00082	c9		 leave
  00083	c2 0c 00	 ret	 12			; 0000000cH
?FadeLimitOutMusic@CSoundManager@@QAEXPBDMM@Z ENDP	; CSoundManager::FadeLimitOutMusic
_TEXT	ENDS
; Function compile flags: /Odspy
; File D:\Metin2 Server Files\mainline\SRC_2014\Metin2Client\MilesLib\SoundManager.cpp
;	COMDAT ?FadeOutMusic@CSoundManager@@QAEXPBDM@Z
_TEXT	SEGMENT
_this$ = -8						; size = 4
_dwIndex$ = -4						; size = 4
_c_szFileName$ = 8					; size = 4
_fVolumeSpeed$ = 12					; size = 4
?FadeOutMusic@CSoundManager@@QAEXPBDM@Z PROC		; CSoundManager::FadeOutMusic, COMDAT
; _this$ = ecx

; 515  : {

  00000	55		 push	 ebp
  00001	8b ec		 mov	 ebp, esp
  00003	51		 push	 ecx
  00004	51		 push	 ecx
  00005	89 4d f8	 mov	 DWORD PTR _this$[ebp], ecx

; 516  : 	//Tracenf("FadeOutMusic: %s", c_szFileName);
; 517  : 
; 518  : 	DWORD dwIndex;
; 519  : 	if (!GetMusicIndex(c_szFileName, &dwIndex))

  00008	8d 45 fc	 lea	 eax, DWORD PTR _dwIndex$[ebp]
  0000b	50		 push	 eax
  0000c	ff 75 08	 push	 DWORD PTR _c_szFileName$[ebp]
  0000f	8b 4d f8	 mov	 ecx, DWORD PTR _this$[ebp]
  00012	e8 00 00 00 00	 call	 ?GetMusicIndex@CSoundManager@@IAEHPBDPAK@Z ; CSoundManager::GetMusicIndex
  00017	85 c0		 test	 eax, eax
  00019	75 11		 jne	 SHORT $LN2@FadeOutMus

; 520  : 	{
; 521  : 		Tracenf("FadeOutMusic: %s - ERROR NOT EXIST", c_szFileName);

  0001b	ff 75 08	 push	 DWORD PTR _c_szFileName$[ebp]
  0001e	68 00 00 00 00	 push	 OFFSET ??_C@_0CD@IKOINIJC@FadeOutMusic?3?5?$CFs?5?9?5ERROR?5NOT?5EX@
  00023	e8 00 00 00 00	 call	 ?Tracenf@@YAXPBDZZ	; Tracenf
  00028	59		 pop	 ecx
  00029	59		 pop	 ecx

; 522  : 		return;

  0002a	eb 38		 jmp	 SHORT $LN1@FadeOutMus
$LN2@FadeOutMus:

; 523  : 	}
; 524  : 
; 525  : 	if (dwIndex >= CSoundManagerStream::MUSIC_INSTANCE_MAX_NUM)

  0002c	83 7d fc 03	 cmp	 DWORD PTR _dwIndex$[ebp], 3
  00030	72 11		 jb	 SHORT $LN3@FadeOutMus

; 526  : 	{
; 527  : 		Tracenf("FadeOutMusic: %s - ERROR OUT OF RANGE", c_szFileName);

  00032	ff 75 08	 push	 DWORD PTR _c_szFileName$[ebp]
  00035	68 00 00 00 00	 push	 OFFSET ??_C@_0CG@CAGDPBLM@FadeOutMusic?3?5?$CFs?5?9?5ERROR?5OUT?5OF@
  0003a	e8 00 00 00 00	 call	 ?Tracenf@@YAXPBDZZ	; Tracenf
  0003f	59		 pop	 ecx
  00040	59		 pop	 ecx

; 528  : 		return;

  00041	eb 21		 jmp	 SHORT $LN1@FadeOutMus
$LN3@FadeOutMus:

; 529  : 	}
; 530  : 
; 531  : 	m_MusicInstances[dwIndex].MusicState = MUSIC_STATE_FADE_OUT;

  00043	6b 45 fc 14	 imul	 eax, DWORD PTR _dwIndex$[ebp], 20
  00047	8b 4d f8	 mov	 ecx, DWORD PTR _this$[ebp]
  0004a	c7 44 01 34 03
	00 00 00	 mov	 DWORD PTR [ecx+eax+52], 3

; 532  : 	m_MusicInstances[dwIndex].fVolumeSpeed = fVolumeSpeed;

  00052	6b 45 fc 14	 imul	 eax, DWORD PTR _dwIndex$[ebp], 20
  00056	8b 4d f8	 mov	 ecx, DWORD PTR _this$[ebp]
  00059	f3 0f 10 45 0c	 movss	 xmm0, DWORD PTR _fVolumeSpeed$[ebp]
  0005e	f3 0f 11 44 01
	40		 movss	 DWORD PTR [ecx+eax+64], xmm0
$LN1@FadeOutMus:

; 533  : }

  00064	c9		 leave
  00065	c2 08 00	 ret	 8
?FadeOutMusic@CSoundManager@@QAEXPBDM@Z ENDP		; CSoundManager::FadeOutMusic
_TEXT	ENDS
; Function compile flags: /Odspy
; File D:\Metin2 Server Files\mainline\SRC_2014\Metin2Client\MilesLib\SoundManager.cpp
;	COMDAT ?FadeInMusic@CSoundManager@@QAEXPBDM@Z
_TEXT	SEGMENT
_rMusicInstance$1 = -16					; size = 4
_dwIndex$ = -12						; size = 4
_i$2 = -8						; size = 4
_this$ = -4						; size = 4
_c_szFileName$ = 8					; size = 4
_fVolumeSpeed$ = 12					; size = 4
?FadeInMusic@CSoundManager@@QAEXPBDM@Z PROC		; CSoundManager::FadeInMusic, COMDAT
; _this$ = ecx

; 457  : {

  00000	55		 push	 ebp
  00001	8b ec		 mov	 ebp, esp
  00003	83 ec 10	 sub	 esp, 16			; 00000010H
  00006	89 4d fc	 mov	 DWORD PTR _this$[ebp], ecx

; 458  : 	DWORD dwIndex;
; 459  : 	if (GetMusicIndex(c_szFileName, &dwIndex))

  00009	8d 45 f4	 lea	 eax, DWORD PTR _dwIndex$[ebp]
  0000c	50		 push	 eax
  0000d	ff 75 08	 push	 DWORD PTR _c_szFileName$[ebp]
  00010	8b 4d fc	 mov	 ecx, DWORD PTR _this$[ebp]
  00013	e8 00 00 00 00	 call	 ?GetMusicIndex@CSoundManager@@IAEHPBDPAK@Z ; CSoundManager::GetMusicIndex
  00018	85 c0		 test	 eax, eax
  0001a	74 23		 je	 SHORT $LN5@FadeInMusi

; 460  : 	{
; 461  : 		m_MusicInstances[dwIndex].MusicState = MUSIC_STATE_FADE_IN;

  0001c	6b 45 f4 14	 imul	 eax, DWORD PTR _dwIndex$[ebp], 20
  00020	8b 4d fc	 mov	 ecx, DWORD PTR _this$[ebp]
  00023	c7 44 01 34 02
	00 00 00	 mov	 DWORD PTR [ecx+eax+52], 2

; 462  : 		m_MusicInstances[dwIndex].fVolumeSpeed = fVolumeSpeed;

  0002b	6b 45 f4 14	 imul	 eax, DWORD PTR _dwIndex$[ebp], 20
  0002f	8b 4d fc	 mov	 ecx, DWORD PTR _this$[ebp]
  00032	f3 0f 10 45 0c	 movss	 xmm0, DWORD PTR _fVolumeSpeed$[ebp]
  00037	f3 0f 11 44 01
	40		 movss	 DWORD PTR [ecx+eax+64], xmm0

; 463  : 		return;

  0003d	eb 5a		 jmp	 SHORT $LN1@FadeInMusi
$LN5@FadeInMusi:

; 464  : 	}
; 465  : 
; 466  : 	FadeOutAllMusic();

  0003f	8b 4d fc	 mov	 ecx, DWORD PTR _this$[ebp]
  00042	e8 00 00 00 00	 call	 ?FadeOutAllMusic@CSoundManager@@QAEXXZ ; CSoundManager::FadeOutAllMusic

; 467  : 
; 468  : 	//Tracenf("FadeInMusic: %s", c_szFileName);
; 469  : 	
; 470  : 	for (int i = 0; i < CSoundManagerStream::MUSIC_INSTANCE_MAX_NUM; ++i)

  00047	83 65 f8 00	 and	 DWORD PTR _i$2[ebp], 0
  0004b	eb 07		 jmp	 SHORT $LN4@FadeInMusi
$LN2@FadeInMusi:
  0004d	8b 45 f8	 mov	 eax, DWORD PTR _i$2[ebp]
  00050	40		 inc	 eax
  00051	89 45 f8	 mov	 DWORD PTR _i$2[ebp], eax
$LN4@FadeInMusi:
  00054	83 7d f8 03	 cmp	 DWORD PTR _i$2[ebp], 3
  00058	7d 3f		 jge	 SHORT $LN3@FadeInMusi

; 471  : 	{
; 472  : 		TMusicInstance & rMusicInstance = m_MusicInstances[i];

  0005a	6b 45 f8 14	 imul	 eax, DWORD PTR _i$2[ebp], 20
  0005e	8b 4d fc	 mov	 ecx, DWORD PTR _this$[ebp]
  00061	8d 44 01 30	 lea	 eax, DWORD PTR [ecx+eax+48]
  00065	89 45 f0	 mov	 DWORD PTR _rMusicInstance$1[ebp], eax

; 473  : 		if (MUSIC_STATE_OFF != rMusicInstance.MusicState)

  00068	8b 45 f0	 mov	 eax, DWORD PTR _rMusicInstance$1[ebp]
  0006b	83 78 04 00	 cmp	 DWORD PTR [eax+4], 0
  0006f	74 02		 je	 SHORT $LN6@FadeInMusi

; 474  : 			continue;

  00071	eb da		 jmp	 SHORT $LN2@FadeInMusi
$LN6@FadeInMusi:

; 475  : 
; 476  : 		PlayMusic(i, c_szFileName, 0.0f, fVolumeSpeed);

  00073	51		 push	 ecx
  00074	f3 0f 10 45 0c	 movss	 xmm0, DWORD PTR _fVolumeSpeed$[ebp]
  00079	f3 0f 11 04 24	 movss	 DWORD PTR [esp], xmm0
  0007e	51		 push	 ecx
  0007f	0f 57 c0	 xorps	 xmm0, xmm0
  00082	f3 0f 11 04 24	 movss	 DWORD PTR [esp], xmm0
  00087	ff 75 08	 push	 DWORD PTR _c_szFileName$[ebp]
  0008a	ff 75 f8	 push	 DWORD PTR _i$2[ebp]
  0008d	8b 4d fc	 mov	 ecx, DWORD PTR _this$[ebp]
  00090	e8 00 00 00 00	 call	 ?PlayMusic@CSoundManager@@IAEXKPBDMM@Z ; CSoundManager::PlayMusic

; 477  : 		return;

  00095	eb 02		 jmp	 SHORT $LN1@FadeInMusi

; 478  : 	}

  00097	eb b4		 jmp	 SHORT $LN2@FadeInMusi
$LN3@FadeInMusi:
$LN1@FadeInMusi:

; 479  : 
; 480  : 	return;
; 481  : 
; 482  : 	// If there is no empty music slot, then play music on slot 0.
; 483  : 	/*
; 484  : 	StopMusic(0);
; 485  : 	PlayMusic(0, c_szFileName, 0.0f, fVolumeSpeed);
; 486  : 	*/
; 487  : }

  00099	c9		 leave
  0009a	c2 08 00	 ret	 8
?FadeInMusic@CSoundManager@@QAEXPBDM@Z ENDP		; CSoundManager::FadeInMusic
_TEXT	ENDS
; Function compile flags: /Odspy
; File D:\Metin2 Server Files\mainline\SRC_2014\Metin2Client\MilesLib\SoundManager.cpp
;	COMDAT ?PlayMusic@CSoundManager@@QAEXPBD@Z
_TEXT	SEGMENT
_this$ = -4						; size = 4
_c_szFileName$ = 8					; size = 4
?PlayMusic@CSoundManager@@QAEXPBD@Z PROC		; CSoundManager::PlayMusic, COMDAT
; _this$ = ecx

; 452  : {

  00000	55		 push	 ebp
  00001	8b ec		 mov	 ebp, esp
  00003	51		 push	 ecx
  00004	89 4d fc	 mov	 DWORD PTR _this$[ebp], ecx

; 453  : 	PlayMusic(0, c_szFileName, GetMusicVolume(), 0.0f);

  00007	51		 push	 ecx
  00008	0f 57 c0	 xorps	 xmm0, xmm0
  0000b	f3 0f 11 04 24	 movss	 DWORD PTR [esp], xmm0
  00010	8b 4d fc	 mov	 ecx, DWORD PTR _this$[ebp]
  00013	e8 00 00 00 00	 call	 ?GetMusicVolume@CSoundManager@@QAEMXZ ; CSoundManager::GetMusicVolume
  00018	51		 push	 ecx
  00019	d9 1c 24	 fstp	 DWORD PTR [esp]
  0001c	ff 75 08	 push	 DWORD PTR _c_szFileName$[ebp]
  0001f	6a 00		 push	 0
  00021	8b 4d fc	 mov	 ecx, DWORD PTR _this$[ebp]
  00024	e8 00 00 00 00	 call	 ?PlayMusic@CSoundManager@@IAEXKPBDMM@Z ; CSoundManager::PlayMusic

; 454  : }

  00029	c9		 leave
  0002a	c2 04 00	 ret	 4
?PlayMusic@CSoundManager@@QAEXPBD@Z ENDP		; CSoundManager::PlayMusic
_TEXT	ENDS
; Function compile flags: /Odspy
; File D:\Metin2 Server Files\mainline\SRC_2014\Metin2Client\MilesLib\SoundManager.cpp
;	COMDAT ?StopAllSound3D@CSoundManager@@QAEXXZ
_TEXT	SEGMENT
_this$ = -8						; size = 4
_i$1 = -4						; size = 4
?StopAllSound3D@CSoundManager@@QAEXXZ PROC		; CSoundManager::StopAllSound3D, COMDAT
; _this$ = ecx

; 444  : {

  00000	55		 push	 ebp
  00001	8b ec		 mov	 ebp, esp
  00003	51		 push	 ecx
  00004	51		 push	 ecx
  00005	89 4d f8	 mov	 DWORD PTR _this$[ebp], ecx

; 445  : 	for (int i = 0; i < CSoundManager3D::INSTANCE_MAX_COUNT; ++i)

  00008	83 65 fc 00	 and	 DWORD PTR _i$1[ebp], 0
  0000c	eb 07		 jmp	 SHORT $LN4@StopAllSou
$LN2@StopAllSou:
  0000e	8b 45 fc	 mov	 eax, DWORD PTR _i$1[ebp]
  00011	40		 inc	 eax
  00012	89 45 fc	 mov	 DWORD PTR _i$1[ebp], eax
$LN4@StopAllSou:
  00015	83 7d fc 20	 cmp	 DWORD PTR _i$1[ebp], 32	; 00000020H
  00019	7d 0d		 jge	 SHORT $LN1@StopAllSou

; 446  : 	{
; 447  : 		StopSound3D(i);

  0001b	ff 75 fc	 push	 DWORD PTR _i$1[ebp]
  0001e	8b 4d f8	 mov	 ecx, DWORD PTR _this$[ebp]
  00021	e8 00 00 00 00	 call	 ?StopSound3D@CSoundManager@@QAEXH@Z ; CSoundManager::StopSound3D

; 448  : 	}

  00026	eb e6		 jmp	 SHORT $LN2@StopAllSou
$LN1@StopAllSou:

; 449  : }

  00028	c9		 leave
  00029	c3		 ret	 0
?StopAllSound3D@CSoundManager@@QAEXXZ ENDP		; CSoundManager::StopAllSound3D
_TEXT	ENDS
; Function compile flags: /Odspy
; File D:\Metin2 Server Files\mainline\SRC_2014\Metin2Client\MilesLib\SoundManager.cpp
;	COMDAT ?SetSoundVolume3D@CSoundManager@@QAEXHM@Z
_TEXT	SEGMENT
_this$ = -8						; size = 4
_pInstance$ = -4					; size = 4
_iIndex$ = 8						; size = 4
_fVolume$ = 12						; size = 4
?SetSoundVolume3D@CSoundManager@@QAEXHM@Z PROC		; CSoundManager::SetSoundVolume3D, COMDAT
; _this$ = ecx

; 434  : {

  00000	55		 push	 ebp
  00001	8b ec		 mov	 ebp, esp
  00003	51		 push	 ecx
  00004	51		 push	 ecx
  00005	89 4d f8	 mov	 DWORD PTR _this$[ebp], ecx

; 435  : 	ISoundInstance * pInstance = ms_SoundManager3D.GetInstance(iIndex);

  00008	ff 75 08	 push	 DWORD PTR _iIndex$[ebp]
  0000b	b9 00 00 00 00	 mov	 ecx, OFFSET ?ms_SoundManager3D@CSoundManager@@1VCSoundManager3D@@A ; CSoundManager::ms_SoundManager3D
  00010	e8 00 00 00 00	 call	 ?GetInstance@CSoundManager3D@@QAEPAVISoundInstance@@K@Z ; CSoundManager3D::GetInstance
  00015	89 45 fc	 mov	 DWORD PTR _pInstance$[ebp], eax

; 436  : 
; 437  : 	if (!pInstance)

  00018	83 7d fc 00	 cmp	 DWORD PTR _pInstance$[ebp], 0
  0001c	75 02		 jne	 SHORT $LN2@SetSoundVo

; 438  : 		return;

  0001e	eb 16		 jmp	 SHORT $LN1@SetSoundVo
$LN2@SetSoundVo:

; 439  : 
; 440  : 	pInstance->SetVolume(fVolume);

  00020	51		 push	 ecx
  00021	f3 0f 10 45 0c	 movss	 xmm0, DWORD PTR _fVolume$[ebp]
  00026	f3 0f 11 04 24	 movss	 DWORD PTR [esp], xmm0
  0002b	8b 45 fc	 mov	 eax, DWORD PTR _pInstance$[ebp]
  0002e	8b 00		 mov	 eax, DWORD PTR [eax]
  00030	8b 4d fc	 mov	 ecx, DWORD PTR _pInstance$[ebp]
  00033	ff 50 24	 call	 DWORD PTR [eax+36]
$LN1@SetSoundVo:

; 441  : }

  00036	c9		 leave
  00037	c2 08 00	 ret	 8
?SetSoundVolume3D@CSoundManager@@QAEXHM@Z ENDP		; CSoundManager::SetSoundVolume3D
_TEXT	ENDS
; Function compile flags: /Odspy
; File D:\Metin2 Server Files\mainline\SRC_2014\Metin2Client\MilesLib\SoundManager.cpp
; File C:\Program Files (x86)\Microsoft Visual Studio\2019\Community\VC\Tools\MSVC\14.28.29333\include\xstring
; File C:\Program Files (x86)\Microsoft Visual Studio\2019\Community\VC\Tools\MSVC\14.28.29333\include\xtree
; File C:\Program Files (x86)\Microsoft Visual Studio\2019\Community\VC\Tools\MSVC\14.28.29333\include\xstddef
; File C:\Program Files (x86)\Microsoft Visual Studio\2019\Community\VC\Tools\MSVC\14.28.29333\include\xtree
; File D:\Metin2 Server Files\mainline\SRC_2014\Metin2Client\MilesLib\SoundManager.cpp
; File C:\Program Files (x86)\Microsoft Visual Studio\2019\Community\VC\Tools\MSVC\14.28.29333\include\xtree
; File C:\Program Files (x86)\Microsoft Visual Studio\2019\Community\VC\Tools\MSVC\14.28.29333\include\xstddef
; File C:\Program Files (x86)\Microsoft Visual Studio\2019\Community\VC\Tools\MSVC\14.28.29333\include\xutility
; File C:\Program Files (x86)\Microsoft Visual Studio\2019\Community\VC\Tools\MSVC\14.28.29333\include\xtree
; File D:\Metin2 Server Files\mainline\SRC_2014\Metin2Client\MilesLib\SoundManager.cpp
; File D:\Metin2 Server Files\mainline\SRC_2014\Metin2Client\eterBase\Singleton.h
; File D:\Metin2 Server Files\mainline\SRC_2014\Metin2Client\MilesLib\SoundManager.cpp
; File C:\Program Files (x86)\Microsoft Visual Studio\2019\Community\VC\Tools\MSVC\14.28.29333\include\xstring
; File D:\Metin2 Server Files\mainline\SRC_2014\Metin2Client\eterBase\Singleton.h
; File D:\Metin2 Server Files\mainline\SRC_2014\Metin2Client\MilesLib\SoundManager.cpp
; File C:\Program Files (x86)\Microsoft Visual Studio\2019\Community\VC\Tools\MSVC\14.28.29333\include\type_traits
; File C:\Program Files (x86)\Microsoft Visual Studio\2019\Community\VC\Tools\MSVC\14.28.29333\include\utility
; File C:\Program Files (x86)\Microsoft Visual Studio\2019\Community\VC\Tools\MSVC\14.28.29333\include\type_traits
; File C:\Program Files (x86)\Microsoft Visual Studio\2019\Community\VC\Tools\MSVC\14.28.29333\include\utility
; File D:\Metin2 Server Files\mainline\SRC_2014\Metin2Client\MilesLib\SoundManager.cpp
; File C:\Program Files (x86)\Microsoft Visual Studio\2019\Community\VC\Tools\MSVC\14.28.29333\include\xstring
; File D:\Metin2 Server Files\mainline\SRC_2014\Metin2Client\MilesLib\SoundManager.cpp
;	COMDAT ?PlayCharacterSound3D@CSoundManager@@QAEXMMMPBDH@Z
_TEXT	SEGMENT
$T2 = -108						; size = 8
tv218 = -100						; size = 4
$T3 = -96						; size = 4
$T4 = -92						; size = 4
$T5 = -88						; size = 4
$T6 = -84						; size = 4
_fTime$7 = -80						; size = 4
tv491 = -76						; size = 4
$T8 = -72						; size = 4
$T9 = -68						; size = 4
$T10 = -64						; size = 4
$T11 = -60						; size = 4
$T12 = -56						; size = 4
$T13 = -52						; size = 4
$T14 = -48						; size = 4
$T15 = -44						; size = 4
___param0$ = -40					; size = 4
__Scary$16 = -36					; size = 4
$T17 = -32						; size = 4
_fdy$18 = -28						; size = 4
_fdx$19 = -24						; size = 4
tv349 = -20						; size = 4
_itor$20 = -16						; size = 4
__$EHRec$ = -12						; size = 12
tv255 = 0						; size = 4
tv326 = 4						; size = 4
_pInstance$ = 8						; size = 4
$T21 = 14						; size = 1
$T22 = 15						; size = 1
_this$ = 16						; size = 4
$T23 = 20						; size = 24
$T24 = 44						; size = 24
$T25 = 68						; size = 28
__$ArrayPad$ = 96					; size = 4
_fx$ = 108						; size = 4
_fy$ = 112						; size = 4
_fz$ = 116						; size = 4
_c_szFileName$ = 120					; size = 4
_bCheckFrequency$ = 124					; size = 4
?PlayCharacterSound3D@CSoundManager@@QAEXMMMPBDH@Z PROC	; CSoundManager::PlayCharacterSound3D, COMDAT
; _this$ = ecx

; 380  : {

  00000	55		 push	 ebp
  00001	8d 6c 24 9c	 lea	 ebp, DWORD PTR [esp-100]
  00005	83 ec 64	 sub	 esp, 100		; 00000064H
  00008	6a ff		 push	 -1
  0000a	68 00 00 00 00	 push	 __ehhandler$?PlayCharacterSound3D@CSoundManager@@QAEXMMMPBDH@Z
  0000f	64 a1 00 00 00
	00		 mov	 eax, DWORD PTR fs:0
  00015	50		 push	 eax
  00016	83 ec 60	 sub	 esp, 96			; 00000060H
  00019	a1 00 00 00 00	 mov	 eax, DWORD PTR ___security_cookie
  0001e	33 c5		 xor	 eax, ebp
  00020	89 45 60	 mov	 DWORD PTR __$ArrayPad$[ebp], eax
  00023	50		 push	 eax
  00024	8d 45 f4	 lea	 eax, DWORD PTR __$EHRec$[ebp]
  00027	64 a3 00 00 00
	00		 mov	 DWORD PTR fs:0, eax
  0002d	89 4d 10	 mov	 DWORD PTR _this$[ebp], ecx

; 381  : 	if (0.0f == GetSoundVolume())

  00030	8b 4d 10	 mov	 ecx, DWORD PTR _this$[ebp]
  00033	e8 00 00 00 00	 call	 ?GetSoundVolume@CSoundManager@@QAEMXZ ; CSoundManager::GetSoundVolume
  00038	d9 5d ec	 fstp	 DWORD PTR tv349[ebp]
  0003b	0f 57 c0	 xorps	 xmm0, xmm0
  0003e	0f 2e 45 ec	 ucomiss xmm0, DWORD PTR tv349[ebp]
  00042	9f		 lahf
  00043	f6 c4 44	 test	 ah, 68			; 00000044H
  00046	7a 05		 jp	 SHORT $LN2@PlayCharac

; 382  : 		return;

  00048	e9 80 02 00 00	 jmp	 $LN1@PlayCharac
$LN2@PlayCharac:

; 383  : 
; 384  : 	//       - [levites]
; 385  : 	if (bCheckFrequency)

  0004d	83 7d 7c 00	 cmp	 DWORD PTR _bCheckFrequency$[ebp], 0
  00051	0f 84 dc 01 00
	00		 je	 $LN265@PlayCharac

; 386  : 	{
; 387  : 		static float s_fLimitDistance = 5000*5000;
; 388  : 		float fdx = (fx - m_fxPosition) * (fx - m_fxPosition);

  00057	8b 45 10	 mov	 eax, DWORD PTR _this$[ebp]
  0005a	f3 0f 10 45 6c	 movss	 xmm0, DWORD PTR _fx$[ebp]
  0005f	f3 0f 5c 40 0c	 subss	 xmm0, DWORD PTR [eax+12]
  00064	8b 45 10	 mov	 eax, DWORD PTR _this$[ebp]
  00067	f3 0f 10 4d 6c	 movss	 xmm1, DWORD PTR _fx$[ebp]
  0006c	f3 0f 5c 48 0c	 subss	 xmm1, DWORD PTR [eax+12]
  00071	f3 0f 59 c1	 mulss	 xmm0, xmm1
  00075	f3 0f 11 45 e8	 movss	 DWORD PTR _fdx$19[ebp], xmm0

; 389  : 		float fdy = (fy - m_fyPosition) * (fy - m_fyPosition);

  0007a	8b 45 10	 mov	 eax, DWORD PTR _this$[ebp]
  0007d	f3 0f 10 45 70	 movss	 xmm0, DWORD PTR _fy$[ebp]
  00082	f3 0f 5c 40 10	 subss	 xmm0, DWORD PTR [eax+16]
  00087	8b 45 10	 mov	 eax, DWORD PTR _this$[ebp]
  0008a	f3 0f 10 4d 70	 movss	 xmm1, DWORD PTR _fy$[ebp]
  0008f	f3 0f 5c 48 10	 subss	 xmm1, DWORD PTR [eax+16]
  00094	f3 0f 59 c1	 mulss	 xmm0, xmm1
  00098	f3 0f 11 45 e4	 movss	 DWORD PTR _fdy$18[ebp], xmm0

; 390  : 
; 391  : 		if (fdx+fdy > s_fLimitDistance)

  0009d	f3 0f 10 45 e8	 movss	 xmm0, DWORD PTR _fdx$19[ebp]
  000a2	f3 0f 58 45 e4	 addss	 xmm0, DWORD PTR _fdy$18[ebp]
  000a7	0f 2f 05 00 00
	00 00		 comiss	 xmm0, DWORD PTR ?s_fLimitDistance@?6??PlayCharacterSound3D@CSoundManager@@QAEXMMMPBDH@Z@4MA
  000ae	76 05		 jbe	 SHORT $LN4@PlayCharac

; 392  : 			return;

  000b0	e9 18 02 00 00	 jmp	 $LN1@PlayCharac
$LN4@PlayCharac:

; 393  : 
; 394  : 		std::map<std::string, float>::iterator itor = m_PlaySoundHistoryMap.find(c_szFileName);

  000b5	ff 75 78	 push	 DWORD PTR _c_szFileName$[ebp]
  000b8	8d 4d 2c	 lea	 ecx, DWORD PTR $T24[ebp]
  000bb	e8 00 00 00 00	 call	 ??0?$basic_string@DU?$char_traits@D@std@@V?$allocator@D@2@@std@@QAE@QBD@Z ; std::basic_string<char,std::char_traits<char>,std::allocator<char> >::basic_string<char,std::char_traits<char>,std::allocator<char> >
  000c0	83 65 fc 00	 and	 DWORD PTR __$EHRec$[ebp+8], 0
  000c4	8d 45 2c	 lea	 eax, DWORD PTR $T24[ebp]
  000c7	50		 push	 eax
  000c8	8d 45 f0	 lea	 eax, DWORD PTR _itor$20[ebp]
  000cb	50		 push	 eax
  000cc	8b 4d 10	 mov	 ecx, DWORD PTR _this$[ebp]
  000cf	83 c1 6c	 add	 ecx, 108		; 0000006cH
  000d2	e8 00 00 00 00	 call	 ?find@?$_Tree@V?$_Tmap_traits@V?$basic_string@DU?$char_traits@D@std@@V?$allocator@D@2@@std@@MU?$less@V?$basic_string@DU?$char_traits@D@std@@V?$allocator@D@2@@std@@@2@V?$allocator@U?$pair@$$CBV?$basic_string@DU?$char_traits@D@std@@V?$allocator@D@2@@std@@M@std@@@2@$0A@@std@@@std@@QAE?AV?$_Tree_iterator@V?$_Tree_val@U?$_Tree_simple_types@U?$pair@$$CBV?$basic_string@DU?$char_traits@D@std@@V?$allocator@D@2@@std@@M@std@@@std@@@std@@@2@ABV?$basic_string@DU?$char_traits@D@std@@V?$allocator@D@2@@2@@Z ; std::_Tree<std::_Tmap_traits<std::basic_string<char,std::char_traits<char>,std::allocator<char> >,float,std::less<std::basic_string<char,std::char_traits<char>,std::allocator<char> > >,std::allocator<std::pair<std::basic_string<char,std::char_traits<char>,std::allocator<char> > const ,float> >,0> >::find
  000d7	83 4d fc ff	 or	 DWORD PTR __$EHRec$[ebp+8], -1
; File C:\Program Files (x86)\Microsoft Visual Studio\2019\Community\VC\Tools\MSVC\14.28.29333\include\xstring

; 2801 :         _Tidy_deallocate();

  000db	8d 4d 2c	 lea	 ecx, DWORD PTR $T24[ebp]
  000de	e8 00 00 00 00	 call	 ?_Tidy_deallocate@?$basic_string@DU?$char_traits@D@std@@V?$allocator@D@2@@std@@AAEXXZ ; std::basic_string<char,std::char_traits<char>,std::allocator<char> >::_Tidy_deallocate
; File C:\Program Files (x86)\Microsoft Visual Studio\2019\Community\VC\Tools\MSVC\14.28.29333\include\xtree

; 2047 :         return _STD addressof(_Mypair._Myval2._Myval2);

  000e3	8b 45 10	 mov	 eax, DWORD PTR _this$[ebp]
  000e6	83 c0 6c	 add	 eax, 108		; 0000006cH
; File C:\Program Files (x86)\Microsoft Visual Studio\2019\Community\VC\Tools\MSVC\14.28.29333\include\xstddef

; 275  :     return __builtin_addressof(_Val);

  000e9	89 45 e0	 mov	 DWORD PTR $T17[ebp], eax
; File C:\Program Files (x86)\Microsoft Visual Studio\2019\Community\VC\Tools\MSVC\14.28.29333\include\xtree

; 2047 :         return _STD addressof(_Mypair._Myval2._Myval2);

  000ec	8b 45 e0	 mov	 eax, DWORD PTR $T17[ebp]
  000ef	89 45 dc	 mov	 DWORD PTR __Scary$16[ebp], eax

; 1250 :         return iterator(_Scary->_Myhead, _Scary);

  000f2	8b 45 dc	 mov	 eax, DWORD PTR __Scary$16[ebp]
  000f5	8b 00		 mov	 eax, DWORD PTR [eax]
  000f7	89 45 d8	 mov	 DWORD PTR ___param0$[ebp], eax

; 39   :     _Tree_unchecked_const_iterator(_Nodeptr _Pnode, const _Mytree* _Plist) noexcept : _Ptr(_Pnode) {

  000fa	8b 45 d8	 mov	 eax, DWORD PTR ___param0$[ebp]
  000fd	89 45 d4	 mov	 DWORD PTR $T15[ebp], eax

; 1250 :         return iterator(_Scary->_Myhead, _Scary);

  00100	8d 45 d4	 lea	 eax, DWORD PTR $T15[ebp]
  00103	89 45 d0	 mov	 DWORD PTR $T14[ebp], eax

; 232  :         return this->_Ptr == _Right._Ptr;

  00106	8b 45 d0	 mov	 eax, DWORD PTR $T14[ebp]
  00109	8b 00		 mov	 eax, DWORD PTR [eax]
  0010b	3b 45 f0	 cmp	 eax, DWORD PTR _itor$20[ebp]
  0010e	75 09		 jne	 SHORT $LN112@PlayCharac
  00110	c7 45 04 01 00
	00 00		 mov	 DWORD PTR tv326[ebp], 1
  00117	eb 04		 jmp	 SHORT $LN113@PlayCharac
$LN112@PlayCharac:
  00119	83 65 04 00	 and	 DWORD PTR tv326[ebp], 0
$LN113@PlayCharac:
  0011d	8a 45 04	 mov	 al, BYTE PTR tv326[ebp]
  00120	88 45 0f	 mov	 BYTE PTR $T22[ebp], al

; 236  :         return !(*this == _Right);

  00123	0f b6 45 0f	 movzx	 eax, BYTE PTR $T22[ebp]
  00127	85 c0		 test	 eax, eax
  00129	75 09		 jne	 SHORT $LN107@PlayCharac
  0012b	c7 45 00 01 00
	00 00		 mov	 DWORD PTR tv255[ebp], 1
  00132	eb 04		 jmp	 SHORT $LN108@PlayCharac
$LN107@PlayCharac:
  00134	83 65 00 00	 and	 DWORD PTR tv255[ebp], 0
$LN108@PlayCharac:
  00138	8a 45 00	 mov	 al, BYTE PTR tv255[ebp]
  0013b	88 45 0e	 mov	 BYTE PTR $T21[ebp], al
; File D:\Metin2 Server Files\mainline\SRC_2014\Metin2Client\MilesLib\SoundManager.cpp

; 395  : 		if (m_PlaySoundHistoryMap.end() != itor)

  0013e	0f b6 45 0e	 movzx	 eax, BYTE PTR $T21[ebp]
  00142	85 c0		 test	 eax, eax
  00144	74 5d		 je	 SHORT $LN6@PlayCharac
; File C:\Program Files (x86)\Microsoft Visual Studio\2019\Community\VC\Tools\MSVC\14.28.29333\include\xtree

; 185  :         return this->_Ptr->_Myval;

  00146	8b 45 f0	 mov	 eax, DWORD PTR _itor$20[ebp]
  00149	83 c0 10	 add	 eax, 16			; 00000010H
  0014c	89 45 cc	 mov	 DWORD PTR $T13[ebp], eax

; 273  :         return const_cast<reference>(_Mybase::operator*());

  0014f	8b 45 cc	 mov	 eax, DWORD PTR $T13[ebp]
  00152	89 45 c8	 mov	 DWORD PTR $T12[ebp], eax
; File C:\Program Files (x86)\Microsoft Visual Studio\2019\Community\VC\Tools\MSVC\14.28.29333\include\xstddef

; 275  :     return __builtin_addressof(_Val);

  00155	8b 45 c8	 mov	 eax, DWORD PTR $T12[ebp]
  00158	89 45 c4	 mov	 DWORD PTR $T11[ebp], eax
; File C:\Program Files (x86)\Microsoft Visual Studio\2019\Community\VC\Tools\MSVC\14.28.29333\include\xutility

; 151  :         return _STD addressof(_Val);

  0015b	8b 45 c4	 mov	 eax, DWORD PTR $T11[ebp]
  0015e	89 45 c0	 mov	 DWORD PTR $T10[ebp], eax
; File C:\Program Files (x86)\Microsoft Visual Studio\2019\Community\VC\Tools\MSVC\14.28.29333\include\xtree

; 277  :         return pointer_traits<pointer>::pointer_to(**this);

  00161	8b 45 c0	 mov	 eax, DWORD PTR $T10[ebp]
  00164	89 45 bc	 mov	 DWORD PTR $T9[ebp], eax
; File D:\Metin2 Server Files\mainline\SRC_2014\Metin2Client\MilesLib\SoundManager.cpp

; 397  : 			float fTime = itor->second;

  00167	8b 45 bc	 mov	 eax, DWORD PTR $T9[ebp]
  0016a	f3 0f 10 40 18	 movss	 xmm0, DWORD PTR [eax+24]
  0016f	f3 0f 11 45 b0	 movss	 DWORD PTR _fTime$7[ebp], xmm0
; File D:\Metin2 Server Files\mainline\SRC_2014\Metin2Client\eterBase\Singleton.h

; 27   : 		return (*ms_singleton);

  00174	a1 00 00 00 00	 mov	 eax, DWORD PTR ?ms_singleton@?$CSingleton@VCTimer@@@@0PAVCTimer@@A ; CSingleton<CTimer>::ms_singleton
  00179	89 45 b8	 mov	 DWORD PTR $T8[ebp], eax
; File D:\Metin2 Server Files\mainline\SRC_2014\Metin2Client\MilesLib\SoundManager.cpp

; 398  : 			if (CTimer::Instance().GetCurrentSecond() - fTime < 0.3f)

  0017c	8b 4d b8	 mov	 ecx, DWORD PTR $T8[ebp]
  0017f	e8 00 00 00 00	 call	 ?GetCurrentSecond@CTimer@@QAEMXZ ; CTimer::GetCurrentSecond
  00184	d9 5d b4	 fstp	 DWORD PTR tv491[ebp]
  00187	f3 0f 10 45 b4	 movss	 xmm0, DWORD PTR tv491[ebp]
  0018c	f3 0f 5c 45 b0	 subss	 xmm0, DWORD PTR _fTime$7[ebp]
  00191	f3 0f 10 0d 00
	00 00 00	 movss	 xmm1, DWORD PTR __real@3e99999a
  00199	0f 2f c8	 comiss	 xmm1, xmm0
  0019c	76 05		 jbe	 SHORT $LN6@PlayCharac

; 399  : 			{
; 400  : 				//Tracef("  0.3    %s\n", c_szFileName);
; 401  : 				return;

  0019e	e9 2a 01 00 00	 jmp	 $LN1@PlayCharac
$LN6@PlayCharac:

; 402  : 			}
; 403  : 		}
; 404  : 
; 405  : 		m_PlaySoundHistoryMap.erase(c_szFileName);

  001a3	ff 75 78	 push	 DWORD PTR _c_szFileName$[ebp]
  001a6	8d 4d 14	 lea	 ecx, DWORD PTR $T23[ebp]
  001a9	e8 00 00 00 00	 call	 ??0?$basic_string@DU?$char_traits@D@std@@V?$allocator@D@2@@std@@QAE@QBD@Z ; std::basic_string<char,std::char_traits<char>,std::allocator<char> >::basic_string<char,std::char_traits<char>,std::allocator<char> >
  001ae	c7 45 fc 01 00
	00 00		 mov	 DWORD PTR __$EHRec$[ebp+8], 1
  001b5	8d 45 14	 lea	 eax, DWORD PTR $T23[ebp]
  001b8	50		 push	 eax
  001b9	8b 4d 10	 mov	 ecx, DWORD PTR _this$[ebp]
  001bc	83 c1 6c	 add	 ecx, 108		; 0000006cH
  001bf	e8 00 00 00 00	 call	 ?erase@?$_Tree@V?$_Tmap_traits@V?$basic_string@DU?$char_traits@D@std@@V?$allocator@D@2@@std@@MU?$less@V?$basic_string@DU?$char_traits@D@std@@V?$allocator@D@2@@std@@@2@V?$allocator@U?$pair@$$CBV?$basic_string@DU?$char_traits@D@std@@V?$allocator@D@2@@std@@M@std@@@2@$0A@@std@@@std@@QAEIABV?$basic_string@DU?$char_traits@D@std@@V?$allocator@D@2@@2@@Z ; std::_Tree<std::_Tmap_traits<std::basic_string<char,std::char_traits<char>,std::allocator<char> >,float,std::less<std::basic_string<char,std::char_traits<char>,std::allocator<char> > >,std::allocator<std::pair<std::basic_string<char,std::char_traits<char>,std::allocator<char> > const ,float> >,0> >::erase
  001c4	83 4d fc ff	 or	 DWORD PTR __$EHRec$[ebp+8], -1
; File C:\Program Files (x86)\Microsoft Visual Studio\2019\Community\VC\Tools\MSVC\14.28.29333\include\xstring

; 2801 :         _Tidy_deallocate();

  001c8	8d 4d 14	 lea	 ecx, DWORD PTR $T23[ebp]
  001cb	e8 00 00 00 00	 call	 ?_Tidy_deallocate@?$basic_string@DU?$char_traits@D@std@@V?$allocator@D@2@@std@@AAEXXZ ; std::basic_string<char,std::char_traits<char>,std::allocator<char> >::_Tidy_deallocate
; File D:\Metin2 Server Files\mainline\SRC_2014\Metin2Client\eterBase\Singleton.h

; 27   : 		return (*ms_singleton);

  001d0	a1 00 00 00 00	 mov	 eax, DWORD PTR ?ms_singleton@?$CSingleton@VCTimer@@@@0PAVCTimer@@A ; CSingleton<CTimer>::ms_singleton
  001d5	89 45 ac	 mov	 DWORD PTR $T6[ebp], eax
; File D:\Metin2 Server Files\mainline\SRC_2014\Metin2Client\MilesLib\SoundManager.cpp

; 406  : 		m_PlaySoundHistoryMap.insert(std::map<std::string, float>::value_type(c_szFileName, CTimer::Instance().GetCurrentSecond()));

  001d8	8b 4d ac	 mov	 ecx, DWORD PTR $T6[ebp]
  001db	e8 00 00 00 00	 call	 ?GetCurrentSecond@CTimer@@QAEMXZ ; CTimer::GetCurrentSecond
  001e0	d9 5d a4	 fstp	 DWORD PTR $T4[ebp]
; File C:\Program Files (x86)\Microsoft Visual Studio\2019\Community\VC\Tools\MSVC\14.28.29333\include\type_traits

; 1443 :     return static_cast<_Ty&&>(_Arg);

  001e3	8d 45 78	 lea	 eax, DWORD PTR _c_szFileName$[ebp]
  001e6	89 45 a8	 mov	 DWORD PTR $T5[ebp], eax
; File C:\Program Files (x86)\Microsoft Visual Studio\2019\Community\VC\Tools\MSVC\14.28.29333\include\utility

; 190  :         : first(_STD forward<_Other1>(_Val1)), second(_STD forward<_Other2>(_Val2)) {}

  001e9	8b 45 a8	 mov	 eax, DWORD PTR $T5[ebp]
  001ec	ff 30		 push	 DWORD PTR [eax]
  001ee	8d 4d 44	 lea	 ecx, DWORD PTR $T25[ebp]
  001f1	e8 00 00 00 00	 call	 ??0?$basic_string@DU?$char_traits@D@std@@V?$allocator@D@2@@std@@QAE@QBD@Z ; std::basic_string<char,std::char_traits<char>,std::allocator<char> >::basic_string<char,std::char_traits<char>,std::allocator<char> >
; File C:\Program Files (x86)\Microsoft Visual Studio\2019\Community\VC\Tools\MSVC\14.28.29333\include\type_traits

; 1443 :     return static_cast<_Ty&&>(_Arg);

  001f6	8d 45 a4	 lea	 eax, DWORD PTR $T4[ebp]
  001f9	89 45 a0	 mov	 DWORD PTR $T3[ebp], eax
; File C:\Program Files (x86)\Microsoft Visual Studio\2019\Community\VC\Tools\MSVC\14.28.29333\include\utility

; 190  :         : first(_STD forward<_Other1>(_Val1)), second(_STD forward<_Other2>(_Val2)) {}

  001fc	8b 45 a0	 mov	 eax, DWORD PTR $T3[ebp]
  001ff	f3 0f 10 00	 movss	 xmm0, DWORD PTR [eax]
  00203	f3 0f 11 45 5c	 movss	 DWORD PTR $T25[ebp+24], xmm0
; File D:\Metin2 Server Files\mainline\SRC_2014\Metin2Client\MilesLib\SoundManager.cpp

; 406  : 		m_PlaySoundHistoryMap.insert(std::map<std::string, float>::value_type(c_szFileName, CTimer::Instance().GetCurrentSecond()));

  00208	8d 45 44	 lea	 eax, DWORD PTR $T25[ebp]
  0020b	89 45 9c	 mov	 DWORD PTR tv218[ebp], eax
  0020e	c7 45 fc 02 00
	00 00		 mov	 DWORD PTR __$EHRec$[ebp+8], 2
  00215	ff 75 9c	 push	 DWORD PTR tv218[ebp]
  00218	8d 45 94	 lea	 eax, DWORD PTR $T2[ebp]
  0021b	50		 push	 eax
  0021c	8b 4d 10	 mov	 ecx, DWORD PTR _this$[ebp]
  0021f	83 c1 6c	 add	 ecx, 108		; 0000006cH
  00222	e8 00 00 00 00	 call	 ??$insert@$0A@$0A@@?$_Tree@V?$_Tmap_traits@V?$basic_string@DU?$char_traits@D@std@@V?$allocator@D@2@@std@@MU?$less@V?$basic_string@DU?$char_traits@D@std@@V?$allocator@D@2@@std@@@2@V?$allocator@U?$pair@$$CBV?$basic_string@DU?$char_traits@D@std@@V?$allocator@D@2@@std@@M@std@@@2@$0A@@std@@@std@@QAE?AU?$pair@V?$_Tree_iterator@V?$_Tree_val@U?$_Tree_simple_types@U?$pair@$$CBV?$basic_string@DU?$char_traits@D@std@@V?$allocator@D@2@@std@@M@std@@@std@@@std@@@std@@_N@1@$$QAU?$pair@$$CBV?$basic_string@DU?$char_traits@D@std@@V?$allocator@D@2@@std@@M@1@@Z ; std::_Tree<std::_Tmap_traits<std::basic_string<char,std::char_traits<char>,std::allocator<char> >,float,std::less<std::basic_string<char,std::char_traits<char>,std::allocator<char> > >,std::allocator<std::pair<std::basic_string<char,std::char_traits<char>,std::allocator<char> > const ,float> >,0> >::insert<0,0>
  00227	83 4d fc ff	 or	 DWORD PTR __$EHRec$[ebp+8], -1
  0022b	8d 4d 44	 lea	 ecx, DWORD PTR $T25[ebp]
; File C:\Program Files (x86)\Microsoft Visual Studio\2019\Community\VC\Tools\MSVC\14.28.29333\include\xstring

; 2801 :         _Tidy_deallocate();

  0022e	e8 00 00 00 00	 call	 ?_Tidy_deallocate@?$basic_string@DU?$char_traits@D@std@@V?$allocator@D@2@@std@@AAEXXZ ; std::basic_string<char,std::char_traits<char>,std::allocator<char> >::_Tidy_deallocate
$LN265@PlayCharac:
; File D:\Metin2 Server Files\mainline\SRC_2014\Metin2Client\MilesLib\SoundManager.cpp

; 411  : 	if (!GetSoundInstance3D(c_szFileName, &pInstance))

  00233	8d 45 08	 lea	 eax, DWORD PTR _pInstance$[ebp]
  00236	50		 push	 eax
  00237	ff 75 78	 push	 DWORD PTR _c_szFileName$[ebp]
  0023a	8b 4d 10	 mov	 ecx, DWORD PTR _this$[ebp]
  0023d	e8 00 00 00 00	 call	 ?GetSoundInstance3D@CSoundManager@@IAEHPBDPAPAVISoundInstance@@@Z ; CSoundManager::GetSoundInstance3D
  00242	85 c0		 test	 eax, eax
  00244	75 05		 jne	 SHORT $LN7@PlayCharac

; 412  : 		return;

  00246	e9 82 00 00 00	 jmp	 $LN1@PlayCharac
$LN7@PlayCharac:

; 413  : 
; 414  : 	pInstance->SetPosition((fx - m_fxPosition) / m_fSoundScale,

  0024b	8b 45 10	 mov	 eax, DWORD PTR _this$[ebp]
  0024e	f3 0f 10 45 74	 movss	 xmm0, DWORD PTR _fz$[ebp]
  00253	f3 0f 5c 40 14	 subss	 xmm0, DWORD PTR [eax+20]
  00258	8b 45 10	 mov	 eax, DWORD PTR _this$[ebp]
  0025b	f3 0f 5e 40 18	 divss	 xmm0, DWORD PTR [eax+24]
  00260	51		 push	 ecx
  00261	f3 0f 11 04 24	 movss	 DWORD PTR [esp], xmm0
  00266	8b 45 10	 mov	 eax, DWORD PTR _this$[ebp]
  00269	f3 0f 10 45 70	 movss	 xmm0, DWORD PTR _fy$[ebp]
  0026e	f3 0f 5c 40 10	 subss	 xmm0, DWORD PTR [eax+16]
  00273	8b 45 10	 mov	 eax, DWORD PTR _this$[ebp]
  00276	f3 0f 5e 40 18	 divss	 xmm0, DWORD PTR [eax+24]
  0027b	51		 push	 ecx
  0027c	f3 0f 11 04 24	 movss	 DWORD PTR [esp], xmm0
  00281	8b 45 10	 mov	 eax, DWORD PTR _this$[ebp]
  00284	f3 0f 10 45 6c	 movss	 xmm0, DWORD PTR _fx$[ebp]
  00289	f3 0f 5c 40 0c	 subss	 xmm0, DWORD PTR [eax+12]
  0028e	8b 45 10	 mov	 eax, DWORD PTR _this$[ebp]
  00291	f3 0f 5e 40 18	 divss	 xmm0, DWORD PTR [eax+24]
  00296	51		 push	 ecx
  00297	f3 0f 11 04 24	 movss	 DWORD PTR [esp], xmm0
  0029c	8b 45 08	 mov	 eax, DWORD PTR _pInstance$[ebp]
  0029f	8b 00		 mov	 eax, DWORD PTR [eax]
  002a1	8b 4d 08	 mov	 ecx, DWORD PTR _pInstance$[ebp]
  002a4	ff 50 2c	 call	 DWORD PTR [eax+44]

; 415  : 						   (fy - m_fyPosition) / m_fSoundScale,
; 416  : 						   (fz - m_fzPosition) / m_fSoundScale);
; 417  : 
; 418  : 	pInstance->SetVolume(GetSoundVolume());

  002a7	8b 4d 10	 mov	 ecx, DWORD PTR _this$[ebp]
  002aa	e8 00 00 00 00	 call	 ?GetSoundVolume@CSoundManager@@QAEMXZ ; CSoundManager::GetSoundVolume
  002af	51		 push	 ecx
  002b0	d9 1c 24	 fstp	 DWORD PTR [esp]
  002b3	8b 45 08	 mov	 eax, DWORD PTR _pInstance$[ebp]
  002b6	8b 00		 mov	 eax, DWORD PTR [eax]
  002b8	8b 4d 08	 mov	 ecx, DWORD PTR _pInstance$[ebp]
  002bb	ff 50 24	 call	 DWORD PTR [eax+36]

; 419  : 	pInstance->Play(1);

  002be	6a 00		 push	 0
  002c0	6a 01		 push	 1
  002c2	8b 45 08	 mov	 eax, DWORD PTR _pInstance$[ebp]
  002c5	8b 00		 mov	 eax, DWORD PTR [eax]
  002c7	8b 4d 08	 mov	 ecx, DWORD PTR _pInstance$[ebp]
  002ca	ff 50 10	 call	 DWORD PTR [eax+16]
$LN1@PlayCharac:

; 420  : }

  002cd	8b 4d f4	 mov	 ecx, DWORD PTR __$EHRec$[ebp]
  002d0	64 89 0d 00 00
	00 00		 mov	 DWORD PTR fs:0, ecx
  002d7	59		 pop	 ecx
  002d8	8b 4d 60	 mov	 ecx, DWORD PTR __$ArrayPad$[ebp]
  002db	33 cd		 xor	 ecx, ebp
  002dd	e8 00 00 00 00	 call	 @__security_check_cookie@4
  002e2	83 c5 64	 add	 ebp, 100		; 00000064H
  002e5	c9		 leave
  002e6	c2 14 00	 ret	 20			; 00000014H
_TEXT	ENDS
;	COMDAT text$x
text$x	SEGMENT
__unwindfunclet$?PlayCharacterSound3D@CSoundManager@@QAEXMMMPBDH@Z$0:
  00000	8d 4d 2c	 lea	 ecx, DWORD PTR $T24[ebp]
  00003	e9 00 00 00 00	 jmp	 ??1?$basic_string@DU?$char_traits@D@std@@V?$allocator@D@2@@std@@QAE@XZ ; std::basic_string<char,std::char_traits<char>,std::allocator<char> >::~basic_string<char,std::char_traits<char>,std::allocator<char> >
__unwindfunclet$?PlayCharacterSound3D@CSoundManager@@QAEXMMMPBDH@Z$1:
  00008	8d 4d 14	 lea	 ecx, DWORD PTR $T23[ebp]
  0000b	e9 00 00 00 00	 jmp	 ??1?$basic_string@DU?$char_traits@D@std@@V?$allocator@D@2@@std@@QAE@XZ ; std::basic_string<char,std::char_traits<char>,std::allocator<char> >::~basic_string<char,std::char_traits<char>,std::allocator<char> >
__unwindfunclet$?PlayCharacterSound3D@CSoundManager@@QAEXMMMPBDH@Z$2:
  00010	8d 4d 44	 lea	 ecx, DWORD PTR $T25[ebp]
  00013	e9 00 00 00 00	 jmp	 ??1?$pair@$$CBV?$basic_string@DU?$char_traits@D@std@@V?$allocator@D@2@@std@@M@std@@QAE@XZ
  00018	cc		 int	 3
  00019	cc		 int	 3
  0001a	cc		 int	 3
  0001b	cc		 int	 3
  0001c	cc		 int	 3
__ehhandler$?PlayCharacterSound3D@CSoundManager@@QAEXMMMPBDH@Z:
  0001d	90		 npad	 1
  0001e	90		 npad	 1
  0001f	8b 54 24 08	 mov	 edx, DWORD PTR [esp+8]
  00023	8d 42 0c	 lea	 eax, DWORD PTR [edx+12]
  00026	8b 4a 9c	 mov	 ecx, DWORD PTR [edx-100]
  00029	33 c8		 xor	 ecx, eax
  0002b	e8 00 00 00 00	 call	 @__security_check_cookie@4
  00030	8b 4a 6c	 mov	 ecx, DWORD PTR [edx+108]
  00033	33 c8		 xor	 ecx, eax
  00035	e8 00 00 00 00	 call	 @__security_check_cookie@4
  0003a	b8 00 00 00 00	 mov	 eax, OFFSET __ehfuncinfo$?PlayCharacterSound3D@CSoundManager@@QAEXMMMPBDH@Z
  0003f	e9 00 00 00 00	 jmp	 ___CxxFrameHandler3
text$x	ENDS
?PlayCharacterSound3D@CSoundManager@@QAEXMMMPBDH@Z ENDP	; CSoundManager::PlayCharacterSound3D
; Function compile flags: /Odspy
; File D:\Metin2 Server Files\mainline\SRC_2014\Metin2Client\MilesLib\SoundManager.cpp
;	COMDAT ?PlayAmbienceSound3D@CSoundManager@@QAEHMMMPBDH@Z
_TEXT	SEGMENT
tv142 = -16						; size = 4
_iIndex$ = -12						; size = 4
_pInstance$ = -8					; size = 4
_this$ = -4						; size = 4
_fx$ = 8						; size = 4
_fy$ = 12						; size = 4
_fz$ = 16						; size = 4
_c_szFileName$ = 20					; size = 4
_iPlayCount$ = 24					; size = 4
?PlayAmbienceSound3D@CSoundManager@@QAEHMMMPBDH@Z PROC	; CSoundManager::PlayAmbienceSound3D, COMDAT
; _this$ = ecx

; 357  : {

  00000	55		 push	 ebp
  00001	8b ec		 mov	 ebp, esp
  00003	83 ec 10	 sub	 esp, 16			; 00000010H
  00006	89 4d fc	 mov	 DWORD PTR _this$[ebp], ecx

; 358  : 	if (0.0f == GetSoundVolume())

  00009	8b 4d fc	 mov	 ecx, DWORD PTR _this$[ebp]
  0000c	e8 00 00 00 00	 call	 ?GetSoundVolume@CSoundManager@@QAEMXZ ; CSoundManager::GetSoundVolume
  00011	d9 5d f0	 fstp	 DWORD PTR tv142[ebp]
  00014	0f 57 c0	 xorps	 xmm0, xmm0
  00017	0f 2e 45 f0	 ucomiss xmm0, DWORD PTR tv142[ebp]
  0001b	9f		 lahf
  0001c	f6 c4 44	 test	 ah, 68			; 00000044H
  0001f	7a 0a		 jp	 SHORT $LN2@PlayAmbien

; 359  : 		return -1;

  00021	b8 ff ff ff ff	 mov	 eax, -1
  00026	e9 c2 00 00 00	 jmp	 $LN1@PlayAmbien
$LN2@PlayAmbien:

; 360  : 
; 361  : 	int iIndex = ms_SoundManager3D.SetInstance(c_szFileName);

  0002b	ff 75 14	 push	 DWORD PTR _c_szFileName$[ebp]
  0002e	b9 00 00 00 00	 mov	 ecx, OFFSET ?ms_SoundManager3D@CSoundManager@@1VCSoundManager3D@@A ; CSoundManager::ms_SoundManager3D
  00033	e8 00 00 00 00	 call	 ?SetInstance@CSoundManager3D@@QAEHPBD@Z ; CSoundManager3D::SetInstance
  00038	89 45 f4	 mov	 DWORD PTR _iIndex$[ebp], eax

; 362  : 	if (-1 == iIndex)

  0003b	83 7d f4 ff	 cmp	 DWORD PTR _iIndex$[ebp], -1
  0003f	75 08		 jne	 SHORT $LN3@PlayAmbien

; 363  : 		return -1;

  00041	83 c8 ff	 or	 eax, -1
  00044	e9 a4 00 00 00	 jmp	 $LN1@PlayAmbien
$LN3@PlayAmbien:

; 364  : 
; 365  : 	ISoundInstance * pInstance = ms_SoundManager3D.GetInstance(iIndex);

  00049	ff 75 f4	 push	 DWORD PTR _iIndex$[ebp]
  0004c	b9 00 00 00 00	 mov	 ecx, OFFSET ?ms_SoundManager3D@CSoundManager@@1VCSoundManager3D@@A ; CSoundManager::ms_SoundManager3D
  00051	e8 00 00 00 00	 call	 ?GetInstance@CSoundManager3D@@QAEPAVISoundInstance@@K@Z ; CSoundManager3D::GetInstance
  00056	89 45 f8	 mov	 DWORD PTR _pInstance$[ebp], eax

; 366  : 	if (!pInstance)

  00059	83 7d f8 00	 cmp	 DWORD PTR _pInstance$[ebp], 0
  0005d	75 08		 jne	 SHORT $LN4@PlayAmbien

; 367  : 		return -1;

  0005f	83 c8 ff	 or	 eax, -1
  00062	e9 86 00 00 00	 jmp	 $LN1@PlayAmbien
$LN4@PlayAmbien:

; 368  : 
; 369  : 	pInstance->SetPosition((fx - m_fxPosition) / m_fAmbienceSoundScale,

  00067	8b 45 fc	 mov	 eax, DWORD PTR _this$[ebp]
  0006a	f3 0f 10 45 10	 movss	 xmm0, DWORD PTR _fz$[ebp]
  0006f	f3 0f 5c 40 14	 subss	 xmm0, DWORD PTR [eax+20]
  00074	8b 45 fc	 mov	 eax, DWORD PTR _this$[ebp]
  00077	f3 0f 5e 40 1c	 divss	 xmm0, DWORD PTR [eax+28]
  0007c	51		 push	 ecx
  0007d	f3 0f 11 04 24	 movss	 DWORD PTR [esp], xmm0
  00082	8b 45 fc	 mov	 eax, DWORD PTR _this$[ebp]
  00085	f3 0f 10 45 0c	 movss	 xmm0, DWORD PTR _fy$[ebp]
  0008a	f3 0f 5c 40 10	 subss	 xmm0, DWORD PTR [eax+16]
  0008f	8b 45 fc	 mov	 eax, DWORD PTR _this$[ebp]
  00092	f3 0f 5e 40 1c	 divss	 xmm0, DWORD PTR [eax+28]
  00097	51		 push	 ecx
  00098	f3 0f 11 04 24	 movss	 DWORD PTR [esp], xmm0
  0009d	8b 45 fc	 mov	 eax, DWORD PTR _this$[ebp]
  000a0	f3 0f 10 45 08	 movss	 xmm0, DWORD PTR _fx$[ebp]
  000a5	f3 0f 5c 40 0c	 subss	 xmm0, DWORD PTR [eax+12]
  000aa	8b 45 fc	 mov	 eax, DWORD PTR _this$[ebp]
  000ad	f3 0f 5e 40 1c	 divss	 xmm0, DWORD PTR [eax+28]
  000b2	51		 push	 ecx
  000b3	f3 0f 11 04 24	 movss	 DWORD PTR [esp], xmm0
  000b8	8b 45 f8	 mov	 eax, DWORD PTR _pInstance$[ebp]
  000bb	8b 00		 mov	 eax, DWORD PTR [eax]
  000bd	8b 4d f8	 mov	 ecx, DWORD PTR _pInstance$[ebp]
  000c0	ff 50 2c	 call	 DWORD PTR [eax+44]

; 370  : 						   (fy - m_fyPosition) / m_fAmbienceSoundScale,
; 371  : 						   (fz - m_fzPosition) / m_fAmbienceSoundScale);
; 372  : 
; 373  : 	pInstance->SetVolume(GetSoundVolume());

  000c3	8b 4d fc	 mov	 ecx, DWORD PTR _this$[ebp]
  000c6	e8 00 00 00 00	 call	 ?GetSoundVolume@CSoundManager@@QAEMXZ ; CSoundManager::GetSoundVolume
  000cb	51		 push	 ecx
  000cc	d9 1c 24	 fstp	 DWORD PTR [esp]
  000cf	8b 45 f8	 mov	 eax, DWORD PTR _pInstance$[ebp]
  000d2	8b 00		 mov	 eax, DWORD PTR [eax]
  000d4	8b 4d f8	 mov	 ecx, DWORD PTR _pInstance$[ebp]
  000d7	ff 50 24	 call	 DWORD PTR [eax+36]

; 374  : 	pInstance->Play(iPlayCount);

  000da	6a 00		 push	 0
  000dc	ff 75 18	 push	 DWORD PTR _iPlayCount$[ebp]
  000df	8b 45 f8	 mov	 eax, DWORD PTR _pInstance$[ebp]
  000e2	8b 00		 mov	 eax, DWORD PTR [eax]
  000e4	8b 4d f8	 mov	 ecx, DWORD PTR _pInstance$[ebp]
  000e7	ff 50 10	 call	 DWORD PTR [eax+16]

; 375  : 
; 376  : 	return iIndex;

  000ea	8b 45 f4	 mov	 eax, DWORD PTR _iIndex$[ebp]
$LN1@PlayAmbien:

; 377  : }

  000ed	c9		 leave
  000ee	c2 14 00	 ret	 20			; 00000014H
?PlayAmbienceSound3D@CSoundManager@@QAEHMMMPBDH@Z ENDP	; CSoundManager::PlayAmbienceSound3D
_TEXT	ENDS
; Function compile flags: /Odspy
; File D:\Metin2 Server Files\mainline\SRC_2014\Metin2Client\MilesLib\SoundManager.cpp
;	COMDAT ?StopSound3D@CSoundManager@@QAEXH@Z
_TEXT	SEGMENT
_this$ = -8						; size = 4
_pInstance$ = -4					; size = 4
_iIndex$ = 8						; size = 4
?StopSound3D@CSoundManager@@QAEXH@Z PROC		; CSoundManager::StopSound3D, COMDAT
; _this$ = ecx

; 423  : {

  00000	55		 push	 ebp
  00001	8b ec		 mov	 ebp, esp
  00003	51		 push	 ecx
  00004	51		 push	 ecx
  00005	89 4d f8	 mov	 DWORD PTR _this$[ebp], ecx

; 424  : 	ISoundInstance * pInstance = ms_SoundManager3D.GetInstance(iIndex);

  00008	ff 75 08	 push	 DWORD PTR _iIndex$[ebp]
  0000b	b9 00 00 00 00	 mov	 ecx, OFFSET ?ms_SoundManager3D@CSoundManager@@1VCSoundManager3D@@A ; CSoundManager::ms_SoundManager3D
  00010	e8 00 00 00 00	 call	 ?GetInstance@CSoundManager3D@@QAEPAVISoundInstance@@K@Z ; CSoundManager3D::GetInstance
  00015	89 45 fc	 mov	 DWORD PTR _pInstance$[ebp], eax

; 425  : 
; 426  : 	if (!pInstance)

  00018	83 7d fc 00	 cmp	 DWORD PTR _pInstance$[ebp], 0
  0001c	75 02		 jne	 SHORT $LN2@StopSound3

; 427  : 		return;

  0001e	eb 0b		 jmp	 SHORT $LN1@StopSound3
$LN2@StopSound3:

; 428  : 
; 429  : 	pInstance->Stop();

  00020	8b 45 fc	 mov	 eax, DWORD PTR _pInstance$[ebp]
  00023	8b 00		 mov	 eax, DWORD PTR [eax]
  00025	8b 4d fc	 mov	 ecx, DWORD PTR _pInstance$[ebp]
  00028	ff 50 1c	 call	 DWORD PTR [eax+28]
$LN1@StopSound3:

; 430  : 	//bool bisDone = pInstance->IsDone();
; 431  : }

  0002b	c9		 leave
  0002c	c2 04 00	 ret	 4
?StopSound3D@CSoundManager@@QAEXH@Z ENDP		; CSoundManager::StopSound3D
_TEXT	ENDS
; Function compile flags: /Odspy
; File D:\Metin2 Server Files\mainline\SRC_2014\Metin2Client\MilesLib\SoundManager.cpp
;	COMDAT ?PlaySound3D@CSoundManager@@QAEXMMMPBDH@Z
_TEXT	SEGMENT
tv142 = -16						; size = 4
_iIndex$ = -12						; size = 4
_pInstance$ = -8					; size = 4
_this$ = -4						; size = 4
_fx$ = 8						; size = 4
_fy$ = 12						; size = 4
_fz$ = 16						; size = 4
_c_szFileName$ = 20					; size = 4
_iPlayCount$ = 24					; size = 4
?PlaySound3D@CSoundManager@@QAEXMMMPBDH@Z PROC		; CSoundManager::PlaySound3D, COMDAT
; _this$ = ecx

; 336  : {

  00000	55		 push	 ebp
  00001	8b ec		 mov	 ebp, esp
  00003	83 ec 10	 sub	 esp, 16			; 00000010H
  00006	89 4d fc	 mov	 DWORD PTR _this$[ebp], ecx

; 337  : 	if (0.0f == GetSoundVolume())

  00009	8b 4d fc	 mov	 ecx, DWORD PTR _this$[ebp]
  0000c	e8 00 00 00 00	 call	 ?GetSoundVolume@CSoundManager@@QAEMXZ ; CSoundManager::GetSoundVolume
  00011	d9 5d f0	 fstp	 DWORD PTR tv142[ebp]
  00014	0f 57 c0	 xorps	 xmm0, xmm0
  00017	0f 2e 45 f0	 ucomiss xmm0, DWORD PTR tv142[ebp]
  0001b	9f		 lahf
  0001c	f6 c4 44	 test	 ah, 68			; 00000044H
  0001f	7a 05		 jp	 SHORT $LN2@PlaySound3

; 338  : 		return;

  00021	e9 b9 00 00 00	 jmp	 $LN1@PlaySound3
$LN2@PlaySound3:

; 339  : 
; 340  : 	int iIndex = ms_SoundManager3D.SetInstance(c_szFileName);

  00026	ff 75 14	 push	 DWORD PTR _c_szFileName$[ebp]
  00029	b9 00 00 00 00	 mov	 ecx, OFFSET ?ms_SoundManager3D@CSoundManager@@1VCSoundManager3D@@A ; CSoundManager::ms_SoundManager3D
  0002e	e8 00 00 00 00	 call	 ?SetInstance@CSoundManager3D@@QAEHPBD@Z ; CSoundManager3D::SetInstance
  00033	89 45 f4	 mov	 DWORD PTR _iIndex$[ebp], eax

; 341  : 	if (-1 == iIndex)

  00036	83 7d f4 ff	 cmp	 DWORD PTR _iIndex$[ebp], -1
  0003a	75 05		 jne	 SHORT $LN3@PlaySound3

; 342  : 		return;

  0003c	e9 9e 00 00 00	 jmp	 $LN1@PlaySound3
$LN3@PlaySound3:

; 343  : 
; 344  : 	ISoundInstance * pInstance = ms_SoundManager3D.GetInstance(iIndex);

  00041	ff 75 f4	 push	 DWORD PTR _iIndex$[ebp]
  00044	b9 00 00 00 00	 mov	 ecx, OFFSET ?ms_SoundManager3D@CSoundManager@@1VCSoundManager3D@@A ; CSoundManager::ms_SoundManager3D
  00049	e8 00 00 00 00	 call	 ?GetInstance@CSoundManager3D@@QAEPAVISoundInstance@@K@Z ; CSoundManager3D::GetInstance
  0004e	89 45 f8	 mov	 DWORD PTR _pInstance$[ebp], eax

; 345  : 	if (!pInstance)

  00051	83 7d f8 00	 cmp	 DWORD PTR _pInstance$[ebp], 0
  00055	75 05		 jne	 SHORT $LN4@PlaySound3

; 346  : 		return;

  00057	e9 83 00 00 00	 jmp	 $LN1@PlaySound3
$LN4@PlaySound3:

; 347  : 
; 348  : 	pInstance->SetPosition((fx - m_fxPosition) / m_fSoundScale,

  0005c	8b 45 fc	 mov	 eax, DWORD PTR _this$[ebp]
  0005f	f3 0f 10 45 10	 movss	 xmm0, DWORD PTR _fz$[ebp]
  00064	f3 0f 5c 40 14	 subss	 xmm0, DWORD PTR [eax+20]
  00069	8b 45 fc	 mov	 eax, DWORD PTR _this$[ebp]
  0006c	f3 0f 5e 40 18	 divss	 xmm0, DWORD PTR [eax+24]
  00071	51		 push	 ecx
  00072	f3 0f 11 04 24	 movss	 DWORD PTR [esp], xmm0
  00077	8b 45 fc	 mov	 eax, DWORD PTR _this$[ebp]
  0007a	f3 0f 10 45 0c	 movss	 xmm0, DWORD PTR _fy$[ebp]
  0007f	f3 0f 5c 40 10	 subss	 xmm0, DWORD PTR [eax+16]
  00084	8b 45 fc	 mov	 eax, DWORD PTR _this$[ebp]
  00087	f3 0f 5e 40 18	 divss	 xmm0, DWORD PTR [eax+24]
  0008c	51		 push	 ecx
  0008d	f3 0f 11 04 24	 movss	 DWORD PTR [esp], xmm0
  00092	8b 45 fc	 mov	 eax, DWORD PTR _this$[ebp]
  00095	f3 0f 10 45 08	 movss	 xmm0, DWORD PTR _fx$[ebp]
  0009a	f3 0f 5c 40 0c	 subss	 xmm0, DWORD PTR [eax+12]
  0009f	8b 45 fc	 mov	 eax, DWORD PTR _this$[ebp]
  000a2	f3 0f 5e 40 18	 divss	 xmm0, DWORD PTR [eax+24]
  000a7	51		 push	 ecx
  000a8	f3 0f 11 04 24	 movss	 DWORD PTR [esp], xmm0
  000ad	8b 45 f8	 mov	 eax, DWORD PTR _pInstance$[ebp]
  000b0	8b 00		 mov	 eax, DWORD PTR [eax]
  000b2	8b 4d f8	 mov	 ecx, DWORD PTR _pInstance$[ebp]
  000b5	ff 50 2c	 call	 DWORD PTR [eax+44]

; 349  : 						   (fy - m_fyPosition) / m_fSoundScale,
; 350  : 						   (fz - m_fzPosition) / m_fSoundScale);
; 351  : 
; 352  : 	pInstance->SetVolume(GetSoundVolume());

  000b8	8b 4d fc	 mov	 ecx, DWORD PTR _this$[ebp]
  000bb	e8 00 00 00 00	 call	 ?GetSoundVolume@CSoundManager@@QAEMXZ ; CSoundManager::GetSoundVolume
  000c0	51		 push	 ecx
  000c1	d9 1c 24	 fstp	 DWORD PTR [esp]
  000c4	8b 45 f8	 mov	 eax, DWORD PTR _pInstance$[ebp]
  000c7	8b 00		 mov	 eax, DWORD PTR [eax]
  000c9	8b 4d f8	 mov	 ecx, DWORD PTR _pInstance$[ebp]
  000cc	ff 50 24	 call	 DWORD PTR [eax+36]

; 353  : 	pInstance->Play(iPlayCount);

  000cf	6a 00		 push	 0
  000d1	ff 75 18	 push	 DWORD PTR _iPlayCount$[ebp]
  000d4	8b 45 f8	 mov	 eax, DWORD PTR _pInstance$[ebp]
  000d7	8b 00		 mov	 eax, DWORD PTR [eax]
  000d9	8b 4d f8	 mov	 ecx, DWORD PTR _pInstance$[ebp]
  000dc	ff 50 10	 call	 DWORD PTR [eax+16]
$LN1@PlaySound3:

; 354  : }

  000df	c9		 leave
  000e0	c2 14 00	 ret	 20			; 00000014H
?PlaySound3D@CSoundManager@@QAEXMMMPBDH@Z ENDP		; CSoundManager::PlaySound3D
_TEXT	ENDS
; Function compile flags: /Odspy
; File D:\Metin2 Server Files\mainline\SRC_2014\Metin2Client\MilesLib\SoundManager.cpp
;	COMDAT ?PlaySound2D@CSoundManager@@QAEXPBD@Z
_TEXT	SEGMENT
tv88 = -12						; size = 4
_this$ = -8						; size = 4
_pInstance$ = -4					; size = 4
_c_szFileName$ = 8					; size = 4
?PlaySound2D@CSoundManager@@QAEXPBD@Z PROC		; CSoundManager::PlaySound2D, COMDAT
; _this$ = ecx

; 323  : {

  00000	55		 push	 ebp
  00001	8b ec		 mov	 ebp, esp
  00003	83 ec 0c	 sub	 esp, 12			; 0000000cH
  00006	89 4d f8	 mov	 DWORD PTR _this$[ebp], ecx

; 324  : 	if (0.0f == GetSoundVolume())

  00009	8b 4d f8	 mov	 ecx, DWORD PTR _this$[ebp]
  0000c	e8 00 00 00 00	 call	 ?GetSoundVolume@CSoundManager@@QAEMXZ ; CSoundManager::GetSoundVolume
  00011	d9 5d f4	 fstp	 DWORD PTR tv88[ebp]
  00014	0f 57 c0	 xorps	 xmm0, xmm0
  00017	0f 2e 45 f4	 ucomiss xmm0, DWORD PTR tv88[ebp]
  0001b	9f		 lahf
  0001c	f6 c4 44	 test	 ah, 68			; 00000044H
  0001f	7a 02		 jp	 SHORT $LN2@PlaySound2

; 325  : 		return;

  00021	eb 3b		 jmp	 SHORT $LN1@PlaySound2
$LN2@PlaySound2:

; 326  : 
; 327  : 	ISoundInstance * pInstance;
; 328  : 	if (!GetSoundInstance2D(c_szFileName, &pInstance))

  00023	8d 45 fc	 lea	 eax, DWORD PTR _pInstance$[ebp]
  00026	50		 push	 eax
  00027	ff 75 08	 push	 DWORD PTR _c_szFileName$[ebp]
  0002a	8b 4d f8	 mov	 ecx, DWORD PTR _this$[ebp]
  0002d	e8 00 00 00 00	 call	 ?GetSoundInstance2D@CSoundManager@@IAEHPBDPAPAVISoundInstance@@@Z ; CSoundManager::GetSoundInstance2D
  00032	85 c0		 test	 eax, eax
  00034	75 02		 jne	 SHORT $LN3@PlaySound2

; 329  : 		return;

  00036	eb 26		 jmp	 SHORT $LN1@PlaySound2
$LN3@PlaySound2:

; 330  : 
; 331  : 	pInstance->SetVolume(GetSoundVolume());

  00038	8b 4d f8	 mov	 ecx, DWORD PTR _this$[ebp]
  0003b	e8 00 00 00 00	 call	 ?GetSoundVolume@CSoundManager@@QAEMXZ ; CSoundManager::GetSoundVolume
  00040	51		 push	 ecx
  00041	d9 1c 24	 fstp	 DWORD PTR [esp]
  00044	8b 45 fc	 mov	 eax, DWORD PTR _pInstance$[ebp]
  00047	8b 00		 mov	 eax, DWORD PTR [eax]
  00049	8b 4d fc	 mov	 ecx, DWORD PTR _pInstance$[ebp]
  0004c	ff 50 24	 call	 DWORD PTR [eax+36]

; 332  : 	pInstance->Play(1);

  0004f	6a 00		 push	 0
  00051	6a 01		 push	 1
  00053	8b 45 fc	 mov	 eax, DWORD PTR _pInstance$[ebp]
  00056	8b 00		 mov	 eax, DWORD PTR [eax]
  00058	8b 4d fc	 mov	 ecx, DWORD PTR _pInstance$[ebp]
  0005b	ff 50 10	 call	 DWORD PTR [eax+16]
$LN1@PlaySound2:

; 333  : }

  0005e	c9		 leave
  0005f	c2 04 00	 ret	 4
?PlaySound2D@CSoundManager@@QAEXPBD@Z ENDP		; CSoundManager::PlaySound2D
_TEXT	ENDS
; Function compile flags: /Odspy
; File D:\Metin2 Server Files\mainline\SRC_2014\Metin2Client\MilesLib\SoundManager.cpp
;	COMDAT ?GetMusicVolume@CSoundManager@@QAEMXZ
_TEXT	SEGMENT
_this$ = -4						; size = 4
?GetMusicVolume@CSoundManager@@QAEMXZ PROC		; CSoundManager::GetMusicVolume, COMDAT
; _this$ = ecx

; 293  : {

  00000	55		 push	 ebp
  00001	8b ec		 mov	 ebp, esp
  00003	51		 push	 ecx
  00004	89 4d fc	 mov	 DWORD PTR _this$[ebp], ecx

; 294  : 	return m_fMusicVolume;

  00007	8b 45 fc	 mov	 eax, DWORD PTR _this$[ebp]
  0000a	d9 40 24	 fld	 DWORD PTR [eax+36]

; 295  : }

  0000d	c9		 leave
  0000e	c3		 ret	 0
?GetMusicVolume@CSoundManager@@QAEMXZ ENDP		; CSoundManager::GetMusicVolume
_TEXT	ENDS
; Function compile flags: /Odspy
; File D:\Metin2 Server Files\mainline\SRC_2014\Metin2Client\MilesLib\SoundManager.cpp
;	COMDAT ?GetSoundVolume@CSoundManager@@QAEMXZ
_TEXT	SEGMENT
_this$ = -4						; size = 4
?GetSoundVolume@CSoundManager@@QAEMXZ PROC		; CSoundManager::GetSoundVolume, COMDAT
; _this$ = ecx

; 288  : {

  00000	55		 push	 ebp
  00001	8b ec		 mov	 ebp, esp
  00003	51		 push	 ecx
  00004	89 4d fc	 mov	 DWORD PTR _this$[ebp], ecx

; 289  : 	return m_fSoundVolume;

  00007	8b 45 fc	 mov	 eax, DWORD PTR _this$[ebp]
  0000a	d9 40 20	 fld	 DWORD PTR [eax+32]

; 290  : }

  0000d	c9		 leave
  0000e	c3		 ret	 0
?GetSoundVolume@CSoundManager@@QAEMXZ ENDP		; CSoundManager::GetSoundVolume
_TEXT	ENDS
; Function compile flags: /Odspy
; File D:\Metin2 Server Files\mainline\SRC_2014\Metin2Client\MilesLib\SoundManager.cpp
;	COMDAT ?RestoreVolume@CSoundManager@@QAEXXZ
_TEXT	SEGMENT
_this$ = -4						; size = 4
?RestoreVolume@CSoundManager@@QAEXXZ PROC		; CSoundManager::RestoreVolume, COMDAT
; _this$ = ecx

; 565  : {

  00000	55		 push	 ebp
  00001	8b ec		 mov	 ebp, esp
  00003	51		 push	 ecx
  00004	89 4d fc	 mov	 DWORD PTR _this$[ebp], ecx

; 566  : 	m_isSoundDisable = FALSE;

  00007	8b 45 fc	 mov	 eax, DWORD PTR _this$[ebp]
  0000a	83 60 08 00	 and	 DWORD PTR [eax+8], 0

; 567  : 	__SetMusicVolume(m_fBackupMusicVolume);

  0000e	8b 45 fc	 mov	 eax, DWORD PTR _this$[ebp]
  00011	51		 push	 ecx
  00012	f3 0f 10 40 28	 movss	 xmm0, DWORD PTR [eax+40]
  00017	f3 0f 11 04 24	 movss	 DWORD PTR [esp], xmm0
  0001c	8b 4d fc	 mov	 ecx, DWORD PTR _this$[ebp]
  0001f	e8 00 00 00 00	 call	 ?__SetMusicVolume@CSoundManager@@IAEXM@Z ; CSoundManager::__SetMusicVolume

; 568  : 	SetSoundVolume(m_fBackupSoundVolume);

  00024	8b 45 fc	 mov	 eax, DWORD PTR _this$[ebp]
  00027	51		 push	 ecx
  00028	f3 0f 10 40 2c	 movss	 xmm0, DWORD PTR [eax+44]
  0002d	f3 0f 11 04 24	 movss	 DWORD PTR [esp], xmm0
  00032	8b 4d fc	 mov	 ecx, DWORD PTR _this$[ebp]
  00035	e8 00 00 00 00	 call	 ?SetSoundVolume@CSoundManager@@QAEXM@Z ; CSoundManager::SetSoundVolume

; 569  : }

  0003a	c9		 leave
  0003b	c3		 ret	 0
?RestoreVolume@CSoundManager@@QAEXXZ ENDP		; CSoundManager::RestoreVolume
_TEXT	ENDS
; Function compile flags: /Odspy
; File D:\Metin2 Server Files\mainline\SRC_2014\Metin2Client\MilesLib\SoundManager.cpp
;	COMDAT ?SaveVolume@CSoundManager@@QAEXXZ
_TEXT	SEGMENT
_fBackupSoundVolume$ = -12				; size = 4
_fBackupMusicVolume$ = -8				; size = 4
_this$ = -4						; size = 4
?SaveVolume@CSoundManager@@QAEXXZ PROC			; CSoundManager::SaveVolume, COMDAT
; _this$ = ecx

; 550  : {

  00000	55		 push	 ebp
  00001	8b ec		 mov	 ebp, esp
  00003	83 ec 0c	 sub	 esp, 12			; 0000000cH
  00006	89 4d fc	 mov	 DWORD PTR _this$[ebp], ecx

; 551  : 	// NOTE :   Save   Return
; 552  : 	if (m_isSoundDisable)

  00009	8b 45 fc	 mov	 eax, DWORD PTR _this$[ebp]
  0000c	83 78 08 00	 cmp	 DWORD PTR [eax+8], 0
  00010	74 02		 je	 SHORT $LN2@SaveVolume

; 553  : 		return;

  00012	eb 60		 jmp	 SHORT $LN1@SaveVolume
$LN2@SaveVolume:

; 554  : 
; 555  : 	float fBackupMusicVolume = m_fMusicVolume;

  00014	8b 45 fc	 mov	 eax, DWORD PTR _this$[ebp]
  00017	f3 0f 10 40 24	 movss	 xmm0, DWORD PTR [eax+36]
  0001c	f3 0f 11 45 f8	 movss	 DWORD PTR _fBackupMusicVolume$[ebp], xmm0

; 556  : 	float fBackupSoundVolume = m_fSoundVolume;

  00021	8b 45 fc	 mov	 eax, DWORD PTR _this$[ebp]
  00024	f3 0f 10 40 20	 movss	 xmm0, DWORD PTR [eax+32]
  00029	f3 0f 11 45 f4	 movss	 DWORD PTR _fBackupSoundVolume$[ebp], xmm0

; 557  : 	__SetMusicVolume(0.0f);

  0002e	51		 push	 ecx
  0002f	0f 57 c0	 xorps	 xmm0, xmm0
  00032	f3 0f 11 04 24	 movss	 DWORD PTR [esp], xmm0
  00037	8b 4d fc	 mov	 ecx, DWORD PTR _this$[ebp]
  0003a	e8 00 00 00 00	 call	 ?__SetMusicVolume@CSoundManager@@IAEXM@Z ; CSoundManager::__SetMusicVolume

; 558  : 	SetSoundVolume(0.0f);

  0003f	51		 push	 ecx
  00040	0f 57 c0	 xorps	 xmm0, xmm0
  00043	f3 0f 11 04 24	 movss	 DWORD PTR [esp], xmm0
  00048	8b 4d fc	 mov	 ecx, DWORD PTR _this$[ebp]
  0004b	e8 00 00 00 00	 call	 ?SetSoundVolume@CSoundManager@@QAEXM@Z ; CSoundManager::SetSoundVolume

; 559  : 	m_fBackupMusicVolume = fBackupMusicVolume;

  00050	8b 45 fc	 mov	 eax, DWORD PTR _this$[ebp]
  00053	f3 0f 10 45 f8	 movss	 xmm0, DWORD PTR _fBackupMusicVolume$[ebp]
  00058	f3 0f 11 40 28	 movss	 DWORD PTR [eax+40], xmm0

; 560  : 	m_fBackupSoundVolume = fBackupSoundVolume;

  0005d	8b 45 fc	 mov	 eax, DWORD PTR _this$[ebp]
  00060	f3 0f 10 45 f4	 movss	 xmm0, DWORD PTR _fBackupSoundVolume$[ebp]
  00065	f3 0f 11 40 2c	 movss	 DWORD PTR [eax+44], xmm0

; 561  : 	m_isSoundDisable = TRUE;

  0006a	8b 45 fc	 mov	 eax, DWORD PTR _this$[ebp]
  0006d	c7 40 08 01 00
	00 00		 mov	 DWORD PTR [eax+8], 1
$LN1@SaveVolume:

; 562  : }

  00074	c9		 leave
  00075	c3		 ret	 0
?SaveVolume@CSoundManager@@QAEXXZ ENDP			; CSoundManager::SaveVolume
_TEXT	ENDS
; Function compile flags: /Odspy
; File D:\Metin2 Server Files\mainline\SRC_2014\Metin2Client\MilesLib\SoundManager.cpp
;	COMDAT ?SetSoundVolumeGrade@CSoundManager@@QAEXH@Z
_TEXT	SEGMENT
_fVolume$ = -8						; size = 4
_this$ = -4						; size = 4
_iGrade$ = 8						; size = 4
?SetSoundVolumeGrade@CSoundManager@@QAEXH@Z PROC	; CSoundManager::SetSoundVolumeGrade, COMDAT
; _this$ = ecx

; 264  : {

  00000	55		 push	 ebp
  00001	8b ec		 mov	 ebp, esp
  00003	51		 push	 ecx
  00004	51		 push	 ecx
  00005	89 4d fc	 mov	 DWORD PTR _this$[ebp], ecx

; 265  : 	float fVolume=__ConvertGradeVolumeToApplyVolume(iGrade);	

  00008	ff 75 08	 push	 DWORD PTR _iGrade$[ebp]
  0000b	8b 4d fc	 mov	 ecx, DWORD PTR _this$[ebp]
  0000e	e8 00 00 00 00	 call	 ?__ConvertGradeVolumeToApplyVolume@CSoundManager@@IAEMH@Z ; CSoundManager::__ConvertGradeVolumeToApplyVolume
  00013	d9 5d f8	 fstp	 DWORD PTR _fVolume$[ebp]

; 266  : 	SetSoundVolume(fVolume);

  00016	51		 push	 ecx
  00017	f3 0f 10 45 f8	 movss	 xmm0, DWORD PTR _fVolume$[ebp]
  0001c	f3 0f 11 04 24	 movss	 DWORD PTR [esp], xmm0
  00021	8b 4d fc	 mov	 ecx, DWORD PTR _this$[ebp]
  00024	e8 00 00 00 00	 call	 ?SetSoundVolume@CSoundManager@@QAEXM@Z ; CSoundManager::SetSoundVolume

; 267  : }

  00029	c9		 leave
  0002a	c2 04 00	 ret	 4
?SetSoundVolumeGrade@CSoundManager@@QAEXH@Z ENDP	; CSoundManager::SetSoundVolumeGrade
_TEXT	ENDS
; Function compile flags: /Odspy
; File D:\Metin2 Server Files\mainline\SRC_2014\Metin2Client\MilesLib\SoundManager.cpp
;	COMDAT ?SetMusicVolume@CSoundManager@@QAEXM@Z
_TEXT	SEGMENT
_this$ = -4						; size = 4
_fVolume$ = 8						; size = 4
?SetMusicVolume@CSoundManager@@QAEXM@Z PROC		; CSoundManager::SetMusicVolume, COMDAT
; _this$ = ecx

; 282  : {	

  00000	55		 push	 ebp
  00001	8b ec		 mov	 ebp, esp
  00003	51		 push	 ecx
  00004	89 4d fc	 mov	 DWORD PTR _this$[ebp], ecx

; 283  : 	//float fVolume = __ConvertRatioVolumeToApplyVolume(fRatio);
; 284  : 	__SetMusicVolume(fVolume);

  00007	51		 push	 ecx
  00008	f3 0f 10 45 08	 movss	 xmm0, DWORD PTR _fVolume$[ebp]
  0000d	f3 0f 11 04 24	 movss	 DWORD PTR [esp], xmm0
  00012	8b 4d fc	 mov	 ecx, DWORD PTR _this$[ebp]
  00015	e8 00 00 00 00	 call	 ?__SetMusicVolume@CSoundManager@@IAEXM@Z ; CSoundManager::__SetMusicVolume

; 285  : }

  0001a	c9		 leave
  0001b	c2 04 00	 ret	 4
?SetMusicVolume@CSoundManager@@QAEXM@Z ENDP		; CSoundManager::SetMusicVolume
_TEXT	ENDS
; Function compile flags: /Odspy
; File D:\Metin2 Server Files\mainline\SRC_2014\Metin2Client\MilesLib\SoundManager.cpp
;	COMDAT ?SetSoundVolumeRatio@CSoundManager@@QAEXM@Z
_TEXT	SEGMENT
_fVolume$ = -8						; size = 4
_this$ = -4						; size = 4
_fRatio$ = 8						; size = 4
?SetSoundVolumeRatio@CSoundManager@@QAEXM@Z PROC	; CSoundManager::SetSoundVolumeRatio, COMDAT
; _this$ = ecx

; 276  : {

  00000	55		 push	 ebp
  00001	8b ec		 mov	 ebp, esp
  00003	51		 push	 ecx
  00004	51		 push	 ecx
  00005	89 4d fc	 mov	 DWORD PTR _this$[ebp], ecx

; 277  : 	float fVolume = __ConvertRatioVolumeToApplyVolume(fRatio);

  00008	51		 push	 ecx
  00009	f3 0f 10 45 08	 movss	 xmm0, DWORD PTR _fRatio$[ebp]
  0000e	f3 0f 11 04 24	 movss	 DWORD PTR [esp], xmm0
  00013	8b 4d fc	 mov	 ecx, DWORD PTR _this$[ebp]
  00016	e8 00 00 00 00	 call	 ?__ConvertRatioVolumeToApplyVolume@CSoundManager@@IAEMM@Z ; CSoundManager::__ConvertRatioVolumeToApplyVolume
  0001b	d9 5d f8	 fstp	 DWORD PTR _fVolume$[ebp]

; 278  : 	SetSoundVolume(fVolume);

  0001e	51		 push	 ecx
  0001f	f3 0f 10 45 f8	 movss	 xmm0, DWORD PTR _fVolume$[ebp]
  00024	f3 0f 11 04 24	 movss	 DWORD PTR [esp], xmm0
  00029	8b 4d fc	 mov	 ecx, DWORD PTR _this$[ebp]
  0002c	e8 00 00 00 00	 call	 ?SetSoundVolume@CSoundManager@@QAEXM@Z ; CSoundManager::SetSoundVolume

; 279  : }

  00031	c9		 leave
  00032	c2 04 00	 ret	 4
?SetSoundVolumeRatio@CSoundManager@@QAEXM@Z ENDP	; CSoundManager::SetSoundVolumeRatio
_TEXT	ENDS
; Function compile flags: /Odspy
; File D:\Metin2 Server Files\mainline\SRC_2014\Metin2Client\MilesLib\SoundManager.cpp
;	COMDAT ?SetSoundVolume@CSoundManager@@QAEXM@Z
_TEXT	SEGMENT
_this$ = -4						; size = 4
_fVolume$ = 8						; size = 4
?SetSoundVolume@CSoundManager@@QAEXM@Z PROC		; CSoundManager::SetSoundVolume, COMDAT
; _this$ = ecx

; 199  : {

  00000	55		 push	 ebp
  00001	8b ec		 mov	 ebp, esp
  00003	51		 push	 ecx
  00004	89 4d fc	 mov	 DWORD PTR _this$[ebp], ecx

; 200  : 	if (m_isSoundDisable)

  00007	8b 45 fc	 mov	 eax, DWORD PTR _this$[ebp]
  0000a	83 78 08 00	 cmp	 DWORD PTR [eax+8], 0
  0000e	74 0f		 je	 SHORT $LN2@SetSoundVo

; 201  : 	{
; 202  : 		m_fBackupSoundVolume = fVolume;

  00010	8b 45 fc	 mov	 eax, DWORD PTR _this$[ebp]
  00013	f3 0f 10 45 08	 movss	 xmm0, DWORD PTR _fVolume$[ebp]
  00018	f3 0f 11 40 2c	 movss	 DWORD PTR [eax+44], xmm0

; 203  : 		return;

  0001d	eb 64		 jmp	 SHORT $LN1@SetSoundVo
$LN2@SetSoundVo:

; 204  : 	}
; 205  : 
; 206  : 	fVolume = fMAX(fVolume, 0.0f);

  0001f	51		 push	 ecx
  00020	0f 57 c0	 xorps	 xmm0, xmm0
  00023	f3 0f 11 04 24	 movss	 DWORD PTR [esp], xmm0
  00028	51		 push	 ecx
  00029	f3 0f 10 45 08	 movss	 xmm0, DWORD PTR _fVolume$[ebp]
  0002e	f3 0f 11 04 24	 movss	 DWORD PTR [esp], xmm0
  00033	e8 00 00 00 00	 call	 ?fMAX@@YAMMM@Z		; fMAX
  00038	59		 pop	 ecx
  00039	59		 pop	 ecx
  0003a	d9 5d 08	 fstp	 DWORD PTR _fVolume$[ebp]

; 207  : 	fVolume = fMIN(fVolume, 1.0f);

  0003d	51		 push	 ecx
  0003e	f3 0f 10 05 00
	00 00 00	 movss	 xmm0, DWORD PTR __real@3f800000
  00046	f3 0f 11 04 24	 movss	 DWORD PTR [esp], xmm0
  0004b	51		 push	 ecx
  0004c	f3 0f 10 45 08	 movss	 xmm0, DWORD PTR _fVolume$[ebp]
  00051	f3 0f 11 04 24	 movss	 DWORD PTR [esp], xmm0
  00056	e8 00 00 00 00	 call	 ?fMIN@@YAMMM@Z		; fMIN
  0005b	59		 pop	 ecx
  0005c	59		 pop	 ecx
  0005d	d9 5d 08	 fstp	 DWORD PTR _fVolume$[ebp]

; 208  : 	m_fSoundVolume = fVolume;

  00060	8b 45 fc	 mov	 eax, DWORD PTR _this$[ebp]
  00063	f3 0f 10 45 08	 movss	 xmm0, DWORD PTR _fVolume$[ebp]
  00068	f3 0f 11 40 20	 movss	 DWORD PTR [eax+32], xmm0

; 209  : 
; 210  : 	if (!m_isSoundDisable)

  0006d	8b 45 fc	 mov	 eax, DWORD PTR _this$[ebp]
  00070	83 78 08 00	 cmp	 DWORD PTR [eax+8], 0
  00074	75 0d		 jne	 SHORT $LN3@SetSoundVo

; 211  : 	{
; 212  : 		m_fBackupSoundVolume = fVolume;

  00076	8b 45 fc	 mov	 eax, DWORD PTR _this$[ebp]
  00079	f3 0f 10 45 08	 movss	 xmm0, DWORD PTR _fVolume$[ebp]
  0007e	f3 0f 11 40 2c	 movss	 DWORD PTR [eax+44], xmm0
$LN3@SetSoundVo:
$LN1@SetSoundVo:

; 213  : 	}
; 214  : }

  00083	c9		 leave
  00084	c2 04 00	 ret	 4
?SetSoundVolume@CSoundManager@@QAEXM@Z ENDP		; CSoundManager::SetSoundVolume
_TEXT	ENDS
; Function compile flags: /Odspy
; File D:\Metin2 Server Files\mainline\SRC_2014\Metin2Client\MilesLib\SoundManager.cpp
;	COMDAT ?SetAmbienceSoundScale@CSoundManager@@QAEXM@Z
_TEXT	SEGMENT
_this$ = -4						; size = 4
_fScale$ = 8						; size = 4
?SetAmbienceSoundScale@CSoundManager@@QAEXM@Z PROC	; CSoundManager::SetAmbienceSoundScale, COMDAT
; _this$ = ecx

; 194  : {

  00000	55		 push	 ebp
  00001	8b ec		 mov	 ebp, esp
  00003	51		 push	 ecx
  00004	89 4d fc	 mov	 DWORD PTR _this$[ebp], ecx

; 195  : 	m_fAmbienceSoundScale = fScale;

  00007	8b 45 fc	 mov	 eax, DWORD PTR _this$[ebp]
  0000a	f3 0f 10 45 08	 movss	 xmm0, DWORD PTR _fScale$[ebp]
  0000f	f3 0f 11 40 1c	 movss	 DWORD PTR [eax+28], xmm0

; 196  : }

  00014	c9		 leave
  00015	c2 04 00	 ret	 4
?SetAmbienceSoundScale@CSoundManager@@QAEXM@Z ENDP	; CSoundManager::SetAmbienceSoundScale
_TEXT	ENDS
; Function compile flags: /Odspy
; File D:\Metin2 Server Files\mainline\SRC_2014\Metin2Client\MilesLib\SoundManager.cpp
;	COMDAT ?SetSoundScale@CSoundManager@@QAEXM@Z
_TEXT	SEGMENT
_this$ = -4						; size = 4
_fScale$ = 8						; size = 4
?SetSoundScale@CSoundManager@@QAEXM@Z PROC		; CSoundManager::SetSoundScale, COMDAT
; _this$ = ecx

; 189  : {

  00000	55		 push	 ebp
  00001	8b ec		 mov	 ebp, esp
  00003	51		 push	 ecx
  00004	89 4d fc	 mov	 DWORD PTR _this$[ebp], ecx

; 190  : 	m_fSoundScale = fScale;

  00007	8b 45 fc	 mov	 eax, DWORD PTR _this$[ebp]
  0000a	f3 0f 10 45 08	 movss	 xmm0, DWORD PTR _fScale$[ebp]
  0000f	f3 0f 11 40 18	 movss	 DWORD PTR [eax+24], xmm0

; 191  : }

  00014	c9		 leave
  00015	c2 04 00	 ret	 4
?SetSoundScale@CSoundManager@@QAEXM@Z ENDP		; CSoundManager::SetSoundScale
_TEXT	ENDS
; Function compile flags: /Odspy
; File D:\Metin2 Server Files\mainline\SRC_2014\Metin2Client\MilesLib\SoundManager.cpp
;	COMDAT ?GetSoundScale@CSoundManager@@QAEMXZ
_TEXT	SEGMENT
_this$ = -4						; size = 4
?GetSoundScale@CSoundManager@@QAEMXZ PROC		; CSoundManager::GetSoundScale, COMDAT
; _this$ = ecx

; 184  : {

  00000	55		 push	 ebp
  00001	8b ec		 mov	 ebp, esp
  00003	51		 push	 ecx
  00004	89 4d fc	 mov	 DWORD PTR _this$[ebp], ecx

; 185  : 	return m_fSoundScale;

  00007	8b 45 fc	 mov	 eax, DWORD PTR _this$[ebp]
  0000a	d9 40 18	 fld	 DWORD PTR [eax+24]

; 186  : }

  0000d	c9		 leave
  0000e	c3		 ret	 0
?GetSoundScale@CSoundManager@@QAEMXZ ENDP		; CSoundManager::GetSoundScale
_TEXT	ENDS
; Function compile flags: /Odspy
; File D:\Metin2 Server Files\mainline\SRC_2014\Metin2Client\MilesLib\SoundManager.cpp
;	COMDAT ?Update@CSoundManager@@QAEXXZ
_TEXT	SEGMENT
tv207 = -32						; size = 4
_pInstance$1 = -28					; size = 4
_pInstance$2 = -24					; size = 4
_pInstance$3 = -20					; size = 4
tv76 = -16						; size = 4
_this$ = -12						; size = 4
_i$4 = -8						; size = 4
_rMusicInstance$5 = -4					; size = 4
?Update@CSoundManager@@QAEXXZ PROC			; CSoundManager::Update, COMDAT
; _this$ = ecx

; 84   : {

  00000	55		 push	 ebp
  00001	8b ec		 mov	 ebp, esp
  00003	83 ec 20	 sub	 esp, 32			; 00000020H
  00006	89 4d f4	 mov	 DWORD PTR _this$[ebp], ecx

; 85   : 	// Update Information about 3D Sound
; 86   : 	ms_SoundManager3D.SetListenerPosition(0.0f, 0.0f, 0.0f);

  00009	51		 push	 ecx
  0000a	0f 57 c0	 xorps	 xmm0, xmm0
  0000d	f3 0f 11 04 24	 movss	 DWORD PTR [esp], xmm0
  00012	51		 push	 ecx
  00013	0f 57 c0	 xorps	 xmm0, xmm0
  00016	f3 0f 11 04 24	 movss	 DWORD PTR [esp], xmm0
  0001b	51		 push	 ecx
  0001c	0f 57 c0	 xorps	 xmm0, xmm0
  0001f	f3 0f 11 04 24	 movss	 DWORD PTR [esp], xmm0
  00024	b9 00 00 00 00	 mov	 ecx, OFFSET ?ms_SoundManager3D@CSoundManager@@1VCSoundManager3D@@A ; CSoundManager::ms_SoundManager3D
  00029	e8 00 00 00 00	 call	 ?SetListenerPosition@CSoundManager3D@@QAEXMMM@Z ; CSoundManager3D::SetListenerPosition

; 87   : 
; 88   : 	for (int i = 0; i < CSoundManagerStream::MUSIC_INSTANCE_MAX_NUM; ++i)

  0002e	83 65 f8 00	 and	 DWORD PTR _i$4[ebp], 0
  00032	eb 07		 jmp	 SHORT $LN4@Update
$LN2@Update:
  00034	8b 45 f8	 mov	 eax, DWORD PTR _i$4[ebp]
  00037	40		 inc	 eax
  00038	89 45 f8	 mov	 DWORD PTR _i$4[ebp], eax
$LN4@Update:
  0003b	83 7d f8 03	 cmp	 DWORD PTR _i$4[ebp], 3
  0003f	0f 8d c4 01 00
	00		 jge	 $LN3@Update

; 89   : 	{
; 90   : 		TMusicInstance & rMusicInstance = m_MusicInstances[i];

  00045	6b 45 f8 14	 imul	 eax, DWORD PTR _i$4[ebp], 20
  00049	8b 4d f4	 mov	 ecx, DWORD PTR _this$[ebp]
  0004c	8d 44 01 30	 lea	 eax, DWORD PTR [ecx+eax+48]
  00050	89 45 fc	 mov	 DWORD PTR _rMusicInstance$5[ebp], eax

; 91   : 		if (MUSIC_STATE_OFF == rMusicInstance.MusicState)

  00053	8b 45 fc	 mov	 eax, DWORD PTR _rMusicInstance$5[ebp]
  00056	83 78 04 00	 cmp	 DWORD PTR [eax+4], 0
  0005a	75 02		 jne	 SHORT $LN7@Update

; 92   : 			continue;

  0005c	eb d6		 jmp	 SHORT $LN2@Update
$LN7@Update:

; 93   : 
; 94   : 		switch (rMusicInstance.MusicState)

  0005e	8b 45 fc	 mov	 eax, DWORD PTR _rMusicInstance$5[ebp]
  00061	8b 40 04	 mov	 eax, DWORD PTR [eax+4]
  00064	89 45 f0	 mov	 DWORD PTR tv76[ebp], eax
  00067	83 7d f0 02	 cmp	 DWORD PTR tv76[ebp], 2
  0006b	74 19		 je	 SHORT $LN8@Update
  0006d	83 7d f0 03	 cmp	 DWORD PTR tv76[ebp], 3
  00071	0f 84 12 01 00
	00		 je	 $LN14@Update
  00077	83 7d f0 04	 cmp	 DWORD PTR tv76[ebp], 4
  0007b	0f 84 8d 00 00
	00		 je	 $LN11@Update
  00081	e9 7e 01 00 00	 jmp	 $LN5@Update
$LN8@Update:

; 95   : 		{
; 96   : 			case MUSIC_STATE_FADE_IN:
; 97   : 				rMusicInstance.fVolume += rMusicInstance.fVolumeSpeed;

  00086	8b 45 fc	 mov	 eax, DWORD PTR _rMusicInstance$5[ebp]
  00089	8b 4d fc	 mov	 ecx, DWORD PTR _rMusicInstance$5[ebp]
  0008c	f3 0f 10 40 08	 movss	 xmm0, DWORD PTR [eax+8]
  00091	f3 0f 58 41 10	 addss	 xmm0, DWORD PTR [ecx+16]
  00096	8b 45 fc	 mov	 eax, DWORD PTR _rMusicInstance$5[ebp]
  00099	f3 0f 11 40 08	 movss	 DWORD PTR [eax+8], xmm0

; 98   : 
; 99   : 				if (rMusicInstance.fVolume >= GetMusicVolume())

  0009e	8b 4d f4	 mov	 ecx, DWORD PTR _this$[ebp]
  000a1	e8 00 00 00 00	 call	 ?GetMusicVolume@CSoundManager@@QAEMXZ ; CSoundManager::GetMusicVolume
  000a6	d9 5d e0	 fstp	 DWORD PTR tv207[ebp]
  000a9	8b 45 fc	 mov	 eax, DWORD PTR _rMusicInstance$5[ebp]
  000ac	f3 0f 10 40 08	 movss	 xmm0, DWORD PTR [eax+8]
  000b1	0f 2f 45 e0	 comiss	 xmm0, DWORD PTR tv207[ebp]
  000b5	72 23		 jb	 SHORT $LN9@Update

; 100  : 				{
; 101  : 					rMusicInstance.fVolume = GetMusicVolume();

  000b7	8b 4d f4	 mov	 ecx, DWORD PTR _this$[ebp]
  000ba	e8 00 00 00 00	 call	 ?GetMusicVolume@CSoundManager@@QAEMXZ ; CSoundManager::GetMusicVolume
  000bf	8b 45 fc	 mov	 eax, DWORD PTR _rMusicInstance$5[ebp]
  000c2	d9 58 08	 fstp	 DWORD PTR [eax+8]

; 102  : 					rMusicInstance.fVolumeSpeed = 0.0f;

  000c5	8b 45 fc	 mov	 eax, DWORD PTR _rMusicInstance$5[ebp]
  000c8	0f 57 c0	 xorps	 xmm0, xmm0
  000cb	f3 0f 11 40 10	 movss	 DWORD PTR [eax+16], xmm0

; 103  : 					rMusicInstance.MusicState = MUSIC_STATE_PLAY;

  000d0	8b 45 fc	 mov	 eax, DWORD PTR _rMusicInstance$5[ebp]
  000d3	c7 40 04 01 00
	00 00		 mov	 DWORD PTR [eax+4], 1
$LN9@Update:

; 104  : 				}
; 105  : 
; 106  : 				{
; 107  : 					CSoundInstanceStream * pInstance = ms_SoundManagerStream.GetInstance(i);

  000da	ff 75 f8	 push	 DWORD PTR _i$4[ebp]
  000dd	b9 00 00 00 00	 mov	 ecx, OFFSET ?ms_SoundManagerStream@CSoundManager@@1VCSoundManagerStream@@A ; CSoundManager::ms_SoundManagerStream
  000e2	e8 00 00 00 00	 call	 ?GetInstance@CSoundManagerStream@@QAEPAVCSoundInstanceStream@@K@Z ; CSoundManagerStream::GetInstance
  000e7	89 45 ec	 mov	 DWORD PTR _pInstance$3[ebp], eax

; 108  : 					if (pInstance)

  000ea	83 7d ec 00	 cmp	 DWORD PTR _pInstance$3[ebp], 0
  000ee	74 19		 je	 SHORT $LN10@Update

; 109  : 						pInstance->SetVolume(rMusicInstance.fVolume);

  000f0	8b 45 fc	 mov	 eax, DWORD PTR _rMusicInstance$5[ebp]
  000f3	51		 push	 ecx
  000f4	f3 0f 10 40 08	 movss	 xmm0, DWORD PTR [eax+8]
  000f9	f3 0f 11 04 24	 movss	 DWORD PTR [esp], xmm0
  000fe	8b 45 ec	 mov	 eax, DWORD PTR _pInstance$3[ebp]
  00101	8b 00		 mov	 eax, DWORD PTR [eax]
  00103	8b 4d ec	 mov	 ecx, DWORD PTR _pInstance$3[ebp]
  00106	ff 50 24	 call	 DWORD PTR [eax+36]
$LN10@Update:

; 110  : 				}
; 111  : 				break;

  00109	e9 f6 00 00 00	 jmp	 $LN5@Update
$LN11@Update:

; 112  : 				
; 113  : 			case MUSIC_STATE_FADE_LIMIT_OUT:
; 114  : 				rMusicInstance.fVolume -= rMusicInstance.fVolumeSpeed;

  0010e	8b 45 fc	 mov	 eax, DWORD PTR _rMusicInstance$5[ebp]
  00111	8b 4d fc	 mov	 ecx, DWORD PTR _rMusicInstance$5[ebp]
  00114	f3 0f 10 40 08	 movss	 xmm0, DWORD PTR [eax+8]
  00119	f3 0f 5c 41 10	 subss	 xmm0, DWORD PTR [ecx+16]
  0011e	8b 45 fc	 mov	 eax, DWORD PTR _rMusicInstance$5[ebp]
  00121	f3 0f 11 40 08	 movss	 DWORD PTR [eax+8], xmm0

; 115  : 				if (rMusicInstance.fVolume <= rMusicInstance.fLimitVolume)

  00126	8b 45 fc	 mov	 eax, DWORD PTR _rMusicInstance$5[ebp]
  00129	8b 4d fc	 mov	 ecx, DWORD PTR _rMusicInstance$5[ebp]
  0012c	f3 0f 10 40 0c	 movss	 xmm0, DWORD PTR [eax+12]
  00131	0f 2f 41 08	 comiss	 xmm0, DWORD PTR [ecx+8]
  00135	72 21		 jb	 SHORT $LN12@Update

; 116  : 				{
; 117  : 					rMusicInstance.fVolume = rMusicInstance.fLimitVolume;

  00137	8b 45 fc	 mov	 eax, DWORD PTR _rMusicInstance$5[ebp]
  0013a	8b 4d fc	 mov	 ecx, DWORD PTR _rMusicInstance$5[ebp]
  0013d	8b 49 0c	 mov	 ecx, DWORD PTR [ecx+12]
  00140	89 48 08	 mov	 DWORD PTR [eax+8], ecx

; 118  : 					rMusicInstance.fVolumeSpeed = 0.0f;

  00143	8b 45 fc	 mov	 eax, DWORD PTR _rMusicInstance$5[ebp]
  00146	0f 57 c0	 xorps	 xmm0, xmm0
  00149	f3 0f 11 40 10	 movss	 DWORD PTR [eax+16], xmm0

; 119  : 					rMusicInstance.MusicState = MUSIC_STATE_PLAY;				

  0014e	8b 45 fc	 mov	 eax, DWORD PTR _rMusicInstance$5[ebp]
  00151	c7 40 04 01 00
	00 00		 mov	 DWORD PTR [eax+4], 1
$LN12@Update:

; 120  : 				}
; 121  : 				{
; 122  : 					CSoundInstanceStream * pInstance = ms_SoundManagerStream.GetInstance(i);

  00158	ff 75 f8	 push	 DWORD PTR _i$4[ebp]
  0015b	b9 00 00 00 00	 mov	 ecx, OFFSET ?ms_SoundManagerStream@CSoundManager@@1VCSoundManagerStream@@A ; CSoundManager::ms_SoundManagerStream
  00160	e8 00 00 00 00	 call	 ?GetInstance@CSoundManagerStream@@QAEPAVCSoundInstanceStream@@K@Z ; CSoundManagerStream::GetInstance
  00165	89 45 e8	 mov	 DWORD PTR _pInstance$2[ebp], eax

; 123  : 					if (pInstance)

  00168	83 7d e8 00	 cmp	 DWORD PTR _pInstance$2[ebp], 0
  0016c	74 19		 je	 SHORT $LN13@Update

; 124  : 						pInstance->SetVolume(rMusicInstance.fVolume);

  0016e	8b 45 fc	 mov	 eax, DWORD PTR _rMusicInstance$5[ebp]
  00171	51		 push	 ecx
  00172	f3 0f 10 40 08	 movss	 xmm0, DWORD PTR [eax+8]
  00177	f3 0f 11 04 24	 movss	 DWORD PTR [esp], xmm0
  0017c	8b 45 e8	 mov	 eax, DWORD PTR _pInstance$2[ebp]
  0017f	8b 00		 mov	 eax, DWORD PTR [eax]
  00181	8b 4d e8	 mov	 ecx, DWORD PTR _pInstance$2[ebp]
  00184	ff 50 24	 call	 DWORD PTR [eax+36]
$LN13@Update:

; 125  : 				}
; 126  : 				break;

  00187	eb 7b		 jmp	 SHORT $LN5@Update
$LN14@Update:

; 127  : 			case MUSIC_STATE_FADE_OUT:
; 128  : 				rMusicInstance.fVolume -= rMusicInstance.fVolumeSpeed;

  00189	8b 45 fc	 mov	 eax, DWORD PTR _rMusicInstance$5[ebp]
  0018c	8b 4d fc	 mov	 ecx, DWORD PTR _rMusicInstance$5[ebp]
  0018f	f3 0f 10 40 08	 movss	 xmm0, DWORD PTR [eax+8]
  00194	f3 0f 5c 41 10	 subss	 xmm0, DWORD PTR [ecx+16]
  00199	8b 45 fc	 mov	 eax, DWORD PTR _rMusicInstance$5[ebp]
  0019c	f3 0f 11 40 08	 movss	 DWORD PTR [eax+8], xmm0

; 129  : 				if (rMusicInstance.fVolume <= 0.0f)

  001a1	8b 45 fc	 mov	 eax, DWORD PTR _rMusicInstance$5[ebp]
  001a4	0f 57 c0	 xorps	 xmm0, xmm0
  001a7	0f 2f 40 08	 comiss	 xmm0, DWORD PTR [eax+8]
  001ab	72 28		 jb	 SHORT $LN15@Update

; 130  : 				{
; 131  : 					rMusicInstance.fVolume = 0.0f;

  001ad	8b 45 fc	 mov	 eax, DWORD PTR _rMusicInstance$5[ebp]
  001b0	0f 57 c0	 xorps	 xmm0, xmm0
  001b3	f3 0f 11 40 08	 movss	 DWORD PTR [eax+8], xmm0

; 132  : 					rMusicInstance.fVolumeSpeed = 0.0f;

  001b8	8b 45 fc	 mov	 eax, DWORD PTR _rMusicInstance$5[ebp]
  001bb	0f 57 c0	 xorps	 xmm0, xmm0
  001be	f3 0f 11 40 10	 movss	 DWORD PTR [eax+16], xmm0

; 133  : 					rMusicInstance.MusicState = MUSIC_STATE_OFF;

  001c3	8b 45 fc	 mov	 eax, DWORD PTR _rMusicInstance$5[ebp]
  001c6	83 60 04 00	 and	 DWORD PTR [eax+4], 0

; 134  : 
; 135  : 					StopMusic(i);

  001ca	ff 75 f8	 push	 DWORD PTR _i$4[ebp]
  001cd	8b 4d f4	 mov	 ecx, DWORD PTR _this$[ebp]
  001d0	e8 00 00 00 00	 call	 ?StopMusic@CSoundManager@@IAEXK@Z ; CSoundManager::StopMusic
$LN15@Update:

; 136  : 				}
; 137  : 				{
; 138  : 					CSoundInstanceStream * pInstance = ms_SoundManagerStream.GetInstance(i);

  001d5	ff 75 f8	 push	 DWORD PTR _i$4[ebp]
  001d8	b9 00 00 00 00	 mov	 ecx, OFFSET ?ms_SoundManagerStream@CSoundManager@@1VCSoundManagerStream@@A ; CSoundManager::ms_SoundManagerStream
  001dd	e8 00 00 00 00	 call	 ?GetInstance@CSoundManagerStream@@QAEPAVCSoundInstanceStream@@K@Z ; CSoundManagerStream::GetInstance
  001e2	89 45 e4	 mov	 DWORD PTR _pInstance$1[ebp], eax

; 139  : 					if (pInstance)

  001e5	83 7d e4 00	 cmp	 DWORD PTR _pInstance$1[ebp], 0
  001e9	74 19		 je	 SHORT $LN16@Update

; 140  : 						pInstance->SetVolume(rMusicInstance.fVolume);

  001eb	8b 45 fc	 mov	 eax, DWORD PTR _rMusicInstance$5[ebp]
  001ee	51		 push	 ecx
  001ef	f3 0f 10 40 08	 movss	 xmm0, DWORD PTR [eax+8]
  001f4	f3 0f 11 04 24	 movss	 DWORD PTR [esp], xmm0
  001f9	8b 45 e4	 mov	 eax, DWORD PTR _pInstance$1[ebp]
  001fc	8b 00		 mov	 eax, DWORD PTR [eax]
  001fe	8b 4d e4	 mov	 ecx, DWORD PTR _pInstance$1[ebp]
  00201	ff 50 24	 call	 DWORD PTR [eax+36]
$LN16@Update:
$LN5@Update:

; 141  : 				}
; 142  : 				break;
; 143  : 		}
; 144  : 	}

  00204	e9 2b fe ff ff	 jmp	 $LN2@Update
$LN3@Update:

; 145  : }

  00209	c9		 leave
  0020a	c3		 ret	 0
?Update@CSoundManager@@QAEXXZ ENDP			; CSoundManager::Update
_TEXT	ENDS
; Function compile flags: /Odspy
; File D:\Metin2 Server Files\mainline\SRC_2014\Metin2Client\MilesLib\SoundManager.cpp
;	COMDAT ?SetDirection@CSoundManager@@QAEXMMMMMM@Z
_TEXT	SEGMENT
_this$ = -4						; size = 4
_fxDir$ = 8						; size = 4
_fyDir$ = 12						; size = 4
_fzDir$ = 16						; size = 4
_fxUp$ = 20						; size = 4
_fyUp$ = 24						; size = 4
_fzUp$ = 28						; size = 4
?SetDirection@CSoundManager@@QAEXMMMMMM@Z PROC		; CSoundManager::SetDirection, COMDAT
; _this$ = ecx

; 79   : {

  00000	55		 push	 ebp
  00001	8b ec		 mov	 ebp, esp
  00003	51		 push	 ecx
  00004	89 4d fc	 mov	 DWORD PTR _this$[ebp], ecx

; 80   : 	ms_SoundManager3D.SetListenerDirection(fxDir, fyDir, fzDir, fxUp, fyUp, fzUp);

  00007	51		 push	 ecx
  00008	f3 0f 10 45 1c	 movss	 xmm0, DWORD PTR _fzUp$[ebp]
  0000d	f3 0f 11 04 24	 movss	 DWORD PTR [esp], xmm0
  00012	51		 push	 ecx
  00013	f3 0f 10 45 18	 movss	 xmm0, DWORD PTR _fyUp$[ebp]
  00018	f3 0f 11 04 24	 movss	 DWORD PTR [esp], xmm0
  0001d	51		 push	 ecx
  0001e	f3 0f 10 45 14	 movss	 xmm0, DWORD PTR _fxUp$[ebp]
  00023	f3 0f 11 04 24	 movss	 DWORD PTR [esp], xmm0
  00028	51		 push	 ecx
  00029	f3 0f 10 45 10	 movss	 xmm0, DWORD PTR _fzDir$[ebp]
  0002e	f3 0f 11 04 24	 movss	 DWORD PTR [esp], xmm0
  00033	51		 push	 ecx
  00034	f3 0f 10 45 0c	 movss	 xmm0, DWORD PTR _fyDir$[ebp]
  00039	f3 0f 11 04 24	 movss	 DWORD PTR [esp], xmm0
  0003e	51		 push	 ecx
  0003f	f3 0f 10 45 08	 movss	 xmm0, DWORD PTR _fxDir$[ebp]
  00044	f3 0f 11 04 24	 movss	 DWORD PTR [esp], xmm0
  00049	b9 00 00 00 00	 mov	 ecx, OFFSET ?ms_SoundManager3D@CSoundManager@@1VCSoundManager3D@@A ; CSoundManager::ms_SoundManager3D
  0004e	e8 00 00 00 00	 call	 ?SetListenerDirection@CSoundManager3D@@QAEXMMMMMM@Z ; CSoundManager3D::SetListenerDirection

; 81   : }

  00053	c9		 leave
  00054	c2 18 00	 ret	 24			; 00000018H
?SetDirection@CSoundManager@@QAEXMMMMMM@Z ENDP		; CSoundManager::SetDirection
_TEXT	ENDS
; Function compile flags: /Odspy
; File D:\Metin2 Server Files\mainline\SRC_2014\Metin2Client\MilesLib\SoundManager.cpp
;	COMDAT ?SetPosition@CSoundManager@@QAEXMMM@Z
_TEXT	SEGMENT
_this$ = -4						; size = 4
_fx$ = 8						; size = 4
_fy$ = 12						; size = 4
_fz$ = 16						; size = 4
?SetPosition@CSoundManager@@QAEXMMM@Z PROC		; CSoundManager::SetPosition, COMDAT
; _this$ = ecx

; 72   : {

  00000	55		 push	 ebp
  00001	8b ec		 mov	 ebp, esp
  00003	51		 push	 ecx
  00004	89 4d fc	 mov	 DWORD PTR _this$[ebp], ecx

; 73   : 	m_fxPosition = fx;

  00007	8b 45 fc	 mov	 eax, DWORD PTR _this$[ebp]
  0000a	f3 0f 10 45 08	 movss	 xmm0, DWORD PTR _fx$[ebp]
  0000f	f3 0f 11 40 0c	 movss	 DWORD PTR [eax+12], xmm0

; 74   : 	m_fyPosition = fy;

  00014	8b 45 fc	 mov	 eax, DWORD PTR _this$[ebp]
  00017	f3 0f 10 45 0c	 movss	 xmm0, DWORD PTR _fy$[ebp]
  0001c	f3 0f 11 40 10	 movss	 DWORD PTR [eax+16], xmm0

; 75   : 	m_fzPosition = fz;

  00021	8b 45 fc	 mov	 eax, DWORD PTR _this$[ebp]
  00024	f3 0f 10 45 10	 movss	 xmm0, DWORD PTR _fz$[ebp]
  00029	f3 0f 11 40 14	 movss	 DWORD PTR [eax+20], xmm0

; 76   : }

  0002e	c9		 leave
  0002f	c2 0c 00	 ret	 12			; 0000000cH
?SetPosition@CSoundManager@@QAEXMMM@Z ENDP		; CSoundManager::SetPosition
_TEXT	ENDS
; Function compile flags: /Odspy
; File D:\Metin2 Server Files\mainline\SRC_2014\Metin2Client\MilesLib\SoundManager.cpp
;	COMDAT ?Destroy@CSoundManager@@QAEXXZ
_TEXT	SEGMENT
_this$ = -4						; size = 4
?Destroy@CSoundManager@@QAEXXZ PROC			; CSoundManager::Destroy, COMDAT
; _this$ = ecx

; 65   : {

  00000	55		 push	 ebp
  00001	8b ec		 mov	 ebp, esp
  00003	51		 push	 ecx
  00004	89 4d fc	 mov	 DWORD PTR _this$[ebp], ecx

; 66   : 	ms_SoundManagerStream.Destroy();

  00007	b9 00 00 00 00	 mov	 ecx, OFFSET ?ms_SoundManagerStream@CSoundManager@@1VCSoundManagerStream@@A ; CSoundManager::ms_SoundManagerStream
  0000c	e8 00 00 00 00	 call	 ?Destroy@CSoundManagerStream@@QAEXXZ ; CSoundManagerStream::Destroy

; 67   : 	ms_SoundManager3D.Destroy();		

  00011	b9 00 00 00 00	 mov	 ecx, OFFSET ?ms_SoundManager3D@CSoundManager@@1VCSoundManager3D@@A ; CSoundManager::ms_SoundManager3D
  00016	e8 00 00 00 00	 call	 ?Destroy@CSoundManager3D@@QAEXXZ ; CSoundManager3D::Destroy

; 68   : 	ms_SoundManager2D.Destroy();	

  0001b	b9 00 00 00 00	 mov	 ecx, OFFSET ?ms_SoundManager2D@CSoundManager@@1VCSoundManager2D@@A ; CSoundManager::ms_SoundManager2D
  00020	e8 00 00 00 00	 call	 ?Destroy@CSoundManager2D@@QAEXXZ ; CSoundManager2D::Destroy

; 69   : }

  00025	c9		 leave
  00026	c3		 ret	 0
?Destroy@CSoundManager@@QAEXXZ ENDP			; CSoundManager::Destroy
_TEXT	ENDS
; Function compile flags: /Odspy
; File D:\Metin2 Server Files\mainline\SRC_2014\Metin2Client\MilesLib\SoundManager.cpp
;	COMDAT ?Create@CSoundManager@@QAEHXZ
_TEXT	SEGMENT
_this$ = -4						; size = 4
?Create@CSoundManager@@QAEHXZ PROC			; CSoundManager::Create, COMDAT
; _this$ = ecx

; 43   : {

  00000	55		 push	 ebp
  00001	8b ec		 mov	 ebp, esp
  00003	51		 push	 ecx
  00004	89 4d fc	 mov	 DWORD PTR _this$[ebp], ecx

; 44   : 	if (!ms_SoundManager2D.Initialize()) {

  00007	b9 00 00 00 00	 mov	 ecx, OFFSET ?ms_SoundManager2D@CSoundManager@@1VCSoundManager2D@@A ; CSoundManager::ms_SoundManager2D
  0000c	e8 00 00 00 00	 call	 ?Initialize@CSoundManager2D@@QAE_NXZ ; CSoundManager2D::Initialize
  00011	0f b6 c0	 movzx	 eax, al
  00014	85 c0		 test	 eax, eax
  00016	75 0f		 jne	 SHORT $LN2@Create

; 45   : 		Tracen("CSoundManager::Create - Sound2D::Initialize - FAILURE");

  00018	68 00 00 00 00	 push	 OFFSET ??_C@_0DG@IHJECCAM@CSoundManager?3?3Create?5?9?5Sound2D@
  0001d	e8 00 00 00 00	 call	 ?Tracen@@YAXPBD@Z	; Tracen
  00022	59		 pop	 ecx

; 46   : 		return FALSE;

  00023	33 c0		 xor	 eax, eax
  00025	eb 43		 jmp	 SHORT $LN1@Create
$LN2@Create:

; 47   : 	}
; 48   : 
; 49   : 	if (!ms_SoundManagerStream.Initialize())

  00027	b9 00 00 00 00	 mov	 ecx, OFFSET ?ms_SoundManagerStream@CSoundManager@@1VCSoundManagerStream@@A ; CSoundManager::ms_SoundManagerStream
  0002c	e8 00 00 00 00	 call	 ?Initialize@CSoundManagerStream@@QAE_NXZ ; CSoundManagerStream::Initialize
  00031	0f b6 c0	 movzx	 eax, al
  00034	85 c0		 test	 eax, eax
  00036	75 0f		 jne	 SHORT $LN3@Create

; 50   : 	{
; 51   : 		Tracen("CSoundManager::Create - SoundStream::Initialize - FAILURE");

  00038	68 00 00 00 00	 push	 OFFSET ??_C@_0DK@HNOILEHO@CSoundManager?3?3Create?5?9?5SoundSt@
  0003d	e8 00 00 00 00	 call	 ?Tracen@@YAXPBD@Z	; Tracen
  00042	59		 pop	 ecx

; 52   : 		return FALSE;

  00043	33 c0		 xor	 eax, eax
  00045	eb 23		 jmp	 SHORT $LN1@Create
$LN3@Create:

; 53   : 	}
; 54   : 
; 55   : 	if (!ms_SoundManager3D.Initialize())

  00047	b9 00 00 00 00	 mov	 ecx, OFFSET ?ms_SoundManager3D@CSoundManager@@1VCSoundManager3D@@A ; CSoundManager::ms_SoundManager3D
  0004c	e8 00 00 00 00	 call	 ?Initialize@CSoundManager3D@@QAE_NXZ ; CSoundManager3D::Initialize
  00051	0f b6 c0	 movzx	 eax, al
  00054	85 c0		 test	 eax, eax
  00056	75 0f		 jne	 SHORT $LN4@Create

; 56   : 	{
; 57   : 		Tracen("CSoundManager::Create - Sound3D::Initialize - FAILURE");

  00058	68 00 00 00 00	 push	 OFFSET ??_C@_0DG@CCBPLCAC@CSoundManager?3?3Create?5?9?5Sound3D@
  0005d	e8 00 00 00 00	 call	 ?Tracen@@YAXPBD@Z	; Tracen
  00062	59		 pop	 ecx

; 58   : 		return FALSE;

  00063	33 c0		 xor	 eax, eax
  00065	eb 03		 jmp	 SHORT $LN1@Create
$LN4@Create:

; 59   : 	}
; 60   : 
; 61   : 	return TRUE;

  00067	33 c0		 xor	 eax, eax
  00069	40		 inc	 eax
$LN1@Create:

; 62   : }

  0006a	c9		 leave
  0006b	c3		 ret	 0
?Create@CSoundManager@@QAEHXZ ENDP			; CSoundManager::Create
_TEXT	ENDS
; Function compile flags: /Odspy
; File D:\Metin2 Server Files\mainline\SRC_2014\Metin2Client\MilesLib\SoundManager.cpp
; File D:\Metin2 Server Files\mainline\SRC_2014\Metin2Client\eterBase\Singleton.h
; File D:\Metin2 Server Files\mainline\SRC_2014\Metin2Client\MilesLib\SoundManager.cpp
;	COMDAT ??1CSoundManager@@UAE@XZ
_TEXT	SEGMENT
_this$ = -4						; size = 4
??1CSoundManager@@UAE@XZ PROC				; CSoundManager::~CSoundManager, COMDAT
; _this$ = ecx

; 39   : {

  00000	55		 push	 ebp
  00001	8b ec		 mov	 ebp, esp
  00003	51		 push	 ecx
  00004	89 4d fc	 mov	 DWORD PTR _this$[ebp], ecx
  00007	8b 45 fc	 mov	 eax, DWORD PTR _this$[ebp]
  0000a	c7 00 00 00 00
	00		 mov	 DWORD PTR [eax], OFFSET ??_7CSoundManager@@6B@

; 40   : }

  00010	8b 4d fc	 mov	 ecx, DWORD PTR _this$[ebp]
  00013	83 c1 6c	 add	 ecx, 108		; 0000006cH
  00016	e8 00 00 00 00	 call	 ??1?$_Tree@V?$_Tmap_traits@V?$basic_string@DU?$char_traits@D@std@@V?$allocator@D@2@@std@@MU?$less@V?$basic_string@DU?$char_traits@D@std@@V?$allocator@D@2@@std@@@2@V?$allocator@U?$pair@$$CBV?$basic_string@DU?$char_traits@D@std@@V?$allocator@D@2@@std@@M@std@@@2@$0A@@std@@@std@@QAE@XZ ; std::_Tree<std::_Tmap_traits<std::basic_string<char,std::char_traits<char>,std::allocator<char> >,float,std::less<std::basic_string<char,std::char_traits<char>,std::allocator<char> > >,std::allocator<std::pair<std::basic_string<char,std::char_traits<char>,std::allocator<char> > const ,float> >,0> >::~_Tree<std::_Tmap_traits<std::basic_string<char,std::char_traits<char>,std::allocator<char> >,float,std::less<std::basic_string<char,std::char_traits<char>,std::allocator<char> > >,std::allocator<std::pair<std::basic_string<char,std::char_traits<char>,std::allocator<char> > const ,float> >,0> >
; File D:\Metin2 Server Files\mainline\SRC_2014\Metin2Client\eterBase\Singleton.h

; 19   : 	{ 

  0001b	8b 45 fc	 mov	 eax, DWORD PTR _this$[ebp]
  0001e	c7 00 00 00 00
	00		 mov	 DWORD PTR [eax], OFFSET ??_7?$CSingleton@VCSoundManager@@@@6B@

; 20   : 		assert(ms_singleton);
; 21   : 		ms_singleton = 0; 

  00024	83 25 00 00 00
	00 00		 and	 DWORD PTR ?ms_singleton@?$CSingleton@VCSoundManager@@@@0PAVCSoundManager@@A, 0 ; CSingleton<CSoundManager>::ms_singleton
; File D:\Metin2 Server Files\mainline\SRC_2014\Metin2Client\MilesLib\SoundManager.cpp

; 40   : }

  0002b	c9		 leave
  0002c	c3		 ret	 0
??1CSoundManager@@UAE@XZ ENDP				; CSoundManager::~CSoundManager
_TEXT	ENDS
; Function compile flags: /Odspy
; File D:\Metin2 Server Files\mainline\SRC_2014\Metin2Client\MilesLib\SoundManager.cpp
; File D:\Metin2 Server Files\mainline\SRC_2014\Metin2Client\eterBase\Singleton.h
; File D:\Metin2 Server Files\mainline\SRC_2014\Metin2Client\MilesLib\SoundManager.cpp
; File C:\Program Files (x86)\Microsoft Visual Studio\2019\Community\VC\Tools\MSVC\14.28.29333\include\map
; File D:\Metin2 Server Files\mainline\SRC_2014\Metin2Client\MilesLib\SoundManager.cpp
;	COMDAT ??0CSoundManager@@QAE@XZ
_TEXT	SEGMENT
_this$ = -36						; size = 4
_offset$2 = -32						; size = 4
_rInstance$3 = -28					; size = 4
_i$4 = -24						; size = 4
_this$ = -20						; size = 4
$T5 = -13						; size = 1
__$EHRec$ = -12						; size = 12
??0CSoundManager@@QAE@XZ PROC				; CSoundManager::CSoundManager, COMDAT
; _this$ = ecx

; 12   : {

  00000	55		 push	 ebp
  00001	8b ec		 mov	 ebp, esp
  00003	6a ff		 push	 -1
  00005	68 00 00 00 00	 push	 __ehhandler$??0CSoundManager@@QAE@XZ
  0000a	64 a1 00 00 00
	00		 mov	 eax, DWORD PTR fs:0
  00010	50		 push	 eax
  00011	83 ec 18	 sub	 esp, 24			; 00000018H
  00014	a1 00 00 00 00	 mov	 eax, DWORD PTR ___security_cookie
  00019	33 c5		 xor	 eax, ebp
  0001b	50		 push	 eax
  0001c	8d 45 f4	 lea	 eax, DWORD PTR __$EHRec$[ebp]
  0001f	64 a3 00 00 00
	00		 mov	 DWORD PTR fs:0, eax
  00025	89 4d ec	 mov	 DWORD PTR _this$[ebp], ecx
; File D:\Metin2 Server Files\mainline\SRC_2014\Metin2Client\eterBase\Singleton.h

; 12   : 	{ 

  00028	8b 45 ec	 mov	 eax, DWORD PTR _this$[ebp]
  0002b	c7 00 00 00 00
	00		 mov	 DWORD PTR [eax], OFFSET ??_7?$CSingleton@VCSoundManager@@@@6B@

; 13   : 		assert(!ms_singleton);
; 14   : 		int offset = (int) (T*) 1 - (int) (CSingleton <T>*) (T*) 1; 

  00031	33 c0		 xor	 eax, eax
  00033	89 45 e0	 mov	 DWORD PTR _offset$2[ebp], eax

; 15   : 		ms_singleton = (T*) ((int) this + offset);

  00036	8b 45 ec	 mov	 eax, DWORD PTR _this$[ebp]
  00039	03 45 e0	 add	 eax, DWORD PTR _offset$2[ebp]
  0003c	a3 00 00 00 00	 mov	 DWORD PTR ?ms_singleton@?$CSingleton@VCSoundManager@@@@0PAVCSoundManager@@A, eax ; CSingleton<CSoundManager>::ms_singleton
; File D:\Metin2 Server Files\mainline\SRC_2014\Metin2Client\MilesLib\SoundManager.cpp

; 12   : {

  00041	83 65 fc 00	 and	 DWORD PTR __$EHRec$[ebp+8], 0
  00045	8b 45 ec	 mov	 eax, DWORD PTR _this$[ebp]
  00048	c7 00 00 00 00
	00		 mov	 DWORD PTR [eax], OFFSET ??_7CSoundManager@@6B@
  0004e	8b 45 ec	 mov	 eax, DWORD PTR _this$[ebp]
  00051	83 c0 6c	 add	 eax, 108		; 0000006cH
  00054	89 45 dc	 mov	 DWORD PTR _this$[ebp], eax
; File C:\Program Files (x86)\Microsoft Visual Studio\2019\Community\VC\Tools\MSVC\14.28.29333\include\map

; 107  :     map() : _Mybase(key_compare()) {}

  00057	8d 45 f3	 lea	 eax, DWORD PTR $T5[ebp]
  0005a	50		 push	 eax
  0005b	8b 4d dc	 mov	 ecx, DWORD PTR _this$[ebp]
  0005e	e8 00 00 00 00	 call	 ??0?$_Tree@V?$_Tmap_traits@V?$basic_string@DU?$char_traits@D@std@@V?$allocator@D@2@@std@@MU?$less@V?$basic_string@DU?$char_traits@D@std@@V?$allocator@D@2@@std@@@2@V?$allocator@U?$pair@$$CBV?$basic_string@DU?$char_traits@D@std@@V?$allocator@D@2@@std@@M@std@@@2@$0A@@std@@@std@@QAE@ABU?$less@V?$basic_string@DU?$char_traits@D@std@@V?$allocator@D@2@@std@@@1@@Z ; std::_Tree<std::_Tmap_traits<std::basic_string<char,std::char_traits<char>,std::allocator<char> >,float,std::less<std::basic_string<char,std::char_traits<char>,std::allocator<char> > >,std::allocator<std::pair<std::basic_string<char,std::char_traits<char>,std::allocator<char> > const ,float> >,0> >::_Tree<std::_Tmap_traits<std::basic_string<char,std::char_traits<char>,std::allocator<char> >,float,std::less<std::basic_string<char,std::char_traits<char>,std::allocator<char> > >,std::allocator<std::pair<std::basic_string<char,std::char_traits<char>,std::allocator<char> > const ,float> >,0> >
; File D:\Metin2 Server Files\mainline\SRC_2014\Metin2Client\MilesLib\SoundManager.cpp

; 13   : 	m_bInitialized			= FALSE;

  00063	8b 45 ec	 mov	 eax, DWORD PTR _this$[ebp]
  00066	83 60 04 00	 and	 DWORD PTR [eax+4], 0

; 14   : 	m_isSoundDisable		= FALSE;

  0006a	8b 45 ec	 mov	 eax, DWORD PTR _this$[ebp]
  0006d	83 60 08 00	 and	 DWORD PTR [eax+8], 0

; 15   : 
; 16   : 	m_fxPosition			= 0.0f;

  00071	8b 45 ec	 mov	 eax, DWORD PTR _this$[ebp]
  00074	0f 57 c0	 xorps	 xmm0, xmm0
  00077	f3 0f 11 40 0c	 movss	 DWORD PTR [eax+12], xmm0

; 17   : 	m_fyPosition			= 0.0f;

  0007c	8b 45 ec	 mov	 eax, DWORD PTR _this$[ebp]
  0007f	0f 57 c0	 xorps	 xmm0, xmm0
  00082	f3 0f 11 40 10	 movss	 DWORD PTR [eax+16], xmm0

; 18   : 	m_fzPosition			= 0.0f;

  00087	8b 45 ec	 mov	 eax, DWORD PTR _this$[ebp]
  0008a	0f 57 c0	 xorps	 xmm0, xmm0
  0008d	f3 0f 11 40 14	 movss	 DWORD PTR [eax+20], xmm0

; 19   : 
; 20   : 	m_fSoundScale			= 200.0f;

  00092	8b 45 ec	 mov	 eax, DWORD PTR _this$[ebp]
  00095	f3 0f 10 05 00
	00 00 00	 movss	 xmm0, DWORD PTR __real@43480000
  0009d	f3 0f 11 40 18	 movss	 DWORD PTR [eax+24], xmm0

; 21   : 	m_fAmbienceSoundScale	= 1000.0f;

  000a2	8b 45 ec	 mov	 eax, DWORD PTR _this$[ebp]
  000a5	f3 0f 10 05 00
	00 00 00	 movss	 xmm0, DWORD PTR __real@447a0000
  000ad	f3 0f 11 40 1c	 movss	 DWORD PTR [eax+28], xmm0

; 22   : 	m_fSoundVolume			= 1.0f;

  000b2	8b 45 ec	 mov	 eax, DWORD PTR _this$[ebp]
  000b5	f3 0f 10 05 00
	00 00 00	 movss	 xmm0, DWORD PTR __real@3f800000
  000bd	f3 0f 11 40 20	 movss	 DWORD PTR [eax+32], xmm0

; 23   : 	m_fMusicVolume			= 1.0f;

  000c2	8b 45 ec	 mov	 eax, DWORD PTR _this$[ebp]
  000c5	f3 0f 10 05 00
	00 00 00	 movss	 xmm0, DWORD PTR __real@3f800000
  000cd	f3 0f 11 40 24	 movss	 DWORD PTR [eax+36], xmm0

; 24   : 
; 25   : 	m_fBackupMusicVolume	= 0.0f;

  000d2	8b 45 ec	 mov	 eax, DWORD PTR _this$[ebp]
  000d5	0f 57 c0	 xorps	 xmm0, xmm0
  000d8	f3 0f 11 40 28	 movss	 DWORD PTR [eax+40], xmm0

; 26   : 	m_fBackupSoundVolume	= 0.0f;

  000dd	8b 45 ec	 mov	 eax, DWORD PTR _this$[ebp]
  000e0	0f 57 c0	 xorps	 xmm0, xmm0
  000e3	f3 0f 11 40 2c	 movss	 DWORD PTR [eax+44], xmm0

; 27   : 
; 28   : 	for (int i = 0; i < CSoundManagerStream::MUSIC_INSTANCE_MAX_NUM; ++i)

  000e8	83 65 e8 00	 and	 DWORD PTR _i$4[ebp], 0
  000ec	eb 07		 jmp	 SHORT $LN4@CSoundMana
$LN2@CSoundMana:
  000ee	8b 45 e8	 mov	 eax, DWORD PTR _i$4[ebp]
  000f1	40		 inc	 eax
  000f2	89 45 e8	 mov	 DWORD PTR _i$4[ebp], eax
$LN4@CSoundMana:
  000f5	83 7d e8 03	 cmp	 DWORD PTR _i$4[ebp], 3
  000f9	7d 33		 jge	 SHORT $LN3@CSoundMana

; 29   : 	{
; 30   : 		TMusicInstance & rInstance = m_MusicInstances[i];

  000fb	6b 45 e8 14	 imul	 eax, DWORD PTR _i$4[ebp], 20
  000ff	8b 4d ec	 mov	 ecx, DWORD PTR _this$[ebp]
  00102	8d 44 01 30	 lea	 eax, DWORD PTR [ecx+eax+48]
  00106	89 45 e4	 mov	 DWORD PTR _rInstance$3[ebp], eax

; 31   : 		rInstance.dwMusicFileNameCRC = 0;

  00109	8b 45 e4	 mov	 eax, DWORD PTR _rInstance$3[ebp]
  0010c	83 20 00	 and	 DWORD PTR [eax], 0

; 32   : 		rInstance.MusicState = MUSIC_STATE_OFF;

  0010f	8b 45 e4	 mov	 eax, DWORD PTR _rInstance$3[ebp]
  00112	83 60 04 00	 and	 DWORD PTR [eax+4], 0

; 33   : 		rInstance.fVolume = 0.0f;

  00116	8b 45 e4	 mov	 eax, DWORD PTR _rInstance$3[ebp]
  00119	0f 57 c0	 xorps	 xmm0, xmm0
  0011c	f3 0f 11 40 08	 movss	 DWORD PTR [eax+8], xmm0

; 34   : 		rInstance.fVolumeSpeed = 0.0f;

  00121	8b 45 e4	 mov	 eax, DWORD PTR _rInstance$3[ebp]
  00124	0f 57 c0	 xorps	 xmm0, xmm0
  00127	f3 0f 11 40 10	 movss	 DWORD PTR [eax+16], xmm0

; 35   : 	}

  0012c	eb c0		 jmp	 SHORT $LN2@CSoundMana
$LN3@CSoundMana:

; 36   : }

  0012e	83 4d fc ff	 or	 DWORD PTR __$EHRec$[ebp+8], -1
  00132	8b 45 ec	 mov	 eax, DWORD PTR _this$[ebp]
  00135	8b 4d f4	 mov	 ecx, DWORD PTR __$EHRec$[ebp]
  00138	64 89 0d 00 00
	00 00		 mov	 DWORD PTR fs:0, ecx
  0013f	59		 pop	 ecx
  00140	c9		 leave
  00141	c3		 ret	 0
_TEXT	ENDS
;	COMDAT text$x
text$x	SEGMENT
__unwindfunclet$??0CSoundManager@@QAE@XZ$0:
  00000	8b 4d ec	 mov	 ecx, DWORD PTR _this$[ebp]
  00003	e9 00 00 00 00	 jmp	 ??1?$CSingleton@VCSoundManager@@@@UAE@XZ ; CSingleton<CSoundManager>::~CSingleton<CSoundManager>
  00008	cc		 int	 3
  00009	cc		 int	 3
  0000a	cc		 int	 3
  0000b	cc		 int	 3
  0000c	cc		 int	 3
__ehhandler$??0CSoundManager@@QAE@XZ:
  0000d	90		 npad	 1
  0000e	90		 npad	 1
  0000f	8b 54 24 08	 mov	 edx, DWORD PTR [esp+8]
  00013	8d 42 0c	 lea	 eax, DWORD PTR [edx+12]
  00016	8b 4a e4	 mov	 ecx, DWORD PTR [edx-28]
  00019	33 c8		 xor	 ecx, eax
  0001b	e8 00 00 00 00	 call	 @__security_check_cookie@4
  00020	b8 00 00 00 00	 mov	 eax, OFFSET __ehfuncinfo$??0CSoundManager@@QAE@XZ
  00025	e9 00 00 00 00	 jmp	 ___CxxFrameHandler3
text$x	ENDS
??0CSoundManager@@QAE@XZ ENDP				; CSoundManager::CSoundManager
; Function compile flags: /Odspy
; File D:\Metin2 Server Files\mainline\SRC_2014\Metin2Client\eterBase\Singleton.h
;	COMDAT ??_G?$CSingleton@VCSoundManager@@@@UAEPAXI@Z
_TEXT	SEGMENT
_this$ = -4						; size = 4
___flags$ = 8						; size = 4
??_G?$CSingleton@VCSoundManager@@@@UAEPAXI@Z PROC	; CSingleton<CSoundManager>::`scalar deleting destructor', COMDAT
; _this$ = ecx
  00000	55		 push	 ebp
  00001	8b ec		 mov	 ebp, esp
  00003	51		 push	 ecx
  00004	89 4d fc	 mov	 DWORD PTR _this$[ebp], ecx

; 19   : 	{ 

  00007	8b 45 fc	 mov	 eax, DWORD PTR _this$[ebp]
  0000a	c7 00 00 00 00
	00		 mov	 DWORD PTR [eax], OFFSET ??_7?$CSingleton@VCSoundManager@@@@6B@

; 20   : 		assert(ms_singleton);
; 21   : 		ms_singleton = 0; 

  00010	83 25 00 00 00
	00 00		 and	 DWORD PTR ?ms_singleton@?$CSingleton@VCSoundManager@@@@0PAVCSoundManager@@A, 0 ; CSingleton<CSoundManager>::ms_singleton
  00017	8b 45 08	 mov	 eax, DWORD PTR ___flags$[ebp]
  0001a	83 e0 01	 and	 eax, 1
  0001d	74 0c		 je	 SHORT $LN2@scalar
  0001f	6a 04		 push	 4
  00021	ff 75 fc	 push	 DWORD PTR _this$[ebp]
  00024	e8 00 00 00 00	 call	 ??3@YAXPAXI@Z		; operator delete
  00029	59		 pop	 ecx
  0002a	59		 pop	 ecx
$LN2@scalar:
  0002b	8b 45 fc	 mov	 eax, DWORD PTR _this$[ebp]
  0002e	c9		 leave
  0002f	c2 04 00	 ret	 4
??_G?$CSingleton@VCSoundManager@@@@UAEPAXI@Z ENDP	; CSingleton<CSoundManager>::`scalar deleting destructor'
_TEXT	ENDS
; Function compile flags: /Odspy
; File D:\Metin2 Server Files\mainline\SRC_2014\Metin2Client\eterBase\Singleton.h
;	COMDAT ??1?$CSingleton@VCSoundManager@@@@UAE@XZ
_TEXT	SEGMENT
_this$ = -4						; size = 4
??1?$CSingleton@VCSoundManager@@@@UAE@XZ PROC		; CSingleton<CSoundManager>::~CSingleton<CSoundManager>, COMDAT
; _this$ = ecx

; 19   : 	{ 

  00000	55		 push	 ebp
  00001	8b ec		 mov	 ebp, esp
  00003	51		 push	 ecx
  00004	89 4d fc	 mov	 DWORD PTR _this$[ebp], ecx
  00007	8b 45 fc	 mov	 eax, DWORD PTR _this$[ebp]
  0000a	c7 00 00 00 00
	00		 mov	 DWORD PTR [eax], OFFSET ??_7?$CSingleton@VCSoundManager@@@@6B@

; 20   : 		assert(ms_singleton);
; 21   : 		ms_singleton = 0; 

  00010	83 25 00 00 00
	00 00		 and	 DWORD PTR ?ms_singleton@?$CSingleton@VCSoundManager@@@@0PAVCSoundManager@@A, 0 ; CSingleton<CSoundManager>::ms_singleton

; 22   : 	}

  00017	c9		 leave
  00018	c3		 ret	 0
??1?$CSingleton@VCSoundManager@@@@UAE@XZ ENDP		; CSingleton<CSoundManager>::~CSingleton<CSoundManager>
_TEXT	ENDS
; Function compile flags: /Odspy
; File C:\Program Files (x86)\Microsoft Visual Studio\2019\Community\VC\Tools\MSVC\14.28.29333\include\xtree
;	COMDAT ?_Throw_tree_length_error@std@@YAXXZ
_TEXT	SEGMENT
?_Throw_tree_length_error@std@@YAXXZ PROC		; std::_Throw_tree_length_error, COMDAT

; 414  : [[noreturn]] inline void _Throw_tree_length_error() {

  00000	55		 push	 ebp
  00001	8b ec		 mov	 ebp, esp

; 415  :     _Xlength_error("map/set too long");

  00003	68 00 00 00 00	 push	 OFFSET ??_C@_0BB@GCADKGJO@map?1set?5too?5long@
  00008	e8 00 00 00 00	 call	 ?_Xlength_error@std@@YAXPBD@Z ; std::_Xlength_error
$LN2@Throw_tree:

; 416  : }

  0000d	5d		 pop	 ebp
  0000e	c3		 ret	 0
?_Throw_tree_length_error@std@@YAXXZ ENDP		; std::_Throw_tree_length_error
_TEXT	ENDS
; Function compile flags: /Odspy
;	COMDAT ??1?$_Compressed_pair@V?$allocator@D@std@@V?$_String_val@U?$_Simple_types@D@std@@@2@$00@std@@QAE@XZ
_TEXT	SEGMENT
_this$ = -4						; size = 4
??1?$_Compressed_pair@V?$allocator@D@std@@V?$_String_val@U?$_Simple_types@D@std@@@2@$00@std@@QAE@XZ PROC ; std::_Compressed_pair<std::allocator<char>,std::_String_val<std::_Simple_types<char> >,1>::~_Compressed_pair<std::allocator<char>,std::_String_val<std::_Simple_types<char> >,1>, COMDAT
; _this$ = ecx
  00000	55		 push	 ebp
  00001	8b ec		 mov	 ebp, esp
  00003	51		 push	 ecx
  00004	89 4d fc	 mov	 DWORD PTR _this$[ebp], ecx
  00007	c9		 leave
  00008	c3		 ret	 0
??1?$_Compressed_pair@V?$allocator@D@std@@V?$_String_val@U?$_Simple_types@D@std@@@2@$00@std@@QAE@XZ ENDP ; std::_Compressed_pair<std::allocator<char>,std::_String_val<std::_Simple_types<char> >,1>::~_Compressed_pair<std::allocator<char>,std::_String_val<std::_Simple_types<char> >,1>
_TEXT	ENDS
; Function compile flags: /Odspy
; File C:\Program Files (x86)\Microsoft Visual Studio\2019\Community\VC\Tools\MSVC\14.28.29333\include\xstring
; File C:\Program Files (x86)\Microsoft Visual Studio\2019\Community\VC\Tools\MSVC\14.28.29333\include\xmemory
; File C:\Program Files (x86)\Microsoft Visual Studio\2019\Community\VC\Tools\MSVC\14.28.29333\include\xstring
; File C:\Program Files (x86)\Microsoft Visual Studio\2019\Community\VC\Tools\MSVC\14.28.29333\include\xmemory
; File C:\Program Files (x86)\Microsoft Visual Studio\2019\Community\VC\Tools\MSVC\14.28.29333\include\xstring
;	COMDAT ?_Tidy_deallocate@?$basic_string@DU?$char_traits@D@std@@V?$allocator@D@2@@std@@AAEXXZ
_TEXT	SEGMENT
__Al$1 = -28						; size = 4
__Ptr$2 = -24						; size = 4
__Count$ = -20						; size = 4
$T3 = -16						; size = 4
tv68 = -12						; size = 4
_this$ = -8						; size = 4
$T4 = -2						; size = 1
$T5 = -1						; size = 1
?_Tidy_deallocate@?$basic_string@DU?$char_traits@D@std@@V?$allocator@D@2@@std@@AAEXXZ PROC ; std::basic_string<char,std::char_traits<char>,std::allocator<char> >::_Tidy_deallocate, COMDAT
; _this$ = ecx

; 4383 :     void _Tidy_deallocate() noexcept { // initialize buffer, deallocating any storage

  00000	55		 push	 ebp
  00001	8b ec		 mov	 ebp, esp
  00003	83 ec 1c	 sub	 esp, 28			; 0000001cH
  00006	89 4d f8	 mov	 DWORD PTR _this$[ebp], ecx

; 2227 :         return _BUF_SIZE <= _Myres;

  00009	8b 45 f8	 mov	 eax, DWORD PTR _this$[ebp]
  0000c	83 78 14 10	 cmp	 DWORD PTR [eax+20], 16	; 00000010H
  00010	72 09		 jb	 SHORT $LN9@Tidy_deall
  00012	c7 45 f4 01 00
	00 00		 mov	 DWORD PTR tv68[ebp], 1
  00019	eb 04		 jmp	 SHORT $LN10@Tidy_deall
$LN9@Tidy_deall:
  0001b	83 65 f4 00	 and	 DWORD PTR tv68[ebp], 0
$LN10@Tidy_deall:
  0001f	8a 45 f4	 mov	 al, BYTE PTR tv68[ebp]
  00022	88 45 ff	 mov	 BYTE PTR $T5[ebp], al

; 4384 :         _Mypair._Myval2._Orphan_all();
; 4385 :         if (_Mypair._Myval2._Large_string_engaged()) {

  00025	0f b6 45 ff	 movzx	 eax, BYTE PTR $T5[ebp]
  00029	85 c0		 test	 eax, eax
  0002b	74 34		 je	 SHORT $LN2@Tidy_deall

; 4386 :             const pointer _Ptr = _Mypair._Myval2._Bx._Ptr;

  0002d	8b 45 f8	 mov	 eax, DWORD PTR _this$[ebp]
  00030	8b 00		 mov	 eax, DWORD PTR [eax]
  00032	89 45 e8	 mov	 DWORD PTR __Ptr$2[ebp], eax

; 4409 :         return _Mypair._Get_first();

  00035	8b 45 f8	 mov	 eax, DWORD PTR _this$[ebp]
; File C:\Program Files (x86)\Microsoft Visual Studio\2019\Community\VC\Tools\MSVC\14.28.29333\include\xmemory

; 1347 :         return *this;

  00038	89 45 f0	 mov	 DWORD PTR $T3[ebp], eax
; File C:\Program Files (x86)\Microsoft Visual Studio\2019\Community\VC\Tools\MSVC\14.28.29333\include\xstring

; 4409 :         return _Mypair._Get_first();

  0003b	8b 45 f0	 mov	 eax, DWORD PTR $T3[ebp]
  0003e	89 45 e4	 mov	 DWORD PTR __Al$1[ebp], eax

; 4387 :             auto& _Al          = _Getal();
; 4388 :             _Destroy_in_place(_Mypair._Myval2._Bx._Ptr);

  00041	ff 75 f8	 push	 DWORD PTR _this$[ebp]
  00044	e8 00 00 00 00	 call	 ??$_Destroy_in_place@PAD@std@@YAXAAPAD@Z ; std::_Destroy_in_place<char *>
  00049	59		 pop	 ecx

; 4389 :             _Al.deallocate(_Ptr, _Mypair._Myval2._Myres + 1);

  0004a	8b 45 f8	 mov	 eax, DWORD PTR _this$[ebp]
  0004d	8b 40 14	 mov	 eax, DWORD PTR [eax+20]
  00050	40		 inc	 eax
  00051	89 45 ec	 mov	 DWORD PTR __Count$[ebp], eax
; File C:\Program Files (x86)\Microsoft Visual Studio\2019\Community\VC\Tools\MSVC\14.28.29333\include\xmemory

; 810  :         _Deallocate<_New_alignof<_Ty>>(_Ptr, sizeof(_Ty) * _Count);

  00054	ff 75 ec	 push	 DWORD PTR __Count$[ebp]
  00057	ff 75 e8	 push	 DWORD PTR __Ptr$2[ebp]
  0005a	e8 00 00 00 00	 call	 ??$_Deallocate@$07$0A@@std@@YAXPAXI@Z ; std::_Deallocate<8,0>
  0005f	59		 pop	 ecx
  00060	59		 pop	 ecx
$LN2@Tidy_deall:
; File C:\Program Files (x86)\Microsoft Visual Studio\2019\Community\VC\Tools\MSVC\14.28.29333\include\xstring

; 4392 :         _Mypair._Myval2._Mysize = 0;

  00061	8b 45 f8	 mov	 eax, DWORD PTR _this$[ebp]
  00064	83 60 10 00	 and	 DWORD PTR [eax+16], 0

; 4393 :         _Mypair._Myval2._Myres  = _BUF_SIZE - 1;

  00068	8b 45 f8	 mov	 eax, DWORD PTR _this$[ebp]
  0006b	c7 40 14 0f 00
	00 00		 mov	 DWORD PTR [eax+20], 15	; 0000000fH

; 4394 :         // the _Traits::assign is last so the codegen doesn't think the char write can alias this
; 4395 :         _Traits::assign(_Mypair._Myval2._Bx._Buf[0], _Elem());

  00072	c6 45 fe 00	 mov	 BYTE PTR $T4[ebp], 0
  00076	33 c0		 xor	 eax, eax
  00078	40		 inc	 eax
  00079	6b c0 00	 imul	 eax, eax, 0

; 428  :         _Left = _Right;

  0007c	8b 4d f8	 mov	 ecx, DWORD PTR _this$[ebp]
  0007f	8a 55 fe	 mov	 dl, BYTE PTR $T4[ebp]
  00082	88 14 01	 mov	 BYTE PTR [ecx+eax], dl

; 4396 :     }

  00085	c9		 leave
  00086	c3		 ret	 0
?_Tidy_deallocate@?$basic_string@DU?$char_traits@D@std@@V?$allocator@D@2@@std@@AAEXXZ ENDP ; std::basic_string<char,std::char_traits<char>,std::allocator<char> >::_Tidy_deallocate
_TEXT	ENDS
; Function compile flags: /Odspy
; File C:\Program Files (x86)\Microsoft Visual Studio\2019\Community\VC\Tools\MSVC\14.28.29333\include\xstring
;	COMDAT ?_Tidy_init@?$basic_string@DU?$char_traits@D@std@@V?$allocator@D@2@@std@@AAEXXZ
_TEXT	SEGMENT
_this$ = -8						; size = 4
$T1 = -1						; size = 1
?_Tidy_init@?$basic_string@DU?$char_traits@D@std@@V?$allocator@D@2@@std@@AAEXXZ PROC ; std::basic_string<char,std::char_traits<char>,std::allocator<char> >::_Tidy_init, COMDAT
; _this$ = ecx

; 4376 :     void _Tidy_init() noexcept { // initialize basic_string data members

  00000	55		 push	 ebp
  00001	8b ec		 mov	 ebp, esp
  00003	51		 push	 ecx
  00004	51		 push	 ecx
  00005	89 4d f8	 mov	 DWORD PTR _this$[ebp], ecx

; 4377 :         _Mypair._Myval2._Mysize = 0;

  00008	8b 45 f8	 mov	 eax, DWORD PTR _this$[ebp]
  0000b	83 60 10 00	 and	 DWORD PTR [eax+16], 0

; 4378 :         _Mypair._Myval2._Myres  = _BUF_SIZE - 1;

  0000f	8b 45 f8	 mov	 eax, DWORD PTR _this$[ebp]
  00012	c7 40 14 0f 00
	00 00		 mov	 DWORD PTR [eax+20], 15	; 0000000fH

; 4379 :         // the _Traits::assign is last so the codegen doesn't think the char write can alias this
; 4380 :         _Traits::assign(_Mypair._Myval2._Bx._Buf[0], _Elem());

  00019	c6 45 ff 00	 mov	 BYTE PTR $T1[ebp], 0
  0001d	33 c0		 xor	 eax, eax
  0001f	40		 inc	 eax
  00020	6b c0 00	 imul	 eax, eax, 0

; 428  :         _Left = _Right;

  00023	8b 4d f8	 mov	 ecx, DWORD PTR _this$[ebp]
  00026	8a 55 ff	 mov	 dl, BYTE PTR $T1[ebp]
  00029	88 14 01	 mov	 BYTE PTR [ecx+eax], dl

; 4381 :     }

  0002c	c9		 leave
  0002d	c3		 ret	 0
?_Tidy_init@?$basic_string@DU?$char_traits@D@std@@V?$allocator@D@2@@std@@AAEXXZ ENDP ; std::basic_string<char,std::char_traits<char>,std::allocator<char> >::_Tidy_init
_TEXT	ENDS
; Function compile flags: /Odspy
; File C:\Program Files (x86)\Microsoft Visual Studio\2019\Community\VC\Tools\MSVC\14.28.29333\include\xstring
; File C:\Program Files (x86)\Microsoft Visual Studio\2019\Community\VC\Tools\MSVC\14.28.29333\include\utility
; File C:\Program Files (x86)\Microsoft Visual Studio\2019\Community\VC\Tools\MSVC\14.28.29333\include\xstring
;	COMDAT ?_Calculate_growth@?$basic_string@DU?$char_traits@D@std@@V?$allocator@D@2@@std@@ABEII@Z
_TEXT	SEGMENT
$T1 = -36						; size = 4
$T2 = -32						; size = 4
tv93 = -28						; size = 4
$T3 = -24						; size = 4
_this$ = -20						; size = 4
$T4 = -16						; size = 4
__Masked$5 = -12					; size = 4
__Old$ = -8						; size = 4
__Max$ = -4						; size = 4
__Requested$ = 8					; size = 4
?_Calculate_growth@?$basic_string@DU?$char_traits@D@std@@V?$allocator@D@2@@std@@ABEII@Z PROC ; std::basic_string<char,std::char_traits<char>,std::allocator<char> >::_Calculate_growth, COMDAT
; _this$ = ecx

; 4297 :     _NODISCARD size_type _Calculate_growth(const size_type _Requested) const noexcept {

  00000	55		 push	 ebp
  00001	8b ec		 mov	 ebp, esp
  00003	83 ec 24	 sub	 esp, 36			; 00000024H
  00006	89 4d ec	 mov	 DWORD PTR _this$[ebp], ecx

; 4298 :         return _Calculate_growth(_Requested, _Mypair._Myval2._Myres, max_size());

  00009	8b 4d ec	 mov	 ecx, DWORD PTR _this$[ebp]
  0000c	e8 00 00 00 00	 call	 ?max_size@?$basic_string@DU?$char_traits@D@std@@V?$allocator@D@2@@std@@QBEIXZ ; std::basic_string<char,std::char_traits<char>,std::allocator<char> >::max_size
  00011	89 45 fc	 mov	 DWORD PTR __Max$[ebp], eax
  00014	8b 45 ec	 mov	 eax, DWORD PTR _this$[ebp]
  00017	8b 40 14	 mov	 eax, DWORD PTR [eax+20]
  0001a	89 45 f8	 mov	 DWORD PTR __Old$[ebp], eax

; 4285 :         const size_type _Masked = _Requested | _ALLOC_MASK;

  0001d	8b 45 08	 mov	 eax, DWORD PTR __Requested$[ebp]
  00020	83 c8 0f	 or	 eax, 15			; 0000000fH
  00023	89 45 f4	 mov	 DWORD PTR __Masked$5[ebp], eax

; 4286 :         if (_Masked > _Max) { // the mask overflows, settle for max_size()

  00026	8b 45 f4	 mov	 eax, DWORD PTR __Masked$5[ebp]
  00029	3b 45 fc	 cmp	 eax, DWORD PTR __Max$[ebp]
  0002c	76 08		 jbe	 SHORT $LN29@Calculate_

; 4287 :             return _Max;

  0002e	8b 45 fc	 mov	 eax, DWORD PTR __Max$[ebp]
  00031	89 45 f0	 mov	 DWORD PTR $T4[ebp], eax
  00034	eb 4c		 jmp	 SHORT $LN31@Calculate_
$LN29@Calculate_:

; 4288 :         }
; 4289 : 
; 4290 :         if (_Old > _Max - _Old / 2) { // similarly, geometric overflows

  00036	8b 45 f8	 mov	 eax, DWORD PTR __Old$[ebp]
  00039	d1 e8		 shr	 eax, 1
  0003b	8b 4d fc	 mov	 ecx, DWORD PTR __Max$[ebp]
  0003e	2b c8		 sub	 ecx, eax
  00040	39 4d f8	 cmp	 DWORD PTR __Old$[ebp], ecx
  00043	76 08		 jbe	 SHORT $LN30@Calculate_

; 4291 :             return _Max;

  00045	8b 45 fc	 mov	 eax, DWORD PTR __Max$[ebp]
  00048	89 45 f0	 mov	 DWORD PTR $T4[ebp], eax
  0004b	eb 35		 jmp	 SHORT $LN31@Calculate_
$LN30@Calculate_:

; 4294 :         return (_STD max)(_Masked, _Old + _Old / 2);

  0004d	8b 45 f8	 mov	 eax, DWORD PTR __Old$[ebp]
  00050	d1 e8		 shr	 eax, 1
  00052	03 45 f8	 add	 eax, DWORD PTR __Old$[ebp]
  00055	89 45 e8	 mov	 DWORD PTR $T3[ebp], eax
; File C:\Program Files (x86)\Microsoft Visual Studio\2019\Community\VC\Tools\MSVC\14.28.29333\include\utility

; 44   :     return _Left < _Right ? _Right : _Left;

  00058	8b 45 f4	 mov	 eax, DWORD PTR __Masked$5[ebp]
  0005b	3b 45 e8	 cmp	 eax, DWORD PTR $T3[ebp]
  0005e	73 08		 jae	 SHORT $LN35@Calculate_
  00060	8d 45 e8	 lea	 eax, DWORD PTR $T3[ebp]
  00063	89 45 e4	 mov	 DWORD PTR tv93[ebp], eax
  00066	eb 06		 jmp	 SHORT $LN36@Calculate_
$LN35@Calculate_:
  00068	8d 45 f4	 lea	 eax, DWORD PTR __Masked$5[ebp]
  0006b	89 45 e4	 mov	 DWORD PTR tv93[ebp], eax
$LN36@Calculate_:
  0006e	8b 45 e4	 mov	 eax, DWORD PTR tv93[ebp]
  00071	89 45 e0	 mov	 DWORD PTR $T2[ebp], eax
  00074	8b 45 e0	 mov	 eax, DWORD PTR $T2[ebp]
  00077	89 45 dc	 mov	 DWORD PTR $T1[ebp], eax
; File C:\Program Files (x86)\Microsoft Visual Studio\2019\Community\VC\Tools\MSVC\14.28.29333\include\xstring

; 4294 :         return (_STD max)(_Masked, _Old + _Old / 2);

  0007a	8b 45 dc	 mov	 eax, DWORD PTR $T1[ebp]
  0007d	8b 00		 mov	 eax, DWORD PTR [eax]
  0007f	89 45 f0	 mov	 DWORD PTR $T4[ebp], eax
$LN31@Calculate_:

; 4298 :         return _Calculate_growth(_Requested, _Mypair._Myval2._Myres, max_size());

  00082	8b 45 f0	 mov	 eax, DWORD PTR $T4[ebp]

; 4299 :     }

  00085	c9		 leave
  00086	c2 04 00	 ret	 4
?_Calculate_growth@?$basic_string@DU?$char_traits@D@std@@V?$allocator@D@2@@std@@ABEII@Z ENDP ; std::basic_string<char,std::char_traits<char>,std::allocator<char> >::_Calculate_growth
_TEXT	ENDS
; Function compile flags: /Odspy
; File C:\Program Files (x86)\Microsoft Visual Studio\2019\Community\VC\Tools\MSVC\14.28.29333\include\xstring
; File C:\Program Files (x86)\Microsoft Visual Studio\2019\Community\VC\Tools\MSVC\14.28.29333\include\xstddef
; File C:\Program Files (x86)\Microsoft Visual Studio\2019\Community\VC\Tools\MSVC\14.28.29333\include\xstring
; File C:\Program Files (x86)\Microsoft Visual Studio\2019\Community\VC\Tools\MSVC\14.28.29333\include\xstddef
; File C:\Program Files (x86)\Microsoft Visual Studio\2019\Community\VC\Tools\MSVC\14.28.29333\include\xstring
; File C:\Program Files (x86)\Microsoft Visual Studio\2019\Community\VC\Tools\MSVC\14.28.29333\include\utility
; File C:\Program Files (x86)\Microsoft Visual Studio\2019\Community\VC\Tools\MSVC\14.28.29333\include\xstring
;	COMDAT ?compare@?$basic_string@DU?$char_traits@D@std@@V?$allocator@D@2@@std@@QBEHABV12@@Z
_TEXT	SEGMENT
$T1 = -80						; size = 4
$T2 = -76						; size = 4
__Count$ = -72						; size = 4
$T3 = -68						; size = 4
$T4 = -64						; size = 4
__Ptr$ = -60						; size = 4
__Ptr$ = -56						; size = 4
__Ans$5 = -52						; size = 4
tv146 = -48						; size = 4
_this$ = -44						; size = 4
__Result$6 = -40					; size = 4
tv137 = -36						; size = 4
__Result$7 = -32					; size = 4
tv95 = -28						; size = 4
_this$ = -24						; size = 4
_this$ = -20						; size = 4
$T8 = -16						; size = 4
__Right_size$ = -12					; size = 4
__Left_size$ = -8					; size = 4
$T9 = -2						; size = 1
$T10 = -1						; size = 1
__Right$ = 8						; size = 4
?compare@?$basic_string@DU?$char_traits@D@std@@V?$allocator@D@2@@std@@QBEHABV12@@Z PROC ; std::basic_string<char,std::char_traits<char>,std::allocator<char> >::compare, COMDAT
; _this$ = ecx

; 4212 :     _NODISCARD int compare(const basic_string& _Right) const noexcept { // compare [0, size()) with _Right

  00000	55		 push	 ebp
  00001	8b ec		 mov	 ebp, esp
  00003	83 ec 50	 sub	 esp, 80			; 00000050H
  00006	89 4d d4	 mov	 DWORD PTR _this$[ebp], ecx

; 4213 :         return _Traits_compare<_Traits>(_Mypair._Myval2._Myptr(), _Mypair._Myval2._Mysize,

  00009	8b 45 08	 mov	 eax, DWORD PTR __Right$[ebp]
  0000c	89 45 ec	 mov	 DWORD PTR _this$[ebp], eax

; 2218 :         const value_type* _Result = _Bx._Buf;

  0000f	8b 45 ec	 mov	 eax, DWORD PTR _this$[ebp]
  00012	89 45 e0	 mov	 DWORD PTR __Result$7[ebp], eax

; 2227 :         return _BUF_SIZE <= _Myres;

  00015	8b 45 ec	 mov	 eax, DWORD PTR _this$[ebp]
  00018	83 78 14 10	 cmp	 DWORD PTR [eax+20], 16	; 00000010H
  0001c	72 09		 jb	 SHORT $LN9@compare
  0001e	c7 45 e4 01 00
	00 00		 mov	 DWORD PTR tv95[ebp], 1
  00025	eb 04		 jmp	 SHORT $LN10@compare
$LN9@compare:
  00027	83 65 e4 00	 and	 DWORD PTR tv95[ebp], 0
$LN10@compare:
  0002b	8a 45 e4	 mov	 al, BYTE PTR tv95[ebp]
  0002e	88 45 ff	 mov	 BYTE PTR $T10[ebp], al

; 2219 :         if (_Large_string_engaged()) {

  00031	0f b6 45 ff	 movzx	 eax, BYTE PTR $T10[ebp]
  00035	85 c0		 test	 eax, eax
  00037	74 0e		 je	 SHORT $LN4@compare

; 2220 :             _Result = _Unfancy(_Bx._Ptr);

  00039	8b 45 ec	 mov	 eax, DWORD PTR _this$[ebp]
  0003c	8b 00		 mov	 eax, DWORD PTR [eax]
  0003e	89 45 c8	 mov	 DWORD PTR __Ptr$[ebp], eax
; File C:\Program Files (x86)\Microsoft Visual Studio\2019\Community\VC\Tools\MSVC\14.28.29333\include\xstddef

; 289  :     return _Ptr;

  00041	8b 45 c8	 mov	 eax, DWORD PTR __Ptr$[ebp]
  00044	89 45 e0	 mov	 DWORD PTR __Result$7[ebp], eax
$LN4@compare:
; File C:\Program Files (x86)\Microsoft Visual Studio\2019\Community\VC\Tools\MSVC\14.28.29333\include\xstring

; 2223 :         return _Result;

  00047	8b 45 e0	 mov	 eax, DWORD PTR __Result$7[ebp]
  0004a	89 45 b4	 mov	 DWORD PTR $T2[ebp], eax

; 4213 :         return _Traits_compare<_Traits>(_Mypair._Myval2._Myptr(), _Mypair._Myval2._Mysize,

  0004d	8b 45 d4	 mov	 eax, DWORD PTR _this$[ebp]
  00050	89 45 e8	 mov	 DWORD PTR _this$[ebp], eax

; 2218 :         const value_type* _Result = _Bx._Buf;

  00053	8b 45 e8	 mov	 eax, DWORD PTR _this$[ebp]
  00056	89 45 d8	 mov	 DWORD PTR __Result$6[ebp], eax

; 2227 :         return _BUF_SIZE <= _Myres;

  00059	8b 45 e8	 mov	 eax, DWORD PTR _this$[ebp]
  0005c	83 78 14 10	 cmp	 DWORD PTR [eax+20], 16	; 00000010H
  00060	72 09		 jb	 SHORT $LN21@compare
  00062	c7 45 dc 01 00
	00 00		 mov	 DWORD PTR tv137[ebp], 1
  00069	eb 04		 jmp	 SHORT $LN22@compare
$LN21@compare:
  0006b	83 65 dc 00	 and	 DWORD PTR tv137[ebp], 0
$LN22@compare:
  0006f	8a 45 dc	 mov	 al, BYTE PTR tv137[ebp]
  00072	88 45 fe	 mov	 BYTE PTR $T9[ebp], al

; 2219 :         if (_Large_string_engaged()) {

  00075	0f b6 45 fe	 movzx	 eax, BYTE PTR $T9[ebp]
  00079	85 c0		 test	 eax, eax
  0007b	74 0e		 je	 SHORT $LN16@compare

; 2220 :             _Result = _Unfancy(_Bx._Ptr);

  0007d	8b 45 e8	 mov	 eax, DWORD PTR _this$[ebp]
  00080	8b 00		 mov	 eax, DWORD PTR [eax]
  00082	89 45 c4	 mov	 DWORD PTR __Ptr$[ebp], eax
; File C:\Program Files (x86)\Microsoft Visual Studio\2019\Community\VC\Tools\MSVC\14.28.29333\include\xstddef

; 289  :     return _Ptr;

  00085	8b 45 c4	 mov	 eax, DWORD PTR __Ptr$[ebp]
  00088	89 45 d8	 mov	 DWORD PTR __Result$6[ebp], eax
$LN16@compare:
; File C:\Program Files (x86)\Microsoft Visual Studio\2019\Community\VC\Tools\MSVC\14.28.29333\include\xstring

; 2223 :         return _Result;

  0008b	8b 45 d8	 mov	 eax, DWORD PTR __Result$6[ebp]
  0008e	89 45 b0	 mov	 DWORD PTR $T1[ebp], eax

; 4213 :         return _Traits_compare<_Traits>(_Mypair._Myval2._Myptr(), _Mypair._Myval2._Mysize,

  00091	8b 45 08	 mov	 eax, DWORD PTR __Right$[ebp]
  00094	8b 40 10	 mov	 eax, DWORD PTR [eax+16]
  00097	89 45 f4	 mov	 DWORD PTR __Right_size$[ebp], eax
  0009a	8b 45 d4	 mov	 eax, DWORD PTR _this$[ebp]
  0009d	8b 40 10	 mov	 eax, DWORD PTR [eax+16]
  000a0	89 45 f8	 mov	 DWORD PTR __Left_size$[ebp], eax
; File C:\Program Files (x86)\Microsoft Visual Studio\2019\Community\VC\Tools\MSVC\14.28.29333\include\utility

; 68   :     return _Right < _Left ? _Right : _Left;

  000a3	8b 45 f4	 mov	 eax, DWORD PTR __Right_size$[ebp]
  000a6	3b 45 f8	 cmp	 eax, DWORD PTR __Left_size$[ebp]
  000a9	73 08		 jae	 SHORT $LN35@compare
  000ab	8d 45 f4	 lea	 eax, DWORD PTR __Right_size$[ebp]
  000ae	89 45 d0	 mov	 DWORD PTR tv146[ebp], eax
  000b1	eb 06		 jmp	 SHORT $LN36@compare
$LN35@compare:
  000b3	8d 45 f8	 lea	 eax, DWORD PTR __Left_size$[ebp]
  000b6	89 45 d0	 mov	 DWORD PTR tv146[ebp], eax
$LN36@compare:
  000b9	8b 45 d0	 mov	 eax, DWORD PTR tv146[ebp]
  000bc	89 45 c0	 mov	 DWORD PTR $T4[ebp], eax
  000bf	8b 45 c0	 mov	 eax, DWORD PTR $T4[ebp]
  000c2	89 45 bc	 mov	 DWORD PTR $T3[ebp], eax
; File C:\Program Files (x86)\Microsoft Visual Studio\2019\Community\VC\Tools\MSVC\14.28.29333\include\xstring

; 568  :     const int _Ans = _Traits::compare(_Left, _Right, (_STD min)(_Left_size, _Right_size));

  000c5	8b 45 bc	 mov	 eax, DWORD PTR $T3[ebp]
  000c8	8b 00		 mov	 eax, DWORD PTR [eax]
  000ca	89 45 b8	 mov	 DWORD PTR __Count$[ebp], eax

; 369  :         return _CSTD memcmp(_First1, _First2, _Count);

  000cd	ff 75 b8	 push	 DWORD PTR __Count$[ebp]
  000d0	ff 75 b4	 push	 DWORD PTR $T2[ebp]
  000d3	ff 75 b0	 push	 DWORD PTR $T1[ebp]
  000d6	e8 00 00 00 00	 call	 _memcmp
  000db	83 c4 0c	 add	 esp, 12			; 0000000cH
  000de	89 45 cc	 mov	 DWORD PTR __Ans$5[ebp], eax

; 570  :     if (_Ans != 0) {

  000e1	83 7d cc 00	 cmp	 DWORD PTR __Ans$5[ebp], 0
  000e5	74 08		 je	 SHORT $LN28@compare

; 571  :         return _Ans;

  000e7	8b 45 cc	 mov	 eax, DWORD PTR __Ans$5[ebp]
  000ea	89 45 f0	 mov	 DWORD PTR $T8[ebp], eax
  000ed	eb 23		 jmp	 SHORT $LN31@compare
$LN28@compare:

; 572  :     }
; 573  : 
; 574  :     if (_Left_size < _Right_size) {

  000ef	8b 45 f8	 mov	 eax, DWORD PTR __Left_size$[ebp]
  000f2	3b 45 f4	 cmp	 eax, DWORD PTR __Right_size$[ebp]
  000f5	73 06		 jae	 SHORT $LN29@compare

; 575  :         return -1;

  000f7	83 4d f0 ff	 or	 DWORD PTR $T8[ebp], -1
  000fb	eb 15		 jmp	 SHORT $LN31@compare
$LN29@compare:

; 576  :     }
; 577  : 
; 578  :     if (_Left_size > _Right_size) {

  000fd	8b 45 f8	 mov	 eax, DWORD PTR __Left_size$[ebp]
  00100	3b 45 f4	 cmp	 eax, DWORD PTR __Right_size$[ebp]
  00103	76 09		 jbe	 SHORT $LN30@compare

; 579  :         return 1;

  00105	c7 45 f0 01 00
	00 00		 mov	 DWORD PTR $T8[ebp], 1
  0010c	eb 04		 jmp	 SHORT $LN31@compare
$LN30@compare:

; 580  :     }
; 581  : 
; 582  :     return 0;

  0010e	83 65 f0 00	 and	 DWORD PTR $T8[ebp], 0
$LN31@compare:

; 4213 :         return _Traits_compare<_Traits>(_Mypair._Myval2._Myptr(), _Mypair._Myval2._Mysize,

  00112	8b 45 f0	 mov	 eax, DWORD PTR $T8[ebp]

; 4214 :             _Right._Mypair._Myval2._Myptr(), _Right._Mypair._Myval2._Mysize);
; 4215 :     }

  00115	c9		 leave
  00116	c2 04 00	 ret	 4
?compare@?$basic_string@DU?$char_traits@D@std@@V?$allocator@D@2@@std@@QBEHABV12@@Z ENDP ; std::basic_string<char,std::char_traits<char>,std::allocator<char> >::compare
_TEXT	ENDS
; Function compile flags: /Odspy
; File C:\Program Files (x86)\Microsoft Visual Studio\2019\Community\VC\Tools\MSVC\14.28.29333\include\xstring
; File C:\Program Files (x86)\Microsoft Visual Studio\2019\Community\VC\Tools\MSVC\14.28.29333\include\xmemory
; File C:\Program Files (x86)\Microsoft Visual Studio\2019\Community\VC\Tools\MSVC\14.28.29333\include\xstring
; File C:\Program Files (x86)\Microsoft Visual Studio\2019\Community\VC\Tools\MSVC\14.28.29333\include\xmemory
; File C:\Program Files (x86)\Microsoft Visual Studio\2019\Community\VC\Tools\MSVC\14.28.29333\include\xstring
; File C:\Program Files (x86)\Microsoft Visual Studio\2019\Community\VC\Tools\MSVC\14.28.29333\include\utility
; File C:\Program Files (x86)\Microsoft Visual Studio\2019\Community\VC\Tools\MSVC\14.28.29333\include\xstring
; File C:\Program Files (x86)\Microsoft Visual Studio\2019\Community\VC\Tools\MSVC\14.28.29333\include\limits
; File C:\Program Files (x86)\Microsoft Visual Studio\2019\Community\VC\Tools\MSVC\14.28.29333\include\xstring
; File C:\Program Files (x86)\Microsoft Visual Studio\2019\Community\VC\Tools\MSVC\14.28.29333\include\utility
; File C:\Program Files (x86)\Microsoft Visual Studio\2019\Community\VC\Tools\MSVC\14.28.29333\include\xstring
;	COMDAT ?max_size@?$basic_string@DU?$char_traits@D@std@@V?$allocator@D@2@@std@@QBEIXZ
_TEXT	SEGMENT
$T1 = -60						; size = 4
$T2 = -56						; size = 4
$T3 = -52						; size = 4
$T4 = -48						; size = 4
__Storage_max$ = -44					; size = 4
$T5 = -40						; size = 4
$T6 = -36						; size = 4
$T7 = -32						; size = 4
_this$ = -28						; size = 4
tv70 = -24						; size = 4
$T8 = -20						; size = 4
$T9 = -16						; size = 4
tv67 = -12						; size = 4
__Alloc_max$ = -8					; size = 4
$T10 = -4						; size = 4
?max_size@?$basic_string@DU?$char_traits@D@std@@V?$allocator@D@2@@std@@QBEIXZ PROC ; std::basic_string<char,std::char_traits<char>,std::allocator<char> >::max_size, COMDAT
; _this$ = ecx

; 3773 :     _NODISCARD size_type max_size() const noexcept {

  00000	55		 push	 ebp
  00001	8b ec		 mov	 ebp, esp
  00003	83 ec 3c	 sub	 esp, 60			; 0000003cH
  00006	89 4d e4	 mov	 DWORD PTR _this$[ebp], ecx

; 4413 :         return _Mypair._Get_first();

  00009	8b 45 e4	 mov	 eax, DWORD PTR _this$[ebp]
; File C:\Program Files (x86)\Microsoft Visual Studio\2019\Community\VC\Tools\MSVC\14.28.29333\include\xmemory

; 1351 :         return *this;

  0000c	89 45 e0	 mov	 DWORD PTR $T7[ebp], eax
; File C:\Program Files (x86)\Microsoft Visual Studio\2019\Community\VC\Tools\MSVC\14.28.29333\include\xstring

; 4413 :         return _Mypair._Get_first();

  0000f	8b 45 e0	 mov	 eax, DWORD PTR $T7[ebp]
  00012	89 45 c4	 mov	 DWORD PTR $T1[ebp], eax
; File C:\Program Files (x86)\Microsoft Visual Studio\2019\Community\VC\Tools\MSVC\14.28.29333\include\xmemory

; 710  :         return static_cast<size_t>(-1) / sizeof(value_type);

  00015	83 4d f8 ff	 or	 DWORD PTR __Alloc_max$[ebp], -1
; File C:\Program Files (x86)\Microsoft Visual Studio\2019\Community\VC\Tools\MSVC\14.28.29333\include\xstring

; 3775 :         const size_type _Storage_max = // can always store small string

  00019	c7 45 fc 10 00
	00 00		 mov	 DWORD PTR $T10[ebp], 16	; 00000010H
; File C:\Program Files (x86)\Microsoft Visual Studio\2019\Community\VC\Tools\MSVC\14.28.29333\include\utility

; 44   :     return _Left < _Right ? _Right : _Left;

  00020	8b 45 f8	 mov	 eax, DWORD PTR __Alloc_max$[ebp]
  00023	3b 45 fc	 cmp	 eax, DWORD PTR $T10[ebp]
  00026	73 08		 jae	 SHORT $LN14@max_size
  00028	8d 45 fc	 lea	 eax, DWORD PTR $T10[ebp]
  0002b	89 45 f4	 mov	 DWORD PTR tv67[ebp], eax
  0002e	eb 06		 jmp	 SHORT $LN15@max_size
$LN14@max_size:
  00030	8d 45 f8	 lea	 eax, DWORD PTR __Alloc_max$[ebp]
  00033	89 45 f4	 mov	 DWORD PTR tv67[ebp], eax
$LN15@max_size:
  00036	8b 45 f4	 mov	 eax, DWORD PTR tv67[ebp]
  00039	89 45 dc	 mov	 DWORD PTR $T6[ebp], eax
  0003c	8b 45 dc	 mov	 eax, DWORD PTR $T6[ebp]
  0003f	89 45 d8	 mov	 DWORD PTR $T5[ebp], eax
; File C:\Program Files (x86)\Microsoft Visual Studio\2019\Community\VC\Tools\MSVC\14.28.29333\include\xstring

; 3775 :         const size_type _Storage_max = // can always store small string

  00042	8b 45 d8	 mov	 eax, DWORD PTR $T5[ebp]
  00045	8b 00		 mov	 eax, DWORD PTR [eax]
  00047	89 45 d4	 mov	 DWORD PTR __Storage_max$[ebp], eax

; 3777 :         return (_STD min)(static_cast<size_type>((numeric_limits<difference_type>::max)()),

  0004a	8b 45 d4	 mov	 eax, DWORD PTR __Storage_max$[ebp]
  0004d	48		 dec	 eax
  0004e	89 45 f0	 mov	 DWORD PTR $T9[ebp], eax
; File C:\Program Files (x86)\Microsoft Visual Studio\2019\Community\VC\Tools\MSVC\14.28.29333\include\limits

; 557  :         return INT_MAX;

  00051	c7 45 d0 ff ff
	ff 7f		 mov	 DWORD PTR $T4[ebp], 2147483647 ; 7fffffffH
; File C:\Program Files (x86)\Microsoft Visual Studio\2019\Community\VC\Tools\MSVC\14.28.29333\include\xstring

; 3777 :         return (_STD min)(static_cast<size_type>((numeric_limits<difference_type>::max)()),

  00058	8b 45 d0	 mov	 eax, DWORD PTR $T4[ebp]
  0005b	89 45 ec	 mov	 DWORD PTR $T8[ebp], eax
; File C:\Program Files (x86)\Microsoft Visual Studio\2019\Community\VC\Tools\MSVC\14.28.29333\include\utility

; 68   :     return _Right < _Left ? _Right : _Left;

  0005e	8b 45 f0	 mov	 eax, DWORD PTR $T9[ebp]
  00061	3b 45 ec	 cmp	 eax, DWORD PTR $T8[ebp]
  00064	73 08		 jae	 SHORT $LN22@max_size
  00066	8d 45 f0	 lea	 eax, DWORD PTR $T9[ebp]
  00069	89 45 e8	 mov	 DWORD PTR tv70[ebp], eax
  0006c	eb 06		 jmp	 SHORT $LN23@max_size
$LN22@max_size:
  0006e	8d 45 ec	 lea	 eax, DWORD PTR $T8[ebp]
  00071	89 45 e8	 mov	 DWORD PTR tv70[ebp], eax
$LN23@max_size:
  00074	8b 45 e8	 mov	 eax, DWORD PTR tv70[ebp]
  00077	89 45 cc	 mov	 DWORD PTR $T3[ebp], eax
  0007a	8b 45 cc	 mov	 eax, DWORD PTR $T3[ebp]
  0007d	89 45 c8	 mov	 DWORD PTR $T2[ebp], eax
; File C:\Program Files (x86)\Microsoft Visual Studio\2019\Community\VC\Tools\MSVC\14.28.29333\include\xstring

; 3777 :         return (_STD min)(static_cast<size_type>((numeric_limits<difference_type>::max)()),

  00080	8b 45 c8	 mov	 eax, DWORD PTR $T2[ebp]
  00083	8b 00		 mov	 eax, DWORD PTR [eax]

; 3778 :             _Storage_max - 1 // -1 is for null terminator and/or npos
; 3779 :         );
; 3780 :     }

  00085	c9		 leave
  00086	c3		 ret	 0
?max_size@?$basic_string@DU?$char_traits@D@std@@V?$allocator@D@2@@std@@QBEIXZ ENDP ; std::basic_string<char,std::char_traits<char>,std::allocator<char> >::max_size
_TEXT	ENDS
; Function compile flags: /Odspy
; File C:\Program Files (x86)\Microsoft Visual Studio\2019\Community\VC\Tools\MSVC\14.28.29333\include\xstring
; File C:\Program Files (x86)\Microsoft Visual Studio\2019\Community\VC\Tools\MSVC\14.28.29333\include\xstddef
; File C:\Program Files (x86)\Microsoft Visual Studio\2019\Community\VC\Tools\MSVC\14.28.29333\include\xstring
;	COMDAT ?c_str@?$basic_string@DU?$char_traits@D@std@@V?$allocator@D@2@@std@@QBEPBDXZ
_TEXT	SEGMENT
$T1 = -28						; size = 4
__Ptr$ = -24						; size = 4
_this$ = -20						; size = 4
__Result$2 = -16					; size = 4
tv80 = -12						; size = 4
_this$ = -8						; size = 4
$T3 = -1						; size = 1
?c_str@?$basic_string@DU?$char_traits@D@std@@V?$allocator@D@2@@std@@QBEPBDXZ PROC ; std::basic_string<char,std::char_traits<char>,std::allocator<char> >::c_str, COMDAT
; _this$ = ecx

; 3751 :     _NODISCARD _Ret_z_ const _Elem* c_str() const noexcept {

  00000	55		 push	 ebp
  00001	8b ec		 mov	 ebp, esp
  00003	83 ec 1c	 sub	 esp, 28			; 0000001cH
  00006	89 4d ec	 mov	 DWORD PTR _this$[ebp], ecx

; 3752 :         return _Mypair._Myval2._Myptr();

  00009	8b 45 ec	 mov	 eax, DWORD PTR _this$[ebp]
  0000c	89 45 f8	 mov	 DWORD PTR _this$[ebp], eax

; 2218 :         const value_type* _Result = _Bx._Buf;

  0000f	8b 45 f8	 mov	 eax, DWORD PTR _this$[ebp]
  00012	89 45 f0	 mov	 DWORD PTR __Result$2[ebp], eax

; 2227 :         return _BUF_SIZE <= _Myres;

  00015	8b 45 f8	 mov	 eax, DWORD PTR _this$[ebp]
  00018	83 78 14 10	 cmp	 DWORD PTR [eax+20], 16	; 00000010H
  0001c	72 09		 jb	 SHORT $LN9@c_str
  0001e	c7 45 f4 01 00
	00 00		 mov	 DWORD PTR tv80[ebp], 1
  00025	eb 04		 jmp	 SHORT $LN10@c_str
$LN9@c_str:
  00027	83 65 f4 00	 and	 DWORD PTR tv80[ebp], 0
$LN10@c_str:
  0002b	8a 45 f4	 mov	 al, BYTE PTR tv80[ebp]
  0002e	88 45 ff	 mov	 BYTE PTR $T3[ebp], al

; 2219 :         if (_Large_string_engaged()) {

  00031	0f b6 45 ff	 movzx	 eax, BYTE PTR $T3[ebp]
  00035	85 c0		 test	 eax, eax
  00037	74 0e		 je	 SHORT $LN4@c_str

; 2220 :             _Result = _Unfancy(_Bx._Ptr);

  00039	8b 45 f8	 mov	 eax, DWORD PTR _this$[ebp]
  0003c	8b 00		 mov	 eax, DWORD PTR [eax]
  0003e	89 45 e8	 mov	 DWORD PTR __Ptr$[ebp], eax
; File C:\Program Files (x86)\Microsoft Visual Studio\2019\Community\VC\Tools\MSVC\14.28.29333\include\xstddef

; 289  :     return _Ptr;

  00041	8b 45 e8	 mov	 eax, DWORD PTR __Ptr$[ebp]
  00044	89 45 f0	 mov	 DWORD PTR __Result$2[ebp], eax
$LN4@c_str:
; File C:\Program Files (x86)\Microsoft Visual Studio\2019\Community\VC\Tools\MSVC\14.28.29333\include\xstring

; 2223 :         return _Result;

  00047	8b 45 f0	 mov	 eax, DWORD PTR __Result$2[ebp]
  0004a	89 45 e4	 mov	 DWORD PTR $T1[ebp], eax

; 3752 :         return _Mypair._Myval2._Myptr();

  0004d	8b 45 e4	 mov	 eax, DWORD PTR $T1[ebp]

; 3753 :     }

  00050	c9		 leave
  00051	c3		 ret	 0
?c_str@?$basic_string@DU?$char_traits@D@std@@V?$allocator@D@2@@std@@QBEPBDXZ ENDP ; std::basic_string<char,std::char_traits<char>,std::allocator<char> >::c_str
_TEXT	ENDS
; Function compile flags: /Odspy
; File C:\Program Files (x86)\Microsoft Visual Studio\2019\Community\VC\Tools\MSVC\14.28.29333\include\xstring
;	COMDAT ?assign@?$basic_string@DU?$char_traits@D@std@@V?$allocator@D@2@@std@@QAEAAV12@QBDI@Z
_TEXT	SEGMENT
$T1 = -16						; size = 1
__Old_ptr$2 = -12					; size = 4
_this$ = -8						; size = 4
$T3 = -1						; size = 1
__Ptr$ = 8						; size = 4
__Count$ = 12						; size = 4
?assign@?$basic_string@DU?$char_traits@D@std@@V?$allocator@D@2@@std@@QAEAAV12@QBDI@Z PROC ; std::basic_string<char,std::char_traits<char>,std::allocator<char> >::assign, COMDAT
; _this$ = ecx

; 3042 :     basic_string& assign(_In_reads_(_Count) const _Elem* const _Ptr, _CRT_GUARDOVERFLOW const size_type _Count) {

  00000	55		 push	 ebp
  00001	8b ec		 mov	 ebp, esp
  00003	83 ec 10	 sub	 esp, 16			; 00000010H
  00006	89 4d f8	 mov	 DWORD PTR _this$[ebp], ecx

; 3043 :         // assign [_Ptr, _Ptr + _Count)
; 3044 :         if (_Count <= _Mypair._Myval2._Myres) {

  00009	8b 45 f8	 mov	 eax, DWORD PTR _this$[ebp]
  0000c	8b 4d 0c	 mov	 ecx, DWORD PTR __Count$[ebp]
  0000f	3b 48 14	 cmp	 ecx, DWORD PTR [eax+20]
  00012	77 39		 ja	 SHORT $LN2@assign

; 3045 :             _Elem* const _Old_ptr   = _Mypair._Myval2._Myptr();

  00014	8b 4d f8	 mov	 ecx, DWORD PTR _this$[ebp]
  00017	e8 00 00 00 00	 call	 ?_Myptr@?$_String_val@U?$_Simple_types@D@std@@@std@@QAEPADXZ ; std::_String_val<std::_Simple_types<char> >::_Myptr
  0001c	89 45 f4	 mov	 DWORD PTR __Old_ptr$2[ebp], eax

; 3046 :             _Mypair._Myval2._Mysize = _Count;

  0001f	8b 45 f8	 mov	 eax, DWORD PTR _this$[ebp]
  00022	8b 4d 0c	 mov	 ecx, DWORD PTR __Count$[ebp]
  00025	89 48 10	 mov	 DWORD PTR [eax+16], ecx

; 119  :         _CSTD memmove(_First1, _First2, _Count * sizeof(_Elem));

  00028	ff 75 0c	 push	 DWORD PTR __Count$[ebp]
  0002b	ff 75 08	 push	 DWORD PTR __Ptr$[ebp]
  0002e	ff 75 f4	 push	 DWORD PTR __Old_ptr$2[ebp]
  00031	e8 00 00 00 00	 call	 _memmove
  00036	83 c4 0c	 add	 esp, 12			; 0000000cH

; 3047 :             _Traits::move(_Old_ptr, _Ptr, _Count);
; 3048 :             _Traits::assign(_Old_ptr[_Count], _Elem());

  00039	c6 45 ff 00	 mov	 BYTE PTR $T3[ebp], 0

; 428  :         _Left = _Right;

  0003d	8b 45 f4	 mov	 eax, DWORD PTR __Old_ptr$2[ebp]
  00040	03 45 0c	 add	 eax, DWORD PTR __Count$[ebp]
  00043	8a 4d ff	 mov	 cl, BYTE PTR $T3[ebp]
  00046	88 08		 mov	 BYTE PTR [eax], cl

; 3049 :             return *this;

  00048	8b 45 f8	 mov	 eax, DWORD PTR _this$[ebp]
  0004b	eb 16		 jmp	 SHORT $LN1@assign
$LN2@assign:

; 3050 :         }
; 3051 : 
; 3052 :         return _Reallocate_for(

  0004d	33 c0		 xor	 eax, eax
  0004f	88 45 f0	 mov	 BYTE PTR $T1[ebp], al
  00052	ff 75 08	 push	 DWORD PTR __Ptr$[ebp]
  00055	ff 75 f0	 push	 DWORD PTR $T1[ebp]
  00058	ff 75 0c	 push	 DWORD PTR __Count$[ebp]
  0005b	8b 4d f8	 mov	 ecx, DWORD PTR _this$[ebp]
  0005e	e8 00 00 00 00	 call	 ??$_Reallocate_for@V<lambda_9366063389c5f42a00a5088cf24e69de>@@PBD@?$basic_string@DU?$char_traits@D@std@@V?$allocator@D@2@@std@@AAEAAV01@IV<lambda_9366063389c5f42a00a5088cf24e69de>@@PBD@Z ; std::basic_string<char,std::char_traits<char>,std::allocator<char> >::_Reallocate_for<<lambda_9366063389c5f42a00a5088cf24e69de>,char const *>
$LN1@assign:

; 3053 :             _Count,
; 3054 :             [](_Elem* const _New_ptr, const size_type _Count, const _Elem* const _Ptr) {
; 3055 :                 _Traits::copy(_New_ptr, _Ptr, _Count);
; 3056 :                 _Traits::assign(_New_ptr[_Count], _Elem());
; 3057 :             },
; 3058 :             _Ptr);
; 3059 :     }

  00063	c9		 leave
  00064	c2 08 00	 ret	 8
?assign@?$basic_string@DU?$char_traits@D@std@@V?$allocator@D@2@@std@@QAEAAV12@QBDI@Z ENDP ; std::basic_string<char,std::char_traits<char>,std::allocator<char> >::assign
_TEXT	ENDS
; Function compile flags: /Odspy
; File C:\Program Files (x86)\Microsoft Visual Studio\2019\Community\VC\Tools\MSVC\14.28.29333\include\xstring
;	COMDAT ??1?$basic_string@DU?$char_traits@D@std@@V?$allocator@D@2@@std@@QAE@XZ
_TEXT	SEGMENT
_this$ = -4						; size = 4
??1?$basic_string@DU?$char_traits@D@std@@V?$allocator@D@2@@std@@QAE@XZ PROC ; std::basic_string<char,std::char_traits<char>,std::allocator<char> >::~basic_string<char,std::char_traits<char>,std::allocator<char> >, COMDAT
; _this$ = ecx

; 2800 :     ~basic_string() noexcept {

  00000	55		 push	 ebp
  00001	8b ec		 mov	 ebp, esp
  00003	51		 push	 ecx
  00004	89 4d fc	 mov	 DWORD PTR _this$[ebp], ecx

; 2801 :         _Tidy_deallocate();

  00007	8b 4d fc	 mov	 ecx, DWORD PTR _this$[ebp]
  0000a	e8 00 00 00 00	 call	 ?_Tidy_deallocate@?$basic_string@DU?$char_traits@D@std@@V?$allocator@D@2@@std@@AAEXXZ ; std::basic_string<char,std::char_traits<char>,std::allocator<char> >::_Tidy_deallocate

; 2802 : #if _ITERATOR_DEBUG_LEVEL != 0
; 2803 :         auto&& _Alproxy          = _GET_PROXY_ALLOCATOR(_Alty, _Getal());
; 2804 :         const auto _To_delete    = _Mypair._Myval2._Myproxy;
; 2805 :         _Mypair._Myval2._Myproxy = nullptr;
; 2806 :         _Delete_plain_internal(_Alproxy, _To_delete);
; 2807 : #endif // _ITERATOR_DEBUG_LEVEL != 0
; 2808 :     }

  0000f	c9		 leave
  00010	c3		 ret	 0
??1?$basic_string@DU?$char_traits@D@std@@V?$allocator@D@2@@std@@QAE@XZ ENDP ; std::basic_string<char,std::char_traits<char>,std::allocator<char> >::~basic_string<char,std::char_traits<char>,std::allocator<char> >
_TEXT	ENDS
; Function compile flags: /Odspy
; File C:\Program Files (x86)\Microsoft Visual Studio\2019\Community\VC\Tools\MSVC\14.28.29333\include\xstring
; File C:\Program Files (x86)\Microsoft Visual Studio\2019\Community\VC\Tools\MSVC\14.28.29333\include\xmemory
; File C:\Program Files (x86)\Microsoft Visual Studio\2019\Community\VC\Tools\MSVC\14.28.29333\include\xstring
; File C:\Program Files (x86)\Microsoft Visual Studio\2019\Community\VC\Tools\MSVC\14.28.29333\include\utility
; File C:\Program Files (x86)\Microsoft Visual Studio\2019\Community\VC\Tools\MSVC\14.28.29333\include\xstring
; File C:\Program Files (x86)\Microsoft Visual Studio\2019\Community\VC\Tools\MSVC\14.28.29333\include\xmemory
; File C:\Program Files (x86)\Microsoft Visual Studio\2019\Community\VC\Tools\MSVC\14.28.29333\include\xstring
; File C:\Program Files (x86)\Microsoft Visual Studio\2019\Community\VC\Tools\MSVC\14.28.29333\include\xmemory
; File C:\Program Files (x86)\Microsoft Visual Studio\2019\Community\VC\Tools\MSVC\14.28.29333\include\xstring
; File C:\Program Files (x86)\Microsoft Visual Studio\2019\Community\VC\Tools\MSVC\14.28.29333\include\xstddef
; File C:\Program Files (x86)\Microsoft Visual Studio\2019\Community\VC\Tools\MSVC\14.28.29333\include\xstring
;	COMDAT ?_Construct_lv_contents@?$basic_string@DU?$char_traits@D@std@@V?$allocator@D@2@@std@@AAEXABV12@@Z
_TEXT	SEGMENT
__Al$ = -72						; size = 4
$T1 = -68						; size = 4
__Ptr$ = -64						; size = 4
$T2 = -60						; size = 4
$T3 = -56						; size = 4
$T4 = -52						; size = 4
__First1$ = -48						; size = 4
__New_capacity$ = -44					; size = 4
__Right_ptr$ = -40					; size = 4
__New_array$ = -36					; size = 4
tv138 = -32						; size = 4
$T5 = -28						; size = 4
$T6 = -24						; size = 4
__Right_data$ = -20					; size = 4
_this$ = -16						; size = 4
__Right_size$ = -12					; size = 4
__My_data$ = -8						; size = 4
__Overflow_is_possible$7 = -1				; size = 1
__Right$ = 8						; size = 4
?_Construct_lv_contents@?$basic_string@DU?$char_traits@D@std@@V?$allocator@D@2@@std@@AAEXABV12@@Z PROC ; std::basic_string<char,std::char_traits<char>,std::allocator<char> >::_Construct_lv_contents, COMDAT
; _this$ = ecx

; 2728 :     void _Construct_lv_contents(const basic_string& _Right) {

  00000	55		 push	 ebp
  00001	8b ec		 mov	 ebp, esp
  00003	83 ec 48	 sub	 esp, 72			; 00000048H
  00006	89 4d f0	 mov	 DWORD PTR _this$[ebp], ecx

; 2729 :         // assign by copying data stored in _Right
; 2730 :         // pre: this != &_Right
; 2731 :         // pre: *this owns no memory, iterators orphaned (note:
; 2732 :         // _Buf/_Ptr/_Mysize/_Myres may be garbage init)
; 2733 :         auto& _Right_data             = _Right._Mypair._Myval2;

  00009	8b 45 08	 mov	 eax, DWORD PTR __Right$[ebp]
  0000c	89 45 ec	 mov	 DWORD PTR __Right_data$[ebp], eax

; 2734 :         const size_type _Right_size   = _Right_data._Mysize;

  0000f	8b 45 ec	 mov	 eax, DWORD PTR __Right_data$[ebp]
  00012	8b 40 10	 mov	 eax, DWORD PTR [eax+16]
  00015	89 45 f4	 mov	 DWORD PTR __Right_size$[ebp], eax

; 2735 :         const _Elem* const _Right_ptr = _Right_data._Myptr();

  00018	8b 4d ec	 mov	 ecx, DWORD PTR __Right_data$[ebp]
  0001b	e8 00 00 00 00	 call	 ?_Myptr@?$_String_val@U?$_Simple_types@D@std@@@std@@QBEPBDXZ ; std::_String_val<std::_Simple_types<char> >::_Myptr
  00020	89 45 d8	 mov	 DWORD PTR __Right_ptr$[ebp], eax

; 2736 :         auto& _My_data                = _Mypair._Myval2;

  00023	8b 45 f0	 mov	 eax, DWORD PTR _this$[ebp]
  00026	89 45 f8	 mov	 DWORD PTR __My_data$[ebp], eax

; 2737 :         if (_Right_size < _BUF_SIZE) { // stay small, don't allocate

  00029	83 7d f4 10	 cmp	 DWORD PTR __Right_size$[ebp], 16 ; 00000010H
  0002d	73 2e		 jae	 SHORT $LN2@Construct_

; 2738 :             _Traits::copy(_My_data._Bx._Buf, _Right_ptr, _BUF_SIZE);

  0002f	8b 45 f8	 mov	 eax, DWORD PTR __My_data$[ebp]
  00032	89 45 d0	 mov	 DWORD PTR __First1$[ebp], eax

; 62   :         _CSTD memcpy(_First1, _First2, _Count * sizeof(_Elem));

  00035	6a 10		 push	 16			; 00000010H
  00037	ff 75 d8	 push	 DWORD PTR __Right_ptr$[ebp]
  0003a	ff 75 d0	 push	 DWORD PTR __First1$[ebp]
  0003d	e8 00 00 00 00	 call	 _memcpy
  00042	83 c4 0c	 add	 esp, 12			; 0000000cH

; 2739 :             _My_data._Mysize = _Right_size;

  00045	8b 45 f8	 mov	 eax, DWORD PTR __My_data$[ebp]
  00048	8b 4d f4	 mov	 ecx, DWORD PTR __Right_size$[ebp]
  0004b	89 48 10	 mov	 DWORD PTR [eax+16], ecx

; 2740 :             _My_data._Myres  = _BUF_SIZE - 1;

  0004e	8b 45 f8	 mov	 eax, DWORD PTR __My_data$[ebp]
  00051	c7 40 14 0f 00
	00 00		 mov	 DWORD PTR [eax+20], 15	; 0000000fH

; 2741 :             return;

  00058	e9 9b 00 00 00	 jmp	 $LN1@Construct_
$LN2@Construct_:

; 4409 :         return _Mypair._Get_first();

  0005d	8b 45 f0	 mov	 eax, DWORD PTR _this$[ebp]
; File C:\Program Files (x86)\Microsoft Visual Studio\2019\Community\VC\Tools\MSVC\14.28.29333\include\xmemory

; 1347 :         return *this;

  00060	89 45 cc	 mov	 DWORD PTR $T4[ebp], eax
; File C:\Program Files (x86)\Microsoft Visual Studio\2019\Community\VC\Tools\MSVC\14.28.29333\include\xstring

; 4409 :         return _Mypair._Get_first();

  00063	8b 45 cc	 mov	 eax, DWORD PTR $T4[ebp]
  00066	89 45 b8	 mov	 DWORD PTR __Al$[ebp], eax

; 2745 :         const size_type _New_capacity = (_STD min)(_Right_size | _ALLOC_MASK, max_size());

  00069	8b 4d f0	 mov	 ecx, DWORD PTR _this$[ebp]
  0006c	e8 00 00 00 00	 call	 ?max_size@?$basic_string@DU?$char_traits@D@std@@V?$allocator@D@2@@std@@QBEIXZ ; std::basic_string<char,std::char_traits<char>,std::allocator<char> >::max_size
  00071	89 45 e8	 mov	 DWORD PTR $T6[ebp], eax
  00074	8b 45 f4	 mov	 eax, DWORD PTR __Right_size$[ebp]
  00077	83 c8 0f	 or	 eax, 15			; 0000000fH
  0007a	89 45 e4	 mov	 DWORD PTR $T5[ebp], eax
; File C:\Program Files (x86)\Microsoft Visual Studio\2019\Community\VC\Tools\MSVC\14.28.29333\include\utility

; 68   :     return _Right < _Left ? _Right : _Left;

  0007d	8b 45 e8	 mov	 eax, DWORD PTR $T6[ebp]
  00080	3b 45 e4	 cmp	 eax, DWORD PTR $T5[ebp]
  00083	73 08		 jae	 SHORT $LN52@Construct_
  00085	8d 45 e8	 lea	 eax, DWORD PTR $T6[ebp]
  00088	89 45 e0	 mov	 DWORD PTR tv138[ebp], eax
  0008b	eb 06		 jmp	 SHORT $LN53@Construct_
$LN52@Construct_:
  0008d	8d 45 e4	 lea	 eax, DWORD PTR $T5[ebp]
  00090	89 45 e0	 mov	 DWORD PTR tv138[ebp], eax
$LN53@Construct_:
  00093	8b 45 e0	 mov	 eax, DWORD PTR tv138[ebp]
  00096	89 45 c8	 mov	 DWORD PTR $T3[ebp], eax
  00099	8b 45 c8	 mov	 eax, DWORD PTR $T3[ebp]
  0009c	89 45 c4	 mov	 DWORD PTR $T2[ebp], eax
; File C:\Program Files (x86)\Microsoft Visual Studio\2019\Community\VC\Tools\MSVC\14.28.29333\include\xstring

; 2745 :         const size_type _New_capacity = (_STD min)(_Right_size | _ALLOC_MASK, max_size());

  0009f	8b 45 c4	 mov	 eax, DWORD PTR $T2[ebp]
  000a2	8b 00		 mov	 eax, DWORD PTR [eax]
  000a4	89 45 d4	 mov	 DWORD PTR __New_capacity$[ebp], eax
; File C:\Program Files (x86)\Microsoft Visual Studio\2019\Community\VC\Tools\MSVC\14.28.29333\include\xmemory

; 56   :     constexpr bool _Overflow_is_possible = _Ty_size > 1;

  000a7	c6 45 ff 00	 mov	 BYTE PTR __Overflow_is_possible$7[ebp], 0
; File C:\Program Files (x86)\Microsoft Visual Studio\2019\Community\VC\Tools\MSVC\14.28.29333\include\xstring

; 2746 :         const pointer _New_array      = _Al.allocate(_New_capacity + 1); // throws

  000ab	8b 45 d4	 mov	 eax, DWORD PTR __New_capacity$[ebp]
  000ae	40		 inc	 eax
; File C:\Program Files (x86)\Microsoft Visual Studio\2019\Community\VC\Tools\MSVC\14.28.29333\include\xmemory

; 814  :         return static_cast<_Ty*>(_Allocate<_New_alignof<_Ty>>(_Get_size_of_n<sizeof(_Ty)>(_Count)));

  000af	50		 push	 eax
  000b0	e8 00 00 00 00	 call	 ??$_Allocate@$07U_Default_allocate_traits@std@@$0A@@std@@YAPAXI@Z ; std::_Allocate<8,std::_Default_allocate_traits,0>
  000b5	59		 pop	 ecx
; File C:\Program Files (x86)\Microsoft Visual Studio\2019\Community\VC\Tools\MSVC\14.28.29333\include\xstring

; 2746 :         const pointer _New_array      = _Al.allocate(_New_capacity + 1); // throws

  000b6	89 45 dc	 mov	 DWORD PTR __New_array$[ebp], eax

; 2747 :         _Construct_in_place(_My_data._Bx._Ptr, _New_array);

  000b9	8d 45 dc	 lea	 eax, DWORD PTR __New_array$[ebp]
  000bc	50		 push	 eax
  000bd	ff 75 f8	 push	 DWORD PTR __My_data$[ebp]
  000c0	e8 00 00 00 00	 call	 ??$_Construct_in_place@PADABQAD@std@@YAXAAPADABQAD@Z ; std::_Construct_in_place<char *,char * const &>
  000c5	59		 pop	 ecx
  000c6	59		 pop	 ecx

; 2748 :         _Traits::copy(_Unfancy(_New_array), _Right_ptr, _Right_size + 1);

  000c7	8b 45 dc	 mov	 eax, DWORD PTR __New_array$[ebp]
  000ca	89 45 c0	 mov	 DWORD PTR __Ptr$[ebp], eax
; File C:\Program Files (x86)\Microsoft Visual Studio\2019\Community\VC\Tools\MSVC\14.28.29333\include\xstddef

; 289  :     return _Ptr;

  000cd	8b 45 c0	 mov	 eax, DWORD PTR __Ptr$[ebp]
  000d0	89 45 bc	 mov	 DWORD PTR $T1[ebp], eax
; File C:\Program Files (x86)\Microsoft Visual Studio\2019\Community\VC\Tools\MSVC\14.28.29333\include\xstring

; 2748 :         _Traits::copy(_Unfancy(_New_array), _Right_ptr, _Right_size + 1);

  000d3	8b 45 f4	 mov	 eax, DWORD PTR __Right_size$[ebp]
  000d6	40		 inc	 eax

; 62   :         _CSTD memcpy(_First1, _First2, _Count * sizeof(_Elem));

  000d7	50		 push	 eax
  000d8	ff 75 d8	 push	 DWORD PTR __Right_ptr$[ebp]
  000db	ff 75 bc	 push	 DWORD PTR $T1[ebp]
  000de	e8 00 00 00 00	 call	 _memcpy
  000e3	83 c4 0c	 add	 esp, 12			; 0000000cH

; 2749 :         _My_data._Mysize = _Right_size;

  000e6	8b 45 f8	 mov	 eax, DWORD PTR __My_data$[ebp]
  000e9	8b 4d f4	 mov	 ecx, DWORD PTR __Right_size$[ebp]
  000ec	89 48 10	 mov	 DWORD PTR [eax+16], ecx

; 2750 :         _My_data._Myres  = _New_capacity;

  000ef	8b 45 f8	 mov	 eax, DWORD PTR __My_data$[ebp]
  000f2	8b 4d d4	 mov	 ecx, DWORD PTR __New_capacity$[ebp]
  000f5	89 48 14	 mov	 DWORD PTR [eax+20], ecx
$LN1@Construct_:

; 2751 :     }

  000f8	c9		 leave
  000f9	c2 04 00	 ret	 4
?_Construct_lv_contents@?$basic_string@DU?$char_traits@D@std@@V?$allocator@D@2@@std@@AAEXABV12@@Z ENDP ; std::basic_string<char,std::char_traits<char>,std::allocator<char> >::_Construct_lv_contents
_TEXT	ENDS
; Function compile flags: /Odspy
; File C:\Program Files (x86)\Microsoft Visual Studio\2019\Community\VC\Tools\MSVC\14.28.29333\include\xstring
; File C:\Program Files (x86)\Microsoft Visual Studio\2019\Community\VC\Tools\MSVC\14.28.29333\include\xmemory
; File C:\Program Files (x86)\Microsoft Visual Studio\2019\Community\VC\Tools\MSVC\14.28.29333\include\xstring
; File C:\Program Files (x86)\Microsoft Visual Studio\2019\Community\VC\Tools\MSVC\14.28.29333\include\xmemory
; File C:\Program Files (x86)\Microsoft Visual Studio\2019\Community\VC\Tools\MSVC\14.28.29333\include\xstring
;	COMDAT ??0?$basic_string@DU?$char_traits@D@std@@V?$allocator@D@2@@std@@QAE@QBD@Z
_TEXT	SEGMENT
__Alproxy$ = -40					; size = 4
$T2 = -36						; size = 4
$T3 = -32						; size = 4
_this$ = -28						; size = 4
_this$ = -24						; size = 4
_this$ = -20						; size = 4
_$S6$ = -13						; size = 1
__$EHRec$ = -12						; size = 12
__Ptr$ = 8						; size = 4
??0?$basic_string@DU?$char_traits@D@std@@V?$allocator@D@2@@std@@QAE@QBD@Z PROC ; std::basic_string<char,std::char_traits<char>,std::allocator<char> >::basic_string<char,std::char_traits<char>,std::allocator<char> >, COMDAT
; _this$ = ecx

; 2413 :     basic_string(_In_z_ const _Elem* const _Ptr) : _Mypair(_Zero_then_variadic_args_t{}) {

  00000	55		 push	 ebp
  00001	8b ec		 mov	 ebp, esp
  00003	6a ff		 push	 -1
  00005	68 00 00 00 00	 push	 __ehhandler$??0?$basic_string@DU?$char_traits@D@std@@V?$allocator@D@2@@std@@QAE@QBD@Z
  0000a	64 a1 00 00 00
	00		 mov	 eax, DWORD PTR fs:0
  00010	50		 push	 eax
  00011	83 ec 1c	 sub	 esp, 28			; 0000001cH
  00014	a1 00 00 00 00	 mov	 eax, DWORD PTR ___security_cookie
  00019	33 c5		 xor	 eax, ebp
  0001b	50		 push	 eax
  0001c	8d 45 f4	 lea	 eax, DWORD PTR __$EHRec$[ebp]
  0001f	64 a3 00 00 00
	00		 mov	 DWORD PTR fs:0, eax
  00025	89 4d ec	 mov	 DWORD PTR _this$[ebp], ecx
  00028	8b 45 ec	 mov	 eax, DWORD PTR _this$[ebp]
  0002b	89 45 e4	 mov	 DWORD PTR _this$[ebp], eax
; File C:\Program Files (x86)\Microsoft Visual Studio\2019\Community\VC\Tools\MSVC\14.28.29333\include\xmemory

; 1339 :         : _Ty1(), _Myval2(_STD forward<_Other2>(_Val2)...) {}

  0002e	8b 45 e4	 mov	 eax, DWORD PTR _this$[ebp]
  00031	89 45 e8	 mov	 DWORD PTR _this$[ebp], eax
; File C:\Program Files (x86)\Microsoft Visual Studio\2019\Community\VC\Tools\MSVC\14.28.29333\include\xstring

; 2198 :     _String_val() noexcept : _Bx(), _Mysize(0), _Myres(0) {}

  00034	8b 45 e8	 mov	 eax, DWORD PTR _this$[ebp]
  00037	83 60 10 00	 and	 DWORD PTR [eax+16], 0
  0003b	8b 45 e8	 mov	 eax, DWORD PTR _this$[ebp]
  0003e	83 60 14 00	 and	 DWORD PTR [eax+20], 0

; 2413 :     basic_string(_In_z_ const _Elem* const _Ptr) : _Mypair(_Zero_then_variadic_args_t{}) {

  00042	83 65 fc 00	 and	 DWORD PTR __$EHRec$[ebp+8], 0

; 2414 :         auto&& _Alproxy = _GET_PROXY_ALLOCATOR(_Alty, _Getal());

  00046	8d 45 f3	 lea	 eax, DWORD PTR _$S6$[ebp]
  00049	89 45 d8	 mov	 DWORD PTR __Alproxy$[ebp], eax

; 2415 :         _Container_proxy_ptr<_Alty> _Proxy(_Alproxy, _Mypair._Myval2);
; 2416 :         _Tidy_init();

  0004c	8b 4d ec	 mov	 ecx, DWORD PTR _this$[ebp]
  0004f	e8 00 00 00 00	 call	 ?_Tidy_init@?$basic_string@DU?$char_traits@D@std@@V?$allocator@D@2@@std@@AAEXXZ ; std::basic_string<char,std::char_traits<char>,std::allocator<char> >::_Tidy_init

; 389  :         return _CSTD strlen(reinterpret_cast<const char*>(_First));

  00054	ff 75 08	 push	 DWORD PTR __Ptr$[ebp]
  00057	e8 00 00 00 00	 call	 _strlen
  0005c	59		 pop	 ecx
  0005d	89 45 e0	 mov	 DWORD PTR $T3[ebp], eax
; File C:\Program Files (x86)\Microsoft Visual Studio\2019\Community\VC\Tools\MSVC\14.28.29333\include\xmemory

; 997  :     return _Len;

  00060	8b 45 e0	 mov	 eax, DWORD PTR $T3[ebp]
  00063	89 45 dc	 mov	 DWORD PTR $T2[ebp], eax
; File C:\Program Files (x86)\Microsoft Visual Studio\2019\Community\VC\Tools\MSVC\14.28.29333\include\xstring

; 3062 :         return assign(_Ptr, _Convert_size<size_type>(_Traits::length(_Ptr)));

  00066	ff 75 dc	 push	 DWORD PTR $T2[ebp]
  00069	ff 75 08	 push	 DWORD PTR __Ptr$[ebp]
  0006c	8b 4d ec	 mov	 ecx, DWORD PTR _this$[ebp]
  0006f	e8 00 00 00 00	 call	 ?assign@?$basic_string@DU?$char_traits@D@std@@V?$allocator@D@2@@std@@QAEAAV12@QBDI@Z ; std::basic_string<char,std::char_traits<char>,std::allocator<char> >::assign

; 2417 :         assign(_Ptr);
; 2418 :         _Proxy._Release();
; 2419 :     }

  00074	83 4d fc ff	 or	 DWORD PTR __$EHRec$[ebp+8], -1
  00078	8b 45 ec	 mov	 eax, DWORD PTR _this$[ebp]
  0007b	8b 4d f4	 mov	 ecx, DWORD PTR __$EHRec$[ebp]
  0007e	64 89 0d 00 00
	00 00		 mov	 DWORD PTR fs:0, ecx
  00085	59		 pop	 ecx
  00086	c9		 leave
  00087	c2 04 00	 ret	 4
_TEXT	ENDS
;	COMDAT text$x
text$x	SEGMENT
__unwindfunclet$??0?$basic_string@DU?$char_traits@D@std@@V?$allocator@D@2@@std@@QAE@QBD@Z$0:
  00000	8b 4d ec	 mov	 ecx, DWORD PTR _this$[ebp]
  00003	e9 00 00 00 00	 jmp	 ??1?$_Compressed_pair@V?$allocator@D@std@@V?$_String_val@U?$_Simple_types@D@std@@@2@$00@std@@QAE@XZ
  00008	cc		 int	 3
  00009	cc		 int	 3
  0000a	cc		 int	 3
  0000b	cc		 int	 3
  0000c	cc		 int	 3
__ehhandler$??0?$basic_string@DU?$char_traits@D@std@@V?$allocator@D@2@@std@@QAE@QBD@Z:
  0000d	90		 npad	 1
  0000e	90		 npad	 1
  0000f	8b 54 24 08	 mov	 edx, DWORD PTR [esp+8]
  00013	8d 42 0c	 lea	 eax, DWORD PTR [edx+12]
  00016	8b 4a e0	 mov	 ecx, DWORD PTR [edx-32]
  00019	33 c8		 xor	 ecx, eax
  0001b	e8 00 00 00 00	 call	 @__security_check_cookie@4
  00020	b8 00 00 00 00	 mov	 eax, OFFSET __ehfuncinfo$??0?$basic_string@DU?$char_traits@D@std@@V?$allocator@D@2@@std@@QAE@QBD@Z
  00025	e9 00 00 00 00	 jmp	 ___CxxFrameHandler3
text$x	ENDS
??0?$basic_string@DU?$char_traits@D@std@@V?$allocator@D@2@@std@@QAE@QBD@Z ENDP ; std::basic_string<char,std::char_traits<char>,std::allocator<char> >::basic_string<char,std::char_traits<char>,std::allocator<char> >
; Function compile flags: /Odspy
; File C:\Program Files (x86)\Microsoft Visual Studio\2019\Community\VC\Tools\MSVC\14.28.29333\include\xstring
; File C:\Program Files (x86)\Microsoft Visual Studio\2019\Community\VC\Tools\MSVC\14.28.29333\include\xmemory
; File C:\Program Files (x86)\Microsoft Visual Studio\2019\Community\VC\Tools\MSVC\14.28.29333\include\xstring
;	COMDAT ??0?$basic_string@DU?$char_traits@D@std@@V?$allocator@D@2@@std@@QAE@XZ
_TEXT	SEGMENT
_this$ = -12						; size = 4
_this$ = -8						; size = 4
_this$ = -4						; size = 4
??0?$basic_string@DU?$char_traits@D@std@@V?$allocator@D@2@@std@@QAE@XZ PROC ; std::basic_string<char,std::char_traits<char>,std::allocator<char> >::basic_string<char,std::char_traits<char>,std::allocator<char> >, COMDAT
; _this$ = ecx

; 2365 :     basic_string() noexcept(is_nothrow_default_constructible_v<_Alty>) : _Mypair(_Zero_then_variadic_args_t{}) {

  00000	55		 push	 ebp
  00001	8b ec		 mov	 ebp, esp
  00003	83 ec 0c	 sub	 esp, 12			; 0000000cH
  00006	89 4d fc	 mov	 DWORD PTR _this$[ebp], ecx
  00009	8b 45 fc	 mov	 eax, DWORD PTR _this$[ebp]
  0000c	89 45 f4	 mov	 DWORD PTR _this$[ebp], eax
; File C:\Program Files (x86)\Microsoft Visual Studio\2019\Community\VC\Tools\MSVC\14.28.29333\include\xmemory

; 1339 :         : _Ty1(), _Myval2(_STD forward<_Other2>(_Val2)...) {}

  0000f	8b 45 f4	 mov	 eax, DWORD PTR _this$[ebp]
  00012	89 45 f8	 mov	 DWORD PTR _this$[ebp], eax
; File C:\Program Files (x86)\Microsoft Visual Studio\2019\Community\VC\Tools\MSVC\14.28.29333\include\xstring

; 2198 :     _String_val() noexcept : _Bx(), _Mysize(0), _Myres(0) {}

  00015	8b 45 f8	 mov	 eax, DWORD PTR _this$[ebp]
  00018	83 60 10 00	 and	 DWORD PTR [eax+16], 0
  0001c	8b 45 f8	 mov	 eax, DWORD PTR _this$[ebp]
  0001f	83 60 14 00	 and	 DWORD PTR [eax+20], 0

; 2366 :         _Mypair._Myval2._Alloc_proxy(_GET_PROXY_ALLOCATOR(_Alty, _Getal()));
; 2367 :         _Tidy_init();

  00023	8b 4d fc	 mov	 ecx, DWORD PTR _this$[ebp]
  00026	e8 00 00 00 00	 call	 ?_Tidy_init@?$basic_string@DU?$char_traits@D@std@@V?$allocator@D@2@@std@@AAEXXZ ; std::basic_string<char,std::char_traits<char>,std::allocator<char> >::_Tidy_init

; 2368 :     }

  0002b	8b 45 fc	 mov	 eax, DWORD PTR _this$[ebp]
  0002e	c9		 leave
  0002f	c3		 ret	 0
??0?$basic_string@DU?$char_traits@D@std@@V?$allocator@D@2@@std@@QAE@XZ ENDP ; std::basic_string<char,std::char_traits<char>,std::allocator<char> >::basic_string<char,std::char_traits<char>,std::allocator<char> >
_TEXT	ENDS
; Function compile flags: /Odspy
; File C:\Program Files (x86)\Microsoft Visual Studio\2019\Community\VC\Tools\MSVC\14.28.29333\include\xstring
; File C:\Program Files (x86)\Microsoft Visual Studio\2019\Community\VC\Tools\MSVC\14.28.29333\include\xmemory
; File C:\Program Files (x86)\Microsoft Visual Studio\2019\Community\VC\Tools\MSVC\14.28.29333\include\xstring
; File C:\Program Files (x86)\Microsoft Visual Studio\2019\Community\VC\Tools\MSVC\14.28.29333\include\xmemory
; File C:\Program Files (x86)\Microsoft Visual Studio\2019\Community\VC\Tools\MSVC\14.28.29333\include\xstring
;	COMDAT ??0?$basic_string@DU?$char_traits@D@std@@V?$allocator@D@2@@std@@QAE@ABV01@@Z
_TEXT	SEGMENT
__Alproxy$ = -40					; size = 4
$T2 = -36						; size = 4
_this$ = -32						; size = 4
$T3 = -28						; size = 4
_this$ = -24						; size = 4
_this$ = -20						; size = 4
_$S11$ = -13						; size = 1
__$EHRec$ = -12						; size = 12
__Right$ = 8						; size = 4
??0?$basic_string@DU?$char_traits@D@std@@V?$allocator@D@2@@std@@QAE@ABV01@@Z PROC ; std::basic_string<char,std::char_traits<char>,std::allocator<char> >::basic_string<char,std::char_traits<char>,std::allocator<char> >, COMDAT
; _this$ = ecx

; 2351 :         : _Mypair(_One_then_variadic_args_t{}, _Alty_traits::select_on_container_copy_construction(_Right._Getal())) {

  00000	55		 push	 ebp
  00001	8b ec		 mov	 ebp, esp
  00003	6a ff		 push	 -1
  00005	68 00 00 00 00	 push	 __ehhandler$??0?$basic_string@DU?$char_traits@D@std@@V?$allocator@D@2@@std@@QAE@ABV01@@Z
  0000a	64 a1 00 00 00
	00		 mov	 eax, DWORD PTR fs:0
  00010	50		 push	 eax
  00011	83 ec 1c	 sub	 esp, 28			; 0000001cH
  00014	a1 00 00 00 00	 mov	 eax, DWORD PTR ___security_cookie
  00019	33 c5		 xor	 eax, ebp
  0001b	50		 push	 eax
  0001c	8d 45 f4	 lea	 eax, DWORD PTR __$EHRec$[ebp]
  0001f	64 a3 00 00 00
	00		 mov	 DWORD PTR fs:0, eax
  00025	89 4d ec	 mov	 DWORD PTR _this$[ebp], ecx

; 4413 :         return _Mypair._Get_first();

  00028	8b 45 08	 mov	 eax, DWORD PTR __Right$[ebp]
; File C:\Program Files (x86)\Microsoft Visual Studio\2019\Community\VC\Tools\MSVC\14.28.29333\include\xmemory

; 1351 :         return *this;

  0002b	89 45 e4	 mov	 DWORD PTR $T3[ebp], eax
; File C:\Program Files (x86)\Microsoft Visual Studio\2019\Community\VC\Tools\MSVC\14.28.29333\include\xstring

; 4413 :         return _Mypair._Get_first();

  0002e	8b 45 e4	 mov	 eax, DWORD PTR $T3[ebp]
  00031	89 45 dc	 mov	 DWORD PTR $T2[ebp], eax

; 2351 :         : _Mypair(_One_then_variadic_args_t{}, _Alty_traits::select_on_container_copy_construction(_Right._Getal())) {

  00034	8b 45 ec	 mov	 eax, DWORD PTR _this$[ebp]
  00037	89 45 e0	 mov	 DWORD PTR _this$[ebp], eax
; File C:\Program Files (x86)\Microsoft Visual Studio\2019\Community\VC\Tools\MSVC\14.28.29333\include\xmemory

; 1344 :         : _Ty1(_STD forward<_Other1>(_Val1)), _Myval2(_STD forward<_Other2>(_Val2)...) {}

  0003a	8b 45 e0	 mov	 eax, DWORD PTR _this$[ebp]
  0003d	89 45 e8	 mov	 DWORD PTR _this$[ebp], eax
; File C:\Program Files (x86)\Microsoft Visual Studio\2019\Community\VC\Tools\MSVC\14.28.29333\include\xstring

; 2198 :     _String_val() noexcept : _Bx(), _Mysize(0), _Myres(0) {}

  00040	8b 45 e8	 mov	 eax, DWORD PTR _this$[ebp]
  00043	83 60 10 00	 and	 DWORD PTR [eax+16], 0
  00047	8b 45 e8	 mov	 eax, DWORD PTR _this$[ebp]
  0004a	83 60 14 00	 and	 DWORD PTR [eax+20], 0

; 2351 :         : _Mypair(_One_then_variadic_args_t{}, _Alty_traits::select_on_container_copy_construction(_Right._Getal())) {

  0004e	83 65 fc 00	 and	 DWORD PTR __$EHRec$[ebp+8], 0

; 2352 :         auto&& _Alproxy = _GET_PROXY_ALLOCATOR(_Alty, _Getal());

  00052	8d 45 f3	 lea	 eax, DWORD PTR _$S11$[ebp]
  00055	89 45 d8	 mov	 DWORD PTR __Alproxy$[ebp], eax

; 2353 :         _Container_proxy_ptr<_Alty> _Proxy(_Alproxy, _Mypair._Myval2);
; 2354 :         _Construct_lv_contents(_Right);

  00058	ff 75 08	 push	 DWORD PTR __Right$[ebp]
  0005b	8b 4d ec	 mov	 ecx, DWORD PTR _this$[ebp]
  0005e	e8 00 00 00 00	 call	 ?_Construct_lv_contents@?$basic_string@DU?$char_traits@D@std@@V?$allocator@D@2@@std@@AAEXABV12@@Z ; std::basic_string<char,std::char_traits<char>,std::allocator<char> >::_Construct_lv_contents

; 2355 :         _Proxy._Release();
; 2356 :     }

  00063	83 4d fc ff	 or	 DWORD PTR __$EHRec$[ebp+8], -1
  00067	8b 45 ec	 mov	 eax, DWORD PTR _this$[ebp]
  0006a	8b 4d f4	 mov	 ecx, DWORD PTR __$EHRec$[ebp]
  0006d	64 89 0d 00 00
	00 00		 mov	 DWORD PTR fs:0, ecx
  00074	59		 pop	 ecx
  00075	c9		 leave
  00076	c2 04 00	 ret	 4
_TEXT	ENDS
;	COMDAT text$x
text$x	SEGMENT
__unwindfunclet$??0?$basic_string@DU?$char_traits@D@std@@V?$allocator@D@2@@std@@QAE@ABV01@@Z$0:
  00000	8b 4d ec	 mov	 ecx, DWORD PTR _this$[ebp]
  00003	e9 00 00 00 00	 jmp	 ??1?$_Compressed_pair@V?$allocator@D@std@@V?$_String_val@U?$_Simple_types@D@std@@@2@$00@std@@QAE@XZ
  00008	cc		 int	 3
  00009	cc		 int	 3
  0000a	cc		 int	 3
  0000b	cc		 int	 3
  0000c	cc		 int	 3
__ehhandler$??0?$basic_string@DU?$char_traits@D@std@@V?$allocator@D@2@@std@@QAE@ABV01@@Z:
  0000d	90		 npad	 1
  0000e	90		 npad	 1
  0000f	8b 54 24 08	 mov	 edx, DWORD PTR [esp+8]
  00013	8d 42 0c	 lea	 eax, DWORD PTR [edx+12]
  00016	8b 4a e0	 mov	 ecx, DWORD PTR [edx-32]
  00019	33 c8		 xor	 ecx, eax
  0001b	e8 00 00 00 00	 call	 @__security_check_cookie@4
  00020	b8 00 00 00 00	 mov	 eax, OFFSET __ehfuncinfo$??0?$basic_string@DU?$char_traits@D@std@@V?$allocator@D@2@@std@@QAE@ABV01@@Z
  00025	e9 00 00 00 00	 jmp	 ___CxxFrameHandler3
text$x	ENDS
??0?$basic_string@DU?$char_traits@D@std@@V?$allocator@D@2@@std@@QAE@ABV01@@Z ENDP ; std::basic_string<char,std::char_traits<char>,std::allocator<char> >::basic_string<char,std::char_traits<char>,std::allocator<char> >
; Function compile flags: /Odspy
; File C:\Program Files (x86)\Microsoft Visual Studio\2019\Community\VC\Tools\MSVC\14.28.29333\include\xstring
; File C:\Program Files (x86)\Microsoft Visual Studio\2019\Community\VC\Tools\MSVC\14.28.29333\include\xstddef
; File C:\Program Files (x86)\Microsoft Visual Studio\2019\Community\VC\Tools\MSVC\14.28.29333\include\xstring
;	COMDAT ?_Myptr@?$_String_val@U?$_Simple_types@D@std@@@std@@QBEPBDXZ
_TEXT	SEGMENT
__Ptr$ = -20						; size = 4
__Result$ = -16						; size = 4
tv76 = -12						; size = 4
_this$ = -8						; size = 4
$T1 = -1						; size = 1
?_Myptr@?$_String_val@U?$_Simple_types@D@std@@@std@@QBEPBDXZ PROC ; std::_String_val<std::_Simple_types<char> >::_Myptr, COMDAT
; _this$ = ecx

; 2217 :     const value_type* _Myptr() const noexcept {

  00000	55		 push	 ebp
  00001	8b ec		 mov	 ebp, esp
  00003	83 ec 14	 sub	 esp, 20			; 00000014H
  00006	89 4d f8	 mov	 DWORD PTR _this$[ebp], ecx

; 2218 :         const value_type* _Result = _Bx._Buf;

  00009	8b 45 f8	 mov	 eax, DWORD PTR _this$[ebp]
  0000c	89 45 f0	 mov	 DWORD PTR __Result$[ebp], eax

; 2227 :         return _BUF_SIZE <= _Myres;

  0000f	8b 45 f8	 mov	 eax, DWORD PTR _this$[ebp]
  00012	83 78 14 10	 cmp	 DWORD PTR [eax+20], 16	; 00000010H
  00016	72 09		 jb	 SHORT $LN6@Myptr
  00018	c7 45 f4 01 00
	00 00		 mov	 DWORD PTR tv76[ebp], 1
  0001f	eb 04		 jmp	 SHORT $LN7@Myptr
$LN6@Myptr:
  00021	83 65 f4 00	 and	 DWORD PTR tv76[ebp], 0
$LN7@Myptr:
  00025	8a 45 f4	 mov	 al, BYTE PTR tv76[ebp]
  00028	88 45 ff	 mov	 BYTE PTR $T1[ebp], al

; 2219 :         if (_Large_string_engaged()) {

  0002b	0f b6 45 ff	 movzx	 eax, BYTE PTR $T1[ebp]
  0002f	85 c0		 test	 eax, eax
  00031	74 0e		 je	 SHORT $LN2@Myptr

; 2220 :             _Result = _Unfancy(_Bx._Ptr);

  00033	8b 45 f8	 mov	 eax, DWORD PTR _this$[ebp]
  00036	8b 00		 mov	 eax, DWORD PTR [eax]
  00038	89 45 ec	 mov	 DWORD PTR __Ptr$[ebp], eax
; File C:\Program Files (x86)\Microsoft Visual Studio\2019\Community\VC\Tools\MSVC\14.28.29333\include\xstddef

; 289  :     return _Ptr;

  0003b	8b 45 ec	 mov	 eax, DWORD PTR __Ptr$[ebp]
  0003e	89 45 f0	 mov	 DWORD PTR __Result$[ebp], eax
$LN2@Myptr:
; File C:\Program Files (x86)\Microsoft Visual Studio\2019\Community\VC\Tools\MSVC\14.28.29333\include\xstring

; 2223 :         return _Result;

  00041	8b 45 f0	 mov	 eax, DWORD PTR __Result$[ebp]

; 2224 :     }

  00044	c9		 leave
  00045	c3		 ret	 0
?_Myptr@?$_String_val@U?$_Simple_types@D@std@@@std@@QBEPBDXZ ENDP ; std::_String_val<std::_Simple_types<char> >::_Myptr
_TEXT	ENDS
; Function compile flags: /Odspy
; File C:\Program Files (x86)\Microsoft Visual Studio\2019\Community\VC\Tools\MSVC\14.28.29333\include\xstring
; File C:\Program Files (x86)\Microsoft Visual Studio\2019\Community\VC\Tools\MSVC\14.28.29333\include\xstddef
; File C:\Program Files (x86)\Microsoft Visual Studio\2019\Community\VC\Tools\MSVC\14.28.29333\include\xstring
;	COMDAT ?_Myptr@?$_String_val@U?$_Simple_types@D@std@@@std@@QAEPADXZ
_TEXT	SEGMENT
__Ptr$ = -20						; size = 4
__Result$ = -16						; size = 4
tv76 = -12						; size = 4
_this$ = -8						; size = 4
$T1 = -1						; size = 1
?_Myptr@?$_String_val@U?$_Simple_types@D@std@@@std@@QAEPADXZ PROC ; std::_String_val<std::_Simple_types<char> >::_Myptr, COMDAT
; _this$ = ecx

; 2208 :     value_type* _Myptr() noexcept {

  00000	55		 push	 ebp
  00001	8b ec		 mov	 ebp, esp
  00003	83 ec 14	 sub	 esp, 20			; 00000014H
  00006	89 4d f8	 mov	 DWORD PTR _this$[ebp], ecx

; 2209 :         value_type* _Result = _Bx._Buf;

  00009	8b 45 f8	 mov	 eax, DWORD PTR _this$[ebp]
  0000c	89 45 f0	 mov	 DWORD PTR __Result$[ebp], eax

; 2227 :         return _BUF_SIZE <= _Myres;

  0000f	8b 45 f8	 mov	 eax, DWORD PTR _this$[ebp]
  00012	83 78 14 10	 cmp	 DWORD PTR [eax+20], 16	; 00000010H
  00016	72 09		 jb	 SHORT $LN6@Myptr
  00018	c7 45 f4 01 00
	00 00		 mov	 DWORD PTR tv76[ebp], 1
  0001f	eb 04		 jmp	 SHORT $LN7@Myptr
$LN6@Myptr:
  00021	83 65 f4 00	 and	 DWORD PTR tv76[ebp], 0
$LN7@Myptr:
  00025	8a 45 f4	 mov	 al, BYTE PTR tv76[ebp]
  00028	88 45 ff	 mov	 BYTE PTR $T1[ebp], al

; 2210 :         if (_Large_string_engaged()) {

  0002b	0f b6 45 ff	 movzx	 eax, BYTE PTR $T1[ebp]
  0002f	85 c0		 test	 eax, eax
  00031	74 0e		 je	 SHORT $LN2@Myptr

; 2211 :             _Result = _Unfancy(_Bx._Ptr);

  00033	8b 45 f8	 mov	 eax, DWORD PTR _this$[ebp]
  00036	8b 00		 mov	 eax, DWORD PTR [eax]
  00038	89 45 ec	 mov	 DWORD PTR __Ptr$[ebp], eax
; File C:\Program Files (x86)\Microsoft Visual Studio\2019\Community\VC\Tools\MSVC\14.28.29333\include\xstddef

; 289  :     return _Ptr;

  0003b	8b 45 ec	 mov	 eax, DWORD PTR __Ptr$[ebp]
  0003e	89 45 f0	 mov	 DWORD PTR __Result$[ebp], eax
$LN2@Myptr:
; File C:\Program Files (x86)\Microsoft Visual Studio\2019\Community\VC\Tools\MSVC\14.28.29333\include\xstring

; 2214 :         return _Result;

  00041	8b 45 f0	 mov	 eax, DWORD PTR __Result$[ebp]

; 2215 :     }

  00044	c9		 leave
  00045	c3		 ret	 0
?_Myptr@?$_String_val@U?$_Simple_types@D@std@@@std@@QAEPADXZ ENDP ; std::_String_val<std::_Simple_types<char> >::_Myptr
_TEXT	ENDS
; Function compile flags: /Odspy
; File C:\Program Files (x86)\Microsoft Visual Studio\2019\Community\VC\Tools\MSVC\14.28.29333\include\xstring
;	COMDAT ??0?$_String_val@U?$_Simple_types@D@std@@@std@@QAE@XZ
_TEXT	SEGMENT
_this$ = -4						; size = 4
??0?$_String_val@U?$_Simple_types@D@std@@@std@@QAE@XZ PROC ; std::_String_val<std::_Simple_types<char> >::_String_val<std::_Simple_types<char> >, COMDAT
; _this$ = ecx

; 2198 :     _String_val() noexcept : _Bx(), _Mysize(0), _Myres(0) {}

  00000	55		 push	 ebp
  00001	8b ec		 mov	 ebp, esp
  00003	51		 push	 ecx
  00004	89 4d fc	 mov	 DWORD PTR _this$[ebp], ecx
  00007	8b 45 fc	 mov	 eax, DWORD PTR _this$[ebp]
  0000a	83 60 10 00	 and	 DWORD PTR [eax+16], 0
  0000e	8b 45 fc	 mov	 eax, DWORD PTR _this$[ebp]
  00011	83 60 14 00	 and	 DWORD PTR [eax+20], 0
  00015	8b 45 fc	 mov	 eax, DWORD PTR _this$[ebp]
  00018	c9		 leave
  00019	c3		 ret	 0
??0?$_String_val@U?$_Simple_types@D@std@@@std@@QAE@XZ ENDP ; std::_String_val<std::_Simple_types<char> >::_String_val<std::_Simple_types<char> >
_TEXT	ENDS
; Function compile flags: /Odspy
; File C:\Program Files (x86)\Microsoft Visual Studio\2019\Community\VC\Tools\MSVC\14.28.29333\include\xstring
;	COMDAT ?_Xlen_string@std@@YAXXZ
_TEXT	SEGMENT
?_Xlen_string@std@@YAXXZ PROC				; std::_Xlen_string, COMDAT

; 2274 : [[noreturn]] inline void _Xlen_string() {

  00000	55		 push	 ebp
  00001	8b ec		 mov	 ebp, esp

; 2275 :     _Xlength_error("string too long");

  00003	68 00 00 00 00	 push	 OFFSET ??_C@_0BA@JFNIOLAK@string?5too?5long@
  00008	e8 00 00 00 00	 call	 ?_Xlength_error@std@@YAXPBD@Z ; std::_Xlength_error
$LN2@Xlen_strin:

; 2276 : }

  0000d	5d		 pop	 ebp
  0000e	c3		 ret	 0
?_Xlen_string@std@@YAXXZ ENDP				; std::_Xlen_string
_TEXT	ENDS
; Function compile flags: /Odspy
; File C:\Program Files (x86)\Microsoft Visual Studio\2019\Community\VC\Tools\MSVC\14.28.29333\include\xmemory
;	COMDAT ?_Adjust_manually_vector_aligned@std@@YAXAAPAXAAI@Z
_TEXT	SEGMENT
__Min_back_shift$ = -16					; size = 4
__Ptr_user$ = -12					; size = 4
__Ptr_container$ = -8					; size = 4
__Back_shift$ = -4					; size = 4
__Ptr$ = 8						; size = 4
__Bytes$ = 12						; size = 4
?_Adjust_manually_vector_aligned@std@@YAXAAPAXAAI@Z PROC ; std::_Adjust_manually_vector_aligned, COMDAT

; 132  : inline void _Adjust_manually_vector_aligned(void*& _Ptr, size_t& _Bytes) {

  00000	55		 push	 ebp
  00001	8b ec		 mov	 ebp, esp
  00003	83 ec 10	 sub	 esp, 16			; 00000010H

; 133  :     // adjust parameters from _Allocate_manually_vector_aligned to pass to operator delete
; 134  :     _Bytes += _Non_user_size;

  00006	8b 45 0c	 mov	 eax, DWORD PTR __Bytes$[ebp]
  00009	8b 00		 mov	 eax, DWORD PTR [eax]
  0000b	83 c0 23	 add	 eax, 35			; 00000023H
  0000e	8b 4d 0c	 mov	 ecx, DWORD PTR __Bytes$[ebp]
  00011	89 01		 mov	 DWORD PTR [ecx], eax

; 135  : 
; 136  :     const uintptr_t* const _Ptr_user = reinterpret_cast<uintptr_t*>(_Ptr);

  00013	8b 45 08	 mov	 eax, DWORD PTR __Ptr$[ebp]
  00016	8b 00		 mov	 eax, DWORD PTR [eax]
  00018	89 45 f4	 mov	 DWORD PTR __Ptr_user$[ebp], eax

; 137  :     const uintptr_t _Ptr_container   = _Ptr_user[-1];

  0001b	6a 04		 push	 4
  0001d	58		 pop	 eax
  0001e	6b c0 ff	 imul	 eax, eax, -1
  00021	8b 4d f4	 mov	 ecx, DWORD PTR __Ptr_user$[ebp]
  00024	8b 04 01	 mov	 eax, DWORD PTR [ecx+eax]
  00027	89 45 f8	 mov	 DWORD PTR __Ptr_container$[ebp], eax

; 138  : 
; 139  :     // If the following asserts, it likely means that we are performing
; 140  :     // an aligned delete on memory coming from an unaligned allocation.
; 141  :     _STL_ASSERT(_Ptr_user[-2] == _Big_allocation_sentinel, "invalid argument");
; 142  : 
; 143  :     // Extra paranoia on aligned allocation/deallocation; ensure _Ptr_container is
; 144  :     // in range [_Min_back_shift, _Non_user_size]
; 145  : #ifdef _DEBUG
; 146  :     constexpr uintptr_t _Min_back_shift = 2 * sizeof(void*);
; 147  : #else // ^^^ _DEBUG ^^^ // vvv !_DEBUG vvv
; 148  :     constexpr uintptr_t _Min_back_shift = sizeof(void*);

  0002a	c7 45 f0 04 00
	00 00		 mov	 DWORD PTR __Min_back_shift$[ebp], 4

; 149  : #endif // _DEBUG
; 150  :     const uintptr_t _Back_shift = reinterpret_cast<uintptr_t>(_Ptr) - _Ptr_container;

  00031	8b 45 08	 mov	 eax, DWORD PTR __Ptr$[ebp]
  00034	8b 00		 mov	 eax, DWORD PTR [eax]
  00036	2b 45 f8	 sub	 eax, DWORD PTR __Ptr_container$[ebp]
  00039	89 45 fc	 mov	 DWORD PTR __Back_shift$[ebp], eax
$LN4@Adjust_man:

; 151  :     _STL_VERIFY(_Back_shift >= _Min_back_shift && _Back_shift <= _Non_user_size, "invalid argument");

  0003c	83 7d fc 04	 cmp	 DWORD PTR __Back_shift$[ebp], 4
  00040	72 08		 jb	 SHORT $LN7@Adjust_man
  00042	83 7d fc 23	 cmp	 DWORD PTR __Back_shift$[ebp], 35 ; 00000023H
  00046	77 02		 ja	 SHORT $LN7@Adjust_man
  00048	eb 09		 jmp	 SHORT $LN2@Adjust_man
$LN7@Adjust_man:
  0004a	e8 00 00 00 00	 call	 __invalid_parameter_noinfo_noreturn
  0004f	33 c0		 xor	 eax, eax
  00051	75 f7		 jne	 SHORT $LN7@Adjust_man
$LN2@Adjust_man:
  00053	33 c0		 xor	 eax, eax
  00055	75 e5		 jne	 SHORT $LN4@Adjust_man

; 152  :     _Ptr = reinterpret_cast<void*>(_Ptr_container);

  00057	8b 45 08	 mov	 eax, DWORD PTR __Ptr$[ebp]
  0005a	8b 4d f8	 mov	 ecx, DWORD PTR __Ptr_container$[ebp]
  0005d	89 08		 mov	 DWORD PTR [eax], ecx
$LN10@Adjust_man:

; 153  : }

  0005f	c9		 leave
  00060	c3		 ret	 0
?_Adjust_manually_vector_aligned@std@@YAXAAPAXAAI@Z ENDP ; std::_Adjust_manually_vector_aligned
_TEXT	ENDS
; Function compile flags: /Odspy
; File C:\Program Files (x86)\Microsoft Visual Studio\2019\Community\VC\Tools\MSVC\14.28.29333\include\exception
;	COMDAT ?_Throw_bad_array_new_length@std@@YAXXZ
_TEXT	SEGMENT
$T1 = -12						; size = 12
?_Throw_bad_array_new_length@std@@YAXXZ PROC		; std::_Throw_bad_array_new_length, COMDAT

; 320  : [[noreturn]] inline void _Throw_bad_array_new_length() {

  00000	55		 push	 ebp
  00001	8b ec		 mov	 ebp, esp
  00003	83 ec 0c	 sub	 esp, 12			; 0000000cH

; 321  :     _THROW(bad_array_new_length{});

  00006	8d 4d f4	 lea	 ecx, DWORD PTR $T1[ebp]
  00009	e8 00 00 00 00	 call	 ??0bad_array_new_length@std@@QAE@XZ ; std::bad_array_new_length::bad_array_new_length
  0000e	68 00 00 00 00	 push	 OFFSET __TI3?AVbad_array_new_length@std@@
  00013	8d 45 f4	 lea	 eax, DWORD PTR $T1[ebp]
  00016	50		 push	 eax
  00017	e8 00 00 00 00	 call	 __CxxThrowException@8
$LN2@Throw_bad_:

; 322  : }

  0001c	c9		 leave
  0001d	c3		 ret	 0
?_Throw_bad_array_new_length@std@@YAXXZ ENDP		; std::_Throw_bad_array_new_length
_TEXT	ENDS
; Function compile flags: /Odspy
; File C:\Program Files (x86)\Microsoft Visual Studio\2019\Community\VC\Tools\MSVC\14.28.29333\include\vcruntime_exception.h
;	COMDAT ??_Gbad_array_new_length@std@@UAEPAXI@Z
_TEXT	SEGMENT
_this$ = -4						; size = 4
___flags$ = 8						; size = 4
??_Gbad_array_new_length@std@@UAEPAXI@Z PROC		; std::bad_array_new_length::`scalar deleting destructor', COMDAT
; _this$ = ecx
  00000	55		 push	 ebp
  00001	8b ec		 mov	 ebp, esp
  00003	51		 push	 ecx
  00004	89 4d fc	 mov	 DWORD PTR _this$[ebp], ecx

; 89   :     {

  00007	8b 45 fc	 mov	 eax, DWORD PTR _this$[ebp]
  0000a	c7 00 00 00 00
	00		 mov	 DWORD PTR [eax], OFFSET ??_7exception@std@@6B@

; 90   :         __std_exception_destroy(&_Data);

  00010	8b 45 fc	 mov	 eax, DWORD PTR _this$[ebp]
  00013	83 c0 04	 add	 eax, 4
  00016	50		 push	 eax
  00017	e8 00 00 00 00	 call	 ___std_exception_destroy
  0001c	59		 pop	 ecx
  0001d	8b 45 08	 mov	 eax, DWORD PTR ___flags$[ebp]
  00020	83 e0 01	 and	 eax, 1
  00023	74 0c		 je	 SHORT $LN2@scalar
  00025	6a 0c		 push	 12			; 0000000cH
  00027	ff 75 fc	 push	 DWORD PTR _this$[ebp]
  0002a	e8 00 00 00 00	 call	 ??3@YAXPAXI@Z		; operator delete
  0002f	59		 pop	 ecx
  00030	59		 pop	 ecx
$LN2@scalar:
  00031	8b 45 fc	 mov	 eax, DWORD PTR _this$[ebp]
  00034	c9		 leave
  00035	c2 04 00	 ret	 4
??_Gbad_array_new_length@std@@UAEPAXI@Z ENDP		; std::bad_array_new_length::`scalar deleting destructor'
_TEXT	ENDS
; Function compile flags: /Odspy
;	COMDAT ??0bad_array_new_length@std@@QAE@ABV01@@Z
_TEXT	SEGMENT
_this$ = -4						; size = 4
___that$ = 8						; size = 4
??0bad_array_new_length@std@@QAE@ABV01@@Z PROC		; std::bad_array_new_length::bad_array_new_length, COMDAT
; _this$ = ecx
  00000	55		 push	 ebp
  00001	8b ec		 mov	 ebp, esp
  00003	51		 push	 ecx
  00004	89 4d fc	 mov	 DWORD PTR _this$[ebp], ecx
  00007	ff 75 08	 push	 DWORD PTR ___that$[ebp]
  0000a	8b 4d fc	 mov	 ecx, DWORD PTR _this$[ebp]
  0000d	e8 00 00 00 00	 call	 ??0exception@std@@QAE@ABV01@@Z ; std::exception::exception
  00012	8b 45 fc	 mov	 eax, DWORD PTR _this$[ebp]
  00015	c7 00 00 00 00
	00		 mov	 DWORD PTR [eax], OFFSET ??_7bad_alloc@std@@6B@
  0001b	8b 45 fc	 mov	 eax, DWORD PTR _this$[ebp]
  0001e	c7 00 00 00 00
	00		 mov	 DWORD PTR [eax], OFFSET ??_7bad_array_new_length@std@@6B@
  00024	8b 45 fc	 mov	 eax, DWORD PTR _this$[ebp]
  00027	c9		 leave
  00028	c2 04 00	 ret	 4
??0bad_array_new_length@std@@QAE@ABV01@@Z ENDP		; std::bad_array_new_length::bad_array_new_length
_TEXT	ENDS
; Function compile flags: /Odspy
; File C:\Program Files (x86)\Microsoft Visual Studio\2019\Community\VC\Tools\MSVC\14.28.29333\include\vcruntime_exception.h
;	COMDAT ??1bad_array_new_length@std@@UAE@XZ
_TEXT	SEGMENT
_this$ = -4						; size = 4
??1bad_array_new_length@std@@UAE@XZ PROC		; std::bad_array_new_length::~bad_array_new_length, COMDAT
; _this$ = ecx
  00000	55		 push	 ebp
  00001	8b ec		 mov	 ebp, esp
  00003	51		 push	 ecx
  00004	89 4d fc	 mov	 DWORD PTR _this$[ebp], ecx

; 89   :     {

  00007	8b 45 fc	 mov	 eax, DWORD PTR _this$[ebp]
  0000a	c7 00 00 00 00
	00		 mov	 DWORD PTR [eax], OFFSET ??_7exception@std@@6B@

; 90   :         __std_exception_destroy(&_Data);

  00010	8b 45 fc	 mov	 eax, DWORD PTR _this$[ebp]
  00013	83 c0 04	 add	 eax, 4
  00016	50		 push	 eax
  00017	e8 00 00 00 00	 call	 ___std_exception_destroy
  0001c	59		 pop	 ecx
  0001d	c9		 leave
  0001e	c3		 ret	 0
??1bad_array_new_length@std@@UAE@XZ ENDP		; std::bad_array_new_length::~bad_array_new_length
_TEXT	ENDS
; Function compile flags: /Odspy
; File C:\Program Files (x86)\Microsoft Visual Studio\2019\Community\VC\Tools\MSVC\14.28.29333\include\vcruntime_exception.h
;	COMDAT ??0bad_array_new_length@std@@QAE@XZ
_TEXT	SEGMENT
_this$ = -4						; size = 4
??0bad_array_new_length@std@@QAE@XZ PROC		; std::bad_array_new_length::bad_array_new_length, COMDAT
; _this$ = ecx

; 141  :     {

  00000	55		 push	 ebp
  00001	8b ec		 mov	 ebp, esp
  00003	51		 push	 ecx
  00004	89 4d fc	 mov	 DWORD PTR _this$[ebp], ecx

; 66   :     {

  00007	8b 45 fc	 mov	 eax, DWORD PTR _this$[ebp]
  0000a	c7 00 00 00 00
	00		 mov	 DWORD PTR [eax], OFFSET ??_7exception@std@@6B@

; 65   :         : _Data()

  00010	33 c0		 xor	 eax, eax
  00012	8b 4d fc	 mov	 ecx, DWORD PTR _this$[ebp]
  00015	83 c1 04	 add	 ecx, 4
  00018	89 01		 mov	 DWORD PTR [ecx], eax
  0001a	89 41 04	 mov	 DWORD PTR [ecx+4], eax

; 67   :         _Data._What = _Message;

  0001d	8b 45 fc	 mov	 eax, DWORD PTR _this$[ebp]
  00020	c7 40 04 00 00
	00 00		 mov	 DWORD PTR [eax+4], OFFSET ??_C@_0BF@KINCDENJ@bad?5array?5new?5length@

; 130  :     {

  00027	8b 45 fc	 mov	 eax, DWORD PTR _this$[ebp]
  0002a	c7 00 00 00 00
	00		 mov	 DWORD PTR [eax], OFFSET ??_7bad_alloc@std@@6B@

; 141  :     {

  00030	8b 45 fc	 mov	 eax, DWORD PTR _this$[ebp]
  00033	c7 00 00 00 00
	00		 mov	 DWORD PTR [eax], OFFSET ??_7bad_array_new_length@std@@6B@

; 142  :     }

  00039	8b 45 fc	 mov	 eax, DWORD PTR _this$[ebp]
  0003c	c9		 leave
  0003d	c3		 ret	 0
??0bad_array_new_length@std@@QAE@XZ ENDP		; std::bad_array_new_length::bad_array_new_length
_TEXT	ENDS
; Function compile flags: /Odspy
; File C:\Program Files (x86)\Microsoft Visual Studio\2019\Community\VC\Tools\MSVC\14.28.29333\include\vcruntime_exception.h
;	COMDAT ??_Gbad_alloc@std@@UAEPAXI@Z
_TEXT	SEGMENT
_this$ = -4						; size = 4
___flags$ = 8						; size = 4
??_Gbad_alloc@std@@UAEPAXI@Z PROC			; std::bad_alloc::`scalar deleting destructor', COMDAT
; _this$ = ecx
  00000	55		 push	 ebp
  00001	8b ec		 mov	 ebp, esp
  00003	51		 push	 ecx
  00004	89 4d fc	 mov	 DWORD PTR _this$[ebp], ecx

; 89   :     {

  00007	8b 45 fc	 mov	 eax, DWORD PTR _this$[ebp]
  0000a	c7 00 00 00 00
	00		 mov	 DWORD PTR [eax], OFFSET ??_7exception@std@@6B@

; 90   :         __std_exception_destroy(&_Data);

  00010	8b 45 fc	 mov	 eax, DWORD PTR _this$[ebp]
  00013	83 c0 04	 add	 eax, 4
  00016	50		 push	 eax
  00017	e8 00 00 00 00	 call	 ___std_exception_destroy
  0001c	59		 pop	 ecx
  0001d	8b 45 08	 mov	 eax, DWORD PTR ___flags$[ebp]
  00020	83 e0 01	 and	 eax, 1
  00023	74 0c		 je	 SHORT $LN2@scalar
  00025	6a 0c		 push	 12			; 0000000cH
  00027	ff 75 fc	 push	 DWORD PTR _this$[ebp]
  0002a	e8 00 00 00 00	 call	 ??3@YAXPAXI@Z		; operator delete
  0002f	59		 pop	 ecx
  00030	59		 pop	 ecx
$LN2@scalar:
  00031	8b 45 fc	 mov	 eax, DWORD PTR _this$[ebp]
  00034	c9		 leave
  00035	c2 04 00	 ret	 4
??_Gbad_alloc@std@@UAEPAXI@Z ENDP			; std::bad_alloc::`scalar deleting destructor'
_TEXT	ENDS
; Function compile flags: /Odspy
;	COMDAT ??0bad_alloc@std@@QAE@ABV01@@Z
_TEXT	SEGMENT
_this$ = -4						; size = 4
___that$ = 8						; size = 4
??0bad_alloc@std@@QAE@ABV01@@Z PROC			; std::bad_alloc::bad_alloc, COMDAT
; _this$ = ecx
  00000	55		 push	 ebp
  00001	8b ec		 mov	 ebp, esp
  00003	51		 push	 ecx
  00004	89 4d fc	 mov	 DWORD PTR _this$[ebp], ecx
  00007	ff 75 08	 push	 DWORD PTR ___that$[ebp]
  0000a	8b 4d fc	 mov	 ecx, DWORD PTR _this$[ebp]
  0000d	e8 00 00 00 00	 call	 ??0exception@std@@QAE@ABV01@@Z ; std::exception::exception
  00012	8b 45 fc	 mov	 eax, DWORD PTR _this$[ebp]
  00015	c7 00 00 00 00
	00		 mov	 DWORD PTR [eax], OFFSET ??_7bad_alloc@std@@6B@
  0001b	8b 45 fc	 mov	 eax, DWORD PTR _this$[ebp]
  0001e	c9		 leave
  0001f	c2 04 00	 ret	 4
??0bad_alloc@std@@QAE@ABV01@@Z ENDP			; std::bad_alloc::bad_alloc
_TEXT	ENDS
; Function compile flags: /Odspy
; File C:\Program Files (x86)\Microsoft Visual Studio\2019\Community\VC\Tools\MSVC\14.28.29333\include\vcruntime_exception.h
;	COMDAT ??_Gexception@std@@UAEPAXI@Z
_TEXT	SEGMENT
_this$ = -4						; size = 4
___flags$ = 8						; size = 4
??_Gexception@std@@UAEPAXI@Z PROC			; std::exception::`scalar deleting destructor', COMDAT
; _this$ = ecx
  00000	55		 push	 ebp
  00001	8b ec		 mov	 ebp, esp
  00003	51		 push	 ecx
  00004	89 4d fc	 mov	 DWORD PTR _this$[ebp], ecx

; 89   :     {

  00007	8b 45 fc	 mov	 eax, DWORD PTR _this$[ebp]
  0000a	c7 00 00 00 00
	00		 mov	 DWORD PTR [eax], OFFSET ??_7exception@std@@6B@

; 90   :         __std_exception_destroy(&_Data);

  00010	8b 45 fc	 mov	 eax, DWORD PTR _this$[ebp]
  00013	83 c0 04	 add	 eax, 4
  00016	50		 push	 eax
  00017	e8 00 00 00 00	 call	 ___std_exception_destroy
  0001c	59		 pop	 ecx
  0001d	8b 45 08	 mov	 eax, DWORD PTR ___flags$[ebp]
  00020	83 e0 01	 and	 eax, 1
  00023	74 0c		 je	 SHORT $LN2@scalar
  00025	6a 0c		 push	 12			; 0000000cH
  00027	ff 75 fc	 push	 DWORD PTR _this$[ebp]
  0002a	e8 00 00 00 00	 call	 ??3@YAXPAXI@Z		; operator delete
  0002f	59		 pop	 ecx
  00030	59		 pop	 ecx
$LN2@scalar:
  00031	8b 45 fc	 mov	 eax, DWORD PTR _this$[ebp]
  00034	c9		 leave
  00035	c2 04 00	 ret	 4
??_Gexception@std@@UAEPAXI@Z ENDP			; std::exception::`scalar deleting destructor'
_TEXT	ENDS
; Function compile flags: /Odspy
; File C:\Program Files (x86)\Microsoft Visual Studio\2019\Community\VC\Tools\MSVC\14.28.29333\include\vcruntime_exception.h
;	COMDAT ?what@exception@std@@UBEPBDXZ
_TEXT	SEGMENT
tv69 = -8						; size = 4
_this$ = -4						; size = 4
?what@exception@std@@UBEPBDXZ PROC			; std::exception::what, COMDAT
; _this$ = ecx

; 94   :     {

  00000	55		 push	 ebp
  00001	8b ec		 mov	 ebp, esp
  00003	51		 push	 ecx
  00004	51		 push	 ecx
  00005	89 4d fc	 mov	 DWORD PTR _this$[ebp], ecx

; 95   :         return _Data._What ? _Data._What : "Unknown exception";

  00008	8b 45 fc	 mov	 eax, DWORD PTR _this$[ebp]
  0000b	83 78 04 00	 cmp	 DWORD PTR [eax+4], 0
  0000f	74 0b		 je	 SHORT $LN3@what
  00011	8b 45 fc	 mov	 eax, DWORD PTR _this$[ebp]
  00014	8b 40 04	 mov	 eax, DWORD PTR [eax+4]
  00017	89 45 f8	 mov	 DWORD PTR tv69[ebp], eax
  0001a	eb 07		 jmp	 SHORT $LN4@what
$LN3@what:
  0001c	c7 45 f8 00 00
	00 00		 mov	 DWORD PTR tv69[ebp], OFFSET ??_C@_0BC@EOODALEL@Unknown?5exception@
$LN4@what:
  00023	8b 45 f8	 mov	 eax, DWORD PTR tv69[ebp]

; 96   :     }

  00026	c9		 leave
  00027	c3		 ret	 0
?what@exception@std@@UBEPBDXZ ENDP			; std::exception::what
_TEXT	ENDS
; Function compile flags: /Odspy
; File C:\Program Files (x86)\Microsoft Visual Studio\2019\Community\VC\Tools\MSVC\14.28.29333\include\vcruntime_exception.h
;	COMDAT ??0exception@std@@QAE@ABV01@@Z
_TEXT	SEGMENT
_this$ = -4						; size = 4
__Other$ = 8						; size = 4
??0exception@std@@QAE@ABV01@@Z PROC			; std::exception::exception, COMDAT
; _this$ = ecx

; 72   :     {

  00000	55		 push	 ebp
  00001	8b ec		 mov	 ebp, esp
  00003	51		 push	 ecx
  00004	89 4d fc	 mov	 DWORD PTR _this$[ebp], ecx
  00007	8b 45 fc	 mov	 eax, DWORD PTR _this$[ebp]
  0000a	c7 00 00 00 00
	00		 mov	 DWORD PTR [eax], OFFSET ??_7exception@std@@6B@

; 71   :         : _Data()

  00010	33 c0		 xor	 eax, eax
  00012	8b 4d fc	 mov	 ecx, DWORD PTR _this$[ebp]
  00015	83 c1 04	 add	 ecx, 4
  00018	89 01		 mov	 DWORD PTR [ecx], eax
  0001a	89 41 04	 mov	 DWORD PTR [ecx+4], eax

; 73   :         __std_exception_copy(&_Other._Data, &_Data);

  0001d	8b 45 fc	 mov	 eax, DWORD PTR _this$[ebp]
  00020	83 c0 04	 add	 eax, 4
  00023	50		 push	 eax
  00024	8b 45 08	 mov	 eax, DWORD PTR __Other$[ebp]
  00027	83 c0 04	 add	 eax, 4
  0002a	50		 push	 eax
  0002b	e8 00 00 00 00	 call	 ___std_exception_copy
  00030	59		 pop	 ecx
  00031	59		 pop	 ecx

; 74   :     }

  00032	8b 45 fc	 mov	 eax, DWORD PTR _this$[ebp]
  00035	c9		 leave
  00036	c2 04 00	 ret	 4
??0exception@std@@QAE@ABV01@@Z ENDP			; std::exception::exception
_TEXT	ENDS
END
