; Listing generated by Microsoft (R) Optimizing Compiler Version 19.28.29335.0 

	TITLE	D:\Metin2 Server Files\mainline\SRC_2014\Metin2Client\EterLib\GrpTextInstance.cpp
	.686P
	.XMM
	include listing.inc
	.model	flat

INCLUDELIB LIBCMT
INCLUDELIB OLDNAMES

PUBLIC	??_7?$CDynamicPool@VCGraphicTextInstance@@@@6B@	; CDynamicPool<CGraphicTextInstance>::`vftable'
PUBLIC	??_G?$CDynamicPool@VCGraphicTextInstance@@@@UAEPAXI@Z ; CDynamicPool<CGraphicTextInstance>::`scalar deleting destructor'
PUBLIC	??_R4?$CDynamicPool@VCGraphicTextInstance@@@@6B@ ; CDynamicPool<CGraphicTextInstance>::`RTTI Complete Object Locator'
PUBLIC	??_R0?AV?$CDynamicPool@VCGraphicTextInstance@@@@@8 ; CDynamicPool<CGraphicTextInstance> `RTTI Type Descriptor'
PUBLIC	??_R3?$CDynamicPool@VCGraphicTextInstance@@@@8	; CDynamicPool<CGraphicTextInstance>::`RTTI Class Hierarchy Descriptor'
PUBLIC	??_R2?$CDynamicPool@VCGraphicTextInstance@@@@8	; CDynamicPool<CGraphicTextInstance>::`RTTI Base Class Array'
PUBLIC	??_R1A@?0A@EA@?$CDynamicPool@VCGraphicTextInstance@@@@8 ; CDynamicPool<CGraphicTextInstance>::`RTTI Base Class Descriptor at (0,-1,0,64)'
EXTRN	??_E?$CDynamicPool@VCGraphicTextInstance@@@@UAEPAXI@Z:PROC ; CDynamicPool<CGraphicTextInstance>::`vector deleting destructor'
EXTRN	??_7type_info@@6B@:QWORD			; type_info::`vftable'
CONST	SEGMENT
?c_FillRectIndices@@3QBGB DW 00H			; c_FillRectIndices
	DW	02H
	DW	01H
	DW	02H
	DW	03H
	DW	01H
CONST	ENDS
;	COMDAT ??_R1A@?0A@EA@?$CDynamicPool@VCGraphicTextInstance@@@@8
rdata$r	SEGMENT
??_R1A@?0A@EA@?$CDynamicPool@VCGraphicTextInstance@@@@8 DD FLAT:??_R0?AV?$CDynamicPool@VCGraphicTextInstance@@@@@8 ; CDynamicPool<CGraphicTextInstance>::`RTTI Base Class Descriptor at (0,-1,0,64)'
	DD	00H
	DD	00H
	DD	0ffffffffH
	DD	00H
	DD	040H
	DD	FLAT:??_R3?$CDynamicPool@VCGraphicTextInstance@@@@8
rdata$r	ENDS
;	COMDAT ??_R2?$CDynamicPool@VCGraphicTextInstance@@@@8
rdata$r	SEGMENT
??_R2?$CDynamicPool@VCGraphicTextInstance@@@@8 DD FLAT:??_R1A@?0A@EA@?$CDynamicPool@VCGraphicTextInstance@@@@8 ; CDynamicPool<CGraphicTextInstance>::`RTTI Base Class Array'
rdata$r	ENDS
;	COMDAT ??_R3?$CDynamicPool@VCGraphicTextInstance@@@@8
rdata$r	SEGMENT
??_R3?$CDynamicPool@VCGraphicTextInstance@@@@8 DD 00H	; CDynamicPool<CGraphicTextInstance>::`RTTI Class Hierarchy Descriptor'
	DD	00H
	DD	01H
	DD	FLAT:??_R2?$CDynamicPool@VCGraphicTextInstance@@@@8
rdata$r	ENDS
;	COMDAT ??_R0?AV?$CDynamicPool@VCGraphicTextInstance@@@@@8
data$rs	SEGMENT
??_R0?AV?$CDynamicPool@VCGraphicTextInstance@@@@@8 DD FLAT:??_7type_info@@6B@ ; CDynamicPool<CGraphicTextInstance> `RTTI Type Descriptor'
	DD	00H
	DB	'.?AV?$CDynamicPool@VCGraphicTextInstance@@@@', 00H
data$rs	ENDS
;	COMDAT ??_R4?$CDynamicPool@VCGraphicTextInstance@@@@6B@
rdata$r	SEGMENT
??_R4?$CDynamicPool@VCGraphicTextInstance@@@@6B@ DD 00H	; CDynamicPool<CGraphicTextInstance>::`RTTI Complete Object Locator'
	DD	00H
	DD	00H
	DD	FLAT:??_R0?AV?$CDynamicPool@VCGraphicTextInstance@@@@@8
	DD	FLAT:??_R3?$CDynamicPool@VCGraphicTextInstance@@@@8
rdata$r	ENDS
;	COMDAT ??_7?$CDynamicPool@VCGraphicTextInstance@@@@6B@
CONST	SEGMENT
??_7?$CDynamicPool@VCGraphicTextInstance@@@@6B@ DD FLAT:??_R4?$CDynamicPool@VCGraphicTextInstance@@@@6B@ ; CDynamicPool<CGraphicTextInstance>::`vftable'
	DD	FLAT:??_E?$CDynamicPool@VCGraphicTextInstance@@@@UAEPAXI@Z
CONST	ENDS
PUBLIC	??_H@YGXPAXIIP6EPAX0@Z@Z			; `vector constructor iterator'
PUBLIC	??0exception@std@@QAE@ABV01@@Z			; std::exception::exception
PUBLIC	??1exception@std@@UAE@XZ			; std::exception::~exception
PUBLIC	?what@exception@std@@UBEPBDXZ			; std::exception::what
PUBLIC	??_Gexception@std@@UAEPAXI@Z			; std::exception::`scalar deleting destructor'
PUBLIC	??0bad_alloc@std@@QAE@ABV01@@Z			; std::bad_alloc::bad_alloc
PUBLIC	??_Gbad_alloc@std@@UAEPAXI@Z			; std::bad_alloc::`scalar deleting destructor'
PUBLIC	??0bad_array_new_length@std@@QAE@XZ		; std::bad_array_new_length::bad_array_new_length
PUBLIC	??1bad_array_new_length@std@@UAE@XZ		; std::bad_array_new_length::~bad_array_new_length
PUBLIC	??0bad_array_new_length@std@@QAE@ABV01@@Z	; std::bad_array_new_length::bad_array_new_length
PUBLIC	??_Gbad_array_new_length@std@@UAEPAXI@Z		; std::bad_array_new_length::`scalar deleting destructor'
PUBLIC	?_Throw_bad_array_new_length@std@@YAXXZ		; std::_Throw_bad_array_new_length
PUBLIC	?_Xlen_string@std@@YAXXZ			; std::_Xlen_string
PUBLIC	??1?$basic_string@DU?$char_traits@D@std@@V?$allocator@D@2@@std@@QAE@XZ ; std::basic_string<char,std::char_traits<char>,std::allocator<char> >::~basic_string<char,std::char_traits<char>,std::allocator<char> >
PUBLIC	?assign@?$basic_string@DU?$char_traits@D@std@@V?$allocator@D@2@@std@@QAEAAV12@QBDI@Z ; std::basic_string<char,std::char_traits<char>,std::allocator<char> >::assign
PUBLIC	??1?$basic_string@_WU?$char_traits@_W@std@@V?$allocator@_W@2@@std@@QAE@XZ ; std::basic_string<wchar_t,std::char_traits<wchar_t>,std::allocator<wchar_t> >::~basic_string<wchar_t,std::char_traits<wchar_t>,std::allocator<wchar_t> >
PUBLIC	??4?$basic_string@_WU?$char_traits@_W@std@@V?$allocator@_W@2@@std@@QAEAAV01@ABV01@@Z ; std::basic_string<wchar_t,std::char_traits<wchar_t>,std::allocator<wchar_t> >::operator=
PUBLIC	?append@?$basic_string@_WU?$char_traits@_W@std@@V?$allocator@_W@2@@std@@QAEAAV12@I_W@Z ; std::basic_string<wchar_t,std::char_traits<wchar_t>,std::allocator<wchar_t> >::append
PUBLIC	?assign@?$basic_string@_WU?$char_traits@_W@std@@V?$allocator@_W@2@@std@@QAEAAV12@QB_WI@Z ; std::basic_string<wchar_t,std::char_traits<wchar_t>,std::allocator<wchar_t> >::assign
PUBLIC	??$_Destroy_in_place@PA_W@std@@YAXAAPA_W@Z	; std::_Destroy_in_place<wchar_t *>
PUBLIC	??$_Destroy_in_place@PAD@std@@YAXAAPAD@Z	; std::_Destroy_in_place<char *>
PUBLIC	??$_Construct_in_place@PADABQAD@std@@YAXAAPADABQAD@Z ; std::_Construct_in_place<char *,char * const &>
PUBLIC	??$_Deallocate@$07$0A@@std@@YAXPAXI@Z		; std::_Deallocate<8,0>
PUBLIC	??$_Allocate@$07U_Default_allocate_traits@std@@$0A@@std@@YAPAXI@Z ; std::_Allocate<8,std::_Default_allocate_traits,0>
PUBLIC	??$_Construct_in_place@PA_WABQA_W@std@@YAXAAPA_WABQA_W@Z ; std::_Construct_in_place<wchar_t *,wchar_t * const &>
PUBLIC	??$_Allocate_manually_vector_aligned@U_Default_allocate_traits@std@@@std@@YAPAXI@Z ; std::_Allocate_manually_vector_aligned<std::_Default_allocate_traits>
PUBLIC	??0SPDTVertex@@QAE@XZ				; SPDTVertex::SPDTVertex
PUBLIC	?Hyperlink_UpdateMousePos@CGraphicTextInstance@@SAXHH@Z ; CGraphicTextInstance::Hyperlink_UpdateMousePos
PUBLIC	?Hyperlink_GetText@CGraphicTextInstance@@SAHPADH@Z ; CGraphicTextInstance::Hyperlink_GetText
PUBLIC	??0CGraphicTextInstance@@QAE@XZ			; CGraphicTextInstance::CGraphicTextInstance
PUBLIC	??1CGraphicTextInstance@@UAE@XZ			; CGraphicTextInstance::~CGraphicTextInstance
PUBLIC	?Destroy@CGraphicTextInstance@@QAEXXZ		; CGraphicTextInstance::Destroy
PUBLIC	?Update@CGraphicTextInstance@@QAEXXZ		; CGraphicTextInstance::Update
PUBLIC	?Render@CGraphicTextInstance@@QAEXPAUtagRECT@@@Z ; CGraphicTextInstance::Render
PUBLIC	?ShowCursor@CGraphicTextInstance@@QAEXXZ	; CGraphicTextInstance::ShowCursor
PUBLIC	?HideCursor@CGraphicTextInstance@@QAEXXZ	; CGraphicTextInstance::HideCursor
PUBLIC	?ShowOutLine@CGraphicTextInstance@@QAEXXZ	; CGraphicTextInstance::ShowOutLine
PUBLIC	?HideOutLine@CGraphicTextInstance@@QAEXXZ	; CGraphicTextInstance::HideOutLine
PUBLIC	?SetColor@CGraphicTextInstance@@QAEXK@Z		; CGraphicTextInstance::SetColor
PUBLIC	?SetColor@CGraphicTextInstance@@QAEXMMMM@Z	; CGraphicTextInstance::SetColor
PUBLIC	?SetOutLineColor@CGraphicTextInstance@@QAEXK@Z	; CGraphicTextInstance::SetOutLineColor
PUBLIC	?SetOutLineColor@CGraphicTextInstance@@QAEXMMMM@Z ; CGraphicTextInstance::SetOutLineColor
PUBLIC	?SetHorizonalAlign@CGraphicTextInstance@@QAEXH@Z ; CGraphicTextInstance::SetHorizonalAlign
PUBLIC	?SetVerticalAlign@CGraphicTextInstance@@QAEXH@Z	; CGraphicTextInstance::SetVerticalAlign
PUBLIC	?SetMax@CGraphicTextInstance@@QAEXH@Z		; CGraphicTextInstance::SetMax
PUBLIC	?SetTextPointer@CGraphicTextInstance@@QAEXPAVCGraphicText@@@Z ; CGraphicTextInstance::SetTextPointer
PUBLIC	?SetValueString@CGraphicTextInstance@@QAEXABV?$basic_string@DU?$char_traits@D@std@@V?$allocator@D@2@@std@@@Z ; CGraphicTextInstance::SetValueString
PUBLIC	?SetValue@CGraphicTextInstance@@QAEXPBDI@Z	; CGraphicTextInstance::SetValue
PUBLIC	?SetPosition@CGraphicTextInstance@@QAEXMMM@Z	; CGraphicTextInstance::SetPosition
PUBLIC	?SetSecret@CGraphicTextInstance@@QAEX_N@Z	; CGraphicTextInstance::SetSecret
PUBLIC	?SetOutline@CGraphicTextInstance@@QAEX_N@Z	; CGraphicTextInstance::SetOutline
PUBLIC	?SetFeather@CGraphicTextInstance@@QAEX_N@Z	; CGraphicTextInstance::SetFeather
PUBLIC	?SetMultiLine@CGraphicTextInstance@@QAEX_N@Z	; CGraphicTextInstance::SetMultiLine
PUBLIC	?SetLimitWidth@CGraphicTextInstance@@QAEXM@Z	; CGraphicTextInstance::SetLimitWidth
PUBLIC	?GetTextSize@CGraphicTextInstance@@QAEXPAH0@Z	; CGraphicTextInstance::GetTextSize
PUBLIC	?GetValueStringReference@CGraphicTextInstance@@QAEABV?$basic_string@DU?$char_traits@D@std@@V?$allocator@D@2@@std@@XZ ; CGraphicTextInstance::GetValueStringReference
PUBLIC	?GetTextLineCount@CGraphicTextInstance@@QAEGXZ	; CGraphicTextInstance::GetTextLineCount
PUBLIC	?PixelPositionToCharacterPosition@CGraphicTextInstance@@QAEHH@Z ; CGraphicTextInstance::PixelPositionToCharacterPosition
PUBLIC	?GetHorizontalAlign@CGraphicTextInstance@@QAEHXZ ; CGraphicTextInstance::GetHorizontalAlign
PUBLIC	?__Initialize@CGraphicTextInstance@@IAEXXZ	; CGraphicTextInstance::__Initialize
PUBLIC	?__DrawCharacter@CGraphicTextInstance@@IAEHPAVCGraphicFontTexture@@G_WK@Z ; CGraphicTextInstance::__DrawCharacter
PUBLIC	?__GetTextPos@CGraphicTextInstance@@IAEXKPAM0@Z	; CGraphicTextInstance::__GetTextPos
PUBLIC	??1SHyperlink@CGraphicTextInstance@@QAE@XZ	; CGraphicTextInstance::SHyperlink::~SHyperlink
PUBLIC	??1?$CRef@VCGraphicText@@@@QAE@XZ		; CRef<CGraphicText>::~CRef<CGraphicText>
PUBLIC	??1?$vector@PAUSCharacterInfomation@CGraphicFontTexture@@V?$allocator@PAUSCharacterInfomation@CGraphicFontTexture@@@std@@@std@@QAE@XZ ; std::vector<CGraphicFontTexture::SCharacterInfomation *,std::allocator<CGraphicFontTexture::SCharacterInfomation *> >::~vector<CGraphicFontTexture::SCharacterInfomation *,std::allocator<CGraphicFontTexture::SCharacterInfomation *> >
PUBLIC	?_Xlength@?$vector@PAUSCharacterInfomation@CGraphicFontTexture@@V?$allocator@PAUSCharacterInfomation@CGraphicFontTexture@@@std@@@std@@CAXXZ ; std::vector<CGraphicFontTexture::SCharacterInfomation *,std::allocator<CGraphicFontTexture::SCharacterInfomation *> >::_Xlength
PUBLIC	??1?$vector@KV?$allocator@K@std@@@std@@QAE@XZ	; std::vector<unsigned long,std::allocator<unsigned long> >::~vector<unsigned long,std::allocator<unsigned long> >
PUBLIC	?_Xlength@?$vector@KV?$allocator@K@std@@@std@@CAXXZ ; std::vector<unsigned long,std::allocator<unsigned long> >::_Xlength
PUBLIC	?deallocate@?$allocator@USHyperlink@CGraphicTextInstance@@@std@@QAEXQAUSHyperlink@CGraphicTextInstance@@I@Z ; std::allocator<CGraphicTextInstance::SHyperlink>::deallocate
PUBLIC	??1?$vector@USHyperlink@CGraphicTextInstance@@V?$allocator@USHyperlink@CGraphicTextInstance@@@std@@@std@@QAE@XZ ; std::vector<CGraphicTextInstance::SHyperlink,std::allocator<CGraphicTextInstance::SHyperlink> >::~vector<CGraphicTextInstance::SHyperlink,std::allocator<CGraphicTextInstance::SHyperlink> >
PUBLIC	?_Destroy@?$vector@USHyperlink@CGraphicTextInstance@@V?$allocator@USHyperlink@CGraphicTextInstance@@@std@@@std@@AAEXPAUSHyperlink@CGraphicTextInstance@@0@Z ; std::vector<CGraphicTextInstance::SHyperlink,std::allocator<CGraphicTextInstance::SHyperlink> >::_Destroy
PUBLIC	?_Xlength@?$vector@USHyperlink@CGraphicTextInstance@@V?$allocator@USHyperlink@CGraphicTextInstance@@@std@@@std@@CAXXZ ; std::vector<CGraphicTextInstance::SHyperlink,std::allocator<CGraphicTextInstance::SHyperlink> >::_Xlength
PUBLIC	?CreateSystem@CGraphicTextInstance@@SAXI@Z	; CGraphicTextInstance::CreateSystem
PUBLIC	?DestroySystem@CGraphicTextInstance@@SAXXZ	; CGraphicTextInstance::DestroySystem
PUBLIC	?New@CGraphicTextInstance@@SAPAV1@XZ		; CGraphicTextInstance::New
PUBLIC	?Delete@CGraphicTextInstance@@SAXPAV1@@Z	; CGraphicTextInstance::Delete
PUBLIC	??_GCGraphicTextInstance@@UAEPAXI@Z		; CGraphicTextInstance::`scalar deleting destructor'
PUBLIC	?FindToken@@YAPBDPBD0@Z				; FindToken
PUBLIC	?ReadToken@@YAHPBD@Z				; ReadToken
PUBLIC	??1?$CDynamicPool@VCGraphicTextInstance@@@@UAE@XZ ; CDynamicPool<CGraphicTextInstance>::~CDynamicPool<CGraphicTextInstance>
PUBLIC	?Delete@?$CDynamicPool@VCGraphicTextInstance@@@@KAXPAVCGraphicTextInstance@@@Z ; CDynamicPool<CGraphicTextInstance>::Delete
PUBLIC	?_Reallocate_exactly@?$vector@PAVCGraphicTextInstance@@V?$allocator@PAVCGraphicTextInstance@@@std@@@std@@AAEXI@Z ; std::vector<CGraphicTextInstance *,std::allocator<CGraphicTextInstance *> >::_Reallocate_exactly
PUBLIC	?_Xlength@?$vector@PAVCGraphicTextInstance@@V?$allocator@PAVCGraphicTextInstance@@@std@@@std@@CAXXZ ; std::vector<CGraphicTextInstance *,std::allocator<CGraphicTextInstance *> >::_Xlength
PUBLIC	?isNumberic@@YA_ND@Z				; isNumberic
PUBLIC	?IsValidToken@@YA_NPBD@Z			; IsValidToken
PUBLIC	??$construct@USHyperlink@CGraphicTextInstance@@ABU12@@?$_Default_allocator_traits@V?$allocator@USHyperlink@CGraphicTextInstance@@@std@@@std@@SAXAAV?$allocator@USHyperlink@CGraphicTextInstance@@@1@QAUSHyperlink@CGraphicTextInstance@@ABU34@@Z ; std::_Default_allocator_traits<std::allocator<CGraphicTextInstance::SHyperlink> >::construct<CGraphicTextInstance::SHyperlink,CGraphicTextInstance::SHyperlink const &>
PUBLIC	??$_Emplace_reallocate@ABUSHyperlink@CGraphicTextInstance@@@?$vector@USHyperlink@CGraphicTextInstance@@V?$allocator@USHyperlink@CGraphicTextInstance@@@std@@@std@@QAEPAUSHyperlink@CGraphicTextInstance@@QAU23@ABU23@@Z ; std::vector<CGraphicTextInstance::SHyperlink,std::allocator<CGraphicTextInstance::SHyperlink> >::_Emplace_reallocate<CGraphicTextInstance::SHyperlink const &>
PUBLIC	??$_Emplace_reallocate@ABK@?$vector@KV?$allocator@K@std@@@std@@QAEPAKQAKABK@Z ; std::vector<unsigned long,std::allocator<unsigned long> >::_Emplace_reallocate<unsigned long const &>
PUBLIC	??$_Emplace_reallocate@ABQAUSCharacterInfomation@CGraphicFontTexture@@@?$vector@PAUSCharacterInfomation@CGraphicFontTexture@@V?$allocator@PAUSCharacterInfomation@CGraphicFontTexture@@@std@@@std@@QAEPAPAUSCharacterInfomation@CGraphicFontTexture@@QAPAU23@ABQAU23@@Z ; std::vector<CGraphicFontTexture::SCharacterInfomation *,std::allocator<CGraphicFontTexture::SCharacterInfomation *> >::_Emplace_reallocate<CGraphicFontTexture::SCharacterInfomation * const &>
PUBLIC	??$_Traits_compare@U?$char_traits@D@std@@@std@@YAHQBDI0I@Z ; std::_Traits_compare<std::char_traits<char> >
PUBLIC	??$_Emplace_reallocate@ABQAVCGraphicTextInstance@@@?$vector@PAVCGraphicTextInstance@@V?$allocator@PAVCGraphicTextInstance@@@std@@@std@@QAEPAPAVCGraphicTextInstance@@QAPAV2@ABQAV2@@Z ; std::vector<CGraphicTextInstance *,std::allocator<CGraphicTextInstance *> >::_Emplace_reallocate<CGraphicTextInstance * const &>
PUBLIC	??$_Destroy_range@V?$allocator@USHyperlink@CGraphicTextInstance@@@std@@@std@@YAXPAUSHyperlink@CGraphicTextInstance@@QAU12@AAV?$allocator@USHyperlink@CGraphicTextInstance@@@0@@Z ; std::_Destroy_range<std::allocator<CGraphicTextInstance::SHyperlink> >
PUBLIC	??$_Destroy_range@V?$allocator@K@std@@@std@@YAXPAKQAKAAV?$allocator@K@0@@Z ; std::_Destroy_range<std::allocator<unsigned long> >
PUBLIC	??$_Destroy_range@V?$allocator@PAUSCharacterInfomation@CGraphicFontTexture@@@std@@@std@@YAXPAPAUSCharacterInfomation@CGraphicFontTexture@@QAPAU12@AAV?$allocator@PAUSCharacterInfomation@CGraphicFontTexture@@@0@@Z ; std::_Destroy_range<std::allocator<CGraphicFontTexture::SCharacterInfomation *> >
PUBLIC	??$_Pocca@V?$allocator@_W@std@@@std@@YAXAAV?$allocator@_W@0@ABV10@@Z ; std::_Pocca<std::allocator<wchar_t> >
PUBLIC	??$_Pocca@V?$allocator@D@std@@@std@@YAXAAV?$allocator@D@0@ABV10@@Z ; std::_Pocca<std::allocator<char> >
PUBLIC	??$_Destroy_range@V?$allocator@PAVCGraphicTextInstance@@@std@@@std@@YAXPAPAVCGraphicTextInstance@@QAPAV1@AAV?$allocator@PAVCGraphicTextInstance@@@0@@Z ; std::_Destroy_range<std::allocator<CGraphicTextInstance *> >
PUBLIC	??$_Uninitialized_move@PAPAVCGraphicTextInstance@@V?$allocator@PAVCGraphicTextInstance@@@std@@@std@@YAPAPAVCGraphicTextInstance@@QAPAV1@0PAPAV1@AAV?$allocator@PAVCGraphicTextInstance@@@0@@Z ; std::_Uninitialized_move<CGraphicTextInstance * *,std::allocator<CGraphicTextInstance *> >
PUBLIC	??$_Copy_memmove@PAPAVCGraphicTextInstance@@PAPAV1@@std@@YAPAPAVCGraphicTextInstance@@PAPAV1@00@Z ; std::_Copy_memmove<CGraphicTextInstance * *,CGraphicTextInstance * *>
PUBLIC	??$_Uninitialized_move@PAUSHyperlink@CGraphicTextInstance@@V?$allocator@USHyperlink@CGraphicTextInstance@@@std@@@std@@YAPAUSHyperlink@CGraphicTextInstance@@QAU12@0PAU12@AAV?$allocator@USHyperlink@CGraphicTextInstance@@@0@@Z ; std::_Uninitialized_move<CGraphicTextInstance::SHyperlink *,std::allocator<CGraphicTextInstance::SHyperlink> >
PUBLIC	??$_Uninitialized_move@PAKV?$allocator@K@std@@@std@@YAPAKQAK0PAKAAV?$allocator@K@0@@Z ; std::_Uninitialized_move<unsigned long *,std::allocator<unsigned long> >
PUBLIC	??$_Uninitialized_move@PAPAUSCharacterInfomation@CGraphicFontTexture@@V?$allocator@PAUSCharacterInfomation@CGraphicFontTexture@@@std@@@std@@YAPAPAUSCharacterInfomation@CGraphicFontTexture@@QAPAU12@0PAPAU12@AAV?$allocator@PAUSCharacterInfomation@CGraphicFontTexture@@@0@@Z ; std::_Uninitialized_move<CGraphicFontTexture::SCharacterInfomation * *,std::allocator<CGraphicFontTexture::SCharacterInfomation *> >
PUBLIC	??$_Copy_memmove@PAKPAK@std@@YAPAKPAK00@Z	; std::_Copy_memmove<unsigned long *,unsigned long *>
PUBLIC	??$_Copy_memmove@PAPAUSCharacterInfomation@CGraphicFontTexture@@PAPAU12@@std@@YAPAPAUSCharacterInfomation@CGraphicFontTexture@@PAPAU12@00@Z ; std::_Copy_memmove<CGraphicFontTexture::SCharacterInfomation * *,CGraphicFontTexture::SCharacterInfomation * *>
PUBLIC	??_7exception@std@@6B@				; std::exception::`vftable'
PUBLIC	??_C@_0BC@EOODALEL@Unknown?5exception@		; `string'
PUBLIC	??_7bad_alloc@std@@6B@				; std::bad_alloc::`vftable'
PUBLIC	??_7bad_array_new_length@std@@6B@		; std::bad_array_new_length::`vftable'
PUBLIC	??_C@_0BF@KINCDENJ@bad?5array?5new?5length@	; `string'
PUBLIC	__TI3?AVbad_array_new_length@std@@
PUBLIC	__CTA3?AVbad_array_new_length@std@@
PUBLIC	??_R0?AVbad_array_new_length@std@@@8		; std::bad_array_new_length `RTTI Type Descriptor'
PUBLIC	__CT??_R0?AVbad_array_new_length@std@@@8??0bad_array_new_length@std@@QAE@ABV01@@Z12
PUBLIC	??_R0?AVbad_alloc@std@@@8			; std::bad_alloc `RTTI Type Descriptor'
PUBLIC	__CT??_R0?AVbad_alloc@std@@@8??0bad_alloc@std@@QAE@ABV01@@Z12
PUBLIC	??_R0?AVexception@std@@@8			; std::exception `RTTI Type Descriptor'
PUBLIC	__CT??_R0?AVexception@std@@@8??0exception@std@@QAE@ABV01@@Z12
PUBLIC	??_C@_0BA@JFNIOLAK@string?5too?5long@		; `string'
PUBLIC	??_R4exception@std@@6B@				; std::exception::`RTTI Complete Object Locator'
PUBLIC	??_R3exception@std@@8				; std::exception::`RTTI Class Hierarchy Descriptor'
PUBLIC	??_R2exception@std@@8				; std::exception::`RTTI Base Class Array'
PUBLIC	??_R1A@?0A@EA@exception@std@@8			; std::exception::`RTTI Base Class Descriptor at (0,-1,0,64)'
PUBLIC	??_R4bad_alloc@std@@6B@				; std::bad_alloc::`RTTI Complete Object Locator'
PUBLIC	??_R3bad_alloc@std@@8				; std::bad_alloc::`RTTI Class Hierarchy Descriptor'
PUBLIC	??_R2bad_alloc@std@@8				; std::bad_alloc::`RTTI Base Class Array'
PUBLIC	??_R1A@?0A@EA@bad_alloc@std@@8			; std::bad_alloc::`RTTI Base Class Descriptor at (0,-1,0,64)'
PUBLIC	??_R4bad_array_new_length@std@@6B@		; std::bad_array_new_length::`RTTI Complete Object Locator'
PUBLIC	??_R3bad_array_new_length@std@@8		; std::bad_array_new_length::`RTTI Class Hierarchy Descriptor'
PUBLIC	??_R2bad_array_new_length@std@@8		; std::bad_array_new_length::`RTTI Base Class Array'
PUBLIC	??_R1A@?0A@EA@bad_array_new_length@std@@8	; std::bad_array_new_length::`RTTI Base Class Descriptor at (0,-1,0,64)'
PUBLIC	?ms_kPool@CGraphicTextInstance@@2V?$CDynamicPool@VCGraphicTextInstance@@@@A ; CGraphicTextInstance::ms_kPool
PUBLIC	??_7CGraphicTextInstance@@6B@			; CGraphicTextInstance::`vftable'
PUBLIC	?ms_singleton@?$CSingleton@VCStateManager@@@@0PAVCStateManager@@A ; CSingleton<CStateManager>::ms_singleton
PUBLIC	??_C@_11LOCGONAA@@				; `string'
PUBLIC	??_C@_0DL@KFHPELNP@CGraphicTextInstance?3?3Update?5?9?5@ ; `string'
PUBLIC	??_C@_00CNPNBAHC@@				; `string'
PUBLIC	??_C@_0BA@FOIKENOD@vector?5too?5long@		; `string'
PUBLIC	??_R4CGraphicTextInstance@@6B@			; CGraphicTextInstance::`RTTI Complete Object Locator'
PUBLIC	??_R0?AVCGraphicTextInstance@@@8		; CGraphicTextInstance `RTTI Type Descriptor'
PUBLIC	??_R3CGraphicTextInstance@@8			; CGraphicTextInstance::`RTTI Class Hierarchy Descriptor'
PUBLIC	??_R2CGraphicTextInstance@@8			; CGraphicTextInstance::`RTTI Base Class Array'
PUBLIC	??_R1A@?0A@EA@CGraphicTextInstance@@8		; CGraphicTextInstance::`RTTI Base Class Descriptor at (0,-1,0,64)'
PUBLIC	__real@3f000000
PUBLIC	__real@3f800000
PUBLIC	__real@40000000
PUBLIC	__real@437f0000
EXTRN	??2@YAPAXI@Z:PROC				; operator new
EXTRN	??3@YAXPAXI@Z:PROC				; operator delete
EXTRN	_atexit:PROC
EXTRN	___std_terminate:PROC
EXTRN	__invalid_parameter_noinfo_noreturn:PROC
EXTRN	___std_exception_copy:PROC
EXTRN	___std_exception_destroy:PROC
EXTRN	??_Eexception@std@@UAEPAXI@Z:PROC		; std::exception::`vector deleting destructor'
EXTRN	??_Ebad_alloc@std@@UAEPAXI@Z:PROC		; std::bad_alloc::`vector deleting destructor'
EXTRN	??_Ebad_array_new_length@std@@UAEPAXI@Z:PROC	; std::bad_array_new_length::`vector deleting destructor'
EXTRN	?_Xlength_error@std@@YAXPBD@Z:PROC		; std::_Xlength_error
EXTRN	?Tracef@@YAXPBDZZ:PROC				; Tracef
EXTRN	?AddReference@CReferenceObject@@QAEXXZ:PROC	; CReferenceObject::AddReference
EXTRN	?Release@CReferenceObject@@QAEXXZ:PROC		; CReferenceObject::Release
EXTRN	?IsEmpty@CResource@@QBE_NXZ:PROC		; CResource::IsEmpty
EXTRN	?SetDefaultIndexBuffer@CGraphicBase@@SAXI@Z:PROC ; CGraphicBase::SetDefaultIndexBuffer
EXTRN	?SetPDTStream@CGraphicBase@@SA_NPAUSPDTVertex@@I@Z:PROC ; CGraphicBase::SetPDTStream
EXTRN	?GetD3DTexture@CGraphicTexture@@QBEPAUIDirect3DTexture8@@XZ:PROC ; CGraphicTexture::GetD3DTexture
EXTRN	?SelectTexture@CGraphicFontTexture@@QAEXK@Z:PROC ; CGraphicFontTexture::SelectTexture
EXTRN	?UpdateTexture@CGraphicFontTexture@@QAE_NXZ:PROC ; CGraphicFontTexture::UpdateTexture
EXTRN	?GetCharacterInfomation@CGraphicFontTexture@@QAEPAUSCharacterInfomation@1@G_W@Z:PROC ; CGraphicFontTexture::GetCharacterInfomation
EXTRN	?GetFontTexturePointer@CGraphicText@@QAEPAVCGraphicFontTexture@@XZ:PROC ; CGraphicText::GetFontTexturePointer
EXTRN	??_ECGraphicTextInstance@@UAEPAXI@Z:PROC	; CGraphicTextInstance::`vector deleting destructor'
EXTRN	?SaveRenderState@CStateManager@@QAEXW4_D3DRENDERSTATETYPE@@K@Z:PROC ; CStateManager::SaveRenderState
EXTRN	?RestoreRenderState@CStateManager@@QAEXW4_D3DRENDERSTATETYPE@@@Z:PROC ; CStateManager::RestoreRenderState
EXTRN	?SetRenderState@CStateManager@@QAEXW4_D3DRENDERSTATETYPE@@K@Z:PROC ; CStateManager::SetRenderState
EXTRN	?SetTexture@CStateManager@@QAEXKPAUIDirect3DBaseTexture8@@@Z:PROC ; CStateManager::SetTexture
EXTRN	?SetTextureStageState@CStateManager@@QAEXKW4_D3DTEXTURESTAGESTATETYPE@@K@Z:PROC ; CStateManager::SetTextureStageState
EXTRN	?SetVertexShader@CStateManager@@QAEXK@Z:PROC	; CStateManager::SetVertexShader
EXTRN	?DrawPrimitive@CStateManager@@QAEJW4_D3DPRIMITIVETYPE@@II@Z:PROC ; CStateManager::DrawPrimitive
EXTRN	?DrawIndexedPrimitive@CStateManager@@QAEJW4_D3DPRIMITIVETYPE@@IIII@Z:PROC ; CStateManager::DrawIndexedPrimitive
EXTRN	?DrawIndexedPrimitiveUP@CStateManager@@QAEJW4_D3DPRIMITIVETYPE@@IIIPBXW4_D3DFORMAT@@1I@Z:PROC ; CStateManager::DrawIndexedPrimitiveUP
EXTRN	?GetRenderState@CStateManager@@QAEKW4_D3DRENDERSTATETYPE@@@Z:PROC ; CStateManager::GetRenderState
EXTRN	?GetCurPos@CIME@@SAHXZ:PROC			; CIME::GetCurPos
EXTRN	?GetCompLen@CIME@@SAHXZ:PROC			; CIME::GetCompLen
EXTRN	?GetULBegin@CIME@@SAHXZ:PROC			; CIME::GetULBegin
EXTRN	?GetULEnd@CIME@@SAHXZ:PROC			; CIME::GetULEnd
EXTRN	?GetTextTag@@YAHPB_WHAAHAAV?$basic_string@_WU?$char_traits@_W@std@@V?$allocator@_W@2@@std@@@Z:PROC ; GetTextTag
EXTRN	?Ymir_WideCharToMultiByte@@YAHIKPB_WHPADHPBDPAH@Z:PROC ; Ymir_WideCharToMultiByte
EXTRN	?Ymir_MultiByteToWideChar@@YAHIKPBDHPA_WH@Z:PROC ; Ymir_MultiByteToWideChar
EXTRN	?Arabic_ConvSymbol@@YA_W_W@Z:PROC		; Arabic_ConvSymbol
EXTRN	?Arabic_IsInSymbol@@YA_N_W@Z:PROC		; Arabic_IsInSymbol
EXTRN	?Arabic_IsInPresentation@@YA_N_W@Z:PROC		; Arabic_IsInPresentation
EXTRN	?Arabic_HasPresentation@@YA_NPA_WH@Z:PROC	; Arabic_HasPresentation
EXTRN	?Arabic_MakeShape@@YAIPA_WI0I@Z:PROC		; Arabic_MakeShape
EXTRN	?GetDefaultCodePage@@YAKXZ:PROC			; GetDefaultCodePage
EXTRN	@__security_check_cookie@4:PROC
EXTRN	__CxxThrowException@8:PROC
EXTRN	___CxxFrameHandler3:PROC
EXTRN	__alloca_probe_16:PROC
EXTRN	__ftoui3:PROC
EXTRN	_memchr:PROC
EXTRN	_memcpy:PROC
EXTRN	_memmove:PROC
EXTRN	___security_cookie:DWORD
EXTRN	__fltused:DWORD
;	COMDAT ?ms_singleton@?$CSingleton@VCStateManager@@@@0PAVCStateManager@@A
_BSS	SEGMENT
?ms_singleton@?$CSingleton@VCStateManager@@@@0PAVCStateManager@@A DD 01H DUP (?) ; CSingleton<CStateManager>::ms_singleton
_BSS	ENDS
_BSS	SEGMENT
?gs_mx@@3HA DD	01H DUP (?)				; gs_mx
?gs_my@@3HA DD	01H DUP (?)				; gs_my
_BSS	ENDS
CRT$XCU	SEGMENT
??ms_kPool$initializer$@CGraphicTextInstance@@2P6AXXZA@@3P6AXXZA DD FLAT:??__E?ms_kPool@CGraphicTextInstance@@2V?$CDynamicPool@VCGraphicTextInstance@@@@A@@YAXXZ ; ??ms_kPool$initializer$@CGraphicTextInstance@@2P6AXXZA@@3P6AXXZA
CRT$XCU	ENDS
;	COMDAT __real@437f0000
CONST	SEGMENT
__real@437f0000 DD 0437f0000r			; 255
CONST	ENDS
;	COMDAT __real@40000000
CONST	SEGMENT
__real@40000000 DD 040000000r			; 2
CONST	ENDS
;	COMDAT __real@3f800000
CONST	SEGMENT
__real@3f800000 DD 03f800000r			; 1
CONST	ENDS
;	COMDAT __real@3f000000
CONST	SEGMENT
__real@3f000000 DD 03f000000r			; 0.5
CONST	ENDS
;	COMDAT ??_R1A@?0A@EA@CGraphicTextInstance@@8
rdata$r	SEGMENT
??_R1A@?0A@EA@CGraphicTextInstance@@8 DD FLAT:??_R0?AVCGraphicTextInstance@@@8 ; CGraphicTextInstance::`RTTI Base Class Descriptor at (0,-1,0,64)'
	DD	00H
	DD	00H
	DD	0ffffffffH
	DD	00H
	DD	040H
	DD	FLAT:??_R3CGraphicTextInstance@@8
rdata$r	ENDS
;	COMDAT ??_R2CGraphicTextInstance@@8
rdata$r	SEGMENT
??_R2CGraphicTextInstance@@8 DD FLAT:??_R1A@?0A@EA@CGraphicTextInstance@@8 ; CGraphicTextInstance::`RTTI Base Class Array'
rdata$r	ENDS
;	COMDAT ??_R3CGraphicTextInstance@@8
rdata$r	SEGMENT
??_R3CGraphicTextInstance@@8 DD 00H			; CGraphicTextInstance::`RTTI Class Hierarchy Descriptor'
	DD	00H
	DD	01H
	DD	FLAT:??_R2CGraphicTextInstance@@8
rdata$r	ENDS
;	COMDAT ??_R0?AVCGraphicTextInstance@@@8
data$rs	SEGMENT
??_R0?AVCGraphicTextInstance@@@8 DD FLAT:??_7type_info@@6B@ ; CGraphicTextInstance `RTTI Type Descriptor'
	DD	00H
	DB	'.?AVCGraphicTextInstance@@', 00H
data$rs	ENDS
;	COMDAT ??_R4CGraphicTextInstance@@6B@
rdata$r	SEGMENT
??_R4CGraphicTextInstance@@6B@ DD 00H			; CGraphicTextInstance::`RTTI Complete Object Locator'
	DD	00H
	DD	00H
	DD	FLAT:??_R0?AVCGraphicTextInstance@@@8
	DD	FLAT:??_R3CGraphicTextInstance@@8
rdata$r	ENDS
;	COMDAT ??_C@_0BA@FOIKENOD@vector?5too?5long@
CONST	SEGMENT
??_C@_0BA@FOIKENOD@vector?5too?5long@ DB 'vector too long', 00H ; `string'
CONST	ENDS
;	COMDAT ??_C@_00CNPNBAHC@@
CONST	SEGMENT
??_C@_00CNPNBAHC@@ DB 00H				; `string'
CONST	ENDS
;	COMDAT ??_C@_0DL@KFHPELNP@CGraphicTextInstance?3?3Update?5?9?5@
CONST	SEGMENT
??_C@_0DL@KFHPELNP@CGraphicTextInstance?3?3Update?5?9?5@ DB 'CGraphicText'
	DB	'Instance::Update - ', 0c6H, 0f9H, 0c6H, 0aeH, 0b0H, 0a1H, ' ', 0bcH
	DB	0b3H, 0c1H, 0a4H, 0b5H, 0c7H, 0c1H, 0f6H, ' ', 0beH, 0caH, 0beH
	DB	0d2H, 0bdH, 0c0H, 0b4H, 0cfH, 0b4H, 0d9H, 0aH, 00H ; `string'
CONST	ENDS
;	COMDAT ??_C@_11LOCGONAA@@
CONST	SEGMENT
??_C@_11LOCGONAA@@ DB 00H, 00H				; `string'
CONST	ENDS
;	COMDAT ??_7CGraphicTextInstance@@6B@
CONST	SEGMENT
??_7CGraphicTextInstance@@6B@ DD FLAT:??_R4CGraphicTextInstance@@6B@ ; CGraphicTextInstance::`vftable'
	DD	FLAT:??_ECGraphicTextInstance@@UAEPAXI@Z
CONST	ENDS
_DATA	SEGMENT
?ms_kPool@CGraphicTextInstance@@2V?$CDynamicPool@VCGraphicTextInstance@@@@A DD FLAT:??_7?$CDynamicPool@VCGraphicTextInstance@@@@6B@ ; CGraphicTextInstance::ms_kPool
	DD	00H
	DD	00H
	DD	00H
	DD	00H
	DD	00H
	DD	00H
	DD	00H
	DD	00H
?gs_hyperlinkText@@3V?$basic_string@_WU?$char_traits@_W@std@@V?$allocator@_W@2@@std@@A DW 00H ; gs_hyperlinkText
	DB	18 DUP(00H)
	DD	07H
_DATA	ENDS
;	COMDAT ??_R1A@?0A@EA@bad_array_new_length@std@@8
rdata$r	SEGMENT
??_R1A@?0A@EA@bad_array_new_length@std@@8 DD FLAT:??_R0?AVbad_array_new_length@std@@@8 ; std::bad_array_new_length::`RTTI Base Class Descriptor at (0,-1,0,64)'
	DD	02H
	DD	00H
	DD	0ffffffffH
	DD	00H
	DD	040H
	DD	FLAT:??_R3bad_array_new_length@std@@8
rdata$r	ENDS
;	COMDAT ??_R2bad_array_new_length@std@@8
rdata$r	SEGMENT
??_R2bad_array_new_length@std@@8 DD FLAT:??_R1A@?0A@EA@bad_array_new_length@std@@8 ; std::bad_array_new_length::`RTTI Base Class Array'
	DD	FLAT:??_R1A@?0A@EA@bad_alloc@std@@8
	DD	FLAT:??_R1A@?0A@EA@exception@std@@8
rdata$r	ENDS
;	COMDAT ??_R3bad_array_new_length@std@@8
rdata$r	SEGMENT
??_R3bad_array_new_length@std@@8 DD 00H			; std::bad_array_new_length::`RTTI Class Hierarchy Descriptor'
	DD	00H
	DD	03H
	DD	FLAT:??_R2bad_array_new_length@std@@8
rdata$r	ENDS
;	COMDAT ??_R4bad_array_new_length@std@@6B@
rdata$r	SEGMENT
??_R4bad_array_new_length@std@@6B@ DD 00H		; std::bad_array_new_length::`RTTI Complete Object Locator'
	DD	00H
	DD	00H
	DD	FLAT:??_R0?AVbad_array_new_length@std@@@8
	DD	FLAT:??_R3bad_array_new_length@std@@8
rdata$r	ENDS
;	COMDAT ??_R1A@?0A@EA@bad_alloc@std@@8
rdata$r	SEGMENT
??_R1A@?0A@EA@bad_alloc@std@@8 DD FLAT:??_R0?AVbad_alloc@std@@@8 ; std::bad_alloc::`RTTI Base Class Descriptor at (0,-1,0,64)'
	DD	01H
	DD	00H
	DD	0ffffffffH
	DD	00H
	DD	040H
	DD	FLAT:??_R3bad_alloc@std@@8
rdata$r	ENDS
;	COMDAT ??_R2bad_alloc@std@@8
rdata$r	SEGMENT
??_R2bad_alloc@std@@8 DD FLAT:??_R1A@?0A@EA@bad_alloc@std@@8 ; std::bad_alloc::`RTTI Base Class Array'
	DD	FLAT:??_R1A@?0A@EA@exception@std@@8
rdata$r	ENDS
;	COMDAT ??_R3bad_alloc@std@@8
rdata$r	SEGMENT
??_R3bad_alloc@std@@8 DD 00H				; std::bad_alloc::`RTTI Class Hierarchy Descriptor'
	DD	00H
	DD	02H
	DD	FLAT:??_R2bad_alloc@std@@8
rdata$r	ENDS
;	COMDAT ??_R4bad_alloc@std@@6B@
rdata$r	SEGMENT
??_R4bad_alloc@std@@6B@ DD 00H				; std::bad_alloc::`RTTI Complete Object Locator'
	DD	00H
	DD	00H
	DD	FLAT:??_R0?AVbad_alloc@std@@@8
	DD	FLAT:??_R3bad_alloc@std@@8
rdata$r	ENDS
;	COMDAT ??_R1A@?0A@EA@exception@std@@8
rdata$r	SEGMENT
??_R1A@?0A@EA@exception@std@@8 DD FLAT:??_R0?AVexception@std@@@8 ; std::exception::`RTTI Base Class Descriptor at (0,-1,0,64)'
	DD	00H
	DD	00H
	DD	0ffffffffH
	DD	00H
	DD	040H
	DD	FLAT:??_R3exception@std@@8
rdata$r	ENDS
;	COMDAT ??_R2exception@std@@8
rdata$r	SEGMENT
??_R2exception@std@@8 DD FLAT:??_R1A@?0A@EA@exception@std@@8 ; std::exception::`RTTI Base Class Array'
rdata$r	ENDS
;	COMDAT ??_R3exception@std@@8
rdata$r	SEGMENT
??_R3exception@std@@8 DD 00H				; std::exception::`RTTI Class Hierarchy Descriptor'
	DD	00H
	DD	01H
	DD	FLAT:??_R2exception@std@@8
rdata$r	ENDS
;	COMDAT ??_R4exception@std@@6B@
rdata$r	SEGMENT
??_R4exception@std@@6B@ DD 00H				; std::exception::`RTTI Complete Object Locator'
	DD	00H
	DD	00H
	DD	FLAT:??_R0?AVexception@std@@@8
	DD	FLAT:??_R3exception@std@@8
rdata$r	ENDS
;	COMDAT ??_C@_0BA@JFNIOLAK@string?5too?5long@
CONST	SEGMENT
??_C@_0BA@JFNIOLAK@string?5too?5long@ DB 'string too long', 00H ; `string'
CONST	ENDS
;	COMDAT __CT??_R0?AVexception@std@@@8??0exception@std@@QAE@ABV01@@Z12
xdata$x	SEGMENT
__CT??_R0?AVexception@std@@@8??0exception@std@@QAE@ABV01@@Z12 DD 00H
	DD	FLAT:??_R0?AVexception@std@@@8
	DD	00H
	DD	0ffffffffH
	ORG $+4
	DD	0cH
	DD	FLAT:??0exception@std@@QAE@ABV01@@Z
xdata$x	ENDS
;	COMDAT ??_R0?AVexception@std@@@8
data$r	SEGMENT
??_R0?AVexception@std@@@8 DD FLAT:??_7type_info@@6B@	; std::exception `RTTI Type Descriptor'
	DD	00H
	DB	'.?AVexception@std@@', 00H
data$r	ENDS
;	COMDAT __CT??_R0?AVbad_alloc@std@@@8??0bad_alloc@std@@QAE@ABV01@@Z12
xdata$x	SEGMENT
__CT??_R0?AVbad_alloc@std@@@8??0bad_alloc@std@@QAE@ABV01@@Z12 DD 010H
	DD	FLAT:??_R0?AVbad_alloc@std@@@8
	DD	00H
	DD	0ffffffffH
	ORG $+4
	DD	0cH
	DD	FLAT:??0bad_alloc@std@@QAE@ABV01@@Z
xdata$x	ENDS
;	COMDAT ??_R0?AVbad_alloc@std@@@8
data$r	SEGMENT
??_R0?AVbad_alloc@std@@@8 DD FLAT:??_7type_info@@6B@	; std::bad_alloc `RTTI Type Descriptor'
	DD	00H
	DB	'.?AVbad_alloc@std@@', 00H
data$r	ENDS
;	COMDAT __CT??_R0?AVbad_array_new_length@std@@@8??0bad_array_new_length@std@@QAE@ABV01@@Z12
xdata$x	SEGMENT
__CT??_R0?AVbad_array_new_length@std@@@8??0bad_array_new_length@std@@QAE@ABV01@@Z12 DD 00H
	DD	FLAT:??_R0?AVbad_array_new_length@std@@@8
	DD	00H
	DD	0ffffffffH
	ORG $+4
	DD	0cH
	DD	FLAT:??0bad_array_new_length@std@@QAE@ABV01@@Z
xdata$x	ENDS
;	COMDAT ??_R0?AVbad_array_new_length@std@@@8
data$r	SEGMENT
??_R0?AVbad_array_new_length@std@@@8 DD FLAT:??_7type_info@@6B@ ; std::bad_array_new_length `RTTI Type Descriptor'
	DD	00H
	DB	'.?AVbad_array_new_length@std@@', 00H
data$r	ENDS
;	COMDAT __CTA3?AVbad_array_new_length@std@@
xdata$x	SEGMENT
__CTA3?AVbad_array_new_length@std@@ DD 03H
	DD	FLAT:__CT??_R0?AVbad_array_new_length@std@@@8??0bad_array_new_length@std@@QAE@ABV01@@Z12
	DD	FLAT:__CT??_R0?AVbad_alloc@std@@@8??0bad_alloc@std@@QAE@ABV01@@Z12
	DD	FLAT:__CT??_R0?AVexception@std@@@8??0exception@std@@QAE@ABV01@@Z12
xdata$x	ENDS
;	COMDAT __TI3?AVbad_array_new_length@std@@
xdata$x	SEGMENT
__TI3?AVbad_array_new_length@std@@ DD 00H
	DD	FLAT:??1bad_array_new_length@std@@UAE@XZ
	DD	00H
	DD	FLAT:__CTA3?AVbad_array_new_length@std@@
xdata$x	ENDS
;	COMDAT ??_C@_0BF@KINCDENJ@bad?5array?5new?5length@
CONST	SEGMENT
??_C@_0BF@KINCDENJ@bad?5array?5new?5length@ DB 'bad array new length', 00H ; `string'
CONST	ENDS
;	COMDAT ??_7bad_array_new_length@std@@6B@
CONST	SEGMENT
??_7bad_array_new_length@std@@6B@ DD FLAT:??_R4bad_array_new_length@std@@6B@ ; std::bad_array_new_length::`vftable'
	DD	FLAT:??_Ebad_array_new_length@std@@UAEPAXI@Z
	DD	FLAT:?what@exception@std@@UBEPBDXZ
CONST	ENDS
;	COMDAT ??_7bad_alloc@std@@6B@
CONST	SEGMENT
??_7bad_alloc@std@@6B@ DD FLAT:??_R4bad_alloc@std@@6B@	; std::bad_alloc::`vftable'
	DD	FLAT:??_Ebad_alloc@std@@UAEPAXI@Z
	DD	FLAT:?what@exception@std@@UBEPBDXZ
CONST	ENDS
;	COMDAT ??_C@_0BC@EOODALEL@Unknown?5exception@
CONST	SEGMENT
??_C@_0BC@EOODALEL@Unknown?5exception@ DB 'Unknown exception', 00H ; `string'
CONST	ENDS
;	COMDAT ??_7exception@std@@6B@
CONST	SEGMENT
??_7exception@std@@6B@ DD FLAT:??_R4exception@std@@6B@	; std::exception::`vftable'
	DD	FLAT:??_Eexception@std@@UAEPAXI@Z
	DD	FLAT:?what@exception@std@@UBEPBDXZ
CONST	ENDS
;	COMDAT xdata$x
xdata$x	SEGMENT
__catchsym$??$_Emplace_reallocate@ABUSHyperlink@CGraphicTextInstance@@@?$vector@USHyperlink@CGraphicTextInstance@@V?$allocator@USHyperlink@CGraphicTextInstance@@@std@@@std@@QAEPAUSHyperlink@CGraphicTextInstance@@QAU23@ABU23@@Z$2 DD 040H
	DD	00H
	DD	00H
	DD	FLAT:__catch$??$_Emplace_reallocate@ABUSHyperlink@CGraphicTextInstance@@@?$vector@USHyperlink@CGraphicTextInstance@@V?$allocator@USHyperlink@CGraphicTextInstance@@@std@@@std@@QAEPAUSHyperlink@CGraphicTextInstance@@QAU23@ABU23@@Z$0
__unwindtable$??$_Emplace_reallocate@ABUSHyperlink@CGraphicTextInstance@@@?$vector@USHyperlink@CGraphicTextInstance@@V?$allocator@USHyperlink@CGraphicTextInstance@@@std@@@std@@QAEPAUSHyperlink@CGraphicTextInstance@@QAU23@ABU23@@Z DD 0ffffffffH
	DD	00H
	DD	0ffffffffH
	DD	00H
__tryblocktable$??$_Emplace_reallocate@ABUSHyperlink@CGraphicTextInstance@@@?$vector@USHyperlink@CGraphicTextInstance@@V?$allocator@USHyperlink@CGraphicTextInstance@@@std@@@std@@QAEPAUSHyperlink@CGraphicTextInstance@@QAU23@ABU23@@Z DD 00H
	DD	00H
	DD	01H
	DD	01H
	DD	FLAT:__catchsym$??$_Emplace_reallocate@ABUSHyperlink@CGraphicTextInstance@@@?$vector@USHyperlink@CGraphicTextInstance@@V?$allocator@USHyperlink@CGraphicTextInstance@@@std@@@std@@QAEPAUSHyperlink@CGraphicTextInstance@@QAU23@ABU23@@Z$2
__ehfuncinfo$??$_Emplace_reallocate@ABUSHyperlink@CGraphicTextInstance@@@?$vector@USHyperlink@CGraphicTextInstance@@V?$allocator@USHyperlink@CGraphicTextInstance@@@std@@@std@@QAEPAUSHyperlink@CGraphicTextInstance@@QAU23@ABU23@@Z DD 019930522H
	DD	02H
	DD	FLAT:__unwindtable$??$_Emplace_reallocate@ABUSHyperlink@CGraphicTextInstance@@@?$vector@USHyperlink@CGraphicTextInstance@@V?$allocator@USHyperlink@CGraphicTextInstance@@@std@@@std@@QAEPAUSHyperlink@CGraphicTextInstance@@QAU23@ABU23@@Z
	DD	01H
	DD	FLAT:__tryblocktable$??$_Emplace_reallocate@ABUSHyperlink@CGraphicTextInstance@@@?$vector@USHyperlink@CGraphicTextInstance@@V?$allocator@USHyperlink@CGraphicTextInstance@@@std@@@std@@QAEPAUSHyperlink@CGraphicTextInstance@@QAU23@ABU23@@Z
	DD	2 DUP(00H)
	DD	00H
	DD	01H
xdata$x	ENDS
;	COMDAT xdata$x
xdata$x	SEGMENT
__unwindtable$?Alloc@?$CDynamicPool@VCGraphicTextInstance@@@@QAEPAVCGraphicTextInstance@@XZ DD 0ffffffffH
	DD	FLAT:__unwindfunclet$?Alloc@?$CDynamicPool@VCGraphicTextInstance@@@@QAEPAVCGraphicTextInstance@@XZ$0
__ehfuncinfo$?Alloc@?$CDynamicPool@VCGraphicTextInstance@@@@QAEPAVCGraphicTextInstance@@XZ DD 019930522H
	DD	01H
	DD	FLAT:__unwindtable$?Alloc@?$CDynamicPool@VCGraphicTextInstance@@@@QAEPAVCGraphicTextInstance@@XZ
	DD	2 DUP(00H)
	DD	2 DUP(00H)
	DD	00H
	DD	01H
xdata$x	ENDS
;	COMDAT xdata$x
xdata$x	SEGMENT
__unwindtable$?New@CGraphicTextInstance@@SAPAV1@XZ DD 0ffffffffH
	DD	FLAT:__unwindfunclet$?New@CGraphicTextInstance@@SAPAV1@XZ$0
__ehfuncinfo$?New@CGraphicTextInstance@@SAPAV1@XZ DD 019930522H
	DD	01H
	DD	FLAT:__unwindtable$?New@CGraphicTextInstance@@SAPAV1@XZ
	DD	2 DUP(00H)
	DD	2 DUP(00H)
	DD	00H
	DD	01H
xdata$x	ENDS
;	COMDAT xdata$x
xdata$x	SEGMENT
__ehfuncinfo$??1?$CRef@VCGraphicText@@@@QAE@XZ DD 019930522H
	DD	00H
	DD	00H
	DD	2 DUP(00H)
	DD	2 DUP(00H)
	DD	00H
	DD	05H
xdata$x	ENDS
;	COMDAT xdata$x
xdata$x	SEGMENT
__unwindtable$?Update@CGraphicTextInstance@@QAEXXZ DD 0ffffffffH
	DD	FLAT:__unwindfunclet$?Update@CGraphicTextInstance@@QAEXXZ$0
	DD	00H
	DD	FLAT:__unwindfunclet$?Update@CGraphicTextInstance@@QAEXXZ$1
	DD	0ffffffffH
	DD	FLAT:__unwindfunclet$?Update@CGraphicTextInstance@@QAEXXZ$2
	DD	02H
	DD	FLAT:__unwindfunclet$?Update@CGraphicTextInstance@@QAEXXZ$3
__ehfuncinfo$?Update@CGraphicTextInstance@@QAEXXZ DD 019930522H
	DD	04H
	DD	FLAT:__unwindtable$?Update@CGraphicTextInstance@@QAEXXZ
	DD	2 DUP(00H)
	DD	2 DUP(00H)
	DD	00H
	DD	01H
xdata$x	ENDS
;	COMDAT xdata$x
xdata$x	SEGMENT
__unwindtable$??1CGraphicTextInstance@@UAE@XZ DD 0ffffffffH
	DD	FLAT:___std_terminate
__ehfuncinfo$??1CGraphicTextInstance@@UAE@XZ DD 019930522H
	DD	01H
	DD	FLAT:__unwindtable$??1CGraphicTextInstance@@UAE@XZ
	DD	2 DUP(00H)
	DD	2 DUP(00H)
	DD	00H
	DD	05H
xdata$x	ENDS
;	COMDAT xdata$x
xdata$x	SEGMENT
__ehfuncinfo$??0CGraphicTextInstance@@QAE@XZ DD 019930522H
	DD	05H
	DD	FLAT:__unwindtable$??0CGraphicTextInstance@@QAE@XZ
	DD	2 DUP(00H)
	DD	2 DUP(00H)
	DD	00H
	DD	01H
__unwindtable$??0CGraphicTextInstance@@QAE@XZ DD 0ffffffffH
	DD	FLAT:__unwindfunclet$??0CGraphicTextInstance@@QAE@XZ$0
	DD	00H
	DD	FLAT:__unwindfunclet$??0CGraphicTextInstance@@QAE@XZ$1
	DD	01H
	DD	FLAT:__unwindfunclet$??0CGraphicTextInstance@@QAE@XZ$2
	DD	02H
	DD	FLAT:__unwindfunclet$??0CGraphicTextInstance@@QAE@XZ$3
	DD	03H
	DD	FLAT:__unwindfunclet$??0CGraphicTextInstance@@QAE@XZ$4
xdata$x	ENDS
CRT$XCU	SEGMENT
?gs_hyperlinkText$initializer$@@3P6AXXZA DD FLAT:??__Egs_hyperlinkText@@YAXXZ ; gs_hyperlinkText$initializer$
CRT$XCU	ENDS
; Function compile flags: /Ogtp
; File C:\Program Files (x86)\Microsoft Visual Studio\2019\Community\VC\Tools\MSVC\14.28.29333\include\xutility
;	COMDAT ??$_Copy_memmove@PAPAUSCharacterInfomation@CGraphicFontTexture@@PAPAU12@@std@@YAPAPAUSCharacterInfomation@CGraphicFontTexture@@PAPAU12@00@Z
_TEXT	SEGMENT
__First$ = 8						; size = 4
__Last$ = 12						; size = 4
__Dest$ = 16						; size = 4
??$_Copy_memmove@PAPAUSCharacterInfomation@CGraphicFontTexture@@PAPAU12@@std@@YAPAPAUSCharacterInfomation@CGraphicFontTexture@@PAPAU12@00@Z PROC ; std::_Copy_memmove<CGraphicFontTexture::SCharacterInfomation * *,CGraphicFontTexture::SCharacterInfomation * *>, COMDAT

; 4360 : _OutIt _Copy_memmove(_InIt _First, _InIt _Last, _OutIt _Dest) {

  00000	55		 push	 ebp
  00001	8b ec		 mov	 ebp, esp

; 4361 :     const char* const _First_ch = const_cast<const char*>(reinterpret_cast<const volatile char*>(_First));
; 4362 :     const char* const _Last_ch  = const_cast<const char*>(reinterpret_cast<const volatile char*>(_Last));
; 4363 :     char* const _Dest_ch        = const_cast<char*>(reinterpret_cast<volatile char*>(_Dest));
; 4364 :     const auto _Count           = static_cast<size_t>(_Last_ch - _First_ch);

  00003	8b 45 08	 mov	 eax, DWORD PTR __First$[ebp]
  00006	56		 push	 esi

; 4365 :     _CSTD memmove(_Dest_ch, _First_ch, _Count);

  00007	8b 75 10	 mov	 esi, DWORD PTR __Dest$[ebp]
  0000a	57		 push	 edi
  0000b	8b 7d 0c	 mov	 edi, DWORD PTR __Last$[ebp]
  0000e	2b f8		 sub	 edi, eax
  00010	57		 push	 edi
  00011	50		 push	 eax
  00012	56		 push	 esi
  00013	e8 00 00 00 00	 call	 _memmove
  00018	83 c4 0c	 add	 esp, 12			; 0000000cH

; 4366 :     return reinterpret_cast<_OutIt>(_Dest_ch + _Count);

  0001b	8d 04 37	 lea	 eax, DWORD PTR [edi+esi]
  0001e	5f		 pop	 edi
  0001f	5e		 pop	 esi

; 4367 : }

  00020	5d		 pop	 ebp
  00021	c3		 ret	 0
??$_Copy_memmove@PAPAUSCharacterInfomation@CGraphicFontTexture@@PAPAU12@@std@@YAPAPAUSCharacterInfomation@CGraphicFontTexture@@PAPAU12@00@Z ENDP ; std::_Copy_memmove<CGraphicFontTexture::SCharacterInfomation * *,CGraphicFontTexture::SCharacterInfomation * *>
_TEXT	ENDS
; Function compile flags: /Ogtp
; File C:\Program Files (x86)\Microsoft Visual Studio\2019\Community\VC\Tools\MSVC\14.28.29333\include\xutility
;	COMDAT ??$_Copy_memmove@PAKPAK@std@@YAPAKPAK00@Z
_TEXT	SEGMENT
__First$ = 8						; size = 4
__Last$ = 12						; size = 4
__Dest$ = 16						; size = 4
??$_Copy_memmove@PAKPAK@std@@YAPAKPAK00@Z PROC		; std::_Copy_memmove<unsigned long *,unsigned long *>, COMDAT

; 4360 : _OutIt _Copy_memmove(_InIt _First, _InIt _Last, _OutIt _Dest) {

  00000	55		 push	 ebp
  00001	8b ec		 mov	 ebp, esp

; 4361 :     const char* const _First_ch = const_cast<const char*>(reinterpret_cast<const volatile char*>(_First));
; 4362 :     const char* const _Last_ch  = const_cast<const char*>(reinterpret_cast<const volatile char*>(_Last));
; 4363 :     char* const _Dest_ch        = const_cast<char*>(reinterpret_cast<volatile char*>(_Dest));
; 4364 :     const auto _Count           = static_cast<size_t>(_Last_ch - _First_ch);

  00003	8b 45 08	 mov	 eax, DWORD PTR __First$[ebp]
  00006	56		 push	 esi

; 4365 :     _CSTD memmove(_Dest_ch, _First_ch, _Count);

  00007	8b 75 10	 mov	 esi, DWORD PTR __Dest$[ebp]
  0000a	57		 push	 edi
  0000b	8b 7d 0c	 mov	 edi, DWORD PTR __Last$[ebp]
  0000e	2b f8		 sub	 edi, eax
  00010	57		 push	 edi
  00011	50		 push	 eax
  00012	56		 push	 esi
  00013	e8 00 00 00 00	 call	 _memmove
  00018	83 c4 0c	 add	 esp, 12			; 0000000cH

; 4366 :     return reinterpret_cast<_OutIt>(_Dest_ch + _Count);

  0001b	8d 04 37	 lea	 eax, DWORD PTR [edi+esi]
  0001e	5f		 pop	 edi
  0001f	5e		 pop	 esi

; 4367 : }

  00020	5d		 pop	 ebp
  00021	c3		 ret	 0
??$_Copy_memmove@PAKPAK@std@@YAPAKPAK00@Z ENDP		; std::_Copy_memmove<unsigned long *,unsigned long *>
_TEXT	ENDS
; Function compile flags: /Ogtp
; File C:\Program Files (x86)\Microsoft Visual Studio\2019\Community\VC\Tools\MSVC\14.28.29333\include\xmemory
;	COMDAT ??$_Uninitialized_move@PAPAUSCharacterInfomation@CGraphicFontTexture@@V?$allocator@PAUSCharacterInfomation@CGraphicFontTexture@@@std@@@std@@YAPAPAUSCharacterInfomation@CGraphicFontTexture@@QAPAU12@0PAPAU12@AAV?$allocator@PAUSCharacterInfomation@CGraphicFontTexture@@@0@@Z
_TEXT	SEGMENT
__First$ = 8						; size = 4
__Last$ = 12						; size = 4
__Dest$ = 16						; size = 4
__Al$ = 20						; size = 4
??$_Uninitialized_move@PAPAUSCharacterInfomation@CGraphicFontTexture@@V?$allocator@PAUSCharacterInfomation@CGraphicFontTexture@@@std@@@std@@YAPAPAUSCharacterInfomation@CGraphicFontTexture@@QAPAU12@0PAPAU12@AAV?$allocator@PAUSCharacterInfomation@CGraphicFontTexture@@@0@@Z PROC ; std::_Uninitialized_move<CGraphicFontTexture::SCharacterInfomation * *,std::allocator<CGraphicFontTexture::SCharacterInfomation *> >, COMDAT

; 1685 :     const _InIt _First, const _InIt _Last, _Alloc_ptr_t<_Alloc> _Dest, _Alloc& _Al) {

  00000	55		 push	 ebp
  00001	8b ec		 mov	 ebp, esp
  00003	53		 push	 ebx

; 1686 :     // move [_First, _Last) to raw _Dest, using _Al
; 1687 :     // note: only called internally from elsewhere in the STL
; 1688 :     using _Ptrval     = typename _Alloc::value_type*;
; 1689 :     auto _UFirst      = _Get_unwrapped(_First);
; 1690 :     const auto _ULast = _Get_unwrapped(_Last);
; 1691 :     if constexpr (conjunction_v<bool_constant<_Ptr_move_cat<decltype(_UFirst), _Ptrval>::_Really_trivial>,
; 1692 :                       _Uses_default_construct<_Alloc, _Ptrval, decltype(_STD move(*_UFirst))>>) {
; 1693 :         _Copy_memmove(_UFirst, _ULast, _Unfancy(_Dest));

  00004	8b 5d 10	 mov	 ebx, DWORD PTR __Dest$[ebp]
  00007	57		 push	 edi
  00008	8b 7d 0c	 mov	 edi, DWORD PTR __Last$[ebp]
  0000b	53		 push	 ebx
  0000c	57		 push	 edi
  0000d	ff 75 08	 push	 DWORD PTR __First$[ebp]
  00010	e8 00 00 00 00	 call	 ??$_Copy_memmove@PAPAUSCharacterInfomation@CGraphicFontTexture@@PAPAU12@@std@@YAPAPAUSCharacterInfomation@CGraphicFontTexture@@PAPAU12@00@Z ; std::_Copy_memmove<CGraphicFontTexture::SCharacterInfomation * *,CGraphicFontTexture::SCharacterInfomation * *>

; 1694 :         return _Dest + (_ULast - _UFirst);

  00015	2b 7d 08	 sub	 edi, DWORD PTR __First$[ebp]
  00018	83 c4 0c	 add	 esp, 12			; 0000000cH
  0001b	c1 ff 02	 sar	 edi, 2
  0001e	8d 04 bb	 lea	 eax, DWORD PTR [ebx+edi*4]
  00021	5f		 pop	 edi
  00022	5b		 pop	 ebx

; 1695 :     } else {
; 1696 :         _Uninitialized_backout_al<_Alloc> _Backout{_Dest, _Al};
; 1697 :         for (; _UFirst != _ULast; ++_UFirst) {
; 1698 :             _Backout._Emplace_back(_STD move(*_UFirst));
; 1699 :         }
; 1700 : 
; 1701 :         return _Backout._Release();
; 1702 :     }
; 1703 : }

  00023	5d		 pop	 ebp
  00024	c3		 ret	 0
??$_Uninitialized_move@PAPAUSCharacterInfomation@CGraphicFontTexture@@V?$allocator@PAUSCharacterInfomation@CGraphicFontTexture@@@std@@@std@@YAPAPAUSCharacterInfomation@CGraphicFontTexture@@QAPAU12@0PAPAU12@AAV?$allocator@PAUSCharacterInfomation@CGraphicFontTexture@@@0@@Z ENDP ; std::_Uninitialized_move<CGraphicFontTexture::SCharacterInfomation * *,std::allocator<CGraphicFontTexture::SCharacterInfomation *> >
_TEXT	ENDS
; Function compile flags: /Ogtp
; File C:\Program Files (x86)\Microsoft Visual Studio\2019\Community\VC\Tools\MSVC\14.28.29333\include\xmemory
;	COMDAT ??$_Uninitialized_move@PAKV?$allocator@K@std@@@std@@YAPAKQAK0PAKAAV?$allocator@K@0@@Z
_TEXT	SEGMENT
__First$ = 8						; size = 4
__Last$ = 12						; size = 4
__Dest$ = 16						; size = 4
__Al$ = 20						; size = 4
??$_Uninitialized_move@PAKV?$allocator@K@std@@@std@@YAPAKQAK0PAKAAV?$allocator@K@0@@Z PROC ; std::_Uninitialized_move<unsigned long *,std::allocator<unsigned long> >, COMDAT

; 1685 :     const _InIt _First, const _InIt _Last, _Alloc_ptr_t<_Alloc> _Dest, _Alloc& _Al) {

  00000	55		 push	 ebp
  00001	8b ec		 mov	 ebp, esp
  00003	53		 push	 ebx

; 1686 :     // move [_First, _Last) to raw _Dest, using _Al
; 1687 :     // note: only called internally from elsewhere in the STL
; 1688 :     using _Ptrval     = typename _Alloc::value_type*;
; 1689 :     auto _UFirst      = _Get_unwrapped(_First);
; 1690 :     const auto _ULast = _Get_unwrapped(_Last);
; 1691 :     if constexpr (conjunction_v<bool_constant<_Ptr_move_cat<decltype(_UFirst), _Ptrval>::_Really_trivial>,
; 1692 :                       _Uses_default_construct<_Alloc, _Ptrval, decltype(_STD move(*_UFirst))>>) {
; 1693 :         _Copy_memmove(_UFirst, _ULast, _Unfancy(_Dest));

  00004	8b 5d 10	 mov	 ebx, DWORD PTR __Dest$[ebp]
  00007	57		 push	 edi
  00008	8b 7d 0c	 mov	 edi, DWORD PTR __Last$[ebp]
  0000b	53		 push	 ebx
  0000c	57		 push	 edi
  0000d	ff 75 08	 push	 DWORD PTR __First$[ebp]
  00010	e8 00 00 00 00	 call	 ??$_Copy_memmove@PAKPAK@std@@YAPAKPAK00@Z ; std::_Copy_memmove<unsigned long *,unsigned long *>

; 1694 :         return _Dest + (_ULast - _UFirst);

  00015	2b 7d 08	 sub	 edi, DWORD PTR __First$[ebp]
  00018	83 c4 0c	 add	 esp, 12			; 0000000cH
  0001b	c1 ff 02	 sar	 edi, 2
  0001e	8d 04 bb	 lea	 eax, DWORD PTR [ebx+edi*4]
  00021	5f		 pop	 edi
  00022	5b		 pop	 ebx

; 1695 :     } else {
; 1696 :         _Uninitialized_backout_al<_Alloc> _Backout{_Dest, _Al};
; 1697 :         for (; _UFirst != _ULast; ++_UFirst) {
; 1698 :             _Backout._Emplace_back(_STD move(*_UFirst));
; 1699 :         }
; 1700 : 
; 1701 :         return _Backout._Release();
; 1702 :     }
; 1703 : }

  00023	5d		 pop	 ebp
  00024	c3		 ret	 0
??$_Uninitialized_move@PAKV?$allocator@K@std@@@std@@YAPAKQAK0PAKAAV?$allocator@K@0@@Z ENDP ; std::_Uninitialized_move<unsigned long *,std::allocator<unsigned long> >
_TEXT	ENDS
; Function compile flags: /Ogtp
; File C:\Program Files (x86)\Microsoft Visual Studio\2019\Community\VC\Tools\MSVC\14.28.29333\include\xmemory
; File C:\Program Files (x86)\Microsoft Visual Studio\2019\Community\VC\Tools\MSVC\14.28.29333\include\xstring
; File C:\Program Files (x86)\Microsoft Visual Studio\2019\Community\VC\Tools\MSVC\14.28.29333\include\xmemory
; File C:\Program Files (x86)\Microsoft Visual Studio\2019\Community\VC\Tools\MSVC\14.28.29333\include\xstring
; File C:\Program Files (x86)\Microsoft Visual Studio\2019\Community\VC\Tools\MSVC\14.28.29333\include\xmemory
; File C:\Program Files (x86)\Microsoft Visual Studio\2019\Community\VC\Tools\MSVC\14.28.29333\include\xstring
; File C:\Program Files (x86)\Microsoft Visual Studio\2019\Community\VC\Tools\MSVC\14.28.29333\include\xmemory
;	COMDAT ??$_Uninitialized_move@PAUSHyperlink@CGraphicTextInstance@@V?$allocator@USHyperlink@CGraphicTextInstance@@@std@@@std@@YAPAUSHyperlink@CGraphicTextInstance@@QAU12@0PAU12@AAV?$allocator@USHyperlink@CGraphicTextInstance@@@0@@Z
_TEXT	SEGMENT
__First$ = 8						; size = 4
__Last$ = 12						; size = 4
__Dest$ = 16						; size = 4
__Al$ = 20						; size = 4
??$_Uninitialized_move@PAUSHyperlink@CGraphicTextInstance@@V?$allocator@USHyperlink@CGraphicTextInstance@@@std@@@std@@YAPAUSHyperlink@CGraphicTextInstance@@QAU12@0PAU12@AAV?$allocator@USHyperlink@CGraphicTextInstance@@@0@@Z PROC ; std::_Uninitialized_move<CGraphicTextInstance::SHyperlink *,std::allocator<CGraphicTextInstance::SHyperlink> >, COMDAT

; 1685 :     const _InIt _First, const _InIt _Last, _Alloc_ptr_t<_Alloc> _Dest, _Alloc& _Al) {

  00000	55		 push	 ebp
  00001	8b ec		 mov	 ebp, esp

; 1697 :         for (; _UFirst != _ULast; ++_UFirst) {

  00003	8b 4d 08	 mov	 ecx, DWORD PTR __First$[ebp]
  00006	56		 push	 esi

; 1535 :     _Uninitialized_backout_al(pointer _Dest, _Alloc& _Al_) : _First(_Dest), _Last(_Dest), _Al(_Al_) {}

  00007	8b 75 10	 mov	 esi, DWORD PTR __Dest$[ebp]

; 1685 :     const _InIt _First, const _InIt _Last, _Alloc_ptr_t<_Alloc> _Dest, _Alloc& _Al) {

  0000a	57		 push	 edi

; 1697 :         for (; _UFirst != _ULast; ++_UFirst) {

  0000b	8b 7d 0c	 mov	 edi, DWORD PTR __Last$[ebp]
  0000e	3b cf		 cmp	 ecx, edi
  00010	74 5f		 je	 SHORT $LN3@Uninitiali

; 1535 :     _Uninitialized_backout_al(pointer _Dest, _Alloc& _Al_) : _First(_Dest), _Last(_Dest), _Al(_Al_) {}

  00012	8b d6		 mov	 edx, esi
  00014	8d 41 18	 lea	 eax, DWORD PTR [ecx+24]
  00017	2b d1		 sub	 edx, ecx
  00019	0f 1f 80 00 00
	00 00		 npad	 7
$LL4@Uninitiali:
  00020	0f b7 48 e8	 movzx	 ecx, WORD PTR [eax-24]

; 1547 :         ++_Last;

  00024	8d 40 1c	 lea	 eax, DWORD PTR [eax+28]
  00027	66 89 0e	 mov	 WORD PTR [esi], cx
  0002a	0f b7 48 ce	 movzx	 ecx, WORD PTR [eax-50]
  0002e	66 89 4e 02	 mov	 WORD PTR [esi+2], cx
; File C:\Program Files (x86)\Microsoft Visual Studio\2019\Community\VC\Tools\MSVC\14.28.29333\include\xstring

; 4380 :         _Traits::assign(_Mypair._Myval2._Bx._Buf[0], _Elem());

  00032	33 c9		 xor	 ecx, ecx

; 2198 :     _String_val() noexcept : _Bx(), _Mysize(0), _Myres(0) {}

  00034	c7 46 14 00 00
	00 00		 mov	 DWORD PTR [esi+20], 0
  0003b	c7 44 02 e4 00
	00 00 00	 mov	 DWORD PTR [edx+eax-28], 0

; 2684 :         _CSTD memcpy(_My_data_mem, _Right_data_mem, _Memcpy_val_size);

  00043	0f 10 40 d0	 movups	 xmm0, XMMWORD PTR [eax-48]
  00047	0f 11 46 04	 movups	 XMMWORD PTR [esi+4], xmm0
  0004b	f3 0f 7e 40 e0	 movq	 xmm0, QWORD PTR [eax-32]
  00050	66 0f d6 46 14	 movq	 QWORD PTR [esi+20], xmm0
; File C:\Program Files (x86)\Microsoft Visual Studio\2019\Community\VC\Tools\MSVC\14.28.29333\include\xmemory

; 1547 :         ++_Last;

  00055	83 c6 1c	 add	 esi, 28			; 0000001cH
; File C:\Program Files (x86)\Microsoft Visual Studio\2019\Community\VC\Tools\MSVC\14.28.29333\include\xstring

; 4380 :         _Traits::assign(_Mypair._Myval2._Bx._Buf[0], _Elem());

  00058	66 89 48 d0	 mov	 WORD PTR [eax-48], cx
; File C:\Program Files (x86)\Microsoft Visual Studio\2019\Community\VC\Tools\MSVC\14.28.29333\include\xmemory

; 1697 :         for (; _UFirst != _ULast; ++_UFirst) {

  0005c	8d 48 e8	 lea	 ecx, DWORD PTR [eax-24]
; File C:\Program Files (x86)\Microsoft Visual Studio\2019\Community\VC\Tools\MSVC\14.28.29333\include\xstring

; 4377 :         _Mypair._Myval2._Mysize = 0;

  0005f	c7 40 e0 00 00
	00 00		 mov	 DWORD PTR [eax-32], 0

; 4378 :         _Mypair._Myval2._Myres  = _BUF_SIZE - 1;

  00066	c7 40 e4 07 00
	00 00		 mov	 DWORD PTR [eax-28], 7
; File C:\Program Files (x86)\Microsoft Visual Studio\2019\Community\VC\Tools\MSVC\14.28.29333\include\xmemory

; 1697 :         for (; _UFirst != _ULast; ++_UFirst) {

  0006d	3b cf		 cmp	 ecx, edi
  0006f	75 af		 jne	 SHORT $LL4@Uninitiali
$LN3@Uninitiali:

; 1541 :         _Destroy_range(_First, _Last, _Al);

  00071	ff 75 14	 push	 DWORD PTR __Al$[ebp]
  00074	56		 push	 esi
  00075	56		 push	 esi
  00076	e8 00 00 00 00	 call	 ??$_Destroy_range@V?$allocator@USHyperlink@CGraphicTextInstance@@@std@@@std@@YAXPAUSHyperlink@CGraphicTextInstance@@QAU12@AAV?$allocator@USHyperlink@CGraphicTextInstance@@@0@@Z ; std::_Destroy_range<std::allocator<CGraphicTextInstance::SHyperlink> >
  0007b	83 c4 0c	 add	 esp, 12			; 0000000cH

; 1698 :             _Backout._Emplace_back(_STD move(*_UFirst));
; 1699 :         }
; 1700 : 
; 1701 :         return _Backout._Release();

  0007e	8b c6		 mov	 eax, esi
  00080	5f		 pop	 edi
  00081	5e		 pop	 esi

; 1702 :     }
; 1703 : }

  00082	5d		 pop	 ebp
  00083	c3		 ret	 0
??$_Uninitialized_move@PAUSHyperlink@CGraphicTextInstance@@V?$allocator@USHyperlink@CGraphicTextInstance@@@std@@@std@@YAPAUSHyperlink@CGraphicTextInstance@@QAU12@0PAU12@AAV?$allocator@USHyperlink@CGraphicTextInstance@@@0@@Z ENDP ; std::_Uninitialized_move<CGraphicTextInstance::SHyperlink *,std::allocator<CGraphicTextInstance::SHyperlink> >
_TEXT	ENDS
; Function compile flags: /Ogtp
; File C:\Program Files (x86)\Microsoft Visual Studio\2019\Community\VC\Tools\MSVC\14.28.29333\include\xutility
;	COMDAT ??$_Copy_memmove@PAPAVCGraphicTextInstance@@PAPAV1@@std@@YAPAPAVCGraphicTextInstance@@PAPAV1@00@Z
_TEXT	SEGMENT
__First$ = 8						; size = 4
__Last$ = 12						; size = 4
__Dest$ = 16						; size = 4
??$_Copy_memmove@PAPAVCGraphicTextInstance@@PAPAV1@@std@@YAPAPAVCGraphicTextInstance@@PAPAV1@00@Z PROC ; std::_Copy_memmove<CGraphicTextInstance * *,CGraphicTextInstance * *>, COMDAT

; 4360 : _OutIt _Copy_memmove(_InIt _First, _InIt _Last, _OutIt _Dest) {

  00000	55		 push	 ebp
  00001	8b ec		 mov	 ebp, esp

; 4361 :     const char* const _First_ch = const_cast<const char*>(reinterpret_cast<const volatile char*>(_First));
; 4362 :     const char* const _Last_ch  = const_cast<const char*>(reinterpret_cast<const volatile char*>(_Last));
; 4363 :     char* const _Dest_ch        = const_cast<char*>(reinterpret_cast<volatile char*>(_Dest));
; 4364 :     const auto _Count           = static_cast<size_t>(_Last_ch - _First_ch);

  00003	8b 45 08	 mov	 eax, DWORD PTR __First$[ebp]
  00006	56		 push	 esi

; 4365 :     _CSTD memmove(_Dest_ch, _First_ch, _Count);

  00007	8b 75 10	 mov	 esi, DWORD PTR __Dest$[ebp]
  0000a	57		 push	 edi
  0000b	8b 7d 0c	 mov	 edi, DWORD PTR __Last$[ebp]
  0000e	2b f8		 sub	 edi, eax
  00010	57		 push	 edi
  00011	50		 push	 eax
  00012	56		 push	 esi
  00013	e8 00 00 00 00	 call	 _memmove
  00018	83 c4 0c	 add	 esp, 12			; 0000000cH

; 4366 :     return reinterpret_cast<_OutIt>(_Dest_ch + _Count);

  0001b	8d 04 37	 lea	 eax, DWORD PTR [edi+esi]
  0001e	5f		 pop	 edi
  0001f	5e		 pop	 esi

; 4367 : }

  00020	5d		 pop	 ebp
  00021	c3		 ret	 0
??$_Copy_memmove@PAPAVCGraphicTextInstance@@PAPAV1@@std@@YAPAPAVCGraphicTextInstance@@PAPAV1@00@Z ENDP ; std::_Copy_memmove<CGraphicTextInstance * *,CGraphicTextInstance * *>
_TEXT	ENDS
; Function compile flags: /Ogtp
; File C:\Program Files (x86)\Microsoft Visual Studio\2019\Community\VC\Tools\MSVC\14.28.29333\include\xmemory
;	COMDAT ??$_Uninitialized_move@PAPAVCGraphicTextInstance@@V?$allocator@PAVCGraphicTextInstance@@@std@@@std@@YAPAPAVCGraphicTextInstance@@QAPAV1@0PAPAV1@AAV?$allocator@PAVCGraphicTextInstance@@@0@@Z
_TEXT	SEGMENT
__First$ = 8						; size = 4
__Last$ = 12						; size = 4
__Dest$ = 16						; size = 4
__Al$ = 20						; size = 4
??$_Uninitialized_move@PAPAVCGraphicTextInstance@@V?$allocator@PAVCGraphicTextInstance@@@std@@@std@@YAPAPAVCGraphicTextInstance@@QAPAV1@0PAPAV1@AAV?$allocator@PAVCGraphicTextInstance@@@0@@Z PROC ; std::_Uninitialized_move<CGraphicTextInstance * *,std::allocator<CGraphicTextInstance *> >, COMDAT

; 1685 :     const _InIt _First, const _InIt _Last, _Alloc_ptr_t<_Alloc> _Dest, _Alloc& _Al) {

  00000	55		 push	 ebp
  00001	8b ec		 mov	 ebp, esp
  00003	53		 push	 ebx

; 1686 :     // move [_First, _Last) to raw _Dest, using _Al
; 1687 :     // note: only called internally from elsewhere in the STL
; 1688 :     using _Ptrval     = typename _Alloc::value_type*;
; 1689 :     auto _UFirst      = _Get_unwrapped(_First);
; 1690 :     const auto _ULast = _Get_unwrapped(_Last);
; 1691 :     if constexpr (conjunction_v<bool_constant<_Ptr_move_cat<decltype(_UFirst), _Ptrval>::_Really_trivial>,
; 1692 :                       _Uses_default_construct<_Alloc, _Ptrval, decltype(_STD move(*_UFirst))>>) {
; 1693 :         _Copy_memmove(_UFirst, _ULast, _Unfancy(_Dest));

  00004	8b 5d 10	 mov	 ebx, DWORD PTR __Dest$[ebp]
  00007	57		 push	 edi
  00008	8b 7d 0c	 mov	 edi, DWORD PTR __Last$[ebp]
  0000b	53		 push	 ebx
  0000c	57		 push	 edi
  0000d	ff 75 08	 push	 DWORD PTR __First$[ebp]
  00010	e8 00 00 00 00	 call	 ??$_Copy_memmove@PAPAVCGraphicTextInstance@@PAPAV1@@std@@YAPAPAVCGraphicTextInstance@@PAPAV1@00@Z ; std::_Copy_memmove<CGraphicTextInstance * *,CGraphicTextInstance * *>

; 1694 :         return _Dest + (_ULast - _UFirst);

  00015	2b 7d 08	 sub	 edi, DWORD PTR __First$[ebp]
  00018	83 c4 0c	 add	 esp, 12			; 0000000cH
  0001b	c1 ff 02	 sar	 edi, 2
  0001e	8d 04 bb	 lea	 eax, DWORD PTR [ebx+edi*4]
  00021	5f		 pop	 edi
  00022	5b		 pop	 ebx

; 1695 :     } else {
; 1696 :         _Uninitialized_backout_al<_Alloc> _Backout{_Dest, _Al};
; 1697 :         for (; _UFirst != _ULast; ++_UFirst) {
; 1698 :             _Backout._Emplace_back(_STD move(*_UFirst));
; 1699 :         }
; 1700 : 
; 1701 :         return _Backout._Release();
; 1702 :     }
; 1703 : }

  00023	5d		 pop	 ebp
  00024	c3		 ret	 0
??$_Uninitialized_move@PAPAVCGraphicTextInstance@@V?$allocator@PAVCGraphicTextInstance@@@std@@@std@@YAPAPAVCGraphicTextInstance@@QAPAV1@0PAPAV1@AAV?$allocator@PAVCGraphicTextInstance@@@0@@Z ENDP ; std::_Uninitialized_move<CGraphicTextInstance * *,std::allocator<CGraphicTextInstance *> >
_TEXT	ENDS
; Function compile flags: /Ogtp
; File C:\Program Files (x86)\Microsoft Visual Studio\2019\Community\VC\Tools\MSVC\14.28.29333\include\xmemory
;	COMDAT ??$_Destroy_range@V?$allocator@PAVCGraphicTextInstance@@@std@@@std@@YAXPAPAVCGraphicTextInstance@@QAPAV1@AAV?$allocator@PAVCGraphicTextInstance@@@0@@Z
_TEXT	SEGMENT
__First$ = 8						; size = 4
__Last$ = 12						; size = 4
__Al$ = 16						; size = 4
??$_Destroy_range@V?$allocator@PAVCGraphicTextInstance@@@std@@@std@@YAXPAPAVCGraphicTextInstance@@QAPAV1@AAV?$allocator@PAVCGraphicTextInstance@@@0@@Z PROC ; std::_Destroy_range<std::allocator<CGraphicTextInstance *> >, COMDAT

; 963  :     // note that this is an optimization for debug mode codegen; in release mode the BE removes all of this
; 964  :     using _Ty = typename _Alloc::value_type;
; 965  :     if _CONSTEXPR_IF (!conjunction_v<is_trivially_destructible<_Ty>, _Uses_default_destroy<_Alloc, _Ty*>>) {
; 966  :         for (; _First != _Last; ++_First) {
; 967  :             allocator_traits<_Alloc>::destroy(_Al, _Unfancy(_First));
; 968  :         }
; 969  :     }
; 970  : }

  00000	c2 00 00	 ret	 0
??$_Destroy_range@V?$allocator@PAVCGraphicTextInstance@@@std@@@std@@YAXPAPAVCGraphicTextInstance@@QAPAV1@AAV?$allocator@PAVCGraphicTextInstance@@@0@@Z ENDP ; std::_Destroy_range<std::allocator<CGraphicTextInstance *> >
_TEXT	ENDS
; Function compile flags: /Ogtp
; File C:\Program Files (x86)\Microsoft Visual Studio\2019\Community\VC\Tools\MSVC\14.28.29333\include\xmemory
;	COMDAT ??$_Pocca@V?$allocator@D@std@@@std@@YAXAAV?$allocator@D@0@ABV10@@Z
_TEXT	SEGMENT
__Left$ = 8						; size = 4
__Right$ = 12						; size = 4
??$_Pocca@V?$allocator@D@std@@@std@@YAXAAV?$allocator@D@0@ABV10@@Z PROC ; std::_Pocca<std::allocator<char> >, COMDAT

; 886  :     if constexpr (allocator_traits<_Alloc>::propagate_on_container_copy_assignment::value) {
; 887  :         _Left = _Right;
; 888  :     }
; 889  : }

  00000	c2 00 00	 ret	 0
??$_Pocca@V?$allocator@D@std@@@std@@YAXAAV?$allocator@D@0@ABV10@@Z ENDP ; std::_Pocca<std::allocator<char> >
_TEXT	ENDS
; Function compile flags: /Ogtp
; File C:\Program Files (x86)\Microsoft Visual Studio\2019\Community\VC\Tools\MSVC\14.28.29333\include\xmemory
;	COMDAT ??$_Pocca@V?$allocator@_W@std@@@std@@YAXAAV?$allocator@_W@0@ABV10@@Z
_TEXT	SEGMENT
__Left$ = 8						; size = 4
__Right$ = 12						; size = 4
??$_Pocca@V?$allocator@_W@std@@@std@@YAXAAV?$allocator@_W@0@ABV10@@Z PROC ; std::_Pocca<std::allocator<wchar_t> >, COMDAT

; 886  :     if constexpr (allocator_traits<_Alloc>::propagate_on_container_copy_assignment::value) {
; 887  :         _Left = _Right;
; 888  :     }
; 889  : }

  00000	c2 00 00	 ret	 0
??$_Pocca@V?$allocator@_W@std@@@std@@YAXAAV?$allocator@_W@0@ABV10@@Z ENDP ; std::_Pocca<std::allocator<wchar_t> >
_TEXT	ENDS
; Function compile flags: /Ogtp
; File C:\Program Files (x86)\Microsoft Visual Studio\2019\Community\VC\Tools\MSVC\14.28.29333\include\xmemory
;	COMDAT ??$_Destroy_range@V?$allocator@PAUSCharacterInfomation@CGraphicFontTexture@@@std@@@std@@YAXPAPAUSCharacterInfomation@CGraphicFontTexture@@QAPAU12@AAV?$allocator@PAUSCharacterInfomation@CGraphicFontTexture@@@0@@Z
_TEXT	SEGMENT
__First$ = 8						; size = 4
__Last$ = 12						; size = 4
__Al$ = 16						; size = 4
??$_Destroy_range@V?$allocator@PAUSCharacterInfomation@CGraphicFontTexture@@@std@@@std@@YAXPAPAUSCharacterInfomation@CGraphicFontTexture@@QAPAU12@AAV?$allocator@PAUSCharacterInfomation@CGraphicFontTexture@@@0@@Z PROC ; std::_Destroy_range<std::allocator<CGraphicFontTexture::SCharacterInfomation *> >, COMDAT

; 963  :     // note that this is an optimization for debug mode codegen; in release mode the BE removes all of this
; 964  :     using _Ty = typename _Alloc::value_type;
; 965  :     if _CONSTEXPR_IF (!conjunction_v<is_trivially_destructible<_Ty>, _Uses_default_destroy<_Alloc, _Ty*>>) {
; 966  :         for (; _First != _Last; ++_First) {
; 967  :             allocator_traits<_Alloc>::destroy(_Al, _Unfancy(_First));
; 968  :         }
; 969  :     }
; 970  : }

  00000	c2 00 00	 ret	 0
??$_Destroy_range@V?$allocator@PAUSCharacterInfomation@CGraphicFontTexture@@@std@@@std@@YAXPAPAUSCharacterInfomation@CGraphicFontTexture@@QAPAU12@AAV?$allocator@PAUSCharacterInfomation@CGraphicFontTexture@@@0@@Z ENDP ; std::_Destroy_range<std::allocator<CGraphicFontTexture::SCharacterInfomation *> >
_TEXT	ENDS
; Function compile flags: /Ogtp
; File C:\Program Files (x86)\Microsoft Visual Studio\2019\Community\VC\Tools\MSVC\14.28.29333\include\xmemory
;	COMDAT ??$_Destroy_range@V?$allocator@K@std@@@std@@YAXPAKQAKAAV?$allocator@K@0@@Z
_TEXT	SEGMENT
__First$ = 8						; size = 4
__Last$ = 12						; size = 4
__Al$ = 16						; size = 4
??$_Destroy_range@V?$allocator@K@std@@@std@@YAXPAKQAKAAV?$allocator@K@0@@Z PROC ; std::_Destroy_range<std::allocator<unsigned long> >, COMDAT

; 963  :     // note that this is an optimization for debug mode codegen; in release mode the BE removes all of this
; 964  :     using _Ty = typename _Alloc::value_type;
; 965  :     if _CONSTEXPR_IF (!conjunction_v<is_trivially_destructible<_Ty>, _Uses_default_destroy<_Alloc, _Ty*>>) {
; 966  :         for (; _First != _Last; ++_First) {
; 967  :             allocator_traits<_Alloc>::destroy(_Al, _Unfancy(_First));
; 968  :         }
; 969  :     }
; 970  : }

  00000	c2 00 00	 ret	 0
??$_Destroy_range@V?$allocator@K@std@@@std@@YAXPAKQAKAAV?$allocator@K@0@@Z ENDP ; std::_Destroy_range<std::allocator<unsigned long> >
_TEXT	ENDS
; Function compile flags: /Ogtp
; File C:\Program Files (x86)\Microsoft Visual Studio\2019\Community\VC\Tools\MSVC\14.28.29333\include\xmemory
; File C:\Program Files (x86)\Microsoft Visual Studio\2019\Community\VC\Tools\MSVC\14.28.29333\include\xstring
; File C:\Program Files (x86)\Microsoft Visual Studio\2019\Community\VC\Tools\MSVC\14.28.29333\include\xmemory
; File C:\Program Files (x86)\Microsoft Visual Studio\2019\Community\VC\Tools\MSVC\14.28.29333\include\xstring
; File C:\Program Files (x86)\Microsoft Visual Studio\2019\Community\VC\Tools\MSVC\14.28.29333\include\xmemory
;	COMDAT ??$_Destroy_range@V?$allocator@USHyperlink@CGraphicTextInstance@@@std@@@std@@YAXPAUSHyperlink@CGraphicTextInstance@@QAU12@AAV?$allocator@USHyperlink@CGraphicTextInstance@@@0@@Z
_TEXT	SEGMENT
__First$ = 8						; size = 4
__Last$ = 12						; size = 4
__Al$ = 16						; size = 4
??$_Destroy_range@V?$allocator@USHyperlink@CGraphicTextInstance@@@std@@@std@@YAXPAUSHyperlink@CGraphicTextInstance@@QAU12@AAV?$allocator@USHyperlink@CGraphicTextInstance@@@0@@Z PROC ; std::_Destroy_range<std::allocator<CGraphicTextInstance::SHyperlink> >, COMDAT

; 962  :     _Alloc_ptr_t<_Alloc> _First, const _Alloc_ptr_t<_Alloc> _Last, _Alloc& _Al) noexcept {

  00000	55		 push	 ebp
  00001	8b ec		 mov	 ebp, esp
  00003	56		 push	 esi

; 966  :         for (; _First != _Last; ++_First) {

  00004	8b 75 08	 mov	 esi, DWORD PTR __First$[ebp]
  00007	57		 push	 edi
  00008	8b 7d 0c	 mov	 edi, DWORD PTR __Last$[ebp]
  0000b	3b f7		 cmp	 esi, edi
  0000d	74 3a		 je	 SHORT $LN3@Destroy_ra
  0000f	83 c6 18	 add	 esi, 24			; 00000018H
$LL4@Destroy_ra:
; File C:\Program Files (x86)\Microsoft Visual Studio\2019\Community\VC\Tools\MSVC\14.28.29333\include\xstring

; 2227 :         return _BUF_SIZE <= _Myres;

  00012	8b 06		 mov	 eax, DWORD PTR [esi]
  00014	83 f8 08	 cmp	 eax, 8

; 4385 :         if (_Mypair._Myval2._Large_string_engaged()) {

  00017	72 13		 jb	 SHORT $LN18@Destroy_ra
; File C:\Program Files (x86)\Microsoft Visual Studio\2019\Community\VC\Tools\MSVC\14.28.29333\include\xmemory

; 810  :         _Deallocate<_New_alignof<_Ty>>(_Ptr, sizeof(_Ty) * _Count);

  00019	8d 04 45 02 00
	00 00		 lea	 eax, DWORD PTR [eax*2+2]
  00020	50		 push	 eax
  00021	ff 76 ec	 push	 DWORD PTR [esi-20]
  00024	e8 00 00 00 00	 call	 ??$_Deallocate@$07$0A@@std@@YAXPAXI@Z ; std::_Deallocate<8,0>
  00029	83 c4 08	 add	 esp, 8
$LN18@Destroy_ra:
; File C:\Program Files (x86)\Microsoft Visual Studio\2019\Community\VC\Tools\MSVC\14.28.29333\include\xstring

; 4395 :         _Traits::assign(_Mypair._Myval2._Bx._Buf[0], _Elem());

  0002c	33 c0		 xor	 eax, eax
  0002e	c7 46 fc 00 00
	00 00		 mov	 DWORD PTR [esi-4], 0
  00035	66 89 46 ec	 mov	 WORD PTR [esi-20], ax
  00039	c7 06 07 00 00
	00		 mov	 DWORD PTR [esi], 7
; File C:\Program Files (x86)\Microsoft Visual Studio\2019\Community\VC\Tools\MSVC\14.28.29333\include\xmemory

; 966  :         for (; _First != _Last; ++_First) {

  0003f	83 c6 1c	 add	 esi, 28			; 0000001cH
  00042	8d 46 e8	 lea	 eax, DWORD PTR [esi-24]
  00045	3b c7		 cmp	 eax, edi
  00047	75 c9		 jne	 SHORT $LL4@Destroy_ra
$LN3@Destroy_ra:
  00049	5f		 pop	 edi

; 967  :             allocator_traits<_Alloc>::destroy(_Al, _Unfancy(_First));
; 968  :         }
; 969  :     }
; 970  : }

  0004a	5e		 pop	 esi
  0004b	5d		 pop	 ebp
  0004c	c3		 ret	 0
??$_Destroy_range@V?$allocator@USHyperlink@CGraphicTextInstance@@@std@@@std@@YAXPAUSHyperlink@CGraphicTextInstance@@QAU12@AAV?$allocator@USHyperlink@CGraphicTextInstance@@@0@@Z ENDP ; std::_Destroy_range<std::allocator<CGraphicTextInstance::SHyperlink> >
_TEXT	ENDS
; Function compile flags: /Ogtp
; File C:\Program Files (x86)\Microsoft Visual Studio\2019\Community\VC\Tools\MSVC\14.28.29333\include\vector
; File C:\Program Files (x86)\Microsoft Visual Studio\2019\Community\VC\Tools\MSVC\14.28.29333\include\xmemory
; File C:\Program Files (x86)\Microsoft Visual Studio\2019\Community\VC\Tools\MSVC\14.28.29333\include\vector
; File C:\Program Files (x86)\Microsoft Visual Studio\2019\Community\VC\Tools\MSVC\14.28.29333\include\xmemory
; File C:\Program Files (x86)\Microsoft Visual Studio\2019\Community\VC\Tools\MSVC\14.28.29333\include\vector
; File C:\Program Files (x86)\Microsoft Visual Studio\2019\Community\VC\Tools\MSVC\14.28.29333\include\xmemory
; File C:\Program Files (x86)\Microsoft Visual Studio\2019\Community\VC\Tools\MSVC\14.28.29333\include\vector
; File C:\Program Files (x86)\Microsoft Visual Studio\2019\Community\VC\Tools\MSVC\14.28.29333\include\xmemory
; File C:\Program Files (x86)\Microsoft Visual Studio\2019\Community\VC\Tools\MSVC\14.28.29333\include\vector
; File C:\Program Files (x86)\Microsoft Visual Studio\2019\Community\VC\Tools\MSVC\14.28.29333\include\xmemory
; File C:\Program Files (x86)\Microsoft Visual Studio\2019\Community\VC\Tools\MSVC\14.28.29333\include\vector
; File C:\Program Files (x86)\Microsoft Visual Studio\2019\Community\VC\Tools\MSVC\14.28.29333\include\xmemory
; File C:\Program Files (x86)\Microsoft Visual Studio\2019\Community\VC\Tools\MSVC\14.28.29333\include\vector
;	COMDAT ??$_Emplace_reallocate@ABQAVCGraphicTextInstance@@@?$vector@PAVCGraphicTextInstance@@V?$allocator@PAVCGraphicTextInstance@@@std@@@std@@QAEPAPAVCGraphicTextInstance@@QAPAV2@ABQAV2@@Z
_TEXT	SEGMENT
tv435 = -12						; size = 4
__Newsize$1$ = -8					; size = 4
tv434 = -4						; size = 4
__Whereptr$ = 8						; size = 4
_<_Val_0>$ = 12						; size = 4
??$_Emplace_reallocate@ABQAVCGraphicTextInstance@@@?$vector@PAVCGraphicTextInstance@@V?$allocator@PAVCGraphicTextInstance@@@std@@@std@@QAEPAPAVCGraphicTextInstance@@QAPAV2@ABQAV2@@Z PROC ; std::vector<CGraphicTextInstance *,std::allocator<CGraphicTextInstance *> >::_Emplace_reallocate<CGraphicTextInstance * const &>, COMDAT
; _this$ = ecx

; 725  :     pointer _Emplace_reallocate(const pointer _Whereptr, _Valty&&... _Val) {

  00000	55		 push	 ebp
  00001	8b ec		 mov	 ebp, esp
  00003	83 ec 0c	 sub	 esp, 12			; 0000000cH
  00006	53		 push	 ebx

; 726  :         // reallocate and insert by perfectly forwarding _Val at _Whereptr
; 727  :         _Alty& _Al        = _Getal();
; 728  :         auto& _My_data    = _Mypair._Myval2;
; 729  :         pointer& _Myfirst = _My_data._Myfirst;
; 730  :         pointer& _Mylast  = _My_data._Mylast;
; 731  : 
; 732  :         _STL_INTERNAL_CHECK(_Mylast == _My_data._Myend); // check that we have no unused capacity
; 733  : 
; 734  :         const auto _Whereoff = static_cast<size_type>(_Whereptr - _Myfirst);

  00007	8b 5d 08	 mov	 ebx, DWORD PTR __Whereptr$[ebp]
  0000a	56		 push	 esi
  0000b	8b f1		 mov	 esi, ecx
  0000d	57		 push	 edi
  0000e	8b 16		 mov	 edx, DWORD PTR [esi]
  00010	2b da		 sub	 ebx, edx

; 735  :         const auto _Oldsize  = static_cast<size_type>(_Mylast - _Myfirst);

  00012	8b 46 04	 mov	 eax, DWORD PTR [esi+4]
  00015	2b c2		 sub	 eax, edx
  00017	c1 fb 02	 sar	 ebx, 2
  0001a	c1 f8 02	 sar	 eax, 2

; 736  : 
; 737  :         if (_Oldsize == max_size()) {

  0001d	3d ff ff ff 3f	 cmp	 eax, 1073741823		; 3fffffffH
  00022	0f 84 c4 00 00
	00		 je	 $LN39@Emplace_re

; 1494 :         return static_cast<size_type>(_My_data._Myend - _My_data._Myfirst);

  00028	8b 4e 08	 mov	 ecx, DWORD PTR [esi+8]

; 739  :         }
; 740  : 
; 741  :         const size_type _Newsize     = _Oldsize + 1;

  0002b	8d 78 01	 lea	 edi, DWORD PTR [eax+1]

; 1494 :         return static_cast<size_type>(_My_data._Myend - _My_data._Myfirst);

  0002e	2b ca		 sub	 ecx, edx

; 739  :         }
; 740  : 
; 741  :         const size_type _Newsize     = _Oldsize + 1;

  00030	89 7d f8	 mov	 DWORD PTR __Newsize$1$[ebp], edi

; 1494 :         return static_cast<size_type>(_My_data._Myend - _My_data._Myfirst);

  00033	c1 f9 02	 sar	 ecx, 2

; 1620 :         if (_Oldcapacity > _Max - _Oldcapacity / 2) {

  00036	b8 ff ff ff 3f	 mov	 eax, 1073741823		; 3fffffffH
  0003b	8b d1		 mov	 edx, ecx
  0003d	d1 ea		 shr	 edx, 1
  0003f	2b c2		 sub	 eax, edx
  00041	3b c8		 cmp	 ecx, eax
  00043	76 3a		 jbe	 SHORT $LN12@Emplace_re

; 1621 :             return _Max; // geometric growth would overflow

  00045	b9 ff ff ff 3f	 mov	 ecx, 1073741823		; 3fffffffH
$LN20@Emplace_re:
; File C:\Program Files (x86)\Microsoft Visual Studio\2019\Community\VC\Tools\MSVC\14.28.29333\include\xmemory

; 65   :     return _Count * _Ty_size;

  0004a	8d 04 8d 00 00
	00 00		 lea	 eax, DWORD PTR [ecx*4]

; 814  :         return static_cast<_Ty*>(_Allocate<_New_alignof<_Ty>>(_Get_size_of_n<sizeof(_Ty)>(_Count)));

  00051	50		 push	 eax

; 65   :     return _Count * _Ty_size;

  00052	89 45 f4	 mov	 DWORD PTR tv435[ebp], eax

; 814  :         return static_cast<_Ty*>(_Allocate<_New_alignof<_Ty>>(_Get_size_of_n<sizeof(_Ty)>(_Count)));

  00055	e8 00 00 00 00	 call	 ??$_Allocate@$07U_Default_allocate_traits@std@@$0A@@std@@YAPAXI@Z ; std::_Allocate<8,std::_Default_allocate_traits,0>
; File C:\Program Files (x86)\Microsoft Visual Studio\2019\Community\VC\Tools\MSVC\14.28.29333\include\vector

; 749  :         _Alty_traits::construct(_Al, _Unfancy(_Newvec + _Whereoff), _STD forward<_Valty>(_Val)...);

  0005a	8b 4d 0c	 mov	 ecx, DWORD PTR _<_Val_0>$[ebp]
; File C:\Program Files (x86)\Microsoft Visual Studio\2019\Community\VC\Tools\MSVC\14.28.29333\include\xmemory

; 814  :         return static_cast<_Ty*>(_Allocate<_New_alignof<_Ty>>(_Get_size_of_n<sizeof(_Ty)>(_Count)));

  0005d	8b f8		 mov	 edi, eax
; File C:\Program Files (x86)\Microsoft Visual Studio\2019\Community\VC\Tools\MSVC\14.28.29333\include\vector

; 749  :         _Alty_traits::construct(_Al, _Unfancy(_Newvec + _Whereoff), _STD forward<_Valty>(_Val)...);

  0005f	8d 04 9f	 lea	 eax, DWORD PTR [edi+ebx*4]
; File C:\Program Files (x86)\Microsoft Visual Studio\2019\Community\VC\Tools\MSVC\14.28.29333\include\xmemory

; 814  :         return static_cast<_Ty*>(_Allocate<_New_alignof<_Ty>>(_Get_size_of_n<sizeof(_Ty)>(_Count)));

  00062	83 c4 04	 add	 esp, 4
; File C:\Program Files (x86)\Microsoft Visual Studio\2019\Community\VC\Tools\MSVC\14.28.29333\include\vector

; 752  :         if (_Whereptr == _Mylast) { // at back, provide strong guarantee

  00065	8b 5d 08	 mov	 ebx, DWORD PTR __Whereptr$[ebp]
  00068	89 45 fc	 mov	 DWORD PTR tv434[ebp], eax
  0006b	8b 09		 mov	 ecx, DWORD PTR [ecx]
  0006d	89 08		 mov	 DWORD PTR [eax], ecx
  0006f	8b 56 04	 mov	 edx, DWORD PTR [esi+4]
  00072	8b 0e		 mov	 ecx, DWORD PTR [esi]
  00074	3b da		 cmp	 ebx, edx
  00076	75 1b		 jne	 SHORT $LN4@Emplace_re

; 753  :             _Umove_if_noexcept(_Myfirst, _Mylast, _Newvec);
; 754  :         } else { // provide basic guarantee

  00078	8b 5d fc	 mov	 ebx, DWORD PTR tv434[ebp]

; 1597 :         _Uninitialized_move(_First, _Last, _Dest, _Getal());

  0007b	8b c7		 mov	 eax, edi

; 753  :             _Umove_if_noexcept(_Myfirst, _Mylast, _Newvec);
; 754  :         } else { // provide basic guarantee

  0007d	eb 2b		 jmp	 SHORT $LN5@Emplace_re
$LN12@Emplace_re:

; 1624 :         const size_type _Geometric = _Oldcapacity + _Oldcapacity / 2;

  0007f	8d 04 0a	 lea	 eax, DWORD PTR [edx+ecx]
; File C:\Program Files (x86)\Microsoft Visual Studio\2019\Community\VC\Tools\MSVC\14.28.29333\include\xmemory

; 60   :         if (_Count > _Max_possible) {

  00082	8b cf		 mov	 ecx, edi
  00084	3b c7		 cmp	 eax, edi
  00086	0f 43 c8	 cmovae	 ecx, eax
  00089	81 f9 ff ff ff
	3f		 cmp	 ecx, 1073741823		; 3fffffffH
  0008f	77 60		 ja	 SHORT $LN40@Emplace_re
  00091	eb b7		 jmp	 SHORT $LN20@Emplace_re
$LN4@Emplace_re:
; File C:\Program Files (x86)\Microsoft Visual Studio\2019\Community\VC\Tools\MSVC\14.28.29333\include\vector

; 1592 :         return _Uninitialized_move(_First, _Last, _Dest, _Getal());

  00093	56		 push	 esi
  00094	57		 push	 edi
  00095	53		 push	 ebx
  00096	51		 push	 ecx
  00097	e8 00 00 00 00	 call	 ??$_Uninitialized_move@PAPAVCGraphicTextInstance@@V?$allocator@PAVCGraphicTextInstance@@@std@@@std@@YAPAPAVCGraphicTextInstance@@QAPAV1@0PAPAV1@AAV?$allocator@PAVCGraphicTextInstance@@@0@@Z ; std::_Uninitialized_move<CGraphicTextInstance * *,std::allocator<CGraphicTextInstance *> >
  0009c	8b 56 04	 mov	 edx, DWORD PTR [esi+4]
  0009f	8b cb		 mov	 ecx, ebx

; 755  :             _Umove(_Myfirst, _Whereptr, _Newvec);
; 756  :             _Constructed_first = _Newvec;
; 757  :             _Umove(_Whereptr, _Mylast, _Newvec + _Whereoff + 1);

  000a1	8b 5d fc	 mov	 ebx, DWORD PTR tv434[ebp]

; 1592 :         return _Uninitialized_move(_First, _Last, _Dest, _Getal());

  000a4	83 c4 10	 add	 esp, 16			; 00000010H

; 755  :             _Umove(_Myfirst, _Whereptr, _Newvec);
; 756  :             _Constructed_first = _Newvec;
; 757  :             _Umove(_Whereptr, _Mylast, _Newvec + _Whereoff + 1);

  000a7	8d 43 04	 lea	 eax, DWORD PTR [ebx+4]
$LN5@Emplace_re:
  000aa	56		 push	 esi
  000ab	50		 push	 eax
  000ac	52		 push	 edx
  000ad	51		 push	 ecx
  000ae	e8 00 00 00 00	 call	 ??$_Uninitialized_move@PAPAVCGraphicTextInstance@@V?$allocator@PAVCGraphicTextInstance@@@std@@@std@@YAPAPAVCGraphicTextInstance@@QAPAV1@0PAPAV1@AAV?$allocator@PAVCGraphicTextInstance@@@0@@Z ; std::_Uninitialized_move<CGraphicTextInstance * *,std::allocator<CGraphicTextInstance *> >

; 1676 :         if (_Myfirst) { // destroy and deallocate old array

  000b3	8b 0e		 mov	 ecx, DWORD PTR [esi]

; 755  :             _Umove(_Myfirst, _Whereptr, _Newvec);
; 756  :             _Constructed_first = _Newvec;
; 757  :             _Umove(_Whereptr, _Mylast, _Newvec + _Whereoff + 1);

  000b5	83 c4 10	 add	 esp, 16			; 00000010H

; 1676 :         if (_Myfirst) { // destroy and deallocate old array

  000b8	85 c9		 test	 ecx, ecx
  000ba	74 12		 je	 SHORT $LN33@Emplace_re

; 1677 :             _Destroy(_Myfirst, _Mylast);
; 1678 :             _Getal().deallocate(_Myfirst, static_cast<size_type>(_Myend - _Myfirst));

  000bc	8b 46 08	 mov	 eax, DWORD PTR [esi+8]
  000bf	2b c1		 sub	 eax, ecx
; File C:\Program Files (x86)\Microsoft Visual Studio\2019\Community\VC\Tools\MSVC\14.28.29333\include\xmemory

; 810  :         _Deallocate<_New_alignof<_Ty>>(_Ptr, sizeof(_Ty) * _Count);

  000c1	83 e0 fc	 and	 eax, -4			; fffffffcH
  000c4	50		 push	 eax
  000c5	51		 push	 ecx
  000c6	e8 00 00 00 00	 call	 ??$_Deallocate@$07$0A@@std@@YAXPAXI@Z ; std::_Deallocate<8,0>
  000cb	83 c4 08	 add	 esp, 8
$LN33@Emplace_re:
; File C:\Program Files (x86)\Microsoft Visual Studio\2019\Community\VC\Tools\MSVC\14.28.29333\include\vector

; 1682 :         _Mylast  = _Newvec + _Newsize;

  000ce	8b 45 f8	 mov	 eax, DWORD PTR __Newsize$1$[ebp]
  000d1	89 3e		 mov	 DWORD PTR [esi], edi
  000d3	8d 0c 87	 lea	 ecx, DWORD PTR [edi+eax*4]

; 758  :         }
; 759  :         _CATCH_ALL
; 760  :         _Destroy(_Constructed_first, _Constructed_last);
; 761  :         _Al.deallocate(_Newvec, _Newcapacity);
; 762  :         _RERAISE;
; 763  :         _CATCH_END
; 764  : 
; 765  :         _Change_array(_Newvec, _Newsize, _Newcapacity);
; 766  :         return _Newvec + _Whereoff;

  000d6	8b c3		 mov	 eax, ebx

; 1682 :         _Mylast  = _Newvec + _Newsize;

  000d8	89 4e 04	 mov	 DWORD PTR [esi+4], ecx

; 1683 :         _Myend   = _Newvec + _Newcapacity;

  000db	8b 4d f4	 mov	 ecx, DWORD PTR tv435[ebp]
  000de	03 cf		 add	 ecx, edi

; 758  :         }
; 759  :         _CATCH_ALL
; 760  :         _Destroy(_Constructed_first, _Constructed_last);
; 761  :         _Al.deallocate(_Newvec, _Newcapacity);
; 762  :         _RERAISE;
; 763  :         _CATCH_END
; 764  : 
; 765  :         _Change_array(_Newvec, _Newsize, _Newcapacity);
; 766  :         return _Newvec + _Whereoff;

  000e0	5f		 pop	 edi

; 1683 :         _Myend   = _Newvec + _Newcapacity;

  000e1	89 4e 08	 mov	 DWORD PTR [esi+8], ecx

; 758  :         }
; 759  :         _CATCH_ALL
; 760  :         _Destroy(_Constructed_first, _Constructed_last);
; 761  :         _Al.deallocate(_Newvec, _Newcapacity);
; 762  :         _RERAISE;
; 763  :         _CATCH_END
; 764  : 
; 765  :         _Change_array(_Newvec, _Newsize, _Newcapacity);
; 766  :         return _Newvec + _Whereoff;

  000e4	5e		 pop	 esi
  000e5	5b		 pop	 ebx

; 767  :     }

  000e6	8b e5		 mov	 esp, ebp
  000e8	5d		 pop	 ebp
  000e9	c2 08 00	 ret	 8
$LN39@Emplace_re:

; 738  :             _Xlength();

  000ec	e8 00 00 00 00	 call	 ?_Xlength@?$vector@PAVCGraphicTextInstance@@V?$allocator@PAVCGraphicTextInstance@@@std@@@std@@CAXXZ ; std::vector<CGraphicTextInstance *,std::allocator<CGraphicTextInstance *> >::_Xlength
$LN40@Emplace_re:
; File C:\Program Files (x86)\Microsoft Visual Studio\2019\Community\VC\Tools\MSVC\14.28.29333\include\xmemory

; 61   :             _Throw_bad_array_new_length(); // multiply overflow

  000f1	e8 00 00 00 00	 call	 ?_Throw_bad_array_new_length@std@@YAXXZ ; std::_Throw_bad_array_new_length
$LN37@Emplace_re:
  000f6	cc		 int	 3
??$_Emplace_reallocate@ABQAVCGraphicTextInstance@@@?$vector@PAVCGraphicTextInstance@@V?$allocator@PAVCGraphicTextInstance@@@std@@@std@@QAEPAPAVCGraphicTextInstance@@QAPAV2@ABQAV2@@Z ENDP ; std::vector<CGraphicTextInstance *,std::allocator<CGraphicTextInstance *> >::_Emplace_reallocate<CGraphicTextInstance * const &>
_TEXT	ENDS
; Function compile flags: /Ogtp
; File C:\Program Files (x86)\Microsoft Visual Studio\2019\Community\VC\Tools\MSVC\14.28.29333\include\xstring
; File C:\Program Files (x86)\Microsoft Visual Studio\2019\Community\VC\Tools\MSVC\14.28.29333\include\utility
; File C:\Program Files (x86)\Microsoft Visual Studio\2019\Community\VC\Tools\MSVC\14.28.29333\include\xstring
; File C:\Program Files (x86)\Microsoft Visual Studio\2019\Community\VC\Tools\MSVC\14.28.29333\include\utility
; File C:\Program Files (x86)\Microsoft Visual Studio\2019\Community\VC\Tools\MSVC\14.28.29333\include\xstring
;	COMDAT ??$_Traits_compare@U?$char_traits@D@std@@@std@@YAHQBDI0I@Z
_TEXT	SEGMENT
__Left$ = 8						; size = 4
__Left_size$ = 12					; size = 4
__Right$ = 16						; size = 4
__Right_size$ = 20					; size = 4
??$_Traits_compare@U?$char_traits@D@std@@@std@@YAHQBDI0I@Z PROC ; std::_Traits_compare<std::char_traits<char> >, COMDAT

; 566  :     _In_reads_(_Right_size) const _Traits_ptr_t<_Traits> _Right, const size_t _Right_size) noexcept {

  00000	55		 push	 ebp
  00001	8b ec		 mov	 ebp, esp

; 369  :         return _CSTD memcmp(_First1, _First2, _Count);

  00003	8b 55 08	 mov	 edx, DWORD PTR __Left$[ebp]

; 566  :     _In_reads_(_Right_size) const _Traits_ptr_t<_Traits> _Right, const size_t _Right_size) noexcept {

  00006	53		 push	 ebx
; File C:\Program Files (x86)\Microsoft Visual Studio\2019\Community\VC\Tools\MSVC\14.28.29333\include\utility

; 68   :     return _Right < _Left ? _Right : _Left;

  00007	8b 5d 14	 mov	 ebx, DWORD PTR __Right_size$[ebp]
; File C:\Program Files (x86)\Microsoft Visual Studio\2019\Community\VC\Tools\MSVC\14.28.29333\include\xstring

; 566  :     _In_reads_(_Right_size) const _Traits_ptr_t<_Traits> _Right, const size_t _Right_size) noexcept {

  0000a	56		 push	 esi

; 369  :         return _CSTD memcmp(_First1, _First2, _Count);

  0000b	8b 75 10	 mov	 esi, DWORD PTR __Right$[ebp]

; 566  :     _In_reads_(_Right_size) const _Traits_ptr_t<_Traits> _Right, const size_t _Right_size) noexcept {

  0000e	57		 push	 edi
; File C:\Program Files (x86)\Microsoft Visual Studio\2019\Community\VC\Tools\MSVC\14.28.29333\include\utility

; 68   :     return _Right < _Left ? _Right : _Left;

  0000f	8b 7d 0c	 mov	 edi, DWORD PTR __Left_size$[ebp]
  00012	3b df		 cmp	 ebx, edi
  00014	8b cf		 mov	 ecx, edi
  00016	0f 42 cb	 cmovb	 ecx, ebx
; File C:\Program Files (x86)\Microsoft Visual Studio\2019\Community\VC\Tools\MSVC\14.28.29333\include\xstring

; 369  :         return _CSTD memcmp(_First1, _First2, _Count);

  00019	83 e9 04	 sub	 ecx, 4
  0001c	72 13		 jb	 SHORT $LN12@Traits_com
  0001e	66 90		 npad	 2
$LL13@Traits_com:
  00020	8b 02		 mov	 eax, DWORD PTR [edx]
  00022	3b 06		 cmp	 eax, DWORD PTR [esi]
  00024	75 10		 jne	 SHORT $LN11@Traits_com
  00026	83 c2 04	 add	 edx, 4
  00029	83 c6 04	 add	 esi, 4
  0002c	83 e9 04	 sub	 ecx, 4
  0002f	73 ef		 jae	 SHORT $LL13@Traits_com
$LN12@Traits_com:
  00031	83 f9 fc	 cmp	 ecx, -4			; fffffffcH
  00034	74 34		 je	 SHORT $LN10@Traits_com
$LN11@Traits_com:
  00036	8a 02		 mov	 al, BYTE PTR [edx]
  00038	3a 06		 cmp	 al, BYTE PTR [esi]
  0003a	75 27		 jne	 SHORT $LN14@Traits_com
  0003c	83 f9 fd	 cmp	 ecx, -3			; fffffffdH
  0003f	74 29		 je	 SHORT $LN10@Traits_com
  00041	8a 42 01	 mov	 al, BYTE PTR [edx+1]
  00044	3a 46 01	 cmp	 al, BYTE PTR [esi+1]
  00047	75 1a		 jne	 SHORT $LN14@Traits_com
  00049	83 f9 fe	 cmp	 ecx, -2			; fffffffeH
  0004c	74 1c		 je	 SHORT $LN10@Traits_com
  0004e	8a 42 02	 mov	 al, BYTE PTR [edx+2]
  00051	3a 46 02	 cmp	 al, BYTE PTR [esi+2]
  00054	75 0d		 jne	 SHORT $LN14@Traits_com
  00056	83 f9 ff	 cmp	 ecx, -1
  00059	74 0f		 je	 SHORT $LN10@Traits_com
  0005b	8a 42 03	 mov	 al, BYTE PTR [edx+3]
  0005e	3a 46 03	 cmp	 al, BYTE PTR [esi+3]
  00061	74 07		 je	 SHORT $LN10@Traits_com
$LN14@Traits_com:
  00063	1b c0		 sbb	 eax, eax
  00065	83 c8 01	 or	 eax, 1
  00068	eb 02		 jmp	 SHORT $LN15@Traits_com
$LN10@Traits_com:
  0006a	33 c0		 xor	 eax, eax
$LN15@Traits_com:

; 567  :     // compare [_Left, _Left + _Left_size) to [_Right, _Right + _Right_size) using _Traits
; 568  :     const int _Ans = _Traits::compare(_Left, _Right, (_STD min)(_Left_size, _Right_size));
; 569  : 
; 570  :     if (_Ans != 0) {

  0006c	85 c0		 test	 eax, eax
  0006e	75 10		 jne	 SHORT $LN4@Traits_com

; 571  :         return _Ans;
; 572  :     }
; 573  : 
; 574  :     if (_Left_size < _Right_size) {

  00070	3b df		 cmp	 ebx, edi
  00072	76 08		 jbe	 SHORT $LN16@Traits_com

; 579  :         return 1;
; 580  :     }
; 581  : 
; 582  :     return 0;
; 583  : }

  00074	5f		 pop	 edi
  00075	5e		 pop	 esi
  00076	83 c8 ff	 or	 eax, -1
  00079	5b		 pop	 ebx
  0007a	5d		 pop	 ebp
  0007b	c3		 ret	 0
$LN16@Traits_com:

; 575  :         return -1;
; 576  :     }
; 577  : 
; 578  :     if (_Left_size > _Right_size) {

  0007c	1b c0		 sbb	 eax, eax
  0007e	f7 d8		 neg	 eax
$LN4@Traits_com:

; 579  :         return 1;
; 580  :     }
; 581  : 
; 582  :     return 0;
; 583  : }

  00080	5f		 pop	 edi
  00081	5e		 pop	 esi
  00082	5b		 pop	 ebx
  00083	5d		 pop	 ebp
  00084	c3		 ret	 0
??$_Traits_compare@U?$char_traits@D@std@@@std@@YAHQBDI0I@Z ENDP ; std::_Traits_compare<std::char_traits<char> >
_TEXT	ENDS
; Function compile flags: /Ogtp
; File C:\Program Files (x86)\Microsoft Visual Studio\2019\Community\VC\Tools\MSVC\14.28.29333\include\vector
; File C:\Program Files (x86)\Microsoft Visual Studio\2019\Community\VC\Tools\MSVC\14.28.29333\include\xmemory
; File C:\Program Files (x86)\Microsoft Visual Studio\2019\Community\VC\Tools\MSVC\14.28.29333\include\vector
; File C:\Program Files (x86)\Microsoft Visual Studio\2019\Community\VC\Tools\MSVC\14.28.29333\include\xmemory
; File C:\Program Files (x86)\Microsoft Visual Studio\2019\Community\VC\Tools\MSVC\14.28.29333\include\vector
; File C:\Program Files (x86)\Microsoft Visual Studio\2019\Community\VC\Tools\MSVC\14.28.29333\include\xmemory
; File C:\Program Files (x86)\Microsoft Visual Studio\2019\Community\VC\Tools\MSVC\14.28.29333\include\vector
; File C:\Program Files (x86)\Microsoft Visual Studio\2019\Community\VC\Tools\MSVC\14.28.29333\include\xmemory
; File C:\Program Files (x86)\Microsoft Visual Studio\2019\Community\VC\Tools\MSVC\14.28.29333\include\vector
; File C:\Program Files (x86)\Microsoft Visual Studio\2019\Community\VC\Tools\MSVC\14.28.29333\include\xmemory
; File C:\Program Files (x86)\Microsoft Visual Studio\2019\Community\VC\Tools\MSVC\14.28.29333\include\vector
; File C:\Program Files (x86)\Microsoft Visual Studio\2019\Community\VC\Tools\MSVC\14.28.29333\include\xmemory
; File C:\Program Files (x86)\Microsoft Visual Studio\2019\Community\VC\Tools\MSVC\14.28.29333\include\vector
;	COMDAT ??$_Emplace_reallocate@ABQAUSCharacterInfomation@CGraphicFontTexture@@@?$vector@PAUSCharacterInfomation@CGraphicFontTexture@@V?$allocator@PAUSCharacterInfomation@CGraphicFontTexture@@@std@@@std@@QAEPAPAUSCharacterInfomation@CGraphicFontTexture@@QAPAU23@ABQAU23@@Z
_TEXT	SEGMENT
tv435 = -12						; size = 4
__Newsize$1$ = -8					; size = 4
tv434 = -4						; size = 4
__Whereptr$ = 8						; size = 4
_<_Val_0>$ = 12						; size = 4
??$_Emplace_reallocate@ABQAUSCharacterInfomation@CGraphicFontTexture@@@?$vector@PAUSCharacterInfomation@CGraphicFontTexture@@V?$allocator@PAUSCharacterInfomation@CGraphicFontTexture@@@std@@@std@@QAEPAPAUSCharacterInfomation@CGraphicFontTexture@@QAPAU23@ABQAU23@@Z PROC ; std::vector<CGraphicFontTexture::SCharacterInfomation *,std::allocator<CGraphicFontTexture::SCharacterInfomation *> >::_Emplace_reallocate<CGraphicFontTexture::SCharacterInfomation * const &>, COMDAT
; _this$ = ecx

; 725  :     pointer _Emplace_reallocate(const pointer _Whereptr, _Valty&&... _Val) {

  00000	55		 push	 ebp
  00001	8b ec		 mov	 ebp, esp
  00003	83 ec 0c	 sub	 esp, 12			; 0000000cH
  00006	53		 push	 ebx

; 726  :         // reallocate and insert by perfectly forwarding _Val at _Whereptr
; 727  :         _Alty& _Al        = _Getal();
; 728  :         auto& _My_data    = _Mypair._Myval2;
; 729  :         pointer& _Myfirst = _My_data._Myfirst;
; 730  :         pointer& _Mylast  = _My_data._Mylast;
; 731  : 
; 732  :         _STL_INTERNAL_CHECK(_Mylast == _My_data._Myend); // check that we have no unused capacity
; 733  : 
; 734  :         const auto _Whereoff = static_cast<size_type>(_Whereptr - _Myfirst);

  00007	8b 5d 08	 mov	 ebx, DWORD PTR __Whereptr$[ebp]
  0000a	56		 push	 esi
  0000b	8b f1		 mov	 esi, ecx
  0000d	57		 push	 edi
  0000e	8b 16		 mov	 edx, DWORD PTR [esi]
  00010	2b da		 sub	 ebx, edx

; 735  :         const auto _Oldsize  = static_cast<size_type>(_Mylast - _Myfirst);

  00012	8b 46 04	 mov	 eax, DWORD PTR [esi+4]
  00015	2b c2		 sub	 eax, edx
  00017	c1 fb 02	 sar	 ebx, 2
  0001a	c1 f8 02	 sar	 eax, 2

; 736  : 
; 737  :         if (_Oldsize == max_size()) {

  0001d	3d ff ff ff 3f	 cmp	 eax, 1073741823		; 3fffffffH
  00022	0f 84 c4 00 00
	00		 je	 $LN39@Emplace_re

; 1494 :         return static_cast<size_type>(_My_data._Myend - _My_data._Myfirst);

  00028	8b 4e 08	 mov	 ecx, DWORD PTR [esi+8]

; 739  :         }
; 740  : 
; 741  :         const size_type _Newsize     = _Oldsize + 1;

  0002b	8d 78 01	 lea	 edi, DWORD PTR [eax+1]

; 1494 :         return static_cast<size_type>(_My_data._Myend - _My_data._Myfirst);

  0002e	2b ca		 sub	 ecx, edx

; 739  :         }
; 740  : 
; 741  :         const size_type _Newsize     = _Oldsize + 1;

  00030	89 7d f8	 mov	 DWORD PTR __Newsize$1$[ebp], edi

; 1494 :         return static_cast<size_type>(_My_data._Myend - _My_data._Myfirst);

  00033	c1 f9 02	 sar	 ecx, 2

; 1620 :         if (_Oldcapacity > _Max - _Oldcapacity / 2) {

  00036	b8 ff ff ff 3f	 mov	 eax, 1073741823		; 3fffffffH
  0003b	8b d1		 mov	 edx, ecx
  0003d	d1 ea		 shr	 edx, 1
  0003f	2b c2		 sub	 eax, edx
  00041	3b c8		 cmp	 ecx, eax
  00043	76 3a		 jbe	 SHORT $LN12@Emplace_re

; 1621 :             return _Max; // geometric growth would overflow

  00045	b9 ff ff ff 3f	 mov	 ecx, 1073741823		; 3fffffffH
$LN20@Emplace_re:
; File C:\Program Files (x86)\Microsoft Visual Studio\2019\Community\VC\Tools\MSVC\14.28.29333\include\xmemory

; 65   :     return _Count * _Ty_size;

  0004a	8d 04 8d 00 00
	00 00		 lea	 eax, DWORD PTR [ecx*4]

; 814  :         return static_cast<_Ty*>(_Allocate<_New_alignof<_Ty>>(_Get_size_of_n<sizeof(_Ty)>(_Count)));

  00051	50		 push	 eax

; 65   :     return _Count * _Ty_size;

  00052	89 45 f4	 mov	 DWORD PTR tv435[ebp], eax

; 814  :         return static_cast<_Ty*>(_Allocate<_New_alignof<_Ty>>(_Get_size_of_n<sizeof(_Ty)>(_Count)));

  00055	e8 00 00 00 00	 call	 ??$_Allocate@$07U_Default_allocate_traits@std@@$0A@@std@@YAPAXI@Z ; std::_Allocate<8,std::_Default_allocate_traits,0>
; File C:\Program Files (x86)\Microsoft Visual Studio\2019\Community\VC\Tools\MSVC\14.28.29333\include\vector

; 749  :         _Alty_traits::construct(_Al, _Unfancy(_Newvec + _Whereoff), _STD forward<_Valty>(_Val)...);

  0005a	8b 4d 0c	 mov	 ecx, DWORD PTR _<_Val_0>$[ebp]
; File C:\Program Files (x86)\Microsoft Visual Studio\2019\Community\VC\Tools\MSVC\14.28.29333\include\xmemory

; 814  :         return static_cast<_Ty*>(_Allocate<_New_alignof<_Ty>>(_Get_size_of_n<sizeof(_Ty)>(_Count)));

  0005d	8b f8		 mov	 edi, eax
; File C:\Program Files (x86)\Microsoft Visual Studio\2019\Community\VC\Tools\MSVC\14.28.29333\include\vector

; 749  :         _Alty_traits::construct(_Al, _Unfancy(_Newvec + _Whereoff), _STD forward<_Valty>(_Val)...);

  0005f	8d 04 9f	 lea	 eax, DWORD PTR [edi+ebx*4]
; File C:\Program Files (x86)\Microsoft Visual Studio\2019\Community\VC\Tools\MSVC\14.28.29333\include\xmemory

; 814  :         return static_cast<_Ty*>(_Allocate<_New_alignof<_Ty>>(_Get_size_of_n<sizeof(_Ty)>(_Count)));

  00062	83 c4 04	 add	 esp, 4
; File C:\Program Files (x86)\Microsoft Visual Studio\2019\Community\VC\Tools\MSVC\14.28.29333\include\vector

; 752  :         if (_Whereptr == _Mylast) { // at back, provide strong guarantee

  00065	8b 5d 08	 mov	 ebx, DWORD PTR __Whereptr$[ebp]
  00068	89 45 fc	 mov	 DWORD PTR tv434[ebp], eax
  0006b	8b 09		 mov	 ecx, DWORD PTR [ecx]
  0006d	89 08		 mov	 DWORD PTR [eax], ecx
  0006f	8b 56 04	 mov	 edx, DWORD PTR [esi+4]
  00072	8b 0e		 mov	 ecx, DWORD PTR [esi]
  00074	3b da		 cmp	 ebx, edx
  00076	75 1b		 jne	 SHORT $LN4@Emplace_re

; 753  :             _Umove_if_noexcept(_Myfirst, _Mylast, _Newvec);
; 754  :         } else { // provide basic guarantee

  00078	8b 5d fc	 mov	 ebx, DWORD PTR tv434[ebp]

; 1597 :         _Uninitialized_move(_First, _Last, _Dest, _Getal());

  0007b	8b c7		 mov	 eax, edi

; 753  :             _Umove_if_noexcept(_Myfirst, _Mylast, _Newvec);
; 754  :         } else { // provide basic guarantee

  0007d	eb 2b		 jmp	 SHORT $LN5@Emplace_re
$LN12@Emplace_re:

; 1624 :         const size_type _Geometric = _Oldcapacity + _Oldcapacity / 2;

  0007f	8d 04 0a	 lea	 eax, DWORD PTR [edx+ecx]
; File C:\Program Files (x86)\Microsoft Visual Studio\2019\Community\VC\Tools\MSVC\14.28.29333\include\xmemory

; 60   :         if (_Count > _Max_possible) {

  00082	8b cf		 mov	 ecx, edi
  00084	3b c7		 cmp	 eax, edi
  00086	0f 43 c8	 cmovae	 ecx, eax
  00089	81 f9 ff ff ff
	3f		 cmp	 ecx, 1073741823		; 3fffffffH
  0008f	77 60		 ja	 SHORT $LN40@Emplace_re
  00091	eb b7		 jmp	 SHORT $LN20@Emplace_re
$LN4@Emplace_re:
; File C:\Program Files (x86)\Microsoft Visual Studio\2019\Community\VC\Tools\MSVC\14.28.29333\include\vector

; 1592 :         return _Uninitialized_move(_First, _Last, _Dest, _Getal());

  00093	56		 push	 esi
  00094	57		 push	 edi
  00095	53		 push	 ebx
  00096	51		 push	 ecx
  00097	e8 00 00 00 00	 call	 ??$_Uninitialized_move@PAPAUSCharacterInfomation@CGraphicFontTexture@@V?$allocator@PAUSCharacterInfomation@CGraphicFontTexture@@@std@@@std@@YAPAPAUSCharacterInfomation@CGraphicFontTexture@@QAPAU12@0PAPAU12@AAV?$allocator@PAUSCharacterInfomation@CGraphicFontTexture@@@0@@Z ; std::_Uninitialized_move<CGraphicFontTexture::SCharacterInfomation * *,std::allocator<CGraphicFontTexture::SCharacterInfomation *> >
  0009c	8b 56 04	 mov	 edx, DWORD PTR [esi+4]
  0009f	8b cb		 mov	 ecx, ebx

; 755  :             _Umove(_Myfirst, _Whereptr, _Newvec);
; 756  :             _Constructed_first = _Newvec;
; 757  :             _Umove(_Whereptr, _Mylast, _Newvec + _Whereoff + 1);

  000a1	8b 5d fc	 mov	 ebx, DWORD PTR tv434[ebp]

; 1592 :         return _Uninitialized_move(_First, _Last, _Dest, _Getal());

  000a4	83 c4 10	 add	 esp, 16			; 00000010H

; 755  :             _Umove(_Myfirst, _Whereptr, _Newvec);
; 756  :             _Constructed_first = _Newvec;
; 757  :             _Umove(_Whereptr, _Mylast, _Newvec + _Whereoff + 1);

  000a7	8d 43 04	 lea	 eax, DWORD PTR [ebx+4]
$LN5@Emplace_re:
  000aa	56		 push	 esi
  000ab	50		 push	 eax
  000ac	52		 push	 edx
  000ad	51		 push	 ecx
  000ae	e8 00 00 00 00	 call	 ??$_Uninitialized_move@PAPAUSCharacterInfomation@CGraphicFontTexture@@V?$allocator@PAUSCharacterInfomation@CGraphicFontTexture@@@std@@@std@@YAPAPAUSCharacterInfomation@CGraphicFontTexture@@QAPAU12@0PAPAU12@AAV?$allocator@PAUSCharacterInfomation@CGraphicFontTexture@@@0@@Z ; std::_Uninitialized_move<CGraphicFontTexture::SCharacterInfomation * *,std::allocator<CGraphicFontTexture::SCharacterInfomation *> >

; 1676 :         if (_Myfirst) { // destroy and deallocate old array

  000b3	8b 0e		 mov	 ecx, DWORD PTR [esi]

; 755  :             _Umove(_Myfirst, _Whereptr, _Newvec);
; 756  :             _Constructed_first = _Newvec;
; 757  :             _Umove(_Whereptr, _Mylast, _Newvec + _Whereoff + 1);

  000b5	83 c4 10	 add	 esp, 16			; 00000010H

; 1676 :         if (_Myfirst) { // destroy and deallocate old array

  000b8	85 c9		 test	 ecx, ecx
  000ba	74 12		 je	 SHORT $LN33@Emplace_re

; 1677 :             _Destroy(_Myfirst, _Mylast);
; 1678 :             _Getal().deallocate(_Myfirst, static_cast<size_type>(_Myend - _Myfirst));

  000bc	8b 46 08	 mov	 eax, DWORD PTR [esi+8]
  000bf	2b c1		 sub	 eax, ecx
; File C:\Program Files (x86)\Microsoft Visual Studio\2019\Community\VC\Tools\MSVC\14.28.29333\include\xmemory

; 810  :         _Deallocate<_New_alignof<_Ty>>(_Ptr, sizeof(_Ty) * _Count);

  000c1	83 e0 fc	 and	 eax, -4			; fffffffcH
  000c4	50		 push	 eax
  000c5	51		 push	 ecx
  000c6	e8 00 00 00 00	 call	 ??$_Deallocate@$07$0A@@std@@YAXPAXI@Z ; std::_Deallocate<8,0>
  000cb	83 c4 08	 add	 esp, 8
$LN33@Emplace_re:
; File C:\Program Files (x86)\Microsoft Visual Studio\2019\Community\VC\Tools\MSVC\14.28.29333\include\vector

; 1682 :         _Mylast  = _Newvec + _Newsize;

  000ce	8b 45 f8	 mov	 eax, DWORD PTR __Newsize$1$[ebp]
  000d1	89 3e		 mov	 DWORD PTR [esi], edi
  000d3	8d 0c 87	 lea	 ecx, DWORD PTR [edi+eax*4]

; 758  :         }
; 759  :         _CATCH_ALL
; 760  :         _Destroy(_Constructed_first, _Constructed_last);
; 761  :         _Al.deallocate(_Newvec, _Newcapacity);
; 762  :         _RERAISE;
; 763  :         _CATCH_END
; 764  : 
; 765  :         _Change_array(_Newvec, _Newsize, _Newcapacity);
; 766  :         return _Newvec + _Whereoff;

  000d6	8b c3		 mov	 eax, ebx

; 1682 :         _Mylast  = _Newvec + _Newsize;

  000d8	89 4e 04	 mov	 DWORD PTR [esi+4], ecx

; 1683 :         _Myend   = _Newvec + _Newcapacity;

  000db	8b 4d f4	 mov	 ecx, DWORD PTR tv435[ebp]
  000de	03 cf		 add	 ecx, edi

; 758  :         }
; 759  :         _CATCH_ALL
; 760  :         _Destroy(_Constructed_first, _Constructed_last);
; 761  :         _Al.deallocate(_Newvec, _Newcapacity);
; 762  :         _RERAISE;
; 763  :         _CATCH_END
; 764  : 
; 765  :         _Change_array(_Newvec, _Newsize, _Newcapacity);
; 766  :         return _Newvec + _Whereoff;

  000e0	5f		 pop	 edi

; 1683 :         _Myend   = _Newvec + _Newcapacity;

  000e1	89 4e 08	 mov	 DWORD PTR [esi+8], ecx

; 758  :         }
; 759  :         _CATCH_ALL
; 760  :         _Destroy(_Constructed_first, _Constructed_last);
; 761  :         _Al.deallocate(_Newvec, _Newcapacity);
; 762  :         _RERAISE;
; 763  :         _CATCH_END
; 764  : 
; 765  :         _Change_array(_Newvec, _Newsize, _Newcapacity);
; 766  :         return _Newvec + _Whereoff;

  000e4	5e		 pop	 esi
  000e5	5b		 pop	 ebx

; 767  :     }

  000e6	8b e5		 mov	 esp, ebp
  000e8	5d		 pop	 ebp
  000e9	c2 08 00	 ret	 8
$LN39@Emplace_re:

; 738  :             _Xlength();

  000ec	e8 00 00 00 00	 call	 ?_Xlength@?$vector@PAUSCharacterInfomation@CGraphicFontTexture@@V?$allocator@PAUSCharacterInfomation@CGraphicFontTexture@@@std@@@std@@CAXXZ ; std::vector<CGraphicFontTexture::SCharacterInfomation *,std::allocator<CGraphicFontTexture::SCharacterInfomation *> >::_Xlength
$LN40@Emplace_re:
; File C:\Program Files (x86)\Microsoft Visual Studio\2019\Community\VC\Tools\MSVC\14.28.29333\include\xmemory

; 61   :             _Throw_bad_array_new_length(); // multiply overflow

  000f1	e8 00 00 00 00	 call	 ?_Throw_bad_array_new_length@std@@YAXXZ ; std::_Throw_bad_array_new_length
$LN37@Emplace_re:
  000f6	cc		 int	 3
??$_Emplace_reallocate@ABQAUSCharacterInfomation@CGraphicFontTexture@@@?$vector@PAUSCharacterInfomation@CGraphicFontTexture@@V?$allocator@PAUSCharacterInfomation@CGraphicFontTexture@@@std@@@std@@QAEPAPAUSCharacterInfomation@CGraphicFontTexture@@QAPAU23@ABQAU23@@Z ENDP ; std::vector<CGraphicFontTexture::SCharacterInfomation *,std::allocator<CGraphicFontTexture::SCharacterInfomation *> >::_Emplace_reallocate<CGraphicFontTexture::SCharacterInfomation * const &>
_TEXT	ENDS
; Function compile flags: /Ogtp
; File C:\Program Files (x86)\Microsoft Visual Studio\2019\Community\VC\Tools\MSVC\14.28.29333\include\vector
; File C:\Program Files (x86)\Microsoft Visual Studio\2019\Community\VC\Tools\MSVC\14.28.29333\include\xmemory
; File C:\Program Files (x86)\Microsoft Visual Studio\2019\Community\VC\Tools\MSVC\14.28.29333\include\vector
; File C:\Program Files (x86)\Microsoft Visual Studio\2019\Community\VC\Tools\MSVC\14.28.29333\include\xmemory
; File C:\Program Files (x86)\Microsoft Visual Studio\2019\Community\VC\Tools\MSVC\14.28.29333\include\vector
; File C:\Program Files (x86)\Microsoft Visual Studio\2019\Community\VC\Tools\MSVC\14.28.29333\include\xmemory
; File C:\Program Files (x86)\Microsoft Visual Studio\2019\Community\VC\Tools\MSVC\14.28.29333\include\vector
; File C:\Program Files (x86)\Microsoft Visual Studio\2019\Community\VC\Tools\MSVC\14.28.29333\include\xmemory
; File C:\Program Files (x86)\Microsoft Visual Studio\2019\Community\VC\Tools\MSVC\14.28.29333\include\vector
; File C:\Program Files (x86)\Microsoft Visual Studio\2019\Community\VC\Tools\MSVC\14.28.29333\include\xmemory
; File C:\Program Files (x86)\Microsoft Visual Studio\2019\Community\VC\Tools\MSVC\14.28.29333\include\vector
; File C:\Program Files (x86)\Microsoft Visual Studio\2019\Community\VC\Tools\MSVC\14.28.29333\include\xmemory
; File C:\Program Files (x86)\Microsoft Visual Studio\2019\Community\VC\Tools\MSVC\14.28.29333\include\vector
;	COMDAT ??$_Emplace_reallocate@ABK@?$vector@KV?$allocator@K@std@@@std@@QAEPAKQAKABK@Z
_TEXT	SEGMENT
tv435 = -12						; size = 4
__Newsize$1$ = -8					; size = 4
tv434 = -4						; size = 4
__Whereptr$ = 8						; size = 4
_<_Val_0>$ = 12						; size = 4
??$_Emplace_reallocate@ABK@?$vector@KV?$allocator@K@std@@@std@@QAEPAKQAKABK@Z PROC ; std::vector<unsigned long,std::allocator<unsigned long> >::_Emplace_reallocate<unsigned long const &>, COMDAT
; _this$ = ecx

; 725  :     pointer _Emplace_reallocate(const pointer _Whereptr, _Valty&&... _Val) {

  00000	55		 push	 ebp
  00001	8b ec		 mov	 ebp, esp
  00003	83 ec 0c	 sub	 esp, 12			; 0000000cH
  00006	53		 push	 ebx

; 726  :         // reallocate and insert by perfectly forwarding _Val at _Whereptr
; 727  :         _Alty& _Al        = _Getal();
; 728  :         auto& _My_data    = _Mypair._Myval2;
; 729  :         pointer& _Myfirst = _My_data._Myfirst;
; 730  :         pointer& _Mylast  = _My_data._Mylast;
; 731  : 
; 732  :         _STL_INTERNAL_CHECK(_Mylast == _My_data._Myend); // check that we have no unused capacity
; 733  : 
; 734  :         const auto _Whereoff = static_cast<size_type>(_Whereptr - _Myfirst);

  00007	8b 5d 08	 mov	 ebx, DWORD PTR __Whereptr$[ebp]
  0000a	56		 push	 esi
  0000b	8b f1		 mov	 esi, ecx
  0000d	57		 push	 edi
  0000e	8b 16		 mov	 edx, DWORD PTR [esi]
  00010	2b da		 sub	 ebx, edx

; 735  :         const auto _Oldsize  = static_cast<size_type>(_Mylast - _Myfirst);

  00012	8b 46 04	 mov	 eax, DWORD PTR [esi+4]
  00015	2b c2		 sub	 eax, edx
  00017	c1 fb 02	 sar	 ebx, 2
  0001a	c1 f8 02	 sar	 eax, 2

; 736  : 
; 737  :         if (_Oldsize == max_size()) {

  0001d	3d ff ff ff 3f	 cmp	 eax, 1073741823		; 3fffffffH
  00022	0f 84 c4 00 00
	00		 je	 $LN39@Emplace_re

; 1494 :         return static_cast<size_type>(_My_data._Myend - _My_data._Myfirst);

  00028	8b 4e 08	 mov	 ecx, DWORD PTR [esi+8]

; 739  :         }
; 740  : 
; 741  :         const size_type _Newsize     = _Oldsize + 1;

  0002b	8d 78 01	 lea	 edi, DWORD PTR [eax+1]

; 1494 :         return static_cast<size_type>(_My_data._Myend - _My_data._Myfirst);

  0002e	2b ca		 sub	 ecx, edx

; 739  :         }
; 740  : 
; 741  :         const size_type _Newsize     = _Oldsize + 1;

  00030	89 7d f8	 mov	 DWORD PTR __Newsize$1$[ebp], edi

; 1494 :         return static_cast<size_type>(_My_data._Myend - _My_data._Myfirst);

  00033	c1 f9 02	 sar	 ecx, 2

; 1620 :         if (_Oldcapacity > _Max - _Oldcapacity / 2) {

  00036	b8 ff ff ff 3f	 mov	 eax, 1073741823		; 3fffffffH
  0003b	8b d1		 mov	 edx, ecx
  0003d	d1 ea		 shr	 edx, 1
  0003f	2b c2		 sub	 eax, edx
  00041	3b c8		 cmp	 ecx, eax
  00043	76 3a		 jbe	 SHORT $LN12@Emplace_re

; 1621 :             return _Max; // geometric growth would overflow

  00045	b9 ff ff ff 3f	 mov	 ecx, 1073741823		; 3fffffffH
$LN20@Emplace_re:
; File C:\Program Files (x86)\Microsoft Visual Studio\2019\Community\VC\Tools\MSVC\14.28.29333\include\xmemory

; 65   :     return _Count * _Ty_size;

  0004a	8d 04 8d 00 00
	00 00		 lea	 eax, DWORD PTR [ecx*4]

; 814  :         return static_cast<_Ty*>(_Allocate<_New_alignof<_Ty>>(_Get_size_of_n<sizeof(_Ty)>(_Count)));

  00051	50		 push	 eax

; 65   :     return _Count * _Ty_size;

  00052	89 45 f4	 mov	 DWORD PTR tv435[ebp], eax

; 814  :         return static_cast<_Ty*>(_Allocate<_New_alignof<_Ty>>(_Get_size_of_n<sizeof(_Ty)>(_Count)));

  00055	e8 00 00 00 00	 call	 ??$_Allocate@$07U_Default_allocate_traits@std@@$0A@@std@@YAPAXI@Z ; std::_Allocate<8,std::_Default_allocate_traits,0>
; File C:\Program Files (x86)\Microsoft Visual Studio\2019\Community\VC\Tools\MSVC\14.28.29333\include\vector

; 749  :         _Alty_traits::construct(_Al, _Unfancy(_Newvec + _Whereoff), _STD forward<_Valty>(_Val)...);

  0005a	8b 4d 0c	 mov	 ecx, DWORD PTR _<_Val_0>$[ebp]
; File C:\Program Files (x86)\Microsoft Visual Studio\2019\Community\VC\Tools\MSVC\14.28.29333\include\xmemory

; 814  :         return static_cast<_Ty*>(_Allocate<_New_alignof<_Ty>>(_Get_size_of_n<sizeof(_Ty)>(_Count)));

  0005d	8b f8		 mov	 edi, eax
; File C:\Program Files (x86)\Microsoft Visual Studio\2019\Community\VC\Tools\MSVC\14.28.29333\include\vector

; 749  :         _Alty_traits::construct(_Al, _Unfancy(_Newvec + _Whereoff), _STD forward<_Valty>(_Val)...);

  0005f	8d 04 9f	 lea	 eax, DWORD PTR [edi+ebx*4]
; File C:\Program Files (x86)\Microsoft Visual Studio\2019\Community\VC\Tools\MSVC\14.28.29333\include\xmemory

; 814  :         return static_cast<_Ty*>(_Allocate<_New_alignof<_Ty>>(_Get_size_of_n<sizeof(_Ty)>(_Count)));

  00062	83 c4 04	 add	 esp, 4
; File C:\Program Files (x86)\Microsoft Visual Studio\2019\Community\VC\Tools\MSVC\14.28.29333\include\vector

; 752  :         if (_Whereptr == _Mylast) { // at back, provide strong guarantee

  00065	8b 5d 08	 mov	 ebx, DWORD PTR __Whereptr$[ebp]
  00068	89 45 fc	 mov	 DWORD PTR tv434[ebp], eax
  0006b	8b 09		 mov	 ecx, DWORD PTR [ecx]
  0006d	89 08		 mov	 DWORD PTR [eax], ecx
  0006f	8b 56 04	 mov	 edx, DWORD PTR [esi+4]
  00072	8b 0e		 mov	 ecx, DWORD PTR [esi]
  00074	3b da		 cmp	 ebx, edx
  00076	75 1b		 jne	 SHORT $LN4@Emplace_re

; 753  :             _Umove_if_noexcept(_Myfirst, _Mylast, _Newvec);
; 754  :         } else { // provide basic guarantee

  00078	8b 5d fc	 mov	 ebx, DWORD PTR tv434[ebp]

; 1597 :         _Uninitialized_move(_First, _Last, _Dest, _Getal());

  0007b	8b c7		 mov	 eax, edi

; 753  :             _Umove_if_noexcept(_Myfirst, _Mylast, _Newvec);
; 754  :         } else { // provide basic guarantee

  0007d	eb 2b		 jmp	 SHORT $LN5@Emplace_re
$LN12@Emplace_re:

; 1624 :         const size_type _Geometric = _Oldcapacity + _Oldcapacity / 2;

  0007f	8d 04 0a	 lea	 eax, DWORD PTR [edx+ecx]
; File C:\Program Files (x86)\Microsoft Visual Studio\2019\Community\VC\Tools\MSVC\14.28.29333\include\xmemory

; 60   :         if (_Count > _Max_possible) {

  00082	8b cf		 mov	 ecx, edi
  00084	3b c7		 cmp	 eax, edi
  00086	0f 43 c8	 cmovae	 ecx, eax
  00089	81 f9 ff ff ff
	3f		 cmp	 ecx, 1073741823		; 3fffffffH
  0008f	77 60		 ja	 SHORT $LN40@Emplace_re
  00091	eb b7		 jmp	 SHORT $LN20@Emplace_re
$LN4@Emplace_re:
; File C:\Program Files (x86)\Microsoft Visual Studio\2019\Community\VC\Tools\MSVC\14.28.29333\include\vector

; 1592 :         return _Uninitialized_move(_First, _Last, _Dest, _Getal());

  00093	56		 push	 esi
  00094	57		 push	 edi
  00095	53		 push	 ebx
  00096	51		 push	 ecx
  00097	e8 00 00 00 00	 call	 ??$_Uninitialized_move@PAKV?$allocator@K@std@@@std@@YAPAKQAK0PAKAAV?$allocator@K@0@@Z ; std::_Uninitialized_move<unsigned long *,std::allocator<unsigned long> >
  0009c	8b 56 04	 mov	 edx, DWORD PTR [esi+4]
  0009f	8b cb		 mov	 ecx, ebx

; 755  :             _Umove(_Myfirst, _Whereptr, _Newvec);
; 756  :             _Constructed_first = _Newvec;
; 757  :             _Umove(_Whereptr, _Mylast, _Newvec + _Whereoff + 1);

  000a1	8b 5d fc	 mov	 ebx, DWORD PTR tv434[ebp]

; 1592 :         return _Uninitialized_move(_First, _Last, _Dest, _Getal());

  000a4	83 c4 10	 add	 esp, 16			; 00000010H

; 755  :             _Umove(_Myfirst, _Whereptr, _Newvec);
; 756  :             _Constructed_first = _Newvec;
; 757  :             _Umove(_Whereptr, _Mylast, _Newvec + _Whereoff + 1);

  000a7	8d 43 04	 lea	 eax, DWORD PTR [ebx+4]
$LN5@Emplace_re:
  000aa	56		 push	 esi
  000ab	50		 push	 eax
  000ac	52		 push	 edx
  000ad	51		 push	 ecx
  000ae	e8 00 00 00 00	 call	 ??$_Uninitialized_move@PAKV?$allocator@K@std@@@std@@YAPAKQAK0PAKAAV?$allocator@K@0@@Z ; std::_Uninitialized_move<unsigned long *,std::allocator<unsigned long> >

; 1676 :         if (_Myfirst) { // destroy and deallocate old array

  000b3	8b 0e		 mov	 ecx, DWORD PTR [esi]

; 755  :             _Umove(_Myfirst, _Whereptr, _Newvec);
; 756  :             _Constructed_first = _Newvec;
; 757  :             _Umove(_Whereptr, _Mylast, _Newvec + _Whereoff + 1);

  000b5	83 c4 10	 add	 esp, 16			; 00000010H

; 1676 :         if (_Myfirst) { // destroy and deallocate old array

  000b8	85 c9		 test	 ecx, ecx
  000ba	74 12		 je	 SHORT $LN33@Emplace_re

; 1677 :             _Destroy(_Myfirst, _Mylast);
; 1678 :             _Getal().deallocate(_Myfirst, static_cast<size_type>(_Myend - _Myfirst));

  000bc	8b 46 08	 mov	 eax, DWORD PTR [esi+8]
  000bf	2b c1		 sub	 eax, ecx
; File C:\Program Files (x86)\Microsoft Visual Studio\2019\Community\VC\Tools\MSVC\14.28.29333\include\xmemory

; 810  :         _Deallocate<_New_alignof<_Ty>>(_Ptr, sizeof(_Ty) * _Count);

  000c1	83 e0 fc	 and	 eax, -4			; fffffffcH
  000c4	50		 push	 eax
  000c5	51		 push	 ecx
  000c6	e8 00 00 00 00	 call	 ??$_Deallocate@$07$0A@@std@@YAXPAXI@Z ; std::_Deallocate<8,0>
  000cb	83 c4 08	 add	 esp, 8
$LN33@Emplace_re:
; File C:\Program Files (x86)\Microsoft Visual Studio\2019\Community\VC\Tools\MSVC\14.28.29333\include\vector

; 1682 :         _Mylast  = _Newvec + _Newsize;

  000ce	8b 45 f8	 mov	 eax, DWORD PTR __Newsize$1$[ebp]
  000d1	89 3e		 mov	 DWORD PTR [esi], edi
  000d3	8d 0c 87	 lea	 ecx, DWORD PTR [edi+eax*4]

; 758  :         }
; 759  :         _CATCH_ALL
; 760  :         _Destroy(_Constructed_first, _Constructed_last);
; 761  :         _Al.deallocate(_Newvec, _Newcapacity);
; 762  :         _RERAISE;
; 763  :         _CATCH_END
; 764  : 
; 765  :         _Change_array(_Newvec, _Newsize, _Newcapacity);
; 766  :         return _Newvec + _Whereoff;

  000d6	8b c3		 mov	 eax, ebx

; 1682 :         _Mylast  = _Newvec + _Newsize;

  000d8	89 4e 04	 mov	 DWORD PTR [esi+4], ecx

; 1683 :         _Myend   = _Newvec + _Newcapacity;

  000db	8b 4d f4	 mov	 ecx, DWORD PTR tv435[ebp]
  000de	03 cf		 add	 ecx, edi

; 758  :         }
; 759  :         _CATCH_ALL
; 760  :         _Destroy(_Constructed_first, _Constructed_last);
; 761  :         _Al.deallocate(_Newvec, _Newcapacity);
; 762  :         _RERAISE;
; 763  :         _CATCH_END
; 764  : 
; 765  :         _Change_array(_Newvec, _Newsize, _Newcapacity);
; 766  :         return _Newvec + _Whereoff;

  000e0	5f		 pop	 edi

; 1683 :         _Myend   = _Newvec + _Newcapacity;

  000e1	89 4e 08	 mov	 DWORD PTR [esi+8], ecx

; 758  :         }
; 759  :         _CATCH_ALL
; 760  :         _Destroy(_Constructed_first, _Constructed_last);
; 761  :         _Al.deallocate(_Newvec, _Newcapacity);
; 762  :         _RERAISE;
; 763  :         _CATCH_END
; 764  : 
; 765  :         _Change_array(_Newvec, _Newsize, _Newcapacity);
; 766  :         return _Newvec + _Whereoff;

  000e4	5e		 pop	 esi
  000e5	5b		 pop	 ebx

; 767  :     }

  000e6	8b e5		 mov	 esp, ebp
  000e8	5d		 pop	 ebp
  000e9	c2 08 00	 ret	 8
$LN39@Emplace_re:

; 738  :             _Xlength();

  000ec	e8 00 00 00 00	 call	 ?_Xlength@?$vector@KV?$allocator@K@std@@@std@@CAXXZ ; std::vector<unsigned long,std::allocator<unsigned long> >::_Xlength
$LN40@Emplace_re:
; File C:\Program Files (x86)\Microsoft Visual Studio\2019\Community\VC\Tools\MSVC\14.28.29333\include\xmemory

; 61   :             _Throw_bad_array_new_length(); // multiply overflow

  000f1	e8 00 00 00 00	 call	 ?_Throw_bad_array_new_length@std@@YAXXZ ; std::_Throw_bad_array_new_length
$LN37@Emplace_re:
  000f6	cc		 int	 3
??$_Emplace_reallocate@ABK@?$vector@KV?$allocator@K@std@@@std@@QAEPAKQAKABK@Z ENDP ; std::vector<unsigned long,std::allocator<unsigned long> >::_Emplace_reallocate<unsigned long const &>
_TEXT	ENDS
; Function compile flags: /Ogtp
; File C:\Program Files (x86)\Microsoft Visual Studio\2019\Community\VC\Tools\MSVC\14.28.29333\include\vector
; File C:\Program Files (x86)\Microsoft Visual Studio\2019\Community\VC\Tools\MSVC\14.28.29333\include\xmemory
; File C:\Program Files (x86)\Microsoft Visual Studio\2019\Community\VC\Tools\MSVC\14.28.29333\include\vector
; File C:\Program Files (x86)\Microsoft Visual Studio\2019\Community\VC\Tools\MSVC\14.28.29333\include\xmemory
; File C:\Program Files (x86)\Microsoft Visual Studio\2019\Community\VC\Tools\MSVC\14.28.29333\include\vector
; File C:\Program Files (x86)\Microsoft Visual Studio\2019\Community\VC\Tools\MSVC\14.28.29333\include\xmemory
; File C:\Program Files (x86)\Microsoft Visual Studio\2019\Community\VC\Tools\MSVC\14.28.29333\include\vector
; File C:\Program Files (x86)\Microsoft Visual Studio\2019\Community\VC\Tools\MSVC\14.28.29333\include\xmemory
; File C:\Program Files (x86)\Microsoft Visual Studio\2019\Community\VC\Tools\MSVC\14.28.29333\include\vector
; File C:\Program Files (x86)\Microsoft Visual Studio\2019\Community\VC\Tools\MSVC\14.28.29333\include\xmemory
; File C:\Program Files (x86)\Microsoft Visual Studio\2019\Community\VC\Tools\MSVC\14.28.29333\include\vector
; File C:\Program Files (x86)\Microsoft Visual Studio\2019\Community\VC\Tools\MSVC\14.28.29333\include\xmemory
; File C:\Program Files (x86)\Microsoft Visual Studio\2019\Community\VC\Tools\MSVC\14.28.29333\include\vector
;	COMDAT ??$_Emplace_reallocate@ABUSHyperlink@CGraphicTextInstance@@@?$vector@USHyperlink@CGraphicTextInstance@@V?$allocator@USHyperlink@CGraphicTextInstance@@@std@@@std@@QAEPAUSHyperlink@CGraphicTextInstance@@QAU23@ABU23@@Z
_TEXT	SEGMENT
__Newvec$ = -44						; size = 4
_this$ = -40						; size = 4
tv377 = -36						; size = 4
tv378 = -32						; size = 4
__Newsize$1$ = -28					; size = 4
__Newcapacity$ = -24					; size = 4
__Whereoff$1$ = -20					; size = 4
__Constructed_last$ = -20				; size = 4
__$EHRec$ = -16						; size = 16
__Whereptr$ = 8						; size = 4
_<_Val_0>$ = 12						; size = 4
??$_Emplace_reallocate@ABUSHyperlink@CGraphicTextInstance@@@?$vector@USHyperlink@CGraphicTextInstance@@V?$allocator@USHyperlink@CGraphicTextInstance@@@std@@@std@@QAEPAUSHyperlink@CGraphicTextInstance@@QAU23@ABU23@@Z PROC ; std::vector<CGraphicTextInstance::SHyperlink,std::allocator<CGraphicTextInstance::SHyperlink> >::_Emplace_reallocate<CGraphicTextInstance::SHyperlink const &>, COMDAT
; _this$ = ecx

; 725  :     pointer _Emplace_reallocate(const pointer _Whereptr, _Valty&&... _Val) {

  00000	55		 push	 ebp
  00001	8b ec		 mov	 ebp, esp
  00003	6a ff		 push	 -1
  00005	68 00 00 00 00	 push	 __ehhandler$??$_Emplace_reallocate@ABUSHyperlink@CGraphicTextInstance@@@?$vector@USHyperlink@CGraphicTextInstance@@V?$allocator@USHyperlink@CGraphicTextInstance@@@std@@@std@@QAEPAUSHyperlink@CGraphicTextInstance@@QAU23@ABU23@@Z
  0000a	64 a1 00 00 00
	00		 mov	 eax, DWORD PTR fs:0
  00010	50		 push	 eax
  00011	83 ec 20	 sub	 esp, 32			; 00000020H
  00014	53		 push	 ebx
  00015	56		 push	 esi
  00016	57		 push	 edi
  00017	a1 00 00 00 00	 mov	 eax, DWORD PTR ___security_cookie
  0001c	33 c5		 xor	 eax, ebp
  0001e	50		 push	 eax
  0001f	8d 45 f4	 lea	 eax, DWORD PTR __$EHRec$[ebp+4]
  00022	64 a3 00 00 00
	00		 mov	 DWORD PTR fs:0, eax
  00028	89 65 f0	 mov	 DWORD PTR __$EHRec$[ebp], esp
  0002b	8b f9		 mov	 edi, ecx
  0002d	89 7d d8	 mov	 DWORD PTR _this$[ebp], edi

; 726  :         // reallocate and insert by perfectly forwarding _Val at _Whereptr
; 727  :         _Alty& _Al        = _Getal();
; 728  :         auto& _My_data    = _Mypair._Myval2;
; 729  :         pointer& _Myfirst = _My_data._Myfirst;
; 730  :         pointer& _Mylast  = _My_data._Mylast;
; 731  : 
; 732  :         _STL_INTERNAL_CHECK(_Mylast == _My_data._Myend); // check that we have no unused capacity
; 733  : 
; 734  :         const auto _Whereoff = static_cast<size_type>(_Whereptr - _Myfirst);

  00030	8b 1f		 mov	 ebx, DWORD PTR [edi]
  00032	b8 93 24 49 92	 mov	 eax, -1840700269	; 92492493H
  00037	8b 75 08	 mov	 esi, DWORD PTR __Whereptr$[ebp]

; 735  :         const auto _Oldsize  = static_cast<size_type>(_Mylast - _Myfirst);

  0003a	8b 4f 04	 mov	 ecx, DWORD PTR [edi+4]
  0003d	2b f3		 sub	 esi, ebx
  0003f	f7 ee		 imul	 esi
  00041	2b cb		 sub	 ecx, ebx
  00043	03 d6		 add	 edx, esi
  00045	c1 fa 04	 sar	 edx, 4
  00048	8b c2		 mov	 eax, edx
  0004a	c1 e8 1f	 shr	 eax, 31			; 0000001fH
  0004d	03 c2		 add	 eax, edx
  0004f	89 45 ec	 mov	 DWORD PTR __Whereoff$1$[ebp], eax
  00052	b8 93 24 49 92	 mov	 eax, -1840700269	; 92492493H
  00057	f7 e9		 imul	 ecx
  00059	03 d1		 add	 edx, ecx
  0005b	c1 fa 04	 sar	 edx, 4
  0005e	8b f2		 mov	 esi, edx
  00060	c1 ee 1f	 shr	 esi, 31			; 0000001fH
  00063	03 f2		 add	 esi, edx

; 736  : 
; 737  :         if (_Oldsize == max_size()) {

  00065	81 fe 49 92 24
	09		 cmp	 esi, 153391689		; 09249249H
  0006b	0f 84 59 01 00
	00		 je	 $LN43@Emplace_re

; 1494 :         return static_cast<size_type>(_My_data._Myend - _My_data._Myfirst);

  00071	8b 4f 08	 mov	 ecx, DWORD PTR [edi+8]
  00074	b8 93 24 49 92	 mov	 eax, -1840700269	; 92492493H
  00079	2b cb		 sub	 ecx, ebx

; 739  :         }
; 740  : 
; 741  :         const size_type _Newsize     = _Oldsize + 1;

  0007b	46		 inc	 esi

; 1494 :         return static_cast<size_type>(_My_data._Myend - _My_data._Myfirst);

  0007c	f7 e9		 imul	 ecx

; 1620 :         if (_Oldcapacity > _Max - _Oldcapacity / 2) {

  0007e	b8 49 92 24 09	 mov	 eax, 153391689		; 09249249H

; 739  :         }
; 740  : 
; 741  :         const size_type _Newsize     = _Oldsize + 1;

  00083	89 75 e4	 mov	 DWORD PTR __Newsize$1$[ebp], esi

; 1494 :         return static_cast<size_type>(_My_data._Myend - _My_data._Myfirst);

  00086	03 d1		 add	 edx, ecx
  00088	c1 fa 04	 sar	 edx, 4
  0008b	8b ca		 mov	 ecx, edx
  0008d	c1 e9 1f	 shr	 ecx, 31			; 0000001fH
  00090	03 ca		 add	 ecx, edx

; 1620 :         if (_Oldcapacity > _Max - _Oldcapacity / 2) {

  00092	8b d1		 mov	 edx, ecx
  00094	d1 ea		 shr	 edx, 1
  00096	2b c2		 sub	 eax, edx
  00098	3b c8		 cmp	 ecx, eax
  0009a	76 5e		 jbe	 SHORT $LN12@Emplace_re

; 1621 :             return _Max; // geometric growth would overflow

  0009c	b9 49 92 24 09	 mov	 ecx, 153391689		; 09249249H
$LN39@Emplace_re:
; File C:\Program Files (x86)\Microsoft Visual Studio\2019\Community\VC\Tools\MSVC\14.28.29333\include\xmemory

; 65   :     return _Count * _Ty_size;

  000a1	8d 04 cd 00 00
	00 00		 lea	 eax, DWORD PTR [ecx*8]
  000a8	89 4d e8	 mov	 DWORD PTR __Newcapacity$[ebp], ecx
  000ab	2b c1		 sub	 eax, ecx
  000ad	c1 e0 02	 shl	 eax, 2

; 814  :         return static_cast<_Ty*>(_Allocate<_New_alignof<_Ty>>(_Get_size_of_n<sizeof(_Ty)>(_Count)));

  000b0	50		 push	 eax

; 65   :     return _Count * _Ty_size;

  000b1	89 45 e0	 mov	 DWORD PTR tv378[ebp], eax

; 814  :         return static_cast<_Ty*>(_Allocate<_New_alignof<_Ty>>(_Get_size_of_n<sizeof(_Ty)>(_Count)));

  000b4	e8 00 00 00 00	 call	 ??$_Allocate@$07U_Default_allocate_traits@std@@$0A@@std@@YAPAXI@Z ; std::_Allocate<8,std::_Default_allocate_traits,0>
; File C:\Program Files (x86)\Microsoft Visual Studio\2019\Community\VC\Tools\MSVC\14.28.29333\include\vector

; 745  :         const pointer _Constructed_last = _Newvec + _Whereoff + 1;

  000b9	8b 4d ec	 mov	 ecx, DWORD PTR __Whereoff$1$[ebp]
; File C:\Program Files (x86)\Microsoft Visual Studio\2019\Community\VC\Tools\MSVC\14.28.29333\include\xmemory

; 814  :         return static_cast<_Ty*>(_Allocate<_New_alignof<_Ty>>(_Get_size_of_n<sizeof(_Ty)>(_Count)));

  000bc	8b d8		 mov	 ebx, eax
; File C:\Program Files (x86)\Microsoft Visual Studio\2019\Community\VC\Tools\MSVC\14.28.29333\include\vector

; 749  :         _Alty_traits::construct(_Al, _Unfancy(_Newvec + _Whereoff), _STD forward<_Valty>(_Val)...);

  000be	ff 75 0c	 push	 DWORD PTR _<_Val_0>$[ebp]
; File C:\Program Files (x86)\Microsoft Visual Studio\2019\Community\VC\Tools\MSVC\14.28.29333\include\xmemory

; 814  :         return static_cast<_Ty*>(_Allocate<_New_alignof<_Ty>>(_Get_size_of_n<sizeof(_Ty)>(_Count)));

  000c1	89 5d d4	 mov	 DWORD PTR __Newvec$[ebp], ebx
; File C:\Program Files (x86)\Microsoft Visual Studio\2019\Community\VC\Tools\MSVC\14.28.29333\include\vector

; 748  :         _TRY_BEGIN

  000c4	c7 45 fc 00 00
	00 00		 mov	 DWORD PTR __$EHRec$[ebp+12], 0
  000cb	8d 04 cd 00 00
	00 00		 lea	 eax, DWORD PTR [ecx*8]
  000d2	2b c1		 sub	 eax, ecx
  000d4	8d 0c 83	 lea	 ecx, DWORD PTR [ebx+eax*4]

; 749  :         _Alty_traits::construct(_Al, _Unfancy(_Newvec + _Whereoff), _STD forward<_Valty>(_Val)...);

  000d7	51		 push	 ecx
  000d8	8d 41 1c	 lea	 eax, DWORD PTR [ecx+28]
  000db	89 4d dc	 mov	 DWORD PTR tv377[ebp], ecx
  000de	57		 push	 edi
  000df	89 45 ec	 mov	 DWORD PTR __Constructed_last$[ebp], eax
  000e2	e8 00 00 00 00	 call	 ??$construct@USHyperlink@CGraphicTextInstance@@ABU12@@?$_Default_allocator_traits@V?$allocator@USHyperlink@CGraphicTextInstance@@@std@@@std@@SAXAAV?$allocator@USHyperlink@CGraphicTextInstance@@@1@QAUSHyperlink@CGraphicTextInstance@@ABU34@@Z ; std::_Default_allocator_traits<std::allocator<CGraphicTextInstance::SHyperlink> >::construct<CGraphicTextInstance::SHyperlink,CGraphicTextInstance::SHyperlink const &>

; 750  :         _Constructed_first = _Newvec + _Whereoff;
; 751  : 
; 752  :         if (_Whereptr == _Mylast) { // at back, provide strong guarantee

  000e7	8b 47 04	 mov	 eax, DWORD PTR [edi+4]
  000ea	83 c4 10	 add	 esp, 16			; 00000010H
  000ed	8b 55 08	 mov	 edx, DWORD PTR __Whereptr$[ebp]
  000f0	8b 0f		 mov	 ecx, DWORD PTR [edi]
  000f2	3b d0		 cmp	 edx, eax
  000f4	75 1c		 jne	 SHORT $LN4@Emplace_re

; 1597 :         _Uninitialized_move(_First, _Last, _Dest, _Getal());

  000f6	8b d3		 mov	 edx, ebx

; 753  :             _Umove_if_noexcept(_Myfirst, _Mylast, _Newvec);
; 754  :         } else { // provide basic guarantee

  000f8	eb 2d		 jmp	 SHORT $LN5@Emplace_re
$LN12@Emplace_re:

; 1624 :         const size_type _Geometric = _Oldcapacity + _Oldcapacity / 2;

  000fa	8d 04 0a	 lea	 eax, DWORD PTR [edx+ecx]
; File C:\Program Files (x86)\Microsoft Visual Studio\2019\Community\VC\Tools\MSVC\14.28.29333\include\xmemory

; 60   :         if (_Count > _Max_possible) {

  000fd	8b ce		 mov	 ecx, esi
  000ff	3b c6		 cmp	 eax, esi
  00101	0f 43 c8	 cmovae	 ecx, eax
  00104	81 f9 49 92 24
	09		 cmp	 ecx, 153391689		; 09249249H
  0010a	0f 87 bf 00 00
	00		 ja	 $LN44@Emplace_re
  00110	eb 8f		 jmp	 SHORT $LN39@Emplace_re
$LN4@Emplace_re:
; File C:\Program Files (x86)\Microsoft Visual Studio\2019\Community\VC\Tools\MSVC\14.28.29333\include\vector

; 1592 :         return _Uninitialized_move(_First, _Last, _Dest, _Getal());

  00112	57		 push	 edi
  00113	53		 push	 ebx
  00114	52		 push	 edx
  00115	51		 push	 ecx
  00116	e8 00 00 00 00	 call	 ??$_Uninitialized_move@PAUSHyperlink@CGraphicTextInstance@@V?$allocator@USHyperlink@CGraphicTextInstance@@@std@@@std@@YAPAUSHyperlink@CGraphicTextInstance@@QAU12@0PAU12@AAV?$allocator@USHyperlink@CGraphicTextInstance@@@0@@Z ; std::_Uninitialized_move<CGraphicTextInstance::SHyperlink *,std::allocator<CGraphicTextInstance::SHyperlink> >
  0011b	8b 4d 08	 mov	 ecx, DWORD PTR __Whereptr$[ebp]
  0011e	83 c4 10	 add	 esp, 16			; 00000010H
  00121	8b 47 04	 mov	 eax, DWORD PTR [edi+4]
  00124	8b 55 ec	 mov	 edx, DWORD PTR __Constructed_last$[ebp]
$LN5@Emplace_re:

; 755  :             _Umove(_Myfirst, _Whereptr, _Newvec);
; 756  :             _Constructed_first = _Newvec;
; 757  :             _Umove(_Whereptr, _Mylast, _Newvec + _Whereoff + 1);

  00127	57		 push	 edi
  00128	52		 push	 edx
  00129	50		 push	 eax
  0012a	51		 push	 ecx
  0012b	e8 00 00 00 00	 call	 ??$_Uninitialized_move@PAUSHyperlink@CGraphicTextInstance@@V?$allocator@USHyperlink@CGraphicTextInstance@@@std@@@std@@YAPAUSHyperlink@CGraphicTextInstance@@QAU12@0PAU12@AAV?$allocator@USHyperlink@CGraphicTextInstance@@@0@@Z ; std::_Uninitialized_move<CGraphicTextInstance::SHyperlink *,std::allocator<CGraphicTextInstance::SHyperlink> >

; 1676 :         if (_Myfirst) { // destroy and deallocate old array

  00130	8b 0f		 mov	 ecx, DWORD PTR [edi]

; 755  :             _Umove(_Myfirst, _Whereptr, _Newvec);
; 756  :             _Constructed_first = _Newvec;
; 757  :             _Umove(_Whereptr, _Mylast, _Newvec + _Whereoff + 1);

  00132	83 c4 10	 add	 esp, 16			; 00000010H

; 1676 :         if (_Myfirst) { // destroy and deallocate old array

  00135	85 c9		 test	 ecx, ecx
  00137	74 3d		 je	 SHORT $LN33@Emplace_re

; 1612 :         _Destroy_range(_First, _Last, _Getal());

  00139	57		 push	 edi
  0013a	ff 77 04	 push	 DWORD PTR [edi+4]
  0013d	51		 push	 ecx
  0013e	e8 00 00 00 00	 call	 ??$_Destroy_range@V?$allocator@USHyperlink@CGraphicTextInstance@@@std@@@std@@YAXPAUSHyperlink@CGraphicTextInstance@@QAU12@AAV?$allocator@USHyperlink@CGraphicTextInstance@@@0@@Z ; std::_Destroy_range<std::allocator<CGraphicTextInstance::SHyperlink> >

; 1678 :             _Getal().deallocate(_Myfirst, static_cast<size_type>(_Myend - _Myfirst));

  00143	8b 37		 mov	 esi, DWORD PTR [edi]
  00145	b8 93 24 49 92	 mov	 eax, -1840700269	; 92492493H
  0014a	8b 4f 08	 mov	 ecx, DWORD PTR [edi+8]
  0014d	2b ce		 sub	 ecx, esi
  0014f	f7 e9		 imul	 ecx
  00151	03 d1		 add	 edx, ecx
  00153	c1 fa 04	 sar	 edx, 4
  00156	8b ca		 mov	 ecx, edx
  00158	c1 e9 1f	 shr	 ecx, 31			; 0000001fH
  0015b	03 ca		 add	 ecx, edx
; File C:\Program Files (x86)\Microsoft Visual Studio\2019\Community\VC\Tools\MSVC\14.28.29333\include\xmemory

; 810  :         _Deallocate<_New_alignof<_Ty>>(_Ptr, sizeof(_Ty) * _Count);

  0015d	8d 04 cd 00 00
	00 00		 lea	 eax, DWORD PTR [ecx*8]
  00164	2b c1		 sub	 eax, ecx
  00166	c1 e0 02	 shl	 eax, 2
  00169	50		 push	 eax
  0016a	56		 push	 esi
  0016b	e8 00 00 00 00	 call	 ??$_Deallocate@$07$0A@@std@@YAXPAXI@Z ; std::_Deallocate<8,0>
  00170	8b 75 e4	 mov	 esi, DWORD PTR __Newsize$1$[ebp]
  00173	83 c4 14	 add	 esp, 20			; 00000014H
$LN33@Emplace_re:
; File C:\Program Files (x86)\Microsoft Visual Studio\2019\Community\VC\Tools\MSVC\14.28.29333\include\vector

; 766  :         return _Newvec + _Whereoff;

  00176	8b 45 dc	 mov	 eax, DWORD PTR tv377[ebp]

; 1682 :         _Mylast  = _Newvec + _Newsize;

  00179	8d 0c f5 00 00
	00 00		 lea	 ecx, DWORD PTR [esi*8]
  00180	2b ce		 sub	 ecx, esi
  00182	89 1f		 mov	 DWORD PTR [edi], ebx
  00184	8d 0c 8b	 lea	 ecx, DWORD PTR [ebx+ecx*4]
  00187	89 4f 04	 mov	 DWORD PTR [edi+4], ecx

; 1683 :         _Myend   = _Newvec + _Newcapacity;

  0018a	8b 4d e0	 mov	 ecx, DWORD PTR tv378[ebp]
  0018d	03 cb		 add	 ecx, ebx
  0018f	89 4f 08	 mov	 DWORD PTR [edi+8], ecx

; 767  :     }

  00192	8b 4d f4	 mov	 ecx, DWORD PTR __$EHRec$[ebp+4]
  00195	64 89 0d 00 00
	00 00		 mov	 DWORD PTR fs:0, ecx
  0019c	59		 pop	 ecx
  0019d	5f		 pop	 edi
  0019e	5e		 pop	 esi
  0019f	5b		 pop	 ebx
  001a0	8b e5		 mov	 esp, ebp
  001a2	5d		 pop	 ebp
  001a3	c2 08 00	 ret	 8
__catch$??$_Emplace_reallocate@ABUSHyperlink@CGraphicTextInstance@@@?$vector@USHyperlink@CGraphicTextInstance@@V?$allocator@USHyperlink@CGraphicTextInstance@@@std@@@std@@QAEPAUSHyperlink@CGraphicTextInstance@@QAU23@ABU23@@Z$0:

; 758  :         }
; 759  :         _CATCH_ALL
; 760  :         _Destroy(_Constructed_first, _Constructed_last);

  001a6	8b 45 ec	 mov	 eax, DWORD PTR __Constructed_last$[ebp]
  001a9	8b 4d d8	 mov	 ecx, DWORD PTR _this$[ebp]
  001ac	50		 push	 eax
  001ad	50		 push	 eax
  001ae	e8 00 00 00 00	 call	 ?_Destroy@?$vector@USHyperlink@CGraphicTextInstance@@V?$allocator@USHyperlink@CGraphicTextInstance@@@std@@@std@@AAEXPAUSHyperlink@CGraphicTextInstance@@0@Z ; std::vector<CGraphicTextInstance::SHyperlink,std::allocator<CGraphicTextInstance::SHyperlink> >::_Destroy

; 761  :         _Al.deallocate(_Newvec, _Newcapacity);

  001b3	ff 75 e8	 push	 DWORD PTR __Newcapacity$[ebp]
  001b6	8b 4d d8	 mov	 ecx, DWORD PTR _this$[ebp]
  001b9	ff 75 d4	 push	 DWORD PTR __Newvec$[ebp]
  001bc	e8 00 00 00 00	 call	 ?deallocate@?$allocator@USHyperlink@CGraphicTextInstance@@@std@@QAEXQAUSHyperlink@CGraphicTextInstance@@I@Z ; std::allocator<CGraphicTextInstance::SHyperlink>::deallocate

; 762  :         _RERAISE;

  001c1	6a 00		 push	 0
  001c3	6a 00		 push	 0
  001c5	e8 00 00 00 00	 call	 __CxxThrowException@8
$LN43@Emplace_re:

; 738  :             _Xlength();

  001ca	e8 00 00 00 00	 call	 ?_Xlength@?$vector@USHyperlink@CGraphicTextInstance@@V?$allocator@USHyperlink@CGraphicTextInstance@@@std@@@std@@CAXXZ ; std::vector<CGraphicTextInstance::SHyperlink,std::allocator<CGraphicTextInstance::SHyperlink> >::_Xlength
$LN44@Emplace_re:
; File C:\Program Files (x86)\Microsoft Visual Studio\2019\Community\VC\Tools\MSVC\14.28.29333\include\xmemory

; 61   :             _Throw_bad_array_new_length(); // multiply overflow

  001cf	e8 00 00 00 00	 call	 ?_Throw_bad_array_new_length@std@@YAXXZ ; std::_Throw_bad_array_new_length
$LN41@Emplace_re:
  001d4	cc		 int	 3
  001d5	cc		 int	 3
  001d6	cc		 int	 3
  001d7	cc		 int	 3
  001d8	cc		 int	 3
  001d9	cc		 int	 3
_TEXT	ENDS
;	COMDAT text$x
text$x	SEGMENT
__ehhandler$??$_Emplace_reallocate@ABUSHyperlink@CGraphicTextInstance@@@?$vector@USHyperlink@CGraphicTextInstance@@V?$allocator@USHyperlink@CGraphicTextInstance@@@std@@@std@@QAEPAUSHyperlink@CGraphicTextInstance@@QAU23@ABU23@@Z:
  00000	90		 npad	 1
  00001	90		 npad	 1
  00002	8b 54 24 08	 mov	 edx, DWORD PTR [esp+8]
  00006	8d 42 0c	 lea	 eax, DWORD PTR [edx+12]
  00009	8b 4a d0	 mov	 ecx, DWORD PTR [edx-48]
  0000c	33 c8		 xor	 ecx, eax
  0000e	e8 00 00 00 00	 call	 @__security_check_cookie@4
  00013	b8 00 00 00 00	 mov	 eax, OFFSET __ehfuncinfo$??$_Emplace_reallocate@ABUSHyperlink@CGraphicTextInstance@@@?$vector@USHyperlink@CGraphicTextInstance@@V?$allocator@USHyperlink@CGraphicTextInstance@@@std@@@std@@QAEPAUSHyperlink@CGraphicTextInstance@@QAU23@ABU23@@Z
  00018	e9 00 00 00 00	 jmp	 ___CxxFrameHandler3
text$x	ENDS
??$_Emplace_reallocate@ABUSHyperlink@CGraphicTextInstance@@@?$vector@USHyperlink@CGraphicTextInstance@@V?$allocator@USHyperlink@CGraphicTextInstance@@@std@@@std@@QAEPAUSHyperlink@CGraphicTextInstance@@QAU23@ABU23@@Z ENDP ; std::vector<CGraphicTextInstance::SHyperlink,std::allocator<CGraphicTextInstance::SHyperlink> >::_Emplace_reallocate<CGraphicTextInstance::SHyperlink const &>
; Function compile flags: /Ogtp
; File C:\Program Files (x86)\Microsoft Visual Studio\2019\Community\VC\Tools\MSVC\14.28.29333\include\xmemory
; File C:\Program Files (x86)\Microsoft Visual Studio\2019\Community\VC\Tools\MSVC\14.28.29333\include\xstring
; File C:\Program Files (x86)\Microsoft Visual Studio\2019\Community\VC\Tools\MSVC\14.28.29333\include\xmemory
; File C:\Program Files (x86)\Microsoft Visual Studio\2019\Community\VC\Tools\MSVC\14.28.29333\include\xstring
; File C:\Program Files (x86)\Microsoft Visual Studio\2019\Community\VC\Tools\MSVC\14.28.29333\include\utility
; File C:\Program Files (x86)\Microsoft Visual Studio\2019\Community\VC\Tools\MSVC\14.28.29333\include\xstring
; File C:\Program Files (x86)\Microsoft Visual Studio\2019\Community\VC\Tools\MSVC\14.28.29333\include\xmemory
; File C:\Program Files (x86)\Microsoft Visual Studio\2019\Community\VC\Tools\MSVC\14.28.29333\include\xstring
; File C:\Program Files (x86)\Microsoft Visual Studio\2019\Community\VC\Tools\MSVC\14.28.29333\include\xmemory
;	COMDAT ??$construct@USHyperlink@CGraphicTextInstance@@ABU12@@?$_Default_allocator_traits@V?$allocator@USHyperlink@CGraphicTextInstance@@@std@@@std@@SAXAAV?$allocator@USHyperlink@CGraphicTextInstance@@@1@QAUSHyperlink@CGraphicTextInstance@@ABU34@@Z
_TEXT	SEGMENT
__New_capacity$1$ = -4					; size = 4
___formal$ = 8						; size = 4
__New_array$1 = 12					; size = 4
__Ptr$ = 12						; size = 4
__Right_size$1$ = 16					; size = 4
_<_Args_0>$ = 16					; size = 4
??$construct@USHyperlink@CGraphicTextInstance@@ABU12@@?$_Default_allocator_traits@V?$allocator@USHyperlink@CGraphicTextInstance@@@std@@@std@@SAXAAV?$allocator@USHyperlink@CGraphicTextInstance@@@1@QAUSHyperlink@CGraphicTextInstance@@ABU34@@Z PROC ; std::_Default_allocator_traits<std::allocator<CGraphicTextInstance::SHyperlink> >::construct<CGraphicTextInstance::SHyperlink,CGraphicTextInstance::SHyperlink const &>, COMDAT

; 700  :     static void construct(_Alloc&, _Objty* const _Ptr, _Types&&... _Args) {

  00000	55		 push	 ebp
  00001	8b ec		 mov	 ebp, esp
  00003	51		 push	 ecx
  00004	8b 55 10	 mov	 edx, DWORD PTR _<_Args_0>$[ebp]
  00007	8b 4d 0c	 mov	 ecx, DWORD PTR __Ptr$[ebp]
  0000a	53		 push	 ebx
  0000b	57		 push	 edi
  0000c	0f b7 02	 movzx	 eax, WORD PTR [edx]
  0000f	8d 79 04	 lea	 edi, DWORD PTR [ecx+4]
  00012	66 89 01	 mov	 WORD PTR [ecx], ax
; File C:\Program Files (x86)\Microsoft Visual Studio\2019\Community\VC\Tools\MSVC\14.28.29333\include\xstring

; 2733 :         auto& _Right_data             = _Right._Mypair._Myval2;

  00015	8d 5a 04	 lea	 ebx, DWORD PTR [edx+4]
  00018	0f b7 42 02	 movzx	 eax, WORD PTR [edx+2]
  0001c	66 89 41 02	 mov	 WORD PTR [ecx+2], ax

; 2198 :     _String_val() noexcept : _Bx(), _Mysize(0), _Myres(0) {}

  00020	c7 47 10 00 00
	00 00		 mov	 DWORD PTR [edi+16], 0
  00027	c7 47 14 00 00
	00 00		 mov	 DWORD PTR [edi+20], 0

; 2227 :         return _BUF_SIZE <= _Myres;

  0002e	83 7b 14 08	 cmp	 DWORD PTR [ebx+20], 8

; 2734 :         const size_type _Right_size   = _Right_data._Mysize;

  00032	8b 43 10	 mov	 eax, DWORD PTR [ebx+16]
  00035	89 45 10	 mov	 DWORD PTR __Right_size$1$[ebp], eax

; 2219 :         if (_Large_string_engaged()) {

  00038	72 02		 jb	 SHORT $LN18@construct

; 2220 :             _Result = _Unfancy(_Bx._Ptr);

  0003a	8b 1b		 mov	 ebx, DWORD PTR [ebx]
$LN18@construct:

; 2737 :         if (_Right_size < _BUF_SIZE) { // stay small, don't allocate

  0003c	83 f8 08	 cmp	 eax, 8
  0003f	73 16		 jae	 SHORT $LN15@construct

; 62   :         _CSTD memcpy(_First1, _First2, _Count * sizeof(_Elem));

  00041	0f 10 03	 movups	 xmm0, XMMWORD PTR [ebx]
  00044	0f 11 07	 movups	 XMMWORD PTR [edi], xmm0

; 2739 :             _My_data._Mysize = _Right_size;

  00047	89 47 10	 mov	 DWORD PTR [edi+16], eax

; 2740 :             _My_data._Myres  = _BUF_SIZE - 1;

  0004a	c7 47 14 07 00
	00 00		 mov	 DWORD PTR [edi+20], 7
  00051	5f		 pop	 edi
; File C:\Program Files (x86)\Microsoft Visual Studio\2019\Community\VC\Tools\MSVC\14.28.29333\include\xmemory

; 702  :     }

  00052	5b		 pop	 ebx
  00053	8b e5		 mov	 esp, ebp
  00055	5d		 pop	 ebp
  00056	c3		 ret	 0
$LN15@construct:
; File C:\Program Files (x86)\Microsoft Visual Studio\2019\Community\VC\Tools\MSVC\14.28.29333\include\xstring

; 2745 :         const size_type _New_capacity = (_STD min)(_Right_size | _ALLOC_MASK, max_size());

  00057	83 c8 07	 or	 eax, 7
; File C:\Program Files (x86)\Microsoft Visual Studio\2019\Community\VC\Tools\MSVC\14.28.29333\include\utility

; 68   :     return _Right < _Left ? _Right : _Left;

  0005a	b9 fe ff ff 7f	 mov	 ecx, 2147483646		; 7ffffffeH
  0005f	3b c1		 cmp	 eax, ecx
  00061	0f 47 c1	 cmova	 eax, ecx
  00064	89 45 fc	 mov	 DWORD PTR __New_capacity$1$[ebp], eax
; File C:\Program Files (x86)\Microsoft Visual Studio\2019\Community\VC\Tools\MSVC\14.28.29333\include\xstring

; 2746 :         const pointer _New_array      = _Al.allocate(_New_capacity + 1); // throws

  00067	40		 inc	 eax
; File C:\Program Files (x86)\Microsoft Visual Studio\2019\Community\VC\Tools\MSVC\14.28.29333\include\xmemory

; 60   :         if (_Count > _Max_possible) {

  00068	3d ff ff ff 7f	 cmp	 eax, 2147483647		; 7fffffffH
  0006d	77 40		 ja	 SHORT $LN40@construct

; 62   :         }
; 63   :     }
; 64   : 
; 65   :     return _Count * _Ty_size;

  0006f	03 c0		 add	 eax, eax
  00071	56		 push	 esi

; 814  :         return static_cast<_Ty*>(_Allocate<_New_alignof<_Ty>>(_Get_size_of_n<sizeof(_Ty)>(_Count)));

  00072	50		 push	 eax
  00073	e8 00 00 00 00	 call	 ??$_Allocate@$07U_Default_allocate_traits@std@@$0A@@std@@YAPAXI@Z ; std::_Allocate<8,std::_Default_allocate_traits,0>
; File C:\Program Files (x86)\Microsoft Visual Studio\2019\Community\VC\Tools\MSVC\14.28.29333\include\xstring

; 2746 :         const pointer _New_array      = _Al.allocate(_New_capacity + 1); // throws

  00078	8b f0		 mov	 esi, eax

; 2747 :         _Construct_in_place(_My_data._Bx._Ptr, _New_array);

  0007a	8d 45 0c	 lea	 eax, DWORD PTR __New_array$1[ebp]
  0007d	50		 push	 eax
  0007e	57		 push	 edi
  0007f	89 75 0c	 mov	 DWORD PTR __New_array$1[ebp], esi
  00082	e8 00 00 00 00	 call	 ??$_Construct_in_place@PA_WABQA_W@std@@YAXAAPA_WABQA_W@Z ; std::_Construct_in_place<wchar_t *,wchar_t * const &>

; 62   :         _CSTD memcpy(_First1, _First2, _Count * sizeof(_Elem));

  00087	8b 4d 10	 mov	 ecx, DWORD PTR __Right_size$1$[ebp]
  0008a	8d 0c 4d 02 00
	00 00		 lea	 ecx, DWORD PTR [ecx*2+2]
  00091	51		 push	 ecx
  00092	53		 push	 ebx
  00093	56		 push	 esi
  00094	e8 00 00 00 00	 call	 _memcpy

; 2749 :         _My_data._Mysize = _Right_size;

  00099	8b 45 10	 mov	 eax, DWORD PTR __Right_size$1$[ebp]

; 62   :         _CSTD memcpy(_First1, _First2, _Count * sizeof(_Elem));

  0009c	83 c4 18	 add	 esp, 24			; 00000018H

; 2749 :         _My_data._Mysize = _Right_size;

  0009f	89 47 10	 mov	 DWORD PTR [edi+16], eax

; 2750 :         _My_data._Myres  = _New_capacity;

  000a2	8b 45 fc	 mov	 eax, DWORD PTR __New_capacity$1$[ebp]
  000a5	89 47 14	 mov	 DWORD PTR [edi+20], eax
  000a8	5e		 pop	 esi
  000a9	5f		 pop	 edi
; File C:\Program Files (x86)\Microsoft Visual Studio\2019\Community\VC\Tools\MSVC\14.28.29333\include\xmemory

; 702  :     }

  000aa	5b		 pop	 ebx
  000ab	8b e5		 mov	 esp, ebp
  000ad	5d		 pop	 ebp
  000ae	c3		 ret	 0
$LN40@construct:

; 61   :             _Throw_bad_array_new_length(); // multiply overflow

  000af	e8 00 00 00 00	 call	 ?_Throw_bad_array_new_length@std@@YAXXZ ; std::_Throw_bad_array_new_length
$LN38@construct:
  000b4	cc		 int	 3
??$construct@USHyperlink@CGraphicTextInstance@@ABU12@@?$_Default_allocator_traits@V?$allocator@USHyperlink@CGraphicTextInstance@@@std@@@std@@SAXAAV?$allocator@USHyperlink@CGraphicTextInstance@@@1@QAUSHyperlink@CGraphicTextInstance@@ABU34@@Z ENDP ; std::_Default_allocator_traits<std::allocator<CGraphicTextInstance::SHyperlink> >::construct<CGraphicTextInstance::SHyperlink,CGraphicTextInstance::SHyperlink const &>
_TEXT	ENDS
; Function compile flags: /Ogtp
; File D:\Metin2 Server Files\mainline\SRC_2014\Metin2Client\EterLib\GrpTextInstance.cpp
;	COMDAT ?IsValidToken@@YA_NPBD@Z
_TEXT	SEGMENT
_iter$ = 8						; size = 4
?IsValidToken@@YA_NPBD@Z PROC				; IsValidToken, COMDAT

; 87   : {

  00000	55		 push	 ebp
  00001	8b ec		 mov	 ebp, esp
  00003	56		 push	 esi

; 88   : 	return	iter[0]=='@' && 

  00004	8b 75 08	 mov	 esi, DWORD PTR _iter$[ebp]
  00007	80 3e 40	 cmp	 BYTE PTR [esi], 64	; 00000040H
  0000a	75 49		 jne	 SHORT $LN3@IsValidTok
  0000c	0f b6 46 01	 movzx	 eax, BYTE PTR [esi+1]
  00010	50		 push	 eax
  00011	e8 00 00 00 00	 call	 ?isNumberic@@YA_ND@Z	; isNumberic
  00016	83 c4 04	 add	 esp, 4
  00019	84 c0		 test	 al, al
  0001b	74 38		 je	 SHORT $LN3@IsValidTok
  0001d	0f b6 46 02	 movzx	 eax, BYTE PTR [esi+2]
  00021	50		 push	 eax
  00022	e8 00 00 00 00	 call	 ?isNumberic@@YA_ND@Z	; isNumberic
  00027	83 c4 04	 add	 esp, 4
  0002a	84 c0		 test	 al, al
  0002c	74 27		 je	 SHORT $LN3@IsValidTok
  0002e	0f b6 46 03	 movzx	 eax, BYTE PTR [esi+3]
  00032	50		 push	 eax
  00033	e8 00 00 00 00	 call	 ?isNumberic@@YA_ND@Z	; isNumberic
  00038	83 c4 04	 add	 esp, 4
  0003b	84 c0		 test	 al, al
  0003d	74 16		 je	 SHORT $LN3@IsValidTok
  0003f	0f b6 46 04	 movzx	 eax, BYTE PTR [esi+4]
  00043	50		 push	 eax
  00044	e8 00 00 00 00	 call	 ?isNumberic@@YA_ND@Z	; isNumberic
  00049	83 c4 04	 add	 esp, 4
  0004c	84 c0		 test	 al, al
  0004e	74 05		 je	 SHORT $LN3@IsValidTok
  00050	b0 01		 mov	 al, 1
  00052	5e		 pop	 esi

; 89   : 		isNumberic(iter[1]) && 
; 90   : 		isNumberic(iter[2]) && 
; 91   : 		isNumberic(iter[3]) && 
; 92   : 		isNumberic(iter[4]);
; 93   : }

  00053	5d		 pop	 ebp
  00054	c3		 ret	 0
$LN3@IsValidTok:

; 88   : 	return	iter[0]=='@' && 

  00055	32 c0		 xor	 al, al
  00057	5e		 pop	 esi

; 89   : 		isNumberic(iter[1]) && 
; 90   : 		isNumberic(iter[2]) && 
; 91   : 		isNumberic(iter[3]) && 
; 92   : 		isNumberic(iter[4]);
; 93   : }

  00058	5d		 pop	 ebp
  00059	c3		 ret	 0
?IsValidToken@@YA_NPBD@Z ENDP				; IsValidToken
_TEXT	ENDS
; Function compile flags: /Ogtp
; File D:\Metin2 Server Files\mainline\SRC_2014\Metin2Client\EterLib\GrpTextInstance.cpp
;	COMDAT ?isNumberic@@YA_ND@Z
_TEXT	SEGMENT
_chr$ = 8						; size = 1
?isNumberic@@YA_ND@Z PROC				; isNumberic, COMDAT

; 80   : {

  00000	55		 push	 ebp
  00001	8b ec		 mov	 ebp, esp

; 81   : 	if (chr >= '0' && chr <= '9')

  00003	8a 45 08	 mov	 al, BYTE PTR _chr$[ebp]
  00006	2c 30		 sub	 al, 48			; 00000030H
  00008	3c 09		 cmp	 al, 9
  0000a	0f 96 c0	 setbe	 al

; 82   : 		return true;
; 83   : 	return false;
; 84   : }

  0000d	5d		 pop	 ebp
  0000e	c3		 ret	 0
?isNumberic@@YA_ND@Z ENDP				; isNumberic
_TEXT	ENDS
; Function compile flags: /Ogtp
; File C:\Program Files (x86)\Microsoft Visual Studio\2019\Community\VC\Tools\MSVC\14.28.29333\include\xstring
; File C:\Program Files (x86)\Microsoft Visual Studio\2019\Community\VC\Tools\MSVC\14.28.29333\include\xmemory
; File C:\Program Files (x86)\Microsoft Visual Studio\2019\Community\VC\Tools\MSVC\14.28.29333\include\xstring
;	COMDAT ??__Fgs_hyperlinkText@@YAXXZ
text$yd	SEGMENT
??__Fgs_hyperlinkText@@YAXXZ PROC			; `dynamic atexit destructor for 'gs_hyperlinkText'', COMDAT

; 2227 :         return _BUF_SIZE <= _Myres;

  00000	83 3d 14 00 00
	00 08		 cmp	 DWORD PTR ?gs_hyperlinkText@@3V?$basic_string@_WU?$char_traits@_W@std@@V?$allocator@_W@2@@std@@A+20, 8

; 4385 :         if (_Mypair._Myval2._Large_string_engaged()) {

  00007	72 28		 jb	 SHORT $LN7@dynamic

; 4386 :             const pointer _Ptr = _Mypair._Myval2._Bx._Ptr;

  00009	56		 push	 esi
  0000a	8b 35 00 00 00
	00		 mov	 esi, DWORD PTR ?gs_hyperlinkText@@3V?$basic_string@_WU?$char_traits@_W@std@@V?$allocator@_W@2@@std@@A

; 4387 :             auto& _Al          = _Getal();
; 4388 :             _Destroy_in_place(_Mypair._Myval2._Bx._Ptr);

  00010	68 00 00 00 00	 push	 OFFSET ?gs_hyperlinkText@@3V?$basic_string@_WU?$char_traits@_W@std@@V?$allocator@_W@2@@std@@A
  00015	e8 00 00 00 00	 call	 ??$_Destroy_in_place@PA_W@std@@YAXAAPA_W@Z ; std::_Destroy_in_place<wchar_t *>
; File C:\Program Files (x86)\Microsoft Visual Studio\2019\Community\VC\Tools\MSVC\14.28.29333\include\xmemory

; 810  :         _Deallocate<_New_alignof<_Ty>>(_Ptr, sizeof(_Ty) * _Count);

  0001a	a1 14 00 00 00	 mov	 eax, DWORD PTR ?gs_hyperlinkText@@3V?$basic_string@_WU?$char_traits@_W@std@@V?$allocator@_W@2@@std@@A+20
  0001f	8d 04 45 02 00
	00 00		 lea	 eax, DWORD PTR [eax*2+2]
  00026	50		 push	 eax
  00027	56		 push	 esi
  00028	e8 00 00 00 00	 call	 ??$_Deallocate@$07$0A@@std@@YAXPAXI@Z ; std::_Deallocate<8,0>
  0002d	83 c4 0c	 add	 esp, 12			; 0000000cH
  00030	5e		 pop	 esi
$LN7@dynamic:
; File C:\Program Files (x86)\Microsoft Visual Studio\2019\Community\VC\Tools\MSVC\14.28.29333\include\xstring

; 4395 :         _Traits::assign(_Mypair._Myval2._Bx._Buf[0], _Elem());

  00031	33 c0		 xor	 eax, eax
  00033	c7 05 10 00 00
	00 00 00 00 00	 mov	 DWORD PTR ?gs_hyperlinkText@@3V?$basic_string@_WU?$char_traits@_W@std@@V?$allocator@_W@2@@std@@A+16, 0
  0003d	c7 05 14 00 00
	00 07 00 00 00	 mov	 DWORD PTR ?gs_hyperlinkText@@3V?$basic_string@_WU?$char_traits@_W@std@@V?$allocator@_W@2@@std@@A+20, 7
  00047	66 a3 00 00 00
	00		 mov	 WORD PTR ?gs_hyperlinkText@@3V?$basic_string@_WU?$char_traits@_W@std@@V?$allocator@_W@2@@std@@A, ax
  0004d	c3		 ret	 0
??__Fgs_hyperlinkText@@YAXXZ ENDP			; `dynamic atexit destructor for 'gs_hyperlinkText''
text$yd	ENDS
; Function compile flags: /Ogtp
; File D:\Metin2 Server Files\mainline\SRC_2014\Metin2Client\EterLib\GrpTextInstance.cpp
;	COMDAT ??__Egs_hyperlinkText@@YAXXZ
text$di	SEGMENT
??__Egs_hyperlinkText@@YAXXZ PROC			; `dynamic initializer for 'gs_hyperlinkText'', COMDAT

; 19   : static std::wstring gs_hyperlinkText;

  00000	68 00 00 00 00	 push	 OFFSET ??__Fgs_hyperlinkText@@YAXXZ ; `dynamic atexit destructor for 'gs_hyperlinkText''
  00005	e8 00 00 00 00	 call	 _atexit
  0000a	59		 pop	 ecx
  0000b	c3		 ret	 0
??__Egs_hyperlinkText@@YAXXZ ENDP			; `dynamic initializer for 'gs_hyperlinkText''
text$di	ENDS
; Function compile flags: /Ogtp
;	COMDAT ??__F?ms_kPool@CGraphicTextInstance@@2V?$CDynamicPool@VCGraphicTextInstance@@@@A@@YAXXZ
text$yd	SEGMENT
??__F?ms_kPool@CGraphicTextInstance@@2V?$CDynamicPool@VCGraphicTextInstance@@@@A@@YAXXZ PROC ; `dynamic atexit destructor for 'CGraphicTextInstance::ms_kPool'', COMDAT
  00000	b9 00 00 00 00	 mov	 ecx, OFFSET ?ms_kPool@CGraphicTextInstance@@2V?$CDynamicPool@VCGraphicTextInstance@@@@A ; CGraphicTextInstance::ms_kPool
  00005	e9 00 00 00 00	 jmp	 ??1?$CDynamicPool@VCGraphicTextInstance@@@@UAE@XZ ; CDynamicPool<CGraphicTextInstance>::~CDynamicPool<CGraphicTextInstance>
??__F?ms_kPool@CGraphicTextInstance@@2V?$CDynamicPool@VCGraphicTextInstance@@@@A@@YAXXZ ENDP ; `dynamic atexit destructor for 'CGraphicTextInstance::ms_kPool''
text$yd	ENDS
; Function compile flags: /Ogtp
; File D:\Metin2 Server Files\mainline\SRC_2014\Metin2Client\EterLib\GrpTextInstance.cpp
;	COMDAT ??__E?ms_kPool@CGraphicTextInstance@@2V?$CDynamicPool@VCGraphicTextInstance@@@@A@@YAXXZ
text$di	SEGMENT
??__E?ms_kPool@CGraphicTextInstance@@2V?$CDynamicPool@VCGraphicTextInstance@@@@A@@YAXXZ PROC ; `dynamic initializer for 'CGraphicTextInstance::ms_kPool'', COMDAT

; 14   : CDynamicPool<CGraphicTextInstance>		CGraphicTextInstance::ms_kPool;

  00000	68 00 00 00 00	 push	 OFFSET ??__F?ms_kPool@CGraphicTextInstance@@2V?$CDynamicPool@VCGraphicTextInstance@@@@A@@YAXXZ ; `dynamic atexit destructor for 'CGraphicTextInstance::ms_kPool''
  00005	e8 00 00 00 00	 call	 _atexit
  0000a	59		 pop	 ecx
  0000b	c3		 ret	 0
??__E?ms_kPool@CGraphicTextInstance@@2V?$CDynamicPool@VCGraphicTextInstance@@@@A@@YAXXZ ENDP ; `dynamic initializer for 'CGraphicTextInstance::ms_kPool''
text$di	ENDS
; Function compile flags: /Ogtp
;	COMDAT ??_G?$CDynamicPool@VCGraphicTextInstance@@@@UAEPAXI@Z
_TEXT	SEGMENT
___flags$ = 8						; size = 4
??_G?$CDynamicPool@VCGraphicTextInstance@@@@UAEPAXI@Z PROC ; CDynamicPool<CGraphicTextInstance>::`scalar deleting destructor', COMDAT
; _this$ = ecx
  00000	55		 push	 ebp
  00001	8b ec		 mov	 ebp, esp
  00003	56		 push	 esi
  00004	8b f1		 mov	 esi, ecx
  00006	e8 00 00 00 00	 call	 ??1?$CDynamicPool@VCGraphicTextInstance@@@@UAE@XZ ; CDynamicPool<CGraphicTextInstance>::~CDynamicPool<CGraphicTextInstance>
  0000b	f6 45 08 01	 test	 BYTE PTR ___flags$[ebp], 1
  0000f	74 0b		 je	 SHORT $LN4@scalar
  00011	6a 24		 push	 36			; 00000024H
  00013	56		 push	 esi
  00014	e8 00 00 00 00	 call	 ??3@YAXPAXI@Z		; operator delete
  00019	83 c4 08	 add	 esp, 8
$LN4@scalar:
  0001c	8b c6		 mov	 eax, esi
  0001e	5e		 pop	 esi
  0001f	5d		 pop	 ebp
  00020	c2 04 00	 ret	 4
??_G?$CDynamicPool@VCGraphicTextInstance@@@@UAEPAXI@Z ENDP ; CDynamicPool<CGraphicTextInstance>::`scalar deleting destructor'
_TEXT	ENDS
; Function compile flags: /Ogtp
; File C:\Program Files (x86)\Microsoft Visual Studio\2019\Community\VC\Tools\MSVC\14.28.29333\include\vector
;	COMDAT ?_Xlength@?$vector@PAVCGraphicTextInstance@@V?$allocator@PAVCGraphicTextInstance@@@std@@@std@@CAXXZ
_TEXT	SEGMENT
?_Xlength@?$vector@PAVCGraphicTextInstance@@V?$allocator@PAVCGraphicTextInstance@@@std@@@std@@CAXXZ PROC ; std::vector<CGraphicTextInstance *,std::allocator<CGraphicTextInstance *> >::_Xlength, COMDAT

; 1705 :         _Xlength_error("vector too long");

  00000	68 00 00 00 00	 push	 OFFSET ??_C@_0BA@FOIKENOD@vector?5too?5long@
  00005	e8 00 00 00 00	 call	 ?_Xlength_error@std@@YAXPBD@Z ; std::_Xlength_error
$LN3@Xlength:
  0000a	cc		 int	 3
?_Xlength@?$vector@PAVCGraphicTextInstance@@V?$allocator@PAVCGraphicTextInstance@@@std@@@std@@CAXXZ ENDP ; std::vector<CGraphicTextInstance *,std::allocator<CGraphicTextInstance *> >::_Xlength
_TEXT	ENDS
; Function compile flags: /Ogtp
; File C:\Program Files (x86)\Microsoft Visual Studio\2019\Community\VC\Tools\MSVC\14.28.29333\include\vector
; File C:\Program Files (x86)\Microsoft Visual Studio\2019\Community\VC\Tools\MSVC\14.28.29333\include\xmemory
; File C:\Program Files (x86)\Microsoft Visual Studio\2019\Community\VC\Tools\MSVC\14.28.29333\include\vector
; File C:\Program Files (x86)\Microsoft Visual Studio\2019\Community\VC\Tools\MSVC\14.28.29333\include\xmemory
; File C:\Program Files (x86)\Microsoft Visual Studio\2019\Community\VC\Tools\MSVC\14.28.29333\include\vector
; File C:\Program Files (x86)\Microsoft Visual Studio\2019\Community\VC\Tools\MSVC\14.28.29333\include\xmemory
; File C:\Program Files (x86)\Microsoft Visual Studio\2019\Community\VC\Tools\MSVC\14.28.29333\include\vector
; File C:\Program Files (x86)\Microsoft Visual Studio\2019\Community\VC\Tools\MSVC\14.28.29333\include\xmemory
; File C:\Program Files (x86)\Microsoft Visual Studio\2019\Community\VC\Tools\MSVC\14.28.29333\include\vector
; File C:\Program Files (x86)\Microsoft Visual Studio\2019\Community\VC\Tools\MSVC\14.28.29333\include\xmemory
; File C:\Program Files (x86)\Microsoft Visual Studio\2019\Community\VC\Tools\MSVC\14.28.29333\include\vector
;	COMDAT ?_Reallocate_exactly@?$vector@PAVCGraphicTextInstance@@V?$allocator@PAVCGraphicTextInstance@@@std@@@std@@AAEXI@Z
_TEXT	SEGMENT
tv254 = 8						; size = 4
__Newcapacity$ = 8					; size = 4
?_Reallocate_exactly@?$vector@PAVCGraphicTextInstance@@V?$allocator@PAVCGraphicTextInstance@@@std@@@std@@AAEXI@Z PROC ; std::vector<CGraphicTextInstance *,std::allocator<CGraphicTextInstance *> >::_Reallocate_exactly, COMDAT
; _this$ = ecx

; 1251 :     void _Reallocate_exactly(const size_type _Newcapacity) {

  00000	55		 push	 ebp
  00001	8b ec		 mov	 ebp, esp
; File C:\Program Files (x86)\Microsoft Visual Studio\2019\Community\VC\Tools\MSVC\14.28.29333\include\xmemory

; 60   :         if (_Count > _Max_possible) {

  00003	8b 45 08	 mov	 eax, DWORD PTR __Newcapacity$[ebp]
; File C:\Program Files (x86)\Microsoft Visual Studio\2019\Community\VC\Tools\MSVC\14.28.29333\include\vector

; 1251 :     void _Reallocate_exactly(const size_type _Newcapacity) {

  00006	53		 push	 ebx
  00007	56		 push	 esi
  00008	8b f1		 mov	 esi, ecx
  0000a	57		 push	 edi

; 1252 :         // set capacity to _Newcapacity (without geometric growth), provide strong guarantee
; 1253 :         auto& _My_data    = _Mypair._Myval2;
; 1254 :         pointer& _Myfirst = _My_data._Myfirst;
; 1255 :         pointer& _Mylast  = _My_data._Mylast;
; 1256 : 
; 1257 :         const auto _Size = static_cast<size_type>(_Mylast - _Myfirst);

  0000b	8b 7e 04	 mov	 edi, DWORD PTR [esi+4]
  0000e	2b 3e		 sub	 edi, DWORD PTR [esi]
  00010	c1 ff 02	 sar	 edi, 2
; File C:\Program Files (x86)\Microsoft Visual Studio\2019\Community\VC\Tools\MSVC\14.28.29333\include\xmemory

; 60   :         if (_Count > _Max_possible) {

  00013	3d ff ff ff 3f	 cmp	 eax, 1073741823		; 3fffffffH
  00018	77 4c		 ja	 SHORT $LN26@Reallocate

; 62   :         }
; 63   :     }
; 64   : 
; 65   :     return _Count * _Ty_size;

  0001a	c1 e0 02	 shl	 eax, 2

; 814  :         return static_cast<_Ty*>(_Allocate<_New_alignof<_Ty>>(_Get_size_of_n<sizeof(_Ty)>(_Count)));

  0001d	50		 push	 eax

; 65   :     return _Count * _Ty_size;

  0001e	89 45 08	 mov	 DWORD PTR tv254[ebp], eax

; 814  :         return static_cast<_Ty*>(_Allocate<_New_alignof<_Ty>>(_Get_size_of_n<sizeof(_Ty)>(_Count)));

  00021	e8 00 00 00 00	 call	 ??$_Allocate@$07U_Default_allocate_traits@std@@$0A@@std@@YAPAXI@Z ; std::_Allocate<8,std::_Default_allocate_traits,0>
; File C:\Program Files (x86)\Microsoft Visual Studio\2019\Community\VC\Tools\MSVC\14.28.29333\include\vector

; 1597 :         _Uninitialized_move(_First, _Last, _Dest, _Getal());

  00026	56		 push	 esi
; File C:\Program Files (x86)\Microsoft Visual Studio\2019\Community\VC\Tools\MSVC\14.28.29333\include\xmemory

; 814  :         return static_cast<_Ty*>(_Allocate<_New_alignof<_Ty>>(_Get_size_of_n<sizeof(_Ty)>(_Count)));

  00027	8b d8		 mov	 ebx, eax
; File C:\Program Files (x86)\Microsoft Visual Studio\2019\Community\VC\Tools\MSVC\14.28.29333\include\vector

; 1597 :         _Uninitialized_move(_First, _Last, _Dest, _Getal());

  00029	53		 push	 ebx
  0002a	ff 76 04	 push	 DWORD PTR [esi+4]
  0002d	ff 36		 push	 DWORD PTR [esi]
  0002f	e8 00 00 00 00	 call	 ??$_Uninitialized_move@PAPAVCGraphicTextInstance@@V?$allocator@PAVCGraphicTextInstance@@@std@@@std@@YAPAPAVCGraphicTextInstance@@QAPAV1@0PAPAV1@AAV?$allocator@PAVCGraphicTextInstance@@@0@@Z ; std::_Uninitialized_move<CGraphicTextInstance * *,std::allocator<CGraphicTextInstance *> >

; 1676 :         if (_Myfirst) { // destroy and deallocate old array

  00034	8b 0e		 mov	 ecx, DWORD PTR [esi]

; 1597 :         _Uninitialized_move(_First, _Last, _Dest, _Getal());

  00036	83 c4 14	 add	 esp, 20			; 00000014H

; 1676 :         if (_Myfirst) { // destroy and deallocate old array

  00039	85 c9		 test	 ecx, ecx
  0003b	74 12		 je	 SHORT $LN20@Reallocate

; 1677 :             _Destroy(_Myfirst, _Mylast);
; 1678 :             _Getal().deallocate(_Myfirst, static_cast<size_type>(_Myend - _Myfirst));

  0003d	8b 46 08	 mov	 eax, DWORD PTR [esi+8]
  00040	2b c1		 sub	 eax, ecx
; File C:\Program Files (x86)\Microsoft Visual Studio\2019\Community\VC\Tools\MSVC\14.28.29333\include\xmemory

; 810  :         _Deallocate<_New_alignof<_Ty>>(_Ptr, sizeof(_Ty) * _Count);

  00042	83 e0 fc	 and	 eax, -4			; fffffffcH
  00045	50		 push	 eax
  00046	51		 push	 ecx
  00047	e8 00 00 00 00	 call	 ??$_Deallocate@$07$0A@@std@@YAXPAXI@Z ; std::_Deallocate<8,0>
  0004c	83 c4 08	 add	 esp, 8
$LN20@Reallocate:
; File C:\Program Files (x86)\Microsoft Visual Studio\2019\Community\VC\Tools\MSVC\14.28.29333\include\vector

; 1682 :         _Mylast  = _Newvec + _Newsize;

  0004f	8d 04 bb	 lea	 eax, DWORD PTR [ebx+edi*4]
  00052	89 1e		 mov	 DWORD PTR [esi], ebx
  00054	89 46 04	 mov	 DWORD PTR [esi+4], eax

; 1683 :         _Myend   = _Newvec + _Newcapacity;

  00057	8b 45 08	 mov	 eax, DWORD PTR tv254[ebp]
  0005a	03 c3		 add	 eax, ebx
  0005c	5f		 pop	 edi
  0005d	89 46 08	 mov	 DWORD PTR [esi+8], eax
  00060	5e		 pop	 esi
  00061	5b		 pop	 ebx

; 1269 :     }

  00062	5d		 pop	 ebp
  00063	c2 04 00	 ret	 4
$LN26@Reallocate:
; File C:\Program Files (x86)\Microsoft Visual Studio\2019\Community\VC\Tools\MSVC\14.28.29333\include\xmemory

; 61   :             _Throw_bad_array_new_length(); // multiply overflow

  00066	e8 00 00 00 00	 call	 ?_Throw_bad_array_new_length@std@@YAXXZ ; std::_Throw_bad_array_new_length
$LN24@Reallocate:
  0006b	cc		 int	 3
?_Reallocate_exactly@?$vector@PAVCGraphicTextInstance@@V?$allocator@PAVCGraphicTextInstance@@@std@@@std@@AAEXI@Z ENDP ; std::vector<CGraphicTextInstance *,std::allocator<CGraphicTextInstance *> >::_Reallocate_exactly
_TEXT	ENDS
; Function compile flags: /Ogtp
; File D:\Metin2 Server Files\mainline\SRC_2014\Metin2Client\EterLib\Pool.h
;	COMDAT ?Delete@?$CDynamicPool@VCGraphicTextInstance@@@@KAXPAVCGraphicTextInstance@@@Z
_TEXT	SEGMENT
_pkData$ = 8						; size = 4
?Delete@?$CDynamicPool@VCGraphicTextInstance@@@@KAXPAVCGraphicTextInstance@@@Z PROC ; CDynamicPool<CGraphicTextInstance>::Delete, COMDAT

; 109  : 		{

  00000	55		 push	 ebp
  00001	8b ec		 mov	 ebp, esp

; 110  : 			delete pkData;

  00003	8b 4d 08	 mov	 ecx, DWORD PTR _pkData$[ebp]
  00006	85 c9		 test	 ecx, ecx
  00008	74 06		 je	 SHORT $LN3@Delete
  0000a	8b 01		 mov	 eax, DWORD PTR [ecx]
  0000c	6a 01		 push	 1
  0000e	ff 10		 call	 DWORD PTR [eax]
$LN3@Delete:

; 111  : 		}

  00010	5d		 pop	 ebp
  00011	c3		 ret	 0
?Delete@?$CDynamicPool@VCGraphicTextInstance@@@@KAXPAVCGraphicTextInstance@@@Z ENDP ; CDynamicPool<CGraphicTextInstance>::Delete
_TEXT	ENDS
; Function compile flags: /Ogtp
; File D:\Metin2 Server Files\mainline\SRC_2014\Metin2Client\EterLib\Pool.h
; File C:\Program Files (x86)\Microsoft Visual Studio\2019\Community\VC\Tools\MSVC\14.28.29333\include\vector
; File C:\Program Files (x86)\Microsoft Visual Studio\2019\Community\VC\Tools\MSVC\14.28.29333\include\xmemory
; File C:\Program Files (x86)\Microsoft Visual Studio\2019\Community\VC\Tools\MSVC\14.28.29333\include\vector
; File C:\Program Files (x86)\Microsoft Visual Studio\2019\Community\VC\Tools\MSVC\14.28.29333\include\xmemory
; File C:\Program Files (x86)\Microsoft Visual Studio\2019\Community\VC\Tools\MSVC\14.28.29333\include\vector
; File C:\Program Files (x86)\Microsoft Visual Studio\2019\Community\VC\Tools\MSVC\14.28.29333\include\xmemory
; File C:\Program Files (x86)\Microsoft Visual Studio\2019\Community\VC\Tools\MSVC\14.28.29333\include\vector
; File C:\Program Files (x86)\Microsoft Visual Studio\2019\Community\VC\Tools\MSVC\14.28.29333\include\xmemory
; File C:\Program Files (x86)\Microsoft Visual Studio\2019\Community\VC\Tools\MSVC\14.28.29333\include\vector
; File D:\Metin2 Server Files\mainline\SRC_2014\Metin2Client\EterLib\Pool.h
;	COMDAT ??1?$CDynamicPool@VCGraphicTextInstance@@@@UAE@XZ
_TEXT	SEGMENT
??1?$CDynamicPool@VCGraphicTextInstance@@@@UAE@XZ PROC	; CDynamicPool<CGraphicTextInstance>::~CDynamicPool<CGraphicTextInstance>, COMDAT
; _this$ = ecx

; 18   : 		{

  00000	56		 push	 esi
  00001	8b f1		 mov	 esi, ecx
  00003	c7 06 00 00 00
	00		 mov	 DWORD PTR [esi], OFFSET ??_7?$CDynamicPool@VCGraphicTextInstance@@@@6B@
; File C:\Program Files (x86)\Microsoft Visual Studio\2019\Community\VC\Tools\MSVC\14.28.29333\include\vector

; 1694 :         if (_Myfirst) { // destroy and deallocate old array

  00009	8b 4e 10	 mov	 ecx, DWORD PTR [esi+16]
  0000c	85 c9		 test	 ecx, ecx
  0000e	74 27		 je	 SHORT $LN6@CDynamicPo

; 1695 :             _Destroy(_Myfirst, _Mylast);
; 1696 :             _Getal().deallocate(_Myfirst, static_cast<size_type>(_Myend - _Myfirst));

  00010	8b 46 18	 mov	 eax, DWORD PTR [esi+24]
  00013	2b c1		 sub	 eax, ecx
; File C:\Program Files (x86)\Microsoft Visual Studio\2019\Community\VC\Tools\MSVC\14.28.29333\include\xmemory

; 810  :         _Deallocate<_New_alignof<_Ty>>(_Ptr, sizeof(_Ty) * _Count);

  00015	83 e0 fc	 and	 eax, -4			; fffffffcH
  00018	50		 push	 eax
  00019	51		 push	 ecx
  0001a	e8 00 00 00 00	 call	 ??$_Deallocate@$07$0A@@std@@YAXPAXI@Z ; std::_Deallocate<8,0>
; File C:\Program Files (x86)\Microsoft Visual Studio\2019\Community\VC\Tools\MSVC\14.28.29333\include\vector

; 1698 :             _Myfirst = pointer();

  0001f	c7 46 10 00 00
	00 00		 mov	 DWORD PTR [esi+16], 0
; File C:\Program Files (x86)\Microsoft Visual Studio\2019\Community\VC\Tools\MSVC\14.28.29333\include\xmemory

; 810  :         _Deallocate<_New_alignof<_Ty>>(_Ptr, sizeof(_Ty) * _Count);

  00026	83 c4 08	 add	 esp, 8
; File C:\Program Files (x86)\Microsoft Visual Studio\2019\Community\VC\Tools\MSVC\14.28.29333\include\vector

; 1699 :             _Mylast  = pointer();

  00029	c7 46 14 00 00
	00 00		 mov	 DWORD PTR [esi+20], 0

; 1700 :             _Myend   = pointer();

  00030	c7 46 18 00 00
	00 00		 mov	 DWORD PTR [esi+24], 0
$LN6@CDynamicPo:

; 1694 :         if (_Myfirst) { // destroy and deallocate old array

  00037	8b 4e 04	 mov	 ecx, DWORD PTR [esi+4]
  0003a	85 c9		 test	 ecx, ecx
  0003c	74 27		 je	 SHORT $LN13@CDynamicPo

; 1695 :             _Destroy(_Myfirst, _Mylast);
; 1696 :             _Getal().deallocate(_Myfirst, static_cast<size_type>(_Myend - _Myfirst));

  0003e	8b 46 0c	 mov	 eax, DWORD PTR [esi+12]
  00041	2b c1		 sub	 eax, ecx
; File C:\Program Files (x86)\Microsoft Visual Studio\2019\Community\VC\Tools\MSVC\14.28.29333\include\xmemory

; 810  :         _Deallocate<_New_alignof<_Ty>>(_Ptr, sizeof(_Ty) * _Count);

  00043	83 e0 fc	 and	 eax, -4			; fffffffcH
  00046	50		 push	 eax
  00047	51		 push	 ecx
  00048	e8 00 00 00 00	 call	 ??$_Deallocate@$07$0A@@std@@YAXPAXI@Z ; std::_Deallocate<8,0>
; File C:\Program Files (x86)\Microsoft Visual Studio\2019\Community\VC\Tools\MSVC\14.28.29333\include\vector

; 1698 :             _Myfirst = pointer();

  0004d	c7 46 04 00 00
	00 00		 mov	 DWORD PTR [esi+4], 0
; File C:\Program Files (x86)\Microsoft Visual Studio\2019\Community\VC\Tools\MSVC\14.28.29333\include\xmemory

; 810  :         _Deallocate<_New_alignof<_Ty>>(_Ptr, sizeof(_Ty) * _Count);

  00054	83 c4 08	 add	 esp, 8
; File C:\Program Files (x86)\Microsoft Visual Studio\2019\Community\VC\Tools\MSVC\14.28.29333\include\vector

; 1699 :             _Mylast  = pointer();

  00057	c7 46 08 00 00
	00 00		 mov	 DWORD PTR [esi+8], 0

; 1700 :             _Myend   = pointer();

  0005e	c7 46 0c 00 00
	00 00		 mov	 DWORD PTR [esi+12], 0
$LN13@CDynamicPo:
  00065	5e		 pop	 esi
; File D:\Metin2 Server Files\mainline\SRC_2014\Metin2Client\EterLib\Pool.h

; 26   : 		}

  00066	c3		 ret	 0
??1?$CDynamicPool@VCGraphicTextInstance@@@@UAE@XZ ENDP	; CDynamicPool<CGraphicTextInstance>::~CDynamicPool<CGraphicTextInstance>
_TEXT	ENDS
; Function compile flags: /Ogtp
; File D:\Metin2 Server Files\mainline\SRC_2014\Metin2Client\EterLib\GrpTextInstance.cpp
;	COMDAT ?ReadToken@@YAHPBD@Z
_TEXT	SEGMENT
_token$ = 8						; size = 4
?ReadToken@@YAHPBD@Z PROC				; ReadToken, COMDAT

; 115  : {

  00000	55		 push	 ebp
  00001	8b ec		 mov	 ebp, esp

; 116  : 	int nRet = (token[1]-'0')*1000 + (token[2]-'0')*100 + (token[3]-'0')*10 + (token[4]-'0');

  00003	8b 55 08	 mov	 edx, DWORD PTR _token$[ebp]
  00006	0f be 42 01	 movsx	 eax, BYTE PTR [edx+1]
  0000a	8d 0c 80	 lea	 ecx, DWORD PTR [eax+eax*4]
  0000d	0f be 42 02	 movsx	 eax, BYTE PTR [edx+2]
  00011	8d 04 48	 lea	 eax, DWORD PTR [eax+ecx*2]
  00014	8d 0c 80	 lea	 ecx, DWORD PTR [eax+eax*4]
  00017	0f be 42 03	 movsx	 eax, BYTE PTR [edx+3]
  0001b	8d 04 48	 lea	 eax, DWORD PTR [eax+ecx*2]
  0001e	8d 0c 80	 lea	 ecx, DWORD PTR [eax+eax*4]
  00021	0f be 42 04	 movsx	 eax, BYTE PTR [edx+4]
  00025	8d 04 48	 lea	 eax, DWORD PTR [eax+ecx*2]

; 117  : 	if (nRet == 9999)

  00028	b9 e9 fd 00 00	 mov	 ecx, 65001		; 0000fde9H
  0002d	05 b0 2f ff ff	 add	 eax, -53328		; ffff2fb0H
  00032	3d 0f 27 00 00	 cmp	 eax, 9999		; 0000270fH
  00037	0f 44 c1	 cmove	 eax, ecx

; 118  : 		return CP_UTF8;
; 119  : 	return nRet;
; 120  : }

  0003a	5d		 pop	 ebp
  0003b	c3		 ret	 0
?ReadToken@@YAHPBD@Z ENDP				; ReadToken
_TEXT	ENDS
; Function compile flags: /Ogtp
; File D:\Metin2 Server Files\mainline\SRC_2014\Metin2Client\EterLib\GrpTextInstance.cpp
; File C:\Program Files (x86)\Microsoft Visual Studio\2019\Community\VC\Tools\MSVC\14.28.29333\include\xutility
; File D:\Metin2 Server Files\mainline\SRC_2014\Metin2Client\EterLib\GrpTextInstance.cpp
;	COMDAT ?FindToken@@YAPBDPBD0@Z
_TEXT	SEGMENT
_begin$ = 8						; size = 4
_end$ = 12						; size = 4
?FindToken@@YAPBDPBD0@Z PROC				; FindToken, COMDAT

; 96   : {

  00000	55		 push	 ebp
  00001	8b ec		 mov	 ebp, esp
  00003	56		 push	 esi

; 97   : 	while(begin < end)

  00004	8b 75 08	 mov	 esi, DWORD PTR _begin$[ebp]
  00007	57		 push	 edi
  00008	8b 7d 0c	 mov	 edi, DWORD PTR _end$[ebp]
  0000b	3b f7		 cmp	 esi, edi
  0000d	73 33		 jae	 SHORT $LN18@FindToken
  0000f	90		 npad	 1
$LL2@FindToken:
; File C:\Program Files (x86)\Microsoft Visual Studio\2019\Community\VC\Tools\MSVC\14.28.29333\include\xutility

; 5461 :     _First =

  00010	8b c7		 mov	 eax, edi
  00012	2b c6		 sub	 eax, esi
  00014	50		 push	 eax
  00015	6a 40		 push	 64			; 00000040H
  00017	56		 push	 esi
  00018	e8 00 00 00 00	 call	 _memchr
  0001d	83 c4 0c	 add	 esp, 12			; 0000000cH

; 5462 :         static_cast<_InIt>(_CSTD memchr(_First, static_cast<unsigned char>(_Val), static_cast<size_t>(_Last - _First)));
; 5463 :     return _First ? _First : _Last;

  00020	8b f7		 mov	 esi, edi
  00022	85 c0		 test	 eax, eax
  00024	0f 45 f0	 cmovne	 esi, eax
; File D:\Metin2 Server Files\mainline\SRC_2014\Metin2Client\EterLib\GrpTextInstance.cpp

; 101  : 		if(end-begin>5 && IsValidToken(begin))

  00027	8b c7		 mov	 eax, edi
  00029	2b c6		 sub	 eax, esi
  0002b	83 f8 05	 cmp	 eax, 5
  0002e	7e 0d		 jle	 SHORT $LN4@FindToken
  00030	56		 push	 esi
  00031	e8 00 00 00 00	 call	 ?IsValidToken@@YA_NPBD@Z ; IsValidToken
  00036	83 c4 04	 add	 esp, 4
  00039	84 c0		 test	 al, al
  0003b	75 0b		 jne	 SHORT $LN15@FindToken
$LN4@FindToken:

; 104  : 		}
; 105  : 		else
; 106  : 		{
; 107  : 			++begin;

  0003d	46		 inc	 esi
  0003e	3b f7		 cmp	 esi, edi
  00040	72 ce		 jb	 SHORT $LL2@FindToken
$LN18@FindToken:

; 108  : 		}
; 109  : 	}
; 110  : 
; 111  : 	return end;

  00042	8b c7		 mov	 eax, edi
  00044	5f		 pop	 edi

; 112  : }

  00045	5e		 pop	 esi
  00046	5d		 pop	 ebp
  00047	c3		 ret	 0
$LN15@FindToken:
  00048	5f		 pop	 edi

; 102  : 		{
; 103  : 			return begin;

  00049	8b c6		 mov	 eax, esi

; 112  : }

  0004b	5e		 pop	 esi
  0004c	5d		 pop	 ebp
  0004d	c3		 ret	 0
?FindToken@@YAPBDPBD0@Z ENDP				; FindToken
_TEXT	ENDS
; Function compile flags: /Ogtp
;	COMDAT ??_GCGraphicTextInstance@@UAEPAXI@Z
_TEXT	SEGMENT
___flags$ = 8						; size = 4
??_GCGraphicTextInstance@@UAEPAXI@Z PROC		; CGraphicTextInstance::`scalar deleting destructor', COMDAT
; _this$ = ecx
  00000	55		 push	 ebp
  00001	8b ec		 mov	 ebp, esp
  00003	56		 push	 esi
  00004	8b f1		 mov	 esi, ecx
  00006	e8 00 00 00 00	 call	 ??1CGraphicTextInstance@@UAE@XZ ; CGraphicTextInstance::~CGraphicTextInstance
  0000b	f6 45 08 01	 test	 BYTE PTR ___flags$[ebp], 1
  0000f	74 0b		 je	 SHORT $LN4@scalar
  00011	6a 70		 push	 112			; 00000070H
  00013	56		 push	 esi
  00014	e8 00 00 00 00	 call	 ??3@YAXPAXI@Z		; operator delete
  00019	83 c4 08	 add	 esp, 8
$LN4@scalar:
  0001c	8b c6		 mov	 eax, esi
  0001e	5e		 pop	 esi
  0001f	5d		 pop	 ebp
  00020	c2 04 00	 ret	 4
??_GCGraphicTextInstance@@UAEPAXI@Z ENDP		; CGraphicTextInstance::`scalar deleting destructor'
_TEXT	ENDS
; Function compile flags: /Ogtp
; File D:\Metin2 Server Files\mainline\SRC_2014\Metin2Client\EterLib\GrpTextInstance.cpp
; File C:\Program Files (x86)\Microsoft Visual Studio\2019\Community\VC\Tools\MSVC\14.28.29333\include\vector
; File D:\Metin2 Server Files\mainline\SRC_2014\Metin2Client\EterLib\GrpTextInstance.cpp
; File C:\Program Files (x86)\Microsoft Visual Studio\2019\Community\VC\Tools\MSVC\14.28.29333\include\vector
; File D:\Metin2 Server Files\mainline\SRC_2014\Metin2Client\EterLib\GrpTextInstance.cpp
; File C:\Program Files (x86)\Microsoft Visual Studio\2019\Community\VC\Tools\MSVC\14.28.29333\include\vector
; File D:\Metin2 Server Files\mainline\SRC_2014\Metin2Client\EterLib\GrpTextInstance.cpp
;	COMDAT ?Delete@CGraphicTextInstance@@SAXPAV1@@Z
_TEXT	SEGMENT
_pkData$ = 8						; size = 4
_pkInst$ = 8						; size = 4
?Delete@CGraphicTextInstance@@SAXPAV1@@Z PROC		; CGraphicTextInstance::Delete, COMDAT

; 917  : {

  00000	55		 push	 ebp
  00001	8b ec		 mov	 ebp, esp
  00003	56		 push	 esi

; 918  : 	pkInst->Destroy();

  00004	8b 75 08	 mov	 esi, DWORD PTR _pkInst$[ebp]
  00007	8b ce		 mov	 ecx, esi
  00009	e8 00 00 00 00	 call	 ?Destroy@CGraphicTextInstance@@QAEXXZ ; CGraphicTextInstance::Destroy
; File C:\Program Files (x86)\Microsoft Visual Studio\2019\Community\VC\Tools\MSVC\14.28.29333\include\vector

; 704  :         if (_Mylast != _My_data._Myend) {

  0000e	a1 14 00 00 00	 mov	 eax, DWORD PTR ?ms_kPool@CGraphicTextInstance@@2V?$CDynamicPool@VCGraphicTextInstance@@@@A+20
; File D:\Metin2 Server Files\mainline\SRC_2014\Metin2Client\EterLib\GrpTextInstance.cpp

; 919  : 	ms_kPool.Free(pkInst);

  00013	89 75 08	 mov	 DWORD PTR _pkData$[ebp], esi
; File C:\Program Files (x86)\Microsoft Visual Studio\2019\Community\VC\Tools\MSVC\14.28.29333\include\vector

; 704  :         if (_Mylast != _My_data._Myend) {

  00016	3b 05 18 00 00
	00		 cmp	 eax, DWORD PTR ?ms_kPool@CGraphicTextInstance@@2V?$CDynamicPool@VCGraphicTextInstance@@@@A+24
  0001c	74 0c		 je	 SHORT $LN8@Delete

; 687  :         _Alty_traits::construct(_Getal(), _Unfancy(_Mylast), _STD forward<_Valty>(_Val)...);

  0001e	89 30		 mov	 DWORD PTR [eax], esi

; 688  :         _Orphan_range(_Mylast, _Mylast);
; 689  :         _Ty& _Result = *_Mylast;
; 690  :         ++_Mylast;

  00020	83 05 14 00 00
	00 04		 add	 DWORD PTR ?ms_kPool@CGraphicTextInstance@@2V?$CDynamicPool@VCGraphicTextInstance@@@@A+20, 4
  00027	5e		 pop	 esi
; File D:\Metin2 Server Files\mainline\SRC_2014\Metin2Client\EterLib\GrpTextInstance.cpp

; 920  : }

  00028	5d		 pop	 ebp
  00029	c3		 ret	 0
$LN8@Delete:
; File C:\Program Files (x86)\Microsoft Visual Studio\2019\Community\VC\Tools\MSVC\14.28.29333\include\vector

; 708  :         _Ty& _Result = *_Emplace_reallocate(_Mylast, _STD forward<_Valty>(_Val)...);

  0002a	8d 4d 08	 lea	 ecx, DWORD PTR _pkData$[ebp]
  0002d	51		 push	 ecx
  0002e	50		 push	 eax
  0002f	b9 10 00 00 00	 mov	 ecx, OFFSET ?ms_kPool@CGraphicTextInstance@@2V?$CDynamicPool@VCGraphicTextInstance@@@@A+16
  00034	e8 00 00 00 00	 call	 ??$_Emplace_reallocate@ABQAVCGraphicTextInstance@@@?$vector@PAVCGraphicTextInstance@@V?$allocator@PAVCGraphicTextInstance@@@std@@@std@@QAEPAPAVCGraphicTextInstance@@QAPAV2@ABQAV2@@Z ; std::vector<CGraphicTextInstance *,std::allocator<CGraphicTextInstance *> >::_Emplace_reallocate<CGraphicTextInstance * const &>
  00039	5e		 pop	 esi
; File D:\Metin2 Server Files\mainline\SRC_2014\Metin2Client\EterLib\GrpTextInstance.cpp

; 920  : }

  0003a	5d		 pop	 ebp
  0003b	c3		 ret	 0
?Delete@CGraphicTextInstance@@SAXPAV1@@Z ENDP		; CGraphicTextInstance::Delete
_TEXT	ENDS
; Function compile flags: /Ogtp
; File D:\Metin2 Server Files\mainline\SRC_2014\Metin2Client\EterLib\GrpTextInstance.cpp
; File D:\Metin2 Server Files\mainline\SRC_2014\Metin2Client\EterLib\Pool.h
; File C:\Program Files (x86)\Microsoft Visual Studio\2019\Community\VC\Tools\MSVC\14.28.29333\include\vector
; File D:\Metin2 Server Files\mainline\SRC_2014\Metin2Client\EterLib\Pool.h
; File C:\Program Files (x86)\Microsoft Visual Studio\2019\Community\VC\Tools\MSVC\14.28.29333\include\vector
; File D:\Metin2 Server Files\mainline\SRC_2014\Metin2Client\EterLib\GrpTextInstance.cpp
; File C:\Program Files (x86)\Microsoft Visual Studio\2019\Community\VC\Tools\MSVC\14.28.29333\include\vector
; File D:\Metin2 Server Files\mainline\SRC_2014\Metin2Client\EterLib\Pool.h
; File D:\Metin2 Server Files\mainline\SRC_2014\Metin2Client\EterLib\GrpTextInstance.cpp
; File C:\Program Files (x86)\Microsoft Visual Studio\2019\Community\VC\Tools\MSVC\14.28.29333\include\vector
; File D:\Metin2 Server Files\mainline\SRC_2014\Metin2Client\EterLib\Pool.h
; File D:\Metin2 Server Files\mainline\SRC_2014\Metin2Client\EterLib\GrpTextInstance.cpp
; File D:\Metin2 Server Files\mainline\SRC_2014\Metin2Client\EterLib\Pool.h
; File C:\Program Files (x86)\Microsoft Visual Studio\2019\Community\VC\Tools\MSVC\14.28.29333\include\vector
; File D:\Metin2 Server Files\mainline\SRC_2014\Metin2Client\EterLib\GrpTextInstance.cpp
;	COMDAT ?New@CGraphicTextInstance@@SAPAV1@XZ
_TEXT	SEGMENT
$T2 = -16						; size = 4
_pkNewData$3 = -16					; size = 4
__$EHRec$ = -12						; size = 12
?New@CGraphicTextInstance@@SAPAV1@XZ PROC		; CGraphicTextInstance::New, COMDAT

; 912  : {

  00000	55		 push	 ebp
  00001	8b ec		 mov	 ebp, esp
  00003	6a ff		 push	 -1
  00005	68 00 00 00 00	 push	 __ehhandler$?New@CGraphicTextInstance@@SAPAV1@XZ
  0000a	64 a1 00 00 00
	00		 mov	 eax, DWORD PTR fs:0
  00010	50		 push	 eax
  00011	51		 push	 ecx
  00012	56		 push	 esi
  00013	a1 00 00 00 00	 mov	 eax, DWORD PTR ___security_cookie
  00018	33 c5		 xor	 eax, ebp
  0001a	50		 push	 eax
  0001b	8d 45 f4	 lea	 eax, DWORD PTR __$EHRec$[ebp]
  0001e	64 a3 00 00 00
	00		 mov	 DWORD PTR fs:0, eax
; File D:\Metin2 Server Files\mainline\SRC_2014\Metin2Client\EterLib\Pool.h

; 63   : 			if (m_kVct_pkFree.empty())

  00024	8b 0d 14 00 00
	00		 mov	 ecx, DWORD PTR ?ms_kPool@CGraphicTextInstance@@2V?$CDynamicPool@VCGraphicTextInstance@@@@A+20
  0002a	39 0d 10 00 00
	00		 cmp	 DWORD PTR ?ms_kPool@CGraphicTextInstance@@2V?$CDynamicPool@VCGraphicTextInstance@@@@A+16, ecx
  00030	0f 85 84 00 00
	00		 jne	 $LN4@New

; 65   : 				T* pkNewData=new T;

  00036	6a 70		 push	 112			; 00000070H
  00038	e8 00 00 00 00	 call	 ??2@YAPAXI@Z		; operator new
  0003d	83 c4 04	 add	 esp, 4
  00040	89 45 f0	 mov	 DWORD PTR $T2[ebp], eax
  00043	c7 45 fc 00 00
	00 00		 mov	 DWORD PTR __$EHRec$[ebp+8], 0
  0004a	85 c0		 test	 eax, eax
  0004c	74 0b		 je	 SHORT $LN6@New
  0004e	8b c8		 mov	 ecx, eax
  00050	e8 00 00 00 00	 call	 ??0CGraphicTextInstance@@QAE@XZ ; CGraphicTextInstance::CGraphicTextInstance
  00055	8b f0		 mov	 esi, eax
  00057	eb 02		 jmp	 SHORT $LN7@New
$LN6@New:
  00059	33 f6		 xor	 esi, esi
$LN7@New:
; File C:\Program Files (x86)\Microsoft Visual Studio\2019\Community\VC\Tools\MSVC\14.28.29333\include\vector

; 704  :         if (_Mylast != _My_data._Myend) {

  0005b	a1 08 00 00 00	 mov	 eax, DWORD PTR ?ms_kPool@CGraphicTextInstance@@2V?$CDynamicPool@VCGraphicTextInstance@@@@A+8
; File D:\Metin2 Server Files\mainline\SRC_2014\Metin2Client\EterLib\Pool.h

; 65   : 				T* pkNewData=new T;

  00060	c7 45 fc ff ff
	ff ff		 mov	 DWORD PTR __$EHRec$[ebp+8], -1
  00067	89 75 f0	 mov	 DWORD PTR _pkNewData$3[ebp], esi
; File C:\Program Files (x86)\Microsoft Visual Studio\2019\Community\VC\Tools\MSVC\14.28.29333\include\vector

; 704  :         if (_Mylast != _My_data._Myend) {

  0006a	3b 05 0c 00 00
	00		 cmp	 eax, DWORD PTR ?ms_kPool@CGraphicTextInstance@@2V?$CDynamicPool@VCGraphicTextInstance@@@@A+12
  00070	74 21		 je	 SHORT $LN14@New

; 687  :         _Alty_traits::construct(_Getal(), _Unfancy(_Mylast), _STD forward<_Valty>(_Val)...);

  00072	89 30		 mov	 DWORD PTR [eax], esi
; File D:\Metin2 Server Files\mainline\SRC_2014\Metin2Client\EterLib\GrpTextInstance.cpp

; 913  : 	return ms_kPool.Alloc();

  00074	8b c6		 mov	 eax, esi
; File C:\Program Files (x86)\Microsoft Visual Studio\2019\Community\VC\Tools\MSVC\14.28.29333\include\vector

; 690  :         ++_Mylast;

  00076	83 05 08 00 00
	00 04		 add	 DWORD PTR ?ms_kPool@CGraphicTextInstance@@2V?$CDynamicPool@VCGraphicTextInstance@@@@A+8, 4
; File D:\Metin2 Server Files\mainline\SRC_2014\Metin2Client\EterLib\Pool.h

; 67   : 				++m_uUsedCapacity;

  0007d	ff 05 20 00 00
	00		 inc	 DWORD PTR ?ms_kPool@CGraphicTextInstance@@2V?$CDynamicPool@VCGraphicTextInstance@@@@A+32
; File D:\Metin2 Server Files\mainline\SRC_2014\Metin2Client\EterLib\GrpTextInstance.cpp

; 914  : }

  00083	8b 4d f4	 mov	 ecx, DWORD PTR __$EHRec$[ebp]
  00086	64 89 0d 00 00
	00 00		 mov	 DWORD PTR fs:0, ecx
  0008d	59		 pop	 ecx
  0008e	5e		 pop	 esi
  0008f	8b e5		 mov	 esp, ebp
  00091	5d		 pop	 ebp
  00092	c3		 ret	 0
$LN14@New:
; File C:\Program Files (x86)\Microsoft Visual Studio\2019\Community\VC\Tools\MSVC\14.28.29333\include\vector

; 708  :         _Ty& _Result = *_Emplace_reallocate(_Mylast, _STD forward<_Valty>(_Val)...);

  00093	8d 4d f0	 lea	 ecx, DWORD PTR _pkNewData$3[ebp]
  00096	51		 push	 ecx
  00097	50		 push	 eax
  00098	b9 04 00 00 00	 mov	 ecx, OFFSET ?ms_kPool@CGraphicTextInstance@@2V?$CDynamicPool@VCGraphicTextInstance@@@@A+4
  0009d	e8 00 00 00 00	 call	 ??$_Emplace_reallocate@ABQAVCGraphicTextInstance@@@?$vector@PAVCGraphicTextInstance@@V?$allocator@PAVCGraphicTextInstance@@@std@@@std@@QAEPAPAVCGraphicTextInstance@@QAPAV2@ABQAV2@@Z ; std::vector<CGraphicTextInstance *,std::allocator<CGraphicTextInstance *> >::_Emplace_reallocate<CGraphicTextInstance * const &>
; File D:\Metin2 Server Files\mainline\SRC_2014\Metin2Client\EterLib\Pool.h

; 67   : 				++m_uUsedCapacity;

  000a2	ff 05 20 00 00
	00		 inc	 DWORD PTR ?ms_kPool@CGraphicTextInstance@@2V?$CDynamicPool@VCGraphicTextInstance@@@@A+32
; File D:\Metin2 Server Files\mainline\SRC_2014\Metin2Client\EterLib\GrpTextInstance.cpp

; 913  : 	return ms_kPool.Alloc();

  000a8	8b c6		 mov	 eax, esi

; 914  : }

  000aa	8b 4d f4	 mov	 ecx, DWORD PTR __$EHRec$[ebp]
  000ad	64 89 0d 00 00
	00 00		 mov	 DWORD PTR fs:0, ecx
  000b4	59		 pop	 ecx
  000b5	5e		 pop	 esi
  000b6	8b e5		 mov	 esp, ebp
  000b8	5d		 pop	 ebp
  000b9	c3		 ret	 0
$LN4@New:
; File D:\Metin2 Server Files\mainline\SRC_2014\Metin2Client\EterLib\Pool.h

; 71   : 			T* pkFreeData=m_kVct_pkFree.back();

  000ba	8b 41 fc	 mov	 eax, DWORD PTR [ecx-4]
; File C:\Program Files (x86)\Microsoft Visual Studio\2019\Community\VC\Tools\MSVC\14.28.29333\include\vector

; 1559 :         return _My_data._Mylast[-1];

  000bd	83 c1 fc	 add	 ecx, -4			; fffffffcH

; 1338 :         --_Mylast;

  000c0	89 0d 14 00 00
	00		 mov	 DWORD PTR ?ms_kPool@CGraphicTextInstance@@2V?$CDynamicPool@VCGraphicTextInstance@@@@A+20, ecx
; File D:\Metin2 Server Files\mainline\SRC_2014\Metin2Client\EterLib\GrpTextInstance.cpp

; 914  : }

  000c6	8b 4d f4	 mov	 ecx, DWORD PTR __$EHRec$[ebp]
  000c9	64 89 0d 00 00
	00 00		 mov	 DWORD PTR fs:0, ecx
  000d0	59		 pop	 ecx
  000d1	5e		 pop	 esi
  000d2	8b e5		 mov	 esp, ebp
  000d4	5d		 pop	 ebp
  000d5	c3		 ret	 0
_TEXT	ENDS
;	COMDAT text$x
text$x	SEGMENT
__unwindfunclet$?New@CGraphicTextInstance@@SAPAV1@XZ$0:
  00000	6a 70		 push	 112			; 00000070H
  00002	8b 45 f0	 mov	 eax, DWORD PTR $T2[ebp]
  00005	50		 push	 eax
  00006	e8 00 00 00 00	 call	 ??3@YAXPAXI@Z		; operator delete
  0000b	83 c4 08	 add	 esp, 8
  0000e	c3		 ret	 0
  0000f	cc		 int	 3
  00010	cc		 int	 3
  00011	cc		 int	 3
  00012	cc		 int	 3
  00013	cc		 int	 3
__ehhandler$?New@CGraphicTextInstance@@SAPAV1@XZ:
  00014	90		 npad	 1
  00015	90		 npad	 1
  00016	8b 54 24 08	 mov	 edx, DWORD PTR [esp+8]
  0001a	8d 42 0c	 lea	 eax, DWORD PTR [edx+12]
  0001d	8b 4a f4	 mov	 ecx, DWORD PTR [edx-12]
  00020	33 c8		 xor	 ecx, eax
  00022	e8 00 00 00 00	 call	 @__security_check_cookie@4
  00027	b8 00 00 00 00	 mov	 eax, OFFSET __ehfuncinfo$?New@CGraphicTextInstance@@SAPAV1@XZ
  0002c	e9 00 00 00 00	 jmp	 ___CxxFrameHandler3
text$x	ENDS
?New@CGraphicTextInstance@@SAPAV1@XZ ENDP		; CGraphicTextInstance::New
; Function compile flags: /Ogtp
; File D:\Metin2 Server Files\mainline\SRC_2014\Metin2Client\EterLib\GrpTextInstance.cpp
; File C:\Program Files (x86)\Microsoft Visual Studio\2019\Community\VC\Tools\MSVC\14.28.29333\include\algorithm
; File D:\Metin2 Server Files\mainline\SRC_2014\Metin2Client\EterLib\GrpTextInstance.cpp
; File C:\Program Files (x86)\Microsoft Visual Studio\2019\Community\VC\Tools\MSVC\14.28.29333\include\algorithm
; File D:\Metin2 Server Files\mainline\SRC_2014\Metin2Client\EterLib\Pool.h
; File C:\Program Files (x86)\Microsoft Visual Studio\2019\Community\VC\Tools\MSVC\14.28.29333\include\algorithm
; File D:\Metin2 Server Files\mainline\SRC_2014\Metin2Client\EterLib\Pool.h
; File D:\Metin2 Server Files\mainline\SRC_2014\Metin2Client\EterLib\GrpTextInstance.cpp
; File D:\Metin2 Server Files\mainline\SRC_2014\Metin2Client\EterLib\Pool.h
; File D:\Metin2 Server Files\mainline\SRC_2014\Metin2Client\EterLib\GrpTextInstance.cpp
;	COMDAT ?DestroySystem@CGraphicTextInstance@@SAXXZ
_TEXT	SEGMENT
?DestroySystem@CGraphicTextInstance@@SAXXZ PROC		; CGraphicTextInstance::DestroySystem, COMDAT

; 907  : {

  00000	56		 push	 esi
; File C:\Program Files (x86)\Microsoft Visual Studio\2019\Community\VC\Tools\MSVC\14.28.29333\include\algorithm

; 307  :     for (; _UFirst != _ULast; ++_UFirst) {

  00001	8b 35 04 00 00
	00		 mov	 esi, DWORD PTR ?ms_kPool@CGraphicTextInstance@@2V?$CDynamicPool@VCGraphicTextInstance@@@@A+4
; File D:\Metin2 Server Files\mainline\SRC_2014\Metin2Client\EterLib\GrpTextInstance.cpp

; 907  : {

  00007	57		 push	 edi
; File C:\Program Files (x86)\Microsoft Visual Studio\2019\Community\VC\Tools\MSVC\14.28.29333\include\algorithm

; 306  :     const auto _ULast = _Get_unwrapped(_Last);

  00008	8b 3d 08 00 00
	00		 mov	 edi, DWORD PTR ?ms_kPool@CGraphicTextInstance@@2V?$CDynamicPool@VCGraphicTextInstance@@@@A+8

; 307  :     for (; _UFirst != _ULast; ++_UFirst) {

  0000e	3b f7		 cmp	 esi, edi
  00010	74 2a		 je	 SHORT $LN30@DestroySys
$LL20@DestroySys:
; File D:\Metin2 Server Files\mainline\SRC_2014\Metin2Client\EterLib\Pool.h

; 110  : 			delete pkData;

  00012	8b 0e		 mov	 ecx, DWORD PTR [esi]
  00014	85 c9		 test	 ecx, ecx
  00016	74 06		 je	 SHORT $LN18@DestroySys
  00018	8b 01		 mov	 eax, DWORD PTR [ecx]
  0001a	6a 01		 push	 1
  0001c	ff 10		 call	 DWORD PTR [eax]
$LN18@DestroySys:
; File C:\Program Files (x86)\Microsoft Visual Studio\2019\Community\VC\Tools\MSVC\14.28.29333\include\algorithm

; 307  :     for (; _UFirst != _ULast; ++_UFirst) {

  0001e	83 c6 04	 add	 esi, 4
  00021	3b f7		 cmp	 esi, edi
  00023	75 ed		 jne	 SHORT $LL20@DestroySys
; File D:\Metin2 Server Files\mainline\SRC_2014\Metin2Client\EterLib\Pool.h

; 51   : 			m_kVct_pkData.clear();

  00025	a1 04 00 00 00	 mov	 eax, DWORD PTR ?ms_kPool@CGraphicTextInstance@@2V?$CDynamicPool@VCGraphicTextInstance@@@@A+4
  0002a	a3 08 00 00 00	 mov	 DWORD PTR ?ms_kPool@CGraphicTextInstance@@2V?$CDynamicPool@VCGraphicTextInstance@@@@A+8, eax
; File D:\Metin2 Server Files\mainline\SRC_2014\Metin2Client\EterLib\GrpTextInstance.cpp

; 909  : }

  0002f	a1 10 00 00 00	 mov	 eax, DWORD PTR ?ms_kPool@CGraphicTextInstance@@2V?$CDynamicPool@VCGraphicTextInstance@@@@A+16
  00034	5f		 pop	 edi
  00035	a3 14 00 00 00	 mov	 DWORD PTR ?ms_kPool@CGraphicTextInstance@@2V?$CDynamicPool@VCGraphicTextInstance@@@@A+20, eax
  0003a	5e		 pop	 esi
  0003b	c3		 ret	 0
$LN30@DestroySys:
  0003c	a1 10 00 00 00	 mov	 eax, DWORD PTR ?ms_kPool@CGraphicTextInstance@@2V?$CDynamicPool@VCGraphicTextInstance@@@@A+16
  00041	5f		 pop	 edi
; File D:\Metin2 Server Files\mainline\SRC_2014\Metin2Client\EterLib\Pool.h

; 51   : 			m_kVct_pkData.clear();

  00042	89 35 08 00 00
	00		 mov	 DWORD PTR ?ms_kPool@CGraphicTextInstance@@2V?$CDynamicPool@VCGraphicTextInstance@@@@A+8, esi
; File D:\Metin2 Server Files\mainline\SRC_2014\Metin2Client\EterLib\GrpTextInstance.cpp

; 909  : }

  00048	a3 14 00 00 00	 mov	 DWORD PTR ?ms_kPool@CGraphicTextInstance@@2V?$CDynamicPool@VCGraphicTextInstance@@@@A+20, eax
  0004d	5e		 pop	 esi
  0004e	c3		 ret	 0
?DestroySystem@CGraphicTextInstance@@SAXXZ ENDP		; CGraphicTextInstance::DestroySystem
_TEXT	ENDS
; Function compile flags: /Ogtp
; File D:\Metin2 Server Files\mainline\SRC_2014\Metin2Client\EterLib\GrpTextInstance.cpp
; File C:\Program Files (x86)\Microsoft Visual Studio\2019\Community\VC\Tools\MSVC\14.28.29333\include\vector
; File D:\Metin2 Server Files\mainline\SRC_2014\Metin2Client\EterLib\GrpTextInstance.cpp
; File D:\Metin2 Server Files\mainline\SRC_2014\Metin2Client\EterLib\Pool.h
; File C:\Program Files (x86)\Microsoft Visual Studio\2019\Community\VC\Tools\MSVC\14.28.29333\include\vector
; File D:\Metin2 Server Files\mainline\SRC_2014\Metin2Client\EterLib\Pool.h
; File C:\Program Files (x86)\Microsoft Visual Studio\2019\Community\VC\Tools\MSVC\14.28.29333\include\vector
; File D:\Metin2 Server Files\mainline\SRC_2014\Metin2Client\EterLib\GrpTextInstance.cpp
; File C:\Program Files (x86)\Microsoft Visual Studio\2019\Community\VC\Tools\MSVC\14.28.29333\include\vector
; File D:\Metin2 Server Files\mainline\SRC_2014\Metin2Client\EterLib\GrpTextInstance.cpp
;	COMDAT ?CreateSystem@CGraphicTextInstance@@SAXI@Z
_TEXT	SEGMENT
_uCapacity$ = 8						; size = 4
?CreateSystem@CGraphicTextInstance@@SAXI@Z PROC		; CGraphicTextInstance::CreateSystem, COMDAT

; 902  : {

  00000	55		 push	 ebp
  00001	8b ec		 mov	 ebp, esp
; File C:\Program Files (x86)\Microsoft Visual Studio\2019\Community\VC\Tools\MSVC\14.28.29333\include\vector

; 1494 :         return static_cast<size_type>(_My_data._Myend - _My_data._Myfirst);

  00003	a1 0c 00 00 00	 mov	 eax, DWORD PTR ?ms_kPool@CGraphicTextInstance@@2V?$CDynamicPool@VCGraphicTextInstance@@@@A+12
  00008	2b 05 04 00 00
	00		 sub	 eax, DWORD PTR ?ms_kPool@CGraphicTextInstance@@2V?$CDynamicPool@VCGraphicTextInstance@@@@A+4
; File D:\Metin2 Server Files\mainline\SRC_2014\Metin2Client\EterLib\GrpTextInstance.cpp

; 902  : {

  0000e	56		 push	 esi
; File D:\Metin2 Server Files\mainline\SRC_2014\Metin2Client\EterLib\Pool.h

; 57   : 			m_uInitCapacity=uCapacity;

  0000f	8b 75 08	 mov	 esi, DWORD PTR _uCapacity$[ebp]
; File C:\Program Files (x86)\Microsoft Visual Studio\2019\Community\VC\Tools\MSVC\14.28.29333\include\vector

; 1494 :         return static_cast<size_type>(_My_data._Myend - _My_data._Myfirst);

  00012	c1 f8 02	 sar	 eax, 2
; File D:\Metin2 Server Files\mainline\SRC_2014\Metin2Client\EterLib\Pool.h

; 57   : 			m_uInitCapacity=uCapacity;

  00015	89 35 1c 00 00
	00		 mov	 DWORD PTR ?ms_kPool@CGraphicTextInstance@@2V?$CDynamicPool@VCGraphicTextInstance@@@@A+28, esi
; File C:\Program Files (x86)\Microsoft Visual Studio\2019\Community\VC\Tools\MSVC\14.28.29333\include\vector

; 1306 :         if (_Newcapacity > capacity()) { // something to do (reserve() never shrinks)

  0001b	3b f0		 cmp	 esi, eax
  0001d	76 13		 jbe	 SHORT $LN6@CreateSyst

; 1307 :             if (_Newcapacity > max_size()) {

  0001f	81 fe ff ff ff
	3f		 cmp	 esi, 1073741823		; 3fffffffH
  00025	77 33		 ja	 SHORT $LN19@CreateSyst

; 1309 :             }
; 1310 : 
; 1311 :             _Reallocate_exactly(_Newcapacity);

  00027	56		 push	 esi
  00028	b9 04 00 00 00	 mov	 ecx, OFFSET ?ms_kPool@CGraphicTextInstance@@2V?$CDynamicPool@VCGraphicTextInstance@@@@A+4
  0002d	e8 00 00 00 00	 call	 ?_Reallocate_exactly@?$vector@PAVCGraphicTextInstance@@V?$allocator@PAVCGraphicTextInstance@@@std@@@std@@AAEXI@Z ; std::vector<CGraphicTextInstance *,std::allocator<CGraphicTextInstance *> >::_Reallocate_exactly
$LN6@CreateSyst:

; 1494 :         return static_cast<size_type>(_My_data._Myend - _My_data._Myfirst);

  00032	a1 18 00 00 00	 mov	 eax, DWORD PTR ?ms_kPool@CGraphicTextInstance@@2V?$CDynamicPool@VCGraphicTextInstance@@@@A+24
  00037	2b 05 10 00 00
	00		 sub	 eax, DWORD PTR ?ms_kPool@CGraphicTextInstance@@2V?$CDynamicPool@VCGraphicTextInstance@@@@A+16
  0003d	c1 f8 02	 sar	 eax, 2

; 1306 :         if (_Newcapacity > capacity()) { // something to do (reserve() never shrinks)

  00040	3b f0		 cmp	 esi, eax
  00042	76 13		 jbe	 SHORT $LN13@CreateSyst

; 1307 :             if (_Newcapacity > max_size()) {

  00044	81 fe ff ff ff
	3f		 cmp	 esi, 1073741823		; 3fffffffH
  0004a	77 0e		 ja	 SHORT $LN19@CreateSyst

; 1309 :             }
; 1310 : 
; 1311 :             _Reallocate_exactly(_Newcapacity);

  0004c	56		 push	 esi
  0004d	b9 10 00 00 00	 mov	 ecx, OFFSET ?ms_kPool@CGraphicTextInstance@@2V?$CDynamicPool@VCGraphicTextInstance@@@@A+16
  00052	e8 00 00 00 00	 call	 ?_Reallocate_exactly@?$vector@PAVCGraphicTextInstance@@V?$allocator@PAVCGraphicTextInstance@@@std@@@std@@AAEXI@Z ; std::vector<CGraphicTextInstance *,std::allocator<CGraphicTextInstance *> >::_Reallocate_exactly
$LN13@CreateSyst:
  00057	5e		 pop	 esi
; File D:\Metin2 Server Files\mainline\SRC_2014\Metin2Client\EterLib\GrpTextInstance.cpp

; 904  : }

  00058	5d		 pop	 ebp
  00059	c3		 ret	 0
$LN19@CreateSyst:
; File C:\Program Files (x86)\Microsoft Visual Studio\2019\Community\VC\Tools\MSVC\14.28.29333\include\vector

; 1308 :                 _Xlength();

  0005a	e8 00 00 00 00	 call	 ?_Xlength@?$vector@PAVCGraphicTextInstance@@V?$allocator@PAVCGraphicTextInstance@@@std@@@std@@CAXXZ ; std::vector<CGraphicTextInstance *,std::allocator<CGraphicTextInstance *> >::_Xlength
$LN20@CreateSyst:
  0005f	cc		 int	 3
?CreateSystem@CGraphicTextInstance@@SAXI@Z ENDP		; CGraphicTextInstance::CreateSystem
_TEXT	ENDS
; Function compile flags: /Ogtp
; File C:\Program Files (x86)\Microsoft Visual Studio\2019\Community\VC\Tools\MSVC\14.28.29333\include\vector
;	COMDAT ?_Xlength@?$vector@USHyperlink@CGraphicTextInstance@@V?$allocator@USHyperlink@CGraphicTextInstance@@@std@@@std@@CAXXZ
_TEXT	SEGMENT
?_Xlength@?$vector@USHyperlink@CGraphicTextInstance@@V?$allocator@USHyperlink@CGraphicTextInstance@@@std@@@std@@CAXXZ PROC ; std::vector<CGraphicTextInstance::SHyperlink,std::allocator<CGraphicTextInstance::SHyperlink> >::_Xlength, COMDAT

; 1705 :         _Xlength_error("vector too long");

  00000	68 00 00 00 00	 push	 OFFSET ??_C@_0BA@FOIKENOD@vector?5too?5long@
  00005	e8 00 00 00 00	 call	 ?_Xlength_error@std@@YAXPBD@Z ; std::_Xlength_error
$LN3@Xlength:
  0000a	cc		 int	 3
?_Xlength@?$vector@USHyperlink@CGraphicTextInstance@@V?$allocator@USHyperlink@CGraphicTextInstance@@@std@@@std@@CAXXZ ENDP ; std::vector<CGraphicTextInstance::SHyperlink,std::allocator<CGraphicTextInstance::SHyperlink> >::_Xlength
_TEXT	ENDS
; Function compile flags: /Ogtp
; File C:\Program Files (x86)\Microsoft Visual Studio\2019\Community\VC\Tools\MSVC\14.28.29333\include\vector
;	COMDAT ?_Destroy@?$vector@USHyperlink@CGraphicTextInstance@@V?$allocator@USHyperlink@CGraphicTextInstance@@@std@@@std@@AAEXPAUSHyperlink@CGraphicTextInstance@@0@Z
_TEXT	SEGMENT
__First$ = 8						; size = 4
__Last$ = 12						; size = 4
?_Destroy@?$vector@USHyperlink@CGraphicTextInstance@@V?$allocator@USHyperlink@CGraphicTextInstance@@@std@@@std@@AAEXPAUSHyperlink@CGraphicTextInstance@@0@Z PROC ; std::vector<CGraphicTextInstance::SHyperlink,std::allocator<CGraphicTextInstance::SHyperlink> >::_Destroy, COMDAT
; _this$ = ecx

; 1611 :     void _Destroy(pointer _First, pointer _Last) { // destroy [_First, _Last) using allocator

  00000	55		 push	 ebp
  00001	8b ec		 mov	 ebp, esp

; 1612 :         _Destroy_range(_First, _Last, _Getal());

  00003	51		 push	 ecx
  00004	ff 75 0c	 push	 DWORD PTR __Last$[ebp]
  00007	ff 75 08	 push	 DWORD PTR __First$[ebp]
  0000a	e8 00 00 00 00	 call	 ??$_Destroy_range@V?$allocator@USHyperlink@CGraphicTextInstance@@@std@@@std@@YAXPAUSHyperlink@CGraphicTextInstance@@QAU12@AAV?$allocator@USHyperlink@CGraphicTextInstance@@@0@@Z ; std::_Destroy_range<std::allocator<CGraphicTextInstance::SHyperlink> >
  0000f	83 c4 0c	 add	 esp, 12			; 0000000cH

; 1613 :     }

  00012	5d		 pop	 ebp
  00013	c2 08 00	 ret	 8
?_Destroy@?$vector@USHyperlink@CGraphicTextInstance@@V?$allocator@USHyperlink@CGraphicTextInstance@@@std@@@std@@AAEXPAUSHyperlink@CGraphicTextInstance@@0@Z ENDP ; std::vector<CGraphicTextInstance::SHyperlink,std::allocator<CGraphicTextInstance::SHyperlink> >::_Destroy
_TEXT	ENDS
; Function compile flags: /Ogtp
; File C:\Program Files (x86)\Microsoft Visual Studio\2019\Community\VC\Tools\MSVC\14.28.29333\include\vector
; File C:\Program Files (x86)\Microsoft Visual Studio\2019\Community\VC\Tools\MSVC\14.28.29333\include\xmemory
; File C:\Program Files (x86)\Microsoft Visual Studio\2019\Community\VC\Tools\MSVC\14.28.29333\include\vector
; File C:\Program Files (x86)\Microsoft Visual Studio\2019\Community\VC\Tools\MSVC\14.28.29333\include\xmemory
; File C:\Program Files (x86)\Microsoft Visual Studio\2019\Community\VC\Tools\MSVC\14.28.29333\include\vector
;	COMDAT ??1?$vector@USHyperlink@CGraphicTextInstance@@V?$allocator@USHyperlink@CGraphicTextInstance@@@std@@@std@@QAE@XZ
_TEXT	SEGMENT
??1?$vector@USHyperlink@CGraphicTextInstance@@V?$allocator@USHyperlink@CGraphicTextInstance@@@std@@@std@@QAE@XZ PROC ; std::vector<CGraphicTextInstance::SHyperlink,std::allocator<CGraphicTextInstance::SHyperlink> >::~vector<CGraphicTextInstance::SHyperlink,std::allocator<CGraphicTextInstance::SHyperlink> >, COMDAT
; _this$ = ecx

; 672  :     ~vector() noexcept {

  00000	57		 push	 edi
  00001	8b f9		 mov	 edi, ecx

; 1694 :         if (_Myfirst) { // destroy and deallocate old array

  00003	8b 07		 mov	 eax, DWORD PTR [edi]
  00005	85 c0		 test	 eax, eax
  00007	74 4d		 je	 SHORT $LN4@vector

; 1612 :         _Destroy_range(_First, _Last, _Getal());

  00009	57		 push	 edi
  0000a	ff 77 04	 push	 DWORD PTR [edi+4]
  0000d	50		 push	 eax
  0000e	e8 00 00 00 00	 call	 ??$_Destroy_range@V?$allocator@USHyperlink@CGraphicTextInstance@@@std@@@std@@YAXPAUSHyperlink@CGraphicTextInstance@@QAU12@AAV?$allocator@USHyperlink@CGraphicTextInstance@@@0@@Z ; std::_Destroy_range<std::allocator<CGraphicTextInstance::SHyperlink> >

; 1696 :             _Getal().deallocate(_Myfirst, static_cast<size_type>(_Myend - _Myfirst));

  00013	8b 4f 08	 mov	 ecx, DWORD PTR [edi+8]
  00016	b8 93 24 49 92	 mov	 eax, -1840700269	; 92492493H
  0001b	2b 0f		 sub	 ecx, DWORD PTR [edi]
  0001d	f7 e9		 imul	 ecx
  0001f	03 d1		 add	 edx, ecx
  00021	c1 fa 04	 sar	 edx, 4
  00024	8b ca		 mov	 ecx, edx
  00026	c1 e9 1f	 shr	 ecx, 31			; 0000001fH
  00029	03 ca		 add	 ecx, edx
; File C:\Program Files (x86)\Microsoft Visual Studio\2019\Community\VC\Tools\MSVC\14.28.29333\include\xmemory

; 810  :         _Deallocate<_New_alignof<_Ty>>(_Ptr, sizeof(_Ty) * _Count);

  0002b	8d 04 cd 00 00
	00 00		 lea	 eax, DWORD PTR [ecx*8]
  00032	2b c1		 sub	 eax, ecx
  00034	c1 e0 02	 shl	 eax, 2
  00037	50		 push	 eax
  00038	ff 37		 push	 DWORD PTR [edi]
  0003a	e8 00 00 00 00	 call	 ??$_Deallocate@$07$0A@@std@@YAXPAXI@Z ; std::_Deallocate<8,0>
; File C:\Program Files (x86)\Microsoft Visual Studio\2019\Community\VC\Tools\MSVC\14.28.29333\include\vector

; 1698 :             _Myfirst = pointer();

  0003f	c7 07 00 00 00
	00		 mov	 DWORD PTR [edi], 0
; File C:\Program Files (x86)\Microsoft Visual Studio\2019\Community\VC\Tools\MSVC\14.28.29333\include\xmemory

; 810  :         _Deallocate<_New_alignof<_Ty>>(_Ptr, sizeof(_Ty) * _Count);

  00045	83 c4 14	 add	 esp, 20			; 00000014H
; File C:\Program Files (x86)\Microsoft Visual Studio\2019\Community\VC\Tools\MSVC\14.28.29333\include\vector

; 1699 :             _Mylast  = pointer();

  00048	c7 47 04 00 00
	00 00		 mov	 DWORD PTR [edi+4], 0

; 1700 :             _Myend   = pointer();

  0004f	c7 47 08 00 00
	00 00		 mov	 DWORD PTR [edi+8], 0
$LN4@vector:
  00056	5f		 pop	 edi

; 673  :         _Tidy();
; 674  : #if _ITERATOR_DEBUG_LEVEL != 0
; 675  :         auto&& _Alproxy = _GET_PROXY_ALLOCATOR(_Alty, _Getal());
; 676  :         _Delete_plain_internal(_Alproxy, _STD exchange(_Mypair._Myval2._Myproxy, nullptr));
; 677  : #endif // _ITERATOR_DEBUG_LEVEL != 0
; 678  :     }

  00057	c3		 ret	 0
??1?$vector@USHyperlink@CGraphicTextInstance@@V?$allocator@USHyperlink@CGraphicTextInstance@@@std@@@std@@QAE@XZ ENDP ; std::vector<CGraphicTextInstance::SHyperlink,std::allocator<CGraphicTextInstance::SHyperlink> >::~vector<CGraphicTextInstance::SHyperlink,std::allocator<CGraphicTextInstance::SHyperlink> >
_TEXT	ENDS
; Function compile flags: /Ogtp
; File C:\Program Files (x86)\Microsoft Visual Studio\2019\Community\VC\Tools\MSVC\14.28.29333\include\xmemory
;	COMDAT ?deallocate@?$allocator@USHyperlink@CGraphicTextInstance@@@std@@QAEXQAUSHyperlink@CGraphicTextInstance@@I@Z
_TEXT	SEGMENT
__Ptr$ = 8						; size = 4
__Count$ = 12						; size = 4
?deallocate@?$allocator@USHyperlink@CGraphicTextInstance@@@std@@QAEXQAUSHyperlink@CGraphicTextInstance@@I@Z PROC ; std::allocator<CGraphicTextInstance::SHyperlink>::deallocate, COMDAT
; _this$ = ecx

; 808  :     void deallocate(_Ty* const _Ptr, const size_t _Count) {

  00000	55		 push	 ebp
  00001	8b ec		 mov	 ebp, esp

; 809  :         // no overflow check on the following multiply; we assume _Allocate did that check
; 810  :         _Deallocate<_New_alignof<_Ty>>(_Ptr, sizeof(_Ty) * _Count);

  00003	8b 45 0c	 mov	 eax, DWORD PTR __Count$[ebp]
  00006	8d 0c c5 00 00
	00 00		 lea	 ecx, DWORD PTR [eax*8]
  0000d	2b c8		 sub	 ecx, eax
  0000f	c1 e1 02	 shl	 ecx, 2
  00012	51		 push	 ecx
  00013	ff 75 08	 push	 DWORD PTR __Ptr$[ebp]
  00016	e8 00 00 00 00	 call	 ??$_Deallocate@$07$0A@@std@@YAXPAXI@Z ; std::_Deallocate<8,0>
  0001b	83 c4 08	 add	 esp, 8

; 811  :     }

  0001e	5d		 pop	 ebp
  0001f	c2 08 00	 ret	 8
?deallocate@?$allocator@USHyperlink@CGraphicTextInstance@@@std@@QAEXQAUSHyperlink@CGraphicTextInstance@@I@Z ENDP ; std::allocator<CGraphicTextInstance::SHyperlink>::deallocate
_TEXT	ENDS
; Function compile flags: /Ogtp
; File C:\Program Files (x86)\Microsoft Visual Studio\2019\Community\VC\Tools\MSVC\14.28.29333\include\vector
;	COMDAT ?_Xlength@?$vector@KV?$allocator@K@std@@@std@@CAXXZ
_TEXT	SEGMENT
?_Xlength@?$vector@KV?$allocator@K@std@@@std@@CAXXZ PROC ; std::vector<unsigned long,std::allocator<unsigned long> >::_Xlength, COMDAT

; 1705 :         _Xlength_error("vector too long");

  00000	68 00 00 00 00	 push	 OFFSET ??_C@_0BA@FOIKENOD@vector?5too?5long@
  00005	e8 00 00 00 00	 call	 ?_Xlength_error@std@@YAXPBD@Z ; std::_Xlength_error
$LN3@Xlength:
  0000a	cc		 int	 3
?_Xlength@?$vector@KV?$allocator@K@std@@@std@@CAXXZ ENDP ; std::vector<unsigned long,std::allocator<unsigned long> >::_Xlength
_TEXT	ENDS
; Function compile flags: /Ogtp
; File C:\Program Files (x86)\Microsoft Visual Studio\2019\Community\VC\Tools\MSVC\14.28.29333\include\vector
; File C:\Program Files (x86)\Microsoft Visual Studio\2019\Community\VC\Tools\MSVC\14.28.29333\include\xmemory
; File C:\Program Files (x86)\Microsoft Visual Studio\2019\Community\VC\Tools\MSVC\14.28.29333\include\vector
; File C:\Program Files (x86)\Microsoft Visual Studio\2019\Community\VC\Tools\MSVC\14.28.29333\include\xmemory
; File C:\Program Files (x86)\Microsoft Visual Studio\2019\Community\VC\Tools\MSVC\14.28.29333\include\vector
;	COMDAT ??1?$vector@KV?$allocator@K@std@@@std@@QAE@XZ
_TEXT	SEGMENT
??1?$vector@KV?$allocator@K@std@@@std@@QAE@XZ PROC	; std::vector<unsigned long,std::allocator<unsigned long> >::~vector<unsigned long,std::allocator<unsigned long> >, COMDAT
; _this$ = ecx

; 672  :     ~vector() noexcept {

  00000	56		 push	 esi
  00001	8b f1		 mov	 esi, ecx

; 1694 :         if (_Myfirst) { // destroy and deallocate old array

  00003	8b 0e		 mov	 ecx, DWORD PTR [esi]
  00005	85 c9		 test	 ecx, ecx
  00007	74 26		 je	 SHORT $LN4@vector

; 1695 :             _Destroy(_Myfirst, _Mylast);
; 1696 :             _Getal().deallocate(_Myfirst, static_cast<size_type>(_Myend - _Myfirst));

  00009	8b 46 08	 mov	 eax, DWORD PTR [esi+8]
  0000c	2b c1		 sub	 eax, ecx
; File C:\Program Files (x86)\Microsoft Visual Studio\2019\Community\VC\Tools\MSVC\14.28.29333\include\xmemory

; 810  :         _Deallocate<_New_alignof<_Ty>>(_Ptr, sizeof(_Ty) * _Count);

  0000e	83 e0 fc	 and	 eax, -4			; fffffffcH
  00011	50		 push	 eax
  00012	51		 push	 ecx
  00013	e8 00 00 00 00	 call	 ??$_Deallocate@$07$0A@@std@@YAXPAXI@Z ; std::_Deallocate<8,0>
; File C:\Program Files (x86)\Microsoft Visual Studio\2019\Community\VC\Tools\MSVC\14.28.29333\include\vector

; 1698 :             _Myfirst = pointer();

  00018	c7 06 00 00 00
	00		 mov	 DWORD PTR [esi], 0
; File C:\Program Files (x86)\Microsoft Visual Studio\2019\Community\VC\Tools\MSVC\14.28.29333\include\xmemory

; 810  :         _Deallocate<_New_alignof<_Ty>>(_Ptr, sizeof(_Ty) * _Count);

  0001e	83 c4 08	 add	 esp, 8
; File C:\Program Files (x86)\Microsoft Visual Studio\2019\Community\VC\Tools\MSVC\14.28.29333\include\vector

; 1699 :             _Mylast  = pointer();

  00021	c7 46 04 00 00
	00 00		 mov	 DWORD PTR [esi+4], 0

; 1700 :             _Myend   = pointer();

  00028	c7 46 08 00 00
	00 00		 mov	 DWORD PTR [esi+8], 0
$LN4@vector:
  0002f	5e		 pop	 esi

; 673  :         _Tidy();
; 674  : #if _ITERATOR_DEBUG_LEVEL != 0
; 675  :         auto&& _Alproxy = _GET_PROXY_ALLOCATOR(_Alty, _Getal());
; 676  :         _Delete_plain_internal(_Alproxy, _STD exchange(_Mypair._Myval2._Myproxy, nullptr));
; 677  : #endif // _ITERATOR_DEBUG_LEVEL != 0
; 678  :     }

  00030	c3		 ret	 0
??1?$vector@KV?$allocator@K@std@@@std@@QAE@XZ ENDP	; std::vector<unsigned long,std::allocator<unsigned long> >::~vector<unsigned long,std::allocator<unsigned long> >
_TEXT	ENDS
; Function compile flags: /Ogtp
; File C:\Program Files (x86)\Microsoft Visual Studio\2019\Community\VC\Tools\MSVC\14.28.29333\include\vector
;	COMDAT ?_Xlength@?$vector@PAUSCharacterInfomation@CGraphicFontTexture@@V?$allocator@PAUSCharacterInfomation@CGraphicFontTexture@@@std@@@std@@CAXXZ
_TEXT	SEGMENT
?_Xlength@?$vector@PAUSCharacterInfomation@CGraphicFontTexture@@V?$allocator@PAUSCharacterInfomation@CGraphicFontTexture@@@std@@@std@@CAXXZ PROC ; std::vector<CGraphicFontTexture::SCharacterInfomation *,std::allocator<CGraphicFontTexture::SCharacterInfomation *> >::_Xlength, COMDAT

; 1705 :         _Xlength_error("vector too long");

  00000	68 00 00 00 00	 push	 OFFSET ??_C@_0BA@FOIKENOD@vector?5too?5long@
  00005	e8 00 00 00 00	 call	 ?_Xlength_error@std@@YAXPBD@Z ; std::_Xlength_error
$LN3@Xlength:
  0000a	cc		 int	 3
?_Xlength@?$vector@PAUSCharacterInfomation@CGraphicFontTexture@@V?$allocator@PAUSCharacterInfomation@CGraphicFontTexture@@@std@@@std@@CAXXZ ENDP ; std::vector<CGraphicFontTexture::SCharacterInfomation *,std::allocator<CGraphicFontTexture::SCharacterInfomation *> >::_Xlength
_TEXT	ENDS
; Function compile flags: /Ogtp
; File C:\Program Files (x86)\Microsoft Visual Studio\2019\Community\VC\Tools\MSVC\14.28.29333\include\vector
; File C:\Program Files (x86)\Microsoft Visual Studio\2019\Community\VC\Tools\MSVC\14.28.29333\include\xmemory
; File C:\Program Files (x86)\Microsoft Visual Studio\2019\Community\VC\Tools\MSVC\14.28.29333\include\vector
; File C:\Program Files (x86)\Microsoft Visual Studio\2019\Community\VC\Tools\MSVC\14.28.29333\include\xmemory
; File C:\Program Files (x86)\Microsoft Visual Studio\2019\Community\VC\Tools\MSVC\14.28.29333\include\vector
;	COMDAT ??1?$vector@PAUSCharacterInfomation@CGraphicFontTexture@@V?$allocator@PAUSCharacterInfomation@CGraphicFontTexture@@@std@@@std@@QAE@XZ
_TEXT	SEGMENT
??1?$vector@PAUSCharacterInfomation@CGraphicFontTexture@@V?$allocator@PAUSCharacterInfomation@CGraphicFontTexture@@@std@@@std@@QAE@XZ PROC ; std::vector<CGraphicFontTexture::SCharacterInfomation *,std::allocator<CGraphicFontTexture::SCharacterInfomation *> >::~vector<CGraphicFontTexture::SCharacterInfomation *,std::allocator<CGraphicFontTexture::SCharacterInfomation *> >, COMDAT
; _this$ = ecx

; 672  :     ~vector() noexcept {

  00000	56		 push	 esi
  00001	8b f1		 mov	 esi, ecx

; 1694 :         if (_Myfirst) { // destroy and deallocate old array

  00003	8b 0e		 mov	 ecx, DWORD PTR [esi]
  00005	85 c9		 test	 ecx, ecx
  00007	74 26		 je	 SHORT $LN4@vector

; 1695 :             _Destroy(_Myfirst, _Mylast);
; 1696 :             _Getal().deallocate(_Myfirst, static_cast<size_type>(_Myend - _Myfirst));

  00009	8b 46 08	 mov	 eax, DWORD PTR [esi+8]
  0000c	2b c1		 sub	 eax, ecx
; File C:\Program Files (x86)\Microsoft Visual Studio\2019\Community\VC\Tools\MSVC\14.28.29333\include\xmemory

; 810  :         _Deallocate<_New_alignof<_Ty>>(_Ptr, sizeof(_Ty) * _Count);

  0000e	83 e0 fc	 and	 eax, -4			; fffffffcH
  00011	50		 push	 eax
  00012	51		 push	 ecx
  00013	e8 00 00 00 00	 call	 ??$_Deallocate@$07$0A@@std@@YAXPAXI@Z ; std::_Deallocate<8,0>
; File C:\Program Files (x86)\Microsoft Visual Studio\2019\Community\VC\Tools\MSVC\14.28.29333\include\vector

; 1698 :             _Myfirst = pointer();

  00018	c7 06 00 00 00
	00		 mov	 DWORD PTR [esi], 0
; File C:\Program Files (x86)\Microsoft Visual Studio\2019\Community\VC\Tools\MSVC\14.28.29333\include\xmemory

; 810  :         _Deallocate<_New_alignof<_Ty>>(_Ptr, sizeof(_Ty) * _Count);

  0001e	83 c4 08	 add	 esp, 8
; File C:\Program Files (x86)\Microsoft Visual Studio\2019\Community\VC\Tools\MSVC\14.28.29333\include\vector

; 1699 :             _Mylast  = pointer();

  00021	c7 46 04 00 00
	00 00		 mov	 DWORD PTR [esi+4], 0

; 1700 :             _Myend   = pointer();

  00028	c7 46 08 00 00
	00 00		 mov	 DWORD PTR [esi+8], 0
$LN4@vector:
  0002f	5e		 pop	 esi

; 673  :         _Tidy();
; 674  : #if _ITERATOR_DEBUG_LEVEL != 0
; 675  :         auto&& _Alproxy = _GET_PROXY_ALLOCATOR(_Alty, _Getal());
; 676  :         _Delete_plain_internal(_Alproxy, _STD exchange(_Mypair._Myval2._Myproxy, nullptr));
; 677  : #endif // _ITERATOR_DEBUG_LEVEL != 0
; 678  :     }

  00030	c3		 ret	 0
??1?$vector@PAUSCharacterInfomation@CGraphicFontTexture@@V?$allocator@PAUSCharacterInfomation@CGraphicFontTexture@@@std@@@std@@QAE@XZ ENDP ; std::vector<CGraphicFontTexture::SCharacterInfomation *,std::allocator<CGraphicFontTexture::SCharacterInfomation *> >::~vector<CGraphicFontTexture::SCharacterInfomation *,std::allocator<CGraphicFontTexture::SCharacterInfomation *> >
_TEXT	ENDS
; Function compile flags: /Ogtp
; File D:\Metin2 Server Files\mainline\SRC_2014\Metin2Client\EterLib\Ref.h
;	COMDAT ??1?$CRef@VCGraphicText@@@@QAE@XZ
_TEXT	SEGMENT
__$EHRec$ = -12						; size = 12
??1?$CRef@VCGraphicText@@@@QAE@XZ PROC			; CRef<CGraphicText>::~CRef<CGraphicText>, COMDAT
; _this$ = ecx

; 37   : 		{

  00000	55		 push	 ebp
  00001	8b ec		 mov	 ebp, esp
  00003	6a ff		 push	 -1
  00005	68 00 00 00 00	 push	 __ehhandler$??1?$CRef@VCGraphicText@@@@QAE@XZ
  0000a	64 a1 00 00 00
	00		 mov	 eax, DWORD PTR fs:0
  00010	50		 push	 eax
  00011	56		 push	 esi
  00012	a1 00 00 00 00	 mov	 eax, DWORD PTR ___security_cookie
  00017	33 c5		 xor	 eax, ebp
  00019	50		 push	 eax
  0001a	8d 45 f4	 lea	 eax, DWORD PTR __$EHRec$[ebp]
  0001d	64 a3 00 00 00
	00		 mov	 DWORD PTR fs:0, eax
  00023	8b f1		 mov	 esi, ecx

; 53   : 			if (m_pObject)

  00025	8b 0e		 mov	 ecx, DWORD PTR [esi]
  00027	85 c9		 test	 ecx, ecx
  00029	74 0b		 je	 SHORT $LN4@CRef

; 54   : 			{
; 55   : 				m_pObject->Release();

  0002b	e8 00 00 00 00	 call	 ?Release@CReferenceObject@@QAEXXZ ; CReferenceObject::Release

; 56   : 				m_pObject = NULL;

  00030	c7 06 00 00 00
	00		 mov	 DWORD PTR [esi], 0
$LN4@CRef:

; 38   : 			Clear();
; 39   : 		}

  00036	8b 4d f4	 mov	 ecx, DWORD PTR __$EHRec$[ebp]
  00039	64 89 0d 00 00
	00 00		 mov	 DWORD PTR fs:0, ecx
  00040	59		 pop	 ecx
  00041	5e		 pop	 esi
  00042	8b e5		 mov	 esp, ebp
  00044	5d		 pop	 ebp
  00045	c3		 ret	 0
  00046	cc		 int	 3
  00047	cc		 int	 3
  00048	cc		 int	 3
  00049	cc		 int	 3
  0004a	cc		 int	 3
_TEXT	ENDS
;	COMDAT text$x
text$x	SEGMENT
__ehhandler$??1?$CRef@VCGraphicText@@@@QAE@XZ:
  00000	90		 npad	 1
  00001	90		 npad	 1
  00002	8b 54 24 08	 mov	 edx, DWORD PTR [esp+8]
  00006	8d 42 0c	 lea	 eax, DWORD PTR [edx+12]
  00009	8b 4a f8	 mov	 ecx, DWORD PTR [edx-8]
  0000c	33 c8		 xor	 ecx, eax
  0000e	e8 00 00 00 00	 call	 @__security_check_cookie@4
  00013	b8 00 00 00 00	 mov	 eax, OFFSET __ehfuncinfo$??1?$CRef@VCGraphicText@@@@QAE@XZ
  00018	e9 00 00 00 00	 jmp	 ___CxxFrameHandler3
text$x	ENDS
??1?$CRef@VCGraphicText@@@@QAE@XZ ENDP			; CRef<CGraphicText>::~CRef<CGraphicText>
; Function compile flags: /Ogtp
; File C:\Program Files (x86)\Microsoft Visual Studio\2019\Community\VC\Tools\MSVC\14.28.29333\include\xstring
; File C:\Program Files (x86)\Microsoft Visual Studio\2019\Community\VC\Tools\MSVC\14.28.29333\include\xmemory
; File C:\Program Files (x86)\Microsoft Visual Studio\2019\Community\VC\Tools\MSVC\14.28.29333\include\xstring
;	COMDAT ??1SHyperlink@CGraphicTextInstance@@QAE@XZ
_TEXT	SEGMENT
??1SHyperlink@CGraphicTextInstance@@QAE@XZ PROC		; CGraphicTextInstance::SHyperlink::~SHyperlink, COMDAT
; _this$ = ecx

; 2227 :         return _BUF_SIZE <= _Myres;

  00000	56		 push	 esi
  00001	8b f1		 mov	 esi, ecx
  00003	8b 46 18	 mov	 eax, DWORD PTR [esi+24]
  00006	83 f8 08	 cmp	 eax, 8

; 4385 :         if (_Mypair._Myval2._Large_string_engaged()) {

  00009	72 13		 jb	 SHORT $LN7@SHyperlink
; File C:\Program Files (x86)\Microsoft Visual Studio\2019\Community\VC\Tools\MSVC\14.28.29333\include\xmemory

; 810  :         _Deallocate<_New_alignof<_Ty>>(_Ptr, sizeof(_Ty) * _Count);

  0000b	8d 04 45 02 00
	00 00		 lea	 eax, DWORD PTR [eax*2+2]
  00012	50		 push	 eax
  00013	ff 76 04	 push	 DWORD PTR [esi+4]
  00016	e8 00 00 00 00	 call	 ??$_Deallocate@$07$0A@@std@@YAXPAXI@Z ; std::_Deallocate<8,0>
  0001b	83 c4 08	 add	 esp, 8
$LN7@SHyperlink:
; File C:\Program Files (x86)\Microsoft Visual Studio\2019\Community\VC\Tools\MSVC\14.28.29333\include\xstring

; 4395 :         _Traits::assign(_Mypair._Myval2._Bx._Buf[0], _Elem());

  0001e	33 c0		 xor	 eax, eax
  00020	c7 46 14 00 00
	00 00		 mov	 DWORD PTR [esi+20], 0
  00027	c7 46 18 07 00
	00 00		 mov	 DWORD PTR [esi+24], 7
  0002e	66 89 46 04	 mov	 WORD PTR [esi+4], ax
  00032	5e		 pop	 esi
  00033	c3		 ret	 0
??1SHyperlink@CGraphicTextInstance@@QAE@XZ ENDP		; CGraphicTextInstance::SHyperlink::~SHyperlink
_TEXT	ENDS
; Function compile flags: /Ogtp
; File D:\Metin2 Server Files\mainline\SRC_2014\Metin2Client\EterLib\GrpTextInstance.cpp
; File C:\Program Files (x86)\Microsoft Visual Studio\2019\Community\VC\Tools\MSVC\14.28.29333\include\vector
; File D:\Metin2 Server Files\mainline\SRC_2014\Metin2Client\EterLib\GrpTextInstance.cpp
; File C:\Program Files (x86)\Microsoft Visual Studio\2019\Community\VC\Tools\MSVC\14.28.29333\include\vector
; File D:\Metin2 Server Files\mainline\SRC_2014\Metin2Client\EterLib\GrpTextInstance.cpp
;	COMDAT ?__GetTextPos@CGraphicTextInstance@@IAEXKPAM0@Z
_TEXT	SEGMENT
_index$ = 8						; size = 4
_x$ = 12						; size = 4
_y$ = 16						; size = 4
?__GetTextPos@CGraphicTextInstance@@IAEXKPAM0@Z PROC	; CGraphicTextInstance::__GetTextPos, COMDAT
; _this$ = ecx

; 56   : {

  00000	55		 push	 ebp
  00001	8b ec		 mov	 ebp, esp
  00003	56		 push	 esi
; File C:\Program Files (x86)\Microsoft Visual Studio\2019\Community\VC\Tools\MSVC\14.28.29333\include\vector

; 1484 :         return static_cast<size_type>(_My_data._Mylast - _My_data._Myfirst);

  00004	8b 71 50	 mov	 esi, DWORD PTR [ecx+80]
  00007	0f 57 c9	 xorps	 xmm1, xmm1
; File D:\Metin2 Server Files\mainline\SRC_2014\Metin2Client\EterLib\GrpTextInstance.cpp

; 56   : {

  0000a	57		 push	 edi
; File C:\Program Files (x86)\Microsoft Visual Studio\2019\Community\VC\Tools\MSVC\14.28.29333\include\vector

; 1484 :         return static_cast<size_type>(_My_data._Mylast - _My_data._Myfirst);

  0000b	8b 79 4c	 mov	 edi, DWORD PTR [ecx+76]
  0000e	0f 57 db	 xorps	 xmm3, xmm3
  00011	2b f7		 sub	 esi, edi
  00013	0f 57 d2	 xorps	 xmm2, xmm2
  00016	c1 fe 02	 sar	 esi, 2
; File D:\Metin2 Server Files\mainline\SRC_2014\Metin2Client\EterLib\GrpTextInstance.cpp

; 57   : 	index = min(index, m_pCharInfoVector.size());

  00019	39 75 08	 cmp	 DWORD PTR _index$[ebp], esi
  0001c	0f 42 75 08	 cmovb	 esi, DWORD PTR _index$[ebp]
  00020	33 d2		 xor	 edx, edx

; 58   : 
; 59   : 	float sx = 0;
; 60   : 	float sy = 0;
; 61   : 	float fFontMaxHeight = 0;
; 62   : 
; 63   : 	for(DWORD i=0; i<index; ++i)

  00022	85 f6		 test	 esi, esi
  00024	74 47		 je	 SHORT $LN3@GetTextPos

; 64   : 	{
; 65   : 		if (sx+float(m_pCharInfoVector[i]->width) > m_fLimitWidth)

  00026	f3 0f 10 61 14	 movss	 xmm4, DWORD PTR [ecx+20]
  0002b	0f 1f 44 00 00	 npad	 5
$LL4@GetTextPos:
  00030	8b 0c 97	 mov	 ecx, DWORD PTR [edi+edx*4]
  00033	0f bf 41 02	 movsx	 eax, WORD PTR [ecx+2]
  00037	66 0f 6e c0	 movd	 xmm0, eax
  0003b	0f 5b c0	 cvtdq2ps xmm0, xmm0
  0003e	f3 0f 58 c1	 addss	 xmm0, xmm1
  00042	0f 2f c4	 comiss	 xmm0, xmm4
  00045	76 0a		 jbe	 SHORT $LN5@GetTextPos

; 66   : 		{
; 67   : 			sx = 0;
; 68   : 			sy += fFontMaxHeight;

  00047	0f 28 c2	 movaps	 xmm0, xmm2
  0004a	0f 57 c9	 xorps	 xmm1, xmm1
  0004d	f3 0f 58 d8	 addss	 xmm3, xmm0
$LN5@GetTextPos:

; 69   : 		}
; 70   : 
; 71   : 		sx += float(m_pCharInfoVector[i]->advance);
; 72   : 		fFontMaxHeight = max(float(m_pCharInfoVector[i]->height), fFontMaxHeight);

  00051	0f bf 41 04	 movsx	 eax, WORD PTR [ecx+4]
  00055	42		 inc	 edx
  00056	f3 0f 58 49 18	 addss	 xmm1, DWORD PTR [ecx+24]
  0005b	66 0f 6e c0	 movd	 xmm0, eax
  0005f	0f 5b c0	 cvtdq2ps xmm0, xmm0
  00062	f3 0f 5f c2	 maxss	 xmm0, xmm2
  00066	0f 28 d0	 movaps	 xmm2, xmm0
  00069	3b d6		 cmp	 edx, esi
  0006b	72 c3		 jb	 SHORT $LL4@GetTextPos
$LN3@GetTextPos:

; 73   : 	}
; 74   : 
; 75   : 	*x = sx;

  0006d	8b 45 0c	 mov	 eax, DWORD PTR _x$[ebp]

; 76   : 	*y = sy;

  00070	5f		 pop	 edi
  00071	5e		 pop	 esi
  00072	f3 0f 11 08	 movss	 DWORD PTR [eax], xmm1
  00076	8b 45 10	 mov	 eax, DWORD PTR _y$[ebp]
  00079	f3 0f 11 18	 movss	 DWORD PTR [eax], xmm3

; 77   : }

  0007d	5d		 pop	 ebp
  0007e	c2 0c 00	 ret	 12			; 0000000cH
?__GetTextPos@CGraphicTextInstance@@IAEXKPAM0@Z ENDP	; CGraphicTextInstance::__GetTextPos
_TEXT	ENDS
; Function compile flags: /Ogtp
; File D:\Metin2 Server Files\mainline\SRC_2014\Metin2Client\EterLib\GrpTextInstance.cpp
; File C:\Program Files (x86)\Microsoft Visual Studio\2019\Community\VC\Tools\MSVC\14.28.29333\include\vector
; File D:\Metin2 Server Files\mainline\SRC_2014\Metin2Client\EterLib\GrpTextInstance.cpp
; File C:\Program Files (x86)\Microsoft Visual Studio\2019\Community\VC\Tools\MSVC\14.28.29333\include\vector
; File D:\Metin2 Server Files\mainline\SRC_2014\Metin2Client\EterLib\GrpTextInstance.cpp
; File C:\Program Files (x86)\Microsoft Visual Studio\2019\Community\VC\Tools\MSVC\14.28.29333\include\vector
; File D:\Metin2 Server Files\mainline\SRC_2014\Metin2Client\EterLib\GrpTextInstance.cpp
;	COMDAT ?__DrawCharacter@CGraphicTextInstance@@IAEHPAVCGraphicFontTexture@@G_WK@Z
_TEXT	SEGMENT
_pFontTexture$ = 8					; size = 4
_codePage$ = 12						; size = 2
_text$ = 16						; size = 2
_pInsCharInfo$ = 16					; size = 4
_dwColor$ = 20						; size = 4
?__DrawCharacter@CGraphicTextInstance@@IAEHPAVCGraphicFontTexture@@G_WK@Z PROC ; CGraphicTextInstance::__DrawCharacter, COMDAT
; _this$ = ecx

; 39   : {

  00000	55		 push	 ebp
  00001	8b ec		 mov	 ebp, esp
  00003	53		 push	 ebx
  00004	57		 push	 edi

; 40   : 	CGraphicFontTexture::TCharacterInfomation* pInsCharInfo = pFontTexture->GetCharacterInfomation(codePage, text);

  00005	ff 75 10	 push	 DWORD PTR _text$[ebp]
  00008	8b d9		 mov	 ebx, ecx
  0000a	8b 4d 08	 mov	 ecx, DWORD PTR _pFontTexture$[ebp]
  0000d	ff 75 0c	 push	 DWORD PTR _codePage$[ebp]
  00010	e8 00 00 00 00	 call	 ?GetCharacterInfomation@CGraphicFontTexture@@QAEPAUSCharacterInfomation@1@G_W@Z ; CGraphicFontTexture::GetCharacterInfomation
  00015	8b f8		 mov	 edi, eax
  00017	89 7d 10	 mov	 DWORD PTR _pInsCharInfo$[ebp], edi

; 41   : 
; 42   : 	if (pInsCharInfo)

  0001a	85 ff		 test	 edi, edi
  0001c	74 78		 je	 SHORT $LN2@DrawCharac
; File C:\Program Files (x86)\Microsoft Visual Studio\2019\Community\VC\Tools\MSVC\14.28.29333\include\vector

; 704  :         if (_Mylast != _My_data._Myend) {

  0001e	8b 53 5c	 mov	 edx, DWORD PTR [ebx+92]
; File D:\Metin2 Server Files\mainline\SRC_2014\Metin2Client\EterLib\GrpTextInstance.cpp

; 44   : 		m_dwColorInfoVector.push_back(dwColor);

  00021	8d 4b 58	 lea	 ecx, DWORD PTR [ebx+88]
; File C:\Program Files (x86)\Microsoft Visual Studio\2019\Community\VC\Tools\MSVC\14.28.29333\include\vector

; 704  :         if (_Mylast != _My_data._Myend) {

  00024	3b 51 08	 cmp	 edx, DWORD PTR [ecx+8]
  00027	74 0b		 je	 SHORT $LN9@DrawCharac

; 687  :         _Alty_traits::construct(_Getal(), _Unfancy(_Mylast), _STD forward<_Valty>(_Val)...);

  00029	8b 45 14	 mov	 eax, DWORD PTR _dwColor$[ebp]
  0002c	89 02		 mov	 DWORD PTR [edx], eax

; 688  :         _Orphan_range(_Mylast, _Mylast);
; 689  :         _Ty& _Result = *_Mylast;
; 690  :         ++_Mylast;

  0002e	83 41 04 04	 add	 DWORD PTR [ecx+4], 4

; 705  :             return _Emplace_back_with_unused_capacity(_STD forward<_Valty>(_Val)...);

  00032	eb 0a		 jmp	 SHORT $LN8@DrawCharac
$LN9@DrawCharac:

; 706  :         }
; 707  : 
; 708  :         _Ty& _Result = *_Emplace_reallocate(_Mylast, _STD forward<_Valty>(_Val)...);

  00034	8d 45 14	 lea	 eax, DWORD PTR _dwColor$[ebp]
  00037	50		 push	 eax
  00038	52		 push	 edx
  00039	e8 00 00 00 00	 call	 ??$_Emplace_reallocate@ABK@?$vector@KV?$allocator@K@std@@@std@@QAEPAKQAKABK@Z ; std::vector<unsigned long,std::allocator<unsigned long> >::_Emplace_reallocate<unsigned long const &>
$LN8@DrawCharac:

; 704  :         if (_Mylast != _My_data._Myend) {

  0003e	8b 43 50	 mov	 eax, DWORD PTR [ebx+80]
; File D:\Metin2 Server Files\mainline\SRC_2014\Metin2Client\EterLib\GrpTextInstance.cpp

; 45   : 		m_pCharInfoVector.push_back(pInsCharInfo);

  00041	8d 4b 4c	 lea	 ecx, DWORD PTR [ebx+76]
; File C:\Program Files (x86)\Microsoft Visual Studio\2019\Community\VC\Tools\MSVC\14.28.29333\include\vector

; 704  :         if (_Mylast != _My_data._Myend) {

  00044	3b 41 08	 cmp	 eax, DWORD PTR [ecx+8]
  00047	74 08		 je	 SHORT $LN16@DrawCharac

; 687  :         _Alty_traits::construct(_Getal(), _Unfancy(_Mylast), _STD forward<_Valty>(_Val)...);

  00049	89 38		 mov	 DWORD PTR [eax], edi

; 688  :         _Orphan_range(_Mylast, _Mylast);
; 689  :         _Ty& _Result = *_Mylast;
; 690  :         ++_Mylast;

  0004b	83 41 04 04	 add	 DWORD PTR [ecx+4], 4

; 705  :             return _Emplace_back_with_unused_capacity(_STD forward<_Valty>(_Val)...);

  0004f	eb 0a		 jmp	 SHORT $LN15@DrawCharac
$LN16@DrawCharac:

; 706  :         }
; 707  : 
; 708  :         _Ty& _Result = *_Emplace_reallocate(_Mylast, _STD forward<_Valty>(_Val)...);

  00051	8d 55 10	 lea	 edx, DWORD PTR _pInsCharInfo$[ebp]
  00054	52		 push	 edx
  00055	50		 push	 eax
  00056	e8 00 00 00 00	 call	 ??$_Emplace_reallocate@ABQAUSCharacterInfomation@CGraphicFontTexture@@@?$vector@PAUSCharacterInfomation@CGraphicFontTexture@@V?$allocator@PAUSCharacterInfomation@CGraphicFontTexture@@@std@@@std@@QAEPAPAUSCharacterInfomation@CGraphicFontTexture@@QAPAU23@ABQAU23@@Z ; std::vector<CGraphicFontTexture::SCharacterInfomation *,std::allocator<CGraphicFontTexture::SCharacterInfomation *> >::_Emplace_reallocate<CGraphicFontTexture::SCharacterInfomation * const &>
$LN15@DrawCharac:
; File D:\Metin2 Server Files\mainline\SRC_2014\Metin2Client\EterLib\GrpTextInstance.cpp

; 47   : 		m_textWidth += pInsCharInfo->advance;

  0005b	0f b7 43 0c	 movzx	 eax, WORD PTR [ebx+12]

; 48   : 		m_textHeight = max(pInsCharInfo->height, m_textHeight);

  0005f	0f b7 4b 0e	 movzx	 ecx, WORD PTR [ebx+14]
  00063	56		 push	 esi
  00064	66 0f 6e c0	 movd	 xmm0, eax
  00068	0f 5b c0	 cvtdq2ps xmm0, xmm0
  0006b	f3 0f 58 47 18	 addss	 xmm0, DWORD PTR [edi+24]
  00070	f3 0f 2c c0	 cvttss2si eax, xmm0
  00074	66 89 43 0c	 mov	 WORD PTR [ebx+12], ax
  00078	8b c1		 mov	 eax, ecx
  0007a	0f bf 77 04	 movsx	 esi, WORD PTR [edi+4]
  0007e	3b f1		 cmp	 esi, ecx
  00080	0f b7 d6	 movzx	 edx, si

; 49   : 		return pInsCharInfo->advance;

  00083	5e		 pop	 esi
  00084	0f 4e d0	 cmovle	 edx, eax
  00087	66 89 53 0e	 mov	 WORD PTR [ebx+14], dx
  0008b	f3 0f 2c 47 18	 cvttss2si eax, DWORD PTR [edi+24]
  00090	5f		 pop	 edi

; 53   : }

  00091	5b		 pop	 ebx
  00092	5d		 pop	 ebp
  00093	c2 10 00	 ret	 16			; 00000010H
$LN2@DrawCharac:
  00096	5f		 pop	 edi

; 50   : 	}
; 51   : 	
; 52   : 	return 0;

  00097	33 c0		 xor	 eax, eax

; 53   : }

  00099	5b		 pop	 ebx
  0009a	5d		 pop	 ebp
  0009b	c2 10 00	 ret	 16			; 00000010H
?__DrawCharacter@CGraphicTextInstance@@IAEHPAVCGraphicFontTexture@@G_WK@Z ENDP ; CGraphicTextInstance::__DrawCharacter
_TEXT	ENDS
; Function compile flags: /Ogtp
; File D:\Metin2 Server Files\mainline\SRC_2014\Metin2Client\EterLib\GrpTextInstance.cpp
; File D:\Metin2 Server Files\mainline\SRC_2014\Metin2Client\EterLib\Ref.h
; File D:\Metin2 Server Files\mainline\SRC_2014\Metin2Client\EterLib\GrpTextInstance.cpp
;	COMDAT ?__Initialize@CGraphicTextInstance@@IAEXXZ
_TEXT	SEGMENT
?__Initialize@CGraphicTextInstance@@IAEXXZ PROC		; CGraphicTextInstance::__Initialize, COMDAT
; _this$ = ecx

; 1106 : {

  00000	56		 push	 esi
  00001	8b f1		 mov	 esi, ecx
; File D:\Metin2 Server Files\mainline\SRC_2014\Metin2Client\EterLib\Ref.h

; 67   : 			CReferenceObject* pOldObject = m_pObject;

  00003	8b 4e 48	 mov	 ecx, DWORD PTR [esi+72]

; 68   : 
; 69   : 			m_pObject = pObject;

  00006	c7 46 48 00 00
	00 00		 mov	 DWORD PTR [esi+72], 0

; 70   : 
; 71   : 			if (m_pObject)
; 72   : 				m_pObject->AddReference();
; 73   : 
; 74   : 			if (pOldObject)

  0000d	85 c9		 test	 ecx, ecx
  0000f	74 05		 je	 SHORT $LN7@Initialize

; 75   : 				pOldObject->Release();

  00011	e8 00 00 00 00	 call	 ?Release@CReferenceObject@@QAEXXZ ; CReferenceObject::Release
$LN7@Initialize:
; File D:\Metin2 Server Files\mainline\SRC_2014\Metin2Client\EterLib\GrpTextInstance.cpp

; 1124 : 	m_textWidth = 0;

  00016	33 c0		 xor	 eax, eax
  00018	c7 46 10 01 10
	00 00		 mov	 DWORD PTR [esi+16], 4097 ; 00001001H
  0001f	c7 46 14 00 00
	c8 44		 mov	 DWORD PTR [esi+20], 1153957888 ; 44c80000H
  00026	c7 46 18 00 00
	00 00		 mov	 DWORD PTR [esi+24], 0
  0002d	c7 46 1c 00 00
	00 3f		 mov	 DWORD PTR [esi+28], 1056964608 ; 3f000000H
  00034	c6 46 44 00	 mov	 BYTE PTR [esi+68], 0
  00038	89 46 0c	 mov	 DWORD PTR [esi+12], eax

; 1125 : 	m_textHeight = 0;
; 1126 : 
; 1127 : 	m_v3Position.x = m_v3Position.y = m_v3Position.z = 0.0f;

  0003b	89 46 40	 mov	 DWORD PTR [esi+64], eax
  0003e	89 46 3c	 mov	 DWORD PTR [esi+60], eax
  00041	89 46 38	 mov	 DWORD PTR [esi+56], eax

; 1128 : 
; 1129 : 	m_dwOutLineColor=0xff000000;

  00044	c7 46 08 00 00
	00 ff		 mov	 DWORD PTR [esi+8], -16777216 ; ff000000H
  0004b	5e		 pop	 esi

; 1130 : }

  0004c	c3		 ret	 0
?__Initialize@CGraphicTextInstance@@IAEXXZ ENDP		; CGraphicTextInstance::__Initialize
_TEXT	ENDS
; Function compile flags: /Ogtp
; File D:\Metin2 Server Files\mainline\SRC_2014\Metin2Client\EterLib\GrpTextInstance.cpp
;	COMDAT ?GetHorizontalAlign@CGraphicTextInstance@@QAEHXZ
_TEXT	SEGMENT
?GetHorizontalAlign@CGraphicTextInstance@@QAEHXZ PROC	; CGraphicTextInstance::GetHorizontalAlign, COMDAT
; _this$ = ecx

; 1102 : 	return m_hAlign;

  00000	0f b6 41 10	 movzx	 eax, BYTE PTR [ecx+16]

; 1103 : }

  00004	c3		 ret	 0
?GetHorizontalAlign@CGraphicTextInstance@@QAEHXZ ENDP	; CGraphicTextInstance::GetHorizontalAlign
_TEXT	ENDS
; Function compile flags: /Ogtp
; File D:\Metin2 Server Files\mainline\SRC_2014\Metin2Client\EterLib\GrpTextInstance.cpp
; File C:\Program Files (x86)\Microsoft Visual Studio\2019\Community\VC\Tools\MSVC\14.28.29333\include\vector
; File D:\Metin2 Server Files\mainline\SRC_2014\Metin2Client\EterLib\GrpTextInstance.cpp
; File C:\Program Files (x86)\Microsoft Visual Studio\2019\Community\VC\Tools\MSVC\14.28.29333\include\vector
; File D:\Metin2 Server Files\mainline\SRC_2014\Metin2Client\EterLib\GrpTextInstance.cpp
; File C:\Program Files (x86)\Microsoft Visual Studio\2019\Community\VC\Tools\MSVC\14.28.29333\include\vector
; File D:\Metin2 Server Files\mainline\SRC_2014\Metin2Client\EterLib\GrpTextInstance.cpp
;	COMDAT ?PixelPositionToCharacterPosition@CGraphicTextInstance@@QAEHH@Z
_TEXT	SEGMENT
_iPixelPosition$ = 8					; size = 4
?PixelPositionToCharacterPosition@CGraphicTextInstance@@QAEHH@Z PROC ; CGraphicTextInstance::PixelPositionToCharacterPosition, COMDAT
; _this$ = ecx

; 1086 : {

  00000	55		 push	 ebp
  00001	8b ec		 mov	 ebp, esp
; File C:\Program Files (x86)\Microsoft Visual Studio\2019\Community\VC\Tools\MSVC\14.28.29333\include\vector

; 1484 :         return static_cast<size_type>(_My_data._Mylast - _My_data._Myfirst);

  00003	8b 51 4c	 mov	 edx, DWORD PTR [ecx+76]
; File D:\Metin2 Server Files\mainline\SRC_2014\Metin2Client\EterLib\GrpTextInstance.cpp

; 1088 : 	for (int i = 0; i < (int)m_pCharInfoVector.size(); ++i)

  00006	33 c0		 xor	 eax, eax
  00008	53		 push	 ebx
  00009	56		 push	 esi
  0000a	57		 push	 edi
; File C:\Program Files (x86)\Microsoft Visual Studio\2019\Community\VC\Tools\MSVC\14.28.29333\include\vector

; 1484 :         return static_cast<size_type>(_My_data._Mylast - _My_data._Myfirst);

  0000b	8b 79 50	 mov	 edi, DWORD PTR [ecx+80]
; File D:\Metin2 Server Files\mainline\SRC_2014\Metin2Client\EterLib\GrpTextInstance.cpp

; 1087 : 	int icurPosition = 0;

  0000e	33 f6		 xor	 esi, esi
; File C:\Program Files (x86)\Microsoft Visual Studio\2019\Community\VC\Tools\MSVC\14.28.29333\include\vector

; 1484 :         return static_cast<size_type>(_My_data._Mylast - _My_data._Myfirst);

  00010	2b fa		 sub	 edi, edx
  00012	c1 ff 02	 sar	 edi, 2
; File D:\Metin2 Server Files\mainline\SRC_2014\Metin2Client\EterLib\GrpTextInstance.cpp

; 1088 : 	for (int i = 0; i < (int)m_pCharInfoVector.size(); ++i)

  00015	85 ff		 test	 edi, edi
  00017	7e 1b		 jle	 SHORT $LN3@PixelPosit
  00019	8b 5d 08	 mov	 ebx, DWORD PTR _iPixelPosition$[ebp]
  0001c	0f 1f 40 00	 npad	 4
$LL4@PixelPosit:

; 1089 : 	{
; 1090 : 		CGraphicFontTexture::TCharacterInfomation* pCurCharInfo = m_pCharInfoVector[i];
; 1091 : 		icurPosition += pCurCharInfo->width;

  00020	8b 0a		 mov	 ecx, DWORD PTR [edx]
  00022	0f bf 49 02	 movsx	 ecx, WORD PTR [ecx+2]
  00026	03 f1		 add	 esi, ecx

; 1092 : 
; 1093 : 		if (iPixelPosition < icurPosition)

  00028	3b de		 cmp	 ebx, esi
  0002a	7c 0b		 jl	 SHORT $LN1@PixelPosit

; 1088 : 	for (int i = 0; i < (int)m_pCharInfoVector.size(); ++i)

  0002c	40		 inc	 eax
  0002d	83 c2 04	 add	 edx, 4
  00030	3b c7		 cmp	 eax, edi
  00032	7c ec		 jl	 SHORT $LL4@PixelPosit
$LN3@PixelPosit:

; 1094 : 			return i;
; 1095 : 	}
; 1096 : 
; 1097 : 	return -1;

  00034	83 c8 ff	 or	 eax, -1
$LN1@PixelPosit:
  00037	5f		 pop	 edi

; 1098 : }

  00038	5e		 pop	 esi
  00039	5b		 pop	 ebx
  0003a	5d		 pop	 ebp
  0003b	c2 04 00	 ret	 4
?PixelPositionToCharacterPosition@CGraphicTextInstance@@QAEHH@Z ENDP ; CGraphicTextInstance::PixelPositionToCharacterPosition
_TEXT	ENDS
; Function compile flags: /Ogtp
; File D:\Metin2 Server Files\mainline\SRC_2014\Metin2Client\EterLib\GrpTextInstance.cpp
; File C:\Program Files (x86)\Microsoft Visual Studio\2019\Community\VC\Tools\MSVC\14.28.29333\include\vector
; File D:\Metin2 Server Files\mainline\SRC_2014\Metin2Client\EterLib\GrpTextInstance.cpp
; File C:\Program Files (x86)\Microsoft Visual Studio\2019\Community\VC\Tools\MSVC\14.28.29333\include\vector
; File D:\Metin2 Server Files\mainline\SRC_2014\Metin2Client\EterLib\GrpTextInstance.cpp
; File C:\Program Files (x86)\Microsoft Visual Studio\2019\Community\VC\Tools\MSVC\14.28.29333\include\vector
; File D:\Metin2 Server Files\mainline\SRC_2014\Metin2Client\EterLib\GrpTextInstance.cpp
; File C:\Program Files (x86)\Microsoft Visual Studio\2019\Community\VC\Tools\MSVC\14.28.29333\include\vector
; File D:\Metin2 Server Files\mainline\SRC_2014\Metin2Client\EterLib\GrpTextInstance.cpp
;	COMDAT ?GetTextLineCount@CGraphicTextInstance@@QAEGXZ
_TEXT	SEGMENT
?GetTextLineCount@CGraphicTextInstance@@QAEGXZ PROC	; CGraphicTextInstance::GetTextLineCount, COMDAT
; _this$ = ecx
; File C:\Program Files (x86)\Microsoft Visual Studio\2019\Community\VC\Tools\MSVC\14.28.29333\include\vector

; 42   :     _Vector_const_iterator(_Tptr _Parg, const _Container_base* _Pvector) noexcept : _Ptr(_Parg) {

  00000	8b 41 4c	 mov	 eax, DWORD PTR [ecx+76]
  00003	0f 57 c0	 xorps	 xmm0, xmm0
  00006	8b 51 50	 mov	 edx, DWORD PTR [ecx+80]
; File D:\Metin2 Server Files\mainline\SRC_2014\Metin2Client\EterLib\GrpTextInstance.cpp

; 1052 : {

  00009	57		 push	 edi

; 1053 : 	CGraphicFontTexture::TCharacterInfomation* pCurCharInfo;
; 1054 : 	CGraphicFontTexture::TPCharacterInfomationVector::iterator itor;
; 1055 : 
; 1056 : 	float fx = 0.0f;
; 1057 : 	WORD wLineCount = 1;

  0000a	bf 01 00 00 00	 mov	 edi, 1
; File C:\Program Files (x86)\Microsoft Visual Studio\2019\Community\VC\Tools\MSVC\14.28.29333\include\vector

; 42   :     _Vector_const_iterator(_Tptr _Parg, const _Container_base* _Pvector) noexcept : _Ptr(_Parg) {

  0000f	3b c2		 cmp	 eax, edx
; File D:\Metin2 Server Files\mainline\SRC_2014\Metin2Client\EterLib\GrpTextInstance.cpp

; 1058 : 	for (itor=m_pCharInfoVector.begin(); itor!=m_pCharInfoVector.end(); ++itor)

  00011	74 4e		 je	 SHORT $LN35@GetTextLin

; 1064 : 		//float fFontHeight=float(pCurCharInfo->height);
; 1065 : 
; 1066 : 		// NOTE :   Width  . - [levites]
; 1067 : 		if (fx+fFontWidth > m_fLimitWidth)

  00013	f3 0f 10 59 14	 movss	 xmm3, DWORD PTR [ecx+20]
  00018	56		 push	 esi
  00019	0f 1f 80 00 00
	00 00		 npad	 7
$LL20@GetTextLin:

; 1059 : 	{
; 1060 : 		pCurCharInfo = *itor;
; 1061 : 
; 1062 : 		float fFontWidth=float(pCurCharInfo->width);
; 1063 : 		float fFontAdvance=float(pCurCharInfo->advance);

  00020	8b 08		 mov	 ecx, DWORD PTR [eax]
  00022	f3 0f 10 51 18	 movss	 xmm2, DWORD PTR [ecx+24]

; 1064 : 		//float fFontHeight=float(pCurCharInfo->height);
; 1065 : 
; 1066 : 		// NOTE :   Width  . - [levites]
; 1067 : 		if (fx+fFontWidth > m_fLimitWidth)

  00027	0f bf 49 02	 movsx	 ecx, WORD PTR [ecx+2]
  0002b	66 0f 6e c9	 movd	 xmm1, ecx
  0002f	0f 5b c9	 cvtdq2ps xmm1, xmm1
  00032	f3 0f 58 c8	 addss	 xmm1, xmm0
  00036	0f 2f cb	 comiss	 xmm1, xmm3
  00039	76 03		 jbe	 SHORT $LN5@GetTextLin
  0003b	0f 57 c0	 xorps	 xmm0, xmm0
$LN5@GetTextLin:

; 1073 : 		fx += fFontAdvance;

  0003e	8d 4f 01	 lea	 ecx, DWORD PTR [edi+1]
  00041	0f b7 f1	 movzx	 esi, cx
  00044	f3 0f 58 c2	 addss	 xmm0, xmm2
  00048	0f b7 cf	 movzx	 ecx, di
  0004b	0f 46 f1	 cmovbe	 esi, ecx
; File C:\Program Files (x86)\Microsoft Visual Studio\2019\Community\VC\Tools\MSVC\14.28.29333\include\vector

; 75   :         ++_Ptr;

  0004e	83 c0 04	 add	 eax, 4
; File D:\Metin2 Server Files\mainline\SRC_2014\Metin2Client\EterLib\GrpTextInstance.cpp

; 1073 : 		fx += fFontAdvance;

  00051	0f b7 ce	 movzx	 ecx, si
  00054	8b f1		 mov	 esi, ecx
; File C:\Program Files (x86)\Microsoft Visual Studio\2019\Community\VC\Tools\MSVC\14.28.29333\include\vector

; 42   :     _Vector_const_iterator(_Tptr _Parg, const _Container_base* _Pvector) noexcept : _Ptr(_Parg) {

  00056	8b f9		 mov	 edi, ecx

; 149  :         return _Ptr == _Right._Ptr;

  00058	3b c2		 cmp	 eax, edx
; File D:\Metin2 Server Files\mainline\SRC_2014\Metin2Client\EterLib\GrpTextInstance.cpp

; 1058 : 	for (itor=m_pCharInfoVector.begin(); itor!=m_pCharInfoVector.end(); ++itor)

  0005a	75 c4		 jne	 SHORT $LL20@GetTextLin

; 1074 : 	}
; 1075 : 
; 1076 : 	return wLineCount;

  0005c	8b c6		 mov	 eax, esi
  0005e	5e		 pop	 esi
  0005f	5f		 pop	 edi

; 1077 : }

  00060	c3		 ret	 0
$LN35@GetTextLin:

; 1074 : 	}
; 1075 : 
; 1076 : 	return wLineCount;

  00061	66 8b c7	 mov	 ax, di
  00064	5f		 pop	 edi

; 1077 : }

  00065	c3		 ret	 0
?GetTextLineCount@CGraphicTextInstance@@QAEGXZ ENDP	; CGraphicTextInstance::GetTextLineCount
_TEXT	ENDS
; Function compile flags: /Ogtp
; File D:\Metin2 Server Files\mainline\SRC_2014\Metin2Client\EterLib\GrpTextInstance.cpp
;	COMDAT ?GetValueStringReference@CGraphicTextInstance@@QAEABV?$basic_string@DU?$char_traits@D@std@@V?$allocator@D@2@@std@@XZ
_TEXT	SEGMENT
?GetValueStringReference@CGraphicTextInstance@@QAEABV?$basic_string@DU?$char_traits@D@std@@V?$allocator@D@2@@std@@XZ PROC ; CGraphicTextInstance::GetValueStringReference, COMDAT
; _this$ = ecx

; 1048 : 	return m_stText;

  00000	8d 41 20	 lea	 eax, DWORD PTR [ecx+32]

; 1049 : }

  00003	c3		 ret	 0
?GetValueStringReference@CGraphicTextInstance@@QAEABV?$basic_string@DU?$char_traits@D@std@@V?$allocator@D@2@@std@@XZ ENDP ; CGraphicTextInstance::GetValueStringReference
_TEXT	ENDS
; Function compile flags: /Ogtp
; File D:\Metin2 Server Files\mainline\SRC_2014\Metin2Client\EterLib\GrpTextInstance.cpp
;	COMDAT ?GetTextSize@CGraphicTextInstance@@QAEXPAH0@Z
_TEXT	SEGMENT
_pRetWidth$ = 8						; size = 4
_pRetHeight$ = 12					; size = 4
?GetTextSize@CGraphicTextInstance@@QAEXPAH0@Z PROC	; CGraphicTextInstance::GetTextSize, COMDAT
; _this$ = ecx

; 1080 : {

  00000	55		 push	 ebp
  00001	8b ec		 mov	 ebp, esp

; 1081 : 	*pRetWidth = m_textWidth;

  00003	8b 45 08	 mov	 eax, DWORD PTR _pRetWidth$[ebp]
  00006	0f b7 51 0c	 movzx	 edx, WORD PTR [ecx+12]
  0000a	89 10		 mov	 DWORD PTR [eax], edx

; 1082 : 	*pRetHeight = m_textHeight;

  0000c	8b 45 0c	 mov	 eax, DWORD PTR _pRetHeight$[ebp]
  0000f	0f b7 49 0e	 movzx	 ecx, WORD PTR [ecx+14]
  00013	89 08		 mov	 DWORD PTR [eax], ecx

; 1083 : }

  00015	5d		 pop	 ebp
  00016	c2 08 00	 ret	 8
?GetTextSize@CGraphicTextInstance@@QAEXPAH0@Z ENDP	; CGraphicTextInstance::GetTextSize
_TEXT	ENDS
; Function compile flags: /Ogtp
; File D:\Metin2 Server Files\mainline\SRC_2014\Metin2Client\EterLib\GrpTextInstance.cpp
;	COMDAT ?SetLimitWidth@CGraphicTextInstance@@QAEXM@Z
_TEXT	SEGMENT
_fWidth$ = 8						; size = 4
?SetLimitWidth@CGraphicTextInstance@@QAEXM@Z PROC	; CGraphicTextInstance::SetLimitWidth, COMDAT
; _this$ = ecx

; 1012 : {

  00000	55		 push	 ebp
  00001	8b ec		 mov	 ebp, esp

; 1013 : 	m_fLimitWidth = fWidth;

  00003	f3 0f 10 45 08	 movss	 xmm0, DWORD PTR _fWidth$[ebp]
  00008	f3 0f 11 41 14	 movss	 DWORD PTR [ecx+20], xmm0

; 1014 : }

  0000d	5d		 pop	 ebp
  0000e	c2 04 00	 ret	 4
?SetLimitWidth@CGraphicTextInstance@@QAEXM@Z ENDP	; CGraphicTextInstance::SetLimitWidth
_TEXT	ENDS
; Function compile flags: /Ogtp
; File D:\Metin2 Server Files\mainline\SRC_2014\Metin2Client\EterLib\GrpTextInstance.cpp
;	COMDAT ?SetMultiLine@CGraphicTextInstance@@QAEX_N@Z
_TEXT	SEGMENT
_Value$ = 8						; size = 1
?SetMultiLine@CGraphicTextInstance@@QAEX_N@Z PROC	; CGraphicTextInstance::SetMultiLine, COMDAT
; _this$ = ecx

; 992  : {

  00000	55		 push	 ebp
  00001	8b ec		 mov	 ebp, esp

; 993  : 	m_isMultiLine = Value;

  00003	8a 45 08	 mov	 al, BYTE PTR _Value$[ebp]
  00006	88 41 1a	 mov	 BYTE PTR [ecx+26], al

; 994  : }

  00009	5d		 pop	 ebp
  0000a	c2 04 00	 ret	 4
?SetMultiLine@CGraphicTextInstance@@QAEX_N@Z ENDP	; CGraphicTextInstance::SetMultiLine
_TEXT	ENDS
; Function compile flags: /Ogtp
; File D:\Metin2 Server Files\mainline\SRC_2014\Metin2Client\EterLib\GrpTextInstance.cpp
;	COMDAT ?SetFeather@CGraphicTextInstance@@QAEX_N@Z
_TEXT	SEGMENT
_Value$ = 8						; size = 1
?SetFeather@CGraphicTextInstance@@QAEX_N@Z PROC		; CGraphicTextInstance::SetFeather, COMDAT
; _this$ = ecx

; 980  : {

  00000	55		 push	 ebp
  00001	8b ec		 mov	 ebp, esp

; 981  : 	if (Value)

  00003	80 7d 08 00	 cmp	 BYTE PTR _Value$[ebp], 0
  00007	74 11		 je	 SHORT $LN2@SetFeather

; 982  : 	{
; 983  : 		m_fFontFeather = c_fFontFeather;

  00009	f3 0f 10 05 00
	00 00 00	 movss	 xmm0, DWORD PTR __real@3f000000

; 984  : 	}
; 985  : 	else
; 986  : 	{
; 987  : 		m_fFontFeather = 0.0f;
; 988  : 	}
; 989  : }

  00011	f3 0f 11 41 1c	 movss	 DWORD PTR [ecx+28], xmm0
  00016	5d		 pop	 ebp
  00017	c2 04 00	 ret	 4
$LN2@SetFeather:
  0001a	0f 57 c0	 xorps	 xmm0, xmm0
  0001d	f3 0f 11 41 1c	 movss	 DWORD PTR [ecx+28], xmm0
  00022	5d		 pop	 ebp
  00023	c2 04 00	 ret	 4
?SetFeather@CGraphicTextInstance@@QAEX_N@Z ENDP		; CGraphicTextInstance::SetFeather
_TEXT	ENDS
; Function compile flags: /Ogtp
; File D:\Metin2 Server Files\mainline\SRC_2014\Metin2Client\EterLib\GrpTextInstance.cpp
;	COMDAT ?SetOutline@CGraphicTextInstance@@QAEX_N@Z
_TEXT	SEGMENT
_Value$ = 8						; size = 1
?SetOutline@CGraphicTextInstance@@QAEX_N@Z PROC		; CGraphicTextInstance::SetOutline, COMDAT
; _this$ = ecx

; 975  : {

  00000	55		 push	 ebp
  00001	8b ec		 mov	 ebp, esp

; 976  : 	m_isOutline = Value;

  00003	8a 45 08	 mov	 al, BYTE PTR _Value$[ebp]
  00006	88 41 1b	 mov	 BYTE PTR [ecx+27], al

; 977  : }

  00009	5d		 pop	 ebp
  0000a	c2 04 00	 ret	 4
?SetOutline@CGraphicTextInstance@@QAEX_N@Z ENDP		; CGraphicTextInstance::SetOutline
_TEXT	ENDS
; Function compile flags: /Ogtp
; File D:\Metin2 Server Files\mainline\SRC_2014\Metin2Client\EterLib\GrpTextInstance.cpp
;	COMDAT ?SetSecret@CGraphicTextInstance@@QAEX_N@Z
_TEXT	SEGMENT
_Value$ = 8						; size = 1
?SetSecret@CGraphicTextInstance@@QAEX_N@Z PROC		; CGraphicTextInstance::SetSecret, COMDAT
; _this$ = ecx

; 970  : {

  00000	55		 push	 ebp
  00001	8b ec		 mov	 ebp, esp

; 971  : 	m_isSecret = Value;

  00003	8a 45 08	 mov	 al, BYTE PTR _Value$[ebp]
  00006	88 41 19	 mov	 BYTE PTR [ecx+25], al

; 972  : }

  00009	5d		 pop	 ebp
  0000a	c2 04 00	 ret	 4
?SetSecret@CGraphicTextInstance@@QAEX_N@Z ENDP		; CGraphicTextInstance::SetSecret
_TEXT	ENDS
; Function compile flags: /Ogtp
; File D:\Metin2 Server Files\mainline\SRC_2014\Metin2Client\EterLib\GrpTextInstance.cpp
;	COMDAT ?SetPosition@CGraphicTextInstance@@QAEXMMM@Z
_TEXT	SEGMENT
_fx$ = 8						; size = 4
_fy$ = 12						; size = 4
_fz$ = 16						; size = 4
?SetPosition@CGraphicTextInstance@@QAEXMMM@Z PROC	; CGraphicTextInstance::SetPosition, COMDAT
; _this$ = ecx

; 1035 : {

  00000	55		 push	 ebp
  00001	8b ec		 mov	 ebp, esp

; 1036 : 	m_v3Position.x = fx;

  00003	f3 0f 10 45 08	 movss	 xmm0, DWORD PTR _fx$[ebp]
  00008	f3 0f 11 41 38	 movss	 DWORD PTR [ecx+56], xmm0

; 1037 : 	m_v3Position.y = fy;

  0000d	f3 0f 10 45 0c	 movss	 xmm0, DWORD PTR _fy$[ebp]
  00012	f3 0f 11 41 3c	 movss	 DWORD PTR [ecx+60], xmm0

; 1038 : 	m_v3Position.z = fz;

  00017	f3 0f 10 45 10	 movss	 xmm0, DWORD PTR _fz$[ebp]
  0001c	f3 0f 11 41 40	 movss	 DWORD PTR [ecx+64], xmm0

; 1039 : }

  00021	5d		 pop	 ebp
  00022	c2 0c 00	 ret	 12			; 0000000cH
?SetPosition@CGraphicTextInstance@@QAEXMMM@Z ENDP	; CGraphicTextInstance::SetPosition
_TEXT	ENDS
; Function compile flags: /Ogtp
; File D:\Metin2 Server Files\mainline\SRC_2014\Metin2Client\EterLib\GrpTextInstance.cpp
; File C:\Program Files (x86)\Microsoft Visual Studio\2019\Community\VC\Tools\MSVC\14.28.29333\include\xstring
; File D:\Metin2 Server Files\mainline\SRC_2014\Metin2Client\EterLib\GrpTextInstance.cpp
; File C:\Program Files (x86)\Microsoft Visual Studio\2019\Community\VC\Tools\MSVC\14.28.29333\include\xstring
; File D:\Metin2 Server Files\mainline\SRC_2014\Metin2Client\EterLib\GrpTextInstance.cpp
; File C:\Program Files (x86)\Microsoft Visual Studio\2019\Community\VC\Tools\MSVC\14.28.29333\include\xstring
; File D:\Metin2 Server Files\mainline\SRC_2014\Metin2Client\EterLib\GrpTextInstance.cpp
;	COMDAT ?SetValue@CGraphicTextInstance@@QAEXPBDI@Z
_TEXT	SEGMENT
_c_szText$ = 8						; size = 4
_len$ = 12						; size = 4
?SetValue@CGraphicTextInstance@@QAEXPBDI@Z PROC		; CGraphicTextInstance::SetValue, COMDAT
; _this$ = ecx

; 1026 : {

  00000	55		 push	 ebp
  00001	8b ec		 mov	 ebp, esp
  00003	53		 push	 ebx
  00004	56		 push	 esi
  00005	57		 push	 edi
; File C:\Program Files (x86)\Microsoft Visual Studio\2019\Community\VC\Tools\MSVC\14.28.29333\include\xstring

; 389  :         return _CSTD strlen(reinterpret_cast<const char*>(_First));

  00006	8b 7d 08	 mov	 edi, DWORD PTR _c_szText$[ebp]
; File D:\Metin2 Server Files\mainline\SRC_2014\Metin2Client\EterLib\GrpTextInstance.cpp

; 1026 : {

  00009	8b d9		 mov	 ebx, ecx
; File C:\Program Files (x86)\Microsoft Visual Studio\2019\Community\VC\Tools\MSVC\14.28.29333\include\xstring

; 389  :         return _CSTD strlen(reinterpret_cast<const char*>(_First));

  0000b	8b d7		 mov	 edx, edi
  0000d	8d 4a 01	 lea	 ecx, DWORD PTR [edx+1]
$LL19@SetValue:
  00010	8a 02		 mov	 al, BYTE PTR [edx]
  00012	42		 inc	 edx
  00013	84 c0		 test	 al, al
  00015	75 f9		 jne	 SHORT $LL19@SetValue
  00017	2b d1		 sub	 edx, ecx

; 2218 :         const value_type* _Result = _Bx._Buf;

  00019	8d 43 20	 lea	 eax, DWORD PTR [ebx+32]

; 2227 :         return _BUF_SIZE <= _Myres;

  0001c	83 7b 34 10	 cmp	 DWORD PTR [ebx+52], 16	; 00000010H

; 2219 :         if (_Large_string_engaged()) {

  00020	72 03		 jb	 SHORT $LN9@SetValue

; 2220 :             _Result = _Unfancy(_Bx._Ptr);

  00022	8b 43 20	 mov	 eax, DWORD PTR [ebx+32]
$LN9@SetValue:

; 4235 :         return _Traits_compare<_Traits>(_Mypair._Myval2._Myptr(), _Mypair._Myval2._Mysize, _Ptr, _Traits::length(_Ptr));

  00025	52		 push	 edx
  00026	57		 push	 edi
  00027	ff 73 30	 push	 DWORD PTR [ebx+48]
  0002a	50		 push	 eax
  0002b	e8 00 00 00 00	 call	 ??$_Traits_compare@U?$char_traits@D@std@@@std@@YAHQBDI0I@Z ; std::_Traits_compare<std::char_traits<char> >
  00030	83 c4 10	 add	 esp, 16			; 00000010H
; File D:\Metin2 Server Files\mainline\SRC_2014\Metin2Client\EterLib\GrpTextInstance.cpp

; 1027 : 	if (0 == m_stText.compare(c_szText))

  00033	85 c0		 test	 eax, eax
  00035	74 20		 je	 SHORT $LN1@SetValue
; File C:\Program Files (x86)\Microsoft Visual Studio\2019\Community\VC\Tools\MSVC\14.28.29333\include\xstring

; 389  :         return _CSTD strlen(reinterpret_cast<const char*>(_First));

  00037	8b d7		 mov	 edx, edi
  00039	8d 4a 01	 lea	 ecx, DWORD PTR [edx+1]
  0003c	0f 1f 40 00	 npad	 4
$LL20@SetValue:
  00040	8a 02		 mov	 al, BYTE PTR [edx]
  00042	42		 inc	 edx
  00043	84 c0		 test	 al, al
  00045	75 f9		 jne	 SHORT $LL20@SetValue
  00047	2b d1		 sub	 edx, ecx

; 3062 :         return assign(_Ptr, _Convert_size<size_type>(_Traits::length(_Ptr)));

  00049	8d 4b 20	 lea	 ecx, DWORD PTR [ebx+32]
  0004c	52		 push	 edx
  0004d	57		 push	 edi
  0004e	e8 00 00 00 00	 call	 ?assign@?$basic_string@DU?$char_traits@D@std@@V?$allocator@D@2@@std@@QAEAAV12@QBDI@Z ; std::basic_string<char,std::char_traits<char>,std::allocator<char> >::assign
; File D:\Metin2 Server Files\mainline\SRC_2014\Metin2Client\EterLib\GrpTextInstance.cpp

; 1031 : 	m_isUpdate = false;

  00053	c6 43 44 00	 mov	 BYTE PTR [ebx+68], 0
$LN1@SetValue:

; 1032 : }

  00057	5f		 pop	 edi
  00058	5e		 pop	 esi
  00059	5b		 pop	 ebx
  0005a	5d		 pop	 ebp
  0005b	c2 08 00	 ret	 8
?SetValue@CGraphicTextInstance@@QAEXPBDI@Z ENDP		; CGraphicTextInstance::SetValue
_TEXT	ENDS
; Function compile flags: /Ogtp
; File D:\Metin2 Server Files\mainline\SRC_2014\Metin2Client\EterLib\GrpTextInstance.cpp
; File C:\Program Files (x86)\Microsoft Visual Studio\2019\Community\VC\Tools\MSVC\14.28.29333\include\xstring
; File D:\Metin2 Server Files\mainline\SRC_2014\Metin2Client\EterLib\GrpTextInstance.cpp
; File C:\Program Files (x86)\Microsoft Visual Studio\2019\Community\VC\Tools\MSVC\14.28.29333\include\xstring
; File D:\Metin2 Server Files\mainline\SRC_2014\Metin2Client\EterLib\GrpTextInstance.cpp
; File C:\Program Files (x86)\Microsoft Visual Studio\2019\Community\VC\Tools\MSVC\14.28.29333\include\xstring
; File D:\Metin2 Server Files\mainline\SRC_2014\Metin2Client\EterLib\GrpTextInstance.cpp
; File C:\Program Files (x86)\Microsoft Visual Studio\2019\Community\VC\Tools\MSVC\14.28.29333\include\xstring
; File D:\Metin2 Server Files\mainline\SRC_2014\Metin2Client\EterLib\GrpTextInstance.cpp
;	COMDAT ?SetValueString@CGraphicTextInstance@@QAEXABV?$basic_string@DU?$char_traits@D@std@@V?$allocator@D@2@@std@@@Z
_TEXT	SEGMENT
tv288 = 8						; size = 4
_c_stValue$ = 8						; size = 4
?SetValueString@CGraphicTextInstance@@QAEXABV?$basic_string@DU?$char_traits@D@std@@V?$allocator@D@2@@std@@@Z PROC ; CGraphicTextInstance::SetValueString, COMDAT
; _this$ = ecx

; 1017 : {

  00000	55		 push	 ebp
  00001	8b ec		 mov	 ebp, esp
  00003	53		 push	 ebx
  00004	56		 push	 esi
; File C:\Program Files (x86)\Microsoft Visual Studio\2019\Community\VC\Tools\MSVC\14.28.29333\include\xstring

; 2218 :         const value_type* _Result = _Bx._Buf;

  00005	8b 75 08	 mov	 esi, DWORD PTR _c_stValue$[ebp]
; File D:\Metin2 Server Files\mainline\SRC_2014\Metin2Client\EterLib\GrpTextInstance.cpp

; 1017 : {

  00008	8b d9		 mov	 ebx, ecx
  0000a	57		 push	 edi
; File C:\Program Files (x86)\Microsoft Visual Studio\2019\Community\VC\Tools\MSVC\14.28.29333\include\xstring

; 2218 :         const value_type* _Result = _Bx._Buf;

  0000b	8b ce		 mov	 ecx, esi

; 2227 :         return _BUF_SIZE <= _Myres;

  0000d	83 7e 14 10	 cmp	 DWORD PTR [esi+20], 16	; 00000010H
; File D:\Metin2 Server Files\mainline\SRC_2014\Metin2Client\EterLib\GrpTextInstance.cpp

; 1018 : 	if (0 == m_stText.compare(c_stValue))

  00011	8d 7b 20	 lea	 edi, DWORD PTR [ebx+32]
; File C:\Program Files (x86)\Microsoft Visual Studio\2019\Community\VC\Tools\MSVC\14.28.29333\include\xstring

; 2219 :         if (_Large_string_engaged()) {

  00014	72 02		 jb	 SHORT $LN27@SetValueSt

; 2220 :             _Result = _Unfancy(_Bx._Ptr);

  00016	8b 0e		 mov	 ecx, DWORD PTR [esi]
$LN27@SetValueSt:

; 2227 :         return _BUF_SIZE <= _Myres;

  00018	83 7f 14 10	 cmp	 DWORD PTR [edi+20], 16	; 00000010H

; 2218 :         const value_type* _Result = _Bx._Buf;

  0001c	8b c7		 mov	 eax, edi

; 2219 :         if (_Large_string_engaged()) {

  0001e	72 02		 jb	 SHORT $LN12@SetValueSt

; 2220 :             _Result = _Unfancy(_Bx._Ptr);

  00020	8b 07		 mov	 eax, DWORD PTR [edi]
$LN12@SetValueSt:

; 4213 :         return _Traits_compare<_Traits>(_Mypair._Myval2._Myptr(), _Mypair._Myval2._Mysize,

  00022	8b 56 10	 mov	 edx, DWORD PTR [esi+16]
  00025	52		 push	 edx
  00026	51		 push	 ecx
  00027	ff 77 10	 push	 DWORD PTR [edi+16]
  0002a	89 55 08	 mov	 DWORD PTR tv288[ebp], edx
  0002d	50		 push	 eax
  0002e	e8 00 00 00 00	 call	 ??$_Traits_compare@U?$char_traits@D@std@@@std@@YAHQBDI0I@Z ; std::_Traits_compare<std::char_traits<char> >
  00033	83 c4 10	 add	 esp, 16			; 00000010H
; File D:\Metin2 Server Files\mainline\SRC_2014\Metin2Client\EterLib\GrpTextInstance.cpp

; 1018 : 	if (0 == m_stText.compare(c_stValue))

  00036	85 c0		 test	 eax, eax
  00038	74 1b		 je	 SHORT $LN1@SetValueSt
; File C:\Program Files (x86)\Microsoft Visual Studio\2019\Community\VC\Tools\MSVC\14.28.29333\include\xstring

; 2863 :         if (this != _STD addressof(_Right)) {

  0003a	3b fe		 cmp	 edi, esi
  0003c	74 13		 je	 SHORT $LN17@SetValueSt

; 2227 :         return _BUF_SIZE <= _Myres;

  0003e	83 7e 14 10	 cmp	 DWORD PTR [esi+20], 16	; 00000010H

; 2219 :         if (_Large_string_engaged()) {

  00042	72 02		 jb	 SHORT $LN22@SetValueSt

; 2220 :             _Result = _Unfancy(_Bx._Ptr);

  00044	8b 36		 mov	 esi, DWORD PTR [esi]
$LN22@SetValueSt:

; 2828 :         assign(_Right._Mypair._Myval2._Myptr(), _Right._Mypair._Myval2._Mysize);

  00046	ff 75 08	 push	 DWORD PTR tv288[ebp]
  00049	8b cf		 mov	 ecx, edi
  0004b	56		 push	 esi
  0004c	e8 00 00 00 00	 call	 ?assign@?$basic_string@DU?$char_traits@D@std@@V?$allocator@D@2@@std@@QAEAAV12@QBDI@Z ; std::basic_string<char,std::char_traits<char>,std::allocator<char> >::assign
$LN17@SetValueSt:
; File D:\Metin2 Server Files\mainline\SRC_2014\Metin2Client\EterLib\GrpTextInstance.cpp

; 1022 : 	m_isUpdate = false;

  00051	c6 43 44 00	 mov	 BYTE PTR [ebx+68], 0
$LN1@SetValueSt:
  00055	5f		 pop	 edi

; 1023 : }

  00056	5e		 pop	 esi
  00057	5b		 pop	 ebx
  00058	5d		 pop	 ebp
  00059	c2 04 00	 ret	 4
?SetValueString@CGraphicTextInstance@@QAEXABV?$basic_string@DU?$char_traits@D@std@@V?$allocator@D@2@@std@@@Z ENDP ; CGraphicTextInstance::SetValueString
_TEXT	ENDS
; Function compile flags: /Ogtp
; File D:\Metin2 Server Files\mainline\SRC_2014\Metin2Client\EterLib\GrpTextInstance.cpp
; File D:\Metin2 Server Files\mainline\SRC_2014\Metin2Client\EterLib\Ref.h
; File D:\Metin2 Server Files\mainline\SRC_2014\Metin2Client\EterLib\GrpTextInstance.cpp
; File D:\Metin2 Server Files\mainline\SRC_2014\Metin2Client\EterLib\Ref.h
; File D:\Metin2 Server Files\mainline\SRC_2014\Metin2Client\EterLib\GrpTextInstance.cpp
;	COMDAT ?SetTextPointer@CGraphicTextInstance@@QAEXPAVCGraphicText@@@Z
_TEXT	SEGMENT
_pText$ = 8						; size = 4
?SetTextPointer@CGraphicTextInstance@@QAEXPAVCGraphicText@@@Z PROC ; CGraphicTextInstance::SetTextPointer, COMDAT
; _this$ = ecx

; 1042 : {

  00000	55		 push	 ebp
  00001	8b ec		 mov	 ebp, esp
; File D:\Metin2 Server Files\mainline\SRC_2014\Metin2Client\EterLib\Ref.h

; 69   : 			m_pObject = pObject;

  00003	8b 45 08	 mov	 eax, DWORD PTR _pText$[ebp]
; File D:\Metin2 Server Files\mainline\SRC_2014\Metin2Client\EterLib\GrpTextInstance.cpp

; 1042 : {

  00006	56		 push	 esi
; File D:\Metin2 Server Files\mainline\SRC_2014\Metin2Client\EterLib\Ref.h

; 67   : 			CReferenceObject* pOldObject = m_pObject;

  00007	8b 71 48	 mov	 esi, DWORD PTR [ecx+72]

; 69   : 			m_pObject = pObject;

  0000a	89 41 48	 mov	 DWORD PTR [ecx+72], eax

; 70   : 
; 71   : 			if (m_pObject)

  0000d	85 c0		 test	 eax, eax
  0000f	74 07		 je	 SHORT $LN6@SetTextPoi

; 72   : 				m_pObject->AddReference();

  00011	8b c8		 mov	 ecx, eax
  00013	e8 00 00 00 00	 call	 ?AddReference@CReferenceObject@@QAEXXZ ; CReferenceObject::AddReference
$LN6@SetTextPoi:

; 73   : 
; 74   : 			if (pOldObject)

  00018	85 f6		 test	 esi, esi
  0001a	74 07		 je	 SHORT $LN7@SetTextPoi

; 75   : 				pOldObject->Release();

  0001c	8b ce		 mov	 ecx, esi
  0001e	e8 00 00 00 00	 call	 ?Release@CReferenceObject@@QAEXXZ ; CReferenceObject::Release
$LN7@SetTextPoi:
  00023	5e		 pop	 esi
; File D:\Metin2 Server Files\mainline\SRC_2014\Metin2Client\EterLib\GrpTextInstance.cpp

; 1044 : }

  00024	5d		 pop	 ebp
  00025	c2 04 00	 ret	 4
?SetTextPointer@CGraphicTextInstance@@QAEXPAVCGraphicText@@@Z ENDP ; CGraphicTextInstance::SetTextPointer
_TEXT	ENDS
; Function compile flags: /Ogtp
; File D:\Metin2 Server Files\mainline\SRC_2014\Metin2Client\EterLib\GrpTextInstance.cpp
;	COMDAT ?SetMax@CGraphicTextInstance@@QAEXH@Z
_TEXT	SEGMENT
_iMax$ = 8						; size = 4
?SetMax@CGraphicTextInstance@@QAEXH@Z PROC		; CGraphicTextInstance::SetMax, COMDAT
; _this$ = ecx

; 1007 : {

  00000	55		 push	 ebp
  00001	8b ec		 mov	 ebp, esp

; 1008 : 	m_iMax = iMax;

  00003	66 8b 45 08	 mov	 ax, WORD PTR _iMax$[ebp]
  00007	66 89 41 12	 mov	 WORD PTR [ecx+18], ax

; 1009 : }

  0000b	5d		 pop	 ebp
  0000c	c2 04 00	 ret	 4
?SetMax@CGraphicTextInstance@@QAEXH@Z ENDP		; CGraphicTextInstance::SetMax
_TEXT	ENDS
; Function compile flags: /Ogtp
; File D:\Metin2 Server Files\mainline\SRC_2014\Metin2Client\EterLib\GrpTextInstance.cpp
;	COMDAT ?SetVerticalAlign@CGraphicTextInstance@@QAEXH@Z
_TEXT	SEGMENT
_vAlign$ = 8						; size = 4
?SetVerticalAlign@CGraphicTextInstance@@QAEXH@Z PROC	; CGraphicTextInstance::SetVerticalAlign, COMDAT
; _this$ = ecx

; 1002 : {

  00000	55		 push	 ebp
  00001	8b ec		 mov	 ebp, esp

; 1003 : 	m_vAlign = vAlign;

  00003	8a 45 08	 mov	 al, BYTE PTR _vAlign$[ebp]
  00006	88 41 11	 mov	 BYTE PTR [ecx+17], al

; 1004 : }

  00009	5d		 pop	 ebp
  0000a	c2 04 00	 ret	 4
?SetVerticalAlign@CGraphicTextInstance@@QAEXH@Z ENDP	; CGraphicTextInstance::SetVerticalAlign
_TEXT	ENDS
; Function compile flags: /Ogtp
; File D:\Metin2 Server Files\mainline\SRC_2014\Metin2Client\EterLib\GrpTextInstance.cpp
;	COMDAT ?SetHorizonalAlign@CGraphicTextInstance@@QAEXH@Z
_TEXT	SEGMENT
_hAlign$ = 8						; size = 4
?SetHorizonalAlign@CGraphicTextInstance@@QAEXH@Z PROC	; CGraphicTextInstance::SetHorizonalAlign, COMDAT
; _this$ = ecx

; 997  : {

  00000	55		 push	 ebp
  00001	8b ec		 mov	 ebp, esp

; 998  : 	m_hAlign = hAlign;

  00003	8a 45 08	 mov	 al, BYTE PTR _hAlign$[ebp]
  00006	88 41 10	 mov	 BYTE PTR [ecx+16], al

; 999  : }

  00009	5d		 pop	 ebp
  0000a	c2 04 00	 ret	 4
?SetHorizonalAlign@CGraphicTextInstance@@QAEXH@Z ENDP	; CGraphicTextInstance::SetHorizonalAlign
_TEXT	ENDS
; Function compile flags: /Ogtp
; File D:\Metin2 Server Files\mainline\SRC_2014\Metin2Client\EterLib\GrpTextInstance.cpp
; File D:\Metin2 Server Files\mainline\SRC_2014\M2Data\include\d3dx8math.inl
; File D:\Metin2 Server Files\mainline\SRC_2014\Metin2Client\EterLib\GrpTextInstance.cpp
; File D:\Metin2 Server Files\mainline\SRC_2014\M2Data\include\d3dx8math.inl
; File D:\Metin2 Server Files\mainline\SRC_2014\Metin2Client\EterLib\GrpTextInstance.cpp
; File D:\Metin2 Server Files\mainline\SRC_2014\M2Data\include\d3dx8math.inl
; File D:\Metin2 Server Files\mainline\SRC_2014\Metin2Client\EterLib\GrpTextInstance.cpp
; File D:\Metin2 Server Files\mainline\SRC_2014\M2Data\include\d3dx8math.inl
; File D:\Metin2 Server Files\mainline\SRC_2014\Metin2Client\EterLib\GrpTextInstance.cpp
;	COMDAT ?SetOutLineColor@CGraphicTextInstance@@QAEXMMMM@Z
_TEXT	SEGMENT
_this$1$ = -4						; size = 4
_r$ = 8							; size = 4
_g$ = 12						; size = 4
_b$ = 16						; size = 4
_a$ = 20						; size = 4
?SetOutLineColor@CGraphicTextInstance@@QAEXMMMM@Z PROC	; CGraphicTextInstance::SetOutLineColor, COMDAT
; _this$ = ecx

; 965  : {

  00000	55		 push	 ebp
  00001	8b ec		 mov	 ebp, esp
  00003	51		 push	 ecx
; File D:\Metin2 Server Files\mainline\SRC_2014\M2Data\include\d3dx8math.inl

; 923  :     a = fa;

  00004	f3 0f 10 45 08	 movss	 xmm0, DWORD PTR _r$[ebp]

; 931  :     DWORD dwR = r >= 1.0f ? 0xff : r <= 0.0f ? 0x00 : (DWORD) (r * 255.0f + 0.5f);

  00009	0f 57 c9	 xorps	 xmm1, xmm1

; 923  :     a = fa;

  0000c	0f 2f 05 00 00
	00 00		 comiss	 xmm0, DWORD PTR __real@3f800000
; File D:\Metin2 Server Files\mainline\SRC_2014\Metin2Client\EterLib\GrpTextInstance.cpp

; 965  : {

  00013	53		 push	 ebx
  00014	56		 push	 esi
  00015	57		 push	 edi
  00016	89 4d fc	 mov	 DWORD PTR _this$1$[ebp], ecx
; File D:\Metin2 Server Files\mainline\SRC_2014\M2Data\include\d3dx8math.inl

; 931  :     DWORD dwR = r >= 1.0f ? 0xff : r <= 0.0f ? 0x00 : (DWORD) (r * 255.0f + 0.5f);

  00019	f3 0f 10 1d 00
	00 00 00	 movss	 xmm3, DWORD PTR __real@437f0000
  00021	f3 0f 10 25 00
	00 00 00	 movss	 xmm4, DWORD PTR __real@3f000000
  00029	72 07		 jb	 SHORT $LN9@SetOutLine
  0002b	bb ff 00 00 00	 mov	 ebx, 255		; 000000ffH
  00030	eb 2b		 jmp	 SHORT $LN8@SetOutLine
$LN9@SetOutLine:
  00032	0f 2f c8	 comiss	 xmm1, xmm0
  00035	72 04		 jb	 SHORT $LN7@SetOutLine
  00037	33 db		 xor	 ebx, ebx
  00039	eb 22		 jmp	 SHORT $LN8@SetOutLine
$LN7@SetOutLine:
  0003b	f3 0f 59 c3	 mulss	 xmm0, xmm3
  0003f	f3 0f 58 c4	 addss	 xmm0, xmm4
  00043	e8 00 00 00 00	 call	 __ftoui3
  00048	f3 0f 10 1d 00
	00 00 00	 movss	 xmm3, DWORD PTR __real@437f0000
  00050	8b d8		 mov	 ebx, eax
  00052	f3 0f 10 25 00
	00 00 00	 movss	 xmm4, DWORD PTR __real@3f000000
  0005a	0f 57 c9	 xorps	 xmm1, xmm1
$LN8@SetOutLine:

; 932  :     DWORD dwG = g >= 1.0f ? 0xff : g <= 0.0f ? 0x00 : (DWORD) (g * 255.0f + 0.5f);

  0005d	f3 0f 10 45 0c	 movss	 xmm0, DWORD PTR _g$[ebp]
  00062	0f 2f 05 00 00
	00 00		 comiss	 xmm0, DWORD PTR __real@3f800000
  00069	72 07		 jb	 SHORT $LN13@SetOutLine
  0006b	bf ff 00 00 00	 mov	 edi, 255		; 000000ffH
  00070	eb 18		 jmp	 SHORT $LN12@SetOutLine
$LN13@SetOutLine:
  00072	0f 2f c8	 comiss	 xmm1, xmm0
  00075	72 04		 jb	 SHORT $LN11@SetOutLine
  00077	33 ff		 xor	 edi, edi
  00079	eb 0f		 jmp	 SHORT $LN12@SetOutLine
$LN11@SetOutLine:
  0007b	f3 0f 59 c3	 mulss	 xmm0, xmm3
  0007f	f3 0f 58 c4	 addss	 xmm0, xmm4
  00083	e8 00 00 00 00	 call	 __ftoui3
  00088	8b f8		 mov	 edi, eax
$LN12@SetOutLine:

; 933  :     DWORD dwB = b >= 1.0f ? 0xff : b <= 0.0f ? 0x00 : (DWORD) (b * 255.0f + 0.5f);

  0008a	f3 0f 10 45 10	 movss	 xmm0, DWORD PTR _b$[ebp]
  0008f	0f 57 c9	 xorps	 xmm1, xmm1
  00092	0f 2f 05 00 00
	00 00		 comiss	 xmm0, DWORD PTR __real@3f800000
  00099	72 07		 jb	 SHORT $LN17@SetOutLine
  0009b	be ff 00 00 00	 mov	 esi, 255		; 000000ffH
  000a0	eb 23		 jmp	 SHORT $LN16@SetOutLine
$LN17@SetOutLine:
  000a2	0f 2f c8	 comiss	 xmm1, xmm0
  000a5	72 04		 jb	 SHORT $LN15@SetOutLine
  000a7	33 f6		 xor	 esi, esi
  000a9	eb 1a		 jmp	 SHORT $LN16@SetOutLine
$LN15@SetOutLine:
  000ab	f3 0f 59 05 00
	00 00 00	 mulss	 xmm0, DWORD PTR __real@437f0000
  000b3	f3 0f 58 05 00
	00 00 00	 addss	 xmm0, DWORD PTR __real@3f000000
  000bb	e8 00 00 00 00	 call	 __ftoui3
  000c0	8b f0		 mov	 esi, eax
  000c2	0f 57 c9	 xorps	 xmm1, xmm1
$LN16@SetOutLine:

; 934  :     DWORD dwA = a >= 1.0f ? 0xff : a <= 0.0f ? 0x00 : (DWORD) (a * 255.0f + 0.5f);

  000c5	f3 0f 10 45 14	 movss	 xmm0, DWORD PTR _a$[ebp]
  000ca	0f 2f 05 00 00
	00 00		 comiss	 xmm0, DWORD PTR __real@3f800000
  000d1	72 07		 jb	 SHORT $LN21@SetOutLine
  000d3	b8 ff 00 00 00	 mov	 eax, 255		; 000000ffH
  000d8	eb 1e		 jmp	 SHORT $LN20@SetOutLine
$LN21@SetOutLine:
  000da	0f 2f c8	 comiss	 xmm1, xmm0
  000dd	72 04		 jb	 SHORT $LN19@SetOutLine
  000df	33 c0		 xor	 eax, eax
  000e1	eb 15		 jmp	 SHORT $LN20@SetOutLine
$LN19@SetOutLine:
  000e3	f3 0f 59 05 00
	00 00 00	 mulss	 xmm0, DWORD PTR __real@437f0000
  000eb	f3 0f 58 05 00
	00 00 00	 addss	 xmm0, DWORD PTR __real@3f000000
  000f3	e8 00 00 00 00	 call	 __ftoui3
$LN20@SetOutLine:
; File D:\Metin2 Server Files\mainline\SRC_2014\Metin2Client\EterLib\GrpTextInstance.cpp

; 966  : 	m_dwOutLineColor=D3DXCOLOR(r, g, b, a);

  000f8	8b 4d fc	 mov	 ecx, DWORD PTR _this$1$[ebp]
; File D:\Metin2 Server Files\mainline\SRC_2014\M2Data\include\d3dx8math.inl

; 936  :     return (dwA << 24) | (dwR << 16) | (dwG << 8) | dwB;

  000fb	c1 e0 08	 shl	 eax, 8
  000fe	0b c3		 or	 eax, ebx
  00100	c1 e0 08	 shl	 eax, 8
  00103	0b c7		 or	 eax, edi
  00105	c1 e0 08	 shl	 eax, 8
; File D:\Metin2 Server Files\mainline\SRC_2014\Metin2Client\EterLib\GrpTextInstance.cpp

; 966  : 	m_dwOutLineColor=D3DXCOLOR(r, g, b, a);

  00108	5f		 pop	 edi
; File D:\Metin2 Server Files\mainline\SRC_2014\M2Data\include\d3dx8math.inl

; 936  :     return (dwA << 24) | (dwR << 16) | (dwG << 8) | dwB;

  00109	0b c6		 or	 eax, esi
; File D:\Metin2 Server Files\mainline\SRC_2014\Metin2Client\EterLib\GrpTextInstance.cpp

; 966  : 	m_dwOutLineColor=D3DXCOLOR(r, g, b, a);

  0010b	5e		 pop	 esi
  0010c	89 41 08	 mov	 DWORD PTR [ecx+8], eax
  0010f	5b		 pop	 ebx

; 967  : }

  00110	8b e5		 mov	 esp, ebp
  00112	5d		 pop	 ebp
  00113	c2 10 00	 ret	 16			; 00000010H
?SetOutLineColor@CGraphicTextInstance@@QAEXMMMM@Z ENDP	; CGraphicTextInstance::SetOutLineColor
_TEXT	ENDS
; Function compile flags: /Ogtp
; File D:\Metin2 Server Files\mainline\SRC_2014\Metin2Client\EterLib\GrpTextInstance.cpp
;	COMDAT ?SetOutLineColor@CGraphicTextInstance@@QAEXK@Z
_TEXT	SEGMENT
_color$ = 8						; size = 4
?SetOutLineColor@CGraphicTextInstance@@QAEXK@Z PROC	; CGraphicTextInstance::SetOutLineColor, COMDAT
; _this$ = ecx

; 960  : {

  00000	55		 push	 ebp
  00001	8b ec		 mov	 ebp, esp

; 961  : 	m_dwOutLineColor=color;

  00003	8b 45 08	 mov	 eax, DWORD PTR _color$[ebp]
  00006	89 41 08	 mov	 DWORD PTR [ecx+8], eax

; 962  : }

  00009	5d		 pop	 ebp
  0000a	c2 04 00	 ret	 4
?SetOutLineColor@CGraphicTextInstance@@QAEXK@Z ENDP	; CGraphicTextInstance::SetOutLineColor
_TEXT	ENDS
; Function compile flags: /Ogtp
; File D:\Metin2 Server Files\mainline\SRC_2014\Metin2Client\EterLib\GrpTextInstance.cpp
; File D:\Metin2 Server Files\mainline\SRC_2014\M2Data\include\d3dx8math.inl
; File D:\Metin2 Server Files\mainline\SRC_2014\Metin2Client\EterLib\GrpTextInstance.cpp
; File D:\Metin2 Server Files\mainline\SRC_2014\M2Data\include\d3dx8math.inl
; File D:\Metin2 Server Files\mainline\SRC_2014\Metin2Client\EterLib\GrpTextInstance.cpp
; File D:\Metin2 Server Files\mainline\SRC_2014\M2Data\include\d3dx8math.inl
; File D:\Metin2 Server Files\mainline\SRC_2014\Metin2Client\EterLib\GrpTextInstance.cpp
;	COMDAT ?SetColor@CGraphicTextInstance@@QAEXMMMM@Z
_TEXT	SEGMENT
_this$1$ = -4						; size = 4
_r$ = 8							; size = 4
_g$ = 12						; size = 4
_b$ = 16						; size = 4
_a$ = 20						; size = 4
?SetColor@CGraphicTextInstance@@QAEXMMMM@Z PROC		; CGraphicTextInstance::SetColor, COMDAT
; _this$ = ecx

; 955  : {

  00000	55		 push	 ebp
  00001	8b ec		 mov	 ebp, esp
  00003	51		 push	 ecx
; File D:\Metin2 Server Files\mainline\SRC_2014\M2Data\include\d3dx8math.inl

; 923  :     a = fa;

  00004	f3 0f 10 45 08	 movss	 xmm0, DWORD PTR _r$[ebp]

; 931  :     DWORD dwR = r >= 1.0f ? 0xff : r <= 0.0f ? 0x00 : (DWORD) (r * 255.0f + 0.5f);

  00009	0f 57 c9	 xorps	 xmm1, xmm1

; 923  :     a = fa;

  0000c	0f 2f 05 00 00
	00 00		 comiss	 xmm0, DWORD PTR __real@3f800000
; File D:\Metin2 Server Files\mainline\SRC_2014\Metin2Client\EterLib\GrpTextInstance.cpp

; 955  : {

  00013	53		 push	 ebx
  00014	56		 push	 esi
  00015	57		 push	 edi
  00016	89 4d fc	 mov	 DWORD PTR _this$1$[ebp], ecx
; File D:\Metin2 Server Files\mainline\SRC_2014\M2Data\include\d3dx8math.inl

; 931  :     DWORD dwR = r >= 1.0f ? 0xff : r <= 0.0f ? 0x00 : (DWORD) (r * 255.0f + 0.5f);

  00019	f3 0f 10 1d 00
	00 00 00	 movss	 xmm3, DWORD PTR __real@437f0000
  00021	f3 0f 10 25 00
	00 00 00	 movss	 xmm4, DWORD PTR __real@3f000000
  00029	72 07		 jb	 SHORT $LN9@SetColor
  0002b	bb ff 00 00 00	 mov	 ebx, 255		; 000000ffH
  00030	eb 2b		 jmp	 SHORT $LN8@SetColor
$LN9@SetColor:
  00032	0f 2f c8	 comiss	 xmm1, xmm0
  00035	72 04		 jb	 SHORT $LN7@SetColor
  00037	33 db		 xor	 ebx, ebx
  00039	eb 22		 jmp	 SHORT $LN8@SetColor
$LN7@SetColor:
  0003b	f3 0f 59 c3	 mulss	 xmm0, xmm3
  0003f	f3 0f 58 c4	 addss	 xmm0, xmm4
  00043	e8 00 00 00 00	 call	 __ftoui3
  00048	f3 0f 10 1d 00
	00 00 00	 movss	 xmm3, DWORD PTR __real@437f0000
  00050	8b d8		 mov	 ebx, eax
  00052	f3 0f 10 25 00
	00 00 00	 movss	 xmm4, DWORD PTR __real@3f000000
  0005a	0f 57 c9	 xorps	 xmm1, xmm1
$LN8@SetColor:

; 932  :     DWORD dwG = g >= 1.0f ? 0xff : g <= 0.0f ? 0x00 : (DWORD) (g * 255.0f + 0.5f);

  0005d	f3 0f 10 45 0c	 movss	 xmm0, DWORD PTR _g$[ebp]
  00062	0f 2f 05 00 00
	00 00		 comiss	 xmm0, DWORD PTR __real@3f800000
  00069	72 07		 jb	 SHORT $LN13@SetColor
  0006b	bf ff 00 00 00	 mov	 edi, 255		; 000000ffH
  00070	eb 18		 jmp	 SHORT $LN12@SetColor
$LN13@SetColor:
  00072	0f 2f c8	 comiss	 xmm1, xmm0
  00075	72 04		 jb	 SHORT $LN11@SetColor
  00077	33 ff		 xor	 edi, edi
  00079	eb 0f		 jmp	 SHORT $LN12@SetColor
$LN11@SetColor:
  0007b	f3 0f 59 c3	 mulss	 xmm0, xmm3
  0007f	f3 0f 58 c4	 addss	 xmm0, xmm4
  00083	e8 00 00 00 00	 call	 __ftoui3
  00088	8b f8		 mov	 edi, eax
$LN12@SetColor:

; 933  :     DWORD dwB = b >= 1.0f ? 0xff : b <= 0.0f ? 0x00 : (DWORD) (b * 255.0f + 0.5f);

  0008a	f3 0f 10 45 10	 movss	 xmm0, DWORD PTR _b$[ebp]
  0008f	0f 57 c9	 xorps	 xmm1, xmm1
  00092	0f 2f 05 00 00
	00 00		 comiss	 xmm0, DWORD PTR __real@3f800000
  00099	72 07		 jb	 SHORT $LN17@SetColor
  0009b	be ff 00 00 00	 mov	 esi, 255		; 000000ffH
  000a0	eb 23		 jmp	 SHORT $LN16@SetColor
$LN17@SetColor:
  000a2	0f 2f c8	 comiss	 xmm1, xmm0
  000a5	72 04		 jb	 SHORT $LN15@SetColor
  000a7	33 f6		 xor	 esi, esi
  000a9	eb 1a		 jmp	 SHORT $LN16@SetColor
$LN15@SetColor:
  000ab	f3 0f 59 05 00
	00 00 00	 mulss	 xmm0, DWORD PTR __real@437f0000
  000b3	f3 0f 58 05 00
	00 00 00	 addss	 xmm0, DWORD PTR __real@3f000000
  000bb	e8 00 00 00 00	 call	 __ftoui3
  000c0	8b f0		 mov	 esi, eax
  000c2	0f 57 c9	 xorps	 xmm1, xmm1
$LN16@SetColor:

; 934  :     DWORD dwA = a >= 1.0f ? 0xff : a <= 0.0f ? 0x00 : (DWORD) (a * 255.0f + 0.5f);

  000c5	f3 0f 10 45 14	 movss	 xmm0, DWORD PTR _a$[ebp]
  000ca	0f 2f 05 00 00
	00 00		 comiss	 xmm0, DWORD PTR __real@3f800000
  000d1	72 07		 jb	 SHORT $LN21@SetColor
  000d3	b8 ff 00 00 00	 mov	 eax, 255		; 000000ffH
  000d8	eb 1e		 jmp	 SHORT $LN20@SetColor
$LN21@SetColor:
  000da	0f 2f c8	 comiss	 xmm1, xmm0
  000dd	72 04		 jb	 SHORT $LN19@SetColor
  000df	33 c0		 xor	 eax, eax
  000e1	eb 15		 jmp	 SHORT $LN20@SetColor
$LN19@SetColor:
  000e3	f3 0f 59 05 00
	00 00 00	 mulss	 xmm0, DWORD PTR __real@437f0000
  000eb	f3 0f 58 05 00
	00 00 00	 addss	 xmm0, DWORD PTR __real@3f000000
  000f3	e8 00 00 00 00	 call	 __ftoui3
$LN20@SetColor:
; File D:\Metin2 Server Files\mainline\SRC_2014\Metin2Client\EterLib\GrpTextInstance.cpp

; 956  : 	SetColor(D3DXCOLOR(r, g, b, a));

  000f8	8b 4d fc	 mov	 ecx, DWORD PTR _this$1$[ebp]
; File D:\Metin2 Server Files\mainline\SRC_2014\M2Data\include\d3dx8math.inl

; 936  :     return (dwA << 24) | (dwR << 16) | (dwG << 8) | dwB;

  000fb	c1 e0 08	 shl	 eax, 8
  000fe	0b c3		 or	 eax, ebx
  00100	c1 e0 08	 shl	 eax, 8
  00103	0b c7		 or	 eax, edi
  00105	c1 e0 08	 shl	 eax, 8
  00108	0b c6		 or	 eax, esi
; File D:\Metin2 Server Files\mainline\SRC_2014\Metin2Client\EterLib\GrpTextInstance.cpp

; 956  : 	SetColor(D3DXCOLOR(r, g, b, a));

  0010a	50		 push	 eax
  0010b	e8 00 00 00 00	 call	 ?SetColor@CGraphicTextInstance@@QAEXK@Z ; CGraphicTextInstance::SetColor
  00110	5f		 pop	 edi
  00111	5e		 pop	 esi
  00112	5b		 pop	 ebx

; 957  : }

  00113	8b e5		 mov	 esp, ebp
  00115	5d		 pop	 ebp
  00116	c2 10 00	 ret	 16			; 00000010H
?SetColor@CGraphicTextInstance@@QAEXMMMM@Z ENDP		; CGraphicTextInstance::SetColor
_TEXT	ENDS
; Function compile flags: /Ogtp
; File D:\Metin2 Server Files\mainline\SRC_2014\Metin2Client\EterLib\GrpTextInstance.cpp
; File C:\Program Files (x86)\Microsoft Visual Studio\2019\Community\VC\Tools\MSVC\14.28.29333\include\vector
; File D:\Metin2 Server Files\mainline\SRC_2014\Metin2Client\EterLib\GrpTextInstance.cpp
; File C:\Program Files (x86)\Microsoft Visual Studio\2019\Community\VC\Tools\MSVC\14.28.29333\include\vector
; File D:\Metin2 Server Files\mainline\SRC_2014\Metin2Client\EterLib\GrpTextInstance.cpp
; File C:\Program Files (x86)\Microsoft Visual Studio\2019\Community\VC\Tools\MSVC\14.28.29333\include\vector
; File D:\Metin2 Server Files\mainline\SRC_2014\Metin2Client\EterLib\GrpTextInstance.cpp
; File C:\Program Files (x86)\Microsoft Visual Studio\2019\Community\VC\Tools\MSVC\14.28.29333\include\vector
; File D:\Metin2 Server Files\mainline\SRC_2014\Metin2Client\EterLib\GrpTextInstance.cpp
; File C:\Program Files (x86)\Microsoft Visual Studio\2019\Community\VC\Tools\MSVC\14.28.29333\include\vector
; File D:\Metin2 Server Files\mainline\SRC_2014\Metin2Client\EterLib\GrpTextInstance.cpp
;	COMDAT ?SetColor@CGraphicTextInstance@@QAEXK@Z
_TEXT	SEGMENT
_color$ = 8						; size = 4
?SetColor@CGraphicTextInstance@@QAEXK@Z PROC		; CGraphicTextInstance::SetColor, COMDAT
; _this$ = ecx

; 943  : {

  00000	55		 push	 ebp
  00001	8b ec		 mov	 ebp, esp
  00003	57		 push	 edi

; 944  : 	if (m_dwTextColor != color)

  00004	8b 7d 08	 mov	 edi, DWORD PTR _color$[ebp]
  00007	39 79 04	 cmp	 DWORD PTR [ecx+4], edi
  0000a	74 35		 je	 SHORT $LN5@SetColor
; File C:\Program Files (x86)\Microsoft Visual Studio\2019\Community\VC\Tools\MSVC\14.28.29333\include\vector

; 1484 :         return static_cast<size_type>(_My_data._Mylast - _My_data._Myfirst);

  0000c	8b 41 50	 mov	 eax, DWORD PTR [ecx+80]
; File D:\Metin2 Server Files\mainline\SRC_2014\Metin2Client\EterLib\GrpTextInstance.cpp

; 946  : 		for (int i = 0; i < m_pCharInfoVector.size(); ++i)

  0000f	33 d2		 xor	 edx, edx
; File C:\Program Files (x86)\Microsoft Visual Studio\2019\Community\VC\Tools\MSVC\14.28.29333\include\vector

; 1484 :         return static_cast<size_type>(_My_data._Mylast - _My_data._Myfirst);

  00011	2b 41 4c	 sub	 eax, DWORD PTR [ecx+76]
  00014	c1 f8 02	 sar	 eax, 2
; File D:\Metin2 Server Files\mainline\SRC_2014\Metin2Client\EterLib\GrpTextInstance.cpp

; 946  : 		for (int i = 0; i < m_pCharInfoVector.size(); ++i)

  00017	85 c0		 test	 eax, eax
  00019	74 23		 je	 SHORT $LN3@SetColor
  0001b	56		 push	 esi
  0001c	0f 1f 40 00	 npad	 4
$LL4@SetColor:
; File C:\Program Files (x86)\Microsoft Visual Studio\2019\Community\VC\Tools\MSVC\14.28.29333\include\vector

; 1504 :         return _My_data._Myfirst[_Pos];

  00020	8b 41 58	 mov	 eax, DWORD PTR [ecx+88]
  00023	8d 34 90	 lea	 esi, DWORD PTR [eax+edx*4]
; File D:\Metin2 Server Files\mainline\SRC_2014\Metin2Client\EterLib\GrpTextInstance.cpp

; 947  : 			if (m_dwColorInfoVector[i] == m_dwTextColor)

  00026	8b 06		 mov	 eax, DWORD PTR [esi]
  00028	3b 41 04	 cmp	 eax, DWORD PTR [ecx+4]
  0002b	75 02		 jne	 SHORT $LN2@SetColor

; 948  : 				m_dwColorInfoVector[i] = color;

  0002d	89 3e		 mov	 DWORD PTR [esi], edi
$LN2@SetColor:
; File C:\Program Files (x86)\Microsoft Visual Studio\2019\Community\VC\Tools\MSVC\14.28.29333\include\vector

; 1484 :         return static_cast<size_type>(_My_data._Mylast - _My_data._Myfirst);

  0002f	8b 41 50	 mov	 eax, DWORD PTR [ecx+80]
; File D:\Metin2 Server Files\mainline\SRC_2014\Metin2Client\EterLib\GrpTextInstance.cpp

; 946  : 		for (int i = 0; i < m_pCharInfoVector.size(); ++i)

  00032	42		 inc	 edx
; File C:\Program Files (x86)\Microsoft Visual Studio\2019\Community\VC\Tools\MSVC\14.28.29333\include\vector

; 1484 :         return static_cast<size_type>(_My_data._Mylast - _My_data._Myfirst);

  00033	2b 41 4c	 sub	 eax, DWORD PTR [ecx+76]
  00036	c1 f8 02	 sar	 eax, 2
; File D:\Metin2 Server Files\mainline\SRC_2014\Metin2Client\EterLib\GrpTextInstance.cpp

; 946  : 		for (int i = 0; i < m_pCharInfoVector.size(); ++i)

  00039	3b d0		 cmp	 edx, eax
  0003b	72 e3		 jb	 SHORT $LL4@SetColor
  0003d	5e		 pop	 esi
$LN3@SetColor:

; 949  : 
; 950  : 		m_dwTextColor = color;

  0003e	89 79 04	 mov	 DWORD PTR [ecx+4], edi
$LN5@SetColor:
  00041	5f		 pop	 edi

; 951  : 	}
; 952  : }

  00042	5d		 pop	 ebp
  00043	c2 04 00	 ret	 4
?SetColor@CGraphicTextInstance@@QAEXK@Z ENDP		; CGraphicTextInstance::SetColor
_TEXT	ENDS
; Function compile flags: /Ogtp
; File D:\Metin2 Server Files\mainline\SRC_2014\Metin2Client\EterLib\GrpTextInstance.cpp
;	COMDAT ?HideOutLine@CGraphicTextInstance@@QAEXXZ
_TEXT	SEGMENT
?HideOutLine@CGraphicTextInstance@@QAEXXZ PROC		; CGraphicTextInstance::HideOutLine, COMDAT
; _this$ = ecx

; 939  : 	m_isOutline = false;

  00000	c6 41 1b 00	 mov	 BYTE PTR [ecx+27], 0

; 940  : }

  00004	c3		 ret	 0
?HideOutLine@CGraphicTextInstance@@QAEXXZ ENDP		; CGraphicTextInstance::HideOutLine
_TEXT	ENDS
; Function compile flags: /Ogtp
; File D:\Metin2 Server Files\mainline\SRC_2014\Metin2Client\EterLib\GrpTextInstance.cpp
;	COMDAT ?ShowOutLine@CGraphicTextInstance@@QAEXXZ
_TEXT	SEGMENT
?ShowOutLine@CGraphicTextInstance@@QAEXXZ PROC		; CGraphicTextInstance::ShowOutLine, COMDAT
; _this$ = ecx

; 934  : 	m_isOutline = true;

  00000	c6 41 1b 01	 mov	 BYTE PTR [ecx+27], 1

; 935  : }

  00004	c3		 ret	 0
?ShowOutLine@CGraphicTextInstance@@QAEXXZ ENDP		; CGraphicTextInstance::ShowOutLine
_TEXT	ENDS
; Function compile flags: /Ogtp
; File D:\Metin2 Server Files\mainline\SRC_2014\Metin2Client\EterLib\GrpTextInstance.cpp
;	COMDAT ?HideCursor@CGraphicTextInstance@@QAEXXZ
_TEXT	SEGMENT
?HideCursor@CGraphicTextInstance@@QAEXXZ PROC		; CGraphicTextInstance::HideCursor, COMDAT
; _this$ = ecx

; 929  : 	m_isCursor = false;

  00000	c6 41 18 00	 mov	 BYTE PTR [ecx+24], 0

; 930  : }

  00004	c3		 ret	 0
?HideCursor@CGraphicTextInstance@@QAEXXZ ENDP		; CGraphicTextInstance::HideCursor
_TEXT	ENDS
; Function compile flags: /Ogtp
; File D:\Metin2 Server Files\mainline\SRC_2014\Metin2Client\EterLib\GrpTextInstance.cpp
;	COMDAT ?ShowCursor@CGraphicTextInstance@@QAEXXZ
_TEXT	SEGMENT
?ShowCursor@CGraphicTextInstance@@QAEXXZ PROC		; CGraphicTextInstance::ShowCursor, COMDAT
; _this$ = ecx

; 924  : 	m_isCursor = true;

  00000	c6 41 18 01	 mov	 BYTE PTR [ecx+24], 1

; 925  : }

  00004	c3		 ret	 0
?ShowCursor@CGraphicTextInstance@@QAEXXZ ENDP		; CGraphicTextInstance::ShowCursor
_TEXT	ENDS
; Function compile flags: /Ogtp
; File D:\Metin2 Server Files\mainline\SRC_2014\Metin2Client\EterLib\GrpTextInstance.cpp
; File C:\Program Files (x86)\Microsoft Visual Studio\2019\Community\VC\Tools\MSVC\14.28.29333\include\vector
; File D:\Metin2 Server Files\mainline\SRC_2014\Metin2Client\EterLib\GrpTextInstance.cpp
; File C:\Program Files (x86)\Microsoft Visual Studio\2019\Community\VC\Tools\MSVC\14.28.29333\include\vector
; File D:\Metin2 Server Files\mainline\SRC_2014\Metin2Client\EterLib\GrpTextInstance.cpp
; File C:\Program Files (x86)\Microsoft Visual Studio\2019\Community\VC\Tools\MSVC\14.28.29333\include\vector
; File D:\Metin2 Server Files\mainline\SRC_2014\Metin2Client\EterLib\GrpTextInstance.cpp
; File C:\Program Files (x86)\Microsoft Visual Studio\2019\Community\VC\Tools\MSVC\14.28.29333\include\vector
; File D:\Metin2 Server Files\mainline\SRC_2014\Metin2Client\EterLib\GrpTextInstance.cpp
; File C:\Program Files (x86)\Microsoft Visual Studio\2019\Community\VC\Tools\MSVC\14.28.29333\include\vector
; File D:\Metin2 Server Files\mainline\SRC_2014\Metin2Client\EterLib\GrpTextInstance.cpp
; File C:\Program Files (x86)\Microsoft Visual Studio\2019\Community\VC\Tools\MSVC\14.28.29333\include\vector
; File D:\Metin2 Server Files\mainline\SRC_2014\Metin2Client\EterLib\GrpTextInstance.cpp
; File C:\Program Files (x86)\Microsoft Visual Studio\2019\Community\VC\Tools\MSVC\14.28.29333\include\vector
; File D:\Metin2 Server Files\mainline\SRC_2014\Metin2Client\EterLib\GrpTextInstance.cpp
; File C:\Program Files (x86)\Microsoft Visual Studio\2019\Community\VC\Tools\MSVC\14.28.29333\include\vector
; File D:\Metin2 Server Files\mainline\SRC_2014\Metin2Client\EterLib\GrpTextInstance.cpp
; File C:\Program Files (x86)\Microsoft Visual Studio\2019\Community\VC\Tools\MSVC\14.28.29333\include\vector
; File D:\Metin2 Server Files\mainline\SRC_2014\Metin2Client\EterLib\GrpTextInstance.cpp
; File C:\Program Files (x86)\Microsoft Visual Studio\2019\Community\VC\Tools\MSVC\14.28.29333\include\vector
; File D:\Metin2 Server Files\mainline\SRC_2014\Metin2Client\EterLib\GrpTextInstance.cpp
; File D:\Metin2 Server Files\mainline\SRC_2014\M2Data\include\d3dx8math.inl
; File D:\Metin2 Server Files\mainline\SRC_2014\Metin2Client\EterLib\GrpTextInstance.cpp
; File D:\Metin2 Server Files\mainline\SRC_2014\M2Data\include\d3dx8math.inl
; File D:\Metin2 Server Files\mainline\SRC_2014\Metin2Client\EterLib\GrpTextInstance.cpp
; File D:\Metin2 Server Files\mainline\SRC_2014\M2Data\include\d3dx8math.inl
; File D:\Metin2 Server Files\mainline\SRC_2014\Metin2Client\EterLib\GrpTextInstance.cpp
; File D:\Metin2 Server Files\mainline\SRC_2014\M2Data\include\d3dx8math.inl
; File D:\Metin2 Server Files\mainline\SRC_2014\Metin2Client\EterLib\GrpTextInstance.cpp
; File D:\Metin2 Server Files\mainline\SRC_2014\M2Data\include\d3dx8math.inl
; File D:\Metin2 Server Files\mainline\SRC_2014\Metin2Client\EterLib\GrpTextInstance.cpp
; File D:\Metin2 Server Files\mainline\SRC_2014\M2Data\include\d3dx8math.inl
; File D:\Metin2 Server Files\mainline\SRC_2014\Metin2Client\EterLib\GrpTextInstance.cpp
; File D:\Metin2 Server Files\mainline\SRC_2014\M2Data\include\d3dx8math.inl
; File D:\Metin2 Server Files\mainline\SRC_2014\Metin2Client\EterLib\GrpTextInstance.cpp
; File D:\Metin2 Server Files\mainline\SRC_2014\M2Data\include\d3dx8math.inl
; File D:\Metin2 Server Files\mainline\SRC_2014\Metin2Client\EterLib\GrpTextInstance.cpp
; File C:\Program Files (x86)\Microsoft Visual Studio\2019\Community\VC\Tools\MSVC\14.28.29333\include\vector
; File D:\Metin2 Server Files\mainline\SRC_2014\Metin2Client\EterLib\GrpTextInstance.cpp
; File C:\Program Files (x86)\Microsoft Visual Studio\2019\Community\VC\Tools\MSVC\14.28.29333\include\vector
; File D:\Metin2 Server Files\mainline\SRC_2014\Metin2Client\EterLib\GrpTextInstance.cpp
; File C:\Program Files (x86)\Microsoft Visual Studio\2019\Community\VC\Tools\MSVC\14.28.29333\include\vector
; File D:\Metin2 Server Files\mainline\SRC_2014\Metin2Client\EterLib\GrpTextInstance.cpp
; File C:\Program Files (x86)\Microsoft Visual Studio\2019\Community\VC\Tools\MSVC\14.28.29333\include\vector
; File D:\Metin2 Server Files\mainline\SRC_2014\Metin2Client\EterLib\GrpTextInstance.cpp
;	COMDAT ?Render@CGraphicTextInstance@@QAEXPAUtagRECT@@@Z
_TEXT	SEGMENT
_dwLighting$1$ = -180					; size = 4
_dwFogEnable$1$ = -176					; size = 4
_ulbegin$1$ = -172					; size = 4
_defCodePage$1$ = -172					; size = 4
_fFontSy$2$ = -168					; size = 4
_pCurCharInfo$1$ = -168					; size = 4
_fFontSx$1$ = -164					; size = 4
tv2206 = -160						; size = 16
$T1 = -156						; size = 12
$T2 = -156						; size = 12
$T3 = -156						; size = 12
$T4 = -156						; size = 12
$T5 = -156						; size = 12
$T6 = -156						; size = 12
$T7 = -156						; size = 12
$T8 = -156						; size = 12
_fFontSx$2$ = -140					; size = 4
_ulend$1$ = -140					; size = 4
tv2007 = -140						; size = 4
_fFontEy$2$ = -136					; size = 4
_fFontEy$1$ = -136					; size = 4
_fFontEx$2$ = -132					; size = 4
_fFontSy$1$ = -132					; size = 4
_fFontEx$1$ = -128					; size = 4
tv2045 = -128						; size = 4
_pFontTexture$1$ = -124					; size = 4
_ex$9 = -124						; size = 4
_fCurX$2$ = -120					; size = 4
_fCurX$1$ = -120					; size = 4
_fCurY$1$ = -116					; size = 4
_ly$1$ = -116						; size = 4
_curpos$1$ = -116					; size = 4
_i$1$ = -116						; size = 4
_fCurY$2$ = -112					; size = 4
_sx$10 = -112						; size = 4
_fStanX$1$ = -108					; size = 4
_sy$11 = -108						; size = 4
_vertices$12 = -104					; size = 96
_akVertex$13 = -104					; size = 96
__$ArrayPad$ = -4					; size = 4
_pClipRect$ = 8						; size = 4
?Render@CGraphicTextInstance@@QAEXPAUtagRECT@@@Z PROC	; CGraphicTextInstance::Render, COMDAT
; _this$ = ecx

; 478  : {

  00000	53		 push	 ebx
  00001	8b dc		 mov	 ebx, esp
  00003	83 ec 08	 sub	 esp, 8
  00006	83 e4 f0	 and	 esp, -16		; fffffff0H
  00009	83 c4 04	 add	 esp, 4
  0000c	55		 push	 ebp
  0000d	8b 6b 04	 mov	 ebp, DWORD PTR [ebx+4]
  00010	89 6c 24 04	 mov	 DWORD PTR [esp+4], ebp
  00014	8b ec		 mov	 ebp, esp
  00016	81 ec b8 00 00
	00		 sub	 esp, 184		; 000000b8H
  0001c	a1 00 00 00 00	 mov	 eax, DWORD PTR ___security_cookie
  00021	33 c5		 xor	 eax, ebp
  00023	89 45 fc	 mov	 DWORD PTR __$ArrayPad$[ebp], eax
  00026	56		 push	 esi
  00027	57		 push	 edi
  00028	8b f9		 mov	 edi, ecx

; 479  : 	if (!m_isUpdate)

  0002a	80 7f 44 00	 cmp	 BYTE PTR [edi+68], 0
  0002e	0f 84 fc 0a 00
	00		 je	 $LN183@Render

; 480  : 		return;	
; 481  : 
; 482  : 	CGraphicText* pkText=m_roText.GetPointer();

  00034	8b 4f 48	 mov	 ecx, DWORD PTR [edi+72]

; 483  : 	if (!pkText)

  00037	85 c9		 test	 ecx, ecx
  00039	0f 84 f1 0a 00
	00		 je	 $LN183@Render

; 484  : 		return;
; 485  : 
; 486  : 	CGraphicFontTexture* pFontTexture = pkText->GetFontTexturePointer();

  0003f	e8 00 00 00 00	 call	 ?GetFontTexturePointer@CGraphicText@@QAEPAVCGraphicFontTexture@@XZ ; CGraphicText::GetFontTexturePointer
  00044	89 45 84	 mov	 DWORD PTR _pFontTexture$1$[ebp], eax

; 487  : 	if (!pFontTexture)

  00047	85 c0		 test	 eax, eax
  00049	0f 84 e1 0a 00
	00		 je	 $LN183@Render

; 488  : 		return;
; 489  : 
; 490  : 	float fStanX = m_v3Position.x;

  0004f	f3 0f 10 47 38	 movss	 xmm0, DWORD PTR [edi+56]
  00054	f3 0f 11 45 94	 movss	 DWORD PTR _fStanX$1$[ebp], xmm0

; 491  : 	float fStanY = m_v3Position.y + 1.0f;

  00059	f3 0f 10 47 3c	 movss	 xmm0, DWORD PTR [edi+60]
  0005e	f3 0f 58 05 00
	00 00 00	 addss	 xmm0, DWORD PTR __real@3f800000
  00066	f3 0f 11 45 90	 movss	 DWORD PTR _fCurY$2$[ebp], xmm0

; 492  : 
; 493  : 	UINT defCodePage = GetDefaultCodePage();

  0006b	e8 00 00 00 00	 call	 ?GetDefaultCodePage@@YAKXZ ; GetDefaultCodePage
  00070	0f b6 4f 10	 movzx	 ecx, BYTE PTR [edi+16]
  00074	89 85 54 ff ff
	ff		 mov	 DWORD PTR _defCodePage$1$[ebp], eax

; 494  : 
; 495  : 	if (defCodePage == CP_ARABIC)

  0007a	3d e8 04 00 00	 cmp	 eax, 1256		; 000004e8H
  0007f	75 41		 jne	 SHORT $LN21@Render

; 496  : 	{
; 497  : 		switch (m_hAlign)

  00081	83 e9 01	 sub	 ecx, 1
  00084	74 46		 je	 SHORT $LN23@Render
  00086	83 e9 01	 sub	 ecx, 1
  00089	75 1f		 jne	 SHORT $LN4@Render
$LN26@Render:

; 511  : 		{
; 512  : 			case HORIZONTAL_ALIGN_RIGHT:
; 513  : 				fStanX -= m_textWidth;
; 514  : 				break;
; 515  : 
; 516  : 			case HORIZONTAL_ALIGN_CENTER:
; 517  : 				fStanX -= float(m_textWidth / 2);
; 518  : 				break;	
; 519  : 		}
; 520  : 	}
; 521  : 
; 522  : 	switch (m_vAlign)

  0008b	66 8b 47 0c	 mov	 ax, WORD PTR [edi+12]
  0008f	66 d1 e8	 shr	 ax, 1
  00092	0f b7 c0	 movzx	 eax, ax
$LN191@Render:
  00095	f3 0f 10 4d 94	 movss	 xmm1, DWORD PTR _fStanX$1$[ebp]
  0009a	66 0f 6e c0	 movd	 xmm0, eax
  0009e	0f 5b c0	 cvtdq2ps xmm0, xmm0
  000a1	f3 0f 5c c8	 subss	 xmm1, xmm0
  000a5	f3 0f 11 4d 94	 movss	 DWORD PTR _fStanX$1$[ebp], xmm1
$LN4@Render:
  000aa	8a 47 11	 mov	 al, BYTE PTR [edi+17]
  000ad	3c 20		 cmp	 al, 32			; 00000020H
  000af	74 21		 je	 SHORT $LN28@Render
  000b1	3c 30		 cmp	 al, 48			; 00000030H
  000b3	75 3e		 jne	 SHORT $LN6@Render

; 523  : 	{
; 524  : 		case VERTICAL_ALIGN_BOTTOM:
; 525  : 			fStanY -= m_textHeight;

  000b5	0f b7 47 0e	 movzx	 eax, WORD PTR [edi+14]
  000b9	66 0f 6e c0	 movd	 xmm0, eax
  000bd	0f 5b c0	 cvtdq2ps xmm0, xmm0

; 526  : 			break;

  000c0	eb 23		 jmp	 SHORT $LN192@Render
$LN21@Render:

; 498  : 		{
; 499  : 			case HORIZONTAL_ALIGN_LEFT:
; 500  : 				fStanX -= m_textWidth;
; 501  : 				break;
; 502  : 
; 503  : 			case HORIZONTAL_ALIGN_CENTER:
; 504  : 				fStanX -= float(m_textWidth / 2);
; 505  : 				break;	
; 506  : 		}
; 507  : 	}
; 508  : 	else
; 509  : 	{	
; 510  : 		switch (m_hAlign)

  000c2	83 e9 02	 sub	 ecx, 2
  000c5	74 c4		 je	 SHORT $LN26@Render
  000c7	83 e9 01	 sub	 ecx, 1
  000ca	75 de		 jne	 SHORT $LN4@Render
$LN23@Render:

; 511  : 		{
; 512  : 			case HORIZONTAL_ALIGN_RIGHT:
; 513  : 				fStanX -= m_textWidth;
; 514  : 				break;
; 515  : 
; 516  : 			case HORIZONTAL_ALIGN_CENTER:
; 517  : 				fStanX -= float(m_textWidth / 2);
; 518  : 				break;	
; 519  : 		}
; 520  : 	}
; 521  : 
; 522  : 	switch (m_vAlign)

  000cc	0f b7 47 0c	 movzx	 eax, WORD PTR [edi+12]
  000d0	eb c3		 jmp	 SHORT $LN191@Render
$LN28@Render:

; 527  : 
; 528  : 		case VERTICAL_ALIGN_CENTER:
; 529  : 			fStanY -= float(m_textHeight) / 2.0f;

  000d2	0f b7 47 0e	 movzx	 eax, WORD PTR [edi+14]
  000d6	66 0f 6e c0	 movd	 xmm0, eax
  000da	0f 5b c0	 cvtdq2ps xmm0, xmm0
  000dd	f3 0f 59 05 00
	00 00 00	 mulss	 xmm0, DWORD PTR __real@3f000000
$LN192@Render:

; 530  : 			break;
; 531  : 	}
; 532  : 
; 533  : 	//WORD FillRectIndices[6] = { 0, 2, 1, 2, 3, 1 };
; 534  : 
; 535  : 	STATEMANAGER.SaveRenderState(D3DRS_SRCBLEND, D3DBLEND_SRCALPHA);

  000e5	f3 0f 10 4d 90	 movss	 xmm1, DWORD PTR _fCurY$2$[ebp]
  000ea	f3 0f 5c c8	 subss	 xmm1, xmm0
  000ee	f3 0f 11 4d 90	 movss	 DWORD PTR _fCurY$2$[ebp], xmm1
$LN6@Render:
  000f3	8b 0d 00 00 00
	00		 mov	 ecx, DWORD PTR ?ms_singleton@?$CSingleton@VCStateManager@@@@0PAVCStateManager@@A ; CSingleton<CStateManager>::ms_singleton
  000f9	6a 05		 push	 5
  000fb	6a 13		 push	 19			; 00000013H
  000fd	e8 00 00 00 00	 call	 ?SaveRenderState@CStateManager@@QAEXW4_D3DRENDERSTATETYPE@@K@Z ; CStateManager::SaveRenderState

; 536  : 	STATEMANAGER.SaveRenderState(D3DRS_DESTBLEND, D3DBLEND_INVSRCALPHA);

  00102	8b 0d 00 00 00
	00		 mov	 ecx, DWORD PTR ?ms_singleton@?$CSingleton@VCStateManager@@@@0PAVCStateManager@@A ; CSingleton<CStateManager>::ms_singleton
  00108	6a 06		 push	 6
  0010a	6a 14		 push	 20			; 00000014H
  0010c	e8 00 00 00 00	 call	 ?SaveRenderState@CStateManager@@QAEXW4_D3DRENDERSTATETYPE@@K@Z ; CStateManager::SaveRenderState

; 537  : 	DWORD dwFogEnable = STATEMANAGER.GetRenderState(D3DRS_FOGENABLE);

  00111	8b 0d 00 00 00
	00		 mov	 ecx, DWORD PTR ?ms_singleton@?$CSingleton@VCStateManager@@@@0PAVCStateManager@@A ; CSingleton<CStateManager>::ms_singleton
  00117	6a 1c		 push	 28			; 0000001cH
  00119	e8 00 00 00 00	 call	 ?GetRenderState@CStateManager@@QAEKW4_D3DRENDERSTATETYPE@@@Z ; CStateManager::GetRenderState

; 538  : 	DWORD dwLighting = STATEMANAGER.GetRenderState(D3DRS_LIGHTING);

  0011e	8b 0d 00 00 00
	00		 mov	 ecx, DWORD PTR ?ms_singleton@?$CSingleton@VCStateManager@@@@0PAVCStateManager@@A ; CSingleton<CStateManager>::ms_singleton
  00124	68 89 00 00 00	 push	 137			; 00000089H
  00129	89 85 50 ff ff
	ff		 mov	 DWORD PTR _dwFogEnable$1$[ebp], eax
  0012f	e8 00 00 00 00	 call	 ?GetRenderState@CStateManager@@QAEKW4_D3DRENDERSTATETYPE@@@Z ; CStateManager::GetRenderState

; 539  : 	STATEMANAGER.SetRenderState(D3DRS_FOGENABLE, FALSE);

  00134	8b 0d 00 00 00
	00		 mov	 ecx, DWORD PTR ?ms_singleton@?$CSingleton@VCStateManager@@@@0PAVCStateManager@@A ; CSingleton<CStateManager>::ms_singleton
  0013a	6a 00		 push	 0
  0013c	6a 1c		 push	 28			; 0000001cH
  0013e	89 85 4c ff ff
	ff		 mov	 DWORD PTR _dwLighting$1$[ebp], eax
  00144	e8 00 00 00 00	 call	 ?SetRenderState@CStateManager@@QAEXW4_D3DRENDERSTATETYPE@@K@Z ; CStateManager::SetRenderState

; 540  : 	STATEMANAGER.SetRenderState(D3DRS_LIGHTING, FALSE);

  00149	8b 0d 00 00 00
	00		 mov	 ecx, DWORD PTR ?ms_singleton@?$CSingleton@VCStateManager@@@@0PAVCStateManager@@A ; CSingleton<CStateManager>::ms_singleton
  0014f	6a 00		 push	 0
  00151	68 89 00 00 00	 push	 137			; 00000089H
  00156	e8 00 00 00 00	 call	 ?SetRenderState@CStateManager@@QAEXW4_D3DRENDERSTATETYPE@@K@Z ; CStateManager::SetRenderState

; 541  : 
; 542  : 	STATEMANAGER.SetVertexShader(D3DFVF_XYZ|D3DFVF_DIFFUSE|D3DFVF_TEX1);

  0015b	8b 0d 00 00 00
	00		 mov	 ecx, DWORD PTR ?ms_singleton@?$CSingleton@VCStateManager@@@@0PAVCStateManager@@A ; CSingleton<CStateManager>::ms_singleton
  00161	68 42 01 00 00	 push	 322			; 00000142H
  00166	e8 00 00 00 00	 call	 ?SetVertexShader@CStateManager@@QAEXK@Z ; CStateManager::SetVertexShader

; 543  : 	STATEMANAGER.SetTextureStageState(0, D3DTSS_COLORARG1,	D3DTA_TEXTURE);

  0016b	8b 0d 00 00 00
	00		 mov	 ecx, DWORD PTR ?ms_singleton@?$CSingleton@VCStateManager@@@@0PAVCStateManager@@A ; CSingleton<CStateManager>::ms_singleton
  00171	6a 02		 push	 2
  00173	6a 02		 push	 2
  00175	6a 00		 push	 0
  00177	e8 00 00 00 00	 call	 ?SetTextureStageState@CStateManager@@QAEXKW4_D3DTEXTURESTAGESTATETYPE@@K@Z ; CStateManager::SetTextureStageState

; 544  : 	STATEMANAGER.SetTextureStageState(0, D3DTSS_COLORARG2,	D3DTA_DIFFUSE);

  0017c	8b 0d 00 00 00
	00		 mov	 ecx, DWORD PTR ?ms_singleton@?$CSingleton@VCStateManager@@@@0PAVCStateManager@@A ; CSingleton<CStateManager>::ms_singleton
  00182	6a 00		 push	 0
  00184	6a 03		 push	 3
  00186	6a 00		 push	 0
  00188	e8 00 00 00 00	 call	 ?SetTextureStageState@CStateManager@@QAEXKW4_D3DTEXTURESTAGESTATETYPE@@K@Z ; CStateManager::SetTextureStageState

; 545  : 	STATEMANAGER.SetTextureStageState(0, D3DTSS_COLOROP,	D3DTOP_MODULATE);

  0018d	8b 0d 00 00 00
	00		 mov	 ecx, DWORD PTR ?ms_singleton@?$CSingleton@VCStateManager@@@@0PAVCStateManager@@A ; CSingleton<CStateManager>::ms_singleton
  00193	6a 04		 push	 4
  00195	6a 01		 push	 1
  00197	6a 00		 push	 0
  00199	e8 00 00 00 00	 call	 ?SetTextureStageState@CStateManager@@QAEXKW4_D3DTEXTURESTAGESTATETYPE@@K@Z ; CStateManager::SetTextureStageState

; 546  : 	STATEMANAGER.SetTextureStageState(0, D3DTSS_ALPHAARG1,	D3DTA_TEXTURE);

  0019e	8b 0d 00 00 00
	00		 mov	 ecx, DWORD PTR ?ms_singleton@?$CSingleton@VCStateManager@@@@0PAVCStateManager@@A ; CSingleton<CStateManager>::ms_singleton
  001a4	6a 02		 push	 2
  001a6	6a 05		 push	 5
  001a8	6a 00		 push	 0
  001aa	e8 00 00 00 00	 call	 ?SetTextureStageState@CStateManager@@QAEXKW4_D3DTEXTURESTAGESTATETYPE@@K@Z ; CStateManager::SetTextureStageState

; 547  : 	STATEMANAGER.SetTextureStageState(0, D3DTSS_ALPHAARG2,	D3DTA_DIFFUSE);

  001af	8b 0d 00 00 00
	00		 mov	 ecx, DWORD PTR ?ms_singleton@?$CSingleton@VCStateManager@@@@0PAVCStateManager@@A ; CSingleton<CStateManager>::ms_singleton
  001b5	6a 00		 push	 0
  001b7	6a 06		 push	 6
  001b9	6a 00		 push	 0
  001bb	e8 00 00 00 00	 call	 ?SetTextureStageState@CStateManager@@QAEXKW4_D3DTEXTURESTAGESTATETYPE@@K@Z ; CStateManager::SetTextureStageState

; 548  : 	STATEMANAGER.SetTextureStageState(0, D3DTSS_ALPHAOP,	D3DTOP_MODULATE);

  001c0	8b 0d 00 00 00
	00		 mov	 ecx, DWORD PTR ?ms_singleton@?$CSingleton@VCStateManager@@@@0PAVCStateManager@@A ; CSingleton<CStateManager>::ms_singleton
  001c6	6a 04		 push	 4
  001c8	6a 04		 push	 4
  001ca	6a 00		 push	 0
  001cc	e8 00 00 00 00	 call	 ?SetTextureStageState@CStateManager@@QAEXKW4_D3DTEXTURESTAGESTATETYPE@@K@Z ; CStateManager::SetTextureStageState

; 549  : 
; 550  : 	{
; 551  : 		const float fFontHalfWeight=1.0f;
; 552  : 
; 553  : 		float fCurX;
; 554  : 		float fCurY;
; 555  : 
; 556  : 		float fFontSx;
; 557  : 		float fFontSy;
; 558  : 		float fFontEx;
; 559  : 		float fFontEy;
; 560  : 		float fFontWidth;
; 561  : 		float fFontHeight;
; 562  : 		float fFontMaxHeight;
; 563  : 		float fFontAdvance;
; 564  : 
; 565  : 		SVertex akVertex[4];
; 566  : 		akVertex[0].z=m_v3Position.z;
; 567  : 		akVertex[1].z=m_v3Position.z;
; 568  : 		akVertex[2].z=m_v3Position.z;
; 569  : 		akVertex[3].z=m_v3Position.z;
; 570  : 
; 571  : 		CGraphicFontTexture::TCharacterInfomation* pCurCharInfo;		
; 572  : 
; 573  : 		// 
; 574  : 		if (m_isOutline)

  001d1	80 7f 1b 00	 cmp	 BYTE PTR [edi+27], 0
  001d5	0f 57 c9	 xorps	 xmm1, xmm1
  001d8	f3 0f 10 47 40	 movss	 xmm0, DWORD PTR [edi+64]
  001dd	f3 0f 11 45 a0	 movss	 DWORD PTR _akVertex$13[ebp+8], xmm0
  001e2	f3 0f 11 45 b8	 movss	 DWORD PTR _akVertex$13[ebp+32], xmm0
  001e7	f3 0f 11 45 d0	 movss	 DWORD PTR _akVertex$13[ebp+56], xmm0
  001ec	f3 0f 11 45 e8	 movss	 DWORD PTR _akVertex$13[ebp+80], xmm0
  001f1	0f 84 5d 03 00
	00		 je	 $LN184@Render

; 576  : 			fCurX=fStanX;

  001f7	f3 0f 10 55 94	 movss	 xmm2, DWORD PTR _fStanX$1$[ebp]

; 577  : 			fCurY=fStanY;

  001fc	f3 0f 10 5d 90	 movss	 xmm3, DWORD PTR _fCurY$2$[ebp]
  00201	0f 28 e2	 movaps	 xmm4, xmm2
; File C:\Program Files (x86)\Microsoft Visual Studio\2019\Community\VC\Tools\MSVC\14.28.29333\include\vector

; 42   :     _Vector_const_iterator(_Tptr _Parg, const _Container_base* _Pvector) noexcept : _Ptr(_Parg) {

  00204	8b 77 4c	 mov	 esi, DWORD PTR [edi+76]
; File D:\Metin2 Server Files\mainline\SRC_2014\Metin2Client\EterLib\GrpTextInstance.cpp

; 576  : 			fCurX=fStanX;

  00207	f3 0f 11 65 88	 movss	 DWORD PTR _fCurX$1$[ebp], xmm4

; 577  : 			fCurY=fStanY;

  0020c	f3 0f 11 5d 8c	 movss	 DWORD PTR _fCurY$1$[ebp], xmm3
; File C:\Program Files (x86)\Microsoft Visual Studio\2019\Community\VC\Tools\MSVC\14.28.29333\include\vector

; 42   :     _Vector_const_iterator(_Tptr _Parg, const _Container_base* _Pvector) noexcept : _Ptr(_Parg) {

  00211	3b 77 50	 cmp	 esi, DWORD PTR [edi+80]
; File D:\Metin2 Server Files\mainline\SRC_2014\Metin2Client\EterLib\GrpTextInstance.cpp

; 581  : 			for (i=m_pCharInfoVector.begin(); i!=m_pCharInfoVector.end(); ++i)

  00214	0f 84 3a 03 00
	00		 je	 $LN184@Render
  0021a	66 0f 1f 44 00
	00		 npad	 6
$LL74@Render:

; 582  : 			{
; 583  : 				pCurCharInfo = *i;

  00220	8b 0e		 mov	 ecx, DWORD PTR [esi]
  00222	89 8d 58 ff ff
	ff		 mov	 DWORD PTR _pCurCharInfo$1$[ebp], ecx

; 584  : 
; 585  : 				fFontWidth=float(pCurCharInfo->width);

  00228	0f bf 41 02	 movsx	 eax, WORD PTR [ecx+2]

; 586  : 				fFontHeight=float(pCurCharInfo->height);
; 587  : 				fFontAdvance=float(pCurCharInfo->advance);

  0022c	f3 0f 10 41 18	 movss	 xmm0, DWORD PTR [ecx+24]
  00231	f3 0f 11 85 74
	ff ff ff	 movss	 DWORD PTR tv2007[ebp], xmm0
  00239	66 0f 6e e8	 movd	 xmm5, eax
  0023d	0f bf 41 04	 movsx	 eax, WORD PTR [ecx+4]
  00241	0f 5b ed	 cvtdq2ps xmm5, xmm5
  00244	66 0f 6e f0	 movd	 xmm6, eax

; 588  : 
; 589  : 				// NOTE :   Width  . - [levites]
; 590  : 				if ((fCurX+fFontWidth)-m_v3Position.x > m_fLimitWidth)

  00248	0f 28 c5	 movaps	 xmm0, xmm5
  0024b	f3 0f 58 c4	 addss	 xmm0, xmm4
  0024f	0f 5b f6	 cvtdq2ps xmm6, xmm6
  00252	f3 0f 5c 47 38	 subss	 xmm0, DWORD PTR [edi+56]
  00257	0f 2f 47 14	 comiss	 xmm0, DWORD PTR [edi+20]
  0025b	76 1b		 jbe	 SHORT $LN32@Render

; 591  : 				{
; 592  : 					if (m_isMultiLine)

  0025d	80 7f 1a 00	 cmp	 BYTE PTR [edi+26], 0
  00261	0f 84 ed 02 00
	00		 je	 $LN184@Render

; 593  : 					{
; 594  : 						fCurX=fStanX;
; 595  : 						fCurY+=fFontMaxHeight;

  00267	f3 0f 58 d9	 addss	 xmm3, xmm1
  0026b	0f 28 e2	 movaps	 xmm4, xmm2
  0026e	f3 0f 11 65 88	 movss	 DWORD PTR _fCurX$1$[ebp], xmm4
  00273	f3 0f 11 5d 8c	 movss	 DWORD PTR _fCurY$1$[ebp], xmm3
$LN32@Render:

; 596  : 					}
; 597  : 					else
; 598  : 					{
; 599  : 						break;
; 600  : 					}
; 601  : 				}
; 602  : 
; 603  : 				if (pClipRect)

  00278	8b 43 08	 mov	 eax, DWORD PTR _pClipRect$[ebx]
  0027b	85 c0		 test	 eax, eax
  0027d	74 11		 je	 SHORT $LN34@Render

; 604  : 				{
; 605  : 					if (fCurY <= pClipRect->top)

  0027f	66 0f 6e 40 04	 movd	 xmm0, DWORD PTR [eax+4]
  00284	0f 5b c0	 cvtdq2ps xmm0, xmm0
  00287	0f 2f c3	 comiss	 xmm0, xmm3
  0028a	0f 83 ab 02 00
	00		 jae	 $LN8@Render
$LN34@Render:

; 606  : 					{
; 607  : 						fCurX += fFontAdvance;
; 608  : 						continue;
; 609  : 					}
; 610  : 				}
; 611  : 
; 612  : 				fFontSx = fCurX - 0.5f;
; 613  : 				fFontSy = fCurY - 0.5f;
; 614  : 				fFontEx = fFontSx + fFontWidth;
; 615  : 				fFontEy = fFontSy + fFontHeight;
; 616  : 
; 617  : 				pFontTexture->SelectTexture(pCurCharInfo->index);

  00290	0f bf 01	 movsx	 eax, WORD PTR [ecx]
  00293	0f 28 cc	 movaps	 xmm1, xmm4
  00296	f3 0f 5c 0d 00
	00 00 00	 subss	 xmm1, DWORD PTR __real@3f000000
  0029e	8b 4d 84	 mov	 ecx, DWORD PTR _pFontTexture$1$[ebp]
  002a1	0f 28 c3	 movaps	 xmm0, xmm3
  002a4	f3 0f 5c 05 00
	00 00 00	 subss	 xmm0, DWORD PTR __real@3f000000
  002ac	50		 push	 eax
  002ad	f3 0f 11 8d 5c
	ff ff ff	 movss	 DWORD PTR _fFontSx$1$[ebp], xmm1
  002b5	f3 0f 58 cd	 addss	 xmm1, xmm5
  002b9	f3 0f 11 85 7c
	ff ff ff	 movss	 DWORD PTR _fFontSy$1$[ebp], xmm0
  002c1	f3 0f 58 c6	 addss	 xmm0, xmm6
  002c5	f3 0f 11 4d 80	 movss	 DWORD PTR _fFontEx$1$[ebp], xmm1
  002ca	f3 0f 11 85 78
	ff ff ff	 movss	 DWORD PTR _fFontEy$1$[ebp], xmm0
  002d2	e8 00 00 00 00	 call	 ?SelectTexture@CGraphicFontTexture@@QAEXK@Z ; CGraphicFontTexture::SelectTexture

; 618  : 				STATEMANAGER.SetTexture(0, pFontTexture->GetD3DTexture());

  002d7	8b 4d 84	 mov	 ecx, DWORD PTR _pFontTexture$1$[ebp]
  002da	e8 00 00 00 00	 call	 ?GetD3DTexture@CGraphicTexture@@QBEPAUIDirect3DTexture8@@XZ ; CGraphicTexture::GetD3DTexture
  002df	8b 0d 00 00 00
	00		 mov	 ecx, DWORD PTR ?ms_singleton@?$CSingleton@VCStateManager@@@@0PAVCStateManager@@A ; CSingleton<CStateManager>::ms_singleton
  002e5	50		 push	 eax
  002e6	6a 00		 push	 0
  002e8	e8 00 00 00 00	 call	 ?SetTexture@CStateManager@@QAEXKPAUIDirect3DBaseTexture8@@@Z ; CStateManager::SetTexture

; 619  : 
; 620  : 				akVertex[0].u=pCurCharInfo->left;

  002ed	8b 85 58 ff ff
	ff		 mov	 eax, DWORD PTR _pCurCharInfo$1$[ebp]
  002f3	0f 57 d2	 xorps	 xmm2, xmm2

; 621  : 				akVertex[0].v=pCurCharInfo->top;
; 622  : 				akVertex[1].u=pCurCharInfo->left;
; 623  : 				akVertex[1].v=pCurCharInfo->bottom;
; 624  : 				akVertex[2].u=pCurCharInfo->right;
; 625  : 				akVertex[2].v=pCurCharInfo->top;
; 626  : 				akVertex[3].u=pCurCharInfo->right;
; 627  : 				akVertex[3].v=pCurCharInfo->bottom;
; 628  : 
; 629  : 				akVertex[3].color = akVertex[2].color = akVertex[1].color = akVertex[0].color = m_dwOutLineColor;
; 630  : 
; 631  : 				
; 632  : 				float feather = 0.0f; // m_fFontFeather
; 633  : 				
; 634  : 				akVertex[0].y=fFontSy-feather;

  002f6	f3 0f 10 8d 7c
	ff ff ff	 movss	 xmm1, DWORD PTR _fFontSy$1$[ebp]
  002fe	f3 0f 5c ca	 subss	 xmm1, xmm2

; 635  : 				akVertex[1].y=fFontEy+feather;
; 636  : 				akVertex[2].y=fFontSy-feather;
; 637  : 				akVertex[3].y=fFontEy+feather;
; 638  : 
; 639  : 				// 
; 640  : 				akVertex[0].x=fFontSx-fFontHalfWeight-feather;
; 641  : 				akVertex[1].x=fFontSx-fFontHalfWeight-feather;
; 642  : 				akVertex[2].x=fFontEx-fFontHalfWeight+feather;
; 643  : 				akVertex[3].x=fFontEx-fFontHalfWeight+feather;
; 644  : 				
; 645  : 				if (CGraphicBase::SetPDTStream((SPDTVertex*)akVertex, 4))

  00302	6a 04		 push	 4
  00304	f3 0f 10 40 08	 movss	 xmm0, DWORD PTR [eax+8]
  00309	f3 0f 11 45 a8	 movss	 DWORD PTR _akVertex$13[ebp+16], xmm0
  0030e	f3 0f 10 40 0c	 movss	 xmm0, DWORD PTR [eax+12]
  00313	f3 0f 11 45 ac	 movss	 DWORD PTR _akVertex$13[ebp+20], xmm0
  00318	f3 0f 10 40 08	 movss	 xmm0, DWORD PTR [eax+8]
  0031d	f3 0f 11 45 c0	 movss	 DWORD PTR _akVertex$13[ebp+40], xmm0
  00322	f3 0f 10 40 14	 movss	 xmm0, DWORD PTR [eax+20]
  00327	f3 0f 11 45 c4	 movss	 DWORD PTR _akVertex$13[ebp+44], xmm0
  0032c	f3 0f 10 40 10	 movss	 xmm0, DWORD PTR [eax+16]
  00331	f3 0f 11 45 d8	 movss	 DWORD PTR _akVertex$13[ebp+64], xmm0
  00336	f3 0f 10 40 0c	 movss	 xmm0, DWORD PTR [eax+12]
  0033b	f3 0f 11 45 dc	 movss	 DWORD PTR _akVertex$13[ebp+68], xmm0
  00340	f3 0f 10 40 10	 movss	 xmm0, DWORD PTR [eax+16]
  00345	f3 0f 11 45 f0	 movss	 DWORD PTR _akVertex$13[ebp+88], xmm0
  0034a	f3 0f 10 40 14	 movss	 xmm0, DWORD PTR [eax+20]
  0034f	f3 0f 11 45 f4	 movss	 DWORD PTR _akVertex$13[ebp+92], xmm0
  00354	f3 0f 10 85 78
	ff ff ff	 movss	 xmm0, DWORD PTR _fFontEy$1$[ebp]
  0035c	f3 0f 58 c2	 addss	 xmm0, xmm2
  00360	8b 47 08	 mov	 eax, DWORD PTR [edi+8]
  00363	89 45 a4	 mov	 DWORD PTR _akVertex$13[ebp+12], eax
  00366	89 45 bc	 mov	 DWORD PTR _akVertex$13[ebp+36], eax
  00369	89 45 d4	 mov	 DWORD PTR _akVertex$13[ebp+60], eax
  0036c	89 45 ec	 mov	 DWORD PTR _akVertex$13[ebp+84], eax
  0036f	8d 45 98	 lea	 eax, DWORD PTR _akVertex$13[ebp]
  00372	f3 0f 11 45 b4	 movss	 DWORD PTR _akVertex$13[ebp+28], xmm0
  00377	f3 0f 11 45 e4	 movss	 DWORD PTR _akVertex$13[ebp+76], xmm0
  0037c	f3 0f 10 85 5c
	ff ff ff	 movss	 xmm0, DWORD PTR _fFontSx$1$[ebp]
  00384	f3 0f 5c 05 00
	00 00 00	 subss	 xmm0, DWORD PTR __real@3f800000
  0038c	50		 push	 eax
  0038d	f3 0f 11 4d 9c	 movss	 DWORD PTR _akVertex$13[ebp+4], xmm1
  00392	f3 0f 11 4d cc	 movss	 DWORD PTR _akVertex$13[ebp+52], xmm1
  00397	f3 0f 5c c2	 subss	 xmm0, xmm2
  0039b	f3 0f 11 45 98	 movss	 DWORD PTR _akVertex$13[ebp], xmm0
  003a0	f3 0f 11 45 b0	 movss	 DWORD PTR _akVertex$13[ebp+24], xmm0
  003a5	f3 0f 10 45 80	 movss	 xmm0, DWORD PTR _fFontEx$1$[ebp]
  003aa	f3 0f 5c 05 00
	00 00 00	 subss	 xmm0, DWORD PTR __real@3f800000
  003b2	f3 0f 58 c2	 addss	 xmm0, xmm2
  003b6	f3 0f 11 45 c8	 movss	 DWORD PTR _akVertex$13[ebp+48], xmm0
  003bb	f3 0f 11 45 e0	 movss	 DWORD PTR _akVertex$13[ebp+72], xmm0
  003c0	e8 00 00 00 00	 call	 ?SetPDTStream@CGraphicBase@@SA_NPAUSPDTVertex@@I@Z ; CGraphicBase::SetPDTStream
  003c5	83 c4 08	 add	 esp, 8
  003c8	84 c0		 test	 al, al
  003ca	74 11		 je	 SHORT $LN35@Render

; 646  : 					STATEMANAGER.DrawPrimitive(D3DPT_TRIANGLESTRIP, 0, 2);

  003cc	8b 0d 00 00 00
	00		 mov	 ecx, DWORD PTR ?ms_singleton@?$CSingleton@VCStateManager@@@@0PAVCStateManager@@A ; CSingleton<CStateManager>::ms_singleton
  003d2	6a 02		 push	 2
  003d4	6a 00		 push	 0
  003d6	6a 05		 push	 5
  003d8	e8 00 00 00 00	 call	 ?DrawPrimitive@CStateManager@@QAEJW4_D3DPRIMITIVETYPE@@II@Z ; CStateManager::DrawPrimitive
$LN35@Render:

; 647  : 				
; 648  : 
; 649  : 				// 
; 650  : 				akVertex[0].x=fFontSx+fFontHalfWeight-feather;

  003dd	f3 0f 10 85 5c
	ff ff ff	 movss	 xmm0, DWORD PTR _fFontSx$1$[ebp]

; 651  : 				akVertex[1].x=fFontSx+fFontHalfWeight-feather;
; 652  : 				akVertex[2].x=fFontEx+fFontHalfWeight+feather;
; 653  : 				akVertex[3].x=fFontEx+fFontHalfWeight+feather;
; 654  : 
; 655  : 				if (CGraphicBase::SetPDTStream((SPDTVertex*)akVertex, 4))

  003e5	8d 45 98	 lea	 eax, DWORD PTR _akVertex$13[ebp]
  003e8	f3 0f 58 05 00
	00 00 00	 addss	 xmm0, DWORD PTR __real@3f800000
  003f0	0f 57 c9	 xorps	 xmm1, xmm1
  003f3	6a 04		 push	 4
  003f5	50		 push	 eax
  003f6	f3 0f 5c c1	 subss	 xmm0, xmm1
  003fa	f3 0f 11 45 98	 movss	 DWORD PTR _akVertex$13[ebp], xmm0
  003ff	f3 0f 11 45 b0	 movss	 DWORD PTR _akVertex$13[ebp+24], xmm0
  00404	f3 0f 10 45 80	 movss	 xmm0, DWORD PTR _fFontEx$1$[ebp]
  00409	f3 0f 58 05 00
	00 00 00	 addss	 xmm0, DWORD PTR __real@3f800000
  00411	f3 0f 58 c1	 addss	 xmm0, xmm1
  00415	f3 0f 11 45 c8	 movss	 DWORD PTR _akVertex$13[ebp+48], xmm0
  0041a	f3 0f 11 45 e0	 movss	 DWORD PTR _akVertex$13[ebp+72], xmm0
  0041f	e8 00 00 00 00	 call	 ?SetPDTStream@CGraphicBase@@SA_NPAUSPDTVertex@@I@Z ; CGraphicBase::SetPDTStream
  00424	83 c4 08	 add	 esp, 8
  00427	84 c0		 test	 al, al
  00429	74 11		 je	 SHORT $LN36@Render

; 656  : 					STATEMANAGER.DrawPrimitive(D3DPT_TRIANGLESTRIP, 0, 2);

  0042b	8b 0d 00 00 00
	00		 mov	 ecx, DWORD PTR ?ms_singleton@?$CSingleton@VCStateManager@@@@0PAVCStateManager@@A ; CSingleton<CStateManager>::ms_singleton
  00431	6a 02		 push	 2
  00433	6a 00		 push	 0
  00435	6a 05		 push	 5
  00437	e8 00 00 00 00	 call	 ?DrawPrimitive@CStateManager@@QAEJW4_D3DPRIMITIVETYPE@@II@Z ; CStateManager::DrawPrimitive
$LN36@Render:

; 657  : 				
; 658  : 				akVertex[0].x=fFontSx-feather;

  0043c	f3 0f 10 85 5c
	ff ff ff	 movss	 xmm0, DWORD PTR _fFontSx$1$[ebp]

; 659  : 				akVertex[1].x=fFontSx-feather;
; 660  : 				akVertex[2].x=fFontEx+feather;
; 661  : 				akVertex[3].x=fFontEx+feather;
; 662  : 				
; 663  : 				// 
; 664  : 				akVertex[0].y=fFontSy-fFontHalfWeight-feather;
; 665  : 				akVertex[1].y=fFontEy-fFontHalfWeight+feather;
; 666  : 				akVertex[2].y=fFontSy-fFontHalfWeight-feather;
; 667  : 				akVertex[3].y=fFontEy-fFontHalfWeight+feather;
; 668  : 
; 669  : 				// 20041216.myevan.DrawPrimitiveUP
; 670  : 				if (CGraphicBase::SetPDTStream((SPDTVertex*)akVertex, 4))

  00444	8d 45 98	 lea	 eax, DWORD PTR _akVertex$13[ebp]
  00447	f3 0f 10 8d 7c
	ff ff ff	 movss	 xmm1, DWORD PTR _fFontSy$1$[ebp]
  0044f	0f 57 d2	 xorps	 xmm2, xmm2
  00452	f3 0f 5c 0d 00
	00 00 00	 subss	 xmm1, DWORD PTR __real@3f800000
  0045a	f3 0f 5c c2	 subss	 xmm0, xmm2
  0045e	6a 04		 push	 4
  00460	50		 push	 eax
  00461	f3 0f 5c ca	 subss	 xmm1, xmm2
  00465	f3 0f 11 45 98	 movss	 DWORD PTR _akVertex$13[ebp], xmm0
  0046a	f3 0f 11 45 b0	 movss	 DWORD PTR _akVertex$13[ebp+24], xmm0
  0046f	f3 0f 10 45 80	 movss	 xmm0, DWORD PTR _fFontEx$1$[ebp]
  00474	f3 0f 58 c2	 addss	 xmm0, xmm2
  00478	f3 0f 11 4d 9c	 movss	 DWORD PTR _akVertex$13[ebp+4], xmm1
  0047d	f3 0f 11 4d cc	 movss	 DWORD PTR _akVertex$13[ebp+52], xmm1
  00482	f3 0f 11 45 c8	 movss	 DWORD PTR _akVertex$13[ebp+48], xmm0
  00487	f3 0f 11 45 e0	 movss	 DWORD PTR _akVertex$13[ebp+72], xmm0
  0048c	f3 0f 10 85 78
	ff ff ff	 movss	 xmm0, DWORD PTR _fFontEy$1$[ebp]
  00494	f3 0f 5c 05 00
	00 00 00	 subss	 xmm0, DWORD PTR __real@3f800000
  0049c	f3 0f 58 c2	 addss	 xmm0, xmm2
  004a0	f3 0f 11 45 b4	 movss	 DWORD PTR _akVertex$13[ebp+28], xmm0
  004a5	f3 0f 11 45 e4	 movss	 DWORD PTR _akVertex$13[ebp+76], xmm0
  004aa	e8 00 00 00 00	 call	 ?SetPDTStream@CGraphicBase@@SA_NPAUSPDTVertex@@I@Z ; CGraphicBase::SetPDTStream
  004af	83 c4 08	 add	 esp, 8
  004b2	84 c0		 test	 al, al
  004b4	74 11		 je	 SHORT $LN37@Render

; 671  : 					STATEMANAGER.DrawPrimitive(D3DPT_TRIANGLESTRIP, 0, 2);

  004b6	8b 0d 00 00 00
	00		 mov	 ecx, DWORD PTR ?ms_singleton@?$CSingleton@VCStateManager@@@@0PAVCStateManager@@A ; CSingleton<CStateManager>::ms_singleton
  004bc	6a 02		 push	 2
  004be	6a 00		 push	 0
  004c0	6a 05		 push	 5
  004c2	e8 00 00 00 00	 call	 ?DrawPrimitive@CStateManager@@QAEJW4_D3DPRIMITIVETYPE@@II@Z ; CStateManager::DrawPrimitive
$LN37@Render:

; 672  : 				
; 673  : 				// 
; 674  : 				akVertex[0].y=fFontSy+fFontHalfWeight-feather;

  004c7	f3 0f 10 85 7c
	ff ff ff	 movss	 xmm0, DWORD PTR _fFontSy$1$[ebp]

; 675  : 				akVertex[1].y=fFontEy+fFontHalfWeight+feather;
; 676  : 				akVertex[2].y=fFontSy+fFontHalfWeight-feather;
; 677  : 				akVertex[3].y=fFontEy+fFontHalfWeight+feather;
; 678  : 
; 679  : 				// 20041216.myevan.DrawPrimitiveUP
; 680  : 				if (CGraphicBase::SetPDTStream((SPDTVertex*)akVertex, 4))

  004cf	8d 45 98	 lea	 eax, DWORD PTR _akVertex$13[ebp]
  004d2	f3 0f 10 95 78
	ff ff ff	 movss	 xmm2, DWORD PTR _fFontEy$1$[ebp]
  004da	0f 57 c9	 xorps	 xmm1, xmm1
  004dd	f3 0f 58 05 00
	00 00 00	 addss	 xmm0, DWORD PTR __real@3f800000
  004e5	f3 0f 58 15 00
	00 00 00	 addss	 xmm2, DWORD PTR __real@3f800000
  004ed	6a 04		 push	 4
  004ef	50		 push	 eax
  004f0	f3 0f 5c c1	 subss	 xmm0, xmm1
  004f4	f3 0f 58 d1	 addss	 xmm2, xmm1
  004f8	f3 0f 11 45 9c	 movss	 DWORD PTR _akVertex$13[ebp+4], xmm0
  004fd	f3 0f 11 55 b4	 movss	 DWORD PTR _akVertex$13[ebp+28], xmm2
  00502	f3 0f 11 45 cc	 movss	 DWORD PTR _akVertex$13[ebp+52], xmm0
  00507	f3 0f 11 55 e4	 movss	 DWORD PTR _akVertex$13[ebp+76], xmm2
  0050c	e8 00 00 00 00	 call	 ?SetPDTStream@CGraphicBase@@SA_NPAUSPDTVertex@@I@Z ; CGraphicBase::SetPDTStream
  00511	83 c4 08	 add	 esp, 8
  00514	84 c0		 test	 al, al
  00516	74 11		 je	 SHORT $LN186@Render

; 681  : 					STATEMANAGER.DrawPrimitive(D3DPT_TRIANGLESTRIP, 0, 2);

  00518	8b 0d 00 00 00
	00		 mov	 ecx, DWORD PTR ?ms_singleton@?$CSingleton@VCStateManager@@@@0PAVCStateManager@@A ; CSingleton<CStateManager>::ms_singleton
  0051e	6a 02		 push	 2
  00520	6a 00		 push	 0
  00522	6a 05		 push	 5
  00524	e8 00 00 00 00	 call	 ?DrawPrimitive@CStateManager@@QAEJW4_D3DPRIMITIVETYPE@@II@Z ; CStateManager::DrawPrimitive
$LN186@Render:
; File C:\Program Files (x86)\Microsoft Visual Studio\2019\Community\VC\Tools\MSVC\14.28.29333\include\vector

; 75   :         ++_Ptr;

  00529	f3 0f 10 65 88	 movss	 xmm4, DWORD PTR _fCurX$1$[ebp]
  0052e	0f 57 c9	 xorps	 xmm1, xmm1
  00531	f3 0f 10 5d 8c	 movss	 xmm3, DWORD PTR _fCurY$1$[ebp]
  00536	f3 0f 10 55 94	 movss	 xmm2, DWORD PTR _fStanX$1$[ebp]
$LN8@Render:
  0053b	f3 0f 58 a5 74
	ff ff ff	 addss	 xmm4, DWORD PTR tv2007[ebp]
  00543	83 c6 04	 add	 esi, 4

; 42   :     _Vector_const_iterator(_Tptr _Parg, const _Container_base* _Pvector) noexcept : _Ptr(_Parg) {

  00546	f3 0f 11 65 88	 movss	 DWORD PTR _fCurX$1$[ebp], xmm4

; 149  :         return _Ptr == _Right._Ptr;

  0054b	3b 77 50	 cmp	 esi, DWORD PTR [edi+80]
; File D:\Metin2 Server Files\mainline\SRC_2014\Metin2Client\EterLib\GrpTextInstance.cpp

; 581  : 			for (i=m_pCharInfoVector.begin(); i!=m_pCharInfoVector.end(); ++i)

  0054e	0f 85 cc fc ff
	ff		 jne	 $LL74@Render
$LN184@Render:
; File C:\Program Files (x86)\Microsoft Visual Studio\2019\Community\VC\Tools\MSVC\14.28.29333\include\vector

; 1484 :         return static_cast<size_type>(_My_data._Mylast - _My_data._Myfirst);

  00554	8b 47 50	 mov	 eax, DWORD PTR [edi+80]
; File D:\Metin2 Server Files\mainline\SRC_2014\Metin2Client\EterLib\GrpTextInstance.cpp

; 692  : 		for (int i = 0; i < m_pCharInfoVector.size(); ++i)

  00557	33 f6		 xor	 esi, esi
; File C:\Program Files (x86)\Microsoft Visual Studio\2019\Community\VC\Tools\MSVC\14.28.29333\include\vector

; 1484 :         return static_cast<size_type>(_My_data._Mylast - _My_data._Myfirst);

  00559	8b 4f 4c	 mov	 ecx, DWORD PTR [edi+76]
  0055c	2b c1		 sub	 eax, ecx
; File D:\Metin2 Server Files\mainline\SRC_2014\Metin2Client\EterLib\GrpTextInstance.cpp

; 688  : 		fCurX=fStanX;

  0055e	f3 0f 10 4d 94	 movss	 xmm1, DWORD PTR _fStanX$1$[ebp]
; File C:\Program Files (x86)\Microsoft Visual Studio\2019\Community\VC\Tools\MSVC\14.28.29333\include\vector

; 1484 :         return static_cast<size_type>(_My_data._Mylast - _My_data._Myfirst);

  00563	c1 f8 02	 sar	 eax, 2
; File D:\Metin2 Server Files\mainline\SRC_2014\Metin2Client\EterLib\GrpTextInstance.cpp

; 688  : 		fCurX=fStanX;

  00566	0f 28 d9	 movaps	 xmm3, xmm1
  00569	f3 0f 11 5d 88	 movss	 DWORD PTR _fCurX$2$[ebp], xmm3

; 692  : 		for (int i = 0; i < m_pCharInfoVector.size(); ++i)

  0056e	89 75 8c	 mov	 DWORD PTR _i$1$[ebp], esi
  00571	85 c0		 test	 eax, eax
  00573	0f 84 e1 01 00
	00		 je	 $LN185@Render
  00579	0f 1f 80 00 00
	00 00		 npad	 7
$LL13@Render:

; 693  : 		{
; 694  : 			pCurCharInfo = m_pCharInfoVector[i];

  00580	8b 34 b1	 mov	 esi, DWORD PTR [ecx+esi*4]

; 695  : 
; 696  : 			fFontWidth=float(pCurCharInfo->width);

  00583	0f bf 46 02	 movsx	 eax, WORD PTR [esi+2]

; 697  : 			fFontHeight=float(pCurCharInfo->height);
; 698  : 			fFontMaxHeight=max(fFontHeight, pCurCharInfo->height);
; 699  : 			fFontAdvance=float(pCurCharInfo->advance);

  00587	f3 0f 10 46 18	 movss	 xmm0, DWORD PTR [esi+24]
  0058c	f3 0f 11 45 80	 movss	 DWORD PTR tv2045[ebp], xmm0
  00591	66 0f 6e e8	 movd	 xmm5, eax
  00595	0f bf 46 04	 movsx	 eax, WORD PTR [esi+4]
  00599	0f 5b ed	 cvtdq2ps xmm5, xmm5
  0059c	66 0f 6e e0	 movd	 xmm4, eax

; 700  : 
; 701  : 			// NOTE :   Width  . - [levites]
; 702  : 			if ((fCurX+fFontWidth)-m_v3Position.x > m_fLimitWidth)

  005a0	0f 28 c5	 movaps	 xmm0, xmm5
  005a3	f3 0f 58 c3	 addss	 xmm0, xmm3
  005a7	0f 5b e4	 cvtdq2ps xmm4, xmm4
  005aa	f3 0f 5c 47 38	 subss	 xmm0, DWORD PTR [edi+56]
  005af	0f 2f 47 14	 comiss	 xmm0, DWORD PTR [edi+20]
  005b3	76 25		 jbe	 SHORT $LN188@Render

; 703  : 			{
; 704  : 				if (m_isMultiLine)

  005b5	80 7f 1a 00	 cmp	 BYTE PTR [edi+26], 0
  005b9	0f 84 9b 01 00
	00		 je	 $LN185@Render

; 705  : 				{
; 706  : 					fCurX=fStanX;
; 707  : 					fCurY+=fFontMaxHeight;

  005bf	f3 0f 10 55 90	 movss	 xmm2, DWORD PTR _fCurY$2$[ebp]
  005c4	0f 28 c4	 movaps	 xmm0, xmm4
  005c7	f3 0f 58 d0	 addss	 xmm2, xmm0
  005cb	0f 28 d9	 movaps	 xmm3, xmm1
  005ce	f3 0f 11 5d 88	 movss	 DWORD PTR _fCurX$2$[ebp], xmm3
  005d3	f3 0f 11 55 90	 movss	 DWORD PTR _fCurY$2$[ebp], xmm2
  005d8	eb 05		 jmp	 SHORT $LN41@Render
$LN188@Render:

; 700  : 
; 701  : 			// NOTE :   Width  . - [levites]
; 702  : 			if ((fCurX+fFontWidth)-m_v3Position.x > m_fLimitWidth)

  005da	f3 0f 10 55 90	 movss	 xmm2, DWORD PTR _fCurY$2$[ebp]
$LN41@Render:

; 708  : 				}
; 709  : 				else
; 710  : 				{
; 711  : 					break;
; 712  : 				}
; 713  : 			}
; 714  : 
; 715  : 			if (pClipRect)

  005df	8b 43 08	 mov	 eax, DWORD PTR _pClipRect$[ebx]
  005e2	85 c0		 test	 eax, eax
  005e4	74 11		 je	 SHORT $LN43@Render

; 716  : 			{
; 717  : 				if (fCurY <= pClipRect->top)

  005e6	66 0f 6e 40 04	 movd	 xmm0, DWORD PTR [eax+4]
  005eb	0f 5b c0	 cvtdq2ps xmm0, xmm0
  005ee	0f 2f c2	 comiss	 xmm0, xmm2
  005f1	0f 83 3f 01 00
	00		 jae	 $LN189@Render
$LN43@Render:

; 718  : 				{
; 719  : 					fCurX += fFontAdvance;
; 720  : 					continue;
; 721  : 				}
; 722  : 			}
; 723  : 
; 724  : 			fFontSx = fCurX-0.5f;
; 725  : 			fFontSy = fCurY-0.5f;
; 726  : 			fFontEx = fFontSx + fFontWidth;
; 727  : 			fFontEy = fFontSy + fFontHeight;
; 728  : 
; 729  : 			pFontTexture->SelectTexture(pCurCharInfo->index);

  005f7	0f bf 06	 movsx	 eax, WORD PTR [esi]
  005fa	0f 28 c3	 movaps	 xmm0, xmm3
  005fd	f3 0f 5c 05 00
	00 00 00	 subss	 xmm0, DWORD PTR __real@3f000000
  00605	8b 4d 84	 mov	 ecx, DWORD PTR _pFontTexture$1$[ebp]
  00608	0f 28 ca	 movaps	 xmm1, xmm2
  0060b	f3 0f 5c 0d 00
	00 00 00	 subss	 xmm1, DWORD PTR __real@3f000000
  00613	50		 push	 eax
  00614	f3 0f 11 85 74
	ff ff ff	 movss	 DWORD PTR _fFontSx$2$[ebp], xmm0
  0061c	f3 0f 58 c5	 addss	 xmm0, xmm5
  00620	f3 0f 11 8d 58
	ff ff ff	 movss	 DWORD PTR _fFontSy$2$[ebp], xmm1
  00628	f3 0f 11 85 7c
	ff ff ff	 movss	 DWORD PTR _fFontEx$2$[ebp], xmm0
  00630	0f 28 c1	 movaps	 xmm0, xmm1
  00633	f3 0f 58 c4	 addss	 xmm0, xmm4
  00637	f3 0f 11 85 78
	ff ff ff	 movss	 DWORD PTR _fFontEy$2$[ebp], xmm0
  0063f	e8 00 00 00 00	 call	 ?SelectTexture@CGraphicFontTexture@@QAEXK@Z ; CGraphicFontTexture::SelectTexture

; 730  : 			STATEMANAGER.SetTexture(0, pFontTexture->GetD3DTexture());

  00644	8b 4d 84	 mov	 ecx, DWORD PTR _pFontTexture$1$[ebp]
  00647	e8 00 00 00 00	 call	 ?GetD3DTexture@CGraphicTexture@@QBEPAUIDirect3DTexture8@@XZ ; CGraphicTexture::GetD3DTexture
  0064c	8b 0d 00 00 00
	00		 mov	 ecx, DWORD PTR ?ms_singleton@?$CSingleton@VCStateManager@@@@0PAVCStateManager@@A ; CSingleton<CStateManager>::ms_singleton
  00652	50		 push	 eax
  00653	6a 00		 push	 0
  00655	e8 00 00 00 00	 call	 ?SetTexture@CStateManager@@QAEXKPAUIDirect3DBaseTexture8@@@Z ; CStateManager::SetTexture

; 731  : 
; 732  : 			akVertex[0].x=fFontSx;

  0065a	f3 0f 10 8d 74
	ff ff ff	 movss	 xmm1, DWORD PTR _fFontSx$2$[ebp]

; 733  : 			akVertex[0].y=fFontSy;

  00662	f3 0f 10 95 58
	ff ff ff	 movss	 xmm2, DWORD PTR _fFontSy$2$[ebp]

; 734  : 			akVertex[0].u=pCurCharInfo->left;
; 735  : 			akVertex[0].v=pCurCharInfo->top;
; 736  : 
; 737  : 			akVertex[1].x=fFontSx;
; 738  : 			akVertex[1].y=fFontEy;
; 739  : 			akVertex[1].u=pCurCharInfo->left;
; 740  : 			akVertex[1].v=pCurCharInfo->bottom;
; 741  : 
; 742  : 			akVertex[2].x=fFontEx;

  0066a	f3 0f 10 9d 7c
	ff ff ff	 movss	 xmm3, DWORD PTR _fFontEx$2$[ebp]
  00672	f3 0f 11 4d 98	 movss	 DWORD PTR _akVertex$13[ebp], xmm1
  00677	f3 0f 11 55 9c	 movss	 DWORD PTR _akVertex$13[ebp+4], xmm2
  0067c	f3 0f 10 46 08	 movss	 xmm0, DWORD PTR [esi+8]

; 743  : 			akVertex[2].y=fFontSy;
; 744  : 			akVertex[2].u=pCurCharInfo->right;
; 745  : 			akVertex[2].v=pCurCharInfo->top;
; 746  : 
; 747  : 			akVertex[3].x=fFontEx;
; 748  : 			akVertex[3].y=fFontEy;
; 749  : 			akVertex[3].u=pCurCharInfo->right;
; 750  : 			akVertex[3].v=pCurCharInfo->bottom;
; 751  : 
; 752  : 			//m_dwColorInfoVector[i];
; 753  : 			//m_dwTextColor;
; 754  : 			akVertex[0].color = akVertex[1].color = akVertex[2].color = akVertex[3].color = m_dwColorInfoVector[i];

  00681	8b 47 58	 mov	 eax, DWORD PTR [edi+88]
  00684	f3 0f 11 45 a8	 movss	 DWORD PTR _akVertex$13[ebp+16], xmm0
  00689	f3 0f 10 46 0c	 movss	 xmm0, DWORD PTR [esi+12]
  0068e	f3 0f 11 4d b0	 movss	 DWORD PTR _akVertex$13[ebp+24], xmm1
  00693	f3 0f 10 8d 78
	ff ff ff	 movss	 xmm1, DWORD PTR _fFontEy$2$[ebp]
  0069b	f3 0f 11 45 ac	 movss	 DWORD PTR _akVertex$13[ebp+20], xmm0
  006a0	f3 0f 11 4d b4	 movss	 DWORD PTR _akVertex$13[ebp+28], xmm1
  006a5	f3 0f 10 46 08	 movss	 xmm0, DWORD PTR [esi+8]
  006aa	f3 0f 11 45 c0	 movss	 DWORD PTR _akVertex$13[ebp+40], xmm0
  006af	f3 0f 10 46 14	 movss	 xmm0, DWORD PTR [esi+20]
  006b4	f3 0f 11 45 c4	 movss	 DWORD PTR _akVertex$13[ebp+44], xmm0
  006b9	f3 0f 11 5d c8	 movss	 DWORD PTR _akVertex$13[ebp+48], xmm3
  006be	f3 0f 11 55 cc	 movss	 DWORD PTR _akVertex$13[ebp+52], xmm2
  006c3	f3 0f 10 46 10	 movss	 xmm0, DWORD PTR [esi+16]
  006c8	f3 0f 11 45 d8	 movss	 DWORD PTR _akVertex$13[ebp+64], xmm0
  006cd	f3 0f 10 46 0c	 movss	 xmm0, DWORD PTR [esi+12]
  006d2	f3 0f 11 45 dc	 movss	 DWORD PTR _akVertex$13[ebp+68], xmm0
  006d7	f3 0f 11 5d e0	 movss	 DWORD PTR _akVertex$13[ebp+72], xmm3
  006dc	f3 0f 11 4d e4	 movss	 DWORD PTR _akVertex$13[ebp+76], xmm1
  006e1	f3 0f 10 46 10	 movss	 xmm0, DWORD PTR [esi+16]
  006e6	f3 0f 11 45 f0	 movss	 DWORD PTR _akVertex$13[ebp+88], xmm0
  006eb	f3 0f 10 46 14	 movss	 xmm0, DWORD PTR [esi+20]
  006f0	8b 75 8c	 mov	 esi, DWORD PTR _i$1$[ebp]
  006f3	f3 0f 11 45 f4	 movss	 DWORD PTR _akVertex$13[ebp+92], xmm0

; 755  : 
; 756  : 			// 20041216.myevan.DrawPrimitiveUP
; 757  : 			if (CGraphicBase::SetPDTStream((SPDTVertex*)akVertex, 4))

  006f8	6a 04		 push	 4
  006fa	8b 04 b0	 mov	 eax, DWORD PTR [eax+esi*4]
  006fd	89 45 ec	 mov	 DWORD PTR _akVertex$13[ebp+84], eax
  00700	89 45 d4	 mov	 DWORD PTR _akVertex$13[ebp+60], eax
  00703	89 45 bc	 mov	 DWORD PTR _akVertex$13[ebp+36], eax
  00706	89 45 a4	 mov	 DWORD PTR _akVertex$13[ebp+12], eax
  00709	8d 45 98	 lea	 eax, DWORD PTR _akVertex$13[ebp]
  0070c	50		 push	 eax
  0070d	e8 00 00 00 00	 call	 ?SetPDTStream@CGraphicBase@@SA_NPAUSPDTVertex@@I@Z ; CGraphicBase::SetPDTStream
  00712	83 c4 08	 add	 esp, 8
  00715	84 c0		 test	 al, al
  00717	74 11		 je	 SHORT $LN187@Render

; 758  : 				STATEMANAGER.DrawPrimitive(D3DPT_TRIANGLESTRIP, 0, 2);

  00719	8b 0d 00 00 00
	00		 mov	 ecx, DWORD PTR ?ms_singleton@?$CSingleton@VCStateManager@@@@0PAVCStateManager@@A ; CSingleton<CStateManager>::ms_singleton
  0071f	6a 02		 push	 2
  00721	6a 00		 push	 0
  00723	6a 05		 push	 5
  00725	e8 00 00 00 00	 call	 ?DrawPrimitive@CStateManager@@QAEJW4_D3DPRIMITIVETYPE@@II@Z ; CStateManager::DrawPrimitive
$LN187@Render:

; 692  : 		for (int i = 0; i < m_pCharInfoVector.size(); ++i)

  0072a	f3 0f 10 4d 94	 movss	 xmm1, DWORD PTR _fStanX$1$[ebp]
  0072f	f3 0f 10 5d 88	 movss	 xmm3, DWORD PTR _fCurX$2$[ebp]
  00734	eb 03		 jmp	 SHORT $LN11@Render
$LN189@Render:

; 716  : 			{
; 717  : 				if (fCurY <= pClipRect->top)

  00736	8b 75 8c	 mov	 esi, DWORD PTR _i$1$[ebp]
$LN11@Render:
; File C:\Program Files (x86)\Microsoft Visual Studio\2019\Community\VC\Tools\MSVC\14.28.29333\include\vector

; 1484 :         return static_cast<size_type>(_My_data._Mylast - _My_data._Myfirst);

  00739	8b 47 50	 mov	 eax, DWORD PTR [edi+80]
; File D:\Metin2 Server Files\mainline\SRC_2014\Metin2Client\EterLib\GrpTextInstance.cpp

; 692  : 		for (int i = 0; i < m_pCharInfoVector.size(); ++i)

  0073c	46		 inc	 esi
; File C:\Program Files (x86)\Microsoft Visual Studio\2019\Community\VC\Tools\MSVC\14.28.29333\include\vector

; 1484 :         return static_cast<size_type>(_My_data._Mylast - _My_data._Myfirst);

  0073d	8b 4f 4c	 mov	 ecx, DWORD PTR [edi+76]
  00740	2b c1		 sub	 eax, ecx
; File D:\Metin2 Server Files\mainline\SRC_2014\Metin2Client\EterLib\GrpTextInstance.cpp

; 692  : 		for (int i = 0; i < m_pCharInfoVector.size(); ++i)

  00742	f3 0f 58 5d 80	 addss	 xmm3, DWORD PTR tv2045[ebp]
; File C:\Program Files (x86)\Microsoft Visual Studio\2019\Community\VC\Tools\MSVC\14.28.29333\include\vector

; 1484 :         return static_cast<size_type>(_My_data._Mylast - _My_data._Myfirst);

  00747	c1 f8 02	 sar	 eax, 2
; File D:\Metin2 Server Files\mainline\SRC_2014\Metin2Client\EterLib\GrpTextInstance.cpp

; 692  : 		for (int i = 0; i < m_pCharInfoVector.size(); ++i)

  0074a	89 75 8c	 mov	 DWORD PTR _i$1$[ebp], esi
; File C:\Program Files (x86)\Microsoft Visual Studio\2019\Community\VC\Tools\MSVC\14.28.29333\include\vector

; 1484 :         return static_cast<size_type>(_My_data._Mylast - _My_data._Myfirst);

  0074d	f3 0f 11 5d 88	 movss	 DWORD PTR _fCurX$2$[ebp], xmm3
; File D:\Metin2 Server Files\mainline\SRC_2014\Metin2Client\EterLib\GrpTextInstance.cpp

; 692  : 		for (int i = 0; i < m_pCharInfoVector.size(); ++i)

  00752	3b f0		 cmp	 esi, eax
  00754	0f 82 26 fe ff
	ff		 jb	 $LL13@Render
$LN185@Render:

; 759  : 			//STATEMANAGER.DrawPrimitiveUP(D3DPT_TRIANGLESTRIP, 2, akVertex, sizeof(SVertex));
; 760  : 
; 761  : 			fCurX += fFontAdvance;
; 762  : 		}
; 763  : 	}
; 764  : 
; 765  : 	if (m_isCursor)

  0075a	80 7f 18 00	 cmp	 BYTE PTR [edi+24], 0
  0075e	0f 84 db 02 00
	00		 je	 $LN53@Render

; 766  : 	{
; 767  : 		// Draw Cursor
; 768  : 		float sx, sy, ex, ey;
; 769  : 		TDiffuse diffuse;
; 770  : 
; 771  : 		int curpos = CIME::GetCurPos();

  00764	e8 00 00 00 00	 call	 ?GetCurPos@CIME@@SAHXZ	; CIME::GetCurPos
  00769	89 45 8c	 mov	 DWORD PTR _curpos$1$[ebp], eax

; 772  : 		int compend = curpos + CIME::GetCompLen();

  0076c	e8 00 00 00 00	 call	 ?GetCompLen@CIME@@SAHXZ	; CIME::GetCompLen

; 773  : 
; 774  : 		__GetTextPos(curpos, &sx, &sy);

  00771	8d 4d 94	 lea	 ecx, DWORD PTR _sy$11[ebp]
  00774	8b f0		 mov	 esi, eax
  00776	8b 45 8c	 mov	 eax, DWORD PTR _curpos$1$[ebp]
  00779	03 f0		 add	 esi, eax
  0077b	51		 push	 ecx
  0077c	8d 4d 90	 lea	 ecx, DWORD PTR _sx$10[ebp]
  0077f	51		 push	 ecx
  00780	50		 push	 eax
  00781	8b cf		 mov	 ecx, edi
  00783	e8 00 00 00 00	 call	 ?__GetTextPos@CGraphicTextInstance@@IAEXKPAM0@Z ; CGraphicTextInstance::__GetTextPos

; 775  : 
; 776  : 		// If Composition
; 777  : 		if(curpos<compend)

  00788	f3 0f 10 5d 90	 movss	 xmm3, DWORD PTR _sx$10[ebp]
  0078d	0f 29 9d 60 ff
	ff ff		 movaps	 XMMWORD PTR tv2206[ebp], xmm3
  00794	39 75 8c	 cmp	 DWORD PTR _curpos$1$[ebp], esi
  00797	7d 23		 jge	 SHORT $LN46@Render

; 778  : 		{
; 779  : 			diffuse = 0x7fffffff;
; 780  : 			__GetTextPos(compend, &ex, &sy);

  00799	8d 45 94	 lea	 eax, DWORD PTR _sy$11[ebp]
  0079c	8b cf		 mov	 ecx, edi
  0079e	50		 push	 eax
  0079f	8d 45 84	 lea	 eax, DWORD PTR _ex$9[ebp]
  007a2	50		 push	 eax
  007a3	56		 push	 esi
  007a4	e8 00 00 00 00	 call	 ?__GetTextPos@CGraphicTextInstance@@IAEXKPAM0@Z ; CGraphicTextInstance::__GetTextPos

; 781  : 		}

  007a9	f3 0f 10 55 84	 movss	 xmm2, DWORD PTR _ex$9[ebp]
  007ae	ba ff ff ff 7f	 mov	 edx, 2147483647		; 7fffffffH
  007b3	0f 28 9d 60 ff
	ff ff		 movaps	 xmm3, XMMWORD PTR tv2206[ebp]
  007ba	eb 0e		 jmp	 SHORT $LN47@Render
$LN46@Render:

; 782  : 		else
; 783  : 		{
; 784  : 			diffuse = 0xffffffff;
; 785  : 			ex = sx + 2;

  007bc	0f 28 d3	 movaps	 xmm2, xmm3
  007bf	83 ca ff	 or	 edx, -1
  007c2	f3 0f 58 15 00
	00 00 00	 addss	 xmm2, DWORD PTR __real@40000000
$LN47@Render:

; 786  : 		}
; 787  : 
; 788  : 		// FOR_ARABIC_ALIGN
; 789  : 		if (defCodePage == CP_ARABIC)

  007ca	81 bd 54 ff ff
	ff e8 04 00 00	 cmp	 DWORD PTR _defCodePage$1$[ebp], 1256 ; 000004e8H
  007d4	0f b7 4f 0e	 movzx	 ecx, WORD PTR [edi+14]
  007d8	f3 0f 10 4f 3c	 movss	 xmm1, DWORD PTR [edi+60]
  007dd	f3 0f 58 4d 94	 addss	 xmm1, DWORD PTR _sy$11[ebp]
  007e2	f3 0f 10 67 38	 movss	 xmm4, DWORD PTR [edi+56]
  007e7	66 0f 6e e9	 movd	 xmm5, ecx
  007eb	0f 5b ed	 cvtdq2ps xmm5, xmm5
  007ee	f3 0f 11 4d 94	 movss	 DWORD PTR _sy$11[ebp], xmm1
  007f3	f3 0f 58 e9	 addss	 xmm5, xmm1
  007f7	75 0f		 jne	 SHORT $LN48@Render

; 790  : 		{
; 791  : 			sx += m_v3Position.x - m_textWidth;

  007f9	0f b7 47 0c	 movzx	 eax, WORD PTR [edi+12]
  007fd	66 0f 6e c0	 movd	 xmm0, eax
  00801	0f 5b c0	 cvtdq2ps xmm0, xmm0
  00804	f3 0f 5c e0	 subss	 xmm4, xmm0
$LN48@Render:

; 792  : 			ex += m_v3Position.x - m_textWidth;
; 793  : 			sy += m_v3Position.y;			
; 794  : 			ey = sy + m_textHeight;
; 795  : 		}
; 796  : 		else
; 797  : 		{
; 798  : 			sx += m_v3Position.x;
; 799  : 			sy += m_v3Position.y;
; 800  : 			ex += m_v3Position.x;
; 801  : 			ey = sy + m_textHeight;
; 802  : 		}
; 803  : 
; 804  : 		switch (m_vAlign)

  00808	f3 0f 58 dc	 addss	 xmm3, xmm4
  0080c	8b c1		 mov	 eax, ecx
  0080e	8a 4f 11	 mov	 cl, BYTE PTR [edi+17]
  00811	f3 0f 58 d4	 addss	 xmm2, xmm4
  00815	0f 28 e1	 movaps	 xmm4, xmm1
  00818	f3 0f 11 5d 90	 movss	 DWORD PTR _sx$10[ebp], xmm3
  0081d	f3 0f 11 55 84	 movss	 DWORD PTR _ex$9[ebp], xmm2
  00822	80 f9 20	 cmp	 cl, 32			; 00000020H
  00825	74 11		 je	 SHORT $LN51@Render
  00827	80 f9 30	 cmp	 cl, 48			; 00000030H
  0082a	75 2a		 jne	 SHORT $LN92@Render

; 805  : 		{
; 806  : 			case VERTICAL_ALIGN_BOTTOM:
; 807  : 				sy -= m_textHeight;

  0082c	0f b7 c0	 movzx	 eax, ax
  0082f	66 0f 6e c0	 movd	 xmm0, eax
  00833	0f 5b c0	 cvtdq2ps xmm0, xmm0

; 808  : 				break;

  00836	eb 12		 jmp	 SHORT $LN193@Render
$LN51@Render:

; 809  : 
; 810  : 			case VERTICAL_ALIGN_CENTER:
; 811  : 				sy -= float(m_textHeight) / 2.0f;

  00838	0f b7 c0	 movzx	 eax, ax
  0083b	66 0f 6e c0	 movd	 xmm0, eax
  0083f	0f 5b c0	 cvtdq2ps xmm0, xmm0
  00842	f3 0f 59 05 00
	00 00 00	 mulss	 xmm0, DWORD PTR __real@3f000000
$LN193@Render:

; 812  : 				break;
; 813  : 		}		
; 814  : 		//  
; 815  : 		//  ... STRIP ,    DrawPrimitive 
; 816  : 		//   !
; 817  : 
; 818  : 		TPDTVertex vertices[4];
; 819  : 		vertices[0].diffuse = diffuse;

  0084a	0f 28 cc	 movaps	 xmm1, xmm4
  0084d	f3 0f 5c c8	 subss	 xmm1, xmm0
  00851	f3 0f 11 4d 94	 movss	 DWORD PTR _sy$11[ebp], xmm1
$LN92@Render:

; 827  : 
; 828  : 		STATEMANAGER.SetTexture(0, NULL);

  00856	8b 0d 00 00 00
	00		 mov	 ecx, DWORD PTR ?ms_singleton@?$CSingleton@VCStateManager@@@@0PAVCStateManager@@A ; CSingleton<CStateManager>::ms_singleton
  0085c	0f 28 c3	 movaps	 xmm0, xmm3
  0085f	0f 14 c1	 unpcklps xmm0, xmm1
; File D:\Metin2 Server Files\mainline\SRC_2014\M2Data\include\d3dx8math.inl

; 182  :     z = fz;

  00862	c7 85 6c ff ff
	ff 00 00 00 00	 mov	 DWORD PTR $T8[ebp+8], 0
; File D:\Metin2 Server Files\mainline\SRC_2014\Metin2Client\EterLib\GrpTextInstance.cpp

; 823  : 		vertices[0].position = TPosition(sx, sy, 0.0f);

  0086c	8b 85 6c ff ff
	ff		 mov	 eax, DWORD PTR $T8[ebp+8]
  00872	89 45 a0	 mov	 DWORD PTR _vertices$12[ebp+8], eax
  00875	66 0f d6 45 98	 movq	 QWORD PTR _vertices$12[ebp], xmm0

; 824  : 		vertices[1].position = TPosition(ex, sy, 0.0f);

  0087a	0f 28 c2	 movaps	 xmm0, xmm2
; File D:\Metin2 Server Files\mainline\SRC_2014\M2Data\include\d3dx8math.inl

; 182  :     z = fz;

  0087d	c7 85 6c ff ff
	ff 00 00 00 00	 mov	 DWORD PTR $T7[ebp+8], 0
; File D:\Metin2 Server Files\mainline\SRC_2014\Metin2Client\EterLib\GrpTextInstance.cpp

; 824  : 		vertices[1].position = TPosition(ex, sy, 0.0f);

  00887	8b 85 6c ff ff
	ff		 mov	 eax, DWORD PTR $T7[ebp+8]
  0088d	89 45 b8	 mov	 DWORD PTR _vertices$12[ebp+32], eax
; File D:\Metin2 Server Files\mainline\SRC_2014\M2Data\include\d3dx8math.inl

; 182  :     z = fz;

  00890	c7 85 6c ff ff
	ff 00 00 00 00	 mov	 DWORD PTR $T6[ebp+8], 0
; File D:\Metin2 Server Files\mainline\SRC_2014\Metin2Client\EterLib\GrpTextInstance.cpp

; 825  : 		vertices[2].position = TPosition(sx, ey, 0.0f);

  0089a	8b 85 6c ff ff
	ff		 mov	 eax, DWORD PTR $T6[ebp+8]

; 827  : 
; 828  : 		STATEMANAGER.SetTexture(0, NULL);

  008a0	6a 00		 push	 0
  008a2	0f 14 c1	 unpcklps xmm0, xmm1
  008a5	0f 14 dd	 unpcklps xmm3, xmm5
  008a8	89 45 d0	 mov	 DWORD PTR _vertices$12[ebp+56], eax
  008ab	0f 14 d5	 unpcklps xmm2, xmm5
; File D:\Metin2 Server Files\mainline\SRC_2014\M2Data\include\d3dx8math.inl

; 182  :     z = fz;

  008ae	c7 85 6c ff ff
	ff 00 00 00 00	 mov	 DWORD PTR $T5[ebp+8], 0
; File D:\Metin2 Server Files\mainline\SRC_2014\Metin2Client\EterLib\GrpTextInstance.cpp

; 826  : 		vertices[3].position = TPosition(ex, ey, 0.0f);

  008b8	8b 85 6c ff ff
	ff		 mov	 eax, DWORD PTR $T5[ebp+8]

; 827  : 
; 828  : 		STATEMANAGER.SetTexture(0, NULL);

  008be	6a 00		 push	 0
  008c0	89 55 a4	 mov	 DWORD PTR _vertices$12[ebp+12], edx
  008c3	89 55 bc	 mov	 DWORD PTR _vertices$12[ebp+36], edx
  008c6	89 55 d4	 mov	 DWORD PTR _vertices$12[ebp+60], edx
  008c9	89 55 ec	 mov	 DWORD PTR _vertices$12[ebp+84], edx
  008cc	66 0f d6 45 b0	 movq	 QWORD PTR _vertices$12[ebp+24], xmm0
  008d1	66 0f d6 5d c8	 movq	 QWORD PTR _vertices$12[ebp+48], xmm3
  008d6	66 0f d6 55 e0	 movq	 QWORD PTR _vertices$12[ebp+72], xmm2
  008db	89 45 e8	 mov	 DWORD PTR _vertices$12[ebp+80], eax
  008de	e8 00 00 00 00	 call	 ?SetTexture@CStateManager@@QAEXKPAUIDirect3DBaseTexture8@@@Z ; CStateManager::SetTexture

; 829  : 
; 830  : 
; 831  : 		// 2004.11.18.myevan.DrawIndexPrimitiveUP -> DynamicVertexBuffer
; 832  : 		CGraphicBase::SetDefaultIndexBuffer(CGraphicBase::DEFAULT_IB_FILL_RECT);

  008e3	6a 05		 push	 5
  008e5	e8 00 00 00 00	 call	 ?SetDefaultIndexBuffer@CGraphicBase@@SAXI@Z ; CGraphicBase::SetDefaultIndexBuffer

; 833  : 		if (CGraphicBase::SetPDTStream(vertices, 4))

  008ea	8d 45 98	 lea	 eax, DWORD PTR _vertices$12[ebp]
  008ed	6a 04		 push	 4
  008ef	50		 push	 eax
  008f0	e8 00 00 00 00	 call	 ?SetPDTStream@CGraphicBase@@SA_NPAUSPDTVertex@@I@Z ; CGraphicBase::SetPDTStream
  008f5	83 c4 0c	 add	 esp, 12			; 0000000cH
  008f8	84 c0		 test	 al, al
  008fa	74 15		 je	 SHORT $LN52@Render

; 834  : 			STATEMANAGER.DrawIndexedPrimitive(D3DPT_TRIANGLELIST, 0, 4, 0, 2);

  008fc	8b 0d 00 00 00
	00		 mov	 ecx, DWORD PTR ?ms_singleton@?$CSingleton@VCStateManager@@@@0PAVCStateManager@@A ; CSingleton<CStateManager>::ms_singleton
  00902	6a 02		 push	 2
  00904	6a 00		 push	 0
  00906	6a 04		 push	 4
  00908	6a 00		 push	 0
  0090a	6a 04		 push	 4
  0090c	e8 00 00 00 00	 call	 ?DrawIndexedPrimitive@CStateManager@@QAEJW4_D3DPRIMITIVETYPE@@IIII@Z ; CStateManager::DrawIndexedPrimitive
$LN52@Render:

; 835  : 
; 836  : 		int ulbegin = CIME::GetULBegin();

  00911	e8 00 00 00 00	 call	 ?GetULBegin@CIME@@SAHXZ	; CIME::GetULBegin
  00916	8b f0		 mov	 esi, eax
  00918	89 b5 54 ff ff
	ff		 mov	 DWORD PTR _ulbegin$1$[ebp], esi

; 837  : 		int ulend = CIME::GetULEnd();

  0091e	e8 00 00 00 00	 call	 ?GetULEnd@CIME@@SAHXZ	; CIME::GetULEnd
  00923	89 85 74 ff ff
	ff		 mov	 DWORD PTR _ulend$1$[ebp], eax

; 838  : 
; 839  : 		if(ulbegin < ulend)

  00929	3b f0		 cmp	 esi, eax
  0092b	0f 8d 0e 01 00
	00		 jge	 $LN53@Render

; 840  : 		{
; 841  : 			__GetTextPos(curpos+ulbegin, &sx, &sy);

  00931	8d 45 94	 lea	 eax, DWORD PTR _sy$11[ebp]
  00934	8b ce		 mov	 ecx, esi
  00936	03 4d 8c	 add	 ecx, DWORD PTR _curpos$1$[ebp]
  00939	50		 push	 eax
  0093a	8d 45 90	 lea	 eax, DWORD PTR _sx$10[ebp]
  0093d	50		 push	 eax
  0093e	51		 push	 ecx
  0093f	8b cf		 mov	 ecx, edi
  00941	e8 00 00 00 00	 call	 ?__GetTextPos@CGraphicTextInstance@@IAEXKPAM0@Z ; CGraphicTextInstance::__GetTextPos

; 842  : 			__GetTextPos(curpos+ulend, &ex, &sy);

  00946	8d 45 94	 lea	 eax, DWORD PTR _sy$11[ebp]
  00949	8b cf		 mov	 ecx, edi
  0094b	50		 push	 eax
  0094c	8d 45 84	 lea	 eax, DWORD PTR _ex$9[ebp]
  0094f	50		 push	 eax
  00950	8b 85 74 ff ff
	ff		 mov	 eax, DWORD PTR _ulend$1$[ebp]
  00956	03 45 8c	 add	 eax, DWORD PTR _curpos$1$[ebp]
  00959	50		 push	 eax
  0095a	e8 00 00 00 00	 call	 ?__GetTextPos@CGraphicTextInstance@@IAEXKPAM0@Z ; CGraphicTextInstance::__GetTextPos

; 843  : 
; 844  : 			sx += m_v3Position.x;
; 845  : 			sy += m_v3Position.y + m_textHeight;

  0095f	0f b7 47 0e	 movzx	 eax, WORD PTR [edi+14]
  00963	f3 0f 10 67 38	 movss	 xmm4, DWORD PTR [edi+56]

; 857  : 
; 858  : 			STATEMANAGER.DrawIndexedPrimitiveUP(D3DPT_TRIANGLELIST, 0, 4, 2, c_FillRectIndices, D3DFMT_INDEX16, vertices, sizeof(TPDTVertex));

  00968	8b 0d 00 00 00
	00		 mov	 ecx, DWORD PTR ?ms_singleton@?$CSingleton@VCStateManager@@@@0PAVCStateManager@@A ; CSingleton<CStateManager>::ms_singleton
  0096e	0f 28 dc	 movaps	 xmm3, xmm4
  00971	f3 0f 58 5d 90	 addss	 xmm3, DWORD PTR _sx$10[ebp]
  00976	f3 0f 58 65 84	 addss	 xmm4, DWORD PTR _ex$9[ebp]
  0097b	66 0f 6e c8	 movd	 xmm1, eax
  0097f	0f 5b c9	 cvtdq2ps xmm1, xmm1
; File D:\Metin2 Server Files\mainline\SRC_2014\M2Data\include\d3dx8math.inl

; 182  :     z = fz;

  00982	c7 85 6c ff ff
	ff 00 00 00 00	 mov	 DWORD PTR $T4[ebp+8], 0
; File D:\Metin2 Server Files\mainline\SRC_2014\Metin2Client\EterLib\GrpTextInstance.cpp

; 853  : 			vertices[0].position = TPosition(sx, sy, 0.0f);

  0098c	8b 85 6c ff ff
	ff		 mov	 eax, DWORD PTR $T4[ebp+8]
  00992	89 45 a0	 mov	 DWORD PTR _vertices$12[ebp+8], eax
; File D:\Metin2 Server Files\mainline\SRC_2014\M2Data\include\d3dx8math.inl

; 182  :     z = fz;

  00995	c7 85 6c ff ff
	ff 00 00 00 00	 mov	 DWORD PTR $T3[ebp+8], 0
; File D:\Metin2 Server Files\mainline\SRC_2014\Metin2Client\EterLib\GrpTextInstance.cpp

; 854  : 			vertices[1].position = TPosition(ex, sy, 0.0f);

  0099f	8b 85 6c ff ff
	ff		 mov	 eax, DWORD PTR $T3[ebp+8]
  009a5	0f 28 c3	 movaps	 xmm0, xmm3
  009a8	f3 0f 58 4f 3c	 addss	 xmm1, DWORD PTR [edi+60]
  009ad	89 45 b8	 mov	 DWORD PTR _vertices$12[ebp+32], eax

; 857  : 
; 858  : 			STATEMANAGER.DrawIndexedPrimitiveUP(D3DPT_TRIANGLELIST, 0, 4, 2, c_FillRectIndices, D3DFMT_INDEX16, vertices, sizeof(TPDTVertex));

  009b0	6a 18		 push	 24			; 00000018H
; File D:\Metin2 Server Files\mainline\SRC_2014\M2Data\include\d3dx8math.inl

; 182  :     z = fz;

  009b2	c7 85 6c ff ff
	ff 00 00 00 00	 mov	 DWORD PTR $T2[ebp+8], 0
; File D:\Metin2 Server Files\mainline\SRC_2014\Metin2Client\EterLib\GrpTextInstance.cpp

; 855  : 			vertices[2].position = TPosition(sx, ey, 0.0f);

  009bc	8b 85 6c ff ff
	ff		 mov	 eax, DWORD PTR $T2[ebp+8]
  009c2	f3 0f 58 4d 94	 addss	 xmm1, DWORD PTR _sy$11[ebp]
  009c7	89 45 d0	 mov	 DWORD PTR _vertices$12[ebp+56], eax
; File D:\Metin2 Server Files\mainline\SRC_2014\M2Data\include\d3dx8math.inl

; 182  :     z = fz;

  009ca	c7 85 6c ff ff
	ff 00 00 00 00	 mov	 DWORD PTR $T1[ebp+8], 0
; File D:\Metin2 Server Files\mainline\SRC_2014\Metin2Client\EterLib\GrpTextInstance.cpp

; 856  : 			vertices[3].position = TPosition(ex, ey, 0.0f);

  009d4	8b 85 6c ff ff
	ff		 mov	 eax, DWORD PTR $T1[ebp+8]
  009da	89 45 e8	 mov	 DWORD PTR _vertices$12[ebp+80], eax

; 857  : 
; 858  : 			STATEMANAGER.DrawIndexedPrimitiveUP(D3DPT_TRIANGLELIST, 0, 4, 2, c_FillRectIndices, D3DFMT_INDEX16, vertices, sizeof(TPDTVertex));

  009dd	8d 45 98	 lea	 eax, DWORD PTR _vertices$12[ebp]
  009e0	50		 push	 eax
  009e1	6a 65		 push	 101			; 00000065H
  009e3	68 00 00 00 00	 push	 OFFSET ?c_FillRectIndices@@3QBGB
  009e8	0f 28 d1	 movaps	 xmm2, xmm1
  009eb	0f 14 c1	 unpcklps xmm0, xmm1
  009ee	f3 0f 58 15 00
	00 00 00	 addss	 xmm2, DWORD PTR __real@40000000
  009f6	6a 02		 push	 2
  009f8	66 0f d6 45 98	 movq	 QWORD PTR _vertices$12[ebp], xmm0
  009fd	0f 28 c4	 movaps	 xmm0, xmm4
  00a00	6a 04		 push	 4
  00a02	6a 00		 push	 0
  00a04	0f 14 c1	 unpcklps xmm0, xmm1
  00a07	0f 14 da	 unpcklps xmm3, xmm2
  00a0a	0f 14 e2	 unpcklps xmm4, xmm2
  00a0d	6a 04		 push	 4
  00a0f	c7 45 a4 00 00
	ff ff		 mov	 DWORD PTR _vertices$12[ebp+12], -65536 ; ffff0000H
  00a16	c7 45 bc 00 00
	ff ff		 mov	 DWORD PTR _vertices$12[ebp+36], -65536 ; ffff0000H
  00a1d	c7 45 d4 00 00
	ff ff		 mov	 DWORD PTR _vertices$12[ebp+60], -65536 ; ffff0000H
  00a24	c7 45 ec 00 00
	ff ff		 mov	 DWORD PTR _vertices$12[ebp+84], -65536 ; ffff0000H
  00a2b	66 0f d6 45 b0	 movq	 QWORD PTR _vertices$12[ebp+24], xmm0
  00a30	66 0f d6 5d c8	 movq	 QWORD PTR _vertices$12[ebp+48], xmm3
  00a35	66 0f d6 65 e0	 movq	 QWORD PTR _vertices$12[ebp+72], xmm4
  00a3a	e8 00 00 00 00	 call	 ?DrawIndexedPrimitiveUP@CStateManager@@QAEJW4_D3DPRIMITIVETYPE@@IIIPBXW4_D3DFORMAT@@1I@Z ; CStateManager::DrawIndexedPrimitiveUP
$LN53@Render:

; 859  : 		}		
; 860  : 	}
; 861  : 
; 862  : 	STATEMANAGER.RestoreRenderState(D3DRS_SRCBLEND);

  00a3f	8b 0d 00 00 00
	00		 mov	 ecx, DWORD PTR ?ms_singleton@?$CSingleton@VCStateManager@@@@0PAVCStateManager@@A ; CSingleton<CStateManager>::ms_singleton
  00a45	6a 13		 push	 19			; 00000013H
  00a47	e8 00 00 00 00	 call	 ?RestoreRenderState@CStateManager@@QAEXW4_D3DRENDERSTATETYPE@@@Z ; CStateManager::RestoreRenderState

; 863  : 	STATEMANAGER.RestoreRenderState(D3DRS_DESTBLEND);

  00a4c	8b 0d 00 00 00
	00		 mov	 ecx, DWORD PTR ?ms_singleton@?$CSingleton@VCStateManager@@@@0PAVCStateManager@@A ; CSingleton<CStateManager>::ms_singleton
  00a52	6a 14		 push	 20			; 00000014H
  00a54	e8 00 00 00 00	 call	 ?RestoreRenderState@CStateManager@@QAEXW4_D3DRENDERSTATETYPE@@@Z ; CStateManager::RestoreRenderState

; 864  : 
; 865  : 	STATEMANAGER.SetRenderState(D3DRS_FOGENABLE, dwFogEnable);

  00a59	ff b5 50 ff ff
	ff		 push	 DWORD PTR _dwFogEnable$1$[ebp]
  00a5f	8b 0d 00 00 00
	00		 mov	 ecx, DWORD PTR ?ms_singleton@?$CSingleton@VCStateManager@@@@0PAVCStateManager@@A ; CSingleton<CStateManager>::ms_singleton
  00a65	6a 1c		 push	 28			; 0000001cH
  00a67	e8 00 00 00 00	 call	 ?SetRenderState@CStateManager@@QAEXW4_D3DRENDERSTATETYPE@@K@Z ; CStateManager::SetRenderState

; 866  : 	STATEMANAGER.SetRenderState(D3DRS_LIGHTING, dwLighting);

  00a6c	ff b5 4c ff ff
	ff		 push	 DWORD PTR _dwLighting$1$[ebp]
  00a72	8b 0d 00 00 00
	00		 mov	 ecx, DWORD PTR ?ms_singleton@?$CSingleton@VCStateManager@@@@0PAVCStateManager@@A ; CSingleton<CStateManager>::ms_singleton
  00a78	68 89 00 00 00	 push	 137			; 00000089H
  00a7d	e8 00 00 00 00	 call	 ?SetRenderState@CStateManager@@QAEXW4_D3DRENDERSTATETYPE@@K@Z ; CStateManager::SetRenderState
; File C:\Program Files (x86)\Microsoft Visual Studio\2019\Community\VC\Tools\MSVC\14.28.29333\include\vector

; 1484 :         return static_cast<size_type>(_My_data._Mylast - _My_data._Myfirst);

  00a82	8b 4f 68	 mov	 ecx, DWORD PTR [edi+104]
  00a85	b8 93 24 49 92	 mov	 eax, -1840700269	; 92492493H
  00a8a	2b 4f 64	 sub	 ecx, DWORD PTR [edi+100]
  00a8d	f7 e9		 imul	 ecx
  00a8f	03 d1		 add	 edx, ecx
  00a91	c1 fa 04	 sar	 edx, 4
  00a94	8b c2		 mov	 eax, edx
  00a96	c1 e8 1f	 shr	 eax, 31			; 0000001fH
  00a99	03 c2		 add	 eax, edx
; File D:\Metin2 Server Files\mainline\SRC_2014\Metin2Client\EterLib\GrpTextInstance.cpp

; 869  : 	if (m_hyperlinkVector.size() != 0)

  00a9b	0f 84 8f 00 00
	00		 je	 $LN183@Render

; 870  : 	{
; 871  : 		int lx = gs_mx - m_v3Position.x;

  00aa1	66 0f 6e 05 00
	00 00 00	 movd	 xmm0, DWORD PTR ?gs_mx@@3HA
  00aa9	0f 5b c0	 cvtdq2ps xmm0, xmm0
  00aac	f3 0f 5c 47 38	 subss	 xmm0, DWORD PTR [edi+56]
  00ab1	f3 0f 2c f0	 cvttss2si esi, xmm0
  00ab5	66 0f 6e 05 00
	00 00 00	 movd	 xmm0, DWORD PTR ?gs_my@@3HA

; 872  : 		int ly = gs_my - m_v3Position.y;

  00abd	0f 5b c0	 cvtdq2ps xmm0, xmm0
  00ac0	f3 0f 5c 47 3c	 subss	 xmm0, DWORD PTR [edi+60]
  00ac5	f3 0f 2c c0	 cvttss2si eax, xmm0
  00ac9	89 45 8c	 mov	 DWORD PTR _ly$1$[ebp], eax

; 873  : 
; 874  : 		//   .
; 875  : 		if (GetDefaultCodePage() == CP_ARABIC) {

  00acc	e8 00 00 00 00	 call	 ?GetDefaultCodePage@@YAKXZ ; GetDefaultCodePage
  00ad1	3d e8 04 00 00	 cmp	 eax, 1256		; 000004e8H
  00ad6	75 0b		 jne	 SHORT $LN190@Render

; 876  : 			lx = -lx;
; 877  : 			ly = -ly + m_textHeight;

  00ad8	0f b7 4f 0e	 movzx	 ecx, WORD PTR [edi+14]
  00adc	f7 de		 neg	 esi
  00ade	2b 4d 8c	 sub	 ecx, DWORD PTR _ly$1$[ebp]
  00ae1	eb 03		 jmp	 SHORT $LN182@Render
$LN190@Render:

; 873  : 
; 874  : 		//   .
; 875  : 		if (GetDefaultCodePage() == CP_ARABIC) {

  00ae3	8b 4d 8c	 mov	 ecx, DWORD PTR _ly$1$[ebp]
$LN182@Render:

; 878  : 		}
; 879  : 
; 880  : 		if (lx >= 0 && ly >= 0 && lx < m_textWidth && ly < m_textHeight)

  00ae6	85 f6		 test	 esi, esi
  00ae8	78 46		 js	 SHORT $LN183@Render
  00aea	85 c9		 test	 ecx, ecx
  00aec	78 42		 js	 SHORT $LN183@Render
  00aee	0f b7 47 0c	 movzx	 eax, WORD PTR [edi+12]
  00af2	3b f0		 cmp	 esi, eax
  00af4	7d 3a		 jge	 SHORT $LN183@Render
  00af6	0f b7 47 0e	 movzx	 eax, WORD PTR [edi+14]
  00afa	3b c8		 cmp	 ecx, eax
  00afc	7d 32		 jge	 SHORT $LN183@Render
; File C:\Program Files (x86)\Microsoft Visual Studio\2019\Community\VC\Tools\MSVC\14.28.29333\include\vector

; 42   :     _Vector_const_iterator(_Tptr _Parg, const _Container_base* _Pvector) noexcept : _Ptr(_Parg) {

  00afe	8b 47 64	 mov	 eax, DWORD PTR [edi+100]
  00b01	8b 4f 68	 mov	 ecx, DWORD PTR [edi+104]
  00b04	3b c1		 cmp	 eax, ecx
; File D:\Metin2 Server Files\mainline\SRC_2014\Metin2Client\EterLib\GrpTextInstance.cpp

; 884  : 			while (it != m_hyperlinkVector.end())

  00b06	74 28		 je	 SHORT $LN183@Render
$LL16@Render:
; File C:\Program Files (x86)\Microsoft Visual Studio\2019\Community\VC\Tools\MSVC\14.28.29333\include\vector

; 265  :         _Vector_iterator _Tmp = *this;

  00b08	8b f8		 mov	 edi, eax

; 75   :         ++_Ptr;

  00b0a	83 c0 1c	 add	 eax, 28			; 0000001cH
; File D:\Metin2 Server Files\mainline\SRC_2014\Metin2Client\EterLib\GrpTextInstance.cpp

; 887  : 				if (lx >= link.sx && lx < link.ex)

  00b0d	0f bf 17	 movsx	 edx, WORD PTR [edi]
  00b10	3b f2		 cmp	 esi, edx
  00b12	7c 08		 jl	 SHORT $LN57@Render
  00b14	0f bf 57 02	 movsx	 edx, WORD PTR [edi+2]
  00b18	3b f2		 cmp	 esi, edx
  00b1a	7c 06		 jl	 SHORT $LN137@Render
$LN57@Render:
; File C:\Program Files (x86)\Microsoft Visual Studio\2019\Community\VC\Tools\MSVC\14.28.29333\include\vector

; 149  :         return _Ptr == _Right._Ptr;

  00b1c	3b c1		 cmp	 eax, ecx
; File D:\Metin2 Server Files\mainline\SRC_2014\Metin2Client\EterLib\GrpTextInstance.cpp

; 884  : 			while (it != m_hyperlinkVector.end())

  00b1e	75 e8		 jne	 SHORT $LL16@Render
  00b20	eb 0e		 jmp	 SHORT $LN183@Render
$LN137@Render:

; 888  : 				{
; 889  : 					gs_hyperlinkText = link.text;

  00b22	8d 47 04	 lea	 eax, DWORD PTR [edi+4]
  00b25	b9 00 00 00 00	 mov	 ecx, OFFSET ?gs_hyperlinkText@@3V?$basic_string@_WU?$char_traits@_W@std@@V?$allocator@_W@2@@std@@A
  00b2a	50		 push	 eax
  00b2b	e8 00 00 00 00	 call	 ??4?$basic_string@_WU?$char_traits@_W@std@@V?$allocator@_W@2@@std@@QAEAAV01@ABV01@@Z ; std::basic_string<wchar_t,std::char_traits<wchar_t>,std::allocator<wchar_t> >::operator=
$LN183@Render:

; 890  : 					/*
; 891  : 					OutputDebugStringW(link.text.c_str());
; 892  : 					OutputDebugStringW(L"\n");
; 893  : 					*/
; 894  : 					break;
; 895  : 				}
; 896  : 			}
; 897  : 		}
; 898  : 	}
; 899  : }

  00b30	8b 4d fc	 mov	 ecx, DWORD PTR __$ArrayPad$[ebp]
  00b33	5f		 pop	 edi
  00b34	33 cd		 xor	 ecx, ebp
  00b36	5e		 pop	 esi
  00b37	e8 00 00 00 00	 call	 @__security_check_cookie@4
  00b3c	8b e5		 mov	 esp, ebp
  00b3e	5d		 pop	 ebp
  00b3f	8b e3		 mov	 esp, ebx
  00b41	5b		 pop	 ebx
  00b42	c2 04 00	 ret	 4
?Render@CGraphicTextInstance@@QAEXPAUtagRECT@@@Z ENDP	; CGraphicTextInstance::Render
_TEXT	ENDS
; Function compile flags: /Ogtp
; File D:\Metin2 Server Files\mainline\SRC_2014\Metin2Client\EterLib\GrpTextInstance.cpp
; File D:\Metin2 Server Files\mainline\SRC_2014\Metin2Client\EterLib\Ref.h
; File D:\Metin2 Server Files\mainline\SRC_2014\Metin2Client\EterLib\GrpTextInstance.cpp
; File C:\Program Files (x86)\Microsoft Visual Studio\2019\Community\VC\Tools\MSVC\14.28.29333\include\vector
; File D:\Metin2 Server Files\mainline\SRC_2014\Metin2Client\EterLib\GrpTextInstance.cpp
; File C:\Program Files (x86)\Microsoft Visual Studio\2019\Community\VC\Tools\MSVC\14.28.29333\include\vector
; File D:\Metin2 Server Files\mainline\SRC_2014\Metin2Client\EterLib\GrpTextInstance.cpp
; File C:\Program Files (x86)\Microsoft Visual Studio\2019\Community\VC\Tools\MSVC\14.28.29333\include\xstring
; File D:\Metin2 Server Files\mainline\SRC_2014\Metin2Client\EterLib\GrpTextInstance.cpp
; File C:\Program Files (x86)\Microsoft Visual Studio\2019\Community\VC\Tools\MSVC\14.28.29333\include\xstring
; File D:\Metin2 Server Files\mainline\SRC_2014\Metin2Client\EterLib\GrpTextInstance.cpp
; File C:\Program Files (x86)\Microsoft Visual Studio\2019\Community\VC\Tools\MSVC\14.28.29333\include\xstring
; File D:\Metin2 Server Files\mainline\SRC_2014\Metin2Client\EterLib\GrpTextInstance.cpp
; File D:\Metin2 Server Files\mainline\SRC_2014\Metin2Client\EterLib\GrpTextInstance.h
; File D:\Metin2 Server Files\mainline\SRC_2014\Metin2Client\EterLib\GrpTextInstance.cpp
; File D:\Metin2 Server Files\mainline\SRC_2014\Metin2Client\EterLib\GrpTextInstance.h
; File D:\Metin2 Server Files\mainline\SRC_2014\Metin2Client\EterLib\GrpTextInstance.cpp
; File D:\Metin2 Server Files\mainline\SRC_2014\Metin2Client\EterLib\GrpTextInstance.h
; File C:\Program Files (x86)\Microsoft Visual Studio\2019\Community\VC\Tools\MSVC\14.28.29333\include\xstring
; File D:\Metin2 Server Files\mainline\SRC_2014\Metin2Client\EterLib\GrpTextInstance.cpp
; File C:\Program Files (x86)\Microsoft Visual Studio\2019\Community\VC\Tools\MSVC\14.28.29333\include\xstring
; File D:\Metin2 Server Files\mainline\SRC_2014\Metin2Client\EterLib\GrpTextInstance.cpp
; File C:\Program Files (x86)\Microsoft Visual Studio\2019\Community\VC\Tools\MSVC\14.28.29333\include\xstring
; File D:\Metin2 Server Files\mainline\SRC_2014\Metin2Client\EterBase\Utils.h
; File C:\Program Files (x86)\Microsoft Visual Studio\2019\Community\VC\Tools\MSVC\14.28.29333\include\xstring
; File D:\Metin2 Server Files\mainline\SRC_2014\Metin2Client\EterBase\Utils.h
; File D:\Metin2 Server Files\mainline\SRC_2014\Metin2Client\EterLib\GrpTextInstance.cpp
; File D:\Metin2 Server Files\mainline\SRC_2014\Metin2Client\EterBase\Utils.h
; File D:\Metin2 Server Files\mainline\SRC_2014\Metin2Client\EterLib\GrpTextInstance.cpp
; File C:\Program Files (x86)\Microsoft Visual Studio\2019\Community\VC\Tools\MSVC\14.28.29333\include\xstring
; File D:\Metin2 Server Files\mainline\SRC_2014\Metin2Client\EterLib\GrpTextInstance.cpp
; File C:\Program Files (x86)\Microsoft Visual Studio\2019\Community\VC\Tools\MSVC\14.28.29333\include\xstring
; File D:\Metin2 Server Files\mainline\SRC_2014\Metin2Client\EterLib\GrpTextInstance.cpp
; File C:\Program Files (x86)\Microsoft Visual Studio\2019\Community\VC\Tools\MSVC\14.28.29333\include\xstring
; File C:\Program Files (x86)\Microsoft Visual Studio\2019\Community\VC\Tools\MSVC\14.28.29333\include\xmemory
; File C:\Program Files (x86)\Microsoft Visual Studio\2019\Community\VC\Tools\MSVC\14.28.29333\include\xstring
; File C:\Program Files (x86)\Microsoft Visual Studio\2019\Community\VC\Tools\MSVC\14.28.29333\include\xmemory
; File C:\Program Files (x86)\Microsoft Visual Studio\2019\Community\VC\Tools\MSVC\14.28.29333\include\xstring
; File C:\Program Files (x86)\Microsoft Visual Studio\2019\Community\VC\Tools\MSVC\14.28.29333\include\vector
; File D:\Metin2 Server Files\mainline\SRC_2014\Metin2Client\EterLib\GrpTextInstance.cpp
; File C:\Program Files (x86)\Microsoft Visual Studio\2019\Community\VC\Tools\MSVC\14.28.29333\include\xstring
; File D:\Metin2 Server Files\mainline\SRC_2014\Metin2Client\EterLib\GrpTextInstance.cpp
; File C:\Program Files (x86)\Microsoft Visual Studio\2019\Community\VC\Tools\MSVC\14.28.29333\include\xstring
; File D:\Metin2 Server Files\mainline\SRC_2014\Metin2Client\EterLib\GrpTextInstance.cpp
; File C:\Program Files (x86)\Microsoft Visual Studio\2019\Community\VC\Tools\MSVC\14.28.29333\include\vector
; File D:\Metin2 Server Files\mainline\SRC_2014\Metin2Client\EterLib\GrpTextInstance.cpp
; File C:\Program Files (x86)\Microsoft Visual Studio\2019\Community\VC\Tools\MSVC\14.28.29333\include\vector
; File D:\Metin2 Server Files\mainline\SRC_2014\Metin2Client\EterLib\GrpTextInstance.cpp
; File C:\Program Files (x86)\Microsoft Visual Studio\2019\Community\VC\Tools\MSVC\14.28.29333\include\vector
; File D:\Metin2 Server Files\mainline\SRC_2014\Metin2Client\EterLib\GrpTextInstance.cpp
; File C:\Program Files (x86)\Microsoft Visual Studio\2019\Community\VC\Tools\MSVC\14.28.29333\include\vector
; File D:\Metin2 Server Files\mainline\SRC_2014\Metin2Client\EterLib\GrpTextInstance.cpp
; File C:\Program Files (x86)\Microsoft Visual Studio\2019\Community\VC\Tools\MSVC\14.28.29333\include\vector
; File D:\Metin2 Server Files\mainline\SRC_2014\Metin2Client\EterLib\GrpTextInstance.cpp
; File C:\Program Files (x86)\Microsoft Visual Studio\2019\Community\VC\Tools\MSVC\14.28.29333\include\vector
; File D:\Metin2 Server Files\mainline\SRC_2014\Metin2Client\EterLib\GrpTextInstance.cpp
; File C:\Program Files (x86)\Microsoft Visual Studio\2019\Community\VC\Tools\MSVC\14.28.29333\include\vector
; File D:\Metin2 Server Files\mainline\SRC_2014\Metin2Client\EterLib\GrpTextInstance.cpp
; File C:\Program Files (x86)\Microsoft Visual Studio\2019\Community\VC\Tools\MSVC\14.28.29333\include\vector
; File D:\Metin2 Server Files\mainline\SRC_2014\Metin2Client\EterLib\GrpTextInstance.cpp
; File C:\Program Files (x86)\Microsoft Visual Studio\2019\Community\VC\Tools\MSVC\14.28.29333\include\vector
; File D:\Metin2 Server Files\mainline\SRC_2014\Metin2Client\EterLib\GrpTextInstance.cpp
; File C:\Program Files (x86)\Microsoft Visual Studio\2019\Community\VC\Tools\MSVC\14.28.29333\include\xstring
; File D:\Metin2 Server Files\mainline\SRC_2014\Metin2Client\EterBase\Utils.h
; File C:\Program Files (x86)\Microsoft Visual Studio\2019\Community\VC\Tools\MSVC\14.28.29333\include\xstring
; File D:\Metin2 Server Files\mainline\SRC_2014\Metin2Client\EterBase\Utils.h
; File D:\Metin2 Server Files\mainline\SRC_2014\Metin2Client\EterLib\GrpTextInstance.cpp
; File D:\Metin2 Server Files\mainline\SRC_2014\Metin2Client\EterBase\Utils.h
; File D:\Metin2 Server Files\mainline\SRC_2014\Metin2Client\EterLib\GrpTextInstance.cpp
; File C:\Program Files (x86)\Microsoft Visual Studio\2019\Community\VC\Tools\MSVC\14.28.29333\include\xstring
; File D:\Metin2 Server Files\mainline\SRC_2014\Metin2Client\EterLib\GrpTextInstance.cpp
; File C:\Program Files (x86)\Microsoft Visual Studio\2019\Community\VC\Tools\MSVC\14.28.29333\include\xstring
; File D:\Metin2 Server Files\mainline\SRC_2014\Metin2Client\EterLib\GrpTextInstance.cpp
; File C:\Program Files (x86)\Microsoft Visual Studio\2019\Community\VC\Tools\MSVC\14.28.29333\include\xstring
; File C:\Program Files (x86)\Microsoft Visual Studio\2019\Community\VC\Tools\MSVC\14.28.29333\include\xmemory
; File C:\Program Files (x86)\Microsoft Visual Studio\2019\Community\VC\Tools\MSVC\14.28.29333\include\xstring
; File C:\Program Files (x86)\Microsoft Visual Studio\2019\Community\VC\Tools\MSVC\14.28.29333\include\xmemory
; File C:\Program Files (x86)\Microsoft Visual Studio\2019\Community\VC\Tools\MSVC\14.28.29333\include\xstring
; File C:\Program Files (x86)\Microsoft Visual Studio\2019\Community\VC\Tools\MSVC\14.28.29333\include\vector
; File D:\Metin2 Server Files\mainline\SRC_2014\Metin2Client\EterLib\GrpTextInstance.cpp
; File C:\Program Files (x86)\Microsoft Visual Studio\2019\Community\VC\Tools\MSVC\14.28.29333\include\xstring
; File D:\Metin2 Server Files\mainline\SRC_2014\Metin2Client\EterLib\GrpTextInstance.cpp
; File C:\Program Files (x86)\Microsoft Visual Studio\2019\Community\VC\Tools\MSVC\14.28.29333\include\xstring
; File D:\Metin2 Server Files\mainline\SRC_2014\Metin2Client\EterLib\GrpTextInstance.cpp
; File C:\Program Files (x86)\Microsoft Visual Studio\2019\Community\VC\Tools\MSVC\14.28.29333\include\vector
; File D:\Metin2 Server Files\mainline\SRC_2014\Metin2Client\EterLib\GrpTextInstance.cpp
; File C:\Program Files (x86)\Microsoft Visual Studio\2019\Community\VC\Tools\MSVC\14.28.29333\include\vector
; File D:\Metin2 Server Files\mainline\SRC_2014\Metin2Client\EterLib\GrpTextInstance.cpp
; File C:\Program Files (x86)\Microsoft Visual Studio\2019\Community\VC\Tools\MSVC\14.28.29333\include\vector
; File D:\Metin2 Server Files\mainline\SRC_2014\Metin2Client\EterLib\GrpTextInstance.cpp
; File C:\Program Files (x86)\Microsoft Visual Studio\2019\Community\VC\Tools\MSVC\14.28.29333\include\xstring
; File C:\Program Files (x86)\Microsoft Visual Studio\2019\Community\VC\Tools\MSVC\14.28.29333\include\xmemory
; File C:\Program Files (x86)\Microsoft Visual Studio\2019\Community\VC\Tools\MSVC\14.28.29333\include\xstring
; File D:\Metin2 Server Files\mainline\SRC_2014\Metin2Client\EterLib\GrpTextInstance.cpp
; File C:\Program Files (x86)\Microsoft Visual Studio\2019\Community\VC\Tools\MSVC\14.28.29333\include\xstring
; File C:\Program Files (x86)\Microsoft Visual Studio\2019\Community\VC\Tools\MSVC\14.28.29333\include\xmemory
; File D:\Metin2 Server Files\mainline\SRC_2014\Metin2Client\EterLib\GrpTextInstance.cpp
; File D:\Metin2 Server Files\mainline\SRC_2014\Metin2Client\EterLib\GrpTextInstance.h
; File D:\Metin2 Server Files\mainline\SRC_2014\Metin2Client\EterLib\GrpTextInstance.cpp
; File C:\Program Files (x86)\Microsoft Visual Studio\2019\Community\VC\Tools\MSVC\14.28.29333\include\xstring
; File D:\Metin2 Server Files\mainline\SRC_2014\Metin2Client\EterLib\GrpTextInstance.cpp
; File D:\Metin2 Server Files\mainline\SRC_2014\Metin2Client\EterLib\GrpTextInstance.h
; File C:\Program Files (x86)\Microsoft Visual Studio\2019\Community\VC\Tools\MSVC\14.28.29333\include\xstring
; File D:\Metin2 Server Files\mainline\SRC_2014\Metin2Client\EterLib\GrpTextInstance.cpp
; File C:\Program Files (x86)\Microsoft Visual Studio\2019\Community\VC\Tools\MSVC\14.28.29333\include\xstring
; File D:\Metin2 Server Files\mainline\SRC_2014\Metin2Client\EterLib\GrpTextInstance.cpp
; File C:\Program Files (x86)\Microsoft Visual Studio\2019\Community\VC\Tools\MSVC\14.28.29333\include\xstring
; File D:\Metin2 Server Files\mainline\SRC_2014\Metin2Client\EterBase\Utils.h
; File C:\Program Files (x86)\Microsoft Visual Studio\2019\Community\VC\Tools\MSVC\14.28.29333\include\xstring
; File D:\Metin2 Server Files\mainline\SRC_2014\Metin2Client\EterBase\Utils.h
; File D:\Metin2 Server Files\mainline\SRC_2014\Metin2Client\EterLib\GrpTextInstance.cpp
; File C:\Program Files (x86)\Microsoft Visual Studio\2019\Community\VC\Tools\MSVC\14.28.29333\include\xmemory
; File D:\Metin2 Server Files\mainline\SRC_2014\Metin2Client\EterLib\GrpTextInstance.cpp
; File D:\Metin2 Server Files\mainline\SRC_2014\Metin2Client\EterBase\Utils.h
; File D:\Metin2 Server Files\mainline\SRC_2014\Metin2Client\EterLib\GrpTextInstance.cpp
; File C:\Program Files (x86)\Microsoft Visual Studio\2019\Community\VC\Tools\MSVC\14.28.29333\include\xstring
; File D:\Metin2 Server Files\mainline\SRC_2014\Metin2Client\EterLib\GrpTextInstance.cpp
; File C:\Program Files (x86)\Microsoft Visual Studio\2019\Community\VC\Tools\MSVC\14.28.29333\include\xstring
; File D:\Metin2 Server Files\mainline\SRC_2014\Metin2Client\EterLib\GrpTextInstance.cpp
; File C:\Program Files (x86)\Microsoft Visual Studio\2019\Community\VC\Tools\MSVC\14.28.29333\include\xstring
; File C:\Program Files (x86)\Microsoft Visual Studio\2019\Community\VC\Tools\MSVC\14.28.29333\include\xmemory
; File C:\Program Files (x86)\Microsoft Visual Studio\2019\Community\VC\Tools\MSVC\14.28.29333\include\xstring
; File C:\Program Files (x86)\Microsoft Visual Studio\2019\Community\VC\Tools\MSVC\14.28.29333\include\xmemory
; File C:\Program Files (x86)\Microsoft Visual Studio\2019\Community\VC\Tools\MSVC\14.28.29333\include\xstring
; File C:\Program Files (x86)\Microsoft Visual Studio\2019\Community\VC\Tools\MSVC\14.28.29333\include\vector
; File C:\Program Files (x86)\Microsoft Visual Studio\2019\Community\VC\Tools\MSVC\14.28.29333\include\xstring
; File D:\Metin2 Server Files\mainline\SRC_2014\Metin2Client\EterLib\GrpTextInstance.cpp
; File C:\Program Files (x86)\Microsoft Visual Studio\2019\Community\VC\Tools\MSVC\14.28.29333\include\xstring
; File D:\Metin2 Server Files\mainline\SRC_2014\Metin2Client\EterLib\GrpTextInstance.cpp
; File C:\Program Files (x86)\Microsoft Visual Studio\2019\Community\VC\Tools\MSVC\14.28.29333\include\xstring
; File C:\Program Files (x86)\Microsoft Visual Studio\2019\Community\VC\Tools\MSVC\14.28.29333\include\xmemory
; File C:\Program Files (x86)\Microsoft Visual Studio\2019\Community\VC\Tools\MSVC\14.28.29333\include\xstring
; File D:\Metin2 Server Files\mainline\SRC_2014\Metin2Client\EterLib\GrpTextInstance.cpp
; File C:\Program Files (x86)\Microsoft Visual Studio\2019\Community\VC\Tools\MSVC\14.28.29333\include\xstring
; File C:\Program Files (x86)\Microsoft Visual Studio\2019\Community\VC\Tools\MSVC\14.28.29333\include\xmemory
; File D:\Metin2 Server Files\mainline\SRC_2014\Metin2Client\EterLib\GrpTextInstance.cpp
;	COMDAT ?Update@CGraphicTextInstance@@QAEXXZ
_TEXT	SEGMENT
_token$1$ = -212					; size = 4
_len$2 = -208						; size = 4
_defCodePage$1$ = -204					; size = 4
_wTextMax$1$ = -200					; size = 4
_end$1$ = -196						; size = 4
_wText$1$ = -192					; size = 4
_len$3 = -188						; size = 4
_i$1$ = -184						; size = 4
_wArabicTextLen$1$ = -184				; size = 4
_pFontTexture$1$ = -180					; size = 4
_isEnglish$1$ = -173					; size = 1
_e$1$ = -172						; size = 4
_x$1$ = -172						; size = 4
_wTextLen$1$ = -172					; size = 4
_dataCodePage$1$ = -168					; size = 4
_no_hyperlink$1$ = -164					; size = 4
_wArabicText$1$ = -160					; size = 4
_this$GSCopy$1$ = -156					; size = 4
_i$1$ = -152						; size = 4
_nEnglishBase$1$ = -148					; size = 4
__New_ptr$4 = -148					; size = 4
tv3168 = -144						; size = 4
__New_ptr$5 = -144					; size = 4
_this$1$ = -140						; size = 4
__Result$2$ = -136					; size = 4
__Old_capacity$1$ = -136				; size = 4
_hyperlinkStep$1$ = -136				; size = 4
__Old_capacity$1$ = -132				; size = 4
__Result$2$ = -132					; size = 4
_e$1$ = -132						; size = 4
tv3176 = -132						; size = 4
__Result$2$ = -128					; size = 4
_x$1$ = -128						; size = 4
_hyperlinkStep$1$ = -128				; size = 4
__New_ptr$6 = -128					; size = 4
_dwColor$1$ = -124					; size = 4
_kHyperlink$7 = -120					; size = 28
_hyperlinkBuffer$8 = -92				; size = 24
_hyperlinkBuffer$9 = -68				; size = 24
_kHyperlink$10 = -44					; size = 28
__$ArrayPad$ = -16					; size = 4
__$EHRec$ = -12						; size = 12
?Update@CGraphicTextInstance@@QAEXXZ PROC		; CGraphicTextInstance::Update, COMDAT
; _this$ = ecx

; 123  : {

  00000	55		 push	 ebp
  00001	8b ec		 mov	 ebp, esp
  00003	6a ff		 push	 -1
  00005	68 00 00 00 00	 push	 __ehhandler$?Update@CGraphicTextInstance@@QAEXXZ
  0000a	64 a1 00 00 00
	00		 mov	 eax, DWORD PTR fs:0
  00010	50		 push	 eax
  00011	81 ec c8 00 00
	00		 sub	 esp, 200		; 000000c8H
  00017	a1 00 00 00 00	 mov	 eax, DWORD PTR ___security_cookie
  0001c	33 c5		 xor	 eax, ebp
  0001e	89 45 f0	 mov	 DWORD PTR __$ArrayPad$[ebp], eax
  00021	53		 push	 ebx
  00022	56		 push	 esi
  00023	57		 push	 edi
  00024	50		 push	 eax
  00025	8d 45 f4	 lea	 eax, DWORD PTR __$EHRec$[ebp]
  00028	64 a3 00 00 00
	00		 mov	 DWORD PTR fs:0, eax
  0002e	8b d9		 mov	 ebx, ecx
  00030	89 9d 64 ff ff
	ff		 mov	 DWORD PTR _this$GSCopy$1$[ebp], ebx

; 124  : 	if (m_isUpdate) //     .

  00036	80 7b 44 00	 cmp	 BYTE PTR [ebx+68], 0
  0003a	0f 85 23 0f 00
	00		 jne	 $LN1@Update
; File D:\Metin2 Server Files\mainline\SRC_2014\Metin2Client\EterLib\Ref.h

; 62   : 			return m_pObject == NULL ? true : false;

  00040	8b 4b 48	 mov	 ecx, DWORD PTR [ebx+72]
  00043	85 c9		 test	 ecx, ecx
; File D:\Metin2 Server Files\mainline\SRC_2014\Metin2Client\EterLib\GrpTextInstance.cpp

; 127  : 	if (m_roText.IsNull())

  00045	75 12		 jne	 SHORT $LN32@Update

; 128  : 	{
; 129  : 		Tracef("CGraphicTextInstance::Update -   \n");

  00047	68 00 00 00 00	 push	 OFFSET ??_C@_0DL@KFHPELNP@CGraphicTextInstance?3?3Update?5?9?5@
  0004c	e8 00 00 00 00	 call	 ?Tracef@@YAXPBDZZ	; Tracef
  00051	83 c4 04	 add	 esp, 4

; 130  : 		return;

  00054	e9 0a 0f 00 00	 jmp	 $LN1@Update
$LN32@Update:

; 131  : 	}
; 132  : 
; 133  : 	if (m_roText->IsEmpty())

  00059	e8 00 00 00 00	 call	 ?IsEmpty@CResource@@QBE_NXZ ; CResource::IsEmpty
  0005e	84 c0		 test	 al, al
  00060	0f 85 fd 0e 00
	00		 jne	 $LN1@Update

; 134  : 		return;
; 135  : 
; 136  : 	CGraphicFontTexture* pFontTexture = m_roText->GetFontTexturePointer();

  00066	8b 4b 48	 mov	 ecx, DWORD PTR [ebx+72]
  00069	e8 00 00 00 00	 call	 ?GetFontTexturePointer@CGraphicText@@QAEPAVCGraphicFontTexture@@XZ ; CGraphicText::GetFontTexturePointer
  0006e	8b f0		 mov	 esi, eax
  00070	89 b5 4c ff ff
	ff		 mov	 DWORD PTR _pFontTexture$1$[ebp], esi

; 137  : 	if (!pFontTexture)

  00076	85 f6		 test	 esi, esi
  00078	0f 84 e5 0e 00
	00		 je	 $LN1@Update

; 138  : 		return;
; 139  : 
; 140  : 	UINT defCodePage = GetDefaultCodePage();

  0007e	e8 00 00 00 00	 call	 ?GetDefaultCodePage@@YAKXZ ; GetDefaultCodePage

; 141  : 
; 142  : 	UINT dataCodePage = defCodePage; //      UTF8    
; 143  : 		
; 144  : 	CGraphicFontTexture::TCharacterInfomation* pSpaceInfo = pFontTexture->GetCharacterInfomation(dataCodePage, ' ');

  00083	6a 20		 push	 32			; 00000020H
  00085	50		 push	 eax
  00086	8b ce		 mov	 ecx, esi
  00088	89 85 34 ff ff
	ff		 mov	 DWORD PTR _defCodePage$1$[ebp], eax
  0008e	89 85 58 ff ff
	ff		 mov	 DWORD PTR _dataCodePage$1$[ebp], eax
  00094	e8 00 00 00 00	 call	 ?GetCharacterInfomation@CGraphicFontTexture@@QAEPAUSCharacterInfomation@1@G_W@Z ; CGraphicFontTexture::GetCharacterInfomation

; 145  : 
; 146  : 	int spaceHeight = pSpaceInfo ? pSpaceInfo->height : 12;

  00099	85 c0		 test	 eax, eax
  0009b	74 06		 je	 SHORT $LN101@Update
  0009d	0f b7 70 04	 movzx	 esi, WORD PTR [eax+4]
  000a1	eb 05		 jmp	 SHORT $LN102@Update
$LN101@Update:
  000a3	be 0c 00 00 00	 mov	 esi, 12			; 0000000cH
$LN102@Update:

; 147  : 	
; 148  : 	m_pCharInfoVector.clear();

  000a8	8b 43 4c	 mov	 eax, DWORD PTR [ebx+76]

; 150  : 	m_hyperlinkVector.clear();

  000ab	8d 7b 64	 lea	 edi, DWORD PTR [ebx+100]
  000ae	89 43 50	 mov	 DWORD PTR [ebx+80], eax
  000b1	8b 43 58	 mov	 eax, DWORD PTR [ebx+88]
  000b4	89 43 5c	 mov	 DWORD PTR [ebx+92], eax
; File C:\Program Files (x86)\Microsoft Visual Studio\2019\Community\VC\Tools\MSVC\14.28.29333\include\vector

; 1612 :         _Destroy_range(_First, _Last, _Getal());

  000b7	57		 push	 edi
  000b8	ff 77 04	 push	 DWORD PTR [edi+4]
; File D:\Metin2 Server Files\mainline\SRC_2014\Metin2Client\EterLib\GrpTextInstance.cpp

; 150  : 	m_hyperlinkVector.clear();

  000bb	89 bd 74 ff ff
	ff		 mov	 DWORD PTR _this$1$[ebp], edi
; File C:\Program Files (x86)\Microsoft Visual Studio\2019\Community\VC\Tools\MSVC\14.28.29333\include\vector

; 1612 :         _Destroy_range(_First, _Last, _Getal());

  000c1	ff 37		 push	 DWORD PTR [edi]
  000c3	e8 00 00 00 00	 call	 ??$_Destroy_range@V?$allocator@USHyperlink@CGraphicTextInstance@@@std@@@std@@YAXPAUSHyperlink@CGraphicTextInstance@@QAU12@AAV?$allocator@USHyperlink@CGraphicTextInstance@@@0@@Z ; std::_Destroy_range<std::allocator<CGraphicTextInstance::SHyperlink> >

; 1390 :         _Mylast = _Myfirst;

  000c8	8b 07		 mov	 eax, DWORD PTR [edi]

; 1612 :         _Destroy_range(_First, _Last, _Getal());

  000ca	83 c4 0c	 add	 esp, 12			; 0000000cH

; 1390 :         _Mylast = _Myfirst;

  000cd	89 47 04	 mov	 DWORD PTR [edi+4], eax
; File D:\Metin2 Server Files\mainline\SRC_2014\Metin2Client\EterLib\GrpTextInstance.cpp

; 152  : 	m_textWidth = 0;

  000d0	33 c0		 xor	 eax, eax

; 153  : 	m_textHeight = spaceHeight;

  000d2	66 89 73 0e	 mov	 WORD PTR [ebx+14], si
; File C:\Program Files (x86)\Microsoft Visual Studio\2019\Community\VC\Tools\MSVC\14.28.29333\include\xstring

; 3752 :         return _Mypair._Myval2._Myptr();

  000d6	8d 73 20	 lea	 esi, DWORD PTR [ebx+32]
; File D:\Metin2 Server Files\mainline\SRC_2014\Metin2Client\EterLib\GrpTextInstance.cpp

; 152  : 	m_textWidth = 0;

  000d9	66 89 43 0c	 mov	 WORD PTR [ebx+12], ax
; File C:\Program Files (x86)\Microsoft Visual Studio\2019\Community\VC\Tools\MSVC\14.28.29333\include\xstring

; 2219 :         if (_Large_string_engaged()) {

  000dd	83 7e 14 10	 cmp	 DWORD PTR [esi+20], 16	; 00000010H
  000e1	72 02		 jb	 SHORT $LN116@Update

; 2220 :             _Result = _Unfancy(_Bx._Ptr);

  000e3	8b 36		 mov	 esi, DWORD PTR [esi]
$LN116@Update:
; File D:\Metin2 Server Files\mainline\SRC_2014\Metin2Client\EterLib\GrpTextInstance.cpp

; 158  : 	const char* end = begin + m_stText.length();

  000e5	8b 43 30	 mov	 eax, DWORD PTR [ebx+48]
  000e8	8d 0c 06	 lea	 ecx, DWORD PTR [esi+eax]

; 159  : 
; 160  : 	int wTextMax = (end - begin) * 2;

  000eb	03 c0		 add	 eax, eax
  000ed	89 85 38 ff ff
	ff		 mov	 DWORD PTR _wTextMax$1$[ebp], eax

; 161  : 	wchar_t* wText = (wchar_t*)_alloca(sizeof(wchar_t)*wTextMax);

  000f3	03 c0		 add	 eax, eax
  000f5	89 8d 3c ff ff
	ff		 mov	 DWORD PTR _end$1$[ebp], ecx
  000fb	e8 00 00 00 00	 call	 __alloca_probe_16

; 162  : 
; 163  : 	DWORD dwColor = m_dwTextColor;
; 164  : 
; 165  : 	/* wstring end */
; 166  : 	while (begin < end)

  00100	8b 85 3c ff ff
	ff		 mov	 eax, DWORD PTR _end$1$[ebp]
  00106	8b 5b 04	 mov	 ebx, DWORD PTR [ebx+4]
  00109	89 a5 40 ff ff
	ff		 mov	 DWORD PTR _wText$1$[ebp], esp
  0010f	89 5d 84	 mov	 DWORD PTR _dwColor$1$[ebp], ebx
  00112	3b f0		 cmp	 esi, eax
  00114	0f 83 34 0e 00
	00		 jae	 $LN562@Update
  0011a	66 0f 1f 44 00
	00		 npad	 6
$LL2@Update:

; 167  : 	{
; 168  : 		const char * token = FindToken(begin, end);

  00120	50		 push	 eax
  00121	56		 push	 esi
  00122	e8 00 00 00 00	 call	 ?FindToken@@YAPBDPBD0@Z	; FindToken

; 169  : 
; 170  : 		int wTextLen = Ymir_MultiByteToWideChar(dataCodePage, 0, begin, token - begin, wText, wTextMax);

  00127	ff b5 38 ff ff
	ff		 push	 DWORD PTR _wTextMax$1$[ebp]
  0012d	89 85 2c ff ff
	ff		 mov	 DWORD PTR _token$1$[ebp], eax
  00133	2b c6		 sub	 eax, esi
  00135	ff b5 40 ff ff
	ff		 push	 DWORD PTR _wText$1$[ebp]
  0013b	50		 push	 eax
  0013c	56		 push	 esi
  0013d	6a 00		 push	 0
  0013f	ff b5 58 ff ff
	ff		 push	 DWORD PTR _dataCodePage$1$[ebp]
  00145	e8 00 00 00 00	 call	 ?Ymir_MultiByteToWideChar@@YAHIKPBDHPA_WH@Z ; Ymir_MultiByteToWideChar
  0014a	8b f0		 mov	 esi, eax
  0014c	83 c4 20	 add	 esp, 32			; 00000020H

; 171  : 
; 172  : 		if (m_isSecret)

  0014f	8b 85 64 ff ff
	ff		 mov	 eax, DWORD PTR _this$GSCopy$1$[ebp]
  00155	89 b5 54 ff ff
	ff		 mov	 DWORD PTR _wTextLen$1$[ebp], esi
  0015b	80 78 19 00	 cmp	 BYTE PTR [eax+25], 0
  0015f	74 35		 je	 SHORT $LN35@Update

; 173  : 		{
; 174  : 			for(int i=0; i<wTextLen; ++i)

  00161	85 f6		 test	 esi, esi
  00163	0f 8e b7 0d 00
	00		 jle	 $LN488@Update
  00169	0f 1f 80 00 00
	00 00		 npad	 7
$LL6@Update:

; 175  : 				__DrawCharacter(pFontTexture, dataCodePage, '*', dwColor);

  00170	53		 push	 ebx
  00171	6a 2a		 push	 42			; 0000002aH
  00173	ff b5 58 ff ff
	ff		 push	 DWORD PTR _dataCodePage$1$[ebp]
  00179	8b c8		 mov	 ecx, eax
  0017b	ff b5 4c ff ff
	ff		 push	 DWORD PTR _pFontTexture$1$[ebp]
  00181	e8 00 00 00 00	 call	 ?__DrawCharacter@CGraphicTextInstance@@IAEHPAVCGraphicFontTexture@@G_WK@Z ; CGraphicTextInstance::__DrawCharacter
  00186	8b 85 64 ff ff
	ff		 mov	 eax, DWORD PTR _this$GSCopy$1$[ebp]
  0018c	83 ee 01	 sub	 esi, 1
  0018f	75 df		 jne	 SHORT $LL6@Update

; 176  : 		} 

  00191	e9 8a 0d 00 00	 jmp	 $LN488@Update
$LN35@Update:

; 177  : 		else 
; 178  : 		{
; 179  : 			if (defCodePage == CP_ARABIC) // ARABIC

  00196	81 bd 34 ff ff
	ff e8 04 00 00	 cmp	 DWORD PTR _defCodePage$1$[ebp], 1256 ; 000004e8H
  001a0	0f 85 04 0a 00
	00		 jne	 $LN37@Update

; 180  : 			{
; 181  : 
; 182  : 				wchar_t* wArabicText = (wchar_t*)_alloca(sizeof(wchar_t) * wTextLen);

  001a6	8d 04 36	 lea	 eax, DWORD PTR [esi+esi]
  001a9	e8 00 00 00 00	 call	 __alloca_probe_16
  001ae	8b c4		 mov	 eax, esp

; 183  : 				int wArabicTextLen = Arabic_MakeShape(wText, wTextLen, wArabicText, wTextLen);

  001b0	56		 push	 esi
  001b1	50		 push	 eax
  001b2	56		 push	 esi
  001b3	ff b5 40 ff ff
	ff		 push	 DWORD PTR _wText$1$[ebp]
  001b9	89 85 60 ff ff
	ff		 mov	 DWORD PTR _wArabicText$1$[ebp], eax
  001bf	e8 00 00 00 00	 call	 ?Arabic_MakeShape@@YAIPA_WI0I@Z ; Arabic_MakeShape
  001c4	8b d0		 mov	 edx, eax

; 184  : 
; 185  : 				bool isEnglish = true;

  001c6	c6 85 53 ff ff
	ff 01		 mov	 BYTE PTR _isEnglish$1$[ebp], 1
; File C:\Program Files (x86)\Microsoft Visual Studio\2019\Community\VC\Tools\MSVC\14.28.29333\include\xstring

; 4378 :         _Mypair._Myval2._Myres  = _BUF_SIZE - 1;

  001cd	be 07 00 00 00	 mov	 esi, 7
; File D:\Metin2 Server Files\mainline\SRC_2014\Metin2Client\EterLib\GrpTextInstance.cpp

; 183  : 				int wArabicTextLen = Arabic_MakeShape(wText, wTextLen, wArabicText, wTextLen);

  001d2	89 95 48 ff ff
	ff		 mov	 DWORD PTR _wArabicTextLen$1$[ebp], edx
; File D:\Metin2 Server Files\mainline\SRC_2014\Metin2Client\EterLib\GrpTextInstance.h

; 84   : 			SHyperlink() : sx(0), ex(0) { }

  001d8	33 c9		 xor	 ecx, ecx
; File D:\Metin2 Server Files\mainline\SRC_2014\Metin2Client\EterLib\GrpTextInstance.cpp

; 189  : 				int x = 0;

  001da	c7 85 54 ff ff
	ff 00 00 00 00	 mov	 DWORD PTR _x$1$[ebp], 0

; 190  : 
; 191  : 				int len;				
; 192  : 				int hyperlinkStep = 0;

  001e4	c7 45 80 00 00
	00 00		 mov	 DWORD PTR _hyperlinkStep$1$[ebp], 0
  001eb	8d 42 ff	 lea	 eax, DWORD PTR [edx-1]
; File D:\Metin2 Server Files\mainline\SRC_2014\Metin2Client\EterLib\GrpTextInstance.h

; 84   : 			SHyperlink() : sx(0), ex(0) { }

  001ee	89 8d 70 ff ff
	ff		 mov	 DWORD PTR tv3168[ebp], ecx
; File D:\Metin2 Server Files\mainline\SRC_2014\Metin2Client\EterLib\GrpTextInstance.cpp

; 186  : 				int nEnglishBase = wArabicTextLen - 1;

  001f4	89 85 6c ff ff
	ff		 mov	 DWORD PTR _nEnglishBase$1$[ebp], eax
; File D:\Metin2 Server Files\mainline\SRC_2014\Metin2Client\EterLib\GrpTextInstance.h

; 84   : 			SHyperlink() : sx(0), ex(0) { }

  001fa	33 c0		 xor	 eax, eax
  001fc	89 45 d4	 mov	 DWORD PTR _kHyperlink$10[ebp], eax
; File C:\Program Files (x86)\Microsoft Visual Studio\2019\Community\VC\Tools\MSVC\14.28.29333\include\xstring

; 4377 :         _Mypair._Myval2._Mysize = 0;

  001ff	89 45 e8	 mov	 DWORD PTR _kHyperlink$10[ebp+20], eax

; 4378 :         _Mypair._Myval2._Myres  = _BUF_SIZE - 1;

  00202	89 b5 78 ff ff
	ff		 mov	 DWORD PTR __Old_capacity$1$[ebp], esi
  00208	89 75 ec	 mov	 DWORD PTR _kHyperlink$10[ebp+24], esi

; 4379 :         // the _Traits::assign is last so the codegen doesn't think the char write can alias this
; 4380 :         _Traits::assign(_Mypair._Myval2._Bx._Buf[0], _Elem());

  0020b	66 89 45 d8	 mov	 WORD PTR _kHyperlink$10[ebp+4], ax
; File D:\Metin2 Server Files\mainline\SRC_2014\Metin2Client\EterLib\GrpTextInstance.cpp

; 193  : 				SHyperlink kHyperlink;

  0020f	89 4d fc	 mov	 DWORD PTR __$EHRec$[ebp+8], ecx
; File C:\Program Files (x86)\Microsoft Visual Studio\2019\Community\VC\Tools\MSVC\14.28.29333\include\xstring

; 4377 :         _Mypair._Myval2._Mysize = 0;

  00212	89 4d cc	 mov	 DWORD PTR _hyperlinkBuffer$9[ebp+16], ecx

; 4378 :         _Mypair._Myval2._Myres  = _BUF_SIZE - 1;

  00215	89 75 d0	 mov	 DWORD PTR _hyperlinkBuffer$9[ebp+20], esi

; 4379 :         // the _Traits::assign is last so the codegen doesn't think the char write can alias this
; 4380 :         _Traits::assign(_Mypair._Myval2._Bx._Buf[0], _Elem());

  00218	66 89 45 bc	 mov	 WORD PTR _hyperlinkBuffer$9[ebp], ax
; File D:\Metin2 Server Files\mainline\SRC_2014\Metin2Client\EterLib\GrpTextInstance.cpp

; 198  : 				if (Arabic_IsInSymbol(wArabicText[wArabicTextLen - 1]))

  0021c	8b 85 60 ff ff
	ff		 mov	 eax, DWORD PTR _wArabicText$1$[ebp]
  00222	c6 45 fc 01	 mov	 BYTE PTR __$EHRec$[ebp+8], 1
  00226	89 8d 5c ff ff
	ff		 mov	 DWORD PTR _no_hyperlink$1$[ebp], ecx
  0022c	0f b7 44 50 fe	 movzx	 eax, WORD PTR [eax+edx*2-2]
  00231	50		 push	 eax
  00232	e8 00 00 00 00	 call	 ?Arabic_IsInSymbol@@YA_N_W@Z ; Arabic_IsInSymbol
  00237	0f b6 8d 53 ff
	ff ff		 movzx	 ecx, BYTE PTR _isEnglish$1$[ebp]
  0023e	33 d2		 xor	 edx, edx
  00240	83 c4 14	 add	 esp, 20			; 00000014H
  00243	84 c0		 test	 al, al
  00245	0f 45 ca	 cmovne	 ecx, edx

; 199  : 				{
; 200  : 					isEnglish = false;
; 201  : 				}
; 202  : 				
; 203  : 				int i = 0;
; 204  : 				for (i = wArabicTextLen - 1 ; i >= 0; --i)

  00248	8b 95 6c ff ff
	ff		 mov	 edx, DWORD PTR _nEnglishBase$1$[ebp]
  0024e	8b c2		 mov	 eax, edx
  00250	89 8d 7c ff ff
	ff		 mov	 DWORD PTR tv3176[ebp], ecx
  00256	89 85 68 ff ff
	ff		 mov	 DWORD PTR _i$1$[ebp], eax
  0025c	85 c0		 test	 eax, eax
  0025e	0f 88 b3 05 00
	00		 js	 $LN8@Update
  00264	8b f2		 mov	 esi, edx
  00266	66 66 0f 1f 84
	00 00 00 00 00	 npad	 10
$LL9@Update:

; 205  : 				{
; 206  : 					wchar_t wArabicChar = wArabicText[i];

  00270	8b 85 60 ff ff
	ff		 mov	 eax, DWORD PTR _wArabicText$1$[ebp]
  00276	0f b7 34 70	 movzx	 esi, WORD PTR [eax+esi*2]

; 207  : 
; 208  : 					if (isEnglish)

  0027a	56		 push	 esi
  0027b	84 c9		 test	 cl, cl
  0027d	0f 84 7f 04 00
	00		 je	 $LN40@Update

; 209  : 					{
; 210  : 
; 211  : 						// <<  (ex. , )>> ->   .
; 212  : 						//		<<(   : , , )>>
; 213  : 						//  (1)    or
; 214  : 						//	(2) 
; 215  : 						//		1)     &&
; 216  : 						//		2)     &&
; 217  : 						//		3)   '|'  &&
; 218  : 						//		or
; 219  : 						//	(3)   '|'
; 220  : 						// <<    : .>>
; 221  : 						//	1)  
; 222  : 						//	2)  
; 223  : 						//
; 224  : 						//
; 225  : 						if (Arabic_IsInSymbol(wArabicChar) && (

  00283	e8 00 00 00 00	 call	 ?Arabic_IsInSymbol@@YA_N_W@Z ; Arabic_IsInSymbol
  00288	83 c4 04	 add	 esp, 4
  0028b	84 c0		 test	 al, al
  0028d	74 63		 je	 SHORT $LN556@Update
  0028f	8b 85 68 ff ff
	ff		 mov	 eax, DWORD PTR _i$1$[ebp]
  00295	85 c0		 test	 eax, eax
  00297	0f 84 53 05 00
	00		 je	 $LN578@Update
  0029d	48		 dec	 eax
  0029e	50		 push	 eax
  0029f	ff b5 60 ff ff
	ff		 push	 DWORD PTR _wArabicText$1$[ebp]
  002a5	e8 00 00 00 00	 call	 ?Arabic_HasPresentation@@YA_NPA_WH@Z ; Arabic_HasPresentation
  002aa	8b 8d 60 ff ff
	ff		 mov	 ecx, DWORD PTR _wArabicText$1$[ebp]
  002b0	83 c4 08	 add	 esp, 8
  002b3	84 c0		 test	 al, al
  002b5	8b 85 68 ff ff
	ff		 mov	 eax, DWORD PTR _i$1$[ebp]
  002bb	75 2a		 jne	 SHORT $LN45@Update
  002bd	0f b7 44 41 02	 movzx	 eax, WORD PTR [ecx+eax*2+2]
  002c2	50		 push	 eax
  002c3	e8 00 00 00 00	 call	 ?Arabic_IsInPresentation@@YA_N_W@Z ; Arabic_IsInPresentation
  002c8	8b 8d 60 ff ff
	ff		 mov	 ecx, DWORD PTR _wArabicText$1$[ebp]
  002ce	83 c4 04	 add	 esp, 4
  002d1	84 c0		 test	 al, al
  002d3	8b 85 68 ff ff
	ff		 mov	 eax, DWORD PTR _i$1$[ebp]
  002d9	75 0c		 jne	 SHORT $LN45@Update
  002db	66 83 7c 41 02
	7c		 cmp	 WORD PTR [ecx+eax*2+2], 124 ; 0000007cH
  002e1	0f 85 09 05 00
	00		 jne	 $LN578@Update
$LN45@Update:
  002e7	66 83 3c 41 7c	 cmp	 WORD PTR [ecx+eax*2], 124 ; 0000007cH
  002ec	0f 84 fe 04 00
	00		 je	 $LN578@Update
$LN556@Update:

; 226  : 								(i == 0) ||
; 227  : 								(i > 0 && 
; 228  : 									!(Arabic_HasPresentation(wArabicText, i - 1) || Arabic_IsInPresentation(wArabicText[i + 1]))  && //,   .
; 229  : 									wArabicText[i+1] != '|'
; 230  : 								) ||
; 231  : 								wArabicText[i] == '|'
; 232  : 							))//if end.
; 233  : 						{
; 234  : 							// pass
; 235  : 							int temptest = 1;
; 236  : 						}
; 237  : 						// (1) (2)     
; 238  : 						else if (Arabic_IsInPresentation(wArabicChar) || Arabic_IsInSymbol(wArabicChar))

  002f2	56		 push	 esi
  002f3	e8 00 00 00 00	 call	 ?Arabic_IsInPresentation@@YA_N_W@Z ; Arabic_IsInPresentation
  002f8	83 c4 04	 add	 esp, 4
  002fb	84 c0		 test	 al, al
  002fd	75 11		 jne	 SHORT $LN47@Update
  002ff	56		 push	 esi
  00300	e8 00 00 00 00	 call	 ?Arabic_IsInSymbol@@YA_N_W@Z ; Arabic_IsInSymbol
  00305	83 c4 04	 add	 esp, 4
  00308	84 c0		 test	 al, al
  0030a	0f 84 e0 04 00
	00		 je	 $LN578@Update
$LN47@Update:

; 239  : 						{
; 240  : 							//   .
; 241  : 							for (int e = i + 1; e <= nEnglishBase;) {

  00310	8b 85 68 ff ff
	ff		 mov	 eax, DWORD PTR _i$1$[ebp]
  00316	8d 48 01	 lea	 ecx, DWORD PTR [eax+1]
  00319	89 8d 7c ff ff
	ff		 mov	 DWORD PTR _e$1$[ebp], ecx
  0031f	3b 8d 6c ff ff
	ff		 cmp	 ecx, DWORD PTR _nEnglishBase$1$[ebp]
  00325	0f 8f 28 03 00
	00		 jg	 $LN11@Update
  0032b	0f 1f 44 00 00	 npad	 5
$LL10@Update:

; 242  : 								int ret = GetTextTag(&wArabicText[e], wArabicTextLen - e, len, hyperlinkBuffer);

  00330	8b 85 60 ff ff
	ff		 mov	 eax, DWORD PTR _wArabicText$1$[ebp]
  00336	8d 34 48	 lea	 esi, DWORD PTR [eax+ecx*2]
  00339	8d 45 bc	 lea	 eax, DWORD PTR _hyperlinkBuffer$9[ebp]
  0033c	50		 push	 eax
  0033d	8d 85 44 ff ff
	ff		 lea	 eax, DWORD PTR _len$3[ebp]
  00343	50		 push	 eax
  00344	8b 85 48 ff ff
	ff		 mov	 eax, DWORD PTR _wArabicTextLen$1$[ebp]
  0034a	2b c1		 sub	 eax, ecx
  0034c	50		 push	 eax
  0034d	56		 push	 esi
  0034e	e8 00 00 00 00	 call	 ?GetTextTag@@YAHPB_WHAAHAAV?$basic_string@_WU?$char_traits@_W@std@@V?$allocator@_W@2@@std@@@Z ; GetTextTag
  00353	83 c4 10	 add	 esp, 16			; 00000010H

; 243  : 
; 244  : 								if (ret == TEXT_TAG_PLAIN || ret == TEXT_TAG_TAG)

  00356	85 c0		 test	 eax, eax
  00358	0f 84 2d 02 00
	00		 je	 $LN50@Update
  0035e	83 f8 01	 cmp	 eax, 1
  00361	0f 84 24 02 00
	00		 je	 $LN50@Update

; 263  : 										}
; 264  : 									}
; 265  : 								}
; 266  : 								else
; 267  : 								{
; 268  : 									if (ret == TEXT_TAG_COLOR)

  00367	83 f8 02	 cmp	 eax, 2
  0036a	75 71		 jne	 SHORT $LN54@Update
; File C:\Program Files (x86)\Microsoft Visual Studio\2019\Community\VC\Tools\MSVC\14.28.29333\include\xstring

; 2219 :         if (_Large_string_engaged()) {

  0036c	83 7d d0 08	 cmp	 DWORD PTR _hyperlinkBuffer$9[ebp+20], 8
  00370	8d 7d bc	 lea	 edi, DWORD PTR _hyperlinkBuffer$9[ebp]
; File D:\Metin2 Server Files\mainline\SRC_2014\Metin2Client\EterBase\Utils.h

; 149  :     int x = 0, y = 1;

  00373	8d 70 ff	 lea	 esi, DWORD PTR [eax-1]
; File C:\Program Files (x86)\Microsoft Visual Studio\2019\Community\VC\Tools\MSVC\14.28.29333\include\xstring

; 2219 :         if (_Large_string_engaged()) {

  00376	0f 43 7d bc	 cmovae	 edi, DWORD PTR _hyperlinkBuffer$9[ebp]
; File D:\Metin2 Server Files\mainline\SRC_2014\Metin2Client\EterBase\Utils.h

; 149  :     int x = 0, y = 1;

  0037a	33 db		 xor	 ebx, ebx
  0037c	89 5d 84	 mov	 DWORD PTR _dwColor$1$[ebp], ebx

; 152  :     while (t <= --s)

  0037f	8d 57 0e	 lea	 edx, DWORD PTR [edi+14]
  00382	3b fa		 cmp	 edi, edx
  00384	0f 87 9f 02 00
	00		 ja	 $LN157@Update
  0038a	66 0f 1f 44 00
	00		 npad	 6
$LL158@Update:

; 153  :     {
; 154  : 		if (L'0' <= *s && *s <= L'9')

  00390	0f b7 0a	 movzx	 ecx, WORD PTR [edx]
  00393	8d 41 d0	 lea	 eax, DWORD PTR [ecx-48]
  00396	66 83 f8 09	 cmp	 ax, 9
  0039a	77 05		 ja	 SHORT $LN160@Update

; 155  :             x += y * (*s - L'0');

  0039c	8d 41 d0	 lea	 eax, DWORD PTR [ecx-48]
  0039f	eb 1a		 jmp	 SHORT $LN165@Update
$LN160@Update:

; 156  :         else if (L'a' <= *s && *s <= L'f')

  003a1	8d 41 9f	 lea	 eax, DWORD PTR [ecx-97]
  003a4	66 83 f8 05	 cmp	 ax, 5
  003a8	77 05		 ja	 SHORT $LN162@Update

; 157  :             x += y * (*s - L'a' + 10);

  003aa	8d 41 a9	 lea	 eax, DWORD PTR [ecx-87]
  003ad	eb 0c		 jmp	 SHORT $LN165@Update
$LN162@Update:

; 158  :         else if (L'A' <= *s && *s <= L'F')

  003af	8d 41 bf	 lea	 eax, DWORD PTR [ecx-65]
  003b2	66 83 f8 05	 cmp	 ax, 5
  003b6	77 1a		 ja	 SHORT $LN164@Update

; 159  :             x += y * (10 + *s - L'A');

  003b8	8d 41 c9	 lea	 eax, DWORD PTR [ecx-55]
$LN165@Update:

; 162  :         y <<= 4;

  003bb	0f af c6	 imul	 eax, esi
  003be	83 ea 02	 sub	 edx, 2
  003c1	c1 e6 04	 shl	 esi, 4
  003c4	03 d8		 add	 ebx, eax
  003c6	3b fa		 cmp	 edi, edx
  003c8	76 c6		 jbe	 SHORT $LL158@Update
; File D:\Metin2 Server Files\mainline\SRC_2014\Metin2Client\EterLib\GrpTextInstance.cpp

; 269  : 										dwColor = htoi(hyperlinkBuffer.c_str(), 8);

  003ca	89 5d 84	 mov	 DWORD PTR _dwColor$1$[ebp], ebx
  003cd	e9 57 02 00 00	 jmp	 $LN157@Update
$LN164@Update:
; File D:\Metin2 Server Files\mainline\SRC_2014\Metin2Client\EterBase\Utils.h

; 161  :             return -1; /* invalid input! */

  003d2	83 cb ff	 or	 ebx, -1
; File D:\Metin2 Server Files\mainline\SRC_2014\Metin2Client\EterLib\GrpTextInstance.cpp

; 269  : 										dwColor = htoi(hyperlinkBuffer.c_str(), 8);

  003d5	89 5d 84	 mov	 DWORD PTR _dwColor$1$[ebp], ebx
  003d8	e9 4c 02 00 00	 jmp	 $LN157@Update
$LN54@Update:

; 270  : 									else if (ret == TEXT_TAG_RESTORE_COLOR)

  003dd	83 f8 05	 cmp	 eax, 5
  003e0	75 11		 jne	 SHORT $LN56@Update

; 271  : 										dwColor = m_dwTextColor;

  003e2	8b 85 64 ff ff
	ff		 mov	 eax, DWORD PTR _this$GSCopy$1$[ebp]
  003e8	8b 58 04	 mov	 ebx, DWORD PTR [eax+4]
  003eb	89 5d 84	 mov	 DWORD PTR _dwColor$1$[ebp], ebx
  003ee	e9 3c 02 00 00	 jmp	 $LN507@Update
$LN56@Update:

; 272  : 									else if (ret == TEXT_TAG_HYPERLINK_START)

  003f3	83 f8 03	 cmp	 eax, 3
  003f6	75 1b		 jne	 SHORT $LN58@Update
; File C:\Program Files (x86)\Microsoft Visual Studio\2019\Community\VC\Tools\MSVC\14.28.29333\include\xstring

; 3062 :         return assign(_Ptr, _Convert_size<size_type>(_Traits::length(_Ptr)));

  003f8	6a 00		 push	 0
  003fa	68 00 00 00 00	 push	 OFFSET ??_C@_11LOCGONAA@@
  003ff	8d 4d bc	 lea	 ecx, DWORD PTR _hyperlinkBuffer$9[ebp]
; File D:\Metin2 Server Files\mainline\SRC_2014\Metin2Client\EterLib\GrpTextInstance.cpp

; 274  : 										hyperlinkStep = 1;

  00402	c7 45 80 01 00
	00 00		 mov	 DWORD PTR _hyperlinkStep$1$[ebp], 1
; File C:\Program Files (x86)\Microsoft Visual Studio\2019\Community\VC\Tools\MSVC\14.28.29333\include\xstring

; 3062 :         return assign(_Ptr, _Convert_size<size_type>(_Traits::length(_Ptr)));

  00409	e8 00 00 00 00	 call	 ?assign@?$basic_string@_WU?$char_traits@_W@std@@V?$allocator@_W@2@@std@@QAEAAV12@QB_WI@Z ; std::basic_string<wchar_t,std::char_traits<wchar_t>,std::allocator<wchar_t> >::assign
; File D:\Metin2 Server Files\mainline\SRC_2014\Metin2Client\EterLib\GrpTextInstance.cpp

; 276  : 									}

  0040e	e9 1c 02 00 00	 jmp	 $LN507@Update
$LN58@Update:

; 277  : 									else if (ret == TEXT_TAG_HYPERLINK_END)

  00413	83 f8 04	 cmp	 eax, 4
  00416	0f 85 13 02 00
	00		 jne	 $LN507@Update

; 278  : 									{
; 279  : 										if (hyperlinkStep == 1)

  0041c	83 7d 80 01	 cmp	 DWORD PTR _hyperlinkStep$1$[ebp], 1
  00420	75 17		 jne	 SHORT $LN61@Update

; 280  : 										{
; 281  : 											++hyperlinkStep;
; 282  : 											kHyperlink.ex = kHyperlink.sx = 0; //    

  00422	33 c0		 xor	 eax, eax
  00424	c7 45 80 02 00
	00 00		 mov	 DWORD PTR _hyperlinkStep$1$[ebp], 2
  0042b	89 45 d4	 mov	 DWORD PTR _kHyperlink$10[ebp], eax
  0042e	89 85 70 ff ff
	ff		 mov	 DWORD PTR tv3168[ebp], eax

; 283  : 										}

  00434	e9 f6 01 00 00	 jmp	 $LN507@Update
$LN61@Update:
; File C:\Program Files (x86)\Microsoft Visual Studio\2019\Community\VC\Tools\MSVC\14.28.29333\include\xstring

; 2219 :         if (_Large_string_engaged()) {

  00439	83 7d d0 08	 cmp	 DWORD PTR _hyperlinkBuffer$9[ebp+20], 8
  0043d	8d 45 bc	 lea	 eax, DWORD PTR _hyperlinkBuffer$9[ebp]

; 2828 :         assign(_Right._Mypair._Myval2._Myptr(), _Right._Mypair._Myval2._Mysize);

  00440	8b 5d cc	 mov	 ebx, DWORD PTR _hyperlinkBuffer$9[ebp+16]

; 2219 :         if (_Large_string_engaged()) {

  00443	0f 43 45 bc	 cmovae	 eax, DWORD PTR _hyperlinkBuffer$9[ebp]

; 2828 :         assign(_Right._Mypair._Myval2._Myptr(), _Right._Mypair._Myval2._Mysize);

  00447	8b 95 78 ff ff
	ff		 mov	 edx, DWORD PTR __Old_capacity$1$[ebp]

; 2219 :         if (_Large_string_engaged()) {

  0044d	89 45 80	 mov	 DWORD PTR __Result$2$[ebp], eax

; 2828 :         assign(_Right._Mypair._Myval2._Myptr(), _Right._Mypair._Myval2._Mysize);

  00450	3b da		 cmp	 ebx, edx

; 3044 :         if (_Count <= _Mypair._Myval2._Myres) {

  00452	77 26		 ja	 SHORT $LN184@Update

; 2210 :         if (_Large_string_engaged()) {

  00454	83 fa 08	 cmp	 edx, 8

; 3046 :             _Mypair._Myval2._Mysize = _Count;

  00457	89 5d e8	 mov	 DWORD PTR _kHyperlink$10[ebp+20], ebx

; 119  :         _CSTD memmove(_First1, _First2, _Count * sizeof(_Elem));

  0045a	8d 34 1b	 lea	 esi, DWORD PTR [ebx+ebx]
  0045d	56		 push	 esi

; 2209 :         value_type* _Result = _Bx._Buf;

  0045e	8d 7d d8	 lea	 edi, DWORD PTR _kHyperlink$10[ebp+4]

; 2210 :         if (_Large_string_engaged()) {

  00461	0f 43 7d d8	 cmovae	 edi, DWORD PTR _kHyperlink$10[ebp+4]

; 119  :         _CSTD memmove(_First1, _First2, _Count * sizeof(_Elem));

  00465	50		 push	 eax
  00466	57		 push	 edi
  00467	e8 00 00 00 00	 call	 _memmove
  0046c	83 c4 0c	 add	 esp, 12			; 0000000cH

; 3048 :             _Traits::assign(_Old_ptr[_Count], _Elem());

  0046f	33 c0		 xor	 eax, eax
  00471	66 89 04 37	 mov	 WORD PTR [edi+esi], ax

; 3049 :             return *this;

  00475	e9 b1 00 00 00	 jmp	 $LN196@Update
$LN184@Update:

; 4305 :         if (_New_size > max_size()) {

  0047a	81 fb fe ff ff
	7f		 cmp	 ebx, 2147483646		; 7ffffffeH
  00480	0f 87 ff 0a 00
	00		 ja	 $LN513@Update

; 4306 :             _Xlen_string(); // result too long
; 4307 :         }
; 4308 : 
; 4309 :         const size_type _Old_capacity = _Mypair._Myval2._Myres;

  00486	8b f3		 mov	 esi, ebx
  00488	83 ce 07	 or	 esi, 7

; 4285 :         const size_type _Masked = _Requested | _ALLOC_MASK;

  0048b	81 fe fe ff ff
	7f		 cmp	 esi, 2147483646		; 7ffffffeH

; 4286 :         if (_Masked > _Max) { // the mask overflows, settle for max_size()

  00491	76 0a		 jbe	 SHORT $LN201@Update

; 4287 :             return _Max;

  00493	be fe ff ff 7f	 mov	 esi, 2147483646		; 7ffffffeH
  00498	8d 46 01	 lea	 eax, DWORD PTR [esi+1]
  0049b	eb 2f		 jmp	 SHORT $LN560@Update
$LN201@Update:

; 4288 :         }
; 4289 : 
; 4290 :         if (_Old > _Max - _Old / 2) { // similarly, geometric overflows

  0049d	8b ca		 mov	 ecx, edx
  0049f	b8 fe ff ff 7f	 mov	 eax, 2147483646		; 7ffffffeH
  004a4	d1 e9		 shr	 ecx, 1
  004a6	2b c1		 sub	 eax, ecx
  004a8	3b d0		 cmp	 edx, eax
  004aa	76 0a		 jbe	 SHORT $LN202@Update

; 4291 :             return _Max;

  004ac	be fe ff ff 7f	 mov	 esi, 2147483646		; 7ffffffeH
  004b1	8d 46 01	 lea	 eax, DWORD PTR [esi+1]
  004b4	eb 16		 jmp	 SHORT $LN560@Update
$LN202@Update:

; 4292 :         }
; 4293 : 
; 4294 :         return (_STD max)(_Masked, _Old + _Old / 2);

  004b6	8d 04 0a	 lea	 eax, DWORD PTR [edx+ecx]
  004b9	3b f0		 cmp	 esi, eax
  004bb	0f 42 f0	 cmovb	 esi, eax

; 4312 :         const pointer _New_ptr        = _Al.allocate(_New_capacity + 1); // throws

  004be	8d 46 01	 lea	 eax, DWORD PTR [esi+1]
; File C:\Program Files (x86)\Microsoft Visual Studio\2019\Community\VC\Tools\MSVC\14.28.29333\include\xmemory

; 60   :         if (_Count > _Max_possible) {

  004c1	3d ff ff ff 7f	 cmp	 eax, 2147483647		; 7fffffffH
  004c6	0f 87 be 0a 00
	00		 ja	 $LN514@Update
$LN560@Update:

; 61   :             _Throw_bad_array_new_length(); // multiply overflow
; 62   :         }
; 63   :     }
; 64   : 
; 65   :     return _Count * _Ty_size;

  004cc	03 c0		 add	 eax, eax

; 814  :         return static_cast<_Ty*>(_Allocate<_New_alignof<_Ty>>(_Get_size_of_n<sizeof(_Ty)>(_Count)));

  004ce	50		 push	 eax
  004cf	e8 00 00 00 00	 call	 ??$_Allocate@$07U_Default_allocate_traits@std@@$0A@@std@@YAPAXI@Z ; std::_Allocate<8,std::_Default_allocate_traits,0>
; File C:\Program Files (x86)\Microsoft Visual Studio\2019\Community\VC\Tools\MSVC\14.28.29333\include\xstring

; 4315 :         _Mypair._Myval2._Myres  = _New_capacity;

  004d4	89 75 ec	 mov	 DWORD PTR _kHyperlink$10[ebp+24], esi
  004d7	8b f8		 mov	 edi, eax

; 62   :         _CSTD memcpy(_First1, _First2, _Count * sizeof(_Elem));

  004d9	8d 34 1b	 lea	 esi, DWORD PTR [ebx+ebx]

; 4312 :         const pointer _New_ptr        = _Al.allocate(_New_capacity + 1); // throws

  004dc	89 bd 70 ff ff
	ff		 mov	 DWORD PTR __New_ptr$5[ebp], edi

; 62   :         _CSTD memcpy(_First1, _First2, _Count * sizeof(_Elem));

  004e2	56		 push	 esi
  004e3	ff 75 80	 push	 DWORD PTR __Result$2$[ebp]

; 4314 :         _Mypair._Myval2._Mysize = _New_size;

  004e6	89 5d e8	 mov	 DWORD PTR _kHyperlink$10[ebp+20], ebx

; 62   :         _CSTD memcpy(_First1, _First2, _Count * sizeof(_Elem));

  004e9	57		 push	 edi
  004ea	e8 00 00 00 00	 call	 _memcpy

; 3056 :                 _Traits::assign(_New_ptr[_Count], _Elem());

  004ef	33 c0		 xor	 eax, eax

; 62   :         _CSTD memcpy(_First1, _First2, _Count * sizeof(_Elem));

  004f1	83 c4 10	 add	 esp, 16			; 00000010H

; 3056 :                 _Traits::assign(_New_ptr[_Count], _Elem());

  004f4	66 89 04 37	 mov	 WORD PTR [edi+esi], ax

; 4317 :         if (_BUF_SIZE <= _Old_capacity) {

  004f8	8b 85 78 ff ff
	ff		 mov	 eax, DWORD PTR __Old_capacity$1$[ebp]
  004fe	83 f8 08	 cmp	 eax, 8
  00501	72 15		 jb	 SHORT $LN195@Update
; File C:\Program Files (x86)\Microsoft Visual Studio\2019\Community\VC\Tools\MSVC\14.28.29333\include\xmemory

; 810  :         _Deallocate<_New_alignof<_Ty>>(_Ptr, sizeof(_Ty) * _Count);

  00503	8d 04 45 02 00
	00 00		 lea	 eax, DWORD PTR [eax*2+2]
  0050a	50		 push	 eax
  0050b	ff 75 d8	 push	 DWORD PTR _kHyperlink$10[ebp+4]
  0050e	e8 00 00 00 00	 call	 ??$_Deallocate@$07$0A@@std@@YAXPAXI@Z ; std::_Deallocate<8,0>
; File C:\Program Files (x86)\Microsoft Visual Studio\2019\Community\VC\Tools\MSVC\14.28.29333\include\xstring

; 4319 :             _Mypair._Myval2._Bx._Ptr = _New_ptr;

  00513	89 7d d8	 mov	 DWORD PTR _kHyperlink$10[ebp+4], edi

; 4320 :         } else {

  00516	eb 10		 jmp	 SHORT $LN586@Update
$LN195@Update:

; 4321 :             _Construct_in_place(_Mypair._Myval2._Bx._Ptr, _New_ptr);

  00518	8d 85 70 ff ff
	ff		 lea	 eax, DWORD PTR __New_ptr$5[ebp]
  0051e	50		 push	 eax
  0051f	8d 45 d8	 lea	 eax, DWORD PTR _kHyperlink$10[ebp+4]
  00522	50		 push	 eax
  00523	e8 00 00 00 00	 call	 ??$_Construct_in_place@PA_WABQA_W@std@@YAXAAPA_WABQA_W@Z ; std::_Construct_in_place<wchar_t *,wchar_t * const &>
$LN586@Update:
; File C:\Program Files (x86)\Microsoft Visual Studio\2019\Community\VC\Tools\MSVC\14.28.29333\include\vector

; 704  :         if (_Mylast != _My_data._Myend) {

  00528	83 c4 08	 add	 esp, 8
$LN196@Update:
  0052b	8b bd 74 ff ff
	ff		 mov	 edi, DWORD PTR _this$1$[ebp]
  00531	8d 4d d4	 lea	 ecx, DWORD PTR _kHyperlink$10[ebp]
  00534	51		 push	 ecx
  00535	8b 47 04	 mov	 eax, DWORD PTR [edi+4]
  00538	50		 push	 eax
  00539	3b 47 08	 cmp	 eax, DWORD PTR [edi+8]
  0053c	74 0f		 je	 SHORT $LN226@Update

; 687  :         _Alty_traits::construct(_Getal(), _Unfancy(_Mylast), _STD forward<_Valty>(_Val)...);

  0053e	57		 push	 edi
  0053f	e8 00 00 00 00	 call	 ??$construct@USHyperlink@CGraphicTextInstance@@ABU12@@?$_Default_allocator_traits@V?$allocator@USHyperlink@CGraphicTextInstance@@@std@@@std@@SAXAAV?$allocator@USHyperlink@CGraphicTextInstance@@@1@QAUSHyperlink@CGraphicTextInstance@@ABU34@@Z ; std::_Default_allocator_traits<std::allocator<CGraphicTextInstance::SHyperlink> >::construct<CGraphicTextInstance::SHyperlink,CGraphicTextInstance::SHyperlink const &>
  00544	83 c4 0c	 add	 esp, 12			; 0000000cH

; 688  :         _Orphan_range(_Mylast, _Mylast);
; 689  :         _Ty& _Result = *_Mylast;
; 690  :         ++_Mylast;

  00547	83 47 04 1c	 add	 DWORD PTR [edi+4], 28	; 0000001cH

; 705  :             return _Emplace_back_with_unused_capacity(_STD forward<_Valty>(_Val)...);

  0054b	eb 07		 jmp	 SHORT $LN225@Update
$LN226@Update:

; 706  :         }
; 707  : 
; 708  :         _Ty& _Result = *_Emplace_reallocate(_Mylast, _STD forward<_Valty>(_Val)...);

  0054d	8b cf		 mov	 ecx, edi
  0054f	e8 00 00 00 00	 call	 ??$_Emplace_reallocate@ABUSHyperlink@CGraphicTextInstance@@@?$vector@USHyperlink@CGraphicTextInstance@@V?$allocator@USHyperlink@CGraphicTextInstance@@@std@@@std@@QAEPAUSHyperlink@CGraphicTextInstance@@QAU23@ABU23@@Z ; std::vector<CGraphicTextInstance::SHyperlink,std::allocator<CGraphicTextInstance::SHyperlink> >::_Emplace_reallocate<CGraphicTextInstance::SHyperlink const &>
$LN225@Update:
; File D:\Metin2 Server Files\mainline\SRC_2014\Metin2Client\EterLib\GrpTextInstance.cpp

; 288  : 											no_hyperlink++;

  00554	ff 85 5c ff ff
	ff		 inc	 DWORD PTR _no_hyperlink$1$[ebp]
; File C:\Program Files (x86)\Microsoft Visual Studio\2019\Community\VC\Tools\MSVC\14.28.29333\include\xstring

; 3062 :         return assign(_Ptr, _Convert_size<size_type>(_Traits::length(_Ptr)));

  0055a	8d 4d bc	 lea	 ecx, DWORD PTR _hyperlinkBuffer$9[ebp]
  0055d	6a 00		 push	 0
  0055f	68 00 00 00 00	 push	 OFFSET ??_C@_11LOCGONAA@@
; File D:\Metin2 Server Files\mainline\SRC_2014\Metin2Client\EterLib\GrpTextInstance.cpp

; 291  : 											hyperlinkStep = 0;

  00564	c7 45 80 00 00
	00 00		 mov	 DWORD PTR _hyperlinkStep$1$[ebp], 0
; File C:\Program Files (x86)\Microsoft Visual Studio\2019\Community\VC\Tools\MSVC\14.28.29333\include\xstring

; 3062 :         return assign(_Ptr, _Convert_size<size_type>(_Traits::length(_Ptr)));

  0056b	e8 00 00 00 00	 call	 ?assign@?$basic_string@_WU?$char_traits@_W@std@@V?$allocator@_W@2@@std@@QAEAAV12@QB_WI@Z ; std::basic_string<wchar_t,std::char_traits<wchar_t>,std::allocator<wchar_t> >::assign
  00570	8b 45 ec	 mov	 eax, DWORD PTR _kHyperlink$10[ebp+24]
  00573	8b 5d 84	 mov	 ebx, DWORD PTR _dwColor$1$[ebp]
  00576	89 85 78 ff ff
	ff		 mov	 DWORD PTR __Old_capacity$1$[ebp], eax
  0057c	66 8b 45 d6	 mov	 ax, WORD PTR _kHyperlink$10[ebp+2]
  00580	89 85 70 ff ff
	ff		 mov	 DWORD PTR tv3168[ebp], eax
  00586	e9 a4 00 00 00	 jmp	 $LN507@Update
$LN50@Update:
; File D:\Metin2 Server Files\mainline\SRC_2014\Metin2Client\EterLib\GrpTextInstance.cpp

; 246  : 									if (hyperlinkStep == 1)

  0058b	83 7d 80 01	 cmp	 DWORD PTR _hyperlinkStep$1$[ebp], 1
  0058f	0f b7 06	 movzx	 eax, WORD PTR [esi]
  00592	75 10		 jne	 SHORT $LN51@Update

; 247  : 										hyperlinkBuffer.append(1, wArabicText[e]);

  00594	50		 push	 eax
  00595	6a 01		 push	 1
  00597	8d 4d bc	 lea	 ecx, DWORD PTR _hyperlinkBuffer$9[ebp]
  0059a	e8 00 00 00 00	 call	 ?append@?$basic_string@_WU?$char_traits@_W@std@@V?$allocator@_W@2@@std@@QAEAAV12@I_W@Z ; std::basic_string<wchar_t,std::char_traits<wchar_t>,std::allocator<wchar_t> >::append
  0059f	e9 8b 00 00 00	 jmp	 $LN507@Update
$LN51@Update:

; 248  : 									else
; 249  : 									{
; 250  : 										int charWidth = __DrawCharacter(pFontTexture, dataCodePage, wArabicText[e], dwColor);

  005a4	8b 8d 64 ff ff
	ff		 mov	 ecx, DWORD PTR _this$GSCopy$1$[ebp]
  005aa	53		 push	 ebx
  005ab	50		 push	 eax
  005ac	ff b5 58 ff ff
	ff		 push	 DWORD PTR _dataCodePage$1$[ebp]
  005b2	ff b5 4c ff ff
	ff		 push	 DWORD PTR _pFontTexture$1$[ebp]
  005b8	e8 00 00 00 00	 call	 ?__DrawCharacter@CGraphicTextInstance@@IAEHPAVCGraphicFontTexture@@G_WK@Z ; CGraphicTextInstance::__DrawCharacter

; 251  : 										kHyperlink.ex += charWidth;

  005bd	8b 8d 70 ff ff
	ff		 mov	 ecx, DWORD PTR tv3168[ebp]

; 255  : 										for (int j = 1; j <= no_hyperlink; j++)

  005c3	be 01 00 00 00	 mov	 esi, 1
  005c8	66 03 c8	 add	 cx, ax
  005cb	89 8d 70 ff ff
	ff		 mov	 DWORD PTR tv3168[ebp], ecx
  005d1	66 89 4d d6	 mov	 WORD PTR _kHyperlink$10[ebp+2], cx
  005d5	39 b5 5c ff ff
	ff		 cmp	 DWORD PTR _no_hyperlink$1$[ebp], esi
  005db	7c 52		 jl	 SHORT $LN507@Update
; File C:\Program Files (x86)\Microsoft Visual Studio\2019\Community\VC\Tools\MSVC\14.28.29333\include\vector

; 1483 :         auto& _My_data = _Mypair._Myval2;

  005dd	0f b7 c0	 movzx	 eax, ax
$LL15@Update:

; 1484 :         return static_cast<size_type>(_My_data._Mylast - _My_data._Myfirst);

  005e0	0f b7 f8	 movzx	 edi, ax
  005e3	8b 85 74 ff ff
	ff		 mov	 eax, DWORD PTR _this$1$[ebp]
  005e9	8b 48 04	 mov	 ecx, DWORD PTR [eax+4]
  005ec	8b 18		 mov	 ebx, DWORD PTR [eax]
  005ee	2b cb		 sub	 ecx, ebx
  005f0	b8 93 24 49 92	 mov	 eax, -1840700269	; 92492493H
  005f5	f7 e9		 imul	 ecx
  005f7	03 d1		 add	 edx, ecx
  005f9	c1 fa 04	 sar	 edx, 4
  005fc	8b ca		 mov	 ecx, edx
  005fe	c1 e9 1f	 shr	 ecx, 31			; 0000001fH
  00601	03 ca		 add	 ecx, edx
; File D:\Metin2 Server Files\mainline\SRC_2014\Metin2Client\EterLib\GrpTextInstance.cpp

; 257  : 											if(m_hyperlinkVector.size() < j)

  00603	3b ce		 cmp	 ecx, esi
  00605	72 1f		 jb	 SHORT $LN570@Update
; File C:\Program Files (x86)\Microsoft Visual Studio\2019\Community\VC\Tools\MSVC\14.28.29333\include\vector

; 1504 :         return _My_data._Myfirst[_Pos];

  00607	2b ce		 sub	 ecx, esi
; File D:\Metin2 Server Files\mainline\SRC_2014\Metin2Client\EterLib\GrpTextInstance.cpp

; 255  : 										for (int j = 1; j <= no_hyperlink; j++)

  00609	46		 inc	 esi
; File C:\Program Files (x86)\Microsoft Visual Studio\2019\Community\VC\Tools\MSVC\14.28.29333\include\vector

; 1504 :         return _My_data._Myfirst[_Pos];

  0060a	8d 04 cd 00 00
	00 00		 lea	 eax, DWORD PTR [ecx*8]
  00611	2b c1		 sub	 eax, ecx
; File D:\Metin2 Server Files\mainline\SRC_2014\Metin2Client\EterLib\GrpTextInstance.cpp

; 261  : 											tempLink.ex += charWidth;

  00613	66 01 7c 83 02	 add	 WORD PTR [ebx+eax*4+2], di

; 262  : 											tempLink.sx += charWidth;

  00618	66 01 3c 83	 add	 WORD PTR [ebx+eax*4], di
  0061c	8b c7		 mov	 eax, edi
  0061e	3b b5 5c ff ff
	ff		 cmp	 esi, DWORD PTR _no_hyperlink$1$[ebp]
  00624	7e ba		 jle	 SHORT $LL15@Update
$LN570@Update:
  00626	8b 5d 84	 mov	 ebx, DWORD PTR _dwColor$1$[ebp]
$LN157@Update:

; 292  : 											hyperlinkBuffer = L"";						
; 293  : 										}
; 294  : 									}
; 295  : 								}
; 296  : 								e += len;

  00629	8b bd 74 ff ff
	ff		 mov	 edi, DWORD PTR _this$1$[ebp]
$LN507@Update:
  0062f	8b 8d 7c ff ff
	ff		 mov	 ecx, DWORD PTR _e$1$[ebp]
  00635	03 8d 44 ff ff
	ff		 add	 ecx, DWORD PTR _len$3[ebp]
  0063b	89 8d 7c ff ff
	ff		 mov	 DWORD PTR _e$1$[ebp], ecx
  00641	3b 8d 6c ff ff
	ff		 cmp	 ecx, DWORD PTR _nEnglishBase$1$[ebp]
  00647	0f 8e e3 fc ff
	ff		 jle	 $LL10@Update
  0064d	8b 85 68 ff ff
	ff		 mov	 eax, DWORD PTR _i$1$[ebp]
$LN11@Update:

; 297  : 							}
; 298  : 
; 299  : 							int charWidth = __DrawCharacter(pFontTexture, dataCodePage, Arabic_ConvSymbol(wArabicText[i]), dwColor);

  00653	8b 8d 60 ff ff
	ff		 mov	 ecx, DWORD PTR _wArabicText$1$[ebp]
  00659	53		 push	 ebx
  0065a	0f b7 04 41	 movzx	 eax, WORD PTR [ecx+eax*2]
  0065e	50		 push	 eax
  0065f	e8 00 00 00 00	 call	 ?Arabic_ConvSymbol@@YA_W_W@Z ; Arabic_ConvSymbol
  00664	8b 8d 64 ff ff
	ff		 mov	 ecx, DWORD PTR _this$GSCopy$1$[ebp]
  0066a	83 c4 04	 add	 esp, 4
  0066d	0f b7 c0	 movzx	 eax, ax
  00670	50		 push	 eax
  00671	ff b5 58 ff ff
	ff		 push	 DWORD PTR _dataCodePage$1$[ebp]
  00677	ff b5 4c ff ff
	ff		 push	 DWORD PTR _pFontTexture$1$[ebp]
  0067d	e8 00 00 00 00	 call	 ?__DrawCharacter@CGraphicTextInstance@@IAEHPAVCGraphicFontTexture@@G_WK@Z ; CGraphicTextInstance::__DrawCharacter

; 300  : 							kHyperlink.ex += charWidth;

  00682	0f b7 d8	 movzx	 ebx, ax

; 303  : 							for (int j = 1; j <= no_hyperlink; j++)

  00685	be 01 00 00 00	 mov	 esi, 1
  0068a	8b 85 70 ff ff
	ff		 mov	 eax, DWORD PTR tv3168[ebp]
  00690	66 03 c3	 add	 ax, bx
  00693	89 85 70 ff ff
	ff		 mov	 DWORD PTR tv3168[ebp], eax
  00699	66 89 45 d6	 mov	 WORD PTR _kHyperlink$10[ebp+2], ax
  0069d	39 b5 5c ff ff
	ff		 cmp	 DWORD PTR _no_hyperlink$1$[ebp], esi
  006a3	7c 47		 jl	 SHORT $LN510@Update
$LL18@Update:
; File C:\Program Files (x86)\Microsoft Visual Studio\2019\Community\VC\Tools\MSVC\14.28.29333\include\vector

; 1484 :         return static_cast<size_type>(_My_data._Mylast - _My_data._Myfirst);

  006a5	8b 85 64 ff ff
	ff		 mov	 eax, DWORD PTR _this$GSCopy$1$[ebp]
  006ab	8b 3f		 mov	 edi, DWORD PTR [edi]
  006ad	8b 48 68	 mov	 ecx, DWORD PTR [eax+104]
  006b0	b8 93 24 49 92	 mov	 eax, -1840700269	; 92492493H
  006b5	2b cf		 sub	 ecx, edi
  006b7	f7 e9		 imul	 ecx
  006b9	03 d1		 add	 edx, ecx
  006bb	c1 fa 04	 sar	 edx, 4
  006be	8b ca		 mov	 ecx, edx
  006c0	c1 e9 1f	 shr	 ecx, 31			; 0000001fH
  006c3	03 ca		 add	 ecx, edx
; File D:\Metin2 Server Files\mainline\SRC_2014\Metin2Client\EterLib\GrpTextInstance.cpp

; 305  : 								if(m_hyperlinkVector.size() < j)

  006c5	3b ce		 cmp	 ecx, esi
  006c7	72 23		 jb	 SHORT $LN510@Update
; File C:\Program Files (x86)\Microsoft Visual Studio\2019\Community\VC\Tools\MSVC\14.28.29333\include\vector

; 1504 :         return _My_data._Myfirst[_Pos];

  006c9	2b ce		 sub	 ecx, esi
; File D:\Metin2 Server Files\mainline\SRC_2014\Metin2Client\EterLib\GrpTextInstance.cpp

; 303  : 							for (int j = 1; j <= no_hyperlink; j++)

  006cb	46		 inc	 esi
; File C:\Program Files (x86)\Microsoft Visual Studio\2019\Community\VC\Tools\MSVC\14.28.29333\include\vector

; 1504 :         return _My_data._Myfirst[_Pos];

  006cc	8d 04 cd 00 00
	00 00		 lea	 eax, DWORD PTR [ecx*8]
  006d3	2b c1		 sub	 eax, ecx
; File D:\Metin2 Server Files\mainline\SRC_2014\Metin2Client\EterLib\GrpTextInstance.cpp

; 309  : 								tempLink.ex += charWidth;

  006d5	66 01 5c 87 02	 add	 WORD PTR [edi+eax*4+2], bx

; 310  : 								tempLink.sx += charWidth;

  006da	66 01 1c 87	 add	 WORD PTR [edi+eax*4], bx
  006de	8b bd 74 ff ff
	ff		 mov	 edi, DWORD PTR _this$1$[ebp]
  006e4	3b b5 5c ff ff
	ff		 cmp	 esi, DWORD PTR _no_hyperlink$1$[ebp]
  006ea	7e b9		 jle	 SHORT $LL18@Update
$LN510@Update:

; 311  : 							}
; 312  : 
; 313  : 							isEnglish = false;
; 314  : 						}
; 315  : 					}

  006ec	8b 5d 84	 mov	 ebx, DWORD PTR _dwColor$1$[ebp]
  006ef	32 c9		 xor	 cl, cl
  006f1	8b bd 74 ff ff
	ff		 mov	 edi, DWORD PTR _this$1$[ebp]
  006f7	89 8d 7c ff ff
	ff		 mov	 DWORD PTR tv3176[ebp], ecx
  006fd	e9 f4 00 00 00	 jmp	 $LN587@Update
$LN40@Update:

; 316  : 					else //[[[ ]]]
; 317  : 					{
; 318  : 						//     
; 319  : 						if (Arabic_IsInPresentation(wArabicChar) || Arabic_IsInSymbol(wArabicChar))

  00702	e8 00 00 00 00	 call	 ?Arabic_IsInPresentation@@YA_N_W@Z ; Arabic_IsInPresentation
  00707	83 c4 04	 add	 esp, 4
  0070a	84 c0		 test	 al, al
  0070c	75 29		 jne	 SHORT $LN66@Update
  0070e	56		 push	 esi
  0070f	e8 00 00 00 00	 call	 ?Arabic_IsInSymbol@@YA_N_W@Z ; Arabic_IsInSymbol
  00714	83 c4 04	 add	 esp, 4
  00717	84 c0		 test	 al, al
  00719	75 1c		 jne	 SHORT $LN66@Update

; 334  : 							}
; 335  : 						}
; 336  : 						else //,    ,
; 337  : 						{
; 338  : 							nEnglishBase = i;

  0071b	8b 95 68 ff ff
	ff		 mov	 edx, DWORD PTR _i$1$[ebp]

; 339  : 							isEnglish = true;

  00721	b9 01 00 00 00	 mov	 ecx, 1
  00726	89 95 6c ff ff
	ff		 mov	 DWORD PTR _nEnglishBase$1$[ebp], edx
  0072c	89 8d 7c ff ff
	ff		 mov	 DWORD PTR tv3176[ebp], ecx
  00732	e9 c5 00 00 00	 jmp	 $LN7@Update
$LN66@Update:

; 320  : 						{
; 321  : 							int charWidth = __DrawCharacter(pFontTexture, dataCodePage, Arabic_ConvSymbol(wArabicText[i]), dwColor);

  00737	8b 8d 60 ff ff
	ff		 mov	 ecx, DWORD PTR _wArabicText$1$[ebp]
  0073d	8b 85 68 ff ff
	ff		 mov	 eax, DWORD PTR _i$1$[ebp]
  00743	53		 push	 ebx
  00744	0f b7 04 41	 movzx	 eax, WORD PTR [ecx+eax*2]
  00748	50		 push	 eax
  00749	e8 00 00 00 00	 call	 ?Arabic_ConvSymbol@@YA_W_W@Z ; Arabic_ConvSymbol
  0074e	8b 8d 64 ff ff
	ff		 mov	 ecx, DWORD PTR _this$GSCopy$1$[ebp]
  00754	83 c4 04	 add	 esp, 4
  00757	0f b7 c0	 movzx	 eax, ax
  0075a	50		 push	 eax
  0075b	ff b5 58 ff ff
	ff		 push	 DWORD PTR _dataCodePage$1$[ebp]
  00761	ff b5 4c ff ff
	ff		 push	 DWORD PTR _pFontTexture$1$[ebp]
  00767	e8 00 00 00 00	 call	 ?__DrawCharacter@CGraphicTextInstance@@IAEHPAVCGraphicFontTexture@@G_WK@Z ; CGraphicTextInstance::__DrawCharacter

; 322  : 							kHyperlink.ex += charWidth;

  0076c	8b 8d 70 ff ff
	ff		 mov	 ecx, DWORD PTR tv3168[ebp]

; 326  : 							for (int j = 1; j <= no_hyperlink; j++)

  00772	be 01 00 00 00	 mov	 esi, 1
  00777	01 85 54 ff ff
	ff		 add	 DWORD PTR _x$1$[ebp], eax
  0077d	66 03 c8	 add	 cx, ax
  00780	89 8d 70 ff ff
	ff		 mov	 DWORD PTR tv3168[ebp], ecx
  00786	66 89 4d d6	 mov	 WORD PTR _kHyperlink$10[ebp+2], cx
  0078a	39 b5 5c ff ff
	ff		 cmp	 DWORD PTR _no_hyperlink$1$[ebp], esi
  00790	7c 5e		 jl	 SHORT $LN578@Update
; File C:\Program Files (x86)\Microsoft Visual Studio\2019\Community\VC\Tools\MSVC\14.28.29333\include\vector

; 1483 :         auto& _My_data = _Mypair._Myval2;

  00792	0f b7 c0	 movzx	 eax, ax
  00795	66 66 66 0f 1f
	84 00 00 00 00
	00		 npad	 11
$LL21@Update:

; 1484 :         return static_cast<size_type>(_My_data._Mylast - _My_data._Myfirst);

  007a0	0f b7 f8	 movzx	 edi, ax
  007a3	8b 85 64 ff ff
	ff		 mov	 eax, DWORD PTR _this$GSCopy$1$[ebp]
  007a9	8b 48 68	 mov	 ecx, DWORD PTR [eax+104]
  007ac	8b 58 64	 mov	 ebx, DWORD PTR [eax+100]
  007af	2b cb		 sub	 ecx, ebx
  007b1	b8 93 24 49 92	 mov	 eax, -1840700269	; 92492493H
  007b6	f7 e9		 imul	 ecx
  007b8	03 d1		 add	 edx, ecx
  007ba	c1 fa 04	 sar	 edx, 4
  007bd	8b ca		 mov	 ecx, edx
  007bf	c1 e9 1f	 shr	 ecx, 31			; 0000001fH
  007c2	03 ca		 add	 ecx, edx
; File D:\Metin2 Server Files\mainline\SRC_2014\Metin2Client\EterLib\GrpTextInstance.cpp

; 328  : 								if(m_hyperlinkVector.size() < j)

  007c4	3b ce		 cmp	 ecx, esi
  007c6	72 1f		 jb	 SHORT $LN572@Update
; File C:\Program Files (x86)\Microsoft Visual Studio\2019\Community\VC\Tools\MSVC\14.28.29333\include\vector

; 1504 :         return _My_data._Myfirst[_Pos];

  007c8	2b ce		 sub	 ecx, esi
; File D:\Metin2 Server Files\mainline\SRC_2014\Metin2Client\EterLib\GrpTextInstance.cpp

; 326  : 							for (int j = 1; j <= no_hyperlink; j++)

  007ca	46		 inc	 esi
; File C:\Program Files (x86)\Microsoft Visual Studio\2019\Community\VC\Tools\MSVC\14.28.29333\include\vector

; 1504 :         return _My_data._Myfirst[_Pos];

  007cb	8d 04 cd 00 00
	00 00		 lea	 eax, DWORD PTR [ecx*8]
  007d2	2b c1		 sub	 eax, ecx
; File D:\Metin2 Server Files\mainline\SRC_2014\Metin2Client\EterLib\GrpTextInstance.cpp

; 332  : 								tempLink.ex += charWidth;

  007d4	66 01 7c 83 02	 add	 WORD PTR [ebx+eax*4+2], di

; 333  : 								tempLink.sx += charWidth;

  007d9	66 01 3c 83	 add	 WORD PTR [ebx+eax*4], di
  007dd	8b c7		 mov	 eax, edi
  007df	3b b5 5c ff ff
	ff		 cmp	 esi, DWORD PTR _no_hyperlink$1$[ebp]
  007e5	7e b9		 jle	 SHORT $LL21@Update
$LN572@Update:

; 209  : 					{
; 210  : 
; 211  : 						// <<  (ex. , )>> ->   .
; 212  : 						//		<<(   : , , )>>
; 213  : 						//  (1)    or
; 214  : 						//	(2) 
; 215  : 						//		1)     &&
; 216  : 						//		2)     &&
; 217  : 						//		3)   '|'  &&
; 218  : 						//		or
; 219  : 						//	(3)   '|'
; 220  : 						// <<    : .>>
; 221  : 						//	1)  
; 222  : 						//	2)  
; 223  : 						//
; 224  : 						//
; 225  : 						if (Arabic_IsInSymbol(wArabicChar) && (

  007e7	8b 5d 84	 mov	 ebx, DWORD PTR _dwColor$1$[ebp]
  007ea	8b bd 74 ff ff
	ff		 mov	 edi, DWORD PTR _this$1$[ebp]
$LN578@Update:

; 199  : 				{
; 200  : 					isEnglish = false;
; 201  : 				}
; 202  : 				
; 203  : 				int i = 0;
; 204  : 				for (i = wArabicTextLen - 1 ; i >= 0; --i)

  007f0	8b 8d 7c ff ff
	ff		 mov	 ecx, DWORD PTR tv3176[ebp]
$LN587@Update:
  007f6	8b 95 6c ff ff
	ff		 mov	 edx, DWORD PTR _nEnglishBase$1$[ebp]
$LN7@Update:
  007fc	8b b5 68 ff ff
	ff		 mov	 esi, DWORD PTR _i$1$[ebp]
  00802	83 ee 01	 sub	 esi, 1
  00805	89 b5 68 ff ff
	ff		 mov	 DWORD PTR _i$1$[ebp], esi
  0080b	0f 89 5f fa ff
	ff		 jns	 $LL9@Update
  00811	8b b5 78 ff ff
	ff		 mov	 esi, DWORD PTR __Old_capacity$1$[ebp]
$LN8@Update:

; 340  : 						}
; 341  : 					}
; 342  : 				}
; 343  : 
; 344  : 				if (isEnglish)

  00817	84 c9		 test	 cl, cl
  00819	0f 84 34 03 00
	00		 je	 $LN566@Update

; 345  : 				{
; 346  : 					for (int e = i + 1; e <= nEnglishBase;) {

  0081f	8b 8d 68 ff ff
	ff		 mov	 ecx, DWORD PTR _i$1$[ebp]
  00825	41		 inc	 ecx
  00826	89 8d 54 ff ff
	ff		 mov	 DWORD PTR _e$1$[ebp], ecx
  0082c	3b ca		 cmp	 ecx, edx
  0082e	0f 8f 1f 03 00
	00		 jg	 $LN566@Update
$LL22@Update:

; 347  : 						int ret = GetTextTag(&wArabicText[e], wArabicTextLen - e, len, hyperlinkBuffer);

  00834	8b 85 60 ff ff
	ff		 mov	 eax, DWORD PTR _wArabicText$1$[ebp]
  0083a	8d 34 48	 lea	 esi, DWORD PTR [eax+ecx*2]
  0083d	8d 45 bc	 lea	 eax, DWORD PTR _hyperlinkBuffer$9[ebp]
  00840	50		 push	 eax
  00841	8d 85 44 ff ff
	ff		 lea	 eax, DWORD PTR _len$3[ebp]
  00847	50		 push	 eax
  00848	8b 85 48 ff ff
	ff		 mov	 eax, DWORD PTR _wArabicTextLen$1$[ebp]
  0084e	2b c1		 sub	 eax, ecx
  00850	50		 push	 eax
  00851	56		 push	 esi
  00852	e8 00 00 00 00	 call	 ?GetTextTag@@YAHPB_WHAAHAAV?$basic_string@_WU?$char_traits@_W@std@@V?$allocator@_W@2@@std@@@Z ; GetTextTag
  00857	83 c4 10	 add	 esp, 16			; 00000010H

; 348  : 
; 349  : 						if (ret == TEXT_TAG_PLAIN || ret == TEXT_TAG_TAG)

  0085a	85 c0		 test	 eax, eax
  0085c	0f 84 29 02 00
	00		 je	 $LN71@Update
  00862	83 f8 01	 cmp	 eax, 1
  00865	0f 84 20 02 00
	00		 je	 $LN71@Update

; 367  : 								}
; 368  : 							}
; 369  : 						}
; 370  : 						else
; 371  : 						{
; 372  : 							if (ret == TEXT_TAG_COLOR)

  0086b	83 f8 02	 cmp	 eax, 2
  0086e	75 6d		 jne	 SHORT $LN75@Update
; File C:\Program Files (x86)\Microsoft Visual Studio\2019\Community\VC\Tools\MSVC\14.28.29333\include\xstring

; 2219 :         if (_Large_string_engaged()) {

  00870	83 7d d0 08	 cmp	 DWORD PTR _hyperlinkBuffer$9[ebp+20], 8
  00874	8d 7d bc	 lea	 edi, DWORD PTR _hyperlinkBuffer$9[ebp]
; File D:\Metin2 Server Files\mainline\SRC_2014\Metin2Client\EterBase\Utils.h

; 149  :     int x = 0, y = 1;

  00877	8d 70 ff	 lea	 esi, DWORD PTR [eax-1]
; File C:\Program Files (x86)\Microsoft Visual Studio\2019\Community\VC\Tools\MSVC\14.28.29333\include\xstring

; 2219 :         if (_Large_string_engaged()) {

  0087a	0f 43 7d bc	 cmovae	 edi, DWORD PTR _hyperlinkBuffer$9[ebp]
; File D:\Metin2 Server Files\mainline\SRC_2014\Metin2Client\EterBase\Utils.h

; 149  :     int x = 0, y = 1;

  0087e	33 db		 xor	 ebx, ebx
  00880	89 5d 84	 mov	 DWORD PTR _dwColor$1$[ebp], ebx

; 152  :     while (t <= --s)

  00883	8d 57 0e	 lea	 edx, DWORD PTR [edi+14]
  00886	3b fa		 cmp	 edi, edx
  00888	0f 87 9b 02 00
	00		 ja	 $LN261@Update
  0088e	66 90		 npad	 2
$LL262@Update:

; 153  :     {
; 154  : 		if (L'0' <= *s && *s <= L'9')

  00890	0f b7 0a	 movzx	 ecx, WORD PTR [edx]
  00893	8d 41 d0	 lea	 eax, DWORD PTR [ecx-48]
  00896	66 83 f8 09	 cmp	 ax, 9
  0089a	77 05		 ja	 SHORT $LN264@Update

; 155  :             x += y * (*s - L'0');

  0089c	8d 41 d0	 lea	 eax, DWORD PTR [ecx-48]
  0089f	eb 1a		 jmp	 SHORT $LN269@Update
$LN264@Update:

; 156  :         else if (L'a' <= *s && *s <= L'f')

  008a1	8d 41 9f	 lea	 eax, DWORD PTR [ecx-97]
  008a4	66 83 f8 05	 cmp	 ax, 5
  008a8	77 05		 ja	 SHORT $LN266@Update

; 157  :             x += y * (*s - L'a' + 10);

  008aa	8d 41 a9	 lea	 eax, DWORD PTR [ecx-87]
  008ad	eb 0c		 jmp	 SHORT $LN269@Update
$LN266@Update:

; 158  :         else if (L'A' <= *s && *s <= L'F')

  008af	8d 41 bf	 lea	 eax, DWORD PTR [ecx-65]
  008b2	66 83 f8 05	 cmp	 ax, 5
  008b6	77 1a		 ja	 SHORT $LN268@Update

; 159  :             x += y * (10 + *s - L'A');

  008b8	8d 41 c9	 lea	 eax, DWORD PTR [ecx-55]
$LN269@Update:

; 162  :         y <<= 4;

  008bb	0f af c6	 imul	 eax, esi
  008be	83 ea 02	 sub	 edx, 2
  008c1	c1 e6 04	 shl	 esi, 4
  008c4	03 d8		 add	 ebx, eax
  008c6	3b fa		 cmp	 edi, edx
  008c8	76 c6		 jbe	 SHORT $LL262@Update
; File D:\Metin2 Server Files\mainline\SRC_2014\Metin2Client\EterLib\GrpTextInstance.cpp

; 373  : 								dwColor = htoi(hyperlinkBuffer.c_str(), 8);

  008ca	89 5d 84	 mov	 DWORD PTR _dwColor$1$[ebp], ebx
  008cd	e9 57 02 00 00	 jmp	 $LN261@Update
$LN268@Update:
; File D:\Metin2 Server Files\mainline\SRC_2014\Metin2Client\EterBase\Utils.h

; 161  :             return -1; /* invalid input! */

  008d2	83 cb ff	 or	 ebx, -1
; File D:\Metin2 Server Files\mainline\SRC_2014\Metin2Client\EterLib\GrpTextInstance.cpp

; 373  : 								dwColor = htoi(hyperlinkBuffer.c_str(), 8);

  008d5	89 5d 84	 mov	 DWORD PTR _dwColor$1$[ebp], ebx
  008d8	e9 4c 02 00 00	 jmp	 $LN261@Update
$LN75@Update:

; 374  : 							else if (ret == TEXT_TAG_RESTORE_COLOR)

  008dd	83 f8 05	 cmp	 eax, 5
  008e0	75 11		 jne	 SHORT $LN77@Update

; 375  : 								dwColor = m_dwTextColor;

  008e2	8b 85 64 ff ff
	ff		 mov	 eax, DWORD PTR _this$GSCopy$1$[ebp]
  008e8	8b 58 04	 mov	 ebx, DWORD PTR [eax+4]
  008eb	89 5d 84	 mov	 DWORD PTR _dwColor$1$[ebp], ebx
  008ee	e9 3c 02 00 00	 jmp	 $LN565@Update
$LN77@Update:

; 376  : 							else if (ret == TEXT_TAG_HYPERLINK_START)

  008f3	83 f8 03	 cmp	 eax, 3
  008f6	75 1b		 jne	 SHORT $LN79@Update
; File C:\Program Files (x86)\Microsoft Visual Studio\2019\Community\VC\Tools\MSVC\14.28.29333\include\xstring

; 3062 :         return assign(_Ptr, _Convert_size<size_type>(_Traits::length(_Ptr)));

  008f8	6a 00		 push	 0
  008fa	68 00 00 00 00	 push	 OFFSET ??_C@_11LOCGONAA@@
  008ff	8d 4d bc	 lea	 ecx, DWORD PTR _hyperlinkBuffer$9[ebp]
; File D:\Metin2 Server Files\mainline\SRC_2014\Metin2Client\EterLib\GrpTextInstance.cpp

; 378  : 								hyperlinkStep = 1;

  00902	c7 45 80 01 00
	00 00		 mov	 DWORD PTR _hyperlinkStep$1$[ebp], 1
; File C:\Program Files (x86)\Microsoft Visual Studio\2019\Community\VC\Tools\MSVC\14.28.29333\include\xstring

; 3062 :         return assign(_Ptr, _Convert_size<size_type>(_Traits::length(_Ptr)));

  00909	e8 00 00 00 00	 call	 ?assign@?$basic_string@_WU?$char_traits@_W@std@@V?$allocator@_W@2@@std@@QAEAAV12@QB_WI@Z ; std::basic_string<wchar_t,std::char_traits<wchar_t>,std::allocator<wchar_t> >::assign
; File D:\Metin2 Server Files\mainline\SRC_2014\Metin2Client\EterLib\GrpTextInstance.cpp

; 380  : 							}

  0090e	e9 1c 02 00 00	 jmp	 $LN565@Update
$LN79@Update:

; 381  : 							else if (ret == TEXT_TAG_HYPERLINK_END)

  00913	83 f8 04	 cmp	 eax, 4
  00916	0f 85 13 02 00
	00		 jne	 $LN565@Update

; 382  : 							{
; 383  : 								if (hyperlinkStep == 1)

  0091c	83 7d 80 01	 cmp	 DWORD PTR _hyperlinkStep$1$[ebp], 1
  00920	75 17		 jne	 SHORT $LN82@Update

; 384  : 								{
; 385  : 									++hyperlinkStep;
; 386  : 									kHyperlink.ex = kHyperlink.sx = 0; //    

  00922	33 c0		 xor	 eax, eax
  00924	c7 45 80 02 00
	00 00		 mov	 DWORD PTR _hyperlinkStep$1$[ebp], 2
  0092b	89 45 d4	 mov	 DWORD PTR _kHyperlink$10[ebp], eax
  0092e	89 85 70 ff ff
	ff		 mov	 DWORD PTR tv3168[ebp], eax

; 387  : 								}

  00934	e9 f6 01 00 00	 jmp	 $LN565@Update
$LN82@Update:
; File C:\Program Files (x86)\Microsoft Visual Studio\2019\Community\VC\Tools\MSVC\14.28.29333\include\xstring

; 2219 :         if (_Large_string_engaged()) {

  00939	83 7d d0 08	 cmp	 DWORD PTR _hyperlinkBuffer$9[ebp+20], 8
  0093d	8d 45 bc	 lea	 eax, DWORD PTR _hyperlinkBuffer$9[ebp]

; 2828 :         assign(_Right._Mypair._Myval2._Myptr(), _Right._Mypair._Myval2._Mysize);

  00940	8b 5d cc	 mov	 ebx, DWORD PTR _hyperlinkBuffer$9[ebp+16]

; 2219 :         if (_Large_string_engaged()) {

  00943	0f 43 45 bc	 cmovae	 eax, DWORD PTR _hyperlinkBuffer$9[ebp]

; 2828 :         assign(_Right._Mypair._Myval2._Myptr(), _Right._Mypair._Myval2._Mysize);

  00947	8b 95 78 ff ff
	ff		 mov	 edx, DWORD PTR __Old_capacity$1$[ebp]

; 2219 :         if (_Large_string_engaged()) {

  0094d	89 85 7c ff ff
	ff		 mov	 DWORD PTR __Result$2$[ebp], eax

; 2828 :         assign(_Right._Mypair._Myval2._Myptr(), _Right._Mypair._Myval2._Mysize);

  00953	3b da		 cmp	 ebx, edx

; 3044 :         if (_Count <= _Mypair._Myval2._Myres) {

  00955	77 26		 ja	 SHORT $LN288@Update

; 2210 :         if (_Large_string_engaged()) {

  00957	83 fa 08	 cmp	 edx, 8

; 3046 :             _Mypair._Myval2._Mysize = _Count;

  0095a	89 5d e8	 mov	 DWORD PTR _kHyperlink$10[ebp+20], ebx

; 119  :         _CSTD memmove(_First1, _First2, _Count * sizeof(_Elem));

  0095d	8d 34 1b	 lea	 esi, DWORD PTR [ebx+ebx]
  00960	56		 push	 esi

; 2209 :         value_type* _Result = _Bx._Buf;

  00961	8d 7d d8	 lea	 edi, DWORD PTR _kHyperlink$10[ebp+4]

; 2210 :         if (_Large_string_engaged()) {

  00964	0f 43 7d d8	 cmovae	 edi, DWORD PTR _kHyperlink$10[ebp+4]

; 119  :         _CSTD memmove(_First1, _First2, _Count * sizeof(_Elem));

  00968	50		 push	 eax
  00969	57		 push	 edi
  0096a	e8 00 00 00 00	 call	 _memmove
  0096f	83 c4 0c	 add	 esp, 12			; 0000000cH

; 3048 :             _Traits::assign(_Old_ptr[_Count], _Elem());

  00972	33 c0		 xor	 eax, eax
  00974	66 89 04 37	 mov	 WORD PTR [edi+esi], ax

; 3049 :             return *this;

  00978	e9 ae 00 00 00	 jmp	 $LN300@Update
$LN288@Update:

; 4305 :         if (_New_size > max_size()) {

  0097d	81 fb fe ff ff
	7f		 cmp	 ebx, 2147483646		; 7ffffffeH
  00983	0f 87 fc 05 00
	00		 ja	 $LN513@Update

; 4306 :             _Xlen_string(); // result too long
; 4307 :         }
; 4308 : 
; 4309 :         const size_type _Old_capacity = _Mypair._Myval2._Myres;

  00989	8b f3		 mov	 esi, ebx
  0098b	83 ce 07	 or	 esi, 7

; 4285 :         const size_type _Masked = _Requested | _ALLOC_MASK;

  0098e	81 fe fe ff ff
	7f		 cmp	 esi, 2147483646		; 7ffffffeH

; 4286 :         if (_Masked > _Max) { // the mask overflows, settle for max_size()

  00994	76 0a		 jbe	 SHORT $LN305@Update

; 4287 :             return _Max;

  00996	be fe ff ff 7f	 mov	 esi, 2147483646		; 7ffffffeH
  0099b	8d 46 01	 lea	 eax, DWORD PTR [esi+1]
  0099e	eb 2f		 jmp	 SHORT $LN559@Update
$LN305@Update:

; 4288 :         }
; 4289 : 
; 4290 :         if (_Old > _Max - _Old / 2) { // similarly, geometric overflows

  009a0	8b ca		 mov	 ecx, edx
  009a2	b8 fe ff ff 7f	 mov	 eax, 2147483646		; 7ffffffeH
  009a7	d1 e9		 shr	 ecx, 1
  009a9	2b c1		 sub	 eax, ecx
  009ab	3b d0		 cmp	 edx, eax
  009ad	76 0a		 jbe	 SHORT $LN306@Update

; 4291 :             return _Max;

  009af	be fe ff ff 7f	 mov	 esi, 2147483646		; 7ffffffeH
  009b4	8d 46 01	 lea	 eax, DWORD PTR [esi+1]
  009b7	eb 16		 jmp	 SHORT $LN559@Update
$LN306@Update:

; 4292 :         }
; 4293 : 
; 4294 :         return (_STD max)(_Masked, _Old + _Old / 2);

  009b9	8d 04 0a	 lea	 eax, DWORD PTR [edx+ecx]
  009bc	3b f0		 cmp	 esi, eax
  009be	0f 42 f0	 cmovb	 esi, eax

; 4312 :         const pointer _New_ptr        = _Al.allocate(_New_capacity + 1); // throws

  009c1	8d 46 01	 lea	 eax, DWORD PTR [esi+1]
; File C:\Program Files (x86)\Microsoft Visual Studio\2019\Community\VC\Tools\MSVC\14.28.29333\include\xmemory

; 60   :         if (_Count > _Max_possible) {

  009c4	3d ff ff ff 7f	 cmp	 eax, 2147483647		; 7fffffffH
  009c9	0f 87 bb 05 00
	00		 ja	 $LN514@Update
$LN559@Update:

; 61   :             _Throw_bad_array_new_length(); // multiply overflow
; 62   :         }
; 63   :     }
; 64   : 
; 65   :     return _Count * _Ty_size;

  009cf	03 c0		 add	 eax, eax

; 814  :         return static_cast<_Ty*>(_Allocate<_New_alignof<_Ty>>(_Get_size_of_n<sizeof(_Ty)>(_Count)));

  009d1	50		 push	 eax
  009d2	e8 00 00 00 00	 call	 ??$_Allocate@$07U_Default_allocate_traits@std@@$0A@@std@@YAPAXI@Z ; std::_Allocate<8,std::_Default_allocate_traits,0>
; File C:\Program Files (x86)\Microsoft Visual Studio\2019\Community\VC\Tools\MSVC\14.28.29333\include\xstring

; 4315 :         _Mypair._Myval2._Myres  = _New_capacity;

  009d7	89 75 ec	 mov	 DWORD PTR _kHyperlink$10[ebp+24], esi
  009da	8b f8		 mov	 edi, eax

; 62   :         _CSTD memcpy(_First1, _First2, _Count * sizeof(_Elem));

  009dc	8d 34 1b	 lea	 esi, DWORD PTR [ebx+ebx]

; 4312 :         const pointer _New_ptr        = _Al.allocate(_New_capacity + 1); // throws

  009df	89 7d 80	 mov	 DWORD PTR __New_ptr$6[ebp], edi

; 62   :         _CSTD memcpy(_First1, _First2, _Count * sizeof(_Elem));

  009e2	56		 push	 esi
  009e3	ff b5 7c ff ff
	ff		 push	 DWORD PTR __Result$2$[ebp]

; 4314 :         _Mypair._Myval2._Mysize = _New_size;

  009e9	89 5d e8	 mov	 DWORD PTR _kHyperlink$10[ebp+20], ebx

; 62   :         _CSTD memcpy(_First1, _First2, _Count * sizeof(_Elem));

  009ec	57		 push	 edi
  009ed	e8 00 00 00 00	 call	 _memcpy

; 3056 :                 _Traits::assign(_New_ptr[_Count], _Elem());

  009f2	33 c0		 xor	 eax, eax

; 62   :         _CSTD memcpy(_First1, _First2, _Count * sizeof(_Elem));

  009f4	83 c4 10	 add	 esp, 16			; 00000010H

; 3056 :                 _Traits::assign(_New_ptr[_Count], _Elem());

  009f7	66 89 04 37	 mov	 WORD PTR [edi+esi], ax

; 4317 :         if (_BUF_SIZE <= _Old_capacity) {

  009fb	8b 85 78 ff ff
	ff		 mov	 eax, DWORD PTR __Old_capacity$1$[ebp]
  00a01	83 f8 08	 cmp	 eax, 8
  00a04	72 15		 jb	 SHORT $LN299@Update
; File C:\Program Files (x86)\Microsoft Visual Studio\2019\Community\VC\Tools\MSVC\14.28.29333\include\xmemory

; 810  :         _Deallocate<_New_alignof<_Ty>>(_Ptr, sizeof(_Ty) * _Count);

  00a06	8d 04 45 02 00
	00 00		 lea	 eax, DWORD PTR [eax*2+2]
  00a0d	50		 push	 eax
  00a0e	ff 75 d8	 push	 DWORD PTR _kHyperlink$10[ebp+4]
  00a11	e8 00 00 00 00	 call	 ??$_Deallocate@$07$0A@@std@@YAXPAXI@Z ; std::_Deallocate<8,0>
; File C:\Program Files (x86)\Microsoft Visual Studio\2019\Community\VC\Tools\MSVC\14.28.29333\include\xstring

; 4319 :             _Mypair._Myval2._Bx._Ptr = _New_ptr;

  00a16	89 7d d8	 mov	 DWORD PTR _kHyperlink$10[ebp+4], edi

; 4320 :         } else {

  00a19	eb 0d		 jmp	 SHORT $LN589@Update
$LN299@Update:

; 4321 :             _Construct_in_place(_Mypair._Myval2._Bx._Ptr, _New_ptr);

  00a1b	8d 45 80	 lea	 eax, DWORD PTR __New_ptr$6[ebp]
  00a1e	50		 push	 eax
  00a1f	8d 45 d8	 lea	 eax, DWORD PTR _kHyperlink$10[ebp+4]
  00a22	50		 push	 eax
  00a23	e8 00 00 00 00	 call	 ??$_Construct_in_place@PA_WABQA_W@std@@YAXAAPA_WABQA_W@Z ; std::_Construct_in_place<wchar_t *,wchar_t * const &>
$LN589@Update:
; File C:\Program Files (x86)\Microsoft Visual Studio\2019\Community\VC\Tools\MSVC\14.28.29333\include\vector

; 704  :         if (_Mylast != _My_data._Myend) {

  00a28	83 c4 08	 add	 esp, 8
$LN300@Update:
  00a2b	8b bd 74 ff ff
	ff		 mov	 edi, DWORD PTR _this$1$[ebp]
  00a31	8d 4d d4	 lea	 ecx, DWORD PTR _kHyperlink$10[ebp]
  00a34	51		 push	 ecx
  00a35	8b 47 04	 mov	 eax, DWORD PTR [edi+4]
  00a38	50		 push	 eax
  00a39	3b 47 08	 cmp	 eax, DWORD PTR [edi+8]
  00a3c	74 0f		 je	 SHORT $LN329@Update

; 687  :         _Alty_traits::construct(_Getal(), _Unfancy(_Mylast), _STD forward<_Valty>(_Val)...);

  00a3e	57		 push	 edi
  00a3f	e8 00 00 00 00	 call	 ??$construct@USHyperlink@CGraphicTextInstance@@ABU12@@?$_Default_allocator_traits@V?$allocator@USHyperlink@CGraphicTextInstance@@@std@@@std@@SAXAAV?$allocator@USHyperlink@CGraphicTextInstance@@@1@QAUSHyperlink@CGraphicTextInstance@@ABU34@@Z ; std::_Default_allocator_traits<std::allocator<CGraphicTextInstance::SHyperlink> >::construct<CGraphicTextInstance::SHyperlink,CGraphicTextInstance::SHyperlink const &>
  00a44	83 c4 0c	 add	 esp, 12			; 0000000cH

; 688  :         _Orphan_range(_Mylast, _Mylast);
; 689  :         _Ty& _Result = *_Mylast;
; 690  :         ++_Mylast;

  00a47	83 47 04 1c	 add	 DWORD PTR [edi+4], 28	; 0000001cH

; 705  :             return _Emplace_back_with_unused_capacity(_STD forward<_Valty>(_Val)...);

  00a4b	eb 07		 jmp	 SHORT $LN328@Update
$LN329@Update:

; 706  :         }
; 707  : 
; 708  :         _Ty& _Result = *_Emplace_reallocate(_Mylast, _STD forward<_Valty>(_Val)...);

  00a4d	8b cf		 mov	 ecx, edi
  00a4f	e8 00 00 00 00	 call	 ??$_Emplace_reallocate@ABUSHyperlink@CGraphicTextInstance@@@?$vector@USHyperlink@CGraphicTextInstance@@V?$allocator@USHyperlink@CGraphicTextInstance@@@std@@@std@@QAEPAUSHyperlink@CGraphicTextInstance@@QAU23@ABU23@@Z ; std::vector<CGraphicTextInstance::SHyperlink,std::allocator<CGraphicTextInstance::SHyperlink> >::_Emplace_reallocate<CGraphicTextInstance::SHyperlink const &>
$LN328@Update:
; File D:\Metin2 Server Files\mainline\SRC_2014\Metin2Client\EterLib\GrpTextInstance.cpp

; 392  : 									no_hyperlink++;

  00a54	ff 85 5c ff ff
	ff		 inc	 DWORD PTR _no_hyperlink$1$[ebp]
; File C:\Program Files (x86)\Microsoft Visual Studio\2019\Community\VC\Tools\MSVC\14.28.29333\include\xstring

; 3062 :         return assign(_Ptr, _Convert_size<size_type>(_Traits::length(_Ptr)));

  00a5a	8d 4d bc	 lea	 ecx, DWORD PTR _hyperlinkBuffer$9[ebp]
  00a5d	6a 00		 push	 0
  00a5f	68 00 00 00 00	 push	 OFFSET ??_C@_11LOCGONAA@@
; File D:\Metin2 Server Files\mainline\SRC_2014\Metin2Client\EterLib\GrpTextInstance.cpp

; 394  : 									hyperlinkStep = 0;

  00a64	c7 45 80 00 00
	00 00		 mov	 DWORD PTR _hyperlinkStep$1$[ebp], 0
; File C:\Program Files (x86)\Microsoft Visual Studio\2019\Community\VC\Tools\MSVC\14.28.29333\include\xstring

; 3062 :         return assign(_Ptr, _Convert_size<size_type>(_Traits::length(_Ptr)));

  00a6b	e8 00 00 00 00	 call	 ?assign@?$basic_string@_WU?$char_traits@_W@std@@V?$allocator@_W@2@@std@@QAEAAV12@QB_WI@Z ; std::basic_string<wchar_t,std::char_traits<wchar_t>,std::allocator<wchar_t> >::assign
  00a70	0f b7 4d d6	 movzx	 ecx, WORD PTR _kHyperlink$10[ebp+2]
  00a74	8b 45 ec	 mov	 eax, DWORD PTR _kHyperlink$10[ebp+24]
  00a77	8b 5d 84	 mov	 ebx, DWORD PTR _dwColor$1$[ebp]
  00a7a	89 85 78 ff ff
	ff		 mov	 DWORD PTR __Old_capacity$1$[ebp], eax
  00a80	89 8d 70 ff ff
	ff		 mov	 DWORD PTR tv3168[ebp], ecx
  00a86	e9 a4 00 00 00	 jmp	 $LN565@Update
$LN71@Update:
; File D:\Metin2 Server Files\mainline\SRC_2014\Metin2Client\EterLib\GrpTextInstance.cpp

; 351  : 							if (hyperlinkStep == 1)

  00a8b	83 7d 80 01	 cmp	 DWORD PTR _hyperlinkStep$1$[ebp], 1
  00a8f	0f b7 06	 movzx	 eax, WORD PTR [esi]
  00a92	75 10		 jne	 SHORT $LN72@Update

; 352  : 								hyperlinkBuffer.append(1, wArabicText[e]);

  00a94	50		 push	 eax
  00a95	6a 01		 push	 1
  00a97	8d 4d bc	 lea	 ecx, DWORD PTR _hyperlinkBuffer$9[ebp]
  00a9a	e8 00 00 00 00	 call	 ?append@?$basic_string@_WU?$char_traits@_W@std@@V?$allocator@_W@2@@std@@QAEAAV12@I_W@Z ; std::basic_string<wchar_t,std::char_traits<wchar_t>,std::allocator<wchar_t> >::append
  00a9f	e9 8b 00 00 00	 jmp	 $LN565@Update
$LN72@Update:

; 353  : 							else
; 354  : 							{
; 355  : 								int charWidth = __DrawCharacter(pFontTexture, dataCodePage, wArabicText[e], dwColor);

  00aa4	8b 8d 64 ff ff
	ff		 mov	 ecx, DWORD PTR _this$GSCopy$1$[ebp]
  00aaa	53		 push	 ebx
  00aab	50		 push	 eax
  00aac	ff b5 58 ff ff
	ff		 push	 DWORD PTR _dataCodePage$1$[ebp]
  00ab2	ff b5 4c ff ff
	ff		 push	 DWORD PTR _pFontTexture$1$[ebp]
  00ab8	e8 00 00 00 00	 call	 ?__DrawCharacter@CGraphicTextInstance@@IAEHPAVCGraphicFontTexture@@G_WK@Z ; CGraphicTextInstance::__DrawCharacter

; 356  : 								kHyperlink.ex += charWidth;

  00abd	8b 95 70 ff ff
	ff		 mov	 edx, DWORD PTR tv3168[ebp]

; 359  : 								for (int j = 1; j <= no_hyperlink; j++)

  00ac3	be 01 00 00 00	 mov	 esi, 1
  00ac8	66 03 d0	 add	 dx, ax
  00acb	89 95 70 ff ff
	ff		 mov	 DWORD PTR tv3168[ebp], edx
  00ad1	66 89 55 d6	 mov	 WORD PTR _kHyperlink$10[ebp+2], dx
  00ad5	39 b5 5c ff ff
	ff		 cmp	 DWORD PTR _no_hyperlink$1$[ebp], esi
  00adb	7c 52		 jl	 SHORT $LN565@Update
; File C:\Program Files (x86)\Microsoft Visual Studio\2019\Community\VC\Tools\MSVC\14.28.29333\include\vector

; 1483 :         auto& _My_data = _Mypair._Myval2;

  00add	0f b7 c0	 movzx	 eax, ax
$LL27@Update:

; 1484 :         return static_cast<size_type>(_My_data._Mylast - _My_data._Myfirst);

  00ae0	0f b7 f8	 movzx	 edi, ax
  00ae3	8b 85 74 ff ff
	ff		 mov	 eax, DWORD PTR _this$1$[ebp]
  00ae9	8b 48 04	 mov	 ecx, DWORD PTR [eax+4]
  00aec	8b 18		 mov	 ebx, DWORD PTR [eax]
  00aee	2b cb		 sub	 ecx, ebx
  00af0	b8 93 24 49 92	 mov	 eax, -1840700269	; 92492493H
  00af5	f7 e9		 imul	 ecx
  00af7	03 d1		 add	 edx, ecx
  00af9	c1 fa 04	 sar	 edx, 4
  00afc	8b ca		 mov	 ecx, edx
  00afe	c1 e9 1f	 shr	 ecx, 31			; 0000001fH
  00b01	03 ca		 add	 ecx, edx
; File D:\Metin2 Server Files\mainline\SRC_2014\Metin2Client\EterLib\GrpTextInstance.cpp

; 361  : 									if(m_hyperlinkVector.size() < j)

  00b03	3b ce		 cmp	 ecx, esi
  00b05	72 1f		 jb	 SHORT $LN573@Update
; File C:\Program Files (x86)\Microsoft Visual Studio\2019\Community\VC\Tools\MSVC\14.28.29333\include\vector

; 1504 :         return _My_data._Myfirst[_Pos];

  00b07	2b ce		 sub	 ecx, esi
; File D:\Metin2 Server Files\mainline\SRC_2014\Metin2Client\EterLib\GrpTextInstance.cpp

; 359  : 								for (int j = 1; j <= no_hyperlink; j++)

  00b09	46		 inc	 esi
; File C:\Program Files (x86)\Microsoft Visual Studio\2019\Community\VC\Tools\MSVC\14.28.29333\include\vector

; 1504 :         return _My_data._Myfirst[_Pos];

  00b0a	8d 04 cd 00 00
	00 00		 lea	 eax, DWORD PTR [ecx*8]
  00b11	2b c1		 sub	 eax, ecx
; File D:\Metin2 Server Files\mainline\SRC_2014\Metin2Client\EterLib\GrpTextInstance.cpp

; 365  : 									tempLink.ex += charWidth;

  00b13	66 01 7c 83 02	 add	 WORD PTR [ebx+eax*4+2], di

; 366  : 									tempLink.sx += charWidth;

  00b18	66 01 3c 83	 add	 WORD PTR [ebx+eax*4], di
  00b1c	8b c7		 mov	 eax, edi
  00b1e	3b b5 5c ff ff
	ff		 cmp	 esi, DWORD PTR _no_hyperlink$1$[ebp]
  00b24	7e ba		 jle	 SHORT $LL27@Update
$LN573@Update:
  00b26	8b 5d 84	 mov	 ebx, DWORD PTR _dwColor$1$[ebp]
$LN261@Update:

; 395  : 									hyperlinkBuffer = L"";						
; 396  : 								}
; 397  : 							}
; 398  : 						}
; 399  : 						e += len;

  00b29	8b bd 74 ff ff
	ff		 mov	 edi, DWORD PTR _this$1$[ebp]
$LN565@Update:
  00b2f	8b 8d 54 ff ff
	ff		 mov	 ecx, DWORD PTR _e$1$[ebp]
  00b35	03 8d 44 ff ff
	ff		 add	 ecx, DWORD PTR _len$3[ebp]
  00b3b	89 8d 54 ff ff
	ff		 mov	 DWORD PTR _e$1$[ebp], ecx
  00b41	3b 8d 6c ff ff
	ff		 cmp	 ecx, DWORD PTR _nEnglishBase$1$[ebp]
  00b47	0f 8e e7 fc ff
	ff		 jle	 $LL22@Update
  00b4d	8b b5 78 ff ff
	ff		 mov	 esi, DWORD PTR __Old_capacity$1$[ebp]
$LN566@Update:
; File C:\Program Files (x86)\Microsoft Visual Studio\2019\Community\VC\Tools\MSVC\14.28.29333\include\xstring

; 4385 :         if (_Mypair._Myval2._Large_string_engaged()) {

  00b53	8b 45 d0	 mov	 eax, DWORD PTR _hyperlinkBuffer$9[ebp+20]
  00b56	83 f8 08	 cmp	 eax, 8
  00b59	72 13		 jb	 SHORT $LN343@Update
; File C:\Program Files (x86)\Microsoft Visual Studio\2019\Community\VC\Tools\MSVC\14.28.29333\include\xmemory

; 810  :         _Deallocate<_New_alignof<_Ty>>(_Ptr, sizeof(_Ty) * _Count);

  00b5b	8d 04 45 02 00
	00 00		 lea	 eax, DWORD PTR [eax*2+2]
  00b62	50		 push	 eax
  00b63	ff 75 bc	 push	 DWORD PTR _hyperlinkBuffer$9[ebp]
  00b66	e8 00 00 00 00	 call	 ??$_Deallocate@$07$0A@@std@@YAXPAXI@Z ; std::_Deallocate<8,0>
  00b6b	83 c4 08	 add	 esp, 8
$LN343@Update:
; File C:\Program Files (x86)\Microsoft Visual Studio\2019\Community\VC\Tools\MSVC\14.28.29333\include\xstring

; 4395 :         _Traits::assign(_Mypair._Myval2._Bx._Buf[0], _Elem());

  00b6e	33 c0		 xor	 eax, eax
  00b70	c7 45 cc 00 00
	00 00		 mov	 DWORD PTR _hyperlinkBuffer$9[ebp+16], 0
  00b77	c7 45 d0 07 00
	00 00		 mov	 DWORD PTR _hyperlinkBuffer$9[ebp+20], 7
  00b7e	66 89 45 bc	 mov	 WORD PTR _hyperlinkBuffer$9[ebp], ax
; File D:\Metin2 Server Files\mainline\SRC_2014\Metin2Client\EterLib\GrpTextInstance.cpp

; 403  : 			}

  00b82	c7 45 fc ff ff
	ff ff		 mov	 DWORD PTR __$EHRec$[ebp+8], -1
; File C:\Program Files (x86)\Microsoft Visual Studio\2019\Community\VC\Tools\MSVC\14.28.29333\include\xstring

; 2227 :         return _BUF_SIZE <= _Myres;

  00b89	83 fe 08	 cmp	 esi, 8

; 4385 :         if (_Mypair._Myval2._Large_string_engaged()) {

  00b8c	0f 82 8e 03 00
	00		 jb	 $LN488@Update
; File C:\Program Files (x86)\Microsoft Visual Studio\2019\Community\VC\Tools\MSVC\14.28.29333\include\xmemory

; 810  :         _Deallocate<_New_alignof<_Ty>>(_Ptr, sizeof(_Ty) * _Count);

  00b92	8d 04 75 02 00
	00 00		 lea	 eax, DWORD PTR [esi*2+2]
  00b99	50		 push	 eax
  00b9a	ff 75 d8	 push	 DWORD PTR _kHyperlink$10[ebp+4]
  00b9d	e8 00 00 00 00	 call	 ??$_Deallocate@$07$0A@@std@@YAXPAXI@Z ; std::_Deallocate<8,0>
  00ba2	83 c4 08	 add	 esp, 8
; File D:\Metin2 Server Files\mainline\SRC_2014\Metin2Client\EterLib\GrpTextInstance.cpp

; 403  : 			}

  00ba5	e9 76 03 00 00	 jmp	 $LN488@Update
$LN37@Update:
; File D:\Metin2 Server Files\mainline\SRC_2014\Metin2Client\EterLib\GrpTextInstance.h

; 84   : 			SHyperlink() : sx(0), ex(0) { }

  00baa	33 c0		 xor	 eax, eax
; File D:\Metin2 Server Files\mainline\SRC_2014\Metin2Client\EterLib\GrpTextInstance.cpp

; 406  : 				int x = 0;

  00bac	c7 45 80 00 00
	00 00		 mov	 DWORD PTR _x$1$[ebp], 0
; File C:\Program Files (x86)\Microsoft Visual Studio\2019\Community\VC\Tools\MSVC\14.28.29333\include\xstring

; 4378 :         _Mypair._Myval2._Myres  = _BUF_SIZE - 1;

  00bb3	bf 07 00 00 00	 mov	 edi, 7
; File D:\Metin2 Server Files\mainline\SRC_2014\Metin2Client\EterLib\GrpTextInstance.cpp

; 408  : 				int hyperlinkStep = 0;

  00bb8	c7 85 78 ff ff
	ff 00 00 00 00	 mov	 DWORD PTR _hyperlinkStep$1$[ebp], 0
; File D:\Metin2 Server Files\mainline\SRC_2014\Metin2Client\EterLib\GrpTextInstance.h

; 84   : 			SHyperlink() : sx(0), ex(0) { }

  00bc2	89 45 88	 mov	 DWORD PTR _kHyperlink$7[ebp], eax
  00bc5	33 db		 xor	 ebx, ebx
; File C:\Program Files (x86)\Microsoft Visual Studio\2019\Community\VC\Tools\MSVC\14.28.29333\include\xstring

; 4377 :         _Mypair._Myval2._Mysize = 0;

  00bc7	89 45 9c	 mov	 DWORD PTR _kHyperlink$7[ebp+20], eax

; 4378 :         _Mypair._Myval2._Myres  = _BUF_SIZE - 1;

  00bca	89 bd 7c ff ff
	ff		 mov	 DWORD PTR __Old_capacity$1$[ebp], edi
  00bd0	89 7d a0	 mov	 DWORD PTR _kHyperlink$7[ebp+24], edi

; 4379 :         // the _Traits::assign is last so the codegen doesn't think the char write can alias this
; 4380 :         _Traits::assign(_Mypair._Myval2._Bx._Buf[0], _Elem());

  00bd3	66 89 45 8c	 mov	 WORD PTR _kHyperlink$7[ebp+4], ax
; File D:\Metin2 Server Files\mainline\SRC_2014\Metin2Client\EterLib\GrpTextInstance.cpp

; 409  : 				SHyperlink kHyperlink;

  00bd7	c7 45 fc 02 00
	00 00		 mov	 DWORD PTR __$EHRec$[ebp+8], 2
; File C:\Program Files (x86)\Microsoft Visual Studio\2019\Community\VC\Tools\MSVC\14.28.29333\include\xstring

; 4377 :         _Mypair._Myval2._Mysize = 0;

  00bde	89 5d b4	 mov	 DWORD PTR _hyperlinkBuffer$8[ebp+16], ebx

; 4378 :         _Mypair._Myval2._Myres  = _BUF_SIZE - 1;

  00be1	89 7d b8	 mov	 DWORD PTR _hyperlinkBuffer$8[ebp+20], edi

; 4379 :         // the _Traits::assign is last so the codegen doesn't think the char write can alias this
; 4380 :         _Traits::assign(_Mypair._Myval2._Bx._Buf[0], _Elem());

  00be4	66 89 45 a4	 mov	 WORD PTR _hyperlinkBuffer$8[ebp], ax
; File D:\Metin2 Server Files\mainline\SRC_2014\Metin2Client\EterLib\GrpTextInstance.cpp

; 412  : 				for (int i = 0; i < wTextLen; )

  00be8	33 c9		 xor	 ecx, ecx
  00bea	c6 45 fc 03	 mov	 BYTE PTR __$EHRec$[ebp+8], 3
  00bee	89 8d 48 ff ff
	ff		 mov	 DWORD PTR _i$1$[ebp], ecx
  00bf4	85 f6		 test	 esi, esi
  00bf6	0f 8e e8 02 00
	00		 jle	 $LN475@Update
  00bfc	8b 85 54 ff ff
	ff		 mov	 eax, DWORD PTR _wTextLen$1$[ebp]
$LL28@Update:

; 413  : 				{
; 414  : 					int ret = GetTextTag(&wText[i], wTextLen - i, len, hyperlinkBuffer);

  00c02	8b 95 40 ff ff
	ff		 mov	 edx, DWORD PTR _wText$1$[ebp]
  00c08	2b c1		 sub	 eax, ecx
  00c0a	8d 34 4a	 lea	 esi, DWORD PTR [edx+ecx*2]
  00c0d	8d 55 a4	 lea	 edx, DWORD PTR _hyperlinkBuffer$8[ebp]
  00c10	52		 push	 edx
  00c11	8d 95 30 ff ff
	ff		 lea	 edx, DWORD PTR _len$2[ebp]
  00c17	52		 push	 edx
  00c18	50		 push	 eax
  00c19	56		 push	 esi
  00c1a	e8 00 00 00 00	 call	 ?GetTextTag@@YAHPB_WHAAHAAV?$basic_string@_WU?$char_traits@_W@std@@V?$allocator@_W@2@@std@@@Z ; GetTextTag
  00c1f	83 c4 10	 add	 esp, 16			; 00000010H

; 415  : 
; 416  : 					if (ret == TEXT_TAG_PLAIN || ret == TEXT_TAG_TAG)

  00c22	85 c0		 test	 eax, eax
  00c24	0f 84 41 02 00
	00		 je	 $LN86@Update
  00c2a	83 f8 01	 cmp	 eax, 1
  00c2d	0f 84 38 02 00
	00		 je	 $LN86@Update

; 425  : 						}
; 426  : 					}
; 427  : 					else
; 428  : 					{
; 429  : 						if (ret == TEXT_TAG_COLOR)

  00c33	83 f8 02	 cmp	 eax, 2
  00c36	0f 85 84 00 00
	00		 jne	 $LN89@Update
; File C:\Program Files (x86)\Microsoft Visual Studio\2019\Community\VC\Tools\MSVC\14.28.29333\include\xstring

; 2219 :         if (_Large_string_engaged()) {

  00c3c	83 7d b8 08	 cmp	 DWORD PTR _hyperlinkBuffer$8[ebp+20], 8
  00c40	8d 7d a4	 lea	 edi, DWORD PTR _hyperlinkBuffer$8[ebp]
; File D:\Metin2 Server Files\mainline\SRC_2014\Metin2Client\EterBase\Utils.h

; 149  :     int x = 0, y = 1;

  00c43	c7 45 84 00 00
	00 00		 mov	 DWORD PTR _dwColor$1$[ebp], 0
  00c4a	8d 70 ff	 lea	 esi, DWORD PTR [eax-1]
; File C:\Program Files (x86)\Microsoft Visual Studio\2019\Community\VC\Tools\MSVC\14.28.29333\include\xstring

; 2219 :         if (_Large_string_engaged()) {

  00c4d	0f 43 7d a4	 cmovae	 edi, DWORD PTR _hyperlinkBuffer$8[ebp]
; File D:\Metin2 Server Files\mainline\SRC_2014\Metin2Client\EterBase\Utils.h

; 152  :     while (t <= --s)

  00c51	8d 57 0e	 lea	 edx, DWORD PTR [edi+14]
  00c54	3b fa		 cmp	 edi, edx
  00c56	77 5d		 ja	 SHORT $LN393@Update
  00c58	0f 1f 84 00 00
	00 00 00	 npad	 8
$LL394@Update:

; 153  :     {
; 154  : 		if (L'0' <= *s && *s <= L'9')

  00c60	0f b7 0a	 movzx	 ecx, WORD PTR [edx]
  00c63	8d 41 d0	 lea	 eax, DWORD PTR [ecx-48]
  00c66	66 83 f8 09	 cmp	 ax, 9
  00c6a	77 05		 ja	 SHORT $LN396@Update

; 155  :             x += y * (*s - L'0');

  00c6c	83 e9 30	 sub	 ecx, 48			; 00000030H
  00c6f	eb 1a		 jmp	 SHORT $LN401@Update
$LN396@Update:

; 156  :         else if (L'a' <= *s && *s <= L'f')

  00c71	8d 41 9f	 lea	 eax, DWORD PTR [ecx-97]
  00c74	66 83 f8 05	 cmp	 ax, 5
  00c78	77 05		 ja	 SHORT $LN398@Update

; 157  :             x += y * (*s - L'a' + 10);

  00c7a	83 e9 57	 sub	 ecx, 87			; 00000057H
  00c7d	eb 0c		 jmp	 SHORT $LN401@Update
$LN398@Update:

; 158  :         else if (L'A' <= *s && *s <= L'F')

  00c7f	8d 41 bf	 lea	 eax, DWORD PTR [ecx-65]
  00c82	66 83 f8 05	 cmp	 ax, 5
  00c86	77 26		 ja	 SHORT $LN400@Update

; 159  :             x += y * (10 + *s - L'A');

  00c88	83 e9 37	 sub	 ecx, 55			; 00000037H
$LN401@Update:

; 162  :         y <<= 4;

  00c8b	8b c6		 mov	 eax, esi
  00c8d	83 ea 02	 sub	 edx, 2
  00c90	0f af c1	 imul	 eax, ecx
  00c93	c1 e6 04	 shl	 esi, 4
  00c96	03 45 84	 add	 eax, DWORD PTR _dwColor$1$[ebp]
  00c99	89 45 84	 mov	 DWORD PTR _dwColor$1$[ebp], eax
  00c9c	3b fa		 cmp	 edi, edx
  00c9e	76 c0		 jbe	 SHORT $LL394@Update
; File D:\Metin2 Server Files\mainline\SRC_2014\Metin2Client\EterLib\GrpTextInstance.cpp

; 430  : 							dwColor = htoi(hyperlinkBuffer.c_str(), 8);

  00ca0	8b bd 7c ff ff
	ff		 mov	 edi, DWORD PTR __Old_capacity$1$[ebp]
; File C:\Program Files (x86)\Microsoft Visual Studio\2019\Community\VC\Tools\MSVC\14.28.29333\include\xmemory

; 60   :         if (_Count > _Max_possible) {

  00ca6	89 45 84	 mov	 DWORD PTR _dwColor$1$[ebp], eax
; File D:\Metin2 Server Files\mainline\SRC_2014\Metin2Client\EterLib\GrpTextInstance.cpp

; 430  : 							dwColor = htoi(hyperlinkBuffer.c_str(), 8);

  00ca9	e9 fb 01 00 00	 jmp	 $LN88@Update
$LN400@Update:
; File D:\Metin2 Server Files\mainline\SRC_2014\Metin2Client\EterBase\Utils.h

; 161  :             return -1; /* invalid input! */

  00cae	c7 45 84 ff ff
	ff ff		 mov	 DWORD PTR _dwColor$1$[ebp], -1
$LN393@Update:
; File D:\Metin2 Server Files\mainline\SRC_2014\Metin2Client\EterLib\GrpTextInstance.cpp

; 430  : 							dwColor = htoi(hyperlinkBuffer.c_str(), 8);

  00cb5	8b bd 7c ff ff
	ff		 mov	 edi, DWORD PTR __Old_capacity$1$[ebp]
  00cbb	e9 e9 01 00 00	 jmp	 $LN88@Update
$LN89@Update:

; 431  : 						else if (ret == TEXT_TAG_RESTORE_COLOR)

  00cc0	83 f8 05	 cmp	 eax, 5
  00cc3	75 11		 jne	 SHORT $LN91@Update

; 432  : 							dwColor = m_dwTextColor;

  00cc5	8b 85 64 ff ff
	ff		 mov	 eax, DWORD PTR _this$GSCopy$1$[ebp]
  00ccb	8b 40 04	 mov	 eax, DWORD PTR [eax+4]
  00cce	89 45 84	 mov	 DWORD PTR _dwColor$1$[ebp], eax
  00cd1	e9 d3 01 00 00	 jmp	 $LN88@Update
$LN91@Update:

; 433  : 						else if (ret == TEXT_TAG_HYPERLINK_START)

  00cd6	83 f8 03	 cmp	 eax, 3
  00cd9	75 1e		 jne	 SHORT $LN93@Update
; File C:\Program Files (x86)\Microsoft Visual Studio\2019\Community\VC\Tools\MSVC\14.28.29333\include\xstring

; 3062 :         return assign(_Ptr, _Convert_size<size_type>(_Traits::length(_Ptr)));

  00cdb	6a 00		 push	 0
  00cdd	68 00 00 00 00	 push	 OFFSET ??_C@_11LOCGONAA@@
  00ce2	8d 4d a4	 lea	 ecx, DWORD PTR _hyperlinkBuffer$8[ebp]
; File D:\Metin2 Server Files\mainline\SRC_2014\Metin2Client\EterLib\GrpTextInstance.cpp

; 435  : 							hyperlinkStep = 1;

  00ce5	c7 85 78 ff ff
	ff 01 00 00 00	 mov	 DWORD PTR _hyperlinkStep$1$[ebp], 1
; File C:\Program Files (x86)\Microsoft Visual Studio\2019\Community\VC\Tools\MSVC\14.28.29333\include\xstring

; 3062 :         return assign(_Ptr, _Convert_size<size_type>(_Traits::length(_Ptr)));

  00cef	e8 00 00 00 00	 call	 ?assign@?$basic_string@_WU?$char_traits@_W@std@@V?$allocator@_W@2@@std@@QAEAAV12@QB_WI@Z ; std::basic_string<wchar_t,std::char_traits<wchar_t>,std::allocator<wchar_t> >::assign
; File D:\Metin2 Server Files\mainline\SRC_2014\Metin2Client\EterLib\GrpTextInstance.cpp

; 437  : 						}

  00cf4	e9 b0 01 00 00	 jmp	 $LN88@Update
$LN93@Update:

; 438  : 						else if (ret == TEXT_TAG_HYPERLINK_END)

  00cf9	83 f8 04	 cmp	 eax, 4
  00cfc	0f 85 a7 01 00
	00		 jne	 $LN88@Update

; 439  : 						{
; 440  : 							if (hyperlinkStep == 1)

  00d02	83 bd 78 ff ff
	ff 01		 cmp	 DWORD PTR _hyperlinkStep$1$[ebp], 1
  00d09	75 19		 jne	 SHORT $LN96@Update

; 441  : 							{
; 442  : 								++hyperlinkStep;
; 443  : 								kHyperlink.ex = kHyperlink.sx = x; //    

  00d0b	8b 55 80	 mov	 edx, DWORD PTR _x$1$[ebp]
  00d0e	66 8b da	 mov	 bx, dx
  00d11	c7 85 78 ff ff
	ff 02 00 00 00	 mov	 DWORD PTR _hyperlinkStep$1$[ebp], 2
  00d1b	66 89 55 88	 mov	 WORD PTR _kHyperlink$7[ebp], dx

; 444  : 							}

  00d1f	e9 81 01 00 00	 jmp	 $LN590@Update
$LN96@Update:
; File C:\Program Files (x86)\Microsoft Visual Studio\2019\Community\VC\Tools\MSVC\14.28.29333\include\xstring

; 2219 :         if (_Large_string_engaged()) {

  00d24	83 7d b8 08	 cmp	 DWORD PTR _hyperlinkBuffer$8[ebp+20], 8
  00d28	8d 45 a4	 lea	 eax, DWORD PTR _hyperlinkBuffer$8[ebp]

; 2828 :         assign(_Right._Mypair._Myval2._Myptr(), _Right._Mypair._Myval2._Mysize);

  00d2b	8b 5d b4	 mov	 ebx, DWORD PTR _hyperlinkBuffer$8[ebp+16]

; 2219 :         if (_Large_string_engaged()) {

  00d2e	0f 43 45 a4	 cmovae	 eax, DWORD PTR _hyperlinkBuffer$8[ebp]
  00d32	89 85 78 ff ff
	ff		 mov	 DWORD PTR __Result$2$[ebp], eax

; 2828 :         assign(_Right._Mypair._Myval2._Myptr(), _Right._Mypair._Myval2._Mysize);

  00d38	3b df		 cmp	 ebx, edi

; 3044 :         if (_Count <= _Mypair._Myval2._Myres) {

  00d3a	77 2a		 ja	 SHORT $LN420@Update

; 2210 :         if (_Large_string_engaged()) {

  00d3c	83 bd 7c ff ff
	ff 08		 cmp	 DWORD PTR __Old_capacity$1$[ebp], 8

; 119  :         _CSTD memmove(_First1, _First2, _Count * sizeof(_Elem));

  00d43	8d 34 1b	 lea	 esi, DWORD PTR [ebx+ebx]
  00d46	56		 push	 esi

; 2209 :         value_type* _Result = _Bx._Buf;

  00d47	8d 7d 8c	 lea	 edi, DWORD PTR _kHyperlink$7[ebp+4]

; 3046 :             _Mypair._Myval2._Mysize = _Count;

  00d4a	89 5d 9c	 mov	 DWORD PTR _kHyperlink$7[ebp+20], ebx

; 2210 :         if (_Large_string_engaged()) {

  00d4d	0f 43 7d 8c	 cmovae	 edi, DWORD PTR _kHyperlink$7[ebp+4]

; 119  :         _CSTD memmove(_First1, _First2, _Count * sizeof(_Elem));

  00d51	50		 push	 eax
  00d52	57		 push	 edi
  00d53	e8 00 00 00 00	 call	 _memmove
  00d58	83 c4 0c	 add	 esp, 12			; 0000000cH

; 3048 :             _Traits::assign(_Old_ptr[_Count], _Elem());

  00d5b	33 c0		 xor	 eax, eax
  00d5d	66 89 04 37	 mov	 WORD PTR [edi+esi], ax

; 3049 :             return *this;

  00d61	e9 b4 00 00 00	 jmp	 $LN432@Update
$LN420@Update:

; 4305 :         if (_New_size > max_size()) {

  00d66	81 fb fe ff ff
	7f		 cmp	 ebx, 2147483646		; 7ffffffeH
  00d6c	0f 87 13 02 00
	00		 ja	 $LN513@Update

; 4306 :             _Xlen_string(); // result too long
; 4307 :         }
; 4308 : 
; 4309 :         const size_type _Old_capacity = _Mypair._Myval2._Myres;

  00d72	8b f3		 mov	 esi, ebx
  00d74	83 ce 07	 or	 esi, 7

; 4285 :         const size_type _Masked = _Requested | _ALLOC_MASK;

  00d77	81 fe fe ff ff
	7f		 cmp	 esi, 2147483646		; 7ffffffeH

; 4286 :         if (_Masked > _Max) { // the mask overflows, settle for max_size()

  00d7d	76 0a		 jbe	 SHORT $LN437@Update

; 4287 :             return _Max;

  00d7f	be fe ff ff 7f	 mov	 esi, 2147483646		; 7ffffffeH
  00d84	8d 46 01	 lea	 eax, DWORD PTR [esi+1]
  00d87	eb 2f		 jmp	 SHORT $LN558@Update
$LN437@Update:

; 4288 :         }
; 4289 : 
; 4290 :         if (_Old > _Max - _Old / 2) { // similarly, geometric overflows

  00d89	8b cf		 mov	 ecx, edi
  00d8b	b8 fe ff ff 7f	 mov	 eax, 2147483646		; 7ffffffeH
  00d90	d1 e9		 shr	 ecx, 1
  00d92	2b c1		 sub	 eax, ecx
  00d94	3b f8		 cmp	 edi, eax
  00d96	76 0a		 jbe	 SHORT $LN438@Update

; 4291 :             return _Max;

  00d98	be fe ff ff 7f	 mov	 esi, 2147483646		; 7ffffffeH
  00d9d	8d 46 01	 lea	 eax, DWORD PTR [esi+1]
  00da0	eb 16		 jmp	 SHORT $LN558@Update
$LN438@Update:

; 4292 :         }
; 4293 : 
; 4294 :         return (_STD max)(_Masked, _Old + _Old / 2);

  00da2	8d 04 0f	 lea	 eax, DWORD PTR [edi+ecx]
  00da5	3b f0		 cmp	 esi, eax
  00da7	0f 42 f0	 cmovb	 esi, eax

; 4312 :         const pointer _New_ptr        = _Al.allocate(_New_capacity + 1); // throws

  00daa	8d 46 01	 lea	 eax, DWORD PTR [esi+1]
; File C:\Program Files (x86)\Microsoft Visual Studio\2019\Community\VC\Tools\MSVC\14.28.29333\include\xmemory

; 60   :         if (_Count > _Max_possible) {

  00dad	3d ff ff ff 7f	 cmp	 eax, 2147483647		; 7fffffffH
  00db2	0f 87 d2 01 00
	00		 ja	 $LN514@Update
$LN558@Update:

; 61   :             _Throw_bad_array_new_length(); // multiply overflow
; 62   :         }
; 63   :     }
; 64   : 
; 65   :     return _Count * _Ty_size;

  00db8	03 c0		 add	 eax, eax

; 814  :         return static_cast<_Ty*>(_Allocate<_New_alignof<_Ty>>(_Get_size_of_n<sizeof(_Ty)>(_Count)));

  00dba	50		 push	 eax
  00dbb	e8 00 00 00 00	 call	 ??$_Allocate@$07U_Default_allocate_traits@std@@$0A@@std@@YAPAXI@Z ; std::_Allocate<8,std::_Default_allocate_traits,0>
; File C:\Program Files (x86)\Microsoft Visual Studio\2019\Community\VC\Tools\MSVC\14.28.29333\include\xstring

; 4315 :         _Mypair._Myval2._Myres  = _New_capacity;

  00dc0	89 75 a0	 mov	 DWORD PTR _kHyperlink$7[ebp+24], esi
  00dc3	8b f8		 mov	 edi, eax

; 62   :         _CSTD memcpy(_First1, _First2, _Count * sizeof(_Elem));

  00dc5	8d 34 1b	 lea	 esi, DWORD PTR [ebx+ebx]

; 4312 :         const pointer _New_ptr        = _Al.allocate(_New_capacity + 1); // throws

  00dc8	89 bd 6c ff ff
	ff		 mov	 DWORD PTR __New_ptr$4[ebp], edi

; 62   :         _CSTD memcpy(_First1, _First2, _Count * sizeof(_Elem));

  00dce	56		 push	 esi
  00dcf	ff b5 78 ff ff
	ff		 push	 DWORD PTR __Result$2$[ebp]

; 4314 :         _Mypair._Myval2._Mysize = _New_size;

  00dd5	89 5d 9c	 mov	 DWORD PTR _kHyperlink$7[ebp+20], ebx

; 62   :         _CSTD memcpy(_First1, _First2, _Count * sizeof(_Elem));

  00dd8	57		 push	 edi
  00dd9	e8 00 00 00 00	 call	 _memcpy

; 4317 :         if (_BUF_SIZE <= _Old_capacity) {

  00dde	8b 8d 7c ff ff
	ff		 mov	 ecx, DWORD PTR __Old_capacity$1$[ebp]

; 3056 :                 _Traits::assign(_New_ptr[_Count], _Elem());

  00de4	33 c0		 xor	 eax, eax

; 62   :         _CSTD memcpy(_First1, _First2, _Count * sizeof(_Elem));

  00de6	83 c4 10	 add	 esp, 16			; 00000010H

; 3056 :                 _Traits::assign(_New_ptr[_Count], _Elem());

  00de9	66 89 04 37	 mov	 WORD PTR [edi+esi], ax

; 4317 :         if (_BUF_SIZE <= _Old_capacity) {

  00ded	83 f9 08	 cmp	 ecx, 8
  00df0	72 15		 jb	 SHORT $LN431@Update
; File C:\Program Files (x86)\Microsoft Visual Studio\2019\Community\VC\Tools\MSVC\14.28.29333\include\xmemory

; 810  :         _Deallocate<_New_alignof<_Ty>>(_Ptr, sizeof(_Ty) * _Count);

  00df2	8d 04 4d 02 00
	00 00		 lea	 eax, DWORD PTR [ecx*2+2]
  00df9	50		 push	 eax
  00dfa	ff 75 8c	 push	 DWORD PTR _kHyperlink$7[ebp+4]
  00dfd	e8 00 00 00 00	 call	 ??$_Deallocate@$07$0A@@std@@YAXPAXI@Z ; std::_Deallocate<8,0>
; File C:\Program Files (x86)\Microsoft Visual Studio\2019\Community\VC\Tools\MSVC\14.28.29333\include\xstring

; 4319 :             _Mypair._Myval2._Bx._Ptr = _New_ptr;

  00e02	89 7d 8c	 mov	 DWORD PTR _kHyperlink$7[ebp+4], edi

; 4320 :         } else {

  00e05	eb 10		 jmp	 SHORT $LN591@Update
$LN431@Update:

; 4321 :             _Construct_in_place(_Mypair._Myval2._Bx._Ptr, _New_ptr);

  00e07	8d 85 6c ff ff
	ff		 lea	 eax, DWORD PTR __New_ptr$4[ebp]
  00e0d	50		 push	 eax
  00e0e	8d 45 8c	 lea	 eax, DWORD PTR _kHyperlink$7[ebp+4]
  00e11	50		 push	 eax
  00e12	e8 00 00 00 00	 call	 ??$_Construct_in_place@PA_WABQA_W@std@@YAXAAPA_WABQA_W@Z ; std::_Construct_in_place<wchar_t *,wchar_t * const &>
$LN591@Update:
; File C:\Program Files (x86)\Microsoft Visual Studio\2019\Community\VC\Tools\MSVC\14.28.29333\include\vector

; 704  :         if (_Mylast != _My_data._Myend) {

  00e17	83 c4 08	 add	 esp, 8
$LN432@Update:
  00e1a	8b 9d 74 ff ff
	ff		 mov	 ebx, DWORD PTR _this$1$[ebp]
  00e20	8d 4d 88	 lea	 ecx, DWORD PTR _kHyperlink$7[ebp]
  00e23	51		 push	 ecx
  00e24	8b 43 04	 mov	 eax, DWORD PTR [ebx+4]
  00e27	50		 push	 eax
  00e28	3b 43 08	 cmp	 eax, DWORD PTR [ebx+8]
  00e2b	74 0f		 je	 SHORT $LN461@Update

; 687  :         _Alty_traits::construct(_Getal(), _Unfancy(_Mylast), _STD forward<_Valty>(_Val)...);

  00e2d	53		 push	 ebx
  00e2e	e8 00 00 00 00	 call	 ??$construct@USHyperlink@CGraphicTextInstance@@ABU12@@?$_Default_allocator_traits@V?$allocator@USHyperlink@CGraphicTextInstance@@@std@@@std@@SAXAAV?$allocator@USHyperlink@CGraphicTextInstance@@@1@QAUSHyperlink@CGraphicTextInstance@@ABU34@@Z ; std::_Default_allocator_traits<std::allocator<CGraphicTextInstance::SHyperlink> >::construct<CGraphicTextInstance::SHyperlink,CGraphicTextInstance::SHyperlink const &>
  00e33	83 c4 0c	 add	 esp, 12			; 0000000cH

; 688  :         _Orphan_range(_Mylast, _Mylast);
; 689  :         _Ty& _Result = *_Mylast;
; 690  :         ++_Mylast;

  00e36	83 43 04 1c	 add	 DWORD PTR [ebx+4], 28	; 0000001cH

; 705  :             return _Emplace_back_with_unused_capacity(_STD forward<_Valty>(_Val)...);

  00e3a	eb 07		 jmp	 SHORT $LN460@Update
$LN461@Update:

; 706  :         }
; 707  : 
; 708  :         _Ty& _Result = *_Emplace_reallocate(_Mylast, _STD forward<_Valty>(_Val)...);

  00e3c	8b cb		 mov	 ecx, ebx
  00e3e	e8 00 00 00 00	 call	 ??$_Emplace_reallocate@ABUSHyperlink@CGraphicTextInstance@@@?$vector@USHyperlink@CGraphicTextInstance@@V?$allocator@USHyperlink@CGraphicTextInstance@@@std@@@std@@QAEPAUSHyperlink@CGraphicTextInstance@@QAU23@ABU23@@Z ; std::vector<CGraphicTextInstance::SHyperlink,std::allocator<CGraphicTextInstance::SHyperlink> >::_Emplace_reallocate<CGraphicTextInstance::SHyperlink const &>
$LN460@Update:
; File C:\Program Files (x86)\Microsoft Visual Studio\2019\Community\VC\Tools\MSVC\14.28.29333\include\xstring

; 3062 :         return assign(_Ptr, _Convert_size<size_type>(_Traits::length(_Ptr)));

  00e43	6a 00		 push	 0
  00e45	68 00 00 00 00	 push	 OFFSET ??_C@_11LOCGONAA@@
  00e4a	8d 4d a4	 lea	 ecx, DWORD PTR _hyperlinkBuffer$8[ebp]
; File D:\Metin2 Server Files\mainline\SRC_2014\Metin2Client\EterLib\GrpTextInstance.cpp

; 450  : 								hyperlinkStep = 0;

  00e4d	c7 85 78 ff ff
	ff 00 00 00 00	 mov	 DWORD PTR _hyperlinkStep$1$[ebp], 0
; File C:\Program Files (x86)\Microsoft Visual Studio\2019\Community\VC\Tools\MSVC\14.28.29333\include\xstring

; 3062 :         return assign(_Ptr, _Convert_size<size_type>(_Traits::length(_Ptr)));

  00e57	e8 00 00 00 00	 call	 ?assign@?$basic_string@_WU?$char_traits@_W@std@@V?$allocator@_W@2@@std@@QAEAAV12@QB_WI@Z ; std::basic_string<wchar_t,std::char_traits<wchar_t>,std::allocator<wchar_t> >::assign
  00e5c	8b 7d a0	 mov	 edi, DWORD PTR _kHyperlink$7[ebp+24]
  00e5f	66 8b 5d 8a	 mov	 bx, WORD PTR _kHyperlink$7[ebp+2]
  00e63	89 bd 7c ff ff
	ff		 mov	 DWORD PTR __Old_capacity$1$[ebp], edi
  00e69	eb 3e		 jmp	 SHORT $LN88@Update
$LN86@Update:
; File D:\Metin2 Server Files\mainline\SRC_2014\Metin2Client\EterLib\GrpTextInstance.cpp

; 418  : 						if (hyperlinkStep == 1)

  00e6b	83 bd 78 ff ff
	ff 01		 cmp	 DWORD PTR _hyperlinkStep$1$[ebp], 1
  00e72	0f b7 06	 movzx	 eax, WORD PTR [esi]
  00e75	75 0d		 jne	 SHORT $LN87@Update

; 419  : 							hyperlinkBuffer.append(1, wText[i]);

  00e77	50		 push	 eax
  00e78	6a 01		 push	 1
  00e7a	8d 4d a4	 lea	 ecx, DWORD PTR _hyperlinkBuffer$8[ebp]
  00e7d	e8 00 00 00 00	 call	 ?append@?$basic_string@_WU?$char_traits@_W@std@@V?$allocator@_W@2@@std@@QAEAAV12@I_W@Z ; std::basic_string<wchar_t,std::char_traits<wchar_t>,std::allocator<wchar_t> >::append
  00e82	eb 25		 jmp	 SHORT $LN88@Update
$LN87@Update:

; 420  : 						else
; 421  : 						{
; 422  : 							int charWidth = __DrawCharacter(pFontTexture, dataCodePage, wText[i], dwColor);

  00e84	ff 75 84	 push	 DWORD PTR _dwColor$1$[ebp]
  00e87	8b 8d 64 ff ff
	ff		 mov	 ecx, DWORD PTR _this$GSCopy$1$[ebp]
  00e8d	50		 push	 eax
  00e8e	ff b5 58 ff ff
	ff		 push	 DWORD PTR _dataCodePage$1$[ebp]
  00e94	ff b5 4c ff ff
	ff		 push	 DWORD PTR _pFontTexture$1$[ebp]
  00e9a	e8 00 00 00 00	 call	 ?__DrawCharacter@CGraphicTextInstance@@IAEHPAVCGraphicFontTexture@@G_WK@Z ; CGraphicTextInstance::__DrawCharacter

; 423  : 							kHyperlink.ex += charWidth;

  00e9f	66 03 d8	 add	 bx, ax

; 424  : 							x += charWidth;

  00ea2	01 45 80	 add	 DWORD PTR _x$1$[ebp], eax
$LN590@Update:

; 451  : 								hyperlinkBuffer = L"";						
; 452  : 							}
; 453  : 						}
; 454  : 					}
; 455  : 					i += len;

  00ea5	66 89 5d 8a	 mov	 WORD PTR _kHyperlink$7[ebp+2], bx
$LN88@Update:
  00ea9	8b 8d 48 ff ff
	ff		 mov	 ecx, DWORD PTR _i$1$[ebp]
  00eaf	03 8d 30 ff ff
	ff		 add	 ecx, DWORD PTR _len$2[ebp]
  00eb5	8b 85 54 ff ff
	ff		 mov	 eax, DWORD PTR _wTextLen$1$[ebp]
  00ebb	89 8d 48 ff ff
	ff		 mov	 DWORD PTR _i$1$[ebp], ecx
  00ec1	3b c8		 cmp	 ecx, eax
  00ec3	0f 8c 39 fd ff
	ff		 jl	 $LL28@Update
; File C:\Program Files (x86)\Microsoft Visual Studio\2019\Community\VC\Tools\MSVC\14.28.29333\include\xstring

; 4385 :         if (_Mypair._Myval2._Large_string_engaged()) {

  00ec9	8b 45 b8	 mov	 eax, DWORD PTR _hyperlinkBuffer$8[ebp+20]
  00ecc	83 f8 08	 cmp	 eax, 8
  00ecf	72 13		 jb	 SHORT $LN475@Update
; File C:\Program Files (x86)\Microsoft Visual Studio\2019\Community\VC\Tools\MSVC\14.28.29333\include\xmemory

; 810  :         _Deallocate<_New_alignof<_Ty>>(_Ptr, sizeof(_Ty) * _Count);

  00ed1	8d 04 45 02 00
	00 00		 lea	 eax, DWORD PTR [eax*2+2]
  00ed8	50		 push	 eax
  00ed9	ff 75 a4	 push	 DWORD PTR _hyperlinkBuffer$8[ebp]
  00edc	e8 00 00 00 00	 call	 ??$_Deallocate@$07$0A@@std@@YAXPAXI@Z ; std::_Deallocate<8,0>
  00ee1	83 c4 08	 add	 esp, 8
$LN475@Update:
; File C:\Program Files (x86)\Microsoft Visual Studio\2019\Community\VC\Tools\MSVC\14.28.29333\include\xstring

; 4395 :         _Traits::assign(_Mypair._Myval2._Bx._Buf[0], _Elem());

  00ee4	33 c0		 xor	 eax, eax
  00ee6	c7 45 b4 00 00
	00 00		 mov	 DWORD PTR _hyperlinkBuffer$8[ebp+16], 0
  00eed	c7 45 b8 07 00
	00 00		 mov	 DWORD PTR _hyperlinkBuffer$8[ebp+20], 7
  00ef4	66 89 45 a4	 mov	 WORD PTR _hyperlinkBuffer$8[ebp], ax
; File D:\Metin2 Server Files\mainline\SRC_2014\Metin2Client\EterLib\GrpTextInstance.cpp

; 457  : 			}

  00ef8	c7 45 fc ff ff
	ff ff		 mov	 DWORD PTR __$EHRec$[ebp+8], -1
; File C:\Program Files (x86)\Microsoft Visual Studio\2019\Community\VC\Tools\MSVC\14.28.29333\include\xstring

; 2227 :         return _BUF_SIZE <= _Myres;

  00eff	83 ff 08	 cmp	 edi, 8

; 4385 :         if (_Mypair._Myval2._Large_string_engaged()) {

  00f02	72 13		 jb	 SHORT $LN579@Update
; File C:\Program Files (x86)\Microsoft Visual Studio\2019\Community\VC\Tools\MSVC\14.28.29333\include\xmemory

; 810  :         _Deallocate<_New_alignof<_Ty>>(_Ptr, sizeof(_Ty) * _Count);

  00f04	8d 04 7d 02 00
	00 00		 lea	 eax, DWORD PTR [edi*2+2]
  00f0b	50		 push	 eax
  00f0c	ff 75 8c	 push	 DWORD PTR _kHyperlink$7[ebp+4]
  00f0f	e8 00 00 00 00	 call	 ??$_Deallocate@$07$0A@@std@@YAXPAXI@Z ; std::_Deallocate<8,0>
  00f14	83 c4 08	 add	 esp, 8
$LN579@Update:
; File D:\Metin2 Server Files\mainline\SRC_2014\Metin2Client\EterLib\GrpTextInstance.cpp

; 460  : 		if (token < end)

  00f17	8b bd 74 ff ff
	ff		 mov	 edi, DWORD PTR _this$1$[ebp]
  00f1d	8b 5d 84	 mov	 ebx, DWORD PTR _dwColor$1$[ebp]
$LN488@Update:
  00f20	8b b5 2c ff ff
	ff		 mov	 esi, DWORD PTR _token$1$[ebp]
  00f26	3b b5 3c ff ff
	ff		 cmp	 esi, DWORD PTR _end$1$[ebp]
  00f2c	73 20		 jae	 SHORT $LN562@Update

; 461  : 		{			
; 462  : 			int newCodePage = ReadToken(token);			

  00f2e	56		 push	 esi
  00f2f	e8 00 00 00 00	 call	 ?ReadToken@@YAHPBD@Z	; ReadToken

; 463  : 			dataCodePage = newCodePage;	//      UTF8    

  00f34	89 85 58 ff ff
	ff		 mov	 DWORD PTR _dataCodePage$1$[ebp], eax

; 464  : 			begin = token + 5;			

  00f3a	83 c6 05	 add	 esi, 5
  00f3d	8b 85 3c ff ff
	ff		 mov	 eax, DWORD PTR _end$1$[ebp]
  00f43	83 c4 04	 add	 esp, 4
  00f46	3b f0		 cmp	 esi, eax
  00f48	0f 82 d2 f1 ff
	ff		 jb	 $LL2@Update
$LN562@Update:

; 465  : 		}
; 466  : 		else
; 467  : 		{
; 468  : 			begin = token;
; 469  : 		}
; 470  : 	}
; 471  : 
; 472  : 	pFontTexture->UpdateTexture();

  00f4e	8b 8d 4c ff ff
	ff		 mov	 ecx, DWORD PTR _pFontTexture$1$[ebp]
  00f54	e8 00 00 00 00	 call	 ?UpdateTexture@CGraphicFontTexture@@QAE_NXZ ; CGraphicFontTexture::UpdateTexture

; 473  : 
; 474  : 	m_isUpdate = true;

  00f59	8b 85 64 ff ff
	ff		 mov	 eax, DWORD PTR _this$GSCopy$1$[ebp]
  00f5f	c6 40 44 01	 mov	 BYTE PTR [eax+68], 1
$LN1@Update:

; 475  : }

  00f63	8d a5 1c ff ff
	ff		 lea	 esp, DWORD PTR [ebp-228]
  00f69	8b 4d f4	 mov	 ecx, DWORD PTR __$EHRec$[ebp]
  00f6c	64 89 0d 00 00
	00 00		 mov	 DWORD PTR fs:0, ecx
  00f73	59		 pop	 ecx
  00f74	5f		 pop	 edi
  00f75	5e		 pop	 esi
  00f76	5b		 pop	 ebx
  00f77	8b 4d f0	 mov	 ecx, DWORD PTR __$ArrayPad$[ebp]
  00f7a	33 cd		 xor	 ecx, ebp
  00f7c	e8 00 00 00 00	 call	 @__security_check_cookie@4
  00f81	8b e5		 mov	 esp, ebp
  00f83	5d		 pop	 ebp
  00f84	c3		 ret	 0
$LN513@Update:
  00f85	e8 00 00 00 00	 call	 ?_Xlen_string@std@@YAXXZ ; std::_Xlen_string
$LN514@Update:
  00f8a	e8 00 00 00 00	 call	 ?_Throw_bad_array_new_length@std@@YAXXZ ; std::_Throw_bad_array_new_length
$LN584@Update:
  00f8f	cc		 int	 3
_TEXT	ENDS
;	COMDAT text$x
text$x	SEGMENT
__unwindfunclet$?Update@CGraphicTextInstance@@QAEXXZ$0:
  00000	8d 4d d4	 lea	 ecx, DWORD PTR _kHyperlink$10[ebp]
  00003	e9 00 00 00 00	 jmp	 ??1SHyperlink@CGraphicTextInstance@@QAE@XZ
__unwindfunclet$?Update@CGraphicTextInstance@@QAEXXZ$1:
  00008	8d 4d bc	 lea	 ecx, DWORD PTR _hyperlinkBuffer$9[ebp]
  0000b	e9 00 00 00 00	 jmp	 ??1?$basic_string@_WU?$char_traits@_W@std@@V?$allocator@_W@2@@std@@QAE@XZ ; std::basic_string<wchar_t,std::char_traits<wchar_t>,std::allocator<wchar_t> >::~basic_string<wchar_t,std::char_traits<wchar_t>,std::allocator<wchar_t> >
__unwindfunclet$?Update@CGraphicTextInstance@@QAEXXZ$2:
  00010	8d 4d 88	 lea	 ecx, DWORD PTR _kHyperlink$7[ebp]
  00013	e9 00 00 00 00	 jmp	 ??1SHyperlink@CGraphicTextInstance@@QAE@XZ
__unwindfunclet$?Update@CGraphicTextInstance@@QAEXXZ$3:
  00018	8d 4d a4	 lea	 ecx, DWORD PTR _hyperlinkBuffer$8[ebp]
  0001b	e9 00 00 00 00	 jmp	 ??1?$basic_string@_WU?$char_traits@_W@std@@V?$allocator@_W@2@@std@@QAE@XZ ; std::basic_string<wchar_t,std::char_traits<wchar_t>,std::allocator<wchar_t> >::~basic_string<wchar_t,std::char_traits<wchar_t>,std::allocator<wchar_t> >
  00020	cc		 int	 3
  00021	cc		 int	 3
  00022	cc		 int	 3
  00023	cc		 int	 3
  00024	cc		 int	 3
__ehhandler$?Update@CGraphicTextInstance@@QAEXXZ:
  00025	90		 npad	 1
  00026	90		 npad	 1
  00027	8b 54 24 08	 mov	 edx, DWORD PTR [esp+8]
  0002b	8d 42 0c	 lea	 eax, DWORD PTR [edx+12]
  0002e	8b 8a 28 ff ff
	ff		 mov	 ecx, DWORD PTR [edx-216]
  00034	33 c8		 xor	 ecx, eax
  00036	e8 00 00 00 00	 call	 @__security_check_cookie@4
  0003b	8b 4a fc	 mov	 ecx, DWORD PTR [edx-4]
  0003e	33 c8		 xor	 ecx, eax
  00040	e8 00 00 00 00	 call	 @__security_check_cookie@4
  00045	b8 00 00 00 00	 mov	 eax, OFFSET __ehfuncinfo$?Update@CGraphicTextInstance@@QAEXXZ
  0004a	e9 00 00 00 00	 jmp	 ___CxxFrameHandler3
text$x	ENDS
?Update@CGraphicTextInstance@@QAEXXZ ENDP		; CGraphicTextInstance::Update
; Function compile flags: /Ogtp
; File D:\Metin2 Server Files\mainline\SRC_2014\Metin2Client\EterLib\GrpTextInstance.cpp
; File C:\Program Files (x86)\Microsoft Visual Studio\2019\Community\VC\Tools\MSVC\14.28.29333\include\xstring
; File D:\Metin2 Server Files\mainline\SRC_2014\Metin2Client\EterLib\GrpTextInstance.cpp
; File C:\Program Files (x86)\Microsoft Visual Studio\2019\Community\VC\Tools\MSVC\14.28.29333\include\xstring
; File D:\Metin2 Server Files\mainline\SRC_2014\Metin2Client\EterLib\GrpTextInstance.cpp
; File C:\Program Files (x86)\Microsoft Visual Studio\2019\Community\VC\Tools\MSVC\14.28.29333\include\vector
; File D:\Metin2 Server Files\mainline\SRC_2014\Metin2Client\EterLib\GrpTextInstance.cpp
; File C:\Program Files (x86)\Microsoft Visual Studio\2019\Community\VC\Tools\MSVC\14.28.29333\include\vector
; File D:\Metin2 Server Files\mainline\SRC_2014\Metin2Client\EterLib\GrpTextInstance.cpp
;	COMDAT ?Destroy@CGraphicTextInstance@@QAEXXZ
_TEXT	SEGMENT
?Destroy@CGraphicTextInstance@@QAEXXZ PROC		; CGraphicTextInstance::Destroy, COMDAT
; _this$ = ecx

; 1133 : {

  00000	56		 push	 esi
  00001	57		 push	 edi
  00002	8b f9		 mov	 edi, ecx
; File C:\Program Files (x86)\Microsoft Visual Studio\2019\Community\VC\Tools\MSVC\14.28.29333\include\xstring

; 3062 :         return assign(_Ptr, _Convert_size<size_type>(_Traits::length(_Ptr)));

  00004	6a 00		 push	 0
  00006	68 00 00 00 00	 push	 OFFSET ??_C@_00CNPNBAHC@@
; File D:\Metin2 Server Files\mainline\SRC_2014\Metin2Client\EterLib\GrpTextInstance.cpp

; 1134 : 	m_stText="";

  0000b	8d 4f 20	 lea	 ecx, DWORD PTR [edi+32]
; File C:\Program Files (x86)\Microsoft Visual Studio\2019\Community\VC\Tools\MSVC\14.28.29333\include\xstring

; 3062 :         return assign(_Ptr, _Convert_size<size_type>(_Traits::length(_Ptr)));

  0000e	e8 00 00 00 00	 call	 ?assign@?$basic_string@DU?$char_traits@D@std@@V?$allocator@D@2@@std@@QAEAAV12@QBDI@Z ; std::basic_string<char,std::char_traits<char>,std::allocator<char> >::assign
; File D:\Metin2 Server Files\mainline\SRC_2014\Metin2Client\EterLib\GrpTextInstance.cpp

; 1135 : 	m_pCharInfoVector.clear();

  00013	8b 47 4c	 mov	 eax, DWORD PTR [edi+76]

; 1136 : 	m_dwColorInfoVector.clear();
; 1137 : 	m_hyperlinkVector.clear();

  00016	8d 77 64	 lea	 esi, DWORD PTR [edi+100]
  00019	89 47 50	 mov	 DWORD PTR [edi+80], eax
  0001c	8b 47 58	 mov	 eax, DWORD PTR [edi+88]
  0001f	89 47 5c	 mov	 DWORD PTR [edi+92], eax
; File C:\Program Files (x86)\Microsoft Visual Studio\2019\Community\VC\Tools\MSVC\14.28.29333\include\vector

; 1612 :         _Destroy_range(_First, _Last, _Getal());

  00022	56		 push	 esi
  00023	ff 76 04	 push	 DWORD PTR [esi+4]
  00026	ff 36		 push	 DWORD PTR [esi]
  00028	e8 00 00 00 00	 call	 ??$_Destroy_range@V?$allocator@USHyperlink@CGraphicTextInstance@@@std@@@std@@YAXPAUSHyperlink@CGraphicTextInstance@@QAU12@AAV?$allocator@USHyperlink@CGraphicTextInstance@@@0@@Z ; std::_Destroy_range<std::allocator<CGraphicTextInstance::SHyperlink> >

; 1390 :         _Mylast = _Myfirst;

  0002d	8b 06		 mov	 eax, DWORD PTR [esi]

; 1612 :         _Destroy_range(_First, _Last, _Getal());

  0002f	83 c4 0c	 add	 esp, 12			; 0000000cH
; File D:\Metin2 Server Files\mainline\SRC_2014\Metin2Client\EterLib\GrpTextInstance.cpp

; 1139 : 	__Initialize();

  00032	8b cf		 mov	 ecx, edi
; File C:\Program Files (x86)\Microsoft Visual Studio\2019\Community\VC\Tools\MSVC\14.28.29333\include\vector

; 1390 :         _Mylast = _Myfirst;

  00034	89 46 04	 mov	 DWORD PTR [esi+4], eax
; File D:\Metin2 Server Files\mainline\SRC_2014\Metin2Client\EterLib\GrpTextInstance.cpp

; 1139 : 	__Initialize();

  00037	5f		 pop	 edi
  00038	5e		 pop	 esi
  00039	e9 00 00 00 00	 jmp	 ?__Initialize@CGraphicTextInstance@@IAEXXZ ; CGraphicTextInstance::__Initialize
?Destroy@CGraphicTextInstance@@QAEXXZ ENDP		; CGraphicTextInstance::Destroy
_TEXT	ENDS
; Function compile flags: /Ogtp
; File D:\Metin2 Server Files\mainline\SRC_2014\Metin2Client\EterLib\GrpTextInstance.cpp
; File C:\Program Files (x86)\Microsoft Visual Studio\2019\Community\VC\Tools\MSVC\14.28.29333\include\vector
; File C:\Program Files (x86)\Microsoft Visual Studio\2019\Community\VC\Tools\MSVC\14.28.29333\include\xmemory
; File C:\Program Files (x86)\Microsoft Visual Studio\2019\Community\VC\Tools\MSVC\14.28.29333\include\vector
; File C:\Program Files (x86)\Microsoft Visual Studio\2019\Community\VC\Tools\MSVC\14.28.29333\include\xmemory
; File C:\Program Files (x86)\Microsoft Visual Studio\2019\Community\VC\Tools\MSVC\14.28.29333\include\vector
; File C:\Program Files (x86)\Microsoft Visual Studio\2019\Community\VC\Tools\MSVC\14.28.29333\include\xmemory
; File C:\Program Files (x86)\Microsoft Visual Studio\2019\Community\VC\Tools\MSVC\14.28.29333\include\vector
; File C:\Program Files (x86)\Microsoft Visual Studio\2019\Community\VC\Tools\MSVC\14.28.29333\include\xmemory
; File C:\Program Files (x86)\Microsoft Visual Studio\2019\Community\VC\Tools\MSVC\14.28.29333\include\vector
; File D:\Metin2 Server Files\mainline\SRC_2014\Metin2Client\EterLib\Ref.h
; File C:\Program Files (x86)\Microsoft Visual Studio\2019\Community\VC\Tools\MSVC\14.28.29333\include\xstring
; File C:\Program Files (x86)\Microsoft Visual Studio\2019\Community\VC\Tools\MSVC\14.28.29333\include\xmemory
; File C:\Program Files (x86)\Microsoft Visual Studio\2019\Community\VC\Tools\MSVC\14.28.29333\include\xstring
; File D:\Metin2 Server Files\mainline\SRC_2014\Metin2Client\EterLib\GrpTextInstance.cpp
;	COMDAT ??1CGraphicTextInstance@@UAE@XZ
_TEXT	SEGMENT
__$EHRec$ = -12						; size = 12
??1CGraphicTextInstance@@UAE@XZ PROC			; CGraphicTextInstance::~CGraphicTextInstance, COMDAT
; _this$ = ecx

; 1148 : {

  00000	55		 push	 ebp
  00001	8b ec		 mov	 ebp, esp
  00003	6a ff		 push	 -1
  00005	68 00 00 00 00	 push	 __ehhandler$??1CGraphicTextInstance@@UAE@XZ
  0000a	64 a1 00 00 00
	00		 mov	 eax, DWORD PTR fs:0
  00010	50		 push	 eax
  00011	56		 push	 esi
  00012	a1 00 00 00 00	 mov	 eax, DWORD PTR ___security_cookie
  00017	33 c5		 xor	 eax, ebp
  00019	50		 push	 eax
  0001a	8d 45 f4	 lea	 eax, DWORD PTR __$EHRec$[ebp]
  0001d	64 a3 00 00 00
	00		 mov	 DWORD PTR fs:0, eax
  00023	8b f1		 mov	 esi, ecx
  00025	c7 06 00 00 00
	00		 mov	 DWORD PTR [esi], OFFSET ??_7CGraphicTextInstance@@6B@

; 1149 : 	Destroy();

  0002b	e8 00 00 00 00	 call	 ?Destroy@CGraphicTextInstance@@QAEXXZ ; CGraphicTextInstance::Destroy

; 1150 : }

  00030	8d 4e 64	 lea	 ecx, DWORD PTR [esi+100]
  00033	e8 00 00 00 00	 call	 ??1?$vector@USHyperlink@CGraphicTextInstance@@V?$allocator@USHyperlink@CGraphicTextInstance@@@std@@@std@@QAE@XZ ; std::vector<CGraphicTextInstance::SHyperlink,std::allocator<CGraphicTextInstance::SHyperlink> >::~vector<CGraphicTextInstance::SHyperlink,std::allocator<CGraphicTextInstance::SHyperlink> >
; File C:\Program Files (x86)\Microsoft Visual Studio\2019\Community\VC\Tools\MSVC\14.28.29333\include\vector

; 1694 :         if (_Myfirst) { // destroy and deallocate old array

  00038	8b 4e 58	 mov	 ecx, DWORD PTR [esi+88]
  0003b	85 c9		 test	 ecx, ecx
  0003d	74 27		 je	 SHORT $LN6@CGraphicTe

; 1695 :             _Destroy(_Myfirst, _Mylast);
; 1696 :             _Getal().deallocate(_Myfirst, static_cast<size_type>(_Myend - _Myfirst));

  0003f	8b 46 60	 mov	 eax, DWORD PTR [esi+96]
  00042	2b c1		 sub	 eax, ecx
; File C:\Program Files (x86)\Microsoft Visual Studio\2019\Community\VC\Tools\MSVC\14.28.29333\include\xmemory

; 810  :         _Deallocate<_New_alignof<_Ty>>(_Ptr, sizeof(_Ty) * _Count);

  00044	83 e0 fc	 and	 eax, -4			; fffffffcH
  00047	50		 push	 eax
  00048	51		 push	 ecx
  00049	e8 00 00 00 00	 call	 ??$_Deallocate@$07$0A@@std@@YAXPAXI@Z ; std::_Deallocate<8,0>
; File C:\Program Files (x86)\Microsoft Visual Studio\2019\Community\VC\Tools\MSVC\14.28.29333\include\vector

; 1698 :             _Myfirst = pointer();

  0004e	c7 46 58 00 00
	00 00		 mov	 DWORD PTR [esi+88], 0
; File C:\Program Files (x86)\Microsoft Visual Studio\2019\Community\VC\Tools\MSVC\14.28.29333\include\xmemory

; 810  :         _Deallocate<_New_alignof<_Ty>>(_Ptr, sizeof(_Ty) * _Count);

  00055	83 c4 08	 add	 esp, 8
; File C:\Program Files (x86)\Microsoft Visual Studio\2019\Community\VC\Tools\MSVC\14.28.29333\include\vector

; 1699 :             _Mylast  = pointer();

  00058	c7 46 5c 00 00
	00 00		 mov	 DWORD PTR [esi+92], 0

; 1700 :             _Myend   = pointer();

  0005f	c7 46 60 00 00
	00 00		 mov	 DWORD PTR [esi+96], 0
$LN6@CGraphicTe:

; 1694 :         if (_Myfirst) { // destroy and deallocate old array

  00066	8b 4e 4c	 mov	 ecx, DWORD PTR [esi+76]
  00069	85 c9		 test	 ecx, ecx
  0006b	74 27		 je	 SHORT $LN13@CGraphicTe

; 1695 :             _Destroy(_Myfirst, _Mylast);
; 1696 :             _Getal().deallocate(_Myfirst, static_cast<size_type>(_Myend - _Myfirst));

  0006d	8b 46 54	 mov	 eax, DWORD PTR [esi+84]
  00070	2b c1		 sub	 eax, ecx
; File C:\Program Files (x86)\Microsoft Visual Studio\2019\Community\VC\Tools\MSVC\14.28.29333\include\xmemory

; 810  :         _Deallocate<_New_alignof<_Ty>>(_Ptr, sizeof(_Ty) * _Count);

  00072	83 e0 fc	 and	 eax, -4			; fffffffcH
  00075	50		 push	 eax
  00076	51		 push	 ecx
  00077	e8 00 00 00 00	 call	 ??$_Deallocate@$07$0A@@std@@YAXPAXI@Z ; std::_Deallocate<8,0>
; File C:\Program Files (x86)\Microsoft Visual Studio\2019\Community\VC\Tools\MSVC\14.28.29333\include\vector

; 1698 :             _Myfirst = pointer();

  0007c	c7 46 4c 00 00
	00 00		 mov	 DWORD PTR [esi+76], 0
; File C:\Program Files (x86)\Microsoft Visual Studio\2019\Community\VC\Tools\MSVC\14.28.29333\include\xmemory

; 810  :         _Deallocate<_New_alignof<_Ty>>(_Ptr, sizeof(_Ty) * _Count);

  00083	83 c4 08	 add	 esp, 8
; File C:\Program Files (x86)\Microsoft Visual Studio\2019\Community\VC\Tools\MSVC\14.28.29333\include\vector

; 1699 :             _Mylast  = pointer();

  00086	c7 46 50 00 00
	00 00		 mov	 DWORD PTR [esi+80], 0

; 1700 :             _Myend   = pointer();

  0008d	c7 46 54 00 00
	00 00		 mov	 DWORD PTR [esi+84], 0
$LN13@CGraphicTe:
; File D:\Metin2 Server Files\mainline\SRC_2014\Metin2Client\EterLib\Ref.h

; 53   : 			if (m_pObject)

  00094	8b 4e 48	 mov	 ecx, DWORD PTR [esi+72]

; 37   : 		{

  00097	c7 45 fc 00 00
	00 00		 mov	 DWORD PTR __$EHRec$[ebp+8], 0

; 53   : 			if (m_pObject)

  0009e	85 c9		 test	 ecx, ecx
  000a0	74 0c		 je	 SHORT $LN21@CGraphicTe

; 54   : 			{
; 55   : 				m_pObject->Release();

  000a2	e8 00 00 00 00	 call	 ?Release@CReferenceObject@@QAEXXZ ; CReferenceObject::Release

; 56   : 				m_pObject = NULL;

  000a7	c7 46 48 00 00
	00 00		 mov	 DWORD PTR [esi+72], 0
$LN21@CGraphicTe:
; File C:\Program Files (x86)\Microsoft Visual Studio\2019\Community\VC\Tools\MSVC\14.28.29333\include\xstring

; 2227 :         return _BUF_SIZE <= _Myres;

  000ae	8b 46 34	 mov	 eax, DWORD PTR [esi+52]
  000b1	83 f8 10	 cmp	 eax, 16			; 00000010H

; 4385 :         if (_Mypair._Myval2._Large_string_engaged()) {

  000b4	72 0d		 jb	 SHORT $LN27@CGraphicTe

; 4386 :             const pointer _Ptr = _Mypair._Myval2._Bx._Ptr;
; 4387 :             auto& _Al          = _Getal();
; 4388 :             _Destroy_in_place(_Mypair._Myval2._Bx._Ptr);
; 4389 :             _Al.deallocate(_Ptr, _Mypair._Myval2._Myres + 1);

  000b6	40		 inc	 eax
; File C:\Program Files (x86)\Microsoft Visual Studio\2019\Community\VC\Tools\MSVC\14.28.29333\include\xmemory

; 810  :         _Deallocate<_New_alignof<_Ty>>(_Ptr, sizeof(_Ty) * _Count);

  000b7	50		 push	 eax
  000b8	ff 76 20	 push	 DWORD PTR [esi+32]
  000bb	e8 00 00 00 00	 call	 ??$_Deallocate@$07$0A@@std@@YAXPAXI@Z ; std::_Deallocate<8,0>
  000c0	83 c4 08	 add	 esp, 8
$LN27@CGraphicTe:
; File C:\Program Files (x86)\Microsoft Visual Studio\2019\Community\VC\Tools\MSVC\14.28.29333\include\xstring

; 4392 :         _Mypair._Myval2._Mysize = 0;

  000c3	c7 46 30 00 00
	00 00		 mov	 DWORD PTR [esi+48], 0

; 4393 :         _Mypair._Myval2._Myres  = _BUF_SIZE - 1;

  000ca	c7 46 34 0f 00
	00 00		 mov	 DWORD PTR [esi+52], 15	; 0000000fH

; 4394 :         // the _Traits::assign is last so the codegen doesn't think the char write can alias this
; 4395 :         _Traits::assign(_Mypair._Myval2._Bx._Buf[0], _Elem());

  000d1	c6 46 20 00	 mov	 BYTE PTR [esi+32], 0
; File D:\Metin2 Server Files\mainline\SRC_2014\Metin2Client\EterLib\GrpTextInstance.cpp

; 1150 : }

  000d5	8b 4d f4	 mov	 ecx, DWORD PTR __$EHRec$[ebp]
  000d8	64 89 0d 00 00
	00 00		 mov	 DWORD PTR fs:0, ecx
  000df	59		 pop	 ecx
  000e0	5e		 pop	 esi
  000e1	8b e5		 mov	 esp, ebp
  000e3	5d		 pop	 ebp
  000e4	c3		 ret	 0
  000e5	cc		 int	 3
  000e6	cc		 int	 3
  000e7	cc		 int	 3
  000e8	cc		 int	 3
  000e9	cc		 int	 3
_TEXT	ENDS
;	COMDAT text$x
text$x	SEGMENT
__ehhandler$??1CGraphicTextInstance@@UAE@XZ:
  00000	90		 npad	 1
  00001	90		 npad	 1
  00002	8b 54 24 08	 mov	 edx, DWORD PTR [esp+8]
  00006	8d 42 0c	 lea	 eax, DWORD PTR [edx+12]
  00009	8b 4a f8	 mov	 ecx, DWORD PTR [edx-8]
  0000c	33 c8		 xor	 ecx, eax
  0000e	e8 00 00 00 00	 call	 @__security_check_cookie@4
  00013	b8 00 00 00 00	 mov	 eax, OFFSET __ehfuncinfo$??1CGraphicTextInstance@@UAE@XZ
  00018	e9 00 00 00 00	 jmp	 ___CxxFrameHandler3
text$x	ENDS
??1CGraphicTextInstance@@UAE@XZ ENDP			; CGraphicTextInstance::~CGraphicTextInstance
; Function compile flags: /Ogtp
; File D:\Metin2 Server Files\mainline\SRC_2014\Metin2Client\EterLib\GrpTextInstance.cpp
; File C:\Program Files (x86)\Microsoft Visual Studio\2019\Community\VC\Tools\MSVC\14.28.29333\include\xstring
; File D:\Metin2 Server Files\mainline\SRC_2014\Metin2Client\EterLib\GrpTextInstance.cpp
; File D:\Metin2 Server Files\mainline\SRC_2014\Metin2Client\EterLib\Ref.h
; File C:\Program Files (x86)\Microsoft Visual Studio\2019\Community\VC\Tools\MSVC\14.28.29333\include\vector
; File D:\Metin2 Server Files\mainline\SRC_2014\Metin2Client\EterLib\GrpTextInstance.cpp
;	COMDAT ??0CGraphicTextInstance@@QAE@XZ
_TEXT	SEGMENT
_this$ = -16						; size = 4
__$EHRec$ = -12						; size = 12
??0CGraphicTextInstance@@QAE@XZ PROC			; CGraphicTextInstance::CGraphicTextInstance, COMDAT
; _this$ = ecx

; 1143 : {

  00000	55		 push	 ebp
  00001	8b ec		 mov	 ebp, esp
  00003	6a ff		 push	 -1
  00005	68 00 00 00 00	 push	 __ehhandler$??0CGraphicTextInstance@@QAE@XZ
  0000a	64 a1 00 00 00
	00		 mov	 eax, DWORD PTR fs:0
  00010	50		 push	 eax
  00011	51		 push	 ecx
  00012	56		 push	 esi
  00013	a1 00 00 00 00	 mov	 eax, DWORD PTR ___security_cookie
  00018	33 c5		 xor	 eax, ebp
  0001a	50		 push	 eax
  0001b	8d 45 f4	 lea	 eax, DWORD PTR __$EHRec$[ebp]
  0001e	64 a3 00 00 00
	00		 mov	 DWORD PTR fs:0, eax
  00024	8b f1		 mov	 esi, ecx
  00026	89 75 f0	 mov	 DWORD PTR _this$[ebp], esi
  00029	c7 06 00 00 00
	00		 mov	 DWORD PTR [esi], OFFSET ??_7CGraphicTextInstance@@6B@
; File C:\Program Files (x86)\Microsoft Visual Studio\2019\Community\VC\Tools\MSVC\14.28.29333\include\xstring

; 4377 :         _Mypair._Myval2._Mysize = 0;

  0002f	c7 46 30 00 00
	00 00		 mov	 DWORD PTR [esi+48], 0

; 4378 :         _Mypair._Myval2._Myres  = _BUF_SIZE - 1;

  00036	c7 46 34 0f 00
	00 00		 mov	 DWORD PTR [esi+52], 15	; 0000000fH

; 4379 :         // the _Traits::assign is last so the codegen doesn't think the char write can alias this
; 4380 :         _Traits::assign(_Mypair._Myval2._Bx._Buf[0], _Elem());

  0003d	c6 46 20 00	 mov	 BYTE PTR [esi+32], 0
; File D:\Metin2 Server Files\mainline\SRC_2014\Metin2Client\EterLib\GrpTextInstance.cpp

; 1143 : {

  00041	c7 45 fc 00 00
	00 00		 mov	 DWORD PTR __$EHRec$[ebp+8], 0
; File D:\Metin2 Server Files\mainline\SRC_2014\Metin2Client\EterLib\Ref.h

; 20   : 		CRef() : m_pObject(NULL)

  00048	c7 46 48 00 00
	00 00		 mov	 DWORD PTR [esi+72], 0
; File C:\Program Files (x86)\Microsoft Visual Studio\2019\Community\VC\Tools\MSVC\14.28.29333\include\vector

; 375  :     _Vector_val() noexcept : _Myfirst(), _Mylast(), _Myend() {}

  0004f	c7 46 4c 00 00
	00 00		 mov	 DWORD PTR [esi+76], 0
  00056	c7 46 50 00 00
	00 00		 mov	 DWORD PTR [esi+80], 0
  0005d	c7 46 54 00 00
	00 00		 mov	 DWORD PTR [esi+84], 0
  00064	c7 46 58 00 00
	00 00		 mov	 DWORD PTR [esi+88], 0
  0006b	c7 46 5c 00 00
	00 00		 mov	 DWORD PTR [esi+92], 0
  00072	c7 46 60 00 00
	00 00		 mov	 DWORD PTR [esi+96], 0
  00079	c7 46 64 00 00
	00 00		 mov	 DWORD PTR [esi+100], 0
  00080	c7 46 68 00 00
	00 00		 mov	 DWORD PTR [esi+104], 0
  00087	c7 46 6c 00 00
	00 00		 mov	 DWORD PTR [esi+108], 0
; File D:\Metin2 Server Files\mainline\SRC_2014\Metin2Client\EterLib\GrpTextInstance.cpp

; 1143 : {

  0008e	c6 45 fc 04	 mov	 BYTE PTR __$EHRec$[ebp+8], 4

; 1144 : 	__Initialize();

  00092	e8 00 00 00 00	 call	 ?__Initialize@CGraphicTextInstance@@IAEXXZ ; CGraphicTextInstance::__Initialize

; 1145 : }

  00097	8b c6		 mov	 eax, esi
  00099	8b 4d f4	 mov	 ecx, DWORD PTR __$EHRec$[ebp]
  0009c	64 89 0d 00 00
	00 00		 mov	 DWORD PTR fs:0, ecx
  000a3	59		 pop	 ecx
  000a4	5e		 pop	 esi
  000a5	8b e5		 mov	 esp, ebp
  000a7	5d		 pop	 ebp
  000a8	c3		 ret	 0
_TEXT	ENDS
;	COMDAT text$x
text$x	SEGMENT
__unwindfunclet$??0CGraphicTextInstance@@QAE@XZ$0:
  00000	8b 4d f0	 mov	 ecx, DWORD PTR _this$[ebp]
  00003	83 c1 20	 add	 ecx, 32			; 00000020H
  00006	e9 00 00 00 00	 jmp	 ??1?$basic_string@DU?$char_traits@D@std@@V?$allocator@D@2@@std@@QAE@XZ ; std::basic_string<char,std::char_traits<char>,std::allocator<char> >::~basic_string<char,std::char_traits<char>,std::allocator<char> >
__unwindfunclet$??0CGraphicTextInstance@@QAE@XZ$1:
  0000b	8b 4d f0	 mov	 ecx, DWORD PTR _this$[ebp]
  0000e	83 c1 48	 add	 ecx, 72			; 00000048H
  00011	e9 00 00 00 00	 jmp	 ??1?$CRef@VCGraphicText@@@@QAE@XZ ; CRef<CGraphicText>::~CRef<CGraphicText>
__unwindfunclet$??0CGraphicTextInstance@@QAE@XZ$2:
  00016	8b 4d f0	 mov	 ecx, DWORD PTR _this$[ebp]
  00019	83 c1 4c	 add	 ecx, 76			; 0000004cH
  0001c	e9 00 00 00 00	 jmp	 ??1?$vector@PAUSCharacterInfomation@CGraphicFontTexture@@V?$allocator@PAUSCharacterInfomation@CGraphicFontTexture@@@std@@@std@@QAE@XZ ; std::vector<CGraphicFontTexture::SCharacterInfomation *,std::allocator<CGraphicFontTexture::SCharacterInfomation *> >::~vector<CGraphicFontTexture::SCharacterInfomation *,std::allocator<CGraphicFontTexture::SCharacterInfomation *> >
__unwindfunclet$??0CGraphicTextInstance@@QAE@XZ$3:
  00021	8b 4d f0	 mov	 ecx, DWORD PTR _this$[ebp]
  00024	83 c1 58	 add	 ecx, 88			; 00000058H
  00027	e9 00 00 00 00	 jmp	 ??1?$vector@KV?$allocator@K@std@@@std@@QAE@XZ ; std::vector<unsigned long,std::allocator<unsigned long> >::~vector<unsigned long,std::allocator<unsigned long> >
__unwindfunclet$??0CGraphicTextInstance@@QAE@XZ$4:
  0002c	8b 4d f0	 mov	 ecx, DWORD PTR _this$[ebp]
  0002f	83 c1 64	 add	 ecx, 100		; 00000064H
  00032	e9 00 00 00 00	 jmp	 ??1?$vector@USHyperlink@CGraphicTextInstance@@V?$allocator@USHyperlink@CGraphicTextInstance@@@std@@@std@@QAE@XZ ; std::vector<CGraphicTextInstance::SHyperlink,std::allocator<CGraphicTextInstance::SHyperlink> >::~vector<CGraphicTextInstance::SHyperlink,std::allocator<CGraphicTextInstance::SHyperlink> >
  00037	cc		 int	 3
  00038	cc		 int	 3
  00039	cc		 int	 3
  0003a	cc		 int	 3
  0003b	cc		 int	 3
__ehhandler$??0CGraphicTextInstance@@QAE@XZ:
  0003c	90		 npad	 1
  0003d	90		 npad	 1
  0003e	8b 54 24 08	 mov	 edx, DWORD PTR [esp+8]
  00042	8d 42 0c	 lea	 eax, DWORD PTR [edx+12]
  00045	8b 4a f4	 mov	 ecx, DWORD PTR [edx-12]
  00048	33 c8		 xor	 ecx, eax
  0004a	e8 00 00 00 00	 call	 @__security_check_cookie@4
  0004f	b8 00 00 00 00	 mov	 eax, OFFSET __ehfuncinfo$??0CGraphicTextInstance@@QAE@XZ
  00054	e9 00 00 00 00	 jmp	 ___CxxFrameHandler3
text$x	ENDS
??0CGraphicTextInstance@@QAE@XZ ENDP			; CGraphicTextInstance::CGraphicTextInstance
; Function compile flags: /Ogtp
; File D:\Metin2 Server Files\mainline\SRC_2014\Metin2Client\EterLib\GrpTextInstance.cpp
; File C:\Program Files (x86)\Microsoft Visual Studio\2019\Community\VC\Tools\MSVC\14.28.29333\include\xstring
; File D:\Metin2 Server Files\mainline\SRC_2014\Metin2Client\EterLib\GrpTextInstance.cpp
; File C:\Program Files (x86)\Microsoft Visual Studio\2019\Community\VC\Tools\MSVC\14.28.29333\include\xstring
; File D:\Metin2 Server Files\mainline\SRC_2014\Metin2Client\EterLib\GrpTextInstance.cpp
; File C:\Program Files (x86)\Microsoft Visual Studio\2019\Community\VC\Tools\MSVC\14.28.29333\include\xstring
; File D:\Metin2 Server Files\mainline\SRC_2014\Metin2Client\EterLib\GrpTextInstance.cpp
;	COMDAT ?Hyperlink_GetText@CGraphicTextInstance@@SAHPADH@Z
_TEXT	SEGMENT
_buf$ = 8						; size = 4
_len$ = 12						; size = 4
?Hyperlink_GetText@CGraphicTextInstance@@SAHPADH@Z PROC	; CGraphicTextInstance::Hyperlink_GetText, COMDAT

; 29   : {

  00000	55		 push	 ebp
  00001	8b ec		 mov	 ebp, esp
; File C:\Program Files (x86)\Microsoft Visual Studio\2019\Community\VC\Tools\MSVC\14.28.29333\include\xstring

; 3848 :         return size() == 0;

  00003	83 3d 10 00 00
	00 00		 cmp	 DWORD PTR ?gs_hyperlinkText@@3V?$basic_string@_WU?$char_traits@_W@std@@V?$allocator@_W@2@@std@@A+16, 0
; File D:\Metin2 Server Files\mainline\SRC_2014\Metin2Client\EterLib\GrpTextInstance.cpp

; 30   : 	if (gs_hyperlinkText.empty())

  0000a	75 04		 jne	 SHORT $LN2@Hyperlink_

; 31   : 		return 0;

  0000c	33 c0		 xor	 eax, eax

; 36   : }

  0000e	5d		 pop	 ebp
  0000f	c3		 ret	 0
$LN2@Hyperlink_:

; 32   : 
; 33   : 	int codePage = GetDefaultCodePage();

  00010	e8 00 00 00 00	 call	 ?GetDefaultCodePage@@YAKXZ ; GetDefaultCodePage
; File C:\Program Files (x86)\Microsoft Visual Studio\2019\Community\VC\Tools\MSVC\14.28.29333\include\xstring

; 2227 :         return _BUF_SIZE <= _Myres;

  00015	83 3d 14 00 00
	00 08		 cmp	 DWORD PTR ?gs_hyperlinkText@@3V?$basic_string@_WU?$char_traits@_W@std@@V?$allocator@_W@2@@std@@A+20, 8

; 2218 :         const value_type* _Result = _Bx._Buf;

  0001c	b9 00 00 00 00	 mov	 ecx, OFFSET ?gs_hyperlinkText@@3V?$basic_string@_WU?$char_traits@_W@std@@V?$allocator@_W@2@@std@@A
; File D:\Metin2 Server Files\mainline\SRC_2014\Metin2Client\EterLib\GrpTextInstance.cpp

; 35   : 	return Ymir_WideCharToMultiByte(codePage, 0, gs_hyperlinkText.c_str(), gs_hyperlinkText.length(), buf, len, NULL, NULL);	

  00021	6a 00		 push	 0
; File C:\Program Files (x86)\Microsoft Visual Studio\2019\Community\VC\Tools\MSVC\14.28.29333\include\xstring

; 2219 :         if (_Large_string_engaged()) {

  00023	0f 43 0d 00 00
	00 00		 cmovae	 ecx, DWORD PTR ?gs_hyperlinkText@@3V?$basic_string@_WU?$char_traits@_W@std@@V?$allocator@_W@2@@std@@A
; File D:\Metin2 Server Files\mainline\SRC_2014\Metin2Client\EterLib\GrpTextInstance.cpp

; 35   : 	return Ymir_WideCharToMultiByte(codePage, 0, gs_hyperlinkText.c_str(), gs_hyperlinkText.length(), buf, len, NULL, NULL);	

  0002a	6a 00		 push	 0
  0002c	ff 75 0c	 push	 DWORD PTR _len$[ebp]
  0002f	ff 75 08	 push	 DWORD PTR _buf$[ebp]
  00032	ff 35 10 00 00
	00		 push	 DWORD PTR ?gs_hyperlinkText@@3V?$basic_string@_WU?$char_traits@_W@std@@V?$allocator@_W@2@@std@@A+16
  00038	51		 push	 ecx
  00039	6a 00		 push	 0
  0003b	50		 push	 eax
  0003c	e8 00 00 00 00	 call	 ?Ymir_WideCharToMultiByte@@YAHIKPB_WHPADHPBDPAH@Z ; Ymir_WideCharToMultiByte
  00041	83 c4 20	 add	 esp, 32			; 00000020H

; 36   : }

  00044	5d		 pop	 ebp
  00045	c3		 ret	 0
?Hyperlink_GetText@CGraphicTextInstance@@SAHPADH@Z ENDP	; CGraphicTextInstance::Hyperlink_GetText
_TEXT	ENDS
; Function compile flags: /Ogtp
; File D:\Metin2 Server Files\mainline\SRC_2014\Metin2Client\EterLib\GrpTextInstance.cpp
; File C:\Program Files (x86)\Microsoft Visual Studio\2019\Community\VC\Tools\MSVC\14.28.29333\include\xstring
; File D:\Metin2 Server Files\mainline\SRC_2014\Metin2Client\EterLib\GrpTextInstance.cpp
; File C:\Program Files (x86)\Microsoft Visual Studio\2019\Community\VC\Tools\MSVC\14.28.29333\include\xstring
; File D:\Metin2 Server Files\mainline\SRC_2014\Metin2Client\EterLib\GrpTextInstance.cpp
; File C:\Program Files (x86)\Microsoft Visual Studio\2019\Community\VC\Tools\MSVC\14.28.29333\include\xstring
; File D:\Metin2 Server Files\mainline\SRC_2014\Metin2Client\EterLib\GrpTextInstance.cpp
;	COMDAT ?Hyperlink_UpdateMousePos@CGraphicTextInstance@@SAXHH@Z
_TEXT	SEGMENT
_x$ = 8							; size = 4
_y$ = 12						; size = 4
?Hyperlink_UpdateMousePos@CGraphicTextInstance@@SAXHH@Z PROC ; CGraphicTextInstance::Hyperlink_UpdateMousePos, COMDAT

; 22   : {

  00000	55		 push	 ebp
  00001	8b ec		 mov	 ebp, esp

; 23   : 	gs_mx = x;

  00003	8b 45 08	 mov	 eax, DWORD PTR _x$[ebp]
; File C:\Program Files (x86)\Microsoft Visual Studio\2019\Community\VC\Tools\MSVC\14.28.29333\include\xstring

; 3062 :         return assign(_Ptr, _Convert_size<size_type>(_Traits::length(_Ptr)));

  00006	b9 00 00 00 00	 mov	 ecx, OFFSET ?gs_hyperlinkText@@3V?$basic_string@_WU?$char_traits@_W@std@@V?$allocator@_W@2@@std@@A
  0000b	6a 00		 push	 0
; File D:\Metin2 Server Files\mainline\SRC_2014\Metin2Client\EterLib\GrpTextInstance.cpp

; 23   : 	gs_mx = x;

  0000d	a3 00 00 00 00	 mov	 DWORD PTR ?gs_mx@@3HA, eax

; 24   : 	gs_my = y;

  00012	8b 45 0c	 mov	 eax, DWORD PTR _y$[ebp]
; File C:\Program Files (x86)\Microsoft Visual Studio\2019\Community\VC\Tools\MSVC\14.28.29333\include\xstring

; 3062 :         return assign(_Ptr, _Convert_size<size_type>(_Traits::length(_Ptr)));

  00015	68 00 00 00 00	 push	 OFFSET ??_C@_11LOCGONAA@@
; File D:\Metin2 Server Files\mainline\SRC_2014\Metin2Client\EterLib\GrpTextInstance.cpp

; 24   : 	gs_my = y;

  0001a	a3 00 00 00 00	 mov	 DWORD PTR ?gs_my@@3HA, eax
; File C:\Program Files (x86)\Microsoft Visual Studio\2019\Community\VC\Tools\MSVC\14.28.29333\include\xstring

; 3062 :         return assign(_Ptr, _Convert_size<size_type>(_Traits::length(_Ptr)));

  0001f	e8 00 00 00 00	 call	 ?assign@?$basic_string@_WU?$char_traits@_W@std@@V?$allocator@_W@2@@std@@QAEAAV12@QB_WI@Z ; std::basic_string<wchar_t,std::char_traits<wchar_t>,std::allocator<wchar_t> >::assign
; File D:\Metin2 Server Files\mainline\SRC_2014\Metin2Client\EterLib\GrpTextInstance.cpp

; 26   : }

  00024	5d		 pop	 ebp
  00025	c3		 ret	 0
?Hyperlink_UpdateMousePos@CGraphicTextInstance@@SAXHH@Z ENDP ; CGraphicTextInstance::Hyperlink_UpdateMousePos
_TEXT	ENDS
; Function compile flags: /Ogtp
;	COMDAT ??0SPDTVertex@@QAE@XZ
_TEXT	SEGMENT
??0SPDTVertex@@QAE@XZ PROC				; SPDTVertex::SPDTVertex, COMDAT
; _this$ = ecx
  00000	8b c1		 mov	 eax, ecx
  00002	c3		 ret	 0
??0SPDTVertex@@QAE@XZ ENDP				; SPDTVertex::SPDTVertex
_TEXT	ENDS
; Function compile flags: /Ogtp
; File C:\Program Files (x86)\Microsoft Visual Studio\2019\Community\VC\Tools\MSVC\14.28.29333\include\xmemory
;	COMDAT ??$_Allocate_manually_vector_aligned@U_Default_allocate_traits@std@@@std@@YAPAXI@Z
_TEXT	SEGMENT
__Bytes$ = 8						; size = 4
??$_Allocate_manually_vector_aligned@U_Default_allocate_traits@std@@@std@@YAPAXI@Z PROC ; std::_Allocate_manually_vector_aligned<std::_Default_allocate_traits>, COMDAT

; 113  : __declspec(allocator) void* _Allocate_manually_vector_aligned(const size_t _Bytes) {

  00000	55		 push	 ebp
  00001	8b ec		 mov	 ebp, esp

; 114  :     // allocate _Bytes manually aligned to at least _Big_allocation_alignment
; 115  :     const size_t _Block_size = _Non_user_size + _Bytes;

  00003	8b 45 08	 mov	 eax, DWORD PTR __Bytes$[ebp]
  00006	8d 48 23	 lea	 ecx, DWORD PTR [eax+35]

; 116  :     if (_Block_size <= _Bytes) {

  00009	3b c8		 cmp	 ecx, eax
  0000b	0f 86 00 00 00
	00		 jbe	 ?_Throw_bad_array_new_length@std@@YAXXZ ; std::_Throw_bad_array_new_length

; 77   :         return ::operator new(_Bytes);

  00011	51		 push	 ecx
  00012	e8 00 00 00 00	 call	 ??2@YAPAXI@Z		; operator new

; 117  :         _Throw_bad_array_new_length(); // add overflow
; 118  :     }
; 119  : 
; 120  :     const uintptr_t _Ptr_container = reinterpret_cast<uintptr_t>(_Traits::_Allocate(_Block_size));

  00017	8b c8		 mov	 ecx, eax

; 77   :         return ::operator new(_Bytes);

  00019	83 c4 04	 add	 esp, 4

; 121  :     _STL_VERIFY(_Ptr_container != 0, "invalid argument"); // validate even in release since we're doing p[-1]

  0001c	85 c9		 test	 ecx, ecx
  0001e	74 0b		 je	 SHORT $LN7@Allocate_m

; 122  :     void* const _Ptr = reinterpret_cast<void*>((_Ptr_container + _Non_user_size) & ~(_Big_allocation_alignment - 1));

  00020	8d 41 23	 lea	 eax, DWORD PTR [ecx+35]
  00023	83 e0 e0	 and	 eax, -32		; ffffffe0H

; 123  :     static_cast<uintptr_t*>(_Ptr)[-1] = _Ptr_container;

  00026	89 48 fc	 mov	 DWORD PTR [eax-4], ecx

; 124  : 
; 125  : #ifdef _DEBUG
; 126  :     static_cast<uintptr_t*>(_Ptr)[-2] = _Big_allocation_sentinel;
; 127  : #endif // _DEBUG
; 128  :     return _Ptr;
; 129  : }

  00029	5d		 pop	 ebp
  0002a	c3		 ret	 0
$LN7@Allocate_m:

; 121  :     _STL_VERIFY(_Ptr_container != 0, "invalid argument"); // validate even in release since we're doing p[-1]

  0002b	e9 00 00 00 00	 jmp	 __invalid_parameter_noinfo_noreturn
??$_Allocate_manually_vector_aligned@U_Default_allocate_traits@std@@@std@@YAPAXI@Z ENDP ; std::_Allocate_manually_vector_aligned<std::_Default_allocate_traits>
_TEXT	ENDS
; Function compile flags: /Ogtp
; File C:\Program Files (x86)\Microsoft Visual Studio\2019\Community\VC\Tools\MSVC\14.28.29333\include\xmemory
;	COMDAT ??$_Construct_in_place@PA_WABQA_W@std@@YAXAAPA_WABQA_W@Z
_TEXT	SEGMENT
__Obj$ = 8						; size = 4
_<_Args_0>$ = 12					; size = 4
??$_Construct_in_place@PA_WABQA_W@std@@YAXAAPA_WABQA_W@Z PROC ; std::_Construct_in_place<wchar_t *,wchar_t * const &>, COMDAT

; 228  : void _Construct_in_place(_Ty& _Obj, _Types&&... _Args) noexcept(is_nothrow_constructible_v<_Ty, _Types...>) {

  00000	55		 push	 ebp
  00001	8b ec		 mov	 ebp, esp

; 229  :     ::new (const_cast<void*>(static_cast<const volatile void*>(_STD addressof(_Obj))))

  00003	8b 45 0c	 mov	 eax, DWORD PTR _<_Args_0>$[ebp]
  00006	8b 08		 mov	 ecx, DWORD PTR [eax]
  00008	8b 45 08	 mov	 eax, DWORD PTR __Obj$[ebp]
  0000b	89 08		 mov	 DWORD PTR [eax], ecx

; 230  :         _Ty(_STD forward<_Types>(_Args)...);
; 231  : }

  0000d	5d		 pop	 ebp
  0000e	c3		 ret	 0
??$_Construct_in_place@PA_WABQA_W@std@@YAXAAPA_WABQA_W@Z ENDP ; std::_Construct_in_place<wchar_t *,wchar_t * const &>
_TEXT	ENDS
; Function compile flags: /Ogtp
; File C:\Program Files (x86)\Microsoft Visual Studio\2019\Community\VC\Tools\MSVC\14.28.29333\include\xmemory
;	COMDAT ??$_Allocate@$07U_Default_allocate_traits@std@@$0A@@std@@YAPAXI@Z
_TEXT	SEGMENT
__Bytes$ = 8						; size = 4
??$_Allocate@$07U_Default_allocate_traits@std@@$0A@@std@@YAPAXI@Z PROC ; std::_Allocate<8,std::_Default_allocate_traits,0>, COMDAT

; 197  : __declspec(allocator) void* _Allocate(const size_t _Bytes) {

  00000	55		 push	 ebp
  00001	8b ec		 mov	 ebp, esp

; 198  :     // allocate _Bytes when !_HAS_ALIGNED_NEW || _Align <= __STDCPP_DEFAULT_NEW_ALIGNMENT__
; 199  : #if defined(_M_IX86) || defined(_M_X64)
; 200  :     if (_Bytes >= _Big_allocation_threshold) { // boost the alignment of big allocations to help autovectorization

  00003	8b 45 08	 mov	 eax, DWORD PTR __Bytes$[ebp]
  00006	3d 00 10 00 00	 cmp	 eax, 4096		; 00001000H
  0000b	72 09		 jb	 SHORT $LN2@Allocate

; 201  :         return _Allocate_manually_vector_aligned<_Traits>(_Bytes);

  0000d	89 45 08	 mov	 DWORD PTR __Bytes$[ebp], eax

; 210  : }

  00010	5d		 pop	 ebp

; 201  :         return _Allocate_manually_vector_aligned<_Traits>(_Bytes);

  00011	e9 00 00 00 00	 jmp	 ??$_Allocate_manually_vector_aligned@U_Default_allocate_traits@std@@@std@@YAPAXI@Z ; std::_Allocate_manually_vector_aligned<std::_Default_allocate_traits>
$LN2@Allocate:

; 202  :     }
; 203  : #endif // defined(_M_IX86) || defined(_M_X64)
; 204  : 
; 205  :     if (_Bytes != 0) {

  00016	85 c0		 test	 eax, eax
  00018	74 09		 je	 SHORT $LN3@Allocate

; 77   :         return ::operator new(_Bytes);

  0001a	89 45 08	 mov	 DWORD PTR __Bytes$[ebp], eax

; 210  : }

  0001d	5d		 pop	 ebp

; 77   :         return ::operator new(_Bytes);

  0001e	e9 00 00 00 00	 jmp	 ??2@YAPAXI@Z		; operator new
$LN3@Allocate:

; 206  :         return _Traits::_Allocate(_Bytes);
; 207  :     }
; 208  : 
; 209  :     return nullptr;

  00023	33 c0		 xor	 eax, eax

; 210  : }

  00025	5d		 pop	 ebp
  00026	c3		 ret	 0
??$_Allocate@$07U_Default_allocate_traits@std@@$0A@@std@@YAPAXI@Z ENDP ; std::_Allocate<8,std::_Default_allocate_traits,0>
_TEXT	ENDS
; Function compile flags: /Ogtp
; File C:\Program Files (x86)\Microsoft Visual Studio\2019\Community\VC\Tools\MSVC\14.28.29333\include\xmemory
;	COMDAT ??$_Deallocate@$07$0A@@std@@YAXPAXI@Z
_TEXT	SEGMENT
__Ptr$ = 8						; size = 4
__Bytes$ = 12						; size = 4
??$_Deallocate@$07$0A@@std@@YAXPAXI@Z PROC		; std::_Deallocate<8,0>, COMDAT

; 213  : void _Deallocate(void* _Ptr, size_t _Bytes) noexcept {

  00000	55		 push	 ebp
  00001	8b ec		 mov	 ebp, esp

; 214  :     // deallocate storage allocated by _Allocate when !_HAS_ALIGNED_NEW || _Align <= __STDCPP_DEFAULT_NEW_ALIGNMENT__
; 215  : #if defined(_M_IX86) || defined(_M_X64)
; 216  :     if (_Bytes >= _Big_allocation_threshold) { // boost the alignment of big allocations to help autovectorization

  00003	8b 4d 0c	 mov	 ecx, DWORD PTR __Bytes$[ebp]
  00006	81 f9 00 10 00
	00		 cmp	 ecx, 4096		; 00001000H
  0000c	72 18		 jb	 SHORT $LN15@Deallocate

; 137  :     const uintptr_t _Ptr_container   = _Ptr_user[-1];

  0000e	8b 45 08	 mov	 eax, DWORD PTR __Ptr$[ebp]
  00011	83 c1 23	 add	 ecx, 35			; 00000023H
  00014	8b 50 fc	 mov	 edx, DWORD PTR [eax-4]

; 138  : 
; 139  :     // If the following asserts, it likely means that we are performing
; 140  :     // an aligned delete on memory coming from an unaligned allocation.
; 141  :     _STL_ASSERT(_Ptr_user[-2] == _Big_allocation_sentinel, "invalid argument");
; 142  : 
; 143  :     // Extra paranoia on aligned allocation/deallocation; ensure _Ptr_container is
; 144  :     // in range [_Min_back_shift, _Non_user_size]
; 145  : #ifdef _DEBUG
; 146  :     constexpr uintptr_t _Min_back_shift = 2 * sizeof(void*);
; 147  : #else // ^^^ _DEBUG ^^^ // vvv !_DEBUG vvv
; 148  :     constexpr uintptr_t _Min_back_shift = sizeof(void*);
; 149  : #endif // _DEBUG
; 150  :     const uintptr_t _Back_shift = reinterpret_cast<uintptr_t>(_Ptr) - _Ptr_container;

  00017	2b c2		 sub	 eax, edx

; 151  :     _STL_VERIFY(_Back_shift >= _Min_back_shift && _Back_shift <= _Non_user_size, "invalid argument");

  00019	83 c0 fc	 add	 eax, -4			; fffffffcH
  0001c	83 f8 1f	 cmp	 eax, 31			; 0000001fH
  0001f	76 08		 jbe	 SHORT $LN13@Deallocate
  00021	e9 00 00 00 00	 jmp	 __invalid_parameter_noinfo_noreturn
$LN15@Deallocate:

; 214  :     // deallocate storage allocated by _Allocate when !_HAS_ALIGNED_NEW || _Align <= __STDCPP_DEFAULT_NEW_ALIGNMENT__
; 215  : #if defined(_M_IX86) || defined(_M_X64)
; 216  :     if (_Bytes >= _Big_allocation_threshold) { // boost the alignment of big allocations to help autovectorization

  00026	8b 55 08	 mov	 edx, DWORD PTR __Ptr$[ebp]
$LN13@Deallocate:

; 217  :         _Adjust_manually_vector_aligned(_Ptr, _Bytes);
; 218  :     }
; 219  : #endif // defined(_M_IX86) || defined(_M_X64)
; 220  : 
; 221  :     ::operator delete(_Ptr, _Bytes);

  00029	89 4d 0c	 mov	 DWORD PTR __Bytes$[ebp], ecx
  0002c	89 55 08	 mov	 DWORD PTR __Ptr$[ebp], edx

; 222  : }

  0002f	5d		 pop	 ebp

; 217  :         _Adjust_manually_vector_aligned(_Ptr, _Bytes);
; 218  :     }
; 219  : #endif // defined(_M_IX86) || defined(_M_X64)
; 220  : 
; 221  :     ::operator delete(_Ptr, _Bytes);

  00030	e9 00 00 00 00	 jmp	 ??3@YAXPAXI@Z		; operator delete
??$_Deallocate@$07$0A@@std@@YAXPAXI@Z ENDP		; std::_Deallocate<8,0>
_TEXT	ENDS
; Function compile flags: /Ogtp
; File C:\Program Files (x86)\Microsoft Visual Studio\2019\Community\VC\Tools\MSVC\14.28.29333\include\xmemory
;	COMDAT ??$_Construct_in_place@PADABQAD@std@@YAXAAPADABQAD@Z
_TEXT	SEGMENT
__Obj$ = 8						; size = 4
_<_Args_0>$ = 12					; size = 4
??$_Construct_in_place@PADABQAD@std@@YAXAAPADABQAD@Z PROC ; std::_Construct_in_place<char *,char * const &>, COMDAT

; 228  : void _Construct_in_place(_Ty& _Obj, _Types&&... _Args) noexcept(is_nothrow_constructible_v<_Ty, _Types...>) {

  00000	55		 push	 ebp
  00001	8b ec		 mov	 ebp, esp

; 229  :     ::new (const_cast<void*>(static_cast<const volatile void*>(_STD addressof(_Obj))))

  00003	8b 45 0c	 mov	 eax, DWORD PTR _<_Args_0>$[ebp]
  00006	8b 08		 mov	 ecx, DWORD PTR [eax]
  00008	8b 45 08	 mov	 eax, DWORD PTR __Obj$[ebp]
  0000b	89 08		 mov	 DWORD PTR [eax], ecx

; 230  :         _Ty(_STD forward<_Types>(_Args)...);
; 231  : }

  0000d	5d		 pop	 ebp
  0000e	c3		 ret	 0
??$_Construct_in_place@PADABQAD@std@@YAXAAPADABQAD@Z ENDP ; std::_Construct_in_place<char *,char * const &>
_TEXT	ENDS
; Function compile flags: /Ogtp
; File C:\Program Files (x86)\Microsoft Visual Studio\2019\Community\VC\Tools\MSVC\14.28.29333\include\xmemory
;	COMDAT ??$_Destroy_in_place@PAD@std@@YAXAAPAD@Z
_TEXT	SEGMENT
__Obj$ = 8						; size = 4
??$_Destroy_in_place@PAD@std@@YAXAAPAD@Z PROC		; std::_Destroy_in_place<char *>, COMDAT

; 271  : #if _HAS_IF_CONSTEXPR
; 272  :     if constexpr (is_array_v<_Ty>) {
; 273  :         _Destroy_range(_Obj, _Obj + extent_v<_Ty>);
; 274  :     } else
; 275  : #endif // _HAS_IF_CONSTEXPR
; 276  :     {
; 277  :         _Obj.~_Ty();
; 278  :     }
; 279  : }

  00000	c2 00 00	 ret	 0
??$_Destroy_in_place@PAD@std@@YAXAAPAD@Z ENDP		; std::_Destroy_in_place<char *>
_TEXT	ENDS
; Function compile flags: /Ogtp
; File C:\Program Files (x86)\Microsoft Visual Studio\2019\Community\VC\Tools\MSVC\14.28.29333\include\xmemory
;	COMDAT ??$_Destroy_in_place@PA_W@std@@YAXAAPA_W@Z
_TEXT	SEGMENT
__Obj$ = 8						; size = 4
??$_Destroy_in_place@PA_W@std@@YAXAAPA_W@Z PROC		; std::_Destroy_in_place<wchar_t *>, COMDAT

; 271  : #if _HAS_IF_CONSTEXPR
; 272  :     if constexpr (is_array_v<_Ty>) {
; 273  :         _Destroy_range(_Obj, _Obj + extent_v<_Ty>);
; 274  :     } else
; 275  : #endif // _HAS_IF_CONSTEXPR
; 276  :     {
; 277  :         _Obj.~_Ty();
; 278  :     }
; 279  : }

  00000	c2 00 00	 ret	 0
??$_Destroy_in_place@PA_W@std@@YAXAAPA_W@Z ENDP		; std::_Destroy_in_place<wchar_t *>
_TEXT	ENDS
; Function compile flags: /Ogtp
; File C:\Program Files (x86)\Microsoft Visual Studio\2019\Community\VC\Tools\MSVC\14.28.29333\include\xstring
; File C:\Program Files (x86)\Microsoft Visual Studio\2019\Community\VC\Tools\MSVC\14.28.29333\include\utility
; File C:\Program Files (x86)\Microsoft Visual Studio\2019\Community\VC\Tools\MSVC\14.28.29333\include\xstring
; File C:\Program Files (x86)\Microsoft Visual Studio\2019\Community\VC\Tools\MSVC\14.28.29333\include\xmemory
; File C:\Program Files (x86)\Microsoft Visual Studio\2019\Community\VC\Tools\MSVC\14.28.29333\include\xstring
; File C:\Program Files (x86)\Microsoft Visual Studio\2019\Community\VC\Tools\MSVC\14.28.29333\include\xmemory
; File C:\Program Files (x86)\Microsoft Visual Studio\2019\Community\VC\Tools\MSVC\14.28.29333\include\xstring
; File C:\Program Files (x86)\Microsoft Visual Studio\2019\Community\VC\Tools\MSVC\14.28.29333\include\xmemory
; File C:\Program Files (x86)\Microsoft Visual Studio\2019\Community\VC\Tools\MSVC\14.28.29333\include\xstring
;	COMDAT ?assign@?$basic_string@_WU?$char_traits@_W@std@@V?$allocator@_W@2@@std@@QAEAAV12@QB_WI@Z
_TEXT	SEGMENT
__New_ptr$1 = -4					; size = 4
__Ptr$ = 8						; size = 4
__Result$1$ = 12					; size = 4
__Count$ = 12						; size = 4
?assign@?$basic_string@_WU?$char_traits@_W@std@@V?$allocator@_W@2@@std@@QAEAAV12@QB_WI@Z PROC ; std::basic_string<wchar_t,std::char_traits<wchar_t>,std::allocator<wchar_t> >::assign, COMDAT
; _this$ = ecx

; 3042 :     basic_string& assign(_In_reads_(_Count) const _Elem* const _Ptr, _CRT_GUARDOVERFLOW const size_type _Count) {

  00000	55		 push	 ebp
  00001	8b ec		 mov	 ebp, esp
  00003	51		 push	 ecx

; 3043 :         // assign [_Ptr, _Ptr + _Count)
; 3044 :         if (_Count <= _Mypair._Myval2._Myres) {

  00004	8b 45 0c	 mov	 eax, DWORD PTR __Count$[ebp]
  00007	53		 push	 ebx
  00008	56		 push	 esi
  00009	57		 push	 edi
  0000a	8b f9		 mov	 edi, ecx
  0000c	8b 5f 14	 mov	 ebx, DWORD PTR [edi+20]
  0000f	3b c3		 cmp	 eax, ebx
  00011	77 34		 ja	 SHORT $LN2@assign

; 2209 :         value_type* _Result = _Bx._Buf;

  00013	89 7d 0c	 mov	 DWORD PTR __Result$1$[ebp], edi

; 2227 :         return _BUF_SIZE <= _Myres;

  00016	83 fb 08	 cmp	 ebx, 8

; 2210 :         if (_Large_string_engaged()) {

  00019	72 05		 jb	 SHORT $LN5@assign

; 2211 :             _Result = _Unfancy(_Bx._Ptr);

  0001b	8b 0f		 mov	 ecx, DWORD PTR [edi]
  0001d	89 4d 0c	 mov	 DWORD PTR __Result$1$[ebp], ecx
$LN5@assign:

; 119  :         _CSTD memmove(_First1, _First2, _Count * sizeof(_Elem));

  00020	8d 34 00	 lea	 esi, DWORD PTR [eax+eax]

; 3045 :             _Elem* const _Old_ptr   = _Mypair._Myval2._Myptr();
; 3046 :             _Mypair._Myval2._Mysize = _Count;

  00023	89 47 10	 mov	 DWORD PTR [edi+16], eax

; 119  :         _CSTD memmove(_First1, _First2, _Count * sizeof(_Elem));

  00026	56		 push	 esi
  00027	ff 75 08	 push	 DWORD PTR __Ptr$[ebp]
  0002a	51		 push	 ecx
  0002b	e8 00 00 00 00	 call	 _memmove

; 3047 :             _Traits::move(_Old_ptr, _Ptr, _Count);
; 3048 :             _Traits::assign(_Old_ptr[_Count], _Elem());

  00030	8b 45 0c	 mov	 eax, DWORD PTR __Result$1$[ebp]

; 119  :         _CSTD memmove(_First1, _First2, _Count * sizeof(_Elem));

  00033	83 c4 0c	 add	 esp, 12			; 0000000cH

; 3047 :             _Traits::move(_Old_ptr, _Ptr, _Count);
; 3048 :             _Traits::assign(_Old_ptr[_Count], _Elem());

  00036	33 c9		 xor	 ecx, ecx
  00038	66 89 0c 06	 mov	 WORD PTR [esi+eax], cx

; 3059 :     }

  0003c	8b c7		 mov	 eax, edi
  0003e	5f		 pop	 edi
  0003f	5e		 pop	 esi
  00040	5b		 pop	 ebx
  00041	8b e5		 mov	 esp, ebp
  00043	5d		 pop	 ebp
  00044	c2 08 00	 ret	 8
$LN2@assign:

; 4305 :         if (_New_size > max_size()) {

  00047	3d fe ff ff 7f	 cmp	 eax, 2147483646		; 7ffffffeH
  0004c	0f 87 a6 00 00
	00		 ja	 $LN42@assign

; 4285 :         const size_type _Masked = _Requested | _ALLOC_MASK;

  00052	8b f0		 mov	 esi, eax
  00054	83 ce 07	 or	 esi, 7
  00057	81 fe fe ff ff
	7f		 cmp	 esi, 2147483646		; 7ffffffeH

; 4286 :         if (_Masked > _Max) { // the mask overflows, settle for max_size()

  0005d	77 23		 ja	 SHORT $LN39@assign

; 4287 :             return _Max;
; 4288 :         }
; 4289 : 
; 4290 :         if (_Old > _Max - _Old / 2) { // similarly, geometric overflows

  0005f	8b cb		 mov	 ecx, ebx
  00061	b8 fe ff ff 7f	 mov	 eax, 2147483646		; 7ffffffeH
  00066	d1 e9		 shr	 ecx, 1
  00068	2b c1		 sub	 eax, ecx
  0006a	3b d8		 cmp	 ebx, eax
  0006c	77 14		 ja	 SHORT $LN39@assign

; 4291 :             return _Max;
; 4292 :         }
; 4293 : 
; 4294 :         return (_STD max)(_Masked, _Old + _Old / 2);

  0006e	8d 04 19	 lea	 eax, DWORD PTR [ecx+ebx]
; File C:\Program Files (x86)\Microsoft Visual Studio\2019\Community\VC\Tools\MSVC\14.28.29333\include\utility

; 44   :     return _Left < _Right ? _Right : _Left;

  00071	3b f0		 cmp	 esi, eax
  00073	0f 42 f0	 cmovb	 esi, eax
; File C:\Program Files (x86)\Microsoft Visual Studio\2019\Community\VC\Tools\MSVC\14.28.29333\include\xstring

; 4312 :         const pointer _New_ptr        = _Al.allocate(_New_capacity + 1); // throws

  00076	8d 46 01	 lea	 eax, DWORD PTR [esi+1]
; File C:\Program Files (x86)\Microsoft Visual Studio\2019\Community\VC\Tools\MSVC\14.28.29333\include\xmemory

; 60   :         if (_Count > _Max_possible) {

  00079	3d ff ff ff 7f	 cmp	 eax, 2147483647		; 7fffffffH
  0007e	77 7d		 ja	 SHORT $LN43@assign
  00080	eb 0a		 jmp	 SHORT $LN27@assign
$LN39@assign:

; 62   :         }
; 63   :     }
; 64   : 
; 65   :     return _Count * _Ty_size;

  00082	be fe ff ff 7f	 mov	 esi, 2147483646		; 7ffffffeH
  00087	b8 ff ff ff 7f	 mov	 eax, 2147483647		; 7fffffffH
$LN27@assign:
  0008c	03 c0		 add	 eax, eax

; 814  :         return static_cast<_Ty*>(_Allocate<_New_alignof<_Ty>>(_Get_size_of_n<sizeof(_Ty)>(_Count)));

  0008e	50		 push	 eax
  0008f	e8 00 00 00 00	 call	 ??$_Allocate@$07U_Default_allocate_traits@std@@$0A@@std@@YAPAXI@Z ; std::_Allocate<8,std::_Default_allocate_traits,0>
; File C:\Program Files (x86)\Microsoft Visual Studio\2019\Community\VC\Tools\MSVC\14.28.29333\include\xstring

; 4314 :         _Mypair._Myval2._Mysize = _New_size;

  00094	8b 4d 0c	 mov	 ecx, DWORD PTR __Count$[ebp]

; 4315 :         _Mypair._Myval2._Myres  = _New_capacity;

  00097	89 77 14	 mov	 DWORD PTR [edi+20], esi
  0009a	89 45 fc	 mov	 DWORD PTR __New_ptr$1[ebp], eax
  0009d	89 4f 10	 mov	 DWORD PTR [edi+16], ecx

; 62   :         _CSTD memcpy(_First1, _First2, _Count * sizeof(_Elem));

  000a0	8d 34 09	 lea	 esi, DWORD PTR [ecx+ecx]
  000a3	56		 push	 esi
  000a4	ff 75 08	 push	 DWORD PTR __Ptr$[ebp]
  000a7	50		 push	 eax
  000a8	e8 00 00 00 00	 call	 _memcpy

; 3056 :                 _Traits::assign(_New_ptr[_Count], _Elem());

  000ad	8b 45 fc	 mov	 eax, DWORD PTR __New_ptr$1[ebp]
  000b0	33 c9		 xor	 ecx, ecx

; 62   :         _CSTD memcpy(_First1, _First2, _Count * sizeof(_Elem));

  000b2	83 c4 10	 add	 esp, 16			; 00000010H

; 3056 :                 _Traits::assign(_New_ptr[_Count], _Elem());

  000b5	66 89 0c 06	 mov	 WORD PTR [esi+eax], cx

; 4317 :         if (_BUF_SIZE <= _Old_capacity) {

  000b9	83 fb 08	 cmp	 ebx, 8
  000bc	72 22		 jb	 SHORT $LN13@assign
; File C:\Program Files (x86)\Microsoft Visual Studio\2019\Community\VC\Tools\MSVC\14.28.29333\include\xmemory

; 810  :         _Deallocate<_New_alignof<_Ty>>(_Ptr, sizeof(_Ty) * _Count);

  000be	8d 04 5d 02 00
	00 00		 lea	 eax, DWORD PTR [ebx*2+2]
  000c5	50		 push	 eax
  000c6	ff 37		 push	 DWORD PTR [edi]
  000c8	e8 00 00 00 00	 call	 ??$_Deallocate@$07$0A@@std@@YAXPAXI@Z ; std::_Deallocate<8,0>
; File C:\Program Files (x86)\Microsoft Visual Studio\2019\Community\VC\Tools\MSVC\14.28.29333\include\xstring

; 4319 :             _Mypair._Myval2._Bx._Ptr = _New_ptr;

  000cd	8b 45 fc	 mov	 eax, DWORD PTR __New_ptr$1[ebp]

; 3059 :     }

  000d0	83 c4 08	 add	 esp, 8

; 4319 :             _Mypair._Myval2._Bx._Ptr = _New_ptr;

  000d3	89 07		 mov	 DWORD PTR [edi], eax

; 3059 :     }

  000d5	8b c7		 mov	 eax, edi
  000d7	5f		 pop	 edi
  000d8	5e		 pop	 esi
  000d9	5b		 pop	 ebx
  000da	8b e5		 mov	 esp, ebp
  000dc	5d		 pop	 ebp
  000dd	c2 08 00	 ret	 8
$LN13@assign:

; 4321 :             _Construct_in_place(_Mypair._Myval2._Bx._Ptr, _New_ptr);

  000e0	8d 45 fc	 lea	 eax, DWORD PTR __New_ptr$1[ebp]
  000e3	50		 push	 eax
  000e4	57		 push	 edi
  000e5	e8 00 00 00 00	 call	 ??$_Construct_in_place@PA_WABQA_W@std@@YAXAAPA_WABQA_W@Z ; std::_Construct_in_place<wchar_t *,wchar_t * const &>

; 3059 :     }

  000ea	83 c4 08	 add	 esp, 8
  000ed	8b c7		 mov	 eax, edi
  000ef	5f		 pop	 edi
  000f0	5e		 pop	 esi
  000f1	5b		 pop	 ebx
  000f2	8b e5		 mov	 esp, ebp
  000f4	5d		 pop	 ebp
  000f5	c2 08 00	 ret	 8
$LN42@assign:

; 4306 :             _Xlen_string(); // result too long

  000f8	e8 00 00 00 00	 call	 ?_Xlen_string@std@@YAXXZ ; std::_Xlen_string
$LN43@assign:
; File C:\Program Files (x86)\Microsoft Visual Studio\2019\Community\VC\Tools\MSVC\14.28.29333\include\xmemory

; 61   :             _Throw_bad_array_new_length(); // multiply overflow

  000fd	e8 00 00 00 00	 call	 ?_Throw_bad_array_new_length@std@@YAXXZ ; std::_Throw_bad_array_new_length
$LN38@assign:
  00102	cc		 int	 3
?assign@?$basic_string@_WU?$char_traits@_W@std@@V?$allocator@_W@2@@std@@QAEAAV12@QB_WI@Z ENDP ; std::basic_string<wchar_t,std::char_traits<wchar_t>,std::allocator<wchar_t> >::assign
_TEXT	ENDS
; Function compile flags: /Ogtp
; File C:\Program Files (x86)\Microsoft Visual Studio\2019\Community\VC\Tools\MSVC\14.28.29333\include\xstring
; File C:\Program Files (x86)\Windows Kits\10\Include\10.0.18362.0\ucrt\wchar.h
; File C:\Program Files (x86)\Microsoft Visual Studio\2019\Community\VC\Tools\MSVC\14.28.29333\include\xstring
; File C:\Program Files (x86)\Microsoft Visual Studio\2019\Community\VC\Tools\MSVC\14.28.29333\include\xmemory
; File C:\Program Files (x86)\Microsoft Visual Studio\2019\Community\VC\Tools\MSVC\14.28.29333\include\xstring
; File C:\Program Files (x86)\Microsoft Visual Studio\2019\Community\VC\Tools\MSVC\14.28.29333\include\xmemory
; File C:\Program Files (x86)\Microsoft Visual Studio\2019\Community\VC\Tools\MSVC\14.28.29333\include\xstring
; File C:\Program Files (x86)\Windows Kits\10\Include\10.0.18362.0\ucrt\wchar.h
; File C:\Program Files (x86)\Microsoft Visual Studio\2019\Community\VC\Tools\MSVC\14.28.29333\include\xstring
; File C:\Program Files (x86)\Microsoft Visual Studio\2019\Community\VC\Tools\MSVC\14.28.29333\include\xmemory
; File C:\Program Files (x86)\Microsoft Visual Studio\2019\Community\VC\Tools\MSVC\14.28.29333\include\xstring
; File C:\Program Files (x86)\Microsoft Visual Studio\2019\Community\VC\Tools\MSVC\14.28.29333\include\utility
; File C:\Program Files (x86)\Microsoft Visual Studio\2019\Community\VC\Tools\MSVC\14.28.29333\include\xstring
; File C:\Program Files (x86)\Microsoft Visual Studio\2019\Community\VC\Tools\MSVC\14.28.29333\include\xmemory
; File C:\Program Files (x86)\Microsoft Visual Studio\2019\Community\VC\Tools\MSVC\14.28.29333\include\xstring
; File C:\Program Files (x86)\Windows Kits\10\Include\10.0.18362.0\ucrt\wchar.h
; File C:\Program Files (x86)\Microsoft Visual Studio\2019\Community\VC\Tools\MSVC\14.28.29333\include\xstring
; File C:\Program Files (x86)\Microsoft Visual Studio\2019\Community\VC\Tools\MSVC\14.28.29333\include\xmemory
; File C:\Program Files (x86)\Microsoft Visual Studio\2019\Community\VC\Tools\MSVC\14.28.29333\include\xstring
;	COMDAT ?append@?$basic_string@_WU?$char_traits@_W@std@@V?$allocator@_W@2@@std@@QAEAAV12@I_W@Z
_TEXT	SEGMENT
__Old_ptr$1$ = -16					; size = 4
__Old_size$1$ = -16					; size = 4
tv488 = -12						; size = 4
__Old$1$ = -12						; size = 4
__New_ptr$1 = -8					; size = 4
__New_size$1$ = -4					; size = 4
__Su$1$ = 8						; size = 4
$T2 = 8							; size = 4
__Result$1$ = 8						; size = 4
__Count$ = 8						; size = 4
__Ch$ = 12						; size = 2
?append@?$basic_string@_WU?$char_traits@_W@std@@V?$allocator@_W@2@@std@@QAEAAV12@I_W@Z PROC ; std::basic_string<wchar_t,std::char_traits<wchar_t>,std::allocator<wchar_t> >::append, COMDAT
; _this$ = ecx

; 2961 :     basic_string& append(_CRT_GUARDOVERFLOW const size_type _Count, const _Elem _Ch) { // append _Count * _Ch

  00000	55		 push	 ebp
  00001	8b ec		 mov	 ebp, esp
  00003	83 ec 10	 sub	 esp, 16			; 00000010H
  00006	53		 push	 ebx

; 2962 :         const size_type _Old_size = _Mypair._Myval2._Mysize;
; 2963 :         if (_Count <= _Mypair._Myval2._Myres - _Old_size) {

  00007	8b 5d 08	 mov	 ebx, DWORD PTR __Count$[ebp]
  0000a	56		 push	 esi
  0000b	8b f1		 mov	 esi, ecx
  0000d	57		 push	 edi
  0000e	8b 56 14	 mov	 edx, DWORD PTR [esi+20]
  00011	8b c2		 mov	 eax, edx
  00013	8b 4e 10	 mov	 ecx, DWORD PTR [esi+16]
  00016	2b c1		 sub	 eax, ecx
  00018	89 4d f0	 mov	 DWORD PTR __Old_size$1$[ebp], ecx
  0001b	89 55 f4	 mov	 DWORD PTR __Old$1$[ebp], edx
  0001e	3b d8		 cmp	 ebx, eax
  00020	77 4e		 ja	 SHORT $LN2@append

; 2209 :         value_type* _Result = _Bx._Buf;

  00022	89 75 08	 mov	 DWORD PTR __Result$1$[ebp], esi

; 2964 :             _Mypair._Myval2._Mysize = _Old_size + _Count;

  00025	8d 04 19	 lea	 eax, DWORD PTR [ecx+ebx]
  00028	89 45 f4	 mov	 DWORD PTR tv488[ebp], eax
  0002b	89 46 10	 mov	 DWORD PTR [esi+16], eax

; 2209 :         value_type* _Result = _Bx._Buf;

  0002e	8b c6		 mov	 eax, esi

; 2227 :         return _BUF_SIZE <= _Myres;

  00030	83 fa 08	 cmp	 edx, 8

; 2210 :         if (_Large_string_engaged()) {

  00033	72 05		 jb	 SHORT $LN5@append

; 2211 :             _Result = _Unfancy(_Bx._Ptr);

  00035	8b 06		 mov	 eax, DWORD PTR [esi]
  00037	89 45 08	 mov	 DWORD PTR __Result$1$[ebp], eax
$LN5@append:

; 2965 :             _Elem* const _Old_ptr   = _Mypair._Myval2._Myptr();
; 2966 :             _Traits::assign(_Old_ptr + _Old_size, _Count, _Ch);

  0003a	8d 3c 48	 lea	 edi, DWORD PTR [eax+ecx*2]
; File C:\Program Files (x86)\Windows Kits\10\Include\10.0.18362.0\ucrt\wchar.h

; 259  :         for (; 0 < _N; ++_Su, --_N)

  0003d	85 db		 test	 ebx, ebx
  0003f	74 1b		 je	 SHORT $LN14@append
; File C:\Program Files (x86)\Microsoft Visual Studio\2019\Community\VC\Tools\MSVC\14.28.29333\include\xstring

; 277  :         return reinterpret_cast<_Elem*>(_CSTD wmemset(reinterpret_cast<wchar_t*>(_First), _Ch, _Count));

  00041	8b 45 0c	 mov	 eax, DWORD PTR __Ch$[ebp]
  00044	8b cb		 mov	 ecx, ebx
  00046	0f b7 d0	 movzx	 edx, ax
  00049	8b c2		 mov	 eax, edx
  0004b	c1 e2 10	 shl	 edx, 16			; 00000010H
  0004e	0b c2		 or	 eax, edx
  00050	d1 e9		 shr	 ecx, 1
  00052	f3 ab		 rep stosd
  00054	13 c9		 adc	 ecx, ecx
  00056	66 f3 ab	 rep stosw
  00059	8b 45 08	 mov	 eax, DWORD PTR __Result$1$[ebp]
$LN14@append:

; 2967 :             _Traits::assign(_Old_ptr[_Old_size + _Count], _Elem());

  0005c	8b 4d f4	 mov	 ecx, DWORD PTR tv488[ebp]
  0005f	33 d2		 xor	 edx, edx
  00061	5f		 pop	 edi
  00062	66 89 14 48	 mov	 WORD PTR [eax+ecx*2], dx

; 2980 :     }

  00066	8b c6		 mov	 eax, esi
  00068	5e		 pop	 esi
  00069	5b		 pop	 ebx
  0006a	8b e5		 mov	 esp, ebp
  0006c	5d		 pop	 ebp
  0006d	c2 08 00	 ret	 8
$LN2@append:

; 4333 :         if (max_size() - _Old_size < _Size_increase) {

  00070	bf fe ff ff 7f	 mov	 edi, 2147483646		; 7ffffffeH
  00075	8b c7		 mov	 eax, edi
  00077	2b c1		 sub	 eax, ecx
  00079	3b c3		 cmp	 eax, ebx
  0007b	0f 82 26 01 00
	00		 jb	 $LN77@append

; 4335 :         }
; 4336 : 
; 4337 :         const size_type _New_size     = _Old_size + _Size_increase;

  00081	8d 04 19	 lea	 eax, DWORD PTR [ecx+ebx]

; 4285 :         const size_type _Masked = _Requested | _ALLOC_MASK;

  00084	8b c8		 mov	 ecx, eax

; 4337 :         const size_type _New_size     = _Old_size + _Size_increase;

  00086	89 45 fc	 mov	 DWORD PTR __New_size$1$[ebp], eax

; 4285 :         const size_type _Masked = _Requested | _ALLOC_MASK;

  00089	83 c9 07	 or	 ecx, 7
  0008c	3b cf		 cmp	 ecx, edi

; 4286 :         if (_Masked > _Max) { // the mask overflows, settle for max_size()

  0008e	0f 86 97 00 00
	00		 jbe	 $LN24@append

; 4287 :             return _Max;

  00094	89 7d 08	 mov	 DWORD PTR $T2[ebp], edi
$LN74@append:
; File C:\Program Files (x86)\Microsoft Visual Studio\2019\Community\VC\Tools\MSVC\14.28.29333\include\xmemory

; 65   :     return _Count * _Ty_size;

  00097	b8 ff ff ff 7f	 mov	 eax, 2147483647		; 7fffffffH
$LN32@append:
  0009c	03 c0		 add	 eax, eax

; 814  :         return static_cast<_Ty*>(_Allocate<_New_alignof<_Ty>>(_Get_size_of_n<sizeof(_Ty)>(_Count)));

  0009e	50		 push	 eax
  0009f	e8 00 00 00 00	 call	 ??$_Allocate@$07U_Default_allocate_traits@std@@$0A@@std@@YAPAXI@Z ; std::_Allocate<8,std::_Default_allocate_traits,0>
; File C:\Program Files (x86)\Microsoft Visual Studio\2019\Community\VC\Tools\MSVC\14.28.29333\include\xstring

; 4341 :         const pointer _New_ptr        = _Al.allocate(_New_capacity + 1); // throws

  000a4	8b f8		 mov	 edi, eax
; File C:\Program Files (x86)\Microsoft Visual Studio\2019\Community\VC\Tools\MSVC\14.28.29333\include\xmemory

; 814  :         return static_cast<_Ty*>(_Allocate<_New_alignof<_Ty>>(_Get_size_of_n<sizeof(_Ty)>(_Count)));

  000a6	83 c4 04	 add	 esp, 4
; File C:\Program Files (x86)\Microsoft Visual Studio\2019\Community\VC\Tools\MSVC\14.28.29333\include\xstring

; 4343 :         _My_data._Mysize      = _New_size;

  000a9	8b 45 fc	 mov	 eax, DWORD PTR __New_size$1$[ebp]
  000ac	89 46 10	 mov	 DWORD PTR [esi+16], eax

; 4344 :         _My_data._Myres       = _New_capacity;

  000af	8b 45 08	 mov	 eax, DWORD PTR $T2[ebp]
  000b2	89 46 14	 mov	 DWORD PTR [esi+20], eax

; 4345 :         _Elem* const _Raw_new = _Unfancy(_New_ptr);

  000b5	8b 45 f0	 mov	 eax, DWORD PTR __Old_size$1$[ebp]
  000b8	03 c0		 add	 eax, eax
  000ba	89 7d f8	 mov	 DWORD PTR __New_ptr$1[ebp], edi

; 4346 :         if (_BUF_SIZE <= _Old_capacity) {

  000bd	83 7d f4 08	 cmp	 DWORD PTR __Old$1$[ebp], 8
  000c1	50		 push	 eax
  000c2	8d 0c 38	 lea	 ecx, DWORD PTR [eax+edi]
  000c5	89 4d 08	 mov	 DWORD PTR __Su$1$[ebp], ecx
  000c8	0f 82 8c 00 00
	00		 jb	 $LN18@append

; 4347 :             const pointer _Old_ptr = _My_data._Bx._Ptr;

  000ce	8b 0e		 mov	 ecx, DWORD PTR [esi]

; 62   :         _CSTD memcpy(_First1, _First2, _Count * sizeof(_Elem));

  000d0	51		 push	 ecx
  000d1	57		 push	 edi

; 4347 :             const pointer _Old_ptr = _My_data._Bx._Ptr;

  000d2	89 4d f0	 mov	 DWORD PTR __Old_ptr$1$[ebp], ecx

; 62   :         _CSTD memcpy(_First1, _First2, _Count * sizeof(_Elem));

  000d5	e8 00 00 00 00	 call	 _memcpy
  000da	83 c4 0c	 add	 esp, 12			; 0000000cH
; File C:\Program Files (x86)\Windows Kits\10\Include\10.0.18362.0\ucrt\wchar.h

; 259  :         for (; 0 < _N; ++_Su, --_N)

  000dd	85 db		 test	 ebx, ebx
  000df	74 1e		 je	 SHORT $LN45@append
; File C:\Program Files (x86)\Microsoft Visual Studio\2019\Community\VC\Tools\MSVC\14.28.29333\include\xstring

; 4347 :             const pointer _Old_ptr = _My_data._Bx._Ptr;

  000e1	8b 45 0c	 mov	 eax, DWORD PTR __Ch$[ebp]
  000e4	8b cb		 mov	 ecx, ebx
  000e6	8b 7d 08	 mov	 edi, DWORD PTR __Su$1$[ebp]
  000e9	0f b7 d0	 movzx	 edx, ax
  000ec	8b c2		 mov	 eax, edx
  000ee	c1 e2 10	 shl	 edx, 16			; 00000010H
  000f1	0b c2		 or	 eax, edx
  000f3	d1 e9		 shr	 ecx, 1
  000f5	f3 ab		 rep stosd
  000f7	13 c9		 adc	 ecx, ecx
  000f9	66 f3 ab	 rep stosw
  000fc	8b 7d f8	 mov	 edi, DWORD PTR __New_ptr$1[ebp]
$LN45@append:

; 2977 :                 _Traits::assign(_New_ptr[_Old_size + _Count], _Elem());

  000ff	8b 45 fc	 mov	 eax, DWORD PTR __New_size$1$[ebp]
  00102	33 c9		 xor	 ecx, ecx
  00104	66 89 0c 47	 mov	 WORD PTR [edi+eax*2], cx
; File C:\Program Files (x86)\Microsoft Visual Studio\2019\Community\VC\Tools\MSVC\14.28.29333\include\xmemory

; 810  :         _Deallocate<_New_alignof<_Ty>>(_Ptr, sizeof(_Ty) * _Count);

  00108	8b 45 f4	 mov	 eax, DWORD PTR __Old$1$[ebp]
  0010b	8d 04 45 02 00
	00 00		 lea	 eax, DWORD PTR [eax*2+2]
  00112	50		 push	 eax
  00113	ff 75 f0	 push	 DWORD PTR __Old_ptr$1$[ebp]
  00116	e8 00 00 00 00	 call	 ??$_Deallocate@$07$0A@@std@@YAXPAXI@Z ; std::_Deallocate<8,0>
; File C:\Program Files (x86)\Microsoft Visual Studio\2019\Community\VC\Tools\MSVC\14.28.29333\include\xstring

; 2980 :     }

  0011b	83 c4 08	 add	 esp, 8

; 4350 :             _My_data._Bx._Ptr = _New_ptr;

  0011e	89 3e		 mov	 DWORD PTR [esi], edi

; 2980 :     }

  00120	8b c6		 mov	 eax, esi
  00122	5f		 pop	 edi
  00123	5e		 pop	 esi
  00124	5b		 pop	 ebx
  00125	8b e5		 mov	 esp, ebp
  00127	5d		 pop	 ebp
  00128	c2 08 00	 ret	 8
$LN24@append:

; 4290 :         if (_Old > _Max - _Old / 2) { // similarly, geometric overflows

  0012b	8b c2		 mov	 eax, edx
  0012d	d1 e8		 shr	 eax, 1
  0012f	2b f8		 sub	 edi, eax
  00131	3b d7		 cmp	 edx, edi
  00133	76 0c		 jbe	 SHORT $LN25@append

; 4291 :             return _Max;

  00135	c7 45 08 fe ff
	ff 7f		 mov	 DWORD PTR $T2[ebp], 2147483646 ; 7ffffffeH
  0013c	e9 56 ff ff ff	 jmp	 $LN74@append
$LN25@append:

; 4292 :         }
; 4293 : 
; 4294 :         return (_STD max)(_Masked, _Old + _Old / 2);

  00141	03 c2		 add	 eax, edx
; File C:\Program Files (x86)\Microsoft Visual Studio\2019\Community\VC\Tools\MSVC\14.28.29333\include\utility

; 44   :     return _Left < _Right ? _Right : _Left;

  00143	3b c8		 cmp	 ecx, eax
  00145	0f 42 c8	 cmovb	 ecx, eax
  00148	89 4d 08	 mov	 DWORD PTR $T2[ebp], ecx
; File C:\Program Files (x86)\Microsoft Visual Studio\2019\Community\VC\Tools\MSVC\14.28.29333\include\xstring

; 4341 :         const pointer _New_ptr        = _Al.allocate(_New_capacity + 1); // throws

  0014b	8d 41 01	 lea	 eax, DWORD PTR [ecx+1]
; File C:\Program Files (x86)\Microsoft Visual Studio\2019\Community\VC\Tools\MSVC\14.28.29333\include\xmemory

; 60   :         if (_Count > _Max_possible) {

  0014e	3d ff ff ff 7f	 cmp	 eax, 2147483647		; 7fffffffH
  00153	77 57		 ja	 SHORT $LN78@append
  00155	e9 42 ff ff ff	 jmp	 $LN32@append
$LN18@append:
; File C:\Program Files (x86)\Microsoft Visual Studio\2019\Community\VC\Tools\MSVC\14.28.29333\include\xstring

; 62   :         _CSTD memcpy(_First1, _First2, _Count * sizeof(_Elem));

  0015a	56		 push	 esi
  0015b	57		 push	 edi
  0015c	e8 00 00 00 00	 call	 _memcpy
  00161	83 c4 0c	 add	 esp, 12			; 0000000cH
; File C:\Program Files (x86)\Windows Kits\10\Include\10.0.18362.0\ucrt\wchar.h

; 259  :         for (; 0 < _N; ++_Su, --_N)

  00164	85 db		 test	 ebx, ebx
  00166	74 1e		 je	 SHORT $LN58@append
; File C:\Program Files (x86)\Microsoft Visual Studio\2019\Community\VC\Tools\MSVC\14.28.29333\include\xstring

; 62   :         _CSTD memcpy(_First1, _First2, _Count * sizeof(_Elem));

  00168	8b 45 0c	 mov	 eax, DWORD PTR __Ch$[ebp]
  0016b	8b cb		 mov	 ecx, ebx
  0016d	8b 7d 08	 mov	 edi, DWORD PTR __Su$1$[ebp]
  00170	0f b7 d0	 movzx	 edx, ax
  00173	8b c2		 mov	 eax, edx
  00175	c1 e2 10	 shl	 edx, 16			; 00000010H
  00178	0b c2		 or	 eax, edx
  0017a	d1 e9		 shr	 ecx, 1
  0017c	f3 ab		 rep stosd
  0017e	13 c9		 adc	 ecx, ecx
  00180	66 f3 ab	 rep stosw
  00183	8b 7d f8	 mov	 edi, DWORD PTR __New_ptr$1[ebp]
$LN58@append:

; 2977 :                 _Traits::assign(_New_ptr[_Old_size + _Count], _Elem());

  00186	8b 45 fc	 mov	 eax, DWORD PTR __New_size$1$[ebp]
  00189	33 c9		 xor	 ecx, ecx
  0018b	66 89 0c 47	 mov	 WORD PTR [edi+eax*2], cx

; 4353 :             _Construct_in_place(_My_data._Bx._Ptr, _New_ptr);

  0018f	8d 45 f8	 lea	 eax, DWORD PTR __New_ptr$1[ebp]
  00192	50		 push	 eax
  00193	56		 push	 esi
  00194	e8 00 00 00 00	 call	 ??$_Construct_in_place@PA_WABQA_W@std@@YAXAAPA_WABQA_W@Z ; std::_Construct_in_place<wchar_t *,wchar_t * const &>

; 2980 :     }

  00199	83 c4 08	 add	 esp, 8
  0019c	8b c6		 mov	 eax, esi
  0019e	5f		 pop	 edi
  0019f	5e		 pop	 esi
  001a0	5b		 pop	 ebx
  001a1	8b e5		 mov	 esp, ebp
  001a3	5d		 pop	 ebp
  001a4	c2 08 00	 ret	 8
$LN77@append:

; 4334 :             _Xlen_string(); // result too long

  001a7	e8 00 00 00 00	 call	 ?_Xlen_string@std@@YAXXZ ; std::_Xlen_string
$LN78@append:
; File C:\Program Files (x86)\Microsoft Visual Studio\2019\Community\VC\Tools\MSVC\14.28.29333\include\xmemory

; 61   :             _Throw_bad_array_new_length(); // multiply overflow

  001ac	e8 00 00 00 00	 call	 ?_Throw_bad_array_new_length@std@@YAXXZ ; std::_Throw_bad_array_new_length
$LN73@append:
  001b1	cc		 int	 3
?append@?$basic_string@_WU?$char_traits@_W@std@@V?$allocator@_W@2@@std@@QAEAAV12@I_W@Z ENDP ; std::basic_string<wchar_t,std::char_traits<wchar_t>,std::allocator<wchar_t> >::append
_TEXT	ENDS
; Function compile flags: /Ogtp
; File C:\Program Files (x86)\Microsoft Visual Studio\2019\Community\VC\Tools\MSVC\14.28.29333\include\xstring
;	COMDAT ??4?$basic_string@_WU?$char_traits@_W@std@@V?$allocator@_W@2@@std@@QAEAAV01@ABV01@@Z
_TEXT	SEGMENT
__Right$ = 8						; size = 4
??4?$basic_string@_WU?$char_traits@_W@std@@V?$allocator@_W@2@@std@@QAEAAV01@ABV01@@Z PROC ; std::basic_string<wchar_t,std::char_traits<wchar_t>,std::allocator<wchar_t> >::operator=, COMDAT
; _this$ = ecx

; 2862 :     basic_string& operator=(const basic_string& _Right) {

  00000	55		 push	 ebp
  00001	8b ec		 mov	 ebp, esp

; 2863 :         if (this != _STD addressof(_Right)) {

  00003	8b 45 08	 mov	 eax, DWORD PTR __Right$[ebp]
  00006	56		 push	 esi
  00007	8b f1		 mov	 esi, ecx
  00009	3b f0		 cmp	 esi, eax
  0000b	74 15		 je	 SHORT $LN11@operator

; 2227 :         return _BUF_SIZE <= _Myres;

  0000d	83 78 14 08	 cmp	 DWORD PTR [eax+20], 8

; 2218 :         const value_type* _Result = _Bx._Buf;

  00011	8b c8		 mov	 ecx, eax

; 2219 :         if (_Large_string_engaged()) {

  00013	72 02		 jb	 SHORT $LN7@operator

; 2220 :             _Result = _Unfancy(_Bx._Ptr);

  00015	8b 08		 mov	 ecx, DWORD PTR [eax]
$LN7@operator:

; 2828 :         assign(_Right._Mypair._Myval2._Myptr(), _Right._Mypair._Myval2._Mysize);

  00017	ff 70 10	 push	 DWORD PTR [eax+16]
  0001a	51		 push	 ecx
  0001b	8b ce		 mov	 ecx, esi
  0001d	e8 00 00 00 00	 call	 ?assign@?$basic_string@_WU?$char_traits@_W@std@@V?$allocator@_W@2@@std@@QAEAAV12@QB_WI@Z ; std::basic_string<wchar_t,std::char_traits<wchar_t>,std::allocator<wchar_t> >::assign
$LN11@operator:

; 2864 :             _Copy_assign(_Right, _Choose_pocca<_Alty>{});
; 2865 :         }
; 2866 : 
; 2867 :         return *this;
; 2868 :     }

  00022	8b c6		 mov	 eax, esi
  00024	5e		 pop	 esi
  00025	5d		 pop	 ebp
  00026	c2 04 00	 ret	 4
??4?$basic_string@_WU?$char_traits@_W@std@@V?$allocator@_W@2@@std@@QAEAAV01@ABV01@@Z ENDP ; std::basic_string<wchar_t,std::char_traits<wchar_t>,std::allocator<wchar_t> >::operator=
_TEXT	ENDS
; Function compile flags: /Ogtp
; File C:\Program Files (x86)\Microsoft Visual Studio\2019\Community\VC\Tools\MSVC\14.28.29333\include\xstring
; File C:\Program Files (x86)\Microsoft Visual Studio\2019\Community\VC\Tools\MSVC\14.28.29333\include\xmemory
; File C:\Program Files (x86)\Microsoft Visual Studio\2019\Community\VC\Tools\MSVC\14.28.29333\include\xstring
;	COMDAT ??1?$basic_string@_WU?$char_traits@_W@std@@V?$allocator@_W@2@@std@@QAE@XZ
_TEXT	SEGMENT
??1?$basic_string@_WU?$char_traits@_W@std@@V?$allocator@_W@2@@std@@QAE@XZ PROC ; std::basic_string<wchar_t,std::char_traits<wchar_t>,std::allocator<wchar_t> >::~basic_string<wchar_t,std::char_traits<wchar_t>,std::allocator<wchar_t> >, COMDAT
; _this$ = ecx

; 2800 :     ~basic_string() noexcept {

  00000	56		 push	 esi
  00001	8b f1		 mov	 esi, ecx

; 2227 :         return _BUF_SIZE <= _Myres;

  00003	8b 46 14	 mov	 eax, DWORD PTR [esi+20]
  00006	83 f8 08	 cmp	 eax, 8

; 4385 :         if (_Mypair._Myval2._Large_string_engaged()) {

  00009	72 12		 jb	 SHORT $LN4@basic_stri
; File C:\Program Files (x86)\Microsoft Visual Studio\2019\Community\VC\Tools\MSVC\14.28.29333\include\xmemory

; 810  :         _Deallocate<_New_alignof<_Ty>>(_Ptr, sizeof(_Ty) * _Count);

  0000b	8d 04 45 02 00
	00 00		 lea	 eax, DWORD PTR [eax*2+2]
  00012	50		 push	 eax
  00013	ff 36		 push	 DWORD PTR [esi]
  00015	e8 00 00 00 00	 call	 ??$_Deallocate@$07$0A@@std@@YAXPAXI@Z ; std::_Deallocate<8,0>
  0001a	83 c4 08	 add	 esp, 8
$LN4@basic_stri:
; File C:\Program Files (x86)\Microsoft Visual Studio\2019\Community\VC\Tools\MSVC\14.28.29333\include\xstring

; 4395 :         _Traits::assign(_Mypair._Myval2._Bx._Buf[0], _Elem());

  0001d	33 c0		 xor	 eax, eax
  0001f	c7 46 10 00 00
	00 00		 mov	 DWORD PTR [esi+16], 0
  00026	c7 46 14 07 00
	00 00		 mov	 DWORD PTR [esi+20], 7
  0002d	66 89 06	 mov	 WORD PTR [esi], ax
  00030	5e		 pop	 esi

; 2801 :         _Tidy_deallocate();
; 2802 : #if _ITERATOR_DEBUG_LEVEL != 0
; 2803 :         auto&& _Alproxy          = _GET_PROXY_ALLOCATOR(_Alty, _Getal());
; 2804 :         const auto _To_delete    = _Mypair._Myval2._Myproxy;
; 2805 :         _Mypair._Myval2._Myproxy = nullptr;
; 2806 :         _Delete_plain_internal(_Alproxy, _To_delete);
; 2807 : #endif // _ITERATOR_DEBUG_LEVEL != 0
; 2808 :     }

  00031	c3		 ret	 0
??1?$basic_string@_WU?$char_traits@_W@std@@V?$allocator@_W@2@@std@@QAE@XZ ENDP ; std::basic_string<wchar_t,std::char_traits<wchar_t>,std::allocator<wchar_t> >::~basic_string<wchar_t,std::char_traits<wchar_t>,std::allocator<wchar_t> >
_TEXT	ENDS
; Function compile flags: /Ogtp
; File C:\Program Files (x86)\Microsoft Visual Studio\2019\Community\VC\Tools\MSVC\14.28.29333\include\xstring
; File C:\Program Files (x86)\Microsoft Visual Studio\2019\Community\VC\Tools\MSVC\14.28.29333\include\utility
; File C:\Program Files (x86)\Microsoft Visual Studio\2019\Community\VC\Tools\MSVC\14.28.29333\include\xstring
; File C:\Program Files (x86)\Microsoft Visual Studio\2019\Community\VC\Tools\MSVC\14.28.29333\include\xmemory
; File C:\Program Files (x86)\Microsoft Visual Studio\2019\Community\VC\Tools\MSVC\14.28.29333\include\xstring
; File C:\Program Files (x86)\Microsoft Visual Studio\2019\Community\VC\Tools\MSVC\14.28.29333\include\xmemory
; File C:\Program Files (x86)\Microsoft Visual Studio\2019\Community\VC\Tools\MSVC\14.28.29333\include\xstring
;	COMDAT ?assign@?$basic_string@DU?$char_traits@D@std@@V?$allocator@D@2@@std@@QAEAAV12@QBDI@Z
_TEXT	SEGMENT
__Old$1$ = -4						; size = 4
__Ptr$ = 8						; size = 4
__New_ptr$1 = 12					; size = 4
__Count$ = 12						; size = 4
?assign@?$basic_string@DU?$char_traits@D@std@@V?$allocator@D@2@@std@@QAEAAV12@QBDI@Z PROC ; std::basic_string<char,std::char_traits<char>,std::allocator<char> >::assign, COMDAT
; _this$ = ecx

; 3042 :     basic_string& assign(_In_reads_(_Count) const _Elem* const _Ptr, _CRT_GUARDOVERFLOW const size_type _Count) {

  00000	55		 push	 ebp
  00001	8b ec		 mov	 ebp, esp
  00003	51		 push	 ecx
  00004	53		 push	 ebx
  00005	56		 push	 esi
  00006	8b f1		 mov	 esi, ecx
  00008	57		 push	 edi

; 3043 :         // assign [_Ptr, _Ptr + _Count)
; 3044 :         if (_Count <= _Mypair._Myval2._Myres) {

  00009	8b 7d 0c	 mov	 edi, DWORD PTR __Count$[ebp]
  0000c	8b 4e 14	 mov	 ecx, DWORD PTR [esi+20]
  0000f	89 4d fc	 mov	 DWORD PTR __Old$1$[ebp], ecx
  00012	3b f9		 cmp	 edi, ecx
  00014	77 28		 ja	 SHORT $LN2@assign

; 2209 :         value_type* _Result = _Bx._Buf;

  00016	8b de		 mov	 ebx, esi

; 2227 :         return _BUF_SIZE <= _Myres;

  00018	83 f9 10	 cmp	 ecx, 16			; 00000010H

; 2210 :         if (_Large_string_engaged()) {

  0001b	72 02		 jb	 SHORT $LN5@assign

; 2211 :             _Result = _Unfancy(_Bx._Ptr);

  0001d	8b 1e		 mov	 ebx, DWORD PTR [esi]
$LN5@assign:

; 119  :         _CSTD memmove(_First1, _First2, _Count * sizeof(_Elem));

  0001f	57		 push	 edi
  00020	ff 75 08	 push	 DWORD PTR __Ptr$[ebp]

; 3045 :             _Elem* const _Old_ptr   = _Mypair._Myval2._Myptr();
; 3046 :             _Mypair._Myval2._Mysize = _Count;

  00023	89 7e 10	 mov	 DWORD PTR [esi+16], edi

; 119  :         _CSTD memmove(_First1, _First2, _Count * sizeof(_Elem));

  00026	53		 push	 ebx
  00027	e8 00 00 00 00	 call	 _memmove
  0002c	83 c4 0c	 add	 esp, 12			; 0000000cH

; 3047 :             _Traits::move(_Old_ptr, _Ptr, _Count);
; 3048 :             _Traits::assign(_Old_ptr[_Count], _Elem());

  0002f	c6 04 3b 00	 mov	 BYTE PTR [ebx+edi], 0

; 3059 :     }

  00033	8b c6		 mov	 eax, esi
  00035	5f		 pop	 edi
  00036	5e		 pop	 esi
  00037	5b		 pop	 ebx
  00038	8b e5		 mov	 esp, ebp
  0003a	5d		 pop	 ebp
  0003b	c2 08 00	 ret	 8
$LN2@assign:

; 4305 :         if (_New_size > max_size()) {

  0003e	81 ff ff ff ff
	7f		 cmp	 edi, 2147483647		; 7fffffffH
  00044	0f 87 91 00 00
	00		 ja	 $LN36@assign

; 4285 :         const size_type _Masked = _Requested | _ALLOC_MASK;

  0004a	8b df		 mov	 ebx, edi
  0004c	83 cb 0f	 or	 ebx, 15			; 0000000fH
  0004f	81 fb ff ff ff
	7f		 cmp	 ebx, 2147483647		; 7fffffffH

; 4286 :         if (_Masked > _Max) { // the mask overflows, settle for max_size()

  00055	76 07		 jbe	 SHORT $LN19@assign

; 4287 :             return _Max;

  00057	bb ff ff ff 7f	 mov	 ebx, 2147483647		; 7fffffffH
  0005c	eb 1e		 jmp	 SHORT $LN18@assign
$LN19@assign:

; 4288 :         }
; 4289 : 
; 4290 :         if (_Old > _Max - _Old / 2) { // similarly, geometric overflows

  0005e	8b d1		 mov	 edx, ecx
  00060	b8 ff ff ff 7f	 mov	 eax, 2147483647		; 7fffffffH
  00065	d1 ea		 shr	 edx, 1
  00067	2b c2		 sub	 eax, edx
  00069	3b c8		 cmp	 ecx, eax
  0006b	76 07		 jbe	 SHORT $LN20@assign

; 4291 :             return _Max;

  0006d	bb ff ff ff 7f	 mov	 ebx, 2147483647		; 7fffffffH
  00072	eb 08		 jmp	 SHORT $LN18@assign
$LN20@assign:

; 4292 :         }
; 4293 : 
; 4294 :         return (_STD max)(_Masked, _Old + _Old / 2);

  00074	8d 04 0a	 lea	 eax, DWORD PTR [edx+ecx]
; File C:\Program Files (x86)\Microsoft Visual Studio\2019\Community\VC\Tools\MSVC\14.28.29333\include\utility

; 44   :     return _Left < _Right ? _Right : _Left;

  00077	3b d8		 cmp	 ebx, eax
  00079	0f 42 d8	 cmovb	 ebx, eax
$LN18@assign:
; File C:\Program Files (x86)\Microsoft Visual Studio\2019\Community\VC\Tools\MSVC\14.28.29333\include\xstring

; 4312 :         const pointer _New_ptr        = _Al.allocate(_New_capacity + 1); // throws

  0007c	8d 43 01	 lea	 eax, DWORD PTR [ebx+1]
; File C:\Program Files (x86)\Microsoft Visual Studio\2019\Community\VC\Tools\MSVC\14.28.29333\include\xmemory

; 814  :         return static_cast<_Ty*>(_Allocate<_New_alignof<_Ty>>(_Get_size_of_n<sizeof(_Ty)>(_Count)));

  0007f	50		 push	 eax
  00080	e8 00 00 00 00	 call	 ??$_Allocate@$07U_Default_allocate_traits@std@@$0A@@std@@YAPAXI@Z ; std::_Allocate<8,std::_Default_allocate_traits,0>
; File C:\Program Files (x86)\Microsoft Visual Studio\2019\Community\VC\Tools\MSVC\14.28.29333\include\xstring

; 62   :         _CSTD memcpy(_First1, _First2, _Count * sizeof(_Elem));

  00085	57		 push	 edi
  00086	ff 75 08	 push	 DWORD PTR __Ptr$[ebp]

; 4312 :         const pointer _New_ptr        = _Al.allocate(_New_capacity + 1); // throws

  00089	89 45 0c	 mov	 DWORD PTR __New_ptr$1[ebp], eax

; 62   :         _CSTD memcpy(_First1, _First2, _Count * sizeof(_Elem));

  0008c	50		 push	 eax

; 4314 :         _Mypair._Myval2._Mysize = _New_size;

  0008d	89 7e 10	 mov	 DWORD PTR [esi+16], edi

; 4315 :         _Mypair._Myval2._Myres  = _New_capacity;

  00090	89 5e 14	 mov	 DWORD PTR [esi+20], ebx

; 62   :         _CSTD memcpy(_First1, _First2, _Count * sizeof(_Elem));

  00093	e8 00 00 00 00	 call	 _memcpy

; 3056 :                 _Traits::assign(_New_ptr[_Count], _Elem());

  00098	8b 5d 0c	 mov	 ebx, DWORD PTR __New_ptr$1[ebp]

; 62   :         _CSTD memcpy(_First1, _First2, _Count * sizeof(_Elem));

  0009b	83 c4 10	 add	 esp, 16			; 00000010H

; 4317 :         if (_BUF_SIZE <= _Old_capacity) {

  0009e	8b 45 fc	 mov	 eax, DWORD PTR __Old$1$[ebp]

; 3056 :                 _Traits::assign(_New_ptr[_Count], _Elem());

  000a1	c6 04 3b 00	 mov	 BYTE PTR [ebx+edi], 0

; 4317 :         if (_BUF_SIZE <= _Old_capacity) {

  000a5	83 f8 10	 cmp	 eax, 16			; 00000010H
  000a8	72 19		 jb	 SHORT $LN13@assign

; 4318 :             _Al.deallocate(_Mypair._Myval2._Bx._Ptr, _Old_capacity + 1);

  000aa	40		 inc	 eax
; File C:\Program Files (x86)\Microsoft Visual Studio\2019\Community\VC\Tools\MSVC\14.28.29333\include\xmemory

; 810  :         _Deallocate<_New_alignof<_Ty>>(_Ptr, sizeof(_Ty) * _Count);

  000ab	50		 push	 eax
  000ac	ff 36		 push	 DWORD PTR [esi]
  000ae	e8 00 00 00 00	 call	 ??$_Deallocate@$07$0A@@std@@YAXPAXI@Z ; std::_Deallocate<8,0>
; File C:\Program Files (x86)\Microsoft Visual Studio\2019\Community\VC\Tools\MSVC\14.28.29333\include\xstring

; 3059 :     }

  000b3	83 c4 08	 add	 esp, 8

; 4319 :             _Mypair._Myval2._Bx._Ptr = _New_ptr;

  000b6	89 1e		 mov	 DWORD PTR [esi], ebx

; 3059 :     }

  000b8	8b c6		 mov	 eax, esi
  000ba	5f		 pop	 edi
  000bb	5e		 pop	 esi
  000bc	5b		 pop	 ebx
  000bd	8b e5		 mov	 esp, ebp
  000bf	5d		 pop	 ebp
  000c0	c2 08 00	 ret	 8
$LN13@assign:

; 4321 :             _Construct_in_place(_Mypair._Myval2._Bx._Ptr, _New_ptr);

  000c3	8d 45 0c	 lea	 eax, DWORD PTR __New_ptr$1[ebp]
  000c6	50		 push	 eax
  000c7	56		 push	 esi
  000c8	e8 00 00 00 00	 call	 ??$_Construct_in_place@PADABQAD@std@@YAXAAPADABQAD@Z ; std::_Construct_in_place<char *,char * const &>

; 3059 :     }

  000cd	83 c4 08	 add	 esp, 8
  000d0	8b c6		 mov	 eax, esi
  000d2	5f		 pop	 edi
  000d3	5e		 pop	 esi
  000d4	5b		 pop	 ebx
  000d5	8b e5		 mov	 esp, ebp
  000d7	5d		 pop	 ebp
  000d8	c2 08 00	 ret	 8
$LN36@assign:

; 4306 :             _Xlen_string(); // result too long

  000db	e8 00 00 00 00	 call	 ?_Xlen_string@std@@YAXXZ ; std::_Xlen_string
$LN33@assign:
  000e0	cc		 int	 3
?assign@?$basic_string@DU?$char_traits@D@std@@V?$allocator@D@2@@std@@QAEAAV12@QBDI@Z ENDP ; std::basic_string<char,std::char_traits<char>,std::allocator<char> >::assign
_TEXT	ENDS
; Function compile flags: /Ogtp
; File C:\Program Files (x86)\Microsoft Visual Studio\2019\Community\VC\Tools\MSVC\14.28.29333\include\xstring
; File C:\Program Files (x86)\Microsoft Visual Studio\2019\Community\VC\Tools\MSVC\14.28.29333\include\xmemory
; File C:\Program Files (x86)\Microsoft Visual Studio\2019\Community\VC\Tools\MSVC\14.28.29333\include\xstring
;	COMDAT ??1?$basic_string@DU?$char_traits@D@std@@V?$allocator@D@2@@std@@QAE@XZ
_TEXT	SEGMENT
??1?$basic_string@DU?$char_traits@D@std@@V?$allocator@D@2@@std@@QAE@XZ PROC ; std::basic_string<char,std::char_traits<char>,std::allocator<char> >::~basic_string<char,std::char_traits<char>,std::allocator<char> >, COMDAT
; _this$ = ecx

; 2800 :     ~basic_string() noexcept {

  00000	56		 push	 esi
  00001	8b f1		 mov	 esi, ecx

; 2227 :         return _BUF_SIZE <= _Myres;

  00003	8b 46 14	 mov	 eax, DWORD PTR [esi+20]
  00006	83 f8 10	 cmp	 eax, 16			; 00000010H

; 4385 :         if (_Mypair._Myval2._Large_string_engaged()) {

  00009	72 0c		 jb	 SHORT $LN4@basic_stri

; 4386 :             const pointer _Ptr = _Mypair._Myval2._Bx._Ptr;
; 4387 :             auto& _Al          = _Getal();
; 4388 :             _Destroy_in_place(_Mypair._Myval2._Bx._Ptr);
; 4389 :             _Al.deallocate(_Ptr, _Mypair._Myval2._Myres + 1);

  0000b	40		 inc	 eax
; File C:\Program Files (x86)\Microsoft Visual Studio\2019\Community\VC\Tools\MSVC\14.28.29333\include\xmemory

; 810  :         _Deallocate<_New_alignof<_Ty>>(_Ptr, sizeof(_Ty) * _Count);

  0000c	50		 push	 eax
  0000d	ff 36		 push	 DWORD PTR [esi]
  0000f	e8 00 00 00 00	 call	 ??$_Deallocate@$07$0A@@std@@YAXPAXI@Z ; std::_Deallocate<8,0>
  00014	83 c4 08	 add	 esp, 8
$LN4@basic_stri:
; File C:\Program Files (x86)\Microsoft Visual Studio\2019\Community\VC\Tools\MSVC\14.28.29333\include\xstring

; 4392 :         _Mypair._Myval2._Mysize = 0;

  00017	c7 46 10 00 00
	00 00		 mov	 DWORD PTR [esi+16], 0

; 4393 :         _Mypair._Myval2._Myres  = _BUF_SIZE - 1;

  0001e	c7 46 14 0f 00
	00 00		 mov	 DWORD PTR [esi+20], 15	; 0000000fH

; 4394 :         // the _Traits::assign is last so the codegen doesn't think the char write can alias this
; 4395 :         _Traits::assign(_Mypair._Myval2._Bx._Buf[0], _Elem());

  00025	c6 06 00	 mov	 BYTE PTR [esi], 0
  00028	5e		 pop	 esi

; 2801 :         _Tidy_deallocate();
; 2802 : #if _ITERATOR_DEBUG_LEVEL != 0
; 2803 :         auto&& _Alproxy          = _GET_PROXY_ALLOCATOR(_Alty, _Getal());
; 2804 :         const auto _To_delete    = _Mypair._Myval2._Myproxy;
; 2805 :         _Mypair._Myval2._Myproxy = nullptr;
; 2806 :         _Delete_plain_internal(_Alproxy, _To_delete);
; 2807 : #endif // _ITERATOR_DEBUG_LEVEL != 0
; 2808 :     }

  00029	c3		 ret	 0
??1?$basic_string@DU?$char_traits@D@std@@V?$allocator@D@2@@std@@QAE@XZ ENDP ; std::basic_string<char,std::char_traits<char>,std::allocator<char> >::~basic_string<char,std::char_traits<char>,std::allocator<char> >
_TEXT	ENDS
; Function compile flags: /Ogtp
; File C:\Program Files (x86)\Microsoft Visual Studio\2019\Community\VC\Tools\MSVC\14.28.29333\include\xstring
;	COMDAT ?_Xlen_string@std@@YAXXZ
_TEXT	SEGMENT
?_Xlen_string@std@@YAXXZ PROC				; std::_Xlen_string, COMDAT

; 2275 :     _Xlength_error("string too long");

  00000	68 00 00 00 00	 push	 OFFSET ??_C@_0BA@JFNIOLAK@string?5too?5long@
  00005	e8 00 00 00 00	 call	 ?_Xlength_error@std@@YAXPBD@Z ; std::_Xlength_error
$LN3@Xlen_strin:
  0000a	cc		 int	 3
?_Xlen_string@std@@YAXXZ ENDP				; std::_Xlen_string
_TEXT	ENDS
; Function compile flags: /Ogtp
; File C:\Program Files (x86)\Microsoft Visual Studio\2019\Community\VC\Tools\MSVC\14.28.29333\include\exception
;	COMDAT ?_Throw_bad_array_new_length@std@@YAXXZ
_TEXT	SEGMENT
$T1 = -12						; size = 12
?_Throw_bad_array_new_length@std@@YAXXZ PROC		; std::_Throw_bad_array_new_length, COMDAT

; 320  : [[noreturn]] inline void _Throw_bad_array_new_length() {

  00000	55		 push	 ebp
  00001	8b ec		 mov	 ebp, esp
  00003	83 ec 0c	 sub	 esp, 12			; 0000000cH

; 321  :     _THROW(bad_array_new_length{});

  00006	8d 4d f4	 lea	 ecx, DWORD PTR $T1[ebp]
  00009	e8 00 00 00 00	 call	 ??0bad_array_new_length@std@@QAE@XZ ; std::bad_array_new_length::bad_array_new_length
  0000e	68 00 00 00 00	 push	 OFFSET __TI3?AVbad_array_new_length@std@@
  00013	8d 45 f4	 lea	 eax, DWORD PTR $T1[ebp]
  00016	50		 push	 eax
  00017	e8 00 00 00 00	 call	 __CxxThrowException@8
$LN3@Throw_bad_:
  0001c	cc		 int	 3
?_Throw_bad_array_new_length@std@@YAXXZ ENDP		; std::_Throw_bad_array_new_length
_TEXT	ENDS
; Function compile flags: /Ogtp
; File C:\Program Files (x86)\Microsoft Visual Studio\2019\Community\VC\Tools\MSVC\14.28.29333\include\vcruntime_exception.h
;	COMDAT ??_Gbad_array_new_length@std@@UAEPAXI@Z
_TEXT	SEGMENT
___flags$ = 8						; size = 4
??_Gbad_array_new_length@std@@UAEPAXI@Z PROC		; std::bad_array_new_length::`scalar deleting destructor', COMDAT
; _this$ = ecx
  00000	55		 push	 ebp
  00001	8b ec		 mov	 ebp, esp

; 89   :     {

  00003	56		 push	 esi
  00004	8b f1		 mov	 esi, ecx

; 90   :         __std_exception_destroy(&_Data);

  00006	8d 46 04	 lea	 eax, DWORD PTR [esi+4]
  00009	c7 06 00 00 00
	00		 mov	 DWORD PTR [esi], OFFSET ??_7exception@std@@6B@
  0000f	50		 push	 eax
  00010	e8 00 00 00 00	 call	 ___std_exception_destroy
  00015	83 c4 04	 add	 esp, 4
  00018	f6 45 08 01	 test	 BYTE PTR ___flags$[ebp], 1
  0001c	74 0b		 je	 SHORT $LN12@scalar
  0001e	6a 0c		 push	 12			; 0000000cH
  00020	56		 push	 esi
  00021	e8 00 00 00 00	 call	 ??3@YAXPAXI@Z		; operator delete
  00026	83 c4 08	 add	 esp, 8
$LN12@scalar:
  00029	8b c6		 mov	 eax, esi
  0002b	5e		 pop	 esi
  0002c	5d		 pop	 ebp
  0002d	c2 04 00	 ret	 4
??_Gbad_array_new_length@std@@UAEPAXI@Z ENDP		; std::bad_array_new_length::`scalar deleting destructor'
_TEXT	ENDS
; Function compile flags: /Ogtp
; File C:\Program Files (x86)\Microsoft Visual Studio\2019\Community\VC\Tools\MSVC\14.28.29333\include\vcruntime_exception.h
;	COMDAT ??0bad_array_new_length@std@@QAE@ABV01@@Z
_TEXT	SEGMENT
___that$ = 8						; size = 4
??0bad_array_new_length@std@@QAE@ABV01@@Z PROC		; std::bad_array_new_length::bad_array_new_length, COMDAT
; _this$ = ecx
  00000	55		 push	 ebp
  00001	8b ec		 mov	 ebp, esp

; 72   :     {

  00003	56		 push	 esi
  00004	8b f1		 mov	 esi, ecx
  00006	0f 57 c0	 xorps	 xmm0, xmm0

; 71   :         : _Data()

  00009	8d 46 04	 lea	 eax, DWORD PTR [esi+4]

; 73   :         __std_exception_copy(&_Other._Data, &_Data);

  0000c	50		 push	 eax
  0000d	c7 06 00 00 00
	00		 mov	 DWORD PTR [esi], OFFSET ??_7exception@std@@6B@
  00013	66 0f d6 00	 movq	 QWORD PTR [eax], xmm0
  00017	8b 45 08	 mov	 eax, DWORD PTR ___that$[ebp]
  0001a	83 c0 04	 add	 eax, 4
  0001d	50		 push	 eax
  0001e	e8 00 00 00 00	 call	 ___std_exception_copy
  00023	83 c4 08	 add	 esp, 8
  00026	c7 06 00 00 00
	00		 mov	 DWORD PTR [esi], OFFSET ??_7bad_array_new_length@std@@6B@
  0002c	8b c6		 mov	 eax, esi
  0002e	5e		 pop	 esi
  0002f	5d		 pop	 ebp
  00030	c2 04 00	 ret	 4
??0bad_array_new_length@std@@QAE@ABV01@@Z ENDP		; std::bad_array_new_length::bad_array_new_length
_TEXT	ENDS
; Function compile flags: /Ogtp
; File C:\Program Files (x86)\Microsoft Visual Studio\2019\Community\VC\Tools\MSVC\14.28.29333\include\vcruntime_exception.h
;	COMDAT ??1bad_array_new_length@std@@UAE@XZ
_TEXT	SEGMENT
??1bad_array_new_length@std@@UAE@XZ PROC		; std::bad_array_new_length::~bad_array_new_length, COMDAT
; _this$ = ecx

; 90   :         __std_exception_destroy(&_Data);

  00000	8d 41 04	 lea	 eax, DWORD PTR [ecx+4]
  00003	c7 01 00 00 00
	00		 mov	 DWORD PTR [ecx], OFFSET ??_7exception@std@@6B@
  00009	50		 push	 eax
  0000a	e8 00 00 00 00	 call	 ___std_exception_destroy
  0000f	59		 pop	 ecx
  00010	c3		 ret	 0
??1bad_array_new_length@std@@UAE@XZ ENDP		; std::bad_array_new_length::~bad_array_new_length
_TEXT	ENDS
; Function compile flags: /Ogtp
; File C:\Program Files (x86)\Microsoft Visual Studio\2019\Community\VC\Tools\MSVC\14.28.29333\include\vcruntime_exception.h
;	COMDAT ??0bad_array_new_length@std@@QAE@XZ
_TEXT	SEGMENT
??0bad_array_new_length@std@@QAE@XZ PROC		; std::bad_array_new_length::bad_array_new_length, COMDAT
; _this$ = ecx

; 141  :     {

  00000	0f 57 c0	 xorps	 xmm0, xmm0

; 142  :     }

  00003	8b c1		 mov	 eax, ecx

; 65   :         : _Data()

  00005	66 0f d6 41 04	 movq	 QWORD PTR [ecx+4], xmm0

; 66   :     {
; 67   :         _Data._What = _Message;

  0000a	c7 41 04 00 00
	00 00		 mov	 DWORD PTR [ecx+4], OFFSET ??_C@_0BF@KINCDENJ@bad?5array?5new?5length@

; 141  :     {

  00011	c7 01 00 00 00
	00		 mov	 DWORD PTR [ecx], OFFSET ??_7bad_array_new_length@std@@6B@

; 142  :     }

  00017	c3		 ret	 0
??0bad_array_new_length@std@@QAE@XZ ENDP		; std::bad_array_new_length::bad_array_new_length
_TEXT	ENDS
; Function compile flags: /Ogtp
; File C:\Program Files (x86)\Microsoft Visual Studio\2019\Community\VC\Tools\MSVC\14.28.29333\include\vcruntime_exception.h
;	COMDAT ??_Gbad_alloc@std@@UAEPAXI@Z
_TEXT	SEGMENT
___flags$ = 8						; size = 4
??_Gbad_alloc@std@@UAEPAXI@Z PROC			; std::bad_alloc::`scalar deleting destructor', COMDAT
; _this$ = ecx
  00000	55		 push	 ebp
  00001	8b ec		 mov	 ebp, esp

; 89   :     {

  00003	56		 push	 esi
  00004	8b f1		 mov	 esi, ecx

; 90   :         __std_exception_destroy(&_Data);

  00006	8d 46 04	 lea	 eax, DWORD PTR [esi+4]
  00009	c7 06 00 00 00
	00		 mov	 DWORD PTR [esi], OFFSET ??_7exception@std@@6B@
  0000f	50		 push	 eax
  00010	e8 00 00 00 00	 call	 ___std_exception_destroy
  00015	83 c4 04	 add	 esp, 4
  00018	f6 45 08 01	 test	 BYTE PTR ___flags$[ebp], 1
  0001c	74 0b		 je	 SHORT $LN9@scalar
  0001e	6a 0c		 push	 12			; 0000000cH
  00020	56		 push	 esi
  00021	e8 00 00 00 00	 call	 ??3@YAXPAXI@Z		; operator delete
  00026	83 c4 08	 add	 esp, 8
$LN9@scalar:
  00029	8b c6		 mov	 eax, esi
  0002b	5e		 pop	 esi
  0002c	5d		 pop	 ebp
  0002d	c2 04 00	 ret	 4
??_Gbad_alloc@std@@UAEPAXI@Z ENDP			; std::bad_alloc::`scalar deleting destructor'
_TEXT	ENDS
; Function compile flags: /Ogtp
; File C:\Program Files (x86)\Microsoft Visual Studio\2019\Community\VC\Tools\MSVC\14.28.29333\include\vcruntime_exception.h
;	COMDAT ??0bad_alloc@std@@QAE@ABV01@@Z
_TEXT	SEGMENT
___that$ = 8						; size = 4
??0bad_alloc@std@@QAE@ABV01@@Z PROC			; std::bad_alloc::bad_alloc, COMDAT
; _this$ = ecx
  00000	55		 push	 ebp
  00001	8b ec		 mov	 ebp, esp

; 72   :     {

  00003	56		 push	 esi
  00004	8b f1		 mov	 esi, ecx
  00006	0f 57 c0	 xorps	 xmm0, xmm0

; 71   :         : _Data()

  00009	8d 46 04	 lea	 eax, DWORD PTR [esi+4]

; 73   :         __std_exception_copy(&_Other._Data, &_Data);

  0000c	50		 push	 eax
  0000d	c7 06 00 00 00
	00		 mov	 DWORD PTR [esi], OFFSET ??_7exception@std@@6B@
  00013	66 0f d6 00	 movq	 QWORD PTR [eax], xmm0
  00017	8b 45 08	 mov	 eax, DWORD PTR ___that$[ebp]
  0001a	83 c0 04	 add	 eax, 4
  0001d	50		 push	 eax
  0001e	e8 00 00 00 00	 call	 ___std_exception_copy
  00023	83 c4 08	 add	 esp, 8
  00026	c7 06 00 00 00
	00		 mov	 DWORD PTR [esi], OFFSET ??_7bad_alloc@std@@6B@
  0002c	8b c6		 mov	 eax, esi
  0002e	5e		 pop	 esi
  0002f	5d		 pop	 ebp
  00030	c2 04 00	 ret	 4
??0bad_alloc@std@@QAE@ABV01@@Z ENDP			; std::bad_alloc::bad_alloc
_TEXT	ENDS
; Function compile flags: /Ogtp
; File C:\Program Files (x86)\Microsoft Visual Studio\2019\Community\VC\Tools\MSVC\14.28.29333\include\vcruntime_exception.h
;	COMDAT ??_Gexception@std@@UAEPAXI@Z
_TEXT	SEGMENT
___flags$ = 8						; size = 4
??_Gexception@std@@UAEPAXI@Z PROC			; std::exception::`scalar deleting destructor', COMDAT
; _this$ = ecx
  00000	55		 push	 ebp
  00001	8b ec		 mov	 ebp, esp

; 89   :     {

  00003	56		 push	 esi
  00004	8b f1		 mov	 esi, ecx

; 90   :         __std_exception_destroy(&_Data);

  00006	8d 46 04	 lea	 eax, DWORD PTR [esi+4]
  00009	c7 06 00 00 00
	00		 mov	 DWORD PTR [esi], OFFSET ??_7exception@std@@6B@
  0000f	50		 push	 eax
  00010	e8 00 00 00 00	 call	 ___std_exception_destroy
  00015	83 c4 04	 add	 esp, 4
  00018	f6 45 08 01	 test	 BYTE PTR ___flags$[ebp], 1
  0001c	74 0b		 je	 SHORT $LN6@scalar
  0001e	6a 0c		 push	 12			; 0000000cH
  00020	56		 push	 esi
  00021	e8 00 00 00 00	 call	 ??3@YAXPAXI@Z		; operator delete
  00026	83 c4 08	 add	 esp, 8
$LN6@scalar:
  00029	8b c6		 mov	 eax, esi
  0002b	5e		 pop	 esi
  0002c	5d		 pop	 ebp
  0002d	c2 04 00	 ret	 4
??_Gexception@std@@UAEPAXI@Z ENDP			; std::exception::`scalar deleting destructor'
_TEXT	ENDS
; Function compile flags: /Ogtp
; File C:\Program Files (x86)\Microsoft Visual Studio\2019\Community\VC\Tools\MSVC\14.28.29333\include\vcruntime_exception.h
;	COMDAT ?what@exception@std@@UBEPBDXZ
_TEXT	SEGMENT
?what@exception@std@@UBEPBDXZ PROC			; std::exception::what, COMDAT
; _this$ = ecx

; 95   :         return _Data._What ? _Data._What : "Unknown exception";

  00000	8b 49 04	 mov	 ecx, DWORD PTR [ecx+4]
  00003	b8 00 00 00 00	 mov	 eax, OFFSET ??_C@_0BC@EOODALEL@Unknown?5exception@
  00008	85 c9		 test	 ecx, ecx
  0000a	0f 45 c1	 cmovne	 eax, ecx

; 96   :     }

  0000d	c3		 ret	 0
?what@exception@std@@UBEPBDXZ ENDP			; std::exception::what
_TEXT	ENDS
; Function compile flags: /Ogtp
; File C:\Program Files (x86)\Microsoft Visual Studio\2019\Community\VC\Tools\MSVC\14.28.29333\include\vcruntime_exception.h
;	COMDAT ??1exception@std@@UAE@XZ
_TEXT	SEGMENT
??1exception@std@@UAE@XZ PROC				; std::exception::~exception, COMDAT
; _this$ = ecx

; 90   :         __std_exception_destroy(&_Data);

  00000	8d 41 04	 lea	 eax, DWORD PTR [ecx+4]
  00003	c7 01 00 00 00
	00		 mov	 DWORD PTR [ecx], OFFSET ??_7exception@std@@6B@
  00009	50		 push	 eax
  0000a	e8 00 00 00 00	 call	 ___std_exception_destroy
  0000f	59		 pop	 ecx

; 91   :     }

  00010	c3		 ret	 0
??1exception@std@@UAE@XZ ENDP				; std::exception::~exception
_TEXT	ENDS
; Function compile flags: /Ogtp
; File C:\Program Files (x86)\Microsoft Visual Studio\2019\Community\VC\Tools\MSVC\14.28.29333\include\vcruntime_exception.h
;	COMDAT ??0exception@std@@QAE@ABV01@@Z
_TEXT	SEGMENT
__Other$ = 8						; size = 4
??0exception@std@@QAE@ABV01@@Z PROC			; std::exception::exception, COMDAT
; _this$ = ecx

; 72   :     {

  00000	55		 push	 ebp
  00001	8b ec		 mov	 ebp, esp
  00003	56		 push	 esi
  00004	8b f1		 mov	 esi, ecx
  00006	0f 57 c0	 xorps	 xmm0, xmm0
  00009	8d 46 04	 lea	 eax, DWORD PTR [esi+4]

; 73   :         __std_exception_copy(&_Other._Data, &_Data);

  0000c	50		 push	 eax
  0000d	c7 06 00 00 00
	00		 mov	 DWORD PTR [esi], OFFSET ??_7exception@std@@6B@
  00013	66 0f d6 00	 movq	 QWORD PTR [eax], xmm0
  00017	8b 45 08	 mov	 eax, DWORD PTR __Other$[ebp]
  0001a	83 c0 04	 add	 eax, 4
  0001d	50		 push	 eax
  0001e	e8 00 00 00 00	 call	 ___std_exception_copy
  00023	83 c4 08	 add	 esp, 8

; 74   :     }

  00026	8b c6		 mov	 eax, esi
  00028	5e		 pop	 esi
  00029	5d		 pop	 ebp
  0002a	c2 04 00	 ret	 4
??0exception@std@@QAE@ABV01@@Z ENDP			; std::exception::exception
_TEXT	ENDS
; Function compile flags: /Ogtp
;	COMDAT ??_H@YGXPAXIIP6EPAX0@Z@Z
_TEXT	SEGMENT
___t$ = 8						; size = 4
___s$ = 12						; size = 4
___n$ = 16						; size = 4
___f$ = 20						; size = 4
??_H@YGXPAXIIP6EPAX0@Z@Z PROC				; `vector constructor iterator', COMDAT
  00000	55		 push	 ebp
  00001	8b ec		 mov	 ebp, esp
  00003	56		 push	 esi
  00004	8b 75 10	 mov	 esi, DWORD PTR ___n$[ebp]
  00007	85 f6		 test	 esi, esi
  00009	74 16		 je	 SHORT $LN6@vector
  0000b	53		 push	 ebx
  0000c	8b 5d 14	 mov	 ebx, DWORD PTR ___f$[ebp]
  0000f	57		 push	 edi
  00010	8b 7d 08	 mov	 edi, DWORD PTR ___t$[ebp]
$LL2@vector:
  00013	8b cf		 mov	 ecx, edi
  00015	ff d3		 call	 ebx
  00017	03 7d 0c	 add	 edi, DWORD PTR ___s$[ebp]
  0001a	83 ee 01	 sub	 esi, 1
  0001d	75 f4		 jne	 SHORT $LL2@vector
  0001f	5f		 pop	 edi
  00020	5b		 pop	 ebx
$LN6@vector:
  00021	5e		 pop	 esi
  00022	5d		 pop	 ebp
  00023	c2 10 00	 ret	 16			; 00000010H
??_H@YGXPAXIIP6EPAX0@Z@Z ENDP				; `vector constructor iterator'
_TEXT	ENDS
END
