; Listing generated by Microsoft (R) Optimizing Compiler Version 19.28.29335.0 

	TITLE	D:\Metin2 Server Files\mainline\SRC_2014\Metin2Client\eterPythonLib\PythonGraphicTextModule.cpp
	.686P
	.XMM
	include listing.inc
	.model	flat

INCLUDELIB LIBCMT
INCLUDELIB OLDNAMES

PUBLIC	??0exception@std@@QAE@ABV01@@Z			; std::exception::exception
PUBLIC	?what@exception@std@@UBEPBDXZ			; std::exception::what
PUBLIC	??_Gexception@std@@UAEPAXI@Z			; std::exception::`scalar deleting destructor'
PUBLIC	??0bad_alloc@std@@QAE@ABV01@@Z			; std::bad_alloc::bad_alloc
PUBLIC	??_Gbad_alloc@std@@UAEPAXI@Z			; std::bad_alloc::`scalar deleting destructor'
PUBLIC	??0bad_array_new_length@std@@QAE@XZ		; std::bad_array_new_length::bad_array_new_length
PUBLIC	??1bad_array_new_length@std@@UAE@XZ		; std::bad_array_new_length::~bad_array_new_length
PUBLIC	??0bad_array_new_length@std@@QAE@ABV01@@Z	; std::bad_array_new_length::bad_array_new_length
PUBLIC	??_Gbad_array_new_length@std@@UAEPAXI@Z		; std::bad_array_new_length::`scalar deleting destructor'
PUBLIC	?_Throw_bad_array_new_length@std@@YAXXZ		; std::_Throw_bad_array_new_length
PUBLIC	?_Adjust_manually_vector_aligned@std@@YAXAAPAXAAI@Z ; std::_Adjust_manually_vector_aligned
PUBLIC	?_Xlen_string@std@@YAXXZ			; std::_Xlen_string
PUBLIC	?_Myptr@?$_String_val@U?$_Simple_types@D@std@@@std@@QAEPADXZ ; std::_String_val<std::_Simple_types<char> >::_Myptr
PUBLIC	?_Myptr@?$_String_val@U?$_Simple_types@D@std@@@std@@QBEPBDXZ ; std::_String_val<std::_Simple_types<char> >::_Myptr
PUBLIC	??0?$basic_string@DU?$char_traits@D@std@@V?$allocator@D@2@@std@@QAE@QBD@Z ; std::basic_string<char,std::char_traits<char>,std::allocator<char> >::basic_string<char,std::char_traits<char>,std::allocator<char> >
PUBLIC	??1?$basic_string@DU?$char_traits@D@std@@V?$allocator@D@2@@std@@QAE@XZ ; std::basic_string<char,std::char_traits<char>,std::allocator<char> >::~basic_string<char,std::char_traits<char>,std::allocator<char> >
PUBLIC	?append@?$basic_string@DU?$char_traits@D@std@@V?$allocator@D@2@@std@@QAEAAV12@QBDI@Z ; std::basic_string<char,std::char_traits<char>,std::allocator<char> >::append
PUBLIC	?assign@?$basic_string@DU?$char_traits@D@std@@V?$allocator@D@2@@std@@QAEAAV12@QBDI@Z ; std::basic_string<char,std::char_traits<char>,std::allocator<char> >::assign
PUBLIC	?push_back@?$basic_string@DU?$char_traits@D@std@@V?$allocator@D@2@@std@@QAEXD@Z ; std::basic_string<char,std::char_traits<char>,std::allocator<char> >::push_back
PUBLIC	?c_str@?$basic_string@DU?$char_traits@D@std@@V?$allocator@D@2@@std@@QBEPBDXZ ; std::basic_string<char,std::char_traits<char>,std::allocator<char> >::c_str
PUBLIC	?max_size@?$basic_string@DU?$char_traits@D@std@@V?$allocator@D@2@@std@@QBEIXZ ; std::basic_string<char,std::char_traits<char>,std::allocator<char> >::max_size
PUBLIC	?_Calculate_growth@?$basic_string@DU?$char_traits@D@std@@V?$allocator@D@2@@std@@CAIIII@Z ; std::basic_string<char,std::char_traits<char>,std::allocator<char> >::_Calculate_growth
PUBLIC	?_Calculate_growth@?$basic_string@DU?$char_traits@D@std@@V?$allocator@D@2@@std@@ABEII@Z ; std::basic_string<char,std::char_traits<char>,std::allocator<char> >::_Calculate_growth
PUBLIC	?_Tidy_init@?$basic_string@DU?$char_traits@D@std@@V?$allocator@D@2@@std@@AAEXXZ ; std::basic_string<char,std::char_traits<char>,std::allocator<char> >::_Tidy_init
PUBLIC	?_Tidy_deallocate@?$basic_string@DU?$char_traits@D@std@@V?$allocator@D@2@@std@@AAEXXZ ; std::basic_string<char,std::char_traits<char>,std::allocator<char> >::_Tidy_deallocate
PUBLIC	??1?$_Compressed_pair@V?$allocator@D@std@@V?$_String_val@U?$_Simple_types@D@std@@@2@$00@std@@QAE@XZ ; std::_Compressed_pair<std::allocator<char>,std::_String_val<std::_Simple_types<char> >,1>::~_Compressed_pair<std::allocator<char>,std::_String_val<std::_Simple_types<char> >,1>
PUBLIC	?initgrpText@@YAXXZ				; initgrpText
PUBLIC	??$_Destroy_in_place@PAD@std@@YAXAAPAD@Z	; std::_Destroy_in_place<char *>
PUBLIC	??$_Reallocate_for@V<lambda_9366063389c5f42a00a5088cf24e69de>@@PBD@?$basic_string@DU?$char_traits@D@std@@V?$allocator@D@2@@std@@AAEAAV01@IV<lambda_9366063389c5f42a00a5088cf24e69de>@@PBD@Z ; std::basic_string<char,std::char_traits<char>,std::allocator<char> >::_Reallocate_for<<lambda_9366063389c5f42a00a5088cf24e69de>,char const *>
PUBLIC	??$_Reallocate_grow_by@V<lambda_ab246b20b9526e2ef7792587e4298a77>@@PBDI@?$basic_string@DU?$char_traits@D@std@@V?$allocator@D@2@@std@@AAEAAV01@IV<lambda_ab246b20b9526e2ef7792587e4298a77>@@PBDI@Z ; std::basic_string<char,std::char_traits<char>,std::allocator<char> >::_Reallocate_grow_by<<lambda_ab246b20b9526e2ef7792587e4298a77>,char const *,unsigned int>
PUBLIC	??$_Construct_in_place@PADABQAD@std@@YAXAAPADABQAD@Z ; std::_Construct_in_place<char *,char * const &>
PUBLIC	??$_Deallocate@$07$0A@@std@@YAXPAXI@Z		; std::_Deallocate<8,0>
PUBLIC	??$_Allocate@$07U_Default_allocate_traits@std@@$0A@@std@@YAPAXI@Z ; std::_Allocate<8,std::_Default_allocate_traits,0>
PUBLIC	??$_Allocate_manually_vector_aligned@U_Default_allocate_traits@std@@@std@@YAPAXI@Z ; std::_Allocate_manually_vector_aligned<std::_Default_allocate_traits>
PUBLIC	?PyTuple_GetTextInstance@@YA_NPAU_object@@HPAPAVCGraphicTextInstance@@@Z ; PyTuple_GetTextInstance
PUBLIC	?grpTextGenerate@@YAPAU_object@@PAU1@0@Z	; grpTextGenerate
PUBLIC	?grpTextDestroy@@YAPAU_object@@PAU1@0@Z		; grpTextDestroy
PUBLIC	?grpTextGetSize@@YAPAU_object@@PAU1@0@Z		; grpTextGetSize
PUBLIC	?grpTextSetPosition@@YAPAU_object@@PAU1@0@Z	; grpTextSetPosition
PUBLIC	?grpTextSetText@@YAPAU_object@@PAU1@0@Z		; grpTextSetText
PUBLIC	?grpTextSetSecret@@YAPAU_object@@PAU1@0@Z	; grpTextSetSecret
PUBLIC	?grpTextOutline@@YAPAU_object@@PAU1@0@Z		; grpTextOutline
PUBLIC	?grpTextGetText@@YAPAU_object@@PAU1@0@Z		; grpTextGetText
PUBLIC	?grpTextSetFontName@@YAPAU_object@@PAU1@0@Z	; grpTextSetFontName
PUBLIC	?grpTextSetFontColor@@YAPAU_object@@PAU1@0@Z	; grpTextSetFontColor
PUBLIC	?grpTextSetOutLineColor@@YAPAU_object@@PAU1@0@Z	; grpTextSetOutLineColor
PUBLIC	?grpTextRender@@YAPAU_object@@PAU1@0@Z		; grpTextRender
PUBLIC	?grpTextUpdate@@YAPAU_object@@PAU1@0@Z		; grpTextUpdate
PUBLIC	?grpTextShowCursor@@YAPAU_object@@PAU1@0@Z	; grpTextShowCursor
PUBLIC	?grpTextHideCursor@@YAPAU_object@@PAU1@0@Z	; grpTextHideCursor
PUBLIC	?grpSetHorizontalAlign@@YAPAU_object@@PAU1@0@Z	; grpSetHorizontalAlign
PUBLIC	?grpSetVerticalAlign@@YAPAU_object@@PAU1@0@Z	; grpSetVerticalAlign
PUBLIC	?grpSetMax@@YAPAU_object@@PAU1@0@Z		; grpSetMax
PUBLIC	?grpGetSplitingTextLineCount@@YAPAU_object@@PAU1@0@Z ; grpGetSplitingTextLineCount
PUBLIC	?grpGetSplitingTextLine@@YAPAU_object@@PAU1@0@Z	; grpGetSplitingTextLine
PUBLIC	?grpTextPixelPositionToCharacterPosition@@YAPAU_object@@PAU1@0@Z ; grpTextPixelPositionToCharacterPosition
PUBLIC	??$_Reallocate_grow_by@V<lambda_15711c68e099a15a58f4d77303cb286d>@@D@?$basic_string@DU?$char_traits@D@std@@V?$allocator@D@2@@std@@AAEAAV01@IV<lambda_15711c68e099a15a58f4d77303cb286d>@@D@Z ; std::basic_string<char,std::char_traits<char>,std::allocator<char> >::_Reallocate_grow_by<<lambda_15711c68e099a15a58f4d77303cb286d>,char>
PUBLIC	??_7exception@std@@6B@				; std::exception::`vftable'
PUBLIC	??_C@_0BC@EOODALEL@Unknown?5exception@		; `string'
PUBLIC	??_7bad_alloc@std@@6B@				; std::bad_alloc::`vftable'
PUBLIC	??_7bad_array_new_length@std@@6B@		; std::bad_array_new_length::`vftable'
PUBLIC	??_C@_0BF@KINCDENJ@bad?5array?5new?5length@	; `string'
PUBLIC	__TI3?AVbad_array_new_length@std@@
PUBLIC	__CTA3?AVbad_array_new_length@std@@
PUBLIC	??_R0?AVbad_array_new_length@std@@@8		; std::bad_array_new_length `RTTI Type Descriptor'
PUBLIC	__CT??_R0?AVbad_array_new_length@std@@@8??0bad_array_new_length@std@@QAE@ABV01@@Z12
PUBLIC	??_R0?AVbad_alloc@std@@@8			; std::bad_alloc `RTTI Type Descriptor'
PUBLIC	__CT??_R0?AVbad_alloc@std@@@8??0bad_alloc@std@@QAE@ABV01@@Z12
PUBLIC	??_R0?AVexception@std@@@8			; std::exception `RTTI Type Descriptor'
PUBLIC	__CT??_R0?AVexception@std@@@8??0exception@std@@QAE@ABV01@@Z12
PUBLIC	??_C@_0BA@JFNIOLAK@string?5too?5long@		; `string'
PUBLIC	??_C@_00CNPNBAHC@@				; `string'
PUBLIC	?ms_singleton@?$CSingleton@VCResourceManager@@@@0PAVCResourceManager@@A ; CSingleton<CResourceManager>::ms_singleton
PUBLIC	??_R4exception@std@@6B@				; std::exception::`RTTI Complete Object Locator'
PUBLIC	??_R3exception@std@@8				; std::exception::`RTTI Class Hierarchy Descriptor'
PUBLIC	??_R2exception@std@@8				; std::exception::`RTTI Base Class Array'
PUBLIC	??_R1A@?0A@EA@exception@std@@8			; std::exception::`RTTI Base Class Descriptor at (0,-1,0,64)'
PUBLIC	??_R4bad_alloc@std@@6B@				; std::bad_alloc::`RTTI Complete Object Locator'
PUBLIC	??_R3bad_alloc@std@@8				; std::bad_alloc::`RTTI Class Hierarchy Descriptor'
PUBLIC	??_R2bad_alloc@std@@8				; std::bad_alloc::`RTTI Base Class Array'
PUBLIC	??_R1A@?0A@EA@bad_alloc@std@@8			; std::bad_alloc::`RTTI Base Class Descriptor at (0,-1,0,64)'
PUBLIC	??_R4bad_array_new_length@std@@6B@		; std::bad_array_new_length::`RTTI Complete Object Locator'
PUBLIC	??_R3bad_array_new_length@std@@8		; std::bad_array_new_length::`RTTI Class Hierarchy Descriptor'
PUBLIC	??_R2bad_array_new_length@std@@8		; std::bad_array_new_length::`RTTI Base Class Array'
PUBLIC	??_R1A@?0A@EA@bad_array_new_length@std@@8	; std::bad_array_new_length::`RTTI Base Class Descriptor at (0,-1,0,64)'
PUBLIC	??_C@_01KBJDNOO@i@				; `string'
PUBLIC	??_C@_06BGHJALJH@?$CIi?0?5i?$CJ@		; `string'
PUBLIC	??_C@_01LKDEMHDF@s@				; `string'
PUBLIC	??_C@_04FAHLGLIA@?4fnt@				; `string'
PUBLIC	??_C@_06LMAGPFNF@Update@			; `string'
PUBLIC	??_C@_06EPLDPNDB@Render@			; `string'
PUBLIC	??_C@_08PDEEPOLG@Generate@			; `string'
PUBLIC	??_C@_07BDCAJABG@Destroy@			; `string'
PUBLIC	??_C@_0M@MCELKPNO@SetFontName@			; `string'
PUBLIC	??_C@_0N@MKCFOAAE@SetFontColor@			; `string'
PUBLIC	??_C@_0BA@MNDFNKJH@SetOutLineColor@		; `string'
PUBLIC	??_C@_09CAFHEMDD@SetSecret@			; `string'
PUBLIC	??_C@_0L@HBNEJDMM@SetOutline@			; `string'
PUBLIC	??_C@_07NIJDBDAG@SetText@			; `string'
PUBLIC	??_C@_07CAGCCMNH@GetText@			; `string'
PUBLIC	??_C@_07IIMJLIAB@GetSize@			; `string'
PUBLIC	??_C@_0M@GKIFPNAD@SetPosition@			; `string'
PUBLIC	??_C@_0L@BIENLPGM@ShowCursor@			; `string'
PUBLIC	??_C@_0L@MGJDDPFG@HideCursor@			; `string'
PUBLIC	??_C@_0BD@FCLDCEMA@SetHorizontalAlign@		; `string'
PUBLIC	??_C@_0BB@NKHPOFIC@SetVerticalAlign@		; `string'
PUBLIC	??_C@_06ODEINJEE@SetMax@			; `string'
PUBLIC	??_C@_0BJ@JAMBOGDP@GetSplitingTextLineCount@	; `string'
PUBLIC	??_C@_0BE@NHLLEHMO@GetSplitingTextLine@		; `string'
PUBLIC	??_C@_0CB@NLPGLAHJ@PixelPositionToCharacterPositio@ ; `string'
PUBLIC	??_C@_07OAPMKONH@grpText@			; `string'
PUBLIC	__real@3f800000
EXTRN	??2@YAPAXI@Z:PROC				; operator new
EXTRN	??3@YAXPAXI@Z:PROC				; operator delete
EXTRN	__invalid_parameter_noinfo_noreturn:PROC
EXTRN	_memcpy:PROC
EXTRN	_memmove:PROC
EXTRN	_strlen:PROC
EXTRN	___std_exception_copy:PROC
EXTRN	___std_exception_destroy:PROC
EXTRN	??_Eexception@std@@UAEPAXI@Z:PROC		; std::exception::`vector deleting destructor'
EXTRN	??_Ebad_alloc@std@@UAEPAXI@Z:PROC		; std::bad_alloc::`vector deleting destructor'
EXTRN	??_Ebad_array_new_length@std@@UAEPAXI@Z:PROC	; std::bad_array_new_length::`vector deleting destructor'
EXTRN	?_Xlength_error@std@@YAXPBD@Z:PROC		; std::_Xlength_error
EXTRN	__imp__PyTuple_Size:PROC
EXTRN	__imp__Py_BuildValue:PROC
EXTRN	__imp__Py_InitModule4:PROC
EXTRN	?PyTuple_GetString@@YA_NPAU_object@@HPAPAD@Z:PROC ; PyTuple_GetString
EXTRN	?PyTuple_GetInteger@@YA_NPAU_object@@HPAH@Z:PROC ; PyTuple_GetInteger
EXTRN	?PyTuple_GetFloat@@YA_NPAU_object@@HPAM@Z:PROC	; PyTuple_GetFloat
EXTRN	?PyTuple_GetBoolean@@YA_NPAU_object@@HPA_N@Z:PROC ; PyTuple_GetBoolean
EXTRN	?Py_BuildException@@YAPAU_object@@PBDZZ:PROC	; Py_BuildException
EXTRN	?Py_BuildNone@@YAPAU_object@@XZ:PROC		; Py_BuildNone
EXTRN	?GetResourcePointer@CResourceManager@@QAEPAVCResource@@PBD@Z:PROC ; CResourceManager::GetResourcePointer
EXTRN	?Update@CGraphicTextInstance@@QAEXXZ:PROC	; CGraphicTextInstance::Update
EXTRN	?Render@CGraphicTextInstance@@QAEXPAUtagRECT@@@Z:PROC ; CGraphicTextInstance::Render
EXTRN	?ShowCursor@CGraphicTextInstance@@QAEXXZ:PROC	; CGraphicTextInstance::ShowCursor
EXTRN	?HideCursor@CGraphicTextInstance@@QAEXXZ:PROC	; CGraphicTextInstance::HideCursor
EXTRN	?SetColor@CGraphicTextInstance@@QAEXK@Z:PROC	; CGraphicTextInstance::SetColor
EXTRN	?SetColor@CGraphicTextInstance@@QAEXMMMM@Z:PROC	; CGraphicTextInstance::SetColor
EXTRN	?SetOutLineColor@CGraphicTextInstance@@QAEXMMMM@Z:PROC ; CGraphicTextInstance::SetOutLineColor
EXTRN	?SetHorizonalAlign@CGraphicTextInstance@@QAEXH@Z:PROC ; CGraphicTextInstance::SetHorizonalAlign
EXTRN	?SetVerticalAlign@CGraphicTextInstance@@QAEXH@Z:PROC ; CGraphicTextInstance::SetVerticalAlign
EXTRN	?SetMax@CGraphicTextInstance@@QAEXH@Z:PROC	; CGraphicTextInstance::SetMax
EXTRN	?SetTextPointer@CGraphicTextInstance@@QAEXPAVCGraphicText@@@Z:PROC ; CGraphicTextInstance::SetTextPointer
EXTRN	?SetValue@CGraphicTextInstance@@QAEXPBDI@Z:PROC	; CGraphicTextInstance::SetValue
EXTRN	?SetPosition@CGraphicTextInstance@@QAEXMMM@Z:PROC ; CGraphicTextInstance::SetPosition
EXTRN	?SetSecret@CGraphicTextInstance@@QAEX_N@Z:PROC	; CGraphicTextInstance::SetSecret
EXTRN	?SetOutline@CGraphicTextInstance@@QAEX_N@Z:PROC	; CGraphicTextInstance::SetOutline
EXTRN	?GetTextSize@CGraphicTextInstance@@QAEXPAH0@Z:PROC ; CGraphicTextInstance::GetTextSize
EXTRN	?GetValueStringReference@CGraphicTextInstance@@QAEABV?$basic_string@DU?$char_traits@D@std@@V?$allocator@D@2@@std@@XZ:PROC ; CGraphicTextInstance::GetValueStringReference
EXTRN	?PixelPositionToCharacterPosition@CGraphicTextInstance@@QAEHH@Z:PROC ; CGraphicTextInstance::PixelPositionToCharacterPosition
EXTRN	?New@CGraphicTextInstance@@SAPAV1@XZ:PROC	; CGraphicTextInstance::New
EXTRN	?Delete@CGraphicTextInstance@@SAXPAV1@@Z:PROC	; CGraphicTextInstance::Delete
EXTRN	@__security_check_cookie@4:PROC
EXTRN	__CxxThrowException@8:PROC
EXTRN	___CxxFrameHandler3:PROC
EXTRN	??_7type_info@@6B@:QWORD			; type_info::`vftable'
EXTRN	___security_cookie:DWORD
EXTRN	__fltused:DWORD
;	COMDAT ?ms_singleton@?$CSingleton@VCResourceManager@@@@0PAVCResourceManager@@A
_BSS	SEGMENT
?ms_singleton@?$CSingleton@VCResourceManager@@@@0PAVCResourceManager@@A DD 01H DUP (?) ; CSingleton<CResourceManager>::ms_singleton
_BSS	ENDS
;	COMDAT __real@3f800000
CONST	SEGMENT
__real@3f800000 DD 03f800000r			; 1
CONST	ENDS
;	COMDAT ??_C@_07OAPMKONH@grpText@
CONST	SEGMENT
??_C@_07OAPMKONH@grpText@ DB 'grpText', 00H		; `string'
CONST	ENDS
;	COMDAT ??_C@_0CB@NLPGLAHJ@PixelPositionToCharacterPositio@
CONST	SEGMENT
??_C@_0CB@NLPGLAHJ@PixelPositionToCharacterPositio@ DB 'PixelPositionToCh'
	DB	'aracterPosition', 00H			; `string'
CONST	ENDS
;	COMDAT ??_C@_0BE@NHLLEHMO@GetSplitingTextLine@
CONST	SEGMENT
??_C@_0BE@NHLLEHMO@GetSplitingTextLine@ DB 'GetSplitingTextLine', 00H ; `string'
CONST	ENDS
;	COMDAT ??_C@_0BJ@JAMBOGDP@GetSplitingTextLineCount@
CONST	SEGMENT
??_C@_0BJ@JAMBOGDP@GetSplitingTextLineCount@ DB 'GetSplitingTextLineCount'
	DB	00H						; `string'
CONST	ENDS
;	COMDAT ??_C@_06ODEINJEE@SetMax@
CONST	SEGMENT
??_C@_06ODEINJEE@SetMax@ DB 'SetMax', 00H		; `string'
CONST	ENDS
;	COMDAT ??_C@_0BB@NKHPOFIC@SetVerticalAlign@
CONST	SEGMENT
??_C@_0BB@NKHPOFIC@SetVerticalAlign@ DB 'SetVerticalAlign', 00H ; `string'
CONST	ENDS
;	COMDAT ??_C@_0BD@FCLDCEMA@SetHorizontalAlign@
CONST	SEGMENT
??_C@_0BD@FCLDCEMA@SetHorizontalAlign@ DB 'SetHorizontalAlign', 00H ; `string'
CONST	ENDS
;	COMDAT ??_C@_0L@MGJDDPFG@HideCursor@
CONST	SEGMENT
??_C@_0L@MGJDDPFG@HideCursor@ DB 'HideCursor', 00H	; `string'
CONST	ENDS
;	COMDAT ??_C@_0L@BIENLPGM@ShowCursor@
CONST	SEGMENT
??_C@_0L@BIENLPGM@ShowCursor@ DB 'ShowCursor', 00H	; `string'
CONST	ENDS
;	COMDAT ??_C@_0M@GKIFPNAD@SetPosition@
CONST	SEGMENT
??_C@_0M@GKIFPNAD@SetPosition@ DB 'SetPosition', 00H	; `string'
CONST	ENDS
;	COMDAT ??_C@_07IIMJLIAB@GetSize@
CONST	SEGMENT
??_C@_07IIMJLIAB@GetSize@ DB 'GetSize', 00H		; `string'
CONST	ENDS
;	COMDAT ??_C@_07CAGCCMNH@GetText@
CONST	SEGMENT
??_C@_07CAGCCMNH@GetText@ DB 'GetText', 00H		; `string'
CONST	ENDS
;	COMDAT ??_C@_07NIJDBDAG@SetText@
CONST	SEGMENT
??_C@_07NIJDBDAG@SetText@ DB 'SetText', 00H		; `string'
CONST	ENDS
;	COMDAT ??_C@_0L@HBNEJDMM@SetOutline@
CONST	SEGMENT
??_C@_0L@HBNEJDMM@SetOutline@ DB 'SetOutline', 00H	; `string'
CONST	ENDS
;	COMDAT ??_C@_09CAFHEMDD@SetSecret@
CONST	SEGMENT
??_C@_09CAFHEMDD@SetSecret@ DB 'SetSecret', 00H		; `string'
CONST	ENDS
;	COMDAT ??_C@_0BA@MNDFNKJH@SetOutLineColor@
CONST	SEGMENT
??_C@_0BA@MNDFNKJH@SetOutLineColor@ DB 'SetOutLineColor', 00H ; `string'
CONST	ENDS
;	COMDAT ??_C@_0N@MKCFOAAE@SetFontColor@
CONST	SEGMENT
??_C@_0N@MKCFOAAE@SetFontColor@ DB 'SetFontColor', 00H	; `string'
CONST	ENDS
;	COMDAT ??_C@_0M@MCELKPNO@SetFontName@
CONST	SEGMENT
??_C@_0M@MCELKPNO@SetFontName@ DB 'SetFontName', 00H	; `string'
CONST	ENDS
;	COMDAT ??_C@_07BDCAJABG@Destroy@
CONST	SEGMENT
??_C@_07BDCAJABG@Destroy@ DB 'Destroy', 00H		; `string'
CONST	ENDS
;	COMDAT ??_C@_08PDEEPOLG@Generate@
CONST	SEGMENT
??_C@_08PDEEPOLG@Generate@ DB 'Generate', 00H		; `string'
CONST	ENDS
;	COMDAT ??_C@_06EPLDPNDB@Render@
CONST	SEGMENT
??_C@_06EPLDPNDB@Render@ DB 'Render', 00H		; `string'
CONST	ENDS
;	COMDAT ??_C@_06LMAGPFNF@Update@
CONST	SEGMENT
??_C@_06LMAGPFNF@Update@ DB 'Update', 00H		; `string'
CONST	ENDS
;	COMDAT ?s_methods@?1??initgrpText@@YAXXZ@4PAUPyMethodDef@@A
_DATA	SEGMENT
?s_methods@?1??initgrpText@@YAXXZ@4PAUPyMethodDef@@A DD FLAT:??_C@_06LMAGPFNF@Update@ ; `initgrpText'::`2'::s_methods
	DD	FLAT:?grpTextUpdate@@YAPAU_object@@PAU1@0@Z
	DD	01H
	ORG $+4
	DD	FLAT:??_C@_06EPLDPNDB@Render@
	DD	FLAT:?grpTextRender@@YAPAU_object@@PAU1@0@Z
	DD	01H
	ORG $+4
	DD	FLAT:??_C@_08PDEEPOLG@Generate@
	DD	FLAT:?grpTextGenerate@@YAPAU_object@@PAU1@0@Z
	DD	01H
	ORG $+4
	DD	FLAT:??_C@_07BDCAJABG@Destroy@
	DD	FLAT:?grpTextDestroy@@YAPAU_object@@PAU1@0@Z
	DD	01H
	ORG $+4
	DD	FLAT:??_C@_0M@MCELKPNO@SetFontName@
	DD	FLAT:?grpTextSetFontName@@YAPAU_object@@PAU1@0@Z
	DD	01H
	ORG $+4
	DD	FLAT:??_C@_0N@MKCFOAAE@SetFontColor@
	DD	FLAT:?grpTextSetFontColor@@YAPAU_object@@PAU1@0@Z
	DD	01H
	ORG $+4
	DD	FLAT:??_C@_0BA@MNDFNKJH@SetOutLineColor@
	DD	FLAT:?grpTextSetOutLineColor@@YAPAU_object@@PAU1@0@Z
	DD	01H
	ORG $+4
	DD	FLAT:??_C@_09CAFHEMDD@SetSecret@
	DD	FLAT:?grpTextSetSecret@@YAPAU_object@@PAU1@0@Z
	DD	01H
	ORG $+4
	DD	FLAT:??_C@_0L@HBNEJDMM@SetOutline@
	DD	FLAT:?grpTextOutline@@YAPAU_object@@PAU1@0@Z
	DD	01H
	ORG $+4
	DD	FLAT:??_C@_07NIJDBDAG@SetText@
	DD	FLAT:?grpTextSetText@@YAPAU_object@@PAU1@0@Z
	DD	01H
	ORG $+4
	DD	FLAT:??_C@_07CAGCCMNH@GetText@
	DD	FLAT:?grpTextGetText@@YAPAU_object@@PAU1@0@Z
	DD	01H
	ORG $+4
	DD	FLAT:??_C@_07IIMJLIAB@GetSize@
	DD	FLAT:?grpTextGetSize@@YAPAU_object@@PAU1@0@Z
	DD	01H
	ORG $+4
	DD	FLAT:??_C@_0M@GKIFPNAD@SetPosition@
	DD	FLAT:?grpTextSetPosition@@YAPAU_object@@PAU1@0@Z
	DD	01H
	ORG $+4
	DD	FLAT:??_C@_0L@BIENLPGM@ShowCursor@
	DD	FLAT:?grpTextShowCursor@@YAPAU_object@@PAU1@0@Z
	DD	01H
	ORG $+4
	DD	FLAT:??_C@_0L@MGJDDPFG@HideCursor@
	DD	FLAT:?grpTextHideCursor@@YAPAU_object@@PAU1@0@Z
	DD	01H
	ORG $+4
	DD	FLAT:??_C@_0BD@FCLDCEMA@SetHorizontalAlign@
	DD	FLAT:?grpSetHorizontalAlign@@YAPAU_object@@PAU1@0@Z
	DD	01H
	ORG $+4
	DD	FLAT:??_C@_0BB@NKHPOFIC@SetVerticalAlign@
	DD	FLAT:?grpSetVerticalAlign@@YAPAU_object@@PAU1@0@Z
	DD	01H
	ORG $+4
	DD	FLAT:??_C@_06ODEINJEE@SetMax@
	DD	FLAT:?grpSetMax@@YAPAU_object@@PAU1@0@Z
	DD	01H
	ORG $+4
	DD	FLAT:??_C@_0BJ@JAMBOGDP@GetSplitingTextLineCount@
	DD	FLAT:?grpGetSplitingTextLineCount@@YAPAU_object@@PAU1@0@Z
	DD	01H
	ORG $+4
	DD	FLAT:??_C@_0BE@NHLLEHMO@GetSplitingTextLine@
	DD	FLAT:?grpGetSplitingTextLine@@YAPAU_object@@PAU1@0@Z
	DD	01H
	ORG $+4
	DD	FLAT:??_C@_0CB@NLPGLAHJ@PixelPositionToCharacterPositio@
	DD	FLAT:?grpTextPixelPositionToCharacterPosition@@YAPAU_object@@PAU1@0@Z
	DD	01H
	ORG $+4
	DD	00H
	DD	00H
	DD	00H
	ORG $+4
_DATA	ENDS
;	COMDAT ??_C@_04FAHLGLIA@?4fnt@
CONST	SEGMENT
??_C@_04FAHLGLIA@?4fnt@ DB '.fnt', 00H			; `string'
CONST	ENDS
;	COMDAT ??_C@_01LKDEMHDF@s@
CONST	SEGMENT
??_C@_01LKDEMHDF@s@ DB 's', 00H				; `string'
CONST	ENDS
;	COMDAT ??_C@_06BGHJALJH@?$CIi?0?5i?$CJ@
CONST	SEGMENT
??_C@_06BGHJALJH@?$CIi?0?5i?$CJ@ DB '(i, i)', 00H	; `string'
CONST	ENDS
;	COMDAT ??_C@_01KBJDNOO@i@
CONST	SEGMENT
??_C@_01KBJDNOO@i@ DB 'i', 00H				; `string'
CONST	ENDS
;	COMDAT ??_R1A@?0A@EA@bad_array_new_length@std@@8
rdata$r	SEGMENT
??_R1A@?0A@EA@bad_array_new_length@std@@8 DD FLAT:??_R0?AVbad_array_new_length@std@@@8 ; std::bad_array_new_length::`RTTI Base Class Descriptor at (0,-1,0,64)'
	DD	02H
	DD	00H
	DD	0ffffffffH
	DD	00H
	DD	040H
	DD	FLAT:??_R3bad_array_new_length@std@@8
rdata$r	ENDS
;	COMDAT ??_R2bad_array_new_length@std@@8
rdata$r	SEGMENT
??_R2bad_array_new_length@std@@8 DD FLAT:??_R1A@?0A@EA@bad_array_new_length@std@@8 ; std::bad_array_new_length::`RTTI Base Class Array'
	DD	FLAT:??_R1A@?0A@EA@bad_alloc@std@@8
	DD	FLAT:??_R1A@?0A@EA@exception@std@@8
rdata$r	ENDS
;	COMDAT ??_R3bad_array_new_length@std@@8
rdata$r	SEGMENT
??_R3bad_array_new_length@std@@8 DD 00H			; std::bad_array_new_length::`RTTI Class Hierarchy Descriptor'
	DD	00H
	DD	03H
	DD	FLAT:??_R2bad_array_new_length@std@@8
rdata$r	ENDS
;	COMDAT ??_R4bad_array_new_length@std@@6B@
rdata$r	SEGMENT
??_R4bad_array_new_length@std@@6B@ DD 00H		; std::bad_array_new_length::`RTTI Complete Object Locator'
	DD	00H
	DD	00H
	DD	FLAT:??_R0?AVbad_array_new_length@std@@@8
	DD	FLAT:??_R3bad_array_new_length@std@@8
rdata$r	ENDS
;	COMDAT ??_R1A@?0A@EA@bad_alloc@std@@8
rdata$r	SEGMENT
??_R1A@?0A@EA@bad_alloc@std@@8 DD FLAT:??_R0?AVbad_alloc@std@@@8 ; std::bad_alloc::`RTTI Base Class Descriptor at (0,-1,0,64)'
	DD	01H
	DD	00H
	DD	0ffffffffH
	DD	00H
	DD	040H
	DD	FLAT:??_R3bad_alloc@std@@8
rdata$r	ENDS
;	COMDAT ??_R2bad_alloc@std@@8
rdata$r	SEGMENT
??_R2bad_alloc@std@@8 DD FLAT:??_R1A@?0A@EA@bad_alloc@std@@8 ; std::bad_alloc::`RTTI Base Class Array'
	DD	FLAT:??_R1A@?0A@EA@exception@std@@8
rdata$r	ENDS
;	COMDAT ??_R3bad_alloc@std@@8
rdata$r	SEGMENT
??_R3bad_alloc@std@@8 DD 00H				; std::bad_alloc::`RTTI Class Hierarchy Descriptor'
	DD	00H
	DD	02H
	DD	FLAT:??_R2bad_alloc@std@@8
rdata$r	ENDS
;	COMDAT ??_R4bad_alloc@std@@6B@
rdata$r	SEGMENT
??_R4bad_alloc@std@@6B@ DD 00H				; std::bad_alloc::`RTTI Complete Object Locator'
	DD	00H
	DD	00H
	DD	FLAT:??_R0?AVbad_alloc@std@@@8
	DD	FLAT:??_R3bad_alloc@std@@8
rdata$r	ENDS
;	COMDAT ??_R1A@?0A@EA@exception@std@@8
rdata$r	SEGMENT
??_R1A@?0A@EA@exception@std@@8 DD FLAT:??_R0?AVexception@std@@@8 ; std::exception::`RTTI Base Class Descriptor at (0,-1,0,64)'
	DD	00H
	DD	00H
	DD	0ffffffffH
	DD	00H
	DD	040H
	DD	FLAT:??_R3exception@std@@8
rdata$r	ENDS
;	COMDAT ??_R2exception@std@@8
rdata$r	SEGMENT
??_R2exception@std@@8 DD FLAT:??_R1A@?0A@EA@exception@std@@8 ; std::exception::`RTTI Base Class Array'
rdata$r	ENDS
;	COMDAT ??_R3exception@std@@8
rdata$r	SEGMENT
??_R3exception@std@@8 DD 00H				; std::exception::`RTTI Class Hierarchy Descriptor'
	DD	00H
	DD	01H
	DD	FLAT:??_R2exception@std@@8
rdata$r	ENDS
;	COMDAT ??_R4exception@std@@6B@
rdata$r	SEGMENT
??_R4exception@std@@6B@ DD 00H				; std::exception::`RTTI Complete Object Locator'
	DD	00H
	DD	00H
	DD	FLAT:??_R0?AVexception@std@@@8
	DD	FLAT:??_R3exception@std@@8
rdata$r	ENDS
;	COMDAT ??_C@_00CNPNBAHC@@
CONST	SEGMENT
??_C@_00CNPNBAHC@@ DB 00H				; `string'
CONST	ENDS
;	COMDAT ??_C@_0BA@JFNIOLAK@string?5too?5long@
CONST	SEGMENT
??_C@_0BA@JFNIOLAK@string?5too?5long@ DB 'string too long', 00H ; `string'
CONST	ENDS
;	COMDAT __CT??_R0?AVexception@std@@@8??0exception@std@@QAE@ABV01@@Z12
xdata$x	SEGMENT
__CT??_R0?AVexception@std@@@8??0exception@std@@QAE@ABV01@@Z12 DD 00H
	DD	FLAT:??_R0?AVexception@std@@@8
	DD	00H
	DD	0ffffffffH
	ORG $+4
	DD	0cH
	DD	FLAT:??0exception@std@@QAE@ABV01@@Z
xdata$x	ENDS
;	COMDAT ??_R0?AVexception@std@@@8
data$r	SEGMENT
??_R0?AVexception@std@@@8 DD FLAT:??_7type_info@@6B@	; std::exception `RTTI Type Descriptor'
	DD	00H
	DB	'.?AVexception@std@@', 00H
data$r	ENDS
;	COMDAT __CT??_R0?AVbad_alloc@std@@@8??0bad_alloc@std@@QAE@ABV01@@Z12
xdata$x	SEGMENT
__CT??_R0?AVbad_alloc@std@@@8??0bad_alloc@std@@QAE@ABV01@@Z12 DD 010H
	DD	FLAT:??_R0?AVbad_alloc@std@@@8
	DD	00H
	DD	0ffffffffH
	ORG $+4
	DD	0cH
	DD	FLAT:??0bad_alloc@std@@QAE@ABV01@@Z
xdata$x	ENDS
;	COMDAT ??_R0?AVbad_alloc@std@@@8
data$r	SEGMENT
??_R0?AVbad_alloc@std@@@8 DD FLAT:??_7type_info@@6B@	; std::bad_alloc `RTTI Type Descriptor'
	DD	00H
	DB	'.?AVbad_alloc@std@@', 00H
data$r	ENDS
;	COMDAT __CT??_R0?AVbad_array_new_length@std@@@8??0bad_array_new_length@std@@QAE@ABV01@@Z12
xdata$x	SEGMENT
__CT??_R0?AVbad_array_new_length@std@@@8??0bad_array_new_length@std@@QAE@ABV01@@Z12 DD 00H
	DD	FLAT:??_R0?AVbad_array_new_length@std@@@8
	DD	00H
	DD	0ffffffffH
	ORG $+4
	DD	0cH
	DD	FLAT:??0bad_array_new_length@std@@QAE@ABV01@@Z
xdata$x	ENDS
;	COMDAT ??_R0?AVbad_array_new_length@std@@@8
data$r	SEGMENT
??_R0?AVbad_array_new_length@std@@@8 DD FLAT:??_7type_info@@6B@ ; std::bad_array_new_length `RTTI Type Descriptor'
	DD	00H
	DB	'.?AVbad_array_new_length@std@@', 00H
data$r	ENDS
;	COMDAT __CTA3?AVbad_array_new_length@std@@
xdata$x	SEGMENT
__CTA3?AVbad_array_new_length@std@@ DD 03H
	DD	FLAT:__CT??_R0?AVbad_array_new_length@std@@@8??0bad_array_new_length@std@@QAE@ABV01@@Z12
	DD	FLAT:__CT??_R0?AVbad_alloc@std@@@8??0bad_alloc@std@@QAE@ABV01@@Z12
	DD	FLAT:__CT??_R0?AVexception@std@@@8??0exception@std@@QAE@ABV01@@Z12
xdata$x	ENDS
;	COMDAT __TI3?AVbad_array_new_length@std@@
xdata$x	SEGMENT
__TI3?AVbad_array_new_length@std@@ DD 00H
	DD	FLAT:??1bad_array_new_length@std@@UAE@XZ
	DD	00H
	DD	FLAT:__CTA3?AVbad_array_new_length@std@@
xdata$x	ENDS
;	COMDAT ??_C@_0BF@KINCDENJ@bad?5array?5new?5length@
CONST	SEGMENT
??_C@_0BF@KINCDENJ@bad?5array?5new?5length@ DB 'bad array new length', 00H ; `string'
CONST	ENDS
;	COMDAT ??_7bad_array_new_length@std@@6B@
CONST	SEGMENT
??_7bad_array_new_length@std@@6B@ DD FLAT:??_R4bad_array_new_length@std@@6B@ ; std::bad_array_new_length::`vftable'
	DD	FLAT:??_Ebad_array_new_length@std@@UAEPAXI@Z
	DD	FLAT:?what@exception@std@@UBEPBDXZ
CONST	ENDS
;	COMDAT ??_7bad_alloc@std@@6B@
CONST	SEGMENT
??_7bad_alloc@std@@6B@ DD FLAT:??_R4bad_alloc@std@@6B@	; std::bad_alloc::`vftable'
	DD	FLAT:??_Ebad_alloc@std@@UAEPAXI@Z
	DD	FLAT:?what@exception@std@@UBEPBDXZ
CONST	ENDS
;	COMDAT ??_C@_0BC@EOODALEL@Unknown?5exception@
CONST	SEGMENT
??_C@_0BC@EOODALEL@Unknown?5exception@ DB 'Unknown exception', 00H ; `string'
CONST	ENDS
;	COMDAT ??_7exception@std@@6B@
CONST	SEGMENT
??_7exception@std@@6B@ DD FLAT:??_R4exception@std@@6B@	; std::exception::`vftable'
	DD	FLAT:??_Eexception@std@@UAEPAXI@Z
	DD	FLAT:?what@exception@std@@UBEPBDXZ
CONST	ENDS
;	COMDAT xdata$x
xdata$x	SEGMENT
__unwindtable$?grpGetSplitingTextLine@@YAPAU_object@@PAU1@0@Z DD 0ffffffffH
	DD	FLAT:__unwindfunclet$?grpGetSplitingTextLine@@YAPAU_object@@PAU1@0@Z$0
__ehfuncinfo$?grpGetSplitingTextLine@@YAPAU_object@@PAU1@0@Z DD 019930522H
	DD	01H
	DD	FLAT:__unwindtable$?grpGetSplitingTextLine@@YAPAU_object@@PAU1@0@Z
	DD	2 DUP(00H)
	DD	2 DUP(00H)
	DD	00H
	DD	01H
xdata$x	ENDS
;	COMDAT xdata$x
xdata$x	SEGMENT
__unwindtable$?grpTextSetFontName@@YAPAU_object@@PAU1@0@Z DD 0ffffffffH
	DD	FLAT:__unwindfunclet$?grpTextSetFontName@@YAPAU_object@@PAU1@0@Z$0
__ehfuncinfo$?grpTextSetFontName@@YAPAU_object@@PAU1@0@Z DD 019930522H
	DD	01H
	DD	FLAT:__unwindtable$?grpTextSetFontName@@YAPAU_object@@PAU1@0@Z
	DD	2 DUP(00H)
	DD	2 DUP(00H)
	DD	00H
	DD	01H
xdata$x	ENDS
;	COMDAT xdata$x
xdata$x	SEGMENT
__ehfuncinfo$??$_Deallocate@$07$0A@@std@@YAXPAXI@Z DD 019930522H
	DD	00H
	DD	00H
	DD	2 DUP(00H)
	DD	2 DUP(00H)
	DD	00H
	DD	05H
xdata$x	ENDS
;	COMDAT xdata$x
xdata$x	SEGMENT
__unwindtable$??0?$basic_string@DU?$char_traits@D@std@@V?$allocator@D@2@@std@@QAE@QBD@Z DD 0ffffffffH
	DD	FLAT:__unwindfunclet$??0?$basic_string@DU?$char_traits@D@std@@V?$allocator@D@2@@std@@QAE@QBD@Z$0
__ehfuncinfo$??0?$basic_string@DU?$char_traits@D@std@@V?$allocator@D@2@@std@@QAE@QBD@Z DD 019930522H
	DD	01H
	DD	FLAT:__unwindtable$??0?$basic_string@DU?$char_traits@D@std@@V?$allocator@D@2@@std@@QAE@QBD@Z
	DD	2 DUP(00H)
	DD	2 DUP(00H)
	DD	00H
	DD	01H
xdata$x	ENDS
; Function compile flags: /Odspy
; File C:\Program Files (x86)\Microsoft Visual Studio\2019\Community\VC\Tools\MSVC\14.28.29333\include\xstring
; File C:\Program Files (x86)\Microsoft Visual Studio\2019\Community\VC\Tools\MSVC\14.28.29333\include\xmemory
; File C:\Program Files (x86)\Microsoft Visual Studio\2019\Community\VC\Tools\MSVC\14.28.29333\include\xstring
; File C:\Program Files (x86)\Microsoft Visual Studio\2019\Community\VC\Tools\MSVC\14.28.29333\include\xmemory
; File C:\Program Files (x86)\Microsoft Visual Studio\2019\Community\VC\Tools\MSVC\14.28.29333\include\xstring
; File C:\Program Files (x86)\Microsoft Visual Studio\2019\Community\VC\Tools\MSVC\14.28.29333\include\xmemory
; File C:\Program Files (x86)\Microsoft Visual Studio\2019\Community\VC\Tools\MSVC\14.28.29333\include\xstring
; File C:\Program Files (x86)\Microsoft Visual Studio\2019\Community\VC\Tools\MSVC\14.28.29333\include\xstddef
; File C:\Program Files (x86)\Microsoft Visual Studio\2019\Community\VC\Tools\MSVC\14.28.29333\include\xstring
; File C:\Program Files (x86)\Microsoft Visual Studio\2019\Community\VC\Tools\MSVC\14.28.29333\include\xstddef
; File C:\Program Files (x86)\Microsoft Visual Studio\2019\Community\VC\Tools\MSVC\14.28.29333\include\xstring
; File C:\Program Files (x86)\Microsoft Visual Studio\2019\Community\VC\Tools\MSVC\14.28.29333\include\xmemory
; File C:\Program Files (x86)\Microsoft Visual Studio\2019\Community\VC\Tools\MSVC\14.28.29333\include\xstring
;	COMDAT ??$_Reallocate_grow_by@V<lambda_15711c68e099a15a58f4d77303cb286d>@@D@?$basic_string@DU?$char_traits@D@std@@V?$allocator@D@2@@std@@AAEAAV01@IV<lambda_15711c68e099a15a58f4d77303cb286d>@@D@Z
_TEXT	SEGMENT
__Al$ = -68						; size = 4
$T1 = -64						; size = 4
__Ptr$ = -60						; size = 4
$T2 = -56						; size = 4
__Old_ptr$3 = -52					; size = 4
__Old_capacity$ = -48					; size = 4
__New_capacity$ = -44					; size = 4
__New_size$ = -40					; size = 4
__New_ptr$ = -36					; size = 4
_this$ = -32						; size = 4
__Raw_new$ = -28					; size = 4
__My_data$ = -24					; size = 4
__Old_size$ = -20					; size = 4
__Overflow_is_possible$4 = -14				; size = 1
$T5 = -13						; size = 1
__Ch$ = -12						; size = 1
$T6 = -5						; size = 1
__Ch$ = -4						; size = 1
__Size_increase$ = 8					; size = 4
__Fn$ = 12						; size = 1
_<_Args_0>$ = 16					; size = 1
??$_Reallocate_grow_by@V<lambda_15711c68e099a15a58f4d77303cb286d>@@D@?$basic_string@DU?$char_traits@D@std@@V?$allocator@D@2@@std@@AAEAAV01@IV<lambda_15711c68e099a15a58f4d77303cb286d>@@D@Z PROC ; std::basic_string<char,std::char_traits<char>,std::allocator<char> >::_Reallocate_grow_by<<lambda_15711c68e099a15a58f4d77303cb286d>,char>, COMDAT
; _this$ = ecx

; 4328 :     basic_string& _Reallocate_grow_by(const size_type _Size_increase, _Fty _Fn, _ArgTys... _Args) {

  00000	55		 push	 ebp
  00001	8b ec		 mov	 ebp, esp
  00003	83 ec 44	 sub	 esp, 68			; 00000044H
  00006	89 4d e0	 mov	 DWORD PTR _this$[ebp], ecx

; 4329 :         // reallocate to increase size by _Size_increase elements, new buffer prepared by
; 4330 :         // _Fn(_New_ptr, _Old_ptr, _Old_size, _Args...)
; 4331 :         auto& _My_data            = _Mypair._Myval2;

  00009	8b 45 e0	 mov	 eax, DWORD PTR _this$[ebp]
  0000c	89 45 e8	 mov	 DWORD PTR __My_data$[ebp], eax

; 4332 :         const size_type _Old_size = _My_data._Mysize;

  0000f	8b 45 e8	 mov	 eax, DWORD PTR __My_data$[ebp]
  00012	8b 40 10	 mov	 eax, DWORD PTR [eax+16]
  00015	89 45 ec	 mov	 DWORD PTR __Old_size$[ebp], eax

; 4333 :         if (max_size() - _Old_size < _Size_increase) {

  00018	8b 4d e0	 mov	 ecx, DWORD PTR _this$[ebp]
  0001b	e8 00 00 00 00	 call	 ?max_size@?$basic_string@DU?$char_traits@D@std@@V?$allocator@D@2@@std@@QBEIXZ ; std::basic_string<char,std::char_traits<char>,std::allocator<char> >::max_size
  00020	2b 45 ec	 sub	 eax, DWORD PTR __Old_size$[ebp]
  00023	3b 45 08	 cmp	 eax, DWORD PTR __Size_increase$[ebp]
  00026	73 05		 jae	 SHORT $LN2@Reallocate

; 4334 :             _Xlen_string(); // result too long

  00028	e8 00 00 00 00	 call	 ?_Xlen_string@std@@YAXXZ ; std::_Xlen_string
$LN2@Reallocate:

; 4335 :         }
; 4336 : 
; 4337 :         const size_type _New_size     = _Old_size + _Size_increase;

  0002d	8b 45 ec	 mov	 eax, DWORD PTR __Old_size$[ebp]
  00030	03 45 08	 add	 eax, DWORD PTR __Size_increase$[ebp]
  00033	89 45 d8	 mov	 DWORD PTR __New_size$[ebp], eax

; 4338 :         const size_type _Old_capacity = _My_data._Myres;

  00036	8b 45 e8	 mov	 eax, DWORD PTR __My_data$[ebp]
  00039	8b 40 14	 mov	 eax, DWORD PTR [eax+20]
  0003c	89 45 d0	 mov	 DWORD PTR __Old_capacity$[ebp], eax

; 4298 :         return _Calculate_growth(_Requested, _Mypair._Myval2._Myres, max_size());

  0003f	8b 4d e0	 mov	 ecx, DWORD PTR _this$[ebp]
  00042	e8 00 00 00 00	 call	 ?max_size@?$basic_string@DU?$char_traits@D@std@@V?$allocator@D@2@@std@@QBEIXZ ; std::basic_string<char,std::char_traits<char>,std::allocator<char> >::max_size
  00047	50		 push	 eax
  00048	8b 45 e0	 mov	 eax, DWORD PTR _this$[ebp]
  0004b	ff 70 14	 push	 DWORD PTR [eax+20]
  0004e	ff 75 d8	 push	 DWORD PTR __New_size$[ebp]
  00051	e8 00 00 00 00	 call	 ?_Calculate_growth@?$basic_string@DU?$char_traits@D@std@@V?$allocator@D@2@@std@@CAIIII@Z ; std::basic_string<char,std::char_traits<char>,std::allocator<char> >::_Calculate_growth
  00056	83 c4 0c	 add	 esp, 12			; 0000000cH
  00059	89 45 d4	 mov	 DWORD PTR __New_capacity$[ebp], eax

; 4409 :         return _Mypair._Get_first();

  0005c	8b 45 e0	 mov	 eax, DWORD PTR _this$[ebp]
; File C:\Program Files (x86)\Microsoft Visual Studio\2019\Community\VC\Tools\MSVC\14.28.29333\include\xmemory

; 1347 :         return *this;

  0005f	89 45 c8	 mov	 DWORD PTR $T2[ebp], eax
; File C:\Program Files (x86)\Microsoft Visual Studio\2019\Community\VC\Tools\MSVC\14.28.29333\include\xstring

; 4409 :         return _Mypair._Get_first();

  00062	8b 45 c8	 mov	 eax, DWORD PTR $T2[ebp]
  00065	89 45 bc	 mov	 DWORD PTR __Al$[ebp], eax
; File C:\Program Files (x86)\Microsoft Visual Studio\2019\Community\VC\Tools\MSVC\14.28.29333\include\xmemory

; 56   :     constexpr bool _Overflow_is_possible = _Ty_size > 1;

  00068	c6 45 f2 00	 mov	 BYTE PTR __Overflow_is_possible$4[ebp], 0
; File C:\Program Files (x86)\Microsoft Visual Studio\2019\Community\VC\Tools\MSVC\14.28.29333\include\xstring

; 4341 :         const pointer _New_ptr        = _Al.allocate(_New_capacity + 1); // throws

  0006c	8b 45 d4	 mov	 eax, DWORD PTR __New_capacity$[ebp]
  0006f	40		 inc	 eax
; File C:\Program Files (x86)\Microsoft Visual Studio\2019\Community\VC\Tools\MSVC\14.28.29333\include\xmemory

; 814  :         return static_cast<_Ty*>(_Allocate<_New_alignof<_Ty>>(_Get_size_of_n<sizeof(_Ty)>(_Count)));

  00070	50		 push	 eax
  00071	e8 00 00 00 00	 call	 ??$_Allocate@$07U_Default_allocate_traits@std@@$0A@@std@@YAPAXI@Z ; std::_Allocate<8,std::_Default_allocate_traits,0>
  00076	59		 pop	 ecx
; File C:\Program Files (x86)\Microsoft Visual Studio\2019\Community\VC\Tools\MSVC\14.28.29333\include\xstring

; 4341 :         const pointer _New_ptr        = _Al.allocate(_New_capacity + 1); // throws

  00077	89 45 dc	 mov	 DWORD PTR __New_ptr$[ebp], eax

; 4342 :         _My_data._Orphan_all();
; 4343 :         _My_data._Mysize      = _New_size;

  0007a	8b 45 e8	 mov	 eax, DWORD PTR __My_data$[ebp]
  0007d	8b 4d d8	 mov	 ecx, DWORD PTR __New_size$[ebp]
  00080	89 48 10	 mov	 DWORD PTR [eax+16], ecx

; 4344 :         _My_data._Myres       = _New_capacity;

  00083	8b 45 e8	 mov	 eax, DWORD PTR __My_data$[ebp]
  00086	8b 4d d4	 mov	 ecx, DWORD PTR __New_capacity$[ebp]
  00089	89 48 14	 mov	 DWORD PTR [eax+20], ecx

; 4345 :         _Elem* const _Raw_new = _Unfancy(_New_ptr);

  0008c	8b 45 dc	 mov	 eax, DWORD PTR __New_ptr$[ebp]
  0008f	89 45 c4	 mov	 DWORD PTR __Ptr$[ebp], eax
; File C:\Program Files (x86)\Microsoft Visual Studio\2019\Community\VC\Tools\MSVC\14.28.29333\include\xstddef

; 289  :     return _Ptr;

  00092	8b 45 c4	 mov	 eax, DWORD PTR __Ptr$[ebp]
  00095	89 45 e4	 mov	 DWORD PTR __Raw_new$[ebp], eax
; File C:\Program Files (x86)\Microsoft Visual Studio\2019\Community\VC\Tools\MSVC\14.28.29333\include\xstring

; 4346 :         if (_BUF_SIZE <= _Old_capacity) {

  00098	83 7d d0 10	 cmp	 DWORD PTR __Old_capacity$[ebp], 16 ; 00000010H
  0009c	72 59		 jb	 SHORT $LN3@Reallocate

; 4347 :             const pointer _Old_ptr = _My_data._Bx._Ptr;

  0009e	8b 45 e8	 mov	 eax, DWORD PTR __My_data$[ebp]
  000a1	8b 00		 mov	 eax, DWORD PTR [eax]
  000a3	89 45 cc	 mov	 DWORD PTR __Old_ptr$3[ebp], eax
; File C:\Program Files (x86)\Microsoft Visual Studio\2019\Community\VC\Tools\MSVC\14.28.29333\include\xstddef

; 289  :     return _Ptr;

  000a6	8b 45 cc	 mov	 eax, DWORD PTR __Old_ptr$3[ebp]
  000a9	89 45 c0	 mov	 DWORD PTR $T1[ebp], eax
; File C:\Program Files (x86)\Microsoft Visual Studio\2019\Community\VC\Tools\MSVC\14.28.29333\include\xstring

; 4348 :             _Fn(_Raw_new, _Unfancy(_Old_ptr), _Old_size, _Args...);

  000ac	8a 45 10	 mov	 al, BYTE PTR _<_Args_0>$[ebp]
  000af	88 45 fc	 mov	 BYTE PTR __Ch$[ebp], al

; 62   :         _CSTD memcpy(_First1, _First2, _Count * sizeof(_Elem));

  000b2	ff 75 ec	 push	 DWORD PTR __Old_size$[ebp]
  000b5	ff 75 c0	 push	 DWORD PTR $T1[ebp]
  000b8	ff 75 e4	 push	 DWORD PTR __Raw_new$[ebp]
  000bb	e8 00 00 00 00	 call	 _memcpy
  000c0	83 c4 0c	 add	 esp, 12			; 0000000cH

; 428  :         _Left = _Right;

  000c3	8b 45 e4	 mov	 eax, DWORD PTR __Raw_new$[ebp]
  000c6	03 45 ec	 add	 eax, DWORD PTR __Old_size$[ebp]
  000c9	8a 4d fc	 mov	 cl, BYTE PTR __Ch$[ebp]
  000cc	88 08		 mov	 BYTE PTR [eax], cl

; 3706 :                 _Traits::assign(_New_ptr[_Old_size + 1], _Elem());

  000ce	c6 45 fb 00	 mov	 BYTE PTR $T6[ebp], 0

; 428  :         _Left = _Right;

  000d2	8b 45 e4	 mov	 eax, DWORD PTR __Raw_new$[ebp]
  000d5	03 45 ec	 add	 eax, DWORD PTR __Old_size$[ebp]
  000d8	8a 4d fb	 mov	 cl, BYTE PTR $T6[ebp]
  000db	88 48 01	 mov	 BYTE PTR [eax+1], cl

; 4349 :             _Al.deallocate(_Old_ptr, _Old_capacity + 1);

  000de	8b 45 d0	 mov	 eax, DWORD PTR __Old_capacity$[ebp]
  000e1	40		 inc	 eax
; File C:\Program Files (x86)\Microsoft Visual Studio\2019\Community\VC\Tools\MSVC\14.28.29333\include\xmemory

; 810  :         _Deallocate<_New_alignof<_Ty>>(_Ptr, sizeof(_Ty) * _Count);

  000e2	50		 push	 eax
  000e3	ff 75 cc	 push	 DWORD PTR __Old_ptr$3[ebp]
  000e6	e8 00 00 00 00	 call	 ??$_Deallocate@$07$0A@@std@@YAXPAXI@Z ; std::_Deallocate<8,0>
  000eb	59		 pop	 ecx
  000ec	59		 pop	 ecx
; File C:\Program Files (x86)\Microsoft Visual Studio\2019\Community\VC\Tools\MSVC\14.28.29333\include\xstring

; 4350 :             _My_data._Bx._Ptr = _New_ptr;

  000ed	8b 45 e8	 mov	 eax, DWORD PTR __My_data$[ebp]
  000f0	8b 4d dc	 mov	 ecx, DWORD PTR __New_ptr$[ebp]
  000f3	89 08		 mov	 DWORD PTR [eax], ecx

; 4351 :         } else {

  000f5	eb 40		 jmp	 SHORT $LN4@Reallocate
$LN3@Reallocate:

; 4352 :             _Fn(_Raw_new, _My_data._Bx._Buf, _Old_size, _Args...);

  000f7	8a 45 10	 mov	 al, BYTE PTR _<_Args_0>$[ebp]
  000fa	88 45 f4	 mov	 BYTE PTR __Ch$[ebp], al

; 62   :         _CSTD memcpy(_First1, _First2, _Count * sizeof(_Elem));

  000fd	ff 75 ec	 push	 DWORD PTR __Old_size$[ebp]
  00100	ff 75 e8	 push	 DWORD PTR __My_data$[ebp]
  00103	ff 75 e4	 push	 DWORD PTR __Raw_new$[ebp]
  00106	e8 00 00 00 00	 call	 _memcpy
  0010b	83 c4 0c	 add	 esp, 12			; 0000000cH

; 428  :         _Left = _Right;

  0010e	8b 45 e4	 mov	 eax, DWORD PTR __Raw_new$[ebp]
  00111	03 45 ec	 add	 eax, DWORD PTR __Old_size$[ebp]
  00114	8a 4d f4	 mov	 cl, BYTE PTR __Ch$[ebp]
  00117	88 08		 mov	 BYTE PTR [eax], cl

; 3706 :                 _Traits::assign(_New_ptr[_Old_size + 1], _Elem());

  00119	c6 45 f3 00	 mov	 BYTE PTR $T5[ebp], 0

; 428  :         _Left = _Right;

  0011d	8b 45 e4	 mov	 eax, DWORD PTR __Raw_new$[ebp]
  00120	03 45 ec	 add	 eax, DWORD PTR __Old_size$[ebp]
  00123	8a 4d f3	 mov	 cl, BYTE PTR $T5[ebp]
  00126	88 48 01	 mov	 BYTE PTR [eax+1], cl

; 4353 :             _Construct_in_place(_My_data._Bx._Ptr, _New_ptr);

  00129	8d 45 dc	 lea	 eax, DWORD PTR __New_ptr$[ebp]
  0012c	50		 push	 eax
  0012d	ff 75 e8	 push	 DWORD PTR __My_data$[ebp]
  00130	e8 00 00 00 00	 call	 ??$_Construct_in_place@PADABQAD@std@@YAXAAPADABQAD@Z ; std::_Construct_in_place<char *,char * const &>
  00135	59		 pop	 ecx
  00136	59		 pop	 ecx
$LN4@Reallocate:

; 4354 :         }
; 4355 : 
; 4356 :         return *this;

  00137	8b 45 e0	 mov	 eax, DWORD PTR _this$[ebp]
$LN5@Reallocate:

; 4357 :     }

  0013a	c9		 leave
  0013b	c2 0c 00	 ret	 12			; 0000000cH
??$_Reallocate_grow_by@V<lambda_15711c68e099a15a58f4d77303cb286d>@@D@?$basic_string@DU?$char_traits@D@std@@V?$allocator@D@2@@std@@AAEAAV01@IV<lambda_15711c68e099a15a58f4d77303cb286d>@@D@Z ENDP ; std::basic_string<char,std::char_traits<char>,std::allocator<char> >::_Reallocate_grow_by<<lambda_15711c68e099a15a58f4d77303cb286d>,char>
_TEXT	ENDS
; Function compile flags: /Odspy
; File D:\Metin2 Server Files\mainline\SRC_2014\Metin2Client\eterPythonLib\PythonGraphicTextModule.cpp
;	COMDAT ?grpTextPixelPositionToCharacterPosition@@YAPAU_object@@PAU1@0@Z
_TEXT	SEGMENT
_iCharacterPosition$ = -12				; size = 4
_pTextInstance$ = -8					; size = 4
_iPixelPosition$ = -4					; size = 4
_poSelf$ = 8						; size = 4
_poArgs$ = 12						; size = 4
?grpTextPixelPositionToCharacterPosition@@YAPAU_object@@PAU1@0@Z PROC ; grpTextPixelPositionToCharacterPosition, COMDAT

; 383  : {

  00000	55		 push	 ebp
  00001	8b ec		 mov	 ebp, esp
  00003	83 ec 0c	 sub	 esp, 12			; 0000000cH

; 384  : 	CGraphicTextInstance * pTextInstance;
; 385  : 	if (!PyTuple_GetTextInstance(poArgs, 0, &pTextInstance))

  00006	8d 45 f8	 lea	 eax, DWORD PTR _pTextInstance$[ebp]
  00009	50		 push	 eax
  0000a	6a 00		 push	 0
  0000c	ff 75 0c	 push	 DWORD PTR _poArgs$[ebp]
  0000f	e8 00 00 00 00	 call	 ?PyTuple_GetTextInstance@@YA_NPAU_object@@HPAPAVCGraphicTextInstance@@@Z ; PyTuple_GetTextInstance
  00014	83 c4 0c	 add	 esp, 12			; 0000000cH
  00017	0f b6 c0	 movzx	 eax, al
  0001a	85 c0		 test	 eax, eax
  0001c	75 0a		 jne	 SHORT $LN2@grpTextPix

; 386  : 		return Py_BuildException();

  0001e	6a 00		 push	 0
  00020	e8 00 00 00 00	 call	 ?Py_BuildException@@YAPAU_object@@PBDZZ ; Py_BuildException
  00025	59		 pop	 ecx
  00026	eb 40		 jmp	 SHORT $LN1@grpTextPix
$LN2@grpTextPix:

; 387  : 
; 388  : 	int iPixelPosition;
; 389  : 	if (!PyTuple_GetInteger(poArgs, 1, &iPixelPosition))

  00028	8d 45 fc	 lea	 eax, DWORD PTR _iPixelPosition$[ebp]
  0002b	50		 push	 eax
  0002c	6a 01		 push	 1
  0002e	ff 75 0c	 push	 DWORD PTR _poArgs$[ebp]
  00031	e8 00 00 00 00	 call	 ?PyTuple_GetInteger@@YA_NPAU_object@@HPAH@Z ; PyTuple_GetInteger
  00036	83 c4 0c	 add	 esp, 12			; 0000000cH
  00039	0f b6 c0	 movzx	 eax, al
  0003c	85 c0		 test	 eax, eax
  0003e	75 0a		 jne	 SHORT $LN3@grpTextPix

; 390  : 		return Py_BuildException();

  00040	6a 00		 push	 0
  00042	e8 00 00 00 00	 call	 ?Py_BuildException@@YAPAU_object@@PBDZZ ; Py_BuildException
  00047	59		 pop	 ecx
  00048	eb 1e		 jmp	 SHORT $LN1@grpTextPix
$LN3@grpTextPix:

; 391  : 
; 392  : 	int iCharacterPosition = pTextInstance->PixelPositionToCharacterPosition(iPixelPosition);

  0004a	ff 75 fc	 push	 DWORD PTR _iPixelPosition$[ebp]
  0004d	8b 4d f8	 mov	 ecx, DWORD PTR _pTextInstance$[ebp]
  00050	e8 00 00 00 00	 call	 ?PixelPositionToCharacterPosition@CGraphicTextInstance@@QAEHH@Z ; CGraphicTextInstance::PixelPositionToCharacterPosition
  00055	89 45 f4	 mov	 DWORD PTR _iCharacterPosition$[ebp], eax

; 393  : 
; 394  : 	return Py_BuildValue("i", iCharacterPosition);

  00058	ff 75 f4	 push	 DWORD PTR _iCharacterPosition$[ebp]
  0005b	68 00 00 00 00	 push	 OFFSET ??_C@_01KBJDNOO@i@
  00060	ff 15 00 00 00
	00		 call	 DWORD PTR __imp__Py_BuildValue
  00066	59		 pop	 ecx
  00067	59		 pop	 ecx
$LN1@grpTextPix:

; 395  : }

  00068	c9		 leave
  00069	c3		 ret	 0
?grpTextPixelPositionToCharacterPosition@@YAPAU_object@@PAU1@0@Z ENDP ; grpTextPixelPositionToCharacterPosition
_TEXT	ENDS
; Function compile flags: /Odspy
; File D:\Metin2 Server Files\mainline\SRC_2014\Metin2Client\eterPythonLib\PythonGraphicTextModule.cpp
; File C:\Program Files (x86)\Microsoft Visual Studio\2019\Community\VC\Tools\MSVC\14.28.29333\include\xstring
; File D:\Metin2 Server Files\mainline\SRC_2014\Metin2Client\eterPythonLib\PythonGraphicTextModule.cpp
; File C:\Program Files (x86)\Microsoft Visual Studio\2019\Community\VC\Tools\MSVC\14.28.29333\include\xstring
; File D:\Metin2 Server Files\mainline\SRC_2014\Metin2Client\eterPythonLib\PythonGraphicTextModule.cpp
;	COMDAT ?grpGetSplitingTextLine@@YAPAU_object@@PAU1@0@Z
_TEXT	SEGMENT
$T2 = -72						; size = 4
_iLineLimitation$ = -68					; size = 4
__Ch$ = -64						; size = 1
_iGettingLine$ = -60					; size = 4
_szText$ = -56						; size = 4
_iLineCount$ = -52					; size = 4
_iPosition$ = -48					; size = 4
_i$3 = -44						; size = 4
_strLine$ = -40						; size = 24
__$ArrayPad$ = -16					; size = 4
__$EHRec$ = -12						; size = 12
_poSelf$ = 8						; size = 4
_poArgs$ = 12						; size = 4
?grpGetSplitingTextLine@@YAPAU_object@@PAU1@0@Z PROC	; grpGetSplitingTextLine, COMDAT

; 323  : {

  00000	55		 push	 ebp
  00001	8b ec		 mov	 ebp, esp
  00003	6a ff		 push	 -1
  00005	68 00 00 00 00	 push	 __ehhandler$?grpGetSplitingTextLine@@YAPAU_object@@PAU1@0@Z
  0000a	64 a1 00 00 00
	00		 mov	 eax, DWORD PTR fs:0
  00010	50		 push	 eax
  00011	83 ec 3c	 sub	 esp, 60			; 0000003cH
  00014	a1 00 00 00 00	 mov	 eax, DWORD PTR ___security_cookie
  00019	33 c5		 xor	 eax, ebp
  0001b	89 45 f0	 mov	 DWORD PTR __$ArrayPad$[ebp], eax
  0001e	50		 push	 eax
  0001f	8d 45 f4	 lea	 eax, DWORD PTR __$EHRec$[ebp]
  00022	64 a3 00 00 00
	00		 mov	 DWORD PTR fs:0, eax

; 324  : 	char * szText;
; 325  : 	if (!PyTuple_GetString(poArgs, 0, &szText))

  00028	8d 45 c8	 lea	 eax, DWORD PTR _szText$[ebp]
  0002b	50		 push	 eax
  0002c	6a 00		 push	 0
  0002e	ff 75 0c	 push	 DWORD PTR _poArgs$[ebp]
  00031	e8 00 00 00 00	 call	 ?PyTuple_GetString@@YA_NPAU_object@@HPAPAD@Z ; PyTuple_GetString
  00036	83 c4 0c	 add	 esp, 12			; 0000000cH
  00039	0f b6 c0	 movzx	 eax, al
  0003c	85 c0		 test	 eax, eax
  0003e	75 0d		 jne	 SHORT $LN5@grpGetSpli

; 326  : 		return Py_BuildException();

  00040	6a 00		 push	 0
  00042	e8 00 00 00 00	 call	 ?Py_BuildException@@YAPAU_object@@PBDZZ ; Py_BuildException
  00047	59		 pop	 ecx
  00048	e9 48 01 00 00	 jmp	 $LN1@grpGetSpli
$LN5@grpGetSpli:

; 327  : 
; 328  : 	int iLineLimitation;
; 329  : 	if (!PyTuple_GetInteger(poArgs, 1, &iLineLimitation))

  0004d	8d 45 bc	 lea	 eax, DWORD PTR _iLineLimitation$[ebp]
  00050	50		 push	 eax
  00051	6a 01		 push	 1
  00053	ff 75 0c	 push	 DWORD PTR _poArgs$[ebp]
  00056	e8 00 00 00 00	 call	 ?PyTuple_GetInteger@@YA_NPAU_object@@HPAH@Z ; PyTuple_GetInteger
  0005b	83 c4 0c	 add	 esp, 12			; 0000000cH
  0005e	0f b6 c0	 movzx	 eax, al
  00061	85 c0		 test	 eax, eax
  00063	75 0d		 jne	 SHORT $LN6@grpGetSpli

; 330  : 		return Py_BuildException();

  00065	6a 00		 push	 0
  00067	e8 00 00 00 00	 call	 ?Py_BuildException@@YAPAU_object@@PBDZZ ; Py_BuildException
  0006c	59		 pop	 ecx
  0006d	e9 23 01 00 00	 jmp	 $LN1@grpGetSpli
$LN6@grpGetSpli:

; 331  : 
; 332  : 	int iGettingLine;
; 333  : 	if (!PyTuple_GetInteger(poArgs, 2, &iGettingLine))

  00072	8d 45 c4	 lea	 eax, DWORD PTR _iGettingLine$[ebp]
  00075	50		 push	 eax
  00076	6a 02		 push	 2
  00078	ff 75 0c	 push	 DWORD PTR _poArgs$[ebp]
  0007b	e8 00 00 00 00	 call	 ?PyTuple_GetInteger@@YA_NPAU_object@@HPAH@Z ; PyTuple_GetInteger
  00080	83 c4 0c	 add	 esp, 12			; 0000000cH
  00083	0f b6 c0	 movzx	 eax, al
  00086	85 c0		 test	 eax, eax
  00088	75 0d		 jne	 SHORT $LN7@grpGetSpli

; 334  : 		return Py_BuildException();

  0008a	6a 00		 push	 0
  0008c	e8 00 00 00 00	 call	 ?Py_BuildException@@YAPAU_object@@PBDZZ ; Py_BuildException
  00091	59		 pop	 ecx
  00092	e9 fe 00 00 00	 jmp	 $LN1@grpGetSpli
$LN7@grpGetSpli:

; 335  : 
; 336  : 	std::string strLine = "";

  00097	68 00 00 00 00	 push	 OFFSET ??_C@_00CNPNBAHC@@
  0009c	8d 4d d8	 lea	 ecx, DWORD PTR _strLine$[ebp]
  0009f	e8 00 00 00 00	 call	 ??0?$basic_string@DU?$char_traits@D@std@@V?$allocator@D@2@@std@@QAE@QBD@Z ; std::basic_string<char,std::char_traits<char>,std::allocator<char> >::basic_string<char,std::char_traits<char>,std::allocator<char> >
  000a4	83 65 fc 00	 and	 DWORD PTR __$EHRec$[ebp+8], 0

; 337  : 	int iPosition = 0;

  000a8	83 65 d0 00	 and	 DWORD PTR _iPosition$[ebp], 0

; 338  : 	int iLineCount = 0;

  000ac	83 65 cc 00	 and	 DWORD PTR _iLineCount$[ebp], 0

; 339  : 
; 340  : 	// 1차 : 조금 더 깔끔하게 안될까 -_-a
; 341  : 	// 2차 : 오.. 좀 나아졌다 +_+
; 342  : 	for (DWORD i = 0; i < strlen(szText);)

  000b0	83 65 d4 00	 and	 DWORD PTR _i$3[ebp], 0
$LN4@grpGetSpli:
  000b4	ff 75 c8	 push	 DWORD PTR _szText$[ebp]
  000b7	e8 00 00 00 00	 call	 _strlen
  000bc	59		 pop	 ecx
  000bd	39 45 d4	 cmp	 DWORD PTR _i$3[ebp], eax
  000c0	0f 83 a7 00 00
	00		 jae	 $LN3@grpGetSpli

; 343  : 	{
; 344  : 		if ('|' == szText[i])

  000c6	8b 45 c8	 mov	 eax, DWORD PTR _szText$[ebp]
  000c9	03 45 d4	 add	 eax, DWORD PTR _i$3[ebp]
  000cc	0f be 00	 movsx	 eax, BYTE PTR [eax]
  000cf	83 f8 7c	 cmp	 eax, 124		; 0000007cH
  000d2	75 1a		 jne	 SHORT $LN8@grpGetSpli

; 345  : 		{
; 346  : 			i += 1;

  000d4	8b 45 d4	 mov	 eax, DWORD PTR _i$3[ebp]
  000d7	40		 inc	 eax
  000d8	89 45 d4	 mov	 DWORD PTR _i$3[ebp], eax

; 347  : 
; 348  : 			// 자동 줄 바꿈되고 바로 | 가 있을 경우
; 349  : 			if (iPosition>0)

  000db	83 7d d0 00	 cmp	 DWORD PTR _iPosition$[ebp], 0
  000df	7e 07		 jle	 SHORT $LN9@grpGetSpli

; 350  : 				++iLineCount;

  000e1	8b 45 cc	 mov	 eax, DWORD PTR _iLineCount$[ebp]
  000e4	40		 inc	 eax
  000e5	89 45 cc	 mov	 DWORD PTR _iLineCount$[ebp], eax
$LN9@grpGetSpli:

; 351  : 			iPosition = 0;

  000e8	83 65 d0 00	 and	 DWORD PTR _iPosition$[ebp], 0

; 352  : 			continue;

  000ec	eb c6		 jmp	 SHORT $LN4@grpGetSpli
$LN8@grpGetSpli:

; 353  : 		}
; 354  : 
; 355  : 		if (szText[i] & 0x80)

  000ee	8b 45 c8	 mov	 eax, DWORD PTR _szText$[ebp]
  000f1	03 45 d4	 add	 eax, DWORD PTR _i$3[ebp]
  000f4	0f be 00	 movsx	 eax, BYTE PTR [eax]
  000f7	25 80 00 00 00	 and	 eax, 128		; 00000080H
  000fc	74 2b		 je	 SHORT $LN10@grpGetSpli

; 356  : 		{
; 357  : 			if (iLineCount == iGettingLine)

  000fe	8b 45 cc	 mov	 eax, DWORD PTR _iLineCount$[ebp]
  00101	3b 45 c4	 cmp	 eax, DWORD PTR _iGettingLine$[ebp]
  00104	75 11		 jne	 SHORT $LN12@grpGetSpli

; 358  : 				strLine.append(szText+i, 2);

  00106	6a 02		 push	 2
  00108	8b 45 c8	 mov	 eax, DWORD PTR _szText$[ebp]
  0010b	03 45 d4	 add	 eax, DWORD PTR _i$3[ebp]
  0010e	50		 push	 eax
  0010f	8d 4d d8	 lea	 ecx, DWORD PTR _strLine$[ebp]
  00112	e8 00 00 00 00	 call	 ?append@?$basic_string@DU?$char_traits@D@std@@V?$allocator@D@2@@std@@QAEAAV12@QBDI@Z ; std::basic_string<char,std::char_traits<char>,std::allocator<char> >::append
$LN12@grpGetSpli:

; 359  : 
; 360  : 			i += 2;

  00117	8b 45 d4	 mov	 eax, DWORD PTR _i$3[ebp]
  0011a	40		 inc	 eax
  0011b	40		 inc	 eax
  0011c	89 45 d4	 mov	 DWORD PTR _i$3[ebp], eax

; 361  : 			iPosition += 2;

  0011f	8b 45 d0	 mov	 eax, DWORD PTR _iPosition$[ebp]
  00122	40		 inc	 eax
  00123	40		 inc	 eax
  00124	89 45 d0	 mov	 DWORD PTR _iPosition$[ebp], eax

; 362  : 		}

  00127	eb 2c		 jmp	 SHORT $LN11@grpGetSpli
$LN10@grpGetSpli:

; 363  : 		else
; 364  : 		{
; 365  : 			if (iLineCount == iGettingLine)

  00129	8b 45 cc	 mov	 eax, DWORD PTR _iLineCount$[ebp]
  0012c	3b 45 c4	 cmp	 eax, DWORD PTR _iGettingLine$[ebp]
  0012f	75 16		 jne	 SHORT $LN13@grpGetSpli

; 366  : 				strLine += szText[i];

  00131	8b 45 c8	 mov	 eax, DWORD PTR _szText$[ebp]
  00134	03 45 d4	 add	 eax, DWORD PTR _i$3[ebp]
  00137	8a 00		 mov	 al, BYTE PTR [eax]
  00139	88 45 c0	 mov	 BYTE PTR __Ch$[ebp], al
; File C:\Program Files (x86)\Microsoft Visual Studio\2019\Community\VC\Tools\MSVC\14.28.29333\include\xstring

; 2905 :         push_back(_Ch);

  0013c	ff 75 c0	 push	 DWORD PTR __Ch$[ebp]
  0013f	8d 4d d8	 lea	 ecx, DWORD PTR _strLine$[ebp]
  00142	e8 00 00 00 00	 call	 ?push_back@?$basic_string@DU?$char_traits@D@std@@V?$allocator@D@2@@std@@QAEXD@Z ; std::basic_string<char,std::char_traits<char>,std::allocator<char> >::push_back
$LN13@grpGetSpli:
; File D:\Metin2 Server Files\mainline\SRC_2014\Metin2Client\eterPythonLib\PythonGraphicTextModule.cpp

; 368  : 			i += 1;

  00147	8b 45 d4	 mov	 eax, DWORD PTR _i$3[ebp]
  0014a	40		 inc	 eax
  0014b	89 45 d4	 mov	 DWORD PTR _i$3[ebp], eax

; 369  : 			iPosition += 1;

  0014e	8b 45 d0	 mov	 eax, DWORD PTR _iPosition$[ebp]
  00151	40		 inc	 eax
  00152	89 45 d0	 mov	 DWORD PTR _iPosition$[ebp], eax
$LN11@grpGetSpli:

; 370  : 		}
; 371  : 
; 372  : 		if (iPosition >= iLineLimitation)

  00155	8b 45 d0	 mov	 eax, DWORD PTR _iPosition$[ebp]
  00158	3b 45 bc	 cmp	 eax, DWORD PTR _iLineLimitation$[ebp]
  0015b	7c 0b		 jl	 SHORT $LN14@grpGetSpli

; 373  : 		{
; 374  : 			++iLineCount;

  0015d	8b 45 cc	 mov	 eax, DWORD PTR _iLineCount$[ebp]
  00160	40		 inc	 eax
  00161	89 45 cc	 mov	 DWORD PTR _iLineCount$[ebp], eax

; 375  : 			iPosition = 0;

  00164	83 65 d0 00	 and	 DWORD PTR _iPosition$[ebp], 0
$LN14@grpGetSpli:

; 376  : 		}
; 377  : 	}

  00168	e9 47 ff ff ff	 jmp	 $LN4@grpGetSpli
$LN3@grpGetSpli:

; 379  : 	return Py_BuildValue("s", strLine.c_str());

  0016d	8d 4d d8	 lea	 ecx, DWORD PTR _strLine$[ebp]
  00170	e8 00 00 00 00	 call	 ?c_str@?$basic_string@DU?$char_traits@D@std@@V?$allocator@D@2@@std@@QBEPBDXZ ; std::basic_string<char,std::char_traits<char>,std::allocator<char> >::c_str
  00175	50		 push	 eax
  00176	68 00 00 00 00	 push	 OFFSET ??_C@_01LKDEMHDF@s@
  0017b	ff 15 00 00 00
	00		 call	 DWORD PTR __imp__Py_BuildValue
  00181	59		 pop	 ecx
  00182	59		 pop	 ecx
  00183	89 45 b8	 mov	 DWORD PTR $T2[ebp], eax
  00186	83 4d fc ff	 or	 DWORD PTR __$EHRec$[ebp+8], -1
; File C:\Program Files (x86)\Microsoft Visual Studio\2019\Community\VC\Tools\MSVC\14.28.29333\include\xstring

; 2801 :         _Tidy_deallocate();

  0018a	8d 4d d8	 lea	 ecx, DWORD PTR _strLine$[ebp]
  0018d	e8 00 00 00 00	 call	 ?_Tidy_deallocate@?$basic_string@DU?$char_traits@D@std@@V?$allocator@D@2@@std@@AAEXXZ ; std::basic_string<char,std::char_traits<char>,std::allocator<char> >::_Tidy_deallocate
; File D:\Metin2 Server Files\mainline\SRC_2014\Metin2Client\eterPythonLib\PythonGraphicTextModule.cpp

; 379  : 	return Py_BuildValue("s", strLine.c_str());

  00192	8b 45 b8	 mov	 eax, DWORD PTR $T2[ebp]
$LN1@grpGetSpli:

; 380  : }

  00195	8b 4d f4	 mov	 ecx, DWORD PTR __$EHRec$[ebp]
  00198	64 89 0d 00 00
	00 00		 mov	 DWORD PTR fs:0, ecx
  0019f	59		 pop	 ecx
  001a0	8b 4d f0	 mov	 ecx, DWORD PTR __$ArrayPad$[ebp]
  001a3	33 cd		 xor	 ecx, ebp
  001a5	e8 00 00 00 00	 call	 @__security_check_cookie@4
  001aa	c9		 leave
  001ab	c3		 ret	 0
_TEXT	ENDS
;	COMDAT text$x
text$x	SEGMENT
__unwindfunclet$?grpGetSplitingTextLine@@YAPAU_object@@PAU1@0@Z$0:
  00000	8d 4d d8	 lea	 ecx, DWORD PTR _strLine$[ebp]
  00003	e9 00 00 00 00	 jmp	 ??1?$basic_string@DU?$char_traits@D@std@@V?$allocator@D@2@@std@@QAE@XZ ; std::basic_string<char,std::char_traits<char>,std::allocator<char> >::~basic_string<char,std::char_traits<char>,std::allocator<char> >
  00008	cc		 int	 3
  00009	cc		 int	 3
  0000a	cc		 int	 3
  0000b	cc		 int	 3
  0000c	cc		 int	 3
__ehhandler$?grpGetSplitingTextLine@@YAPAU_object@@PAU1@0@Z:
  0000d	90		 npad	 1
  0000e	90		 npad	 1
  0000f	8b 54 24 08	 mov	 edx, DWORD PTR [esp+8]
  00013	8d 42 0c	 lea	 eax, DWORD PTR [edx+12]
  00016	8b 4a c0	 mov	 ecx, DWORD PTR [edx-64]
  00019	33 c8		 xor	 ecx, eax
  0001b	e8 00 00 00 00	 call	 @__security_check_cookie@4
  00020	8b 4a fc	 mov	 ecx, DWORD PTR [edx-4]
  00023	33 c8		 xor	 ecx, eax
  00025	e8 00 00 00 00	 call	 @__security_check_cookie@4
  0002a	b8 00 00 00 00	 mov	 eax, OFFSET __ehfuncinfo$?grpGetSplitingTextLine@@YAPAU_object@@PAU1@0@Z
  0002f	e9 00 00 00 00	 jmp	 ___CxxFrameHandler3
text$x	ENDS
?grpGetSplitingTextLine@@YAPAU_object@@PAU1@0@Z ENDP	; grpGetSplitingTextLine
; Function compile flags: /Odspy
; File D:\Metin2 Server Files\mainline\SRC_2014\Metin2Client\eterPythonLib\PythonGraphicTextModule.cpp
;	COMDAT ?grpGetSplitingTextLineCount@@YAPAU_object@@PAU1@0@Z
_TEXT	SEGMENT
_iLineLimitation$ = -20					; size = 4
_szText$ = -16						; size = 4
_iLineCount$ = -12					; size = 4
_iPosition$ = -8					; size = 4
_i$1 = -4						; size = 4
_poSelf$ = 8						; size = 4
_poArgs$ = 12						; size = 4
?grpGetSplitingTextLineCount@@YAPAU_object@@PAU1@0@Z PROC ; grpGetSplitingTextLineCount, COMDAT

; 272  : {

  00000	55		 push	 ebp
  00001	8b ec		 mov	 ebp, esp
  00003	83 ec 14	 sub	 esp, 20			; 00000014H

; 273  : 	char * szText;
; 274  : 	if (!PyTuple_GetString(poArgs, 0, &szText))

  00006	8d 45 f0	 lea	 eax, DWORD PTR _szText$[ebp]
  00009	50		 push	 eax
  0000a	6a 00		 push	 0
  0000c	ff 75 0c	 push	 DWORD PTR _poArgs$[ebp]
  0000f	e8 00 00 00 00	 call	 ?PyTuple_GetString@@YA_NPAU_object@@HPAPAD@Z ; PyTuple_GetString
  00014	83 c4 0c	 add	 esp, 12			; 0000000cH
  00017	0f b6 c0	 movzx	 eax, al
  0001a	85 c0		 test	 eax, eax
  0001c	75 0d		 jne	 SHORT $LN5@grpGetSpli

; 275  : 		return Py_BuildException();

  0001e	6a 00		 push	 0
  00020	e8 00 00 00 00	 call	 ?Py_BuildException@@YAPAU_object@@PBDZZ ; Py_BuildException
  00025	59		 pop	 ecx
  00026	e9 c9 00 00 00	 jmp	 $LN1@grpGetSpli
$LN5@grpGetSpli:

; 276  : 
; 277  : 	int iLineLimitation;
; 278  : 	if (!PyTuple_GetInteger(poArgs, 1, &iLineLimitation))

  0002b	8d 45 ec	 lea	 eax, DWORD PTR _iLineLimitation$[ebp]
  0002e	50		 push	 eax
  0002f	6a 01		 push	 1
  00031	ff 75 0c	 push	 DWORD PTR _poArgs$[ebp]
  00034	e8 00 00 00 00	 call	 ?PyTuple_GetInteger@@YA_NPAU_object@@HPAH@Z ; PyTuple_GetInteger
  00039	83 c4 0c	 add	 esp, 12			; 0000000cH
  0003c	0f b6 c0	 movzx	 eax, al
  0003f	85 c0		 test	 eax, eax
  00041	75 0d		 jne	 SHORT $LN6@grpGetSpli

; 279  : 		return Py_BuildException();

  00043	6a 00		 push	 0
  00045	e8 00 00 00 00	 call	 ?Py_BuildException@@YAPAU_object@@PBDZZ ; Py_BuildException
  0004a	59		 pop	 ecx
  0004b	e9 a4 00 00 00	 jmp	 $LN1@grpGetSpli
$LN6@grpGetSpli:

; 280  : 
; 281  : 	int iPosition = 0;

  00050	83 65 f8 00	 and	 DWORD PTR _iPosition$[ebp], 0

; 282  : 	int iLineCount = 0;

  00054	83 65 f4 00	 and	 DWORD PTR _iLineCount$[ebp], 0

; 283  : 
; 284  : 	for (DWORD i = 0; i < strlen(szText);)

  00058	83 65 fc 00	 and	 DWORD PTR _i$1[ebp], 0
$LN4@grpGetSpli:
  0005c	ff 75 f0	 push	 DWORD PTR _szText$[ebp]
  0005f	e8 00 00 00 00	 call	 _strlen
  00064	59		 pop	 ecx
  00065	39 45 fc	 cmp	 DWORD PTR _i$1[ebp], eax
  00068	73 6d		 jae	 SHORT $LN3@grpGetSpli

; 285  : 	{
; 286  : 		if ('|' == szText[i])

  0006a	8b 45 f0	 mov	 eax, DWORD PTR _szText$[ebp]
  0006d	03 45 fc	 add	 eax, DWORD PTR _i$1[ebp]
  00070	0f be 00	 movsx	 eax, BYTE PTR [eax]
  00073	83 f8 7c	 cmp	 eax, 124		; 0000007cH
  00076	75 1a		 jne	 SHORT $LN7@grpGetSpli

; 287  : 		{
; 288  : 			i += 1;

  00078	8b 45 fc	 mov	 eax, DWORD PTR _i$1[ebp]
  0007b	40		 inc	 eax
  0007c	89 45 fc	 mov	 DWORD PTR _i$1[ebp], eax

; 289  : 			
; 290  : 			// 자동 줄 바꿈되고 바로 | 가 있을 경우
; 291  : 			if (iPosition>0)

  0007f	83 7d f8 00	 cmp	 DWORD PTR _iPosition$[ebp], 0
  00083	7e 07		 jle	 SHORT $LN8@grpGetSpli

; 292  : 				++iLineCount;

  00085	8b 45 f4	 mov	 eax, DWORD PTR _iLineCount$[ebp]
  00088	40		 inc	 eax
  00089	89 45 f4	 mov	 DWORD PTR _iLineCount$[ebp], eax
$LN8@grpGetSpli:

; 293  : 
; 294  : 			iPosition = 0;

  0008c	83 65 f8 00	 and	 DWORD PTR _iPosition$[ebp], 0

; 295  : 			continue;

  00090	eb ca		 jmp	 SHORT $LN4@grpGetSpli
$LN7@grpGetSpli:

; 296  : 		}
; 297  : 
; 298  : 		if (szText[i] & 0x80)

  00092	8b 45 f0	 mov	 eax, DWORD PTR _szText$[ebp]
  00095	03 45 fc	 add	 eax, DWORD PTR _i$1[ebp]
  00098	0f be 00	 movsx	 eax, BYTE PTR [eax]
  0009b	25 80 00 00 00	 and	 eax, 128		; 00000080H
  000a0	74 12		 je	 SHORT $LN9@grpGetSpli

; 299  : 		{
; 300  : 			i += 2;

  000a2	8b 45 fc	 mov	 eax, DWORD PTR _i$1[ebp]
  000a5	40		 inc	 eax
  000a6	40		 inc	 eax
  000a7	89 45 fc	 mov	 DWORD PTR _i$1[ebp], eax

; 301  : 			iPosition += 2;

  000aa	8b 45 f8	 mov	 eax, DWORD PTR _iPosition$[ebp]
  000ad	40		 inc	 eax
  000ae	40		 inc	 eax
  000af	89 45 f8	 mov	 DWORD PTR _iPosition$[ebp], eax

; 302  : 		}

  000b2	eb 0e		 jmp	 SHORT $LN10@grpGetSpli
$LN9@grpGetSpli:

; 303  : 		else
; 304  : 		{
; 305  : 			i += 1;

  000b4	8b 45 fc	 mov	 eax, DWORD PTR _i$1[ebp]
  000b7	40		 inc	 eax
  000b8	89 45 fc	 mov	 DWORD PTR _i$1[ebp], eax

; 306  : 			iPosition += 1;

  000bb	8b 45 f8	 mov	 eax, DWORD PTR _iPosition$[ebp]
  000be	40		 inc	 eax
  000bf	89 45 f8	 mov	 DWORD PTR _iPosition$[ebp], eax
$LN10@grpGetSpli:

; 307  : 		}
; 308  : 
; 309  : 		if (iPosition >= iLineLimitation)

  000c2	8b 45 f8	 mov	 eax, DWORD PTR _iPosition$[ebp]
  000c5	3b 45 ec	 cmp	 eax, DWORD PTR _iLineLimitation$[ebp]
  000c8	7c 0b		 jl	 SHORT $LN11@grpGetSpli

; 310  : 		{
; 311  : 			++iLineCount;

  000ca	8b 45 f4	 mov	 eax, DWORD PTR _iLineCount$[ebp]
  000cd	40		 inc	 eax
  000ce	89 45 f4	 mov	 DWORD PTR _iLineCount$[ebp], eax

; 312  : 			iPosition = 0;

  000d1	83 65 f8 00	 and	 DWORD PTR _iPosition$[ebp], 0
$LN11@grpGetSpli:

; 313  : 		}
; 314  : 	}

  000d5	eb 85		 jmp	 SHORT $LN4@grpGetSpli
$LN3@grpGetSpli:

; 315  : 
; 316  : 	if (iPosition > 0)

  000d7	83 7d f8 00	 cmp	 DWORD PTR _iPosition$[ebp], 0
  000db	7e 07		 jle	 SHORT $LN12@grpGetSpli

; 317  : 		++iLineCount;

  000dd	8b 45 f4	 mov	 eax, DWORD PTR _iLineCount$[ebp]
  000e0	40		 inc	 eax
  000e1	89 45 f4	 mov	 DWORD PTR _iLineCount$[ebp], eax
$LN12@grpGetSpli:

; 318  : 
; 319  : 	return Py_BuildValue("i", iLineCount);

  000e4	ff 75 f4	 push	 DWORD PTR _iLineCount$[ebp]
  000e7	68 00 00 00 00	 push	 OFFSET ??_C@_01KBJDNOO@i@
  000ec	ff 15 00 00 00
	00		 call	 DWORD PTR __imp__Py_BuildValue
  000f2	59		 pop	 ecx
  000f3	59		 pop	 ecx
$LN1@grpGetSpli:

; 320  : }

  000f4	c9		 leave
  000f5	c3		 ret	 0
?grpGetSplitingTextLineCount@@YAPAU_object@@PAU1@0@Z ENDP ; grpGetSplitingTextLineCount
_TEXT	ENDS
; Function compile flags: /Odspy
; File D:\Metin2 Server Files\mainline\SRC_2014\Metin2Client\eterPythonLib\PythonGraphicTextModule.cpp
;	COMDAT ?grpSetMax@@YAPAU_object@@PAU1@0@Z
_TEXT	SEGMENT
_pTextInstance$ = -8					; size = 4
_iValue$ = -4						; size = 4
_poSelf$ = 8						; size = 4
_poArgs$ = 12						; size = 4
?grpSetMax@@YAPAU_object@@PAU1@0@Z PROC			; grpSetMax, COMDAT

; 258  : {

  00000	55		 push	 ebp
  00001	8b ec		 mov	 ebp, esp
  00003	51		 push	 ecx
  00004	51		 push	 ecx

; 259  : 	CGraphicTextInstance* pTextInstance;
; 260  : 	if (!PyTuple_GetTextInstance(poArgs, 0, &pTextInstance))

  00005	8d 45 f8	 lea	 eax, DWORD PTR _pTextInstance$[ebp]
  00008	50		 push	 eax
  00009	6a 00		 push	 0
  0000b	ff 75 0c	 push	 DWORD PTR _poArgs$[ebp]
  0000e	e8 00 00 00 00	 call	 ?PyTuple_GetTextInstance@@YA_NPAU_object@@HPAPAVCGraphicTextInstance@@@Z ; PyTuple_GetTextInstance
  00013	83 c4 0c	 add	 esp, 12			; 0000000cH
  00016	0f b6 c0	 movzx	 eax, al
  00019	85 c0		 test	 eax, eax
  0001b	75 0a		 jne	 SHORT $LN2@grpSetMax

; 261  : 		return Py_BuildException();

  0001d	6a 00		 push	 0
  0001f	e8 00 00 00 00	 call	 ?Py_BuildException@@YAPAU_object@@PBDZZ ; Py_BuildException
  00024	59		 pop	 ecx
  00025	eb 32		 jmp	 SHORT $LN1@grpSetMax
$LN2@grpSetMax:

; 262  : 
; 263  : 	int iValue;
; 264  : 	if (!PyTuple_GetInteger(poArgs, 1, &iValue))

  00027	8d 45 fc	 lea	 eax, DWORD PTR _iValue$[ebp]
  0002a	50		 push	 eax
  0002b	6a 01		 push	 1
  0002d	ff 75 0c	 push	 DWORD PTR _poArgs$[ebp]
  00030	e8 00 00 00 00	 call	 ?PyTuple_GetInteger@@YA_NPAU_object@@HPAH@Z ; PyTuple_GetInteger
  00035	83 c4 0c	 add	 esp, 12			; 0000000cH
  00038	0f b6 c0	 movzx	 eax, al
  0003b	85 c0		 test	 eax, eax
  0003d	75 0a		 jne	 SHORT $LN3@grpSetMax

; 265  : 		return Py_BuildException();

  0003f	6a 00		 push	 0
  00041	e8 00 00 00 00	 call	 ?Py_BuildException@@YAPAU_object@@PBDZZ ; Py_BuildException
  00046	59		 pop	 ecx
  00047	eb 10		 jmp	 SHORT $LN1@grpSetMax
$LN3@grpSetMax:

; 266  : 
; 267  : 	pTextInstance->SetMax(iValue);

  00049	ff 75 fc	 push	 DWORD PTR _iValue$[ebp]
  0004c	8b 4d f8	 mov	 ecx, DWORD PTR _pTextInstance$[ebp]
  0004f	e8 00 00 00 00	 call	 ?SetMax@CGraphicTextInstance@@QAEXH@Z ; CGraphicTextInstance::SetMax

; 268  : 	return Py_BuildNone();

  00054	e8 00 00 00 00	 call	 ?Py_BuildNone@@YAPAU_object@@XZ ; Py_BuildNone
$LN1@grpSetMax:

; 269  : }

  00059	c9		 leave
  0005a	c3		 ret	 0
?grpSetMax@@YAPAU_object@@PAU1@0@Z ENDP			; grpSetMax
_TEXT	ENDS
; Function compile flags: /Odspy
; File D:\Metin2 Server Files\mainline\SRC_2014\Metin2Client\eterPythonLib\PythonGraphicTextModule.cpp
;	COMDAT ?grpSetVerticalAlign@@YAPAU_object@@PAU1@0@Z
_TEXT	SEGMENT
_pTextInstance$ = -8					; size = 4
_iAlign$ = -4						; size = 4
_poSelf$ = 8						; size = 4
_poArgs$ = 12						; size = 4
?grpSetVerticalAlign@@YAPAU_object@@PAU1@0@Z PROC	; grpSetVerticalAlign, COMDAT

; 244  : {

  00000	55		 push	 ebp
  00001	8b ec		 mov	 ebp, esp
  00003	51		 push	 ecx
  00004	51		 push	 ecx

; 245  : 	CGraphicTextInstance* pTextInstance;
; 246  : 	if (!PyTuple_GetTextInstance(poArgs, 0, &pTextInstance))

  00005	8d 45 f8	 lea	 eax, DWORD PTR _pTextInstance$[ebp]
  00008	50		 push	 eax
  00009	6a 00		 push	 0
  0000b	ff 75 0c	 push	 DWORD PTR _poArgs$[ebp]
  0000e	e8 00 00 00 00	 call	 ?PyTuple_GetTextInstance@@YA_NPAU_object@@HPAPAVCGraphicTextInstance@@@Z ; PyTuple_GetTextInstance
  00013	83 c4 0c	 add	 esp, 12			; 0000000cH
  00016	0f b6 c0	 movzx	 eax, al
  00019	85 c0		 test	 eax, eax
  0001b	75 0a		 jne	 SHORT $LN2@grpSetVert

; 247  : 		return Py_BuildException();

  0001d	6a 00		 push	 0
  0001f	e8 00 00 00 00	 call	 ?Py_BuildException@@YAPAU_object@@PBDZZ ; Py_BuildException
  00024	59		 pop	 ecx
  00025	eb 32		 jmp	 SHORT $LN1@grpSetVert
$LN2@grpSetVert:

; 248  : 
; 249  : 	int iAlign;
; 250  : 	if (!PyTuple_GetInteger(poArgs, 1, &iAlign))

  00027	8d 45 fc	 lea	 eax, DWORD PTR _iAlign$[ebp]
  0002a	50		 push	 eax
  0002b	6a 01		 push	 1
  0002d	ff 75 0c	 push	 DWORD PTR _poArgs$[ebp]
  00030	e8 00 00 00 00	 call	 ?PyTuple_GetInteger@@YA_NPAU_object@@HPAH@Z ; PyTuple_GetInteger
  00035	83 c4 0c	 add	 esp, 12			; 0000000cH
  00038	0f b6 c0	 movzx	 eax, al
  0003b	85 c0		 test	 eax, eax
  0003d	75 0a		 jne	 SHORT $LN3@grpSetVert

; 251  : 		return Py_BuildException();

  0003f	6a 00		 push	 0
  00041	e8 00 00 00 00	 call	 ?Py_BuildException@@YAPAU_object@@PBDZZ ; Py_BuildException
  00046	59		 pop	 ecx
  00047	eb 10		 jmp	 SHORT $LN1@grpSetVert
$LN3@grpSetVert:

; 252  : 
; 253  : 	pTextInstance->SetVerticalAlign(iAlign);

  00049	ff 75 fc	 push	 DWORD PTR _iAlign$[ebp]
  0004c	8b 4d f8	 mov	 ecx, DWORD PTR _pTextInstance$[ebp]
  0004f	e8 00 00 00 00	 call	 ?SetVerticalAlign@CGraphicTextInstance@@QAEXH@Z ; CGraphicTextInstance::SetVerticalAlign

; 254  : 	return Py_BuildNone();

  00054	e8 00 00 00 00	 call	 ?Py_BuildNone@@YAPAU_object@@XZ ; Py_BuildNone
$LN1@grpSetVert:

; 255  : }

  00059	c9		 leave
  0005a	c3		 ret	 0
?grpSetVerticalAlign@@YAPAU_object@@PAU1@0@Z ENDP	; grpSetVerticalAlign
_TEXT	ENDS
; Function compile flags: /Odspy
; File D:\Metin2 Server Files\mainline\SRC_2014\Metin2Client\eterPythonLib\PythonGraphicTextModule.cpp
;	COMDAT ?grpSetHorizontalAlign@@YAPAU_object@@PAU1@0@Z
_TEXT	SEGMENT
_pTextInstance$ = -8					; size = 4
_iAlign$ = -4						; size = 4
_poSelf$ = 8						; size = 4
_poArgs$ = 12						; size = 4
?grpSetHorizontalAlign@@YAPAU_object@@PAU1@0@Z PROC	; grpSetHorizontalAlign, COMDAT

; 230  : {

  00000	55		 push	 ebp
  00001	8b ec		 mov	 ebp, esp
  00003	51		 push	 ecx
  00004	51		 push	 ecx

; 231  : 	CGraphicTextInstance* pTextInstance;
; 232  : 	if (!PyTuple_GetTextInstance(poArgs, 0, &pTextInstance))

  00005	8d 45 f8	 lea	 eax, DWORD PTR _pTextInstance$[ebp]
  00008	50		 push	 eax
  00009	6a 00		 push	 0
  0000b	ff 75 0c	 push	 DWORD PTR _poArgs$[ebp]
  0000e	e8 00 00 00 00	 call	 ?PyTuple_GetTextInstance@@YA_NPAU_object@@HPAPAVCGraphicTextInstance@@@Z ; PyTuple_GetTextInstance
  00013	83 c4 0c	 add	 esp, 12			; 0000000cH
  00016	0f b6 c0	 movzx	 eax, al
  00019	85 c0		 test	 eax, eax
  0001b	75 0a		 jne	 SHORT $LN2@grpSetHori

; 233  : 		return Py_BuildException();

  0001d	6a 00		 push	 0
  0001f	e8 00 00 00 00	 call	 ?Py_BuildException@@YAPAU_object@@PBDZZ ; Py_BuildException
  00024	59		 pop	 ecx
  00025	eb 32		 jmp	 SHORT $LN1@grpSetHori
$LN2@grpSetHori:

; 234  : 
; 235  : 	int iAlign;
; 236  : 	if (!PyTuple_GetInteger(poArgs, 1, &iAlign))

  00027	8d 45 fc	 lea	 eax, DWORD PTR _iAlign$[ebp]
  0002a	50		 push	 eax
  0002b	6a 01		 push	 1
  0002d	ff 75 0c	 push	 DWORD PTR _poArgs$[ebp]
  00030	e8 00 00 00 00	 call	 ?PyTuple_GetInteger@@YA_NPAU_object@@HPAH@Z ; PyTuple_GetInteger
  00035	83 c4 0c	 add	 esp, 12			; 0000000cH
  00038	0f b6 c0	 movzx	 eax, al
  0003b	85 c0		 test	 eax, eax
  0003d	75 0a		 jne	 SHORT $LN3@grpSetHori

; 237  : 		return Py_BuildException();

  0003f	6a 00		 push	 0
  00041	e8 00 00 00 00	 call	 ?Py_BuildException@@YAPAU_object@@PBDZZ ; Py_BuildException
  00046	59		 pop	 ecx
  00047	eb 10		 jmp	 SHORT $LN1@grpSetHori
$LN3@grpSetHori:

; 238  : 
; 239  : 	pTextInstance->SetHorizonalAlign(iAlign);

  00049	ff 75 fc	 push	 DWORD PTR _iAlign$[ebp]
  0004c	8b 4d f8	 mov	 ecx, DWORD PTR _pTextInstance$[ebp]
  0004f	e8 00 00 00 00	 call	 ?SetHorizonalAlign@CGraphicTextInstance@@QAEXH@Z ; CGraphicTextInstance::SetHorizonalAlign

; 240  : 	return Py_BuildNone();

  00054	e8 00 00 00 00	 call	 ?Py_BuildNone@@YAPAU_object@@XZ ; Py_BuildNone
$LN1@grpSetHori:

; 241  : }

  00059	c9		 leave
  0005a	c3		 ret	 0
?grpSetHorizontalAlign@@YAPAU_object@@PAU1@0@Z ENDP	; grpSetHorizontalAlign
_TEXT	ENDS
; Function compile flags: /Odspy
; File D:\Metin2 Server Files\mainline\SRC_2014\Metin2Client\eterPythonLib\PythonGraphicTextModule.cpp
;	COMDAT ?grpTextHideCursor@@YAPAU_object@@PAU1@0@Z
_TEXT	SEGMENT
_pTextInstance$ = -4					; size = 4
_poSelf$ = 8						; size = 4
_poArgs$ = 12						; size = 4
?grpTextHideCursor@@YAPAU_object@@PAU1@0@Z PROC		; grpTextHideCursor, COMDAT

; 220  : {

  00000	55		 push	 ebp
  00001	8b ec		 mov	 ebp, esp
  00003	51		 push	 ecx

; 221  : 	CGraphicTextInstance* pTextInstance;
; 222  : 	if (!PyTuple_GetTextInstance(poArgs, 0, &pTextInstance))

  00004	8d 45 fc	 lea	 eax, DWORD PTR _pTextInstance$[ebp]
  00007	50		 push	 eax
  00008	6a 00		 push	 0
  0000a	ff 75 0c	 push	 DWORD PTR _poArgs$[ebp]
  0000d	e8 00 00 00 00	 call	 ?PyTuple_GetTextInstance@@YA_NPAU_object@@HPAPAVCGraphicTextInstance@@@Z ; PyTuple_GetTextInstance
  00012	83 c4 0c	 add	 esp, 12			; 0000000cH
  00015	0f b6 c0	 movzx	 eax, al
  00018	85 c0		 test	 eax, eax
  0001a	75 0a		 jne	 SHORT $LN2@grpTextHid

; 223  : 		return Py_BuildException();

  0001c	6a 00		 push	 0
  0001e	e8 00 00 00 00	 call	 ?Py_BuildException@@YAPAU_object@@PBDZZ ; Py_BuildException
  00023	59		 pop	 ecx
  00024	eb 0d		 jmp	 SHORT $LN1@grpTextHid
$LN2@grpTextHid:

; 224  : 	
; 225  : 	pTextInstance->HideCursor();

  00026	8b 4d fc	 mov	 ecx, DWORD PTR _pTextInstance$[ebp]
  00029	e8 00 00 00 00	 call	 ?HideCursor@CGraphicTextInstance@@QAEXXZ ; CGraphicTextInstance::HideCursor

; 226  : 	return Py_BuildNone();

  0002e	e8 00 00 00 00	 call	 ?Py_BuildNone@@YAPAU_object@@XZ ; Py_BuildNone
$LN1@grpTextHid:

; 227  : }

  00033	c9		 leave
  00034	c3		 ret	 0
?grpTextHideCursor@@YAPAU_object@@PAU1@0@Z ENDP		; grpTextHideCursor
_TEXT	ENDS
; Function compile flags: /Odspy
; File D:\Metin2 Server Files\mainline\SRC_2014\Metin2Client\eterPythonLib\PythonGraphicTextModule.cpp
;	COMDAT ?grpTextShowCursor@@YAPAU_object@@PAU1@0@Z
_TEXT	SEGMENT
_pTextInstance$ = -4					; size = 4
_poSelf$ = 8						; size = 4
_poArgs$ = 12						; size = 4
?grpTextShowCursor@@YAPAU_object@@PAU1@0@Z PROC		; grpTextShowCursor, COMDAT

; 210  : {

  00000	55		 push	 ebp
  00001	8b ec		 mov	 ebp, esp
  00003	51		 push	 ecx

; 211  : 	CGraphicTextInstance* pTextInstance;
; 212  : 	if (!PyTuple_GetTextInstance(poArgs, 0, &pTextInstance))

  00004	8d 45 fc	 lea	 eax, DWORD PTR _pTextInstance$[ebp]
  00007	50		 push	 eax
  00008	6a 00		 push	 0
  0000a	ff 75 0c	 push	 DWORD PTR _poArgs$[ebp]
  0000d	e8 00 00 00 00	 call	 ?PyTuple_GetTextInstance@@YA_NPAU_object@@HPAPAVCGraphicTextInstance@@@Z ; PyTuple_GetTextInstance
  00012	83 c4 0c	 add	 esp, 12			; 0000000cH
  00015	0f b6 c0	 movzx	 eax, al
  00018	85 c0		 test	 eax, eax
  0001a	75 0a		 jne	 SHORT $LN2@grpTextSho

; 213  : 		return Py_BuildException();

  0001c	6a 00		 push	 0
  0001e	e8 00 00 00 00	 call	 ?Py_BuildException@@YAPAU_object@@PBDZZ ; Py_BuildException
  00023	59		 pop	 ecx
  00024	eb 0d		 jmp	 SHORT $LN1@grpTextSho
$LN2@grpTextSho:

; 214  : 
; 215  : 	pTextInstance->ShowCursor();

  00026	8b 4d fc	 mov	 ecx, DWORD PTR _pTextInstance$[ebp]
  00029	e8 00 00 00 00	 call	 ?ShowCursor@CGraphicTextInstance@@QAEXXZ ; CGraphicTextInstance::ShowCursor

; 216  : 	return Py_BuildNone();

  0002e	e8 00 00 00 00	 call	 ?Py_BuildNone@@YAPAU_object@@XZ ; Py_BuildNone
$LN1@grpTextSho:

; 217  : }

  00033	c9		 leave
  00034	c3		 ret	 0
?grpTextShowCursor@@YAPAU_object@@PAU1@0@Z ENDP		; grpTextShowCursor
_TEXT	ENDS
; Function compile flags: /Odspy
; File D:\Metin2 Server Files\mainline\SRC_2014\Metin2Client\eterPythonLib\PythonGraphicTextModule.cpp
;	COMDAT ?grpTextUpdate@@YAPAU_object@@PAU1@0@Z
_TEXT	SEGMENT
_pTextInstance$ = -4					; size = 4
_poSelf$ = 8						; size = 4
_poArgs$ = 12						; size = 4
?grpTextUpdate@@YAPAU_object@@PAU1@0@Z PROC		; grpTextUpdate, COMDAT

; 200  : {

  00000	55		 push	 ebp
  00001	8b ec		 mov	 ebp, esp
  00003	51		 push	 ecx

; 201  : 	CGraphicTextInstance* pTextInstance;
; 202  : 	if (!PyTuple_GetTextInstance(poArgs, 0, &pTextInstance))

  00004	8d 45 fc	 lea	 eax, DWORD PTR _pTextInstance$[ebp]
  00007	50		 push	 eax
  00008	6a 00		 push	 0
  0000a	ff 75 0c	 push	 DWORD PTR _poArgs$[ebp]
  0000d	e8 00 00 00 00	 call	 ?PyTuple_GetTextInstance@@YA_NPAU_object@@HPAPAVCGraphicTextInstance@@@Z ; PyTuple_GetTextInstance
  00012	83 c4 0c	 add	 esp, 12			; 0000000cH
  00015	0f b6 c0	 movzx	 eax, al
  00018	85 c0		 test	 eax, eax
  0001a	75 0a		 jne	 SHORT $LN2@grpTextUpd

; 203  : 		return Py_BuildException();

  0001c	6a 00		 push	 0
  0001e	e8 00 00 00 00	 call	 ?Py_BuildException@@YAPAU_object@@PBDZZ ; Py_BuildException
  00023	59		 pop	 ecx
  00024	eb 0d		 jmp	 SHORT $LN1@grpTextUpd
$LN2@grpTextUpd:

; 204  : 	
; 205  : 	pTextInstance->Update();

  00026	8b 4d fc	 mov	 ecx, DWORD PTR _pTextInstance$[ebp]
  00029	e8 00 00 00 00	 call	 ?Update@CGraphicTextInstance@@QAEXXZ ; CGraphicTextInstance::Update

; 206  : 	return Py_BuildNone();

  0002e	e8 00 00 00 00	 call	 ?Py_BuildNone@@YAPAU_object@@XZ ; Py_BuildNone
$LN1@grpTextUpd:

; 207  : }

  00033	c9		 leave
  00034	c3		 ret	 0
?grpTextUpdate@@YAPAU_object@@PAU1@0@Z ENDP		; grpTextUpdate
_TEXT	ENDS
; Function compile flags: /Odspy
; File D:\Metin2 Server Files\mainline\SRC_2014\Metin2Client\eterPythonLib\PythonGraphicTextModule.cpp
;	COMDAT ?grpTextRender@@YAPAU_object@@PAU1@0@Z
_TEXT	SEGMENT
_pTextInstance$ = -4					; size = 4
_poSelf$ = 8						; size = 4
_poArgs$ = 12						; size = 4
?grpTextRender@@YAPAU_object@@PAU1@0@Z PROC		; grpTextRender, COMDAT

; 190  : {

  00000	55		 push	 ebp
  00001	8b ec		 mov	 ebp, esp
  00003	51		 push	 ecx

; 191  : 	CGraphicTextInstance* pTextInstance;
; 192  : 	if (!PyTuple_GetTextInstance(poArgs, 0, &pTextInstance))

  00004	8d 45 fc	 lea	 eax, DWORD PTR _pTextInstance$[ebp]
  00007	50		 push	 eax
  00008	6a 00		 push	 0
  0000a	ff 75 0c	 push	 DWORD PTR _poArgs$[ebp]
  0000d	e8 00 00 00 00	 call	 ?PyTuple_GetTextInstance@@YA_NPAU_object@@HPAPAVCGraphicTextInstance@@@Z ; PyTuple_GetTextInstance
  00012	83 c4 0c	 add	 esp, 12			; 0000000cH
  00015	0f b6 c0	 movzx	 eax, al
  00018	85 c0		 test	 eax, eax
  0001a	75 0a		 jne	 SHORT $LN2@grpTextRen

; 193  : 		return Py_BuildException();

  0001c	6a 00		 push	 0
  0001e	e8 00 00 00 00	 call	 ?Py_BuildException@@YAPAU_object@@PBDZZ ; Py_BuildException
  00023	59		 pop	 ecx
  00024	eb 0f		 jmp	 SHORT $LN1@grpTextRen
$LN2@grpTextRen:

; 194  : 
; 195  : 	pTextInstance->Render();

  00026	6a 00		 push	 0
  00028	8b 4d fc	 mov	 ecx, DWORD PTR _pTextInstance$[ebp]
  0002b	e8 00 00 00 00	 call	 ?Render@CGraphicTextInstance@@QAEXPAUtagRECT@@@Z ; CGraphicTextInstance::Render

; 196  : 	return Py_BuildNone();

  00030	e8 00 00 00 00	 call	 ?Py_BuildNone@@YAPAU_object@@XZ ; Py_BuildNone
$LN1@grpTextRen:

; 197  : }

  00035	c9		 leave
  00036	c3		 ret	 0
?grpTextRender@@YAPAU_object@@PAU1@0@Z ENDP		; grpTextRender
_TEXT	ENDS
; Function compile flags: /Odspy
; File D:\Metin2 Server Files\mainline\SRC_2014\Metin2Client\eterPythonLib\PythonGraphicTextModule.cpp
;	COMDAT ?grpTextSetOutLineColor@@YAPAU_object@@PAU1@0@Z
_TEXT	SEGMENT
_pTextInstance$ = -20					; size = 4
_fRed$ = -16						; size = 4
_fGreen$ = -12						; size = 4
_fBlue$ = -8						; size = 4
_fAlpha$ = -4						; size = 4
_poSelf$ = 8						; size = 4
_poArgs$ = 12						; size = 4
?grpTextSetOutLineColor@@YAPAU_object@@PAU1@0@Z PROC	; grpTextSetOutLineColor, COMDAT

; 165  : {

  00000	55		 push	 ebp
  00001	8b ec		 mov	 ebp, esp
  00003	83 ec 14	 sub	 esp, 20			; 00000014H

; 166  : 	CGraphicTextInstance* pTextInstance;
; 167  : 	if (!PyTuple_GetTextInstance(poArgs, 0, &pTextInstance))

  00006	8d 45 ec	 lea	 eax, DWORD PTR _pTextInstance$[ebp]
  00009	50		 push	 eax
  0000a	6a 00		 push	 0
  0000c	ff 75 0c	 push	 DWORD PTR _poArgs$[ebp]
  0000f	e8 00 00 00 00	 call	 ?PyTuple_GetTextInstance@@YA_NPAU_object@@HPAPAVCGraphicTextInstance@@@Z ; PyTuple_GetTextInstance
  00014	83 c4 0c	 add	 esp, 12			; 0000000cH
  00017	0f b6 c0	 movzx	 eax, al
  0001a	85 c0		 test	 eax, eax
  0001c	75 0d		 jne	 SHORT $LN2@grpTextSet

; 168  : 		return Py_BuildException();

  0001e	6a 00		 push	 0
  00020	e8 00 00 00 00	 call	 ?Py_BuildException@@YAPAU_object@@PBDZZ ; Py_BuildException
  00025	59		 pop	 ecx
  00026	e9 c4 00 00 00	 jmp	 $LN1@grpTextSet
$LN2@grpTextSet:

; 169  : 
; 170  : 	float fRed;
; 171  : 	if (!PyTuple_GetFloat(poArgs, 1, &fRed))

  0002b	8d 45 f0	 lea	 eax, DWORD PTR _fRed$[ebp]
  0002e	50		 push	 eax
  0002f	6a 01		 push	 1
  00031	ff 75 0c	 push	 DWORD PTR _poArgs$[ebp]
  00034	e8 00 00 00 00	 call	 ?PyTuple_GetFloat@@YA_NPAU_object@@HPAM@Z ; PyTuple_GetFloat
  00039	83 c4 0c	 add	 esp, 12			; 0000000cH
  0003c	0f b6 c0	 movzx	 eax, al
  0003f	85 c0		 test	 eax, eax
  00041	75 0d		 jne	 SHORT $LN3@grpTextSet

; 172  : 		return Py_BuildException();

  00043	6a 00		 push	 0
  00045	e8 00 00 00 00	 call	 ?Py_BuildException@@YAPAU_object@@PBDZZ ; Py_BuildException
  0004a	59		 pop	 ecx
  0004b	e9 9f 00 00 00	 jmp	 $LN1@grpTextSet
$LN3@grpTextSet:

; 173  : 	float fGreen;
; 174  : 	if (!PyTuple_GetFloat(poArgs, 2, &fGreen))

  00050	8d 45 f4	 lea	 eax, DWORD PTR _fGreen$[ebp]
  00053	50		 push	 eax
  00054	6a 02		 push	 2
  00056	ff 75 0c	 push	 DWORD PTR _poArgs$[ebp]
  00059	e8 00 00 00 00	 call	 ?PyTuple_GetFloat@@YA_NPAU_object@@HPAM@Z ; PyTuple_GetFloat
  0005e	83 c4 0c	 add	 esp, 12			; 0000000cH
  00061	0f b6 c0	 movzx	 eax, al
  00064	85 c0		 test	 eax, eax
  00066	75 0a		 jne	 SHORT $LN4@grpTextSet

; 175  : 		return Py_BuildException();

  00068	6a 00		 push	 0
  0006a	e8 00 00 00 00	 call	 ?Py_BuildException@@YAPAU_object@@PBDZZ ; Py_BuildException
  0006f	59		 pop	 ecx
  00070	eb 7d		 jmp	 SHORT $LN1@grpTextSet
$LN4@grpTextSet:

; 176  : 	float fBlue;
; 177  : 	if (!PyTuple_GetFloat(poArgs, 3, &fBlue))

  00072	8d 45 f8	 lea	 eax, DWORD PTR _fBlue$[ebp]
  00075	50		 push	 eax
  00076	6a 03		 push	 3
  00078	ff 75 0c	 push	 DWORD PTR _poArgs$[ebp]
  0007b	e8 00 00 00 00	 call	 ?PyTuple_GetFloat@@YA_NPAU_object@@HPAM@Z ; PyTuple_GetFloat
  00080	83 c4 0c	 add	 esp, 12			; 0000000cH
  00083	0f b6 c0	 movzx	 eax, al
  00086	85 c0		 test	 eax, eax
  00088	75 0a		 jne	 SHORT $LN5@grpTextSet

; 178  : 		return Py_BuildException();

  0008a	6a 00		 push	 0
  0008c	e8 00 00 00 00	 call	 ?Py_BuildException@@YAPAU_object@@PBDZZ ; Py_BuildException
  00091	59		 pop	 ecx
  00092	eb 5b		 jmp	 SHORT $LN1@grpTextSet
$LN5@grpTextSet:

; 179  : 
; 180  : 	float fAlpha;
; 181  : 	if (!PyTuple_GetFloat(poArgs, 4, &fAlpha))

  00094	8d 45 fc	 lea	 eax, DWORD PTR _fAlpha$[ebp]
  00097	50		 push	 eax
  00098	6a 04		 push	 4
  0009a	ff 75 0c	 push	 DWORD PTR _poArgs$[ebp]
  0009d	e8 00 00 00 00	 call	 ?PyTuple_GetFloat@@YA_NPAU_object@@HPAM@Z ; PyTuple_GetFloat
  000a2	83 c4 0c	 add	 esp, 12			; 0000000cH
  000a5	0f b6 c0	 movzx	 eax, al
  000a8	85 c0		 test	 eax, eax
  000aa	75 0a		 jne	 SHORT $LN6@grpTextSet

; 182  : 		return Py_BuildException();

  000ac	6a 00		 push	 0
  000ae	e8 00 00 00 00	 call	 ?Py_BuildException@@YAPAU_object@@PBDZZ ; Py_BuildException
  000b3	59		 pop	 ecx
  000b4	eb 39		 jmp	 SHORT $LN1@grpTextSet
$LN6@grpTextSet:

; 183  : 
; 184  : 	pTextInstance->SetOutLineColor(fRed, fGreen, fBlue, fAlpha);

  000b6	51		 push	 ecx
  000b7	f3 0f 10 45 fc	 movss	 xmm0, DWORD PTR _fAlpha$[ebp]
  000bc	f3 0f 11 04 24	 movss	 DWORD PTR [esp], xmm0
  000c1	51		 push	 ecx
  000c2	f3 0f 10 45 f8	 movss	 xmm0, DWORD PTR _fBlue$[ebp]
  000c7	f3 0f 11 04 24	 movss	 DWORD PTR [esp], xmm0
  000cc	51		 push	 ecx
  000cd	f3 0f 10 45 f4	 movss	 xmm0, DWORD PTR _fGreen$[ebp]
  000d2	f3 0f 11 04 24	 movss	 DWORD PTR [esp], xmm0
  000d7	51		 push	 ecx
  000d8	f3 0f 10 45 f0	 movss	 xmm0, DWORD PTR _fRed$[ebp]
  000dd	f3 0f 11 04 24	 movss	 DWORD PTR [esp], xmm0
  000e2	8b 4d ec	 mov	 ecx, DWORD PTR _pTextInstance$[ebp]
  000e5	e8 00 00 00 00	 call	 ?SetOutLineColor@CGraphicTextInstance@@QAEXMMMM@Z ; CGraphicTextInstance::SetOutLineColor

; 185  : 	return Py_BuildNone();

  000ea	e8 00 00 00 00	 call	 ?Py_BuildNone@@YAPAU_object@@XZ ; Py_BuildNone
$LN1@grpTextSet:

; 186  : }

  000ef	c9		 leave
  000f0	c3		 ret	 0
?grpTextSetOutLineColor@@YAPAU_object@@PAU1@0@Z ENDP	; grpTextSetOutLineColor
_TEXT	ENDS
; Function compile flags: /Odspy
; File D:\Metin2 Server Files\mainline\SRC_2014\Metin2Client\eterPythonLib\PythonGraphicTextModule.cpp
;	COMDAT ?grpTextSetFontColor@@YAPAU_object@@PAU1@0@Z
_TEXT	SEGMENT
_fRed$1 = -20						; size = 4
_fGreen$2 = -16						; size = 4
_fBlue$3 = -12						; size = 4
_iColor$4 = -8						; size = 4
_pTextInstance$ = -4					; size = 4
_poSelf$ = 8						; size = 4
_poArgs$ = 12						; size = 4
?grpTextSetFontColor@@YAPAU_object@@PAU1@0@Z PROC	; grpTextSetFontColor, COMDAT

; 131  : {

  00000	55		 push	 ebp
  00001	8b ec		 mov	 ebp, esp
  00003	83 ec 14	 sub	 esp, 20			; 00000014H

; 132  : 	CGraphicTextInstance* pTextInstance;
; 133  : 	if (!PyTuple_GetTextInstance(poArgs, 0, &pTextInstance))

  00006	8d 45 fc	 lea	 eax, DWORD PTR _pTextInstance$[ebp]
  00009	50		 push	 eax
  0000a	6a 00		 push	 0
  0000c	ff 75 0c	 push	 DWORD PTR _poArgs$[ebp]
  0000f	e8 00 00 00 00	 call	 ?PyTuple_GetTextInstance@@YA_NPAU_object@@HPAPAVCGraphicTextInstance@@@Z ; PyTuple_GetTextInstance
  00014	83 c4 0c	 add	 esp, 12			; 0000000cH
  00017	0f b6 c0	 movzx	 eax, al
  0001a	85 c0		 test	 eax, eax
  0001c	75 0d		 jne	 SHORT $LN2@grpTextSet

; 134  : 		return Py_BuildException();

  0001e	6a 00		 push	 0
  00020	e8 00 00 00 00	 call	 ?Py_BuildException@@YAPAU_object@@PBDZZ ; Py_BuildException
  00025	59		 pop	 ecx
  00026	e9 08 01 00 00	 jmp	 $LN1@grpTextSet
$LN2@grpTextSet:

; 135  : 
; 136  : 	if (2 == PyTuple_Size(poArgs))

  0002b	ff 75 0c	 push	 DWORD PTR _poArgs$[ebp]
  0002e	ff 15 00 00 00
	00		 call	 DWORD PTR __imp__PyTuple_Size
  00034	59		 pop	 ecx
  00035	83 f8 02	 cmp	 eax, 2
  00038	75 35		 jne	 SHORT $LN3@grpTextSet

; 137  : 	{
; 138  : 		int iColor;
; 139  : 		if (!PyTuple_GetInteger(poArgs, 1, &iColor))

  0003a	8d 45 f8	 lea	 eax, DWORD PTR _iColor$4[ebp]
  0003d	50		 push	 eax
  0003e	6a 01		 push	 1
  00040	ff 75 0c	 push	 DWORD PTR _poArgs$[ebp]
  00043	e8 00 00 00 00	 call	 ?PyTuple_GetInteger@@YA_NPAU_object@@HPAH@Z ; PyTuple_GetInteger
  00048	83 c4 0c	 add	 esp, 12			; 0000000cH
  0004b	0f b6 c0	 movzx	 eax, al
  0004e	85 c0		 test	 eax, eax
  00050	75 0d		 jne	 SHORT $LN5@grpTextSet

; 140  : 			return Py_BuildException();

  00052	6a 00		 push	 0
  00054	e8 00 00 00 00	 call	 ?Py_BuildException@@YAPAU_object@@PBDZZ ; Py_BuildException
  00059	59		 pop	 ecx
  0005a	e9 d4 00 00 00	 jmp	 $LN1@grpTextSet
$LN5@grpTextSet:

; 141  : 		pTextInstance->SetColor(DWORD(iColor));

  0005f	ff 75 f8	 push	 DWORD PTR _iColor$4[ebp]
  00062	8b 4d fc	 mov	 ecx, DWORD PTR _pTextInstance$[ebp]
  00065	e8 00 00 00 00	 call	 ?SetColor@CGraphicTextInstance@@QAEXK@Z ; CGraphicTextInstance::SetColor

; 142  : 	}

  0006a	e9 bf 00 00 00	 jmp	 $LN7@grpTextSet
$LN3@grpTextSet:

; 143  : 	else if (4 == PyTuple_Size(poArgs))

  0006f	ff 75 0c	 push	 DWORD PTR _poArgs$[ebp]
  00072	ff 15 00 00 00
	00		 call	 DWORD PTR __imp__PyTuple_Size
  00078	59		 pop	 ecx
  00079	83 f8 04	 cmp	 eax, 4
  0007c	0f 85 a2 00 00
	00		 jne	 $LN6@grpTextSet

; 144  : 	{
; 145  : 		float fRed;
; 146  : 		if (!PyTuple_GetFloat(poArgs, 1, &fRed))

  00082	8d 45 ec	 lea	 eax, DWORD PTR _fRed$1[ebp]
  00085	50		 push	 eax
  00086	6a 01		 push	 1
  00088	ff 75 0c	 push	 DWORD PTR _poArgs$[ebp]
  0008b	e8 00 00 00 00	 call	 ?PyTuple_GetFloat@@YA_NPAU_object@@HPAM@Z ; PyTuple_GetFloat
  00090	83 c4 0c	 add	 esp, 12			; 0000000cH
  00093	0f b6 c0	 movzx	 eax, al
  00096	85 c0		 test	 eax, eax
  00098	75 0d		 jne	 SHORT $LN8@grpTextSet

; 147  : 			return Py_BuildException();

  0009a	6a 00		 push	 0
  0009c	e8 00 00 00 00	 call	 ?Py_BuildException@@YAPAU_object@@PBDZZ ; Py_BuildException
  000a1	59		 pop	 ecx
  000a2	e9 8c 00 00 00	 jmp	 $LN1@grpTextSet
$LN8@grpTextSet:

; 148  : 		float fGreen;
; 149  : 		if (!PyTuple_GetFloat(poArgs, 2, &fGreen))

  000a7	8d 45 f0	 lea	 eax, DWORD PTR _fGreen$2[ebp]
  000aa	50		 push	 eax
  000ab	6a 02		 push	 2
  000ad	ff 75 0c	 push	 DWORD PTR _poArgs$[ebp]
  000b0	e8 00 00 00 00	 call	 ?PyTuple_GetFloat@@YA_NPAU_object@@HPAM@Z ; PyTuple_GetFloat
  000b5	83 c4 0c	 add	 esp, 12			; 0000000cH
  000b8	0f b6 c0	 movzx	 eax, al
  000bb	85 c0		 test	 eax, eax
  000bd	75 0a		 jne	 SHORT $LN9@grpTextSet

; 150  : 			return Py_BuildException();

  000bf	6a 00		 push	 0
  000c1	e8 00 00 00 00	 call	 ?Py_BuildException@@YAPAU_object@@PBDZZ ; Py_BuildException
  000c6	59		 pop	 ecx
  000c7	eb 6a		 jmp	 SHORT $LN1@grpTextSet
$LN9@grpTextSet:

; 151  : 		float fBlue;
; 152  : 		if (!PyTuple_GetFloat(poArgs, 3, &fBlue))

  000c9	8d 45 f4	 lea	 eax, DWORD PTR _fBlue$3[ebp]
  000cc	50		 push	 eax
  000cd	6a 03		 push	 3
  000cf	ff 75 0c	 push	 DWORD PTR _poArgs$[ebp]
  000d2	e8 00 00 00 00	 call	 ?PyTuple_GetFloat@@YA_NPAU_object@@HPAM@Z ; PyTuple_GetFloat
  000d7	83 c4 0c	 add	 esp, 12			; 0000000cH
  000da	0f b6 c0	 movzx	 eax, al
  000dd	85 c0		 test	 eax, eax
  000df	75 0a		 jne	 SHORT $LN10@grpTextSet

; 153  : 			return Py_BuildException();

  000e1	6a 00		 push	 0
  000e3	e8 00 00 00 00	 call	 ?Py_BuildException@@YAPAU_object@@PBDZZ ; Py_BuildException
  000e8	59		 pop	 ecx
  000e9	eb 48		 jmp	 SHORT $LN1@grpTextSet
$LN10@grpTextSet:

; 154  : 		pTextInstance->SetColor(fRed, fGreen, fBlue);

  000eb	51		 push	 ecx
  000ec	f3 0f 10 05 00
	00 00 00	 movss	 xmm0, DWORD PTR __real@3f800000
  000f4	f3 0f 11 04 24	 movss	 DWORD PTR [esp], xmm0
  000f9	51		 push	 ecx
  000fa	f3 0f 10 45 f4	 movss	 xmm0, DWORD PTR _fBlue$3[ebp]
  000ff	f3 0f 11 04 24	 movss	 DWORD PTR [esp], xmm0
  00104	51		 push	 ecx
  00105	f3 0f 10 45 f0	 movss	 xmm0, DWORD PTR _fGreen$2[ebp]
  0010a	f3 0f 11 04 24	 movss	 DWORD PTR [esp], xmm0
  0010f	51		 push	 ecx
  00110	f3 0f 10 45 ec	 movss	 xmm0, DWORD PTR _fRed$1[ebp]
  00115	f3 0f 11 04 24	 movss	 DWORD PTR [esp], xmm0
  0011a	8b 4d fc	 mov	 ecx, DWORD PTR _pTextInstance$[ebp]
  0011d	e8 00 00 00 00	 call	 ?SetColor@CGraphicTextInstance@@QAEXMMMM@Z ; CGraphicTextInstance::SetColor

; 155  : 	}

  00122	eb 0a		 jmp	 SHORT $LN7@grpTextSet
$LN6@grpTextSet:

; 156  : 	else
; 157  : 	{
; 158  : 		return Py_BuildException();

  00124	6a 00		 push	 0
  00126	e8 00 00 00 00	 call	 ?Py_BuildException@@YAPAU_object@@PBDZZ ; Py_BuildException
  0012b	59		 pop	 ecx
  0012c	eb 05		 jmp	 SHORT $LN1@grpTextSet
$LN7@grpTextSet:

; 159  : 	}
; 160  : 
; 161  : 	return Py_BuildNone();

  0012e	e8 00 00 00 00	 call	 ?Py_BuildNone@@YAPAU_object@@XZ ; Py_BuildNone
$LN1@grpTextSet:

; 162  : }

  00133	c9		 leave
  00134	c3		 ret	 0
?grpTextSetFontColor@@YAPAU_object@@PAU1@0@Z ENDP	; grpTextSetFontColor
_TEXT	ENDS
; Function compile flags: /Odspy
; File D:\Metin2 Server Files\mainline\SRC_2014\Metin2Client\eterPythonLib\PythonGraphicTextModule.cpp
; File C:\Program Files (x86)\Microsoft Visual Studio\2019\Community\VC\Tools\MSVC\14.28.29333\include\xstring
; File C:\Program Files (x86)\Microsoft Visual Studio\2019\Community\VC\Tools\MSVC\14.28.29333\include\xmemory
; File C:\Program Files (x86)\Microsoft Visual Studio\2019\Community\VC\Tools\MSVC\14.28.29333\include\xstring
; File D:\Metin2 Server Files\mainline\SRC_2014\Metin2Client\eterBase\Singleton.h
; File D:\Metin2 Server Files\mainline\SRC_2014\Metin2Client\eterPythonLib\PythonGraphicTextModule.cpp
; File C:\Program Files (x86)\Microsoft Visual Studio\2019\Community\VC\Tools\MSVC\14.28.29333\include\xstring
; File D:\Metin2 Server Files\mainline\SRC_2014\Metin2Client\eterPythonLib\PythonGraphicTextModule.cpp
;	COMDAT ?grpTextSetFontName@@YAPAU_object@@PAU1@0@Z
_TEXT	SEGMENT
$T2 = -68						; size = 4
_pTextInstance$ = -64					; size = 4
_pResource$ = -60					; size = 4
$T3 = -56						; size = 4
$T4 = -52						; size = 4
$T5 = -48						; size = 4
_szFontName$ = -44					; size = 4
_stFontName$ = -40					; size = 24
__$ArrayPad$ = -16					; size = 4
__$EHRec$ = -12						; size = 12
_poSelf$ = 8						; size = 4
_poArgs$ = 12						; size = 4
?grpTextSetFontName@@YAPAU_object@@PAU1@0@Z PROC	; grpTextSetFontName, COMDAT

; 113  : {

  00000	55		 push	 ebp
  00001	8b ec		 mov	 ebp, esp
  00003	6a ff		 push	 -1
  00005	68 00 00 00 00	 push	 __ehhandler$?grpTextSetFontName@@YAPAU_object@@PAU1@0@Z
  0000a	64 a1 00 00 00
	00		 mov	 eax, DWORD PTR fs:0
  00010	50		 push	 eax
  00011	83 ec 38	 sub	 esp, 56			; 00000038H
  00014	a1 00 00 00 00	 mov	 eax, DWORD PTR ___security_cookie
  00019	33 c5		 xor	 eax, ebp
  0001b	89 45 f0	 mov	 DWORD PTR __$ArrayPad$[ebp], eax
  0001e	50		 push	 eax
  0001f	8d 45 f4	 lea	 eax, DWORD PTR __$EHRec$[ebp]
  00022	64 a3 00 00 00
	00		 mov	 DWORD PTR fs:0, eax

; 114  : 	CGraphicTextInstance* pTextInstance;
; 115  : 	if (!PyTuple_GetTextInstance(poArgs, 0, &pTextInstance))

  00028	8d 45 c0	 lea	 eax, DWORD PTR _pTextInstance$[ebp]
  0002b	50		 push	 eax
  0002c	6a 00		 push	 0
  0002e	ff 75 0c	 push	 DWORD PTR _poArgs$[ebp]
  00031	e8 00 00 00 00	 call	 ?PyTuple_GetTextInstance@@YA_NPAU_object@@HPAPAVCGraphicTextInstance@@@Z ; PyTuple_GetTextInstance
  00036	83 c4 0c	 add	 esp, 12			; 0000000cH
  00039	0f b6 c0	 movzx	 eax, al
  0003c	85 c0		 test	 eax, eax
  0003e	75 0d		 jne	 SHORT $LN2@grpTextSet

; 116  : 		return Py_BuildException();

  00040	6a 00		 push	 0
  00042	e8 00 00 00 00	 call	 ?Py_BuildException@@YAPAU_object@@PBDZZ ; Py_BuildException
  00047	59		 pop	 ecx
  00048	e9 93 00 00 00	 jmp	 $LN1@grpTextSet
$LN2@grpTextSet:

; 117  : 
; 118  : 	char* szFontName;
; 119  : 	if (!PyTuple_GetString(poArgs, 1, &szFontName))

  0004d	8d 45 d4	 lea	 eax, DWORD PTR _szFontName$[ebp]
  00050	50		 push	 eax
  00051	6a 01		 push	 1
  00053	ff 75 0c	 push	 DWORD PTR _poArgs$[ebp]
  00056	e8 00 00 00 00	 call	 ?PyTuple_GetString@@YA_NPAU_object@@HPAPAD@Z ; PyTuple_GetString
  0005b	83 c4 0c	 add	 esp, 12			; 0000000cH
  0005e	0f b6 c0	 movzx	 eax, al
  00061	85 c0		 test	 eax, eax
  00063	75 0a		 jne	 SHORT $LN3@grpTextSet

; 120  : 		return Py_BuildException();

  00065	6a 00		 push	 0
  00067	e8 00 00 00 00	 call	 ?Py_BuildException@@YAPAU_object@@PBDZZ ; Py_BuildException
  0006c	59		 pop	 ecx
  0006d	eb 71		 jmp	 SHORT $LN1@grpTextSet
$LN3@grpTextSet:

; 121  : 
; 122  : 	std::string stFontName = szFontName;

  0006f	ff 75 d4	 push	 DWORD PTR _szFontName$[ebp]
  00072	8d 4d d8	 lea	 ecx, DWORD PTR _stFontName$[ebp]
  00075	e8 00 00 00 00	 call	 ??0?$basic_string@DU?$char_traits@D@std@@V?$allocator@D@2@@std@@QAE@QBD@Z ; std::basic_string<char,std::char_traits<char>,std::allocator<char> >::basic_string<char,std::char_traits<char>,std::allocator<char> >
  0007a	83 65 fc 00	 and	 DWORD PTR __$EHRec$[ebp+8], 0
; File C:\Program Files (x86)\Microsoft Visual Studio\2019\Community\VC\Tools\MSVC\14.28.29333\include\xstring

; 389  :         return _CSTD strlen(reinterpret_cast<const char*>(_First));

  0007e	68 00 00 00 00	 push	 OFFSET ??_C@_04FAHLGLIA@?4fnt@
  00083	e8 00 00 00 00	 call	 _strlen
  00088	59		 pop	 ecx
  00089	89 45 d0	 mov	 DWORD PTR $T5[ebp], eax
; File C:\Program Files (x86)\Microsoft Visual Studio\2019\Community\VC\Tools\MSVC\14.28.29333\include\xmemory

; 997  :     return _Len;

  0008c	8b 45 d0	 mov	 eax, DWORD PTR $T5[ebp]
  0008f	89 45 cc	 mov	 DWORD PTR $T4[ebp], eax
; File C:\Program Files (x86)\Microsoft Visual Studio\2019\Community\VC\Tools\MSVC\14.28.29333\include\xstring

; 2958 :         return append(_Ptr, _Convert_size<size_type>(_Traits::length(_Ptr)));

  00092	ff 75 cc	 push	 DWORD PTR $T4[ebp]
  00095	68 00 00 00 00	 push	 OFFSET ??_C@_04FAHLGLIA@?4fnt@
  0009a	8d 4d d8	 lea	 ecx, DWORD PTR _stFontName$[ebp]
  0009d	e8 00 00 00 00	 call	 ?append@?$basic_string@DU?$char_traits@D@std@@V?$allocator@D@2@@std@@QAEAAV12@QBDI@Z ; std::basic_string<char,std::char_traits<char>,std::allocator<char> >::append
; File D:\Metin2 Server Files\mainline\SRC_2014\Metin2Client\eterBase\Singleton.h

; 27   : 		return (*ms_singleton);

  000a2	a1 00 00 00 00	 mov	 eax, DWORD PTR ?ms_singleton@?$CSingleton@VCResourceManager@@@@0PAVCResourceManager@@A ; CSingleton<CResourceManager>::ms_singleton
  000a7	89 45 c8	 mov	 DWORD PTR $T3[ebp], eax
; File D:\Metin2 Server Files\mainline\SRC_2014\Metin2Client\eterPythonLib\PythonGraphicTextModule.cpp

; 125  : 	CResource* pResource = CResourceManager::Instance().GetResourcePointer(stFontName.c_str());

  000aa	8d 4d d8	 lea	 ecx, DWORD PTR _stFontName$[ebp]
  000ad	e8 00 00 00 00	 call	 ?c_str@?$basic_string@DU?$char_traits@D@std@@V?$allocator@D@2@@std@@QBEPBDXZ ; std::basic_string<char,std::char_traits<char>,std::allocator<char> >::c_str
  000b2	50		 push	 eax
  000b3	8b 4d c8	 mov	 ecx, DWORD PTR $T3[ebp]
  000b6	e8 00 00 00 00	 call	 ?GetResourcePointer@CResourceManager@@QAEPAVCResource@@PBD@Z ; CResourceManager::GetResourcePointer
  000bb	89 45 c4	 mov	 DWORD PTR _pResource$[ebp], eax

; 126  : 	pTextInstance->SetTextPointer(static_cast<CGraphicText*>(pResource));

  000be	ff 75 c4	 push	 DWORD PTR _pResource$[ebp]
  000c1	8b 4d c0	 mov	 ecx, DWORD PTR _pTextInstance$[ebp]
  000c4	e8 00 00 00 00	 call	 ?SetTextPointer@CGraphicTextInstance@@QAEXPAVCGraphicText@@@Z ; CGraphicTextInstance::SetTextPointer

; 127  : 	return Py_BuildNone();

  000c9	e8 00 00 00 00	 call	 ?Py_BuildNone@@YAPAU_object@@XZ ; Py_BuildNone
  000ce	89 45 bc	 mov	 DWORD PTR $T2[ebp], eax
  000d1	83 4d fc ff	 or	 DWORD PTR __$EHRec$[ebp+8], -1
; File C:\Program Files (x86)\Microsoft Visual Studio\2019\Community\VC\Tools\MSVC\14.28.29333\include\xstring

; 2801 :         _Tidy_deallocate();

  000d5	8d 4d d8	 lea	 ecx, DWORD PTR _stFontName$[ebp]
  000d8	e8 00 00 00 00	 call	 ?_Tidy_deallocate@?$basic_string@DU?$char_traits@D@std@@V?$allocator@D@2@@std@@AAEXXZ ; std::basic_string<char,std::char_traits<char>,std::allocator<char> >::_Tidy_deallocate
; File D:\Metin2 Server Files\mainline\SRC_2014\Metin2Client\eterPythonLib\PythonGraphicTextModule.cpp

; 127  : 	return Py_BuildNone();

  000dd	8b 45 bc	 mov	 eax, DWORD PTR $T2[ebp]
$LN1@grpTextSet:

; 128  : }

  000e0	8b 4d f4	 mov	 ecx, DWORD PTR __$EHRec$[ebp]
  000e3	64 89 0d 00 00
	00 00		 mov	 DWORD PTR fs:0, ecx
  000ea	59		 pop	 ecx
  000eb	8b 4d f0	 mov	 ecx, DWORD PTR __$ArrayPad$[ebp]
  000ee	33 cd		 xor	 ecx, ebp
  000f0	e8 00 00 00 00	 call	 @__security_check_cookie@4
  000f5	c9		 leave
  000f6	c3		 ret	 0
_TEXT	ENDS
;	COMDAT text$x
text$x	SEGMENT
__unwindfunclet$?grpTextSetFontName@@YAPAU_object@@PAU1@0@Z$0:
  00000	8d 4d d8	 lea	 ecx, DWORD PTR _stFontName$[ebp]
  00003	e9 00 00 00 00	 jmp	 ??1?$basic_string@DU?$char_traits@D@std@@V?$allocator@D@2@@std@@QAE@XZ ; std::basic_string<char,std::char_traits<char>,std::allocator<char> >::~basic_string<char,std::char_traits<char>,std::allocator<char> >
  00008	cc		 int	 3
  00009	cc		 int	 3
  0000a	cc		 int	 3
  0000b	cc		 int	 3
  0000c	cc		 int	 3
__ehhandler$?grpTextSetFontName@@YAPAU_object@@PAU1@0@Z:
  0000d	90		 npad	 1
  0000e	90		 npad	 1
  0000f	8b 54 24 08	 mov	 edx, DWORD PTR [esp+8]
  00013	8d 42 0c	 lea	 eax, DWORD PTR [edx+12]
  00016	8b 4a c4	 mov	 ecx, DWORD PTR [edx-60]
  00019	33 c8		 xor	 ecx, eax
  0001b	e8 00 00 00 00	 call	 @__security_check_cookie@4
  00020	8b 4a fc	 mov	 ecx, DWORD PTR [edx-4]
  00023	33 c8		 xor	 ecx, eax
  00025	e8 00 00 00 00	 call	 @__security_check_cookie@4
  0002a	b8 00 00 00 00	 mov	 eax, OFFSET __ehfuncinfo$?grpTextSetFontName@@YAPAU_object@@PAU1@0@Z
  0002f	e9 00 00 00 00	 jmp	 ___CxxFrameHandler3
text$x	ENDS
?grpTextSetFontName@@YAPAU_object@@PAU1@0@Z ENDP	; grpTextSetFontName
; Function compile flags: /Odspy
; File D:\Metin2 Server Files\mainline\SRC_2014\Metin2Client\eterPythonLib\PythonGraphicTextModule.cpp
; File C:\Program Files (x86)\Microsoft Visual Studio\2019\Community\VC\Tools\MSVC\14.28.29333\include\xstring
; File D:\Metin2 Server Files\mainline\SRC_2014\Metin2Client\eterPythonLib\PythonGraphicTextModule.cpp
;	COMDAT ?grpTextGetText@@YAPAU_object@@PAU1@0@Z
_TEXT	SEGMENT
$T1 = -12						; size = 4
_this$ = -8						; size = 4
_pTextInstance$ = -4					; size = 4
_poSelf$ = 8						; size = 4
_poArgs$ = 12						; size = 4
?grpTextGetText@@YAPAU_object@@PAU1@0@Z PROC		; grpTextGetText, COMDAT

; 104  : {

  00000	55		 push	 ebp
  00001	8b ec		 mov	 ebp, esp
  00003	83 ec 0c	 sub	 esp, 12			; 0000000cH

; 105  : 	CGraphicTextInstance* pTextInstance;
; 106  : 	if (!PyTuple_GetTextInstance(poArgs, 0, &pTextInstance))

  00006	8d 45 fc	 lea	 eax, DWORD PTR _pTextInstance$[ebp]
  00009	50		 push	 eax
  0000a	6a 00		 push	 0
  0000c	ff 75 0c	 push	 DWORD PTR _poArgs$[ebp]
  0000f	e8 00 00 00 00	 call	 ?PyTuple_GetTextInstance@@YA_NPAU_object@@HPAPAVCGraphicTextInstance@@@Z ; PyTuple_GetTextInstance
  00014	83 c4 0c	 add	 esp, 12			; 0000000cH
  00017	0f b6 c0	 movzx	 eax, al
  0001a	85 c0		 test	 eax, eax
  0001c	75 0a		 jne	 SHORT $LN2@grpTextGet

; 107  : 		return Py_BuildException();

  0001e	6a 00		 push	 0
  00020	e8 00 00 00 00	 call	 ?Py_BuildException@@YAPAU_object@@PBDZZ ; Py_BuildException
  00025	59		 pop	 ecx
  00026	eb 26		 jmp	 SHORT $LN1@grpTextGet
$LN2@grpTextGet:

; 109  : 	return Py_BuildValue("s", pTextInstance->GetValueStringReference().c_str());

  00028	8b 4d fc	 mov	 ecx, DWORD PTR _pTextInstance$[ebp]
  0002b	e8 00 00 00 00	 call	 ?GetValueStringReference@CGraphicTextInstance@@QAEABV?$basic_string@DU?$char_traits@D@std@@V?$allocator@D@2@@std@@XZ ; CGraphicTextInstance::GetValueStringReference
  00030	89 45 f8	 mov	 DWORD PTR _this$[ebp], eax
; File C:\Program Files (x86)\Microsoft Visual Studio\2019\Community\VC\Tools\MSVC\14.28.29333\include\xstring

; 3752 :         return _Mypair._Myval2._Myptr();

  00033	8b 4d f8	 mov	 ecx, DWORD PTR _this$[ebp]
  00036	e8 00 00 00 00	 call	 ?_Myptr@?$_String_val@U?$_Simple_types@D@std@@@std@@QBEPBDXZ ; std::_String_val<std::_Simple_types<char> >::_Myptr
  0003b	89 45 f4	 mov	 DWORD PTR $T1[ebp], eax
; File D:\Metin2 Server Files\mainline\SRC_2014\Metin2Client\eterPythonLib\PythonGraphicTextModule.cpp

; 109  : 	return Py_BuildValue("s", pTextInstance->GetValueStringReference().c_str());

  0003e	ff 75 f4	 push	 DWORD PTR $T1[ebp]
  00041	68 00 00 00 00	 push	 OFFSET ??_C@_01LKDEMHDF@s@
  00046	ff 15 00 00 00
	00		 call	 DWORD PTR __imp__Py_BuildValue
  0004c	59		 pop	 ecx
  0004d	59		 pop	 ecx
$LN1@grpTextGet:

; 110  : }

  0004e	c9		 leave
  0004f	c3		 ret	 0
?grpTextGetText@@YAPAU_object@@PAU1@0@Z ENDP		; grpTextGetText
_TEXT	ENDS
; Function compile flags: /Odspy
; File D:\Metin2 Server Files\mainline\SRC_2014\Metin2Client\eterPythonLib\PythonGraphicTextModule.cpp
;	COMDAT ?grpTextOutline@@YAPAU_object@@PAU1@0@Z
_TEXT	SEGMENT
_pTextInstance$ = -8					; size = 4
_bValue$ = -4						; size = 1
_poSelf$ = 8						; size = 4
_poArgs$ = 12						; size = 4
?grpTextOutline@@YAPAU_object@@PAU1@0@Z PROC		; grpTextOutline, COMDAT

; 90   : {

  00000	55		 push	 ebp
  00001	8b ec		 mov	 ebp, esp
  00003	51		 push	 ecx
  00004	51		 push	 ecx

; 91   : 	CGraphicTextInstance* pTextInstance;
; 92   : 	if (!PyTuple_GetTextInstance(poArgs, 0, &pTextInstance))

  00005	8d 45 f8	 lea	 eax, DWORD PTR _pTextInstance$[ebp]
  00008	50		 push	 eax
  00009	6a 00		 push	 0
  0000b	ff 75 0c	 push	 DWORD PTR _poArgs$[ebp]
  0000e	e8 00 00 00 00	 call	 ?PyTuple_GetTextInstance@@YA_NPAU_object@@HPAPAVCGraphicTextInstance@@@Z ; PyTuple_GetTextInstance
  00013	83 c4 0c	 add	 esp, 12			; 0000000cH
  00016	0f b6 c0	 movzx	 eax, al
  00019	85 c0		 test	 eax, eax
  0001b	75 0a		 jne	 SHORT $LN2@grpTextOut

; 93   : 		return Py_BuildException();

  0001d	6a 00		 push	 0
  0001f	e8 00 00 00 00	 call	 ?Py_BuildException@@YAPAU_object@@PBDZZ ; Py_BuildException
  00024	59		 pop	 ecx
  00025	eb 32		 jmp	 SHORT $LN1@grpTextOut
$LN2@grpTextOut:

; 94   : 
; 95   : 	bool bValue;
; 96   : 	if (!PyTuple_GetBoolean(poArgs, 1, &bValue))

  00027	8d 45 fc	 lea	 eax, DWORD PTR _bValue$[ebp]
  0002a	50		 push	 eax
  0002b	6a 01		 push	 1
  0002d	ff 75 0c	 push	 DWORD PTR _poArgs$[ebp]
  00030	e8 00 00 00 00	 call	 ?PyTuple_GetBoolean@@YA_NPAU_object@@HPA_N@Z ; PyTuple_GetBoolean
  00035	83 c4 0c	 add	 esp, 12			; 0000000cH
  00038	0f b6 c0	 movzx	 eax, al
  0003b	85 c0		 test	 eax, eax
  0003d	75 0a		 jne	 SHORT $LN3@grpTextOut

; 97   : 		return Py_BuildException();

  0003f	6a 00		 push	 0
  00041	e8 00 00 00 00	 call	 ?Py_BuildException@@YAPAU_object@@PBDZZ ; Py_BuildException
  00046	59		 pop	 ecx
  00047	eb 10		 jmp	 SHORT $LN1@grpTextOut
$LN3@grpTextOut:

; 98   : 
; 99   : 	pTextInstance->SetOutline(bValue);

  00049	ff 75 fc	 push	 DWORD PTR _bValue$[ebp]
  0004c	8b 4d f8	 mov	 ecx, DWORD PTR _pTextInstance$[ebp]
  0004f	e8 00 00 00 00	 call	 ?SetOutline@CGraphicTextInstance@@QAEX_N@Z ; CGraphicTextInstance::SetOutline

; 100  : 	return Py_BuildNone();

  00054	e8 00 00 00 00	 call	 ?Py_BuildNone@@YAPAU_object@@XZ ; Py_BuildNone
$LN1@grpTextOut:

; 101  : }

  00059	c9		 leave
  0005a	c3		 ret	 0
?grpTextOutline@@YAPAU_object@@PAU1@0@Z ENDP		; grpTextOutline
_TEXT	ENDS
; Function compile flags: /Odspy
; File D:\Metin2 Server Files\mainline\SRC_2014\Metin2Client\eterPythonLib\PythonGraphicTextModule.cpp
;	COMDAT ?grpTextSetSecret@@YAPAU_object@@PAU1@0@Z
_TEXT	SEGMENT
_pTextInstance$ = -8					; size = 4
_bValue$ = -4						; size = 1
_poSelf$ = 8						; size = 4
_poArgs$ = 12						; size = 4
?grpTextSetSecret@@YAPAU_object@@PAU1@0@Z PROC		; grpTextSetSecret, COMDAT

; 76   : {

  00000	55		 push	 ebp
  00001	8b ec		 mov	 ebp, esp
  00003	51		 push	 ecx
  00004	51		 push	 ecx

; 77   : 	CGraphicTextInstance* pTextInstance;
; 78   : 	if (!PyTuple_GetTextInstance(poArgs, 0, &pTextInstance))

  00005	8d 45 f8	 lea	 eax, DWORD PTR _pTextInstance$[ebp]
  00008	50		 push	 eax
  00009	6a 00		 push	 0
  0000b	ff 75 0c	 push	 DWORD PTR _poArgs$[ebp]
  0000e	e8 00 00 00 00	 call	 ?PyTuple_GetTextInstance@@YA_NPAU_object@@HPAPAVCGraphicTextInstance@@@Z ; PyTuple_GetTextInstance
  00013	83 c4 0c	 add	 esp, 12			; 0000000cH
  00016	0f b6 c0	 movzx	 eax, al
  00019	85 c0		 test	 eax, eax
  0001b	75 0a		 jne	 SHORT $LN2@grpTextSet

; 79   : 		return Py_BuildException();

  0001d	6a 00		 push	 0
  0001f	e8 00 00 00 00	 call	 ?Py_BuildException@@YAPAU_object@@PBDZZ ; Py_BuildException
  00024	59		 pop	 ecx
  00025	eb 32		 jmp	 SHORT $LN1@grpTextSet
$LN2@grpTextSet:

; 80   : 
; 81   : 	bool bValue;
; 82   : 	if (!PyTuple_GetBoolean(poArgs, 1, &bValue))

  00027	8d 45 fc	 lea	 eax, DWORD PTR _bValue$[ebp]
  0002a	50		 push	 eax
  0002b	6a 01		 push	 1
  0002d	ff 75 0c	 push	 DWORD PTR _poArgs$[ebp]
  00030	e8 00 00 00 00	 call	 ?PyTuple_GetBoolean@@YA_NPAU_object@@HPA_N@Z ; PyTuple_GetBoolean
  00035	83 c4 0c	 add	 esp, 12			; 0000000cH
  00038	0f b6 c0	 movzx	 eax, al
  0003b	85 c0		 test	 eax, eax
  0003d	75 0a		 jne	 SHORT $LN3@grpTextSet

; 83   : 		return Py_BuildException();

  0003f	6a 00		 push	 0
  00041	e8 00 00 00 00	 call	 ?Py_BuildException@@YAPAU_object@@PBDZZ ; Py_BuildException
  00046	59		 pop	 ecx
  00047	eb 10		 jmp	 SHORT $LN1@grpTextSet
$LN3@grpTextSet:

; 84   : 
; 85   : 	pTextInstance->SetSecret(bValue);

  00049	ff 75 fc	 push	 DWORD PTR _bValue$[ebp]
  0004c	8b 4d f8	 mov	 ecx, DWORD PTR _pTextInstance$[ebp]
  0004f	e8 00 00 00 00	 call	 ?SetSecret@CGraphicTextInstance@@QAEX_N@Z ; CGraphicTextInstance::SetSecret

; 86   : 	return Py_BuildNone();

  00054	e8 00 00 00 00	 call	 ?Py_BuildNone@@YAPAU_object@@XZ ; Py_BuildNone
$LN1@grpTextSet:

; 87   : }

  00059	c9		 leave
  0005a	c3		 ret	 0
?grpTextSetSecret@@YAPAU_object@@PAU1@0@Z ENDP		; grpTextSetSecret
_TEXT	ENDS
; Function compile flags: /Odspy
; File D:\Metin2 Server Files\mainline\SRC_2014\Metin2Client\eterPythonLib\PythonGraphicTextModule.cpp
;	COMDAT ?grpTextSetText@@YAPAU_object@@PAU1@0@Z
_TEXT	SEGMENT
_pTextInstance$ = -8					; size = 4
_szText$ = -4						; size = 4
_poSelf$ = 8						; size = 4
_poArgs$ = 12						; size = 4
?grpTextSetText@@YAPAU_object@@PAU1@0@Z PROC		; grpTextSetText, COMDAT

; 62   : {

  00000	55		 push	 ebp
  00001	8b ec		 mov	 ebp, esp
  00003	51		 push	 ecx
  00004	51		 push	 ecx

; 63   : 	CGraphicTextInstance* pTextInstance;
; 64   : 	if (!PyTuple_GetTextInstance(poArgs, 0, &pTextInstance))

  00005	8d 45 f8	 lea	 eax, DWORD PTR _pTextInstance$[ebp]
  00008	50		 push	 eax
  00009	6a 00		 push	 0
  0000b	ff 75 0c	 push	 DWORD PTR _poArgs$[ebp]
  0000e	e8 00 00 00 00	 call	 ?PyTuple_GetTextInstance@@YA_NPAU_object@@HPAPAVCGraphicTextInstance@@@Z ; PyTuple_GetTextInstance
  00013	83 c4 0c	 add	 esp, 12			; 0000000cH
  00016	0f b6 c0	 movzx	 eax, al
  00019	85 c0		 test	 eax, eax
  0001b	75 0a		 jne	 SHORT $LN2@grpTextSet

; 65   : 		return Py_BuildException();

  0001d	6a 00		 push	 0
  0001f	e8 00 00 00 00	 call	 ?Py_BuildException@@YAPAU_object@@PBDZZ ; Py_BuildException
  00024	59		 pop	 ecx
  00025	eb 34		 jmp	 SHORT $LN1@grpTextSet
$LN2@grpTextSet:

; 66   : 
; 67   : 	char* szText;
; 68   : 	if (!PyTuple_GetString(poArgs, 1, &szText))

  00027	8d 45 fc	 lea	 eax, DWORD PTR _szText$[ebp]
  0002a	50		 push	 eax
  0002b	6a 01		 push	 1
  0002d	ff 75 0c	 push	 DWORD PTR _poArgs$[ebp]
  00030	e8 00 00 00 00	 call	 ?PyTuple_GetString@@YA_NPAU_object@@HPAPAD@Z ; PyTuple_GetString
  00035	83 c4 0c	 add	 esp, 12			; 0000000cH
  00038	0f b6 c0	 movzx	 eax, al
  0003b	85 c0		 test	 eax, eax
  0003d	75 0a		 jne	 SHORT $LN3@grpTextSet

; 69   : 		return Py_BuildException();

  0003f	6a 00		 push	 0
  00041	e8 00 00 00 00	 call	 ?Py_BuildException@@YAPAU_object@@PBDZZ ; Py_BuildException
  00046	59		 pop	 ecx
  00047	eb 12		 jmp	 SHORT $LN1@grpTextSet
$LN3@grpTextSet:

; 70   : 
; 71   : 	pTextInstance->SetValue(szText);

  00049	6a ff		 push	 -1
  0004b	ff 75 fc	 push	 DWORD PTR _szText$[ebp]
  0004e	8b 4d f8	 mov	 ecx, DWORD PTR _pTextInstance$[ebp]
  00051	e8 00 00 00 00	 call	 ?SetValue@CGraphicTextInstance@@QAEXPBDI@Z ; CGraphicTextInstance::SetValue

; 72   : 	return Py_BuildNone();

  00056	e8 00 00 00 00	 call	 ?Py_BuildNone@@YAPAU_object@@XZ ; Py_BuildNone
$LN1@grpTextSet:

; 73   : }

  0005b	c9		 leave
  0005c	c3		 ret	 0
?grpTextSetText@@YAPAU_object@@PAU1@0@Z ENDP		; grpTextSetText
_TEXT	ENDS
; Function compile flags: /Odspy
; File D:\Metin2 Server Files\mainline\SRC_2014\Metin2Client\eterPythonLib\PythonGraphicTextModule.cpp
;	COMDAT ?grpTextSetPosition@@YAPAU_object@@PAU1@0@Z
_TEXT	SEGMENT
_pTextInstance$ = -12					; size = 4
_ix$ = -8						; size = 4
_iy$ = -4						; size = 4
_poSelf$ = 8						; size = 4
_poArgs$ = 12						; size = 4
?grpTextSetPosition@@YAPAU_object@@PAU1@0@Z PROC	; grpTextSetPosition, COMDAT

; 45   : {

  00000	55		 push	 ebp
  00001	8b ec		 mov	 ebp, esp
  00003	83 ec 0c	 sub	 esp, 12			; 0000000cH

; 46   : 	CGraphicTextInstance* pTextInstance;
; 47   : 	if (!PyTuple_GetTextInstance(poArgs, 0, &pTextInstance))

  00006	8d 45 f4	 lea	 eax, DWORD PTR _pTextInstance$[ebp]
  00009	50		 push	 eax
  0000a	6a 00		 push	 0
  0000c	ff 75 0c	 push	 DWORD PTR _poArgs$[ebp]
  0000f	e8 00 00 00 00	 call	 ?PyTuple_GetTextInstance@@YA_NPAU_object@@HPAPAVCGraphicTextInstance@@@Z ; PyTuple_GetTextInstance
  00014	83 c4 0c	 add	 esp, 12			; 0000000cH
  00017	0f b6 c0	 movzx	 eax, al
  0001a	85 c0		 test	 eax, eax
  0001c	75 0a		 jne	 SHORT $LN2@grpTextSet

; 48   : 		return Py_BuildException();

  0001e	6a 00		 push	 0
  00020	e8 00 00 00 00	 call	 ?Py_BuildException@@YAPAU_object@@PBDZZ ; Py_BuildException
  00025	59		 pop	 ecx
  00026	eb 70		 jmp	 SHORT $LN1@grpTextSet
$LN2@grpTextSet:

; 49   : 
; 50   : 	int ix;
; 51   : 	if (!PyTuple_GetInteger(poArgs, 1, &ix))

  00028	8d 45 f8	 lea	 eax, DWORD PTR _ix$[ebp]
  0002b	50		 push	 eax
  0002c	6a 01		 push	 1
  0002e	ff 75 0c	 push	 DWORD PTR _poArgs$[ebp]
  00031	e8 00 00 00 00	 call	 ?PyTuple_GetInteger@@YA_NPAU_object@@HPAH@Z ; PyTuple_GetInteger
  00036	83 c4 0c	 add	 esp, 12			; 0000000cH
  00039	0f b6 c0	 movzx	 eax, al
  0003c	85 c0		 test	 eax, eax
  0003e	75 0a		 jne	 SHORT $LN3@grpTextSet

; 52   : 		return Py_BuildException();

  00040	6a 00		 push	 0
  00042	e8 00 00 00 00	 call	 ?Py_BuildException@@YAPAU_object@@PBDZZ ; Py_BuildException
  00047	59		 pop	 ecx
  00048	eb 4e		 jmp	 SHORT $LN1@grpTextSet
$LN3@grpTextSet:

; 53   : 	int iy;
; 54   : 	if (!PyTuple_GetInteger(poArgs, 2, &iy))

  0004a	8d 45 fc	 lea	 eax, DWORD PTR _iy$[ebp]
  0004d	50		 push	 eax
  0004e	6a 02		 push	 2
  00050	ff 75 0c	 push	 DWORD PTR _poArgs$[ebp]
  00053	e8 00 00 00 00	 call	 ?PyTuple_GetInteger@@YA_NPAU_object@@HPAH@Z ; PyTuple_GetInteger
  00058	83 c4 0c	 add	 esp, 12			; 0000000cH
  0005b	0f b6 c0	 movzx	 eax, al
  0005e	85 c0		 test	 eax, eax
  00060	75 0a		 jne	 SHORT $LN4@grpTextSet

; 55   : 		return Py_BuildException();

  00062	6a 00		 push	 0
  00064	e8 00 00 00 00	 call	 ?Py_BuildException@@YAPAU_object@@PBDZZ ; Py_BuildException
  00069	59		 pop	 ecx
  0006a	eb 2c		 jmp	 SHORT $LN1@grpTextSet
$LN4@grpTextSet:

; 56   : 
; 57   : 	pTextInstance->SetPosition((float) ix, (float) iy);

  0006c	51		 push	 ecx
  0006d	0f 57 c0	 xorps	 xmm0, xmm0
  00070	f3 0f 11 04 24	 movss	 DWORD PTR [esp], xmm0
  00075	f3 0f 2a 45 fc	 cvtsi2ss xmm0, DWORD PTR _iy$[ebp]
  0007a	51		 push	 ecx
  0007b	f3 0f 11 04 24	 movss	 DWORD PTR [esp], xmm0
  00080	f3 0f 2a 45 f8	 cvtsi2ss xmm0, DWORD PTR _ix$[ebp]
  00085	51		 push	 ecx
  00086	f3 0f 11 04 24	 movss	 DWORD PTR [esp], xmm0
  0008b	8b 4d f4	 mov	 ecx, DWORD PTR _pTextInstance$[ebp]
  0008e	e8 00 00 00 00	 call	 ?SetPosition@CGraphicTextInstance@@QAEXMMM@Z ; CGraphicTextInstance::SetPosition

; 58   : 	return Py_BuildNone();

  00093	e8 00 00 00 00	 call	 ?Py_BuildNone@@YAPAU_object@@XZ ; Py_BuildNone
$LN1@grpTextSet:

; 59   : }

  00098	c9		 leave
  00099	c3		 ret	 0
?grpTextSetPosition@@YAPAU_object@@PAU1@0@Z ENDP	; grpTextSetPosition
_TEXT	ENDS
; Function compile flags: /Odspy
; File D:\Metin2 Server Files\mainline\SRC_2014\Metin2Client\eterPythonLib\PythonGraphicTextModule.cpp
;	COMDAT ?grpTextGetSize@@YAPAU_object@@PAU1@0@Z
_TEXT	SEGMENT
_width$ = -12						; size = 4
_height$ = -8						; size = 4
_pTextInstance$ = -4					; size = 4
_poSelf$ = 8						; size = 4
_poArgs$ = 12						; size = 4
?grpTextGetSize@@YAPAU_object@@PAU1@0@Z PROC		; grpTextGetSize, COMDAT

; 34   : {

  00000	55		 push	 ebp
  00001	8b ec		 mov	 ebp, esp
  00003	83 ec 0c	 sub	 esp, 12			; 0000000cH

; 35   : 	CGraphicTextInstance* pTextInstance;
; 36   : 	if (!PyTuple_GetTextInstance(poArgs, 0, &pTextInstance))

  00006	8d 45 fc	 lea	 eax, DWORD PTR _pTextInstance$[ebp]
  00009	50		 push	 eax
  0000a	6a 00		 push	 0
  0000c	ff 75 0c	 push	 DWORD PTR _poArgs$[ebp]
  0000f	e8 00 00 00 00	 call	 ?PyTuple_GetTextInstance@@YA_NPAU_object@@HPAPAVCGraphicTextInstance@@@Z ; PyTuple_GetTextInstance
  00014	83 c4 0c	 add	 esp, 12			; 0000000cH
  00017	0f b6 c0	 movzx	 eax, al
  0001a	85 c0		 test	 eax, eax
  0001c	75 0a		 jne	 SHORT $LN2@grpTextGet

; 37   : 		return Py_BuildException();

  0001e	6a 00		 push	 0
  00020	e8 00 00 00 00	 call	 ?Py_BuildException@@YAPAU_object@@PBDZZ ; Py_BuildException
  00025	59		 pop	 ecx
  00026	eb 24		 jmp	 SHORT $LN1@grpTextGet
$LN2@grpTextGet:

; 38   : 
; 39   : 	int width, height;
; 40   : 	pTextInstance->GetTextSize(&width, &height);

  00028	8d 45 f8	 lea	 eax, DWORD PTR _height$[ebp]
  0002b	50		 push	 eax
  0002c	8d 45 f4	 lea	 eax, DWORD PTR _width$[ebp]
  0002f	50		 push	 eax
  00030	8b 4d fc	 mov	 ecx, DWORD PTR _pTextInstance$[ebp]
  00033	e8 00 00 00 00	 call	 ?GetTextSize@CGraphicTextInstance@@QAEXPAH0@Z ; CGraphicTextInstance::GetTextSize

; 41   : 	return Py_BuildValue("(i, i)", width, height);

  00038	ff 75 f8	 push	 DWORD PTR _height$[ebp]
  0003b	ff 75 f4	 push	 DWORD PTR _width$[ebp]
  0003e	68 00 00 00 00	 push	 OFFSET ??_C@_06BGHJALJH@?$CIi?0?5i?$CJ@
  00043	ff 15 00 00 00
	00		 call	 DWORD PTR __imp__Py_BuildValue
  00049	83 c4 0c	 add	 esp, 12			; 0000000cH
$LN1@grpTextGet:

; 42   : }

  0004c	c9		 leave
  0004d	c3		 ret	 0
?grpTextGetSize@@YAPAU_object@@PAU1@0@Z ENDP		; grpTextGetSize
_TEXT	ENDS
; Function compile flags: /Odspy
; File D:\Metin2 Server Files\mainline\SRC_2014\Metin2Client\eterPythonLib\PythonGraphicTextModule.cpp
;	COMDAT ?grpTextDestroy@@YAPAU_object@@PAU1@0@Z
_TEXT	SEGMENT
_pTextInstance$ = -4					; size = 4
_poSelf$ = 8						; size = 4
_poArgs$ = 12						; size = 4
?grpTextDestroy@@YAPAU_object@@PAU1@0@Z PROC		; grpTextDestroy, COMDAT

; 24   : {

  00000	55		 push	 ebp
  00001	8b ec		 mov	 ebp, esp
  00003	51		 push	 ecx

; 25   : 	CGraphicTextInstance* pTextInstance;
; 26   : 	if (!PyTuple_GetTextInstance(poArgs, 0, &pTextInstance))

  00004	8d 45 fc	 lea	 eax, DWORD PTR _pTextInstance$[ebp]
  00007	50		 push	 eax
  00008	6a 00		 push	 0
  0000a	ff 75 0c	 push	 DWORD PTR _poArgs$[ebp]
  0000d	e8 00 00 00 00	 call	 ?PyTuple_GetTextInstance@@YA_NPAU_object@@HPAPAVCGraphicTextInstance@@@Z ; PyTuple_GetTextInstance
  00012	83 c4 0c	 add	 esp, 12			; 0000000cH
  00015	0f b6 c0	 movzx	 eax, al
  00018	85 c0		 test	 eax, eax
  0001a	75 0a		 jne	 SHORT $LN2@grpTextDes

; 27   : 		return Py_BuildException();

  0001c	6a 00		 push	 0
  0001e	e8 00 00 00 00	 call	 ?Py_BuildException@@YAPAU_object@@PBDZZ ; Py_BuildException
  00023	59		 pop	 ecx
  00024	eb 0e		 jmp	 SHORT $LN1@grpTextDes
$LN2@grpTextDes:

; 28   : 
; 29   : 	CGraphicTextInstance::Delete(pTextInstance);

  00026	ff 75 fc	 push	 DWORD PTR _pTextInstance$[ebp]
  00029	e8 00 00 00 00	 call	 ?Delete@CGraphicTextInstance@@SAXPAV1@@Z ; CGraphicTextInstance::Delete
  0002e	59		 pop	 ecx

; 30   : 	return Py_BuildNone();

  0002f	e8 00 00 00 00	 call	 ?Py_BuildNone@@YAPAU_object@@XZ ; Py_BuildNone
$LN1@grpTextDes:

; 31   : }

  00034	c9		 leave
  00035	c3		 ret	 0
?grpTextDestroy@@YAPAU_object@@PAU1@0@Z ENDP		; grpTextDestroy
_TEXT	ENDS
; Function compile flags: /Odspy
; File D:\Metin2 Server Files\mainline\SRC_2014\Metin2Client\eterPythonLib\PythonGraphicTextModule.cpp
;	COMDAT ?grpTextGenerate@@YAPAU_object@@PAU1@0@Z
_TEXT	SEGMENT
_pTextInstance$ = -4					; size = 4
_poSelf$ = 8						; size = 4
_poArgs$ = 12						; size = 4
?grpTextGenerate@@YAPAU_object@@PAU1@0@Z PROC		; grpTextGenerate, COMDAT

; 18   : {

  00000	55		 push	 ebp
  00001	8b ec		 mov	 ebp, esp
  00003	51		 push	 ecx

; 19   : 	CGraphicTextInstance * pTextInstance = CGraphicTextInstance::New();

  00004	e8 00 00 00 00	 call	 ?New@CGraphicTextInstance@@SAPAV1@XZ ; CGraphicTextInstance::New
  00009	89 45 fc	 mov	 DWORD PTR _pTextInstance$[ebp], eax

; 20   : 	return Py_BuildValue("i", pTextInstance);

  0000c	ff 75 fc	 push	 DWORD PTR _pTextInstance$[ebp]
  0000f	68 00 00 00 00	 push	 OFFSET ??_C@_01KBJDNOO@i@
  00014	ff 15 00 00 00
	00		 call	 DWORD PTR __imp__Py_BuildValue
  0001a	59		 pop	 ecx
  0001b	59		 pop	 ecx

; 21   : }

  0001c	c9		 leave
  0001d	c3		 ret	 0
?grpTextGenerate@@YAPAU_object@@PAU1@0@Z ENDP		; grpTextGenerate
_TEXT	ENDS
; Function compile flags: /Odspy
; File D:\Metin2 Server Files\mainline\SRC_2014\Metin2Client\eterPythonLib\PythonGraphicTextModule.cpp
;	COMDAT ?PyTuple_GetTextInstance@@YA_NPAU_object@@HPAPAVCGraphicTextInstance@@@Z
_TEXT	SEGMENT
_handle$ = -4						; size = 4
_poArgs$ = 8						; size = 4
_pos$ = 12						; size = 4
_ppTextInstance$ = 16					; size = 4
?PyTuple_GetTextInstance@@YA_NPAU_object@@HPAPAVCGraphicTextInstance@@@Z PROC ; PyTuple_GetTextInstance, COMDAT

; 4    : {

  00000	55		 push	 ebp
  00001	8b ec		 mov	 ebp, esp
  00003	51		 push	 ecx

; 5    : 	int handle;
; 6    : 	if (!PyTuple_GetInteger(poArgs, pos, &handle))

  00004	8d 45 fc	 lea	 eax, DWORD PTR _handle$[ebp]
  00007	50		 push	 eax
  00008	ff 75 0c	 push	 DWORD PTR _pos$[ebp]
  0000b	ff 75 08	 push	 DWORD PTR _poArgs$[ebp]
  0000e	e8 00 00 00 00	 call	 ?PyTuple_GetInteger@@YA_NPAU_object@@HPAH@Z ; PyTuple_GetInteger
  00013	83 c4 0c	 add	 esp, 12			; 0000000cH
  00016	0f b6 c0	 movzx	 eax, al
  00019	85 c0		 test	 eax, eax
  0001b	75 04		 jne	 SHORT $LN2@PyTuple_Ge

; 7    : 		return false;

  0001d	32 c0		 xor	 al, al
  0001f	eb 14		 jmp	 SHORT $LN1@PyTuple_Ge
$LN2@PyTuple_Ge:

; 8    : 
; 9    : 	if (!handle)

  00021	83 7d fc 00	 cmp	 DWORD PTR _handle$[ebp], 0
  00025	75 04		 jne	 SHORT $LN3@PyTuple_Ge

; 10   : 		return false;

  00027	32 c0		 xor	 al, al
  00029	eb 0a		 jmp	 SHORT $LN1@PyTuple_Ge
$LN3@PyTuple_Ge:

; 11   : 
; 12   : 	*ppTextInstance=(CGraphicTextInstance*)handle;	

  0002b	8b 45 10	 mov	 eax, DWORD PTR _ppTextInstance$[ebp]
  0002e	8b 4d fc	 mov	 ecx, DWORD PTR _handle$[ebp]
  00031	89 08		 mov	 DWORD PTR [eax], ecx

; 13   : 
; 14   : 	return true;

  00033	b0 01		 mov	 al, 1
$LN1@PyTuple_Ge:

; 15   : }

  00035	c9		 leave
  00036	c3		 ret	 0
?PyTuple_GetTextInstance@@YA_NPAU_object@@HPAPAVCGraphicTextInstance@@@Z ENDP ; PyTuple_GetTextInstance
_TEXT	ENDS
; Function compile flags: /Odspy
; File C:\Program Files (x86)\Microsoft Visual Studio\2019\Community\VC\Tools\MSVC\14.28.29333\include\xmemory
;	COMDAT ??$_Allocate_manually_vector_aligned@U_Default_allocate_traits@std@@@std@@YAPAXI@Z
_TEXT	SEGMENT
__Ptr$ = -12						; size = 4
__Block_size$ = -8					; size = 4
__Ptr_container$ = -4					; size = 4
__Bytes$ = 8						; size = 4
??$_Allocate_manually_vector_aligned@U_Default_allocate_traits@std@@@std@@YAPAXI@Z PROC ; std::_Allocate_manually_vector_aligned<std::_Default_allocate_traits>, COMDAT

; 113  : __declspec(allocator) void* _Allocate_manually_vector_aligned(const size_t _Bytes) {

  00000	55		 push	 ebp
  00001	8b ec		 mov	 ebp, esp
  00003	83 ec 0c	 sub	 esp, 12			; 0000000cH

; 114  :     // allocate _Bytes manually aligned to at least _Big_allocation_alignment
; 115  :     const size_t _Block_size = _Non_user_size + _Bytes;

  00006	8b 45 08	 mov	 eax, DWORD PTR __Bytes$[ebp]
  00009	83 c0 23	 add	 eax, 35			; 00000023H
  0000c	89 45 f8	 mov	 DWORD PTR __Block_size$[ebp], eax

; 116  :     if (_Block_size <= _Bytes) {

  0000f	8b 45 f8	 mov	 eax, DWORD PTR __Block_size$[ebp]
  00012	3b 45 08	 cmp	 eax, DWORD PTR __Bytes$[ebp]
  00015	77 05		 ja	 SHORT $LN12@Allocate_m

; 117  :         _Throw_bad_array_new_length(); // add overflow

  00017	e8 00 00 00 00	 call	 ?_Throw_bad_array_new_length@std@@YAXXZ ; std::_Throw_bad_array_new_length
$LN12@Allocate_m:

; 77   :         return ::operator new(_Bytes);

  0001c	ff 75 f8	 push	 DWORD PTR __Block_size$[ebp]
  0001f	e8 00 00 00 00	 call	 ??2@YAPAXI@Z		; operator new
  00024	59		 pop	 ecx

; 118  :     }
; 119  : 
; 120  :     const uintptr_t _Ptr_container = reinterpret_cast<uintptr_t>(_Traits::_Allocate(_Block_size));

  00025	89 45 fc	 mov	 DWORD PTR __Ptr_container$[ebp], eax
$LN4@Allocate_m:

; 121  :     _STL_VERIFY(_Ptr_container != 0, "invalid argument"); // validate even in release since we're doing p[-1]

  00028	83 7d fc 00	 cmp	 DWORD PTR __Ptr_container$[ebp], 0
  0002c	74 02		 je	 SHORT $LN7@Allocate_m
  0002e	eb 09		 jmp	 SHORT $LN2@Allocate_m
$LN7@Allocate_m:
  00030	e8 00 00 00 00	 call	 __invalid_parameter_noinfo_noreturn
  00035	33 c0		 xor	 eax, eax
  00037	75 f7		 jne	 SHORT $LN7@Allocate_m
$LN2@Allocate_m:
  00039	33 c0		 xor	 eax, eax
  0003b	75 eb		 jne	 SHORT $LN4@Allocate_m

; 122  :     void* const _Ptr = reinterpret_cast<void*>((_Ptr_container + _Non_user_size) & ~(_Big_allocation_alignment - 1));

  0003d	8b 45 fc	 mov	 eax, DWORD PTR __Ptr_container$[ebp]
  00040	83 c0 23	 add	 eax, 35			; 00000023H
  00043	83 e0 e0	 and	 eax, -32		; ffffffe0H
  00046	89 45 f4	 mov	 DWORD PTR __Ptr$[ebp], eax

; 123  :     static_cast<uintptr_t*>(_Ptr)[-1] = _Ptr_container;

  00049	6a 04		 push	 4
  0004b	58		 pop	 eax
  0004c	6b c0 ff	 imul	 eax, eax, -1
  0004f	8b 4d f4	 mov	 ecx, DWORD PTR __Ptr$[ebp]
  00052	8b 55 fc	 mov	 edx, DWORD PTR __Ptr_container$[ebp]
  00055	89 14 01	 mov	 DWORD PTR [ecx+eax], edx

; 124  : 
; 125  : #ifdef _DEBUG
; 126  :     static_cast<uintptr_t*>(_Ptr)[-2] = _Big_allocation_sentinel;
; 127  : #endif // _DEBUG
; 128  :     return _Ptr;

  00058	8b 45 f4	 mov	 eax, DWORD PTR __Ptr$[ebp]
$LN11@Allocate_m:

; 129  : }

  0005b	c9		 leave
  0005c	c3		 ret	 0
??$_Allocate_manually_vector_aligned@U_Default_allocate_traits@std@@@std@@YAPAXI@Z ENDP ; std::_Allocate_manually_vector_aligned<std::_Default_allocate_traits>
_TEXT	ENDS
; Function compile flags: /Odspy
; File C:\Program Files (x86)\Microsoft Visual Studio\2019\Community\VC\Tools\MSVC\14.28.29333\include\xmemory
;	COMDAT ??$_Allocate@$07U_Default_allocate_traits@std@@$0A@@std@@YAPAXI@Z
_TEXT	SEGMENT
__Bytes$ = 8						; size = 4
??$_Allocate@$07U_Default_allocate_traits@std@@$0A@@std@@YAPAXI@Z PROC ; std::_Allocate<8,std::_Default_allocate_traits,0>, COMDAT

; 197  : __declspec(allocator) void* _Allocate(const size_t _Bytes) {

  00000	55		 push	 ebp
  00001	8b ec		 mov	 ebp, esp

; 198  :     // allocate _Bytes when !_HAS_ALIGNED_NEW || _Align <= __STDCPP_DEFAULT_NEW_ALIGNMENT__
; 199  : #if defined(_M_IX86) || defined(_M_X64)
; 200  :     if (_Bytes >= _Big_allocation_threshold) { // boost the alignment of big allocations to help autovectorization

  00003	81 7d 08 00 10
	00 00		 cmp	 DWORD PTR __Bytes$[ebp], 4096 ; 00001000H
  0000a	72 0b		 jb	 SHORT $LN2@Allocate

; 201  :         return _Allocate_manually_vector_aligned<_Traits>(_Bytes);

  0000c	ff 75 08	 push	 DWORD PTR __Bytes$[ebp]
  0000f	e8 00 00 00 00	 call	 ??$_Allocate_manually_vector_aligned@U_Default_allocate_traits@std@@@std@@YAPAXI@Z ; std::_Allocate_manually_vector_aligned<std::_Default_allocate_traits>
  00014	59		 pop	 ecx
  00015	eb 13		 jmp	 SHORT $LN1@Allocate
$LN2@Allocate:

; 202  :     }
; 203  : #endif // defined(_M_IX86) || defined(_M_X64)
; 204  : 
; 205  :     if (_Bytes != 0) {

  00017	83 7d 08 00	 cmp	 DWORD PTR __Bytes$[ebp], 0
  0001b	74 0b		 je	 SHORT $LN3@Allocate

; 77   :         return ::operator new(_Bytes);

  0001d	ff 75 08	 push	 DWORD PTR __Bytes$[ebp]
  00020	e8 00 00 00 00	 call	 ??2@YAPAXI@Z		; operator new
  00025	59		 pop	 ecx

; 206  :         return _Traits::_Allocate(_Bytes);

  00026	eb 02		 jmp	 SHORT $LN1@Allocate
$LN3@Allocate:

; 207  :     }
; 208  : 
; 209  :     return nullptr;

  00028	33 c0		 xor	 eax, eax
$LN1@Allocate:

; 210  : }

  0002a	5d		 pop	 ebp
  0002b	c3		 ret	 0
??$_Allocate@$07U_Default_allocate_traits@std@@$0A@@std@@YAPAXI@Z ENDP ; std::_Allocate<8,std::_Default_allocate_traits,0>
_TEXT	ENDS
; Function compile flags: /Odspy
; File C:\Program Files (x86)\Microsoft Visual Studio\2019\Community\VC\Tools\MSVC\14.28.29333\include\xmemory
;	COMDAT ??$_Deallocate@$07$0A@@std@@YAXPAXI@Z
_TEXT	SEGMENT
__$EHRec$ = -12						; size = 12
__Ptr$ = 8						; size = 4
__Bytes$ = 12						; size = 4
??$_Deallocate@$07$0A@@std@@YAXPAXI@Z PROC		; std::_Deallocate<8,0>, COMDAT

; 213  : void _Deallocate(void* _Ptr, size_t _Bytes) noexcept {

  00000	55		 push	 ebp
  00001	8b ec		 mov	 ebp, esp
  00003	6a ff		 push	 -1
  00005	68 00 00 00 00	 push	 __ehhandler$??$_Deallocate@$07$0A@@std@@YAXPAXI@Z
  0000a	64 a1 00 00 00
	00		 mov	 eax, DWORD PTR fs:0
  00010	50		 push	 eax
  00011	a1 00 00 00 00	 mov	 eax, DWORD PTR ___security_cookie
  00016	33 c5		 xor	 eax, ebp
  00018	50		 push	 eax
  00019	8d 45 f4	 lea	 eax, DWORD PTR __$EHRec$[ebp]
  0001c	64 a3 00 00 00
	00		 mov	 DWORD PTR fs:0, eax

; 214  :     // deallocate storage allocated by _Allocate when !_HAS_ALIGNED_NEW || _Align <= __STDCPP_DEFAULT_NEW_ALIGNMENT__
; 215  : #if defined(_M_IX86) || defined(_M_X64)
; 216  :     if (_Bytes >= _Big_allocation_threshold) { // boost the alignment of big allocations to help autovectorization

  00022	81 7d 0c 00 10
	00 00		 cmp	 DWORD PTR __Bytes$[ebp], 4096 ; 00001000H
  00029	72 0f		 jb	 SHORT $LN2@Deallocate

; 217  :         _Adjust_manually_vector_aligned(_Ptr, _Bytes);

  0002b	8d 45 0c	 lea	 eax, DWORD PTR __Bytes$[ebp]
  0002e	50		 push	 eax
  0002f	8d 45 08	 lea	 eax, DWORD PTR __Ptr$[ebp]
  00032	50		 push	 eax
  00033	e8 00 00 00 00	 call	 ?_Adjust_manually_vector_aligned@std@@YAXAAPAXAAI@Z ; std::_Adjust_manually_vector_aligned
  00038	59		 pop	 ecx
  00039	59		 pop	 ecx
$LN2@Deallocate:

; 218  :     }
; 219  : #endif // defined(_M_IX86) || defined(_M_X64)
; 220  : 
; 221  :     ::operator delete(_Ptr, _Bytes);

  0003a	ff 75 0c	 push	 DWORD PTR __Bytes$[ebp]
  0003d	ff 75 08	 push	 DWORD PTR __Ptr$[ebp]
  00040	e8 00 00 00 00	 call	 ??3@YAXPAXI@Z		; operator delete
  00045	59		 pop	 ecx
  00046	59		 pop	 ecx

; 222  : }

  00047	8b 4d f4	 mov	 ecx, DWORD PTR __$EHRec$[ebp]
  0004a	64 89 0d 00 00
	00 00		 mov	 DWORD PTR fs:0, ecx
  00051	59		 pop	 ecx
  00052	c9		 leave
  00053	c3		 ret	 0
  00054	cc		 int	 3
  00055	cc		 int	 3
  00056	cc		 int	 3
  00057	cc		 int	 3
  00058	cc		 int	 3
_TEXT	ENDS
;	COMDAT text$x
text$x	SEGMENT
__ehhandler$??$_Deallocate@$07$0A@@std@@YAXPAXI@Z:
  00000	90		 npad	 1
  00001	90		 npad	 1
  00002	8b 54 24 08	 mov	 edx, DWORD PTR [esp+8]
  00006	8d 42 0c	 lea	 eax, DWORD PTR [edx+12]
  00009	8b 4a fc	 mov	 ecx, DWORD PTR [edx-4]
  0000c	33 c8		 xor	 ecx, eax
  0000e	e8 00 00 00 00	 call	 @__security_check_cookie@4
  00013	b8 00 00 00 00	 mov	 eax, OFFSET __ehfuncinfo$??$_Deallocate@$07$0A@@std@@YAXPAXI@Z
  00018	e9 00 00 00 00	 jmp	 ___CxxFrameHandler3
text$x	ENDS
??$_Deallocate@$07$0A@@std@@YAXPAXI@Z ENDP		; std::_Deallocate<8,0>
; Function compile flags: /Odspy
; File C:\Program Files (x86)\Microsoft Visual Studio\2019\Community\VC\Tools\MSVC\14.28.29333\include\xmemory
; File C:\Program Files (x86)\Microsoft Visual Studio\2019\Community\VC\Tools\MSVC\14.28.29333\include\xstddef
; File C:\Program Files (x86)\Microsoft Visual Studio\2019\Community\VC\Tools\MSVC\14.28.29333\include\vcruntime_new.h
; File C:\Program Files (x86)\Microsoft Visual Studio\2019\Community\VC\Tools\MSVC\14.28.29333\include\type_traits
; File C:\Program Files (x86)\Microsoft Visual Studio\2019\Community\VC\Tools\MSVC\14.28.29333\include\xmemory
;	COMDAT ??$_Construct_in_place@PADABQAD@std@@YAXAAPADABQAD@Z
_TEXT	SEGMENT
$T1 = -12						; size = 4
$T2 = -8						; size = 4
$T3 = -4						; size = 4
__Obj$ = 8						; size = 4
_<_Args_0>$ = 12					; size = 4
??$_Construct_in_place@PADABQAD@std@@YAXAAPADABQAD@Z PROC ; std::_Construct_in_place<char *,char * const &>, COMDAT

; 228  : void _Construct_in_place(_Ty& _Obj, _Types&&... _Args) noexcept(is_nothrow_constructible_v<_Ty, _Types...>) {

  00000	55		 push	 ebp
  00001	8b ec		 mov	 ebp, esp
  00003	83 ec 0c	 sub	 esp, 12			; 0000000cH
; File C:\Program Files (x86)\Microsoft Visual Studio\2019\Community\VC\Tools\MSVC\14.28.29333\include\xstddef

; 275  :     return __builtin_addressof(_Val);

  00006	8b 45 08	 mov	 eax, DWORD PTR __Obj$[ebp]
  00009	89 45 fc	 mov	 DWORD PTR $T3[ebp], eax
; File C:\Program Files (x86)\Microsoft Visual Studio\2019\Community\VC\Tools\MSVC\14.28.29333\include\vcruntime_new.h

; 169  :         return _Where;

  0000c	8b 45 fc	 mov	 eax, DWORD PTR $T3[ebp]
  0000f	89 45 f8	 mov	 DWORD PTR $T2[ebp], eax
; File C:\Program Files (x86)\Microsoft Visual Studio\2019\Community\VC\Tools\MSVC\14.28.29333\include\type_traits

; 1443 :     return static_cast<_Ty&&>(_Arg);

  00012	8b 45 0c	 mov	 eax, DWORD PTR _<_Args_0>$[ebp]
  00015	89 45 f4	 mov	 DWORD PTR $T1[ebp], eax
; File C:\Program Files (x86)\Microsoft Visual Studio\2019\Community\VC\Tools\MSVC\14.28.29333\include\xmemory

; 229  :     ::new (const_cast<void*>(static_cast<const volatile void*>(_STD addressof(_Obj))))

  00018	8b 45 f8	 mov	 eax, DWORD PTR $T2[ebp]
  0001b	8b 4d f4	 mov	 ecx, DWORD PTR $T1[ebp]
  0001e	8b 09		 mov	 ecx, DWORD PTR [ecx]
  00020	89 08		 mov	 DWORD PTR [eax], ecx

; 230  :         _Ty(_STD forward<_Types>(_Args)...);
; 231  : }

  00022	c9		 leave
  00023	c3		 ret	 0
??$_Construct_in_place@PADABQAD@std@@YAXAAPADABQAD@Z ENDP ; std::_Construct_in_place<char *,char * const &>
_TEXT	ENDS
; Function compile flags: /Odspy
; File C:\Program Files (x86)\Microsoft Visual Studio\2019\Community\VC\Tools\MSVC\14.28.29333\include\xstring
; File C:\Program Files (x86)\Microsoft Visual Studio\2019\Community\VC\Tools\MSVC\14.28.29333\include\xmemory
; File C:\Program Files (x86)\Microsoft Visual Studio\2019\Community\VC\Tools\MSVC\14.28.29333\include\xstring
; File C:\Program Files (x86)\Microsoft Visual Studio\2019\Community\VC\Tools\MSVC\14.28.29333\include\xmemory
; File C:\Program Files (x86)\Microsoft Visual Studio\2019\Community\VC\Tools\MSVC\14.28.29333\include\xstring
; File C:\Program Files (x86)\Microsoft Visual Studio\2019\Community\VC\Tools\MSVC\14.28.29333\include\xmemory
; File C:\Program Files (x86)\Microsoft Visual Studio\2019\Community\VC\Tools\MSVC\14.28.29333\include\xstring
; File C:\Program Files (x86)\Microsoft Visual Studio\2019\Community\VC\Tools\MSVC\14.28.29333\include\xstddef
; File C:\Program Files (x86)\Microsoft Visual Studio\2019\Community\VC\Tools\MSVC\14.28.29333\include\xstring
; File C:\Program Files (x86)\Microsoft Visual Studio\2019\Community\VC\Tools\MSVC\14.28.29333\include\xstddef
; File C:\Program Files (x86)\Microsoft Visual Studio\2019\Community\VC\Tools\MSVC\14.28.29333\include\xstring
; File C:\Program Files (x86)\Microsoft Visual Studio\2019\Community\VC\Tools\MSVC\14.28.29333\include\xmemory
; File C:\Program Files (x86)\Microsoft Visual Studio\2019\Community\VC\Tools\MSVC\14.28.29333\include\xstring
;	COMDAT ??$_Reallocate_grow_by@V<lambda_ab246b20b9526e2ef7792587e4298a77>@@PBDI@?$basic_string@DU?$char_traits@D@std@@V?$allocator@D@2@@std@@AAEAAV01@IV<lambda_ab246b20b9526e2ef7792587e4298a77>@@PBDI@Z
_TEXT	SEGMENT
__Al$ = -64						; size = 4
__First1$ = -60						; size = 4
__First1$ = -56						; size = 4
$T1 = -52						; size = 4
__Ptr$ = -48						; size = 4
$T2 = -44						; size = 4
__Old_ptr$3 = -40					; size = 4
__Old_capacity$ = -36					; size = 4
__New_capacity$ = -32					; size = 4
__New_size$ = -28					; size = 4
__New_ptr$ = -24					; size = 4
_this$ = -20						; size = 4
__Raw_new$ = -16					; size = 4
__My_data$ = -12					; size = 4
__Old_size$ = -8					; size = 4
__Overflow_is_possible$4 = -3				; size = 1
$T5 = -2						; size = 1
$T6 = -1						; size = 1
__Size_increase$ = 8					; size = 4
__Fn$ = 12						; size = 1
_<_Args_0>$ = 16					; size = 4
_<_Args_1>$ = 20					; size = 4
??$_Reallocate_grow_by@V<lambda_ab246b20b9526e2ef7792587e4298a77>@@PBDI@?$basic_string@DU?$char_traits@D@std@@V?$allocator@D@2@@std@@AAEAAV01@IV<lambda_ab246b20b9526e2ef7792587e4298a77>@@PBDI@Z PROC ; std::basic_string<char,std::char_traits<char>,std::allocator<char> >::_Reallocate_grow_by<<lambda_ab246b20b9526e2ef7792587e4298a77>,char const *,unsigned int>, COMDAT
; _this$ = ecx

; 4328 :     basic_string& _Reallocate_grow_by(const size_type _Size_increase, _Fty _Fn, _ArgTys... _Args) {

  00000	55		 push	 ebp
  00001	8b ec		 mov	 ebp, esp
  00003	83 ec 40	 sub	 esp, 64			; 00000040H
  00006	89 4d ec	 mov	 DWORD PTR _this$[ebp], ecx

; 4329 :         // reallocate to increase size by _Size_increase elements, new buffer prepared by
; 4330 :         // _Fn(_New_ptr, _Old_ptr, _Old_size, _Args...)
; 4331 :         auto& _My_data            = _Mypair._Myval2;

  00009	8b 45 ec	 mov	 eax, DWORD PTR _this$[ebp]
  0000c	89 45 f4	 mov	 DWORD PTR __My_data$[ebp], eax

; 4332 :         const size_type _Old_size = _My_data._Mysize;

  0000f	8b 45 f4	 mov	 eax, DWORD PTR __My_data$[ebp]
  00012	8b 40 10	 mov	 eax, DWORD PTR [eax+16]
  00015	89 45 f8	 mov	 DWORD PTR __Old_size$[ebp], eax

; 4333 :         if (max_size() - _Old_size < _Size_increase) {

  00018	8b 4d ec	 mov	 ecx, DWORD PTR _this$[ebp]
  0001b	e8 00 00 00 00	 call	 ?max_size@?$basic_string@DU?$char_traits@D@std@@V?$allocator@D@2@@std@@QBEIXZ ; std::basic_string<char,std::char_traits<char>,std::allocator<char> >::max_size
  00020	2b 45 f8	 sub	 eax, DWORD PTR __Old_size$[ebp]
  00023	3b 45 08	 cmp	 eax, DWORD PTR __Size_increase$[ebp]
  00026	73 05		 jae	 SHORT $LN2@Reallocate

; 4334 :             _Xlen_string(); // result too long

  00028	e8 00 00 00 00	 call	 ?_Xlen_string@std@@YAXXZ ; std::_Xlen_string
$LN2@Reallocate:

; 4335 :         }
; 4336 : 
; 4337 :         const size_type _New_size     = _Old_size + _Size_increase;

  0002d	8b 45 f8	 mov	 eax, DWORD PTR __Old_size$[ebp]
  00030	03 45 08	 add	 eax, DWORD PTR __Size_increase$[ebp]
  00033	89 45 e4	 mov	 DWORD PTR __New_size$[ebp], eax

; 4338 :         const size_type _Old_capacity = _My_data._Myres;

  00036	8b 45 f4	 mov	 eax, DWORD PTR __My_data$[ebp]
  00039	8b 40 14	 mov	 eax, DWORD PTR [eax+20]
  0003c	89 45 dc	 mov	 DWORD PTR __Old_capacity$[ebp], eax

; 4298 :         return _Calculate_growth(_Requested, _Mypair._Myval2._Myres, max_size());

  0003f	8b 4d ec	 mov	 ecx, DWORD PTR _this$[ebp]
  00042	e8 00 00 00 00	 call	 ?max_size@?$basic_string@DU?$char_traits@D@std@@V?$allocator@D@2@@std@@QBEIXZ ; std::basic_string<char,std::char_traits<char>,std::allocator<char> >::max_size
  00047	50		 push	 eax
  00048	8b 45 ec	 mov	 eax, DWORD PTR _this$[ebp]
  0004b	ff 70 14	 push	 DWORD PTR [eax+20]
  0004e	ff 75 e4	 push	 DWORD PTR __New_size$[ebp]
  00051	e8 00 00 00 00	 call	 ?_Calculate_growth@?$basic_string@DU?$char_traits@D@std@@V?$allocator@D@2@@std@@CAIIII@Z ; std::basic_string<char,std::char_traits<char>,std::allocator<char> >::_Calculate_growth
  00056	83 c4 0c	 add	 esp, 12			; 0000000cH
  00059	89 45 e0	 mov	 DWORD PTR __New_capacity$[ebp], eax

; 4409 :         return _Mypair._Get_first();

  0005c	8b 45 ec	 mov	 eax, DWORD PTR _this$[ebp]
; File C:\Program Files (x86)\Microsoft Visual Studio\2019\Community\VC\Tools\MSVC\14.28.29333\include\xmemory

; 1347 :         return *this;

  0005f	89 45 d4	 mov	 DWORD PTR $T2[ebp], eax
; File C:\Program Files (x86)\Microsoft Visual Studio\2019\Community\VC\Tools\MSVC\14.28.29333\include\xstring

; 4409 :         return _Mypair._Get_first();

  00062	8b 45 d4	 mov	 eax, DWORD PTR $T2[ebp]
  00065	89 45 c0	 mov	 DWORD PTR __Al$[ebp], eax
; File C:\Program Files (x86)\Microsoft Visual Studio\2019\Community\VC\Tools\MSVC\14.28.29333\include\xmemory

; 56   :     constexpr bool _Overflow_is_possible = _Ty_size > 1;

  00068	c6 45 fd 00	 mov	 BYTE PTR __Overflow_is_possible$4[ebp], 0
; File C:\Program Files (x86)\Microsoft Visual Studio\2019\Community\VC\Tools\MSVC\14.28.29333\include\xstring

; 4341 :         const pointer _New_ptr        = _Al.allocate(_New_capacity + 1); // throws

  0006c	8b 45 e0	 mov	 eax, DWORD PTR __New_capacity$[ebp]
  0006f	40		 inc	 eax
; File C:\Program Files (x86)\Microsoft Visual Studio\2019\Community\VC\Tools\MSVC\14.28.29333\include\xmemory

; 814  :         return static_cast<_Ty*>(_Allocate<_New_alignof<_Ty>>(_Get_size_of_n<sizeof(_Ty)>(_Count)));

  00070	50		 push	 eax
  00071	e8 00 00 00 00	 call	 ??$_Allocate@$07U_Default_allocate_traits@std@@$0A@@std@@YAPAXI@Z ; std::_Allocate<8,std::_Default_allocate_traits,0>
  00076	59		 pop	 ecx
; File C:\Program Files (x86)\Microsoft Visual Studio\2019\Community\VC\Tools\MSVC\14.28.29333\include\xstring

; 4341 :         const pointer _New_ptr        = _Al.allocate(_New_capacity + 1); // throws

  00077	89 45 e8	 mov	 DWORD PTR __New_ptr$[ebp], eax

; 4342 :         _My_data._Orphan_all();
; 4343 :         _My_data._Mysize      = _New_size;

  0007a	8b 45 f4	 mov	 eax, DWORD PTR __My_data$[ebp]
  0007d	8b 4d e4	 mov	 ecx, DWORD PTR __New_size$[ebp]
  00080	89 48 10	 mov	 DWORD PTR [eax+16], ecx

; 4344 :         _My_data._Myres       = _New_capacity;

  00083	8b 45 f4	 mov	 eax, DWORD PTR __My_data$[ebp]
  00086	8b 4d e0	 mov	 ecx, DWORD PTR __New_capacity$[ebp]
  00089	89 48 14	 mov	 DWORD PTR [eax+20], ecx

; 4345 :         _Elem* const _Raw_new = _Unfancy(_New_ptr);

  0008c	8b 45 e8	 mov	 eax, DWORD PTR __New_ptr$[ebp]
  0008f	89 45 d0	 mov	 DWORD PTR __Ptr$[ebp], eax
; File C:\Program Files (x86)\Microsoft Visual Studio\2019\Community\VC\Tools\MSVC\14.28.29333\include\xstddef

; 289  :     return _Ptr;

  00092	8b 45 d0	 mov	 eax, DWORD PTR __Ptr$[ebp]
  00095	89 45 f0	 mov	 DWORD PTR __Raw_new$[ebp], eax
; File C:\Program Files (x86)\Microsoft Visual Studio\2019\Community\VC\Tools\MSVC\14.28.29333\include\xstring

; 4346 :         if (_BUF_SIZE <= _Old_capacity) {

  00098	83 7d dc 10	 cmp	 DWORD PTR __Old_capacity$[ebp], 16 ; 00000010H
  0009c	72 65		 jb	 SHORT $LN3@Reallocate

; 4347 :             const pointer _Old_ptr = _My_data._Bx._Ptr;

  0009e	8b 45 f4	 mov	 eax, DWORD PTR __My_data$[ebp]
  000a1	8b 00		 mov	 eax, DWORD PTR [eax]
  000a3	89 45 d8	 mov	 DWORD PTR __Old_ptr$3[ebp], eax
; File C:\Program Files (x86)\Microsoft Visual Studio\2019\Community\VC\Tools\MSVC\14.28.29333\include\xstddef

; 289  :     return _Ptr;

  000a6	8b 45 d8	 mov	 eax, DWORD PTR __Old_ptr$3[ebp]
  000a9	89 45 cc	 mov	 DWORD PTR $T1[ebp], eax
; File C:\Program Files (x86)\Microsoft Visual Studio\2019\Community\VC\Tools\MSVC\14.28.29333\include\xstring

; 62   :         _CSTD memcpy(_First1, _First2, _Count * sizeof(_Elem));

  000ac	ff 75 f8	 push	 DWORD PTR __Old_size$[ebp]
  000af	ff 75 cc	 push	 DWORD PTR $T1[ebp]
  000b2	ff 75 f0	 push	 DWORD PTR __Raw_new$[ebp]
  000b5	e8 00 00 00 00	 call	 _memcpy
  000ba	83 c4 0c	 add	 esp, 12			; 0000000cH

; 2951 :                 _Traits::copy(_New_ptr + _Old_size, _Ptr, _Count);

  000bd	8b 45 f0	 mov	 eax, DWORD PTR __Raw_new$[ebp]
  000c0	03 45 f8	 add	 eax, DWORD PTR __Old_size$[ebp]
  000c3	89 45 c8	 mov	 DWORD PTR __First1$[ebp], eax

; 62   :         _CSTD memcpy(_First1, _First2, _Count * sizeof(_Elem));

  000c6	ff 75 14	 push	 DWORD PTR _<_Args_1>$[ebp]
  000c9	ff 75 10	 push	 DWORD PTR _<_Args_0>$[ebp]
  000cc	ff 75 c8	 push	 DWORD PTR __First1$[ebp]
  000cf	e8 00 00 00 00	 call	 _memcpy
  000d4	83 c4 0c	 add	 esp, 12			; 0000000cH

; 2952 :                 _Traits::assign(_New_ptr[_Old_size + _Count], _Elem());

  000d7	c6 45 ff 00	 mov	 BYTE PTR $T6[ebp], 0
  000db	8b 45 f8	 mov	 eax, DWORD PTR __Old_size$[ebp]
  000de	03 45 14	 add	 eax, DWORD PTR _<_Args_1>$[ebp]

; 428  :         _Left = _Right;

  000e1	8b 4d f0	 mov	 ecx, DWORD PTR __Raw_new$[ebp]
  000e4	8a 55 ff	 mov	 dl, BYTE PTR $T6[ebp]
  000e7	88 14 01	 mov	 BYTE PTR [ecx+eax], dl

; 4348 :             _Fn(_Raw_new, _Unfancy(_Old_ptr), _Old_size, _Args...);
; 4349 :             _Al.deallocate(_Old_ptr, _Old_capacity + 1);

  000ea	8b 45 dc	 mov	 eax, DWORD PTR __Old_capacity$[ebp]
  000ed	40		 inc	 eax
; File C:\Program Files (x86)\Microsoft Visual Studio\2019\Community\VC\Tools\MSVC\14.28.29333\include\xmemory

; 810  :         _Deallocate<_New_alignof<_Ty>>(_Ptr, sizeof(_Ty) * _Count);

  000ee	50		 push	 eax
  000ef	ff 75 d8	 push	 DWORD PTR __Old_ptr$3[ebp]
  000f2	e8 00 00 00 00	 call	 ??$_Deallocate@$07$0A@@std@@YAXPAXI@Z ; std::_Deallocate<8,0>
  000f7	59		 pop	 ecx
  000f8	59		 pop	 ecx
; File C:\Program Files (x86)\Microsoft Visual Studio\2019\Community\VC\Tools\MSVC\14.28.29333\include\xstring

; 4350 :             _My_data._Bx._Ptr = _New_ptr;

  000f9	8b 45 f4	 mov	 eax, DWORD PTR __My_data$[ebp]
  000fc	8b 4d e8	 mov	 ecx, DWORD PTR __New_ptr$[ebp]
  000ff	89 08		 mov	 DWORD PTR [eax], ecx

; 4351 :         } else {

  00101	eb 4c		 jmp	 SHORT $LN4@Reallocate
$LN3@Reallocate:

; 62   :         _CSTD memcpy(_First1, _First2, _Count * sizeof(_Elem));

  00103	ff 75 f8	 push	 DWORD PTR __Old_size$[ebp]
  00106	ff 75 f4	 push	 DWORD PTR __My_data$[ebp]
  00109	ff 75 f0	 push	 DWORD PTR __Raw_new$[ebp]
  0010c	e8 00 00 00 00	 call	 _memcpy
  00111	83 c4 0c	 add	 esp, 12			; 0000000cH

; 2951 :                 _Traits::copy(_New_ptr + _Old_size, _Ptr, _Count);

  00114	8b 45 f0	 mov	 eax, DWORD PTR __Raw_new$[ebp]
  00117	03 45 f8	 add	 eax, DWORD PTR __Old_size$[ebp]
  0011a	89 45 c4	 mov	 DWORD PTR __First1$[ebp], eax

; 62   :         _CSTD memcpy(_First1, _First2, _Count * sizeof(_Elem));

  0011d	ff 75 14	 push	 DWORD PTR _<_Args_1>$[ebp]
  00120	ff 75 10	 push	 DWORD PTR _<_Args_0>$[ebp]
  00123	ff 75 c4	 push	 DWORD PTR __First1$[ebp]
  00126	e8 00 00 00 00	 call	 _memcpy
  0012b	83 c4 0c	 add	 esp, 12			; 0000000cH

; 2952 :                 _Traits::assign(_New_ptr[_Old_size + _Count], _Elem());

  0012e	c6 45 fe 00	 mov	 BYTE PTR $T5[ebp], 0
  00132	8b 45 f8	 mov	 eax, DWORD PTR __Old_size$[ebp]
  00135	03 45 14	 add	 eax, DWORD PTR _<_Args_1>$[ebp]

; 428  :         _Left = _Right;

  00138	8b 4d f0	 mov	 ecx, DWORD PTR __Raw_new$[ebp]
  0013b	8a 55 fe	 mov	 dl, BYTE PTR $T5[ebp]
  0013e	88 14 01	 mov	 BYTE PTR [ecx+eax], dl

; 4352 :             _Fn(_Raw_new, _My_data._Bx._Buf, _Old_size, _Args...);
; 4353 :             _Construct_in_place(_My_data._Bx._Ptr, _New_ptr);

  00141	8d 45 e8	 lea	 eax, DWORD PTR __New_ptr$[ebp]
  00144	50		 push	 eax
  00145	ff 75 f4	 push	 DWORD PTR __My_data$[ebp]
  00148	e8 00 00 00 00	 call	 ??$_Construct_in_place@PADABQAD@std@@YAXAAPADABQAD@Z ; std::_Construct_in_place<char *,char * const &>
  0014d	59		 pop	 ecx
  0014e	59		 pop	 ecx
$LN4@Reallocate:

; 4354 :         }
; 4355 : 
; 4356 :         return *this;

  0014f	8b 45 ec	 mov	 eax, DWORD PTR _this$[ebp]
$LN5@Reallocate:

; 4357 :     }

  00152	c9		 leave
  00153	c2 10 00	 ret	 16			; 00000010H
??$_Reallocate_grow_by@V<lambda_ab246b20b9526e2ef7792587e4298a77>@@PBDI@?$basic_string@DU?$char_traits@D@std@@V?$allocator@D@2@@std@@AAEAAV01@IV<lambda_ab246b20b9526e2ef7792587e4298a77>@@PBDI@Z ENDP ; std::basic_string<char,std::char_traits<char>,std::allocator<char> >::_Reallocate_grow_by<<lambda_ab246b20b9526e2ef7792587e4298a77>,char const *,unsigned int>
_TEXT	ENDS
; Function compile flags: /Odspy
; File C:\Program Files (x86)\Microsoft Visual Studio\2019\Community\VC\Tools\MSVC\14.28.29333\include\xstring
; File C:\Program Files (x86)\Microsoft Visual Studio\2019\Community\VC\Tools\MSVC\14.28.29333\include\xmemory
; File C:\Program Files (x86)\Microsoft Visual Studio\2019\Community\VC\Tools\MSVC\14.28.29333\include\xstring
; File C:\Program Files (x86)\Microsoft Visual Studio\2019\Community\VC\Tools\MSVC\14.28.29333\include\xmemory
; File C:\Program Files (x86)\Microsoft Visual Studio\2019\Community\VC\Tools\MSVC\14.28.29333\include\xstring
; File C:\Program Files (x86)\Microsoft Visual Studio\2019\Community\VC\Tools\MSVC\14.28.29333\include\xmemory
; File C:\Program Files (x86)\Microsoft Visual Studio\2019\Community\VC\Tools\MSVC\14.28.29333\include\xstring
; File C:\Program Files (x86)\Microsoft Visual Studio\2019\Community\VC\Tools\MSVC\14.28.29333\include\xstddef
; File C:\Program Files (x86)\Microsoft Visual Studio\2019\Community\VC\Tools\MSVC\14.28.29333\include\xstring
; File C:\Program Files (x86)\Microsoft Visual Studio\2019\Community\VC\Tools\MSVC\14.28.29333\include\xmemory
; File C:\Program Files (x86)\Microsoft Visual Studio\2019\Community\VC\Tools\MSVC\14.28.29333\include\xstring
;	COMDAT ??$_Reallocate_for@V<lambda_9366063389c5f42a00a5088cf24e69de>@@PBD@?$basic_string@DU?$char_traits@D@std@@V?$allocator@D@2@@std@@AAEAAV01@IV<lambda_9366063389c5f42a00a5088cf24e69de>@@PBD@Z
_TEXT	SEGMENT
__Al$ = -40						; size = 4
__Ptr$ = -36						; size = 4
__Ptr$ = -32						; size = 4
$T1 = -28						; size = 4
__Old_capacity$ = -24					; size = 4
$T2 = -20						; size = 4
__New_capacity$ = -16					; size = 4
__New_ptr$ = -12					; size = 4
_this$ = -8						; size = 4
__Overflow_is_possible$3 = -2				; size = 1
$T4 = -1						; size = 1
__New_size$ = 8						; size = 4
__Fn$ = 12						; size = 1
_<_Args_0>$ = 16					; size = 4
??$_Reallocate_for@V<lambda_9366063389c5f42a00a5088cf24e69de>@@PBD@?$basic_string@DU?$char_traits@D@std@@V?$allocator@D@2@@std@@AAEAAV01@IV<lambda_9366063389c5f42a00a5088cf24e69de>@@PBD@Z PROC ; std::basic_string<char,std::char_traits<char>,std::allocator<char> >::_Reallocate_for<<lambda_9366063389c5f42a00a5088cf24e69de>,char const *>, COMDAT
; _this$ = ecx

; 4302 :     basic_string& _Reallocate_for(const size_type _New_size, _Fty _Fn, _ArgTys... _Args) {

  00000	55		 push	 ebp
  00001	8b ec		 mov	 ebp, esp
  00003	83 ec 28	 sub	 esp, 40			; 00000028H
  00006	89 4d f8	 mov	 DWORD PTR _this$[ebp], ecx

; 4303 :         // reallocate to store exactly _New_size elements, new buffer prepared by
; 4304 :         // _Fn(_New_ptr, _New_size, _Args...)
; 4305 :         if (_New_size > max_size()) {

  00009	8b 4d f8	 mov	 ecx, DWORD PTR _this$[ebp]
  0000c	e8 00 00 00 00	 call	 ?max_size@?$basic_string@DU?$char_traits@D@std@@V?$allocator@D@2@@std@@QBEIXZ ; std::basic_string<char,std::char_traits<char>,std::allocator<char> >::max_size
  00011	39 45 08	 cmp	 DWORD PTR __New_size$[ebp], eax
  00014	76 05		 jbe	 SHORT $LN2@Reallocate

; 4306 :             _Xlen_string(); // result too long

  00016	e8 00 00 00 00	 call	 ?_Xlen_string@std@@YAXXZ ; std::_Xlen_string
$LN2@Reallocate:

; 4307 :         }
; 4308 : 
; 4309 :         const size_type _Old_capacity = _Mypair._Myval2._Myres;

  0001b	8b 45 f8	 mov	 eax, DWORD PTR _this$[ebp]
  0001e	8b 40 14	 mov	 eax, DWORD PTR [eax+20]
  00021	89 45 e8	 mov	 DWORD PTR __Old_capacity$[ebp], eax

; 4310 :         const size_type _New_capacity = _Calculate_growth(_New_size);

  00024	ff 75 08	 push	 DWORD PTR __New_size$[ebp]
  00027	8b 4d f8	 mov	 ecx, DWORD PTR _this$[ebp]
  0002a	e8 00 00 00 00	 call	 ?_Calculate_growth@?$basic_string@DU?$char_traits@D@std@@V?$allocator@D@2@@std@@ABEII@Z ; std::basic_string<char,std::char_traits<char>,std::allocator<char> >::_Calculate_growth
  0002f	89 45 f0	 mov	 DWORD PTR __New_capacity$[ebp], eax

; 4409 :         return _Mypair._Get_first();

  00032	8b 45 f8	 mov	 eax, DWORD PTR _this$[ebp]
; File C:\Program Files (x86)\Microsoft Visual Studio\2019\Community\VC\Tools\MSVC\14.28.29333\include\xmemory

; 1347 :         return *this;

  00035	89 45 e4	 mov	 DWORD PTR $T1[ebp], eax
; File C:\Program Files (x86)\Microsoft Visual Studio\2019\Community\VC\Tools\MSVC\14.28.29333\include\xstring

; 4409 :         return _Mypair._Get_first();

  00038	8b 45 e4	 mov	 eax, DWORD PTR $T1[ebp]
  0003b	89 45 d8	 mov	 DWORD PTR __Al$[ebp], eax
; File C:\Program Files (x86)\Microsoft Visual Studio\2019\Community\VC\Tools\MSVC\14.28.29333\include\xmemory

; 56   :     constexpr bool _Overflow_is_possible = _Ty_size > 1;

  0003e	c6 45 fe 00	 mov	 BYTE PTR __Overflow_is_possible$3[ebp], 0
; File C:\Program Files (x86)\Microsoft Visual Studio\2019\Community\VC\Tools\MSVC\14.28.29333\include\xstring

; 4312 :         const pointer _New_ptr        = _Al.allocate(_New_capacity + 1); // throws

  00042	8b 45 f0	 mov	 eax, DWORD PTR __New_capacity$[ebp]
  00045	40		 inc	 eax
; File C:\Program Files (x86)\Microsoft Visual Studio\2019\Community\VC\Tools\MSVC\14.28.29333\include\xmemory

; 814  :         return static_cast<_Ty*>(_Allocate<_New_alignof<_Ty>>(_Get_size_of_n<sizeof(_Ty)>(_Count)));

  00046	50		 push	 eax
  00047	e8 00 00 00 00	 call	 ??$_Allocate@$07U_Default_allocate_traits@std@@$0A@@std@@YAPAXI@Z ; std::_Allocate<8,std::_Default_allocate_traits,0>
  0004c	59		 pop	 ecx
; File C:\Program Files (x86)\Microsoft Visual Studio\2019\Community\VC\Tools\MSVC\14.28.29333\include\xstring

; 4312 :         const pointer _New_ptr        = _Al.allocate(_New_capacity + 1); // throws

  0004d	89 45 f4	 mov	 DWORD PTR __New_ptr$[ebp], eax

; 4313 :         _Mypair._Myval2._Orphan_all();
; 4314 :         _Mypair._Myval2._Mysize = _New_size;

  00050	8b 45 f8	 mov	 eax, DWORD PTR _this$[ebp]
  00053	8b 4d 08	 mov	 ecx, DWORD PTR __New_size$[ebp]
  00056	89 48 10	 mov	 DWORD PTR [eax+16], ecx

; 4315 :         _Mypair._Myval2._Myres  = _New_capacity;

  00059	8b 45 f8	 mov	 eax, DWORD PTR _this$[ebp]
  0005c	8b 4d f0	 mov	 ecx, DWORD PTR __New_capacity$[ebp]
  0005f	89 48 14	 mov	 DWORD PTR [eax+20], ecx

; 4316 :         _Fn(_Unfancy(_New_ptr), _New_size, _Args...);

  00062	8b 45 f4	 mov	 eax, DWORD PTR __New_ptr$[ebp]
  00065	89 45 e0	 mov	 DWORD PTR __Ptr$[ebp], eax
; File C:\Program Files (x86)\Microsoft Visual Studio\2019\Community\VC\Tools\MSVC\14.28.29333\include\xstddef

; 289  :     return _Ptr;

  00068	8b 45 e0	 mov	 eax, DWORD PTR __Ptr$[ebp]
  0006b	89 45 ec	 mov	 DWORD PTR $T2[ebp], eax
; File C:\Program Files (x86)\Microsoft Visual Studio\2019\Community\VC\Tools\MSVC\14.28.29333\include\xstring

; 62   :         _CSTD memcpy(_First1, _First2, _Count * sizeof(_Elem));

  0006e	ff 75 08	 push	 DWORD PTR __New_size$[ebp]
  00071	ff 75 10	 push	 DWORD PTR _<_Args_0>$[ebp]
  00074	ff 75 ec	 push	 DWORD PTR $T2[ebp]
  00077	e8 00 00 00 00	 call	 _memcpy
  0007c	83 c4 0c	 add	 esp, 12			; 0000000cH

; 3056 :                 _Traits::assign(_New_ptr[_Count], _Elem());

  0007f	c6 45 ff 00	 mov	 BYTE PTR $T4[ebp], 0

; 428  :         _Left = _Right;

  00083	8b 45 ec	 mov	 eax, DWORD PTR $T2[ebp]
  00086	03 45 08	 add	 eax, DWORD PTR __New_size$[ebp]
  00089	8a 4d ff	 mov	 cl, BYTE PTR $T4[ebp]
  0008c	88 08		 mov	 BYTE PTR [eax], cl

; 4317 :         if (_BUF_SIZE <= _Old_capacity) {

  0008e	83 7d e8 10	 cmp	 DWORD PTR __Old_capacity$[ebp], 16 ; 00000010H
  00092	72 21		 jb	 SHORT $LN3@Reallocate

; 4318 :             _Al.deallocate(_Mypair._Myval2._Bx._Ptr, _Old_capacity + 1);

  00094	8b 45 f8	 mov	 eax, DWORD PTR _this$[ebp]
  00097	8b 00		 mov	 eax, DWORD PTR [eax]
  00099	89 45 dc	 mov	 DWORD PTR __Ptr$[ebp], eax
  0009c	8b 45 e8	 mov	 eax, DWORD PTR __Old_capacity$[ebp]
  0009f	40		 inc	 eax
; File C:\Program Files (x86)\Microsoft Visual Studio\2019\Community\VC\Tools\MSVC\14.28.29333\include\xmemory

; 810  :         _Deallocate<_New_alignof<_Ty>>(_Ptr, sizeof(_Ty) * _Count);

  000a0	50		 push	 eax
  000a1	ff 75 dc	 push	 DWORD PTR __Ptr$[ebp]
  000a4	e8 00 00 00 00	 call	 ??$_Deallocate@$07$0A@@std@@YAXPAXI@Z ; std::_Deallocate<8,0>
  000a9	59		 pop	 ecx
  000aa	59		 pop	 ecx
; File C:\Program Files (x86)\Microsoft Visual Studio\2019\Community\VC\Tools\MSVC\14.28.29333\include\xstring

; 4319 :             _Mypair._Myval2._Bx._Ptr = _New_ptr;

  000ab	8b 45 f8	 mov	 eax, DWORD PTR _this$[ebp]
  000ae	8b 4d f4	 mov	 ecx, DWORD PTR __New_ptr$[ebp]
  000b1	89 08		 mov	 DWORD PTR [eax], ecx

; 4320 :         } else {

  000b3	eb 0e		 jmp	 SHORT $LN4@Reallocate
$LN3@Reallocate:

; 4321 :             _Construct_in_place(_Mypair._Myval2._Bx._Ptr, _New_ptr);

  000b5	8d 45 f4	 lea	 eax, DWORD PTR __New_ptr$[ebp]
  000b8	50		 push	 eax
  000b9	ff 75 f8	 push	 DWORD PTR _this$[ebp]
  000bc	e8 00 00 00 00	 call	 ??$_Construct_in_place@PADABQAD@std@@YAXAAPADABQAD@Z ; std::_Construct_in_place<char *,char * const &>
  000c1	59		 pop	 ecx
  000c2	59		 pop	 ecx
$LN4@Reallocate:

; 4322 :         }
; 4323 : 
; 4324 :         return *this;

  000c3	8b 45 f8	 mov	 eax, DWORD PTR _this$[ebp]
$LN5@Reallocate:

; 4325 :     }

  000c6	c9		 leave
  000c7	c2 0c 00	 ret	 12			; 0000000cH
??$_Reallocate_for@V<lambda_9366063389c5f42a00a5088cf24e69de>@@PBD@?$basic_string@DU?$char_traits@D@std@@V?$allocator@D@2@@std@@AAEAAV01@IV<lambda_9366063389c5f42a00a5088cf24e69de>@@PBD@Z ENDP ; std::basic_string<char,std::char_traits<char>,std::allocator<char> >::_Reallocate_for<<lambda_9366063389c5f42a00a5088cf24e69de>,char const *>
_TEXT	ENDS
; Function compile flags: /Odspy
; File C:\Program Files (x86)\Microsoft Visual Studio\2019\Community\VC\Tools\MSVC\14.28.29333\include\xmemory
;	COMDAT ??$_Destroy_in_place@PAD@std@@YAXAAPAD@Z
_TEXT	SEGMENT
__Obj$ = 8						; size = 4
??$_Destroy_in_place@PAD@std@@YAXAAPAD@Z PROC		; std::_Destroy_in_place<char *>, COMDAT

; 270  : /* _CONSTEXPR20_DYNALLOC */ void _Destroy_in_place(_Ty& _Obj) noexcept {

  00000	55		 push	 ebp
  00001	8b ec		 mov	 ebp, esp

; 271  : #if _HAS_IF_CONSTEXPR
; 272  :     if constexpr (is_array_v<_Ty>) {
; 273  :         _Destroy_range(_Obj, _Obj + extent_v<_Ty>);
; 274  :     } else
; 275  : #endif // _HAS_IF_CONSTEXPR
; 276  :     {
; 277  :         _Obj.~_Ty();
; 278  :     }
; 279  : }

  00003	5d		 pop	 ebp
  00004	c3		 ret	 0
??$_Destroy_in_place@PAD@std@@YAXAAPAD@Z ENDP		; std::_Destroy_in_place<char *>
_TEXT	ENDS
; Function compile flags: /Odspy
; File D:\Metin2 Server Files\mainline\SRC_2014\Metin2Client\eterPythonLib\PythonGraphicTextModule.cpp
;	COMDAT ?initgrpText@@YAXXZ
_TEXT	SEGMENT
?initgrpText@@YAXXZ PROC				; initgrpText, COMDAT

; 398  : {

  00000	55		 push	 ebp
  00001	8b ec		 mov	 ebp, esp

; 399  : 	static PyMethodDef s_methods[] =
; 400  : 	{
; 401  : 		{ "Update",								grpTextUpdate,								METH_VARARGS },
; 402  : 		{ "Render",								grpTextRender,								METH_VARARGS },
; 403  : 		{ "Generate",							grpTextGenerate,							METH_VARARGS },
; 404  : 		{ "Destroy",							grpTextDestroy,								METH_VARARGS },
; 405  : 		{ "SetFontName",						grpTextSetFontName,							METH_VARARGS },
; 406  : 		{ "SetFontColor",						grpTextSetFontColor,						METH_VARARGS },
; 407  : 		{ "SetOutLineColor",					grpTextSetOutLineColor,						METH_VARARGS },
; 408  : 		{ "SetSecret",							grpTextSetSecret,							METH_VARARGS },
; 409  : 		{ "SetOutline",							grpTextOutline,								METH_VARARGS },
; 410  : 		{ "SetText",							grpTextSetText,								METH_VARARGS },
; 411  : 		{ "GetText",							grpTextGetText,								METH_VARARGS },
; 412  : 		{ "GetSize",							grpTextGetSize,								METH_VARARGS },
; 413  : 		{ "SetPosition",						grpTextSetPosition,							METH_VARARGS },
; 414  : 		{ "ShowCursor",							grpTextShowCursor,							METH_VARARGS },
; 415  : 		{ "HideCursor",							grpTextHideCursor,							METH_VARARGS },
; 416  : 		{ "SetHorizontalAlign",					grpSetHorizontalAlign,						METH_VARARGS },
; 417  : 		{ "SetVerticalAlign",					grpSetVerticalAlign,						METH_VARARGS },
; 418  : 		{ "SetMax",								grpSetMax,									METH_VARARGS },
; 419  : 		{ "GetSplitingTextLineCount",			grpGetSplitingTextLineCount,				METH_VARARGS },
; 420  : 		{ "GetSplitingTextLine",				grpGetSplitingTextLine,						METH_VARARGS },
; 421  : 		{ "PixelPositionToCharacterPosition",	grpTextPixelPositionToCharacterPosition,	METH_VARARGS },
; 422  : 		{ NULL, NULL, NULL },
; 423  : 	};
; 424  : 
; 425  : 	Py_InitModule("grpText", s_methods);

  00003	68 f5 03 00 00	 push	 1013			; 000003f5H
  00008	6a 00		 push	 0
  0000a	6a 00		 push	 0
  0000c	68 00 00 00 00	 push	 OFFSET ?s_methods@?1??initgrpText@@YAXXZ@4PAUPyMethodDef@@A
  00011	68 00 00 00 00	 push	 OFFSET ??_C@_07OAPMKONH@grpText@
  00016	ff 15 00 00 00
	00		 call	 DWORD PTR __imp__Py_InitModule4
  0001c	83 c4 14	 add	 esp, 20			; 00000014H

; 426  : }

  0001f	5d		 pop	 ebp
  00020	c3		 ret	 0
?initgrpText@@YAXXZ ENDP				; initgrpText
_TEXT	ENDS
; Function compile flags: /Odspy
;	COMDAT ??1?$_Compressed_pair@V?$allocator@D@std@@V?$_String_val@U?$_Simple_types@D@std@@@2@$00@std@@QAE@XZ
_TEXT	SEGMENT
_this$ = -4						; size = 4
??1?$_Compressed_pair@V?$allocator@D@std@@V?$_String_val@U?$_Simple_types@D@std@@@2@$00@std@@QAE@XZ PROC ; std::_Compressed_pair<std::allocator<char>,std::_String_val<std::_Simple_types<char> >,1>::~_Compressed_pair<std::allocator<char>,std::_String_val<std::_Simple_types<char> >,1>, COMDAT
; _this$ = ecx
  00000	55		 push	 ebp
  00001	8b ec		 mov	 ebp, esp
  00003	51		 push	 ecx
  00004	89 4d fc	 mov	 DWORD PTR _this$[ebp], ecx
  00007	c9		 leave
  00008	c3		 ret	 0
??1?$_Compressed_pair@V?$allocator@D@std@@V?$_String_val@U?$_Simple_types@D@std@@@2@$00@std@@QAE@XZ ENDP ; std::_Compressed_pair<std::allocator<char>,std::_String_val<std::_Simple_types<char> >,1>::~_Compressed_pair<std::allocator<char>,std::_String_val<std::_Simple_types<char> >,1>
_TEXT	ENDS
; Function compile flags: /Odspy
; File C:\Program Files (x86)\Microsoft Visual Studio\2019\Community\VC\Tools\MSVC\14.28.29333\include\xstring
; File C:\Program Files (x86)\Microsoft Visual Studio\2019\Community\VC\Tools\MSVC\14.28.29333\include\xmemory
; File C:\Program Files (x86)\Microsoft Visual Studio\2019\Community\VC\Tools\MSVC\14.28.29333\include\xstring
; File C:\Program Files (x86)\Microsoft Visual Studio\2019\Community\VC\Tools\MSVC\14.28.29333\include\xmemory
; File C:\Program Files (x86)\Microsoft Visual Studio\2019\Community\VC\Tools\MSVC\14.28.29333\include\xstring
;	COMDAT ?_Tidy_deallocate@?$basic_string@DU?$char_traits@D@std@@V?$allocator@D@2@@std@@AAEXXZ
_TEXT	SEGMENT
__Al$1 = -28						; size = 4
__Ptr$2 = -24						; size = 4
__Count$ = -20						; size = 4
$T3 = -16						; size = 4
tv68 = -12						; size = 4
_this$ = -8						; size = 4
$T4 = -2						; size = 1
$T5 = -1						; size = 1
?_Tidy_deallocate@?$basic_string@DU?$char_traits@D@std@@V?$allocator@D@2@@std@@AAEXXZ PROC ; std::basic_string<char,std::char_traits<char>,std::allocator<char> >::_Tidy_deallocate, COMDAT
; _this$ = ecx

; 4383 :     void _Tidy_deallocate() noexcept { // initialize buffer, deallocating any storage

  00000	55		 push	 ebp
  00001	8b ec		 mov	 ebp, esp
  00003	83 ec 1c	 sub	 esp, 28			; 0000001cH
  00006	89 4d f8	 mov	 DWORD PTR _this$[ebp], ecx

; 2227 :         return _BUF_SIZE <= _Myres;

  00009	8b 45 f8	 mov	 eax, DWORD PTR _this$[ebp]
  0000c	83 78 14 10	 cmp	 DWORD PTR [eax+20], 16	; 00000010H
  00010	72 09		 jb	 SHORT $LN9@Tidy_deall
  00012	c7 45 f4 01 00
	00 00		 mov	 DWORD PTR tv68[ebp], 1
  00019	eb 04		 jmp	 SHORT $LN10@Tidy_deall
$LN9@Tidy_deall:
  0001b	83 65 f4 00	 and	 DWORD PTR tv68[ebp], 0
$LN10@Tidy_deall:
  0001f	8a 45 f4	 mov	 al, BYTE PTR tv68[ebp]
  00022	88 45 ff	 mov	 BYTE PTR $T5[ebp], al

; 4384 :         _Mypair._Myval2._Orphan_all();
; 4385 :         if (_Mypair._Myval2._Large_string_engaged()) {

  00025	0f b6 45 ff	 movzx	 eax, BYTE PTR $T5[ebp]
  00029	85 c0		 test	 eax, eax
  0002b	74 34		 je	 SHORT $LN2@Tidy_deall

; 4386 :             const pointer _Ptr = _Mypair._Myval2._Bx._Ptr;

  0002d	8b 45 f8	 mov	 eax, DWORD PTR _this$[ebp]
  00030	8b 00		 mov	 eax, DWORD PTR [eax]
  00032	89 45 e8	 mov	 DWORD PTR __Ptr$2[ebp], eax

; 4409 :         return _Mypair._Get_first();

  00035	8b 45 f8	 mov	 eax, DWORD PTR _this$[ebp]
; File C:\Program Files (x86)\Microsoft Visual Studio\2019\Community\VC\Tools\MSVC\14.28.29333\include\xmemory

; 1347 :         return *this;

  00038	89 45 f0	 mov	 DWORD PTR $T3[ebp], eax
; File C:\Program Files (x86)\Microsoft Visual Studio\2019\Community\VC\Tools\MSVC\14.28.29333\include\xstring

; 4409 :         return _Mypair._Get_first();

  0003b	8b 45 f0	 mov	 eax, DWORD PTR $T3[ebp]
  0003e	89 45 e4	 mov	 DWORD PTR __Al$1[ebp], eax

; 4387 :             auto& _Al          = _Getal();
; 4388 :             _Destroy_in_place(_Mypair._Myval2._Bx._Ptr);

  00041	ff 75 f8	 push	 DWORD PTR _this$[ebp]
  00044	e8 00 00 00 00	 call	 ??$_Destroy_in_place@PAD@std@@YAXAAPAD@Z ; std::_Destroy_in_place<char *>
  00049	59		 pop	 ecx

; 4389 :             _Al.deallocate(_Ptr, _Mypair._Myval2._Myres + 1);

  0004a	8b 45 f8	 mov	 eax, DWORD PTR _this$[ebp]
  0004d	8b 40 14	 mov	 eax, DWORD PTR [eax+20]
  00050	40		 inc	 eax
  00051	89 45 ec	 mov	 DWORD PTR __Count$[ebp], eax
; File C:\Program Files (x86)\Microsoft Visual Studio\2019\Community\VC\Tools\MSVC\14.28.29333\include\xmemory

; 810  :         _Deallocate<_New_alignof<_Ty>>(_Ptr, sizeof(_Ty) * _Count);

  00054	ff 75 ec	 push	 DWORD PTR __Count$[ebp]
  00057	ff 75 e8	 push	 DWORD PTR __Ptr$2[ebp]
  0005a	e8 00 00 00 00	 call	 ??$_Deallocate@$07$0A@@std@@YAXPAXI@Z ; std::_Deallocate<8,0>
  0005f	59		 pop	 ecx
  00060	59		 pop	 ecx
$LN2@Tidy_deall:
; File C:\Program Files (x86)\Microsoft Visual Studio\2019\Community\VC\Tools\MSVC\14.28.29333\include\xstring

; 4392 :         _Mypair._Myval2._Mysize = 0;

  00061	8b 45 f8	 mov	 eax, DWORD PTR _this$[ebp]
  00064	83 60 10 00	 and	 DWORD PTR [eax+16], 0

; 4393 :         _Mypair._Myval2._Myres  = _BUF_SIZE - 1;

  00068	8b 45 f8	 mov	 eax, DWORD PTR _this$[ebp]
  0006b	c7 40 14 0f 00
	00 00		 mov	 DWORD PTR [eax+20], 15	; 0000000fH

; 4394 :         // the _Traits::assign is last so the codegen doesn't think the char write can alias this
; 4395 :         _Traits::assign(_Mypair._Myval2._Bx._Buf[0], _Elem());

  00072	c6 45 fe 00	 mov	 BYTE PTR $T4[ebp], 0
  00076	33 c0		 xor	 eax, eax
  00078	40		 inc	 eax
  00079	6b c0 00	 imul	 eax, eax, 0

; 428  :         _Left = _Right;

  0007c	8b 4d f8	 mov	 ecx, DWORD PTR _this$[ebp]
  0007f	8a 55 fe	 mov	 dl, BYTE PTR $T4[ebp]
  00082	88 14 01	 mov	 BYTE PTR [ecx+eax], dl

; 4396 :     }

  00085	c9		 leave
  00086	c3		 ret	 0
?_Tidy_deallocate@?$basic_string@DU?$char_traits@D@std@@V?$allocator@D@2@@std@@AAEXXZ ENDP ; std::basic_string<char,std::char_traits<char>,std::allocator<char> >::_Tidy_deallocate
_TEXT	ENDS
; Function compile flags: /Odspy
; File C:\Program Files (x86)\Microsoft Visual Studio\2019\Community\VC\Tools\MSVC\14.28.29333\include\xstring
;	COMDAT ?_Tidy_init@?$basic_string@DU?$char_traits@D@std@@V?$allocator@D@2@@std@@AAEXXZ
_TEXT	SEGMENT
_this$ = -8						; size = 4
$T1 = -1						; size = 1
?_Tidy_init@?$basic_string@DU?$char_traits@D@std@@V?$allocator@D@2@@std@@AAEXXZ PROC ; std::basic_string<char,std::char_traits<char>,std::allocator<char> >::_Tidy_init, COMDAT
; _this$ = ecx

; 4376 :     void _Tidy_init() noexcept { // initialize basic_string data members

  00000	55		 push	 ebp
  00001	8b ec		 mov	 ebp, esp
  00003	51		 push	 ecx
  00004	51		 push	 ecx
  00005	89 4d f8	 mov	 DWORD PTR _this$[ebp], ecx

; 4377 :         _Mypair._Myval2._Mysize = 0;

  00008	8b 45 f8	 mov	 eax, DWORD PTR _this$[ebp]
  0000b	83 60 10 00	 and	 DWORD PTR [eax+16], 0

; 4378 :         _Mypair._Myval2._Myres  = _BUF_SIZE - 1;

  0000f	8b 45 f8	 mov	 eax, DWORD PTR _this$[ebp]
  00012	c7 40 14 0f 00
	00 00		 mov	 DWORD PTR [eax+20], 15	; 0000000fH

; 4379 :         // the _Traits::assign is last so the codegen doesn't think the char write can alias this
; 4380 :         _Traits::assign(_Mypair._Myval2._Bx._Buf[0], _Elem());

  00019	c6 45 ff 00	 mov	 BYTE PTR $T1[ebp], 0
  0001d	33 c0		 xor	 eax, eax
  0001f	40		 inc	 eax
  00020	6b c0 00	 imul	 eax, eax, 0

; 428  :         _Left = _Right;

  00023	8b 4d f8	 mov	 ecx, DWORD PTR _this$[ebp]
  00026	8a 55 ff	 mov	 dl, BYTE PTR $T1[ebp]
  00029	88 14 01	 mov	 BYTE PTR [ecx+eax], dl

; 4381 :     }

  0002c	c9		 leave
  0002d	c3		 ret	 0
?_Tidy_init@?$basic_string@DU?$char_traits@D@std@@V?$allocator@D@2@@std@@AAEXXZ ENDP ; std::basic_string<char,std::char_traits<char>,std::allocator<char> >::_Tidy_init
_TEXT	ENDS
; Function compile flags: /Odspy
; File C:\Program Files (x86)\Microsoft Visual Studio\2019\Community\VC\Tools\MSVC\14.28.29333\include\xstring
; File C:\Program Files (x86)\Microsoft Visual Studio\2019\Community\VC\Tools\MSVC\14.28.29333\include\utility
; File C:\Program Files (x86)\Microsoft Visual Studio\2019\Community\VC\Tools\MSVC\14.28.29333\include\xstring
;	COMDAT ?_Calculate_growth@?$basic_string@DU?$char_traits@D@std@@V?$allocator@D@2@@std@@ABEII@Z
_TEXT	SEGMENT
$T1 = -36						; size = 4
$T2 = -32						; size = 4
tv93 = -28						; size = 4
$T3 = -24						; size = 4
_this$ = -20						; size = 4
$T4 = -16						; size = 4
__Masked$5 = -12					; size = 4
__Old$ = -8						; size = 4
__Max$ = -4						; size = 4
__Requested$ = 8					; size = 4
?_Calculate_growth@?$basic_string@DU?$char_traits@D@std@@V?$allocator@D@2@@std@@ABEII@Z PROC ; std::basic_string<char,std::char_traits<char>,std::allocator<char> >::_Calculate_growth, COMDAT
; _this$ = ecx

; 4297 :     _NODISCARD size_type _Calculate_growth(const size_type _Requested) const noexcept {

  00000	55		 push	 ebp
  00001	8b ec		 mov	 ebp, esp
  00003	83 ec 24	 sub	 esp, 36			; 00000024H
  00006	89 4d ec	 mov	 DWORD PTR _this$[ebp], ecx

; 4298 :         return _Calculate_growth(_Requested, _Mypair._Myval2._Myres, max_size());

  00009	8b 4d ec	 mov	 ecx, DWORD PTR _this$[ebp]
  0000c	e8 00 00 00 00	 call	 ?max_size@?$basic_string@DU?$char_traits@D@std@@V?$allocator@D@2@@std@@QBEIXZ ; std::basic_string<char,std::char_traits<char>,std::allocator<char> >::max_size
  00011	89 45 fc	 mov	 DWORD PTR __Max$[ebp], eax
  00014	8b 45 ec	 mov	 eax, DWORD PTR _this$[ebp]
  00017	8b 40 14	 mov	 eax, DWORD PTR [eax+20]
  0001a	89 45 f8	 mov	 DWORD PTR __Old$[ebp], eax

; 4285 :         const size_type _Masked = _Requested | _ALLOC_MASK;

  0001d	8b 45 08	 mov	 eax, DWORD PTR __Requested$[ebp]
  00020	83 c8 0f	 or	 eax, 15			; 0000000fH
  00023	89 45 f4	 mov	 DWORD PTR __Masked$5[ebp], eax

; 4286 :         if (_Masked > _Max) { // the mask overflows, settle for max_size()

  00026	8b 45 f4	 mov	 eax, DWORD PTR __Masked$5[ebp]
  00029	3b 45 fc	 cmp	 eax, DWORD PTR __Max$[ebp]
  0002c	76 08		 jbe	 SHORT $LN29@Calculate_

; 4287 :             return _Max;

  0002e	8b 45 fc	 mov	 eax, DWORD PTR __Max$[ebp]
  00031	89 45 f0	 mov	 DWORD PTR $T4[ebp], eax
  00034	eb 4c		 jmp	 SHORT $LN31@Calculate_
$LN29@Calculate_:

; 4288 :         }
; 4289 : 
; 4290 :         if (_Old > _Max - _Old / 2) { // similarly, geometric overflows

  00036	8b 45 f8	 mov	 eax, DWORD PTR __Old$[ebp]
  00039	d1 e8		 shr	 eax, 1
  0003b	8b 4d fc	 mov	 ecx, DWORD PTR __Max$[ebp]
  0003e	2b c8		 sub	 ecx, eax
  00040	39 4d f8	 cmp	 DWORD PTR __Old$[ebp], ecx
  00043	76 08		 jbe	 SHORT $LN30@Calculate_

; 4291 :             return _Max;

  00045	8b 45 fc	 mov	 eax, DWORD PTR __Max$[ebp]
  00048	89 45 f0	 mov	 DWORD PTR $T4[ebp], eax
  0004b	eb 35		 jmp	 SHORT $LN31@Calculate_
$LN30@Calculate_:

; 4294 :         return (_STD max)(_Masked, _Old + _Old / 2);

  0004d	8b 45 f8	 mov	 eax, DWORD PTR __Old$[ebp]
  00050	d1 e8		 shr	 eax, 1
  00052	03 45 f8	 add	 eax, DWORD PTR __Old$[ebp]
  00055	89 45 e8	 mov	 DWORD PTR $T3[ebp], eax
; File C:\Program Files (x86)\Microsoft Visual Studio\2019\Community\VC\Tools\MSVC\14.28.29333\include\utility

; 44   :     return _Left < _Right ? _Right : _Left;

  00058	8b 45 f4	 mov	 eax, DWORD PTR __Masked$5[ebp]
  0005b	3b 45 e8	 cmp	 eax, DWORD PTR $T3[ebp]
  0005e	73 08		 jae	 SHORT $LN35@Calculate_
  00060	8d 45 e8	 lea	 eax, DWORD PTR $T3[ebp]
  00063	89 45 e4	 mov	 DWORD PTR tv93[ebp], eax
  00066	eb 06		 jmp	 SHORT $LN36@Calculate_
$LN35@Calculate_:
  00068	8d 45 f4	 lea	 eax, DWORD PTR __Masked$5[ebp]
  0006b	89 45 e4	 mov	 DWORD PTR tv93[ebp], eax
$LN36@Calculate_:
  0006e	8b 45 e4	 mov	 eax, DWORD PTR tv93[ebp]
  00071	89 45 e0	 mov	 DWORD PTR $T2[ebp], eax
  00074	8b 45 e0	 mov	 eax, DWORD PTR $T2[ebp]
  00077	89 45 dc	 mov	 DWORD PTR $T1[ebp], eax
; File C:\Program Files (x86)\Microsoft Visual Studio\2019\Community\VC\Tools\MSVC\14.28.29333\include\xstring

; 4294 :         return (_STD max)(_Masked, _Old + _Old / 2);

  0007a	8b 45 dc	 mov	 eax, DWORD PTR $T1[ebp]
  0007d	8b 00		 mov	 eax, DWORD PTR [eax]
  0007f	89 45 f0	 mov	 DWORD PTR $T4[ebp], eax
$LN31@Calculate_:

; 4298 :         return _Calculate_growth(_Requested, _Mypair._Myval2._Myres, max_size());

  00082	8b 45 f0	 mov	 eax, DWORD PTR $T4[ebp]

; 4299 :     }

  00085	c9		 leave
  00086	c2 04 00	 ret	 4
?_Calculate_growth@?$basic_string@DU?$char_traits@D@std@@V?$allocator@D@2@@std@@ABEII@Z ENDP ; std::basic_string<char,std::char_traits<char>,std::allocator<char> >::_Calculate_growth
_TEXT	ENDS
; Function compile flags: /Odspy
; File C:\Program Files (x86)\Microsoft Visual Studio\2019\Community\VC\Tools\MSVC\14.28.29333\include\xstring
; File C:\Program Files (x86)\Microsoft Visual Studio\2019\Community\VC\Tools\MSVC\14.28.29333\include\utility
; File C:\Program Files (x86)\Microsoft Visual Studio\2019\Community\VC\Tools\MSVC\14.28.29333\include\xstring
;	COMDAT ?_Calculate_growth@?$basic_string@DU?$char_traits@D@std@@V?$allocator@D@2@@std@@CAIIII@Z
_TEXT	SEGMENT
$T1 = -20						; size = 4
$T2 = -16						; size = 4
tv75 = -12						; size = 4
$T3 = -8						; size = 4
__Masked$ = -4						; size = 4
__Requested$ = 8					; size = 4
__Old$ = 12						; size = 4
__Max$ = 16						; size = 4
?_Calculate_growth@?$basic_string@DU?$char_traits@D@std@@V?$allocator@D@2@@std@@CAIIII@Z PROC ; std::basic_string<char,std::char_traits<char>,std::allocator<char> >::_Calculate_growth, COMDAT

; 4284 :         const size_type _Requested, const size_type _Old, const size_type _Max) noexcept {

  00000	55		 push	 ebp
  00001	8b ec		 mov	 ebp, esp
  00003	83 ec 14	 sub	 esp, 20			; 00000014H

; 4285 :         const size_type _Masked = _Requested | _ALLOC_MASK;

  00006	8b 45 08	 mov	 eax, DWORD PTR __Requested$[ebp]
  00009	83 c8 0f	 or	 eax, 15			; 0000000fH
  0000c	89 45 fc	 mov	 DWORD PTR __Masked$[ebp], eax

; 4286 :         if (_Masked > _Max) { // the mask overflows, settle for max_size()

  0000f	8b 45 fc	 mov	 eax, DWORD PTR __Masked$[ebp]
  00012	3b 45 10	 cmp	 eax, DWORD PTR __Max$[ebp]
  00015	76 05		 jbe	 SHORT $LN2@Calculate_

; 4287 :             return _Max;

  00017	8b 45 10	 mov	 eax, DWORD PTR __Max$[ebp]
  0001a	eb 46		 jmp	 SHORT $LN4@Calculate_
$LN2@Calculate_:

; 4288 :         }
; 4289 : 
; 4290 :         if (_Old > _Max - _Old / 2) { // similarly, geometric overflows

  0001c	8b 45 0c	 mov	 eax, DWORD PTR __Old$[ebp]
  0001f	d1 e8		 shr	 eax, 1
  00021	8b 4d 10	 mov	 ecx, DWORD PTR __Max$[ebp]
  00024	2b c8		 sub	 ecx, eax
  00026	39 4d 0c	 cmp	 DWORD PTR __Old$[ebp], ecx
  00029	76 05		 jbe	 SHORT $LN3@Calculate_

; 4291 :             return _Max;

  0002b	8b 45 10	 mov	 eax, DWORD PTR __Max$[ebp]
  0002e	eb 32		 jmp	 SHORT $LN4@Calculate_
$LN3@Calculate_:

; 4294 :         return (_STD max)(_Masked, _Old + _Old / 2);

  00030	8b 45 0c	 mov	 eax, DWORD PTR __Old$[ebp]
  00033	d1 e8		 shr	 eax, 1
  00035	03 45 0c	 add	 eax, DWORD PTR __Old$[ebp]
  00038	89 45 f8	 mov	 DWORD PTR $T3[ebp], eax
; File C:\Program Files (x86)\Microsoft Visual Studio\2019\Community\VC\Tools\MSVC\14.28.29333\include\utility

; 44   :     return _Left < _Right ? _Right : _Left;

  0003b	8b 45 fc	 mov	 eax, DWORD PTR __Masked$[ebp]
  0003e	3b 45 f8	 cmp	 eax, DWORD PTR $T3[ebp]
  00041	73 08		 jae	 SHORT $LN7@Calculate_
  00043	8d 45 f8	 lea	 eax, DWORD PTR $T3[ebp]
  00046	89 45 f4	 mov	 DWORD PTR tv75[ebp], eax
  00049	eb 06		 jmp	 SHORT $LN8@Calculate_
$LN7@Calculate_:
  0004b	8d 45 fc	 lea	 eax, DWORD PTR __Masked$[ebp]
  0004e	89 45 f4	 mov	 DWORD PTR tv75[ebp], eax
$LN8@Calculate_:
  00051	8b 45 f4	 mov	 eax, DWORD PTR tv75[ebp]
  00054	89 45 f0	 mov	 DWORD PTR $T2[ebp], eax
  00057	8b 45 f0	 mov	 eax, DWORD PTR $T2[ebp]
  0005a	89 45 ec	 mov	 DWORD PTR $T1[ebp], eax
; File C:\Program Files (x86)\Microsoft Visual Studio\2019\Community\VC\Tools\MSVC\14.28.29333\include\xstring

; 4294 :         return (_STD max)(_Masked, _Old + _Old / 2);

  0005d	8b 45 ec	 mov	 eax, DWORD PTR $T1[ebp]
  00060	8b 00		 mov	 eax, DWORD PTR [eax]
$LN4@Calculate_:

; 4295 :     }

  00062	c9		 leave
  00063	c3		 ret	 0
?_Calculate_growth@?$basic_string@DU?$char_traits@D@std@@V?$allocator@D@2@@std@@CAIIII@Z ENDP ; std::basic_string<char,std::char_traits<char>,std::allocator<char> >::_Calculate_growth
_TEXT	ENDS
; Function compile flags: /Odspy
; File C:\Program Files (x86)\Microsoft Visual Studio\2019\Community\VC\Tools\MSVC\14.28.29333\include\xstring
; File C:\Program Files (x86)\Microsoft Visual Studio\2019\Community\VC\Tools\MSVC\14.28.29333\include\xmemory
; File C:\Program Files (x86)\Microsoft Visual Studio\2019\Community\VC\Tools\MSVC\14.28.29333\include\xstring
; File C:\Program Files (x86)\Microsoft Visual Studio\2019\Community\VC\Tools\MSVC\14.28.29333\include\xmemory
; File C:\Program Files (x86)\Microsoft Visual Studio\2019\Community\VC\Tools\MSVC\14.28.29333\include\xstring
; File C:\Program Files (x86)\Microsoft Visual Studio\2019\Community\VC\Tools\MSVC\14.28.29333\include\utility
; File C:\Program Files (x86)\Microsoft Visual Studio\2019\Community\VC\Tools\MSVC\14.28.29333\include\xstring
; File C:\Program Files (x86)\Microsoft Visual Studio\2019\Community\VC\Tools\MSVC\14.28.29333\include\limits
; File C:\Program Files (x86)\Microsoft Visual Studio\2019\Community\VC\Tools\MSVC\14.28.29333\include\xstring
; File C:\Program Files (x86)\Microsoft Visual Studio\2019\Community\VC\Tools\MSVC\14.28.29333\include\utility
; File C:\Program Files (x86)\Microsoft Visual Studio\2019\Community\VC\Tools\MSVC\14.28.29333\include\xstring
;	COMDAT ?max_size@?$basic_string@DU?$char_traits@D@std@@V?$allocator@D@2@@std@@QBEIXZ
_TEXT	SEGMENT
$T1 = -60						; size = 4
$T2 = -56						; size = 4
$T3 = -52						; size = 4
$T4 = -48						; size = 4
__Storage_max$ = -44					; size = 4
$T5 = -40						; size = 4
$T6 = -36						; size = 4
$T7 = -32						; size = 4
_this$ = -28						; size = 4
tv70 = -24						; size = 4
$T8 = -20						; size = 4
$T9 = -16						; size = 4
tv67 = -12						; size = 4
__Alloc_max$ = -8					; size = 4
$T10 = -4						; size = 4
?max_size@?$basic_string@DU?$char_traits@D@std@@V?$allocator@D@2@@std@@QBEIXZ PROC ; std::basic_string<char,std::char_traits<char>,std::allocator<char> >::max_size, COMDAT
; _this$ = ecx

; 3773 :     _NODISCARD size_type max_size() const noexcept {

  00000	55		 push	 ebp
  00001	8b ec		 mov	 ebp, esp
  00003	83 ec 3c	 sub	 esp, 60			; 0000003cH
  00006	89 4d e4	 mov	 DWORD PTR _this$[ebp], ecx

; 4413 :         return _Mypair._Get_first();

  00009	8b 45 e4	 mov	 eax, DWORD PTR _this$[ebp]
; File C:\Program Files (x86)\Microsoft Visual Studio\2019\Community\VC\Tools\MSVC\14.28.29333\include\xmemory

; 1351 :         return *this;

  0000c	89 45 e0	 mov	 DWORD PTR $T7[ebp], eax
; File C:\Program Files (x86)\Microsoft Visual Studio\2019\Community\VC\Tools\MSVC\14.28.29333\include\xstring

; 4413 :         return _Mypair._Get_first();

  0000f	8b 45 e0	 mov	 eax, DWORD PTR $T7[ebp]
  00012	89 45 c4	 mov	 DWORD PTR $T1[ebp], eax
; File C:\Program Files (x86)\Microsoft Visual Studio\2019\Community\VC\Tools\MSVC\14.28.29333\include\xmemory

; 710  :         return static_cast<size_t>(-1) / sizeof(value_type);

  00015	83 4d f8 ff	 or	 DWORD PTR __Alloc_max$[ebp], -1
; File C:\Program Files (x86)\Microsoft Visual Studio\2019\Community\VC\Tools\MSVC\14.28.29333\include\xstring

; 3775 :         const size_type _Storage_max = // can always store small string

  00019	c7 45 fc 10 00
	00 00		 mov	 DWORD PTR $T10[ebp], 16	; 00000010H
; File C:\Program Files (x86)\Microsoft Visual Studio\2019\Community\VC\Tools\MSVC\14.28.29333\include\utility

; 44   :     return _Left < _Right ? _Right : _Left;

  00020	8b 45 f8	 mov	 eax, DWORD PTR __Alloc_max$[ebp]
  00023	3b 45 fc	 cmp	 eax, DWORD PTR $T10[ebp]
  00026	73 08		 jae	 SHORT $LN14@max_size
  00028	8d 45 fc	 lea	 eax, DWORD PTR $T10[ebp]
  0002b	89 45 f4	 mov	 DWORD PTR tv67[ebp], eax
  0002e	eb 06		 jmp	 SHORT $LN15@max_size
$LN14@max_size:
  00030	8d 45 f8	 lea	 eax, DWORD PTR __Alloc_max$[ebp]
  00033	89 45 f4	 mov	 DWORD PTR tv67[ebp], eax
$LN15@max_size:
  00036	8b 45 f4	 mov	 eax, DWORD PTR tv67[ebp]
  00039	89 45 dc	 mov	 DWORD PTR $T6[ebp], eax
  0003c	8b 45 dc	 mov	 eax, DWORD PTR $T6[ebp]
  0003f	89 45 d8	 mov	 DWORD PTR $T5[ebp], eax
; File C:\Program Files (x86)\Microsoft Visual Studio\2019\Community\VC\Tools\MSVC\14.28.29333\include\xstring

; 3775 :         const size_type _Storage_max = // can always store small string

  00042	8b 45 d8	 mov	 eax, DWORD PTR $T5[ebp]
  00045	8b 00		 mov	 eax, DWORD PTR [eax]
  00047	89 45 d4	 mov	 DWORD PTR __Storage_max$[ebp], eax

; 3777 :         return (_STD min)(static_cast<size_type>((numeric_limits<difference_type>::max)()),

  0004a	8b 45 d4	 mov	 eax, DWORD PTR __Storage_max$[ebp]
  0004d	48		 dec	 eax
  0004e	89 45 f0	 mov	 DWORD PTR $T9[ebp], eax
; File C:\Program Files (x86)\Microsoft Visual Studio\2019\Community\VC\Tools\MSVC\14.28.29333\include\limits

; 557  :         return INT_MAX;

  00051	c7 45 d0 ff ff
	ff 7f		 mov	 DWORD PTR $T4[ebp], 2147483647 ; 7fffffffH
; File C:\Program Files (x86)\Microsoft Visual Studio\2019\Community\VC\Tools\MSVC\14.28.29333\include\xstring

; 3777 :         return (_STD min)(static_cast<size_type>((numeric_limits<difference_type>::max)()),

  00058	8b 45 d0	 mov	 eax, DWORD PTR $T4[ebp]
  0005b	89 45 ec	 mov	 DWORD PTR $T8[ebp], eax
; File C:\Program Files (x86)\Microsoft Visual Studio\2019\Community\VC\Tools\MSVC\14.28.29333\include\utility

; 68   :     return _Right < _Left ? _Right : _Left;

  0005e	8b 45 f0	 mov	 eax, DWORD PTR $T9[ebp]
  00061	3b 45 ec	 cmp	 eax, DWORD PTR $T8[ebp]
  00064	73 08		 jae	 SHORT $LN22@max_size
  00066	8d 45 f0	 lea	 eax, DWORD PTR $T9[ebp]
  00069	89 45 e8	 mov	 DWORD PTR tv70[ebp], eax
  0006c	eb 06		 jmp	 SHORT $LN23@max_size
$LN22@max_size:
  0006e	8d 45 ec	 lea	 eax, DWORD PTR $T8[ebp]
  00071	89 45 e8	 mov	 DWORD PTR tv70[ebp], eax
$LN23@max_size:
  00074	8b 45 e8	 mov	 eax, DWORD PTR tv70[ebp]
  00077	89 45 cc	 mov	 DWORD PTR $T3[ebp], eax
  0007a	8b 45 cc	 mov	 eax, DWORD PTR $T3[ebp]
  0007d	89 45 c8	 mov	 DWORD PTR $T2[ebp], eax
; File C:\Program Files (x86)\Microsoft Visual Studio\2019\Community\VC\Tools\MSVC\14.28.29333\include\xstring

; 3777 :         return (_STD min)(static_cast<size_type>((numeric_limits<difference_type>::max)()),

  00080	8b 45 c8	 mov	 eax, DWORD PTR $T2[ebp]
  00083	8b 00		 mov	 eax, DWORD PTR [eax]

; 3778 :             _Storage_max - 1 // -1 is for null terminator and/or npos
; 3779 :         );
; 3780 :     }

  00085	c9		 leave
  00086	c3		 ret	 0
?max_size@?$basic_string@DU?$char_traits@D@std@@V?$allocator@D@2@@std@@QBEIXZ ENDP ; std::basic_string<char,std::char_traits<char>,std::allocator<char> >::max_size
_TEXT	ENDS
; Function compile flags: /Odspy
; File C:\Program Files (x86)\Microsoft Visual Studio\2019\Community\VC\Tools\MSVC\14.28.29333\include\xstring
; File C:\Program Files (x86)\Microsoft Visual Studio\2019\Community\VC\Tools\MSVC\14.28.29333\include\xstddef
; File C:\Program Files (x86)\Microsoft Visual Studio\2019\Community\VC\Tools\MSVC\14.28.29333\include\xstring
;	COMDAT ?c_str@?$basic_string@DU?$char_traits@D@std@@V?$allocator@D@2@@std@@QBEPBDXZ
_TEXT	SEGMENT
$T1 = -28						; size = 4
__Ptr$ = -24						; size = 4
_this$ = -20						; size = 4
__Result$2 = -16					; size = 4
tv80 = -12						; size = 4
_this$ = -8						; size = 4
$T3 = -1						; size = 1
?c_str@?$basic_string@DU?$char_traits@D@std@@V?$allocator@D@2@@std@@QBEPBDXZ PROC ; std::basic_string<char,std::char_traits<char>,std::allocator<char> >::c_str, COMDAT
; _this$ = ecx

; 3751 :     _NODISCARD _Ret_z_ const _Elem* c_str() const noexcept {

  00000	55		 push	 ebp
  00001	8b ec		 mov	 ebp, esp
  00003	83 ec 1c	 sub	 esp, 28			; 0000001cH
  00006	89 4d ec	 mov	 DWORD PTR _this$[ebp], ecx

; 3752 :         return _Mypair._Myval2._Myptr();

  00009	8b 45 ec	 mov	 eax, DWORD PTR _this$[ebp]
  0000c	89 45 f8	 mov	 DWORD PTR _this$[ebp], eax

; 2218 :         const value_type* _Result = _Bx._Buf;

  0000f	8b 45 f8	 mov	 eax, DWORD PTR _this$[ebp]
  00012	89 45 f0	 mov	 DWORD PTR __Result$2[ebp], eax

; 2227 :         return _BUF_SIZE <= _Myres;

  00015	8b 45 f8	 mov	 eax, DWORD PTR _this$[ebp]
  00018	83 78 14 10	 cmp	 DWORD PTR [eax+20], 16	; 00000010H
  0001c	72 09		 jb	 SHORT $LN9@c_str
  0001e	c7 45 f4 01 00
	00 00		 mov	 DWORD PTR tv80[ebp], 1
  00025	eb 04		 jmp	 SHORT $LN10@c_str
$LN9@c_str:
  00027	83 65 f4 00	 and	 DWORD PTR tv80[ebp], 0
$LN10@c_str:
  0002b	8a 45 f4	 mov	 al, BYTE PTR tv80[ebp]
  0002e	88 45 ff	 mov	 BYTE PTR $T3[ebp], al

; 2219 :         if (_Large_string_engaged()) {

  00031	0f b6 45 ff	 movzx	 eax, BYTE PTR $T3[ebp]
  00035	85 c0		 test	 eax, eax
  00037	74 0e		 je	 SHORT $LN4@c_str

; 2220 :             _Result = _Unfancy(_Bx._Ptr);

  00039	8b 45 f8	 mov	 eax, DWORD PTR _this$[ebp]
  0003c	8b 00		 mov	 eax, DWORD PTR [eax]
  0003e	89 45 e8	 mov	 DWORD PTR __Ptr$[ebp], eax
; File C:\Program Files (x86)\Microsoft Visual Studio\2019\Community\VC\Tools\MSVC\14.28.29333\include\xstddef

; 289  :     return _Ptr;

  00041	8b 45 e8	 mov	 eax, DWORD PTR __Ptr$[ebp]
  00044	89 45 f0	 mov	 DWORD PTR __Result$2[ebp], eax
$LN4@c_str:
; File C:\Program Files (x86)\Microsoft Visual Studio\2019\Community\VC\Tools\MSVC\14.28.29333\include\xstring

; 2223 :         return _Result;

  00047	8b 45 f0	 mov	 eax, DWORD PTR __Result$2[ebp]
  0004a	89 45 e4	 mov	 DWORD PTR $T1[ebp], eax

; 3752 :         return _Mypair._Myval2._Myptr();

  0004d	8b 45 e4	 mov	 eax, DWORD PTR $T1[ebp]

; 3753 :     }

  00050	c9		 leave
  00051	c3		 ret	 0
?c_str@?$basic_string@DU?$char_traits@D@std@@V?$allocator@D@2@@std@@QBEPBDXZ ENDP ; std::basic_string<char,std::char_traits<char>,std::allocator<char> >::c_str
_TEXT	ENDS
; Function compile flags: /Odspy
; File C:\Program Files (x86)\Microsoft Visual Studio\2019\Community\VC\Tools\MSVC\14.28.29333\include\xstring
;	COMDAT ?push_back@?$basic_string@DU?$char_traits@D@std@@V?$allocator@D@2@@std@@QAEXD@Z
_TEXT	SEGMENT
$T1 = -20						; size = 1
__Ptr$2 = -16						; size = 4
__Old_size$ = -12					; size = 4
_this$ = -8						; size = 4
$T3 = -1						; size = 1
__Ch$ = 8						; size = 1
?push_back@?$basic_string@DU?$char_traits@D@std@@V?$allocator@D@2@@std@@QAEXD@Z PROC ; std::basic_string<char,std::char_traits<char>,std::allocator<char> >::push_back, COMDAT
; _this$ = ecx

; 3691 :     void push_back(const _Elem _Ch) { // insert element at end

  00000	55		 push	 ebp
  00001	8b ec		 mov	 ebp, esp
  00003	83 ec 14	 sub	 esp, 20			; 00000014H
  00006	89 4d f8	 mov	 DWORD PTR _this$[ebp], ecx

; 3692 :         const size_type _Old_size = _Mypair._Myval2._Mysize;

  00009	8b 45 f8	 mov	 eax, DWORD PTR _this$[ebp]
  0000c	8b 40 10	 mov	 eax, DWORD PTR [eax+16]
  0000f	89 45 f4	 mov	 DWORD PTR __Old_size$[ebp], eax

; 3693 :         if (_Old_size < _Mypair._Myval2._Myres) {

  00012	8b 45 f8	 mov	 eax, DWORD PTR _this$[ebp]
  00015	8b 4d f4	 mov	 ecx, DWORD PTR __Old_size$[ebp]
  00018	3b 48 14	 cmp	 ecx, DWORD PTR [eax+20]
  0001b	73 32		 jae	 SHORT $LN2@push_back

; 3694 :             _Mypair._Myval2._Mysize = _Old_size + 1;

  0001d	8b 45 f4	 mov	 eax, DWORD PTR __Old_size$[ebp]
  00020	40		 inc	 eax
  00021	8b 4d f8	 mov	 ecx, DWORD PTR _this$[ebp]
  00024	89 41 10	 mov	 DWORD PTR [ecx+16], eax

; 3695 :             _Elem* const _Ptr       = _Mypair._Myval2._Myptr();

  00027	8b 4d f8	 mov	 ecx, DWORD PTR _this$[ebp]
  0002a	e8 00 00 00 00	 call	 ?_Myptr@?$_String_val@U?$_Simple_types@D@std@@@std@@QAEPADXZ ; std::_String_val<std::_Simple_types<char> >::_Myptr
  0002f	89 45 f0	 mov	 DWORD PTR __Ptr$2[ebp], eax

; 428  :         _Left = _Right;

  00032	8b 45 f0	 mov	 eax, DWORD PTR __Ptr$2[ebp]
  00035	03 45 f4	 add	 eax, DWORD PTR __Old_size$[ebp]
  00038	8a 4d 08	 mov	 cl, BYTE PTR __Ch$[ebp]
  0003b	88 08		 mov	 BYTE PTR [eax], cl

; 3696 :             _Traits::assign(_Ptr[_Old_size], _Ch);
; 3697 :             _Traits::assign(_Ptr[_Old_size + 1], _Elem());

  0003d	c6 45 ff 00	 mov	 BYTE PTR $T3[ebp], 0

; 428  :         _Left = _Right;

  00041	8b 45 f0	 mov	 eax, DWORD PTR __Ptr$2[ebp]
  00044	03 45 f4	 add	 eax, DWORD PTR __Old_size$[ebp]
  00047	8a 4d ff	 mov	 cl, BYTE PTR $T3[ebp]
  0004a	88 48 01	 mov	 BYTE PTR [eax+1], cl

; 3698 :             return;

  0004d	eb 15		 jmp	 SHORT $LN1@push_back
$LN2@push_back:

; 3699 :         }
; 3700 : 
; 3701 :         _Reallocate_grow_by(

  0004f	33 c0		 xor	 eax, eax
  00051	88 45 ec	 mov	 BYTE PTR $T1[ebp], al
  00054	ff 75 08	 push	 DWORD PTR __Ch$[ebp]
  00057	ff 75 ec	 push	 DWORD PTR $T1[ebp]
  0005a	6a 01		 push	 1
  0005c	8b 4d f8	 mov	 ecx, DWORD PTR _this$[ebp]
  0005f	e8 00 00 00 00	 call	 ??$_Reallocate_grow_by@V<lambda_15711c68e099a15a58f4d77303cb286d>@@D@?$basic_string@DU?$char_traits@D@std@@V?$allocator@D@2@@std@@AAEAAV01@IV<lambda_15711c68e099a15a58f4d77303cb286d>@@D@Z ; std::basic_string<char,std::char_traits<char>,std::allocator<char> >::_Reallocate_grow_by<<lambda_15711c68e099a15a58f4d77303cb286d>,char>
$LN1@push_back:

; 3702 :             1,
; 3703 :             [](_Elem* const _New_ptr, const _Elem* const _Old_ptr, const size_type _Old_size, const _Elem _Ch) {
; 3704 :                 _Traits::copy(_New_ptr, _Old_ptr, _Old_size);
; 3705 :                 _Traits::assign(_New_ptr[_Old_size], _Ch);
; 3706 :                 _Traits::assign(_New_ptr[_Old_size + 1], _Elem());
; 3707 :             },
; 3708 :             _Ch);
; 3709 :     }

  00064	c9		 leave
  00065	c2 04 00	 ret	 4
?push_back@?$basic_string@DU?$char_traits@D@std@@V?$allocator@D@2@@std@@QAEXD@Z ENDP ; std::basic_string<char,std::char_traits<char>,std::allocator<char> >::push_back
_TEXT	ENDS
; Function compile flags: /Odspy
; File C:\Program Files (x86)\Microsoft Visual Studio\2019\Community\VC\Tools\MSVC\14.28.29333\include\xstring
;	COMDAT ?assign@?$basic_string@DU?$char_traits@D@std@@V?$allocator@D@2@@std@@QAEAAV12@QBDI@Z
_TEXT	SEGMENT
$T1 = -16						; size = 1
__Old_ptr$2 = -12					; size = 4
_this$ = -8						; size = 4
$T3 = -1						; size = 1
__Ptr$ = 8						; size = 4
__Count$ = 12						; size = 4
?assign@?$basic_string@DU?$char_traits@D@std@@V?$allocator@D@2@@std@@QAEAAV12@QBDI@Z PROC ; std::basic_string<char,std::char_traits<char>,std::allocator<char> >::assign, COMDAT
; _this$ = ecx

; 3042 :     basic_string& assign(_In_reads_(_Count) const _Elem* const _Ptr, _CRT_GUARDOVERFLOW const size_type _Count) {

  00000	55		 push	 ebp
  00001	8b ec		 mov	 ebp, esp
  00003	83 ec 10	 sub	 esp, 16			; 00000010H
  00006	89 4d f8	 mov	 DWORD PTR _this$[ebp], ecx

; 3043 :         // assign [_Ptr, _Ptr + _Count)
; 3044 :         if (_Count <= _Mypair._Myval2._Myres) {

  00009	8b 45 f8	 mov	 eax, DWORD PTR _this$[ebp]
  0000c	8b 4d 0c	 mov	 ecx, DWORD PTR __Count$[ebp]
  0000f	3b 48 14	 cmp	 ecx, DWORD PTR [eax+20]
  00012	77 39		 ja	 SHORT $LN2@assign

; 3045 :             _Elem* const _Old_ptr   = _Mypair._Myval2._Myptr();

  00014	8b 4d f8	 mov	 ecx, DWORD PTR _this$[ebp]
  00017	e8 00 00 00 00	 call	 ?_Myptr@?$_String_val@U?$_Simple_types@D@std@@@std@@QAEPADXZ ; std::_String_val<std::_Simple_types<char> >::_Myptr
  0001c	89 45 f4	 mov	 DWORD PTR __Old_ptr$2[ebp], eax

; 3046 :             _Mypair._Myval2._Mysize = _Count;

  0001f	8b 45 f8	 mov	 eax, DWORD PTR _this$[ebp]
  00022	8b 4d 0c	 mov	 ecx, DWORD PTR __Count$[ebp]
  00025	89 48 10	 mov	 DWORD PTR [eax+16], ecx

; 119  :         _CSTD memmove(_First1, _First2, _Count * sizeof(_Elem));

  00028	ff 75 0c	 push	 DWORD PTR __Count$[ebp]
  0002b	ff 75 08	 push	 DWORD PTR __Ptr$[ebp]
  0002e	ff 75 f4	 push	 DWORD PTR __Old_ptr$2[ebp]
  00031	e8 00 00 00 00	 call	 _memmove
  00036	83 c4 0c	 add	 esp, 12			; 0000000cH

; 3047 :             _Traits::move(_Old_ptr, _Ptr, _Count);
; 3048 :             _Traits::assign(_Old_ptr[_Count], _Elem());

  00039	c6 45 ff 00	 mov	 BYTE PTR $T3[ebp], 0

; 428  :         _Left = _Right;

  0003d	8b 45 f4	 mov	 eax, DWORD PTR __Old_ptr$2[ebp]
  00040	03 45 0c	 add	 eax, DWORD PTR __Count$[ebp]
  00043	8a 4d ff	 mov	 cl, BYTE PTR $T3[ebp]
  00046	88 08		 mov	 BYTE PTR [eax], cl

; 3049 :             return *this;

  00048	8b 45 f8	 mov	 eax, DWORD PTR _this$[ebp]
  0004b	eb 16		 jmp	 SHORT $LN1@assign
$LN2@assign:

; 3050 :         }
; 3051 : 
; 3052 :         return _Reallocate_for(

  0004d	33 c0		 xor	 eax, eax
  0004f	88 45 f0	 mov	 BYTE PTR $T1[ebp], al
  00052	ff 75 08	 push	 DWORD PTR __Ptr$[ebp]
  00055	ff 75 f0	 push	 DWORD PTR $T1[ebp]
  00058	ff 75 0c	 push	 DWORD PTR __Count$[ebp]
  0005b	8b 4d f8	 mov	 ecx, DWORD PTR _this$[ebp]
  0005e	e8 00 00 00 00	 call	 ??$_Reallocate_for@V<lambda_9366063389c5f42a00a5088cf24e69de>@@PBD@?$basic_string@DU?$char_traits@D@std@@V?$allocator@D@2@@std@@AAEAAV01@IV<lambda_9366063389c5f42a00a5088cf24e69de>@@PBD@Z ; std::basic_string<char,std::char_traits<char>,std::allocator<char> >::_Reallocate_for<<lambda_9366063389c5f42a00a5088cf24e69de>,char const *>
$LN1@assign:

; 3053 :             _Count,
; 3054 :             [](_Elem* const _New_ptr, const size_type _Count, const _Elem* const _Ptr) {
; 3055 :                 _Traits::copy(_New_ptr, _Ptr, _Count);
; 3056 :                 _Traits::assign(_New_ptr[_Count], _Elem());
; 3057 :             },
; 3058 :             _Ptr);
; 3059 :     }

  00063	c9		 leave
  00064	c2 08 00	 ret	 8
?assign@?$basic_string@DU?$char_traits@D@std@@V?$allocator@D@2@@std@@QAEAAV12@QBDI@Z ENDP ; std::basic_string<char,std::char_traits<char>,std::allocator<char> >::assign
_TEXT	ENDS
; Function compile flags: /Odspy
; File C:\Program Files (x86)\Microsoft Visual Studio\2019\Community\VC\Tools\MSVC\14.28.29333\include\xstring
;	COMDAT ?append@?$basic_string@DU?$char_traits@D@std@@V?$allocator@D@2@@std@@QAEAAV12@QBDI@Z
_TEXT	SEGMENT
$T1 = -24						; size = 1
__First1$ = -20						; size = 4
__Old_ptr$2 = -16					; size = 4
__Old_size$ = -12					; size = 4
_this$ = -8						; size = 4
$T3 = -1						; size = 1
__Ptr$ = 8						; size = 4
__Count$ = 12						; size = 4
?append@?$basic_string@DU?$char_traits@D@std@@V?$allocator@D@2@@std@@QAEAAV12@QBDI@Z PROC ; std::basic_string<char,std::char_traits<char>,std::allocator<char> >::append, COMDAT
; _this$ = ecx

; 2935 :     basic_string& append(_In_reads_(_Count) const _Elem* const _Ptr, _CRT_GUARDOVERFLOW const size_type _Count) {

  00000	55		 push	 ebp
  00001	8b ec		 mov	 ebp, esp
  00003	83 ec 18	 sub	 esp, 24			; 00000018H
  00006	89 4d f8	 mov	 DWORD PTR _this$[ebp], ecx

; 2936 :         // append [_Ptr, _Ptr + _Count)
; 2937 :         const size_type _Old_size = _Mypair._Myval2._Mysize;

  00009	8b 45 f8	 mov	 eax, DWORD PTR _this$[ebp]
  0000c	8b 40 10	 mov	 eax, DWORD PTR [eax+16]
  0000f	89 45 f4	 mov	 DWORD PTR __Old_size$[ebp], eax

; 2938 :         if (_Count <= _Mypair._Myval2._Myres - _Old_size) {

  00012	8b 45 f8	 mov	 eax, DWORD PTR _this$[ebp]
  00015	8b 40 14	 mov	 eax, DWORD PTR [eax+20]
  00018	2b 45 f4	 sub	 eax, DWORD PTR __Old_size$[ebp]
  0001b	39 45 0c	 cmp	 DWORD PTR __Count$[ebp], eax
  0001e	77 49		 ja	 SHORT $LN2@append

; 2939 :             _Mypair._Myval2._Mysize = _Old_size + _Count;

  00020	8b 45 f4	 mov	 eax, DWORD PTR __Old_size$[ebp]
  00023	03 45 0c	 add	 eax, DWORD PTR __Count$[ebp]
  00026	8b 4d f8	 mov	 ecx, DWORD PTR _this$[ebp]
  00029	89 41 10	 mov	 DWORD PTR [ecx+16], eax

; 2940 :             _Elem* const _Old_ptr   = _Mypair._Myval2._Myptr();

  0002c	8b 4d f8	 mov	 ecx, DWORD PTR _this$[ebp]
  0002f	e8 00 00 00 00	 call	 ?_Myptr@?$_String_val@U?$_Simple_types@D@std@@@std@@QAEPADXZ ; std::_String_val<std::_Simple_types<char> >::_Myptr
  00034	89 45 f0	 mov	 DWORD PTR __Old_ptr$2[ebp], eax

; 2941 :             _Traits::move(_Old_ptr + _Old_size, _Ptr, _Count);

  00037	8b 45 f0	 mov	 eax, DWORD PTR __Old_ptr$2[ebp]
  0003a	03 45 f4	 add	 eax, DWORD PTR __Old_size$[ebp]
  0003d	89 45 ec	 mov	 DWORD PTR __First1$[ebp], eax

; 119  :         _CSTD memmove(_First1, _First2, _Count * sizeof(_Elem));

  00040	ff 75 0c	 push	 DWORD PTR __Count$[ebp]
  00043	ff 75 08	 push	 DWORD PTR __Ptr$[ebp]
  00046	ff 75 ec	 push	 DWORD PTR __First1$[ebp]
  00049	e8 00 00 00 00	 call	 _memmove
  0004e	83 c4 0c	 add	 esp, 12			; 0000000cH

; 2942 :             _Traits::assign(_Old_ptr[_Old_size + _Count], _Elem());

  00051	c6 45 ff 00	 mov	 BYTE PTR $T3[ebp], 0
  00055	8b 45 f4	 mov	 eax, DWORD PTR __Old_size$[ebp]
  00058	03 45 0c	 add	 eax, DWORD PTR __Count$[ebp]

; 428  :         _Left = _Right;

  0005b	8b 4d f0	 mov	 ecx, DWORD PTR __Old_ptr$2[ebp]
  0005e	8a 55 ff	 mov	 dl, BYTE PTR $T3[ebp]
  00061	88 14 01	 mov	 BYTE PTR [ecx+eax], dl

; 2943 :             return *this;

  00064	8b 45 f8	 mov	 eax, DWORD PTR _this$[ebp]
  00067	eb 19		 jmp	 SHORT $LN1@append
$LN2@append:

; 2944 :         }
; 2945 : 
; 2946 :         return _Reallocate_grow_by(

  00069	33 c0		 xor	 eax, eax
  0006b	88 45 e8	 mov	 BYTE PTR $T1[ebp], al
  0006e	ff 75 0c	 push	 DWORD PTR __Count$[ebp]
  00071	ff 75 08	 push	 DWORD PTR __Ptr$[ebp]
  00074	ff 75 e8	 push	 DWORD PTR $T1[ebp]
  00077	ff 75 0c	 push	 DWORD PTR __Count$[ebp]
  0007a	8b 4d f8	 mov	 ecx, DWORD PTR _this$[ebp]
  0007d	e8 00 00 00 00	 call	 ??$_Reallocate_grow_by@V<lambda_ab246b20b9526e2ef7792587e4298a77>@@PBDI@?$basic_string@DU?$char_traits@D@std@@V?$allocator@D@2@@std@@AAEAAV01@IV<lambda_ab246b20b9526e2ef7792587e4298a77>@@PBDI@Z ; std::basic_string<char,std::char_traits<char>,std::allocator<char> >::_Reallocate_grow_by<<lambda_ab246b20b9526e2ef7792587e4298a77>,char const *,unsigned int>
$LN1@append:

; 2947 :             _Count,
; 2948 :             [](_Elem* const _New_ptr, const _Elem* const _Old_ptr, const size_type _Old_size, const _Elem* const _Ptr,
; 2949 :                 const size_type _Count) {
; 2950 :                 _Traits::copy(_New_ptr, _Old_ptr, _Old_size);
; 2951 :                 _Traits::copy(_New_ptr + _Old_size, _Ptr, _Count);
; 2952 :                 _Traits::assign(_New_ptr[_Old_size + _Count], _Elem());
; 2953 :             },
; 2954 :             _Ptr, _Count);
; 2955 :     }

  00082	c9		 leave
  00083	c2 08 00	 ret	 8
?append@?$basic_string@DU?$char_traits@D@std@@V?$allocator@D@2@@std@@QAEAAV12@QBDI@Z ENDP ; std::basic_string<char,std::char_traits<char>,std::allocator<char> >::append
_TEXT	ENDS
; Function compile flags: /Odspy
; File C:\Program Files (x86)\Microsoft Visual Studio\2019\Community\VC\Tools\MSVC\14.28.29333\include\xstring
;	COMDAT ??1?$basic_string@DU?$char_traits@D@std@@V?$allocator@D@2@@std@@QAE@XZ
_TEXT	SEGMENT
_this$ = -4						; size = 4
??1?$basic_string@DU?$char_traits@D@std@@V?$allocator@D@2@@std@@QAE@XZ PROC ; std::basic_string<char,std::char_traits<char>,std::allocator<char> >::~basic_string<char,std::char_traits<char>,std::allocator<char> >, COMDAT
; _this$ = ecx

; 2800 :     ~basic_string() noexcept {

  00000	55		 push	 ebp
  00001	8b ec		 mov	 ebp, esp
  00003	51		 push	 ecx
  00004	89 4d fc	 mov	 DWORD PTR _this$[ebp], ecx

; 2801 :         _Tidy_deallocate();

  00007	8b 4d fc	 mov	 ecx, DWORD PTR _this$[ebp]
  0000a	e8 00 00 00 00	 call	 ?_Tidy_deallocate@?$basic_string@DU?$char_traits@D@std@@V?$allocator@D@2@@std@@AAEXXZ ; std::basic_string<char,std::char_traits<char>,std::allocator<char> >::_Tidy_deallocate

; 2802 : #if _ITERATOR_DEBUG_LEVEL != 0
; 2803 :         auto&& _Alproxy          = _GET_PROXY_ALLOCATOR(_Alty, _Getal());
; 2804 :         const auto _To_delete    = _Mypair._Myval2._Myproxy;
; 2805 :         _Mypair._Myval2._Myproxy = nullptr;
; 2806 :         _Delete_plain_internal(_Alproxy, _To_delete);
; 2807 : #endif // _ITERATOR_DEBUG_LEVEL != 0
; 2808 :     }

  0000f	c9		 leave
  00010	c3		 ret	 0
??1?$basic_string@DU?$char_traits@D@std@@V?$allocator@D@2@@std@@QAE@XZ ENDP ; std::basic_string<char,std::char_traits<char>,std::allocator<char> >::~basic_string<char,std::char_traits<char>,std::allocator<char> >
_TEXT	ENDS
; Function compile flags: /Odspy
; File C:\Program Files (x86)\Microsoft Visual Studio\2019\Community\VC\Tools\MSVC\14.28.29333\include\xstring
; File C:\Program Files (x86)\Microsoft Visual Studio\2019\Community\VC\Tools\MSVC\14.28.29333\include\xmemory
; File C:\Program Files (x86)\Microsoft Visual Studio\2019\Community\VC\Tools\MSVC\14.28.29333\include\xstring
; File C:\Program Files (x86)\Microsoft Visual Studio\2019\Community\VC\Tools\MSVC\14.28.29333\include\xmemory
; File C:\Program Files (x86)\Microsoft Visual Studio\2019\Community\VC\Tools\MSVC\14.28.29333\include\xstring
;	COMDAT ??0?$basic_string@DU?$char_traits@D@std@@V?$allocator@D@2@@std@@QAE@QBD@Z
_TEXT	SEGMENT
__Alproxy$ = -40					; size = 4
$T2 = -36						; size = 4
$T3 = -32						; size = 4
_this$ = -28						; size = 4
_this$ = -24						; size = 4
_this$ = -20						; size = 4
_$S6$ = -13						; size = 1
__$EHRec$ = -12						; size = 12
__Ptr$ = 8						; size = 4
??0?$basic_string@DU?$char_traits@D@std@@V?$allocator@D@2@@std@@QAE@QBD@Z PROC ; std::basic_string<char,std::char_traits<char>,std::allocator<char> >::basic_string<char,std::char_traits<char>,std::allocator<char> >, COMDAT
; _this$ = ecx

; 2413 :     basic_string(_In_z_ const _Elem* const _Ptr) : _Mypair(_Zero_then_variadic_args_t{}) {

  00000	55		 push	 ebp
  00001	8b ec		 mov	 ebp, esp
  00003	6a ff		 push	 -1
  00005	68 00 00 00 00	 push	 __ehhandler$??0?$basic_string@DU?$char_traits@D@std@@V?$allocator@D@2@@std@@QAE@QBD@Z
  0000a	64 a1 00 00 00
	00		 mov	 eax, DWORD PTR fs:0
  00010	50		 push	 eax
  00011	83 ec 1c	 sub	 esp, 28			; 0000001cH
  00014	a1 00 00 00 00	 mov	 eax, DWORD PTR ___security_cookie
  00019	33 c5		 xor	 eax, ebp
  0001b	50		 push	 eax
  0001c	8d 45 f4	 lea	 eax, DWORD PTR __$EHRec$[ebp]
  0001f	64 a3 00 00 00
	00		 mov	 DWORD PTR fs:0, eax
  00025	89 4d ec	 mov	 DWORD PTR _this$[ebp], ecx
  00028	8b 45 ec	 mov	 eax, DWORD PTR _this$[ebp]
  0002b	89 45 e4	 mov	 DWORD PTR _this$[ebp], eax
; File C:\Program Files (x86)\Microsoft Visual Studio\2019\Community\VC\Tools\MSVC\14.28.29333\include\xmemory

; 1339 :         : _Ty1(), _Myval2(_STD forward<_Other2>(_Val2)...) {}

  0002e	8b 45 e4	 mov	 eax, DWORD PTR _this$[ebp]
  00031	89 45 e8	 mov	 DWORD PTR _this$[ebp], eax
; File C:\Program Files (x86)\Microsoft Visual Studio\2019\Community\VC\Tools\MSVC\14.28.29333\include\xstring

; 2198 :     _String_val() noexcept : _Bx(), _Mysize(0), _Myres(0) {}

  00034	8b 45 e8	 mov	 eax, DWORD PTR _this$[ebp]
  00037	83 60 10 00	 and	 DWORD PTR [eax+16], 0
  0003b	8b 45 e8	 mov	 eax, DWORD PTR _this$[ebp]
  0003e	83 60 14 00	 and	 DWORD PTR [eax+20], 0

; 2413 :     basic_string(_In_z_ const _Elem* const _Ptr) : _Mypair(_Zero_then_variadic_args_t{}) {

  00042	83 65 fc 00	 and	 DWORD PTR __$EHRec$[ebp+8], 0

; 2414 :         auto&& _Alproxy = _GET_PROXY_ALLOCATOR(_Alty, _Getal());

  00046	8d 45 f3	 lea	 eax, DWORD PTR _$S6$[ebp]
  00049	89 45 d8	 mov	 DWORD PTR __Alproxy$[ebp], eax

; 2415 :         _Container_proxy_ptr<_Alty> _Proxy(_Alproxy, _Mypair._Myval2);
; 2416 :         _Tidy_init();

  0004c	8b 4d ec	 mov	 ecx, DWORD PTR _this$[ebp]
  0004f	e8 00 00 00 00	 call	 ?_Tidy_init@?$basic_string@DU?$char_traits@D@std@@V?$allocator@D@2@@std@@AAEXXZ ; std::basic_string<char,std::char_traits<char>,std::allocator<char> >::_Tidy_init

; 389  :         return _CSTD strlen(reinterpret_cast<const char*>(_First));

  00054	ff 75 08	 push	 DWORD PTR __Ptr$[ebp]
  00057	e8 00 00 00 00	 call	 _strlen
  0005c	59		 pop	 ecx
  0005d	89 45 e0	 mov	 DWORD PTR $T3[ebp], eax
; File C:\Program Files (x86)\Microsoft Visual Studio\2019\Community\VC\Tools\MSVC\14.28.29333\include\xmemory

; 997  :     return _Len;

  00060	8b 45 e0	 mov	 eax, DWORD PTR $T3[ebp]
  00063	89 45 dc	 mov	 DWORD PTR $T2[ebp], eax
; File C:\Program Files (x86)\Microsoft Visual Studio\2019\Community\VC\Tools\MSVC\14.28.29333\include\xstring

; 3062 :         return assign(_Ptr, _Convert_size<size_type>(_Traits::length(_Ptr)));

  00066	ff 75 dc	 push	 DWORD PTR $T2[ebp]
  00069	ff 75 08	 push	 DWORD PTR __Ptr$[ebp]
  0006c	8b 4d ec	 mov	 ecx, DWORD PTR _this$[ebp]
  0006f	e8 00 00 00 00	 call	 ?assign@?$basic_string@DU?$char_traits@D@std@@V?$allocator@D@2@@std@@QAEAAV12@QBDI@Z ; std::basic_string<char,std::char_traits<char>,std::allocator<char> >::assign

; 2417 :         assign(_Ptr);
; 2418 :         _Proxy._Release();
; 2419 :     }

  00074	83 4d fc ff	 or	 DWORD PTR __$EHRec$[ebp+8], -1
  00078	8b 45 ec	 mov	 eax, DWORD PTR _this$[ebp]
  0007b	8b 4d f4	 mov	 ecx, DWORD PTR __$EHRec$[ebp]
  0007e	64 89 0d 00 00
	00 00		 mov	 DWORD PTR fs:0, ecx
  00085	59		 pop	 ecx
  00086	c9		 leave
  00087	c2 04 00	 ret	 4
_TEXT	ENDS
;	COMDAT text$x
text$x	SEGMENT
__unwindfunclet$??0?$basic_string@DU?$char_traits@D@std@@V?$allocator@D@2@@std@@QAE@QBD@Z$0:
  00000	8b 4d ec	 mov	 ecx, DWORD PTR _this$[ebp]
  00003	e9 00 00 00 00	 jmp	 ??1?$_Compressed_pair@V?$allocator@D@std@@V?$_String_val@U?$_Simple_types@D@std@@@2@$00@std@@QAE@XZ
  00008	cc		 int	 3
  00009	cc		 int	 3
  0000a	cc		 int	 3
  0000b	cc		 int	 3
  0000c	cc		 int	 3
__ehhandler$??0?$basic_string@DU?$char_traits@D@std@@V?$allocator@D@2@@std@@QAE@QBD@Z:
  0000d	90		 npad	 1
  0000e	90		 npad	 1
  0000f	8b 54 24 08	 mov	 edx, DWORD PTR [esp+8]
  00013	8d 42 0c	 lea	 eax, DWORD PTR [edx+12]
  00016	8b 4a e0	 mov	 ecx, DWORD PTR [edx-32]
  00019	33 c8		 xor	 ecx, eax
  0001b	e8 00 00 00 00	 call	 @__security_check_cookie@4
  00020	b8 00 00 00 00	 mov	 eax, OFFSET __ehfuncinfo$??0?$basic_string@DU?$char_traits@D@std@@V?$allocator@D@2@@std@@QAE@QBD@Z
  00025	e9 00 00 00 00	 jmp	 ___CxxFrameHandler3
text$x	ENDS
??0?$basic_string@DU?$char_traits@D@std@@V?$allocator@D@2@@std@@QAE@QBD@Z ENDP ; std::basic_string<char,std::char_traits<char>,std::allocator<char> >::basic_string<char,std::char_traits<char>,std::allocator<char> >
; Function compile flags: /Odspy
; File C:\Program Files (x86)\Microsoft Visual Studio\2019\Community\VC\Tools\MSVC\14.28.29333\include\xstring
; File C:\Program Files (x86)\Microsoft Visual Studio\2019\Community\VC\Tools\MSVC\14.28.29333\include\xstddef
; File C:\Program Files (x86)\Microsoft Visual Studio\2019\Community\VC\Tools\MSVC\14.28.29333\include\xstring
;	COMDAT ?_Myptr@?$_String_val@U?$_Simple_types@D@std@@@std@@QBEPBDXZ
_TEXT	SEGMENT
__Ptr$ = -20						; size = 4
__Result$ = -16						; size = 4
tv76 = -12						; size = 4
_this$ = -8						; size = 4
$T1 = -1						; size = 1
?_Myptr@?$_String_val@U?$_Simple_types@D@std@@@std@@QBEPBDXZ PROC ; std::_String_val<std::_Simple_types<char> >::_Myptr, COMDAT
; _this$ = ecx

; 2217 :     const value_type* _Myptr() const noexcept {

  00000	55		 push	 ebp
  00001	8b ec		 mov	 ebp, esp
  00003	83 ec 14	 sub	 esp, 20			; 00000014H
  00006	89 4d f8	 mov	 DWORD PTR _this$[ebp], ecx

; 2218 :         const value_type* _Result = _Bx._Buf;

  00009	8b 45 f8	 mov	 eax, DWORD PTR _this$[ebp]
  0000c	89 45 f0	 mov	 DWORD PTR __Result$[ebp], eax

; 2227 :         return _BUF_SIZE <= _Myres;

  0000f	8b 45 f8	 mov	 eax, DWORD PTR _this$[ebp]
  00012	83 78 14 10	 cmp	 DWORD PTR [eax+20], 16	; 00000010H
  00016	72 09		 jb	 SHORT $LN6@Myptr
  00018	c7 45 f4 01 00
	00 00		 mov	 DWORD PTR tv76[ebp], 1
  0001f	eb 04		 jmp	 SHORT $LN7@Myptr
$LN6@Myptr:
  00021	83 65 f4 00	 and	 DWORD PTR tv76[ebp], 0
$LN7@Myptr:
  00025	8a 45 f4	 mov	 al, BYTE PTR tv76[ebp]
  00028	88 45 ff	 mov	 BYTE PTR $T1[ebp], al

; 2219 :         if (_Large_string_engaged()) {

  0002b	0f b6 45 ff	 movzx	 eax, BYTE PTR $T1[ebp]
  0002f	85 c0		 test	 eax, eax
  00031	74 0e		 je	 SHORT $LN2@Myptr

; 2220 :             _Result = _Unfancy(_Bx._Ptr);

  00033	8b 45 f8	 mov	 eax, DWORD PTR _this$[ebp]
  00036	8b 00		 mov	 eax, DWORD PTR [eax]
  00038	89 45 ec	 mov	 DWORD PTR __Ptr$[ebp], eax
; File C:\Program Files (x86)\Microsoft Visual Studio\2019\Community\VC\Tools\MSVC\14.28.29333\include\xstddef

; 289  :     return _Ptr;

  0003b	8b 45 ec	 mov	 eax, DWORD PTR __Ptr$[ebp]
  0003e	89 45 f0	 mov	 DWORD PTR __Result$[ebp], eax
$LN2@Myptr:
; File C:\Program Files (x86)\Microsoft Visual Studio\2019\Community\VC\Tools\MSVC\14.28.29333\include\xstring

; 2223 :         return _Result;

  00041	8b 45 f0	 mov	 eax, DWORD PTR __Result$[ebp]

; 2224 :     }

  00044	c9		 leave
  00045	c3		 ret	 0
?_Myptr@?$_String_val@U?$_Simple_types@D@std@@@std@@QBEPBDXZ ENDP ; std::_String_val<std::_Simple_types<char> >::_Myptr
_TEXT	ENDS
; Function compile flags: /Odspy
; File C:\Program Files (x86)\Microsoft Visual Studio\2019\Community\VC\Tools\MSVC\14.28.29333\include\xstring
; File C:\Program Files (x86)\Microsoft Visual Studio\2019\Community\VC\Tools\MSVC\14.28.29333\include\xstddef
; File C:\Program Files (x86)\Microsoft Visual Studio\2019\Community\VC\Tools\MSVC\14.28.29333\include\xstring
;	COMDAT ?_Myptr@?$_String_val@U?$_Simple_types@D@std@@@std@@QAEPADXZ
_TEXT	SEGMENT
__Ptr$ = -20						; size = 4
__Result$ = -16						; size = 4
tv76 = -12						; size = 4
_this$ = -8						; size = 4
$T1 = -1						; size = 1
?_Myptr@?$_String_val@U?$_Simple_types@D@std@@@std@@QAEPADXZ PROC ; std::_String_val<std::_Simple_types<char> >::_Myptr, COMDAT
; _this$ = ecx

; 2208 :     value_type* _Myptr() noexcept {

  00000	55		 push	 ebp
  00001	8b ec		 mov	 ebp, esp
  00003	83 ec 14	 sub	 esp, 20			; 00000014H
  00006	89 4d f8	 mov	 DWORD PTR _this$[ebp], ecx

; 2209 :         value_type* _Result = _Bx._Buf;

  00009	8b 45 f8	 mov	 eax, DWORD PTR _this$[ebp]
  0000c	89 45 f0	 mov	 DWORD PTR __Result$[ebp], eax

; 2227 :         return _BUF_SIZE <= _Myres;

  0000f	8b 45 f8	 mov	 eax, DWORD PTR _this$[ebp]
  00012	83 78 14 10	 cmp	 DWORD PTR [eax+20], 16	; 00000010H
  00016	72 09		 jb	 SHORT $LN6@Myptr
  00018	c7 45 f4 01 00
	00 00		 mov	 DWORD PTR tv76[ebp], 1
  0001f	eb 04		 jmp	 SHORT $LN7@Myptr
$LN6@Myptr:
  00021	83 65 f4 00	 and	 DWORD PTR tv76[ebp], 0
$LN7@Myptr:
  00025	8a 45 f4	 mov	 al, BYTE PTR tv76[ebp]
  00028	88 45 ff	 mov	 BYTE PTR $T1[ebp], al

; 2210 :         if (_Large_string_engaged()) {

  0002b	0f b6 45 ff	 movzx	 eax, BYTE PTR $T1[ebp]
  0002f	85 c0		 test	 eax, eax
  00031	74 0e		 je	 SHORT $LN2@Myptr

; 2211 :             _Result = _Unfancy(_Bx._Ptr);

  00033	8b 45 f8	 mov	 eax, DWORD PTR _this$[ebp]
  00036	8b 00		 mov	 eax, DWORD PTR [eax]
  00038	89 45 ec	 mov	 DWORD PTR __Ptr$[ebp], eax
; File C:\Program Files (x86)\Microsoft Visual Studio\2019\Community\VC\Tools\MSVC\14.28.29333\include\xstddef

; 289  :     return _Ptr;

  0003b	8b 45 ec	 mov	 eax, DWORD PTR __Ptr$[ebp]
  0003e	89 45 f0	 mov	 DWORD PTR __Result$[ebp], eax
$LN2@Myptr:
; File C:\Program Files (x86)\Microsoft Visual Studio\2019\Community\VC\Tools\MSVC\14.28.29333\include\xstring

; 2214 :         return _Result;

  00041	8b 45 f0	 mov	 eax, DWORD PTR __Result$[ebp]

; 2215 :     }

  00044	c9		 leave
  00045	c3		 ret	 0
?_Myptr@?$_String_val@U?$_Simple_types@D@std@@@std@@QAEPADXZ ENDP ; std::_String_val<std::_Simple_types<char> >::_Myptr
_TEXT	ENDS
; Function compile flags: /Odspy
; File C:\Program Files (x86)\Microsoft Visual Studio\2019\Community\VC\Tools\MSVC\14.28.29333\include\xstring
;	COMDAT ?_Xlen_string@std@@YAXXZ
_TEXT	SEGMENT
?_Xlen_string@std@@YAXXZ PROC				; std::_Xlen_string, COMDAT

; 2274 : [[noreturn]] inline void _Xlen_string() {

  00000	55		 push	 ebp
  00001	8b ec		 mov	 ebp, esp

; 2275 :     _Xlength_error("string too long");

  00003	68 00 00 00 00	 push	 OFFSET ??_C@_0BA@JFNIOLAK@string?5too?5long@
  00008	e8 00 00 00 00	 call	 ?_Xlength_error@std@@YAXPBD@Z ; std::_Xlength_error
$LN2@Xlen_strin:

; 2276 : }

  0000d	5d		 pop	 ebp
  0000e	c3		 ret	 0
?_Xlen_string@std@@YAXXZ ENDP				; std::_Xlen_string
_TEXT	ENDS
; Function compile flags: /Odspy
; File C:\Program Files (x86)\Microsoft Visual Studio\2019\Community\VC\Tools\MSVC\14.28.29333\include\xmemory
;	COMDAT ?_Adjust_manually_vector_aligned@std@@YAXAAPAXAAI@Z
_TEXT	SEGMENT
__Min_back_shift$ = -16					; size = 4
__Ptr_user$ = -12					; size = 4
__Ptr_container$ = -8					; size = 4
__Back_shift$ = -4					; size = 4
__Ptr$ = 8						; size = 4
__Bytes$ = 12						; size = 4
?_Adjust_manually_vector_aligned@std@@YAXAAPAXAAI@Z PROC ; std::_Adjust_manually_vector_aligned, COMDAT

; 132  : inline void _Adjust_manually_vector_aligned(void*& _Ptr, size_t& _Bytes) {

  00000	55		 push	 ebp
  00001	8b ec		 mov	 ebp, esp
  00003	83 ec 10	 sub	 esp, 16			; 00000010H

; 133  :     // adjust parameters from _Allocate_manually_vector_aligned to pass to operator delete
; 134  :     _Bytes += _Non_user_size;

  00006	8b 45 0c	 mov	 eax, DWORD PTR __Bytes$[ebp]
  00009	8b 00		 mov	 eax, DWORD PTR [eax]
  0000b	83 c0 23	 add	 eax, 35			; 00000023H
  0000e	8b 4d 0c	 mov	 ecx, DWORD PTR __Bytes$[ebp]
  00011	89 01		 mov	 DWORD PTR [ecx], eax

; 135  : 
; 136  :     const uintptr_t* const _Ptr_user = reinterpret_cast<uintptr_t*>(_Ptr);

  00013	8b 45 08	 mov	 eax, DWORD PTR __Ptr$[ebp]
  00016	8b 00		 mov	 eax, DWORD PTR [eax]
  00018	89 45 f4	 mov	 DWORD PTR __Ptr_user$[ebp], eax

; 137  :     const uintptr_t _Ptr_container   = _Ptr_user[-1];

  0001b	6a 04		 push	 4
  0001d	58		 pop	 eax
  0001e	6b c0 ff	 imul	 eax, eax, -1
  00021	8b 4d f4	 mov	 ecx, DWORD PTR __Ptr_user$[ebp]
  00024	8b 04 01	 mov	 eax, DWORD PTR [ecx+eax]
  00027	89 45 f8	 mov	 DWORD PTR __Ptr_container$[ebp], eax

; 138  : 
; 139  :     // If the following asserts, it likely means that we are performing
; 140  :     // an aligned delete on memory coming from an unaligned allocation.
; 141  :     _STL_ASSERT(_Ptr_user[-2] == _Big_allocation_sentinel, "invalid argument");
; 142  : 
; 143  :     // Extra paranoia on aligned allocation/deallocation; ensure _Ptr_container is
; 144  :     // in range [_Min_back_shift, _Non_user_size]
; 145  : #ifdef _DEBUG
; 146  :     constexpr uintptr_t _Min_back_shift = 2 * sizeof(void*);
; 147  : #else // ^^^ _DEBUG ^^^ // vvv !_DEBUG vvv
; 148  :     constexpr uintptr_t _Min_back_shift = sizeof(void*);

  0002a	c7 45 f0 04 00
	00 00		 mov	 DWORD PTR __Min_back_shift$[ebp], 4

; 149  : #endif // _DEBUG
; 150  :     const uintptr_t _Back_shift = reinterpret_cast<uintptr_t>(_Ptr) - _Ptr_container;

  00031	8b 45 08	 mov	 eax, DWORD PTR __Ptr$[ebp]
  00034	8b 00		 mov	 eax, DWORD PTR [eax]
  00036	2b 45 f8	 sub	 eax, DWORD PTR __Ptr_container$[ebp]
  00039	89 45 fc	 mov	 DWORD PTR __Back_shift$[ebp], eax
$LN4@Adjust_man:

; 151  :     _STL_VERIFY(_Back_shift >= _Min_back_shift && _Back_shift <= _Non_user_size, "invalid argument");

  0003c	83 7d fc 04	 cmp	 DWORD PTR __Back_shift$[ebp], 4
  00040	72 08		 jb	 SHORT $LN7@Adjust_man
  00042	83 7d fc 23	 cmp	 DWORD PTR __Back_shift$[ebp], 35 ; 00000023H
  00046	77 02		 ja	 SHORT $LN7@Adjust_man
  00048	eb 09		 jmp	 SHORT $LN2@Adjust_man
$LN7@Adjust_man:
  0004a	e8 00 00 00 00	 call	 __invalid_parameter_noinfo_noreturn
  0004f	33 c0		 xor	 eax, eax
  00051	75 f7		 jne	 SHORT $LN7@Adjust_man
$LN2@Adjust_man:
  00053	33 c0		 xor	 eax, eax
  00055	75 e5		 jne	 SHORT $LN4@Adjust_man

; 152  :     _Ptr = reinterpret_cast<void*>(_Ptr_container);

  00057	8b 45 08	 mov	 eax, DWORD PTR __Ptr$[ebp]
  0005a	8b 4d f8	 mov	 ecx, DWORD PTR __Ptr_container$[ebp]
  0005d	89 08		 mov	 DWORD PTR [eax], ecx
$LN10@Adjust_man:

; 153  : }

  0005f	c9		 leave
  00060	c3		 ret	 0
?_Adjust_manually_vector_aligned@std@@YAXAAPAXAAI@Z ENDP ; std::_Adjust_manually_vector_aligned
_TEXT	ENDS
; Function compile flags: /Odspy
; File C:\Program Files (x86)\Microsoft Visual Studio\2019\Community\VC\Tools\MSVC\14.28.29333\include\exception
;	COMDAT ?_Throw_bad_array_new_length@std@@YAXXZ
_TEXT	SEGMENT
$T1 = -12						; size = 12
?_Throw_bad_array_new_length@std@@YAXXZ PROC		; std::_Throw_bad_array_new_length, COMDAT

; 320  : [[noreturn]] inline void _Throw_bad_array_new_length() {

  00000	55		 push	 ebp
  00001	8b ec		 mov	 ebp, esp
  00003	83 ec 0c	 sub	 esp, 12			; 0000000cH

; 321  :     _THROW(bad_array_new_length{});

  00006	8d 4d f4	 lea	 ecx, DWORD PTR $T1[ebp]
  00009	e8 00 00 00 00	 call	 ??0bad_array_new_length@std@@QAE@XZ ; std::bad_array_new_length::bad_array_new_length
  0000e	68 00 00 00 00	 push	 OFFSET __TI3?AVbad_array_new_length@std@@
  00013	8d 45 f4	 lea	 eax, DWORD PTR $T1[ebp]
  00016	50		 push	 eax
  00017	e8 00 00 00 00	 call	 __CxxThrowException@8
$LN2@Throw_bad_:

; 322  : }

  0001c	c9		 leave
  0001d	c3		 ret	 0
?_Throw_bad_array_new_length@std@@YAXXZ ENDP		; std::_Throw_bad_array_new_length
_TEXT	ENDS
; Function compile flags: /Odspy
; File C:\Program Files (x86)\Microsoft Visual Studio\2019\Community\VC\Tools\MSVC\14.28.29333\include\vcruntime_exception.h
;	COMDAT ??_Gbad_array_new_length@std@@UAEPAXI@Z
_TEXT	SEGMENT
_this$ = -4						; size = 4
___flags$ = 8						; size = 4
??_Gbad_array_new_length@std@@UAEPAXI@Z PROC		; std::bad_array_new_length::`scalar deleting destructor', COMDAT
; _this$ = ecx
  00000	55		 push	 ebp
  00001	8b ec		 mov	 ebp, esp
  00003	51		 push	 ecx
  00004	89 4d fc	 mov	 DWORD PTR _this$[ebp], ecx

; 89   :     {

  00007	8b 45 fc	 mov	 eax, DWORD PTR _this$[ebp]
  0000a	c7 00 00 00 00
	00		 mov	 DWORD PTR [eax], OFFSET ??_7exception@std@@6B@

; 90   :         __std_exception_destroy(&_Data);

  00010	8b 45 fc	 mov	 eax, DWORD PTR _this$[ebp]
  00013	83 c0 04	 add	 eax, 4
  00016	50		 push	 eax
  00017	e8 00 00 00 00	 call	 ___std_exception_destroy
  0001c	59		 pop	 ecx
  0001d	8b 45 08	 mov	 eax, DWORD PTR ___flags$[ebp]
  00020	83 e0 01	 and	 eax, 1
  00023	74 0c		 je	 SHORT $LN2@scalar
  00025	6a 0c		 push	 12			; 0000000cH
  00027	ff 75 fc	 push	 DWORD PTR _this$[ebp]
  0002a	e8 00 00 00 00	 call	 ??3@YAXPAXI@Z		; operator delete
  0002f	59		 pop	 ecx
  00030	59		 pop	 ecx
$LN2@scalar:
  00031	8b 45 fc	 mov	 eax, DWORD PTR _this$[ebp]
  00034	c9		 leave
  00035	c2 04 00	 ret	 4
??_Gbad_array_new_length@std@@UAEPAXI@Z ENDP		; std::bad_array_new_length::`scalar deleting destructor'
_TEXT	ENDS
; Function compile flags: /Odspy
;	COMDAT ??0bad_array_new_length@std@@QAE@ABV01@@Z
_TEXT	SEGMENT
_this$ = -4						; size = 4
___that$ = 8						; size = 4
??0bad_array_new_length@std@@QAE@ABV01@@Z PROC		; std::bad_array_new_length::bad_array_new_length, COMDAT
; _this$ = ecx
  00000	55		 push	 ebp
  00001	8b ec		 mov	 ebp, esp
  00003	51		 push	 ecx
  00004	89 4d fc	 mov	 DWORD PTR _this$[ebp], ecx
  00007	ff 75 08	 push	 DWORD PTR ___that$[ebp]
  0000a	8b 4d fc	 mov	 ecx, DWORD PTR _this$[ebp]
  0000d	e8 00 00 00 00	 call	 ??0exception@std@@QAE@ABV01@@Z ; std::exception::exception
  00012	8b 45 fc	 mov	 eax, DWORD PTR _this$[ebp]
  00015	c7 00 00 00 00
	00		 mov	 DWORD PTR [eax], OFFSET ??_7bad_alloc@std@@6B@
  0001b	8b 45 fc	 mov	 eax, DWORD PTR _this$[ebp]
  0001e	c7 00 00 00 00
	00		 mov	 DWORD PTR [eax], OFFSET ??_7bad_array_new_length@std@@6B@
  00024	8b 45 fc	 mov	 eax, DWORD PTR _this$[ebp]
  00027	c9		 leave
  00028	c2 04 00	 ret	 4
??0bad_array_new_length@std@@QAE@ABV01@@Z ENDP		; std::bad_array_new_length::bad_array_new_length
_TEXT	ENDS
; Function compile flags: /Odspy
; File C:\Program Files (x86)\Microsoft Visual Studio\2019\Community\VC\Tools\MSVC\14.28.29333\include\vcruntime_exception.h
;	COMDAT ??1bad_array_new_length@std@@UAE@XZ
_TEXT	SEGMENT
_this$ = -4						; size = 4
??1bad_array_new_length@std@@UAE@XZ PROC		; std::bad_array_new_length::~bad_array_new_length, COMDAT
; _this$ = ecx
  00000	55		 push	 ebp
  00001	8b ec		 mov	 ebp, esp
  00003	51		 push	 ecx
  00004	89 4d fc	 mov	 DWORD PTR _this$[ebp], ecx

; 89   :     {

  00007	8b 45 fc	 mov	 eax, DWORD PTR _this$[ebp]
  0000a	c7 00 00 00 00
	00		 mov	 DWORD PTR [eax], OFFSET ??_7exception@std@@6B@

; 90   :         __std_exception_destroy(&_Data);

  00010	8b 45 fc	 mov	 eax, DWORD PTR _this$[ebp]
  00013	83 c0 04	 add	 eax, 4
  00016	50		 push	 eax
  00017	e8 00 00 00 00	 call	 ___std_exception_destroy
  0001c	59		 pop	 ecx
  0001d	c9		 leave
  0001e	c3		 ret	 0
??1bad_array_new_length@std@@UAE@XZ ENDP		; std::bad_array_new_length::~bad_array_new_length
_TEXT	ENDS
; Function compile flags: /Odspy
; File C:\Program Files (x86)\Microsoft Visual Studio\2019\Community\VC\Tools\MSVC\14.28.29333\include\vcruntime_exception.h
;	COMDAT ??0bad_array_new_length@std@@QAE@XZ
_TEXT	SEGMENT
_this$ = -4						; size = 4
??0bad_array_new_length@std@@QAE@XZ PROC		; std::bad_array_new_length::bad_array_new_length, COMDAT
; _this$ = ecx

; 141  :     {

  00000	55		 push	 ebp
  00001	8b ec		 mov	 ebp, esp
  00003	51		 push	 ecx
  00004	89 4d fc	 mov	 DWORD PTR _this$[ebp], ecx

; 66   :     {

  00007	8b 45 fc	 mov	 eax, DWORD PTR _this$[ebp]
  0000a	c7 00 00 00 00
	00		 mov	 DWORD PTR [eax], OFFSET ??_7exception@std@@6B@

; 65   :         : _Data()

  00010	33 c0		 xor	 eax, eax
  00012	8b 4d fc	 mov	 ecx, DWORD PTR _this$[ebp]
  00015	83 c1 04	 add	 ecx, 4
  00018	89 01		 mov	 DWORD PTR [ecx], eax
  0001a	89 41 04	 mov	 DWORD PTR [ecx+4], eax

; 67   :         _Data._What = _Message;

  0001d	8b 45 fc	 mov	 eax, DWORD PTR _this$[ebp]
  00020	c7 40 04 00 00
	00 00		 mov	 DWORD PTR [eax+4], OFFSET ??_C@_0BF@KINCDENJ@bad?5array?5new?5length@

; 130  :     {

  00027	8b 45 fc	 mov	 eax, DWORD PTR _this$[ebp]
  0002a	c7 00 00 00 00
	00		 mov	 DWORD PTR [eax], OFFSET ??_7bad_alloc@std@@6B@

; 141  :     {

  00030	8b 45 fc	 mov	 eax, DWORD PTR _this$[ebp]
  00033	c7 00 00 00 00
	00		 mov	 DWORD PTR [eax], OFFSET ??_7bad_array_new_length@std@@6B@

; 142  :     }

  00039	8b 45 fc	 mov	 eax, DWORD PTR _this$[ebp]
  0003c	c9		 leave
  0003d	c3		 ret	 0
??0bad_array_new_length@std@@QAE@XZ ENDP		; std::bad_array_new_length::bad_array_new_length
_TEXT	ENDS
; Function compile flags: /Odspy
; File C:\Program Files (x86)\Microsoft Visual Studio\2019\Community\VC\Tools\MSVC\14.28.29333\include\vcruntime_exception.h
;	COMDAT ??_Gbad_alloc@std@@UAEPAXI@Z
_TEXT	SEGMENT
_this$ = -4						; size = 4
___flags$ = 8						; size = 4
??_Gbad_alloc@std@@UAEPAXI@Z PROC			; std::bad_alloc::`scalar deleting destructor', COMDAT
; _this$ = ecx
  00000	55		 push	 ebp
  00001	8b ec		 mov	 ebp, esp
  00003	51		 push	 ecx
  00004	89 4d fc	 mov	 DWORD PTR _this$[ebp], ecx

; 89   :     {

  00007	8b 45 fc	 mov	 eax, DWORD PTR _this$[ebp]
  0000a	c7 00 00 00 00
	00		 mov	 DWORD PTR [eax], OFFSET ??_7exception@std@@6B@

; 90   :         __std_exception_destroy(&_Data);

  00010	8b 45 fc	 mov	 eax, DWORD PTR _this$[ebp]
  00013	83 c0 04	 add	 eax, 4
  00016	50		 push	 eax
  00017	e8 00 00 00 00	 call	 ___std_exception_destroy
  0001c	59		 pop	 ecx
  0001d	8b 45 08	 mov	 eax, DWORD PTR ___flags$[ebp]
  00020	83 e0 01	 and	 eax, 1
  00023	74 0c		 je	 SHORT $LN2@scalar
  00025	6a 0c		 push	 12			; 0000000cH
  00027	ff 75 fc	 push	 DWORD PTR _this$[ebp]
  0002a	e8 00 00 00 00	 call	 ??3@YAXPAXI@Z		; operator delete
  0002f	59		 pop	 ecx
  00030	59		 pop	 ecx
$LN2@scalar:
  00031	8b 45 fc	 mov	 eax, DWORD PTR _this$[ebp]
  00034	c9		 leave
  00035	c2 04 00	 ret	 4
??_Gbad_alloc@std@@UAEPAXI@Z ENDP			; std::bad_alloc::`scalar deleting destructor'
_TEXT	ENDS
; Function compile flags: /Odspy
;	COMDAT ??0bad_alloc@std@@QAE@ABV01@@Z
_TEXT	SEGMENT
_this$ = -4						; size = 4
___that$ = 8						; size = 4
??0bad_alloc@std@@QAE@ABV01@@Z PROC			; std::bad_alloc::bad_alloc, COMDAT
; _this$ = ecx
  00000	55		 push	 ebp
  00001	8b ec		 mov	 ebp, esp
  00003	51		 push	 ecx
  00004	89 4d fc	 mov	 DWORD PTR _this$[ebp], ecx
  00007	ff 75 08	 push	 DWORD PTR ___that$[ebp]
  0000a	8b 4d fc	 mov	 ecx, DWORD PTR _this$[ebp]
  0000d	e8 00 00 00 00	 call	 ??0exception@std@@QAE@ABV01@@Z ; std::exception::exception
  00012	8b 45 fc	 mov	 eax, DWORD PTR _this$[ebp]
  00015	c7 00 00 00 00
	00		 mov	 DWORD PTR [eax], OFFSET ??_7bad_alloc@std@@6B@
  0001b	8b 45 fc	 mov	 eax, DWORD PTR _this$[ebp]
  0001e	c9		 leave
  0001f	c2 04 00	 ret	 4
??0bad_alloc@std@@QAE@ABV01@@Z ENDP			; std::bad_alloc::bad_alloc
_TEXT	ENDS
; Function compile flags: /Odspy
; File C:\Program Files (x86)\Microsoft Visual Studio\2019\Community\VC\Tools\MSVC\14.28.29333\include\vcruntime_exception.h
;	COMDAT ??_Gexception@std@@UAEPAXI@Z
_TEXT	SEGMENT
_this$ = -4						; size = 4
___flags$ = 8						; size = 4
??_Gexception@std@@UAEPAXI@Z PROC			; std::exception::`scalar deleting destructor', COMDAT
; _this$ = ecx
  00000	55		 push	 ebp
  00001	8b ec		 mov	 ebp, esp
  00003	51		 push	 ecx
  00004	89 4d fc	 mov	 DWORD PTR _this$[ebp], ecx

; 89   :     {

  00007	8b 45 fc	 mov	 eax, DWORD PTR _this$[ebp]
  0000a	c7 00 00 00 00
	00		 mov	 DWORD PTR [eax], OFFSET ??_7exception@std@@6B@

; 90   :         __std_exception_destroy(&_Data);

  00010	8b 45 fc	 mov	 eax, DWORD PTR _this$[ebp]
  00013	83 c0 04	 add	 eax, 4
  00016	50		 push	 eax
  00017	e8 00 00 00 00	 call	 ___std_exception_destroy
  0001c	59		 pop	 ecx
  0001d	8b 45 08	 mov	 eax, DWORD PTR ___flags$[ebp]
  00020	83 e0 01	 and	 eax, 1
  00023	74 0c		 je	 SHORT $LN2@scalar
  00025	6a 0c		 push	 12			; 0000000cH
  00027	ff 75 fc	 push	 DWORD PTR _this$[ebp]
  0002a	e8 00 00 00 00	 call	 ??3@YAXPAXI@Z		; operator delete
  0002f	59		 pop	 ecx
  00030	59		 pop	 ecx
$LN2@scalar:
  00031	8b 45 fc	 mov	 eax, DWORD PTR _this$[ebp]
  00034	c9		 leave
  00035	c2 04 00	 ret	 4
??_Gexception@std@@UAEPAXI@Z ENDP			; std::exception::`scalar deleting destructor'
_TEXT	ENDS
; Function compile flags: /Odspy
; File C:\Program Files (x86)\Microsoft Visual Studio\2019\Community\VC\Tools\MSVC\14.28.29333\include\vcruntime_exception.h
;	COMDAT ?what@exception@std@@UBEPBDXZ
_TEXT	SEGMENT
tv69 = -8						; size = 4
_this$ = -4						; size = 4
?what@exception@std@@UBEPBDXZ PROC			; std::exception::what, COMDAT
; _this$ = ecx

; 94   :     {

  00000	55		 push	 ebp
  00001	8b ec		 mov	 ebp, esp
  00003	51		 push	 ecx
  00004	51		 push	 ecx
  00005	89 4d fc	 mov	 DWORD PTR _this$[ebp], ecx

; 95   :         return _Data._What ? _Data._What : "Unknown exception";

  00008	8b 45 fc	 mov	 eax, DWORD PTR _this$[ebp]
  0000b	83 78 04 00	 cmp	 DWORD PTR [eax+4], 0
  0000f	74 0b		 je	 SHORT $LN3@what
  00011	8b 45 fc	 mov	 eax, DWORD PTR _this$[ebp]
  00014	8b 40 04	 mov	 eax, DWORD PTR [eax+4]
  00017	89 45 f8	 mov	 DWORD PTR tv69[ebp], eax
  0001a	eb 07		 jmp	 SHORT $LN4@what
$LN3@what:
  0001c	c7 45 f8 00 00
	00 00		 mov	 DWORD PTR tv69[ebp], OFFSET ??_C@_0BC@EOODALEL@Unknown?5exception@
$LN4@what:
  00023	8b 45 f8	 mov	 eax, DWORD PTR tv69[ebp]

; 96   :     }

  00026	c9		 leave
  00027	c3		 ret	 0
?what@exception@std@@UBEPBDXZ ENDP			; std::exception::what
_TEXT	ENDS
; Function compile flags: /Odspy
; File C:\Program Files (x86)\Microsoft Visual Studio\2019\Community\VC\Tools\MSVC\14.28.29333\include\vcruntime_exception.h
;	COMDAT ??0exception@std@@QAE@ABV01@@Z
_TEXT	SEGMENT
_this$ = -4						; size = 4
__Other$ = 8						; size = 4
??0exception@std@@QAE@ABV01@@Z PROC			; std::exception::exception, COMDAT
; _this$ = ecx

; 72   :     {

  00000	55		 push	 ebp
  00001	8b ec		 mov	 ebp, esp
  00003	51		 push	 ecx
  00004	89 4d fc	 mov	 DWORD PTR _this$[ebp], ecx
  00007	8b 45 fc	 mov	 eax, DWORD PTR _this$[ebp]
  0000a	c7 00 00 00 00
	00		 mov	 DWORD PTR [eax], OFFSET ??_7exception@std@@6B@

; 71   :         : _Data()

  00010	33 c0		 xor	 eax, eax
  00012	8b 4d fc	 mov	 ecx, DWORD PTR _this$[ebp]
  00015	83 c1 04	 add	 ecx, 4
  00018	89 01		 mov	 DWORD PTR [ecx], eax
  0001a	89 41 04	 mov	 DWORD PTR [ecx+4], eax

; 73   :         __std_exception_copy(&_Other._Data, &_Data);

  0001d	8b 45 fc	 mov	 eax, DWORD PTR _this$[ebp]
  00020	83 c0 04	 add	 eax, 4
  00023	50		 push	 eax
  00024	8b 45 08	 mov	 eax, DWORD PTR __Other$[ebp]
  00027	83 c0 04	 add	 eax, 4
  0002a	50		 push	 eax
  0002b	e8 00 00 00 00	 call	 ___std_exception_copy
  00030	59		 pop	 ecx
  00031	59		 pop	 ecx

; 74   :     }

  00032	8b 45 fc	 mov	 eax, DWORD PTR _this$[ebp]
  00035	c9		 leave
  00036	c2 04 00	 ret	 4
??0exception@std@@QAE@ABV01@@Z ENDP			; std::exception::exception
_TEXT	ENDS
END
