; Listing generated by Microsoft (R) Optimizing Compiler Version 19.28.29335.0 

	TITLE	D:\Metin2 Server Files\mainline\SRC_2014\Metin2Client\eterPythonLib\PythonGraphicModule.cpp
	.686P
	.XMM
	include listing.inc
	.model	flat

INCLUDELIB LIBCMT
INCLUDELIB OLDNAMES

PUBLIC	___local_stdio_printf_options
PUBLIC	_sprintf
PUBLIC	__snprintf
PUBLIC	?initgrp@@YAXXZ					; initgrp
PUBLIC	?grpCreateTextBar@@YAPAU_object@@PAU1@0@Z	; grpCreateTextBar
PUBLIC	?grpCreateBigTextBar@@YAPAU_object@@PAU1@0@Z	; grpCreateBigTextBar
PUBLIC	?grpDestroyTextBar@@YAPAU_object@@PAU1@0@Z	; grpDestroyTextBar
PUBLIC	?grpRenderTextBar@@YAPAU_object@@PAU1@0@Z	; grpRenderTextBar
PUBLIC	?grpTextBarSetTextColor@@YAPAU_object@@PAU1@0@Z	; grpTextBarSetTextColor
PUBLIC	?grpTextBarGetTextExtent@@YAPAU_object@@PAU1@0@Z ; grpTextBarGetTextExtent
PUBLIC	?grpTextBarTextOut@@YAPAU_object@@PAU1@0@Z	; grpTextBarTextOut
PUBLIC	?grpClearTextBar@@YAPAU_object@@PAU1@0@Z	; grpClearTextBar
PUBLIC	?grpSetTextBarClipRect@@YAPAU_object@@PAU1@0@Z	; grpSetTextBarClipRect
PUBLIC	?grpCulling@@YAPAU_object@@PAU1@0@Z		; grpCulling
PUBLIC	?grpInitScreenEffect@@YAPAU_object@@PAU1@0@Z	; grpInitScreenEffect
PUBLIC	?grpClearDepthBuffer@@YAPAU_object@@PAU1@0@Z	; grpClearDepthBuffer
PUBLIC	?grpPushState@@YAPAU_object@@PAU1@0@Z		; grpPushState
PUBLIC	?grpPopState@@YAPAU_object@@PAU1@0@Z		; grpPopState
PUBLIC	?grpPushMatrix@@YAPAU_object@@PAU1@0@Z		; grpPushMatrix
PUBLIC	?grpPopMatrix@@YAPAU_object@@PAU1@0@Z		; grpPopMatrix
PUBLIC	?grpTranslate@@YAPAU_object@@PAU1@0@Z		; grpTranslate
PUBLIC	?grpRotate@@YAPAU_object@@PAU1@0@Z		; grpRotate
PUBLIC	?grpSetColorRenderState@@YAPAU_object@@PAU1@0@Z	; grpSetColorRenderState
PUBLIC	?grpSetAroundCamera@@YAPAU_object@@PAU1@0@Z	; grpSetAroundCamera
PUBLIC	?grpSetPositionCamera@@YAPAU_object@@PAU1@0@Z	; grpSetPositionCamera
PUBLIC	?grpSetEyeCamera@@YAPAU_object@@PAU1@0@Z	; grpSetEyeCamera
PUBLIC	?grpSetPerspective@@YAPAU_object@@PAU1@0@Z	; grpSetPerspective
PUBLIC	?grpSetOrtho2D@@YAPAU_object@@PAU1@0@Z		; grpSetOrtho2D
PUBLIC	?grpSetOrtho3D@@YAPAU_object@@PAU1@0@Z		; grpSetOrtho3D
PUBLIC	?grpGenerateColor@@YAPAU_object@@PAU1@0@Z	; grpGenerateColor
PUBLIC	?grpSetColor@@YAPAU_object@@PAU1@0@Z		; grpSetColor
PUBLIC	?grpSetAlpha@@YAPAU_object@@PAU1@0@Z		; grpSetAlpha
PUBLIC	?grpGetCursorPosition3d@@YAPAU_object@@PAU1@0@Z	; grpGetCursorPosition3d
PUBLIC	?grpSetCursorPosition@@YAPAU_object@@PAU1@0@Z	; grpSetCursorPosition
PUBLIC	?grpRenderLine@@YAPAU_object@@PAU1@0@Z		; grpRenderLine
PUBLIC	?grpRenderRoundBox@@YAPAU_object@@PAU1@0@Z	; grpRenderRoundBox
PUBLIC	?grpRenderBox@@YAPAU_object@@PAU1@0@Z		; grpRenderBox
PUBLIC	?grpRenderBar@@YAPAU_object@@PAU1@0@Z		; grpRenderBar
PUBLIC	?grpRenderCube@@YAPAU_object@@PAU1@0@Z		; grpRenderCube
PUBLIC	?grpRenderBar3d@@YAPAU_object@@PAU1@0@Z		; grpRenderBar3d
PUBLIC	?grpRenderGradationBar@@YAPAU_object@@PAU1@0@Z	; grpRenderGradationBar
PUBLIC	?grpRenderDownButton@@YAPAU_object@@PAU1@0@Z	; grpRenderDownButton
PUBLIC	?grpRenderUpButton@@YAPAU_object@@PAU1@0@Z	; grpRenderUpButton
PUBLIC	?grpRenderBox3d@@YAPAU_object@@PAU1@0@Z		; grpRenderBox3d
PUBLIC	?grpSetClearColor@@YAPAU_object@@PAU1@0@Z	; grpSetClearColor
PUBLIC	?grpSetDiffuseColor@@YAPAU_object@@PAU1@0@Z	; grpSetDiffuseColor
PUBLIC	?grpIdentity@@YAPAU_object@@PAU1@0@Z		; grpIdentity
PUBLIC	?grpGetAvailableMemory@@YAPAU_object@@PAU1@0@Z	; grpGetAvailableMemory
PUBLIC	?grpSaveScreenShotToPath@@YAPAU_object@@PAU1@0@Z ; grpSaveScreenShotToPath
PUBLIC	?grpSaveScreenShot@@YAPAU_object@@PAU1@0@Z	; grpSaveScreenShot
PUBLIC	?grpSetGamma@@YAPAU_object@@PAU1@0@Z		; grpSetGamma
PUBLIC	?grpSetInterfaceRenderState@@YAPAU_object@@PAU1@0@Z ; grpSetInterfaceRenderState
PUBLIC	?grpSetGameRenderState@@YAPAU_object@@PAU1@0@Z	; grpSetGameRenderState
PUBLIC	?grpSetViewport@@YAPAU_object@@PAU1@0@Z		; grpSetViewport
PUBLIC	?grpRestoreViewport@@YAPAU_object@@PAU1@0@Z	; grpRestoreViewport
PUBLIC	?grpSetOmniLight@@YAPAU_object@@PAU1@0@Z	; grpSetOmniLight
PUBLIC	?grpGetCameraPosition@@YAPAU_object@@PAU1@0@Z	; grpGetCameraPosition
PUBLIC	?grpGetTargetPosition@@YAPAU_object@@PAU1@0@Z	; grpGetTargetPosition
PUBLIC	?_OptionsStorage@?1??__local_stdio_printf_options@@9@4_KA ; `__local_stdio_printf_options'::`2'::_OptionsStorage
PUBLIC	??_C@_00CNPNBAHC@@				; `string'
PUBLIC	?ms_singleton@?$CSingleton@VCCullingManager@@@@0PAVCCullingManager@@A ; CSingleton<CCullingManager>::ms_singleton
PUBLIC	?ms_singleton@?$CSingleton@VCPythonGraphic@@@@0PAVCPythonGraphic@@A ; CSingleton<CPythonGraphic>::ms_singleton
PUBLIC	?ms_singleton@?$CSingleton@VCCameraManager@@@@0PAVCCameraManager@@A ; CSingleton<CCameraManager>::ms_singleton
PUBLIC	??_C@_01KBJDNOO@i@				; `string'
PUBLIC	??_C@_02PDIHAGKM@ii@				; `string'
PUBLIC	??_C@_0BG@LCHGAFDO@grp?4Translate?3Wrong?5X@	; `string'
PUBLIC	??_C@_0BG@KLGNDEHP@grp?4Translate?3Wrong?5Y@	; `string'
PUBLIC	??_C@_0BG@IAEAGHLM@grp?4Translate?3Wrong?5Z@	; `string'
PUBLIC	??_C@_01HHGOMJKL@l@				; `string'
PUBLIC	??_C@_05KFOBNLEM@?$CIfff?$CJ@			; `string'
PUBLIC	??_C@_0BM@PKDBOENC@?$CFs?$CF02d?$CF02d_?$CF02d?$CF02d?$CF02d?4jpg@ ; `string'
PUBLIC	??_C@_04JMLDJNEM@?$CIis?$CJ@			; `string'
PUBLIC	??_C@_08KBONKIKA@?2METIN2?2@			; `string'
PUBLIC	??_C@_0CB@MCALMLJH@Failed?5to?5create?5directory?5?$FL?$CFs?$FN@ ; `string'
PUBLIC	??_C@_0BK@BHNKPMOJ@?$CF02d?$CF02d_?$CF02d?$CF02d?$CF02d?4jpg@ ; `string'
PUBLIC	??_C@_03LPALPDIP@fff@				; `string'
PUBLIC	??_C@_0BB@KOODLHHI@InitScreenEffect@		; `string'
PUBLIC	??_C@_07IOLAOMLK@Culling@			; `string'
PUBLIC	??_C@_0BB@IFNDOIJA@ClearDepthBuffer@		; `string'
PUBLIC	??_C@_08DDGPABJB@Identity@			; `string'
PUBLIC	??_C@_0O@MOAEMMO@GenerateColor@			; `string'
PUBLIC	??_C@_08MAKHDLEF@PopState@			; `string'
PUBLIC	??_C@_09MLHDPAPE@PushState@			; `string'
PUBLIC	??_C@_0L@LNHGHMPK@PushMatrix@			; `string'
PUBLIC	??_C@_09BBLCLCL@PopMatrix@			; `string'
PUBLIC	??_C@_09KMILOHFO@Translate@			; `string'
PUBLIC	??_C@_06OLMBOMJH@Rotate@			; `string'
PUBLIC	??_C@_0BE@DBBIDKJI@SetColorRenderState@		; `string'
PUBLIC	??_C@_0BA@DLALGBBE@SetAroundCamera@		; `string'
PUBLIC	??_C@_0BC@FJHFAPLD@SetPositionCamera@		; `string'
PUBLIC	??_C@_0N@PGNLCOBA@SetEyeCamera@			; `string'
PUBLIC	??_C@_0P@BKKFLFGG@SetPerspective@		; `string'
PUBLIC	??_C@_0L@BICFLCML@SetOrtho2d@			; `string'
PUBLIC	??_C@_0L@BJOHNIPM@SetOrtho3d@			; `string'
PUBLIC	??_C@_08GPNJILIJ@SetColor@			; `string'
PUBLIC	??_C@_08BLNOOPGC@SetAlpha@			; `string'
PUBLIC	??_C@_0BA@CAEBLOMF@SetDiffuseColor@		; `string'
PUBLIC	??_C@_0O@JFBMCOI@SetClearColor@			; `string'
PUBLIC	??_C@_0BE@EPLGHCNG@GetCursorPosition3d@		; `string'
PUBLIC	??_C@_0BC@BMJNLHPP@SetCursorPosition@		; `string'
PUBLIC	??_C@_0L@FNOOKKDE@RenderLine@			; `string'
PUBLIC	??_C@_09EDKDBNHL@RenderBox@			; `string'
PUBLIC	??_C@_0P@CKDANCCA@RenderRoundBox@		; `string'
PUBLIC	??_C@_0M@IIHBHKCN@RenderBox3d@			; `string'
PUBLIC	??_C@_09LDNCNIPL@RenderBar@			; `string'
PUBLIC	??_C@_0M@FIPMCECI@RenderBar3d@			; `string'
PUBLIC	??_C@_0BD@CPGFJEEL@RenderGradationBar@		; `string'
PUBLIC	??_C@_0L@MMGLCMKG@RenderCube@			; `string'
PUBLIC	??_C@_0BB@MFONHDMI@RenderDownButton@		; `string'
PUBLIC	??_C@_0P@EGCHHAMC@RenderUpButton@		; `string'
PUBLIC	??_C@_0BD@JHIOAGAP@GetAvailableMemory@		; `string'
PUBLIC	??_C@_0P@PDKBLCOH@SaveScreenShot@		; `string'
PUBLIC	??_C@_0BF@EIHOMNAC@SaveScreenShotToPath@	; `string'
PUBLIC	??_C@_08JBKPIFGH@SetGamma@			; `string'
PUBLIC	??_C@_0BI@MMHBDHLH@SetInterfaceRenderState@	; `string'
PUBLIC	??_C@_0BD@FOOBKHKK@SetGameRenderState@		; `string'
PUBLIC	??_C@_0M@JGBKHEPF@SetViewport@			; `string'
PUBLIC	??_C@_0BA@INPFCPDH@RestoreViewport@		; `string'
PUBLIC	??_C@_0N@OEMNGPDB@SetOmniLight@			; `string'
PUBLIC	??_C@_0BC@JPCBAHEC@GetCameraPosition@		; `string'
PUBLIC	??_C@_0BC@HJEEOBID@GetTargetPosition@		; `string'
PUBLIC	??_C@_0O@IHAJFDDM@CreateTextBar@		; `string'
PUBLIC	??_C@_0BB@NHMJCAIE@CreateBigTextBar@		; `string'
PUBLIC	??_C@_0P@BMMFBFMK@DestroyTextBar@		; `string'
PUBLIC	??_C@_0O@LFMIODIG@RenderTextBar@		; `string'
PUBLIC	??_C@_0P@LEIHKEKD@TextBarTextOut@		; `string'
PUBLIC	??_C@_0BE@JIGPMAIC@TextBarSetTextColor@		; `string'
PUBLIC	??_C@_0BF@GAHBODGD@TextBarGetTextExtent@	; `string'
PUBLIC	??_C@_0N@JKKHKGPO@ClearTextBar@			; `string'
PUBLIC	??_C@_0BD@IHMMAKBI@SetTextBarClipRect@		; `string'
PUBLIC	??_C@_03CKJB@grp@				; `string'
PUBLIC	__real@3f800000
PUBLIC	__real@40000000
PUBLIC	__real@40400000
PUBLIC	__real@40800000
PUBLIC	__xmm@41f00000000000000000000000000000
EXTRN	??2@YAPAXI@Z:PROC				; operator new
EXTRN	??3@YAXPAXI@Z:PROC				; operator delete
EXTRN	_strcat:PROC
EXTRN	_strlen:PROC
EXTRN	__imp__CreateDirectoryA@8:PROC
EXTRN	___stdio_common_vsprintf:PROC
EXTRN	__localtime64:PROC
EXTRN	__time64:PROC
EXTRN	?TraceError@@YAXPBDZZ:PROC			; TraceError
EXTRN	__access:PROC
EXTRN	__imp__Py_BuildValue:PROC
EXTRN	__imp__Py_InitModule4:PROC
EXTRN	?PyTuple_GetString@@YA_NPAU_object@@HPAPAD@Z:PROC ; PyTuple_GetString
EXTRN	?PyTuple_GetInteger@@YA_NPAU_object@@HPAH@Z:PROC ; PyTuple_GetInteger
EXTRN	?PyTuple_GetFloat@@YA_NPAU_object@@HPAM@Z:PROC	; PyTuple_GetFloat
EXTRN	?Py_BuildException@@YAPAU_object@@PBDZZ:PROC	; Py_BuildException
EXTRN	?Py_BadArgument@@YAPAU_object@@XZ:PROC		; Py_BadArgument
EXTRN	?Py_BuildNone@@YAPAU_object@@XZ:PROC		; Py_BuildNone
EXTRN	?SetEyeCamera@CGraphicBase@@QAEXMMMMMMMMM@Z:PROC ; CGraphicBase::SetEyeCamera
EXTRN	?SetAroundCamera@CGraphicBase@@QAEXMMMM@Z:PROC	; CGraphicBase::SetAroundCamera
EXTRN	?SetPositionCamera@CGraphicBase@@QAEXMMMMMM@Z:PROC ; CGraphicBase::SetPositionCamera
EXTRN	?SetOrtho2D@CGraphicBase@@QAEXMMM@Z:PROC	; CGraphicBase::SetOrtho2D
EXTRN	?SetOrtho3D@CGraphicBase@@QAEXMMMM@Z:PROC	; CGraphicBase::SetOrtho3D
EXTRN	?SetPerspective@CGraphicBase@@QAEXMMMM@Z:PROC	; CGraphicBase::SetPerspective
EXTRN	?PushMatrix@CGraphicBase@@QAEXXZ:PROC		; CGraphicBase::PushMatrix
EXTRN	?Translate@CGraphicBase@@QAEXMMM@Z:PROC		; CGraphicBase::Translate
EXTRN	?Rotate@CGraphicBase@@QAEXMMMM@Z:PROC		; CGraphicBase::Rotate
EXTRN	?PopMatrix@CGraphicBase@@QAEXXZ:PROC		; CGraphicBase::PopMatrix
EXTRN	?InitScreenEffect@CGraphicBase@@QAEXXZ:PROC	; CGraphicBase::InitScreenEffect
EXTRN	?GetBackBufferSize@CGraphicBase@@SAXPAI0@Z:PROC	; CGraphicBase::GetBackBufferSize
EXTRN	?ClearDepthBuffer@CScreen@@QAEXXZ:PROC		; CScreen::ClearDepthBuffer
EXTRN	?RenderLine2d@CScreen@@QAEXMMMMM@Z:PROC		; CScreen::RenderLine2d
EXTRN	?RenderBox2d@CScreen@@QAEXMMMMM@Z:PROC		; CScreen::RenderBox2d
EXTRN	?RenderBar2d@CScreen@@QAEXMMMMM@Z:PROC		; CScreen::RenderBar2d
EXTRN	?RenderGradationBar2d@CScreen@@QAEXMMMMKKM@Z:PROC ; CScreen::RenderGradationBar2d
EXTRN	?RenderBox3d@CScreen@@QAEXMMMMMM@Z:PROC		; CScreen::RenderBox3d
EXTRN	?RenderBar3d@CScreen@@QAEXMMMMMM@Z:PROC		; CScreen::RenderBar3d
EXTRN	?RenderCube@CScreen@@QAEXMMMMMM@Z:PROC		; CScreen::RenderCube
EXTRN	?SetDiffuseColor@CScreen@@QAEXK@Z:PROC		; CScreen::SetDiffuseColor
EXTRN	?SetDiffuseColor@CScreen@@QAEXMMMM@Z:PROC	; CScreen::SetDiffuseColor
EXTRN	?SetClearColor@CScreen@@QAEXMMMM@Z:PROC		; CScreen::SetClearColor
EXTRN	?GetCursorPosition@CScreen@@QAE_NPAM00@Z:PROC	; CScreen::GetCursorPosition
EXTRN	?Identity@CScreen@@SAXXZ:PROC			; CScreen::Identity
EXTRN	?Process@CCullingManager@@QAEXXZ:PROC		; CCullingManager::Process
EXTRN	?PushState@CPythonGraphic@@QAEXXZ:PROC		; CPythonGraphic::PushState
EXTRN	?PopState@CPythonGraphic@@QAEXXZ:PROC		; CPythonGraphic::PopState
EXTRN	?SetInterfaceRenderState@CPythonGraphic@@QAEXXZ:PROC ; CPythonGraphic::SetInterfaceRenderState
EXTRN	?SetGameRenderState@CPythonGraphic@@QAEXXZ:PROC	; CPythonGraphic::SetGameRenderState
EXTRN	?SetCursorPosition@CPythonGraphic@@QAEXHH@Z:PROC ; CPythonGraphic::SetCursorPosition
EXTRN	?SetOmniLight@CPythonGraphic@@QAEXXZ:PROC	; CPythonGraphic::SetOmniLight
EXTRN	?SetViewport@CPythonGraphic@@QAEXMMMM@Z:PROC	; CPythonGraphic::SetViewport
EXTRN	?RestoreViewport@CPythonGraphic@@QAEXXZ:PROC	; CPythonGraphic::RestoreViewport
EXTRN	?GenerateColor@CPythonGraphic@@QAEJMMMM@Z:PROC	; CPythonGraphic::GenerateColor
EXTRN	?RenderDownButton@CPythonGraphic@@QAEXMMMM@Z:PROC ; CPythonGraphic::RenderDownButton
EXTRN	?RenderUpButton@CPythonGraphic@@QAEXMMMM@Z:PROC	; CPythonGraphic::RenderUpButton
EXTRN	?SaveScreenShot@CPythonGraphic@@QAE_NPBD@Z:PROC	; CPythonGraphic::SaveScreenShot
EXTRN	?GetAvailableMemory@CPythonGraphic@@QAEKXZ:PROC	; CPythonGraphic::GetAvailableMemory
EXTRN	?SetGamma@CPythonGraphic@@QAEXM@Z:PROC		; CPythonGraphic::SetGamma
EXTRN	?GetCurrentCamera@CCameraManager@@QAEPAVCCamera@@XZ:PROC ; CCameraManager::GetCurrentCamera
EXTRN	?Create@CDibBar@@QAE_NPAUHDC__@@KK@Z:PROC	; CDibBar::Create
EXTRN	?SetClipRect@CDibBar@@QAEXABUtagRECT@@@Z:PROC	; CDibBar::SetClipRect
EXTRN	?ClearBar@CDibBar@@QAEXXZ:PROC			; CDibBar::ClearBar
EXTRN	?Render@CDibBar@@QAEXHH@Z:PROC			; CDibBar::Render
EXTRN	??0CTextBar@@QAE@H_N@Z:PROC			; CTextBar::CTextBar
EXTRN	?TextOutA@CTextBar@@QAEXHHPBD@Z:PROC		; CTextBar::TextOutA
EXTRN	?SetTextColor@CTextBar@@QAEXHHH@Z:PROC		; CTextBar::SetTextColor
EXTRN	?GetTextExtent@CTextBar@@QAEXPBDPAUtagSIZE@@@Z:PROC ; CTextBar::GetTextExtent
EXTRN	__imp__SHGetSpecialFolderPathA@16:PROC
EXTRN	@__security_check_cookie@4:PROC
EXTRN	___CxxFrameHandler3:PROC
EXTRN	___security_cookie:DWORD
EXTRN	__fltused:DWORD
;	COMDAT ?_OptionsStorage@?1??__local_stdio_printf_options@@9@4_KA
_BSS	SEGMENT
?_OptionsStorage@?1??__local_stdio_printf_options@@9@4_KA DQ 01H DUP (?) ; `__local_stdio_printf_options'::`2'::_OptionsStorage
_BSS	ENDS
;	COMDAT ?ms_singleton@?$CSingleton@VCCullingManager@@@@0PAVCCullingManager@@A
_BSS	SEGMENT
?ms_singleton@?$CSingleton@VCCullingManager@@@@0PAVCCullingManager@@A DD 01H DUP (?) ; CSingleton<CCullingManager>::ms_singleton
_BSS	ENDS
;	COMDAT ?ms_singleton@?$CSingleton@VCPythonGraphic@@@@0PAVCPythonGraphic@@A
_BSS	SEGMENT
?ms_singleton@?$CSingleton@VCPythonGraphic@@@@0PAVCPythonGraphic@@A DD 01H DUP (?) ; CSingleton<CPythonGraphic>::ms_singleton
_BSS	ENDS
;	COMDAT ?ms_singleton@?$CSingleton@VCCameraManager@@@@0PAVCCameraManager@@A
_BSS	SEGMENT
?ms_singleton@?$CSingleton@VCCameraManager@@@@0PAVCCameraManager@@A DD 01H DUP (?) ; CSingleton<CCameraManager>::ms_singleton
_BSS	ENDS
;	COMDAT __xmm@41f00000000000000000000000000000
CONST	SEGMENT
__xmm@41f00000000000000000000000000000 DB 00H, 00H, 00H, 00H, 00H, 00H, 00H
	DB	00H, 00H, 00H, 00H, 00H, 00H, 00H, 0f0H, 'A'
CONST	ENDS
;	COMDAT __real@40800000
CONST	SEGMENT
__real@40800000 DD 040800000r			; 4
CONST	ENDS
;	COMDAT __real@40400000
CONST	SEGMENT
__real@40400000 DD 040400000r			; 3
CONST	ENDS
;	COMDAT __real@40000000
CONST	SEGMENT
__real@40000000 DD 040000000r			; 2
CONST	ENDS
;	COMDAT __real@3f800000
CONST	SEGMENT
__real@3f800000 DD 03f800000r			; 1
CONST	ENDS
;	COMDAT ??_C@_03CKJB@grp@
CONST	SEGMENT
??_C@_03CKJB@grp@ DB 'grp', 00H				; `string'
CONST	ENDS
;	COMDAT ??_C@_0BD@IHMMAKBI@SetTextBarClipRect@
CONST	SEGMENT
??_C@_0BD@IHMMAKBI@SetTextBarClipRect@ DB 'SetTextBarClipRect', 00H ; `string'
CONST	ENDS
;	COMDAT ??_C@_0N@JKKHKGPO@ClearTextBar@
CONST	SEGMENT
??_C@_0N@JKKHKGPO@ClearTextBar@ DB 'ClearTextBar', 00H	; `string'
CONST	ENDS
;	COMDAT ??_C@_0BF@GAHBODGD@TextBarGetTextExtent@
CONST	SEGMENT
??_C@_0BF@GAHBODGD@TextBarGetTextExtent@ DB 'TextBarGetTextExtent', 00H ; `string'
CONST	ENDS
;	COMDAT ??_C@_0BE@JIGPMAIC@TextBarSetTextColor@
CONST	SEGMENT
??_C@_0BE@JIGPMAIC@TextBarSetTextColor@ DB 'TextBarSetTextColor', 00H ; `string'
CONST	ENDS
;	COMDAT ??_C@_0P@LEIHKEKD@TextBarTextOut@
CONST	SEGMENT
??_C@_0P@LEIHKEKD@TextBarTextOut@ DB 'TextBarTextOut', 00H ; `string'
CONST	ENDS
;	COMDAT ??_C@_0O@LFMIODIG@RenderTextBar@
CONST	SEGMENT
??_C@_0O@LFMIODIG@RenderTextBar@ DB 'RenderTextBar', 00H ; `string'
CONST	ENDS
;	COMDAT ??_C@_0P@BMMFBFMK@DestroyTextBar@
CONST	SEGMENT
??_C@_0P@BMMFBFMK@DestroyTextBar@ DB 'DestroyTextBar', 00H ; `string'
CONST	ENDS
;	COMDAT ??_C@_0BB@NHMJCAIE@CreateBigTextBar@
CONST	SEGMENT
??_C@_0BB@NHMJCAIE@CreateBigTextBar@ DB 'CreateBigTextBar', 00H ; `string'
CONST	ENDS
;	COMDAT ??_C@_0O@IHAJFDDM@CreateTextBar@
CONST	SEGMENT
??_C@_0O@IHAJFDDM@CreateTextBar@ DB 'CreateTextBar', 00H ; `string'
CONST	ENDS
;	COMDAT ??_C@_0BC@HJEEOBID@GetTargetPosition@
CONST	SEGMENT
??_C@_0BC@HJEEOBID@GetTargetPosition@ DB 'GetTargetPosition', 00H ; `string'
CONST	ENDS
;	COMDAT ??_C@_0BC@JPCBAHEC@GetCameraPosition@
CONST	SEGMENT
??_C@_0BC@JPCBAHEC@GetCameraPosition@ DB 'GetCameraPosition', 00H ; `string'
CONST	ENDS
;	COMDAT ??_C@_0N@OEMNGPDB@SetOmniLight@
CONST	SEGMENT
??_C@_0N@OEMNGPDB@SetOmniLight@ DB 'SetOmniLight', 00H	; `string'
CONST	ENDS
;	COMDAT ??_C@_0BA@INPFCPDH@RestoreViewport@
CONST	SEGMENT
??_C@_0BA@INPFCPDH@RestoreViewport@ DB 'RestoreViewport', 00H ; `string'
CONST	ENDS
;	COMDAT ??_C@_0M@JGBKHEPF@SetViewport@
CONST	SEGMENT
??_C@_0M@JGBKHEPF@SetViewport@ DB 'SetViewport', 00H	; `string'
CONST	ENDS
;	COMDAT ??_C@_0BD@FOOBKHKK@SetGameRenderState@
CONST	SEGMENT
??_C@_0BD@FOOBKHKK@SetGameRenderState@ DB 'SetGameRenderState', 00H ; `string'
CONST	ENDS
;	COMDAT ??_C@_0BI@MMHBDHLH@SetInterfaceRenderState@
CONST	SEGMENT
??_C@_0BI@MMHBDHLH@SetInterfaceRenderState@ DB 'SetInterfaceRenderState', 00H ; `string'
CONST	ENDS
;	COMDAT ??_C@_08JBKPIFGH@SetGamma@
CONST	SEGMENT
??_C@_08JBKPIFGH@SetGamma@ DB 'SetGamma', 00H		; `string'
CONST	ENDS
;	COMDAT ??_C@_0BF@EIHOMNAC@SaveScreenShotToPath@
CONST	SEGMENT
??_C@_0BF@EIHOMNAC@SaveScreenShotToPath@ DB 'SaveScreenShotToPath', 00H ; `string'
CONST	ENDS
;	COMDAT ??_C@_0P@PDKBLCOH@SaveScreenShot@
CONST	SEGMENT
??_C@_0P@PDKBLCOH@SaveScreenShot@ DB 'SaveScreenShot', 00H ; `string'
CONST	ENDS
;	COMDAT ??_C@_0BD@JHIOAGAP@GetAvailableMemory@
CONST	SEGMENT
??_C@_0BD@JHIOAGAP@GetAvailableMemory@ DB 'GetAvailableMemory', 00H ; `string'
CONST	ENDS
;	COMDAT ??_C@_0P@EGCHHAMC@RenderUpButton@
CONST	SEGMENT
??_C@_0P@EGCHHAMC@RenderUpButton@ DB 'RenderUpButton', 00H ; `string'
CONST	ENDS
;	COMDAT ??_C@_0BB@MFONHDMI@RenderDownButton@
CONST	SEGMENT
??_C@_0BB@MFONHDMI@RenderDownButton@ DB 'RenderDownButton', 00H ; `string'
CONST	ENDS
;	COMDAT ??_C@_0L@MMGLCMKG@RenderCube@
CONST	SEGMENT
??_C@_0L@MMGLCMKG@RenderCube@ DB 'RenderCube', 00H	; `string'
CONST	ENDS
;	COMDAT ??_C@_0BD@CPGFJEEL@RenderGradationBar@
CONST	SEGMENT
??_C@_0BD@CPGFJEEL@RenderGradationBar@ DB 'RenderGradationBar', 00H ; `string'
CONST	ENDS
;	COMDAT ??_C@_0M@FIPMCECI@RenderBar3d@
CONST	SEGMENT
??_C@_0M@FIPMCECI@RenderBar3d@ DB 'RenderBar3d', 00H	; `string'
CONST	ENDS
;	COMDAT ??_C@_09LDNCNIPL@RenderBar@
CONST	SEGMENT
??_C@_09LDNCNIPL@RenderBar@ DB 'RenderBar', 00H		; `string'
CONST	ENDS
;	COMDAT ??_C@_0M@IIHBHKCN@RenderBox3d@
CONST	SEGMENT
??_C@_0M@IIHBHKCN@RenderBox3d@ DB 'RenderBox3d', 00H	; `string'
CONST	ENDS
;	COMDAT ??_C@_0P@CKDANCCA@RenderRoundBox@
CONST	SEGMENT
??_C@_0P@CKDANCCA@RenderRoundBox@ DB 'RenderRoundBox', 00H ; `string'
CONST	ENDS
;	COMDAT ??_C@_09EDKDBNHL@RenderBox@
CONST	SEGMENT
??_C@_09EDKDBNHL@RenderBox@ DB 'RenderBox', 00H		; `string'
CONST	ENDS
;	COMDAT ??_C@_0L@FNOOKKDE@RenderLine@
CONST	SEGMENT
??_C@_0L@FNOOKKDE@RenderLine@ DB 'RenderLine', 00H	; `string'
CONST	ENDS
;	COMDAT ??_C@_0BC@BMJNLHPP@SetCursorPosition@
CONST	SEGMENT
??_C@_0BC@BMJNLHPP@SetCursorPosition@ DB 'SetCursorPosition', 00H ; `string'
CONST	ENDS
;	COMDAT ??_C@_0BE@EPLGHCNG@GetCursorPosition3d@
CONST	SEGMENT
??_C@_0BE@EPLGHCNG@GetCursorPosition3d@ DB 'GetCursorPosition3d', 00H ; `string'
CONST	ENDS
;	COMDAT ??_C@_0O@JFBMCOI@SetClearColor@
CONST	SEGMENT
??_C@_0O@JFBMCOI@SetClearColor@ DB 'SetClearColor', 00H	; `string'
CONST	ENDS
;	COMDAT ??_C@_0BA@CAEBLOMF@SetDiffuseColor@
CONST	SEGMENT
??_C@_0BA@CAEBLOMF@SetDiffuseColor@ DB 'SetDiffuseColor', 00H ; `string'
CONST	ENDS
;	COMDAT ??_C@_08BLNOOPGC@SetAlpha@
CONST	SEGMENT
??_C@_08BLNOOPGC@SetAlpha@ DB 'SetAlpha', 00H		; `string'
CONST	ENDS
;	COMDAT ??_C@_08GPNJILIJ@SetColor@
CONST	SEGMENT
??_C@_08GPNJILIJ@SetColor@ DB 'SetColor', 00H		; `string'
CONST	ENDS
;	COMDAT ??_C@_0L@BJOHNIPM@SetOrtho3d@
CONST	SEGMENT
??_C@_0L@BJOHNIPM@SetOrtho3d@ DB 'SetOrtho3d', 00H	; `string'
CONST	ENDS
;	COMDAT ??_C@_0L@BICFLCML@SetOrtho2d@
CONST	SEGMENT
??_C@_0L@BICFLCML@SetOrtho2d@ DB 'SetOrtho2d', 00H	; `string'
CONST	ENDS
;	COMDAT ??_C@_0P@BKKFLFGG@SetPerspective@
CONST	SEGMENT
??_C@_0P@BKKFLFGG@SetPerspective@ DB 'SetPerspective', 00H ; `string'
CONST	ENDS
;	COMDAT ??_C@_0N@PGNLCOBA@SetEyeCamera@
CONST	SEGMENT
??_C@_0N@PGNLCOBA@SetEyeCamera@ DB 'SetEyeCamera', 00H	; `string'
CONST	ENDS
;	COMDAT ??_C@_0BC@FJHFAPLD@SetPositionCamera@
CONST	SEGMENT
??_C@_0BC@FJHFAPLD@SetPositionCamera@ DB 'SetPositionCamera', 00H ; `string'
CONST	ENDS
;	COMDAT ??_C@_0BA@DLALGBBE@SetAroundCamera@
CONST	SEGMENT
??_C@_0BA@DLALGBBE@SetAroundCamera@ DB 'SetAroundCamera', 00H ; `string'
CONST	ENDS
;	COMDAT ??_C@_0BE@DBBIDKJI@SetColorRenderState@
CONST	SEGMENT
??_C@_0BE@DBBIDKJI@SetColorRenderState@ DB 'SetColorRenderState', 00H ; `string'
CONST	ENDS
;	COMDAT ??_C@_06OLMBOMJH@Rotate@
CONST	SEGMENT
??_C@_06OLMBOMJH@Rotate@ DB 'Rotate', 00H		; `string'
CONST	ENDS
;	COMDAT ??_C@_09KMILOHFO@Translate@
CONST	SEGMENT
??_C@_09KMILOHFO@Translate@ DB 'Translate', 00H		; `string'
CONST	ENDS
;	COMDAT ??_C@_09BBLCLCL@PopMatrix@
CONST	SEGMENT
??_C@_09BBLCLCL@PopMatrix@ DB 'PopMatrix', 00H		; `string'
CONST	ENDS
;	COMDAT ??_C@_0L@LNHGHMPK@PushMatrix@
CONST	SEGMENT
??_C@_0L@LNHGHMPK@PushMatrix@ DB 'PushMatrix', 00H	; `string'
CONST	ENDS
;	COMDAT ??_C@_09MLHDPAPE@PushState@
CONST	SEGMENT
??_C@_09MLHDPAPE@PushState@ DB 'PushState', 00H		; `string'
CONST	ENDS
;	COMDAT ??_C@_08MAKHDLEF@PopState@
CONST	SEGMENT
??_C@_08MAKHDLEF@PopState@ DB 'PopState', 00H		; `string'
CONST	ENDS
;	COMDAT ??_C@_0O@MOAEMMO@GenerateColor@
CONST	SEGMENT
??_C@_0O@MOAEMMO@GenerateColor@ DB 'GenerateColor', 00H	; `string'
CONST	ENDS
;	COMDAT ??_C@_08DDGPABJB@Identity@
CONST	SEGMENT
??_C@_08DDGPABJB@Identity@ DB 'Identity', 00H		; `string'
CONST	ENDS
;	COMDAT ??_C@_0BB@IFNDOIJA@ClearDepthBuffer@
CONST	SEGMENT
??_C@_0BB@IFNDOIJA@ClearDepthBuffer@ DB 'ClearDepthBuffer', 00H ; `string'
CONST	ENDS
;	COMDAT ??_C@_07IOLAOMLK@Culling@
CONST	SEGMENT
??_C@_07IOLAOMLK@Culling@ DB 'Culling', 00H		; `string'
CONST	ENDS
;	COMDAT ??_C@_0BB@KOODLHHI@InitScreenEffect@
CONST	SEGMENT
??_C@_0BB@KOODLHHI@InitScreenEffect@ DB 'InitScreenEffect', 00H ; `string'
CONST	ENDS
;	COMDAT ?s_methods@?1??initgrp@@YAXXZ@4PAUPyMethodDef@@A
_DATA	SEGMENT
?s_methods@?1??initgrp@@YAXXZ@4PAUPyMethodDef@@A DD FLAT:??_C@_0BB@KOODLHHI@InitScreenEffect@ ; `initgrp'::`2'::s_methods
	DD	FLAT:?grpInitScreenEffect@@YAPAU_object@@PAU1@0@Z
	DD	01H
	ORG $+4
	DD	FLAT:??_C@_07IOLAOMLK@Culling@
	DD	FLAT:?grpCulling@@YAPAU_object@@PAU1@0@Z
	DD	01H
	ORG $+4
	DD	FLAT:??_C@_0BB@IFNDOIJA@ClearDepthBuffer@
	DD	FLAT:?grpClearDepthBuffer@@YAPAU_object@@PAU1@0@Z
	DD	01H
	ORG $+4
	DD	FLAT:??_C@_08DDGPABJB@Identity@
	DD	FLAT:?grpIdentity@@YAPAU_object@@PAU1@0@Z
	DD	01H
	ORG $+4
	DD	FLAT:??_C@_0O@MOAEMMO@GenerateColor@
	DD	FLAT:?grpGenerateColor@@YAPAU_object@@PAU1@0@Z
	DD	01H
	ORG $+4
	DD	FLAT:??_C@_08MAKHDLEF@PopState@
	DD	FLAT:?grpPopState@@YAPAU_object@@PAU1@0@Z
	DD	01H
	ORG $+4
	DD	FLAT:??_C@_09MLHDPAPE@PushState@
	DD	FLAT:?grpPushState@@YAPAU_object@@PAU1@0@Z
	DD	01H
	ORG $+4
	DD	FLAT:??_C@_0L@LNHGHMPK@PushMatrix@
	DD	FLAT:?grpPushMatrix@@YAPAU_object@@PAU1@0@Z
	DD	01H
	ORG $+4
	DD	FLAT:??_C@_09BBLCLCL@PopMatrix@
	DD	FLAT:?grpPopMatrix@@YAPAU_object@@PAU1@0@Z
	DD	01H
	ORG $+4
	DD	FLAT:??_C@_09KMILOHFO@Translate@
	DD	FLAT:?grpTranslate@@YAPAU_object@@PAU1@0@Z
	DD	01H
	ORG $+4
	DD	FLAT:??_C@_06OLMBOMJH@Rotate@
	DD	FLAT:?grpRotate@@YAPAU_object@@PAU1@0@Z
	DD	01H
	ORG $+4
	DD	FLAT:??_C@_0BE@DBBIDKJI@SetColorRenderState@
	DD	FLAT:?grpSetColorRenderState@@YAPAU_object@@PAU1@0@Z
	DD	01H
	ORG $+4
	DD	FLAT:??_C@_0BA@DLALGBBE@SetAroundCamera@
	DD	FLAT:?grpSetAroundCamera@@YAPAU_object@@PAU1@0@Z
	DD	01H
	ORG $+4
	DD	FLAT:??_C@_0BC@FJHFAPLD@SetPositionCamera@
	DD	FLAT:?grpSetPositionCamera@@YAPAU_object@@PAU1@0@Z
	DD	01H
	ORG $+4
	DD	FLAT:??_C@_0N@PGNLCOBA@SetEyeCamera@
	DD	FLAT:?grpSetEyeCamera@@YAPAU_object@@PAU1@0@Z
	DD	01H
	ORG $+4
	DD	FLAT:??_C@_0P@BKKFLFGG@SetPerspective@
	DD	FLAT:?grpSetPerspective@@YAPAU_object@@PAU1@0@Z
	DD	01H
	ORG $+4
	DD	FLAT:??_C@_0L@BICFLCML@SetOrtho2d@
	DD	FLAT:?grpSetOrtho2D@@YAPAU_object@@PAU1@0@Z
	DD	01H
	ORG $+4
	DD	FLAT:??_C@_0L@BJOHNIPM@SetOrtho3d@
	DD	FLAT:?grpSetOrtho3D@@YAPAU_object@@PAU1@0@Z
	DD	01H
	ORG $+4
	DD	FLAT:??_C@_08GPNJILIJ@SetColor@
	DD	FLAT:?grpSetColor@@YAPAU_object@@PAU1@0@Z
	DD	01H
	ORG $+4
	DD	FLAT:??_C@_08BLNOOPGC@SetAlpha@
	DD	FLAT:?grpSetAlpha@@YAPAU_object@@PAU1@0@Z
	DD	01H
	ORG $+4
	DD	FLAT:??_C@_0BA@CAEBLOMF@SetDiffuseColor@
	DD	FLAT:?grpSetDiffuseColor@@YAPAU_object@@PAU1@0@Z
	DD	01H
	ORG $+4
	DD	FLAT:??_C@_0O@JFBMCOI@SetClearColor@
	DD	FLAT:?grpSetClearColor@@YAPAU_object@@PAU1@0@Z
	DD	01H
	ORG $+4
	DD	FLAT:??_C@_0BE@EPLGHCNG@GetCursorPosition3d@
	DD	FLAT:?grpGetCursorPosition3d@@YAPAU_object@@PAU1@0@Z
	DD	01H
	ORG $+4
	DD	FLAT:??_C@_0BC@BMJNLHPP@SetCursorPosition@
	DD	FLAT:?grpSetCursorPosition@@YAPAU_object@@PAU1@0@Z
	DD	01H
	ORG $+4
	DD	FLAT:??_C@_0L@FNOOKKDE@RenderLine@
	DD	FLAT:?grpRenderLine@@YAPAU_object@@PAU1@0@Z
	DD	01H
	ORG $+4
	DD	FLAT:??_C@_09EDKDBNHL@RenderBox@
	DD	FLAT:?grpRenderBox@@YAPAU_object@@PAU1@0@Z
	DD	01H
	ORG $+4
	DD	FLAT:??_C@_0P@CKDANCCA@RenderRoundBox@
	DD	FLAT:?grpRenderRoundBox@@YAPAU_object@@PAU1@0@Z
	DD	01H
	ORG $+4
	DD	FLAT:??_C@_0M@IIHBHKCN@RenderBox3d@
	DD	FLAT:?grpRenderBox3d@@YAPAU_object@@PAU1@0@Z
	DD	01H
	ORG $+4
	DD	FLAT:??_C@_09LDNCNIPL@RenderBar@
	DD	FLAT:?grpRenderBar@@YAPAU_object@@PAU1@0@Z
	DD	01H
	ORG $+4
	DD	FLAT:??_C@_0M@FIPMCECI@RenderBar3d@
	DD	FLAT:?grpRenderBar3d@@YAPAU_object@@PAU1@0@Z
	DD	01H
	ORG $+4
	DD	FLAT:??_C@_0BD@CPGFJEEL@RenderGradationBar@
	DD	FLAT:?grpRenderGradationBar@@YAPAU_object@@PAU1@0@Z
	DD	01H
	ORG $+4
	DD	FLAT:??_C@_0L@MMGLCMKG@RenderCube@
	DD	FLAT:?grpRenderCube@@YAPAU_object@@PAU1@0@Z
	DD	01H
	ORG $+4
	DD	FLAT:??_C@_0BB@MFONHDMI@RenderDownButton@
	DD	FLAT:?grpRenderDownButton@@YAPAU_object@@PAU1@0@Z
	DD	01H
	ORG $+4
	DD	FLAT:??_C@_0P@EGCHHAMC@RenderUpButton@
	DD	FLAT:?grpRenderUpButton@@YAPAU_object@@PAU1@0@Z
	DD	01H
	ORG $+4
	DD	FLAT:??_C@_0BD@JHIOAGAP@GetAvailableMemory@
	DD	FLAT:?grpGetAvailableMemory@@YAPAU_object@@PAU1@0@Z
	DD	01H
	ORG $+4
	DD	FLAT:??_C@_0P@PDKBLCOH@SaveScreenShot@
	DD	FLAT:?grpSaveScreenShot@@YAPAU_object@@PAU1@0@Z
	DD	01H
	ORG $+4
	DD	FLAT:??_C@_0BF@EIHOMNAC@SaveScreenShotToPath@
	DD	FLAT:?grpSaveScreenShotToPath@@YAPAU_object@@PAU1@0@Z
	DD	01H
	ORG $+4
	DD	FLAT:??_C@_08JBKPIFGH@SetGamma@
	DD	FLAT:?grpSetGamma@@YAPAU_object@@PAU1@0@Z
	DD	01H
	ORG $+4
	DD	FLAT:??_C@_0BI@MMHBDHLH@SetInterfaceRenderState@
	DD	FLAT:?grpSetInterfaceRenderState@@YAPAU_object@@PAU1@0@Z
	DD	01H
	ORG $+4
	DD	FLAT:??_C@_0BD@FOOBKHKK@SetGameRenderState@
	DD	FLAT:?grpSetGameRenderState@@YAPAU_object@@PAU1@0@Z
	DD	01H
	ORG $+4
	DD	FLAT:??_C@_0M@JGBKHEPF@SetViewport@
	DD	FLAT:?grpSetViewport@@YAPAU_object@@PAU1@0@Z
	DD	01H
	ORG $+4
	DD	FLAT:??_C@_0BA@INPFCPDH@RestoreViewport@
	DD	FLAT:?grpRestoreViewport@@YAPAU_object@@PAU1@0@Z
	DD	01H
	ORG $+4
	DD	FLAT:??_C@_0N@OEMNGPDB@SetOmniLight@
	DD	FLAT:?grpSetOmniLight@@YAPAU_object@@PAU1@0@Z
	DD	01H
	ORG $+4
	DD	FLAT:??_C@_0BC@JPCBAHEC@GetCameraPosition@
	DD	FLAT:?grpGetCameraPosition@@YAPAU_object@@PAU1@0@Z
	DD	01H
	ORG $+4
	DD	FLAT:??_C@_0BC@HJEEOBID@GetTargetPosition@
	DD	FLAT:?grpGetTargetPosition@@YAPAU_object@@PAU1@0@Z
	DD	01H
	ORG $+4
	DD	FLAT:??_C@_0O@IHAJFDDM@CreateTextBar@
	DD	FLAT:?grpCreateTextBar@@YAPAU_object@@PAU1@0@Z
	DD	01H
	ORG $+4
	DD	FLAT:??_C@_0BB@NHMJCAIE@CreateBigTextBar@
	DD	FLAT:?grpCreateBigTextBar@@YAPAU_object@@PAU1@0@Z
	DD	01H
	ORG $+4
	DD	FLAT:??_C@_0P@BMMFBFMK@DestroyTextBar@
	DD	FLAT:?grpDestroyTextBar@@YAPAU_object@@PAU1@0@Z
	DD	01H
	ORG $+4
	DD	FLAT:??_C@_0O@LFMIODIG@RenderTextBar@
	DD	FLAT:?grpRenderTextBar@@YAPAU_object@@PAU1@0@Z
	DD	01H
	ORG $+4
	DD	FLAT:??_C@_0P@LEIHKEKD@TextBarTextOut@
	DD	FLAT:?grpTextBarTextOut@@YAPAU_object@@PAU1@0@Z
	DD	01H
	ORG $+4
	DD	FLAT:??_C@_0BE@JIGPMAIC@TextBarSetTextColor@
	DD	FLAT:?grpTextBarSetTextColor@@YAPAU_object@@PAU1@0@Z
	DD	01H
	ORG $+4
	DD	FLAT:??_C@_0BF@GAHBODGD@TextBarGetTextExtent@
	DD	FLAT:?grpTextBarGetTextExtent@@YAPAU_object@@PAU1@0@Z
	DD	01H
	ORG $+4
	DD	FLAT:??_C@_0N@JKKHKGPO@ClearTextBar@
	DD	FLAT:?grpClearTextBar@@YAPAU_object@@PAU1@0@Z
	DD	01H
	ORG $+4
	DD	FLAT:??_C@_0BD@IHMMAKBI@SetTextBarClipRect@
	DD	FLAT:?grpSetTextBarClipRect@@YAPAU_object@@PAU1@0@Z
	DD	01H
	ORG $+4
	DD	00H
	DD	00H
	DD	00H
	ORG $+4
_DATA	ENDS
;	COMDAT ??_C@_03LPALPDIP@fff@
CONST	SEGMENT
??_C@_03LPALPDIP@fff@ DB 'fff', 00H			; `string'
CONST	ENDS
;	COMDAT ??_C@_0BK@BHNKPMOJ@?$CF02d?$CF02d_?$CF02d?$CF02d?$CF02d?4jpg@
CONST	SEGMENT
??_C@_0BK@BHNKPMOJ@?$CF02d?$CF02d_?$CF02d?$CF02d?$CF02d?4jpg@ DB '%02d%02'
	DB	'd_%02d%02d%02d.jpg', 00H			; `string'
CONST	ENDS
;	COMDAT ??_C@_0CB@MCALMLJH@Failed?5to?5create?5directory?5?$FL?$CFs?$FN@
CONST	SEGMENT
??_C@_0CB@MCALMLJH@Failed?5to?5create?5directory?5?$FL?$CFs?$FN@ DB 'Fail'
	DB	'ed to create directory [%s]', 0aH, 00H	; `string'
CONST	ENDS
;	COMDAT ??_C@_08KBONKIKA@?2METIN2?2@
CONST	SEGMENT
??_C@_08KBONKIKA@?2METIN2?2@ DB '\METIN2\', 00H		; `string'
CONST	ENDS
;	COMDAT ??_C@_04JMLDJNEM@?$CIis?$CJ@
CONST	SEGMENT
??_C@_04JMLDJNEM@?$CIis?$CJ@ DB '(is)', 00H		; `string'
CONST	ENDS
;	COMDAT ??_C@_0BM@PKDBOENC@?$CFs?$CF02d?$CF02d_?$CF02d?$CF02d?$CF02d?4jpg@
CONST	SEGMENT
??_C@_0BM@PKDBOENC@?$CFs?$CF02d?$CF02d_?$CF02d?$CF02d?$CF02d?4jpg@ DB '%s'
	DB	'%02d%02d_%02d%02d%02d.jpg', 00H		; `string'
CONST	ENDS
;	COMDAT ??_C@_05KFOBNLEM@?$CIfff?$CJ@
CONST	SEGMENT
??_C@_05KFOBNLEM@?$CIfff?$CJ@ DB '(fff)', 00H		; `string'
CONST	ENDS
;	COMDAT ??_C@_01HHGOMJKL@l@
CONST	SEGMENT
??_C@_01HHGOMJKL@l@ DB 'l', 00H				; `string'
CONST	ENDS
;	COMDAT ??_C@_0BG@IAEAGHLM@grp?4Translate?3Wrong?5Z@
CONST	SEGMENT
??_C@_0BG@IAEAGHLM@grp?4Translate?3Wrong?5Z@ DB 'grp.Translate:Wrong Z', 00H ; `string'
CONST	ENDS
;	COMDAT ??_C@_0BG@KLGNDEHP@grp?4Translate?3Wrong?5Y@
CONST	SEGMENT
??_C@_0BG@KLGNDEHP@grp?4Translate?3Wrong?5Y@ DB 'grp.Translate:Wrong Y', 00H ; `string'
CONST	ENDS
;	COMDAT ??_C@_0BG@LCHGAFDO@grp?4Translate?3Wrong?5X@
CONST	SEGMENT
??_C@_0BG@LCHGAFDO@grp?4Translate?3Wrong?5X@ DB 'grp.Translate:Wrong X', 00H ; `string'
CONST	ENDS
;	COMDAT ??_C@_02PDIHAGKM@ii@
CONST	SEGMENT
??_C@_02PDIHAGKM@ii@ DB 'ii', 00H			; `string'
CONST	ENDS
;	COMDAT ??_C@_01KBJDNOO@i@
CONST	SEGMENT
??_C@_01KBJDNOO@i@ DB 'i', 00H				; `string'
CONST	ENDS
;	COMDAT ??_C@_00CNPNBAHC@@
CONST	SEGMENT
??_C@_00CNPNBAHC@@ DB 00H				; `string'
CONST	ENDS
;	COMDAT xdata$x
xdata$x	SEGMENT
__unwindtable$?grpCreateBigTextBar@@YAPAU_object@@PAU1@0@Z DD 0ffffffffH
	DD	FLAT:__unwindfunclet$?grpCreateBigTextBar@@YAPAU_object@@PAU1@0@Z$0
__ehfuncinfo$?grpCreateBigTextBar@@YAPAU_object@@PAU1@0@Z DD 019930522H
	DD	01H
	DD	FLAT:__unwindtable$?grpCreateBigTextBar@@YAPAU_object@@PAU1@0@Z
	DD	2 DUP(00H)
	DD	2 DUP(00H)
	DD	00H
	DD	01H
xdata$x	ENDS
;	COMDAT xdata$x
xdata$x	SEGMENT
__unwindtable$?grpCreateTextBar@@YAPAU_object@@PAU1@0@Z DD 0ffffffffH
	DD	FLAT:__unwindfunclet$?grpCreateTextBar@@YAPAU_object@@PAU1@0@Z$0
__ehfuncinfo$?grpCreateTextBar@@YAPAU_object@@PAU1@0@Z DD 019930522H
	DD	01H
	DD	FLAT:__unwindtable$?grpCreateTextBar@@YAPAU_object@@PAU1@0@Z
	DD	2 DUP(00H)
	DD	2 DUP(00H)
	DD	00H
	DD	01H
xdata$x	ENDS
; Function compile flags: /Odspy
; File D:\Metin2 Server Files\mainline\SRC_2014\Metin2Client\eterPythonLib\PythonGraphicModule.cpp
; File D:\Metin2 Server Files\mainline\SRC_2014\Metin2Client\eterBase\Singleton.h
; File D:\Metin2 Server Files\mainline\SRC_2014\Metin2Client\eterPythonLib\PythonGraphicModule.cpp
; File D:\Metin2 Server Files\mainline\SRC_2014\Metin2Client\eterlib\Camera.h
; File D:\Metin2 Server Files\mainline\SRC_2014\Metin2Client\eterPythonLib\PythonGraphicModule.cpp
;	COMDAT ?grpGetTargetPosition@@YAPAU_object@@PAU1@0@Z
_TEXT	SEGMENT
_this$ = -24						; size = 4
$T1 = -20						; size = 4
_v3Target$ = -16					; size = 12
__$ArrayPad$ = -4					; size = 4
_poSelf$ = 8						; size = 4
_poArgs$ = 12						; size = 4
?grpGetTargetPosition@@YAPAU_object@@PAU1@0@Z PROC	; grpGetTargetPosition, COMDAT

; 936  : {

  00000	55		 push	 ebp
  00001	8b ec		 mov	 ebp, esp
  00003	83 ec 18	 sub	 esp, 24			; 00000018H
  00006	a1 00 00 00 00	 mov	 eax, DWORD PTR ___security_cookie
  0000b	33 c5		 xor	 eax, ebp
  0000d	89 45 fc	 mov	 DWORD PTR __$ArrayPad$[ebp], eax
  00010	56		 push	 esi
  00011	57		 push	 edi
; File D:\Metin2 Server Files\mainline\SRC_2014\Metin2Client\eterBase\Singleton.h

; 27   : 		return (*ms_singleton);

  00012	a1 00 00 00 00	 mov	 eax, DWORD PTR ?ms_singleton@?$CSingleton@VCCameraManager@@@@0PAVCCameraManager@@A ; CSingleton<CCameraManager>::ms_singleton
  00017	89 45 ec	 mov	 DWORD PTR $T1[ebp], eax
; File D:\Metin2 Server Files\mainline\SRC_2014\Metin2Client\eterPythonLib\PythonGraphicModule.cpp

; 937  : 	D3DXVECTOR3 v3Target = CCameraManager::Instance().GetCurrentCamera()->GetTarget();

  0001a	8b 4d ec	 mov	 ecx, DWORD PTR $T1[ebp]
  0001d	e8 00 00 00 00	 call	 ?GetCurrentCamera@CCameraManager@@QAEPAVCCamera@@XZ ; CCameraManager::GetCurrentCamera
  00022	89 45 e8	 mov	 DWORD PTR _this$[ebp], eax
; File D:\Metin2 Server Files\mainline\SRC_2014\Metin2Client\eterlib\Camera.h

; 169  : 		const D3DXVECTOR3 & GetTarget() const	{ return m_v3Target; }

  00025	8b 75 e8	 mov	 esi, DWORD PTR _this$[ebp]
  00028	83 c6 3c	 add	 esi, 60			; 0000003cH
; File D:\Metin2 Server Files\mainline\SRC_2014\Metin2Client\eterPythonLib\PythonGraphicModule.cpp

; 937  : 	D3DXVECTOR3 v3Target = CCameraManager::Instance().GetCurrentCamera()->GetTarget();

  0002b	8d 7d f0	 lea	 edi, DWORD PTR _v3Target$[ebp]
  0002e	a5		 movsd
  0002f	a5		 movsd
  00030	a5		 movsd

; 938  : 	return Py_BuildValue("fff", v3Target.x, v3Target.y, v3Target.z);

  00031	f3 0f 5a 45 f8	 cvtss2sd xmm0, DWORD PTR _v3Target$[ebp+8]
  00036	51		 push	 ecx
  00037	51		 push	 ecx
  00038	f2 0f 11 04 24	 movsd	 QWORD PTR [esp], xmm0
  0003d	f3 0f 5a 45 f4	 cvtss2sd xmm0, DWORD PTR _v3Target$[ebp+4]
  00042	51		 push	 ecx
  00043	51		 push	 ecx
  00044	f2 0f 11 04 24	 movsd	 QWORD PTR [esp], xmm0
  00049	f3 0f 5a 45 f0	 cvtss2sd xmm0, DWORD PTR _v3Target$[ebp]
  0004e	51		 push	 ecx
  0004f	51		 push	 ecx
  00050	f2 0f 11 04 24	 movsd	 QWORD PTR [esp], xmm0
  00055	68 00 00 00 00	 push	 OFFSET ??_C@_03LPALPDIP@fff@
  0005a	ff 15 00 00 00
	00		 call	 DWORD PTR __imp__Py_BuildValue
  00060	83 c4 1c	 add	 esp, 28			; 0000001cH

; 939  : }

  00063	5f		 pop	 edi
  00064	5e		 pop	 esi
  00065	8b 4d fc	 mov	 ecx, DWORD PTR __$ArrayPad$[ebp]
  00068	33 cd		 xor	 ecx, ebp
  0006a	e8 00 00 00 00	 call	 @__security_check_cookie@4
  0006f	c9		 leave
  00070	c3		 ret	 0
?grpGetTargetPosition@@YAPAU_object@@PAU1@0@Z ENDP	; grpGetTargetPosition
_TEXT	ENDS
; Function compile flags: /Odspy
; File D:\Metin2 Server Files\mainline\SRC_2014\Metin2Client\eterPythonLib\PythonGraphicModule.cpp
; File D:\Metin2 Server Files\mainline\SRC_2014\Metin2Client\eterBase\Singleton.h
; File D:\Metin2 Server Files\mainline\SRC_2014\Metin2Client\eterPythonLib\PythonGraphicModule.cpp
; File D:\Metin2 Server Files\mainline\SRC_2014\Metin2Client\eterlib\Camera.h
; File D:\Metin2 Server Files\mainline\SRC_2014\Metin2Client\eterPythonLib\PythonGraphicModule.cpp
;	COMDAT ?grpGetCameraPosition@@YAPAU_object@@PAU1@0@Z
_TEXT	SEGMENT
_this$ = -24						; size = 4
$T1 = -20						; size = 4
_v3Eye$ = -16						; size = 12
__$ArrayPad$ = -4					; size = 4
_poSelf$ = 8						; size = 4
_poArgs$ = 12						; size = 4
?grpGetCameraPosition@@YAPAU_object@@PAU1@0@Z PROC	; grpGetCameraPosition, COMDAT

; 930  : {

  00000	55		 push	 ebp
  00001	8b ec		 mov	 ebp, esp
  00003	83 ec 18	 sub	 esp, 24			; 00000018H
  00006	a1 00 00 00 00	 mov	 eax, DWORD PTR ___security_cookie
  0000b	33 c5		 xor	 eax, ebp
  0000d	89 45 fc	 mov	 DWORD PTR __$ArrayPad$[ebp], eax
  00010	56		 push	 esi
  00011	57		 push	 edi
; File D:\Metin2 Server Files\mainline\SRC_2014\Metin2Client\eterBase\Singleton.h

; 27   : 		return (*ms_singleton);

  00012	a1 00 00 00 00	 mov	 eax, DWORD PTR ?ms_singleton@?$CSingleton@VCCameraManager@@@@0PAVCCameraManager@@A ; CSingleton<CCameraManager>::ms_singleton
  00017	89 45 ec	 mov	 DWORD PTR $T1[ebp], eax
; File D:\Metin2 Server Files\mainline\SRC_2014\Metin2Client\eterPythonLib\PythonGraphicModule.cpp

; 931  : 	D3DXVECTOR3 v3Eye = CCameraManager::Instance().GetCurrentCamera()->GetEye();

  0001a	8b 4d ec	 mov	 ecx, DWORD PTR $T1[ebp]
  0001d	e8 00 00 00 00	 call	 ?GetCurrentCamera@CCameraManager@@QAEPAVCCamera@@XZ ; CCameraManager::GetCurrentCamera
  00022	89 45 e8	 mov	 DWORD PTR _this$[ebp], eax
; File D:\Metin2 Server Files\mainline\SRC_2014\Metin2Client\eterlib\Camera.h

; 168  : 		const D3DXVECTOR3 & GetEye() const		{ return m_v3Eye; }

  00025	8b 75 e8	 mov	 esi, DWORD PTR _this$[ebp]
  00028	83 c6 30	 add	 esi, 48			; 00000030H
; File D:\Metin2 Server Files\mainline\SRC_2014\Metin2Client\eterPythonLib\PythonGraphicModule.cpp

; 931  : 	D3DXVECTOR3 v3Eye = CCameraManager::Instance().GetCurrentCamera()->GetEye();

  0002b	8d 7d f0	 lea	 edi, DWORD PTR _v3Eye$[ebp]
  0002e	a5		 movsd
  0002f	a5		 movsd
  00030	a5		 movsd

; 932  : 	return Py_BuildValue("fff", v3Eye.x, v3Eye.y, v3Eye.z);

  00031	f3 0f 5a 45 f8	 cvtss2sd xmm0, DWORD PTR _v3Eye$[ebp+8]
  00036	51		 push	 ecx
  00037	51		 push	 ecx
  00038	f2 0f 11 04 24	 movsd	 QWORD PTR [esp], xmm0
  0003d	f3 0f 5a 45 f4	 cvtss2sd xmm0, DWORD PTR _v3Eye$[ebp+4]
  00042	51		 push	 ecx
  00043	51		 push	 ecx
  00044	f2 0f 11 04 24	 movsd	 QWORD PTR [esp], xmm0
  00049	f3 0f 5a 45 f0	 cvtss2sd xmm0, DWORD PTR _v3Eye$[ebp]
  0004e	51		 push	 ecx
  0004f	51		 push	 ecx
  00050	f2 0f 11 04 24	 movsd	 QWORD PTR [esp], xmm0
  00055	68 00 00 00 00	 push	 OFFSET ??_C@_03LPALPDIP@fff@
  0005a	ff 15 00 00 00
	00		 call	 DWORD PTR __imp__Py_BuildValue
  00060	83 c4 1c	 add	 esp, 28			; 0000001cH

; 933  : }

  00063	5f		 pop	 edi
  00064	5e		 pop	 esi
  00065	8b 4d fc	 mov	 ecx, DWORD PTR __$ArrayPad$[ebp]
  00068	33 cd		 xor	 ecx, ebp
  0006a	e8 00 00 00 00	 call	 @__security_check_cookie@4
  0006f	c9		 leave
  00070	c3		 ret	 0
?grpGetCameraPosition@@YAPAU_object@@PAU1@0@Z ENDP	; grpGetCameraPosition
_TEXT	ENDS
; Function compile flags: /Odspy
; File D:\Metin2 Server Files\mainline\SRC_2014\Metin2Client\eterPythonLib\PythonGraphicModule.cpp
;	COMDAT ?grpSetOmniLight@@YAPAU_object@@PAU1@0@Z
_TEXT	SEGMENT
_poSelf$ = 8						; size = 4
_poArgs$ = 12						; size = 4
?grpSetOmniLight@@YAPAU_object@@PAU1@0@Z PROC		; grpSetOmniLight, COMDAT

; 924  : {

  00000	55		 push	 ebp
  00001	8b ec		 mov	 ebp, esp

; 925  : 	CPythonGraphic::Instance().SetOmniLight();

  00003	8b 0d 00 00 00
	00		 mov	 ecx, DWORD PTR ?ms_singleton@?$CSingleton@VCPythonGraphic@@@@0PAVCPythonGraphic@@A ; CSingleton<CPythonGraphic>::ms_singleton
  00009	e8 00 00 00 00	 call	 ?SetOmniLight@CPythonGraphic@@QAEXXZ ; CPythonGraphic::SetOmniLight

; 926  : 	return Py_BuildNone();

  0000e	e8 00 00 00 00	 call	 ?Py_BuildNone@@YAPAU_object@@XZ ; Py_BuildNone

; 927  : }

  00013	5d		 pop	 ebp
  00014	c3		 ret	 0
?grpSetOmniLight@@YAPAU_object@@PAU1@0@Z ENDP		; grpSetOmniLight
_TEXT	ENDS
; Function compile flags: /Odspy
; File D:\Metin2 Server Files\mainline\SRC_2014\Metin2Client\eterPythonLib\PythonGraphicModule.cpp
;	COMDAT ?grpRestoreViewport@@YAPAU_object@@PAU1@0@Z
_TEXT	SEGMENT
_poSelf$ = 8						; size = 4
_poArgs$ = 12						; size = 4
?grpRestoreViewport@@YAPAU_object@@PAU1@0@Z PROC	; grpRestoreViewport, COMDAT

; 918  : {

  00000	55		 push	 ebp
  00001	8b ec		 mov	 ebp, esp

; 919  : 	CPythonGraphic::Instance().RestoreViewport();

  00003	8b 0d 00 00 00
	00		 mov	 ecx, DWORD PTR ?ms_singleton@?$CSingleton@VCPythonGraphic@@@@0PAVCPythonGraphic@@A ; CSingleton<CPythonGraphic>::ms_singleton
  00009	e8 00 00 00 00	 call	 ?RestoreViewport@CPythonGraphic@@QAEXXZ ; CPythonGraphic::RestoreViewport

; 920  : 	return Py_BuildNone();

  0000e	e8 00 00 00 00	 call	 ?Py_BuildNone@@YAPAU_object@@XZ ; Py_BuildNone

; 921  : }

  00013	5d		 pop	 ebp
  00014	c3		 ret	 0
?grpRestoreViewport@@YAPAU_object@@PAU1@0@Z ENDP	; grpRestoreViewport
_TEXT	ENDS
; Function compile flags: /Odspy
; File D:\Metin2 Server Files\mainline\SRC_2014\Metin2Client\eterPythonLib\PythonGraphicModule.cpp
;	COMDAT ?grpSetViewport@@YAPAU_object@@PAU1@0@Z
_TEXT	SEGMENT
tv197 = -72						; size = 8
tv187 = -64						; size = 8
tv177 = -56						; size = 8
tv167 = -48						; size = 8
_fx$ = -40						; size = 4
_fy$ = -36						; size = 4
_fWidth$ = -32						; size = 4
_fHeight$ = -28						; size = 4
tv193 = -24						; size = 4
_uWidth$ = -20						; size = 4
tv183 = -16						; size = 4
_uHeight$ = -12						; size = 4
tv173 = -8						; size = 4
tv163 = -4						; size = 4
_poSelf$ = 8						; size = 4
_poArgs$ = 12						; size = 4
?grpSetViewport@@YAPAU_object@@PAU1@0@Z PROC		; grpSetViewport, COMDAT

; 895  : {

  00000	55		 push	 ebp
  00001	8b ec		 mov	 ebp, esp
  00003	83 ec 48	 sub	 esp, 72			; 00000048H

; 896  : 	float fx;
; 897  : 	if (!PyTuple_GetFloat(poArgs, 0, &fx))

  00006	8d 45 d8	 lea	 eax, DWORD PTR _fx$[ebp]
  00009	50		 push	 eax
  0000a	6a 00		 push	 0
  0000c	ff 75 0c	 push	 DWORD PTR _poArgs$[ebp]
  0000f	e8 00 00 00 00	 call	 ?PyTuple_GetFloat@@YA_NPAU_object@@HPAM@Z ; PyTuple_GetFloat
  00014	83 c4 0c	 add	 esp, 12			; 0000000cH
  00017	0f b6 c0	 movzx	 eax, al
  0001a	85 c0		 test	 eax, eax
  0001c	75 0d		 jne	 SHORT $LN2@grpSetView

; 898  : 		return Py_BuildException();

  0001e	6a 00		 push	 0
  00020	e8 00 00 00 00	 call	 ?Py_BuildException@@YAPAU_object@@PBDZZ ; Py_BuildException
  00025	59		 pop	 ecx
  00026	e9 4a 01 00 00	 jmp	 $LN1@grpSetView
$LN2@grpSetView:

; 899  : 	float fy;
; 900  : 	if (!PyTuple_GetFloat(poArgs, 1, &fy))

  0002b	8d 45 dc	 lea	 eax, DWORD PTR _fy$[ebp]
  0002e	50		 push	 eax
  0002f	6a 01		 push	 1
  00031	ff 75 0c	 push	 DWORD PTR _poArgs$[ebp]
  00034	e8 00 00 00 00	 call	 ?PyTuple_GetFloat@@YA_NPAU_object@@HPAM@Z ; PyTuple_GetFloat
  00039	83 c4 0c	 add	 esp, 12			; 0000000cH
  0003c	0f b6 c0	 movzx	 eax, al
  0003f	85 c0		 test	 eax, eax
  00041	75 0d		 jne	 SHORT $LN3@grpSetView

; 901  : 		return Py_BuildException();

  00043	6a 00		 push	 0
  00045	e8 00 00 00 00	 call	 ?Py_BuildException@@YAPAU_object@@PBDZZ ; Py_BuildException
  0004a	59		 pop	 ecx
  0004b	e9 25 01 00 00	 jmp	 $LN1@grpSetView
$LN3@grpSetView:

; 902  : 
; 903  : 	float fWidth;
; 904  : 	if (!PyTuple_GetFloat(poArgs, 2, &fWidth))

  00050	8d 45 e0	 lea	 eax, DWORD PTR _fWidth$[ebp]
  00053	50		 push	 eax
  00054	6a 02		 push	 2
  00056	ff 75 0c	 push	 DWORD PTR _poArgs$[ebp]
  00059	e8 00 00 00 00	 call	 ?PyTuple_GetFloat@@YA_NPAU_object@@HPAM@Z ; PyTuple_GetFloat
  0005e	83 c4 0c	 add	 esp, 12			; 0000000cH
  00061	0f b6 c0	 movzx	 eax, al
  00064	85 c0		 test	 eax, eax
  00066	75 0d		 jne	 SHORT $LN4@grpSetView

; 905  : 		return Py_BuildException();

  00068	6a 00		 push	 0
  0006a	e8 00 00 00 00	 call	 ?Py_BuildException@@YAPAU_object@@PBDZZ ; Py_BuildException
  0006f	59		 pop	 ecx
  00070	e9 00 01 00 00	 jmp	 $LN1@grpSetView
$LN4@grpSetView:

; 906  : 	float fHeight;
; 907  : 	if (!PyTuple_GetFloat(poArgs, 3, &fHeight))

  00075	8d 45 e4	 lea	 eax, DWORD PTR _fHeight$[ebp]
  00078	50		 push	 eax
  00079	6a 03		 push	 3
  0007b	ff 75 0c	 push	 DWORD PTR _poArgs$[ebp]
  0007e	e8 00 00 00 00	 call	 ?PyTuple_GetFloat@@YA_NPAU_object@@HPAM@Z ; PyTuple_GetFloat
  00083	83 c4 0c	 add	 esp, 12			; 0000000cH
  00086	0f b6 c0	 movzx	 eax, al
  00089	85 c0		 test	 eax, eax
  0008b	75 0d		 jne	 SHORT $LN5@grpSetView

; 908  : 		return Py_BuildException();

  0008d	6a 00		 push	 0
  0008f	e8 00 00 00 00	 call	 ?Py_BuildException@@YAPAU_object@@PBDZZ ; Py_BuildException
  00094	59		 pop	 ecx
  00095	e9 db 00 00 00	 jmp	 $LN1@grpSetView
$LN5@grpSetView:

; 909  : 
; 910  : 	UINT uWidth;
; 911  : 	UINT uHeight;
; 912  : 	CPythonGraphic::Instance().GetBackBufferSize(&uWidth, &uHeight);

  0009a	8d 45 f4	 lea	 eax, DWORD PTR _uHeight$[ebp]
  0009d	50		 push	 eax
  0009e	8d 45 ec	 lea	 eax, DWORD PTR _uWidth$[ebp]
  000a1	50		 push	 eax
  000a2	e8 00 00 00 00	 call	 ?GetBackBufferSize@CGraphicBase@@SAXPAI0@Z ; CGraphicBase::GetBackBufferSize
  000a7	59		 pop	 ecx
  000a8	59		 pop	 ecx

; 913  : 	CPythonGraphic::Instance().SetViewport(fx*uWidth, fy*uHeight, fWidth*uWidth, fHeight*uHeight);

  000a9	8b 45 f4	 mov	 eax, DWORD PTR _uHeight$[ebp]
  000ac	89 45 fc	 mov	 DWORD PTR tv163[ebp], eax
  000af	f2 0f 2a 45 fc	 cvtsi2sd xmm0, DWORD PTR tv163[ebp]
  000b4	8b 45 fc	 mov	 eax, DWORD PTR tv163[ebp]
  000b7	c1 e8 1f	 shr	 eax, 31			; 0000001fH
  000ba	f2 0f 58 04 c5
	00 00 00 00	 addsd	 xmm0, QWORD PTR __xmm@41f00000000000000000000000000000[eax*8]
  000c3	f2 0f 11 45 d0	 movsd	 QWORD PTR tv167[ebp], xmm0
  000c8	f2 0f 5a 45 d0	 cvtsd2ss xmm0, QWORD PTR tv167[ebp]
  000cd	f3 0f 59 45 e4	 mulss	 xmm0, DWORD PTR _fHeight$[ebp]
  000d2	51		 push	 ecx
  000d3	f3 0f 11 04 24	 movss	 DWORD PTR [esp], xmm0
  000d8	8b 45 ec	 mov	 eax, DWORD PTR _uWidth$[ebp]
  000db	89 45 f8	 mov	 DWORD PTR tv173[ebp], eax
  000de	f2 0f 2a 45 f8	 cvtsi2sd xmm0, DWORD PTR tv173[ebp]
  000e3	8b 45 f8	 mov	 eax, DWORD PTR tv173[ebp]
  000e6	c1 e8 1f	 shr	 eax, 31			; 0000001fH
  000e9	f2 0f 58 04 c5
	00 00 00 00	 addsd	 xmm0, QWORD PTR __xmm@41f00000000000000000000000000000[eax*8]
  000f2	f2 0f 11 45 c8	 movsd	 QWORD PTR tv177[ebp], xmm0
  000f7	f2 0f 5a 45 c8	 cvtsd2ss xmm0, QWORD PTR tv177[ebp]
  000fc	f3 0f 59 45 e0	 mulss	 xmm0, DWORD PTR _fWidth$[ebp]
  00101	51		 push	 ecx
  00102	f3 0f 11 04 24	 movss	 DWORD PTR [esp], xmm0
  00107	8b 45 f4	 mov	 eax, DWORD PTR _uHeight$[ebp]
  0010a	89 45 f0	 mov	 DWORD PTR tv183[ebp], eax
  0010d	f2 0f 2a 45 f0	 cvtsi2sd xmm0, DWORD PTR tv183[ebp]
  00112	8b 45 f0	 mov	 eax, DWORD PTR tv183[ebp]
  00115	c1 e8 1f	 shr	 eax, 31			; 0000001fH
  00118	f2 0f 58 04 c5
	00 00 00 00	 addsd	 xmm0, QWORD PTR __xmm@41f00000000000000000000000000000[eax*8]
  00121	f2 0f 11 45 c0	 movsd	 QWORD PTR tv187[ebp], xmm0
  00126	f2 0f 5a 45 c0	 cvtsd2ss xmm0, QWORD PTR tv187[ebp]
  0012b	f3 0f 59 45 dc	 mulss	 xmm0, DWORD PTR _fy$[ebp]
  00130	51		 push	 ecx
  00131	f3 0f 11 04 24	 movss	 DWORD PTR [esp], xmm0
  00136	8b 45 ec	 mov	 eax, DWORD PTR _uWidth$[ebp]
  00139	89 45 e8	 mov	 DWORD PTR tv193[ebp], eax
  0013c	f2 0f 2a 45 e8	 cvtsi2sd xmm0, DWORD PTR tv193[ebp]
  00141	8b 45 e8	 mov	 eax, DWORD PTR tv193[ebp]
  00144	c1 e8 1f	 shr	 eax, 31			; 0000001fH
  00147	f2 0f 58 04 c5
	00 00 00 00	 addsd	 xmm0, QWORD PTR __xmm@41f00000000000000000000000000000[eax*8]
  00150	f2 0f 11 45 b8	 movsd	 QWORD PTR tv197[ebp], xmm0
  00155	f2 0f 5a 45 b8	 cvtsd2ss xmm0, QWORD PTR tv197[ebp]
  0015a	f3 0f 59 45 d8	 mulss	 xmm0, DWORD PTR _fx$[ebp]
  0015f	51		 push	 ecx
  00160	f3 0f 11 04 24	 movss	 DWORD PTR [esp], xmm0
  00165	8b 0d 00 00 00
	00		 mov	 ecx, DWORD PTR ?ms_singleton@?$CSingleton@VCPythonGraphic@@@@0PAVCPythonGraphic@@A ; CSingleton<CPythonGraphic>::ms_singleton
  0016b	e8 00 00 00 00	 call	 ?SetViewport@CPythonGraphic@@QAEXMMMM@Z ; CPythonGraphic::SetViewport

; 914  : 	return Py_BuildNone();

  00170	e8 00 00 00 00	 call	 ?Py_BuildNone@@YAPAU_object@@XZ ; Py_BuildNone
$LN1@grpSetView:

; 915  : }

  00175	c9		 leave
  00176	c3		 ret	 0
?grpSetViewport@@YAPAU_object@@PAU1@0@Z ENDP		; grpSetViewport
_TEXT	ENDS
; Function compile flags: /Odspy
; File D:\Metin2 Server Files\mainline\SRC_2014\Metin2Client\eterPythonLib\PythonGraphicModule.cpp
;	COMDAT ?grpSetGameRenderState@@YAPAU_object@@PAU1@0@Z
_TEXT	SEGMENT
_poSelf$ = 8						; size = 4
_poArgs$ = 12						; size = 4
?grpSetGameRenderState@@YAPAU_object@@PAU1@0@Z PROC	; grpSetGameRenderState, COMDAT

; 889  : {

  00000	55		 push	 ebp
  00001	8b ec		 mov	 ebp, esp

; 890  : 	CPythonGraphic::Instance().SetGameRenderState();

  00003	8b 0d 00 00 00
	00		 mov	 ecx, DWORD PTR ?ms_singleton@?$CSingleton@VCPythonGraphic@@@@0PAVCPythonGraphic@@A ; CSingleton<CPythonGraphic>::ms_singleton
  00009	e8 00 00 00 00	 call	 ?SetGameRenderState@CPythonGraphic@@QAEXXZ ; CPythonGraphic::SetGameRenderState

; 891  : 	return Py_BuildNone();

  0000e	e8 00 00 00 00	 call	 ?Py_BuildNone@@YAPAU_object@@XZ ; Py_BuildNone

; 892  : }

  00013	5d		 pop	 ebp
  00014	c3		 ret	 0
?grpSetGameRenderState@@YAPAU_object@@PAU1@0@Z ENDP	; grpSetGameRenderState
_TEXT	ENDS
; Function compile flags: /Odspy
; File D:\Metin2 Server Files\mainline\SRC_2014\Metin2Client\eterPythonLib\PythonGraphicModule.cpp
;	COMDAT ?grpSetInterfaceRenderState@@YAPAU_object@@PAU1@0@Z
_TEXT	SEGMENT
_poSelf$ = 8						; size = 4
_poArgs$ = 12						; size = 4
?grpSetInterfaceRenderState@@YAPAU_object@@PAU1@0@Z PROC ; grpSetInterfaceRenderState, COMDAT

; 883  : {

  00000	55		 push	 ebp
  00001	8b ec		 mov	 ebp, esp

; 884  : 	CPythonGraphic::Instance().SetInterfaceRenderState();

  00003	8b 0d 00 00 00
	00		 mov	 ecx, DWORD PTR ?ms_singleton@?$CSingleton@VCPythonGraphic@@@@0PAVCPythonGraphic@@A ; CSingleton<CPythonGraphic>::ms_singleton
  00009	e8 00 00 00 00	 call	 ?SetInterfaceRenderState@CPythonGraphic@@QAEXXZ ; CPythonGraphic::SetInterfaceRenderState

; 885  : 	return Py_BuildNone();

  0000e	e8 00 00 00 00	 call	 ?Py_BuildNone@@YAPAU_object@@XZ ; Py_BuildNone

; 886  : }

  00013	5d		 pop	 ebp
  00014	c3		 ret	 0
?grpSetInterfaceRenderState@@YAPAU_object@@PAU1@0@Z ENDP ; grpSetInterfaceRenderState
_TEXT	ENDS
; Function compile flags: /Odspy
; File D:\Metin2 Server Files\mainline\SRC_2014\Metin2Client\eterPythonLib\PythonGraphicModule.cpp
;	COMDAT ?grpSetGamma@@YAPAU_object@@PAU1@0@Z
_TEXT	SEGMENT
_gamma$ = -4						; size = 4
_poSelf$ = 8						; size = 4
_poArgs$ = 12						; size = 4
?grpSetGamma@@YAPAU_object@@PAU1@0@Z PROC		; grpSetGamma, COMDAT

; 872  : {

  00000	55		 push	 ebp
  00001	8b ec		 mov	 ebp, esp
  00003	51		 push	 ecx

; 873  : 	float gamma;
; 874  : 
; 875  : 	if (!PyTuple_GetFloat(poArgs, 0, &gamma))

  00004	8d 45 fc	 lea	 eax, DWORD PTR _gamma$[ebp]
  00007	50		 push	 eax
  00008	6a 00		 push	 0
  0000a	ff 75 0c	 push	 DWORD PTR _poArgs$[ebp]
  0000d	e8 00 00 00 00	 call	 ?PyTuple_GetFloat@@YA_NPAU_object@@HPAM@Z ; PyTuple_GetFloat
  00012	83 c4 0c	 add	 esp, 12			; 0000000cH
  00015	0f b6 c0	 movzx	 eax, al
  00018	85 c0		 test	 eax, eax
  0001a	75 0a		 jne	 SHORT $LN2@grpSetGamm

; 876  : 		return Py_BuildException();

  0001c	6a 00		 push	 0
  0001e	e8 00 00 00 00	 call	 ?Py_BuildException@@YAPAU_object@@PBDZZ ; Py_BuildException
  00023	59		 pop	 ecx
  00024	eb 1b		 jmp	 SHORT $LN1@grpSetGamm
$LN2@grpSetGamm:

; 877  : 
; 878  : 	CPythonGraphic::Instance().SetGamma(gamma);

  00026	51		 push	 ecx
  00027	f3 0f 10 45 fc	 movss	 xmm0, DWORD PTR _gamma$[ebp]
  0002c	f3 0f 11 04 24	 movss	 DWORD PTR [esp], xmm0
  00031	8b 0d 00 00 00
	00		 mov	 ecx, DWORD PTR ?ms_singleton@?$CSingleton@VCPythonGraphic@@@@0PAVCPythonGraphic@@A ; CSingleton<CPythonGraphic>::ms_singleton
  00037	e8 00 00 00 00	 call	 ?SetGamma@CPythonGraphic@@QAEXM@Z ; CPythonGraphic::SetGamma

; 879  : 	return Py_BuildNone();

  0003c	e8 00 00 00 00	 call	 ?Py_BuildNone@@YAPAU_object@@XZ ; Py_BuildNone
$LN1@grpSetGamm:

; 880  : }

  00041	c9		 leave
  00042	c3		 ret	 0
?grpSetGamma@@YAPAU_object@@PAU1@0@Z ENDP		; grpSetGamma
_TEXT	ENDS
; Function compile flags: /Odspy
; File D:\Metin2 Server Files\mainline\SRC_2014\Metin2Client\eterPythonLib\PythonGraphicModule.cpp
; File C:\Program Files (x86)\Windows Kits\10\Include\10.0.18362.0\ucrt\time.h
; File D:\Metin2 Server Files\mainline\SRC_2014\Metin2Client\eterPythonLib\PythonGraphicModule.cpp
; File C:\Program Files (x86)\Windows Kits\10\Include\10.0.18362.0\ucrt\time.h
; File D:\Metin2 Server Files\mainline\SRC_2014\Metin2Client\eterPythonLib\PythonGraphicModule.cpp
; File D:\Metin2 Server Files\mainline\SRC_2014\Metin2Client\eterBase\Singleton.h
; File D:\Metin2 Server Files\mainline\SRC_2014\Metin2Client\eterPythonLib\PythonGraphicModule.cpp
;	COMDAT ?grpSaveScreenShot@@YAPAU_object@@PAU1@0@Z
_TEXT	SEGMENT
_ct$ = -128						; size = 8
_bResult$ = -120					; size = 4
$T1 = -116						; size = 4
_tmNow$ = -112						; size = 4
_szPath$ = -108						; size = 516
__$ArrayPad$ = 408					; size = 4
_poSelf$ = 420						; size = 4
_poArgs$ = 424						; size = 4
?grpSaveScreenShot@@YAPAU_object@@PAU1@0@Z PROC		; grpSaveScreenShot, COMDAT

; 841  : {

  00000	55		 push	 ebp
  00001	8d ac 24 64 fe
	ff ff		 lea	 ebp, DWORD PTR [esp-412]
  00008	81 ec 1c 02 00
	00		 sub	 esp, 540		; 0000021cH
  0000e	a1 00 00 00 00	 mov	 eax, DWORD PTR ___security_cookie
  00013	33 c5		 xor	 eax, ebp
  00015	89 85 98 01 00
	00		 mov	 DWORD PTR __$ArrayPad$[ebp], eax
; File C:\Program Files (x86)\Windows Kits\10\Include\10.0.18362.0\ucrt\time.h

; 536  :             return _time64(_Time);

  0001b	6a 00		 push	 0
  0001d	e8 00 00 00 00	 call	 __time64
  00022	59		 pop	 ecx
; File D:\Metin2 Server Files\mainline\SRC_2014\Metin2Client\eterPythonLib\PythonGraphicModule.cpp

; 845  : 	ct = time(0);

  00023	89 45 80	 mov	 DWORD PTR _ct$[ebp], eax
  00026	89 55 84	 mov	 DWORD PTR _ct$[ebp+4], edx
; File C:\Program Files (x86)\Windows Kits\10\Include\10.0.18362.0\ucrt\time.h

; 512  :             return _localtime64(_Time);

  00029	8d 45 80	 lea	 eax, DWORD PTR _ct$[ebp]
  0002c	50		 push	 eax
  0002d	e8 00 00 00 00	 call	 __localtime64
  00032	59		 pop	 ecx
; File D:\Metin2 Server Files\mainline\SRC_2014\Metin2Client\eterPythonLib\PythonGraphicModule.cpp

; 846  : 	tmNow = localtime(&ct);

  00033	89 45 90	 mov	 DWORD PTR _tmNow$[ebp], eax

; 847  : 
; 848  : 	char szPath[MAX_PATH + 256];
; 849  : 	SHGetSpecialFolderPath(NULL, szPath, CSIDL_PERSONAL, TRUE);

  00036	6a 01		 push	 1
  00038	6a 05		 push	 5
  0003a	8d 45 94	 lea	 eax, DWORD PTR _szPath$[ebp]
  0003d	50		 push	 eax
  0003e	6a 00		 push	 0
  00040	ff 15 00 00 00
	00		 call	 DWORD PTR __imp__SHGetSpecialFolderPathA@16

; 850  : 	//GetTempPath();
; 851  : 	strcat(szPath, "\\METIN2\\");

  00046	68 00 00 00 00	 push	 OFFSET ??_C@_08KBONKIKA@?2METIN2?2@
  0004b	8d 45 94	 lea	 eax, DWORD PTR _szPath$[ebp]
  0004e	50		 push	 eax
  0004f	e8 00 00 00 00	 call	 _strcat
  00054	59		 pop	 ecx
  00055	59		 pop	 ecx

; 852  : 
; 853  : 	if (-1 == _access(szPath, 0))

  00056	6a 00		 push	 0
  00058	8d 45 94	 lea	 eax, DWORD PTR _szPath$[ebp]
  0005b	50		 push	 eax
  0005c	e8 00 00 00 00	 call	 __access
  00061	59		 pop	 ecx
  00062	59		 pop	 ecx
  00063	83 f8 ff	 cmp	 eax, -1
  00066	75 37		 jne	 SHORT $LN2@grpSaveScr

; 854  : 		if (!CreateDirectory(szPath, NULL))

  00068	6a 00		 push	 0
  0006a	8d 45 94	 lea	 eax, DWORD PTR _szPath$[ebp]
  0006d	50		 push	 eax
  0006e	ff 15 00 00 00
	00		 call	 DWORD PTR __imp__CreateDirectoryA@8
  00074	85 c0		 test	 eax, eax
  00076	75 27		 jne	 SHORT $LN2@grpSaveScr

; 855  : 		{
; 856  : 			TraceError("Failed to create directory [%s]\n", szPath);

  00078	8d 45 94	 lea	 eax, DWORD PTR _szPath$[ebp]
  0007b	50		 push	 eax
  0007c	68 00 00 00 00	 push	 OFFSET ??_C@_0CB@MCALMLJH@Failed?5to?5create?5directory?5?$FL?$CFs?$FN@
  00081	e8 00 00 00 00	 call	 ?TraceError@@YAXPBDZZ	; TraceError
  00086	59		 pop	 ecx
  00087	59		 pop	 ecx

; 857  : 			return Py_BuildValue("(is)", FALSE, "");

  00088	68 00 00 00 00	 push	 OFFSET ??_C@_00CNPNBAHC@@
  0008d	6a 00		 push	 0
  0008f	68 00 00 00 00	 push	 OFFSET ??_C@_04JMLDJNEM@?$CIis?$CJ@
  00094	ff 15 00 00 00
	00		 call	 DWORD PTR __imp__Py_BuildValue
  0009a	83 c4 0c	 add	 esp, 12			; 0000000cH
  0009d	eb 6a		 jmp	 SHORT $LN1@grpSaveScr
$LN2@grpSaveScr:

; 858  : 		}
; 859  : 
; 860  : 	sprintf(szPath + strlen(szPath), "%02d%02d_%02d%02d%02d.jpg", 

  0009f	8b 45 90	 mov	 eax, DWORD PTR _tmNow$[ebp]
  000a2	ff 30		 push	 DWORD PTR [eax]
  000a4	8b 45 90	 mov	 eax, DWORD PTR _tmNow$[ebp]
  000a7	ff 70 04	 push	 DWORD PTR [eax+4]
  000aa	8b 45 90	 mov	 eax, DWORD PTR _tmNow$[ebp]
  000ad	ff 70 08	 push	 DWORD PTR [eax+8]
  000b0	8b 45 90	 mov	 eax, DWORD PTR _tmNow$[ebp]
  000b3	ff 70 0c	 push	 DWORD PTR [eax+12]
  000b6	8b 45 90	 mov	 eax, DWORD PTR _tmNow$[ebp]
  000b9	8b 40 10	 mov	 eax, DWORD PTR [eax+16]
  000bc	40		 inc	 eax
  000bd	50		 push	 eax
  000be	68 00 00 00 00	 push	 OFFSET ??_C@_0BK@BHNKPMOJ@?$CF02d?$CF02d_?$CF02d?$CF02d?$CF02d?4jpg@
  000c3	8d 45 94	 lea	 eax, DWORD PTR _szPath$[ebp]
  000c6	50		 push	 eax
  000c7	e8 00 00 00 00	 call	 _strlen
  000cc	59		 pop	 ecx
  000cd	8d 44 05 94	 lea	 eax, DWORD PTR _szPath$[ebp+eax]
  000d1	50		 push	 eax
  000d2	e8 00 00 00 00	 call	 _sprintf
  000d7	83 c4 1c	 add	 esp, 28			; 0000001cH
; File D:\Metin2 Server Files\mainline\SRC_2014\Metin2Client\eterBase\Singleton.h

; 27   : 		return (*ms_singleton);

  000da	a1 00 00 00 00	 mov	 eax, DWORD PTR ?ms_singleton@?$CSingleton@VCPythonGraphic@@@@0PAVCPythonGraphic@@A ; CSingleton<CPythonGraphic>::ms_singleton
  000df	89 45 8c	 mov	 DWORD PTR $T1[ebp], eax
; File D:\Metin2 Server Files\mainline\SRC_2014\Metin2Client\eterPythonLib\PythonGraphicModule.cpp

; 867  : 	BOOL bResult = CPythonGraphic::Instance().SaveScreenShot(szPath);

  000e2	8d 45 94	 lea	 eax, DWORD PTR _szPath$[ebp]
  000e5	50		 push	 eax
  000e6	8b 4d 8c	 mov	 ecx, DWORD PTR $T1[ebp]
  000e9	e8 00 00 00 00	 call	 ?SaveScreenShot@CPythonGraphic@@QAE_NPBD@Z ; CPythonGraphic::SaveScreenShot
  000ee	0f b6 c0	 movzx	 eax, al
  000f1	89 45 88	 mov	 DWORD PTR _bResult$[ebp], eax

; 868  : 	return Py_BuildValue("(is)", bResult, szPath);

  000f4	8d 45 94	 lea	 eax, DWORD PTR _szPath$[ebp]
  000f7	50		 push	 eax
  000f8	ff 75 88	 push	 DWORD PTR _bResult$[ebp]
  000fb	68 00 00 00 00	 push	 OFFSET ??_C@_04JMLDJNEM@?$CIis?$CJ@
  00100	ff 15 00 00 00
	00		 call	 DWORD PTR __imp__Py_BuildValue
  00106	83 c4 0c	 add	 esp, 12			; 0000000cH
$LN1@grpSaveScr:

; 869  : }

  00109	8b 8d 98 01 00
	00		 mov	 ecx, DWORD PTR __$ArrayPad$[ebp]
  0010f	33 cd		 xor	 ecx, ebp
  00111	e8 00 00 00 00	 call	 @__security_check_cookie@4
  00116	81 c5 9c 01 00
	00		 add	 ebp, 412		; 0000019cH
  0011c	c9		 leave
  0011d	c3		 ret	 0
?grpSaveScreenShot@@YAPAU_object@@PAU1@0@Z ENDP		; grpSaveScreenShot
_TEXT	ENDS
; Function compile flags: /Odspy
; File D:\Metin2 Server Files\mainline\SRC_2014\Metin2Client\eterPythonLib\PythonGraphicModule.cpp
; File C:\Program Files (x86)\Windows Kits\10\Include\10.0.18362.0\ucrt\time.h
; File D:\Metin2 Server Files\mainline\SRC_2014\Metin2Client\eterPythonLib\PythonGraphicModule.cpp
; File C:\Program Files (x86)\Windows Kits\10\Include\10.0.18362.0\ucrt\time.h
; File D:\Metin2 Server Files\mainline\SRC_2014\Metin2Client\eterPythonLib\PythonGraphicModule.cpp
; File D:\Metin2 Server Files\mainline\SRC_2014\Metin2Client\eterBase\Singleton.h
; File D:\Metin2 Server Files\mainline\SRC_2014\Metin2Client\eterPythonLib\PythonGraphicModule.cpp
;	COMDAT ?grpSaveScreenShotToPath@@YAPAU_object@@PAU1@0@Z
_TEXT	SEGMENT
_ct$ = -128						; size = 8
_bResult$ = -120					; size = 4
$T1 = -116						; size = 4
_szBasePath$ = -112					; size = 4
_tmNow$ = -108						; size = 4
_szPath$ = -104						; size = 516
__$ArrayPad$ = 412					; size = 4
_poSelf$ = 424						; size = 4
_poArgs$ = 428						; size = 4
?grpSaveScreenShotToPath@@YAPAU_object@@PAU1@0@Z PROC	; grpSaveScreenShotToPath, COMDAT

; 815  : {

  00000	55		 push	 ebp
  00001	8d ac 24 60 fe
	ff ff		 lea	 ebp, DWORD PTR [esp-416]
  00008	81 ec 20 02 00
	00		 sub	 esp, 544		; 00000220H
  0000e	a1 00 00 00 00	 mov	 eax, DWORD PTR ___security_cookie
  00013	33 c5		 xor	 eax, ebp
  00015	89 85 9c 01 00
	00		 mov	 DWORD PTR __$ArrayPad$[ebp], eax

; 816  : 	char * szBasePath;
; 817  : 	if (!PyTuple_GetString(poArgs, 0, &szBasePath))

  0001b	8d 45 90	 lea	 eax, DWORD PTR _szBasePath$[ebp]
  0001e	50		 push	 eax
  0001f	6a 00		 push	 0
  00021	ff b5 ac 01 00
	00		 push	 DWORD PTR _poArgs$[ebp]
  00027	e8 00 00 00 00	 call	 ?PyTuple_GetString@@YA_NPAU_object@@HPAPAD@Z ; PyTuple_GetString
  0002c	83 c4 0c	 add	 esp, 12			; 0000000cH
  0002f	0f b6 c0	 movzx	 eax, al
  00032	85 c0		 test	 eax, eax
  00034	75 0d		 jne	 SHORT $LN4@grpSaveScr

; 818  : 		return Py_BuildException();

  00036	6a 00		 push	 0
  00038	e8 00 00 00 00	 call	 ?Py_BuildException@@YAPAU_object@@PBDZZ ; Py_BuildException
  0003d	59		 pop	 ecx
  0003e	e9 82 00 00 00	 jmp	 $LN1@grpSaveScr
$LN4@grpSaveScr:
; File C:\Program Files (x86)\Windows Kits\10\Include\10.0.18362.0\ucrt\time.h

; 536  :             return _time64(_Time);

  00043	6a 00		 push	 0
  00045	e8 00 00 00 00	 call	 __time64
  0004a	59		 pop	 ecx
; File D:\Metin2 Server Files\mainline\SRC_2014\Metin2Client\eterPythonLib\PythonGraphicModule.cpp

; 823  : 	ct = time(0);

  0004b	89 45 80	 mov	 DWORD PTR _ct$[ebp], eax
  0004e	89 55 84	 mov	 DWORD PTR _ct$[ebp+4], edx
; File C:\Program Files (x86)\Windows Kits\10\Include\10.0.18362.0\ucrt\time.h

; 512  :             return _localtime64(_Time);

  00051	8d 45 80	 lea	 eax, DWORD PTR _ct$[ebp]
  00054	50		 push	 eax
  00055	e8 00 00 00 00	 call	 __localtime64
  0005a	59		 pop	 ecx
; File D:\Metin2 Server Files\mainline\SRC_2014\Metin2Client\eterPythonLib\PythonGraphicModule.cpp

; 824  : 	tmNow = localtime(&ct);

  0005b	89 45 94	 mov	 DWORD PTR _tmNow$[ebp], eax

; 825  : 
; 826  : 	char szPath[MAX_PATH + 256];
; 827  : 	snprintf(szPath, sizeof(szPath), "%s%02d%02d_%02d%02d%02d.jpg", 

  0005e	8b 45 94	 mov	 eax, DWORD PTR _tmNow$[ebp]
  00061	ff 30		 push	 DWORD PTR [eax]
  00063	8b 45 94	 mov	 eax, DWORD PTR _tmNow$[ebp]
  00066	ff 70 04	 push	 DWORD PTR [eax+4]
  00069	8b 45 94	 mov	 eax, DWORD PTR _tmNow$[ebp]
  0006c	ff 70 08	 push	 DWORD PTR [eax+8]
  0006f	8b 45 94	 mov	 eax, DWORD PTR _tmNow$[ebp]
  00072	ff 70 0c	 push	 DWORD PTR [eax+12]
  00075	8b 45 94	 mov	 eax, DWORD PTR _tmNow$[ebp]
  00078	8b 40 10	 mov	 eax, DWORD PTR [eax+16]
  0007b	40		 inc	 eax
  0007c	50		 push	 eax
  0007d	ff 75 90	 push	 DWORD PTR _szBasePath$[ebp]
  00080	68 00 00 00 00	 push	 OFFSET ??_C@_0BM@PKDBOENC@?$CFs?$CF02d?$CF02d_?$CF02d?$CF02d?$CF02d?4jpg@
  00085	68 04 02 00 00	 push	 516			; 00000204H
  0008a	8d 45 98	 lea	 eax, DWORD PTR _szPath$[ebp]
  0008d	50		 push	 eax
  0008e	e8 00 00 00 00	 call	 __snprintf
  00093	83 c4 24	 add	 esp, 36			; 00000024H
; File D:\Metin2 Server Files\mainline\SRC_2014\Metin2Client\eterBase\Singleton.h

; 27   : 		return (*ms_singleton);

  00096	a1 00 00 00 00	 mov	 eax, DWORD PTR ?ms_singleton@?$CSingleton@VCPythonGraphic@@@@0PAVCPythonGraphic@@A ; CSingleton<CPythonGraphic>::ms_singleton
  0009b	89 45 8c	 mov	 DWORD PTR $T1[ebp], eax
; File D:\Metin2 Server Files\mainline\SRC_2014\Metin2Client\eterPythonLib\PythonGraphicModule.cpp

; 835  : 	BOOL bResult = CPythonGraphic::Instance().SaveScreenShot(szPath);

  0009e	8d 45 98	 lea	 eax, DWORD PTR _szPath$[ebp]
  000a1	50		 push	 eax
  000a2	8b 4d 8c	 mov	 ecx, DWORD PTR $T1[ebp]
  000a5	e8 00 00 00 00	 call	 ?SaveScreenShot@CPythonGraphic@@QAE_NPBD@Z ; CPythonGraphic::SaveScreenShot
  000aa	0f b6 c0	 movzx	 eax, al
  000ad	89 45 88	 mov	 DWORD PTR _bResult$[ebp], eax

; 836  : 	return Py_BuildValue("(is)", bResult, szPath);

  000b0	8d 45 98	 lea	 eax, DWORD PTR _szPath$[ebp]
  000b3	50		 push	 eax
  000b4	ff 75 88	 push	 DWORD PTR _bResult$[ebp]
  000b7	68 00 00 00 00	 push	 OFFSET ??_C@_04JMLDJNEM@?$CIis?$CJ@
  000bc	ff 15 00 00 00
	00		 call	 DWORD PTR __imp__Py_BuildValue
  000c2	83 c4 0c	 add	 esp, 12			; 0000000cH
$LN1@grpSaveScr:

; 837  : }

  000c5	8b 8d 9c 01 00
	00		 mov	 ecx, DWORD PTR __$ArrayPad$[ebp]
  000cb	33 cd		 xor	 ecx, ebp
  000cd	e8 00 00 00 00	 call	 @__security_check_cookie@4
  000d2	81 c5 a0 01 00
	00		 add	 ebp, 416		; 000001a0H
  000d8	c9		 leave
  000d9	c3		 ret	 0
?grpSaveScreenShotToPath@@YAPAU_object@@PAU1@0@Z ENDP	; grpSaveScreenShotToPath
_TEXT	ENDS
; Function compile flags: /Odspy
; File D:\Metin2 Server Files\mainline\SRC_2014\Metin2Client\eterPythonLib\PythonGraphicModule.cpp
; File D:\Metin2 Server Files\mainline\SRC_2014\Metin2Client\eterBase\Singleton.h
; File D:\Metin2 Server Files\mainline\SRC_2014\Metin2Client\eterPythonLib\PythonGraphicModule.cpp
;	COMDAT ?grpGetAvailableMemory@@YAPAU_object@@PAU1@0@Z
_TEXT	SEGMENT
_iValue$ = -8						; size = 4
$T1 = -4						; size = 4
_poSelf$ = 8						; size = 4
_poArgs$ = 12						; size = 4
?grpGetAvailableMemory@@YAPAU_object@@PAU1@0@Z PROC	; grpGetAvailableMemory, COMDAT

; 808  : {

  00000	55		 push	 ebp
  00001	8b ec		 mov	 ebp, esp
  00003	51		 push	 ecx
  00004	51		 push	 ecx
; File D:\Metin2 Server Files\mainline\SRC_2014\Metin2Client\eterBase\Singleton.h

; 27   : 		return (*ms_singleton);

  00005	a1 00 00 00 00	 mov	 eax, DWORD PTR ?ms_singleton@?$CSingleton@VCPythonGraphic@@@@0PAVCPythonGraphic@@A ; CSingleton<CPythonGraphic>::ms_singleton
  0000a	89 45 fc	 mov	 DWORD PTR $T1[ebp], eax
; File D:\Metin2 Server Files\mainline\SRC_2014\Metin2Client\eterPythonLib\PythonGraphicModule.cpp

; 809  : 	int iValue = CPythonGraphic::Instance().GetAvailableMemory();

  0000d	8b 4d fc	 mov	 ecx, DWORD PTR $T1[ebp]
  00010	e8 00 00 00 00	 call	 ?GetAvailableMemory@CPythonGraphic@@QAEKXZ ; CPythonGraphic::GetAvailableMemory
  00015	89 45 f8	 mov	 DWORD PTR _iValue$[ebp], eax

; 810  : 	return Py_BuildValue("i", iValue);

  00018	ff 75 f8	 push	 DWORD PTR _iValue$[ebp]
  0001b	68 00 00 00 00	 push	 OFFSET ??_C@_01KBJDNOO@i@
  00020	ff 15 00 00 00
	00		 call	 DWORD PTR __imp__Py_BuildValue
  00026	59		 pop	 ecx
  00027	59		 pop	 ecx

; 811  : }

  00028	c9		 leave
  00029	c3		 ret	 0
?grpGetAvailableMemory@@YAPAU_object@@PAU1@0@Z ENDP	; grpGetAvailableMemory
_TEXT	ENDS
; Function compile flags: /Odspy
; File D:\Metin2 Server Files\mainline\SRC_2014\Metin2Client\eterPythonLib\PythonGraphicModule.cpp
;	COMDAT ?grpIdentity@@YAPAU_object@@PAU1@0@Z
_TEXT	SEGMENT
_poSelf$ = 8						; size = 4
_poArgs$ = 12						; size = 4
?grpIdentity@@YAPAU_object@@PAU1@0@Z PROC		; grpIdentity, COMDAT

; 802  : {

  00000	55		 push	 ebp
  00001	8b ec		 mov	 ebp, esp

; 803  : 	CPythonGraphic::Instance().Identity();

  00003	e8 00 00 00 00	 call	 ?Identity@CScreen@@SAXXZ ; CScreen::Identity

; 804  : 	return Py_BuildNone();

  00008	e8 00 00 00 00	 call	 ?Py_BuildNone@@YAPAU_object@@XZ ; Py_BuildNone

; 805  : }

  0000d	5d		 pop	 ebp
  0000e	c3		 ret	 0
?grpIdentity@@YAPAU_object@@PAU1@0@Z ENDP		; grpIdentity
_TEXT	ENDS
; Function compile flags: /Odspy
; File D:\Metin2 Server Files\mainline\SRC_2014\Metin2Client\eterPythonLib\PythonGraphicModule.cpp
;	COMDAT ?grpSetDiffuseColor@@YAPAU_object@@PAU1@0@Z
_TEXT	SEGMENT
_r$ = -16						; size = 4
_g$ = -12						; size = 4
_b$ = -8						; size = 4
_a$ = -4						; size = 4
_poSelf$ = 8						; size = 4
_poArgs$ = 12						; size = 4
?grpSetDiffuseColor@@YAPAU_object@@PAU1@0@Z PROC	; grpSetDiffuseColor, COMDAT

; 780  : {

  00000	55		 push	 ebp
  00001	8b ec		 mov	 ebp, esp
  00003	83 ec 10	 sub	 esp, 16			; 00000010H

; 781  : 	float r;
; 782  : 	if (!PyTuple_GetFloat(poArgs, 0, &r))

  00006	8d 45 f0	 lea	 eax, DWORD PTR _r$[ebp]
  00009	50		 push	 eax
  0000a	6a 00		 push	 0
  0000c	ff 75 0c	 push	 DWORD PTR _poArgs$[ebp]
  0000f	e8 00 00 00 00	 call	 ?PyTuple_GetFloat@@YA_NPAU_object@@HPAM@Z ; PyTuple_GetFloat
  00014	83 c4 0c	 add	 esp, 12			; 0000000cH
  00017	0f b6 c0	 movzx	 eax, al
  0001a	85 c0		 test	 eax, eax
  0001c	75 0d		 jne	 SHORT $LN2@grpSetDiff

; 783  : 		return Py_BuildException();

  0001e	6a 00		 push	 0
  00020	e8 00 00 00 00	 call	 ?Py_BuildException@@YAPAU_object@@PBDZZ ; Py_BuildException
  00025	59		 pop	 ecx
  00026	e9 a5 00 00 00	 jmp	 $LN1@grpSetDiff
$LN2@grpSetDiff:

; 784  : 
; 785  : 	float g;
; 786  : 	if (!PyTuple_GetFloat(poArgs, 1, &g))

  0002b	8d 45 f4	 lea	 eax, DWORD PTR _g$[ebp]
  0002e	50		 push	 eax
  0002f	6a 01		 push	 1
  00031	ff 75 0c	 push	 DWORD PTR _poArgs$[ebp]
  00034	e8 00 00 00 00	 call	 ?PyTuple_GetFloat@@YA_NPAU_object@@HPAM@Z ; PyTuple_GetFloat
  00039	83 c4 0c	 add	 esp, 12			; 0000000cH
  0003c	0f b6 c0	 movzx	 eax, al
  0003f	85 c0		 test	 eax, eax
  00041	75 0d		 jne	 SHORT $LN3@grpSetDiff

; 787  : 		return Py_BuildException();

  00043	6a 00		 push	 0
  00045	e8 00 00 00 00	 call	 ?Py_BuildException@@YAPAU_object@@PBDZZ ; Py_BuildException
  0004a	59		 pop	 ecx
  0004b	e9 80 00 00 00	 jmp	 $LN1@grpSetDiff
$LN3@grpSetDiff:

; 788  : 
; 789  : 	float b;
; 790  : 	if (!PyTuple_GetFloat(poArgs, 2, &b))

  00050	8d 45 f8	 lea	 eax, DWORD PTR _b$[ebp]
  00053	50		 push	 eax
  00054	6a 02		 push	 2
  00056	ff 75 0c	 push	 DWORD PTR _poArgs$[ebp]
  00059	e8 00 00 00 00	 call	 ?PyTuple_GetFloat@@YA_NPAU_object@@HPAM@Z ; PyTuple_GetFloat
  0005e	83 c4 0c	 add	 esp, 12			; 0000000cH
  00061	0f b6 c0	 movzx	 eax, al
  00064	85 c0		 test	 eax, eax
  00066	75 0a		 jne	 SHORT $LN4@grpSetDiff

; 791  : 		return Py_BuildException();

  00068	6a 00		 push	 0
  0006a	e8 00 00 00 00	 call	 ?Py_BuildException@@YAPAU_object@@PBDZZ ; Py_BuildException
  0006f	59		 pop	 ecx
  00070	eb 5e		 jmp	 SHORT $LN1@grpSetDiff
$LN4@grpSetDiff:

; 792  : 
; 793  : 	float a;
; 794  : 	if (!PyTuple_GetFloat(poArgs, 3, &a))

  00072	8d 45 fc	 lea	 eax, DWORD PTR _a$[ebp]
  00075	50		 push	 eax
  00076	6a 03		 push	 3
  00078	ff 75 0c	 push	 DWORD PTR _poArgs$[ebp]
  0007b	e8 00 00 00 00	 call	 ?PyTuple_GetFloat@@YA_NPAU_object@@HPAM@Z ; PyTuple_GetFloat
  00080	83 c4 0c	 add	 esp, 12			; 0000000cH
  00083	0f b6 c0	 movzx	 eax, al
  00086	85 c0		 test	 eax, eax
  00088	75 0a		 jne	 SHORT $LN5@grpSetDiff

; 795  : 		return Py_BuildException();

  0008a	6a 00		 push	 0
  0008c	e8 00 00 00 00	 call	 ?Py_BuildException@@YAPAU_object@@PBDZZ ; Py_BuildException
  00091	59		 pop	 ecx
  00092	eb 3c		 jmp	 SHORT $LN1@grpSetDiff
$LN5@grpSetDiff:

; 796  : 
; 797  : 	CPythonGraphic::Instance().SetDiffuseColor(r, g, b, a);

  00094	51		 push	 ecx
  00095	f3 0f 10 45 fc	 movss	 xmm0, DWORD PTR _a$[ebp]
  0009a	f3 0f 11 04 24	 movss	 DWORD PTR [esp], xmm0
  0009f	51		 push	 ecx
  000a0	f3 0f 10 45 f8	 movss	 xmm0, DWORD PTR _b$[ebp]
  000a5	f3 0f 11 04 24	 movss	 DWORD PTR [esp], xmm0
  000aa	51		 push	 ecx
  000ab	f3 0f 10 45 f4	 movss	 xmm0, DWORD PTR _g$[ebp]
  000b0	f3 0f 11 04 24	 movss	 DWORD PTR [esp], xmm0
  000b5	51		 push	 ecx
  000b6	f3 0f 10 45 f0	 movss	 xmm0, DWORD PTR _r$[ebp]
  000bb	f3 0f 11 04 24	 movss	 DWORD PTR [esp], xmm0
  000c0	8b 0d 00 00 00
	00		 mov	 ecx, DWORD PTR ?ms_singleton@?$CSingleton@VCPythonGraphic@@@@0PAVCPythonGraphic@@A ; CSingleton<CPythonGraphic>::ms_singleton
  000c6	e8 00 00 00 00	 call	 ?SetDiffuseColor@CScreen@@QAEXMMMM@Z ; CScreen::SetDiffuseColor

; 798  : 	return Py_BuildNone();

  000cb	e8 00 00 00 00	 call	 ?Py_BuildNone@@YAPAU_object@@XZ ; Py_BuildNone
$LN1@grpSetDiff:

; 799  : }

  000d0	c9		 leave
  000d1	c3		 ret	 0
?grpSetDiffuseColor@@YAPAU_object@@PAU1@0@Z ENDP	; grpSetDiffuseColor
_TEXT	ENDS
; Function compile flags: /Odspy
; File D:\Metin2 Server Files\mainline\SRC_2014\Metin2Client\eterPythonLib\PythonGraphicModule.cpp
;	COMDAT ?grpSetClearColor@@YAPAU_object@@PAU1@0@Z
_TEXT	SEGMENT
_fr$ = -12						; size = 4
_fg$ = -8						; size = 4
_fb$ = -4						; size = 4
_poSelf$ = 8						; size = 4
_poArgs$ = 12						; size = 4
?grpSetClearColor@@YAPAU_object@@PAU1@0@Z PROC		; grpSetClearColor, COMDAT

; 762  : {

  00000	55		 push	 ebp
  00001	8b ec		 mov	 ebp, esp
  00003	83 ec 0c	 sub	 esp, 12			; 0000000cH

; 763  : 	float fr;
; 764  : 	if (!PyTuple_GetFloat(poArgs, 0, &fr))

  00006	8d 45 f4	 lea	 eax, DWORD PTR _fr$[ebp]
  00009	50		 push	 eax
  0000a	6a 00		 push	 0
  0000c	ff 75 0c	 push	 DWORD PTR _poArgs$[ebp]
  0000f	e8 00 00 00 00	 call	 ?PyTuple_GetFloat@@YA_NPAU_object@@HPAM@Z ; PyTuple_GetFloat
  00014	83 c4 0c	 add	 esp, 12			; 0000000cH
  00017	0f b6 c0	 movzx	 eax, al
  0001a	85 c0		 test	 eax, eax
  0001c	75 0d		 jne	 SHORT $LN2@grpSetClea

; 765  : 		return Py_BuildException();

  0001e	6a 00		 push	 0
  00020	e8 00 00 00 00	 call	 ?Py_BuildException@@YAPAU_object@@PBDZZ ; Py_BuildException
  00025	59		 pop	 ecx
  00026	e9 83 00 00 00	 jmp	 $LN1@grpSetClea
$LN2@grpSetClea:

; 766  : 
; 767  : 	float fg;
; 768  : 	if (!PyTuple_GetFloat(poArgs, 1, &fg))

  0002b	8d 45 f8	 lea	 eax, DWORD PTR _fg$[ebp]
  0002e	50		 push	 eax
  0002f	6a 01		 push	 1
  00031	ff 75 0c	 push	 DWORD PTR _poArgs$[ebp]
  00034	e8 00 00 00 00	 call	 ?PyTuple_GetFloat@@YA_NPAU_object@@HPAM@Z ; PyTuple_GetFloat
  00039	83 c4 0c	 add	 esp, 12			; 0000000cH
  0003c	0f b6 c0	 movzx	 eax, al
  0003f	85 c0		 test	 eax, eax
  00041	75 0a		 jne	 SHORT $LN3@grpSetClea

; 769  : 		return Py_BuildException();

  00043	6a 00		 push	 0
  00045	e8 00 00 00 00	 call	 ?Py_BuildException@@YAPAU_object@@PBDZZ ; Py_BuildException
  0004a	59		 pop	 ecx
  0004b	eb 61		 jmp	 SHORT $LN1@grpSetClea
$LN3@grpSetClea:

; 770  : 
; 771  : 	float fb;
; 772  : 	if (!PyTuple_GetFloat(poArgs, 2, &fb))

  0004d	8d 45 fc	 lea	 eax, DWORD PTR _fb$[ebp]
  00050	50		 push	 eax
  00051	6a 02		 push	 2
  00053	ff 75 0c	 push	 DWORD PTR _poArgs$[ebp]
  00056	e8 00 00 00 00	 call	 ?PyTuple_GetFloat@@YA_NPAU_object@@HPAM@Z ; PyTuple_GetFloat
  0005b	83 c4 0c	 add	 esp, 12			; 0000000cH
  0005e	0f b6 c0	 movzx	 eax, al
  00061	85 c0		 test	 eax, eax
  00063	75 0a		 jne	 SHORT $LN4@grpSetClea

; 773  : 		return Py_BuildException();

  00065	6a 00		 push	 0
  00067	e8 00 00 00 00	 call	 ?Py_BuildException@@YAPAU_object@@PBDZZ ; Py_BuildException
  0006c	59		 pop	 ecx
  0006d	eb 3f		 jmp	 SHORT $LN1@grpSetClea
$LN4@grpSetClea:

; 774  : 
; 775  : 	CPythonGraphic::Instance().SetClearColor(fr, fg, fb, 1.0f);

  0006f	51		 push	 ecx
  00070	f3 0f 10 05 00
	00 00 00	 movss	 xmm0, DWORD PTR __real@3f800000
  00078	f3 0f 11 04 24	 movss	 DWORD PTR [esp], xmm0
  0007d	51		 push	 ecx
  0007e	f3 0f 10 45 fc	 movss	 xmm0, DWORD PTR _fb$[ebp]
  00083	f3 0f 11 04 24	 movss	 DWORD PTR [esp], xmm0
  00088	51		 push	 ecx
  00089	f3 0f 10 45 f8	 movss	 xmm0, DWORD PTR _fg$[ebp]
  0008e	f3 0f 11 04 24	 movss	 DWORD PTR [esp], xmm0
  00093	51		 push	 ecx
  00094	f3 0f 10 45 f4	 movss	 xmm0, DWORD PTR _fr$[ebp]
  00099	f3 0f 11 04 24	 movss	 DWORD PTR [esp], xmm0
  0009e	8b 0d 00 00 00
	00		 mov	 ecx, DWORD PTR ?ms_singleton@?$CSingleton@VCPythonGraphic@@@@0PAVCPythonGraphic@@A ; CSingleton<CPythonGraphic>::ms_singleton
  000a4	e8 00 00 00 00	 call	 ?SetClearColor@CScreen@@QAEXMMMM@Z ; CScreen::SetClearColor

; 776  : 	return Py_BuildNone();

  000a9	e8 00 00 00 00	 call	 ?Py_BuildNone@@YAPAU_object@@XZ ; Py_BuildNone
$LN1@grpSetClea:

; 777  : }

  000ae	c9		 leave
  000af	c3		 ret	 0
?grpSetClearColor@@YAPAU_object@@PAU1@0@Z ENDP		; grpSetClearColor
_TEXT	ENDS
; Function compile flags: /Odspy
; File D:\Metin2 Server Files\mainline\SRC_2014\Metin2Client\eterPythonLib\PythonGraphicModule.cpp
;	COMDAT ?grpRenderBox3d@@YAPAU_object@@PAU1@0@Z
_TEXT	SEGMENT
_sx$ = -24						; size = 4
_sy$ = -20						; size = 4
_sz$ = -16						; size = 4
_ex$ = -12						; size = 4
_ey$ = -8						; size = 4
_ez$ = -4						; size = 4
_poSelf$ = 8						; size = 4
_poArgs$ = 12						; size = 4
?grpRenderBox3d@@YAPAU_object@@PAU1@0@Z PROC		; grpRenderBox3d, COMDAT

; 732  : {

  00000	55		 push	 ebp
  00001	8b ec		 mov	 ebp, esp
  00003	83 ec 18	 sub	 esp, 24			; 00000018H

; 733  : 	float sx;
; 734  : 	if (!PyTuple_GetFloat(poArgs, 0, &sx))

  00006	8d 45 e8	 lea	 eax, DWORD PTR _sx$[ebp]
  00009	50		 push	 eax
  0000a	6a 00		 push	 0
  0000c	ff 75 0c	 push	 DWORD PTR _poArgs$[ebp]
  0000f	e8 00 00 00 00	 call	 ?PyTuple_GetFloat@@YA_NPAU_object@@HPAM@Z ; PyTuple_GetFloat
  00014	83 c4 0c	 add	 esp, 12			; 0000000cH
  00017	0f b6 c0	 movzx	 eax, al
  0001a	85 c0		 test	 eax, eax
  0001c	75 0d		 jne	 SHORT $LN2@grpRenderB

; 735  : 		return Py_BuildException();

  0001e	6a 00		 push	 0
  00020	e8 00 00 00 00	 call	 ?Py_BuildException@@YAPAU_object@@PBDZZ ; Py_BuildException
  00025	59		 pop	 ecx
  00026	e9 05 01 00 00	 jmp	 $LN1@grpRenderB
$LN2@grpRenderB:

; 736  : 
; 737  : 	float sy;
; 738  : 	if (!PyTuple_GetFloat(poArgs, 1, &sy))

  0002b	8d 45 ec	 lea	 eax, DWORD PTR _sy$[ebp]
  0002e	50		 push	 eax
  0002f	6a 01		 push	 1
  00031	ff 75 0c	 push	 DWORD PTR _poArgs$[ebp]
  00034	e8 00 00 00 00	 call	 ?PyTuple_GetFloat@@YA_NPAU_object@@HPAM@Z ; PyTuple_GetFloat
  00039	83 c4 0c	 add	 esp, 12			; 0000000cH
  0003c	0f b6 c0	 movzx	 eax, al
  0003f	85 c0		 test	 eax, eax
  00041	75 0d		 jne	 SHORT $LN3@grpRenderB

; 739  : 		return Py_BuildException();

  00043	6a 00		 push	 0
  00045	e8 00 00 00 00	 call	 ?Py_BuildException@@YAPAU_object@@PBDZZ ; Py_BuildException
  0004a	59		 pop	 ecx
  0004b	e9 e0 00 00 00	 jmp	 $LN1@grpRenderB
$LN3@grpRenderB:

; 740  : 
; 741  : 	float sz;
; 742  : 	if (!PyTuple_GetFloat(poArgs, 2, &sz))

  00050	8d 45 f0	 lea	 eax, DWORD PTR _sz$[ebp]
  00053	50		 push	 eax
  00054	6a 02		 push	 2
  00056	ff 75 0c	 push	 DWORD PTR _poArgs$[ebp]
  00059	e8 00 00 00 00	 call	 ?PyTuple_GetFloat@@YA_NPAU_object@@HPAM@Z ; PyTuple_GetFloat
  0005e	83 c4 0c	 add	 esp, 12			; 0000000cH
  00061	0f b6 c0	 movzx	 eax, al
  00064	85 c0		 test	 eax, eax
  00066	75 0d		 jne	 SHORT $LN4@grpRenderB

; 743  : 		return Py_BuildException();

  00068	6a 00		 push	 0
  0006a	e8 00 00 00 00	 call	 ?Py_BuildException@@YAPAU_object@@PBDZZ ; Py_BuildException
  0006f	59		 pop	 ecx
  00070	e9 bb 00 00 00	 jmp	 $LN1@grpRenderB
$LN4@grpRenderB:

; 744  : 
; 745  : 	float ex;
; 746  : 	if (!PyTuple_GetFloat(poArgs, 3, &ex))

  00075	8d 45 f4	 lea	 eax, DWORD PTR _ex$[ebp]
  00078	50		 push	 eax
  00079	6a 03		 push	 3
  0007b	ff 75 0c	 push	 DWORD PTR _poArgs$[ebp]
  0007e	e8 00 00 00 00	 call	 ?PyTuple_GetFloat@@YA_NPAU_object@@HPAM@Z ; PyTuple_GetFloat
  00083	83 c4 0c	 add	 esp, 12			; 0000000cH
  00086	0f b6 c0	 movzx	 eax, al
  00089	85 c0		 test	 eax, eax
  0008b	75 0d		 jne	 SHORT $LN5@grpRenderB

; 747  : 		return Py_BuildException();

  0008d	6a 00		 push	 0
  0008f	e8 00 00 00 00	 call	 ?Py_BuildException@@YAPAU_object@@PBDZZ ; Py_BuildException
  00094	59		 pop	 ecx
  00095	e9 96 00 00 00	 jmp	 $LN1@grpRenderB
$LN5@grpRenderB:

; 748  : 
; 749  : 	float ey;
; 750  : 	if (!PyTuple_GetFloat(poArgs, 4, &ey))

  0009a	8d 45 f8	 lea	 eax, DWORD PTR _ey$[ebp]
  0009d	50		 push	 eax
  0009e	6a 04		 push	 4
  000a0	ff 75 0c	 push	 DWORD PTR _poArgs$[ebp]
  000a3	e8 00 00 00 00	 call	 ?PyTuple_GetFloat@@YA_NPAU_object@@HPAM@Z ; PyTuple_GetFloat
  000a8	83 c4 0c	 add	 esp, 12			; 0000000cH
  000ab	0f b6 c0	 movzx	 eax, al
  000ae	85 c0		 test	 eax, eax
  000b0	75 0a		 jne	 SHORT $LN6@grpRenderB

; 751  : 		return Py_BuildException();

  000b2	6a 00		 push	 0
  000b4	e8 00 00 00 00	 call	 ?Py_BuildException@@YAPAU_object@@PBDZZ ; Py_BuildException
  000b9	59		 pop	 ecx
  000ba	eb 74		 jmp	 SHORT $LN1@grpRenderB
$LN6@grpRenderB:

; 752  : 
; 753  : 	float ez;
; 754  : 	if (!PyTuple_GetFloat(poArgs, 5, &ez))

  000bc	8d 45 fc	 lea	 eax, DWORD PTR _ez$[ebp]
  000bf	50		 push	 eax
  000c0	6a 05		 push	 5
  000c2	ff 75 0c	 push	 DWORD PTR _poArgs$[ebp]
  000c5	e8 00 00 00 00	 call	 ?PyTuple_GetFloat@@YA_NPAU_object@@HPAM@Z ; PyTuple_GetFloat
  000ca	83 c4 0c	 add	 esp, 12			; 0000000cH
  000cd	0f b6 c0	 movzx	 eax, al
  000d0	85 c0		 test	 eax, eax
  000d2	75 0a		 jne	 SHORT $LN7@grpRenderB

; 755  : 		return Py_BuildException();

  000d4	6a 00		 push	 0
  000d6	e8 00 00 00 00	 call	 ?Py_BuildException@@YAPAU_object@@PBDZZ ; Py_BuildException
  000db	59		 pop	 ecx
  000dc	eb 52		 jmp	 SHORT $LN1@grpRenderB
$LN7@grpRenderB:

; 756  : 
; 757  : 	CPythonGraphic::Instance().RenderBox3d((float) sx, (float) sy, (float) sz, (float) ex, (float) ey, (float) ez);

  000de	51		 push	 ecx
  000df	f3 0f 10 45 fc	 movss	 xmm0, DWORD PTR _ez$[ebp]
  000e4	f3 0f 11 04 24	 movss	 DWORD PTR [esp], xmm0
  000e9	51		 push	 ecx
  000ea	f3 0f 10 45 f8	 movss	 xmm0, DWORD PTR _ey$[ebp]
  000ef	f3 0f 11 04 24	 movss	 DWORD PTR [esp], xmm0
  000f4	51		 push	 ecx
  000f5	f3 0f 10 45 f4	 movss	 xmm0, DWORD PTR _ex$[ebp]
  000fa	f3 0f 11 04 24	 movss	 DWORD PTR [esp], xmm0
  000ff	51		 push	 ecx
  00100	f3 0f 10 45 f0	 movss	 xmm0, DWORD PTR _sz$[ebp]
  00105	f3 0f 11 04 24	 movss	 DWORD PTR [esp], xmm0
  0010a	51		 push	 ecx
  0010b	f3 0f 10 45 ec	 movss	 xmm0, DWORD PTR _sy$[ebp]
  00110	f3 0f 11 04 24	 movss	 DWORD PTR [esp], xmm0
  00115	51		 push	 ecx
  00116	f3 0f 10 45 e8	 movss	 xmm0, DWORD PTR _sx$[ebp]
  0011b	f3 0f 11 04 24	 movss	 DWORD PTR [esp], xmm0
  00120	8b 0d 00 00 00
	00		 mov	 ecx, DWORD PTR ?ms_singleton@?$CSingleton@VCPythonGraphic@@@@0PAVCPythonGraphic@@A ; CSingleton<CPythonGraphic>::ms_singleton
  00126	e8 00 00 00 00	 call	 ?RenderBox3d@CScreen@@QAEXMMMMMM@Z ; CScreen::RenderBox3d

; 758  : 	return Py_BuildNone();

  0012b	e8 00 00 00 00	 call	 ?Py_BuildNone@@YAPAU_object@@XZ ; Py_BuildNone
$LN1@grpRenderB:

; 759  : }

  00130	c9		 leave
  00131	c3		 ret	 0
?grpRenderBox3d@@YAPAU_object@@PAU1@0@Z ENDP		; grpRenderBox3d
_TEXT	ENDS
; Function compile flags: /Odspy
; File D:\Metin2 Server Files\mainline\SRC_2014\Metin2Client\eterPythonLib\PythonGraphicModule.cpp
;	COMDAT ?grpRenderUpButton@@YAPAU_object@@PAU1@0@Z
_TEXT	SEGMENT
_width$ = -16						; size = 4
_height$ = -12						; size = 4
_x$ = -8						; size = 4
_y$ = -4						; size = 4
_poSelf$ = 8						; size = 4
_poArgs$ = 12						; size = 4
?grpRenderUpButton@@YAPAU_object@@PAU1@0@Z PROC		; grpRenderUpButton, COMDAT

; 710  : {

  00000	55		 push	 ebp
  00001	8b ec		 mov	 ebp, esp
  00003	83 ec 10	 sub	 esp, 16			; 00000010H

; 711  : 	int x;
; 712  : 	if (!PyTuple_GetInteger(poArgs, 0, &x))

  00006	8d 45 f8	 lea	 eax, DWORD PTR _x$[ebp]
  00009	50		 push	 eax
  0000a	6a 00		 push	 0
  0000c	ff 75 0c	 push	 DWORD PTR _poArgs$[ebp]
  0000f	e8 00 00 00 00	 call	 ?PyTuple_GetInteger@@YA_NPAU_object@@HPAH@Z ; PyTuple_GetInteger
  00014	83 c4 0c	 add	 esp, 12			; 0000000cH
  00017	0f b6 c0	 movzx	 eax, al
  0001a	85 c0		 test	 eax, eax
  0001c	75 0d		 jne	 SHORT $LN2@grpRenderU

; 713  : 		return Py_BuildException();

  0001e	6a 00		 push	 0
  00020	e8 00 00 00 00	 call	 ?Py_BuildException@@YAPAU_object@@PBDZZ ; Py_BuildException
  00025	59		 pop	 ecx
  00026	e9 b7 00 00 00	 jmp	 $LN1@grpRenderU
$LN2@grpRenderU:

; 714  : 
; 715  : 	int y;
; 716  : 	if (!PyTuple_GetInteger(poArgs, 1, &y))

  0002b	8d 45 fc	 lea	 eax, DWORD PTR _y$[ebp]
  0002e	50		 push	 eax
  0002f	6a 01		 push	 1
  00031	ff 75 0c	 push	 DWORD PTR _poArgs$[ebp]
  00034	e8 00 00 00 00	 call	 ?PyTuple_GetInteger@@YA_NPAU_object@@HPAH@Z ; PyTuple_GetInteger
  00039	83 c4 0c	 add	 esp, 12			; 0000000cH
  0003c	0f b6 c0	 movzx	 eax, al
  0003f	85 c0		 test	 eax, eax
  00041	75 0d		 jne	 SHORT $LN3@grpRenderU

; 717  : 		return Py_BuildException();

  00043	6a 00		 push	 0
  00045	e8 00 00 00 00	 call	 ?Py_BuildException@@YAPAU_object@@PBDZZ ; Py_BuildException
  0004a	59		 pop	 ecx
  0004b	e9 92 00 00 00	 jmp	 $LN1@grpRenderU
$LN3@grpRenderU:

; 718  : 
; 719  : 	int width;
; 720  : 	if (!PyTuple_GetInteger(poArgs, 2, &width))

  00050	8d 45 f0	 lea	 eax, DWORD PTR _width$[ebp]
  00053	50		 push	 eax
  00054	6a 02		 push	 2
  00056	ff 75 0c	 push	 DWORD PTR _poArgs$[ebp]
  00059	e8 00 00 00 00	 call	 ?PyTuple_GetInteger@@YA_NPAU_object@@HPAH@Z ; PyTuple_GetInteger
  0005e	83 c4 0c	 add	 esp, 12			; 0000000cH
  00061	0f b6 c0	 movzx	 eax, al
  00064	85 c0		 test	 eax, eax
  00066	75 0a		 jne	 SHORT $LN4@grpRenderU

; 721  : 		return Py_BuildException();

  00068	6a 00		 push	 0
  0006a	e8 00 00 00 00	 call	 ?Py_BuildException@@YAPAU_object@@PBDZZ ; Py_BuildException
  0006f	59		 pop	 ecx
  00070	eb 70		 jmp	 SHORT $LN1@grpRenderU
$LN4@grpRenderU:

; 722  : 
; 723  : 	int height;
; 724  : 	if (!PyTuple_GetInteger(poArgs, 3, &height))

  00072	8d 45 f4	 lea	 eax, DWORD PTR _height$[ebp]
  00075	50		 push	 eax
  00076	6a 03		 push	 3
  00078	ff 75 0c	 push	 DWORD PTR _poArgs$[ebp]
  0007b	e8 00 00 00 00	 call	 ?PyTuple_GetInteger@@YA_NPAU_object@@HPAH@Z ; PyTuple_GetInteger
  00080	83 c4 0c	 add	 esp, 12			; 0000000cH
  00083	0f b6 c0	 movzx	 eax, al
  00086	85 c0		 test	 eax, eax
  00088	75 0a		 jne	 SHORT $LN5@grpRenderU

; 725  : 		return Py_BuildException();

  0008a	6a 00		 push	 0
  0008c	e8 00 00 00 00	 call	 ?Py_BuildException@@YAPAU_object@@PBDZZ ; Py_BuildException
  00091	59		 pop	 ecx
  00092	eb 4e		 jmp	 SHORT $LN1@grpRenderU
$LN5@grpRenderU:

; 726  : 
; 727  : 	CPythonGraphic::Instance().RenderUpButton((float) x, (float) y, (float) x+width, (float) y+height);

  00094	f3 0f 2a 45 fc	 cvtsi2ss xmm0, DWORD PTR _y$[ebp]
  00099	f3 0f 2a 4d f4	 cvtsi2ss xmm1, DWORD PTR _height$[ebp]
  0009e	f3 0f 58 c1	 addss	 xmm0, xmm1
  000a2	51		 push	 ecx
  000a3	f3 0f 11 04 24	 movss	 DWORD PTR [esp], xmm0
  000a8	f3 0f 2a 45 f8	 cvtsi2ss xmm0, DWORD PTR _x$[ebp]
  000ad	f3 0f 2a 4d f0	 cvtsi2ss xmm1, DWORD PTR _width$[ebp]
  000b2	f3 0f 58 c1	 addss	 xmm0, xmm1
  000b6	51		 push	 ecx
  000b7	f3 0f 11 04 24	 movss	 DWORD PTR [esp], xmm0
  000bc	f3 0f 2a 45 fc	 cvtsi2ss xmm0, DWORD PTR _y$[ebp]
  000c1	51		 push	 ecx
  000c2	f3 0f 11 04 24	 movss	 DWORD PTR [esp], xmm0
  000c7	f3 0f 2a 45 f8	 cvtsi2ss xmm0, DWORD PTR _x$[ebp]
  000cc	51		 push	 ecx
  000cd	f3 0f 11 04 24	 movss	 DWORD PTR [esp], xmm0
  000d2	8b 0d 00 00 00
	00		 mov	 ecx, DWORD PTR ?ms_singleton@?$CSingleton@VCPythonGraphic@@@@0PAVCPythonGraphic@@A ; CSingleton<CPythonGraphic>::ms_singleton
  000d8	e8 00 00 00 00	 call	 ?RenderUpButton@CPythonGraphic@@QAEXMMMM@Z ; CPythonGraphic::RenderUpButton

; 728  : 	return Py_BuildNone();

  000dd	e8 00 00 00 00	 call	 ?Py_BuildNone@@YAPAU_object@@XZ ; Py_BuildNone
$LN1@grpRenderU:

; 729  : }

  000e2	c9		 leave
  000e3	c3		 ret	 0
?grpRenderUpButton@@YAPAU_object@@PAU1@0@Z ENDP		; grpRenderUpButton
_TEXT	ENDS
; Function compile flags: /Odspy
; File D:\Metin2 Server Files\mainline\SRC_2014\Metin2Client\eterPythonLib\PythonGraphicModule.cpp
;	COMDAT ?grpRenderDownButton@@YAPAU_object@@PAU1@0@Z
_TEXT	SEGMENT
_width$ = -16						; size = 4
_height$ = -12						; size = 4
_x$ = -8						; size = 4
_y$ = -4						; size = 4
_poSelf$ = 8						; size = 4
_poArgs$ = 12						; size = 4
?grpRenderDownButton@@YAPAU_object@@PAU1@0@Z PROC	; grpRenderDownButton, COMDAT

; 688  : {

  00000	55		 push	 ebp
  00001	8b ec		 mov	 ebp, esp
  00003	83 ec 10	 sub	 esp, 16			; 00000010H

; 689  : 	int x;
; 690  : 	if (!PyTuple_GetInteger(poArgs, 0, &x))

  00006	8d 45 f8	 lea	 eax, DWORD PTR _x$[ebp]
  00009	50		 push	 eax
  0000a	6a 00		 push	 0
  0000c	ff 75 0c	 push	 DWORD PTR _poArgs$[ebp]
  0000f	e8 00 00 00 00	 call	 ?PyTuple_GetInteger@@YA_NPAU_object@@HPAH@Z ; PyTuple_GetInteger
  00014	83 c4 0c	 add	 esp, 12			; 0000000cH
  00017	0f b6 c0	 movzx	 eax, al
  0001a	85 c0		 test	 eax, eax
  0001c	75 0d		 jne	 SHORT $LN2@grpRenderD

; 691  : 		return Py_BuildException();

  0001e	6a 00		 push	 0
  00020	e8 00 00 00 00	 call	 ?Py_BuildException@@YAPAU_object@@PBDZZ ; Py_BuildException
  00025	59		 pop	 ecx
  00026	e9 b7 00 00 00	 jmp	 $LN1@grpRenderD
$LN2@grpRenderD:

; 692  : 
; 693  : 	int y;
; 694  : 	if (!PyTuple_GetInteger(poArgs, 1, &y))

  0002b	8d 45 fc	 lea	 eax, DWORD PTR _y$[ebp]
  0002e	50		 push	 eax
  0002f	6a 01		 push	 1
  00031	ff 75 0c	 push	 DWORD PTR _poArgs$[ebp]
  00034	e8 00 00 00 00	 call	 ?PyTuple_GetInteger@@YA_NPAU_object@@HPAH@Z ; PyTuple_GetInteger
  00039	83 c4 0c	 add	 esp, 12			; 0000000cH
  0003c	0f b6 c0	 movzx	 eax, al
  0003f	85 c0		 test	 eax, eax
  00041	75 0d		 jne	 SHORT $LN3@grpRenderD

; 695  : 		return Py_BuildException();

  00043	6a 00		 push	 0
  00045	e8 00 00 00 00	 call	 ?Py_BuildException@@YAPAU_object@@PBDZZ ; Py_BuildException
  0004a	59		 pop	 ecx
  0004b	e9 92 00 00 00	 jmp	 $LN1@grpRenderD
$LN3@grpRenderD:

; 696  : 
; 697  : 	int width;
; 698  : 	if (!PyTuple_GetInteger(poArgs, 2, &width))

  00050	8d 45 f0	 lea	 eax, DWORD PTR _width$[ebp]
  00053	50		 push	 eax
  00054	6a 02		 push	 2
  00056	ff 75 0c	 push	 DWORD PTR _poArgs$[ebp]
  00059	e8 00 00 00 00	 call	 ?PyTuple_GetInteger@@YA_NPAU_object@@HPAH@Z ; PyTuple_GetInteger
  0005e	83 c4 0c	 add	 esp, 12			; 0000000cH
  00061	0f b6 c0	 movzx	 eax, al
  00064	85 c0		 test	 eax, eax
  00066	75 0a		 jne	 SHORT $LN4@grpRenderD

; 699  : 		return Py_BuildException();

  00068	6a 00		 push	 0
  0006a	e8 00 00 00 00	 call	 ?Py_BuildException@@YAPAU_object@@PBDZZ ; Py_BuildException
  0006f	59		 pop	 ecx
  00070	eb 70		 jmp	 SHORT $LN1@grpRenderD
$LN4@grpRenderD:

; 700  : 
; 701  : 	int height;
; 702  : 	if (!PyTuple_GetInteger(poArgs, 3, &height))

  00072	8d 45 f4	 lea	 eax, DWORD PTR _height$[ebp]
  00075	50		 push	 eax
  00076	6a 03		 push	 3
  00078	ff 75 0c	 push	 DWORD PTR _poArgs$[ebp]
  0007b	e8 00 00 00 00	 call	 ?PyTuple_GetInteger@@YA_NPAU_object@@HPAH@Z ; PyTuple_GetInteger
  00080	83 c4 0c	 add	 esp, 12			; 0000000cH
  00083	0f b6 c0	 movzx	 eax, al
  00086	85 c0		 test	 eax, eax
  00088	75 0a		 jne	 SHORT $LN5@grpRenderD

; 703  : 		return Py_BuildException();

  0008a	6a 00		 push	 0
  0008c	e8 00 00 00 00	 call	 ?Py_BuildException@@YAPAU_object@@PBDZZ ; Py_BuildException
  00091	59		 pop	 ecx
  00092	eb 4e		 jmp	 SHORT $LN1@grpRenderD
$LN5@grpRenderD:

; 704  : 
; 705  : 	CPythonGraphic::Instance().RenderDownButton((float) x, (float) y, (float) x+width, (float) y+height);

  00094	f3 0f 2a 45 fc	 cvtsi2ss xmm0, DWORD PTR _y$[ebp]
  00099	f3 0f 2a 4d f4	 cvtsi2ss xmm1, DWORD PTR _height$[ebp]
  0009e	f3 0f 58 c1	 addss	 xmm0, xmm1
  000a2	51		 push	 ecx
  000a3	f3 0f 11 04 24	 movss	 DWORD PTR [esp], xmm0
  000a8	f3 0f 2a 45 f8	 cvtsi2ss xmm0, DWORD PTR _x$[ebp]
  000ad	f3 0f 2a 4d f0	 cvtsi2ss xmm1, DWORD PTR _width$[ebp]
  000b2	f3 0f 58 c1	 addss	 xmm0, xmm1
  000b6	51		 push	 ecx
  000b7	f3 0f 11 04 24	 movss	 DWORD PTR [esp], xmm0
  000bc	f3 0f 2a 45 fc	 cvtsi2ss xmm0, DWORD PTR _y$[ebp]
  000c1	51		 push	 ecx
  000c2	f3 0f 11 04 24	 movss	 DWORD PTR [esp], xmm0
  000c7	f3 0f 2a 45 f8	 cvtsi2ss xmm0, DWORD PTR _x$[ebp]
  000cc	51		 push	 ecx
  000cd	f3 0f 11 04 24	 movss	 DWORD PTR [esp], xmm0
  000d2	8b 0d 00 00 00
	00		 mov	 ecx, DWORD PTR ?ms_singleton@?$CSingleton@VCPythonGraphic@@@@0PAVCPythonGraphic@@A ; CSingleton<CPythonGraphic>::ms_singleton
  000d8	e8 00 00 00 00	 call	 ?RenderDownButton@CPythonGraphic@@QAEXMMMM@Z ; CPythonGraphic::RenderDownButton

; 706  : 	return Py_BuildNone();

  000dd	e8 00 00 00 00	 call	 ?Py_BuildNone@@YAPAU_object@@XZ ; Py_BuildNone
$LN1@grpRenderD:

; 707  : }

  000e2	c9		 leave
  000e3	c3		 ret	 0
?grpRenderDownButton@@YAPAU_object@@PAU1@0@Z ENDP	; grpRenderDownButton
_TEXT	ENDS
; Function compile flags: /Odspy
; File D:\Metin2 Server Files\mainline\SRC_2014\Metin2Client\eterPythonLib\PythonGraphicModule.cpp
;	COMDAT ?grpRenderGradationBar@@YAPAU_object@@PAU1@0@Z
_TEXT	SEGMENT
_width$ = -24						; size = 4
_height$ = -20						; size = 4
_iStartColor$ = -16					; size = 4
_iEndColor$ = -12					; size = 4
_x$ = -8						; size = 4
_y$ = -4						; size = 4
_poSelf$ = 8						; size = 4
_poArgs$ = 12						; size = 4
?grpRenderGradationBar@@YAPAU_object@@PAU1@0@Z PROC	; grpRenderGradationBar, COMDAT

; 658  : {

  00000	55		 push	 ebp
  00001	8b ec		 mov	 ebp, esp
  00003	83 ec 18	 sub	 esp, 24			; 00000018H

; 659  : 	int x;
; 660  : 	if (!PyTuple_GetInteger(poArgs, 0, &x))

  00006	8d 45 f8	 lea	 eax, DWORD PTR _x$[ebp]
  00009	50		 push	 eax
  0000a	6a 00		 push	 0
  0000c	ff 75 0c	 push	 DWORD PTR _poArgs$[ebp]
  0000f	e8 00 00 00 00	 call	 ?PyTuple_GetInteger@@YA_NPAU_object@@HPAH@Z ; PyTuple_GetInteger
  00014	83 c4 0c	 add	 esp, 12			; 0000000cH
  00017	0f b6 c0	 movzx	 eax, al
  0001a	85 c0		 test	 eax, eax
  0001c	75 0a		 jne	 SHORT $LN2@grpRenderG

; 661  : 		return Py_BadArgument();

  0001e	e8 00 00 00 00	 call	 ?Py_BadArgument@@YAPAU_object@@XZ ; Py_BadArgument
  00023	e9 01 01 00 00	 jmp	 $LN1@grpRenderG
$LN2@grpRenderG:

; 662  : 
; 663  : 	int y;
; 664  : 	if (!PyTuple_GetInteger(poArgs, 1, &y))

  00028	8d 45 fc	 lea	 eax, DWORD PTR _y$[ebp]
  0002b	50		 push	 eax
  0002c	6a 01		 push	 1
  0002e	ff 75 0c	 push	 DWORD PTR _poArgs$[ebp]
  00031	e8 00 00 00 00	 call	 ?PyTuple_GetInteger@@YA_NPAU_object@@HPAH@Z ; PyTuple_GetInteger
  00036	83 c4 0c	 add	 esp, 12			; 0000000cH
  00039	0f b6 c0	 movzx	 eax, al
  0003c	85 c0		 test	 eax, eax
  0003e	75 0a		 jne	 SHORT $LN3@grpRenderG

; 665  : 		return Py_BadArgument();

  00040	e8 00 00 00 00	 call	 ?Py_BadArgument@@YAPAU_object@@XZ ; Py_BadArgument
  00045	e9 df 00 00 00	 jmp	 $LN1@grpRenderG
$LN3@grpRenderG:

; 666  : 
; 667  : 	int width;
; 668  : 	if (!PyTuple_GetInteger(poArgs, 2, &width))

  0004a	8d 45 e8	 lea	 eax, DWORD PTR _width$[ebp]
  0004d	50		 push	 eax
  0004e	6a 02		 push	 2
  00050	ff 75 0c	 push	 DWORD PTR _poArgs$[ebp]
  00053	e8 00 00 00 00	 call	 ?PyTuple_GetInteger@@YA_NPAU_object@@HPAH@Z ; PyTuple_GetInteger
  00058	83 c4 0c	 add	 esp, 12			; 0000000cH
  0005b	0f b6 c0	 movzx	 eax, al
  0005e	85 c0		 test	 eax, eax
  00060	75 0a		 jne	 SHORT $LN4@grpRenderG

; 669  : 		return Py_BadArgument();

  00062	e8 00 00 00 00	 call	 ?Py_BadArgument@@YAPAU_object@@XZ ; Py_BadArgument
  00067	e9 bd 00 00 00	 jmp	 $LN1@grpRenderG
$LN4@grpRenderG:

; 670  : 
; 671  : 	int height;
; 672  : 	if (!PyTuple_GetInteger(poArgs, 3, &height))

  0006c	8d 45 ec	 lea	 eax, DWORD PTR _height$[ebp]
  0006f	50		 push	 eax
  00070	6a 03		 push	 3
  00072	ff 75 0c	 push	 DWORD PTR _poArgs$[ebp]
  00075	e8 00 00 00 00	 call	 ?PyTuple_GetInteger@@YA_NPAU_object@@HPAH@Z ; PyTuple_GetInteger
  0007a	83 c4 0c	 add	 esp, 12			; 0000000cH
  0007d	0f b6 c0	 movzx	 eax, al
  00080	85 c0		 test	 eax, eax
  00082	75 0a		 jne	 SHORT $LN5@grpRenderG

; 673  : 		return Py_BadArgument();

  00084	e8 00 00 00 00	 call	 ?Py_BadArgument@@YAPAU_object@@XZ ; Py_BadArgument
  00089	e9 9b 00 00 00	 jmp	 $LN1@grpRenderG
$LN5@grpRenderG:

; 674  : 
; 675  : 	int iStartColor;
; 676  : 	if (!PyTuple_GetInteger(poArgs, 4, &iStartColor))

  0008e	8d 45 f0	 lea	 eax, DWORD PTR _iStartColor$[ebp]
  00091	50		 push	 eax
  00092	6a 04		 push	 4
  00094	ff 75 0c	 push	 DWORD PTR _poArgs$[ebp]
  00097	e8 00 00 00 00	 call	 ?PyTuple_GetInteger@@YA_NPAU_object@@HPAH@Z ; PyTuple_GetInteger
  0009c	83 c4 0c	 add	 esp, 12			; 0000000cH
  0009f	0f b6 c0	 movzx	 eax, al
  000a2	85 c0		 test	 eax, eax
  000a4	75 07		 jne	 SHORT $LN6@grpRenderG

; 677  : 		return Py_BadArgument();

  000a6	e8 00 00 00 00	 call	 ?Py_BadArgument@@YAPAU_object@@XZ ; Py_BadArgument
  000ab	eb 7c		 jmp	 SHORT $LN1@grpRenderG
$LN6@grpRenderG:

; 678  : 
; 679  : 	int iEndColor;
; 680  : 	if (!PyTuple_GetInteger(poArgs, 5, &iEndColor))

  000ad	8d 45 f4	 lea	 eax, DWORD PTR _iEndColor$[ebp]
  000b0	50		 push	 eax
  000b1	6a 05		 push	 5
  000b3	ff 75 0c	 push	 DWORD PTR _poArgs$[ebp]
  000b6	e8 00 00 00 00	 call	 ?PyTuple_GetInteger@@YA_NPAU_object@@HPAH@Z ; PyTuple_GetInteger
  000bb	83 c4 0c	 add	 esp, 12			; 0000000cH
  000be	0f b6 c0	 movzx	 eax, al
  000c1	85 c0		 test	 eax, eax
  000c3	75 07		 jne	 SHORT $LN7@grpRenderG

; 681  : 		return Py_BadArgument();

  000c5	e8 00 00 00 00	 call	 ?Py_BadArgument@@YAPAU_object@@XZ ; Py_BadArgument
  000ca	eb 5d		 jmp	 SHORT $LN1@grpRenderG
$LN7@grpRenderG:

; 682  : 
; 683  : 	CPythonGraphic::Instance().RenderGradationBar2d((float)x, (float)y, (float)x+width, (float)y+height, iStartColor, iEndColor);

  000cc	51		 push	 ecx
  000cd	0f 57 c0	 xorps	 xmm0, xmm0
  000d0	f3 0f 11 04 24	 movss	 DWORD PTR [esp], xmm0
  000d5	ff 75 f4	 push	 DWORD PTR _iEndColor$[ebp]
  000d8	ff 75 f0	 push	 DWORD PTR _iStartColor$[ebp]
  000db	f3 0f 2a 45 fc	 cvtsi2ss xmm0, DWORD PTR _y$[ebp]
  000e0	f3 0f 2a 4d ec	 cvtsi2ss xmm1, DWORD PTR _height$[ebp]
  000e5	f3 0f 58 c1	 addss	 xmm0, xmm1
  000e9	51		 push	 ecx
  000ea	f3 0f 11 04 24	 movss	 DWORD PTR [esp], xmm0
  000ef	f3 0f 2a 45 f8	 cvtsi2ss xmm0, DWORD PTR _x$[ebp]
  000f4	f3 0f 2a 4d e8	 cvtsi2ss xmm1, DWORD PTR _width$[ebp]
  000f9	f3 0f 58 c1	 addss	 xmm0, xmm1
  000fd	51		 push	 ecx
  000fe	f3 0f 11 04 24	 movss	 DWORD PTR [esp], xmm0
  00103	f3 0f 2a 45 fc	 cvtsi2ss xmm0, DWORD PTR _y$[ebp]
  00108	51		 push	 ecx
  00109	f3 0f 11 04 24	 movss	 DWORD PTR [esp], xmm0
  0010e	f3 0f 2a 45 f8	 cvtsi2ss xmm0, DWORD PTR _x$[ebp]
  00113	51		 push	 ecx
  00114	f3 0f 11 04 24	 movss	 DWORD PTR [esp], xmm0
  00119	8b 0d 00 00 00
	00		 mov	 ecx, DWORD PTR ?ms_singleton@?$CSingleton@VCPythonGraphic@@@@0PAVCPythonGraphic@@A ; CSingleton<CPythonGraphic>::ms_singleton
  0011f	e8 00 00 00 00	 call	 ?RenderGradationBar2d@CScreen@@QAEXMMMMKKM@Z ; CScreen::RenderGradationBar2d

; 684  : 	return Py_BuildNone();

  00124	e8 00 00 00 00	 call	 ?Py_BuildNone@@YAPAU_object@@XZ ; Py_BuildNone
$LN1@grpRenderG:

; 685  : }

  00129	c9		 leave
  0012a	c3		 ret	 0
?grpRenderGradationBar@@YAPAU_object@@PAU1@0@Z ENDP	; grpRenderGradationBar
_TEXT	ENDS
; Function compile flags: /Odspy
; File D:\Metin2 Server Files\mainline\SRC_2014\Metin2Client\eterPythonLib\PythonGraphicModule.cpp
;	COMDAT ?grpRenderBar3d@@YAPAU_object@@PAU1@0@Z
_TEXT	SEGMENT
_sx$ = -24						; size = 4
_sy$ = -20						; size = 4
_sz$ = -16						; size = 4
_ex$ = -12						; size = 4
_ey$ = -8						; size = 4
_ez$ = -4						; size = 4
_poSelf$ = 8						; size = 4
_poArgs$ = 12						; size = 4
?grpRenderBar3d@@YAPAU_object@@PAU1@0@Z PROC		; grpRenderBar3d, COMDAT

; 628  : {

  00000	55		 push	 ebp
  00001	8b ec		 mov	 ebp, esp
  00003	83 ec 18	 sub	 esp, 24			; 00000018H

; 629  : 	int sx;
; 630  : 	if (!PyTuple_GetInteger(poArgs, 0, &sx))

  00006	8d 45 e8	 lea	 eax, DWORD PTR _sx$[ebp]
  00009	50		 push	 eax
  0000a	6a 00		 push	 0
  0000c	ff 75 0c	 push	 DWORD PTR _poArgs$[ebp]
  0000f	e8 00 00 00 00	 call	 ?PyTuple_GetInteger@@YA_NPAU_object@@HPAH@Z ; PyTuple_GetInteger
  00014	83 c4 0c	 add	 esp, 12			; 0000000cH
  00017	0f b6 c0	 movzx	 eax, al
  0001a	85 c0		 test	 eax, eax
  0001c	75 0d		 jne	 SHORT $LN2@grpRenderB

; 631  : 		return Py_BuildException();

  0001e	6a 00		 push	 0
  00020	e8 00 00 00 00	 call	 ?Py_BuildException@@YAPAU_object@@PBDZZ ; Py_BuildException
  00025	59		 pop	 ecx
  00026	e9 05 01 00 00	 jmp	 $LN1@grpRenderB
$LN2@grpRenderB:

; 632  : 
; 633  : 	int sy;
; 634  : 	if (!PyTuple_GetInteger(poArgs, 1, &sy))

  0002b	8d 45 ec	 lea	 eax, DWORD PTR _sy$[ebp]
  0002e	50		 push	 eax
  0002f	6a 01		 push	 1
  00031	ff 75 0c	 push	 DWORD PTR _poArgs$[ebp]
  00034	e8 00 00 00 00	 call	 ?PyTuple_GetInteger@@YA_NPAU_object@@HPAH@Z ; PyTuple_GetInteger
  00039	83 c4 0c	 add	 esp, 12			; 0000000cH
  0003c	0f b6 c0	 movzx	 eax, al
  0003f	85 c0		 test	 eax, eax
  00041	75 0d		 jne	 SHORT $LN3@grpRenderB

; 635  : 		return Py_BuildException();

  00043	6a 00		 push	 0
  00045	e8 00 00 00 00	 call	 ?Py_BuildException@@YAPAU_object@@PBDZZ ; Py_BuildException
  0004a	59		 pop	 ecx
  0004b	e9 e0 00 00 00	 jmp	 $LN1@grpRenderB
$LN3@grpRenderB:

; 636  : 
; 637  : 	int sz;
; 638  : 	if (!PyTuple_GetInteger(poArgs, 2, &sz))

  00050	8d 45 f0	 lea	 eax, DWORD PTR _sz$[ebp]
  00053	50		 push	 eax
  00054	6a 02		 push	 2
  00056	ff 75 0c	 push	 DWORD PTR _poArgs$[ebp]
  00059	e8 00 00 00 00	 call	 ?PyTuple_GetInteger@@YA_NPAU_object@@HPAH@Z ; PyTuple_GetInteger
  0005e	83 c4 0c	 add	 esp, 12			; 0000000cH
  00061	0f b6 c0	 movzx	 eax, al
  00064	85 c0		 test	 eax, eax
  00066	75 0d		 jne	 SHORT $LN4@grpRenderB

; 639  : 		return Py_BuildException();

  00068	6a 00		 push	 0
  0006a	e8 00 00 00 00	 call	 ?Py_BuildException@@YAPAU_object@@PBDZZ ; Py_BuildException
  0006f	59		 pop	 ecx
  00070	e9 bb 00 00 00	 jmp	 $LN1@grpRenderB
$LN4@grpRenderB:

; 640  : 
; 641  : 	int ex;
; 642  : 	if (!PyTuple_GetInteger(poArgs, 3, &ex))

  00075	8d 45 f4	 lea	 eax, DWORD PTR _ex$[ebp]
  00078	50		 push	 eax
  00079	6a 03		 push	 3
  0007b	ff 75 0c	 push	 DWORD PTR _poArgs$[ebp]
  0007e	e8 00 00 00 00	 call	 ?PyTuple_GetInteger@@YA_NPAU_object@@HPAH@Z ; PyTuple_GetInteger
  00083	83 c4 0c	 add	 esp, 12			; 0000000cH
  00086	0f b6 c0	 movzx	 eax, al
  00089	85 c0		 test	 eax, eax
  0008b	75 0d		 jne	 SHORT $LN5@grpRenderB

; 643  : 		return Py_BuildException();

  0008d	6a 00		 push	 0
  0008f	e8 00 00 00 00	 call	 ?Py_BuildException@@YAPAU_object@@PBDZZ ; Py_BuildException
  00094	59		 pop	 ecx
  00095	e9 96 00 00 00	 jmp	 $LN1@grpRenderB
$LN5@grpRenderB:

; 644  : 
; 645  : 	int ey;
; 646  : 	if (!PyTuple_GetInteger(poArgs, 4, &ey))

  0009a	8d 45 f8	 lea	 eax, DWORD PTR _ey$[ebp]
  0009d	50		 push	 eax
  0009e	6a 04		 push	 4
  000a0	ff 75 0c	 push	 DWORD PTR _poArgs$[ebp]
  000a3	e8 00 00 00 00	 call	 ?PyTuple_GetInteger@@YA_NPAU_object@@HPAH@Z ; PyTuple_GetInteger
  000a8	83 c4 0c	 add	 esp, 12			; 0000000cH
  000ab	0f b6 c0	 movzx	 eax, al
  000ae	85 c0		 test	 eax, eax
  000b0	75 0a		 jne	 SHORT $LN6@grpRenderB

; 647  : 		return Py_BuildException();

  000b2	6a 00		 push	 0
  000b4	e8 00 00 00 00	 call	 ?Py_BuildException@@YAPAU_object@@PBDZZ ; Py_BuildException
  000b9	59		 pop	 ecx
  000ba	eb 74		 jmp	 SHORT $LN1@grpRenderB
$LN6@grpRenderB:

; 648  : 
; 649  : 	int ez;
; 650  : 	if (!PyTuple_GetInteger(poArgs, 5, &ez))

  000bc	8d 45 fc	 lea	 eax, DWORD PTR _ez$[ebp]
  000bf	50		 push	 eax
  000c0	6a 05		 push	 5
  000c2	ff 75 0c	 push	 DWORD PTR _poArgs$[ebp]
  000c5	e8 00 00 00 00	 call	 ?PyTuple_GetInteger@@YA_NPAU_object@@HPAH@Z ; PyTuple_GetInteger
  000ca	83 c4 0c	 add	 esp, 12			; 0000000cH
  000cd	0f b6 c0	 movzx	 eax, al
  000d0	85 c0		 test	 eax, eax
  000d2	75 0a		 jne	 SHORT $LN7@grpRenderB

; 651  : 		return Py_BuildException();

  000d4	6a 00		 push	 0
  000d6	e8 00 00 00 00	 call	 ?Py_BuildException@@YAPAU_object@@PBDZZ ; Py_BuildException
  000db	59		 pop	 ecx
  000dc	eb 52		 jmp	 SHORT $LN1@grpRenderB
$LN7@grpRenderB:

; 652  : 
; 653  : 	CPythonGraphic::Instance().RenderBar3d(sx, sy, sz, ex, ey, ez);

  000de	f3 0f 2a 45 fc	 cvtsi2ss xmm0, DWORD PTR _ez$[ebp]
  000e3	51		 push	 ecx
  000e4	f3 0f 11 04 24	 movss	 DWORD PTR [esp], xmm0
  000e9	f3 0f 2a 45 f8	 cvtsi2ss xmm0, DWORD PTR _ey$[ebp]
  000ee	51		 push	 ecx
  000ef	f3 0f 11 04 24	 movss	 DWORD PTR [esp], xmm0
  000f4	f3 0f 2a 45 f4	 cvtsi2ss xmm0, DWORD PTR _ex$[ebp]
  000f9	51		 push	 ecx
  000fa	f3 0f 11 04 24	 movss	 DWORD PTR [esp], xmm0
  000ff	f3 0f 2a 45 f0	 cvtsi2ss xmm0, DWORD PTR _sz$[ebp]
  00104	51		 push	 ecx
  00105	f3 0f 11 04 24	 movss	 DWORD PTR [esp], xmm0
  0010a	f3 0f 2a 45 ec	 cvtsi2ss xmm0, DWORD PTR _sy$[ebp]
  0010f	51		 push	 ecx
  00110	f3 0f 11 04 24	 movss	 DWORD PTR [esp], xmm0
  00115	f3 0f 2a 45 e8	 cvtsi2ss xmm0, DWORD PTR _sx$[ebp]
  0011a	51		 push	 ecx
  0011b	f3 0f 11 04 24	 movss	 DWORD PTR [esp], xmm0
  00120	8b 0d 00 00 00
	00		 mov	 ecx, DWORD PTR ?ms_singleton@?$CSingleton@VCPythonGraphic@@@@0PAVCPythonGraphic@@A ; CSingleton<CPythonGraphic>::ms_singleton
  00126	e8 00 00 00 00	 call	 ?RenderBar3d@CScreen@@QAEXMMMMMM@Z ; CScreen::RenderBar3d

; 654  : 	return Py_BuildNone();

  0012b	e8 00 00 00 00	 call	 ?Py_BuildNone@@YAPAU_object@@XZ ; Py_BuildNone
$LN1@grpRenderB:

; 655  : }

  00130	c9		 leave
  00131	c3		 ret	 0
?grpRenderBar3d@@YAPAU_object@@PAU1@0@Z ENDP		; grpRenderBar3d
_TEXT	ENDS
; Function compile flags: /Odspy
; File D:\Metin2 Server Files\mainline\SRC_2014\Metin2Client\eterPythonLib\PythonGraphicModule.cpp
;	COMDAT ?grpRenderCube@@YAPAU_object@@PAU1@0@Z
_TEXT	SEGMENT
_sx$ = -24						; size = 4
_sy$ = -20						; size = 4
_sz$ = -16						; size = 4
_ex$ = -12						; size = 4
_ey$ = -8						; size = 4
_ez$ = -4						; size = 4
_poSelf$ = 8						; size = 4
_poArgs$ = 12						; size = 4
?grpRenderCube@@YAPAU_object@@PAU1@0@Z PROC		; grpRenderCube, COMDAT

; 598  : {

  00000	55		 push	 ebp
  00001	8b ec		 mov	 ebp, esp
  00003	83 ec 18	 sub	 esp, 24			; 00000018H

; 599  : 	float sx;
; 600  : 	if (!PyTuple_GetFloat(poArgs, 0, &sx))

  00006	8d 45 e8	 lea	 eax, DWORD PTR _sx$[ebp]
  00009	50		 push	 eax
  0000a	6a 00		 push	 0
  0000c	ff 75 0c	 push	 DWORD PTR _poArgs$[ebp]
  0000f	e8 00 00 00 00	 call	 ?PyTuple_GetFloat@@YA_NPAU_object@@HPAM@Z ; PyTuple_GetFloat
  00014	83 c4 0c	 add	 esp, 12			; 0000000cH
  00017	0f b6 c0	 movzx	 eax, al
  0001a	85 c0		 test	 eax, eax
  0001c	75 0d		 jne	 SHORT $LN2@grpRenderC

; 601  : 		return Py_BuildException();

  0001e	6a 00		 push	 0
  00020	e8 00 00 00 00	 call	 ?Py_BuildException@@YAPAU_object@@PBDZZ ; Py_BuildException
  00025	59		 pop	 ecx
  00026	e9 05 01 00 00	 jmp	 $LN1@grpRenderC
$LN2@grpRenderC:

; 602  : 
; 603  : 	float sy;
; 604  : 	if (!PyTuple_GetFloat(poArgs, 1, &sy))

  0002b	8d 45 ec	 lea	 eax, DWORD PTR _sy$[ebp]
  0002e	50		 push	 eax
  0002f	6a 01		 push	 1
  00031	ff 75 0c	 push	 DWORD PTR _poArgs$[ebp]
  00034	e8 00 00 00 00	 call	 ?PyTuple_GetFloat@@YA_NPAU_object@@HPAM@Z ; PyTuple_GetFloat
  00039	83 c4 0c	 add	 esp, 12			; 0000000cH
  0003c	0f b6 c0	 movzx	 eax, al
  0003f	85 c0		 test	 eax, eax
  00041	75 0d		 jne	 SHORT $LN3@grpRenderC

; 605  : 		return Py_BuildException();

  00043	6a 00		 push	 0
  00045	e8 00 00 00 00	 call	 ?Py_BuildException@@YAPAU_object@@PBDZZ ; Py_BuildException
  0004a	59		 pop	 ecx
  0004b	e9 e0 00 00 00	 jmp	 $LN1@grpRenderC
$LN3@grpRenderC:

; 606  : 
; 607  : 	float sz;
; 608  : 	if (!PyTuple_GetFloat(poArgs, 2, &sz))

  00050	8d 45 f0	 lea	 eax, DWORD PTR _sz$[ebp]
  00053	50		 push	 eax
  00054	6a 02		 push	 2
  00056	ff 75 0c	 push	 DWORD PTR _poArgs$[ebp]
  00059	e8 00 00 00 00	 call	 ?PyTuple_GetFloat@@YA_NPAU_object@@HPAM@Z ; PyTuple_GetFloat
  0005e	83 c4 0c	 add	 esp, 12			; 0000000cH
  00061	0f b6 c0	 movzx	 eax, al
  00064	85 c0		 test	 eax, eax
  00066	75 0d		 jne	 SHORT $LN4@grpRenderC

; 609  : 		return Py_BuildException();

  00068	6a 00		 push	 0
  0006a	e8 00 00 00 00	 call	 ?Py_BuildException@@YAPAU_object@@PBDZZ ; Py_BuildException
  0006f	59		 pop	 ecx
  00070	e9 bb 00 00 00	 jmp	 $LN1@grpRenderC
$LN4@grpRenderC:

; 610  : 
; 611  : 	float ex;
; 612  : 	if (!PyTuple_GetFloat(poArgs, 3, &ex))

  00075	8d 45 f4	 lea	 eax, DWORD PTR _ex$[ebp]
  00078	50		 push	 eax
  00079	6a 03		 push	 3
  0007b	ff 75 0c	 push	 DWORD PTR _poArgs$[ebp]
  0007e	e8 00 00 00 00	 call	 ?PyTuple_GetFloat@@YA_NPAU_object@@HPAM@Z ; PyTuple_GetFloat
  00083	83 c4 0c	 add	 esp, 12			; 0000000cH
  00086	0f b6 c0	 movzx	 eax, al
  00089	85 c0		 test	 eax, eax
  0008b	75 0d		 jne	 SHORT $LN5@grpRenderC

; 613  : 		return Py_BuildException();

  0008d	6a 00		 push	 0
  0008f	e8 00 00 00 00	 call	 ?Py_BuildException@@YAPAU_object@@PBDZZ ; Py_BuildException
  00094	59		 pop	 ecx
  00095	e9 96 00 00 00	 jmp	 $LN1@grpRenderC
$LN5@grpRenderC:

; 614  : 
; 615  : 	float ey;
; 616  : 	if (!PyTuple_GetFloat(poArgs, 4, &ey))

  0009a	8d 45 f8	 lea	 eax, DWORD PTR _ey$[ebp]
  0009d	50		 push	 eax
  0009e	6a 04		 push	 4
  000a0	ff 75 0c	 push	 DWORD PTR _poArgs$[ebp]
  000a3	e8 00 00 00 00	 call	 ?PyTuple_GetFloat@@YA_NPAU_object@@HPAM@Z ; PyTuple_GetFloat
  000a8	83 c4 0c	 add	 esp, 12			; 0000000cH
  000ab	0f b6 c0	 movzx	 eax, al
  000ae	85 c0		 test	 eax, eax
  000b0	75 0a		 jne	 SHORT $LN6@grpRenderC

; 617  : 		return Py_BuildException();

  000b2	6a 00		 push	 0
  000b4	e8 00 00 00 00	 call	 ?Py_BuildException@@YAPAU_object@@PBDZZ ; Py_BuildException
  000b9	59		 pop	 ecx
  000ba	eb 74		 jmp	 SHORT $LN1@grpRenderC
$LN6@grpRenderC:

; 618  : 
; 619  : 	float ez;
; 620  : 	if (!PyTuple_GetFloat(poArgs, 5, &ez))

  000bc	8d 45 fc	 lea	 eax, DWORD PTR _ez$[ebp]
  000bf	50		 push	 eax
  000c0	6a 05		 push	 5
  000c2	ff 75 0c	 push	 DWORD PTR _poArgs$[ebp]
  000c5	e8 00 00 00 00	 call	 ?PyTuple_GetFloat@@YA_NPAU_object@@HPAM@Z ; PyTuple_GetFloat
  000ca	83 c4 0c	 add	 esp, 12			; 0000000cH
  000cd	0f b6 c0	 movzx	 eax, al
  000d0	85 c0		 test	 eax, eax
  000d2	75 0a		 jne	 SHORT $LN7@grpRenderC

; 621  : 		return Py_BuildException();

  000d4	6a 00		 push	 0
  000d6	e8 00 00 00 00	 call	 ?Py_BuildException@@YAPAU_object@@PBDZZ ; Py_BuildException
  000db	59		 pop	 ecx
  000dc	eb 52		 jmp	 SHORT $LN1@grpRenderC
$LN7@grpRenderC:

; 622  : 
; 623  : 	CPythonGraphic::Instance().RenderCube(sx, sy, sz, ex, ey, ez);

  000de	51		 push	 ecx
  000df	f3 0f 10 45 fc	 movss	 xmm0, DWORD PTR _ez$[ebp]
  000e4	f3 0f 11 04 24	 movss	 DWORD PTR [esp], xmm0
  000e9	51		 push	 ecx
  000ea	f3 0f 10 45 f8	 movss	 xmm0, DWORD PTR _ey$[ebp]
  000ef	f3 0f 11 04 24	 movss	 DWORD PTR [esp], xmm0
  000f4	51		 push	 ecx
  000f5	f3 0f 10 45 f4	 movss	 xmm0, DWORD PTR _ex$[ebp]
  000fa	f3 0f 11 04 24	 movss	 DWORD PTR [esp], xmm0
  000ff	51		 push	 ecx
  00100	f3 0f 10 45 f0	 movss	 xmm0, DWORD PTR _sz$[ebp]
  00105	f3 0f 11 04 24	 movss	 DWORD PTR [esp], xmm0
  0010a	51		 push	 ecx
  0010b	f3 0f 10 45 ec	 movss	 xmm0, DWORD PTR _sy$[ebp]
  00110	f3 0f 11 04 24	 movss	 DWORD PTR [esp], xmm0
  00115	51		 push	 ecx
  00116	f3 0f 10 45 e8	 movss	 xmm0, DWORD PTR _sx$[ebp]
  0011b	f3 0f 11 04 24	 movss	 DWORD PTR [esp], xmm0
  00120	8b 0d 00 00 00
	00		 mov	 ecx, DWORD PTR ?ms_singleton@?$CSingleton@VCPythonGraphic@@@@0PAVCPythonGraphic@@A ; CSingleton<CPythonGraphic>::ms_singleton
  00126	e8 00 00 00 00	 call	 ?RenderCube@CScreen@@QAEXMMMMMM@Z ; CScreen::RenderCube

; 624  : 	return Py_BuildNone();

  0012b	e8 00 00 00 00	 call	 ?Py_BuildNone@@YAPAU_object@@XZ ; Py_BuildNone
$LN1@grpRenderC:

; 625  : }

  00130	c9		 leave
  00131	c3		 ret	 0
?grpRenderCube@@YAPAU_object@@PAU1@0@Z ENDP		; grpRenderCube
_TEXT	ENDS
; Function compile flags: /Odspy
; File D:\Metin2 Server Files\mainline\SRC_2014\Metin2Client\eterPythonLib\PythonGraphicModule.cpp
;	COMDAT ?grpRenderBar@@YAPAU_object@@PAU1@0@Z
_TEXT	SEGMENT
_width$ = -16						; size = 4
_height$ = -12						; size = 4
_x$ = -8						; size = 4
_y$ = -4						; size = 4
_poSelf$ = 8						; size = 4
_poArgs$ = 12						; size = 4
?grpRenderBar@@YAPAU_object@@PAU1@0@Z PROC		; grpRenderBar, COMDAT

; 576  : {

  00000	55		 push	 ebp
  00001	8b ec		 mov	 ebp, esp
  00003	83 ec 10	 sub	 esp, 16			; 00000010H

; 577  : 	int x;
; 578  : 	if (!PyTuple_GetInteger(poArgs, 0, &x))

  00006	8d 45 f8	 lea	 eax, DWORD PTR _x$[ebp]
  00009	50		 push	 eax
  0000a	6a 00		 push	 0
  0000c	ff 75 0c	 push	 DWORD PTR _poArgs$[ebp]
  0000f	e8 00 00 00 00	 call	 ?PyTuple_GetInteger@@YA_NPAU_object@@HPAH@Z ; PyTuple_GetInteger
  00014	83 c4 0c	 add	 esp, 12			; 0000000cH
  00017	0f b6 c0	 movzx	 eax, al
  0001a	85 c0		 test	 eax, eax
  0001c	75 0d		 jne	 SHORT $LN2@grpRenderB

; 579  : 		return Py_BuildException();

  0001e	6a 00		 push	 0
  00020	e8 00 00 00 00	 call	 ?Py_BuildException@@YAPAU_object@@PBDZZ ; Py_BuildException
  00025	59		 pop	 ecx
  00026	e9 c0 00 00 00	 jmp	 $LN1@grpRenderB
$LN2@grpRenderB:

; 580  : 
; 581  : 	int y;
; 582  : 	if (!PyTuple_GetInteger(poArgs, 1, &y))

  0002b	8d 45 fc	 lea	 eax, DWORD PTR _y$[ebp]
  0002e	50		 push	 eax
  0002f	6a 01		 push	 1
  00031	ff 75 0c	 push	 DWORD PTR _poArgs$[ebp]
  00034	e8 00 00 00 00	 call	 ?PyTuple_GetInteger@@YA_NPAU_object@@HPAH@Z ; PyTuple_GetInteger
  00039	83 c4 0c	 add	 esp, 12			; 0000000cH
  0003c	0f b6 c0	 movzx	 eax, al
  0003f	85 c0		 test	 eax, eax
  00041	75 0d		 jne	 SHORT $LN3@grpRenderB

; 583  : 		return Py_BuildException();

  00043	6a 00		 push	 0
  00045	e8 00 00 00 00	 call	 ?Py_BuildException@@YAPAU_object@@PBDZZ ; Py_BuildException
  0004a	59		 pop	 ecx
  0004b	e9 9b 00 00 00	 jmp	 $LN1@grpRenderB
$LN3@grpRenderB:

; 584  : 
; 585  : 	int width;
; 586  : 	if (!PyTuple_GetInteger(poArgs, 2, &width))

  00050	8d 45 f0	 lea	 eax, DWORD PTR _width$[ebp]
  00053	50		 push	 eax
  00054	6a 02		 push	 2
  00056	ff 75 0c	 push	 DWORD PTR _poArgs$[ebp]
  00059	e8 00 00 00 00	 call	 ?PyTuple_GetInteger@@YA_NPAU_object@@HPAH@Z ; PyTuple_GetInteger
  0005e	83 c4 0c	 add	 esp, 12			; 0000000cH
  00061	0f b6 c0	 movzx	 eax, al
  00064	85 c0		 test	 eax, eax
  00066	75 0a		 jne	 SHORT $LN4@grpRenderB

; 587  : 		return Py_BuildException();

  00068	6a 00		 push	 0
  0006a	e8 00 00 00 00	 call	 ?Py_BuildException@@YAPAU_object@@PBDZZ ; Py_BuildException
  0006f	59		 pop	 ecx
  00070	eb 79		 jmp	 SHORT $LN1@grpRenderB
$LN4@grpRenderB:

; 588  : 
; 589  : 	int height;
; 590  : 	if (!PyTuple_GetInteger(poArgs, 3, &height))

  00072	8d 45 f4	 lea	 eax, DWORD PTR _height$[ebp]
  00075	50		 push	 eax
  00076	6a 03		 push	 3
  00078	ff 75 0c	 push	 DWORD PTR _poArgs$[ebp]
  0007b	e8 00 00 00 00	 call	 ?PyTuple_GetInteger@@YA_NPAU_object@@HPAH@Z ; PyTuple_GetInteger
  00080	83 c4 0c	 add	 esp, 12			; 0000000cH
  00083	0f b6 c0	 movzx	 eax, al
  00086	85 c0		 test	 eax, eax
  00088	75 0a		 jne	 SHORT $LN5@grpRenderB

; 591  : 		return Py_BuildException();

  0008a	6a 00		 push	 0
  0008c	e8 00 00 00 00	 call	 ?Py_BuildException@@YAPAU_object@@PBDZZ ; Py_BuildException
  00091	59		 pop	 ecx
  00092	eb 57		 jmp	 SHORT $LN1@grpRenderB
$LN5@grpRenderB:

; 592  : 
; 593  : 	CPythonGraphic::Instance().RenderBar2d((float) x, (float) y, (float) x+width, (float) y+height);

  00094	51		 push	 ecx
  00095	0f 57 c0	 xorps	 xmm0, xmm0
  00098	f3 0f 11 04 24	 movss	 DWORD PTR [esp], xmm0
  0009d	f3 0f 2a 45 fc	 cvtsi2ss xmm0, DWORD PTR _y$[ebp]
  000a2	f3 0f 2a 4d f4	 cvtsi2ss xmm1, DWORD PTR _height$[ebp]
  000a7	f3 0f 58 c1	 addss	 xmm0, xmm1
  000ab	51		 push	 ecx
  000ac	f3 0f 11 04 24	 movss	 DWORD PTR [esp], xmm0
  000b1	f3 0f 2a 45 f8	 cvtsi2ss xmm0, DWORD PTR _x$[ebp]
  000b6	f3 0f 2a 4d f0	 cvtsi2ss xmm1, DWORD PTR _width$[ebp]
  000bb	f3 0f 58 c1	 addss	 xmm0, xmm1
  000bf	51		 push	 ecx
  000c0	f3 0f 11 04 24	 movss	 DWORD PTR [esp], xmm0
  000c5	f3 0f 2a 45 fc	 cvtsi2ss xmm0, DWORD PTR _y$[ebp]
  000ca	51		 push	 ecx
  000cb	f3 0f 11 04 24	 movss	 DWORD PTR [esp], xmm0
  000d0	f3 0f 2a 45 f8	 cvtsi2ss xmm0, DWORD PTR _x$[ebp]
  000d5	51		 push	 ecx
  000d6	f3 0f 11 04 24	 movss	 DWORD PTR [esp], xmm0
  000db	8b 0d 00 00 00
	00		 mov	 ecx, DWORD PTR ?ms_singleton@?$CSingleton@VCPythonGraphic@@@@0PAVCPythonGraphic@@A ; CSingleton<CPythonGraphic>::ms_singleton
  000e1	e8 00 00 00 00	 call	 ?RenderBar2d@CScreen@@QAEXMMMMM@Z ; CScreen::RenderBar2d

; 594  : 	return Py_BuildNone();

  000e6	e8 00 00 00 00	 call	 ?Py_BuildNone@@YAPAU_object@@XZ ; Py_BuildNone
$LN1@grpRenderB:

; 595  : }

  000eb	c9		 leave
  000ec	c3		 ret	 0
?grpRenderBar@@YAPAU_object@@PAU1@0@Z ENDP		; grpRenderBar
_TEXT	ENDS
; Function compile flags: /Odspy
; File D:\Metin2 Server Files\mainline\SRC_2014\Metin2Client\eterPythonLib\PythonGraphicModule.cpp
;	COMDAT ?grpRenderBox@@YAPAU_object@@PAU1@0@Z
_TEXT	SEGMENT
_width$ = -16						; size = 4
_height$ = -12						; size = 4
_x$ = -8						; size = 4
_y$ = -4						; size = 4
_poSelf$ = 8						; size = 4
_poArgs$ = 12						; size = 4
?grpRenderBox@@YAPAU_object@@PAU1@0@Z PROC		; grpRenderBox, COMDAT

; 554  : {

  00000	55		 push	 ebp
  00001	8b ec		 mov	 ebp, esp
  00003	83 ec 10	 sub	 esp, 16			; 00000010H

; 555  : 	int x;
; 556  : 	if (!PyTuple_GetInteger(poArgs, 0, &x))

  00006	8d 45 f8	 lea	 eax, DWORD PTR _x$[ebp]
  00009	50		 push	 eax
  0000a	6a 00		 push	 0
  0000c	ff 75 0c	 push	 DWORD PTR _poArgs$[ebp]
  0000f	e8 00 00 00 00	 call	 ?PyTuple_GetInteger@@YA_NPAU_object@@HPAH@Z ; PyTuple_GetInteger
  00014	83 c4 0c	 add	 esp, 12			; 0000000cH
  00017	0f b6 c0	 movzx	 eax, al
  0001a	85 c0		 test	 eax, eax
  0001c	75 0d		 jne	 SHORT $LN2@grpRenderB

; 557  : 		return Py_BuildException();

  0001e	6a 00		 push	 0
  00020	e8 00 00 00 00	 call	 ?Py_BuildException@@YAPAU_object@@PBDZZ ; Py_BuildException
  00025	59		 pop	 ecx
  00026	e9 c0 00 00 00	 jmp	 $LN1@grpRenderB
$LN2@grpRenderB:

; 558  : 
; 559  : 	int y;
; 560  : 	if (!PyTuple_GetInteger(poArgs, 1, &y))

  0002b	8d 45 fc	 lea	 eax, DWORD PTR _y$[ebp]
  0002e	50		 push	 eax
  0002f	6a 01		 push	 1
  00031	ff 75 0c	 push	 DWORD PTR _poArgs$[ebp]
  00034	e8 00 00 00 00	 call	 ?PyTuple_GetInteger@@YA_NPAU_object@@HPAH@Z ; PyTuple_GetInteger
  00039	83 c4 0c	 add	 esp, 12			; 0000000cH
  0003c	0f b6 c0	 movzx	 eax, al
  0003f	85 c0		 test	 eax, eax
  00041	75 0d		 jne	 SHORT $LN3@grpRenderB

; 561  : 		return Py_BuildException();

  00043	6a 00		 push	 0
  00045	e8 00 00 00 00	 call	 ?Py_BuildException@@YAPAU_object@@PBDZZ ; Py_BuildException
  0004a	59		 pop	 ecx
  0004b	e9 9b 00 00 00	 jmp	 $LN1@grpRenderB
$LN3@grpRenderB:

; 562  : 
; 563  : 	int width;
; 564  : 	if (!PyTuple_GetInteger(poArgs, 2, &width))

  00050	8d 45 f0	 lea	 eax, DWORD PTR _width$[ebp]
  00053	50		 push	 eax
  00054	6a 02		 push	 2
  00056	ff 75 0c	 push	 DWORD PTR _poArgs$[ebp]
  00059	e8 00 00 00 00	 call	 ?PyTuple_GetInteger@@YA_NPAU_object@@HPAH@Z ; PyTuple_GetInteger
  0005e	83 c4 0c	 add	 esp, 12			; 0000000cH
  00061	0f b6 c0	 movzx	 eax, al
  00064	85 c0		 test	 eax, eax
  00066	75 0a		 jne	 SHORT $LN4@grpRenderB

; 565  : 		return Py_BuildException();

  00068	6a 00		 push	 0
  0006a	e8 00 00 00 00	 call	 ?Py_BuildException@@YAPAU_object@@PBDZZ ; Py_BuildException
  0006f	59		 pop	 ecx
  00070	eb 79		 jmp	 SHORT $LN1@grpRenderB
$LN4@grpRenderB:

; 566  : 
; 567  : 	int height;
; 568  : 	if (!PyTuple_GetInteger(poArgs, 3, &height))

  00072	8d 45 f4	 lea	 eax, DWORD PTR _height$[ebp]
  00075	50		 push	 eax
  00076	6a 03		 push	 3
  00078	ff 75 0c	 push	 DWORD PTR _poArgs$[ebp]
  0007b	e8 00 00 00 00	 call	 ?PyTuple_GetInteger@@YA_NPAU_object@@HPAH@Z ; PyTuple_GetInteger
  00080	83 c4 0c	 add	 esp, 12			; 0000000cH
  00083	0f b6 c0	 movzx	 eax, al
  00086	85 c0		 test	 eax, eax
  00088	75 0a		 jne	 SHORT $LN5@grpRenderB

; 569  : 		return Py_BuildException();

  0008a	6a 00		 push	 0
  0008c	e8 00 00 00 00	 call	 ?Py_BuildException@@YAPAU_object@@PBDZZ ; Py_BuildException
  00091	59		 pop	 ecx
  00092	eb 57		 jmp	 SHORT $LN1@grpRenderB
$LN5@grpRenderB:

; 570  : 
; 571  : 	CPythonGraphic::Instance().RenderBox2d((float) x, (float) y, (float) x+width, (float) y+height);

  00094	51		 push	 ecx
  00095	0f 57 c0	 xorps	 xmm0, xmm0
  00098	f3 0f 11 04 24	 movss	 DWORD PTR [esp], xmm0
  0009d	f3 0f 2a 45 fc	 cvtsi2ss xmm0, DWORD PTR _y$[ebp]
  000a2	f3 0f 2a 4d f4	 cvtsi2ss xmm1, DWORD PTR _height$[ebp]
  000a7	f3 0f 58 c1	 addss	 xmm0, xmm1
  000ab	51		 push	 ecx
  000ac	f3 0f 11 04 24	 movss	 DWORD PTR [esp], xmm0
  000b1	f3 0f 2a 45 f8	 cvtsi2ss xmm0, DWORD PTR _x$[ebp]
  000b6	f3 0f 2a 4d f0	 cvtsi2ss xmm1, DWORD PTR _width$[ebp]
  000bb	f3 0f 58 c1	 addss	 xmm0, xmm1
  000bf	51		 push	 ecx
  000c0	f3 0f 11 04 24	 movss	 DWORD PTR [esp], xmm0
  000c5	f3 0f 2a 45 fc	 cvtsi2ss xmm0, DWORD PTR _y$[ebp]
  000ca	51		 push	 ecx
  000cb	f3 0f 11 04 24	 movss	 DWORD PTR [esp], xmm0
  000d0	f3 0f 2a 45 f8	 cvtsi2ss xmm0, DWORD PTR _x$[ebp]
  000d5	51		 push	 ecx
  000d6	f3 0f 11 04 24	 movss	 DWORD PTR [esp], xmm0
  000db	8b 0d 00 00 00
	00		 mov	 ecx, DWORD PTR ?ms_singleton@?$CSingleton@VCPythonGraphic@@@@0PAVCPythonGraphic@@A ; CSingleton<CPythonGraphic>::ms_singleton
  000e1	e8 00 00 00 00	 call	 ?RenderBox2d@CScreen@@QAEXMMMMM@Z ; CScreen::RenderBox2d

; 572  : 	return Py_BuildNone();

  000e6	e8 00 00 00 00	 call	 ?Py_BuildNone@@YAPAU_object@@XZ ; Py_BuildNone
$LN1@grpRenderB:

; 573  : }

  000eb	c9		 leave
  000ec	c3		 ret	 0
?grpRenderBox@@YAPAU_object@@PAU1@0@Z ENDP		; grpRenderBox
_TEXT	ENDS
; Function compile flags: /Odspy
; File D:\Metin2 Server Files\mainline\SRC_2014\Metin2Client\eterPythonLib\PythonGraphicModule.cpp
;	COMDAT ?grpRenderRoundBox@@YAPAU_object@@PAU1@0@Z
_TEXT	SEGMENT
_height$ = -32						; size = 4
_width$ = -28						; size = 4
_y$ = -24						; size = 4
_x$ = -20						; size = 4
_fWidth$ = -16						; size = 4
_fHeight$ = -12						; size = 4
_fx$ = -8						; size = 4
_fy$ = -4						; size = 4
_poSelf$ = 8						; size = 4
_poArgs$ = 12						; size = 4
?grpRenderRoundBox@@YAPAU_object@@PAU1@0@Z PROC		; grpRenderRoundBox, COMDAT

; 520  : {

  00000	55		 push	 ebp
  00001	8b ec		 mov	 ebp, esp
  00003	83 ec 20	 sub	 esp, 32			; 00000020H

; 521  : 	int x;
; 522  : 	if (!PyTuple_GetInteger(poArgs, 0, &x))

  00006	8d 45 ec	 lea	 eax, DWORD PTR _x$[ebp]
  00009	50		 push	 eax
  0000a	6a 00		 push	 0
  0000c	ff 75 0c	 push	 DWORD PTR _poArgs$[ebp]
  0000f	e8 00 00 00 00	 call	 ?PyTuple_GetInteger@@YA_NPAU_object@@HPAH@Z ; PyTuple_GetInteger
  00014	83 c4 0c	 add	 esp, 12			; 0000000cH
  00017	0f b6 c0	 movzx	 eax, al
  0001a	85 c0		 test	 eax, eax
  0001c	75 0d		 jne	 SHORT $LN2@grpRenderR

; 523  : 		return Py_BuildException();

  0001e	6a 00		 push	 0
  00020	e8 00 00 00 00	 call	 ?Py_BuildException@@YAPAU_object@@PBDZZ ; Py_BuildException
  00025	59		 pop	 ecx
  00026	e9 94 03 00 00	 jmp	 $LN1@grpRenderR
$LN2@grpRenderR:

; 524  : 
; 525  : 	int y;
; 526  : 	if (!PyTuple_GetInteger(poArgs, 1, &y))

  0002b	8d 45 e8	 lea	 eax, DWORD PTR _y$[ebp]
  0002e	50		 push	 eax
  0002f	6a 01		 push	 1
  00031	ff 75 0c	 push	 DWORD PTR _poArgs$[ebp]
  00034	e8 00 00 00 00	 call	 ?PyTuple_GetInteger@@YA_NPAU_object@@HPAH@Z ; PyTuple_GetInteger
  00039	83 c4 0c	 add	 esp, 12			; 0000000cH
  0003c	0f b6 c0	 movzx	 eax, al
  0003f	85 c0		 test	 eax, eax
  00041	75 0d		 jne	 SHORT $LN3@grpRenderR

; 527  : 		return Py_BuildException();

  00043	6a 00		 push	 0
  00045	e8 00 00 00 00	 call	 ?Py_BuildException@@YAPAU_object@@PBDZZ ; Py_BuildException
  0004a	59		 pop	 ecx
  0004b	e9 6f 03 00 00	 jmp	 $LN1@grpRenderR
$LN3@grpRenderR:

; 528  : 
; 529  : 	int width;
; 530  : 	if (!PyTuple_GetInteger(poArgs, 2, &width))

  00050	8d 45 e4	 lea	 eax, DWORD PTR _width$[ebp]
  00053	50		 push	 eax
  00054	6a 02		 push	 2
  00056	ff 75 0c	 push	 DWORD PTR _poArgs$[ebp]
  00059	e8 00 00 00 00	 call	 ?PyTuple_GetInteger@@YA_NPAU_object@@HPAH@Z ; PyTuple_GetInteger
  0005e	83 c4 0c	 add	 esp, 12			; 0000000cH
  00061	0f b6 c0	 movzx	 eax, al
  00064	85 c0		 test	 eax, eax
  00066	75 0d		 jne	 SHORT $LN4@grpRenderR

; 531  : 		return Py_BuildException();

  00068	6a 00		 push	 0
  0006a	e8 00 00 00 00	 call	 ?Py_BuildException@@YAPAU_object@@PBDZZ ; Py_BuildException
  0006f	59		 pop	 ecx
  00070	e9 4a 03 00 00	 jmp	 $LN1@grpRenderR
$LN4@grpRenderR:

; 532  : 
; 533  : 	int height;
; 534  : 	if (!PyTuple_GetInteger(poArgs, 3, &height))

  00075	8d 45 e0	 lea	 eax, DWORD PTR _height$[ebp]
  00078	50		 push	 eax
  00079	6a 03		 push	 3
  0007b	ff 75 0c	 push	 DWORD PTR _poArgs$[ebp]
  0007e	e8 00 00 00 00	 call	 ?PyTuple_GetInteger@@YA_NPAU_object@@HPAH@Z ; PyTuple_GetInteger
  00083	83 c4 0c	 add	 esp, 12			; 0000000cH
  00086	0f b6 c0	 movzx	 eax, al
  00089	85 c0		 test	 eax, eax
  0008b	75 0d		 jne	 SHORT $LN5@grpRenderR

; 535  : 		return Py_BuildException();

  0008d	6a 00		 push	 0
  0008f	e8 00 00 00 00	 call	 ?Py_BuildException@@YAPAU_object@@PBDZZ ; Py_BuildException
  00094	59		 pop	 ecx
  00095	e9 25 03 00 00	 jmp	 $LN1@grpRenderR
$LN5@grpRenderR:

; 536  : 
; 537  : 	float fx = float(x);

  0009a	f3 0f 2a 45 ec	 cvtsi2ss xmm0, DWORD PTR _x$[ebp]
  0009f	f3 0f 11 45 f8	 movss	 DWORD PTR _fx$[ebp], xmm0

; 538  : 	float fy = float(y);

  000a4	f3 0f 2a 45 e8	 cvtsi2ss xmm0, DWORD PTR _y$[ebp]
  000a9	f3 0f 11 45 fc	 movss	 DWORD PTR _fy$[ebp], xmm0

; 539  : 	float fWidth = float(width);

  000ae	f3 0f 2a 45 e4	 cvtsi2ss xmm0, DWORD PTR _width$[ebp]
  000b3	f3 0f 11 45 f0	 movss	 DWORD PTR _fWidth$[ebp], xmm0

; 540  : 	float fHeight = float(height);

  000b8	f3 0f 2a 45 e0	 cvtsi2ss xmm0, DWORD PTR _height$[ebp]
  000bd	f3 0f 11 45 f4	 movss	 DWORD PTR _fHeight$[ebp], xmm0

; 541  : 
; 542  : 	CPythonGraphic::Instance().RenderLine2d(fx+2.0f, fy, fx+2.0f + (fWidth-3.0f), fy);

  000c2	51		 push	 ecx
  000c3	0f 57 c0	 xorps	 xmm0, xmm0
  000c6	f3 0f 11 04 24	 movss	 DWORD PTR [esp], xmm0
  000cb	51		 push	 ecx
  000cc	f3 0f 10 45 fc	 movss	 xmm0, DWORD PTR _fy$[ebp]
  000d1	f3 0f 11 04 24	 movss	 DWORD PTR [esp], xmm0
  000d6	f3 0f 10 45 f8	 movss	 xmm0, DWORD PTR _fx$[ebp]
  000db	f3 0f 58 05 00
	00 00 00	 addss	 xmm0, DWORD PTR __real@40000000
  000e3	f3 0f 10 4d f0	 movss	 xmm1, DWORD PTR _fWidth$[ebp]
  000e8	f3 0f 5c 0d 00
	00 00 00	 subss	 xmm1, DWORD PTR __real@40400000
  000f0	f3 0f 58 c1	 addss	 xmm0, xmm1
  000f4	51		 push	 ecx
  000f5	f3 0f 11 04 24	 movss	 DWORD PTR [esp], xmm0
  000fa	51		 push	 ecx
  000fb	f3 0f 10 45 fc	 movss	 xmm0, DWORD PTR _fy$[ebp]
  00100	f3 0f 11 04 24	 movss	 DWORD PTR [esp], xmm0
  00105	f3 0f 10 45 f8	 movss	 xmm0, DWORD PTR _fx$[ebp]
  0010a	f3 0f 58 05 00
	00 00 00	 addss	 xmm0, DWORD PTR __real@40000000
  00112	51		 push	 ecx
  00113	f3 0f 11 04 24	 movss	 DWORD PTR [esp], xmm0
  00118	8b 0d 00 00 00
	00		 mov	 ecx, DWORD PTR ?ms_singleton@?$CSingleton@VCPythonGraphic@@@@0PAVCPythonGraphic@@A ; CSingleton<CPythonGraphic>::ms_singleton
  0011e	e8 00 00 00 00	 call	 ?RenderLine2d@CScreen@@QAEXMMMMM@Z ; CScreen::RenderLine2d

; 543  : 	CPythonGraphic::Instance().RenderLine2d(fx+2.0f, fy+fHeight, fx+2.0f + (fWidth-3.0f), fy+fHeight);

  00123	51		 push	 ecx
  00124	0f 57 c0	 xorps	 xmm0, xmm0
  00127	f3 0f 11 04 24	 movss	 DWORD PTR [esp], xmm0
  0012c	f3 0f 10 45 fc	 movss	 xmm0, DWORD PTR _fy$[ebp]
  00131	f3 0f 58 45 f4	 addss	 xmm0, DWORD PTR _fHeight$[ebp]
  00136	51		 push	 ecx
  00137	f3 0f 11 04 24	 movss	 DWORD PTR [esp], xmm0
  0013c	f3 0f 10 45 f8	 movss	 xmm0, DWORD PTR _fx$[ebp]
  00141	f3 0f 58 05 00
	00 00 00	 addss	 xmm0, DWORD PTR __real@40000000
  00149	f3 0f 10 4d f0	 movss	 xmm1, DWORD PTR _fWidth$[ebp]
  0014e	f3 0f 5c 0d 00
	00 00 00	 subss	 xmm1, DWORD PTR __real@40400000
  00156	f3 0f 58 c1	 addss	 xmm0, xmm1
  0015a	51		 push	 ecx
  0015b	f3 0f 11 04 24	 movss	 DWORD PTR [esp], xmm0
  00160	f3 0f 10 45 fc	 movss	 xmm0, DWORD PTR _fy$[ebp]
  00165	f3 0f 58 45 f4	 addss	 xmm0, DWORD PTR _fHeight$[ebp]
  0016a	51		 push	 ecx
  0016b	f3 0f 11 04 24	 movss	 DWORD PTR [esp], xmm0
  00170	f3 0f 10 45 f8	 movss	 xmm0, DWORD PTR _fx$[ebp]
  00175	f3 0f 58 05 00
	00 00 00	 addss	 xmm0, DWORD PTR __real@40000000
  0017d	51		 push	 ecx
  0017e	f3 0f 11 04 24	 movss	 DWORD PTR [esp], xmm0
  00183	8b 0d 00 00 00
	00		 mov	 ecx, DWORD PTR ?ms_singleton@?$CSingleton@VCPythonGraphic@@@@0PAVCPythonGraphic@@A ; CSingleton<CPythonGraphic>::ms_singleton
  00189	e8 00 00 00 00	 call	 ?RenderLine2d@CScreen@@QAEXMMMMM@Z ; CScreen::RenderLine2d

; 544  : 	CPythonGraphic::Instance().RenderLine2d(fx, fy+2.0f, fx, fy+2.0f + fHeight-4.0f);

  0018e	51		 push	 ecx
  0018f	0f 57 c0	 xorps	 xmm0, xmm0
  00192	f3 0f 11 04 24	 movss	 DWORD PTR [esp], xmm0
  00197	f3 0f 10 45 fc	 movss	 xmm0, DWORD PTR _fy$[ebp]
  0019c	f3 0f 58 05 00
	00 00 00	 addss	 xmm0, DWORD PTR __real@40000000
  001a4	f3 0f 58 45 f4	 addss	 xmm0, DWORD PTR _fHeight$[ebp]
  001a9	f3 0f 5c 05 00
	00 00 00	 subss	 xmm0, DWORD PTR __real@40800000
  001b1	51		 push	 ecx
  001b2	f3 0f 11 04 24	 movss	 DWORD PTR [esp], xmm0
  001b7	51		 push	 ecx
  001b8	f3 0f 10 45 f8	 movss	 xmm0, DWORD PTR _fx$[ebp]
  001bd	f3 0f 11 04 24	 movss	 DWORD PTR [esp], xmm0
  001c2	f3 0f 10 45 fc	 movss	 xmm0, DWORD PTR _fy$[ebp]
  001c7	f3 0f 58 05 00
	00 00 00	 addss	 xmm0, DWORD PTR __real@40000000
  001cf	51		 push	 ecx
  001d0	f3 0f 11 04 24	 movss	 DWORD PTR [esp], xmm0
  001d5	51		 push	 ecx
  001d6	f3 0f 10 45 f8	 movss	 xmm0, DWORD PTR _fx$[ebp]
  001db	f3 0f 11 04 24	 movss	 DWORD PTR [esp], xmm0
  001e0	8b 0d 00 00 00
	00		 mov	 ecx, DWORD PTR ?ms_singleton@?$CSingleton@VCPythonGraphic@@@@0PAVCPythonGraphic@@A ; CSingleton<CPythonGraphic>::ms_singleton
  001e6	e8 00 00 00 00	 call	 ?RenderLine2d@CScreen@@QAEXMMMMM@Z ; CScreen::RenderLine2d

; 545  : 	CPythonGraphic::Instance().RenderLine2d(fx+fWidth, fy+1.0f, fx+fWidth, fy+1.0f + fHeight-3.0f);

  001eb	51		 push	 ecx
  001ec	0f 57 c0	 xorps	 xmm0, xmm0
  001ef	f3 0f 11 04 24	 movss	 DWORD PTR [esp], xmm0
  001f4	f3 0f 10 45 fc	 movss	 xmm0, DWORD PTR _fy$[ebp]
  001f9	f3 0f 58 05 00
	00 00 00	 addss	 xmm0, DWORD PTR __real@3f800000
  00201	f3 0f 58 45 f4	 addss	 xmm0, DWORD PTR _fHeight$[ebp]
  00206	f3 0f 5c 05 00
	00 00 00	 subss	 xmm0, DWORD PTR __real@40400000
  0020e	51		 push	 ecx
  0020f	f3 0f 11 04 24	 movss	 DWORD PTR [esp], xmm0
  00214	f3 0f 10 45 f8	 movss	 xmm0, DWORD PTR _fx$[ebp]
  00219	f3 0f 58 45 f0	 addss	 xmm0, DWORD PTR _fWidth$[ebp]
  0021e	51		 push	 ecx
  0021f	f3 0f 11 04 24	 movss	 DWORD PTR [esp], xmm0
  00224	f3 0f 10 45 fc	 movss	 xmm0, DWORD PTR _fy$[ebp]
  00229	f3 0f 58 05 00
	00 00 00	 addss	 xmm0, DWORD PTR __real@3f800000
  00231	51		 push	 ecx
  00232	f3 0f 11 04 24	 movss	 DWORD PTR [esp], xmm0
  00237	f3 0f 10 45 f8	 movss	 xmm0, DWORD PTR _fx$[ebp]
  0023c	f3 0f 58 45 f0	 addss	 xmm0, DWORD PTR _fWidth$[ebp]
  00241	51		 push	 ecx
  00242	f3 0f 11 04 24	 movss	 DWORD PTR [esp], xmm0
  00247	8b 0d 00 00 00
	00		 mov	 ecx, DWORD PTR ?ms_singleton@?$CSingleton@VCPythonGraphic@@@@0PAVCPythonGraphic@@A ; CSingleton<CPythonGraphic>::ms_singleton
  0024d	e8 00 00 00 00	 call	 ?RenderLine2d@CScreen@@QAEXMMMMM@Z ; CScreen::RenderLine2d

; 546  : 	CPythonGraphic::Instance().RenderLine2d(fx, fy+2.0f, fx+2.0f, fy);

  00252	51		 push	 ecx
  00253	0f 57 c0	 xorps	 xmm0, xmm0
  00256	f3 0f 11 04 24	 movss	 DWORD PTR [esp], xmm0
  0025b	51		 push	 ecx
  0025c	f3 0f 10 45 fc	 movss	 xmm0, DWORD PTR _fy$[ebp]
  00261	f3 0f 11 04 24	 movss	 DWORD PTR [esp], xmm0
  00266	f3 0f 10 45 f8	 movss	 xmm0, DWORD PTR _fx$[ebp]
  0026b	f3 0f 58 05 00
	00 00 00	 addss	 xmm0, DWORD PTR __real@40000000
  00273	51		 push	 ecx
  00274	f3 0f 11 04 24	 movss	 DWORD PTR [esp], xmm0
  00279	f3 0f 10 45 fc	 movss	 xmm0, DWORD PTR _fy$[ebp]
  0027e	f3 0f 58 05 00
	00 00 00	 addss	 xmm0, DWORD PTR __real@40000000
  00286	51		 push	 ecx
  00287	f3 0f 11 04 24	 movss	 DWORD PTR [esp], xmm0
  0028c	51		 push	 ecx
  0028d	f3 0f 10 45 f8	 movss	 xmm0, DWORD PTR _fx$[ebp]
  00292	f3 0f 11 04 24	 movss	 DWORD PTR [esp], xmm0
  00297	8b 0d 00 00 00
	00		 mov	 ecx, DWORD PTR ?ms_singleton@?$CSingleton@VCPythonGraphic@@@@0PAVCPythonGraphic@@A ; CSingleton<CPythonGraphic>::ms_singleton
  0029d	e8 00 00 00 00	 call	 ?RenderLine2d@CScreen@@QAEXMMMMM@Z ; CScreen::RenderLine2d

; 547  : 	CPythonGraphic::Instance().RenderLine2d(fx, fy+fHeight-2.0f, fx+2.0f, fy+fHeight);

  002a2	51		 push	 ecx
  002a3	0f 57 c0	 xorps	 xmm0, xmm0
  002a6	f3 0f 11 04 24	 movss	 DWORD PTR [esp], xmm0
  002ab	f3 0f 10 45 fc	 movss	 xmm0, DWORD PTR _fy$[ebp]
  002b0	f3 0f 58 45 f4	 addss	 xmm0, DWORD PTR _fHeight$[ebp]
  002b5	51		 push	 ecx
  002b6	f3 0f 11 04 24	 movss	 DWORD PTR [esp], xmm0
  002bb	f3 0f 10 45 f8	 movss	 xmm0, DWORD PTR _fx$[ebp]
  002c0	f3 0f 58 05 00
	00 00 00	 addss	 xmm0, DWORD PTR __real@40000000
  002c8	51		 push	 ecx
  002c9	f3 0f 11 04 24	 movss	 DWORD PTR [esp], xmm0
  002ce	f3 0f 10 45 fc	 movss	 xmm0, DWORD PTR _fy$[ebp]
  002d3	f3 0f 58 45 f4	 addss	 xmm0, DWORD PTR _fHeight$[ebp]
  002d8	f3 0f 5c 05 00
	00 00 00	 subss	 xmm0, DWORD PTR __real@40000000
  002e0	51		 push	 ecx
  002e1	f3 0f 11 04 24	 movss	 DWORD PTR [esp], xmm0
  002e6	51		 push	 ecx
  002e7	f3 0f 10 45 f8	 movss	 xmm0, DWORD PTR _fx$[ebp]
  002ec	f3 0f 11 04 24	 movss	 DWORD PTR [esp], xmm0
  002f1	8b 0d 00 00 00
	00		 mov	 ecx, DWORD PTR ?ms_singleton@?$CSingleton@VCPythonGraphic@@@@0PAVCPythonGraphic@@A ; CSingleton<CPythonGraphic>::ms_singleton
  002f7	e8 00 00 00 00	 call	 ?RenderLine2d@CScreen@@QAEXMMMMM@Z ; CScreen::RenderLine2d

; 548  : 	CPythonGraphic::Instance().RenderLine2d(fx+fWidth-2.0f, fy, fx+fWidth, fy+2.0f);

  002fc	51		 push	 ecx
  002fd	0f 57 c0	 xorps	 xmm0, xmm0
  00300	f3 0f 11 04 24	 movss	 DWORD PTR [esp], xmm0
  00305	f3 0f 10 45 fc	 movss	 xmm0, DWORD PTR _fy$[ebp]
  0030a	f3 0f 58 05 00
	00 00 00	 addss	 xmm0, DWORD PTR __real@40000000
  00312	51		 push	 ecx
  00313	f3 0f 11 04 24	 movss	 DWORD PTR [esp], xmm0
  00318	f3 0f 10 45 f8	 movss	 xmm0, DWORD PTR _fx$[ebp]
  0031d	f3 0f 58 45 f0	 addss	 xmm0, DWORD PTR _fWidth$[ebp]
  00322	51		 push	 ecx
  00323	f3 0f 11 04 24	 movss	 DWORD PTR [esp], xmm0
  00328	51		 push	 ecx
  00329	f3 0f 10 45 fc	 movss	 xmm0, DWORD PTR _fy$[ebp]
  0032e	f3 0f 11 04 24	 movss	 DWORD PTR [esp], xmm0
  00333	f3 0f 10 45 f8	 movss	 xmm0, DWORD PTR _fx$[ebp]
  00338	f3 0f 58 45 f0	 addss	 xmm0, DWORD PTR _fWidth$[ebp]
  0033d	f3 0f 5c 05 00
	00 00 00	 subss	 xmm0, DWORD PTR __real@40000000
  00345	51		 push	 ecx
  00346	f3 0f 11 04 24	 movss	 DWORD PTR [esp], xmm0
  0034b	8b 0d 00 00 00
	00		 mov	 ecx, DWORD PTR ?ms_singleton@?$CSingleton@VCPythonGraphic@@@@0PAVCPythonGraphic@@A ; CSingleton<CPythonGraphic>::ms_singleton
  00351	e8 00 00 00 00	 call	 ?RenderLine2d@CScreen@@QAEXMMMMM@Z ; CScreen::RenderLine2d

; 549  : 	CPythonGraphic::Instance().RenderLine2d(fx+fWidth-2.0f, fy+fHeight, fx+fWidth, fy+fHeight-2.0f);

  00356	51		 push	 ecx
  00357	0f 57 c0	 xorps	 xmm0, xmm0
  0035a	f3 0f 11 04 24	 movss	 DWORD PTR [esp], xmm0
  0035f	f3 0f 10 45 fc	 movss	 xmm0, DWORD PTR _fy$[ebp]
  00364	f3 0f 58 45 f4	 addss	 xmm0, DWORD PTR _fHeight$[ebp]
  00369	f3 0f 5c 05 00
	00 00 00	 subss	 xmm0, DWORD PTR __real@40000000
  00371	51		 push	 ecx
  00372	f3 0f 11 04 24	 movss	 DWORD PTR [esp], xmm0
  00377	f3 0f 10 45 f8	 movss	 xmm0, DWORD PTR _fx$[ebp]
  0037c	f3 0f 58 45 f0	 addss	 xmm0, DWORD PTR _fWidth$[ebp]
  00381	51		 push	 ecx
  00382	f3 0f 11 04 24	 movss	 DWORD PTR [esp], xmm0
  00387	f3 0f 10 45 fc	 movss	 xmm0, DWORD PTR _fy$[ebp]
  0038c	f3 0f 58 45 f4	 addss	 xmm0, DWORD PTR _fHeight$[ebp]
  00391	51		 push	 ecx
  00392	f3 0f 11 04 24	 movss	 DWORD PTR [esp], xmm0
  00397	f3 0f 10 45 f8	 movss	 xmm0, DWORD PTR _fx$[ebp]
  0039c	f3 0f 58 45 f0	 addss	 xmm0, DWORD PTR _fWidth$[ebp]
  003a1	f3 0f 5c 05 00
	00 00 00	 subss	 xmm0, DWORD PTR __real@40000000
  003a9	51		 push	 ecx
  003aa	f3 0f 11 04 24	 movss	 DWORD PTR [esp], xmm0
  003af	8b 0d 00 00 00
	00		 mov	 ecx, DWORD PTR ?ms_singleton@?$CSingleton@VCPythonGraphic@@@@0PAVCPythonGraphic@@A ; CSingleton<CPythonGraphic>::ms_singleton
  003b5	e8 00 00 00 00	 call	 ?RenderLine2d@CScreen@@QAEXMMMMM@Z ; CScreen::RenderLine2d

; 550  : 	return Py_BuildNone();

  003ba	e8 00 00 00 00	 call	 ?Py_BuildNone@@YAPAU_object@@XZ ; Py_BuildNone
$LN1@grpRenderR:

; 551  : }

  003bf	c9		 leave
  003c0	c3		 ret	 0
?grpRenderRoundBox@@YAPAU_object@@PAU1@0@Z ENDP		; grpRenderRoundBox
_TEXT	ENDS
; Function compile flags: /Odspy
; File D:\Metin2 Server Files\mainline\SRC_2014\Metin2Client\eterPythonLib\PythonGraphicModule.cpp
;	COMDAT ?grpRenderLine@@YAPAU_object@@PAU1@0@Z
_TEXT	SEGMENT
_width$ = -16						; size = 4
_height$ = -12						; size = 4
_x$ = -8						; size = 4
_y$ = -4						; size = 4
_poSelf$ = 8						; size = 4
_poArgs$ = 12						; size = 4
?grpRenderLine@@YAPAU_object@@PAU1@0@Z PROC		; grpRenderLine, COMDAT

; 498  : {

  00000	55		 push	 ebp
  00001	8b ec		 mov	 ebp, esp
  00003	83 ec 10	 sub	 esp, 16			; 00000010H

; 499  : 	int x;
; 500  : 	if (!PyTuple_GetInteger(poArgs, 0, &x))

  00006	8d 45 f8	 lea	 eax, DWORD PTR _x$[ebp]
  00009	50		 push	 eax
  0000a	6a 00		 push	 0
  0000c	ff 75 0c	 push	 DWORD PTR _poArgs$[ebp]
  0000f	e8 00 00 00 00	 call	 ?PyTuple_GetInteger@@YA_NPAU_object@@HPAH@Z ; PyTuple_GetInteger
  00014	83 c4 0c	 add	 esp, 12			; 0000000cH
  00017	0f b6 c0	 movzx	 eax, al
  0001a	85 c0		 test	 eax, eax
  0001c	75 0d		 jne	 SHORT $LN2@grpRenderL

; 501  : 		return Py_BuildException();

  0001e	6a 00		 push	 0
  00020	e8 00 00 00 00	 call	 ?Py_BuildException@@YAPAU_object@@PBDZZ ; Py_BuildException
  00025	59		 pop	 ecx
  00026	e9 c0 00 00 00	 jmp	 $LN1@grpRenderL
$LN2@grpRenderL:

; 502  : 
; 503  : 	int y;
; 504  : 	if (!PyTuple_GetInteger(poArgs, 1, &y))

  0002b	8d 45 fc	 lea	 eax, DWORD PTR _y$[ebp]
  0002e	50		 push	 eax
  0002f	6a 01		 push	 1
  00031	ff 75 0c	 push	 DWORD PTR _poArgs$[ebp]
  00034	e8 00 00 00 00	 call	 ?PyTuple_GetInteger@@YA_NPAU_object@@HPAH@Z ; PyTuple_GetInteger
  00039	83 c4 0c	 add	 esp, 12			; 0000000cH
  0003c	0f b6 c0	 movzx	 eax, al
  0003f	85 c0		 test	 eax, eax
  00041	75 0d		 jne	 SHORT $LN3@grpRenderL

; 505  : 		return Py_BuildException();

  00043	6a 00		 push	 0
  00045	e8 00 00 00 00	 call	 ?Py_BuildException@@YAPAU_object@@PBDZZ ; Py_BuildException
  0004a	59		 pop	 ecx
  0004b	e9 9b 00 00 00	 jmp	 $LN1@grpRenderL
$LN3@grpRenderL:

; 506  : 
; 507  : 	int width;
; 508  : 	if (!PyTuple_GetInteger(poArgs, 2, &width))

  00050	8d 45 f0	 lea	 eax, DWORD PTR _width$[ebp]
  00053	50		 push	 eax
  00054	6a 02		 push	 2
  00056	ff 75 0c	 push	 DWORD PTR _poArgs$[ebp]
  00059	e8 00 00 00 00	 call	 ?PyTuple_GetInteger@@YA_NPAU_object@@HPAH@Z ; PyTuple_GetInteger
  0005e	83 c4 0c	 add	 esp, 12			; 0000000cH
  00061	0f b6 c0	 movzx	 eax, al
  00064	85 c0		 test	 eax, eax
  00066	75 0a		 jne	 SHORT $LN4@grpRenderL

; 509  : 		return Py_BuildException();

  00068	6a 00		 push	 0
  0006a	e8 00 00 00 00	 call	 ?Py_BuildException@@YAPAU_object@@PBDZZ ; Py_BuildException
  0006f	59		 pop	 ecx
  00070	eb 79		 jmp	 SHORT $LN1@grpRenderL
$LN4@grpRenderL:

; 510  : 
; 511  : 	int height;
; 512  : 	if (!PyTuple_GetInteger(poArgs, 3, &height))

  00072	8d 45 f4	 lea	 eax, DWORD PTR _height$[ebp]
  00075	50		 push	 eax
  00076	6a 03		 push	 3
  00078	ff 75 0c	 push	 DWORD PTR _poArgs$[ebp]
  0007b	e8 00 00 00 00	 call	 ?PyTuple_GetInteger@@YA_NPAU_object@@HPAH@Z ; PyTuple_GetInteger
  00080	83 c4 0c	 add	 esp, 12			; 0000000cH
  00083	0f b6 c0	 movzx	 eax, al
  00086	85 c0		 test	 eax, eax
  00088	75 0a		 jne	 SHORT $LN5@grpRenderL

; 513  : 		return Py_BuildException();

  0008a	6a 00		 push	 0
  0008c	e8 00 00 00 00	 call	 ?Py_BuildException@@YAPAU_object@@PBDZZ ; Py_BuildException
  00091	59		 pop	 ecx
  00092	eb 57		 jmp	 SHORT $LN1@grpRenderL
$LN5@grpRenderL:

; 514  : 
; 515  : 	CPythonGraphic::Instance().RenderLine2d((float) x, (float) y, (float) x+width, (float) y+height);

  00094	51		 push	 ecx
  00095	0f 57 c0	 xorps	 xmm0, xmm0
  00098	f3 0f 11 04 24	 movss	 DWORD PTR [esp], xmm0
  0009d	f3 0f 2a 45 fc	 cvtsi2ss xmm0, DWORD PTR _y$[ebp]
  000a2	f3 0f 2a 4d f4	 cvtsi2ss xmm1, DWORD PTR _height$[ebp]
  000a7	f3 0f 58 c1	 addss	 xmm0, xmm1
  000ab	51		 push	 ecx
  000ac	f3 0f 11 04 24	 movss	 DWORD PTR [esp], xmm0
  000b1	f3 0f 2a 45 f8	 cvtsi2ss xmm0, DWORD PTR _x$[ebp]
  000b6	f3 0f 2a 4d f0	 cvtsi2ss xmm1, DWORD PTR _width$[ebp]
  000bb	f3 0f 58 c1	 addss	 xmm0, xmm1
  000bf	51		 push	 ecx
  000c0	f3 0f 11 04 24	 movss	 DWORD PTR [esp], xmm0
  000c5	f3 0f 2a 45 fc	 cvtsi2ss xmm0, DWORD PTR _y$[ebp]
  000ca	51		 push	 ecx
  000cb	f3 0f 11 04 24	 movss	 DWORD PTR [esp], xmm0
  000d0	f3 0f 2a 45 f8	 cvtsi2ss xmm0, DWORD PTR _x$[ebp]
  000d5	51		 push	 ecx
  000d6	f3 0f 11 04 24	 movss	 DWORD PTR [esp], xmm0
  000db	8b 0d 00 00 00
	00		 mov	 ecx, DWORD PTR ?ms_singleton@?$CSingleton@VCPythonGraphic@@@@0PAVCPythonGraphic@@A ; CSingleton<CPythonGraphic>::ms_singleton
  000e1	e8 00 00 00 00	 call	 ?RenderLine2d@CScreen@@QAEXMMMMM@Z ; CScreen::RenderLine2d

; 516  : 	return Py_BuildNone();

  000e6	e8 00 00 00 00	 call	 ?Py_BuildNone@@YAPAU_object@@XZ ; Py_BuildNone
$LN1@grpRenderL:

; 517  : }

  000eb	c9		 leave
  000ec	c3		 ret	 0
?grpRenderLine@@YAPAU_object@@PAU1@0@Z ENDP		; grpRenderLine
_TEXT	ENDS
; Function compile flags: /Odspy
; File D:\Metin2 Server Files\mainline\SRC_2014\Metin2Client\eterPythonLib\PythonGraphicModule.cpp
;	COMDAT ?grpSetCursorPosition@@YAPAU_object@@PAU1@0@Z
_TEXT	SEGMENT
_ix$ = -8						; size = 4
_iy$ = -4						; size = 4
_poSelf$ = 8						; size = 4
_poArgs$ = 12						; size = 4
?grpSetCursorPosition@@YAPAU_object@@PAU1@0@Z PROC	; grpSetCursorPosition, COMDAT

; 485  : {

  00000	55		 push	 ebp
  00001	8b ec		 mov	 ebp, esp
  00003	51		 push	 ecx
  00004	51		 push	 ecx

; 486  : 	int ix;
; 487  : 	if (!PyTuple_GetInteger(poArgs, 0, &ix))

  00005	8d 45 f8	 lea	 eax, DWORD PTR _ix$[ebp]
  00008	50		 push	 eax
  00009	6a 00		 push	 0
  0000b	ff 75 0c	 push	 DWORD PTR _poArgs$[ebp]
  0000e	e8 00 00 00 00	 call	 ?PyTuple_GetInteger@@YA_NPAU_object@@HPAH@Z ; PyTuple_GetInteger
  00013	83 c4 0c	 add	 esp, 12			; 0000000cH
  00016	0f b6 c0	 movzx	 eax, al
  00019	85 c0		 test	 eax, eax
  0001b	75 0a		 jne	 SHORT $LN2@grpSetCurs

; 488  : 		return Py_BuildException();

  0001d	6a 00		 push	 0
  0001f	e8 00 00 00 00	 call	 ?Py_BuildException@@YAPAU_object@@PBDZZ ; Py_BuildException
  00024	59		 pop	 ecx
  00025	eb 38		 jmp	 SHORT $LN1@grpSetCurs
$LN2@grpSetCurs:

; 489  : 	int iy;
; 490  : 	if (!PyTuple_GetInteger(poArgs, 1, &iy))

  00027	8d 45 fc	 lea	 eax, DWORD PTR _iy$[ebp]
  0002a	50		 push	 eax
  0002b	6a 01		 push	 1
  0002d	ff 75 0c	 push	 DWORD PTR _poArgs$[ebp]
  00030	e8 00 00 00 00	 call	 ?PyTuple_GetInteger@@YA_NPAU_object@@HPAH@Z ; PyTuple_GetInteger
  00035	83 c4 0c	 add	 esp, 12			; 0000000cH
  00038	0f b6 c0	 movzx	 eax, al
  0003b	85 c0		 test	 eax, eax
  0003d	75 0a		 jne	 SHORT $LN5@grpSetCurs

; 491  : 		return Py_BuildException();

  0003f	6a 00		 push	 0
  00041	e8 00 00 00 00	 call	 ?Py_BuildException@@YAPAU_object@@PBDZZ ; Py_BuildException
  00046	59		 pop	 ecx
  00047	eb 16		 jmp	 SHORT $LN1@grpSetCurs
$LN5@grpSetCurs:

; 492  : 
; 493  : 	CPythonGraphic::Instance().SetCursorPosition(ix, iy);

  00049	ff 75 fc	 push	 DWORD PTR _iy$[ebp]
  0004c	ff 75 f8	 push	 DWORD PTR _ix$[ebp]
  0004f	8b 0d 00 00 00
	00		 mov	 ecx, DWORD PTR ?ms_singleton@?$CSingleton@VCPythonGraphic@@@@0PAVCPythonGraphic@@A ; CSingleton<CPythonGraphic>::ms_singleton
  00055	e8 00 00 00 00	 call	 ?SetCursorPosition@CPythonGraphic@@QAEXHH@Z ; CPythonGraphic::SetCursorPosition

; 494  : 	return Py_BuildNone();

  0005a	e8 00 00 00 00	 call	 ?Py_BuildNone@@YAPAU_object@@XZ ; Py_BuildNone
$LN1@grpSetCurs:

; 495  : }

  0005f	c9		 leave
  00060	c3		 ret	 0
?grpSetCursorPosition@@YAPAU_object@@PAU1@0@Z ENDP	; grpSetCursorPosition
_TEXT	ENDS
; Function compile flags: /Odspy
; File D:\Metin2 Server Files\mainline\SRC_2014\Metin2Client\eterPythonLib\PythonGraphicModule.cpp
;	COMDAT ?grpGetCursorPosition3d@@YAPAU_object@@PAU1@0@Z
_TEXT	SEGMENT
_x$ = -12						; size = 4
_y$ = -8						; size = 4
_z$ = -4						; size = 4
_poSelf$ = 8						; size = 4
_poArgs$ = 12						; size = 4
?grpGetCursorPosition3d@@YAPAU_object@@PAU1@0@Z PROC	; grpGetCursorPosition3d, COMDAT

; 478  : {

  00000	55		 push	 ebp
  00001	8b ec		 mov	 ebp, esp
  00003	83 ec 0c	 sub	 esp, 12			; 0000000cH

; 479  : 	float x, y, z;
; 480  : 	CPythonGraphic::Instance().GetCursorPosition(&x, &y, &z);

  00006	8d 45 fc	 lea	 eax, DWORD PTR _z$[ebp]
  00009	50		 push	 eax
  0000a	8d 45 f8	 lea	 eax, DWORD PTR _y$[ebp]
  0000d	50		 push	 eax
  0000e	8d 45 f4	 lea	 eax, DWORD PTR _x$[ebp]
  00011	50		 push	 eax
  00012	8b 0d 00 00 00
	00		 mov	 ecx, DWORD PTR ?ms_singleton@?$CSingleton@VCPythonGraphic@@@@0PAVCPythonGraphic@@A ; CSingleton<CPythonGraphic>::ms_singleton
  00018	e8 00 00 00 00	 call	 ?GetCursorPosition@CScreen@@QAE_NPAM00@Z ; CScreen::GetCursorPosition

; 481  : 	return Py_BuildValue("(fff)", x, y, z);

  0001d	f3 0f 5a 45 fc	 cvtss2sd xmm0, DWORD PTR _z$[ebp]
  00022	51		 push	 ecx
  00023	51		 push	 ecx
  00024	f2 0f 11 04 24	 movsd	 QWORD PTR [esp], xmm0
  00029	f3 0f 5a 45 f8	 cvtss2sd xmm0, DWORD PTR _y$[ebp]
  0002e	51		 push	 ecx
  0002f	51		 push	 ecx
  00030	f2 0f 11 04 24	 movsd	 QWORD PTR [esp], xmm0
  00035	f3 0f 5a 45 f4	 cvtss2sd xmm0, DWORD PTR _x$[ebp]
  0003a	51		 push	 ecx
  0003b	51		 push	 ecx
  0003c	f2 0f 11 04 24	 movsd	 QWORD PTR [esp], xmm0
  00041	68 00 00 00 00	 push	 OFFSET ??_C@_05KFOBNLEM@?$CIfff?$CJ@
  00046	ff 15 00 00 00
	00		 call	 DWORD PTR __imp__Py_BuildValue
  0004c	83 c4 1c	 add	 esp, 28			; 0000001cH

; 482  : }

  0004f	c9		 leave
  00050	c3		 ret	 0
?grpGetCursorPosition3d@@YAPAU_object@@PAU1@0@Z ENDP	; grpGetCursorPosition3d
_TEXT	ENDS
; Function compile flags: /Odspy
; File D:\Metin2 Server Files\mainline\SRC_2014\Metin2Client\eterPythonLib\PythonGraphicModule.cpp
;	COMDAT ?grpSetAlpha@@YAPAU_object@@PAU1@0@Z
_TEXT	SEGMENT
_Alpha$ = -4						; size = 4
_poSelf$ = 8						; size = 4
_poArgs$ = 12						; size = 4
?grpSetAlpha@@YAPAU_object@@PAU1@0@Z PROC		; grpSetAlpha, COMDAT

; 468  : {

  00000	55		 push	 ebp
  00001	8b ec		 mov	 ebp, esp
  00003	51		 push	 ecx

; 469  : 	float Alpha;
; 470  : 	if (!PyTuple_GetFloat(poArgs, 0, &Alpha))

  00004	8d 45 fc	 lea	 eax, DWORD PTR _Alpha$[ebp]
  00007	50		 push	 eax
  00008	6a 00		 push	 0
  0000a	ff 75 0c	 push	 DWORD PTR _poArgs$[ebp]
  0000d	e8 00 00 00 00	 call	 ?PyTuple_GetFloat@@YA_NPAU_object@@HPAM@Z ; PyTuple_GetFloat
  00012	83 c4 0c	 add	 esp, 12			; 0000000cH
  00015	0f b6 c0	 movzx	 eax, al
  00018	85 c0		 test	 eax, eax
  0001a	75 0a		 jne	 SHORT $LN2@grpSetAlph

; 471  : 		return Py_BuildException();

  0001c	6a 00		 push	 0
  0001e	e8 00 00 00 00	 call	 ?Py_BuildException@@YAPAU_object@@PBDZZ ; Py_BuildException
  00023	59		 pop	 ecx
  00024	eb 05		 jmp	 SHORT $LN1@grpSetAlph
$LN2@grpSetAlph:

; 472  : 
; 473  : 	//CPythonGraphic::Instance().SetAlpha(Alpha);
; 474  : 	return Py_BuildNone();

  00026	e8 00 00 00 00	 call	 ?Py_BuildNone@@YAPAU_object@@XZ ; Py_BuildNone
$LN1@grpSetAlph:

; 475  : }

  0002b	c9		 leave
  0002c	c3		 ret	 0
?grpSetAlpha@@YAPAU_object@@PAU1@0@Z ENDP		; grpSetAlpha
_TEXT	ENDS
; Function compile flags: /Odspy
; File D:\Metin2 Server Files\mainline\SRC_2014\Metin2Client\eterPythonLib\PythonGraphicModule.cpp
;	COMDAT ?grpSetColor@@YAPAU_object@@PAU1@0@Z
_TEXT	SEGMENT
_color$ = -4						; size = 4
_poSelf$ = 8						; size = 4
_poArgs$ = 12						; size = 4
?grpSetColor@@YAPAU_object@@PAU1@0@Z PROC		; grpSetColor, COMDAT

; 458  : {

  00000	55		 push	 ebp
  00001	8b ec		 mov	 ebp, esp
  00003	51		 push	 ecx

; 459  : 	int color;
; 460  : 	if (!PyTuple_GetInteger(poArgs, 0, &color))

  00004	8d 45 fc	 lea	 eax, DWORD PTR _color$[ebp]
  00007	50		 push	 eax
  00008	6a 00		 push	 0
  0000a	ff 75 0c	 push	 DWORD PTR _poArgs$[ebp]
  0000d	e8 00 00 00 00	 call	 ?PyTuple_GetInteger@@YA_NPAU_object@@HPAH@Z ; PyTuple_GetInteger
  00012	83 c4 0c	 add	 esp, 12			; 0000000cH
  00015	0f b6 c0	 movzx	 eax, al
  00018	85 c0		 test	 eax, eax
  0001a	75 0a		 jne	 SHORT $LN4@grpSetColo

; 461  : 		return Py_BuildException();

  0001c	6a 00		 push	 0
  0001e	e8 00 00 00 00	 call	 ?Py_BuildException@@YAPAU_object@@PBDZZ ; Py_BuildException
  00023	59		 pop	 ecx
  00024	eb 13		 jmp	 SHORT $LN1@grpSetColo
$LN4@grpSetColo:

; 462  : 
; 463  : 	CPythonGraphic::Instance().SetDiffuseColor(DWORD(color));

  00026	ff 75 fc	 push	 DWORD PTR _color$[ebp]
  00029	8b 0d 00 00 00
	00		 mov	 ecx, DWORD PTR ?ms_singleton@?$CSingleton@VCPythonGraphic@@@@0PAVCPythonGraphic@@A ; CSingleton<CPythonGraphic>::ms_singleton
  0002f	e8 00 00 00 00	 call	 ?SetDiffuseColor@CScreen@@QAEXK@Z ; CScreen::SetDiffuseColor

; 464  : 	return Py_BuildNone();

  00034	e8 00 00 00 00	 call	 ?Py_BuildNone@@YAPAU_object@@XZ ; Py_BuildNone
$LN1@grpSetColo:

; 465  : }

  00039	c9		 leave
  0003a	c3		 ret	 0
?grpSetColor@@YAPAU_object@@PAU1@0@Z ENDP		; grpSetColor
_TEXT	ENDS
; Function compile flags: /Odspy
; File D:\Metin2 Server Files\mainline\SRC_2014\Metin2Client\eterPythonLib\PythonGraphicModule.cpp
; File D:\Metin2 Server Files\mainline\SRC_2014\Metin2Client\eterBase\Singleton.h
; File D:\Metin2 Server Files\mainline\SRC_2014\Metin2Client\eterPythonLib\PythonGraphicModule.cpp
;	COMDAT ?grpGenerateColor@@YAPAU_object@@PAU1@0@Z
_TEXT	SEGMENT
$T1 = -20						; size = 4
_r$ = -16						; size = 4
_g$ = -12						; size = 4
_b$ = -8						; size = 4
_a$ = -4						; size = 4
_poSelf$ = 8						; size = 4
_poArgs$ = 12						; size = 4
?grpGenerateColor@@YAPAU_object@@PAU1@0@Z PROC		; grpGenerateColor, COMDAT

; 437  : {

  00000	55		 push	 ebp
  00001	8b ec		 mov	 ebp, esp
  00003	83 ec 14	 sub	 esp, 20			; 00000014H

; 438  : 	float r;
; 439  : 	if (!PyTuple_GetFloat(poArgs, 0, &r))

  00006	8d 45 f0	 lea	 eax, DWORD PTR _r$[ebp]
  00009	50		 push	 eax
  0000a	6a 00		 push	 0
  0000c	ff 75 0c	 push	 DWORD PTR _poArgs$[ebp]
  0000f	e8 00 00 00 00	 call	 ?PyTuple_GetFloat@@YA_NPAU_object@@HPAM@Z ; PyTuple_GetFloat
  00014	83 c4 0c	 add	 esp, 12			; 0000000cH
  00017	0f b6 c0	 movzx	 eax, al
  0001a	85 c0		 test	 eax, eax
  0001c	75 0d		 jne	 SHORT $LN2@grpGenerat

; 440  : 		return Py_BuildException();

  0001e	6a 00		 push	 0
  00020	e8 00 00 00 00	 call	 ?Py_BuildException@@YAPAU_object@@PBDZZ ; Py_BuildException
  00025	59		 pop	 ecx
  00026	e9 b3 00 00 00	 jmp	 $LN1@grpGenerat
$LN2@grpGenerat:

; 441  : 
; 442  : 	float g;
; 443  : 	if (!PyTuple_GetFloat(poArgs, 1, &g))

  0002b	8d 45 f4	 lea	 eax, DWORD PTR _g$[ebp]
  0002e	50		 push	 eax
  0002f	6a 01		 push	 1
  00031	ff 75 0c	 push	 DWORD PTR _poArgs$[ebp]
  00034	e8 00 00 00 00	 call	 ?PyTuple_GetFloat@@YA_NPAU_object@@HPAM@Z ; PyTuple_GetFloat
  00039	83 c4 0c	 add	 esp, 12			; 0000000cH
  0003c	0f b6 c0	 movzx	 eax, al
  0003f	85 c0		 test	 eax, eax
  00041	75 0d		 jne	 SHORT $LN3@grpGenerat

; 444  : 		return Py_BuildException();

  00043	6a 00		 push	 0
  00045	e8 00 00 00 00	 call	 ?Py_BuildException@@YAPAU_object@@PBDZZ ; Py_BuildException
  0004a	59		 pop	 ecx
  0004b	e9 8e 00 00 00	 jmp	 $LN1@grpGenerat
$LN3@grpGenerat:

; 445  : 
; 446  : 	float b;
; 447  : 	if (!PyTuple_GetFloat(poArgs, 2, &b))

  00050	8d 45 f8	 lea	 eax, DWORD PTR _b$[ebp]
  00053	50		 push	 eax
  00054	6a 02		 push	 2
  00056	ff 75 0c	 push	 DWORD PTR _poArgs$[ebp]
  00059	e8 00 00 00 00	 call	 ?PyTuple_GetFloat@@YA_NPAU_object@@HPAM@Z ; PyTuple_GetFloat
  0005e	83 c4 0c	 add	 esp, 12			; 0000000cH
  00061	0f b6 c0	 movzx	 eax, al
  00064	85 c0		 test	 eax, eax
  00066	75 0a		 jne	 SHORT $LN4@grpGenerat

; 448  : 		return Py_BuildException();

  00068	6a 00		 push	 0
  0006a	e8 00 00 00 00	 call	 ?Py_BuildException@@YAPAU_object@@PBDZZ ; Py_BuildException
  0006f	59		 pop	 ecx
  00070	eb 6c		 jmp	 SHORT $LN1@grpGenerat
$LN4@grpGenerat:

; 449  : 
; 450  : 	float a;
; 451  : 	if (!PyTuple_GetFloat(poArgs, 3, &a))

  00072	8d 45 fc	 lea	 eax, DWORD PTR _a$[ebp]
  00075	50		 push	 eax
  00076	6a 03		 push	 3
  00078	ff 75 0c	 push	 DWORD PTR _poArgs$[ebp]
  0007b	e8 00 00 00 00	 call	 ?PyTuple_GetFloat@@YA_NPAU_object@@HPAM@Z ; PyTuple_GetFloat
  00080	83 c4 0c	 add	 esp, 12			; 0000000cH
  00083	0f b6 c0	 movzx	 eax, al
  00086	85 c0		 test	 eax, eax
  00088	75 0a		 jne	 SHORT $LN5@grpGenerat

; 452  : 		return Py_BuildException();

  0008a	6a 00		 push	 0
  0008c	e8 00 00 00 00	 call	 ?Py_BuildException@@YAPAU_object@@PBDZZ ; Py_BuildException
  00091	59		 pop	 ecx
  00092	eb 4a		 jmp	 SHORT $LN1@grpGenerat
$LN5@grpGenerat:
; File D:\Metin2 Server Files\mainline\SRC_2014\Metin2Client\eterBase\Singleton.h

; 27   : 		return (*ms_singleton);

  00094	a1 00 00 00 00	 mov	 eax, DWORD PTR ?ms_singleton@?$CSingleton@VCPythonGraphic@@@@0PAVCPythonGraphic@@A ; CSingleton<CPythonGraphic>::ms_singleton
  00099	89 45 ec	 mov	 DWORD PTR $T1[ebp], eax
; File D:\Metin2 Server Files\mainline\SRC_2014\Metin2Client\eterPythonLib\PythonGraphicModule.cpp

; 454  : 	return Py_BuildValue("l", CPythonGraphic::Instance().GenerateColor(r, g, b, a));

  0009c	51		 push	 ecx
  0009d	f3 0f 10 45 fc	 movss	 xmm0, DWORD PTR _a$[ebp]
  000a2	f3 0f 11 04 24	 movss	 DWORD PTR [esp], xmm0
  000a7	51		 push	 ecx
  000a8	f3 0f 10 45 f8	 movss	 xmm0, DWORD PTR _b$[ebp]
  000ad	f3 0f 11 04 24	 movss	 DWORD PTR [esp], xmm0
  000b2	51		 push	 ecx
  000b3	f3 0f 10 45 f4	 movss	 xmm0, DWORD PTR _g$[ebp]
  000b8	f3 0f 11 04 24	 movss	 DWORD PTR [esp], xmm0
  000bd	51		 push	 ecx
  000be	f3 0f 10 45 f0	 movss	 xmm0, DWORD PTR _r$[ebp]
  000c3	f3 0f 11 04 24	 movss	 DWORD PTR [esp], xmm0
  000c8	8b 4d ec	 mov	 ecx, DWORD PTR $T1[ebp]
  000cb	e8 00 00 00 00	 call	 ?GenerateColor@CPythonGraphic@@QAEJMMMM@Z ; CPythonGraphic::GenerateColor
  000d0	50		 push	 eax
  000d1	68 00 00 00 00	 push	 OFFSET ??_C@_01HHGOMJKL@l@
  000d6	ff 15 00 00 00
	00		 call	 DWORD PTR __imp__Py_BuildValue
  000dc	59		 pop	 ecx
  000dd	59		 pop	 ecx
$LN1@grpGenerat:

; 455  : }

  000de	c9		 leave
  000df	c3		 ret	 0
?grpGenerateColor@@YAPAU_object@@PAU1@0@Z ENDP		; grpGenerateColor
_TEXT	ENDS
; Function compile flags: /Odspy
; File D:\Metin2 Server Files\mainline\SRC_2014\Metin2Client\eterPythonLib\PythonGraphicModule.cpp
;	COMDAT ?grpSetOrtho3D@@YAPAU_object@@PAU1@0@Z
_TEXT	SEGMENT
_width$ = -16						; size = 4
_height$ = -12						; size = 4
_zmin$ = -8						; size = 4
_zmax$ = -4						; size = 4
_poSelf$ = 8						; size = 4
_poArgs$ = 12						; size = 4
?grpSetOrtho3D@@YAPAU_object@@PAU1@0@Z PROC		; grpSetOrtho3D, COMDAT

; 414  : {

  00000	55		 push	 ebp
  00001	8b ec		 mov	 ebp, esp
  00003	83 ec 10	 sub	 esp, 16			; 00000010H

; 415  : 	float width;
; 416  : 	if (!PyTuple_GetFloat(poArgs, 0, &width))

  00006	8d 45 f0	 lea	 eax, DWORD PTR _width$[ebp]
  00009	50		 push	 eax
  0000a	6a 00		 push	 0
  0000c	ff 75 0c	 push	 DWORD PTR _poArgs$[ebp]
  0000f	e8 00 00 00 00	 call	 ?PyTuple_GetFloat@@YA_NPAU_object@@HPAM@Z ; PyTuple_GetFloat
  00014	83 c4 0c	 add	 esp, 12			; 0000000cH
  00017	0f b6 c0	 movzx	 eax, al
  0001a	85 c0		 test	 eax, eax
  0001c	75 0d		 jne	 SHORT $LN2@grpSetOrth

; 417  : 		return Py_BuildException();

  0001e	6a 00		 push	 0
  00020	e8 00 00 00 00	 call	 ?Py_BuildException@@YAPAU_object@@PBDZZ ; Py_BuildException
  00025	59		 pop	 ecx
  00026	e9 a5 00 00 00	 jmp	 $LN1@grpSetOrth
$LN2@grpSetOrth:

; 418  : 
; 419  : 	float height;
; 420  : 	if (!PyTuple_GetFloat(poArgs, 1, &height))

  0002b	8d 45 f4	 lea	 eax, DWORD PTR _height$[ebp]
  0002e	50		 push	 eax
  0002f	6a 01		 push	 1
  00031	ff 75 0c	 push	 DWORD PTR _poArgs$[ebp]
  00034	e8 00 00 00 00	 call	 ?PyTuple_GetFloat@@YA_NPAU_object@@HPAM@Z ; PyTuple_GetFloat
  00039	83 c4 0c	 add	 esp, 12			; 0000000cH
  0003c	0f b6 c0	 movzx	 eax, al
  0003f	85 c0		 test	 eax, eax
  00041	75 0d		 jne	 SHORT $LN3@grpSetOrth

; 421  : 		return Py_BuildException();

  00043	6a 00		 push	 0
  00045	e8 00 00 00 00	 call	 ?Py_BuildException@@YAPAU_object@@PBDZZ ; Py_BuildException
  0004a	59		 pop	 ecx
  0004b	e9 80 00 00 00	 jmp	 $LN1@grpSetOrth
$LN3@grpSetOrth:

; 422  : 
; 423  : 	float zmin;
; 424  : 	if (!PyTuple_GetFloat(poArgs, 2, &zmin))

  00050	8d 45 f8	 lea	 eax, DWORD PTR _zmin$[ebp]
  00053	50		 push	 eax
  00054	6a 02		 push	 2
  00056	ff 75 0c	 push	 DWORD PTR _poArgs$[ebp]
  00059	e8 00 00 00 00	 call	 ?PyTuple_GetFloat@@YA_NPAU_object@@HPAM@Z ; PyTuple_GetFloat
  0005e	83 c4 0c	 add	 esp, 12			; 0000000cH
  00061	0f b6 c0	 movzx	 eax, al
  00064	85 c0		 test	 eax, eax
  00066	75 0a		 jne	 SHORT $LN4@grpSetOrth

; 425  : 		return Py_BuildException();

  00068	6a 00		 push	 0
  0006a	e8 00 00 00 00	 call	 ?Py_BuildException@@YAPAU_object@@PBDZZ ; Py_BuildException
  0006f	59		 pop	 ecx
  00070	eb 5e		 jmp	 SHORT $LN1@grpSetOrth
$LN4@grpSetOrth:

; 426  : 
; 427  : 	float zmax;
; 428  : 	if (!PyTuple_GetFloat(poArgs, 3, &zmax))

  00072	8d 45 fc	 lea	 eax, DWORD PTR _zmax$[ebp]
  00075	50		 push	 eax
  00076	6a 03		 push	 3
  00078	ff 75 0c	 push	 DWORD PTR _poArgs$[ebp]
  0007b	e8 00 00 00 00	 call	 ?PyTuple_GetFloat@@YA_NPAU_object@@HPAM@Z ; PyTuple_GetFloat
  00080	83 c4 0c	 add	 esp, 12			; 0000000cH
  00083	0f b6 c0	 movzx	 eax, al
  00086	85 c0		 test	 eax, eax
  00088	75 0a		 jne	 SHORT $LN5@grpSetOrth

; 429  : 		return Py_BuildException();

  0008a	6a 00		 push	 0
  0008c	e8 00 00 00 00	 call	 ?Py_BuildException@@YAPAU_object@@PBDZZ ; Py_BuildException
  00091	59		 pop	 ecx
  00092	eb 3c		 jmp	 SHORT $LN1@grpSetOrth
$LN5@grpSetOrth:

; 430  : 
; 431  : 	CPythonGraphic::Instance().SetOrtho3D(width, height, zmin, zmax);

  00094	51		 push	 ecx
  00095	f3 0f 10 45 fc	 movss	 xmm0, DWORD PTR _zmax$[ebp]
  0009a	f3 0f 11 04 24	 movss	 DWORD PTR [esp], xmm0
  0009f	51		 push	 ecx
  000a0	f3 0f 10 45 f8	 movss	 xmm0, DWORD PTR _zmin$[ebp]
  000a5	f3 0f 11 04 24	 movss	 DWORD PTR [esp], xmm0
  000aa	51		 push	 ecx
  000ab	f3 0f 10 45 f4	 movss	 xmm0, DWORD PTR _height$[ebp]
  000b0	f3 0f 11 04 24	 movss	 DWORD PTR [esp], xmm0
  000b5	51		 push	 ecx
  000b6	f3 0f 10 45 f0	 movss	 xmm0, DWORD PTR _width$[ebp]
  000bb	f3 0f 11 04 24	 movss	 DWORD PTR [esp], xmm0
  000c0	8b 0d 00 00 00
	00		 mov	 ecx, DWORD PTR ?ms_singleton@?$CSingleton@VCPythonGraphic@@@@0PAVCPythonGraphic@@A ; CSingleton<CPythonGraphic>::ms_singleton
  000c6	e8 00 00 00 00	 call	 ?SetOrtho3D@CGraphicBase@@QAEXMMMM@Z ; CGraphicBase::SetOrtho3D

; 432  : 	return Py_BuildNone();

  000cb	e8 00 00 00 00	 call	 ?Py_BuildNone@@YAPAU_object@@XZ ; Py_BuildNone
$LN1@grpSetOrth:

; 433  : }

  000d0	c9		 leave
  000d1	c3		 ret	 0
?grpSetOrtho3D@@YAPAU_object@@PAU1@0@Z ENDP		; grpSetOrtho3D
_TEXT	ENDS
; Function compile flags: /Odspy
; File D:\Metin2 Server Files\mainline\SRC_2014\Metin2Client\eterPythonLib\PythonGraphicModule.cpp
;	COMDAT ?grpSetOrtho2D@@YAPAU_object@@PAU1@0@Z
_TEXT	SEGMENT
_width$ = -12						; size = 4
_height$ = -8						; size = 4
_length$ = -4						; size = 4
_poSelf$ = 8						; size = 4
_poArgs$ = 12						; size = 4
?grpSetOrtho2D@@YAPAU_object@@PAU1@0@Z PROC		; grpSetOrtho2D, COMDAT

; 395  : {

  00000	55		 push	 ebp
  00001	8b ec		 mov	 ebp, esp
  00003	83 ec 0c	 sub	 esp, 12			; 0000000cH

; 396  : 	float width;
; 397  : 	if (!PyTuple_GetFloat(poArgs, 0, &width))

  00006	8d 45 f4	 lea	 eax, DWORD PTR _width$[ebp]
  00009	50		 push	 eax
  0000a	6a 00		 push	 0
  0000c	ff 75 0c	 push	 DWORD PTR _poArgs$[ebp]
  0000f	e8 00 00 00 00	 call	 ?PyTuple_GetFloat@@YA_NPAU_object@@HPAM@Z ; PyTuple_GetFloat
  00014	83 c4 0c	 add	 esp, 12			; 0000000cH
  00017	0f b6 c0	 movzx	 eax, al
  0001a	85 c0		 test	 eax, eax
  0001c	75 0a		 jne	 SHORT $LN2@grpSetOrth

; 398  : 		return Py_BuildException();

  0001e	6a 00		 push	 0
  00020	e8 00 00 00 00	 call	 ?Py_BuildException@@YAPAU_object@@PBDZZ ; Py_BuildException
  00025	59		 pop	 ecx
  00026	eb 75		 jmp	 SHORT $LN1@grpSetOrth
$LN2@grpSetOrth:

; 399  : 
; 400  : 	float height;
; 401  : 	if (!PyTuple_GetFloat(poArgs, 1, &height))

  00028	8d 45 f8	 lea	 eax, DWORD PTR _height$[ebp]
  0002b	50		 push	 eax
  0002c	6a 01		 push	 1
  0002e	ff 75 0c	 push	 DWORD PTR _poArgs$[ebp]
  00031	e8 00 00 00 00	 call	 ?PyTuple_GetFloat@@YA_NPAU_object@@HPAM@Z ; PyTuple_GetFloat
  00036	83 c4 0c	 add	 esp, 12			; 0000000cH
  00039	0f b6 c0	 movzx	 eax, al
  0003c	85 c0		 test	 eax, eax
  0003e	75 0a		 jne	 SHORT $LN3@grpSetOrth

; 402  : 		return Py_BuildException();

  00040	6a 00		 push	 0
  00042	e8 00 00 00 00	 call	 ?Py_BuildException@@YAPAU_object@@PBDZZ ; Py_BuildException
  00047	59		 pop	 ecx
  00048	eb 53		 jmp	 SHORT $LN1@grpSetOrth
$LN3@grpSetOrth:

; 403  : 
; 404  : 	float length;
; 405  : 	if (!PyTuple_GetFloat(poArgs, 2, &length))

  0004a	8d 45 fc	 lea	 eax, DWORD PTR _length$[ebp]
  0004d	50		 push	 eax
  0004e	6a 02		 push	 2
  00050	ff 75 0c	 push	 DWORD PTR _poArgs$[ebp]
  00053	e8 00 00 00 00	 call	 ?PyTuple_GetFloat@@YA_NPAU_object@@HPAM@Z ; PyTuple_GetFloat
  00058	83 c4 0c	 add	 esp, 12			; 0000000cH
  0005b	0f b6 c0	 movzx	 eax, al
  0005e	85 c0		 test	 eax, eax
  00060	75 0a		 jne	 SHORT $LN4@grpSetOrth

; 406  : 		return Py_BuildException();

  00062	6a 00		 push	 0
  00064	e8 00 00 00 00	 call	 ?Py_BuildException@@YAPAU_object@@PBDZZ ; Py_BuildException
  00069	59		 pop	 ecx
  0006a	eb 31		 jmp	 SHORT $LN1@grpSetOrth
$LN4@grpSetOrth:

; 407  : 
; 408  : 	CPythonGraphic::Instance().SetOrtho2D(width, height, length);

  0006c	51		 push	 ecx
  0006d	f3 0f 10 45 fc	 movss	 xmm0, DWORD PTR _length$[ebp]
  00072	f3 0f 11 04 24	 movss	 DWORD PTR [esp], xmm0
  00077	51		 push	 ecx
  00078	f3 0f 10 45 f8	 movss	 xmm0, DWORD PTR _height$[ebp]
  0007d	f3 0f 11 04 24	 movss	 DWORD PTR [esp], xmm0
  00082	51		 push	 ecx
  00083	f3 0f 10 45 f4	 movss	 xmm0, DWORD PTR _width$[ebp]
  00088	f3 0f 11 04 24	 movss	 DWORD PTR [esp], xmm0
  0008d	8b 0d 00 00 00
	00		 mov	 ecx, DWORD PTR ?ms_singleton@?$CSingleton@VCPythonGraphic@@@@0PAVCPythonGraphic@@A ; CSingleton<CPythonGraphic>::ms_singleton
  00093	e8 00 00 00 00	 call	 ?SetOrtho2D@CGraphicBase@@QAEXMMM@Z ; CGraphicBase::SetOrtho2D

; 409  : 	return Py_BuildNone();

  00098	e8 00 00 00 00	 call	 ?Py_BuildNone@@YAPAU_object@@XZ ; Py_BuildNone
$LN1@grpSetOrth:

; 410  : }

  0009d	c9		 leave
  0009e	c3		 ret	 0
?grpSetOrtho2D@@YAPAU_object@@PAU1@0@Z ENDP		; grpSetOrtho2D
_TEXT	ENDS
; Function compile flags: /Odspy
; File D:\Metin2 Server Files\mainline\SRC_2014\Metin2Client\eterPythonLib\PythonGraphicModule.cpp
;	COMDAT ?grpSetPerspective@@YAPAU_object@@PAU1@0@Z
_TEXT	SEGMENT
_fov$ = -16						; size = 4
_aspect$ = -12						; size = 4
_zNear$ = -8						; size = 4
_zFar$ = -4						; size = 4
_poSelf$ = 8						; size = 4
_poArgs$ = 12						; size = 4
?grpSetPerspective@@YAPAU_object@@PAU1@0@Z PROC		; grpSetPerspective, COMDAT

; 372  : {

  00000	55		 push	 ebp
  00001	8b ec		 mov	 ebp, esp
  00003	83 ec 10	 sub	 esp, 16			; 00000010H

; 373  : 	float fov;
; 374  : 	if (!PyTuple_GetFloat(poArgs, 0, &fov))

  00006	8d 45 f0	 lea	 eax, DWORD PTR _fov$[ebp]
  00009	50		 push	 eax
  0000a	6a 00		 push	 0
  0000c	ff 75 0c	 push	 DWORD PTR _poArgs$[ebp]
  0000f	e8 00 00 00 00	 call	 ?PyTuple_GetFloat@@YA_NPAU_object@@HPAM@Z ; PyTuple_GetFloat
  00014	83 c4 0c	 add	 esp, 12			; 0000000cH
  00017	0f b6 c0	 movzx	 eax, al
  0001a	85 c0		 test	 eax, eax
  0001c	75 0d		 jne	 SHORT $LN2@grpSetPers

; 375  : 		return Py_BuildException();

  0001e	6a 00		 push	 0
  00020	e8 00 00 00 00	 call	 ?Py_BuildException@@YAPAU_object@@PBDZZ ; Py_BuildException
  00025	59		 pop	 ecx
  00026	e9 a5 00 00 00	 jmp	 $LN1@grpSetPers
$LN2@grpSetPers:

; 376  : 
; 377  : 	float aspect;	
; 378  : 	if (!PyTuple_GetFloat(poArgs, 1, &aspect))

  0002b	8d 45 f4	 lea	 eax, DWORD PTR _aspect$[ebp]
  0002e	50		 push	 eax
  0002f	6a 01		 push	 1
  00031	ff 75 0c	 push	 DWORD PTR _poArgs$[ebp]
  00034	e8 00 00 00 00	 call	 ?PyTuple_GetFloat@@YA_NPAU_object@@HPAM@Z ; PyTuple_GetFloat
  00039	83 c4 0c	 add	 esp, 12			; 0000000cH
  0003c	0f b6 c0	 movzx	 eax, al
  0003f	85 c0		 test	 eax, eax
  00041	75 0d		 jne	 SHORT $LN3@grpSetPers

; 379  : 		return Py_BuildException();

  00043	6a 00		 push	 0
  00045	e8 00 00 00 00	 call	 ?Py_BuildException@@YAPAU_object@@PBDZZ ; Py_BuildException
  0004a	59		 pop	 ecx
  0004b	e9 80 00 00 00	 jmp	 $LN1@grpSetPers
$LN3@grpSetPers:

; 380  : 
; 381  : 	float zNear;
; 382  : 	if (!PyTuple_GetFloat(poArgs, 2, &zNear))

  00050	8d 45 f8	 lea	 eax, DWORD PTR _zNear$[ebp]
  00053	50		 push	 eax
  00054	6a 02		 push	 2
  00056	ff 75 0c	 push	 DWORD PTR _poArgs$[ebp]
  00059	e8 00 00 00 00	 call	 ?PyTuple_GetFloat@@YA_NPAU_object@@HPAM@Z ; PyTuple_GetFloat
  0005e	83 c4 0c	 add	 esp, 12			; 0000000cH
  00061	0f b6 c0	 movzx	 eax, al
  00064	85 c0		 test	 eax, eax
  00066	75 0a		 jne	 SHORT $LN4@grpSetPers

; 383  : 		return Py_BuildException();

  00068	6a 00		 push	 0
  0006a	e8 00 00 00 00	 call	 ?Py_BuildException@@YAPAU_object@@PBDZZ ; Py_BuildException
  0006f	59		 pop	 ecx
  00070	eb 5e		 jmp	 SHORT $LN1@grpSetPers
$LN4@grpSetPers:

; 384  : 
; 385  : 	float zFar;
; 386  : 	if (!PyTuple_GetFloat(poArgs, 3, &zFar))

  00072	8d 45 fc	 lea	 eax, DWORD PTR _zFar$[ebp]
  00075	50		 push	 eax
  00076	6a 03		 push	 3
  00078	ff 75 0c	 push	 DWORD PTR _poArgs$[ebp]
  0007b	e8 00 00 00 00	 call	 ?PyTuple_GetFloat@@YA_NPAU_object@@HPAM@Z ; PyTuple_GetFloat
  00080	83 c4 0c	 add	 esp, 12			; 0000000cH
  00083	0f b6 c0	 movzx	 eax, al
  00086	85 c0		 test	 eax, eax
  00088	75 0a		 jne	 SHORT $LN5@grpSetPers

; 387  : 		return Py_BuildException();

  0008a	6a 00		 push	 0
  0008c	e8 00 00 00 00	 call	 ?Py_BuildException@@YAPAU_object@@PBDZZ ; Py_BuildException
  00091	59		 pop	 ecx
  00092	eb 3c		 jmp	 SHORT $LN1@grpSetPers
$LN5@grpSetPers:

; 388  : 	
; 389  : 	CPythonGraphic::Instance().SetPerspective(fov, aspect, zNear, zFar);

  00094	51		 push	 ecx
  00095	f3 0f 10 45 fc	 movss	 xmm0, DWORD PTR _zFar$[ebp]
  0009a	f3 0f 11 04 24	 movss	 DWORD PTR [esp], xmm0
  0009f	51		 push	 ecx
  000a0	f3 0f 10 45 f8	 movss	 xmm0, DWORD PTR _zNear$[ebp]
  000a5	f3 0f 11 04 24	 movss	 DWORD PTR [esp], xmm0
  000aa	51		 push	 ecx
  000ab	f3 0f 10 45 f4	 movss	 xmm0, DWORD PTR _aspect$[ebp]
  000b0	f3 0f 11 04 24	 movss	 DWORD PTR [esp], xmm0
  000b5	51		 push	 ecx
  000b6	f3 0f 10 45 f0	 movss	 xmm0, DWORD PTR _fov$[ebp]
  000bb	f3 0f 11 04 24	 movss	 DWORD PTR [esp], xmm0
  000c0	8b 0d 00 00 00
	00		 mov	 ecx, DWORD PTR ?ms_singleton@?$CSingleton@VCPythonGraphic@@@@0PAVCPythonGraphic@@A ; CSingleton<CPythonGraphic>::ms_singleton
  000c6	e8 00 00 00 00	 call	 ?SetPerspective@CGraphicBase@@QAEXMMMM@Z ; CGraphicBase::SetPerspective

; 390  : 	return Py_BuildNone();

  000cb	e8 00 00 00 00	 call	 ?Py_BuildNone@@YAPAU_object@@XZ ; Py_BuildNone
$LN1@grpSetPers:

; 391  : }

  000d0	c9		 leave
  000d1	c3		 ret	 0
?grpSetPerspective@@YAPAU_object@@PAU1@0@Z ENDP		; grpSetPerspective
_TEXT	ENDS
; Function compile flags: /Odspy
; File D:\Metin2 Server Files\mainline\SRC_2014\Metin2Client\eterPythonLib\PythonGraphicModule.cpp
;	COMDAT ?grpSetEyeCamera@@YAPAU_object@@PAU1@0@Z
_TEXT	SEGMENT
_xEye$ = -36						; size = 4
_yEye$ = -32						; size = 4
_zEye$ = -28						; size = 4
_xCenter$ = -24						; size = 4
_yCenter$ = -20						; size = 4
_zCenter$ = -16						; size = 4
_xUp$ = -12						; size = 4
_yUp$ = -8						; size = 4
_zUp$ = -4						; size = 4
_poSelf$ = 8						; size = 4
_poArgs$ = 12						; size = 4
?grpSetEyeCamera@@YAPAU_object@@PAU1@0@Z PROC		; grpSetEyeCamera, COMDAT

; 329  : {

  00000	55		 push	 ebp
  00001	8b ec		 mov	 ebp, esp
  00003	83 ec 24	 sub	 esp, 36			; 00000024H

; 330  : 	float xEye;
; 331  : 	if (!PyTuple_GetFloat(poArgs, 0, &xEye))

  00006	8d 45 dc	 lea	 eax, DWORD PTR _xEye$[ebp]
  00009	50		 push	 eax
  0000a	6a 00		 push	 0
  0000c	ff 75 0c	 push	 DWORD PTR _poArgs$[ebp]
  0000f	e8 00 00 00 00	 call	 ?PyTuple_GetFloat@@YA_NPAU_object@@HPAM@Z ; PyTuple_GetFloat
  00014	83 c4 0c	 add	 esp, 12			; 0000000cH
  00017	0f b6 c0	 movzx	 eax, al
  0001a	85 c0		 test	 eax, eax
  0001c	75 0d		 jne	 SHORT $LN2@grpSetEyeC

; 332  : 		return Py_BuildException();

  0001e	6a 00		 push	 0
  00020	e8 00 00 00 00	 call	 ?Py_BuildException@@YAPAU_object@@PBDZZ ; Py_BuildException
  00025	59		 pop	 ecx
  00026	e9 98 01 00 00	 jmp	 $LN1@grpSetEyeC
$LN2@grpSetEyeC:

; 333  : 
; 334  : 	float yEye;	
; 335  : 	if (!PyTuple_GetFloat(poArgs, 1, &yEye))

  0002b	8d 45 e0	 lea	 eax, DWORD PTR _yEye$[ebp]
  0002e	50		 push	 eax
  0002f	6a 01		 push	 1
  00031	ff 75 0c	 push	 DWORD PTR _poArgs$[ebp]
  00034	e8 00 00 00 00	 call	 ?PyTuple_GetFloat@@YA_NPAU_object@@HPAM@Z ; PyTuple_GetFloat
  00039	83 c4 0c	 add	 esp, 12			; 0000000cH
  0003c	0f b6 c0	 movzx	 eax, al
  0003f	85 c0		 test	 eax, eax
  00041	75 0d		 jne	 SHORT $LN3@grpSetEyeC

; 336  : 		return Py_BuildException();

  00043	6a 00		 push	 0
  00045	e8 00 00 00 00	 call	 ?Py_BuildException@@YAPAU_object@@PBDZZ ; Py_BuildException
  0004a	59		 pop	 ecx
  0004b	e9 73 01 00 00	 jmp	 $LN1@grpSetEyeC
$LN3@grpSetEyeC:

; 337  : 
; 338  : 	float zEye;
; 339  : 	if (!PyTuple_GetFloat(poArgs, 2, &zEye))

  00050	8d 45 e4	 lea	 eax, DWORD PTR _zEye$[ebp]
  00053	50		 push	 eax
  00054	6a 02		 push	 2
  00056	ff 75 0c	 push	 DWORD PTR _poArgs$[ebp]
  00059	e8 00 00 00 00	 call	 ?PyTuple_GetFloat@@YA_NPAU_object@@HPAM@Z ; PyTuple_GetFloat
  0005e	83 c4 0c	 add	 esp, 12			; 0000000cH
  00061	0f b6 c0	 movzx	 eax, al
  00064	85 c0		 test	 eax, eax
  00066	75 0d		 jne	 SHORT $LN4@grpSetEyeC

; 340  : 		return Py_BuildException();

  00068	6a 00		 push	 0
  0006a	e8 00 00 00 00	 call	 ?Py_BuildException@@YAPAU_object@@PBDZZ ; Py_BuildException
  0006f	59		 pop	 ecx
  00070	e9 4e 01 00 00	 jmp	 $LN1@grpSetEyeC
$LN4@grpSetEyeC:

; 341  : 	
; 342  : 	float xCenter;
; 343  : 	if (!PyTuple_GetFloat(poArgs, 3, &xCenter))

  00075	8d 45 e8	 lea	 eax, DWORD PTR _xCenter$[ebp]
  00078	50		 push	 eax
  00079	6a 03		 push	 3
  0007b	ff 75 0c	 push	 DWORD PTR _poArgs$[ebp]
  0007e	e8 00 00 00 00	 call	 ?PyTuple_GetFloat@@YA_NPAU_object@@HPAM@Z ; PyTuple_GetFloat
  00083	83 c4 0c	 add	 esp, 12			; 0000000cH
  00086	0f b6 c0	 movzx	 eax, al
  00089	85 c0		 test	 eax, eax
  0008b	75 0d		 jne	 SHORT $LN5@grpSetEyeC

; 344  : 		return Py_BuildException();

  0008d	6a 00		 push	 0
  0008f	e8 00 00 00 00	 call	 ?Py_BuildException@@YAPAU_object@@PBDZZ ; Py_BuildException
  00094	59		 pop	 ecx
  00095	e9 29 01 00 00	 jmp	 $LN1@grpSetEyeC
$LN5@grpSetEyeC:

; 345  : 
; 346  : 	float yCenter;	
; 347  : 	if (!PyTuple_GetFloat(poArgs, 4, &yCenter))

  0009a	8d 45 ec	 lea	 eax, DWORD PTR _yCenter$[ebp]
  0009d	50		 push	 eax
  0009e	6a 04		 push	 4
  000a0	ff 75 0c	 push	 DWORD PTR _poArgs$[ebp]
  000a3	e8 00 00 00 00	 call	 ?PyTuple_GetFloat@@YA_NPAU_object@@HPAM@Z ; PyTuple_GetFloat
  000a8	83 c4 0c	 add	 esp, 12			; 0000000cH
  000ab	0f b6 c0	 movzx	 eax, al
  000ae	85 c0		 test	 eax, eax
  000b0	75 0d		 jne	 SHORT $LN6@grpSetEyeC

; 348  : 		return Py_BuildException();

  000b2	6a 00		 push	 0
  000b4	e8 00 00 00 00	 call	 ?Py_BuildException@@YAPAU_object@@PBDZZ ; Py_BuildException
  000b9	59		 pop	 ecx
  000ba	e9 04 01 00 00	 jmp	 $LN1@grpSetEyeC
$LN6@grpSetEyeC:

; 349  : 
; 350  : 	float zCenter;
; 351  : 	if (!PyTuple_GetFloat(poArgs, 5, &zCenter))

  000bf	8d 45 f0	 lea	 eax, DWORD PTR _zCenter$[ebp]
  000c2	50		 push	 eax
  000c3	6a 05		 push	 5
  000c5	ff 75 0c	 push	 DWORD PTR _poArgs$[ebp]
  000c8	e8 00 00 00 00	 call	 ?PyTuple_GetFloat@@YA_NPAU_object@@HPAM@Z ; PyTuple_GetFloat
  000cd	83 c4 0c	 add	 esp, 12			; 0000000cH
  000d0	0f b6 c0	 movzx	 eax, al
  000d3	85 c0		 test	 eax, eax
  000d5	75 0d		 jne	 SHORT $LN7@grpSetEyeC

; 352  : 		return Py_BuildException();

  000d7	6a 00		 push	 0
  000d9	e8 00 00 00 00	 call	 ?Py_BuildException@@YAPAU_object@@PBDZZ ; Py_BuildException
  000de	59		 pop	 ecx
  000df	e9 df 00 00 00	 jmp	 $LN1@grpSetEyeC
$LN7@grpSetEyeC:

; 353  : 	
; 354  : 	float xUp;
; 355  : 	if (!PyTuple_GetFloat(poArgs, 6, &xUp))

  000e4	8d 45 f4	 lea	 eax, DWORD PTR _xUp$[ebp]
  000e7	50		 push	 eax
  000e8	6a 06		 push	 6
  000ea	ff 75 0c	 push	 DWORD PTR _poArgs$[ebp]
  000ed	e8 00 00 00 00	 call	 ?PyTuple_GetFloat@@YA_NPAU_object@@HPAM@Z ; PyTuple_GetFloat
  000f2	83 c4 0c	 add	 esp, 12			; 0000000cH
  000f5	0f b6 c0	 movzx	 eax, al
  000f8	85 c0		 test	 eax, eax
  000fa	75 0d		 jne	 SHORT $LN8@grpSetEyeC

; 356  : 		return Py_BuildException();

  000fc	6a 00		 push	 0
  000fe	e8 00 00 00 00	 call	 ?Py_BuildException@@YAPAU_object@@PBDZZ ; Py_BuildException
  00103	59		 pop	 ecx
  00104	e9 ba 00 00 00	 jmp	 $LN1@grpSetEyeC
$LN8@grpSetEyeC:

; 357  : 
; 358  : 	float yUp;
; 359  : 	if (!PyTuple_GetFloat(poArgs, 7, &yUp))

  00109	8d 45 f8	 lea	 eax, DWORD PTR _yUp$[ebp]
  0010c	50		 push	 eax
  0010d	6a 07		 push	 7
  0010f	ff 75 0c	 push	 DWORD PTR _poArgs$[ebp]
  00112	e8 00 00 00 00	 call	 ?PyTuple_GetFloat@@YA_NPAU_object@@HPAM@Z ; PyTuple_GetFloat
  00117	83 c4 0c	 add	 esp, 12			; 0000000cH
  0011a	0f b6 c0	 movzx	 eax, al
  0011d	85 c0		 test	 eax, eax
  0011f	75 0d		 jne	 SHORT $LN9@grpSetEyeC

; 360  : 		return Py_BuildException();

  00121	6a 00		 push	 0
  00123	e8 00 00 00 00	 call	 ?Py_BuildException@@YAPAU_object@@PBDZZ ; Py_BuildException
  00128	59		 pop	 ecx
  00129	e9 95 00 00 00	 jmp	 $LN1@grpSetEyeC
$LN9@grpSetEyeC:

; 361  : 
; 362  : 	float zUp;
; 363  : 	if (!PyTuple_GetFloat(poArgs, 8, &zUp))

  0012e	8d 45 fc	 lea	 eax, DWORD PTR _zUp$[ebp]
  00131	50		 push	 eax
  00132	6a 08		 push	 8
  00134	ff 75 0c	 push	 DWORD PTR _poArgs$[ebp]
  00137	e8 00 00 00 00	 call	 ?PyTuple_GetFloat@@YA_NPAU_object@@HPAM@Z ; PyTuple_GetFloat
  0013c	83 c4 0c	 add	 esp, 12			; 0000000cH
  0013f	0f b6 c0	 movzx	 eax, al
  00142	85 c0		 test	 eax, eax
  00144	75 0a		 jne	 SHORT $LN10@grpSetEyeC

; 364  : 		return Py_BuildException();

  00146	6a 00		 push	 0
  00148	e8 00 00 00 00	 call	 ?Py_BuildException@@YAPAU_object@@PBDZZ ; Py_BuildException
  0014d	59		 pop	 ecx
  0014e	eb 73		 jmp	 SHORT $LN1@grpSetEyeC
$LN10@grpSetEyeC:

; 365  : 
; 366  : 	CPythonGraphic::Instance().SetEyeCamera(xEye, yEye, zEye, xCenter, yCenter, zCenter, xUp, yUp, zUp);

  00150	51		 push	 ecx
  00151	f3 0f 10 45 fc	 movss	 xmm0, DWORD PTR _zUp$[ebp]
  00156	f3 0f 11 04 24	 movss	 DWORD PTR [esp], xmm0
  0015b	51		 push	 ecx
  0015c	f3 0f 10 45 f8	 movss	 xmm0, DWORD PTR _yUp$[ebp]
  00161	f3 0f 11 04 24	 movss	 DWORD PTR [esp], xmm0
  00166	51		 push	 ecx
  00167	f3 0f 10 45 f4	 movss	 xmm0, DWORD PTR _xUp$[ebp]
  0016c	f3 0f 11 04 24	 movss	 DWORD PTR [esp], xmm0
  00171	51		 push	 ecx
  00172	f3 0f 10 45 f0	 movss	 xmm0, DWORD PTR _zCenter$[ebp]
  00177	f3 0f 11 04 24	 movss	 DWORD PTR [esp], xmm0
  0017c	51		 push	 ecx
  0017d	f3 0f 10 45 ec	 movss	 xmm0, DWORD PTR _yCenter$[ebp]
  00182	f3 0f 11 04 24	 movss	 DWORD PTR [esp], xmm0
  00187	51		 push	 ecx
  00188	f3 0f 10 45 e8	 movss	 xmm0, DWORD PTR _xCenter$[ebp]
  0018d	f3 0f 11 04 24	 movss	 DWORD PTR [esp], xmm0
  00192	51		 push	 ecx
  00193	f3 0f 10 45 e4	 movss	 xmm0, DWORD PTR _zEye$[ebp]
  00198	f3 0f 11 04 24	 movss	 DWORD PTR [esp], xmm0
  0019d	51		 push	 ecx
  0019e	f3 0f 10 45 e0	 movss	 xmm0, DWORD PTR _yEye$[ebp]
  001a3	f3 0f 11 04 24	 movss	 DWORD PTR [esp], xmm0
  001a8	51		 push	 ecx
  001a9	f3 0f 10 45 dc	 movss	 xmm0, DWORD PTR _xEye$[ebp]
  001ae	f3 0f 11 04 24	 movss	 DWORD PTR [esp], xmm0
  001b3	8b 0d 00 00 00
	00		 mov	 ecx, DWORD PTR ?ms_singleton@?$CSingleton@VCPythonGraphic@@@@0PAVCPythonGraphic@@A ; CSingleton<CPythonGraphic>::ms_singleton
  001b9	e8 00 00 00 00	 call	 ?SetEyeCamera@CGraphicBase@@QAEXMMMMMMMMM@Z ; CGraphicBase::SetEyeCamera

; 367  : 	return Py_BuildNone();

  001be	e8 00 00 00 00	 call	 ?Py_BuildNone@@YAPAU_object@@XZ ; Py_BuildNone
$LN1@grpSetEyeC:

; 368  : }

  001c3	c9		 leave
  001c4	c3		 ret	 0
?grpSetEyeCamera@@YAPAU_object@@PAU1@0@Z ENDP		; grpSetEyeCamera
_TEXT	ENDS
; Function compile flags: /Odspy
; File D:\Metin2 Server Files\mainline\SRC_2014\Metin2Client\eterPythonLib\PythonGraphicModule.cpp
;	COMDAT ?grpSetPositionCamera@@YAPAU_object@@PAU1@0@Z
_TEXT	SEGMENT
_fx$ = -24						; size = 4
_fy$ = -20						; size = 4
_fz$ = -16						; size = 4
_distance$ = -12					; size = 4
_pitch$ = -8						; size = 4
_roll$ = -4						; size = 4
_poSelf$ = 8						; size = 4
_poArgs$ = 12						; size = 4
?grpSetPositionCamera@@YAPAU_object@@PAU1@0@Z PROC	; grpSetPositionCamera, COMDAT

; 299  : {

  00000	55		 push	 ebp
  00001	8b ec		 mov	 ebp, esp
  00003	83 ec 18	 sub	 esp, 24			; 00000018H

; 300  : 	float fx;
; 301  : 	if (!PyTuple_GetFloat(poArgs, 0, &fx))

  00006	8d 45 e8	 lea	 eax, DWORD PTR _fx$[ebp]
  00009	50		 push	 eax
  0000a	6a 00		 push	 0
  0000c	ff 75 0c	 push	 DWORD PTR _poArgs$[ebp]
  0000f	e8 00 00 00 00	 call	 ?PyTuple_GetFloat@@YA_NPAU_object@@HPAM@Z ; PyTuple_GetFloat
  00014	83 c4 0c	 add	 esp, 12			; 0000000cH
  00017	0f b6 c0	 movzx	 eax, al
  0001a	85 c0		 test	 eax, eax
  0001c	75 0d		 jne	 SHORT $LN2@grpSetPosi

; 302  : 		return Py_BuildException();

  0001e	6a 00		 push	 0
  00020	e8 00 00 00 00	 call	 ?Py_BuildException@@YAPAU_object@@PBDZZ ; Py_BuildException
  00025	59		 pop	 ecx
  00026	e9 05 01 00 00	 jmp	 $LN1@grpSetPosi
$LN2@grpSetPosi:

; 303  : 
; 304  : 	float fy;	
; 305  : 	if (!PyTuple_GetFloat(poArgs, 1, &fy))

  0002b	8d 45 ec	 lea	 eax, DWORD PTR _fy$[ebp]
  0002e	50		 push	 eax
  0002f	6a 01		 push	 1
  00031	ff 75 0c	 push	 DWORD PTR _poArgs$[ebp]
  00034	e8 00 00 00 00	 call	 ?PyTuple_GetFloat@@YA_NPAU_object@@HPAM@Z ; PyTuple_GetFloat
  00039	83 c4 0c	 add	 esp, 12			; 0000000cH
  0003c	0f b6 c0	 movzx	 eax, al
  0003f	85 c0		 test	 eax, eax
  00041	75 0d		 jne	 SHORT $LN3@grpSetPosi

; 306  : 		return Py_BuildException();

  00043	6a 00		 push	 0
  00045	e8 00 00 00 00	 call	 ?Py_BuildException@@YAPAU_object@@PBDZZ ; Py_BuildException
  0004a	59		 pop	 ecx
  0004b	e9 e0 00 00 00	 jmp	 $LN1@grpSetPosi
$LN3@grpSetPosi:

; 307  : 
; 308  : 	float fz;
; 309  : 	if (!PyTuple_GetFloat(poArgs, 2, &fz))

  00050	8d 45 f0	 lea	 eax, DWORD PTR _fz$[ebp]
  00053	50		 push	 eax
  00054	6a 02		 push	 2
  00056	ff 75 0c	 push	 DWORD PTR _poArgs$[ebp]
  00059	e8 00 00 00 00	 call	 ?PyTuple_GetFloat@@YA_NPAU_object@@HPAM@Z ; PyTuple_GetFloat
  0005e	83 c4 0c	 add	 esp, 12			; 0000000cH
  00061	0f b6 c0	 movzx	 eax, al
  00064	85 c0		 test	 eax, eax
  00066	75 0d		 jne	 SHORT $LN4@grpSetPosi

; 310  : 		return Py_BuildException();

  00068	6a 00		 push	 0
  0006a	e8 00 00 00 00	 call	 ?Py_BuildException@@YAPAU_object@@PBDZZ ; Py_BuildException
  0006f	59		 pop	 ecx
  00070	e9 bb 00 00 00	 jmp	 $LN1@grpSetPosi
$LN4@grpSetPosi:

; 311  : 	
; 312  : 	float distance;
; 313  : 	if (!PyTuple_GetFloat(poArgs, 3, &distance))

  00075	8d 45 f4	 lea	 eax, DWORD PTR _distance$[ebp]
  00078	50		 push	 eax
  00079	6a 03		 push	 3
  0007b	ff 75 0c	 push	 DWORD PTR _poArgs$[ebp]
  0007e	e8 00 00 00 00	 call	 ?PyTuple_GetFloat@@YA_NPAU_object@@HPAM@Z ; PyTuple_GetFloat
  00083	83 c4 0c	 add	 esp, 12			; 0000000cH
  00086	0f b6 c0	 movzx	 eax, al
  00089	85 c0		 test	 eax, eax
  0008b	75 0d		 jne	 SHORT $LN5@grpSetPosi

; 314  : 		return Py_BuildException();

  0008d	6a 00		 push	 0
  0008f	e8 00 00 00 00	 call	 ?Py_BuildException@@YAPAU_object@@PBDZZ ; Py_BuildException
  00094	59		 pop	 ecx
  00095	e9 96 00 00 00	 jmp	 $LN1@grpSetPosi
$LN5@grpSetPosi:

; 315  : 
; 316  : 	float pitch;
; 317  : 	if (!PyTuple_GetFloat(poArgs, 4, &pitch))

  0009a	8d 45 f8	 lea	 eax, DWORD PTR _pitch$[ebp]
  0009d	50		 push	 eax
  0009e	6a 04		 push	 4
  000a0	ff 75 0c	 push	 DWORD PTR _poArgs$[ebp]
  000a3	e8 00 00 00 00	 call	 ?PyTuple_GetFloat@@YA_NPAU_object@@HPAM@Z ; PyTuple_GetFloat
  000a8	83 c4 0c	 add	 esp, 12			; 0000000cH
  000ab	0f b6 c0	 movzx	 eax, al
  000ae	85 c0		 test	 eax, eax
  000b0	75 0a		 jne	 SHORT $LN6@grpSetPosi

; 318  : 		return Py_BuildException();

  000b2	6a 00		 push	 0
  000b4	e8 00 00 00 00	 call	 ?Py_BuildException@@YAPAU_object@@PBDZZ ; Py_BuildException
  000b9	59		 pop	 ecx
  000ba	eb 74		 jmp	 SHORT $LN1@grpSetPosi
$LN6@grpSetPosi:

; 319  : 	
; 320  : 	float roll;
; 321  : 	if (!PyTuple_GetFloat(poArgs, 5, &roll))

  000bc	8d 45 fc	 lea	 eax, DWORD PTR _roll$[ebp]
  000bf	50		 push	 eax
  000c0	6a 05		 push	 5
  000c2	ff 75 0c	 push	 DWORD PTR _poArgs$[ebp]
  000c5	e8 00 00 00 00	 call	 ?PyTuple_GetFloat@@YA_NPAU_object@@HPAM@Z ; PyTuple_GetFloat
  000ca	83 c4 0c	 add	 esp, 12			; 0000000cH
  000cd	0f b6 c0	 movzx	 eax, al
  000d0	85 c0		 test	 eax, eax
  000d2	75 0a		 jne	 SHORT $LN7@grpSetPosi

; 322  : 		return Py_BuildException();

  000d4	6a 00		 push	 0
  000d6	e8 00 00 00 00	 call	 ?Py_BuildException@@YAPAU_object@@PBDZZ ; Py_BuildException
  000db	59		 pop	 ecx
  000dc	eb 52		 jmp	 SHORT $LN1@grpSetPosi
$LN7@grpSetPosi:

; 323  : 
; 324  : 	CPythonGraphic::Instance().SetPositionCamera(fx, fy, fz, distance, pitch, roll);

  000de	51		 push	 ecx
  000df	f3 0f 10 45 fc	 movss	 xmm0, DWORD PTR _roll$[ebp]
  000e4	f3 0f 11 04 24	 movss	 DWORD PTR [esp], xmm0
  000e9	51		 push	 ecx
  000ea	f3 0f 10 45 f8	 movss	 xmm0, DWORD PTR _pitch$[ebp]
  000ef	f3 0f 11 04 24	 movss	 DWORD PTR [esp], xmm0
  000f4	51		 push	 ecx
  000f5	f3 0f 10 45 f4	 movss	 xmm0, DWORD PTR _distance$[ebp]
  000fa	f3 0f 11 04 24	 movss	 DWORD PTR [esp], xmm0
  000ff	51		 push	 ecx
  00100	f3 0f 10 45 f0	 movss	 xmm0, DWORD PTR _fz$[ebp]
  00105	f3 0f 11 04 24	 movss	 DWORD PTR [esp], xmm0
  0010a	51		 push	 ecx
  0010b	f3 0f 10 45 ec	 movss	 xmm0, DWORD PTR _fy$[ebp]
  00110	f3 0f 11 04 24	 movss	 DWORD PTR [esp], xmm0
  00115	51		 push	 ecx
  00116	f3 0f 10 45 e8	 movss	 xmm0, DWORD PTR _fx$[ebp]
  0011b	f3 0f 11 04 24	 movss	 DWORD PTR [esp], xmm0
  00120	8b 0d 00 00 00
	00		 mov	 ecx, DWORD PTR ?ms_singleton@?$CSingleton@VCPythonGraphic@@@@0PAVCPythonGraphic@@A ; CSingleton<CPythonGraphic>::ms_singleton
  00126	e8 00 00 00 00	 call	 ?SetPositionCamera@CGraphicBase@@QAEXMMMMMM@Z ; CGraphicBase::SetPositionCamera

; 325  : 	return Py_BuildNone();

  0012b	e8 00 00 00 00	 call	 ?Py_BuildNone@@YAPAU_object@@XZ ; Py_BuildNone
$LN1@grpSetPosi:

; 326  : }

  00130	c9		 leave
  00131	c3		 ret	 0
?grpSetPositionCamera@@YAPAU_object@@PAU1@0@Z ENDP	; grpSetPositionCamera
_TEXT	ENDS
; Function compile flags: /Odspy
; File D:\Metin2 Server Files\mainline\SRC_2014\Metin2Client\eterPythonLib\PythonGraphicModule.cpp
;	COMDAT ?grpSetAroundCamera@@YAPAU_object@@PAU1@0@Z
_TEXT	SEGMENT
_distance$ = -16					; size = 4
_pitch$ = -12						; size = 4
_roll$ = -8						; size = 4
_lookAtZ$ = -4						; size = 4
_poSelf$ = 8						; size = 4
_poArgs$ = 12						; size = 4
?grpSetAroundCamera@@YAPAU_object@@PAU1@0@Z PROC	; grpSetAroundCamera, COMDAT

; 277  : {

  00000	55		 push	 ebp
  00001	8b ec		 mov	 ebp, esp
  00003	83 ec 10	 sub	 esp, 16			; 00000010H

; 278  : 	float distance;
; 279  : 	if (!PyTuple_GetFloat(poArgs, 0, &distance))

  00006	8d 45 f0	 lea	 eax, DWORD PTR _distance$[ebp]
  00009	50		 push	 eax
  0000a	6a 00		 push	 0
  0000c	ff 75 0c	 push	 DWORD PTR _poArgs$[ebp]
  0000f	e8 00 00 00 00	 call	 ?PyTuple_GetFloat@@YA_NPAU_object@@HPAM@Z ; PyTuple_GetFloat
  00014	83 c4 0c	 add	 esp, 12			; 0000000cH
  00017	0f b6 c0	 movzx	 eax, al
  0001a	85 c0		 test	 eax, eax
  0001c	75 0d		 jne	 SHORT $LN2@grpSetArou

; 280  : 		return Py_BuildException();

  0001e	6a 00		 push	 0
  00020	e8 00 00 00 00	 call	 ?Py_BuildException@@YAPAU_object@@PBDZZ ; Py_BuildException
  00025	59		 pop	 ecx
  00026	e9 a5 00 00 00	 jmp	 $LN1@grpSetArou
$LN2@grpSetArou:

; 281  : 
; 282  : 	float pitch;	
; 283  : 	if (!PyTuple_GetFloat(poArgs, 1, &pitch))

  0002b	8d 45 f4	 lea	 eax, DWORD PTR _pitch$[ebp]
  0002e	50		 push	 eax
  0002f	6a 01		 push	 1
  00031	ff 75 0c	 push	 DWORD PTR _poArgs$[ebp]
  00034	e8 00 00 00 00	 call	 ?PyTuple_GetFloat@@YA_NPAU_object@@HPAM@Z ; PyTuple_GetFloat
  00039	83 c4 0c	 add	 esp, 12			; 0000000cH
  0003c	0f b6 c0	 movzx	 eax, al
  0003f	85 c0		 test	 eax, eax
  00041	75 0d		 jne	 SHORT $LN3@grpSetArou

; 284  : 		return Py_BuildException();

  00043	6a 00		 push	 0
  00045	e8 00 00 00 00	 call	 ?Py_BuildException@@YAPAU_object@@PBDZZ ; Py_BuildException
  0004a	59		 pop	 ecx
  0004b	e9 80 00 00 00	 jmp	 $LN1@grpSetArou
$LN3@grpSetArou:

; 285  : 
; 286  : 	float roll;
; 287  : 	if (!PyTuple_GetFloat(poArgs, 2, &roll))

  00050	8d 45 f8	 lea	 eax, DWORD PTR _roll$[ebp]
  00053	50		 push	 eax
  00054	6a 02		 push	 2
  00056	ff 75 0c	 push	 DWORD PTR _poArgs$[ebp]
  00059	e8 00 00 00 00	 call	 ?PyTuple_GetFloat@@YA_NPAU_object@@HPAM@Z ; PyTuple_GetFloat
  0005e	83 c4 0c	 add	 esp, 12			; 0000000cH
  00061	0f b6 c0	 movzx	 eax, al
  00064	85 c0		 test	 eax, eax
  00066	75 0a		 jne	 SHORT $LN4@grpSetArou

; 288  : 		return Py_BuildException();

  00068	6a 00		 push	 0
  0006a	e8 00 00 00 00	 call	 ?Py_BuildException@@YAPAU_object@@PBDZZ ; Py_BuildException
  0006f	59		 pop	 ecx
  00070	eb 5e		 jmp	 SHORT $LN1@grpSetArou
$LN4@grpSetArou:

; 289  : 	
; 290  : 	float lookAtZ;
; 291  : 	if (!PyTuple_GetFloat(poArgs, 3, &lookAtZ))

  00072	8d 45 fc	 lea	 eax, DWORD PTR _lookAtZ$[ebp]
  00075	50		 push	 eax
  00076	6a 03		 push	 3
  00078	ff 75 0c	 push	 DWORD PTR _poArgs$[ebp]
  0007b	e8 00 00 00 00	 call	 ?PyTuple_GetFloat@@YA_NPAU_object@@HPAM@Z ; PyTuple_GetFloat
  00080	83 c4 0c	 add	 esp, 12			; 0000000cH
  00083	0f b6 c0	 movzx	 eax, al
  00086	85 c0		 test	 eax, eax
  00088	75 0a		 jne	 SHORT $LN5@grpSetArou

; 292  : 		return Py_BuildException();

  0008a	6a 00		 push	 0
  0008c	e8 00 00 00 00	 call	 ?Py_BuildException@@YAPAU_object@@PBDZZ ; Py_BuildException
  00091	59		 pop	 ecx
  00092	eb 3c		 jmp	 SHORT $LN1@grpSetArou
$LN5@grpSetArou:

; 293  : 
; 294  : 	CPythonGraphic::Instance().SetAroundCamera(distance, pitch, roll, lookAtZ);

  00094	51		 push	 ecx
  00095	f3 0f 10 45 fc	 movss	 xmm0, DWORD PTR _lookAtZ$[ebp]
  0009a	f3 0f 11 04 24	 movss	 DWORD PTR [esp], xmm0
  0009f	51		 push	 ecx
  000a0	f3 0f 10 45 f8	 movss	 xmm0, DWORD PTR _roll$[ebp]
  000a5	f3 0f 11 04 24	 movss	 DWORD PTR [esp], xmm0
  000aa	51		 push	 ecx
  000ab	f3 0f 10 45 f4	 movss	 xmm0, DWORD PTR _pitch$[ebp]
  000b0	f3 0f 11 04 24	 movss	 DWORD PTR [esp], xmm0
  000b5	51		 push	 ecx
  000b6	f3 0f 10 45 f0	 movss	 xmm0, DWORD PTR _distance$[ebp]
  000bb	f3 0f 11 04 24	 movss	 DWORD PTR [esp], xmm0
  000c0	8b 0d 00 00 00
	00		 mov	 ecx, DWORD PTR ?ms_singleton@?$CSingleton@VCPythonGraphic@@@@0PAVCPythonGraphic@@A ; CSingleton<CPythonGraphic>::ms_singleton
  000c6	e8 00 00 00 00	 call	 ?SetAroundCamera@CGraphicBase@@QAEXMMMM@Z ; CGraphicBase::SetAroundCamera

; 295  : 	return Py_BuildNone();

  000cb	e8 00 00 00 00	 call	 ?Py_BuildNone@@YAPAU_object@@XZ ; Py_BuildNone
$LN1@grpSetArou:

; 296  : }

  000d0	c9		 leave
  000d1	c3		 ret	 0
?grpSetAroundCamera@@YAPAU_object@@PAU1@0@Z ENDP	; grpSetAroundCamera
_TEXT	ENDS
; Function compile flags: /Odspy
; File D:\Metin2 Server Files\mainline\SRC_2014\Metin2Client\eterPythonLib\PythonGraphicModule.cpp
;	COMDAT ?grpSetColorRenderState@@YAPAU_object@@PAU1@0@Z
_TEXT	SEGMENT
_poSelf$ = 8						; size = 4
_poArgs$ = 12						; size = 4
?grpSetColorRenderState@@YAPAU_object@@PAU1@0@Z PROC	; grpSetColorRenderState, COMDAT

; 272  : {

  00000	55		 push	 ebp
  00001	8b ec		 mov	 ebp, esp

; 273  : 	return Py_BuildNone();

  00003	e8 00 00 00 00	 call	 ?Py_BuildNone@@YAPAU_object@@XZ ; Py_BuildNone

; 274  : }

  00008	5d		 pop	 ebp
  00009	c3		 ret	 0
?grpSetColorRenderState@@YAPAU_object@@PAU1@0@Z ENDP	; grpSetColorRenderState
_TEXT	ENDS
; Function compile flags: /Odspy
; File D:\Metin2 Server Files\mainline\SRC_2014\Metin2Client\eterPythonLib\PythonGraphicModule.cpp
;	COMDAT ?grpRotate@@YAPAU_object@@PAU1@0@Z
_TEXT	SEGMENT
_Degree$ = -16						; size = 4
_x$ = -12						; size = 4
_y$ = -8						; size = 4
_z$ = -4						; size = 4
_poSelf$ = 8						; size = 4
_poArgs$ = 12						; size = 4
?grpRotate@@YAPAU_object@@PAU1@0@Z PROC			; grpRotate, COMDAT

; 249  : {

  00000	55		 push	 ebp
  00001	8b ec		 mov	 ebp, esp
  00003	83 ec 10	 sub	 esp, 16			; 00000010H

; 250  : 	float Degree;
; 251  : 	if (!PyTuple_GetFloat(poArgs, 0, &Degree))

  00006	8d 45 f0	 lea	 eax, DWORD PTR _Degree$[ebp]
  00009	50		 push	 eax
  0000a	6a 00		 push	 0
  0000c	ff 75 0c	 push	 DWORD PTR _poArgs$[ebp]
  0000f	e8 00 00 00 00	 call	 ?PyTuple_GetFloat@@YA_NPAU_object@@HPAM@Z ; PyTuple_GetFloat
  00014	83 c4 0c	 add	 esp, 12			; 0000000cH
  00017	0f b6 c0	 movzx	 eax, al
  0001a	85 c0		 test	 eax, eax
  0001c	75 0d		 jne	 SHORT $LN2@grpRotate

; 252  : 		return Py_BuildException();

  0001e	6a 00		 push	 0
  00020	e8 00 00 00 00	 call	 ?Py_BuildException@@YAPAU_object@@PBDZZ ; Py_BuildException
  00025	59		 pop	 ecx
  00026	e9 a5 00 00 00	 jmp	 $LN1@grpRotate
$LN2@grpRotate:

; 253  : 
; 254  : 	float x;
; 255  : 	if (!PyTuple_GetFloat(poArgs, 1, &x))

  0002b	8d 45 f4	 lea	 eax, DWORD PTR _x$[ebp]
  0002e	50		 push	 eax
  0002f	6a 01		 push	 1
  00031	ff 75 0c	 push	 DWORD PTR _poArgs$[ebp]
  00034	e8 00 00 00 00	 call	 ?PyTuple_GetFloat@@YA_NPAU_object@@HPAM@Z ; PyTuple_GetFloat
  00039	83 c4 0c	 add	 esp, 12			; 0000000cH
  0003c	0f b6 c0	 movzx	 eax, al
  0003f	85 c0		 test	 eax, eax
  00041	75 0d		 jne	 SHORT $LN3@grpRotate

; 256  : 		return Py_BuildException();

  00043	6a 00		 push	 0
  00045	e8 00 00 00 00	 call	 ?Py_BuildException@@YAPAU_object@@PBDZZ ; Py_BuildException
  0004a	59		 pop	 ecx
  0004b	e9 80 00 00 00	 jmp	 $LN1@grpRotate
$LN3@grpRotate:

; 257  : 
; 258  : 	float y;
; 259  : 	if (!PyTuple_GetFloat(poArgs, 2, &y))

  00050	8d 45 f8	 lea	 eax, DWORD PTR _y$[ebp]
  00053	50		 push	 eax
  00054	6a 02		 push	 2
  00056	ff 75 0c	 push	 DWORD PTR _poArgs$[ebp]
  00059	e8 00 00 00 00	 call	 ?PyTuple_GetFloat@@YA_NPAU_object@@HPAM@Z ; PyTuple_GetFloat
  0005e	83 c4 0c	 add	 esp, 12			; 0000000cH
  00061	0f b6 c0	 movzx	 eax, al
  00064	85 c0		 test	 eax, eax
  00066	75 0a		 jne	 SHORT $LN4@grpRotate

; 260  : 		return Py_BuildException();

  00068	6a 00		 push	 0
  0006a	e8 00 00 00 00	 call	 ?Py_BuildException@@YAPAU_object@@PBDZZ ; Py_BuildException
  0006f	59		 pop	 ecx
  00070	eb 5e		 jmp	 SHORT $LN1@grpRotate
$LN4@grpRotate:

; 261  : 
; 262  : 	float z;
; 263  : 	if (!PyTuple_GetFloat(poArgs, 3, &z))

  00072	8d 45 fc	 lea	 eax, DWORD PTR _z$[ebp]
  00075	50		 push	 eax
  00076	6a 03		 push	 3
  00078	ff 75 0c	 push	 DWORD PTR _poArgs$[ebp]
  0007b	e8 00 00 00 00	 call	 ?PyTuple_GetFloat@@YA_NPAU_object@@HPAM@Z ; PyTuple_GetFloat
  00080	83 c4 0c	 add	 esp, 12			; 0000000cH
  00083	0f b6 c0	 movzx	 eax, al
  00086	85 c0		 test	 eax, eax
  00088	75 0a		 jne	 SHORT $LN5@grpRotate

; 264  : 		return Py_BuildException();

  0008a	6a 00		 push	 0
  0008c	e8 00 00 00 00	 call	 ?Py_BuildException@@YAPAU_object@@PBDZZ ; Py_BuildException
  00091	59		 pop	 ecx
  00092	eb 3c		 jmp	 SHORT $LN1@grpRotate
$LN5@grpRotate:

; 265  : 
; 266  : 	CPythonGraphic::Instance().Rotate(Degree, x, y, z);

  00094	51		 push	 ecx
  00095	f3 0f 10 45 fc	 movss	 xmm0, DWORD PTR _z$[ebp]
  0009a	f3 0f 11 04 24	 movss	 DWORD PTR [esp], xmm0
  0009f	51		 push	 ecx
  000a0	f3 0f 10 45 f8	 movss	 xmm0, DWORD PTR _y$[ebp]
  000a5	f3 0f 11 04 24	 movss	 DWORD PTR [esp], xmm0
  000aa	51		 push	 ecx
  000ab	f3 0f 10 45 f4	 movss	 xmm0, DWORD PTR _x$[ebp]
  000b0	f3 0f 11 04 24	 movss	 DWORD PTR [esp], xmm0
  000b5	51		 push	 ecx
  000b6	f3 0f 10 45 f0	 movss	 xmm0, DWORD PTR _Degree$[ebp]
  000bb	f3 0f 11 04 24	 movss	 DWORD PTR [esp], xmm0
  000c0	8b 0d 00 00 00
	00		 mov	 ecx, DWORD PTR ?ms_singleton@?$CSingleton@VCPythonGraphic@@@@0PAVCPythonGraphic@@A ; CSingleton<CPythonGraphic>::ms_singleton
  000c6	e8 00 00 00 00	 call	 ?Rotate@CGraphicBase@@QAEXMMMM@Z ; CGraphicBase::Rotate

; 267  : 
; 268  : 	return Py_BuildNone();

  000cb	e8 00 00 00 00	 call	 ?Py_BuildNone@@YAPAU_object@@XZ ; Py_BuildNone
$LN1@grpRotate:

; 269  : }

  000d0	c9		 leave
  000d1	c3		 ret	 0
?grpRotate@@YAPAU_object@@PAU1@0@Z ENDP			; grpRotate
_TEXT	ENDS
; Function compile flags: /Odspy
; File D:\Metin2 Server Files\mainline\SRC_2014\Metin2Client\eterPythonLib\PythonGraphicModule.cpp
;	COMDAT ?grpTranslate@@YAPAU_object@@PAU1@0@Z
_TEXT	SEGMENT
_x$ = -12						; size = 4
_y$ = -8						; size = 4
_z$ = -4						; size = 4
_poSelf$ = 8						; size = 4
_poArgs$ = 12						; size = 4
?grpTranslate@@YAPAU_object@@PAU1@0@Z PROC		; grpTranslate, COMDAT

; 230  : {

  00000	55		 push	 ebp
  00001	8b ec		 mov	 ebp, esp
  00003	83 ec 0c	 sub	 esp, 12			; 0000000cH

; 231  : 	float x;
; 232  : 	if (!PyTuple_GetFloat(poArgs, 0, &x))

  00006	8d 45 f4	 lea	 eax, DWORD PTR _x$[ebp]
  00009	50		 push	 eax
  0000a	6a 00		 push	 0
  0000c	ff 75 0c	 push	 DWORD PTR _poArgs$[ebp]
  0000f	e8 00 00 00 00	 call	 ?PyTuple_GetFloat@@YA_NPAU_object@@HPAM@Z ; PyTuple_GetFloat
  00014	83 c4 0c	 add	 esp, 12			; 0000000cH
  00017	0f b6 c0	 movzx	 eax, al
  0001a	85 c0		 test	 eax, eax
  0001c	75 0d		 jne	 SHORT $LN2@grpTransla

; 233  : 		return Py_BuildException("grp.Translate:Wrong X");

  0001e	68 00 00 00 00	 push	 OFFSET ??_C@_0BG@LCHGAFDO@grp?4Translate?3Wrong?5X@
  00023	e8 00 00 00 00	 call	 ?Py_BuildException@@YAPAU_object@@PBDZZ ; Py_BuildException
  00028	59		 pop	 ecx
  00029	eb 7b		 jmp	 SHORT $LN1@grpTransla
$LN2@grpTransla:

; 234  : 
; 235  : 	float y;
; 236  : 	if (!PyTuple_GetFloat(poArgs, 1, &y))

  0002b	8d 45 f8	 lea	 eax, DWORD PTR _y$[ebp]
  0002e	50		 push	 eax
  0002f	6a 01		 push	 1
  00031	ff 75 0c	 push	 DWORD PTR _poArgs$[ebp]
  00034	e8 00 00 00 00	 call	 ?PyTuple_GetFloat@@YA_NPAU_object@@HPAM@Z ; PyTuple_GetFloat
  00039	83 c4 0c	 add	 esp, 12			; 0000000cH
  0003c	0f b6 c0	 movzx	 eax, al
  0003f	85 c0		 test	 eax, eax
  00041	75 0d		 jne	 SHORT $LN3@grpTransla

; 237  : 		return Py_BuildException("grp.Translate:Wrong Y");

  00043	68 00 00 00 00	 push	 OFFSET ??_C@_0BG@KLGNDEHP@grp?4Translate?3Wrong?5Y@
  00048	e8 00 00 00 00	 call	 ?Py_BuildException@@YAPAU_object@@PBDZZ ; Py_BuildException
  0004d	59		 pop	 ecx
  0004e	eb 56		 jmp	 SHORT $LN1@grpTransla
$LN3@grpTransla:

; 238  : 
; 239  : 	float z;
; 240  : 	if (!PyTuple_GetFloat(poArgs, 2, &z))

  00050	8d 45 fc	 lea	 eax, DWORD PTR _z$[ebp]
  00053	50		 push	 eax
  00054	6a 02		 push	 2
  00056	ff 75 0c	 push	 DWORD PTR _poArgs$[ebp]
  00059	e8 00 00 00 00	 call	 ?PyTuple_GetFloat@@YA_NPAU_object@@HPAM@Z ; PyTuple_GetFloat
  0005e	83 c4 0c	 add	 esp, 12			; 0000000cH
  00061	0f b6 c0	 movzx	 eax, al
  00064	85 c0		 test	 eax, eax
  00066	75 0d		 jne	 SHORT $LN4@grpTransla

; 241  : 		return Py_BuildException("grp.Translate:Wrong Z");

  00068	68 00 00 00 00	 push	 OFFSET ??_C@_0BG@IAEAGHLM@grp?4Translate?3Wrong?5Z@
  0006d	e8 00 00 00 00	 call	 ?Py_BuildException@@YAPAU_object@@PBDZZ ; Py_BuildException
  00072	59		 pop	 ecx
  00073	eb 31		 jmp	 SHORT $LN1@grpTransla
$LN4@grpTransla:

; 242  : 
; 243  : 	CPythonGraphic::Instance().Translate(x, y, z);

  00075	51		 push	 ecx
  00076	f3 0f 10 45 fc	 movss	 xmm0, DWORD PTR _z$[ebp]
  0007b	f3 0f 11 04 24	 movss	 DWORD PTR [esp], xmm0
  00080	51		 push	 ecx
  00081	f3 0f 10 45 f8	 movss	 xmm0, DWORD PTR _y$[ebp]
  00086	f3 0f 11 04 24	 movss	 DWORD PTR [esp], xmm0
  0008b	51		 push	 ecx
  0008c	f3 0f 10 45 f4	 movss	 xmm0, DWORD PTR _x$[ebp]
  00091	f3 0f 11 04 24	 movss	 DWORD PTR [esp], xmm0
  00096	8b 0d 00 00 00
	00		 mov	 ecx, DWORD PTR ?ms_singleton@?$CSingleton@VCPythonGraphic@@@@0PAVCPythonGraphic@@A ; CSingleton<CPythonGraphic>::ms_singleton
  0009c	e8 00 00 00 00	 call	 ?Translate@CGraphicBase@@QAEXMMM@Z ; CGraphicBase::Translate

; 244  : 
; 245  : 	return Py_BuildNone();

  000a1	e8 00 00 00 00	 call	 ?Py_BuildNone@@YAPAU_object@@XZ ; Py_BuildNone
$LN1@grpTransla:

; 246  : }

  000a6	c9		 leave
  000a7	c3		 ret	 0
?grpTranslate@@YAPAU_object@@PAU1@0@Z ENDP		; grpTranslate
_TEXT	ENDS
; Function compile flags: /Odspy
; File D:\Metin2 Server Files\mainline\SRC_2014\Metin2Client\eterPythonLib\PythonGraphicModule.cpp
;	COMDAT ?grpPopMatrix@@YAPAU_object@@PAU1@0@Z
_TEXT	SEGMENT
_poSelf$ = 8						; size = 4
_poArgs$ = 12						; size = 4
?grpPopMatrix@@YAPAU_object@@PAU1@0@Z PROC		; grpPopMatrix, COMDAT

; 224  : {

  00000	55		 push	 ebp
  00001	8b ec		 mov	 ebp, esp

; 225  : 	CPythonGraphic::Instance().PopMatrix();

  00003	8b 0d 00 00 00
	00		 mov	 ecx, DWORD PTR ?ms_singleton@?$CSingleton@VCPythonGraphic@@@@0PAVCPythonGraphic@@A ; CSingleton<CPythonGraphic>::ms_singleton
  00009	e8 00 00 00 00	 call	 ?PopMatrix@CGraphicBase@@QAEXXZ ; CGraphicBase::PopMatrix

; 226  : 	return Py_BuildNone();

  0000e	e8 00 00 00 00	 call	 ?Py_BuildNone@@YAPAU_object@@XZ ; Py_BuildNone

; 227  : }

  00013	5d		 pop	 ebp
  00014	c3		 ret	 0
?grpPopMatrix@@YAPAU_object@@PAU1@0@Z ENDP		; grpPopMatrix
_TEXT	ENDS
; Function compile flags: /Odspy
; File D:\Metin2 Server Files\mainline\SRC_2014\Metin2Client\eterPythonLib\PythonGraphicModule.cpp
;	COMDAT ?grpPushMatrix@@YAPAU_object@@PAU1@0@Z
_TEXT	SEGMENT
_poSelf$ = 8						; size = 4
_poArgs$ = 12						; size = 4
?grpPushMatrix@@YAPAU_object@@PAU1@0@Z PROC		; grpPushMatrix, COMDAT

; 218  : {

  00000	55		 push	 ebp
  00001	8b ec		 mov	 ebp, esp

; 219  : 	CPythonGraphic::Instance().PushMatrix();

  00003	8b 0d 00 00 00
	00		 mov	 ecx, DWORD PTR ?ms_singleton@?$CSingleton@VCPythonGraphic@@@@0PAVCPythonGraphic@@A ; CSingleton<CPythonGraphic>::ms_singleton
  00009	e8 00 00 00 00	 call	 ?PushMatrix@CGraphicBase@@QAEXXZ ; CGraphicBase::PushMatrix

; 220  : 	return Py_BuildNone();

  0000e	e8 00 00 00 00	 call	 ?Py_BuildNone@@YAPAU_object@@XZ ; Py_BuildNone

; 221  : }

  00013	5d		 pop	 ebp
  00014	c3		 ret	 0
?grpPushMatrix@@YAPAU_object@@PAU1@0@Z ENDP		; grpPushMatrix
_TEXT	ENDS
; Function compile flags: /Odspy
; File D:\Metin2 Server Files\mainline\SRC_2014\Metin2Client\eterPythonLib\PythonGraphicModule.cpp
;	COMDAT ?grpPopState@@YAPAU_object@@PAU1@0@Z
_TEXT	SEGMENT
_poSelf$ = 8						; size = 4
_poArgs$ = 12						; size = 4
?grpPopState@@YAPAU_object@@PAU1@0@Z PROC		; grpPopState, COMDAT

; 212  : {

  00000	55		 push	 ebp
  00001	8b ec		 mov	 ebp, esp

; 213  : 	CPythonGraphic::Instance().PopState();

  00003	8b 0d 00 00 00
	00		 mov	 ecx, DWORD PTR ?ms_singleton@?$CSingleton@VCPythonGraphic@@@@0PAVCPythonGraphic@@A ; CSingleton<CPythonGraphic>::ms_singleton
  00009	e8 00 00 00 00	 call	 ?PopState@CPythonGraphic@@QAEXXZ ; CPythonGraphic::PopState

; 214  : 	return Py_BuildNone();

  0000e	e8 00 00 00 00	 call	 ?Py_BuildNone@@YAPAU_object@@XZ ; Py_BuildNone

; 215  : }

  00013	5d		 pop	 ebp
  00014	c3		 ret	 0
?grpPopState@@YAPAU_object@@PAU1@0@Z ENDP		; grpPopState
_TEXT	ENDS
; Function compile flags: /Odspy
; File D:\Metin2 Server Files\mainline\SRC_2014\Metin2Client\eterPythonLib\PythonGraphicModule.cpp
;	COMDAT ?grpPushState@@YAPAU_object@@PAU1@0@Z
_TEXT	SEGMENT
_poSelf$ = 8						; size = 4
_poArgs$ = 12						; size = 4
?grpPushState@@YAPAU_object@@PAU1@0@Z PROC		; grpPushState, COMDAT

; 206  : {

  00000	55		 push	 ebp
  00001	8b ec		 mov	 ebp, esp

; 207  : 	CPythonGraphic::Instance().PushState();

  00003	8b 0d 00 00 00
	00		 mov	 ecx, DWORD PTR ?ms_singleton@?$CSingleton@VCPythonGraphic@@@@0PAVCPythonGraphic@@A ; CSingleton<CPythonGraphic>::ms_singleton
  00009	e8 00 00 00 00	 call	 ?PushState@CPythonGraphic@@QAEXXZ ; CPythonGraphic::PushState

; 208  : 	return Py_BuildNone();

  0000e	e8 00 00 00 00	 call	 ?Py_BuildNone@@YAPAU_object@@XZ ; Py_BuildNone

; 209  : }

  00013	5d		 pop	 ebp
  00014	c3		 ret	 0
?grpPushState@@YAPAU_object@@PAU1@0@Z ENDP		; grpPushState
_TEXT	ENDS
; Function compile flags: /Odspy
; File D:\Metin2 Server Files\mainline\SRC_2014\Metin2Client\eterPythonLib\PythonGraphicModule.cpp
;	COMDAT ?grpClearDepthBuffer@@YAPAU_object@@PAU1@0@Z
_TEXT	SEGMENT
_poSelf$ = 8						; size = 4
_poArgs$ = 12						; size = 4
?grpClearDepthBuffer@@YAPAU_object@@PAU1@0@Z PROC	; grpClearDepthBuffer, COMDAT

; 200  : {

  00000	55		 push	 ebp
  00001	8b ec		 mov	 ebp, esp

; 201  : 	CPythonGraphic::Instance().ClearDepthBuffer();

  00003	8b 0d 00 00 00
	00		 mov	 ecx, DWORD PTR ?ms_singleton@?$CSingleton@VCPythonGraphic@@@@0PAVCPythonGraphic@@A ; CSingleton<CPythonGraphic>::ms_singleton
  00009	e8 00 00 00 00	 call	 ?ClearDepthBuffer@CScreen@@QAEXXZ ; CScreen::ClearDepthBuffer

; 202  : 	return Py_BuildNone();

  0000e	e8 00 00 00 00	 call	 ?Py_BuildNone@@YAPAU_object@@XZ ; Py_BuildNone

; 203  : }

  00013	5d		 pop	 ebp
  00014	c3		 ret	 0
?grpClearDepthBuffer@@YAPAU_object@@PAU1@0@Z ENDP	; grpClearDepthBuffer
_TEXT	ENDS
; Function compile flags: /Odspy
; File D:\Metin2 Server Files\mainline\SRC_2014\Metin2Client\eterPythonLib\PythonGraphicModule.cpp
;	COMDAT ?grpInitScreenEffect@@YAPAU_object@@PAU1@0@Z
_TEXT	SEGMENT
_poSelf$ = 8						; size = 4
_poArgs$ = 12						; size = 4
?grpInitScreenEffect@@YAPAU_object@@PAU1@0@Z PROC	; grpInitScreenEffect, COMDAT

; 194  : {

  00000	55		 push	 ebp
  00001	8b ec		 mov	 ebp, esp

; 195  : 	CPythonGraphic::Instance().InitScreenEffect();

  00003	8b 0d 00 00 00
	00		 mov	 ecx, DWORD PTR ?ms_singleton@?$CSingleton@VCPythonGraphic@@@@0PAVCPythonGraphic@@A ; CSingleton<CPythonGraphic>::ms_singleton
  00009	e8 00 00 00 00	 call	 ?InitScreenEffect@CGraphicBase@@QAEXXZ ; CGraphicBase::InitScreenEffect

; 196  : 	return Py_BuildNone();

  0000e	e8 00 00 00 00	 call	 ?Py_BuildNone@@YAPAU_object@@XZ ; Py_BuildNone

; 197  : }

  00013	5d		 pop	 ebp
  00014	c3		 ret	 0
?grpInitScreenEffect@@YAPAU_object@@PAU1@0@Z ENDP	; grpInitScreenEffect
_TEXT	ENDS
; Function compile flags: /Odspy
; File D:\Metin2 Server Files\mainline\SRC_2014\Metin2Client\eterPythonLib\PythonGraphicModule.cpp
;	COMDAT ?grpCulling@@YAPAU_object@@PAU1@0@Z
_TEXT	SEGMENT
_poSelf$ = 8						; size = 4
_poArgs$ = 12						; size = 4
?grpCulling@@YAPAU_object@@PAU1@0@Z PROC		; grpCulling, COMDAT

; 188  : {

  00000	55		 push	 ebp
  00001	8b ec		 mov	 ebp, esp

; 189  : 	CCullingManager::Instance().Process();

  00003	8b 0d 00 00 00
	00		 mov	 ecx, DWORD PTR ?ms_singleton@?$CSingleton@VCCullingManager@@@@0PAVCCullingManager@@A ; CSingleton<CCullingManager>::ms_singleton
  00009	e8 00 00 00 00	 call	 ?Process@CCullingManager@@QAEXXZ ; CCullingManager::Process

; 190  : 	return Py_BuildNone();

  0000e	e8 00 00 00 00	 call	 ?Py_BuildNone@@YAPAU_object@@XZ ; Py_BuildNone

; 191  : }

  00013	5d		 pop	 ebp
  00014	c3		 ret	 0
?grpCulling@@YAPAU_object@@PAU1@0@Z ENDP		; grpCulling
_TEXT	ENDS
; Function compile flags: /Odspy
; File D:\Metin2 Server Files\mainline\SRC_2014\Metin2Client\eterPythonLib\PythonGraphicModule.cpp
;	COMDAT ?grpSetTextBarClipRect@@YAPAU_object@@PAU1@0@Z
_TEXT	SEGMENT
_iey$ = -44						; size = 4
_iex$ = -40						; size = 4
_isy$ = -36						; size = 4
_isx$ = -32						; size = 4
_iHandle$ = -28						; size = 4
_pTextBar$ = -24					; size = 4
_rect$1 = -20						; size = 16
__$ArrayPad$ = -4					; size = 4
_poSelf$ = 8						; size = 4
_poArgs$ = 12						; size = 4
?grpSetTextBarClipRect@@YAPAU_object@@PAU1@0@Z PROC	; grpSetTextBarClipRect, COMDAT

; 155  : {

  00000	55		 push	 ebp
  00001	8b ec		 mov	 ebp, esp
  00003	83 ec 2c	 sub	 esp, 44			; 0000002cH
  00006	a1 00 00 00 00	 mov	 eax, DWORD PTR ___security_cookie
  0000b	33 c5		 xor	 eax, ebp
  0000d	89 45 fc	 mov	 DWORD PTR __$ArrayPad$[ebp], eax

; 156  : 	int iHandle;
; 157  : 	if (!PyTuple_GetInteger(poArgs, 0, &iHandle))

  00010	8d 45 e4	 lea	 eax, DWORD PTR _iHandle$[ebp]
  00013	50		 push	 eax
  00014	6a 00		 push	 0
  00016	ff 75 0c	 push	 DWORD PTR _poArgs$[ebp]
  00019	e8 00 00 00 00	 call	 ?PyTuple_GetInteger@@YA_NPAU_object@@HPAH@Z ; PyTuple_GetInteger
  0001e	83 c4 0c	 add	 esp, 12			; 0000000cH
  00021	0f b6 c0	 movzx	 eax, al
  00024	85 c0		 test	 eax, eax
  00026	75 0d		 jne	 SHORT $LN2@grpSetText

; 158  : 		return Py_BuildException();

  00028	6a 00		 push	 0
  0002a	e8 00 00 00 00	 call	 ?Py_BuildException@@YAPAU_object@@PBDZZ ; Py_BuildException
  0002f	59		 pop	 ecx
  00030	e9 c0 00 00 00	 jmp	 $LN1@grpSetText
$LN2@grpSetText:

; 159  : 	int isx;
; 160  : 	if (!PyTuple_GetInteger(poArgs, 1, &isx))

  00035	8d 45 e0	 lea	 eax, DWORD PTR _isx$[ebp]
  00038	50		 push	 eax
  00039	6a 01		 push	 1
  0003b	ff 75 0c	 push	 DWORD PTR _poArgs$[ebp]
  0003e	e8 00 00 00 00	 call	 ?PyTuple_GetInteger@@YA_NPAU_object@@HPAH@Z ; PyTuple_GetInteger
  00043	83 c4 0c	 add	 esp, 12			; 0000000cH
  00046	0f b6 c0	 movzx	 eax, al
  00049	85 c0		 test	 eax, eax
  0004b	75 0d		 jne	 SHORT $LN3@grpSetText

; 161  : 		return Py_BuildException();

  0004d	6a 00		 push	 0
  0004f	e8 00 00 00 00	 call	 ?Py_BuildException@@YAPAU_object@@PBDZZ ; Py_BuildException
  00054	59		 pop	 ecx
  00055	e9 9b 00 00 00	 jmp	 $LN1@grpSetText
$LN3@grpSetText:

; 162  : 	int isy;
; 163  : 	if (!PyTuple_GetInteger(poArgs, 2, &isy))

  0005a	8d 45 dc	 lea	 eax, DWORD PTR _isy$[ebp]
  0005d	50		 push	 eax
  0005e	6a 02		 push	 2
  00060	ff 75 0c	 push	 DWORD PTR _poArgs$[ebp]
  00063	e8 00 00 00 00	 call	 ?PyTuple_GetInteger@@YA_NPAU_object@@HPAH@Z ; PyTuple_GetInteger
  00068	83 c4 0c	 add	 esp, 12			; 0000000cH
  0006b	0f b6 c0	 movzx	 eax, al
  0006e	85 c0		 test	 eax, eax
  00070	75 0a		 jne	 SHORT $LN4@grpSetText

; 164  : 		return Py_BuildException();

  00072	6a 00		 push	 0
  00074	e8 00 00 00 00	 call	 ?Py_BuildException@@YAPAU_object@@PBDZZ ; Py_BuildException
  00079	59		 pop	 ecx
  0007a	eb 79		 jmp	 SHORT $LN1@grpSetText
$LN4@grpSetText:

; 165  : 	int iex;
; 166  : 	if (!PyTuple_GetInteger(poArgs, 3, &iex))

  0007c	8d 45 d8	 lea	 eax, DWORD PTR _iex$[ebp]
  0007f	50		 push	 eax
  00080	6a 03		 push	 3
  00082	ff 75 0c	 push	 DWORD PTR _poArgs$[ebp]
  00085	e8 00 00 00 00	 call	 ?PyTuple_GetInteger@@YA_NPAU_object@@HPAH@Z ; PyTuple_GetInteger
  0008a	83 c4 0c	 add	 esp, 12			; 0000000cH
  0008d	0f b6 c0	 movzx	 eax, al
  00090	85 c0		 test	 eax, eax
  00092	75 0a		 jne	 SHORT $LN5@grpSetText

; 167  : 		return Py_BuildException();

  00094	6a 00		 push	 0
  00096	e8 00 00 00 00	 call	 ?Py_BuildException@@YAPAU_object@@PBDZZ ; Py_BuildException
  0009b	59		 pop	 ecx
  0009c	eb 57		 jmp	 SHORT $LN1@grpSetText
$LN5@grpSetText:

; 168  : 	int iey;
; 169  : 	if (!PyTuple_GetInteger(poArgs, 4, &iey))

  0009e	8d 45 d4	 lea	 eax, DWORD PTR _iey$[ebp]
  000a1	50		 push	 eax
  000a2	6a 04		 push	 4
  000a4	ff 75 0c	 push	 DWORD PTR _poArgs$[ebp]
  000a7	e8 00 00 00 00	 call	 ?PyTuple_GetInteger@@YA_NPAU_object@@HPAH@Z ; PyTuple_GetInteger
  000ac	83 c4 0c	 add	 esp, 12			; 0000000cH
  000af	0f b6 c0	 movzx	 eax, al
  000b2	85 c0		 test	 eax, eax
  000b4	75 0a		 jne	 SHORT $LN6@grpSetText

; 170  : 		return Py_BuildException();

  000b6	6a 00		 push	 0
  000b8	e8 00 00 00 00	 call	 ?Py_BuildException@@YAPAU_object@@PBDZZ ; Py_BuildException
  000bd	59		 pop	 ecx
  000be	eb 35		 jmp	 SHORT $LN1@grpSetText
$LN6@grpSetText:

; 171  : 
; 172  : 	CTextBar * pTextBar = (CTextBar *)iHandle;

  000c0	8b 45 e4	 mov	 eax, DWORD PTR _iHandle$[ebp]
  000c3	89 45 e8	 mov	 DWORD PTR _pTextBar$[ebp], eax

; 173  : 	if (pTextBar)

  000c6	83 7d e8 00	 cmp	 DWORD PTR _pTextBar$[ebp], 0
  000ca	74 24		 je	 SHORT $LN7@grpSetText

; 174  : 	{
; 175  : 		RECT rect;
; 176  : 		rect.left = isx;

  000cc	8b 45 e0	 mov	 eax, DWORD PTR _isx$[ebp]
  000cf	89 45 ec	 mov	 DWORD PTR _rect$1[ebp], eax

; 177  : 		rect.top = isy;

  000d2	8b 45 dc	 mov	 eax, DWORD PTR _isy$[ebp]
  000d5	89 45 f0	 mov	 DWORD PTR _rect$1[ebp+4], eax

; 178  : 		rect.right = iex;

  000d8	8b 45 d8	 mov	 eax, DWORD PTR _iex$[ebp]
  000db	89 45 f4	 mov	 DWORD PTR _rect$1[ebp+8], eax

; 179  : 		rect.bottom = iey;

  000de	8b 45 d4	 mov	 eax, DWORD PTR _iey$[ebp]
  000e1	89 45 f8	 mov	 DWORD PTR _rect$1[ebp+12], eax

; 180  : 
; 181  : 		pTextBar->SetClipRect(rect);

  000e4	8d 45 ec	 lea	 eax, DWORD PTR _rect$1[ebp]
  000e7	50		 push	 eax
  000e8	8b 4d e8	 mov	 ecx, DWORD PTR _pTextBar$[ebp]
  000eb	e8 00 00 00 00	 call	 ?SetClipRect@CDibBar@@QAEXABUtagRECT@@@Z ; CDibBar::SetClipRect
$LN7@grpSetText:

; 182  : 	}
; 183  : 
; 184  : 	return Py_BuildNone();

  000f0	e8 00 00 00 00	 call	 ?Py_BuildNone@@YAPAU_object@@XZ ; Py_BuildNone
$LN1@grpSetText:

; 185  : }

  000f5	8b 4d fc	 mov	 ecx, DWORD PTR __$ArrayPad$[ebp]
  000f8	33 cd		 xor	 ecx, ebp
  000fa	e8 00 00 00 00	 call	 @__security_check_cookie@4
  000ff	c9		 leave
  00100	c3		 ret	 0
?grpSetTextBarClipRect@@YAPAU_object@@PAU1@0@Z ENDP	; grpSetTextBarClipRect
_TEXT	ENDS
; Function compile flags: /Odspy
; File D:\Metin2 Server Files\mainline\SRC_2014\Metin2Client\eterPythonLib\PythonGraphicModule.cpp
;	COMDAT ?grpClearTextBar@@YAPAU_object@@PAU1@0@Z
_TEXT	SEGMENT
_iHandle$ = -8						; size = 4
_pTextBar$ = -4						; size = 4
_poSelf$ = 8						; size = 4
_poArgs$ = 12						; size = 4
?grpClearTextBar@@YAPAU_object@@PAU1@0@Z PROC		; grpClearTextBar, COMDAT

; 142  : {

  00000	55		 push	 ebp
  00001	8b ec		 mov	 ebp, esp
  00003	51		 push	 ecx
  00004	51		 push	 ecx

; 143  : 	int iHandle;
; 144  : 	if (!PyTuple_GetInteger(poArgs, 0, &iHandle))

  00005	8d 45 f8	 lea	 eax, DWORD PTR _iHandle$[ebp]
  00008	50		 push	 eax
  00009	6a 00		 push	 0
  0000b	ff 75 0c	 push	 DWORD PTR _poArgs$[ebp]
  0000e	e8 00 00 00 00	 call	 ?PyTuple_GetInteger@@YA_NPAU_object@@HPAH@Z ; PyTuple_GetInteger
  00013	83 c4 0c	 add	 esp, 12			; 0000000cH
  00016	0f b6 c0	 movzx	 eax, al
  00019	85 c0		 test	 eax, eax
  0001b	75 0a		 jne	 SHORT $LN2@grpClearTe

; 145  : 		return Py_BuildException();

  0001d	6a 00		 push	 0
  0001f	e8 00 00 00 00	 call	 ?Py_BuildException@@YAPAU_object@@PBDZZ ; Py_BuildException
  00024	59		 pop	 ecx
  00025	eb 19		 jmp	 SHORT $LN1@grpClearTe
$LN2@grpClearTe:

; 146  : 
; 147  : 	CTextBar * pTextBar = (CTextBar *)iHandle;

  00027	8b 45 f8	 mov	 eax, DWORD PTR _iHandle$[ebp]
  0002a	89 45 fc	 mov	 DWORD PTR _pTextBar$[ebp], eax

; 148  : 	if (pTextBar)

  0002d	83 7d fc 00	 cmp	 DWORD PTR _pTextBar$[ebp], 0
  00031	74 08		 je	 SHORT $LN3@grpClearTe

; 149  : 		pTextBar->ClearBar();

  00033	8b 4d fc	 mov	 ecx, DWORD PTR _pTextBar$[ebp]
  00036	e8 00 00 00 00	 call	 ?ClearBar@CDibBar@@QAEXXZ ; CDibBar::ClearBar
$LN3@grpClearTe:

; 150  : 
; 151  : 	return Py_BuildNone();

  0003b	e8 00 00 00 00	 call	 ?Py_BuildNone@@YAPAU_object@@XZ ; Py_BuildNone
$LN1@grpClearTe:

; 152  : }

  00040	c9		 leave
  00041	c3		 ret	 0
?grpClearTextBar@@YAPAU_object@@PAU1@0@Z ENDP		; grpClearTextBar
_TEXT	ENDS
; Function compile flags: /Odspy
; File D:\Metin2 Server Files\mainline\SRC_2014\Metin2Client\eterPythonLib\PythonGraphicModule.cpp
;	COMDAT ?grpTextBarTextOut@@YAPAU_object@@PAU1@0@Z
_TEXT	SEGMENT
_ix$ = -20						; size = 4
_iy$ = -16						; size = 4
_szText$ = -12						; size = 4
_iHandle$ = -8						; size = 4
_pTextBar$ = -4						; size = 4
_poSelf$ = 8						; size = 4
_poArgs$ = 12						; size = 4
?grpTextBarTextOut@@YAPAU_object@@PAU1@0@Z PROC		; grpTextBarTextOut, COMDAT

; 120  : {

  00000	55		 push	 ebp
  00001	8b ec		 mov	 ebp, esp
  00003	83 ec 14	 sub	 esp, 20			; 00000014H

; 121  : 	int iHandle;
; 122  : 	if (!PyTuple_GetInteger(poArgs, 0, &iHandle))

  00006	8d 45 f8	 lea	 eax, DWORD PTR _iHandle$[ebp]
  00009	50		 push	 eax
  0000a	6a 00		 push	 0
  0000c	ff 75 0c	 push	 DWORD PTR _poArgs$[ebp]
  0000f	e8 00 00 00 00	 call	 ?PyTuple_GetInteger@@YA_NPAU_object@@HPAH@Z ; PyTuple_GetInteger
  00014	83 c4 0c	 add	 esp, 12			; 0000000cH
  00017	0f b6 c0	 movzx	 eax, al
  0001a	85 c0		 test	 eax, eax
  0001c	75 0d		 jne	 SHORT $LN2@grpTextBar

; 123  : 		return Py_BuildException();

  0001e	6a 00		 push	 0
  00020	e8 00 00 00 00	 call	 ?Py_BuildException@@YAPAU_object@@PBDZZ ; Py_BuildException
  00025	59		 pop	 ecx
  00026	e9 88 00 00 00	 jmp	 $LN1@grpTextBar
$LN2@grpTextBar:

; 124  : 	int ix;
; 125  : 	if (!PyTuple_GetInteger(poArgs, 1, &ix))

  0002b	8d 45 ec	 lea	 eax, DWORD PTR _ix$[ebp]
  0002e	50		 push	 eax
  0002f	6a 01		 push	 1
  00031	ff 75 0c	 push	 DWORD PTR _poArgs$[ebp]
  00034	e8 00 00 00 00	 call	 ?PyTuple_GetInteger@@YA_NPAU_object@@HPAH@Z ; PyTuple_GetInteger
  00039	83 c4 0c	 add	 esp, 12			; 0000000cH
  0003c	0f b6 c0	 movzx	 eax, al
  0003f	85 c0		 test	 eax, eax
  00041	75 0a		 jne	 SHORT $LN3@grpTextBar

; 126  : 		return Py_BuildException();

  00043	6a 00		 push	 0
  00045	e8 00 00 00 00	 call	 ?Py_BuildException@@YAPAU_object@@PBDZZ ; Py_BuildException
  0004a	59		 pop	 ecx
  0004b	eb 66		 jmp	 SHORT $LN1@grpTextBar
$LN3@grpTextBar:

; 127  : 	int iy;
; 128  : 	if (!PyTuple_GetInteger(poArgs, 2, &iy))

  0004d	8d 45 f0	 lea	 eax, DWORD PTR _iy$[ebp]
  00050	50		 push	 eax
  00051	6a 02		 push	 2
  00053	ff 75 0c	 push	 DWORD PTR _poArgs$[ebp]
  00056	e8 00 00 00 00	 call	 ?PyTuple_GetInteger@@YA_NPAU_object@@HPAH@Z ; PyTuple_GetInteger
  0005b	83 c4 0c	 add	 esp, 12			; 0000000cH
  0005e	0f b6 c0	 movzx	 eax, al
  00061	85 c0		 test	 eax, eax
  00063	75 0a		 jne	 SHORT $LN4@grpTextBar

; 129  : 		return Py_BuildException();

  00065	6a 00		 push	 0
  00067	e8 00 00 00 00	 call	 ?Py_BuildException@@YAPAU_object@@PBDZZ ; Py_BuildException
  0006c	59		 pop	 ecx
  0006d	eb 44		 jmp	 SHORT $LN1@grpTextBar
$LN4@grpTextBar:

; 130  : 	char * szText;
; 131  : 	if (!PyTuple_GetString(poArgs, 3, &szText))

  0006f	8d 45 f4	 lea	 eax, DWORD PTR _szText$[ebp]
  00072	50		 push	 eax
  00073	6a 03		 push	 3
  00075	ff 75 0c	 push	 DWORD PTR _poArgs$[ebp]
  00078	e8 00 00 00 00	 call	 ?PyTuple_GetString@@YA_NPAU_object@@HPAPAD@Z ; PyTuple_GetString
  0007d	83 c4 0c	 add	 esp, 12			; 0000000cH
  00080	0f b6 c0	 movzx	 eax, al
  00083	85 c0		 test	 eax, eax
  00085	75 0a		 jne	 SHORT $LN5@grpTextBar

; 132  : 		return Py_BuildException();

  00087	6a 00		 push	 0
  00089	e8 00 00 00 00	 call	 ?Py_BuildException@@YAPAU_object@@PBDZZ ; Py_BuildException
  0008e	59		 pop	 ecx
  0008f	eb 22		 jmp	 SHORT $LN1@grpTextBar
$LN5@grpTextBar:

; 133  : 
; 134  : 	CTextBar * pTextBar = (CTextBar *)iHandle;

  00091	8b 45 f8	 mov	 eax, DWORD PTR _iHandle$[ebp]
  00094	89 45 fc	 mov	 DWORD PTR _pTextBar$[ebp], eax

; 135  : 	if (pTextBar)

  00097	83 7d fc 00	 cmp	 DWORD PTR _pTextBar$[ebp], 0
  0009b	74 11		 je	 SHORT $LN6@grpTextBar

; 136  : 		pTextBar->TextOut(ix, iy, szText);

  0009d	ff 75 f4	 push	 DWORD PTR _szText$[ebp]
  000a0	ff 75 f0	 push	 DWORD PTR _iy$[ebp]
  000a3	ff 75 ec	 push	 DWORD PTR _ix$[ebp]
  000a6	8b 4d fc	 mov	 ecx, DWORD PTR _pTextBar$[ebp]
  000a9	e8 00 00 00 00	 call	 ?TextOutA@CTextBar@@QAEXHHPBD@Z ; CTextBar::TextOutA
$LN6@grpTextBar:

; 137  : 
; 138  : 	return Py_BuildNone();

  000ae	e8 00 00 00 00	 call	 ?Py_BuildNone@@YAPAU_object@@XZ ; Py_BuildNone
$LN1@grpTextBar:

; 139  : }

  000b3	c9		 leave
  000b4	c3		 ret	 0
?grpTextBarTextOut@@YAPAU_object@@PAU1@0@Z ENDP		; grpTextBarTextOut
_TEXT	ENDS
; Function compile flags: /Odspy
; File D:\Metin2 Server Files\mainline\SRC_2014\Metin2Client\eterPythonLib\PythonGraphicModule.cpp
;	COMDAT ?grpTextBarGetTextExtent@@YAPAU_object@@PAU1@0@Z
_TEXT	SEGMENT
_size$ = -20						; size = 8
_szText$ = -12						; size = 4
_iHandle$ = -8						; size = 4
_pTextBar$ = -4						; size = 4
_poSelf$ = 8						; size = 4
_poArgs$ = 12						; size = 4
?grpTextBarGetTextExtent@@YAPAU_object@@PAU1@0@Z PROC	; grpTextBarGetTextExtent, COMDAT

; 103  : {

  00000	55		 push	 ebp
  00001	8b ec		 mov	 ebp, esp
  00003	83 ec 14	 sub	 esp, 20			; 00000014H

; 104  : 	int iHandle;
; 105  : 	if (!PyTuple_GetInteger(poArgs, 0, &iHandle))

  00006	8d 45 f8	 lea	 eax, DWORD PTR _iHandle$[ebp]
  00009	50		 push	 eax
  0000a	6a 00		 push	 0
  0000c	ff 75 0c	 push	 DWORD PTR _poArgs$[ebp]
  0000f	e8 00 00 00 00	 call	 ?PyTuple_GetInteger@@YA_NPAU_object@@HPAH@Z ; PyTuple_GetInteger
  00014	83 c4 0c	 add	 esp, 12			; 0000000cH
  00017	0f b6 c0	 movzx	 eax, al
  0001a	85 c0		 test	 eax, eax
  0001c	75 0a		 jne	 SHORT $LN2@grpTextBar

; 106  : 		return Py_BuildException();

  0001e	6a 00		 push	 0
  00020	e8 00 00 00 00	 call	 ?Py_BuildException@@YAPAU_object@@PBDZZ ; Py_BuildException
  00025	59		 pop	 ecx
  00026	eb 59		 jmp	 SHORT $LN1@grpTextBar
$LN2@grpTextBar:

; 107  : 	char * szText;
; 108  : 	if (!PyTuple_GetString(poArgs, 1, &szText))

  00028	8d 45 f4	 lea	 eax, DWORD PTR _szText$[ebp]
  0002b	50		 push	 eax
  0002c	6a 01		 push	 1
  0002e	ff 75 0c	 push	 DWORD PTR _poArgs$[ebp]
  00031	e8 00 00 00 00	 call	 ?PyTuple_GetString@@YA_NPAU_object@@HPAPAD@Z ; PyTuple_GetString
  00036	83 c4 0c	 add	 esp, 12			; 0000000cH
  00039	0f b6 c0	 movzx	 eax, al
  0003c	85 c0		 test	 eax, eax
  0003e	75 0a		 jne	 SHORT $LN3@grpTextBar

; 109  : 		return Py_BuildException();

  00040	6a 00		 push	 0
  00042	e8 00 00 00 00	 call	 ?Py_BuildException@@YAPAU_object@@PBDZZ ; Py_BuildException
  00047	59		 pop	 ecx
  00048	eb 37		 jmp	 SHORT $LN1@grpTextBar
$LN3@grpTextBar:

; 110  : 
; 111  : 	SIZE size = {0, 0};

  0004a	83 65 ec 00	 and	 DWORD PTR _size$[ebp], 0
  0004e	83 65 f0 00	 and	 DWORD PTR _size$[ebp+4], 0

; 112  : 	CTextBar * pTextBar = (CTextBar *)iHandle;

  00052	8b 45 f8	 mov	 eax, DWORD PTR _iHandle$[ebp]
  00055	89 45 fc	 mov	 DWORD PTR _pTextBar$[ebp], eax

; 113  : 	if (pTextBar)

  00058	83 7d fc 00	 cmp	 DWORD PTR _pTextBar$[ebp], 0
  0005c	74 0f		 je	 SHORT $LN4@grpTextBar

; 114  : 		pTextBar->GetTextExtent(szText, &size);

  0005e	8d 45 ec	 lea	 eax, DWORD PTR _size$[ebp]
  00061	50		 push	 eax
  00062	ff 75 f4	 push	 DWORD PTR _szText$[ebp]
  00065	8b 4d fc	 mov	 ecx, DWORD PTR _pTextBar$[ebp]
  00068	e8 00 00 00 00	 call	 ?GetTextExtent@CTextBar@@QAEXPBDPAUtagSIZE@@@Z ; CTextBar::GetTextExtent
$LN4@grpTextBar:

; 115  : 
; 116  : 	return Py_BuildValue("ii", size.cx, size.cy);

  0006d	ff 75 f0	 push	 DWORD PTR _size$[ebp+4]
  00070	ff 75 ec	 push	 DWORD PTR _size$[ebp]
  00073	68 00 00 00 00	 push	 OFFSET ??_C@_02PDIHAGKM@ii@
  00078	ff 15 00 00 00
	00		 call	 DWORD PTR __imp__Py_BuildValue
  0007e	83 c4 0c	 add	 esp, 12			; 0000000cH
$LN1@grpTextBar:

; 117  : }

  00081	c9		 leave
  00082	c3		 ret	 0
?grpTextBarGetTextExtent@@YAPAU_object@@PAU1@0@Z ENDP	; grpTextBarGetTextExtent
_TEXT	ENDS
; Function compile flags: /Odspy
; File D:\Metin2 Server Files\mainline\SRC_2014\Metin2Client\eterPythonLib\PythonGraphicModule.cpp
;	COMDAT ?grpTextBarSetTextColor@@YAPAU_object@@PAU1@0@Z
_TEXT	SEGMENT
_r$ = -20						; size = 4
_g$ = -16						; size = 4
_b$ = -12						; size = 4
_iHandle$ = -8						; size = 4
_pTextBar$ = -4						; size = 4
_poSelf$ = 8						; size = 4
_poArgs$ = 12						; size = 4
?grpTextBarSetTextColor@@YAPAU_object@@PAU1@0@Z PROC	; grpTextBarSetTextColor, COMDAT

; 81   : {

  00000	55		 push	 ebp
  00001	8b ec		 mov	 ebp, esp
  00003	83 ec 14	 sub	 esp, 20			; 00000014H

; 82   : 	int iHandle;
; 83   : 	if (!PyTuple_GetInteger(poArgs, 0, &iHandle))

  00006	8d 45 f8	 lea	 eax, DWORD PTR _iHandle$[ebp]
  00009	50		 push	 eax
  0000a	6a 00		 push	 0
  0000c	ff 75 0c	 push	 DWORD PTR _poArgs$[ebp]
  0000f	e8 00 00 00 00	 call	 ?PyTuple_GetInteger@@YA_NPAU_object@@HPAH@Z ; PyTuple_GetInteger
  00014	83 c4 0c	 add	 esp, 12			; 0000000cH
  00017	0f b6 c0	 movzx	 eax, al
  0001a	85 c0		 test	 eax, eax
  0001c	75 0d		 jne	 SHORT $LN2@grpTextBar

; 84   : 		return Py_BuildException();

  0001e	6a 00		 push	 0
  00020	e8 00 00 00 00	 call	 ?Py_BuildException@@YAPAU_object@@PBDZZ ; Py_BuildException
  00025	59		 pop	 ecx
  00026	e9 88 00 00 00	 jmp	 $LN1@grpTextBar
$LN2@grpTextBar:

; 85   : 	int r;
; 86   : 	if (!PyTuple_GetInteger(poArgs, 1, &r))

  0002b	8d 45 ec	 lea	 eax, DWORD PTR _r$[ebp]
  0002e	50		 push	 eax
  0002f	6a 01		 push	 1
  00031	ff 75 0c	 push	 DWORD PTR _poArgs$[ebp]
  00034	e8 00 00 00 00	 call	 ?PyTuple_GetInteger@@YA_NPAU_object@@HPAH@Z ; PyTuple_GetInteger
  00039	83 c4 0c	 add	 esp, 12			; 0000000cH
  0003c	0f b6 c0	 movzx	 eax, al
  0003f	85 c0		 test	 eax, eax
  00041	75 0a		 jne	 SHORT $LN3@grpTextBar

; 87   : 		return Py_BuildException();

  00043	6a 00		 push	 0
  00045	e8 00 00 00 00	 call	 ?Py_BuildException@@YAPAU_object@@PBDZZ ; Py_BuildException
  0004a	59		 pop	 ecx
  0004b	eb 66		 jmp	 SHORT $LN1@grpTextBar
$LN3@grpTextBar:

; 88   : 	int g;
; 89   : 	if (!PyTuple_GetInteger(poArgs, 2, &g))

  0004d	8d 45 f0	 lea	 eax, DWORD PTR _g$[ebp]
  00050	50		 push	 eax
  00051	6a 02		 push	 2
  00053	ff 75 0c	 push	 DWORD PTR _poArgs$[ebp]
  00056	e8 00 00 00 00	 call	 ?PyTuple_GetInteger@@YA_NPAU_object@@HPAH@Z ; PyTuple_GetInteger
  0005b	83 c4 0c	 add	 esp, 12			; 0000000cH
  0005e	0f b6 c0	 movzx	 eax, al
  00061	85 c0		 test	 eax, eax
  00063	75 0a		 jne	 SHORT $LN4@grpTextBar

; 90   : 		return Py_BuildException();

  00065	6a 00		 push	 0
  00067	e8 00 00 00 00	 call	 ?Py_BuildException@@YAPAU_object@@PBDZZ ; Py_BuildException
  0006c	59		 pop	 ecx
  0006d	eb 44		 jmp	 SHORT $LN1@grpTextBar
$LN4@grpTextBar:

; 91   : 	int b;
; 92   : 	if (!PyTuple_GetInteger(poArgs, 3, &b))

  0006f	8d 45 f4	 lea	 eax, DWORD PTR _b$[ebp]
  00072	50		 push	 eax
  00073	6a 03		 push	 3
  00075	ff 75 0c	 push	 DWORD PTR _poArgs$[ebp]
  00078	e8 00 00 00 00	 call	 ?PyTuple_GetInteger@@YA_NPAU_object@@HPAH@Z ; PyTuple_GetInteger
  0007d	83 c4 0c	 add	 esp, 12			; 0000000cH
  00080	0f b6 c0	 movzx	 eax, al
  00083	85 c0		 test	 eax, eax
  00085	75 0a		 jne	 SHORT $LN5@grpTextBar

; 93   : 		return Py_BuildException();

  00087	6a 00		 push	 0
  00089	e8 00 00 00 00	 call	 ?Py_BuildException@@YAPAU_object@@PBDZZ ; Py_BuildException
  0008e	59		 pop	 ecx
  0008f	eb 22		 jmp	 SHORT $LN1@grpTextBar
$LN5@grpTextBar:

; 94   : 	
; 95   : 	CTextBar * pTextBar = (CTextBar *)iHandle;

  00091	8b 45 f8	 mov	 eax, DWORD PTR _iHandle$[ebp]
  00094	89 45 fc	 mov	 DWORD PTR _pTextBar$[ebp], eax

; 96   : 	if (pTextBar)

  00097	83 7d fc 00	 cmp	 DWORD PTR _pTextBar$[ebp], 0
  0009b	74 11		 je	 SHORT $LN6@grpTextBar

; 97   : 		pTextBar->SetTextColor(r, g, b);

  0009d	ff 75 f4	 push	 DWORD PTR _b$[ebp]
  000a0	ff 75 f0	 push	 DWORD PTR _g$[ebp]
  000a3	ff 75 ec	 push	 DWORD PTR _r$[ebp]
  000a6	8b 4d fc	 mov	 ecx, DWORD PTR _pTextBar$[ebp]
  000a9	e8 00 00 00 00	 call	 ?SetTextColor@CTextBar@@QAEXHHH@Z ; CTextBar::SetTextColor
$LN6@grpTextBar:

; 98   : 
; 99   : 	return Py_BuildNone();

  000ae	e8 00 00 00 00	 call	 ?Py_BuildNone@@YAPAU_object@@XZ ; Py_BuildNone
$LN1@grpTextBar:

; 100  : }

  000b3	c9		 leave
  000b4	c3		 ret	 0
?grpTextBarSetTextColor@@YAPAU_object@@PAU1@0@Z ENDP	; grpTextBarSetTextColor
_TEXT	ENDS
; Function compile flags: /Odspy
; File D:\Metin2 Server Files\mainline\SRC_2014\Metin2Client\eterPythonLib\PythonGraphicModule.cpp
;	COMDAT ?grpRenderTextBar@@YAPAU_object@@PAU1@0@Z
_TEXT	SEGMENT
_ix$ = -16						; size = 4
_iy$ = -12						; size = 4
_iHandle$ = -8						; size = 4
_pTextBar$ = -4						; size = 4
_poSelf$ = 8						; size = 4
_poArgs$ = 12						; size = 4
?grpRenderTextBar@@YAPAU_object@@PAU1@0@Z PROC		; grpRenderTextBar, COMDAT

; 62   : {

  00000	55		 push	 ebp
  00001	8b ec		 mov	 ebp, esp
  00003	83 ec 10	 sub	 esp, 16			; 00000010H

; 63   : 	int iHandle;
; 64   : 	if (!PyTuple_GetInteger(poArgs, 0, &iHandle))

  00006	8d 45 f8	 lea	 eax, DWORD PTR _iHandle$[ebp]
  00009	50		 push	 eax
  0000a	6a 00		 push	 0
  0000c	ff 75 0c	 push	 DWORD PTR _poArgs$[ebp]
  0000f	e8 00 00 00 00	 call	 ?PyTuple_GetInteger@@YA_NPAU_object@@HPAH@Z ; PyTuple_GetInteger
  00014	83 c4 0c	 add	 esp, 12			; 0000000cH
  00017	0f b6 c0	 movzx	 eax, al
  0001a	85 c0		 test	 eax, eax
  0001c	75 0a		 jne	 SHORT $LN2@grpRenderT

; 65   : 		return Py_BuildException();

  0001e	6a 00		 push	 0
  00020	e8 00 00 00 00	 call	 ?Py_BuildException@@YAPAU_object@@PBDZZ ; Py_BuildException
  00025	59		 pop	 ecx
  00026	eb 63		 jmp	 SHORT $LN1@grpRenderT
$LN2@grpRenderT:

; 66   : 	int ix;
; 67   : 	if (!PyTuple_GetInteger(poArgs, 1, &ix))

  00028	8d 45 f0	 lea	 eax, DWORD PTR _ix$[ebp]
  0002b	50		 push	 eax
  0002c	6a 01		 push	 1
  0002e	ff 75 0c	 push	 DWORD PTR _poArgs$[ebp]
  00031	e8 00 00 00 00	 call	 ?PyTuple_GetInteger@@YA_NPAU_object@@HPAH@Z ; PyTuple_GetInteger
  00036	83 c4 0c	 add	 esp, 12			; 0000000cH
  00039	0f b6 c0	 movzx	 eax, al
  0003c	85 c0		 test	 eax, eax
  0003e	75 0a		 jne	 SHORT $LN3@grpRenderT

; 68   : 		return Py_BuildException();

  00040	6a 00		 push	 0
  00042	e8 00 00 00 00	 call	 ?Py_BuildException@@YAPAU_object@@PBDZZ ; Py_BuildException
  00047	59		 pop	 ecx
  00048	eb 41		 jmp	 SHORT $LN1@grpRenderT
$LN3@grpRenderT:

; 69   : 	int iy;
; 70   : 	if (!PyTuple_GetInteger(poArgs, 2, &iy))

  0004a	8d 45 f4	 lea	 eax, DWORD PTR _iy$[ebp]
  0004d	50		 push	 eax
  0004e	6a 02		 push	 2
  00050	ff 75 0c	 push	 DWORD PTR _poArgs$[ebp]
  00053	e8 00 00 00 00	 call	 ?PyTuple_GetInteger@@YA_NPAU_object@@HPAH@Z ; PyTuple_GetInteger
  00058	83 c4 0c	 add	 esp, 12			; 0000000cH
  0005b	0f b6 c0	 movzx	 eax, al
  0005e	85 c0		 test	 eax, eax
  00060	75 0a		 jne	 SHORT $LN4@grpRenderT

; 71   : 		return Py_BuildException();

  00062	6a 00		 push	 0
  00064	e8 00 00 00 00	 call	 ?Py_BuildException@@YAPAU_object@@PBDZZ ; Py_BuildException
  00069	59		 pop	 ecx
  0006a	eb 1f		 jmp	 SHORT $LN1@grpRenderT
$LN4@grpRenderT:

; 72   : 
; 73   : 	CTextBar * pTextBar = (CTextBar *)iHandle;

  0006c	8b 45 f8	 mov	 eax, DWORD PTR _iHandle$[ebp]
  0006f	89 45 fc	 mov	 DWORD PTR _pTextBar$[ebp], eax

; 74   : 	if (pTextBar)

  00072	83 7d fc 00	 cmp	 DWORD PTR _pTextBar$[ebp], 0
  00076	74 0e		 je	 SHORT $LN5@grpRenderT

; 75   : 		pTextBar->Render(ix, iy);

  00078	ff 75 f4	 push	 DWORD PTR _iy$[ebp]
  0007b	ff 75 f0	 push	 DWORD PTR _ix$[ebp]
  0007e	8b 4d fc	 mov	 ecx, DWORD PTR _pTextBar$[ebp]
  00081	e8 00 00 00 00	 call	 ?Render@CDibBar@@QAEXHH@Z ; CDibBar::Render
$LN5@grpRenderT:

; 76   : 
; 77   : 	return Py_BuildNone();

  00086	e8 00 00 00 00	 call	 ?Py_BuildNone@@YAPAU_object@@XZ ; Py_BuildNone
$LN1@grpRenderT:

; 78   : }

  0008b	c9		 leave
  0008c	c3		 ret	 0
?grpRenderTextBar@@YAPAU_object@@PAU1@0@Z ENDP		; grpRenderTextBar
_TEXT	ENDS
; Function compile flags: /Odspy
; File D:\Metin2 Server Files\mainline\SRC_2014\Metin2Client\eterPythonLib\PythonGraphicModule.cpp
;	COMDAT ?grpDestroyTextBar@@YAPAU_object@@PAU1@0@Z
_TEXT	SEGMENT
tv82 = -16						; size = 4
_pTextBar$ = -12					; size = 4
_iHandle$ = -8						; size = 4
$T1 = -4						; size = 4
_poSelf$ = 8						; size = 4
_poArgs$ = 12						; size = 4
?grpDestroyTextBar@@YAPAU_object@@PAU1@0@Z PROC		; grpDestroyTextBar, COMDAT

; 50   : {

  00000	55		 push	 ebp
  00001	8b ec		 mov	 ebp, esp
  00003	83 ec 10	 sub	 esp, 16			; 00000010H

; 51   : 	int iHandle;
; 52   : 	if (!PyTuple_GetInteger(poArgs, 0, &iHandle))

  00006	8d 45 f8	 lea	 eax, DWORD PTR _iHandle$[ebp]
  00009	50		 push	 eax
  0000a	6a 00		 push	 0
  0000c	ff 75 0c	 push	 DWORD PTR _poArgs$[ebp]
  0000f	e8 00 00 00 00	 call	 ?PyTuple_GetInteger@@YA_NPAU_object@@HPAH@Z ; PyTuple_GetInteger
  00014	83 c4 0c	 add	 esp, 12			; 0000000cH
  00017	0f b6 c0	 movzx	 eax, al
  0001a	85 c0		 test	 eax, eax
  0001c	75 0a		 jne	 SHORT $LN2@grpDestroy

; 53   : 		return Py_BuildException();

  0001e	6a 00		 push	 0
  00020	e8 00 00 00 00	 call	 ?Py_BuildException@@YAPAU_object@@PBDZZ ; Py_BuildException
  00025	59		 pop	 ecx
  00026	eb 2c		 jmp	 SHORT $LN1@grpDestroy
$LN2@grpDestroy:

; 54   : 
; 55   : 	CTextBar * pTextBar = (CTextBar *)iHandle;

  00028	8b 45 f8	 mov	 eax, DWORD PTR _iHandle$[ebp]
  0002b	89 45 f4	 mov	 DWORD PTR _pTextBar$[ebp], eax

; 56   : 	delete pTextBar;

  0002e	8b 45 f4	 mov	 eax, DWORD PTR _pTextBar$[ebp]
  00031	89 45 fc	 mov	 DWORD PTR $T1[ebp], eax
  00034	83 7d fc 00	 cmp	 DWORD PTR $T1[ebp], 0
  00038	74 11		 je	 SHORT $LN4@grpDestroy
  0003a	6a 01		 push	 1
  0003c	8b 45 fc	 mov	 eax, DWORD PTR $T1[ebp]
  0003f	8b 00		 mov	 eax, DWORD PTR [eax]
  00041	8b 4d fc	 mov	 ecx, DWORD PTR $T1[ebp]
  00044	ff 10		 call	 DWORD PTR [eax]
  00046	89 45 f0	 mov	 DWORD PTR tv82[ebp], eax
  00049	eb 04		 jmp	 SHORT $LN5@grpDestroy
$LN4@grpDestroy:
  0004b	83 65 f0 00	 and	 DWORD PTR tv82[ebp], 0
$LN5@grpDestroy:

; 57   : 
; 58   : 	return Py_BuildNone();

  0004f	e8 00 00 00 00	 call	 ?Py_BuildNone@@YAPAU_object@@XZ ; Py_BuildNone
$LN1@grpDestroy:

; 59   : }

  00054	c9		 leave
  00055	c3		 ret	 0
?grpDestroyTextBar@@YAPAU_object@@PAU1@0@Z ENDP		; grpDestroyTextBar
_TEXT	ENDS
; Function compile flags: /Odspy
; File D:\Metin2 Server Files\mainline\SRC_2014\Metin2Client\eterPythonLib\PythonGraphicModule.cpp
;	COMDAT ?grpCreateBigTextBar@@YAPAU_object@@PAU1@0@Z
_TEXT	SEGMENT
tv154 = -48						; size = 4
_iWidth$ = -44						; size = 4
_iHeight$ = -40						; size = 4
$T2 = -36						; size = 4
_iFontSize$ = -32					; size = 4
tv133 = -28						; size = 4
$T3 = -24						; size = 4
_pTextBar$ = -20					; size = 4
$T4 = -16						; size = 4
__$EHRec$ = -12						; size = 12
_poSelf$ = 8						; size = 4
_poArgs$ = 12						; size = 4
?grpCreateBigTextBar@@YAPAU_object@@PAU1@0@Z PROC	; grpCreateBigTextBar, COMDAT

; 27   : {

  00000	55		 push	 ebp
  00001	8b ec		 mov	 ebp, esp
  00003	6a ff		 push	 -1
  00005	68 00 00 00 00	 push	 __ehhandler$?grpCreateBigTextBar@@YAPAU_object@@PAU1@0@Z
  0000a	64 a1 00 00 00
	00		 mov	 eax, DWORD PTR fs:0
  00010	50		 push	 eax
  00011	83 ec 24	 sub	 esp, 36			; 00000024H
  00014	a1 00 00 00 00	 mov	 eax, DWORD PTR ___security_cookie
  00019	33 c5		 xor	 eax, ebp
  0001b	50		 push	 eax
  0001c	8d 45 f4	 lea	 eax, DWORD PTR __$EHRec$[ebp]
  0001f	64 a3 00 00 00
	00		 mov	 DWORD PTR fs:0, eax

; 28   : 	int iWidth;
; 29   : 	if (!PyTuple_GetInteger(poArgs, 0, &iWidth))

  00025	8d 45 d4	 lea	 eax, DWORD PTR _iWidth$[ebp]
  00028	50		 push	 eax
  00029	6a 00		 push	 0
  0002b	ff 75 0c	 push	 DWORD PTR _poArgs$[ebp]
  0002e	e8 00 00 00 00	 call	 ?PyTuple_GetInteger@@YA_NPAU_object@@HPAH@Z ; PyTuple_GetInteger
  00033	83 c4 0c	 add	 esp, 12			; 0000000cH
  00036	0f b6 c0	 movzx	 eax, al
  00039	85 c0		 test	 eax, eax
  0003b	75 0d		 jne	 SHORT $LN2@grpCreateB

; 30   : 		return Py_BuildException();

  0003d	6a 00		 push	 0
  0003f	e8 00 00 00 00	 call	 ?Py_BuildException@@YAPAU_object@@PBDZZ ; Py_BuildException
  00044	59		 pop	 ecx
  00045	e9 de 00 00 00	 jmp	 $LN1@grpCreateB
$LN2@grpCreateB:

; 31   : 	int iHeight;
; 32   : 	if (!PyTuple_GetInteger(poArgs, 1, &iHeight))

  0004a	8d 45 d8	 lea	 eax, DWORD PTR _iHeight$[ebp]
  0004d	50		 push	 eax
  0004e	6a 01		 push	 1
  00050	ff 75 0c	 push	 DWORD PTR _poArgs$[ebp]
  00053	e8 00 00 00 00	 call	 ?PyTuple_GetInteger@@YA_NPAU_object@@HPAH@Z ; PyTuple_GetInteger
  00058	83 c4 0c	 add	 esp, 12			; 0000000cH
  0005b	0f b6 c0	 movzx	 eax, al
  0005e	85 c0		 test	 eax, eax
  00060	75 0d		 jne	 SHORT $LN3@grpCreateB

; 33   : 		return Py_BuildException();

  00062	6a 00		 push	 0
  00064	e8 00 00 00 00	 call	 ?Py_BuildException@@YAPAU_object@@PBDZZ ; Py_BuildException
  00069	59		 pop	 ecx
  0006a	e9 b9 00 00 00	 jmp	 $LN1@grpCreateB
$LN3@grpCreateB:

; 34   : 
; 35   : 	int iFontSize;
; 36   : 	if (!PyTuple_GetInteger(poArgs, 2, &iFontSize))

  0006f	8d 45 e0	 lea	 eax, DWORD PTR _iFontSize$[ebp]
  00072	50		 push	 eax
  00073	6a 02		 push	 2
  00075	ff 75 0c	 push	 DWORD PTR _poArgs$[ebp]
  00078	e8 00 00 00 00	 call	 ?PyTuple_GetInteger@@YA_NPAU_object@@HPAH@Z ; PyTuple_GetInteger
  0007d	83 c4 0c	 add	 esp, 12			; 0000000cH
  00080	0f b6 c0	 movzx	 eax, al
  00083	85 c0		 test	 eax, eax
  00085	75 0d		 jne	 SHORT $LN4@grpCreateB

; 37   : 		return Py_BuildException();

  00087	6a 00		 push	 0
  00089	e8 00 00 00 00	 call	 ?Py_BuildException@@YAPAU_object@@PBDZZ ; Py_BuildException
  0008e	59		 pop	 ecx
  0008f	e9 94 00 00 00	 jmp	 $LN1@grpCreateB
$LN4@grpCreateB:

; 38   : 
; 39   : 	CTextBar * pTextBar = new CTextBar(iFontSize, true);

  00094	6a 6c		 push	 108			; 0000006cH
  00096	e8 00 00 00 00	 call	 ??2@YAPAXI@Z		; operator new
  0009b	59		 pop	 ecx
  0009c	89 45 e8	 mov	 DWORD PTR $T3[ebp], eax
  0009f	83 65 fc 00	 and	 DWORD PTR __$EHRec$[ebp+8], 0
  000a3	83 7d e8 00	 cmp	 DWORD PTR $T3[ebp], 0
  000a7	74 12		 je	 SHORT $LN7@grpCreateB
  000a9	6a 01		 push	 1
  000ab	ff 75 e0	 push	 DWORD PTR _iFontSize$[ebp]
  000ae	8b 4d e8	 mov	 ecx, DWORD PTR $T3[ebp]
  000b1	e8 00 00 00 00	 call	 ??0CTextBar@@QAE@H_N@Z	; CTextBar::CTextBar
  000b6	89 45 e4	 mov	 DWORD PTR tv133[ebp], eax
  000b9	eb 04		 jmp	 SHORT $LN8@grpCreateB
$LN7@grpCreateB:
  000bb	83 65 e4 00	 and	 DWORD PTR tv133[ebp], 0
$LN8@grpCreateB:
  000bf	8b 45 e4	 mov	 eax, DWORD PTR tv133[ebp]
  000c2	89 45 dc	 mov	 DWORD PTR $T2[ebp], eax
  000c5	83 4d fc ff	 or	 DWORD PTR __$EHRec$[ebp+8], -1
  000c9	8b 45 dc	 mov	 eax, DWORD PTR $T2[ebp]
  000cc	89 45 ec	 mov	 DWORD PTR _pTextBar$[ebp], eax

; 40   : 	if (!pTextBar->Create(NULL, iWidth, iHeight))

  000cf	ff 75 d8	 push	 DWORD PTR _iHeight$[ebp]
  000d2	ff 75 d4	 push	 DWORD PTR _iWidth$[ebp]
  000d5	6a 00		 push	 0
  000d7	8b 4d ec	 mov	 ecx, DWORD PTR _pTextBar$[ebp]
  000da	e8 00 00 00 00	 call	 ?Create@CDibBar@@QAE_NPAUHDC__@@KK@Z ; CDibBar::Create
  000df	0f b6 c0	 movzx	 eax, al
  000e2	85 c0		 test	 eax, eax
  000e4	75 32		 jne	 SHORT $LN5@grpCreateB

; 41   : 	{
; 42   : 		delete pTextBar;

  000e6	8b 45 ec	 mov	 eax, DWORD PTR _pTextBar$[ebp]
  000e9	89 45 f0	 mov	 DWORD PTR $T4[ebp], eax
  000ec	83 7d f0 00	 cmp	 DWORD PTR $T4[ebp], 0
  000f0	74 11		 je	 SHORT $LN9@grpCreateB
  000f2	6a 01		 push	 1
  000f4	8b 45 f0	 mov	 eax, DWORD PTR $T4[ebp]
  000f7	8b 00		 mov	 eax, DWORD PTR [eax]
  000f9	8b 4d f0	 mov	 ecx, DWORD PTR $T4[ebp]
  000fc	ff 10		 call	 DWORD PTR [eax]
  000fe	89 45 d0	 mov	 DWORD PTR tv154[ebp], eax
  00101	eb 04		 jmp	 SHORT $LN10@grpCreateB
$LN9@grpCreateB:
  00103	83 65 d0 00	 and	 DWORD PTR tv154[ebp], 0
$LN10@grpCreateB:

; 43   : 		return Py_BuildValue("i", NULL);

  00107	6a 00		 push	 0
  00109	68 00 00 00 00	 push	 OFFSET ??_C@_01KBJDNOO@i@
  0010e	ff 15 00 00 00
	00		 call	 DWORD PTR __imp__Py_BuildValue
  00114	59		 pop	 ecx
  00115	59		 pop	 ecx
  00116	eb 10		 jmp	 SHORT $LN1@grpCreateB
$LN5@grpCreateB:

; 44   : 	}
; 45   : 
; 46   : 	return Py_BuildValue("i", pTextBar);

  00118	ff 75 ec	 push	 DWORD PTR _pTextBar$[ebp]
  0011b	68 00 00 00 00	 push	 OFFSET ??_C@_01KBJDNOO@i@
  00120	ff 15 00 00 00
	00		 call	 DWORD PTR __imp__Py_BuildValue
  00126	59		 pop	 ecx
  00127	59		 pop	 ecx
$LN1@grpCreateB:

; 47   : }

  00128	8b 4d f4	 mov	 ecx, DWORD PTR __$EHRec$[ebp]
  0012b	64 89 0d 00 00
	00 00		 mov	 DWORD PTR fs:0, ecx
  00132	59		 pop	 ecx
  00133	c9		 leave
  00134	c3		 ret	 0
_TEXT	ENDS
;	COMDAT text$x
text$x	SEGMENT
__unwindfunclet$?grpCreateBigTextBar@@YAPAU_object@@PAU1@0@Z$0:
  00000	6a 6c		 push	 108			; 0000006cH
  00002	ff 75 e8	 push	 DWORD PTR $T3[ebp]
  00005	e8 00 00 00 00	 call	 ??3@YAXPAXI@Z		; operator delete
  0000a	59		 pop	 ecx
  0000b	59		 pop	 ecx
  0000c	c3		 ret	 0
  0000d	cc		 int	 3
  0000e	cc		 int	 3
  0000f	cc		 int	 3
  00010	cc		 int	 3
  00011	cc		 int	 3
__ehhandler$?grpCreateBigTextBar@@YAPAU_object@@PAU1@0@Z:
  00012	90		 npad	 1
  00013	90		 npad	 1
  00014	8b 54 24 08	 mov	 edx, DWORD PTR [esp+8]
  00018	8d 42 0c	 lea	 eax, DWORD PTR [edx+12]
  0001b	8b 4a d8	 mov	 ecx, DWORD PTR [edx-40]
  0001e	33 c8		 xor	 ecx, eax
  00020	e8 00 00 00 00	 call	 @__security_check_cookie@4
  00025	b8 00 00 00 00	 mov	 eax, OFFSET __ehfuncinfo$?grpCreateBigTextBar@@YAPAU_object@@PAU1@0@Z
  0002a	e9 00 00 00 00	 jmp	 ___CxxFrameHandler3
text$x	ENDS
?grpCreateBigTextBar@@YAPAU_object@@PAU1@0@Z ENDP	; grpCreateBigTextBar
; Function compile flags: /Odspy
; File D:\Metin2 Server Files\mainline\SRC_2014\Metin2Client\eterPythonLib\PythonGraphicModule.cpp
;	COMDAT ?grpCreateTextBar@@YAPAU_object@@PAU1@0@Z
_TEXT	SEGMENT
tv146 = -44						; size = 4
_iWidth$ = -40						; size = 4
_iHeight$ = -36						; size = 4
$T2 = -32						; size = 4
tv93 = -28						; size = 4
$T3 = -24						; size = 4
_pTextBar$ = -20					; size = 4
$T4 = -16						; size = 4
__$EHRec$ = -12						; size = 12
_poSelf$ = 8						; size = 4
_poArgs$ = 12						; size = 4
?grpCreateTextBar@@YAPAU_object@@PAU1@0@Z PROC		; grpCreateTextBar, COMDAT

; 8    : {

  00000	55		 push	 ebp
  00001	8b ec		 mov	 ebp, esp
  00003	6a ff		 push	 -1
  00005	68 00 00 00 00	 push	 __ehhandler$?grpCreateTextBar@@YAPAU_object@@PAU1@0@Z
  0000a	64 a1 00 00 00
	00		 mov	 eax, DWORD PTR fs:0
  00010	50		 push	 eax
  00011	83 ec 20	 sub	 esp, 32			; 00000020H
  00014	a1 00 00 00 00	 mov	 eax, DWORD PTR ___security_cookie
  00019	33 c5		 xor	 eax, ebp
  0001b	50		 push	 eax
  0001c	8d 45 f4	 lea	 eax, DWORD PTR __$EHRec$[ebp]
  0001f	64 a3 00 00 00
	00		 mov	 DWORD PTR fs:0, eax

; 9    : 	int iWidth;
; 10   : 	if (!PyTuple_GetInteger(poArgs, 0, &iWidth))

  00025	8d 45 d8	 lea	 eax, DWORD PTR _iWidth$[ebp]
  00028	50		 push	 eax
  00029	6a 00		 push	 0
  0002b	ff 75 0c	 push	 DWORD PTR _poArgs$[ebp]
  0002e	e8 00 00 00 00	 call	 ?PyTuple_GetInteger@@YA_NPAU_object@@HPAH@Z ; PyTuple_GetInteger
  00033	83 c4 0c	 add	 esp, 12			; 0000000cH
  00036	0f b6 c0	 movzx	 eax, al
  00039	85 c0		 test	 eax, eax
  0003b	75 0d		 jne	 SHORT $LN2@grpCreateT

; 11   : 		return Py_BuildException();

  0003d	6a 00		 push	 0
  0003f	e8 00 00 00 00	 call	 ?Py_BuildException@@YAPAU_object@@PBDZZ ; Py_BuildException
  00044	59		 pop	 ecx
  00045	e9 b8 00 00 00	 jmp	 $LN1@grpCreateT
$LN2@grpCreateT:

; 12   : 	int iHeight;
; 13   : 	if (!PyTuple_GetInteger(poArgs, 1, &iHeight))

  0004a	8d 45 dc	 lea	 eax, DWORD PTR _iHeight$[ebp]
  0004d	50		 push	 eax
  0004e	6a 01		 push	 1
  00050	ff 75 0c	 push	 DWORD PTR _poArgs$[ebp]
  00053	e8 00 00 00 00	 call	 ?PyTuple_GetInteger@@YA_NPAU_object@@HPAH@Z ; PyTuple_GetInteger
  00058	83 c4 0c	 add	 esp, 12			; 0000000cH
  0005b	0f b6 c0	 movzx	 eax, al
  0005e	85 c0		 test	 eax, eax
  00060	75 0d		 jne	 SHORT $LN3@grpCreateT

; 14   : 		return Py_BuildException();

  00062	6a 00		 push	 0
  00064	e8 00 00 00 00	 call	 ?Py_BuildException@@YAPAU_object@@PBDZZ ; Py_BuildException
  00069	59		 pop	 ecx
  0006a	e9 93 00 00 00	 jmp	 $LN1@grpCreateT
$LN3@grpCreateT:

; 15   : 
; 16   : 	CTextBar * pTextBar = new CTextBar(12, false);

  0006f	6a 6c		 push	 108			; 0000006cH
  00071	e8 00 00 00 00	 call	 ??2@YAPAXI@Z		; operator new
  00076	59		 pop	 ecx
  00077	89 45 e8	 mov	 DWORD PTR $T3[ebp], eax
  0007a	83 65 fc 00	 and	 DWORD PTR __$EHRec$[ebp+8], 0
  0007e	83 7d e8 00	 cmp	 DWORD PTR $T3[ebp], 0
  00082	74 11		 je	 SHORT $LN6@grpCreateT
  00084	6a 00		 push	 0
  00086	6a 0c		 push	 12			; 0000000cH
  00088	8b 4d e8	 mov	 ecx, DWORD PTR $T3[ebp]
  0008b	e8 00 00 00 00	 call	 ??0CTextBar@@QAE@H_N@Z	; CTextBar::CTextBar
  00090	89 45 e4	 mov	 DWORD PTR tv93[ebp], eax
  00093	eb 04		 jmp	 SHORT $LN7@grpCreateT
$LN6@grpCreateT:
  00095	83 65 e4 00	 and	 DWORD PTR tv93[ebp], 0
$LN7@grpCreateT:
  00099	8b 45 e4	 mov	 eax, DWORD PTR tv93[ebp]
  0009c	89 45 e0	 mov	 DWORD PTR $T2[ebp], eax
  0009f	83 4d fc ff	 or	 DWORD PTR __$EHRec$[ebp+8], -1
  000a3	8b 45 e0	 mov	 eax, DWORD PTR $T2[ebp]
  000a6	89 45 ec	 mov	 DWORD PTR _pTextBar$[ebp], eax

; 17   : 	if (!pTextBar->Create(NULL, iWidth, iHeight))

  000a9	ff 75 dc	 push	 DWORD PTR _iHeight$[ebp]
  000ac	ff 75 d8	 push	 DWORD PTR _iWidth$[ebp]
  000af	6a 00		 push	 0
  000b1	8b 4d ec	 mov	 ecx, DWORD PTR _pTextBar$[ebp]
  000b4	e8 00 00 00 00	 call	 ?Create@CDibBar@@QAE_NPAUHDC__@@KK@Z ; CDibBar::Create
  000b9	0f b6 c0	 movzx	 eax, al
  000bc	85 c0		 test	 eax, eax
  000be	75 32		 jne	 SHORT $LN4@grpCreateT

; 18   : 	{
; 19   : 		delete pTextBar;

  000c0	8b 45 ec	 mov	 eax, DWORD PTR _pTextBar$[ebp]
  000c3	89 45 f0	 mov	 DWORD PTR $T4[ebp], eax
  000c6	83 7d f0 00	 cmp	 DWORD PTR $T4[ebp], 0
  000ca	74 11		 je	 SHORT $LN8@grpCreateT
  000cc	6a 01		 push	 1
  000ce	8b 45 f0	 mov	 eax, DWORD PTR $T4[ebp]
  000d1	8b 00		 mov	 eax, DWORD PTR [eax]
  000d3	8b 4d f0	 mov	 ecx, DWORD PTR $T4[ebp]
  000d6	ff 10		 call	 DWORD PTR [eax]
  000d8	89 45 d4	 mov	 DWORD PTR tv146[ebp], eax
  000db	eb 04		 jmp	 SHORT $LN9@grpCreateT
$LN8@grpCreateT:
  000dd	83 65 d4 00	 and	 DWORD PTR tv146[ebp], 0
$LN9@grpCreateT:

; 20   : 		return Py_BuildValue("i", NULL);

  000e1	6a 00		 push	 0
  000e3	68 00 00 00 00	 push	 OFFSET ??_C@_01KBJDNOO@i@
  000e8	ff 15 00 00 00
	00		 call	 DWORD PTR __imp__Py_BuildValue
  000ee	59		 pop	 ecx
  000ef	59		 pop	 ecx
  000f0	eb 10		 jmp	 SHORT $LN1@grpCreateT
$LN4@grpCreateT:

; 21   : 	}
; 22   : 
; 23   : 	return Py_BuildValue("i", pTextBar);

  000f2	ff 75 ec	 push	 DWORD PTR _pTextBar$[ebp]
  000f5	68 00 00 00 00	 push	 OFFSET ??_C@_01KBJDNOO@i@
  000fa	ff 15 00 00 00
	00		 call	 DWORD PTR __imp__Py_BuildValue
  00100	59		 pop	 ecx
  00101	59		 pop	 ecx
$LN1@grpCreateT:

; 24   : }

  00102	8b 4d f4	 mov	 ecx, DWORD PTR __$EHRec$[ebp]
  00105	64 89 0d 00 00
	00 00		 mov	 DWORD PTR fs:0, ecx
  0010c	59		 pop	 ecx
  0010d	c9		 leave
  0010e	c3		 ret	 0
_TEXT	ENDS
;	COMDAT text$x
text$x	SEGMENT
__unwindfunclet$?grpCreateTextBar@@YAPAU_object@@PAU1@0@Z$0:
  00000	6a 6c		 push	 108			; 0000006cH
  00002	ff 75 e8	 push	 DWORD PTR $T3[ebp]
  00005	e8 00 00 00 00	 call	 ??3@YAXPAXI@Z		; operator delete
  0000a	59		 pop	 ecx
  0000b	59		 pop	 ecx
  0000c	c3		 ret	 0
  0000d	cc		 int	 3
  0000e	cc		 int	 3
  0000f	cc		 int	 3
  00010	cc		 int	 3
  00011	cc		 int	 3
__ehhandler$?grpCreateTextBar@@YAPAU_object@@PAU1@0@Z:
  00012	90		 npad	 1
  00013	90		 npad	 1
  00014	8b 54 24 08	 mov	 edx, DWORD PTR [esp+8]
  00018	8d 42 0c	 lea	 eax, DWORD PTR [edx+12]
  0001b	8b 4a dc	 mov	 ecx, DWORD PTR [edx-36]
  0001e	33 c8		 xor	 ecx, eax
  00020	e8 00 00 00 00	 call	 @__security_check_cookie@4
  00025	b8 00 00 00 00	 mov	 eax, OFFSET __ehfuncinfo$?grpCreateTextBar@@YAPAU_object@@PAU1@0@Z
  0002a	e9 00 00 00 00	 jmp	 ___CxxFrameHandler3
text$x	ENDS
?grpCreateTextBar@@YAPAU_object@@PAU1@0@Z ENDP		; grpCreateTextBar
; Function compile flags: /Odspy
; File D:\Metin2 Server Files\mainline\SRC_2014\Metin2Client\eterPythonLib\PythonGraphicModule.cpp
;	COMDAT ?initgrp@@YAXXZ
_TEXT	SEGMENT
?initgrp@@YAXXZ PROC					; initgrp, COMDAT

; 942  : {

  00000	55		 push	 ebp
  00001	8b ec		 mov	 ebp, esp

; 943  : 	static PyMethodDef s_methods[] =
; 944  : 	{
; 945  : 		{ "InitScreenEffect",			grpInitScreenEffect,			METH_VARARGS },
; 946  : 		{ "Culling",					grpCulling,						METH_VARARGS },
; 947  : 		{ "ClearDepthBuffer",			grpClearDepthBuffer,			METH_VARARGS },
; 948  : 		{ "Identity",					grpIdentity,					METH_VARARGS },
; 949  : 		{ "GenerateColor",				grpGenerateColor,				METH_VARARGS },
; 950  : 		{ "PopState",					grpPopState,					METH_VARARGS },
; 951  : 		{ "PushState",					grpPushState,					METH_VARARGS },
; 952  : 		{ "PushMatrix",					grpPushMatrix,					METH_VARARGS },
; 953  : 		{ "PopMatrix",					grpPopMatrix,					METH_VARARGS },
; 954  : 		{ "Translate",					grpTranslate,					METH_VARARGS },
; 955  : 		{ "Rotate",						grpRotate,						METH_VARARGS },
; 956  : 		{ "SetColorRenderState",		grpSetColorRenderState,			METH_VARARGS },
; 957  : 		{ "SetAroundCamera",			grpSetAroundCamera,				METH_VARARGS },
; 958  : 		{ "SetPositionCamera",			grpSetPositionCamera,			METH_VARARGS },
; 959  : 		{ "SetEyeCamera",				grpSetEyeCamera,				METH_VARARGS },
; 960  : 		{ "SetPerspective",				grpSetPerspective,				METH_VARARGS },
; 961  : 		{ "SetOrtho2d",					grpSetOrtho2D,					METH_VARARGS },
; 962  : 		{ "SetOrtho3d",					grpSetOrtho3D,					METH_VARARGS },
; 963  : 		{ "SetColor",					grpSetColor,					METH_VARARGS },
; 964  : 		{ "SetAlpha",					grpSetAlpha,					METH_VARARGS },
; 965  : 		{ "SetDiffuseColor",			grpSetDiffuseColor,				METH_VARARGS },
; 966  : 		{ "SetClearColor",				grpSetClearColor,				METH_VARARGS },
; 967  : 		{ "GetCursorPosition3d",		grpGetCursorPosition3d,			METH_VARARGS },
; 968  : 		{ "SetCursorPosition",			grpSetCursorPosition,			METH_VARARGS },
; 969  : 		{ "RenderLine",					grpRenderLine,					METH_VARARGS },
; 970  : 		{ "RenderBox",					grpRenderBox,					METH_VARARGS },
; 971  : 		{ "RenderRoundBox",				grpRenderRoundBox,				METH_VARARGS },
; 972  : 		{ "RenderBox3d",				grpRenderBox3d,					METH_VARARGS },
; 973  : 		{ "RenderBar",					grpRenderBar,					METH_VARARGS },
; 974  : 		{ "RenderBar3d",				grpRenderBar3d,					METH_VARARGS },
; 975  : 		{ "RenderGradationBar",			grpRenderGradationBar,			METH_VARARGS },
; 976  : 		{ "RenderCube",					grpRenderCube,					METH_VARARGS },
; 977  : 		{ "RenderDownButton",			grpRenderDownButton,			METH_VARARGS },
; 978  : 		{ "RenderUpButton",				grpRenderUpButton,				METH_VARARGS },
; 979  : 		{ "GetAvailableMemory",			grpGetAvailableMemory,			METH_VARARGS },
; 980  : 		{ "SaveScreenShot",				grpSaveScreenShot,				METH_VARARGS },
; 981  : 		{ "SaveScreenShotToPath",		grpSaveScreenShotToPath,		METH_VARARGS },
; 982  : 		{ "SetGamma",					grpSetGamma,					METH_VARARGS },
; 983  : 		{ "SetInterfaceRenderState",	grpSetInterfaceRenderState,		METH_VARARGS },
; 984  : 		{ "SetGameRenderState",			grpSetGameRenderState,			METH_VARARGS },
; 985  : 		{ "SetViewport",				grpSetViewport,					METH_VARARGS },
; 986  : 		{ "RestoreViewport",			grpRestoreViewport,				METH_VARARGS },
; 987  : 		{ "SetOmniLight",				grpSetOmniLight,				METH_VARARGS },
; 988  : 		{ "GetCameraPosition",			grpGetCameraPosition,			METH_VARARGS },
; 989  : 		{ "GetTargetPosition",			grpGetTargetPosition,			METH_VARARGS },
; 990  : 
; 991  : 		{ "CreateTextBar",				grpCreateTextBar,				METH_VARARGS },
; 992  : 		{ "CreateBigTextBar",			grpCreateBigTextBar,			METH_VARARGS },
; 993  : 		{ "DestroyTextBar",				grpDestroyTextBar,				METH_VARARGS },
; 994  : 		{ "RenderTextBar",				grpRenderTextBar,				METH_VARARGS },
; 995  : 		{ "TextBarTextOut",				grpTextBarTextOut,				METH_VARARGS },
; 996  : 		{ "TextBarSetTextColor",		grpTextBarSetTextColor,			METH_VARARGS },
; 997  : 		{ "TextBarGetTextExtent",		grpTextBarGetTextExtent,		METH_VARARGS },
; 998  : 		{ "ClearTextBar",				grpClearTextBar,				METH_VARARGS },
; 999  : 		{ "SetTextBarClipRect",			grpSetTextBarClipRect,			METH_VARARGS },
; 1000 : 
; 1001 : 		{ NULL,							NULL,							NULL		},
; 1002 : 	};
; 1003 : 
; 1004 : 	Py_InitModule("grp", s_methods);

  00003	68 f5 03 00 00	 push	 1013			; 000003f5H
  00008	6a 00		 push	 0
  0000a	6a 00		 push	 0
  0000c	68 00 00 00 00	 push	 OFFSET ?s_methods@?1??initgrp@@YAXXZ@4PAUPyMethodDef@@A
  00011	68 00 00 00 00	 push	 OFFSET ??_C@_03CKJB@grp@
  00016	ff 15 00 00 00
	00		 call	 DWORD PTR __imp__Py_InitModule4
  0001c	83 c4 14	 add	 esp, 20			; 00000014H

; 1005 : }

  0001f	5d		 pop	 ebp
  00020	c3		 ret	 0
?initgrp@@YAXXZ ENDP					; initgrp
_TEXT	ENDS
; Function compile flags: /Odspy
; File C:\Program Files (x86)\Windows Kits\10\Include\10.0.18362.0\ucrt\stdio.h
;	COMDAT __snprintf
_TEXT	SEGMENT
__Result$ = -20						; size = 4
__Format$ = -16						; size = 4
__ArgList$ = -12					; size = 4
tv86 = -8						; size = 4
__Result$1 = -4						; size = 4
__Buffer$ = 8						; size = 4
__BufferCount$ = 12					; size = 4
__Format$ = 16						; size = 4
__snprintf PROC						; COMDAT

; 1969 :     {

  00000	55		 push	 ebp
  00001	8b ec		 mov	 ebp, esp
  00003	83 ec 14	 sub	 esp, 20			; 00000014H

; 1970 :         int _Result;
; 1971 :         va_list _ArgList;
; 1972 :         __crt_va_start(_ArgList, _Format);

  00006	8d 45 14	 lea	 eax, DWORD PTR __Format$[ebp+4]
  00009	89 45 f4	 mov	 DWORD PTR __ArgList$[ebp], eax

; 1973 :     #pragma warning(suppress:28719)    // 28719
; 1974 :         _Result = _vsnprintf(_Buffer, _BufferCount, _Format, _ArgList);

  0000c	8b 45 10	 mov	 eax, DWORD PTR __Format$[ebp]
  0000f	89 45 f0	 mov	 DWORD PTR __Format$[ebp], eax

; 1390 :         int const _Result = __stdio_common_vsprintf(

  00012	ff 75 f4	 push	 DWORD PTR __ArgList$[ebp]
  00015	6a 00		 push	 0
  00017	ff 75 f0	 push	 DWORD PTR __Format$[ebp]
  0001a	ff 75 0c	 push	 DWORD PTR __BufferCount$[ebp]
  0001d	ff 75 08	 push	 DWORD PTR __Buffer$[ebp]
  00020	e8 00 00 00 00	 call	 ___local_stdio_printf_options
  00025	8b 08		 mov	 ecx, DWORD PTR [eax]
  00027	83 c9 01	 or	 ecx, 1
  0002a	8b 40 04	 mov	 eax, DWORD PTR [eax+4]
  0002d	50		 push	 eax
  0002e	51		 push	 ecx
  0002f	e8 00 00 00 00	 call	 ___stdio_common_vsprintf
  00034	83 c4 1c	 add	 esp, 28			; 0000001cH
  00037	89 45 fc	 mov	 DWORD PTR __Result$1[ebp], eax

; 1391 :             _CRT_INTERNAL_LOCAL_PRINTF_OPTIONS | _CRT_INTERNAL_PRINTF_LEGACY_VSPRINTF_NULL_TERMINATION,
; 1392 :             _Buffer, _BufferCount, _Format, _Locale, _ArgList);
; 1393 : 
; 1394 :         return _Result < 0 ? -1 : _Result;

  0003a	83 7d fc 00	 cmp	 DWORD PTR __Result$1[ebp], 0
  0003e	7d 06		 jge	 SHORT $LN7@snprintf
  00040	83 4d f8 ff	 or	 DWORD PTR tv86[ebp], -1
  00044	eb 06		 jmp	 SHORT $LN3@snprintf
$LN7@snprintf:
  00046	8b 45 fc	 mov	 eax, DWORD PTR __Result$1[ebp]
  00049	89 45 f8	 mov	 DWORD PTR tv86[ebp], eax
$LN3@snprintf:

; 1973 :     #pragma warning(suppress:28719)    // 28719
; 1974 :         _Result = _vsnprintf(_Buffer, _BufferCount, _Format, _ArgList);

  0004c	8b 45 f8	 mov	 eax, DWORD PTR tv86[ebp]
  0004f	89 45 ec	 mov	 DWORD PTR __Result$[ebp], eax

; 1975 :         __crt_va_end(_ArgList);

  00052	83 65 f4 00	 and	 DWORD PTR __ArgList$[ebp], 0

; 1976 :         return _Result;

  00056	8b 45 ec	 mov	 eax, DWORD PTR __Result$[ebp]

; 1977 :     }

  00059	c9		 leave
  0005a	c3		 ret	 0
__snprintf ENDP
_TEXT	ENDS
; Function compile flags: /Odspy
; File C:\Program Files (x86)\Windows Kits\10\Include\10.0.18362.0\ucrt\stdio.h
;	COMDAT _sprintf
_TEXT	SEGMENT
__Result$ = -20						; size = 4
__Format$ = -16						; size = 4
__ArgList$ = -12					; size = 4
tv86 = -8						; size = 4
__Result$1 = -4						; size = 4
__Buffer$ = 8						; size = 4
__Format$ = 12						; size = 4
_sprintf PROC						; COMDAT

; 1781 :     {

  00000	55		 push	 ebp
  00001	8b ec		 mov	 ebp, esp
  00003	83 ec 14	 sub	 esp, 20			; 00000014H

; 1782 :         int _Result;
; 1783 :         va_list _ArgList;
; 1784 :         __crt_va_start(_ArgList, _Format);

  00006	8d 45 10	 lea	 eax, DWORD PTR __Format$[ebp+4]
  00009	89 45 f4	 mov	 DWORD PTR __ArgList$[ebp], eax

; 1785 : 
; 1786 :         #pragma warning(push)
; 1787 :         #pragma warning(disable: 4996) // Deprecation
; 1788 :         _Result = _vsprintf_l(_Buffer, _Format, NULL, _ArgList);

  0000c	8b 45 0c	 mov	 eax, DWORD PTR __Format$[ebp]
  0000f	89 45 f0	 mov	 DWORD PTR __Format$[ebp], eax

; 1390 :         int const _Result = __stdio_common_vsprintf(

  00012	ff 75 f4	 push	 DWORD PTR __ArgList$[ebp]
  00015	6a 00		 push	 0
  00017	ff 75 f0	 push	 DWORD PTR __Format$[ebp]
  0001a	6a ff		 push	 -1
  0001c	ff 75 08	 push	 DWORD PTR __Buffer$[ebp]
  0001f	e8 00 00 00 00	 call	 ___local_stdio_printf_options
  00024	8b 08		 mov	 ecx, DWORD PTR [eax]
  00026	83 c9 01	 or	 ecx, 1
  00029	8b 40 04	 mov	 eax, DWORD PTR [eax+4]
  0002c	50		 push	 eax
  0002d	51		 push	 ecx
  0002e	e8 00 00 00 00	 call	 ___stdio_common_vsprintf
  00033	83 c4 1c	 add	 esp, 28			; 0000001cH
  00036	89 45 fc	 mov	 DWORD PTR __Result$1[ebp], eax

; 1391 :             _CRT_INTERNAL_LOCAL_PRINTF_OPTIONS | _CRT_INTERNAL_PRINTF_LEGACY_VSPRINTF_NULL_TERMINATION,
; 1392 :             _Buffer, _BufferCount, _Format, _Locale, _ArgList);
; 1393 : 
; 1394 :         return _Result < 0 ? -1 : _Result;

  00039	83 7d fc 00	 cmp	 DWORD PTR __Result$1[ebp], 0
  0003d	7d 06		 jge	 SHORT $LN7@sprintf
  0003f	83 4d f8 ff	 or	 DWORD PTR tv86[ebp], -1
  00043	eb 06		 jmp	 SHORT $LN3@sprintf
$LN7@sprintf:
  00045	8b 45 fc	 mov	 eax, DWORD PTR __Result$1[ebp]
  00048	89 45 f8	 mov	 DWORD PTR tv86[ebp], eax
$LN3@sprintf:

; 1785 : 
; 1786 :         #pragma warning(push)
; 1787 :         #pragma warning(disable: 4996) // Deprecation
; 1788 :         _Result = _vsprintf_l(_Buffer, _Format, NULL, _ArgList);

  0004b	8b 45 f8	 mov	 eax, DWORD PTR tv86[ebp]
  0004e	89 45 ec	 mov	 DWORD PTR __Result$[ebp], eax

; 1789 :         #pragma warning(pop)
; 1790 : 
; 1791 :         __crt_va_end(_ArgList);

  00051	83 65 f4 00	 and	 DWORD PTR __ArgList$[ebp], 0

; 1792 :         return _Result;

  00055	8b 45 ec	 mov	 eax, DWORD PTR __Result$[ebp]

; 1793 :     }

  00058	c9		 leave
  00059	c3		 ret	 0
_sprintf ENDP
_TEXT	ENDS
; Function compile flags: /Odspy
; File C:\Program Files (x86)\Windows Kits\10\Include\10.0.18362.0\ucrt\corecrt_stdio_config.h
;	COMDAT ___local_stdio_printf_options
_TEXT	SEGMENT
___local_stdio_printf_options PROC			; COMDAT

; 86   :     {

  00000	55		 push	 ebp
  00001	8b ec		 mov	 ebp, esp

; 87   :         static unsigned __int64 _OptionsStorage;
; 88   :         return &_OptionsStorage;

  00003	b8 00 00 00 00	 mov	 eax, OFFSET ?_OptionsStorage@?1??__local_stdio_printf_options@@9@4_KA ; `__local_stdio_printf_options'::`2'::_OptionsStorage

; 89   :     }

  00008	5d		 pop	 ebp
  00009	c3		 ret	 0
___local_stdio_printf_options ENDP
_TEXT	ENDS
END
