; Listing generated by Microsoft (R) Optimizing Compiler Version 19.28.29335.0 

	TITLE	D:\Metin2 Server Files\mainline\SRC_2014\Metin2Client\eterPythonLib\PythonGraphicImageModule.cpp
	.686P
	.XMM
	include listing.inc
	.model	flat

INCLUDELIB LIBCMT
INCLUDELIB OLDNAMES

PUBLIC	?initgrpImage@@YAXXZ				; initgrpImage
PUBLIC	?PyTuple_GetImageInstance@@YA_NPAU_object@@HPAPAVCGraphicImageInstance@@@Z ; PyTuple_GetImageInstance
PUBLIC	?PyTuple_GetExpandedImageInstance@@YA_NPAU_object@@HPAPAVCGraphicExpandedImageInstance@@@Z ; PyTuple_GetExpandedImageInstance
PUBLIC	?grpImageGenerate@@YAPAU_object@@PAU1@0@Z	; grpImageGenerate
PUBLIC	?grpImageGenerateExpanded@@YAPAU_object@@PAU1@0@Z ; grpImageGenerateExpanded
PUBLIC	?grpImageGenerateFromHandle@@YAPAU_object@@PAU1@0@Z ; grpImageGenerateFromHandle
PUBLIC	?grpImageDelete@@YAPAU_object@@PAU1@0@Z		; grpImageDelete
PUBLIC	?grpImageDeleteExpanded@@YAPAU_object@@PAU1@0@Z	; grpImageDeleteExpanded
PUBLIC	?grpImageSetFileName@@YAPAU_object@@PAU1@0@Z	; grpImageSetFileName
PUBLIC	?grpImageRender@@YAPAU_object@@PAU1@0@Z		; grpImageRender
PUBLIC	?grpSetImagePosition@@YAPAU_object@@PAU1@0@Z	; grpSetImagePosition
PUBLIC	?grpSetImageOrigin@@YAPAU_object@@PAU1@0@Z	; grpSetImageOrigin
PUBLIC	?grpSetImageRotation@@YAPAU_object@@PAU1@0@Z	; grpSetImageRotation
PUBLIC	?grpSetImageScale@@YAPAU_object@@PAU1@0@Z	; grpSetImageScale
PUBLIC	?grpSetRenderingRect@@YAPAU_object@@PAU1@0@Z	; grpSetRenderingRect
PUBLIC	?grpSetImageDiffuseColor@@YAPAU_object@@PAU1@0@Z ; grpSetImageDiffuseColor
PUBLIC	?grpGetWidth@@YAPAU_object@@PAU1@0@Z		; grpGetWidth
PUBLIC	?grpGetHeight@@YAPAU_object@@PAU1@0@Z		; grpGetHeight
PUBLIC	?ms_singleton@?$CSingleton@VCResourceManager@@@@0PAVCResourceManager@@A ; CSingleton<CResourceManager>::ms_singleton
PUBLIC	??_C@_01KBJDNOO@i@				; `string'
PUBLIC	??_C@_0CI@BMEPHKIH@Resource?5is?5not?5an?5image?5?$CIfilen@ ; `string'
PUBLIC	??_C@_0CB@IGMMKMMH@Cannot?5load?5image?5?$CIfilename?3?5?$CFs@ ; `string'
PUBLIC	??_C@_0P@KMPAMHCE@Image?5is?5empty@		; `string'
PUBLIC	??_C@_06EPLDPNDB@Render@			; `string'
PUBLIC	??_C@_0M@GKIFPNAD@SetPosition@			; `string'
PUBLIC	??_C@_08PDEEPOLG@Generate@			; `string'
PUBLIC	??_C@_0BB@KGDODCPK@GenerateExpanded@		; `string'
PUBLIC	??_C@_0BD@FOKFJBAM@GenerateFromHandle@		; `string'
PUBLIC	??_C@_06JBKGCNBB@Delete@			; `string'
PUBLIC	??_C@_0P@CEODFLBD@DeleteExpanded@		; `string'
PUBLIC	??_C@_0M@FLDBGGEO@SetFileName@			; `string'
PUBLIC	??_C@_09KLKDEBJ@SetOrigin@			; `string'
PUBLIC	??_C@_0M@GNIHGJGG@SetRotation@			; `string'
PUBLIC	??_C@_08FMFAIGAB@SetScale@			; `string'
PUBLIC	??_C@_0BB@LDNMLPHM@SetRenderingRect@		; `string'
PUBLIC	??_C@_0BA@CAEBLOMF@SetDiffuseColor@		; `string'
PUBLIC	??_C@_08OMBILDHM@GetWidth@			; `string'
PUBLIC	??_C@_09EOGEIJMK@GetHeight@			; `string'
PUBLIC	??_C@_08LMJEHLID@grpImage@			; `string'
EXTRN	_strlen:PROC
EXTRN	__imp__Py_BuildValue:PROC
EXTRN	__imp__Py_InitModule4:PROC
EXTRN	?PyTuple_GetString@@YA_NPAU_object@@HPAPAD@Z:PROC ; PyTuple_GetString
EXTRN	?PyTuple_GetInteger@@YA_NPAU_object@@HPAH@Z:PROC ; PyTuple_GetInteger
EXTRN	?PyTuple_GetFloat@@YA_NPAU_object@@HPAM@Z:PROC	; PyTuple_GetFloat
EXTRN	?Py_BuildException@@YAPAU_object@@PBDZZ:PROC	; Py_BuildException
EXTRN	?Py_BadArgument@@YAPAU_object@@XZ:PROC		; Py_BadArgument
EXTRN	?Py_BuildNone@@YAPAU_object@@XZ:PROC		; Py_BuildNone
EXTRN	?IsType@CResource@@QAE_NK@Z:PROC		; CResource::IsType
EXTRN	?GetResourcePointer@CResourceManager@@QAEPAVCResource@@PBD@Z:PROC ; CResourceManager::GetResourcePointer
EXTRN	?Type@CGraphicImage@@SAKXZ:PROC			; CGraphicImage::Type
EXTRN	?IsType@CGraphicImageInstance@@QAEHK@Z:PROC	; CGraphicImageInstance::IsType
EXTRN	?Render@CGraphicImageInstance@@QAEXXZ:PROC	; CGraphicImageInstance::Render
EXTRN	?SetDiffuseColor@CGraphicImageInstance@@QAEXMMMM@Z:PROC ; CGraphicImageInstance::SetDiffuseColor
EXTRN	?SetPosition@CGraphicImageInstance@@QAEXMM@Z:PROC ; CGraphicImageInstance::SetPosition
EXTRN	?SetImagePointer@CGraphicImageInstance@@QAEXPAVCGraphicImage@@@Z:PROC ; CGraphicImageInstance::SetImagePointer
EXTRN	?IsEmpty@CGraphicImageInstance@@QBE_NXZ:PROC	; CGraphicImageInstance::IsEmpty
EXTRN	?GetWidth@CGraphicImageInstance@@QAEHXZ:PROC	; CGraphicImageInstance::GetWidth
EXTRN	?GetHeight@CGraphicImageInstance@@QAEHXZ:PROC	; CGraphicImageInstance::GetHeight
EXTRN	?New@CGraphicImageInstance@@SAPAV1@XZ:PROC	; CGraphicImageInstance::New
EXTRN	?Delete@CGraphicImageInstance@@SAXPAV1@@Z:PROC	; CGraphicImageInstance::Delete
EXTRN	?Type@CGraphicExpandedImageInstance@@SAKXZ:PROC	; CGraphicExpandedImageInstance::Type
EXTRN	?SetOrigin@CGraphicExpandedImageInstance@@QAEXMM@Z:PROC ; CGraphicExpandedImageInstance::SetOrigin
EXTRN	?SetRotation@CGraphicExpandedImageInstance@@QAEXM@Z:PROC ; CGraphicExpandedImageInstance::SetRotation
EXTRN	?SetScale@CGraphicExpandedImageInstance@@QAEXMM@Z:PROC ; CGraphicExpandedImageInstance::SetScale
EXTRN	?SetRenderingRect@CGraphicExpandedImageInstance@@QAEXMMMM@Z:PROC ; CGraphicExpandedImageInstance::SetRenderingRect
EXTRN	?New@CGraphicExpandedImageInstance@@SAPAV1@XZ:PROC ; CGraphicExpandedImageInstance::New
EXTRN	?Delete@CGraphicExpandedImageInstance@@SAXPAV1@@Z:PROC ; CGraphicExpandedImageInstance::Delete
EXTRN	__fltused:DWORD
;	COMDAT ?ms_singleton@?$CSingleton@VCResourceManager@@@@0PAVCResourceManager@@A
_BSS	SEGMENT
?ms_singleton@?$CSingleton@VCResourceManager@@@@0PAVCResourceManager@@A DD 01H DUP (?) ; CSingleton<CResourceManager>::ms_singleton
_BSS	ENDS
;	COMDAT ??_C@_08LMJEHLID@grpImage@
CONST	SEGMENT
??_C@_08LMJEHLID@grpImage@ DB 'grpImage', 00H		; `string'
CONST	ENDS
;	COMDAT ??_C@_09EOGEIJMK@GetHeight@
CONST	SEGMENT
??_C@_09EOGEIJMK@GetHeight@ DB 'GetHeight', 00H		; `string'
CONST	ENDS
;	COMDAT ??_C@_08OMBILDHM@GetWidth@
CONST	SEGMENT
??_C@_08OMBILDHM@GetWidth@ DB 'GetWidth', 00H		; `string'
CONST	ENDS
;	COMDAT ??_C@_0BA@CAEBLOMF@SetDiffuseColor@
CONST	SEGMENT
??_C@_0BA@CAEBLOMF@SetDiffuseColor@ DB 'SetDiffuseColor', 00H ; `string'
CONST	ENDS
;	COMDAT ??_C@_0BB@LDNMLPHM@SetRenderingRect@
CONST	SEGMENT
??_C@_0BB@LDNMLPHM@SetRenderingRect@ DB 'SetRenderingRect', 00H ; `string'
CONST	ENDS
;	COMDAT ??_C@_08FMFAIGAB@SetScale@
CONST	SEGMENT
??_C@_08FMFAIGAB@SetScale@ DB 'SetScale', 00H		; `string'
CONST	ENDS
;	COMDAT ??_C@_0M@GNIHGJGG@SetRotation@
CONST	SEGMENT
??_C@_0M@GNIHGJGG@SetRotation@ DB 'SetRotation', 00H	; `string'
CONST	ENDS
;	COMDAT ??_C@_09KLKDEBJ@SetOrigin@
CONST	SEGMENT
??_C@_09KLKDEBJ@SetOrigin@ DB 'SetOrigin', 00H		; `string'
CONST	ENDS
;	COMDAT ??_C@_0M@FLDBGGEO@SetFileName@
CONST	SEGMENT
??_C@_0M@FLDBGGEO@SetFileName@ DB 'SetFileName', 00H	; `string'
CONST	ENDS
;	COMDAT ??_C@_0P@CEODFLBD@DeleteExpanded@
CONST	SEGMENT
??_C@_0P@CEODFLBD@DeleteExpanded@ DB 'DeleteExpanded', 00H ; `string'
CONST	ENDS
;	COMDAT ??_C@_06JBKGCNBB@Delete@
CONST	SEGMENT
??_C@_06JBKGCNBB@Delete@ DB 'Delete', 00H		; `string'
CONST	ENDS
;	COMDAT ??_C@_0BD@FOKFJBAM@GenerateFromHandle@
CONST	SEGMENT
??_C@_0BD@FOKFJBAM@GenerateFromHandle@ DB 'GenerateFromHandle', 00H ; `string'
CONST	ENDS
;	COMDAT ??_C@_0BB@KGDODCPK@GenerateExpanded@
CONST	SEGMENT
??_C@_0BB@KGDODCPK@GenerateExpanded@ DB 'GenerateExpanded', 00H ; `string'
CONST	ENDS
;	COMDAT ??_C@_08PDEEPOLG@Generate@
CONST	SEGMENT
??_C@_08PDEEPOLG@Generate@ DB 'Generate', 00H		; `string'
CONST	ENDS
;	COMDAT ??_C@_0M@GKIFPNAD@SetPosition@
CONST	SEGMENT
??_C@_0M@GKIFPNAD@SetPosition@ DB 'SetPosition', 00H	; `string'
CONST	ENDS
;	COMDAT ??_C@_06EPLDPNDB@Render@
CONST	SEGMENT
??_C@_06EPLDPNDB@Render@ DB 'Render', 00H		; `string'
CONST	ENDS
;	COMDAT ?s_methods@?1??initgrpImage@@YAXXZ@4PAUPyMethodDef@@A
_DATA	SEGMENT
?s_methods@?1??initgrpImage@@YAXXZ@4PAUPyMethodDef@@A DD FLAT:??_C@_06EPLDPNDB@Render@ ; `initgrpImage'::`2'::s_methods
	DD	FLAT:?grpImageRender@@YAPAU_object@@PAU1@0@Z
	DD	01H
	ORG $+4
	DD	FLAT:??_C@_0M@GKIFPNAD@SetPosition@
	DD	FLAT:?grpSetImagePosition@@YAPAU_object@@PAU1@0@Z
	DD	01H
	ORG $+4
	DD	FLAT:??_C@_08PDEEPOLG@Generate@
	DD	FLAT:?grpImageGenerate@@YAPAU_object@@PAU1@0@Z
	DD	01H
	ORG $+4
	DD	FLAT:??_C@_0BB@KGDODCPK@GenerateExpanded@
	DD	FLAT:?grpImageGenerateExpanded@@YAPAU_object@@PAU1@0@Z
	DD	01H
	ORG $+4
	DD	FLAT:??_C@_0BD@FOKFJBAM@GenerateFromHandle@
	DD	FLAT:?grpImageGenerateFromHandle@@YAPAU_object@@PAU1@0@Z
	DD	01H
	ORG $+4
	DD	FLAT:??_C@_06JBKGCNBB@Delete@
	DD	FLAT:?grpImageDelete@@YAPAU_object@@PAU1@0@Z
	DD	01H
	ORG $+4
	DD	FLAT:??_C@_0P@CEODFLBD@DeleteExpanded@
	DD	FLAT:?grpImageDeleteExpanded@@YAPAU_object@@PAU1@0@Z
	DD	01H
	ORG $+4
	DD	FLAT:??_C@_0M@FLDBGGEO@SetFileName@
	DD	FLAT:?grpImageSetFileName@@YAPAU_object@@PAU1@0@Z
	DD	01H
	ORG $+4
	DD	FLAT:??_C@_09KLKDEBJ@SetOrigin@
	DD	FLAT:?grpSetImageOrigin@@YAPAU_object@@PAU1@0@Z
	DD	01H
	ORG $+4
	DD	FLAT:??_C@_0M@GNIHGJGG@SetRotation@
	DD	FLAT:?grpSetImageRotation@@YAPAU_object@@PAU1@0@Z
	DD	01H
	ORG $+4
	DD	FLAT:??_C@_08FMFAIGAB@SetScale@
	DD	FLAT:?grpSetImageScale@@YAPAU_object@@PAU1@0@Z
	DD	01H
	ORG $+4
	DD	FLAT:??_C@_0BB@LDNMLPHM@SetRenderingRect@
	DD	FLAT:?grpSetRenderingRect@@YAPAU_object@@PAU1@0@Z
	DD	01H
	ORG $+4
	DD	FLAT:??_C@_0BA@CAEBLOMF@SetDiffuseColor@
	DD	FLAT:?grpSetImageDiffuseColor@@YAPAU_object@@PAU1@0@Z
	DD	01H
	ORG $+4
	DD	FLAT:??_C@_08OMBILDHM@GetWidth@
	DD	FLAT:?grpGetWidth@@YAPAU_object@@PAU1@0@Z
	DD	01H
	ORG $+4
	DD	FLAT:??_C@_09EOGEIJMK@GetHeight@
	DD	FLAT:?grpGetHeight@@YAPAU_object@@PAU1@0@Z
	DD	01H
	ORG $+4
	DD	00H
	DD	00H
	DD	00H
	ORG $+4
_DATA	ENDS
;	COMDAT ??_C@_0P@KMPAMHCE@Image?5is?5empty@
CONST	SEGMENT
??_C@_0P@KMPAMHCE@Image?5is?5empty@ DB 'Image is empty', 00H ; `string'
CONST	ENDS
;	COMDAT ??_C@_0CB@IGMMKMMH@Cannot?5load?5image?5?$CIfilename?3?5?$CFs@
CONST	SEGMENT
??_C@_0CB@IGMMKMMH@Cannot?5load?5image?5?$CIfilename?3?5?$CFs@ DB 'Cannot'
	DB	' load image (filename: %s)', 00H		; `string'
CONST	ENDS
;	COMDAT ??_C@_0CI@BMEPHKIH@Resource?5is?5not?5an?5image?5?$CIfilen@
CONST	SEGMENT
??_C@_0CI@BMEPHKIH@Resource?5is?5not?5an?5image?5?$CIfilen@ DB 'Resource '
	DB	'is not an image (filename: %s)', 00H	; `string'
CONST	ENDS
;	COMDAT ??_C@_01KBJDNOO@i@
CONST	SEGMENT
??_C@_01KBJDNOO@i@ DB 'i', 00H				; `string'
CONST	ENDS
; Function compile flags: /Odspy
; File D:\Metin2 Server Files\mainline\SRC_2014\Metin2Client\eterPythonLib\PythonGraphicImageModule.cpp
;	COMDAT ?grpGetHeight@@YAPAU_object@@PAU1@0@Z
_TEXT	SEGMENT
_pImageInstance$ = -4					; size = 4
_poSelf$ = 8						; size = 4
_poArgs$ = 12						; size = 4
?grpGetHeight@@YAPAU_object@@PAU1@0@Z PROC		; grpGetHeight, COMDAT

; 275  : {

  00000	55		 push	 ebp
  00001	8b ec		 mov	 ebp, esp
  00003	51		 push	 ecx

; 276  : 	CGraphicImageInstance * pImageInstance;
; 277  : 
; 278  : 	if (!PyTuple_GetImageInstance(poArgs, 0, &pImageInstance))

  00004	8d 45 fc	 lea	 eax, DWORD PTR _pImageInstance$[ebp]
  00007	50		 push	 eax
  00008	6a 00		 push	 0
  0000a	ff 75 0c	 push	 DWORD PTR _poArgs$[ebp]
  0000d	e8 00 00 00 00	 call	 ?PyTuple_GetImageInstance@@YA_NPAU_object@@HPAPAVCGraphicImageInstance@@@Z ; PyTuple_GetImageInstance
  00012	83 c4 0c	 add	 esp, 12			; 0000000cH
  00015	0f b6 c0	 movzx	 eax, al
  00018	85 c0		 test	 eax, eax
  0001a	75 07		 jne	 SHORT $LN2@grpGetHeig

; 279  : 		return Py_BadArgument();

  0001c	e8 00 00 00 00	 call	 ?Py_BadArgument@@YAPAU_object@@XZ ; Py_BadArgument
  00021	eb 32		 jmp	 SHORT $LN1@grpGetHeig
$LN2@grpGetHeig:

; 280  : 
; 281  : 	if (pImageInstance->IsEmpty())

  00023	8b 4d fc	 mov	 ecx, DWORD PTR _pImageInstance$[ebp]
  00026	e8 00 00 00 00	 call	 ?IsEmpty@CGraphicImageInstance@@QBE_NXZ ; CGraphicImageInstance::IsEmpty
  0002b	0f b6 c0	 movzx	 eax, al
  0002e	85 c0		 test	 eax, eax
  00030	74 0d		 je	 SHORT $LN3@grpGetHeig

; 282  : 		return Py_BuildException("Image is empty");

  00032	68 00 00 00 00	 push	 OFFSET ??_C@_0P@KMPAMHCE@Image?5is?5empty@
  00037	e8 00 00 00 00	 call	 ?Py_BuildException@@YAPAU_object@@PBDZZ ; Py_BuildException
  0003c	59		 pop	 ecx
  0003d	eb 16		 jmp	 SHORT $LN1@grpGetHeig
$LN3@grpGetHeig:

; 283  : 
; 284  : 	return Py_BuildValue("i", pImageInstance->GetHeight());

  0003f	8b 4d fc	 mov	 ecx, DWORD PTR _pImageInstance$[ebp]
  00042	e8 00 00 00 00	 call	 ?GetHeight@CGraphicImageInstance@@QAEHXZ ; CGraphicImageInstance::GetHeight
  00047	50		 push	 eax
  00048	68 00 00 00 00	 push	 OFFSET ??_C@_01KBJDNOO@i@
  0004d	ff 15 00 00 00
	00		 call	 DWORD PTR __imp__Py_BuildValue
  00053	59		 pop	 ecx
  00054	59		 pop	 ecx
$LN1@grpGetHeig:

; 285  : }

  00055	c9		 leave
  00056	c3		 ret	 0
?grpGetHeight@@YAPAU_object@@PAU1@0@Z ENDP		; grpGetHeight
_TEXT	ENDS
; Function compile flags: /Odspy
; File D:\Metin2 Server Files\mainline\SRC_2014\Metin2Client\eterPythonLib\PythonGraphicImageModule.cpp
;	COMDAT ?grpGetWidth@@YAPAU_object@@PAU1@0@Z
_TEXT	SEGMENT
_pImageInstance$ = -4					; size = 4
_poSelf$ = 8						; size = 4
_poArgs$ = 12						; size = 4
?grpGetWidth@@YAPAU_object@@PAU1@0@Z PROC		; grpGetWidth, COMDAT

; 262  : {

  00000	55		 push	 ebp
  00001	8b ec		 mov	 ebp, esp
  00003	51		 push	 ecx

; 263  : 	CGraphicImageInstance * pImageInstance;
; 264  : 	
; 265  : 	if (!PyTuple_GetImageInstance(poArgs, 0, &pImageInstance))

  00004	8d 45 fc	 lea	 eax, DWORD PTR _pImageInstance$[ebp]
  00007	50		 push	 eax
  00008	6a 00		 push	 0
  0000a	ff 75 0c	 push	 DWORD PTR _poArgs$[ebp]
  0000d	e8 00 00 00 00	 call	 ?PyTuple_GetImageInstance@@YA_NPAU_object@@HPAPAVCGraphicImageInstance@@@Z ; PyTuple_GetImageInstance
  00012	83 c4 0c	 add	 esp, 12			; 0000000cH
  00015	0f b6 c0	 movzx	 eax, al
  00018	85 c0		 test	 eax, eax
  0001a	75 07		 jne	 SHORT $LN2@grpGetWidt

; 266  : 		return Py_BadArgument();

  0001c	e8 00 00 00 00	 call	 ?Py_BadArgument@@YAPAU_object@@XZ ; Py_BadArgument
  00021	eb 32		 jmp	 SHORT $LN1@grpGetWidt
$LN2@grpGetWidt:

; 267  : 	
; 268  : 	if (pImageInstance->IsEmpty())

  00023	8b 4d fc	 mov	 ecx, DWORD PTR _pImageInstance$[ebp]
  00026	e8 00 00 00 00	 call	 ?IsEmpty@CGraphicImageInstance@@QBE_NXZ ; CGraphicImageInstance::IsEmpty
  0002b	0f b6 c0	 movzx	 eax, al
  0002e	85 c0		 test	 eax, eax
  00030	74 0d		 je	 SHORT $LN3@grpGetWidt

; 269  : 		return Py_BuildException("Image is empty");

  00032	68 00 00 00 00	 push	 OFFSET ??_C@_0P@KMPAMHCE@Image?5is?5empty@
  00037	e8 00 00 00 00	 call	 ?Py_BuildException@@YAPAU_object@@PBDZZ ; Py_BuildException
  0003c	59		 pop	 ecx
  0003d	eb 16		 jmp	 SHORT $LN1@grpGetWidt
$LN3@grpGetWidt:

; 270  : 
; 271  : 	return Py_BuildValue("i", pImageInstance->GetWidth());

  0003f	8b 4d fc	 mov	 ecx, DWORD PTR _pImageInstance$[ebp]
  00042	e8 00 00 00 00	 call	 ?GetWidth@CGraphicImageInstance@@QAEHXZ ; CGraphicImageInstance::GetWidth
  00047	50		 push	 eax
  00048	68 00 00 00 00	 push	 OFFSET ??_C@_01KBJDNOO@i@
  0004d	ff 15 00 00 00
	00		 call	 DWORD PTR __imp__Py_BuildValue
  00053	59		 pop	 ecx
  00054	59		 pop	 ecx
$LN1@grpGetWidt:

; 272  : }

  00055	c9		 leave
  00056	c3		 ret	 0
?grpGetWidth@@YAPAU_object@@PAU1@0@Z ENDP		; grpGetWidth
_TEXT	ENDS
; Function compile flags: /Odspy
; File D:\Metin2 Server Files\mainline\SRC_2014\Metin2Client\eterPythonLib\PythonGraphicImageModule.cpp
;	COMDAT ?grpSetImageDiffuseColor@@YAPAU_object@@PAU1@0@Z
_TEXT	SEGMENT
_pImageInstance$ = -20					; size = 4
_r$ = -16						; size = 4
_g$ = -12						; size = 4
_b$ = -8						; size = 4
_a$ = -4						; size = 4
_poSelf$ = 8						; size = 4
_poArgs$ = 12						; size = 4
?grpSetImageDiffuseColor@@YAPAU_object@@PAU1@0@Z PROC	; grpSetImageDiffuseColor, COMDAT

; 239  : {

  00000	55		 push	 ebp
  00001	8b ec		 mov	 ebp, esp
  00003	83 ec 14	 sub	 esp, 20			; 00000014H

; 240  : 	CGraphicImageInstance* pImageInstance;
; 241  : 	if (!PyTuple_GetImageInstance(poArgs, 0, &pImageInstance))

  00006	8d 45 ec	 lea	 eax, DWORD PTR _pImageInstance$[ebp]
  00009	50		 push	 eax
  0000a	6a 00		 push	 0
  0000c	ff 75 0c	 push	 DWORD PTR _poArgs$[ebp]
  0000f	e8 00 00 00 00	 call	 ?PyTuple_GetImageInstance@@YA_NPAU_object@@HPAPAVCGraphicImageInstance@@@Z ; PyTuple_GetImageInstance
  00014	83 c4 0c	 add	 esp, 12			; 0000000cH
  00017	0f b6 c0	 movzx	 eax, al
  0001a	85 c0		 test	 eax, eax
  0001c	75 0a		 jne	 SHORT $LN2@grpSetImag

; 242  : 		return Py_BadArgument();

  0001e	e8 00 00 00 00	 call	 ?Py_BadArgument@@YAPAU_object@@XZ ; Py_BadArgument
  00023	e9 b8 00 00 00	 jmp	 $LN1@grpSetImag
$LN2@grpSetImag:

; 243  : 
; 244  : 	float r;
; 245  : 	if (!PyTuple_GetFloat(poArgs, 1, &r))

  00028	8d 45 f0	 lea	 eax, DWORD PTR _r$[ebp]
  0002b	50		 push	 eax
  0002c	6a 01		 push	 1
  0002e	ff 75 0c	 push	 DWORD PTR _poArgs$[ebp]
  00031	e8 00 00 00 00	 call	 ?PyTuple_GetFloat@@YA_NPAU_object@@HPAM@Z ; PyTuple_GetFloat
  00036	83 c4 0c	 add	 esp, 12			; 0000000cH
  00039	0f b6 c0	 movzx	 eax, al
  0003c	85 c0		 test	 eax, eax
  0003e	75 0a		 jne	 SHORT $LN3@grpSetImag

; 246  : 		return Py_BadArgument();

  00040	e8 00 00 00 00	 call	 ?Py_BadArgument@@YAPAU_object@@XZ ; Py_BadArgument
  00045	e9 96 00 00 00	 jmp	 $LN1@grpSetImag
$LN3@grpSetImag:

; 247  : 	float g;
; 248  : 	if (!PyTuple_GetFloat(poArgs, 2, &g))

  0004a	8d 45 f4	 lea	 eax, DWORD PTR _g$[ebp]
  0004d	50		 push	 eax
  0004e	6a 02		 push	 2
  00050	ff 75 0c	 push	 DWORD PTR _poArgs$[ebp]
  00053	e8 00 00 00 00	 call	 ?PyTuple_GetFloat@@YA_NPAU_object@@HPAM@Z ; PyTuple_GetFloat
  00058	83 c4 0c	 add	 esp, 12			; 0000000cH
  0005b	0f b6 c0	 movzx	 eax, al
  0005e	85 c0		 test	 eax, eax
  00060	75 07		 jne	 SHORT $LN4@grpSetImag

; 249  : 		return Py_BadArgument();

  00062	e8 00 00 00 00	 call	 ?Py_BadArgument@@YAPAU_object@@XZ ; Py_BadArgument
  00067	eb 77		 jmp	 SHORT $LN1@grpSetImag
$LN4@grpSetImag:

; 250  : 	float b;
; 251  : 	if (!PyTuple_GetFloat(poArgs, 3, &b))

  00069	8d 45 f8	 lea	 eax, DWORD PTR _b$[ebp]
  0006c	50		 push	 eax
  0006d	6a 03		 push	 3
  0006f	ff 75 0c	 push	 DWORD PTR _poArgs$[ebp]
  00072	e8 00 00 00 00	 call	 ?PyTuple_GetFloat@@YA_NPAU_object@@HPAM@Z ; PyTuple_GetFloat
  00077	83 c4 0c	 add	 esp, 12			; 0000000cH
  0007a	0f b6 c0	 movzx	 eax, al
  0007d	85 c0		 test	 eax, eax
  0007f	75 07		 jne	 SHORT $LN5@grpSetImag

; 252  : 		return Py_BadArgument();

  00081	e8 00 00 00 00	 call	 ?Py_BadArgument@@YAPAU_object@@XZ ; Py_BadArgument
  00086	eb 58		 jmp	 SHORT $LN1@grpSetImag
$LN5@grpSetImag:

; 253  : 	float a;
; 254  : 	if (!PyTuple_GetFloat(poArgs, 4, &a))

  00088	8d 45 fc	 lea	 eax, DWORD PTR _a$[ebp]
  0008b	50		 push	 eax
  0008c	6a 04		 push	 4
  0008e	ff 75 0c	 push	 DWORD PTR _poArgs$[ebp]
  00091	e8 00 00 00 00	 call	 ?PyTuple_GetFloat@@YA_NPAU_object@@HPAM@Z ; PyTuple_GetFloat
  00096	83 c4 0c	 add	 esp, 12			; 0000000cH
  00099	0f b6 c0	 movzx	 eax, al
  0009c	85 c0		 test	 eax, eax
  0009e	75 07		 jne	 SHORT $LN6@grpSetImag

; 255  : 		return Py_BadArgument();

  000a0	e8 00 00 00 00	 call	 ?Py_BadArgument@@YAPAU_object@@XZ ; Py_BadArgument
  000a5	eb 39		 jmp	 SHORT $LN1@grpSetImag
$LN6@grpSetImag:

; 256  : 
; 257  : 	pImageInstance->SetDiffuseColor(r, g, b, a);

  000a7	51		 push	 ecx
  000a8	f3 0f 10 45 fc	 movss	 xmm0, DWORD PTR _a$[ebp]
  000ad	f3 0f 11 04 24	 movss	 DWORD PTR [esp], xmm0
  000b2	51		 push	 ecx
  000b3	f3 0f 10 45 f8	 movss	 xmm0, DWORD PTR _b$[ebp]
  000b8	f3 0f 11 04 24	 movss	 DWORD PTR [esp], xmm0
  000bd	51		 push	 ecx
  000be	f3 0f 10 45 f4	 movss	 xmm0, DWORD PTR _g$[ebp]
  000c3	f3 0f 11 04 24	 movss	 DWORD PTR [esp], xmm0
  000c8	51		 push	 ecx
  000c9	f3 0f 10 45 f0	 movss	 xmm0, DWORD PTR _r$[ebp]
  000ce	f3 0f 11 04 24	 movss	 DWORD PTR [esp], xmm0
  000d3	8b 4d ec	 mov	 ecx, DWORD PTR _pImageInstance$[ebp]
  000d6	e8 00 00 00 00	 call	 ?SetDiffuseColor@CGraphicImageInstance@@QAEXMMMM@Z ; CGraphicImageInstance::SetDiffuseColor

; 258  : 	return Py_BuildNone();

  000db	e8 00 00 00 00	 call	 ?Py_BuildNone@@YAPAU_object@@XZ ; Py_BuildNone
$LN1@grpSetImag:

; 259  : }

  000e0	c9		 leave
  000e1	c3		 ret	 0
?grpSetImageDiffuseColor@@YAPAU_object@@PAU1@0@Z ENDP	; grpSetImageDiffuseColor
_TEXT	ENDS
; Function compile flags: /Odspy
; File D:\Metin2 Server Files\mainline\SRC_2014\Metin2Client\eterPythonLib\PythonGraphicImageModule.cpp
;	COMDAT ?grpSetRenderingRect@@YAPAU_object@@PAU1@0@Z
_TEXT	SEGMENT
_pImageInstance$ = -20					; size = 4
_fLeft$ = -16						; size = 4
_fTop$ = -12						; size = 4
_fRight$ = -8						; size = 4
_fBottom$ = -4						; size = 4
_poSelf$ = 8						; size = 4
_poArgs$ = 12						; size = 4
?grpSetRenderingRect@@YAPAU_object@@PAU1@0@Z PROC	; grpSetRenderingRect, COMDAT

; 216  : {

  00000	55		 push	 ebp
  00001	8b ec		 mov	 ebp, esp
  00003	83 ec 14	 sub	 esp, 20			; 00000014H

; 217  : 	CGraphicExpandedImageInstance * pImageInstance;
; 218  : 	if (!PyTuple_GetExpandedImageInstance(poArgs, 0, &pImageInstance))

  00006	8d 45 ec	 lea	 eax, DWORD PTR _pImageInstance$[ebp]
  00009	50		 push	 eax
  0000a	6a 00		 push	 0
  0000c	ff 75 0c	 push	 DWORD PTR _poArgs$[ebp]
  0000f	e8 00 00 00 00	 call	 ?PyTuple_GetExpandedImageInstance@@YA_NPAU_object@@HPAPAVCGraphicExpandedImageInstance@@@Z ; PyTuple_GetExpandedImageInstance
  00014	83 c4 0c	 add	 esp, 12			; 0000000cH
  00017	0f b6 c0	 movzx	 eax, al
  0001a	85 c0		 test	 eax, eax
  0001c	75 0a		 jne	 SHORT $LN2@grpSetRend

; 219  : 		return Py_BadArgument();

  0001e	e8 00 00 00 00	 call	 ?Py_BadArgument@@YAPAU_object@@XZ ; Py_BadArgument
  00023	e9 b8 00 00 00	 jmp	 $LN1@grpSetRend
$LN2@grpSetRend:

; 220  : 	
; 221  : 	float fLeft;
; 222  : 	if (!PyTuple_GetFloat(poArgs, 1, &fLeft))

  00028	8d 45 f0	 lea	 eax, DWORD PTR _fLeft$[ebp]
  0002b	50		 push	 eax
  0002c	6a 01		 push	 1
  0002e	ff 75 0c	 push	 DWORD PTR _poArgs$[ebp]
  00031	e8 00 00 00 00	 call	 ?PyTuple_GetFloat@@YA_NPAU_object@@HPAM@Z ; PyTuple_GetFloat
  00036	83 c4 0c	 add	 esp, 12			; 0000000cH
  00039	0f b6 c0	 movzx	 eax, al
  0003c	85 c0		 test	 eax, eax
  0003e	75 0a		 jne	 SHORT $LN3@grpSetRend

; 223  : 		return Py_BadArgument();

  00040	e8 00 00 00 00	 call	 ?Py_BadArgument@@YAPAU_object@@XZ ; Py_BadArgument
  00045	e9 96 00 00 00	 jmp	 $LN1@grpSetRend
$LN3@grpSetRend:

; 224  : 	float fTop;
; 225  : 	if (!PyTuple_GetFloat(poArgs, 2, &fTop))

  0004a	8d 45 f4	 lea	 eax, DWORD PTR _fTop$[ebp]
  0004d	50		 push	 eax
  0004e	6a 02		 push	 2
  00050	ff 75 0c	 push	 DWORD PTR _poArgs$[ebp]
  00053	e8 00 00 00 00	 call	 ?PyTuple_GetFloat@@YA_NPAU_object@@HPAM@Z ; PyTuple_GetFloat
  00058	83 c4 0c	 add	 esp, 12			; 0000000cH
  0005b	0f b6 c0	 movzx	 eax, al
  0005e	85 c0		 test	 eax, eax
  00060	75 07		 jne	 SHORT $LN4@grpSetRend

; 226  : 		return Py_BadArgument();

  00062	e8 00 00 00 00	 call	 ?Py_BadArgument@@YAPAU_object@@XZ ; Py_BadArgument
  00067	eb 77		 jmp	 SHORT $LN1@grpSetRend
$LN4@grpSetRend:

; 227  : 	float fRight;
; 228  : 	if (!PyTuple_GetFloat(poArgs, 3, &fRight))

  00069	8d 45 f8	 lea	 eax, DWORD PTR _fRight$[ebp]
  0006c	50		 push	 eax
  0006d	6a 03		 push	 3
  0006f	ff 75 0c	 push	 DWORD PTR _poArgs$[ebp]
  00072	e8 00 00 00 00	 call	 ?PyTuple_GetFloat@@YA_NPAU_object@@HPAM@Z ; PyTuple_GetFloat
  00077	83 c4 0c	 add	 esp, 12			; 0000000cH
  0007a	0f b6 c0	 movzx	 eax, al
  0007d	85 c0		 test	 eax, eax
  0007f	75 07		 jne	 SHORT $LN5@grpSetRend

; 229  : 		return Py_BadArgument();

  00081	e8 00 00 00 00	 call	 ?Py_BadArgument@@YAPAU_object@@XZ ; Py_BadArgument
  00086	eb 58		 jmp	 SHORT $LN1@grpSetRend
$LN5@grpSetRend:

; 230  : 	float fBottom;
; 231  : 	if (!PyTuple_GetFloat(poArgs, 4, &fBottom))

  00088	8d 45 fc	 lea	 eax, DWORD PTR _fBottom$[ebp]
  0008b	50		 push	 eax
  0008c	6a 04		 push	 4
  0008e	ff 75 0c	 push	 DWORD PTR _poArgs$[ebp]
  00091	e8 00 00 00 00	 call	 ?PyTuple_GetFloat@@YA_NPAU_object@@HPAM@Z ; PyTuple_GetFloat
  00096	83 c4 0c	 add	 esp, 12			; 0000000cH
  00099	0f b6 c0	 movzx	 eax, al
  0009c	85 c0		 test	 eax, eax
  0009e	75 07		 jne	 SHORT $LN6@grpSetRend

; 232  : 		return Py_BadArgument();

  000a0	e8 00 00 00 00	 call	 ?Py_BadArgument@@YAPAU_object@@XZ ; Py_BadArgument
  000a5	eb 39		 jmp	 SHORT $LN1@grpSetRend
$LN6@grpSetRend:

; 233  : 
; 234  : 	pImageInstance->SetRenderingRect(fLeft, fTop, fRight, fBottom);

  000a7	51		 push	 ecx
  000a8	f3 0f 10 45 fc	 movss	 xmm0, DWORD PTR _fBottom$[ebp]
  000ad	f3 0f 11 04 24	 movss	 DWORD PTR [esp], xmm0
  000b2	51		 push	 ecx
  000b3	f3 0f 10 45 f8	 movss	 xmm0, DWORD PTR _fRight$[ebp]
  000b8	f3 0f 11 04 24	 movss	 DWORD PTR [esp], xmm0
  000bd	51		 push	 ecx
  000be	f3 0f 10 45 f4	 movss	 xmm0, DWORD PTR _fTop$[ebp]
  000c3	f3 0f 11 04 24	 movss	 DWORD PTR [esp], xmm0
  000c8	51		 push	 ecx
  000c9	f3 0f 10 45 f0	 movss	 xmm0, DWORD PTR _fLeft$[ebp]
  000ce	f3 0f 11 04 24	 movss	 DWORD PTR [esp], xmm0
  000d3	8b 4d ec	 mov	 ecx, DWORD PTR _pImageInstance$[ebp]
  000d6	e8 00 00 00 00	 call	 ?SetRenderingRect@CGraphicExpandedImageInstance@@QAEXMMMM@Z ; CGraphicExpandedImageInstance::SetRenderingRect

; 235  : 	return Py_BuildNone();

  000db	e8 00 00 00 00	 call	 ?Py_BuildNone@@YAPAU_object@@XZ ; Py_BuildNone
$LN1@grpSetRend:

; 236  : }

  000e0	c9		 leave
  000e1	c3		 ret	 0
?grpSetRenderingRect@@YAPAU_object@@PAU1@0@Z ENDP	; grpSetRenderingRect
_TEXT	ENDS
; Function compile flags: /Odspy
; File D:\Metin2 Server Files\mainline\SRC_2014\Metin2Client\eterPythonLib\PythonGraphicImageModule.cpp
;	COMDAT ?grpSetImageScale@@YAPAU_object@@PAU1@0@Z
_TEXT	SEGMENT
_pImageInstance$ = -12					; size = 4
_x$ = -8						; size = 4
_y$ = -4						; size = 4
_poSelf$ = 8						; size = 4
_poArgs$ = 12						; size = 4
?grpSetImageScale@@YAPAU_object@@PAU1@0@Z PROC		; grpSetImageScale, COMDAT

; 199  : {

  00000	55		 push	 ebp
  00001	8b ec		 mov	 ebp, esp
  00003	83 ec 0c	 sub	 esp, 12			; 0000000cH

; 200  : 	CGraphicExpandedImageInstance * pImageInstance;
; 201  : 	if (!PyTuple_GetExpandedImageInstance(poArgs, 0, &pImageInstance))

  00006	8d 45 f4	 lea	 eax, DWORD PTR _pImageInstance$[ebp]
  00009	50		 push	 eax
  0000a	6a 00		 push	 0
  0000c	ff 75 0c	 push	 DWORD PTR _poArgs$[ebp]
  0000f	e8 00 00 00 00	 call	 ?PyTuple_GetExpandedImageInstance@@YA_NPAU_object@@HPAPAVCGraphicExpandedImageInstance@@@Z ; PyTuple_GetExpandedImageInstance
  00014	83 c4 0c	 add	 esp, 12			; 0000000cH
  00017	0f b6 c0	 movzx	 eax, al
  0001a	85 c0		 test	 eax, eax
  0001c	75 07		 jne	 SHORT $LN2@grpSetImag

; 202  : 		return Py_BadArgument();

  0001e	e8 00 00 00 00	 call	 ?Py_BadArgument@@YAPAU_object@@XZ ; Py_BadArgument
  00023	eb 61		 jmp	 SHORT $LN1@grpSetImag
$LN2@grpSetImag:

; 203  : 	
; 204  : 	float x;
; 205  : 	if (!PyTuple_GetFloat(poArgs, 1, &x))

  00025	8d 45 f8	 lea	 eax, DWORD PTR _x$[ebp]
  00028	50		 push	 eax
  00029	6a 01		 push	 1
  0002b	ff 75 0c	 push	 DWORD PTR _poArgs$[ebp]
  0002e	e8 00 00 00 00	 call	 ?PyTuple_GetFloat@@YA_NPAU_object@@HPAM@Z ; PyTuple_GetFloat
  00033	83 c4 0c	 add	 esp, 12			; 0000000cH
  00036	0f b6 c0	 movzx	 eax, al
  00039	85 c0		 test	 eax, eax
  0003b	75 07		 jne	 SHORT $LN3@grpSetImag

; 206  : 		return Py_BadArgument();

  0003d	e8 00 00 00 00	 call	 ?Py_BadArgument@@YAPAU_object@@XZ ; Py_BadArgument
  00042	eb 42		 jmp	 SHORT $LN1@grpSetImag
$LN3@grpSetImag:

; 207  : 	float y;
; 208  : 	if (!PyTuple_GetFloat(poArgs, 2, &y))

  00044	8d 45 fc	 lea	 eax, DWORD PTR _y$[ebp]
  00047	50		 push	 eax
  00048	6a 02		 push	 2
  0004a	ff 75 0c	 push	 DWORD PTR _poArgs$[ebp]
  0004d	e8 00 00 00 00	 call	 ?PyTuple_GetFloat@@YA_NPAU_object@@HPAM@Z ; PyTuple_GetFloat
  00052	83 c4 0c	 add	 esp, 12			; 0000000cH
  00055	0f b6 c0	 movzx	 eax, al
  00058	85 c0		 test	 eax, eax
  0005a	75 07		 jne	 SHORT $LN4@grpSetImag

; 209  : 		return Py_BadArgument();

  0005c	e8 00 00 00 00	 call	 ?Py_BadArgument@@YAPAU_object@@XZ ; Py_BadArgument
  00061	eb 23		 jmp	 SHORT $LN1@grpSetImag
$LN4@grpSetImag:

; 210  : 
; 211  : 	pImageInstance->SetScale(x, y);

  00063	51		 push	 ecx
  00064	f3 0f 10 45 fc	 movss	 xmm0, DWORD PTR _y$[ebp]
  00069	f3 0f 11 04 24	 movss	 DWORD PTR [esp], xmm0
  0006e	51		 push	 ecx
  0006f	f3 0f 10 45 f8	 movss	 xmm0, DWORD PTR _x$[ebp]
  00074	f3 0f 11 04 24	 movss	 DWORD PTR [esp], xmm0
  00079	8b 4d f4	 mov	 ecx, DWORD PTR _pImageInstance$[ebp]
  0007c	e8 00 00 00 00	 call	 ?SetScale@CGraphicExpandedImageInstance@@QAEXMM@Z ; CGraphicExpandedImageInstance::SetScale

; 212  : 	return Py_BuildNone();

  00081	e8 00 00 00 00	 call	 ?Py_BuildNone@@YAPAU_object@@XZ ; Py_BuildNone
$LN1@grpSetImag:

; 213  : }

  00086	c9		 leave
  00087	c3		 ret	 0
?grpSetImageScale@@YAPAU_object@@PAU1@0@Z ENDP		; grpSetImageScale
_TEXT	ENDS
; Function compile flags: /Odspy
; File D:\Metin2 Server Files\mainline\SRC_2014\Metin2Client\eterPythonLib\PythonGraphicImageModule.cpp
;	COMDAT ?grpSetImageRotation@@YAPAU_object@@PAU1@0@Z
_TEXT	SEGMENT
_pImageInstance$ = -8					; size = 4
_Degree$ = -4						; size = 4
_poSelf$ = 8						; size = 4
_poArgs$ = 12						; size = 4
?grpSetImageRotation@@YAPAU_object@@PAU1@0@Z PROC	; grpSetImageRotation, COMDAT

; 185  : {

  00000	55		 push	 ebp
  00001	8b ec		 mov	 ebp, esp
  00003	51		 push	 ecx
  00004	51		 push	 ecx

; 186  : 	CGraphicExpandedImageInstance * pImageInstance;
; 187  : 	if (!PyTuple_GetExpandedImageInstance(poArgs, 0, &pImageInstance))

  00005	8d 45 f8	 lea	 eax, DWORD PTR _pImageInstance$[ebp]
  00008	50		 push	 eax
  00009	6a 00		 push	 0
  0000b	ff 75 0c	 push	 DWORD PTR _poArgs$[ebp]
  0000e	e8 00 00 00 00	 call	 ?PyTuple_GetExpandedImageInstance@@YA_NPAU_object@@HPAPAVCGraphicExpandedImageInstance@@@Z ; PyTuple_GetExpandedImageInstance
  00013	83 c4 0c	 add	 esp, 12			; 0000000cH
  00016	0f b6 c0	 movzx	 eax, al
  00019	85 c0		 test	 eax, eax
  0001b	75 07		 jne	 SHORT $LN2@grpSetImag

; 188  : 		return Py_BadArgument();

  0001d	e8 00 00 00 00	 call	 ?Py_BadArgument@@YAPAU_object@@XZ ; Py_BadArgument
  00022	eb 37		 jmp	 SHORT $LN1@grpSetImag
$LN2@grpSetImag:

; 189  : 
; 190  : 	float Degree;
; 191  : 	if (!PyTuple_GetFloat(poArgs, 1, &Degree))

  00024	8d 45 fc	 lea	 eax, DWORD PTR _Degree$[ebp]
  00027	50		 push	 eax
  00028	6a 01		 push	 1
  0002a	ff 75 0c	 push	 DWORD PTR _poArgs$[ebp]
  0002d	e8 00 00 00 00	 call	 ?PyTuple_GetFloat@@YA_NPAU_object@@HPAM@Z ; PyTuple_GetFloat
  00032	83 c4 0c	 add	 esp, 12			; 0000000cH
  00035	0f b6 c0	 movzx	 eax, al
  00038	85 c0		 test	 eax, eax
  0003a	75 07		 jne	 SHORT $LN3@grpSetImag

; 192  : 		return Py_BadArgument();

  0003c	e8 00 00 00 00	 call	 ?Py_BadArgument@@YAPAU_object@@XZ ; Py_BadArgument
  00041	eb 18		 jmp	 SHORT $LN1@grpSetImag
$LN3@grpSetImag:

; 193  : 
; 194  : 	pImageInstance->SetRotation(Degree);

  00043	51		 push	 ecx
  00044	f3 0f 10 45 fc	 movss	 xmm0, DWORD PTR _Degree$[ebp]
  00049	f3 0f 11 04 24	 movss	 DWORD PTR [esp], xmm0
  0004e	8b 4d f8	 mov	 ecx, DWORD PTR _pImageInstance$[ebp]
  00051	e8 00 00 00 00	 call	 ?SetRotation@CGraphicExpandedImageInstance@@QAEXM@Z ; CGraphicExpandedImageInstance::SetRotation

; 195  : 	return Py_BuildNone();

  00056	e8 00 00 00 00	 call	 ?Py_BuildNone@@YAPAU_object@@XZ ; Py_BuildNone
$LN1@grpSetImag:

; 196  : }

  0005b	c9		 leave
  0005c	c3		 ret	 0
?grpSetImageRotation@@YAPAU_object@@PAU1@0@Z ENDP	; grpSetImageRotation
_TEXT	ENDS
; Function compile flags: /Odspy
; File D:\Metin2 Server Files\mainline\SRC_2014\Metin2Client\eterPythonLib\PythonGraphicImageModule.cpp
;	COMDAT ?grpSetImageOrigin@@YAPAU_object@@PAU1@0@Z
_TEXT	SEGMENT
_pImageInstance$ = -12					; size = 4
_x$ = -8						; size = 4
_y$ = -4						; size = 4
_poSelf$ = 8						; size = 4
_poArgs$ = 12						; size = 4
?grpSetImageOrigin@@YAPAU_object@@PAU1@0@Z PROC		; grpSetImageOrigin, COMDAT

; 168  : {

  00000	55		 push	 ebp
  00001	8b ec		 mov	 ebp, esp
  00003	83 ec 0c	 sub	 esp, 12			; 0000000cH

; 169  : 	CGraphicExpandedImageInstance * pImageInstance;
; 170  : 	if (!PyTuple_GetExpandedImageInstance(poArgs, 0, &pImageInstance))

  00006	8d 45 f4	 lea	 eax, DWORD PTR _pImageInstance$[ebp]
  00009	50		 push	 eax
  0000a	6a 00		 push	 0
  0000c	ff 75 0c	 push	 DWORD PTR _poArgs$[ebp]
  0000f	e8 00 00 00 00	 call	 ?PyTuple_GetExpandedImageInstance@@YA_NPAU_object@@HPAPAVCGraphicExpandedImageInstance@@@Z ; PyTuple_GetExpandedImageInstance
  00014	83 c4 0c	 add	 esp, 12			; 0000000cH
  00017	0f b6 c0	 movzx	 eax, al
  0001a	85 c0		 test	 eax, eax
  0001c	75 07		 jne	 SHORT $LN2@grpSetImag

; 171  : 		return Py_BadArgument();

  0001e	e8 00 00 00 00	 call	 ?Py_BadArgument@@YAPAU_object@@XZ ; Py_BadArgument
  00023	eb 61		 jmp	 SHORT $LN1@grpSetImag
$LN2@grpSetImag:

; 172  : 
; 173  : 	float x;
; 174  : 	if (!PyTuple_GetFloat(poArgs, 1, &x))

  00025	8d 45 f8	 lea	 eax, DWORD PTR _x$[ebp]
  00028	50		 push	 eax
  00029	6a 01		 push	 1
  0002b	ff 75 0c	 push	 DWORD PTR _poArgs$[ebp]
  0002e	e8 00 00 00 00	 call	 ?PyTuple_GetFloat@@YA_NPAU_object@@HPAM@Z ; PyTuple_GetFloat
  00033	83 c4 0c	 add	 esp, 12			; 0000000cH
  00036	0f b6 c0	 movzx	 eax, al
  00039	85 c0		 test	 eax, eax
  0003b	75 07		 jne	 SHORT $LN3@grpSetImag

; 175  : 		return Py_BadArgument();

  0003d	e8 00 00 00 00	 call	 ?Py_BadArgument@@YAPAU_object@@XZ ; Py_BadArgument
  00042	eb 42		 jmp	 SHORT $LN1@grpSetImag
$LN3@grpSetImag:

; 176  : 	float y;
; 177  : 	if (!PyTuple_GetFloat(poArgs, 2, &y))

  00044	8d 45 fc	 lea	 eax, DWORD PTR _y$[ebp]
  00047	50		 push	 eax
  00048	6a 02		 push	 2
  0004a	ff 75 0c	 push	 DWORD PTR _poArgs$[ebp]
  0004d	e8 00 00 00 00	 call	 ?PyTuple_GetFloat@@YA_NPAU_object@@HPAM@Z ; PyTuple_GetFloat
  00052	83 c4 0c	 add	 esp, 12			; 0000000cH
  00055	0f b6 c0	 movzx	 eax, al
  00058	85 c0		 test	 eax, eax
  0005a	75 07		 jne	 SHORT $LN4@grpSetImag

; 178  : 		return Py_BadArgument();

  0005c	e8 00 00 00 00	 call	 ?Py_BadArgument@@YAPAU_object@@XZ ; Py_BadArgument
  00061	eb 23		 jmp	 SHORT $LN1@grpSetImag
$LN4@grpSetImag:

; 179  : 
; 180  : 	pImageInstance->SetOrigin(x, y);

  00063	51		 push	 ecx
  00064	f3 0f 10 45 fc	 movss	 xmm0, DWORD PTR _y$[ebp]
  00069	f3 0f 11 04 24	 movss	 DWORD PTR [esp], xmm0
  0006e	51		 push	 ecx
  0006f	f3 0f 10 45 f8	 movss	 xmm0, DWORD PTR _x$[ebp]
  00074	f3 0f 11 04 24	 movss	 DWORD PTR [esp], xmm0
  00079	8b 4d f4	 mov	 ecx, DWORD PTR _pImageInstance$[ebp]
  0007c	e8 00 00 00 00	 call	 ?SetOrigin@CGraphicExpandedImageInstance@@QAEXMM@Z ; CGraphicExpandedImageInstance::SetOrigin

; 181  : 	return Py_BuildNone();

  00081	e8 00 00 00 00	 call	 ?Py_BuildNone@@YAPAU_object@@XZ ; Py_BuildNone
$LN1@grpSetImag:

; 182  : }

  00086	c9		 leave
  00087	c3		 ret	 0
?grpSetImageOrigin@@YAPAU_object@@PAU1@0@Z ENDP		; grpSetImageOrigin
_TEXT	ENDS
; Function compile flags: /Odspy
; File D:\Metin2 Server Files\mainline\SRC_2014\Metin2Client\eterPythonLib\PythonGraphicImageModule.cpp
;	COMDAT ?grpSetImagePosition@@YAPAU_object@@PAU1@0@Z
_TEXT	SEGMENT
_pImageInstance$ = -12					; size = 4
_x$ = -8						; size = 4
_y$ = -4						; size = 4
_poSelf$ = 8						; size = 4
_poArgs$ = 12						; size = 4
?grpSetImagePosition@@YAPAU_object@@PAU1@0@Z PROC	; grpSetImagePosition, COMDAT

; 150  : {

  00000	55		 push	 ebp
  00001	8b ec		 mov	 ebp, esp
  00003	83 ec 0c	 sub	 esp, 12			; 0000000cH

; 151  : 	CGraphicImageInstance* pImageInstance;
; 152  : 	if (!PyTuple_GetImageInstance(poArgs, 0, &pImageInstance))

  00006	8d 45 f4	 lea	 eax, DWORD PTR _pImageInstance$[ebp]
  00009	50		 push	 eax
  0000a	6a 00		 push	 0
  0000c	ff 75 0c	 push	 DWORD PTR _poArgs$[ebp]
  0000f	e8 00 00 00 00	 call	 ?PyTuple_GetImageInstance@@YA_NPAU_object@@HPAPAVCGraphicImageInstance@@@Z ; PyTuple_GetImageInstance
  00014	83 c4 0c	 add	 esp, 12			; 0000000cH
  00017	0f b6 c0	 movzx	 eax, al
  0001a	85 c0		 test	 eax, eax
  0001c	75 07		 jne	 SHORT $LN2@grpSetImag

; 153  : 		return Py_BadArgument();

  0001e	e8 00 00 00 00	 call	 ?Py_BadArgument@@YAPAU_object@@XZ ; Py_BadArgument
  00023	eb 61		 jmp	 SHORT $LN1@grpSetImag
$LN2@grpSetImag:

; 154  : 	
; 155  : 	float x;
; 156  : 	if (!PyTuple_GetFloat(poArgs, 1, &x))

  00025	8d 45 f8	 lea	 eax, DWORD PTR _x$[ebp]
  00028	50		 push	 eax
  00029	6a 01		 push	 1
  0002b	ff 75 0c	 push	 DWORD PTR _poArgs$[ebp]
  0002e	e8 00 00 00 00	 call	 ?PyTuple_GetFloat@@YA_NPAU_object@@HPAM@Z ; PyTuple_GetFloat
  00033	83 c4 0c	 add	 esp, 12			; 0000000cH
  00036	0f b6 c0	 movzx	 eax, al
  00039	85 c0		 test	 eax, eax
  0003b	75 07		 jne	 SHORT $LN3@grpSetImag

; 157  : 		return Py_BadArgument();

  0003d	e8 00 00 00 00	 call	 ?Py_BadArgument@@YAPAU_object@@XZ ; Py_BadArgument
  00042	eb 42		 jmp	 SHORT $LN1@grpSetImag
$LN3@grpSetImag:

; 158  : 
; 159  : 	float y;
; 160  : 	if (!PyTuple_GetFloat(poArgs, 2, &y))

  00044	8d 45 fc	 lea	 eax, DWORD PTR _y$[ebp]
  00047	50		 push	 eax
  00048	6a 02		 push	 2
  0004a	ff 75 0c	 push	 DWORD PTR _poArgs$[ebp]
  0004d	e8 00 00 00 00	 call	 ?PyTuple_GetFloat@@YA_NPAU_object@@HPAM@Z ; PyTuple_GetFloat
  00052	83 c4 0c	 add	 esp, 12			; 0000000cH
  00055	0f b6 c0	 movzx	 eax, al
  00058	85 c0		 test	 eax, eax
  0005a	75 07		 jne	 SHORT $LN4@grpSetImag

; 161  : 		return Py_BadArgument();

  0005c	e8 00 00 00 00	 call	 ?Py_BadArgument@@YAPAU_object@@XZ ; Py_BadArgument
  00061	eb 23		 jmp	 SHORT $LN1@grpSetImag
$LN4@grpSetImag:

; 162  : 
; 163  : 	pImageInstance->SetPosition(x, y);

  00063	51		 push	 ecx
  00064	f3 0f 10 45 fc	 movss	 xmm0, DWORD PTR _y$[ebp]
  00069	f3 0f 11 04 24	 movss	 DWORD PTR [esp], xmm0
  0006e	51		 push	 ecx
  0006f	f3 0f 10 45 f8	 movss	 xmm0, DWORD PTR _x$[ebp]
  00074	f3 0f 11 04 24	 movss	 DWORD PTR [esp], xmm0
  00079	8b 4d f4	 mov	 ecx, DWORD PTR _pImageInstance$[ebp]
  0007c	e8 00 00 00 00	 call	 ?SetPosition@CGraphicImageInstance@@QAEXMM@Z ; CGraphicImageInstance::SetPosition

; 164  : 	return Py_BuildNone();

  00081	e8 00 00 00 00	 call	 ?Py_BuildNone@@YAPAU_object@@XZ ; Py_BuildNone
$LN1@grpSetImag:

; 165  : }

  00086	c9		 leave
  00087	c3		 ret	 0
?grpSetImagePosition@@YAPAU_object@@PAU1@0@Z ENDP	; grpSetImagePosition
_TEXT	ENDS
; Function compile flags: /Odspy
; File D:\Metin2 Server Files\mainline\SRC_2014\Metin2Client\eterPythonLib\PythonGraphicImageModule.cpp
;	COMDAT ?grpImageRender@@YAPAU_object@@PAU1@0@Z
_TEXT	SEGMENT
_pImageInstance$ = -4					; size = 4
_poSelf$ = 8						; size = 4
_poArgs$ = 12						; size = 4
?grpImageRender@@YAPAU_object@@PAU1@0@Z PROC		; grpImageRender, COMDAT

; 140  : {

  00000	55		 push	 ebp
  00001	8b ec		 mov	 ebp, esp
  00003	51		 push	 ecx

; 141  : 	CGraphicImageInstance* pImageInstance;
; 142  : 	if (!PyTuple_GetImageInstance(poArgs, 0, &pImageInstance))

  00004	8d 45 fc	 lea	 eax, DWORD PTR _pImageInstance$[ebp]
  00007	50		 push	 eax
  00008	6a 00		 push	 0
  0000a	ff 75 0c	 push	 DWORD PTR _poArgs$[ebp]
  0000d	e8 00 00 00 00	 call	 ?PyTuple_GetImageInstance@@YA_NPAU_object@@HPAPAVCGraphicImageInstance@@@Z ; PyTuple_GetImageInstance
  00012	83 c4 0c	 add	 esp, 12			; 0000000cH
  00015	0f b6 c0	 movzx	 eax, al
  00018	85 c0		 test	 eax, eax
  0001a	75 07		 jne	 SHORT $LN2@grpImageRe

; 143  : 		return Py_BadArgument();

  0001c	e8 00 00 00 00	 call	 ?Py_BadArgument@@YAPAU_object@@XZ ; Py_BadArgument
  00021	eb 0d		 jmp	 SHORT $LN1@grpImageRe
$LN2@grpImageRe:

; 144  : 
; 145  : 	pImageInstance->Render();

  00023	8b 4d fc	 mov	 ecx, DWORD PTR _pImageInstance$[ebp]
  00026	e8 00 00 00 00	 call	 ?Render@CGraphicImageInstance@@QAEXXZ ; CGraphicImageInstance::Render

; 146  : 	return Py_BuildNone();

  0002b	e8 00 00 00 00	 call	 ?Py_BuildNone@@YAPAU_object@@XZ ; Py_BuildNone
$LN1@grpImageRe:

; 147  : }

  00030	c9		 leave
  00031	c3		 ret	 0
?grpImageRender@@YAPAU_object@@PAU1@0@Z ENDP		; grpImageRender
_TEXT	ENDS
; Function compile flags: /Odspy
; File D:\Metin2 Server Files\mainline\SRC_2014\Metin2Client\eterPythonLib\PythonGraphicImageModule.cpp
; File D:\Metin2 Server Files\mainline\SRC_2014\Metin2Client\eterBase\Singleton.h
; File D:\Metin2 Server Files\mainline\SRC_2014\Metin2Client\eterPythonLib\PythonGraphicImageModule.cpp
;	COMDAT ?grpImageSetFileName@@YAPAU_object@@PAU1@0@Z
_TEXT	SEGMENT
_pImageInstance$ = -16					; size = 4
$T1 = -12						; size = 4
_pResource$ = -8					; size = 4
_szFileName$ = -4					; size = 4
_poSelf$ = 8						; size = 4
_poArgs$ = 12						; size = 4
?grpImageSetFileName@@YAPAU_object@@PAU1@0@Z PROC	; grpImageSetFileName, COMDAT

; 121  : {

  00000	55		 push	 ebp
  00001	8b ec		 mov	 ebp, esp
  00003	83 ec 10	 sub	 esp, 16			; 00000010H

; 122  : 	CGraphicImageInstance * pImageInstance;
; 123  : 	if (!PyTuple_GetImageInstance(poArgs, 0, &pImageInstance))

  00006	8d 45 f0	 lea	 eax, DWORD PTR _pImageInstance$[ebp]
  00009	50		 push	 eax
  0000a	6a 00		 push	 0
  0000c	ff 75 0c	 push	 DWORD PTR _poArgs$[ebp]
  0000f	e8 00 00 00 00	 call	 ?PyTuple_GetImageInstance@@YA_NPAU_object@@HPAPAVCGraphicImageInstance@@@Z ; PyTuple_GetImageInstance
  00014	83 c4 0c	 add	 esp, 12			; 0000000cH
  00017	0f b6 c0	 movzx	 eax, al
  0001a	85 c0		 test	 eax, eax
  0001c	75 07		 jne	 SHORT $LN2@grpImageSe

; 124  : 		return Py_BadArgument();

  0001e	e8 00 00 00 00	 call	 ?Py_BadArgument@@YAPAU_object@@XZ ; Py_BadArgument
  00023	eb 6b		 jmp	 SHORT $LN1@grpImageSe
$LN2@grpImageSe:

; 125  : 	
; 126  : 	char * szFileName;
; 127  : 	if (!PyTuple_GetString(poArgs, 1, &szFileName))

  00025	8d 45 fc	 lea	 eax, DWORD PTR _szFileName$[ebp]
  00028	50		 push	 eax
  00029	6a 01		 push	 1
  0002b	ff 75 0c	 push	 DWORD PTR _poArgs$[ebp]
  0002e	e8 00 00 00 00	 call	 ?PyTuple_GetString@@YA_NPAU_object@@HPAPAD@Z ; PyTuple_GetString
  00033	83 c4 0c	 add	 esp, 12			; 0000000cH
  00036	0f b6 c0	 movzx	 eax, al
  00039	85 c0		 test	 eax, eax
  0003b	75 07		 jne	 SHORT $LN3@grpImageSe

; 128  : 		return Py_BadArgument();

  0003d	e8 00 00 00 00	 call	 ?Py_BadArgument@@YAPAU_object@@XZ ; Py_BadArgument
  00042	eb 4c		 jmp	 SHORT $LN1@grpImageSe
$LN3@grpImageSe:
; File D:\Metin2 Server Files\mainline\SRC_2014\Metin2Client\eterBase\Singleton.h

; 27   : 		return (*ms_singleton);

  00044	a1 00 00 00 00	 mov	 eax, DWORD PTR ?ms_singleton@?$CSingleton@VCResourceManager@@@@0PAVCResourceManager@@A ; CSingleton<CResourceManager>::ms_singleton
  00049	89 45 f4	 mov	 DWORD PTR $T1[ebp], eax
; File D:\Metin2 Server Files\mainline\SRC_2014\Metin2Client\eterPythonLib\PythonGraphicImageModule.cpp

; 130  : 	CResource * pResource = CResourceManager::Instance().GetResourcePointer(szFileName);

  0004c	ff 75 fc	 push	 DWORD PTR _szFileName$[ebp]
  0004f	8b 4d f4	 mov	 ecx, DWORD PTR $T1[ebp]
  00052	e8 00 00 00 00	 call	 ?GetResourcePointer@CResourceManager@@QAEPAVCResource@@PBD@Z ; CResourceManager::GetResourcePointer
  00057	89 45 f8	 mov	 DWORD PTR _pResource$[ebp], eax

; 131  : 
; 132  : 	if (!pResource->IsType(CGraphicImage::Type()))

  0005a	e8 00 00 00 00	 call	 ?Type@CGraphicImage@@SAKXZ ; CGraphicImage::Type
  0005f	50		 push	 eax
  00060	8b 4d f8	 mov	 ecx, DWORD PTR _pResource$[ebp]
  00063	e8 00 00 00 00	 call	 ?IsType@CResource@@QAE_NK@Z ; CResource::IsType
  00068	0f b6 c0	 movzx	 eax, al
  0006b	85 c0		 test	 eax, eax
  0006d	75 11		 jne	 SHORT $LN4@grpImageSe

; 133  : 		return Py_BuildException("Resource is not an image (filename: %s)", szFileName);

  0006f	ff 75 fc	 push	 DWORD PTR _szFileName$[ebp]
  00072	68 00 00 00 00	 push	 OFFSET ??_C@_0CI@BMEPHKIH@Resource?5is?5not?5an?5image?5?$CIfilen@
  00077	e8 00 00 00 00	 call	 ?Py_BuildException@@YAPAU_object@@PBDZZ ; Py_BuildException
  0007c	59		 pop	 ecx
  0007d	59		 pop	 ecx
  0007e	eb 10		 jmp	 SHORT $LN1@grpImageSe
$LN4@grpImageSe:

; 134  : 
; 135  : 	pImageInstance->SetImagePointer(static_cast<CGraphicImage*>(pResource));

  00080	ff 75 f8	 push	 DWORD PTR _pResource$[ebp]
  00083	8b 4d f0	 mov	 ecx, DWORD PTR _pImageInstance$[ebp]
  00086	e8 00 00 00 00	 call	 ?SetImagePointer@CGraphicImageInstance@@QAEXPAVCGraphicImage@@@Z ; CGraphicImageInstance::SetImagePointer

; 136  : 	return Py_BuildNone();

  0008b	e8 00 00 00 00	 call	 ?Py_BuildNone@@YAPAU_object@@XZ ; Py_BuildNone
$LN1@grpImageSe:

; 137  : }

  00090	c9		 leave
  00091	c3		 ret	 0
?grpImageSetFileName@@YAPAU_object@@PAU1@0@Z ENDP	; grpImageSetFileName
_TEXT	ENDS
; Function compile flags: /Odspy
; File D:\Metin2 Server Files\mainline\SRC_2014\Metin2Client\eterPythonLib\PythonGraphicImageModule.cpp
;	COMDAT ?grpImageDeleteExpanded@@YAPAU_object@@PAU1@0@Z
_TEXT	SEGMENT
_pExpandedImageInstance$ = -4				; size = 4
_poSelf$ = 8						; size = 4
_poArgs$ = 12						; size = 4
?grpImageDeleteExpanded@@YAPAU_object@@PAU1@0@Z PROC	; grpImageDeleteExpanded, COMDAT

; 111  : {

  00000	55		 push	 ebp
  00001	8b ec		 mov	 ebp, esp
  00003	51		 push	 ecx

; 112  : 	CGraphicExpandedImageInstance * pExpandedImageInstance;
; 113  : 	if (!PyTuple_GetExpandedImageInstance(poArgs, 0, &pExpandedImageInstance))

  00004	8d 45 fc	 lea	 eax, DWORD PTR _pExpandedImageInstance$[ebp]
  00007	50		 push	 eax
  00008	6a 00		 push	 0
  0000a	ff 75 0c	 push	 DWORD PTR _poArgs$[ebp]
  0000d	e8 00 00 00 00	 call	 ?PyTuple_GetExpandedImageInstance@@YA_NPAU_object@@HPAPAVCGraphicExpandedImageInstance@@@Z ; PyTuple_GetExpandedImageInstance
  00012	83 c4 0c	 add	 esp, 12			; 0000000cH
  00015	0f b6 c0	 movzx	 eax, al
  00018	85 c0		 test	 eax, eax
  0001a	75 07		 jne	 SHORT $LN2@grpImageDe

; 114  : 		return Py_BadArgument();

  0001c	e8 00 00 00 00	 call	 ?Py_BadArgument@@YAPAU_object@@XZ ; Py_BadArgument
  00021	eb 0e		 jmp	 SHORT $LN1@grpImageDe
$LN2@grpImageDe:

; 115  : 
; 116  : 	CGraphicExpandedImageInstance::Delete(pExpandedImageInstance);	

  00023	ff 75 fc	 push	 DWORD PTR _pExpandedImageInstance$[ebp]
  00026	e8 00 00 00 00	 call	 ?Delete@CGraphicExpandedImageInstance@@SAXPAV1@@Z ; CGraphicExpandedImageInstance::Delete
  0002b	59		 pop	 ecx

; 117  : 	return Py_BuildNone();

  0002c	e8 00 00 00 00	 call	 ?Py_BuildNone@@YAPAU_object@@XZ ; Py_BuildNone
$LN1@grpImageDe:

; 118  : }

  00031	c9		 leave
  00032	c3		 ret	 0
?grpImageDeleteExpanded@@YAPAU_object@@PAU1@0@Z ENDP	; grpImageDeleteExpanded
_TEXT	ENDS
; Function compile flags: /Odspy
; File D:\Metin2 Server Files\mainline\SRC_2014\Metin2Client\eterPythonLib\PythonGraphicImageModule.cpp
;	COMDAT ?grpImageDelete@@YAPAU_object@@PAU1@0@Z
_TEXT	SEGMENT
_pImageInstance$ = -4					; size = 4
_poSelf$ = 8						; size = 4
_poArgs$ = 12						; size = 4
?grpImageDelete@@YAPAU_object@@PAU1@0@Z PROC		; grpImageDelete, COMDAT

; 96   : {

  00000	55		 push	 ebp
  00001	8b ec		 mov	 ebp, esp
  00003	51		 push	 ecx

; 97   : 	CGraphicImageInstance * pImageInstance;
; 98   : 
; 99   : 	if (!PyTuple_GetImageInstance(poArgs, 0, &pImageInstance))

  00004	8d 45 fc	 lea	 eax, DWORD PTR _pImageInstance$[ebp]
  00007	50		 push	 eax
  00008	6a 00		 push	 0
  0000a	ff 75 0c	 push	 DWORD PTR _poArgs$[ebp]
  0000d	e8 00 00 00 00	 call	 ?PyTuple_GetImageInstance@@YA_NPAU_object@@HPAPAVCGraphicImageInstance@@@Z ; PyTuple_GetImageInstance
  00012	83 c4 0c	 add	 esp, 12			; 0000000cH
  00015	0f b6 c0	 movzx	 eax, al
  00018	85 c0		 test	 eax, eax
  0001a	75 07		 jne	 SHORT $LN2@grpImageDe

; 100  : 		return Py_BadArgument();

  0001c	e8 00 00 00 00	 call	 ?Py_BadArgument@@YAPAU_object@@XZ ; Py_BadArgument
  00021	eb 1b		 jmp	 SHORT $LN1@grpImageDe
$LN2@grpImageDe:

; 101  : 
; 102  : 	if (!pImageInstance)

  00023	83 7d fc 00	 cmp	 DWORD PTR _pImageInstance$[ebp], 0
  00027	75 07		 jne	 SHORT $LN3@grpImageDe

; 103  : 		return Py_BuildNone();

  00029	e8 00 00 00 00	 call	 ?Py_BuildNone@@YAPAU_object@@XZ ; Py_BuildNone
  0002e	eb 0e		 jmp	 SHORT $LN1@grpImageDe
$LN3@grpImageDe:

; 104  : 
; 105  : 	CGraphicImageInstance::Delete(pImageInstance);

  00030	ff 75 fc	 push	 DWORD PTR _pImageInstance$[ebp]
  00033	e8 00 00 00 00	 call	 ?Delete@CGraphicImageInstance@@SAXPAV1@@Z ; CGraphicImageInstance::Delete
  00038	59		 pop	 ecx

; 106  : 	
; 107  : 	return Py_BuildNone();

  00039	e8 00 00 00 00	 call	 ?Py_BuildNone@@YAPAU_object@@XZ ; Py_BuildNone
$LN1@grpImageDe:

; 108  : }

  0003e	c9		 leave
  0003f	c3		 ret	 0
?grpImageDelete@@YAPAU_object@@PAU1@0@Z ENDP		; grpImageDelete
_TEXT	ENDS
; Function compile flags: /Odspy
; File D:\Metin2 Server Files\mainline\SRC_2014\Metin2Client\eterPythonLib\PythonGraphicImageModule.cpp
;	COMDAT ?grpImageGenerateFromHandle@@YAPAU_object@@PAU1@0@Z
_TEXT	SEGMENT
_iHandle$ = -8						; size = 4
_pImageInstance$ = -4					; size = 4
_poSelf$ = 8						; size = 4
_poArgs$ = 12						; size = 4
?grpImageGenerateFromHandle@@YAPAU_object@@PAU1@0@Z PROC ; grpImageGenerateFromHandle, COMDAT

; 84   : {

  00000	55		 push	 ebp
  00001	8b ec		 mov	 ebp, esp
  00003	51		 push	 ecx
  00004	51		 push	 ecx

; 85   : 	int iHandle;
; 86   : 	if (!PyTuple_GetInteger(poArgs, 0, &iHandle))

  00005	8d 45 f8	 lea	 eax, DWORD PTR _iHandle$[ebp]
  00008	50		 push	 eax
  00009	6a 00		 push	 0
  0000b	ff 75 0c	 push	 DWORD PTR _poArgs$[ebp]
  0000e	e8 00 00 00 00	 call	 ?PyTuple_GetInteger@@YA_NPAU_object@@HPAH@Z ; PyTuple_GetInteger
  00013	83 c4 0c	 add	 esp, 12			; 0000000cH
  00016	0f b6 c0	 movzx	 eax, al
  00019	85 c0		 test	 eax, eax
  0001b	75 07		 jne	 SHORT $LN2@grpImageGe

; 87   : 		return Py_BadArgument();

  0001d	e8 00 00 00 00	 call	 ?Py_BadArgument@@YAPAU_object@@XZ ; Py_BadArgument
  00022	eb 23		 jmp	 SHORT $LN1@grpImageGe
$LN2@grpImageGe:

; 88   : 
; 89   : 	CGraphicImageInstance * pImageInstance = CGraphicImageInstance::New();

  00024	e8 00 00 00 00	 call	 ?New@CGraphicImageInstance@@SAPAV1@XZ ; CGraphicImageInstance::New
  00029	89 45 fc	 mov	 DWORD PTR _pImageInstance$[ebp], eax

; 90   : 	pImageInstance->SetImagePointer((CGraphicImage *)iHandle);

  0002c	ff 75 f8	 push	 DWORD PTR _iHandle$[ebp]
  0002f	8b 4d fc	 mov	 ecx, DWORD PTR _pImageInstance$[ebp]
  00032	e8 00 00 00 00	 call	 ?SetImagePointer@CGraphicImageInstance@@QAEXPAVCGraphicImage@@@Z ; CGraphicImageInstance::SetImagePointer

; 91   : 
; 92   : 	return Py_BuildValue("i", pImageInstance);

  00037	ff 75 fc	 push	 DWORD PTR _pImageInstance$[ebp]
  0003a	68 00 00 00 00	 push	 OFFSET ??_C@_01KBJDNOO@i@
  0003f	ff 15 00 00 00
	00		 call	 DWORD PTR __imp__Py_BuildValue
  00045	59		 pop	 ecx
  00046	59		 pop	 ecx
$LN1@grpImageGe:

; 93   : }

  00047	c9		 leave
  00048	c3		 ret	 0
?grpImageGenerateFromHandle@@YAPAU_object@@PAU1@0@Z ENDP ; grpImageGenerateFromHandle
_TEXT	ENDS
; Function compile flags: /Odspy
; File D:\Metin2 Server Files\mainline\SRC_2014\Metin2Client\eterPythonLib\PythonGraphicImageModule.cpp
; File D:\Metin2 Server Files\mainline\SRC_2014\Metin2Client\eterBase\Singleton.h
; File D:\Metin2 Server Files\mainline\SRC_2014\Metin2Client\eterPythonLib\PythonGraphicImageModule.cpp
;	COMDAT ?grpImageGenerateExpanded@@YAPAU_object@@PAU1@0@Z
_TEXT	SEGMENT
$T1 = -16						; size = 4
_pResource$ = -12					; size = 4
_pImageInstance$ = -8					; size = 4
_szFileName$ = -4					; size = 4
_poSelf$ = 8						; size = 4
_poArgs$ = 12						; size = 4
?grpImageGenerateExpanded@@YAPAU_object@@PAU1@0@Z PROC	; grpImageGenerateExpanded, COMDAT

; 60   : {										  

  00000	55		 push	 ebp
  00001	8b ec		 mov	 ebp, esp
  00003	83 ec 10	 sub	 esp, 16			; 00000010H

; 61   : 	char * szFileName;
; 62   : 	
; 63   : 	if (!PyTuple_GetString(poArgs, 0, &szFileName))

  00006	8d 45 fc	 lea	 eax, DWORD PTR _szFileName$[ebp]
  00009	50		 push	 eax
  0000a	6a 00		 push	 0
  0000c	ff 75 0c	 push	 DWORD PTR _poArgs$[ebp]
  0000f	e8 00 00 00 00	 call	 ?PyTuple_GetString@@YA_NPAU_object@@HPAPAD@Z ; PyTuple_GetString
  00014	83 c4 0c	 add	 esp, 12			; 0000000cH
  00017	0f b6 c0	 movzx	 eax, al
  0001a	85 c0		 test	 eax, eax
  0001c	75 0a		 jne	 SHORT $LN2@grpImageGe

; 64   : 		return Py_BadArgument();

  0001e	e8 00 00 00 00	 call	 ?Py_BadArgument@@YAPAU_object@@XZ ; Py_BadArgument
  00023	e9 9d 00 00 00	 jmp	 $LN1@grpImageGe
$LN2@grpImageGe:

; 65   : 
; 66   : 	if (strlen(szFileName) <= 0)

  00028	ff 75 fc	 push	 DWORD PTR _szFileName$[ebp]
  0002b	e8 00 00 00 00	 call	 _strlen
  00030	59		 pop	 ecx
  00031	85 c0		 test	 eax, eax
  00033	77 11		 ja	 SHORT $LN3@grpImageGe

; 67   : 		return Py_BuildValue("i", 0);

  00035	6a 00		 push	 0
  00037	68 00 00 00 00	 push	 OFFSET ??_C@_01KBJDNOO@i@
  0003c	ff 15 00 00 00
	00		 call	 DWORD PTR __imp__Py_BuildValue
  00042	59		 pop	 ecx
  00043	59		 pop	 ecx
  00044	eb 7f		 jmp	 SHORT $LN1@grpImageGe
$LN3@grpImageGe:
; File D:\Metin2 Server Files\mainline\SRC_2014\Metin2Client\eterBase\Singleton.h

; 27   : 		return (*ms_singleton);

  00046	a1 00 00 00 00	 mov	 eax, DWORD PTR ?ms_singleton@?$CSingleton@VCResourceManager@@@@0PAVCResourceManager@@A ; CSingleton<CResourceManager>::ms_singleton
  0004b	89 45 f0	 mov	 DWORD PTR $T1[ebp], eax
; File D:\Metin2 Server Files\mainline\SRC_2014\Metin2Client\eterPythonLib\PythonGraphicImageModule.cpp

; 69   : 	CResource* pResource = CResourceManager::Instance().GetResourcePointer(szFileName);

  0004e	ff 75 fc	 push	 DWORD PTR _szFileName$[ebp]
  00051	8b 4d f0	 mov	 ecx, DWORD PTR $T1[ebp]
  00054	e8 00 00 00 00	 call	 ?GetResourcePointer@CResourceManager@@QAEPAVCResource@@PBD@Z ; CResourceManager::GetResourcePointer
  00059	89 45 f4	 mov	 DWORD PTR _pResource$[ebp], eax

; 70   : 
; 71   : 	if (!pResource->IsType(CGraphicImage::Type()))

  0005c	e8 00 00 00 00	 call	 ?Type@CGraphicImage@@SAKXZ ; CGraphicImage::Type
  00061	50		 push	 eax
  00062	8b 4d f4	 mov	 ecx, DWORD PTR _pResource$[ebp]
  00065	e8 00 00 00 00	 call	 ?IsType@CResource@@QAE_NK@Z ; CResource::IsType
  0006a	0f b6 c0	 movzx	 eax, al
  0006d	85 c0		 test	 eax, eax
  0006f	75 11		 jne	 SHORT $LN4@grpImageGe

; 72   : 		return Py_BuildException("Resource is not an image (filename: %s)", szFileName);

  00071	ff 75 fc	 push	 DWORD PTR _szFileName$[ebp]
  00074	68 00 00 00 00	 push	 OFFSET ??_C@_0CI@BMEPHKIH@Resource?5is?5not?5an?5image?5?$CIfilen@
  00079	e8 00 00 00 00	 call	 ?Py_BuildException@@YAPAU_object@@PBDZZ ; Py_BuildException
  0007e	59		 pop	 ecx
  0007f	59		 pop	 ecx
  00080	eb 43		 jmp	 SHORT $LN1@grpImageGe
$LN4@grpImageGe:

; 73   : 
; 74   : 	CGraphicExpandedImageInstance * pImageInstance = CGraphicExpandedImageInstance::New();

  00082	e8 00 00 00 00	 call	 ?New@CGraphicExpandedImageInstance@@SAPAV1@XZ ; CGraphicExpandedImageInstance::New
  00087	89 45 f8	 mov	 DWORD PTR _pImageInstance$[ebp], eax

; 75   : 	pImageInstance->SetImagePointer(static_cast<CGraphicImage*>(pResource));

  0008a	ff 75 f4	 push	 DWORD PTR _pResource$[ebp]
  0008d	8b 4d f8	 mov	 ecx, DWORD PTR _pImageInstance$[ebp]
  00090	e8 00 00 00 00	 call	 ?SetImagePointer@CGraphicImageInstance@@QAEXPAVCGraphicImage@@@Z ; CGraphicImageInstance::SetImagePointer

; 76   : 
; 77   : 	if (pImageInstance->IsEmpty())

  00095	8b 4d f8	 mov	 ecx, DWORD PTR _pImageInstance$[ebp]
  00098	e8 00 00 00 00	 call	 ?IsEmpty@CGraphicImageInstance@@QBE_NXZ ; CGraphicImageInstance::IsEmpty
  0009d	0f b6 c0	 movzx	 eax, al
  000a0	85 c0		 test	 eax, eax
  000a2	74 11		 je	 SHORT $LN5@grpImageGe

; 78   : 		return Py_BuildException("Cannot load image (filename: %s)", szFileName);

  000a4	ff 75 fc	 push	 DWORD PTR _szFileName$[ebp]
  000a7	68 00 00 00 00	 push	 OFFSET ??_C@_0CB@IGMMKMMH@Cannot?5load?5image?5?$CIfilename?3?5?$CFs@
  000ac	e8 00 00 00 00	 call	 ?Py_BuildException@@YAPAU_object@@PBDZZ ; Py_BuildException
  000b1	59		 pop	 ecx
  000b2	59		 pop	 ecx
  000b3	eb 10		 jmp	 SHORT $LN1@grpImageGe
$LN5@grpImageGe:

; 79   : 	
; 80   : 	return Py_BuildValue("i", pImageInstance);

  000b5	ff 75 f8	 push	 DWORD PTR _pImageInstance$[ebp]
  000b8	68 00 00 00 00	 push	 OFFSET ??_C@_01KBJDNOO@i@
  000bd	ff 15 00 00 00
	00		 call	 DWORD PTR __imp__Py_BuildValue
  000c3	59		 pop	 ecx
  000c4	59		 pop	 ecx
$LN1@grpImageGe:

; 81   : }

  000c5	c9		 leave
  000c6	c3		 ret	 0
?grpImageGenerateExpanded@@YAPAU_object@@PAU1@0@Z ENDP	; grpImageGenerateExpanded
_TEXT	ENDS
; Function compile flags: /Odspy
; File D:\Metin2 Server Files\mainline\SRC_2014\Metin2Client\eterPythonLib\PythonGraphicImageModule.cpp
; File D:\Metin2 Server Files\mainline\SRC_2014\Metin2Client\eterBase\Singleton.h
; File D:\Metin2 Server Files\mainline\SRC_2014\Metin2Client\eterPythonLib\PythonGraphicImageModule.cpp
;	COMDAT ?grpImageGenerate@@YAPAU_object@@PAU1@0@Z
_TEXT	SEGMENT
$T1 = -16						; size = 4
_pResource$ = -12					; size = 4
_pImageInstance$ = -8					; size = 4
_szFileName$ = -4					; size = 4
_poSelf$ = 8						; size = 4
_poArgs$ = 12						; size = 4
?grpImageGenerate@@YAPAU_object@@PAU1@0@Z PROC		; grpImageGenerate, COMDAT

; 36   : {

  00000	55		 push	 ebp
  00001	8b ec		 mov	 ebp, esp
  00003	83 ec 10	 sub	 esp, 16			; 00000010H

; 37   : 	char * szFileName;
; 38   : 
; 39   : 	if (!PyTuple_GetString(poArgs, 0, &szFileName))

  00006	8d 45 fc	 lea	 eax, DWORD PTR _szFileName$[ebp]
  00009	50		 push	 eax
  0000a	6a 00		 push	 0
  0000c	ff 75 0c	 push	 DWORD PTR _poArgs$[ebp]
  0000f	e8 00 00 00 00	 call	 ?PyTuple_GetString@@YA_NPAU_object@@HPAPAD@Z ; PyTuple_GetString
  00014	83 c4 0c	 add	 esp, 12			; 0000000cH
  00017	0f b6 c0	 movzx	 eax, al
  0001a	85 c0		 test	 eax, eax
  0001c	75 0a		 jne	 SHORT $LN2@grpImageGe

; 40   : 		return Py_BadArgument();

  0001e	e8 00 00 00 00	 call	 ?Py_BadArgument@@YAPAU_object@@XZ ; Py_BadArgument
  00023	e9 9a 00 00 00	 jmp	 $LN1@grpImageGe
$LN2@grpImageGe:

; 41   : 
; 42   : 	if (!*szFileName)

  00028	8b 45 fc	 mov	 eax, DWORD PTR _szFileName$[ebp]
  0002b	0f be 00	 movsx	 eax, BYTE PTR [eax]
  0002e	85 c0		 test	 eax, eax
  00030	75 11		 jne	 SHORT $LN3@grpImageGe

; 43   : 		return Py_BuildValue("i", 0);

  00032	6a 00		 push	 0
  00034	68 00 00 00 00	 push	 OFFSET ??_C@_01KBJDNOO@i@
  00039	ff 15 00 00 00
	00		 call	 DWORD PTR __imp__Py_BuildValue
  0003f	59		 pop	 ecx
  00040	59		 pop	 ecx
  00041	eb 7f		 jmp	 SHORT $LN1@grpImageGe
$LN3@grpImageGe:
; File D:\Metin2 Server Files\mainline\SRC_2014\Metin2Client\eterBase\Singleton.h

; 27   : 		return (*ms_singleton);

  00043	a1 00 00 00 00	 mov	 eax, DWORD PTR ?ms_singleton@?$CSingleton@VCResourceManager@@@@0PAVCResourceManager@@A ; CSingleton<CResourceManager>::ms_singleton
  00048	89 45 f0	 mov	 DWORD PTR $T1[ebp], eax
; File D:\Metin2 Server Files\mainline\SRC_2014\Metin2Client\eterPythonLib\PythonGraphicImageModule.cpp

; 45   : 	CResource * pResource = CResourceManager::Instance().GetResourcePointer(szFileName);

  0004b	ff 75 fc	 push	 DWORD PTR _szFileName$[ebp]
  0004e	8b 4d f0	 mov	 ecx, DWORD PTR $T1[ebp]
  00051	e8 00 00 00 00	 call	 ?GetResourcePointer@CResourceManager@@QAEPAVCResource@@PBD@Z ; CResourceManager::GetResourcePointer
  00056	89 45 f4	 mov	 DWORD PTR _pResource$[ebp], eax

; 46   : 
; 47   : 	if (!pResource->IsType(CGraphicImage::Type()))

  00059	e8 00 00 00 00	 call	 ?Type@CGraphicImage@@SAKXZ ; CGraphicImage::Type
  0005e	50		 push	 eax
  0005f	8b 4d f4	 mov	 ecx, DWORD PTR _pResource$[ebp]
  00062	e8 00 00 00 00	 call	 ?IsType@CResource@@QAE_NK@Z ; CResource::IsType
  00067	0f b6 c0	 movzx	 eax, al
  0006a	85 c0		 test	 eax, eax
  0006c	75 11		 jne	 SHORT $LN4@grpImageGe

; 48   : 		return Py_BuildException("Resource is not an image (filename: %s)", szFileName);

  0006e	ff 75 fc	 push	 DWORD PTR _szFileName$[ebp]
  00071	68 00 00 00 00	 push	 OFFSET ??_C@_0CI@BMEPHKIH@Resource?5is?5not?5an?5image?5?$CIfilen@
  00076	e8 00 00 00 00	 call	 ?Py_BuildException@@YAPAU_object@@PBDZZ ; Py_BuildException
  0007b	59		 pop	 ecx
  0007c	59		 pop	 ecx
  0007d	eb 43		 jmp	 SHORT $LN1@grpImageGe
$LN4@grpImageGe:

; 49   : 
; 50   : 	CGraphicImageInstance * pImageInstance = CGraphicImageInstance::New();

  0007f	e8 00 00 00 00	 call	 ?New@CGraphicImageInstance@@SAPAV1@XZ ; CGraphicImageInstance::New
  00084	89 45 f8	 mov	 DWORD PTR _pImageInstance$[ebp], eax

; 51   : 	pImageInstance->SetImagePointer(static_cast<CGraphicImage*>(pResource));

  00087	ff 75 f4	 push	 DWORD PTR _pResource$[ebp]
  0008a	8b 4d f8	 mov	 ecx, DWORD PTR _pImageInstance$[ebp]
  0008d	e8 00 00 00 00	 call	 ?SetImagePointer@CGraphicImageInstance@@QAEXPAVCGraphicImage@@@Z ; CGraphicImageInstance::SetImagePointer

; 52   : 
; 53   : 	if (pImageInstance->IsEmpty())

  00092	8b 4d f8	 mov	 ecx, DWORD PTR _pImageInstance$[ebp]
  00095	e8 00 00 00 00	 call	 ?IsEmpty@CGraphicImageInstance@@QBE_NXZ ; CGraphicImageInstance::IsEmpty
  0009a	0f b6 c0	 movzx	 eax, al
  0009d	85 c0		 test	 eax, eax
  0009f	74 11		 je	 SHORT $LN5@grpImageGe

; 54   : 		return Py_BuildException("Cannot load image (filename: %s)", szFileName);

  000a1	ff 75 fc	 push	 DWORD PTR _szFileName$[ebp]
  000a4	68 00 00 00 00	 push	 OFFSET ??_C@_0CB@IGMMKMMH@Cannot?5load?5image?5?$CIfilename?3?5?$CFs@
  000a9	e8 00 00 00 00	 call	 ?Py_BuildException@@YAPAU_object@@PBDZZ ; Py_BuildException
  000ae	59		 pop	 ecx
  000af	59		 pop	 ecx
  000b0	eb 10		 jmp	 SHORT $LN1@grpImageGe
$LN5@grpImageGe:

; 55   : 
; 56   : 	return Py_BuildValue("i", pImageInstance);

  000b2	ff 75 f8	 push	 DWORD PTR _pImageInstance$[ebp]
  000b5	68 00 00 00 00	 push	 OFFSET ??_C@_01KBJDNOO@i@
  000ba	ff 15 00 00 00
	00		 call	 DWORD PTR __imp__Py_BuildValue
  000c0	59		 pop	 ecx
  000c1	59		 pop	 ecx
$LN1@grpImageGe:

; 57   : }

  000c2	c9		 leave
  000c3	c3		 ret	 0
?grpImageGenerate@@YAPAU_object@@PAU1@0@Z ENDP		; grpImageGenerate
_TEXT	ENDS
; Function compile flags: /Odspy
; File D:\Metin2 Server Files\mainline\SRC_2014\Metin2Client\eterPythonLib\PythonGraphicImageModule.cpp
;	COMDAT ?PyTuple_GetExpandedImageInstance@@YA_NPAU_object@@HPAPAVCGraphicExpandedImageInstance@@@Z
_TEXT	SEGMENT
_handle$ = -4						; size = 4
_poArgs$ = 8						; size = 4
_pos$ = 12						; size = 4
_ppRetImageInstance$ = 16				; size = 4
?PyTuple_GetExpandedImageInstance@@YA_NPAU_object@@HPAPAVCGraphicExpandedImageInstance@@@Z PROC ; PyTuple_GetExpandedImageInstance, COMDAT

; 18   : {

  00000	55		 push	 ebp
  00001	8b ec		 mov	 ebp, esp
  00003	51		 push	 ecx

; 19   : 	int handle;
; 20   : 
; 21   : 	if (!PyTuple_GetInteger(poArgs, pos, &handle))

  00004	8d 45 fc	 lea	 eax, DWORD PTR _handle$[ebp]
  00007	50		 push	 eax
  00008	ff 75 0c	 push	 DWORD PTR _pos$[ebp]
  0000b	ff 75 08	 push	 DWORD PTR _poArgs$[ebp]
  0000e	e8 00 00 00 00	 call	 ?PyTuple_GetInteger@@YA_NPAU_object@@HPAH@Z ; PyTuple_GetInteger
  00013	83 c4 0c	 add	 esp, 12			; 0000000cH
  00016	0f b6 c0	 movzx	 eax, al
  00019	85 c0		 test	 eax, eax
  0001b	75 04		 jne	 SHORT $LN2@PyTuple_Ge

; 22   : 		return false;

  0001d	32 c0		 xor	 al, al
  0001f	eb 2a		 jmp	 SHORT $LN1@PyTuple_Ge
$LN2@PyTuple_Ge:

; 23   : 
; 24   : 	if (!handle)

  00021	83 7d fc 00	 cmp	 DWORD PTR _handle$[ebp], 0
  00025	75 04		 jne	 SHORT $LN3@PyTuple_Ge

; 25   : 		return false;

  00027	32 c0		 xor	 al, al
  00029	eb 20		 jmp	 SHORT $LN1@PyTuple_Ge
$LN3@PyTuple_Ge:

; 26   : 
; 27   : 	if (!((CGraphicImageInstance*)handle)->IsType(CGraphicExpandedImageInstance::Type()))

  0002b	e8 00 00 00 00	 call	 ?Type@CGraphicExpandedImageInstance@@SAKXZ ; CGraphicExpandedImageInstance::Type
  00030	50		 push	 eax
  00031	8b 4d fc	 mov	 ecx, DWORD PTR _handle$[ebp]
  00034	e8 00 00 00 00	 call	 ?IsType@CGraphicImageInstance@@QAEHK@Z ; CGraphicImageInstance::IsType
  00039	85 c0		 test	 eax, eax
  0003b	75 04		 jne	 SHORT $LN4@PyTuple_Ge

; 28   : 		return false;

  0003d	32 c0		 xor	 al, al
  0003f	eb 0a		 jmp	 SHORT $LN1@PyTuple_Ge
$LN4@PyTuple_Ge:

; 29   : 
; 30   : 	*ppRetImageInstance = (CGraphicExpandedImageInstance*)handle;

  00041	8b 45 10	 mov	 eax, DWORD PTR _ppRetImageInstance$[ebp]
  00044	8b 4d fc	 mov	 ecx, DWORD PTR _handle$[ebp]
  00047	89 08		 mov	 DWORD PTR [eax], ecx

; 31   : 
; 32   : 	return true;

  00049	b0 01		 mov	 al, 1
$LN1@PyTuple_Ge:

; 33   : }

  0004b	c9		 leave
  0004c	c3		 ret	 0
?PyTuple_GetExpandedImageInstance@@YA_NPAU_object@@HPAPAVCGraphicExpandedImageInstance@@@Z ENDP ; PyTuple_GetExpandedImageInstance
_TEXT	ENDS
; Function compile flags: /Odspy
; File D:\Metin2 Server Files\mainline\SRC_2014\Metin2Client\eterPythonLib\PythonGraphicImageModule.cpp
;	COMDAT ?PyTuple_GetImageInstance@@YA_NPAU_object@@HPAPAVCGraphicImageInstance@@@Z
_TEXT	SEGMENT
_handle$ = -4						; size = 4
_poArgs$ = 8						; size = 4
_pos$ = 12						; size = 4
_ppRetImageInstance$ = 16				; size = 4
?PyTuple_GetImageInstance@@YA_NPAU_object@@HPAPAVCGraphicImageInstance@@@Z PROC ; PyTuple_GetImageInstance, COMDAT

; 4    : {

  00000	55		 push	 ebp
  00001	8b ec		 mov	 ebp, esp
  00003	51		 push	 ecx

; 5    : 	int handle;
; 6    : 
; 7    : 	if (!PyTuple_GetInteger(poArgs, pos, &handle))

  00004	8d 45 fc	 lea	 eax, DWORD PTR _handle$[ebp]
  00007	50		 push	 eax
  00008	ff 75 0c	 push	 DWORD PTR _pos$[ebp]
  0000b	ff 75 08	 push	 DWORD PTR _poArgs$[ebp]
  0000e	e8 00 00 00 00	 call	 ?PyTuple_GetInteger@@YA_NPAU_object@@HPAH@Z ; PyTuple_GetInteger
  00013	83 c4 0c	 add	 esp, 12			; 0000000cH
  00016	0f b6 c0	 movzx	 eax, al
  00019	85 c0		 test	 eax, eax
  0001b	75 04		 jne	 SHORT $LN2@PyTuple_Ge

; 8    : 		return false;

  0001d	32 c0		 xor	 al, al
  0001f	eb 14		 jmp	 SHORT $LN1@PyTuple_Ge
$LN2@PyTuple_Ge:

; 9    : 
; 10   : 	if (!handle)

  00021	83 7d fc 00	 cmp	 DWORD PTR _handle$[ebp], 0
  00025	75 04		 jne	 SHORT $LN3@PyTuple_Ge

; 11   : 		return false;

  00027	32 c0		 xor	 al, al
  00029	eb 0a		 jmp	 SHORT $LN1@PyTuple_Ge
$LN3@PyTuple_Ge:

; 12   : 
; 13   : 	*ppRetImageInstance = (CGraphicImageInstance*)handle;	

  0002b	8b 45 10	 mov	 eax, DWORD PTR _ppRetImageInstance$[ebp]
  0002e	8b 4d fc	 mov	 ecx, DWORD PTR _handle$[ebp]
  00031	89 08		 mov	 DWORD PTR [eax], ecx

; 14   : 	return true;

  00033	b0 01		 mov	 al, 1
$LN1@PyTuple_Ge:

; 15   : }

  00035	c9		 leave
  00036	c3		 ret	 0
?PyTuple_GetImageInstance@@YA_NPAU_object@@HPAPAVCGraphicImageInstance@@@Z ENDP ; PyTuple_GetImageInstance
_TEXT	ENDS
; Function compile flags: /Odspy
; File D:\Metin2 Server Files\mainline\SRC_2014\Metin2Client\eterPythonLib\PythonGraphicImageModule.cpp
;	COMDAT ?initgrpImage@@YAXXZ
_TEXT	SEGMENT
?initgrpImage@@YAXXZ PROC				; initgrpImage, COMDAT

; 288  : {

  00000	55		 push	 ebp
  00001	8b ec		 mov	 ebp, esp

; 289  : 	static PyMethodDef s_methods[] =
; 290  : 	{
; 291  : 		{ "Render",					grpImageRender,					METH_VARARGS },
; 292  : 		{ "SetPosition",			grpSetImagePosition,			METH_VARARGS },
; 293  : 		{ "Generate",				grpImageGenerate,				METH_VARARGS },
; 294  : 		{ "GenerateExpanded",		grpImageGenerateExpanded,		METH_VARARGS },
; 295  : 		{ "GenerateFromHandle",		grpImageGenerateFromHandle,		METH_VARARGS },
; 296  : 		{ "Delete",					grpImageDelete,					METH_VARARGS },
; 297  : 		{ "DeleteExpanded",			grpImageDeleteExpanded,			METH_VARARGS },
; 298  : 		{ "SetFileName",			grpImageSetFileName,			METH_VARARGS },		
; 299  : 		{ "SetOrigin",				grpSetImageOrigin,				METH_VARARGS },
; 300  : 		{ "SetRotation",			grpSetImageRotation,			METH_VARARGS },
; 301  : 		{ "SetScale",				grpSetImageScale,				METH_VARARGS },
; 302  : 		{ "SetRenderingRect",		grpSetRenderingRect,			METH_VARARGS },
; 303  : 		{ "SetDiffuseColor",		grpSetImageDiffuseColor,		METH_VARARGS },
; 304  : 		{ "GetWidth",				grpGetWidth,					METH_VARARGS },
; 305  : 		{ "GetHeight",				grpGetHeight,					METH_VARARGS },
; 306  : 		{ NULL,						NULL,							NULL		 },
; 307  : 	};	
; 308  : 
; 309  : 	Py_InitModule("grpImage", s_methods);

  00003	68 f5 03 00 00	 push	 1013			; 000003f5H
  00008	6a 00		 push	 0
  0000a	6a 00		 push	 0
  0000c	68 00 00 00 00	 push	 OFFSET ?s_methods@?1??initgrpImage@@YAXXZ@4PAUPyMethodDef@@A
  00011	68 00 00 00 00	 push	 OFFSET ??_C@_08LMJEHLID@grpImage@
  00016	ff 15 00 00 00
	00		 call	 DWORD PTR __imp__Py_InitModule4
  0001c	83 c4 14	 add	 esp, 20			; 00000014H

; 310  : }

  0001f	5d		 pop	 ebp
  00020	c3		 ret	 0
?initgrpImage@@YAXXZ ENDP				; initgrpImage
_TEXT	ENDS
END
