; Listing generated by Microsoft (R) Optimizing Compiler Version 19.28.29335.0 

	TITLE	D:\Metin2 Server Files\mainline\SRC_2014\Metin2Client\eterPythonLib\PythonWindowManagerModule.cpp
	.686P
	.XMM
	include listing.inc
	.model	flat

INCLUDELIB LIBCMT
INCLUDELIB OLDNAMES

PUBLIC	?_Myptr@?$_String_val@U?$_Simple_types@D@std@@@std@@QBEPBDXZ ; std::_String_val<std::_Simple_types<char> >::_Myptr
PUBLIC	?initwndMgr@@YAXXZ				; initwndMgr
PUBLIC	?PyTuple_GetWindow@@YA_NPAU_object@@HPAPAVCWindow@UI@@@Z ; PyTuple_GetWindow
PUBLIC	?wndMgrGetAspect@@YAPAU_object@@PAU1@0@Z	; wndMgrGetAspect
PUBLIC	?wndMgrOnceIgnoreMouseLeftButtonUpEvent@@YAPAU_object@@PAU1@0@Z ; wndMgrOnceIgnoreMouseLeftButtonUpEvent
PUBLIC	?wndMgrSetMouseHandler@@YAPAU_object@@PAU1@0@Z	; wndMgrSetMouseHandler
PUBLIC	?wndMgrRegister@@YAPAU_object@@PAU1@0@Z		; wndMgrRegister
PUBLIC	?wndMgrRegisterSlotWindow@@YAPAU_object@@PAU1@0@Z ; wndMgrRegisterSlotWindow
PUBLIC	?wndMgrRegisterGridSlotWindow@@YAPAU_object@@PAU1@0@Z ; wndMgrRegisterGridSlotWindow
PUBLIC	?wndMgrRegisterTextLine@@YAPAU_object@@PAU1@0@Z	; wndMgrRegisterTextLine
PUBLIC	?wndMgrRegisterMarkBox@@YAPAU_object@@PAU1@0@Z	; wndMgrRegisterMarkBox
PUBLIC	?wndMgrRegisterImageBox@@YAPAU_object@@PAU1@0@Z	; wndMgrRegisterImageBox
PUBLIC	?wndMgrRegisterExpandedImageBox@@YAPAU_object@@PAU1@0@Z ; wndMgrRegisterExpandedImageBox
PUBLIC	?wndMgrRegisterAniImageBox@@YAPAU_object@@PAU1@0@Z ; wndMgrRegisterAniImageBox
PUBLIC	?wndMgrRegisterButton@@YAPAU_object@@PAU1@0@Z	; wndMgrRegisterButton
PUBLIC	?wndMgrRegisterRadioButton@@YAPAU_object@@PAU1@0@Z ; wndMgrRegisterRadioButton
PUBLIC	?wndMgrRegisterToggleButton@@YAPAU_object@@PAU1@0@Z ; wndMgrRegisterToggleButton
PUBLIC	?wndMgrRegisterDragButton@@YAPAU_object@@PAU1@0@Z ; wndMgrRegisterDragButton
PUBLIC	?wndMgrRegisterBox@@YAPAU_object@@PAU1@0@Z	; wndMgrRegisterBox
PUBLIC	?wndMgrRegisterBar@@YAPAU_object@@PAU1@0@Z	; wndMgrRegisterBar
PUBLIC	?wndMgrRegisterLine@@YAPAU_object@@PAU1@0@Z	; wndMgrRegisterLine
PUBLIC	?wndMgrRegisterBar3D@@YAPAU_object@@PAU1@0@Z	; wndMgrRegisterBar3D
PUBLIC	?wndMgrRegisterNumberLine@@YAPAU_object@@PAU1@0@Z ; wndMgrRegisterNumberLine
PUBLIC	?wndMgrDestroy@@YAPAU_object@@PAU1@0@Z		; wndMgrDestroy
PUBLIC	?wndMgrIsFocus@@YAPAU_object@@PAU1@0@Z		; wndMgrIsFocus
PUBLIC	?wndMgrSetFocus@@YAPAU_object@@PAU1@0@Z		; wndMgrSetFocus
PUBLIC	?wndMgrKillFocus@@YAPAU_object@@PAU1@0@Z	; wndMgrKillFocus
PUBLIC	?wndMgrLock@@YAPAU_object@@PAU1@0@Z		; wndMgrLock
PUBLIC	?wndMgrUnlock@@YAPAU_object@@PAU1@0@Z		; wndMgrUnlock
PUBLIC	?wndMgrSetName@@YAPAU_object@@PAU1@0@Z		; wndMgrSetName
PUBLIC	?wndMgrSetTop@@YAPAU_object@@PAU1@0@Z		; wndMgrSetTop
PUBLIC	?wndMgrShow@@YAPAU_object@@PAU1@0@Z		; wndMgrShow
PUBLIC	?wndMgrHide@@YAPAU_object@@PAU1@0@Z		; wndMgrHide
PUBLIC	?wndMgrIsShow@@YAPAU_object@@PAU1@0@Z		; wndMgrIsShow
PUBLIC	?wndMgrIsRTL@@YAPAU_object@@PAU1@0@Z		; wndMgrIsRTL
PUBLIC	?wndMgrSetScreenSize@@YAPAU_object@@PAU1@0@Z	; wndMgrSetScreenSize
PUBLIC	?wndMgrSetParent@@YAPAU_object@@PAU1@0@Z	; wndMgrSetParent
PUBLIC	?wndMgrSetPickAlways@@YAPAU_object@@PAU1@0@Z	; wndMgrSetPickAlways
PUBLIC	?wndMgrSetWndSize@@YAPAU_object@@PAU1@0@Z	; wndMgrSetWndSize
PUBLIC	?wndMgrSetWndPosition@@YAPAU_object@@PAU1@0@Z	; wndMgrSetWndPosition
PUBLIC	?wndMgrGetName@@YAPAU_object@@PAU1@0@Z		; wndMgrGetName
PUBLIC	?wndMgrGetWndWidth@@YAPAU_object@@PAU1@0@Z	; wndMgrGetWndWidth
PUBLIC	?wndMgrGetWndHeight@@YAPAU_object@@PAU1@0@Z	; wndMgrGetWndHeight
PUBLIC	?wndMgrGetWndLocalPosition@@YAPAU_object@@PAU1@0@Z ; wndMgrGetWndLocalPosition
PUBLIC	?wndMgrGetWndGlobalPosition@@YAPAU_object@@PAU1@0@Z ; wndMgrGetWndGlobalPosition
PUBLIC	?wndMgrGetWindowRect@@YAPAU_object@@PAU1@0@Z	; wndMgrGetWindowRect
PUBLIC	?wndMgrSetWindowHorizontalAlign@@YAPAU_object@@PAU1@0@Z ; wndMgrSetWindowHorizontalAlign
PUBLIC	?wndMgrSetWindowVerticalAlign@@YAPAU_object@@PAU1@0@Z ; wndMgrSetWindowVerticalAlign
PUBLIC	?wndMgrIsIn@@YAPAU_object@@PAU1@0@Z		; wndMgrIsIn
PUBLIC	?wndMgrGetMouseLocalPosition@@YAPAU_object@@PAU1@0@Z ; wndMgrGetMouseLocalPosition
PUBLIC	?wndMgrGetHyperlink@@YAPAU_object@@PAU1@0@Z	; wndMgrGetHyperlink
PUBLIC	?wndMgrGetScreenWidth@@YAPAU_object@@PAU1@0@Z	; wndMgrGetScreenWidth
PUBLIC	?wndMgrGetScreenHeight@@YAPAU_object@@PAU1@0@Z	; wndMgrGetScreenHeight
PUBLIC	?wndMgrGetMousePosition@@YAPAU_object@@PAU1@0@Z	; wndMgrGetMousePosition
PUBLIC	?wndMgrIsDragging@@YAPAU_object@@PAU1@0@Z	; wndMgrIsDragging
PUBLIC	?wndMgrIsPickedWindow@@YAPAU_object@@PAU1@0@Z	; wndMgrIsPickedWindow
PUBLIC	?wndMgrGetChildCount@@YAPAU_object@@PAU1@0@Z	; wndMgrGetChildCount
PUBLIC	?wndMgrAddFlag@@YAPAU_object@@PAU1@0@Z		; wndMgrAddFlag
PUBLIC	?wndMgrSetLimitBias@@YAPAU_object@@PAU1@0@Z	; wndMgrSetLimitBias
PUBLIC	?wndMgrUpdateRect@@YAPAU_object@@PAU1@0@Z	; wndMgrUpdateRect
PUBLIC	?wndMgrAppendSlot@@YAPAU_object@@PAU1@0@Z	; wndMgrAppendSlot
PUBLIC	?wndMgrArrangeSlot@@YAPAU_object@@PAU1@0@Z	; wndMgrArrangeSlot
PUBLIC	?wndMgrSetSlotBaseImage@@YAPAU_object@@PAU1@0@Z	; wndMgrSetSlotBaseImage
PUBLIC	?wndMgrSetCoverButton@@YAPAU_object@@PAU1@0@Z	; wndMgrSetCoverButton
PUBLIC	?wndMgrEnableCoverButton@@YAPAU_object@@PAU1@0@Z ; wndMgrEnableCoverButton
PUBLIC	?wndMgrDisableCoverButton@@YAPAU_object@@PAU1@0@Z ; wndMgrDisableCoverButton
PUBLIC	?wndMgrIsDisableCoverButton@@YAPAU_object@@PAU1@0@Z ; wndMgrIsDisableCoverButton
PUBLIC	?wndMgrSetAlwaysRenderCoverButton@@YAPAU_object@@PAU1@0@Z ; wndMgrSetAlwaysRenderCoverButton
PUBLIC	?wndMgrAppendSlotButton@@YAPAU_object@@PAU1@0@Z	; wndMgrAppendSlotButton
PUBLIC	?wndMgrAppendRequirementSignImage@@YAPAU_object@@PAU1@0@Z ; wndMgrAppendRequirementSignImage
PUBLIC	?wndMgrShowSlotButton@@YAPAU_object@@PAU1@0@Z	; wndMgrShowSlotButton
PUBLIC	?wndMgrHideAllSlotButton@@YAPAU_object@@PAU1@0@Z ; wndMgrHideAllSlotButton
PUBLIC	?wndMgrShowRequirementSign@@YAPAU_object@@PAU1@0@Z ; wndMgrShowRequirementSign
PUBLIC	?wndMgrHideRequirementSign@@YAPAU_object@@PAU1@0@Z ; wndMgrHideRequirementSign
PUBLIC	?wndMgrRefreshSlot@@YAPAU_object@@PAU1@0@Z	; wndMgrRefreshSlot
PUBLIC	?wndMgrSetUseMode@@YAPAU_object@@PAU1@0@Z	; wndMgrSetUseMode
PUBLIC	?wndMgrSetUsableItem@@YAPAU_object@@PAU1@0@Z	; wndMgrSetUsableItem
PUBLIC	?wndMgrClearSlot@@YAPAU_object@@PAU1@0@Z	; wndMgrClearSlot
PUBLIC	?wndMgrClearAllSlot@@YAPAU_object@@PAU1@0@Z	; wndMgrClearAllSlot
PUBLIC	?wndMgrHasSlot@@YAPAU_object@@PAU1@0@Z		; wndMgrHasSlot
PUBLIC	?wndMgrSetSlot@@YAPAU_object@@PAU1@0@Z		; wndMgrSetSlot
PUBLIC	?wndMgrSetSlotCount@@YAPAU_object@@PAU1@0@Z	; wndMgrSetSlotCount
PUBLIC	?wndMgrSetSlotCountNew@@YAPAU_object@@PAU1@0@Z	; wndMgrSetSlotCountNew
PUBLIC	?wndMgrSetSlotCoolTime@@YAPAU_object@@PAU1@0@Z	; wndMgrSetSlotCoolTime
PUBLIC	?wndMgrSetToggleSlot@@YAPAU_object@@PAU1@0@Z	; wndMgrSetToggleSlot
PUBLIC	?wndMgrActivateSlot@@YAPAU_object@@PAU1@0@Z	; wndMgrActivateSlot
PUBLIC	?wndMgrDeactivateSlot@@YAPAU_object@@PAU1@0@Z	; wndMgrDeactivateSlot
PUBLIC	?wndMgrEnableSlot@@YAPAU_object@@PAU1@0@Z	; wndMgrEnableSlot
PUBLIC	?wndMgrDisableSlot@@YAPAU_object@@PAU1@0@Z	; wndMgrDisableSlot
PUBLIC	?wndMgrShowSlotBaseImage@@YAPAU_object@@PAU1@0@Z ; wndMgrShowSlotBaseImage
PUBLIC	?wndMgrHideSlotBaseImage@@YAPAU_object@@PAU1@0@Z ; wndMgrHideSlotBaseImage
PUBLIC	?wndMgrSetSlotType@@YAPAU_object@@PAU1@0@Z	; wndMgrSetSlotType
PUBLIC	?wndMgrSetSlotStyle@@YAPAU_object@@PAU1@0@Z	; wndMgrSetSlotStyle
PUBLIC	?wndMgrSelectSlot@@YAPAU_object@@PAU1@0@Z	; wndMgrSelectSlot
PUBLIC	?wndMgrClearSelected@@YAPAU_object@@PAU1@0@Z	; wndMgrClearSelected
PUBLIC	?wndMgrGetSelectedSlotCount@@YAPAU_object@@PAU1@0@Z ; wndMgrGetSelectedSlotCount
PUBLIC	?wndMgrGetSelectedSlotNumber@@YAPAU_object@@PAU1@0@Z ; wndMgrGetSelectedSlotNumber
PUBLIC	?wndMgrIsSelectedSlot@@YAPAU_object@@PAU1@0@Z	; wndMgrIsSelectedSlot
PUBLIC	?wndMgrGetSlotCount@@YAPAU_object@@PAU1@0@Z	; wndMgrGetSlotCount
PUBLIC	?wndMgrLockSlot@@YAPAU_object@@PAU1@0@Z		; wndMgrLockSlot
PUBLIC	?wndMgrUnlockSlot@@YAPAU_object@@PAU1@0@Z	; wndMgrUnlockSlot
PUBLIC	?wndBarSetColor@@YAPAU_object@@PAU1@0@Z		; wndBarSetColor
PUBLIC	?wndMgrAttachIcon@@YAPAU_object@@PAU1@0@Z	; wndMgrAttachIcon
PUBLIC	?wndMgrDeattachIcon@@YAPAU_object@@PAU1@0@Z	; wndMgrDeattachIcon
PUBLIC	?wndMgrSetAttachingFlag@@YAPAU_object@@PAU1@0@Z	; wndMgrSetAttachingFlag
PUBLIC	?wndTextSetMax@@YAPAU_object@@PAU1@0@Z		; wndTextSetMax
PUBLIC	?wndTextSetHorizontalAlign@@YAPAU_object@@PAU1@0@Z ; wndTextSetHorizontalAlign
PUBLIC	?wndTextSetVerticalAlign@@YAPAU_object@@PAU1@0@Z ; wndTextSetVerticalAlign
PUBLIC	?wndTextSetSecret@@YAPAU_object@@PAU1@0@Z	; wndTextSetSecret
PUBLIC	?wndTextSetOutline@@YAPAU_object@@PAU1@0@Z	; wndTextSetOutline
PUBLIC	?wndTextSetFeather@@YAPAU_object@@PAU1@0@Z	; wndTextSetFeather
PUBLIC	?wndTextSetMultiLine@@YAPAU_object@@PAU1@0@Z	; wndTextSetMultiLine
PUBLIC	?wndTextSetFontName@@YAPAU_object@@PAU1@0@Z	; wndTextSetFontName
PUBLIC	?wndTextSetFontColor@@YAPAU_object@@PAU1@0@Z	; wndTextSetFontColor
PUBLIC	?wndTextSetLimitWidth@@YAPAU_object@@PAU1@0@Z	; wndTextSetLimitWidth
PUBLIC	?wndTextSetText@@YAPAU_object@@PAU1@0@Z		; wndTextSetText
PUBLIC	?wndTextGetText@@YAPAU_object@@PAU1@0@Z		; wndTextGetText
PUBLIC	?wndTextGetTextSize@@YAPAU_object@@PAU1@0@Z	; wndTextGetTextSize
PUBLIC	?wndTextShowCursor@@YAPAU_object@@PAU1@0@Z	; wndTextShowCursor
PUBLIC	?wndTextHideCursor@@YAPAU_object@@PAU1@0@Z	; wndTextHideCursor
PUBLIC	?wndTextGetCursorPosition@@YAPAU_object@@PAU1@0@Z ; wndTextGetCursorPosition
PUBLIC	?wndNumberSetNumber@@YAPAU_object@@PAU1@0@Z	; wndNumberSetNumber
PUBLIC	?wndNumberSetNumberHorizontalAlignCenter@@YAPAU_object@@PAU1@0@Z ; wndNumberSetNumberHorizontalAlignCenter
PUBLIC	?wndNumberSetNumberHorizontalAlignRight@@YAPAU_object@@PAU1@0@Z ; wndNumberSetNumberHorizontalAlignRight
PUBLIC	?wndNumberSetPath@@YAPAU_object@@PAU1@0@Z	; wndNumberSetPath
PUBLIC	?wndMarkBox_SetImageFilename@@YAPAU_object@@PAU1@0@Z ; wndMarkBox_SetImageFilename
PUBLIC	?wndMarkBox_SetImage@@YAPAU_object@@PAU1@0@Z	; wndMarkBox_SetImage
PUBLIC	?wndMarkBox_Load@@YAPAU_object@@PAU1@0@Z	; wndMarkBox_Load
PUBLIC	?wndMarkBox_SetIndex@@YAPAU_object@@PAU1@0@Z	; wndMarkBox_SetIndex
PUBLIC	?wndMarkBox_SetScale@@YAPAU_object@@PAU1@0@Z	; wndMarkBox_SetScale
PUBLIC	?wndMarkBox_SetDiffuseColor@@YAPAU_object@@PAU1@0@Z ; wndMarkBox_SetDiffuseColor
PUBLIC	?wndImageLoadImage@@YAPAU_object@@PAU1@0@Z	; wndImageLoadImage
PUBLIC	?wndImageSetDiffuseColor@@YAPAU_object@@PAU1@0@Z ; wndImageSetDiffuseColor
PUBLIC	?wndImageGetWidth@@YAPAU_object@@PAU1@0@Z	; wndImageGetWidth
PUBLIC	?wndImageGetHeight@@YAPAU_object@@PAU1@0@Z	; wndImageGetHeight
PUBLIC	?wndImageSetScale@@YAPAU_object@@PAU1@0@Z	; wndImageSetScale
PUBLIC	?wndImageSetOrigin@@YAPAU_object@@PAU1@0@Z	; wndImageSetOrigin
PUBLIC	?wndImageSetRotation@@YAPAU_object@@PAU1@0@Z	; wndImageSetRotation
PUBLIC	?wndImageSetRenderingRect@@YAPAU_object@@PAU1@0@Z ; wndImageSetRenderingRect
PUBLIC	?wndImageSetRenderingMode@@YAPAU_object@@PAU1@0@Z ; wndImageSetRenderingMode
PUBLIC	?wndImageSetDelay@@YAPAU_object@@PAU1@0@Z	; wndImageSetDelay
PUBLIC	?wndImageAppendImage@@YAPAU_object@@PAU1@0@Z	; wndImageAppendImage
PUBLIC	?wndButtonSetUpVisual@@YAPAU_object@@PAU1@0@Z	; wndButtonSetUpVisual
PUBLIC	?wndButtonSetOverVisual@@YAPAU_object@@PAU1@0@Z	; wndButtonSetOverVisual
PUBLIC	?wndButtonSetDownVisual@@YAPAU_object@@PAU1@0@Z	; wndButtonSetDownVisual
PUBLIC	?wndButtonSetDisableVisual@@YAPAU_object@@PAU1@0@Z ; wndButtonSetDisableVisual
PUBLIC	?wndButtonGetUpVisualFileName@@YAPAU_object@@PAU1@0@Z ; wndButtonGetUpVisualFileName
PUBLIC	?wndButtonGetOverVisualFileName@@YAPAU_object@@PAU1@0@Z ; wndButtonGetOverVisualFileName
PUBLIC	?wndButtonGetDownVisualFileName@@YAPAU_object@@PAU1@0@Z ; wndButtonGetDownVisualFileName
PUBLIC	?wndButtonFlash@@YAPAU_object@@PAU1@0@Z		; wndButtonFlash
PUBLIC	?wndButtonEnable@@YAPAU_object@@PAU1@0@Z	; wndButtonEnable
PUBLIC	?wndButtonDisable@@YAPAU_object@@PAU1@0@Z	; wndButtonDisable
PUBLIC	?wndButtonDown@@YAPAU_object@@PAU1@0@Z		; wndButtonDown
PUBLIC	?wndButtonSetUp@@YAPAU_object@@PAU1@0@Z		; wndButtonSetUp
PUBLIC	?wndButtonSetRestrictMovementArea@@YAPAU_object@@PAU1@0@Z ; wndButtonSetRestrictMovementArea
PUBLIC	?wndButtonIsDown@@YAPAU_object@@PAU1@0@Z	; wndButtonIsDown
PUBLIC	?wndMgrSetOutlineFlag@@YAPAU_object@@PAU1@0@Z	; wndMgrSetOutlineFlag
PUBLIC	?wndMgrShowOverInWindowName@@YAPAU_object@@PAU1@0@Z ; wndMgrShowOverInWindowName
PUBLIC	?ms_singleton@?$CSingleton@VCWindowManager@UI@@@@0PAVCWindowManager@UI@@A ; CSingleton<UI::CWindowManager>::ms_singleton
PUBLIC	??_C@_01INIBCBCB@f@				; `string'
PUBLIC	??_C@_01KBJDNOO@i@				; `string'
PUBLIC	??_C@_01LKDEMHDF@s@				; `string'
PUBLIC	??_C@_02PDIHAGKM@ii@				; `string'
PUBLIC	??_C@_04BIOIIFBG@iiii@				; `string'
PUBLIC	??_C@_02OIKAIHIF@s?$CD@				; `string'
PUBLIC	??_C@_07BNIMILPP@movable@			; `string'
PUBLIC	??_C@_05GADAOHMC@limit@				; `string'
PUBLIC	??_C@_08KCAGBJHE@dragable@			; `string'
PUBLIC	??_C@_06LHJMGKLI@attach@			; `string'
PUBLIC	??_C@_0L@KAJDFNK@restrict_x@			; `string'
PUBLIC	??_C@_0L@BDBCAEJL@restrict_y@			; `string'
PUBLIC	??_C@_05KNFBNCOH@float@				; `string'
PUBLIC	??_C@_08BCAHNCDJ@not_pick@			; `string'
PUBLIC	??_C@_0M@HHFJIJHL@ignore_size@			; `string'
PUBLIC	??_C@_03IFDNKMND@rtl@				; `string'
PUBLIC	??_C@_03OBLKLDKA@ltr@				; `string'
PUBLIC	??_C@_0BH@KIGIHPAM@Unknown?5window?5flag?5?$CFs@ ; `string'
PUBLIC	??_C@_0CH@FFGFLEBP@wndMgr?4ArrangeSlot?5?3?5not?5a?5grid@ ; `string'
PUBLIC	??_C@_0CH@HCFLPGH@wndMgr?4ArrangeSlot?5?3?5not?5a?5slot@ ; `string'
PUBLIC	??_C@_04INACLLOK@?$CIii?$CJ@			; `string'
PUBLIC	??_C@_0CE@HBOEBFCG@Failed?5to?5load?5image?5?$CIfilename?3@ ; `string'
PUBLIC	??_C@_0BA@PPCHHCMN@SetMouseHandler@		; `string'
PUBLIC	??_C@_0O@EPGNIIPM@SetScreenSize@		; `string'
PUBLIC	??_C@_0P@OBMNGDMB@GetScreenWidth@		; `string'
PUBLIC	??_C@_0BA@PLLJJDCL@GetScreenHeight@		; `string'
PUBLIC	??_C@_0L@FHGOOMIM@AttachIcon@			; `string'
PUBLIC	??_C@_0N@HIMEHEBA@DeattachIcon@			; `string'
PUBLIC	??_C@_0BB@OJBFCDNH@SetAttachingFlag@		; `string'
PUBLIC	??_C@_09MFNPPPAG@GetAspect@			; `string'
PUBLIC	??_C@_0N@PCIKAOKG@GetHyperlink@			; `string'
PUBLIC	??_C@_0CB@JDNFNFMG@OnceIgnoreMouseLeftButtonUpEven@ ; `string'
PUBLIC	??_C@_08LFIJLPOM@Register@			; `string'
PUBLIC	??_C@_0BD@HNEHNBHO@RegisterSlotWindow@		; `string'
PUBLIC	??_C@_0BH@HHDOCCCO@RegisterGridSlotWindow@	; `string'
PUBLIC	??_C@_0BB@JKLFNGCE@RegisterTextLine@		; `string'
PUBLIC	??_C@_0BA@BLOHJECG@RegisterMarkBox@		; `string'
PUBLIC	??_C@_0BB@CGJHKCPO@RegisterImageBox@		; `string'
PUBLIC	??_C@_0BJ@HCLPCLBM@RegisterExpandedImageBox@	; `string'
PUBLIC	??_C@_0BE@EHOJIJPF@RegisterAniImageBox@		; `string'
PUBLIC	??_C@_0P@HIFEMCKE@RegisterButton@		; `string'
PUBLIC	??_C@_0BE@LOKOGAFI@RegisterRadioButton@		; `string'
PUBLIC	??_C@_0BF@LKPDMOKE@RegisterToggleButton@	; `string'
PUBLIC	??_C@_0BD@FJKAFMBK@RegisterDragButton@		; `string'
PUBLIC	??_C@_0M@MCLBEPNH@RegisterBox@			; `string'
PUBLIC	??_C@_0M@DCMAIKFH@RegisterBar@			; `string'
PUBLIC	??_C@_0N@ICAPFHKF@RegisterLine@			; `string'
PUBLIC	??_C@_0O@EKKPECKF@RegisterBar3D@		; `string'
PUBLIC	??_C@_0BD@DBAMBKME@RegisterNumberLine@		; `string'
PUBLIC	??_C@_07BDCAJABG@Destroy@			; `string'
PUBLIC	??_C@_07FGJMHOHK@AddFlag@			; `string'
PUBLIC	??_C@_05IOGFNOKL@IsRTL@				; `string'
PUBLIC	??_C@_07DEJFEJPJ@SetName@			; `string'
PUBLIC	??_C@_07MMGEHGCI@GetName@			; `string'
PUBLIC	??_C@_06MBOGGFD@SetTop@				; `string'
PUBLIC	??_C@_04JLAJABDJ@Show@				; `string'
PUBLIC	??_C@_04EACEFPPN@Hide@				; `string'
PUBLIC	??_C@_06JMGCGGJP@IsShow@			; `string'
PUBLIC	??_C@_09BGDFCKEN@SetParent@			; `string'
PUBLIC	??_C@_0O@PGINCMBF@SetPickAlways@		; `string'
PUBLIC	??_C@_07MMFHOCGI@IsFocus@			; `string'
PUBLIC	??_C@_08GPNNBNIL@SetFocus@			; `string'
PUBLIC	??_C@_09PMGFBOMK@KillFocus@			; `string'
PUBLIC	??_C@_04LADJNOK@Lock@				; `string'
PUBLIC	??_C@_06NCJPDCLH@Unlock@			; `string'
PUBLIC	??_C@_0O@OOGBNGFB@SetWindowSize@		; `string'
PUBLIC	??_C@_0BC@CONADAIE@SetWindowPosition@		; `string'
PUBLIC	??_C@_0P@EJALLAMK@GetWindowWidth@		; `string'
PUBLIC	??_C@_0BA@GMMDIMHA@GetWindowHeight@		; `string'
PUBLIC	??_C@_0BH@KEOBHEHD@GetWindowLocalPosition@	; `string'
PUBLIC	??_C@_0BI@NOJPNPDO@GetWindowGlobalPosition@	; `string'
PUBLIC	??_C@_0O@KGOHEIMB@GetWindowRect@		; `string'
PUBLIC	??_C@_0BJ@FGPBHCAH@SetWindowHorizontalAlign@	; `string'
PUBLIC	??_C@_0BH@KDPMNJIB@SetWindowVerticalAlign@	; `string'
PUBLIC	??_C@_0O@HMBCELHA@GetChildCount@		; `string'
PUBLIC	??_C@_0P@GEIEEBJH@IsPickedWindow@		; `string'
PUBLIC	??_C@_04JBIBMNMO@IsIn@				; `string'
PUBLIC	??_C@_0BG@NHBHOLBI@GetMouseLocalPosition@	; `string'
PUBLIC	??_C@_0BB@MMLACOLH@GetMousePosition@		; `string'
PUBLIC	??_C@_0L@HEPBODCJ@IsDragging@			; `string'
PUBLIC	??_C@_0N@CCOOMDHD@SetLimitBias@			; `string'
PUBLIC	??_C@_0L@HJOBPCKA@UpdateRect@			; `string'
PUBLIC	??_C@_0L@FDCINHBF@AppendSlot@			; `string'
PUBLIC	??_C@_0M@OFNEHKDL@ArrangeSlot@			; `string'
PUBLIC	??_C@_09CGBENBJB@ClearSlot@			; `string'
PUBLIC	??_C@_0N@MMOLDNHK@ClearAllSlot@			; `string'
PUBLIC	??_C@_07MGEJAMLP@HasSlot@			; `string'
PUBLIC	??_C@_07ONCDFGJ@SetSlot@			; `string'
PUBLIC	??_C@_0N@IEAMEDFH@SetSlotCount@			; `string'
PUBLIC	??_C@_0BA@OOLIKBKI@SetSlotCountNew@		; `string'
PUBLIC	??_C@_0BA@OKBNFKML@SetSlotCoolTime@		; `string'
PUBLIC	??_C@_0O@FJKNHKBL@SetToggleSlot@		; `string'
PUBLIC	??_C@_0N@HFCIPMIE@ActivateSlot@			; `string'
PUBLIC	??_C@_0P@FGAIANEO@DeactivateSlot@		; `string'
PUBLIC	??_C@_0L@DHCLIIGL@EnableSlot@			; `string'
PUBLIC	??_C@_0M@EKMKGECP@DisableSlot@			; `string'
PUBLIC	??_C@_0BC@DHCKDEOK@ShowSlotBaseImage@		; `string'
PUBLIC	??_C@_0BC@NFMHNFLM@HideSlotBaseImage@		; `string'
PUBLIC	??_C@_0M@KHOHGEMH@SetSlotType@			; `string'
PUBLIC	??_C@_0N@IKGBKPJJ@SetSlotStyle@			; `string'
PUBLIC	??_C@_0BB@IOMAJEMI@SetSlotBaseImage@		; `string'
PUBLIC	??_C@_0P@JKHNGGPA@SetCoverButton@		; `string'
PUBLIC	??_C@_0BC@GDLBPCHF@EnableCoverButton@		; `string'
PUBLIC	??_C@_0BD@DOJCOOMI@DisableCoverButton@		; `string'
PUBLIC	??_C@_0BF@ILDMDDMH@IsDisableCoverButton@	; `string'
PUBLIC	??_C@_0BL@PAFAGEGB@SetAlwaysRenderCoverButton@	; `string'
PUBLIC	??_C@_0BB@LLDDGEIL@AppendSlotButton@		; `string'
PUBLIC	??_C@_0BL@CCGBCIBD@AppendRequirementSignImage@	; `string'
PUBLIC	??_C@_0P@CINLEJEK@ShowSlotButton@		; `string'
PUBLIC	??_C@_0BC@IHMDJONI@HideAllSlotButton@		; `string'
PUBLIC	??_C@_0BE@IGOEKEDL@ShowRequirementSign@		; `string'
PUBLIC	??_C@_0BE@LNAIGOOK@HideRequirementSign@		; `string'
PUBLIC	??_C@_0M@NAPCHMAM@RefreshSlot@			; `string'
PUBLIC	??_C@_0L@ODKIIGJF@SetUseMode@			; `string'
PUBLIC	??_C@_0O@LHCBGPMO@SetUsableItem@		; `string'
PUBLIC	??_C@_0L@EMMADCIN@SelectSlot@			; `string'
PUBLIC	??_C@_0O@OGHLMGNI@ClearSelected@		; `string'
PUBLIC	??_C@_0BF@EECMELAK@GetSelectedSlotCount@	; `string'
PUBLIC	??_C@_0BG@DJKADEKA@GetSelectedSlotNumber@	; `string'
PUBLIC	??_C@_0P@GKJOEMLC@IsSelectedSlot@		; `string'
PUBLIC	??_C@_0N@PALCIPBL@GetSlotCount@			; `string'
PUBLIC	??_C@_08PGGNMNPL@LockSlot@			; `string'
PUBLIC	??_C@_0L@DPNFKPLP@UnlockSlot@			; `string'
PUBLIC	??_C@_08GPNJILIJ@SetColor@			; `string'
PUBLIC	??_C@_06ODEINJEE@SetMax@			; `string'
PUBLIC	??_C@_0BD@FCLDCEMA@SetHorizontalAlign@		; `string'
PUBLIC	??_C@_0BB@NKHPOFIC@SetVerticalAlign@		; `string'
PUBLIC	??_C@_09CAFHEMDD@SetSecret@			; `string'
PUBLIC	??_C@_0L@HBNEJDMM@SetOutline@			; `string'
PUBLIC	??_C@_0L@LLKEFHFA@SetFeather@			; `string'
PUBLIC	??_C@_0N@FKMHLJHG@SetMultiLine@			; `string'
PUBLIC	??_C@_07NIJDBDAG@SetText@			; `string'
PUBLIC	??_C@_0M@MCELKPNO@SetFontName@			; `string'
PUBLIC	??_C@_0N@MKCFOAAE@SetFontColor@			; `string'
PUBLIC	??_C@_0O@FIAFKHF@SetLimitWidth@			; `string'
PUBLIC	??_C@_07CAGCCMNH@GetText@			; `string'
PUBLIC	??_C@_0M@JOAAGILP@GetTextSize@			; `string'
PUBLIC	??_C@_0L@BIENLPGM@ShowCursor@			; `string'
PUBLIC	??_C@_0L@MGJDDPFG@HideCursor@			; `string'
PUBLIC	??_C@_0BC@DJJGDMOB@GetCursorPosition@		; `string'
PUBLIC	??_C@_09JMPLPNNO@SetNumber@			; `string'
PUBLIC	??_C@_0BP@JHALFFJF@SetNumberHorizontalAlignCenter@ ; `string'
PUBLIC	??_C@_0BO@FBBAAHKK@SetNumberHorizontalAlignRight@ ; `string'
PUBLIC	??_C@_07ENBMIGKI@SetPath@			; `string'
PUBLIC	??_C@_0BB@FMJJKPIM@MarkBox_SetImage@		; `string'
PUBLIC	??_C@_0BJ@PJODLBON@MarkBox_SetImageFilename@	; `string'
PUBLIC	??_C@_0N@FLKGJMCL@MarkBox_Load@			; `string'
PUBLIC	??_C@_0BB@NAAPJNBM@MarkBox_SetIndex@		; `string'
PUBLIC	??_C@_0BB@ENLBNPPB@MarkBox_SetScale@		; `string'
PUBLIC	??_C@_0BI@JCKPADLG@MarkBox_SetDiffuseColor@	; `string'
PUBLIC	??_C@_09OHOMMMHI@LoadImage@			; `string'
PUBLIC	??_C@_0BA@CAEBLOMF@SetDiffuseColor@		; `string'
PUBLIC	??_C@_08OMBILDHM@GetWidth@			; `string'
PUBLIC	??_C@_09EOGEIJMK@GetHeight@			; `string'
PUBLIC	??_C@_08FMFAIGAB@SetScale@			; `string'
PUBLIC	??_C@_09KLKDEBJ@SetOrigin@			; `string'
PUBLIC	??_C@_0M@GNIHGJGG@SetRotation@			; `string'
PUBLIC	??_C@_0BB@LDNMLPHM@SetRenderingRect@		; `string'
PUBLIC	??_C@_0BB@GIEHGKNO@SetRenderingMode@		; `string'
PUBLIC	??_C@_08NBAGFHFB@SetDelay@			; `string'
PUBLIC	??_C@_0M@BEJGDBIJ@AppendImage@			; `string'
PUBLIC	??_C@_0M@IIELPGEP@SetUpVisual@			; `string'
PUBLIC	??_C@_0O@KOIDMFK@SetOverVisual@			; `string'
PUBLIC	??_C@_0O@FLFAFPKP@SetDownVisual@		; `string'
PUBLIC	??_C@_0BB@JCGDBIB@SetDisableVisual@		; `string'
PUBLIC	??_C@_0BE@PHOOFGJI@GetUpVisualFileName@		; `string'
PUBLIC	??_C@_0BG@KEALLAJN@GetOverVisualFileName@	; `string'
PUBLIC	??_C@_0BG@FKDEILKI@GetDownVisualFileName@	; `string'
PUBLIC	??_C@_05LDPHIKKB@Flash@				; `string'
PUBLIC	??_C@_06CKGENIKG@Enable@			; `string'
PUBLIC	??_C@_07MIKIFGAL@Disable@			; `string'
PUBLIC	??_C@_04FNCLCJMC@Down@				; `string'
PUBLIC	??_C@_05DEOAHOFO@SetUp@				; `string'
PUBLIC	??_C@_06FKEAEOGE@IsDown@			; `string'
PUBLIC	??_C@_0BI@KNEJFEOH@SetRestrictMovementArea@	; `string'
PUBLIC	??_C@_0P@MEHCKPID@SetOutlineFlag@		; `string'
PUBLIC	??_C@_0BF@LFOINEDC@ShowOverInWindowName@	; `string'
PUBLIC	??_C@_06CMPPDHLC@wndMgr@			; `string'
PUBLIC	??_C@_0BA@CEBPCJJF@SLOT_STYLE_NONE@		; `string'
PUBLIC	??_C@_0BD@HIHLPNEG@SLOT_STYLE_PICK_UP@		; `string'
PUBLIC	??_C@_0BC@DPNNOEON@SLOT_STYLE_SELECT@		; `string'
PUBLIC	??_C@_0BL@KJOOHAME@TEXT_HORIZONTAL_ALIGN_LEFT@	; `string'
PUBLIC	??_C@_0BM@BDNLMDBC@TEXT_HORIZONTAL_ALIGN_RIGHT@	; `string'
PUBLIC	??_C@_0BN@MHHHIBEN@TEXT_HORIZONTAL_ALIGN_CENTER@ ; `string'
PUBLIC	??_C@_0BI@PIKJCBDF@TEXT_VERTICAL_ALIGN_TOP@	; `string'
PUBLIC	??_C@_0BL@IKMFEFFI@TEXT_VERTICAL_ALIGN_BOTTOM@	; `string'
PUBLIC	??_C@_0BL@GHLEGJOB@TEXT_VERTICAL_ALIGN_CENTER@	; `string'
PUBLIC	??_C@_0BG@CEANPPL@HORIZONTAL_ALIGN_LEFT@	; `string'
PUBLIC	??_C@_0BI@NJMALOKG@HORIZONTAL_ALIGN_CENTER@	; `string'
PUBLIC	??_C@_0BH@KFBGEAIA@HORIZONTAL_ALIGN_RIGHT@	; `string'
PUBLIC	??_C@_0BD@PBJDAEOI@VERTICAL_ALIGN_TOP@		; `string'
PUBLIC	??_C@_0BG@MMBKMGNO@VERTICAL_ALIGN_CENTER@	; `string'
PUBLIC	??_C@_0BG@CBGLOKGH@VERTICAL_ALIGN_BOTTOM@	; `string'
PUBLIC	??_C@_0BI@BNOJCJOH@RENDERING_MODE_MODULATE@	; `string'
PUBLIC	__real@3f800000
PUBLIC	__real@437f0000
EXTRN	___report_rangecheckfailure:PROC
EXTRN	__stricmp:PROC
EXTRN	?TraceError@@YAXPBDZZ:PROC			; TraceError
EXTRN	__imp__PyTuple_Size:PROC
EXTRN	__imp__Py_BuildValue:PROC
EXTRN	__imp__PyModule_AddIntConstant:PROC
EXTRN	__imp__Py_InitModule4:PROC
EXTRN	?PyTuple_GetString@@YA_NPAU_object@@HPAPAD@Z:PROC ; PyTuple_GetString
EXTRN	?PyTuple_GetInteger@@YA_NPAU_object@@HPAH@Z:PROC ; PyTuple_GetInteger
EXTRN	?PyTuple_GetFloat@@YA_NPAU_object@@HPAM@Z:PROC	; PyTuple_GetFloat
EXTRN	?PyTuple_GetObject@@YA_NPAU_object@@HPAPAU1@@Z:PROC ; PyTuple_GetObject
EXTRN	?PyTuple_GetBoolean@@YA_NPAU_object@@HPA_N@Z:PROC ; PyTuple_GetBoolean
EXTRN	?Py_BuildException@@YAPAU_object@@PBDZZ:PROC	; Py_BuildException
EXTRN	?Py_BuildNone@@YAPAU_object@@XZ:PROC		; Py_BuildNone
EXTRN	?Hyperlink_GetText@CGraphicTextInstance@@SAHPADH@Z:PROC ; CGraphicTextInstance::Hyperlink_GetText
EXTRN	?GetAspect@CWindowManager@UI@@QAEMXZ:PROC	; UI::CWindowManager::GetAspect
EXTRN	?SetScreenSize@CWindowManager@UI@@QAEXJJ@Z:PROC	; UI::CWindowManager::SetScreenSize
EXTRN	?SetMouseHandler@CWindowManager@UI@@QAEXPAU_object@@@Z:PROC ; UI::CWindowManager::SetMouseHandler
EXTRN	?GetMousePosition@CWindowManager@UI@@QAEXAAJ0@Z:PROC ; UI::CWindowManager::GetMousePosition
EXTRN	?IsDragging@CWindowManager@UI@@QAEHXZ:PROC	; UI::CWindowManager::IsDragging
EXTRN	?SetParent@CWindowManager@UI@@QAEXPAVCWindow@2@0@Z:PROC ; UI::CWindowManager::SetParent
EXTRN	?SetPickAlways@CWindowManager@UI@@QAEXPAVCWindow@2@@Z:PROC ; UI::CWindowManager::SetPickAlways
EXTRN	?RegisterWindow@CWindowManager@UI@@QAEPAVCWindow@2@PAU_object@@PBD@Z:PROC ; UI::CWindowManager::RegisterWindow
EXTRN	?RegisterSlotWindow@CWindowManager@UI@@QAEPAVCWindow@2@PAU_object@@PBD@Z:PROC ; UI::CWindowManager::RegisterSlotWindow
EXTRN	?RegisterGridSlotWindow@CWindowManager@UI@@QAEPAVCWindow@2@PAU_object@@PBD@Z:PROC ; UI::CWindowManager::RegisterGridSlotWindow
EXTRN	?RegisterTextLine@CWindowManager@UI@@QAEPAVCWindow@2@PAU_object@@PBD@Z:PROC ; UI::CWindowManager::RegisterTextLine
EXTRN	?RegisterMarkBox@CWindowManager@UI@@QAEPAVCWindow@2@PAU_object@@PBD@Z:PROC ; UI::CWindowManager::RegisterMarkBox
EXTRN	?RegisterImageBox@CWindowManager@UI@@QAEPAVCWindow@2@PAU_object@@PBD@Z:PROC ; UI::CWindowManager::RegisterImageBox
EXTRN	?RegisterExpandedImageBox@CWindowManager@UI@@QAEPAVCWindow@2@PAU_object@@PBD@Z:PROC ; UI::CWindowManager::RegisterExpandedImageBox
EXTRN	?RegisterAniImageBox@CWindowManager@UI@@QAEPAVCWindow@2@PAU_object@@PBD@Z:PROC ; UI::CWindowManager::RegisterAniImageBox
EXTRN	?RegisterButton@CWindowManager@UI@@QAEPAVCWindow@2@PAU_object@@PBD@Z:PROC ; UI::CWindowManager::RegisterButton
EXTRN	?RegisterRadioButton@CWindowManager@UI@@QAEPAVCWindow@2@PAU_object@@PBD@Z:PROC ; UI::CWindowManager::RegisterRadioButton
EXTRN	?RegisterToggleButton@CWindowManager@UI@@QAEPAVCWindow@2@PAU_object@@PBD@Z:PROC ; UI::CWindowManager::RegisterToggleButton
EXTRN	?RegisterDragButton@CWindowManager@UI@@QAEPAVCWindow@2@PAU_object@@PBD@Z:PROC ; UI::CWindowManager::RegisterDragButton
EXTRN	?RegisterBox@CWindowManager@UI@@QAEPAVCWindow@2@PAU_object@@PBD@Z:PROC ; UI::CWindowManager::RegisterBox
EXTRN	?RegisterBar@CWindowManager@UI@@QAEPAVCWindow@2@PAU_object@@PBD@Z:PROC ; UI::CWindowManager::RegisterBar
EXTRN	?RegisterLine@CWindowManager@UI@@QAEPAVCWindow@2@PAU_object@@PBD@Z:PROC ; UI::CWindowManager::RegisterLine
EXTRN	?RegisterBar3D@CWindowManager@UI@@QAEPAVCWindow@2@PAU_object@@PBD@Z:PROC ; UI::CWindowManager::RegisterBar3D
EXTRN	?RegisterNumberLine@CWindowManager@UI@@QAEPAVCWindow@2@PAU_object@@PBD@Z:PROC ; UI::CWindowManager::RegisterNumberLine
EXTRN	?DestroyWindow@CWindowManager@UI@@QAEXPAVCWindow@2@@Z:PROC ; UI::CWindowManager::DestroyWindow
EXTRN	?AttachIcon@CWindowManager@UI@@QAEXKKKEE@Z:PROC	; UI::CWindowManager::AttachIcon
EXTRN	?DeattachIcon@CWindowManager@UI@@QAEXXZ:PROC	; UI::CWindowManager::DeattachIcon
EXTRN	?SetAttachingFlag@CWindowManager@UI@@QAEXH@Z:PROC ; UI::CWindowManager::SetAttachingFlag
EXTRN	?OnceIgnoreMouseLeftButtonUpEvent@CWindowManager@UI@@QAEXXZ:PROC ; UI::CWindowManager::OnceIgnoreMouseLeftButtonUpEvent
EXTRN	?LockWindow@CWindowManager@UI@@QAEXPAVCWindow@2@@Z:PROC ; UI::CWindowManager::LockWindow
EXTRN	?UnlockWindow@CWindowManager@UI@@QAEXXZ:PROC	; UI::CWindowManager::UnlockWindow
EXTRN	?ActivateWindow@CWindowManager@UI@@QAEXPAVCWindow@2@@Z:PROC ; UI::CWindowManager::ActivateWindow
EXTRN	?DeactivateWindow@CWindowManager@UI@@QAEXXZ:PROC ; UI::CWindowManager::DeactivateWindow
EXTRN	?GetActivateWindow@CWindowManager@UI@@QAEPAVCWindow@2@XZ:PROC ; UI::CWindowManager::GetActivateWindow
EXTRN	?SetTop@CWindowManager@UI@@QAEXPAVCWindow@2@@Z:PROC ; UI::CWindowManager::SetTop
EXTRN	?IsType@CWindow@UI@@QAEHK@Z:PROC		; UI::CWindow::IsType
EXTRN	?SetName@CWindow@UI@@QAEXPBD@Z:PROC		; UI::CWindow::SetName
EXTRN	?SetSize@CWindow@UI@@QAEXJJ@Z:PROC		; UI::CWindow::SetSize
EXTRN	?SetHorizontalAlign@CWindow@UI@@QAEXK@Z:PROC	; UI::CWindow::SetHorizontalAlign
EXTRN	?SetVerticalAlign@CWindow@UI@@QAEXK@Z:PROC	; UI::CWindow::SetVerticalAlign
EXTRN	?SetPosition@CWindow@UI@@QAEXJJ@Z:PROC		; UI::CWindow::SetPosition
EXTRN	?GetPosition@CWindow@UI@@QAEXPAJ0@Z:PROC	; UI::CWindow::GetPosition
EXTRN	?GetMouseLocalPosition@CWindow@UI@@QAEXAAJ0@Z:PROC ; UI::CWindow::GetMouseLocalPosition
EXTRN	?UpdateRect@CWindow@UI@@QAEJXZ:PROC		; UI::CWindow::UpdateRect
EXTRN	?Show@CWindow@UI@@QAEXXZ:PROC			; UI::CWindow::Show
EXTRN	?Hide@CWindow@UI@@QAEXXZ:PROC			; UI::CWindow::Hide
EXTRN	?Type@CBar3D@UI@@SAKXZ:PROC			; UI::CBar3D::Type
EXTRN	?SetColor@CBar3D@UI@@QAEXKKK@Z:PROC		; UI::CBar3D::SetColor
EXTRN	?SetMax@CTextLine@UI@@QAEXH@Z:PROC		; UI::CTextLine::SetMax
EXTRN	?SetHorizontalAlign@CTextLine@UI@@QAEXH@Z:PROC	; UI::CTextLine::SetHorizontalAlign
EXTRN	?SetVerticalAlign@CTextLine@UI@@QAEXH@Z:PROC	; UI::CTextLine::SetVerticalAlign
EXTRN	?SetSecret@CTextLine@UI@@QAEXH@Z:PROC		; UI::CTextLine::SetSecret
EXTRN	?SetOutline@CTextLine@UI@@QAEXH@Z:PROC		; UI::CTextLine::SetOutline
EXTRN	?SetFeather@CTextLine@UI@@QAEXH@Z:PROC		; UI::CTextLine::SetFeather
EXTRN	?SetMultiLine@CTextLine@UI@@QAEXH@Z:PROC	; UI::CTextLine::SetMultiLine
EXTRN	?SetFontName@CTextLine@UI@@QAEXPBD@Z:PROC	; UI::CTextLine::SetFontName
EXTRN	?SetFontColor@CTextLine@UI@@QAEXK@Z:PROC	; UI::CTextLine::SetFontColor
EXTRN	?SetLimitWidth@CTextLine@UI@@QAEXM@Z:PROC	; UI::CTextLine::SetLimitWidth
EXTRN	?ShowCursor@CTextLine@UI@@QAEXXZ:PROC		; UI::CTextLine::ShowCursor
EXTRN	?HideCursor@CTextLine@UI@@QAEXXZ:PROC		; UI::CTextLine::HideCursor
EXTRN	?GetCursorPosition@CTextLine@UI@@QAEHXZ:PROC	; UI::CTextLine::GetCursorPosition
EXTRN	?SetText@CTextLine@UI@@QAEXPBD@Z:PROC		; UI::CTextLine::SetText
EXTRN	?GetText@CTextLine@UI@@QAEPBDXZ:PROC		; UI::CTextLine::GetText
EXTRN	?GetTextSize@CTextLine@UI@@QAEXPAH0@Z:PROC	; UI::CTextLine::GetTextSize
EXTRN	?SetPath@CNumberLine@UI@@QAEXPBD@Z:PROC		; UI::CNumberLine::SetPath
EXTRN	?SetHorizontalAlign@CNumberLine@UI@@QAEXH@Z:PROC ; UI::CNumberLine::SetHorizontalAlign
EXTRN	?SetNumber@CNumberLine@UI@@QAEXPBD@Z:PROC	; UI::CNumberLine::SetNumber
EXTRN	?LoadImageA@CImageBox@UI@@QAEHPBD@Z:PROC	; UI::CImageBox::LoadImageA
EXTRN	?SetDiffuseColor@CImageBox@UI@@QAEXMMMM@Z:PROC	; UI::CImageBox::SetDiffuseColor
EXTRN	?GetWidth@CImageBox@UI@@QAEHXZ:PROC		; UI::CImageBox::GetWidth
EXTRN	?GetHeight@CImageBox@UI@@QAEHXZ:PROC		; UI::CImageBox::GetHeight
EXTRN	?LoadImageA@CMarkBox@UI@@QAEXPBD@Z:PROC		; UI::CMarkBox::LoadImageA
EXTRN	?SetDiffuseColor@CMarkBox@UI@@QAEXMMMM@Z:PROC	; UI::CMarkBox::SetDiffuseColor
EXTRN	?SetIndex@CMarkBox@UI@@QAEXI@Z:PROC		; UI::CMarkBox::SetIndex
EXTRN	?SetScale@CMarkBox@UI@@QAEXM@Z:PROC		; UI::CMarkBox::SetScale
EXTRN	?Type@CExpandedImageBox@UI@@SAKXZ:PROC		; UI::CExpandedImageBox::Type
EXTRN	?SetScale@CExpandedImageBox@UI@@QAEXMM@Z:PROC	; UI::CExpandedImageBox::SetScale
EXTRN	?SetOrigin@CExpandedImageBox@UI@@QAEXMM@Z:PROC	; UI::CExpandedImageBox::SetOrigin
EXTRN	?SetRotation@CExpandedImageBox@UI@@QAEXM@Z:PROC	; UI::CExpandedImageBox::SetRotation
EXTRN	?SetRenderingRect@CExpandedImageBox@UI@@QAEXMMMM@Z:PROC ; UI::CExpandedImageBox::SetRenderingRect
EXTRN	?SetRenderingMode@CExpandedImageBox@UI@@QAEXH@Z:PROC ; UI::CExpandedImageBox::SetRenderingMode
EXTRN	?Type@CAniImageBox@UI@@SAKXZ:PROC		; UI::CAniImageBox::Type
EXTRN	?SetDelay@CAniImageBox@UI@@QAEXH@Z:PROC		; UI::CAniImageBox::SetDelay
EXTRN	?AppendImage@CAniImageBox@UI@@QAEXPBD@Z:PROC	; UI::CAniImageBox::AppendImage
EXTRN	?SetRenderingRect@CAniImageBox@UI@@QAEXMMMM@Z:PROC ; UI::CAniImageBox::SetRenderingRect
EXTRN	?SetUpVisual@CButton@UI@@QAEHPBD@Z:PROC		; UI::CButton::SetUpVisual
EXTRN	?SetOverVisual@CButton@UI@@QAEHPBD@Z:PROC	; UI::CButton::SetOverVisual
EXTRN	?SetDownVisual@CButton@UI@@QAEHPBD@Z:PROC	; UI::CButton::SetDownVisual
EXTRN	?SetDisableVisual@CButton@UI@@QAEHPBD@Z:PROC	; UI::CButton::SetDisableVisual
EXTRN	?GetUpVisualFileName@CButton@UI@@QAEPBDXZ:PROC	; UI::CButton::GetUpVisualFileName
EXTRN	?GetOverVisualFileName@CButton@UI@@QAEPBDXZ:PROC ; UI::CButton::GetOverVisualFileName
EXTRN	?GetDownVisualFileName@CButton@UI@@QAEPBDXZ:PROC ; UI::CButton::GetDownVisualFileName
EXTRN	?Flash@CButton@UI@@QAEXXZ:PROC			; UI::CButton::Flash
EXTRN	?Enable@CButton@UI@@QAEXXZ:PROC			; UI::CButton::Enable
EXTRN	?Disable@CButton@UI@@QAEXXZ:PROC		; UI::CButton::Disable
EXTRN	?SetUp@CButton@UI@@QAEXXZ:PROC			; UI::CButton::SetUp
EXTRN	?Down@CButton@UI@@QAEXXZ:PROC			; UI::CButton::Down
EXTRN	?IsPressed@CButton@UI@@QAEHXZ:PROC		; UI::CButton::IsPressed
EXTRN	?SetRestrictMovementArea@CDragButton@UI@@QAEXHHHH@Z:PROC ; UI::CDragButton::SetRestrictMovementArea
EXTRN	?Type@CSlotWindow@UI@@SAKXZ:PROC		; UI::CSlotWindow::Type
EXTRN	?SetSlotType@CSlotWindow@UI@@QAEXK@Z:PROC	; UI::CSlotWindow::SetSlotType
EXTRN	?SetSlotStyle@CSlotWindow@UI@@QAEXK@Z:PROC	; UI::CSlotWindow::SetSlotStyle
EXTRN	?AppendSlot@CSlotWindow@UI@@QAEXKHHHH@Z:PROC	; UI::CSlotWindow::AppendSlot
EXTRN	?SetCoverButton@CSlotWindow@UI@@QAEXKPBD000HH@Z:PROC ; UI::CSlotWindow::SetCoverButton
EXTRN	?SetSlotBaseImage@CSlotWindow@UI@@QAEXPBDMMMM@Z:PROC ; UI::CSlotWindow::SetSlotBaseImage
EXTRN	?AppendSlotButton@CSlotWindow@UI@@QAEXPBD00@Z:PROC ; UI::CSlotWindow::AppendSlotButton
EXTRN	?AppendRequirementSignImage@CSlotWindow@UI@@QAEXPBD@Z:PROC ; UI::CSlotWindow::AppendRequirementSignImage
EXTRN	?EnableCoverButton@CSlotWindow@UI@@QAEXK@Z:PROC	; UI::CSlotWindow::EnableCoverButton
EXTRN	?DisableCoverButton@CSlotWindow@UI@@QAEXK@Z:PROC ; UI::CSlotWindow::DisableCoverButton
EXTRN	?SetAlwaysRenderCoverButton@CSlotWindow@UI@@QAEXK_N@Z:PROC ; UI::CSlotWindow::SetAlwaysRenderCoverButton
EXTRN	?ShowSlotBaseImage@CSlotWindow@UI@@QAEXK@Z:PROC	; UI::CSlotWindow::ShowSlotBaseImage
EXTRN	?HideSlotBaseImage@CSlotWindow@UI@@QAEXK@Z:PROC	; UI::CSlotWindow::HideSlotBaseImage
EXTRN	?IsDisableCoverButton@CSlotWindow@UI@@QAEHK@Z:PROC ; UI::CSlotWindow::IsDisableCoverButton
EXTRN	?HasSlot@CSlotWindow@UI@@QAEHK@Z:PROC		; UI::CSlotWindow::HasSlot
EXTRN	?ClearAllSlot@CSlotWindow@UI@@QAEXXZ:PROC	; UI::CSlotWindow::ClearAllSlot
EXTRN	?ClearSlot@CSlotWindow@UI@@QAEXK@Z:PROC		; UI::CSlotWindow::ClearSlot
EXTRN	?SetSlot@CSlotWindow@UI@@QAEXKKEEPAVCGraphicImage@@AAUD3DXCOLOR@@@Z:PROC ; UI::CSlotWindow::SetSlot
EXTRN	?SetSlotCount@CSlotWindow@UI@@QAEXKK@Z:PROC	; UI::CSlotWindow::SetSlotCount
EXTRN	?SetSlotCountNew@CSlotWindow@UI@@QAEXKKK@Z:PROC	; UI::CSlotWindow::SetSlotCountNew
EXTRN	?SetSlotCoolTime@CSlotWindow@UI@@QAEXKMM@Z:PROC	; UI::CSlotWindow::SetSlotCoolTime
EXTRN	?ActivateSlot@CSlotWindow@UI@@QAEXK@Z:PROC	; UI::CSlotWindow::ActivateSlot
EXTRN	?DeactivateSlot@CSlotWindow@UI@@QAEXK@Z:PROC	; UI::CSlotWindow::DeactivateSlot
EXTRN	?RefreshSlot@CSlotWindow@UI@@QAEXXZ:PROC	; UI::CSlotWindow::RefreshSlot
EXTRN	?GetSlotCount@CSlotWindow@UI@@QAEKXZ:PROC	; UI::CSlotWindow::GetSlotCount
EXTRN	?LockSlot@CSlotWindow@UI@@QAEXK@Z:PROC		; UI::CSlotWindow::LockSlot
EXTRN	?UnlockSlot@CSlotWindow@UI@@QAEXK@Z:PROC	; UI::CSlotWindow::UnlockSlot
EXTRN	?EnableSlot@CSlotWindow@UI@@QAEXK@Z:PROC	; UI::CSlotWindow::EnableSlot
EXTRN	?DisableSlot@CSlotWindow@UI@@QAEXK@Z:PROC	; UI::CSlotWindow::DisableSlot
EXTRN	?ClearSelected@CSlotWindow@UI@@QAEXXZ:PROC	; UI::CSlotWindow::ClearSelected
EXTRN	?SelectSlot@CSlotWindow@UI@@QAEXK@Z:PROC	; UI::CSlotWindow::SelectSlot
EXTRN	?isSelectedSlot@CSlotWindow@UI@@QAEHK@Z:PROC	; UI::CSlotWindow::isSelectedSlot
EXTRN	?GetSelectedSlotCount@CSlotWindow@UI@@QAEKXZ:PROC ; UI::CSlotWindow::GetSelectedSlotCount
EXTRN	?GetSelectedSlotNumber@CSlotWindow@UI@@QAEKK@Z:PROC ; UI::CSlotWindow::GetSelectedSlotNumber
EXTRN	?ShowSlotButton@CSlotWindow@UI@@QAEXK@Z:PROC	; UI::CSlotWindow::ShowSlotButton
EXTRN	?HideAllSlotButton@CSlotWindow@UI@@QAEXXZ:PROC	; UI::CSlotWindow::HideAllSlotButton
EXTRN	?ShowRequirementSign@CSlotWindow@UI@@QAEXK@Z:PROC ; UI::CSlotWindow::ShowRequirementSign
EXTRN	?HideRequirementSign@CSlotWindow@UI@@QAEXK@Z:PROC ; UI::CSlotWindow::HideRequirementSign
EXTRN	?SetUseMode@CSlotWindow@UI@@QAEXH@Z:PROC	; UI::CSlotWindow::SetUseMode
EXTRN	?SetUsableItem@CSlotWindow@UI@@QAEXH@Z:PROC	; UI::CSlotWindow::SetUsableItem
EXTRN	?Type@CGridSlotWindow@UI@@SAKXZ:PROC		; UI::CGridSlotWindow::Type
EXTRN	?ArrangeGridSlot@CGridSlotWindow@UI@@QAEXKKKHHHH@Z:PROC ; UI::CGridSlotWindow::ArrangeGridSlot
EXTRN	@__security_check_cookie@4:PROC
EXTRN	?g_bOutlineBoxEnable@@3HA:DWORD			; g_bOutlineBoxEnable
EXTRN	?g_bShowOverInWindowName@@3HA:DWORD		; g_bShowOverInWindowName
EXTRN	___security_cookie:DWORD
EXTRN	__fltused:DWORD
;	COMDAT ?ms_singleton@?$CSingleton@VCWindowManager@UI@@@@0PAVCWindowManager@UI@@A
_BSS	SEGMENT
?ms_singleton@?$CSingleton@VCWindowManager@UI@@@@0PAVCWindowManager@UI@@A DD 01H DUP (?) ; CSingleton<UI::CWindowManager>::ms_singleton
_BSS	ENDS
;	COMDAT __real@437f0000
CONST	SEGMENT
__real@437f0000 DD 0437f0000r			; 255
CONST	ENDS
;	COMDAT __real@3f800000
CONST	SEGMENT
__real@3f800000 DD 03f800000r			; 1
CONST	ENDS
;	COMDAT ??_C@_0BI@BNOJCJOH@RENDERING_MODE_MODULATE@
CONST	SEGMENT
??_C@_0BI@BNOJCJOH@RENDERING_MODE_MODULATE@ DB 'RENDERING_MODE_MODULATE', 00H ; `string'
CONST	ENDS
;	COMDAT ??_C@_0BG@CBGLOKGH@VERTICAL_ALIGN_BOTTOM@
CONST	SEGMENT
??_C@_0BG@CBGLOKGH@VERTICAL_ALIGN_BOTTOM@ DB 'VERTICAL_ALIGN_BOTTOM', 00H ; `string'
CONST	ENDS
;	COMDAT ??_C@_0BG@MMBKMGNO@VERTICAL_ALIGN_CENTER@
CONST	SEGMENT
??_C@_0BG@MMBKMGNO@VERTICAL_ALIGN_CENTER@ DB 'VERTICAL_ALIGN_CENTER', 00H ; `string'
CONST	ENDS
;	COMDAT ??_C@_0BD@PBJDAEOI@VERTICAL_ALIGN_TOP@
CONST	SEGMENT
??_C@_0BD@PBJDAEOI@VERTICAL_ALIGN_TOP@ DB 'VERTICAL_ALIGN_TOP', 00H ; `string'
CONST	ENDS
;	COMDAT ??_C@_0BH@KFBGEAIA@HORIZONTAL_ALIGN_RIGHT@
CONST	SEGMENT
??_C@_0BH@KFBGEAIA@HORIZONTAL_ALIGN_RIGHT@ DB 'HORIZONTAL_ALIGN_RIGHT', 00H ; `string'
CONST	ENDS
;	COMDAT ??_C@_0BI@NJMALOKG@HORIZONTAL_ALIGN_CENTER@
CONST	SEGMENT
??_C@_0BI@NJMALOKG@HORIZONTAL_ALIGN_CENTER@ DB 'HORIZONTAL_ALIGN_CENTER', 00H ; `string'
CONST	ENDS
;	COMDAT ??_C@_0BG@CEANPPL@HORIZONTAL_ALIGN_LEFT@
CONST	SEGMENT
??_C@_0BG@CEANPPL@HORIZONTAL_ALIGN_LEFT@ DB 'HORIZONTAL_ALIGN_LEFT', 00H ; `string'
CONST	ENDS
;	COMDAT ??_C@_0BL@GHLEGJOB@TEXT_VERTICAL_ALIGN_CENTER@
CONST	SEGMENT
??_C@_0BL@GHLEGJOB@TEXT_VERTICAL_ALIGN_CENTER@ DB 'TEXT_VERTICAL_ALIGN_CE'
	DB	'NTER', 00H					; `string'
CONST	ENDS
;	COMDAT ??_C@_0BL@IKMFEFFI@TEXT_VERTICAL_ALIGN_BOTTOM@
CONST	SEGMENT
??_C@_0BL@IKMFEFFI@TEXT_VERTICAL_ALIGN_BOTTOM@ DB 'TEXT_VERTICAL_ALIGN_BO'
	DB	'TTOM', 00H					; `string'
CONST	ENDS
;	COMDAT ??_C@_0BI@PIKJCBDF@TEXT_VERTICAL_ALIGN_TOP@
CONST	SEGMENT
??_C@_0BI@PIKJCBDF@TEXT_VERTICAL_ALIGN_TOP@ DB 'TEXT_VERTICAL_ALIGN_TOP', 00H ; `string'
CONST	ENDS
;	COMDAT ??_C@_0BN@MHHHIBEN@TEXT_HORIZONTAL_ALIGN_CENTER@
CONST	SEGMENT
??_C@_0BN@MHHHIBEN@TEXT_HORIZONTAL_ALIGN_CENTER@ DB 'TEXT_HORIZONTAL_ALIG'
	DB	'N_CENTER', 00H				; `string'
CONST	ENDS
;	COMDAT ??_C@_0BM@BDNLMDBC@TEXT_HORIZONTAL_ALIGN_RIGHT@
CONST	SEGMENT
??_C@_0BM@BDNLMDBC@TEXT_HORIZONTAL_ALIGN_RIGHT@ DB 'TEXT_HORIZONTAL_ALIGN'
	DB	'_RIGHT', 00H				; `string'
CONST	ENDS
;	COMDAT ??_C@_0BL@KJOOHAME@TEXT_HORIZONTAL_ALIGN_LEFT@
CONST	SEGMENT
??_C@_0BL@KJOOHAME@TEXT_HORIZONTAL_ALIGN_LEFT@ DB 'TEXT_HORIZONTAL_ALIGN_'
	DB	'LEFT', 00H					; `string'
CONST	ENDS
;	COMDAT ??_C@_0BC@DPNNOEON@SLOT_STYLE_SELECT@
CONST	SEGMENT
??_C@_0BC@DPNNOEON@SLOT_STYLE_SELECT@ DB 'SLOT_STYLE_SELECT', 00H ; `string'
CONST	ENDS
;	COMDAT ??_C@_0BD@HIHLPNEG@SLOT_STYLE_PICK_UP@
CONST	SEGMENT
??_C@_0BD@HIHLPNEG@SLOT_STYLE_PICK_UP@ DB 'SLOT_STYLE_PICK_UP', 00H ; `string'
CONST	ENDS
;	COMDAT ??_C@_0BA@CEBPCJJF@SLOT_STYLE_NONE@
CONST	SEGMENT
??_C@_0BA@CEBPCJJF@SLOT_STYLE_NONE@ DB 'SLOT_STYLE_NONE', 00H ; `string'
CONST	ENDS
;	COMDAT ??_C@_06CMPPDHLC@wndMgr@
CONST	SEGMENT
??_C@_06CMPPDHLC@wndMgr@ DB 'wndMgr', 00H		; `string'
CONST	ENDS
;	COMDAT ??_C@_0BF@LFOINEDC@ShowOverInWindowName@
CONST	SEGMENT
??_C@_0BF@LFOINEDC@ShowOverInWindowName@ DB 'ShowOverInWindowName', 00H ; `string'
CONST	ENDS
;	COMDAT ??_C@_0P@MEHCKPID@SetOutlineFlag@
CONST	SEGMENT
??_C@_0P@MEHCKPID@SetOutlineFlag@ DB 'SetOutlineFlag', 00H ; `string'
CONST	ENDS
;	COMDAT ??_C@_0BI@KNEJFEOH@SetRestrictMovementArea@
CONST	SEGMENT
??_C@_0BI@KNEJFEOH@SetRestrictMovementArea@ DB 'SetRestrictMovementArea', 00H ; `string'
CONST	ENDS
;	COMDAT ??_C@_06FKEAEOGE@IsDown@
CONST	SEGMENT
??_C@_06FKEAEOGE@IsDown@ DB 'IsDown', 00H		; `string'
CONST	ENDS
;	COMDAT ??_C@_05DEOAHOFO@SetUp@
CONST	SEGMENT
??_C@_05DEOAHOFO@SetUp@ DB 'SetUp', 00H			; `string'
CONST	ENDS
;	COMDAT ??_C@_04FNCLCJMC@Down@
CONST	SEGMENT
??_C@_04FNCLCJMC@Down@ DB 'Down', 00H			; `string'
CONST	ENDS
;	COMDAT ??_C@_07MIKIFGAL@Disable@
CONST	SEGMENT
??_C@_07MIKIFGAL@Disable@ DB 'Disable', 00H		; `string'
CONST	ENDS
;	COMDAT ??_C@_06CKGENIKG@Enable@
CONST	SEGMENT
??_C@_06CKGENIKG@Enable@ DB 'Enable', 00H		; `string'
CONST	ENDS
;	COMDAT ??_C@_05LDPHIKKB@Flash@
CONST	SEGMENT
??_C@_05LDPHIKKB@Flash@ DB 'Flash', 00H			; `string'
CONST	ENDS
;	COMDAT ??_C@_0BG@FKDEILKI@GetDownVisualFileName@
CONST	SEGMENT
??_C@_0BG@FKDEILKI@GetDownVisualFileName@ DB 'GetDownVisualFileName', 00H ; `string'
CONST	ENDS
;	COMDAT ??_C@_0BG@KEALLAJN@GetOverVisualFileName@
CONST	SEGMENT
??_C@_0BG@KEALLAJN@GetOverVisualFileName@ DB 'GetOverVisualFileName', 00H ; `string'
CONST	ENDS
;	COMDAT ??_C@_0BE@PHOOFGJI@GetUpVisualFileName@
CONST	SEGMENT
??_C@_0BE@PHOOFGJI@GetUpVisualFileName@ DB 'GetUpVisualFileName', 00H ; `string'
CONST	ENDS
;	COMDAT ??_C@_0BB@JCGDBIB@SetDisableVisual@
CONST	SEGMENT
??_C@_0BB@JCGDBIB@SetDisableVisual@ DB 'SetDisableVisual', 00H ; `string'
CONST	ENDS
;	COMDAT ??_C@_0O@FLFAFPKP@SetDownVisual@
CONST	SEGMENT
??_C@_0O@FLFAFPKP@SetDownVisual@ DB 'SetDownVisual', 00H ; `string'
CONST	ENDS
;	COMDAT ??_C@_0O@KOIDMFK@SetOverVisual@
CONST	SEGMENT
??_C@_0O@KOIDMFK@SetOverVisual@ DB 'SetOverVisual', 00H	; `string'
CONST	ENDS
;	COMDAT ??_C@_0M@IIELPGEP@SetUpVisual@
CONST	SEGMENT
??_C@_0M@IIELPGEP@SetUpVisual@ DB 'SetUpVisual', 00H	; `string'
CONST	ENDS
;	COMDAT ??_C@_0M@BEJGDBIJ@AppendImage@
CONST	SEGMENT
??_C@_0M@BEJGDBIJ@AppendImage@ DB 'AppendImage', 00H	; `string'
CONST	ENDS
;	COMDAT ??_C@_08NBAGFHFB@SetDelay@
CONST	SEGMENT
??_C@_08NBAGFHFB@SetDelay@ DB 'SetDelay', 00H		; `string'
CONST	ENDS
;	COMDAT ??_C@_0BB@GIEHGKNO@SetRenderingMode@
CONST	SEGMENT
??_C@_0BB@GIEHGKNO@SetRenderingMode@ DB 'SetRenderingMode', 00H ; `string'
CONST	ENDS
;	COMDAT ??_C@_0BB@LDNMLPHM@SetRenderingRect@
CONST	SEGMENT
??_C@_0BB@LDNMLPHM@SetRenderingRect@ DB 'SetRenderingRect', 00H ; `string'
CONST	ENDS
;	COMDAT ??_C@_0M@GNIHGJGG@SetRotation@
CONST	SEGMENT
??_C@_0M@GNIHGJGG@SetRotation@ DB 'SetRotation', 00H	; `string'
CONST	ENDS
;	COMDAT ??_C@_09KLKDEBJ@SetOrigin@
CONST	SEGMENT
??_C@_09KLKDEBJ@SetOrigin@ DB 'SetOrigin', 00H		; `string'
CONST	ENDS
;	COMDAT ??_C@_08FMFAIGAB@SetScale@
CONST	SEGMENT
??_C@_08FMFAIGAB@SetScale@ DB 'SetScale', 00H		; `string'
CONST	ENDS
;	COMDAT ??_C@_09EOGEIJMK@GetHeight@
CONST	SEGMENT
??_C@_09EOGEIJMK@GetHeight@ DB 'GetHeight', 00H		; `string'
CONST	ENDS
;	COMDAT ??_C@_08OMBILDHM@GetWidth@
CONST	SEGMENT
??_C@_08OMBILDHM@GetWidth@ DB 'GetWidth', 00H		; `string'
CONST	ENDS
;	COMDAT ??_C@_0BA@CAEBLOMF@SetDiffuseColor@
CONST	SEGMENT
??_C@_0BA@CAEBLOMF@SetDiffuseColor@ DB 'SetDiffuseColor', 00H ; `string'
CONST	ENDS
;	COMDAT ??_C@_09OHOMMMHI@LoadImage@
CONST	SEGMENT
??_C@_09OHOMMMHI@LoadImage@ DB 'LoadImage', 00H		; `string'
CONST	ENDS
;	COMDAT ??_C@_0BI@JCKPADLG@MarkBox_SetDiffuseColor@
CONST	SEGMENT
??_C@_0BI@JCKPADLG@MarkBox_SetDiffuseColor@ DB 'MarkBox_SetDiffuseColor', 00H ; `string'
CONST	ENDS
;	COMDAT ??_C@_0BB@ENLBNPPB@MarkBox_SetScale@
CONST	SEGMENT
??_C@_0BB@ENLBNPPB@MarkBox_SetScale@ DB 'MarkBox_SetScale', 00H ; `string'
CONST	ENDS
;	COMDAT ??_C@_0BB@NAAPJNBM@MarkBox_SetIndex@
CONST	SEGMENT
??_C@_0BB@NAAPJNBM@MarkBox_SetIndex@ DB 'MarkBox_SetIndex', 00H ; `string'
CONST	ENDS
;	COMDAT ??_C@_0N@FLKGJMCL@MarkBox_Load@
CONST	SEGMENT
??_C@_0N@FLKGJMCL@MarkBox_Load@ DB 'MarkBox_Load', 00H	; `string'
CONST	ENDS
;	COMDAT ??_C@_0BJ@PJODLBON@MarkBox_SetImageFilename@
CONST	SEGMENT
??_C@_0BJ@PJODLBON@MarkBox_SetImageFilename@ DB 'MarkBox_SetImageFilename'
	DB	00H						; `string'
CONST	ENDS
;	COMDAT ??_C@_0BB@FMJJKPIM@MarkBox_SetImage@
CONST	SEGMENT
??_C@_0BB@FMJJKPIM@MarkBox_SetImage@ DB 'MarkBox_SetImage', 00H ; `string'
CONST	ENDS
;	COMDAT ??_C@_07ENBMIGKI@SetPath@
CONST	SEGMENT
??_C@_07ENBMIGKI@SetPath@ DB 'SetPath', 00H		; `string'
CONST	ENDS
;	COMDAT ??_C@_0BO@FBBAAHKK@SetNumberHorizontalAlignRight@
CONST	SEGMENT
??_C@_0BO@FBBAAHKK@SetNumberHorizontalAlignRight@ DB 'SetNumberHorizontal'
	DB	'AlignRight', 00H				; `string'
CONST	ENDS
;	COMDAT ??_C@_0BP@JHALFFJF@SetNumberHorizontalAlignCenter@
CONST	SEGMENT
??_C@_0BP@JHALFFJF@SetNumberHorizontalAlignCenter@ DB 'SetNumberHorizonta'
	DB	'lAlignCenter', 00H				; `string'
CONST	ENDS
;	COMDAT ??_C@_09JMPLPNNO@SetNumber@
CONST	SEGMENT
??_C@_09JMPLPNNO@SetNumber@ DB 'SetNumber', 00H		; `string'
CONST	ENDS
;	COMDAT ??_C@_0BC@DJJGDMOB@GetCursorPosition@
CONST	SEGMENT
??_C@_0BC@DJJGDMOB@GetCursorPosition@ DB 'GetCursorPosition', 00H ; `string'
CONST	ENDS
;	COMDAT ??_C@_0L@MGJDDPFG@HideCursor@
CONST	SEGMENT
??_C@_0L@MGJDDPFG@HideCursor@ DB 'HideCursor', 00H	; `string'
CONST	ENDS
;	COMDAT ??_C@_0L@BIENLPGM@ShowCursor@
CONST	SEGMENT
??_C@_0L@BIENLPGM@ShowCursor@ DB 'ShowCursor', 00H	; `string'
CONST	ENDS
;	COMDAT ??_C@_0M@JOAAGILP@GetTextSize@
CONST	SEGMENT
??_C@_0M@JOAAGILP@GetTextSize@ DB 'GetTextSize', 00H	; `string'
CONST	ENDS
;	COMDAT ??_C@_07CAGCCMNH@GetText@
CONST	SEGMENT
??_C@_07CAGCCMNH@GetText@ DB 'GetText', 00H		; `string'
CONST	ENDS
;	COMDAT ??_C@_0O@FIAFKHF@SetLimitWidth@
CONST	SEGMENT
??_C@_0O@FIAFKHF@SetLimitWidth@ DB 'SetLimitWidth', 00H	; `string'
CONST	ENDS
;	COMDAT ??_C@_0N@MKCFOAAE@SetFontColor@
CONST	SEGMENT
??_C@_0N@MKCFOAAE@SetFontColor@ DB 'SetFontColor', 00H	; `string'
CONST	ENDS
;	COMDAT ??_C@_0M@MCELKPNO@SetFontName@
CONST	SEGMENT
??_C@_0M@MCELKPNO@SetFontName@ DB 'SetFontName', 00H	; `string'
CONST	ENDS
;	COMDAT ??_C@_07NIJDBDAG@SetText@
CONST	SEGMENT
??_C@_07NIJDBDAG@SetText@ DB 'SetText', 00H		; `string'
CONST	ENDS
;	COMDAT ??_C@_0N@FKMHLJHG@SetMultiLine@
CONST	SEGMENT
??_C@_0N@FKMHLJHG@SetMultiLine@ DB 'SetMultiLine', 00H	; `string'
CONST	ENDS
;	COMDAT ??_C@_0L@LLKEFHFA@SetFeather@
CONST	SEGMENT
??_C@_0L@LLKEFHFA@SetFeather@ DB 'SetFeather', 00H	; `string'
CONST	ENDS
;	COMDAT ??_C@_0L@HBNEJDMM@SetOutline@
CONST	SEGMENT
??_C@_0L@HBNEJDMM@SetOutline@ DB 'SetOutline', 00H	; `string'
CONST	ENDS
;	COMDAT ??_C@_09CAFHEMDD@SetSecret@
CONST	SEGMENT
??_C@_09CAFHEMDD@SetSecret@ DB 'SetSecret', 00H		; `string'
CONST	ENDS
;	COMDAT ??_C@_0BB@NKHPOFIC@SetVerticalAlign@
CONST	SEGMENT
??_C@_0BB@NKHPOFIC@SetVerticalAlign@ DB 'SetVerticalAlign', 00H ; `string'
CONST	ENDS
;	COMDAT ??_C@_0BD@FCLDCEMA@SetHorizontalAlign@
CONST	SEGMENT
??_C@_0BD@FCLDCEMA@SetHorizontalAlign@ DB 'SetHorizontalAlign', 00H ; `string'
CONST	ENDS
;	COMDAT ??_C@_06ODEINJEE@SetMax@
CONST	SEGMENT
??_C@_06ODEINJEE@SetMax@ DB 'SetMax', 00H		; `string'
CONST	ENDS
;	COMDAT ??_C@_08GPNJILIJ@SetColor@
CONST	SEGMENT
??_C@_08GPNJILIJ@SetColor@ DB 'SetColor', 00H		; `string'
CONST	ENDS
;	COMDAT ??_C@_0L@DPNFKPLP@UnlockSlot@
CONST	SEGMENT
??_C@_0L@DPNFKPLP@UnlockSlot@ DB 'UnlockSlot', 00H	; `string'
CONST	ENDS
;	COMDAT ??_C@_08PGGNMNPL@LockSlot@
CONST	SEGMENT
??_C@_08PGGNMNPL@LockSlot@ DB 'LockSlot', 00H		; `string'
CONST	ENDS
;	COMDAT ??_C@_0N@PALCIPBL@GetSlotCount@
CONST	SEGMENT
??_C@_0N@PALCIPBL@GetSlotCount@ DB 'GetSlotCount', 00H	; `string'
CONST	ENDS
;	COMDAT ??_C@_0P@GKJOEMLC@IsSelectedSlot@
CONST	SEGMENT
??_C@_0P@GKJOEMLC@IsSelectedSlot@ DB 'IsSelectedSlot', 00H ; `string'
CONST	ENDS
;	COMDAT ??_C@_0BG@DJKADEKA@GetSelectedSlotNumber@
CONST	SEGMENT
??_C@_0BG@DJKADEKA@GetSelectedSlotNumber@ DB 'GetSelectedSlotNumber', 00H ; `string'
CONST	ENDS
;	COMDAT ??_C@_0BF@EECMELAK@GetSelectedSlotCount@
CONST	SEGMENT
??_C@_0BF@EECMELAK@GetSelectedSlotCount@ DB 'GetSelectedSlotCount', 00H ; `string'
CONST	ENDS
;	COMDAT ??_C@_0O@OGHLMGNI@ClearSelected@
CONST	SEGMENT
??_C@_0O@OGHLMGNI@ClearSelected@ DB 'ClearSelected', 00H ; `string'
CONST	ENDS
;	COMDAT ??_C@_0L@EMMADCIN@SelectSlot@
CONST	SEGMENT
??_C@_0L@EMMADCIN@SelectSlot@ DB 'SelectSlot', 00H	; `string'
CONST	ENDS
;	COMDAT ??_C@_0O@LHCBGPMO@SetUsableItem@
CONST	SEGMENT
??_C@_0O@LHCBGPMO@SetUsableItem@ DB 'SetUsableItem', 00H ; `string'
CONST	ENDS
;	COMDAT ??_C@_0L@ODKIIGJF@SetUseMode@
CONST	SEGMENT
??_C@_0L@ODKIIGJF@SetUseMode@ DB 'SetUseMode', 00H	; `string'
CONST	ENDS
;	COMDAT ??_C@_0M@NAPCHMAM@RefreshSlot@
CONST	SEGMENT
??_C@_0M@NAPCHMAM@RefreshSlot@ DB 'RefreshSlot', 00H	; `string'
CONST	ENDS
;	COMDAT ??_C@_0BE@LNAIGOOK@HideRequirementSign@
CONST	SEGMENT
??_C@_0BE@LNAIGOOK@HideRequirementSign@ DB 'HideRequirementSign', 00H ; `string'
CONST	ENDS
;	COMDAT ??_C@_0BE@IGOEKEDL@ShowRequirementSign@
CONST	SEGMENT
??_C@_0BE@IGOEKEDL@ShowRequirementSign@ DB 'ShowRequirementSign', 00H ; `string'
CONST	ENDS
;	COMDAT ??_C@_0BC@IHMDJONI@HideAllSlotButton@
CONST	SEGMENT
??_C@_0BC@IHMDJONI@HideAllSlotButton@ DB 'HideAllSlotButton', 00H ; `string'
CONST	ENDS
;	COMDAT ??_C@_0P@CINLEJEK@ShowSlotButton@
CONST	SEGMENT
??_C@_0P@CINLEJEK@ShowSlotButton@ DB 'ShowSlotButton', 00H ; `string'
CONST	ENDS
;	COMDAT ??_C@_0BL@CCGBCIBD@AppendRequirementSignImage@
CONST	SEGMENT
??_C@_0BL@CCGBCIBD@AppendRequirementSignImage@ DB 'AppendRequirementSignI'
	DB	'mage', 00H					; `string'
CONST	ENDS
;	COMDAT ??_C@_0BB@LLDDGEIL@AppendSlotButton@
CONST	SEGMENT
??_C@_0BB@LLDDGEIL@AppendSlotButton@ DB 'AppendSlotButton', 00H ; `string'
CONST	ENDS
;	COMDAT ??_C@_0BL@PAFAGEGB@SetAlwaysRenderCoverButton@
CONST	SEGMENT
??_C@_0BL@PAFAGEGB@SetAlwaysRenderCoverButton@ DB 'SetAlwaysRenderCoverBu'
	DB	'tton', 00H					; `string'
CONST	ENDS
;	COMDAT ??_C@_0BF@ILDMDDMH@IsDisableCoverButton@
CONST	SEGMENT
??_C@_0BF@ILDMDDMH@IsDisableCoverButton@ DB 'IsDisableCoverButton', 00H ; `string'
CONST	ENDS
;	COMDAT ??_C@_0BD@DOJCOOMI@DisableCoverButton@
CONST	SEGMENT
??_C@_0BD@DOJCOOMI@DisableCoverButton@ DB 'DisableCoverButton', 00H ; `string'
CONST	ENDS
;	COMDAT ??_C@_0BC@GDLBPCHF@EnableCoverButton@
CONST	SEGMENT
??_C@_0BC@GDLBPCHF@EnableCoverButton@ DB 'EnableCoverButton', 00H ; `string'
CONST	ENDS
;	COMDAT ??_C@_0P@JKHNGGPA@SetCoverButton@
CONST	SEGMENT
??_C@_0P@JKHNGGPA@SetCoverButton@ DB 'SetCoverButton', 00H ; `string'
CONST	ENDS
;	COMDAT ??_C@_0BB@IOMAJEMI@SetSlotBaseImage@
CONST	SEGMENT
??_C@_0BB@IOMAJEMI@SetSlotBaseImage@ DB 'SetSlotBaseImage', 00H ; `string'
CONST	ENDS
;	COMDAT ??_C@_0N@IKGBKPJJ@SetSlotStyle@
CONST	SEGMENT
??_C@_0N@IKGBKPJJ@SetSlotStyle@ DB 'SetSlotStyle', 00H	; `string'
CONST	ENDS
;	COMDAT ??_C@_0M@KHOHGEMH@SetSlotType@
CONST	SEGMENT
??_C@_0M@KHOHGEMH@SetSlotType@ DB 'SetSlotType', 00H	; `string'
CONST	ENDS
;	COMDAT ??_C@_0BC@NFMHNFLM@HideSlotBaseImage@
CONST	SEGMENT
??_C@_0BC@NFMHNFLM@HideSlotBaseImage@ DB 'HideSlotBaseImage', 00H ; `string'
CONST	ENDS
;	COMDAT ??_C@_0BC@DHCKDEOK@ShowSlotBaseImage@
CONST	SEGMENT
??_C@_0BC@DHCKDEOK@ShowSlotBaseImage@ DB 'ShowSlotBaseImage', 00H ; `string'
CONST	ENDS
;	COMDAT ??_C@_0M@EKMKGECP@DisableSlot@
CONST	SEGMENT
??_C@_0M@EKMKGECP@DisableSlot@ DB 'DisableSlot', 00H	; `string'
CONST	ENDS
;	COMDAT ??_C@_0L@DHCLIIGL@EnableSlot@
CONST	SEGMENT
??_C@_0L@DHCLIIGL@EnableSlot@ DB 'EnableSlot', 00H	; `string'
CONST	ENDS
;	COMDAT ??_C@_0P@FGAIANEO@DeactivateSlot@
CONST	SEGMENT
??_C@_0P@FGAIANEO@DeactivateSlot@ DB 'DeactivateSlot', 00H ; `string'
CONST	ENDS
;	COMDAT ??_C@_0N@HFCIPMIE@ActivateSlot@
CONST	SEGMENT
??_C@_0N@HFCIPMIE@ActivateSlot@ DB 'ActivateSlot', 00H	; `string'
CONST	ENDS
;	COMDAT ??_C@_0O@FJKNHKBL@SetToggleSlot@
CONST	SEGMENT
??_C@_0O@FJKNHKBL@SetToggleSlot@ DB 'SetToggleSlot', 00H ; `string'
CONST	ENDS
;	COMDAT ??_C@_0BA@OKBNFKML@SetSlotCoolTime@
CONST	SEGMENT
??_C@_0BA@OKBNFKML@SetSlotCoolTime@ DB 'SetSlotCoolTime', 00H ; `string'
CONST	ENDS
;	COMDAT ??_C@_0BA@OOLIKBKI@SetSlotCountNew@
CONST	SEGMENT
??_C@_0BA@OOLIKBKI@SetSlotCountNew@ DB 'SetSlotCountNew', 00H ; `string'
CONST	ENDS
;	COMDAT ??_C@_0N@IEAMEDFH@SetSlotCount@
CONST	SEGMENT
??_C@_0N@IEAMEDFH@SetSlotCount@ DB 'SetSlotCount', 00H	; `string'
CONST	ENDS
;	COMDAT ??_C@_07ONCDFGJ@SetSlot@
CONST	SEGMENT
??_C@_07ONCDFGJ@SetSlot@ DB 'SetSlot', 00H		; `string'
CONST	ENDS
;	COMDAT ??_C@_07MGEJAMLP@HasSlot@
CONST	SEGMENT
??_C@_07MGEJAMLP@HasSlot@ DB 'HasSlot', 00H		; `string'
CONST	ENDS
;	COMDAT ??_C@_0N@MMOLDNHK@ClearAllSlot@
CONST	SEGMENT
??_C@_0N@MMOLDNHK@ClearAllSlot@ DB 'ClearAllSlot', 00H	; `string'
CONST	ENDS
;	COMDAT ??_C@_09CGBENBJB@ClearSlot@
CONST	SEGMENT
??_C@_09CGBENBJB@ClearSlot@ DB 'ClearSlot', 00H		; `string'
CONST	ENDS
;	COMDAT ??_C@_0M@OFNEHKDL@ArrangeSlot@
CONST	SEGMENT
??_C@_0M@OFNEHKDL@ArrangeSlot@ DB 'ArrangeSlot', 00H	; `string'
CONST	ENDS
;	COMDAT ??_C@_0L@FDCINHBF@AppendSlot@
CONST	SEGMENT
??_C@_0L@FDCINHBF@AppendSlot@ DB 'AppendSlot', 00H	; `string'
CONST	ENDS
;	COMDAT ??_C@_0L@HJOBPCKA@UpdateRect@
CONST	SEGMENT
??_C@_0L@HJOBPCKA@UpdateRect@ DB 'UpdateRect', 00H	; `string'
CONST	ENDS
;	COMDAT ??_C@_0N@CCOOMDHD@SetLimitBias@
CONST	SEGMENT
??_C@_0N@CCOOMDHD@SetLimitBias@ DB 'SetLimitBias', 00H	; `string'
CONST	ENDS
;	COMDAT ??_C@_0L@HEPBODCJ@IsDragging@
CONST	SEGMENT
??_C@_0L@HEPBODCJ@IsDragging@ DB 'IsDragging', 00H	; `string'
CONST	ENDS
;	COMDAT ??_C@_0BB@MMLACOLH@GetMousePosition@
CONST	SEGMENT
??_C@_0BB@MMLACOLH@GetMousePosition@ DB 'GetMousePosition', 00H ; `string'
CONST	ENDS
;	COMDAT ??_C@_0BG@NHBHOLBI@GetMouseLocalPosition@
CONST	SEGMENT
??_C@_0BG@NHBHOLBI@GetMouseLocalPosition@ DB 'GetMouseLocalPosition', 00H ; `string'
CONST	ENDS
;	COMDAT ??_C@_04JBIBMNMO@IsIn@
CONST	SEGMENT
??_C@_04JBIBMNMO@IsIn@ DB 'IsIn', 00H			; `string'
CONST	ENDS
;	COMDAT ??_C@_0P@GEIEEBJH@IsPickedWindow@
CONST	SEGMENT
??_C@_0P@GEIEEBJH@IsPickedWindow@ DB 'IsPickedWindow', 00H ; `string'
CONST	ENDS
;	COMDAT ??_C@_0O@HMBCELHA@GetChildCount@
CONST	SEGMENT
??_C@_0O@HMBCELHA@GetChildCount@ DB 'GetChildCount', 00H ; `string'
CONST	ENDS
;	COMDAT ??_C@_0BH@KDPMNJIB@SetWindowVerticalAlign@
CONST	SEGMENT
??_C@_0BH@KDPMNJIB@SetWindowVerticalAlign@ DB 'SetWindowVerticalAlign', 00H ; `string'
CONST	ENDS
;	COMDAT ??_C@_0BJ@FGPBHCAH@SetWindowHorizontalAlign@
CONST	SEGMENT
??_C@_0BJ@FGPBHCAH@SetWindowHorizontalAlign@ DB 'SetWindowHorizontalAlign'
	DB	00H						; `string'
CONST	ENDS
;	COMDAT ??_C@_0O@KGOHEIMB@GetWindowRect@
CONST	SEGMENT
??_C@_0O@KGOHEIMB@GetWindowRect@ DB 'GetWindowRect', 00H ; `string'
CONST	ENDS
;	COMDAT ??_C@_0BI@NOJPNPDO@GetWindowGlobalPosition@
CONST	SEGMENT
??_C@_0BI@NOJPNPDO@GetWindowGlobalPosition@ DB 'GetWindowGlobalPosition', 00H ; `string'
CONST	ENDS
;	COMDAT ??_C@_0BH@KEOBHEHD@GetWindowLocalPosition@
CONST	SEGMENT
??_C@_0BH@KEOBHEHD@GetWindowLocalPosition@ DB 'GetWindowLocalPosition', 00H ; `string'
CONST	ENDS
;	COMDAT ??_C@_0BA@GMMDIMHA@GetWindowHeight@
CONST	SEGMENT
??_C@_0BA@GMMDIMHA@GetWindowHeight@ DB 'GetWindowHeight', 00H ; `string'
CONST	ENDS
;	COMDAT ??_C@_0P@EJALLAMK@GetWindowWidth@
CONST	SEGMENT
??_C@_0P@EJALLAMK@GetWindowWidth@ DB 'GetWindowWidth', 00H ; `string'
CONST	ENDS
;	COMDAT ??_C@_0BC@CONADAIE@SetWindowPosition@
CONST	SEGMENT
??_C@_0BC@CONADAIE@SetWindowPosition@ DB 'SetWindowPosition', 00H ; `string'
CONST	ENDS
;	COMDAT ??_C@_0O@OOGBNGFB@SetWindowSize@
CONST	SEGMENT
??_C@_0O@OOGBNGFB@SetWindowSize@ DB 'SetWindowSize', 00H ; `string'
CONST	ENDS
;	COMDAT ??_C@_06NCJPDCLH@Unlock@
CONST	SEGMENT
??_C@_06NCJPDCLH@Unlock@ DB 'Unlock', 00H		; `string'
CONST	ENDS
;	COMDAT ??_C@_04LADJNOK@Lock@
CONST	SEGMENT
??_C@_04LADJNOK@Lock@ DB 'Lock', 00H			; `string'
CONST	ENDS
;	COMDAT ??_C@_09PMGFBOMK@KillFocus@
CONST	SEGMENT
??_C@_09PMGFBOMK@KillFocus@ DB 'KillFocus', 00H		; `string'
CONST	ENDS
;	COMDAT ??_C@_08GPNNBNIL@SetFocus@
CONST	SEGMENT
??_C@_08GPNNBNIL@SetFocus@ DB 'SetFocus', 00H		; `string'
CONST	ENDS
;	COMDAT ??_C@_07MMFHOCGI@IsFocus@
CONST	SEGMENT
??_C@_07MMFHOCGI@IsFocus@ DB 'IsFocus', 00H		; `string'
CONST	ENDS
;	COMDAT ??_C@_0O@PGINCMBF@SetPickAlways@
CONST	SEGMENT
??_C@_0O@PGINCMBF@SetPickAlways@ DB 'SetPickAlways', 00H ; `string'
CONST	ENDS
;	COMDAT ??_C@_09BGDFCKEN@SetParent@
CONST	SEGMENT
??_C@_09BGDFCKEN@SetParent@ DB 'SetParent', 00H		; `string'
CONST	ENDS
;	COMDAT ??_C@_06JMGCGGJP@IsShow@
CONST	SEGMENT
??_C@_06JMGCGGJP@IsShow@ DB 'IsShow', 00H		; `string'
CONST	ENDS
;	COMDAT ??_C@_04EACEFPPN@Hide@
CONST	SEGMENT
??_C@_04EACEFPPN@Hide@ DB 'Hide', 00H			; `string'
CONST	ENDS
;	COMDAT ??_C@_04JLAJABDJ@Show@
CONST	SEGMENT
??_C@_04JLAJABDJ@Show@ DB 'Show', 00H			; `string'
CONST	ENDS
;	COMDAT ??_C@_06MBOGGFD@SetTop@
CONST	SEGMENT
??_C@_06MBOGGFD@SetTop@ DB 'SetTop', 00H		; `string'
CONST	ENDS
;	COMDAT ??_C@_07MMGEHGCI@GetName@
CONST	SEGMENT
??_C@_07MMGEHGCI@GetName@ DB 'GetName', 00H		; `string'
CONST	ENDS
;	COMDAT ??_C@_07DEJFEJPJ@SetName@
CONST	SEGMENT
??_C@_07DEJFEJPJ@SetName@ DB 'SetName', 00H		; `string'
CONST	ENDS
;	COMDAT ??_C@_05IOGFNOKL@IsRTL@
CONST	SEGMENT
??_C@_05IOGFNOKL@IsRTL@ DB 'IsRTL', 00H			; `string'
CONST	ENDS
;	COMDAT ??_C@_07FGJMHOHK@AddFlag@
CONST	SEGMENT
??_C@_07FGJMHOHK@AddFlag@ DB 'AddFlag', 00H		; `string'
CONST	ENDS
;	COMDAT ??_C@_07BDCAJABG@Destroy@
CONST	SEGMENT
??_C@_07BDCAJABG@Destroy@ DB 'Destroy', 00H		; `string'
CONST	ENDS
;	COMDAT ??_C@_0BD@DBAMBKME@RegisterNumberLine@
CONST	SEGMENT
??_C@_0BD@DBAMBKME@RegisterNumberLine@ DB 'RegisterNumberLine', 00H ; `string'
CONST	ENDS
;	COMDAT ??_C@_0O@EKKPECKF@RegisterBar3D@
CONST	SEGMENT
??_C@_0O@EKKPECKF@RegisterBar3D@ DB 'RegisterBar3D', 00H ; `string'
CONST	ENDS
;	COMDAT ??_C@_0N@ICAPFHKF@RegisterLine@
CONST	SEGMENT
??_C@_0N@ICAPFHKF@RegisterLine@ DB 'RegisterLine', 00H	; `string'
CONST	ENDS
;	COMDAT ??_C@_0M@DCMAIKFH@RegisterBar@
CONST	SEGMENT
??_C@_0M@DCMAIKFH@RegisterBar@ DB 'RegisterBar', 00H	; `string'
CONST	ENDS
;	COMDAT ??_C@_0M@MCLBEPNH@RegisterBox@
CONST	SEGMENT
??_C@_0M@MCLBEPNH@RegisterBox@ DB 'RegisterBox', 00H	; `string'
CONST	ENDS
;	COMDAT ??_C@_0BD@FJKAFMBK@RegisterDragButton@
CONST	SEGMENT
??_C@_0BD@FJKAFMBK@RegisterDragButton@ DB 'RegisterDragButton', 00H ; `string'
CONST	ENDS
;	COMDAT ??_C@_0BF@LKPDMOKE@RegisterToggleButton@
CONST	SEGMENT
??_C@_0BF@LKPDMOKE@RegisterToggleButton@ DB 'RegisterToggleButton', 00H ; `string'
CONST	ENDS
;	COMDAT ??_C@_0BE@LOKOGAFI@RegisterRadioButton@
CONST	SEGMENT
??_C@_0BE@LOKOGAFI@RegisterRadioButton@ DB 'RegisterRadioButton', 00H ; `string'
CONST	ENDS
;	COMDAT ??_C@_0P@HIFEMCKE@RegisterButton@
CONST	SEGMENT
??_C@_0P@HIFEMCKE@RegisterButton@ DB 'RegisterButton', 00H ; `string'
CONST	ENDS
;	COMDAT ??_C@_0BE@EHOJIJPF@RegisterAniImageBox@
CONST	SEGMENT
??_C@_0BE@EHOJIJPF@RegisterAniImageBox@ DB 'RegisterAniImageBox', 00H ; `string'
CONST	ENDS
;	COMDAT ??_C@_0BJ@HCLPCLBM@RegisterExpandedImageBox@
CONST	SEGMENT
??_C@_0BJ@HCLPCLBM@RegisterExpandedImageBox@ DB 'RegisterExpandedImageBox'
	DB	00H						; `string'
CONST	ENDS
;	COMDAT ??_C@_0BB@CGJHKCPO@RegisterImageBox@
CONST	SEGMENT
??_C@_0BB@CGJHKCPO@RegisterImageBox@ DB 'RegisterImageBox', 00H ; `string'
CONST	ENDS
;	COMDAT ??_C@_0BA@BLOHJECG@RegisterMarkBox@
CONST	SEGMENT
??_C@_0BA@BLOHJECG@RegisterMarkBox@ DB 'RegisterMarkBox', 00H ; `string'
CONST	ENDS
;	COMDAT ??_C@_0BB@JKLFNGCE@RegisterTextLine@
CONST	SEGMENT
??_C@_0BB@JKLFNGCE@RegisterTextLine@ DB 'RegisterTextLine', 00H ; `string'
CONST	ENDS
;	COMDAT ??_C@_0BH@HHDOCCCO@RegisterGridSlotWindow@
CONST	SEGMENT
??_C@_0BH@HHDOCCCO@RegisterGridSlotWindow@ DB 'RegisterGridSlotWindow', 00H ; `string'
CONST	ENDS
;	COMDAT ??_C@_0BD@HNEHNBHO@RegisterSlotWindow@
CONST	SEGMENT
??_C@_0BD@HNEHNBHO@RegisterSlotWindow@ DB 'RegisterSlotWindow', 00H ; `string'
CONST	ENDS
;	COMDAT ??_C@_08LFIJLPOM@Register@
CONST	SEGMENT
??_C@_08LFIJLPOM@Register@ DB 'Register', 00H		; `string'
CONST	ENDS
;	COMDAT ??_C@_0CB@JDNFNFMG@OnceIgnoreMouseLeftButtonUpEven@
CONST	SEGMENT
??_C@_0CB@JDNFNFMG@OnceIgnoreMouseLeftButtonUpEven@ DB 'OnceIgnoreMouseLe'
	DB	'ftButtonUpEvent', 00H			; `string'
CONST	ENDS
;	COMDAT ??_C@_0N@PCIKAOKG@GetHyperlink@
CONST	SEGMENT
??_C@_0N@PCIKAOKG@GetHyperlink@ DB 'GetHyperlink', 00H	; `string'
CONST	ENDS
;	COMDAT ??_C@_09MFNPPPAG@GetAspect@
CONST	SEGMENT
??_C@_09MFNPPPAG@GetAspect@ DB 'GetAspect', 00H		; `string'
CONST	ENDS
;	COMDAT ??_C@_0BB@OJBFCDNH@SetAttachingFlag@
CONST	SEGMENT
??_C@_0BB@OJBFCDNH@SetAttachingFlag@ DB 'SetAttachingFlag', 00H ; `string'
CONST	ENDS
;	COMDAT ??_C@_0N@HIMEHEBA@DeattachIcon@
CONST	SEGMENT
??_C@_0N@HIMEHEBA@DeattachIcon@ DB 'DeattachIcon', 00H	; `string'
CONST	ENDS
;	COMDAT ??_C@_0L@FHGOOMIM@AttachIcon@
CONST	SEGMENT
??_C@_0L@FHGOOMIM@AttachIcon@ DB 'AttachIcon', 00H	; `string'
CONST	ENDS
;	COMDAT ??_C@_0BA@PLLJJDCL@GetScreenHeight@
CONST	SEGMENT
??_C@_0BA@PLLJJDCL@GetScreenHeight@ DB 'GetScreenHeight', 00H ; `string'
CONST	ENDS
;	COMDAT ??_C@_0P@OBMNGDMB@GetScreenWidth@
CONST	SEGMENT
??_C@_0P@OBMNGDMB@GetScreenWidth@ DB 'GetScreenWidth', 00H ; `string'
CONST	ENDS
;	COMDAT ??_C@_0O@EPGNIIPM@SetScreenSize@
CONST	SEGMENT
??_C@_0O@EPGNIIPM@SetScreenSize@ DB 'SetScreenSize', 00H ; `string'
CONST	ENDS
;	COMDAT ??_C@_0BA@PPCHHCMN@SetMouseHandler@
CONST	SEGMENT
??_C@_0BA@PPCHHCMN@SetMouseHandler@ DB 'SetMouseHandler', 00H ; `string'
CONST	ENDS
;	COMDAT ?s_methods@?1??initwndMgr@@YAXXZ@4PAUPyMethodDef@@A
_DATA	SEGMENT
?s_methods@?1??initwndMgr@@YAXXZ@4PAUPyMethodDef@@A DD FLAT:??_C@_0BA@PPCHHCMN@SetMouseHandler@ ; `initwndMgr'::`2'::s_methods
	DD	FLAT:?wndMgrSetMouseHandler@@YAPAU_object@@PAU1@0@Z
	DD	01H
	ORG $+4
	DD	FLAT:??_C@_0O@EPGNIIPM@SetScreenSize@
	DD	FLAT:?wndMgrSetScreenSize@@YAPAU_object@@PAU1@0@Z
	DD	01H
	ORG $+4
	DD	FLAT:??_C@_0P@OBMNGDMB@GetScreenWidth@
	DD	FLAT:?wndMgrGetScreenWidth@@YAPAU_object@@PAU1@0@Z
	DD	01H
	ORG $+4
	DD	FLAT:??_C@_0BA@PLLJJDCL@GetScreenHeight@
	DD	FLAT:?wndMgrGetScreenHeight@@YAPAU_object@@PAU1@0@Z
	DD	01H
	ORG $+4
	DD	FLAT:??_C@_0L@FHGOOMIM@AttachIcon@
	DD	FLAT:?wndMgrAttachIcon@@YAPAU_object@@PAU1@0@Z
	DD	01H
	ORG $+4
	DD	FLAT:??_C@_0N@HIMEHEBA@DeattachIcon@
	DD	FLAT:?wndMgrDeattachIcon@@YAPAU_object@@PAU1@0@Z
	DD	01H
	ORG $+4
	DD	FLAT:??_C@_0BB@OJBFCDNH@SetAttachingFlag@
	DD	FLAT:?wndMgrSetAttachingFlag@@YAPAU_object@@PAU1@0@Z
	DD	01H
	ORG $+4
	DD	FLAT:??_C@_09MFNPPPAG@GetAspect@
	DD	FLAT:?wndMgrGetAspect@@YAPAU_object@@PAU1@0@Z
	DD	01H
	ORG $+4
	DD	FLAT:??_C@_0N@PCIKAOKG@GetHyperlink@
	DD	FLAT:?wndMgrGetHyperlink@@YAPAU_object@@PAU1@0@Z
	DD	01H
	ORG $+4
	DD	FLAT:??_C@_0CB@JDNFNFMG@OnceIgnoreMouseLeftButtonUpEven@
	DD	FLAT:?wndMgrOnceIgnoreMouseLeftButtonUpEvent@@YAPAU_object@@PAU1@0@Z
	DD	01H
	ORG $+4
	DD	FLAT:??_C@_08LFIJLPOM@Register@
	DD	FLAT:?wndMgrRegister@@YAPAU_object@@PAU1@0@Z
	DD	01H
	ORG $+4
	DD	FLAT:??_C@_0BD@HNEHNBHO@RegisterSlotWindow@
	DD	FLAT:?wndMgrRegisterSlotWindow@@YAPAU_object@@PAU1@0@Z
	DD	01H
	ORG $+4
	DD	FLAT:??_C@_0BH@HHDOCCCO@RegisterGridSlotWindow@
	DD	FLAT:?wndMgrRegisterGridSlotWindow@@YAPAU_object@@PAU1@0@Z
	DD	01H
	ORG $+4
	DD	FLAT:??_C@_0BB@JKLFNGCE@RegisterTextLine@
	DD	FLAT:?wndMgrRegisterTextLine@@YAPAU_object@@PAU1@0@Z
	DD	01H
	ORG $+4
	DD	FLAT:??_C@_0BA@BLOHJECG@RegisterMarkBox@
	DD	FLAT:?wndMgrRegisterMarkBox@@YAPAU_object@@PAU1@0@Z
	DD	01H
	ORG $+4
	DD	FLAT:??_C@_0BB@CGJHKCPO@RegisterImageBox@
	DD	FLAT:?wndMgrRegisterImageBox@@YAPAU_object@@PAU1@0@Z
	DD	01H
	ORG $+4
	DD	FLAT:??_C@_0BJ@HCLPCLBM@RegisterExpandedImageBox@
	DD	FLAT:?wndMgrRegisterExpandedImageBox@@YAPAU_object@@PAU1@0@Z
	DD	01H
	ORG $+4
	DD	FLAT:??_C@_0BE@EHOJIJPF@RegisterAniImageBox@
	DD	FLAT:?wndMgrRegisterAniImageBox@@YAPAU_object@@PAU1@0@Z
	DD	01H
	ORG $+4
	DD	FLAT:??_C@_0P@HIFEMCKE@RegisterButton@
	DD	FLAT:?wndMgrRegisterButton@@YAPAU_object@@PAU1@0@Z
	DD	01H
	ORG $+4
	DD	FLAT:??_C@_0BE@LOKOGAFI@RegisterRadioButton@
	DD	FLAT:?wndMgrRegisterRadioButton@@YAPAU_object@@PAU1@0@Z
	DD	01H
	ORG $+4
	DD	FLAT:??_C@_0BF@LKPDMOKE@RegisterToggleButton@
	DD	FLAT:?wndMgrRegisterToggleButton@@YAPAU_object@@PAU1@0@Z
	DD	01H
	ORG $+4
	DD	FLAT:??_C@_0BD@FJKAFMBK@RegisterDragButton@
	DD	FLAT:?wndMgrRegisterDragButton@@YAPAU_object@@PAU1@0@Z
	DD	01H
	ORG $+4
	DD	FLAT:??_C@_0M@MCLBEPNH@RegisterBox@
	DD	FLAT:?wndMgrRegisterBox@@YAPAU_object@@PAU1@0@Z
	DD	01H
	ORG $+4
	DD	FLAT:??_C@_0M@DCMAIKFH@RegisterBar@
	DD	FLAT:?wndMgrRegisterBar@@YAPAU_object@@PAU1@0@Z
	DD	01H
	ORG $+4
	DD	FLAT:??_C@_0N@ICAPFHKF@RegisterLine@
	DD	FLAT:?wndMgrRegisterLine@@YAPAU_object@@PAU1@0@Z
	DD	01H
	ORG $+4
	DD	FLAT:??_C@_0O@EKKPECKF@RegisterBar3D@
	DD	FLAT:?wndMgrRegisterBar3D@@YAPAU_object@@PAU1@0@Z
	DD	01H
	ORG $+4
	DD	FLAT:??_C@_0BD@DBAMBKME@RegisterNumberLine@
	DD	FLAT:?wndMgrRegisterNumberLine@@YAPAU_object@@PAU1@0@Z
	DD	01H
	ORG $+4
	DD	FLAT:??_C@_07BDCAJABG@Destroy@
	DD	FLAT:?wndMgrDestroy@@YAPAU_object@@PAU1@0@Z
	DD	01H
	ORG $+4
	DD	FLAT:??_C@_07FGJMHOHK@AddFlag@
	DD	FLAT:?wndMgrAddFlag@@YAPAU_object@@PAU1@0@Z
	DD	01H
	ORG $+4
	DD	FLAT:??_C@_05IOGFNOKL@IsRTL@
	DD	FLAT:?wndMgrIsRTL@@YAPAU_object@@PAU1@0@Z
	DD	01H
	ORG $+4
	DD	FLAT:??_C@_07DEJFEJPJ@SetName@
	DD	FLAT:?wndMgrSetName@@YAPAU_object@@PAU1@0@Z
	DD	01H
	ORG $+4
	DD	FLAT:??_C@_07MMGEHGCI@GetName@
	DD	FLAT:?wndMgrGetName@@YAPAU_object@@PAU1@0@Z
	DD	01H
	ORG $+4
	DD	FLAT:??_C@_06MBOGGFD@SetTop@
	DD	FLAT:?wndMgrSetTop@@YAPAU_object@@PAU1@0@Z
	DD	01H
	ORG $+4
	DD	FLAT:??_C@_04JLAJABDJ@Show@
	DD	FLAT:?wndMgrShow@@YAPAU_object@@PAU1@0@Z
	DD	01H
	ORG $+4
	DD	FLAT:??_C@_04EACEFPPN@Hide@
	DD	FLAT:?wndMgrHide@@YAPAU_object@@PAU1@0@Z
	DD	01H
	ORG $+4
	DD	FLAT:??_C@_06JMGCGGJP@IsShow@
	DD	FLAT:?wndMgrIsShow@@YAPAU_object@@PAU1@0@Z
	DD	01H
	ORG $+4
	DD	FLAT:??_C@_09BGDFCKEN@SetParent@
	DD	FLAT:?wndMgrSetParent@@YAPAU_object@@PAU1@0@Z
	DD	01H
	ORG $+4
	DD	FLAT:??_C@_0O@PGINCMBF@SetPickAlways@
	DD	FLAT:?wndMgrSetPickAlways@@YAPAU_object@@PAU1@0@Z
	DD	01H
	ORG $+4
	DD	FLAT:??_C@_07MMFHOCGI@IsFocus@
	DD	FLAT:?wndMgrIsFocus@@YAPAU_object@@PAU1@0@Z
	DD	01H
	ORG $+4
	DD	FLAT:??_C@_08GPNNBNIL@SetFocus@
	DD	FLAT:?wndMgrSetFocus@@YAPAU_object@@PAU1@0@Z
	DD	01H
	ORG $+4
	DD	FLAT:??_C@_09PMGFBOMK@KillFocus@
	DD	FLAT:?wndMgrKillFocus@@YAPAU_object@@PAU1@0@Z
	DD	01H
	ORG $+4
	DD	FLAT:??_C@_04LADJNOK@Lock@
	DD	FLAT:?wndMgrLock@@YAPAU_object@@PAU1@0@Z
	DD	01H
	ORG $+4
	DD	FLAT:??_C@_06NCJPDCLH@Unlock@
	DD	FLAT:?wndMgrUnlock@@YAPAU_object@@PAU1@0@Z
	DD	01H
	ORG $+4
	DD	FLAT:??_C@_0O@OOGBNGFB@SetWindowSize@
	DD	FLAT:?wndMgrSetWndSize@@YAPAU_object@@PAU1@0@Z
	DD	01H
	ORG $+4
	DD	FLAT:??_C@_0BC@CONADAIE@SetWindowPosition@
	DD	FLAT:?wndMgrSetWndPosition@@YAPAU_object@@PAU1@0@Z
	DD	01H
	ORG $+4
	DD	FLAT:??_C@_0P@EJALLAMK@GetWindowWidth@
	DD	FLAT:?wndMgrGetWndWidth@@YAPAU_object@@PAU1@0@Z
	DD	01H
	ORG $+4
	DD	FLAT:??_C@_0BA@GMMDIMHA@GetWindowHeight@
	DD	FLAT:?wndMgrGetWndHeight@@YAPAU_object@@PAU1@0@Z
	DD	01H
	ORG $+4
	DD	FLAT:??_C@_0BH@KEOBHEHD@GetWindowLocalPosition@
	DD	FLAT:?wndMgrGetWndLocalPosition@@YAPAU_object@@PAU1@0@Z
	DD	01H
	ORG $+4
	DD	FLAT:??_C@_0BI@NOJPNPDO@GetWindowGlobalPosition@
	DD	FLAT:?wndMgrGetWndGlobalPosition@@YAPAU_object@@PAU1@0@Z
	DD	01H
	ORG $+4
	DD	FLAT:??_C@_0O@KGOHEIMB@GetWindowRect@
	DD	FLAT:?wndMgrGetWindowRect@@YAPAU_object@@PAU1@0@Z
	DD	01H
	ORG $+4
	DD	FLAT:??_C@_0BJ@FGPBHCAH@SetWindowHorizontalAlign@
	DD	FLAT:?wndMgrSetWindowHorizontalAlign@@YAPAU_object@@PAU1@0@Z
	DD	01H
	ORG $+4
	DD	FLAT:??_C@_0BH@KDPMNJIB@SetWindowVerticalAlign@
	DD	FLAT:?wndMgrSetWindowVerticalAlign@@YAPAU_object@@PAU1@0@Z
	DD	01H
	ORG $+4
	DD	FLAT:??_C@_0O@HMBCELHA@GetChildCount@
	DD	FLAT:?wndMgrGetChildCount@@YAPAU_object@@PAU1@0@Z
	DD	01H
	ORG $+4
	DD	FLAT:??_C@_0P@GEIEEBJH@IsPickedWindow@
	DD	FLAT:?wndMgrIsPickedWindow@@YAPAU_object@@PAU1@0@Z
	DD	01H
	ORG $+4
	DD	FLAT:??_C@_04JBIBMNMO@IsIn@
	DD	FLAT:?wndMgrIsIn@@YAPAU_object@@PAU1@0@Z
	DD	01H
	ORG $+4
	DD	FLAT:??_C@_0BG@NHBHOLBI@GetMouseLocalPosition@
	DD	FLAT:?wndMgrGetMouseLocalPosition@@YAPAU_object@@PAU1@0@Z
	DD	01H
	ORG $+4
	DD	FLAT:??_C@_0BB@MMLACOLH@GetMousePosition@
	DD	FLAT:?wndMgrGetMousePosition@@YAPAU_object@@PAU1@0@Z
	DD	01H
	ORG $+4
	DD	FLAT:??_C@_0L@HEPBODCJ@IsDragging@
	DD	FLAT:?wndMgrIsDragging@@YAPAU_object@@PAU1@0@Z
	DD	01H
	ORG $+4
	DD	FLAT:??_C@_0N@CCOOMDHD@SetLimitBias@
	DD	FLAT:?wndMgrSetLimitBias@@YAPAU_object@@PAU1@0@Z
	DD	01H
	ORG $+4
	DD	FLAT:??_C@_0L@HJOBPCKA@UpdateRect@
	DD	FLAT:?wndMgrUpdateRect@@YAPAU_object@@PAU1@0@Z
	DD	01H
	ORG $+4
	DD	FLAT:??_C@_0L@FDCINHBF@AppendSlot@
	DD	FLAT:?wndMgrAppendSlot@@YAPAU_object@@PAU1@0@Z
	DD	01H
	ORG $+4
	DD	FLAT:??_C@_0M@OFNEHKDL@ArrangeSlot@
	DD	FLAT:?wndMgrArrangeSlot@@YAPAU_object@@PAU1@0@Z
	DD	01H
	ORG $+4
	DD	FLAT:??_C@_09CGBENBJB@ClearSlot@
	DD	FLAT:?wndMgrClearSlot@@YAPAU_object@@PAU1@0@Z
	DD	01H
	ORG $+4
	DD	FLAT:??_C@_0N@MMOLDNHK@ClearAllSlot@
	DD	FLAT:?wndMgrClearAllSlot@@YAPAU_object@@PAU1@0@Z
	DD	01H
	ORG $+4
	DD	FLAT:??_C@_07MGEJAMLP@HasSlot@
	DD	FLAT:?wndMgrHasSlot@@YAPAU_object@@PAU1@0@Z
	DD	01H
	ORG $+4
	DD	FLAT:??_C@_07ONCDFGJ@SetSlot@
	DD	FLAT:?wndMgrSetSlot@@YAPAU_object@@PAU1@0@Z
	DD	01H
	ORG $+4
	DD	FLAT:??_C@_0N@IEAMEDFH@SetSlotCount@
	DD	FLAT:?wndMgrSetSlotCount@@YAPAU_object@@PAU1@0@Z
	DD	01H
	ORG $+4
	DD	FLAT:??_C@_0BA@OOLIKBKI@SetSlotCountNew@
	DD	FLAT:?wndMgrSetSlotCountNew@@YAPAU_object@@PAU1@0@Z
	DD	01H
	ORG $+4
	DD	FLAT:??_C@_0BA@OKBNFKML@SetSlotCoolTime@
	DD	FLAT:?wndMgrSetSlotCoolTime@@YAPAU_object@@PAU1@0@Z
	DD	01H
	ORG $+4
	DD	FLAT:??_C@_0O@FJKNHKBL@SetToggleSlot@
	DD	FLAT:?wndMgrSetToggleSlot@@YAPAU_object@@PAU1@0@Z
	DD	01H
	ORG $+4
	DD	FLAT:??_C@_0N@HFCIPMIE@ActivateSlot@
	DD	FLAT:?wndMgrActivateSlot@@YAPAU_object@@PAU1@0@Z
	DD	01H
	ORG $+4
	DD	FLAT:??_C@_0P@FGAIANEO@DeactivateSlot@
	DD	FLAT:?wndMgrDeactivateSlot@@YAPAU_object@@PAU1@0@Z
	DD	01H
	ORG $+4
	DD	FLAT:??_C@_0L@DHCLIIGL@EnableSlot@
	DD	FLAT:?wndMgrEnableSlot@@YAPAU_object@@PAU1@0@Z
	DD	01H
	ORG $+4
	DD	FLAT:??_C@_0M@EKMKGECP@DisableSlot@
	DD	FLAT:?wndMgrDisableSlot@@YAPAU_object@@PAU1@0@Z
	DD	01H
	ORG $+4
	DD	FLAT:??_C@_0BC@DHCKDEOK@ShowSlotBaseImage@
	DD	FLAT:?wndMgrShowSlotBaseImage@@YAPAU_object@@PAU1@0@Z
	DD	01H
	ORG $+4
	DD	FLAT:??_C@_0BC@NFMHNFLM@HideSlotBaseImage@
	DD	FLAT:?wndMgrHideSlotBaseImage@@YAPAU_object@@PAU1@0@Z
	DD	01H
	ORG $+4
	DD	FLAT:??_C@_0M@KHOHGEMH@SetSlotType@
	DD	FLAT:?wndMgrSetSlotType@@YAPAU_object@@PAU1@0@Z
	DD	01H
	ORG $+4
	DD	FLAT:??_C@_0N@IKGBKPJJ@SetSlotStyle@
	DD	FLAT:?wndMgrSetSlotStyle@@YAPAU_object@@PAU1@0@Z
	DD	01H
	ORG $+4
	DD	FLAT:??_C@_0BB@IOMAJEMI@SetSlotBaseImage@
	DD	FLAT:?wndMgrSetSlotBaseImage@@YAPAU_object@@PAU1@0@Z
	DD	01H
	ORG $+4
	DD	FLAT:??_C@_0P@JKHNGGPA@SetCoverButton@
	DD	FLAT:?wndMgrSetCoverButton@@YAPAU_object@@PAU1@0@Z
	DD	01H
	ORG $+4
	DD	FLAT:??_C@_0BC@GDLBPCHF@EnableCoverButton@
	DD	FLAT:?wndMgrEnableCoverButton@@YAPAU_object@@PAU1@0@Z
	DD	01H
	ORG $+4
	DD	FLAT:??_C@_0BD@DOJCOOMI@DisableCoverButton@
	DD	FLAT:?wndMgrDisableCoverButton@@YAPAU_object@@PAU1@0@Z
	DD	01H
	ORG $+4
	DD	FLAT:??_C@_0BF@ILDMDDMH@IsDisableCoverButton@
	DD	FLAT:?wndMgrIsDisableCoverButton@@YAPAU_object@@PAU1@0@Z
	DD	01H
	ORG $+4
	DD	FLAT:??_C@_0BL@PAFAGEGB@SetAlwaysRenderCoverButton@
	DD	FLAT:?wndMgrSetAlwaysRenderCoverButton@@YAPAU_object@@PAU1@0@Z
	DD	01H
	ORG $+4
	DD	FLAT:??_C@_0BB@LLDDGEIL@AppendSlotButton@
	DD	FLAT:?wndMgrAppendSlotButton@@YAPAU_object@@PAU1@0@Z
	DD	01H
	ORG $+4
	DD	FLAT:??_C@_0BL@CCGBCIBD@AppendRequirementSignImage@
	DD	FLAT:?wndMgrAppendRequirementSignImage@@YAPAU_object@@PAU1@0@Z
	DD	01H
	ORG $+4
	DD	FLAT:??_C@_0P@CINLEJEK@ShowSlotButton@
	DD	FLAT:?wndMgrShowSlotButton@@YAPAU_object@@PAU1@0@Z
	DD	01H
	ORG $+4
	DD	FLAT:??_C@_0BC@IHMDJONI@HideAllSlotButton@
	DD	FLAT:?wndMgrHideAllSlotButton@@YAPAU_object@@PAU1@0@Z
	DD	01H
	ORG $+4
	DD	FLAT:??_C@_0BE@IGOEKEDL@ShowRequirementSign@
	DD	FLAT:?wndMgrShowRequirementSign@@YAPAU_object@@PAU1@0@Z
	DD	01H
	ORG $+4
	DD	FLAT:??_C@_0BE@LNAIGOOK@HideRequirementSign@
	DD	FLAT:?wndMgrHideRequirementSign@@YAPAU_object@@PAU1@0@Z
	DD	01H
	ORG $+4
	DD	FLAT:??_C@_0M@NAPCHMAM@RefreshSlot@
	DD	FLAT:?wndMgrRefreshSlot@@YAPAU_object@@PAU1@0@Z
	DD	01H
	ORG $+4
	DD	FLAT:??_C@_0L@ODKIIGJF@SetUseMode@
	DD	FLAT:?wndMgrSetUseMode@@YAPAU_object@@PAU1@0@Z
	DD	01H
	ORG $+4
	DD	FLAT:??_C@_0O@LHCBGPMO@SetUsableItem@
	DD	FLAT:?wndMgrSetUsableItem@@YAPAU_object@@PAU1@0@Z
	DD	01H
	ORG $+4
	DD	FLAT:??_C@_0L@EMMADCIN@SelectSlot@
	DD	FLAT:?wndMgrSelectSlot@@YAPAU_object@@PAU1@0@Z
	DD	01H
	ORG $+4
	DD	FLAT:??_C@_0O@OGHLMGNI@ClearSelected@
	DD	FLAT:?wndMgrClearSelected@@YAPAU_object@@PAU1@0@Z
	DD	01H
	ORG $+4
	DD	FLAT:??_C@_0BF@EECMELAK@GetSelectedSlotCount@
	DD	FLAT:?wndMgrGetSelectedSlotCount@@YAPAU_object@@PAU1@0@Z
	DD	01H
	ORG $+4
	DD	FLAT:??_C@_0BG@DJKADEKA@GetSelectedSlotNumber@
	DD	FLAT:?wndMgrGetSelectedSlotNumber@@YAPAU_object@@PAU1@0@Z
	DD	01H
	ORG $+4
	DD	FLAT:??_C@_0P@GKJOEMLC@IsSelectedSlot@
	DD	FLAT:?wndMgrIsSelectedSlot@@YAPAU_object@@PAU1@0@Z
	DD	01H
	ORG $+4
	DD	FLAT:??_C@_0N@PALCIPBL@GetSlotCount@
	DD	FLAT:?wndMgrGetSlotCount@@YAPAU_object@@PAU1@0@Z
	DD	01H
	ORG $+4
	DD	FLAT:??_C@_08PGGNMNPL@LockSlot@
	DD	FLAT:?wndMgrLockSlot@@YAPAU_object@@PAU1@0@Z
	DD	01H
	ORG $+4
	DD	FLAT:??_C@_0L@DPNFKPLP@UnlockSlot@
	DD	FLAT:?wndMgrUnlockSlot@@YAPAU_object@@PAU1@0@Z
	DD	01H
	ORG $+4
	DD	FLAT:??_C@_08GPNJILIJ@SetColor@
	DD	FLAT:?wndBarSetColor@@YAPAU_object@@PAU1@0@Z
	DD	01H
	ORG $+4
	DD	FLAT:??_C@_06ODEINJEE@SetMax@
	DD	FLAT:?wndTextSetMax@@YAPAU_object@@PAU1@0@Z
	DD	01H
	ORG $+4
	DD	FLAT:??_C@_0BD@FCLDCEMA@SetHorizontalAlign@
	DD	FLAT:?wndTextSetHorizontalAlign@@YAPAU_object@@PAU1@0@Z
	DD	01H
	ORG $+4
	DD	FLAT:??_C@_0BB@NKHPOFIC@SetVerticalAlign@
	DD	FLAT:?wndTextSetVerticalAlign@@YAPAU_object@@PAU1@0@Z
	DD	01H
	ORG $+4
	DD	FLAT:??_C@_09CAFHEMDD@SetSecret@
	DD	FLAT:?wndTextSetSecret@@YAPAU_object@@PAU1@0@Z
	DD	01H
	ORG $+4
	DD	FLAT:??_C@_0L@HBNEJDMM@SetOutline@
	DD	FLAT:?wndTextSetOutline@@YAPAU_object@@PAU1@0@Z
	DD	01H
	ORG $+4
	DD	FLAT:??_C@_0L@LLKEFHFA@SetFeather@
	DD	FLAT:?wndTextSetFeather@@YAPAU_object@@PAU1@0@Z
	DD	01H
	ORG $+4
	DD	FLAT:??_C@_0N@FKMHLJHG@SetMultiLine@
	DD	FLAT:?wndTextSetMultiLine@@YAPAU_object@@PAU1@0@Z
	DD	01H
	ORG $+4
	DD	FLAT:??_C@_07NIJDBDAG@SetText@
	DD	FLAT:?wndTextSetText@@YAPAU_object@@PAU1@0@Z
	DD	01H
	ORG $+4
	DD	FLAT:??_C@_0M@MCELKPNO@SetFontName@
	DD	FLAT:?wndTextSetFontName@@YAPAU_object@@PAU1@0@Z
	DD	01H
	ORG $+4
	DD	FLAT:??_C@_0N@MKCFOAAE@SetFontColor@
	DD	FLAT:?wndTextSetFontColor@@YAPAU_object@@PAU1@0@Z
	DD	01H
	ORG $+4
	DD	FLAT:??_C@_0O@FIAFKHF@SetLimitWidth@
	DD	FLAT:?wndTextSetLimitWidth@@YAPAU_object@@PAU1@0@Z
	DD	01H
	ORG $+4
	DD	FLAT:??_C@_07CAGCCMNH@GetText@
	DD	FLAT:?wndTextGetText@@YAPAU_object@@PAU1@0@Z
	DD	01H
	ORG $+4
	DD	FLAT:??_C@_0M@JOAAGILP@GetTextSize@
	DD	FLAT:?wndTextGetTextSize@@YAPAU_object@@PAU1@0@Z
	DD	01H
	ORG $+4
	DD	FLAT:??_C@_0L@BIENLPGM@ShowCursor@
	DD	FLAT:?wndTextShowCursor@@YAPAU_object@@PAU1@0@Z
	DD	01H
	ORG $+4
	DD	FLAT:??_C@_0L@MGJDDPFG@HideCursor@
	DD	FLAT:?wndTextHideCursor@@YAPAU_object@@PAU1@0@Z
	DD	01H
	ORG $+4
	DD	FLAT:??_C@_0BC@DJJGDMOB@GetCursorPosition@
	DD	FLAT:?wndTextGetCursorPosition@@YAPAU_object@@PAU1@0@Z
	DD	01H
	ORG $+4
	DD	FLAT:??_C@_09JMPLPNNO@SetNumber@
	DD	FLAT:?wndNumberSetNumber@@YAPAU_object@@PAU1@0@Z
	DD	01H
	ORG $+4
	DD	FLAT:??_C@_0BP@JHALFFJF@SetNumberHorizontalAlignCenter@
	DD	FLAT:?wndNumberSetNumberHorizontalAlignCenter@@YAPAU_object@@PAU1@0@Z
	DD	01H
	ORG $+4
	DD	FLAT:??_C@_0BO@FBBAAHKK@SetNumberHorizontalAlignRight@
	DD	FLAT:?wndNumberSetNumberHorizontalAlignRight@@YAPAU_object@@PAU1@0@Z
	DD	01H
	ORG $+4
	DD	FLAT:??_C@_07ENBMIGKI@SetPath@
	DD	FLAT:?wndNumberSetPath@@YAPAU_object@@PAU1@0@Z
	DD	01H
	ORG $+4
	DD	FLAT:??_C@_0BB@FMJJKPIM@MarkBox_SetImage@
	DD	FLAT:?wndMarkBox_SetImage@@YAPAU_object@@PAU1@0@Z
	DD	01H
	ORG $+4
	DD	FLAT:??_C@_0BJ@PJODLBON@MarkBox_SetImageFilename@
	DD	FLAT:?wndMarkBox_SetImageFilename@@YAPAU_object@@PAU1@0@Z
	DD	01H
	ORG $+4
	DD	FLAT:??_C@_0N@FLKGJMCL@MarkBox_Load@
	DD	FLAT:?wndMarkBox_Load@@YAPAU_object@@PAU1@0@Z
	DD	01H
	ORG $+4
	DD	FLAT:??_C@_0BB@NAAPJNBM@MarkBox_SetIndex@
	DD	FLAT:?wndMarkBox_SetIndex@@YAPAU_object@@PAU1@0@Z
	DD	01H
	ORG $+4
	DD	FLAT:??_C@_0BB@ENLBNPPB@MarkBox_SetScale@
	DD	FLAT:?wndMarkBox_SetScale@@YAPAU_object@@PAU1@0@Z
	DD	01H
	ORG $+4
	DD	FLAT:??_C@_0BI@JCKPADLG@MarkBox_SetDiffuseColor@
	DD	FLAT:?wndMarkBox_SetDiffuseColor@@YAPAU_object@@PAU1@0@Z
	DD	01H
	ORG $+4
	DD	FLAT:??_C@_09OHOMMMHI@LoadImage@
	DD	FLAT:?wndImageLoadImage@@YAPAU_object@@PAU1@0@Z
	DD	01H
	ORG $+4
	DD	FLAT:??_C@_0BA@CAEBLOMF@SetDiffuseColor@
	DD	FLAT:?wndImageSetDiffuseColor@@YAPAU_object@@PAU1@0@Z
	DD	01H
	ORG $+4
	DD	FLAT:??_C@_08OMBILDHM@GetWidth@
	DD	FLAT:?wndImageGetWidth@@YAPAU_object@@PAU1@0@Z
	DD	01H
	ORG $+4
	DD	FLAT:??_C@_09EOGEIJMK@GetHeight@
	DD	FLAT:?wndImageGetHeight@@YAPAU_object@@PAU1@0@Z
	DD	01H
	ORG $+4
	DD	FLAT:??_C@_08FMFAIGAB@SetScale@
	DD	FLAT:?wndImageSetScale@@YAPAU_object@@PAU1@0@Z
	DD	01H
	ORG $+4
	DD	FLAT:??_C@_09KLKDEBJ@SetOrigin@
	DD	FLAT:?wndImageSetOrigin@@YAPAU_object@@PAU1@0@Z
	DD	01H
	ORG $+4
	DD	FLAT:??_C@_0M@GNIHGJGG@SetRotation@
	DD	FLAT:?wndImageSetRotation@@YAPAU_object@@PAU1@0@Z
	DD	01H
	ORG $+4
	DD	FLAT:??_C@_0BB@LDNMLPHM@SetRenderingRect@
	DD	FLAT:?wndImageSetRenderingRect@@YAPAU_object@@PAU1@0@Z
	DD	01H
	ORG $+4
	DD	FLAT:??_C@_0BB@GIEHGKNO@SetRenderingMode@
	DD	FLAT:?wndImageSetRenderingMode@@YAPAU_object@@PAU1@0@Z
	DD	01H
	ORG $+4
	DD	FLAT:??_C@_08NBAGFHFB@SetDelay@
	DD	FLAT:?wndImageSetDelay@@YAPAU_object@@PAU1@0@Z
	DD	01H
	ORG $+4
	DD	FLAT:??_C@_0M@BEJGDBIJ@AppendImage@
	DD	FLAT:?wndImageAppendImage@@YAPAU_object@@PAU1@0@Z
	DD	01H
	ORG $+4
	DD	FLAT:??_C@_0M@IIELPGEP@SetUpVisual@
	DD	FLAT:?wndButtonSetUpVisual@@YAPAU_object@@PAU1@0@Z
	DD	01H
	ORG $+4
	DD	FLAT:??_C@_0O@KOIDMFK@SetOverVisual@
	DD	FLAT:?wndButtonSetOverVisual@@YAPAU_object@@PAU1@0@Z
	DD	01H
	ORG $+4
	DD	FLAT:??_C@_0O@FLFAFPKP@SetDownVisual@
	DD	FLAT:?wndButtonSetDownVisual@@YAPAU_object@@PAU1@0@Z
	DD	01H
	ORG $+4
	DD	FLAT:??_C@_0BB@JCGDBIB@SetDisableVisual@
	DD	FLAT:?wndButtonSetDisableVisual@@YAPAU_object@@PAU1@0@Z
	DD	01H
	ORG $+4
	DD	FLAT:??_C@_0BE@PHOOFGJI@GetUpVisualFileName@
	DD	FLAT:?wndButtonGetUpVisualFileName@@YAPAU_object@@PAU1@0@Z
	DD	01H
	ORG $+4
	DD	FLAT:??_C@_0BG@KEALLAJN@GetOverVisualFileName@
	DD	FLAT:?wndButtonGetOverVisualFileName@@YAPAU_object@@PAU1@0@Z
	DD	01H
	ORG $+4
	DD	FLAT:??_C@_0BG@FKDEILKI@GetDownVisualFileName@
	DD	FLAT:?wndButtonGetDownVisualFileName@@YAPAU_object@@PAU1@0@Z
	DD	01H
	ORG $+4
	DD	FLAT:??_C@_05LDPHIKKB@Flash@
	DD	FLAT:?wndButtonFlash@@YAPAU_object@@PAU1@0@Z
	DD	01H
	ORG $+4
	DD	FLAT:??_C@_06CKGENIKG@Enable@
	DD	FLAT:?wndButtonEnable@@YAPAU_object@@PAU1@0@Z
	DD	01H
	ORG $+4
	DD	FLAT:??_C@_07MIKIFGAL@Disable@
	DD	FLAT:?wndButtonDisable@@YAPAU_object@@PAU1@0@Z
	DD	01H
	ORG $+4
	DD	FLAT:??_C@_04FNCLCJMC@Down@
	DD	FLAT:?wndButtonDown@@YAPAU_object@@PAU1@0@Z
	DD	01H
	ORG $+4
	DD	FLAT:??_C@_05DEOAHOFO@SetUp@
	DD	FLAT:?wndButtonSetUp@@YAPAU_object@@PAU1@0@Z
	DD	01H
	ORG $+4
	DD	FLAT:??_C@_06FKEAEOGE@IsDown@
	DD	FLAT:?wndButtonIsDown@@YAPAU_object@@PAU1@0@Z
	DD	01H
	ORG $+4
	DD	FLAT:??_C@_0BI@KNEJFEOH@SetRestrictMovementArea@
	DD	FLAT:?wndButtonSetRestrictMovementArea@@YAPAU_object@@PAU1@0@Z
	DD	01H
	ORG $+4
	DD	FLAT:??_C@_0P@MEHCKPID@SetOutlineFlag@
	DD	FLAT:?wndMgrSetOutlineFlag@@YAPAU_object@@PAU1@0@Z
	DD	01H
	ORG $+4
	DD	FLAT:??_C@_0BF@LFOINEDC@ShowOverInWindowName@
	DD	FLAT:?wndMgrShowOverInWindowName@@YAPAU_object@@PAU1@0@Z
	DD	01H
	ORG $+4
	DD	00H
	DD	00H
	DD	00H
	ORG $+4
_DATA	ENDS
;	COMDAT ??_C@_0CE@HBOEBFCG@Failed?5to?5load?5image?5?$CIfilename?3@
CONST	SEGMENT
??_C@_0CE@HBOEBFCG@Failed?5to?5load?5image?5?$CIfilename?3@ DB 'Failed to'
	DB	' load image (filename: %s)', 00H		; `string'
CONST	ENDS
;	COMDAT ??_C@_04INACLLOK@?$CIii?$CJ@
CONST	SEGMENT
??_C@_04INACLLOK@?$CIii?$CJ@ DB '(ii)', 00H		; `string'
CONST	ENDS
;	COMDAT ??_C@_0CH@HCFLPGH@wndMgr?4ArrangeSlot?5?3?5not?5a?5slot@
CONST	SEGMENT
??_C@_0CH@HCFLPGH@wndMgr?4ArrangeSlot?5?3?5not?5a?5slot@ DB 'wndMgr.Arran'
	DB	'geSlot : not a slot window', 00H		; `string'
CONST	ENDS
;	COMDAT ??_C@_0CH@FFGFLEBP@wndMgr?4ArrangeSlot?5?3?5not?5a?5grid@
CONST	SEGMENT
??_C@_0CH@FFGFLEBP@wndMgr?4ArrangeSlot?5?3?5not?5a?5grid@ DB 'wndMgr.Arra'
	DB	'ngeSlot : not a grid window', 00H		; `string'
CONST	ENDS
;	COMDAT ??_C@_0BH@KIGIHPAM@Unknown?5window?5flag?5?$CFs@
CONST	SEGMENT
??_C@_0BH@KIGIHPAM@Unknown?5window?5flag?5?$CFs@ DB 'Unknown window flag '
	DB	'%s', 00H					; `string'
CONST	ENDS
;	COMDAT ??_C@_03OBLKLDKA@ltr@
CONST	SEGMENT
??_C@_03OBLKLDKA@ltr@ DB 'ltr', 00H			; `string'
CONST	ENDS
;	COMDAT ??_C@_03IFDNKMND@rtl@
CONST	SEGMENT
??_C@_03IFDNKMND@rtl@ DB 'rtl', 00H			; `string'
CONST	ENDS
;	COMDAT ??_C@_0M@HHFJIJHL@ignore_size@
CONST	SEGMENT
??_C@_0M@HHFJIJHL@ignore_size@ DB 'ignore_size', 00H	; `string'
CONST	ENDS
;	COMDAT ??_C@_08BCAHNCDJ@not_pick@
CONST	SEGMENT
??_C@_08BCAHNCDJ@not_pick@ DB 'not_pick', 00H		; `string'
CONST	ENDS
;	COMDAT ??_C@_05KNFBNCOH@float@
CONST	SEGMENT
??_C@_05KNFBNCOH@float@ DB 'float', 00H			; `string'
CONST	ENDS
;	COMDAT ??_C@_0L@BDBCAEJL@restrict_y@
CONST	SEGMENT
??_C@_0L@BDBCAEJL@restrict_y@ DB 'restrict_y', 00H	; `string'
CONST	ENDS
;	COMDAT ??_C@_0L@KAJDFNK@restrict_x@
CONST	SEGMENT
??_C@_0L@KAJDFNK@restrict_x@ DB 'restrict_x', 00H	; `string'
CONST	ENDS
;	COMDAT ??_C@_06LHJMGKLI@attach@
CONST	SEGMENT
??_C@_06LHJMGKLI@attach@ DB 'attach', 00H		; `string'
CONST	ENDS
;	COMDAT ??_C@_08KCAGBJHE@dragable@
CONST	SEGMENT
??_C@_08KCAGBJHE@dragable@ DB 'dragable', 00H		; `string'
CONST	ENDS
;	COMDAT ??_C@_05GADAOHMC@limit@
CONST	SEGMENT
??_C@_05GADAOHMC@limit@ DB 'limit', 00H			; `string'
CONST	ENDS
;	COMDAT ??_C@_07BNIMILPP@movable@
CONST	SEGMENT
??_C@_07BNIMILPP@movable@ DB 'movable', 00H		; `string'
CONST	ENDS
;	COMDAT ??_C@_02OIKAIHIF@s?$CD@
CONST	SEGMENT
??_C@_02OIKAIHIF@s?$CD@ DB 's#', 00H			; `string'
CONST	ENDS
;	COMDAT ??_C@_04BIOIIFBG@iiii@
CONST	SEGMENT
??_C@_04BIOIIFBG@iiii@ DB 'iiii', 00H			; `string'
CONST	ENDS
;	COMDAT ??_C@_02PDIHAGKM@ii@
CONST	SEGMENT
??_C@_02PDIHAGKM@ii@ DB 'ii', 00H			; `string'
CONST	ENDS
;	COMDAT ??_C@_01LKDEMHDF@s@
CONST	SEGMENT
??_C@_01LKDEMHDF@s@ DB 's', 00H				; `string'
CONST	ENDS
;	COMDAT ??_C@_01KBJDNOO@i@
CONST	SEGMENT
??_C@_01KBJDNOO@i@ DB 'i', 00H				; `string'
CONST	ENDS
;	COMDAT ??_C@_01INIBCBCB@f@
CONST	SEGMENT
??_C@_01INIBCBCB@f@ DB 'f', 00H				; `string'
CONST	ENDS
; Function compile flags: /Odspy
; File D:\Metin2 Server Files\mainline\SRC_2014\Metin2Client\eterPythonLib\PythonWindowManagerModule.cpp
;	COMDAT ?wndMgrShowOverInWindowName@@YAPAU_object@@PAU1@0@Z
_TEXT	SEGMENT
_iFlag$ = -4						; size = 4
_poSelf$ = 8						; size = 4
_poArgs$ = 12						; size = 4
?wndMgrShowOverInWindowName@@YAPAU_object@@PAU1@0@Z PROC ; wndMgrShowOverInWindowName, COMDAT

; 2289 : {

  00000	55		 push	 ebp
  00001	8b ec		 mov	 ebp, esp
  00003	51		 push	 ecx

; 2290 : 	int iFlag;
; 2291 : 	if (!PyTuple_GetInteger(poArgs, 0, &iFlag))

  00004	8d 45 fc	 lea	 eax, DWORD PTR _iFlag$[ebp]
  00007	50		 push	 eax
  00008	6a 00		 push	 0
  0000a	ff 75 0c	 push	 DWORD PTR _poArgs$[ebp]
  0000d	e8 00 00 00 00	 call	 ?PyTuple_GetInteger@@YA_NPAU_object@@HPAH@Z ; PyTuple_GetInteger
  00012	83 c4 0c	 add	 esp, 12			; 0000000cH
  00015	0f b6 c0	 movzx	 eax, al
  00018	85 c0		 test	 eax, eax
  0001a	75 0a		 jne	 SHORT $LN2@wndMgrShow

; 2292 : 		return Py_BuildException();

  0001c	6a 00		 push	 0
  0001e	e8 00 00 00 00	 call	 ?Py_BuildException@@YAPAU_object@@PBDZZ ; Py_BuildException
  00023	59		 pop	 ecx
  00024	eb 0d		 jmp	 SHORT $LN1@wndMgrShow
$LN2@wndMgrShow:

; 2293 : 
; 2294 : 	g_bShowOverInWindowName = iFlag;

  00026	8b 45 fc	 mov	 eax, DWORD PTR _iFlag$[ebp]
  00029	a3 00 00 00 00	 mov	 DWORD PTR ?g_bShowOverInWindowName@@3HA, eax ; g_bShowOverInWindowName

; 2295 : 
; 2296 : 	return Py_BuildNone();

  0002e	e8 00 00 00 00	 call	 ?Py_BuildNone@@YAPAU_object@@XZ ; Py_BuildNone
$LN1@wndMgrShow:

; 2297 : }

  00033	c9		 leave
  00034	c3		 ret	 0
?wndMgrShowOverInWindowName@@YAPAU_object@@PAU1@0@Z ENDP ; wndMgrShowOverInWindowName
_TEXT	ENDS
; Function compile flags: /Odspy
; File D:\Metin2 Server Files\mainline\SRC_2014\Metin2Client\eterPythonLib\PythonWindowManagerModule.cpp
;	COMDAT ?wndMgrSetOutlineFlag@@YAPAU_object@@PAU1@0@Z
_TEXT	SEGMENT
_iFlag$ = -4						; size = 4
_poSelf$ = 8						; size = 4
_poArgs$ = 12						; size = 4
?wndMgrSetOutlineFlag@@YAPAU_object@@PAU1@0@Z PROC	; wndMgrSetOutlineFlag, COMDAT

; 2278 : {

  00000	55		 push	 ebp
  00001	8b ec		 mov	 ebp, esp
  00003	51		 push	 ecx

; 2279 : 	int iFlag;
; 2280 : 	if (!PyTuple_GetInteger(poArgs, 0, &iFlag))

  00004	8d 45 fc	 lea	 eax, DWORD PTR _iFlag$[ebp]
  00007	50		 push	 eax
  00008	6a 00		 push	 0
  0000a	ff 75 0c	 push	 DWORD PTR _poArgs$[ebp]
  0000d	e8 00 00 00 00	 call	 ?PyTuple_GetInteger@@YA_NPAU_object@@HPAH@Z ; PyTuple_GetInteger
  00012	83 c4 0c	 add	 esp, 12			; 0000000cH
  00015	0f b6 c0	 movzx	 eax, al
  00018	85 c0		 test	 eax, eax
  0001a	75 0a		 jne	 SHORT $LN2@wndMgrSetO

; 2281 : 		return Py_BuildException();

  0001c	6a 00		 push	 0
  0001e	e8 00 00 00 00	 call	 ?Py_BuildException@@YAPAU_object@@PBDZZ ; Py_BuildException
  00023	59		 pop	 ecx
  00024	eb 0d		 jmp	 SHORT $LN1@wndMgrSetO
$LN2@wndMgrSetO:

; 2282 : 
; 2283 : 	g_bOutlineBoxEnable = iFlag;

  00026	8b 45 fc	 mov	 eax, DWORD PTR _iFlag$[ebp]
  00029	a3 00 00 00 00	 mov	 DWORD PTR ?g_bOutlineBoxEnable@@3HA, eax ; g_bOutlineBoxEnable

; 2284 : 
; 2285 : 	return Py_BuildNone();

  0002e	e8 00 00 00 00	 call	 ?Py_BuildNone@@YAPAU_object@@XZ ; Py_BuildNone
$LN1@wndMgrSetO:

; 2286 : }

  00033	c9		 leave
  00034	c3		 ret	 0
?wndMgrSetOutlineFlag@@YAPAU_object@@PAU1@0@Z ENDP	; wndMgrSetOutlineFlag
_TEXT	ENDS
; Function compile flags: /Odspy
; File D:\Metin2 Server Files\mainline\SRC_2014\Metin2Client\eterPythonLib\PythonWindowManagerModule.cpp
;	COMDAT ?wndButtonIsDown@@YAPAU_object@@PAU1@0@Z
_TEXT	SEGMENT
_pWindow$ = -4						; size = 4
_poSelf$ = 8						; size = 4
_poArgs$ = 12						; size = 4
?wndButtonIsDown@@YAPAU_object@@PAU1@0@Z PROC		; wndButtonIsDown, COMDAT

; 2266 : {

  00000	55		 push	 ebp
  00001	8b ec		 mov	 ebp, esp
  00003	51		 push	 ecx

; 2267 : 	UI::CWindow * pWindow;
; 2268 : 	if (!PyTuple_GetWindow(poArgs, 0, &pWindow))

  00004	8d 45 fc	 lea	 eax, DWORD PTR _pWindow$[ebp]
  00007	50		 push	 eax
  00008	6a 00		 push	 0
  0000a	ff 75 0c	 push	 DWORD PTR _poArgs$[ebp]
  0000d	e8 00 00 00 00	 call	 ?PyTuple_GetWindow@@YA_NPAU_object@@HPAPAVCWindow@UI@@@Z ; PyTuple_GetWindow
  00012	83 c4 0c	 add	 esp, 12			; 0000000cH
  00015	0f b6 c0	 movzx	 eax, al
  00018	85 c0		 test	 eax, eax
  0001a	75 0a		 jne	 SHORT $LN2@wndButtonI

; 2269 : 		return Py_BuildException();

  0001c	6a 00		 push	 0
  0001e	e8 00 00 00 00	 call	 ?Py_BuildException@@YAPAU_object@@PBDZZ ; Py_BuildException
  00023	59		 pop	 ecx
  00024	eb 16		 jmp	 SHORT $LN1@wndButtonI
$LN2@wndButtonI:

; 2270 : 
; 2271 : 	return Py_BuildValue("i", ((UI::CButton*)pWindow)->IsPressed());

  00026	8b 4d fc	 mov	 ecx, DWORD PTR _pWindow$[ebp]
  00029	e8 00 00 00 00	 call	 ?IsPressed@CButton@UI@@QAEHXZ ; UI::CButton::IsPressed
  0002e	50		 push	 eax
  0002f	68 00 00 00 00	 push	 OFFSET ??_C@_01KBJDNOO@i@
  00034	ff 15 00 00 00
	00		 call	 DWORD PTR __imp__Py_BuildValue
  0003a	59		 pop	 ecx
  0003b	59		 pop	 ecx
$LN1@wndButtonI:

; 2272 : }

  0003c	c9		 leave
  0003d	c3		 ret	 0
?wndButtonIsDown@@YAPAU_object@@PAU1@0@Z ENDP		; wndButtonIsDown
_TEXT	ENDS
; Function compile flags: /Odspy
; File D:\Metin2 Server Files\mainline\SRC_2014\Metin2Client\eterPythonLib\PythonWindowManagerModule.cpp
;	COMDAT ?wndButtonSetRestrictMovementArea@@YAPAU_object@@PAU1@0@Z
_TEXT	SEGMENT
_pWindow$ = -20						; size = 4
_ix$ = -16						; size = 4
_iy$ = -12						; size = 4
_iwidth$ = -8						; size = 4
_iheight$ = -4						; size = 4
_poSelf$ = 8						; size = 4
_poArgs$ = 12						; size = 4
?wndButtonSetRestrictMovementArea@@YAPAU_object@@PAU1@0@Z PROC ; wndButtonSetRestrictMovementArea, COMDAT

; 2243 : {

  00000	55		 push	 ebp
  00001	8b ec		 mov	 ebp, esp
  00003	83 ec 14	 sub	 esp, 20			; 00000014H

; 2244 : 	UI::CWindow * pWindow;
; 2245 : 	if (!PyTuple_GetWindow(poArgs, 0, &pWindow))

  00006	8d 45 ec	 lea	 eax, DWORD PTR _pWindow$[ebp]
  00009	50		 push	 eax
  0000a	6a 00		 push	 0
  0000c	ff 75 0c	 push	 DWORD PTR _poArgs$[ebp]
  0000f	e8 00 00 00 00	 call	 ?PyTuple_GetWindow@@YA_NPAU_object@@HPAPAVCWindow@UI@@@Z ; PyTuple_GetWindow
  00014	83 c4 0c	 add	 esp, 12			; 0000000cH
  00017	0f b6 c0	 movzx	 eax, al
  0001a	85 c0		 test	 eax, eax
  0001c	75 0d		 jne	 SHORT $LN2@wndButtonS

; 2246 : 		return Py_BuildException();

  0001e	6a 00		 push	 0
  00020	e8 00 00 00 00	 call	 ?Py_BuildException@@YAPAU_object@@PBDZZ ; Py_BuildException
  00025	59		 pop	 ecx
  00026	e9 a1 00 00 00	 jmp	 $LN1@wndButtonS
$LN2@wndButtonS:

; 2247 : 	int ix;
; 2248 : 	if (!PyTuple_GetInteger(poArgs, 1, &ix))

  0002b	8d 45 f0	 lea	 eax, DWORD PTR _ix$[ebp]
  0002e	50		 push	 eax
  0002f	6a 01		 push	 1
  00031	ff 75 0c	 push	 DWORD PTR _poArgs$[ebp]
  00034	e8 00 00 00 00	 call	 ?PyTuple_GetInteger@@YA_NPAU_object@@HPAH@Z ; PyTuple_GetInteger
  00039	83 c4 0c	 add	 esp, 12			; 0000000cH
  0003c	0f b6 c0	 movzx	 eax, al
  0003f	85 c0		 test	 eax, eax
  00041	75 0a		 jne	 SHORT $LN3@wndButtonS

; 2249 : 		return Py_BuildException();

  00043	6a 00		 push	 0
  00045	e8 00 00 00 00	 call	 ?Py_BuildException@@YAPAU_object@@PBDZZ ; Py_BuildException
  0004a	59		 pop	 ecx
  0004b	eb 7f		 jmp	 SHORT $LN1@wndButtonS
$LN3@wndButtonS:

; 2250 : 	int iy;
; 2251 : 	if (!PyTuple_GetInteger(poArgs, 2, &iy))

  0004d	8d 45 f4	 lea	 eax, DWORD PTR _iy$[ebp]
  00050	50		 push	 eax
  00051	6a 02		 push	 2
  00053	ff 75 0c	 push	 DWORD PTR _poArgs$[ebp]
  00056	e8 00 00 00 00	 call	 ?PyTuple_GetInteger@@YA_NPAU_object@@HPAH@Z ; PyTuple_GetInteger
  0005b	83 c4 0c	 add	 esp, 12			; 0000000cH
  0005e	0f b6 c0	 movzx	 eax, al
  00061	85 c0		 test	 eax, eax
  00063	75 0a		 jne	 SHORT $LN4@wndButtonS

; 2252 : 		return Py_BuildException();

  00065	6a 00		 push	 0
  00067	e8 00 00 00 00	 call	 ?Py_BuildException@@YAPAU_object@@PBDZZ ; Py_BuildException
  0006c	59		 pop	 ecx
  0006d	eb 5d		 jmp	 SHORT $LN1@wndButtonS
$LN4@wndButtonS:

; 2253 : 	int iwidth;
; 2254 : 	if (!PyTuple_GetInteger(poArgs, 3, &iwidth))

  0006f	8d 45 f8	 lea	 eax, DWORD PTR _iwidth$[ebp]
  00072	50		 push	 eax
  00073	6a 03		 push	 3
  00075	ff 75 0c	 push	 DWORD PTR _poArgs$[ebp]
  00078	e8 00 00 00 00	 call	 ?PyTuple_GetInteger@@YA_NPAU_object@@HPAH@Z ; PyTuple_GetInteger
  0007d	83 c4 0c	 add	 esp, 12			; 0000000cH
  00080	0f b6 c0	 movzx	 eax, al
  00083	85 c0		 test	 eax, eax
  00085	75 0a		 jne	 SHORT $LN5@wndButtonS

; 2255 : 		return Py_BuildException();

  00087	6a 00		 push	 0
  00089	e8 00 00 00 00	 call	 ?Py_BuildException@@YAPAU_object@@PBDZZ ; Py_BuildException
  0008e	59		 pop	 ecx
  0008f	eb 3b		 jmp	 SHORT $LN1@wndButtonS
$LN5@wndButtonS:

; 2256 : 	int iheight;
; 2257 : 	if (!PyTuple_GetInteger(poArgs, 4, &iheight))

  00091	8d 45 fc	 lea	 eax, DWORD PTR _iheight$[ebp]
  00094	50		 push	 eax
  00095	6a 04		 push	 4
  00097	ff 75 0c	 push	 DWORD PTR _poArgs$[ebp]
  0009a	e8 00 00 00 00	 call	 ?PyTuple_GetInteger@@YA_NPAU_object@@HPAH@Z ; PyTuple_GetInteger
  0009f	83 c4 0c	 add	 esp, 12			; 0000000cH
  000a2	0f b6 c0	 movzx	 eax, al
  000a5	85 c0		 test	 eax, eax
  000a7	75 0a		 jne	 SHORT $LN6@wndButtonS

; 2258 : 		return Py_BuildException();

  000a9	6a 00		 push	 0
  000ab	e8 00 00 00 00	 call	 ?Py_BuildException@@YAPAU_object@@PBDZZ ; Py_BuildException
  000b0	59		 pop	 ecx
  000b1	eb 19		 jmp	 SHORT $LN1@wndButtonS
$LN6@wndButtonS:

; 2259 : 
; 2260 : 	((UI::CDragButton*)pWindow)->SetRestrictMovementArea(ix, iy, iwidth, iheight);

  000b3	ff 75 fc	 push	 DWORD PTR _iheight$[ebp]
  000b6	ff 75 f8	 push	 DWORD PTR _iwidth$[ebp]
  000b9	ff 75 f4	 push	 DWORD PTR _iy$[ebp]
  000bc	ff 75 f0	 push	 DWORD PTR _ix$[ebp]
  000bf	8b 4d ec	 mov	 ecx, DWORD PTR _pWindow$[ebp]
  000c2	e8 00 00 00 00	 call	 ?SetRestrictMovementArea@CDragButton@UI@@QAEXHHHH@Z ; UI::CDragButton::SetRestrictMovementArea

; 2261 : 
; 2262 : 	return Py_BuildNone();

  000c7	e8 00 00 00 00	 call	 ?Py_BuildNone@@YAPAU_object@@XZ ; Py_BuildNone
$LN1@wndButtonS:

; 2263 : }

  000cc	c9		 leave
  000cd	c3		 ret	 0
?wndButtonSetRestrictMovementArea@@YAPAU_object@@PAU1@0@Z ENDP ; wndButtonSetRestrictMovementArea
_TEXT	ENDS
; Function compile flags: /Odspy
; File D:\Metin2 Server Files\mainline\SRC_2014\Metin2Client\eterPythonLib\PythonWindowManagerModule.cpp
;	COMDAT ?wndButtonSetUp@@YAPAU_object@@PAU1@0@Z
_TEXT	SEGMENT
_pWindow$ = -4						; size = 4
_poSelf$ = 8						; size = 4
_poArgs$ = 12						; size = 4
?wndButtonSetUp@@YAPAU_object@@PAU1@0@Z PROC		; wndButtonSetUp, COMDAT

; 2233 : {

  00000	55		 push	 ebp
  00001	8b ec		 mov	 ebp, esp
  00003	51		 push	 ecx

; 2234 : 	UI::CWindow * pWindow;
; 2235 : 	if (!PyTuple_GetWindow(poArgs, 0, &pWindow))

  00004	8d 45 fc	 lea	 eax, DWORD PTR _pWindow$[ebp]
  00007	50		 push	 eax
  00008	6a 00		 push	 0
  0000a	ff 75 0c	 push	 DWORD PTR _poArgs$[ebp]
  0000d	e8 00 00 00 00	 call	 ?PyTuple_GetWindow@@YA_NPAU_object@@HPAPAVCWindow@UI@@@Z ; PyTuple_GetWindow
  00012	83 c4 0c	 add	 esp, 12			; 0000000cH
  00015	0f b6 c0	 movzx	 eax, al
  00018	85 c0		 test	 eax, eax
  0001a	75 0a		 jne	 SHORT $LN2@wndButtonS

; 2236 : 		return Py_BuildException();

  0001c	6a 00		 push	 0
  0001e	e8 00 00 00 00	 call	 ?Py_BuildException@@YAPAU_object@@PBDZZ ; Py_BuildException
  00023	59		 pop	 ecx
  00024	eb 0d		 jmp	 SHORT $LN1@wndButtonS
$LN2@wndButtonS:

; 2237 : 
; 2238 : 	((UI::CButton*)pWindow)->SetUp();

  00026	8b 4d fc	 mov	 ecx, DWORD PTR _pWindow$[ebp]
  00029	e8 00 00 00 00	 call	 ?SetUp@CButton@UI@@QAEXXZ ; UI::CButton::SetUp

; 2239 : 
; 2240 : 	return Py_BuildNone();

  0002e	e8 00 00 00 00	 call	 ?Py_BuildNone@@YAPAU_object@@XZ ; Py_BuildNone
$LN1@wndButtonS:

; 2241 : }

  00033	c9		 leave
  00034	c3		 ret	 0
?wndButtonSetUp@@YAPAU_object@@PAU1@0@Z ENDP		; wndButtonSetUp
_TEXT	ENDS
; Function compile flags: /Odspy
; File D:\Metin2 Server Files\mainline\SRC_2014\Metin2Client\eterPythonLib\PythonWindowManagerModule.cpp
;	COMDAT ?wndButtonDown@@YAPAU_object@@PAU1@0@Z
_TEXT	SEGMENT
_pWindow$ = -4						; size = 4
_poSelf$ = 8						; size = 4
_poArgs$ = 12						; size = 4
?wndButtonDown@@YAPAU_object@@PAU1@0@Z PROC		; wndButtonDown, COMDAT

; 2223 : {

  00000	55		 push	 ebp
  00001	8b ec		 mov	 ebp, esp
  00003	51		 push	 ecx

; 2224 : 	UI::CWindow * pWindow;
; 2225 : 	if (!PyTuple_GetWindow(poArgs, 0, &pWindow))

  00004	8d 45 fc	 lea	 eax, DWORD PTR _pWindow$[ebp]
  00007	50		 push	 eax
  00008	6a 00		 push	 0
  0000a	ff 75 0c	 push	 DWORD PTR _poArgs$[ebp]
  0000d	e8 00 00 00 00	 call	 ?PyTuple_GetWindow@@YA_NPAU_object@@HPAPAVCWindow@UI@@@Z ; PyTuple_GetWindow
  00012	83 c4 0c	 add	 esp, 12			; 0000000cH
  00015	0f b6 c0	 movzx	 eax, al
  00018	85 c0		 test	 eax, eax
  0001a	75 0a		 jne	 SHORT $LN2@wndButtonD

; 2226 : 		return Py_BuildException();

  0001c	6a 00		 push	 0
  0001e	e8 00 00 00 00	 call	 ?Py_BuildException@@YAPAU_object@@PBDZZ ; Py_BuildException
  00023	59		 pop	 ecx
  00024	eb 0d		 jmp	 SHORT $LN1@wndButtonD
$LN2@wndButtonD:

; 2227 : 
; 2228 : 	((UI::CButton*)pWindow)->Down();

  00026	8b 4d fc	 mov	 ecx, DWORD PTR _pWindow$[ebp]
  00029	e8 00 00 00 00	 call	 ?Down@CButton@UI@@QAEXXZ ; UI::CButton::Down

; 2229 : 
; 2230 : 	return Py_BuildNone();

  0002e	e8 00 00 00 00	 call	 ?Py_BuildNone@@YAPAU_object@@XZ ; Py_BuildNone
$LN1@wndButtonD:

; 2231 : }

  00033	c9		 leave
  00034	c3		 ret	 0
?wndButtonDown@@YAPAU_object@@PAU1@0@Z ENDP		; wndButtonDown
_TEXT	ENDS
; Function compile flags: /Odspy
; File D:\Metin2 Server Files\mainline\SRC_2014\Metin2Client\eterPythonLib\PythonWindowManagerModule.cpp
;	COMDAT ?wndButtonDisable@@YAPAU_object@@PAU1@0@Z
_TEXT	SEGMENT
_pWindow$ = -4						; size = 4
_poSelf$ = 8						; size = 4
_poArgs$ = 12						; size = 4
?wndButtonDisable@@YAPAU_object@@PAU1@0@Z PROC		; wndButtonDisable, COMDAT

; 2213 : {

  00000	55		 push	 ebp
  00001	8b ec		 mov	 ebp, esp
  00003	51		 push	 ecx

; 2214 : 	UI::CWindow * pWindow;
; 2215 : 	if (!PyTuple_GetWindow(poArgs, 0, &pWindow))

  00004	8d 45 fc	 lea	 eax, DWORD PTR _pWindow$[ebp]
  00007	50		 push	 eax
  00008	6a 00		 push	 0
  0000a	ff 75 0c	 push	 DWORD PTR _poArgs$[ebp]
  0000d	e8 00 00 00 00	 call	 ?PyTuple_GetWindow@@YA_NPAU_object@@HPAPAVCWindow@UI@@@Z ; PyTuple_GetWindow
  00012	83 c4 0c	 add	 esp, 12			; 0000000cH
  00015	0f b6 c0	 movzx	 eax, al
  00018	85 c0		 test	 eax, eax
  0001a	75 0a		 jne	 SHORT $LN2@wndButtonD

; 2216 : 		return Py_BuildException();

  0001c	6a 00		 push	 0
  0001e	e8 00 00 00 00	 call	 ?Py_BuildException@@YAPAU_object@@PBDZZ ; Py_BuildException
  00023	59		 pop	 ecx
  00024	eb 0d		 jmp	 SHORT $LN1@wndButtonD
$LN2@wndButtonD:

; 2217 : 
; 2218 : 	((UI::CButton*)pWindow)->Disable();

  00026	8b 4d fc	 mov	 ecx, DWORD PTR _pWindow$[ebp]
  00029	e8 00 00 00 00	 call	 ?Disable@CButton@UI@@QAEXXZ ; UI::CButton::Disable

; 2219 : 
; 2220 : 	return Py_BuildNone();

  0002e	e8 00 00 00 00	 call	 ?Py_BuildNone@@YAPAU_object@@XZ ; Py_BuildNone
$LN1@wndButtonD:

; 2221 : }

  00033	c9		 leave
  00034	c3		 ret	 0
?wndButtonDisable@@YAPAU_object@@PAU1@0@Z ENDP		; wndButtonDisable
_TEXT	ENDS
; Function compile flags: /Odspy
; File D:\Metin2 Server Files\mainline\SRC_2014\Metin2Client\eterPythonLib\PythonWindowManagerModule.cpp
;	COMDAT ?wndButtonEnable@@YAPAU_object@@PAU1@0@Z
_TEXT	SEGMENT
_pWindow$ = -4						; size = 4
_poSelf$ = 8						; size = 4
_poArgs$ = 12						; size = 4
?wndButtonEnable@@YAPAU_object@@PAU1@0@Z PROC		; wndButtonEnable, COMDAT

; 2203 : {

  00000	55		 push	 ebp
  00001	8b ec		 mov	 ebp, esp
  00003	51		 push	 ecx

; 2204 : 	UI::CWindow * pWindow;
; 2205 : 	if (!PyTuple_GetWindow(poArgs, 0, &pWindow))

  00004	8d 45 fc	 lea	 eax, DWORD PTR _pWindow$[ebp]
  00007	50		 push	 eax
  00008	6a 00		 push	 0
  0000a	ff 75 0c	 push	 DWORD PTR _poArgs$[ebp]
  0000d	e8 00 00 00 00	 call	 ?PyTuple_GetWindow@@YA_NPAU_object@@HPAPAVCWindow@UI@@@Z ; PyTuple_GetWindow
  00012	83 c4 0c	 add	 esp, 12			; 0000000cH
  00015	0f b6 c0	 movzx	 eax, al
  00018	85 c0		 test	 eax, eax
  0001a	75 0a		 jne	 SHORT $LN2@wndButtonE

; 2206 : 		return Py_BuildException();

  0001c	6a 00		 push	 0
  0001e	e8 00 00 00 00	 call	 ?Py_BuildException@@YAPAU_object@@PBDZZ ; Py_BuildException
  00023	59		 pop	 ecx
  00024	eb 0d		 jmp	 SHORT $LN1@wndButtonE
$LN2@wndButtonE:

; 2207 : 
; 2208 : 	((UI::CButton*)pWindow)->Enable();

  00026	8b 4d fc	 mov	 ecx, DWORD PTR _pWindow$[ebp]
  00029	e8 00 00 00 00	 call	 ?Enable@CButton@UI@@QAEXXZ ; UI::CButton::Enable

; 2209 : 
; 2210 : 	return Py_BuildNone();

  0002e	e8 00 00 00 00	 call	 ?Py_BuildNone@@YAPAU_object@@XZ ; Py_BuildNone
$LN1@wndButtonE:

; 2211 : }

  00033	c9		 leave
  00034	c3		 ret	 0
?wndButtonEnable@@YAPAU_object@@PAU1@0@Z ENDP		; wndButtonEnable
_TEXT	ENDS
; Function compile flags: /Odspy
; File D:\Metin2 Server Files\mainline\SRC_2014\Metin2Client\eterPythonLib\PythonWindowManagerModule.cpp
;	COMDAT ?wndButtonFlash@@YAPAU_object@@PAU1@0@Z
_TEXT	SEGMENT
_pWindow$ = -4						; size = 4
_poSelf$ = 8						; size = 4
_poArgs$ = 12						; size = 4
?wndButtonFlash@@YAPAU_object@@PAU1@0@Z PROC		; wndButtonFlash, COMDAT

; 2193 : {

  00000	55		 push	 ebp
  00001	8b ec		 mov	 ebp, esp
  00003	51		 push	 ecx

; 2194 : 	UI::CWindow * pWindow;
; 2195 : 	if (!PyTuple_GetWindow(poArgs, 0, &pWindow))

  00004	8d 45 fc	 lea	 eax, DWORD PTR _pWindow$[ebp]
  00007	50		 push	 eax
  00008	6a 00		 push	 0
  0000a	ff 75 0c	 push	 DWORD PTR _poArgs$[ebp]
  0000d	e8 00 00 00 00	 call	 ?PyTuple_GetWindow@@YA_NPAU_object@@HPAPAVCWindow@UI@@@Z ; PyTuple_GetWindow
  00012	83 c4 0c	 add	 esp, 12			; 0000000cH
  00015	0f b6 c0	 movzx	 eax, al
  00018	85 c0		 test	 eax, eax
  0001a	75 0a		 jne	 SHORT $LN2@wndButtonF

; 2196 : 		return Py_BuildException();

  0001c	6a 00		 push	 0
  0001e	e8 00 00 00 00	 call	 ?Py_BuildException@@YAPAU_object@@PBDZZ ; Py_BuildException
  00023	59		 pop	 ecx
  00024	eb 0d		 jmp	 SHORT $LN1@wndButtonF
$LN2@wndButtonF:

; 2197 : 
; 2198 : 	((UI::CButton*)pWindow)->Flash();

  00026	8b 4d fc	 mov	 ecx, DWORD PTR _pWindow$[ebp]
  00029	e8 00 00 00 00	 call	 ?Flash@CButton@UI@@QAEXXZ ; UI::CButton::Flash

; 2199 : 
; 2200 : 	return Py_BuildNone();

  0002e	e8 00 00 00 00	 call	 ?Py_BuildNone@@YAPAU_object@@XZ ; Py_BuildNone
$LN1@wndButtonF:

; 2201 : }

  00033	c9		 leave
  00034	c3		 ret	 0
?wndButtonFlash@@YAPAU_object@@PAU1@0@Z ENDP		; wndButtonFlash
_TEXT	ENDS
; Function compile flags: /Odspy
; File D:\Metin2 Server Files\mainline\SRC_2014\Metin2Client\eterPythonLib\PythonWindowManagerModule.cpp
;	COMDAT ?wndButtonGetDownVisualFileName@@YAPAU_object@@PAU1@0@Z
_TEXT	SEGMENT
_pWindow$ = -4						; size = 4
_poSelf$ = 8						; size = 4
_poArgs$ = 12						; size = 4
?wndButtonGetDownVisualFileName@@YAPAU_object@@PAU1@0@Z PROC ; wndButtonGetDownVisualFileName, COMDAT

; 2185 : {

  00000	55		 push	 ebp
  00001	8b ec		 mov	 ebp, esp
  00003	51		 push	 ecx

; 2186 : 	UI::CWindow * pWindow;
; 2187 : 	if (!PyTuple_GetWindow(poArgs, 0, &pWindow))

  00004	8d 45 fc	 lea	 eax, DWORD PTR _pWindow$[ebp]
  00007	50		 push	 eax
  00008	6a 00		 push	 0
  0000a	ff 75 0c	 push	 DWORD PTR _poArgs$[ebp]
  0000d	e8 00 00 00 00	 call	 ?PyTuple_GetWindow@@YA_NPAU_object@@HPAPAVCWindow@UI@@@Z ; PyTuple_GetWindow
  00012	83 c4 0c	 add	 esp, 12			; 0000000cH
  00015	0f b6 c0	 movzx	 eax, al
  00018	85 c0		 test	 eax, eax
  0001a	75 0a		 jne	 SHORT $LN2@wndButtonG

; 2188 : 		return Py_BuildException();

  0001c	6a 00		 push	 0
  0001e	e8 00 00 00 00	 call	 ?Py_BuildException@@YAPAU_object@@PBDZZ ; Py_BuildException
  00023	59		 pop	 ecx
  00024	eb 16		 jmp	 SHORT $LN1@wndButtonG
$LN2@wndButtonG:

; 2189 : 
; 2190 : 	return Py_BuildValue("s", ((UI::CButton*)pWindow)->GetDownVisualFileName());

  00026	8b 4d fc	 mov	 ecx, DWORD PTR _pWindow$[ebp]
  00029	e8 00 00 00 00	 call	 ?GetDownVisualFileName@CButton@UI@@QAEPBDXZ ; UI::CButton::GetDownVisualFileName
  0002e	50		 push	 eax
  0002f	68 00 00 00 00	 push	 OFFSET ??_C@_01LKDEMHDF@s@
  00034	ff 15 00 00 00
	00		 call	 DWORD PTR __imp__Py_BuildValue
  0003a	59		 pop	 ecx
  0003b	59		 pop	 ecx
$LN1@wndButtonG:

; 2191 : }

  0003c	c9		 leave
  0003d	c3		 ret	 0
?wndButtonGetDownVisualFileName@@YAPAU_object@@PAU1@0@Z ENDP ; wndButtonGetDownVisualFileName
_TEXT	ENDS
; Function compile flags: /Odspy
; File D:\Metin2 Server Files\mainline\SRC_2014\Metin2Client\eterPythonLib\PythonWindowManagerModule.cpp
;	COMDAT ?wndButtonGetOverVisualFileName@@YAPAU_object@@PAU1@0@Z
_TEXT	SEGMENT
_pWindow$ = -4						; size = 4
_poSelf$ = 8						; size = 4
_poArgs$ = 12						; size = 4
?wndButtonGetOverVisualFileName@@YAPAU_object@@PAU1@0@Z PROC ; wndButtonGetOverVisualFileName, COMDAT

; 2177 : {

  00000	55		 push	 ebp
  00001	8b ec		 mov	 ebp, esp
  00003	51		 push	 ecx

; 2178 : 	UI::CWindow * pWindow;
; 2179 : 	if (!PyTuple_GetWindow(poArgs, 0, &pWindow))

  00004	8d 45 fc	 lea	 eax, DWORD PTR _pWindow$[ebp]
  00007	50		 push	 eax
  00008	6a 00		 push	 0
  0000a	ff 75 0c	 push	 DWORD PTR _poArgs$[ebp]
  0000d	e8 00 00 00 00	 call	 ?PyTuple_GetWindow@@YA_NPAU_object@@HPAPAVCWindow@UI@@@Z ; PyTuple_GetWindow
  00012	83 c4 0c	 add	 esp, 12			; 0000000cH
  00015	0f b6 c0	 movzx	 eax, al
  00018	85 c0		 test	 eax, eax
  0001a	75 0a		 jne	 SHORT $LN2@wndButtonG

; 2180 : 		return Py_BuildException();

  0001c	6a 00		 push	 0
  0001e	e8 00 00 00 00	 call	 ?Py_BuildException@@YAPAU_object@@PBDZZ ; Py_BuildException
  00023	59		 pop	 ecx
  00024	eb 16		 jmp	 SHORT $LN1@wndButtonG
$LN2@wndButtonG:

; 2181 : 
; 2182 : 	return Py_BuildValue("s", ((UI::CButton*)pWindow)->GetOverVisualFileName());

  00026	8b 4d fc	 mov	 ecx, DWORD PTR _pWindow$[ebp]
  00029	e8 00 00 00 00	 call	 ?GetOverVisualFileName@CButton@UI@@QAEPBDXZ ; UI::CButton::GetOverVisualFileName
  0002e	50		 push	 eax
  0002f	68 00 00 00 00	 push	 OFFSET ??_C@_01LKDEMHDF@s@
  00034	ff 15 00 00 00
	00		 call	 DWORD PTR __imp__Py_BuildValue
  0003a	59		 pop	 ecx
  0003b	59		 pop	 ecx
$LN1@wndButtonG:

; 2183 : }

  0003c	c9		 leave
  0003d	c3		 ret	 0
?wndButtonGetOverVisualFileName@@YAPAU_object@@PAU1@0@Z ENDP ; wndButtonGetOverVisualFileName
_TEXT	ENDS
; Function compile flags: /Odspy
; File D:\Metin2 Server Files\mainline\SRC_2014\Metin2Client\eterPythonLib\PythonWindowManagerModule.cpp
;	COMDAT ?wndButtonGetUpVisualFileName@@YAPAU_object@@PAU1@0@Z
_TEXT	SEGMENT
_pWindow$ = -4						; size = 4
_poSelf$ = 8						; size = 4
_poArgs$ = 12						; size = 4
?wndButtonGetUpVisualFileName@@YAPAU_object@@PAU1@0@Z PROC ; wndButtonGetUpVisualFileName, COMDAT

; 2169 : {

  00000	55		 push	 ebp
  00001	8b ec		 mov	 ebp, esp
  00003	51		 push	 ecx

; 2170 : 	UI::CWindow * pWindow;
; 2171 : 	if (!PyTuple_GetWindow(poArgs, 0, &pWindow))

  00004	8d 45 fc	 lea	 eax, DWORD PTR _pWindow$[ebp]
  00007	50		 push	 eax
  00008	6a 00		 push	 0
  0000a	ff 75 0c	 push	 DWORD PTR _poArgs$[ebp]
  0000d	e8 00 00 00 00	 call	 ?PyTuple_GetWindow@@YA_NPAU_object@@HPAPAVCWindow@UI@@@Z ; PyTuple_GetWindow
  00012	83 c4 0c	 add	 esp, 12			; 0000000cH
  00015	0f b6 c0	 movzx	 eax, al
  00018	85 c0		 test	 eax, eax
  0001a	75 0a		 jne	 SHORT $LN2@wndButtonG

; 2172 : 		return Py_BuildException();

  0001c	6a 00		 push	 0
  0001e	e8 00 00 00 00	 call	 ?Py_BuildException@@YAPAU_object@@PBDZZ ; Py_BuildException
  00023	59		 pop	 ecx
  00024	eb 16		 jmp	 SHORT $LN1@wndButtonG
$LN2@wndButtonG:

; 2173 : 
; 2174 : 	return Py_BuildValue("s", ((UI::CButton*)pWindow)->GetUpVisualFileName());

  00026	8b 4d fc	 mov	 ecx, DWORD PTR _pWindow$[ebp]
  00029	e8 00 00 00 00	 call	 ?GetUpVisualFileName@CButton@UI@@QAEPBDXZ ; UI::CButton::GetUpVisualFileName
  0002e	50		 push	 eax
  0002f	68 00 00 00 00	 push	 OFFSET ??_C@_01LKDEMHDF@s@
  00034	ff 15 00 00 00
	00		 call	 DWORD PTR __imp__Py_BuildValue
  0003a	59		 pop	 ecx
  0003b	59		 pop	 ecx
$LN1@wndButtonG:

; 2175 : }

  0003c	c9		 leave
  0003d	c3		 ret	 0
?wndButtonGetUpVisualFileName@@YAPAU_object@@PAU1@0@Z ENDP ; wndButtonGetUpVisualFileName
_TEXT	ENDS
; Function compile flags: /Odspy
; File D:\Metin2 Server Files\mainline\SRC_2014\Metin2Client\eterPythonLib\PythonWindowManagerModule.cpp
;	COMDAT ?wndButtonSetDisableVisual@@YAPAU_object@@PAU1@0@Z
_TEXT	SEGMENT
_pWindow$ = -8						; size = 4
_szFileName$ = -4					; size = 4
_poSelf$ = 8						; size = 4
_poArgs$ = 12						; size = 4
?wndButtonSetDisableVisual@@YAPAU_object@@PAU1@0@Z PROC	; wndButtonSetDisableVisual, COMDAT

; 2156 : {

  00000	55		 push	 ebp
  00001	8b ec		 mov	 ebp, esp
  00003	51		 push	 ecx
  00004	51		 push	 ecx

; 2157 : 	UI::CWindow * pWindow;
; 2158 : 	if (!PyTuple_GetWindow(poArgs, 0, &pWindow))

  00005	8d 45 f8	 lea	 eax, DWORD PTR _pWindow$[ebp]
  00008	50		 push	 eax
  00009	6a 00		 push	 0
  0000b	ff 75 0c	 push	 DWORD PTR _poArgs$[ebp]
  0000e	e8 00 00 00 00	 call	 ?PyTuple_GetWindow@@YA_NPAU_object@@HPAPAVCWindow@UI@@@Z ; PyTuple_GetWindow
  00013	83 c4 0c	 add	 esp, 12			; 0000000cH
  00016	0f b6 c0	 movzx	 eax, al
  00019	85 c0		 test	 eax, eax
  0001b	75 0a		 jne	 SHORT $LN2@wndButtonS

; 2159 : 		return Py_BuildException();

  0001d	6a 00		 push	 0
  0001f	e8 00 00 00 00	 call	 ?Py_BuildException@@YAPAU_object@@PBDZZ ; Py_BuildException
  00024	59		 pop	 ecx
  00025	eb 32		 jmp	 SHORT $LN1@wndButtonS
$LN2@wndButtonS:

; 2160 : 	char * szFileName;
; 2161 : 	if (!PyTuple_GetString(poArgs, 1, &szFileName))

  00027	8d 45 fc	 lea	 eax, DWORD PTR _szFileName$[ebp]
  0002a	50		 push	 eax
  0002b	6a 01		 push	 1
  0002d	ff 75 0c	 push	 DWORD PTR _poArgs$[ebp]
  00030	e8 00 00 00 00	 call	 ?PyTuple_GetString@@YA_NPAU_object@@HPAPAD@Z ; PyTuple_GetString
  00035	83 c4 0c	 add	 esp, 12			; 0000000cH
  00038	0f b6 c0	 movzx	 eax, al
  0003b	85 c0		 test	 eax, eax
  0003d	75 0a		 jne	 SHORT $LN3@wndButtonS

; 2162 : 		return Py_BuildException();

  0003f	6a 00		 push	 0
  00041	e8 00 00 00 00	 call	 ?Py_BuildException@@YAPAU_object@@PBDZZ ; Py_BuildException
  00046	59		 pop	 ecx
  00047	eb 10		 jmp	 SHORT $LN1@wndButtonS
$LN3@wndButtonS:

; 2163 : 
; 2164 : 	((UI::CButton*)pWindow)->SetDisableVisual(szFileName);

  00049	ff 75 fc	 push	 DWORD PTR _szFileName$[ebp]
  0004c	8b 4d f8	 mov	 ecx, DWORD PTR _pWindow$[ebp]
  0004f	e8 00 00 00 00	 call	 ?SetDisableVisual@CButton@UI@@QAEHPBD@Z ; UI::CButton::SetDisableVisual

; 2165 : 
; 2166 : 	return Py_BuildNone();

  00054	e8 00 00 00 00	 call	 ?Py_BuildNone@@YAPAU_object@@XZ ; Py_BuildNone
$LN1@wndButtonS:

; 2167 : }

  00059	c9		 leave
  0005a	c3		 ret	 0
?wndButtonSetDisableVisual@@YAPAU_object@@PAU1@0@Z ENDP	; wndButtonSetDisableVisual
_TEXT	ENDS
; Function compile flags: /Odspy
; File D:\Metin2 Server Files\mainline\SRC_2014\Metin2Client\eterPythonLib\PythonWindowManagerModule.cpp
;	COMDAT ?wndButtonSetDownVisual@@YAPAU_object@@PAU1@0@Z
_TEXT	SEGMENT
_pWindow$ = -8						; size = 4
_szFileName$ = -4					; size = 4
_poSelf$ = 8						; size = 4
_poArgs$ = 12						; size = 4
?wndButtonSetDownVisual@@YAPAU_object@@PAU1@0@Z PROC	; wndButtonSetDownVisual, COMDAT

; 2143 : {

  00000	55		 push	 ebp
  00001	8b ec		 mov	 ebp, esp
  00003	51		 push	 ecx
  00004	51		 push	 ecx

; 2144 : 	UI::CWindow * pWindow;
; 2145 : 	if (!PyTuple_GetWindow(poArgs, 0, &pWindow))

  00005	8d 45 f8	 lea	 eax, DWORD PTR _pWindow$[ebp]
  00008	50		 push	 eax
  00009	6a 00		 push	 0
  0000b	ff 75 0c	 push	 DWORD PTR _poArgs$[ebp]
  0000e	e8 00 00 00 00	 call	 ?PyTuple_GetWindow@@YA_NPAU_object@@HPAPAVCWindow@UI@@@Z ; PyTuple_GetWindow
  00013	83 c4 0c	 add	 esp, 12			; 0000000cH
  00016	0f b6 c0	 movzx	 eax, al
  00019	85 c0		 test	 eax, eax
  0001b	75 0a		 jne	 SHORT $LN2@wndButtonS

; 2146 : 		return Py_BuildException();

  0001d	6a 00		 push	 0
  0001f	e8 00 00 00 00	 call	 ?Py_BuildException@@YAPAU_object@@PBDZZ ; Py_BuildException
  00024	59		 pop	 ecx
  00025	eb 32		 jmp	 SHORT $LN1@wndButtonS
$LN2@wndButtonS:

; 2147 : 	char * szFileName;
; 2148 : 	if (!PyTuple_GetString(poArgs, 1, &szFileName))

  00027	8d 45 fc	 lea	 eax, DWORD PTR _szFileName$[ebp]
  0002a	50		 push	 eax
  0002b	6a 01		 push	 1
  0002d	ff 75 0c	 push	 DWORD PTR _poArgs$[ebp]
  00030	e8 00 00 00 00	 call	 ?PyTuple_GetString@@YA_NPAU_object@@HPAPAD@Z ; PyTuple_GetString
  00035	83 c4 0c	 add	 esp, 12			; 0000000cH
  00038	0f b6 c0	 movzx	 eax, al
  0003b	85 c0		 test	 eax, eax
  0003d	75 0a		 jne	 SHORT $LN3@wndButtonS

; 2149 : 		return Py_BuildException();

  0003f	6a 00		 push	 0
  00041	e8 00 00 00 00	 call	 ?Py_BuildException@@YAPAU_object@@PBDZZ ; Py_BuildException
  00046	59		 pop	 ecx
  00047	eb 10		 jmp	 SHORT $LN1@wndButtonS
$LN3@wndButtonS:

; 2150 : 
; 2151 : 	((UI::CButton*)pWindow)->SetDownVisual(szFileName);

  00049	ff 75 fc	 push	 DWORD PTR _szFileName$[ebp]
  0004c	8b 4d f8	 mov	 ecx, DWORD PTR _pWindow$[ebp]
  0004f	e8 00 00 00 00	 call	 ?SetDownVisual@CButton@UI@@QAEHPBD@Z ; UI::CButton::SetDownVisual

; 2152 : 
; 2153 : 	return Py_BuildNone();

  00054	e8 00 00 00 00	 call	 ?Py_BuildNone@@YAPAU_object@@XZ ; Py_BuildNone
$LN1@wndButtonS:

; 2154 : }

  00059	c9		 leave
  0005a	c3		 ret	 0
?wndButtonSetDownVisual@@YAPAU_object@@PAU1@0@Z ENDP	; wndButtonSetDownVisual
_TEXT	ENDS
; Function compile flags: /Odspy
; File D:\Metin2 Server Files\mainline\SRC_2014\Metin2Client\eterPythonLib\PythonWindowManagerModule.cpp
;	COMDAT ?wndButtonSetOverVisual@@YAPAU_object@@PAU1@0@Z
_TEXT	SEGMENT
_pWindow$ = -8						; size = 4
_szFileName$ = -4					; size = 4
_poSelf$ = 8						; size = 4
_poArgs$ = 12						; size = 4
?wndButtonSetOverVisual@@YAPAU_object@@PAU1@0@Z PROC	; wndButtonSetOverVisual, COMDAT

; 2130 : {

  00000	55		 push	 ebp
  00001	8b ec		 mov	 ebp, esp
  00003	51		 push	 ecx
  00004	51		 push	 ecx

; 2131 : 	UI::CWindow * pWindow;
; 2132 : 	if (!PyTuple_GetWindow(poArgs, 0, &pWindow))

  00005	8d 45 f8	 lea	 eax, DWORD PTR _pWindow$[ebp]
  00008	50		 push	 eax
  00009	6a 00		 push	 0
  0000b	ff 75 0c	 push	 DWORD PTR _poArgs$[ebp]
  0000e	e8 00 00 00 00	 call	 ?PyTuple_GetWindow@@YA_NPAU_object@@HPAPAVCWindow@UI@@@Z ; PyTuple_GetWindow
  00013	83 c4 0c	 add	 esp, 12			; 0000000cH
  00016	0f b6 c0	 movzx	 eax, al
  00019	85 c0		 test	 eax, eax
  0001b	75 0a		 jne	 SHORT $LN2@wndButtonS

; 2133 : 		return Py_BuildException();

  0001d	6a 00		 push	 0
  0001f	e8 00 00 00 00	 call	 ?Py_BuildException@@YAPAU_object@@PBDZZ ; Py_BuildException
  00024	59		 pop	 ecx
  00025	eb 32		 jmp	 SHORT $LN1@wndButtonS
$LN2@wndButtonS:

; 2134 : 	char * szFileName;
; 2135 : 	if (!PyTuple_GetString(poArgs, 1, &szFileName))

  00027	8d 45 fc	 lea	 eax, DWORD PTR _szFileName$[ebp]
  0002a	50		 push	 eax
  0002b	6a 01		 push	 1
  0002d	ff 75 0c	 push	 DWORD PTR _poArgs$[ebp]
  00030	e8 00 00 00 00	 call	 ?PyTuple_GetString@@YA_NPAU_object@@HPAPAD@Z ; PyTuple_GetString
  00035	83 c4 0c	 add	 esp, 12			; 0000000cH
  00038	0f b6 c0	 movzx	 eax, al
  0003b	85 c0		 test	 eax, eax
  0003d	75 0a		 jne	 SHORT $LN3@wndButtonS

; 2136 : 		return Py_BuildException();

  0003f	6a 00		 push	 0
  00041	e8 00 00 00 00	 call	 ?Py_BuildException@@YAPAU_object@@PBDZZ ; Py_BuildException
  00046	59		 pop	 ecx
  00047	eb 10		 jmp	 SHORT $LN1@wndButtonS
$LN3@wndButtonS:

; 2137 : 
; 2138 : 	((UI::CButton*)pWindow)->SetOverVisual(szFileName);

  00049	ff 75 fc	 push	 DWORD PTR _szFileName$[ebp]
  0004c	8b 4d f8	 mov	 ecx, DWORD PTR _pWindow$[ebp]
  0004f	e8 00 00 00 00	 call	 ?SetOverVisual@CButton@UI@@QAEHPBD@Z ; UI::CButton::SetOverVisual

; 2139 : 
; 2140 : 	return Py_BuildNone();

  00054	e8 00 00 00 00	 call	 ?Py_BuildNone@@YAPAU_object@@XZ ; Py_BuildNone
$LN1@wndButtonS:

; 2141 : }

  00059	c9		 leave
  0005a	c3		 ret	 0
?wndButtonSetOverVisual@@YAPAU_object@@PAU1@0@Z ENDP	; wndButtonSetOverVisual
_TEXT	ENDS
; Function compile flags: /Odspy
; File D:\Metin2 Server Files\mainline\SRC_2014\Metin2Client\eterPythonLib\PythonWindowManagerModule.cpp
;	COMDAT ?wndButtonSetUpVisual@@YAPAU_object@@PAU1@0@Z
_TEXT	SEGMENT
_pWindow$ = -8						; size = 4
_szFileName$ = -4					; size = 4
_poSelf$ = 8						; size = 4
_poArgs$ = 12						; size = 4
?wndButtonSetUpVisual@@YAPAU_object@@PAU1@0@Z PROC	; wndButtonSetUpVisual, COMDAT

; 2117 : {

  00000	55		 push	 ebp
  00001	8b ec		 mov	 ebp, esp
  00003	51		 push	 ecx
  00004	51		 push	 ecx

; 2118 : 	UI::CWindow * pWindow;
; 2119 : 	if (!PyTuple_GetWindow(poArgs, 0, &pWindow))

  00005	8d 45 f8	 lea	 eax, DWORD PTR _pWindow$[ebp]
  00008	50		 push	 eax
  00009	6a 00		 push	 0
  0000b	ff 75 0c	 push	 DWORD PTR _poArgs$[ebp]
  0000e	e8 00 00 00 00	 call	 ?PyTuple_GetWindow@@YA_NPAU_object@@HPAPAVCWindow@UI@@@Z ; PyTuple_GetWindow
  00013	83 c4 0c	 add	 esp, 12			; 0000000cH
  00016	0f b6 c0	 movzx	 eax, al
  00019	85 c0		 test	 eax, eax
  0001b	75 0a		 jne	 SHORT $LN2@wndButtonS

; 2120 : 		return Py_BuildException();

  0001d	6a 00		 push	 0
  0001f	e8 00 00 00 00	 call	 ?Py_BuildException@@YAPAU_object@@PBDZZ ; Py_BuildException
  00024	59		 pop	 ecx
  00025	eb 32		 jmp	 SHORT $LN1@wndButtonS
$LN2@wndButtonS:

; 2121 : 	char * szFileName;
; 2122 : 	if (!PyTuple_GetString(poArgs, 1, &szFileName))

  00027	8d 45 fc	 lea	 eax, DWORD PTR _szFileName$[ebp]
  0002a	50		 push	 eax
  0002b	6a 01		 push	 1
  0002d	ff 75 0c	 push	 DWORD PTR _poArgs$[ebp]
  00030	e8 00 00 00 00	 call	 ?PyTuple_GetString@@YA_NPAU_object@@HPAPAD@Z ; PyTuple_GetString
  00035	83 c4 0c	 add	 esp, 12			; 0000000cH
  00038	0f b6 c0	 movzx	 eax, al
  0003b	85 c0		 test	 eax, eax
  0003d	75 0a		 jne	 SHORT $LN3@wndButtonS

; 2123 : 		return Py_BuildException();

  0003f	6a 00		 push	 0
  00041	e8 00 00 00 00	 call	 ?Py_BuildException@@YAPAU_object@@PBDZZ ; Py_BuildException
  00046	59		 pop	 ecx
  00047	eb 10		 jmp	 SHORT $LN1@wndButtonS
$LN3@wndButtonS:

; 2124 : 
; 2125 : 	((UI::CButton*)pWindow)->SetUpVisual(szFileName);

  00049	ff 75 fc	 push	 DWORD PTR _szFileName$[ebp]
  0004c	8b 4d f8	 mov	 ecx, DWORD PTR _pWindow$[ebp]
  0004f	e8 00 00 00 00	 call	 ?SetUpVisual@CButton@UI@@QAEHPBD@Z ; UI::CButton::SetUpVisual

; 2126 : 
; 2127 : 	return Py_BuildNone();

  00054	e8 00 00 00 00	 call	 ?Py_BuildNone@@YAPAU_object@@XZ ; Py_BuildNone
$LN1@wndButtonS:

; 2128 : }

  00059	c9		 leave
  0005a	c3		 ret	 0
?wndButtonSetUpVisual@@YAPAU_object@@PAU1@0@Z ENDP	; wndButtonSetUpVisual
_TEXT	ENDS
; Function compile flags: /Odspy
; File D:\Metin2 Server Files\mainline\SRC_2014\Metin2Client\eterPythonLib\PythonWindowManagerModule.cpp
;	COMDAT ?wndImageAppendImage@@YAPAU_object@@PAU1@0@Z
_TEXT	SEGMENT
_pWindow$ = -8						; size = 4
_szFileName$ = -4					; size = 4
_poSelf$ = 8						; size = 4
_poArgs$ = 12						; size = 4
?wndImageAppendImage@@YAPAU_object@@PAU1@0@Z PROC	; wndImageAppendImage, COMDAT

; 2103 : {

  00000	55		 push	 ebp
  00001	8b ec		 mov	 ebp, esp
  00003	51		 push	 ecx
  00004	51		 push	 ecx

; 2104 : 	UI::CWindow * pWindow;
; 2105 : 	if (!PyTuple_GetWindow(poArgs, 0, &pWindow))

  00005	8d 45 f8	 lea	 eax, DWORD PTR _pWindow$[ebp]
  00008	50		 push	 eax
  00009	6a 00		 push	 0
  0000b	ff 75 0c	 push	 DWORD PTR _poArgs$[ebp]
  0000e	e8 00 00 00 00	 call	 ?PyTuple_GetWindow@@YA_NPAU_object@@HPAPAVCWindow@UI@@@Z ; PyTuple_GetWindow
  00013	83 c4 0c	 add	 esp, 12			; 0000000cH
  00016	0f b6 c0	 movzx	 eax, al
  00019	85 c0		 test	 eax, eax
  0001b	75 0a		 jne	 SHORT $LN2@wndImageAp

; 2106 : 		return Py_BuildException();

  0001d	6a 00		 push	 0
  0001f	e8 00 00 00 00	 call	 ?Py_BuildException@@YAPAU_object@@PBDZZ ; Py_BuildException
  00024	59		 pop	 ecx
  00025	eb 32		 jmp	 SHORT $LN1@wndImageAp
$LN2@wndImageAp:

; 2107 : 	char * szFileName;
; 2108 : 	if (!PyTuple_GetString(poArgs, 1, &szFileName))

  00027	8d 45 fc	 lea	 eax, DWORD PTR _szFileName$[ebp]
  0002a	50		 push	 eax
  0002b	6a 01		 push	 1
  0002d	ff 75 0c	 push	 DWORD PTR _poArgs$[ebp]
  00030	e8 00 00 00 00	 call	 ?PyTuple_GetString@@YA_NPAU_object@@HPAPAD@Z ; PyTuple_GetString
  00035	83 c4 0c	 add	 esp, 12			; 0000000cH
  00038	0f b6 c0	 movzx	 eax, al
  0003b	85 c0		 test	 eax, eax
  0003d	75 0a		 jne	 SHORT $LN3@wndImageAp

; 2109 : 		return Py_BuildException();

  0003f	6a 00		 push	 0
  00041	e8 00 00 00 00	 call	 ?Py_BuildException@@YAPAU_object@@PBDZZ ; Py_BuildException
  00046	59		 pop	 ecx
  00047	eb 10		 jmp	 SHORT $LN1@wndImageAp
$LN3@wndImageAp:

; 2110 : 
; 2111 : 	((UI::CAniImageBox*)pWindow)->AppendImage(szFileName);

  00049	ff 75 fc	 push	 DWORD PTR _szFileName$[ebp]
  0004c	8b 4d f8	 mov	 ecx, DWORD PTR _pWindow$[ebp]
  0004f	e8 00 00 00 00	 call	 ?AppendImage@CAniImageBox@UI@@QAEXPBD@Z ; UI::CAniImageBox::AppendImage

; 2112 : 
; 2113 : 	return Py_BuildNone();

  00054	e8 00 00 00 00	 call	 ?Py_BuildNone@@YAPAU_object@@XZ ; Py_BuildNone
$LN1@wndImageAp:

; 2114 : }

  00059	c9		 leave
  0005a	c3		 ret	 0
?wndImageAppendImage@@YAPAU_object@@PAU1@0@Z ENDP	; wndImageAppendImage
_TEXT	ENDS
; Function compile flags: /Odspy
; File D:\Metin2 Server Files\mainline\SRC_2014\Metin2Client\eterPythonLib\PythonWindowManagerModule.cpp
;	COMDAT ?wndImageSetDelay@@YAPAU_object@@PAU1@0@Z
_TEXT	SEGMENT
_pWindow$ = -8						; size = 4
_fDelay$ = -4						; size = 4
_poSelf$ = 8						; size = 4
_poArgs$ = 12						; size = 4
?wndImageSetDelay@@YAPAU_object@@PAU1@0@Z PROC		; wndImageSetDelay, COMDAT

; 2090 : {

  00000	55		 push	 ebp
  00001	8b ec		 mov	 ebp, esp
  00003	51		 push	 ecx
  00004	51		 push	 ecx

; 2091 : 	UI::CWindow * pWindow;
; 2092 : 	if (!PyTuple_GetWindow(poArgs, 0, &pWindow))

  00005	8d 45 f8	 lea	 eax, DWORD PTR _pWindow$[ebp]
  00008	50		 push	 eax
  00009	6a 00		 push	 0
  0000b	ff 75 0c	 push	 DWORD PTR _poArgs$[ebp]
  0000e	e8 00 00 00 00	 call	 ?PyTuple_GetWindow@@YA_NPAU_object@@HPAPAVCWindow@UI@@@Z ; PyTuple_GetWindow
  00013	83 c4 0c	 add	 esp, 12			; 0000000cH
  00016	0f b6 c0	 movzx	 eax, al
  00019	85 c0		 test	 eax, eax
  0001b	75 0a		 jne	 SHORT $LN2@wndImageSe

; 2093 : 		return Py_BuildException();

  0001d	6a 00		 push	 0
  0001f	e8 00 00 00 00	 call	 ?Py_BuildException@@YAPAU_object@@PBDZZ ; Py_BuildException
  00024	59		 pop	 ecx
  00025	eb 35		 jmp	 SHORT $LN1@wndImageSe
$LN2@wndImageSe:

; 2094 : 	float fDelay;
; 2095 : 	if (!PyTuple_GetFloat(poArgs, 1, &fDelay))

  00027	8d 45 fc	 lea	 eax, DWORD PTR _fDelay$[ebp]
  0002a	50		 push	 eax
  0002b	6a 01		 push	 1
  0002d	ff 75 0c	 push	 DWORD PTR _poArgs$[ebp]
  00030	e8 00 00 00 00	 call	 ?PyTuple_GetFloat@@YA_NPAU_object@@HPAM@Z ; PyTuple_GetFloat
  00035	83 c4 0c	 add	 esp, 12			; 0000000cH
  00038	0f b6 c0	 movzx	 eax, al
  0003b	85 c0		 test	 eax, eax
  0003d	75 0a		 jne	 SHORT $LN3@wndImageSe

; 2096 : 		return Py_BuildException();

  0003f	6a 00		 push	 0
  00041	e8 00 00 00 00	 call	 ?Py_BuildException@@YAPAU_object@@PBDZZ ; Py_BuildException
  00046	59		 pop	 ecx
  00047	eb 13		 jmp	 SHORT $LN1@wndImageSe
$LN3@wndImageSe:

; 2097 : 
; 2098 : 	((UI::CAniImageBox*)pWindow)->SetDelay(fDelay);

  00049	f3 0f 2c 45 fc	 cvttss2si eax, DWORD PTR _fDelay$[ebp]
  0004e	50		 push	 eax
  0004f	8b 4d f8	 mov	 ecx, DWORD PTR _pWindow$[ebp]
  00052	e8 00 00 00 00	 call	 ?SetDelay@CAniImageBox@UI@@QAEXH@Z ; UI::CAniImageBox::SetDelay

; 2099 : 
; 2100 : 	return Py_BuildNone();

  00057	e8 00 00 00 00	 call	 ?Py_BuildNone@@YAPAU_object@@XZ ; Py_BuildNone
$LN1@wndImageSe:

; 2101 : }

  0005c	c9		 leave
  0005d	c3		 ret	 0
?wndImageSetDelay@@YAPAU_object@@PAU1@0@Z ENDP		; wndImageSetDelay
_TEXT	ENDS
; Function compile flags: /Odspy
; File D:\Metin2 Server Files\mainline\SRC_2014\Metin2Client\eterPythonLib\PythonWindowManagerModule.cpp
;	COMDAT ?wndImageSetRenderingMode@@YAPAU_object@@PAU1@0@Z
_TEXT	SEGMENT
_iMode$ = -8						; size = 4
_pWindow$ = -4						; size = 4
_poSelf$ = 8						; size = 4
_poArgs$ = 12						; size = 4
?wndImageSetRenderingMode@@YAPAU_object@@PAU1@0@Z PROC	; wndImageSetRenderingMode, COMDAT

; 2076 : {

  00000	55		 push	 ebp
  00001	8b ec		 mov	 ebp, esp
  00003	51		 push	 ecx
  00004	51		 push	 ecx

; 2077 : 	UI::CWindow * pWindow;
; 2078 : 	if (!PyTuple_GetWindow(poArgs, 0, &pWindow))

  00005	8d 45 fc	 lea	 eax, DWORD PTR _pWindow$[ebp]
  00008	50		 push	 eax
  00009	6a 00		 push	 0
  0000b	ff 75 0c	 push	 DWORD PTR _poArgs$[ebp]
  0000e	e8 00 00 00 00	 call	 ?PyTuple_GetWindow@@YA_NPAU_object@@HPAPAVCWindow@UI@@@Z ; PyTuple_GetWindow
  00013	83 c4 0c	 add	 esp, 12			; 0000000cH
  00016	0f b6 c0	 movzx	 eax, al
  00019	85 c0		 test	 eax, eax
  0001b	75 0a		 jne	 SHORT $LN2@wndImageSe

; 2079 : 		return Py_BuildException();

  0001d	6a 00		 push	 0
  0001f	e8 00 00 00 00	 call	 ?Py_BuildException@@YAPAU_object@@PBDZZ ; Py_BuildException
  00024	59		 pop	 ecx
  00025	eb 44		 jmp	 SHORT $LN1@wndImageSe
$LN2@wndImageSe:

; 2080 : 	int iMode;
; 2081 : 	if (!PyTuple_GetInteger(poArgs, 1, &iMode))

  00027	8d 45 f8	 lea	 eax, DWORD PTR _iMode$[ebp]
  0002a	50		 push	 eax
  0002b	6a 01		 push	 1
  0002d	ff 75 0c	 push	 DWORD PTR _poArgs$[ebp]
  00030	e8 00 00 00 00	 call	 ?PyTuple_GetInteger@@YA_NPAU_object@@HPAH@Z ; PyTuple_GetInteger
  00035	83 c4 0c	 add	 esp, 12			; 0000000cH
  00038	0f b6 c0	 movzx	 eax, al
  0003b	85 c0		 test	 eax, eax
  0003d	75 0a		 jne	 SHORT $LN3@wndImageSe

; 2082 : 		return Py_BuildException();

  0003f	6a 00		 push	 0
  00041	e8 00 00 00 00	 call	 ?Py_BuildException@@YAPAU_object@@PBDZZ ; Py_BuildException
  00046	59		 pop	 ecx
  00047	eb 22		 jmp	 SHORT $LN1@wndImageSe
$LN3@wndImageSe:

; 2083 : 
; 2084 : 	if (pWindow->IsType(UI::CExpandedImageBox::Type()))

  00049	e8 00 00 00 00	 call	 ?Type@CExpandedImageBox@UI@@SAKXZ ; UI::CExpandedImageBox::Type
  0004e	50		 push	 eax
  0004f	8b 4d fc	 mov	 ecx, DWORD PTR _pWindow$[ebp]
  00052	e8 00 00 00 00	 call	 ?IsType@CWindow@UI@@QAEHK@Z ; UI::CWindow::IsType
  00057	85 c0		 test	 eax, eax
  00059	74 0b		 je	 SHORT $LN4@wndImageSe

; 2085 : 		((UI::CExpandedImageBox*)pWindow)->SetRenderingMode(iMode);

  0005b	ff 75 f8	 push	 DWORD PTR _iMode$[ebp]
  0005e	8b 4d fc	 mov	 ecx, DWORD PTR _pWindow$[ebp]
  00061	e8 00 00 00 00	 call	 ?SetRenderingMode@CExpandedImageBox@UI@@QAEXH@Z ; UI::CExpandedImageBox::SetRenderingMode
$LN4@wndImageSe:

; 2086 : 
; 2087 : 	return Py_BuildNone();

  00066	e8 00 00 00 00	 call	 ?Py_BuildNone@@YAPAU_object@@XZ ; Py_BuildNone
$LN1@wndImageSe:

; 2088 : }

  0006b	c9		 leave
  0006c	c3		 ret	 0
?wndImageSetRenderingMode@@YAPAU_object@@PAU1@0@Z ENDP	; wndImageSetRenderingMode
_TEXT	ENDS
; Function compile flags: /Odspy
; File D:\Metin2 Server Files\mainline\SRC_2014\Metin2Client\eterPythonLib\PythonWindowManagerModule.cpp
;	COMDAT ?wndImageSetRenderingRect@@YAPAU_object@@PAU1@0@Z
_TEXT	SEGMENT
_fLeft$ = -20						; size = 4
_fTop$ = -16						; size = 4
_fRight$ = -12						; size = 4
_fBottom$ = -8						; size = 4
_pWindow$ = -4						; size = 4
_poSelf$ = 8						; size = 4
_poArgs$ = 12						; size = 4
?wndImageSetRenderingRect@@YAPAU_object@@PAU1@0@Z PROC	; wndImageSetRenderingRect, COMDAT

; 2051 : {

  00000	55		 push	 ebp
  00001	8b ec		 mov	 ebp, esp
  00003	83 ec 14	 sub	 esp, 20			; 00000014H

; 2052 : 	UI::CWindow * pWindow;
; 2053 : 	if (!PyTuple_GetWindow(poArgs, 0, &pWindow))

  00006	8d 45 fc	 lea	 eax, DWORD PTR _pWindow$[ebp]
  00009	50		 push	 eax
  0000a	6a 00		 push	 0
  0000c	ff 75 0c	 push	 DWORD PTR _poArgs$[ebp]
  0000f	e8 00 00 00 00	 call	 ?PyTuple_GetWindow@@YA_NPAU_object@@HPAPAVCWindow@UI@@@Z ; PyTuple_GetWindow
  00014	83 c4 0c	 add	 esp, 12			; 0000000cH
  00017	0f b6 c0	 movzx	 eax, al
  0001a	85 c0		 test	 eax, eax
  0001c	75 0d		 jne	 SHORT $LN2@wndImageSe

; 2054 : 		return Py_BuildException();

  0001e	6a 00		 push	 0
  00020	e8 00 00 00 00	 call	 ?Py_BuildException@@YAPAU_object@@PBDZZ ; Py_BuildException
  00025	59		 pop	 ecx
  00026	e9 27 01 00 00	 jmp	 $LN1@wndImageSe
$LN2@wndImageSe:

; 2055 : 	float fLeft;
; 2056 : 	if (!PyTuple_GetFloat(poArgs, 1, &fLeft))

  0002b	8d 45 ec	 lea	 eax, DWORD PTR _fLeft$[ebp]
  0002e	50		 push	 eax
  0002f	6a 01		 push	 1
  00031	ff 75 0c	 push	 DWORD PTR _poArgs$[ebp]
  00034	e8 00 00 00 00	 call	 ?PyTuple_GetFloat@@YA_NPAU_object@@HPAM@Z ; PyTuple_GetFloat
  00039	83 c4 0c	 add	 esp, 12			; 0000000cH
  0003c	0f b6 c0	 movzx	 eax, al
  0003f	85 c0		 test	 eax, eax
  00041	75 0d		 jne	 SHORT $LN3@wndImageSe

; 2057 : 		return Py_BuildException();

  00043	6a 00		 push	 0
  00045	e8 00 00 00 00	 call	 ?Py_BuildException@@YAPAU_object@@PBDZZ ; Py_BuildException
  0004a	59		 pop	 ecx
  0004b	e9 02 01 00 00	 jmp	 $LN1@wndImageSe
$LN3@wndImageSe:

; 2058 : 	float fTop;
; 2059 : 	if (!PyTuple_GetFloat(poArgs, 2, &fTop))

  00050	8d 45 f0	 lea	 eax, DWORD PTR _fTop$[ebp]
  00053	50		 push	 eax
  00054	6a 02		 push	 2
  00056	ff 75 0c	 push	 DWORD PTR _poArgs$[ebp]
  00059	e8 00 00 00 00	 call	 ?PyTuple_GetFloat@@YA_NPAU_object@@HPAM@Z ; PyTuple_GetFloat
  0005e	83 c4 0c	 add	 esp, 12			; 0000000cH
  00061	0f b6 c0	 movzx	 eax, al
  00064	85 c0		 test	 eax, eax
  00066	75 0d		 jne	 SHORT $LN4@wndImageSe

; 2060 : 		return Py_BuildException();

  00068	6a 00		 push	 0
  0006a	e8 00 00 00 00	 call	 ?Py_BuildException@@YAPAU_object@@PBDZZ ; Py_BuildException
  0006f	59		 pop	 ecx
  00070	e9 dd 00 00 00	 jmp	 $LN1@wndImageSe
$LN4@wndImageSe:

; 2061 : 	float fRight;
; 2062 : 	if (!PyTuple_GetFloat(poArgs, 3, &fRight))

  00075	8d 45 f4	 lea	 eax, DWORD PTR _fRight$[ebp]
  00078	50		 push	 eax
  00079	6a 03		 push	 3
  0007b	ff 75 0c	 push	 DWORD PTR _poArgs$[ebp]
  0007e	e8 00 00 00 00	 call	 ?PyTuple_GetFloat@@YA_NPAU_object@@HPAM@Z ; PyTuple_GetFloat
  00083	83 c4 0c	 add	 esp, 12			; 0000000cH
  00086	0f b6 c0	 movzx	 eax, al
  00089	85 c0		 test	 eax, eax
  0008b	75 0d		 jne	 SHORT $LN5@wndImageSe

; 2063 : 		return Py_BuildException();

  0008d	6a 00		 push	 0
  0008f	e8 00 00 00 00	 call	 ?Py_BuildException@@YAPAU_object@@PBDZZ ; Py_BuildException
  00094	59		 pop	 ecx
  00095	e9 b8 00 00 00	 jmp	 $LN1@wndImageSe
$LN5@wndImageSe:

; 2064 : 	float fBottom;
; 2065 : 	if (!PyTuple_GetFloat(poArgs, 4, &fBottom))

  0009a	8d 45 f8	 lea	 eax, DWORD PTR _fBottom$[ebp]
  0009d	50		 push	 eax
  0009e	6a 04		 push	 4
  000a0	ff 75 0c	 push	 DWORD PTR _poArgs$[ebp]
  000a3	e8 00 00 00 00	 call	 ?PyTuple_GetFloat@@YA_NPAU_object@@HPAM@Z ; PyTuple_GetFloat
  000a8	83 c4 0c	 add	 esp, 12			; 0000000cH
  000ab	0f b6 c0	 movzx	 eax, al
  000ae	85 c0		 test	 eax, eax
  000b0	75 0d		 jne	 SHORT $LN6@wndImageSe

; 2066 : 		return Py_BuildException();

  000b2	6a 00		 push	 0
  000b4	e8 00 00 00 00	 call	 ?Py_BuildException@@YAPAU_object@@PBDZZ ; Py_BuildException
  000b9	59		 pop	 ecx
  000ba	e9 93 00 00 00	 jmp	 $LN1@wndImageSe
$LN6@wndImageSe:

; 2067 : 
; 2068 : 	if (pWindow->IsType(UI::CExpandedImageBox::Type()))

  000bf	e8 00 00 00 00	 call	 ?Type@CExpandedImageBox@UI@@SAKXZ ; UI::CExpandedImageBox::Type
  000c4	50		 push	 eax
  000c5	8b 4d fc	 mov	 ecx, DWORD PTR _pWindow$[ebp]
  000c8	e8 00 00 00 00	 call	 ?IsType@CWindow@UI@@QAEHK@Z ; UI::CWindow::IsType
  000cd	85 c0		 test	 eax, eax
  000cf	74 36		 je	 SHORT $LN7@wndImageSe

; 2069 : 		((UI::CExpandedImageBox*)pWindow)->SetRenderingRect(fLeft, fTop, fRight, fBottom);

  000d1	51		 push	 ecx
  000d2	f3 0f 10 45 f8	 movss	 xmm0, DWORD PTR _fBottom$[ebp]
  000d7	f3 0f 11 04 24	 movss	 DWORD PTR [esp], xmm0
  000dc	51		 push	 ecx
  000dd	f3 0f 10 45 f4	 movss	 xmm0, DWORD PTR _fRight$[ebp]
  000e2	f3 0f 11 04 24	 movss	 DWORD PTR [esp], xmm0
  000e7	51		 push	 ecx
  000e8	f3 0f 10 45 f0	 movss	 xmm0, DWORD PTR _fTop$[ebp]
  000ed	f3 0f 11 04 24	 movss	 DWORD PTR [esp], xmm0
  000f2	51		 push	 ecx
  000f3	f3 0f 10 45 ec	 movss	 xmm0, DWORD PTR _fLeft$[ebp]
  000f8	f3 0f 11 04 24	 movss	 DWORD PTR [esp], xmm0
  000fd	8b 4d fc	 mov	 ecx, DWORD PTR _pWindow$[ebp]
  00100	e8 00 00 00 00	 call	 ?SetRenderingRect@CExpandedImageBox@UI@@QAEXMMMM@Z ; UI::CExpandedImageBox::SetRenderingRect
  00105	eb 46		 jmp	 SHORT $LN9@wndImageSe
$LN7@wndImageSe:

; 2070 : 	else if (pWindow->IsType(UI::CAniImageBox::Type()))

  00107	e8 00 00 00 00	 call	 ?Type@CAniImageBox@UI@@SAKXZ ; UI::CAniImageBox::Type
  0010c	50		 push	 eax
  0010d	8b 4d fc	 mov	 ecx, DWORD PTR _pWindow$[ebp]
  00110	e8 00 00 00 00	 call	 ?IsType@CWindow@UI@@QAEHK@Z ; UI::CWindow::IsType
  00115	85 c0		 test	 eax, eax
  00117	74 34		 je	 SHORT $LN9@wndImageSe

; 2071 : 		((UI::CAniImageBox*)pWindow)->SetRenderingRect(fLeft, fTop, fRight, fBottom);

  00119	51		 push	 ecx
  0011a	f3 0f 10 45 f8	 movss	 xmm0, DWORD PTR _fBottom$[ebp]
  0011f	f3 0f 11 04 24	 movss	 DWORD PTR [esp], xmm0
  00124	51		 push	 ecx
  00125	f3 0f 10 45 f4	 movss	 xmm0, DWORD PTR _fRight$[ebp]
  0012a	f3 0f 11 04 24	 movss	 DWORD PTR [esp], xmm0
  0012f	51		 push	 ecx
  00130	f3 0f 10 45 f0	 movss	 xmm0, DWORD PTR _fTop$[ebp]
  00135	f3 0f 11 04 24	 movss	 DWORD PTR [esp], xmm0
  0013a	51		 push	 ecx
  0013b	f3 0f 10 45 ec	 movss	 xmm0, DWORD PTR _fLeft$[ebp]
  00140	f3 0f 11 04 24	 movss	 DWORD PTR [esp], xmm0
  00145	8b 4d fc	 mov	 ecx, DWORD PTR _pWindow$[ebp]
  00148	e8 00 00 00 00	 call	 ?SetRenderingRect@CAniImageBox@UI@@QAEXMMMM@Z ; UI::CAniImageBox::SetRenderingRect
$LN9@wndImageSe:

; 2072 : 
; 2073 : 	return Py_BuildNone();

  0014d	e8 00 00 00 00	 call	 ?Py_BuildNone@@YAPAU_object@@XZ ; Py_BuildNone
$LN1@wndImageSe:

; 2074 : }

  00152	c9		 leave
  00153	c3		 ret	 0
?wndImageSetRenderingRect@@YAPAU_object@@PAU1@0@Z ENDP	; wndImageSetRenderingRect
_TEXT	ENDS
; Function compile flags: /Odspy
; File D:\Metin2 Server Files\mainline\SRC_2014\Metin2Client\eterPythonLib\PythonWindowManagerModule.cpp
;	COMDAT ?wndImageSetRotation@@YAPAU_object@@PAU1@0@Z
_TEXT	SEGMENT
_pWindow$ = -8						; size = 4
_fRotation$ = -4					; size = 4
_poSelf$ = 8						; size = 4
_poArgs$ = 12						; size = 4
?wndImageSetRotation@@YAPAU_object@@PAU1@0@Z PROC	; wndImageSetRotation, COMDAT

; 2038 : {

  00000	55		 push	 ebp
  00001	8b ec		 mov	 ebp, esp
  00003	51		 push	 ecx
  00004	51		 push	 ecx

; 2039 : 	UI::CWindow * pWindow;
; 2040 : 	if (!PyTuple_GetWindow(poArgs, 0, &pWindow))

  00005	8d 45 f8	 lea	 eax, DWORD PTR _pWindow$[ebp]
  00008	50		 push	 eax
  00009	6a 00		 push	 0
  0000b	ff 75 0c	 push	 DWORD PTR _poArgs$[ebp]
  0000e	e8 00 00 00 00	 call	 ?PyTuple_GetWindow@@YA_NPAU_object@@HPAPAVCWindow@UI@@@Z ; PyTuple_GetWindow
  00013	83 c4 0c	 add	 esp, 12			; 0000000cH
  00016	0f b6 c0	 movzx	 eax, al
  00019	85 c0		 test	 eax, eax
  0001b	75 0a		 jne	 SHORT $LN2@wndImageSe

; 2041 : 		return Py_BuildException();

  0001d	6a 00		 push	 0
  0001f	e8 00 00 00 00	 call	 ?Py_BuildException@@YAPAU_object@@PBDZZ ; Py_BuildException
  00024	59		 pop	 ecx
  00025	eb 3a		 jmp	 SHORT $LN1@wndImageSe
$LN2@wndImageSe:

; 2042 : 	float fRotation;
; 2043 : 	if (!PyTuple_GetFloat(poArgs, 1, &fRotation))

  00027	8d 45 fc	 lea	 eax, DWORD PTR _fRotation$[ebp]
  0002a	50		 push	 eax
  0002b	6a 01		 push	 1
  0002d	ff 75 0c	 push	 DWORD PTR _poArgs$[ebp]
  00030	e8 00 00 00 00	 call	 ?PyTuple_GetFloat@@YA_NPAU_object@@HPAM@Z ; PyTuple_GetFloat
  00035	83 c4 0c	 add	 esp, 12			; 0000000cH
  00038	0f b6 c0	 movzx	 eax, al
  0003b	85 c0		 test	 eax, eax
  0003d	75 0a		 jne	 SHORT $LN3@wndImageSe

; 2044 : 		return Py_BuildException();

  0003f	6a 00		 push	 0
  00041	e8 00 00 00 00	 call	 ?Py_BuildException@@YAPAU_object@@PBDZZ ; Py_BuildException
  00046	59		 pop	 ecx
  00047	eb 18		 jmp	 SHORT $LN1@wndImageSe
$LN3@wndImageSe:

; 2045 : 
; 2046 : 	((UI::CExpandedImageBox*)pWindow)->SetRotation(fRotation);

  00049	51		 push	 ecx
  0004a	f3 0f 10 45 fc	 movss	 xmm0, DWORD PTR _fRotation$[ebp]
  0004f	f3 0f 11 04 24	 movss	 DWORD PTR [esp], xmm0
  00054	8b 4d f8	 mov	 ecx, DWORD PTR _pWindow$[ebp]
  00057	e8 00 00 00 00	 call	 ?SetRotation@CExpandedImageBox@UI@@QAEXM@Z ; UI::CExpandedImageBox::SetRotation

; 2047 : 
; 2048 : 	return Py_BuildNone();

  0005c	e8 00 00 00 00	 call	 ?Py_BuildNone@@YAPAU_object@@XZ ; Py_BuildNone
$LN1@wndImageSe:

; 2049 : }

  00061	c9		 leave
  00062	c3		 ret	 0
?wndImageSetRotation@@YAPAU_object@@PAU1@0@Z ENDP	; wndImageSetRotation
_TEXT	ENDS
; Function compile flags: /Odspy
; File D:\Metin2 Server Files\mainline\SRC_2014\Metin2Client\eterPythonLib\PythonWindowManagerModule.cpp
;	COMDAT ?wndImageSetOrigin@@YAPAU_object@@PAU1@0@Z
_TEXT	SEGMENT
_pWindow$ = -12						; size = 4
_fx$ = -8						; size = 4
_fy$ = -4						; size = 4
_poSelf$ = 8						; size = 4
_poArgs$ = 12						; size = 4
?wndImageSetOrigin@@YAPAU_object@@PAU1@0@Z PROC		; wndImageSetOrigin, COMDAT

; 2022 : {

  00000	55		 push	 ebp
  00001	8b ec		 mov	 ebp, esp
  00003	83 ec 0c	 sub	 esp, 12			; 0000000cH

; 2023 : 	UI::CWindow * pWindow;
; 2024 : 	if (!PyTuple_GetWindow(poArgs, 0, &pWindow))

  00006	8d 45 f4	 lea	 eax, DWORD PTR _pWindow$[ebp]
  00009	50		 push	 eax
  0000a	6a 00		 push	 0
  0000c	ff 75 0c	 push	 DWORD PTR _poArgs$[ebp]
  0000f	e8 00 00 00 00	 call	 ?PyTuple_GetWindow@@YA_NPAU_object@@HPAPAVCWindow@UI@@@Z ; PyTuple_GetWindow
  00014	83 c4 0c	 add	 esp, 12			; 0000000cH
  00017	0f b6 c0	 movzx	 eax, al
  0001a	85 c0		 test	 eax, eax
  0001c	75 0a		 jne	 SHORT $LN2@wndImageSe

; 2025 : 		return Py_BuildException();

  0001e	6a 00		 push	 0
  00020	e8 00 00 00 00	 call	 ?Py_BuildException@@YAPAU_object@@PBDZZ ; Py_BuildException
  00025	59		 pop	 ecx
  00026	eb 67		 jmp	 SHORT $LN1@wndImageSe
$LN2@wndImageSe:

; 2026 : 	float fx;
; 2027 : 	if (!PyTuple_GetFloat(poArgs, 1, &fx))

  00028	8d 45 f8	 lea	 eax, DWORD PTR _fx$[ebp]
  0002b	50		 push	 eax
  0002c	6a 01		 push	 1
  0002e	ff 75 0c	 push	 DWORD PTR _poArgs$[ebp]
  00031	e8 00 00 00 00	 call	 ?PyTuple_GetFloat@@YA_NPAU_object@@HPAM@Z ; PyTuple_GetFloat
  00036	83 c4 0c	 add	 esp, 12			; 0000000cH
  00039	0f b6 c0	 movzx	 eax, al
  0003c	85 c0		 test	 eax, eax
  0003e	75 0a		 jne	 SHORT $LN3@wndImageSe

; 2028 : 		return Py_BuildException();

  00040	6a 00		 push	 0
  00042	e8 00 00 00 00	 call	 ?Py_BuildException@@YAPAU_object@@PBDZZ ; Py_BuildException
  00047	59		 pop	 ecx
  00048	eb 45		 jmp	 SHORT $LN1@wndImageSe
$LN3@wndImageSe:

; 2029 : 	float fy;
; 2030 : 	if (!PyTuple_GetFloat(poArgs, 2, &fy))

  0004a	8d 45 fc	 lea	 eax, DWORD PTR _fy$[ebp]
  0004d	50		 push	 eax
  0004e	6a 02		 push	 2
  00050	ff 75 0c	 push	 DWORD PTR _poArgs$[ebp]
  00053	e8 00 00 00 00	 call	 ?PyTuple_GetFloat@@YA_NPAU_object@@HPAM@Z ; PyTuple_GetFloat
  00058	83 c4 0c	 add	 esp, 12			; 0000000cH
  0005b	0f b6 c0	 movzx	 eax, al
  0005e	85 c0		 test	 eax, eax
  00060	75 0a		 jne	 SHORT $LN4@wndImageSe

; 2031 : 		return Py_BuildException();

  00062	6a 00		 push	 0
  00064	e8 00 00 00 00	 call	 ?Py_BuildException@@YAPAU_object@@PBDZZ ; Py_BuildException
  00069	59		 pop	 ecx
  0006a	eb 23		 jmp	 SHORT $LN1@wndImageSe
$LN4@wndImageSe:

; 2032 : 
; 2033 : 	((UI::CExpandedImageBox*)pWindow)->SetOrigin(fx, fy);

  0006c	51		 push	 ecx
  0006d	f3 0f 10 45 fc	 movss	 xmm0, DWORD PTR _fy$[ebp]
  00072	f3 0f 11 04 24	 movss	 DWORD PTR [esp], xmm0
  00077	51		 push	 ecx
  00078	f3 0f 10 45 f8	 movss	 xmm0, DWORD PTR _fx$[ebp]
  0007d	f3 0f 11 04 24	 movss	 DWORD PTR [esp], xmm0
  00082	8b 4d f4	 mov	 ecx, DWORD PTR _pWindow$[ebp]
  00085	e8 00 00 00 00	 call	 ?SetOrigin@CExpandedImageBox@UI@@QAEXMM@Z ; UI::CExpandedImageBox::SetOrigin

; 2034 : 
; 2035 : 	return Py_BuildNone();

  0008a	e8 00 00 00 00	 call	 ?Py_BuildNone@@YAPAU_object@@XZ ; Py_BuildNone
$LN1@wndImageSe:

; 2036 : }

  0008f	c9		 leave
  00090	c3		 ret	 0
?wndImageSetOrigin@@YAPAU_object@@PAU1@0@Z ENDP		; wndImageSetOrigin
_TEXT	ENDS
; Function compile flags: /Odspy
; File D:\Metin2 Server Files\mainline\SRC_2014\Metin2Client\eterPythonLib\PythonWindowManagerModule.cpp
;	COMDAT ?wndImageSetScale@@YAPAU_object@@PAU1@0@Z
_TEXT	SEGMENT
_pWindow$ = -12						; size = 4
_fx$ = -8						; size = 4
_fy$ = -4						; size = 4
_poSelf$ = 8						; size = 4
_poArgs$ = 12						; size = 4
?wndImageSetScale@@YAPAU_object@@PAU1@0@Z PROC		; wndImageSetScale, COMDAT

; 2006 : {

  00000	55		 push	 ebp
  00001	8b ec		 mov	 ebp, esp
  00003	83 ec 0c	 sub	 esp, 12			; 0000000cH

; 2007 : 	UI::CWindow * pWindow;
; 2008 : 	if (!PyTuple_GetWindow(poArgs, 0, &pWindow))

  00006	8d 45 f4	 lea	 eax, DWORD PTR _pWindow$[ebp]
  00009	50		 push	 eax
  0000a	6a 00		 push	 0
  0000c	ff 75 0c	 push	 DWORD PTR _poArgs$[ebp]
  0000f	e8 00 00 00 00	 call	 ?PyTuple_GetWindow@@YA_NPAU_object@@HPAPAVCWindow@UI@@@Z ; PyTuple_GetWindow
  00014	83 c4 0c	 add	 esp, 12			; 0000000cH
  00017	0f b6 c0	 movzx	 eax, al
  0001a	85 c0		 test	 eax, eax
  0001c	75 0a		 jne	 SHORT $LN2@wndImageSe

; 2009 : 		return Py_BuildException();

  0001e	6a 00		 push	 0
  00020	e8 00 00 00 00	 call	 ?Py_BuildException@@YAPAU_object@@PBDZZ ; Py_BuildException
  00025	59		 pop	 ecx
  00026	eb 67		 jmp	 SHORT $LN1@wndImageSe
$LN2@wndImageSe:

; 2010 : 	float fx;
; 2011 : 	if (!PyTuple_GetFloat(poArgs, 1, &fx))

  00028	8d 45 f8	 lea	 eax, DWORD PTR _fx$[ebp]
  0002b	50		 push	 eax
  0002c	6a 01		 push	 1
  0002e	ff 75 0c	 push	 DWORD PTR _poArgs$[ebp]
  00031	e8 00 00 00 00	 call	 ?PyTuple_GetFloat@@YA_NPAU_object@@HPAM@Z ; PyTuple_GetFloat
  00036	83 c4 0c	 add	 esp, 12			; 0000000cH
  00039	0f b6 c0	 movzx	 eax, al
  0003c	85 c0		 test	 eax, eax
  0003e	75 0a		 jne	 SHORT $LN3@wndImageSe

; 2012 : 		return Py_BuildException();

  00040	6a 00		 push	 0
  00042	e8 00 00 00 00	 call	 ?Py_BuildException@@YAPAU_object@@PBDZZ ; Py_BuildException
  00047	59		 pop	 ecx
  00048	eb 45		 jmp	 SHORT $LN1@wndImageSe
$LN3@wndImageSe:

; 2013 : 	float fy;
; 2014 : 	if (!PyTuple_GetFloat(poArgs, 2, &fy))

  0004a	8d 45 fc	 lea	 eax, DWORD PTR _fy$[ebp]
  0004d	50		 push	 eax
  0004e	6a 02		 push	 2
  00050	ff 75 0c	 push	 DWORD PTR _poArgs$[ebp]
  00053	e8 00 00 00 00	 call	 ?PyTuple_GetFloat@@YA_NPAU_object@@HPAM@Z ; PyTuple_GetFloat
  00058	83 c4 0c	 add	 esp, 12			; 0000000cH
  0005b	0f b6 c0	 movzx	 eax, al
  0005e	85 c0		 test	 eax, eax
  00060	75 0a		 jne	 SHORT $LN4@wndImageSe

; 2015 : 		return Py_BuildException();

  00062	6a 00		 push	 0
  00064	e8 00 00 00 00	 call	 ?Py_BuildException@@YAPAU_object@@PBDZZ ; Py_BuildException
  00069	59		 pop	 ecx
  0006a	eb 23		 jmp	 SHORT $LN1@wndImageSe
$LN4@wndImageSe:

; 2016 : 
; 2017 : 	((UI::CExpandedImageBox*)pWindow)->SetScale(fx, fy);

  0006c	51		 push	 ecx
  0006d	f3 0f 10 45 fc	 movss	 xmm0, DWORD PTR _fy$[ebp]
  00072	f3 0f 11 04 24	 movss	 DWORD PTR [esp], xmm0
  00077	51		 push	 ecx
  00078	f3 0f 10 45 f8	 movss	 xmm0, DWORD PTR _fx$[ebp]
  0007d	f3 0f 11 04 24	 movss	 DWORD PTR [esp], xmm0
  00082	8b 4d f4	 mov	 ecx, DWORD PTR _pWindow$[ebp]
  00085	e8 00 00 00 00	 call	 ?SetScale@CExpandedImageBox@UI@@QAEXMM@Z ; UI::CExpandedImageBox::SetScale

; 2018 : 
; 2019 : 	return Py_BuildNone();

  0008a	e8 00 00 00 00	 call	 ?Py_BuildNone@@YAPAU_object@@XZ ; Py_BuildNone
$LN1@wndImageSe:

; 2020 : }

  0008f	c9		 leave
  00090	c3		 ret	 0
?wndImageSetScale@@YAPAU_object@@PAU1@0@Z ENDP		; wndImageSetScale
_TEXT	ENDS
; Function compile flags: /Odspy
; File D:\Metin2 Server Files\mainline\SRC_2014\Metin2Client\eterPythonLib\PythonWindowManagerModule.cpp
;	COMDAT ?wndImageGetHeight@@YAPAU_object@@PAU1@0@Z
_TEXT	SEGMENT
_pWindow$ = -4						; size = 4
_poSelf$ = 8						; size = 4
_poArgs$ = 12						; size = 4
?wndImageGetHeight@@YAPAU_object@@PAU1@0@Z PROC		; wndImageGetHeight, COMDAT

; 1997 : {

  00000	55		 push	 ebp
  00001	8b ec		 mov	 ebp, esp
  00003	51		 push	 ecx

; 1998 : 	UI::CWindow * pWindow;
; 1999 : 	if (!PyTuple_GetWindow(poArgs, 0, &pWindow))

  00004	8d 45 fc	 lea	 eax, DWORD PTR _pWindow$[ebp]
  00007	50		 push	 eax
  00008	6a 00		 push	 0
  0000a	ff 75 0c	 push	 DWORD PTR _poArgs$[ebp]
  0000d	e8 00 00 00 00	 call	 ?PyTuple_GetWindow@@YA_NPAU_object@@HPAPAVCWindow@UI@@@Z ; PyTuple_GetWindow
  00012	83 c4 0c	 add	 esp, 12			; 0000000cH
  00015	0f b6 c0	 movzx	 eax, al
  00018	85 c0		 test	 eax, eax
  0001a	75 0a		 jne	 SHORT $LN2@wndImageGe

; 2000 : 		return Py_BuildException();

  0001c	6a 00		 push	 0
  0001e	e8 00 00 00 00	 call	 ?Py_BuildException@@YAPAU_object@@PBDZZ ; Py_BuildException
  00023	59		 pop	 ecx
  00024	eb 16		 jmp	 SHORT $LN1@wndImageGe
$LN2@wndImageGe:

; 2001 : 
; 2002 : 	return Py_BuildValue("i", ((UI::CImageBox*)pWindow)->GetHeight());

  00026	8b 4d fc	 mov	 ecx, DWORD PTR _pWindow$[ebp]
  00029	e8 00 00 00 00	 call	 ?GetHeight@CImageBox@UI@@QAEHXZ ; UI::CImageBox::GetHeight
  0002e	50		 push	 eax
  0002f	68 00 00 00 00	 push	 OFFSET ??_C@_01KBJDNOO@i@
  00034	ff 15 00 00 00
	00		 call	 DWORD PTR __imp__Py_BuildValue
  0003a	59		 pop	 ecx
  0003b	59		 pop	 ecx
$LN1@wndImageGe:

; 2003 : }

  0003c	c9		 leave
  0003d	c3		 ret	 0
?wndImageGetHeight@@YAPAU_object@@PAU1@0@Z ENDP		; wndImageGetHeight
_TEXT	ENDS
; Function compile flags: /Odspy
; File D:\Metin2 Server Files\mainline\SRC_2014\Metin2Client\eterPythonLib\PythonWindowManagerModule.cpp
;	COMDAT ?wndImageGetWidth@@YAPAU_object@@PAU1@0@Z
_TEXT	SEGMENT
_pWindow$ = -4						; size = 4
_poSelf$ = 8						; size = 4
_poArgs$ = 12						; size = 4
?wndImageGetWidth@@YAPAU_object@@PAU1@0@Z PROC		; wndImageGetWidth, COMDAT

; 1988 : {

  00000	55		 push	 ebp
  00001	8b ec		 mov	 ebp, esp
  00003	51		 push	 ecx

; 1989 : 	UI::CWindow * pWindow;
; 1990 : 	if (!PyTuple_GetWindow(poArgs, 0, &pWindow))

  00004	8d 45 fc	 lea	 eax, DWORD PTR _pWindow$[ebp]
  00007	50		 push	 eax
  00008	6a 00		 push	 0
  0000a	ff 75 0c	 push	 DWORD PTR _poArgs$[ebp]
  0000d	e8 00 00 00 00	 call	 ?PyTuple_GetWindow@@YA_NPAU_object@@HPAPAVCWindow@UI@@@Z ; PyTuple_GetWindow
  00012	83 c4 0c	 add	 esp, 12			; 0000000cH
  00015	0f b6 c0	 movzx	 eax, al
  00018	85 c0		 test	 eax, eax
  0001a	75 0a		 jne	 SHORT $LN2@wndImageGe

; 1991 : 		return Py_BuildException();

  0001c	6a 00		 push	 0
  0001e	e8 00 00 00 00	 call	 ?Py_BuildException@@YAPAU_object@@PBDZZ ; Py_BuildException
  00023	59		 pop	 ecx
  00024	eb 16		 jmp	 SHORT $LN1@wndImageGe
$LN2@wndImageGe:

; 1992 : 
; 1993 : 	return Py_BuildValue("i", ((UI::CImageBox*)pWindow)->GetWidth());

  00026	8b 4d fc	 mov	 ecx, DWORD PTR _pWindow$[ebp]
  00029	e8 00 00 00 00	 call	 ?GetWidth@CImageBox@UI@@QAEHXZ ; UI::CImageBox::GetWidth
  0002e	50		 push	 eax
  0002f	68 00 00 00 00	 push	 OFFSET ??_C@_01KBJDNOO@i@
  00034	ff 15 00 00 00
	00		 call	 DWORD PTR __imp__Py_BuildValue
  0003a	59		 pop	 ecx
  0003b	59		 pop	 ecx
$LN1@wndImageGe:

; 1994 : }

  0003c	c9		 leave
  0003d	c3		 ret	 0
?wndImageGetWidth@@YAPAU_object@@PAU1@0@Z ENDP		; wndImageGetWidth
_TEXT	ENDS
; Function compile flags: /Odspy
; File D:\Metin2 Server Files\mainline\SRC_2014\Metin2Client\eterPythonLib\PythonWindowManagerModule.cpp
;	COMDAT ?wndImageSetDiffuseColor@@YAPAU_object@@PAU1@0@Z
_TEXT	SEGMENT
_pWindow$ = -20						; size = 4
_fr$ = -16						; size = 4
_fg$ = -12						; size = 4
_fb$ = -8						; size = 4
_fa$ = -4						; size = 4
_poSelf$ = 8						; size = 4
_poArgs$ = 12						; size = 4
?wndImageSetDiffuseColor@@YAPAU_object@@PAU1@0@Z PROC	; wndImageSetDiffuseColor, COMDAT

; 1965 : {

  00000	55		 push	 ebp
  00001	8b ec		 mov	 ebp, esp
  00003	83 ec 14	 sub	 esp, 20			; 00000014H

; 1966 : 	UI::CWindow * pWindow;
; 1967 : 	if (!PyTuple_GetWindow(poArgs, 0, &pWindow))

  00006	8d 45 ec	 lea	 eax, DWORD PTR _pWindow$[ebp]
  00009	50		 push	 eax
  0000a	6a 00		 push	 0
  0000c	ff 75 0c	 push	 DWORD PTR _poArgs$[ebp]
  0000f	e8 00 00 00 00	 call	 ?PyTuple_GetWindow@@YA_NPAU_object@@HPAPAVCWindow@UI@@@Z ; PyTuple_GetWindow
  00014	83 c4 0c	 add	 esp, 12			; 0000000cH
  00017	0f b6 c0	 movzx	 eax, al
  0001a	85 c0		 test	 eax, eax
  0001c	75 0d		 jne	 SHORT $LN2@wndImageSe

; 1968 : 		return Py_BuildException();

  0001e	6a 00		 push	 0
  00020	e8 00 00 00 00	 call	 ?Py_BuildException@@YAPAU_object@@PBDZZ ; Py_BuildException
  00025	59		 pop	 ecx
  00026	e9 c4 00 00 00	 jmp	 $LN1@wndImageSe
$LN2@wndImageSe:

; 1969 : 	float fr;
; 1970 : 	if (!PyTuple_GetFloat(poArgs, 1, &fr))

  0002b	8d 45 f0	 lea	 eax, DWORD PTR _fr$[ebp]
  0002e	50		 push	 eax
  0002f	6a 01		 push	 1
  00031	ff 75 0c	 push	 DWORD PTR _poArgs$[ebp]
  00034	e8 00 00 00 00	 call	 ?PyTuple_GetFloat@@YA_NPAU_object@@HPAM@Z ; PyTuple_GetFloat
  00039	83 c4 0c	 add	 esp, 12			; 0000000cH
  0003c	0f b6 c0	 movzx	 eax, al
  0003f	85 c0		 test	 eax, eax
  00041	75 0d		 jne	 SHORT $LN3@wndImageSe

; 1971 : 		return Py_BuildException();

  00043	6a 00		 push	 0
  00045	e8 00 00 00 00	 call	 ?Py_BuildException@@YAPAU_object@@PBDZZ ; Py_BuildException
  0004a	59		 pop	 ecx
  0004b	e9 9f 00 00 00	 jmp	 $LN1@wndImageSe
$LN3@wndImageSe:

; 1972 : 	float fg;
; 1973 : 	if (!PyTuple_GetFloat(poArgs, 2, &fg))

  00050	8d 45 f4	 lea	 eax, DWORD PTR _fg$[ebp]
  00053	50		 push	 eax
  00054	6a 02		 push	 2
  00056	ff 75 0c	 push	 DWORD PTR _poArgs$[ebp]
  00059	e8 00 00 00 00	 call	 ?PyTuple_GetFloat@@YA_NPAU_object@@HPAM@Z ; PyTuple_GetFloat
  0005e	83 c4 0c	 add	 esp, 12			; 0000000cH
  00061	0f b6 c0	 movzx	 eax, al
  00064	85 c0		 test	 eax, eax
  00066	75 0a		 jne	 SHORT $LN4@wndImageSe

; 1974 : 		return Py_BuildException();

  00068	6a 00		 push	 0
  0006a	e8 00 00 00 00	 call	 ?Py_BuildException@@YAPAU_object@@PBDZZ ; Py_BuildException
  0006f	59		 pop	 ecx
  00070	eb 7d		 jmp	 SHORT $LN1@wndImageSe
$LN4@wndImageSe:

; 1975 : 	float fb;
; 1976 : 	if (!PyTuple_GetFloat(poArgs, 3, &fb))

  00072	8d 45 f8	 lea	 eax, DWORD PTR _fb$[ebp]
  00075	50		 push	 eax
  00076	6a 03		 push	 3
  00078	ff 75 0c	 push	 DWORD PTR _poArgs$[ebp]
  0007b	e8 00 00 00 00	 call	 ?PyTuple_GetFloat@@YA_NPAU_object@@HPAM@Z ; PyTuple_GetFloat
  00080	83 c4 0c	 add	 esp, 12			; 0000000cH
  00083	0f b6 c0	 movzx	 eax, al
  00086	85 c0		 test	 eax, eax
  00088	75 0a		 jne	 SHORT $LN5@wndImageSe

; 1977 : 		return Py_BuildException();

  0008a	6a 00		 push	 0
  0008c	e8 00 00 00 00	 call	 ?Py_BuildException@@YAPAU_object@@PBDZZ ; Py_BuildException
  00091	59		 pop	 ecx
  00092	eb 5b		 jmp	 SHORT $LN1@wndImageSe
$LN5@wndImageSe:

; 1978 : 	float fa;
; 1979 : 	if (!PyTuple_GetFloat(poArgs, 4, &fa))

  00094	8d 45 fc	 lea	 eax, DWORD PTR _fa$[ebp]
  00097	50		 push	 eax
  00098	6a 04		 push	 4
  0009a	ff 75 0c	 push	 DWORD PTR _poArgs$[ebp]
  0009d	e8 00 00 00 00	 call	 ?PyTuple_GetFloat@@YA_NPAU_object@@HPAM@Z ; PyTuple_GetFloat
  000a2	83 c4 0c	 add	 esp, 12			; 0000000cH
  000a5	0f b6 c0	 movzx	 eax, al
  000a8	85 c0		 test	 eax, eax
  000aa	75 0a		 jne	 SHORT $LN6@wndImageSe

; 1980 : 		return Py_BuildException();

  000ac	6a 00		 push	 0
  000ae	e8 00 00 00 00	 call	 ?Py_BuildException@@YAPAU_object@@PBDZZ ; Py_BuildException
  000b3	59		 pop	 ecx
  000b4	eb 39		 jmp	 SHORT $LN1@wndImageSe
$LN6@wndImageSe:

; 1981 : 
; 1982 : 	((UI::CImageBox*)pWindow)->SetDiffuseColor(fr, fg, fb, fa);

  000b6	51		 push	 ecx
  000b7	f3 0f 10 45 fc	 movss	 xmm0, DWORD PTR _fa$[ebp]
  000bc	f3 0f 11 04 24	 movss	 DWORD PTR [esp], xmm0
  000c1	51		 push	 ecx
  000c2	f3 0f 10 45 f8	 movss	 xmm0, DWORD PTR _fb$[ebp]
  000c7	f3 0f 11 04 24	 movss	 DWORD PTR [esp], xmm0
  000cc	51		 push	 ecx
  000cd	f3 0f 10 45 f4	 movss	 xmm0, DWORD PTR _fg$[ebp]
  000d2	f3 0f 11 04 24	 movss	 DWORD PTR [esp], xmm0
  000d7	51		 push	 ecx
  000d8	f3 0f 10 45 f0	 movss	 xmm0, DWORD PTR _fr$[ebp]
  000dd	f3 0f 11 04 24	 movss	 DWORD PTR [esp], xmm0
  000e2	8b 4d ec	 mov	 ecx, DWORD PTR _pWindow$[ebp]
  000e5	e8 00 00 00 00	 call	 ?SetDiffuseColor@CImageBox@UI@@QAEXMMMM@Z ; UI::CImageBox::SetDiffuseColor

; 1983 : 
; 1984 : 	return Py_BuildNone();

  000ea	e8 00 00 00 00	 call	 ?Py_BuildNone@@YAPAU_object@@XZ ; Py_BuildNone
$LN1@wndImageSe:

; 1985 : }

  000ef	c9		 leave
  000f0	c3		 ret	 0
?wndImageSetDiffuseColor@@YAPAU_object@@PAU1@0@Z ENDP	; wndImageSetDiffuseColor
_TEXT	ENDS
; Function compile flags: /Odspy
; File D:\Metin2 Server Files\mainline\SRC_2014\Metin2Client\eterPythonLib\PythonWindowManagerModule.cpp
;	COMDAT ?wndImageLoadImage@@YAPAU_object@@PAU1@0@Z
_TEXT	SEGMENT
_pWindow$ = -8						; size = 4
_szFileName$ = -4					; size = 4
_poSelf$ = 8						; size = 4
_poArgs$ = 12						; size = 4
?wndImageLoadImage@@YAPAU_object@@PAU1@0@Z PROC		; wndImageLoadImage, COMDAT

; 1950 : {

  00000	55		 push	 ebp
  00001	8b ec		 mov	 ebp, esp
  00003	51		 push	 ecx
  00004	51		 push	 ecx

; 1951 : 	UI::CWindow * pWindow;
; 1952 : 	if (!PyTuple_GetWindow(poArgs, 0, &pWindow))

  00005	8d 45 f8	 lea	 eax, DWORD PTR _pWindow$[ebp]
  00008	50		 push	 eax
  00009	6a 00		 push	 0
  0000b	ff 75 0c	 push	 DWORD PTR _poArgs$[ebp]
  0000e	e8 00 00 00 00	 call	 ?PyTuple_GetWindow@@YA_NPAU_object@@HPAPAVCWindow@UI@@@Z ; PyTuple_GetWindow
  00013	83 c4 0c	 add	 esp, 12			; 0000000cH
  00016	0f b6 c0	 movzx	 eax, al
  00019	85 c0		 test	 eax, eax
  0001b	75 0a		 jne	 SHORT $LN2@wndImageLo

; 1953 : 		return Py_BuildException();

  0001d	6a 00		 push	 0
  0001f	e8 00 00 00 00	 call	 ?Py_BuildException@@YAPAU_object@@PBDZZ ; Py_BuildException
  00024	59		 pop	 ecx
  00025	eb 47		 jmp	 SHORT $LN1@wndImageLo
$LN2@wndImageLo:

; 1954 : 	char * szFileName;
; 1955 : 	if (!PyTuple_GetString(poArgs, 1, &szFileName))

  00027	8d 45 fc	 lea	 eax, DWORD PTR _szFileName$[ebp]
  0002a	50		 push	 eax
  0002b	6a 01		 push	 1
  0002d	ff 75 0c	 push	 DWORD PTR _poArgs$[ebp]
  00030	e8 00 00 00 00	 call	 ?PyTuple_GetString@@YA_NPAU_object@@HPAPAD@Z ; PyTuple_GetString
  00035	83 c4 0c	 add	 esp, 12			; 0000000cH
  00038	0f b6 c0	 movzx	 eax, al
  0003b	85 c0		 test	 eax, eax
  0003d	75 0a		 jne	 SHORT $LN3@wndImageLo

; 1956 : 		return Py_BuildException();

  0003f	6a 00		 push	 0
  00041	e8 00 00 00 00	 call	 ?Py_BuildException@@YAPAU_object@@PBDZZ ; Py_BuildException
  00046	59		 pop	 ecx
  00047	eb 25		 jmp	 SHORT $LN1@wndImageLo
$LN3@wndImageLo:

; 1957 : 
; 1958 : 	if (!((UI::CImageBox*)pWindow)->LoadImage(szFileName))

  00049	ff 75 fc	 push	 DWORD PTR _szFileName$[ebp]
  0004c	8b 4d f8	 mov	 ecx, DWORD PTR _pWindow$[ebp]
  0004f	e8 00 00 00 00	 call	 ?LoadImageA@CImageBox@UI@@QAEHPBD@Z ; UI::CImageBox::LoadImageA
  00054	85 c0		 test	 eax, eax
  00056	75 11		 jne	 SHORT $LN4@wndImageLo

; 1959 : 		return Py_BuildException("Failed to load image (filename: %s)", szFileName);

  00058	ff 75 fc	 push	 DWORD PTR _szFileName$[ebp]
  0005b	68 00 00 00 00	 push	 OFFSET ??_C@_0CE@HBOEBFCG@Failed?5to?5load?5image?5?$CIfilename?3@
  00060	e8 00 00 00 00	 call	 ?Py_BuildException@@YAPAU_object@@PBDZZ ; Py_BuildException
  00065	59		 pop	 ecx
  00066	59		 pop	 ecx
  00067	eb 05		 jmp	 SHORT $LN1@wndImageLo
$LN4@wndImageLo:

; 1960 : 
; 1961 : 	return Py_BuildNone();

  00069	e8 00 00 00 00	 call	 ?Py_BuildNone@@YAPAU_object@@XZ ; Py_BuildNone
$LN1@wndImageLo:

; 1962 : }

  0006e	c9		 leave
  0006f	c3		 ret	 0
?wndImageLoadImage@@YAPAU_object@@PAU1@0@Z ENDP		; wndImageLoadImage
_TEXT	ENDS
; Function compile flags: /Odspy
; File D:\Metin2 Server Files\mainline\SRC_2014\Metin2Client\eterPythonLib\PythonWindowManagerModule.cpp
;	COMDAT ?wndMarkBox_SetDiffuseColor@@YAPAU_object@@PAU1@0@Z
_TEXT	SEGMENT
_pWindow$ = -20						; size = 4
_fr$ = -16						; size = 4
_fg$ = -12						; size = 4
_fb$ = -8						; size = 4
_fa$ = -4						; size = 4
_poSelf$ = 8						; size = 4
_poArgs$ = 12						; size = 4
?wndMarkBox_SetDiffuseColor@@YAPAU_object@@PAU1@0@Z PROC ; wndMarkBox_SetDiffuseColor, COMDAT

; 1926 : {

  00000	55		 push	 ebp
  00001	8b ec		 mov	 ebp, esp
  00003	83 ec 14	 sub	 esp, 20			; 00000014H

; 1927 : 	UI::CWindow * pWindow;
; 1928 : 	if (!PyTuple_GetWindow(poArgs, 0, &pWindow))

  00006	8d 45 ec	 lea	 eax, DWORD PTR _pWindow$[ebp]
  00009	50		 push	 eax
  0000a	6a 00		 push	 0
  0000c	ff 75 0c	 push	 DWORD PTR _poArgs$[ebp]
  0000f	e8 00 00 00 00	 call	 ?PyTuple_GetWindow@@YA_NPAU_object@@HPAPAVCWindow@UI@@@Z ; PyTuple_GetWindow
  00014	83 c4 0c	 add	 esp, 12			; 0000000cH
  00017	0f b6 c0	 movzx	 eax, al
  0001a	85 c0		 test	 eax, eax
  0001c	75 0d		 jne	 SHORT $LN2@wndMarkBox

; 1929 : 		return Py_BuildException();

  0001e	6a 00		 push	 0
  00020	e8 00 00 00 00	 call	 ?Py_BuildException@@YAPAU_object@@PBDZZ ; Py_BuildException
  00025	59		 pop	 ecx
  00026	e9 c4 00 00 00	 jmp	 $LN1@wndMarkBox
$LN2@wndMarkBox:

; 1930 : 	float fr;
; 1931 : 	if (!PyTuple_GetFloat(poArgs, 1, &fr))

  0002b	8d 45 f0	 lea	 eax, DWORD PTR _fr$[ebp]
  0002e	50		 push	 eax
  0002f	6a 01		 push	 1
  00031	ff 75 0c	 push	 DWORD PTR _poArgs$[ebp]
  00034	e8 00 00 00 00	 call	 ?PyTuple_GetFloat@@YA_NPAU_object@@HPAM@Z ; PyTuple_GetFloat
  00039	83 c4 0c	 add	 esp, 12			; 0000000cH
  0003c	0f b6 c0	 movzx	 eax, al
  0003f	85 c0		 test	 eax, eax
  00041	75 0d		 jne	 SHORT $LN3@wndMarkBox

; 1932 : 		return Py_BuildException();

  00043	6a 00		 push	 0
  00045	e8 00 00 00 00	 call	 ?Py_BuildException@@YAPAU_object@@PBDZZ ; Py_BuildException
  0004a	59		 pop	 ecx
  0004b	e9 9f 00 00 00	 jmp	 $LN1@wndMarkBox
$LN3@wndMarkBox:

; 1933 : 	float fg;
; 1934 : 	if (!PyTuple_GetFloat(poArgs, 2, &fg))

  00050	8d 45 f4	 lea	 eax, DWORD PTR _fg$[ebp]
  00053	50		 push	 eax
  00054	6a 02		 push	 2
  00056	ff 75 0c	 push	 DWORD PTR _poArgs$[ebp]
  00059	e8 00 00 00 00	 call	 ?PyTuple_GetFloat@@YA_NPAU_object@@HPAM@Z ; PyTuple_GetFloat
  0005e	83 c4 0c	 add	 esp, 12			; 0000000cH
  00061	0f b6 c0	 movzx	 eax, al
  00064	85 c0		 test	 eax, eax
  00066	75 0a		 jne	 SHORT $LN4@wndMarkBox

; 1935 : 		return Py_BuildException();

  00068	6a 00		 push	 0
  0006a	e8 00 00 00 00	 call	 ?Py_BuildException@@YAPAU_object@@PBDZZ ; Py_BuildException
  0006f	59		 pop	 ecx
  00070	eb 7d		 jmp	 SHORT $LN1@wndMarkBox
$LN4@wndMarkBox:

; 1936 : 	float fb;
; 1937 : 	if (!PyTuple_GetFloat(poArgs, 3, &fb))

  00072	8d 45 f8	 lea	 eax, DWORD PTR _fb$[ebp]
  00075	50		 push	 eax
  00076	6a 03		 push	 3
  00078	ff 75 0c	 push	 DWORD PTR _poArgs$[ebp]
  0007b	e8 00 00 00 00	 call	 ?PyTuple_GetFloat@@YA_NPAU_object@@HPAM@Z ; PyTuple_GetFloat
  00080	83 c4 0c	 add	 esp, 12			; 0000000cH
  00083	0f b6 c0	 movzx	 eax, al
  00086	85 c0		 test	 eax, eax
  00088	75 0a		 jne	 SHORT $LN5@wndMarkBox

; 1938 : 		return Py_BuildException();

  0008a	6a 00		 push	 0
  0008c	e8 00 00 00 00	 call	 ?Py_BuildException@@YAPAU_object@@PBDZZ ; Py_BuildException
  00091	59		 pop	 ecx
  00092	eb 5b		 jmp	 SHORT $LN1@wndMarkBox
$LN5@wndMarkBox:

; 1939 : 	float fa;
; 1940 : 	if (!PyTuple_GetFloat(poArgs, 4, &fa))

  00094	8d 45 fc	 lea	 eax, DWORD PTR _fa$[ebp]
  00097	50		 push	 eax
  00098	6a 04		 push	 4
  0009a	ff 75 0c	 push	 DWORD PTR _poArgs$[ebp]
  0009d	e8 00 00 00 00	 call	 ?PyTuple_GetFloat@@YA_NPAU_object@@HPAM@Z ; PyTuple_GetFloat
  000a2	83 c4 0c	 add	 esp, 12			; 0000000cH
  000a5	0f b6 c0	 movzx	 eax, al
  000a8	85 c0		 test	 eax, eax
  000aa	75 0a		 jne	 SHORT $LN6@wndMarkBox

; 1941 : 		return Py_BuildException();

  000ac	6a 00		 push	 0
  000ae	e8 00 00 00 00	 call	 ?Py_BuildException@@YAPAU_object@@PBDZZ ; Py_BuildException
  000b3	59		 pop	 ecx
  000b4	eb 39		 jmp	 SHORT $LN1@wndMarkBox
$LN6@wndMarkBox:

; 1942 : 
; 1943 : 	((UI::CMarkBox*)pWindow)->SetDiffuseColor(fr, fg, fb, fa);

  000b6	51		 push	 ecx
  000b7	f3 0f 10 45 fc	 movss	 xmm0, DWORD PTR _fa$[ebp]
  000bc	f3 0f 11 04 24	 movss	 DWORD PTR [esp], xmm0
  000c1	51		 push	 ecx
  000c2	f3 0f 10 45 f8	 movss	 xmm0, DWORD PTR _fb$[ebp]
  000c7	f3 0f 11 04 24	 movss	 DWORD PTR [esp], xmm0
  000cc	51		 push	 ecx
  000cd	f3 0f 10 45 f4	 movss	 xmm0, DWORD PTR _fg$[ebp]
  000d2	f3 0f 11 04 24	 movss	 DWORD PTR [esp], xmm0
  000d7	51		 push	 ecx
  000d8	f3 0f 10 45 f0	 movss	 xmm0, DWORD PTR _fr$[ebp]
  000dd	f3 0f 11 04 24	 movss	 DWORD PTR [esp], xmm0
  000e2	8b 4d ec	 mov	 ecx, DWORD PTR _pWindow$[ebp]
  000e5	e8 00 00 00 00	 call	 ?SetDiffuseColor@CMarkBox@UI@@QAEXMMMM@Z ; UI::CMarkBox::SetDiffuseColor

; 1944 : 
; 1945 : 	return Py_BuildNone();

  000ea	e8 00 00 00 00	 call	 ?Py_BuildNone@@YAPAU_object@@XZ ; Py_BuildNone
$LN1@wndMarkBox:

; 1946 : }

  000ef	c9		 leave
  000f0	c3		 ret	 0
?wndMarkBox_SetDiffuseColor@@YAPAU_object@@PAU1@0@Z ENDP ; wndMarkBox_SetDiffuseColor
_TEXT	ENDS
; Function compile flags: /Odspy
; File D:\Metin2 Server Files\mainline\SRC_2014\Metin2Client\eterPythonLib\PythonWindowManagerModule.cpp
;	COMDAT ?wndMarkBox_SetScale@@YAPAU_object@@PAU1@0@Z
_TEXT	SEGMENT
_pWindow$ = -8						; size = 4
_fScale$ = -4						; size = 4
_poSelf$ = 8						; size = 4
_poArgs$ = 12						; size = 4
?wndMarkBox_SetScale@@YAPAU_object@@PAU1@0@Z PROC	; wndMarkBox_SetScale, COMDAT

; 1911 : {

  00000	55		 push	 ebp
  00001	8b ec		 mov	 ebp, esp
  00003	51		 push	 ecx
  00004	51		 push	 ecx

; 1912 : 	UI::CWindow * pWindow;
; 1913 : 	if (!PyTuple_GetWindow(poArgs, 0, &pWindow))

  00005	8d 45 f8	 lea	 eax, DWORD PTR _pWindow$[ebp]
  00008	50		 push	 eax
  00009	6a 00		 push	 0
  0000b	ff 75 0c	 push	 DWORD PTR _poArgs$[ebp]
  0000e	e8 00 00 00 00	 call	 ?PyTuple_GetWindow@@YA_NPAU_object@@HPAPAVCWindow@UI@@@Z ; PyTuple_GetWindow
  00013	83 c4 0c	 add	 esp, 12			; 0000000cH
  00016	0f b6 c0	 movzx	 eax, al
  00019	85 c0		 test	 eax, eax
  0001b	75 0a		 jne	 SHORT $LN2@wndMarkBox

; 1914 : 		return Py_BuildException();

  0001d	6a 00		 push	 0
  0001f	e8 00 00 00 00	 call	 ?Py_BuildException@@YAPAU_object@@PBDZZ ; Py_BuildException
  00024	59		 pop	 ecx
  00025	eb 3a		 jmp	 SHORT $LN1@wndMarkBox
$LN2@wndMarkBox:

; 1915 : 
; 1916 : 	float fScale;
; 1917 : 	if (!PyTuple_GetFloat(poArgs, 1, &fScale))

  00027	8d 45 fc	 lea	 eax, DWORD PTR _fScale$[ebp]
  0002a	50		 push	 eax
  0002b	6a 01		 push	 1
  0002d	ff 75 0c	 push	 DWORD PTR _poArgs$[ebp]
  00030	e8 00 00 00 00	 call	 ?PyTuple_GetFloat@@YA_NPAU_object@@HPAM@Z ; PyTuple_GetFloat
  00035	83 c4 0c	 add	 esp, 12			; 0000000cH
  00038	0f b6 c0	 movzx	 eax, al
  0003b	85 c0		 test	 eax, eax
  0003d	75 0a		 jne	 SHORT $LN3@wndMarkBox

; 1918 : 		return Py_BuildException();

  0003f	6a 00		 push	 0
  00041	e8 00 00 00 00	 call	 ?Py_BuildException@@YAPAU_object@@PBDZZ ; Py_BuildException
  00046	59		 pop	 ecx
  00047	eb 18		 jmp	 SHORT $LN1@wndMarkBox
$LN3@wndMarkBox:

; 1919 : 
; 1920 : 	((UI::CMarkBox*)pWindow)->SetScale(fScale);

  00049	51		 push	 ecx
  0004a	f3 0f 10 45 fc	 movss	 xmm0, DWORD PTR _fScale$[ebp]
  0004f	f3 0f 11 04 24	 movss	 DWORD PTR [esp], xmm0
  00054	8b 4d f8	 mov	 ecx, DWORD PTR _pWindow$[ebp]
  00057	e8 00 00 00 00	 call	 ?SetScale@CMarkBox@UI@@QAEXM@Z ; UI::CMarkBox::SetScale

; 1921 : 	return Py_BuildNone();

  0005c	e8 00 00 00 00	 call	 ?Py_BuildNone@@YAPAU_object@@XZ ; Py_BuildNone
$LN1@wndMarkBox:

; 1922 : }

  00061	c9		 leave
  00062	c3		 ret	 0
?wndMarkBox_SetScale@@YAPAU_object@@PAU1@0@Z ENDP	; wndMarkBox_SetScale
_TEXT	ENDS
; Function compile flags: /Odspy
; File D:\Metin2 Server Files\mainline\SRC_2014\Metin2Client\eterPythonLib\PythonWindowManagerModule.cpp
;	COMDAT ?wndMarkBox_SetIndex@@YAPAU_object@@PAU1@0@Z
_TEXT	SEGMENT
_pWindow$ = -8						; size = 4
_nIndex$ = -4						; size = 4
_poSelf$ = 8						; size = 4
_poArgs$ = 12						; size = 4
?wndMarkBox_SetIndex@@YAPAU_object@@PAU1@0@Z PROC	; wndMarkBox_SetIndex, COMDAT

; 1897 : {

  00000	55		 push	 ebp
  00001	8b ec		 mov	 ebp, esp
  00003	51		 push	 ecx
  00004	51		 push	 ecx

; 1898 : 	UI::CWindow * pWindow;
; 1899 : 	if (!PyTuple_GetWindow(poArgs, 0, &pWindow))

  00005	8d 45 f8	 lea	 eax, DWORD PTR _pWindow$[ebp]
  00008	50		 push	 eax
  00009	6a 00		 push	 0
  0000b	ff 75 0c	 push	 DWORD PTR _poArgs$[ebp]
  0000e	e8 00 00 00 00	 call	 ?PyTuple_GetWindow@@YA_NPAU_object@@HPAPAVCWindow@UI@@@Z ; PyTuple_GetWindow
  00013	83 c4 0c	 add	 esp, 12			; 0000000cH
  00016	0f b6 c0	 movzx	 eax, al
  00019	85 c0		 test	 eax, eax
  0001b	75 0a		 jne	 SHORT $LN2@wndMarkBox

; 1900 : 		return Py_BuildException();

  0001d	6a 00		 push	 0
  0001f	e8 00 00 00 00	 call	 ?Py_BuildException@@YAPAU_object@@PBDZZ ; Py_BuildException
  00024	59		 pop	 ecx
  00025	eb 32		 jmp	 SHORT $LN1@wndMarkBox
$LN2@wndMarkBox:

; 1901 : 
; 1902 : 	int nIndex;
; 1903 : 	if (!PyTuple_GetInteger(poArgs, 1, &nIndex))

  00027	8d 45 fc	 lea	 eax, DWORD PTR _nIndex$[ebp]
  0002a	50		 push	 eax
  0002b	6a 01		 push	 1
  0002d	ff 75 0c	 push	 DWORD PTR _poArgs$[ebp]
  00030	e8 00 00 00 00	 call	 ?PyTuple_GetInteger@@YA_NPAU_object@@HPAH@Z ; PyTuple_GetInteger
  00035	83 c4 0c	 add	 esp, 12			; 0000000cH
  00038	0f b6 c0	 movzx	 eax, al
  0003b	85 c0		 test	 eax, eax
  0003d	75 0a		 jne	 SHORT $LN3@wndMarkBox

; 1904 : 		return Py_BuildException();

  0003f	6a 00		 push	 0
  00041	e8 00 00 00 00	 call	 ?Py_BuildException@@YAPAU_object@@PBDZZ ; Py_BuildException
  00046	59		 pop	 ecx
  00047	eb 10		 jmp	 SHORT $LN1@wndMarkBox
$LN3@wndMarkBox:

; 1905 : 
; 1906 : 	((UI::CMarkBox*)pWindow)->SetIndex(nIndex);

  00049	ff 75 fc	 push	 DWORD PTR _nIndex$[ebp]
  0004c	8b 4d f8	 mov	 ecx, DWORD PTR _pWindow$[ebp]
  0004f	e8 00 00 00 00	 call	 ?SetIndex@CMarkBox@UI@@QAEXI@Z ; UI::CMarkBox::SetIndex

; 1907 : 	return Py_BuildNone();

  00054	e8 00 00 00 00	 call	 ?Py_BuildNone@@YAPAU_object@@XZ ; Py_BuildNone
$LN1@wndMarkBox:

; 1908 : }

  00059	c9		 leave
  0005a	c3		 ret	 0
?wndMarkBox_SetIndex@@YAPAU_object@@PAU1@0@Z ENDP	; wndMarkBox_SetIndex
_TEXT	ENDS
; Function compile flags: /Odspy
; File D:\Metin2 Server Files\mainline\SRC_2014\Metin2Client\eterPythonLib\PythonWindowManagerModule.cpp
;	COMDAT ?wndMarkBox_Load@@YAPAU_object@@PAU1@0@Z
_TEXT	SEGMENT
_poSelf$ = 8						; size = 4
_poArgs$ = 12						; size = 4
?wndMarkBox_Load@@YAPAU_object@@PAU1@0@Z PROC		; wndMarkBox_Load, COMDAT

; 1891 : {

  00000	55		 push	 ebp
  00001	8b ec		 mov	 ebp, esp

; 1892 : 	//   
; 1893 : 	return Py_BuildNone();

  00003	e8 00 00 00 00	 call	 ?Py_BuildNone@@YAPAU_object@@XZ ; Py_BuildNone

; 1894 : }

  00008	5d		 pop	 ebp
  00009	c3		 ret	 0
?wndMarkBox_Load@@YAPAU_object@@PAU1@0@Z ENDP		; wndMarkBox_Load
_TEXT	ENDS
; Function compile flags: /Odspy
; File D:\Metin2 Server Files\mainline\SRC_2014\Metin2Client\eterPythonLib\PythonWindowManagerModule.cpp
;	COMDAT ?wndMarkBox_SetImage@@YAPAU_object@@PAU1@0@Z
_TEXT	SEGMENT
_poSelf$ = 8						; size = 4
_poArgs$ = 12						; size = 4
?wndMarkBox_SetImage@@YAPAU_object@@PAU1@0@Z PROC	; wndMarkBox_SetImage, COMDAT

; 1885 : {

  00000	55		 push	 ebp
  00001	8b ec		 mov	 ebp, esp

; 1886 : 	//   
; 1887 : 	return Py_BuildNone();

  00003	e8 00 00 00 00	 call	 ?Py_BuildNone@@YAPAU_object@@XZ ; Py_BuildNone

; 1888 : }

  00008	5d		 pop	 ebp
  00009	c3		 ret	 0
?wndMarkBox_SetImage@@YAPAU_object@@PAU1@0@Z ENDP	; wndMarkBox_SetImage
_TEXT	ENDS
; Function compile flags: /Odspy
; File D:\Metin2 Server Files\mainline\SRC_2014\Metin2Client\eterPythonLib\PythonWindowManagerModule.cpp
;	COMDAT ?wndMarkBox_SetImageFilename@@YAPAU_object@@PAU1@0@Z
_TEXT	SEGMENT
_pWindow$ = -8						; size = 4
_szFileName$ = -4					; size = 4
_poSelf$ = 8						; size = 4
_poArgs$ = 12						; size = 4
?wndMarkBox_SetImageFilename@@YAPAU_object@@PAU1@0@Z PROC ; wndMarkBox_SetImageFilename, COMDAT

; 1872 : {

  00000	55		 push	 ebp
  00001	8b ec		 mov	 ebp, esp
  00003	51		 push	 ecx
  00004	51		 push	 ecx

; 1873 : 	UI::CWindow * pWindow;
; 1874 : 	if (!PyTuple_GetWindow(poArgs, 0, &pWindow))

  00005	8d 45 f8	 lea	 eax, DWORD PTR _pWindow$[ebp]
  00008	50		 push	 eax
  00009	6a 00		 push	 0
  0000b	ff 75 0c	 push	 DWORD PTR _poArgs$[ebp]
  0000e	e8 00 00 00 00	 call	 ?PyTuple_GetWindow@@YA_NPAU_object@@HPAPAVCWindow@UI@@@Z ; PyTuple_GetWindow
  00013	83 c4 0c	 add	 esp, 12			; 0000000cH
  00016	0f b6 c0	 movzx	 eax, al
  00019	85 c0		 test	 eax, eax
  0001b	75 0a		 jne	 SHORT $LN2@wndMarkBox

; 1875 : 		return Py_BuildException();

  0001d	6a 00		 push	 0
  0001f	e8 00 00 00 00	 call	 ?Py_BuildException@@YAPAU_object@@PBDZZ ; Py_BuildException
  00024	59		 pop	 ecx
  00025	eb 32		 jmp	 SHORT $LN1@wndMarkBox
$LN2@wndMarkBox:

; 1876 : 	char * szFileName;
; 1877 : 	if (!PyTuple_GetString(poArgs, 1, &szFileName))

  00027	8d 45 fc	 lea	 eax, DWORD PTR _szFileName$[ebp]
  0002a	50		 push	 eax
  0002b	6a 01		 push	 1
  0002d	ff 75 0c	 push	 DWORD PTR _poArgs$[ebp]
  00030	e8 00 00 00 00	 call	 ?PyTuple_GetString@@YA_NPAU_object@@HPAPAD@Z ; PyTuple_GetString
  00035	83 c4 0c	 add	 esp, 12			; 0000000cH
  00038	0f b6 c0	 movzx	 eax, al
  0003b	85 c0		 test	 eax, eax
  0003d	75 0a		 jne	 SHORT $LN3@wndMarkBox

; 1878 : 		return Py_BuildException();

  0003f	6a 00		 push	 0
  00041	e8 00 00 00 00	 call	 ?Py_BuildException@@YAPAU_object@@PBDZZ ; Py_BuildException
  00046	59		 pop	 ecx
  00047	eb 10		 jmp	 SHORT $LN1@wndMarkBox
$LN3@wndMarkBox:

; 1879 : 
; 1880 : 	((UI::CMarkBox*)pWindow)->LoadImage(szFileName);

  00049	ff 75 fc	 push	 DWORD PTR _szFileName$[ebp]
  0004c	8b 4d f8	 mov	 ecx, DWORD PTR _pWindow$[ebp]
  0004f	e8 00 00 00 00	 call	 ?LoadImageA@CMarkBox@UI@@QAEXPBD@Z ; UI::CMarkBox::LoadImageA

; 1881 : 	return Py_BuildNone();

  00054	e8 00 00 00 00	 call	 ?Py_BuildNone@@YAPAU_object@@XZ ; Py_BuildNone
$LN1@wndMarkBox:

; 1882 : }

  00059	c9		 leave
  0005a	c3		 ret	 0
?wndMarkBox_SetImageFilename@@YAPAU_object@@PAU1@0@Z ENDP ; wndMarkBox_SetImageFilename
_TEXT	ENDS
; Function compile flags: /Odspy
; File D:\Metin2 Server Files\mainline\SRC_2014\Metin2Client\eterPythonLib\PythonWindowManagerModule.cpp
;	COMDAT ?wndNumberSetPath@@YAPAU_object@@PAU1@0@Z
_TEXT	SEGMENT
_pWindow$ = -8						; size = 4
_szPath$ = -4						; size = 4
_poSelf$ = 8						; size = 4
_poArgs$ = 12						; size = 4
?wndNumberSetPath@@YAPAU_object@@PAU1@0@Z PROC		; wndNumberSetPath, COMDAT

; 1858 : {

  00000	55		 push	 ebp
  00001	8b ec		 mov	 ebp, esp
  00003	51		 push	 ecx
  00004	51		 push	 ecx

; 1859 : 	UI::CWindow * pWindow;
; 1860 : 	if (!PyTuple_GetWindow(poArgs, 0, &pWindow))

  00005	8d 45 f8	 lea	 eax, DWORD PTR _pWindow$[ebp]
  00008	50		 push	 eax
  00009	6a 00		 push	 0
  0000b	ff 75 0c	 push	 DWORD PTR _poArgs$[ebp]
  0000e	e8 00 00 00 00	 call	 ?PyTuple_GetWindow@@YA_NPAU_object@@HPAPAVCWindow@UI@@@Z ; PyTuple_GetWindow
  00013	83 c4 0c	 add	 esp, 12			; 0000000cH
  00016	0f b6 c0	 movzx	 eax, al
  00019	85 c0		 test	 eax, eax
  0001b	75 0a		 jne	 SHORT $LN2@wndNumberS

; 1861 : 		return Py_BuildException();

  0001d	6a 00		 push	 0
  0001f	e8 00 00 00 00	 call	 ?Py_BuildException@@YAPAU_object@@PBDZZ ; Py_BuildException
  00024	59		 pop	 ecx
  00025	eb 32		 jmp	 SHORT $LN1@wndNumberS
$LN2@wndNumberS:

; 1862 : 	char * szPath;
; 1863 : 	if (!PyTuple_GetString(poArgs, 1, &szPath))

  00027	8d 45 fc	 lea	 eax, DWORD PTR _szPath$[ebp]
  0002a	50		 push	 eax
  0002b	6a 01		 push	 1
  0002d	ff 75 0c	 push	 DWORD PTR _poArgs$[ebp]
  00030	e8 00 00 00 00	 call	 ?PyTuple_GetString@@YA_NPAU_object@@HPAPAD@Z ; PyTuple_GetString
  00035	83 c4 0c	 add	 esp, 12			; 0000000cH
  00038	0f b6 c0	 movzx	 eax, al
  0003b	85 c0		 test	 eax, eax
  0003d	75 0a		 jne	 SHORT $LN3@wndNumberS

; 1864 : 		return Py_BuildException();

  0003f	6a 00		 push	 0
  00041	e8 00 00 00 00	 call	 ?Py_BuildException@@YAPAU_object@@PBDZZ ; Py_BuildException
  00046	59		 pop	 ecx
  00047	eb 10		 jmp	 SHORT $LN1@wndNumberS
$LN3@wndNumberS:

; 1865 : 
; 1866 : 	((UI::CNumberLine*)pWindow)->SetPath(szPath);

  00049	ff 75 fc	 push	 DWORD PTR _szPath$[ebp]
  0004c	8b 4d f8	 mov	 ecx, DWORD PTR _pWindow$[ebp]
  0004f	e8 00 00 00 00	 call	 ?SetPath@CNumberLine@UI@@QAEXPBD@Z ; UI::CNumberLine::SetPath

; 1867 : 
; 1868 : 	return Py_BuildNone();

  00054	e8 00 00 00 00	 call	 ?Py_BuildNone@@YAPAU_object@@XZ ; Py_BuildNone
$LN1@wndNumberS:

; 1869 : }

  00059	c9		 leave
  0005a	c3		 ret	 0
?wndNumberSetPath@@YAPAU_object@@PAU1@0@Z ENDP		; wndNumberSetPath
_TEXT	ENDS
; Function compile flags: /Odspy
; File D:\Metin2 Server Files\mainline\SRC_2014\Metin2Client\eterPythonLib\PythonWindowManagerModule.cpp
;	COMDAT ?wndNumberSetNumberHorizontalAlignRight@@YAPAU_object@@PAU1@0@Z
_TEXT	SEGMENT
_pWindow$ = -4						; size = 4
_poSelf$ = 8						; size = 4
_poArgs$ = 12						; size = 4
?wndNumberSetNumberHorizontalAlignRight@@YAPAU_object@@PAU1@0@Z PROC ; wndNumberSetNumberHorizontalAlignRight, COMDAT

; 1847 : {

  00000	55		 push	 ebp
  00001	8b ec		 mov	 ebp, esp
  00003	51		 push	 ecx

; 1848 : 	UI::CWindow * pWindow;
; 1849 : 	if (!PyTuple_GetWindow(poArgs, 0, &pWindow))

  00004	8d 45 fc	 lea	 eax, DWORD PTR _pWindow$[ebp]
  00007	50		 push	 eax
  00008	6a 00		 push	 0
  0000a	ff 75 0c	 push	 DWORD PTR _poArgs$[ebp]
  0000d	e8 00 00 00 00	 call	 ?PyTuple_GetWindow@@YA_NPAU_object@@HPAPAVCWindow@UI@@@Z ; PyTuple_GetWindow
  00012	83 c4 0c	 add	 esp, 12			; 0000000cH
  00015	0f b6 c0	 movzx	 eax, al
  00018	85 c0		 test	 eax, eax
  0001a	75 0a		 jne	 SHORT $LN2@wndNumberS

; 1850 : 		return Py_BuildException();

  0001c	6a 00		 push	 0
  0001e	e8 00 00 00 00	 call	 ?Py_BuildException@@YAPAU_object@@PBDZZ ; Py_BuildException
  00023	59		 pop	 ecx
  00024	eb 0f		 jmp	 SHORT $LN1@wndNumberS
$LN2@wndNumberS:

; 1851 : 
; 1852 : 	((UI::CNumberLine*)pWindow)->SetHorizontalAlign(UI::CWindow::HORIZONTAL_ALIGN_RIGHT);

  00026	6a 02		 push	 2
  00028	8b 4d fc	 mov	 ecx, DWORD PTR _pWindow$[ebp]
  0002b	e8 00 00 00 00	 call	 ?SetHorizontalAlign@CNumberLine@UI@@QAEXH@Z ; UI::CNumberLine::SetHorizontalAlign

; 1853 : 
; 1854 : 	return Py_BuildNone();

  00030	e8 00 00 00 00	 call	 ?Py_BuildNone@@YAPAU_object@@XZ ; Py_BuildNone
$LN1@wndNumberS:

; 1855 : }

  00035	c9		 leave
  00036	c3		 ret	 0
?wndNumberSetNumberHorizontalAlignRight@@YAPAU_object@@PAU1@0@Z ENDP ; wndNumberSetNumberHorizontalAlignRight
_TEXT	ENDS
; Function compile flags: /Odspy
; File D:\Metin2 Server Files\mainline\SRC_2014\Metin2Client\eterPythonLib\PythonWindowManagerModule.cpp
;	COMDAT ?wndNumberSetNumberHorizontalAlignCenter@@YAPAU_object@@PAU1@0@Z
_TEXT	SEGMENT
_pWindow$ = -4						; size = 4
_poSelf$ = 8						; size = 4
_poArgs$ = 12						; size = 4
?wndNumberSetNumberHorizontalAlignCenter@@YAPAU_object@@PAU1@0@Z PROC ; wndNumberSetNumberHorizontalAlignCenter, COMDAT

; 1836 : {

  00000	55		 push	 ebp
  00001	8b ec		 mov	 ebp, esp
  00003	51		 push	 ecx

; 1837 : 	UI::CWindow * pWindow;
; 1838 : 	if (!PyTuple_GetWindow(poArgs, 0, &pWindow))

  00004	8d 45 fc	 lea	 eax, DWORD PTR _pWindow$[ebp]
  00007	50		 push	 eax
  00008	6a 00		 push	 0
  0000a	ff 75 0c	 push	 DWORD PTR _poArgs$[ebp]
  0000d	e8 00 00 00 00	 call	 ?PyTuple_GetWindow@@YA_NPAU_object@@HPAPAVCWindow@UI@@@Z ; PyTuple_GetWindow
  00012	83 c4 0c	 add	 esp, 12			; 0000000cH
  00015	0f b6 c0	 movzx	 eax, al
  00018	85 c0		 test	 eax, eax
  0001a	75 0a		 jne	 SHORT $LN2@wndNumberS

; 1839 : 		return Py_BuildException();

  0001c	6a 00		 push	 0
  0001e	e8 00 00 00 00	 call	 ?Py_BuildException@@YAPAU_object@@PBDZZ ; Py_BuildException
  00023	59		 pop	 ecx
  00024	eb 0f		 jmp	 SHORT $LN1@wndNumberS
$LN2@wndNumberS:

; 1840 : 
; 1841 : 	((UI::CNumberLine*)pWindow)->SetHorizontalAlign(UI::CWindow::HORIZONTAL_ALIGN_CENTER);

  00026	6a 01		 push	 1
  00028	8b 4d fc	 mov	 ecx, DWORD PTR _pWindow$[ebp]
  0002b	e8 00 00 00 00	 call	 ?SetHorizontalAlign@CNumberLine@UI@@QAEXH@Z ; UI::CNumberLine::SetHorizontalAlign

; 1842 : 
; 1843 : 	return Py_BuildNone();

  00030	e8 00 00 00 00	 call	 ?Py_BuildNone@@YAPAU_object@@XZ ; Py_BuildNone
$LN1@wndNumberS:

; 1844 : }

  00035	c9		 leave
  00036	c3		 ret	 0
?wndNumberSetNumberHorizontalAlignCenter@@YAPAU_object@@PAU1@0@Z ENDP ; wndNumberSetNumberHorizontalAlignCenter
_TEXT	ENDS
; Function compile flags: /Odspy
; File D:\Metin2 Server Files\mainline\SRC_2014\Metin2Client\eterPythonLib\PythonWindowManagerModule.cpp
;	COMDAT ?wndNumberSetNumber@@YAPAU_object@@PAU1@0@Z
_TEXT	SEGMENT
_pWindow$ = -8						; size = 4
_szNumber$ = -4						; size = 4
_poSelf$ = 8						; size = 4
_poArgs$ = 12						; size = 4
?wndNumberSetNumber@@YAPAU_object@@PAU1@0@Z PROC	; wndNumberSetNumber, COMDAT

; 1822 : {

  00000	55		 push	 ebp
  00001	8b ec		 mov	 ebp, esp
  00003	51		 push	 ecx
  00004	51		 push	 ecx

; 1823 : 	UI::CWindow * pWindow;
; 1824 : 	if (!PyTuple_GetWindow(poArgs, 0, &pWindow))

  00005	8d 45 f8	 lea	 eax, DWORD PTR _pWindow$[ebp]
  00008	50		 push	 eax
  00009	6a 00		 push	 0
  0000b	ff 75 0c	 push	 DWORD PTR _poArgs$[ebp]
  0000e	e8 00 00 00 00	 call	 ?PyTuple_GetWindow@@YA_NPAU_object@@HPAPAVCWindow@UI@@@Z ; PyTuple_GetWindow
  00013	83 c4 0c	 add	 esp, 12			; 0000000cH
  00016	0f b6 c0	 movzx	 eax, al
  00019	85 c0		 test	 eax, eax
  0001b	75 0a		 jne	 SHORT $LN2@wndNumberS

; 1825 : 		return Py_BuildException();

  0001d	6a 00		 push	 0
  0001f	e8 00 00 00 00	 call	 ?Py_BuildException@@YAPAU_object@@PBDZZ ; Py_BuildException
  00024	59		 pop	 ecx
  00025	eb 32		 jmp	 SHORT $LN1@wndNumberS
$LN2@wndNumberS:

; 1826 : 	char * szNumber;
; 1827 : 	if (!PyTuple_GetString(poArgs, 1, &szNumber))

  00027	8d 45 fc	 lea	 eax, DWORD PTR _szNumber$[ebp]
  0002a	50		 push	 eax
  0002b	6a 01		 push	 1
  0002d	ff 75 0c	 push	 DWORD PTR _poArgs$[ebp]
  00030	e8 00 00 00 00	 call	 ?PyTuple_GetString@@YA_NPAU_object@@HPAPAD@Z ; PyTuple_GetString
  00035	83 c4 0c	 add	 esp, 12			; 0000000cH
  00038	0f b6 c0	 movzx	 eax, al
  0003b	85 c0		 test	 eax, eax
  0003d	75 0a		 jne	 SHORT $LN3@wndNumberS

; 1828 : 		return Py_BuildException();

  0003f	6a 00		 push	 0
  00041	e8 00 00 00 00	 call	 ?Py_BuildException@@YAPAU_object@@PBDZZ ; Py_BuildException
  00046	59		 pop	 ecx
  00047	eb 10		 jmp	 SHORT $LN1@wndNumberS
$LN3@wndNumberS:

; 1829 : 
; 1830 : 	((UI::CNumberLine*)pWindow)->SetNumber(szNumber);

  00049	ff 75 fc	 push	 DWORD PTR _szNumber$[ebp]
  0004c	8b 4d f8	 mov	 ecx, DWORD PTR _pWindow$[ebp]
  0004f	e8 00 00 00 00	 call	 ?SetNumber@CNumberLine@UI@@QAEXPBD@Z ; UI::CNumberLine::SetNumber

; 1831 : 
; 1832 : 	return Py_BuildNone();

  00054	e8 00 00 00 00	 call	 ?Py_BuildNone@@YAPAU_object@@XZ ; Py_BuildNone
$LN1@wndNumberS:

; 1833 : }

  00059	c9		 leave
  0005a	c3		 ret	 0
?wndNumberSetNumber@@YAPAU_object@@PAU1@0@Z ENDP	; wndNumberSetNumber
_TEXT	ENDS
; Function compile flags: /Odspy
; File D:\Metin2 Server Files\mainline\SRC_2014\Metin2Client\eterPythonLib\PythonWindowManagerModule.cpp
;	COMDAT ?wndTextGetCursorPosition@@YAPAU_object@@PAU1@0@Z
_TEXT	SEGMENT
_pWindow$ = -4						; size = 4
_poSelf$ = 8						; size = 4
_poArgs$ = 12						; size = 4
?wndTextGetCursorPosition@@YAPAU_object@@PAU1@0@Z PROC	; wndTextGetCursorPosition, COMDAT

; 1813 : {

  00000	55		 push	 ebp
  00001	8b ec		 mov	 ebp, esp
  00003	51		 push	 ecx

; 1814 : 	UI::CWindow * pWindow;
; 1815 : 	if (!PyTuple_GetWindow(poArgs, 0, &pWindow))

  00004	8d 45 fc	 lea	 eax, DWORD PTR _pWindow$[ebp]
  00007	50		 push	 eax
  00008	6a 00		 push	 0
  0000a	ff 75 0c	 push	 DWORD PTR _poArgs$[ebp]
  0000d	e8 00 00 00 00	 call	 ?PyTuple_GetWindow@@YA_NPAU_object@@HPAPAVCWindow@UI@@@Z ; PyTuple_GetWindow
  00012	83 c4 0c	 add	 esp, 12			; 0000000cH
  00015	0f b6 c0	 movzx	 eax, al
  00018	85 c0		 test	 eax, eax
  0001a	75 0a		 jne	 SHORT $LN2@wndTextGet

; 1816 : 		return Py_BuildException();

  0001c	6a 00		 push	 0
  0001e	e8 00 00 00 00	 call	 ?Py_BuildException@@YAPAU_object@@PBDZZ ; Py_BuildException
  00023	59		 pop	 ecx
  00024	eb 16		 jmp	 SHORT $LN1@wndTextGet
$LN2@wndTextGet:

; 1817 : 
; 1818 : 	return Py_BuildValue("i", ((UI::CTextLine*)pWindow)->GetCursorPosition());

  00026	8b 4d fc	 mov	 ecx, DWORD PTR _pWindow$[ebp]
  00029	e8 00 00 00 00	 call	 ?GetCursorPosition@CTextLine@UI@@QAEHXZ ; UI::CTextLine::GetCursorPosition
  0002e	50		 push	 eax
  0002f	68 00 00 00 00	 push	 OFFSET ??_C@_01KBJDNOO@i@
  00034	ff 15 00 00 00
	00		 call	 DWORD PTR __imp__Py_BuildValue
  0003a	59		 pop	 ecx
  0003b	59		 pop	 ecx
$LN1@wndTextGet:

; 1819 : }

  0003c	c9		 leave
  0003d	c3		 ret	 0
?wndTextGetCursorPosition@@YAPAU_object@@PAU1@0@Z ENDP	; wndTextGetCursorPosition
_TEXT	ENDS
; Function compile flags: /Odspy
; File D:\Metin2 Server Files\mainline\SRC_2014\Metin2Client\eterPythonLib\PythonWindowManagerModule.cpp
;	COMDAT ?wndTextHideCursor@@YAPAU_object@@PAU1@0@Z
_TEXT	SEGMENT
_pWindow$ = -4						; size = 4
_poSelf$ = 8						; size = 4
_poArgs$ = 12						; size = 4
?wndTextHideCursor@@YAPAU_object@@PAU1@0@Z PROC		; wndTextHideCursor, COMDAT

; 1804 : {

  00000	55		 push	 ebp
  00001	8b ec		 mov	 ebp, esp
  00003	51		 push	 ecx

; 1805 : 	UI::CWindow * pWindow;
; 1806 : 	if (!PyTuple_GetWindow(poArgs, 0, &pWindow))

  00004	8d 45 fc	 lea	 eax, DWORD PTR _pWindow$[ebp]
  00007	50		 push	 eax
  00008	6a 00		 push	 0
  0000a	ff 75 0c	 push	 DWORD PTR _poArgs$[ebp]
  0000d	e8 00 00 00 00	 call	 ?PyTuple_GetWindow@@YA_NPAU_object@@HPAPAVCWindow@UI@@@Z ; PyTuple_GetWindow
  00012	83 c4 0c	 add	 esp, 12			; 0000000cH
  00015	0f b6 c0	 movzx	 eax, al
  00018	85 c0		 test	 eax, eax
  0001a	75 0a		 jne	 SHORT $LN2@wndTextHid

; 1807 : 		return Py_BuildException();

  0001c	6a 00		 push	 0
  0001e	e8 00 00 00 00	 call	 ?Py_BuildException@@YAPAU_object@@PBDZZ ; Py_BuildException
  00023	59		 pop	 ecx
  00024	eb 0d		 jmp	 SHORT $LN1@wndTextHid
$LN2@wndTextHid:

; 1808 : 
; 1809 : 	((UI::CTextLine*)pWindow)->HideCursor();

  00026	8b 4d fc	 mov	 ecx, DWORD PTR _pWindow$[ebp]
  00029	e8 00 00 00 00	 call	 ?HideCursor@CTextLine@UI@@QAEXXZ ; UI::CTextLine::HideCursor

; 1810 : 	return Py_BuildNone();

  0002e	e8 00 00 00 00	 call	 ?Py_BuildNone@@YAPAU_object@@XZ ; Py_BuildNone
$LN1@wndTextHid:

; 1811 : }

  00033	c9		 leave
  00034	c3		 ret	 0
?wndTextHideCursor@@YAPAU_object@@PAU1@0@Z ENDP		; wndTextHideCursor
_TEXT	ENDS
; Function compile flags: /Odspy
; File D:\Metin2 Server Files\mainline\SRC_2014\Metin2Client\eterPythonLib\PythonWindowManagerModule.cpp
;	COMDAT ?wndTextShowCursor@@YAPAU_object@@PAU1@0@Z
_TEXT	SEGMENT
_pWindow$ = -4						; size = 4
_poSelf$ = 8						; size = 4
_poArgs$ = 12						; size = 4
?wndTextShowCursor@@YAPAU_object@@PAU1@0@Z PROC		; wndTextShowCursor, COMDAT

; 1795 : {

  00000	55		 push	 ebp
  00001	8b ec		 mov	 ebp, esp
  00003	51		 push	 ecx

; 1796 : 	UI::CWindow * pWindow;
; 1797 : 	if (!PyTuple_GetWindow(poArgs, 0, &pWindow))

  00004	8d 45 fc	 lea	 eax, DWORD PTR _pWindow$[ebp]
  00007	50		 push	 eax
  00008	6a 00		 push	 0
  0000a	ff 75 0c	 push	 DWORD PTR _poArgs$[ebp]
  0000d	e8 00 00 00 00	 call	 ?PyTuple_GetWindow@@YA_NPAU_object@@HPAPAVCWindow@UI@@@Z ; PyTuple_GetWindow
  00012	83 c4 0c	 add	 esp, 12			; 0000000cH
  00015	0f b6 c0	 movzx	 eax, al
  00018	85 c0		 test	 eax, eax
  0001a	75 0a		 jne	 SHORT $LN2@wndTextSho

; 1798 : 		return Py_BuildException();

  0001c	6a 00		 push	 0
  0001e	e8 00 00 00 00	 call	 ?Py_BuildException@@YAPAU_object@@PBDZZ ; Py_BuildException
  00023	59		 pop	 ecx
  00024	eb 0d		 jmp	 SHORT $LN1@wndTextSho
$LN2@wndTextSho:

; 1799 : 
; 1800 : 	((UI::CTextLine*)pWindow)->ShowCursor();

  00026	8b 4d fc	 mov	 ecx, DWORD PTR _pWindow$[ebp]
  00029	e8 00 00 00 00	 call	 ?ShowCursor@CTextLine@UI@@QAEXXZ ; UI::CTextLine::ShowCursor

; 1801 : 	return Py_BuildNone();

  0002e	e8 00 00 00 00	 call	 ?Py_BuildNone@@YAPAU_object@@XZ ; Py_BuildNone
$LN1@wndTextSho:

; 1802 : }

  00033	c9		 leave
  00034	c3		 ret	 0
?wndTextShowCursor@@YAPAU_object@@PAU1@0@Z ENDP		; wndTextShowCursor
_TEXT	ENDS
; Function compile flags: /Odspy
; File D:\Metin2 Server Files\mainline\SRC_2014\Metin2Client\eterPythonLib\PythonWindowManagerModule.cpp
;	COMDAT ?wndTextGetTextSize@@YAPAU_object@@PAU1@0@Z
_TEXT	SEGMENT
_nWidth$ = -16						; size = 4
_nHeight$ = -12						; size = 4
_pkTextLine$ = -8					; size = 4
_pWindow$ = -4						; size = 4
_poSelf$ = 8						; size = 4
_poArgs$ = 12						; size = 4
?wndTextGetTextSize@@YAPAU_object@@PAU1@0@Z PROC	; wndTextGetTextSize, COMDAT

; 1779 : {

  00000	55		 push	 ebp
  00001	8b ec		 mov	 ebp, esp
  00003	83 ec 10	 sub	 esp, 16			; 00000010H

; 1780 : 	UI::CWindow * pWindow;
; 1781 : 	if (!PyTuple_GetWindow(poArgs, 0, &pWindow))

  00006	8d 45 fc	 lea	 eax, DWORD PTR _pWindow$[ebp]
  00009	50		 push	 eax
  0000a	6a 00		 push	 0
  0000c	ff 75 0c	 push	 DWORD PTR _poArgs$[ebp]
  0000f	e8 00 00 00 00	 call	 ?PyTuple_GetWindow@@YA_NPAU_object@@HPAPAVCWindow@UI@@@Z ; PyTuple_GetWindow
  00014	83 c4 0c	 add	 esp, 12			; 0000000cH
  00017	0f b6 c0	 movzx	 eax, al
  0001a	85 c0		 test	 eax, eax
  0001c	75 0a		 jne	 SHORT $LN2@wndTextGet

; 1782 : 		return Py_BuildException();

  0001e	6a 00		 push	 0
  00020	e8 00 00 00 00	 call	 ?Py_BuildException@@YAPAU_object@@PBDZZ ; Py_BuildException
  00025	59		 pop	 ecx
  00026	eb 2a		 jmp	 SHORT $LN1@wndTextGet
$LN2@wndTextGet:

; 1783 : 
; 1784 : 	int nWidth;
; 1785 : 	int nHeight;
; 1786 : 
; 1787 : 	UI::CTextLine* pkTextLine=(UI::CTextLine*)pWindow;

  00028	8b 45 fc	 mov	 eax, DWORD PTR _pWindow$[ebp]
  0002b	89 45 f8	 mov	 DWORD PTR _pkTextLine$[ebp], eax

; 1788 : 	pkTextLine->GetTextSize(&nWidth, &nHeight);

  0002e	8d 45 f4	 lea	 eax, DWORD PTR _nHeight$[ebp]
  00031	50		 push	 eax
  00032	8d 45 f0	 lea	 eax, DWORD PTR _nWidth$[ebp]
  00035	50		 push	 eax
  00036	8b 4d f8	 mov	 ecx, DWORD PTR _pkTextLine$[ebp]
  00039	e8 00 00 00 00	 call	 ?GetTextSize@CTextLine@UI@@QAEXPAH0@Z ; UI::CTextLine::GetTextSize

; 1789 : 
; 1790 : 	return Py_BuildValue("(ii)", nWidth, nHeight);

  0003e	ff 75 f4	 push	 DWORD PTR _nHeight$[ebp]
  00041	ff 75 f0	 push	 DWORD PTR _nWidth$[ebp]
  00044	68 00 00 00 00	 push	 OFFSET ??_C@_04INACLLOK@?$CIii?$CJ@
  00049	ff 15 00 00 00
	00		 call	 DWORD PTR __imp__Py_BuildValue
  0004f	83 c4 0c	 add	 esp, 12			; 0000000cH
$LN1@wndTextGet:

; 1791 : }

  00052	c9		 leave
  00053	c3		 ret	 0
?wndTextGetTextSize@@YAPAU_object@@PAU1@0@Z ENDP	; wndTextGetTextSize
_TEXT	ENDS
; Function compile flags: /Odspy
; File D:\Metin2 Server Files\mainline\SRC_2014\Metin2Client\eterPythonLib\PythonWindowManagerModule.cpp
;	COMDAT ?wndTextGetText@@YAPAU_object@@PAU1@0@Z
_TEXT	SEGMENT
_pWindow$ = -4						; size = 4
_poSelf$ = 8						; size = 4
_poArgs$ = 12						; size = 4
?wndTextGetText@@YAPAU_object@@PAU1@0@Z PROC		; wndTextGetText, COMDAT

; 1770 : {

  00000	55		 push	 ebp
  00001	8b ec		 mov	 ebp, esp
  00003	51		 push	 ecx

; 1771 : 	UI::CWindow * pWindow;
; 1772 : 	if (!PyTuple_GetWindow(poArgs, 0, &pWindow))

  00004	8d 45 fc	 lea	 eax, DWORD PTR _pWindow$[ebp]
  00007	50		 push	 eax
  00008	6a 00		 push	 0
  0000a	ff 75 0c	 push	 DWORD PTR _poArgs$[ebp]
  0000d	e8 00 00 00 00	 call	 ?PyTuple_GetWindow@@YA_NPAU_object@@HPAPAVCWindow@UI@@@Z ; PyTuple_GetWindow
  00012	83 c4 0c	 add	 esp, 12			; 0000000cH
  00015	0f b6 c0	 movzx	 eax, al
  00018	85 c0		 test	 eax, eax
  0001a	75 0a		 jne	 SHORT $LN2@wndTextGet

; 1773 : 		return Py_BuildException();

  0001c	6a 00		 push	 0
  0001e	e8 00 00 00 00	 call	 ?Py_BuildException@@YAPAU_object@@PBDZZ ; Py_BuildException
  00023	59		 pop	 ecx
  00024	eb 16		 jmp	 SHORT $LN1@wndTextGet
$LN2@wndTextGet:

; 1774 : 
; 1775 : 	return Py_BuildValue("s", ((UI::CTextLine*)pWindow)->GetText());

  00026	8b 4d fc	 mov	 ecx, DWORD PTR _pWindow$[ebp]
  00029	e8 00 00 00 00	 call	 ?GetText@CTextLine@UI@@QAEPBDXZ ; UI::CTextLine::GetText
  0002e	50		 push	 eax
  0002f	68 00 00 00 00	 push	 OFFSET ??_C@_01LKDEMHDF@s@
  00034	ff 15 00 00 00
	00		 call	 DWORD PTR __imp__Py_BuildValue
  0003a	59		 pop	 ecx
  0003b	59		 pop	 ecx
$LN1@wndTextGet:

; 1776 : }

  0003c	c9		 leave
  0003d	c3		 ret	 0
?wndTextGetText@@YAPAU_object@@PAU1@0@Z ENDP		; wndTextGetText
_TEXT	ENDS
; Function compile flags: /Odspy
; File D:\Metin2 Server Files\mainline\SRC_2014\Metin2Client\eterPythonLib\PythonWindowManagerModule.cpp
;	COMDAT ?wndTextSetText@@YAPAU_object@@PAU1@0@Z
_TEXT	SEGMENT
_pWindow$ = -8						; size = 4
_szText$ = -4						; size = 4
_poSelf$ = 8						; size = 4
_poArgs$ = 12						; size = 4
?wndTextSetText@@YAPAU_object@@PAU1@0@Z PROC		; wndTextSetText, COMDAT

; 1758 : {

  00000	55		 push	 ebp
  00001	8b ec		 mov	 ebp, esp
  00003	51		 push	 ecx
  00004	51		 push	 ecx

; 1759 : 	UI::CWindow * pWindow;
; 1760 : 	if (!PyTuple_GetWindow(poArgs, 0, &pWindow))

  00005	8d 45 f8	 lea	 eax, DWORD PTR _pWindow$[ebp]
  00008	50		 push	 eax
  00009	6a 00		 push	 0
  0000b	ff 75 0c	 push	 DWORD PTR _poArgs$[ebp]
  0000e	e8 00 00 00 00	 call	 ?PyTuple_GetWindow@@YA_NPAU_object@@HPAPAVCWindow@UI@@@Z ; PyTuple_GetWindow
  00013	83 c4 0c	 add	 esp, 12			; 0000000cH
  00016	0f b6 c0	 movzx	 eax, al
  00019	85 c0		 test	 eax, eax
  0001b	75 0a		 jne	 SHORT $LN2@wndTextSet

; 1761 : 		return Py_BuildException();

  0001d	6a 00		 push	 0
  0001f	e8 00 00 00 00	 call	 ?Py_BuildException@@YAPAU_object@@PBDZZ ; Py_BuildException
  00024	59		 pop	 ecx
  00025	eb 32		 jmp	 SHORT $LN1@wndTextSet
$LN2@wndTextSet:

; 1762 : 	char * szText;
; 1763 : 	if (!PyTuple_GetString(poArgs, 1, &szText))

  00027	8d 45 fc	 lea	 eax, DWORD PTR _szText$[ebp]
  0002a	50		 push	 eax
  0002b	6a 01		 push	 1
  0002d	ff 75 0c	 push	 DWORD PTR _poArgs$[ebp]
  00030	e8 00 00 00 00	 call	 ?PyTuple_GetString@@YA_NPAU_object@@HPAPAD@Z ; PyTuple_GetString
  00035	83 c4 0c	 add	 esp, 12			; 0000000cH
  00038	0f b6 c0	 movzx	 eax, al
  0003b	85 c0		 test	 eax, eax
  0003d	75 0a		 jne	 SHORT $LN3@wndTextSet

; 1764 : 		return Py_BuildException();

  0003f	6a 00		 push	 0
  00041	e8 00 00 00 00	 call	 ?Py_BuildException@@YAPAU_object@@PBDZZ ; Py_BuildException
  00046	59		 pop	 ecx
  00047	eb 10		 jmp	 SHORT $LN1@wndTextSet
$LN3@wndTextSet:

; 1765 : 
; 1766 : 	((UI::CTextLine*)pWindow)->SetText(szText);

  00049	ff 75 fc	 push	 DWORD PTR _szText$[ebp]
  0004c	8b 4d f8	 mov	 ecx, DWORD PTR _pWindow$[ebp]
  0004f	e8 00 00 00 00	 call	 ?SetText@CTextLine@UI@@QAEXPBD@Z ; UI::CTextLine::SetText

; 1767 : 	return Py_BuildNone();

  00054	e8 00 00 00 00	 call	 ?Py_BuildNone@@YAPAU_object@@XZ ; Py_BuildNone
$LN1@wndTextSet:

; 1768 : }

  00059	c9		 leave
  0005a	c3		 ret	 0
?wndTextSetText@@YAPAU_object@@PAU1@0@Z ENDP		; wndTextSetText
_TEXT	ENDS
; Function compile flags: /Odspy
; File D:\Metin2 Server Files\mainline\SRC_2014\Metin2Client\eterPythonLib\PythonWindowManagerModule.cpp
;	COMDAT ?wndTextSetLimitWidth@@YAPAU_object@@PAU1@0@Z
_TEXT	SEGMENT
_pWindow$ = -8						; size = 4
_fWidth$ = -4						; size = 4
_poSelf$ = 8						; size = 4
_poArgs$ = 12						; size = 4
?wndTextSetLimitWidth@@YAPAU_object@@PAU1@0@Z PROC	; wndTextSetLimitWidth, COMDAT

; 1746 : {

  00000	55		 push	 ebp
  00001	8b ec		 mov	 ebp, esp
  00003	51		 push	 ecx
  00004	51		 push	 ecx

; 1747 : 	UI::CWindow * pWindow;
; 1748 : 	if (!PyTuple_GetWindow(poArgs, 0, &pWindow))

  00005	8d 45 f8	 lea	 eax, DWORD PTR _pWindow$[ebp]
  00008	50		 push	 eax
  00009	6a 00		 push	 0
  0000b	ff 75 0c	 push	 DWORD PTR _poArgs$[ebp]
  0000e	e8 00 00 00 00	 call	 ?PyTuple_GetWindow@@YA_NPAU_object@@HPAPAVCWindow@UI@@@Z ; PyTuple_GetWindow
  00013	83 c4 0c	 add	 esp, 12			; 0000000cH
  00016	0f b6 c0	 movzx	 eax, al
  00019	85 c0		 test	 eax, eax
  0001b	75 0a		 jne	 SHORT $LN2@wndTextSet

; 1749 : 		return Py_BuildException();

  0001d	6a 00		 push	 0
  0001f	e8 00 00 00 00	 call	 ?Py_BuildException@@YAPAU_object@@PBDZZ ; Py_BuildException
  00024	59		 pop	 ecx
  00025	eb 3a		 jmp	 SHORT $LN1@wndTextSet
$LN2@wndTextSet:

; 1750 : 	float fWidth;
; 1751 : 	if (!PyTuple_GetFloat(poArgs, 1, &fWidth))

  00027	8d 45 fc	 lea	 eax, DWORD PTR _fWidth$[ebp]
  0002a	50		 push	 eax
  0002b	6a 01		 push	 1
  0002d	ff 75 0c	 push	 DWORD PTR _poArgs$[ebp]
  00030	e8 00 00 00 00	 call	 ?PyTuple_GetFloat@@YA_NPAU_object@@HPAM@Z ; PyTuple_GetFloat
  00035	83 c4 0c	 add	 esp, 12			; 0000000cH
  00038	0f b6 c0	 movzx	 eax, al
  0003b	85 c0		 test	 eax, eax
  0003d	75 0a		 jne	 SHORT $LN3@wndTextSet

; 1752 : 		return Py_BuildException();

  0003f	6a 00		 push	 0
  00041	e8 00 00 00 00	 call	 ?Py_BuildException@@YAPAU_object@@PBDZZ ; Py_BuildException
  00046	59		 pop	 ecx
  00047	eb 18		 jmp	 SHORT $LN1@wndTextSet
$LN3@wndTextSet:

; 1753 : 
; 1754 : 	((UI::CTextLine*)pWindow)->SetLimitWidth(fWidth);

  00049	51		 push	 ecx
  0004a	f3 0f 10 45 fc	 movss	 xmm0, DWORD PTR _fWidth$[ebp]
  0004f	f3 0f 11 04 24	 movss	 DWORD PTR [esp], xmm0
  00054	8b 4d f8	 mov	 ecx, DWORD PTR _pWindow$[ebp]
  00057	e8 00 00 00 00	 call	 ?SetLimitWidth@CTextLine@UI@@QAEXM@Z ; UI::CTextLine::SetLimitWidth

; 1755 : 	return Py_BuildNone();

  0005c	e8 00 00 00 00	 call	 ?Py_BuildNone@@YAPAU_object@@XZ ; Py_BuildNone
$LN1@wndTextSet:

; 1756 : }

  00061	c9		 leave
  00062	c3		 ret	 0
?wndTextSetLimitWidth@@YAPAU_object@@PAU1@0@Z ENDP	; wndTextSetLimitWidth
_TEXT	ENDS
; Function compile flags: /Odspy
; File D:\Metin2 Server Files\mainline\SRC_2014\Metin2Client\eterPythonLib\PythonWindowManagerModule.cpp
;	COMDAT ?wndTextSetFontColor@@YAPAU_object@@PAU1@0@Z
_TEXT	SEGMENT
_fa$1 = -28						; size = 4
_fr$2 = -24						; size = 4
_fg$3 = -20						; size = 4
_fb$4 = -16						; size = 4
_iColor$5 = -12						; size = 4
_pWindow$ = -8						; size = 4
_argb$6 = -4						; size = 4
_poSelf$ = 8						; size = 4
_poArgs$ = 12						; size = 4
?wndTextSetFontColor@@YAPAU_object@@PAU1@0@Z PROC	; wndTextSetFontColor, COMDAT

; 1704 : {

  00000	55		 push	 ebp
  00001	8b ec		 mov	 ebp, esp
  00003	83 ec 1c	 sub	 esp, 28			; 0000001cH

; 1705 : 	UI::CWindow * pWindow;
; 1706 : 	if (!PyTuple_GetWindow(poArgs, 0, &pWindow))

  00006	8d 45 f8	 lea	 eax, DWORD PTR _pWindow$[ebp]
  00009	50		 push	 eax
  0000a	6a 00		 push	 0
  0000c	ff 75 0c	 push	 DWORD PTR _poArgs$[ebp]
  0000f	e8 00 00 00 00	 call	 ?PyTuple_GetWindow@@YA_NPAU_object@@HPAPAVCWindow@UI@@@Z ; PyTuple_GetWindow
  00014	83 c4 0c	 add	 esp, 12			; 0000000cH
  00017	0f b6 c0	 movzx	 eax, al
  0001a	85 c0		 test	 eax, eax
  0001c	75 0d		 jne	 SHORT $LN2@wndTextSet

; 1707 : 		return Py_BuildException();

  0001e	6a 00		 push	 0
  00020	e8 00 00 00 00	 call	 ?Py_BuildException@@YAPAU_object@@PBDZZ ; Py_BuildException
  00025	59		 pop	 ecx
  00026	e9 3c 01 00 00	 jmp	 $LN1@wndTextSet
$LN2@wndTextSet:

; 1708 : 
; 1709 : 	if (2 == PyTuple_Size(poArgs))

  0002b	ff 75 0c	 push	 DWORD PTR _poArgs$[ebp]
  0002e	ff 15 00 00 00
	00		 call	 DWORD PTR __imp__PyTuple_Size
  00034	59		 pop	 ecx
  00035	83 f8 02	 cmp	 eax, 2
  00038	75 35		 jne	 SHORT $LN3@wndTextSet

; 1710 : 	{
; 1711 : 		int iColor;
; 1712 : 		if (!PyTuple_GetInteger(poArgs, 1, &iColor))

  0003a	8d 45 f4	 lea	 eax, DWORD PTR _iColor$5[ebp]
  0003d	50		 push	 eax
  0003e	6a 01		 push	 1
  00040	ff 75 0c	 push	 DWORD PTR _poArgs$[ebp]
  00043	e8 00 00 00 00	 call	 ?PyTuple_GetInteger@@YA_NPAU_object@@HPAH@Z ; PyTuple_GetInteger
  00048	83 c4 0c	 add	 esp, 12			; 0000000cH
  0004b	0f b6 c0	 movzx	 eax, al
  0004e	85 c0		 test	 eax, eax
  00050	75 0d		 jne	 SHORT $LN5@wndTextSet

; 1713 : 			return Py_BuildException();

  00052	6a 00		 push	 0
  00054	e8 00 00 00 00	 call	 ?Py_BuildException@@YAPAU_object@@PBDZZ ; Py_BuildException
  00059	59		 pop	 ecx
  0005a	e9 08 01 00 00	 jmp	 $LN1@wndTextSet
$LN5@wndTextSet:

; 1714 : 		((UI::CTextLine*)pWindow)->SetFontColor(iColor);

  0005f	ff 75 f4	 push	 DWORD PTR _iColor$5[ebp]
  00062	8b 4d f8	 mov	 ecx, DWORD PTR _pWindow$[ebp]
  00065	e8 00 00 00 00	 call	 ?SetFontColor@CTextLine@UI@@QAEXK@Z ; UI::CTextLine::SetFontColor

; 1715 : 	}

  0006a	e9 f3 00 00 00	 jmp	 $LN7@wndTextSet
$LN3@wndTextSet:

; 1716 : 	else if (4 == PyTuple_Size(poArgs))

  0006f	ff 75 0c	 push	 DWORD PTR _poArgs$[ebp]
  00072	ff 15 00 00 00
	00		 call	 DWORD PTR __imp__PyTuple_Size
  00078	59		 pop	 ecx
  00079	83 f8 04	 cmp	 eax, 4
  0007c	0f 85 d6 00 00
	00		 jne	 $LN6@wndTextSet

; 1717 : 	{
; 1718 : 		float fr;
; 1719 : 		if (!PyTuple_GetFloat(poArgs, 1, &fr))

  00082	8d 45 e8	 lea	 eax, DWORD PTR _fr$2[ebp]
  00085	50		 push	 eax
  00086	6a 01		 push	 1
  00088	ff 75 0c	 push	 DWORD PTR _poArgs$[ebp]
  0008b	e8 00 00 00 00	 call	 ?PyTuple_GetFloat@@YA_NPAU_object@@HPAM@Z ; PyTuple_GetFloat
  00090	83 c4 0c	 add	 esp, 12			; 0000000cH
  00093	0f b6 c0	 movzx	 eax, al
  00096	85 c0		 test	 eax, eax
  00098	75 0d		 jne	 SHORT $LN8@wndTextSet

; 1720 : 			return Py_BuildException();

  0009a	6a 00		 push	 0
  0009c	e8 00 00 00 00	 call	 ?Py_BuildException@@YAPAU_object@@PBDZZ ; Py_BuildException
  000a1	59		 pop	 ecx
  000a2	e9 c0 00 00 00	 jmp	 $LN1@wndTextSet
$LN8@wndTextSet:

; 1721 : 		float fg;
; 1722 : 		if (!PyTuple_GetFloat(poArgs, 2, &fg))

  000a7	8d 45 ec	 lea	 eax, DWORD PTR _fg$3[ebp]
  000aa	50		 push	 eax
  000ab	6a 02		 push	 2
  000ad	ff 75 0c	 push	 DWORD PTR _poArgs$[ebp]
  000b0	e8 00 00 00 00	 call	 ?PyTuple_GetFloat@@YA_NPAU_object@@HPAM@Z ; PyTuple_GetFloat
  000b5	83 c4 0c	 add	 esp, 12			; 0000000cH
  000b8	0f b6 c0	 movzx	 eax, al
  000bb	85 c0		 test	 eax, eax
  000bd	75 0d		 jne	 SHORT $LN9@wndTextSet

; 1723 : 			return Py_BuildException();

  000bf	6a 00		 push	 0
  000c1	e8 00 00 00 00	 call	 ?Py_BuildException@@YAPAU_object@@PBDZZ ; Py_BuildException
  000c6	59		 pop	 ecx
  000c7	e9 9b 00 00 00	 jmp	 $LN1@wndTextSet
$LN9@wndTextSet:

; 1724 : 		float fb;
; 1725 : 		if (!PyTuple_GetFloat(poArgs, 3, &fb))

  000cc	8d 45 f0	 lea	 eax, DWORD PTR _fb$4[ebp]
  000cf	50		 push	 eax
  000d0	6a 03		 push	 3
  000d2	ff 75 0c	 push	 DWORD PTR _poArgs$[ebp]
  000d5	e8 00 00 00 00	 call	 ?PyTuple_GetFloat@@YA_NPAU_object@@HPAM@Z ; PyTuple_GetFloat
  000da	83 c4 0c	 add	 esp, 12			; 0000000cH
  000dd	0f b6 c0	 movzx	 eax, al
  000e0	85 c0		 test	 eax, eax
  000e2	75 0a		 jne	 SHORT $LN10@wndTextSet

; 1726 : 			return Py_BuildException();

  000e4	6a 00		 push	 0
  000e6	e8 00 00 00 00	 call	 ?Py_BuildException@@YAPAU_object@@PBDZZ ; Py_BuildException
  000eb	59		 pop	 ecx
  000ec	eb 79		 jmp	 SHORT $LN1@wndTextSet
$LN10@wndTextSet:

; 1727 : 		float fa = 1.0f;

  000ee	f3 0f 10 05 00
	00 00 00	 movss	 xmm0, DWORD PTR __real@3f800000
  000f6	f3 0f 11 45 e4	 movss	 DWORD PTR _fa$1[ebp], xmm0

; 1728 : 
; 1729 : 		BYTE argb[4] =
; 1730 : 		{
; 1731 : 			(BYTE) (255.0f * fb),

  000fb	f3 0f 10 05 00
	00 00 00	 movss	 xmm0, DWORD PTR __real@437f0000
  00103	f3 0f 59 45 f0	 mulss	 xmm0, DWORD PTR _fb$4[ebp]
  00108	f3 0f 2c c0	 cvttss2si eax, xmm0
  0010c	88 45 fc	 mov	 BYTE PTR _argb$6[ebp], al

; 1732 : 			(BYTE) (255.0f * fg),

  0010f	f3 0f 10 05 00
	00 00 00	 movss	 xmm0, DWORD PTR __real@437f0000
  00117	f3 0f 59 45 ec	 mulss	 xmm0, DWORD PTR _fg$3[ebp]
  0011c	f3 0f 2c c0	 cvttss2si eax, xmm0
  00120	88 45 fd	 mov	 BYTE PTR _argb$6[ebp+1], al

; 1733 : 			(BYTE) (255.0f * fr),

  00123	f3 0f 10 05 00
	00 00 00	 movss	 xmm0, DWORD PTR __real@437f0000
  0012b	f3 0f 59 45 e8	 mulss	 xmm0, DWORD PTR _fr$2[ebp]
  00130	f3 0f 2c c0	 cvttss2si eax, xmm0
  00134	88 45 fe	 mov	 BYTE PTR _argb$6[ebp+2], al

; 1734 : 			(BYTE) (255.0f * fa)

  00137	f3 0f 10 05 00
	00 00 00	 movss	 xmm0, DWORD PTR __real@437f0000
  0013f	f3 0f 59 45 e4	 mulss	 xmm0, DWORD PTR _fa$1[ebp]
  00144	f3 0f 2c c0	 cvttss2si eax, xmm0
  00148	88 45 ff	 mov	 BYTE PTR _argb$6[ebp+3], al

; 1735 : 		};
; 1736 : 		((UI::CTextLine*)pWindow)->SetFontColor(*((DWORD *) argb));

  0014b	ff 75 fc	 push	 DWORD PTR _argb$6[ebp]
  0014e	8b 4d f8	 mov	 ecx, DWORD PTR _pWindow$[ebp]
  00151	e8 00 00 00 00	 call	 ?SetFontColor@CTextLine@UI@@QAEXK@Z ; UI::CTextLine::SetFontColor

; 1737 : 	}

  00156	eb 0a		 jmp	 SHORT $LN7@wndTextSet
$LN6@wndTextSet:

; 1738 : 	else
; 1739 : 	{
; 1740 : 		return Py_BuildException();

  00158	6a 00		 push	 0
  0015a	e8 00 00 00 00	 call	 ?Py_BuildException@@YAPAU_object@@PBDZZ ; Py_BuildException
  0015f	59		 pop	 ecx
  00160	eb 05		 jmp	 SHORT $LN1@wndTextSet
$LN7@wndTextSet:

; 1741 : 	}
; 1742 : 
; 1743 : 	return Py_BuildNone();

  00162	e8 00 00 00 00	 call	 ?Py_BuildNone@@YAPAU_object@@XZ ; Py_BuildNone
$LN1@wndTextSet:

; 1744 : }

  00167	c9		 leave
  00168	c3		 ret	 0
?wndTextSetFontColor@@YAPAU_object@@PAU1@0@Z ENDP	; wndTextSetFontColor
_TEXT	ENDS
; Function compile flags: /Odspy
; File D:\Metin2 Server Files\mainline\SRC_2014\Metin2Client\eterPythonLib\PythonWindowManagerModule.cpp
;	COMDAT ?wndTextSetFontName@@YAPAU_object@@PAU1@0@Z
_TEXT	SEGMENT
_pWindow$ = -8						; size = 4
_szFontName$ = -4					; size = 4
_poSelf$ = 8						; size = 4
_poArgs$ = 12						; size = 4
?wndTextSetFontName@@YAPAU_object@@PAU1@0@Z PROC	; wndTextSetFontName, COMDAT

; 1692 : {

  00000	55		 push	 ebp
  00001	8b ec		 mov	 ebp, esp
  00003	51		 push	 ecx
  00004	51		 push	 ecx

; 1693 : 	UI::CWindow * pWindow;
; 1694 : 	if (!PyTuple_GetWindow(poArgs, 0, &pWindow))

  00005	8d 45 f8	 lea	 eax, DWORD PTR _pWindow$[ebp]
  00008	50		 push	 eax
  00009	6a 00		 push	 0
  0000b	ff 75 0c	 push	 DWORD PTR _poArgs$[ebp]
  0000e	e8 00 00 00 00	 call	 ?PyTuple_GetWindow@@YA_NPAU_object@@HPAPAVCWindow@UI@@@Z ; PyTuple_GetWindow
  00013	83 c4 0c	 add	 esp, 12			; 0000000cH
  00016	0f b6 c0	 movzx	 eax, al
  00019	85 c0		 test	 eax, eax
  0001b	75 0a		 jne	 SHORT $LN2@wndTextSet

; 1695 : 		return Py_BuildException();

  0001d	6a 00		 push	 0
  0001f	e8 00 00 00 00	 call	 ?Py_BuildException@@YAPAU_object@@PBDZZ ; Py_BuildException
  00024	59		 pop	 ecx
  00025	eb 32		 jmp	 SHORT $LN1@wndTextSet
$LN2@wndTextSet:

; 1696 : 	char * szFontName;
; 1697 : 	if (!PyTuple_GetString(poArgs, 1, &szFontName))

  00027	8d 45 fc	 lea	 eax, DWORD PTR _szFontName$[ebp]
  0002a	50		 push	 eax
  0002b	6a 01		 push	 1
  0002d	ff 75 0c	 push	 DWORD PTR _poArgs$[ebp]
  00030	e8 00 00 00 00	 call	 ?PyTuple_GetString@@YA_NPAU_object@@HPAPAD@Z ; PyTuple_GetString
  00035	83 c4 0c	 add	 esp, 12			; 0000000cH
  00038	0f b6 c0	 movzx	 eax, al
  0003b	85 c0		 test	 eax, eax
  0003d	75 0a		 jne	 SHORT $LN3@wndTextSet

; 1698 : 		return Py_BuildException();

  0003f	6a 00		 push	 0
  00041	e8 00 00 00 00	 call	 ?Py_BuildException@@YAPAU_object@@PBDZZ ; Py_BuildException
  00046	59		 pop	 ecx
  00047	eb 10		 jmp	 SHORT $LN1@wndTextSet
$LN3@wndTextSet:

; 1699 : 
; 1700 : 	((UI::CTextLine*)pWindow)->SetFontName(szFontName);

  00049	ff 75 fc	 push	 DWORD PTR _szFontName$[ebp]
  0004c	8b 4d f8	 mov	 ecx, DWORD PTR _pWindow$[ebp]
  0004f	e8 00 00 00 00	 call	 ?SetFontName@CTextLine@UI@@QAEXPBD@Z ; UI::CTextLine::SetFontName

; 1701 : 	return Py_BuildNone();

  00054	e8 00 00 00 00	 call	 ?Py_BuildNone@@YAPAU_object@@XZ ; Py_BuildNone
$LN1@wndTextSet:

; 1702 : }

  00059	c9		 leave
  0005a	c3		 ret	 0
?wndTextSetFontName@@YAPAU_object@@PAU1@0@Z ENDP	; wndTextSetFontName
_TEXT	ENDS
; Function compile flags: /Odspy
; File D:\Metin2 Server Files\mainline\SRC_2014\Metin2Client\eterPythonLib\PythonWindowManagerModule.cpp
;	COMDAT ?wndTextSetMultiLine@@YAPAU_object@@PAU1@0@Z
_TEXT	SEGMENT
_pWindow$ = -8						; size = 4
_iFlag$ = -4						; size = 4
_poSelf$ = 8						; size = 4
_poArgs$ = 12						; size = 4
?wndTextSetMultiLine@@YAPAU_object@@PAU1@0@Z PROC	; wndTextSetMultiLine, COMDAT

; 1680 : {

  00000	55		 push	 ebp
  00001	8b ec		 mov	 ebp, esp
  00003	51		 push	 ecx
  00004	51		 push	 ecx

; 1681 : 	UI::CWindow * pWindow;
; 1682 : 	if (!PyTuple_GetWindow(poArgs, 0, &pWindow))

  00005	8d 45 f8	 lea	 eax, DWORD PTR _pWindow$[ebp]
  00008	50		 push	 eax
  00009	6a 00		 push	 0
  0000b	ff 75 0c	 push	 DWORD PTR _poArgs$[ebp]
  0000e	e8 00 00 00 00	 call	 ?PyTuple_GetWindow@@YA_NPAU_object@@HPAPAVCWindow@UI@@@Z ; PyTuple_GetWindow
  00013	83 c4 0c	 add	 esp, 12			; 0000000cH
  00016	0f b6 c0	 movzx	 eax, al
  00019	85 c0		 test	 eax, eax
  0001b	75 0a		 jne	 SHORT $LN2@wndTextSet

; 1683 : 		return Py_BuildException();

  0001d	6a 00		 push	 0
  0001f	e8 00 00 00 00	 call	 ?Py_BuildException@@YAPAU_object@@PBDZZ ; Py_BuildException
  00024	59		 pop	 ecx
  00025	eb 32		 jmp	 SHORT $LN1@wndTextSet
$LN2@wndTextSet:

; 1684 : 	int iFlag;
; 1685 : 	if (!PyTuple_GetInteger(poArgs, 1, &iFlag))

  00027	8d 45 fc	 lea	 eax, DWORD PTR _iFlag$[ebp]
  0002a	50		 push	 eax
  0002b	6a 01		 push	 1
  0002d	ff 75 0c	 push	 DWORD PTR _poArgs$[ebp]
  00030	e8 00 00 00 00	 call	 ?PyTuple_GetInteger@@YA_NPAU_object@@HPAH@Z ; PyTuple_GetInteger
  00035	83 c4 0c	 add	 esp, 12			; 0000000cH
  00038	0f b6 c0	 movzx	 eax, al
  0003b	85 c0		 test	 eax, eax
  0003d	75 0a		 jne	 SHORT $LN3@wndTextSet

; 1686 : 		return Py_BuildException();

  0003f	6a 00		 push	 0
  00041	e8 00 00 00 00	 call	 ?Py_BuildException@@YAPAU_object@@PBDZZ ; Py_BuildException
  00046	59		 pop	 ecx
  00047	eb 10		 jmp	 SHORT $LN1@wndTextSet
$LN3@wndTextSet:

; 1687 : 
; 1688 : 	((UI::CTextLine*)pWindow)->SetMultiLine(iFlag);

  00049	ff 75 fc	 push	 DWORD PTR _iFlag$[ebp]
  0004c	8b 4d f8	 mov	 ecx, DWORD PTR _pWindow$[ebp]
  0004f	e8 00 00 00 00	 call	 ?SetMultiLine@CTextLine@UI@@QAEXH@Z ; UI::CTextLine::SetMultiLine

; 1689 : 	return Py_BuildNone();

  00054	e8 00 00 00 00	 call	 ?Py_BuildNone@@YAPAU_object@@XZ ; Py_BuildNone
$LN1@wndTextSet:

; 1690 : }

  00059	c9		 leave
  0005a	c3		 ret	 0
?wndTextSetMultiLine@@YAPAU_object@@PAU1@0@Z ENDP	; wndTextSetMultiLine
_TEXT	ENDS
; Function compile flags: /Odspy
; File D:\Metin2 Server Files\mainline\SRC_2014\Metin2Client\eterPythonLib\PythonWindowManagerModule.cpp
;	COMDAT ?wndTextSetFeather@@YAPAU_object@@PAU1@0@Z
_TEXT	SEGMENT
_pWindow$ = -8						; size = 4
_iFlag$ = -4						; size = 4
_poSelf$ = 8						; size = 4
_poArgs$ = 12						; size = 4
?wndTextSetFeather@@YAPAU_object@@PAU1@0@Z PROC		; wndTextSetFeather, COMDAT

; 1668 : {

  00000	55		 push	 ebp
  00001	8b ec		 mov	 ebp, esp
  00003	51		 push	 ecx
  00004	51		 push	 ecx

; 1669 : 	UI::CWindow * pWindow;
; 1670 : 	if (!PyTuple_GetWindow(poArgs, 0, &pWindow))

  00005	8d 45 f8	 lea	 eax, DWORD PTR _pWindow$[ebp]
  00008	50		 push	 eax
  00009	6a 00		 push	 0
  0000b	ff 75 0c	 push	 DWORD PTR _poArgs$[ebp]
  0000e	e8 00 00 00 00	 call	 ?PyTuple_GetWindow@@YA_NPAU_object@@HPAPAVCWindow@UI@@@Z ; PyTuple_GetWindow
  00013	83 c4 0c	 add	 esp, 12			; 0000000cH
  00016	0f b6 c0	 movzx	 eax, al
  00019	85 c0		 test	 eax, eax
  0001b	75 0a		 jne	 SHORT $LN2@wndTextSet

; 1671 : 		return Py_BuildException();

  0001d	6a 00		 push	 0
  0001f	e8 00 00 00 00	 call	 ?Py_BuildException@@YAPAU_object@@PBDZZ ; Py_BuildException
  00024	59		 pop	 ecx
  00025	eb 32		 jmp	 SHORT $LN1@wndTextSet
$LN2@wndTextSet:

; 1672 : 	int iFlag;
; 1673 : 	if (!PyTuple_GetInteger(poArgs, 1, &iFlag))

  00027	8d 45 fc	 lea	 eax, DWORD PTR _iFlag$[ebp]
  0002a	50		 push	 eax
  0002b	6a 01		 push	 1
  0002d	ff 75 0c	 push	 DWORD PTR _poArgs$[ebp]
  00030	e8 00 00 00 00	 call	 ?PyTuple_GetInteger@@YA_NPAU_object@@HPAH@Z ; PyTuple_GetInteger
  00035	83 c4 0c	 add	 esp, 12			; 0000000cH
  00038	0f b6 c0	 movzx	 eax, al
  0003b	85 c0		 test	 eax, eax
  0003d	75 0a		 jne	 SHORT $LN3@wndTextSet

; 1674 : 		return Py_BuildException();

  0003f	6a 00		 push	 0
  00041	e8 00 00 00 00	 call	 ?Py_BuildException@@YAPAU_object@@PBDZZ ; Py_BuildException
  00046	59		 pop	 ecx
  00047	eb 10		 jmp	 SHORT $LN1@wndTextSet
$LN3@wndTextSet:

; 1675 : 
; 1676 : 	((UI::CTextLine*)pWindow)->SetFeather(iFlag);

  00049	ff 75 fc	 push	 DWORD PTR _iFlag$[ebp]
  0004c	8b 4d f8	 mov	 ecx, DWORD PTR _pWindow$[ebp]
  0004f	e8 00 00 00 00	 call	 ?SetFeather@CTextLine@UI@@QAEXH@Z ; UI::CTextLine::SetFeather

; 1677 : 	return Py_BuildNone();

  00054	e8 00 00 00 00	 call	 ?Py_BuildNone@@YAPAU_object@@XZ ; Py_BuildNone
$LN1@wndTextSet:

; 1678 : }

  00059	c9		 leave
  0005a	c3		 ret	 0
?wndTextSetFeather@@YAPAU_object@@PAU1@0@Z ENDP		; wndTextSetFeather
_TEXT	ENDS
; Function compile flags: /Odspy
; File D:\Metin2 Server Files\mainline\SRC_2014\Metin2Client\eterPythonLib\PythonWindowManagerModule.cpp
;	COMDAT ?wndTextSetOutline@@YAPAU_object@@PAU1@0@Z
_TEXT	SEGMENT
_pWindow$ = -8						; size = 4
_iFlag$ = -4						; size = 4
_poSelf$ = 8						; size = 4
_poArgs$ = 12						; size = 4
?wndTextSetOutline@@YAPAU_object@@PAU1@0@Z PROC		; wndTextSetOutline, COMDAT

; 1656 : {

  00000	55		 push	 ebp
  00001	8b ec		 mov	 ebp, esp
  00003	51		 push	 ecx
  00004	51		 push	 ecx

; 1657 : 	UI::CWindow * pWindow;
; 1658 : 	if (!PyTuple_GetWindow(poArgs, 0, &pWindow))

  00005	8d 45 f8	 lea	 eax, DWORD PTR _pWindow$[ebp]
  00008	50		 push	 eax
  00009	6a 00		 push	 0
  0000b	ff 75 0c	 push	 DWORD PTR _poArgs$[ebp]
  0000e	e8 00 00 00 00	 call	 ?PyTuple_GetWindow@@YA_NPAU_object@@HPAPAVCWindow@UI@@@Z ; PyTuple_GetWindow
  00013	83 c4 0c	 add	 esp, 12			; 0000000cH
  00016	0f b6 c0	 movzx	 eax, al
  00019	85 c0		 test	 eax, eax
  0001b	75 0a		 jne	 SHORT $LN2@wndTextSet

; 1659 : 		return Py_BuildException();

  0001d	6a 00		 push	 0
  0001f	e8 00 00 00 00	 call	 ?Py_BuildException@@YAPAU_object@@PBDZZ ; Py_BuildException
  00024	59		 pop	 ecx
  00025	eb 32		 jmp	 SHORT $LN1@wndTextSet
$LN2@wndTextSet:

; 1660 : 	int iFlag;
; 1661 : 	if (!PyTuple_GetInteger(poArgs, 1, &iFlag))

  00027	8d 45 fc	 lea	 eax, DWORD PTR _iFlag$[ebp]
  0002a	50		 push	 eax
  0002b	6a 01		 push	 1
  0002d	ff 75 0c	 push	 DWORD PTR _poArgs$[ebp]
  00030	e8 00 00 00 00	 call	 ?PyTuple_GetInteger@@YA_NPAU_object@@HPAH@Z ; PyTuple_GetInteger
  00035	83 c4 0c	 add	 esp, 12			; 0000000cH
  00038	0f b6 c0	 movzx	 eax, al
  0003b	85 c0		 test	 eax, eax
  0003d	75 0a		 jne	 SHORT $LN3@wndTextSet

; 1662 : 		return Py_BuildException();

  0003f	6a 00		 push	 0
  00041	e8 00 00 00 00	 call	 ?Py_BuildException@@YAPAU_object@@PBDZZ ; Py_BuildException
  00046	59		 pop	 ecx
  00047	eb 10		 jmp	 SHORT $LN1@wndTextSet
$LN3@wndTextSet:

; 1663 : 
; 1664 : 	((UI::CTextLine*)pWindow)->SetOutline(iFlag);

  00049	ff 75 fc	 push	 DWORD PTR _iFlag$[ebp]
  0004c	8b 4d f8	 mov	 ecx, DWORD PTR _pWindow$[ebp]
  0004f	e8 00 00 00 00	 call	 ?SetOutline@CTextLine@UI@@QAEXH@Z ; UI::CTextLine::SetOutline

; 1665 : 	return Py_BuildNone();

  00054	e8 00 00 00 00	 call	 ?Py_BuildNone@@YAPAU_object@@XZ ; Py_BuildNone
$LN1@wndTextSet:

; 1666 : }

  00059	c9		 leave
  0005a	c3		 ret	 0
?wndTextSetOutline@@YAPAU_object@@PAU1@0@Z ENDP		; wndTextSetOutline
_TEXT	ENDS
; Function compile flags: /Odspy
; File D:\Metin2 Server Files\mainline\SRC_2014\Metin2Client\eterPythonLib\PythonWindowManagerModule.cpp
;	COMDAT ?wndTextSetSecret@@YAPAU_object@@PAU1@0@Z
_TEXT	SEGMENT
_pWindow$ = -8						; size = 4
_iFlag$ = -4						; size = 4
_poSelf$ = 8						; size = 4
_poArgs$ = 12						; size = 4
?wndTextSetSecret@@YAPAU_object@@PAU1@0@Z PROC		; wndTextSetSecret, COMDAT

; 1644 : {

  00000	55		 push	 ebp
  00001	8b ec		 mov	 ebp, esp
  00003	51		 push	 ecx
  00004	51		 push	 ecx

; 1645 : 	UI::CWindow * pWindow;
; 1646 : 	if (!PyTuple_GetWindow(poArgs, 0, &pWindow))

  00005	8d 45 f8	 lea	 eax, DWORD PTR _pWindow$[ebp]
  00008	50		 push	 eax
  00009	6a 00		 push	 0
  0000b	ff 75 0c	 push	 DWORD PTR _poArgs$[ebp]
  0000e	e8 00 00 00 00	 call	 ?PyTuple_GetWindow@@YA_NPAU_object@@HPAPAVCWindow@UI@@@Z ; PyTuple_GetWindow
  00013	83 c4 0c	 add	 esp, 12			; 0000000cH
  00016	0f b6 c0	 movzx	 eax, al
  00019	85 c0		 test	 eax, eax
  0001b	75 0a		 jne	 SHORT $LN2@wndTextSet

; 1647 : 		return Py_BuildException();

  0001d	6a 00		 push	 0
  0001f	e8 00 00 00 00	 call	 ?Py_BuildException@@YAPAU_object@@PBDZZ ; Py_BuildException
  00024	59		 pop	 ecx
  00025	eb 32		 jmp	 SHORT $LN1@wndTextSet
$LN2@wndTextSet:

; 1648 : 	int iFlag;
; 1649 : 	if (!PyTuple_GetInteger(poArgs, 1, &iFlag))

  00027	8d 45 fc	 lea	 eax, DWORD PTR _iFlag$[ebp]
  0002a	50		 push	 eax
  0002b	6a 01		 push	 1
  0002d	ff 75 0c	 push	 DWORD PTR _poArgs$[ebp]
  00030	e8 00 00 00 00	 call	 ?PyTuple_GetInteger@@YA_NPAU_object@@HPAH@Z ; PyTuple_GetInteger
  00035	83 c4 0c	 add	 esp, 12			; 0000000cH
  00038	0f b6 c0	 movzx	 eax, al
  0003b	85 c0		 test	 eax, eax
  0003d	75 0a		 jne	 SHORT $LN3@wndTextSet

; 1650 : 		return Py_BuildException();

  0003f	6a 00		 push	 0
  00041	e8 00 00 00 00	 call	 ?Py_BuildException@@YAPAU_object@@PBDZZ ; Py_BuildException
  00046	59		 pop	 ecx
  00047	eb 10		 jmp	 SHORT $LN1@wndTextSet
$LN3@wndTextSet:

; 1651 : 
; 1652 : 	((UI::CTextLine*)pWindow)->SetSecret(iFlag);

  00049	ff 75 fc	 push	 DWORD PTR _iFlag$[ebp]
  0004c	8b 4d f8	 mov	 ecx, DWORD PTR _pWindow$[ebp]
  0004f	e8 00 00 00 00	 call	 ?SetSecret@CTextLine@UI@@QAEXH@Z ; UI::CTextLine::SetSecret

; 1653 : 	return Py_BuildNone();

  00054	e8 00 00 00 00	 call	 ?Py_BuildNone@@YAPAU_object@@XZ ; Py_BuildNone
$LN1@wndTextSet:

; 1654 : }

  00059	c9		 leave
  0005a	c3		 ret	 0
?wndTextSetSecret@@YAPAU_object@@PAU1@0@Z ENDP		; wndTextSetSecret
_TEXT	ENDS
; Function compile flags: /Odspy
; File D:\Metin2 Server Files\mainline\SRC_2014\Metin2Client\eterPythonLib\PythonWindowManagerModule.cpp
;	COMDAT ?wndTextSetVerticalAlign@@YAPAU_object@@PAU1@0@Z
_TEXT	SEGMENT
_pWindow$ = -8						; size = 4
_iType$ = -4						; size = 4
_poSelf$ = 8						; size = 4
_poArgs$ = 12						; size = 4
?wndTextSetVerticalAlign@@YAPAU_object@@PAU1@0@Z PROC	; wndTextSetVerticalAlign, COMDAT

; 1632 : {

  00000	55		 push	 ebp
  00001	8b ec		 mov	 ebp, esp
  00003	51		 push	 ecx
  00004	51		 push	 ecx

; 1633 : 	UI::CWindow * pWindow;
; 1634 : 	if (!PyTuple_GetWindow(poArgs, 0, &pWindow))

  00005	8d 45 f8	 lea	 eax, DWORD PTR _pWindow$[ebp]
  00008	50		 push	 eax
  00009	6a 00		 push	 0
  0000b	ff 75 0c	 push	 DWORD PTR _poArgs$[ebp]
  0000e	e8 00 00 00 00	 call	 ?PyTuple_GetWindow@@YA_NPAU_object@@HPAPAVCWindow@UI@@@Z ; PyTuple_GetWindow
  00013	83 c4 0c	 add	 esp, 12			; 0000000cH
  00016	0f b6 c0	 movzx	 eax, al
  00019	85 c0		 test	 eax, eax
  0001b	75 0a		 jne	 SHORT $LN2@wndTextSet

; 1635 : 		return Py_BuildException();

  0001d	6a 00		 push	 0
  0001f	e8 00 00 00 00	 call	 ?Py_BuildException@@YAPAU_object@@PBDZZ ; Py_BuildException
  00024	59		 pop	 ecx
  00025	eb 32		 jmp	 SHORT $LN1@wndTextSet
$LN2@wndTextSet:

; 1636 : 	int iType;
; 1637 : 	if (!PyTuple_GetInteger(poArgs, 1, &iType))

  00027	8d 45 fc	 lea	 eax, DWORD PTR _iType$[ebp]
  0002a	50		 push	 eax
  0002b	6a 01		 push	 1
  0002d	ff 75 0c	 push	 DWORD PTR _poArgs$[ebp]
  00030	e8 00 00 00 00	 call	 ?PyTuple_GetInteger@@YA_NPAU_object@@HPAH@Z ; PyTuple_GetInteger
  00035	83 c4 0c	 add	 esp, 12			; 0000000cH
  00038	0f b6 c0	 movzx	 eax, al
  0003b	85 c0		 test	 eax, eax
  0003d	75 0a		 jne	 SHORT $LN3@wndTextSet

; 1638 : 		return Py_BuildException();

  0003f	6a 00		 push	 0
  00041	e8 00 00 00 00	 call	 ?Py_BuildException@@YAPAU_object@@PBDZZ ; Py_BuildException
  00046	59		 pop	 ecx
  00047	eb 10		 jmp	 SHORT $LN1@wndTextSet
$LN3@wndTextSet:

; 1639 : 
; 1640 : 	((UI::CTextLine*)pWindow)->SetVerticalAlign(iType);

  00049	ff 75 fc	 push	 DWORD PTR _iType$[ebp]
  0004c	8b 4d f8	 mov	 ecx, DWORD PTR _pWindow$[ebp]
  0004f	e8 00 00 00 00	 call	 ?SetVerticalAlign@CTextLine@UI@@QAEXH@Z ; UI::CTextLine::SetVerticalAlign

; 1641 : 	return Py_BuildNone();

  00054	e8 00 00 00 00	 call	 ?Py_BuildNone@@YAPAU_object@@XZ ; Py_BuildNone
$LN1@wndTextSet:

; 1642 : }

  00059	c9		 leave
  0005a	c3		 ret	 0
?wndTextSetVerticalAlign@@YAPAU_object@@PAU1@0@Z ENDP	; wndTextSetVerticalAlign
_TEXT	ENDS
; Function compile flags: /Odspy
; File D:\Metin2 Server Files\mainline\SRC_2014\Metin2Client\eterPythonLib\PythonWindowManagerModule.cpp
;	COMDAT ?wndTextSetHorizontalAlign@@YAPAU_object@@PAU1@0@Z
_TEXT	SEGMENT
_pWindow$ = -8						; size = 4
_iType$ = -4						; size = 4
_poSelf$ = 8						; size = 4
_poArgs$ = 12						; size = 4
?wndTextSetHorizontalAlign@@YAPAU_object@@PAU1@0@Z PROC	; wndTextSetHorizontalAlign, COMDAT

; 1620 : {

  00000	55		 push	 ebp
  00001	8b ec		 mov	 ebp, esp
  00003	51		 push	 ecx
  00004	51		 push	 ecx

; 1621 : 	UI::CWindow * pWindow;
; 1622 : 	if (!PyTuple_GetWindow(poArgs, 0, &pWindow))

  00005	8d 45 f8	 lea	 eax, DWORD PTR _pWindow$[ebp]
  00008	50		 push	 eax
  00009	6a 00		 push	 0
  0000b	ff 75 0c	 push	 DWORD PTR _poArgs$[ebp]
  0000e	e8 00 00 00 00	 call	 ?PyTuple_GetWindow@@YA_NPAU_object@@HPAPAVCWindow@UI@@@Z ; PyTuple_GetWindow
  00013	83 c4 0c	 add	 esp, 12			; 0000000cH
  00016	0f b6 c0	 movzx	 eax, al
  00019	85 c0		 test	 eax, eax
  0001b	75 0a		 jne	 SHORT $LN2@wndTextSet

; 1623 : 		return Py_BuildException();

  0001d	6a 00		 push	 0
  0001f	e8 00 00 00 00	 call	 ?Py_BuildException@@YAPAU_object@@PBDZZ ; Py_BuildException
  00024	59		 pop	 ecx
  00025	eb 32		 jmp	 SHORT $LN1@wndTextSet
$LN2@wndTextSet:

; 1624 : 	int iType;
; 1625 : 	if (!PyTuple_GetInteger(poArgs, 1, &iType))

  00027	8d 45 fc	 lea	 eax, DWORD PTR _iType$[ebp]
  0002a	50		 push	 eax
  0002b	6a 01		 push	 1
  0002d	ff 75 0c	 push	 DWORD PTR _poArgs$[ebp]
  00030	e8 00 00 00 00	 call	 ?PyTuple_GetInteger@@YA_NPAU_object@@HPAH@Z ; PyTuple_GetInteger
  00035	83 c4 0c	 add	 esp, 12			; 0000000cH
  00038	0f b6 c0	 movzx	 eax, al
  0003b	85 c0		 test	 eax, eax
  0003d	75 0a		 jne	 SHORT $LN3@wndTextSet

; 1626 : 		return Py_BuildException();

  0003f	6a 00		 push	 0
  00041	e8 00 00 00 00	 call	 ?Py_BuildException@@YAPAU_object@@PBDZZ ; Py_BuildException
  00046	59		 pop	 ecx
  00047	eb 10		 jmp	 SHORT $LN1@wndTextSet
$LN3@wndTextSet:

; 1627 : 
; 1628 : 	((UI::CTextLine*)pWindow)->SetHorizontalAlign(iType);

  00049	ff 75 fc	 push	 DWORD PTR _iType$[ebp]
  0004c	8b 4d f8	 mov	 ecx, DWORD PTR _pWindow$[ebp]
  0004f	e8 00 00 00 00	 call	 ?SetHorizontalAlign@CTextLine@UI@@QAEXH@Z ; UI::CTextLine::SetHorizontalAlign

; 1629 : 	return Py_BuildNone();

  00054	e8 00 00 00 00	 call	 ?Py_BuildNone@@YAPAU_object@@XZ ; Py_BuildNone
$LN1@wndTextSet:

; 1630 : }

  00059	c9		 leave
  0005a	c3		 ret	 0
?wndTextSetHorizontalAlign@@YAPAU_object@@PAU1@0@Z ENDP	; wndTextSetHorizontalAlign
_TEXT	ENDS
; Function compile flags: /Odspy
; File D:\Metin2 Server Files\mainline\SRC_2014\Metin2Client\eterPythonLib\PythonWindowManagerModule.cpp
;	COMDAT ?wndTextSetMax@@YAPAU_object@@PAU1@0@Z
_TEXT	SEGMENT
_pWindow$ = -8						; size = 4
_iMax$ = -4						; size = 4
_poSelf$ = 8						; size = 4
_poArgs$ = 12						; size = 4
?wndTextSetMax@@YAPAU_object@@PAU1@0@Z PROC		; wndTextSetMax, COMDAT

; 1608 : {

  00000	55		 push	 ebp
  00001	8b ec		 mov	 ebp, esp
  00003	51		 push	 ecx
  00004	51		 push	 ecx

; 1609 : 	UI::CWindow * pWindow;
; 1610 : 	if (!PyTuple_GetWindow(poArgs, 0, &pWindow))

  00005	8d 45 f8	 lea	 eax, DWORD PTR _pWindow$[ebp]
  00008	50		 push	 eax
  00009	6a 00		 push	 0
  0000b	ff 75 0c	 push	 DWORD PTR _poArgs$[ebp]
  0000e	e8 00 00 00 00	 call	 ?PyTuple_GetWindow@@YA_NPAU_object@@HPAPAVCWindow@UI@@@Z ; PyTuple_GetWindow
  00013	83 c4 0c	 add	 esp, 12			; 0000000cH
  00016	0f b6 c0	 movzx	 eax, al
  00019	85 c0		 test	 eax, eax
  0001b	75 0a		 jne	 SHORT $LN2@wndTextSet

; 1611 : 		return Py_BuildException();

  0001d	6a 00		 push	 0
  0001f	e8 00 00 00 00	 call	 ?Py_BuildException@@YAPAU_object@@PBDZZ ; Py_BuildException
  00024	59		 pop	 ecx
  00025	eb 32		 jmp	 SHORT $LN1@wndTextSet
$LN2@wndTextSet:

; 1612 : 	int iMax;
; 1613 : 	if (!PyTuple_GetInteger(poArgs, 1, &iMax))

  00027	8d 45 fc	 lea	 eax, DWORD PTR _iMax$[ebp]
  0002a	50		 push	 eax
  0002b	6a 01		 push	 1
  0002d	ff 75 0c	 push	 DWORD PTR _poArgs$[ebp]
  00030	e8 00 00 00 00	 call	 ?PyTuple_GetInteger@@YA_NPAU_object@@HPAH@Z ; PyTuple_GetInteger
  00035	83 c4 0c	 add	 esp, 12			; 0000000cH
  00038	0f b6 c0	 movzx	 eax, al
  0003b	85 c0		 test	 eax, eax
  0003d	75 0a		 jne	 SHORT $LN3@wndTextSet

; 1614 : 		return Py_BuildException();

  0003f	6a 00		 push	 0
  00041	e8 00 00 00 00	 call	 ?Py_BuildException@@YAPAU_object@@PBDZZ ; Py_BuildException
  00046	59		 pop	 ecx
  00047	eb 10		 jmp	 SHORT $LN1@wndTextSet
$LN3@wndTextSet:

; 1615 : 
; 1616 : 	((UI::CTextLine*)pWindow)->SetMax(iMax);

  00049	ff 75 fc	 push	 DWORD PTR _iMax$[ebp]
  0004c	8b 4d f8	 mov	 ecx, DWORD PTR _pWindow$[ebp]
  0004f	e8 00 00 00 00	 call	 ?SetMax@CTextLine@UI@@QAEXH@Z ; UI::CTextLine::SetMax

; 1617 : 	return Py_BuildNone();

  00054	e8 00 00 00 00	 call	 ?Py_BuildNone@@YAPAU_object@@XZ ; Py_BuildNone
$LN1@wndTextSet:

; 1618 : }

  00059	c9		 leave
  0005a	c3		 ret	 0
?wndTextSetMax@@YAPAU_object@@PAU1@0@Z ENDP		; wndTextSetMax
_TEXT	ENDS
; Function compile flags: /Odspy
; File D:\Metin2 Server Files\mainline\SRC_2014\Metin2Client\eterPythonLib\PythonWindowManagerModule.cpp
;	COMDAT ?wndMgrSetAttachingFlag@@YAPAU_object@@PAU1@0@Z
_TEXT	SEGMENT
_bFlag$ = -4						; size = 4
_poSelf$ = 8						; size = 4
_poArgs$ = 12						; size = 4
?wndMgrSetAttachingFlag@@YAPAU_object@@PAU1@0@Z PROC	; wndMgrSetAttachingFlag, COMDAT

; 1597 : {

  00000	55		 push	 ebp
  00001	8b ec		 mov	 ebp, esp
  00003	51		 push	 ecx

; 1598 : 	BOOL bFlag;
; 1599 : 	if (!PyTuple_GetInteger(poArgs, 0, &bFlag))

  00004	8d 45 fc	 lea	 eax, DWORD PTR _bFlag$[ebp]
  00007	50		 push	 eax
  00008	6a 00		 push	 0
  0000a	ff 75 0c	 push	 DWORD PTR _poArgs$[ebp]
  0000d	e8 00 00 00 00	 call	 ?PyTuple_GetInteger@@YA_NPAU_object@@HPAH@Z ; PyTuple_GetInteger
  00012	83 c4 0c	 add	 esp, 12			; 0000000cH
  00015	0f b6 c0	 movzx	 eax, al
  00018	85 c0		 test	 eax, eax
  0001a	75 0a		 jne	 SHORT $LN4@wndMgrSetA

; 1600 : 		return Py_BuildException();

  0001c	6a 00		 push	 0
  0001e	e8 00 00 00 00	 call	 ?Py_BuildException@@YAPAU_object@@PBDZZ ; Py_BuildException
  00023	59		 pop	 ecx
  00024	eb 13		 jmp	 SHORT $LN1@wndMgrSetA
$LN4@wndMgrSetA:

; 1601 : 
; 1602 : 	UI::CWindowManager::Instance().SetAttachingFlag(bFlag);

  00026	ff 75 fc	 push	 DWORD PTR _bFlag$[ebp]
  00029	8b 0d 00 00 00
	00		 mov	 ecx, DWORD PTR ?ms_singleton@?$CSingleton@VCWindowManager@UI@@@@0PAVCWindowManager@UI@@A ; CSingleton<UI::CWindowManager>::ms_singleton
  0002f	e8 00 00 00 00	 call	 ?SetAttachingFlag@CWindowManager@UI@@QAEXH@Z ; UI::CWindowManager::SetAttachingFlag

; 1603 : 	return Py_BuildNone();

  00034	e8 00 00 00 00	 call	 ?Py_BuildNone@@YAPAU_object@@XZ ; Py_BuildNone
$LN1@wndMgrSetA:

; 1604 : }

  00039	c9		 leave
  0003a	c3		 ret	 0
?wndMgrSetAttachingFlag@@YAPAU_object@@PAU1@0@Z ENDP	; wndMgrSetAttachingFlag
_TEXT	ENDS
; Function compile flags: /Odspy
; File D:\Metin2 Server Files\mainline\SRC_2014\Metin2Client\eterPythonLib\PythonWindowManagerModule.cpp
;	COMDAT ?wndMgrDeattachIcon@@YAPAU_object@@PAU1@0@Z
_TEXT	SEGMENT
_poSelf$ = 8						; size = 4
_poArgs$ = 12						; size = 4
?wndMgrDeattachIcon@@YAPAU_object@@PAU1@0@Z PROC	; wndMgrDeattachIcon, COMDAT

; 1591 : {

  00000	55		 push	 ebp
  00001	8b ec		 mov	 ebp, esp

; 1592 : 	UI::CWindowManager::Instance().DeattachIcon();

  00003	8b 0d 00 00 00
	00		 mov	 ecx, DWORD PTR ?ms_singleton@?$CSingleton@VCWindowManager@UI@@@@0PAVCWindowManager@UI@@A ; CSingleton<UI::CWindowManager>::ms_singleton
  00009	e8 00 00 00 00	 call	 ?DeattachIcon@CWindowManager@UI@@QAEXXZ ; UI::CWindowManager::DeattachIcon

; 1593 : 	return Py_BuildNone();

  0000e	e8 00 00 00 00	 call	 ?Py_BuildNone@@YAPAU_object@@XZ ; Py_BuildNone

; 1594 : }

  00013	5d		 pop	 ebp
  00014	c3		 ret	 0
?wndMgrDeattachIcon@@YAPAU_object@@PAU1@0@Z ENDP	; wndMgrDeattachIcon
_TEXT	ENDS
; Function compile flags: /Odspy
; File D:\Metin2 Server Files\mainline\SRC_2014\Metin2Client\eterPythonLib\PythonWindowManagerModule.cpp
;	COMDAT ?wndMgrAttachIcon@@YAPAU_object@@PAU1@0@Z
_TEXT	SEGMENT
_iType$ = -20						; size = 4
_iIndex$ = -16						; size = 4
_iSlotNumber$ = -12					; size = 4
_iWidth$ = -8						; size = 4
_iHeight$ = -4						; size = 4
_poSelf$ = 8						; size = 4
_poArgs$ = 12						; size = 4
?wndMgrAttachIcon@@YAPAU_object@@PAU1@0@Z PROC		; wndMgrAttachIcon, COMDAT

; 1569 : {

  00000	55		 push	 ebp
  00001	8b ec		 mov	 ebp, esp
  00003	83 ec 14	 sub	 esp, 20			; 00000014H

; 1570 : 	int iType;
; 1571 : 	if (!PyTuple_GetInteger(poArgs, 0, &iType))

  00006	8d 45 ec	 lea	 eax, DWORD PTR _iType$[ebp]
  00009	50		 push	 eax
  0000a	6a 00		 push	 0
  0000c	ff 75 0c	 push	 DWORD PTR _poArgs$[ebp]
  0000f	e8 00 00 00 00	 call	 ?PyTuple_GetInteger@@YA_NPAU_object@@HPAH@Z ; PyTuple_GetInteger
  00014	83 c4 0c	 add	 esp, 12			; 0000000cH
  00017	0f b6 c0	 movzx	 eax, al
  0001a	85 c0		 test	 eax, eax
  0001c	75 0d		 jne	 SHORT $LN2@wndMgrAtta

; 1572 : 		return Py_BuildException();

  0001e	6a 00		 push	 0
  00020	e8 00 00 00 00	 call	 ?Py_BuildException@@YAPAU_object@@PBDZZ ; Py_BuildException
  00025	59		 pop	 ecx
  00026	e9 aa 00 00 00	 jmp	 $LN1@wndMgrAtta
$LN2@wndMgrAtta:

; 1573 : 	int iIndex;
; 1574 : 	if (!PyTuple_GetInteger(poArgs, 1, &iIndex))

  0002b	8d 45 f0	 lea	 eax, DWORD PTR _iIndex$[ebp]
  0002e	50		 push	 eax
  0002f	6a 01		 push	 1
  00031	ff 75 0c	 push	 DWORD PTR _poArgs$[ebp]
  00034	e8 00 00 00 00	 call	 ?PyTuple_GetInteger@@YA_NPAU_object@@HPAH@Z ; PyTuple_GetInteger
  00039	83 c4 0c	 add	 esp, 12			; 0000000cH
  0003c	0f b6 c0	 movzx	 eax, al
  0003f	85 c0		 test	 eax, eax
  00041	75 0d		 jne	 SHORT $LN3@wndMgrAtta

; 1575 : 		return Py_BuildException();

  00043	6a 00		 push	 0
  00045	e8 00 00 00 00	 call	 ?Py_BuildException@@YAPAU_object@@PBDZZ ; Py_BuildException
  0004a	59		 pop	 ecx
  0004b	e9 85 00 00 00	 jmp	 $LN1@wndMgrAtta
$LN3@wndMgrAtta:

; 1576 : 	int iSlotNumber;
; 1577 : 	if (!PyTuple_GetInteger(poArgs, 2, &iSlotNumber))

  00050	8d 45 f4	 lea	 eax, DWORD PTR _iSlotNumber$[ebp]
  00053	50		 push	 eax
  00054	6a 02		 push	 2
  00056	ff 75 0c	 push	 DWORD PTR _poArgs$[ebp]
  00059	e8 00 00 00 00	 call	 ?PyTuple_GetInteger@@YA_NPAU_object@@HPAH@Z ; PyTuple_GetInteger
  0005e	83 c4 0c	 add	 esp, 12			; 0000000cH
  00061	0f b6 c0	 movzx	 eax, al
  00064	85 c0		 test	 eax, eax
  00066	75 0a		 jne	 SHORT $LN4@wndMgrAtta

; 1578 : 		return Py_BuildException();

  00068	6a 00		 push	 0
  0006a	e8 00 00 00 00	 call	 ?Py_BuildException@@YAPAU_object@@PBDZZ ; Py_BuildException
  0006f	59		 pop	 ecx
  00070	eb 63		 jmp	 SHORT $LN1@wndMgrAtta
$LN4@wndMgrAtta:

; 1579 : 	int iWidth;
; 1580 : 	if (!PyTuple_GetInteger(poArgs, 3, &iWidth))

  00072	8d 45 f8	 lea	 eax, DWORD PTR _iWidth$[ebp]
  00075	50		 push	 eax
  00076	6a 03		 push	 3
  00078	ff 75 0c	 push	 DWORD PTR _poArgs$[ebp]
  0007b	e8 00 00 00 00	 call	 ?PyTuple_GetInteger@@YA_NPAU_object@@HPAH@Z ; PyTuple_GetInteger
  00080	83 c4 0c	 add	 esp, 12			; 0000000cH
  00083	0f b6 c0	 movzx	 eax, al
  00086	85 c0		 test	 eax, eax
  00088	75 0a		 jne	 SHORT $LN5@wndMgrAtta

; 1581 : 		return Py_BuildException();

  0008a	6a 00		 push	 0
  0008c	e8 00 00 00 00	 call	 ?Py_BuildException@@YAPAU_object@@PBDZZ ; Py_BuildException
  00091	59		 pop	 ecx
  00092	eb 41		 jmp	 SHORT $LN1@wndMgrAtta
$LN5@wndMgrAtta:

; 1582 : 	int iHeight;
; 1583 : 	if (!PyTuple_GetInteger(poArgs, 4, &iHeight))

  00094	8d 45 fc	 lea	 eax, DWORD PTR _iHeight$[ebp]
  00097	50		 push	 eax
  00098	6a 04		 push	 4
  0009a	ff 75 0c	 push	 DWORD PTR _poArgs$[ebp]
  0009d	e8 00 00 00 00	 call	 ?PyTuple_GetInteger@@YA_NPAU_object@@HPAH@Z ; PyTuple_GetInteger
  000a2	83 c4 0c	 add	 esp, 12			; 0000000cH
  000a5	0f b6 c0	 movzx	 eax, al
  000a8	85 c0		 test	 eax, eax
  000aa	75 0a		 jne	 SHORT $LN8@wndMgrAtta

; 1584 : 		return Py_BuildException();

  000ac	6a 00		 push	 0
  000ae	e8 00 00 00 00	 call	 ?Py_BuildException@@YAPAU_object@@PBDZZ ; Py_BuildException
  000b3	59		 pop	 ecx
  000b4	eb 1f		 jmp	 SHORT $LN1@wndMgrAtta
$LN8@wndMgrAtta:

; 1585 : 
; 1586 : 	UI::CWindowManager::Instance().AttachIcon(iType, iIndex, iSlotNumber, iWidth, iHeight);

  000b6	ff 75 fc	 push	 DWORD PTR _iHeight$[ebp]
  000b9	ff 75 f8	 push	 DWORD PTR _iWidth$[ebp]
  000bc	ff 75 f4	 push	 DWORD PTR _iSlotNumber$[ebp]
  000bf	ff 75 f0	 push	 DWORD PTR _iIndex$[ebp]
  000c2	ff 75 ec	 push	 DWORD PTR _iType$[ebp]
  000c5	8b 0d 00 00 00
	00		 mov	 ecx, DWORD PTR ?ms_singleton@?$CSingleton@VCWindowManager@UI@@@@0PAVCWindowManager@UI@@A ; CSingleton<UI::CWindowManager>::ms_singleton
  000cb	e8 00 00 00 00	 call	 ?AttachIcon@CWindowManager@UI@@QAEXKKKEE@Z ; UI::CWindowManager::AttachIcon

; 1587 : 	return Py_BuildNone();

  000d0	e8 00 00 00 00	 call	 ?Py_BuildNone@@YAPAU_object@@XZ ; Py_BuildNone
$LN1@wndMgrAtta:

; 1588 : }

  000d5	c9		 leave
  000d6	c3		 ret	 0
?wndMgrAttachIcon@@YAPAU_object@@PAU1@0@Z ENDP		; wndMgrAttachIcon
_TEXT	ENDS
; Function compile flags: /Odspy
; File D:\Metin2 Server Files\mainline\SRC_2014\Metin2Client\eterPythonLib\PythonWindowManagerModule.cpp
;	COMDAT ?wndBarSetColor@@YAPAU_object@@PAU1@0@Z
_TEXT	SEGMENT
_iLeftColor$1 = -20					; size = 4
_iRightColor$2 = -16					; size = 4
_iCenterColor$3 = -12					; size = 4
_iColor$ = -8						; size = 4
_pWindow$ = -4						; size = 4
_poSelf$ = 8						; size = 4
_poArgs$ = 12						; size = 4
?wndBarSetColor@@YAPAU_object@@PAU1@0@Z PROC		; wndBarSetColor, COMDAT

; 1540 : {

  00000	55		 push	 ebp
  00001	8b ec		 mov	 ebp, esp
  00003	83 ec 14	 sub	 esp, 20			; 00000014H

; 1541 : 	UI::CWindow * pWindow;
; 1542 : 	if (!PyTuple_GetWindow(poArgs, 0, &pWindow))

  00006	8d 45 fc	 lea	 eax, DWORD PTR _pWindow$[ebp]
  00009	50		 push	 eax
  0000a	6a 00		 push	 0
  0000c	ff 75 0c	 push	 DWORD PTR _poArgs$[ebp]
  0000f	e8 00 00 00 00	 call	 ?PyTuple_GetWindow@@YA_NPAU_object@@HPAPAVCWindow@UI@@@Z ; PyTuple_GetWindow
  00014	83 c4 0c	 add	 esp, 12			; 0000000cH
  00017	0f b6 c0	 movzx	 eax, al
  0001a	85 c0		 test	 eax, eax
  0001c	75 0d		 jne	 SHORT $LN2@wndBarSetC

; 1543 : 		return Py_BuildException();

  0001e	6a 00		 push	 0
  00020	e8 00 00 00 00	 call	 ?Py_BuildException@@YAPAU_object@@PBDZZ ; Py_BuildException
  00025	59		 pop	 ecx
  00026	e9 aa 00 00 00	 jmp	 $LN1@wndBarSetC
$LN2@wndBarSetC:

; 1544 : 	int iColor;
; 1545 : 	if (!PyTuple_GetInteger(poArgs, 1, &iColor))

  0002b	8d 45 f8	 lea	 eax, DWORD PTR _iColor$[ebp]
  0002e	50		 push	 eax
  0002f	6a 01		 push	 1
  00031	ff 75 0c	 push	 DWORD PTR _poArgs$[ebp]
  00034	e8 00 00 00 00	 call	 ?PyTuple_GetInteger@@YA_NPAU_object@@HPAH@Z ; PyTuple_GetInteger
  00039	83 c4 0c	 add	 esp, 12			; 0000000cH
  0003c	0f b6 c0	 movzx	 eax, al
  0003f	85 c0		 test	 eax, eax
  00041	75 0d		 jne	 SHORT $LN3@wndBarSetC

; 1546 : 		return Py_BuildException();

  00043	6a 00		 push	 0
  00045	e8 00 00 00 00	 call	 ?Py_BuildException@@YAPAU_object@@PBDZZ ; Py_BuildException
  0004a	59		 pop	 ecx
  0004b	e9 85 00 00 00	 jmp	 $LN1@wndBarSetC
$LN3@wndBarSetC:

; 1547 : 
; 1548 : 	if (pWindow->IsType(UI::CBar3D::Type()))

  00050	e8 00 00 00 00	 call	 ?Type@CBar3D@UI@@SAKXZ	; UI::CBar3D::Type
  00055	50		 push	 eax
  00056	8b 4d fc	 mov	 ecx, DWORD PTR _pWindow$[ebp]
  00059	e8 00 00 00 00	 call	 ?IsType@CWindow@UI@@QAEHK@Z ; UI::CWindow::IsType
  0005e	85 c0		 test	 eax, eax
  00060	74 5d		 je	 SHORT $LN4@wndBarSetC

; 1549 : 	{
; 1550 : 		int iLeftColor = iColor;

  00062	8b 45 f8	 mov	 eax, DWORD PTR _iColor$[ebp]
  00065	89 45 ec	 mov	 DWORD PTR _iLeftColor$1[ebp], eax

; 1551 : 
; 1552 : 		int iRightColor;
; 1553 : 		if (!PyTuple_GetInteger(poArgs, 2, &iRightColor))

  00068	8d 45 f0	 lea	 eax, DWORD PTR _iRightColor$2[ebp]
  0006b	50		 push	 eax
  0006c	6a 02		 push	 2
  0006e	ff 75 0c	 push	 DWORD PTR _poArgs$[ebp]
  00071	e8 00 00 00 00	 call	 ?PyTuple_GetInteger@@YA_NPAU_object@@HPAH@Z ; PyTuple_GetInteger
  00076	83 c4 0c	 add	 esp, 12			; 0000000cH
  00079	0f b6 c0	 movzx	 eax, al
  0007c	85 c0		 test	 eax, eax
  0007e	75 0a		 jne	 SHORT $LN6@wndBarSetC

; 1554 : 			return Py_BuildException();

  00080	6a 00		 push	 0
  00082	e8 00 00 00 00	 call	 ?Py_BuildException@@YAPAU_object@@PBDZZ ; Py_BuildException
  00087	59		 pop	 ecx
  00088	eb 4b		 jmp	 SHORT $LN1@wndBarSetC
$LN6@wndBarSetC:

; 1555 : 		int iCenterColor;
; 1556 : 		if (!PyTuple_GetInteger(poArgs, 3, &iCenterColor))

  0008a	8d 45 f4	 lea	 eax, DWORD PTR _iCenterColor$3[ebp]
  0008d	50		 push	 eax
  0008e	6a 03		 push	 3
  00090	ff 75 0c	 push	 DWORD PTR _poArgs$[ebp]
  00093	e8 00 00 00 00	 call	 ?PyTuple_GetInteger@@YA_NPAU_object@@HPAH@Z ; PyTuple_GetInteger
  00098	83 c4 0c	 add	 esp, 12			; 0000000cH
  0009b	0f b6 c0	 movzx	 eax, al
  0009e	85 c0		 test	 eax, eax
  000a0	75 0a		 jne	 SHORT $LN7@wndBarSetC

; 1557 : 			return Py_BuildException();

  000a2	6a 00		 push	 0
  000a4	e8 00 00 00 00	 call	 ?Py_BuildException@@YAPAU_object@@PBDZZ ; Py_BuildException
  000a9	59		 pop	 ecx
  000aa	eb 29		 jmp	 SHORT $LN1@wndBarSetC
$LN7@wndBarSetC:

; 1558 : 
; 1559 : 		((UI::CBar3D *)pWindow)->SetColor(iLeftColor, iRightColor, iCenterColor);

  000ac	ff 75 f4	 push	 DWORD PTR _iCenterColor$3[ebp]
  000af	ff 75 f0	 push	 DWORD PTR _iRightColor$2[ebp]
  000b2	ff 75 ec	 push	 DWORD PTR _iLeftColor$1[ebp]
  000b5	8b 4d fc	 mov	 ecx, DWORD PTR _pWindow$[ebp]
  000b8	e8 00 00 00 00	 call	 ?SetColor@CBar3D@UI@@QAEXKKK@Z ; UI::CBar3D::SetColor

; 1560 : 	}

  000bd	eb 11		 jmp	 SHORT $LN5@wndBarSetC
$LN4@wndBarSetC:

; 1561 : 	else
; 1562 : 	{
; 1563 : 		((UI::CWindow *)pWindow)->SetColor(iColor);

  000bf	ff 75 f8	 push	 DWORD PTR _iColor$[ebp]
  000c2	8b 45 fc	 mov	 eax, DWORD PTR _pWindow$[ebp]
  000c5	8b 00		 mov	 eax, DWORD PTR [eax]
  000c7	8b 4d fc	 mov	 ecx, DWORD PTR _pWindow$[ebp]
  000ca	ff 90 88 00 00
	00		 call	 DWORD PTR [eax+136]
$LN5@wndBarSetC:

; 1564 : 	}
; 1565 : 	return Py_BuildNone();

  000d0	e8 00 00 00 00	 call	 ?Py_BuildNone@@YAPAU_object@@XZ ; Py_BuildNone
$LN1@wndBarSetC:

; 1566 : }

  000d5	c9		 leave
  000d6	c3		 ret	 0
?wndBarSetColor@@YAPAU_object@@PAU1@0@Z ENDP		; wndBarSetColor
_TEXT	ENDS
; Function compile flags: /Odspy
; File D:\Metin2 Server Files\mainline\SRC_2014\Metin2Client\eterPythonLib\PythonWindowManagerModule.cpp
;	COMDAT ?wndMgrUnlockSlot@@YAPAU_object@@PAU1@0@Z
_TEXT	SEGMENT
_pSlotWin$ = -12					; size = 4
_iSlotIndex$ = -8					; size = 4
_pWin$ = -4						; size = 4
_poSelf$ = 8						; size = 4
_poArgs$ = 12						; size = 4
?wndMgrUnlockSlot@@YAPAU_object@@PAU1@0@Z PROC		; wndMgrUnlockSlot, COMDAT

; 1523 : {

  00000	55		 push	 ebp
  00001	8b ec		 mov	 ebp, esp
  00003	83 ec 0c	 sub	 esp, 12			; 0000000cH

; 1524 : 	UI::CWindow * pWin;
; 1525 : 	if (!PyTuple_GetWindow(poArgs, 0, &pWin))

  00006	8d 45 fc	 lea	 eax, DWORD PTR _pWin$[ebp]
  00009	50		 push	 eax
  0000a	6a 00		 push	 0
  0000c	ff 75 0c	 push	 DWORD PTR _poArgs$[ebp]
  0000f	e8 00 00 00 00	 call	 ?PyTuple_GetWindow@@YA_NPAU_object@@HPAPAVCWindow@UI@@@Z ; PyTuple_GetWindow
  00014	83 c4 0c	 add	 esp, 12			; 0000000cH
  00017	0f b6 c0	 movzx	 eax, al
  0001a	85 c0		 test	 eax, eax
  0001c	75 0a		 jne	 SHORT $LN2@wndMgrUnlo

; 1526 : 		return Py_BuildException();

  0001e	6a 00		 push	 0
  00020	e8 00 00 00 00	 call	 ?Py_BuildException@@YAPAU_object@@PBDZZ ; Py_BuildException
  00025	59		 pop	 ecx
  00026	eb 54		 jmp	 SHORT $LN1@wndMgrUnlo
$LN2@wndMgrUnlo:

; 1527 : 	int iSlotIndex;
; 1528 : 	if (!PyTuple_GetInteger(poArgs, 1, &iSlotIndex))

  00028	8d 45 f8	 lea	 eax, DWORD PTR _iSlotIndex$[ebp]
  0002b	50		 push	 eax
  0002c	6a 01		 push	 1
  0002e	ff 75 0c	 push	 DWORD PTR _poArgs$[ebp]
  00031	e8 00 00 00 00	 call	 ?PyTuple_GetInteger@@YA_NPAU_object@@HPAH@Z ; PyTuple_GetInteger
  00036	83 c4 0c	 add	 esp, 12			; 0000000cH
  00039	0f b6 c0	 movzx	 eax, al
  0003c	85 c0		 test	 eax, eax
  0003e	75 0a		 jne	 SHORT $LN3@wndMgrUnlo

; 1529 : 		return Py_BuildException();

  00040	6a 00		 push	 0
  00042	e8 00 00 00 00	 call	 ?Py_BuildException@@YAPAU_object@@PBDZZ ; Py_BuildException
  00047	59		 pop	 ecx
  00048	eb 32		 jmp	 SHORT $LN1@wndMgrUnlo
$LN3@wndMgrUnlo:

; 1530 : 
; 1531 : 	if (!pWin->IsType(UI::CSlotWindow::Type()))

  0004a	e8 00 00 00 00	 call	 ?Type@CSlotWindow@UI@@SAKXZ ; UI::CSlotWindow::Type
  0004f	50		 push	 eax
  00050	8b 4d fc	 mov	 ecx, DWORD PTR _pWin$[ebp]
  00053	e8 00 00 00 00	 call	 ?IsType@CWindow@UI@@QAEHK@Z ; UI::CWindow::IsType
  00058	85 c0		 test	 eax, eax
  0005a	75 0a		 jne	 SHORT $LN4@wndMgrUnlo

; 1532 : 		return Py_BuildException();

  0005c	6a 00		 push	 0
  0005e	e8 00 00 00 00	 call	 ?Py_BuildException@@YAPAU_object@@PBDZZ ; Py_BuildException
  00063	59		 pop	 ecx
  00064	eb 16		 jmp	 SHORT $LN1@wndMgrUnlo
$LN4@wndMgrUnlo:

; 1533 : 
; 1534 : 	UI::CSlotWindow * pSlotWin = (UI::CSlotWindow *)pWin;

  00066	8b 45 fc	 mov	 eax, DWORD PTR _pWin$[ebp]
  00069	89 45 f4	 mov	 DWORD PTR _pSlotWin$[ebp], eax

; 1535 : 	pSlotWin->UnlockSlot(iSlotIndex);

  0006c	ff 75 f8	 push	 DWORD PTR _iSlotIndex$[ebp]
  0006f	8b 4d f4	 mov	 ecx, DWORD PTR _pSlotWin$[ebp]
  00072	e8 00 00 00 00	 call	 ?UnlockSlot@CSlotWindow@UI@@QAEXK@Z ; UI::CSlotWindow::UnlockSlot

; 1536 : 	return Py_BuildNone();

  00077	e8 00 00 00 00	 call	 ?Py_BuildNone@@YAPAU_object@@XZ ; Py_BuildNone
$LN1@wndMgrUnlo:

; 1537 : }

  0007c	c9		 leave
  0007d	c3		 ret	 0
?wndMgrUnlockSlot@@YAPAU_object@@PAU1@0@Z ENDP		; wndMgrUnlockSlot
_TEXT	ENDS
; Function compile flags: /Odspy
; File D:\Metin2 Server Files\mainline\SRC_2014\Metin2Client\eterPythonLib\PythonWindowManagerModule.cpp
;	COMDAT ?wndMgrLockSlot@@YAPAU_object@@PAU1@0@Z
_TEXT	SEGMENT
_pSlotWin$ = -12					; size = 4
_iSlotIndex$ = -8					; size = 4
_pWin$ = -4						; size = 4
_poSelf$ = 8						; size = 4
_poArgs$ = 12						; size = 4
?wndMgrLockSlot@@YAPAU_object@@PAU1@0@Z PROC		; wndMgrLockSlot, COMDAT

; 1506 : {

  00000	55		 push	 ebp
  00001	8b ec		 mov	 ebp, esp
  00003	83 ec 0c	 sub	 esp, 12			; 0000000cH

; 1507 : 	UI::CWindow * pWin;
; 1508 : 	if (!PyTuple_GetWindow(poArgs, 0, &pWin))

  00006	8d 45 fc	 lea	 eax, DWORD PTR _pWin$[ebp]
  00009	50		 push	 eax
  0000a	6a 00		 push	 0
  0000c	ff 75 0c	 push	 DWORD PTR _poArgs$[ebp]
  0000f	e8 00 00 00 00	 call	 ?PyTuple_GetWindow@@YA_NPAU_object@@HPAPAVCWindow@UI@@@Z ; PyTuple_GetWindow
  00014	83 c4 0c	 add	 esp, 12			; 0000000cH
  00017	0f b6 c0	 movzx	 eax, al
  0001a	85 c0		 test	 eax, eax
  0001c	75 0a		 jne	 SHORT $LN2@wndMgrLock

; 1509 : 		return Py_BuildException();

  0001e	6a 00		 push	 0
  00020	e8 00 00 00 00	 call	 ?Py_BuildException@@YAPAU_object@@PBDZZ ; Py_BuildException
  00025	59		 pop	 ecx
  00026	eb 54		 jmp	 SHORT $LN1@wndMgrLock
$LN2@wndMgrLock:

; 1510 : 	int iSlotIndex;
; 1511 : 	if (!PyTuple_GetInteger(poArgs, 1, &iSlotIndex))

  00028	8d 45 f8	 lea	 eax, DWORD PTR _iSlotIndex$[ebp]
  0002b	50		 push	 eax
  0002c	6a 01		 push	 1
  0002e	ff 75 0c	 push	 DWORD PTR _poArgs$[ebp]
  00031	e8 00 00 00 00	 call	 ?PyTuple_GetInteger@@YA_NPAU_object@@HPAH@Z ; PyTuple_GetInteger
  00036	83 c4 0c	 add	 esp, 12			; 0000000cH
  00039	0f b6 c0	 movzx	 eax, al
  0003c	85 c0		 test	 eax, eax
  0003e	75 0a		 jne	 SHORT $LN3@wndMgrLock

; 1512 : 		return Py_BuildException();

  00040	6a 00		 push	 0
  00042	e8 00 00 00 00	 call	 ?Py_BuildException@@YAPAU_object@@PBDZZ ; Py_BuildException
  00047	59		 pop	 ecx
  00048	eb 32		 jmp	 SHORT $LN1@wndMgrLock
$LN3@wndMgrLock:

; 1513 : 
; 1514 : 	if (!pWin->IsType(UI::CSlotWindow::Type()))

  0004a	e8 00 00 00 00	 call	 ?Type@CSlotWindow@UI@@SAKXZ ; UI::CSlotWindow::Type
  0004f	50		 push	 eax
  00050	8b 4d fc	 mov	 ecx, DWORD PTR _pWin$[ebp]
  00053	e8 00 00 00 00	 call	 ?IsType@CWindow@UI@@QAEHK@Z ; UI::CWindow::IsType
  00058	85 c0		 test	 eax, eax
  0005a	75 0a		 jne	 SHORT $LN4@wndMgrLock

; 1515 : 		return Py_BuildException();

  0005c	6a 00		 push	 0
  0005e	e8 00 00 00 00	 call	 ?Py_BuildException@@YAPAU_object@@PBDZZ ; Py_BuildException
  00063	59		 pop	 ecx
  00064	eb 16		 jmp	 SHORT $LN1@wndMgrLock
$LN4@wndMgrLock:

; 1516 : 
; 1517 : 	UI::CSlotWindow * pSlotWin = (UI::CSlotWindow *)pWin;

  00066	8b 45 fc	 mov	 eax, DWORD PTR _pWin$[ebp]
  00069	89 45 f4	 mov	 DWORD PTR _pSlotWin$[ebp], eax

; 1518 : 	pSlotWin->LockSlot(iSlotIndex);

  0006c	ff 75 f8	 push	 DWORD PTR _iSlotIndex$[ebp]
  0006f	8b 4d f4	 mov	 ecx, DWORD PTR _pSlotWin$[ebp]
  00072	e8 00 00 00 00	 call	 ?LockSlot@CSlotWindow@UI@@QAEXK@Z ; UI::CSlotWindow::LockSlot

; 1519 : 	return Py_BuildNone();

  00077	e8 00 00 00 00	 call	 ?Py_BuildNone@@YAPAU_object@@XZ ; Py_BuildNone
$LN1@wndMgrLock:

; 1520 : }

  0007c	c9		 leave
  0007d	c3		 ret	 0
?wndMgrLockSlot@@YAPAU_object@@PAU1@0@Z ENDP		; wndMgrLockSlot
_TEXT	ENDS
; Function compile flags: /Odspy
; File D:\Metin2 Server Files\mainline\SRC_2014\Metin2Client\eterPythonLib\PythonWindowManagerModule.cpp
;	COMDAT ?wndMgrGetSlotCount@@YAPAU_object@@PAU1@0@Z
_TEXT	SEGMENT
_pSlotWin$ = -8						; size = 4
_pWin$ = -4						; size = 4
_poSelf$ = 8						; size = 4
_poArgs$ = 12						; size = 4
?wndMgrGetSlotCount@@YAPAU_object@@PAU1@0@Z PROC	; wndMgrGetSlotCount, COMDAT

; 1493 : {

  00000	55		 push	 ebp
  00001	8b ec		 mov	 ebp, esp
  00003	51		 push	 ecx
  00004	51		 push	 ecx

; 1494 : 	UI::CWindow * pWin;
; 1495 : 	if (!PyTuple_GetWindow(poArgs, 0, &pWin))

  00005	8d 45 fc	 lea	 eax, DWORD PTR _pWin$[ebp]
  00008	50		 push	 eax
  00009	6a 00		 push	 0
  0000b	ff 75 0c	 push	 DWORD PTR _poArgs$[ebp]
  0000e	e8 00 00 00 00	 call	 ?PyTuple_GetWindow@@YA_NPAU_object@@HPAPAVCWindow@UI@@@Z ; PyTuple_GetWindow
  00013	83 c4 0c	 add	 esp, 12			; 0000000cH
  00016	0f b6 c0	 movzx	 eax, al
  00019	85 c0		 test	 eax, eax
  0001b	75 0a		 jne	 SHORT $LN2@wndMgrGetS

; 1496 : 		return Py_BuildException();

  0001d	6a 00		 push	 0
  0001f	e8 00 00 00 00	 call	 ?Py_BuildException@@YAPAU_object@@PBDZZ ; Py_BuildException
  00024	59		 pop	 ecx
  00025	eb 38		 jmp	 SHORT $LN1@wndMgrGetS
$LN2@wndMgrGetS:

; 1497 : 
; 1498 : 	if (!pWin->IsType(UI::CSlotWindow::Type()))

  00027	e8 00 00 00 00	 call	 ?Type@CSlotWindow@UI@@SAKXZ ; UI::CSlotWindow::Type
  0002c	50		 push	 eax
  0002d	8b 4d fc	 mov	 ecx, DWORD PTR _pWin$[ebp]
  00030	e8 00 00 00 00	 call	 ?IsType@CWindow@UI@@QAEHK@Z ; UI::CWindow::IsType
  00035	85 c0		 test	 eax, eax
  00037	75 0a		 jne	 SHORT $LN3@wndMgrGetS

; 1499 : 		return Py_BuildException();

  00039	6a 00		 push	 0
  0003b	e8 00 00 00 00	 call	 ?Py_BuildException@@YAPAU_object@@PBDZZ ; Py_BuildException
  00040	59		 pop	 ecx
  00041	eb 1c		 jmp	 SHORT $LN1@wndMgrGetS
$LN3@wndMgrGetS:

; 1500 : 
; 1501 : 	UI::CSlotWindow * pSlotWin = (UI::CSlotWindow *)pWin;

  00043	8b 45 fc	 mov	 eax, DWORD PTR _pWin$[ebp]
  00046	89 45 f8	 mov	 DWORD PTR _pSlotWin$[ebp], eax

; 1502 : 	return Py_BuildValue("i", pSlotWin->GetSlotCount());

  00049	8b 4d f8	 mov	 ecx, DWORD PTR _pSlotWin$[ebp]
  0004c	e8 00 00 00 00	 call	 ?GetSlotCount@CSlotWindow@UI@@QAEKXZ ; UI::CSlotWindow::GetSlotCount
  00051	50		 push	 eax
  00052	68 00 00 00 00	 push	 OFFSET ??_C@_01KBJDNOO@i@
  00057	ff 15 00 00 00
	00		 call	 DWORD PTR __imp__Py_BuildValue
  0005d	59		 pop	 ecx
  0005e	59		 pop	 ecx
$LN1@wndMgrGetS:

; 1503 : }

  0005f	c9		 leave
  00060	c3		 ret	 0
?wndMgrGetSlotCount@@YAPAU_object@@PAU1@0@Z ENDP	; wndMgrGetSlotCount
_TEXT	ENDS
; Function compile flags: /Odspy
; File D:\Metin2 Server Files\mainline\SRC_2014\Metin2Client\eterPythonLib\PythonWindowManagerModule.cpp
;	COMDAT ?wndMgrIsSelectedSlot@@YAPAU_object@@PAU1@0@Z
_TEXT	SEGMENT
_pSlotWin$ = -12					; size = 4
_iSlotNumber$ = -8					; size = 4
_pWin$ = -4						; size = 4
_poSelf$ = 8						; size = 4
_poArgs$ = 12						; size = 4
?wndMgrIsSelectedSlot@@YAPAU_object@@PAU1@0@Z PROC	; wndMgrIsSelectedSlot, COMDAT

; 1477 : {

  00000	55		 push	 ebp
  00001	8b ec		 mov	 ebp, esp
  00003	83 ec 0c	 sub	 esp, 12			; 0000000cH

; 1478 : 	UI::CWindow * pWin;
; 1479 : 	if (!PyTuple_GetWindow(poArgs, 0, &pWin))

  00006	8d 45 fc	 lea	 eax, DWORD PTR _pWin$[ebp]
  00009	50		 push	 eax
  0000a	6a 00		 push	 0
  0000c	ff 75 0c	 push	 DWORD PTR _poArgs$[ebp]
  0000f	e8 00 00 00 00	 call	 ?PyTuple_GetWindow@@YA_NPAU_object@@HPAPAVCWindow@UI@@@Z ; PyTuple_GetWindow
  00014	83 c4 0c	 add	 esp, 12			; 0000000cH
  00017	0f b6 c0	 movzx	 eax, al
  0001a	85 c0		 test	 eax, eax
  0001c	75 0a		 jne	 SHORT $LN2@wndMgrIsSe

; 1480 : 		return Py_BuildException();

  0001e	6a 00		 push	 0
  00020	e8 00 00 00 00	 call	 ?Py_BuildException@@YAPAU_object@@PBDZZ ; Py_BuildException
  00025	59		 pop	 ecx
  00026	eb 5d		 jmp	 SHORT $LN1@wndMgrIsSe
$LN2@wndMgrIsSe:

; 1481 : 	int iSlotNumber;
; 1482 : 	if (!PyTuple_GetInteger(poArgs, 1, &iSlotNumber))

  00028	8d 45 f8	 lea	 eax, DWORD PTR _iSlotNumber$[ebp]
  0002b	50		 push	 eax
  0002c	6a 01		 push	 1
  0002e	ff 75 0c	 push	 DWORD PTR _poArgs$[ebp]
  00031	e8 00 00 00 00	 call	 ?PyTuple_GetInteger@@YA_NPAU_object@@HPAH@Z ; PyTuple_GetInteger
  00036	83 c4 0c	 add	 esp, 12			; 0000000cH
  00039	0f b6 c0	 movzx	 eax, al
  0003c	85 c0		 test	 eax, eax
  0003e	75 0a		 jne	 SHORT $LN3@wndMgrIsSe

; 1483 : 		return Py_BuildException();

  00040	6a 00		 push	 0
  00042	e8 00 00 00 00	 call	 ?Py_BuildException@@YAPAU_object@@PBDZZ ; Py_BuildException
  00047	59		 pop	 ecx
  00048	eb 3b		 jmp	 SHORT $LN1@wndMgrIsSe
$LN3@wndMgrIsSe:

; 1484 : 
; 1485 : 	if (!pWin->IsType(UI::CSlotWindow::Type()))

  0004a	e8 00 00 00 00	 call	 ?Type@CSlotWindow@UI@@SAKXZ ; UI::CSlotWindow::Type
  0004f	50		 push	 eax
  00050	8b 4d fc	 mov	 ecx, DWORD PTR _pWin$[ebp]
  00053	e8 00 00 00 00	 call	 ?IsType@CWindow@UI@@QAEHK@Z ; UI::CWindow::IsType
  00058	85 c0		 test	 eax, eax
  0005a	75 0a		 jne	 SHORT $LN4@wndMgrIsSe

; 1486 : 		return Py_BuildException();

  0005c	6a 00		 push	 0
  0005e	e8 00 00 00 00	 call	 ?Py_BuildException@@YAPAU_object@@PBDZZ ; Py_BuildException
  00063	59		 pop	 ecx
  00064	eb 1f		 jmp	 SHORT $LN1@wndMgrIsSe
$LN4@wndMgrIsSe:

; 1487 : 
; 1488 : 	UI::CSlotWindow * pSlotWin = (UI::CSlotWindow *)pWin;

  00066	8b 45 fc	 mov	 eax, DWORD PTR _pWin$[ebp]
  00069	89 45 f4	 mov	 DWORD PTR _pSlotWin$[ebp], eax

; 1489 : 	return Py_BuildValue("i", pSlotWin->isSelectedSlot(iSlotNumber));

  0006c	ff 75 f8	 push	 DWORD PTR _iSlotNumber$[ebp]
  0006f	8b 4d f4	 mov	 ecx, DWORD PTR _pSlotWin$[ebp]
  00072	e8 00 00 00 00	 call	 ?isSelectedSlot@CSlotWindow@UI@@QAEHK@Z ; UI::CSlotWindow::isSelectedSlot
  00077	50		 push	 eax
  00078	68 00 00 00 00	 push	 OFFSET ??_C@_01KBJDNOO@i@
  0007d	ff 15 00 00 00
	00		 call	 DWORD PTR __imp__Py_BuildValue
  00083	59		 pop	 ecx
  00084	59		 pop	 ecx
$LN1@wndMgrIsSe:

; 1490 : }

  00085	c9		 leave
  00086	c3		 ret	 0
?wndMgrIsSelectedSlot@@YAPAU_object@@PAU1@0@Z ENDP	; wndMgrIsSelectedSlot
_TEXT	ENDS
; Function compile flags: /Odspy
; File D:\Metin2 Server Files\mainline\SRC_2014\Metin2Client\eterPythonLib\PythonWindowManagerModule.cpp
;	COMDAT ?wndMgrGetSelectedSlotNumber@@YAPAU_object@@PAU1@0@Z
_TEXT	SEGMENT
_pSlotWin$ = -12					; size = 4
_iSlotNumber$ = -8					; size = 4
_pWin$ = -4						; size = 4
_poSelf$ = 8						; size = 4
_poArgs$ = 12						; size = 4
?wndMgrGetSelectedSlotNumber@@YAPAU_object@@PAU1@0@Z PROC ; wndMgrGetSelectedSlotNumber, COMDAT

; 1461 : {

  00000	55		 push	 ebp
  00001	8b ec		 mov	 ebp, esp
  00003	83 ec 0c	 sub	 esp, 12			; 0000000cH

; 1462 : 	UI::CWindow * pWin;
; 1463 : 	if (!PyTuple_GetWindow(poArgs, 0, &pWin))

  00006	8d 45 fc	 lea	 eax, DWORD PTR _pWin$[ebp]
  00009	50		 push	 eax
  0000a	6a 00		 push	 0
  0000c	ff 75 0c	 push	 DWORD PTR _poArgs$[ebp]
  0000f	e8 00 00 00 00	 call	 ?PyTuple_GetWindow@@YA_NPAU_object@@HPAPAVCWindow@UI@@@Z ; PyTuple_GetWindow
  00014	83 c4 0c	 add	 esp, 12			; 0000000cH
  00017	0f b6 c0	 movzx	 eax, al
  0001a	85 c0		 test	 eax, eax
  0001c	75 0a		 jne	 SHORT $LN2@wndMgrGetS

; 1464 : 		return Py_BuildException();

  0001e	6a 00		 push	 0
  00020	e8 00 00 00 00	 call	 ?Py_BuildException@@YAPAU_object@@PBDZZ ; Py_BuildException
  00025	59		 pop	 ecx
  00026	eb 5d		 jmp	 SHORT $LN1@wndMgrGetS
$LN2@wndMgrGetS:

; 1465 : 	int iSlotNumber;
; 1466 : 	if (!PyTuple_GetInteger(poArgs, 1, &iSlotNumber))

  00028	8d 45 f8	 lea	 eax, DWORD PTR _iSlotNumber$[ebp]
  0002b	50		 push	 eax
  0002c	6a 01		 push	 1
  0002e	ff 75 0c	 push	 DWORD PTR _poArgs$[ebp]
  00031	e8 00 00 00 00	 call	 ?PyTuple_GetInteger@@YA_NPAU_object@@HPAH@Z ; PyTuple_GetInteger
  00036	83 c4 0c	 add	 esp, 12			; 0000000cH
  00039	0f b6 c0	 movzx	 eax, al
  0003c	85 c0		 test	 eax, eax
  0003e	75 0a		 jne	 SHORT $LN3@wndMgrGetS

; 1467 : 		return Py_BuildException();

  00040	6a 00		 push	 0
  00042	e8 00 00 00 00	 call	 ?Py_BuildException@@YAPAU_object@@PBDZZ ; Py_BuildException
  00047	59		 pop	 ecx
  00048	eb 3b		 jmp	 SHORT $LN1@wndMgrGetS
$LN3@wndMgrGetS:

; 1468 : 
; 1469 : 	if (!pWin->IsType(UI::CSlotWindow::Type()))

  0004a	e8 00 00 00 00	 call	 ?Type@CSlotWindow@UI@@SAKXZ ; UI::CSlotWindow::Type
  0004f	50		 push	 eax
  00050	8b 4d fc	 mov	 ecx, DWORD PTR _pWin$[ebp]
  00053	e8 00 00 00 00	 call	 ?IsType@CWindow@UI@@QAEHK@Z ; UI::CWindow::IsType
  00058	85 c0		 test	 eax, eax
  0005a	75 0a		 jne	 SHORT $LN4@wndMgrGetS

; 1470 : 		return Py_BuildException();

  0005c	6a 00		 push	 0
  0005e	e8 00 00 00 00	 call	 ?Py_BuildException@@YAPAU_object@@PBDZZ ; Py_BuildException
  00063	59		 pop	 ecx
  00064	eb 1f		 jmp	 SHORT $LN1@wndMgrGetS
$LN4@wndMgrGetS:

; 1471 : 
; 1472 : 	UI::CSlotWindow * pSlotWin = (UI::CSlotWindow *)pWin;

  00066	8b 45 fc	 mov	 eax, DWORD PTR _pWin$[ebp]
  00069	89 45 f4	 mov	 DWORD PTR _pSlotWin$[ebp], eax

; 1473 : 	return Py_BuildValue("i", pSlotWin->GetSelectedSlotNumber(iSlotNumber));

  0006c	ff 75 f8	 push	 DWORD PTR _iSlotNumber$[ebp]
  0006f	8b 4d f4	 mov	 ecx, DWORD PTR _pSlotWin$[ebp]
  00072	e8 00 00 00 00	 call	 ?GetSelectedSlotNumber@CSlotWindow@UI@@QAEKK@Z ; UI::CSlotWindow::GetSelectedSlotNumber
  00077	50		 push	 eax
  00078	68 00 00 00 00	 push	 OFFSET ??_C@_01KBJDNOO@i@
  0007d	ff 15 00 00 00
	00		 call	 DWORD PTR __imp__Py_BuildValue
  00083	59		 pop	 ecx
  00084	59		 pop	 ecx
$LN1@wndMgrGetS:

; 1474 : }

  00085	c9		 leave
  00086	c3		 ret	 0
?wndMgrGetSelectedSlotNumber@@YAPAU_object@@PAU1@0@Z ENDP ; wndMgrGetSelectedSlotNumber
_TEXT	ENDS
; Function compile flags: /Odspy
; File D:\Metin2 Server Files\mainline\SRC_2014\Metin2Client\eterPythonLib\PythonWindowManagerModule.cpp
;	COMDAT ?wndMgrGetSelectedSlotCount@@YAPAU_object@@PAU1@0@Z
_TEXT	SEGMENT
_pSlotWin$ = -8						; size = 4
_pWin$ = -4						; size = 4
_poSelf$ = 8						; size = 4
_poArgs$ = 12						; size = 4
?wndMgrGetSelectedSlotCount@@YAPAU_object@@PAU1@0@Z PROC ; wndMgrGetSelectedSlotCount, COMDAT

; 1448 : {

  00000	55		 push	 ebp
  00001	8b ec		 mov	 ebp, esp
  00003	51		 push	 ecx
  00004	51		 push	 ecx

; 1449 : 	UI::CWindow * pWin;
; 1450 : 	if (!PyTuple_GetWindow(poArgs, 0, &pWin))

  00005	8d 45 fc	 lea	 eax, DWORD PTR _pWin$[ebp]
  00008	50		 push	 eax
  00009	6a 00		 push	 0
  0000b	ff 75 0c	 push	 DWORD PTR _poArgs$[ebp]
  0000e	e8 00 00 00 00	 call	 ?PyTuple_GetWindow@@YA_NPAU_object@@HPAPAVCWindow@UI@@@Z ; PyTuple_GetWindow
  00013	83 c4 0c	 add	 esp, 12			; 0000000cH
  00016	0f b6 c0	 movzx	 eax, al
  00019	85 c0		 test	 eax, eax
  0001b	75 0a		 jne	 SHORT $LN2@wndMgrGetS

; 1451 : 		return Py_BuildException();

  0001d	6a 00		 push	 0
  0001f	e8 00 00 00 00	 call	 ?Py_BuildException@@YAPAU_object@@PBDZZ ; Py_BuildException
  00024	59		 pop	 ecx
  00025	eb 38		 jmp	 SHORT $LN1@wndMgrGetS
$LN2@wndMgrGetS:

; 1452 : 
; 1453 : 	if (!pWin->IsType(UI::CSlotWindow::Type()))

  00027	e8 00 00 00 00	 call	 ?Type@CSlotWindow@UI@@SAKXZ ; UI::CSlotWindow::Type
  0002c	50		 push	 eax
  0002d	8b 4d fc	 mov	 ecx, DWORD PTR _pWin$[ebp]
  00030	e8 00 00 00 00	 call	 ?IsType@CWindow@UI@@QAEHK@Z ; UI::CWindow::IsType
  00035	85 c0		 test	 eax, eax
  00037	75 0a		 jne	 SHORT $LN3@wndMgrGetS

; 1454 : 		return Py_BuildException();

  00039	6a 00		 push	 0
  0003b	e8 00 00 00 00	 call	 ?Py_BuildException@@YAPAU_object@@PBDZZ ; Py_BuildException
  00040	59		 pop	 ecx
  00041	eb 1c		 jmp	 SHORT $LN1@wndMgrGetS
$LN3@wndMgrGetS:

; 1455 : 
; 1456 : 	UI::CSlotWindow * pSlotWin = (UI::CSlotWindow *)pWin;

  00043	8b 45 fc	 mov	 eax, DWORD PTR _pWin$[ebp]
  00046	89 45 f8	 mov	 DWORD PTR _pSlotWin$[ebp], eax

; 1457 : 	return Py_BuildValue("i", pSlotWin->GetSelectedSlotCount());

  00049	8b 4d f8	 mov	 ecx, DWORD PTR _pSlotWin$[ebp]
  0004c	e8 00 00 00 00	 call	 ?GetSelectedSlotCount@CSlotWindow@UI@@QAEKXZ ; UI::CSlotWindow::GetSelectedSlotCount
  00051	50		 push	 eax
  00052	68 00 00 00 00	 push	 OFFSET ??_C@_01KBJDNOO@i@
  00057	ff 15 00 00 00
	00		 call	 DWORD PTR __imp__Py_BuildValue
  0005d	59		 pop	 ecx
  0005e	59		 pop	 ecx
$LN1@wndMgrGetS:

; 1458 : }

  0005f	c9		 leave
  00060	c3		 ret	 0
?wndMgrGetSelectedSlotCount@@YAPAU_object@@PAU1@0@Z ENDP ; wndMgrGetSelectedSlotCount
_TEXT	ENDS
; Function compile flags: /Odspy
; File D:\Metin2 Server Files\mainline\SRC_2014\Metin2Client\eterPythonLib\PythonWindowManagerModule.cpp
;	COMDAT ?wndMgrClearSelected@@YAPAU_object@@PAU1@0@Z
_TEXT	SEGMENT
_pSlotWin$ = -8						; size = 4
_pWin$ = -4						; size = 4
_poSelf$ = 8						; size = 4
_poArgs$ = 12						; size = 4
?wndMgrClearSelected@@YAPAU_object@@PAU1@0@Z PROC	; wndMgrClearSelected, COMDAT

; 1433 : {

  00000	55		 push	 ebp
  00001	8b ec		 mov	 ebp, esp
  00003	51		 push	 ecx
  00004	51		 push	 ecx

; 1434 : 	UI::CWindow * pWin;
; 1435 : 	if (!PyTuple_GetWindow(poArgs, 0, &pWin))

  00005	8d 45 fc	 lea	 eax, DWORD PTR _pWin$[ebp]
  00008	50		 push	 eax
  00009	6a 00		 push	 0
  0000b	ff 75 0c	 push	 DWORD PTR _poArgs$[ebp]
  0000e	e8 00 00 00 00	 call	 ?PyTuple_GetWindow@@YA_NPAU_object@@HPAPAVCWindow@UI@@@Z ; PyTuple_GetWindow
  00013	83 c4 0c	 add	 esp, 12			; 0000000cH
  00016	0f b6 c0	 movzx	 eax, al
  00019	85 c0		 test	 eax, eax
  0001b	75 0a		 jne	 SHORT $LN2@wndMgrClea

; 1436 : 		return Py_BuildException();

  0001d	6a 00		 push	 0
  0001f	e8 00 00 00 00	 call	 ?Py_BuildException@@YAPAU_object@@PBDZZ ; Py_BuildException
  00024	59		 pop	 ecx
  00025	eb 2f		 jmp	 SHORT $LN1@wndMgrClea
$LN2@wndMgrClea:

; 1437 : 
; 1438 : 	if (!pWin->IsType(UI::CSlotWindow::Type()))

  00027	e8 00 00 00 00	 call	 ?Type@CSlotWindow@UI@@SAKXZ ; UI::CSlotWindow::Type
  0002c	50		 push	 eax
  0002d	8b 4d fc	 mov	 ecx, DWORD PTR _pWin$[ebp]
  00030	e8 00 00 00 00	 call	 ?IsType@CWindow@UI@@QAEHK@Z ; UI::CWindow::IsType
  00035	85 c0		 test	 eax, eax
  00037	75 0a		 jne	 SHORT $LN3@wndMgrClea

; 1439 : 		return Py_BuildException();

  00039	6a 00		 push	 0
  0003b	e8 00 00 00 00	 call	 ?Py_BuildException@@YAPAU_object@@PBDZZ ; Py_BuildException
  00040	59		 pop	 ecx
  00041	eb 13		 jmp	 SHORT $LN1@wndMgrClea
$LN3@wndMgrClea:

; 1440 : 
; 1441 : 	UI::CSlotWindow * pSlotWin = (UI::CSlotWindow *)pWin;

  00043	8b 45 fc	 mov	 eax, DWORD PTR _pWin$[ebp]
  00046	89 45 f8	 mov	 DWORD PTR _pSlotWin$[ebp], eax

; 1442 : 	pSlotWin->ClearSelected();

  00049	8b 4d f8	 mov	 ecx, DWORD PTR _pSlotWin$[ebp]
  0004c	e8 00 00 00 00	 call	 ?ClearSelected@CSlotWindow@UI@@QAEXXZ ; UI::CSlotWindow::ClearSelected

; 1443 : 
; 1444 : 	return Py_BuildNone();

  00051	e8 00 00 00 00	 call	 ?Py_BuildNone@@YAPAU_object@@XZ ; Py_BuildNone
$LN1@wndMgrClea:

; 1445 : }

  00056	c9		 leave
  00057	c3		 ret	 0
?wndMgrClearSelected@@YAPAU_object@@PAU1@0@Z ENDP	; wndMgrClearSelected
_TEXT	ENDS
; Function compile flags: /Odspy
; File D:\Metin2 Server Files\mainline\SRC_2014\Metin2Client\eterPythonLib\PythonWindowManagerModule.cpp
;	COMDAT ?wndMgrSelectSlot@@YAPAU_object@@PAU1@0@Z
_TEXT	SEGMENT
_pSlotWin$ = -12					; size = 4
_iIndex$ = -8						; size = 4
_pWin$ = -4						; size = 4
_poSelf$ = 8						; size = 4
_poArgs$ = 12						; size = 4
?wndMgrSelectSlot@@YAPAU_object@@PAU1@0@Z PROC		; wndMgrSelectSlot, COMDAT

; 1414 : {

  00000	55		 push	 ebp
  00001	8b ec		 mov	 ebp, esp
  00003	83 ec 0c	 sub	 esp, 12			; 0000000cH

; 1415 : 	UI::CWindow * pWin;
; 1416 : 	if (!PyTuple_GetWindow(poArgs, 0, &pWin))

  00006	8d 45 fc	 lea	 eax, DWORD PTR _pWin$[ebp]
  00009	50		 push	 eax
  0000a	6a 00		 push	 0
  0000c	ff 75 0c	 push	 DWORD PTR _poArgs$[ebp]
  0000f	e8 00 00 00 00	 call	 ?PyTuple_GetWindow@@YA_NPAU_object@@HPAPAVCWindow@UI@@@Z ; PyTuple_GetWindow
  00014	83 c4 0c	 add	 esp, 12			; 0000000cH
  00017	0f b6 c0	 movzx	 eax, al
  0001a	85 c0		 test	 eax, eax
  0001c	75 0a		 jne	 SHORT $LN2@wndMgrSele

; 1417 : 		return Py_BuildException();

  0001e	6a 00		 push	 0
  00020	e8 00 00 00 00	 call	 ?Py_BuildException@@YAPAU_object@@PBDZZ ; Py_BuildException
  00025	59		 pop	 ecx
  00026	eb 54		 jmp	 SHORT $LN1@wndMgrSele
$LN2@wndMgrSele:

; 1418 : 
; 1419 : 	int iIndex;
; 1420 : 	if (!PyTuple_GetInteger(poArgs, 1, &iIndex))

  00028	8d 45 f8	 lea	 eax, DWORD PTR _iIndex$[ebp]
  0002b	50		 push	 eax
  0002c	6a 01		 push	 1
  0002e	ff 75 0c	 push	 DWORD PTR _poArgs$[ebp]
  00031	e8 00 00 00 00	 call	 ?PyTuple_GetInteger@@YA_NPAU_object@@HPAH@Z ; PyTuple_GetInteger
  00036	83 c4 0c	 add	 esp, 12			; 0000000cH
  00039	0f b6 c0	 movzx	 eax, al
  0003c	85 c0		 test	 eax, eax
  0003e	75 0a		 jne	 SHORT $LN3@wndMgrSele

; 1421 : 		return Py_BuildException();

  00040	6a 00		 push	 0
  00042	e8 00 00 00 00	 call	 ?Py_BuildException@@YAPAU_object@@PBDZZ ; Py_BuildException
  00047	59		 pop	 ecx
  00048	eb 32		 jmp	 SHORT $LN1@wndMgrSele
$LN3@wndMgrSele:

; 1422 : 
; 1423 : 	if (!pWin->IsType(UI::CSlotWindow::Type()))

  0004a	e8 00 00 00 00	 call	 ?Type@CSlotWindow@UI@@SAKXZ ; UI::CSlotWindow::Type
  0004f	50		 push	 eax
  00050	8b 4d fc	 mov	 ecx, DWORD PTR _pWin$[ebp]
  00053	e8 00 00 00 00	 call	 ?IsType@CWindow@UI@@QAEHK@Z ; UI::CWindow::IsType
  00058	85 c0		 test	 eax, eax
  0005a	75 0a		 jne	 SHORT $LN4@wndMgrSele

; 1424 : 		return Py_BuildException();

  0005c	6a 00		 push	 0
  0005e	e8 00 00 00 00	 call	 ?Py_BuildException@@YAPAU_object@@PBDZZ ; Py_BuildException
  00063	59		 pop	 ecx
  00064	eb 16		 jmp	 SHORT $LN1@wndMgrSele
$LN4@wndMgrSele:

; 1425 : 
; 1426 : 	UI::CSlotWindow * pSlotWin = (UI::CSlotWindow *)pWin;

  00066	8b 45 fc	 mov	 eax, DWORD PTR _pWin$[ebp]
  00069	89 45 f4	 mov	 DWORD PTR _pSlotWin$[ebp], eax

; 1427 : 	pSlotWin->SelectSlot(iIndex);

  0006c	ff 75 f8	 push	 DWORD PTR _iIndex$[ebp]
  0006f	8b 4d f4	 mov	 ecx, DWORD PTR _pSlotWin$[ebp]
  00072	e8 00 00 00 00	 call	 ?SelectSlot@CSlotWindow@UI@@QAEXK@Z ; UI::CSlotWindow::SelectSlot

; 1428 : 
; 1429 : 	return Py_BuildNone();

  00077	e8 00 00 00 00	 call	 ?Py_BuildNone@@YAPAU_object@@XZ ; Py_BuildNone
$LN1@wndMgrSele:

; 1430 : }

  0007c	c9		 leave
  0007d	c3		 ret	 0
?wndMgrSelectSlot@@YAPAU_object@@PAU1@0@Z ENDP		; wndMgrSelectSlot
_TEXT	ENDS
; Function compile flags: /Odspy
; File D:\Metin2 Server Files\mainline\SRC_2014\Metin2Client\eterPythonLib\PythonWindowManagerModule.cpp
;	COMDAT ?wndMgrSetSlotStyle@@YAPAU_object@@PAU1@0@Z
_TEXT	SEGMENT
_pSlotWin$ = -12					; size = 4
_iStyle$ = -8						; size = 4
_pWin$ = -4						; size = 4
_poSelf$ = 8						; size = 4
_poArgs$ = 12						; size = 4
?wndMgrSetSlotStyle@@YAPAU_object@@PAU1@0@Z PROC	; wndMgrSetSlotStyle, COMDAT

; 1395 : {

  00000	55		 push	 ebp
  00001	8b ec		 mov	 ebp, esp
  00003	83 ec 0c	 sub	 esp, 12			; 0000000cH

; 1396 : 	UI::CWindow * pWin;
; 1397 : 	if (!PyTuple_GetWindow(poArgs, 0, &pWin))

  00006	8d 45 fc	 lea	 eax, DWORD PTR _pWin$[ebp]
  00009	50		 push	 eax
  0000a	6a 00		 push	 0
  0000c	ff 75 0c	 push	 DWORD PTR _poArgs$[ebp]
  0000f	e8 00 00 00 00	 call	 ?PyTuple_GetWindow@@YA_NPAU_object@@HPAPAVCWindow@UI@@@Z ; PyTuple_GetWindow
  00014	83 c4 0c	 add	 esp, 12			; 0000000cH
  00017	0f b6 c0	 movzx	 eax, al
  0001a	85 c0		 test	 eax, eax
  0001c	75 0a		 jne	 SHORT $LN2@wndMgrSetS

; 1398 : 		return Py_BuildException();

  0001e	6a 00		 push	 0
  00020	e8 00 00 00 00	 call	 ?Py_BuildException@@YAPAU_object@@PBDZZ ; Py_BuildException
  00025	59		 pop	 ecx
  00026	eb 54		 jmp	 SHORT $LN1@wndMgrSetS
$LN2@wndMgrSetS:

; 1399 : 
; 1400 : 	int iStyle;
; 1401 : 	if (!PyTuple_GetInteger(poArgs, 1, &iStyle))

  00028	8d 45 f8	 lea	 eax, DWORD PTR _iStyle$[ebp]
  0002b	50		 push	 eax
  0002c	6a 01		 push	 1
  0002e	ff 75 0c	 push	 DWORD PTR _poArgs$[ebp]
  00031	e8 00 00 00 00	 call	 ?PyTuple_GetInteger@@YA_NPAU_object@@HPAH@Z ; PyTuple_GetInteger
  00036	83 c4 0c	 add	 esp, 12			; 0000000cH
  00039	0f b6 c0	 movzx	 eax, al
  0003c	85 c0		 test	 eax, eax
  0003e	75 0a		 jne	 SHORT $LN3@wndMgrSetS

; 1402 : 		return Py_BuildException();

  00040	6a 00		 push	 0
  00042	e8 00 00 00 00	 call	 ?Py_BuildException@@YAPAU_object@@PBDZZ ; Py_BuildException
  00047	59		 pop	 ecx
  00048	eb 32		 jmp	 SHORT $LN1@wndMgrSetS
$LN3@wndMgrSetS:

; 1403 : 
; 1404 : 	if (!pWin->IsType(UI::CSlotWindow::Type()))

  0004a	e8 00 00 00 00	 call	 ?Type@CSlotWindow@UI@@SAKXZ ; UI::CSlotWindow::Type
  0004f	50		 push	 eax
  00050	8b 4d fc	 mov	 ecx, DWORD PTR _pWin$[ebp]
  00053	e8 00 00 00 00	 call	 ?IsType@CWindow@UI@@QAEHK@Z ; UI::CWindow::IsType
  00058	85 c0		 test	 eax, eax
  0005a	75 0a		 jne	 SHORT $LN4@wndMgrSetS

; 1405 : 		return Py_BuildException();

  0005c	6a 00		 push	 0
  0005e	e8 00 00 00 00	 call	 ?Py_BuildException@@YAPAU_object@@PBDZZ ; Py_BuildException
  00063	59		 pop	 ecx
  00064	eb 16		 jmp	 SHORT $LN1@wndMgrSetS
$LN4@wndMgrSetS:

; 1406 : 
; 1407 : 	UI::CSlotWindow * pSlotWin = (UI::CSlotWindow *)pWin;

  00066	8b 45 fc	 mov	 eax, DWORD PTR _pWin$[ebp]
  00069	89 45 f4	 mov	 DWORD PTR _pSlotWin$[ebp], eax

; 1408 : 	pSlotWin->SetSlotStyle(iStyle);

  0006c	ff 75 f8	 push	 DWORD PTR _iStyle$[ebp]
  0006f	8b 4d f4	 mov	 ecx, DWORD PTR _pSlotWin$[ebp]
  00072	e8 00 00 00 00	 call	 ?SetSlotStyle@CSlotWindow@UI@@QAEXK@Z ; UI::CSlotWindow::SetSlotStyle

; 1409 : 
; 1410 : 	return Py_BuildNone();

  00077	e8 00 00 00 00	 call	 ?Py_BuildNone@@YAPAU_object@@XZ ; Py_BuildNone
$LN1@wndMgrSetS:

; 1411 : }

  0007c	c9		 leave
  0007d	c3		 ret	 0
?wndMgrSetSlotStyle@@YAPAU_object@@PAU1@0@Z ENDP	; wndMgrSetSlotStyle
_TEXT	ENDS
; Function compile flags: /Odspy
; File D:\Metin2 Server Files\mainline\SRC_2014\Metin2Client\eterPythonLib\PythonWindowManagerModule.cpp
;	COMDAT ?wndMgrSetSlotType@@YAPAU_object@@PAU1@0@Z
_TEXT	SEGMENT
_pSlotWin$ = -12					; size = 4
_iType$ = -8						; size = 4
_pWin$ = -4						; size = 4
_poSelf$ = 8						; size = 4
_poArgs$ = 12						; size = 4
?wndMgrSetSlotType@@YAPAU_object@@PAU1@0@Z PROC		; wndMgrSetSlotType, COMDAT

; 1376 : {

  00000	55		 push	 ebp
  00001	8b ec		 mov	 ebp, esp
  00003	83 ec 0c	 sub	 esp, 12			; 0000000cH

; 1377 : 	UI::CWindow * pWin;
; 1378 : 	if (!PyTuple_GetWindow(poArgs, 0, &pWin))

  00006	8d 45 fc	 lea	 eax, DWORD PTR _pWin$[ebp]
  00009	50		 push	 eax
  0000a	6a 00		 push	 0
  0000c	ff 75 0c	 push	 DWORD PTR _poArgs$[ebp]
  0000f	e8 00 00 00 00	 call	 ?PyTuple_GetWindow@@YA_NPAU_object@@HPAPAVCWindow@UI@@@Z ; PyTuple_GetWindow
  00014	83 c4 0c	 add	 esp, 12			; 0000000cH
  00017	0f b6 c0	 movzx	 eax, al
  0001a	85 c0		 test	 eax, eax
  0001c	75 0a		 jne	 SHORT $LN2@wndMgrSetS

; 1379 : 		return Py_BuildException();

  0001e	6a 00		 push	 0
  00020	e8 00 00 00 00	 call	 ?Py_BuildException@@YAPAU_object@@PBDZZ ; Py_BuildException
  00025	59		 pop	 ecx
  00026	eb 54		 jmp	 SHORT $LN1@wndMgrSetS
$LN2@wndMgrSetS:

; 1380 : 
; 1381 : 	int iType;
; 1382 : 	if (!PyTuple_GetInteger(poArgs, 1, &iType))

  00028	8d 45 f8	 lea	 eax, DWORD PTR _iType$[ebp]
  0002b	50		 push	 eax
  0002c	6a 01		 push	 1
  0002e	ff 75 0c	 push	 DWORD PTR _poArgs$[ebp]
  00031	e8 00 00 00 00	 call	 ?PyTuple_GetInteger@@YA_NPAU_object@@HPAH@Z ; PyTuple_GetInteger
  00036	83 c4 0c	 add	 esp, 12			; 0000000cH
  00039	0f b6 c0	 movzx	 eax, al
  0003c	85 c0		 test	 eax, eax
  0003e	75 0a		 jne	 SHORT $LN3@wndMgrSetS

; 1383 : 		return Py_BuildException();

  00040	6a 00		 push	 0
  00042	e8 00 00 00 00	 call	 ?Py_BuildException@@YAPAU_object@@PBDZZ ; Py_BuildException
  00047	59		 pop	 ecx
  00048	eb 32		 jmp	 SHORT $LN1@wndMgrSetS
$LN3@wndMgrSetS:

; 1384 : 
; 1385 : 	if (!pWin->IsType(UI::CSlotWindow::Type()))

  0004a	e8 00 00 00 00	 call	 ?Type@CSlotWindow@UI@@SAKXZ ; UI::CSlotWindow::Type
  0004f	50		 push	 eax
  00050	8b 4d fc	 mov	 ecx, DWORD PTR _pWin$[ebp]
  00053	e8 00 00 00 00	 call	 ?IsType@CWindow@UI@@QAEHK@Z ; UI::CWindow::IsType
  00058	85 c0		 test	 eax, eax
  0005a	75 0a		 jne	 SHORT $LN4@wndMgrSetS

; 1386 : 		return Py_BuildException();

  0005c	6a 00		 push	 0
  0005e	e8 00 00 00 00	 call	 ?Py_BuildException@@YAPAU_object@@PBDZZ ; Py_BuildException
  00063	59		 pop	 ecx
  00064	eb 16		 jmp	 SHORT $LN1@wndMgrSetS
$LN4@wndMgrSetS:

; 1387 : 
; 1388 : 	UI::CSlotWindow * pSlotWin = (UI::CSlotWindow *)pWin;

  00066	8b 45 fc	 mov	 eax, DWORD PTR _pWin$[ebp]
  00069	89 45 f4	 mov	 DWORD PTR _pSlotWin$[ebp], eax

; 1389 : 	pSlotWin->SetSlotType(iType);

  0006c	ff 75 f8	 push	 DWORD PTR _iType$[ebp]
  0006f	8b 4d f4	 mov	 ecx, DWORD PTR _pSlotWin$[ebp]
  00072	e8 00 00 00 00	 call	 ?SetSlotType@CSlotWindow@UI@@QAEXK@Z ; UI::CSlotWindow::SetSlotType

; 1390 : 
; 1391 : 	return Py_BuildNone();

  00077	e8 00 00 00 00	 call	 ?Py_BuildNone@@YAPAU_object@@XZ ; Py_BuildNone
$LN1@wndMgrSetS:

; 1392 : }

  0007c	c9		 leave
  0007d	c3		 ret	 0
?wndMgrSetSlotType@@YAPAU_object@@PAU1@0@Z ENDP		; wndMgrSetSlotType
_TEXT	ENDS
; Function compile flags: /Odspy
; File D:\Metin2 Server Files\mainline\SRC_2014\Metin2Client\eterPythonLib\PythonWindowManagerModule.cpp
;	COMDAT ?wndMgrHideSlotBaseImage@@YAPAU_object@@PAU1@0@Z
_TEXT	SEGMENT
_pSlotWin$ = -12					; size = 4
_iSlotIndex$ = -8					; size = 4
_pWin$ = -4						; size = 4
_poSelf$ = 8						; size = 4
_poArgs$ = 12						; size = 4
?wndMgrHideSlotBaseImage@@YAPAU_object@@PAU1@0@Z PROC	; wndMgrHideSlotBaseImage, COMDAT

; 1358 : {

  00000	55		 push	 ebp
  00001	8b ec		 mov	 ebp, esp
  00003	83 ec 0c	 sub	 esp, 12			; 0000000cH

; 1359 : 	UI::CWindow * pWin;
; 1360 : 	if (!PyTuple_GetWindow(poArgs, 0, &pWin))

  00006	8d 45 fc	 lea	 eax, DWORD PTR _pWin$[ebp]
  00009	50		 push	 eax
  0000a	6a 00		 push	 0
  0000c	ff 75 0c	 push	 DWORD PTR _poArgs$[ebp]
  0000f	e8 00 00 00 00	 call	 ?PyTuple_GetWindow@@YA_NPAU_object@@HPAPAVCWindow@UI@@@Z ; PyTuple_GetWindow
  00014	83 c4 0c	 add	 esp, 12			; 0000000cH
  00017	0f b6 c0	 movzx	 eax, al
  0001a	85 c0		 test	 eax, eax
  0001c	75 0a		 jne	 SHORT $LN2@wndMgrHide

; 1361 : 		return Py_BuildException();

  0001e	6a 00		 push	 0
  00020	e8 00 00 00 00	 call	 ?Py_BuildException@@YAPAU_object@@PBDZZ ; Py_BuildException
  00025	59		 pop	 ecx
  00026	eb 54		 jmp	 SHORT $LN1@wndMgrHide
$LN2@wndMgrHide:

; 1362 : 
; 1363 : 	int iSlotIndex;
; 1364 : 	if (!PyTuple_GetInteger(poArgs, 1, &iSlotIndex))

  00028	8d 45 f8	 lea	 eax, DWORD PTR _iSlotIndex$[ebp]
  0002b	50		 push	 eax
  0002c	6a 01		 push	 1
  0002e	ff 75 0c	 push	 DWORD PTR _poArgs$[ebp]
  00031	e8 00 00 00 00	 call	 ?PyTuple_GetInteger@@YA_NPAU_object@@HPAH@Z ; PyTuple_GetInteger
  00036	83 c4 0c	 add	 esp, 12			; 0000000cH
  00039	0f b6 c0	 movzx	 eax, al
  0003c	85 c0		 test	 eax, eax
  0003e	75 0a		 jne	 SHORT $LN3@wndMgrHide

; 1365 : 		return Py_BuildException();

  00040	6a 00		 push	 0
  00042	e8 00 00 00 00	 call	 ?Py_BuildException@@YAPAU_object@@PBDZZ ; Py_BuildException
  00047	59		 pop	 ecx
  00048	eb 32		 jmp	 SHORT $LN1@wndMgrHide
$LN3@wndMgrHide:

; 1366 : 
; 1367 : 	if (!pWin->IsType(UI::CSlotWindow::Type()))

  0004a	e8 00 00 00 00	 call	 ?Type@CSlotWindow@UI@@SAKXZ ; UI::CSlotWindow::Type
  0004f	50		 push	 eax
  00050	8b 4d fc	 mov	 ecx, DWORD PTR _pWin$[ebp]
  00053	e8 00 00 00 00	 call	 ?IsType@CWindow@UI@@QAEHK@Z ; UI::CWindow::IsType
  00058	85 c0		 test	 eax, eax
  0005a	75 0a		 jne	 SHORT $LN4@wndMgrHide

; 1368 : 		return Py_BuildException();

  0005c	6a 00		 push	 0
  0005e	e8 00 00 00 00	 call	 ?Py_BuildException@@YAPAU_object@@PBDZZ ; Py_BuildException
  00063	59		 pop	 ecx
  00064	eb 16		 jmp	 SHORT $LN1@wndMgrHide
$LN4@wndMgrHide:

; 1369 : 
; 1370 : 	UI::CSlotWindow * pSlotWin = (UI::CSlotWindow *)pWin;

  00066	8b 45 fc	 mov	 eax, DWORD PTR _pWin$[ebp]
  00069	89 45 f4	 mov	 DWORD PTR _pSlotWin$[ebp], eax

; 1371 : 	pSlotWin->HideSlotBaseImage(iSlotIndex);

  0006c	ff 75 f8	 push	 DWORD PTR _iSlotIndex$[ebp]
  0006f	8b 4d f4	 mov	 ecx, DWORD PTR _pSlotWin$[ebp]
  00072	e8 00 00 00 00	 call	 ?HideSlotBaseImage@CSlotWindow@UI@@QAEXK@Z ; UI::CSlotWindow::HideSlotBaseImage

; 1372 : 	return Py_BuildNone();

  00077	e8 00 00 00 00	 call	 ?Py_BuildNone@@YAPAU_object@@XZ ; Py_BuildNone
$LN1@wndMgrHide:

; 1373 : }

  0007c	c9		 leave
  0007d	c3		 ret	 0
?wndMgrHideSlotBaseImage@@YAPAU_object@@PAU1@0@Z ENDP	; wndMgrHideSlotBaseImage
_TEXT	ENDS
; Function compile flags: /Odspy
; File D:\Metin2 Server Files\mainline\SRC_2014\Metin2Client\eterPythonLib\PythonWindowManagerModule.cpp
;	COMDAT ?wndMgrShowSlotBaseImage@@YAPAU_object@@PAU1@0@Z
_TEXT	SEGMENT
_pSlotWin$ = -12					; size = 4
_iSlotIndex$ = -8					; size = 4
_pWin$ = -4						; size = 4
_poSelf$ = 8						; size = 4
_poArgs$ = 12						; size = 4
?wndMgrShowSlotBaseImage@@YAPAU_object@@PAU1@0@Z PROC	; wndMgrShowSlotBaseImage, COMDAT

; 1340 : {

  00000	55		 push	 ebp
  00001	8b ec		 mov	 ebp, esp
  00003	83 ec 0c	 sub	 esp, 12			; 0000000cH

; 1341 : 	UI::CWindow * pWin;
; 1342 : 	if (!PyTuple_GetWindow(poArgs, 0, &pWin))

  00006	8d 45 fc	 lea	 eax, DWORD PTR _pWin$[ebp]
  00009	50		 push	 eax
  0000a	6a 00		 push	 0
  0000c	ff 75 0c	 push	 DWORD PTR _poArgs$[ebp]
  0000f	e8 00 00 00 00	 call	 ?PyTuple_GetWindow@@YA_NPAU_object@@HPAPAVCWindow@UI@@@Z ; PyTuple_GetWindow
  00014	83 c4 0c	 add	 esp, 12			; 0000000cH
  00017	0f b6 c0	 movzx	 eax, al
  0001a	85 c0		 test	 eax, eax
  0001c	75 0a		 jne	 SHORT $LN2@wndMgrShow

; 1343 : 		return Py_BuildException();

  0001e	6a 00		 push	 0
  00020	e8 00 00 00 00	 call	 ?Py_BuildException@@YAPAU_object@@PBDZZ ; Py_BuildException
  00025	59		 pop	 ecx
  00026	eb 54		 jmp	 SHORT $LN1@wndMgrShow
$LN2@wndMgrShow:

; 1344 : 
; 1345 : 	int iSlotIndex;
; 1346 : 	if (!PyTuple_GetInteger(poArgs, 1, &iSlotIndex))

  00028	8d 45 f8	 lea	 eax, DWORD PTR _iSlotIndex$[ebp]
  0002b	50		 push	 eax
  0002c	6a 01		 push	 1
  0002e	ff 75 0c	 push	 DWORD PTR _poArgs$[ebp]
  00031	e8 00 00 00 00	 call	 ?PyTuple_GetInteger@@YA_NPAU_object@@HPAH@Z ; PyTuple_GetInteger
  00036	83 c4 0c	 add	 esp, 12			; 0000000cH
  00039	0f b6 c0	 movzx	 eax, al
  0003c	85 c0		 test	 eax, eax
  0003e	75 0a		 jne	 SHORT $LN3@wndMgrShow

; 1347 : 		return Py_BuildException();

  00040	6a 00		 push	 0
  00042	e8 00 00 00 00	 call	 ?Py_BuildException@@YAPAU_object@@PBDZZ ; Py_BuildException
  00047	59		 pop	 ecx
  00048	eb 32		 jmp	 SHORT $LN1@wndMgrShow
$LN3@wndMgrShow:

; 1348 : 
; 1349 : 	if (!pWin->IsType(UI::CSlotWindow::Type()))

  0004a	e8 00 00 00 00	 call	 ?Type@CSlotWindow@UI@@SAKXZ ; UI::CSlotWindow::Type
  0004f	50		 push	 eax
  00050	8b 4d fc	 mov	 ecx, DWORD PTR _pWin$[ebp]
  00053	e8 00 00 00 00	 call	 ?IsType@CWindow@UI@@QAEHK@Z ; UI::CWindow::IsType
  00058	85 c0		 test	 eax, eax
  0005a	75 0a		 jne	 SHORT $LN4@wndMgrShow

; 1350 : 		return Py_BuildException();

  0005c	6a 00		 push	 0
  0005e	e8 00 00 00 00	 call	 ?Py_BuildException@@YAPAU_object@@PBDZZ ; Py_BuildException
  00063	59		 pop	 ecx
  00064	eb 16		 jmp	 SHORT $LN1@wndMgrShow
$LN4@wndMgrShow:

; 1351 : 
; 1352 : 	UI::CSlotWindow * pSlotWin = (UI::CSlotWindow *)pWin;

  00066	8b 45 fc	 mov	 eax, DWORD PTR _pWin$[ebp]
  00069	89 45 f4	 mov	 DWORD PTR _pSlotWin$[ebp], eax

; 1353 : 	pSlotWin->ShowSlotBaseImage(iSlotIndex);

  0006c	ff 75 f8	 push	 DWORD PTR _iSlotIndex$[ebp]
  0006f	8b 4d f4	 mov	 ecx, DWORD PTR _pSlotWin$[ebp]
  00072	e8 00 00 00 00	 call	 ?ShowSlotBaseImage@CSlotWindow@UI@@QAEXK@Z ; UI::CSlotWindow::ShowSlotBaseImage

; 1354 : 	return Py_BuildNone();

  00077	e8 00 00 00 00	 call	 ?Py_BuildNone@@YAPAU_object@@XZ ; Py_BuildNone
$LN1@wndMgrShow:

; 1355 : }

  0007c	c9		 leave
  0007d	c3		 ret	 0
?wndMgrShowSlotBaseImage@@YAPAU_object@@PAU1@0@Z ENDP	; wndMgrShowSlotBaseImage
_TEXT	ENDS
; Function compile flags: /Odspy
; File D:\Metin2 Server Files\mainline\SRC_2014\Metin2Client\eterPythonLib\PythonWindowManagerModule.cpp
;	COMDAT ?wndMgrDisableSlot@@YAPAU_object@@PAU1@0@Z
_TEXT	SEGMENT
_pSlotWin$ = -12					; size = 4
_iSlotIndex$ = -8					; size = 4
_pWin$ = -4						; size = 4
_poSelf$ = 8						; size = 4
_poArgs$ = 12						; size = 4
?wndMgrDisableSlot@@YAPAU_object@@PAU1@0@Z PROC		; wndMgrDisableSlot, COMDAT

; 1322 : {

  00000	55		 push	 ebp
  00001	8b ec		 mov	 ebp, esp
  00003	83 ec 0c	 sub	 esp, 12			; 0000000cH

; 1323 : 	UI::CWindow * pWin;
; 1324 : 	if (!PyTuple_GetWindow(poArgs, 0, &pWin))

  00006	8d 45 fc	 lea	 eax, DWORD PTR _pWin$[ebp]
  00009	50		 push	 eax
  0000a	6a 00		 push	 0
  0000c	ff 75 0c	 push	 DWORD PTR _poArgs$[ebp]
  0000f	e8 00 00 00 00	 call	 ?PyTuple_GetWindow@@YA_NPAU_object@@HPAPAVCWindow@UI@@@Z ; PyTuple_GetWindow
  00014	83 c4 0c	 add	 esp, 12			; 0000000cH
  00017	0f b6 c0	 movzx	 eax, al
  0001a	85 c0		 test	 eax, eax
  0001c	75 0a		 jne	 SHORT $LN2@wndMgrDisa

; 1325 : 		return Py_BuildException();

  0001e	6a 00		 push	 0
  00020	e8 00 00 00 00	 call	 ?Py_BuildException@@YAPAU_object@@PBDZZ ; Py_BuildException
  00025	59		 pop	 ecx
  00026	eb 54		 jmp	 SHORT $LN1@wndMgrDisa
$LN2@wndMgrDisa:

; 1326 : 
; 1327 : 	int iSlotIndex;
; 1328 : 	if (!PyTuple_GetInteger(poArgs, 1, &iSlotIndex))

  00028	8d 45 f8	 lea	 eax, DWORD PTR _iSlotIndex$[ebp]
  0002b	50		 push	 eax
  0002c	6a 01		 push	 1
  0002e	ff 75 0c	 push	 DWORD PTR _poArgs$[ebp]
  00031	e8 00 00 00 00	 call	 ?PyTuple_GetInteger@@YA_NPAU_object@@HPAH@Z ; PyTuple_GetInteger
  00036	83 c4 0c	 add	 esp, 12			; 0000000cH
  00039	0f b6 c0	 movzx	 eax, al
  0003c	85 c0		 test	 eax, eax
  0003e	75 0a		 jne	 SHORT $LN3@wndMgrDisa

; 1329 : 		return Py_BuildException();

  00040	6a 00		 push	 0
  00042	e8 00 00 00 00	 call	 ?Py_BuildException@@YAPAU_object@@PBDZZ ; Py_BuildException
  00047	59		 pop	 ecx
  00048	eb 32		 jmp	 SHORT $LN1@wndMgrDisa
$LN3@wndMgrDisa:

; 1330 : 
; 1331 : 	if (!pWin->IsType(UI::CSlotWindow::Type()))

  0004a	e8 00 00 00 00	 call	 ?Type@CSlotWindow@UI@@SAKXZ ; UI::CSlotWindow::Type
  0004f	50		 push	 eax
  00050	8b 4d fc	 mov	 ecx, DWORD PTR _pWin$[ebp]
  00053	e8 00 00 00 00	 call	 ?IsType@CWindow@UI@@QAEHK@Z ; UI::CWindow::IsType
  00058	85 c0		 test	 eax, eax
  0005a	75 0a		 jne	 SHORT $LN4@wndMgrDisa

; 1332 : 		return Py_BuildException();

  0005c	6a 00		 push	 0
  0005e	e8 00 00 00 00	 call	 ?Py_BuildException@@YAPAU_object@@PBDZZ ; Py_BuildException
  00063	59		 pop	 ecx
  00064	eb 16		 jmp	 SHORT $LN1@wndMgrDisa
$LN4@wndMgrDisa:

; 1333 : 
; 1334 : 	UI::CSlotWindow * pSlotWin = (UI::CSlotWindow *)pWin;

  00066	8b 45 fc	 mov	 eax, DWORD PTR _pWin$[ebp]
  00069	89 45 f4	 mov	 DWORD PTR _pSlotWin$[ebp], eax

; 1335 : 	pSlotWin->DisableSlot(iSlotIndex);

  0006c	ff 75 f8	 push	 DWORD PTR _iSlotIndex$[ebp]
  0006f	8b 4d f4	 mov	 ecx, DWORD PTR _pSlotWin$[ebp]
  00072	e8 00 00 00 00	 call	 ?DisableSlot@CSlotWindow@UI@@QAEXK@Z ; UI::CSlotWindow::DisableSlot

; 1336 : 	return Py_BuildNone();

  00077	e8 00 00 00 00	 call	 ?Py_BuildNone@@YAPAU_object@@XZ ; Py_BuildNone
$LN1@wndMgrDisa:

; 1337 : }

  0007c	c9		 leave
  0007d	c3		 ret	 0
?wndMgrDisableSlot@@YAPAU_object@@PAU1@0@Z ENDP		; wndMgrDisableSlot
_TEXT	ENDS
; Function compile flags: /Odspy
; File D:\Metin2 Server Files\mainline\SRC_2014\Metin2Client\eterPythonLib\PythonWindowManagerModule.cpp
;	COMDAT ?wndMgrEnableSlot@@YAPAU_object@@PAU1@0@Z
_TEXT	SEGMENT
_pSlotWin$ = -12					; size = 4
_iSlotIndex$ = -8					; size = 4
_pWin$ = -4						; size = 4
_poSelf$ = 8						; size = 4
_poArgs$ = 12						; size = 4
?wndMgrEnableSlot@@YAPAU_object@@PAU1@0@Z PROC		; wndMgrEnableSlot, COMDAT

; 1304 : {

  00000	55		 push	 ebp
  00001	8b ec		 mov	 ebp, esp
  00003	83 ec 0c	 sub	 esp, 12			; 0000000cH

; 1305 : 	UI::CWindow * pWin;
; 1306 : 	if (!PyTuple_GetWindow(poArgs, 0, &pWin))

  00006	8d 45 fc	 lea	 eax, DWORD PTR _pWin$[ebp]
  00009	50		 push	 eax
  0000a	6a 00		 push	 0
  0000c	ff 75 0c	 push	 DWORD PTR _poArgs$[ebp]
  0000f	e8 00 00 00 00	 call	 ?PyTuple_GetWindow@@YA_NPAU_object@@HPAPAVCWindow@UI@@@Z ; PyTuple_GetWindow
  00014	83 c4 0c	 add	 esp, 12			; 0000000cH
  00017	0f b6 c0	 movzx	 eax, al
  0001a	85 c0		 test	 eax, eax
  0001c	75 0a		 jne	 SHORT $LN2@wndMgrEnab

; 1307 : 		return Py_BuildException();

  0001e	6a 00		 push	 0
  00020	e8 00 00 00 00	 call	 ?Py_BuildException@@YAPAU_object@@PBDZZ ; Py_BuildException
  00025	59		 pop	 ecx
  00026	eb 54		 jmp	 SHORT $LN1@wndMgrEnab
$LN2@wndMgrEnab:

; 1308 : 
; 1309 : 	int iSlotIndex;
; 1310 : 	if (!PyTuple_GetInteger(poArgs, 1, &iSlotIndex))

  00028	8d 45 f8	 lea	 eax, DWORD PTR _iSlotIndex$[ebp]
  0002b	50		 push	 eax
  0002c	6a 01		 push	 1
  0002e	ff 75 0c	 push	 DWORD PTR _poArgs$[ebp]
  00031	e8 00 00 00 00	 call	 ?PyTuple_GetInteger@@YA_NPAU_object@@HPAH@Z ; PyTuple_GetInteger
  00036	83 c4 0c	 add	 esp, 12			; 0000000cH
  00039	0f b6 c0	 movzx	 eax, al
  0003c	85 c0		 test	 eax, eax
  0003e	75 0a		 jne	 SHORT $LN3@wndMgrEnab

; 1311 : 		return Py_BuildException();

  00040	6a 00		 push	 0
  00042	e8 00 00 00 00	 call	 ?Py_BuildException@@YAPAU_object@@PBDZZ ; Py_BuildException
  00047	59		 pop	 ecx
  00048	eb 32		 jmp	 SHORT $LN1@wndMgrEnab
$LN3@wndMgrEnab:

; 1312 : 
; 1313 : 	if (!pWin->IsType(UI::CSlotWindow::Type()))

  0004a	e8 00 00 00 00	 call	 ?Type@CSlotWindow@UI@@SAKXZ ; UI::CSlotWindow::Type
  0004f	50		 push	 eax
  00050	8b 4d fc	 mov	 ecx, DWORD PTR _pWin$[ebp]
  00053	e8 00 00 00 00	 call	 ?IsType@CWindow@UI@@QAEHK@Z ; UI::CWindow::IsType
  00058	85 c0		 test	 eax, eax
  0005a	75 0a		 jne	 SHORT $LN4@wndMgrEnab

; 1314 : 		return Py_BuildException();

  0005c	6a 00		 push	 0
  0005e	e8 00 00 00 00	 call	 ?Py_BuildException@@YAPAU_object@@PBDZZ ; Py_BuildException
  00063	59		 pop	 ecx
  00064	eb 16		 jmp	 SHORT $LN1@wndMgrEnab
$LN4@wndMgrEnab:

; 1315 : 
; 1316 : 	UI::CSlotWindow * pSlotWin = (UI::CSlotWindow *)pWin;

  00066	8b 45 fc	 mov	 eax, DWORD PTR _pWin$[ebp]
  00069	89 45 f4	 mov	 DWORD PTR _pSlotWin$[ebp], eax

; 1317 : 	pSlotWin->EnableSlot(iSlotIndex);

  0006c	ff 75 f8	 push	 DWORD PTR _iSlotIndex$[ebp]
  0006f	8b 4d f4	 mov	 ecx, DWORD PTR _pSlotWin$[ebp]
  00072	e8 00 00 00 00	 call	 ?EnableSlot@CSlotWindow@UI@@QAEXK@Z ; UI::CSlotWindow::EnableSlot

; 1318 : 	return Py_BuildNone();

  00077	e8 00 00 00 00	 call	 ?Py_BuildNone@@YAPAU_object@@XZ ; Py_BuildNone
$LN1@wndMgrEnab:

; 1319 : }

  0007c	c9		 leave
  0007d	c3		 ret	 0
?wndMgrEnableSlot@@YAPAU_object@@PAU1@0@Z ENDP		; wndMgrEnableSlot
_TEXT	ENDS
; Function compile flags: /Odspy
; File D:\Metin2 Server Files\mainline\SRC_2014\Metin2Client\eterPythonLib\PythonWindowManagerModule.cpp
;	COMDAT ?wndMgrDeactivateSlot@@YAPAU_object@@PAU1@0@Z
_TEXT	SEGMENT
_pSlotWin$ = -12					; size = 4
_iSlotIndex$ = -8					; size = 4
_pWin$ = -4						; size = 4
_poSelf$ = 8						; size = 4
_poArgs$ = 12						; size = 4
?wndMgrDeactivateSlot@@YAPAU_object@@PAU1@0@Z PROC	; wndMgrDeactivateSlot, COMDAT

; 1286 : {

  00000	55		 push	 ebp
  00001	8b ec		 mov	 ebp, esp
  00003	83 ec 0c	 sub	 esp, 12			; 0000000cH

; 1287 : 	UI::CWindow * pWin;
; 1288 : 	if (!PyTuple_GetWindow(poArgs, 0, &pWin))

  00006	8d 45 fc	 lea	 eax, DWORD PTR _pWin$[ebp]
  00009	50		 push	 eax
  0000a	6a 00		 push	 0
  0000c	ff 75 0c	 push	 DWORD PTR _poArgs$[ebp]
  0000f	e8 00 00 00 00	 call	 ?PyTuple_GetWindow@@YA_NPAU_object@@HPAPAVCWindow@UI@@@Z ; PyTuple_GetWindow
  00014	83 c4 0c	 add	 esp, 12			; 0000000cH
  00017	0f b6 c0	 movzx	 eax, al
  0001a	85 c0		 test	 eax, eax
  0001c	75 0a		 jne	 SHORT $LN2@wndMgrDeac

; 1289 : 		return Py_BuildException();

  0001e	6a 00		 push	 0
  00020	e8 00 00 00 00	 call	 ?Py_BuildException@@YAPAU_object@@PBDZZ ; Py_BuildException
  00025	59		 pop	 ecx
  00026	eb 54		 jmp	 SHORT $LN1@wndMgrDeac
$LN2@wndMgrDeac:

; 1290 : 
; 1291 : 	int iSlotIndex;
; 1292 : 	if (!PyTuple_GetInteger(poArgs, 1, &iSlotIndex))

  00028	8d 45 f8	 lea	 eax, DWORD PTR _iSlotIndex$[ebp]
  0002b	50		 push	 eax
  0002c	6a 01		 push	 1
  0002e	ff 75 0c	 push	 DWORD PTR _poArgs$[ebp]
  00031	e8 00 00 00 00	 call	 ?PyTuple_GetInteger@@YA_NPAU_object@@HPAH@Z ; PyTuple_GetInteger
  00036	83 c4 0c	 add	 esp, 12			; 0000000cH
  00039	0f b6 c0	 movzx	 eax, al
  0003c	85 c0		 test	 eax, eax
  0003e	75 0a		 jne	 SHORT $LN3@wndMgrDeac

; 1293 : 		return Py_BuildException();

  00040	6a 00		 push	 0
  00042	e8 00 00 00 00	 call	 ?Py_BuildException@@YAPAU_object@@PBDZZ ; Py_BuildException
  00047	59		 pop	 ecx
  00048	eb 32		 jmp	 SHORT $LN1@wndMgrDeac
$LN3@wndMgrDeac:

; 1294 : 
; 1295 : 	if (!pWin->IsType(UI::CSlotWindow::Type()))

  0004a	e8 00 00 00 00	 call	 ?Type@CSlotWindow@UI@@SAKXZ ; UI::CSlotWindow::Type
  0004f	50		 push	 eax
  00050	8b 4d fc	 mov	 ecx, DWORD PTR _pWin$[ebp]
  00053	e8 00 00 00 00	 call	 ?IsType@CWindow@UI@@QAEHK@Z ; UI::CWindow::IsType
  00058	85 c0		 test	 eax, eax
  0005a	75 0a		 jne	 SHORT $LN4@wndMgrDeac

; 1296 : 		return Py_BuildException();

  0005c	6a 00		 push	 0
  0005e	e8 00 00 00 00	 call	 ?Py_BuildException@@YAPAU_object@@PBDZZ ; Py_BuildException
  00063	59		 pop	 ecx
  00064	eb 16		 jmp	 SHORT $LN1@wndMgrDeac
$LN4@wndMgrDeac:

; 1297 : 
; 1298 : 	UI::CSlotWindow * pSlotWin = (UI::CSlotWindow *)pWin;

  00066	8b 45 fc	 mov	 eax, DWORD PTR _pWin$[ebp]
  00069	89 45 f4	 mov	 DWORD PTR _pSlotWin$[ebp], eax

; 1299 : 	pSlotWin->DeactivateSlot(iSlotIndex);

  0006c	ff 75 f8	 push	 DWORD PTR _iSlotIndex$[ebp]
  0006f	8b 4d f4	 mov	 ecx, DWORD PTR _pSlotWin$[ebp]
  00072	e8 00 00 00 00	 call	 ?DeactivateSlot@CSlotWindow@UI@@QAEXK@Z ; UI::CSlotWindow::DeactivateSlot

; 1300 : 	return Py_BuildNone();

  00077	e8 00 00 00 00	 call	 ?Py_BuildNone@@YAPAU_object@@XZ ; Py_BuildNone
$LN1@wndMgrDeac:

; 1301 : }

  0007c	c9		 leave
  0007d	c3		 ret	 0
?wndMgrDeactivateSlot@@YAPAU_object@@PAU1@0@Z ENDP	; wndMgrDeactivateSlot
_TEXT	ENDS
; Function compile flags: /Odspy
; File D:\Metin2 Server Files\mainline\SRC_2014\Metin2Client\eterPythonLib\PythonWindowManagerModule.cpp
;	COMDAT ?wndMgrActivateSlot@@YAPAU_object@@PAU1@0@Z
_TEXT	SEGMENT
_pSlotWin$ = -12					; size = 4
_iSlotIndex$ = -8					; size = 4
_pWin$ = -4						; size = 4
_poSelf$ = 8						; size = 4
_poArgs$ = 12						; size = 4
?wndMgrActivateSlot@@YAPAU_object@@PAU1@0@Z PROC	; wndMgrActivateSlot, COMDAT

; 1268 : {

  00000	55		 push	 ebp
  00001	8b ec		 mov	 ebp, esp
  00003	83 ec 0c	 sub	 esp, 12			; 0000000cH

; 1269 : 	UI::CWindow * pWin;
; 1270 : 	if (!PyTuple_GetWindow(poArgs, 0, &pWin))

  00006	8d 45 fc	 lea	 eax, DWORD PTR _pWin$[ebp]
  00009	50		 push	 eax
  0000a	6a 00		 push	 0
  0000c	ff 75 0c	 push	 DWORD PTR _poArgs$[ebp]
  0000f	e8 00 00 00 00	 call	 ?PyTuple_GetWindow@@YA_NPAU_object@@HPAPAVCWindow@UI@@@Z ; PyTuple_GetWindow
  00014	83 c4 0c	 add	 esp, 12			; 0000000cH
  00017	0f b6 c0	 movzx	 eax, al
  0001a	85 c0		 test	 eax, eax
  0001c	75 0a		 jne	 SHORT $LN2@wndMgrActi

; 1271 : 		return Py_BuildException();

  0001e	6a 00		 push	 0
  00020	e8 00 00 00 00	 call	 ?Py_BuildException@@YAPAU_object@@PBDZZ ; Py_BuildException
  00025	59		 pop	 ecx
  00026	eb 54		 jmp	 SHORT $LN1@wndMgrActi
$LN2@wndMgrActi:

; 1272 : 
; 1273 : 	int iSlotIndex;
; 1274 : 	if (!PyTuple_GetInteger(poArgs, 1, &iSlotIndex))

  00028	8d 45 f8	 lea	 eax, DWORD PTR _iSlotIndex$[ebp]
  0002b	50		 push	 eax
  0002c	6a 01		 push	 1
  0002e	ff 75 0c	 push	 DWORD PTR _poArgs$[ebp]
  00031	e8 00 00 00 00	 call	 ?PyTuple_GetInteger@@YA_NPAU_object@@HPAH@Z ; PyTuple_GetInteger
  00036	83 c4 0c	 add	 esp, 12			; 0000000cH
  00039	0f b6 c0	 movzx	 eax, al
  0003c	85 c0		 test	 eax, eax
  0003e	75 0a		 jne	 SHORT $LN3@wndMgrActi

; 1275 : 		return Py_BuildException();

  00040	6a 00		 push	 0
  00042	e8 00 00 00 00	 call	 ?Py_BuildException@@YAPAU_object@@PBDZZ ; Py_BuildException
  00047	59		 pop	 ecx
  00048	eb 32		 jmp	 SHORT $LN1@wndMgrActi
$LN3@wndMgrActi:

; 1276 : 
; 1277 : 	if (!pWin->IsType(UI::CSlotWindow::Type()))

  0004a	e8 00 00 00 00	 call	 ?Type@CSlotWindow@UI@@SAKXZ ; UI::CSlotWindow::Type
  0004f	50		 push	 eax
  00050	8b 4d fc	 mov	 ecx, DWORD PTR _pWin$[ebp]
  00053	e8 00 00 00 00	 call	 ?IsType@CWindow@UI@@QAEHK@Z ; UI::CWindow::IsType
  00058	85 c0		 test	 eax, eax
  0005a	75 0a		 jne	 SHORT $LN4@wndMgrActi

; 1278 : 		return Py_BuildException();

  0005c	6a 00		 push	 0
  0005e	e8 00 00 00 00	 call	 ?Py_BuildException@@YAPAU_object@@PBDZZ ; Py_BuildException
  00063	59		 pop	 ecx
  00064	eb 16		 jmp	 SHORT $LN1@wndMgrActi
$LN4@wndMgrActi:

; 1279 : 
; 1280 : 	UI::CSlotWindow * pSlotWin = (UI::CSlotWindow *)pWin;

  00066	8b 45 fc	 mov	 eax, DWORD PTR _pWin$[ebp]
  00069	89 45 f4	 mov	 DWORD PTR _pSlotWin$[ebp], eax

; 1281 : 	pSlotWin->ActivateSlot(iSlotIndex);

  0006c	ff 75 f8	 push	 DWORD PTR _iSlotIndex$[ebp]
  0006f	8b 4d f4	 mov	 ecx, DWORD PTR _pSlotWin$[ebp]
  00072	e8 00 00 00 00	 call	 ?ActivateSlot@CSlotWindow@UI@@QAEXK@Z ; UI::CSlotWindow::ActivateSlot

; 1282 : 	return Py_BuildNone();

  00077	e8 00 00 00 00	 call	 ?Py_BuildNone@@YAPAU_object@@XZ ; Py_BuildNone
$LN1@wndMgrActi:

; 1283 : }

  0007c	c9		 leave
  0007d	c3		 ret	 0
?wndMgrActivateSlot@@YAPAU_object@@PAU1@0@Z ENDP	; wndMgrActivateSlot
_TEXT	ENDS
; Function compile flags: /Odspy
; File D:\Metin2 Server Files\mainline\SRC_2014\Metin2Client\eterPythonLib\PythonWindowManagerModule.cpp
;	COMDAT ?wndMgrSetToggleSlot@@YAPAU_object@@PAU1@0@Z
_TEXT	SEGMENT
_poSelf$ = 8						; size = 4
_poArgs$ = 12						; size = 4
?wndMgrSetToggleSlot@@YAPAU_object@@PAU1@0@Z PROC	; wndMgrSetToggleSlot, COMDAT

; 1262 : {

  00000	55		 push	 ebp
  00001	8b ec		 mov	 ebp, esp

; 1263 : 	assert(!"wndMgrSetToggleSlot -   ");
; 1264 : 	return Py_BuildNone();

  00003	e8 00 00 00 00	 call	 ?Py_BuildNone@@YAPAU_object@@XZ ; Py_BuildNone

; 1265 : }

  00008	5d		 pop	 ebp
  00009	c3		 ret	 0
?wndMgrSetToggleSlot@@YAPAU_object@@PAU1@0@Z ENDP	; wndMgrSetToggleSlot
_TEXT	ENDS
; Function compile flags: /Odspy
; File D:\Metin2 Server Files\mainline\SRC_2014\Metin2Client\eterPythonLib\PythonWindowManagerModule.cpp
;	COMDAT ?wndMgrSetSlotCoolTime@@YAPAU_object@@PAU1@0@Z
_TEXT	SEGMENT
_pSlotWin$ = -20					; size = 4
_iSlotIndex$ = -16					; size = 4
_fCoolTime$ = -12					; size = 4
_fElapsedTime$ = -8					; size = 4
_pWin$ = -4						; size = 4
_poSelf$ = 8						; size = 4
_poArgs$ = 12						; size = 4
?wndMgrSetSlotCoolTime@@YAPAU_object@@PAU1@0@Z PROC	; wndMgrSetSlotCoolTime, COMDAT

; 1236 : {

  00000	55		 push	 ebp
  00001	8b ec		 mov	 ebp, esp
  00003	83 ec 14	 sub	 esp, 20			; 00000014H

; 1237 : 	UI::CWindow * pWin;
; 1238 : 	if (!PyTuple_GetWindow(poArgs, 0, &pWin))

  00006	8d 45 fc	 lea	 eax, DWORD PTR _pWin$[ebp]
  00009	50		 push	 eax
  0000a	6a 00		 push	 0
  0000c	ff 75 0c	 push	 DWORD PTR _poArgs$[ebp]
  0000f	e8 00 00 00 00	 call	 ?PyTuple_GetWindow@@YA_NPAU_object@@HPAPAVCWindow@UI@@@Z ; PyTuple_GetWindow
  00014	83 c4 0c	 add	 esp, 12			; 0000000cH
  00017	0f b6 c0	 movzx	 eax, al
  0001a	85 c0		 test	 eax, eax
  0001c	75 0d		 jne	 SHORT $LN2@wndMgrSetS

; 1239 : 		return Py_BuildException();

  0001e	6a 00		 push	 0
  00020	e8 00 00 00 00	 call	 ?Py_BuildException@@YAPAU_object@@PBDZZ ; Py_BuildException
  00025	59		 pop	 ecx
  00026	e9 a8 00 00 00	 jmp	 $LN1@wndMgrSetS
$LN2@wndMgrSetS:

; 1240 : 
; 1241 : 	int iSlotIndex;
; 1242 : 	if (!PyTuple_GetInteger(poArgs, 1, &iSlotIndex))

  0002b	8d 45 f0	 lea	 eax, DWORD PTR _iSlotIndex$[ebp]
  0002e	50		 push	 eax
  0002f	6a 01		 push	 1
  00031	ff 75 0c	 push	 DWORD PTR _poArgs$[ebp]
  00034	e8 00 00 00 00	 call	 ?PyTuple_GetInteger@@YA_NPAU_object@@HPAH@Z ; PyTuple_GetInteger
  00039	83 c4 0c	 add	 esp, 12			; 0000000cH
  0003c	0f b6 c0	 movzx	 eax, al
  0003f	85 c0		 test	 eax, eax
  00041	75 0d		 jne	 SHORT $LN3@wndMgrSetS

; 1243 : 		return Py_BuildException();

  00043	6a 00		 push	 0
  00045	e8 00 00 00 00	 call	 ?Py_BuildException@@YAPAU_object@@PBDZZ ; Py_BuildException
  0004a	59		 pop	 ecx
  0004b	e9 83 00 00 00	 jmp	 $LN1@wndMgrSetS
$LN3@wndMgrSetS:

; 1244 : 
; 1245 : 	float fCoolTime;
; 1246 : 	if (!PyTuple_GetFloat(poArgs, 2, &fCoolTime))

  00050	8d 45 f4	 lea	 eax, DWORD PTR _fCoolTime$[ebp]
  00053	50		 push	 eax
  00054	6a 02		 push	 2
  00056	ff 75 0c	 push	 DWORD PTR _poArgs$[ebp]
  00059	e8 00 00 00 00	 call	 ?PyTuple_GetFloat@@YA_NPAU_object@@HPAM@Z ; PyTuple_GetFloat
  0005e	83 c4 0c	 add	 esp, 12			; 0000000cH
  00061	0f b6 c0	 movzx	 eax, al
  00064	85 c0		 test	 eax, eax
  00066	75 0a		 jne	 SHORT $LN4@wndMgrSetS

; 1247 : 		return Py_BuildException();

  00068	6a 00		 push	 0
  0006a	e8 00 00 00 00	 call	 ?Py_BuildException@@YAPAU_object@@PBDZZ ; Py_BuildException
  0006f	59		 pop	 ecx
  00070	eb 61		 jmp	 SHORT $LN1@wndMgrSetS
$LN4@wndMgrSetS:

; 1248 : 
; 1249 : 	float fElapsedTime = 0.0f;

  00072	0f 57 c0	 xorps	 xmm0, xmm0
  00075	f3 0f 11 45 f8	 movss	 DWORD PTR _fElapsedTime$[ebp], xmm0

; 1250 : 	PyTuple_GetFloat(poArgs, 3, &fElapsedTime);

  0007a	8d 45 f8	 lea	 eax, DWORD PTR _fElapsedTime$[ebp]
  0007d	50		 push	 eax
  0007e	6a 03		 push	 3
  00080	ff 75 0c	 push	 DWORD PTR _poArgs$[ebp]
  00083	e8 00 00 00 00	 call	 ?PyTuple_GetFloat@@YA_NPAU_object@@HPAM@Z ; PyTuple_GetFloat
  00088	83 c4 0c	 add	 esp, 12			; 0000000cH

; 1251 : 
; 1252 : 	if (!pWin->IsType(UI::CSlotWindow::Type()))

  0008b	e8 00 00 00 00	 call	 ?Type@CSlotWindow@UI@@SAKXZ ; UI::CSlotWindow::Type
  00090	50		 push	 eax
  00091	8b 4d fc	 mov	 ecx, DWORD PTR _pWin$[ebp]
  00094	e8 00 00 00 00	 call	 ?IsType@CWindow@UI@@QAEHK@Z ; UI::CWindow::IsType
  00099	85 c0		 test	 eax, eax
  0009b	75 0a		 jne	 SHORT $LN5@wndMgrSetS

; 1253 : 		return Py_BuildException();

  0009d	6a 00		 push	 0
  0009f	e8 00 00 00 00	 call	 ?Py_BuildException@@YAPAU_object@@PBDZZ ; Py_BuildException
  000a4	59		 pop	 ecx
  000a5	eb 2c		 jmp	 SHORT $LN1@wndMgrSetS
$LN5@wndMgrSetS:

; 1254 : 
; 1255 : 	UI::CSlotWindow * pSlotWin = (UI::CSlotWindow *)pWin;

  000a7	8b 45 fc	 mov	 eax, DWORD PTR _pWin$[ebp]
  000aa	89 45 ec	 mov	 DWORD PTR _pSlotWin$[ebp], eax

; 1256 : 	pSlotWin->SetSlotCoolTime(iSlotIndex, fCoolTime, fElapsedTime);

  000ad	51		 push	 ecx
  000ae	f3 0f 10 45 f8	 movss	 xmm0, DWORD PTR _fElapsedTime$[ebp]
  000b3	f3 0f 11 04 24	 movss	 DWORD PTR [esp], xmm0
  000b8	51		 push	 ecx
  000b9	f3 0f 10 45 f4	 movss	 xmm0, DWORD PTR _fCoolTime$[ebp]
  000be	f3 0f 11 04 24	 movss	 DWORD PTR [esp], xmm0
  000c3	ff 75 f0	 push	 DWORD PTR _iSlotIndex$[ebp]
  000c6	8b 4d ec	 mov	 ecx, DWORD PTR _pSlotWin$[ebp]
  000c9	e8 00 00 00 00	 call	 ?SetSlotCoolTime@CSlotWindow@UI@@QAEXKMM@Z ; UI::CSlotWindow::SetSlotCoolTime

; 1257 : 
; 1258 : 	return Py_BuildNone();

  000ce	e8 00 00 00 00	 call	 ?Py_BuildNone@@YAPAU_object@@XZ ; Py_BuildNone
$LN1@wndMgrSetS:

; 1259 : }

  000d3	c9		 leave
  000d4	c3		 ret	 0
?wndMgrSetSlotCoolTime@@YAPAU_object@@PAU1@0@Z ENDP	; wndMgrSetSlotCoolTime
_TEXT	ENDS
; Function compile flags: /Odspy
; File D:\Metin2 Server Files\mainline\SRC_2014\Metin2Client\eterPythonLib\PythonWindowManagerModule.cpp
;	COMDAT ?wndMgrSetSlotCountNew@@YAPAU_object@@PAU1@0@Z
_TEXT	SEGMENT
_pSlotWin$ = -20					; size = 4
_iSlotIndex$ = -16					; size = 4
_iGrade$ = -12						; size = 4
_iCount$ = -8						; size = 4
_pWin$ = -4						; size = 4
_poSelf$ = 8						; size = 4
_poArgs$ = 12						; size = 4
?wndMgrSetSlotCountNew@@YAPAU_object@@PAU1@0@Z PROC	; wndMgrSetSlotCountNew, COMDAT

; 1209 : {

  00000	55		 push	 ebp
  00001	8b ec		 mov	 ebp, esp
  00003	83 ec 14	 sub	 esp, 20			; 00000014H

; 1210 : 	UI::CWindow * pWin;
; 1211 : 	if (!PyTuple_GetWindow(poArgs, 0, &pWin))

  00006	8d 45 fc	 lea	 eax, DWORD PTR _pWin$[ebp]
  00009	50		 push	 eax
  0000a	6a 00		 push	 0
  0000c	ff 75 0c	 push	 DWORD PTR _poArgs$[ebp]
  0000f	e8 00 00 00 00	 call	 ?PyTuple_GetWindow@@YA_NPAU_object@@HPAPAVCWindow@UI@@@Z ; PyTuple_GetWindow
  00014	83 c4 0c	 add	 esp, 12			; 0000000cH
  00017	0f b6 c0	 movzx	 eax, al
  0001a	85 c0		 test	 eax, eax
  0001c	75 0d		 jne	 SHORT $LN2@wndMgrSetS

; 1212 : 		return Py_BuildException();

  0001e	6a 00		 push	 0
  00020	e8 00 00 00 00	 call	 ?Py_BuildException@@YAPAU_object@@PBDZZ ; Py_BuildException
  00025	59		 pop	 ecx
  00026	e9 9e 00 00 00	 jmp	 $LN1@wndMgrSetS
$LN2@wndMgrSetS:

; 1213 : 
; 1214 : 	int iSlotIndex;
; 1215 : 	if (!PyTuple_GetInteger(poArgs, 1, &iSlotIndex))

  0002b	8d 45 f0	 lea	 eax, DWORD PTR _iSlotIndex$[ebp]
  0002e	50		 push	 eax
  0002f	6a 01		 push	 1
  00031	ff 75 0c	 push	 DWORD PTR _poArgs$[ebp]
  00034	e8 00 00 00 00	 call	 ?PyTuple_GetInteger@@YA_NPAU_object@@HPAH@Z ; PyTuple_GetInteger
  00039	83 c4 0c	 add	 esp, 12			; 0000000cH
  0003c	0f b6 c0	 movzx	 eax, al
  0003f	85 c0		 test	 eax, eax
  00041	75 0a		 jne	 SHORT $LN3@wndMgrSetS

; 1216 : 		return Py_BuildException();

  00043	6a 00		 push	 0
  00045	e8 00 00 00 00	 call	 ?Py_BuildException@@YAPAU_object@@PBDZZ ; Py_BuildException
  0004a	59		 pop	 ecx
  0004b	eb 7c		 jmp	 SHORT $LN1@wndMgrSetS
$LN3@wndMgrSetS:

; 1217 : 
; 1218 : 	int iGrade;
; 1219 : 	if (!PyTuple_GetInteger(poArgs, 2, &iGrade))

  0004d	8d 45 f4	 lea	 eax, DWORD PTR _iGrade$[ebp]
  00050	50		 push	 eax
  00051	6a 02		 push	 2
  00053	ff 75 0c	 push	 DWORD PTR _poArgs$[ebp]
  00056	e8 00 00 00 00	 call	 ?PyTuple_GetInteger@@YA_NPAU_object@@HPAH@Z ; PyTuple_GetInteger
  0005b	83 c4 0c	 add	 esp, 12			; 0000000cH
  0005e	0f b6 c0	 movzx	 eax, al
  00061	85 c0		 test	 eax, eax
  00063	75 0a		 jne	 SHORT $LN4@wndMgrSetS

; 1220 : 		return Py_BuildException();

  00065	6a 00		 push	 0
  00067	e8 00 00 00 00	 call	 ?Py_BuildException@@YAPAU_object@@PBDZZ ; Py_BuildException
  0006c	59		 pop	 ecx
  0006d	eb 5a		 jmp	 SHORT $LN1@wndMgrSetS
$LN4@wndMgrSetS:

; 1221 : 
; 1222 : 	int iCount;
; 1223 : 	if (!PyTuple_GetInteger(poArgs, 3, &iCount))

  0006f	8d 45 f8	 lea	 eax, DWORD PTR _iCount$[ebp]
  00072	50		 push	 eax
  00073	6a 03		 push	 3
  00075	ff 75 0c	 push	 DWORD PTR _poArgs$[ebp]
  00078	e8 00 00 00 00	 call	 ?PyTuple_GetInteger@@YA_NPAU_object@@HPAH@Z ; PyTuple_GetInteger
  0007d	83 c4 0c	 add	 esp, 12			; 0000000cH
  00080	0f b6 c0	 movzx	 eax, al
  00083	85 c0		 test	 eax, eax
  00085	75 0a		 jne	 SHORT $LN5@wndMgrSetS

; 1224 : 		return Py_BuildException();

  00087	6a 00		 push	 0
  00089	e8 00 00 00 00	 call	 ?Py_BuildException@@YAPAU_object@@PBDZZ ; Py_BuildException
  0008e	59		 pop	 ecx
  0008f	eb 38		 jmp	 SHORT $LN1@wndMgrSetS
$LN5@wndMgrSetS:

; 1225 : 
; 1226 : 	if (!pWin->IsType(UI::CSlotWindow::Type()))

  00091	e8 00 00 00 00	 call	 ?Type@CSlotWindow@UI@@SAKXZ ; UI::CSlotWindow::Type
  00096	50		 push	 eax
  00097	8b 4d fc	 mov	 ecx, DWORD PTR _pWin$[ebp]
  0009a	e8 00 00 00 00	 call	 ?IsType@CWindow@UI@@QAEHK@Z ; UI::CWindow::IsType
  0009f	85 c0		 test	 eax, eax
  000a1	75 0a		 jne	 SHORT $LN6@wndMgrSetS

; 1227 : 		return Py_BuildException();

  000a3	6a 00		 push	 0
  000a5	e8 00 00 00 00	 call	 ?Py_BuildException@@YAPAU_object@@PBDZZ ; Py_BuildException
  000aa	59		 pop	 ecx
  000ab	eb 1c		 jmp	 SHORT $LN1@wndMgrSetS
$LN6@wndMgrSetS:

; 1228 : 
; 1229 : 	UI::CSlotWindow * pSlotWin = (UI::CSlotWindow *)pWin;

  000ad	8b 45 fc	 mov	 eax, DWORD PTR _pWin$[ebp]
  000b0	89 45 ec	 mov	 DWORD PTR _pSlotWin$[ebp], eax

; 1230 : 	pSlotWin->SetSlotCountNew(iSlotIndex, iGrade, iCount);

  000b3	ff 75 f8	 push	 DWORD PTR _iCount$[ebp]
  000b6	ff 75 f4	 push	 DWORD PTR _iGrade$[ebp]
  000b9	ff 75 f0	 push	 DWORD PTR _iSlotIndex$[ebp]
  000bc	8b 4d ec	 mov	 ecx, DWORD PTR _pSlotWin$[ebp]
  000bf	e8 00 00 00 00	 call	 ?SetSlotCountNew@CSlotWindow@UI@@QAEXKKK@Z ; UI::CSlotWindow::SetSlotCountNew

; 1231 : 
; 1232 : 	return Py_BuildNone();

  000c4	e8 00 00 00 00	 call	 ?Py_BuildNone@@YAPAU_object@@XZ ; Py_BuildNone
$LN1@wndMgrSetS:

; 1233 : }

  000c9	c9		 leave
  000ca	c3		 ret	 0
?wndMgrSetSlotCountNew@@YAPAU_object@@PAU1@0@Z ENDP	; wndMgrSetSlotCountNew
_TEXT	ENDS
; Function compile flags: /Odspy
; File D:\Metin2 Server Files\mainline\SRC_2014\Metin2Client\eterPythonLib\PythonWindowManagerModule.cpp
;	COMDAT ?wndMgrSetSlotCount@@YAPAU_object@@PAU1@0@Z
_TEXT	SEGMENT
_pSlotWin$ = -16					; size = 4
_iSlotIndex$ = -12					; size = 4
_iCount$ = -8						; size = 4
_pWin$ = -4						; size = 4
_poSelf$ = 8						; size = 4
_poArgs$ = 12						; size = 4
?wndMgrSetSlotCount@@YAPAU_object@@PAU1@0@Z PROC	; wndMgrSetSlotCount, COMDAT

; 1186 : {

  00000	55		 push	 ebp
  00001	8b ec		 mov	 ebp, esp
  00003	83 ec 10	 sub	 esp, 16			; 00000010H

; 1187 : 	UI::CWindow * pWin;
; 1188 : 	if (!PyTuple_GetWindow(poArgs, 0, &pWin))

  00006	8d 45 fc	 lea	 eax, DWORD PTR _pWin$[ebp]
  00009	50		 push	 eax
  0000a	6a 00		 push	 0
  0000c	ff 75 0c	 push	 DWORD PTR _poArgs$[ebp]
  0000f	e8 00 00 00 00	 call	 ?PyTuple_GetWindow@@YA_NPAU_object@@HPAPAVCWindow@UI@@@Z ; PyTuple_GetWindow
  00014	83 c4 0c	 add	 esp, 12			; 0000000cH
  00017	0f b6 c0	 movzx	 eax, al
  0001a	85 c0		 test	 eax, eax
  0001c	75 0a		 jne	 SHORT $LN2@wndMgrSetS

; 1189 : 		return Py_BuildException();

  0001e	6a 00		 push	 0
  00020	e8 00 00 00 00	 call	 ?Py_BuildException@@YAPAU_object@@PBDZZ ; Py_BuildException
  00025	59		 pop	 ecx
  00026	eb 79		 jmp	 SHORT $LN1@wndMgrSetS
$LN2@wndMgrSetS:

; 1190 : 
; 1191 : 	int iSlotIndex;
; 1192 : 	if (!PyTuple_GetInteger(poArgs, 1, &iSlotIndex))

  00028	8d 45 f4	 lea	 eax, DWORD PTR _iSlotIndex$[ebp]
  0002b	50		 push	 eax
  0002c	6a 01		 push	 1
  0002e	ff 75 0c	 push	 DWORD PTR _poArgs$[ebp]
  00031	e8 00 00 00 00	 call	 ?PyTuple_GetInteger@@YA_NPAU_object@@HPAH@Z ; PyTuple_GetInteger
  00036	83 c4 0c	 add	 esp, 12			; 0000000cH
  00039	0f b6 c0	 movzx	 eax, al
  0003c	85 c0		 test	 eax, eax
  0003e	75 0a		 jne	 SHORT $LN3@wndMgrSetS

; 1193 : 		return Py_BuildException();

  00040	6a 00		 push	 0
  00042	e8 00 00 00 00	 call	 ?Py_BuildException@@YAPAU_object@@PBDZZ ; Py_BuildException
  00047	59		 pop	 ecx
  00048	eb 57		 jmp	 SHORT $LN1@wndMgrSetS
$LN3@wndMgrSetS:

; 1194 : 
; 1195 : 	int iCount;
; 1196 : 	if (!PyTuple_GetInteger(poArgs, 2, &iCount))

  0004a	8d 45 f8	 lea	 eax, DWORD PTR _iCount$[ebp]
  0004d	50		 push	 eax
  0004e	6a 02		 push	 2
  00050	ff 75 0c	 push	 DWORD PTR _poArgs$[ebp]
  00053	e8 00 00 00 00	 call	 ?PyTuple_GetInteger@@YA_NPAU_object@@HPAH@Z ; PyTuple_GetInteger
  00058	83 c4 0c	 add	 esp, 12			; 0000000cH
  0005b	0f b6 c0	 movzx	 eax, al
  0005e	85 c0		 test	 eax, eax
  00060	75 0a		 jne	 SHORT $LN4@wndMgrSetS

; 1197 : 		return Py_BuildException();

  00062	6a 00		 push	 0
  00064	e8 00 00 00 00	 call	 ?Py_BuildException@@YAPAU_object@@PBDZZ ; Py_BuildException
  00069	59		 pop	 ecx
  0006a	eb 35		 jmp	 SHORT $LN1@wndMgrSetS
$LN4@wndMgrSetS:

; 1198 : 
; 1199 : 	if (!pWin->IsType(UI::CSlotWindow::Type()))

  0006c	e8 00 00 00 00	 call	 ?Type@CSlotWindow@UI@@SAKXZ ; UI::CSlotWindow::Type
  00071	50		 push	 eax
  00072	8b 4d fc	 mov	 ecx, DWORD PTR _pWin$[ebp]
  00075	e8 00 00 00 00	 call	 ?IsType@CWindow@UI@@QAEHK@Z ; UI::CWindow::IsType
  0007a	85 c0		 test	 eax, eax
  0007c	75 0a		 jne	 SHORT $LN5@wndMgrSetS

; 1200 : 		return Py_BuildException();

  0007e	6a 00		 push	 0
  00080	e8 00 00 00 00	 call	 ?Py_BuildException@@YAPAU_object@@PBDZZ ; Py_BuildException
  00085	59		 pop	 ecx
  00086	eb 19		 jmp	 SHORT $LN1@wndMgrSetS
$LN5@wndMgrSetS:

; 1201 : 
; 1202 : 	UI::CSlotWindow * pSlotWin = (UI::CSlotWindow *)pWin;

  00088	8b 45 fc	 mov	 eax, DWORD PTR _pWin$[ebp]
  0008b	89 45 f0	 mov	 DWORD PTR _pSlotWin$[ebp], eax

; 1203 : 	pSlotWin->SetSlotCount(iSlotIndex, iCount);

  0008e	ff 75 f8	 push	 DWORD PTR _iCount$[ebp]
  00091	ff 75 f4	 push	 DWORD PTR _iSlotIndex$[ebp]
  00094	8b 4d f0	 mov	 ecx, DWORD PTR _pSlotWin$[ebp]
  00097	e8 00 00 00 00	 call	 ?SetSlotCount@CSlotWindow@UI@@QAEXKK@Z ; UI::CSlotWindow::SetSlotCount

; 1204 : 
; 1205 : 	return Py_BuildNone();

  0009c	e8 00 00 00 00	 call	 ?Py_BuildNone@@YAPAU_object@@XZ ; Py_BuildNone
$LN1@wndMgrSetS:

; 1206 : }

  000a1	c9		 leave
  000a2	c3		 ret	 0
?wndMgrSetSlotCount@@YAPAU_object@@PAU1@0@Z ENDP	; wndMgrSetSlotCount
_TEXT	ENDS
; Function compile flags: /Odspy
; File D:\Metin2 Server Files\mainline\SRC_2014\Metin2Client\eterPythonLib\PythonWindowManagerModule.cpp
; File D:\Metin2 Server Files\mainline\SRC_2014\M2Data\include\d3dx8math.inl
; File D:\Metin2 Server Files\mainline\SRC_2014\Metin2Client\eterPythonLib\PythonWindowManagerModule.cpp
;	COMDAT ?wndMgrSetSlot@@YAPAU_object@@PAU1@0@Z
_TEXT	SEGMENT
$T1 = -64						; size = 16
_diffuseColor$ = -48					; size = 16
_pSlotWin$ = -32					; size = 4
_iSlotIndex$ = -28					; size = 4
_iItemIndex$ = -24					; size = 4
_iWidth$ = -20						; size = 4
_iHeight$ = -16						; size = 4
_iImageHandle$ = -12					; size = 4
_pWin$ = -8						; size = 4
_pTuple$ = -4						; size = 4
_poSelf$ = 8						; size = 4
_poArgs$ = 12						; size = 4
?wndMgrSetSlot@@YAPAU_object@@PAU1@0@Z PROC		; wndMgrSetSlot, COMDAT

; 1129 : {

  00000	55		 push	 ebp
  00001	8b ec		 mov	 ebp, esp
  00003	83 ec 40	 sub	 esp, 64			; 00000040H
  00006	56		 push	 esi
  00007	57		 push	 edi

; 1130 : 	UI::CWindow * pWin;
; 1131 : 	if (!PyTuple_GetWindow(poArgs, 0, &pWin))

  00008	8d 45 f8	 lea	 eax, DWORD PTR _pWin$[ebp]
  0000b	50		 push	 eax
  0000c	6a 00		 push	 0
  0000e	ff 75 0c	 push	 DWORD PTR _poArgs$[ebp]
  00011	e8 00 00 00 00	 call	 ?PyTuple_GetWindow@@YA_NPAU_object@@HPAPAVCWindow@UI@@@Z ; PyTuple_GetWindow
  00016	83 c4 0c	 add	 esp, 12			; 0000000cH
  00019	0f b6 c0	 movzx	 eax, al
  0001c	85 c0		 test	 eax, eax
  0001e	75 0d		 jne	 SHORT $LN2@wndMgrSetS

; 1132 : 		return Py_BuildException();

  00020	6a 00		 push	 0
  00022	e8 00 00 00 00	 call	 ?Py_BuildException@@YAPAU_object@@PBDZZ ; Py_BuildException
  00027	59		 pop	 ecx
  00028	e9 00 02 00 00	 jmp	 $LN1@wndMgrSetS
$LN2@wndMgrSetS:

; 1133 : 
; 1134 : 	int iSlotIndex;
; 1135 : 	if (!PyTuple_GetInteger(poArgs, 1, &iSlotIndex))

  0002d	8d 45 e4	 lea	 eax, DWORD PTR _iSlotIndex$[ebp]
  00030	50		 push	 eax
  00031	6a 01		 push	 1
  00033	ff 75 0c	 push	 DWORD PTR _poArgs$[ebp]
  00036	e8 00 00 00 00	 call	 ?PyTuple_GetInteger@@YA_NPAU_object@@HPAH@Z ; PyTuple_GetInteger
  0003b	83 c4 0c	 add	 esp, 12			; 0000000cH
  0003e	0f b6 c0	 movzx	 eax, al
  00041	85 c0		 test	 eax, eax
  00043	75 0d		 jne	 SHORT $LN3@wndMgrSetS

; 1136 : 		return Py_BuildException();

  00045	6a 00		 push	 0
  00047	e8 00 00 00 00	 call	 ?Py_BuildException@@YAPAU_object@@PBDZZ ; Py_BuildException
  0004c	59		 pop	 ecx
  0004d	e9 db 01 00 00	 jmp	 $LN1@wndMgrSetS
$LN3@wndMgrSetS:

; 1137 : 
; 1138 : 	int iItemIndex;
; 1139 : 	if (!PyTuple_GetInteger(poArgs, 2, &iItemIndex))

  00052	8d 45 e8	 lea	 eax, DWORD PTR _iItemIndex$[ebp]
  00055	50		 push	 eax
  00056	6a 02		 push	 2
  00058	ff 75 0c	 push	 DWORD PTR _poArgs$[ebp]
  0005b	e8 00 00 00 00	 call	 ?PyTuple_GetInteger@@YA_NPAU_object@@HPAH@Z ; PyTuple_GetInteger
  00060	83 c4 0c	 add	 esp, 12			; 0000000cH
  00063	0f b6 c0	 movzx	 eax, al
  00066	85 c0		 test	 eax, eax
  00068	75 0d		 jne	 SHORT $LN4@wndMgrSetS

; 1140 : 		return Py_BuildException();

  0006a	6a 00		 push	 0
  0006c	e8 00 00 00 00	 call	 ?Py_BuildException@@YAPAU_object@@PBDZZ ; Py_BuildException
  00071	59		 pop	 ecx
  00072	e9 b6 01 00 00	 jmp	 $LN1@wndMgrSetS
$LN4@wndMgrSetS:

; 1141 : 
; 1142 : 	int iWidth;
; 1143 : 	if (!PyTuple_GetInteger(poArgs, 3, &iWidth))

  00077	8d 45 ec	 lea	 eax, DWORD PTR _iWidth$[ebp]
  0007a	50		 push	 eax
  0007b	6a 03		 push	 3
  0007d	ff 75 0c	 push	 DWORD PTR _poArgs$[ebp]
  00080	e8 00 00 00 00	 call	 ?PyTuple_GetInteger@@YA_NPAU_object@@HPAH@Z ; PyTuple_GetInteger
  00085	83 c4 0c	 add	 esp, 12			; 0000000cH
  00088	0f b6 c0	 movzx	 eax, al
  0008b	85 c0		 test	 eax, eax
  0008d	75 0d		 jne	 SHORT $LN5@wndMgrSetS

; 1144 : 		return Py_BuildException();

  0008f	6a 00		 push	 0
  00091	e8 00 00 00 00	 call	 ?Py_BuildException@@YAPAU_object@@PBDZZ ; Py_BuildException
  00096	59		 pop	 ecx
  00097	e9 91 01 00 00	 jmp	 $LN1@wndMgrSetS
$LN5@wndMgrSetS:

; 1145 : 
; 1146 : 	int iHeight;
; 1147 : 	if (!PyTuple_GetInteger(poArgs, 4, &iHeight))

  0009c	8d 45 f0	 lea	 eax, DWORD PTR _iHeight$[ebp]
  0009f	50		 push	 eax
  000a0	6a 04		 push	 4
  000a2	ff 75 0c	 push	 DWORD PTR _poArgs$[ebp]
  000a5	e8 00 00 00 00	 call	 ?PyTuple_GetInteger@@YA_NPAU_object@@HPAH@Z ; PyTuple_GetInteger
  000aa	83 c4 0c	 add	 esp, 12			; 0000000cH
  000ad	0f b6 c0	 movzx	 eax, al
  000b0	85 c0		 test	 eax, eax
  000b2	75 0d		 jne	 SHORT $LN6@wndMgrSetS

; 1148 : 		return Py_BuildException();

  000b4	6a 00		 push	 0
  000b6	e8 00 00 00 00	 call	 ?Py_BuildException@@YAPAU_object@@PBDZZ ; Py_BuildException
  000bb	59		 pop	 ecx
  000bc	e9 6c 01 00 00	 jmp	 $LN1@wndMgrSetS
$LN6@wndMgrSetS:

; 1149 : 
; 1150 : 	int iImageHandle;
; 1151 : 	if (!PyTuple_GetInteger(poArgs, 5, &iImageHandle))

  000c1	8d 45 f4	 lea	 eax, DWORD PTR _iImageHandle$[ebp]
  000c4	50		 push	 eax
  000c5	6a 05		 push	 5
  000c7	ff 75 0c	 push	 DWORD PTR _poArgs$[ebp]
  000ca	e8 00 00 00 00	 call	 ?PyTuple_GetInteger@@YA_NPAU_object@@HPAH@Z ; PyTuple_GetInteger
  000cf	83 c4 0c	 add	 esp, 12			; 0000000cH
  000d2	0f b6 c0	 movzx	 eax, al
  000d5	85 c0		 test	 eax, eax
  000d7	75 0d		 jne	 SHORT $LN7@wndMgrSetS

; 1152 : 		return Py_BuildException();

  000d9	6a 00		 push	 0
  000db	e8 00 00 00 00	 call	 ?Py_BuildException@@YAPAU_object@@PBDZZ ; Py_BuildException
  000e0	59		 pop	 ecx
  000e1	e9 47 01 00 00	 jmp	 $LN1@wndMgrSetS
$LN7@wndMgrSetS:

; 1153 : 
; 1154 : 	D3DXCOLOR diffuseColor;
; 1155 : 	PyObject* pTuple;
; 1156 : 	if (!PyTuple_GetObject(poArgs, 6, &pTuple))

  000e6	8d 45 fc	 lea	 eax, DWORD PTR _pTuple$[ebp]
  000e9	50		 push	 eax
  000ea	6a 06		 push	 6
  000ec	ff 75 0c	 push	 DWORD PTR _poArgs$[ebp]
  000ef	e8 00 00 00 00	 call	 ?PyTuple_GetObject@@YA_NPAU_object@@HPAPAU1@@Z ; PyTuple_GetObject
  000f4	83 c4 0c	 add	 esp, 12			; 0000000cH
  000f7	0f b6 c0	 movzx	 eax, al
  000fa	85 c0		 test	 eax, eax
  000fc	75 43		 jne	 SHORT $LN8@wndMgrSetS
; File D:\Metin2 Server Files\mainline\SRC_2014\M2Data\include\d3dx8math.inl

; 920  :     r = fr;

  000fe	f3 0f 10 05 00
	00 00 00	 movss	 xmm0, DWORD PTR __real@3f800000
  00106	f3 0f 11 45 c0	 movss	 DWORD PTR $T1[ebp], xmm0

; 921  :     g = fg;

  0010b	f3 0f 10 05 00
	00 00 00	 movss	 xmm0, DWORD PTR __real@3f800000
  00113	f3 0f 11 45 c4	 movss	 DWORD PTR $T1[ebp+4], xmm0

; 922  :     b = fb;

  00118	f3 0f 10 05 00
	00 00 00	 movss	 xmm0, DWORD PTR __real@3f800000
  00120	f3 0f 11 45 c8	 movss	 DWORD PTR $T1[ebp+8], xmm0

; 923  :     a = fa;

  00125	f3 0f 10 05 00
	00 00 00	 movss	 xmm0, DWORD PTR __real@3f800000
  0012d	f3 0f 11 45 cc	 movss	 DWORD PTR $T1[ebp+12], xmm0
; File D:\Metin2 Server Files\mainline\SRC_2014\Metin2Client\eterPythonLib\PythonWindowManagerModule.cpp

; 1158 : 		diffuseColor = D3DXCOLOR(1.0, 1.0, 1.0, 1.0);

  00132	8d 75 c0	 lea	 esi, DWORD PTR $T1[ebp]
  00135	8d 7d d0	 lea	 edi, DWORD PTR _diffuseColor$[ebp]
  00138	a5		 movsd
  00139	a5		 movsd
  0013a	a5		 movsd
  0013b	a5		 movsd

; 1159 : 		//return Py_BuildException();
; 1160 : 	}

  0013c	e9 aa 00 00 00	 jmp	 $LN14@wndMgrSetS
$LN8@wndMgrSetS:

; 1161 : 	else
; 1162 : 	// get diffuse color from pTuple
; 1163 : 	{
; 1164 : 		if (PyTuple_Size(pTuple) != 4)

  00141	ff 75 fc	 push	 DWORD PTR _pTuple$[ebp]
  00144	ff 15 00 00 00
	00		 call	 DWORD PTR __imp__PyTuple_Size
  0014a	59		 pop	 ecx
  0014b	83 f8 04	 cmp	 eax, 4
  0014e	74 0d		 je	 SHORT $LN10@wndMgrSetS

; 1165 : 			return Py_BuildException();

  00150	6a 00		 push	 0
  00152	e8 00 00 00 00	 call	 ?Py_BuildException@@YAPAU_object@@PBDZZ ; Py_BuildException
  00157	59		 pop	 ecx
  00158	e9 d0 00 00 00	 jmp	 $LN1@wndMgrSetS
$LN10@wndMgrSetS:

; 1166 : 		if (!PyTuple_GetFloat(pTuple, 0, &diffuseColor.r))

  0015d	8d 45 d0	 lea	 eax, DWORD PTR _diffuseColor$[ebp]
  00160	50		 push	 eax
  00161	6a 00		 push	 0
  00163	ff 75 fc	 push	 DWORD PTR _pTuple$[ebp]
  00166	e8 00 00 00 00	 call	 ?PyTuple_GetFloat@@YA_NPAU_object@@HPAM@Z ; PyTuple_GetFloat
  0016b	83 c4 0c	 add	 esp, 12			; 0000000cH
  0016e	0f b6 c0	 movzx	 eax, al
  00171	85 c0		 test	 eax, eax
  00173	75 0d		 jne	 SHORT $LN11@wndMgrSetS

; 1167 : 			return Py_BuildException();

  00175	6a 00		 push	 0
  00177	e8 00 00 00 00	 call	 ?Py_BuildException@@YAPAU_object@@PBDZZ ; Py_BuildException
  0017c	59		 pop	 ecx
  0017d	e9 ab 00 00 00	 jmp	 $LN1@wndMgrSetS
$LN11@wndMgrSetS:

; 1168 : 		if (!PyTuple_GetFloat(pTuple, 1, &diffuseColor.g))

  00182	8d 45 d4	 lea	 eax, DWORD PTR _diffuseColor$[ebp+4]
  00185	50		 push	 eax
  00186	6a 01		 push	 1
  00188	ff 75 fc	 push	 DWORD PTR _pTuple$[ebp]
  0018b	e8 00 00 00 00	 call	 ?PyTuple_GetFloat@@YA_NPAU_object@@HPAM@Z ; PyTuple_GetFloat
  00190	83 c4 0c	 add	 esp, 12			; 0000000cH
  00193	0f b6 c0	 movzx	 eax, al
  00196	85 c0		 test	 eax, eax
  00198	75 0d		 jne	 SHORT $LN12@wndMgrSetS

; 1169 : 			return Py_BuildException();

  0019a	6a 00		 push	 0
  0019c	e8 00 00 00 00	 call	 ?Py_BuildException@@YAPAU_object@@PBDZZ ; Py_BuildException
  001a1	59		 pop	 ecx
  001a2	e9 86 00 00 00	 jmp	 $LN1@wndMgrSetS
$LN12@wndMgrSetS:

; 1170 : 		if (!PyTuple_GetFloat(pTuple, 2, &diffuseColor.b))

  001a7	8d 45 d8	 lea	 eax, DWORD PTR _diffuseColor$[ebp+8]
  001aa	50		 push	 eax
  001ab	6a 02		 push	 2
  001ad	ff 75 fc	 push	 DWORD PTR _pTuple$[ebp]
  001b0	e8 00 00 00 00	 call	 ?PyTuple_GetFloat@@YA_NPAU_object@@HPAM@Z ; PyTuple_GetFloat
  001b5	83 c4 0c	 add	 esp, 12			; 0000000cH
  001b8	0f b6 c0	 movzx	 eax, al
  001bb	85 c0		 test	 eax, eax
  001bd	75 0a		 jne	 SHORT $LN13@wndMgrSetS

; 1171 : 			return Py_BuildException();

  001bf	6a 00		 push	 0
  001c1	e8 00 00 00 00	 call	 ?Py_BuildException@@YAPAU_object@@PBDZZ ; Py_BuildException
  001c6	59		 pop	 ecx
  001c7	eb 64		 jmp	 SHORT $LN1@wndMgrSetS
$LN13@wndMgrSetS:

; 1172 : 		if (!PyTuple_GetFloat(pTuple, 3, &diffuseColor.a))

  001c9	8d 45 dc	 lea	 eax, DWORD PTR _diffuseColor$[ebp+12]
  001cc	50		 push	 eax
  001cd	6a 03		 push	 3
  001cf	ff 75 fc	 push	 DWORD PTR _pTuple$[ebp]
  001d2	e8 00 00 00 00	 call	 ?PyTuple_GetFloat@@YA_NPAU_object@@HPAM@Z ; PyTuple_GetFloat
  001d7	83 c4 0c	 add	 esp, 12			; 0000000cH
  001da	0f b6 c0	 movzx	 eax, al
  001dd	85 c0		 test	 eax, eax
  001df	75 0a		 jne	 SHORT $LN14@wndMgrSetS

; 1173 : 			return Py_BuildException();

  001e1	6a 00		 push	 0
  001e3	e8 00 00 00 00	 call	 ?Py_BuildException@@YAPAU_object@@PBDZZ ; Py_BuildException
  001e8	59		 pop	 ecx
  001e9	eb 42		 jmp	 SHORT $LN1@wndMgrSetS
$LN14@wndMgrSetS:

; 1174 : 	}
; 1175 : 
; 1176 : 	if (!pWin->IsType(UI::CSlotWindow::Type()))

  001eb	e8 00 00 00 00	 call	 ?Type@CSlotWindow@UI@@SAKXZ ; UI::CSlotWindow::Type
  001f0	50		 push	 eax
  001f1	8b 4d f8	 mov	 ecx, DWORD PTR _pWin$[ebp]
  001f4	e8 00 00 00 00	 call	 ?IsType@CWindow@UI@@QAEHK@Z ; UI::CWindow::IsType
  001f9	85 c0		 test	 eax, eax
  001fb	75 0a		 jne	 SHORT $LN15@wndMgrSetS

; 1177 : 		return Py_BuildException();

  001fd	6a 00		 push	 0
  001ff	e8 00 00 00 00	 call	 ?Py_BuildException@@YAPAU_object@@PBDZZ ; Py_BuildException
  00204	59		 pop	 ecx
  00205	eb 26		 jmp	 SHORT $LN1@wndMgrSetS
$LN15@wndMgrSetS:

; 1178 : 
; 1179 : 	UI::CSlotWindow * pSlotWin = (UI::CSlotWindow *)pWin;

  00207	8b 45 f8	 mov	 eax, DWORD PTR _pWin$[ebp]
  0020a	89 45 e0	 mov	 DWORD PTR _pSlotWin$[ebp], eax

; 1180 : 	pSlotWin->SetSlot(iSlotIndex, iItemIndex, iWidth, iHeight, (CGraphicImage *)iImageHandle, diffuseColor);

  0020d	8d 45 d0	 lea	 eax, DWORD PTR _diffuseColor$[ebp]
  00210	50		 push	 eax
  00211	ff 75 f4	 push	 DWORD PTR _iImageHandle$[ebp]
  00214	ff 75 f0	 push	 DWORD PTR _iHeight$[ebp]
  00217	ff 75 ec	 push	 DWORD PTR _iWidth$[ebp]
  0021a	ff 75 e8	 push	 DWORD PTR _iItemIndex$[ebp]
  0021d	ff 75 e4	 push	 DWORD PTR _iSlotIndex$[ebp]
  00220	8b 4d e0	 mov	 ecx, DWORD PTR _pSlotWin$[ebp]
  00223	e8 00 00 00 00	 call	 ?SetSlot@CSlotWindow@UI@@QAEXKKEEPAVCGraphicImage@@AAUD3DXCOLOR@@@Z ; UI::CSlotWindow::SetSlot

; 1181 : 
; 1182 : 	return Py_BuildNone();

  00228	e8 00 00 00 00	 call	 ?Py_BuildNone@@YAPAU_object@@XZ ; Py_BuildNone
$LN1@wndMgrSetS:

; 1183 : }

  0022d	5f		 pop	 edi
  0022e	5e		 pop	 esi
  0022f	c9		 leave
  00230	c3		 ret	 0
?wndMgrSetSlot@@YAPAU_object@@PAU1@0@Z ENDP		; wndMgrSetSlot
_TEXT	ENDS
; Function compile flags: /Odspy
; File D:\Metin2 Server Files\mainline\SRC_2014\Metin2Client\eterPythonLib\PythonWindowManagerModule.cpp
;	COMDAT ?wndMgrHasSlot@@YAPAU_object@@PAU1@0@Z
_TEXT	SEGMENT
_pSlotWin$ = -12					; size = 4
_iSlotIndex$ = -8					; size = 4
_pWin$ = -4						; size = 4
_poSelf$ = 8						; size = 4
_poArgs$ = 12						; size = 4
?wndMgrHasSlot@@YAPAU_object@@PAU1@0@Z PROC		; wndMgrHasSlot, COMDAT

; 1111 : {

  00000	55		 push	 ebp
  00001	8b ec		 mov	 ebp, esp
  00003	83 ec 0c	 sub	 esp, 12			; 0000000cH

; 1112 : 	UI::CWindow * pWin;
; 1113 : 	if (!PyTuple_GetWindow(poArgs, 0, &pWin))

  00006	8d 45 fc	 lea	 eax, DWORD PTR _pWin$[ebp]
  00009	50		 push	 eax
  0000a	6a 00		 push	 0
  0000c	ff 75 0c	 push	 DWORD PTR _poArgs$[ebp]
  0000f	e8 00 00 00 00	 call	 ?PyTuple_GetWindow@@YA_NPAU_object@@HPAPAVCWindow@UI@@@Z ; PyTuple_GetWindow
  00014	83 c4 0c	 add	 esp, 12			; 0000000cH
  00017	0f b6 c0	 movzx	 eax, al
  0001a	85 c0		 test	 eax, eax
  0001c	75 0a		 jne	 SHORT $LN2@wndMgrHasS

; 1114 : 		return Py_BuildException();

  0001e	6a 00		 push	 0
  00020	e8 00 00 00 00	 call	 ?Py_BuildException@@YAPAU_object@@PBDZZ ; Py_BuildException
  00025	59		 pop	 ecx
  00026	eb 5d		 jmp	 SHORT $LN1@wndMgrHasS
$LN2@wndMgrHasS:

; 1115 : 
; 1116 : 	int iSlotIndex;
; 1117 : 	if (!PyTuple_GetInteger(poArgs, 1, &iSlotIndex))

  00028	8d 45 f8	 lea	 eax, DWORD PTR _iSlotIndex$[ebp]
  0002b	50		 push	 eax
  0002c	6a 01		 push	 1
  0002e	ff 75 0c	 push	 DWORD PTR _poArgs$[ebp]
  00031	e8 00 00 00 00	 call	 ?PyTuple_GetInteger@@YA_NPAU_object@@HPAH@Z ; PyTuple_GetInteger
  00036	83 c4 0c	 add	 esp, 12			; 0000000cH
  00039	0f b6 c0	 movzx	 eax, al
  0003c	85 c0		 test	 eax, eax
  0003e	75 0a		 jne	 SHORT $LN3@wndMgrHasS

; 1118 : 		return Py_BuildException();

  00040	6a 00		 push	 0
  00042	e8 00 00 00 00	 call	 ?Py_BuildException@@YAPAU_object@@PBDZZ ; Py_BuildException
  00047	59		 pop	 ecx
  00048	eb 3b		 jmp	 SHORT $LN1@wndMgrHasS
$LN3@wndMgrHasS:

; 1119 : 
; 1120 : 	if (!pWin->IsType(UI::CSlotWindow::Type()))

  0004a	e8 00 00 00 00	 call	 ?Type@CSlotWindow@UI@@SAKXZ ; UI::CSlotWindow::Type
  0004f	50		 push	 eax
  00050	8b 4d fc	 mov	 ecx, DWORD PTR _pWin$[ebp]
  00053	e8 00 00 00 00	 call	 ?IsType@CWindow@UI@@QAEHK@Z ; UI::CWindow::IsType
  00058	85 c0		 test	 eax, eax
  0005a	75 0a		 jne	 SHORT $LN4@wndMgrHasS

; 1121 : 		return Py_BuildException();

  0005c	6a 00		 push	 0
  0005e	e8 00 00 00 00	 call	 ?Py_BuildException@@YAPAU_object@@PBDZZ ; Py_BuildException
  00063	59		 pop	 ecx
  00064	eb 1f		 jmp	 SHORT $LN1@wndMgrHasS
$LN4@wndMgrHasS:

; 1122 : 
; 1123 : 	UI::CSlotWindow * pSlotWin = (UI::CSlotWindow *)pWin;

  00066	8b 45 fc	 mov	 eax, DWORD PTR _pWin$[ebp]
  00069	89 45 f4	 mov	 DWORD PTR _pSlotWin$[ebp], eax

; 1124 : 
; 1125 : 	return Py_BuildValue("i", pSlotWin->HasSlot(iSlotIndex));

  0006c	ff 75 f8	 push	 DWORD PTR _iSlotIndex$[ebp]
  0006f	8b 4d f4	 mov	 ecx, DWORD PTR _pSlotWin$[ebp]
  00072	e8 00 00 00 00	 call	 ?HasSlot@CSlotWindow@UI@@QAEHK@Z ; UI::CSlotWindow::HasSlot
  00077	50		 push	 eax
  00078	68 00 00 00 00	 push	 OFFSET ??_C@_01KBJDNOO@i@
  0007d	ff 15 00 00 00
	00		 call	 DWORD PTR __imp__Py_BuildValue
  00083	59		 pop	 ecx
  00084	59		 pop	 ecx
$LN1@wndMgrHasS:

; 1126 : }

  00085	c9		 leave
  00086	c3		 ret	 0
?wndMgrHasSlot@@YAPAU_object@@PAU1@0@Z ENDP		; wndMgrHasSlot
_TEXT	ENDS
; Function compile flags: /Odspy
; File D:\Metin2 Server Files\mainline\SRC_2014\Metin2Client\eterPythonLib\PythonWindowManagerModule.cpp
;	COMDAT ?wndMgrClearAllSlot@@YAPAU_object@@PAU1@0@Z
_TEXT	SEGMENT
_pSlotWin$ = -8						; size = 4
_pWin$ = -4						; size = 4
_poSelf$ = 8						; size = 4
_poArgs$ = 12						; size = 4
?wndMgrClearAllSlot@@YAPAU_object@@PAU1@0@Z PROC	; wndMgrClearAllSlot, COMDAT

; 1096 : {

  00000	55		 push	 ebp
  00001	8b ec		 mov	 ebp, esp
  00003	51		 push	 ecx
  00004	51		 push	 ecx

; 1097 : 	UI::CWindow * pWin;
; 1098 : 	if (!PyTuple_GetWindow(poArgs, 0, &pWin))

  00005	8d 45 fc	 lea	 eax, DWORD PTR _pWin$[ebp]
  00008	50		 push	 eax
  00009	6a 00		 push	 0
  0000b	ff 75 0c	 push	 DWORD PTR _poArgs$[ebp]
  0000e	e8 00 00 00 00	 call	 ?PyTuple_GetWindow@@YA_NPAU_object@@HPAPAVCWindow@UI@@@Z ; PyTuple_GetWindow
  00013	83 c4 0c	 add	 esp, 12			; 0000000cH
  00016	0f b6 c0	 movzx	 eax, al
  00019	85 c0		 test	 eax, eax
  0001b	75 0a		 jne	 SHORT $LN2@wndMgrClea

; 1099 : 		return Py_BuildException();

  0001d	6a 00		 push	 0
  0001f	e8 00 00 00 00	 call	 ?Py_BuildException@@YAPAU_object@@PBDZZ ; Py_BuildException
  00024	59		 pop	 ecx
  00025	eb 2f		 jmp	 SHORT $LN1@wndMgrClea
$LN2@wndMgrClea:

; 1100 : 
; 1101 : 	if (!pWin->IsType(UI::CSlotWindow::Type()))

  00027	e8 00 00 00 00	 call	 ?Type@CSlotWindow@UI@@SAKXZ ; UI::CSlotWindow::Type
  0002c	50		 push	 eax
  0002d	8b 4d fc	 mov	 ecx, DWORD PTR _pWin$[ebp]
  00030	e8 00 00 00 00	 call	 ?IsType@CWindow@UI@@QAEHK@Z ; UI::CWindow::IsType
  00035	85 c0		 test	 eax, eax
  00037	75 0a		 jne	 SHORT $LN3@wndMgrClea

; 1102 : 		return Py_BuildException();

  00039	6a 00		 push	 0
  0003b	e8 00 00 00 00	 call	 ?Py_BuildException@@YAPAU_object@@PBDZZ ; Py_BuildException
  00040	59		 pop	 ecx
  00041	eb 13		 jmp	 SHORT $LN1@wndMgrClea
$LN3@wndMgrClea:

; 1103 : 
; 1104 : 	UI::CSlotWindow * pSlotWin = (UI::CSlotWindow *)pWin;

  00043	8b 45 fc	 mov	 eax, DWORD PTR _pWin$[ebp]
  00046	89 45 f8	 mov	 DWORD PTR _pSlotWin$[ebp], eax

; 1105 : 	pSlotWin->ClearAllSlot();

  00049	8b 4d f8	 mov	 ecx, DWORD PTR _pSlotWin$[ebp]
  0004c	e8 00 00 00 00	 call	 ?ClearAllSlot@CSlotWindow@UI@@QAEXXZ ; UI::CSlotWindow::ClearAllSlot

; 1106 : 
; 1107 : 	return Py_BuildNone();

  00051	e8 00 00 00 00	 call	 ?Py_BuildNone@@YAPAU_object@@XZ ; Py_BuildNone
$LN1@wndMgrClea:

; 1108 : }

  00056	c9		 leave
  00057	c3		 ret	 0
?wndMgrClearAllSlot@@YAPAU_object@@PAU1@0@Z ENDP	; wndMgrClearAllSlot
_TEXT	ENDS
; Function compile flags: /Odspy
; File D:\Metin2 Server Files\mainline\SRC_2014\Metin2Client\eterPythonLib\PythonWindowManagerModule.cpp
;	COMDAT ?wndMgrClearSlot@@YAPAU_object@@PAU1@0@Z
_TEXT	SEGMENT
_pSlotWin$ = -12					; size = 4
_iSlotIndex$ = -8					; size = 4
_pWin$ = -4						; size = 4
_poSelf$ = 8						; size = 4
_poArgs$ = 12						; size = 4
?wndMgrClearSlot@@YAPAU_object@@PAU1@0@Z PROC		; wndMgrClearSlot, COMDAT

; 1077 : {

  00000	55		 push	 ebp
  00001	8b ec		 mov	 ebp, esp
  00003	83 ec 0c	 sub	 esp, 12			; 0000000cH

; 1078 : 	UI::CWindow * pWin;
; 1079 : 	if (!PyTuple_GetWindow(poArgs, 0, &pWin))

  00006	8d 45 fc	 lea	 eax, DWORD PTR _pWin$[ebp]
  00009	50		 push	 eax
  0000a	6a 00		 push	 0
  0000c	ff 75 0c	 push	 DWORD PTR _poArgs$[ebp]
  0000f	e8 00 00 00 00	 call	 ?PyTuple_GetWindow@@YA_NPAU_object@@HPAPAVCWindow@UI@@@Z ; PyTuple_GetWindow
  00014	83 c4 0c	 add	 esp, 12			; 0000000cH
  00017	0f b6 c0	 movzx	 eax, al
  0001a	85 c0		 test	 eax, eax
  0001c	75 0a		 jne	 SHORT $LN2@wndMgrClea

; 1080 : 		return Py_BuildException();

  0001e	6a 00		 push	 0
  00020	e8 00 00 00 00	 call	 ?Py_BuildException@@YAPAU_object@@PBDZZ ; Py_BuildException
  00025	59		 pop	 ecx
  00026	eb 54		 jmp	 SHORT $LN1@wndMgrClea
$LN2@wndMgrClea:

; 1081 : 
; 1082 : 	int iSlotIndex;
; 1083 : 	if (!PyTuple_GetInteger(poArgs, 1, &iSlotIndex))

  00028	8d 45 f8	 lea	 eax, DWORD PTR _iSlotIndex$[ebp]
  0002b	50		 push	 eax
  0002c	6a 01		 push	 1
  0002e	ff 75 0c	 push	 DWORD PTR _poArgs$[ebp]
  00031	e8 00 00 00 00	 call	 ?PyTuple_GetInteger@@YA_NPAU_object@@HPAH@Z ; PyTuple_GetInteger
  00036	83 c4 0c	 add	 esp, 12			; 0000000cH
  00039	0f b6 c0	 movzx	 eax, al
  0003c	85 c0		 test	 eax, eax
  0003e	75 0a		 jne	 SHORT $LN3@wndMgrClea

; 1084 : 		return Py_BuildException();

  00040	6a 00		 push	 0
  00042	e8 00 00 00 00	 call	 ?Py_BuildException@@YAPAU_object@@PBDZZ ; Py_BuildException
  00047	59		 pop	 ecx
  00048	eb 32		 jmp	 SHORT $LN1@wndMgrClea
$LN3@wndMgrClea:

; 1085 : 
; 1086 : 	if (!pWin->IsType(UI::CSlotWindow::Type()))

  0004a	e8 00 00 00 00	 call	 ?Type@CSlotWindow@UI@@SAKXZ ; UI::CSlotWindow::Type
  0004f	50		 push	 eax
  00050	8b 4d fc	 mov	 ecx, DWORD PTR _pWin$[ebp]
  00053	e8 00 00 00 00	 call	 ?IsType@CWindow@UI@@QAEHK@Z ; UI::CWindow::IsType
  00058	85 c0		 test	 eax, eax
  0005a	75 0a		 jne	 SHORT $LN4@wndMgrClea

; 1087 : 		return Py_BuildException();

  0005c	6a 00		 push	 0
  0005e	e8 00 00 00 00	 call	 ?Py_BuildException@@YAPAU_object@@PBDZZ ; Py_BuildException
  00063	59		 pop	 ecx
  00064	eb 16		 jmp	 SHORT $LN1@wndMgrClea
$LN4@wndMgrClea:

; 1088 : 
; 1089 : 	UI::CSlotWindow * pSlotWin = (UI::CSlotWindow *)pWin;

  00066	8b 45 fc	 mov	 eax, DWORD PTR _pWin$[ebp]
  00069	89 45 f4	 mov	 DWORD PTR _pSlotWin$[ebp], eax

; 1090 : 	pSlotWin->ClearSlot(iSlotIndex);

  0006c	ff 75 f8	 push	 DWORD PTR _iSlotIndex$[ebp]
  0006f	8b 4d f4	 mov	 ecx, DWORD PTR _pSlotWin$[ebp]
  00072	e8 00 00 00 00	 call	 ?ClearSlot@CSlotWindow@UI@@QAEXK@Z ; UI::CSlotWindow::ClearSlot

; 1091 : 
; 1092 : 	return Py_BuildNone();

  00077	e8 00 00 00 00	 call	 ?Py_BuildNone@@YAPAU_object@@XZ ; Py_BuildNone
$LN1@wndMgrClea:

; 1093 : }

  0007c	c9		 leave
  0007d	c3		 ret	 0
?wndMgrClearSlot@@YAPAU_object@@PAU1@0@Z ENDP		; wndMgrClearSlot
_TEXT	ENDS
; Function compile flags: /Odspy
; File D:\Metin2 Server Files\mainline\SRC_2014\Metin2Client\eterPythonLib\PythonWindowManagerModule.cpp
;	COMDAT ?wndMgrSetUsableItem@@YAPAU_object@@PAU1@0@Z
_TEXT	SEGMENT
_pSlotWin$ = -12					; size = 4
_iFlag$ = -8						; size = 4
_pWin$ = -4						; size = 4
_poSelf$ = 8						; size = 4
_poArgs$ = 12						; size = 4
?wndMgrSetUsableItem@@YAPAU_object@@PAU1@0@Z PROC	; wndMgrSetUsableItem, COMDAT

; 1059 : {

  00000	55		 push	 ebp
  00001	8b ec		 mov	 ebp, esp
  00003	83 ec 0c	 sub	 esp, 12			; 0000000cH

; 1060 : 	UI::CWindow * pWin;
; 1061 : 	if (!PyTuple_GetWindow(poArgs, 0, &pWin))

  00006	8d 45 fc	 lea	 eax, DWORD PTR _pWin$[ebp]
  00009	50		 push	 eax
  0000a	6a 00		 push	 0
  0000c	ff 75 0c	 push	 DWORD PTR _poArgs$[ebp]
  0000f	e8 00 00 00 00	 call	 ?PyTuple_GetWindow@@YA_NPAU_object@@HPAPAVCWindow@UI@@@Z ; PyTuple_GetWindow
  00014	83 c4 0c	 add	 esp, 12			; 0000000cH
  00017	0f b6 c0	 movzx	 eax, al
  0001a	85 c0		 test	 eax, eax
  0001c	75 0a		 jne	 SHORT $LN2@wndMgrSetU

; 1062 : 		return Py_BuildException();

  0001e	6a 00		 push	 0
  00020	e8 00 00 00 00	 call	 ?Py_BuildException@@YAPAU_object@@PBDZZ ; Py_BuildException
  00025	59		 pop	 ecx
  00026	eb 54		 jmp	 SHORT $LN1@wndMgrSetU
$LN2@wndMgrSetU:

; 1063 : 	int iFlag;
; 1064 : 	if (!PyTuple_GetInteger(poArgs, 1, &iFlag))

  00028	8d 45 f8	 lea	 eax, DWORD PTR _iFlag$[ebp]
  0002b	50		 push	 eax
  0002c	6a 01		 push	 1
  0002e	ff 75 0c	 push	 DWORD PTR _poArgs$[ebp]
  00031	e8 00 00 00 00	 call	 ?PyTuple_GetInteger@@YA_NPAU_object@@HPAH@Z ; PyTuple_GetInteger
  00036	83 c4 0c	 add	 esp, 12			; 0000000cH
  00039	0f b6 c0	 movzx	 eax, al
  0003c	85 c0		 test	 eax, eax
  0003e	75 0a		 jne	 SHORT $LN3@wndMgrSetU

; 1065 : 		return Py_BuildException();

  00040	6a 00		 push	 0
  00042	e8 00 00 00 00	 call	 ?Py_BuildException@@YAPAU_object@@PBDZZ ; Py_BuildException
  00047	59		 pop	 ecx
  00048	eb 32		 jmp	 SHORT $LN1@wndMgrSetU
$LN3@wndMgrSetU:

; 1066 : 
; 1067 : 	if (!pWin->IsType(UI::CSlotWindow::Type()))

  0004a	e8 00 00 00 00	 call	 ?Type@CSlotWindow@UI@@SAKXZ ; UI::CSlotWindow::Type
  0004f	50		 push	 eax
  00050	8b 4d fc	 mov	 ecx, DWORD PTR _pWin$[ebp]
  00053	e8 00 00 00 00	 call	 ?IsType@CWindow@UI@@QAEHK@Z ; UI::CWindow::IsType
  00058	85 c0		 test	 eax, eax
  0005a	75 0a		 jne	 SHORT $LN4@wndMgrSetU

; 1068 : 		return Py_BuildException();

  0005c	6a 00		 push	 0
  0005e	e8 00 00 00 00	 call	 ?Py_BuildException@@YAPAU_object@@PBDZZ ; Py_BuildException
  00063	59		 pop	 ecx
  00064	eb 16		 jmp	 SHORT $LN1@wndMgrSetU
$LN4@wndMgrSetU:

; 1069 : 
; 1070 : 	UI::CSlotWindow * pSlotWin = (UI::CSlotWindow *)pWin;

  00066	8b 45 fc	 mov	 eax, DWORD PTR _pWin$[ebp]
  00069	89 45 f4	 mov	 DWORD PTR _pSlotWin$[ebp], eax

; 1071 : 	pSlotWin->SetUsableItem(iFlag);

  0006c	ff 75 f8	 push	 DWORD PTR _iFlag$[ebp]
  0006f	8b 4d f4	 mov	 ecx, DWORD PTR _pSlotWin$[ebp]
  00072	e8 00 00 00 00	 call	 ?SetUsableItem@CSlotWindow@UI@@QAEXH@Z ; UI::CSlotWindow::SetUsableItem

; 1072 : 
; 1073 : 	return Py_BuildNone();

  00077	e8 00 00 00 00	 call	 ?Py_BuildNone@@YAPAU_object@@XZ ; Py_BuildNone
$LN1@wndMgrSetU:

; 1074 : }

  0007c	c9		 leave
  0007d	c3		 ret	 0
?wndMgrSetUsableItem@@YAPAU_object@@PAU1@0@Z ENDP	; wndMgrSetUsableItem
_TEXT	ENDS
; Function compile flags: /Odspy
; File D:\Metin2 Server Files\mainline\SRC_2014\Metin2Client\eterPythonLib\PythonWindowManagerModule.cpp
;	COMDAT ?wndMgrSetUseMode@@YAPAU_object@@PAU1@0@Z
_TEXT	SEGMENT
_pSlotWin$ = -12					; size = 4
_iFlag$ = -8						; size = 4
_pWin$ = -4						; size = 4
_poSelf$ = 8						; size = 4
_poArgs$ = 12						; size = 4
?wndMgrSetUseMode@@YAPAU_object@@PAU1@0@Z PROC		; wndMgrSetUseMode, COMDAT

; 1041 : {

  00000	55		 push	 ebp
  00001	8b ec		 mov	 ebp, esp
  00003	83 ec 0c	 sub	 esp, 12			; 0000000cH

; 1042 : 	UI::CWindow * pWin;
; 1043 : 	if (!PyTuple_GetWindow(poArgs, 0, &pWin))

  00006	8d 45 fc	 lea	 eax, DWORD PTR _pWin$[ebp]
  00009	50		 push	 eax
  0000a	6a 00		 push	 0
  0000c	ff 75 0c	 push	 DWORD PTR _poArgs$[ebp]
  0000f	e8 00 00 00 00	 call	 ?PyTuple_GetWindow@@YA_NPAU_object@@HPAPAVCWindow@UI@@@Z ; PyTuple_GetWindow
  00014	83 c4 0c	 add	 esp, 12			; 0000000cH
  00017	0f b6 c0	 movzx	 eax, al
  0001a	85 c0		 test	 eax, eax
  0001c	75 0a		 jne	 SHORT $LN2@wndMgrSetU

; 1044 : 		return Py_BuildException();

  0001e	6a 00		 push	 0
  00020	e8 00 00 00 00	 call	 ?Py_BuildException@@YAPAU_object@@PBDZZ ; Py_BuildException
  00025	59		 pop	 ecx
  00026	eb 54		 jmp	 SHORT $LN1@wndMgrSetU
$LN2@wndMgrSetU:

; 1045 : 	int iFlag;
; 1046 : 	if (!PyTuple_GetInteger(poArgs, 1, &iFlag))

  00028	8d 45 f8	 lea	 eax, DWORD PTR _iFlag$[ebp]
  0002b	50		 push	 eax
  0002c	6a 01		 push	 1
  0002e	ff 75 0c	 push	 DWORD PTR _poArgs$[ebp]
  00031	e8 00 00 00 00	 call	 ?PyTuple_GetInteger@@YA_NPAU_object@@HPAH@Z ; PyTuple_GetInteger
  00036	83 c4 0c	 add	 esp, 12			; 0000000cH
  00039	0f b6 c0	 movzx	 eax, al
  0003c	85 c0		 test	 eax, eax
  0003e	75 0a		 jne	 SHORT $LN3@wndMgrSetU

; 1047 : 		return Py_BuildException();

  00040	6a 00		 push	 0
  00042	e8 00 00 00 00	 call	 ?Py_BuildException@@YAPAU_object@@PBDZZ ; Py_BuildException
  00047	59		 pop	 ecx
  00048	eb 32		 jmp	 SHORT $LN1@wndMgrSetU
$LN3@wndMgrSetU:

; 1048 : 
; 1049 : 	if (!pWin->IsType(UI::CSlotWindow::Type()))

  0004a	e8 00 00 00 00	 call	 ?Type@CSlotWindow@UI@@SAKXZ ; UI::CSlotWindow::Type
  0004f	50		 push	 eax
  00050	8b 4d fc	 mov	 ecx, DWORD PTR _pWin$[ebp]
  00053	e8 00 00 00 00	 call	 ?IsType@CWindow@UI@@QAEHK@Z ; UI::CWindow::IsType
  00058	85 c0		 test	 eax, eax
  0005a	75 0a		 jne	 SHORT $LN4@wndMgrSetU

; 1050 : 		return Py_BuildException();

  0005c	6a 00		 push	 0
  0005e	e8 00 00 00 00	 call	 ?Py_BuildException@@YAPAU_object@@PBDZZ ; Py_BuildException
  00063	59		 pop	 ecx
  00064	eb 16		 jmp	 SHORT $LN1@wndMgrSetU
$LN4@wndMgrSetU:

; 1051 : 
; 1052 : 	UI::CSlotWindow * pSlotWin = (UI::CSlotWindow *)pWin;

  00066	8b 45 fc	 mov	 eax, DWORD PTR _pWin$[ebp]
  00069	89 45 f4	 mov	 DWORD PTR _pSlotWin$[ebp], eax

; 1053 : 	pSlotWin->SetUseMode(iFlag);

  0006c	ff 75 f8	 push	 DWORD PTR _iFlag$[ebp]
  0006f	8b 4d f4	 mov	 ecx, DWORD PTR _pSlotWin$[ebp]
  00072	e8 00 00 00 00	 call	 ?SetUseMode@CSlotWindow@UI@@QAEXH@Z ; UI::CSlotWindow::SetUseMode

; 1054 : 
; 1055 : 	return Py_BuildNone();

  00077	e8 00 00 00 00	 call	 ?Py_BuildNone@@YAPAU_object@@XZ ; Py_BuildNone
$LN1@wndMgrSetU:

; 1056 : }

  0007c	c9		 leave
  0007d	c3		 ret	 0
?wndMgrSetUseMode@@YAPAU_object@@PAU1@0@Z ENDP		; wndMgrSetUseMode
_TEXT	ENDS
; Function compile flags: /Odspy
; File D:\Metin2 Server Files\mainline\SRC_2014\Metin2Client\eterPythonLib\PythonWindowManagerModule.cpp
;	COMDAT ?wndMgrRefreshSlot@@YAPAU_object@@PAU1@0@Z
_TEXT	SEGMENT
_pSlotWin$ = -8						; size = 4
_pWin$ = -4						; size = 4
_poSelf$ = 8						; size = 4
_poArgs$ = 12						; size = 4
?wndMgrRefreshSlot@@YAPAU_object@@PAU1@0@Z PROC		; wndMgrRefreshSlot, COMDAT

; 1026 : {

  00000	55		 push	 ebp
  00001	8b ec		 mov	 ebp, esp
  00003	51		 push	 ecx
  00004	51		 push	 ecx

; 1027 : 	UI::CWindow * pWin;
; 1028 : 	if (!PyTuple_GetWindow(poArgs, 0, &pWin))

  00005	8d 45 fc	 lea	 eax, DWORD PTR _pWin$[ebp]
  00008	50		 push	 eax
  00009	6a 00		 push	 0
  0000b	ff 75 0c	 push	 DWORD PTR _poArgs$[ebp]
  0000e	e8 00 00 00 00	 call	 ?PyTuple_GetWindow@@YA_NPAU_object@@HPAPAVCWindow@UI@@@Z ; PyTuple_GetWindow
  00013	83 c4 0c	 add	 esp, 12			; 0000000cH
  00016	0f b6 c0	 movzx	 eax, al
  00019	85 c0		 test	 eax, eax
  0001b	75 0a		 jne	 SHORT $LN2@wndMgrRefr

; 1029 : 		return Py_BuildException();

  0001d	6a 00		 push	 0
  0001f	e8 00 00 00 00	 call	 ?Py_BuildException@@YAPAU_object@@PBDZZ ; Py_BuildException
  00024	59		 pop	 ecx
  00025	eb 2f		 jmp	 SHORT $LN1@wndMgrRefr
$LN2@wndMgrRefr:

; 1030 : 
; 1031 : 	if (!pWin->IsType(UI::CSlotWindow::Type()))

  00027	e8 00 00 00 00	 call	 ?Type@CSlotWindow@UI@@SAKXZ ; UI::CSlotWindow::Type
  0002c	50		 push	 eax
  0002d	8b 4d fc	 mov	 ecx, DWORD PTR _pWin$[ebp]
  00030	e8 00 00 00 00	 call	 ?IsType@CWindow@UI@@QAEHK@Z ; UI::CWindow::IsType
  00035	85 c0		 test	 eax, eax
  00037	75 0a		 jne	 SHORT $LN3@wndMgrRefr

; 1032 : 		return Py_BuildException();

  00039	6a 00		 push	 0
  0003b	e8 00 00 00 00	 call	 ?Py_BuildException@@YAPAU_object@@PBDZZ ; Py_BuildException
  00040	59		 pop	 ecx
  00041	eb 13		 jmp	 SHORT $LN1@wndMgrRefr
$LN3@wndMgrRefr:

; 1033 : 
; 1034 : 	UI::CSlotWindow * pSlotWin = (UI::CSlotWindow *)pWin;

  00043	8b 45 fc	 mov	 eax, DWORD PTR _pWin$[ebp]
  00046	89 45 f8	 mov	 DWORD PTR _pSlotWin$[ebp], eax

; 1035 : 	pSlotWin->RefreshSlot();

  00049	8b 4d f8	 mov	 ecx, DWORD PTR _pSlotWin$[ebp]
  0004c	e8 00 00 00 00	 call	 ?RefreshSlot@CSlotWindow@UI@@QAEXXZ ; UI::CSlotWindow::RefreshSlot

; 1036 : 
; 1037 : 	return Py_BuildNone();

  00051	e8 00 00 00 00	 call	 ?Py_BuildNone@@YAPAU_object@@XZ ; Py_BuildNone
$LN1@wndMgrRefr:

; 1038 : }

  00056	c9		 leave
  00057	c3		 ret	 0
?wndMgrRefreshSlot@@YAPAU_object@@PAU1@0@Z ENDP		; wndMgrRefreshSlot
_TEXT	ENDS
; Function compile flags: /Odspy
; File D:\Metin2 Server Files\mainline\SRC_2014\Metin2Client\eterPythonLib\PythonWindowManagerModule.cpp
;	COMDAT ?wndMgrHideRequirementSign@@YAPAU_object@@PAU1@0@Z
_TEXT	SEGMENT
_pSlotWin$ = -12					; size = 4
_iSlotNumber$ = -8					; size = 4
_pWindow$ = -4						; size = 4
_poSelf$ = 8						; size = 4
_poArgs$ = 12						; size = 4
?wndMgrHideRequirementSign@@YAPAU_object@@PAU1@0@Z PROC	; wndMgrHideRequirementSign, COMDAT

; 1010 : {

  00000	55		 push	 ebp
  00001	8b ec		 mov	 ebp, esp
  00003	83 ec 0c	 sub	 esp, 12			; 0000000cH

; 1011 : 	UI::CWindow * pWindow;
; 1012 : 	if (!PyTuple_GetWindow(poArgs, 0, &pWindow))

  00006	8d 45 fc	 lea	 eax, DWORD PTR _pWindow$[ebp]
  00009	50		 push	 eax
  0000a	6a 00		 push	 0
  0000c	ff 75 0c	 push	 DWORD PTR _poArgs$[ebp]
  0000f	e8 00 00 00 00	 call	 ?PyTuple_GetWindow@@YA_NPAU_object@@HPAPAVCWindow@UI@@@Z ; PyTuple_GetWindow
  00014	83 c4 0c	 add	 esp, 12			; 0000000cH
  00017	0f b6 c0	 movzx	 eax, al
  0001a	85 c0		 test	 eax, eax
  0001c	75 0a		 jne	 SHORT $LN2@wndMgrHide

; 1013 : 		return Py_BuildException();

  0001e	6a 00		 push	 0
  00020	e8 00 00 00 00	 call	 ?Py_BuildException@@YAPAU_object@@PBDZZ ; Py_BuildException
  00025	59		 pop	 ecx
  00026	eb 38		 jmp	 SHORT $LN1@wndMgrHide
$LN2@wndMgrHide:

; 1014 : 
; 1015 : 	int iSlotNumber;
; 1016 : 	if (!PyTuple_GetInteger(poArgs, 1, &iSlotNumber))

  00028	8d 45 f8	 lea	 eax, DWORD PTR _iSlotNumber$[ebp]
  0002b	50		 push	 eax
  0002c	6a 01		 push	 1
  0002e	ff 75 0c	 push	 DWORD PTR _poArgs$[ebp]
  00031	e8 00 00 00 00	 call	 ?PyTuple_GetInteger@@YA_NPAU_object@@HPAH@Z ; PyTuple_GetInteger
  00036	83 c4 0c	 add	 esp, 12			; 0000000cH
  00039	0f b6 c0	 movzx	 eax, al
  0003c	85 c0		 test	 eax, eax
  0003e	75 0a		 jne	 SHORT $LN3@wndMgrHide

; 1017 : 		return Py_BuildException();

  00040	6a 00		 push	 0
  00042	e8 00 00 00 00	 call	 ?Py_BuildException@@YAPAU_object@@PBDZZ ; Py_BuildException
  00047	59		 pop	 ecx
  00048	eb 16		 jmp	 SHORT $LN1@wndMgrHide
$LN3@wndMgrHide:

; 1018 : 
; 1019 : 	UI::CSlotWindow * pSlotWin = (UI::CSlotWindow *)pWindow;

  0004a	8b 45 fc	 mov	 eax, DWORD PTR _pWindow$[ebp]
  0004d	89 45 f4	 mov	 DWORD PTR _pSlotWin$[ebp], eax

; 1020 : 	pSlotWin->HideRequirementSign(iSlotNumber);

  00050	ff 75 f8	 push	 DWORD PTR _iSlotNumber$[ebp]
  00053	8b 4d f4	 mov	 ecx, DWORD PTR _pSlotWin$[ebp]
  00056	e8 00 00 00 00	 call	 ?HideRequirementSign@CSlotWindow@UI@@QAEXK@Z ; UI::CSlotWindow::HideRequirementSign

; 1021 : 
; 1022 : 	return Py_BuildNone();

  0005b	e8 00 00 00 00	 call	 ?Py_BuildNone@@YAPAU_object@@XZ ; Py_BuildNone
$LN1@wndMgrHide:

; 1023 : }

  00060	c9		 leave
  00061	c3		 ret	 0
?wndMgrHideRequirementSign@@YAPAU_object@@PAU1@0@Z ENDP	; wndMgrHideRequirementSign
_TEXT	ENDS
; Function compile flags: /Odspy
; File D:\Metin2 Server Files\mainline\SRC_2014\Metin2Client\eterPythonLib\PythonWindowManagerModule.cpp
;	COMDAT ?wndMgrShowRequirementSign@@YAPAU_object@@PAU1@0@Z
_TEXT	SEGMENT
_pSlotWin$ = -12					; size = 4
_iSlotNumber$ = -8					; size = 4
_pWindow$ = -4						; size = 4
_poSelf$ = 8						; size = 4
_poArgs$ = 12						; size = 4
?wndMgrShowRequirementSign@@YAPAU_object@@PAU1@0@Z PROC	; wndMgrShowRequirementSign, COMDAT

; 994  : {

  00000	55		 push	 ebp
  00001	8b ec		 mov	 ebp, esp
  00003	83 ec 0c	 sub	 esp, 12			; 0000000cH

; 995  : 	UI::CWindow * pWindow;
; 996  : 	if (!PyTuple_GetWindow(poArgs, 0, &pWindow))

  00006	8d 45 fc	 lea	 eax, DWORD PTR _pWindow$[ebp]
  00009	50		 push	 eax
  0000a	6a 00		 push	 0
  0000c	ff 75 0c	 push	 DWORD PTR _poArgs$[ebp]
  0000f	e8 00 00 00 00	 call	 ?PyTuple_GetWindow@@YA_NPAU_object@@HPAPAVCWindow@UI@@@Z ; PyTuple_GetWindow
  00014	83 c4 0c	 add	 esp, 12			; 0000000cH
  00017	0f b6 c0	 movzx	 eax, al
  0001a	85 c0		 test	 eax, eax
  0001c	75 0a		 jne	 SHORT $LN2@wndMgrShow

; 997  : 		return Py_BuildException();

  0001e	6a 00		 push	 0
  00020	e8 00 00 00 00	 call	 ?Py_BuildException@@YAPAU_object@@PBDZZ ; Py_BuildException
  00025	59		 pop	 ecx
  00026	eb 38		 jmp	 SHORT $LN1@wndMgrShow
$LN2@wndMgrShow:

; 998  : 
; 999  : 	int iSlotNumber;
; 1000 : 	if (!PyTuple_GetInteger(poArgs, 1, &iSlotNumber))

  00028	8d 45 f8	 lea	 eax, DWORD PTR _iSlotNumber$[ebp]
  0002b	50		 push	 eax
  0002c	6a 01		 push	 1
  0002e	ff 75 0c	 push	 DWORD PTR _poArgs$[ebp]
  00031	e8 00 00 00 00	 call	 ?PyTuple_GetInteger@@YA_NPAU_object@@HPAH@Z ; PyTuple_GetInteger
  00036	83 c4 0c	 add	 esp, 12			; 0000000cH
  00039	0f b6 c0	 movzx	 eax, al
  0003c	85 c0		 test	 eax, eax
  0003e	75 0a		 jne	 SHORT $LN3@wndMgrShow

; 1001 : 		return Py_BuildException();

  00040	6a 00		 push	 0
  00042	e8 00 00 00 00	 call	 ?Py_BuildException@@YAPAU_object@@PBDZZ ; Py_BuildException
  00047	59		 pop	 ecx
  00048	eb 16		 jmp	 SHORT $LN1@wndMgrShow
$LN3@wndMgrShow:

; 1002 : 
; 1003 : 	UI::CSlotWindow * pSlotWin = (UI::CSlotWindow *)pWindow;

  0004a	8b 45 fc	 mov	 eax, DWORD PTR _pWindow$[ebp]
  0004d	89 45 f4	 mov	 DWORD PTR _pSlotWin$[ebp], eax

; 1004 : 	pSlotWin->ShowRequirementSign(iSlotNumber);

  00050	ff 75 f8	 push	 DWORD PTR _iSlotNumber$[ebp]
  00053	8b 4d f4	 mov	 ecx, DWORD PTR _pSlotWin$[ebp]
  00056	e8 00 00 00 00	 call	 ?ShowRequirementSign@CSlotWindow@UI@@QAEXK@Z ; UI::CSlotWindow::ShowRequirementSign

; 1005 : 
; 1006 : 	return Py_BuildNone();

  0005b	e8 00 00 00 00	 call	 ?Py_BuildNone@@YAPAU_object@@XZ ; Py_BuildNone
$LN1@wndMgrShow:

; 1007 : }

  00060	c9		 leave
  00061	c3		 ret	 0
?wndMgrShowRequirementSign@@YAPAU_object@@PAU1@0@Z ENDP	; wndMgrShowRequirementSign
_TEXT	ENDS
; Function compile flags: /Odspy
; File D:\Metin2 Server Files\mainline\SRC_2014\Metin2Client\eterPythonLib\PythonWindowManagerModule.cpp
;	COMDAT ?wndMgrHideAllSlotButton@@YAPAU_object@@PAU1@0@Z
_TEXT	SEGMENT
_pSlotWin$ = -8						; size = 4
_pWindow$ = -4						; size = 4
_poSelf$ = 8						; size = 4
_poArgs$ = 12						; size = 4
?wndMgrHideAllSlotButton@@YAPAU_object@@PAU1@0@Z PROC	; wndMgrHideAllSlotButton, COMDAT

; 982  : {

  00000	55		 push	 ebp
  00001	8b ec		 mov	 ebp, esp
  00003	51		 push	 ecx
  00004	51		 push	 ecx

; 983  : 	UI::CWindow * pWindow;
; 984  : 	if (!PyTuple_GetWindow(poArgs, 0, &pWindow))

  00005	8d 45 fc	 lea	 eax, DWORD PTR _pWindow$[ebp]
  00008	50		 push	 eax
  00009	6a 00		 push	 0
  0000b	ff 75 0c	 push	 DWORD PTR _poArgs$[ebp]
  0000e	e8 00 00 00 00	 call	 ?PyTuple_GetWindow@@YA_NPAU_object@@HPAPAVCWindow@UI@@@Z ; PyTuple_GetWindow
  00013	83 c4 0c	 add	 esp, 12			; 0000000cH
  00016	0f b6 c0	 movzx	 eax, al
  00019	85 c0		 test	 eax, eax
  0001b	75 0a		 jne	 SHORT $LN2@wndMgrHide

; 985  : 		return Py_BuildException();

  0001d	6a 00		 push	 0
  0001f	e8 00 00 00 00	 call	 ?Py_BuildException@@YAPAU_object@@PBDZZ ; Py_BuildException
  00024	59		 pop	 ecx
  00025	eb 13		 jmp	 SHORT $LN1@wndMgrHide
$LN2@wndMgrHide:

; 986  : 
; 987  : 	UI::CSlotWindow * pSlotWin = (UI::CSlotWindow *)pWindow;

  00027	8b 45 fc	 mov	 eax, DWORD PTR _pWindow$[ebp]
  0002a	89 45 f8	 mov	 DWORD PTR _pSlotWin$[ebp], eax

; 988  : 	pSlotWin->HideAllSlotButton();

  0002d	8b 4d f8	 mov	 ecx, DWORD PTR _pSlotWin$[ebp]
  00030	e8 00 00 00 00	 call	 ?HideAllSlotButton@CSlotWindow@UI@@QAEXXZ ; UI::CSlotWindow::HideAllSlotButton

; 989  : 
; 990  : 	return Py_BuildNone();

  00035	e8 00 00 00 00	 call	 ?Py_BuildNone@@YAPAU_object@@XZ ; Py_BuildNone
$LN1@wndMgrHide:

; 991  : }

  0003a	c9		 leave
  0003b	c3		 ret	 0
?wndMgrHideAllSlotButton@@YAPAU_object@@PAU1@0@Z ENDP	; wndMgrHideAllSlotButton
_TEXT	ENDS
; Function compile flags: /Odspy
; File D:\Metin2 Server Files\mainline\SRC_2014\Metin2Client\eterPythonLib\PythonWindowManagerModule.cpp
;	COMDAT ?wndMgrShowSlotButton@@YAPAU_object@@PAU1@0@Z
_TEXT	SEGMENT
_pSlotWin$ = -12					; size = 4
_iSlotNumber$ = -8					; size = 4
_pWindow$ = -4						; size = 4
_poSelf$ = 8						; size = 4
_poArgs$ = 12						; size = 4
?wndMgrShowSlotButton@@YAPAU_object@@PAU1@0@Z PROC	; wndMgrShowSlotButton, COMDAT

; 966  : {

  00000	55		 push	 ebp
  00001	8b ec		 mov	 ebp, esp
  00003	83 ec 0c	 sub	 esp, 12			; 0000000cH

; 967  : 	UI::CWindow * pWindow;
; 968  : 	if (!PyTuple_GetWindow(poArgs, 0, &pWindow))

  00006	8d 45 fc	 lea	 eax, DWORD PTR _pWindow$[ebp]
  00009	50		 push	 eax
  0000a	6a 00		 push	 0
  0000c	ff 75 0c	 push	 DWORD PTR _poArgs$[ebp]
  0000f	e8 00 00 00 00	 call	 ?PyTuple_GetWindow@@YA_NPAU_object@@HPAPAVCWindow@UI@@@Z ; PyTuple_GetWindow
  00014	83 c4 0c	 add	 esp, 12			; 0000000cH
  00017	0f b6 c0	 movzx	 eax, al
  0001a	85 c0		 test	 eax, eax
  0001c	75 0a		 jne	 SHORT $LN2@wndMgrShow

; 969  : 		return Py_BuildException();

  0001e	6a 00		 push	 0
  00020	e8 00 00 00 00	 call	 ?Py_BuildException@@YAPAU_object@@PBDZZ ; Py_BuildException
  00025	59		 pop	 ecx
  00026	eb 38		 jmp	 SHORT $LN1@wndMgrShow
$LN2@wndMgrShow:

; 970  : 
; 971  : 	int iSlotNumber;
; 972  : 	if (!PyTuple_GetInteger(poArgs, 1, &iSlotNumber))

  00028	8d 45 f8	 lea	 eax, DWORD PTR _iSlotNumber$[ebp]
  0002b	50		 push	 eax
  0002c	6a 01		 push	 1
  0002e	ff 75 0c	 push	 DWORD PTR _poArgs$[ebp]
  00031	e8 00 00 00 00	 call	 ?PyTuple_GetInteger@@YA_NPAU_object@@HPAH@Z ; PyTuple_GetInteger
  00036	83 c4 0c	 add	 esp, 12			; 0000000cH
  00039	0f b6 c0	 movzx	 eax, al
  0003c	85 c0		 test	 eax, eax
  0003e	75 0a		 jne	 SHORT $LN3@wndMgrShow

; 973  : 		return Py_BuildException();

  00040	6a 00		 push	 0
  00042	e8 00 00 00 00	 call	 ?Py_BuildException@@YAPAU_object@@PBDZZ ; Py_BuildException
  00047	59		 pop	 ecx
  00048	eb 16		 jmp	 SHORT $LN1@wndMgrShow
$LN3@wndMgrShow:

; 974  : 
; 975  : 	UI::CSlotWindow * pSlotWin = (UI::CSlotWindow *)pWindow;

  0004a	8b 45 fc	 mov	 eax, DWORD PTR _pWindow$[ebp]
  0004d	89 45 f4	 mov	 DWORD PTR _pSlotWin$[ebp], eax

; 976  : 	pSlotWin->ShowSlotButton(iSlotNumber);

  00050	ff 75 f8	 push	 DWORD PTR _iSlotNumber$[ebp]
  00053	8b 4d f4	 mov	 ecx, DWORD PTR _pSlotWin$[ebp]
  00056	e8 00 00 00 00	 call	 ?ShowSlotButton@CSlotWindow@UI@@QAEXK@Z ; UI::CSlotWindow::ShowSlotButton

; 977  : 
; 978  : 	return Py_BuildNone();

  0005b	e8 00 00 00 00	 call	 ?Py_BuildNone@@YAPAU_object@@XZ ; Py_BuildNone
$LN1@wndMgrShow:

; 979  : }

  00060	c9		 leave
  00061	c3		 ret	 0
?wndMgrShowSlotButton@@YAPAU_object@@PAU1@0@Z ENDP	; wndMgrShowSlotButton
_TEXT	ENDS
; Function compile flags: /Odspy
; File D:\Metin2 Server Files\mainline\SRC_2014\Metin2Client\eterPythonLib\PythonWindowManagerModule.cpp
;	COMDAT ?wndMgrAppendRequirementSignImage@@YAPAU_object@@PAU1@0@Z
_TEXT	SEGMENT
_pSlotWin$ = -12					; size = 4
_szImageName$ = -8					; size = 4
_pWindow$ = -4						; size = 4
_poSelf$ = 8						; size = 4
_poArgs$ = 12						; size = 4
?wndMgrAppendRequirementSignImage@@YAPAU_object@@PAU1@0@Z PROC ; wndMgrAppendRequirementSignImage, COMDAT

; 950  : {

  00000	55		 push	 ebp
  00001	8b ec		 mov	 ebp, esp
  00003	83 ec 0c	 sub	 esp, 12			; 0000000cH

; 951  : 	UI::CWindow * pWindow;
; 952  : 	if (!PyTuple_GetWindow(poArgs, 0, &pWindow))

  00006	8d 45 fc	 lea	 eax, DWORD PTR _pWindow$[ebp]
  00009	50		 push	 eax
  0000a	6a 00		 push	 0
  0000c	ff 75 0c	 push	 DWORD PTR _poArgs$[ebp]
  0000f	e8 00 00 00 00	 call	 ?PyTuple_GetWindow@@YA_NPAU_object@@HPAPAVCWindow@UI@@@Z ; PyTuple_GetWindow
  00014	83 c4 0c	 add	 esp, 12			; 0000000cH
  00017	0f b6 c0	 movzx	 eax, al
  0001a	85 c0		 test	 eax, eax
  0001c	75 0a		 jne	 SHORT $LN2@wndMgrAppe

; 953  : 		return Py_BuildException();

  0001e	6a 00		 push	 0
  00020	e8 00 00 00 00	 call	 ?Py_BuildException@@YAPAU_object@@PBDZZ ; Py_BuildException
  00025	59		 pop	 ecx
  00026	eb 38		 jmp	 SHORT $LN1@wndMgrAppe
$LN2@wndMgrAppe:

; 954  : 
; 955  : 	char * szImageName;
; 956  : 	if (!PyTuple_GetString(poArgs, 1, &szImageName))

  00028	8d 45 f8	 lea	 eax, DWORD PTR _szImageName$[ebp]
  0002b	50		 push	 eax
  0002c	6a 01		 push	 1
  0002e	ff 75 0c	 push	 DWORD PTR _poArgs$[ebp]
  00031	e8 00 00 00 00	 call	 ?PyTuple_GetString@@YA_NPAU_object@@HPAPAD@Z ; PyTuple_GetString
  00036	83 c4 0c	 add	 esp, 12			; 0000000cH
  00039	0f b6 c0	 movzx	 eax, al
  0003c	85 c0		 test	 eax, eax
  0003e	75 0a		 jne	 SHORT $LN3@wndMgrAppe

; 957  : 		return Py_BuildException();

  00040	6a 00		 push	 0
  00042	e8 00 00 00 00	 call	 ?Py_BuildException@@YAPAU_object@@PBDZZ ; Py_BuildException
  00047	59		 pop	 ecx
  00048	eb 16		 jmp	 SHORT $LN1@wndMgrAppe
$LN3@wndMgrAppe:

; 958  : 
; 959  : 	UI::CSlotWindow * pSlotWin = (UI::CSlotWindow *)pWindow;

  0004a	8b 45 fc	 mov	 eax, DWORD PTR _pWindow$[ebp]
  0004d	89 45 f4	 mov	 DWORD PTR _pSlotWin$[ebp], eax

; 960  : 	pSlotWin->AppendRequirementSignImage(szImageName);

  00050	ff 75 f8	 push	 DWORD PTR _szImageName$[ebp]
  00053	8b 4d f4	 mov	 ecx, DWORD PTR _pSlotWin$[ebp]
  00056	e8 00 00 00 00	 call	 ?AppendRequirementSignImage@CSlotWindow@UI@@QAEXPBD@Z ; UI::CSlotWindow::AppendRequirementSignImage

; 961  : 
; 962  : 	return Py_BuildNone();

  0005b	e8 00 00 00 00	 call	 ?Py_BuildNone@@YAPAU_object@@XZ ; Py_BuildNone
$LN1@wndMgrAppe:

; 963  : }

  00060	c9		 leave
  00061	c3		 ret	 0
?wndMgrAppendRequirementSignImage@@YAPAU_object@@PAU1@0@Z ENDP ; wndMgrAppendRequirementSignImage
_TEXT	ENDS
; Function compile flags: /Odspy
; File D:\Metin2 Server Files\mainline\SRC_2014\Metin2Client\eterPythonLib\PythonWindowManagerModule.cpp
;	COMDAT ?wndMgrAppendSlotButton@@YAPAU_object@@PAU1@0@Z
_TEXT	SEGMENT
_pSlotWin$ = -20					; size = 4
_szUpImageName$ = -16					; size = 4
_szOverImageName$ = -12					; size = 4
_szDownImageName$ = -8					; size = 4
_pWindow$ = -4						; size = 4
_poSelf$ = 8						; size = 4
_poArgs$ = 12						; size = 4
?wndMgrAppendSlotButton@@YAPAU_object@@PAU1@0@Z PROC	; wndMgrAppendSlotButton, COMDAT

; 928  : {

  00000	55		 push	 ebp
  00001	8b ec		 mov	 ebp, esp
  00003	83 ec 14	 sub	 esp, 20			; 00000014H

; 929  : 	UI::CWindow * pWindow;
; 930  : 	if (!PyTuple_GetWindow(poArgs, 0, &pWindow))

  00006	8d 45 fc	 lea	 eax, DWORD PTR _pWindow$[ebp]
  00009	50		 push	 eax
  0000a	6a 00		 push	 0
  0000c	ff 75 0c	 push	 DWORD PTR _poArgs$[ebp]
  0000f	e8 00 00 00 00	 call	 ?PyTuple_GetWindow@@YA_NPAU_object@@HPAPAVCWindow@UI@@@Z ; PyTuple_GetWindow
  00014	83 c4 0c	 add	 esp, 12			; 0000000cH
  00017	0f b6 c0	 movzx	 eax, al
  0001a	85 c0		 test	 eax, eax
  0001c	75 0d		 jne	 SHORT $LN2@wndMgrAppe

; 931  : 		return Py_BuildException();

  0001e	6a 00		 push	 0
  00020	e8 00 00 00 00	 call	 ?Py_BuildException@@YAPAU_object@@PBDZZ ; Py_BuildException
  00025	59		 pop	 ecx
  00026	e9 82 00 00 00	 jmp	 $LN1@wndMgrAppe
$LN2@wndMgrAppe:

; 932  : 
; 933  : 	char * szUpImageName;
; 934  : 	if (!PyTuple_GetString(poArgs, 1, &szUpImageName))

  0002b	8d 45 f0	 lea	 eax, DWORD PTR _szUpImageName$[ebp]
  0002e	50		 push	 eax
  0002f	6a 01		 push	 1
  00031	ff 75 0c	 push	 DWORD PTR _poArgs$[ebp]
  00034	e8 00 00 00 00	 call	 ?PyTuple_GetString@@YA_NPAU_object@@HPAPAD@Z ; PyTuple_GetString
  00039	83 c4 0c	 add	 esp, 12			; 0000000cH
  0003c	0f b6 c0	 movzx	 eax, al
  0003f	85 c0		 test	 eax, eax
  00041	75 0a		 jne	 SHORT $LN3@wndMgrAppe

; 935  : 		return Py_BuildException();

  00043	6a 00		 push	 0
  00045	e8 00 00 00 00	 call	 ?Py_BuildException@@YAPAU_object@@PBDZZ ; Py_BuildException
  0004a	59		 pop	 ecx
  0004b	eb 60		 jmp	 SHORT $LN1@wndMgrAppe
$LN3@wndMgrAppe:

; 936  : 	char * szOverImageName;
; 937  : 	if (!PyTuple_GetString(poArgs, 2, &szOverImageName))

  0004d	8d 45 f4	 lea	 eax, DWORD PTR _szOverImageName$[ebp]
  00050	50		 push	 eax
  00051	6a 02		 push	 2
  00053	ff 75 0c	 push	 DWORD PTR _poArgs$[ebp]
  00056	e8 00 00 00 00	 call	 ?PyTuple_GetString@@YA_NPAU_object@@HPAPAD@Z ; PyTuple_GetString
  0005b	83 c4 0c	 add	 esp, 12			; 0000000cH
  0005e	0f b6 c0	 movzx	 eax, al
  00061	85 c0		 test	 eax, eax
  00063	75 0a		 jne	 SHORT $LN4@wndMgrAppe

; 938  : 		return Py_BuildException();

  00065	6a 00		 push	 0
  00067	e8 00 00 00 00	 call	 ?Py_BuildException@@YAPAU_object@@PBDZZ ; Py_BuildException
  0006c	59		 pop	 ecx
  0006d	eb 3e		 jmp	 SHORT $LN1@wndMgrAppe
$LN4@wndMgrAppe:

; 939  : 	char * szDownImageName;
; 940  : 	if (!PyTuple_GetString(poArgs, 3, &szDownImageName))

  0006f	8d 45 f8	 lea	 eax, DWORD PTR _szDownImageName$[ebp]
  00072	50		 push	 eax
  00073	6a 03		 push	 3
  00075	ff 75 0c	 push	 DWORD PTR _poArgs$[ebp]
  00078	e8 00 00 00 00	 call	 ?PyTuple_GetString@@YA_NPAU_object@@HPAPAD@Z ; PyTuple_GetString
  0007d	83 c4 0c	 add	 esp, 12			; 0000000cH
  00080	0f b6 c0	 movzx	 eax, al
  00083	85 c0		 test	 eax, eax
  00085	75 0a		 jne	 SHORT $LN5@wndMgrAppe

; 941  : 		return Py_BuildException();

  00087	6a 00		 push	 0
  00089	e8 00 00 00 00	 call	 ?Py_BuildException@@YAPAU_object@@PBDZZ ; Py_BuildException
  0008e	59		 pop	 ecx
  0008f	eb 1c		 jmp	 SHORT $LN1@wndMgrAppe
$LN5@wndMgrAppe:

; 942  : 
; 943  : 	UI::CSlotWindow * pSlotWin = (UI::CSlotWindow *)pWindow;

  00091	8b 45 fc	 mov	 eax, DWORD PTR _pWindow$[ebp]
  00094	89 45 ec	 mov	 DWORD PTR _pSlotWin$[ebp], eax

; 944  : 	pSlotWin->AppendSlotButton(szUpImageName, szOverImageName, szDownImageName);

  00097	ff 75 f8	 push	 DWORD PTR _szDownImageName$[ebp]
  0009a	ff 75 f4	 push	 DWORD PTR _szOverImageName$[ebp]
  0009d	ff 75 f0	 push	 DWORD PTR _szUpImageName$[ebp]
  000a0	8b 4d ec	 mov	 ecx, DWORD PTR _pSlotWin$[ebp]
  000a3	e8 00 00 00 00	 call	 ?AppendSlotButton@CSlotWindow@UI@@QAEXPBD00@Z ; UI::CSlotWindow::AppendSlotButton

; 945  : 
; 946  : 	return Py_BuildNone();

  000a8	e8 00 00 00 00	 call	 ?Py_BuildNone@@YAPAU_object@@XZ ; Py_BuildNone
$LN1@wndMgrAppe:

; 947  : }

  000ad	c9		 leave
  000ae	c3		 ret	 0
?wndMgrAppendSlotButton@@YAPAU_object@@PAU1@0@Z ENDP	; wndMgrAppendSlotButton
_TEXT	ENDS
; Function compile flags: /Odspy
; File D:\Metin2 Server Files\mainline\SRC_2014\Metin2Client\eterPythonLib\PythonWindowManagerModule.cpp
;	COMDAT ?wndMgrSetAlwaysRenderCoverButton@@YAPAU_object@@PAU1@0@Z
_TEXT	SEGMENT
_pSlotWin$ = -16					; size = 4
_iSlotIndex$ = -12					; size = 4
_pWindow$ = -8						; size = 4
_bAlwaysRender$ = -4					; size = 1
_poSelf$ = 8						; size = 4
_poArgs$ = 12						; size = 4
?wndMgrSetAlwaysRenderCoverButton@@YAPAU_object@@PAU1@0@Z PROC ; wndMgrSetAlwaysRenderCoverButton, COMDAT

; 907  : {

  00000	55		 push	 ebp
  00001	8b ec		 mov	 ebp, esp
  00003	83 ec 10	 sub	 esp, 16			; 00000010H

; 908  : 	UI::CWindow * pWindow;
; 909  : 	if (!PyTuple_GetWindow(poArgs, 0, &pWindow))

  00006	8d 45 f8	 lea	 eax, DWORD PTR _pWindow$[ebp]
  00009	50		 push	 eax
  0000a	6a 00		 push	 0
  0000c	ff 75 0c	 push	 DWORD PTR _poArgs$[ebp]
  0000f	e8 00 00 00 00	 call	 ?PyTuple_GetWindow@@YA_NPAU_object@@HPAPAVCWindow@UI@@@Z ; PyTuple_GetWindow
  00014	83 c4 0c	 add	 esp, 12			; 0000000cH
  00017	0f b6 c0	 movzx	 eax, al
  0001a	85 c0		 test	 eax, eax
  0001c	75 0a		 jne	 SHORT $LN2@wndMgrSetA

; 910  : 		return Py_BuildException();

  0001e	6a 00		 push	 0
  00020	e8 00 00 00 00	 call	 ?Py_BuildException@@YAPAU_object@@PBDZZ ; Py_BuildException
  00025	59		 pop	 ecx
  00026	eb 61		 jmp	 SHORT $LN1@wndMgrSetA
$LN2@wndMgrSetA:

; 911  : 
; 912  : 	int iSlotIndex;
; 913  : 	bool bAlwaysRender = false;

  00028	c6 45 fc 00	 mov	 BYTE PTR _bAlwaysRender$[ebp], 0

; 914  : 
; 915  : 	if (!PyTuple_GetInteger(poArgs, 1, &iSlotIndex))

  0002c	8d 45 f4	 lea	 eax, DWORD PTR _iSlotIndex$[ebp]
  0002f	50		 push	 eax
  00030	6a 01		 push	 1
  00032	ff 75 0c	 push	 DWORD PTR _poArgs$[ebp]
  00035	e8 00 00 00 00	 call	 ?PyTuple_GetInteger@@YA_NPAU_object@@HPAH@Z ; PyTuple_GetInteger
  0003a	83 c4 0c	 add	 esp, 12			; 0000000cH
  0003d	0f b6 c0	 movzx	 eax, al
  00040	85 c0		 test	 eax, eax
  00042	75 0a		 jne	 SHORT $LN3@wndMgrSetA

; 916  : 		return Py_BuildException();

  00044	6a 00		 push	 0
  00046	e8 00 00 00 00	 call	 ?Py_BuildException@@YAPAU_object@@PBDZZ ; Py_BuildException
  0004b	59		 pop	 ecx
  0004c	eb 3b		 jmp	 SHORT $LN1@wndMgrSetA
$LN3@wndMgrSetA:

; 917  : 
; 918  : 	if (!PyTuple_GetBoolean(poArgs, 2, &bAlwaysRender))

  0004e	8d 45 fc	 lea	 eax, DWORD PTR _bAlwaysRender$[ebp]
  00051	50		 push	 eax
  00052	6a 02		 push	 2
  00054	ff 75 0c	 push	 DWORD PTR _poArgs$[ebp]
  00057	e8 00 00 00 00	 call	 ?PyTuple_GetBoolean@@YA_NPAU_object@@HPA_N@Z ; PyTuple_GetBoolean
  0005c	83 c4 0c	 add	 esp, 12			; 0000000cH
  0005f	0f b6 c0	 movzx	 eax, al
  00062	85 c0		 test	 eax, eax
  00064	75 0a		 jne	 SHORT $LN4@wndMgrSetA

; 919  : 		return Py_BuildException();

  00066	6a 00		 push	 0
  00068	e8 00 00 00 00	 call	 ?Py_BuildException@@YAPAU_object@@PBDZZ ; Py_BuildException
  0006d	59		 pop	 ecx
  0006e	eb 19		 jmp	 SHORT $LN1@wndMgrSetA
$LN4@wndMgrSetA:

; 920  : 
; 921  : 	UI::CSlotWindow * pSlotWin = (UI::CSlotWindow *)pWindow;

  00070	8b 45 f8	 mov	 eax, DWORD PTR _pWindow$[ebp]
  00073	89 45 f0	 mov	 DWORD PTR _pSlotWin$[ebp], eax

; 922  : 	pSlotWin->SetAlwaysRenderCoverButton(iSlotIndex, bAlwaysRender);

  00076	ff 75 fc	 push	 DWORD PTR _bAlwaysRender$[ebp]
  00079	ff 75 f4	 push	 DWORD PTR _iSlotIndex$[ebp]
  0007c	8b 4d f0	 mov	 ecx, DWORD PTR _pSlotWin$[ebp]
  0007f	e8 00 00 00 00	 call	 ?SetAlwaysRenderCoverButton@CSlotWindow@UI@@QAEXK_N@Z ; UI::CSlotWindow::SetAlwaysRenderCoverButton

; 923  : 
; 924  : 	return Py_BuildNone();

  00084	e8 00 00 00 00	 call	 ?Py_BuildNone@@YAPAU_object@@XZ ; Py_BuildNone
$LN1@wndMgrSetA:

; 925  : }

  00089	c9		 leave
  0008a	c3		 ret	 0
?wndMgrSetAlwaysRenderCoverButton@@YAPAU_object@@PAU1@0@Z ENDP ; wndMgrSetAlwaysRenderCoverButton
_TEXT	ENDS
; Function compile flags: /Odspy
; File D:\Metin2 Server Files\mainline\SRC_2014\Metin2Client\eterPythonLib\PythonWindowManagerModule.cpp
;	COMDAT ?wndMgrIsDisableCoverButton@@YAPAU_object@@PAU1@0@Z
_TEXT	SEGMENT
_pSlotWin$ = -12					; size = 4
_iSlotIndex$ = -8					; size = 4
_pWindow$ = -4						; size = 4
_poSelf$ = 8						; size = 4
_poArgs$ = 12						; size = 4
?wndMgrIsDisableCoverButton@@YAPAU_object@@PAU1@0@Z PROC ; wndMgrIsDisableCoverButton, COMDAT

; 893  : {

  00000	55		 push	 ebp
  00001	8b ec		 mov	 ebp, esp
  00003	83 ec 0c	 sub	 esp, 12			; 0000000cH

; 894  : 	UI::CWindow * pWindow;
; 895  : 	if (!PyTuple_GetWindow(poArgs, 0, &pWindow))

  00006	8d 45 fc	 lea	 eax, DWORD PTR _pWindow$[ebp]
  00009	50		 push	 eax
  0000a	6a 00		 push	 0
  0000c	ff 75 0c	 push	 DWORD PTR _poArgs$[ebp]
  0000f	e8 00 00 00 00	 call	 ?PyTuple_GetWindow@@YA_NPAU_object@@HPAPAVCWindow@UI@@@Z ; PyTuple_GetWindow
  00014	83 c4 0c	 add	 esp, 12			; 0000000cH
  00017	0f b6 c0	 movzx	 eax, al
  0001a	85 c0		 test	 eax, eax
  0001c	75 0a		 jne	 SHORT $LN2@wndMgrIsDi

; 896  : 		return Py_BuildException();

  0001e	6a 00		 push	 0
  00020	e8 00 00 00 00	 call	 ?Py_BuildException@@YAPAU_object@@PBDZZ ; Py_BuildException
  00025	59		 pop	 ecx
  00026	eb 41		 jmp	 SHORT $LN1@wndMgrIsDi
$LN2@wndMgrIsDi:

; 897  : 
; 898  : 	int iSlotIndex;
; 899  : 	if (!PyTuple_GetInteger(poArgs, 1, &iSlotIndex))

  00028	8d 45 f8	 lea	 eax, DWORD PTR _iSlotIndex$[ebp]
  0002b	50		 push	 eax
  0002c	6a 01		 push	 1
  0002e	ff 75 0c	 push	 DWORD PTR _poArgs$[ebp]
  00031	e8 00 00 00 00	 call	 ?PyTuple_GetInteger@@YA_NPAU_object@@HPAH@Z ; PyTuple_GetInteger
  00036	83 c4 0c	 add	 esp, 12			; 0000000cH
  00039	0f b6 c0	 movzx	 eax, al
  0003c	85 c0		 test	 eax, eax
  0003e	75 0a		 jne	 SHORT $LN3@wndMgrIsDi

; 900  : 		return Py_BuildException();

  00040	6a 00		 push	 0
  00042	e8 00 00 00 00	 call	 ?Py_BuildException@@YAPAU_object@@PBDZZ ; Py_BuildException
  00047	59		 pop	 ecx
  00048	eb 1f		 jmp	 SHORT $LN1@wndMgrIsDi
$LN3@wndMgrIsDi:

; 901  : 
; 902  : 	UI::CSlotWindow * pSlotWin = (UI::CSlotWindow *)pWindow;

  0004a	8b 45 fc	 mov	 eax, DWORD PTR _pWindow$[ebp]
  0004d	89 45 f4	 mov	 DWORD PTR _pSlotWin$[ebp], eax

; 903  : 	return Py_BuildValue("i", pSlotWin->IsDisableCoverButton(iSlotIndex));

  00050	ff 75 f8	 push	 DWORD PTR _iSlotIndex$[ebp]
  00053	8b 4d f4	 mov	 ecx, DWORD PTR _pSlotWin$[ebp]
  00056	e8 00 00 00 00	 call	 ?IsDisableCoverButton@CSlotWindow@UI@@QAEHK@Z ; UI::CSlotWindow::IsDisableCoverButton
  0005b	50		 push	 eax
  0005c	68 00 00 00 00	 push	 OFFSET ??_C@_01KBJDNOO@i@
  00061	ff 15 00 00 00
	00		 call	 DWORD PTR __imp__Py_BuildValue
  00067	59		 pop	 ecx
  00068	59		 pop	 ecx
$LN1@wndMgrIsDi:

; 904  : }

  00069	c9		 leave
  0006a	c3		 ret	 0
?wndMgrIsDisableCoverButton@@YAPAU_object@@PAU1@0@Z ENDP ; wndMgrIsDisableCoverButton
_TEXT	ENDS
; Function compile flags: /Odspy
; File D:\Metin2 Server Files\mainline\SRC_2014\Metin2Client\eterPythonLib\PythonWindowManagerModule.cpp
;	COMDAT ?wndMgrDisableCoverButton@@YAPAU_object@@PAU1@0@Z
_TEXT	SEGMENT
_pSlotWin$ = -12					; size = 4
_iSlotIndex$ = -8					; size = 4
_pWindow$ = -4						; size = 4
_poSelf$ = 8						; size = 4
_poArgs$ = 12						; size = 4
?wndMgrDisableCoverButton@@YAPAU_object@@PAU1@0@Z PROC	; wndMgrDisableCoverButton, COMDAT

; 877  : {

  00000	55		 push	 ebp
  00001	8b ec		 mov	 ebp, esp
  00003	83 ec 0c	 sub	 esp, 12			; 0000000cH

; 878  : 	UI::CWindow * pWindow;
; 879  : 	if (!PyTuple_GetWindow(poArgs, 0, &pWindow))

  00006	8d 45 fc	 lea	 eax, DWORD PTR _pWindow$[ebp]
  00009	50		 push	 eax
  0000a	6a 00		 push	 0
  0000c	ff 75 0c	 push	 DWORD PTR _poArgs$[ebp]
  0000f	e8 00 00 00 00	 call	 ?PyTuple_GetWindow@@YA_NPAU_object@@HPAPAVCWindow@UI@@@Z ; PyTuple_GetWindow
  00014	83 c4 0c	 add	 esp, 12			; 0000000cH
  00017	0f b6 c0	 movzx	 eax, al
  0001a	85 c0		 test	 eax, eax
  0001c	75 0a		 jne	 SHORT $LN2@wndMgrDisa

; 880  : 		return Py_BuildException();

  0001e	6a 00		 push	 0
  00020	e8 00 00 00 00	 call	 ?Py_BuildException@@YAPAU_object@@PBDZZ ; Py_BuildException
  00025	59		 pop	 ecx
  00026	eb 38		 jmp	 SHORT $LN1@wndMgrDisa
$LN2@wndMgrDisa:

; 881  : 
; 882  : 	int iSlotIndex;
; 883  : 	if (!PyTuple_GetInteger(poArgs, 1, &iSlotIndex))

  00028	8d 45 f8	 lea	 eax, DWORD PTR _iSlotIndex$[ebp]
  0002b	50		 push	 eax
  0002c	6a 01		 push	 1
  0002e	ff 75 0c	 push	 DWORD PTR _poArgs$[ebp]
  00031	e8 00 00 00 00	 call	 ?PyTuple_GetInteger@@YA_NPAU_object@@HPAH@Z ; PyTuple_GetInteger
  00036	83 c4 0c	 add	 esp, 12			; 0000000cH
  00039	0f b6 c0	 movzx	 eax, al
  0003c	85 c0		 test	 eax, eax
  0003e	75 0a		 jne	 SHORT $LN3@wndMgrDisa

; 884  : 		return Py_BuildException();

  00040	6a 00		 push	 0
  00042	e8 00 00 00 00	 call	 ?Py_BuildException@@YAPAU_object@@PBDZZ ; Py_BuildException
  00047	59		 pop	 ecx
  00048	eb 16		 jmp	 SHORT $LN1@wndMgrDisa
$LN3@wndMgrDisa:

; 885  : 
; 886  : 	UI::CSlotWindow * pSlotWin = (UI::CSlotWindow *)pWindow;

  0004a	8b 45 fc	 mov	 eax, DWORD PTR _pWindow$[ebp]
  0004d	89 45 f4	 mov	 DWORD PTR _pSlotWin$[ebp], eax

; 887  : 	pSlotWin->DisableCoverButton(iSlotIndex);

  00050	ff 75 f8	 push	 DWORD PTR _iSlotIndex$[ebp]
  00053	8b 4d f4	 mov	 ecx, DWORD PTR _pSlotWin$[ebp]
  00056	e8 00 00 00 00	 call	 ?DisableCoverButton@CSlotWindow@UI@@QAEXK@Z ; UI::CSlotWindow::DisableCoverButton

; 888  : 
; 889  : 	return Py_BuildNone();

  0005b	e8 00 00 00 00	 call	 ?Py_BuildNone@@YAPAU_object@@XZ ; Py_BuildNone
$LN1@wndMgrDisa:

; 890  : }

  00060	c9		 leave
  00061	c3		 ret	 0
?wndMgrDisableCoverButton@@YAPAU_object@@PAU1@0@Z ENDP	; wndMgrDisableCoverButton
_TEXT	ENDS
; Function compile flags: /Odspy
; File D:\Metin2 Server Files\mainline\SRC_2014\Metin2Client\eterPythonLib\PythonWindowManagerModule.cpp
;	COMDAT ?wndMgrEnableCoverButton@@YAPAU_object@@PAU1@0@Z
_TEXT	SEGMENT
_pSlotWin$ = -12					; size = 4
_iSlotIndex$ = -8					; size = 4
_pWindow$ = -4						; size = 4
_poSelf$ = 8						; size = 4
_poArgs$ = 12						; size = 4
?wndMgrEnableCoverButton@@YAPAU_object@@PAU1@0@Z PROC	; wndMgrEnableCoverButton, COMDAT

; 861  : {

  00000	55		 push	 ebp
  00001	8b ec		 mov	 ebp, esp
  00003	83 ec 0c	 sub	 esp, 12			; 0000000cH

; 862  : 	UI::CWindow * pWindow;
; 863  : 	if (!PyTuple_GetWindow(poArgs, 0, &pWindow))

  00006	8d 45 fc	 lea	 eax, DWORD PTR _pWindow$[ebp]
  00009	50		 push	 eax
  0000a	6a 00		 push	 0
  0000c	ff 75 0c	 push	 DWORD PTR _poArgs$[ebp]
  0000f	e8 00 00 00 00	 call	 ?PyTuple_GetWindow@@YA_NPAU_object@@HPAPAVCWindow@UI@@@Z ; PyTuple_GetWindow
  00014	83 c4 0c	 add	 esp, 12			; 0000000cH
  00017	0f b6 c0	 movzx	 eax, al
  0001a	85 c0		 test	 eax, eax
  0001c	75 0a		 jne	 SHORT $LN2@wndMgrEnab

; 864  : 		return Py_BuildException();

  0001e	6a 00		 push	 0
  00020	e8 00 00 00 00	 call	 ?Py_BuildException@@YAPAU_object@@PBDZZ ; Py_BuildException
  00025	59		 pop	 ecx
  00026	eb 38		 jmp	 SHORT $LN1@wndMgrEnab
$LN2@wndMgrEnab:

; 865  : 
; 866  : 	int iSlotIndex;
; 867  : 	if (!PyTuple_GetInteger(poArgs, 1, &iSlotIndex))

  00028	8d 45 f8	 lea	 eax, DWORD PTR _iSlotIndex$[ebp]
  0002b	50		 push	 eax
  0002c	6a 01		 push	 1
  0002e	ff 75 0c	 push	 DWORD PTR _poArgs$[ebp]
  00031	e8 00 00 00 00	 call	 ?PyTuple_GetInteger@@YA_NPAU_object@@HPAH@Z ; PyTuple_GetInteger
  00036	83 c4 0c	 add	 esp, 12			; 0000000cH
  00039	0f b6 c0	 movzx	 eax, al
  0003c	85 c0		 test	 eax, eax
  0003e	75 0a		 jne	 SHORT $LN3@wndMgrEnab

; 868  : 		return Py_BuildException();

  00040	6a 00		 push	 0
  00042	e8 00 00 00 00	 call	 ?Py_BuildException@@YAPAU_object@@PBDZZ ; Py_BuildException
  00047	59		 pop	 ecx
  00048	eb 16		 jmp	 SHORT $LN1@wndMgrEnab
$LN3@wndMgrEnab:

; 869  : 
; 870  : 	UI::CSlotWindow * pSlotWin = (UI::CSlotWindow *)pWindow;

  0004a	8b 45 fc	 mov	 eax, DWORD PTR _pWindow$[ebp]
  0004d	89 45 f4	 mov	 DWORD PTR _pSlotWin$[ebp], eax

; 871  : 	pSlotWin->EnableCoverButton(iSlotIndex);

  00050	ff 75 f8	 push	 DWORD PTR _iSlotIndex$[ebp]
  00053	8b 4d f4	 mov	 ecx, DWORD PTR _pSlotWin$[ebp]
  00056	e8 00 00 00 00	 call	 ?EnableCoverButton@CSlotWindow@UI@@QAEXK@Z ; UI::CSlotWindow::EnableCoverButton

; 872  : 
; 873  : 	return Py_BuildNone();

  0005b	e8 00 00 00 00	 call	 ?Py_BuildNone@@YAPAU_object@@XZ ; Py_BuildNone
$LN1@wndMgrEnab:

; 874  : }

  00060	c9		 leave
  00061	c3		 ret	 0
?wndMgrEnableCoverButton@@YAPAU_object@@PAU1@0@Z ENDP	; wndMgrEnableCoverButton
_TEXT	ENDS
; Function compile flags: /Odspy
; File D:\Metin2 Server Files\mainline\SRC_2014\Metin2Client\eterPythonLib\PythonWindowManagerModule.cpp
;	COMDAT ?wndMgrSetCoverButton@@YAPAU_object@@PAU1@0@Z
_TEXT	SEGMENT
_pSlotWin$ = -36					; size = 4
_iSlotIndex$ = -32					; size = 4
_szUpImageName$ = -28					; size = 4
_szOverImageName$ = -24					; size = 4
_szDownImageName$ = -20					; size = 4
_szDisableImageName$ = -16				; size = 4
_iLeftButtonEnable$ = -12				; size = 4
_iRightButtonEnable$ = -8				; size = 4
_pWindow$ = -4						; size = 4
_poSelf$ = 8						; size = 4
_poArgs$ = 12						; size = 4
?wndMgrSetCoverButton@@YAPAU_object@@PAU1@0@Z PROC	; wndMgrSetCoverButton, COMDAT

; 825  : {

  00000	55		 push	 ebp
  00001	8b ec		 mov	 ebp, esp
  00003	83 ec 24	 sub	 esp, 36			; 00000024H

; 826  : 	UI::CWindow * pWindow;
; 827  : 	if (!PyTuple_GetWindow(poArgs, 0, &pWindow))

  00006	8d 45 fc	 lea	 eax, DWORD PTR _pWindow$[ebp]
  00009	50		 push	 eax
  0000a	6a 00		 push	 0
  0000c	ff 75 0c	 push	 DWORD PTR _poArgs$[ebp]
  0000f	e8 00 00 00 00	 call	 ?PyTuple_GetWindow@@YA_NPAU_object@@HPAPAVCWindow@UI@@@Z ; PyTuple_GetWindow
  00014	83 c4 0c	 add	 esp, 12			; 0000000cH
  00017	0f b6 c0	 movzx	 eax, al
  0001a	85 c0		 test	 eax, eax
  0001c	75 0d		 jne	 SHORT $LN2@wndMgrSetC

; 828  : 		return Py_BuildException();

  0001e	6a 00		 push	 0
  00020	e8 00 00 00 00	 call	 ?Py_BuildException@@YAPAU_object@@PBDZZ ; Py_BuildException
  00025	59		 pop	 ecx
  00026	e9 22 01 00 00	 jmp	 $LN1@wndMgrSetC
$LN2@wndMgrSetC:

; 829  : 
; 830  : 	int iSlotIndex;
; 831  : 	if (!PyTuple_GetInteger(poArgs, 1, &iSlotIndex))

  0002b	8d 45 e0	 lea	 eax, DWORD PTR _iSlotIndex$[ebp]
  0002e	50		 push	 eax
  0002f	6a 01		 push	 1
  00031	ff 75 0c	 push	 DWORD PTR _poArgs$[ebp]
  00034	e8 00 00 00 00	 call	 ?PyTuple_GetInteger@@YA_NPAU_object@@HPAH@Z ; PyTuple_GetInteger
  00039	83 c4 0c	 add	 esp, 12			; 0000000cH
  0003c	0f b6 c0	 movzx	 eax, al
  0003f	85 c0		 test	 eax, eax
  00041	75 0d		 jne	 SHORT $LN3@wndMgrSetC

; 832  : 		return Py_BuildException();

  00043	6a 00		 push	 0
  00045	e8 00 00 00 00	 call	 ?Py_BuildException@@YAPAU_object@@PBDZZ ; Py_BuildException
  0004a	59		 pop	 ecx
  0004b	e9 fd 00 00 00	 jmp	 $LN1@wndMgrSetC
$LN3@wndMgrSetC:

; 833  : 
; 834  : 	char * szUpImageName;
; 835  : 	if (!PyTuple_GetString(poArgs, 2, &szUpImageName))

  00050	8d 45 e4	 lea	 eax, DWORD PTR _szUpImageName$[ebp]
  00053	50		 push	 eax
  00054	6a 02		 push	 2
  00056	ff 75 0c	 push	 DWORD PTR _poArgs$[ebp]
  00059	e8 00 00 00 00	 call	 ?PyTuple_GetString@@YA_NPAU_object@@HPAPAD@Z ; PyTuple_GetString
  0005e	83 c4 0c	 add	 esp, 12			; 0000000cH
  00061	0f b6 c0	 movzx	 eax, al
  00064	85 c0		 test	 eax, eax
  00066	75 0d		 jne	 SHORT $LN4@wndMgrSetC

; 836  : 		return Py_BuildException();

  00068	6a 00		 push	 0
  0006a	e8 00 00 00 00	 call	 ?Py_BuildException@@YAPAU_object@@PBDZZ ; Py_BuildException
  0006f	59		 pop	 ecx
  00070	e9 d8 00 00 00	 jmp	 $LN1@wndMgrSetC
$LN4@wndMgrSetC:

; 837  : 	char * szOverImageName;
; 838  : 	if (!PyTuple_GetString(poArgs, 3, &szOverImageName))

  00075	8d 45 e8	 lea	 eax, DWORD PTR _szOverImageName$[ebp]
  00078	50		 push	 eax
  00079	6a 03		 push	 3
  0007b	ff 75 0c	 push	 DWORD PTR _poArgs$[ebp]
  0007e	e8 00 00 00 00	 call	 ?PyTuple_GetString@@YA_NPAU_object@@HPAPAD@Z ; PyTuple_GetString
  00083	83 c4 0c	 add	 esp, 12			; 0000000cH
  00086	0f b6 c0	 movzx	 eax, al
  00089	85 c0		 test	 eax, eax
  0008b	75 0d		 jne	 SHORT $LN5@wndMgrSetC

; 839  : 		return Py_BuildException();

  0008d	6a 00		 push	 0
  0008f	e8 00 00 00 00	 call	 ?Py_BuildException@@YAPAU_object@@PBDZZ ; Py_BuildException
  00094	59		 pop	 ecx
  00095	e9 b3 00 00 00	 jmp	 $LN1@wndMgrSetC
$LN5@wndMgrSetC:

; 840  : 	char * szDownImageName;
; 841  : 	if (!PyTuple_GetString(poArgs, 4, &szDownImageName))

  0009a	8d 45 ec	 lea	 eax, DWORD PTR _szDownImageName$[ebp]
  0009d	50		 push	 eax
  0009e	6a 04		 push	 4
  000a0	ff 75 0c	 push	 DWORD PTR _poArgs$[ebp]
  000a3	e8 00 00 00 00	 call	 ?PyTuple_GetString@@YA_NPAU_object@@HPAPAD@Z ; PyTuple_GetString
  000a8	83 c4 0c	 add	 esp, 12			; 0000000cH
  000ab	0f b6 c0	 movzx	 eax, al
  000ae	85 c0		 test	 eax, eax
  000b0	75 0d		 jne	 SHORT $LN6@wndMgrSetC

; 842  : 		return Py_BuildException();

  000b2	6a 00		 push	 0
  000b4	e8 00 00 00 00	 call	 ?Py_BuildException@@YAPAU_object@@PBDZZ ; Py_BuildException
  000b9	59		 pop	 ecx
  000ba	e9 8e 00 00 00	 jmp	 $LN1@wndMgrSetC
$LN6@wndMgrSetC:

; 843  : 	char * szDisableImageName;
; 844  : 	if (!PyTuple_GetString(poArgs, 5, &szDisableImageName))

  000bf	8d 45 f0	 lea	 eax, DWORD PTR _szDisableImageName$[ebp]
  000c2	50		 push	 eax
  000c3	6a 05		 push	 5
  000c5	ff 75 0c	 push	 DWORD PTR _poArgs$[ebp]
  000c8	e8 00 00 00 00	 call	 ?PyTuple_GetString@@YA_NPAU_object@@HPAPAD@Z ; PyTuple_GetString
  000cd	83 c4 0c	 add	 esp, 12			; 0000000cH
  000d0	0f b6 c0	 movzx	 eax, al
  000d3	85 c0		 test	 eax, eax
  000d5	75 0a		 jne	 SHORT $LN7@wndMgrSetC

; 845  : 		return Py_BuildException();

  000d7	6a 00		 push	 0
  000d9	e8 00 00 00 00	 call	 ?Py_BuildException@@YAPAU_object@@PBDZZ ; Py_BuildException
  000de	59		 pop	 ecx
  000df	eb 6c		 jmp	 SHORT $LN1@wndMgrSetC
$LN7@wndMgrSetC:

; 846  : 
; 847  : 	int iLeftButtonEnable;
; 848  : 	if (!PyTuple_GetInteger(poArgs, 6, &iLeftButtonEnable))

  000e1	8d 45 f4	 lea	 eax, DWORD PTR _iLeftButtonEnable$[ebp]
  000e4	50		 push	 eax
  000e5	6a 06		 push	 6
  000e7	ff 75 0c	 push	 DWORD PTR _poArgs$[ebp]
  000ea	e8 00 00 00 00	 call	 ?PyTuple_GetInteger@@YA_NPAU_object@@HPAH@Z ; PyTuple_GetInteger
  000ef	83 c4 0c	 add	 esp, 12			; 0000000cH
  000f2	0f b6 c0	 movzx	 eax, al
  000f5	85 c0		 test	 eax, eax
  000f7	75 0a		 jne	 SHORT $LN8@wndMgrSetC

; 849  : 		return Py_BuildException();

  000f9	6a 00		 push	 0
  000fb	e8 00 00 00 00	 call	 ?Py_BuildException@@YAPAU_object@@PBDZZ ; Py_BuildException
  00100	59		 pop	 ecx
  00101	eb 4a		 jmp	 SHORT $LN1@wndMgrSetC
$LN8@wndMgrSetC:

; 850  : 	int iRightButtonEnable;
; 851  : 	if (!PyTuple_GetInteger(poArgs, 7, &iRightButtonEnable))

  00103	8d 45 f8	 lea	 eax, DWORD PTR _iRightButtonEnable$[ebp]
  00106	50		 push	 eax
  00107	6a 07		 push	 7
  00109	ff 75 0c	 push	 DWORD PTR _poArgs$[ebp]
  0010c	e8 00 00 00 00	 call	 ?PyTuple_GetInteger@@YA_NPAU_object@@HPAH@Z ; PyTuple_GetInteger
  00111	83 c4 0c	 add	 esp, 12			; 0000000cH
  00114	0f b6 c0	 movzx	 eax, al
  00117	85 c0		 test	 eax, eax
  00119	75 0a		 jne	 SHORT $LN9@wndMgrSetC

; 852  : 		return Py_BuildException();

  0011b	6a 00		 push	 0
  0011d	e8 00 00 00 00	 call	 ?Py_BuildException@@YAPAU_object@@PBDZZ ; Py_BuildException
  00122	59		 pop	 ecx
  00123	eb 28		 jmp	 SHORT $LN1@wndMgrSetC
$LN9@wndMgrSetC:

; 853  : 
; 854  : 	UI::CSlotWindow * pSlotWin = (UI::CSlotWindow *)pWindow;

  00125	8b 45 fc	 mov	 eax, DWORD PTR _pWindow$[ebp]
  00128	89 45 dc	 mov	 DWORD PTR _pSlotWin$[ebp], eax

; 855  : 	pSlotWin->SetCoverButton(iSlotIndex, szUpImageName, szOverImageName, szDownImageName, szDisableImageName, iLeftButtonEnable, iRightButtonEnable);

  0012b	ff 75 f8	 push	 DWORD PTR _iRightButtonEnable$[ebp]
  0012e	ff 75 f4	 push	 DWORD PTR _iLeftButtonEnable$[ebp]
  00131	ff 75 f0	 push	 DWORD PTR _szDisableImageName$[ebp]
  00134	ff 75 ec	 push	 DWORD PTR _szDownImageName$[ebp]
  00137	ff 75 e8	 push	 DWORD PTR _szOverImageName$[ebp]
  0013a	ff 75 e4	 push	 DWORD PTR _szUpImageName$[ebp]
  0013d	ff 75 e0	 push	 DWORD PTR _iSlotIndex$[ebp]
  00140	8b 4d dc	 mov	 ecx, DWORD PTR _pSlotWin$[ebp]
  00143	e8 00 00 00 00	 call	 ?SetCoverButton@CSlotWindow@UI@@QAEXKPBD000HH@Z ; UI::CSlotWindow::SetCoverButton

; 856  : 
; 857  : 	return Py_BuildNone();

  00148	e8 00 00 00 00	 call	 ?Py_BuildNone@@YAPAU_object@@XZ ; Py_BuildNone
$LN1@wndMgrSetC:

; 858  : }

  0014d	c9		 leave
  0014e	c3		 ret	 0
?wndMgrSetCoverButton@@YAPAU_object@@PAU1@0@Z ENDP	; wndMgrSetCoverButton
_TEXT	ENDS
; Function compile flags: /Odspy
; File D:\Metin2 Server Files\mainline\SRC_2014\Metin2Client\eterPythonLib\PythonWindowManagerModule.cpp
;	COMDAT ?wndMgrSetSlotBaseImage@@YAPAU_object@@PAU1@0@Z
_TEXT	SEGMENT
_pSlotWin$ = -28					; size = 4
_szFileName$ = -24					; size = 4
_fr$ = -20						; size = 4
_fg$ = -16						; size = 4
_fb$ = -12						; size = 4
_fa$ = -8						; size = 4
_pWin$ = -4						; size = 4
_poSelf$ = 8						; size = 4
_poArgs$ = 12						; size = 4
?wndMgrSetSlotBaseImage@@YAPAU_object@@PAU1@0@Z PROC	; wndMgrSetSlotBaseImage, COMDAT

; 790  : {

  00000	55		 push	 ebp
  00001	8b ec		 mov	 ebp, esp
  00003	83 ec 1c	 sub	 esp, 28			; 0000001cH

; 791  : 	UI::CWindow * pWin;
; 792  : 	if (!PyTuple_GetWindow(poArgs, 0, &pWin))

  00006	8d 45 fc	 lea	 eax, DWORD PTR _pWin$[ebp]
  00009	50		 push	 eax
  0000a	6a 00		 push	 0
  0000c	ff 75 0c	 push	 DWORD PTR _poArgs$[ebp]
  0000f	e8 00 00 00 00	 call	 ?PyTuple_GetWindow@@YA_NPAU_object@@HPAPAVCWindow@UI@@@Z ; PyTuple_GetWindow
  00014	83 c4 0c	 add	 esp, 12			; 0000000cH
  00017	0f b6 c0	 movzx	 eax, al
  0001a	85 c0		 test	 eax, eax
  0001c	75 0d		 jne	 SHORT $LN2@wndMgrSetS

; 793  : 		return Py_BuildException();

  0001e	6a 00		 push	 0
  00020	e8 00 00 00 00	 call	 ?Py_BuildException@@YAPAU_object@@PBDZZ ; Py_BuildException
  00025	59		 pop	 ecx
  00026	e9 1f 01 00 00	 jmp	 $LN1@wndMgrSetS
$LN2@wndMgrSetS:

; 794  : 
; 795  : 	char * szFileName;
; 796  : 	if (!PyTuple_GetString(poArgs, 1, &szFileName))

  0002b	8d 45 e8	 lea	 eax, DWORD PTR _szFileName$[ebp]
  0002e	50		 push	 eax
  0002f	6a 01		 push	 1
  00031	ff 75 0c	 push	 DWORD PTR _poArgs$[ebp]
  00034	e8 00 00 00 00	 call	 ?PyTuple_GetString@@YA_NPAU_object@@HPAPAD@Z ; PyTuple_GetString
  00039	83 c4 0c	 add	 esp, 12			; 0000000cH
  0003c	0f b6 c0	 movzx	 eax, al
  0003f	85 c0		 test	 eax, eax
  00041	75 0d		 jne	 SHORT $LN3@wndMgrSetS

; 797  : 		return Py_BuildException();

  00043	6a 00		 push	 0
  00045	e8 00 00 00 00	 call	 ?Py_BuildException@@YAPAU_object@@PBDZZ ; Py_BuildException
  0004a	59		 pop	 ecx
  0004b	e9 fa 00 00 00	 jmp	 $LN1@wndMgrSetS
$LN3@wndMgrSetS:

; 798  : 
; 799  : 	float fr;
; 800  : 	if (!PyTuple_GetFloat(poArgs, 2, &fr))

  00050	8d 45 ec	 lea	 eax, DWORD PTR _fr$[ebp]
  00053	50		 push	 eax
  00054	6a 02		 push	 2
  00056	ff 75 0c	 push	 DWORD PTR _poArgs$[ebp]
  00059	e8 00 00 00 00	 call	 ?PyTuple_GetFloat@@YA_NPAU_object@@HPAM@Z ; PyTuple_GetFloat
  0005e	83 c4 0c	 add	 esp, 12			; 0000000cH
  00061	0f b6 c0	 movzx	 eax, al
  00064	85 c0		 test	 eax, eax
  00066	75 0d		 jne	 SHORT $LN4@wndMgrSetS

; 801  : 		return Py_BuildException();

  00068	6a 00		 push	 0
  0006a	e8 00 00 00 00	 call	 ?Py_BuildException@@YAPAU_object@@PBDZZ ; Py_BuildException
  0006f	59		 pop	 ecx
  00070	e9 d5 00 00 00	 jmp	 $LN1@wndMgrSetS
$LN4@wndMgrSetS:

; 802  : 	float fg;
; 803  : 	if (!PyTuple_GetFloat(poArgs, 3, &fg))

  00075	8d 45 f0	 lea	 eax, DWORD PTR _fg$[ebp]
  00078	50		 push	 eax
  00079	6a 03		 push	 3
  0007b	ff 75 0c	 push	 DWORD PTR _poArgs$[ebp]
  0007e	e8 00 00 00 00	 call	 ?PyTuple_GetFloat@@YA_NPAU_object@@HPAM@Z ; PyTuple_GetFloat
  00083	83 c4 0c	 add	 esp, 12			; 0000000cH
  00086	0f b6 c0	 movzx	 eax, al
  00089	85 c0		 test	 eax, eax
  0008b	75 0d		 jne	 SHORT $LN5@wndMgrSetS

; 804  : 		return Py_BuildException();

  0008d	6a 00		 push	 0
  0008f	e8 00 00 00 00	 call	 ?Py_BuildException@@YAPAU_object@@PBDZZ ; Py_BuildException
  00094	59		 pop	 ecx
  00095	e9 b0 00 00 00	 jmp	 $LN1@wndMgrSetS
$LN5@wndMgrSetS:

; 805  : 	float fb;
; 806  : 	if (!PyTuple_GetFloat(poArgs, 4, &fb))

  0009a	8d 45 f4	 lea	 eax, DWORD PTR _fb$[ebp]
  0009d	50		 push	 eax
  0009e	6a 04		 push	 4
  000a0	ff 75 0c	 push	 DWORD PTR _poArgs$[ebp]
  000a3	e8 00 00 00 00	 call	 ?PyTuple_GetFloat@@YA_NPAU_object@@HPAM@Z ; PyTuple_GetFloat
  000a8	83 c4 0c	 add	 esp, 12			; 0000000cH
  000ab	0f b6 c0	 movzx	 eax, al
  000ae	85 c0		 test	 eax, eax
  000b0	75 0d		 jne	 SHORT $LN6@wndMgrSetS

; 807  : 		return Py_BuildException();

  000b2	6a 00		 push	 0
  000b4	e8 00 00 00 00	 call	 ?Py_BuildException@@YAPAU_object@@PBDZZ ; Py_BuildException
  000b9	59		 pop	 ecx
  000ba	e9 8b 00 00 00	 jmp	 $LN1@wndMgrSetS
$LN6@wndMgrSetS:

; 808  : 	float fa;
; 809  : 	if (!PyTuple_GetFloat(poArgs, 5, &fa))

  000bf	8d 45 f8	 lea	 eax, DWORD PTR _fa$[ebp]
  000c2	50		 push	 eax
  000c3	6a 05		 push	 5
  000c5	ff 75 0c	 push	 DWORD PTR _poArgs$[ebp]
  000c8	e8 00 00 00 00	 call	 ?PyTuple_GetFloat@@YA_NPAU_object@@HPAM@Z ; PyTuple_GetFloat
  000cd	83 c4 0c	 add	 esp, 12			; 0000000cH
  000d0	0f b6 c0	 movzx	 eax, al
  000d3	85 c0		 test	 eax, eax
  000d5	75 0a		 jne	 SHORT $LN7@wndMgrSetS

; 810  : 		return Py_BuildException();

  000d7	6a 00		 push	 0
  000d9	e8 00 00 00 00	 call	 ?Py_BuildException@@YAPAU_object@@PBDZZ ; Py_BuildException
  000de	59		 pop	 ecx
  000df	eb 69		 jmp	 SHORT $LN1@wndMgrSetS
$LN7@wndMgrSetS:

; 811  : 
; 812  : 	if (!pWin->IsType(UI::CSlotWindow::Type()))

  000e1	e8 00 00 00 00	 call	 ?Type@CSlotWindow@UI@@SAKXZ ; UI::CSlotWindow::Type
  000e6	50		 push	 eax
  000e7	8b 4d fc	 mov	 ecx, DWORD PTR _pWin$[ebp]
  000ea	e8 00 00 00 00	 call	 ?IsType@CWindow@UI@@QAEHK@Z ; UI::CWindow::IsType
  000ef	85 c0		 test	 eax, eax
  000f1	75 15		 jne	 SHORT $LN8@wndMgrSetS

; 813  : 	{
; 814  : 		TraceError("wndMgr.ArrangeSlot : not a slot window");

  000f3	68 00 00 00 00	 push	 OFFSET ??_C@_0CH@HCFLPGH@wndMgr?4ArrangeSlot?5?3?5not?5a?5slot@
  000f8	e8 00 00 00 00	 call	 ?TraceError@@YAXPBDZZ	; TraceError
  000fd	59		 pop	 ecx

; 815  : 		return Py_BuildException();

  000fe	6a 00		 push	 0
  00100	e8 00 00 00 00	 call	 ?Py_BuildException@@YAPAU_object@@PBDZZ ; Py_BuildException
  00105	59		 pop	 ecx
  00106	eb 42		 jmp	 SHORT $LN1@wndMgrSetS
$LN8@wndMgrSetS:

; 816  : 	}
; 817  : 
; 818  : 	UI::CSlotWindow * pSlotWin = (UI::CSlotWindow *)pWin;

  00108	8b 45 fc	 mov	 eax, DWORD PTR _pWin$[ebp]
  0010b	89 45 e4	 mov	 DWORD PTR _pSlotWin$[ebp], eax

; 819  : 	pSlotWin->SetSlotBaseImage(szFileName, fr, fg, fb, fa);

  0010e	51		 push	 ecx
  0010f	f3 0f 10 45 f8	 movss	 xmm0, DWORD PTR _fa$[ebp]
  00114	f3 0f 11 04 24	 movss	 DWORD PTR [esp], xmm0
  00119	51		 push	 ecx
  0011a	f3 0f 10 45 f4	 movss	 xmm0, DWORD PTR _fb$[ebp]
  0011f	f3 0f 11 04 24	 movss	 DWORD PTR [esp], xmm0
  00124	51		 push	 ecx
  00125	f3 0f 10 45 f0	 movss	 xmm0, DWORD PTR _fg$[ebp]
  0012a	f3 0f 11 04 24	 movss	 DWORD PTR [esp], xmm0
  0012f	51		 push	 ecx
  00130	f3 0f 10 45 ec	 movss	 xmm0, DWORD PTR _fr$[ebp]
  00135	f3 0f 11 04 24	 movss	 DWORD PTR [esp], xmm0
  0013a	ff 75 e8	 push	 DWORD PTR _szFileName$[ebp]
  0013d	8b 4d e4	 mov	 ecx, DWORD PTR _pSlotWin$[ebp]
  00140	e8 00 00 00 00	 call	 ?SetSlotBaseImage@CSlotWindow@UI@@QAEXPBDMMMM@Z ; UI::CSlotWindow::SetSlotBaseImage

; 820  : 
; 821  : 	return Py_BuildNone();

  00145	e8 00 00 00 00	 call	 ?Py_BuildNone@@YAPAU_object@@XZ ; Py_BuildNone
$LN1@wndMgrSetS:

; 822  : }

  0014a	c9		 leave
  0014b	c3		 ret	 0
?wndMgrSetSlotBaseImage@@YAPAU_object@@PAU1@0@Z ENDP	; wndMgrSetSlotBaseImage
_TEXT	ENDS
; Function compile flags: /Odspy
; File D:\Metin2 Server Files\mainline\SRC_2014\Metin2Client\eterPythonLib\PythonWindowManagerModule.cpp
;	COMDAT ?wndMgrArrangeSlot@@YAPAU_object@@PAU1@0@Z
_TEXT	SEGMENT
_pGridSlotWin$ = -36					; size = 4
_iStartIndex$ = -32					; size = 4
_ixCellCount$ = -28					; size = 4
_iyCellCount$ = -24					; size = 4
_ixCellSize$ = -20					; size = 4
_iyCellSize$ = -16					; size = 4
_ixBlank$ = -12						; size = 4
_iyBlank$ = -8						; size = 4
_pWin$ = -4						; size = 4
_poSelf$ = 8						; size = 4
_poArgs$ = 12						; size = 4
?wndMgrArrangeSlot@@YAPAU_object@@PAU1@0@Z PROC		; wndMgrArrangeSlot, COMDAT

; 744  : {

  00000	55		 push	 ebp
  00001	8b ec		 mov	 ebp, esp
  00003	83 ec 24	 sub	 esp, 36			; 00000024H

; 745  : 	UI::CWindow * pWin;
; 746  : 	if (!PyTuple_GetWindow(poArgs, 0, &pWin))

  00006	8d 45 fc	 lea	 eax, DWORD PTR _pWin$[ebp]
  00009	50		 push	 eax
  0000a	6a 00		 push	 0
  0000c	ff 75 0c	 push	 DWORD PTR _poArgs$[ebp]
  0000f	e8 00 00 00 00	 call	 ?PyTuple_GetWindow@@YA_NPAU_object@@HPAPAVCWindow@UI@@@Z ; PyTuple_GetWindow
  00014	83 c4 0c	 add	 esp, 12			; 0000000cH
  00017	0f b6 c0	 movzx	 eax, al
  0001a	85 c0		 test	 eax, eax
  0001c	75 0d		 jne	 SHORT $LN2@wndMgrArra

; 747  : 		return Py_BuildException();

  0001e	6a 00		 push	 0
  00020	e8 00 00 00 00	 call	 ?Py_BuildException@@YAPAU_object@@PBDZZ ; Py_BuildException
  00025	59		 pop	 ecx
  00026	e9 4c 01 00 00	 jmp	 $LN1@wndMgrArra
$LN2@wndMgrArra:

; 748  : 
; 749  : 	int iStartIndex;
; 750  : 	if (!PyTuple_GetInteger(poArgs, 1, &iStartIndex))

  0002b	8d 45 e0	 lea	 eax, DWORD PTR _iStartIndex$[ebp]
  0002e	50		 push	 eax
  0002f	6a 01		 push	 1
  00031	ff 75 0c	 push	 DWORD PTR _poArgs$[ebp]
  00034	e8 00 00 00 00	 call	 ?PyTuple_GetInteger@@YA_NPAU_object@@HPAH@Z ; PyTuple_GetInteger
  00039	83 c4 0c	 add	 esp, 12			; 0000000cH
  0003c	0f b6 c0	 movzx	 eax, al
  0003f	85 c0		 test	 eax, eax
  00041	75 0d		 jne	 SHORT $LN3@wndMgrArra

; 751  : 		return Py_BuildException();

  00043	6a 00		 push	 0
  00045	e8 00 00 00 00	 call	 ?Py_BuildException@@YAPAU_object@@PBDZZ ; Py_BuildException
  0004a	59		 pop	 ecx
  0004b	e9 27 01 00 00	 jmp	 $LN1@wndMgrArra
$LN3@wndMgrArra:

; 752  : 
; 753  : 	int ixCellCount;
; 754  : 	if (!PyTuple_GetInteger(poArgs, 2, &ixCellCount))

  00050	8d 45 e4	 lea	 eax, DWORD PTR _ixCellCount$[ebp]
  00053	50		 push	 eax
  00054	6a 02		 push	 2
  00056	ff 75 0c	 push	 DWORD PTR _poArgs$[ebp]
  00059	e8 00 00 00 00	 call	 ?PyTuple_GetInteger@@YA_NPAU_object@@HPAH@Z ; PyTuple_GetInteger
  0005e	83 c4 0c	 add	 esp, 12			; 0000000cH
  00061	0f b6 c0	 movzx	 eax, al
  00064	85 c0		 test	 eax, eax
  00066	75 0d		 jne	 SHORT $LN4@wndMgrArra

; 755  : 		return Py_BuildException();

  00068	6a 00		 push	 0
  0006a	e8 00 00 00 00	 call	 ?Py_BuildException@@YAPAU_object@@PBDZZ ; Py_BuildException
  0006f	59		 pop	 ecx
  00070	e9 02 01 00 00	 jmp	 $LN1@wndMgrArra
$LN4@wndMgrArra:

; 756  : 
; 757  : 	int iyCellCount;
; 758  : 	if (!PyTuple_GetInteger(poArgs, 3, &iyCellCount))

  00075	8d 45 e8	 lea	 eax, DWORD PTR _iyCellCount$[ebp]
  00078	50		 push	 eax
  00079	6a 03		 push	 3
  0007b	ff 75 0c	 push	 DWORD PTR _poArgs$[ebp]
  0007e	e8 00 00 00 00	 call	 ?PyTuple_GetInteger@@YA_NPAU_object@@HPAH@Z ; PyTuple_GetInteger
  00083	83 c4 0c	 add	 esp, 12			; 0000000cH
  00086	0f b6 c0	 movzx	 eax, al
  00089	85 c0		 test	 eax, eax
  0008b	75 0d		 jne	 SHORT $LN5@wndMgrArra

; 759  : 		return Py_BuildException();

  0008d	6a 00		 push	 0
  0008f	e8 00 00 00 00	 call	 ?Py_BuildException@@YAPAU_object@@PBDZZ ; Py_BuildException
  00094	59		 pop	 ecx
  00095	e9 dd 00 00 00	 jmp	 $LN1@wndMgrArra
$LN5@wndMgrArra:

; 760  : 
; 761  : 	int ixCellSize;
; 762  : 	if (!PyTuple_GetInteger(poArgs, 4, &ixCellSize))

  0009a	8d 45 ec	 lea	 eax, DWORD PTR _ixCellSize$[ebp]
  0009d	50		 push	 eax
  0009e	6a 04		 push	 4
  000a0	ff 75 0c	 push	 DWORD PTR _poArgs$[ebp]
  000a3	e8 00 00 00 00	 call	 ?PyTuple_GetInteger@@YA_NPAU_object@@HPAH@Z ; PyTuple_GetInteger
  000a8	83 c4 0c	 add	 esp, 12			; 0000000cH
  000ab	0f b6 c0	 movzx	 eax, al
  000ae	85 c0		 test	 eax, eax
  000b0	75 0d		 jne	 SHORT $LN6@wndMgrArra

; 763  : 		return Py_BuildException();

  000b2	6a 00		 push	 0
  000b4	e8 00 00 00 00	 call	 ?Py_BuildException@@YAPAU_object@@PBDZZ ; Py_BuildException
  000b9	59		 pop	 ecx
  000ba	e9 b8 00 00 00	 jmp	 $LN1@wndMgrArra
$LN6@wndMgrArra:

; 764  : 
; 765  : 	int iyCellSize;
; 766  : 	if (!PyTuple_GetInteger(poArgs, 5, &iyCellSize))

  000bf	8d 45 f0	 lea	 eax, DWORD PTR _iyCellSize$[ebp]
  000c2	50		 push	 eax
  000c3	6a 05		 push	 5
  000c5	ff 75 0c	 push	 DWORD PTR _poArgs$[ebp]
  000c8	e8 00 00 00 00	 call	 ?PyTuple_GetInteger@@YA_NPAU_object@@HPAH@Z ; PyTuple_GetInteger
  000cd	83 c4 0c	 add	 esp, 12			; 0000000cH
  000d0	0f b6 c0	 movzx	 eax, al
  000d3	85 c0		 test	 eax, eax
  000d5	75 0d		 jne	 SHORT $LN7@wndMgrArra

; 767  : 		return Py_BuildException();

  000d7	6a 00		 push	 0
  000d9	e8 00 00 00 00	 call	 ?Py_BuildException@@YAPAU_object@@PBDZZ ; Py_BuildException
  000de	59		 pop	 ecx
  000df	e9 93 00 00 00	 jmp	 $LN1@wndMgrArra
$LN7@wndMgrArra:

; 768  : 
; 769  : 	int ixBlank;
; 770  : 	if (!PyTuple_GetInteger(poArgs, 6, &ixBlank))

  000e4	8d 45 f4	 lea	 eax, DWORD PTR _ixBlank$[ebp]
  000e7	50		 push	 eax
  000e8	6a 06		 push	 6
  000ea	ff 75 0c	 push	 DWORD PTR _poArgs$[ebp]
  000ed	e8 00 00 00 00	 call	 ?PyTuple_GetInteger@@YA_NPAU_object@@HPAH@Z ; PyTuple_GetInteger
  000f2	83 c4 0c	 add	 esp, 12			; 0000000cH
  000f5	0f b6 c0	 movzx	 eax, al
  000f8	85 c0		 test	 eax, eax
  000fa	75 0a		 jne	 SHORT $LN8@wndMgrArra

; 771  : 		return Py_BuildException();

  000fc	6a 00		 push	 0
  000fe	e8 00 00 00 00	 call	 ?Py_BuildException@@YAPAU_object@@PBDZZ ; Py_BuildException
  00103	59		 pop	 ecx
  00104	eb 71		 jmp	 SHORT $LN1@wndMgrArra
$LN8@wndMgrArra:

; 772  : 
; 773  : 	int iyBlank;
; 774  : 	if (!PyTuple_GetInteger(poArgs, 7, &iyBlank))

  00106	8d 45 f8	 lea	 eax, DWORD PTR _iyBlank$[ebp]
  00109	50		 push	 eax
  0010a	6a 07		 push	 7
  0010c	ff 75 0c	 push	 DWORD PTR _poArgs$[ebp]
  0010f	e8 00 00 00 00	 call	 ?PyTuple_GetInteger@@YA_NPAU_object@@HPAH@Z ; PyTuple_GetInteger
  00114	83 c4 0c	 add	 esp, 12			; 0000000cH
  00117	0f b6 c0	 movzx	 eax, al
  0011a	85 c0		 test	 eax, eax
  0011c	75 0a		 jne	 SHORT $LN9@wndMgrArra

; 775  : 		return Py_BuildException();

  0011e	6a 00		 push	 0
  00120	e8 00 00 00 00	 call	 ?Py_BuildException@@YAPAU_object@@PBDZZ ; Py_BuildException
  00125	59		 pop	 ecx
  00126	eb 4f		 jmp	 SHORT $LN1@wndMgrArra
$LN9@wndMgrArra:

; 776  : 
; 777  : 	if (!pWin->IsType(UI::CGridSlotWindow::Type()))

  00128	e8 00 00 00 00	 call	 ?Type@CGridSlotWindow@UI@@SAKXZ ; UI::CGridSlotWindow::Type
  0012d	50		 push	 eax
  0012e	8b 4d fc	 mov	 ecx, DWORD PTR _pWin$[ebp]
  00131	e8 00 00 00 00	 call	 ?IsType@CWindow@UI@@QAEHK@Z ; UI::CWindow::IsType
  00136	85 c0		 test	 eax, eax
  00138	75 15		 jne	 SHORT $LN10@wndMgrArra

; 778  : 	{
; 779  : 		TraceError("wndMgr.ArrangeSlot : not a grid window");

  0013a	68 00 00 00 00	 push	 OFFSET ??_C@_0CH@FFGFLEBP@wndMgr?4ArrangeSlot?5?3?5not?5a?5grid@
  0013f	e8 00 00 00 00	 call	 ?TraceError@@YAXPBDZZ	; TraceError
  00144	59		 pop	 ecx

; 780  : 		return Py_BuildException();

  00145	6a 00		 push	 0
  00147	e8 00 00 00 00	 call	 ?Py_BuildException@@YAPAU_object@@PBDZZ ; Py_BuildException
  0014c	59		 pop	 ecx
  0014d	eb 28		 jmp	 SHORT $LN1@wndMgrArra
$LN10@wndMgrArra:

; 781  : 	}
; 782  : 
; 783  : 	UI::CGridSlotWindow * pGridSlotWin = (UI::CGridSlotWindow *)pWin;

  0014f	8b 45 fc	 mov	 eax, DWORD PTR _pWin$[ebp]
  00152	89 45 dc	 mov	 DWORD PTR _pGridSlotWin$[ebp], eax

; 784  : 	pGridSlotWin->ArrangeGridSlot(iStartIndex, ixCellCount, iyCellCount, ixCellSize, iyCellSize, ixBlank, iyBlank);

  00155	ff 75 f8	 push	 DWORD PTR _iyBlank$[ebp]
  00158	ff 75 f4	 push	 DWORD PTR _ixBlank$[ebp]
  0015b	ff 75 f0	 push	 DWORD PTR _iyCellSize$[ebp]
  0015e	ff 75 ec	 push	 DWORD PTR _ixCellSize$[ebp]
  00161	ff 75 e8	 push	 DWORD PTR _iyCellCount$[ebp]
  00164	ff 75 e4	 push	 DWORD PTR _ixCellCount$[ebp]
  00167	ff 75 e0	 push	 DWORD PTR _iStartIndex$[ebp]
  0016a	8b 4d dc	 mov	 ecx, DWORD PTR _pGridSlotWin$[ebp]
  0016d	e8 00 00 00 00	 call	 ?ArrangeGridSlot@CGridSlotWindow@UI@@QAEXKKKHHHH@Z ; UI::CGridSlotWindow::ArrangeGridSlot

; 785  : 
; 786  : 	return Py_BuildNone();

  00172	e8 00 00 00 00	 call	 ?Py_BuildNone@@YAPAU_object@@XZ ; Py_BuildNone
$LN1@wndMgrArra:

; 787  : }

  00177	c9		 leave
  00178	c3		 ret	 0
?wndMgrArrangeSlot@@YAPAU_object@@PAU1@0@Z ENDP		; wndMgrArrangeSlot
_TEXT	ENDS
; Function compile flags: /Odspy
; File D:\Metin2 Server Files\mainline\SRC_2014\Metin2Client\eterPythonLib\PythonWindowManagerModule.cpp
;	COMDAT ?wndMgrAppendSlot@@YAPAU_object@@PAU1@0@Z
_TEXT	SEGMENT
_pSlotWin$ = -28					; size = 4
_iIndex$ = -24						; size = 4
_ixPosition$ = -20					; size = 4
_iyPosition$ = -16					; size = 4
_ixCellSize$ = -12					; size = 4
_iyCellSize$ = -8					; size = 4
_pWin$ = -4						; size = 4
_poSelf$ = 8						; size = 4
_poArgs$ = 12						; size = 4
?wndMgrAppendSlot@@YAPAU_object@@PAU1@0@Z PROC		; wndMgrAppendSlot, COMDAT

; 709  : {

  00000	55		 push	 ebp
  00001	8b ec		 mov	 ebp, esp
  00003	83 ec 1c	 sub	 esp, 28			; 0000001cH

; 710  : 	UI::CWindow * pWin;
; 711  : 	if (!PyTuple_GetWindow(poArgs, 0, &pWin))

  00006	8d 45 fc	 lea	 eax, DWORD PTR _pWin$[ebp]
  00009	50		 push	 eax
  0000a	6a 00		 push	 0
  0000c	ff 75 0c	 push	 DWORD PTR _poArgs$[ebp]
  0000f	e8 00 00 00 00	 call	 ?PyTuple_GetWindow@@YA_NPAU_object@@HPAPAVCWindow@UI@@@Z ; PyTuple_GetWindow
  00014	83 c4 0c	 add	 esp, 12			; 0000000cH
  00017	0f b6 c0	 movzx	 eax, al
  0001a	85 c0		 test	 eax, eax
  0001c	75 0d		 jne	 SHORT $LN2@wndMgrAppe

; 712  : 		return Py_BuildException();

  0001e	6a 00		 push	 0
  00020	e8 00 00 00 00	 call	 ?Py_BuildException@@YAPAU_object@@PBDZZ ; Py_BuildException
  00025	59		 pop	 ecx
  00026	e9 f1 00 00 00	 jmp	 $LN1@wndMgrAppe
$LN2@wndMgrAppe:

; 713  : 
; 714  : 	int iIndex;
; 715  : 	if (!PyTuple_GetInteger(poArgs, 1, &iIndex))

  0002b	8d 45 e8	 lea	 eax, DWORD PTR _iIndex$[ebp]
  0002e	50		 push	 eax
  0002f	6a 01		 push	 1
  00031	ff 75 0c	 push	 DWORD PTR _poArgs$[ebp]
  00034	e8 00 00 00 00	 call	 ?PyTuple_GetInteger@@YA_NPAU_object@@HPAH@Z ; PyTuple_GetInteger
  00039	83 c4 0c	 add	 esp, 12			; 0000000cH
  0003c	0f b6 c0	 movzx	 eax, al
  0003f	85 c0		 test	 eax, eax
  00041	75 0d		 jne	 SHORT $LN3@wndMgrAppe

; 716  : 		return Py_BuildException();

  00043	6a 00		 push	 0
  00045	e8 00 00 00 00	 call	 ?Py_BuildException@@YAPAU_object@@PBDZZ ; Py_BuildException
  0004a	59		 pop	 ecx
  0004b	e9 cc 00 00 00	 jmp	 $LN1@wndMgrAppe
$LN3@wndMgrAppe:

; 717  : 
; 718  : 	int ixPosition;
; 719  : 	if (!PyTuple_GetInteger(poArgs, 2, &ixPosition))

  00050	8d 45 ec	 lea	 eax, DWORD PTR _ixPosition$[ebp]
  00053	50		 push	 eax
  00054	6a 02		 push	 2
  00056	ff 75 0c	 push	 DWORD PTR _poArgs$[ebp]
  00059	e8 00 00 00 00	 call	 ?PyTuple_GetInteger@@YA_NPAU_object@@HPAH@Z ; PyTuple_GetInteger
  0005e	83 c4 0c	 add	 esp, 12			; 0000000cH
  00061	0f b6 c0	 movzx	 eax, al
  00064	85 c0		 test	 eax, eax
  00066	75 0d		 jne	 SHORT $LN4@wndMgrAppe

; 720  : 		return Py_BuildException();

  00068	6a 00		 push	 0
  0006a	e8 00 00 00 00	 call	 ?Py_BuildException@@YAPAU_object@@PBDZZ ; Py_BuildException
  0006f	59		 pop	 ecx
  00070	e9 a7 00 00 00	 jmp	 $LN1@wndMgrAppe
$LN4@wndMgrAppe:

; 721  : 
; 722  : 	int iyPosition;
; 723  : 	if (!PyTuple_GetInteger(poArgs, 3, &iyPosition))

  00075	8d 45 f0	 lea	 eax, DWORD PTR _iyPosition$[ebp]
  00078	50		 push	 eax
  00079	6a 03		 push	 3
  0007b	ff 75 0c	 push	 DWORD PTR _poArgs$[ebp]
  0007e	e8 00 00 00 00	 call	 ?PyTuple_GetInteger@@YA_NPAU_object@@HPAH@Z ; PyTuple_GetInteger
  00083	83 c4 0c	 add	 esp, 12			; 0000000cH
  00086	0f b6 c0	 movzx	 eax, al
  00089	85 c0		 test	 eax, eax
  0008b	75 0d		 jne	 SHORT $LN5@wndMgrAppe

; 724  : 		return Py_BuildException();

  0008d	6a 00		 push	 0
  0008f	e8 00 00 00 00	 call	 ?Py_BuildException@@YAPAU_object@@PBDZZ ; Py_BuildException
  00094	59		 pop	 ecx
  00095	e9 82 00 00 00	 jmp	 $LN1@wndMgrAppe
$LN5@wndMgrAppe:

; 725  : 
; 726  : 	int ixCellSize;
; 727  : 	if (!PyTuple_GetInteger(poArgs, 4, &ixCellSize))

  0009a	8d 45 f4	 lea	 eax, DWORD PTR _ixCellSize$[ebp]
  0009d	50		 push	 eax
  0009e	6a 04		 push	 4
  000a0	ff 75 0c	 push	 DWORD PTR _poArgs$[ebp]
  000a3	e8 00 00 00 00	 call	 ?PyTuple_GetInteger@@YA_NPAU_object@@HPAH@Z ; PyTuple_GetInteger
  000a8	83 c4 0c	 add	 esp, 12			; 0000000cH
  000ab	0f b6 c0	 movzx	 eax, al
  000ae	85 c0		 test	 eax, eax
  000b0	75 0a		 jne	 SHORT $LN6@wndMgrAppe

; 728  : 		return Py_BuildException();

  000b2	6a 00		 push	 0
  000b4	e8 00 00 00 00	 call	 ?Py_BuildException@@YAPAU_object@@PBDZZ ; Py_BuildException
  000b9	59		 pop	 ecx
  000ba	eb 60		 jmp	 SHORT $LN1@wndMgrAppe
$LN6@wndMgrAppe:

; 729  : 
; 730  : 	int iyCellSize;
; 731  : 	if (!PyTuple_GetInteger(poArgs, 5, &iyCellSize))

  000bc	8d 45 f8	 lea	 eax, DWORD PTR _iyCellSize$[ebp]
  000bf	50		 push	 eax
  000c0	6a 05		 push	 5
  000c2	ff 75 0c	 push	 DWORD PTR _poArgs$[ebp]
  000c5	e8 00 00 00 00	 call	 ?PyTuple_GetInteger@@YA_NPAU_object@@HPAH@Z ; PyTuple_GetInteger
  000ca	83 c4 0c	 add	 esp, 12			; 0000000cH
  000cd	0f b6 c0	 movzx	 eax, al
  000d0	85 c0		 test	 eax, eax
  000d2	75 0a		 jne	 SHORT $LN7@wndMgrAppe

; 732  : 		return Py_BuildException();

  000d4	6a 00		 push	 0
  000d6	e8 00 00 00 00	 call	 ?Py_BuildException@@YAPAU_object@@PBDZZ ; Py_BuildException
  000db	59		 pop	 ecx
  000dc	eb 3e		 jmp	 SHORT $LN1@wndMgrAppe
$LN7@wndMgrAppe:

; 733  : 
; 734  : 	if (!pWin->IsType(UI::CSlotWindow::Type()))

  000de	e8 00 00 00 00	 call	 ?Type@CSlotWindow@UI@@SAKXZ ; UI::CSlotWindow::Type
  000e3	50		 push	 eax
  000e4	8b 4d fc	 mov	 ecx, DWORD PTR _pWin$[ebp]
  000e7	e8 00 00 00 00	 call	 ?IsType@CWindow@UI@@QAEHK@Z ; UI::CWindow::IsType
  000ec	85 c0		 test	 eax, eax
  000ee	75 0a		 jne	 SHORT $LN8@wndMgrAppe

; 735  : 		return Py_BuildException();

  000f0	6a 00		 push	 0
  000f2	e8 00 00 00 00	 call	 ?Py_BuildException@@YAPAU_object@@PBDZZ ; Py_BuildException
  000f7	59		 pop	 ecx
  000f8	eb 22		 jmp	 SHORT $LN1@wndMgrAppe
$LN8@wndMgrAppe:

; 736  : 
; 737  : 	UI::CSlotWindow * pSlotWin = (UI::CSlotWindow *)pWin;

  000fa	8b 45 fc	 mov	 eax, DWORD PTR _pWin$[ebp]
  000fd	89 45 e4	 mov	 DWORD PTR _pSlotWin$[ebp], eax

; 738  : 	pSlotWin->AppendSlot(iIndex, ixPosition, iyPosition, ixCellSize, iyCellSize);

  00100	ff 75 f8	 push	 DWORD PTR _iyCellSize$[ebp]
  00103	ff 75 f4	 push	 DWORD PTR _ixCellSize$[ebp]
  00106	ff 75 f0	 push	 DWORD PTR _iyPosition$[ebp]
  00109	ff 75 ec	 push	 DWORD PTR _ixPosition$[ebp]
  0010c	ff 75 e8	 push	 DWORD PTR _iIndex$[ebp]
  0010f	8b 4d e4	 mov	 ecx, DWORD PTR _pSlotWin$[ebp]
  00112	e8 00 00 00 00	 call	 ?AppendSlot@CSlotWindow@UI@@QAEXKHHHH@Z ; UI::CSlotWindow::AppendSlot

; 739  : 
; 740  : 	return Py_BuildNone();

  00117	e8 00 00 00 00	 call	 ?Py_BuildNone@@YAPAU_object@@XZ ; Py_BuildNone
$LN1@wndMgrAppe:

; 741  : }

  0011c	c9		 leave
  0011d	c3		 ret	 0
?wndMgrAppendSlot@@YAPAU_object@@PAU1@0@Z ENDP		; wndMgrAppendSlot
_TEXT	ENDS
; Function compile flags: /Odspy
; File D:\Metin2 Server Files\mainline\SRC_2014\Metin2Client\eterPythonLib\PythonWindowManagerModule.cpp
;	COMDAT ?wndMgrUpdateRect@@YAPAU_object@@PAU1@0@Z
_TEXT	SEGMENT
_pWin$ = -4						; size = 4
_poSelf$ = 8						; size = 4
_poArgs$ = 12						; size = 4
?wndMgrUpdateRect@@YAPAU_object@@PAU1@0@Z PROC		; wndMgrUpdateRect, COMDAT

; 699  : {

  00000	55		 push	 ebp
  00001	8b ec		 mov	 ebp, esp
  00003	51		 push	 ecx

; 700  : 	UI::CWindow * pWin;
; 701  : 	if (!PyTuple_GetWindow(poArgs, 0, &pWin))

  00004	8d 45 fc	 lea	 eax, DWORD PTR _pWin$[ebp]
  00007	50		 push	 eax
  00008	6a 00		 push	 0
  0000a	ff 75 0c	 push	 DWORD PTR _poArgs$[ebp]
  0000d	e8 00 00 00 00	 call	 ?PyTuple_GetWindow@@YA_NPAU_object@@HPAPAVCWindow@UI@@@Z ; PyTuple_GetWindow
  00012	83 c4 0c	 add	 esp, 12			; 0000000cH
  00015	0f b6 c0	 movzx	 eax, al
  00018	85 c0		 test	 eax, eax
  0001a	75 0a		 jne	 SHORT $LN2@wndMgrUpda

; 702  : 		return Py_BuildException();

  0001c	6a 00		 push	 0
  0001e	e8 00 00 00 00	 call	 ?Py_BuildException@@YAPAU_object@@PBDZZ ; Py_BuildException
  00023	59		 pop	 ecx
  00024	eb 0d		 jmp	 SHORT $LN1@wndMgrUpda
$LN2@wndMgrUpda:

; 703  : 
; 704  : 	pWin->UpdateRect();

  00026	8b 4d fc	 mov	 ecx, DWORD PTR _pWin$[ebp]
  00029	e8 00 00 00 00	 call	 ?UpdateRect@CWindow@UI@@QAEJXZ ; UI::CWindow::UpdateRect

; 705  : 	return Py_BuildNone();

  0002e	e8 00 00 00 00	 call	 ?Py_BuildNone@@YAPAU_object@@XZ ; Py_BuildNone
$LN1@wndMgrUpda:

; 706  : }

  00033	c9		 leave
  00034	c3		 ret	 0
?wndMgrUpdateRect@@YAPAU_object@@PAU1@0@Z ENDP		; wndMgrUpdateRect
_TEXT	ENDS
; Function compile flags: /Odspy
; File D:\Metin2 Server Files\mainline\SRC_2014\Metin2Client\eterPythonLib\PythonWindowManagerModule.cpp
; File D:\Metin2 Server Files\mainline\SRC_2014\Metin2Client\eterPythonLib\PythonWindow.h
; File D:\Metin2 Server Files\mainline\SRC_2014\Metin2Client\eterPythonLib\PythonWindowManagerModule.cpp
;	COMDAT ?wndMgrSetLimitBias@@YAPAU_object@@PAU1@0@Z
_TEXT	SEGMENT
_b$ = -40						; size = 4
_t$ = -36						; size = 4
_r$ = -32						; size = 4
_l$ = -28						; size = 4
_pWin$ = -24						; size = 4
_l$ = -20						; size = 4
_r$ = -16						; size = 4
_t$ = -12						; size = 4
_b$ = -8						; size = 4
_this$ = -4						; size = 4
_poSelf$ = 8						; size = 4
_poArgs$ = 12						; size = 4
?wndMgrSetLimitBias@@YAPAU_object@@PAU1@0@Z PROC	; wndMgrSetLimitBias, COMDAT

; 676  : {

  00000	55		 push	 ebp
  00001	8b ec		 mov	 ebp, esp
  00003	83 ec 28	 sub	 esp, 40			; 00000028H

; 677  : 	UI::CWindow * pWin;
; 678  : 	if (!PyTuple_GetWindow(poArgs, 0, &pWin))

  00006	8d 45 e8	 lea	 eax, DWORD PTR _pWin$[ebp]
  00009	50		 push	 eax
  0000a	6a 00		 push	 0
  0000c	ff 75 0c	 push	 DWORD PTR _poArgs$[ebp]
  0000f	e8 00 00 00 00	 call	 ?PyTuple_GetWindow@@YA_NPAU_object@@HPAPAVCWindow@UI@@@Z ; PyTuple_GetWindow
  00014	83 c4 0c	 add	 esp, 12			; 0000000cH
  00017	0f b6 c0	 movzx	 eax, al
  0001a	85 c0		 test	 eax, eax
  0001c	75 0d		 jne	 SHORT $LN2@wndMgrSetL

; 679  : 		return Py_BuildException();

  0001e	6a 00		 push	 0
  00020	e8 00 00 00 00	 call	 ?Py_BuildException@@YAPAU_object@@PBDZZ ; Py_BuildException
  00025	59		 pop	 ecx
  00026	e9 d5 00 00 00	 jmp	 $LN1@wndMgrSetL
$LN2@wndMgrSetL:

; 680  : 
; 681  : 	int l;
; 682  : 	if (!PyTuple_GetInteger(poArgs, 1, &l))

  0002b	8d 45 ec	 lea	 eax, DWORD PTR _l$[ebp]
  0002e	50		 push	 eax
  0002f	6a 01		 push	 1
  00031	ff 75 0c	 push	 DWORD PTR _poArgs$[ebp]
  00034	e8 00 00 00 00	 call	 ?PyTuple_GetInteger@@YA_NPAU_object@@HPAH@Z ; PyTuple_GetInteger
  00039	83 c4 0c	 add	 esp, 12			; 0000000cH
  0003c	0f b6 c0	 movzx	 eax, al
  0003f	85 c0		 test	 eax, eax
  00041	75 0d		 jne	 SHORT $LN3@wndMgrSetL

; 683  : 		return Py_BuildException();

  00043	6a 00		 push	 0
  00045	e8 00 00 00 00	 call	 ?Py_BuildException@@YAPAU_object@@PBDZZ ; Py_BuildException
  0004a	59		 pop	 ecx
  0004b	e9 b0 00 00 00	 jmp	 $LN1@wndMgrSetL
$LN3@wndMgrSetL:

; 684  : 	int r;
; 685  : 	if (!PyTuple_GetInteger(poArgs, 2, &r))

  00050	8d 45 f0	 lea	 eax, DWORD PTR _r$[ebp]
  00053	50		 push	 eax
  00054	6a 02		 push	 2
  00056	ff 75 0c	 push	 DWORD PTR _poArgs$[ebp]
  00059	e8 00 00 00 00	 call	 ?PyTuple_GetInteger@@YA_NPAU_object@@HPAH@Z ; PyTuple_GetInteger
  0005e	83 c4 0c	 add	 esp, 12			; 0000000cH
  00061	0f b6 c0	 movzx	 eax, al
  00064	85 c0		 test	 eax, eax
  00066	75 0d		 jne	 SHORT $LN4@wndMgrSetL

; 686  : 		return Py_BuildException();

  00068	6a 00		 push	 0
  0006a	e8 00 00 00 00	 call	 ?Py_BuildException@@YAPAU_object@@PBDZZ ; Py_BuildException
  0006f	59		 pop	 ecx
  00070	e9 8b 00 00 00	 jmp	 $LN1@wndMgrSetL
$LN4@wndMgrSetL:

; 687  : 	int t;
; 688  : 	if (!PyTuple_GetInteger(poArgs, 3, &t))

  00075	8d 45 f4	 lea	 eax, DWORD PTR _t$[ebp]
  00078	50		 push	 eax
  00079	6a 03		 push	 3
  0007b	ff 75 0c	 push	 DWORD PTR _poArgs$[ebp]
  0007e	e8 00 00 00 00	 call	 ?PyTuple_GetInteger@@YA_NPAU_object@@HPAH@Z ; PyTuple_GetInteger
  00083	83 c4 0c	 add	 esp, 12			; 0000000cH
  00086	0f b6 c0	 movzx	 eax, al
  00089	85 c0		 test	 eax, eax
  0008b	75 0a		 jne	 SHORT $LN5@wndMgrSetL

; 689  : 		return Py_BuildException();

  0008d	6a 00		 push	 0
  0008f	e8 00 00 00 00	 call	 ?Py_BuildException@@YAPAU_object@@PBDZZ ; Py_BuildException
  00094	59		 pop	 ecx
  00095	eb 69		 jmp	 SHORT $LN1@wndMgrSetL
$LN5@wndMgrSetL:

; 690  : 	int b;
; 691  : 	if (!PyTuple_GetInteger(poArgs, 4, &b))

  00097	8d 45 f8	 lea	 eax, DWORD PTR _b$[ebp]
  0009a	50		 push	 eax
  0009b	6a 04		 push	 4
  0009d	ff 75 0c	 push	 DWORD PTR _poArgs$[ebp]
  000a0	e8 00 00 00 00	 call	 ?PyTuple_GetInteger@@YA_NPAU_object@@HPAH@Z ; PyTuple_GetInteger
  000a5	83 c4 0c	 add	 esp, 12			; 0000000cH
  000a8	0f b6 c0	 movzx	 eax, al
  000ab	85 c0		 test	 eax, eax
  000ad	75 0a		 jne	 SHORT $LN6@wndMgrSetL

; 692  : 		return Py_BuildException();

  000af	6a 00		 push	 0
  000b1	e8 00 00 00 00	 call	 ?Py_BuildException@@YAPAU_object@@PBDZZ ; Py_BuildException
  000b6	59		 pop	 ecx
  000b7	eb 47		 jmp	 SHORT $LN1@wndMgrSetL
$LN6@wndMgrSetL:

; 693  : 
; 694  : 	pWin->SetLimitBias(l, r, t, b);

  000b9	8b 45 f8	 mov	 eax, DWORD PTR _b$[ebp]
  000bc	89 45 d8	 mov	 DWORD PTR _b$[ebp], eax
  000bf	8b 45 f4	 mov	 eax, DWORD PTR _t$[ebp]
  000c2	89 45 dc	 mov	 DWORD PTR _t$[ebp], eax
  000c5	8b 45 f0	 mov	 eax, DWORD PTR _r$[ebp]
  000c8	89 45 e0	 mov	 DWORD PTR _r$[ebp], eax
  000cb	8b 45 ec	 mov	 eax, DWORD PTR _l$[ebp]
  000ce	89 45 e4	 mov	 DWORD PTR _l$[ebp], eax
  000d1	8b 45 e8	 mov	 eax, DWORD PTR _pWin$[ebp]
  000d4	89 45 fc	 mov	 DWORD PTR _this$[ebp], eax
; File D:\Metin2 Server Files\mainline\SRC_2014\Metin2Client\eterPythonLib\PythonWindow.h

; 74   : 			void			SetLimitBias(long l, long r, long t, long b) { m_limitBiasRect.left = l, m_limitBiasRect.right = r, m_limitBiasRect.top = t, m_limitBiasRect.bottom = b; }

  000d7	8b 45 fc	 mov	 eax, DWORD PTR _this$[ebp]
  000da	8b 4d e4	 mov	 ecx, DWORD PTR _l$[ebp]
  000dd	89 48 44	 mov	 DWORD PTR [eax+68], ecx
  000e0	8b 45 fc	 mov	 eax, DWORD PTR _this$[ebp]
  000e3	8b 4d e0	 mov	 ecx, DWORD PTR _r$[ebp]
  000e6	89 48 4c	 mov	 DWORD PTR [eax+76], ecx
  000e9	8b 45 fc	 mov	 eax, DWORD PTR _this$[ebp]
  000ec	8b 4d dc	 mov	 ecx, DWORD PTR _t$[ebp]
  000ef	89 48 48	 mov	 DWORD PTR [eax+72], ecx
  000f2	8b 45 fc	 mov	 eax, DWORD PTR _this$[ebp]
  000f5	8b 4d d8	 mov	 ecx, DWORD PTR _b$[ebp]
  000f8	89 48 50	 mov	 DWORD PTR [eax+80], ecx
; File D:\Metin2 Server Files\mainline\SRC_2014\Metin2Client\eterPythonLib\PythonWindowManagerModule.cpp

; 695  : 	return Py_BuildNone();

  000fb	e8 00 00 00 00	 call	 ?Py_BuildNone@@YAPAU_object@@XZ ; Py_BuildNone
$LN1@wndMgrSetL:

; 696  : }

  00100	c9		 leave
  00101	c3		 ret	 0
?wndMgrSetLimitBias@@YAPAU_object@@PAU1@0@Z ENDP	; wndMgrSetLimitBias
_TEXT	ENDS
; Function compile flags: /Odspy
; File D:\Metin2 Server Files\mainline\SRC_2014\Metin2Client\eterPythonLib\PythonWindowManagerModule.cpp
; File D:\Metin2 Server Files\mainline\SRC_2014\Metin2Client\eterPythonLib\PythonWindow.h
; File D:\Metin2 Server Files\mainline\SRC_2014\Metin2Client\eterPythonLib\PythonWindowManagerModule.cpp
; File D:\Metin2 Server Files\mainline\SRC_2014\Metin2Client\eterPythonLib\PythonWindow.h
; File D:\Metin2 Server Files\mainline\SRC_2014\Metin2Client\eterPythonLib\PythonWindowManagerModule.cpp
; File D:\Metin2 Server Files\mainline\SRC_2014\Metin2Client\eterPythonLib\PythonWindow.h
; File D:\Metin2 Server Files\mainline\SRC_2014\Metin2Client\eterPythonLib\PythonWindowManagerModule.cpp
; File D:\Metin2 Server Files\mainline\SRC_2014\Metin2Client\eterPythonLib\PythonWindow.h
; File D:\Metin2 Server Files\mainline\SRC_2014\Metin2Client\eterPythonLib\PythonWindowManagerModule.cpp
; File D:\Metin2 Server Files\mainline\SRC_2014\Metin2Client\eterPythonLib\PythonWindow.h
; File D:\Metin2 Server Files\mainline\SRC_2014\Metin2Client\eterPythonLib\PythonWindowManagerModule.cpp
; File D:\Metin2 Server Files\mainline\SRC_2014\Metin2Client\eterPythonLib\PythonWindow.h
; File D:\Metin2 Server Files\mainline\SRC_2014\Metin2Client\eterPythonLib\PythonWindowManagerModule.cpp
; File D:\Metin2 Server Files\mainline\SRC_2014\Metin2Client\eterPythonLib\PythonWindow.h
; File D:\Metin2 Server Files\mainline\SRC_2014\Metin2Client\eterPythonLib\PythonWindowManagerModule.cpp
; File D:\Metin2 Server Files\mainline\SRC_2014\Metin2Client\eterPythonLib\PythonWindow.h
; File D:\Metin2 Server Files\mainline\SRC_2014\Metin2Client\eterPythonLib\PythonWindowManagerModule.cpp
; File D:\Metin2 Server Files\mainline\SRC_2014\Metin2Client\eterPythonLib\PythonWindow.h
; File D:\Metin2 Server Files\mainline\SRC_2014\Metin2Client\eterPythonLib\PythonWindowManagerModule.cpp
; File D:\Metin2 Server Files\mainline\SRC_2014\Metin2Client\eterPythonLib\PythonWindow.h
; File D:\Metin2 Server Files\mainline\SRC_2014\Metin2Client\eterPythonLib\PythonWindowManagerModule.cpp
; File D:\Metin2 Server Files\mainline\SRC_2014\Metin2Client\eterPythonLib\PythonWindow.h
; File D:\Metin2 Server Files\mainline\SRC_2014\Metin2Client\eterPythonLib\PythonWindowManagerModule.cpp
;	COMDAT ?wndMgrAddFlag@@YAPAU_object@@PAU1@0@Z
_TEXT	SEGMENT
_this$ = -52						; size = 4
_this$ = -48						; size = 4
_this$ = -44						; size = 4
_this$ = -40						; size = 4
_this$ = -36						; size = 4
_this$ = -32						; size = 4
_this$ = -28						; size = 4
_this$ = -24						; size = 4
_this$ = -20						; size = 4
_this$ = -16						; size = 4
_this$ = -12						; size = 4
_pWin$ = -8						; size = 4
_pszFlag$ = -4						; size = 4
_poSelf$ = 8						; size = 4
_poArgs$ = 12						; size = 4
?wndMgrAddFlag@@YAPAU_object@@PAU1@0@Z PROC		; wndMgrAddFlag, COMDAT

; 635  : {

  00000	55		 push	 ebp
  00001	8b ec		 mov	 ebp, esp
  00003	83 ec 34	 sub	 esp, 52			; 00000034H

; 636  : 	UI::CWindow * pWin;
; 637  : 	if (!PyTuple_GetWindow(poArgs, 0, &pWin))

  00006	8d 45 f8	 lea	 eax, DWORD PTR _pWin$[ebp]
  00009	50		 push	 eax
  0000a	6a 00		 push	 0
  0000c	ff 75 0c	 push	 DWORD PTR _poArgs$[ebp]
  0000f	e8 00 00 00 00	 call	 ?PyTuple_GetWindow@@YA_NPAU_object@@HPAPAVCWindow@UI@@@Z ; PyTuple_GetWindow
  00014	83 c4 0c	 add	 esp, 12			; 0000000cH
  00017	0f b6 c0	 movzx	 eax, al
  0001a	85 c0		 test	 eax, eax
  0001c	75 0d		 jne	 SHORT $LN2@wndMgrAddF

; 638  : 		return Py_BuildException();

  0001e	6a 00		 push	 0
  00020	e8 00 00 00 00	 call	 ?Py_BuildException@@YAPAU_object@@PBDZZ ; Py_BuildException
  00025	59		 pop	 ecx
  00026	e9 43 02 00 00	 jmp	 $LN1@wndMgrAddF
$LN2@wndMgrAddF:

; 639  : 
; 640  : 	char * pszFlag;
; 641  : 	if (!PyTuple_GetString(poArgs, 1, &pszFlag))

  0002b	8d 45 fc	 lea	 eax, DWORD PTR _pszFlag$[ebp]
  0002e	50		 push	 eax
  0002f	6a 01		 push	 1
  00031	ff 75 0c	 push	 DWORD PTR _poArgs$[ebp]
  00034	e8 00 00 00 00	 call	 ?PyTuple_GetString@@YA_NPAU_object@@HPAPAD@Z ; PyTuple_GetString
  00039	83 c4 0c	 add	 esp, 12			; 0000000cH
  0003c	0f b6 c0	 movzx	 eax, al
  0003f	85 c0		 test	 eax, eax
  00041	75 0d		 jne	 SHORT $LN3@wndMgrAddF

; 642  : 		return Py_BuildException();

  00043	6a 00		 push	 0
  00045	e8 00 00 00 00	 call	 ?Py_BuildException@@YAPAU_object@@PBDZZ ; Py_BuildException
  0004a	59		 pop	 ecx
  0004b	e9 1e 02 00 00	 jmp	 $LN1@wndMgrAddF
$LN3@wndMgrAddF:

; 643  : 
; 644  : 	if (pszFlag && *pszFlag)

  00050	83 7d fc 00	 cmp	 DWORD PTR _pszFlag$[ebp], 0
  00054	0f 84 0f 02 00
	00		 je	 $LN4@wndMgrAddF
  0005a	8b 45 fc	 mov	 eax, DWORD PTR _pszFlag$[ebp]
  0005d	0f be 00	 movsx	 eax, BYTE PTR [eax]
  00060	85 c0		 test	 eax, eax
  00062	0f 84 01 02 00
	00		 je	 $LN4@wndMgrAddF

; 645  : 	{
; 646  : 		if (!stricmp(pszFlag, "movable"))

  00068	68 00 00 00 00	 push	 OFFSET ??_C@_07BNIMILPP@movable@
  0006d	ff 75 fc	 push	 DWORD PTR _pszFlag$[ebp]
  00070	e8 00 00 00 00	 call	 __stricmp
  00075	59		 pop	 ecx
  00076	59		 pop	 ecx
  00077	85 c0		 test	 eax, eax
  00079	75 1a		 jne	 SHORT $LN5@wndMgrAddF

; 647  : 			pWin->AddFlag(UI::CWindow::FLAG_MOVABLE);

  0007b	8b 45 f8	 mov	 eax, DWORD PTR _pWin$[ebp]
  0007e	89 45 f4	 mov	 DWORD PTR _this$[ebp], eax
; File D:\Metin2 Server Files\mainline\SRC_2014\Metin2Client\eterPythonLib\PythonWindow.h

; 99   : 			void			AddFlag(DWORD flag)		{ SET_BIT(m_dwFlag, flag);		}

  00081	8b 45 f4	 mov	 eax, DWORD PTR _this$[ebp]
  00084	8b 40 58	 mov	 eax, DWORD PTR [eax+88]
  00087	83 c8 01	 or	 eax, 1
  0008a	8b 4d f4	 mov	 ecx, DWORD PTR _this$[ebp]
  0008d	89 41 58	 mov	 DWORD PTR [ecx+88], eax
; File D:\Metin2 Server Files\mainline\SRC_2014\Metin2Client\eterPythonLib\PythonWindowManagerModule.cpp

; 647  : 			pWin->AddFlag(UI::CWindow::FLAG_MOVABLE);

  00090	e9 d4 01 00 00	 jmp	 $LN4@wndMgrAddF
$LN5@wndMgrAddF:

; 648  : 		else if (!stricmp(pszFlag, "limit"))

  00095	68 00 00 00 00	 push	 OFFSET ??_C@_05GADAOHMC@limit@
  0009a	ff 75 fc	 push	 DWORD PTR _pszFlag$[ebp]
  0009d	e8 00 00 00 00	 call	 __stricmp
  000a2	59		 pop	 ecx
  000a3	59		 pop	 ecx
  000a4	85 c0		 test	 eax, eax
  000a6	75 1a		 jne	 SHORT $LN7@wndMgrAddF

; 649  : 			pWin->AddFlag(UI::CWindow::FLAG_LIMIT);

  000a8	8b 45 f8	 mov	 eax, DWORD PTR _pWin$[ebp]
  000ab	89 45 f0	 mov	 DWORD PTR _this$[ebp], eax
; File D:\Metin2 Server Files\mainline\SRC_2014\Metin2Client\eterPythonLib\PythonWindow.h

; 99   : 			void			AddFlag(DWORD flag)		{ SET_BIT(m_dwFlag, flag);		}

  000ae	8b 45 f0	 mov	 eax, DWORD PTR _this$[ebp]
  000b1	8b 40 58	 mov	 eax, DWORD PTR [eax+88]
  000b4	83 c8 02	 or	 eax, 2
  000b7	8b 4d f0	 mov	 ecx, DWORD PTR _this$[ebp]
  000ba	89 41 58	 mov	 DWORD PTR [ecx+88], eax
; File D:\Metin2 Server Files\mainline\SRC_2014\Metin2Client\eterPythonLib\PythonWindowManagerModule.cpp

; 649  : 			pWin->AddFlag(UI::CWindow::FLAG_LIMIT);

  000bd	e9 a7 01 00 00	 jmp	 $LN4@wndMgrAddF
$LN7@wndMgrAddF:

; 650  : 		else if (!stricmp(pszFlag, "dragable"))

  000c2	68 00 00 00 00	 push	 OFFSET ??_C@_08KCAGBJHE@dragable@
  000c7	ff 75 fc	 push	 DWORD PTR _pszFlag$[ebp]
  000ca	e8 00 00 00 00	 call	 __stricmp
  000cf	59		 pop	 ecx
  000d0	59		 pop	 ecx
  000d1	85 c0		 test	 eax, eax
  000d3	75 1a		 jne	 SHORT $LN9@wndMgrAddF

; 651  : 			pWin->AddFlag(UI::CWindow::FLAG_DRAGABLE);

  000d5	8b 45 f8	 mov	 eax, DWORD PTR _pWin$[ebp]
  000d8	89 45 ec	 mov	 DWORD PTR _this$[ebp], eax
; File D:\Metin2 Server Files\mainline\SRC_2014\Metin2Client\eterPythonLib\PythonWindow.h

; 99   : 			void			AddFlag(DWORD flag)		{ SET_BIT(m_dwFlag, flag);		}

  000db	8b 45 ec	 mov	 eax, DWORD PTR _this$[ebp]
  000de	8b 40 58	 mov	 eax, DWORD PTR [eax+88]
  000e1	83 c8 08	 or	 eax, 8
  000e4	8b 4d ec	 mov	 ecx, DWORD PTR _this$[ebp]
  000e7	89 41 58	 mov	 DWORD PTR [ecx+88], eax
; File D:\Metin2 Server Files\mainline\SRC_2014\Metin2Client\eterPythonLib\PythonWindowManagerModule.cpp

; 651  : 			pWin->AddFlag(UI::CWindow::FLAG_DRAGABLE);

  000ea	e9 7a 01 00 00	 jmp	 $LN4@wndMgrAddF
$LN9@wndMgrAddF:

; 652  : 		else if (!stricmp(pszFlag, "attach"))

  000ef	68 00 00 00 00	 push	 OFFSET ??_C@_06LHJMGKLI@attach@
  000f4	ff 75 fc	 push	 DWORD PTR _pszFlag$[ebp]
  000f7	e8 00 00 00 00	 call	 __stricmp
  000fc	59		 pop	 ecx
  000fd	59		 pop	 ecx
  000fe	85 c0		 test	 eax, eax
  00100	75 1a		 jne	 SHORT $LN11@wndMgrAddF

; 653  : 			pWin->AddFlag(UI::CWindow::FLAG_ATTACH);

  00102	8b 45 f8	 mov	 eax, DWORD PTR _pWin$[ebp]
  00105	89 45 e8	 mov	 DWORD PTR _this$[ebp], eax
; File D:\Metin2 Server Files\mainline\SRC_2014\Metin2Client\eterPythonLib\PythonWindow.h

; 99   : 			void			AddFlag(DWORD flag)		{ SET_BIT(m_dwFlag, flag);		}

  00108	8b 45 e8	 mov	 eax, DWORD PTR _this$[ebp]
  0010b	8b 40 58	 mov	 eax, DWORD PTR [eax+88]
  0010e	83 c8 10	 or	 eax, 16			; 00000010H
  00111	8b 4d e8	 mov	 ecx, DWORD PTR _this$[ebp]
  00114	89 41 58	 mov	 DWORD PTR [ecx+88], eax
; File D:\Metin2 Server Files\mainline\SRC_2014\Metin2Client\eterPythonLib\PythonWindowManagerModule.cpp

; 653  : 			pWin->AddFlag(UI::CWindow::FLAG_ATTACH);

  00117	e9 4d 01 00 00	 jmp	 $LN4@wndMgrAddF
$LN11@wndMgrAddF:

; 654  : 		else if (!stricmp(pszFlag, "restrict_x"))

  0011c	68 00 00 00 00	 push	 OFFSET ??_C@_0L@KAJDFNK@restrict_x@
  00121	ff 75 fc	 push	 DWORD PTR _pszFlag$[ebp]
  00124	e8 00 00 00 00	 call	 __stricmp
  00129	59		 pop	 ecx
  0012a	59		 pop	 ecx
  0012b	85 c0		 test	 eax, eax
  0012d	75 1a		 jne	 SHORT $LN13@wndMgrAddF

; 655  : 			pWin->AddFlag(UI::CWindow::FLAG_RESTRICT_X);

  0012f	8b 45 f8	 mov	 eax, DWORD PTR _pWin$[ebp]
  00132	89 45 e4	 mov	 DWORD PTR _this$[ebp], eax
; File D:\Metin2 Server Files\mainline\SRC_2014\Metin2Client\eterPythonLib\PythonWindow.h

; 99   : 			void			AddFlag(DWORD flag)		{ SET_BIT(m_dwFlag, flag);		}

  00135	8b 45 e4	 mov	 eax, DWORD PTR _this$[ebp]
  00138	8b 40 58	 mov	 eax, DWORD PTR [eax+88]
  0013b	83 c8 20	 or	 eax, 32			; 00000020H
  0013e	8b 4d e4	 mov	 ecx, DWORD PTR _this$[ebp]
  00141	89 41 58	 mov	 DWORD PTR [ecx+88], eax
; File D:\Metin2 Server Files\mainline\SRC_2014\Metin2Client\eterPythonLib\PythonWindowManagerModule.cpp

; 655  : 			pWin->AddFlag(UI::CWindow::FLAG_RESTRICT_X);

  00144	e9 20 01 00 00	 jmp	 $LN4@wndMgrAddF
$LN13@wndMgrAddF:

; 656  : 		else if (!stricmp(pszFlag, "restrict_y"))

  00149	68 00 00 00 00	 push	 OFFSET ??_C@_0L@BDBCAEJL@restrict_y@
  0014e	ff 75 fc	 push	 DWORD PTR _pszFlag$[ebp]
  00151	e8 00 00 00 00	 call	 __stricmp
  00156	59		 pop	 ecx
  00157	59		 pop	 ecx
  00158	85 c0		 test	 eax, eax
  0015a	75 1a		 jne	 SHORT $LN15@wndMgrAddF

; 657  : 			pWin->AddFlag(UI::CWindow::FLAG_RESTRICT_Y);

  0015c	8b 45 f8	 mov	 eax, DWORD PTR _pWin$[ebp]
  0015f	89 45 e0	 mov	 DWORD PTR _this$[ebp], eax
; File D:\Metin2 Server Files\mainline\SRC_2014\Metin2Client\eterPythonLib\PythonWindow.h

; 99   : 			void			AddFlag(DWORD flag)		{ SET_BIT(m_dwFlag, flag);		}

  00162	8b 45 e0	 mov	 eax, DWORD PTR _this$[ebp]
  00165	8b 40 58	 mov	 eax, DWORD PTR [eax+88]
  00168	83 c8 40	 or	 eax, 64			; 00000040H
  0016b	8b 4d e0	 mov	 ecx, DWORD PTR _this$[ebp]
  0016e	89 41 58	 mov	 DWORD PTR [ecx+88], eax
; File D:\Metin2 Server Files\mainline\SRC_2014\Metin2Client\eterPythonLib\PythonWindowManagerModule.cpp

; 657  : 			pWin->AddFlag(UI::CWindow::FLAG_RESTRICT_Y);

  00171	e9 f3 00 00 00	 jmp	 $LN4@wndMgrAddF
$LN15@wndMgrAddF:

; 658  : 		else if (!stricmp(pszFlag, "float"))

  00176	68 00 00 00 00	 push	 OFFSET ??_C@_05KNFBNCOH@float@
  0017b	ff 75 fc	 push	 DWORD PTR _pszFlag$[ebp]
  0017e	e8 00 00 00 00	 call	 __stricmp
  00183	59		 pop	 ecx
  00184	59		 pop	 ecx
  00185	85 c0		 test	 eax, eax
  00187	75 1c		 jne	 SHORT $LN17@wndMgrAddF

; 659  : 			pWin->AddFlag(UI::CWindow::FLAG_FLOAT);

  00189	8b 45 f8	 mov	 eax, DWORD PTR _pWin$[ebp]
  0018c	89 45 dc	 mov	 DWORD PTR _this$[ebp], eax
; File D:\Metin2 Server Files\mainline\SRC_2014\Metin2Client\eterPythonLib\PythonWindow.h

; 99   : 			void			AddFlag(DWORD flag)		{ SET_BIT(m_dwFlag, flag);		}

  0018f	8b 45 dc	 mov	 eax, DWORD PTR _this$[ebp]
  00192	8b 40 58	 mov	 eax, DWORD PTR [eax+88]
  00195	0d 00 01 00 00	 or	 eax, 256		; 00000100H
  0019a	8b 4d dc	 mov	 ecx, DWORD PTR _this$[ebp]
  0019d	89 41 58	 mov	 DWORD PTR [ecx+88], eax
; File D:\Metin2 Server Files\mainline\SRC_2014\Metin2Client\eterPythonLib\PythonWindowManagerModule.cpp

; 659  : 			pWin->AddFlag(UI::CWindow::FLAG_FLOAT);

  001a0	e9 c4 00 00 00	 jmp	 $LN4@wndMgrAddF
$LN17@wndMgrAddF:

; 660  : 		else if (!stricmp(pszFlag, "not_pick"))

  001a5	68 00 00 00 00	 push	 OFFSET ??_C@_08BCAHNCDJ@not_pick@
  001aa	ff 75 fc	 push	 DWORD PTR _pszFlag$[ebp]
  001ad	e8 00 00 00 00	 call	 __stricmp
  001b2	59		 pop	 ecx
  001b3	59		 pop	 ecx
  001b4	85 c0		 test	 eax, eax
  001b6	75 1c		 jne	 SHORT $LN19@wndMgrAddF

; 661  : 			pWin->AddFlag(UI::CWindow::FLAG_NOT_PICK);

  001b8	8b 45 f8	 mov	 eax, DWORD PTR _pWin$[ebp]
  001bb	89 45 d8	 mov	 DWORD PTR _this$[ebp], eax
; File D:\Metin2 Server Files\mainline\SRC_2014\Metin2Client\eterPythonLib\PythonWindow.h

; 99   : 			void			AddFlag(DWORD flag)		{ SET_BIT(m_dwFlag, flag);		}

  001be	8b 45 d8	 mov	 eax, DWORD PTR _this$[ebp]
  001c1	8b 40 58	 mov	 eax, DWORD PTR [eax+88]
  001c4	0d 00 02 00 00	 or	 eax, 512		; 00000200H
  001c9	8b 4d d8	 mov	 ecx, DWORD PTR _this$[ebp]
  001cc	89 41 58	 mov	 DWORD PTR [ecx+88], eax
; File D:\Metin2 Server Files\mainline\SRC_2014\Metin2Client\eterPythonLib\PythonWindowManagerModule.cpp

; 661  : 			pWin->AddFlag(UI::CWindow::FLAG_NOT_PICK);

  001cf	e9 95 00 00 00	 jmp	 $LN4@wndMgrAddF
$LN19@wndMgrAddF:

; 662  : 		else if (!stricmp(pszFlag, "ignore_size"))

  001d4	68 00 00 00 00	 push	 OFFSET ??_C@_0M@HHFJIJHL@ignore_size@
  001d9	ff 75 fc	 push	 DWORD PTR _pszFlag$[ebp]
  001dc	e8 00 00 00 00	 call	 __stricmp
  001e1	59		 pop	 ecx
  001e2	59		 pop	 ecx
  001e3	85 c0		 test	 eax, eax
  001e5	75 19		 jne	 SHORT $LN21@wndMgrAddF

; 663  : 			pWin->AddFlag(UI::CWindow::FLAG_IGNORE_SIZE);

  001e7	8b 45 f8	 mov	 eax, DWORD PTR _pWin$[ebp]
  001ea	89 45 d4	 mov	 DWORD PTR _this$[ebp], eax
; File D:\Metin2 Server Files\mainline\SRC_2014\Metin2Client\eterPythonLib\PythonWindow.h

; 99   : 			void			AddFlag(DWORD flag)		{ SET_BIT(m_dwFlag, flag);		}

  001ed	8b 45 d4	 mov	 eax, DWORD PTR _this$[ebp]
  001f0	8b 40 58	 mov	 eax, DWORD PTR [eax+88]
  001f3	0d 00 04 00 00	 or	 eax, 1024		; 00000400H
  001f8	8b 4d d4	 mov	 ecx, DWORD PTR _this$[ebp]
  001fb	89 41 58	 mov	 DWORD PTR [ecx+88], eax
; File D:\Metin2 Server Files\mainline\SRC_2014\Metin2Client\eterPythonLib\PythonWindowManagerModule.cpp

; 663  : 			pWin->AddFlag(UI::CWindow::FLAG_IGNORE_SIZE);

  001fe	eb 69		 jmp	 SHORT $LN4@wndMgrAddF
$LN21@wndMgrAddF:

; 664  : 		else if (!stricmp(pszFlag, "rtl"))

  00200	68 00 00 00 00	 push	 OFFSET ??_C@_03IFDNKMND@rtl@
  00205	ff 75 fc	 push	 DWORD PTR _pszFlag$[ebp]
  00208	e8 00 00 00 00	 call	 __stricmp
  0020d	59		 pop	 ecx
  0020e	59		 pop	 ecx
  0020f	85 c0		 test	 eax, eax
  00211	75 19		 jne	 SHORT $LN23@wndMgrAddF

; 665  : 			pWin->AddFlag(UI::CWindow::FLAG_RTL);

  00213	8b 45 f8	 mov	 eax, DWORD PTR _pWin$[ebp]
  00216	89 45 d0	 mov	 DWORD PTR _this$[ebp], eax
; File D:\Metin2 Server Files\mainline\SRC_2014\Metin2Client\eterPythonLib\PythonWindow.h

; 99   : 			void			AddFlag(DWORD flag)		{ SET_BIT(m_dwFlag, flag);		}

  00219	8b 45 d0	 mov	 eax, DWORD PTR _this$[ebp]
  0021c	8b 40 58	 mov	 eax, DWORD PTR [eax+88]
  0021f	0d 00 08 00 00	 or	 eax, 2048		; 00000800H
  00224	8b 4d d0	 mov	 ecx, DWORD PTR _this$[ebp]
  00227	89 41 58	 mov	 DWORD PTR [ecx+88], eax
; File D:\Metin2 Server Files\mainline\SRC_2014\Metin2Client\eterPythonLib\PythonWindowManagerModule.cpp

; 665  : 			pWin->AddFlag(UI::CWindow::FLAG_RTL);

  0022a	eb 3d		 jmp	 SHORT $LN4@wndMgrAddF
$LN23@wndMgrAddF:

; 666  : 		else if (!stricmp(pszFlag, "ltr"))

  0022c	68 00 00 00 00	 push	 OFFSET ??_C@_03OBLKLDKA@ltr@
  00231	ff 75 fc	 push	 DWORD PTR _pszFlag$[ebp]
  00234	e8 00 00 00 00	 call	 __stricmp
  00239	59		 pop	 ecx
  0023a	59		 pop	 ecx
  0023b	85 c0		 test	 eax, eax
  0023d	75 1b		 jne	 SHORT $LN25@wndMgrAddF

; 667  : 			pWin->RemoveFlag(UI::CWindow::FLAG_RTL);

  0023f	8b 45 f8	 mov	 eax, DWORD PTR _pWin$[ebp]
  00242	89 45 cc	 mov	 DWORD PTR _this$[ebp], eax
; File D:\Metin2 Server Files\mainline\SRC_2014\Metin2Client\eterPythonLib\PythonWindow.h

; 100  : 			void			RemoveFlag(DWORD flag)	{ REMOVE_BIT(m_dwFlag, flag);	}

  00245	b8 00 08 00 00	 mov	 eax, 2048		; 00000800H
  0024a	f7 d0		 not	 eax
  0024c	8b 4d cc	 mov	 ecx, DWORD PTR _this$[ebp]
  0024f	23 41 58	 and	 eax, DWORD PTR [ecx+88]
  00252	8b 4d cc	 mov	 ecx, DWORD PTR _this$[ebp]
  00255	89 41 58	 mov	 DWORD PTR [ecx+88], eax
; File D:\Metin2 Server Files\mainline\SRC_2014\Metin2Client\eterPythonLib\PythonWindowManagerModule.cpp

; 667  : 			pWin->RemoveFlag(UI::CWindow::FLAG_RTL);

  00258	eb 0f		 jmp	 SHORT $LN4@wndMgrAddF
$LN25@wndMgrAddF:

; 668  : 		else
; 669  : 			TraceError("Unknown window flag %s", pszFlag);

  0025a	ff 75 fc	 push	 DWORD PTR _pszFlag$[ebp]
  0025d	68 00 00 00 00	 push	 OFFSET ??_C@_0BH@KIGIHPAM@Unknown?5window?5flag?5?$CFs@
  00262	e8 00 00 00 00	 call	 ?TraceError@@YAXPBDZZ	; TraceError
  00267	59		 pop	 ecx
  00268	59		 pop	 ecx
$LN4@wndMgrAddF:

; 670  : 	}
; 671  : 
; 672  : 	return Py_BuildNone();

  00269	e8 00 00 00 00	 call	 ?Py_BuildNone@@YAPAU_object@@XZ ; Py_BuildNone
$LN1@wndMgrAddF:

; 673  : }

  0026e	c9		 leave
  0026f	c3		 ret	 0
?wndMgrAddFlag@@YAPAU_object@@PAU1@0@Z ENDP		; wndMgrAddFlag
_TEXT	ENDS
; Function compile flags: /Odspy
; File D:\Metin2 Server Files\mainline\SRC_2014\Metin2Client\eterPythonLib\PythonWindowManagerModule.cpp
; File C:\Program Files (x86)\Microsoft Visual Studio\2019\Community\VC\Tools\MSVC\14.28.29333\include\list
; File D:\Metin2 Server Files\mainline\SRC_2014\Metin2Client\eterPythonLib\PythonWindowManagerModule.cpp
;	COMDAT ?wndMgrGetChildCount@@YAPAU_object@@PAU1@0@Z
_TEXT	SEGMENT
$T1 = -12						; size = 4
_this$ = -8						; size = 4
_pWin$ = -4						; size = 4
_poSelf$ = 8						; size = 4
_poArgs$ = 12						; size = 4
?wndMgrGetChildCount@@YAPAU_object@@PAU1@0@Z PROC	; wndMgrGetChildCount, COMDAT

; 626  : {

  00000	55		 push	 ebp
  00001	8b ec		 mov	 ebp, esp
  00003	83 ec 0c	 sub	 esp, 12			; 0000000cH

; 627  : 	UI::CWindow * pWin;
; 628  : 	if (!PyTuple_GetWindow(poArgs, 0, &pWin))

  00006	8d 45 fc	 lea	 eax, DWORD PTR _pWin$[ebp]
  00009	50		 push	 eax
  0000a	6a 00		 push	 0
  0000c	ff 75 0c	 push	 DWORD PTR _poArgs$[ebp]
  0000f	e8 00 00 00 00	 call	 ?PyTuple_GetWindow@@YA_NPAU_object@@HPAPAVCWindow@UI@@@Z ; PyTuple_GetWindow
  00014	83 c4 0c	 add	 esp, 12			; 0000000cH
  00017	0f b6 c0	 movzx	 eax, al
  0001a	85 c0		 test	 eax, eax
  0001c	75 0a		 jne	 SHORT $LN2@wndMgrGetC

; 629  : 		return Py_BuildException();

  0001e	6a 00		 push	 0
  00020	e8 00 00 00 00	 call	 ?Py_BuildException@@YAPAU_object@@PBDZZ ; Py_BuildException
  00025	59		 pop	 ecx
  00026	eb 1f		 jmp	 SHORT $LN1@wndMgrGetC
$LN2@wndMgrGetC:

; 631  : 	return Py_BuildValue("i", pWin->GetChildCount());

  00028	8b 45 fc	 mov	 eax, DWORD PTR _pWin$[ebp]
  0002b	89 45 f8	 mov	 DWORD PTR _this$[ebp], eax
; File C:\Program Files (x86)\Microsoft Visual Studio\2019\Community\VC\Tools\MSVC\14.28.29333\include\list

; 1191 :         return _Mypair._Myval2._Mysize;

  0002e	8b 45 f8	 mov	 eax, DWORD PTR _this$[ebp]
  00031	8b 40 68	 mov	 eax, DWORD PTR [eax+104]
  00034	89 45 f4	 mov	 DWORD PTR $T1[ebp], eax
; File D:\Metin2 Server Files\mainline\SRC_2014\Metin2Client\eterPythonLib\PythonWindowManagerModule.cpp

; 631  : 	return Py_BuildValue("i", pWin->GetChildCount());

  00037	ff 75 f4	 push	 DWORD PTR $T1[ebp]
  0003a	68 00 00 00 00	 push	 OFFSET ??_C@_01KBJDNOO@i@
  0003f	ff 15 00 00 00
	00		 call	 DWORD PTR __imp__Py_BuildValue
  00045	59		 pop	 ecx
  00046	59		 pop	 ecx
$LN1@wndMgrGetC:

; 632  : }

  00047	c9		 leave
  00048	c3		 ret	 0
?wndMgrGetChildCount@@YAPAU_object@@PAU1@0@Z ENDP	; wndMgrGetChildCount
_TEXT	ENDS
; Function compile flags: /Odspy
; File D:\Metin2 Server Files\mainline\SRC_2014\Metin2Client\eterPythonLib\PythonWindowManagerModule.cpp
; File D:\Metin2 Server Files\mainline\SRC_2014\Metin2Client\eterBase\Singleton.h
; File D:\Metin2 Server Files\mainline\SRC_2014\Metin2Client\eterPythonLib\PythonWindowManager.h
; File D:\Metin2 Server Files\mainline\SRC_2014\Metin2Client\eterPythonLib\PythonWindowManagerModule.cpp
;	COMDAT ?wndMgrIsPickedWindow@@YAPAU_object@@PAU1@0@Z
_TEXT	SEGMENT
_pPickedWin$ = -16					; size = 4
_pWin$ = -12						; size = 4
$T1 = -8						; size = 4
tv77 = -4						; size = 4
_poSelf$ = 8						; size = 4
_poArgs$ = 12						; size = 4
?wndMgrIsPickedWindow@@YAPAU_object@@PAU1@0@Z PROC	; wndMgrIsPickedWindow, COMDAT

; 616  : {

  00000	55		 push	 ebp
  00001	8b ec		 mov	 ebp, esp
  00003	83 ec 10	 sub	 esp, 16			; 00000010H

; 617  : 	UI::CWindow * pWin;
; 618  : 	if (!PyTuple_GetWindow(poArgs, 0, &pWin))

  00006	8d 45 f4	 lea	 eax, DWORD PTR _pWin$[ebp]
  00009	50		 push	 eax
  0000a	6a 00		 push	 0
  0000c	ff 75 0c	 push	 DWORD PTR _poArgs$[ebp]
  0000f	e8 00 00 00 00	 call	 ?PyTuple_GetWindow@@YA_NPAU_object@@HPAPAVCWindow@UI@@@Z ; PyTuple_GetWindow
  00014	83 c4 0c	 add	 esp, 12			; 0000000cH
  00017	0f b6 c0	 movzx	 eax, al
  0001a	85 c0		 test	 eax, eax
  0001c	75 0a		 jne	 SHORT $LN2@wndMgrIsPi

; 619  : 		return Py_BuildException();

  0001e	6a 00		 push	 0
  00020	e8 00 00 00 00	 call	 ?Py_BuildException@@YAPAU_object@@PBDZZ ; Py_BuildException
  00025	59		 pop	 ecx
  00026	eb 36		 jmp	 SHORT $LN1@wndMgrIsPi
$LN2@wndMgrIsPi:
; File D:\Metin2 Server Files\mainline\SRC_2014\Metin2Client\eterBase\Singleton.h

; 27   : 		return (*ms_singleton);

  00028	a1 00 00 00 00	 mov	 eax, DWORD PTR ?ms_singleton@?$CSingleton@VCWindowManager@UI@@@@0PAVCWindowManager@UI@@A ; CSingleton<UI::CWindowManager>::ms_singleton
  0002d	89 45 f8	 mov	 DWORD PTR $T1[ebp], eax
; File D:\Metin2 Server Files\mainline\SRC_2014\Metin2Client\eterPythonLib\PythonWindowManager.h

; 37   : 			CWindow *	GetPointWindow()	{ return m_pPointWindow; }

  00030	8b 45 f8	 mov	 eax, DWORD PTR $T1[ebp]
  00033	8b 40 64	 mov	 eax, DWORD PTR [eax+100]
  00036	89 45 f0	 mov	 DWORD PTR _pPickedWin$[ebp], eax
; File D:\Metin2 Server Files\mainline\SRC_2014\Metin2Client\eterPythonLib\PythonWindowManagerModule.cpp

; 622  : 	return Py_BuildValue("i", pWin == pPickedWin ? 1 : 0);

  00039	8b 45 f4	 mov	 eax, DWORD PTR _pWin$[ebp]
  0003c	3b 45 f0	 cmp	 eax, DWORD PTR _pPickedWin$[ebp]
  0003f	75 09		 jne	 SHORT $LN4@wndMgrIsPi
  00041	c7 45 fc 01 00
	00 00		 mov	 DWORD PTR tv77[ebp], 1
  00048	eb 04		 jmp	 SHORT $LN5@wndMgrIsPi
$LN4@wndMgrIsPi:
  0004a	83 65 fc 00	 and	 DWORD PTR tv77[ebp], 0
$LN5@wndMgrIsPi:
  0004e	ff 75 fc	 push	 DWORD PTR tv77[ebp]
  00051	68 00 00 00 00	 push	 OFFSET ??_C@_01KBJDNOO@i@
  00056	ff 15 00 00 00
	00		 call	 DWORD PTR __imp__Py_BuildValue
  0005c	59		 pop	 ecx
  0005d	59		 pop	 ecx
$LN1@wndMgrIsPi:

; 623  : }

  0005e	c9		 leave
  0005f	c3		 ret	 0
?wndMgrIsPickedWindow@@YAPAU_object@@PAU1@0@Z ENDP	; wndMgrIsPickedWindow
_TEXT	ENDS
; Function compile flags: /Odspy
; File D:\Metin2 Server Files\mainline\SRC_2014\Metin2Client\eterPythonLib\PythonWindowManagerModule.cpp
; File D:\Metin2 Server Files\mainline\SRC_2014\Metin2Client\eterBase\Singleton.h
; File D:\Metin2 Server Files\mainline\SRC_2014\Metin2Client\eterPythonLib\PythonWindowManagerModule.cpp
;	COMDAT ?wndMgrIsDragging@@YAPAU_object@@PAU1@0@Z
_TEXT	SEGMENT
$T1 = -4						; size = 4
_poSelf$ = 8						; size = 4
_poArgs$ = 12						; size = 4
?wndMgrIsDragging@@YAPAU_object@@PAU1@0@Z PROC		; wndMgrIsDragging, COMDAT

; 611  : {

  00000	55		 push	 ebp
  00001	8b ec		 mov	 ebp, esp
  00003	51		 push	 ecx
; File D:\Metin2 Server Files\mainline\SRC_2014\Metin2Client\eterBase\Singleton.h

; 27   : 		return (*ms_singleton);

  00004	a1 00 00 00 00	 mov	 eax, DWORD PTR ?ms_singleton@?$CSingleton@VCWindowManager@UI@@@@0PAVCWindowManager@UI@@A ; CSingleton<UI::CWindowManager>::ms_singleton
  00009	89 45 fc	 mov	 DWORD PTR $T1[ebp], eax
; File D:\Metin2 Server Files\mainline\SRC_2014\Metin2Client\eterPythonLib\PythonWindowManagerModule.cpp

; 612  : 	return Py_BuildValue("i", UI::CWindowManager::Instance().IsDragging());

  0000c	8b 4d fc	 mov	 ecx, DWORD PTR $T1[ebp]
  0000f	e8 00 00 00 00	 call	 ?IsDragging@CWindowManager@UI@@QAEHXZ ; UI::CWindowManager::IsDragging
  00014	50		 push	 eax
  00015	68 00 00 00 00	 push	 OFFSET ??_C@_01KBJDNOO@i@
  0001a	ff 15 00 00 00
	00		 call	 DWORD PTR __imp__Py_BuildValue
  00020	59		 pop	 ecx
  00021	59		 pop	 ecx

; 613  : }

  00022	c9		 leave
  00023	c3		 ret	 0
?wndMgrIsDragging@@YAPAU_object@@PAU1@0@Z ENDP		; wndMgrIsDragging
_TEXT	ENDS
; Function compile flags: /Odspy
; File D:\Metin2 Server Files\mainline\SRC_2014\Metin2Client\eterPythonLib\PythonWindowManagerModule.cpp
;	COMDAT ?wndMgrGetMousePosition@@YAPAU_object@@PAU1@0@Z
_TEXT	SEGMENT
_lx$ = -8						; size = 4
_ly$ = -4						; size = 4
_poSelf$ = 8						; size = 4
_poArgs$ = 12						; size = 4
?wndMgrGetMousePosition@@YAPAU_object@@PAU1@0@Z PROC	; wndMgrGetMousePosition, COMDAT

; 604  : {

  00000	55		 push	 ebp
  00001	8b ec		 mov	 ebp, esp
  00003	51		 push	 ecx
  00004	51		 push	 ecx

; 605  : 	long lx, ly;
; 606  : 	UI::CWindowManager::Instance().GetMousePosition(lx, ly);

  00005	8d 45 fc	 lea	 eax, DWORD PTR _ly$[ebp]
  00008	50		 push	 eax
  00009	8d 45 f8	 lea	 eax, DWORD PTR _lx$[ebp]
  0000c	50		 push	 eax
  0000d	8b 0d 00 00 00
	00		 mov	 ecx, DWORD PTR ?ms_singleton@?$CSingleton@VCWindowManager@UI@@@@0PAVCWindowManager@UI@@A ; CSingleton<UI::CWindowManager>::ms_singleton
  00013	e8 00 00 00 00	 call	 ?GetMousePosition@CWindowManager@UI@@QAEXAAJ0@Z ; UI::CWindowManager::GetMousePosition

; 607  : 	return Py_BuildValue("ii", lx, ly);

  00018	ff 75 fc	 push	 DWORD PTR _ly$[ebp]
  0001b	ff 75 f8	 push	 DWORD PTR _lx$[ebp]
  0001e	68 00 00 00 00	 push	 OFFSET ??_C@_02PDIHAGKM@ii@
  00023	ff 15 00 00 00
	00		 call	 DWORD PTR __imp__Py_BuildValue
  00029	83 c4 0c	 add	 esp, 12			; 0000000cH

; 608  : }

  0002c	c9		 leave
  0002d	c3		 ret	 0
?wndMgrGetMousePosition@@YAPAU_object@@PAU1@0@Z ENDP	; wndMgrGetMousePosition
_TEXT	ENDS
; Function compile flags: /Odspy
; File D:\Metin2 Server Files\mainline\SRC_2014\Metin2Client\eterPythonLib\PythonWindowManagerModule.cpp
; File D:\Metin2 Server Files\mainline\SRC_2014\Metin2Client\eterBase\Singleton.h
; File D:\Metin2 Server Files\mainline\SRC_2014\Metin2Client\eterPythonLib\PythonWindowManager.h
; File D:\Metin2 Server Files\mainline\SRC_2014\Metin2Client\eterPythonLib\PythonWindowManagerModule.cpp
;	COMDAT ?wndMgrGetScreenHeight@@YAPAU_object@@PAU1@0@Z
_TEXT	SEGMENT
$T1 = -8						; size = 4
$T2 = -4						; size = 4
_poSelf$ = 8						; size = 4
_poArgs$ = 12						; size = 4
?wndMgrGetScreenHeight@@YAPAU_object@@PAU1@0@Z PROC	; wndMgrGetScreenHeight, COMDAT

; 599  : {

  00000	55		 push	 ebp
  00001	8b ec		 mov	 ebp, esp
  00003	51		 push	 ecx
  00004	51		 push	 ecx
; File D:\Metin2 Server Files\mainline\SRC_2014\Metin2Client\eterBase\Singleton.h

; 27   : 		return (*ms_singleton);

  00005	a1 00 00 00 00	 mov	 eax, DWORD PTR ?ms_singleton@?$CSingleton@VCWindowManager@UI@@@@0PAVCWindowManager@UI@@A ; CSingleton<UI::CWindowManager>::ms_singleton
  0000a	89 45 fc	 mov	 DWORD PTR $T2[ebp], eax
; File D:\Metin2 Server Files\mainline\SRC_2014\Metin2Client\eterPythonLib\PythonWindowManager.h

; 32   : 			long		GetScreenHeight()		{ return m_lHeight; }

  0000d	8b 45 fc	 mov	 eax, DWORD PTR $T2[ebp]
  00010	8b 40 08	 mov	 eax, DWORD PTR [eax+8]
  00013	89 45 f8	 mov	 DWORD PTR $T1[ebp], eax
; File D:\Metin2 Server Files\mainline\SRC_2014\Metin2Client\eterPythonLib\PythonWindowManagerModule.cpp

; 600  : 	return Py_BuildValue("i", UI::CWindowManager::Instance().GetScreenHeight());

  00016	ff 75 f8	 push	 DWORD PTR $T1[ebp]
  00019	68 00 00 00 00	 push	 OFFSET ??_C@_01KBJDNOO@i@
  0001e	ff 15 00 00 00
	00		 call	 DWORD PTR __imp__Py_BuildValue
  00024	59		 pop	 ecx
  00025	59		 pop	 ecx

; 601  : }

  00026	c9		 leave
  00027	c3		 ret	 0
?wndMgrGetScreenHeight@@YAPAU_object@@PAU1@0@Z ENDP	; wndMgrGetScreenHeight
_TEXT	ENDS
; Function compile flags: /Odspy
; File D:\Metin2 Server Files\mainline\SRC_2014\Metin2Client\eterPythonLib\PythonWindowManagerModule.cpp
; File D:\Metin2 Server Files\mainline\SRC_2014\Metin2Client\eterBase\Singleton.h
; File D:\Metin2 Server Files\mainline\SRC_2014\Metin2Client\eterPythonLib\PythonWindowManager.h
; File D:\Metin2 Server Files\mainline\SRC_2014\Metin2Client\eterPythonLib\PythonWindowManagerModule.cpp
;	COMDAT ?wndMgrGetScreenWidth@@YAPAU_object@@PAU1@0@Z
_TEXT	SEGMENT
$T1 = -8						; size = 4
$T2 = -4						; size = 4
_poSelf$ = 8						; size = 4
_poArgs$ = 12						; size = 4
?wndMgrGetScreenWidth@@YAPAU_object@@PAU1@0@Z PROC	; wndMgrGetScreenWidth, COMDAT

; 594  : {

  00000	55		 push	 ebp
  00001	8b ec		 mov	 ebp, esp
  00003	51		 push	 ecx
  00004	51		 push	 ecx
; File D:\Metin2 Server Files\mainline\SRC_2014\Metin2Client\eterBase\Singleton.h

; 27   : 		return (*ms_singleton);

  00005	a1 00 00 00 00	 mov	 eax, DWORD PTR ?ms_singleton@?$CSingleton@VCWindowManager@UI@@@@0PAVCWindowManager@UI@@A ; CSingleton<UI::CWindowManager>::ms_singleton
  0000a	89 45 fc	 mov	 DWORD PTR $T2[ebp], eax
; File D:\Metin2 Server Files\mainline\SRC_2014\Metin2Client\eterPythonLib\PythonWindowManager.h

; 31   : 			long		GetScreenWidth()		{ return m_lWidth; }

  0000d	8b 45 fc	 mov	 eax, DWORD PTR $T2[ebp]
  00010	8b 40 04	 mov	 eax, DWORD PTR [eax+4]
  00013	89 45 f8	 mov	 DWORD PTR $T1[ebp], eax
; File D:\Metin2 Server Files\mainline\SRC_2014\Metin2Client\eterPythonLib\PythonWindowManagerModule.cpp

; 595  : 	return Py_BuildValue("i", UI::CWindowManager::Instance().GetScreenWidth());

  00016	ff 75 f8	 push	 DWORD PTR $T1[ebp]
  00019	68 00 00 00 00	 push	 OFFSET ??_C@_01KBJDNOO@i@
  0001e	ff 15 00 00 00
	00		 call	 DWORD PTR __imp__Py_BuildValue
  00024	59		 pop	 ecx
  00025	59		 pop	 ecx

; 596  : }

  00026	c9		 leave
  00027	c3		 ret	 0
?wndMgrGetScreenWidth@@YAPAU_object@@PAU1@0@Z ENDP	; wndMgrGetScreenWidth
_TEXT	ENDS
; Function compile flags: /Odspy
; File D:\Metin2 Server Files\mainline\SRC_2014\Metin2Client\eterPythonLib\PythonWindowManagerModule.cpp
;	COMDAT ?wndMgrGetHyperlink@@YAPAU_object@@PAU1@0@Z
_TEXT	SEGMENT
_retLen$ = -128						; size = 4
$T1 = -124						; size = 4
_retBuf$ = -120						; size = 1024
__$ArrayPad$ = 904					; size = 4
_poSelf$ = 916						; size = 4
_poArgs$ = 920						; size = 4
?wndMgrGetHyperlink@@YAPAU_object@@PAU1@0@Z PROC	; wndMgrGetHyperlink, COMDAT

; 585  : {

  00000	55		 push	 ebp
  00001	8d ac 24 74 fc
	ff ff		 lea	 ebp, DWORD PTR [esp-908]
  00008	81 ec 0c 04 00
	00		 sub	 esp, 1036		; 0000040cH
  0000e	a1 00 00 00 00	 mov	 eax, DWORD PTR ___security_cookie
  00013	33 c5		 xor	 eax, ebp
  00015	89 85 88 03 00
	00		 mov	 DWORD PTR __$ArrayPad$[ebp], eax

; 586  : 	char retBuf[1024];
; 587  : 	int retLen = CGraphicTextInstance::Hyperlink_GetText(retBuf, sizeof(retBuf)-1);

  0001b	68 ff 03 00 00	 push	 1023			; 000003ffH
  00020	8d 45 88	 lea	 eax, DWORD PTR _retBuf$[ebp]
  00023	50		 push	 eax
  00024	e8 00 00 00 00	 call	 ?Hyperlink_GetText@CGraphicTextInstance@@SAHPADH@Z ; CGraphicTextInstance::Hyperlink_GetText
  00029	59		 pop	 ecx
  0002a	59		 pop	 ecx
  0002b	89 45 80	 mov	 DWORD PTR _retLen$[ebp], eax

; 588  : 	retBuf[retLen] = '\0';

  0002e	8b 45 80	 mov	 eax, DWORD PTR _retLen$[ebp]
  00031	89 45 84	 mov	 DWORD PTR $T1[ebp], eax
  00034	81 7d 84 00 04
	00 00		 cmp	 DWORD PTR $T1[ebp], 1024 ; 00000400H
  0003b	73 02		 jae	 SHORT $LN3@wndMgrGetH
  0003d	eb 05		 jmp	 SHORT $LN4@wndMgrGetH
$LN3@wndMgrGetH:
  0003f	e8 00 00 00 00	 call	 ___report_rangecheckfailure
$LN4@wndMgrGetH:
  00044	8b 45 84	 mov	 eax, DWORD PTR $T1[ebp]
  00047	c6 44 05 88 00	 mov	 BYTE PTR _retBuf$[ebp+eax], 0

; 589  : 
; 590  : 	return Py_BuildValue("s#", retBuf, retLen);

  0004c	ff 75 80	 push	 DWORD PTR _retLen$[ebp]
  0004f	8d 45 88	 lea	 eax, DWORD PTR _retBuf$[ebp]
  00052	50		 push	 eax
  00053	68 00 00 00 00	 push	 OFFSET ??_C@_02OIKAIHIF@s?$CD@
  00058	ff 15 00 00 00
	00		 call	 DWORD PTR __imp__Py_BuildValue
  0005e	83 c4 0c	 add	 esp, 12			; 0000000cH
$LN2@wndMgrGetH:

; 591  : }

  00061	8b 8d 88 03 00
	00		 mov	 ecx, DWORD PTR __$ArrayPad$[ebp]
  00067	33 cd		 xor	 ecx, ebp
  00069	e8 00 00 00 00	 call	 @__security_check_cookie@4
  0006e	81 c5 8c 03 00
	00		 add	 ebp, 908		; 0000038cH
  00074	c9		 leave
  00075	c3		 ret	 0
?wndMgrGetHyperlink@@YAPAU_object@@PAU1@0@Z ENDP	; wndMgrGetHyperlink
_TEXT	ENDS
; Function compile flags: /Odspy
; File D:\Metin2 Server Files\mainline\SRC_2014\Metin2Client\eterPythonLib\PythonWindowManagerModule.cpp
;	COMDAT ?wndMgrGetMouseLocalPosition@@YAPAU_object@@PAU1@0@Z
_TEXT	SEGMENT
_lx$ = -12						; size = 4
_ly$ = -8						; size = 4
_pWin$ = -4						; size = 4
_poSelf$ = 8						; size = 4
_poArgs$ = 12						; size = 4
?wndMgrGetMouseLocalPosition@@YAPAU_object@@PAU1@0@Z PROC ; wndMgrGetMouseLocalPosition, COMDAT

; 574  : {

  00000	55		 push	 ebp
  00001	8b ec		 mov	 ebp, esp
  00003	83 ec 0c	 sub	 esp, 12			; 0000000cH

; 575  : 	UI::CWindow * pWin;
; 576  : 	if (!PyTuple_GetWindow(poArgs, 0, &pWin))

  00006	8d 45 fc	 lea	 eax, DWORD PTR _pWin$[ebp]
  00009	50		 push	 eax
  0000a	6a 00		 push	 0
  0000c	ff 75 0c	 push	 DWORD PTR _poArgs$[ebp]
  0000f	e8 00 00 00 00	 call	 ?PyTuple_GetWindow@@YA_NPAU_object@@HPAPAVCWindow@UI@@@Z ; PyTuple_GetWindow
  00014	83 c4 0c	 add	 esp, 12			; 0000000cH
  00017	0f b6 c0	 movzx	 eax, al
  0001a	85 c0		 test	 eax, eax
  0001c	75 0a		 jne	 SHORT $LN2@wndMgrGetM

; 577  : 		return Py_BuildException();

  0001e	6a 00		 push	 0
  00020	e8 00 00 00 00	 call	 ?Py_BuildException@@YAPAU_object@@PBDZZ ; Py_BuildException
  00025	59		 pop	 ecx
  00026	eb 24		 jmp	 SHORT $LN1@wndMgrGetM
$LN2@wndMgrGetM:

; 578  : 
; 579  : 	long lx, ly;
; 580  : 	pWin->GetMouseLocalPosition(lx, ly);

  00028	8d 45 f8	 lea	 eax, DWORD PTR _ly$[ebp]
  0002b	50		 push	 eax
  0002c	8d 45 f4	 lea	 eax, DWORD PTR _lx$[ebp]
  0002f	50		 push	 eax
  00030	8b 4d fc	 mov	 ecx, DWORD PTR _pWin$[ebp]
  00033	e8 00 00 00 00	 call	 ?GetMouseLocalPosition@CWindow@UI@@QAEXAAJ0@Z ; UI::CWindow::GetMouseLocalPosition

; 581  : 	return Py_BuildValue("ii", lx, ly);

  00038	ff 75 f8	 push	 DWORD PTR _ly$[ebp]
  0003b	ff 75 f4	 push	 DWORD PTR _lx$[ebp]
  0003e	68 00 00 00 00	 push	 OFFSET ??_C@_02PDIHAGKM@ii@
  00043	ff 15 00 00 00
	00		 call	 DWORD PTR __imp__Py_BuildValue
  00049	83 c4 0c	 add	 esp, 12			; 0000000cH
$LN1@wndMgrGetM:

; 582  : }

  0004c	c9		 leave
  0004d	c3		 ret	 0
?wndMgrGetMouseLocalPosition@@YAPAU_object@@PAU1@0@Z ENDP ; wndMgrGetMouseLocalPosition
_TEXT	ENDS
; Function compile flags: /Odspy
; File D:\Metin2 Server Files\mainline\SRC_2014\Metin2Client\eterPythonLib\PythonWindowManagerModule.cpp
; File D:\Metin2 Server Files\mainline\SRC_2014\Metin2Client\eterBase\Singleton.h
; File D:\Metin2 Server Files\mainline\SRC_2014\Metin2Client\eterPythonLib\PythonWindowManager.h
; File D:\Metin2 Server Files\mainline\SRC_2014\Metin2Client\eterPythonLib\PythonWindowManagerModule.cpp
;	COMDAT ?wndMgrIsIn@@YAPAU_object@@PAU1@0@Z
_TEXT	SEGMENT
$T1 = -16						; size = 4
_pWin$ = -12						; size = 4
$T2 = -8						; size = 4
tv77 = -4						; size = 4
_poSelf$ = 8						; size = 4
_poArgs$ = 12						; size = 4
?wndMgrIsIn@@YAPAU_object@@PAU1@0@Z PROC		; wndMgrIsIn, COMDAT

; 565  : {

  00000	55		 push	 ebp
  00001	8b ec		 mov	 ebp, esp
  00003	83 ec 10	 sub	 esp, 16			; 00000010H

; 566  : 	UI::CWindow * pWin;
; 567  : 	if (!PyTuple_GetWindow(poArgs, 0, &pWin))

  00006	8d 45 f4	 lea	 eax, DWORD PTR _pWin$[ebp]
  00009	50		 push	 eax
  0000a	6a 00		 push	 0
  0000c	ff 75 0c	 push	 DWORD PTR _poArgs$[ebp]
  0000f	e8 00 00 00 00	 call	 ?PyTuple_GetWindow@@YA_NPAU_object@@HPAPAVCWindow@UI@@@Z ; PyTuple_GetWindow
  00014	83 c4 0c	 add	 esp, 12			; 0000000cH
  00017	0f b6 c0	 movzx	 eax, al
  0001a	85 c0		 test	 eax, eax
  0001c	75 0a		 jne	 SHORT $LN2@wndMgrIsIn

; 568  : 		return Py_BuildException();

  0001e	6a 00		 push	 0
  00020	e8 00 00 00 00	 call	 ?Py_BuildException@@YAPAU_object@@PBDZZ ; Py_BuildException
  00025	59		 pop	 ecx
  00026	eb 36		 jmp	 SHORT $LN1@wndMgrIsIn
$LN2@wndMgrIsIn:
; File D:\Metin2 Server Files\mainline\SRC_2014\Metin2Client\eterBase\Singleton.h

; 27   : 		return (*ms_singleton);

  00028	a1 00 00 00 00	 mov	 eax, DWORD PTR ?ms_singleton@?$CSingleton@VCWindowManager@UI@@@@0PAVCWindowManager@UI@@A ; CSingleton<UI::CWindowManager>::ms_singleton
  0002d	89 45 f8	 mov	 DWORD PTR $T2[ebp], eax
; File D:\Metin2 Server Files\mainline\SRC_2014\Metin2Client\eterPythonLib\PythonWindowManager.h

; 37   : 			CWindow *	GetPointWindow()	{ return m_pPointWindow; }

  00030	8b 45 f8	 mov	 eax, DWORD PTR $T2[ebp]
  00033	8b 40 64	 mov	 eax, DWORD PTR [eax+100]
  00036	89 45 f0	 mov	 DWORD PTR $T1[ebp], eax
; File D:\Metin2 Server Files\mainline\SRC_2014\Metin2Client\eterPythonLib\PythonWindowManagerModule.cpp

; 570  : 	return Py_BuildValue("i", pWin == UI::CWindowManager::Instance().GetPointWindow());

  00039	8b 45 f4	 mov	 eax, DWORD PTR _pWin$[ebp]
  0003c	3b 45 f0	 cmp	 eax, DWORD PTR $T1[ebp]
  0003f	75 09		 jne	 SHORT $LN4@wndMgrIsIn
  00041	c7 45 fc 01 00
	00 00		 mov	 DWORD PTR tv77[ebp], 1
  00048	eb 04		 jmp	 SHORT $LN5@wndMgrIsIn
$LN4@wndMgrIsIn:
  0004a	83 65 fc 00	 and	 DWORD PTR tv77[ebp], 0
$LN5@wndMgrIsIn:
  0004e	ff 75 fc	 push	 DWORD PTR tv77[ebp]
  00051	68 00 00 00 00	 push	 OFFSET ??_C@_01KBJDNOO@i@
  00056	ff 15 00 00 00
	00		 call	 DWORD PTR __imp__Py_BuildValue
  0005c	59		 pop	 ecx
  0005d	59		 pop	 ecx
$LN1@wndMgrIsIn:

; 571  : }

  0005e	c9		 leave
  0005f	c3		 ret	 0
?wndMgrIsIn@@YAPAU_object@@PAU1@0@Z ENDP		; wndMgrIsIn
_TEXT	ENDS
; Function compile flags: /Odspy
; File D:\Metin2 Server Files\mainline\SRC_2014\Metin2Client\eterPythonLib\PythonWindowManagerModule.cpp
;	COMDAT ?wndMgrSetWindowVerticalAlign@@YAPAU_object@@PAU1@0@Z
_TEXT	SEGMENT
_pWin$ = -8						; size = 4
_iAlign$ = -4						; size = 4
_poSelf$ = 8						; size = 4
_poArgs$ = 12						; size = 4
?wndMgrSetWindowVerticalAlign@@YAPAU_object@@PAU1@0@Z PROC ; wndMgrSetWindowVerticalAlign, COMDAT

; 551  : {

  00000	55		 push	 ebp
  00001	8b ec		 mov	 ebp, esp
  00003	51		 push	 ecx
  00004	51		 push	 ecx

; 552  : 	UI::CWindow * pWin;
; 553  : 	if (!PyTuple_GetWindow(poArgs, 0, &pWin))

  00005	8d 45 f8	 lea	 eax, DWORD PTR _pWin$[ebp]
  00008	50		 push	 eax
  00009	6a 00		 push	 0
  0000b	ff 75 0c	 push	 DWORD PTR _poArgs$[ebp]
  0000e	e8 00 00 00 00	 call	 ?PyTuple_GetWindow@@YA_NPAU_object@@HPAPAVCWindow@UI@@@Z ; PyTuple_GetWindow
  00013	83 c4 0c	 add	 esp, 12			; 0000000cH
  00016	0f b6 c0	 movzx	 eax, al
  00019	85 c0		 test	 eax, eax
  0001b	75 0a		 jne	 SHORT $LN2@wndMgrSetW

; 554  : 		return Py_BuildException();

  0001d	6a 00		 push	 0
  0001f	e8 00 00 00 00	 call	 ?Py_BuildException@@YAPAU_object@@PBDZZ ; Py_BuildException
  00024	59		 pop	 ecx
  00025	eb 32		 jmp	 SHORT $LN1@wndMgrSetW
$LN2@wndMgrSetW:

; 555  : 	int iAlign;
; 556  : 	if (!PyTuple_GetInteger(poArgs, 1, &iAlign))

  00027	8d 45 fc	 lea	 eax, DWORD PTR _iAlign$[ebp]
  0002a	50		 push	 eax
  0002b	6a 01		 push	 1
  0002d	ff 75 0c	 push	 DWORD PTR _poArgs$[ebp]
  00030	e8 00 00 00 00	 call	 ?PyTuple_GetInteger@@YA_NPAU_object@@HPAH@Z ; PyTuple_GetInteger
  00035	83 c4 0c	 add	 esp, 12			; 0000000cH
  00038	0f b6 c0	 movzx	 eax, al
  0003b	85 c0		 test	 eax, eax
  0003d	75 0a		 jne	 SHORT $LN3@wndMgrSetW

; 557  : 		return Py_BuildException();

  0003f	6a 00		 push	 0
  00041	e8 00 00 00 00	 call	 ?Py_BuildException@@YAPAU_object@@PBDZZ ; Py_BuildException
  00046	59		 pop	 ecx
  00047	eb 10		 jmp	 SHORT $LN1@wndMgrSetW
$LN3@wndMgrSetW:

; 558  : 
; 559  : 	pWin->SetVerticalAlign(iAlign);

  00049	ff 75 fc	 push	 DWORD PTR _iAlign$[ebp]
  0004c	8b 4d f8	 mov	 ecx, DWORD PTR _pWin$[ebp]
  0004f	e8 00 00 00 00	 call	 ?SetVerticalAlign@CWindow@UI@@QAEXK@Z ; UI::CWindow::SetVerticalAlign

; 560  : 
; 561  : 	return Py_BuildNone();

  00054	e8 00 00 00 00	 call	 ?Py_BuildNone@@YAPAU_object@@XZ ; Py_BuildNone
$LN1@wndMgrSetW:

; 562  : }

  00059	c9		 leave
  0005a	c3		 ret	 0
?wndMgrSetWindowVerticalAlign@@YAPAU_object@@PAU1@0@Z ENDP ; wndMgrSetWindowVerticalAlign
_TEXT	ENDS
; Function compile flags: /Odspy
; File D:\Metin2 Server Files\mainline\SRC_2014\Metin2Client\eterPythonLib\PythonWindowManagerModule.cpp
;	COMDAT ?wndMgrSetWindowHorizontalAlign@@YAPAU_object@@PAU1@0@Z
_TEXT	SEGMENT
_pWin$ = -8						; size = 4
_iAlign$ = -4						; size = 4
_poSelf$ = 8						; size = 4
_poArgs$ = 12						; size = 4
?wndMgrSetWindowHorizontalAlign@@YAPAU_object@@PAU1@0@Z PROC ; wndMgrSetWindowHorizontalAlign, COMDAT

; 537  : {

  00000	55		 push	 ebp
  00001	8b ec		 mov	 ebp, esp
  00003	51		 push	 ecx
  00004	51		 push	 ecx

; 538  : 	UI::CWindow * pWin;
; 539  : 	if (!PyTuple_GetWindow(poArgs, 0, &pWin))

  00005	8d 45 f8	 lea	 eax, DWORD PTR _pWin$[ebp]
  00008	50		 push	 eax
  00009	6a 00		 push	 0
  0000b	ff 75 0c	 push	 DWORD PTR _poArgs$[ebp]
  0000e	e8 00 00 00 00	 call	 ?PyTuple_GetWindow@@YA_NPAU_object@@HPAPAVCWindow@UI@@@Z ; PyTuple_GetWindow
  00013	83 c4 0c	 add	 esp, 12			; 0000000cH
  00016	0f b6 c0	 movzx	 eax, al
  00019	85 c0		 test	 eax, eax
  0001b	75 0a		 jne	 SHORT $LN2@wndMgrSetW

; 540  : 		return Py_BuildException();

  0001d	6a 00		 push	 0
  0001f	e8 00 00 00 00	 call	 ?Py_BuildException@@YAPAU_object@@PBDZZ ; Py_BuildException
  00024	59		 pop	 ecx
  00025	eb 32		 jmp	 SHORT $LN1@wndMgrSetW
$LN2@wndMgrSetW:

; 541  : 	int iAlign;
; 542  : 	if (!PyTuple_GetInteger(poArgs, 1, &iAlign))

  00027	8d 45 fc	 lea	 eax, DWORD PTR _iAlign$[ebp]
  0002a	50		 push	 eax
  0002b	6a 01		 push	 1
  0002d	ff 75 0c	 push	 DWORD PTR _poArgs$[ebp]
  00030	e8 00 00 00 00	 call	 ?PyTuple_GetInteger@@YA_NPAU_object@@HPAH@Z ; PyTuple_GetInteger
  00035	83 c4 0c	 add	 esp, 12			; 0000000cH
  00038	0f b6 c0	 movzx	 eax, al
  0003b	85 c0		 test	 eax, eax
  0003d	75 0a		 jne	 SHORT $LN3@wndMgrSetW

; 543  : 		return Py_BuildException();

  0003f	6a 00		 push	 0
  00041	e8 00 00 00 00	 call	 ?Py_BuildException@@YAPAU_object@@PBDZZ ; Py_BuildException
  00046	59		 pop	 ecx
  00047	eb 10		 jmp	 SHORT $LN1@wndMgrSetW
$LN3@wndMgrSetW:

; 544  : 
; 545  : 	pWin->SetHorizontalAlign(iAlign);

  00049	ff 75 fc	 push	 DWORD PTR _iAlign$[ebp]
  0004c	8b 4d f8	 mov	 ecx, DWORD PTR _pWin$[ebp]
  0004f	e8 00 00 00 00	 call	 ?SetHorizontalAlign@CWindow@UI@@QAEXK@Z ; UI::CWindow::SetHorizontalAlign

; 546  : 
; 547  : 	return Py_BuildNone();

  00054	e8 00 00 00 00	 call	 ?Py_BuildNone@@YAPAU_object@@XZ ; Py_BuildNone
$LN1@wndMgrSetW:

; 548  : }

  00059	c9		 leave
  0005a	c3		 ret	 0
?wndMgrSetWindowHorizontalAlign@@YAPAU_object@@PAU1@0@Z ENDP ; wndMgrSetWindowHorizontalAlign
_TEXT	ENDS
; Function compile flags: /Odspy
; File D:\Metin2 Server Files\mainline\SRC_2014\Metin2Client\eterPythonLib\PythonWindowManagerModule.cpp
; File D:\Metin2 Server Files\mainline\SRC_2014\Metin2Client\eterPythonLib\PythonWindow.h
; File D:\Metin2 Server Files\mainline\SRC_2014\Metin2Client\eterPythonLib\PythonWindowManagerModule.cpp
;	COMDAT ?wndMgrGetWindowRect@@YAPAU_object@@PAU1@0@Z
_TEXT	SEGMENT
_pWin$ = -8						; size = 4
_rRect$ = -4						; size = 4
_poSelf$ = 8						; size = 4
_poArgs$ = 12						; size = 4
?wndMgrGetWindowRect@@YAPAU_object@@PAU1@0@Z PROC	; wndMgrGetWindowRect, COMDAT

; 527  : {

  00000	55		 push	 ebp
  00001	8b ec		 mov	 ebp, esp
  00003	51		 push	 ecx
  00004	51		 push	 ecx

; 528  : 	UI::CWindow * pWin;
; 529  : 	if (!PyTuple_GetWindow(poArgs, 0, &pWin))

  00005	8d 45 f8	 lea	 eax, DWORD PTR _pWin$[ebp]
  00008	50		 push	 eax
  00009	6a 00		 push	 0
  0000b	ff 75 0c	 push	 DWORD PTR _poArgs$[ebp]
  0000e	e8 00 00 00 00	 call	 ?PyTuple_GetWindow@@YA_NPAU_object@@HPAPAVCWindow@UI@@@Z ; PyTuple_GetWindow
  00013	83 c4 0c	 add	 esp, 12			; 0000000cH
  00016	0f b6 c0	 movzx	 eax, al
  00019	85 c0		 test	 eax, eax
  0001b	75 0a		 jne	 SHORT $LN4@wndMgrGetW

; 530  : 		return Py_BuildException();

  0001d	6a 00		 push	 0
  0001f	e8 00 00 00 00	 call	 ?Py_BuildException@@YAPAU_object@@PBDZZ ; Py_BuildException
  00024	59		 pop	 ecx
  00025	eb 3b		 jmp	 SHORT $LN1@wndMgrGetW
$LN4@wndMgrGetW:
; File D:\Metin2 Server Files\mainline\SRC_2014\Metin2Client\eterPythonLib\PythonWindow.h

; 68   : 			RECT &			GetRect()		{ return m_rect; }

  00027	8b 45 f8	 mov	 eax, DWORD PTR _pWin$[ebp]
  0002a	83 c0 34	 add	 eax, 52			; 00000034H
; File D:\Metin2 Server Files\mainline\SRC_2014\Metin2Client\eterPythonLib\PythonWindowManagerModule.cpp

; 532  : 	RECT & rRect = pWin->GetRect();

  0002d	89 45 fc	 mov	 DWORD PTR _rRect$[ebp], eax

; 533  : 	return Py_BuildValue("iiii", rRect.left, rRect.top, rRect.right - rRect.left, rRect.bottom - rRect.top);

  00030	8b 45 fc	 mov	 eax, DWORD PTR _rRect$[ebp]
  00033	8b 4d fc	 mov	 ecx, DWORD PTR _rRect$[ebp]
  00036	8b 40 0c	 mov	 eax, DWORD PTR [eax+12]
  00039	2b 41 04	 sub	 eax, DWORD PTR [ecx+4]
  0003c	50		 push	 eax
  0003d	8b 45 fc	 mov	 eax, DWORD PTR _rRect$[ebp]
  00040	8b 4d fc	 mov	 ecx, DWORD PTR _rRect$[ebp]
  00043	8b 40 08	 mov	 eax, DWORD PTR [eax+8]
  00046	2b 01		 sub	 eax, DWORD PTR [ecx]
  00048	50		 push	 eax
  00049	8b 45 fc	 mov	 eax, DWORD PTR _rRect$[ebp]
  0004c	ff 70 04	 push	 DWORD PTR [eax+4]
  0004f	8b 45 fc	 mov	 eax, DWORD PTR _rRect$[ebp]
  00052	ff 30		 push	 DWORD PTR [eax]
  00054	68 00 00 00 00	 push	 OFFSET ??_C@_04BIOIIFBG@iiii@
  00059	ff 15 00 00 00
	00		 call	 DWORD PTR __imp__Py_BuildValue
  0005f	83 c4 14	 add	 esp, 20			; 00000014H
$LN1@wndMgrGetW:

; 534  : }

  00062	c9		 leave
  00063	c3		 ret	 0
?wndMgrGetWindowRect@@YAPAU_object@@PAU1@0@Z ENDP	; wndMgrGetWindowRect
_TEXT	ENDS
; Function compile flags: /Odspy
; File D:\Metin2 Server Files\mainline\SRC_2014\Metin2Client\eterPythonLib\PythonWindowManagerModule.cpp
; File D:\Metin2 Server Files\mainline\SRC_2014\Metin2Client\eterPythonLib\PythonWindow.h
; File D:\Metin2 Server Files\mainline\SRC_2014\Metin2Client\eterPythonLib\PythonWindowManagerModule.cpp
;	COMDAT ?wndMgrGetWndGlobalPosition@@YAPAU_object@@PAU1@0@Z
_TEXT	SEGMENT
_pWindow$ = -8						; size = 4
_rRect$ = -4						; size = 4
_poSelf$ = 8						; size = 4
_poArgs$ = 12						; size = 4
?wndMgrGetWndGlobalPosition@@YAPAU_object@@PAU1@0@Z PROC ; wndMgrGetWndGlobalPosition, COMDAT

; 517  : {

  00000	55		 push	 ebp
  00001	8b ec		 mov	 ebp, esp
  00003	51		 push	 ecx
  00004	51		 push	 ecx

; 518  : 	UI::CWindow * pWindow;
; 519  : 	if (!PyTuple_GetWindow(poArgs, 0, &pWindow))

  00005	8d 45 f8	 lea	 eax, DWORD PTR _pWindow$[ebp]
  00008	50		 push	 eax
  00009	6a 00		 push	 0
  0000b	ff 75 0c	 push	 DWORD PTR _poArgs$[ebp]
  0000e	e8 00 00 00 00	 call	 ?PyTuple_GetWindow@@YA_NPAU_object@@HPAPAVCWindow@UI@@@Z ; PyTuple_GetWindow
  00013	83 c4 0c	 add	 esp, 12			; 0000000cH
  00016	0f b6 c0	 movzx	 eax, al
  00019	85 c0		 test	 eax, eax
  0001b	75 0a		 jne	 SHORT $LN4@wndMgrGetW

; 520  : 		return Py_BuildException();

  0001d	6a 00		 push	 0
  0001f	e8 00 00 00 00	 call	 ?Py_BuildException@@YAPAU_object@@PBDZZ ; Py_BuildException
  00024	59		 pop	 ecx
  00025	eb 22		 jmp	 SHORT $LN1@wndMgrGetW
$LN4@wndMgrGetW:
; File D:\Metin2 Server Files\mainline\SRC_2014\Metin2Client\eterPythonLib\PythonWindow.h

; 68   : 			RECT &			GetRect()		{ return m_rect; }

  00027	8b 45 f8	 mov	 eax, DWORD PTR _pWindow$[ebp]
  0002a	83 c0 34	 add	 eax, 52			; 00000034H
; File D:\Metin2 Server Files\mainline\SRC_2014\Metin2Client\eterPythonLib\PythonWindowManagerModule.cpp

; 522  : 	RECT & rRect = pWindow->GetRect();

  0002d	89 45 fc	 mov	 DWORD PTR _rRect$[ebp], eax

; 523  : 	return Py_BuildValue("ii", rRect.left, rRect.top);

  00030	8b 45 fc	 mov	 eax, DWORD PTR _rRect$[ebp]
  00033	ff 70 04	 push	 DWORD PTR [eax+4]
  00036	8b 45 fc	 mov	 eax, DWORD PTR _rRect$[ebp]
  00039	ff 30		 push	 DWORD PTR [eax]
  0003b	68 00 00 00 00	 push	 OFFSET ??_C@_02PDIHAGKM@ii@
  00040	ff 15 00 00 00
	00		 call	 DWORD PTR __imp__Py_BuildValue
  00046	83 c4 0c	 add	 esp, 12			; 0000000cH
$LN1@wndMgrGetW:

; 524  : }

  00049	c9		 leave
  0004a	c3		 ret	 0
?wndMgrGetWndGlobalPosition@@YAPAU_object@@PAU1@0@Z ENDP ; wndMgrGetWndGlobalPosition
_TEXT	ENDS
; Function compile flags: /Odspy
; File D:\Metin2 Server Files\mainline\SRC_2014\Metin2Client\eterPythonLib\PythonWindowManagerModule.cpp
;	COMDAT ?wndMgrGetWndLocalPosition@@YAPAU_object@@PAU1@0@Z
_TEXT	SEGMENT
_lx$ = -12						; size = 4
_ly$ = -8						; size = 4
_pWin$ = -4						; size = 4
_poSelf$ = 8						; size = 4
_poArgs$ = 12						; size = 4
?wndMgrGetWndLocalPosition@@YAPAU_object@@PAU1@0@Z PROC	; wndMgrGetWndLocalPosition, COMDAT

; 505  : {

  00000	55		 push	 ebp
  00001	8b ec		 mov	 ebp, esp
  00003	83 ec 0c	 sub	 esp, 12			; 0000000cH

; 506  : 	UI::CWindow * pWin;
; 507  : 	if (!PyTuple_GetWindow(poArgs, 0, &pWin))

  00006	8d 45 fc	 lea	 eax, DWORD PTR _pWin$[ebp]
  00009	50		 push	 eax
  0000a	6a 00		 push	 0
  0000c	ff 75 0c	 push	 DWORD PTR _poArgs$[ebp]
  0000f	e8 00 00 00 00	 call	 ?PyTuple_GetWindow@@YA_NPAU_object@@HPAPAVCWindow@UI@@@Z ; PyTuple_GetWindow
  00014	83 c4 0c	 add	 esp, 12			; 0000000cH
  00017	0f b6 c0	 movzx	 eax, al
  0001a	85 c0		 test	 eax, eax
  0001c	75 0a		 jne	 SHORT $LN2@wndMgrGetW

; 508  : 		return Py_BuildException();

  0001e	6a 00		 push	 0
  00020	e8 00 00 00 00	 call	 ?Py_BuildException@@YAPAU_object@@PBDZZ ; Py_BuildException
  00025	59		 pop	 ecx
  00026	eb 24		 jmp	 SHORT $LN1@wndMgrGetW
$LN2@wndMgrGetW:

; 509  : 
; 510  : 	long lx, ly;
; 511  : 	pWin->GetPosition(&lx, &ly);

  00028	8d 45 f8	 lea	 eax, DWORD PTR _ly$[ebp]
  0002b	50		 push	 eax
  0002c	8d 45 f4	 lea	 eax, DWORD PTR _lx$[ebp]
  0002f	50		 push	 eax
  00030	8b 4d fc	 mov	 ecx, DWORD PTR _pWin$[ebp]
  00033	e8 00 00 00 00	 call	 ?GetPosition@CWindow@UI@@QAEXPAJ0@Z ; UI::CWindow::GetPosition

; 512  : 
; 513  : 	return Py_BuildValue("ii", lx, ly);

  00038	ff 75 f8	 push	 DWORD PTR _ly$[ebp]
  0003b	ff 75 f4	 push	 DWORD PTR _lx$[ebp]
  0003e	68 00 00 00 00	 push	 OFFSET ??_C@_02PDIHAGKM@ii@
  00043	ff 15 00 00 00
	00		 call	 DWORD PTR __imp__Py_BuildValue
  00049	83 c4 0c	 add	 esp, 12			; 0000000cH
$LN1@wndMgrGetW:

; 514  : }

  0004c	c9		 leave
  0004d	c3		 ret	 0
?wndMgrGetWndLocalPosition@@YAPAU_object@@PAU1@0@Z ENDP	; wndMgrGetWndLocalPosition
_TEXT	ENDS
; Function compile flags: /Odspy
; File D:\Metin2 Server Files\mainline\SRC_2014\Metin2Client\eterPythonLib\PythonWindowManagerModule.cpp
; File D:\Metin2 Server Files\mainline\SRC_2014\Metin2Client\eterPythonLib\PythonWindow.h
; File D:\Metin2 Server Files\mainline\SRC_2014\Metin2Client\eterPythonLib\PythonWindowManagerModule.cpp
;	COMDAT ?wndMgrGetWndHeight@@YAPAU_object@@PAU1@0@Z
_TEXT	SEGMENT
$T1 = -8						; size = 4
_pWin$ = -4						; size = 4
_poSelf$ = 8						; size = 4
_poArgs$ = 12						; size = 4
?wndMgrGetWndHeight@@YAPAU_object@@PAU1@0@Z PROC	; wndMgrGetWndHeight, COMDAT

; 496  : {

  00000	55		 push	 ebp
  00001	8b ec		 mov	 ebp, esp
  00003	51		 push	 ecx
  00004	51		 push	 ecx

; 497  : 	UI::CWindow * pWin;
; 498  : 	if (!PyTuple_GetWindow(poArgs, 0, &pWin))

  00005	8d 45 fc	 lea	 eax, DWORD PTR _pWin$[ebp]
  00008	50		 push	 eax
  00009	6a 00		 push	 0
  0000b	ff 75 0c	 push	 DWORD PTR _poArgs$[ebp]
  0000e	e8 00 00 00 00	 call	 ?PyTuple_GetWindow@@YA_NPAU_object@@HPAPAVCWindow@UI@@@Z ; PyTuple_GetWindow
  00013	83 c4 0c	 add	 esp, 12			; 0000000cH
  00016	0f b6 c0	 movzx	 eax, al
  00019	85 c0		 test	 eax, eax
  0001b	75 0a		 jne	 SHORT $LN2@wndMgrGetW

; 499  : 		return Py_BuildException();

  0001d	6a 00		 push	 0
  0001f	e8 00 00 00 00	 call	 ?Py_BuildException@@YAPAU_object@@PBDZZ ; Py_BuildException
  00024	59		 pop	 ecx
  00025	eb 19		 jmp	 SHORT $LN1@wndMgrGetW
$LN2@wndMgrGetW:
; File D:\Metin2 Server Files\mainline\SRC_2014\Metin2Client\eterPythonLib\PythonWindow.h

; 60   : 			long			GetHeight()		{ return m_lHeight; }

  00027	8b 45 fc	 mov	 eax, DWORD PTR _pWin$[ebp]
  0002a	8b 40 30	 mov	 eax, DWORD PTR [eax+48]
  0002d	89 45 f8	 mov	 DWORD PTR $T1[ebp], eax
; File D:\Metin2 Server Files\mainline\SRC_2014\Metin2Client\eterPythonLib\PythonWindowManagerModule.cpp

; 501  : 	return Py_BuildValue("i", pWin->GetHeight());

  00030	ff 75 f8	 push	 DWORD PTR $T1[ebp]
  00033	68 00 00 00 00	 push	 OFFSET ??_C@_01KBJDNOO@i@
  00038	ff 15 00 00 00
	00		 call	 DWORD PTR __imp__Py_BuildValue
  0003e	59		 pop	 ecx
  0003f	59		 pop	 ecx
$LN1@wndMgrGetW:

; 502  : }

  00040	c9		 leave
  00041	c3		 ret	 0
?wndMgrGetWndHeight@@YAPAU_object@@PAU1@0@Z ENDP	; wndMgrGetWndHeight
_TEXT	ENDS
; Function compile flags: /Odspy
; File D:\Metin2 Server Files\mainline\SRC_2014\Metin2Client\eterPythonLib\PythonWindowManagerModule.cpp
; File D:\Metin2 Server Files\mainline\SRC_2014\Metin2Client\eterPythonLib\PythonWindow.h
; File D:\Metin2 Server Files\mainline\SRC_2014\Metin2Client\eterPythonLib\PythonWindowManagerModule.cpp
;	COMDAT ?wndMgrGetWndWidth@@YAPAU_object@@PAU1@0@Z
_TEXT	SEGMENT
$T1 = -8						; size = 4
_pWin$ = -4						; size = 4
_poSelf$ = 8						; size = 4
_poArgs$ = 12						; size = 4
?wndMgrGetWndWidth@@YAPAU_object@@PAU1@0@Z PROC		; wndMgrGetWndWidth, COMDAT

; 487  : {

  00000	55		 push	 ebp
  00001	8b ec		 mov	 ebp, esp
  00003	51		 push	 ecx
  00004	51		 push	 ecx

; 488  : 	UI::CWindow * pWin;
; 489  : 	if (!PyTuple_GetWindow(poArgs, 0, &pWin))

  00005	8d 45 fc	 lea	 eax, DWORD PTR _pWin$[ebp]
  00008	50		 push	 eax
  00009	6a 00		 push	 0
  0000b	ff 75 0c	 push	 DWORD PTR _poArgs$[ebp]
  0000e	e8 00 00 00 00	 call	 ?PyTuple_GetWindow@@YA_NPAU_object@@HPAPAVCWindow@UI@@@Z ; PyTuple_GetWindow
  00013	83 c4 0c	 add	 esp, 12			; 0000000cH
  00016	0f b6 c0	 movzx	 eax, al
  00019	85 c0		 test	 eax, eax
  0001b	75 0a		 jne	 SHORT $LN2@wndMgrGetW

; 490  : 		return Py_BuildException();

  0001d	6a 00		 push	 0
  0001f	e8 00 00 00 00	 call	 ?Py_BuildException@@YAPAU_object@@PBDZZ ; Py_BuildException
  00024	59		 pop	 ecx
  00025	eb 19		 jmp	 SHORT $LN1@wndMgrGetW
$LN2@wndMgrGetW:
; File D:\Metin2 Server Files\mainline\SRC_2014\Metin2Client\eterPythonLib\PythonWindow.h

; 59   : 			long			GetWidth()		{ return m_lWidth; }

  00027	8b 45 fc	 mov	 eax, DWORD PTR _pWin$[ebp]
  0002a	8b 40 2c	 mov	 eax, DWORD PTR [eax+44]
  0002d	89 45 f8	 mov	 DWORD PTR $T1[ebp], eax
; File D:\Metin2 Server Files\mainline\SRC_2014\Metin2Client\eterPythonLib\PythonWindowManagerModule.cpp

; 492  : 	return Py_BuildValue("i", pWin->GetWidth());

  00030	ff 75 f8	 push	 DWORD PTR $T1[ebp]
  00033	68 00 00 00 00	 push	 OFFSET ??_C@_01KBJDNOO@i@
  00038	ff 15 00 00 00
	00		 call	 DWORD PTR __imp__Py_BuildValue
  0003e	59		 pop	 ecx
  0003f	59		 pop	 ecx
$LN1@wndMgrGetW:

; 493  : }

  00040	c9		 leave
  00041	c3		 ret	 0
?wndMgrGetWndWidth@@YAPAU_object@@PAU1@0@Z ENDP		; wndMgrGetWndWidth
_TEXT	ENDS
; Function compile flags: /Odspy
; File D:\Metin2 Server Files\mainline\SRC_2014\Metin2Client\eterPythonLib\PythonWindowManagerModule.cpp
; File C:\Program Files (x86)\Microsoft Visual Studio\2019\Community\VC\Tools\MSVC\14.28.29333\include\xstring
; File D:\Metin2 Server Files\mainline\SRC_2014\Metin2Client\eterPythonLib\PythonWindowManagerModule.cpp
;	COMDAT ?wndMgrGetName@@YAPAU_object@@PAU1@0@Z
_TEXT	SEGMENT
$T1 = -12						; size = 4
_this$ = -8						; size = 4
_pWin$ = -4						; size = 4
_poSelf$ = 8						; size = 4
_poArgs$ = 12						; size = 4
?wndMgrGetName@@YAPAU_object@@PAU1@0@Z PROC		; wndMgrGetName, COMDAT

; 478  : {

  00000	55		 push	 ebp
  00001	8b ec		 mov	 ebp, esp
  00003	83 ec 0c	 sub	 esp, 12			; 0000000cH

; 479  : 	UI::CWindow * pWin;
; 480  : 	if (!PyTuple_GetWindow(poArgs, 0, &pWin))

  00006	8d 45 fc	 lea	 eax, DWORD PTR _pWin$[ebp]
  00009	50		 push	 eax
  0000a	6a 00		 push	 0
  0000c	ff 75 0c	 push	 DWORD PTR _poArgs$[ebp]
  0000f	e8 00 00 00 00	 call	 ?PyTuple_GetWindow@@YA_NPAU_object@@HPAPAVCWindow@UI@@@Z ; PyTuple_GetWindow
  00014	83 c4 0c	 add	 esp, 12			; 0000000cH
  00017	0f b6 c0	 movzx	 eax, al
  0001a	85 c0		 test	 eax, eax
  0001c	75 0a		 jne	 SHORT $LN2@wndMgrGetN

; 481  : 		return Py_BuildException();

  0001e	6a 00		 push	 0
  00020	e8 00 00 00 00	 call	 ?Py_BuildException@@YAPAU_object@@PBDZZ ; Py_BuildException
  00025	59		 pop	 ecx
  00026	eb 24		 jmp	 SHORT $LN1@wndMgrGetN
$LN2@wndMgrGetN:

; 483  : 	return Py_BuildValue("s", pWin->GetName());

  00028	8b 45 fc	 mov	 eax, DWORD PTR _pWin$[ebp]
  0002b	89 45 f8	 mov	 DWORD PTR _this$[ebp], eax
; File C:\Program Files (x86)\Microsoft Visual Studio\2019\Community\VC\Tools\MSVC\14.28.29333\include\xstring

; 3752 :         return _Mypair._Myval2._Myptr();

  0002e	8b 4d f8	 mov	 ecx, DWORD PTR _this$[ebp]
  00031	83 c1 04	 add	 ecx, 4
  00034	e8 00 00 00 00	 call	 ?_Myptr@?$_String_val@U?$_Simple_types@D@std@@@std@@QBEPBDXZ ; std::_String_val<std::_Simple_types<char> >::_Myptr
  00039	89 45 f4	 mov	 DWORD PTR $T1[ebp], eax
; File D:\Metin2 Server Files\mainline\SRC_2014\Metin2Client\eterPythonLib\PythonWindowManagerModule.cpp

; 483  : 	return Py_BuildValue("s", pWin->GetName());

  0003c	ff 75 f4	 push	 DWORD PTR $T1[ebp]
  0003f	68 00 00 00 00	 push	 OFFSET ??_C@_01LKDEMHDF@s@
  00044	ff 15 00 00 00
	00		 call	 DWORD PTR __imp__Py_BuildValue
  0004a	59		 pop	 ecx
  0004b	59		 pop	 ecx
$LN1@wndMgrGetN:

; 484  : }

  0004c	c9		 leave
  0004d	c3		 ret	 0
?wndMgrGetName@@YAPAU_object@@PAU1@0@Z ENDP		; wndMgrGetName
_TEXT	ENDS
; Function compile flags: /Odspy
; File D:\Metin2 Server Files\mainline\SRC_2014\Metin2Client\eterPythonLib\PythonWindowManagerModule.cpp
;	COMDAT ?wndMgrSetWndPosition@@YAPAU_object@@PAU1@0@Z
_TEXT	SEGMENT
_pWin$ = -12						; size = 4
_x$ = -8						; size = 4
_y$ = -4						; size = 4
_poSelf$ = 8						; size = 4
_poArgs$ = 12						; size = 4
?wndMgrSetWndPosition@@YAPAU_object@@PAU1@0@Z PROC	; wndMgrSetWndPosition, COMDAT

; 462  : {

  00000	55		 push	 ebp
  00001	8b ec		 mov	 ebp, esp
  00003	83 ec 0c	 sub	 esp, 12			; 0000000cH

; 463  : 	UI::CWindow * pWin;
; 464  : 	if (!PyTuple_GetWindow(poArgs, 0, &pWin))

  00006	8d 45 f4	 lea	 eax, DWORD PTR _pWin$[ebp]
  00009	50		 push	 eax
  0000a	6a 00		 push	 0
  0000c	ff 75 0c	 push	 DWORD PTR _poArgs$[ebp]
  0000f	e8 00 00 00 00	 call	 ?PyTuple_GetWindow@@YA_NPAU_object@@HPAPAVCWindow@UI@@@Z ; PyTuple_GetWindow
  00014	83 c4 0c	 add	 esp, 12			; 0000000cH
  00017	0f b6 c0	 movzx	 eax, al
  0001a	85 c0		 test	 eax, eax
  0001c	75 0a		 jne	 SHORT $LN2@wndMgrSetW

; 465  : 		return Py_BuildException();

  0001e	6a 00		 push	 0
  00020	e8 00 00 00 00	 call	 ?Py_BuildException@@YAPAU_object@@PBDZZ ; Py_BuildException
  00025	59		 pop	 ecx
  00026	eb 57		 jmp	 SHORT $LN1@wndMgrSetW
$LN2@wndMgrSetW:

; 466  : 	int x;
; 467  : 	if (!PyTuple_GetInteger(poArgs, 1, &x))

  00028	8d 45 f8	 lea	 eax, DWORD PTR _x$[ebp]
  0002b	50		 push	 eax
  0002c	6a 01		 push	 1
  0002e	ff 75 0c	 push	 DWORD PTR _poArgs$[ebp]
  00031	e8 00 00 00 00	 call	 ?PyTuple_GetInteger@@YA_NPAU_object@@HPAH@Z ; PyTuple_GetInteger
  00036	83 c4 0c	 add	 esp, 12			; 0000000cH
  00039	0f b6 c0	 movzx	 eax, al
  0003c	85 c0		 test	 eax, eax
  0003e	75 0a		 jne	 SHORT $LN3@wndMgrSetW

; 468  : 		return Py_BuildException();

  00040	6a 00		 push	 0
  00042	e8 00 00 00 00	 call	 ?Py_BuildException@@YAPAU_object@@PBDZZ ; Py_BuildException
  00047	59		 pop	 ecx
  00048	eb 35		 jmp	 SHORT $LN1@wndMgrSetW
$LN3@wndMgrSetW:

; 469  : 	int y;
; 470  : 	if (!PyTuple_GetInteger(poArgs, 2, &y))

  0004a	8d 45 fc	 lea	 eax, DWORD PTR _y$[ebp]
  0004d	50		 push	 eax
  0004e	6a 02		 push	 2
  00050	ff 75 0c	 push	 DWORD PTR _poArgs$[ebp]
  00053	e8 00 00 00 00	 call	 ?PyTuple_GetInteger@@YA_NPAU_object@@HPAH@Z ; PyTuple_GetInteger
  00058	83 c4 0c	 add	 esp, 12			; 0000000cH
  0005b	0f b6 c0	 movzx	 eax, al
  0005e	85 c0		 test	 eax, eax
  00060	75 0a		 jne	 SHORT $LN4@wndMgrSetW

; 471  : 		return Py_BuildException();

  00062	6a 00		 push	 0
  00064	e8 00 00 00 00	 call	 ?Py_BuildException@@YAPAU_object@@PBDZZ ; Py_BuildException
  00069	59		 pop	 ecx
  0006a	eb 13		 jmp	 SHORT $LN1@wndMgrSetW
$LN4@wndMgrSetW:

; 472  : 
; 473  : 	pWin->SetPosition(x, y);

  0006c	ff 75 fc	 push	 DWORD PTR _y$[ebp]
  0006f	ff 75 f8	 push	 DWORD PTR _x$[ebp]
  00072	8b 4d f4	 mov	 ecx, DWORD PTR _pWin$[ebp]
  00075	e8 00 00 00 00	 call	 ?SetPosition@CWindow@UI@@QAEXJJ@Z ; UI::CWindow::SetPosition

; 474  : 	return Py_BuildNone();

  0007a	e8 00 00 00 00	 call	 ?Py_BuildNone@@YAPAU_object@@XZ ; Py_BuildNone
$LN1@wndMgrSetW:

; 475  : }

  0007f	c9		 leave
  00080	c3		 ret	 0
?wndMgrSetWndPosition@@YAPAU_object@@PAU1@0@Z ENDP	; wndMgrSetWndPosition
_TEXT	ENDS
; Function compile flags: /Odspy
; File D:\Metin2 Server Files\mainline\SRC_2014\Metin2Client\eterPythonLib\PythonWindowManagerModule.cpp
;	COMDAT ?wndMgrSetWndSize@@YAPAU_object@@PAU1@0@Z
_TEXT	SEGMENT
_pWin$ = -12						; size = 4
_width$ = -8						; size = 4
_height$ = -4						; size = 4
_poSelf$ = 8						; size = 4
_poArgs$ = 12						; size = 4
?wndMgrSetWndSize@@YAPAU_object@@PAU1@0@Z PROC		; wndMgrSetWndSize, COMDAT

; 446  : {

  00000	55		 push	 ebp
  00001	8b ec		 mov	 ebp, esp
  00003	83 ec 0c	 sub	 esp, 12			; 0000000cH

; 447  : 	UI::CWindow * pWin;
; 448  : 	if (!PyTuple_GetWindow(poArgs, 0, &pWin))

  00006	8d 45 f4	 lea	 eax, DWORD PTR _pWin$[ebp]
  00009	50		 push	 eax
  0000a	6a 00		 push	 0
  0000c	ff 75 0c	 push	 DWORD PTR _poArgs$[ebp]
  0000f	e8 00 00 00 00	 call	 ?PyTuple_GetWindow@@YA_NPAU_object@@HPAPAVCWindow@UI@@@Z ; PyTuple_GetWindow
  00014	83 c4 0c	 add	 esp, 12			; 0000000cH
  00017	0f b6 c0	 movzx	 eax, al
  0001a	85 c0		 test	 eax, eax
  0001c	75 0a		 jne	 SHORT $LN2@wndMgrSetW

; 449  : 		return Py_BuildException();

  0001e	6a 00		 push	 0
  00020	e8 00 00 00 00	 call	 ?Py_BuildException@@YAPAU_object@@PBDZZ ; Py_BuildException
  00025	59		 pop	 ecx
  00026	eb 57		 jmp	 SHORT $LN1@wndMgrSetW
$LN2@wndMgrSetW:

; 450  : 	int width;
; 451  : 	if (!PyTuple_GetInteger(poArgs, 1, &width))

  00028	8d 45 f8	 lea	 eax, DWORD PTR _width$[ebp]
  0002b	50		 push	 eax
  0002c	6a 01		 push	 1
  0002e	ff 75 0c	 push	 DWORD PTR _poArgs$[ebp]
  00031	e8 00 00 00 00	 call	 ?PyTuple_GetInteger@@YA_NPAU_object@@HPAH@Z ; PyTuple_GetInteger
  00036	83 c4 0c	 add	 esp, 12			; 0000000cH
  00039	0f b6 c0	 movzx	 eax, al
  0003c	85 c0		 test	 eax, eax
  0003e	75 0a		 jne	 SHORT $LN3@wndMgrSetW

; 452  : 		return Py_BuildException();

  00040	6a 00		 push	 0
  00042	e8 00 00 00 00	 call	 ?Py_BuildException@@YAPAU_object@@PBDZZ ; Py_BuildException
  00047	59		 pop	 ecx
  00048	eb 35		 jmp	 SHORT $LN1@wndMgrSetW
$LN3@wndMgrSetW:

; 453  : 	int height;
; 454  : 	if (!PyTuple_GetInteger(poArgs, 2, &height))

  0004a	8d 45 fc	 lea	 eax, DWORD PTR _height$[ebp]
  0004d	50		 push	 eax
  0004e	6a 02		 push	 2
  00050	ff 75 0c	 push	 DWORD PTR _poArgs$[ebp]
  00053	e8 00 00 00 00	 call	 ?PyTuple_GetInteger@@YA_NPAU_object@@HPAH@Z ; PyTuple_GetInteger
  00058	83 c4 0c	 add	 esp, 12			; 0000000cH
  0005b	0f b6 c0	 movzx	 eax, al
  0005e	85 c0		 test	 eax, eax
  00060	75 0a		 jne	 SHORT $LN4@wndMgrSetW

; 455  : 		return Py_BuildException();

  00062	6a 00		 push	 0
  00064	e8 00 00 00 00	 call	 ?Py_BuildException@@YAPAU_object@@PBDZZ ; Py_BuildException
  00069	59		 pop	 ecx
  0006a	eb 13		 jmp	 SHORT $LN1@wndMgrSetW
$LN4@wndMgrSetW:

; 456  : 
; 457  : 	pWin->SetSize(width, height);

  0006c	ff 75 fc	 push	 DWORD PTR _height$[ebp]
  0006f	ff 75 f8	 push	 DWORD PTR _width$[ebp]
  00072	8b 4d f4	 mov	 ecx, DWORD PTR _pWin$[ebp]
  00075	e8 00 00 00 00	 call	 ?SetSize@CWindow@UI@@QAEXJJ@Z ; UI::CWindow::SetSize

; 458  : 	return Py_BuildNone();

  0007a	e8 00 00 00 00	 call	 ?Py_BuildNone@@YAPAU_object@@XZ ; Py_BuildNone
$LN1@wndMgrSetW:

; 459  : }

  0007f	c9		 leave
  00080	c3		 ret	 0
?wndMgrSetWndSize@@YAPAU_object@@PAU1@0@Z ENDP		; wndMgrSetWndSize
_TEXT	ENDS
; Function compile flags: /Odspy
; File D:\Metin2 Server Files\mainline\SRC_2014\Metin2Client\eterPythonLib\PythonWindowManagerModule.cpp
;	COMDAT ?wndMgrSetPickAlways@@YAPAU_object@@PAU1@0@Z
_TEXT	SEGMENT
_pWin$ = -4						; size = 4
_poSelf$ = 8						; size = 4
_poArgs$ = 12						; size = 4
?wndMgrSetPickAlways@@YAPAU_object@@PAU1@0@Z PROC	; wndMgrSetPickAlways, COMDAT

; 436  : {

  00000	55		 push	 ebp
  00001	8b ec		 mov	 ebp, esp
  00003	51		 push	 ecx

; 437  : 	UI::CWindow * pWin;
; 438  : 	if (!PyTuple_GetWindow(poArgs, 0, &pWin))

  00004	8d 45 fc	 lea	 eax, DWORD PTR _pWin$[ebp]
  00007	50		 push	 eax
  00008	6a 00		 push	 0
  0000a	ff 75 0c	 push	 DWORD PTR _poArgs$[ebp]
  0000d	e8 00 00 00 00	 call	 ?PyTuple_GetWindow@@YA_NPAU_object@@HPAPAVCWindow@UI@@@Z ; PyTuple_GetWindow
  00012	83 c4 0c	 add	 esp, 12			; 0000000cH
  00015	0f b6 c0	 movzx	 eax, al
  00018	85 c0		 test	 eax, eax
  0001a	75 0a		 jne	 SHORT $LN4@wndMgrSetP

; 439  : 		return Py_BuildException();

  0001c	6a 00		 push	 0
  0001e	e8 00 00 00 00	 call	 ?Py_BuildException@@YAPAU_object@@PBDZZ ; Py_BuildException
  00023	59		 pop	 ecx
  00024	eb 13		 jmp	 SHORT $LN1@wndMgrSetP
$LN4@wndMgrSetP:

; 440  : 
; 441  : 	UI::CWindowManager::Instance().SetPickAlways(pWin);

  00026	ff 75 fc	 push	 DWORD PTR _pWin$[ebp]
  00029	8b 0d 00 00 00
	00		 mov	 ecx, DWORD PTR ?ms_singleton@?$CSingleton@VCWindowManager@UI@@@@0PAVCWindowManager@UI@@A ; CSingleton<UI::CWindowManager>::ms_singleton
  0002f	e8 00 00 00 00	 call	 ?SetPickAlways@CWindowManager@UI@@QAEXPAVCWindow@2@@Z ; UI::CWindowManager::SetPickAlways

; 442  : 	return Py_BuildNone();

  00034	e8 00 00 00 00	 call	 ?Py_BuildNone@@YAPAU_object@@XZ ; Py_BuildNone
$LN1@wndMgrSetP:

; 443  : }

  00039	c9		 leave
  0003a	c3		 ret	 0
?wndMgrSetPickAlways@@YAPAU_object@@PAU1@0@Z ENDP	; wndMgrSetPickAlways
_TEXT	ENDS
; Function compile flags: /Odspy
; File D:\Metin2 Server Files\mainline\SRC_2014\Metin2Client\eterPythonLib\PythonWindowManagerModule.cpp
;	COMDAT ?wndMgrSetParent@@YAPAU_object@@PAU1@0@Z
_TEXT	SEGMENT
_pWin$ = -8						; size = 4
_pParentWin$ = -4					; size = 4
_poSelf$ = 8						; size = 4
_poArgs$ = 12						; size = 4
?wndMgrSetParent@@YAPAU_object@@PAU1@0@Z PROC		; wndMgrSetParent, COMDAT

; 423  : {

  00000	55		 push	 ebp
  00001	8b ec		 mov	 ebp, esp
  00003	51		 push	 ecx
  00004	51		 push	 ecx

; 424  : 	UI::CWindow * pWin;
; 425  : 	if (!PyTuple_GetWindow(poArgs, 0, &pWin))

  00005	8d 45 f8	 lea	 eax, DWORD PTR _pWin$[ebp]
  00008	50		 push	 eax
  00009	6a 00		 push	 0
  0000b	ff 75 0c	 push	 DWORD PTR _poArgs$[ebp]
  0000e	e8 00 00 00 00	 call	 ?PyTuple_GetWindow@@YA_NPAU_object@@HPAPAVCWindow@UI@@@Z ; PyTuple_GetWindow
  00013	83 c4 0c	 add	 esp, 12			; 0000000cH
  00016	0f b6 c0	 movzx	 eax, al
  00019	85 c0		 test	 eax, eax
  0001b	75 0a		 jne	 SHORT $LN2@wndMgrSetP

; 426  : 		return Py_BuildException();

  0001d	6a 00		 push	 0
  0001f	e8 00 00 00 00	 call	 ?Py_BuildException@@YAPAU_object@@PBDZZ ; Py_BuildException
  00024	59		 pop	 ecx
  00025	eb 38		 jmp	 SHORT $LN1@wndMgrSetP
$LN2@wndMgrSetP:

; 427  : 	UI::CWindow * pParentWin;
; 428  : 	if (!PyTuple_GetWindow(poArgs, 1, &pParentWin))

  00027	8d 45 fc	 lea	 eax, DWORD PTR _pParentWin$[ebp]
  0002a	50		 push	 eax
  0002b	6a 01		 push	 1
  0002d	ff 75 0c	 push	 DWORD PTR _poArgs$[ebp]
  00030	e8 00 00 00 00	 call	 ?PyTuple_GetWindow@@YA_NPAU_object@@HPAPAVCWindow@UI@@@Z ; PyTuple_GetWindow
  00035	83 c4 0c	 add	 esp, 12			; 0000000cH
  00038	0f b6 c0	 movzx	 eax, al
  0003b	85 c0		 test	 eax, eax
  0003d	75 0a		 jne	 SHORT $LN5@wndMgrSetP

; 429  : 		return Py_BuildException();

  0003f	6a 00		 push	 0
  00041	e8 00 00 00 00	 call	 ?Py_BuildException@@YAPAU_object@@PBDZZ ; Py_BuildException
  00046	59		 pop	 ecx
  00047	eb 16		 jmp	 SHORT $LN1@wndMgrSetP
$LN5@wndMgrSetP:

; 430  : 
; 431  : 	UI::CWindowManager::Instance().SetParent(pWin, pParentWin);

  00049	ff 75 fc	 push	 DWORD PTR _pParentWin$[ebp]
  0004c	ff 75 f8	 push	 DWORD PTR _pWin$[ebp]
  0004f	8b 0d 00 00 00
	00		 mov	 ecx, DWORD PTR ?ms_singleton@?$CSingleton@VCWindowManager@UI@@@@0PAVCWindowManager@UI@@A ; CSingleton<UI::CWindowManager>::ms_singleton
  00055	e8 00 00 00 00	 call	 ?SetParent@CWindowManager@UI@@QAEXPAVCWindow@2@0@Z ; UI::CWindowManager::SetParent

; 432  : 	return Py_BuildNone();

  0005a	e8 00 00 00 00	 call	 ?Py_BuildNone@@YAPAU_object@@XZ ; Py_BuildNone
$LN1@wndMgrSetP:

; 433  : }

  0005f	c9		 leave
  00060	c3		 ret	 0
?wndMgrSetParent@@YAPAU_object@@PAU1@0@Z ENDP		; wndMgrSetParent
_TEXT	ENDS
; Function compile flags: /Odspy
; File D:\Metin2 Server Files\mainline\SRC_2014\Metin2Client\eterPythonLib\PythonWindowManagerModule.cpp
;	COMDAT ?wndMgrSetScreenSize@@YAPAU_object@@PAU1@0@Z
_TEXT	SEGMENT
_width$ = -8						; size = 4
_height$ = -4						; size = 4
_poSelf$ = 8						; size = 4
_poArgs$ = 12						; size = 4
?wndMgrSetScreenSize@@YAPAU_object@@PAU1@0@Z PROC	; wndMgrSetScreenSize, COMDAT

; 410  : {

  00000	55		 push	 ebp
  00001	8b ec		 mov	 ebp, esp
  00003	51		 push	 ecx
  00004	51		 push	 ecx

; 411  : 	int width;
; 412  : 	if (!PyTuple_GetInteger(poArgs, 0, &width))

  00005	8d 45 f8	 lea	 eax, DWORD PTR _width$[ebp]
  00008	50		 push	 eax
  00009	6a 00		 push	 0
  0000b	ff 75 0c	 push	 DWORD PTR _poArgs$[ebp]
  0000e	e8 00 00 00 00	 call	 ?PyTuple_GetInteger@@YA_NPAU_object@@HPAH@Z ; PyTuple_GetInteger
  00013	83 c4 0c	 add	 esp, 12			; 0000000cH
  00016	0f b6 c0	 movzx	 eax, al
  00019	85 c0		 test	 eax, eax
  0001b	75 0a		 jne	 SHORT $LN2@wndMgrSetS

; 413  : 		return Py_BuildException();

  0001d	6a 00		 push	 0
  0001f	e8 00 00 00 00	 call	 ?Py_BuildException@@YAPAU_object@@PBDZZ ; Py_BuildException
  00024	59		 pop	 ecx
  00025	eb 38		 jmp	 SHORT $LN1@wndMgrSetS
$LN2@wndMgrSetS:

; 414  : 	int height;
; 415  : 	if (!PyTuple_GetInteger(poArgs, 1, &height))

  00027	8d 45 fc	 lea	 eax, DWORD PTR _height$[ebp]
  0002a	50		 push	 eax
  0002b	6a 01		 push	 1
  0002d	ff 75 0c	 push	 DWORD PTR _poArgs$[ebp]
  00030	e8 00 00 00 00	 call	 ?PyTuple_GetInteger@@YA_NPAU_object@@HPAH@Z ; PyTuple_GetInteger
  00035	83 c4 0c	 add	 esp, 12			; 0000000cH
  00038	0f b6 c0	 movzx	 eax, al
  0003b	85 c0		 test	 eax, eax
  0003d	75 0a		 jne	 SHORT $LN5@wndMgrSetS

; 416  : 		return Py_BuildException();

  0003f	6a 00		 push	 0
  00041	e8 00 00 00 00	 call	 ?Py_BuildException@@YAPAU_object@@PBDZZ ; Py_BuildException
  00046	59		 pop	 ecx
  00047	eb 16		 jmp	 SHORT $LN1@wndMgrSetS
$LN5@wndMgrSetS:

; 417  : 
; 418  : 	UI::CWindowManager::Instance().SetScreenSize(width, height);

  00049	ff 75 fc	 push	 DWORD PTR _height$[ebp]
  0004c	ff 75 f8	 push	 DWORD PTR _width$[ebp]
  0004f	8b 0d 00 00 00
	00		 mov	 ecx, DWORD PTR ?ms_singleton@?$CSingleton@VCWindowManager@UI@@@@0PAVCWindowManager@UI@@A ; CSingleton<UI::CWindowManager>::ms_singleton
  00055	e8 00 00 00 00	 call	 ?SetScreenSize@CWindowManager@UI@@QAEXJJ@Z ; UI::CWindowManager::SetScreenSize

; 419  : 	return Py_BuildNone();

  0005a	e8 00 00 00 00	 call	 ?Py_BuildNone@@YAPAU_object@@XZ ; Py_BuildNone
$LN1@wndMgrSetS:

; 420  : }

  0005f	c9		 leave
  00060	c3		 ret	 0
?wndMgrSetScreenSize@@YAPAU_object@@PAU1@0@Z ENDP	; wndMgrSetScreenSize
_TEXT	ENDS
; Function compile flags: /Odspy
; File D:\Metin2 Server Files\mainline\SRC_2014\Metin2Client\eterPythonLib\PythonWindowManagerModule.cpp
; File D:\Metin2 Server Files\mainline\SRC_2014\Metin2Client\eterPythonLib\PythonWindow.h
; File D:\Metin2 Server Files\mainline\SRC_2014\Metin2Client\eterPythonLib\PythonWindowManagerModule.cpp
;	COMDAT ?wndMgrIsRTL@@YAPAU_object@@PAU1@0@Z
_TEXT	SEGMENT
_pWin$ = -8						; size = 4
tv82 = -1						; size = 1
_poSelf$ = 8						; size = 4
_poArgs$ = 12						; size = 4
?wndMgrIsRTL@@YAPAU_object@@PAU1@0@Z PROC		; wndMgrIsRTL, COMDAT

; 401  : {

  00000	55		 push	 ebp
  00001	8b ec		 mov	 ebp, esp
  00003	51		 push	 ecx
  00004	51		 push	 ecx

; 402  : 	UI::CWindow * pWin;
; 403  : 	if (!PyTuple_GetWindow(poArgs, 0, &pWin))

  00005	8d 45 f8	 lea	 eax, DWORD PTR _pWin$[ebp]
  00008	50		 push	 eax
  00009	6a 00		 push	 0
  0000b	ff 75 0c	 push	 DWORD PTR _poArgs$[ebp]
  0000e	e8 00 00 00 00	 call	 ?PyTuple_GetWindow@@YA_NPAU_object@@HPAPAVCWindow@UI@@@Z ; PyTuple_GetWindow
  00013	83 c4 0c	 add	 esp, 12			; 0000000cH
  00016	0f b6 c0	 movzx	 eax, al
  00019	85 c0		 test	 eax, eax
  0001b	75 0a		 jne	 SHORT $LN2@wndMgrIsRT

; 404  : 		return Py_BuildException();

  0001d	6a 00		 push	 0
  0001f	e8 00 00 00 00	 call	 ?Py_BuildException@@YAPAU_object@@PBDZZ ; Py_BuildException
  00024	59		 pop	 ecx
  00025	eb 29		 jmp	 SHORT $LN1@wndMgrIsRT
$LN2@wndMgrIsRT:
; File D:\Metin2 Server Files\mainline\SRC_2014\Metin2Client\eterPythonLib\PythonWindow.h

; 101  : 			bool			IsFlag(DWORD flag)		{ return (m_dwFlag & flag) ? true : false;	}

  00027	8b 45 f8	 mov	 eax, DWORD PTR _pWin$[ebp]
  0002a	8b 40 58	 mov	 eax, DWORD PTR [eax+88]
  0002d	25 00 08 00 00	 and	 eax, 2048		; 00000800H
  00032	74 06		 je	 SHORT $LN6@wndMgrIsRT
  00034	c6 45 ff 01	 mov	 BYTE PTR tv82[ebp], 1
  00038	eb 04		 jmp	 SHORT $LN4@wndMgrIsRT
$LN6@wndMgrIsRT:
  0003a	c6 45 ff 00	 mov	 BYTE PTR tv82[ebp], 0
$LN4@wndMgrIsRT:
; File D:\Metin2 Server Files\mainline\SRC_2014\Metin2Client\eterPythonLib\PythonWindowManagerModule.cpp

; 406  : 	return Py_BuildValue("i", pWin->IsFlag(UI::CWindow::FLAG_RTL));

  0003e	0f b6 45 ff	 movzx	 eax, BYTE PTR tv82[ebp]
  00042	50		 push	 eax
  00043	68 00 00 00 00	 push	 OFFSET ??_C@_01KBJDNOO@i@
  00048	ff 15 00 00 00
	00		 call	 DWORD PTR __imp__Py_BuildValue
  0004e	59		 pop	 ecx
  0004f	59		 pop	 ecx
$LN1@wndMgrIsRT:

; 407  : }

  00050	c9		 leave
  00051	c3		 ret	 0
?wndMgrIsRTL@@YAPAU_object@@PAU1@0@Z ENDP		; wndMgrIsRTL
_TEXT	ENDS
; Function compile flags: /Odspy
; File D:\Metin2 Server Files\mainline\SRC_2014\Metin2Client\eterPythonLib\PythonWindowManagerModule.cpp
; File D:\Metin2 Server Files\mainline\SRC_2014\Metin2Client\eterPythonLib\PythonWindow.h
; File D:\Metin2 Server Files\mainline\SRC_2014\Metin2Client\eterPythonLib\PythonWindowManagerModule.cpp
;	COMDAT ?wndMgrIsShow@@YAPAU_object@@PAU1@0@Z
_TEXT	SEGMENT
_pWin$ = -8						; size = 4
$T1 = -1						; size = 1
_poSelf$ = 8						; size = 4
_poArgs$ = 12						; size = 4
?wndMgrIsShow@@YAPAU_object@@PAU1@0@Z PROC		; wndMgrIsShow, COMDAT

; 392  : {

  00000	55		 push	 ebp
  00001	8b ec		 mov	 ebp, esp
  00003	51		 push	 ecx
  00004	51		 push	 ecx

; 393  : 	UI::CWindow * pWin;
; 394  : 	if (!PyTuple_GetWindow(poArgs, 0, &pWin))

  00005	8d 45 f8	 lea	 eax, DWORD PTR _pWin$[ebp]
  00008	50		 push	 eax
  00009	6a 00		 push	 0
  0000b	ff 75 0c	 push	 DWORD PTR _poArgs$[ebp]
  0000e	e8 00 00 00 00	 call	 ?PyTuple_GetWindow@@YA_NPAU_object@@HPAPAVCWindow@UI@@@Z ; PyTuple_GetWindow
  00013	83 c4 0c	 add	 esp, 12			; 0000000cH
  00016	0f b6 c0	 movzx	 eax, al
  00019	85 c0		 test	 eax, eax
  0001b	75 0a		 jne	 SHORT $LN2@wndMgrIsSh

; 395  : 		return Py_BuildException();

  0001d	6a 00		 push	 0
  0001f	e8 00 00 00 00	 call	 ?Py_BuildException@@YAPAU_object@@PBDZZ ; Py_BuildException
  00024	59		 pop	 ecx
  00025	eb 1b		 jmp	 SHORT $LN1@wndMgrIsSh
$LN2@wndMgrIsSh:
; File D:\Metin2 Server Files\mainline\SRC_2014\Metin2Client\eterPythonLib\PythonWindow.h

; 78   : 			bool			IsShow() { return m_bShow; }

  00027	8b 45 f8	 mov	 eax, DWORD PTR _pWin$[ebp]
  0002a	8a 40 55	 mov	 al, BYTE PTR [eax+85]
  0002d	88 45 ff	 mov	 BYTE PTR $T1[ebp], al
; File D:\Metin2 Server Files\mainline\SRC_2014\Metin2Client\eterPythonLib\PythonWindowManagerModule.cpp

; 397  : 	return Py_BuildValue("i", pWin->IsShow());

  00030	0f b6 45 ff	 movzx	 eax, BYTE PTR $T1[ebp]
  00034	50		 push	 eax
  00035	68 00 00 00 00	 push	 OFFSET ??_C@_01KBJDNOO@i@
  0003a	ff 15 00 00 00
	00		 call	 DWORD PTR __imp__Py_BuildValue
  00040	59		 pop	 ecx
  00041	59		 pop	 ecx
$LN1@wndMgrIsSh:

; 398  : }

  00042	c9		 leave
  00043	c3		 ret	 0
?wndMgrIsShow@@YAPAU_object@@PAU1@0@Z ENDP		; wndMgrIsShow
_TEXT	ENDS
; Function compile flags: /Odspy
; File D:\Metin2 Server Files\mainline\SRC_2014\Metin2Client\eterPythonLib\PythonWindowManagerModule.cpp
;	COMDAT ?wndMgrHide@@YAPAU_object@@PAU1@0@Z
_TEXT	SEGMENT
_pWin$ = -4						; size = 4
_poSelf$ = 8						; size = 4
_poArgs$ = 12						; size = 4
?wndMgrHide@@YAPAU_object@@PAU1@0@Z PROC		; wndMgrHide, COMDAT

; 382  : {

  00000	55		 push	 ebp
  00001	8b ec		 mov	 ebp, esp
  00003	51		 push	 ecx

; 383  : 	UI::CWindow * pWin;
; 384  : 	if (!PyTuple_GetWindow(poArgs, 0, &pWin))

  00004	8d 45 fc	 lea	 eax, DWORD PTR _pWin$[ebp]
  00007	50		 push	 eax
  00008	6a 00		 push	 0
  0000a	ff 75 0c	 push	 DWORD PTR _poArgs$[ebp]
  0000d	e8 00 00 00 00	 call	 ?PyTuple_GetWindow@@YA_NPAU_object@@HPAPAVCWindow@UI@@@Z ; PyTuple_GetWindow
  00012	83 c4 0c	 add	 esp, 12			; 0000000cH
  00015	0f b6 c0	 movzx	 eax, al
  00018	85 c0		 test	 eax, eax
  0001a	75 0a		 jne	 SHORT $LN2@wndMgrHide

; 385  : 		return Py_BuildException();

  0001c	6a 00		 push	 0
  0001e	e8 00 00 00 00	 call	 ?Py_BuildException@@YAPAU_object@@PBDZZ ; Py_BuildException
  00023	59		 pop	 ecx
  00024	eb 0d		 jmp	 SHORT $LN1@wndMgrHide
$LN2@wndMgrHide:

; 386  : 
; 387  : 	pWin->Hide();

  00026	8b 4d fc	 mov	 ecx, DWORD PTR _pWin$[ebp]
  00029	e8 00 00 00 00	 call	 ?Hide@CWindow@UI@@QAEXXZ ; UI::CWindow::Hide

; 388  : 	return Py_BuildNone();

  0002e	e8 00 00 00 00	 call	 ?Py_BuildNone@@YAPAU_object@@XZ ; Py_BuildNone
$LN1@wndMgrHide:

; 389  : }

  00033	c9		 leave
  00034	c3		 ret	 0
?wndMgrHide@@YAPAU_object@@PAU1@0@Z ENDP		; wndMgrHide
_TEXT	ENDS
; Function compile flags: /Odspy
; File D:\Metin2 Server Files\mainline\SRC_2014\Metin2Client\eterPythonLib\PythonWindowManagerModule.cpp
;	COMDAT ?wndMgrShow@@YAPAU_object@@PAU1@0@Z
_TEXT	SEGMENT
_pWin$ = -4						; size = 4
_poSelf$ = 8						; size = 4
_poArgs$ = 12						; size = 4
?wndMgrShow@@YAPAU_object@@PAU1@0@Z PROC		; wndMgrShow, COMDAT

; 372  : {

  00000	55		 push	 ebp
  00001	8b ec		 mov	 ebp, esp
  00003	51		 push	 ecx

; 373  : 	UI::CWindow * pWin;
; 374  : 	if (!PyTuple_GetWindow(poArgs, 0, &pWin))

  00004	8d 45 fc	 lea	 eax, DWORD PTR _pWin$[ebp]
  00007	50		 push	 eax
  00008	6a 00		 push	 0
  0000a	ff 75 0c	 push	 DWORD PTR _poArgs$[ebp]
  0000d	e8 00 00 00 00	 call	 ?PyTuple_GetWindow@@YA_NPAU_object@@HPAPAVCWindow@UI@@@Z ; PyTuple_GetWindow
  00012	83 c4 0c	 add	 esp, 12			; 0000000cH
  00015	0f b6 c0	 movzx	 eax, al
  00018	85 c0		 test	 eax, eax
  0001a	75 0a		 jne	 SHORT $LN2@wndMgrShow

; 375  : 		return Py_BuildException();

  0001c	6a 00		 push	 0
  0001e	e8 00 00 00 00	 call	 ?Py_BuildException@@YAPAU_object@@PBDZZ ; Py_BuildException
  00023	59		 pop	 ecx
  00024	eb 0d		 jmp	 SHORT $LN1@wndMgrShow
$LN2@wndMgrShow:

; 376  : 
; 377  : 	pWin->Show();

  00026	8b 4d fc	 mov	 ecx, DWORD PTR _pWin$[ebp]
  00029	e8 00 00 00 00	 call	 ?Show@CWindow@UI@@QAEXXZ ; UI::CWindow::Show

; 378  : 	return Py_BuildNone();

  0002e	e8 00 00 00 00	 call	 ?Py_BuildNone@@YAPAU_object@@XZ ; Py_BuildNone
$LN1@wndMgrShow:

; 379  : }

  00033	c9		 leave
  00034	c3		 ret	 0
?wndMgrShow@@YAPAU_object@@PAU1@0@Z ENDP		; wndMgrShow
_TEXT	ENDS
; Function compile flags: /Odspy
; File D:\Metin2 Server Files\mainline\SRC_2014\Metin2Client\eterPythonLib\PythonWindowManagerModule.cpp
;	COMDAT ?wndMgrSetTop@@YAPAU_object@@PAU1@0@Z
_TEXT	SEGMENT
_pWin$ = -4						; size = 4
_poSelf$ = 8						; size = 4
_poArgs$ = 12						; size = 4
?wndMgrSetTop@@YAPAU_object@@PAU1@0@Z PROC		; wndMgrSetTop, COMDAT

; 362  : {

  00000	55		 push	 ebp
  00001	8b ec		 mov	 ebp, esp
  00003	51		 push	 ecx

; 363  : 	UI::CWindow * pWin;
; 364  : 	if (!PyTuple_GetWindow(poArgs, 0, &pWin))

  00004	8d 45 fc	 lea	 eax, DWORD PTR _pWin$[ebp]
  00007	50		 push	 eax
  00008	6a 00		 push	 0
  0000a	ff 75 0c	 push	 DWORD PTR _poArgs$[ebp]
  0000d	e8 00 00 00 00	 call	 ?PyTuple_GetWindow@@YA_NPAU_object@@HPAPAVCWindow@UI@@@Z ; PyTuple_GetWindow
  00012	83 c4 0c	 add	 esp, 12			; 0000000cH
  00015	0f b6 c0	 movzx	 eax, al
  00018	85 c0		 test	 eax, eax
  0001a	75 0a		 jne	 SHORT $LN4@wndMgrSetT

; 365  : 		return Py_BuildException();

  0001c	6a 00		 push	 0
  0001e	e8 00 00 00 00	 call	 ?Py_BuildException@@YAPAU_object@@PBDZZ ; Py_BuildException
  00023	59		 pop	 ecx
  00024	eb 13		 jmp	 SHORT $LN1@wndMgrSetT
$LN4@wndMgrSetT:

; 366  : 
; 367  : 	UI::CWindowManager::Instance().SetTop(pWin);

  00026	ff 75 fc	 push	 DWORD PTR _pWin$[ebp]
  00029	8b 0d 00 00 00
	00		 mov	 ecx, DWORD PTR ?ms_singleton@?$CSingleton@VCWindowManager@UI@@@@0PAVCWindowManager@UI@@A ; CSingleton<UI::CWindowManager>::ms_singleton
  0002f	e8 00 00 00 00	 call	 ?SetTop@CWindowManager@UI@@QAEXPAVCWindow@2@@Z ; UI::CWindowManager::SetTop

; 368  : 	return Py_BuildNone();

  00034	e8 00 00 00 00	 call	 ?Py_BuildNone@@YAPAU_object@@XZ ; Py_BuildNone
$LN1@wndMgrSetT:

; 369  : }

  00039	c9		 leave
  0003a	c3		 ret	 0
?wndMgrSetTop@@YAPAU_object@@PAU1@0@Z ENDP		; wndMgrSetTop
_TEXT	ENDS
; Function compile flags: /Odspy
; File D:\Metin2 Server Files\mainline\SRC_2014\Metin2Client\eterPythonLib\PythonWindowManagerModule.cpp
;	COMDAT ?wndMgrSetName@@YAPAU_object@@PAU1@0@Z
_TEXT	SEGMENT
_pWin$ = -8						; size = 4
_szName$ = -4						; size = 4
_poSelf$ = 8						; size = 4
_poArgs$ = 12						; size = 4
?wndMgrSetName@@YAPAU_object@@PAU1@0@Z PROC		; wndMgrSetName, COMDAT

; 349  : {

  00000	55		 push	 ebp
  00001	8b ec		 mov	 ebp, esp
  00003	51		 push	 ecx
  00004	51		 push	 ecx

; 350  : 	UI::CWindow * pWin;
; 351  : 	if (!PyTuple_GetWindow(poArgs, 0, &pWin))

  00005	8d 45 f8	 lea	 eax, DWORD PTR _pWin$[ebp]
  00008	50		 push	 eax
  00009	6a 00		 push	 0
  0000b	ff 75 0c	 push	 DWORD PTR _poArgs$[ebp]
  0000e	e8 00 00 00 00	 call	 ?PyTuple_GetWindow@@YA_NPAU_object@@HPAPAVCWindow@UI@@@Z ; PyTuple_GetWindow
  00013	83 c4 0c	 add	 esp, 12			; 0000000cH
  00016	0f b6 c0	 movzx	 eax, al
  00019	85 c0		 test	 eax, eax
  0001b	75 0a		 jne	 SHORT $LN2@wndMgrSetN

; 352  : 		return Py_BuildException();

  0001d	6a 00		 push	 0
  0001f	e8 00 00 00 00	 call	 ?Py_BuildException@@YAPAU_object@@PBDZZ ; Py_BuildException
  00024	59		 pop	 ecx
  00025	eb 32		 jmp	 SHORT $LN1@wndMgrSetN
$LN2@wndMgrSetN:

; 353  : 	char * szName;
; 354  : 	if (!PyTuple_GetString(poArgs, 1, &szName))

  00027	8d 45 fc	 lea	 eax, DWORD PTR _szName$[ebp]
  0002a	50		 push	 eax
  0002b	6a 01		 push	 1
  0002d	ff 75 0c	 push	 DWORD PTR _poArgs$[ebp]
  00030	e8 00 00 00 00	 call	 ?PyTuple_GetString@@YA_NPAU_object@@HPAPAD@Z ; PyTuple_GetString
  00035	83 c4 0c	 add	 esp, 12			; 0000000cH
  00038	0f b6 c0	 movzx	 eax, al
  0003b	85 c0		 test	 eax, eax
  0003d	75 0a		 jne	 SHORT $LN3@wndMgrSetN

; 355  : 		return Py_BuildException();

  0003f	6a 00		 push	 0
  00041	e8 00 00 00 00	 call	 ?Py_BuildException@@YAPAU_object@@PBDZZ ; Py_BuildException
  00046	59		 pop	 ecx
  00047	eb 10		 jmp	 SHORT $LN1@wndMgrSetN
$LN3@wndMgrSetN:

; 356  : 
; 357  : 	pWin->SetName(szName);

  00049	ff 75 fc	 push	 DWORD PTR _szName$[ebp]
  0004c	8b 4d f8	 mov	 ecx, DWORD PTR _pWin$[ebp]
  0004f	e8 00 00 00 00	 call	 ?SetName@CWindow@UI@@QAEXPBD@Z ; UI::CWindow::SetName

; 358  : 	return Py_BuildNone();

  00054	e8 00 00 00 00	 call	 ?Py_BuildNone@@YAPAU_object@@XZ ; Py_BuildNone
$LN1@wndMgrSetN:

; 359  : }

  00059	c9		 leave
  0005a	c3		 ret	 0
?wndMgrSetName@@YAPAU_object@@PAU1@0@Z ENDP		; wndMgrSetName
_TEXT	ENDS
; Function compile flags: /Odspy
; File D:\Metin2 Server Files\mainline\SRC_2014\Metin2Client\eterPythonLib\PythonWindowManagerModule.cpp
;	COMDAT ?wndMgrUnlock@@YAPAU_object@@PAU1@0@Z
_TEXT	SEGMENT
_poSelf$ = 8						; size = 4
_poArgs$ = 12						; size = 4
?wndMgrUnlock@@YAPAU_object@@PAU1@0@Z PROC		; wndMgrUnlock, COMDAT

; 343  : {

  00000	55		 push	 ebp
  00001	8b ec		 mov	 ebp, esp

; 344  : 	UI::CWindowManager::Instance().UnlockWindow();

  00003	8b 0d 00 00 00
	00		 mov	 ecx, DWORD PTR ?ms_singleton@?$CSingleton@VCWindowManager@UI@@@@0PAVCWindowManager@UI@@A ; CSingleton<UI::CWindowManager>::ms_singleton
  00009	e8 00 00 00 00	 call	 ?UnlockWindow@CWindowManager@UI@@QAEXXZ ; UI::CWindowManager::UnlockWindow

; 345  : 	return Py_BuildNone();

  0000e	e8 00 00 00 00	 call	 ?Py_BuildNone@@YAPAU_object@@XZ ; Py_BuildNone

; 346  : }

  00013	5d		 pop	 ebp
  00014	c3		 ret	 0
?wndMgrUnlock@@YAPAU_object@@PAU1@0@Z ENDP		; wndMgrUnlock
_TEXT	ENDS
; Function compile flags: /Odspy
; File D:\Metin2 Server Files\mainline\SRC_2014\Metin2Client\eterPythonLib\PythonWindowManagerModule.cpp
;	COMDAT ?wndMgrLock@@YAPAU_object@@PAU1@0@Z
_TEXT	SEGMENT
_pWin$ = -4						; size = 4
_poSelf$ = 8						; size = 4
_poArgs$ = 12						; size = 4
?wndMgrLock@@YAPAU_object@@PAU1@0@Z PROC		; wndMgrLock, COMDAT

; 333  : {

  00000	55		 push	 ebp
  00001	8b ec		 mov	 ebp, esp
  00003	51		 push	 ecx

; 334  : 	UI::CWindow * pWin;
; 335  : 	if (!PyTuple_GetWindow(poArgs, 0, &pWin))

  00004	8d 45 fc	 lea	 eax, DWORD PTR _pWin$[ebp]
  00007	50		 push	 eax
  00008	6a 00		 push	 0
  0000a	ff 75 0c	 push	 DWORD PTR _poArgs$[ebp]
  0000d	e8 00 00 00 00	 call	 ?PyTuple_GetWindow@@YA_NPAU_object@@HPAPAVCWindow@UI@@@Z ; PyTuple_GetWindow
  00012	83 c4 0c	 add	 esp, 12			; 0000000cH
  00015	0f b6 c0	 movzx	 eax, al
  00018	85 c0		 test	 eax, eax
  0001a	75 0a		 jne	 SHORT $LN4@wndMgrLock

; 336  : 		return Py_BuildException();

  0001c	6a 00		 push	 0
  0001e	e8 00 00 00 00	 call	 ?Py_BuildException@@YAPAU_object@@PBDZZ ; Py_BuildException
  00023	59		 pop	 ecx
  00024	eb 13		 jmp	 SHORT $LN1@wndMgrLock
$LN4@wndMgrLock:

; 337  : 
; 338  : 	UI::CWindowManager::Instance().LockWindow(pWin);

  00026	ff 75 fc	 push	 DWORD PTR _pWin$[ebp]
  00029	8b 0d 00 00 00
	00		 mov	 ecx, DWORD PTR ?ms_singleton@?$CSingleton@VCWindowManager@UI@@@@0PAVCWindowManager@UI@@A ; CSingleton<UI::CWindowManager>::ms_singleton
  0002f	e8 00 00 00 00	 call	 ?LockWindow@CWindowManager@UI@@QAEXPAVCWindow@2@@Z ; UI::CWindowManager::LockWindow

; 339  : 	return Py_BuildNone();

  00034	e8 00 00 00 00	 call	 ?Py_BuildNone@@YAPAU_object@@XZ ; Py_BuildNone
$LN1@wndMgrLock:

; 340  : }

  00039	c9		 leave
  0003a	c3		 ret	 0
?wndMgrLock@@YAPAU_object@@PAU1@0@Z ENDP		; wndMgrLock
_TEXT	ENDS
; Function compile flags: /Odspy
; File D:\Metin2 Server Files\mainline\SRC_2014\Metin2Client\eterPythonLib\PythonWindowManagerModule.cpp
; File D:\Metin2 Server Files\mainline\SRC_2014\Metin2Client\eterBase\Singleton.h
; File D:\Metin2 Server Files\mainline\SRC_2014\Metin2Client\eterPythonLib\PythonWindowManagerModule.cpp
;	COMDAT ?wndMgrKillFocus@@YAPAU_object@@PAU1@0@Z
_TEXT	SEGMENT
_pWin$ = -8						; size = 4
$T1 = -4						; size = 4
_poSelf$ = 8						; size = 4
_poArgs$ = 12						; size = 4
?wndMgrKillFocus@@YAPAU_object@@PAU1@0@Z PROC		; wndMgrKillFocus, COMDAT

; 315  : {

  00000	55		 push	 ebp
  00001	8b ec		 mov	 ebp, esp
  00003	51		 push	 ecx
  00004	51		 push	 ecx

; 316  : 	UI::CWindow * pWin;
; 317  : 	if (PyTuple_GetWindow(poArgs, 0, &pWin))

  00005	8d 45 f8	 lea	 eax, DWORD PTR _pWin$[ebp]
  00008	50		 push	 eax
  00009	6a 00		 push	 0
  0000b	ff 75 0c	 push	 DWORD PTR _poArgs$[ebp]
  0000e	e8 00 00 00 00	 call	 ?PyTuple_GetWindow@@YA_NPAU_object@@HPAPAVCWindow@UI@@@Z ; PyTuple_GetWindow
  00013	83 c4 0c	 add	 esp, 12			; 0000000cH
  00016	0f b6 c0	 movzx	 eax, al
  00019	85 c0		 test	 eax, eax
  0001b	74 22		 je	 SHORT $LN10@wndMgrKill
; File D:\Metin2 Server Files\mainline\SRC_2014\Metin2Client\eterBase\Singleton.h

; 27   : 		return (*ms_singleton);

  0001d	a1 00 00 00 00	 mov	 eax, DWORD PTR ?ms_singleton@?$CSingleton@VCWindowManager@UI@@@@0PAVCWindowManager@UI@@A ; CSingleton<UI::CWindowManager>::ms_singleton
  00022	89 45 fc	 mov	 DWORD PTR $T1[ebp], eax
; File D:\Metin2 Server Files\mainline\SRC_2014\Metin2Client\eterPythonLib\PythonWindowManagerModule.cpp

; 319  : 		if (pWin == UI::CWindowManager::Instance().GetActivateWindow())

  00025	8b 4d fc	 mov	 ecx, DWORD PTR $T1[ebp]
  00028	e8 00 00 00 00	 call	 ?GetActivateWindow@CWindowManager@UI@@QAEPAVCWindow@2@XZ ; UI::CWindowManager::GetActivateWindow
  0002d	39 45 f8	 cmp	 DWORD PTR _pWin$[ebp], eax
  00030	75 0b		 jne	 SHORT $LN4@wndMgrKill

; 320  : 		{
; 321  : 			UI::CWindowManager::Instance().DeactivateWindow();

  00032	8b 0d 00 00 00
	00		 mov	 ecx, DWORD PTR ?ms_singleton@?$CSingleton@VCWindowManager@UI@@@@0PAVCWindowManager@UI@@A ; CSingleton<UI::CWindowManager>::ms_singleton
  00038	e8 00 00 00 00	 call	 ?DeactivateWindow@CWindowManager@UI@@QAEXXZ ; UI::CWindowManager::DeactivateWindow
$LN4@wndMgrKill:

; 322  : 		}
; 323  : 	}

  0003d	eb 0b		 jmp	 SHORT $LN3@wndMgrKill
$LN10@wndMgrKill:

; 324  : 	else
; 325  : 	{
; 326  : 		UI::CWindowManager::Instance().DeactivateWindow();

  0003f	8b 0d 00 00 00
	00		 mov	 ecx, DWORD PTR ?ms_singleton@?$CSingleton@VCWindowManager@UI@@@@0PAVCWindowManager@UI@@A ; CSingleton<UI::CWindowManager>::ms_singleton
  00045	e8 00 00 00 00	 call	 ?DeactivateWindow@CWindowManager@UI@@QAEXXZ ; UI::CWindowManager::DeactivateWindow
$LN3@wndMgrKill:

; 327  : 	}
; 328  : 
; 329  : 	return Py_BuildNone();

  0004a	e8 00 00 00 00	 call	 ?Py_BuildNone@@YAPAU_object@@XZ ; Py_BuildNone

; 330  : }

  0004f	c9		 leave
  00050	c3		 ret	 0
?wndMgrKillFocus@@YAPAU_object@@PAU1@0@Z ENDP		; wndMgrKillFocus
_TEXT	ENDS
; Function compile flags: /Odspy
; File D:\Metin2 Server Files\mainline\SRC_2014\Metin2Client\eterPythonLib\PythonWindowManagerModule.cpp
;	COMDAT ?wndMgrSetFocus@@YAPAU_object@@PAU1@0@Z
_TEXT	SEGMENT
_pWin$ = -4						; size = 4
_poSelf$ = 8						; size = 4
_poArgs$ = 12						; size = 4
?wndMgrSetFocus@@YAPAU_object@@PAU1@0@Z PROC		; wndMgrSetFocus, COMDAT

; 305  : {

  00000	55		 push	 ebp
  00001	8b ec		 mov	 ebp, esp
  00003	51		 push	 ecx

; 306  : 	UI::CWindow * pWin;
; 307  : 	if (!PyTuple_GetWindow(poArgs, 0, &pWin))

  00004	8d 45 fc	 lea	 eax, DWORD PTR _pWin$[ebp]
  00007	50		 push	 eax
  00008	6a 00		 push	 0
  0000a	ff 75 0c	 push	 DWORD PTR _poArgs$[ebp]
  0000d	e8 00 00 00 00	 call	 ?PyTuple_GetWindow@@YA_NPAU_object@@HPAPAVCWindow@UI@@@Z ; PyTuple_GetWindow
  00012	83 c4 0c	 add	 esp, 12			; 0000000cH
  00015	0f b6 c0	 movzx	 eax, al
  00018	85 c0		 test	 eax, eax
  0001a	75 0a		 jne	 SHORT $LN4@wndMgrSetF

; 308  : 		return Py_BuildException();

  0001c	6a 00		 push	 0
  0001e	e8 00 00 00 00	 call	 ?Py_BuildException@@YAPAU_object@@PBDZZ ; Py_BuildException
  00023	59		 pop	 ecx
  00024	eb 13		 jmp	 SHORT $LN1@wndMgrSetF
$LN4@wndMgrSetF:

; 309  : 
; 310  : 	UI::CWindowManager::Instance().ActivateWindow(pWin);

  00026	ff 75 fc	 push	 DWORD PTR _pWin$[ebp]
  00029	8b 0d 00 00 00
	00		 mov	 ecx, DWORD PTR ?ms_singleton@?$CSingleton@VCWindowManager@UI@@@@0PAVCWindowManager@UI@@A ; CSingleton<UI::CWindowManager>::ms_singleton
  0002f	e8 00 00 00 00	 call	 ?ActivateWindow@CWindowManager@UI@@QAEXPAVCWindow@2@@Z ; UI::CWindowManager::ActivateWindow

; 311  : 	return Py_BuildNone();

  00034	e8 00 00 00 00	 call	 ?Py_BuildNone@@YAPAU_object@@XZ ; Py_BuildNone
$LN1@wndMgrSetF:

; 312  : }

  00039	c9		 leave
  0003a	c3		 ret	 0
?wndMgrSetFocus@@YAPAU_object@@PAU1@0@Z ENDP		; wndMgrSetFocus
_TEXT	ENDS
; Function compile flags: /Odspy
; File D:\Metin2 Server Files\mainline\SRC_2014\Metin2Client\eterPythonLib\PythonWindowManagerModule.cpp
; File D:\Metin2 Server Files\mainline\SRC_2014\Metin2Client\eterBase\Singleton.h
; File D:\Metin2 Server Files\mainline\SRC_2014\Metin2Client\eterPythonLib\PythonWindowManagerModule.cpp
;	COMDAT ?wndMgrIsFocus@@YAPAU_object@@PAU1@0@Z
_TEXT	SEGMENT
_pWindow$ = -12						; size = 4
$T1 = -8						; size = 4
tv77 = -4						; size = 4
_poSelf$ = 8						; size = 4
_poArgs$ = 12						; size = 4
?wndMgrIsFocus@@YAPAU_object@@PAU1@0@Z PROC		; wndMgrIsFocus, COMDAT

; 296  : {

  00000	55		 push	 ebp
  00001	8b ec		 mov	 ebp, esp
  00003	83 ec 0c	 sub	 esp, 12			; 0000000cH

; 297  : 	UI::CWindow * pWindow;
; 298  : 	if (!PyTuple_GetWindow(poArgs, 0, &pWindow))

  00006	8d 45 f4	 lea	 eax, DWORD PTR _pWindow$[ebp]
  00009	50		 push	 eax
  0000a	6a 00		 push	 0
  0000c	ff 75 0c	 push	 DWORD PTR _poArgs$[ebp]
  0000f	e8 00 00 00 00	 call	 ?PyTuple_GetWindow@@YA_NPAU_object@@HPAPAVCWindow@UI@@@Z ; PyTuple_GetWindow
  00014	83 c4 0c	 add	 esp, 12			; 0000000cH
  00017	0f b6 c0	 movzx	 eax, al
  0001a	85 c0		 test	 eax, eax
  0001c	75 0a		 jne	 SHORT $LN2@wndMgrIsFo

; 299  : 		return Py_BuildException();

  0001e	6a 00		 push	 0
  00020	e8 00 00 00 00	 call	 ?Py_BuildException@@YAPAU_object@@PBDZZ ; Py_BuildException
  00025	59		 pop	 ecx
  00026	eb 32		 jmp	 SHORT $LN1@wndMgrIsFo
$LN2@wndMgrIsFo:
; File D:\Metin2 Server Files\mainline\SRC_2014\Metin2Client\eterBase\Singleton.h

; 27   : 		return (*ms_singleton);

  00028	a1 00 00 00 00	 mov	 eax, DWORD PTR ?ms_singleton@?$CSingleton@VCWindowManager@UI@@@@0PAVCWindowManager@UI@@A ; CSingleton<UI::CWindowManager>::ms_singleton
  0002d	89 45 f8	 mov	 DWORD PTR $T1[ebp], eax
; File D:\Metin2 Server Files\mainline\SRC_2014\Metin2Client\eterPythonLib\PythonWindowManagerModule.cpp

; 301  : 	return Py_BuildValue("i", pWindow == UI::CWindowManager::Instance().GetActivateWindow());

  00030	8b 4d f8	 mov	 ecx, DWORD PTR $T1[ebp]
  00033	e8 00 00 00 00	 call	 ?GetActivateWindow@CWindowManager@UI@@QAEPAVCWindow@2@XZ ; UI::CWindowManager::GetActivateWindow
  00038	39 45 f4	 cmp	 DWORD PTR _pWindow$[ebp], eax
  0003b	75 09		 jne	 SHORT $LN4@wndMgrIsFo
  0003d	c7 45 fc 01 00
	00 00		 mov	 DWORD PTR tv77[ebp], 1
  00044	eb 04		 jmp	 SHORT $LN5@wndMgrIsFo
$LN4@wndMgrIsFo:
  00046	83 65 fc 00	 and	 DWORD PTR tv77[ebp], 0
$LN5@wndMgrIsFo:
  0004a	ff 75 fc	 push	 DWORD PTR tv77[ebp]
  0004d	68 00 00 00 00	 push	 OFFSET ??_C@_01KBJDNOO@i@
  00052	ff 15 00 00 00
	00		 call	 DWORD PTR __imp__Py_BuildValue
  00058	59		 pop	 ecx
  00059	59		 pop	 ecx
$LN1@wndMgrIsFo:

; 302  : }

  0005a	c9		 leave
  0005b	c3		 ret	 0
?wndMgrIsFocus@@YAPAU_object@@PAU1@0@Z ENDP		; wndMgrIsFocus
_TEXT	ENDS
; Function compile flags: /Odspy
; File D:\Metin2 Server Files\mainline\SRC_2014\Metin2Client\eterPythonLib\PythonWindowManagerModule.cpp
;	COMDAT ?wndMgrDestroy@@YAPAU_object@@PAU1@0@Z
_TEXT	SEGMENT
_pWin$ = -4						; size = 4
_poSelf$ = 8						; size = 4
_poArgs$ = 12						; size = 4
?wndMgrDestroy@@YAPAU_object@@PAU1@0@Z PROC		; wndMgrDestroy, COMDAT

; 286  : {

  00000	55		 push	 ebp
  00001	8b ec		 mov	 ebp, esp
  00003	51		 push	 ecx

; 287  : 	UI::CWindow * pWin;
; 288  : 	if (!PyTuple_GetWindow(poArgs, 0, &pWin))

  00004	8d 45 fc	 lea	 eax, DWORD PTR _pWin$[ebp]
  00007	50		 push	 eax
  00008	6a 00		 push	 0
  0000a	ff 75 0c	 push	 DWORD PTR _poArgs$[ebp]
  0000d	e8 00 00 00 00	 call	 ?PyTuple_GetWindow@@YA_NPAU_object@@HPAPAVCWindow@UI@@@Z ; PyTuple_GetWindow
  00012	83 c4 0c	 add	 esp, 12			; 0000000cH
  00015	0f b6 c0	 movzx	 eax, al
  00018	85 c0		 test	 eax, eax
  0001a	75 0a		 jne	 SHORT $LN4@wndMgrDest

; 289  : 		return Py_BuildException();

  0001c	6a 00		 push	 0
  0001e	e8 00 00 00 00	 call	 ?Py_BuildException@@YAPAU_object@@PBDZZ ; Py_BuildException
  00023	59		 pop	 ecx
  00024	eb 13		 jmp	 SHORT $LN1@wndMgrDest
$LN4@wndMgrDest:

; 290  : 
; 291  : 	UI::CWindowManager::Instance().DestroyWindow(pWin);

  00026	ff 75 fc	 push	 DWORD PTR _pWin$[ebp]
  00029	8b 0d 00 00 00
	00		 mov	 ecx, DWORD PTR ?ms_singleton@?$CSingleton@VCWindowManager@UI@@@@0PAVCWindowManager@UI@@A ; CSingleton<UI::CWindowManager>::ms_singleton
  0002f	e8 00 00 00 00	 call	 ?DestroyWindow@CWindowManager@UI@@QAEXPAVCWindow@2@@Z ; UI::CWindowManager::DestroyWindow

; 292  : 	return Py_BuildNone();

  00034	e8 00 00 00 00	 call	 ?Py_BuildNone@@YAPAU_object@@XZ ; Py_BuildNone
$LN1@wndMgrDest:

; 293  : }

  00039	c9		 leave
  0003a	c3		 ret	 0
?wndMgrDestroy@@YAPAU_object@@PAU1@0@Z ENDP		; wndMgrDestroy
_TEXT	ENDS
; Function compile flags: /Odspy
; File D:\Metin2 Server Files\mainline\SRC_2014\Metin2Client\eterPythonLib\PythonWindowManagerModule.cpp
; File D:\Metin2 Server Files\mainline\SRC_2014\Metin2Client\eterBase\Singleton.h
; File D:\Metin2 Server Files\mainline\SRC_2014\Metin2Client\eterPythonLib\PythonWindowManagerModule.cpp
;	COMDAT ?wndMgrRegisterNumberLine@@YAPAU_object@@PAU1@0@Z
_TEXT	SEGMENT
_pWindow$ = -16						; size = 4
$T1 = -12						; size = 4
_po$ = -8						; size = 4
_szLayer$ = -4						; size = 4
_poSelf$ = 8						; size = 4
_poArgs$ = 12						; size = 4
?wndMgrRegisterNumberLine@@YAPAU_object@@PAU1@0@Z PROC	; wndMgrRegisterNumberLine, COMDAT

; 271  : {

  00000	55		 push	 ebp
  00001	8b ec		 mov	 ebp, esp
  00003	83 ec 10	 sub	 esp, 16			; 00000010H

; 272  : 	PyObject * po;
; 273  : 	if (!PyTuple_GetObject(poArgs, 0, &po))

  00006	8d 45 f8	 lea	 eax, DWORD PTR _po$[ebp]
  00009	50		 push	 eax
  0000a	6a 00		 push	 0
  0000c	ff 75 0c	 push	 DWORD PTR _poArgs$[ebp]
  0000f	e8 00 00 00 00	 call	 ?PyTuple_GetObject@@YA_NPAU_object@@HPAPAU1@@Z ; PyTuple_GetObject
  00014	83 c4 0c	 add	 esp, 12			; 0000000cH
  00017	0f b6 c0	 movzx	 eax, al
  0001a	85 c0		 test	 eax, eax
  0001c	75 0a		 jne	 SHORT $LN2@wndMgrRegi

; 274  : 		return Py_BuildException();

  0001e	6a 00		 push	 0
  00020	e8 00 00 00 00	 call	 ?Py_BuildException@@YAPAU_object@@PBDZZ ; Py_BuildException
  00025	59		 pop	 ecx
  00026	eb 4b		 jmp	 SHORT $LN1@wndMgrRegi
$LN2@wndMgrRegi:

; 275  : 	char * szLayer;
; 276  : 	if (!PyTuple_GetString(poArgs, 1, &szLayer))

  00028	8d 45 fc	 lea	 eax, DWORD PTR _szLayer$[ebp]
  0002b	50		 push	 eax
  0002c	6a 01		 push	 1
  0002e	ff 75 0c	 push	 DWORD PTR _poArgs$[ebp]
  00031	e8 00 00 00 00	 call	 ?PyTuple_GetString@@YA_NPAU_object@@HPAPAD@Z ; PyTuple_GetString
  00036	83 c4 0c	 add	 esp, 12			; 0000000cH
  00039	0f b6 c0	 movzx	 eax, al
  0003c	85 c0		 test	 eax, eax
  0003e	75 0a		 jne	 SHORT $LN3@wndMgrRegi

; 277  : 		return Py_BuildException();

  00040	6a 00		 push	 0
  00042	e8 00 00 00 00	 call	 ?Py_BuildException@@YAPAU_object@@PBDZZ ; Py_BuildException
  00047	59		 pop	 ecx
  00048	eb 29		 jmp	 SHORT $LN1@wndMgrRegi
$LN3@wndMgrRegi:
; File D:\Metin2 Server Files\mainline\SRC_2014\Metin2Client\eterBase\Singleton.h

; 27   : 		return (*ms_singleton);

  0004a	a1 00 00 00 00	 mov	 eax, DWORD PTR ?ms_singleton@?$CSingleton@VCWindowManager@UI@@@@0PAVCWindowManager@UI@@A ; CSingleton<UI::CWindowManager>::ms_singleton
  0004f	89 45 f4	 mov	 DWORD PTR $T1[ebp], eax
; File D:\Metin2 Server Files\mainline\SRC_2014\Metin2Client\eterPythonLib\PythonWindowManagerModule.cpp

; 279  : 	UI::CWindow * pWindow = UI::CWindowManager::Instance().RegisterNumberLine(po, szLayer);

  00052	ff 75 fc	 push	 DWORD PTR _szLayer$[ebp]
  00055	ff 75 f8	 push	 DWORD PTR _po$[ebp]
  00058	8b 4d f4	 mov	 ecx, DWORD PTR $T1[ebp]
  0005b	e8 00 00 00 00	 call	 ?RegisterNumberLine@CWindowManager@UI@@QAEPAVCWindow@2@PAU_object@@PBD@Z ; UI::CWindowManager::RegisterNumberLine
  00060	89 45 f0	 mov	 DWORD PTR _pWindow$[ebp], eax

; 280  : 	return Py_BuildValue("i", pWindow);

  00063	ff 75 f0	 push	 DWORD PTR _pWindow$[ebp]
  00066	68 00 00 00 00	 push	 OFFSET ??_C@_01KBJDNOO@i@
  0006b	ff 15 00 00 00
	00		 call	 DWORD PTR __imp__Py_BuildValue
  00071	59		 pop	 ecx
  00072	59		 pop	 ecx
$LN1@wndMgrRegi:

; 281  : }

  00073	c9		 leave
  00074	c3		 ret	 0
?wndMgrRegisterNumberLine@@YAPAU_object@@PAU1@0@Z ENDP	; wndMgrRegisterNumberLine
_TEXT	ENDS
; Function compile flags: /Odspy
; File D:\Metin2 Server Files\mainline\SRC_2014\Metin2Client\eterPythonLib\PythonWindowManagerModule.cpp
; File D:\Metin2 Server Files\mainline\SRC_2014\Metin2Client\eterBase\Singleton.h
; File D:\Metin2 Server Files\mainline\SRC_2014\Metin2Client\eterPythonLib\PythonWindowManagerModule.cpp
;	COMDAT ?wndMgrRegisterBar3D@@YAPAU_object@@PAU1@0@Z
_TEXT	SEGMENT
_pWindow$ = -16						; size = 4
$T1 = -12						; size = 4
_po$ = -8						; size = 4
_szLayer$ = -4						; size = 4
_poSelf$ = 8						; size = 4
_poArgs$ = 12						; size = 4
?wndMgrRegisterBar3D@@YAPAU_object@@PAU1@0@Z PROC	; wndMgrRegisterBar3D, COMDAT

; 257  : {

  00000	55		 push	 ebp
  00001	8b ec		 mov	 ebp, esp
  00003	83 ec 10	 sub	 esp, 16			; 00000010H

; 258  : 	PyObject * po;
; 259  : 	if (!PyTuple_GetObject(poArgs, 0, &po))

  00006	8d 45 f8	 lea	 eax, DWORD PTR _po$[ebp]
  00009	50		 push	 eax
  0000a	6a 00		 push	 0
  0000c	ff 75 0c	 push	 DWORD PTR _poArgs$[ebp]
  0000f	e8 00 00 00 00	 call	 ?PyTuple_GetObject@@YA_NPAU_object@@HPAPAU1@@Z ; PyTuple_GetObject
  00014	83 c4 0c	 add	 esp, 12			; 0000000cH
  00017	0f b6 c0	 movzx	 eax, al
  0001a	85 c0		 test	 eax, eax
  0001c	75 0a		 jne	 SHORT $LN2@wndMgrRegi

; 260  : 		return Py_BuildException();

  0001e	6a 00		 push	 0
  00020	e8 00 00 00 00	 call	 ?Py_BuildException@@YAPAU_object@@PBDZZ ; Py_BuildException
  00025	59		 pop	 ecx
  00026	eb 4b		 jmp	 SHORT $LN1@wndMgrRegi
$LN2@wndMgrRegi:

; 261  : 	char * szLayer;
; 262  : 	if (!PyTuple_GetString(poArgs, 1, &szLayer))

  00028	8d 45 fc	 lea	 eax, DWORD PTR _szLayer$[ebp]
  0002b	50		 push	 eax
  0002c	6a 01		 push	 1
  0002e	ff 75 0c	 push	 DWORD PTR _poArgs$[ebp]
  00031	e8 00 00 00 00	 call	 ?PyTuple_GetString@@YA_NPAU_object@@HPAPAD@Z ; PyTuple_GetString
  00036	83 c4 0c	 add	 esp, 12			; 0000000cH
  00039	0f b6 c0	 movzx	 eax, al
  0003c	85 c0		 test	 eax, eax
  0003e	75 0a		 jne	 SHORT $LN3@wndMgrRegi

; 263  : 		return Py_BuildException();

  00040	6a 00		 push	 0
  00042	e8 00 00 00 00	 call	 ?Py_BuildException@@YAPAU_object@@PBDZZ ; Py_BuildException
  00047	59		 pop	 ecx
  00048	eb 29		 jmp	 SHORT $LN1@wndMgrRegi
$LN3@wndMgrRegi:
; File D:\Metin2 Server Files\mainline\SRC_2014\Metin2Client\eterBase\Singleton.h

; 27   : 		return (*ms_singleton);

  0004a	a1 00 00 00 00	 mov	 eax, DWORD PTR ?ms_singleton@?$CSingleton@VCWindowManager@UI@@@@0PAVCWindowManager@UI@@A ; CSingleton<UI::CWindowManager>::ms_singleton
  0004f	89 45 f4	 mov	 DWORD PTR $T1[ebp], eax
; File D:\Metin2 Server Files\mainline\SRC_2014\Metin2Client\eterPythonLib\PythonWindowManagerModule.cpp

; 265  : 	UI::CWindow * pWindow = UI::CWindowManager::Instance().RegisterBar3D(po, szLayer);

  00052	ff 75 fc	 push	 DWORD PTR _szLayer$[ebp]
  00055	ff 75 f8	 push	 DWORD PTR _po$[ebp]
  00058	8b 4d f4	 mov	 ecx, DWORD PTR $T1[ebp]
  0005b	e8 00 00 00 00	 call	 ?RegisterBar3D@CWindowManager@UI@@QAEPAVCWindow@2@PAU_object@@PBD@Z ; UI::CWindowManager::RegisterBar3D
  00060	89 45 f0	 mov	 DWORD PTR _pWindow$[ebp], eax

; 266  : 	return Py_BuildValue("i", pWindow);

  00063	ff 75 f0	 push	 DWORD PTR _pWindow$[ebp]
  00066	68 00 00 00 00	 push	 OFFSET ??_C@_01KBJDNOO@i@
  0006b	ff 15 00 00 00
	00		 call	 DWORD PTR __imp__Py_BuildValue
  00071	59		 pop	 ecx
  00072	59		 pop	 ecx
$LN1@wndMgrRegi:

; 267  : }

  00073	c9		 leave
  00074	c3		 ret	 0
?wndMgrRegisterBar3D@@YAPAU_object@@PAU1@0@Z ENDP	; wndMgrRegisterBar3D
_TEXT	ENDS
; Function compile flags: /Odspy
; File D:\Metin2 Server Files\mainline\SRC_2014\Metin2Client\eterPythonLib\PythonWindowManagerModule.cpp
; File D:\Metin2 Server Files\mainline\SRC_2014\Metin2Client\eterBase\Singleton.h
; File D:\Metin2 Server Files\mainline\SRC_2014\Metin2Client\eterPythonLib\PythonWindowManagerModule.cpp
;	COMDAT ?wndMgrRegisterLine@@YAPAU_object@@PAU1@0@Z
_TEXT	SEGMENT
_pWindow$ = -16						; size = 4
$T1 = -12						; size = 4
_po$ = -8						; size = 4
_szLayer$ = -4						; size = 4
_poSelf$ = 8						; size = 4
_poArgs$ = 12						; size = 4
?wndMgrRegisterLine@@YAPAU_object@@PAU1@0@Z PROC	; wndMgrRegisterLine, COMDAT

; 243  : {

  00000	55		 push	 ebp
  00001	8b ec		 mov	 ebp, esp
  00003	83 ec 10	 sub	 esp, 16			; 00000010H

; 244  : 	PyObject * po;
; 245  : 	if (!PyTuple_GetObject(poArgs, 0, &po))

  00006	8d 45 f8	 lea	 eax, DWORD PTR _po$[ebp]
  00009	50		 push	 eax
  0000a	6a 00		 push	 0
  0000c	ff 75 0c	 push	 DWORD PTR _poArgs$[ebp]
  0000f	e8 00 00 00 00	 call	 ?PyTuple_GetObject@@YA_NPAU_object@@HPAPAU1@@Z ; PyTuple_GetObject
  00014	83 c4 0c	 add	 esp, 12			; 0000000cH
  00017	0f b6 c0	 movzx	 eax, al
  0001a	85 c0		 test	 eax, eax
  0001c	75 0a		 jne	 SHORT $LN2@wndMgrRegi

; 246  : 		return Py_BuildException();

  0001e	6a 00		 push	 0
  00020	e8 00 00 00 00	 call	 ?Py_BuildException@@YAPAU_object@@PBDZZ ; Py_BuildException
  00025	59		 pop	 ecx
  00026	eb 4b		 jmp	 SHORT $LN1@wndMgrRegi
$LN2@wndMgrRegi:

; 247  : 	char * szLayer;
; 248  : 	if (!PyTuple_GetString(poArgs, 1, &szLayer))

  00028	8d 45 fc	 lea	 eax, DWORD PTR _szLayer$[ebp]
  0002b	50		 push	 eax
  0002c	6a 01		 push	 1
  0002e	ff 75 0c	 push	 DWORD PTR _poArgs$[ebp]
  00031	e8 00 00 00 00	 call	 ?PyTuple_GetString@@YA_NPAU_object@@HPAPAD@Z ; PyTuple_GetString
  00036	83 c4 0c	 add	 esp, 12			; 0000000cH
  00039	0f b6 c0	 movzx	 eax, al
  0003c	85 c0		 test	 eax, eax
  0003e	75 0a		 jne	 SHORT $LN3@wndMgrRegi

; 249  : 		return Py_BuildException();

  00040	6a 00		 push	 0
  00042	e8 00 00 00 00	 call	 ?Py_BuildException@@YAPAU_object@@PBDZZ ; Py_BuildException
  00047	59		 pop	 ecx
  00048	eb 29		 jmp	 SHORT $LN1@wndMgrRegi
$LN3@wndMgrRegi:
; File D:\Metin2 Server Files\mainline\SRC_2014\Metin2Client\eterBase\Singleton.h

; 27   : 		return (*ms_singleton);

  0004a	a1 00 00 00 00	 mov	 eax, DWORD PTR ?ms_singleton@?$CSingleton@VCWindowManager@UI@@@@0PAVCWindowManager@UI@@A ; CSingleton<UI::CWindowManager>::ms_singleton
  0004f	89 45 f4	 mov	 DWORD PTR $T1[ebp], eax
; File D:\Metin2 Server Files\mainline\SRC_2014\Metin2Client\eterPythonLib\PythonWindowManagerModule.cpp

; 251  : 	UI::CWindow * pWindow = UI::CWindowManager::Instance().RegisterLine(po, szLayer);

  00052	ff 75 fc	 push	 DWORD PTR _szLayer$[ebp]
  00055	ff 75 f8	 push	 DWORD PTR _po$[ebp]
  00058	8b 4d f4	 mov	 ecx, DWORD PTR $T1[ebp]
  0005b	e8 00 00 00 00	 call	 ?RegisterLine@CWindowManager@UI@@QAEPAVCWindow@2@PAU_object@@PBD@Z ; UI::CWindowManager::RegisterLine
  00060	89 45 f0	 mov	 DWORD PTR _pWindow$[ebp], eax

; 252  : 	return Py_BuildValue("i", pWindow);

  00063	ff 75 f0	 push	 DWORD PTR _pWindow$[ebp]
  00066	68 00 00 00 00	 push	 OFFSET ??_C@_01KBJDNOO@i@
  0006b	ff 15 00 00 00
	00		 call	 DWORD PTR __imp__Py_BuildValue
  00071	59		 pop	 ecx
  00072	59		 pop	 ecx
$LN1@wndMgrRegi:

; 253  : }

  00073	c9		 leave
  00074	c3		 ret	 0
?wndMgrRegisterLine@@YAPAU_object@@PAU1@0@Z ENDP	; wndMgrRegisterLine
_TEXT	ENDS
; Function compile flags: /Odspy
; File D:\Metin2 Server Files\mainline\SRC_2014\Metin2Client\eterPythonLib\PythonWindowManagerModule.cpp
; File D:\Metin2 Server Files\mainline\SRC_2014\Metin2Client\eterBase\Singleton.h
; File D:\Metin2 Server Files\mainline\SRC_2014\Metin2Client\eterPythonLib\PythonWindowManagerModule.cpp
;	COMDAT ?wndMgrRegisterBar@@YAPAU_object@@PAU1@0@Z
_TEXT	SEGMENT
_pWindow$ = -16						; size = 4
$T1 = -12						; size = 4
_po$ = -8						; size = 4
_szLayer$ = -4						; size = 4
_poSelf$ = 8						; size = 4
_poArgs$ = 12						; size = 4
?wndMgrRegisterBar@@YAPAU_object@@PAU1@0@Z PROC		; wndMgrRegisterBar, COMDAT

; 229  : {

  00000	55		 push	 ebp
  00001	8b ec		 mov	 ebp, esp
  00003	83 ec 10	 sub	 esp, 16			; 00000010H

; 230  : 	PyObject * po;
; 231  : 	if (!PyTuple_GetObject(poArgs, 0, &po))

  00006	8d 45 f8	 lea	 eax, DWORD PTR _po$[ebp]
  00009	50		 push	 eax
  0000a	6a 00		 push	 0
  0000c	ff 75 0c	 push	 DWORD PTR _poArgs$[ebp]
  0000f	e8 00 00 00 00	 call	 ?PyTuple_GetObject@@YA_NPAU_object@@HPAPAU1@@Z ; PyTuple_GetObject
  00014	83 c4 0c	 add	 esp, 12			; 0000000cH
  00017	0f b6 c0	 movzx	 eax, al
  0001a	85 c0		 test	 eax, eax
  0001c	75 0a		 jne	 SHORT $LN2@wndMgrRegi

; 232  : 		return Py_BuildException();

  0001e	6a 00		 push	 0
  00020	e8 00 00 00 00	 call	 ?Py_BuildException@@YAPAU_object@@PBDZZ ; Py_BuildException
  00025	59		 pop	 ecx
  00026	eb 4b		 jmp	 SHORT $LN1@wndMgrRegi
$LN2@wndMgrRegi:

; 233  : 	char * szLayer;
; 234  : 	if (!PyTuple_GetString(poArgs, 1, &szLayer))

  00028	8d 45 fc	 lea	 eax, DWORD PTR _szLayer$[ebp]
  0002b	50		 push	 eax
  0002c	6a 01		 push	 1
  0002e	ff 75 0c	 push	 DWORD PTR _poArgs$[ebp]
  00031	e8 00 00 00 00	 call	 ?PyTuple_GetString@@YA_NPAU_object@@HPAPAD@Z ; PyTuple_GetString
  00036	83 c4 0c	 add	 esp, 12			; 0000000cH
  00039	0f b6 c0	 movzx	 eax, al
  0003c	85 c0		 test	 eax, eax
  0003e	75 0a		 jne	 SHORT $LN3@wndMgrRegi

; 235  : 		return Py_BuildException();

  00040	6a 00		 push	 0
  00042	e8 00 00 00 00	 call	 ?Py_BuildException@@YAPAU_object@@PBDZZ ; Py_BuildException
  00047	59		 pop	 ecx
  00048	eb 29		 jmp	 SHORT $LN1@wndMgrRegi
$LN3@wndMgrRegi:
; File D:\Metin2 Server Files\mainline\SRC_2014\Metin2Client\eterBase\Singleton.h

; 27   : 		return (*ms_singleton);

  0004a	a1 00 00 00 00	 mov	 eax, DWORD PTR ?ms_singleton@?$CSingleton@VCWindowManager@UI@@@@0PAVCWindowManager@UI@@A ; CSingleton<UI::CWindowManager>::ms_singleton
  0004f	89 45 f4	 mov	 DWORD PTR $T1[ebp], eax
; File D:\Metin2 Server Files\mainline\SRC_2014\Metin2Client\eterPythonLib\PythonWindowManagerModule.cpp

; 237  : 	UI::CWindow * pWindow = UI::CWindowManager::Instance().RegisterBar(po, szLayer);

  00052	ff 75 fc	 push	 DWORD PTR _szLayer$[ebp]
  00055	ff 75 f8	 push	 DWORD PTR _po$[ebp]
  00058	8b 4d f4	 mov	 ecx, DWORD PTR $T1[ebp]
  0005b	e8 00 00 00 00	 call	 ?RegisterBar@CWindowManager@UI@@QAEPAVCWindow@2@PAU_object@@PBD@Z ; UI::CWindowManager::RegisterBar
  00060	89 45 f0	 mov	 DWORD PTR _pWindow$[ebp], eax

; 238  : 	return Py_BuildValue("i", pWindow);

  00063	ff 75 f0	 push	 DWORD PTR _pWindow$[ebp]
  00066	68 00 00 00 00	 push	 OFFSET ??_C@_01KBJDNOO@i@
  0006b	ff 15 00 00 00
	00		 call	 DWORD PTR __imp__Py_BuildValue
  00071	59		 pop	 ecx
  00072	59		 pop	 ecx
$LN1@wndMgrRegi:

; 239  : }

  00073	c9		 leave
  00074	c3		 ret	 0
?wndMgrRegisterBar@@YAPAU_object@@PAU1@0@Z ENDP		; wndMgrRegisterBar
_TEXT	ENDS
; Function compile flags: /Odspy
; File D:\Metin2 Server Files\mainline\SRC_2014\Metin2Client\eterPythonLib\PythonWindowManagerModule.cpp
; File D:\Metin2 Server Files\mainline\SRC_2014\Metin2Client\eterBase\Singleton.h
; File D:\Metin2 Server Files\mainline\SRC_2014\Metin2Client\eterPythonLib\PythonWindowManagerModule.cpp
;	COMDAT ?wndMgrRegisterBox@@YAPAU_object@@PAU1@0@Z
_TEXT	SEGMENT
_pWindow$ = -16						; size = 4
$T1 = -12						; size = 4
_po$ = -8						; size = 4
_szLayer$ = -4						; size = 4
_poSelf$ = 8						; size = 4
_poArgs$ = 12						; size = 4
?wndMgrRegisterBox@@YAPAU_object@@PAU1@0@Z PROC		; wndMgrRegisterBox, COMDAT

; 215  : {

  00000	55		 push	 ebp
  00001	8b ec		 mov	 ebp, esp
  00003	83 ec 10	 sub	 esp, 16			; 00000010H

; 216  : 	PyObject * po;
; 217  : 	if (!PyTuple_GetObject(poArgs, 0, &po))

  00006	8d 45 f8	 lea	 eax, DWORD PTR _po$[ebp]
  00009	50		 push	 eax
  0000a	6a 00		 push	 0
  0000c	ff 75 0c	 push	 DWORD PTR _poArgs$[ebp]
  0000f	e8 00 00 00 00	 call	 ?PyTuple_GetObject@@YA_NPAU_object@@HPAPAU1@@Z ; PyTuple_GetObject
  00014	83 c4 0c	 add	 esp, 12			; 0000000cH
  00017	0f b6 c0	 movzx	 eax, al
  0001a	85 c0		 test	 eax, eax
  0001c	75 0a		 jne	 SHORT $LN2@wndMgrRegi

; 218  : 		return Py_BuildException();

  0001e	6a 00		 push	 0
  00020	e8 00 00 00 00	 call	 ?Py_BuildException@@YAPAU_object@@PBDZZ ; Py_BuildException
  00025	59		 pop	 ecx
  00026	eb 4b		 jmp	 SHORT $LN1@wndMgrRegi
$LN2@wndMgrRegi:

; 219  : 	char * szLayer;
; 220  : 	if (!PyTuple_GetString(poArgs, 1, &szLayer))

  00028	8d 45 fc	 lea	 eax, DWORD PTR _szLayer$[ebp]
  0002b	50		 push	 eax
  0002c	6a 01		 push	 1
  0002e	ff 75 0c	 push	 DWORD PTR _poArgs$[ebp]
  00031	e8 00 00 00 00	 call	 ?PyTuple_GetString@@YA_NPAU_object@@HPAPAD@Z ; PyTuple_GetString
  00036	83 c4 0c	 add	 esp, 12			; 0000000cH
  00039	0f b6 c0	 movzx	 eax, al
  0003c	85 c0		 test	 eax, eax
  0003e	75 0a		 jne	 SHORT $LN3@wndMgrRegi

; 221  : 		return Py_BuildException();

  00040	6a 00		 push	 0
  00042	e8 00 00 00 00	 call	 ?Py_BuildException@@YAPAU_object@@PBDZZ ; Py_BuildException
  00047	59		 pop	 ecx
  00048	eb 29		 jmp	 SHORT $LN1@wndMgrRegi
$LN3@wndMgrRegi:
; File D:\Metin2 Server Files\mainline\SRC_2014\Metin2Client\eterBase\Singleton.h

; 27   : 		return (*ms_singleton);

  0004a	a1 00 00 00 00	 mov	 eax, DWORD PTR ?ms_singleton@?$CSingleton@VCWindowManager@UI@@@@0PAVCWindowManager@UI@@A ; CSingleton<UI::CWindowManager>::ms_singleton
  0004f	89 45 f4	 mov	 DWORD PTR $T1[ebp], eax
; File D:\Metin2 Server Files\mainline\SRC_2014\Metin2Client\eterPythonLib\PythonWindowManagerModule.cpp

; 223  : 	UI::CWindow * pWindow = UI::CWindowManager::Instance().RegisterBox(po, szLayer);

  00052	ff 75 fc	 push	 DWORD PTR _szLayer$[ebp]
  00055	ff 75 f8	 push	 DWORD PTR _po$[ebp]
  00058	8b 4d f4	 mov	 ecx, DWORD PTR $T1[ebp]
  0005b	e8 00 00 00 00	 call	 ?RegisterBox@CWindowManager@UI@@QAEPAVCWindow@2@PAU_object@@PBD@Z ; UI::CWindowManager::RegisterBox
  00060	89 45 f0	 mov	 DWORD PTR _pWindow$[ebp], eax

; 224  : 	return Py_BuildValue("i", pWindow);

  00063	ff 75 f0	 push	 DWORD PTR _pWindow$[ebp]
  00066	68 00 00 00 00	 push	 OFFSET ??_C@_01KBJDNOO@i@
  0006b	ff 15 00 00 00
	00		 call	 DWORD PTR __imp__Py_BuildValue
  00071	59		 pop	 ecx
  00072	59		 pop	 ecx
$LN1@wndMgrRegi:

; 225  : }

  00073	c9		 leave
  00074	c3		 ret	 0
?wndMgrRegisterBox@@YAPAU_object@@PAU1@0@Z ENDP		; wndMgrRegisterBox
_TEXT	ENDS
; Function compile flags: /Odspy
; File D:\Metin2 Server Files\mainline\SRC_2014\Metin2Client\eterPythonLib\PythonWindowManagerModule.cpp
; File D:\Metin2 Server Files\mainline\SRC_2014\Metin2Client\eterBase\Singleton.h
; File D:\Metin2 Server Files\mainline\SRC_2014\Metin2Client\eterPythonLib\PythonWindowManagerModule.cpp
;	COMDAT ?wndMgrRegisterDragButton@@YAPAU_object@@PAU1@0@Z
_TEXT	SEGMENT
_pWindow$ = -16						; size = 4
$T1 = -12						; size = 4
_po$ = -8						; size = 4
_szLayer$ = -4						; size = 4
_poSelf$ = 8						; size = 4
_poArgs$ = 12						; size = 4
?wndMgrRegisterDragButton@@YAPAU_object@@PAU1@0@Z PROC	; wndMgrRegisterDragButton, COMDAT

; 201  : {

  00000	55		 push	 ebp
  00001	8b ec		 mov	 ebp, esp
  00003	83 ec 10	 sub	 esp, 16			; 00000010H

; 202  : 	PyObject * po;
; 203  : 	if (!PyTuple_GetObject(poArgs, 0, &po))

  00006	8d 45 f8	 lea	 eax, DWORD PTR _po$[ebp]
  00009	50		 push	 eax
  0000a	6a 00		 push	 0
  0000c	ff 75 0c	 push	 DWORD PTR _poArgs$[ebp]
  0000f	e8 00 00 00 00	 call	 ?PyTuple_GetObject@@YA_NPAU_object@@HPAPAU1@@Z ; PyTuple_GetObject
  00014	83 c4 0c	 add	 esp, 12			; 0000000cH
  00017	0f b6 c0	 movzx	 eax, al
  0001a	85 c0		 test	 eax, eax
  0001c	75 0a		 jne	 SHORT $LN2@wndMgrRegi

; 204  : 		return Py_BuildException();

  0001e	6a 00		 push	 0
  00020	e8 00 00 00 00	 call	 ?Py_BuildException@@YAPAU_object@@PBDZZ ; Py_BuildException
  00025	59		 pop	 ecx
  00026	eb 4b		 jmp	 SHORT $LN1@wndMgrRegi
$LN2@wndMgrRegi:

; 205  : 	char * szLayer;
; 206  : 	if (!PyTuple_GetString(poArgs, 1, &szLayer))

  00028	8d 45 fc	 lea	 eax, DWORD PTR _szLayer$[ebp]
  0002b	50		 push	 eax
  0002c	6a 01		 push	 1
  0002e	ff 75 0c	 push	 DWORD PTR _poArgs$[ebp]
  00031	e8 00 00 00 00	 call	 ?PyTuple_GetString@@YA_NPAU_object@@HPAPAD@Z ; PyTuple_GetString
  00036	83 c4 0c	 add	 esp, 12			; 0000000cH
  00039	0f b6 c0	 movzx	 eax, al
  0003c	85 c0		 test	 eax, eax
  0003e	75 0a		 jne	 SHORT $LN3@wndMgrRegi

; 207  : 		return Py_BuildException();

  00040	6a 00		 push	 0
  00042	e8 00 00 00 00	 call	 ?Py_BuildException@@YAPAU_object@@PBDZZ ; Py_BuildException
  00047	59		 pop	 ecx
  00048	eb 29		 jmp	 SHORT $LN1@wndMgrRegi
$LN3@wndMgrRegi:
; File D:\Metin2 Server Files\mainline\SRC_2014\Metin2Client\eterBase\Singleton.h

; 27   : 		return (*ms_singleton);

  0004a	a1 00 00 00 00	 mov	 eax, DWORD PTR ?ms_singleton@?$CSingleton@VCWindowManager@UI@@@@0PAVCWindowManager@UI@@A ; CSingleton<UI::CWindowManager>::ms_singleton
  0004f	89 45 f4	 mov	 DWORD PTR $T1[ebp], eax
; File D:\Metin2 Server Files\mainline\SRC_2014\Metin2Client\eterPythonLib\PythonWindowManagerModule.cpp

; 209  : 	UI::CWindow * pWindow = UI::CWindowManager::Instance().RegisterDragButton(po, szLayer);

  00052	ff 75 fc	 push	 DWORD PTR _szLayer$[ebp]
  00055	ff 75 f8	 push	 DWORD PTR _po$[ebp]
  00058	8b 4d f4	 mov	 ecx, DWORD PTR $T1[ebp]
  0005b	e8 00 00 00 00	 call	 ?RegisterDragButton@CWindowManager@UI@@QAEPAVCWindow@2@PAU_object@@PBD@Z ; UI::CWindowManager::RegisterDragButton
  00060	89 45 f0	 mov	 DWORD PTR _pWindow$[ebp], eax

; 210  : 	return Py_BuildValue("i", pWindow);

  00063	ff 75 f0	 push	 DWORD PTR _pWindow$[ebp]
  00066	68 00 00 00 00	 push	 OFFSET ??_C@_01KBJDNOO@i@
  0006b	ff 15 00 00 00
	00		 call	 DWORD PTR __imp__Py_BuildValue
  00071	59		 pop	 ecx
  00072	59		 pop	 ecx
$LN1@wndMgrRegi:

; 211  : }

  00073	c9		 leave
  00074	c3		 ret	 0
?wndMgrRegisterDragButton@@YAPAU_object@@PAU1@0@Z ENDP	; wndMgrRegisterDragButton
_TEXT	ENDS
; Function compile flags: /Odspy
; File D:\Metin2 Server Files\mainline\SRC_2014\Metin2Client\eterPythonLib\PythonWindowManagerModule.cpp
; File D:\Metin2 Server Files\mainline\SRC_2014\Metin2Client\eterBase\Singleton.h
; File D:\Metin2 Server Files\mainline\SRC_2014\Metin2Client\eterPythonLib\PythonWindowManagerModule.cpp
;	COMDAT ?wndMgrRegisterToggleButton@@YAPAU_object@@PAU1@0@Z
_TEXT	SEGMENT
_pWindow$ = -16						; size = 4
$T1 = -12						; size = 4
_po$ = -8						; size = 4
_szLayer$ = -4						; size = 4
_poSelf$ = 8						; size = 4
_poArgs$ = 12						; size = 4
?wndMgrRegisterToggleButton@@YAPAU_object@@PAU1@0@Z PROC ; wndMgrRegisterToggleButton, COMDAT

; 187  : {

  00000	55		 push	 ebp
  00001	8b ec		 mov	 ebp, esp
  00003	83 ec 10	 sub	 esp, 16			; 00000010H

; 188  : 	PyObject * po;
; 189  : 	if (!PyTuple_GetObject(poArgs, 0, &po))

  00006	8d 45 f8	 lea	 eax, DWORD PTR _po$[ebp]
  00009	50		 push	 eax
  0000a	6a 00		 push	 0
  0000c	ff 75 0c	 push	 DWORD PTR _poArgs$[ebp]
  0000f	e8 00 00 00 00	 call	 ?PyTuple_GetObject@@YA_NPAU_object@@HPAPAU1@@Z ; PyTuple_GetObject
  00014	83 c4 0c	 add	 esp, 12			; 0000000cH
  00017	0f b6 c0	 movzx	 eax, al
  0001a	85 c0		 test	 eax, eax
  0001c	75 0a		 jne	 SHORT $LN2@wndMgrRegi

; 190  : 		return Py_BuildException();

  0001e	6a 00		 push	 0
  00020	e8 00 00 00 00	 call	 ?Py_BuildException@@YAPAU_object@@PBDZZ ; Py_BuildException
  00025	59		 pop	 ecx
  00026	eb 4b		 jmp	 SHORT $LN1@wndMgrRegi
$LN2@wndMgrRegi:

; 191  : 	char * szLayer;
; 192  : 	if (!PyTuple_GetString(poArgs, 1, &szLayer))

  00028	8d 45 fc	 lea	 eax, DWORD PTR _szLayer$[ebp]
  0002b	50		 push	 eax
  0002c	6a 01		 push	 1
  0002e	ff 75 0c	 push	 DWORD PTR _poArgs$[ebp]
  00031	e8 00 00 00 00	 call	 ?PyTuple_GetString@@YA_NPAU_object@@HPAPAD@Z ; PyTuple_GetString
  00036	83 c4 0c	 add	 esp, 12			; 0000000cH
  00039	0f b6 c0	 movzx	 eax, al
  0003c	85 c0		 test	 eax, eax
  0003e	75 0a		 jne	 SHORT $LN3@wndMgrRegi

; 193  : 		return Py_BuildException();

  00040	6a 00		 push	 0
  00042	e8 00 00 00 00	 call	 ?Py_BuildException@@YAPAU_object@@PBDZZ ; Py_BuildException
  00047	59		 pop	 ecx
  00048	eb 29		 jmp	 SHORT $LN1@wndMgrRegi
$LN3@wndMgrRegi:
; File D:\Metin2 Server Files\mainline\SRC_2014\Metin2Client\eterBase\Singleton.h

; 27   : 		return (*ms_singleton);

  0004a	a1 00 00 00 00	 mov	 eax, DWORD PTR ?ms_singleton@?$CSingleton@VCWindowManager@UI@@@@0PAVCWindowManager@UI@@A ; CSingleton<UI::CWindowManager>::ms_singleton
  0004f	89 45 f4	 mov	 DWORD PTR $T1[ebp], eax
; File D:\Metin2 Server Files\mainline\SRC_2014\Metin2Client\eterPythonLib\PythonWindowManagerModule.cpp

; 195  : 	UI::CWindow * pWindow = UI::CWindowManager::Instance().RegisterToggleButton(po, szLayer);

  00052	ff 75 fc	 push	 DWORD PTR _szLayer$[ebp]
  00055	ff 75 f8	 push	 DWORD PTR _po$[ebp]
  00058	8b 4d f4	 mov	 ecx, DWORD PTR $T1[ebp]
  0005b	e8 00 00 00 00	 call	 ?RegisterToggleButton@CWindowManager@UI@@QAEPAVCWindow@2@PAU_object@@PBD@Z ; UI::CWindowManager::RegisterToggleButton
  00060	89 45 f0	 mov	 DWORD PTR _pWindow$[ebp], eax

; 196  : 	return Py_BuildValue("i", pWindow);

  00063	ff 75 f0	 push	 DWORD PTR _pWindow$[ebp]
  00066	68 00 00 00 00	 push	 OFFSET ??_C@_01KBJDNOO@i@
  0006b	ff 15 00 00 00
	00		 call	 DWORD PTR __imp__Py_BuildValue
  00071	59		 pop	 ecx
  00072	59		 pop	 ecx
$LN1@wndMgrRegi:

; 197  : }

  00073	c9		 leave
  00074	c3		 ret	 0
?wndMgrRegisterToggleButton@@YAPAU_object@@PAU1@0@Z ENDP ; wndMgrRegisterToggleButton
_TEXT	ENDS
; Function compile flags: /Odspy
; File D:\Metin2 Server Files\mainline\SRC_2014\Metin2Client\eterPythonLib\PythonWindowManagerModule.cpp
; File D:\Metin2 Server Files\mainline\SRC_2014\Metin2Client\eterBase\Singleton.h
; File D:\Metin2 Server Files\mainline\SRC_2014\Metin2Client\eterPythonLib\PythonWindowManagerModule.cpp
;	COMDAT ?wndMgrRegisterRadioButton@@YAPAU_object@@PAU1@0@Z
_TEXT	SEGMENT
_pWindow$ = -16						; size = 4
$T1 = -12						; size = 4
_po$ = -8						; size = 4
_szLayer$ = -4						; size = 4
_poSelf$ = 8						; size = 4
_poArgs$ = 12						; size = 4
?wndMgrRegisterRadioButton@@YAPAU_object@@PAU1@0@Z PROC	; wndMgrRegisterRadioButton, COMDAT

; 173  : {

  00000	55		 push	 ebp
  00001	8b ec		 mov	 ebp, esp
  00003	83 ec 10	 sub	 esp, 16			; 00000010H

; 174  : 	PyObject * po;
; 175  : 	if (!PyTuple_GetObject(poArgs, 0, &po))

  00006	8d 45 f8	 lea	 eax, DWORD PTR _po$[ebp]
  00009	50		 push	 eax
  0000a	6a 00		 push	 0
  0000c	ff 75 0c	 push	 DWORD PTR _poArgs$[ebp]
  0000f	e8 00 00 00 00	 call	 ?PyTuple_GetObject@@YA_NPAU_object@@HPAPAU1@@Z ; PyTuple_GetObject
  00014	83 c4 0c	 add	 esp, 12			; 0000000cH
  00017	0f b6 c0	 movzx	 eax, al
  0001a	85 c0		 test	 eax, eax
  0001c	75 0a		 jne	 SHORT $LN2@wndMgrRegi

; 176  : 		return Py_BuildException();

  0001e	6a 00		 push	 0
  00020	e8 00 00 00 00	 call	 ?Py_BuildException@@YAPAU_object@@PBDZZ ; Py_BuildException
  00025	59		 pop	 ecx
  00026	eb 4b		 jmp	 SHORT $LN1@wndMgrRegi
$LN2@wndMgrRegi:

; 177  : 	char * szLayer;
; 178  : 	if (!PyTuple_GetString(poArgs, 1, &szLayer))

  00028	8d 45 fc	 lea	 eax, DWORD PTR _szLayer$[ebp]
  0002b	50		 push	 eax
  0002c	6a 01		 push	 1
  0002e	ff 75 0c	 push	 DWORD PTR _poArgs$[ebp]
  00031	e8 00 00 00 00	 call	 ?PyTuple_GetString@@YA_NPAU_object@@HPAPAD@Z ; PyTuple_GetString
  00036	83 c4 0c	 add	 esp, 12			; 0000000cH
  00039	0f b6 c0	 movzx	 eax, al
  0003c	85 c0		 test	 eax, eax
  0003e	75 0a		 jne	 SHORT $LN3@wndMgrRegi

; 179  : 		return Py_BuildException();

  00040	6a 00		 push	 0
  00042	e8 00 00 00 00	 call	 ?Py_BuildException@@YAPAU_object@@PBDZZ ; Py_BuildException
  00047	59		 pop	 ecx
  00048	eb 29		 jmp	 SHORT $LN1@wndMgrRegi
$LN3@wndMgrRegi:
; File D:\Metin2 Server Files\mainline\SRC_2014\Metin2Client\eterBase\Singleton.h

; 27   : 		return (*ms_singleton);

  0004a	a1 00 00 00 00	 mov	 eax, DWORD PTR ?ms_singleton@?$CSingleton@VCWindowManager@UI@@@@0PAVCWindowManager@UI@@A ; CSingleton<UI::CWindowManager>::ms_singleton
  0004f	89 45 f4	 mov	 DWORD PTR $T1[ebp], eax
; File D:\Metin2 Server Files\mainline\SRC_2014\Metin2Client\eterPythonLib\PythonWindowManagerModule.cpp

; 181  : 	UI::CWindow * pWindow = UI::CWindowManager::Instance().RegisterRadioButton(po, szLayer);

  00052	ff 75 fc	 push	 DWORD PTR _szLayer$[ebp]
  00055	ff 75 f8	 push	 DWORD PTR _po$[ebp]
  00058	8b 4d f4	 mov	 ecx, DWORD PTR $T1[ebp]
  0005b	e8 00 00 00 00	 call	 ?RegisterRadioButton@CWindowManager@UI@@QAEPAVCWindow@2@PAU_object@@PBD@Z ; UI::CWindowManager::RegisterRadioButton
  00060	89 45 f0	 mov	 DWORD PTR _pWindow$[ebp], eax

; 182  : 	return Py_BuildValue("i", pWindow);

  00063	ff 75 f0	 push	 DWORD PTR _pWindow$[ebp]
  00066	68 00 00 00 00	 push	 OFFSET ??_C@_01KBJDNOO@i@
  0006b	ff 15 00 00 00
	00		 call	 DWORD PTR __imp__Py_BuildValue
  00071	59		 pop	 ecx
  00072	59		 pop	 ecx
$LN1@wndMgrRegi:

; 183  : }

  00073	c9		 leave
  00074	c3		 ret	 0
?wndMgrRegisterRadioButton@@YAPAU_object@@PAU1@0@Z ENDP	; wndMgrRegisterRadioButton
_TEXT	ENDS
; Function compile flags: /Odspy
; File D:\Metin2 Server Files\mainline\SRC_2014\Metin2Client\eterPythonLib\PythonWindowManagerModule.cpp
; File D:\Metin2 Server Files\mainline\SRC_2014\Metin2Client\eterBase\Singleton.h
; File D:\Metin2 Server Files\mainline\SRC_2014\Metin2Client\eterPythonLib\PythonWindowManagerModule.cpp
;	COMDAT ?wndMgrRegisterButton@@YAPAU_object@@PAU1@0@Z
_TEXT	SEGMENT
_pWindow$ = -16						; size = 4
$T1 = -12						; size = 4
_po$ = -8						; size = 4
_szLayer$ = -4						; size = 4
_poSelf$ = 8						; size = 4
_poArgs$ = 12						; size = 4
?wndMgrRegisterButton@@YAPAU_object@@PAU1@0@Z PROC	; wndMgrRegisterButton, COMDAT

; 159  : {

  00000	55		 push	 ebp
  00001	8b ec		 mov	 ebp, esp
  00003	83 ec 10	 sub	 esp, 16			; 00000010H

; 160  : 	PyObject * po;
; 161  : 	if (!PyTuple_GetObject(poArgs, 0, &po))

  00006	8d 45 f8	 lea	 eax, DWORD PTR _po$[ebp]
  00009	50		 push	 eax
  0000a	6a 00		 push	 0
  0000c	ff 75 0c	 push	 DWORD PTR _poArgs$[ebp]
  0000f	e8 00 00 00 00	 call	 ?PyTuple_GetObject@@YA_NPAU_object@@HPAPAU1@@Z ; PyTuple_GetObject
  00014	83 c4 0c	 add	 esp, 12			; 0000000cH
  00017	0f b6 c0	 movzx	 eax, al
  0001a	85 c0		 test	 eax, eax
  0001c	75 0a		 jne	 SHORT $LN2@wndMgrRegi

; 162  : 		return Py_BuildException();

  0001e	6a 00		 push	 0
  00020	e8 00 00 00 00	 call	 ?Py_BuildException@@YAPAU_object@@PBDZZ ; Py_BuildException
  00025	59		 pop	 ecx
  00026	eb 4b		 jmp	 SHORT $LN1@wndMgrRegi
$LN2@wndMgrRegi:

; 163  : 	char * szLayer;
; 164  : 	if (!PyTuple_GetString(poArgs, 1, &szLayer))

  00028	8d 45 fc	 lea	 eax, DWORD PTR _szLayer$[ebp]
  0002b	50		 push	 eax
  0002c	6a 01		 push	 1
  0002e	ff 75 0c	 push	 DWORD PTR _poArgs$[ebp]
  00031	e8 00 00 00 00	 call	 ?PyTuple_GetString@@YA_NPAU_object@@HPAPAD@Z ; PyTuple_GetString
  00036	83 c4 0c	 add	 esp, 12			; 0000000cH
  00039	0f b6 c0	 movzx	 eax, al
  0003c	85 c0		 test	 eax, eax
  0003e	75 0a		 jne	 SHORT $LN3@wndMgrRegi

; 165  : 		return Py_BuildException();

  00040	6a 00		 push	 0
  00042	e8 00 00 00 00	 call	 ?Py_BuildException@@YAPAU_object@@PBDZZ ; Py_BuildException
  00047	59		 pop	 ecx
  00048	eb 29		 jmp	 SHORT $LN1@wndMgrRegi
$LN3@wndMgrRegi:
; File D:\Metin2 Server Files\mainline\SRC_2014\Metin2Client\eterBase\Singleton.h

; 27   : 		return (*ms_singleton);

  0004a	a1 00 00 00 00	 mov	 eax, DWORD PTR ?ms_singleton@?$CSingleton@VCWindowManager@UI@@@@0PAVCWindowManager@UI@@A ; CSingleton<UI::CWindowManager>::ms_singleton
  0004f	89 45 f4	 mov	 DWORD PTR $T1[ebp], eax
; File D:\Metin2 Server Files\mainline\SRC_2014\Metin2Client\eterPythonLib\PythonWindowManagerModule.cpp

; 167  : 	UI::CWindow * pWindow = UI::CWindowManager::Instance().RegisterButton(po, szLayer);

  00052	ff 75 fc	 push	 DWORD PTR _szLayer$[ebp]
  00055	ff 75 f8	 push	 DWORD PTR _po$[ebp]
  00058	8b 4d f4	 mov	 ecx, DWORD PTR $T1[ebp]
  0005b	e8 00 00 00 00	 call	 ?RegisterButton@CWindowManager@UI@@QAEPAVCWindow@2@PAU_object@@PBD@Z ; UI::CWindowManager::RegisterButton
  00060	89 45 f0	 mov	 DWORD PTR _pWindow$[ebp], eax

; 168  : 	return Py_BuildValue("i", pWindow);

  00063	ff 75 f0	 push	 DWORD PTR _pWindow$[ebp]
  00066	68 00 00 00 00	 push	 OFFSET ??_C@_01KBJDNOO@i@
  0006b	ff 15 00 00 00
	00		 call	 DWORD PTR __imp__Py_BuildValue
  00071	59		 pop	 ecx
  00072	59		 pop	 ecx
$LN1@wndMgrRegi:

; 169  : }

  00073	c9		 leave
  00074	c3		 ret	 0
?wndMgrRegisterButton@@YAPAU_object@@PAU1@0@Z ENDP	; wndMgrRegisterButton
_TEXT	ENDS
; Function compile flags: /Odspy
; File D:\Metin2 Server Files\mainline\SRC_2014\Metin2Client\eterPythonLib\PythonWindowManagerModule.cpp
; File D:\Metin2 Server Files\mainline\SRC_2014\Metin2Client\eterBase\Singleton.h
; File D:\Metin2 Server Files\mainline\SRC_2014\Metin2Client\eterPythonLib\PythonWindowManagerModule.cpp
;	COMDAT ?wndMgrRegisterAniImageBox@@YAPAU_object@@PAU1@0@Z
_TEXT	SEGMENT
_pWindow$ = -16						; size = 4
$T1 = -12						; size = 4
_po$ = -8						; size = 4
_szLayer$ = -4						; size = 4
_poSelf$ = 8						; size = 4
_poArgs$ = 12						; size = 4
?wndMgrRegisterAniImageBox@@YAPAU_object@@PAU1@0@Z PROC	; wndMgrRegisterAniImageBox, COMDAT

; 145  : {

  00000	55		 push	 ebp
  00001	8b ec		 mov	 ebp, esp
  00003	83 ec 10	 sub	 esp, 16			; 00000010H

; 146  : 	PyObject * po;
; 147  : 	if (!PyTuple_GetObject(poArgs, 0, &po))

  00006	8d 45 f8	 lea	 eax, DWORD PTR _po$[ebp]
  00009	50		 push	 eax
  0000a	6a 00		 push	 0
  0000c	ff 75 0c	 push	 DWORD PTR _poArgs$[ebp]
  0000f	e8 00 00 00 00	 call	 ?PyTuple_GetObject@@YA_NPAU_object@@HPAPAU1@@Z ; PyTuple_GetObject
  00014	83 c4 0c	 add	 esp, 12			; 0000000cH
  00017	0f b6 c0	 movzx	 eax, al
  0001a	85 c0		 test	 eax, eax
  0001c	75 0a		 jne	 SHORT $LN2@wndMgrRegi

; 148  : 		return Py_BuildException();

  0001e	6a 00		 push	 0
  00020	e8 00 00 00 00	 call	 ?Py_BuildException@@YAPAU_object@@PBDZZ ; Py_BuildException
  00025	59		 pop	 ecx
  00026	eb 4b		 jmp	 SHORT $LN1@wndMgrRegi
$LN2@wndMgrRegi:

; 149  : 	char * szLayer;
; 150  : 	if (!PyTuple_GetString(poArgs, 1, &szLayer))

  00028	8d 45 fc	 lea	 eax, DWORD PTR _szLayer$[ebp]
  0002b	50		 push	 eax
  0002c	6a 01		 push	 1
  0002e	ff 75 0c	 push	 DWORD PTR _poArgs$[ebp]
  00031	e8 00 00 00 00	 call	 ?PyTuple_GetString@@YA_NPAU_object@@HPAPAD@Z ; PyTuple_GetString
  00036	83 c4 0c	 add	 esp, 12			; 0000000cH
  00039	0f b6 c0	 movzx	 eax, al
  0003c	85 c0		 test	 eax, eax
  0003e	75 0a		 jne	 SHORT $LN3@wndMgrRegi

; 151  : 		return Py_BuildException();

  00040	6a 00		 push	 0
  00042	e8 00 00 00 00	 call	 ?Py_BuildException@@YAPAU_object@@PBDZZ ; Py_BuildException
  00047	59		 pop	 ecx
  00048	eb 29		 jmp	 SHORT $LN1@wndMgrRegi
$LN3@wndMgrRegi:
; File D:\Metin2 Server Files\mainline\SRC_2014\Metin2Client\eterBase\Singleton.h

; 27   : 		return (*ms_singleton);

  0004a	a1 00 00 00 00	 mov	 eax, DWORD PTR ?ms_singleton@?$CSingleton@VCWindowManager@UI@@@@0PAVCWindowManager@UI@@A ; CSingleton<UI::CWindowManager>::ms_singleton
  0004f	89 45 f4	 mov	 DWORD PTR $T1[ebp], eax
; File D:\Metin2 Server Files\mainline\SRC_2014\Metin2Client\eterPythonLib\PythonWindowManagerModule.cpp

; 153  : 	UI::CWindow * pWindow = UI::CWindowManager::Instance().RegisterAniImageBox(po, szLayer);

  00052	ff 75 fc	 push	 DWORD PTR _szLayer$[ebp]
  00055	ff 75 f8	 push	 DWORD PTR _po$[ebp]
  00058	8b 4d f4	 mov	 ecx, DWORD PTR $T1[ebp]
  0005b	e8 00 00 00 00	 call	 ?RegisterAniImageBox@CWindowManager@UI@@QAEPAVCWindow@2@PAU_object@@PBD@Z ; UI::CWindowManager::RegisterAniImageBox
  00060	89 45 f0	 mov	 DWORD PTR _pWindow$[ebp], eax

; 154  : 	return Py_BuildValue("i", pWindow);

  00063	ff 75 f0	 push	 DWORD PTR _pWindow$[ebp]
  00066	68 00 00 00 00	 push	 OFFSET ??_C@_01KBJDNOO@i@
  0006b	ff 15 00 00 00
	00		 call	 DWORD PTR __imp__Py_BuildValue
  00071	59		 pop	 ecx
  00072	59		 pop	 ecx
$LN1@wndMgrRegi:

; 155  : }

  00073	c9		 leave
  00074	c3		 ret	 0
?wndMgrRegisterAniImageBox@@YAPAU_object@@PAU1@0@Z ENDP	; wndMgrRegisterAniImageBox
_TEXT	ENDS
; Function compile flags: /Odspy
; File D:\Metin2 Server Files\mainline\SRC_2014\Metin2Client\eterPythonLib\PythonWindowManagerModule.cpp
; File D:\Metin2 Server Files\mainline\SRC_2014\Metin2Client\eterBase\Singleton.h
; File D:\Metin2 Server Files\mainline\SRC_2014\Metin2Client\eterPythonLib\PythonWindowManagerModule.cpp
;	COMDAT ?wndMgrRegisterExpandedImageBox@@YAPAU_object@@PAU1@0@Z
_TEXT	SEGMENT
_pWindow$ = -16						; size = 4
$T1 = -12						; size = 4
_po$ = -8						; size = 4
_szLayer$ = -4						; size = 4
_poSelf$ = 8						; size = 4
_poArgs$ = 12						; size = 4
?wndMgrRegisterExpandedImageBox@@YAPAU_object@@PAU1@0@Z PROC ; wndMgrRegisterExpandedImageBox, COMDAT

; 131  : {

  00000	55		 push	 ebp
  00001	8b ec		 mov	 ebp, esp
  00003	83 ec 10	 sub	 esp, 16			; 00000010H

; 132  : 	PyObject * po;
; 133  : 	if (!PyTuple_GetObject(poArgs, 0, &po))

  00006	8d 45 f8	 lea	 eax, DWORD PTR _po$[ebp]
  00009	50		 push	 eax
  0000a	6a 00		 push	 0
  0000c	ff 75 0c	 push	 DWORD PTR _poArgs$[ebp]
  0000f	e8 00 00 00 00	 call	 ?PyTuple_GetObject@@YA_NPAU_object@@HPAPAU1@@Z ; PyTuple_GetObject
  00014	83 c4 0c	 add	 esp, 12			; 0000000cH
  00017	0f b6 c0	 movzx	 eax, al
  0001a	85 c0		 test	 eax, eax
  0001c	75 0a		 jne	 SHORT $LN2@wndMgrRegi

; 134  : 		return Py_BuildException();

  0001e	6a 00		 push	 0
  00020	e8 00 00 00 00	 call	 ?Py_BuildException@@YAPAU_object@@PBDZZ ; Py_BuildException
  00025	59		 pop	 ecx
  00026	eb 4b		 jmp	 SHORT $LN1@wndMgrRegi
$LN2@wndMgrRegi:

; 135  : 	char * szLayer;
; 136  : 	if (!PyTuple_GetString(poArgs, 1, &szLayer))

  00028	8d 45 fc	 lea	 eax, DWORD PTR _szLayer$[ebp]
  0002b	50		 push	 eax
  0002c	6a 01		 push	 1
  0002e	ff 75 0c	 push	 DWORD PTR _poArgs$[ebp]
  00031	e8 00 00 00 00	 call	 ?PyTuple_GetString@@YA_NPAU_object@@HPAPAD@Z ; PyTuple_GetString
  00036	83 c4 0c	 add	 esp, 12			; 0000000cH
  00039	0f b6 c0	 movzx	 eax, al
  0003c	85 c0		 test	 eax, eax
  0003e	75 0a		 jne	 SHORT $LN3@wndMgrRegi

; 137  : 		return Py_BuildException();

  00040	6a 00		 push	 0
  00042	e8 00 00 00 00	 call	 ?Py_BuildException@@YAPAU_object@@PBDZZ ; Py_BuildException
  00047	59		 pop	 ecx
  00048	eb 29		 jmp	 SHORT $LN1@wndMgrRegi
$LN3@wndMgrRegi:
; File D:\Metin2 Server Files\mainline\SRC_2014\Metin2Client\eterBase\Singleton.h

; 27   : 		return (*ms_singleton);

  0004a	a1 00 00 00 00	 mov	 eax, DWORD PTR ?ms_singleton@?$CSingleton@VCWindowManager@UI@@@@0PAVCWindowManager@UI@@A ; CSingleton<UI::CWindowManager>::ms_singleton
  0004f	89 45 f4	 mov	 DWORD PTR $T1[ebp], eax
; File D:\Metin2 Server Files\mainline\SRC_2014\Metin2Client\eterPythonLib\PythonWindowManagerModule.cpp

; 139  : 	UI::CWindow * pWindow = UI::CWindowManager::Instance().RegisterExpandedImageBox(po, szLayer);

  00052	ff 75 fc	 push	 DWORD PTR _szLayer$[ebp]
  00055	ff 75 f8	 push	 DWORD PTR _po$[ebp]
  00058	8b 4d f4	 mov	 ecx, DWORD PTR $T1[ebp]
  0005b	e8 00 00 00 00	 call	 ?RegisterExpandedImageBox@CWindowManager@UI@@QAEPAVCWindow@2@PAU_object@@PBD@Z ; UI::CWindowManager::RegisterExpandedImageBox
  00060	89 45 f0	 mov	 DWORD PTR _pWindow$[ebp], eax

; 140  : 	return Py_BuildValue("i", pWindow);

  00063	ff 75 f0	 push	 DWORD PTR _pWindow$[ebp]
  00066	68 00 00 00 00	 push	 OFFSET ??_C@_01KBJDNOO@i@
  0006b	ff 15 00 00 00
	00		 call	 DWORD PTR __imp__Py_BuildValue
  00071	59		 pop	 ecx
  00072	59		 pop	 ecx
$LN1@wndMgrRegi:

; 141  : }

  00073	c9		 leave
  00074	c3		 ret	 0
?wndMgrRegisterExpandedImageBox@@YAPAU_object@@PAU1@0@Z ENDP ; wndMgrRegisterExpandedImageBox
_TEXT	ENDS
; Function compile flags: /Odspy
; File D:\Metin2 Server Files\mainline\SRC_2014\Metin2Client\eterPythonLib\PythonWindowManagerModule.cpp
; File D:\Metin2 Server Files\mainline\SRC_2014\Metin2Client\eterBase\Singleton.h
; File D:\Metin2 Server Files\mainline\SRC_2014\Metin2Client\eterPythonLib\PythonWindowManagerModule.cpp
;	COMDAT ?wndMgrRegisterImageBox@@YAPAU_object@@PAU1@0@Z
_TEXT	SEGMENT
_pWindow$ = -16						; size = 4
$T1 = -12						; size = 4
_po$ = -8						; size = 4
_szLayer$ = -4						; size = 4
_poSelf$ = 8						; size = 4
_poArgs$ = 12						; size = 4
?wndMgrRegisterImageBox@@YAPAU_object@@PAU1@0@Z PROC	; wndMgrRegisterImageBox, COMDAT

; 117  : {

  00000	55		 push	 ebp
  00001	8b ec		 mov	 ebp, esp
  00003	83 ec 10	 sub	 esp, 16			; 00000010H

; 118  : 	PyObject * po;
; 119  : 	if (!PyTuple_GetObject(poArgs, 0, &po))

  00006	8d 45 f8	 lea	 eax, DWORD PTR _po$[ebp]
  00009	50		 push	 eax
  0000a	6a 00		 push	 0
  0000c	ff 75 0c	 push	 DWORD PTR _poArgs$[ebp]
  0000f	e8 00 00 00 00	 call	 ?PyTuple_GetObject@@YA_NPAU_object@@HPAPAU1@@Z ; PyTuple_GetObject
  00014	83 c4 0c	 add	 esp, 12			; 0000000cH
  00017	0f b6 c0	 movzx	 eax, al
  0001a	85 c0		 test	 eax, eax
  0001c	75 0a		 jne	 SHORT $LN2@wndMgrRegi

; 120  : 		return Py_BuildException();

  0001e	6a 00		 push	 0
  00020	e8 00 00 00 00	 call	 ?Py_BuildException@@YAPAU_object@@PBDZZ ; Py_BuildException
  00025	59		 pop	 ecx
  00026	eb 4b		 jmp	 SHORT $LN1@wndMgrRegi
$LN2@wndMgrRegi:

; 121  : 	char * szLayer;
; 122  : 	if (!PyTuple_GetString(poArgs, 1, &szLayer))

  00028	8d 45 fc	 lea	 eax, DWORD PTR _szLayer$[ebp]
  0002b	50		 push	 eax
  0002c	6a 01		 push	 1
  0002e	ff 75 0c	 push	 DWORD PTR _poArgs$[ebp]
  00031	e8 00 00 00 00	 call	 ?PyTuple_GetString@@YA_NPAU_object@@HPAPAD@Z ; PyTuple_GetString
  00036	83 c4 0c	 add	 esp, 12			; 0000000cH
  00039	0f b6 c0	 movzx	 eax, al
  0003c	85 c0		 test	 eax, eax
  0003e	75 0a		 jne	 SHORT $LN3@wndMgrRegi

; 123  : 		return Py_BuildException();

  00040	6a 00		 push	 0
  00042	e8 00 00 00 00	 call	 ?Py_BuildException@@YAPAU_object@@PBDZZ ; Py_BuildException
  00047	59		 pop	 ecx
  00048	eb 29		 jmp	 SHORT $LN1@wndMgrRegi
$LN3@wndMgrRegi:
; File D:\Metin2 Server Files\mainline\SRC_2014\Metin2Client\eterBase\Singleton.h

; 27   : 		return (*ms_singleton);

  0004a	a1 00 00 00 00	 mov	 eax, DWORD PTR ?ms_singleton@?$CSingleton@VCWindowManager@UI@@@@0PAVCWindowManager@UI@@A ; CSingleton<UI::CWindowManager>::ms_singleton
  0004f	89 45 f4	 mov	 DWORD PTR $T1[ebp], eax
; File D:\Metin2 Server Files\mainline\SRC_2014\Metin2Client\eterPythonLib\PythonWindowManagerModule.cpp

; 125  : 	UI::CWindow * pWindow = UI::CWindowManager::Instance().RegisterImageBox(po, szLayer);

  00052	ff 75 fc	 push	 DWORD PTR _szLayer$[ebp]
  00055	ff 75 f8	 push	 DWORD PTR _po$[ebp]
  00058	8b 4d f4	 mov	 ecx, DWORD PTR $T1[ebp]
  0005b	e8 00 00 00 00	 call	 ?RegisterImageBox@CWindowManager@UI@@QAEPAVCWindow@2@PAU_object@@PBD@Z ; UI::CWindowManager::RegisterImageBox
  00060	89 45 f0	 mov	 DWORD PTR _pWindow$[ebp], eax

; 126  : 	return Py_BuildValue("i", pWindow);

  00063	ff 75 f0	 push	 DWORD PTR _pWindow$[ebp]
  00066	68 00 00 00 00	 push	 OFFSET ??_C@_01KBJDNOO@i@
  0006b	ff 15 00 00 00
	00		 call	 DWORD PTR __imp__Py_BuildValue
  00071	59		 pop	 ecx
  00072	59		 pop	 ecx
$LN1@wndMgrRegi:

; 127  : }

  00073	c9		 leave
  00074	c3		 ret	 0
?wndMgrRegisterImageBox@@YAPAU_object@@PAU1@0@Z ENDP	; wndMgrRegisterImageBox
_TEXT	ENDS
; Function compile flags: /Odspy
; File D:\Metin2 Server Files\mainline\SRC_2014\Metin2Client\eterPythonLib\PythonWindowManagerModule.cpp
; File D:\Metin2 Server Files\mainline\SRC_2014\Metin2Client\eterBase\Singleton.h
; File D:\Metin2 Server Files\mainline\SRC_2014\Metin2Client\eterPythonLib\PythonWindowManagerModule.cpp
;	COMDAT ?wndMgrRegisterMarkBox@@YAPAU_object@@PAU1@0@Z
_TEXT	SEGMENT
_pWindow$ = -16						; size = 4
$T1 = -12						; size = 4
_po$ = -8						; size = 4
_szLayer$ = -4						; size = 4
_poSelf$ = 8						; size = 4
_poArgs$ = 12						; size = 4
?wndMgrRegisterMarkBox@@YAPAU_object@@PAU1@0@Z PROC	; wndMgrRegisterMarkBox, COMDAT

; 103  : {

  00000	55		 push	 ebp
  00001	8b ec		 mov	 ebp, esp
  00003	83 ec 10	 sub	 esp, 16			; 00000010H

; 104  : 	PyObject * po;
; 105  : 	if (!PyTuple_GetObject(poArgs, 0, &po))

  00006	8d 45 f8	 lea	 eax, DWORD PTR _po$[ebp]
  00009	50		 push	 eax
  0000a	6a 00		 push	 0
  0000c	ff 75 0c	 push	 DWORD PTR _poArgs$[ebp]
  0000f	e8 00 00 00 00	 call	 ?PyTuple_GetObject@@YA_NPAU_object@@HPAPAU1@@Z ; PyTuple_GetObject
  00014	83 c4 0c	 add	 esp, 12			; 0000000cH
  00017	0f b6 c0	 movzx	 eax, al
  0001a	85 c0		 test	 eax, eax
  0001c	75 0a		 jne	 SHORT $LN2@wndMgrRegi

; 106  : 		return Py_BuildException();

  0001e	6a 00		 push	 0
  00020	e8 00 00 00 00	 call	 ?Py_BuildException@@YAPAU_object@@PBDZZ ; Py_BuildException
  00025	59		 pop	 ecx
  00026	eb 4b		 jmp	 SHORT $LN1@wndMgrRegi
$LN2@wndMgrRegi:

; 107  : 	char * szLayer;
; 108  : 	if (!PyTuple_GetString(poArgs, 1, &szLayer))

  00028	8d 45 fc	 lea	 eax, DWORD PTR _szLayer$[ebp]
  0002b	50		 push	 eax
  0002c	6a 01		 push	 1
  0002e	ff 75 0c	 push	 DWORD PTR _poArgs$[ebp]
  00031	e8 00 00 00 00	 call	 ?PyTuple_GetString@@YA_NPAU_object@@HPAPAD@Z ; PyTuple_GetString
  00036	83 c4 0c	 add	 esp, 12			; 0000000cH
  00039	0f b6 c0	 movzx	 eax, al
  0003c	85 c0		 test	 eax, eax
  0003e	75 0a		 jne	 SHORT $LN3@wndMgrRegi

; 109  : 		return Py_BuildException();

  00040	6a 00		 push	 0
  00042	e8 00 00 00 00	 call	 ?Py_BuildException@@YAPAU_object@@PBDZZ ; Py_BuildException
  00047	59		 pop	 ecx
  00048	eb 29		 jmp	 SHORT $LN1@wndMgrRegi
$LN3@wndMgrRegi:
; File D:\Metin2 Server Files\mainline\SRC_2014\Metin2Client\eterBase\Singleton.h

; 27   : 		return (*ms_singleton);

  0004a	a1 00 00 00 00	 mov	 eax, DWORD PTR ?ms_singleton@?$CSingleton@VCWindowManager@UI@@@@0PAVCWindowManager@UI@@A ; CSingleton<UI::CWindowManager>::ms_singleton
  0004f	89 45 f4	 mov	 DWORD PTR $T1[ebp], eax
; File D:\Metin2 Server Files\mainline\SRC_2014\Metin2Client\eterPythonLib\PythonWindowManagerModule.cpp

; 111  : 	UI::CWindow * pWindow = UI::CWindowManager::Instance().RegisterMarkBox(po, szLayer);

  00052	ff 75 fc	 push	 DWORD PTR _szLayer$[ebp]
  00055	ff 75 f8	 push	 DWORD PTR _po$[ebp]
  00058	8b 4d f4	 mov	 ecx, DWORD PTR $T1[ebp]
  0005b	e8 00 00 00 00	 call	 ?RegisterMarkBox@CWindowManager@UI@@QAEPAVCWindow@2@PAU_object@@PBD@Z ; UI::CWindowManager::RegisterMarkBox
  00060	89 45 f0	 mov	 DWORD PTR _pWindow$[ebp], eax

; 112  : 	return Py_BuildValue("i", pWindow);

  00063	ff 75 f0	 push	 DWORD PTR _pWindow$[ebp]
  00066	68 00 00 00 00	 push	 OFFSET ??_C@_01KBJDNOO@i@
  0006b	ff 15 00 00 00
	00		 call	 DWORD PTR __imp__Py_BuildValue
  00071	59		 pop	 ecx
  00072	59		 pop	 ecx
$LN1@wndMgrRegi:

; 113  : }

  00073	c9		 leave
  00074	c3		 ret	 0
?wndMgrRegisterMarkBox@@YAPAU_object@@PAU1@0@Z ENDP	; wndMgrRegisterMarkBox
_TEXT	ENDS
; Function compile flags: /Odspy
; File D:\Metin2 Server Files\mainline\SRC_2014\Metin2Client\eterPythonLib\PythonWindowManagerModule.cpp
; File D:\Metin2 Server Files\mainline\SRC_2014\Metin2Client\eterBase\Singleton.h
; File D:\Metin2 Server Files\mainline\SRC_2014\Metin2Client\eterPythonLib\PythonWindowManagerModule.cpp
;	COMDAT ?wndMgrRegisterTextLine@@YAPAU_object@@PAU1@0@Z
_TEXT	SEGMENT
_pWindow$ = -16						; size = 4
$T1 = -12						; size = 4
_po$ = -8						; size = 4
_szLayer$ = -4						; size = 4
_poSelf$ = 8						; size = 4
_poArgs$ = 12						; size = 4
?wndMgrRegisterTextLine@@YAPAU_object@@PAU1@0@Z PROC	; wndMgrRegisterTextLine, COMDAT

; 89   : {

  00000	55		 push	 ebp
  00001	8b ec		 mov	 ebp, esp
  00003	83 ec 10	 sub	 esp, 16			; 00000010H

; 90   : 	PyObject * po;
; 91   : 	if (!PyTuple_GetObject(poArgs, 0, &po))

  00006	8d 45 f8	 lea	 eax, DWORD PTR _po$[ebp]
  00009	50		 push	 eax
  0000a	6a 00		 push	 0
  0000c	ff 75 0c	 push	 DWORD PTR _poArgs$[ebp]
  0000f	e8 00 00 00 00	 call	 ?PyTuple_GetObject@@YA_NPAU_object@@HPAPAU1@@Z ; PyTuple_GetObject
  00014	83 c4 0c	 add	 esp, 12			; 0000000cH
  00017	0f b6 c0	 movzx	 eax, al
  0001a	85 c0		 test	 eax, eax
  0001c	75 0a		 jne	 SHORT $LN2@wndMgrRegi

; 92   : 		return Py_BuildException();

  0001e	6a 00		 push	 0
  00020	e8 00 00 00 00	 call	 ?Py_BuildException@@YAPAU_object@@PBDZZ ; Py_BuildException
  00025	59		 pop	 ecx
  00026	eb 4b		 jmp	 SHORT $LN1@wndMgrRegi
$LN2@wndMgrRegi:

; 93   : 	char * szLayer;
; 94   : 	if (!PyTuple_GetString(poArgs, 1, &szLayer))

  00028	8d 45 fc	 lea	 eax, DWORD PTR _szLayer$[ebp]
  0002b	50		 push	 eax
  0002c	6a 01		 push	 1
  0002e	ff 75 0c	 push	 DWORD PTR _poArgs$[ebp]
  00031	e8 00 00 00 00	 call	 ?PyTuple_GetString@@YA_NPAU_object@@HPAPAD@Z ; PyTuple_GetString
  00036	83 c4 0c	 add	 esp, 12			; 0000000cH
  00039	0f b6 c0	 movzx	 eax, al
  0003c	85 c0		 test	 eax, eax
  0003e	75 0a		 jne	 SHORT $LN3@wndMgrRegi

; 95   : 		return Py_BuildException();

  00040	6a 00		 push	 0
  00042	e8 00 00 00 00	 call	 ?Py_BuildException@@YAPAU_object@@PBDZZ ; Py_BuildException
  00047	59		 pop	 ecx
  00048	eb 29		 jmp	 SHORT $LN1@wndMgrRegi
$LN3@wndMgrRegi:
; File D:\Metin2 Server Files\mainline\SRC_2014\Metin2Client\eterBase\Singleton.h

; 27   : 		return (*ms_singleton);

  0004a	a1 00 00 00 00	 mov	 eax, DWORD PTR ?ms_singleton@?$CSingleton@VCWindowManager@UI@@@@0PAVCWindowManager@UI@@A ; CSingleton<UI::CWindowManager>::ms_singleton
  0004f	89 45 f4	 mov	 DWORD PTR $T1[ebp], eax
; File D:\Metin2 Server Files\mainline\SRC_2014\Metin2Client\eterPythonLib\PythonWindowManagerModule.cpp

; 97   : 	UI::CWindow * pWindow = UI::CWindowManager::Instance().RegisterTextLine(po, szLayer);

  00052	ff 75 fc	 push	 DWORD PTR _szLayer$[ebp]
  00055	ff 75 f8	 push	 DWORD PTR _po$[ebp]
  00058	8b 4d f4	 mov	 ecx, DWORD PTR $T1[ebp]
  0005b	e8 00 00 00 00	 call	 ?RegisterTextLine@CWindowManager@UI@@QAEPAVCWindow@2@PAU_object@@PBD@Z ; UI::CWindowManager::RegisterTextLine
  00060	89 45 f0	 mov	 DWORD PTR _pWindow$[ebp], eax

; 98   : 	return Py_BuildValue("i", pWindow);

  00063	ff 75 f0	 push	 DWORD PTR _pWindow$[ebp]
  00066	68 00 00 00 00	 push	 OFFSET ??_C@_01KBJDNOO@i@
  0006b	ff 15 00 00 00
	00		 call	 DWORD PTR __imp__Py_BuildValue
  00071	59		 pop	 ecx
  00072	59		 pop	 ecx
$LN1@wndMgrRegi:

; 99   : }

  00073	c9		 leave
  00074	c3		 ret	 0
?wndMgrRegisterTextLine@@YAPAU_object@@PAU1@0@Z ENDP	; wndMgrRegisterTextLine
_TEXT	ENDS
; Function compile flags: /Odspy
; File D:\Metin2 Server Files\mainline\SRC_2014\Metin2Client\eterPythonLib\PythonWindowManagerModule.cpp
; File D:\Metin2 Server Files\mainline\SRC_2014\Metin2Client\eterBase\Singleton.h
; File D:\Metin2 Server Files\mainline\SRC_2014\Metin2Client\eterPythonLib\PythonWindowManagerModule.cpp
;	COMDAT ?wndMgrRegisterGridSlotWindow@@YAPAU_object@@PAU1@0@Z
_TEXT	SEGMENT
_pWindow$ = -16						; size = 4
$T1 = -12						; size = 4
_po$ = -8						; size = 4
_szLayer$ = -4						; size = 4
_poSelf$ = 8						; size = 4
_poArgs$ = 12						; size = 4
?wndMgrRegisterGridSlotWindow@@YAPAU_object@@PAU1@0@Z PROC ; wndMgrRegisterGridSlotWindow, COMDAT

; 75   : {

  00000	55		 push	 ebp
  00001	8b ec		 mov	 ebp, esp
  00003	83 ec 10	 sub	 esp, 16			; 00000010H

; 76   : 	PyObject * po;
; 77   : 	if (!PyTuple_GetObject(poArgs, 0, &po))

  00006	8d 45 f8	 lea	 eax, DWORD PTR _po$[ebp]
  00009	50		 push	 eax
  0000a	6a 00		 push	 0
  0000c	ff 75 0c	 push	 DWORD PTR _poArgs$[ebp]
  0000f	e8 00 00 00 00	 call	 ?PyTuple_GetObject@@YA_NPAU_object@@HPAPAU1@@Z ; PyTuple_GetObject
  00014	83 c4 0c	 add	 esp, 12			; 0000000cH
  00017	0f b6 c0	 movzx	 eax, al
  0001a	85 c0		 test	 eax, eax
  0001c	75 0a		 jne	 SHORT $LN2@wndMgrRegi

; 78   : 		return Py_BuildException();

  0001e	6a 00		 push	 0
  00020	e8 00 00 00 00	 call	 ?Py_BuildException@@YAPAU_object@@PBDZZ ; Py_BuildException
  00025	59		 pop	 ecx
  00026	eb 4b		 jmp	 SHORT $LN1@wndMgrRegi
$LN2@wndMgrRegi:

; 79   : 	char * szLayer;
; 80   : 	if (!PyTuple_GetString(poArgs, 1, &szLayer))

  00028	8d 45 fc	 lea	 eax, DWORD PTR _szLayer$[ebp]
  0002b	50		 push	 eax
  0002c	6a 01		 push	 1
  0002e	ff 75 0c	 push	 DWORD PTR _poArgs$[ebp]
  00031	e8 00 00 00 00	 call	 ?PyTuple_GetString@@YA_NPAU_object@@HPAPAD@Z ; PyTuple_GetString
  00036	83 c4 0c	 add	 esp, 12			; 0000000cH
  00039	0f b6 c0	 movzx	 eax, al
  0003c	85 c0		 test	 eax, eax
  0003e	75 0a		 jne	 SHORT $LN3@wndMgrRegi

; 81   : 		return Py_BuildException();

  00040	6a 00		 push	 0
  00042	e8 00 00 00 00	 call	 ?Py_BuildException@@YAPAU_object@@PBDZZ ; Py_BuildException
  00047	59		 pop	 ecx
  00048	eb 29		 jmp	 SHORT $LN1@wndMgrRegi
$LN3@wndMgrRegi:
; File D:\Metin2 Server Files\mainline\SRC_2014\Metin2Client\eterBase\Singleton.h

; 27   : 		return (*ms_singleton);

  0004a	a1 00 00 00 00	 mov	 eax, DWORD PTR ?ms_singleton@?$CSingleton@VCWindowManager@UI@@@@0PAVCWindowManager@UI@@A ; CSingleton<UI::CWindowManager>::ms_singleton
  0004f	89 45 f4	 mov	 DWORD PTR $T1[ebp], eax
; File D:\Metin2 Server Files\mainline\SRC_2014\Metin2Client\eterPythonLib\PythonWindowManagerModule.cpp

; 83   : 	UI::CWindow * pWindow = UI::CWindowManager::Instance().RegisterGridSlotWindow(po, szLayer);

  00052	ff 75 fc	 push	 DWORD PTR _szLayer$[ebp]
  00055	ff 75 f8	 push	 DWORD PTR _po$[ebp]
  00058	8b 4d f4	 mov	 ecx, DWORD PTR $T1[ebp]
  0005b	e8 00 00 00 00	 call	 ?RegisterGridSlotWindow@CWindowManager@UI@@QAEPAVCWindow@2@PAU_object@@PBD@Z ; UI::CWindowManager::RegisterGridSlotWindow
  00060	89 45 f0	 mov	 DWORD PTR _pWindow$[ebp], eax

; 84   : 	return Py_BuildValue("i", pWindow);

  00063	ff 75 f0	 push	 DWORD PTR _pWindow$[ebp]
  00066	68 00 00 00 00	 push	 OFFSET ??_C@_01KBJDNOO@i@
  0006b	ff 15 00 00 00
	00		 call	 DWORD PTR __imp__Py_BuildValue
  00071	59		 pop	 ecx
  00072	59		 pop	 ecx
$LN1@wndMgrRegi:

; 85   : }

  00073	c9		 leave
  00074	c3		 ret	 0
?wndMgrRegisterGridSlotWindow@@YAPAU_object@@PAU1@0@Z ENDP ; wndMgrRegisterGridSlotWindow
_TEXT	ENDS
; Function compile flags: /Odspy
; File D:\Metin2 Server Files\mainline\SRC_2014\Metin2Client\eterPythonLib\PythonWindowManagerModule.cpp
; File D:\Metin2 Server Files\mainline\SRC_2014\Metin2Client\eterBase\Singleton.h
; File D:\Metin2 Server Files\mainline\SRC_2014\Metin2Client\eterPythonLib\PythonWindowManagerModule.cpp
;	COMDAT ?wndMgrRegisterSlotWindow@@YAPAU_object@@PAU1@0@Z
_TEXT	SEGMENT
_pWindow$ = -16						; size = 4
$T1 = -12						; size = 4
_po$ = -8						; size = 4
_szLayer$ = -4						; size = 4
_poSelf$ = 8						; size = 4
_poArgs$ = 12						; size = 4
?wndMgrRegisterSlotWindow@@YAPAU_object@@PAU1@0@Z PROC	; wndMgrRegisterSlotWindow, COMDAT

; 61   : {

  00000	55		 push	 ebp
  00001	8b ec		 mov	 ebp, esp
  00003	83 ec 10	 sub	 esp, 16			; 00000010H

; 62   : 	PyObject * po;
; 63   : 	if (!PyTuple_GetObject(poArgs, 0, &po))

  00006	8d 45 f8	 lea	 eax, DWORD PTR _po$[ebp]
  00009	50		 push	 eax
  0000a	6a 00		 push	 0
  0000c	ff 75 0c	 push	 DWORD PTR _poArgs$[ebp]
  0000f	e8 00 00 00 00	 call	 ?PyTuple_GetObject@@YA_NPAU_object@@HPAPAU1@@Z ; PyTuple_GetObject
  00014	83 c4 0c	 add	 esp, 12			; 0000000cH
  00017	0f b6 c0	 movzx	 eax, al
  0001a	85 c0		 test	 eax, eax
  0001c	75 0a		 jne	 SHORT $LN2@wndMgrRegi

; 64   : 		return Py_BuildException();

  0001e	6a 00		 push	 0
  00020	e8 00 00 00 00	 call	 ?Py_BuildException@@YAPAU_object@@PBDZZ ; Py_BuildException
  00025	59		 pop	 ecx
  00026	eb 4b		 jmp	 SHORT $LN1@wndMgrRegi
$LN2@wndMgrRegi:

; 65   : 	char * szLayer;
; 66   : 	if (!PyTuple_GetString(poArgs, 1, &szLayer))

  00028	8d 45 fc	 lea	 eax, DWORD PTR _szLayer$[ebp]
  0002b	50		 push	 eax
  0002c	6a 01		 push	 1
  0002e	ff 75 0c	 push	 DWORD PTR _poArgs$[ebp]
  00031	e8 00 00 00 00	 call	 ?PyTuple_GetString@@YA_NPAU_object@@HPAPAD@Z ; PyTuple_GetString
  00036	83 c4 0c	 add	 esp, 12			; 0000000cH
  00039	0f b6 c0	 movzx	 eax, al
  0003c	85 c0		 test	 eax, eax
  0003e	75 0a		 jne	 SHORT $LN3@wndMgrRegi

; 67   : 		return Py_BuildException();

  00040	6a 00		 push	 0
  00042	e8 00 00 00 00	 call	 ?Py_BuildException@@YAPAU_object@@PBDZZ ; Py_BuildException
  00047	59		 pop	 ecx
  00048	eb 29		 jmp	 SHORT $LN1@wndMgrRegi
$LN3@wndMgrRegi:
; File D:\Metin2 Server Files\mainline\SRC_2014\Metin2Client\eterBase\Singleton.h

; 27   : 		return (*ms_singleton);

  0004a	a1 00 00 00 00	 mov	 eax, DWORD PTR ?ms_singleton@?$CSingleton@VCWindowManager@UI@@@@0PAVCWindowManager@UI@@A ; CSingleton<UI::CWindowManager>::ms_singleton
  0004f	89 45 f4	 mov	 DWORD PTR $T1[ebp], eax
; File D:\Metin2 Server Files\mainline\SRC_2014\Metin2Client\eterPythonLib\PythonWindowManagerModule.cpp

; 69   : 	UI::CWindow * pWindow = UI::CWindowManager::Instance().RegisterSlotWindow(po, szLayer);

  00052	ff 75 fc	 push	 DWORD PTR _szLayer$[ebp]
  00055	ff 75 f8	 push	 DWORD PTR _po$[ebp]
  00058	8b 4d f4	 mov	 ecx, DWORD PTR $T1[ebp]
  0005b	e8 00 00 00 00	 call	 ?RegisterSlotWindow@CWindowManager@UI@@QAEPAVCWindow@2@PAU_object@@PBD@Z ; UI::CWindowManager::RegisterSlotWindow
  00060	89 45 f0	 mov	 DWORD PTR _pWindow$[ebp], eax

; 70   : 	return Py_BuildValue("i", pWindow);

  00063	ff 75 f0	 push	 DWORD PTR _pWindow$[ebp]
  00066	68 00 00 00 00	 push	 OFFSET ??_C@_01KBJDNOO@i@
  0006b	ff 15 00 00 00
	00		 call	 DWORD PTR __imp__Py_BuildValue
  00071	59		 pop	 ecx
  00072	59		 pop	 ecx
$LN1@wndMgrRegi:

; 71   : }

  00073	c9		 leave
  00074	c3		 ret	 0
?wndMgrRegisterSlotWindow@@YAPAU_object@@PAU1@0@Z ENDP	; wndMgrRegisterSlotWindow
_TEXT	ENDS
; Function compile flags: /Odspy
; File D:\Metin2 Server Files\mainline\SRC_2014\Metin2Client\eterPythonLib\PythonWindowManagerModule.cpp
;	COMDAT ?wndMgrRegister@@YAPAU_object@@PAU1@0@Z
_TEXT	SEGMENT
_kWndMgr$ = -16						; size = 4
_po$ = -12						; size = 4
_szLayer$ = -8						; size = 4
_pWindow$ = -4						; size = 4
_poSelf$ = 8						; size = 4
_poArgs$ = 12						; size = 4
?wndMgrRegister@@YAPAU_object@@PAU1@0@Z PROC		; wndMgrRegister, COMDAT

; 43   : {

  00000	55		 push	 ebp
  00001	8b ec		 mov	 ebp, esp
  00003	83 ec 10	 sub	 esp, 16			; 00000010H

; 44   : 	PyObject * po;
; 45   : 	if (!PyTuple_GetObject(poArgs, 0, &po))

  00006	8d 45 f4	 lea	 eax, DWORD PTR _po$[ebp]
  00009	50		 push	 eax
  0000a	6a 00		 push	 0
  0000c	ff 75 0c	 push	 DWORD PTR _poArgs$[ebp]
  0000f	e8 00 00 00 00	 call	 ?PyTuple_GetObject@@YA_NPAU_object@@HPAPAU1@@Z ; PyTuple_GetObject
  00014	83 c4 0c	 add	 esp, 12			; 0000000cH
  00017	0f b6 c0	 movzx	 eax, al
  0001a	85 c0		 test	 eax, eax
  0001c	75 0a		 jne	 SHORT $LN2@wndMgrRegi

; 46   : 		return Py_BuildException();

  0001e	6a 00		 push	 0
  00020	e8 00 00 00 00	 call	 ?Py_BuildException@@YAPAU_object@@PBDZZ ; Py_BuildException
  00025	59		 pop	 ecx
  00026	eb 5b		 jmp	 SHORT $LN1@wndMgrRegi
$LN2@wndMgrRegi:

; 47   : 	char * szLayer;
; 48   : 	if (!PyTuple_GetString(poArgs, 1, &szLayer))

  00028	8d 45 f8	 lea	 eax, DWORD PTR _szLayer$[ebp]
  0002b	50		 push	 eax
  0002c	6a 01		 push	 1
  0002e	ff 75 0c	 push	 DWORD PTR _poArgs$[ebp]
  00031	e8 00 00 00 00	 call	 ?PyTuple_GetString@@YA_NPAU_object@@HPAPAD@Z ; PyTuple_GetString
  00036	83 c4 0c	 add	 esp, 12			; 0000000cH
  00039	0f b6 c0	 movzx	 eax, al
  0003c	85 c0		 test	 eax, eax
  0003e	75 0a		 jne	 SHORT $LN6@wndMgrRegi

; 49   : 		return Py_BuildException();

  00040	6a 00		 push	 0
  00042	e8 00 00 00 00	 call	 ?Py_BuildException@@YAPAU_object@@PBDZZ ; Py_BuildException
  00047	59		 pop	 ecx
  00048	eb 39		 jmp	 SHORT $LN1@wndMgrRegi
$LN6@wndMgrRegi:

; 50   : 
; 51   : 	UI::CWindowManager& kWndMgr=UI::CWindowManager::Instance();

  0004a	a1 00 00 00 00	 mov	 eax, DWORD PTR ?ms_singleton@?$CSingleton@VCWindowManager@UI@@@@0PAVCWindowManager@UI@@A ; CSingleton<UI::CWindowManager>::ms_singleton
  0004f	89 45 f0	 mov	 DWORD PTR _kWndMgr$[ebp], eax

; 52   : 	UI::CWindow * pWindow = kWndMgr.RegisterWindow(po, szLayer);

  00052	ff 75 f8	 push	 DWORD PTR _szLayer$[ebp]
  00055	ff 75 f4	 push	 DWORD PTR _po$[ebp]
  00058	8b 4d f0	 mov	 ecx, DWORD PTR _kWndMgr$[ebp]
  0005b	e8 00 00 00 00	 call	 ?RegisterWindow@CWindowManager@UI@@QAEPAVCWindow@2@PAU_object@@PBD@Z ; UI::CWindowManager::RegisterWindow
  00060	89 45 fc	 mov	 DWORD PTR _pWindow$[ebp], eax

; 53   : 	if (!pWindow)

  00063	83 7d fc 00	 cmp	 DWORD PTR _pWindow$[ebp], 0
  00067	75 0a		 jne	 SHORT $LN4@wndMgrRegi

; 54   : 		return Py_BuildException();

  00069	6a 00		 push	 0
  0006b	e8 00 00 00 00	 call	 ?Py_BuildException@@YAPAU_object@@PBDZZ ; Py_BuildException
  00070	59		 pop	 ecx
  00071	eb 10		 jmp	 SHORT $LN1@wndMgrRegi
$LN4@wndMgrRegi:

; 55   : 	
; 56   : 	return Py_BuildValue("i", pWindow);

  00073	ff 75 fc	 push	 DWORD PTR _pWindow$[ebp]
  00076	68 00 00 00 00	 push	 OFFSET ??_C@_01KBJDNOO@i@
  0007b	ff 15 00 00 00
	00		 call	 DWORD PTR __imp__Py_BuildValue
  00081	59		 pop	 ecx
  00082	59		 pop	 ecx
$LN1@wndMgrRegi:

; 57   : }

  00083	c9		 leave
  00084	c3		 ret	 0
?wndMgrRegister@@YAPAU_object@@PAU1@0@Z ENDP		; wndMgrRegister
_TEXT	ENDS
; Function compile flags: /Odspy
; File D:\Metin2 Server Files\mainline\SRC_2014\Metin2Client\eterPythonLib\PythonWindowManagerModule.cpp
;	COMDAT ?wndMgrSetMouseHandler@@YAPAU_object@@PAU1@0@Z
_TEXT	SEGMENT
_poHandler$ = -4					; size = 4
_poSelf$ = 8						; size = 4
_poArgs$ = 12						; size = 4
?wndMgrSetMouseHandler@@YAPAU_object@@PAU1@0@Z PROC	; wndMgrSetMouseHandler, COMDAT

; 30   : {

  00000	55		 push	 ebp
  00001	8b ec		 mov	 ebp, esp
  00003	51		 push	 ecx

; 31   : 	PyObject * poHandler;
; 32   : 	if (!PyTuple_GetObject(poArgs, 0, &poHandler))

  00004	8d 45 fc	 lea	 eax, DWORD PTR _poHandler$[ebp]
  00007	50		 push	 eax
  00008	6a 00		 push	 0
  0000a	ff 75 0c	 push	 DWORD PTR _poArgs$[ebp]
  0000d	e8 00 00 00 00	 call	 ?PyTuple_GetObject@@YA_NPAU_object@@HPAPAU1@@Z ; PyTuple_GetObject
  00012	83 c4 0c	 add	 esp, 12			; 0000000cH
  00015	0f b6 c0	 movzx	 eax, al
  00018	85 c0		 test	 eax, eax
  0001a	75 0a		 jne	 SHORT $LN4@wndMgrSetM

; 33   : 		return Py_BuildException();

  0001c	6a 00		 push	 0
  0001e	e8 00 00 00 00	 call	 ?Py_BuildException@@YAPAU_object@@PBDZZ ; Py_BuildException
  00023	59		 pop	 ecx
  00024	eb 13		 jmp	 SHORT $LN1@wndMgrSetM
$LN4@wndMgrSetM:

; 34   : 
; 35   : 	UI::CWindowManager::Instance().SetMouseHandler(poHandler);

  00026	ff 75 fc	 push	 DWORD PTR _poHandler$[ebp]
  00029	8b 0d 00 00 00
	00		 mov	 ecx, DWORD PTR ?ms_singleton@?$CSingleton@VCWindowManager@UI@@@@0PAVCWindowManager@UI@@A ; CSingleton<UI::CWindowManager>::ms_singleton
  0002f	e8 00 00 00 00	 call	 ?SetMouseHandler@CWindowManager@UI@@QAEXPAU_object@@@Z ; UI::CWindowManager::SetMouseHandler

; 36   : 	return Py_BuildNone();

  00034	e8 00 00 00 00	 call	 ?Py_BuildNone@@YAPAU_object@@XZ ; Py_BuildNone
$LN1@wndMgrSetM:

; 37   : }

  00039	c9		 leave
  0003a	c3		 ret	 0
?wndMgrSetMouseHandler@@YAPAU_object@@PAU1@0@Z ENDP	; wndMgrSetMouseHandler
_TEXT	ENDS
; Function compile flags: /Odspy
; File D:\Metin2 Server Files\mainline\SRC_2014\Metin2Client\eterPythonLib\PythonWindowManagerModule.cpp
;	COMDAT ?wndMgrOnceIgnoreMouseLeftButtonUpEvent@@YAPAU_object@@PAU1@0@Z
_TEXT	SEGMENT
_poSelf$ = 8						; size = 4
_poArgs$ = 12						; size = 4
?wndMgrOnceIgnoreMouseLeftButtonUpEvent@@YAPAU_object@@PAU1@0@Z PROC ; wndMgrOnceIgnoreMouseLeftButtonUpEvent, COMDAT

; 24   : {

  00000	55		 push	 ebp
  00001	8b ec		 mov	 ebp, esp

; 25   : 	UI::CWindowManager::Instance().OnceIgnoreMouseLeftButtonUpEvent();

  00003	8b 0d 00 00 00
	00		 mov	 ecx, DWORD PTR ?ms_singleton@?$CSingleton@VCWindowManager@UI@@@@0PAVCWindowManager@UI@@A ; CSingleton<UI::CWindowManager>::ms_singleton
  00009	e8 00 00 00 00	 call	 ?OnceIgnoreMouseLeftButtonUpEvent@CWindowManager@UI@@QAEXXZ ; UI::CWindowManager::OnceIgnoreMouseLeftButtonUpEvent

; 26   : 	return Py_BuildNone();

  0000e	e8 00 00 00 00	 call	 ?Py_BuildNone@@YAPAU_object@@XZ ; Py_BuildNone

; 27   : }

  00013	5d		 pop	 ebp
  00014	c3		 ret	 0
?wndMgrOnceIgnoreMouseLeftButtonUpEvent@@YAPAU_object@@PAU1@0@Z ENDP ; wndMgrOnceIgnoreMouseLeftButtonUpEvent
_TEXT	ENDS
; Function compile flags: /Odspy
; File D:\Metin2 Server Files\mainline\SRC_2014\Metin2Client\eterPythonLib\PythonWindowManagerModule.cpp
; File D:\Metin2 Server Files\mainline\SRC_2014\Metin2Client\eterBase\Singleton.h
; File D:\Metin2 Server Files\mainline\SRC_2014\Metin2Client\eterPythonLib\PythonWindowManagerModule.cpp
;	COMDAT ?wndMgrGetAspect@@YAPAU_object@@PAU1@0@Z
_TEXT	SEGMENT
$T1 = -4						; size = 4
_poSelf$ = 8						; size = 4
_poArgs$ = 12						; size = 4
?wndMgrGetAspect@@YAPAU_object@@PAU1@0@Z PROC		; wndMgrGetAspect, COMDAT

; 19   : {

  00000	55		 push	 ebp
  00001	8b ec		 mov	 ebp, esp
  00003	51		 push	 ecx
; File D:\Metin2 Server Files\mainline\SRC_2014\Metin2Client\eterBase\Singleton.h

; 27   : 		return (*ms_singleton);

  00004	a1 00 00 00 00	 mov	 eax, DWORD PTR ?ms_singleton@?$CSingleton@VCWindowManager@UI@@@@0PAVCWindowManager@UI@@A ; CSingleton<UI::CWindowManager>::ms_singleton
  00009	89 45 fc	 mov	 DWORD PTR $T1[ebp], eax
; File D:\Metin2 Server Files\mainline\SRC_2014\Metin2Client\eterPythonLib\PythonWindowManagerModule.cpp

; 20   : 	return Py_BuildValue("f", UI::CWindowManager::Instance().GetAspect());

  0000c	8b 4d fc	 mov	 ecx, DWORD PTR $T1[ebp]
  0000f	e8 00 00 00 00	 call	 ?GetAspect@CWindowManager@UI@@QAEMXZ ; UI::CWindowManager::GetAspect
  00014	51		 push	 ecx
  00015	51		 push	 ecx
  00016	dd 1c 24	 fstp	 QWORD PTR [esp]
  00019	68 00 00 00 00	 push	 OFFSET ??_C@_01INIBCBCB@f@
  0001e	ff 15 00 00 00
	00		 call	 DWORD PTR __imp__Py_BuildValue
  00024	83 c4 0c	 add	 esp, 12			; 0000000cH

; 21   : }

  00027	c9		 leave
  00028	c3		 ret	 0
?wndMgrGetAspect@@YAPAU_object@@PAU1@0@Z ENDP		; wndMgrGetAspect
_TEXT	ENDS
; Function compile flags: /Odspy
; File D:\Metin2 Server Files\mainline\SRC_2014\Metin2Client\eterPythonLib\PythonWindowManagerModule.cpp
;	COMDAT ?PyTuple_GetWindow@@YA_NPAU_object@@HPAPAVCWindow@UI@@@Z
_TEXT	SEGMENT
_iHandle$ = -4						; size = 4
_poArgs$ = 8						; size = 4
_pos$ = 12						; size = 4
_ppRetWindow$ = 16					; size = 4
?PyTuple_GetWindow@@YA_NPAU_object@@HPAPAVCWindow@UI@@@Z PROC ; PyTuple_GetWindow, COMDAT

; 7    : {

  00000	55		 push	 ebp
  00001	8b ec		 mov	 ebp, esp
  00003	51		 push	 ecx

; 8    : 	int iHandle;
; 9    : 	if (!PyTuple_GetInteger(poArgs, pos, &iHandle))

  00004	8d 45 fc	 lea	 eax, DWORD PTR _iHandle$[ebp]
  00007	50		 push	 eax
  00008	ff 75 0c	 push	 DWORD PTR _pos$[ebp]
  0000b	ff 75 08	 push	 DWORD PTR _poArgs$[ebp]
  0000e	e8 00 00 00 00	 call	 ?PyTuple_GetInteger@@YA_NPAU_object@@HPAH@Z ; PyTuple_GetInteger
  00013	83 c4 0c	 add	 esp, 12			; 0000000cH
  00016	0f b6 c0	 movzx	 eax, al
  00019	85 c0		 test	 eax, eax
  0001b	75 04		 jne	 SHORT $LN2@PyTuple_Ge

; 10   : 		return false;

  0001d	32 c0		 xor	 al, al
  0001f	eb 14		 jmp	 SHORT $LN1@PyTuple_Ge
$LN2@PyTuple_Ge:

; 11   : 	if (!iHandle)

  00021	83 7d fc 00	 cmp	 DWORD PTR _iHandle$[ebp], 0
  00025	75 04		 jne	 SHORT $LN3@PyTuple_Ge

; 12   : 		return false;

  00027	32 c0		 xor	 al, al
  00029	eb 0a		 jmp	 SHORT $LN1@PyTuple_Ge
$LN3@PyTuple_Ge:

; 13   : 
; 14   : 	*ppRetWindow = (UI::CWindow*)iHandle;

  0002b	8b 45 10	 mov	 eax, DWORD PTR _ppRetWindow$[ebp]
  0002e	8b 4d fc	 mov	 ecx, DWORD PTR _iHandle$[ebp]
  00031	89 08		 mov	 DWORD PTR [eax], ecx

; 15   : 	return true;

  00033	b0 01		 mov	 al, 1
$LN1@PyTuple_Ge:

; 16   : }

  00035	c9		 leave
  00036	c3		 ret	 0
?PyTuple_GetWindow@@YA_NPAU_object@@HPAPAVCWindow@UI@@@Z ENDP ; PyTuple_GetWindow
_TEXT	ENDS
; Function compile flags: /Odspy
; File D:\Metin2 Server Files\mainline\SRC_2014\Metin2Client\eterPythonLib\PythonWindowManagerModule.cpp
;	COMDAT ?initwndMgr@@YAXXZ
_TEXT	SEGMENT
_poModule$ = -4						; size = 4
?initwndMgr@@YAXXZ PROC					; initwndMgr, COMDAT

; 2300 : {

  00000	55		 push	 ebp
  00001	8b ec		 mov	 ebp, esp
  00003	51		 push	 ecx

; 2301 : 	static PyMethodDef s_methods[] =
; 2302 : 	{
; 2303 : 		// WindowManager
; 2304 : 		{ "SetMouseHandler",			wndMgrSetMouseHandler,				METH_VARARGS },
; 2305 : 		{ "SetScreenSize",				wndMgrSetScreenSize,				METH_VARARGS },
; 2306 : 		{ "GetScreenWidth",				wndMgrGetScreenWidth,				METH_VARARGS },
; 2307 : 		{ "GetScreenHeight",			wndMgrGetScreenHeight,				METH_VARARGS },
; 2308 : 		{ "AttachIcon",					wndMgrAttachIcon,					METH_VARARGS },
; 2309 : 		{ "DeattachIcon",				wndMgrDeattachIcon,					METH_VARARGS },
; 2310 : 		{ "SetAttachingFlag",			wndMgrSetAttachingFlag,				METH_VARARGS },
; 2311 : 		{ "GetAspect",					wndMgrGetAspect,					METH_VARARGS },
; 2312 : 		{ "GetHyperlink",				wndMgrGetHyperlink,					METH_VARARGS },
; 2313 : 		{ "OnceIgnoreMouseLeftButtonUpEvent",	wndMgrOnceIgnoreMouseLeftButtonUpEvent,		METH_VARARGS },
; 2314 : 
; 2315 : 		// Window
; 2316 : 		{ "Register",					wndMgrRegister,						METH_VARARGS },
; 2317 : 		{ "RegisterSlotWindow",			wndMgrRegisterSlotWindow,			METH_VARARGS },
; 2318 : 		{ "RegisterGridSlotWindow",		wndMgrRegisterGridSlotWindow,		METH_VARARGS },
; 2319 : 		{ "RegisterTextLine",			wndMgrRegisterTextLine,				METH_VARARGS },
; 2320 : 		{ "RegisterMarkBox",			wndMgrRegisterMarkBox,				METH_VARARGS },
; 2321 : 		{ "RegisterImageBox",			wndMgrRegisterImageBox,				METH_VARARGS },
; 2322 : 		{ "RegisterExpandedImageBox",	wndMgrRegisterExpandedImageBox,		METH_VARARGS },
; 2323 : 		{ "RegisterAniImageBox",		wndMgrRegisterAniImageBox,			METH_VARARGS },
; 2324 : 		{ "RegisterButton",				wndMgrRegisterButton,				METH_VARARGS },
; 2325 : 		{ "RegisterRadioButton",		wndMgrRegisterRadioButton,			METH_VARARGS },
; 2326 : 		{ "RegisterToggleButton",		wndMgrRegisterToggleButton,			METH_VARARGS },
; 2327 : 		{ "RegisterDragButton",			wndMgrRegisterDragButton,			METH_VARARGS },
; 2328 : 		{ "RegisterBox",				wndMgrRegisterBox,					METH_VARARGS },
; 2329 : 		{ "RegisterBar",				wndMgrRegisterBar,					METH_VARARGS },
; 2330 : 		{ "RegisterLine",				wndMgrRegisterLine,					METH_VARARGS },
; 2331 : 		{ "RegisterBar3D",				wndMgrRegisterBar3D,				METH_VARARGS },
; 2332 : 		{ "RegisterNumberLine",			wndMgrRegisterNumberLine,			METH_VARARGS },
; 2333 : 		{ "Destroy",					wndMgrDestroy,						METH_VARARGS },
; 2334 : 		{ "AddFlag",					wndMgrAddFlag,						METH_VARARGS },
; 2335 : 		{ "IsRTL",						wndMgrIsRTL,						METH_VARARGS },
; 2336 : 
; 2337 : 		// Base Window
; 2338 : 		{ "SetName",					wndMgrSetName,						METH_VARARGS },
; 2339 : 		{ "GetName",					wndMgrGetName,						METH_VARARGS },
; 2340 : 
; 2341 : 		{ "SetTop",						wndMgrSetTop,						METH_VARARGS },
; 2342 : 		{ "Show",						wndMgrShow,							METH_VARARGS },
; 2343 : 		{ "Hide",						wndMgrHide,							METH_VARARGS },
; 2344 : 		{ "IsShow",						wndMgrIsShow,						METH_VARARGS },
; 2345 : 		{ "SetParent",					wndMgrSetParent,					METH_VARARGS },
; 2346 : 		{ "SetPickAlways",				wndMgrSetPickAlways,				METH_VARARGS },
; 2347 : 
; 2348 : 		{ "IsFocus",					wndMgrIsFocus,						METH_VARARGS },
; 2349 : 		{ "SetFocus",					wndMgrSetFocus,						METH_VARARGS },
; 2350 : 		{ "KillFocus",					wndMgrKillFocus,					METH_VARARGS },
; 2351 : 		{ "Lock",						wndMgrLock,							METH_VARARGS },
; 2352 : 		{ "Unlock",						wndMgrUnlock,						METH_VARARGS },
; 2353 : 
; 2354 : 		{ "SetWindowSize",				wndMgrSetWndSize,					METH_VARARGS },
; 2355 : 		{ "SetWindowPosition",			wndMgrSetWndPosition,				METH_VARARGS },
; 2356 : 		{ "GetWindowWidth",				wndMgrGetWndWidth,					METH_VARARGS },
; 2357 : 		{ "GetWindowHeight",			wndMgrGetWndHeight,					METH_VARARGS },
; 2358 : 		{ "GetWindowLocalPosition",		wndMgrGetWndLocalPosition,			METH_VARARGS },
; 2359 : 		{ "GetWindowGlobalPosition",	wndMgrGetWndGlobalPosition,			METH_VARARGS },
; 2360 : 		{ "GetWindowRect",				wndMgrGetWindowRect,				METH_VARARGS },
; 2361 : 		{ "SetWindowHorizontalAlign",	wndMgrSetWindowHorizontalAlign,		METH_VARARGS },
; 2362 : 		{ "SetWindowVerticalAlign",		wndMgrSetWindowVerticalAlign,		METH_VARARGS },
; 2363 : 
; 2364 : 		{ "GetChildCount",				wndMgrGetChildCount,				METH_VARARGS },
; 2365 : 
; 2366 : 		{ "IsPickedWindow",				wndMgrIsPickedWindow,				METH_VARARGS },
; 2367 : 		{ "IsIn",						wndMgrIsIn,							METH_VARARGS },
; 2368 : 		{ "GetMouseLocalPosition",		wndMgrGetMouseLocalPosition,		METH_VARARGS },
; 2369 : 		{ "GetMousePosition",			wndMgrGetMousePosition,				METH_VARARGS },
; 2370 : 		{ "IsDragging",					wndMgrIsDragging,					METH_VARARGS },
; 2371 : 
; 2372 : 		{ "SetLimitBias",				wndMgrSetLimitBias,					METH_VARARGS },
; 2373 : 
; 2374 : 		{ "UpdateRect",					wndMgrUpdateRect,					METH_VARARGS },
; 2375 : 
; 2376 : 		// Slot Window
; 2377 : 		{ "AppendSlot",					wndMgrAppendSlot,					METH_VARARGS },
; 2378 : 		{ "ArrangeSlot",				wndMgrArrangeSlot,					METH_VARARGS },
; 2379 : 		{ "ClearSlot",					wndMgrClearSlot,					METH_VARARGS },
; 2380 : 		{ "ClearAllSlot",				wndMgrClearAllSlot,					METH_VARARGS },
; 2381 : 		{ "HasSlot",					wndMgrHasSlot,						METH_VARARGS },
; 2382 : 		{ "SetSlot",					wndMgrSetSlot,						METH_VARARGS },
; 2383 : 		{ "SetSlotCount",				wndMgrSetSlotCount,					METH_VARARGS },
; 2384 : 		{ "SetSlotCountNew",			wndMgrSetSlotCountNew,				METH_VARARGS },
; 2385 : 		{ "SetSlotCoolTime",			wndMgrSetSlotCoolTime,				METH_VARARGS },
; 2386 : 		{ "SetToggleSlot",				wndMgrSetToggleSlot,				METH_VARARGS },
; 2387 : 		{ "ActivateSlot",				wndMgrActivateSlot,					METH_VARARGS },
; 2388 : 		{ "DeactivateSlot",				wndMgrDeactivateSlot,				METH_VARARGS },
; 2389 : 		{ "EnableSlot",					wndMgrEnableSlot,					METH_VARARGS },
; 2390 : 		{ "DisableSlot",				wndMgrDisableSlot,					METH_VARARGS },
; 2391 : 		{ "ShowSlotBaseImage",			wndMgrShowSlotBaseImage,			METH_VARARGS },
; 2392 : 		{ "HideSlotBaseImage",			wndMgrHideSlotBaseImage,			METH_VARARGS },
; 2393 : 		{ "SetSlotType",				wndMgrSetSlotType,					METH_VARARGS },
; 2394 : 		{ "SetSlotStyle",				wndMgrSetSlotStyle,					METH_VARARGS },
; 2395 : 		{ "SetSlotBaseImage",			wndMgrSetSlotBaseImage,				METH_VARARGS },
; 2396 : 
; 2397 : 		{ "SetCoverButton",				wndMgrSetCoverButton,				METH_VARARGS },
; 2398 : 		{ "EnableCoverButton",			wndMgrEnableCoverButton,			METH_VARARGS },
; 2399 : 		{ "DisableCoverButton",			wndMgrDisableCoverButton,			METH_VARARGS },
; 2400 : 		{ "IsDisableCoverButton",		wndMgrIsDisableCoverButton,			METH_VARARGS },
; 2401 : 		{ "SetAlwaysRenderCoverButton",	wndMgrSetAlwaysRenderCoverButton,	METH_VARARGS },
; 2402 : 		
; 2403 : 		{ "AppendSlotButton",			wndMgrAppendSlotButton,				METH_VARARGS },
; 2404 : 		{ "AppendRequirementSignImage",	wndMgrAppendRequirementSignImage,	METH_VARARGS },
; 2405 : 		{ "ShowSlotButton",				wndMgrShowSlotButton,				METH_VARARGS },
; 2406 : 		{ "HideAllSlotButton",			wndMgrHideAllSlotButton,			METH_VARARGS },
; 2407 : 		{ "ShowRequirementSign",		wndMgrShowRequirementSign,			METH_VARARGS },
; 2408 : 		{ "HideRequirementSign",		wndMgrHideRequirementSign,			METH_VARARGS },
; 2409 : 		{ "RefreshSlot",				wndMgrRefreshSlot,					METH_VARARGS },
; 2410 : 		{ "SetUseMode",					wndMgrSetUseMode,					METH_VARARGS },
; 2411 : 		{ "SetUsableItem",				wndMgrSetUsableItem,				METH_VARARGS },
; 2412 : 
; 2413 : 		{ "SelectSlot",					wndMgrSelectSlot,					METH_VARARGS },
; 2414 : 		{ "ClearSelected",				wndMgrClearSelected,				METH_VARARGS },
; 2415 : 		{ "GetSelectedSlotCount",		wndMgrGetSelectedSlotCount,			METH_VARARGS },
; 2416 : 		{ "GetSelectedSlotNumber",		wndMgrGetSelectedSlotNumber,		METH_VARARGS },
; 2417 : 		{ "IsSelectedSlot",				wndMgrIsSelectedSlot,				METH_VARARGS },
; 2418 : 		{ "GetSlotCount",				wndMgrGetSlotCount,					METH_VARARGS },
; 2419 : 		{ "LockSlot",					wndMgrLockSlot,						METH_VARARGS },
; 2420 : 		{ "UnlockSlot",					wndMgrUnlockSlot,					METH_VARARGS },
; 2421 : 
; 2422 : 		// Bar
; 2423 : 		{ "SetColor",					wndBarSetColor,						METH_VARARGS },
; 2424 : 
; 2425 : 		// TextLine
; 2426 : 		{ "SetMax",						wndTextSetMax,						METH_VARARGS },
; 2427 : 		{ "SetHorizontalAlign",			wndTextSetHorizontalAlign,			METH_VARARGS },
; 2428 : 		{ "SetVerticalAlign",			wndTextSetVerticalAlign,			METH_VARARGS },
; 2429 : 		{ "SetSecret",					wndTextSetSecret,					METH_VARARGS },
; 2430 : 		{ "SetOutline",					wndTextSetOutline,					METH_VARARGS },
; 2431 : 		{ "SetFeather",					wndTextSetFeather,					METH_VARARGS },
; 2432 : 		{ "SetMultiLine",				wndTextSetMultiLine,				METH_VARARGS },
; 2433 : 		{ "SetText",					wndTextSetText,						METH_VARARGS },
; 2434 : 		{ "SetFontName",				wndTextSetFontName,					METH_VARARGS },
; 2435 : 		{ "SetFontColor",				wndTextSetFontColor,				METH_VARARGS },
; 2436 : 		{ "SetLimitWidth",				wndTextSetLimitWidth,				METH_VARARGS },
; 2437 : 		{ "GetText",					wndTextGetText,						METH_VARARGS },
; 2438 : 		{ "GetTextSize",				wndTextGetTextSize,					METH_VARARGS },
; 2439 : 		{ "ShowCursor",					wndTextShowCursor,					METH_VARARGS },
; 2440 : 		{ "HideCursor",					wndTextHideCursor,					METH_VARARGS },
; 2441 : 		{ "GetCursorPosition",			wndTextGetCursorPosition,			METH_VARARGS },
; 2442 : 		// NumberLine
; 2443 : 		{ "SetNumber",						wndNumberSetNumber,							METH_VARARGS },
; 2444 : 		{ "SetNumberHorizontalAlignCenter",	wndNumberSetNumberHorizontalAlignCenter,	METH_VARARGS },
; 2445 : 		{ "SetNumberHorizontalAlignRight",	wndNumberSetNumberHorizontalAlignRight,		METH_VARARGS },
; 2446 : 		{ "SetPath",						wndNumberSetPath,							METH_VARARGS },
; 2447 : 
; 2448 : 		// ImageBox
; 2449 : 		{ "MarkBox_SetImage",			wndMarkBox_SetImage,				METH_VARARGS },
; 2450 : 		{ "MarkBox_SetImageFilename",	wndMarkBox_SetImageFilename,		METH_VARARGS },
; 2451 : 		{ "MarkBox_Load",				wndMarkBox_Load,					METH_VARARGS },
; 2452 : 		{ "MarkBox_SetIndex",			wndMarkBox_SetIndex,				METH_VARARGS },
; 2453 : 		{ "MarkBox_SetScale",			wndMarkBox_SetScale,				METH_VARARGS },
; 2454 : 		{ "MarkBox_SetDiffuseColor",	wndMarkBox_SetDiffuseColor,			METH_VARARGS },
; 2455 : 
; 2456 : 		// ImageBox
; 2457 : 		{ "LoadImage",					wndImageLoadImage,					METH_VARARGS },
; 2458 : 		{ "SetDiffuseColor",			wndImageSetDiffuseColor,			METH_VARARGS },
; 2459 : 		{ "GetWidth",					wndImageGetWidth,					METH_VARARGS },
; 2460 : 		{ "GetHeight",					wndImageGetHeight,					METH_VARARGS },
; 2461 : 		// ExpandedImageBox
; 2462 : 		{ "SetScale",					wndImageSetScale,					METH_VARARGS },
; 2463 : 		{ "SetOrigin",					wndImageSetOrigin,					METH_VARARGS },
; 2464 : 		{ "SetRotation",				wndImageSetRotation,				METH_VARARGS },
; 2465 : 		{ "SetRenderingRect",			wndImageSetRenderingRect,			METH_VARARGS },
; 2466 : 		{ "SetRenderingMode",			wndImageSetRenderingMode,			METH_VARARGS },
; 2467 : 		// AniImageBox
; 2468 : 		{ "SetDelay",					wndImageSetDelay,					METH_VARARGS },
; 2469 : 		{ "AppendImage",				wndImageAppendImage,				METH_VARARGS },
; 2470 : 
; 2471 : 		// Button
; 2472 : 		{ "SetUpVisual",				wndButtonSetUpVisual,				METH_VARARGS },
; 2473 : 		{ "SetOverVisual",				wndButtonSetOverVisual,				METH_VARARGS },
; 2474 : 		{ "SetDownVisual",				wndButtonSetDownVisual,				METH_VARARGS },
; 2475 : 		{ "SetDisableVisual",			wndButtonSetDisableVisual,			METH_VARARGS },
; 2476 : 		{ "GetUpVisualFileName",		wndButtonGetUpVisualFileName,		METH_VARARGS },
; 2477 : 		{ "GetOverVisualFileName",		wndButtonGetOverVisualFileName,		METH_VARARGS },
; 2478 : 		{ "GetDownVisualFileName",		wndButtonGetDownVisualFileName,		METH_VARARGS },
; 2479 : 		{ "Flash",						wndButtonFlash,						METH_VARARGS },
; 2480 : 		{ "Enable",						wndButtonEnable,					METH_VARARGS },
; 2481 : 		{ "Disable",					wndButtonDisable,					METH_VARARGS },
; 2482 : 		{ "Down",						wndButtonDown,						METH_VARARGS },
; 2483 : 		{ "SetUp",						wndButtonSetUp,						METH_VARARGS },
; 2484 : 		{ "IsDown",						wndButtonIsDown,					METH_VARARGS },
; 2485 : 
; 2486 : 		// DragButton
; 2487 : 		{ "SetRestrictMovementArea",	wndButtonSetRestrictMovementArea,	METH_VARARGS },
; 2488 : 
; 2489 : 		// For Debug
; 2490 : 		{ "SetOutlineFlag",				wndMgrSetOutlineFlag,				METH_VARARGS },
; 2491 : 		{ "ShowOverInWindowName",		wndMgrShowOverInWindowName,			METH_VARARGS },
; 2492 : 
; 2493 : 		{ NULL,							NULL,								NULL },
; 2494 : 	};
; 2495 : 
; 2496 : 	PyObject * poModule = Py_InitModule("wndMgr", s_methods);

  00004	68 f5 03 00 00	 push	 1013			; 000003f5H
  00009	6a 00		 push	 0
  0000b	6a 00		 push	 0
  0000d	68 00 00 00 00	 push	 OFFSET ?s_methods@?1??initwndMgr@@YAXXZ@4PAUPyMethodDef@@A
  00012	68 00 00 00 00	 push	 OFFSET ??_C@_06CMPPDHLC@wndMgr@
  00017	ff 15 00 00 00
	00		 call	 DWORD PTR __imp__Py_InitModule4
  0001d	83 c4 14	 add	 esp, 20			; 00000014H
  00020	89 45 fc	 mov	 DWORD PTR _poModule$[ebp], eax

; 2497 : 
; 2498 : //     Function           - [levites]
; 2499 : //	PyObject * poMgrModule = Py_InitModule("wndMgr", s_methods);
; 2500 : //	PyObject * poTextModule = Py_InitModule("wndText", s_methods);
; 2501 : //	PyObject * poSlotModule = Py_InitModule("wndSlot", s_methods);
; 2502 : 
; 2503 : 	PyModule_AddIntConstant(poModule, "SLOT_STYLE_NONE",				UI::SLOT_STYLE_NONE);

  00023	6a 00		 push	 0
  00025	68 00 00 00 00	 push	 OFFSET ??_C@_0BA@CEBPCJJF@SLOT_STYLE_NONE@
  0002a	ff 75 fc	 push	 DWORD PTR _poModule$[ebp]
  0002d	ff 15 00 00 00
	00		 call	 DWORD PTR __imp__PyModule_AddIntConstant
  00033	83 c4 0c	 add	 esp, 12			; 0000000cH

; 2504 : 	PyModule_AddIntConstant(poModule, "SLOT_STYLE_PICK_UP",				UI::SLOT_STYLE_PICK_UP);

  00036	6a 01		 push	 1
  00038	68 00 00 00 00	 push	 OFFSET ??_C@_0BD@HIHLPNEG@SLOT_STYLE_PICK_UP@
  0003d	ff 75 fc	 push	 DWORD PTR _poModule$[ebp]
  00040	ff 15 00 00 00
	00		 call	 DWORD PTR __imp__PyModule_AddIntConstant
  00046	83 c4 0c	 add	 esp, 12			; 0000000cH

; 2505 : 	PyModule_AddIntConstant(poModule, "SLOT_STYLE_SELECT",				UI::SLOT_STYLE_SELECT);

  00049	6a 02		 push	 2
  0004b	68 00 00 00 00	 push	 OFFSET ??_C@_0BC@DPNNOEON@SLOT_STYLE_SELECT@
  00050	ff 75 fc	 push	 DWORD PTR _poModule$[ebp]
  00053	ff 15 00 00 00
	00		 call	 DWORD PTR __imp__PyModule_AddIntConstant
  00059	83 c4 0c	 add	 esp, 12			; 0000000cH

; 2506 : 
; 2507 : 	PyModule_AddIntConstant(poModule, "TEXT_HORIZONTAL_ALIGN_LEFT",		CGraphicTextInstance::HORIZONTAL_ALIGN_LEFT);

  0005c	6a 01		 push	 1
  0005e	68 00 00 00 00	 push	 OFFSET ??_C@_0BL@KJOOHAME@TEXT_HORIZONTAL_ALIGN_LEFT@
  00063	ff 75 fc	 push	 DWORD PTR _poModule$[ebp]
  00066	ff 15 00 00 00
	00		 call	 DWORD PTR __imp__PyModule_AddIntConstant
  0006c	83 c4 0c	 add	 esp, 12			; 0000000cH

; 2508 : 	PyModule_AddIntConstant(poModule, "TEXT_HORIZONTAL_ALIGN_RIGHT",	CGraphicTextInstance::HORIZONTAL_ALIGN_RIGHT);

  0006f	6a 03		 push	 3
  00071	68 00 00 00 00	 push	 OFFSET ??_C@_0BM@BDNLMDBC@TEXT_HORIZONTAL_ALIGN_RIGHT@
  00076	ff 75 fc	 push	 DWORD PTR _poModule$[ebp]
  00079	ff 15 00 00 00
	00		 call	 DWORD PTR __imp__PyModule_AddIntConstant
  0007f	83 c4 0c	 add	 esp, 12			; 0000000cH

; 2509 : 	PyModule_AddIntConstant(poModule, "TEXT_HORIZONTAL_ALIGN_CENTER",	CGraphicTextInstance::HORIZONTAL_ALIGN_CENTER);

  00082	6a 02		 push	 2
  00084	68 00 00 00 00	 push	 OFFSET ??_C@_0BN@MHHHIBEN@TEXT_HORIZONTAL_ALIGN_CENTER@
  00089	ff 75 fc	 push	 DWORD PTR _poModule$[ebp]
  0008c	ff 15 00 00 00
	00		 call	 DWORD PTR __imp__PyModule_AddIntConstant
  00092	83 c4 0c	 add	 esp, 12			; 0000000cH

; 2510 : 	PyModule_AddIntConstant(poModule, "TEXT_VERTICAL_ALIGN_TOP",		CGraphicTextInstance::VERTICAL_ALIGN_TOP);

  00095	6a 10		 push	 16			; 00000010H
  00097	68 00 00 00 00	 push	 OFFSET ??_C@_0BI@PIKJCBDF@TEXT_VERTICAL_ALIGN_TOP@
  0009c	ff 75 fc	 push	 DWORD PTR _poModule$[ebp]
  0009f	ff 15 00 00 00
	00		 call	 DWORD PTR __imp__PyModule_AddIntConstant
  000a5	83 c4 0c	 add	 esp, 12			; 0000000cH

; 2511 : 	PyModule_AddIntConstant(poModule, "TEXT_VERTICAL_ALIGN_BOTTOM",		CGraphicTextInstance::VERTICAL_ALIGN_BOTTOM);

  000a8	6a 30		 push	 48			; 00000030H
  000aa	68 00 00 00 00	 push	 OFFSET ??_C@_0BL@IKMFEFFI@TEXT_VERTICAL_ALIGN_BOTTOM@
  000af	ff 75 fc	 push	 DWORD PTR _poModule$[ebp]
  000b2	ff 15 00 00 00
	00		 call	 DWORD PTR __imp__PyModule_AddIntConstant
  000b8	83 c4 0c	 add	 esp, 12			; 0000000cH

; 2512 : 	PyModule_AddIntConstant(poModule, "TEXT_VERTICAL_ALIGN_CENTER",		CGraphicTextInstance::VERTICAL_ALIGN_CENTER);

  000bb	6a 20		 push	 32			; 00000020H
  000bd	68 00 00 00 00	 push	 OFFSET ??_C@_0BL@GHLEGJOB@TEXT_VERTICAL_ALIGN_CENTER@
  000c2	ff 75 fc	 push	 DWORD PTR _poModule$[ebp]
  000c5	ff 15 00 00 00
	00		 call	 DWORD PTR __imp__PyModule_AddIntConstant
  000cb	83 c4 0c	 add	 esp, 12			; 0000000cH

; 2513 : 
; 2514 : 	PyModule_AddIntConstant(poModule, "HORIZONTAL_ALIGN_LEFT",			UI::CWindow::HORIZONTAL_ALIGN_LEFT);

  000ce	6a 00		 push	 0
  000d0	68 00 00 00 00	 push	 OFFSET ??_C@_0BG@CEANPPL@HORIZONTAL_ALIGN_LEFT@
  000d5	ff 75 fc	 push	 DWORD PTR _poModule$[ebp]
  000d8	ff 15 00 00 00
	00		 call	 DWORD PTR __imp__PyModule_AddIntConstant
  000de	83 c4 0c	 add	 esp, 12			; 0000000cH

; 2515 : 	PyModule_AddIntConstant(poModule, "HORIZONTAL_ALIGN_CENTER",		UI::CWindow::HORIZONTAL_ALIGN_CENTER);

  000e1	6a 01		 push	 1
  000e3	68 00 00 00 00	 push	 OFFSET ??_C@_0BI@NJMALOKG@HORIZONTAL_ALIGN_CENTER@
  000e8	ff 75 fc	 push	 DWORD PTR _poModule$[ebp]
  000eb	ff 15 00 00 00
	00		 call	 DWORD PTR __imp__PyModule_AddIntConstant
  000f1	83 c4 0c	 add	 esp, 12			; 0000000cH

; 2516 : 	PyModule_AddIntConstant(poModule, "HORIZONTAL_ALIGN_RIGHT",			UI::CWindow::HORIZONTAL_ALIGN_RIGHT);

  000f4	6a 02		 push	 2
  000f6	68 00 00 00 00	 push	 OFFSET ??_C@_0BH@KFBGEAIA@HORIZONTAL_ALIGN_RIGHT@
  000fb	ff 75 fc	 push	 DWORD PTR _poModule$[ebp]
  000fe	ff 15 00 00 00
	00		 call	 DWORD PTR __imp__PyModule_AddIntConstant
  00104	83 c4 0c	 add	 esp, 12			; 0000000cH

; 2517 : 	PyModule_AddIntConstant(poModule, "VERTICAL_ALIGN_TOP",				UI::CWindow::VERTICAL_ALIGN_TOP);

  00107	6a 00		 push	 0
  00109	68 00 00 00 00	 push	 OFFSET ??_C@_0BD@PBJDAEOI@VERTICAL_ALIGN_TOP@
  0010e	ff 75 fc	 push	 DWORD PTR _poModule$[ebp]
  00111	ff 15 00 00 00
	00		 call	 DWORD PTR __imp__PyModule_AddIntConstant
  00117	83 c4 0c	 add	 esp, 12			; 0000000cH

; 2518 : 	PyModule_AddIntConstant(poModule, "VERTICAL_ALIGN_CENTER",			UI::CWindow::VERTICAL_ALIGN_CENTER);

  0011a	6a 01		 push	 1
  0011c	68 00 00 00 00	 push	 OFFSET ??_C@_0BG@MMBKMGNO@VERTICAL_ALIGN_CENTER@
  00121	ff 75 fc	 push	 DWORD PTR _poModule$[ebp]
  00124	ff 15 00 00 00
	00		 call	 DWORD PTR __imp__PyModule_AddIntConstant
  0012a	83 c4 0c	 add	 esp, 12			; 0000000cH

; 2519 : 	PyModule_AddIntConstant(poModule, "VERTICAL_ALIGN_BOTTOM",			UI::CWindow::VERTICAL_ALIGN_BOTTOM);

  0012d	6a 02		 push	 2
  0012f	68 00 00 00 00	 push	 OFFSET ??_C@_0BG@CBGLOKGH@VERTICAL_ALIGN_BOTTOM@
  00134	ff 75 fc	 push	 DWORD PTR _poModule$[ebp]
  00137	ff 15 00 00 00
	00		 call	 DWORD PTR __imp__PyModule_AddIntConstant
  0013d	83 c4 0c	 add	 esp, 12			; 0000000cH

; 2520 : 
; 2521 : 	PyModule_AddIntConstant(poModule, "RENDERING_MODE_MODULATE",		CGraphicExpandedImageInstance::RENDERING_MODE_MODULATE);

  00140	6a 03		 push	 3
  00142	68 00 00 00 00	 push	 OFFSET ??_C@_0BI@BNOJCJOH@RENDERING_MODE_MODULATE@
  00147	ff 75 fc	 push	 DWORD PTR _poModule$[ebp]
  0014a	ff 15 00 00 00
	00		 call	 DWORD PTR __imp__PyModule_AddIntConstant
  00150	83 c4 0c	 add	 esp, 12			; 0000000cH

; 2522 : }

  00153	c9		 leave
  00154	c3		 ret	 0
?initwndMgr@@YAXXZ ENDP					; initwndMgr
_TEXT	ENDS
; Function compile flags: /Odspy
; File C:\Program Files (x86)\Microsoft Visual Studio\2019\Community\VC\Tools\MSVC\14.28.29333\include\xstring
; File C:\Program Files (x86)\Microsoft Visual Studio\2019\Community\VC\Tools\MSVC\14.28.29333\include\xstddef
; File C:\Program Files (x86)\Microsoft Visual Studio\2019\Community\VC\Tools\MSVC\14.28.29333\include\xstring
;	COMDAT ?_Myptr@?$_String_val@U?$_Simple_types@D@std@@@std@@QBEPBDXZ
_TEXT	SEGMENT
__Ptr$ = -20						; size = 4
__Result$ = -16						; size = 4
tv76 = -12						; size = 4
_this$ = -8						; size = 4
$T1 = -1						; size = 1
?_Myptr@?$_String_val@U?$_Simple_types@D@std@@@std@@QBEPBDXZ PROC ; std::_String_val<std::_Simple_types<char> >::_Myptr, COMDAT
; _this$ = ecx

; 2217 :     const value_type* _Myptr() const noexcept {

  00000	55		 push	 ebp
  00001	8b ec		 mov	 ebp, esp
  00003	83 ec 14	 sub	 esp, 20			; 00000014H
  00006	89 4d f8	 mov	 DWORD PTR _this$[ebp], ecx

; 2218 :         const value_type* _Result = _Bx._Buf;

  00009	8b 45 f8	 mov	 eax, DWORD PTR _this$[ebp]
  0000c	89 45 f0	 mov	 DWORD PTR __Result$[ebp], eax

; 2227 :         return _BUF_SIZE <= _Myres;

  0000f	8b 45 f8	 mov	 eax, DWORD PTR _this$[ebp]
  00012	83 78 14 10	 cmp	 DWORD PTR [eax+20], 16	; 00000010H
  00016	72 09		 jb	 SHORT $LN6@Myptr
  00018	c7 45 f4 01 00
	00 00		 mov	 DWORD PTR tv76[ebp], 1
  0001f	eb 04		 jmp	 SHORT $LN7@Myptr
$LN6@Myptr:
  00021	83 65 f4 00	 and	 DWORD PTR tv76[ebp], 0
$LN7@Myptr:
  00025	8a 45 f4	 mov	 al, BYTE PTR tv76[ebp]
  00028	88 45 ff	 mov	 BYTE PTR $T1[ebp], al

; 2219 :         if (_Large_string_engaged()) {

  0002b	0f b6 45 ff	 movzx	 eax, BYTE PTR $T1[ebp]
  0002f	85 c0		 test	 eax, eax
  00031	74 0e		 je	 SHORT $LN2@Myptr

; 2220 :             _Result = _Unfancy(_Bx._Ptr);

  00033	8b 45 f8	 mov	 eax, DWORD PTR _this$[ebp]
  00036	8b 00		 mov	 eax, DWORD PTR [eax]
  00038	89 45 ec	 mov	 DWORD PTR __Ptr$[ebp], eax
; File C:\Program Files (x86)\Microsoft Visual Studio\2019\Community\VC\Tools\MSVC\14.28.29333\include\xstddef

; 289  :     return _Ptr;

  0003b	8b 45 ec	 mov	 eax, DWORD PTR __Ptr$[ebp]
  0003e	89 45 f0	 mov	 DWORD PTR __Result$[ebp], eax
$LN2@Myptr:
; File C:\Program Files (x86)\Microsoft Visual Studio\2019\Community\VC\Tools\MSVC\14.28.29333\include\xstring

; 2223 :         return _Result;

  00041	8b 45 f0	 mov	 eax, DWORD PTR __Result$[ebp]

; 2224 :     }

  00044	c9		 leave
  00045	c3		 ret	 0
?_Myptr@?$_String_val@U?$_Simple_types@D@std@@@std@@QBEPBDXZ ENDP ; std::_String_val<std::_Simple_types<char> >::_Myptr
_TEXT	ENDS
END
