; Listing generated by Microsoft (R) Optimizing Compiler Version 19.28.29335.0 

	TITLE	D:\Metin2 Server Files\mainline\SRC_2014\Metin2Client\eterPythonLib\PythonGraphicThingModule.cpp
	.686P
	.XMM
	include listing.inc
	.model	flat

INCLUDELIB LIBCMT
INCLUDELIB OLDNAMES

PUBLIC	?initgrpThing@@YAXXZ				; initgrpThing
PUBLIC	?PyTuple_GetThingInstance@@YA_NPAU_object@@HPAPAVCGraphicThingInstance@@@Z ; PyTuple_GetThingInstance
PUBLIC	?grpThingGenerate@@YAPAU_object@@PAU1@0@Z	; grpThingGenerate
PUBLIC	?grpThingDelete@@YAPAU_object@@PAU1@0@Z		; grpThingDelete
PUBLIC	?grpThingSetFileName@@YAPAU_object@@PAU1@0@Z	; grpThingSetFileName
PUBLIC	?grpThingRender@@YAPAU_object@@PAU1@0@Z		; grpThingRender
PUBLIC	?grpThingUpdate@@YAPAU_object@@PAU1@0@Z		; grpThingUpdate
PUBLIC	?grpSetThingPosition@@YAPAU_object@@PAU1@0@Z	; grpSetThingPosition
PUBLIC	?grpSetThingRotation@@YAPAU_object@@PAU1@0@Z	; grpSetThingRotation
PUBLIC	?grpSetThingScale@@YAPAU_object@@PAU1@0@Z	; grpSetThingScale
PUBLIC	?ms_singleton@?$CSingleton@VCResourceManager@@@@0PAVCResourceManager@@A ; CSingleton<CResourceManager>::ms_singleton
PUBLIC	??_C@_01KBJDNOO@i@				; `string'
PUBLIC	??_C@_06LMAGPFNF@Update@			; `string'
PUBLIC	??_C@_06EPLDPNDB@Render@			; `string'
PUBLIC	??_C@_0M@GKIFPNAD@SetPosition@			; `string'
PUBLIC	??_C@_08PDEEPOLG@Generate@			; `string'
PUBLIC	??_C@_06JBKGCNBB@Delete@			; `string'
PUBLIC	??_C@_0M@FLDBGGEO@SetFileName@			; `string'
PUBLIC	??_C@_0M@GNIHGJGG@SetRotation@			; `string'
PUBLIC	??_C@_08FMFAIGAB@SetScale@			; `string'
PUBLIC	??_C@_08DDGPJEFE@grpThing@			; `string'
EXTRN	_strlen:PROC
EXTRN	__imp__Py_BuildValue:PROC
EXTRN	__imp__Py_InitModule4:PROC
EXTRN	?PyTuple_GetString@@YA_NPAU_object@@HPAPAD@Z:PROC ; PyTuple_GetString
EXTRN	?PyTuple_GetInteger@@YA_NPAU_object@@HPAH@Z:PROC ; PyTuple_GetInteger
EXTRN	?PyTuple_GetFloat@@YA_NPAU_object@@HPAM@Z:PROC	; PyTuple_GetFloat
EXTRN	?Py_BuildException@@YAPAU_object@@PBDZZ:PROC	; Py_BuildException
EXTRN	?Py_BuildNone@@YAPAU_object@@XZ:PROC		; Py_BuildNone
EXTRN	?IsType@CResource@@QAE_NK@Z:PROC		; CResource::IsType
EXTRN	?GetResourcePointer@CResourceManager@@QAEPAVCResource@@PBD@Z:PROC ; CResourceManager::GetResourcePointer
EXTRN	?SetPosition@CGraphicObjectInstance@@QAEXMMM@Z:PROC ; CGraphicObjectInstance::SetPosition
EXTRN	?SetScale@CGraphicObjectInstance@@QAEXMMM@Z:PROC ; CGraphicObjectInstance::SetScale
EXTRN	?SetRotation@CGraphicObjectInstance@@QAEXM@Z:PROC ; CGraphicObjectInstance::SetRotation
EXTRN	?Clear@CGraphicObjectInstance@@QAEXXZ:PROC	; CGraphicObjectInstance::Clear
EXTRN	?Update@CGraphicObjectInstance@@QAEXXZ:PROC	; CGraphicObjectInstance::Update
EXTRN	?Render@CGraphicObjectInstance@@QAE_NXZ:PROC	; CGraphicObjectInstance::Render
EXTRN	?Deform@CGraphicObjectInstance@@QAEXXZ:PROC	; CGraphicObjectInstance::Deform
EXTRN	?Type@CGraphicThing@@SAKXZ:PROC			; CGraphicThing::Type
EXTRN	?ReserveModelInstance@CGraphicThingInstance@@QAEXH@Z:PROC ; CGraphicThingInstance::ReserveModelInstance
EXTRN	?ReserveModelThing@CGraphicThingInstance@@QAEXH@Z:PROC ; CGraphicThingInstance::ReserveModelThing
EXTRN	?RegisterModelThing@CGraphicThingInstance@@QAEXHPAVCGraphicThing@@@Z:PROC ; CGraphicThingInstance::RegisterModelThing
EXTRN	?SetModelInstance@CGraphicThingInstance@@QAE_NHHHH@Z:PROC ; CGraphicThingInstance::SetModelInstance
EXTRN	?New@CGraphicThingInstance@@SAPAV1@XZ:PROC	; CGraphicThingInstance::New
EXTRN	?Delete@CGraphicThingInstance@@SAXPAV1@@Z:PROC	; CGraphicThingInstance::Delete
EXTRN	__fltused:DWORD
;	COMDAT ?ms_singleton@?$CSingleton@VCResourceManager@@@@0PAVCResourceManager@@A
_BSS	SEGMENT
?ms_singleton@?$CSingleton@VCResourceManager@@@@0PAVCResourceManager@@A DD 01H DUP (?) ; CSingleton<CResourceManager>::ms_singleton
_BSS	ENDS
;	COMDAT ??_C@_08DDGPJEFE@grpThing@
CONST	SEGMENT
??_C@_08DDGPJEFE@grpThing@ DB 'grpThing', 00H		; `string'
CONST	ENDS
;	COMDAT ??_C@_08FMFAIGAB@SetScale@
CONST	SEGMENT
??_C@_08FMFAIGAB@SetScale@ DB 'SetScale', 00H		; `string'
CONST	ENDS
;	COMDAT ??_C@_0M@GNIHGJGG@SetRotation@
CONST	SEGMENT
??_C@_0M@GNIHGJGG@SetRotation@ DB 'SetRotation', 00H	; `string'
CONST	ENDS
;	COMDAT ??_C@_0M@FLDBGGEO@SetFileName@
CONST	SEGMENT
??_C@_0M@FLDBGGEO@SetFileName@ DB 'SetFileName', 00H	; `string'
CONST	ENDS
;	COMDAT ??_C@_06JBKGCNBB@Delete@
CONST	SEGMENT
??_C@_06JBKGCNBB@Delete@ DB 'Delete', 00H		; `string'
CONST	ENDS
;	COMDAT ??_C@_08PDEEPOLG@Generate@
CONST	SEGMENT
??_C@_08PDEEPOLG@Generate@ DB 'Generate', 00H		; `string'
CONST	ENDS
;	COMDAT ??_C@_0M@GKIFPNAD@SetPosition@
CONST	SEGMENT
??_C@_0M@GKIFPNAD@SetPosition@ DB 'SetPosition', 00H	; `string'
CONST	ENDS
;	COMDAT ??_C@_06EPLDPNDB@Render@
CONST	SEGMENT
??_C@_06EPLDPNDB@Render@ DB 'Render', 00H		; `string'
CONST	ENDS
;	COMDAT ??_C@_06LMAGPFNF@Update@
CONST	SEGMENT
??_C@_06LMAGPFNF@Update@ DB 'Update', 00H		; `string'
CONST	ENDS
;	COMDAT ?s_methods@?1??initgrpThing@@YAXXZ@4PAUPyMethodDef@@A
_DATA	SEGMENT
?s_methods@?1??initgrpThing@@YAXXZ@4PAUPyMethodDef@@A DD FLAT:??_C@_06LMAGPFNF@Update@ ; `initgrpThing'::`2'::s_methods
	DD	FLAT:?grpThingUpdate@@YAPAU_object@@PAU1@0@Z
	DD	01H
	ORG $+4
	DD	FLAT:??_C@_06EPLDPNDB@Render@
	DD	FLAT:?grpThingRender@@YAPAU_object@@PAU1@0@Z
	DD	01H
	ORG $+4
	DD	FLAT:??_C@_0M@GKIFPNAD@SetPosition@
	DD	FLAT:?grpSetThingPosition@@YAPAU_object@@PAU1@0@Z
	DD	01H
	ORG $+4
	DD	FLAT:??_C@_08PDEEPOLG@Generate@
	DD	FLAT:?grpThingGenerate@@YAPAU_object@@PAU1@0@Z
	DD	01H
	ORG $+4
	DD	FLAT:??_C@_06JBKGCNBB@Delete@
	DD	FLAT:?grpThingDelete@@YAPAU_object@@PAU1@0@Z
	DD	01H
	ORG $+4
	DD	FLAT:??_C@_0M@FLDBGGEO@SetFileName@
	DD	FLAT:?grpThingSetFileName@@YAPAU_object@@PAU1@0@Z
	DD	01H
	ORG $+4
	DD	FLAT:??_C@_0M@GNIHGJGG@SetRotation@
	DD	FLAT:?grpSetThingRotation@@YAPAU_object@@PAU1@0@Z
	DD	01H
	ORG $+4
	DD	FLAT:??_C@_08FMFAIGAB@SetScale@
	DD	FLAT:?grpSetThingScale@@YAPAU_object@@PAU1@0@Z
	DD	01H
	ORG $+4
	DD	00H
	DD	00H
	DD	00H
	ORG $+4
_DATA	ENDS
;	COMDAT ??_C@_01KBJDNOO@i@
CONST	SEGMENT
??_C@_01KBJDNOO@i@ DB 'i', 00H				; `string'
CONST	ENDS
; Function compile flags: /Odspy
; File D:\Metin2 Server Files\mainline\SRC_2014\Metin2Client\eterPythonLib\PythonGraphicThingModule.cpp
;	COMDAT ?grpSetThingScale@@YAPAU_object@@PAU1@0@Z
_TEXT	SEGMENT
_pThingInstance$ = -16					; size = 4
_x$ = -12						; size = 4
_y$ = -8						; size = 4
_z$ = -4						; size = 4
_poSelf$ = 8						; size = 4
_poArgs$ = 12						; size = 4
?grpSetThingScale@@YAPAU_object@@PAU1@0@Z PROC		; grpSetThingScale, COMDAT

; 129  : {

  00000	55		 push	 ebp
  00001	8b ec		 mov	 ebp, esp
  00003	83 ec 10	 sub	 esp, 16			; 00000010H

; 130  : 	CGraphicThingInstance* pThingInstance;
; 131  : 	if (!PyTuple_GetThingInstance(poArgs, 0, &pThingInstance))

  00006	8d 45 f0	 lea	 eax, DWORD PTR _pThingInstance$[ebp]
  00009	50		 push	 eax
  0000a	6a 00		 push	 0
  0000c	ff 75 0c	 push	 DWORD PTR _poArgs$[ebp]
  0000f	e8 00 00 00 00	 call	 ?PyTuple_GetThingInstance@@YA_NPAU_object@@HPAPAVCGraphicThingInstance@@@Z ; PyTuple_GetThingInstance
  00014	83 c4 0c	 add	 esp, 12			; 0000000cH
  00017	0f b6 c0	 movzx	 eax, al
  0001a	85 c0		 test	 eax, eax
  0001c	75 0d		 jne	 SHORT $LN2@grpSetThin

; 132  : 		return Py_BuildException();

  0001e	6a 00		 push	 0
  00020	e8 00 00 00 00	 call	 ?Py_BuildException@@YAPAU_object@@PBDZZ ; Py_BuildException
  00025	59		 pop	 ecx
  00026	e9 94 00 00 00	 jmp	 $LN1@grpSetThin
$LN2@grpSetThin:

; 133  : 	
; 134  : 	float x;
; 135  : 	if (!PyTuple_GetFloat(poArgs, 1, &x))

  0002b	8d 45 f4	 lea	 eax, DWORD PTR _x$[ebp]
  0002e	50		 push	 eax
  0002f	6a 01		 push	 1
  00031	ff 75 0c	 push	 DWORD PTR _poArgs$[ebp]
  00034	e8 00 00 00 00	 call	 ?PyTuple_GetFloat@@YA_NPAU_object@@HPAM@Z ; PyTuple_GetFloat
  00039	83 c4 0c	 add	 esp, 12			; 0000000cH
  0003c	0f b6 c0	 movzx	 eax, al
  0003f	85 c0		 test	 eax, eax
  00041	75 0a		 jne	 SHORT $LN3@grpSetThin

; 136  : 		return Py_BuildException();

  00043	6a 00		 push	 0
  00045	e8 00 00 00 00	 call	 ?Py_BuildException@@YAPAU_object@@PBDZZ ; Py_BuildException
  0004a	59		 pop	 ecx
  0004b	eb 72		 jmp	 SHORT $LN1@grpSetThin
$LN3@grpSetThin:

; 137  : 	float y;
; 138  : 	if (!PyTuple_GetFloat(poArgs, 2, &y))

  0004d	8d 45 f8	 lea	 eax, DWORD PTR _y$[ebp]
  00050	50		 push	 eax
  00051	6a 02		 push	 2
  00053	ff 75 0c	 push	 DWORD PTR _poArgs$[ebp]
  00056	e8 00 00 00 00	 call	 ?PyTuple_GetFloat@@YA_NPAU_object@@HPAM@Z ; PyTuple_GetFloat
  0005b	83 c4 0c	 add	 esp, 12			; 0000000cH
  0005e	0f b6 c0	 movzx	 eax, al
  00061	85 c0		 test	 eax, eax
  00063	75 0a		 jne	 SHORT $LN4@grpSetThin

; 139  : 		return Py_BuildException();

  00065	6a 00		 push	 0
  00067	e8 00 00 00 00	 call	 ?Py_BuildException@@YAPAU_object@@PBDZZ ; Py_BuildException
  0006c	59		 pop	 ecx
  0006d	eb 50		 jmp	 SHORT $LN1@grpSetThin
$LN4@grpSetThin:

; 140  : 	float z;
; 141  : 	if (!PyTuple_GetFloat(poArgs, 3, &z))

  0006f	8d 45 fc	 lea	 eax, DWORD PTR _z$[ebp]
  00072	50		 push	 eax
  00073	6a 03		 push	 3
  00075	ff 75 0c	 push	 DWORD PTR _poArgs$[ebp]
  00078	e8 00 00 00 00	 call	 ?PyTuple_GetFloat@@YA_NPAU_object@@HPAM@Z ; PyTuple_GetFloat
  0007d	83 c4 0c	 add	 esp, 12			; 0000000cH
  00080	0f b6 c0	 movzx	 eax, al
  00083	85 c0		 test	 eax, eax
  00085	75 0a		 jne	 SHORT $LN5@grpSetThin

; 142  : 		return Py_BuildException();

  00087	6a 00		 push	 0
  00089	e8 00 00 00 00	 call	 ?Py_BuildException@@YAPAU_object@@PBDZZ ; Py_BuildException
  0008e	59		 pop	 ecx
  0008f	eb 2e		 jmp	 SHORT $LN1@grpSetThin
$LN5@grpSetThin:

; 143  : 	
; 144  : 	pThingInstance->SetScale(x, y, z);

  00091	51		 push	 ecx
  00092	f3 0f 10 45 fc	 movss	 xmm0, DWORD PTR _z$[ebp]
  00097	f3 0f 11 04 24	 movss	 DWORD PTR [esp], xmm0
  0009c	51		 push	 ecx
  0009d	f3 0f 10 45 f8	 movss	 xmm0, DWORD PTR _y$[ebp]
  000a2	f3 0f 11 04 24	 movss	 DWORD PTR [esp], xmm0
  000a7	51		 push	 ecx
  000a8	f3 0f 10 45 f4	 movss	 xmm0, DWORD PTR _x$[ebp]
  000ad	f3 0f 11 04 24	 movss	 DWORD PTR [esp], xmm0
  000b2	8b 4d f0	 mov	 ecx, DWORD PTR _pThingInstance$[ebp]
  000b5	e8 00 00 00 00	 call	 ?SetScale@CGraphicObjectInstance@@QAEXMMM@Z ; CGraphicObjectInstance::SetScale

; 145  : 	return Py_BuildNone();

  000ba	e8 00 00 00 00	 call	 ?Py_BuildNone@@YAPAU_object@@XZ ; Py_BuildNone
$LN1@grpSetThin:

; 146  : }

  000bf	c9		 leave
  000c0	c3		 ret	 0
?grpSetThingScale@@YAPAU_object@@PAU1@0@Z ENDP		; grpSetThingScale
_TEXT	ENDS
; Function compile flags: /Odspy
; File D:\Metin2 Server Files\mainline\SRC_2014\Metin2Client\eterPythonLib\PythonGraphicThingModule.cpp
;	COMDAT ?grpSetThingRotation@@YAPAU_object@@PAU1@0@Z
_TEXT	SEGMENT
_pThingInstance$ = -8					; size = 4
_fDegree$ = -4						; size = 4
_poSelf$ = 8						; size = 4
_poArgs$ = 12						; size = 4
?grpSetThingRotation@@YAPAU_object@@PAU1@0@Z PROC	; grpSetThingRotation, COMDAT

; 115  : {

  00000	55		 push	 ebp
  00001	8b ec		 mov	 ebp, esp
  00003	51		 push	 ecx
  00004	51		 push	 ecx

; 116  : 	CGraphicThingInstance* pThingInstance;
; 117  : 	if (!PyTuple_GetThingInstance(poArgs, 0, &pThingInstance))

  00005	8d 45 f8	 lea	 eax, DWORD PTR _pThingInstance$[ebp]
  00008	50		 push	 eax
  00009	6a 00		 push	 0
  0000b	ff 75 0c	 push	 DWORD PTR _poArgs$[ebp]
  0000e	e8 00 00 00 00	 call	 ?PyTuple_GetThingInstance@@YA_NPAU_object@@HPAPAVCGraphicThingInstance@@@Z ; PyTuple_GetThingInstance
  00013	83 c4 0c	 add	 esp, 12			; 0000000cH
  00016	0f b6 c0	 movzx	 eax, al
  00019	85 c0		 test	 eax, eax
  0001b	75 0a		 jne	 SHORT $LN2@grpSetThin

; 118  : 		return Py_BuildException();

  0001d	6a 00		 push	 0
  0001f	e8 00 00 00 00	 call	 ?Py_BuildException@@YAPAU_object@@PBDZZ ; Py_BuildException
  00024	59		 pop	 ecx
  00025	eb 3a		 jmp	 SHORT $LN1@grpSetThin
$LN2@grpSetThin:

; 119  : 
; 120  : 	float fDegree;
; 121  : 	if (!PyTuple_GetFloat(poArgs, 1, &fDegree))

  00027	8d 45 fc	 lea	 eax, DWORD PTR _fDegree$[ebp]
  0002a	50		 push	 eax
  0002b	6a 01		 push	 1
  0002d	ff 75 0c	 push	 DWORD PTR _poArgs$[ebp]
  00030	e8 00 00 00 00	 call	 ?PyTuple_GetFloat@@YA_NPAU_object@@HPAM@Z ; PyTuple_GetFloat
  00035	83 c4 0c	 add	 esp, 12			; 0000000cH
  00038	0f b6 c0	 movzx	 eax, al
  0003b	85 c0		 test	 eax, eax
  0003d	75 0a		 jne	 SHORT $LN3@grpSetThin

; 122  : 		return Py_BuildException();

  0003f	6a 00		 push	 0
  00041	e8 00 00 00 00	 call	 ?Py_BuildException@@YAPAU_object@@PBDZZ ; Py_BuildException
  00046	59		 pop	 ecx
  00047	eb 18		 jmp	 SHORT $LN1@grpSetThin
$LN3@grpSetThin:

; 123  : 
; 124  : 	pThingInstance->SetRotation(fDegree);

  00049	51		 push	 ecx
  0004a	f3 0f 10 45 fc	 movss	 xmm0, DWORD PTR _fDegree$[ebp]
  0004f	f3 0f 11 04 24	 movss	 DWORD PTR [esp], xmm0
  00054	8b 4d f8	 mov	 ecx, DWORD PTR _pThingInstance$[ebp]
  00057	e8 00 00 00 00	 call	 ?SetRotation@CGraphicObjectInstance@@QAEXM@Z ; CGraphicObjectInstance::SetRotation

; 125  : 	return Py_BuildNone();

  0005c	e8 00 00 00 00	 call	 ?Py_BuildNone@@YAPAU_object@@XZ ; Py_BuildNone
$LN1@grpSetThin:

; 126  : }

  00061	c9		 leave
  00062	c3		 ret	 0
?grpSetThingRotation@@YAPAU_object@@PAU1@0@Z ENDP	; grpSetThingRotation
_TEXT	ENDS
; Function compile flags: /Odspy
; File D:\Metin2 Server Files\mainline\SRC_2014\Metin2Client\eterPythonLib\PythonGraphicThingModule.cpp
;	COMDAT ?grpSetThingPosition@@YAPAU_object@@PAU1@0@Z
_TEXT	SEGMENT
_pThingInstance$ = -16					; size = 4
_x$ = -12						; size = 4
_y$ = -8						; size = 4
_z$ = -4						; size = 4
_poSelf$ = 8						; size = 4
_poArgs$ = 12						; size = 4
?grpSetThingPosition@@YAPAU_object@@PAU1@0@Z PROC	; grpSetThingPosition, COMDAT

; 93   : {

  00000	55		 push	 ebp
  00001	8b ec		 mov	 ebp, esp
  00003	83 ec 10	 sub	 esp, 16			; 00000010H

; 94   : 	CGraphicThingInstance* pThingInstance;
; 95   : 	if (!PyTuple_GetThingInstance(poArgs, 0, &pThingInstance))

  00006	8d 45 f0	 lea	 eax, DWORD PTR _pThingInstance$[ebp]
  00009	50		 push	 eax
  0000a	6a 00		 push	 0
  0000c	ff 75 0c	 push	 DWORD PTR _poArgs$[ebp]
  0000f	e8 00 00 00 00	 call	 ?PyTuple_GetThingInstance@@YA_NPAU_object@@HPAPAVCGraphicThingInstance@@@Z ; PyTuple_GetThingInstance
  00014	83 c4 0c	 add	 esp, 12			; 0000000cH
  00017	0f b6 c0	 movzx	 eax, al
  0001a	85 c0		 test	 eax, eax
  0001c	75 0d		 jne	 SHORT $LN2@grpSetThin

; 96   : 		return Py_BuildException();

  0001e	6a 00		 push	 0
  00020	e8 00 00 00 00	 call	 ?Py_BuildException@@YAPAU_object@@PBDZZ ; Py_BuildException
  00025	59		 pop	 ecx
  00026	e9 94 00 00 00	 jmp	 $LN1@grpSetThin
$LN2@grpSetThin:

; 97   : 	
; 98   : 	float x;
; 99   : 	if (!PyTuple_GetFloat(poArgs, 1, &x))

  0002b	8d 45 f4	 lea	 eax, DWORD PTR _x$[ebp]
  0002e	50		 push	 eax
  0002f	6a 01		 push	 1
  00031	ff 75 0c	 push	 DWORD PTR _poArgs$[ebp]
  00034	e8 00 00 00 00	 call	 ?PyTuple_GetFloat@@YA_NPAU_object@@HPAM@Z ; PyTuple_GetFloat
  00039	83 c4 0c	 add	 esp, 12			; 0000000cH
  0003c	0f b6 c0	 movzx	 eax, al
  0003f	85 c0		 test	 eax, eax
  00041	75 0a		 jne	 SHORT $LN3@grpSetThin

; 100  : 		return Py_BuildException();

  00043	6a 00		 push	 0
  00045	e8 00 00 00 00	 call	 ?Py_BuildException@@YAPAU_object@@PBDZZ ; Py_BuildException
  0004a	59		 pop	 ecx
  0004b	eb 72		 jmp	 SHORT $LN1@grpSetThin
$LN3@grpSetThin:

; 101  : 
; 102  : 	float y;
; 103  : 	if (!PyTuple_GetFloat(poArgs, 2, &y))

  0004d	8d 45 f8	 lea	 eax, DWORD PTR _y$[ebp]
  00050	50		 push	 eax
  00051	6a 02		 push	 2
  00053	ff 75 0c	 push	 DWORD PTR _poArgs$[ebp]
  00056	e8 00 00 00 00	 call	 ?PyTuple_GetFloat@@YA_NPAU_object@@HPAM@Z ; PyTuple_GetFloat
  0005b	83 c4 0c	 add	 esp, 12			; 0000000cH
  0005e	0f b6 c0	 movzx	 eax, al
  00061	85 c0		 test	 eax, eax
  00063	75 0a		 jne	 SHORT $LN4@grpSetThin

; 104  : 		return Py_BuildException();

  00065	6a 00		 push	 0
  00067	e8 00 00 00 00	 call	 ?Py_BuildException@@YAPAU_object@@PBDZZ ; Py_BuildException
  0006c	59		 pop	 ecx
  0006d	eb 50		 jmp	 SHORT $LN1@grpSetThin
$LN4@grpSetThin:

; 105  : 
; 106  : 	float z;
; 107  : 	if (!PyTuple_GetFloat(poArgs, 3, &z))

  0006f	8d 45 fc	 lea	 eax, DWORD PTR _z$[ebp]
  00072	50		 push	 eax
  00073	6a 03		 push	 3
  00075	ff 75 0c	 push	 DWORD PTR _poArgs$[ebp]
  00078	e8 00 00 00 00	 call	 ?PyTuple_GetFloat@@YA_NPAU_object@@HPAM@Z ; PyTuple_GetFloat
  0007d	83 c4 0c	 add	 esp, 12			; 0000000cH
  00080	0f b6 c0	 movzx	 eax, al
  00083	85 c0		 test	 eax, eax
  00085	75 0a		 jne	 SHORT $LN5@grpSetThin

; 108  : 		return Py_BuildException();

  00087	6a 00		 push	 0
  00089	e8 00 00 00 00	 call	 ?Py_BuildException@@YAPAU_object@@PBDZZ ; Py_BuildException
  0008e	59		 pop	 ecx
  0008f	eb 2e		 jmp	 SHORT $LN1@grpSetThin
$LN5@grpSetThin:

; 109  : 	
; 110  : 	pThingInstance->SetPosition(x, y, z);

  00091	51		 push	 ecx
  00092	f3 0f 10 45 fc	 movss	 xmm0, DWORD PTR _z$[ebp]
  00097	f3 0f 11 04 24	 movss	 DWORD PTR [esp], xmm0
  0009c	51		 push	 ecx
  0009d	f3 0f 10 45 f8	 movss	 xmm0, DWORD PTR _y$[ebp]
  000a2	f3 0f 11 04 24	 movss	 DWORD PTR [esp], xmm0
  000a7	51		 push	 ecx
  000a8	f3 0f 10 45 f4	 movss	 xmm0, DWORD PTR _x$[ebp]
  000ad	f3 0f 11 04 24	 movss	 DWORD PTR [esp], xmm0
  000b2	8b 4d f0	 mov	 ecx, DWORD PTR _pThingInstance$[ebp]
  000b5	e8 00 00 00 00	 call	 ?SetPosition@CGraphicObjectInstance@@QAEXMMM@Z ; CGraphicObjectInstance::SetPosition

; 111  : 	return Py_BuildNone();

  000ba	e8 00 00 00 00	 call	 ?Py_BuildNone@@YAPAU_object@@XZ ; Py_BuildNone
$LN1@grpSetThin:

; 112  : }

  000bf	c9		 leave
  000c0	c3		 ret	 0
?grpSetThingPosition@@YAPAU_object@@PAU1@0@Z ENDP	; grpSetThingPosition
_TEXT	ENDS
; Function compile flags: /Odspy
; File D:\Metin2 Server Files\mainline\SRC_2014\Metin2Client\eterPythonLib\PythonGraphicThingModule.cpp
;	COMDAT ?grpThingUpdate@@YAPAU_object@@PAU1@0@Z
_TEXT	SEGMENT
_pThingInstance$ = -4					; size = 4
_poSelf$ = 8						; size = 4
_poArgs$ = 12						; size = 4
?grpThingUpdate@@YAPAU_object@@PAU1@0@Z PROC		; grpThingUpdate, COMDAT

; 82   : {

  00000	55		 push	 ebp
  00001	8b ec		 mov	 ebp, esp
  00003	51		 push	 ecx

; 83   : 	CGraphicThingInstance* pThingInstance;
; 84   : 	if (!PyTuple_GetThingInstance(poArgs, 0, &pThingInstance))

  00004	8d 45 fc	 lea	 eax, DWORD PTR _pThingInstance$[ebp]
  00007	50		 push	 eax
  00008	6a 00		 push	 0
  0000a	ff 75 0c	 push	 DWORD PTR _poArgs$[ebp]
  0000d	e8 00 00 00 00	 call	 ?PyTuple_GetThingInstance@@YA_NPAU_object@@HPAPAVCGraphicThingInstance@@@Z ; PyTuple_GetThingInstance
  00012	83 c4 0c	 add	 esp, 12			; 0000000cH
  00015	0f b6 c0	 movzx	 eax, al
  00018	85 c0		 test	 eax, eax
  0001a	75 0a		 jne	 SHORT $LN2@grpThingUp

; 85   : 		return Py_BuildException();

  0001c	6a 00		 push	 0
  0001e	e8 00 00 00 00	 call	 ?Py_BuildException@@YAPAU_object@@PBDZZ ; Py_BuildException
  00023	59		 pop	 ecx
  00024	eb 15		 jmp	 SHORT $LN1@grpThingUp
$LN2@grpThingUp:

; 86   : 
; 87   : 	pThingInstance->Update();

  00026	8b 4d fc	 mov	 ecx, DWORD PTR _pThingInstance$[ebp]
  00029	e8 00 00 00 00	 call	 ?Update@CGraphicObjectInstance@@QAEXXZ ; CGraphicObjectInstance::Update

; 88   : 	pThingInstance->Deform();

  0002e	8b 4d fc	 mov	 ecx, DWORD PTR _pThingInstance$[ebp]
  00031	e8 00 00 00 00	 call	 ?Deform@CGraphicObjectInstance@@QAEXXZ ; CGraphicObjectInstance::Deform

; 89   : 	return Py_BuildNone();

  00036	e8 00 00 00 00	 call	 ?Py_BuildNone@@YAPAU_object@@XZ ; Py_BuildNone
$LN1@grpThingUp:

; 90   : }

  0003b	c9		 leave
  0003c	c3		 ret	 0
?grpThingUpdate@@YAPAU_object@@PAU1@0@Z ENDP		; grpThingUpdate
_TEXT	ENDS
; Function compile flags: /Odspy
; File D:\Metin2 Server Files\mainline\SRC_2014\Metin2Client\eterPythonLib\PythonGraphicThingModule.cpp
;	COMDAT ?grpThingRender@@YAPAU_object@@PAU1@0@Z
_TEXT	SEGMENT
_pThingInstance$ = -4					; size = 4
_poSelf$ = 8						; size = 4
_poArgs$ = 12						; size = 4
?grpThingRender@@YAPAU_object@@PAU1@0@Z PROC		; grpThingRender, COMDAT

; 72   : {

  00000	55		 push	 ebp
  00001	8b ec		 mov	 ebp, esp
  00003	51		 push	 ecx

; 73   : 	CGraphicThingInstance* pThingInstance;
; 74   : 	if (!PyTuple_GetThingInstance(poArgs, 0, &pThingInstance))

  00004	8d 45 fc	 lea	 eax, DWORD PTR _pThingInstance$[ebp]
  00007	50		 push	 eax
  00008	6a 00		 push	 0
  0000a	ff 75 0c	 push	 DWORD PTR _poArgs$[ebp]
  0000d	e8 00 00 00 00	 call	 ?PyTuple_GetThingInstance@@YA_NPAU_object@@HPAPAVCGraphicThingInstance@@@Z ; PyTuple_GetThingInstance
  00012	83 c4 0c	 add	 esp, 12			; 0000000cH
  00015	0f b6 c0	 movzx	 eax, al
  00018	85 c0		 test	 eax, eax
  0001a	75 0a		 jne	 SHORT $LN2@grpThingRe

; 75   : 		return Py_BuildException();

  0001c	6a 00		 push	 0
  0001e	e8 00 00 00 00	 call	 ?Py_BuildException@@YAPAU_object@@PBDZZ ; Py_BuildException
  00023	59		 pop	 ecx
  00024	eb 0d		 jmp	 SHORT $LN1@grpThingRe
$LN2@grpThingRe:

; 76   : 
; 77   : 	pThingInstance->Render();

  00026	8b 4d fc	 mov	 ecx, DWORD PTR _pThingInstance$[ebp]
  00029	e8 00 00 00 00	 call	 ?Render@CGraphicObjectInstance@@QAE_NXZ ; CGraphicObjectInstance::Render

; 78   : 	return Py_BuildNone();

  0002e	e8 00 00 00 00	 call	 ?Py_BuildNone@@YAPAU_object@@XZ ; Py_BuildNone
$LN1@grpThingRe:

; 79   : }

  00033	c9		 leave
  00034	c3		 ret	 0
?grpThingRender@@YAPAU_object@@PAU1@0@Z ENDP		; grpThingRender
_TEXT	ENDS
; Function compile flags: /Odspy
; File D:\Metin2 Server Files\mainline\SRC_2014\Metin2Client\eterPythonLib\PythonGraphicThingModule.cpp
; File D:\Metin2 Server Files\mainline\SRC_2014\Metin2Client\eterBase\Singleton.h
; File D:\Metin2 Server Files\mainline\SRC_2014\Metin2Client\eterPythonLib\PythonGraphicThingModule.cpp
;	COMDAT ?grpThingSetFileName@@YAPAU_object@@PAU1@0@Z
_TEXT	SEGMENT
$T1 = -16						; size = 4
_szFileName$ = -12					; size = 4
_pResource$ = -8					; size = 4
_pThingInstance$ = -4					; size = 4
_poSelf$ = 8						; size = 4
_poArgs$ = 12						; size = 4
?grpThingSetFileName@@YAPAU_object@@PAU1@0@Z PROC	; grpThingSetFileName, COMDAT

; 49   : {

  00000	55		 push	 ebp
  00001	8b ec		 mov	 ebp, esp
  00003	83 ec 10	 sub	 esp, 16			; 00000010H

; 50   : 	CGraphicThingInstance * pThingInstance;
; 51   : 	if (!PyTuple_GetThingInstance(poArgs, 0, &pThingInstance))

  00006	8d 45 fc	 lea	 eax, DWORD PTR _pThingInstance$[ebp]
  00009	50		 push	 eax
  0000a	6a 00		 push	 0
  0000c	ff 75 0c	 push	 DWORD PTR _poArgs$[ebp]
  0000f	e8 00 00 00 00	 call	 ?PyTuple_GetThingInstance@@YA_NPAU_object@@HPAPAVCGraphicThingInstance@@@Z ; PyTuple_GetThingInstance
  00014	83 c4 0c	 add	 esp, 12			; 0000000cH
  00017	0f b6 c0	 movzx	 eax, al
  0001a	85 c0		 test	 eax, eax
  0001c	75 0d		 jne	 SHORT $LN2@grpThingSe

; 52   : 		return Py_BuildException();

  0001e	6a 00		 push	 0
  00020	e8 00 00 00 00	 call	 ?Py_BuildException@@YAPAU_object@@PBDZZ ; Py_BuildException
  00025	59		 pop	 ecx
  00026	e9 95 00 00 00	 jmp	 $LN1@grpThingSe
$LN2@grpThingSe:

; 53   : 	
; 54   : 	char* szFileName;
; 55   : 	if (!PyTuple_GetString(poArgs, 1, &szFileName))

  0002b	8d 45 f4	 lea	 eax, DWORD PTR _szFileName$[ebp]
  0002e	50		 push	 eax
  0002f	6a 01		 push	 1
  00031	ff 75 0c	 push	 DWORD PTR _poArgs$[ebp]
  00034	e8 00 00 00 00	 call	 ?PyTuple_GetString@@YA_NPAU_object@@HPAPAD@Z ; PyTuple_GetString
  00039	83 c4 0c	 add	 esp, 12			; 0000000cH
  0003c	0f b6 c0	 movzx	 eax, al
  0003f	85 c0		 test	 eax, eax
  00041	75 0a		 jne	 SHORT $LN3@grpThingSe

; 56   : 		return Py_BuildException();

  00043	6a 00		 push	 0
  00045	e8 00 00 00 00	 call	 ?Py_BuildException@@YAPAU_object@@PBDZZ ; Py_BuildException
  0004a	59		 pop	 ecx
  0004b	eb 73		 jmp	 SHORT $LN1@grpThingSe
$LN3@grpThingSe:
; File D:\Metin2 Server Files\mainline\SRC_2014\Metin2Client\eterBase\Singleton.h

; 27   : 		return (*ms_singleton);

  0004d	a1 00 00 00 00	 mov	 eax, DWORD PTR ?ms_singleton@?$CSingleton@VCResourceManager@@@@0PAVCResourceManager@@A ; CSingleton<CResourceManager>::ms_singleton
  00052	89 45 f0	 mov	 DWORD PTR $T1[ebp], eax
; File D:\Metin2 Server Files\mainline\SRC_2014\Metin2Client\eterPythonLib\PythonGraphicThingModule.cpp

; 58   : 	CResource* pResource = CResourceManager::Instance().GetResourcePointer(szFileName);

  00055	ff 75 f4	 push	 DWORD PTR _szFileName$[ebp]
  00058	8b 4d f0	 mov	 ecx, DWORD PTR $T1[ebp]
  0005b	e8 00 00 00 00	 call	 ?GetResourcePointer@CResourceManager@@QAEPAVCResource@@PBD@Z ; CResourceManager::GetResourcePointer
  00060	89 45 f8	 mov	 DWORD PTR _pResource$[ebp], eax

; 59   : 
; 60   : 	if (!pResource->IsType(CGraphicThing::Type()))

  00063	e8 00 00 00 00	 call	 ?Type@CGraphicThing@@SAKXZ ; CGraphicThing::Type
  00068	50		 push	 eax
  00069	8b 4d f8	 mov	 ecx, DWORD PTR _pResource$[ebp]
  0006c	e8 00 00 00 00	 call	 ?IsType@CResource@@QAE_NK@Z ; CResource::IsType
  00071	0f b6 c0	 movzx	 eax, al
  00074	85 c0		 test	 eax, eax
  00076	75 0a		 jne	 SHORT $LN4@grpThingSe

; 61   : 		return Py_BuildException();

  00078	6a 00		 push	 0
  0007a	e8 00 00 00 00	 call	 ?Py_BuildException@@YAPAU_object@@PBDZZ ; Py_BuildException
  0007f	59		 pop	 ecx
  00080	eb 3e		 jmp	 SHORT $LN1@grpThingSe
$LN4@grpThingSe:

; 62   : 
; 63   : 	pThingInstance->Clear();

  00082	8b 4d fc	 mov	 ecx, DWORD PTR _pThingInstance$[ebp]
  00085	e8 00 00 00 00	 call	 ?Clear@CGraphicObjectInstance@@QAEXXZ ; CGraphicObjectInstance::Clear

; 64   : 	pThingInstance->ReserveModelThing(1);

  0008a	6a 01		 push	 1
  0008c	8b 4d fc	 mov	 ecx, DWORD PTR _pThingInstance$[ebp]
  0008f	e8 00 00 00 00	 call	 ?ReserveModelThing@CGraphicThingInstance@@QAEXH@Z ; CGraphicThingInstance::ReserveModelThing

; 65   : 	pThingInstance->ReserveModelInstance(1);

  00094	6a 01		 push	 1
  00096	8b 4d fc	 mov	 ecx, DWORD PTR _pThingInstance$[ebp]
  00099	e8 00 00 00 00	 call	 ?ReserveModelInstance@CGraphicThingInstance@@QAEXH@Z ; CGraphicThingInstance::ReserveModelInstance

; 66   : 	pThingInstance->RegisterModelThing(0, static_cast<CGraphicThing*>(pResource));

  0009e	ff 75 f8	 push	 DWORD PTR _pResource$[ebp]
  000a1	6a 00		 push	 0
  000a3	8b 4d fc	 mov	 ecx, DWORD PTR _pThingInstance$[ebp]
  000a6	e8 00 00 00 00	 call	 ?RegisterModelThing@CGraphicThingInstance@@QAEXHPAVCGraphicThing@@@Z ; CGraphicThingInstance::RegisterModelThing

; 67   : 	pThingInstance->SetModelInstance(0, 0, 0);

  000ab	6a ff		 push	 -1
  000ad	6a 00		 push	 0
  000af	6a 00		 push	 0
  000b1	6a 00		 push	 0
  000b3	8b 4d fc	 mov	 ecx, DWORD PTR _pThingInstance$[ebp]
  000b6	e8 00 00 00 00	 call	 ?SetModelInstance@CGraphicThingInstance@@QAE_NHHHH@Z ; CGraphicThingInstance::SetModelInstance

; 68   : 	return Py_BuildNone();

  000bb	e8 00 00 00 00	 call	 ?Py_BuildNone@@YAPAU_object@@XZ ; Py_BuildNone
$LN1@grpThingSe:

; 69   : }

  000c0	c9		 leave
  000c1	c3		 ret	 0
?grpThingSetFileName@@YAPAU_object@@PAU1@0@Z ENDP	; grpThingSetFileName
_TEXT	ENDS
; Function compile flags: /Odspy
; File D:\Metin2 Server Files\mainline\SRC_2014\Metin2Client\eterPythonLib\PythonGraphicThingModule.cpp
;	COMDAT ?grpThingDelete@@YAPAU_object@@PAU1@0@Z
_TEXT	SEGMENT
_pThingInstance$ = -4					; size = 4
_poSelf$ = 8						; size = 4
_poArgs$ = 12						; size = 4
?grpThingDelete@@YAPAU_object@@PAU1@0@Z PROC		; grpThingDelete, COMDAT

; 39   : {

  00000	55		 push	 ebp
  00001	8b ec		 mov	 ebp, esp
  00003	51		 push	 ecx

; 40   : 	CGraphicThingInstance * pThingInstance;
; 41   : 	if (!PyTuple_GetThingInstance(poArgs, 0, &pThingInstance))

  00004	8d 45 fc	 lea	 eax, DWORD PTR _pThingInstance$[ebp]
  00007	50		 push	 eax
  00008	6a 00		 push	 0
  0000a	ff 75 0c	 push	 DWORD PTR _poArgs$[ebp]
  0000d	e8 00 00 00 00	 call	 ?PyTuple_GetThingInstance@@YA_NPAU_object@@HPAPAVCGraphicThingInstance@@@Z ; PyTuple_GetThingInstance
  00012	83 c4 0c	 add	 esp, 12			; 0000000cH
  00015	0f b6 c0	 movzx	 eax, al
  00018	85 c0		 test	 eax, eax
  0001a	75 0a		 jne	 SHORT $LN2@grpThingDe

; 42   : 		return Py_BuildException();

  0001c	6a 00		 push	 0
  0001e	e8 00 00 00 00	 call	 ?Py_BuildException@@YAPAU_object@@PBDZZ ; Py_BuildException
  00023	59		 pop	 ecx
  00024	eb 0e		 jmp	 SHORT $LN1@grpThingDe
$LN2@grpThingDe:

; 43   : 
; 44   : 	CGraphicThingInstance::Delete(pThingInstance);

  00026	ff 75 fc	 push	 DWORD PTR _pThingInstance$[ebp]
  00029	e8 00 00 00 00	 call	 ?Delete@CGraphicThingInstance@@SAXPAV1@@Z ; CGraphicThingInstance::Delete
  0002e	59		 pop	 ecx

; 45   : 	return Py_BuildNone();

  0002f	e8 00 00 00 00	 call	 ?Py_BuildNone@@YAPAU_object@@XZ ; Py_BuildNone
$LN1@grpThingDe:

; 46   : }

  00034	c9		 leave
  00035	c3		 ret	 0
?grpThingDelete@@YAPAU_object@@PAU1@0@Z ENDP		; grpThingDelete
_TEXT	ENDS
; Function compile flags: /Odspy
; File D:\Metin2 Server Files\mainline\SRC_2014\Metin2Client\eterPythonLib\PythonGraphicThingModule.cpp
; File D:\Metin2 Server Files\mainline\SRC_2014\Metin2Client\eterBase\Singleton.h
; File D:\Metin2 Server Files\mainline\SRC_2014\Metin2Client\eterPythonLib\PythonGraphicThingModule.cpp
;	COMDAT ?grpThingGenerate@@YAPAU_object@@PAU1@0@Z
_TEXT	SEGMENT
$T1 = -16						; size = 4
_pResource$ = -12					; size = 4
_szFileName$ = -8					; size = 4
_pThingInstance$ = -4					; size = 4
_poSelf$ = 8						; size = 4
_poArgs$ = 12						; size = 4
?grpThingGenerate@@YAPAU_object@@PAU1@0@Z PROC		; grpThingGenerate, COMDAT

; 17   : {										  

  00000	55		 push	 ebp
  00001	8b ec		 mov	 ebp, esp
  00003	83 ec 10	 sub	 esp, 16			; 00000010H

; 18   : 	char * szFileName;
; 19   : 	if (!PyTuple_GetString(poArgs, 0, &szFileName))

  00006	8d 45 f8	 lea	 eax, DWORD PTR _szFileName$[ebp]
  00009	50		 push	 eax
  0000a	6a 00		 push	 0
  0000c	ff 75 0c	 push	 DWORD PTR _poArgs$[ebp]
  0000f	e8 00 00 00 00	 call	 ?PyTuple_GetString@@YA_NPAU_object@@HPAPAD@Z ; PyTuple_GetString
  00014	83 c4 0c	 add	 esp, 12			; 0000000cH
  00017	0f b6 c0	 movzx	 eax, al
  0001a	85 c0		 test	 eax, eax
  0001c	75 0d		 jne	 SHORT $LN2@grpThingGe

; 20   : 		return Py_BuildException();

  0001e	6a 00		 push	 0
  00020	e8 00 00 00 00	 call	 ?Py_BuildException@@YAPAU_object@@PBDZZ ; Py_BuildException
  00025	59		 pop	 ecx
  00026	e9 9c 00 00 00	 jmp	 $LN1@grpThingGe
$LN2@grpThingGe:

; 21   : 
; 22   : 	if (strlen(szFileName) <= 0)

  0002b	ff 75 f8	 push	 DWORD PTR _szFileName$[ebp]
  0002e	e8 00 00 00 00	 call	 _strlen
  00033	59		 pop	 ecx
  00034	85 c0		 test	 eax, eax
  00036	77 11		 ja	 SHORT $LN3@grpThingGe

; 23   : 		return Py_BuildValue("i", 0);

  00038	6a 00		 push	 0
  0003a	68 00 00 00 00	 push	 OFFSET ??_C@_01KBJDNOO@i@
  0003f	ff 15 00 00 00
	00		 call	 DWORD PTR __imp__Py_BuildValue
  00045	59		 pop	 ecx
  00046	59		 pop	 ecx
  00047	eb 7e		 jmp	 SHORT $LN1@grpThingGe
$LN3@grpThingGe:
; File D:\Metin2 Server Files\mainline\SRC_2014\Metin2Client\eterBase\Singleton.h

; 27   : 		return (*ms_singleton);

  00049	a1 00 00 00 00	 mov	 eax, DWORD PTR ?ms_singleton@?$CSingleton@VCResourceManager@@@@0PAVCResourceManager@@A ; CSingleton<CResourceManager>::ms_singleton
  0004e	89 45 f0	 mov	 DWORD PTR $T1[ebp], eax
; File D:\Metin2 Server Files\mainline\SRC_2014\Metin2Client\eterPythonLib\PythonGraphicThingModule.cpp

; 25   : 	CResource* pResource = CResourceManager::Instance().GetResourcePointer(szFileName);

  00051	ff 75 f8	 push	 DWORD PTR _szFileName$[ebp]
  00054	8b 4d f0	 mov	 ecx, DWORD PTR $T1[ebp]
  00057	e8 00 00 00 00	 call	 ?GetResourcePointer@CResourceManager@@QAEPAVCResource@@PBD@Z ; CResourceManager::GetResourcePointer
  0005c	89 45 f4	 mov	 DWORD PTR _pResource$[ebp], eax

; 26   : 
; 27   : 	if (!pResource->IsType(CGraphicThing::Type()))

  0005f	e8 00 00 00 00	 call	 ?Type@CGraphicThing@@SAKXZ ; CGraphicThing::Type
  00064	50		 push	 eax
  00065	8b 4d f4	 mov	 ecx, DWORD PTR _pResource$[ebp]
  00068	e8 00 00 00 00	 call	 ?IsType@CResource@@QAE_NK@Z ; CResource::IsType
  0006d	0f b6 c0	 movzx	 eax, al
  00070	85 c0		 test	 eax, eax
  00072	75 0a		 jne	 SHORT $LN4@grpThingGe

; 28   : 		return Py_BuildException();

  00074	6a 00		 push	 0
  00076	e8 00 00 00 00	 call	 ?Py_BuildException@@YAPAU_object@@PBDZZ ; Py_BuildException
  0007b	59		 pop	 ecx
  0007c	eb 49		 jmp	 SHORT $LN1@grpThingGe
$LN4@grpThingGe:

; 29   : 
; 30   : 	CGraphicThingInstance * pThingInstance = CGraphicThingInstance::New();

  0007e	e8 00 00 00 00	 call	 ?New@CGraphicThingInstance@@SAPAV1@XZ ; CGraphicThingInstance::New
  00083	89 45 fc	 mov	 DWORD PTR _pThingInstance$[ebp], eax

; 31   : 	pThingInstance->ReserveModelThing(1);

  00086	6a 01		 push	 1
  00088	8b 4d fc	 mov	 ecx, DWORD PTR _pThingInstance$[ebp]
  0008b	e8 00 00 00 00	 call	 ?ReserveModelThing@CGraphicThingInstance@@QAEXH@Z ; CGraphicThingInstance::ReserveModelThing

; 32   : 	pThingInstance->ReserveModelInstance(1);

  00090	6a 01		 push	 1
  00092	8b 4d fc	 mov	 ecx, DWORD PTR _pThingInstance$[ebp]
  00095	e8 00 00 00 00	 call	 ?ReserveModelInstance@CGraphicThingInstance@@QAEXH@Z ; CGraphicThingInstance::ReserveModelInstance

; 33   : 	pThingInstance->RegisterModelThing(0, static_cast<CGraphicThing*>(pResource));

  0009a	ff 75 f4	 push	 DWORD PTR _pResource$[ebp]
  0009d	6a 00		 push	 0
  0009f	8b 4d fc	 mov	 ecx, DWORD PTR _pThingInstance$[ebp]
  000a2	e8 00 00 00 00	 call	 ?RegisterModelThing@CGraphicThingInstance@@QAEXHPAVCGraphicThing@@@Z ; CGraphicThingInstance::RegisterModelThing

; 34   : 	pThingInstance->SetModelInstance(0, 0, 0);

  000a7	6a ff		 push	 -1
  000a9	6a 00		 push	 0
  000ab	6a 00		 push	 0
  000ad	6a 00		 push	 0
  000af	8b 4d fc	 mov	 ecx, DWORD PTR _pThingInstance$[ebp]
  000b2	e8 00 00 00 00	 call	 ?SetModelInstance@CGraphicThingInstance@@QAE_NHHHH@Z ; CGraphicThingInstance::SetModelInstance

; 35   : 	return Py_BuildValue("i", pThingInstance);

  000b7	ff 75 fc	 push	 DWORD PTR _pThingInstance$[ebp]
  000ba	68 00 00 00 00	 push	 OFFSET ??_C@_01KBJDNOO@i@
  000bf	ff 15 00 00 00
	00		 call	 DWORD PTR __imp__Py_BuildValue
  000c5	59		 pop	 ecx
  000c6	59		 pop	 ecx
$LN1@grpThingGe:

; 36   : }

  000c7	c9		 leave
  000c8	c3		 ret	 0
?grpThingGenerate@@YAPAU_object@@PAU1@0@Z ENDP		; grpThingGenerate
_TEXT	ENDS
; Function compile flags: /Odspy
; File D:\Metin2 Server Files\mainline\SRC_2014\Metin2Client\eterPythonLib\PythonGraphicThingModule.cpp
;	COMDAT ?PyTuple_GetThingInstance@@YA_NPAU_object@@HPAPAVCGraphicThingInstance@@@Z
_TEXT	SEGMENT
_handle$ = -4						; size = 4
_poArgs$ = 8						; size = 4
_pos$ = 12						; size = 4
_ppRetThingInstance$ = 16				; size = 4
?PyTuple_GetThingInstance@@YA_NPAU_object@@HPAPAVCGraphicThingInstance@@@Z PROC ; PyTuple_GetThingInstance, COMDAT

; 4    : {

  00000	55		 push	 ebp
  00001	8b ec		 mov	 ebp, esp
  00003	51		 push	 ecx

; 5    : 	int handle;
; 6    : 	if (!PyTuple_GetInteger(poArgs, pos, &handle))

  00004	8d 45 fc	 lea	 eax, DWORD PTR _handle$[ebp]
  00007	50		 push	 eax
  00008	ff 75 0c	 push	 DWORD PTR _pos$[ebp]
  0000b	ff 75 08	 push	 DWORD PTR _poArgs$[ebp]
  0000e	e8 00 00 00 00	 call	 ?PyTuple_GetInteger@@YA_NPAU_object@@HPAH@Z ; PyTuple_GetInteger
  00013	83 c4 0c	 add	 esp, 12			; 0000000cH
  00016	0f b6 c0	 movzx	 eax, al
  00019	85 c0		 test	 eax, eax
  0001b	75 04		 jne	 SHORT $LN2@PyTuple_Ge

; 7    : 		return false;

  0001d	32 c0		 xor	 al, al
  0001f	eb 14		 jmp	 SHORT $LN1@PyTuple_Ge
$LN2@PyTuple_Ge:

; 8    : 
; 9    : 	if (!handle)

  00021	83 7d fc 00	 cmp	 DWORD PTR _handle$[ebp], 0
  00025	75 04		 jne	 SHORT $LN3@PyTuple_Ge

; 10   : 		return false;

  00027	32 c0		 xor	 al, al
  00029	eb 0a		 jmp	 SHORT $LN1@PyTuple_Ge
$LN3@PyTuple_Ge:

; 11   : 
; 12   : 	*ppRetThingInstance = (CGraphicThingInstance*)handle;	

  0002b	8b 45 10	 mov	 eax, DWORD PTR _ppRetThingInstance$[ebp]
  0002e	8b 4d fc	 mov	 ecx, DWORD PTR _handle$[ebp]
  00031	89 08		 mov	 DWORD PTR [eax], ecx

; 13   : 	return true;

  00033	b0 01		 mov	 al, 1
$LN1@PyTuple_Ge:

; 14   : }

  00035	c9		 leave
  00036	c3		 ret	 0
?PyTuple_GetThingInstance@@YA_NPAU_object@@HPAPAVCGraphicThingInstance@@@Z ENDP ; PyTuple_GetThingInstance
_TEXT	ENDS
; Function compile flags: /Odspy
; File D:\Metin2 Server Files\mainline\SRC_2014\Metin2Client\eterPythonLib\PythonGraphicThingModule.cpp
;	COMDAT ?initgrpThing@@YAXXZ
_TEXT	SEGMENT
?initgrpThing@@YAXXZ PROC				; initgrpThing, COMDAT

; 149  : {

  00000	55		 push	 ebp
  00001	8b ec		 mov	 ebp, esp

; 150  : 	static PyMethodDef s_methods[] =
; 151  : 	{
; 152  : 		{ "Update",					grpThingUpdate,					METH_VARARGS },
; 153  : 		{ "Render",					grpThingRender,					METH_VARARGS },
; 154  : 		{ "SetPosition",			grpSetThingPosition,			METH_VARARGS },
; 155  : 		{ "Generate",				grpThingGenerate,				METH_VARARGS },
; 156  : 		{ "Delete",					grpThingDelete,					METH_VARARGS },
; 157  : 		{ "SetFileName",			grpThingSetFileName,			METH_VARARGS },		
; 158  : 		{ "SetRotation",			grpSetThingRotation,			METH_VARARGS },
; 159  : 		{ "SetScale",				grpSetThingScale,				METH_VARARGS },
; 160  : 		{ NULL,						NULL,							NULL		 },
; 161  : 	};	
; 162  : 
; 163  : 	Py_InitModule("grpThing", s_methods);

  00003	68 f5 03 00 00	 push	 1013			; 000003f5H
  00008	6a 00		 push	 0
  0000a	6a 00		 push	 0
  0000c	68 00 00 00 00	 push	 OFFSET ?s_methods@?1??initgrpThing@@YAXXZ@4PAUPyMethodDef@@A
  00011	68 00 00 00 00	 push	 OFFSET ??_C@_08DDGPJEFE@grpThing@
  00016	ff 15 00 00 00
	00		 call	 DWORD PTR __imp__Py_InitModule4
  0001c	83 c4 14	 add	 esp, 20			; 00000014H

; 164  : }

  0001f	5d		 pop	 ebp
  00020	c3		 ret	 0
?initgrpThing@@YAXXZ ENDP				; initgrpThing
_TEXT	ENDS
END
