; Listing generated by Microsoft (R) Optimizing Compiler Version 19.28.29335.0 

	TITLE	D:\Metin2 Server Files\mainline\SRC_2014\Metin2Client\SpeedTreeLib\SpeedTreeForest.cpp
	.686P
	.XMM
	include listing.inc
	.model	flat

INCLUDELIB LIBCMT
INCLUDELIB OLDNAMES

PUBLIC	??0exception@std@@QAE@ABV01@@Z			; std::exception::exception
PUBLIC	?what@exception@std@@UBEPBDXZ			; std::exception::what
PUBLIC	??_Gexception@std@@UAEPAXI@Z			; std::exception::`scalar deleting destructor'
PUBLIC	??0bad_alloc@std@@QAE@ABV01@@Z			; std::bad_alloc::bad_alloc
PUBLIC	??_Gbad_alloc@std@@UAEPAXI@Z			; std::bad_alloc::`scalar deleting destructor'
PUBLIC	??0bad_array_new_length@std@@QAE@XZ		; std::bad_array_new_length::bad_array_new_length
PUBLIC	??1bad_array_new_length@std@@UAE@XZ		; std::bad_array_new_length::~bad_array_new_length
PUBLIC	??0bad_array_new_length@std@@QAE@ABV01@@Z	; std::bad_array_new_length::bad_array_new_length
PUBLIC	??_Gbad_array_new_length@std@@UAEPAXI@Z		; std::bad_array_new_length::`scalar deleting destructor'
PUBLIC	?_Throw_bad_array_new_length@std@@YAXXZ		; std::_Throw_bad_array_new_length
PUBLIC	?_Adjust_manually_vector_aligned@std@@YAXAAPAXAAI@Z ; std::_Adjust_manually_vector_aligned
PUBLIC	?_Throw_tree_length_error@std@@YAXXZ		; std::_Throw_tree_length_error
PUBLIC	??0CSpeedTreeForest@@QAE@XZ			; CSpeedTreeForest::CSpeedTreeForest
PUBLIC	??1CSpeedTreeForest@@UAE@XZ			; CSpeedTreeForest::~CSpeedTreeForest
PUBLIC	?GetMainTree@CSpeedTreeForest@@QAEHKPAPAVCSpeedTreeWrapper@@PBD@Z ; CSpeedTreeForest::GetMainTree
PUBLIC	?GetMainTree@CSpeedTreeForest@@QAEPAVCSpeedTreeWrapper@@K@Z ; CSpeedTreeForest::GetMainTree
PUBLIC	?CreateInstance@CSpeedTreeForest@@QAEPAVCSpeedTreeWrapper@@MMMKPBD@Z ; CSpeedTreeForest::CreateInstance
PUBLIC	?DeleteInstance@CSpeedTreeForest@@QAEXPAVCSpeedTreeWrapper@@@Z ; CSpeedTreeForest::DeleteInstance
PUBLIC	?UpdateSystem@CSpeedTreeForest@@QAEXM@Z		; CSpeedTreeForest::UpdateSystem
PUBLIC	?Clear@CSpeedTreeForest@@QAEXXZ			; CSpeedTreeForest::Clear
PUBLIC	?SetLight@CSpeedTreeForest@@QAEXPBM00@Z		; CSpeedTreeForest::SetLight
PUBLIC	?SetFog@CSpeedTreeForest@@QAEXMM@Z		; CSpeedTreeForest::SetFog
PUBLIC	?SetWindStrength@CSpeedTreeForest@@QAEXM@Z	; CSpeedTreeForest::SetWindStrength
PUBLIC	?SetupWindMatrices@CSpeedTreeForest@@QAEXM@Z	; CSpeedTreeForest::SetupWindMatrices
PUBLIC	??0?$_Tree@V?$_Tmap_traits@KPAVCSpeedTreeWrapper@@U?$less@K@std@@V?$allocator@U?$pair@$$CBKPAVCSpeedTreeWrapper@@@std@@@3@$0A@@std@@@std@@QAE@ABU?$less@K@1@@Z ; std::_Tree<std::_Tmap_traits<unsigned long,CSpeedTreeWrapper *,std::less<unsigned long>,std::allocator<std::pair<unsigned long const ,CSpeedTreeWrapper *> >,0> >::_Tree<std::_Tmap_traits<unsigned long,CSpeedTreeWrapper *,std::less<unsigned long>,std::allocator<std::pair<unsigned long const ,CSpeedTreeWrapper *> >,0> >
PUBLIC	??1?$_Tree@V?$_Tmap_traits@KPAVCSpeedTreeWrapper@@U?$less@K@std@@V?$allocator@U?$pair@$$CBKPAVCSpeedTreeWrapper@@@std@@@3@$0A@@std@@@std@@QAE@XZ ; std::_Tree<std::_Tmap_traits<unsigned long,CSpeedTreeWrapper *,std::less<unsigned long>,std::allocator<std::pair<unsigned long const ,CSpeedTreeWrapper *> >,0> >::~_Tree<std::_Tmap_traits<unsigned long,CSpeedTreeWrapper *,std::less<unsigned long>,std::allocator<std::pair<unsigned long const ,CSpeedTreeWrapper *> >,0> >
PUBLIC	?begin@?$_Tree@V?$_Tmap_traits@KPAVCSpeedTreeWrapper@@U?$less@K@std@@V?$allocator@U?$pair@$$CBKPAVCSpeedTreeWrapper@@@std@@@3@$0A@@std@@@std@@QAE?AV?$_Tree_iterator@V?$_Tree_val@U?$_Tree_simple_types@U?$pair@$$CBKPAVCSpeedTreeWrapper@@@std@@@std@@@std@@@2@XZ ; std::_Tree<std::_Tmap_traits<unsigned long,CSpeedTreeWrapper *,std::less<unsigned long>,std::allocator<std::pair<unsigned long const ,CSpeedTreeWrapper *> >,0> >::begin
PUBLIC	?max_size@?$_Tree@V?$_Tmap_traits@KPAVCSpeedTreeWrapper@@U?$less@K@std@@V?$allocator@U?$pair@$$CBKPAVCSpeedTreeWrapper@@@std@@@3@$0A@@std@@@std@@QBEIXZ ; std::_Tree<std::_Tmap_traits<unsigned long,CSpeedTreeWrapper *,std::less<unsigned long>,std::allocator<std::pair<unsigned long const ,CSpeedTreeWrapper *> >,0> >::max_size
PUBLIC	?clear@?$_Tree@V?$_Tmap_traits@KPAVCSpeedTreeWrapper@@U?$less@K@std@@V?$allocator@U?$pair@$$CBKPAVCSpeedTreeWrapper@@@std@@@3@$0A@@std@@@std@@QAEXXZ ; std::_Tree<std::_Tmap_traits<unsigned long,CSpeedTreeWrapper *,std::less<unsigned long>,std::allocator<std::pair<unsigned long const ,CSpeedTreeWrapper *> >,0> >::clear
PUBLIC	?find@?$_Tree@V?$_Tmap_traits@KPAVCSpeedTreeWrapper@@U?$less@K@std@@V?$allocator@U?$pair@$$CBKPAVCSpeedTreeWrapper@@@std@@@3@$0A@@std@@@std@@QAE?AV?$_Tree_iterator@V?$_Tree_val@U?$_Tree_simple_types@U?$pair@$$CBKPAVCSpeedTreeWrapper@@@std@@@std@@@std@@@2@ABK@Z ; std::_Tree<std::_Tmap_traits<unsigned long,CSpeedTreeWrapper *,std::less<unsigned long>,std::allocator<std::pair<unsigned long const ,CSpeedTreeWrapper *> >,0> >::find
PUBLIC	?_Check_grow_by_1@?$_Tree@V?$_Tmap_traits@KPAVCSpeedTreeWrapper@@U?$less@K@std@@V?$allocator@U?$pair@$$CBKPAVCSpeedTreeWrapper@@@std@@@3@$0A@@std@@@std@@IAEXXZ ; std::_Tree<std::_Tmap_traits<unsigned long,CSpeedTreeWrapper *,std::less<unsigned long>,std::allocator<std::pair<unsigned long const ,CSpeedTreeWrapper *> >,0> >::_Check_grow_by_1
PUBLIC	?_Alloc_sentinel_and_proxy@?$_Tree@V?$_Tmap_traits@KPAVCSpeedTreeWrapper@@U?$less@K@std@@V?$allocator@U?$pair@$$CBKPAVCSpeedTreeWrapper@@@std@@@3@$0A@@std@@@std@@IAEXXZ ; std::_Tree<std::_Tmap_traits<unsigned long,CSpeedTreeWrapper *,std::less<unsigned long>,std::allocator<std::pair<unsigned long const ,CSpeedTreeWrapper *> >,0> >::_Alloc_sentinel_and_proxy
PUBLIC	?_Lrotate@?$_Tree_val@U?$_Tree_simple_types@U?$pair@$$CBKPAVCSpeedTreeWrapper@@@std@@@std@@@std@@QAEXPAU?$_Tree_node@U?$pair@$$CBKPAVCSpeedTreeWrapper@@@std@@PAX@2@@Z ; std::_Tree_val<std::_Tree_simple_types<std::pair<unsigned long const ,CSpeedTreeWrapper *> > >::_Lrotate
PUBLIC	?_Rrotate@?$_Tree_val@U?$_Tree_simple_types@U?$pair@$$CBKPAVCSpeedTreeWrapper@@@std@@@std@@@std@@QAEXPAU?$_Tree_node@U?$pair@$$CBKPAVCSpeedTreeWrapper@@@std@@PAX@2@@Z ; std::_Tree_val<std::_Tree_simple_types<std::pair<unsigned long const ,CSpeedTreeWrapper *> > >::_Rrotate
PUBLIC	?_Insert_node@?$_Tree_val@U?$_Tree_simple_types@U?$pair@$$CBKPAVCSpeedTreeWrapper@@@std@@@std@@@std@@QAEPAU?$_Tree_node@U?$pair@$$CBKPAVCSpeedTreeWrapper@@@std@@PAX@2@U?$_Tree_id@PAU?$_Tree_node@U?$pair@$$CBKPAVCSpeedTreeWrapper@@@std@@PAX@std@@@2@QAU32@@Z ; std::_Tree_val<std::_Tree_simple_types<std::pair<unsigned long const ,CSpeedTreeWrapper *> > >::_Insert_node
PUBLIC	??1?$map@KPAVCSpeedTreeWrapper@@U?$less@K@std@@V?$allocator@U?$pair@$$CBKPAVCSpeedTreeWrapper@@@std@@@3@@std@@QAE@XZ ; std::map<unsigned long,CSpeedTreeWrapper *,std::less<unsigned long>,std::allocator<std::pair<unsigned long const ,CSpeedTreeWrapper *> > >::~map<unsigned long,CSpeedTreeWrapper *,std::less<unsigned long>,std::allocator<std::pair<unsigned long const ,CSpeedTreeWrapper *> > >
PUBLIC	?AdjustExtents@CSpeedTreeForest@@AAEXMMM@Z	; CSpeedTreeForest::AdjustExtents
PUBLIC	??_GCSpeedTreeForest@@UAEPAXI@Z			; CSpeedTreeForest::`scalar deleting destructor'
PUBLIC	??E?$_Tree_unchecked_const_iterator@V?$_Tree_val@U?$_Tree_simple_types@U?$pair@$$CBKPAVCSpeedTreeWrapper@@@std@@@std@@@std@@U_Iterator_base0@2@@std@@QAEAAV01@XZ ; std::_Tree_unchecked_const_iterator<std::_Tree_val<std::_Tree_simple_types<std::pair<unsigned long const ,CSpeedTreeWrapper *> > >,std::_Iterator_base0>::operator++
PUBLIC	??$insert@$0A@$0A@@?$_Tree@V?$_Tmap_traits@KPAVCSpeedTreeWrapper@@U?$less@K@std@@V?$allocator@U?$pair@$$CBKPAVCSpeedTreeWrapper@@@std@@@3@$0A@@std@@@std@@QAE?AU?$pair@V?$_Tree_iterator@V?$_Tree_val@U?$_Tree_simple_types@U?$pair@$$CBKPAVCSpeedTreeWrapper@@@std@@@std@@@std@@@std@@_N@1@$$QAU?$pair@$$CBKPAVCSpeedTreeWrapper@@@1@@Z ; std::_Tree<std::_Tmap_traits<unsigned long,CSpeedTreeWrapper *,std::less<unsigned long>,std::allocator<std::pair<unsigned long const ,CSpeedTreeWrapper *> >,0> >::insert<0,0>
PUBLIC	??$_Find@K@?$_Tree@V?$_Tmap_traits@KPAVCSpeedTreeWrapper@@U?$less@K@std@@V?$allocator@U?$pair@$$CBKPAVCSpeedTreeWrapper@@@std@@@3@$0A@@std@@@std@@ABEPAU?$_Tree_node@U?$pair@$$CBKPAVCSpeedTreeWrapper@@@std@@PAX@1@ABK@Z ; std::_Tree<std::_Tmap_traits<unsigned long,CSpeedTreeWrapper *,std::less<unsigned long>,std::allocator<std::pair<unsigned long const ,CSpeedTreeWrapper *> >,0> >::_Find<unsigned long>
PUBLIC	??$_Erase_tree@V?$allocator@U?$_Tree_node@U?$pair@$$CBKPAVCSpeedTreeWrapper@@@std@@PAX@std@@@std@@@?$_Tree_val@U?$_Tree_simple_types@U?$pair@$$CBKPAVCSpeedTreeWrapper@@@std@@@std@@@std@@QAEXAAV?$allocator@U?$_Tree_node@U?$pair@$$CBKPAVCSpeedTreeWrapper@@@std@@PAX@std@@@1@PAU?$_Tree_node@U?$pair@$$CBKPAVCSpeedTreeWrapper@@@std@@PAX@1@@Z ; std::_Tree_val<std::_Tree_simple_types<std::pair<unsigned long const ,CSpeedTreeWrapper *> > >::_Erase_tree<std::allocator<std::_Tree_node<std::pair<unsigned long const ,CSpeedTreeWrapper *>,void *> > >
PUBLIC	??$_Buyheadnode@V?$allocator@U?$_Tree_node@U?$pair@$$CBKPAVCSpeedTreeWrapper@@@std@@PAX@std@@@std@@@?$_Tree_node@U?$pair@$$CBKPAVCSpeedTreeWrapper@@@std@@PAX@std@@SAPAU01@AAV?$allocator@U?$_Tree_node@U?$pair@$$CBKPAVCSpeedTreeWrapper@@@std@@PAX@std@@@1@@Z ; std::_Tree_node<std::pair<unsigned long const ,CSpeedTreeWrapper *>,void *>::_Buyheadnode<std::allocator<std::_Tree_node<std::pair<unsigned long const ,CSpeedTreeWrapper *>,void *> > >
PUBLIC	??$_Deallocate@$07$0A@@std@@YAXPAXI@Z		; std::_Deallocate<8,0>
PUBLIC	??$_Allocate@$07U_Default_allocate_traits@std@@$0A@@std@@YAPAXI@Z ; std::_Allocate<8,std::_Default_allocate_traits,0>
PUBLIC	??$_Emplace@U?$pair@$$CBKPAVCSpeedTreeWrapper@@@std@@@?$_Tree@V?$_Tmap_traits@KPAVCSpeedTreeWrapper@@U?$less@K@std@@V?$allocator@U?$pair@$$CBKPAVCSpeedTreeWrapper@@@std@@@3@$0A@@std@@@std@@IAE?AU?$pair@PAU?$_Tree_node@U?$pair@$$CBKPAVCSpeedTreeWrapper@@@std@@PAX@std@@_N@1@$$QAU?$pair@$$CBKPAVCSpeedTreeWrapper@@@1@@Z ; std::_Tree<std::_Tmap_traits<unsigned long,CSpeedTreeWrapper *,std::less<unsigned long>,std::allocator<std::pair<unsigned long const ,CSpeedTreeWrapper *> >,0> >::_Emplace<std::pair<unsigned long const ,CSpeedTreeWrapper *> >
PUBLIC	??$_Find_lower_bound@K@?$_Tree@V?$_Tmap_traits@KPAVCSpeedTreeWrapper@@U?$less@K@std@@V?$allocator@U?$pair@$$CBKPAVCSpeedTreeWrapper@@@std@@@3@$0A@@std@@@std@@IBE?AU?$_Tree_find_result@PAU?$_Tree_node@U?$pair@$$CBKPAVCSpeedTreeWrapper@@@std@@PAX@std@@@1@ABK@Z ; std::_Tree<std::_Tmap_traits<unsigned long,CSpeedTreeWrapper *,std::less<unsigned long>,std::allocator<std::pair<unsigned long const ,CSpeedTreeWrapper *> >,0> >::_Find_lower_bound<unsigned long>
PUBLIC	??$_Freenode0@V?$allocator@U?$_Tree_node@U?$pair@$$CBKPAVCSpeedTreeWrapper@@@std@@PAX@std@@@std@@@?$_Tree_node@U?$pair@$$CBKPAVCSpeedTreeWrapper@@@std@@PAX@std@@SAXAAV?$allocator@U?$_Tree_node@U?$pair@$$CBKPAVCSpeedTreeWrapper@@@std@@PAX@std@@@1@PAU01@@Z ; std::_Tree_node<std::pair<unsigned long const ,CSpeedTreeWrapper *>,void *>::_Freenode0<std::allocator<std::_Tree_node<std::pair<unsigned long const ,CSpeedTreeWrapper *>,void *> > >
PUBLIC	??$_Construct_in_place@PAU?$_Tree_node@U?$pair@$$CBKPAVCSpeedTreeWrapper@@@std@@PAX@std@@ABQAU12@@std@@YAXAAPAU?$_Tree_node@U?$pair@$$CBKPAVCSpeedTreeWrapper@@@std@@PAX@0@ABQAU10@@Z ; std::_Construct_in_place<std::_Tree_node<std::pair<unsigned long const ,CSpeedTreeWrapper *>,void *> *,std::_Tree_node<std::pair<unsigned long const ,CSpeedTreeWrapper *>,void *> * const &>
PUBLIC	??$_Allocate_manually_vector_aligned@U_Default_allocate_traits@std@@@std@@YAPAXI@Z ; std::_Allocate_manually_vector_aligned<std::_Default_allocate_traits>
PUBLIC	?_Allocate@?$_Alloc_construct_ptr@V?$allocator@U?$_Tree_node@U?$pair@$$CBKPAVCSpeedTreeWrapper@@@std@@PAX@std@@@std@@@std@@QAEXXZ ; std::_Alloc_construct_ptr<std::allocator<std::_Tree_node<std::pair<unsigned long const ,CSpeedTreeWrapper *>,void *> > >::_Allocate
PUBLIC	??1?$_Alloc_construct_ptr@V?$allocator@U?$_Tree_node@U?$pair@$$CBKPAVCSpeedTreeWrapper@@@std@@PAX@std@@@std@@@std@@QAE@XZ ; std::_Alloc_construct_ptr<std::allocator<std::_Tree_node<std::pair<unsigned long const ,CSpeedTreeWrapper *>,void *> > >::~_Alloc_construct_ptr<std::allocator<std::_Tree_node<std::pair<unsigned long const ,CSpeedTreeWrapper *>,void *> > >
PUBLIC	??1?$_Tree_temp_node@V?$allocator@U?$_Tree_node@U?$pair@$$CBKPAVCSpeedTreeWrapper@@@std@@PAX@std@@@std@@@std@@QAE@XZ ; std::_Tree_temp_node<std::allocator<std::_Tree_node<std::pair<unsigned long const ,CSpeedTreeWrapper *>,void *> > >::~_Tree_temp_node<std::allocator<std::_Tree_node<std::pair<unsigned long const ,CSpeedTreeWrapper *>,void *> > >
PUBLIC	??$?0U?$pair@$$CBKPAVCSpeedTreeWrapper@@@std@@@?$_Tree_temp_node@V?$allocator@U?$_Tree_node@U?$pair@$$CBKPAVCSpeedTreeWrapper@@@std@@PAX@std@@@std@@@std@@QAE@AAV?$allocator@U?$_Tree_node@U?$pair@$$CBKPAVCSpeedTreeWrapper@@@std@@PAX@std@@@1@PAU?$_Tree_node@U?$pair@$$CBKPAVCSpeedTreeWrapper@@@std@@PAX@1@$$QAU?$pair@$$CBKPAVCSpeedTreeWrapper@@@1@@Z ; std::_Tree_temp_node<std::allocator<std::_Tree_node<std::pair<unsigned long const ,CSpeedTreeWrapper *>,void *> > >::_Tree_temp_node<std::allocator<std::_Tree_node<std::pair<unsigned long const ,CSpeedTreeWrapper *>,void *> > ><std::pair<unsigned long const ,CSpeedTreeWrapper *> >
PUBLIC	??$_Destroy_in_place@PAU?$_Tree_node@U?$pair@$$CBKPAVCSpeedTreeWrapper@@@std@@PAX@std@@@std@@YAXAAPAU?$_Tree_node@U?$pair@$$CBKPAVCSpeedTreeWrapper@@@std@@PAX@0@@Z ; std::_Destroy_in_place<std::_Tree_node<std::pair<unsigned long const ,CSpeedTreeWrapper *>,void *> *>
PUBLIC	??$_Construct_in_place@PAU?$_Tree_node@U?$pair@$$CBKPAVCSpeedTreeWrapper@@@std@@PAX@std@@AAPAU12@@std@@YAXAAPAU?$_Tree_node@U?$pair@$$CBKPAVCSpeedTreeWrapper@@@std@@PAX@0@0@Z ; std::_Construct_in_place<std::_Tree_node<std::pair<unsigned long const ,CSpeedTreeWrapper *>,void *> *,std::_Tree_node<std::pair<unsigned long const ,CSpeedTreeWrapper *>,void *> * &>
PUBLIC	??_7exception@std@@6B@				; std::exception::`vftable'
PUBLIC	??_C@_0BC@EOODALEL@Unknown?5exception@		; `string'
PUBLIC	??_7bad_alloc@std@@6B@				; std::bad_alloc::`vftable'
PUBLIC	??_7bad_array_new_length@std@@6B@		; std::bad_array_new_length::`vftable'
PUBLIC	??_C@_0BF@KINCDENJ@bad?5array?5new?5length@	; `string'
PUBLIC	__TI3?AVbad_array_new_length@std@@
PUBLIC	__CTA3?AVbad_array_new_length@std@@
PUBLIC	??_R0?AVbad_array_new_length@std@@@8		; std::bad_array_new_length `RTTI Type Descriptor'
PUBLIC	__CT??_R0?AVbad_array_new_length@std@@@8??0bad_array_new_length@std@@QAE@ABV01@@Z12
PUBLIC	??_R0?AVbad_alloc@std@@@8			; std::bad_alloc `RTTI Type Descriptor'
PUBLIC	__CT??_R0?AVbad_alloc@std@@@8??0bad_alloc@std@@QAE@ABV01@@Z12
PUBLIC	??_R0?AVexception@std@@@8			; std::exception `RTTI Type Descriptor'
PUBLIC	__CT??_R0?AVexception@std@@@8??0exception@std@@QAE@ABV01@@Z12
PUBLIC	??_C@_0BB@GCADKGJO@map?1set?5too?5long@		; `string'
PUBLIC	??_7CSpeedTreeForest@@6B@			; CSpeedTreeForest::`vftable'
PUBLIC	?ms_singleton@?$CSingleton@VCEterPackManager@@@@0PAVCEterPackManager@@A ; CSingleton<CEterPackManager>::ms_singleton
PUBLIC	??_R4exception@std@@6B@				; std::exception::`RTTI Complete Object Locator'
PUBLIC	??_R3exception@std@@8				; std::exception::`RTTI Class Hierarchy Descriptor'
PUBLIC	??_R2exception@std@@8				; std::exception::`RTTI Base Class Array'
PUBLIC	??_R1A@?0A@EA@exception@std@@8			; std::exception::`RTTI Base Class Descriptor at (0,-1,0,64)'
PUBLIC	??_R4bad_alloc@std@@6B@				; std::bad_alloc::`RTTI Complete Object Locator'
PUBLIC	??_R3bad_alloc@std@@8				; std::bad_alloc::`RTTI Class Hierarchy Descriptor'
PUBLIC	??_R2bad_alloc@std@@8				; std::bad_alloc::`RTTI Base Class Array'
PUBLIC	??_R1A@?0A@EA@bad_alloc@std@@8			; std::bad_alloc::`RTTI Base Class Descriptor at (0,-1,0,64)'
PUBLIC	??_R4bad_array_new_length@std@@6B@		; std::bad_array_new_length::`RTTI Complete Object Locator'
PUBLIC	??_R3bad_array_new_length@std@@8		; std::bad_array_new_length::`RTTI Class Hierarchy Descriptor'
PUBLIC	??_R2bad_array_new_length@std@@8		; std::bad_array_new_length::`RTTI Base Class Array'
PUBLIC	??_R1A@?0A@EA@bad_array_new_length@std@@8	; std::bad_array_new_length::`RTTI Base Class Descriptor at (0,-1,0,64)'
PUBLIC	??_R4CSpeedTreeForest@@6B@			; CSpeedTreeForest::`RTTI Complete Object Locator'
PUBLIC	??_R0?AVCSpeedTreeForest@@@8			; CSpeedTreeForest `RTTI Type Descriptor'
PUBLIC	??_R3CSpeedTreeForest@@8			; CSpeedTreeForest::`RTTI Class Hierarchy Descriptor'
PUBLIC	??_R2CSpeedTreeForest@@8			; CSpeedTreeForest::`RTTI Base Class Array'
PUBLIC	??_R1A@?0A@EA@CSpeedTreeForest@@8		; CSpeedTreeForest::`RTTI Base Class Descriptor at (0,-1,0,64)'
PUBLIC	__real@00000000
PUBLIC	__real@3f800000
PUBLIC	__real@41a00000
PUBLIC	__real@420c0000
PUBLIC	__real@42652ee1
PUBLIC	__real@7f7fffff
PUBLIC	__real@bf800000
PUBLIC	__real@ff7fffff
PUBLIC	__xmm@80000000800000008000000080000000
EXTRN	__purecall:PROC
EXTRN	??2@YAPAXI@Z:PROC				; operator new
EXTRN	??3@YAXPAXI@Z:PROC				; operator delete
EXTRN	__Init_thread_header:PROC
EXTRN	__Init_thread_footer:PROC
EXTRN	__invalid_parameter_noinfo_noreturn:PROC
EXTRN	?SetTime@CSpeedTreeRT@@SAXM@Z:PROC		; CSpeedTreeRT::SetTime
EXTRN	?SetWindStrength@CSpeedTreeRT@@QAEMMMM@Z:PROC	; CSpeedTreeRT::SetWindStrength
EXTRN	?SetNumWindMatrices@CSpeedTreeRT@@SAXI@Z:PROC	; CSpeedTreeRT::SetNumWindMatrices
EXTRN	_cos:PROC
EXTRN	_sin:PROC
EXTRN	___std_exception_copy:PROC
EXTRN	___std_exception_destroy:PROC
EXTRN	??_Eexception@std@@UAEPAXI@Z:PROC		; std::exception::`vector deleting destructor'
EXTRN	??_Ebad_alloc@std@@UAEPAXI@Z:PROC		; std::bad_alloc::`vector deleting destructor'
EXTRN	??_Ebad_array_new_length@std@@UAEPAXI@Z:PROC	; std::bad_array_new_length::`vector deleting destructor'
EXTRN	?_Xlength_error@std@@YAXPBD@Z:PROC		; std::_Xlength_error
EXTRN	?RegisterBoundingSphere@CGraphicObjectInstance@@QAEXXZ:PROC ; CGraphicObjectInstance::RegisterBoundingSphere
EXTRN	??0CSpeedTreeWrapper@@QAE@XZ:PROC		; CSpeedTreeWrapper::CSpeedTreeWrapper
EXTRN	?LoadTree@CSpeedTreeWrapper@@QAE_NPBDPBEIIMM@Z:PROC ; CSpeedTreeWrapper::LoadTree
EXTRN	?GetInstances@CSpeedTreeWrapper@@QAEPAPAV1@AAI@Z:PROC ; CSpeedTreeWrapper::GetInstances
EXTRN	?MakeInstance@CSpeedTreeWrapper@@QAEPAV1@XZ:PROC ; CSpeedTreeWrapper::MakeInstance
EXTRN	?DeleteInstance@CSpeedTreeWrapper@@QAEXPAV1@@Z:PROC ; CSpeedTreeWrapper::DeleteInstance
EXTRN	??_ECSpeedTreeForest@@UAEPAXI@Z:PROC		; CSpeedTreeForest::`vector deleting destructor'
EXTRN	??0CMappedFile@@QAE@XZ:PROC			; CMappedFile::CMappedFile
EXTRN	??1CMappedFile@@UAE@XZ:PROC			; CMappedFile::~CMappedFile
EXTRN	?Destroy@CMappedFile@@QAEXXZ:PROC		; CMappedFile::Destroy
EXTRN	?Size@CMappedFile@@QAEKXZ:PROC			; CMappedFile::Size
EXTRN	?Get@CEterPackManager@@QAE_NAAVCMappedFile@@PBDPAPBX@Z:PROC ; CEterPackManager::Get
EXTRN	@__security_check_cookie@4:PROC
EXTRN	__CxxThrowException@8:PROC
EXTRN	___CxxFrameHandler3:PROC
EXTRN	_memset:PROC
EXTRN	__Init_thread_epoch:DWORD
EXTRN	??_7type_info@@6B@:QWORD			; type_info::`vftable'
EXTRN	___security_cookie:DWORD
EXTRN	__fltused:DWORD
EXTRN	__tls_array:DWORD
EXTRN	__tls_index:DWORD
;	COMDAT ?ms_singleton@?$CSingleton@VCEterPackManager@@@@0PAVCEterPackManager@@A
_BSS	SEGMENT
?ms_singleton@?$CSingleton@VCEterPackManager@@@@0PAVCEterPackManager@@A DD 01H DUP (?) ; CSingleton<CEterPackManager>::ms_singleton
_BSS	ENDS
;	COMDAT ?fLastTime@?1??UpdateSystem@CSpeedTreeForest@@QAEXM@Z@4MA
_BSS	SEGMENT
?fLastTime@?1??UpdateSystem@CSpeedTreeForest@@QAEXM@Z@4MA DD 01H DUP (?) ; `CSpeedTreeForest::UpdateSystem'::`2'::fLastTime
_BSS	ENDS
;	COMDAT ?$TSS0@?1??UpdateSystem@CSpeedTreeForest@@QAEXM@Z@4HA
_BSS	SEGMENT
?$TSS0@?1??UpdateSystem@CSpeedTreeForest@@QAEXM@Z@4HA DD 01H DUP (?) ; `CSpeedTreeForest::UpdateSystem'::`2'::$TSS0
_BSS	ENDS
;	COMDAT ?afMatrixTimes@?1??SetupWindMatrices@CSpeedTreeForest@@QAEXM@Z@4PAMA
_BSS	SEGMENT
?afMatrixTimes@?1??SetupWindMatrices@CSpeedTreeForest@@QAEXM@Z@4PAMA DD 04H DUP (?) ; `CSpeedTreeForest::SetupWindMatrices'::`2'::afMatrixTimes
_BSS	ENDS
;	COMDAT ?fTimeOfLastCall@?1??SetupWindMatrices@CSpeedTreeForest@@QAEXM@Z@4MA
_BSS	SEGMENT
?fTimeOfLastCall@?1??SetupWindMatrices@CSpeedTreeForest@@QAEXM@Z@4MA DD 01H DUP (?) ; `CSpeedTreeForest::SetupWindMatrices'::`2'::fTimeOfLastCall
_BSS	ENDS
;	COMDAT ?fOldStrength@?1??SetupWindMatrices@CSpeedTreeForest@@QAEXM@Z@4MA
_BSS	SEGMENT
?fOldStrength@?1??SetupWindMatrices@CSpeedTreeForest@@QAEXM@Z@4MA DD 01H DUP (?) ; `CSpeedTreeForest::SetupWindMatrices'::`2'::fOldStrength
_BSS	ENDS
;	COMDAT ?$TSS0@?1??SetupWindMatrices@CSpeedTreeForest@@QAEXM@Z@4HA
_BSS	SEGMENT
?$TSS0@?1??SetupWindMatrices@CSpeedTreeForest@@QAEXM@Z@4HA DD 01H DUP (?) ; `CSpeedTreeForest::SetupWindMatrices'::`2'::$TSS0
_BSS	ENDS
;	COMDAT __xmm@80000000800000008000000080000000
CONST	SEGMENT
__xmm@80000000800000008000000080000000 DB 00H, 00H, 00H, 080H, 00H, 00H, 00H
	DB	080H, 00H, 00H, 00H, 080H, 00H, 00H, 00H, 080H
CONST	ENDS
;	COMDAT __real@ff7fffff
CONST	SEGMENT
__real@ff7fffff DD 0ff7fffffr			; -3.40282e+38
CONST	ENDS
;	COMDAT __real@bf800000
CONST	SEGMENT
__real@bf800000 DD 0bf800000r			; -1
CONST	ENDS
;	COMDAT __real@7f7fffff
CONST	SEGMENT
__real@7f7fffff DD 07f7fffffr			; 3.40282e+38
CONST	ENDS
;	COMDAT __real@42652ee1
CONST	SEGMENT
__real@42652ee1 DD 042652ee1r			; 57.2958
CONST	ENDS
;	COMDAT __real@420c0000
CONST	SEGMENT
__real@420c0000 DD 0420c0000r			; 35
CONST	ENDS
;	COMDAT __real@41a00000
CONST	SEGMENT
__real@41a00000 DD 041a00000r			; 20
CONST	ENDS
;	COMDAT __real@3f800000
CONST	SEGMENT
__real@3f800000 DD 03f800000r			; 1
CONST	ENDS
;	COMDAT __real@00000000
CONST	SEGMENT
__real@00000000 DD 000000000r			; 0
CONST	ENDS
;	COMDAT ??_R1A@?0A@EA@CSpeedTreeForest@@8
rdata$r	SEGMENT
??_R1A@?0A@EA@CSpeedTreeForest@@8 DD FLAT:??_R0?AVCSpeedTreeForest@@@8 ; CSpeedTreeForest::`RTTI Base Class Descriptor at (0,-1,0,64)'
	DD	00H
	DD	00H
	DD	0ffffffffH
	DD	00H
	DD	040H
	DD	FLAT:??_R3CSpeedTreeForest@@8
rdata$r	ENDS
;	COMDAT ??_R2CSpeedTreeForest@@8
rdata$r	SEGMENT
??_R2CSpeedTreeForest@@8 DD FLAT:??_R1A@?0A@EA@CSpeedTreeForest@@8 ; CSpeedTreeForest::`RTTI Base Class Array'
rdata$r	ENDS
;	COMDAT ??_R3CSpeedTreeForest@@8
rdata$r	SEGMENT
??_R3CSpeedTreeForest@@8 DD 00H				; CSpeedTreeForest::`RTTI Class Hierarchy Descriptor'
	DD	00H
	DD	01H
	DD	FLAT:??_R2CSpeedTreeForest@@8
rdata$r	ENDS
;	COMDAT ??_R0?AVCSpeedTreeForest@@@8
data$rs	SEGMENT
??_R0?AVCSpeedTreeForest@@@8 DD FLAT:??_7type_info@@6B@	; CSpeedTreeForest `RTTI Type Descriptor'
	DD	00H
	DB	'.?AVCSpeedTreeForest@@', 00H
data$rs	ENDS
;	COMDAT ??_R4CSpeedTreeForest@@6B@
rdata$r	SEGMENT
??_R4CSpeedTreeForest@@6B@ DD 00H			; CSpeedTreeForest::`RTTI Complete Object Locator'
	DD	00H
	DD	00H
	DD	FLAT:??_R0?AVCSpeedTreeForest@@@8
	DD	FLAT:??_R3CSpeedTreeForest@@8
rdata$r	ENDS
;	COMDAT ??_R1A@?0A@EA@bad_array_new_length@std@@8
rdata$r	SEGMENT
??_R1A@?0A@EA@bad_array_new_length@std@@8 DD FLAT:??_R0?AVbad_array_new_length@std@@@8 ; std::bad_array_new_length::`RTTI Base Class Descriptor at (0,-1,0,64)'
	DD	02H
	DD	00H
	DD	0ffffffffH
	DD	00H
	DD	040H
	DD	FLAT:??_R3bad_array_new_length@std@@8
rdata$r	ENDS
;	COMDAT ??_R2bad_array_new_length@std@@8
rdata$r	SEGMENT
??_R2bad_array_new_length@std@@8 DD FLAT:??_R1A@?0A@EA@bad_array_new_length@std@@8 ; std::bad_array_new_length::`RTTI Base Class Array'
	DD	FLAT:??_R1A@?0A@EA@bad_alloc@std@@8
	DD	FLAT:??_R1A@?0A@EA@exception@std@@8
rdata$r	ENDS
;	COMDAT ??_R3bad_array_new_length@std@@8
rdata$r	SEGMENT
??_R3bad_array_new_length@std@@8 DD 00H			; std::bad_array_new_length::`RTTI Class Hierarchy Descriptor'
	DD	00H
	DD	03H
	DD	FLAT:??_R2bad_array_new_length@std@@8
rdata$r	ENDS
;	COMDAT ??_R4bad_array_new_length@std@@6B@
rdata$r	SEGMENT
??_R4bad_array_new_length@std@@6B@ DD 00H		; std::bad_array_new_length::`RTTI Complete Object Locator'
	DD	00H
	DD	00H
	DD	FLAT:??_R0?AVbad_array_new_length@std@@@8
	DD	FLAT:??_R3bad_array_new_length@std@@8
rdata$r	ENDS
;	COMDAT ??_R1A@?0A@EA@bad_alloc@std@@8
rdata$r	SEGMENT
??_R1A@?0A@EA@bad_alloc@std@@8 DD FLAT:??_R0?AVbad_alloc@std@@@8 ; std::bad_alloc::`RTTI Base Class Descriptor at (0,-1,0,64)'
	DD	01H
	DD	00H
	DD	0ffffffffH
	DD	00H
	DD	040H
	DD	FLAT:??_R3bad_alloc@std@@8
rdata$r	ENDS
;	COMDAT ??_R2bad_alloc@std@@8
rdata$r	SEGMENT
??_R2bad_alloc@std@@8 DD FLAT:??_R1A@?0A@EA@bad_alloc@std@@8 ; std::bad_alloc::`RTTI Base Class Array'
	DD	FLAT:??_R1A@?0A@EA@exception@std@@8
rdata$r	ENDS
;	COMDAT ??_R3bad_alloc@std@@8
rdata$r	SEGMENT
??_R3bad_alloc@std@@8 DD 00H				; std::bad_alloc::`RTTI Class Hierarchy Descriptor'
	DD	00H
	DD	02H
	DD	FLAT:??_R2bad_alloc@std@@8
rdata$r	ENDS
;	COMDAT ??_R4bad_alloc@std@@6B@
rdata$r	SEGMENT
??_R4bad_alloc@std@@6B@ DD 00H				; std::bad_alloc::`RTTI Complete Object Locator'
	DD	00H
	DD	00H
	DD	FLAT:??_R0?AVbad_alloc@std@@@8
	DD	FLAT:??_R3bad_alloc@std@@8
rdata$r	ENDS
;	COMDAT ??_R1A@?0A@EA@exception@std@@8
rdata$r	SEGMENT
??_R1A@?0A@EA@exception@std@@8 DD FLAT:??_R0?AVexception@std@@@8 ; std::exception::`RTTI Base Class Descriptor at (0,-1,0,64)'
	DD	00H
	DD	00H
	DD	0ffffffffH
	DD	00H
	DD	040H
	DD	FLAT:??_R3exception@std@@8
rdata$r	ENDS
;	COMDAT ??_R2exception@std@@8
rdata$r	SEGMENT
??_R2exception@std@@8 DD FLAT:??_R1A@?0A@EA@exception@std@@8 ; std::exception::`RTTI Base Class Array'
rdata$r	ENDS
;	COMDAT ??_R3exception@std@@8
rdata$r	SEGMENT
??_R3exception@std@@8 DD 00H				; std::exception::`RTTI Class Hierarchy Descriptor'
	DD	00H
	DD	01H
	DD	FLAT:??_R2exception@std@@8
rdata$r	ENDS
;	COMDAT ??_R4exception@std@@6B@
rdata$r	SEGMENT
??_R4exception@std@@6B@ DD 00H				; std::exception::`RTTI Complete Object Locator'
	DD	00H
	DD	00H
	DD	FLAT:??_R0?AVexception@std@@@8
	DD	FLAT:??_R3exception@std@@8
rdata$r	ENDS
;	COMDAT ?afFrequencies@?1??SetupWindMatrices@CSpeedTreeForest@@QAEXM@Z@4PAY01MA
_DATA	SEGMENT
?afFrequencies@?1??SetupWindMatrices@CSpeedTreeForest@@QAEXM@Z@4PAY01MA DD 03e19999ar ; 0.15 ; `CSpeedTreeForest::SetupWindMatrices'::`2'::afFrequencies
	DD	03e2e147br			; 0.17
	DD	03e800000r			; 0.25
	DD	03e19999ar			; 0.15
	DD	03e428f5cr			; 0.19
	DD	03d4ccccdr			; 0.05
	DD	03e19999ar			; 0.15
	DD	03e6147aer			; 0.22
_DATA	ENDS
;	COMDAT ??_7CSpeedTreeForest@@6B@
CONST	SEGMENT
??_7CSpeedTreeForest@@6B@ DD FLAT:??_R4CSpeedTreeForest@@6B@ ; CSpeedTreeForest::`vftable'
	DD	FLAT:??_ECSpeedTreeForest@@UAEPAXI@Z
	DD	FLAT:__purecall
	DD	FLAT:__purecall
CONST	ENDS
;	COMDAT ??_C@_0BB@GCADKGJO@map?1set?5too?5long@
CONST	SEGMENT
??_C@_0BB@GCADKGJO@map?1set?5too?5long@ DB 'map/set too long', 00H ; `string'
CONST	ENDS
;	COMDAT __CT??_R0?AVexception@std@@@8??0exception@std@@QAE@ABV01@@Z12
xdata$x	SEGMENT
__CT??_R0?AVexception@std@@@8??0exception@std@@QAE@ABV01@@Z12 DD 00H
	DD	FLAT:??_R0?AVexception@std@@@8
	DD	00H
	DD	0ffffffffH
	ORG $+4
	DD	0cH
	DD	FLAT:??0exception@std@@QAE@ABV01@@Z
xdata$x	ENDS
;	COMDAT ??_R0?AVexception@std@@@8
data$r	SEGMENT
??_R0?AVexception@std@@@8 DD FLAT:??_7type_info@@6B@	; std::exception `RTTI Type Descriptor'
	DD	00H
	DB	'.?AVexception@std@@', 00H
data$r	ENDS
;	COMDAT __CT??_R0?AVbad_alloc@std@@@8??0bad_alloc@std@@QAE@ABV01@@Z12
xdata$x	SEGMENT
__CT??_R0?AVbad_alloc@std@@@8??0bad_alloc@std@@QAE@ABV01@@Z12 DD 010H
	DD	FLAT:??_R0?AVbad_alloc@std@@@8
	DD	00H
	DD	0ffffffffH
	ORG $+4
	DD	0cH
	DD	FLAT:??0bad_alloc@std@@QAE@ABV01@@Z
xdata$x	ENDS
;	COMDAT ??_R0?AVbad_alloc@std@@@8
data$r	SEGMENT
??_R0?AVbad_alloc@std@@@8 DD FLAT:??_7type_info@@6B@	; std::bad_alloc `RTTI Type Descriptor'
	DD	00H
	DB	'.?AVbad_alloc@std@@', 00H
data$r	ENDS
;	COMDAT __CT??_R0?AVbad_array_new_length@std@@@8??0bad_array_new_length@std@@QAE@ABV01@@Z12
xdata$x	SEGMENT
__CT??_R0?AVbad_array_new_length@std@@@8??0bad_array_new_length@std@@QAE@ABV01@@Z12 DD 00H
	DD	FLAT:??_R0?AVbad_array_new_length@std@@@8
	DD	00H
	DD	0ffffffffH
	ORG $+4
	DD	0cH
	DD	FLAT:??0bad_array_new_length@std@@QAE@ABV01@@Z
xdata$x	ENDS
;	COMDAT ??_R0?AVbad_array_new_length@std@@@8
data$r	SEGMENT
??_R0?AVbad_array_new_length@std@@@8 DD FLAT:??_7type_info@@6B@ ; std::bad_array_new_length `RTTI Type Descriptor'
	DD	00H
	DB	'.?AVbad_array_new_length@std@@', 00H
data$r	ENDS
;	COMDAT __CTA3?AVbad_array_new_length@std@@
xdata$x	SEGMENT
__CTA3?AVbad_array_new_length@std@@ DD 03H
	DD	FLAT:__CT??_R0?AVbad_array_new_length@std@@@8??0bad_array_new_length@std@@QAE@ABV01@@Z12
	DD	FLAT:__CT??_R0?AVbad_alloc@std@@@8??0bad_alloc@std@@QAE@ABV01@@Z12
	DD	FLAT:__CT??_R0?AVexception@std@@@8??0exception@std@@QAE@ABV01@@Z12
xdata$x	ENDS
;	COMDAT __TI3?AVbad_array_new_length@std@@
xdata$x	SEGMENT
__TI3?AVbad_array_new_length@std@@ DD 00H
	DD	FLAT:??1bad_array_new_length@std@@UAE@XZ
	DD	00H
	DD	FLAT:__CTA3?AVbad_array_new_length@std@@
xdata$x	ENDS
;	COMDAT ??_C@_0BF@KINCDENJ@bad?5array?5new?5length@
CONST	SEGMENT
??_C@_0BF@KINCDENJ@bad?5array?5new?5length@ DB 'bad array new length', 00H ; `string'
CONST	ENDS
;	COMDAT ??_7bad_array_new_length@std@@6B@
CONST	SEGMENT
??_7bad_array_new_length@std@@6B@ DD FLAT:??_R4bad_array_new_length@std@@6B@ ; std::bad_array_new_length::`vftable'
	DD	FLAT:??_Ebad_array_new_length@std@@UAEPAXI@Z
	DD	FLAT:?what@exception@std@@UBEPBDXZ
CONST	ENDS
;	COMDAT ??_7bad_alloc@std@@6B@
CONST	SEGMENT
??_7bad_alloc@std@@6B@ DD FLAT:??_R4bad_alloc@std@@6B@	; std::bad_alloc::`vftable'
	DD	FLAT:??_Ebad_alloc@std@@UAEPAXI@Z
	DD	FLAT:?what@exception@std@@UBEPBDXZ
CONST	ENDS
;	COMDAT ??_C@_0BC@EOODALEL@Unknown?5exception@
CONST	SEGMENT
??_C@_0BC@EOODALEL@Unknown?5exception@ DB 'Unknown exception', 00H ; `string'
CONST	ENDS
;	COMDAT ??_7exception@std@@6B@
CONST	SEGMENT
??_7exception@std@@6B@ DD FLAT:??_R4exception@std@@6B@	; std::exception::`vftable'
	DD	FLAT:??_Eexception@std@@UAEPAXI@Z
	DD	FLAT:?what@exception@std@@UBEPBDXZ
CONST	ENDS
;	COMDAT xdata$x
xdata$x	SEGMENT
__unwindtable$??$?0U?$pair@$$CBKPAVCSpeedTreeWrapper@@@std@@@?$_Tree_temp_node@V?$allocator@U?$_Tree_node@U?$pair@$$CBKPAVCSpeedTreeWrapper@@@std@@PAX@std@@@std@@@std@@QAE@AAV?$allocator@U?$_Tree_node@U?$pair@$$CBKPAVCSpeedTreeWrapper@@@std@@PAX@std@@@1@PAU?$_Tree_node@U?$pair@$$CBKPAVCSpeedTreeWrapper@@@std@@PAX@1@$$QAU?$pair@$$CBKPAVCSpeedTreeWrapper@@@1@@Z DD 0ffffffffH
	DD	FLAT:__unwindfunclet$??$?0U?$pair@$$CBKPAVCSpeedTreeWrapper@@@std@@@?$_Tree_temp_node@V?$allocator@U?$_Tree_node@U?$pair@$$CBKPAVCSpeedTreeWrapper@@@std@@PAX@std@@@std@@@std@@QAE@AAV?$allocator@U?$_Tree_node@U?$pair@$$CBKPAVCSpeedTreeWrapper@@@std@@PAX@std@@@1@PAU?$_Tree_node@U?$pair@$$CBKPAVCSpeedTreeWrapper@@@std@@PAX@1@$$QAU?$pair@$$CBKPAVCSpeedTreeWrapper@@@1@@Z$1
__ehfuncinfo$??$?0U?$pair@$$CBKPAVCSpeedTreeWrapper@@@std@@@?$_Tree_temp_node@V?$allocator@U?$_Tree_node@U?$pair@$$CBKPAVCSpeedTreeWrapper@@@std@@PAX@std@@@std@@@std@@QAE@AAV?$allocator@U?$_Tree_node@U?$pair@$$CBKPAVCSpeedTreeWrapper@@@std@@PAX@std@@@1@PAU?$_Tree_node@U?$pair@$$CBKPAVCSpeedTreeWrapper@@@std@@PAX@1@$$QAU?$pair@$$CBKPAVCSpeedTreeWrapper@@@1@@Z DD 019930522H
	DD	01H
	DD	FLAT:__unwindtable$??$?0U?$pair@$$CBKPAVCSpeedTreeWrapper@@@std@@@?$_Tree_temp_node@V?$allocator@U?$_Tree_node@U?$pair@$$CBKPAVCSpeedTreeWrapper@@@std@@PAX@std@@@std@@@std@@QAE@AAV?$allocator@U?$_Tree_node@U?$pair@$$CBKPAVCSpeedTreeWrapper@@@std@@PAX@std@@@1@PAU?$_Tree_node@U?$pair@$$CBKPAVCSpeedTreeWrapper@@@std@@PAX@1@$$QAU?$pair@$$CBKPAVCSpeedTreeWrapper@@@1@@Z
	DD	2 DUP(00H)
	DD	2 DUP(00H)
	DD	00H
	DD	01H
xdata$x	ENDS
;	COMDAT xdata$x
xdata$x	SEGMENT
__ehfuncinfo$??$_Deallocate@$07$0A@@std@@YAXPAXI@Z DD 019930522H
	DD	00H
	DD	00H
	DD	2 DUP(00H)
	DD	2 DUP(00H)
	DD	00H
	DD	05H
xdata$x	ENDS
;	COMDAT xdata$x
xdata$x	SEGMENT
__unwindtable$?GetMainTree@CSpeedTreeForest@@QAEHKPAPAVCSpeedTreeWrapper@@PBD@Z DD 0ffffffffH
	DD	FLAT:__unwindfunclet$?GetMainTree@CSpeedTreeForest@@QAEHKPAPAVCSpeedTreeWrapper@@PBD@Z$0
	DD	00H
	DD	FLAT:__unwindfunclet$?GetMainTree@CSpeedTreeForest@@QAEHKPAPAVCSpeedTreeWrapper@@PBD@Z$1
__ehfuncinfo$?GetMainTree@CSpeedTreeForest@@QAEHKPAPAVCSpeedTreeWrapper@@PBD@Z DD 019930522H
	DD	02H
	DD	FLAT:__unwindtable$?GetMainTree@CSpeedTreeForest@@QAEHKPAPAVCSpeedTreeWrapper@@PBD@Z
	DD	2 DUP(00H)
	DD	2 DUP(00H)
	DD	00H
	DD	01H
xdata$x	ENDS
;	COMDAT xdata$x
xdata$x	SEGMENT
__ehfuncinfo$??1CSpeedTreeForest@@UAE@XZ DD 019930522H
	DD	00H
	DD	00H
	DD	2 DUP(00H)
	DD	2 DUP(00H)
	DD	00H
	DD	05H
xdata$x	ENDS
;	COMDAT xdata$x
xdata$x	SEGMENT
__unwindtable$??0CSpeedTreeForest@@QAE@XZ DD 0ffffffffH
	DD	FLAT:__unwindfunclet$??0CSpeedTreeForest@@QAE@XZ$0
__ehfuncinfo$??0CSpeedTreeForest@@QAE@XZ DD 019930522H
	DD	01H
	DD	FLAT:__unwindtable$??0CSpeedTreeForest@@QAE@XZ
	DD	2 DUP(00H)
	DD	2 DUP(00H)
	DD	00H
	DD	01H
xdata$x	ENDS
; Function compile flags: /Odspy
; File C:\Program Files (x86)\Microsoft Visual Studio\2019\Community\VC\Tools\MSVC\14.28.29333\include\xmemory
; File C:\Program Files (x86)\Microsoft Visual Studio\2019\Community\VC\Tools\MSVC\14.28.29333\include\xstddef
; File C:\Program Files (x86)\Microsoft Visual Studio\2019\Community\VC\Tools\MSVC\14.28.29333\include\vcruntime_new.h
; File C:\Program Files (x86)\Microsoft Visual Studio\2019\Community\VC\Tools\MSVC\14.28.29333\include\type_traits
; File C:\Program Files (x86)\Microsoft Visual Studio\2019\Community\VC\Tools\MSVC\14.28.29333\include\xmemory
;	COMDAT ??$_Construct_in_place@PAU?$_Tree_node@U?$pair@$$CBKPAVCSpeedTreeWrapper@@@std@@PAX@std@@AAPAU12@@std@@YAXAAPAU?$_Tree_node@U?$pair@$$CBKPAVCSpeedTreeWrapper@@@std@@PAX@0@0@Z
_TEXT	SEGMENT
$T1 = -12						; size = 4
$T2 = -8						; size = 4
$T3 = -4						; size = 4
__Obj$ = 8						; size = 4
_<_Args_0>$ = 12					; size = 4
??$_Construct_in_place@PAU?$_Tree_node@U?$pair@$$CBKPAVCSpeedTreeWrapper@@@std@@PAX@std@@AAPAU12@@std@@YAXAAPAU?$_Tree_node@U?$pair@$$CBKPAVCSpeedTreeWrapper@@@std@@PAX@0@0@Z PROC ; std::_Construct_in_place<std::_Tree_node<std::pair<unsigned long const ,CSpeedTreeWrapper *>,void *> *,std::_Tree_node<std::pair<unsigned long const ,CSpeedTreeWrapper *>,void *> * &>, COMDAT

; 228  : void _Construct_in_place(_Ty& _Obj, _Types&&... _Args) noexcept(is_nothrow_constructible_v<_Ty, _Types...>) {

  00000	55		 push	 ebp
  00001	8b ec		 mov	 ebp, esp
  00003	83 ec 0c	 sub	 esp, 12			; 0000000cH
; File C:\Program Files (x86)\Microsoft Visual Studio\2019\Community\VC\Tools\MSVC\14.28.29333\include\xstddef

; 275  :     return __builtin_addressof(_Val);

  00006	8b 45 08	 mov	 eax, DWORD PTR __Obj$[ebp]
  00009	89 45 fc	 mov	 DWORD PTR $T3[ebp], eax
; File C:\Program Files (x86)\Microsoft Visual Studio\2019\Community\VC\Tools\MSVC\14.28.29333\include\vcruntime_new.h

; 169  :         return _Where;

  0000c	8b 45 fc	 mov	 eax, DWORD PTR $T3[ebp]
  0000f	89 45 f8	 mov	 DWORD PTR $T2[ebp], eax
; File C:\Program Files (x86)\Microsoft Visual Studio\2019\Community\VC\Tools\MSVC\14.28.29333\include\type_traits

; 1443 :     return static_cast<_Ty&&>(_Arg);

  00012	8b 45 0c	 mov	 eax, DWORD PTR _<_Args_0>$[ebp]
  00015	89 45 f4	 mov	 DWORD PTR $T1[ebp], eax
; File C:\Program Files (x86)\Microsoft Visual Studio\2019\Community\VC\Tools\MSVC\14.28.29333\include\xmemory

; 229  :     ::new (const_cast<void*>(static_cast<const volatile void*>(_STD addressof(_Obj))))

  00018	8b 45 f8	 mov	 eax, DWORD PTR $T2[ebp]
  0001b	8b 4d f4	 mov	 ecx, DWORD PTR $T1[ebp]
  0001e	8b 09		 mov	 ecx, DWORD PTR [ecx]
  00020	89 08		 mov	 DWORD PTR [eax], ecx

; 230  :         _Ty(_STD forward<_Types>(_Args)...);
; 231  : }

  00022	c9		 leave
  00023	c3		 ret	 0
??$_Construct_in_place@PAU?$_Tree_node@U?$pair@$$CBKPAVCSpeedTreeWrapper@@@std@@PAX@std@@AAPAU12@@std@@YAXAAPAU?$_Tree_node@U?$pair@$$CBKPAVCSpeedTreeWrapper@@@std@@PAX@0@0@Z ENDP ; std::_Construct_in_place<std::_Tree_node<std::pair<unsigned long const ,CSpeedTreeWrapper *>,void *> *,std::_Tree_node<std::pair<unsigned long const ,CSpeedTreeWrapper *>,void *> * &>
_TEXT	ENDS
; Function compile flags: /Odspy
; File C:\Program Files (x86)\Microsoft Visual Studio\2019\Community\VC\Tools\MSVC\14.28.29333\include\xmemory
;	COMDAT ??$_Destroy_in_place@PAU?$_Tree_node@U?$pair@$$CBKPAVCSpeedTreeWrapper@@@std@@PAX@std@@@std@@YAXAAPAU?$_Tree_node@U?$pair@$$CBKPAVCSpeedTreeWrapper@@@std@@PAX@0@@Z
_TEXT	SEGMENT
__Obj$ = 8						; size = 4
??$_Destroy_in_place@PAU?$_Tree_node@U?$pair@$$CBKPAVCSpeedTreeWrapper@@@std@@PAX@std@@@std@@YAXAAPAU?$_Tree_node@U?$pair@$$CBKPAVCSpeedTreeWrapper@@@std@@PAX@0@@Z PROC ; std::_Destroy_in_place<std::_Tree_node<std::pair<unsigned long const ,CSpeedTreeWrapper *>,void *> *>, COMDAT

; 270  : /* _CONSTEXPR20_DYNALLOC */ void _Destroy_in_place(_Ty& _Obj) noexcept {

  00000	55		 push	 ebp
  00001	8b ec		 mov	 ebp, esp

; 271  : #if _HAS_IF_CONSTEXPR
; 272  :     if constexpr (is_array_v<_Ty>) {
; 273  :         _Destroy_range(_Obj, _Obj + extent_v<_Ty>);
; 274  :     } else
; 275  : #endif // _HAS_IF_CONSTEXPR
; 276  :     {
; 277  :         _Obj.~_Ty();
; 278  :     }
; 279  : }

  00003	5d		 pop	 ebp
  00004	c3		 ret	 0
??$_Destroy_in_place@PAU?$_Tree_node@U?$pair@$$CBKPAVCSpeedTreeWrapper@@@std@@PAX@std@@@std@@YAXAAPAU?$_Tree_node@U?$pair@$$CBKPAVCSpeedTreeWrapper@@@std@@PAX@0@@Z ENDP ; std::_Destroy_in_place<std::_Tree_node<std::pair<unsigned long const ,CSpeedTreeWrapper *>,void *> *>
_TEXT	ENDS
; Function compile flags: /Odspy
; File C:\Program Files (x86)\Microsoft Visual Studio\2019\Community\VC\Tools\MSVC\14.28.29333\include\xtree
; File C:\Program Files (x86)\Microsoft Visual Studio\2019\Community\VC\Tools\MSVC\14.28.29333\include\xmemory
; File C:\Program Files (x86)\Microsoft Visual Studio\2019\Community\VC\Tools\MSVC\14.28.29333\include\xtree
; File C:\Program Files (x86)\Microsoft Visual Studio\2019\Community\VC\Tools\MSVC\14.28.29333\include\type_traits
; File C:\Program Files (x86)\Microsoft Visual Studio\2019\Community\VC\Tools\MSVC\14.28.29333\include\xtree
; File C:\Program Files (x86)\Microsoft Visual Studio\2019\Community\VC\Tools\MSVC\14.28.29333\include\xstddef
; File C:\Program Files (x86)\Microsoft Visual Studio\2019\Community\VC\Tools\MSVC\14.28.29333\include\xtree
; File C:\Program Files (x86)\Microsoft Visual Studio\2019\Community\VC\Tools\MSVC\14.28.29333\include\vcruntime_new.h
; File C:\Program Files (x86)\Microsoft Visual Studio\2019\Community\VC\Tools\MSVC\14.28.29333\include\type_traits
; File C:\Program Files (x86)\Microsoft Visual Studio\2019\Community\VC\Tools\MSVC\14.28.29333\include\xmemory
; File C:\Program Files (x86)\Microsoft Visual Studio\2019\Community\VC\Tools\MSVC\14.28.29333\include\xtree
;	COMDAT ??$?0U?$pair@$$CBKPAVCSpeedTreeWrapper@@@std@@@?$_Tree_temp_node@V?$allocator@U?$_Tree_node@U?$pair@$$CBKPAVCSpeedTreeWrapper@@@std@@PAX@std@@@std@@@std@@QAE@AAV?$allocator@U?$_Tree_node@U?$pair@$$CBKPAVCSpeedTreeWrapper@@@std@@PAX@std@@@1@PAU?$_Tree_node@U?$pair@$$CBKPAVCSpeedTreeWrapper@@@std@@PAX@1@$$QAU?$pair@$$CBKPAVCSpeedTreeWrapper@@@1@@Z
_TEXT	SEGMENT
___formal$ = -40					; size = 4
$T2 = -36						; size = 4
$T3 = -32						; size = 4
$T4 = -28						; size = 4
$T5 = -24						; size = 4
__Val$ = -20						; size = 4
_this$ = -16						; size = 4
__$EHRec$ = -12						; size = 12
__Al_$ = 8						; size = 4
__Myhead$ = 12						; size = 4
_<_Vals_0>$ = 16					; size = 4
??$?0U?$pair@$$CBKPAVCSpeedTreeWrapper@@@std@@@?$_Tree_temp_node@V?$allocator@U?$_Tree_node@U?$pair@$$CBKPAVCSpeedTreeWrapper@@@std@@PAX@std@@@std@@@std@@QAE@AAV?$allocator@U?$_Tree_node@U?$pair@$$CBKPAVCSpeedTreeWrapper@@@std@@PAX@std@@@1@PAU?$_Tree_node@U?$pair@$$CBKPAVCSpeedTreeWrapper@@@std@@PAX@1@$$QAU?$pair@$$CBKPAVCSpeedTreeWrapper@@@1@@Z PROC ; std::_Tree_temp_node<std::allocator<std::_Tree_node<std::pair<unsigned long const ,CSpeedTreeWrapper *>,void *> > >::_Tree_temp_node<std::allocator<std::_Tree_node<std::pair<unsigned long const ,CSpeedTreeWrapper *>,void *> > ><std::pair<unsigned long const ,CSpeedTreeWrapper *> >, COMDAT
; _this$ = ecx

; 805  :         : _Tree_temp_node_alloc<_Alnode>(_Al_) {

  00000	55		 push	 ebp
  00001	8b ec		 mov	 ebp, esp
  00003	6a ff		 push	 -1
  00005	68 00 00 00 00	 push	 __ehhandler$??$?0U?$pair@$$CBKPAVCSpeedTreeWrapper@@@std@@@?$_Tree_temp_node@V?$allocator@U?$_Tree_node@U?$pair@$$CBKPAVCSpeedTreeWrapper@@@std@@PAX@std@@@std@@@std@@QAE@AAV?$allocator@U?$_Tree_node@U?$pair@$$CBKPAVCSpeedTreeWrapper@@@std@@PAX@std@@@1@PAU?$_Tree_node@U?$pair@$$CBKPAVCSpeedTreeWrapper@@@std@@PAX@1@$$QAU?$pair@$$CBKPAVCSpeedTreeWrapper@@@1@@Z
  0000a	64 a1 00 00 00
	00		 mov	 eax, DWORD PTR fs:0
  00010	50		 push	 eax
  00011	83 ec 1c	 sub	 esp, 28			; 0000001cH
  00014	a1 00 00 00 00	 mov	 eax, DWORD PTR ___security_cookie
  00019	33 c5		 xor	 eax, ebp
  0001b	50		 push	 eax
  0001c	8d 45 f4	 lea	 eax, DWORD PTR __$EHRec$[ebp]
  0001f	64 a3 00 00 00
	00		 mov	 DWORD PTR fs:0, eax
  00025	89 4d f0	 mov	 DWORD PTR _this$[ebp], ecx
; File C:\Program Files (x86)\Microsoft Visual Studio\2019\Community\VC\Tools\MSVC\14.28.29333\include\xmemory

; 1045 :     explicit _Alloc_construct_ptr(_Alloc& _Al_) : _Al(_Al_), _Ptr(nullptr) {}

  00028	8b 45 f0	 mov	 eax, DWORD PTR _this$[ebp]
  0002b	8b 4d 08	 mov	 ecx, DWORD PTR __Al_$[ebp]
  0002e	89 08		 mov	 DWORD PTR [eax], ecx
  00030	8b 45 f0	 mov	 eax, DWORD PTR _this$[ebp]
  00033	83 60 04 00	 and	 DWORD PTR [eax+4], 0
; File C:\Program Files (x86)\Microsoft Visual Studio\2019\Community\VC\Tools\MSVC\14.28.29333\include\xtree

; 784  :     explicit _Tree_temp_node_alloc(_Alnode& _Al_) : _Alloc_construct_ptr<_Alnode>(_Al_) {

  00037	83 65 fc 00	 and	 DWORD PTR __$EHRec$[ebp+8], 0

; 785  :         _Alloc_construct_ptr<_Alnode>::_Allocate();

  0003b	8b 4d f0	 mov	 ecx, DWORD PTR _this$[ebp]
  0003e	e8 00 00 00 00	 call	 ?_Allocate@?$_Alloc_construct_ptr@V?$allocator@U?$_Tree_node@U?$pair@$$CBKPAVCSpeedTreeWrapper@@@std@@PAX@std@@@std@@@std@@QAEXXZ ; std::_Alloc_construct_ptr<std::allocator<std::_Tree_node<std::pair<unsigned long const ,CSpeedTreeWrapper *>,void *> > >::_Allocate

; 786  :     }

  00043	83 4d fc ff	 or	 DWORD PTR __$EHRec$[ebp+8], -1
; File C:\Program Files (x86)\Microsoft Visual Studio\2019\Community\VC\Tools\MSVC\14.28.29333\include\type_traits

; 1443 :     return static_cast<_Ty&&>(_Arg);

  00047	8b 45 10	 mov	 eax, DWORD PTR _<_Vals_0>$[ebp]
  0004a	89 45 e4	 mov	 DWORD PTR $T4[ebp], eax
; File C:\Program Files (x86)\Microsoft Visual Studio\2019\Community\VC\Tools\MSVC\14.28.29333\include\xtree

; 806  :         _Alnode_traits::construct(this->_Al, _STD addressof(this->_Ptr->_Myval), _STD forward<_Valtys>(_Vals)...);

  0004d	8b 45 f0	 mov	 eax, DWORD PTR _this$[ebp]
  00050	8b 40 04	 mov	 eax, DWORD PTR [eax+4]
  00053	83 c0 10	 add	 eax, 16			; 00000010H
  00056	89 45 ec	 mov	 DWORD PTR __Val$[ebp], eax
; File C:\Program Files (x86)\Microsoft Visual Studio\2019\Community\VC\Tools\MSVC\14.28.29333\include\xstddef

; 275  :     return __builtin_addressof(_Val);

  00059	8b 45 ec	 mov	 eax, DWORD PTR __Val$[ebp]
  0005c	89 45 e8	 mov	 DWORD PTR $T5[ebp], eax
; File C:\Program Files (x86)\Microsoft Visual Studio\2019\Community\VC\Tools\MSVC\14.28.29333\include\xtree

; 806  :         _Alnode_traits::construct(this->_Al, _STD addressof(this->_Ptr->_Myval), _STD forward<_Valtys>(_Vals)...);

  0005f	8b 45 f0	 mov	 eax, DWORD PTR _this$[ebp]
  00062	8b 00		 mov	 eax, DWORD PTR [eax]
  00064	89 45 d8	 mov	 DWORD PTR ___formal$[ebp], eax
; File C:\Program Files (x86)\Microsoft Visual Studio\2019\Community\VC\Tools\MSVC\14.28.29333\include\vcruntime_new.h

; 169  :         return _Where;

  00067	8b 45 e8	 mov	 eax, DWORD PTR $T5[ebp]
  0006a	89 45 dc	 mov	 DWORD PTR $T2[ebp], eax
; File C:\Program Files (x86)\Microsoft Visual Studio\2019\Community\VC\Tools\MSVC\14.28.29333\include\type_traits

; 1443 :     return static_cast<_Ty&&>(_Arg);

  0006d	8b 45 e4	 mov	 eax, DWORD PTR $T4[ebp]
  00070	89 45 e0	 mov	 DWORD PTR $T3[ebp], eax
; File C:\Program Files (x86)\Microsoft Visual Studio\2019\Community\VC\Tools\MSVC\14.28.29333\include\xmemory

; 701  :         ::new (const_cast<void*>(static_cast<const volatile void*>(_Ptr))) _Objty(_STD forward<_Types>(_Args)...);

  00073	8b 45 e0	 mov	 eax, DWORD PTR $T3[ebp]
  00076	8b 08		 mov	 ecx, DWORD PTR [eax]
  00078	8b 40 04	 mov	 eax, DWORD PTR [eax+4]
  0007b	8b 55 dc	 mov	 edx, DWORD PTR $T2[ebp]
  0007e	89 0a		 mov	 DWORD PTR [edx], ecx
  00080	89 42 04	 mov	 DWORD PTR [edx+4], eax
; File C:\Program Files (x86)\Microsoft Visual Studio\2019\Community\VC\Tools\MSVC\14.28.29333\include\xtree

; 807  :         _Construct_in_place(this->_Ptr->_Left, _Myhead);

  00083	8d 45 0c	 lea	 eax, DWORD PTR __Myhead$[ebp]
  00086	50		 push	 eax
  00087	8b 45 f0	 mov	 eax, DWORD PTR _this$[ebp]
  0008a	ff 70 04	 push	 DWORD PTR [eax+4]
  0008d	e8 00 00 00 00	 call	 ??$_Construct_in_place@PAU?$_Tree_node@U?$pair@$$CBKPAVCSpeedTreeWrapper@@@std@@PAX@std@@AAPAU12@@std@@YAXAAPAU?$_Tree_node@U?$pair@$$CBKPAVCSpeedTreeWrapper@@@std@@PAX@0@0@Z ; std::_Construct_in_place<std::_Tree_node<std::pair<unsigned long const ,CSpeedTreeWrapper *>,void *> *,std::_Tree_node<std::pair<unsigned long const ,CSpeedTreeWrapper *>,void *> * &>
  00092	59		 pop	 ecx
  00093	59		 pop	 ecx

; 808  :         _Construct_in_place(this->_Ptr->_Parent, _Myhead);

  00094	8d 45 0c	 lea	 eax, DWORD PTR __Myhead$[ebp]
  00097	50		 push	 eax
  00098	8b 45 f0	 mov	 eax, DWORD PTR _this$[ebp]
  0009b	8b 40 04	 mov	 eax, DWORD PTR [eax+4]
  0009e	83 c0 04	 add	 eax, 4
  000a1	50		 push	 eax
  000a2	e8 00 00 00 00	 call	 ??$_Construct_in_place@PAU?$_Tree_node@U?$pair@$$CBKPAVCSpeedTreeWrapper@@@std@@PAX@std@@AAPAU12@@std@@YAXAAPAU?$_Tree_node@U?$pair@$$CBKPAVCSpeedTreeWrapper@@@std@@PAX@0@0@Z ; std::_Construct_in_place<std::_Tree_node<std::pair<unsigned long const ,CSpeedTreeWrapper *>,void *> *,std::_Tree_node<std::pair<unsigned long const ,CSpeedTreeWrapper *>,void *> * &>
  000a7	59		 pop	 ecx
  000a8	59		 pop	 ecx

; 809  :         _Construct_in_place(this->_Ptr->_Right, _Myhead);

  000a9	8d 45 0c	 lea	 eax, DWORD PTR __Myhead$[ebp]
  000ac	50		 push	 eax
  000ad	8b 45 f0	 mov	 eax, DWORD PTR _this$[ebp]
  000b0	8b 40 04	 mov	 eax, DWORD PTR [eax+4]
  000b3	83 c0 08	 add	 eax, 8
  000b6	50		 push	 eax
  000b7	e8 00 00 00 00	 call	 ??$_Construct_in_place@PAU?$_Tree_node@U?$pair@$$CBKPAVCSpeedTreeWrapper@@@std@@PAX@std@@AAPAU12@@std@@YAXAAPAU?$_Tree_node@U?$pair@$$CBKPAVCSpeedTreeWrapper@@@std@@PAX@0@0@Z ; std::_Construct_in_place<std::_Tree_node<std::pair<unsigned long const ,CSpeedTreeWrapper *>,void *> *,std::_Tree_node<std::pair<unsigned long const ,CSpeedTreeWrapper *>,void *> * &>
  000bc	59		 pop	 ecx
  000bd	59		 pop	 ecx

; 810  :         this->_Ptr->_Color = _Red;

  000be	8b 45 f0	 mov	 eax, DWORD PTR _this$[ebp]
  000c1	8b 40 04	 mov	 eax, DWORD PTR [eax+4]
  000c4	c6 40 0c 00	 mov	 BYTE PTR [eax+12], 0

; 811  :         this->_Ptr->_Isnil = false;

  000c8	8b 45 f0	 mov	 eax, DWORD PTR _this$[ebp]
  000cb	8b 40 04	 mov	 eax, DWORD PTR [eax+4]
  000ce	c6 40 0d 00	 mov	 BYTE PTR [eax+13], 0

; 812  :     }

  000d2	8b 45 f0	 mov	 eax, DWORD PTR _this$[ebp]
  000d5	8b 4d f4	 mov	 ecx, DWORD PTR __$EHRec$[ebp]
  000d8	64 89 0d 00 00
	00 00		 mov	 DWORD PTR fs:0, ecx
  000df	59		 pop	 ecx
  000e0	c9		 leave
  000e1	c2 0c 00	 ret	 12			; 0000000cH
_TEXT	ENDS
;	COMDAT text$x
text$x	SEGMENT
__unwindfunclet$??$?0U?$pair@$$CBKPAVCSpeedTreeWrapper@@@std@@@?$_Tree_temp_node@V?$allocator@U?$_Tree_node@U?$pair@$$CBKPAVCSpeedTreeWrapper@@@std@@PAX@std@@@std@@@std@@QAE@AAV?$allocator@U?$_Tree_node@U?$pair@$$CBKPAVCSpeedTreeWrapper@@@std@@PAX@std@@@1@PAU?$_Tree_node@U?$pair@$$CBKPAVCSpeedTreeWrapper@@@std@@PAX@1@$$QAU?$pair@$$CBKPAVCSpeedTreeWrapper@@@1@@Z$1:
  00000	8b 4d f0	 mov	 ecx, DWORD PTR _this$[ebp]
  00003	e9 00 00 00 00	 jmp	 ??1?$_Alloc_construct_ptr@V?$allocator@U?$_Tree_node@U?$pair@$$CBKPAVCSpeedTreeWrapper@@@std@@PAX@std@@@std@@@std@@QAE@XZ ; std::_Alloc_construct_ptr<std::allocator<std::_Tree_node<std::pair<unsigned long const ,CSpeedTreeWrapper *>,void *> > >::~_Alloc_construct_ptr<std::allocator<std::_Tree_node<std::pair<unsigned long const ,CSpeedTreeWrapper *>,void *> > >
  00008	cc		 int	 3
  00009	cc		 int	 3
  0000a	cc		 int	 3
  0000b	cc		 int	 3
  0000c	cc		 int	 3
__ehhandler$??$?0U?$pair@$$CBKPAVCSpeedTreeWrapper@@@std@@@?$_Tree_temp_node@V?$allocator@U?$_Tree_node@U?$pair@$$CBKPAVCSpeedTreeWrapper@@@std@@PAX@std@@@std@@@std@@QAE@AAV?$allocator@U?$_Tree_node@U?$pair@$$CBKPAVCSpeedTreeWrapper@@@std@@PAX@std@@@1@PAU?$_Tree_node@U?$pair@$$CBKPAVCSpeedTreeWrapper@@@std@@PAX@1@$$QAU?$pair@$$CBKPAVCSpeedTreeWrapper@@@1@@Z:
  0000d	90		 npad	 1
  0000e	90		 npad	 1
  0000f	8b 54 24 08	 mov	 edx, DWORD PTR [esp+8]
  00013	8d 42 0c	 lea	 eax, DWORD PTR [edx+12]
  00016	8b 4a e0	 mov	 ecx, DWORD PTR [edx-32]
  00019	33 c8		 xor	 ecx, eax
  0001b	e8 00 00 00 00	 call	 @__security_check_cookie@4
  00020	b8 00 00 00 00	 mov	 eax, OFFSET __ehfuncinfo$??$?0U?$pair@$$CBKPAVCSpeedTreeWrapper@@@std@@@?$_Tree_temp_node@V?$allocator@U?$_Tree_node@U?$pair@$$CBKPAVCSpeedTreeWrapper@@@std@@PAX@std@@@std@@@std@@QAE@AAV?$allocator@U?$_Tree_node@U?$pair@$$CBKPAVCSpeedTreeWrapper@@@std@@PAX@std@@@1@PAU?$_Tree_node@U?$pair@$$CBKPAVCSpeedTreeWrapper@@@std@@PAX@1@$$QAU?$pair@$$CBKPAVCSpeedTreeWrapper@@@1@@Z
  00025	e9 00 00 00 00	 jmp	 ___CxxFrameHandler3
text$x	ENDS
??$?0U?$pair@$$CBKPAVCSpeedTreeWrapper@@@std@@@?$_Tree_temp_node@V?$allocator@U?$_Tree_node@U?$pair@$$CBKPAVCSpeedTreeWrapper@@@std@@PAX@std@@@std@@@std@@QAE@AAV?$allocator@U?$_Tree_node@U?$pair@$$CBKPAVCSpeedTreeWrapper@@@std@@PAX@std@@@1@PAU?$_Tree_node@U?$pair@$$CBKPAVCSpeedTreeWrapper@@@std@@PAX@1@$$QAU?$pair@$$CBKPAVCSpeedTreeWrapper@@@1@@Z ENDP ; std::_Tree_temp_node<std::allocator<std::_Tree_node<std::pair<unsigned long const ,CSpeedTreeWrapper *>,void *> > >::_Tree_temp_node<std::allocator<std::_Tree_node<std::pair<unsigned long const ,CSpeedTreeWrapper *>,void *> > ><std::pair<unsigned long const ,CSpeedTreeWrapper *> >
; Function compile flags: /Odspy
; File C:\Program Files (x86)\Microsoft Visual Studio\2019\Community\VC\Tools\MSVC\14.28.29333\include\xtree
; File C:\Program Files (x86)\Microsoft Visual Studio\2019\Community\VC\Tools\MSVC\14.28.29333\include\xstddef
; File C:\Program Files (x86)\Microsoft Visual Studio\2019\Community\VC\Tools\MSVC\14.28.29333\include\xtree
;	COMDAT ??1?$_Tree_temp_node@V?$allocator@U?$_Tree_node@U?$pair@$$CBKPAVCSpeedTreeWrapper@@@std@@PAX@std@@@std@@@std@@QAE@XZ
_TEXT	SEGMENT
$T1 = -12						; size = 4
__Val$ = -8						; size = 4
_this$ = -4						; size = 4
??1?$_Tree_temp_node@V?$allocator@U?$_Tree_node@U?$pair@$$CBKPAVCSpeedTreeWrapper@@@std@@PAX@std@@@std@@@std@@QAE@XZ PROC ; std::_Tree_temp_node<std::allocator<std::_Tree_node<std::pair<unsigned long const ,CSpeedTreeWrapper *>,void *> > >::~_Tree_temp_node<std::allocator<std::_Tree_node<std::pair<unsigned long const ,CSpeedTreeWrapper *>,void *> > >, COMDAT
; _this$ = ecx

; 817  :     ~_Tree_temp_node() {

  00000	55		 push	 ebp
  00001	8b ec		 mov	 ebp, esp
  00003	83 ec 0c	 sub	 esp, 12			; 0000000cH
  00006	89 4d fc	 mov	 DWORD PTR _this$[ebp], ecx

; 818  :         if (this->_Ptr) {

  00009	8b 45 fc	 mov	 eax, DWORD PTR _this$[ebp]
  0000c	83 78 04 00	 cmp	 DWORD PTR [eax+4], 0
  00010	74 3e		 je	 SHORT $LN9@Tree_temp_

; 819  :             _Destroy_in_place(this->_Ptr->_Left);

  00012	8b 45 fc	 mov	 eax, DWORD PTR _this$[ebp]
  00015	ff 70 04	 push	 DWORD PTR [eax+4]
  00018	e8 00 00 00 00	 call	 ??$_Destroy_in_place@PAU?$_Tree_node@U?$pair@$$CBKPAVCSpeedTreeWrapper@@@std@@PAX@std@@@std@@YAXAAPAU?$_Tree_node@U?$pair@$$CBKPAVCSpeedTreeWrapper@@@std@@PAX@0@@Z ; std::_Destroy_in_place<std::_Tree_node<std::pair<unsigned long const ,CSpeedTreeWrapper *>,void *> *>
  0001d	59		 pop	 ecx

; 820  :             _Destroy_in_place(this->_Ptr->_Parent);

  0001e	8b 45 fc	 mov	 eax, DWORD PTR _this$[ebp]
  00021	8b 40 04	 mov	 eax, DWORD PTR [eax+4]
  00024	83 c0 04	 add	 eax, 4
  00027	50		 push	 eax
  00028	e8 00 00 00 00	 call	 ??$_Destroy_in_place@PAU?$_Tree_node@U?$pair@$$CBKPAVCSpeedTreeWrapper@@@std@@PAX@std@@@std@@YAXAAPAU?$_Tree_node@U?$pair@$$CBKPAVCSpeedTreeWrapper@@@std@@PAX@0@@Z ; std::_Destroy_in_place<std::_Tree_node<std::pair<unsigned long const ,CSpeedTreeWrapper *>,void *> *>
  0002d	59		 pop	 ecx

; 821  :             _Destroy_in_place(this->_Ptr->_Right);

  0002e	8b 45 fc	 mov	 eax, DWORD PTR _this$[ebp]
  00031	8b 40 04	 mov	 eax, DWORD PTR [eax+4]
  00034	83 c0 08	 add	 eax, 8
  00037	50		 push	 eax
  00038	e8 00 00 00 00	 call	 ??$_Destroy_in_place@PAU?$_Tree_node@U?$pair@$$CBKPAVCSpeedTreeWrapper@@@std@@PAX@std@@@std@@YAXAAPAU?$_Tree_node@U?$pair@$$CBKPAVCSpeedTreeWrapper@@@std@@PAX@0@@Z ; std::_Destroy_in_place<std::_Tree_node<std::pair<unsigned long const ,CSpeedTreeWrapper *>,void *> *>
  0003d	59		 pop	 ecx

; 822  :             _Alnode_traits::destroy(this->_Al, _STD addressof(this->_Ptr->_Myval));

  0003e	8b 45 fc	 mov	 eax, DWORD PTR _this$[ebp]
  00041	8b 40 04	 mov	 eax, DWORD PTR [eax+4]
  00044	83 c0 10	 add	 eax, 16			; 00000010H
  00047	89 45 f8	 mov	 DWORD PTR __Val$[ebp], eax
; File C:\Program Files (x86)\Microsoft Visual Studio\2019\Community\VC\Tools\MSVC\14.28.29333\include\xstddef

; 275  :     return __builtin_addressof(_Val);

  0004a	8b 45 f8	 mov	 eax, DWORD PTR __Val$[ebp]
  0004d	89 45 f4	 mov	 DWORD PTR $T1[ebp], eax
$LN9@Tree_temp_:
  00050	8b 4d fc	 mov	 ecx, DWORD PTR _this$[ebp]
  00053	e8 00 00 00 00	 call	 ??1?$_Alloc_construct_ptr@V?$allocator@U?$_Tree_node@U?$pair@$$CBKPAVCSpeedTreeWrapper@@@std@@PAX@std@@@std@@@std@@QAE@XZ ; std::_Alloc_construct_ptr<std::allocator<std::_Tree_node<std::pair<unsigned long const ,CSpeedTreeWrapper *>,void *> > >::~_Alloc_construct_ptr<std::allocator<std::_Tree_node<std::pair<unsigned long const ,CSpeedTreeWrapper *>,void *> > >
; File C:\Program Files (x86)\Microsoft Visual Studio\2019\Community\VC\Tools\MSVC\14.28.29333\include\xtree

; 824  :     }

  00058	c9		 leave
  00059	c3		 ret	 0
??1?$_Tree_temp_node@V?$allocator@U?$_Tree_node@U?$pair@$$CBKPAVCSpeedTreeWrapper@@@std@@PAX@std@@@std@@@std@@QAE@XZ ENDP ; std::_Tree_temp_node<std::allocator<std::_Tree_node<std::pair<unsigned long const ,CSpeedTreeWrapper *>,void *> > >::~_Tree_temp_node<std::allocator<std::_Tree_node<std::pair<unsigned long const ,CSpeedTreeWrapper *>,void *> > >
_TEXT	ENDS
; Function compile flags: /Odspy
; File C:\Program Files (x86)\Microsoft Visual Studio\2019\Community\VC\Tools\MSVC\14.28.29333\include\xmemory
;	COMDAT ??1?$_Alloc_construct_ptr@V?$allocator@U?$_Tree_node@U?$pair@$$CBKPAVCSpeedTreeWrapper@@@std@@PAX@std@@@std@@@std@@QAE@XZ
_TEXT	SEGMENT
_this$ = -12						; size = 4
__Ptr$ = -8						; size = 4
_this$ = -4						; size = 4
??1?$_Alloc_construct_ptr@V?$allocator@U?$_Tree_node@U?$pair@$$CBKPAVCSpeedTreeWrapper@@@std@@PAX@std@@@std@@@std@@QAE@XZ PROC ; std::_Alloc_construct_ptr<std::allocator<std::_Tree_node<std::pair<unsigned long const ,CSpeedTreeWrapper *>,void *> > >::~_Alloc_construct_ptr<std::allocator<std::_Tree_node<std::pair<unsigned long const ,CSpeedTreeWrapper *>,void *> > >, COMDAT
; _this$ = ecx

; 1056 :     ~_Alloc_construct_ptr() { // if this instance is engaged, deallocate storage

  00000	55		 push	 ebp
  00001	8b ec		 mov	 ebp, esp
  00003	83 ec 0c	 sub	 esp, 12			; 0000000cH
  00006	89 4d fc	 mov	 DWORD PTR _this$[ebp], ecx

; 1057 :         if (_Ptr) {

  00009	8b 45 fc	 mov	 eax, DWORD PTR _this$[ebp]
  0000c	83 78 04 00	 cmp	 DWORD PTR [eax+4], 0
  00010	74 22		 je	 SHORT $LN3@Alloc_cons

; 1058 :             _Al.deallocate(_Ptr, 1);

  00012	8b 45 fc	 mov	 eax, DWORD PTR _this$[ebp]
  00015	8b 40 04	 mov	 eax, DWORD PTR [eax+4]
  00018	89 45 f8	 mov	 DWORD PTR __Ptr$[ebp], eax
  0001b	8b 45 fc	 mov	 eax, DWORD PTR _this$[ebp]
  0001e	8b 00		 mov	 eax, DWORD PTR [eax]
  00020	89 45 f4	 mov	 DWORD PTR _this$[ebp], eax

; 810  :         _Deallocate<_New_alignof<_Ty>>(_Ptr, sizeof(_Ty) * _Count);

  00023	33 c0		 xor	 eax, eax
  00025	40		 inc	 eax
  00026	6b c0 18	 imul	 eax, eax, 24
  00029	50		 push	 eax
  0002a	ff 75 f8	 push	 DWORD PTR __Ptr$[ebp]
  0002d	e8 00 00 00 00	 call	 ??$_Deallocate@$07$0A@@std@@YAXPAXI@Z ; std::_Deallocate<8,0>
  00032	59		 pop	 ecx
  00033	59		 pop	 ecx
$LN3@Alloc_cons:

; 1059 :         }
; 1060 :     }

  00034	c9		 leave
  00035	c3		 ret	 0
??1?$_Alloc_construct_ptr@V?$allocator@U?$_Tree_node@U?$pair@$$CBKPAVCSpeedTreeWrapper@@@std@@PAX@std@@@std@@@std@@QAE@XZ ENDP ; std::_Alloc_construct_ptr<std::allocator<std::_Tree_node<std::pair<unsigned long const ,CSpeedTreeWrapper *>,void *> > >::~_Alloc_construct_ptr<std::allocator<std::_Tree_node<std::pair<unsigned long const ,CSpeedTreeWrapper *>,void *> > >
_TEXT	ENDS
; Function compile flags: /Odspy
; File C:\Program Files (x86)\Microsoft Visual Studio\2019\Community\VC\Tools\MSVC\14.28.29333\include\xmemory
;	COMDAT ?_Allocate@?$_Alloc_construct_ptr@V?$allocator@U?$_Tree_node@U?$pair@$$CBKPAVCSpeedTreeWrapper@@@std@@PAX@std@@@std@@@std@@QAEXXZ
_TEXT	SEGMENT
__Max_possible$1 = -24					; size = 4
_this$ = -20						; size = 4
$T2 = -16						; size = 4
$T3 = -12						; size = 4
_this$ = -8						; size = 4
__Overflow_is_possible$4 = -1				; size = 1
?_Allocate@?$_Alloc_construct_ptr@V?$allocator@U?$_Tree_node@U?$pair@$$CBKPAVCSpeedTreeWrapper@@@std@@PAX@std@@@std@@@std@@QAEXXZ PROC ; std::_Alloc_construct_ptr<std::allocator<std::_Tree_node<std::pair<unsigned long const ,CSpeedTreeWrapper *>,void *> > >::_Allocate, COMDAT
; _this$ = ecx

; 1051 :     void _Allocate() { // disengage *this, then allocate a new memory block

  00000	55		 push	 ebp
  00001	8b ec		 mov	 ebp, esp
  00003	83 ec 18	 sub	 esp, 24			; 00000018H
  00006	89 4d f8	 mov	 DWORD PTR _this$[ebp], ecx

; 1052 :         _Ptr = nullptr; // if allocate throws, prevents double-free

  00009	8b 45 f8	 mov	 eax, DWORD PTR _this$[ebp]
  0000c	83 60 04 00	 and	 DWORD PTR [eax+4], 0

; 1053 :         _Ptr = _Al.allocate(1);

  00010	8b 45 f8	 mov	 eax, DWORD PTR _this$[ebp]
  00013	8b 00		 mov	 eax, DWORD PTR [eax]
  00015	89 45 ec	 mov	 DWORD PTR _this$[ebp], eax

; 56   :     constexpr bool _Overflow_is_possible = _Ty_size > 1;

  00018	c6 45 ff 01	 mov	 BYTE PTR __Overflow_is_possible$4[ebp], 1

; 57   : 
; 58   :     if _CONSTEXPR_IF (_Overflow_is_possible) {
; 59   :         constexpr size_t _Max_possible = static_cast<size_t>(-1) / _Ty_size;

  0001c	c7 45 e8 aa aa
	aa 0a		 mov	 DWORD PTR __Max_possible$1[ebp], 178956970 ; 0aaaaaaaH

; 60   :         if (_Count > _Max_possible) {

  00023	33 c0		 xor	 eax, eax
  00025	40		 inc	 eax
  00026	3d aa aa aa 0a	 cmp	 eax, 178956970		; 0aaaaaaaH
  0002b	76 05		 jbe	 SHORT $LN6@Allocate

; 61   :             _Throw_bad_array_new_length(); // multiply overflow

  0002d	e8 00 00 00 00	 call	 ?_Throw_bad_array_new_length@std@@YAXXZ ; std::_Throw_bad_array_new_length
$LN6@Allocate:

; 62   :         }
; 63   :     }
; 64   : 
; 65   :     return _Count * _Ty_size;

  00032	33 c0		 xor	 eax, eax
  00034	40		 inc	 eax
  00035	6b c0 18	 imul	 eax, eax, 24
  00038	89 45 f4	 mov	 DWORD PTR $T3[ebp], eax

; 814  :         return static_cast<_Ty*>(_Allocate<_New_alignof<_Ty>>(_Get_size_of_n<sizeof(_Ty)>(_Count)));

  0003b	ff 75 f4	 push	 DWORD PTR $T3[ebp]
  0003e	e8 00 00 00 00	 call	 ??$_Allocate@$07U_Default_allocate_traits@std@@$0A@@std@@YAPAXI@Z ; std::_Allocate<8,std::_Default_allocate_traits,0>
  00043	59		 pop	 ecx
  00044	89 45 f0	 mov	 DWORD PTR $T2[ebp], eax

; 1053 :         _Ptr = _Al.allocate(1);

  00047	8b 45 f8	 mov	 eax, DWORD PTR _this$[ebp]
  0004a	8b 4d f0	 mov	 ecx, DWORD PTR $T2[ebp]
  0004d	89 48 04	 mov	 DWORD PTR [eax+4], ecx
$LN9@Allocate:

; 1054 :     }

  00050	c9		 leave
  00051	c3		 ret	 0
?_Allocate@?$_Alloc_construct_ptr@V?$allocator@U?$_Tree_node@U?$pair@$$CBKPAVCSpeedTreeWrapper@@@std@@PAX@std@@@std@@@std@@QAEXXZ ENDP ; std::_Alloc_construct_ptr<std::allocator<std::_Tree_node<std::pair<unsigned long const ,CSpeedTreeWrapper *>,void *> > >::_Allocate
_TEXT	ENDS
; Function compile flags: /Odspy
; File C:\Program Files (x86)\Microsoft Visual Studio\2019\Community\VC\Tools\MSVC\14.28.29333\include\xmemory
;	COMDAT ??$_Allocate_manually_vector_aligned@U_Default_allocate_traits@std@@@std@@YAPAXI@Z
_TEXT	SEGMENT
__Ptr$ = -12						; size = 4
__Block_size$ = -8					; size = 4
__Ptr_container$ = -4					; size = 4
__Bytes$ = 8						; size = 4
??$_Allocate_manually_vector_aligned@U_Default_allocate_traits@std@@@std@@YAPAXI@Z PROC ; std::_Allocate_manually_vector_aligned<std::_Default_allocate_traits>, COMDAT

; 113  : __declspec(allocator) void* _Allocate_manually_vector_aligned(const size_t _Bytes) {

  00000	55		 push	 ebp
  00001	8b ec		 mov	 ebp, esp
  00003	83 ec 0c	 sub	 esp, 12			; 0000000cH

; 114  :     // allocate _Bytes manually aligned to at least _Big_allocation_alignment
; 115  :     const size_t _Block_size = _Non_user_size + _Bytes;

  00006	8b 45 08	 mov	 eax, DWORD PTR __Bytes$[ebp]
  00009	83 c0 23	 add	 eax, 35			; 00000023H
  0000c	89 45 f8	 mov	 DWORD PTR __Block_size$[ebp], eax

; 116  :     if (_Block_size <= _Bytes) {

  0000f	8b 45 f8	 mov	 eax, DWORD PTR __Block_size$[ebp]
  00012	3b 45 08	 cmp	 eax, DWORD PTR __Bytes$[ebp]
  00015	77 05		 ja	 SHORT $LN12@Allocate_m

; 117  :         _Throw_bad_array_new_length(); // add overflow

  00017	e8 00 00 00 00	 call	 ?_Throw_bad_array_new_length@std@@YAXXZ ; std::_Throw_bad_array_new_length
$LN12@Allocate_m:

; 77   :         return ::operator new(_Bytes);

  0001c	ff 75 f8	 push	 DWORD PTR __Block_size$[ebp]
  0001f	e8 00 00 00 00	 call	 ??2@YAPAXI@Z		; operator new
  00024	59		 pop	 ecx

; 118  :     }
; 119  : 
; 120  :     const uintptr_t _Ptr_container = reinterpret_cast<uintptr_t>(_Traits::_Allocate(_Block_size));

  00025	89 45 fc	 mov	 DWORD PTR __Ptr_container$[ebp], eax
$LN4@Allocate_m:

; 121  :     _STL_VERIFY(_Ptr_container != 0, "invalid argument"); // validate even in release since we're doing p[-1]

  00028	83 7d fc 00	 cmp	 DWORD PTR __Ptr_container$[ebp], 0
  0002c	74 02		 je	 SHORT $LN7@Allocate_m
  0002e	eb 09		 jmp	 SHORT $LN2@Allocate_m
$LN7@Allocate_m:
  00030	e8 00 00 00 00	 call	 __invalid_parameter_noinfo_noreturn
  00035	33 c0		 xor	 eax, eax
  00037	75 f7		 jne	 SHORT $LN7@Allocate_m
$LN2@Allocate_m:
  00039	33 c0		 xor	 eax, eax
  0003b	75 eb		 jne	 SHORT $LN4@Allocate_m

; 122  :     void* const _Ptr = reinterpret_cast<void*>((_Ptr_container + _Non_user_size) & ~(_Big_allocation_alignment - 1));

  0003d	8b 45 fc	 mov	 eax, DWORD PTR __Ptr_container$[ebp]
  00040	83 c0 23	 add	 eax, 35			; 00000023H
  00043	83 e0 e0	 and	 eax, -32		; ffffffe0H
  00046	89 45 f4	 mov	 DWORD PTR __Ptr$[ebp], eax

; 123  :     static_cast<uintptr_t*>(_Ptr)[-1] = _Ptr_container;

  00049	6a 04		 push	 4
  0004b	58		 pop	 eax
  0004c	6b c0 ff	 imul	 eax, eax, -1
  0004f	8b 4d f4	 mov	 ecx, DWORD PTR __Ptr$[ebp]
  00052	8b 55 fc	 mov	 edx, DWORD PTR __Ptr_container$[ebp]
  00055	89 14 01	 mov	 DWORD PTR [ecx+eax], edx

; 124  : 
; 125  : #ifdef _DEBUG
; 126  :     static_cast<uintptr_t*>(_Ptr)[-2] = _Big_allocation_sentinel;
; 127  : #endif // _DEBUG
; 128  :     return _Ptr;

  00058	8b 45 f4	 mov	 eax, DWORD PTR __Ptr$[ebp]
$LN11@Allocate_m:

; 129  : }

  0005b	c9		 leave
  0005c	c3		 ret	 0
??$_Allocate_manually_vector_aligned@U_Default_allocate_traits@std@@@std@@YAPAXI@Z ENDP ; std::_Allocate_manually_vector_aligned<std::_Default_allocate_traits>
_TEXT	ENDS
; Function compile flags: /Odspy
; File C:\Program Files (x86)\Microsoft Visual Studio\2019\Community\VC\Tools\MSVC\14.28.29333\include\xmemory
; File C:\Program Files (x86)\Microsoft Visual Studio\2019\Community\VC\Tools\MSVC\14.28.29333\include\xstddef
; File C:\Program Files (x86)\Microsoft Visual Studio\2019\Community\VC\Tools\MSVC\14.28.29333\include\vcruntime_new.h
; File C:\Program Files (x86)\Microsoft Visual Studio\2019\Community\VC\Tools\MSVC\14.28.29333\include\type_traits
; File C:\Program Files (x86)\Microsoft Visual Studio\2019\Community\VC\Tools\MSVC\14.28.29333\include\xmemory
;	COMDAT ??$_Construct_in_place@PAU?$_Tree_node@U?$pair@$$CBKPAVCSpeedTreeWrapper@@@std@@PAX@std@@ABQAU12@@std@@YAXAAPAU?$_Tree_node@U?$pair@$$CBKPAVCSpeedTreeWrapper@@@std@@PAX@0@ABQAU10@@Z
_TEXT	SEGMENT
$T1 = -12						; size = 4
$T2 = -8						; size = 4
$T3 = -4						; size = 4
__Obj$ = 8						; size = 4
_<_Args_0>$ = 12					; size = 4
??$_Construct_in_place@PAU?$_Tree_node@U?$pair@$$CBKPAVCSpeedTreeWrapper@@@std@@PAX@std@@ABQAU12@@std@@YAXAAPAU?$_Tree_node@U?$pair@$$CBKPAVCSpeedTreeWrapper@@@std@@PAX@0@ABQAU10@@Z PROC ; std::_Construct_in_place<std::_Tree_node<std::pair<unsigned long const ,CSpeedTreeWrapper *>,void *> *,std::_Tree_node<std::pair<unsigned long const ,CSpeedTreeWrapper *>,void *> * const &>, COMDAT

; 228  : void _Construct_in_place(_Ty& _Obj, _Types&&... _Args) noexcept(is_nothrow_constructible_v<_Ty, _Types...>) {

  00000	55		 push	 ebp
  00001	8b ec		 mov	 ebp, esp
  00003	83 ec 0c	 sub	 esp, 12			; 0000000cH
; File C:\Program Files (x86)\Microsoft Visual Studio\2019\Community\VC\Tools\MSVC\14.28.29333\include\xstddef

; 275  :     return __builtin_addressof(_Val);

  00006	8b 45 08	 mov	 eax, DWORD PTR __Obj$[ebp]
  00009	89 45 fc	 mov	 DWORD PTR $T3[ebp], eax
; File C:\Program Files (x86)\Microsoft Visual Studio\2019\Community\VC\Tools\MSVC\14.28.29333\include\vcruntime_new.h

; 169  :         return _Where;

  0000c	8b 45 fc	 mov	 eax, DWORD PTR $T3[ebp]
  0000f	89 45 f8	 mov	 DWORD PTR $T2[ebp], eax
; File C:\Program Files (x86)\Microsoft Visual Studio\2019\Community\VC\Tools\MSVC\14.28.29333\include\type_traits

; 1443 :     return static_cast<_Ty&&>(_Arg);

  00012	8b 45 0c	 mov	 eax, DWORD PTR _<_Args_0>$[ebp]
  00015	89 45 f4	 mov	 DWORD PTR $T1[ebp], eax
; File C:\Program Files (x86)\Microsoft Visual Studio\2019\Community\VC\Tools\MSVC\14.28.29333\include\xmemory

; 229  :     ::new (const_cast<void*>(static_cast<const volatile void*>(_STD addressof(_Obj))))

  00018	8b 45 f8	 mov	 eax, DWORD PTR $T2[ebp]
  0001b	8b 4d f4	 mov	 ecx, DWORD PTR $T1[ebp]
  0001e	8b 09		 mov	 ecx, DWORD PTR [ecx]
  00020	89 08		 mov	 DWORD PTR [eax], ecx

; 230  :         _Ty(_STD forward<_Types>(_Args)...);
; 231  : }

  00022	c9		 leave
  00023	c3		 ret	 0
??$_Construct_in_place@PAU?$_Tree_node@U?$pair@$$CBKPAVCSpeedTreeWrapper@@@std@@PAX@std@@ABQAU12@@std@@YAXAAPAU?$_Tree_node@U?$pair@$$CBKPAVCSpeedTreeWrapper@@@std@@PAX@0@ABQAU10@@Z ENDP ; std::_Construct_in_place<std::_Tree_node<std::pair<unsigned long const ,CSpeedTreeWrapper *>,void *> *,std::_Tree_node<std::pair<unsigned long const ,CSpeedTreeWrapper *>,void *> * const &>
_TEXT	ENDS
; Function compile flags: /Odspy
; File C:\Program Files (x86)\Microsoft Visual Studio\2019\Community\VC\Tools\MSVC\14.28.29333\include\xtree
; File C:\Program Files (x86)\Microsoft Visual Studio\2019\Community\VC\Tools\MSVC\14.28.29333\include\xmemory
; File C:\Program Files (x86)\Microsoft Visual Studio\2019\Community\VC\Tools\MSVC\14.28.29333\include\xtree
;	COMDAT ??$_Freenode0@V?$allocator@U?$_Tree_node@U?$pair@$$CBKPAVCSpeedTreeWrapper@@@std@@PAX@std@@@std@@@?$_Tree_node@U?$pair@$$CBKPAVCSpeedTreeWrapper@@@std@@PAX@std@@SAXAAV?$allocator@U?$_Tree_node@U?$pair@$$CBKPAVCSpeedTreeWrapper@@@std@@PAX@std@@@1@PAU01@@Z
_TEXT	SEGMENT
__Al$ = 8						; size = 4
__Ptr$ = 12						; size = 4
??$_Freenode0@V?$allocator@U?$_Tree_node@U?$pair@$$CBKPAVCSpeedTreeWrapper@@@std@@PAX@std@@@std@@@?$_Tree_node@U?$pair@$$CBKPAVCSpeedTreeWrapper@@@std@@PAX@std@@SAXAAV?$allocator@U?$_Tree_node@U?$pair@$$CBKPAVCSpeedTreeWrapper@@@std@@PAX@std@@@1@PAU01@@Z PROC ; std::_Tree_node<std::pair<unsigned long const ,CSpeedTreeWrapper *>,void *>::_Freenode0<std::allocator<std::_Tree_node<std::pair<unsigned long const ,CSpeedTreeWrapper *>,void *> > >, COMDAT

; 368  :     static void _Freenode0(_Alloc& _Al, _Nodeptr _Ptr) noexcept {

  00000	55		 push	 ebp
  00001	8b ec		 mov	 ebp, esp

; 369  :         static_assert(is_same_v<typename _Alloc::value_type, _Tree_node>, "Bad _Freenode0 call");
; 370  :         _Destroy_in_place(_Ptr->_Left);

  00003	ff 75 0c	 push	 DWORD PTR __Ptr$[ebp]
  00006	e8 00 00 00 00	 call	 ??$_Destroy_in_place@PAU?$_Tree_node@U?$pair@$$CBKPAVCSpeedTreeWrapper@@@std@@PAX@std@@@std@@YAXAAPAU?$_Tree_node@U?$pair@$$CBKPAVCSpeedTreeWrapper@@@std@@PAX@0@@Z ; std::_Destroy_in_place<std::_Tree_node<std::pair<unsigned long const ,CSpeedTreeWrapper *>,void *> *>
  0000b	59		 pop	 ecx

; 371  :         _Destroy_in_place(_Ptr->_Parent);

  0000c	8b 45 0c	 mov	 eax, DWORD PTR __Ptr$[ebp]
  0000f	83 c0 04	 add	 eax, 4
  00012	50		 push	 eax
  00013	e8 00 00 00 00	 call	 ??$_Destroy_in_place@PAU?$_Tree_node@U?$pair@$$CBKPAVCSpeedTreeWrapper@@@std@@PAX@std@@@std@@YAXAAPAU?$_Tree_node@U?$pair@$$CBKPAVCSpeedTreeWrapper@@@std@@PAX@0@@Z ; std::_Destroy_in_place<std::_Tree_node<std::pair<unsigned long const ,CSpeedTreeWrapper *>,void *> *>
  00018	59		 pop	 ecx

; 372  :         _Destroy_in_place(_Ptr->_Right);

  00019	8b 45 0c	 mov	 eax, DWORD PTR __Ptr$[ebp]
  0001c	83 c0 08	 add	 eax, 8
  0001f	50		 push	 eax
  00020	e8 00 00 00 00	 call	 ??$_Destroy_in_place@PAU?$_Tree_node@U?$pair@$$CBKPAVCSpeedTreeWrapper@@@std@@PAX@std@@@std@@YAXAAPAU?$_Tree_node@U?$pair@$$CBKPAVCSpeedTreeWrapper@@@std@@PAX@0@@Z ; std::_Destroy_in_place<std::_Tree_node<std::pair<unsigned long const ,CSpeedTreeWrapper *>,void *> *>
  00025	59		 pop	 ecx
; File C:\Program Files (x86)\Microsoft Visual Studio\2019\Community\VC\Tools\MSVC\14.28.29333\include\xmemory

; 696  :         _Deallocate<_New_alignof<value_type>>(_Ptr, sizeof(value_type) * _Count);

  00026	33 c0		 xor	 eax, eax
  00028	40		 inc	 eax
  00029	6b c0 18	 imul	 eax, eax, 24
  0002c	50		 push	 eax
  0002d	ff 75 0c	 push	 DWORD PTR __Ptr$[ebp]
  00030	e8 00 00 00 00	 call	 ??$_Deallocate@$07$0A@@std@@YAXPAXI@Z ; std::_Deallocate<8,0>
  00035	59		 pop	 ecx
  00036	59		 pop	 ecx
; File C:\Program Files (x86)\Microsoft Visual Studio\2019\Community\VC\Tools\MSVC\14.28.29333\include\xtree

; 374  :     }

  00037	5d		 pop	 ebp
  00038	c3		 ret	 0
??$_Freenode0@V?$allocator@U?$_Tree_node@U?$pair@$$CBKPAVCSpeedTreeWrapper@@@std@@PAX@std@@@std@@@?$_Tree_node@U?$pair@$$CBKPAVCSpeedTreeWrapper@@@std@@PAX@std@@SAXAAV?$allocator@U?$_Tree_node@U?$pair@$$CBKPAVCSpeedTreeWrapper@@@std@@PAX@std@@@1@PAU01@@Z ENDP ; std::_Tree_node<std::pair<unsigned long const ,CSpeedTreeWrapper *>,void *>::_Freenode0<std::allocator<std::_Tree_node<std::pair<unsigned long const ,CSpeedTreeWrapper *>,void *> > >
_TEXT	ENDS
; Function compile flags: /Odspy
; File C:\Program Files (x86)\Microsoft Visual Studio\2019\Community\VC\Tools\MSVC\14.28.29333\include\xtree
; File C:\Program Files (x86)\Microsoft Visual Studio\2019\Community\VC\Tools\MSVC\14.28.29333\include\xstddef
; File C:\Program Files (x86)\Microsoft Visual Studio\2019\Community\VC\Tools\MSVC\14.28.29333\include\xtree
; File C:\Program Files (x86)\Microsoft Visual Studio\2019\Community\VC\Tools\MSVC\14.28.29333\include\xmemory
; File C:\Program Files (x86)\Microsoft Visual Studio\2019\Community\VC\Tools\MSVC\14.28.29333\include\xtree
; File C:\Program Files (x86)\Microsoft Visual Studio\2019\Community\VC\Tools\MSVC\14.28.29333\include\xstddef
; File C:\Program Files (x86)\Microsoft Visual Studio\2019\Community\VC\Tools\MSVC\14.28.29333\include\xtree
;	COMDAT ??$_Find_lower_bound@K@?$_Tree@V?$_Tmap_traits@KPAVCSpeedTreeWrapper@@U?$less@K@std@@V?$allocator@U?$pair@$$CBKPAVCSpeedTreeWrapper@@@std@@@3@$0A@@std@@@std@@IBE?AU?$_Tree_find_result@PAU?$_Tree_node@U?$pair@$$CBKPAVCSpeedTreeWrapper@@@std@@PAX@std@@@1@ABK@Z
_TEXT	SEGMENT
__Result$ = -40						; size = 12
$T1 = -28						; size = 4
$T2 = -24						; size = 4
$T3 = -20						; size = 4
tv64 = -16						; size = 4
_this$ = -12						; size = 4
__Scary$ = -8						; size = 4
__Trynode$ = -4						; size = 4
___$ReturnUdt$ = 8					; size = 4
__Keyval$ = 12						; size = 4
??$_Find_lower_bound@K@?$_Tree@V?$_Tmap_traits@KPAVCSpeedTreeWrapper@@U?$less@K@std@@V?$allocator@U?$pair@$$CBKPAVCSpeedTreeWrapper@@@std@@@3@$0A@@std@@@std@@IBE?AU?$_Tree_find_result@PAU?$_Tree_node@U?$pair@$$CBKPAVCSpeedTreeWrapper@@@std@@PAX@std@@@1@ABK@Z PROC ; std::_Tree<std::_Tmap_traits<unsigned long,CSpeedTreeWrapper *,std::less<unsigned long>,std::allocator<std::pair<unsigned long const ,CSpeedTreeWrapper *> >,0> >::_Find_lower_bound<unsigned long>, COMDAT
; _this$ = ecx

; 1699 :     _Tree_find_result<_Nodeptr> _Find_lower_bound(const _Keyty& _Keyval) const {

  00000	55		 push	 ebp
  00001	8b ec		 mov	 ebp, esp
  00003	83 ec 28	 sub	 esp, 40			; 00000028H
  00006	56		 push	 esi
  00007	57		 push	 edi
  00008	89 4d f4	 mov	 DWORD PTR _this$[ebp], ecx

; 2051 :         return _STD addressof(_Mypair._Myval2._Myval2);

  0000b	8b 45 f4	 mov	 eax, DWORD PTR _this$[ebp]
; File C:\Program Files (x86)\Microsoft Visual Studio\2019\Community\VC\Tools\MSVC\14.28.29333\include\xstddef

; 275  :     return __builtin_addressof(_Val);

  0000e	89 45 ec	 mov	 DWORD PTR $T3[ebp], eax
; File C:\Program Files (x86)\Microsoft Visual Studio\2019\Community\VC\Tools\MSVC\14.28.29333\include\xtree

; 2051 :         return _STD addressof(_Mypair._Myval2._Myval2);

  00011	8b 45 ec	 mov	 eax, DWORD PTR $T3[ebp]
  00014	89 45 f8	 mov	 DWORD PTR __Scary$[ebp], eax

; 1700 :         const auto _Scary = _Get_scary();
; 1701 :         _Tree_find_result<_Nodeptr> _Result{{_Scary->_Myhead->_Parent, _Tree_child::_Right}, _Scary->_Myhead};

  00017	8b 45 f8	 mov	 eax, DWORD PTR __Scary$[ebp]
  0001a	8b 00		 mov	 eax, DWORD PTR [eax]
  0001c	8b 40 04	 mov	 eax, DWORD PTR [eax+4]
  0001f	89 45 d8	 mov	 DWORD PTR __Result$[ebp], eax
  00022	83 65 dc 00	 and	 DWORD PTR __Result$[ebp+4], 0
  00026	8b 45 f8	 mov	 eax, DWORD PTR __Scary$[ebp]
  00029	8b 00		 mov	 eax, DWORD PTR [eax]
  0002b	89 45 e0	 mov	 DWORD PTR __Result$[ebp+8], eax

; 1702 :         _Nodeptr _Trynode = _Result._Location._Parent;

  0002e	8b 45 d8	 mov	 eax, DWORD PTR __Result$[ebp]
  00031	89 45 fc	 mov	 DWORD PTR __Trynode$[ebp], eax
$LN2@Find_lower:

; 1703 :         while (!_Trynode->_Isnil) {

  00034	8b 45 fc	 mov	 eax, DWORD PTR __Trynode$[ebp]
  00037	0f be 40 0d	 movsx	 eax, BYTE PTR [eax+13]
  0003b	85 c0		 test	 eax, eax
  0003d	75 5a		 jne	 SHORT $LN3@Find_lower

; 1704 :             _Result._Location._Parent = _Trynode;

  0003f	8b 45 fc	 mov	 eax, DWORD PTR __Trynode$[ebp]
  00042	89 45 d8	 mov	 DWORD PTR __Result$[ebp], eax

; 2035 :         return _Mypair._Get_first();

  00045	8b 45 f4	 mov	 eax, DWORD PTR _this$[ebp]
; File C:\Program Files (x86)\Microsoft Visual Studio\2019\Community\VC\Tools\MSVC\14.28.29333\include\xmemory

; 1351 :         return *this;

  00048	89 45 e8	 mov	 DWORD PTR $T2[ebp], eax
; File C:\Program Files (x86)\Microsoft Visual Studio\2019\Community\VC\Tools\MSVC\14.28.29333\include\xtree

; 2035 :         return _Mypair._Get_first();

  0004b	8b 45 e8	 mov	 eax, DWORD PTR $T2[ebp]
  0004e	89 45 e4	 mov	 DWORD PTR $T1[ebp], eax
; File C:\Program Files (x86)\Microsoft Visual Studio\2019\Community\VC\Tools\MSVC\14.28.29333\include\xstddef

; 127  :         return _Left < _Right;

  00051	8b 45 fc	 mov	 eax, DWORD PTR __Trynode$[ebp]
  00054	8b 4d 0c	 mov	 ecx, DWORD PTR __Keyval$[ebp]
  00057	8b 40 10	 mov	 eax, DWORD PTR [eax+16]
  0005a	3b 01		 cmp	 eax, DWORD PTR [ecx]
  0005c	73 09		 jae	 SHORT $LN23@Find_lower
  0005e	c7 45 f0 01 00
	00 00		 mov	 DWORD PTR tv64[ebp], 1
  00065	eb 04		 jmp	 SHORT $LN21@Find_lower
$LN23@Find_lower:
  00067	83 65 f0 00	 and	 DWORD PTR tv64[ebp], 0
$LN21@Find_lower:
; File C:\Program Files (x86)\Microsoft Visual Studio\2019\Community\VC\Tools\MSVC\14.28.29333\include\xtree

; 1705 :             if (_DEBUG_LT_PRED(_Getcomp(), _Traits::_Kfn(_Trynode->_Myval), _Keyval)) {

  0006b	0f b6 45 f0	 movzx	 eax, BYTE PTR tv64[ebp]
  0006f	85 c0		 test	 eax, eax
  00071	74 0f		 je	 SHORT $LN4@Find_lower

; 1706 :                 _Result._Location._Child = _Tree_child::_Right;

  00073	83 65 dc 00	 and	 DWORD PTR __Result$[ebp+4], 0

; 1707 :                 _Trynode                 = _Trynode->_Right;

  00077	8b 45 fc	 mov	 eax, DWORD PTR __Trynode$[ebp]
  0007a	8b 40 08	 mov	 eax, DWORD PTR [eax+8]
  0007d	89 45 fc	 mov	 DWORD PTR __Trynode$[ebp], eax

; 1708 :             } else {

  00080	eb 15		 jmp	 SHORT $LN5@Find_lower
$LN4@Find_lower:

; 1709 :                 _Result._Location._Child = _Tree_child::_Left;

  00082	c7 45 dc 01 00
	00 00		 mov	 DWORD PTR __Result$[ebp+4], 1

; 1710 :                 _Result._Bound           = _Trynode;

  00089	8b 45 fc	 mov	 eax, DWORD PTR __Trynode$[ebp]
  0008c	89 45 e0	 mov	 DWORD PTR __Result$[ebp+8], eax

; 1711 :                 _Trynode                 = _Trynode->_Left;

  0008f	8b 45 fc	 mov	 eax, DWORD PTR __Trynode$[ebp]
  00092	8b 00		 mov	 eax, DWORD PTR [eax]
  00094	89 45 fc	 mov	 DWORD PTR __Trynode$[ebp], eax
$LN5@Find_lower:

; 1712 :             }
; 1713 :         }

  00097	eb 9b		 jmp	 SHORT $LN2@Find_lower
$LN3@Find_lower:

; 1714 : 
; 1715 :         return _Result;

  00099	8d 75 d8	 lea	 esi, DWORD PTR __Result$[ebp]
  0009c	8b 7d 08	 mov	 edi, DWORD PTR ___$ReturnUdt$[ebp]
  0009f	a5		 movsd
  000a0	a5		 movsd
  000a1	a5		 movsd
  000a2	8b 45 08	 mov	 eax, DWORD PTR ___$ReturnUdt$[ebp]

; 1716 :     }

  000a5	5f		 pop	 edi
  000a6	5e		 pop	 esi
  000a7	c9		 leave
  000a8	c2 08 00	 ret	 8
??$_Find_lower_bound@K@?$_Tree@V?$_Tmap_traits@KPAVCSpeedTreeWrapper@@U?$less@K@std@@V?$allocator@U?$pair@$$CBKPAVCSpeedTreeWrapper@@@std@@@3@$0A@@std@@@std@@IBE?AU?$_Tree_find_result@PAU?$_Tree_node@U?$pair@$$CBKPAVCSpeedTreeWrapper@@@std@@PAX@std@@@1@ABK@Z ENDP ; std::_Tree<std::_Tmap_traits<unsigned long,CSpeedTreeWrapper *,std::less<unsigned long>,std::allocator<std::pair<unsigned long const ,CSpeedTreeWrapper *> >,0> >::_Find_lower_bound<unsigned long>
_TEXT	ENDS
; Function compile flags: /Odspy
; File C:\Program Files (x86)\Microsoft Visual Studio\2019\Community\VC\Tools\MSVC\14.28.29333\include\xtree
; File C:\Program Files (x86)\Microsoft Visual Studio\2019\Community\VC\Tools\MSVC\14.28.29333\include\xstddef
; File C:\Program Files (x86)\Microsoft Visual Studio\2019\Community\VC\Tools\MSVC\14.28.29333\include\xtree
; File C:\Program Files (x86)\Microsoft Visual Studio\2019\Community\VC\Tools\MSVC\14.28.29333\include\xmemory
; File C:\Program Files (x86)\Microsoft Visual Studio\2019\Community\VC\Tools\MSVC\14.28.29333\include\xtree
; File C:\Program Files (x86)\Microsoft Visual Studio\2019\Community\VC\Tools\MSVC\14.28.29333\include\xmemory
; File C:\Program Files (x86)\Microsoft Visual Studio\2019\Community\VC\Tools\MSVC\14.28.29333\include\xtree
; File C:\Program Files (x86)\Microsoft Visual Studio\2019\Community\VC\Tools\MSVC\14.28.29333\include\xstddef
; File C:\Program Files (x86)\Microsoft Visual Studio\2019\Community\VC\Tools\MSVC\14.28.29333\include\xtree
; File C:\Program Files (x86)\Microsoft Visual Studio\2019\Community\VC\Tools\MSVC\14.28.29333\include\type_traits
; File C:\Program Files (x86)\Microsoft Visual Studio\2019\Community\VC\Tools\MSVC\14.28.29333\include\utility
; File C:\Program Files (x86)\Microsoft Visual Studio\2019\Community\VC\Tools\MSVC\14.28.29333\include\type_traits
; File C:\Program Files (x86)\Microsoft Visual Studio\2019\Community\VC\Tools\MSVC\14.28.29333\include\utility
; File C:\Program Files (x86)\Microsoft Visual Studio\2019\Community\VC\Tools\MSVC\14.28.29333\include\xtree
; File C:\Program Files (x86)\Microsoft Visual Studio\2019\Community\VC\Tools\MSVC\14.28.29333\include\type_traits
; File C:\Program Files (x86)\Microsoft Visual Studio\2019\Community\VC\Tools\MSVC\14.28.29333\include\xtree
; File C:\Program Files (x86)\Microsoft Visual Studio\2019\Community\VC\Tools\MSVC\14.28.29333\include\xmemory
; File C:\Program Files (x86)\Microsoft Visual Studio\2019\Community\VC\Tools\MSVC\14.28.29333\include\xtree
; File C:\Program Files (x86)\Microsoft Visual Studio\2019\Community\VC\Tools\MSVC\14.28.29333\include\xmemory
; File C:\Program Files (x86)\Microsoft Visual Studio\2019\Community\VC\Tools\MSVC\14.28.29333\include\utility
; File C:\Program Files (x86)\Microsoft Visual Studio\2019\Community\VC\Tools\MSVC\14.28.29333\include\xmemory
; File C:\Program Files (x86)\Microsoft Visual Studio\2019\Community\VC\Tools\MSVC\14.28.29333\include\xtree
; File C:\Program Files (x86)\Microsoft Visual Studio\2019\Community\VC\Tools\MSVC\14.28.29333\include\type_traits
; File C:\Program Files (x86)\Microsoft Visual Studio\2019\Community\VC\Tools\MSVC\14.28.29333\include\utility
; File C:\Program Files (x86)\Microsoft Visual Studio\2019\Community\VC\Tools\MSVC\14.28.29333\include\type_traits
; File C:\Program Files (x86)\Microsoft Visual Studio\2019\Community\VC\Tools\MSVC\14.28.29333\include\utility
; File C:\Program Files (x86)\Microsoft Visual Studio\2019\Community\VC\Tools\MSVC\14.28.29333\include\xtree
;	COMDAT ??$_Emplace@U?$pair@$$CBKPAVCSpeedTreeWrapper@@@std@@@?$_Tree@V?$_Tmap_traits@KPAVCSpeedTreeWrapper@@U?$less@K@std@@V?$allocator@U?$pair@$$CBKPAVCSpeedTreeWrapper@@@std@@@3@$0A@@std@@@std@@IAE?AU?$pair@PAU?$_Tree_node@U?$pair@$$CBKPAVCSpeedTreeWrapper@@@std@@PAX@std@@_N@1@$$QAU?$pair@$$CBKPAVCSpeedTreeWrapper@@@1@@Z
_TEXT	SEGMENT
$T1 = -128						; size = 12
$T2 = -116						; size = 8
$T3 = -108						; size = 4
__Loc$ = -104						; size = 12
$T4 = -92						; size = 4
$T5 = -88						; size = 4
$T6 = -84						; size = 4
__Inserted$ = -80					; size = 4
$T7 = -76						; size = 4
__Old_val$8 = -72					; size = 4
$T9 = -68						; size = 4
$T10 = -64						; size = 4
$T11 = -60						; size = 4
$T12 = -56						; size = 4
$T13 = -52						; size = 4
$T14 = -48						; size = 4
$T15 = -44						; size = 4
$T16 = -40						; size = 4
$T17 = -36						; size = 4
__Scary$ = -32						; size = 4
__Val$ = -28						; size = 4
tv147 = -24						; size = 4
tv167 = -20						; size = 4
__Bound$ = -16						; size = 4
__Keyval$18 = -12					; size = 4
_this$ = -8						; size = 4
$T19 = -2						; size = 1
$T20 = -1						; size = 1
___$ReturnUdt$ = 8					; size = 4
_<_Vals_0>$ = 12					; size = 4
??$_Emplace@U?$pair@$$CBKPAVCSpeedTreeWrapper@@@std@@@?$_Tree@V?$_Tmap_traits@KPAVCSpeedTreeWrapper@@U?$less@K@std@@V?$allocator@U?$pair@$$CBKPAVCSpeedTreeWrapper@@@std@@@3@$0A@@std@@@std@@IAE?AU?$pair@PAU?$_Tree_node@U?$pair@$$CBKPAVCSpeedTreeWrapper@@@std@@PAX@std@@_N@1@$$QAU?$pair@$$CBKPAVCSpeedTreeWrapper@@@1@@Z PROC ; std::_Tree<std::_Tmap_traits<unsigned long,CSpeedTreeWrapper *,std::less<unsigned long>,std::allocator<std::pair<unsigned long const ,CSpeedTreeWrapper *> >,0> >::_Emplace<std::pair<unsigned long const ,CSpeedTreeWrapper *> >, COMDAT
; _this$ = ecx

; 1002 :     pair<_Nodeptr, bool> _Emplace(_Valtys&&... _Vals) {

  00000	55		 push	 ebp
  00001	8b ec		 mov	 ebp, esp
  00003	81 ec 80 00 00
	00		 sub	 esp, 128		; 00000080H
  00009	56		 push	 esi
  0000a	57		 push	 edi
  0000b	89 4d f8	 mov	 DWORD PTR _this$[ebp], ecx

; 2047 :         return _STD addressof(_Mypair._Myval2._Myval2);

  0000e	8b 45 f8	 mov	 eax, DWORD PTR _this$[ebp]
; File C:\Program Files (x86)\Microsoft Visual Studio\2019\Community\VC\Tools\MSVC\14.28.29333\include\xstddef

; 275  :     return __builtin_addressof(_Val);

  00011	89 45 dc	 mov	 DWORD PTR $T17[ebp], eax
; File C:\Program Files (x86)\Microsoft Visual Studio\2019\Community\VC\Tools\MSVC\14.28.29333\include\xtree

; 2047 :         return _STD addressof(_Mypair._Myval2._Myval2);

  00014	8b 45 dc	 mov	 eax, DWORD PTR $T17[ebp]
  00017	89 45 e0	 mov	 DWORD PTR __Scary$[ebp], eax
; File C:\Program Files (x86)\Microsoft Visual Studio\2019\Community\VC\Tools\MSVC\14.28.29333\include\xmemory

; 2000 :         return _Val.first;

  0001a	8b 45 0c	 mov	 eax, DWORD PTR _<_Vals_0>$[ebp]
; File C:\Program Files (x86)\Microsoft Visual Studio\2019\Community\VC\Tools\MSVC\14.28.29333\include\xtree

; 1008 :             const auto& _Keyval = _In_place_key_extractor::_Extract(_Vals...);

  0001d	89 45 f4	 mov	 DWORD PTR __Keyval$18[ebp], eax

; 1009 :             _Loc                = _Find_lower_bound(_Keyval);

  00020	ff 75 f4	 push	 DWORD PTR __Keyval$18[ebp]
  00023	8d 45 80	 lea	 eax, DWORD PTR $T1[ebp]
  00026	50		 push	 eax
  00027	8b 4d f8	 mov	 ecx, DWORD PTR _this$[ebp]
  0002a	e8 00 00 00 00	 call	 ??$_Find_lower_bound@K@?$_Tree@V?$_Tmap_traits@KPAVCSpeedTreeWrapper@@U?$less@K@std@@V?$allocator@U?$pair@$$CBKPAVCSpeedTreeWrapper@@@std@@@3@$0A@@std@@@std@@IBE?AU?$_Tree_find_result@PAU?$_Tree_node@U?$pair@$$CBKPAVCSpeedTreeWrapper@@@std@@PAX@std@@@1@ABK@Z ; std::_Tree<std::_Tmap_traits<unsigned long,CSpeedTreeWrapper *,std::less<unsigned long>,std::allocator<std::pair<unsigned long const ,CSpeedTreeWrapper *> >,0> >::_Find_lower_bound<unsigned long>
  0002f	8b f0		 mov	 esi, eax
  00031	8d 7d 98	 lea	 edi, DWORD PTR __Loc$[ebp]
  00034	a5		 movsd
  00035	a5		 movsd
  00036	a5		 movsd

; 1010 :             if (_Lower_bound_duplicate(_Loc._Bound, _Keyval)) {

  00037	8b 45 a0	 mov	 eax, DWORD PTR __Loc$[ebp+8]
  0003a	89 45 f0	 mov	 DWORD PTR __Bound$[ebp], eax

; 1695 :         return !_Bound->_Isnil && !_DEBUG_LT_PRED(_Getcomp(), _Keyval, _Traits::_Kfn(_Bound->_Myval));

  0003d	8b 45 f0	 mov	 eax, DWORD PTR __Bound$[ebp]
  00040	0f be 40 0d	 movsx	 eax, BYTE PTR [eax+13]
  00044	85 c0		 test	 eax, eax
  00046	75 37		 jne	 SHORT $LN39@Emplace

; 2035 :         return _Mypair._Get_first();

  00048	8b 45 f8	 mov	 eax, DWORD PTR _this$[ebp]
; File C:\Program Files (x86)\Microsoft Visual Studio\2019\Community\VC\Tools\MSVC\14.28.29333\include\xmemory

; 1351 :         return *this;

  0004b	89 45 d8	 mov	 DWORD PTR $T16[ebp], eax
; File C:\Program Files (x86)\Microsoft Visual Studio\2019\Community\VC\Tools\MSVC\14.28.29333\include\xtree

; 2035 :         return _Mypair._Get_first();

  0004e	8b 45 d8	 mov	 eax, DWORD PTR $T16[ebp]
  00051	89 45 94	 mov	 DWORD PTR $T3[ebp], eax
; File C:\Program Files (x86)\Microsoft Visual Studio\2019\Community\VC\Tools\MSVC\14.28.29333\include\xstddef

; 127  :         return _Left < _Right;

  00054	8b 45 f4	 mov	 eax, DWORD PTR __Keyval$18[ebp]
  00057	8b 4d f0	 mov	 ecx, DWORD PTR __Bound$[ebp]
  0005a	8b 00		 mov	 eax, DWORD PTR [eax]
  0005c	3b 41 10	 cmp	 eax, DWORD PTR [ecx+16]
  0005f	73 09		 jae	 SHORT $LN51@Emplace
  00061	c7 45 ec 01 00
	00 00		 mov	 DWORD PTR tv167[ebp], 1
  00068	eb 04		 jmp	 SHORT $LN49@Emplace
$LN51@Emplace:
  0006a	83 65 ec 00	 and	 DWORD PTR tv167[ebp], 0
$LN49@Emplace:
; File C:\Program Files (x86)\Microsoft Visual Studio\2019\Community\VC\Tools\MSVC\14.28.29333\include\xtree

; 1695 :         return !_Bound->_Isnil && !_DEBUG_LT_PRED(_Getcomp(), _Keyval, _Traits::_Kfn(_Bound->_Myval));

  0006e	0f b6 45 ec	 movzx	 eax, BYTE PTR tv167[ebp]
  00072	85 c0		 test	 eax, eax
  00074	75 09		 jne	 SHORT $LN39@Emplace
  00076	c7 45 e8 01 00
	00 00		 mov	 DWORD PTR tv147[ebp], 1
  0007d	eb 04		 jmp	 SHORT $LN37@Emplace
$LN39@Emplace:
  0007f	83 65 e8 00	 and	 DWORD PTR tv147[ebp], 0
$LN37@Emplace:

; 1010 :             if (_Lower_bound_duplicate(_Loc._Bound, _Keyval)) {

  00083	0f b6 45 e8	 movzx	 eax, BYTE PTR tv147[ebp]
  00087	85 c0		 test	 eax, eax
  00089	74 2d		 je	 SHORT $LN2@Emplace

; 1011 :                 return {_Loc._Bound, false};

  0008b	c6 45 ff 00	 mov	 BYTE PTR $T20[ebp], 0
; File C:\Program Files (x86)\Microsoft Visual Studio\2019\Community\VC\Tools\MSVC\14.28.29333\include\type_traits

; 1443 :     return static_cast<_Ty&&>(_Arg);

  0008f	8d 45 a0	 lea	 eax, DWORD PTR __Loc$[ebp+8]
  00092	89 45 d4	 mov	 DWORD PTR $T15[ebp], eax
; File C:\Program Files (x86)\Microsoft Visual Studio\2019\Community\VC\Tools\MSVC\14.28.29333\include\utility

; 190  :         : first(_STD forward<_Other1>(_Val1)), second(_STD forward<_Other2>(_Val2)) {}

  00095	8b 45 08	 mov	 eax, DWORD PTR ___$ReturnUdt$[ebp]
  00098	8b 4d d4	 mov	 ecx, DWORD PTR $T15[ebp]
  0009b	8b 09		 mov	 ecx, DWORD PTR [ecx]
  0009d	89 08		 mov	 DWORD PTR [eax], ecx
; File C:\Program Files (x86)\Microsoft Visual Studio\2019\Community\VC\Tools\MSVC\14.28.29333\include\type_traits

; 1443 :     return static_cast<_Ty&&>(_Arg);

  0009f	8d 45 ff	 lea	 eax, DWORD PTR $T20[ebp]
  000a2	89 45 d0	 mov	 DWORD PTR $T14[ebp], eax
; File C:\Program Files (x86)\Microsoft Visual Studio\2019\Community\VC\Tools\MSVC\14.28.29333\include\utility

; 190  :         : first(_STD forward<_Other1>(_Val1)), second(_STD forward<_Other2>(_Val2)) {}

  000a5	8b 45 08	 mov	 eax, DWORD PTR ___$ReturnUdt$[ebp]
  000a8	8b 4d d0	 mov	 ecx, DWORD PTR $T14[ebp]
  000ab	8a 09		 mov	 cl, BYTE PTR [ecx]
  000ad	88 48 04	 mov	 BYTE PTR [eax+4], cl
; File C:\Program Files (x86)\Microsoft Visual Studio\2019\Community\VC\Tools\MSVC\14.28.29333\include\xtree

; 1011 :                 return {_Loc._Bound, false};

  000b0	8b 45 08	 mov	 eax, DWORD PTR ___$ReturnUdt$[ebp]
  000b3	e9 9d 00 00 00	 jmp	 $LN1@Emplace
$LN2@Emplace:

; 1012 :             }
; 1013 : 
; 1014 :             _Check_grow_by_1();

  000b8	8b 4d f8	 mov	 ecx, DWORD PTR _this$[ebp]
  000bb	e8 00 00 00 00	 call	 ?_Check_grow_by_1@?$_Tree@V?$_Tmap_traits@KPAVCSpeedTreeWrapper@@U?$less@K@std@@V?$allocator@U?$pair@$$CBKPAVCSpeedTreeWrapper@@@std@@@3@$0A@@std@@@std@@IAEXXZ ; std::_Tree<std::_Tmap_traits<unsigned long,CSpeedTreeWrapper *,std::less<unsigned long>,std::allocator<std::pair<unsigned long const ,CSpeedTreeWrapper *> >,0> >::_Check_grow_by_1
; File C:\Program Files (x86)\Microsoft Visual Studio\2019\Community\VC\Tools\MSVC\14.28.29333\include\type_traits

; 1443 :     return static_cast<_Ty&&>(_Arg);

  000c0	8b 45 0c	 mov	 eax, DWORD PTR _<_Vals_0>$[ebp]
  000c3	89 45 c8	 mov	 DWORD PTR $T12[ebp], eax
; File C:\Program Files (x86)\Microsoft Visual Studio\2019\Community\VC\Tools\MSVC\14.28.29333\include\xtree

; 2039 :         return _Mypair._Myval2._Get_first();

  000c6	8b 45 f8	 mov	 eax, DWORD PTR _this$[ebp]
; File C:\Program Files (x86)\Microsoft Visual Studio\2019\Community\VC\Tools\MSVC\14.28.29333\include\xmemory

; 1347 :         return *this;

  000c9	89 45 cc	 mov	 DWORD PTR $T13[ebp], eax
; File C:\Program Files (x86)\Microsoft Visual Studio\2019\Community\VC\Tools\MSVC\14.28.29333\include\xtree

; 2039 :         return _Mypair._Myval2._Get_first();

  000cc	8b 45 cc	 mov	 eax, DWORD PTR $T13[ebp]
  000cf	89 45 c4	 mov	 DWORD PTR $T11[ebp], eax

; 1015 :             _Inserted = _Tree_temp_node<_Alnode>(_Getal(), _Scary->_Myhead, _STD forward<_Valtys>(_Vals)...)._Release();

  000d2	ff 75 c8	 push	 DWORD PTR $T12[ebp]
  000d5	8b 45 e0	 mov	 eax, DWORD PTR __Scary$[ebp]
  000d8	ff 30		 push	 DWORD PTR [eax]
  000da	ff 75 c4	 push	 DWORD PTR $T11[ebp]
  000dd	8d 4d 8c	 lea	 ecx, DWORD PTR $T2[ebp]
  000e0	e8 00 00 00 00	 call	 ??$?0U?$pair@$$CBKPAVCSpeedTreeWrapper@@@std@@@?$_Tree_temp_node@V?$allocator@U?$_Tree_node@U?$pair@$$CBKPAVCSpeedTreeWrapper@@@std@@PAX@std@@@std@@@std@@QAE@AAV?$allocator@U?$_Tree_node@U?$pair@$$CBKPAVCSpeedTreeWrapper@@@std@@PAX@std@@@1@PAU?$_Tree_node@U?$pair@$$CBKPAVCSpeedTreeWrapper@@@std@@PAX@1@$$QAU?$pair@$$CBKPAVCSpeedTreeWrapper@@@1@@Z ; std::_Tree_temp_node<std::allocator<std::_Tree_node<std::pair<unsigned long const ,CSpeedTreeWrapper *>,void *> > >::_Tree_temp_node<std::allocator<std::_Tree_node<std::pair<unsigned long const ,CSpeedTreeWrapper *>,void *> > ><std::pair<unsigned long const ,CSpeedTreeWrapper *> >
  000e5	89 45 c0	 mov	 DWORD PTR $T10[ebp], eax
; File C:\Program Files (x86)\Microsoft Visual Studio\2019\Community\VC\Tools\MSVC\14.28.29333\include\xmemory

; 1048 :         return _STD exchange(_Ptr, nullptr);

  000e8	83 65 bc 00	 and	 DWORD PTR $T9[ebp], 0
  000ec	8b 45 c0	 mov	 eax, DWORD PTR $T10[ebp]
  000ef	83 c0 04	 add	 eax, 4
  000f2	89 45 e4	 mov	 DWORD PTR __Val$[ebp], eax
; File C:\Program Files (x86)\Microsoft Visual Studio\2019\Community\VC\Tools\MSVC\14.28.29333\include\utility

; 598  :     _Ty _Old_val = static_cast<_Ty&&>(_Val);

  000f5	8b 45 e4	 mov	 eax, DWORD PTR __Val$[ebp]
  000f8	8b 00		 mov	 eax, DWORD PTR [eax]
  000fa	89 45 b8	 mov	 DWORD PTR __Old_val$8[ebp], eax

; 599  :     _Val         = static_cast<_Other&&>(_New_val);

  000fd	8b 45 e4	 mov	 eax, DWORD PTR __Val$[ebp]
  00100	8b 4d bc	 mov	 ecx, DWORD PTR $T9[ebp]
  00103	89 08		 mov	 DWORD PTR [eax], ecx

; 600  :     return _Old_val;

  00105	8b 45 b8	 mov	 eax, DWORD PTR __Old_val$8[ebp]
  00108	89 45 b4	 mov	 DWORD PTR $T7[ebp], eax
; File C:\Program Files (x86)\Microsoft Visual Studio\2019\Community\VC\Tools\MSVC\14.28.29333\include\xmemory

; 1048 :         return _STD exchange(_Ptr, nullptr);

  0010b	8b 45 b4	 mov	 eax, DWORD PTR $T7[ebp]
  0010e	89 45 b0	 mov	 DWORD PTR __Inserted$[ebp], eax
; File C:\Program Files (x86)\Microsoft Visual Studio\2019\Community\VC\Tools\MSVC\14.28.29333\include\xtree

; 1015 :             _Inserted = _Tree_temp_node<_Alnode>(_Getal(), _Scary->_Myhead, _STD forward<_Valtys>(_Vals)...)._Release();

  00111	8d 4d 8c	 lea	 ecx, DWORD PTR $T2[ebp]
  00114	e8 00 00 00 00	 call	 ??1?$_Tree_temp_node@V?$allocator@U?$_Tree_node@U?$pair@$$CBKPAVCSpeedTreeWrapper@@@std@@PAX@std@@@std@@@std@@QAE@XZ ; std::_Tree_temp_node<std::allocator<std::_Tree_node<std::pair<unsigned long const ,CSpeedTreeWrapper *>,void *> > >::~_Tree_temp_node<std::allocator<std::_Tree_node<std::pair<unsigned long const ,CSpeedTreeWrapper *>,void *> > >

; 1034 :         return {_Scary->_Insert_node(_Loc._Location, _Inserted), true};

  00119	ff 75 b0	 push	 DWORD PTR __Inserted$[ebp]
  0011c	ff 75 9c	 push	 DWORD PTR __Loc$[ebp+4]
  0011f	ff 75 98	 push	 DWORD PTR __Loc$[ebp]
  00122	8b 4d e0	 mov	 ecx, DWORD PTR __Scary$[ebp]
  00125	e8 00 00 00 00	 call	 ?_Insert_node@?$_Tree_val@U?$_Tree_simple_types@U?$pair@$$CBKPAVCSpeedTreeWrapper@@@std@@@std@@@std@@QAEPAU?$_Tree_node@U?$pair@$$CBKPAVCSpeedTreeWrapper@@@std@@PAX@2@U?$_Tree_id@PAU?$_Tree_node@U?$pair@$$CBKPAVCSpeedTreeWrapper@@@std@@PAX@std@@@2@QAU32@@Z ; std::_Tree_val<std::_Tree_simple_types<std::pair<unsigned long const ,CSpeedTreeWrapper *> > >::_Insert_node
  0012a	89 45 ac	 mov	 DWORD PTR $T6[ebp], eax
  0012d	c6 45 fe 01	 mov	 BYTE PTR $T19[ebp], 1
; File C:\Program Files (x86)\Microsoft Visual Studio\2019\Community\VC\Tools\MSVC\14.28.29333\include\type_traits

; 1443 :     return static_cast<_Ty&&>(_Arg);

  00131	8d 45 ac	 lea	 eax, DWORD PTR $T6[ebp]
  00134	89 45 a8	 mov	 DWORD PTR $T5[ebp], eax
; File C:\Program Files (x86)\Microsoft Visual Studio\2019\Community\VC\Tools\MSVC\14.28.29333\include\utility

; 190  :         : first(_STD forward<_Other1>(_Val1)), second(_STD forward<_Other2>(_Val2)) {}

  00137	8b 45 08	 mov	 eax, DWORD PTR ___$ReturnUdt$[ebp]
  0013a	8b 4d a8	 mov	 ecx, DWORD PTR $T5[ebp]
  0013d	8b 09		 mov	 ecx, DWORD PTR [ecx]
  0013f	89 08		 mov	 DWORD PTR [eax], ecx
; File C:\Program Files (x86)\Microsoft Visual Studio\2019\Community\VC\Tools\MSVC\14.28.29333\include\type_traits

; 1443 :     return static_cast<_Ty&&>(_Arg);

  00141	8d 45 fe	 lea	 eax, DWORD PTR $T19[ebp]
  00144	89 45 a4	 mov	 DWORD PTR $T4[ebp], eax
; File C:\Program Files (x86)\Microsoft Visual Studio\2019\Community\VC\Tools\MSVC\14.28.29333\include\utility

; 190  :         : first(_STD forward<_Other1>(_Val1)), second(_STD forward<_Other2>(_Val2)) {}

  00147	8b 45 08	 mov	 eax, DWORD PTR ___$ReturnUdt$[ebp]
  0014a	8b 4d a4	 mov	 ecx, DWORD PTR $T4[ebp]
  0014d	8a 09		 mov	 cl, BYTE PTR [ecx]
  0014f	88 48 04	 mov	 BYTE PTR [eax+4], cl
; File C:\Program Files (x86)\Microsoft Visual Studio\2019\Community\VC\Tools\MSVC\14.28.29333\include\xtree

; 1034 :         return {_Scary->_Insert_node(_Loc._Location, _Inserted), true};

  00152	8b 45 08	 mov	 eax, DWORD PTR ___$ReturnUdt$[ebp]
$LN1@Emplace:

; 1035 :     }

  00155	5f		 pop	 edi
  00156	5e		 pop	 esi
  00157	c9		 leave
  00158	c2 08 00	 ret	 8
??$_Emplace@U?$pair@$$CBKPAVCSpeedTreeWrapper@@@std@@@?$_Tree@V?$_Tmap_traits@KPAVCSpeedTreeWrapper@@U?$less@K@std@@V?$allocator@U?$pair@$$CBKPAVCSpeedTreeWrapper@@@std@@@3@$0A@@std@@@std@@IAE?AU?$pair@PAU?$_Tree_node@U?$pair@$$CBKPAVCSpeedTreeWrapper@@@std@@PAX@std@@_N@1@$$QAU?$pair@$$CBKPAVCSpeedTreeWrapper@@@1@@Z ENDP ; std::_Tree<std::_Tmap_traits<unsigned long,CSpeedTreeWrapper *,std::less<unsigned long>,std::allocator<std::pair<unsigned long const ,CSpeedTreeWrapper *> >,0> >::_Emplace<std::pair<unsigned long const ,CSpeedTreeWrapper *> >
_TEXT	ENDS
; Function compile flags: /Odspy
; File C:\Program Files (x86)\Microsoft Visual Studio\2019\Community\VC\Tools\MSVC\14.28.29333\include\xmemory
;	COMDAT ??$_Allocate@$07U_Default_allocate_traits@std@@$0A@@std@@YAPAXI@Z
_TEXT	SEGMENT
__Bytes$ = 8						; size = 4
??$_Allocate@$07U_Default_allocate_traits@std@@$0A@@std@@YAPAXI@Z PROC ; std::_Allocate<8,std::_Default_allocate_traits,0>, COMDAT

; 197  : __declspec(allocator) void* _Allocate(const size_t _Bytes) {

  00000	55		 push	 ebp
  00001	8b ec		 mov	 ebp, esp

; 198  :     // allocate _Bytes when !_HAS_ALIGNED_NEW || _Align <= __STDCPP_DEFAULT_NEW_ALIGNMENT__
; 199  : #if defined(_M_IX86) || defined(_M_X64)
; 200  :     if (_Bytes >= _Big_allocation_threshold) { // boost the alignment of big allocations to help autovectorization

  00003	81 7d 08 00 10
	00 00		 cmp	 DWORD PTR __Bytes$[ebp], 4096 ; 00001000H
  0000a	72 0b		 jb	 SHORT $LN2@Allocate

; 201  :         return _Allocate_manually_vector_aligned<_Traits>(_Bytes);

  0000c	ff 75 08	 push	 DWORD PTR __Bytes$[ebp]
  0000f	e8 00 00 00 00	 call	 ??$_Allocate_manually_vector_aligned@U_Default_allocate_traits@std@@@std@@YAPAXI@Z ; std::_Allocate_manually_vector_aligned<std::_Default_allocate_traits>
  00014	59		 pop	 ecx
  00015	eb 13		 jmp	 SHORT $LN1@Allocate
$LN2@Allocate:

; 202  :     }
; 203  : #endif // defined(_M_IX86) || defined(_M_X64)
; 204  : 
; 205  :     if (_Bytes != 0) {

  00017	83 7d 08 00	 cmp	 DWORD PTR __Bytes$[ebp], 0
  0001b	74 0b		 je	 SHORT $LN3@Allocate

; 77   :         return ::operator new(_Bytes);

  0001d	ff 75 08	 push	 DWORD PTR __Bytes$[ebp]
  00020	e8 00 00 00 00	 call	 ??2@YAPAXI@Z		; operator new
  00025	59		 pop	 ecx

; 206  :         return _Traits::_Allocate(_Bytes);

  00026	eb 02		 jmp	 SHORT $LN1@Allocate
$LN3@Allocate:

; 207  :     }
; 208  : 
; 209  :     return nullptr;

  00028	33 c0		 xor	 eax, eax
$LN1@Allocate:

; 210  : }

  0002a	5d		 pop	 ebp
  0002b	c3		 ret	 0
??$_Allocate@$07U_Default_allocate_traits@std@@$0A@@std@@YAPAXI@Z ENDP ; std::_Allocate<8,std::_Default_allocate_traits,0>
_TEXT	ENDS
; Function compile flags: /Odspy
; File C:\Program Files (x86)\Microsoft Visual Studio\2019\Community\VC\Tools\MSVC\14.28.29333\include\xmemory
;	COMDAT ??$_Deallocate@$07$0A@@std@@YAXPAXI@Z
_TEXT	SEGMENT
__$EHRec$ = -12						; size = 12
__Ptr$ = 8						; size = 4
__Bytes$ = 12						; size = 4
??$_Deallocate@$07$0A@@std@@YAXPAXI@Z PROC		; std::_Deallocate<8,0>, COMDAT

; 213  : void _Deallocate(void* _Ptr, size_t _Bytes) noexcept {

  00000	55		 push	 ebp
  00001	8b ec		 mov	 ebp, esp
  00003	6a ff		 push	 -1
  00005	68 00 00 00 00	 push	 __ehhandler$??$_Deallocate@$07$0A@@std@@YAXPAXI@Z
  0000a	64 a1 00 00 00
	00		 mov	 eax, DWORD PTR fs:0
  00010	50		 push	 eax
  00011	a1 00 00 00 00	 mov	 eax, DWORD PTR ___security_cookie
  00016	33 c5		 xor	 eax, ebp
  00018	50		 push	 eax
  00019	8d 45 f4	 lea	 eax, DWORD PTR __$EHRec$[ebp]
  0001c	64 a3 00 00 00
	00		 mov	 DWORD PTR fs:0, eax

; 214  :     // deallocate storage allocated by _Allocate when !_HAS_ALIGNED_NEW || _Align <= __STDCPP_DEFAULT_NEW_ALIGNMENT__
; 215  : #if defined(_M_IX86) || defined(_M_X64)
; 216  :     if (_Bytes >= _Big_allocation_threshold) { // boost the alignment of big allocations to help autovectorization

  00022	81 7d 0c 00 10
	00 00		 cmp	 DWORD PTR __Bytes$[ebp], 4096 ; 00001000H
  00029	72 0f		 jb	 SHORT $LN2@Deallocate

; 217  :         _Adjust_manually_vector_aligned(_Ptr, _Bytes);

  0002b	8d 45 0c	 lea	 eax, DWORD PTR __Bytes$[ebp]
  0002e	50		 push	 eax
  0002f	8d 45 08	 lea	 eax, DWORD PTR __Ptr$[ebp]
  00032	50		 push	 eax
  00033	e8 00 00 00 00	 call	 ?_Adjust_manually_vector_aligned@std@@YAXAAPAXAAI@Z ; std::_Adjust_manually_vector_aligned
  00038	59		 pop	 ecx
  00039	59		 pop	 ecx
$LN2@Deallocate:

; 218  :     }
; 219  : #endif // defined(_M_IX86) || defined(_M_X64)
; 220  : 
; 221  :     ::operator delete(_Ptr, _Bytes);

  0003a	ff 75 0c	 push	 DWORD PTR __Bytes$[ebp]
  0003d	ff 75 08	 push	 DWORD PTR __Ptr$[ebp]
  00040	e8 00 00 00 00	 call	 ??3@YAXPAXI@Z		; operator delete
  00045	59		 pop	 ecx
  00046	59		 pop	 ecx

; 222  : }

  00047	8b 4d f4	 mov	 ecx, DWORD PTR __$EHRec$[ebp]
  0004a	64 89 0d 00 00
	00 00		 mov	 DWORD PTR fs:0, ecx
  00051	59		 pop	 ecx
  00052	c9		 leave
  00053	c3		 ret	 0
  00054	cc		 int	 3
  00055	cc		 int	 3
  00056	cc		 int	 3
  00057	cc		 int	 3
  00058	cc		 int	 3
_TEXT	ENDS
;	COMDAT text$x
text$x	SEGMENT
__ehhandler$??$_Deallocate@$07$0A@@std@@YAXPAXI@Z:
  00000	90		 npad	 1
  00001	90		 npad	 1
  00002	8b 54 24 08	 mov	 edx, DWORD PTR [esp+8]
  00006	8d 42 0c	 lea	 eax, DWORD PTR [edx+12]
  00009	8b 4a fc	 mov	 ecx, DWORD PTR [edx-4]
  0000c	33 c8		 xor	 ecx, eax
  0000e	e8 00 00 00 00	 call	 @__security_check_cookie@4
  00013	b8 00 00 00 00	 mov	 eax, OFFSET __ehfuncinfo$??$_Deallocate@$07$0A@@std@@YAXPAXI@Z
  00018	e9 00 00 00 00	 jmp	 ___CxxFrameHandler3
text$x	ENDS
??$_Deallocate@$07$0A@@std@@YAXPAXI@Z ENDP		; std::_Deallocate<8,0>
; Function compile flags: /Odspy
; File C:\Program Files (x86)\Microsoft Visual Studio\2019\Community\VC\Tools\MSVC\14.28.29333\include\xtree
; File C:\Program Files (x86)\Microsoft Visual Studio\2019\Community\VC\Tools\MSVC\14.28.29333\include\xmemory
; File C:\Program Files (x86)\Microsoft Visual Studio\2019\Community\VC\Tools\MSVC\14.28.29333\include\xtree
;	COMDAT ??$_Buyheadnode@V?$allocator@U?$_Tree_node@U?$pair@$$CBKPAVCSpeedTreeWrapper@@@std@@PAX@std@@@std@@@?$_Tree_node@U?$pair@$$CBKPAVCSpeedTreeWrapper@@@std@@PAX@std@@SAPAU01@AAV?$allocator@U?$_Tree_node@U?$pair@$$CBKPAVCSpeedTreeWrapper@@@std@@PAX@std@@@1@@Z
_TEXT	SEGMENT
__Max_possible$1 = -20					; size = 4
$T2 = -16						; size = 4
$T3 = -12						; size = 4
__Pnode$ = -8						; size = 4
__Overflow_is_possible$4 = -1				; size = 1
__Al$ = 8						; size = 4
??$_Buyheadnode@V?$allocator@U?$_Tree_node@U?$pair@$$CBKPAVCSpeedTreeWrapper@@@std@@PAX@std@@@std@@@?$_Tree_node@U?$pair@$$CBKPAVCSpeedTreeWrapper@@@std@@PAX@std@@SAPAU01@AAV?$allocator@U?$_Tree_node@U?$pair@$$CBKPAVCSpeedTreeWrapper@@@std@@PAX@std@@@1@@Z PROC ; std::_Tree_node<std::pair<unsigned long const ,CSpeedTreeWrapper *>,void *>::_Buyheadnode<std::allocator<std::_Tree_node<std::pair<unsigned long const ,CSpeedTreeWrapper *>,void *> > >, COMDAT

; 341  :     static _Nodeptr _Buyheadnode(_Alloc& _Al) {

  00000	55		 push	 ebp
  00001	8b ec		 mov	 ebp, esp
  00003	83 ec 14	 sub	 esp, 20			; 00000014H
; File C:\Program Files (x86)\Microsoft Visual Studio\2019\Community\VC\Tools\MSVC\14.28.29333\include\xmemory

; 56   :     constexpr bool _Overflow_is_possible = _Ty_size > 1;

  00006	c6 45 ff 01	 mov	 BYTE PTR __Overflow_is_possible$4[ebp], 1

; 57   : 
; 58   :     if _CONSTEXPR_IF (_Overflow_is_possible) {
; 59   :         constexpr size_t _Max_possible = static_cast<size_t>(-1) / _Ty_size;

  0000a	c7 45 ec aa aa
	aa 0a		 mov	 DWORD PTR __Max_possible$1[ebp], 178956970 ; 0aaaaaaaH

; 60   :         if (_Count > _Max_possible) {

  00011	33 c0		 xor	 eax, eax
  00013	40		 inc	 eax
  00014	3d aa aa aa 0a	 cmp	 eax, 178956970		; 0aaaaaaaH
  00019	76 05		 jbe	 SHORT $LN6@Buyheadnod

; 61   :             _Throw_bad_array_new_length(); // multiply overflow

  0001b	e8 00 00 00 00	 call	 ?_Throw_bad_array_new_length@std@@YAXXZ ; std::_Throw_bad_array_new_length
$LN6@Buyheadnod:

; 62   :         }
; 63   :     }
; 64   : 
; 65   :     return _Count * _Ty_size;

  00020	33 c0		 xor	 eax, eax
  00022	40		 inc	 eax
  00023	6b c0 18	 imul	 eax, eax, 24
  00026	89 45 f4	 mov	 DWORD PTR $T3[ebp], eax

; 814  :         return static_cast<_Ty*>(_Allocate<_New_alignof<_Ty>>(_Get_size_of_n<sizeof(_Ty)>(_Count)));

  00029	ff 75 f4	 push	 DWORD PTR $T3[ebp]
  0002c	e8 00 00 00 00	 call	 ??$_Allocate@$07U_Default_allocate_traits@std@@$0A@@std@@YAPAXI@Z ; std::_Allocate<8,std::_Default_allocate_traits,0>
  00031	59		 pop	 ecx
  00032	89 45 f0	 mov	 DWORD PTR $T2[ebp], eax
; File C:\Program Files (x86)\Microsoft Visual Studio\2019\Community\VC\Tools\MSVC\14.28.29333\include\xtree

; 343  :         const auto _Pnode = _Al.allocate(1);

  00035	8b 45 f0	 mov	 eax, DWORD PTR $T2[ebp]
  00038	89 45 f8	 mov	 DWORD PTR __Pnode$[ebp], eax

; 344  :         _Construct_in_place(_Pnode->_Left, _Pnode);

  0003b	8d 45 f8	 lea	 eax, DWORD PTR __Pnode$[ebp]
  0003e	50		 push	 eax
  0003f	ff 75 f8	 push	 DWORD PTR __Pnode$[ebp]
  00042	e8 00 00 00 00	 call	 ??$_Construct_in_place@PAU?$_Tree_node@U?$pair@$$CBKPAVCSpeedTreeWrapper@@@std@@PAX@std@@ABQAU12@@std@@YAXAAPAU?$_Tree_node@U?$pair@$$CBKPAVCSpeedTreeWrapper@@@std@@PAX@0@ABQAU10@@Z ; std::_Construct_in_place<std::_Tree_node<std::pair<unsigned long const ,CSpeedTreeWrapper *>,void *> *,std::_Tree_node<std::pair<unsigned long const ,CSpeedTreeWrapper *>,void *> * const &>
  00047	59		 pop	 ecx
  00048	59		 pop	 ecx

; 345  :         _Construct_in_place(_Pnode->_Parent, _Pnode);

  00049	8d 45 f8	 lea	 eax, DWORD PTR __Pnode$[ebp]
  0004c	50		 push	 eax
  0004d	8b 45 f8	 mov	 eax, DWORD PTR __Pnode$[ebp]
  00050	83 c0 04	 add	 eax, 4
  00053	50		 push	 eax
  00054	e8 00 00 00 00	 call	 ??$_Construct_in_place@PAU?$_Tree_node@U?$pair@$$CBKPAVCSpeedTreeWrapper@@@std@@PAX@std@@ABQAU12@@std@@YAXAAPAU?$_Tree_node@U?$pair@$$CBKPAVCSpeedTreeWrapper@@@std@@PAX@0@ABQAU10@@Z ; std::_Construct_in_place<std::_Tree_node<std::pair<unsigned long const ,CSpeedTreeWrapper *>,void *> *,std::_Tree_node<std::pair<unsigned long const ,CSpeedTreeWrapper *>,void *> * const &>
  00059	59		 pop	 ecx
  0005a	59		 pop	 ecx

; 346  :         _Construct_in_place(_Pnode->_Right, _Pnode);

  0005b	8d 45 f8	 lea	 eax, DWORD PTR __Pnode$[ebp]
  0005e	50		 push	 eax
  0005f	8b 45 f8	 mov	 eax, DWORD PTR __Pnode$[ebp]
  00062	83 c0 08	 add	 eax, 8
  00065	50		 push	 eax
  00066	e8 00 00 00 00	 call	 ??$_Construct_in_place@PAU?$_Tree_node@U?$pair@$$CBKPAVCSpeedTreeWrapper@@@std@@PAX@std@@ABQAU12@@std@@YAXAAPAU?$_Tree_node@U?$pair@$$CBKPAVCSpeedTreeWrapper@@@std@@PAX@0@ABQAU10@@Z ; std::_Construct_in_place<std::_Tree_node<std::pair<unsigned long const ,CSpeedTreeWrapper *>,void *> *,std::_Tree_node<std::pair<unsigned long const ,CSpeedTreeWrapper *>,void *> * const &>
  0006b	59		 pop	 ecx
  0006c	59		 pop	 ecx

; 347  :         _Pnode->_Color = _Black;

  0006d	8b 45 f8	 mov	 eax, DWORD PTR __Pnode$[ebp]
  00070	c6 40 0c 01	 mov	 BYTE PTR [eax+12], 1

; 348  :         _Pnode->_Isnil = true;

  00074	8b 45 f8	 mov	 eax, DWORD PTR __Pnode$[ebp]
  00077	c6 40 0d 01	 mov	 BYTE PTR [eax+13], 1

; 349  :         return _Pnode;

  0007b	8b 45 f8	 mov	 eax, DWORD PTR __Pnode$[ebp]
$LN9@Buyheadnod:

; 350  :     }

  0007e	c9		 leave
  0007f	c3		 ret	 0
??$_Buyheadnode@V?$allocator@U?$_Tree_node@U?$pair@$$CBKPAVCSpeedTreeWrapper@@@std@@PAX@std@@@std@@@?$_Tree_node@U?$pair@$$CBKPAVCSpeedTreeWrapper@@@std@@PAX@std@@SAPAU01@AAV?$allocator@U?$_Tree_node@U?$pair@$$CBKPAVCSpeedTreeWrapper@@@std@@PAX@std@@@1@@Z ENDP ; std::_Tree_node<std::pair<unsigned long const ,CSpeedTreeWrapper *>,void *>::_Buyheadnode<std::allocator<std::_Tree_node<std::pair<unsigned long const ,CSpeedTreeWrapper *>,void *> > >
_TEXT	ENDS
; Function compile flags: /Odspy
; File C:\Program Files (x86)\Microsoft Visual Studio\2019\Community\VC\Tools\MSVC\14.28.29333\include\xtree
; File C:\Program Files (x86)\Microsoft Visual Studio\2019\Community\VC\Tools\MSVC\14.28.29333\include\utility
; File C:\Program Files (x86)\Microsoft Visual Studio\2019\Community\VC\Tools\MSVC\14.28.29333\include\xtree
; File C:\Program Files (x86)\Microsoft Visual Studio\2019\Community\VC\Tools\MSVC\14.28.29333\include\xstddef
; File C:\Program Files (x86)\Microsoft Visual Studio\2019\Community\VC\Tools\MSVC\14.28.29333\include\xtree
;	COMDAT ??$_Erase_tree@V?$allocator@U?$_Tree_node@U?$pair@$$CBKPAVCSpeedTreeWrapper@@@std@@PAX@std@@@std@@@?$_Tree_val@U?$_Tree_simple_types@U?$pair@$$CBKPAVCSpeedTreeWrapper@@@std@@@std@@@std@@QAEXAAV?$allocator@U?$_Tree_node@U?$pair@$$CBKPAVCSpeedTreeWrapper@@@std@@PAX@std@@@1@PAU?$_Tree_node@U?$pair@$$CBKPAVCSpeedTreeWrapper@@@std@@PAX@1@@Z
_TEXT	SEGMENT
$T1 = -20						; size = 4
__Old_val$2 = -16					; size = 4
__New_val$ = -12					; size = 4
_this$ = -8						; size = 4
$T3 = -4						; size = 4
__Al$ = 8						; size = 4
__Rootnode$ = 12					; size = 4
??$_Erase_tree@V?$allocator@U?$_Tree_node@U?$pair@$$CBKPAVCSpeedTreeWrapper@@@std@@PAX@std@@@std@@@?$_Tree_val@U?$_Tree_simple_types@U?$pair@$$CBKPAVCSpeedTreeWrapper@@@std@@@std@@@std@@QAEXAAV?$allocator@U?$_Tree_node@U?$pair@$$CBKPAVCSpeedTreeWrapper@@@std@@PAX@std@@@1@PAU?$_Tree_node@U?$pair@$$CBKPAVCSpeedTreeWrapper@@@std@@PAX@1@@Z PROC ; std::_Tree_val<std::_Tree_simple_types<std::pair<unsigned long const ,CSpeedTreeWrapper *> > >::_Erase_tree<std::allocator<std::_Tree_node<std::pair<unsigned long const ,CSpeedTreeWrapper *>,void *> > >, COMDAT
; _this$ = ecx

; 742  :     void _Erase_tree(_Alnode& _Al, _Nodeptr _Rootnode) noexcept {

  00000	55		 push	 ebp
  00001	8b ec		 mov	 ebp, esp
  00003	83 ec 14	 sub	 esp, 20			; 00000014H
  00006	89 4d f8	 mov	 DWORD PTR _this$[ebp], ecx
$LN2@Erase_tree:

; 743  :         while (!_Rootnode->_Isnil) { // free subtrees, then node

  00009	8b 45 0c	 mov	 eax, DWORD PTR __Rootnode$[ebp]
  0000c	0f be 40 0d	 movsx	 eax, BYTE PTR [eax+13]
  00010	85 c0		 test	 eax, eax
  00012	75 43		 jne	 SHORT $LN4@Erase_tree

; 744  :             _Erase_tree(_Al, _Rootnode->_Right);

  00014	8b 45 0c	 mov	 eax, DWORD PTR __Rootnode$[ebp]
  00017	ff 70 08	 push	 DWORD PTR [eax+8]
  0001a	ff 75 08	 push	 DWORD PTR __Al$[ebp]
  0001d	8b 4d f8	 mov	 ecx, DWORD PTR _this$[ebp]
  00020	e8 00 00 00 00	 call	 ??$_Erase_tree@V?$allocator@U?$_Tree_node@U?$pair@$$CBKPAVCSpeedTreeWrapper@@@std@@PAX@std@@@std@@@?$_Tree_val@U?$_Tree_simple_types@U?$pair@$$CBKPAVCSpeedTreeWrapper@@@std@@@std@@@std@@QAEXAAV?$allocator@U?$_Tree_node@U?$pair@$$CBKPAVCSpeedTreeWrapper@@@std@@PAX@std@@@1@PAU?$_Tree_node@U?$pair@$$CBKPAVCSpeedTreeWrapper@@@std@@PAX@1@@Z ; std::_Tree_val<std::_Tree_simple_types<std::pair<unsigned long const ,CSpeedTreeWrapper *> > >::_Erase_tree<std::allocator<std::_Tree_node<std::pair<unsigned long const ,CSpeedTreeWrapper *>,void *> > >

; 745  :             _Alnode::value_type::_Freenode(_Al, _STD exchange(_Rootnode, _Rootnode->_Left));

  00025	8b 45 0c	 mov	 eax, DWORD PTR __Rootnode$[ebp]
  00028	89 45 f4	 mov	 DWORD PTR __New_val$[ebp], eax
; File C:\Program Files (x86)\Microsoft Visual Studio\2019\Community\VC\Tools\MSVC\14.28.29333\include\utility

; 598  :     _Ty _Old_val = static_cast<_Ty&&>(_Val);

  0002b	8b 45 0c	 mov	 eax, DWORD PTR __Rootnode$[ebp]
  0002e	89 45 f0	 mov	 DWORD PTR __Old_val$2[ebp], eax

; 599  :     _Val         = static_cast<_Other&&>(_New_val);

  00031	8b 45 f4	 mov	 eax, DWORD PTR __New_val$[ebp]
  00034	8b 00		 mov	 eax, DWORD PTR [eax]
  00036	89 45 0c	 mov	 DWORD PTR __Rootnode$[ebp], eax

; 600  :     return _Old_val;

  00039	8b 45 f0	 mov	 eax, DWORD PTR __Old_val$2[ebp]
  0003c	89 45 fc	 mov	 DWORD PTR $T3[ebp], eax
; File C:\Program Files (x86)\Microsoft Visual Studio\2019\Community\VC\Tools\MSVC\14.28.29333\include\xtree

; 379  :         allocator_traits<_Alloc>::destroy(_Al, _STD addressof(_Ptr->_Myval));

  0003f	8b 45 fc	 mov	 eax, DWORD PTR $T3[ebp]
  00042	83 c0 10	 add	 eax, 16			; 00000010H
; File C:\Program Files (x86)\Microsoft Visual Studio\2019\Community\VC\Tools\MSVC\14.28.29333\include\xstddef

; 275  :     return __builtin_addressof(_Val);

  00045	89 45 ec	 mov	 DWORD PTR $T1[ebp], eax
; File C:\Program Files (x86)\Microsoft Visual Studio\2019\Community\VC\Tools\MSVC\14.28.29333\include\xtree

; 380  :         _Freenode0(_Al, _Ptr);

  00048	ff 75 fc	 push	 DWORD PTR $T3[ebp]
  0004b	ff 75 08	 push	 DWORD PTR __Al$[ebp]
  0004e	e8 00 00 00 00	 call	 ??$_Freenode0@V?$allocator@U?$_Tree_node@U?$pair@$$CBKPAVCSpeedTreeWrapper@@@std@@PAX@std@@@std@@@?$_Tree_node@U?$pair@$$CBKPAVCSpeedTreeWrapper@@@std@@PAX@std@@SAXAAV?$allocator@U?$_Tree_node@U?$pair@$$CBKPAVCSpeedTreeWrapper@@@std@@PAX@std@@@1@PAU01@@Z ; std::_Tree_node<std::pair<unsigned long const ,CSpeedTreeWrapper *>,void *>::_Freenode0<std::allocator<std::_Tree_node<std::pair<unsigned long const ,CSpeedTreeWrapper *>,void *> > >
  00053	59		 pop	 ecx
  00054	59		 pop	 ecx

; 746  :         }

  00055	eb b2		 jmp	 SHORT $LN2@Erase_tree
$LN4@Erase_tree:

; 747  :     }

  00057	c9		 leave
  00058	c2 08 00	 ret	 8
??$_Erase_tree@V?$allocator@U?$_Tree_node@U?$pair@$$CBKPAVCSpeedTreeWrapper@@@std@@PAX@std@@@std@@@?$_Tree_val@U?$_Tree_simple_types@U?$pair@$$CBKPAVCSpeedTreeWrapper@@@std@@@std@@@std@@QAEXAAV?$allocator@U?$_Tree_node@U?$pair@$$CBKPAVCSpeedTreeWrapper@@@std@@PAX@std@@@1@PAU?$_Tree_node@U?$pair@$$CBKPAVCSpeedTreeWrapper@@@std@@PAX@1@@Z ENDP ; std::_Tree_val<std::_Tree_simple_types<std::pair<unsigned long const ,CSpeedTreeWrapper *> > >::_Erase_tree<std::allocator<std::_Tree_node<std::pair<unsigned long const ,CSpeedTreeWrapper *>,void *> > >
_TEXT	ENDS
; Function compile flags: /Odspy
; File C:\Program Files (x86)\Microsoft Visual Studio\2019\Community\VC\Tools\MSVC\14.28.29333\include\xtree
; File C:\Program Files (x86)\Microsoft Visual Studio\2019\Community\VC\Tools\MSVC\14.28.29333\include\xmemory
; File C:\Program Files (x86)\Microsoft Visual Studio\2019\Community\VC\Tools\MSVC\14.28.29333\include\xtree
; File C:\Program Files (x86)\Microsoft Visual Studio\2019\Community\VC\Tools\MSVC\14.28.29333\include\xstddef
; File C:\Program Files (x86)\Microsoft Visual Studio\2019\Community\VC\Tools\MSVC\14.28.29333\include\xtree
; File C:\Program Files (x86)\Microsoft Visual Studio\2019\Community\VC\Tools\MSVC\14.28.29333\include\xstddef
; File C:\Program Files (x86)\Microsoft Visual Studio\2019\Community\VC\Tools\MSVC\14.28.29333\include\xtree
;	COMDAT ??$_Find@K@?$_Tree@V?$_Tmap_traits@KPAVCSpeedTreeWrapper@@U?$less@K@std@@V?$allocator@U?$pair@$$CBKPAVCSpeedTreeWrapper@@@std@@@3@$0A@@std@@@std@@ABEPAU?$_Tree_node@U?$pair@$$CBKPAVCSpeedTreeWrapper@@@std@@PAX@1@ABK@Z
_TEXT	SEGMENT
__Loc$ = -44						; size = 12
$T1 = -32						; size = 4
$T2 = -28						; size = 4
$T3 = -24						; size = 4
$T4 = -20						; size = 4
tv79 = -16						; size = 4
tv131 = -12						; size = 4
__Bound$ = -8						; size = 4
_this$ = -4						; size = 4
__Keyval$ = 8						; size = 4
??$_Find@K@?$_Tree@V?$_Tmap_traits@KPAVCSpeedTreeWrapper@@U?$less@K@std@@V?$allocator@U?$pair@$$CBKPAVCSpeedTreeWrapper@@@std@@@3@$0A@@std@@@std@@ABEPAU?$_Tree_node@U?$pair@$$CBKPAVCSpeedTreeWrapper@@@std@@PAX@1@ABK@Z PROC ; std::_Tree<std::_Tmap_traits<unsigned long,CSpeedTreeWrapper *,std::less<unsigned long>,std::allocator<std::pair<unsigned long const ,CSpeedTreeWrapper *> >,0> >::_Find<unsigned long>, COMDAT
; _this$ = ecx

; 1457 :     _NODISCARD _Nodeptr _Find(const _Other& _Keyval) const {

  00000	55		 push	 ebp
  00001	8b ec		 mov	 ebp, esp
  00003	83 ec 2c	 sub	 esp, 44			; 0000002cH
  00006	89 4d fc	 mov	 DWORD PTR _this$[ebp], ecx

; 1458 :         const _Tree_find_result<_Nodeptr> _Loc = _Find_lower_bound(_Keyval);

  00009	ff 75 08	 push	 DWORD PTR __Keyval$[ebp]
  0000c	8d 45 d4	 lea	 eax, DWORD PTR __Loc$[ebp]
  0000f	50		 push	 eax
  00010	8b 4d fc	 mov	 ecx, DWORD PTR _this$[ebp]
  00013	e8 00 00 00 00	 call	 ??$_Find_lower_bound@K@?$_Tree@V?$_Tmap_traits@KPAVCSpeedTreeWrapper@@U?$less@K@std@@V?$allocator@U?$pair@$$CBKPAVCSpeedTreeWrapper@@@std@@@3@$0A@@std@@@std@@IBE?AU?$_Tree_find_result@PAU?$_Tree_node@U?$pair@$$CBKPAVCSpeedTreeWrapper@@@std@@PAX@std@@@1@ABK@Z ; std::_Tree<std::_Tmap_traits<unsigned long,CSpeedTreeWrapper *,std::less<unsigned long>,std::allocator<std::pair<unsigned long const ,CSpeedTreeWrapper *> >,0> >::_Find_lower_bound<unsigned long>

; 1459 :         if (_Lower_bound_duplicate(_Loc._Bound, _Keyval)) {

  00018	8b 45 dc	 mov	 eax, DWORD PTR __Loc$[ebp+8]
  0001b	89 45 f8	 mov	 DWORD PTR __Bound$[ebp], eax

; 1695 :         return !_Bound->_Isnil && !_DEBUG_LT_PRED(_Getcomp(), _Keyval, _Traits::_Kfn(_Bound->_Myval));

  0001e	8b 45 f8	 mov	 eax, DWORD PTR __Bound$[ebp]
  00021	0f be 40 0d	 movsx	 eax, BYTE PTR [eax+13]
  00025	85 c0		 test	 eax, eax
  00027	75 37		 jne	 SHORT $LN30@Find

; 2035 :         return _Mypair._Get_first();

  00029	8b 45 fc	 mov	 eax, DWORD PTR _this$[ebp]
; File C:\Program Files (x86)\Microsoft Visual Studio\2019\Community\VC\Tools\MSVC\14.28.29333\include\xmemory

; 1351 :         return *this;

  0002c	89 45 ec	 mov	 DWORD PTR $T4[ebp], eax
; File C:\Program Files (x86)\Microsoft Visual Studio\2019\Community\VC\Tools\MSVC\14.28.29333\include\xtree

; 2035 :         return _Mypair._Get_first();

  0002f	8b 45 ec	 mov	 eax, DWORD PTR $T4[ebp]
  00032	89 45 e0	 mov	 DWORD PTR $T1[ebp], eax
; File C:\Program Files (x86)\Microsoft Visual Studio\2019\Community\VC\Tools\MSVC\14.28.29333\include\xstddef

; 127  :         return _Left < _Right;

  00035	8b 45 08	 mov	 eax, DWORD PTR __Keyval$[ebp]
  00038	8b 4d f8	 mov	 ecx, DWORD PTR __Bound$[ebp]
  0003b	8b 00		 mov	 eax, DWORD PTR [eax]
  0003d	3b 41 10	 cmp	 eax, DWORD PTR [ecx+16]
  00040	73 09		 jae	 SHORT $LN42@Find
  00042	c7 45 f4 01 00
	00 00		 mov	 DWORD PTR tv131[ebp], 1
  00049	eb 04		 jmp	 SHORT $LN40@Find
$LN42@Find:
  0004b	83 65 f4 00	 and	 DWORD PTR tv131[ebp], 0
$LN40@Find:
; File C:\Program Files (x86)\Microsoft Visual Studio\2019\Community\VC\Tools\MSVC\14.28.29333\include\xtree

; 1695 :         return !_Bound->_Isnil && !_DEBUG_LT_PRED(_Getcomp(), _Keyval, _Traits::_Kfn(_Bound->_Myval));

  0004f	0f b6 45 f4	 movzx	 eax, BYTE PTR tv131[ebp]
  00053	85 c0		 test	 eax, eax
  00055	75 09		 jne	 SHORT $LN30@Find
  00057	c7 45 f0 01 00
	00 00		 mov	 DWORD PTR tv79[ebp], 1
  0005e	eb 04		 jmp	 SHORT $LN28@Find
$LN30@Find:
  00060	83 65 f0 00	 and	 DWORD PTR tv79[ebp], 0
$LN28@Find:

; 1459 :         if (_Lower_bound_duplicate(_Loc._Bound, _Keyval)) {

  00064	0f b6 45 f0	 movzx	 eax, BYTE PTR tv79[ebp]
  00068	85 c0		 test	 eax, eax
  0006a	74 05		 je	 SHORT $LN2@Find

; 1460 :             return _Loc._Bound;

  0006c	8b 45 dc	 mov	 eax, DWORD PTR __Loc$[ebp+8]
  0006f	eb 11		 jmp	 SHORT $LN1@Find
$LN2@Find:

; 2051 :         return _STD addressof(_Mypair._Myval2._Myval2);

  00071	8b 45 fc	 mov	 eax, DWORD PTR _this$[ebp]
; File C:\Program Files (x86)\Microsoft Visual Studio\2019\Community\VC\Tools\MSVC\14.28.29333\include\xstddef

; 275  :     return __builtin_addressof(_Val);

  00074	89 45 e8	 mov	 DWORD PTR $T3[ebp], eax
; File C:\Program Files (x86)\Microsoft Visual Studio\2019\Community\VC\Tools\MSVC\14.28.29333\include\xtree

; 2051 :         return _STD addressof(_Mypair._Myval2._Myval2);

  00077	8b 45 e8	 mov	 eax, DWORD PTR $T3[ebp]
  0007a	89 45 e4	 mov	 DWORD PTR $T2[ebp], eax

; 1461 :         }
; 1462 : 
; 1463 :         return _Get_scary()->_Myhead;

  0007d	8b 45 e4	 mov	 eax, DWORD PTR $T2[ebp]
  00080	8b 00		 mov	 eax, DWORD PTR [eax]
$LN1@Find:

; 1464 :     }

  00082	c9		 leave
  00083	c2 04 00	 ret	 4
??$_Find@K@?$_Tree@V?$_Tmap_traits@KPAVCSpeedTreeWrapper@@U?$less@K@std@@V?$allocator@U?$pair@$$CBKPAVCSpeedTreeWrapper@@@std@@@3@$0A@@std@@@std@@ABEPAU?$_Tree_node@U?$pair@$$CBKPAVCSpeedTreeWrapper@@@std@@PAX@1@ABK@Z ENDP ; std::_Tree<std::_Tmap_traits<unsigned long,CSpeedTreeWrapper *,std::less<unsigned long>,std::allocator<std::pair<unsigned long const ,CSpeedTreeWrapper *> >,0> >::_Find<unsigned long>
_TEXT	ENDS
; Function compile flags: /Odspy
; File C:\Program Files (x86)\Microsoft Visual Studio\2019\Community\VC\Tools\MSVC\14.28.29333\include\xtree
; File C:\Program Files (x86)\Microsoft Visual Studio\2019\Community\VC\Tools\MSVC\14.28.29333\include\type_traits
; File C:\Program Files (x86)\Microsoft Visual Studio\2019\Community\VC\Tools\MSVC\14.28.29333\include\xtree
; File C:\Program Files (x86)\Microsoft Visual Studio\2019\Community\VC\Tools\MSVC\14.28.29333\include\xstddef
; File C:\Program Files (x86)\Microsoft Visual Studio\2019\Community\VC\Tools\MSVC\14.28.29333\include\xtree
; File C:\Program Files (x86)\Microsoft Visual Studio\2019\Community\VC\Tools\MSVC\14.28.29333\include\type_traits
; File C:\Program Files (x86)\Microsoft Visual Studio\2019\Community\VC\Tools\MSVC\14.28.29333\include\utility
; File C:\Program Files (x86)\Microsoft Visual Studio\2019\Community\VC\Tools\MSVC\14.28.29333\include\type_traits
; File C:\Program Files (x86)\Microsoft Visual Studio\2019\Community\VC\Tools\MSVC\14.28.29333\include\utility
; File C:\Program Files (x86)\Microsoft Visual Studio\2019\Community\VC\Tools\MSVC\14.28.29333\include\xtree
;	COMDAT ??$insert@$0A@$0A@@?$_Tree@V?$_Tmap_traits@KPAVCSpeedTreeWrapper@@U?$less@K@std@@V?$allocator@U?$pair@$$CBKPAVCSpeedTreeWrapper@@@std@@@3@$0A@@std@@@std@@QAE?AU?$pair@V?$_Tree_iterator@V?$_Tree_val@U?$_Tree_simple_types@U?$pair@$$CBKPAVCSpeedTreeWrapper@@@std@@@std@@@std@@@std@@_N@1@$$QAU?$pair@$$CBKPAVCSpeedTreeWrapper@@@1@@Z
_TEXT	SEGMENT
__Result$ = -40						; size = 8
$T1 = -32						; size = 4
$T2 = -28						; size = 4
$T3 = -24						; size = 4
$T4 = -20						; size = 4
___param0$ = -16					; size = 4
$T5 = -12						; size = 4
$T6 = -8						; size = 4
_this$ = -4						; size = 4
___$ReturnUdt$ = 8					; size = 4
__Val$ = 12						; size = 4
??$insert@$0A@$0A@@?$_Tree@V?$_Tmap_traits@KPAVCSpeedTreeWrapper@@U?$less@K@std@@V?$allocator@U?$pair@$$CBKPAVCSpeedTreeWrapper@@@std@@@3@$0A@@std@@@std@@QAE?AU?$pair@V?$_Tree_iterator@V?$_Tree_val@U?$_Tree_simple_types@U?$pair@$$CBKPAVCSpeedTreeWrapper@@@std@@@std@@@std@@@std@@_N@1@$$QAU?$pair@$$CBKPAVCSpeedTreeWrapper@@@1@@Z PROC ; std::_Tree<std::_Tmap_traits<unsigned long,CSpeedTreeWrapper *,std::less<unsigned long>,std::allocator<std::pair<unsigned long const ,CSpeedTreeWrapper *> >,0> >::insert<0,0>, COMDAT
; _this$ = ecx

; 1343 :     pair<iterator, bool> insert(value_type&& _Val) {

  00000	55		 push	 ebp
  00001	8b ec		 mov	 ebp, esp
  00003	83 ec 28	 sub	 esp, 40			; 00000028H
  00006	89 4d fc	 mov	 DWORD PTR _this$[ebp], ecx
; File C:\Program Files (x86)\Microsoft Visual Studio\2019\Community\VC\Tools\MSVC\14.28.29333\include\type_traits

; 1455 :     return static_cast<remove_reference_t<_Ty>&&>(_Arg);

  00009	8b 45 0c	 mov	 eax, DWORD PTR __Val$[ebp]
  0000c	89 45 f8	 mov	 DWORD PTR $T6[ebp], eax
; File C:\Program Files (x86)\Microsoft Visual Studio\2019\Community\VC\Tools\MSVC\14.28.29333\include\xtree

; 1344 :         const auto _Result = _Emplace(_STD move(_Val));

  0000f	ff 75 f8	 push	 DWORD PTR $T6[ebp]
  00012	8d 45 d8	 lea	 eax, DWORD PTR __Result$[ebp]
  00015	50		 push	 eax
  00016	8b 4d fc	 mov	 ecx, DWORD PTR _this$[ebp]
  00019	e8 00 00 00 00	 call	 ??$_Emplace@U?$pair@$$CBKPAVCSpeedTreeWrapper@@@std@@@?$_Tree@V?$_Tmap_traits@KPAVCSpeedTreeWrapper@@U?$less@K@std@@V?$allocator@U?$pair@$$CBKPAVCSpeedTreeWrapper@@@std@@@3@$0A@@std@@@std@@IAE?AU?$pair@PAU?$_Tree_node@U?$pair@$$CBKPAVCSpeedTreeWrapper@@@std@@PAX@std@@_N@1@$$QAU?$pair@$$CBKPAVCSpeedTreeWrapper@@@1@@Z ; std::_Tree<std::_Tmap_traits<unsigned long,CSpeedTreeWrapper *,std::less<unsigned long>,std::allocator<std::pair<unsigned long const ,CSpeedTreeWrapper *> >,0> >::_Emplace<std::pair<unsigned long const ,CSpeedTreeWrapper *> >

; 2047 :         return _STD addressof(_Mypair._Myval2._Myval2);

  0001e	8b 45 fc	 mov	 eax, DWORD PTR _this$[ebp]
; File C:\Program Files (x86)\Microsoft Visual Studio\2019\Community\VC\Tools\MSVC\14.28.29333\include\xstddef

; 275  :     return __builtin_addressof(_Val);

  00021	89 45 f4	 mov	 DWORD PTR $T5[ebp], eax
; File C:\Program Files (x86)\Microsoft Visual Studio\2019\Community\VC\Tools\MSVC\14.28.29333\include\xtree

; 2047 :         return _STD addressof(_Mypair._Myval2._Myval2);

  00024	8b 45 f4	 mov	 eax, DWORD PTR $T5[ebp]
  00027	89 45 e0	 mov	 DWORD PTR $T1[ebp], eax

; 1345 :         return {iterator(_Result.first, _Get_scary()), _Result.second};

  0002a	8b 45 d8	 mov	 eax, DWORD PTR __Result$[ebp]
  0002d	89 45 f0	 mov	 DWORD PTR ___param0$[ebp], eax

; 39   :     _Tree_unchecked_const_iterator(_Nodeptr _Pnode, const _Mytree* _Plist) noexcept : _Ptr(_Pnode) {

  00030	8b 45 f0	 mov	 eax, DWORD PTR ___param0$[ebp]
  00033	89 45 ec	 mov	 DWORD PTR $T4[ebp], eax
; File C:\Program Files (x86)\Microsoft Visual Studio\2019\Community\VC\Tools\MSVC\14.28.29333\include\type_traits

; 1443 :     return static_cast<_Ty&&>(_Arg);

  00036	8d 45 ec	 lea	 eax, DWORD PTR $T4[ebp]
  00039	89 45 e8	 mov	 DWORD PTR $T3[ebp], eax
; File C:\Program Files (x86)\Microsoft Visual Studio\2019\Community\VC\Tools\MSVC\14.28.29333\include\utility

; 190  :         : first(_STD forward<_Other1>(_Val1)), second(_STD forward<_Other2>(_Val2)) {}

  0003c	8b 45 e8	 mov	 eax, DWORD PTR $T3[ebp]
  0003f	8b 00		 mov	 eax, DWORD PTR [eax]
  00041	8b 4d 08	 mov	 ecx, DWORD PTR ___$ReturnUdt$[ebp]
  00044	89 01		 mov	 DWORD PTR [ecx], eax
; File C:\Program Files (x86)\Microsoft Visual Studio\2019\Community\VC\Tools\MSVC\14.28.29333\include\type_traits

; 1443 :     return static_cast<_Ty&&>(_Arg);

  00046	8d 45 dc	 lea	 eax, DWORD PTR __Result$[ebp+4]
  00049	89 45 e4	 mov	 DWORD PTR $T2[ebp], eax
; File C:\Program Files (x86)\Microsoft Visual Studio\2019\Community\VC\Tools\MSVC\14.28.29333\include\utility

; 190  :         : first(_STD forward<_Other1>(_Val1)), second(_STD forward<_Other2>(_Val2)) {}

  0004c	8b 45 08	 mov	 eax, DWORD PTR ___$ReturnUdt$[ebp]
  0004f	8b 4d e4	 mov	 ecx, DWORD PTR $T2[ebp]
  00052	8a 09		 mov	 cl, BYTE PTR [ecx]
  00054	88 48 04	 mov	 BYTE PTR [eax+4], cl
; File C:\Program Files (x86)\Microsoft Visual Studio\2019\Community\VC\Tools\MSVC\14.28.29333\include\xtree

; 1345 :         return {iterator(_Result.first, _Get_scary()), _Result.second};

  00057	8b 45 08	 mov	 eax, DWORD PTR ___$ReturnUdt$[ebp]

; 1346 :     }

  0005a	c9		 leave
  0005b	c2 08 00	 ret	 8
??$insert@$0A@$0A@@?$_Tree@V?$_Tmap_traits@KPAVCSpeedTreeWrapper@@U?$less@K@std@@V?$allocator@U?$pair@$$CBKPAVCSpeedTreeWrapper@@@std@@@3@$0A@@std@@@std@@QAE?AU?$pair@V?$_Tree_iterator@V?$_Tree_val@U?$_Tree_simple_types@U?$pair@$$CBKPAVCSpeedTreeWrapper@@@std@@@std@@@std@@@std@@_N@1@$$QAU?$pair@$$CBKPAVCSpeedTreeWrapper@@@1@@Z ENDP ; std::_Tree<std::_Tmap_traits<unsigned long,CSpeedTreeWrapper *,std::less<unsigned long>,std::allocator<std::pair<unsigned long const ,CSpeedTreeWrapper *> >,0> >::insert<0,0>
_TEXT	ENDS
; Function compile flags: /Odspy
; File C:\Program Files (x86)\Microsoft Visual Studio\2019\Community\VC\Tools\MSVC\14.28.29333\include\xtree
;	COMDAT ??E?$_Tree_unchecked_const_iterator@V?$_Tree_val@U?$_Tree_simple_types@U?$pair@$$CBKPAVCSpeedTreeWrapper@@@std@@@std@@@std@@U_Iterator_base0@2@@std@@QAEAAV01@XZ
_TEXT	SEGMENT
$T1 = -16						; size = 4
__Pnode$ = -12						; size = 4
__Pnode$2 = -8						; size = 4
_this$ = -4						; size = 4
??E?$_Tree_unchecked_const_iterator@V?$_Tree_val@U?$_Tree_simple_types@U?$pair@$$CBKPAVCSpeedTreeWrapper@@@std@@@std@@@std@@U_Iterator_base0@2@@std@@QAEAAV01@XZ PROC ; std::_Tree_unchecked_const_iterator<std::_Tree_val<std::_Tree_simple_types<std::pair<unsigned long const ,CSpeedTreeWrapper *> > >,std::_Iterator_base0>::operator++, COMDAT
; _this$ = ecx

; 51   :     _Tree_unchecked_const_iterator& operator++() noexcept {

  00000	55		 push	 ebp
  00001	8b ec		 mov	 ebp, esp
  00003	83 ec 10	 sub	 esp, 16			; 00000010H
  00006	89 4d fc	 mov	 DWORD PTR _this$[ebp], ecx

; 52   :         if (_Ptr->_Right->_Isnil) { // climb looking for right subtree

  00009	8b 45 fc	 mov	 eax, DWORD PTR _this$[ebp]
  0000c	8b 00		 mov	 eax, DWORD PTR [eax]
  0000e	8b 40 08	 mov	 eax, DWORD PTR [eax+8]
  00011	0f be 40 0d	 movsx	 eax, BYTE PTR [eax+13]
  00015	85 c0		 test	 eax, eax
  00017	74 37		 je	 SHORT $LN4@operator
$LN2@operator:

; 53   :             _Nodeptr _Pnode;
; 54   :             while (!(_Pnode = _Ptr->_Parent)->_Isnil && _Ptr == _Pnode->_Right) {

  00019	8b 45 fc	 mov	 eax, DWORD PTR _this$[ebp]
  0001c	8b 00		 mov	 eax, DWORD PTR [eax]
  0001e	8b 40 04	 mov	 eax, DWORD PTR [eax+4]
  00021	89 45 f8	 mov	 DWORD PTR __Pnode$2[ebp], eax
  00024	8b 45 f8	 mov	 eax, DWORD PTR __Pnode$2[ebp]
  00027	0f be 40 0d	 movsx	 eax, BYTE PTR [eax+13]
  0002b	85 c0		 test	 eax, eax
  0002d	75 17		 jne	 SHORT $LN3@operator
  0002f	8b 45 fc	 mov	 eax, DWORD PTR _this$[ebp]
  00032	8b 4d f8	 mov	 ecx, DWORD PTR __Pnode$2[ebp]
  00035	8b 00		 mov	 eax, DWORD PTR [eax]
  00037	3b 41 08	 cmp	 eax, DWORD PTR [ecx+8]
  0003a	75 0a		 jne	 SHORT $LN3@operator

; 55   :                 _Ptr = _Pnode; // ==> parent while right subtree

  0003c	8b 45 fc	 mov	 eax, DWORD PTR _this$[ebp]
  0003f	8b 4d f8	 mov	 ecx, DWORD PTR __Pnode$2[ebp]
  00042	89 08		 mov	 DWORD PTR [eax], ecx

; 56   :             }

  00044	eb d3		 jmp	 SHORT $LN2@operator
$LN3@operator:

; 57   : 
; 58   :             _Ptr = _Pnode; // ==> parent (head if end())

  00046	8b 45 fc	 mov	 eax, DWORD PTR _this$[ebp]
  00049	8b 4d f8	 mov	 ecx, DWORD PTR __Pnode$2[ebp]
  0004c	89 08		 mov	 DWORD PTR [eax], ecx

; 59   :         } else {

  0004e	eb 30		 jmp	 SHORT $LN5@operator
$LN4@operator:

; 60   :             _Ptr = _Mytree::_Min(_Ptr->_Right); // ==> smallest of right subtree

  00050	8b 45 fc	 mov	 eax, DWORD PTR _this$[ebp]
  00053	8b 00		 mov	 eax, DWORD PTR [eax]
  00055	8b 40 08	 mov	 eax, DWORD PTR [eax+8]
  00058	89 45 f4	 mov	 DWORD PTR __Pnode$[ebp], eax
$LN8@operator:

; 451  :         while (!_Pnode->_Left->_Isnil) {

  0005b	8b 45 f4	 mov	 eax, DWORD PTR __Pnode$[ebp]
  0005e	8b 00		 mov	 eax, DWORD PTR [eax]
  00060	0f be 40 0d	 movsx	 eax, BYTE PTR [eax+13]
  00064	85 c0		 test	 eax, eax
  00066	75 0a		 jne	 SHORT $LN9@operator

; 452  :             _Pnode = _Pnode->_Left;

  00068	8b 45 f4	 mov	 eax, DWORD PTR __Pnode$[ebp]
  0006b	8b 00		 mov	 eax, DWORD PTR [eax]
  0006d	89 45 f4	 mov	 DWORD PTR __Pnode$[ebp], eax

; 453  :         }

  00070	eb e9		 jmp	 SHORT $LN8@operator
$LN9@operator:

; 454  : 
; 455  :         return _Pnode;

  00072	8b 45 f4	 mov	 eax, DWORD PTR __Pnode$[ebp]
  00075	89 45 f0	 mov	 DWORD PTR $T1[ebp], eax

; 60   :             _Ptr = _Mytree::_Min(_Ptr->_Right); // ==> smallest of right subtree

  00078	8b 45 fc	 mov	 eax, DWORD PTR _this$[ebp]
  0007b	8b 4d f0	 mov	 ecx, DWORD PTR $T1[ebp]
  0007e	89 08		 mov	 DWORD PTR [eax], ecx
$LN5@operator:

; 61   :         }
; 62   : 
; 63   :         return *this;

  00080	8b 45 fc	 mov	 eax, DWORD PTR _this$[ebp]

; 64   :     }

  00083	c9		 leave
  00084	c3		 ret	 0
??E?$_Tree_unchecked_const_iterator@V?$_Tree_val@U?$_Tree_simple_types@U?$pair@$$CBKPAVCSpeedTreeWrapper@@@std@@@std@@@std@@U_Iterator_base0@2@@std@@QAEAAV01@XZ ENDP ; std::_Tree_unchecked_const_iterator<std::_Tree_val<std::_Tree_simple_types<std::pair<unsigned long const ,CSpeedTreeWrapper *> > >,std::_Iterator_base0>::operator++
_TEXT	ENDS
; Function compile flags: /Odspy
;	COMDAT ??_GCSpeedTreeForest@@UAEPAXI@Z
_TEXT	SEGMENT
_this$ = -4						; size = 4
___flags$ = 8						; size = 4
??_GCSpeedTreeForest@@UAEPAXI@Z PROC			; CSpeedTreeForest::`scalar deleting destructor', COMDAT
; _this$ = ecx
  00000	55		 push	 ebp
  00001	8b ec		 mov	 ebp, esp
  00003	51		 push	 ecx
  00004	89 4d fc	 mov	 DWORD PTR _this$[ebp], ecx
  00007	8b 4d fc	 mov	 ecx, DWORD PTR _this$[ebp]
  0000a	e8 00 00 00 00	 call	 ??1CSpeedTreeForest@@UAE@XZ ; CSpeedTreeForest::~CSpeedTreeForest
  0000f	8b 45 08	 mov	 eax, DWORD PTR ___flags$[ebp]
  00012	83 e0 01	 and	 eax, 1
  00015	74 0c		 je	 SHORT $LN2@scalar
  00017	6a 6c		 push	 108			; 0000006cH
  00019	ff 75 fc	 push	 DWORD PTR _this$[ebp]
  0001c	e8 00 00 00 00	 call	 ??3@YAXPAXI@Z		; operator delete
  00021	59		 pop	 ecx
  00022	59		 pop	 ecx
$LN2@scalar:
  00023	8b 45 fc	 mov	 eax, DWORD PTR _this$[ebp]
  00026	c9		 leave
  00027	c2 04 00	 ret	 4
??_GCSpeedTreeForest@@UAEPAXI@Z ENDP			; CSpeedTreeForest::`scalar deleting destructor'
_TEXT	ENDS
; Function compile flags: /Odspy
; File D:\Metin2 Server Files\mainline\SRC_2014\Metin2Client\SpeedTreeLib\SpeedTreeForest.cpp
;	COMDAT ?AdjustExtents@CSpeedTreeForest@@AAEXMMM@Z
_TEXT	SEGMENT
tv161 = -28						; size = 4
tv150 = -24						; size = 4
tv139 = -20						; size = 4
tv128 = -16						; size = 4
tv85 = -12						; size = 4
tv74 = -8						; size = 4
_this$ = -4						; size = 4
_x$ = 8							; size = 4
_y$ = 12						; size = 4
_z$ = 16						; size = 4
?AdjustExtents@CSpeedTreeForest@@AAEXMMM@Z PROC		; CSpeedTreeForest::AdjustExtents, COMDAT
; _this$ = ecx

; 141  : {

  00000	55		 push	 ebp
  00001	8b ec		 mov	 ebp, esp
  00003	83 ec 1c	 sub	 esp, 28			; 0000001cH
  00006	89 4d fc	 mov	 DWORD PTR _this$[ebp], ecx

; 142  :     // min
; 143  :     m_afForestExtents[0] = __min(m_afForestExtents[0], x); 

  00009	6a 04		 push	 4
  0000b	58		 pop	 eax
  0000c	6b c0 00	 imul	 eax, eax, 0
  0000f	8b 4d fc	 mov	 ecx, DWORD PTR _this$[ebp]
  00012	f3 0f 10 45 08	 movss	 xmm0, DWORD PTR _x$[ebp]
  00017	0f 2f 44 01 4c	 comiss	 xmm0, DWORD PTR [ecx+eax+76]
  0001c	76 16		 jbe	 SHORT $LN3@AdjustExte
  0001e	6a 04		 push	 4
  00020	58		 pop	 eax
  00021	6b c0 00	 imul	 eax, eax, 0
  00024	8b 4d fc	 mov	 ecx, DWORD PTR _this$[ebp]
  00027	f3 0f 10 44 01
	4c		 movss	 xmm0, DWORD PTR [ecx+eax+76]
  0002d	f3 0f 11 45 f8	 movss	 DWORD PTR tv74[ebp], xmm0
  00032	eb 0a		 jmp	 SHORT $LN4@AdjustExte
$LN3@AdjustExte:
  00034	f3 0f 10 45 08	 movss	 xmm0, DWORD PTR _x$[ebp]
  00039	f3 0f 11 45 f8	 movss	 DWORD PTR tv74[ebp], xmm0
$LN4@AdjustExte:
  0003e	6a 04		 push	 4
  00040	58		 pop	 eax
  00041	6b c0 00	 imul	 eax, eax, 0
  00044	8b 4d fc	 mov	 ecx, DWORD PTR _this$[ebp]
  00047	f3 0f 10 45 f8	 movss	 xmm0, DWORD PTR tv74[ebp]
  0004c	f3 0f 11 44 01
	4c		 movss	 DWORD PTR [ecx+eax+76], xmm0

; 144  :     m_afForestExtents[1] = __min(m_afForestExtents[1], y); 

  00052	6a 04		 push	 4
  00054	58		 pop	 eax
  00055	c1 e0 00	 shl	 eax, 0
  00058	8b 4d fc	 mov	 ecx, DWORD PTR _this$[ebp]
  0005b	f3 0f 10 45 0c	 movss	 xmm0, DWORD PTR _y$[ebp]
  00060	0f 2f 44 01 4c	 comiss	 xmm0, DWORD PTR [ecx+eax+76]
  00065	76 16		 jbe	 SHORT $LN5@AdjustExte
  00067	6a 04		 push	 4
  00069	58		 pop	 eax
  0006a	c1 e0 00	 shl	 eax, 0
  0006d	8b 4d fc	 mov	 ecx, DWORD PTR _this$[ebp]
  00070	f3 0f 10 44 01
	4c		 movss	 xmm0, DWORD PTR [ecx+eax+76]
  00076	f3 0f 11 45 f4	 movss	 DWORD PTR tv85[ebp], xmm0
  0007b	eb 0a		 jmp	 SHORT $LN6@AdjustExte
$LN5@AdjustExte:
  0007d	f3 0f 10 45 0c	 movss	 xmm0, DWORD PTR _y$[ebp]
  00082	f3 0f 11 45 f4	 movss	 DWORD PTR tv85[ebp], xmm0
$LN6@AdjustExte:
  00087	6a 04		 push	 4
  00089	58		 pop	 eax
  0008a	c1 e0 00	 shl	 eax, 0
  0008d	8b 4d fc	 mov	 ecx, DWORD PTR _this$[ebp]
  00090	f3 0f 10 45 f4	 movss	 xmm0, DWORD PTR tv85[ebp]
  00095	f3 0f 11 44 01
	4c		 movss	 DWORD PTR [ecx+eax+76], xmm0

; 145  :     m_afForestExtents[2] = __min(m_afForestExtents[2], z); 

  0009b	6a 04		 push	 4
  0009d	58		 pop	 eax
  0009e	d1 e0		 shl	 eax, 1
  000a0	8b 4d fc	 mov	 ecx, DWORD PTR _this$[ebp]
  000a3	f3 0f 10 45 10	 movss	 xmm0, DWORD PTR _z$[ebp]
  000a8	0f 2f 44 01 4c	 comiss	 xmm0, DWORD PTR [ecx+eax+76]
  000ad	76 15		 jbe	 SHORT $LN7@AdjustExte
  000af	6a 04		 push	 4
  000b1	58		 pop	 eax
  000b2	d1 e0		 shl	 eax, 1
  000b4	8b 4d fc	 mov	 ecx, DWORD PTR _this$[ebp]
  000b7	f3 0f 10 44 01
	4c		 movss	 xmm0, DWORD PTR [ecx+eax+76]
  000bd	f3 0f 11 45 f0	 movss	 DWORD PTR tv128[ebp], xmm0
  000c2	eb 0a		 jmp	 SHORT $LN8@AdjustExte
$LN7@AdjustExte:
  000c4	f3 0f 10 45 10	 movss	 xmm0, DWORD PTR _z$[ebp]
  000c9	f3 0f 11 45 f0	 movss	 DWORD PTR tv128[ebp], xmm0
$LN8@AdjustExte:
  000ce	6a 04		 push	 4
  000d0	58		 pop	 eax
  000d1	d1 e0		 shl	 eax, 1
  000d3	8b 4d fc	 mov	 ecx, DWORD PTR _this$[ebp]
  000d6	f3 0f 10 45 f0	 movss	 xmm0, DWORD PTR tv128[ebp]
  000db	f3 0f 11 44 01
	4c		 movss	 DWORD PTR [ecx+eax+76], xmm0

; 146  : 
; 147  :     // max
; 148  :     m_afForestExtents[3] = __max(m_afForestExtents[3], x); 

  000e1	6a 04		 push	 4
  000e3	58		 pop	 eax
  000e4	6b c0 03	 imul	 eax, eax, 3
  000e7	8b 4d fc	 mov	 ecx, DWORD PTR _this$[ebp]
  000ea	f3 0f 10 44 01
	4c		 movss	 xmm0, DWORD PTR [ecx+eax+76]
  000f0	0f 2f 45 08	 comiss	 xmm0, DWORD PTR _x$[ebp]
  000f4	76 16		 jbe	 SHORT $LN9@AdjustExte
  000f6	6a 04		 push	 4
  000f8	58		 pop	 eax
  000f9	6b c0 03	 imul	 eax, eax, 3
  000fc	8b 4d fc	 mov	 ecx, DWORD PTR _this$[ebp]
  000ff	f3 0f 10 44 01
	4c		 movss	 xmm0, DWORD PTR [ecx+eax+76]
  00105	f3 0f 11 45 ec	 movss	 DWORD PTR tv139[ebp], xmm0
  0010a	eb 0a		 jmp	 SHORT $LN10@AdjustExte
$LN9@AdjustExte:
  0010c	f3 0f 10 45 08	 movss	 xmm0, DWORD PTR _x$[ebp]
  00111	f3 0f 11 45 ec	 movss	 DWORD PTR tv139[ebp], xmm0
$LN10@AdjustExte:
  00116	6a 04		 push	 4
  00118	58		 pop	 eax
  00119	6b c0 03	 imul	 eax, eax, 3
  0011c	8b 4d fc	 mov	 ecx, DWORD PTR _this$[ebp]
  0011f	f3 0f 10 45 ec	 movss	 xmm0, DWORD PTR tv139[ebp]
  00124	f3 0f 11 44 01
	4c		 movss	 DWORD PTR [ecx+eax+76], xmm0

; 149  :     m_afForestExtents[4] = __max(m_afForestExtents[4], y); 

  0012a	6a 04		 push	 4
  0012c	58		 pop	 eax
  0012d	c1 e0 02	 shl	 eax, 2
  00130	8b 4d fc	 mov	 ecx, DWORD PTR _this$[ebp]
  00133	f3 0f 10 44 01
	4c		 movss	 xmm0, DWORD PTR [ecx+eax+76]
  00139	0f 2f 45 0c	 comiss	 xmm0, DWORD PTR _y$[ebp]
  0013d	76 16		 jbe	 SHORT $LN11@AdjustExte
  0013f	6a 04		 push	 4
  00141	58		 pop	 eax
  00142	c1 e0 02	 shl	 eax, 2
  00145	8b 4d fc	 mov	 ecx, DWORD PTR _this$[ebp]
  00148	f3 0f 10 44 01
	4c		 movss	 xmm0, DWORD PTR [ecx+eax+76]
  0014e	f3 0f 11 45 e8	 movss	 DWORD PTR tv150[ebp], xmm0
  00153	eb 0a		 jmp	 SHORT $LN12@AdjustExte
$LN11@AdjustExte:
  00155	f3 0f 10 45 0c	 movss	 xmm0, DWORD PTR _y$[ebp]
  0015a	f3 0f 11 45 e8	 movss	 DWORD PTR tv150[ebp], xmm0
$LN12@AdjustExte:
  0015f	6a 04		 push	 4
  00161	58		 pop	 eax
  00162	c1 e0 02	 shl	 eax, 2
  00165	8b 4d fc	 mov	 ecx, DWORD PTR _this$[ebp]
  00168	f3 0f 10 45 e8	 movss	 xmm0, DWORD PTR tv150[ebp]
  0016d	f3 0f 11 44 01
	4c		 movss	 DWORD PTR [ecx+eax+76], xmm0

; 150  :     m_afForestExtents[5] = __max(m_afForestExtents[5], z);

  00173	6a 04		 push	 4
  00175	58		 pop	 eax
  00176	6b c0 05	 imul	 eax, eax, 5
  00179	8b 4d fc	 mov	 ecx, DWORD PTR _this$[ebp]
  0017c	f3 0f 10 44 01
	4c		 movss	 xmm0, DWORD PTR [ecx+eax+76]
  00182	0f 2f 45 10	 comiss	 xmm0, DWORD PTR _z$[ebp]
  00186	76 16		 jbe	 SHORT $LN13@AdjustExte
  00188	6a 04		 push	 4
  0018a	58		 pop	 eax
  0018b	6b c0 05	 imul	 eax, eax, 5
  0018e	8b 4d fc	 mov	 ecx, DWORD PTR _this$[ebp]
  00191	f3 0f 10 44 01
	4c		 movss	 xmm0, DWORD PTR [ecx+eax+76]
  00197	f3 0f 11 45 e4	 movss	 DWORD PTR tv161[ebp], xmm0
  0019c	eb 0a		 jmp	 SHORT $LN14@AdjustExte
$LN13@AdjustExte:
  0019e	f3 0f 10 45 10	 movss	 xmm0, DWORD PTR _z$[ebp]
  001a3	f3 0f 11 45 e4	 movss	 DWORD PTR tv161[ebp], xmm0
$LN14@AdjustExte:
  001a8	6a 04		 push	 4
  001aa	58		 pop	 eax
  001ab	6b c0 05	 imul	 eax, eax, 5
  001ae	8b 4d fc	 mov	 ecx, DWORD PTR _this$[ebp]
  001b1	f3 0f 10 45 e4	 movss	 xmm0, DWORD PTR tv161[ebp]
  001b6	f3 0f 11 44 01
	4c		 movss	 DWORD PTR [ecx+eax+76], xmm0

; 151  : }

  001bc	c9		 leave
  001bd	c2 0c 00	 ret	 12			; 0000000cH
?AdjustExtents@CSpeedTreeForest@@AAEXMMM@Z ENDP		; CSpeedTreeForest::AdjustExtents
_TEXT	ENDS
; Function compile flags: /Odspy
;	COMDAT ??1?$map@KPAVCSpeedTreeWrapper@@U?$less@K@std@@V?$allocator@U?$pair@$$CBKPAVCSpeedTreeWrapper@@@std@@@3@@std@@QAE@XZ
_TEXT	SEGMENT
_this$ = -4						; size = 4
??1?$map@KPAVCSpeedTreeWrapper@@U?$less@K@std@@V?$allocator@U?$pair@$$CBKPAVCSpeedTreeWrapper@@@std@@@3@@std@@QAE@XZ PROC ; std::map<unsigned long,CSpeedTreeWrapper *,std::less<unsigned long>,std::allocator<std::pair<unsigned long const ,CSpeedTreeWrapper *> > >::~map<unsigned long,CSpeedTreeWrapper *,std::less<unsigned long>,std::allocator<std::pair<unsigned long const ,CSpeedTreeWrapper *> > >, COMDAT
; _this$ = ecx
  00000	55		 push	 ebp
  00001	8b ec		 mov	 ebp, esp
  00003	51		 push	 ecx
  00004	89 4d fc	 mov	 DWORD PTR _this$[ebp], ecx
  00007	8b 4d fc	 mov	 ecx, DWORD PTR _this$[ebp]
  0000a	e8 00 00 00 00	 call	 ??1?$_Tree@V?$_Tmap_traits@KPAVCSpeedTreeWrapper@@U?$less@K@std@@V?$allocator@U?$pair@$$CBKPAVCSpeedTreeWrapper@@@std@@@3@$0A@@std@@@std@@QAE@XZ ; std::_Tree<std::_Tmap_traits<unsigned long,CSpeedTreeWrapper *,std::less<unsigned long>,std::allocator<std::pair<unsigned long const ,CSpeedTreeWrapper *> >,0> >::~_Tree<std::_Tmap_traits<unsigned long,CSpeedTreeWrapper *,std::less<unsigned long>,std::allocator<std::pair<unsigned long const ,CSpeedTreeWrapper *> >,0> >
  0000f	c9		 leave
  00010	c3		 ret	 0
??1?$map@KPAVCSpeedTreeWrapper@@U?$less@K@std@@V?$allocator@U?$pair@$$CBKPAVCSpeedTreeWrapper@@@std@@@3@@std@@QAE@XZ ENDP ; std::map<unsigned long,CSpeedTreeWrapper *,std::less<unsigned long>,std::allocator<std::pair<unsigned long const ,CSpeedTreeWrapper *> > >::~map<unsigned long,CSpeedTreeWrapper *,std::less<unsigned long>,std::allocator<std::pair<unsigned long const ,CSpeedTreeWrapper *> > >
_TEXT	ENDS
; Function compile flags: /Odspy
; File C:\Program Files (x86)\Microsoft Visual Studio\2019\Community\VC\Tools\MSVC\14.28.29333\include\xtree
;	COMDAT ?_Insert_node@?$_Tree_val@U?$_Tree_simple_types@U?$pair@$$CBKPAVCSpeedTreeWrapper@@@std@@@std@@@std@@QAEPAU?$_Tree_node@U?$pair@$$CBKPAVCSpeedTreeWrapper@@@std@@PAX@2@U?$_Tree_id@PAU?$_Tree_node@U?$pair@$$CBKPAVCSpeedTreeWrapper@@@std@@PAX@std@@@2@QAU32@@Z
_TEXT	SEGMENT
__Parent_sibling$1 = -20				; size = 4
__Parent_sibling$2 = -16				; size = 4
_this$ = -12						; size = 4
__Head$ = -8						; size = 4
__Pnode$3 = -4						; size = 4
__Loc$ = 8						; size = 8
__Newnode$ = 16						; size = 4
?_Insert_node@?$_Tree_val@U?$_Tree_simple_types@U?$pair@$$CBKPAVCSpeedTreeWrapper@@@std@@@std@@@std@@QAEPAU?$_Tree_node@U?$pair@$$CBKPAVCSpeedTreeWrapper@@@std@@PAX@2@U?$_Tree_id@PAU?$_Tree_node@U?$pair@$$CBKPAVCSpeedTreeWrapper@@@std@@PAX@std@@@2@QAU32@@Z PROC ; std::_Tree_val<std::_Tree_simple_types<std::pair<unsigned long const ,CSpeedTreeWrapper *> > >::_Insert_node, COMDAT
; _this$ = ecx

; 644  :     _Nodeptr _Insert_node(const _Tree_id<_Nodeptr> _Loc, const _Nodeptr _Newnode) noexcept {

  00000	55		 push	 ebp
  00001	8b ec		 mov	 ebp, esp
  00003	83 ec 14	 sub	 esp, 20			; 00000014H
  00006	89 4d f4	 mov	 DWORD PTR _this$[ebp], ecx

; 645  :         ++_Mysize;

  00009	8b 45 f4	 mov	 eax, DWORD PTR _this$[ebp]
  0000c	8b 40 04	 mov	 eax, DWORD PTR [eax+4]
  0000f	40		 inc	 eax
  00010	8b 4d f4	 mov	 ecx, DWORD PTR _this$[ebp]
  00013	89 41 04	 mov	 DWORD PTR [ecx+4], eax

; 646  :         const auto _Head  = _Myhead;

  00016	8b 45 f4	 mov	 eax, DWORD PTR _this$[ebp]
  00019	8b 00		 mov	 eax, DWORD PTR [eax]
  0001b	89 45 f8	 mov	 DWORD PTR __Head$[ebp], eax

; 647  :         _Newnode->_Parent = _Loc._Parent;

  0001e	8b 45 10	 mov	 eax, DWORD PTR __Newnode$[ebp]
  00021	8b 4d 08	 mov	 ecx, DWORD PTR __Loc$[ebp]
  00024	89 48 04	 mov	 DWORD PTR [eax+4], ecx

; 648  :         if (_Loc._Parent == _Head) { // first node in tree, just set head values

  00027	8b 45 08	 mov	 eax, DWORD PTR __Loc$[ebp]
  0002a	3b 45 f8	 cmp	 eax, DWORD PTR __Head$[ebp]
  0002d	75 29		 jne	 SHORT $LN5@Insert_nod

; 649  :             _Head->_Left     = _Newnode;

  0002f	8b 45 f8	 mov	 eax, DWORD PTR __Head$[ebp]
  00032	8b 4d 10	 mov	 ecx, DWORD PTR __Newnode$[ebp]
  00035	89 08		 mov	 DWORD PTR [eax], ecx

; 650  :             _Head->_Parent   = _Newnode;

  00037	8b 45 f8	 mov	 eax, DWORD PTR __Head$[ebp]
  0003a	8b 4d 10	 mov	 ecx, DWORD PTR __Newnode$[ebp]
  0003d	89 48 04	 mov	 DWORD PTR [eax+4], ecx

; 651  :             _Head->_Right    = _Newnode;

  00040	8b 45 f8	 mov	 eax, DWORD PTR __Head$[ebp]
  00043	8b 4d 10	 mov	 ecx, DWORD PTR __Newnode$[ebp]
  00046	89 48 08	 mov	 DWORD PTR [eax+8], ecx

; 652  :             _Newnode->_Color = _Black; // the root is black

  00049	8b 45 10	 mov	 eax, DWORD PTR __Newnode$[ebp]
  0004c	c6 40 0c 01	 mov	 BYTE PTR [eax+12], 1

; 653  :             return _Newnode;

  00050	8b 45 10	 mov	 eax, DWORD PTR __Newnode$[ebp]
  00053	e9 a3 01 00 00	 jmp	 $LN18@Insert_nod
$LN5@Insert_nod:

; 654  :         }
; 655  : 
; 656  :         _STL_INTERNAL_CHECK(_Loc._Child != _Tree_child::_Unused);
; 657  :         if (_Loc._Child == _Tree_child::_Right) { // add to right of _Loc._Parent

  00058	83 7d 0c 00	 cmp	 DWORD PTR __Loc$[ebp+4], 0
  0005c	75 1f		 jne	 SHORT $LN6@Insert_nod

; 658  :             _STL_INTERNAL_CHECK(_Loc._Parent->_Right->_Isnil);
; 659  :             _Loc._Parent->_Right = _Newnode;

  0005e	8b 45 08	 mov	 eax, DWORD PTR __Loc$[ebp]
  00061	8b 4d 10	 mov	 ecx, DWORD PTR __Newnode$[ebp]
  00064	89 48 08	 mov	 DWORD PTR [eax+8], ecx

; 660  :             if (_Loc._Parent == _Head->_Right) { // remember rightmost node

  00067	8b 45 f8	 mov	 eax, DWORD PTR __Head$[ebp]
  0006a	8b 4d 08	 mov	 ecx, DWORD PTR __Loc$[ebp]
  0006d	3b 48 08	 cmp	 ecx, DWORD PTR [eax+8]
  00070	75 09		 jne	 SHORT $LN8@Insert_nod

; 661  :                 _Head->_Right = _Newnode;

  00072	8b 45 f8	 mov	 eax, DWORD PTR __Head$[ebp]
  00075	8b 4d 10	 mov	 ecx, DWORD PTR __Newnode$[ebp]
  00078	89 48 08	 mov	 DWORD PTR [eax+8], ecx
$LN8@Insert_nod:

; 662  :             }
; 663  :         } else { // add to left of _Loc._Parent

  0007b	eb 1a		 jmp	 SHORT $LN7@Insert_nod
$LN6@Insert_nod:

; 664  :             _STL_INTERNAL_CHECK(_Loc._Parent->_Left->_Isnil);
; 665  :             _Loc._Parent->_Left = _Newnode;

  0007d	8b 45 08	 mov	 eax, DWORD PTR __Loc$[ebp]
  00080	8b 4d 10	 mov	 ecx, DWORD PTR __Newnode$[ebp]
  00083	89 08		 mov	 DWORD PTR [eax], ecx

; 666  :             if (_Loc._Parent == _Head->_Left) { // remember leftmost node

  00085	8b 45 f8	 mov	 eax, DWORD PTR __Head$[ebp]
  00088	8b 4d 08	 mov	 ecx, DWORD PTR __Loc$[ebp]
  0008b	3b 08		 cmp	 ecx, DWORD PTR [eax]
  0008d	75 08		 jne	 SHORT $LN7@Insert_nod

; 667  :                 _Head->_Left = _Newnode;

  0008f	8b 45 f8	 mov	 eax, DWORD PTR __Head$[ebp]
  00092	8b 4d 10	 mov	 ecx, DWORD PTR __Newnode$[ebp]
  00095	89 08		 mov	 DWORD PTR [eax], ecx
$LN7@Insert_nod:

; 668  :             }
; 669  :         }
; 670  : 
; 671  :         for (_Nodeptr _Pnode = _Newnode; _Pnode->_Parent->_Color == _Red;) {

  00097	8b 45 10	 mov	 eax, DWORD PTR __Newnode$[ebp]
  0009a	89 45 fc	 mov	 DWORD PTR __Pnode$3[ebp], eax
$LN4@Insert_nod:
  0009d	8b 45 fc	 mov	 eax, DWORD PTR __Pnode$3[ebp]
  000a0	8b 40 04	 mov	 eax, DWORD PTR [eax+4]
  000a3	0f be 40 0c	 movsx	 eax, BYTE PTR [eax+12]
  000a7	85 c0		 test	 eax, eax
  000a9	0f 85 3f 01 00
	00		 jne	 $LN3@Insert_nod

; 672  :             if (_Pnode->_Parent == _Pnode->_Parent->_Parent->_Left) { // fixup red-red in left subtree

  000af	8b 45 fc	 mov	 eax, DWORD PTR __Pnode$3[ebp]
  000b2	8b 40 04	 mov	 eax, DWORD PTR [eax+4]
  000b5	8b 40 04	 mov	 eax, DWORD PTR [eax+4]
  000b8	8b 4d fc	 mov	 ecx, DWORD PTR __Pnode$3[ebp]
  000bb	8b 49 04	 mov	 ecx, DWORD PTR [ecx+4]
  000be	3b 08		 cmp	 ecx, DWORD PTR [eax]
  000c0	0f 85 95 00 00
	00		 jne	 $LN10@Insert_nod

; 673  :                 const auto _Parent_sibling = _Pnode->_Parent->_Parent->_Right;

  000c6	8b 45 fc	 mov	 eax, DWORD PTR __Pnode$3[ebp]
  000c9	8b 40 04	 mov	 eax, DWORD PTR [eax+4]
  000cc	8b 40 04	 mov	 eax, DWORD PTR [eax+4]
  000cf	8b 40 08	 mov	 eax, DWORD PTR [eax+8]
  000d2	89 45 f0	 mov	 DWORD PTR __Parent_sibling$2[ebp], eax

; 674  :                 if (_Parent_sibling->_Color == _Red) { // parent's sibling has two red children, blacken both

  000d5	8b 45 f0	 mov	 eax, DWORD PTR __Parent_sibling$2[ebp]
  000d8	0f be 40 0c	 movsx	 eax, BYTE PTR [eax+12]
  000dc	85 c0		 test	 eax, eax
  000de	75 2c		 jne	 SHORT $LN12@Insert_nod

; 675  :                     _Pnode->_Parent->_Color          = _Black;

  000e0	8b 45 fc	 mov	 eax, DWORD PTR __Pnode$3[ebp]
  000e3	8b 40 04	 mov	 eax, DWORD PTR [eax+4]
  000e6	c6 40 0c 01	 mov	 BYTE PTR [eax+12], 1

; 676  :                     _Parent_sibling->_Color          = _Black;

  000ea	8b 45 f0	 mov	 eax, DWORD PTR __Parent_sibling$2[ebp]
  000ed	c6 40 0c 01	 mov	 BYTE PTR [eax+12], 1

; 677  :                     _Pnode->_Parent->_Parent->_Color = _Red;

  000f1	8b 45 fc	 mov	 eax, DWORD PTR __Pnode$3[ebp]
  000f4	8b 40 04	 mov	 eax, DWORD PTR [eax+4]
  000f7	8b 40 04	 mov	 eax, DWORD PTR [eax+4]
  000fa	c6 40 0c 00	 mov	 BYTE PTR [eax+12], 0

; 678  :                     _Pnode                           = _Pnode->_Parent->_Parent;

  000fe	8b 45 fc	 mov	 eax, DWORD PTR __Pnode$3[ebp]
  00101	8b 40 04	 mov	 eax, DWORD PTR [eax+4]
  00104	8b 40 04	 mov	 eax, DWORD PTR [eax+4]
  00107	89 45 fc	 mov	 DWORD PTR __Pnode$3[ebp], eax

; 679  :                 } else { // parent's sibling has red and black children

  0010a	eb 4a		 jmp	 SHORT $LN13@Insert_nod
$LN12@Insert_nod:

; 680  :                     if (_Pnode == _Pnode->_Parent->_Right) { // rotate right child to left

  0010c	8b 45 fc	 mov	 eax, DWORD PTR __Pnode$3[ebp]
  0010f	8b 40 04	 mov	 eax, DWORD PTR [eax+4]
  00112	8b 4d fc	 mov	 ecx, DWORD PTR __Pnode$3[ebp]
  00115	3b 48 08	 cmp	 ecx, DWORD PTR [eax+8]
  00118	75 14		 jne	 SHORT $LN14@Insert_nod

; 681  :                         _Pnode = _Pnode->_Parent;

  0011a	8b 45 fc	 mov	 eax, DWORD PTR __Pnode$3[ebp]
  0011d	8b 40 04	 mov	 eax, DWORD PTR [eax+4]
  00120	89 45 fc	 mov	 DWORD PTR __Pnode$3[ebp], eax

; 682  :                         _Lrotate(_Pnode);

  00123	ff 75 fc	 push	 DWORD PTR __Pnode$3[ebp]
  00126	8b 4d f4	 mov	 ecx, DWORD PTR _this$[ebp]
  00129	e8 00 00 00 00	 call	 ?_Lrotate@?$_Tree_val@U?$_Tree_simple_types@U?$pair@$$CBKPAVCSpeedTreeWrapper@@@std@@@std@@@std@@QAEXPAU?$_Tree_node@U?$pair@$$CBKPAVCSpeedTreeWrapper@@@std@@PAX@2@@Z ; std::_Tree_val<std::_Tree_simple_types<std::pair<unsigned long const ,CSpeedTreeWrapper *> > >::_Lrotate
$LN14@Insert_nod:

; 683  :                     }
; 684  : 
; 685  :                     _Pnode->_Parent->_Color          = _Black; // propagate red up

  0012e	8b 45 fc	 mov	 eax, DWORD PTR __Pnode$3[ebp]
  00131	8b 40 04	 mov	 eax, DWORD PTR [eax+4]
  00134	c6 40 0c 01	 mov	 BYTE PTR [eax+12], 1

; 686  :                     _Pnode->_Parent->_Parent->_Color = _Red;

  00138	8b 45 fc	 mov	 eax, DWORD PTR __Pnode$3[ebp]
  0013b	8b 40 04	 mov	 eax, DWORD PTR [eax+4]
  0013e	8b 40 04	 mov	 eax, DWORD PTR [eax+4]
  00141	c6 40 0c 00	 mov	 BYTE PTR [eax+12], 0

; 687  :                     _Rrotate(_Pnode->_Parent->_Parent);

  00145	8b 45 fc	 mov	 eax, DWORD PTR __Pnode$3[ebp]
  00148	8b 40 04	 mov	 eax, DWORD PTR [eax+4]
  0014b	ff 70 04	 push	 DWORD PTR [eax+4]
  0014e	8b 4d f4	 mov	 ecx, DWORD PTR _this$[ebp]
  00151	e8 00 00 00 00	 call	 ?_Rrotate@?$_Tree_val@U?$_Tree_simple_types@U?$pair@$$CBKPAVCSpeedTreeWrapper@@@std@@@std@@@std@@QAEXPAU?$_Tree_node@U?$pair@$$CBKPAVCSpeedTreeWrapper@@@std@@PAX@2@@Z ; std::_Tree_val<std::_Tree_simple_types<std::pair<unsigned long const ,CSpeedTreeWrapper *> > >::_Rrotate
$LN13@Insert_nod:

; 688  :                 }
; 689  :             } else { // fixup red-red in right subtree

  00156	e9 8e 00 00 00	 jmp	 $LN11@Insert_nod
$LN10@Insert_nod:

; 690  :                 const auto _Parent_sibling = _Pnode->_Parent->_Parent->_Left;

  0015b	8b 45 fc	 mov	 eax, DWORD PTR __Pnode$3[ebp]
  0015e	8b 40 04	 mov	 eax, DWORD PTR [eax+4]
  00161	8b 40 04	 mov	 eax, DWORD PTR [eax+4]
  00164	8b 00		 mov	 eax, DWORD PTR [eax]
  00166	89 45 ec	 mov	 DWORD PTR __Parent_sibling$1[ebp], eax

; 691  :                 if (_Parent_sibling->_Color == _Red) { // parent's sibling has two red children, blacken both

  00169	8b 45 ec	 mov	 eax, DWORD PTR __Parent_sibling$1[ebp]
  0016c	0f be 40 0c	 movsx	 eax, BYTE PTR [eax+12]
  00170	85 c0		 test	 eax, eax
  00172	75 2c		 jne	 SHORT $LN15@Insert_nod

; 692  :                     _Pnode->_Parent->_Color          = _Black;

  00174	8b 45 fc	 mov	 eax, DWORD PTR __Pnode$3[ebp]
  00177	8b 40 04	 mov	 eax, DWORD PTR [eax+4]
  0017a	c6 40 0c 01	 mov	 BYTE PTR [eax+12], 1

; 693  :                     _Parent_sibling->_Color          = _Black;

  0017e	8b 45 ec	 mov	 eax, DWORD PTR __Parent_sibling$1[ebp]
  00181	c6 40 0c 01	 mov	 BYTE PTR [eax+12], 1

; 694  :                     _Pnode->_Parent->_Parent->_Color = _Red;

  00185	8b 45 fc	 mov	 eax, DWORD PTR __Pnode$3[ebp]
  00188	8b 40 04	 mov	 eax, DWORD PTR [eax+4]
  0018b	8b 40 04	 mov	 eax, DWORD PTR [eax+4]
  0018e	c6 40 0c 00	 mov	 BYTE PTR [eax+12], 0

; 695  :                     _Pnode                           = _Pnode->_Parent->_Parent;

  00192	8b 45 fc	 mov	 eax, DWORD PTR __Pnode$3[ebp]
  00195	8b 40 04	 mov	 eax, DWORD PTR [eax+4]
  00198	8b 40 04	 mov	 eax, DWORD PTR [eax+4]
  0019b	89 45 fc	 mov	 DWORD PTR __Pnode$3[ebp], eax

; 696  :                 } else { // parent's sibling has red and black children

  0019e	eb 49		 jmp	 SHORT $LN11@Insert_nod
$LN15@Insert_nod:

; 697  :                     if (_Pnode == _Pnode->_Parent->_Left) { // rotate left child to right

  001a0	8b 45 fc	 mov	 eax, DWORD PTR __Pnode$3[ebp]
  001a3	8b 40 04	 mov	 eax, DWORD PTR [eax+4]
  001a6	8b 4d fc	 mov	 ecx, DWORD PTR __Pnode$3[ebp]
  001a9	3b 08		 cmp	 ecx, DWORD PTR [eax]
  001ab	75 14		 jne	 SHORT $LN17@Insert_nod

; 698  :                         _Pnode = _Pnode->_Parent;

  001ad	8b 45 fc	 mov	 eax, DWORD PTR __Pnode$3[ebp]
  001b0	8b 40 04	 mov	 eax, DWORD PTR [eax+4]
  001b3	89 45 fc	 mov	 DWORD PTR __Pnode$3[ebp], eax

; 699  :                         _Rrotate(_Pnode);

  001b6	ff 75 fc	 push	 DWORD PTR __Pnode$3[ebp]
  001b9	8b 4d f4	 mov	 ecx, DWORD PTR _this$[ebp]
  001bc	e8 00 00 00 00	 call	 ?_Rrotate@?$_Tree_val@U?$_Tree_simple_types@U?$pair@$$CBKPAVCSpeedTreeWrapper@@@std@@@std@@@std@@QAEXPAU?$_Tree_node@U?$pair@$$CBKPAVCSpeedTreeWrapper@@@std@@PAX@2@@Z ; std::_Tree_val<std::_Tree_simple_types<std::pair<unsigned long const ,CSpeedTreeWrapper *> > >::_Rrotate
$LN17@Insert_nod:

; 700  :                     }
; 701  : 
; 702  :                     _Pnode->_Parent->_Color          = _Black; // propagate red up

  001c1	8b 45 fc	 mov	 eax, DWORD PTR __Pnode$3[ebp]
  001c4	8b 40 04	 mov	 eax, DWORD PTR [eax+4]
  001c7	c6 40 0c 01	 mov	 BYTE PTR [eax+12], 1

; 703  :                     _Pnode->_Parent->_Parent->_Color = _Red;

  001cb	8b 45 fc	 mov	 eax, DWORD PTR __Pnode$3[ebp]
  001ce	8b 40 04	 mov	 eax, DWORD PTR [eax+4]
  001d1	8b 40 04	 mov	 eax, DWORD PTR [eax+4]
  001d4	c6 40 0c 00	 mov	 BYTE PTR [eax+12], 0

; 704  :                     _Lrotate(_Pnode->_Parent->_Parent);

  001d8	8b 45 fc	 mov	 eax, DWORD PTR __Pnode$3[ebp]
  001db	8b 40 04	 mov	 eax, DWORD PTR [eax+4]
  001de	ff 70 04	 push	 DWORD PTR [eax+4]
  001e1	8b 4d f4	 mov	 ecx, DWORD PTR _this$[ebp]
  001e4	e8 00 00 00 00	 call	 ?_Lrotate@?$_Tree_val@U?$_Tree_simple_types@U?$pair@$$CBKPAVCSpeedTreeWrapper@@@std@@@std@@@std@@QAEXPAU?$_Tree_node@U?$pair@$$CBKPAVCSpeedTreeWrapper@@@std@@PAX@2@@Z ; std::_Tree_val<std::_Tree_simple_types<std::pair<unsigned long const ,CSpeedTreeWrapper *> > >::_Lrotate
$LN11@Insert_nod:

; 705  :                 }
; 706  :             }
; 707  :         }

  001e9	e9 af fe ff ff	 jmp	 $LN4@Insert_nod
$LN3@Insert_nod:

; 708  : 
; 709  :         _Head->_Parent->_Color = _Black; // root is always black

  001ee	8b 45 f8	 mov	 eax, DWORD PTR __Head$[ebp]
  001f1	8b 40 04	 mov	 eax, DWORD PTR [eax+4]
  001f4	c6 40 0c 01	 mov	 BYTE PTR [eax+12], 1

; 710  :         return _Newnode;

  001f8	8b 45 10	 mov	 eax, DWORD PTR __Newnode$[ebp]
$LN18@Insert_nod:

; 711  :     }

  001fb	c9		 leave
  001fc	c2 0c 00	 ret	 12			; 0000000cH
?_Insert_node@?$_Tree_val@U?$_Tree_simple_types@U?$pair@$$CBKPAVCSpeedTreeWrapper@@@std@@@std@@@std@@QAEPAU?$_Tree_node@U?$pair@$$CBKPAVCSpeedTreeWrapper@@@std@@PAX@2@U?$_Tree_id@PAU?$_Tree_node@U?$pair@$$CBKPAVCSpeedTreeWrapper@@@std@@PAX@std@@@2@QAU32@@Z ENDP ; std::_Tree_val<std::_Tree_simple_types<std::pair<unsigned long const ,CSpeedTreeWrapper *> > >::_Insert_node
_TEXT	ENDS
; Function compile flags: /Odspy
; File C:\Program Files (x86)\Microsoft Visual Studio\2019\Community\VC\Tools\MSVC\14.28.29333\include\xtree
;	COMDAT ?_Rrotate@?$_Tree_val@U?$_Tree_simple_types@U?$pair@$$CBKPAVCSpeedTreeWrapper@@@std@@@std@@@std@@QAEXPAU?$_Tree_node@U?$pair@$$CBKPAVCSpeedTreeWrapper@@@std@@PAX@2@@Z
_TEXT	SEGMENT
_this$ = -8						; size = 4
__Pnode$ = -4						; size = 4
__Wherenode$ = 8					; size = 4
?_Rrotate@?$_Tree_val@U?$_Tree_simple_types@U?$pair@$$CBKPAVCSpeedTreeWrapper@@@std@@@std@@@std@@QAEXPAU?$_Tree_node@U?$pair@$$CBKPAVCSpeedTreeWrapper@@@std@@PAX@2@@Z PROC ; std::_Tree_val<std::_Tree_simple_types<std::pair<unsigned long const ,CSpeedTreeWrapper *> > >::_Rrotate, COMDAT
; _this$ = ecx

; 480  :     void _Rrotate(_Nodeptr _Wherenode) noexcept { // promote left node to root of subtree

  00000	55		 push	 ebp
  00001	8b ec		 mov	 ebp, esp
  00003	51		 push	 ecx
  00004	51		 push	 ecx
  00005	89 4d f8	 mov	 DWORD PTR _this$[ebp], ecx

; 481  :         _Nodeptr _Pnode   = _Wherenode->_Left;

  00008	8b 45 08	 mov	 eax, DWORD PTR __Wherenode$[ebp]
  0000b	8b 00		 mov	 eax, DWORD PTR [eax]
  0000d	89 45 fc	 mov	 DWORD PTR __Pnode$[ebp], eax

; 482  :         _Wherenode->_Left = _Pnode->_Right;

  00010	8b 45 08	 mov	 eax, DWORD PTR __Wherenode$[ebp]
  00013	8b 4d fc	 mov	 ecx, DWORD PTR __Pnode$[ebp]
  00016	8b 49 08	 mov	 ecx, DWORD PTR [ecx+8]
  00019	89 08		 mov	 DWORD PTR [eax], ecx

; 483  : 
; 484  :         if (!_Pnode->_Right->_Isnil) {

  0001b	8b 45 fc	 mov	 eax, DWORD PTR __Pnode$[ebp]
  0001e	8b 40 08	 mov	 eax, DWORD PTR [eax+8]
  00021	0f be 40 0d	 movsx	 eax, BYTE PTR [eax+13]
  00025	85 c0		 test	 eax, eax
  00027	75 0c		 jne	 SHORT $LN2@Rrotate

; 485  :             _Pnode->_Right->_Parent = _Wherenode;

  00029	8b 45 fc	 mov	 eax, DWORD PTR __Pnode$[ebp]
  0002c	8b 40 08	 mov	 eax, DWORD PTR [eax+8]
  0002f	8b 4d 08	 mov	 ecx, DWORD PTR __Wherenode$[ebp]
  00032	89 48 04	 mov	 DWORD PTR [eax+4], ecx
$LN2@Rrotate:

; 486  :         }
; 487  : 
; 488  :         _Pnode->_Parent = _Wherenode->_Parent;

  00035	8b 45 fc	 mov	 eax, DWORD PTR __Pnode$[ebp]
  00038	8b 4d 08	 mov	 ecx, DWORD PTR __Wherenode$[ebp]
  0003b	8b 49 04	 mov	 ecx, DWORD PTR [ecx+4]
  0003e	89 48 04	 mov	 DWORD PTR [eax+4], ecx

; 489  : 
; 490  :         if (_Wherenode == _Myhead->_Parent) {

  00041	8b 45 f8	 mov	 eax, DWORD PTR _this$[ebp]
  00044	8b 00		 mov	 eax, DWORD PTR [eax]
  00046	8b 4d 08	 mov	 ecx, DWORD PTR __Wherenode$[ebp]
  00049	3b 48 04	 cmp	 ecx, DWORD PTR [eax+4]
  0004c	75 0d		 jne	 SHORT $LN3@Rrotate

; 491  :             _Myhead->_Parent = _Pnode;

  0004e	8b 45 f8	 mov	 eax, DWORD PTR _this$[ebp]
  00051	8b 00		 mov	 eax, DWORD PTR [eax]
  00053	8b 4d fc	 mov	 ecx, DWORD PTR __Pnode$[ebp]
  00056	89 48 04	 mov	 DWORD PTR [eax+4], ecx
  00059	eb 27		 jmp	 SHORT $LN4@Rrotate
$LN3@Rrotate:

; 492  :         } else if (_Wherenode == _Wherenode->_Parent->_Right) {

  0005b	8b 45 08	 mov	 eax, DWORD PTR __Wherenode$[ebp]
  0005e	8b 40 04	 mov	 eax, DWORD PTR [eax+4]
  00061	8b 4d 08	 mov	 ecx, DWORD PTR __Wherenode$[ebp]
  00064	3b 48 08	 cmp	 ecx, DWORD PTR [eax+8]
  00067	75 0e		 jne	 SHORT $LN5@Rrotate

; 493  :             _Wherenode->_Parent->_Right = _Pnode;

  00069	8b 45 08	 mov	 eax, DWORD PTR __Wherenode$[ebp]
  0006c	8b 40 04	 mov	 eax, DWORD PTR [eax+4]
  0006f	8b 4d fc	 mov	 ecx, DWORD PTR __Pnode$[ebp]
  00072	89 48 08	 mov	 DWORD PTR [eax+8], ecx

; 494  :         } else {

  00075	eb 0b		 jmp	 SHORT $LN4@Rrotate
$LN5@Rrotate:

; 495  :             _Wherenode->_Parent->_Left = _Pnode;

  00077	8b 45 08	 mov	 eax, DWORD PTR __Wherenode$[ebp]
  0007a	8b 40 04	 mov	 eax, DWORD PTR [eax+4]
  0007d	8b 4d fc	 mov	 ecx, DWORD PTR __Pnode$[ebp]
  00080	89 08		 mov	 DWORD PTR [eax], ecx
$LN4@Rrotate:

; 496  :         }
; 497  : 
; 498  :         _Pnode->_Right      = _Wherenode;

  00082	8b 45 fc	 mov	 eax, DWORD PTR __Pnode$[ebp]
  00085	8b 4d 08	 mov	 ecx, DWORD PTR __Wherenode$[ebp]
  00088	89 48 08	 mov	 DWORD PTR [eax+8], ecx

; 499  :         _Wherenode->_Parent = _Pnode;

  0008b	8b 45 08	 mov	 eax, DWORD PTR __Wherenode$[ebp]
  0008e	8b 4d fc	 mov	 ecx, DWORD PTR __Pnode$[ebp]
  00091	89 48 04	 mov	 DWORD PTR [eax+4], ecx

; 500  :     }

  00094	c9		 leave
  00095	c2 04 00	 ret	 4
?_Rrotate@?$_Tree_val@U?$_Tree_simple_types@U?$pair@$$CBKPAVCSpeedTreeWrapper@@@std@@@std@@@std@@QAEXPAU?$_Tree_node@U?$pair@$$CBKPAVCSpeedTreeWrapper@@@std@@PAX@2@@Z ENDP ; std::_Tree_val<std::_Tree_simple_types<std::pair<unsigned long const ,CSpeedTreeWrapper *> > >::_Rrotate
_TEXT	ENDS
; Function compile flags: /Odspy
; File C:\Program Files (x86)\Microsoft Visual Studio\2019\Community\VC\Tools\MSVC\14.28.29333\include\xtree
;	COMDAT ?_Lrotate@?$_Tree_val@U?$_Tree_simple_types@U?$pair@$$CBKPAVCSpeedTreeWrapper@@@std@@@std@@@std@@QAEXPAU?$_Tree_node@U?$pair@$$CBKPAVCSpeedTreeWrapper@@@std@@PAX@2@@Z
_TEXT	SEGMENT
_this$ = -8						; size = 4
__Pnode$ = -4						; size = 4
__Wherenode$ = 8					; size = 4
?_Lrotate@?$_Tree_val@U?$_Tree_simple_types@U?$pair@$$CBKPAVCSpeedTreeWrapper@@@std@@@std@@@std@@QAEXPAU?$_Tree_node@U?$pair@$$CBKPAVCSpeedTreeWrapper@@@std@@PAX@2@@Z PROC ; std::_Tree_val<std::_Tree_simple_types<std::pair<unsigned long const ,CSpeedTreeWrapper *> > >::_Lrotate, COMDAT
; _this$ = ecx

; 458  :     void _Lrotate(_Nodeptr _Wherenode) noexcept { // promote right node to root of subtree

  00000	55		 push	 ebp
  00001	8b ec		 mov	 ebp, esp
  00003	51		 push	 ecx
  00004	51		 push	 ecx
  00005	89 4d f8	 mov	 DWORD PTR _this$[ebp], ecx

; 459  :         _Nodeptr _Pnode    = _Wherenode->_Right;

  00008	8b 45 08	 mov	 eax, DWORD PTR __Wherenode$[ebp]
  0000b	8b 40 08	 mov	 eax, DWORD PTR [eax+8]
  0000e	89 45 fc	 mov	 DWORD PTR __Pnode$[ebp], eax

; 460  :         _Wherenode->_Right = _Pnode->_Left;

  00011	8b 45 08	 mov	 eax, DWORD PTR __Wherenode$[ebp]
  00014	8b 4d fc	 mov	 ecx, DWORD PTR __Pnode$[ebp]
  00017	8b 09		 mov	 ecx, DWORD PTR [ecx]
  00019	89 48 08	 mov	 DWORD PTR [eax+8], ecx

; 461  : 
; 462  :         if (!_Pnode->_Left->_Isnil) {

  0001c	8b 45 fc	 mov	 eax, DWORD PTR __Pnode$[ebp]
  0001f	8b 00		 mov	 eax, DWORD PTR [eax]
  00021	0f be 40 0d	 movsx	 eax, BYTE PTR [eax+13]
  00025	85 c0		 test	 eax, eax
  00027	75 0b		 jne	 SHORT $LN2@Lrotate

; 463  :             _Pnode->_Left->_Parent = _Wherenode;

  00029	8b 45 fc	 mov	 eax, DWORD PTR __Pnode$[ebp]
  0002c	8b 00		 mov	 eax, DWORD PTR [eax]
  0002e	8b 4d 08	 mov	 ecx, DWORD PTR __Wherenode$[ebp]
  00031	89 48 04	 mov	 DWORD PTR [eax+4], ecx
$LN2@Lrotate:

; 464  :         }
; 465  : 
; 466  :         _Pnode->_Parent = _Wherenode->_Parent;

  00034	8b 45 fc	 mov	 eax, DWORD PTR __Pnode$[ebp]
  00037	8b 4d 08	 mov	 ecx, DWORD PTR __Wherenode$[ebp]
  0003a	8b 49 04	 mov	 ecx, DWORD PTR [ecx+4]
  0003d	89 48 04	 mov	 DWORD PTR [eax+4], ecx

; 467  : 
; 468  :         if (_Wherenode == _Myhead->_Parent) {

  00040	8b 45 f8	 mov	 eax, DWORD PTR _this$[ebp]
  00043	8b 00		 mov	 eax, DWORD PTR [eax]
  00045	8b 4d 08	 mov	 ecx, DWORD PTR __Wherenode$[ebp]
  00048	3b 48 04	 cmp	 ecx, DWORD PTR [eax+4]
  0004b	75 0d		 jne	 SHORT $LN3@Lrotate

; 469  :             _Myhead->_Parent = _Pnode;

  0004d	8b 45 f8	 mov	 eax, DWORD PTR _this$[ebp]
  00050	8b 00		 mov	 eax, DWORD PTR [eax]
  00052	8b 4d fc	 mov	 ecx, DWORD PTR __Pnode$[ebp]
  00055	89 48 04	 mov	 DWORD PTR [eax+4], ecx
  00058	eb 26		 jmp	 SHORT $LN4@Lrotate
$LN3@Lrotate:

; 470  :         } else if (_Wherenode == _Wherenode->_Parent->_Left) {

  0005a	8b 45 08	 mov	 eax, DWORD PTR __Wherenode$[ebp]
  0005d	8b 40 04	 mov	 eax, DWORD PTR [eax+4]
  00060	8b 4d 08	 mov	 ecx, DWORD PTR __Wherenode$[ebp]
  00063	3b 08		 cmp	 ecx, DWORD PTR [eax]
  00065	75 0d		 jne	 SHORT $LN5@Lrotate

; 471  :             _Wherenode->_Parent->_Left = _Pnode;

  00067	8b 45 08	 mov	 eax, DWORD PTR __Wherenode$[ebp]
  0006a	8b 40 04	 mov	 eax, DWORD PTR [eax+4]
  0006d	8b 4d fc	 mov	 ecx, DWORD PTR __Pnode$[ebp]
  00070	89 08		 mov	 DWORD PTR [eax], ecx

; 472  :         } else {

  00072	eb 0c		 jmp	 SHORT $LN4@Lrotate
$LN5@Lrotate:

; 473  :             _Wherenode->_Parent->_Right = _Pnode;

  00074	8b 45 08	 mov	 eax, DWORD PTR __Wherenode$[ebp]
  00077	8b 40 04	 mov	 eax, DWORD PTR [eax+4]
  0007a	8b 4d fc	 mov	 ecx, DWORD PTR __Pnode$[ebp]
  0007d	89 48 08	 mov	 DWORD PTR [eax+8], ecx
$LN4@Lrotate:

; 474  :         }
; 475  : 
; 476  :         _Pnode->_Left       = _Wherenode;

  00080	8b 45 fc	 mov	 eax, DWORD PTR __Pnode$[ebp]
  00083	8b 4d 08	 mov	 ecx, DWORD PTR __Wherenode$[ebp]
  00086	89 08		 mov	 DWORD PTR [eax], ecx

; 477  :         _Wherenode->_Parent = _Pnode;

  00088	8b 45 08	 mov	 eax, DWORD PTR __Wherenode$[ebp]
  0008b	8b 4d fc	 mov	 ecx, DWORD PTR __Pnode$[ebp]
  0008e	89 48 04	 mov	 DWORD PTR [eax+4], ecx

; 478  :     }

  00091	c9		 leave
  00092	c2 04 00	 ret	 4
?_Lrotate@?$_Tree_val@U?$_Tree_simple_types@U?$pair@$$CBKPAVCSpeedTreeWrapper@@@std@@@std@@@std@@QAEXPAU?$_Tree_node@U?$pair@$$CBKPAVCSpeedTreeWrapper@@@std@@PAX@2@@Z ENDP ; std::_Tree_val<std::_Tree_simple_types<std::pair<unsigned long const ,CSpeedTreeWrapper *> > >::_Lrotate
_TEXT	ENDS
; Function compile flags: /Odspy
; File C:\Program Files (x86)\Microsoft Visual Studio\2019\Community\VC\Tools\MSVC\14.28.29333\include\xtree
; File C:\Program Files (x86)\Microsoft Visual Studio\2019\Community\VC\Tools\MSVC\14.28.29333\include\xstddef
; File C:\Program Files (x86)\Microsoft Visual Studio\2019\Community\VC\Tools\MSVC\14.28.29333\include\xtree
; File C:\Program Files (x86)\Microsoft Visual Studio\2019\Community\VC\Tools\MSVC\14.28.29333\include\xmemory
; File C:\Program Files (x86)\Microsoft Visual Studio\2019\Community\VC\Tools\MSVC\14.28.29333\include\xtree
;	COMDAT ?_Alloc_sentinel_and_proxy@?$_Tree@V?$_Tmap_traits@KPAVCSpeedTreeWrapper@@U?$less@K@std@@V?$allocator@U?$pair@$$CBKPAVCSpeedTreeWrapper@@@std@@@3@$0A@@std@@@std@@IAEXXZ
_TEXT	SEGMENT
__Alproxy$ = -28					; size = 4
__Scary$ = -24						; size = 4
$T1 = -20						; size = 4
$T2 = -16						; size = 4
$T3 = -12						; size = 4
_this$ = -8						; size = 4
_$S10$ = -1						; size = 1
?_Alloc_sentinel_and_proxy@?$_Tree@V?$_Tmap_traits@KPAVCSpeedTreeWrapper@@U?$less@K@std@@V?$allocator@U?$pair@$$CBKPAVCSpeedTreeWrapper@@@std@@@3@$0A@@std@@@std@@IAEXXZ PROC ; std::_Tree<std::_Tmap_traits<unsigned long,CSpeedTreeWrapper *,std::less<unsigned long>,std::allocator<std::pair<unsigned long const ,CSpeedTreeWrapper *> >,0> >::_Alloc_sentinel_and_proxy, COMDAT
; _this$ = ecx

; 2017 :     void _Alloc_sentinel_and_proxy() {

  00000	55		 push	 ebp
  00001	8b ec		 mov	 ebp, esp
  00003	83 ec 1c	 sub	 esp, 28			; 0000001cH
  00006	89 4d f8	 mov	 DWORD PTR _this$[ebp], ecx

; 2047 :         return _STD addressof(_Mypair._Myval2._Myval2);

  00009	8b 45 f8	 mov	 eax, DWORD PTR _this$[ebp]
; File C:\Program Files (x86)\Microsoft Visual Studio\2019\Community\VC\Tools\MSVC\14.28.29333\include\xstddef

; 275  :     return __builtin_addressof(_Val);

  0000c	89 45 f4	 mov	 DWORD PTR $T3[ebp], eax
; File C:\Program Files (x86)\Microsoft Visual Studio\2019\Community\VC\Tools\MSVC\14.28.29333\include\xtree

; 2047 :         return _STD addressof(_Mypair._Myval2._Myval2);

  0000f	8b 45 f4	 mov	 eax, DWORD PTR $T3[ebp]
  00012	89 45 e8	 mov	 DWORD PTR __Scary$[ebp], eax

; 2018 :         const auto _Scary = _Get_scary();
; 2019 :         auto&& _Alproxy   = _GET_PROXY_ALLOCATOR(_Alnode, _Getal());

  00015	8d 45 ff	 lea	 eax, DWORD PTR _$S10$[ebp]
  00018	89 45 e4	 mov	 DWORD PTR __Alproxy$[ebp], eax

; 2039 :         return _Mypair._Myval2._Get_first();

  0001b	8b 45 f8	 mov	 eax, DWORD PTR _this$[ebp]
; File C:\Program Files (x86)\Microsoft Visual Studio\2019\Community\VC\Tools\MSVC\14.28.29333\include\xmemory

; 1347 :         return *this;

  0001e	89 45 f0	 mov	 DWORD PTR $T2[ebp], eax
; File C:\Program Files (x86)\Microsoft Visual Studio\2019\Community\VC\Tools\MSVC\14.28.29333\include\xtree

; 2039 :         return _Mypair._Myval2._Get_first();

  00021	8b 45 f0	 mov	 eax, DWORD PTR $T2[ebp]
  00024	89 45 ec	 mov	 DWORD PTR $T1[ebp], eax

; 2020 :         _Container_proxy_ptr<_Alnode> _Proxy(_Alproxy, *_Scary);
; 2021 :         _Scary->_Myhead = _Node::_Buyheadnode(_Getal());

  00027	ff 75 ec	 push	 DWORD PTR $T1[ebp]
  0002a	e8 00 00 00 00	 call	 ??$_Buyheadnode@V?$allocator@U?$_Tree_node@U?$pair@$$CBKPAVCSpeedTreeWrapper@@@std@@PAX@std@@@std@@@?$_Tree_node@U?$pair@$$CBKPAVCSpeedTreeWrapper@@@std@@PAX@std@@SAPAU01@AAV?$allocator@U?$_Tree_node@U?$pair@$$CBKPAVCSpeedTreeWrapper@@@std@@PAX@std@@@1@@Z ; std::_Tree_node<std::pair<unsigned long const ,CSpeedTreeWrapper *>,void *>::_Buyheadnode<std::allocator<std::_Tree_node<std::pair<unsigned long const ,CSpeedTreeWrapper *>,void *> > >
  0002f	59		 pop	 ecx
  00030	8b 4d e8	 mov	 ecx, DWORD PTR __Scary$[ebp]
  00033	89 01		 mov	 DWORD PTR [ecx], eax

; 2022 :         _Proxy._Release();
; 2023 :     }

  00035	c9		 leave
  00036	c3		 ret	 0
?_Alloc_sentinel_and_proxy@?$_Tree@V?$_Tmap_traits@KPAVCSpeedTreeWrapper@@U?$less@K@std@@V?$allocator@U?$pair@$$CBKPAVCSpeedTreeWrapper@@@std@@@3@$0A@@std@@@std@@IAEXXZ ENDP ; std::_Tree<std::_Tmap_traits<unsigned long,CSpeedTreeWrapper *,std::less<unsigned long>,std::allocator<std::pair<unsigned long const ,CSpeedTreeWrapper *> >,0> >::_Alloc_sentinel_and_proxy
_TEXT	ENDS
; Function compile flags: /Odspy
; File C:\Program Files (x86)\Microsoft Visual Studio\2019\Community\VC\Tools\MSVC\14.28.29333\include\xtree
; File C:\Program Files (x86)\Microsoft Visual Studio\2019\Community\VC\Tools\MSVC\14.28.29333\include\xstddef
; File C:\Program Files (x86)\Microsoft Visual Studio\2019\Community\VC\Tools\MSVC\14.28.29333\include\xtree
;	COMDAT ?_Check_grow_by_1@?$_Tree@V?$_Tmap_traits@KPAVCSpeedTreeWrapper@@U?$less@K@std@@V?$allocator@U?$pair@$$CBKPAVCSpeedTreeWrapper@@@std@@@3@$0A@@std@@@std@@IAEXXZ
_TEXT	SEGMENT
$T1 = -12						; size = 4
$T2 = -8						; size = 4
_this$ = -4						; size = 4
?_Check_grow_by_1@?$_Tree@V?$_Tmap_traits@KPAVCSpeedTreeWrapper@@U?$less@K@std@@V?$allocator@U?$pair@$$CBKPAVCSpeedTreeWrapper@@@std@@@3@$0A@@std@@@std@@IAEXXZ PROC ; std::_Tree<std::_Tmap_traits<unsigned long,CSpeedTreeWrapper *,std::less<unsigned long>,std::allocator<std::pair<unsigned long const ,CSpeedTreeWrapper *> >,0> >::_Check_grow_by_1, COMDAT
; _this$ = ecx

; 1718 :     void _Check_grow_by_1() {

  00000	55		 push	 ebp
  00001	8b ec		 mov	 ebp, esp
  00003	83 ec 0c	 sub	 esp, 12			; 0000000cH
  00006	89 4d fc	 mov	 DWORD PTR _this$[ebp], ecx

; 2047 :         return _STD addressof(_Mypair._Myval2._Myval2);

  00009	8b 45 fc	 mov	 eax, DWORD PTR _this$[ebp]
; File C:\Program Files (x86)\Microsoft Visual Studio\2019\Community\VC\Tools\MSVC\14.28.29333\include\xstddef

; 275  :     return __builtin_addressof(_Val);

  0000c	89 45 f8	 mov	 DWORD PTR $T2[ebp], eax
; File C:\Program Files (x86)\Microsoft Visual Studio\2019\Community\VC\Tools\MSVC\14.28.29333\include\xtree

; 2047 :         return _STD addressof(_Mypair._Myval2._Myval2);

  0000f	8b 45 f8	 mov	 eax, DWORD PTR $T2[ebp]
  00012	89 45 f4	 mov	 DWORD PTR $T1[ebp], eax

; 1719 :         if (max_size() == _Get_scary()->_Mysize) {

  00015	8b 4d fc	 mov	 ecx, DWORD PTR _this$[ebp]
  00018	e8 00 00 00 00	 call	 ?max_size@?$_Tree@V?$_Tmap_traits@KPAVCSpeedTreeWrapper@@U?$less@K@std@@V?$allocator@U?$pair@$$CBKPAVCSpeedTreeWrapper@@@std@@@3@$0A@@std@@@std@@QBEIXZ ; std::_Tree<std::_Tmap_traits<unsigned long,CSpeedTreeWrapper *,std::less<unsigned long>,std::allocator<std::pair<unsigned long const ,CSpeedTreeWrapper *> >,0> >::max_size
  0001d	8b 4d f4	 mov	 ecx, DWORD PTR $T1[ebp]
  00020	3b 41 04	 cmp	 eax, DWORD PTR [ecx+4]
  00023	75 05		 jne	 SHORT $LN3@Check_grow

; 1720 :             _Throw_tree_length_error();

  00025	e8 00 00 00 00	 call	 ?_Throw_tree_length_error@std@@YAXXZ ; std::_Throw_tree_length_error
$LN3@Check_grow:

; 1721 :         }
; 1722 :     }

  0002a	c9		 leave
  0002b	c3		 ret	 0
?_Check_grow_by_1@?$_Tree@V?$_Tmap_traits@KPAVCSpeedTreeWrapper@@U?$less@K@std@@V?$allocator@U?$pair@$$CBKPAVCSpeedTreeWrapper@@@std@@@3@$0A@@std@@@std@@IAEXXZ ENDP ; std::_Tree<std::_Tmap_traits<unsigned long,CSpeedTreeWrapper *,std::less<unsigned long>,std::allocator<std::pair<unsigned long const ,CSpeedTreeWrapper *> >,0> >::_Check_grow_by_1
_TEXT	ENDS
; Function compile flags: /Odspy
; File C:\Program Files (x86)\Microsoft Visual Studio\2019\Community\VC\Tools\MSVC\14.28.29333\include\xtree
; File C:\Program Files (x86)\Microsoft Visual Studio\2019\Community\VC\Tools\MSVC\14.28.29333\include\xstddef
; File C:\Program Files (x86)\Microsoft Visual Studio\2019\Community\VC\Tools\MSVC\14.28.29333\include\xtree
;	COMDAT ?find@?$_Tree@V?$_Tmap_traits@KPAVCSpeedTreeWrapper@@U?$less@K@std@@V?$allocator@U?$pair@$$CBKPAVCSpeedTreeWrapper@@@std@@@3@$0A@@std@@@std@@QAE?AV?$_Tree_iterator@V?$_Tree_val@U?$_Tree_simple_types@U?$pair@$$CBKPAVCSpeedTreeWrapper@@@std@@@std@@@std@@@2@ABK@Z
_TEXT	SEGMENT
$T1 = -16						; size = 4
___param0$ = -12					; size = 4
$T2 = -8						; size = 4
_this$ = -4						; size = 4
___$ReturnUdt$ = 8					; size = 4
__Keyval$ = 12						; size = 4
?find@?$_Tree@V?$_Tmap_traits@KPAVCSpeedTreeWrapper@@U?$less@K@std@@V?$allocator@U?$pair@$$CBKPAVCSpeedTreeWrapper@@@std@@@3@$0A@@std@@@std@@QAE?AV?$_Tree_iterator@V?$_Tree_val@U?$_Tree_simple_types@U?$pair@$$CBKPAVCSpeedTreeWrapper@@@std@@@std@@@std@@@2@ABK@Z PROC ; std::_Tree<std::_Tmap_traits<unsigned long,CSpeedTreeWrapper *,std::less<unsigned long>,std::allocator<std::pair<unsigned long const ,CSpeedTreeWrapper *> >,0> >::find, COMDAT
; _this$ = ecx

; 1467 :     _NODISCARD iterator find(const key_type& _Keyval) {

  00000	55		 push	 ebp
  00001	8b ec		 mov	 ebp, esp
  00003	83 ec 10	 sub	 esp, 16			; 00000010H
  00006	89 4d fc	 mov	 DWORD PTR _this$[ebp], ecx

; 2047 :         return _STD addressof(_Mypair._Myval2._Myval2);

  00009	8b 45 fc	 mov	 eax, DWORD PTR _this$[ebp]
; File C:\Program Files (x86)\Microsoft Visual Studio\2019\Community\VC\Tools\MSVC\14.28.29333\include\xstddef

; 275  :     return __builtin_addressof(_Val);

  0000c	89 45 f8	 mov	 DWORD PTR $T2[ebp], eax
; File C:\Program Files (x86)\Microsoft Visual Studio\2019\Community\VC\Tools\MSVC\14.28.29333\include\xtree

; 2047 :         return _STD addressof(_Mypair._Myval2._Myval2);

  0000f	8b 45 f8	 mov	 eax, DWORD PTR $T2[ebp]
  00012	89 45 f0	 mov	 DWORD PTR $T1[ebp], eax

; 1468 :         return iterator(_Find(_Keyval), _Get_scary());

  00015	ff 75 0c	 push	 DWORD PTR __Keyval$[ebp]
  00018	8b 4d fc	 mov	 ecx, DWORD PTR _this$[ebp]
  0001b	e8 00 00 00 00	 call	 ??$_Find@K@?$_Tree@V?$_Tmap_traits@KPAVCSpeedTreeWrapper@@U?$less@K@std@@V?$allocator@U?$pair@$$CBKPAVCSpeedTreeWrapper@@@std@@@3@$0A@@std@@@std@@ABEPAU?$_Tree_node@U?$pair@$$CBKPAVCSpeedTreeWrapper@@@std@@PAX@1@ABK@Z ; std::_Tree<std::_Tmap_traits<unsigned long,CSpeedTreeWrapper *,std::less<unsigned long>,std::allocator<std::pair<unsigned long const ,CSpeedTreeWrapper *> >,0> >::_Find<unsigned long>
  00020	89 45 f4	 mov	 DWORD PTR ___param0$[ebp], eax

; 39   :     _Tree_unchecked_const_iterator(_Nodeptr _Pnode, const _Mytree* _Plist) noexcept : _Ptr(_Pnode) {

  00023	8b 45 08	 mov	 eax, DWORD PTR ___$ReturnUdt$[ebp]
  00026	8b 4d f4	 mov	 ecx, DWORD PTR ___param0$[ebp]
  00029	89 08		 mov	 DWORD PTR [eax], ecx

; 1468 :         return iterator(_Find(_Keyval), _Get_scary());

  0002b	8b 45 08	 mov	 eax, DWORD PTR ___$ReturnUdt$[ebp]

; 1469 :     }

  0002e	c9		 leave
  0002f	c2 08 00	 ret	 8
?find@?$_Tree@V?$_Tmap_traits@KPAVCSpeedTreeWrapper@@U?$less@K@std@@V?$allocator@U?$pair@$$CBKPAVCSpeedTreeWrapper@@@std@@@3@$0A@@std@@@std@@QAE?AV?$_Tree_iterator@V?$_Tree_val@U?$_Tree_simple_types@U?$pair@$$CBKPAVCSpeedTreeWrapper@@@std@@@std@@@std@@@2@ABK@Z ENDP ; std::_Tree<std::_Tmap_traits<unsigned long,CSpeedTreeWrapper *,std::less<unsigned long>,std::allocator<std::pair<unsigned long const ,CSpeedTreeWrapper *> >,0> >::find
_TEXT	ENDS
; Function compile flags: /Odspy
; File C:\Program Files (x86)\Microsoft Visual Studio\2019\Community\VC\Tools\MSVC\14.28.29333\include\xtree
; File C:\Program Files (x86)\Microsoft Visual Studio\2019\Community\VC\Tools\MSVC\14.28.29333\include\xstddef
; File C:\Program Files (x86)\Microsoft Visual Studio\2019\Community\VC\Tools\MSVC\14.28.29333\include\xtree
; File C:\Program Files (x86)\Microsoft Visual Studio\2019\Community\VC\Tools\MSVC\14.28.29333\include\xmemory
; File C:\Program Files (x86)\Microsoft Visual Studio\2019\Community\VC\Tools\MSVC\14.28.29333\include\xtree
;	COMDAT ?clear@?$_Tree@V?$_Tmap_traits@KPAVCSpeedTreeWrapper@@U?$less@K@std@@V?$allocator@U?$pair@$$CBKPAVCSpeedTreeWrapper@@@std@@@3@$0A@@std@@@std@@QAEXXZ
_TEXT	SEGMENT
$T1 = -24						; size = 4
$T2 = -20						; size = 4
$T3 = -16						; size = 4
_this$ = -12						; size = 4
__Scary$ = -8						; size = 4
__Head$ = -4						; size = 4
?clear@?$_Tree@V?$_Tmap_traits@KPAVCSpeedTreeWrapper@@U?$less@K@std@@V?$allocator@U?$pair@$$CBKPAVCSpeedTreeWrapper@@@std@@@3@$0A@@std@@@std@@QAEXXZ PROC ; std::_Tree<std::_Tmap_traits<unsigned long,CSpeedTreeWrapper *,std::less<unsigned long>,std::allocator<std::pair<unsigned long const ,CSpeedTreeWrapper *> >,0> >::clear, COMDAT
; _this$ = ecx

; 1444 :     void clear() noexcept {

  00000	55		 push	 ebp
  00001	8b ec		 mov	 ebp, esp
  00003	83 ec 18	 sub	 esp, 24			; 00000018H
  00006	89 4d f4	 mov	 DWORD PTR _this$[ebp], ecx

; 2047 :         return _STD addressof(_Mypair._Myval2._Myval2);

  00009	8b 45 f4	 mov	 eax, DWORD PTR _this$[ebp]
; File C:\Program Files (x86)\Microsoft Visual Studio\2019\Community\VC\Tools\MSVC\14.28.29333\include\xstddef

; 275  :     return __builtin_addressof(_Val);

  0000c	89 45 f0	 mov	 DWORD PTR $T3[ebp], eax
; File C:\Program Files (x86)\Microsoft Visual Studio\2019\Community\VC\Tools\MSVC\14.28.29333\include\xtree

; 2047 :         return _STD addressof(_Mypair._Myval2._Myval2);

  0000f	8b 45 f0	 mov	 eax, DWORD PTR $T3[ebp]
  00012	89 45 f8	 mov	 DWORD PTR __Scary$[ebp], eax

; 1445 :         const auto _Scary = _Get_scary();
; 1446 :         _Scary->_Orphan_ptr(nullptr);
; 1447 :         auto _Head = _Scary->_Myhead;

  00015	8b 45 f8	 mov	 eax, DWORD PTR __Scary$[ebp]
  00018	8b 00		 mov	 eax, DWORD PTR [eax]
  0001a	89 45 fc	 mov	 DWORD PTR __Head$[ebp], eax

; 2039 :         return _Mypair._Myval2._Get_first();

  0001d	8b 45 f4	 mov	 eax, DWORD PTR _this$[ebp]
; File C:\Program Files (x86)\Microsoft Visual Studio\2019\Community\VC\Tools\MSVC\14.28.29333\include\xmemory

; 1347 :         return *this;

  00020	89 45 ec	 mov	 DWORD PTR $T2[ebp], eax
; File C:\Program Files (x86)\Microsoft Visual Studio\2019\Community\VC\Tools\MSVC\14.28.29333\include\xtree

; 2039 :         return _Mypair._Myval2._Get_first();

  00023	8b 45 ec	 mov	 eax, DWORD PTR $T2[ebp]
  00026	89 45 e8	 mov	 DWORD PTR $T1[ebp], eax

; 1448 :         _Scary->_Erase_tree(_Getal(), _Head->_Parent);

  00029	8b 45 fc	 mov	 eax, DWORD PTR __Head$[ebp]
  0002c	ff 70 04	 push	 DWORD PTR [eax+4]
  0002f	ff 75 e8	 push	 DWORD PTR $T1[ebp]
  00032	8b 4d f8	 mov	 ecx, DWORD PTR __Scary$[ebp]
  00035	e8 00 00 00 00	 call	 ??$_Erase_tree@V?$allocator@U?$_Tree_node@U?$pair@$$CBKPAVCSpeedTreeWrapper@@@std@@PAX@std@@@std@@@?$_Tree_val@U?$_Tree_simple_types@U?$pair@$$CBKPAVCSpeedTreeWrapper@@@std@@@std@@@std@@QAEXAAV?$allocator@U?$_Tree_node@U?$pair@$$CBKPAVCSpeedTreeWrapper@@@std@@PAX@std@@@1@PAU?$_Tree_node@U?$pair@$$CBKPAVCSpeedTreeWrapper@@@std@@PAX@1@@Z ; std::_Tree_val<std::_Tree_simple_types<std::pair<unsigned long const ,CSpeedTreeWrapper *> > >::_Erase_tree<std::allocator<std::_Tree_node<std::pair<unsigned long const ,CSpeedTreeWrapper *>,void *> > >

; 1449 :         _Head->_Parent  = _Head;

  0003a	8b 45 fc	 mov	 eax, DWORD PTR __Head$[ebp]
  0003d	8b 4d fc	 mov	 ecx, DWORD PTR __Head$[ebp]
  00040	89 48 04	 mov	 DWORD PTR [eax+4], ecx

; 1450 :         _Head->_Left    = _Head;

  00043	8b 45 fc	 mov	 eax, DWORD PTR __Head$[ebp]
  00046	8b 4d fc	 mov	 ecx, DWORD PTR __Head$[ebp]
  00049	89 08		 mov	 DWORD PTR [eax], ecx

; 1451 :         _Head->_Right   = _Head;

  0004b	8b 45 fc	 mov	 eax, DWORD PTR __Head$[ebp]
  0004e	8b 4d fc	 mov	 ecx, DWORD PTR __Head$[ebp]
  00051	89 48 08	 mov	 DWORD PTR [eax+8], ecx

; 1452 :         _Scary->_Mysize = 0;

  00054	8b 45 f8	 mov	 eax, DWORD PTR __Scary$[ebp]
  00057	83 60 04 00	 and	 DWORD PTR [eax+4], 0

; 1453 :     }

  0005b	c9		 leave
  0005c	c3		 ret	 0
?clear@?$_Tree@V?$_Tmap_traits@KPAVCSpeedTreeWrapper@@U?$less@K@std@@V?$allocator@U?$pair@$$CBKPAVCSpeedTreeWrapper@@@std@@@3@$0A@@std@@@std@@QAEXXZ ENDP ; std::_Tree<std::_Tmap_traits<unsigned long,CSpeedTreeWrapper *,std::less<unsigned long>,std::allocator<std::pair<unsigned long const ,CSpeedTreeWrapper *> >,0> >::clear
_TEXT	ENDS
; Function compile flags: /Odspy
; File C:\Program Files (x86)\Microsoft Visual Studio\2019\Community\VC\Tools\MSVC\14.28.29333\include\xtree
; File C:\Program Files (x86)\Microsoft Visual Studio\2019\Community\VC\Tools\MSVC\14.28.29333\include\xmemory
; File C:\Program Files (x86)\Microsoft Visual Studio\2019\Community\VC\Tools\MSVC\14.28.29333\include\xtree
; File C:\Program Files (x86)\Microsoft Visual Studio\2019\Community\VC\Tools\MSVC\14.28.29333\include\xmemory
; File C:\Program Files (x86)\Microsoft Visual Studio\2019\Community\VC\Tools\MSVC\14.28.29333\include\limits
; File C:\Program Files (x86)\Microsoft Visual Studio\2019\Community\VC\Tools\MSVC\14.28.29333\include\xtree
; File C:\Program Files (x86)\Microsoft Visual Studio\2019\Community\VC\Tools\MSVC\14.28.29333\include\utility
; File C:\Program Files (x86)\Microsoft Visual Studio\2019\Community\VC\Tools\MSVC\14.28.29333\include\xtree
;	COMDAT ?max_size@?$_Tree@V?$_Tmap_traits@KPAVCSpeedTreeWrapper@@U?$less@K@std@@V?$allocator@U?$pair@$$CBKPAVCSpeedTreeWrapper@@@std@@@3@$0A@@std@@@std@@QBEIXZ
_TEXT	SEGMENT
$T1 = -36						; size = 4
$T2 = -32						; size = 4
$T3 = -28						; size = 4
$T4 = -24						; size = 4
$T5 = -20						; size = 4
_this$ = -16						; size = 4
tv68 = -12						; size = 4
$T6 = -8						; size = 4
$T7 = -4						; size = 4
?max_size@?$_Tree@V?$_Tmap_traits@KPAVCSpeedTreeWrapper@@U?$less@K@std@@V?$allocator@U?$pair@$$CBKPAVCSpeedTreeWrapper@@@std@@@3@$0A@@std@@@std@@QBEIXZ PROC ; std::_Tree<std::_Tmap_traits<unsigned long,CSpeedTreeWrapper *,std::less<unsigned long>,std::allocator<std::pair<unsigned long const ,CSpeedTreeWrapper *> >,0> >::max_size, COMDAT
; _this$ = ecx

; 1310 :     _NODISCARD size_type max_size() const noexcept {

  00000	55		 push	 ebp
  00001	8b ec		 mov	 ebp, esp
  00003	83 ec 24	 sub	 esp, 36			; 00000024H
  00006	89 4d f0	 mov	 DWORD PTR _this$[ebp], ecx

; 2043 :         return _Mypair._Myval2._Get_first();

  00009	8b 45 f0	 mov	 eax, DWORD PTR _this$[ebp]
; File C:\Program Files (x86)\Microsoft Visual Studio\2019\Community\VC\Tools\MSVC\14.28.29333\include\xmemory

; 1351 :         return *this;

  0000c	89 45 ec	 mov	 DWORD PTR $T5[ebp], eax
; File C:\Program Files (x86)\Microsoft Visual Studio\2019\Community\VC\Tools\MSVC\14.28.29333\include\xtree

; 2043 :         return _Mypair._Myval2._Get_first();

  0000f	8b 45 ec	 mov	 eax, DWORD PTR $T5[ebp]
  00012	89 45 dc	 mov	 DWORD PTR $T1[ebp], eax
; File C:\Program Files (x86)\Microsoft Visual Studio\2019\Community\VC\Tools\MSVC\14.28.29333\include\xmemory

; 710  :         return static_cast<size_t>(-1) / sizeof(value_type);

  00015	c7 45 fc aa aa
	aa 0a		 mov	 DWORD PTR $T7[ebp], 178956970 ; 0aaaaaaaH
; File C:\Program Files (x86)\Microsoft Visual Studio\2019\Community\VC\Tools\MSVC\14.28.29333\include\limits

; 557  :         return INT_MAX;

  0001c	c7 45 e8 ff ff
	ff 7f		 mov	 DWORD PTR $T4[ebp], 2147483647 ; 7fffffffH
; File C:\Program Files (x86)\Microsoft Visual Studio\2019\Community\VC\Tools\MSVC\14.28.29333\include\xtree

; 1311 :         return (_STD min)(

  00023	8b 45 e8	 mov	 eax, DWORD PTR $T4[ebp]
  00026	89 45 f8	 mov	 DWORD PTR $T6[ebp], eax
; File C:\Program Files (x86)\Microsoft Visual Studio\2019\Community\VC\Tools\MSVC\14.28.29333\include\utility

; 68   :     return _Right < _Left ? _Right : _Left;

  00029	8b 45 fc	 mov	 eax, DWORD PTR $T7[ebp]
  0002c	3b 45 f8	 cmp	 eax, DWORD PTR $T6[ebp]
  0002f	73 08		 jae	 SHORT $LN17@max_size
  00031	8d 45 fc	 lea	 eax, DWORD PTR $T7[ebp]
  00034	89 45 f4	 mov	 DWORD PTR tv68[ebp], eax
  00037	eb 06		 jmp	 SHORT $LN18@max_size
$LN17@max_size:
  00039	8d 45 f8	 lea	 eax, DWORD PTR $T6[ebp]
  0003c	89 45 f4	 mov	 DWORD PTR tv68[ebp], eax
$LN18@max_size:
  0003f	8b 45 f4	 mov	 eax, DWORD PTR tv68[ebp]
  00042	89 45 e4	 mov	 DWORD PTR $T3[ebp], eax
  00045	8b 45 e4	 mov	 eax, DWORD PTR $T3[ebp]
  00048	89 45 e0	 mov	 DWORD PTR $T2[ebp], eax
; File C:\Program Files (x86)\Microsoft Visual Studio\2019\Community\VC\Tools\MSVC\14.28.29333\include\xtree

; 1311 :         return (_STD min)(

  0004b	8b 45 e0	 mov	 eax, DWORD PTR $T2[ebp]
  0004e	8b 00		 mov	 eax, DWORD PTR [eax]

; 1312 :             static_cast<size_type>((numeric_limits<difference_type>::max)()), _Alnode_traits::max_size(_Getal()));
; 1313 :     }

  00050	c9		 leave
  00051	c3		 ret	 0
?max_size@?$_Tree@V?$_Tmap_traits@KPAVCSpeedTreeWrapper@@U?$less@K@std@@V?$allocator@U?$pair@$$CBKPAVCSpeedTreeWrapper@@@std@@@3@$0A@@std@@@std@@QBEIXZ ENDP ; std::_Tree<std::_Tmap_traits<unsigned long,CSpeedTreeWrapper *,std::less<unsigned long>,std::allocator<std::pair<unsigned long const ,CSpeedTreeWrapper *> >,0> >::max_size
_TEXT	ENDS
; Function compile flags: /Odspy
; File C:\Program Files (x86)\Microsoft Visual Studio\2019\Community\VC\Tools\MSVC\14.28.29333\include\xtree
; File C:\Program Files (x86)\Microsoft Visual Studio\2019\Community\VC\Tools\MSVC\14.28.29333\include\xstddef
; File C:\Program Files (x86)\Microsoft Visual Studio\2019\Community\VC\Tools\MSVC\14.28.29333\include\xtree
;	COMDAT ?begin@?$_Tree@V?$_Tmap_traits@KPAVCSpeedTreeWrapper@@U?$less@K@std@@V?$allocator@U?$pair@$$CBKPAVCSpeedTreeWrapper@@@std@@@3@$0A@@std@@@std@@QAE?AV?$_Tree_iterator@V?$_Tree_val@U?$_Tree_simple_types@U?$pair@$$CBKPAVCSpeedTreeWrapper@@@std@@@std@@@std@@@2@XZ
_TEXT	SEGMENT
___param0$ = -16					; size = 4
__Scary$ = -12						; size = 4
$T1 = -8						; size = 4
_this$ = -4						; size = 4
___$ReturnUdt$ = 8					; size = 4
?begin@?$_Tree@V?$_Tmap_traits@KPAVCSpeedTreeWrapper@@U?$less@K@std@@V?$allocator@U?$pair@$$CBKPAVCSpeedTreeWrapper@@@std@@@3@$0A@@std@@@std@@QAE?AV?$_Tree_iterator@V?$_Tree_val@U?$_Tree_simple_types@U?$pair@$$CBKPAVCSpeedTreeWrapper@@@std@@@std@@@std@@@2@XZ PROC ; std::_Tree<std::_Tmap_traits<unsigned long,CSpeedTreeWrapper *,std::less<unsigned long>,std::allocator<std::pair<unsigned long const ,CSpeedTreeWrapper *> >,0> >::begin, COMDAT
; _this$ = ecx

; 1238 :     _NODISCARD iterator begin() noexcept {

  00000	55		 push	 ebp
  00001	8b ec		 mov	 ebp, esp
  00003	83 ec 10	 sub	 esp, 16			; 00000010H
  00006	89 4d fc	 mov	 DWORD PTR _this$[ebp], ecx

; 2047 :         return _STD addressof(_Mypair._Myval2._Myval2);

  00009	8b 45 fc	 mov	 eax, DWORD PTR _this$[ebp]
; File C:\Program Files (x86)\Microsoft Visual Studio\2019\Community\VC\Tools\MSVC\14.28.29333\include\xstddef

; 275  :     return __builtin_addressof(_Val);

  0000c	89 45 f8	 mov	 DWORD PTR $T1[ebp], eax
; File C:\Program Files (x86)\Microsoft Visual Studio\2019\Community\VC\Tools\MSVC\14.28.29333\include\xtree

; 2047 :         return _STD addressof(_Mypair._Myval2._Myval2);

  0000f	8b 45 f8	 mov	 eax, DWORD PTR $T1[ebp]
  00012	89 45 f4	 mov	 DWORD PTR __Scary$[ebp], eax

; 1239 :         const auto _Scary = _Get_scary();
; 1240 :         return iterator(_Scary->_Myhead->_Left, _Scary);

  00015	8b 45 f4	 mov	 eax, DWORD PTR __Scary$[ebp]
  00018	8b 00		 mov	 eax, DWORD PTR [eax]
  0001a	8b 00		 mov	 eax, DWORD PTR [eax]
  0001c	89 45 f0	 mov	 DWORD PTR ___param0$[ebp], eax

; 39   :     _Tree_unchecked_const_iterator(_Nodeptr _Pnode, const _Mytree* _Plist) noexcept : _Ptr(_Pnode) {

  0001f	8b 45 08	 mov	 eax, DWORD PTR ___$ReturnUdt$[ebp]
  00022	8b 4d f0	 mov	 ecx, DWORD PTR ___param0$[ebp]
  00025	89 08		 mov	 DWORD PTR [eax], ecx

; 1239 :         const auto _Scary = _Get_scary();
; 1240 :         return iterator(_Scary->_Myhead->_Left, _Scary);

  00027	8b 45 08	 mov	 eax, DWORD PTR ___$ReturnUdt$[ebp]

; 1241 :     }

  0002a	c9		 leave
  0002b	c2 04 00	 ret	 4
?begin@?$_Tree@V?$_Tmap_traits@KPAVCSpeedTreeWrapper@@U?$less@K@std@@V?$allocator@U?$pair@$$CBKPAVCSpeedTreeWrapper@@@std@@@3@$0A@@std@@@std@@QAE?AV?$_Tree_iterator@V?$_Tree_val@U?$_Tree_simple_types@U?$pair@$$CBKPAVCSpeedTreeWrapper@@@std@@@std@@@std@@@2@XZ ENDP ; std::_Tree<std::_Tmap_traits<unsigned long,CSpeedTreeWrapper *,std::less<unsigned long>,std::allocator<std::pair<unsigned long const ,CSpeedTreeWrapper *> >,0> >::begin
_TEXT	ENDS
; Function compile flags: /Odspy
; File C:\Program Files (x86)\Microsoft Visual Studio\2019\Community\VC\Tools\MSVC\14.28.29333\include\xtree
; File C:\Program Files (x86)\Microsoft Visual Studio\2019\Community\VC\Tools\MSVC\14.28.29333\include\xstddef
; File C:\Program Files (x86)\Microsoft Visual Studio\2019\Community\VC\Tools\MSVC\14.28.29333\include\xtree
; File C:\Program Files (x86)\Microsoft Visual Studio\2019\Community\VC\Tools\MSVC\14.28.29333\include\xmemory
; File C:\Program Files (x86)\Microsoft Visual Studio\2019\Community\VC\Tools\MSVC\14.28.29333\include\xtree
;	COMDAT ??1?$_Tree@V?$_Tmap_traits@KPAVCSpeedTreeWrapper@@U?$less@K@std@@V?$allocator@U?$pair@$$CBKPAVCSpeedTreeWrapper@@@std@@@3@$0A@@std@@@std@@QAE@XZ
_TEXT	SEGMENT
$T1 = -20						; size = 4
$T2 = -16						; size = 4
$T3 = -12						; size = 4
_this$ = -8						; size = 4
__Scary$ = -4						; size = 4
??1?$_Tree@V?$_Tmap_traits@KPAVCSpeedTreeWrapper@@U?$less@K@std@@V?$allocator@U?$pair@$$CBKPAVCSpeedTreeWrapper@@@std@@@3@$0A@@std@@@std@@QAE@XZ PROC ; std::_Tree<std::_Tmap_traits<unsigned long,CSpeedTreeWrapper *,std::less<unsigned long>,std::allocator<std::pair<unsigned long const ,CSpeedTreeWrapper *> >,0> >::~_Tree<std::_Tmap_traits<unsigned long,CSpeedTreeWrapper *,std::less<unsigned long>,std::allocator<std::pair<unsigned long const ,CSpeedTreeWrapper *> >,0> >, COMDAT
; _this$ = ecx

; 1189 :     ~_Tree() noexcept {

  00000	55		 push	 ebp
  00001	8b ec		 mov	 ebp, esp
  00003	83 ec 14	 sub	 esp, 20			; 00000014H
  00006	89 4d f8	 mov	 DWORD PTR _this$[ebp], ecx

; 2047 :         return _STD addressof(_Mypair._Myval2._Myval2);

  00009	8b 45 f8	 mov	 eax, DWORD PTR _this$[ebp]
; File C:\Program Files (x86)\Microsoft Visual Studio\2019\Community\VC\Tools\MSVC\14.28.29333\include\xstddef

; 275  :     return __builtin_addressof(_Val);

  0000c	89 45 f0	 mov	 DWORD PTR $T2[ebp], eax
; File C:\Program Files (x86)\Microsoft Visual Studio\2019\Community\VC\Tools\MSVC\14.28.29333\include\xtree

; 2047 :         return _STD addressof(_Mypair._Myval2._Myval2);

  0000f	8b 45 f0	 mov	 eax, DWORD PTR $T2[ebp]
  00012	89 45 fc	 mov	 DWORD PTR __Scary$[ebp], eax

; 2039 :         return _Mypair._Myval2._Get_first();

  00015	8b 45 f8	 mov	 eax, DWORD PTR _this$[ebp]
; File C:\Program Files (x86)\Microsoft Visual Studio\2019\Community\VC\Tools\MSVC\14.28.29333\include\xmemory

; 1347 :         return *this;

  00018	89 45 ec	 mov	 DWORD PTR $T1[ebp], eax
; File C:\Program Files (x86)\Microsoft Visual Studio\2019\Community\VC\Tools\MSVC\14.28.29333\include\xtree

; 2039 :         return _Mypair._Myval2._Get_first();

  0001b	8b 45 ec	 mov	 eax, DWORD PTR $T1[ebp]
  0001e	89 45 f4	 mov	 DWORD PTR $T3[ebp], eax

; 752  :         _Erase_tree(_Al, _Myhead->_Parent);

  00021	8b 45 fc	 mov	 eax, DWORD PTR __Scary$[ebp]
  00024	8b 00		 mov	 eax, DWORD PTR [eax]
  00026	ff 70 04	 push	 DWORD PTR [eax+4]
  00029	ff 75 f4	 push	 DWORD PTR $T3[ebp]
  0002c	8b 4d fc	 mov	 ecx, DWORD PTR __Scary$[ebp]
  0002f	e8 00 00 00 00	 call	 ??$_Erase_tree@V?$allocator@U?$_Tree_node@U?$pair@$$CBKPAVCSpeedTreeWrapper@@@std@@PAX@std@@@std@@@?$_Tree_val@U?$_Tree_simple_types@U?$pair@$$CBKPAVCSpeedTreeWrapper@@@std@@@std@@@std@@QAEXAAV?$allocator@U?$_Tree_node@U?$pair@$$CBKPAVCSpeedTreeWrapper@@@std@@PAX@std@@@1@PAU?$_Tree_node@U?$pair@$$CBKPAVCSpeedTreeWrapper@@@std@@PAX@1@@Z ; std::_Tree_val<std::_Tree_simple_types<std::pair<unsigned long const ,CSpeedTreeWrapper *> > >::_Erase_tree<std::allocator<std::_Tree_node<std::pair<unsigned long const ,CSpeedTreeWrapper *>,void *> > >

; 753  :         _Alnode::value_type::_Freenode0(_Al, _Myhead);

  00034	8b 45 fc	 mov	 eax, DWORD PTR __Scary$[ebp]
  00037	ff 30		 push	 DWORD PTR [eax]
  00039	ff 75 f4	 push	 DWORD PTR $T3[ebp]
  0003c	e8 00 00 00 00	 call	 ??$_Freenode0@V?$allocator@U?$_Tree_node@U?$pair@$$CBKPAVCSpeedTreeWrapper@@@std@@PAX@std@@@std@@@?$_Tree_node@U?$pair@$$CBKPAVCSpeedTreeWrapper@@@std@@PAX@std@@SAXAAV?$allocator@U?$_Tree_node@U?$pair@$$CBKPAVCSpeedTreeWrapper@@@std@@PAX@std@@@1@PAU01@@Z ; std::_Tree_node<std::pair<unsigned long const ,CSpeedTreeWrapper *>,void *>::_Freenode0<std::allocator<std::_Tree_node<std::pair<unsigned long const ,CSpeedTreeWrapper *>,void *> > >
  00041	59		 pop	 ecx
  00042	59		 pop	 ecx

; 1190 :         const auto _Scary = _Get_scary();
; 1191 :         _Scary->_Erase_head(_Getal());
; 1192 : #if _ITERATOR_DEBUG_LEVEL != 0 // TRANSITION, ABI
; 1193 :         auto&& _Alproxy = _GET_PROXY_ALLOCATOR(_Alnode, _Getal());
; 1194 :         _Delete_plain_internal(_Alproxy, _Scary->_Myproxy);
; 1195 : #endif // _ITERATOR_DEBUG_LEVEL != 0
; 1196 :     }

  00043	c9		 leave
  00044	c3		 ret	 0
??1?$_Tree@V?$_Tmap_traits@KPAVCSpeedTreeWrapper@@U?$less@K@std@@V?$allocator@U?$pair@$$CBKPAVCSpeedTreeWrapper@@@std@@@3@$0A@@std@@@std@@QAE@XZ ENDP ; std::_Tree<std::_Tmap_traits<unsigned long,CSpeedTreeWrapper *,std::less<unsigned long>,std::allocator<std::pair<unsigned long const ,CSpeedTreeWrapper *> >,0> >::~_Tree<std::_Tmap_traits<unsigned long,CSpeedTreeWrapper *,std::less<unsigned long>,std::allocator<std::pair<unsigned long const ,CSpeedTreeWrapper *> >,0> >
_TEXT	ENDS
; Function compile flags: /Odspy
; File C:\Program Files (x86)\Microsoft Visual Studio\2019\Community\VC\Tools\MSVC\14.28.29333\include\xtree
; File C:\Program Files (x86)\Microsoft Visual Studio\2019\Community\VC\Tools\MSVC\14.28.29333\include\type_traits
; File C:\Program Files (x86)\Microsoft Visual Studio\2019\Community\VC\Tools\MSVC\14.28.29333\include\xmemory
; File C:\Program Files (x86)\Microsoft Visual Studio\2019\Community\VC\Tools\MSVC\14.28.29333\include\xtree
;	COMDAT ??0?$_Tree@V?$_Tmap_traits@KPAVCSpeedTreeWrapper@@U?$less@K@std@@V?$allocator@U?$pair@$$CBKPAVCSpeedTreeWrapper@@@std@@@3@$0A@@std@@@std@@QAE@ABU?$less@K@1@@Z
_TEXT	SEGMENT
_this$ = -28						; size = 4
_this$ = -24						; size = 4
$T1 = -20						; size = 4
_this$2 = -16						; size = 4
_this$ = -12						; size = 4
___formal$ = -8						; size = 1
$T3 = -1						; size = 1
__Parg$ = 8						; size = 4
??0?$_Tree@V?$_Tmap_traits@KPAVCSpeedTreeWrapper@@U?$less@K@std@@V?$allocator@U?$pair@$$CBKPAVCSpeedTreeWrapper@@@std@@@3@$0A@@std@@@std@@QAE@ABU?$less@K@1@@Z PROC ; std::_Tree<std::_Tmap_traits<unsigned long,CSpeedTreeWrapper *,std::less<unsigned long>,std::allocator<std::pair<unsigned long const ,CSpeedTreeWrapper *> >,0> >::_Tree<std::_Tmap_traits<unsigned long,CSpeedTreeWrapper *,std::less<unsigned long>,std::allocator<std::pair<unsigned long const ,CSpeedTreeWrapper *> >,0> >, COMDAT
; _this$ = ecx

; 885  :     _Tree(const key_compare& _Parg) : _Mypair(_One_then_variadic_args_t{}, _Parg, _Zero_then_variadic_args_t{}) {

  00000	55		 push	 ebp
  00001	8b ec		 mov	 ebp, esp
  00003	83 ec 1c	 sub	 esp, 28			; 0000001cH
  00006	89 4d f4	 mov	 DWORD PTR _this$[ebp], ecx
  00009	8b 45 f4	 mov	 eax, DWORD PTR _this$[ebp]
  0000c	89 45 e8	 mov	 DWORD PTR _this$[ebp], eax
; File C:\Program Files (x86)\Microsoft Visual Studio\2019\Community\VC\Tools\MSVC\14.28.29333\include\type_traits

; 1443 :     return static_cast<_Ty&&>(_Arg);

  0000f	8d 45 ff	 lea	 eax, DWORD PTR $T3[ebp]
  00012	89 45 ec	 mov	 DWORD PTR $T1[ebp], eax
; File C:\Program Files (x86)\Microsoft Visual Studio\2019\Community\VC\Tools\MSVC\14.28.29333\include\xmemory

; 1344 :         : _Ty1(_STD forward<_Other1>(_Val1)), _Myval2(_STD forward<_Other2>(_Val2)...) {}

  00015	8b 45 ec	 mov	 eax, DWORD PTR $T1[ebp]
  00018	8a 00		 mov	 al, BYTE PTR [eax]
  0001a	88 45 f8	 mov	 BYTE PTR ___formal$[ebp], al
  0001d	8b 45 e8	 mov	 eax, DWORD PTR _this$[ebp]
  00020	89 45 e4	 mov	 DWORD PTR _this$[ebp], eax

; 1339 :         : _Ty1(), _Myval2(_STD forward<_Other2>(_Val2)...) {}

  00023	8b 45 e4	 mov	 eax, DWORD PTR _this$[ebp]
  00026	89 45 f0	 mov	 DWORD PTR _this$2[ebp], eax
; File C:\Program Files (x86)\Microsoft Visual Studio\2019\Community\VC\Tools\MSVC\14.28.29333\include\xtree

; 435  :     _Tree_val() noexcept : _Myhead(), _Mysize(0) {}

  00029	8b 45 f0	 mov	 eax, DWORD PTR _this$2[ebp]
  0002c	83 20 00	 and	 DWORD PTR [eax], 0
  0002f	8b 45 f0	 mov	 eax, DWORD PTR _this$2[ebp]
  00032	83 60 04 00	 and	 DWORD PTR [eax+4], 0

; 886  :         _Alloc_sentinel_and_proxy();

  00036	8b 4d f4	 mov	 ecx, DWORD PTR _this$[ebp]
  00039	e8 00 00 00 00	 call	 ?_Alloc_sentinel_and_proxy@?$_Tree@V?$_Tmap_traits@KPAVCSpeedTreeWrapper@@U?$less@K@std@@V?$allocator@U?$pair@$$CBKPAVCSpeedTreeWrapper@@@std@@@3@$0A@@std@@@std@@IAEXXZ ; std::_Tree<std::_Tmap_traits<unsigned long,CSpeedTreeWrapper *,std::less<unsigned long>,std::allocator<std::pair<unsigned long const ,CSpeedTreeWrapper *> >,0> >::_Alloc_sentinel_and_proxy

; 887  :     }

  0003e	8b 45 f4	 mov	 eax, DWORD PTR _this$[ebp]
  00041	c9		 leave
  00042	c2 04 00	 ret	 4
??0?$_Tree@V?$_Tmap_traits@KPAVCSpeedTreeWrapper@@U?$less@K@std@@V?$allocator@U?$pair@$$CBKPAVCSpeedTreeWrapper@@@std@@@3@$0A@@std@@@std@@QAE@ABU?$less@K@1@@Z ENDP ; std::_Tree<std::_Tmap_traits<unsigned long,CSpeedTreeWrapper *,std::less<unsigned long>,std::allocator<std::pair<unsigned long const ,CSpeedTreeWrapper *> >,0> >::_Tree<std::_Tmap_traits<unsigned long,CSpeedTreeWrapper *,std::less<unsigned long>,std::allocator<std::pair<unsigned long const ,CSpeedTreeWrapper *> >,0> >
_TEXT	ENDS
; Function compile flags: /Odspy
; File D:\Metin2 Server Files\mainline\SRC_2014\Metin2Client\SpeedTreeLib\SpeedTreeForest.cpp
; File C:\Program Files (x86)\Windows Kits\10\Include\10.0.18362.0\ucrt\corecrt_math.h
; File D:\Metin2 Server Files\mainline\SRC_2014\Metin2Client\SpeedTreeLib\SpeedTreeForest.cpp
; File C:\Program Files (x86)\Windows Kits\10\Include\10.0.18362.0\ucrt\corecrt_math.h
; File D:\Metin2 Server Files\mainline\SRC_2014\Metin2Client\SpeedTreeLib\SpeedTreeForest.cpp
; File C:\Program Files (x86)\Windows Kits\10\Include\10.0.18362.0\ucrt\corecrt_math.h
; File D:\Metin2 Server Files\mainline\SRC_2014\Metin2Client\SpeedTreeLib\SpeedTreeForest.cpp
; File C:\Program Files (x86)\Windows Kits\10\Include\10.0.18362.0\ucrt\corecrt_math.h
; File D:\Metin2 Server Files\mainline\SRC_2014\Metin2Client\SpeedTreeLib\SpeedTreeForest.cpp
; File C:\Program Files (x86)\Windows Kits\10\Include\10.0.18362.0\ucrt\corecrt_math.h
; File D:\Metin2 Server Files\mainline\SRC_2014\Metin2Client\SpeedTreeLib\SpeedTreeForest.cpp
; File C:\Program Files (x86)\Windows Kits\10\Include\10.0.18362.0\ucrt\corecrt_math.h
; File D:\Metin2 Server Files\mainline\SRC_2014\Metin2Client\SpeedTreeLib\SpeedTreeForest.cpp
;	COMDAT ?SetupWindMatrices@CSpeedTreeForest@@QAEXM@Z
_TEXT	SEGMENT
_c_fDeg2Rad$1 = -144					; size = 4
__X$ = -140						; size = 4
__X$ = -136						; size = 4
__X$ = -132						; size = 4
__X$ = -128						; size = 4
__X$ = -124						; size = 4
__X$ = -120						; size = 4
_fTimeSinceLastCall$ = -116				; size = 4
_fYPercent$2 = -112					; size = 4
_fXPercent$3 = -108					; size = 4
_fBaseFreq$4 = -104					; size = 4
_fCosY$5 = -100						; size = 4
_fCosX$6 = -96						; size = 4
_fSinX$7 = -92						; size = 4
_fSinY$8 = -88						; size = 4
_fBaseAngle$ = -84					; size = 4
_i$9 = -80						; size = 4
_this$ = -76						; size = 4
_j$10 = -72						; size = 4
_afMatrix$11 = -68					; size = 64
__$ArrayPad$ = -4					; size = 4
_fTimeInSecs$ = 8					; size = 4
?SetupWindMatrices@CSpeedTreeForest@@QAEXM@Z PROC	; CSpeedTreeForest::SetupWindMatrices, COMDAT
; _this$ = ecx

; 178  : {

  00000	55		 push	 ebp
  00001	8b ec		 mov	 ebp, esp
  00003	81 ec 90 00 00
	00		 sub	 esp, 144		; 00000090H
  00009	a1 00 00 00 00	 mov	 eax, DWORD PTR ___security_cookie
  0000e	33 c5		 xor	 eax, ebp
  00010	89 45 fc	 mov	 DWORD PTR __$ArrayPad$[ebp], eax
  00013	89 4d b4	 mov	 DWORD PTR _this$[ebp], ecx

; 179  : 	// matrix computational data
; 180  : 	static float afMatrixTimes[c_nNumWindMatrices] = { 0.0f };
; 181  : 	static float afFrequencies[c_nNumWindMatrices][2] = 
; 182  : 	{
; 183  : 		{ 0.15f, 0.17f },
; 184  : 		{ 0.25f, 0.15f },
; 185  : 		{ 0.19f, 0.05f },
; 186  : 		{ 0.15f, 0.22f }
; 187  : 	};
; 188  : 
; 189  : 	// compute time since last call
; 190  : 	static float fTimeOfLastCall = 0.0f;
; 191  : 	float fTimeSinceLastCall = fTimeInSecs - fTimeOfLastCall;

  00016	f3 0f 10 45 08	 movss	 xmm0, DWORD PTR _fTimeInSecs$[ebp]
  0001b	f3 0f 5c 05 00
	00 00 00	 subss	 xmm0, DWORD PTR ?fTimeOfLastCall@?1??SetupWindMatrices@CSpeedTreeForest@@QAEXM@Z@4MA
  00023	f3 0f 11 45 8c	 movss	 DWORD PTR _fTimeSinceLastCall$[ebp], xmm0

; 192  : 	fTimeOfLastCall = fTimeInSecs;

  00028	f3 0f 10 45 08	 movss	 xmm0, DWORD PTR _fTimeInSecs$[ebp]
  0002d	f3 0f 11 05 00
	00 00 00	 movss	 DWORD PTR ?fTimeOfLastCall@?1??SetupWindMatrices@CSpeedTreeForest@@QAEXM@Z@4MA, xmm0

; 193  : 
; 194  : 	// wind strength
; 195  : 	static float fOldStrength = m_fWindStrength;

  00035	a1 00 00 00 00	 mov	 eax, DWORD PTR __tls_index
  0003a	64 8b 0d 00 00
	00 00		 mov	 ecx, DWORD PTR fs:__tls_array
  00041	8b 04 81	 mov	 eax, DWORD PTR [ecx+eax*4]
  00044	8b 0d 00 00 00
	00		 mov	 ecx, DWORD PTR ?$TSS0@?1??SetupWindMatrices@CSpeedTreeForest@@QAEXM@Z@4HA
  0004a	3b 88 00 00 00
	00		 cmp	 ecx, DWORD PTR __Init_thread_epoch[eax]
  00050	7e 2f		 jle	 SHORT $LN2@SetupWindM
  00052	68 00 00 00 00	 push	 OFFSET ?$TSS0@?1??SetupWindMatrices@CSpeedTreeForest@@QAEXM@Z@4HA
  00057	e8 00 00 00 00	 call	 __Init_thread_header
  0005c	59		 pop	 ecx
  0005d	83 3d 00 00 00
	00 ff		 cmp	 DWORD PTR ?$TSS0@?1??SetupWindMatrices@CSpeedTreeForest@@QAEXM@Z@4HA, -1
  00064	75 1b		 jne	 SHORT $LN2@SetupWindM
  00066	8b 45 b4	 mov	 eax, DWORD PTR _this$[ebp]
  00069	f3 0f 10 40 64	 movss	 xmm0, DWORD PTR [eax+100]
  0006e	f3 0f 11 05 00
	00 00 00	 movss	 DWORD PTR ?fOldStrength@?1??SetupWindMatrices@CSpeedTreeForest@@QAEXM@Z@4MA, xmm0
  00076	68 00 00 00 00	 push	 OFFSET ?$TSS0@?1??SetupWindMatrices@CSpeedTreeForest@@QAEXM@Z@4HA
  0007b	e8 00 00 00 00	 call	 __Init_thread_footer
  00080	59		 pop	 ecx
$LN2@SetupWindM:

; 196  : 
; 197  : 	// increment matrix times
; 198  : 	for (int i = 0; i < c_nNumWindMatrices; ++i)

  00081	83 65 b0 00	 and	 DWORD PTR _i$9[ebp], 0
  00085	eb 07		 jmp	 SHORT $LN5@SetupWindM
$LN3@SetupWindM:
  00087	8b 45 b0	 mov	 eax, DWORD PTR _i$9[ebp]
  0008a	40		 inc	 eax
  0008b	89 45 b0	 mov	 DWORD PTR _i$9[ebp], eax
$LN5@SetupWindM:
  0008e	83 7d b0 04	 cmp	 DWORD PTR _i$9[ebp], 4
  00092	7d 1f		 jge	 SHORT $LN4@SetupWindM

; 199  : 		afMatrixTimes[i] += fTimeSinceLastCall;

  00094	8b 45 b0	 mov	 eax, DWORD PTR _i$9[ebp]
  00097	f3 0f 10 04 85
	00 00 00 00	 movss	 xmm0, DWORD PTR ?afMatrixTimes@?1??SetupWindMatrices@CSpeedTreeForest@@QAEXM@Z@4PAMA[eax*4]
  000a0	f3 0f 58 45 8c	 addss	 xmm0, DWORD PTR _fTimeSinceLastCall$[ebp]
  000a5	8b 45 b0	 mov	 eax, DWORD PTR _i$9[ebp]
  000a8	f3 0f 11 04 85
	00 00 00 00	 movss	 DWORD PTR ?afMatrixTimes@?1??SetupWindMatrices@CSpeedTreeForest@@QAEXM@Z@4PAMA[eax*4], xmm0
  000b1	eb d4		 jmp	 SHORT $LN3@SetupWindM
$LN4@SetupWindM:

; 200  : 
; 201  : 	// compute maximum branch throw
; 202  : 	float fBaseAngle = m_fWindStrength * 35.0f;

  000b3	8b 45 b4	 mov	 eax, DWORD PTR _this$[ebp]
  000b6	f3 0f 10 40 64	 movss	 xmm0, DWORD PTR [eax+100]
  000bb	f3 0f 59 05 00
	00 00 00	 mulss	 xmm0, DWORD PTR __real@420c0000
  000c3	f3 0f 11 45 ac	 movss	 DWORD PTR _fBaseAngle$[ebp], xmm0

; 203  : 
; 204  : 	// build rotation matrices
; 205  : 	for (int j = 0; j < c_nNumWindMatrices; ++j)

  000c8	83 65 b8 00	 and	 DWORD PTR _j$10[ebp], 0
  000cc	eb 07		 jmp	 SHORT $LN8@SetupWindM
$LN6@SetupWindM:
  000ce	8b 45 b8	 mov	 eax, DWORD PTR _j$10[ebp]
  000d1	40		 inc	 eax
  000d2	89 45 b8	 mov	 DWORD PTR _j$10[ebp], eax
$LN8@SetupWindM:
  000d5	83 7d b8 04	 cmp	 DWORD PTR _j$10[ebp], 4
  000d9	0f 8d 98 02 00
	00		 jge	 $LN7@SetupWindM

; 206  : 	{
; 207  : 		// adjust time to prevent "jumping"
; 208  : 		if (m_fWindStrength != 0.0f)

  000df	8b 45 b4	 mov	 eax, DWORD PTR _this$[ebp]
  000e2	f3 0f 10 40 64	 movss	 xmm0, DWORD PTR [eax+100]
  000e7	0f 2e 05 00 00
	00 00		 ucomiss xmm0, DWORD PTR __real@00000000
  000ee	9f		 lahf
  000ef	f6 c4 44	 test	 ah, 68			; 00000044H
  000f2	7b 28		 jnp	 SHORT $LN9@SetupWindM

; 209  : 			afMatrixTimes[j] = (afMatrixTimes[j] * fOldStrength) / m_fWindStrength;

  000f4	8b 45 b8	 mov	 eax, DWORD PTR _j$10[ebp]
  000f7	f3 0f 10 04 85
	00 00 00 00	 movss	 xmm0, DWORD PTR ?afMatrixTimes@?1??SetupWindMatrices@CSpeedTreeForest@@QAEXM@Z@4PAMA[eax*4]
  00100	f3 0f 59 05 00
	00 00 00	 mulss	 xmm0, DWORD PTR ?fOldStrength@?1??SetupWindMatrices@CSpeedTreeForest@@QAEXM@Z@4MA
  00108	8b 45 b4	 mov	 eax, DWORD PTR _this$[ebp]
  0010b	f3 0f 5e 40 64	 divss	 xmm0, DWORD PTR [eax+100]
  00110	8b 45 b8	 mov	 eax, DWORD PTR _j$10[ebp]
  00113	f3 0f 11 04 85
	00 00 00 00	 movss	 DWORD PTR ?afMatrixTimes@?1??SetupWindMatrices@CSpeedTreeForest@@QAEXM@Z@4PAMA[eax*4], xmm0
$LN9@SetupWindM:

; 210  : 
; 211  : 		// compute percentages for each axis
; 212  : 		float fBaseFreq = m_fWindStrength * 20.0f;

  0011c	8b 45 b4	 mov	 eax, DWORD PTR _this$[ebp]
  0011f	f3 0f 10 40 64	 movss	 xmm0, DWORD PTR [eax+100]
  00124	f3 0f 59 05 00
	00 00 00	 mulss	 xmm0, DWORD PTR __real@41a00000
  0012c	f3 0f 11 45 98	 movss	 DWORD PTR _fBaseFreq$4[ebp], xmm0

; 213  : 		float fXPercent = sinf(fBaseFreq * afFrequencies[j % c_nNumWindMatrices][0] * afMatrixTimes[j]);

  00131	6a 04		 push	 4
  00133	58		 pop	 eax
  00134	6b c0 00	 imul	 eax, eax, 0
  00137	8b 4d b8	 mov	 ecx, DWORD PTR _j$10[ebp]
  0013a	81 e1 03 00 00
	80		 and	 ecx, -2147483645	; 80000003H
  00140	79 05		 jns	 SHORT $LN23@SetupWindM
  00142	49		 dec	 ecx
  00143	83 c9 fc	 or	 ecx, -4			; fffffffcH
  00146	41		 inc	 ecx
$LN23@SetupWindM:
  00147	f3 0f 10 45 98	 movss	 xmm0, DWORD PTR _fBaseFreq$4[ebp]
  0014c	f3 0f 59 84 c8
	00 00 00 00	 mulss	 xmm0, DWORD PTR ?afFrequencies@?1??SetupWindMatrices@CSpeedTreeForest@@QAEXM@Z@4PAY01MA[eax+ecx*8]
  00155	8b 45 b8	 mov	 eax, DWORD PTR _j$10[ebp]
  00158	f3 0f 59 04 85
	00 00 00 00	 mulss	 xmm0, DWORD PTR ?afMatrixTimes@?1??SetupWindMatrices@CSpeedTreeForest@@QAEXM@Z@4PAMA[eax*4]
  00161	f3 0f 11 45 88	 movss	 DWORD PTR __X$[ebp], xmm0
; File C:\Program Files (x86)\Windows Kits\10\Include\10.0.18362.0\ucrt\corecrt_math.h

; 750  :             return (float)sin(_X);

  00166	f3 0f 5a 45 88	 cvtss2sd xmm0, DWORD PTR __X$[ebp]
  0016b	51		 push	 ecx
  0016c	51		 push	 ecx
  0016d	f2 0f 11 04 24	 movsd	 QWORD PTR [esp], xmm0
  00172	e8 00 00 00 00	 call	 _sin
  00177	59		 pop	 ecx
  00178	59		 pop	 ecx
; File D:\Metin2 Server Files\mainline\SRC_2014\Metin2Client\SpeedTreeLib\SpeedTreeForest.cpp

; 213  : 		float fXPercent = sinf(fBaseFreq * afFrequencies[j % c_nNumWindMatrices][0] * afMatrixTimes[j]);

  00179	d9 5d 94	 fstp	 DWORD PTR _fXPercent$3[ebp]

; 214  : 		float fYPercent = cosf(fBaseFreq * afFrequencies[j % c_nNumWindMatrices][1] * afMatrixTimes[j]);

  0017c	6a 04		 push	 4
  0017e	58		 pop	 eax
  0017f	c1 e0 00	 shl	 eax, 0
  00182	8b 4d b8	 mov	 ecx, DWORD PTR _j$10[ebp]
  00185	81 e1 03 00 00
	80		 and	 ecx, -2147483645	; 80000003H
  0018b	79 05		 jns	 SHORT $LN24@SetupWindM
  0018d	49		 dec	 ecx
  0018e	83 c9 fc	 or	 ecx, -4			; fffffffcH
  00191	41		 inc	 ecx
$LN24@SetupWindM:
  00192	f3 0f 10 45 98	 movss	 xmm0, DWORD PTR _fBaseFreq$4[ebp]
  00197	f3 0f 59 84 c8
	00 00 00 00	 mulss	 xmm0, DWORD PTR ?afFrequencies@?1??SetupWindMatrices@CSpeedTreeForest@@QAEXM@Z@4PAY01MA[eax+ecx*8]
  001a0	8b 45 b8	 mov	 eax, DWORD PTR _j$10[ebp]
  001a3	f3 0f 59 04 85
	00 00 00 00	 mulss	 xmm0, DWORD PTR ?afMatrixTimes@?1??SetupWindMatrices@CSpeedTreeForest@@QAEXM@Z@4PAMA[eax*4]
  001ac	f3 0f 11 45 84	 movss	 DWORD PTR __X$[ebp], xmm0
; File C:\Program Files (x86)\Windows Kits\10\Include\10.0.18362.0\ucrt\corecrt_math.h

; 649  :             return (float)cos(_X);

  001b1	f3 0f 5a 45 84	 cvtss2sd xmm0, DWORD PTR __X$[ebp]
  001b6	51		 push	 ecx
  001b7	51		 push	 ecx
  001b8	f2 0f 11 04 24	 movsd	 QWORD PTR [esp], xmm0
  001bd	e8 00 00 00 00	 call	 _cos
  001c2	59		 pop	 ecx
  001c3	59		 pop	 ecx
; File D:\Metin2 Server Files\mainline\SRC_2014\Metin2Client\SpeedTreeLib\SpeedTreeForest.cpp

; 214  : 		float fYPercent = cosf(fBaseFreq * afFrequencies[j % c_nNumWindMatrices][1] * afMatrixTimes[j]);

  001c4	d9 5d 90	 fstp	 DWORD PTR _fYPercent$2[ebp]

; 215  : 
; 216  : 		// build compound rotation matrix (rotate on 'x' then on 'y')
; 217  : 		const float c_fDeg2Rad = 57.2957795f;

  001c7	f3 0f 10 05 00
	00 00 00	 movss	 xmm0, DWORD PTR __real@42652ee1
  001cf	f3 0f 11 85 70
	ff ff ff	 movss	 DWORD PTR _c_fDeg2Rad$1[ebp], xmm0

; 218  :         float fSinX = sinf(fBaseAngle * fXPercent / c_fDeg2Rad);

  001d7	f3 0f 10 45 ac	 movss	 xmm0, DWORD PTR _fBaseAngle$[ebp]
  001dc	f3 0f 59 45 94	 mulss	 xmm0, DWORD PTR _fXPercent$3[ebp]
  001e1	f3 0f 5e 05 00
	00 00 00	 divss	 xmm0, DWORD PTR __real@42652ee1
  001e9	f3 0f 11 45 80	 movss	 DWORD PTR __X$[ebp], xmm0
; File C:\Program Files (x86)\Windows Kits\10\Include\10.0.18362.0\ucrt\corecrt_math.h

; 750  :             return (float)sin(_X);

  001ee	f3 0f 5a 45 80	 cvtss2sd xmm0, DWORD PTR __X$[ebp]
  001f3	51		 push	 ecx
  001f4	51		 push	 ecx
  001f5	f2 0f 11 04 24	 movsd	 QWORD PTR [esp], xmm0
  001fa	e8 00 00 00 00	 call	 _sin
  001ff	59		 pop	 ecx
  00200	59		 pop	 ecx
; File D:\Metin2 Server Files\mainline\SRC_2014\Metin2Client\SpeedTreeLib\SpeedTreeForest.cpp

; 218  :         float fSinX = sinf(fBaseAngle * fXPercent / c_fDeg2Rad);

  00201	d9 5d a4	 fstp	 DWORD PTR _fSinX$7[ebp]

; 219  :         float fSinY = sinf(fBaseAngle * fYPercent / c_fDeg2Rad);

  00204	f3 0f 10 45 ac	 movss	 xmm0, DWORD PTR _fBaseAngle$[ebp]
  00209	f3 0f 59 45 90	 mulss	 xmm0, DWORD PTR _fYPercent$2[ebp]
  0020e	f3 0f 5e 05 00
	00 00 00	 divss	 xmm0, DWORD PTR __real@42652ee1
  00216	f3 0f 11 85 7c
	ff ff ff	 movss	 DWORD PTR __X$[ebp], xmm0
; File C:\Program Files (x86)\Windows Kits\10\Include\10.0.18362.0\ucrt\corecrt_math.h

; 750  :             return (float)sin(_X);

  0021e	f3 0f 5a 85 7c
	ff ff ff	 cvtss2sd xmm0, DWORD PTR __X$[ebp]
  00226	51		 push	 ecx
  00227	51		 push	 ecx
  00228	f2 0f 11 04 24	 movsd	 QWORD PTR [esp], xmm0
  0022d	e8 00 00 00 00	 call	 _sin
  00232	59		 pop	 ecx
  00233	59		 pop	 ecx
; File D:\Metin2 Server Files\mainline\SRC_2014\Metin2Client\SpeedTreeLib\SpeedTreeForest.cpp

; 219  :         float fSinY = sinf(fBaseAngle * fYPercent / c_fDeg2Rad);

  00234	d9 5d a8	 fstp	 DWORD PTR _fSinY$8[ebp]

; 220  :         float fCosX = cosf(fBaseAngle * fXPercent / c_fDeg2Rad);

  00237	f3 0f 10 45 ac	 movss	 xmm0, DWORD PTR _fBaseAngle$[ebp]
  0023c	f3 0f 59 45 94	 mulss	 xmm0, DWORD PTR _fXPercent$3[ebp]
  00241	f3 0f 5e 05 00
	00 00 00	 divss	 xmm0, DWORD PTR __real@42652ee1
  00249	f3 0f 11 85 78
	ff ff ff	 movss	 DWORD PTR __X$[ebp], xmm0
; File C:\Program Files (x86)\Windows Kits\10\Include\10.0.18362.0\ucrt\corecrt_math.h

; 649  :             return (float)cos(_X);

  00251	f3 0f 5a 85 78
	ff ff ff	 cvtss2sd xmm0, DWORD PTR __X$[ebp]
  00259	51		 push	 ecx
  0025a	51		 push	 ecx
  0025b	f2 0f 11 04 24	 movsd	 QWORD PTR [esp], xmm0
  00260	e8 00 00 00 00	 call	 _cos
  00265	59		 pop	 ecx
  00266	59		 pop	 ecx
; File D:\Metin2 Server Files\mainline\SRC_2014\Metin2Client\SpeedTreeLib\SpeedTreeForest.cpp

; 220  :         float fCosX = cosf(fBaseAngle * fXPercent / c_fDeg2Rad);

  00267	d9 5d a0	 fstp	 DWORD PTR _fCosX$6[ebp]

; 221  :         float fCosY = cosf(fBaseAngle * fYPercent / c_fDeg2Rad);

  0026a	f3 0f 10 45 ac	 movss	 xmm0, DWORD PTR _fBaseAngle$[ebp]
  0026f	f3 0f 59 45 90	 mulss	 xmm0, DWORD PTR _fYPercent$2[ebp]
  00274	f3 0f 5e 05 00
	00 00 00	 divss	 xmm0, DWORD PTR __real@42652ee1
  0027c	f3 0f 11 85 74
	ff ff ff	 movss	 DWORD PTR __X$[ebp], xmm0
; File C:\Program Files (x86)\Windows Kits\10\Include\10.0.18362.0\ucrt\corecrt_math.h

; 649  :             return (float)cos(_X);

  00284	f3 0f 5a 85 74
	ff ff ff	 cvtss2sd xmm0, DWORD PTR __X$[ebp]
  0028c	51		 push	 ecx
  0028d	51		 push	 ecx
  0028e	f2 0f 11 04 24	 movsd	 QWORD PTR [esp], xmm0
  00293	e8 00 00 00 00	 call	 _cos
  00298	59		 pop	 ecx
  00299	59		 pop	 ecx
; File D:\Metin2 Server Files\mainline\SRC_2014\Metin2Client\SpeedTreeLib\SpeedTreeForest.cpp

; 221  :         float fCosY = cosf(fBaseAngle * fYPercent / c_fDeg2Rad);

  0029a	d9 5d 9c	 fstp	 DWORD PTR _fCosY$5[ebp]

; 222  : 
; 223  :         float afMatrix[16] = { 0.0f };

  0029d	0f 57 c0	 xorps	 xmm0, xmm0
  002a0	f3 0f 11 45 bc	 movss	 DWORD PTR _afMatrix$11[ebp], xmm0
  002a5	6a 3c		 push	 60			; 0000003cH
  002a7	6a 00		 push	 0
  002a9	8d 45 c0	 lea	 eax, DWORD PTR _afMatrix$11[ebp+4]
  002ac	50		 push	 eax
  002ad	e8 00 00 00 00	 call	 _memset
  002b2	83 c4 0c	 add	 esp, 12			; 0000000cH

; 224  :         afMatrix[0] = fCosY;

  002b5	6a 04		 push	 4
  002b7	58		 pop	 eax
  002b8	6b c0 00	 imul	 eax, eax, 0
  002bb	f3 0f 10 45 9c	 movss	 xmm0, DWORD PTR _fCosY$5[ebp]
  002c0	f3 0f 11 44 05
	bc		 movss	 DWORD PTR _afMatrix$11[ebp+eax], xmm0

; 225  :         afMatrix[2] = -fSinY;

  002c6	f3 0f 10 45 a8	 movss	 xmm0, DWORD PTR _fSinY$8[ebp]
  002cb	0f 57 05 00 00
	00 00		 xorps	 xmm0, DWORD PTR __xmm@80000000800000008000000080000000
  002d2	6a 04		 push	 4
  002d4	58		 pop	 eax
  002d5	d1 e0		 shl	 eax, 1
  002d7	f3 0f 11 44 05
	bc		 movss	 DWORD PTR _afMatrix$11[ebp+eax], xmm0

; 226  :         afMatrix[4] = fSinX * fSinY;

  002dd	f3 0f 10 45 a4	 movss	 xmm0, DWORD PTR _fSinX$7[ebp]
  002e2	f3 0f 59 45 a8	 mulss	 xmm0, DWORD PTR _fSinY$8[ebp]
  002e7	6a 04		 push	 4
  002e9	58		 pop	 eax
  002ea	c1 e0 02	 shl	 eax, 2
  002ed	f3 0f 11 44 05
	bc		 movss	 DWORD PTR _afMatrix$11[ebp+eax], xmm0

; 227  :         afMatrix[5] = fCosX;

  002f3	6a 04		 push	 4
  002f5	58		 pop	 eax
  002f6	6b c0 05	 imul	 eax, eax, 5
  002f9	f3 0f 10 45 a0	 movss	 xmm0, DWORD PTR _fCosX$6[ebp]
  002fe	f3 0f 11 44 05
	bc		 movss	 DWORD PTR _afMatrix$11[ebp+eax], xmm0

; 228  :         afMatrix[6] = fSinX * fCosY;

  00304	f3 0f 10 45 a4	 movss	 xmm0, DWORD PTR _fSinX$7[ebp]
  00309	f3 0f 59 45 9c	 mulss	 xmm0, DWORD PTR _fCosY$5[ebp]
  0030e	6a 04		 push	 4
  00310	58		 pop	 eax
  00311	6b c0 06	 imul	 eax, eax, 6
  00314	f3 0f 11 44 05
	bc		 movss	 DWORD PTR _afMatrix$11[ebp+eax], xmm0

; 229  :         afMatrix[8] = fSinY * fCosX;

  0031a	f3 0f 10 45 a8	 movss	 xmm0, DWORD PTR _fSinY$8[ebp]
  0031f	f3 0f 59 45 a0	 mulss	 xmm0, DWORD PTR _fCosX$6[ebp]
  00324	6a 04		 push	 4
  00326	58		 pop	 eax
  00327	c1 e0 03	 shl	 eax, 3
  0032a	f3 0f 11 44 05
	bc		 movss	 DWORD PTR _afMatrix$11[ebp+eax], xmm0

; 230  :         afMatrix[9] = -fSinX;

  00330	f3 0f 10 45 a4	 movss	 xmm0, DWORD PTR _fSinX$7[ebp]
  00335	0f 57 05 00 00
	00 00		 xorps	 xmm0, DWORD PTR __xmm@80000000800000008000000080000000
  0033c	6a 04		 push	 4
  0033e	58		 pop	 eax
  0033f	6b c0 09	 imul	 eax, eax, 9
  00342	f3 0f 11 44 05
	bc		 movss	 DWORD PTR _afMatrix$11[ebp+eax], xmm0

; 231  :         afMatrix[10] = fCosX * fCosY;

  00348	f3 0f 10 45 a0	 movss	 xmm0, DWORD PTR _fCosX$6[ebp]
  0034d	f3 0f 59 45 9c	 mulss	 xmm0, DWORD PTR _fCosY$5[ebp]
  00352	6a 04		 push	 4
  00354	58		 pop	 eax
  00355	6b c0 0a	 imul	 eax, eax, 10
  00358	f3 0f 11 44 05
	bc		 movss	 DWORD PTR _afMatrix$11[ebp+eax], xmm0

; 232  :         afMatrix[15] = 1.0f;

  0035e	6a 04		 push	 4
  00360	58		 pop	 eax
  00361	6b c0 0f	 imul	 eax, eax, 15
  00364	f3 0f 10 05 00
	00 00 00	 movss	 xmm0, DWORD PTR __real@3f800000
  0036c	f3 0f 11 44 05
	bc		 movss	 DWORD PTR _afMatrix$11[ebp+eax], xmm0

; 233  : 
; 234  : 		#ifdef WRAPPER_USE_CPU_WIND
; 235  : 			CSpeedTreeRT::SetWindMatrix(j, afMatrix);
; 236  : 		#endif
; 237  : 
; 238  : 		#ifdef WRAPPER_USE_GPU_WIND
; 239  : 			// graphics API specific
; 240  : 			UploadWindMatrix(c_nVertexShader_WindMatrices + j * 4, afMatrix);
; 241  : 		#endif
; 242  : 	}

  00372	e9 57 fd ff ff	 jmp	 $LN6@SetupWindM
$LN7@SetupWindM:

; 243  : 
; 244  : 	// track wind strength
; 245  : 	fOldStrength = m_fWindStrength;

  00377	8b 45 b4	 mov	 eax, DWORD PTR _this$[ebp]
  0037a	f3 0f 10 40 64	 movss	 xmm0, DWORD PTR [eax+100]
  0037f	f3 0f 11 05 00
	00 00 00	 movss	 DWORD PTR ?fOldStrength@?1??SetupWindMatrices@CSpeedTreeForest@@QAEXM@Z@4MA, xmm0

; 246  : }

  00387	8b 4d fc	 mov	 ecx, DWORD PTR __$ArrayPad$[ebp]
  0038a	33 cd		 xor	 ecx, ebp
  0038c	e8 00 00 00 00	 call	 @__security_check_cookie@4
  00391	c9		 leave
  00392	c2 04 00	 ret	 4
?SetupWindMatrices@CSpeedTreeForest@@QAEXM@Z ENDP	; CSpeedTreeForest::SetupWindMatrices
_TEXT	ENDS
; Function compile flags: /Odspy
; File D:\Metin2 Server Files\mainline\SRC_2014\Metin2Client\SpeedTreeLib\SpeedTreeForest.cpp
; File C:\Program Files (x86)\Microsoft Visual Studio\2019\Community\VC\Tools\MSVC\14.28.29333\include\xtree
; File C:\Program Files (x86)\Microsoft Visual Studio\2019\Community\VC\Tools\MSVC\14.28.29333\include\xstddef
; File C:\Program Files (x86)\Microsoft Visual Studio\2019\Community\VC\Tools\MSVC\14.28.29333\include\xtree
; File D:\Metin2 Server Files\mainline\SRC_2014\Metin2Client\SpeedTreeLib\SpeedTreeForest.cpp
; File C:\Program Files (x86)\Microsoft Visual Studio\2019\Community\VC\Tools\MSVC\14.28.29333\include\xtree
; File C:\Program Files (x86)\Microsoft Visual Studio\2019\Community\VC\Tools\MSVC\14.28.29333\include\xstddef
; File C:\Program Files (x86)\Microsoft Visual Studio\2019\Community\VC\Tools\MSVC\14.28.29333\include\xutility
; File C:\Program Files (x86)\Microsoft Visual Studio\2019\Community\VC\Tools\MSVC\14.28.29333\include\xtree
; File D:\Metin2 Server Files\mainline\SRC_2014\Metin2Client\SpeedTreeLib\SpeedTreeForest.cpp
; File D:\Metin2 Server Files\mainline\SRC_2014\Metin2Client\SpeedTreeLib\SpeedTreeWrapper.h
; File D:\Metin2 Server Files\mainline\SRC_2014\Metin2Client\SpeedTreeLib\SpeedTreeForest.cpp
;	COMDAT ?SetWindStrength@CSpeedTreeForest@@QAEXM@Z
_TEXT	SEGMENT
$T1 = -92						; size = 4
_ppInstances$2 = -88					; size = 4
_uiCount$ = -84						; size = 4
_pMainTree$3 = -80					; size = 4
$T4 = -76						; size = 4
$T5 = -72						; size = 4
$T6 = -68						; size = 4
$T7 = -64						; size = 4
$T8 = -60						; size = 4
$T9 = -56						; size = 4
$T10 = -52						; size = 4
__Tmp$11 = -48						; size = 4
$T12 = -44						; size = 4
$T13 = -40						; size = 4
___param0$ = -36					; size = 4
__Scary$14 = -32					; size = 4
$T15 = -28						; size = 4
tv168 = -24						; size = 4
tv203 = -20						; size = 4
_itor$ = -16						; size = 4
_i$16 = -12						; size = 4
_this$ = -8						; size = 4
$T17 = -2						; size = 1
$T18 = -1						; size = 1
_fStrength$ = 8						; size = 4
?SetWindStrength@CSpeedTreeForest@@QAEXM@Z PROC		; CSpeedTreeForest::SetWindStrength, COMDAT
; _this$ = ecx

; 156  : {

  00000	55		 push	 ebp
  00001	8b ec		 mov	 ebp, esp
  00003	83 ec 5c	 sub	 esp, 92			; 0000005cH
  00006	89 4d f8	 mov	 DWORD PTR _this$[ebp], ecx

; 157  : 	if (m_fWindStrength == fStrength)

  00009	8b 45 f8	 mov	 eax, DWORD PTR _this$[ebp]
  0000c	f3 0f 10 40 64	 movss	 xmm0, DWORD PTR [eax+100]
  00011	0f 2e 45 08	 ucomiss xmm0, DWORD PTR _fStrength$[ebp]
  00015	9f		 lahf
  00016	f6 c4 44	 test	 ah, 68			; 00000044H
  00019	7a 05		 jp	 SHORT $LN7@SetWindStr

; 158  : 		return;

  0001b	e9 3a 01 00 00	 jmp	 $LN1@SetWindStr
$LN7@SetWindStr:

; 159  : 
; 160  : 	m_fWindStrength = fStrength;

  00020	8b 45 f8	 mov	 eax, DWORD PTR _this$[ebp]
  00023	f3 0f 10 45 08	 movss	 xmm0, DWORD PTR _fStrength$[ebp]
  00028	f3 0f 11 40 64	 movss	 DWORD PTR [eax+100], xmm0

; 161  : 
; 162  : 	TTreeMap::iterator itor = m_pMainTreeMap.begin();

  0002d	8d 45 f0	 lea	 eax, DWORD PTR _itor$[ebp]
  00030	50		 push	 eax
  00031	8b 4d f8	 mov	 ecx, DWORD PTR _this$[ebp]
  00034	83 c1 04	 add	 ecx, 4
  00037	e8 00 00 00 00	 call	 ?begin@?$_Tree@V?$_Tmap_traits@KPAVCSpeedTreeWrapper@@U?$less@K@std@@V?$allocator@U?$pair@$$CBKPAVCSpeedTreeWrapper@@@std@@@3@$0A@@std@@@std@@QAE?AV?$_Tree_iterator@V?$_Tree_val@U?$_Tree_simple_types@U?$pair@$$CBKPAVCSpeedTreeWrapper@@@std@@@std@@@std@@@2@XZ ; std::_Tree<std::_Tmap_traits<unsigned long,CSpeedTreeWrapper *,std::less<unsigned long>,std::allocator<std::pair<unsigned long const ,CSpeedTreeWrapper *> >,0> >::begin
$LN2@SetWindStr:
; File C:\Program Files (x86)\Microsoft Visual Studio\2019\Community\VC\Tools\MSVC\14.28.29333\include\xtree

; 2047 :         return _STD addressof(_Mypair._Myval2._Myval2);

  0003c	8b 45 f8	 mov	 eax, DWORD PTR _this$[ebp]
  0003f	83 c0 04	 add	 eax, 4
; File C:\Program Files (x86)\Microsoft Visual Studio\2019\Community\VC\Tools\MSVC\14.28.29333\include\xstddef

; 275  :     return __builtin_addressof(_Val);

  00042	89 45 e4	 mov	 DWORD PTR $T15[ebp], eax
; File C:\Program Files (x86)\Microsoft Visual Studio\2019\Community\VC\Tools\MSVC\14.28.29333\include\xtree

; 2047 :         return _STD addressof(_Mypair._Myval2._Myval2);

  00045	8b 45 e4	 mov	 eax, DWORD PTR $T15[ebp]
  00048	89 45 e0	 mov	 DWORD PTR __Scary$14[ebp], eax

; 1250 :         return iterator(_Scary->_Myhead, _Scary);

  0004b	8b 45 e0	 mov	 eax, DWORD PTR __Scary$14[ebp]
  0004e	8b 00		 mov	 eax, DWORD PTR [eax]
  00050	89 45 dc	 mov	 DWORD PTR ___param0$[ebp], eax

; 39   :     _Tree_unchecked_const_iterator(_Nodeptr _Pnode, const _Mytree* _Plist) noexcept : _Ptr(_Pnode) {

  00053	8b 45 dc	 mov	 eax, DWORD PTR ___param0$[ebp]
  00056	89 45 d8	 mov	 DWORD PTR $T13[ebp], eax

; 1250 :         return iterator(_Scary->_Myhead, _Scary);

  00059	8d 45 d8	 lea	 eax, DWORD PTR $T13[ebp]
  0005c	89 45 d4	 mov	 DWORD PTR $T12[ebp], eax

; 232  :         return this->_Ptr == _Right._Ptr;

  0005f	8b 45 d4	 mov	 eax, DWORD PTR $T12[ebp]
  00062	8b 4d f0	 mov	 ecx, DWORD PTR _itor$[ebp]
  00065	3b 08		 cmp	 ecx, DWORD PTR [eax]
  00067	75 09		 jne	 SHORT $LN58@SetWindStr
  00069	c7 45 ec 01 00
	00 00		 mov	 DWORD PTR tv203[ebp], 1
  00070	eb 04		 jmp	 SHORT $LN59@SetWindStr
$LN58@SetWindStr:
  00072	83 65 ec 00	 and	 DWORD PTR tv203[ebp], 0
$LN59@SetWindStr:
  00076	8a 45 ec	 mov	 al, BYTE PTR tv203[ebp]
  00079	88 45 ff	 mov	 BYTE PTR $T18[ebp], al

; 236  :         return !(*this == _Right);

  0007c	0f b6 45 ff	 movzx	 eax, BYTE PTR $T18[ebp]
  00080	85 c0		 test	 eax, eax
  00082	75 09		 jne	 SHORT $LN53@SetWindStr
  00084	c7 45 e8 01 00
	00 00		 mov	 DWORD PTR tv168[ebp], 1
  0008b	eb 04		 jmp	 SHORT $LN54@SetWindStr
$LN53@SetWindStr:
  0008d	83 65 e8 00	 and	 DWORD PTR tv168[ebp], 0
$LN54@SetWindStr:
  00091	8a 45 e8	 mov	 al, BYTE PTR tv168[ebp]
  00094	88 45 fe	 mov	 BYTE PTR $T17[ebp], al
; File D:\Metin2 Server Files\mainline\SRC_2014\Metin2Client\SpeedTreeLib\SpeedTreeForest.cpp

; 165  : 	while (itor != m_pMainTreeMap.end())

  00097	0f b6 45 fe	 movzx	 eax, BYTE PTR $T17[ebp]
  0009b	85 c0		 test	 eax, eax
  0009d	0f 84 b7 00 00
	00		 je	 $LN3@SetWindStr
; File C:\Program Files (x86)\Microsoft Visual Studio\2019\Community\VC\Tools\MSVC\14.28.29333\include\xtree

; 286  :         _Tree_iterator _Tmp = *this;

  000a3	8b 45 f0	 mov	 eax, DWORD PTR _itor$[ebp]
  000a6	89 45 d0	 mov	 DWORD PTR __Tmp$11[ebp], eax

; 198  :         _Mybase::operator++();

  000a9	8d 4d f0	 lea	 ecx, DWORD PTR _itor$[ebp]
  000ac	e8 00 00 00 00	 call	 ??E?$_Tree_unchecked_const_iterator@V?$_Tree_val@U?$_Tree_simple_types@U?$pair@$$CBKPAVCSpeedTreeWrapper@@@std@@@std@@@std@@U_Iterator_base0@2@@std@@QAEAAV01@XZ ; std::_Tree_unchecked_const_iterator<std::_Tree_val<std::_Tree_simple_types<std::pair<unsigned long const ,CSpeedTreeWrapper *> > >,std::_Iterator_base0>::operator++

; 288  :         return _Tmp;

  000b1	8b 45 d0	 mov	 eax, DWORD PTR __Tmp$11[ebp]
  000b4	89 45 cc	 mov	 DWORD PTR $T10[ebp], eax
  000b7	8d 45 cc	 lea	 eax, DWORD PTR $T10[ebp]
  000ba	89 45 c8	 mov	 DWORD PTR $T9[ebp], eax

; 185  :         return this->_Ptr->_Myval;

  000bd	8b 45 c8	 mov	 eax, DWORD PTR $T9[ebp]
  000c0	8b 00		 mov	 eax, DWORD PTR [eax]
  000c2	83 c0 10	 add	 eax, 16			; 00000010H
  000c5	89 45 c4	 mov	 DWORD PTR $T8[ebp], eax

; 273  :         return const_cast<reference>(_Mybase::operator*());

  000c8	8b 45 c4	 mov	 eax, DWORD PTR $T8[ebp]
  000cb	89 45 c0	 mov	 DWORD PTR $T7[ebp], eax
; File C:\Program Files (x86)\Microsoft Visual Studio\2019\Community\VC\Tools\MSVC\14.28.29333\include\xstddef

; 275  :     return __builtin_addressof(_Val);

  000ce	8b 45 c0	 mov	 eax, DWORD PTR $T7[ebp]
  000d1	89 45 bc	 mov	 DWORD PTR $T6[ebp], eax
; File C:\Program Files (x86)\Microsoft Visual Studio\2019\Community\VC\Tools\MSVC\14.28.29333\include\xutility

; 151  :         return _STD addressof(_Val);

  000d4	8b 45 bc	 mov	 eax, DWORD PTR $T6[ebp]
  000d7	89 45 b8	 mov	 DWORD PTR $T5[ebp], eax
; File C:\Program Files (x86)\Microsoft Visual Studio\2019\Community\VC\Tools\MSVC\14.28.29333\include\xtree

; 277  :         return pointer_traits<pointer>::pointer_to(**this);

  000da	8b 45 b8	 mov	 eax, DWORD PTR $T5[ebp]
  000dd	89 45 b4	 mov	 DWORD PTR $T4[ebp], eax
; File D:\Metin2 Server Files\mainline\SRC_2014\Metin2Client\SpeedTreeLib\SpeedTreeForest.cpp

; 167  : 		CSpeedTreeWrapper * pMainTree = (itor++)->second;

  000e0	8b 45 b4	 mov	 eax, DWORD PTR $T4[ebp]
  000e3	8b 40 04	 mov	 eax, DWORD PTR [eax+4]
  000e6	89 45 b0	 mov	 DWORD PTR _pMainTree$3[ebp], eax

; 168  : 		CSpeedTreeWrapper ** ppInstances = pMainTree->GetInstances(uiCount);

  000e9	8d 45 ac	 lea	 eax, DWORD PTR _uiCount$[ebp]
  000ec	50		 push	 eax
  000ed	8b 4d b0	 mov	 ecx, DWORD PTR _pMainTree$3[ebp]
  000f0	e8 00 00 00 00	 call	 ?GetInstances@CSpeedTreeWrapper@@QAEPAPAV1@AAI@Z ; CSpeedTreeWrapper::GetInstances
  000f5	89 45 a8	 mov	 DWORD PTR _ppInstances$2[ebp], eax

; 169  : 
; 170  : 		for (UINT i = 0; i < uiCount; ++i)

  000f8	83 65 f4 00	 and	 DWORD PTR _i$16[ebp], 0
  000fc	eb 07		 jmp	 SHORT $LN6@SetWindStr
$LN4@SetWindStr:
  000fe	8b 45 f4	 mov	 eax, DWORD PTR _i$16[ebp]
  00101	40		 inc	 eax
  00102	89 45 f4	 mov	 DWORD PTR _i$16[ebp], eax
$LN6@SetWindStr:
  00105	8b 45 f4	 mov	 eax, DWORD PTR _i$16[ebp]
  00108	3b 45 ac	 cmp	 eax, DWORD PTR _uiCount$[ebp]
  0010b	73 48		 jae	 SHORT $LN5@SetWindStr
; File D:\Metin2 Server Files\mainline\SRC_2014\Metin2Client\SpeedTreeLib\SpeedTreeWrapper.h

; 131  : 	CSpeedTreeRT *				GetSpeedTree(void) const						{ return m_pSpeedTree; }

  0010d	8b 45 f4	 mov	 eax, DWORD PTR _i$16[ebp]
  00110	8b 4d a8	 mov	 ecx, DWORD PTR _ppInstances$2[ebp]
  00113	8b 04 81	 mov	 eax, DWORD PTR [ecx+eax*4]
  00116	8b 80 7c 01 00
	00		 mov	 eax, DWORD PTR [eax+380]
  0011c	89 45 a4	 mov	 DWORD PTR $T1[ebp], eax
; File D:\Metin2 Server Files\mainline\SRC_2014\Metin2Client\SpeedTreeLib\SpeedTreeForest.cpp

; 171  : 			ppInstances[i]->GetSpeedTree()->SetWindStrength(m_fWindStrength);

  0011f	51		 push	 ecx
  00120	f3 0f 10 05 00
	00 00 00	 movss	 xmm0, DWORD PTR __real@bf800000
  00128	f3 0f 11 04 24	 movss	 DWORD PTR [esp], xmm0
  0012d	51		 push	 ecx
  0012e	f3 0f 10 05 00
	00 00 00	 movss	 xmm0, DWORD PTR __real@bf800000
  00136	f3 0f 11 04 24	 movss	 DWORD PTR [esp], xmm0
  0013b	8b 45 f8	 mov	 eax, DWORD PTR _this$[ebp]
  0013e	51		 push	 ecx
  0013f	f3 0f 10 40 64	 movss	 xmm0, DWORD PTR [eax+100]
  00144	f3 0f 11 04 24	 movss	 DWORD PTR [esp], xmm0
  00149	8b 4d a4	 mov	 ecx, DWORD PTR $T1[ebp]
  0014c	e8 00 00 00 00	 call	 ?SetWindStrength@CSpeedTreeRT@@QAEMMMM@Z ; CSpeedTreeRT::SetWindStrength
  00151	dd d8		 fstp	 ST(0)
  00153	eb a9		 jmp	 SHORT $LN4@SetWindStr
$LN5@SetWindStr:

; 172  : 	}

  00155	e9 e2 fe ff ff	 jmp	 $LN2@SetWindStr
$LN3@SetWindStr:
$LN1@SetWindStr:

; 173  : }

  0015a	c9		 leave
  0015b	c2 04 00	 ret	 4
?SetWindStrength@CSpeedTreeForest@@QAEXM@Z ENDP		; CSpeedTreeForest::SetWindStrength
_TEXT	ENDS
; Function compile flags: /Odspy
; File D:\Metin2 Server Files\mainline\SRC_2014\Metin2Client\SpeedTreeLib\SpeedTreeForest.cpp
;	COMDAT ?SetFog@CSpeedTreeForest@@QAEXMM@Z
_TEXT	SEGMENT
_c_fFogLinearScale$ = -8				; size = 4
_this$ = -4						; size = 4
_fFogNear$ = 8						; size = 4
_fFogFar$ = 12						; size = 4
?SetFog@CSpeedTreeForest@@QAEXMM@Z PROC			; CSpeedTreeForest::SetFog, COMDAT
; _this$ = ecx

; 309  : {

  00000	55		 push	 ebp
  00001	8b ec		 mov	 ebp, esp
  00003	51		 push	 ecx
  00004	51		 push	 ecx
  00005	89 4d fc	 mov	 DWORD PTR _this$[ebp], ecx

; 310  : 	const float c_fFogLinearScale = (1.0f / (fFogFar - fFogNear));

  00008	f3 0f 10 45 0c	 movss	 xmm0, DWORD PTR _fFogFar$[ebp]
  0000d	f3 0f 5c 45 08	 subss	 xmm0, DWORD PTR _fFogNear$[ebp]
  00012	f3 0f 10 0d 00
	00 00 00	 movss	 xmm1, DWORD PTR __real@3f800000
  0001a	f3 0f 5e c8	 divss	 xmm1, xmm0
  0001e	f3 0f 11 4d f8	 movss	 DWORD PTR _c_fFogLinearScale$[ebp], xmm1

; 311  : 
; 312  : 	m_afFog[0] = fFogNear;

  00023	6a 04		 push	 4
  00025	58		 pop	 eax
  00026	6b c0 00	 imul	 eax, eax, 0
  00029	8b 4d fc	 mov	 ecx, DWORD PTR _this$[ebp]
  0002c	f3 0f 10 45 08	 movss	 xmm0, DWORD PTR _fFogNear$[ebp]
  00031	f3 0f 11 44 01
	3c		 movss	 DWORD PTR [ecx+eax+60], xmm0

; 313  : 	m_afFog[1] = fFogFar;

  00037	6a 04		 push	 4
  00039	58		 pop	 eax
  0003a	c1 e0 00	 shl	 eax, 0
  0003d	8b 4d fc	 mov	 ecx, DWORD PTR _this$[ebp]
  00040	f3 0f 10 45 0c	 movss	 xmm0, DWORD PTR _fFogFar$[ebp]
  00045	f3 0f 11 44 01
	3c		 movss	 DWORD PTR [ecx+eax+60], xmm0

; 314  : 	m_afFog[2] = c_fFogLinearScale;

  0004b	6a 04		 push	 4
  0004d	58		 pop	 eax
  0004e	d1 e0		 shl	 eax, 1
  00050	8b 4d fc	 mov	 ecx, DWORD PTR _this$[ebp]
  00053	f3 0f 10 45 f8	 movss	 xmm0, DWORD PTR _c_fFogLinearScale$[ebp]
  00058	f3 0f 11 44 01
	3c		 movss	 DWORD PTR [ecx+eax+60], xmm0

; 315  : 	m_afFog[3] = 0.0f;

  0005e	6a 04		 push	 4
  00060	58		 pop	 eax
  00061	6b c0 03	 imul	 eax, eax, 3
  00064	8b 4d fc	 mov	 ecx, DWORD PTR _this$[ebp]
  00067	0f 57 c0	 xorps	 xmm0, xmm0
  0006a	f3 0f 11 44 01
	3c		 movss	 DWORD PTR [ecx+eax+60], xmm0

; 316  : }

  00070	c9		 leave
  00071	c2 08 00	 ret	 8
?SetFog@CSpeedTreeForest@@QAEXMM@Z ENDP			; CSpeedTreeForest::SetFog
_TEXT	ENDS
; Function compile flags: /Odspy
; File D:\Metin2 Server Files\mainline\SRC_2014\Metin2Client\SpeedTreeLib\SpeedTreeForest.cpp
;	COMDAT ?SetLight@CSpeedTreeForest@@QAEXPBM00@Z
_TEXT	SEGMENT
_this$ = -4						; size = 4
_afDirection$ = 8					; size = 4
_afAmbient$ = 12					; size = 4
_afDiffuse$ = 16					; size = 4
?SetLight@CSpeedTreeForest@@QAEXPBM00@Z PROC		; CSpeedTreeForest::SetLight, COMDAT
; _this$ = ecx

; 291  : {

  00000	55		 push	 ebp
  00001	8b ec		 mov	 ebp, esp
  00003	51		 push	 ecx
  00004	56		 push	 esi
  00005	89 4d fc	 mov	 DWORD PTR _this$[ebp], ecx

; 292  : 	m_afLighting[0] = afDirection[0];

  00008	6a 04		 push	 4
  0000a	58		 pop	 eax
  0000b	6b c0 00	 imul	 eax, eax, 0
  0000e	6a 04		 push	 4
  00010	59		 pop	 ecx
  00011	6b c9 00	 imul	 ecx, ecx, 0
  00014	8b 55 fc	 mov	 edx, DWORD PTR _this$[ebp]
  00017	8b 75 08	 mov	 esi, DWORD PTR _afDirection$[ebp]
  0001a	8b 04 06	 mov	 eax, DWORD PTR [esi+eax]
  0001d	89 44 0a 0c	 mov	 DWORD PTR [edx+ecx+12], eax

; 293  : 	m_afLighting[1] = afDirection[1];

  00021	6a 04		 push	 4
  00023	58		 pop	 eax
  00024	c1 e0 00	 shl	 eax, 0
  00027	6a 04		 push	 4
  00029	59		 pop	 ecx
  0002a	c1 e1 00	 shl	 ecx, 0
  0002d	8b 55 fc	 mov	 edx, DWORD PTR _this$[ebp]
  00030	8b 75 08	 mov	 esi, DWORD PTR _afDirection$[ebp]
  00033	8b 04 06	 mov	 eax, DWORD PTR [esi+eax]
  00036	89 44 0a 0c	 mov	 DWORD PTR [edx+ecx+12], eax

; 294  : 	m_afLighting[2] = afDirection[2];

  0003a	6a 04		 push	 4
  0003c	58		 pop	 eax
  0003d	d1 e0		 shl	 eax, 1
  0003f	6a 04		 push	 4
  00041	59		 pop	 ecx
  00042	d1 e1		 shl	 ecx, 1
  00044	8b 55 fc	 mov	 edx, DWORD PTR _this$[ebp]
  00047	8b 75 08	 mov	 esi, DWORD PTR _afDirection$[ebp]
  0004a	8b 04 06	 mov	 eax, DWORD PTR [esi+eax]
  0004d	89 44 0a 0c	 mov	 DWORD PTR [edx+ecx+12], eax

; 295  : 	m_afLighting[3] = 1.0f;

  00051	6a 04		 push	 4
  00053	58		 pop	 eax
  00054	6b c0 03	 imul	 eax, eax, 3
  00057	8b 4d fc	 mov	 ecx, DWORD PTR _this$[ebp]
  0005a	f3 0f 10 05 00
	00 00 00	 movss	 xmm0, DWORD PTR __real@3f800000
  00062	f3 0f 11 44 01
	0c		 movss	 DWORD PTR [ecx+eax+12], xmm0

; 296  : 
; 297  : 	m_afLighting[4] = afAmbient[0];

  00068	6a 04		 push	 4
  0006a	58		 pop	 eax
  0006b	6b c0 00	 imul	 eax, eax, 0
  0006e	6a 04		 push	 4
  00070	59		 pop	 ecx
  00071	c1 e1 02	 shl	 ecx, 2
  00074	8b 55 fc	 mov	 edx, DWORD PTR _this$[ebp]
  00077	8b 75 0c	 mov	 esi, DWORD PTR _afAmbient$[ebp]
  0007a	8b 04 06	 mov	 eax, DWORD PTR [esi+eax]
  0007d	89 44 0a 0c	 mov	 DWORD PTR [edx+ecx+12], eax

; 298  : 	m_afLighting[5] = afAmbient[1];

  00081	6a 04		 push	 4
  00083	58		 pop	 eax
  00084	c1 e0 00	 shl	 eax, 0
  00087	6a 04		 push	 4
  00089	59		 pop	 ecx
  0008a	6b c9 05	 imul	 ecx, ecx, 5
  0008d	8b 55 fc	 mov	 edx, DWORD PTR _this$[ebp]
  00090	8b 75 0c	 mov	 esi, DWORD PTR _afAmbient$[ebp]
  00093	8b 04 06	 mov	 eax, DWORD PTR [esi+eax]
  00096	89 44 0a 0c	 mov	 DWORD PTR [edx+ecx+12], eax

; 299  : 	m_afLighting[6] = afAmbient[2];

  0009a	6a 04		 push	 4
  0009c	58		 pop	 eax
  0009d	d1 e0		 shl	 eax, 1
  0009f	6a 04		 push	 4
  000a1	59		 pop	 ecx
  000a2	6b c9 06	 imul	 ecx, ecx, 6
  000a5	8b 55 fc	 mov	 edx, DWORD PTR _this$[ebp]
  000a8	8b 75 0c	 mov	 esi, DWORD PTR _afAmbient$[ebp]
  000ab	8b 04 06	 mov	 eax, DWORD PTR [esi+eax]
  000ae	89 44 0a 0c	 mov	 DWORD PTR [edx+ecx+12], eax

; 300  : 	m_afLighting[7] = afAmbient[3];

  000b2	6a 04		 push	 4
  000b4	58		 pop	 eax
  000b5	6b c0 03	 imul	 eax, eax, 3
  000b8	6a 04		 push	 4
  000ba	59		 pop	 ecx
  000bb	6b c9 07	 imul	 ecx, ecx, 7
  000be	8b 55 fc	 mov	 edx, DWORD PTR _this$[ebp]
  000c1	8b 75 0c	 mov	 esi, DWORD PTR _afAmbient$[ebp]
  000c4	8b 04 06	 mov	 eax, DWORD PTR [esi+eax]
  000c7	89 44 0a 0c	 mov	 DWORD PTR [edx+ecx+12], eax

; 301  : 
; 302  : 	m_afLighting[8] = afDiffuse[0];

  000cb	6a 04		 push	 4
  000cd	58		 pop	 eax
  000ce	6b c0 00	 imul	 eax, eax, 0
  000d1	6a 04		 push	 4
  000d3	59		 pop	 ecx
  000d4	c1 e1 03	 shl	 ecx, 3
  000d7	8b 55 fc	 mov	 edx, DWORD PTR _this$[ebp]
  000da	8b 75 10	 mov	 esi, DWORD PTR _afDiffuse$[ebp]
  000dd	8b 04 06	 mov	 eax, DWORD PTR [esi+eax]
  000e0	89 44 0a 0c	 mov	 DWORD PTR [edx+ecx+12], eax

; 303  : 	m_afLighting[9] = afDiffuse[1];

  000e4	6a 04		 push	 4
  000e6	58		 pop	 eax
  000e7	c1 e0 00	 shl	 eax, 0
  000ea	6a 04		 push	 4
  000ec	59		 pop	 ecx
  000ed	6b c9 09	 imul	 ecx, ecx, 9
  000f0	8b 55 fc	 mov	 edx, DWORD PTR _this$[ebp]
  000f3	8b 75 10	 mov	 esi, DWORD PTR _afDiffuse$[ebp]
  000f6	8b 04 06	 mov	 eax, DWORD PTR [esi+eax]
  000f9	89 44 0a 0c	 mov	 DWORD PTR [edx+ecx+12], eax

; 304  : 	m_afLighting[10] = afDiffuse[2];

  000fd	6a 04		 push	 4
  000ff	58		 pop	 eax
  00100	d1 e0		 shl	 eax, 1
  00102	6a 04		 push	 4
  00104	59		 pop	 ecx
  00105	6b c9 0a	 imul	 ecx, ecx, 10
  00108	8b 55 fc	 mov	 edx, DWORD PTR _this$[ebp]
  0010b	8b 75 10	 mov	 esi, DWORD PTR _afDiffuse$[ebp]
  0010e	8b 04 06	 mov	 eax, DWORD PTR [esi+eax]
  00111	89 44 0a 0c	 mov	 DWORD PTR [edx+ecx+12], eax

; 305  : 	m_afLighting[11] = afDiffuse[3];

  00115	6a 04		 push	 4
  00117	58		 pop	 eax
  00118	6b c0 03	 imul	 eax, eax, 3
  0011b	6a 04		 push	 4
  0011d	59		 pop	 ecx
  0011e	6b c9 0b	 imul	 ecx, ecx, 11
  00121	8b 55 fc	 mov	 edx, DWORD PTR _this$[ebp]
  00124	8b 75 10	 mov	 esi, DWORD PTR _afDiffuse$[ebp]
  00127	8b 04 06	 mov	 eax, DWORD PTR [esi+eax]
  0012a	89 44 0a 0c	 mov	 DWORD PTR [edx+ecx+12], eax

; 306  : }

  0012e	5e		 pop	 esi
  0012f	c9		 leave
  00130	c2 0c 00	 ret	 12			; 0000000cH
?SetLight@CSpeedTreeForest@@QAEXPBM00@Z ENDP		; CSpeedTreeForest::SetLight
_TEXT	ENDS
; Function compile flags: /Odspy
; File D:\Metin2 Server Files\mainline\SRC_2014\Metin2Client\SpeedTreeLib\SpeedTreeForest.cpp
; File C:\Program Files (x86)\Microsoft Visual Studio\2019\Community\VC\Tools\MSVC\14.28.29333\include\xtree
; File C:\Program Files (x86)\Microsoft Visual Studio\2019\Community\VC\Tools\MSVC\14.28.29333\include\xstddef
; File C:\Program Files (x86)\Microsoft Visual Studio\2019\Community\VC\Tools\MSVC\14.28.29333\include\xtree
; File D:\Metin2 Server Files\mainline\SRC_2014\Metin2Client\SpeedTreeLib\SpeedTreeForest.cpp
; File C:\Program Files (x86)\Microsoft Visual Studio\2019\Community\VC\Tools\MSVC\14.28.29333\include\xtree
; File C:\Program Files (x86)\Microsoft Visual Studio\2019\Community\VC\Tools\MSVC\14.28.29333\include\xstddef
; File C:\Program Files (x86)\Microsoft Visual Studio\2019\Community\VC\Tools\MSVC\14.28.29333\include\xutility
; File C:\Program Files (x86)\Microsoft Visual Studio\2019\Community\VC\Tools\MSVC\14.28.29333\include\xtree
; File D:\Metin2 Server Files\mainline\SRC_2014\Metin2Client\SpeedTreeLib\SpeedTreeForest.cpp
;	COMDAT ?Clear@CSpeedTreeForest@@QAEXXZ
_TEXT	SEGMENT
tv159 = -104						; size = 4
tv148 = -100						; size = 4
_ppInstances$1 = -96					; size = 4
_uiCount$ = -92						; size = 4
$T2 = -88						; size = 4
$T3 = -84						; size = 4
$T4 = -80						; size = 4
$T5 = -76						; size = 4
$T6 = -72						; size = 4
$T7 = -68						; size = 4
$T8 = -64						; size = 4
__Tmp$9 = -60						; size = 4
$T10 = -56						; size = 4
$T11 = -52						; size = 4
___param0$ = -48					; size = 4
__Scary$12 = -44					; size = 4
$T13 = -40						; size = 4
_pMainTree$14 = -36					; size = 4
tv186 = -32						; size = 4
tv221 = -28						; size = 4
_this$ = -24						; size = 4
$T15 = -20						; size = 4
$T16 = -16						; size = 4
_itor$ = -12						; size = 4
_i$17 = -8						; size = 4
$T18 = -2						; size = 1
$T19 = -1						; size = 1
?Clear@CSpeedTreeForest@@QAEXXZ PROC			; CSpeedTreeForest::Clear, COMDAT
; _this$ = ecx

; 40   : {

  00000	55		 push	 ebp
  00001	8b ec		 mov	 ebp, esp
  00003	83 ec 68	 sub	 esp, 104		; 00000068H
  00006	89 4d e8	 mov	 DWORD PTR _this$[ebp], ecx

; 41   : 	TTreeMap::iterator itor = m_pMainTreeMap.begin();

  00009	8d 45 f4	 lea	 eax, DWORD PTR _itor$[ebp]
  0000c	50		 push	 eax
  0000d	8b 4d e8	 mov	 ecx, DWORD PTR _this$[ebp]
  00010	83 c1 04	 add	 ecx, 4
  00013	e8 00 00 00 00	 call	 ?begin@?$_Tree@V?$_Tmap_traits@KPAVCSpeedTreeWrapper@@U?$less@K@std@@V?$allocator@U?$pair@$$CBKPAVCSpeedTreeWrapper@@@std@@@3@$0A@@std@@@std@@QAE?AV?$_Tree_iterator@V?$_Tree_val@U?$_Tree_simple_types@U?$pair@$$CBKPAVCSpeedTreeWrapper@@@std@@@std@@@std@@@2@XZ ; std::_Tree<std::_Tmap_traits<unsigned long,CSpeedTreeWrapper *,std::less<unsigned long>,std::allocator<std::pair<unsigned long const ,CSpeedTreeWrapper *> >,0> >::begin
$LN2@Clear:
; File C:\Program Files (x86)\Microsoft Visual Studio\2019\Community\VC\Tools\MSVC\14.28.29333\include\xtree

; 2047 :         return _STD addressof(_Mypair._Myval2._Myval2);

  00018	8b 45 e8	 mov	 eax, DWORD PTR _this$[ebp]
  0001b	83 c0 04	 add	 eax, 4
; File C:\Program Files (x86)\Microsoft Visual Studio\2019\Community\VC\Tools\MSVC\14.28.29333\include\xstddef

; 275  :     return __builtin_addressof(_Val);

  0001e	89 45 d8	 mov	 DWORD PTR $T13[ebp], eax
; File C:\Program Files (x86)\Microsoft Visual Studio\2019\Community\VC\Tools\MSVC\14.28.29333\include\xtree

; 2047 :         return _STD addressof(_Mypair._Myval2._Myval2);

  00021	8b 45 d8	 mov	 eax, DWORD PTR $T13[ebp]
  00024	89 45 d4	 mov	 DWORD PTR __Scary$12[ebp], eax

; 1250 :         return iterator(_Scary->_Myhead, _Scary);

  00027	8b 45 d4	 mov	 eax, DWORD PTR __Scary$12[ebp]
  0002a	8b 00		 mov	 eax, DWORD PTR [eax]
  0002c	89 45 d0	 mov	 DWORD PTR ___param0$[ebp], eax

; 39   :     _Tree_unchecked_const_iterator(_Nodeptr _Pnode, const _Mytree* _Plist) noexcept : _Ptr(_Pnode) {

  0002f	8b 45 d0	 mov	 eax, DWORD PTR ___param0$[ebp]
  00032	89 45 cc	 mov	 DWORD PTR $T11[ebp], eax

; 1250 :         return iterator(_Scary->_Myhead, _Scary);

  00035	8d 45 cc	 lea	 eax, DWORD PTR $T11[ebp]
  00038	89 45 c8	 mov	 DWORD PTR $T10[ebp], eax

; 232  :         return this->_Ptr == _Right._Ptr;

  0003b	8b 45 c8	 mov	 eax, DWORD PTR $T10[ebp]
  0003e	8b 4d f4	 mov	 ecx, DWORD PTR _itor$[ebp]
  00041	3b 08		 cmp	 ecx, DWORD PTR [eax]
  00043	75 09		 jne	 SHORT $LN61@Clear
  00045	c7 45 e4 01 00
	00 00		 mov	 DWORD PTR tv221[ebp], 1
  0004c	eb 04		 jmp	 SHORT $LN62@Clear
$LN61@Clear:
  0004e	83 65 e4 00	 and	 DWORD PTR tv221[ebp], 0
$LN62@Clear:
  00052	8a 45 e4	 mov	 al, BYTE PTR tv221[ebp]
  00055	88 45 ff	 mov	 BYTE PTR $T19[ebp], al

; 236  :         return !(*this == _Right);

  00058	0f b6 45 ff	 movzx	 eax, BYTE PTR $T19[ebp]
  0005c	85 c0		 test	 eax, eax
  0005e	75 09		 jne	 SHORT $LN56@Clear
  00060	c7 45 e0 01 00
	00 00		 mov	 DWORD PTR tv186[ebp], 1
  00067	eb 04		 jmp	 SHORT $LN57@Clear
$LN56@Clear:
  00069	83 65 e0 00	 and	 DWORD PTR tv186[ebp], 0
$LN57@Clear:
  0006d	8a 45 e0	 mov	 al, BYTE PTR tv186[ebp]
  00070	88 45 fe	 mov	 BYTE PTR $T18[ebp], al
; File D:\Metin2 Server Files\mainline\SRC_2014\Metin2Client\SpeedTreeLib\SpeedTreeForest.cpp

; 44   : 	while (itor != m_pMainTreeMap.end())

  00073	0f b6 45 fe	 movzx	 eax, BYTE PTR $T18[ebp]
  00077	85 c0		 test	 eax, eax
  00079	0f 84 b9 00 00
	00		 je	 $LN3@Clear
; File C:\Program Files (x86)\Microsoft Visual Studio\2019\Community\VC\Tools\MSVC\14.28.29333\include\xtree

; 286  :         _Tree_iterator _Tmp = *this;

  0007f	8b 45 f4	 mov	 eax, DWORD PTR _itor$[ebp]
  00082	89 45 c4	 mov	 DWORD PTR __Tmp$9[ebp], eax

; 198  :         _Mybase::operator++();

  00085	8d 4d f4	 lea	 ecx, DWORD PTR _itor$[ebp]
  00088	e8 00 00 00 00	 call	 ??E?$_Tree_unchecked_const_iterator@V?$_Tree_val@U?$_Tree_simple_types@U?$pair@$$CBKPAVCSpeedTreeWrapper@@@std@@@std@@@std@@U_Iterator_base0@2@@std@@QAEAAV01@XZ ; std::_Tree_unchecked_const_iterator<std::_Tree_val<std::_Tree_simple_types<std::pair<unsigned long const ,CSpeedTreeWrapper *> > >,std::_Iterator_base0>::operator++

; 288  :         return _Tmp;

  0008d	8b 45 c4	 mov	 eax, DWORD PTR __Tmp$9[ebp]
  00090	89 45 c0	 mov	 DWORD PTR $T8[ebp], eax
  00093	8d 45 c0	 lea	 eax, DWORD PTR $T8[ebp]
  00096	89 45 bc	 mov	 DWORD PTR $T7[ebp], eax

; 185  :         return this->_Ptr->_Myval;

  00099	8b 45 bc	 mov	 eax, DWORD PTR $T7[ebp]
  0009c	8b 00		 mov	 eax, DWORD PTR [eax]
  0009e	83 c0 10	 add	 eax, 16			; 00000010H
  000a1	89 45 b8	 mov	 DWORD PTR $T6[ebp], eax

; 273  :         return const_cast<reference>(_Mybase::operator*());

  000a4	8b 45 b8	 mov	 eax, DWORD PTR $T6[ebp]
  000a7	89 45 b4	 mov	 DWORD PTR $T5[ebp], eax
; File C:\Program Files (x86)\Microsoft Visual Studio\2019\Community\VC\Tools\MSVC\14.28.29333\include\xstddef

; 275  :     return __builtin_addressof(_Val);

  000aa	8b 45 b4	 mov	 eax, DWORD PTR $T5[ebp]
  000ad	89 45 b0	 mov	 DWORD PTR $T4[ebp], eax
; File C:\Program Files (x86)\Microsoft Visual Studio\2019\Community\VC\Tools\MSVC\14.28.29333\include\xutility

; 151  :         return _STD addressof(_Val);

  000b0	8b 45 b0	 mov	 eax, DWORD PTR $T4[ebp]
  000b3	89 45 ac	 mov	 DWORD PTR $T3[ebp], eax
; File C:\Program Files (x86)\Microsoft Visual Studio\2019\Community\VC\Tools\MSVC\14.28.29333\include\xtree

; 277  :         return pointer_traits<pointer>::pointer_to(**this);

  000b6	8b 45 ac	 mov	 eax, DWORD PTR $T3[ebp]
  000b9	89 45 a8	 mov	 DWORD PTR $T2[ebp], eax
; File D:\Metin2 Server Files\mainline\SRC_2014\Metin2Client\SpeedTreeLib\SpeedTreeForest.cpp

; 46   : 		CSpeedTreeWrapper * pMainTree = (itor++)->second;

  000bc	8b 45 a8	 mov	 eax, DWORD PTR $T2[ebp]
  000bf	8b 40 04	 mov	 eax, DWORD PTR [eax+4]
  000c2	89 45 dc	 mov	 DWORD PTR _pMainTree$14[ebp], eax

; 47   : 		CSpeedTreeWrapper ** ppInstances = pMainTree->GetInstances(uiCount);

  000c5	8d 45 a4	 lea	 eax, DWORD PTR _uiCount$[ebp]
  000c8	50		 push	 eax
  000c9	8b 4d dc	 mov	 ecx, DWORD PTR _pMainTree$14[ebp]
  000cc	e8 00 00 00 00	 call	 ?GetInstances@CSpeedTreeWrapper@@QAEPAPAV1@AAI@Z ; CSpeedTreeWrapper::GetInstances
  000d1	89 45 a0	 mov	 DWORD PTR _ppInstances$1[ebp], eax

; 48   : 
; 49   : 		for (UINT i = 0; i < uiCount; ++i)

  000d4	83 65 f8 00	 and	 DWORD PTR _i$17[ebp], 0
  000d8	eb 07		 jmp	 SHORT $LN6@Clear
$LN4@Clear:
  000da	8b 45 f8	 mov	 eax, DWORD PTR _i$17[ebp]
  000dd	40		 inc	 eax
  000de	89 45 f8	 mov	 DWORD PTR _i$17[ebp], eax
$LN6@Clear:
  000e1	8b 45 f8	 mov	 eax, DWORD PTR _i$17[ebp]
  000e4	3b 45 a4	 cmp	 eax, DWORD PTR _uiCount$[ebp]
  000e7	73 29		 jae	 SHORT $LN5@Clear

; 50   : 			delete ppInstances[i];

  000e9	8b 45 f8	 mov	 eax, DWORD PTR _i$17[ebp]
  000ec	8b 4d a0	 mov	 ecx, DWORD PTR _ppInstances$1[ebp]
  000ef	8b 04 81	 mov	 eax, DWORD PTR [ecx+eax*4]
  000f2	89 45 f0	 mov	 DWORD PTR $T16[ebp], eax
  000f5	83 7d f0 00	 cmp	 DWORD PTR $T16[ebp], 0
  000f9	74 11		 je	 SHORT $LN8@Clear
  000fb	6a 01		 push	 1
  000fd	8b 45 f0	 mov	 eax, DWORD PTR $T16[ebp]
  00100	8b 00		 mov	 eax, DWORD PTR [eax]
  00102	8b 4d f0	 mov	 ecx, DWORD PTR $T16[ebp]
  00105	ff 10		 call	 DWORD PTR [eax]
  00107	89 45 9c	 mov	 DWORD PTR tv148[ebp], eax
  0010a	eb 04		 jmp	 SHORT $LN9@Clear
$LN8@Clear:
  0010c	83 65 9c 00	 and	 DWORD PTR tv148[ebp], 0
$LN9@Clear:
  00110	eb c8		 jmp	 SHORT $LN4@Clear
$LN5@Clear:

; 51   : 
; 52   : 		delete pMainTree;

  00112	8b 45 dc	 mov	 eax, DWORD PTR _pMainTree$14[ebp]
  00115	89 45 ec	 mov	 DWORD PTR $T15[ebp], eax
  00118	83 7d ec 00	 cmp	 DWORD PTR $T15[ebp], 0
  0011c	74 11		 je	 SHORT $LN10@Clear
  0011e	6a 01		 push	 1
  00120	8b 45 ec	 mov	 eax, DWORD PTR $T15[ebp]
  00123	8b 00		 mov	 eax, DWORD PTR [eax]
  00125	8b 4d ec	 mov	 ecx, DWORD PTR $T15[ebp]
  00128	ff 10		 call	 DWORD PTR [eax]
  0012a	89 45 98	 mov	 DWORD PTR tv159[ebp], eax
  0012d	eb 04		 jmp	 SHORT $LN11@Clear
$LN10@Clear:
  0012f	83 65 98 00	 and	 DWORD PTR tv159[ebp], 0
$LN11@Clear:

; 53   : 	}

  00133	e9 e0 fe ff ff	 jmp	 $LN2@Clear
$LN3@Clear:

; 54   : 
; 55   : 	m_pMainTreeMap.clear();

  00138	8b 4d e8	 mov	 ecx, DWORD PTR _this$[ebp]
  0013b	83 c1 04	 add	 ecx, 4
  0013e	e8 00 00 00 00	 call	 ?clear@?$_Tree@V?$_Tmap_traits@KPAVCSpeedTreeWrapper@@U?$less@K@std@@V?$allocator@U?$pair@$$CBKPAVCSpeedTreeWrapper@@@std@@@3@$0A@@std@@@std@@QAEXXZ ; std::_Tree<std::_Tmap_traits<unsigned long,CSpeedTreeWrapper *,std::less<unsigned long>,std::allocator<std::pair<unsigned long const ,CSpeedTreeWrapper *> >,0> >::clear

; 56   : }

  00143	c9		 leave
  00144	c3		 ret	 0
?Clear@CSpeedTreeForest@@QAEXXZ ENDP			; CSpeedTreeForest::Clear
_TEXT	ENDS
; Function compile flags: /Odspy
; File D:\Metin2 Server Files\mainline\SRC_2014\Metin2Client\SpeedTreeLib\SpeedTreeForest.cpp
;	COMDAT ?UpdateSystem@CSpeedTreeForest@@QAEXM@Z
_TEXT	SEGMENT
_fElapsedTime$ = -8					; size = 4
_this$ = -4						; size = 4
_fCurrentTime$ = 8					; size = 4
?UpdateSystem@CSpeedTreeForest@@QAEXM@Z PROC		; CSpeedTreeForest::UpdateSystem, COMDAT
; _this$ = ecx

; 128  : {

  00000	55		 push	 ebp
  00001	8b ec		 mov	 ebp, esp
  00003	51		 push	 ecx
  00004	51		 push	 ecx
  00005	89 4d fc	 mov	 DWORD PTR _this$[ebp], ecx

; 129  : 	//    
; 130  : 	static float fLastTime = fCurrentTime;

  00008	a1 00 00 00 00	 mov	 eax, DWORD PTR __tls_index
  0000d	64 8b 0d 00 00
	00 00		 mov	 ecx, DWORD PTR fs:__tls_array
  00014	8b 04 81	 mov	 eax, DWORD PTR [ecx+eax*4]
  00017	8b 0d 00 00 00
	00		 mov	 ecx, DWORD PTR ?$TSS0@?1??UpdateSystem@CSpeedTreeForest@@QAEXM@Z@4HA
  0001d	3b 88 00 00 00
	00		 cmp	 ecx, DWORD PTR __Init_thread_epoch[eax]
  00023	7e 2c		 jle	 SHORT $LN2@UpdateSyst
  00025	68 00 00 00 00	 push	 OFFSET ?$TSS0@?1??UpdateSystem@CSpeedTreeForest@@QAEXM@Z@4HA
  0002a	e8 00 00 00 00	 call	 __Init_thread_header
  0002f	59		 pop	 ecx
  00030	83 3d 00 00 00
	00 ff		 cmp	 DWORD PTR ?$TSS0@?1??UpdateSystem@CSpeedTreeForest@@QAEXM@Z@4HA, -1
  00037	75 18		 jne	 SHORT $LN2@UpdateSyst
  00039	f3 0f 10 45 08	 movss	 xmm0, DWORD PTR _fCurrentTime$[ebp]
  0003e	f3 0f 11 05 00
	00 00 00	 movss	 DWORD PTR ?fLastTime@?1??UpdateSystem@CSpeedTreeForest@@QAEXM@Z@4MA, xmm0
  00046	68 00 00 00 00	 push	 OFFSET ?$TSS0@?1??UpdateSystem@CSpeedTreeForest@@QAEXM@Z@4HA
  0004b	e8 00 00 00 00	 call	 __Init_thread_footer
  00050	59		 pop	 ecx
$LN2@UpdateSyst:

; 131  : 	float fElapsedTime = fCurrentTime - fLastTime;

  00051	f3 0f 10 45 08	 movss	 xmm0, DWORD PTR _fCurrentTime$[ebp]
  00056	f3 0f 5c 05 00
	00 00 00	 subss	 xmm0, DWORD PTR ?fLastTime@?1??UpdateSystem@CSpeedTreeForest@@QAEXM@Z@4MA
  0005e	f3 0f 11 45 f8	 movss	 DWORD PTR _fElapsedTime$[ebp], xmm0

; 132  : 	CSpeedTreeRT::SetTime(fElapsedTime);

  00063	51		 push	 ecx
  00064	f3 0f 10 45 f8	 movss	 xmm0, DWORD PTR _fElapsedTime$[ebp]
  00069	f3 0f 11 04 24	 movss	 DWORD PTR [esp], xmm0
  0006e	e8 00 00 00 00	 call	 ?SetTime@CSpeedTreeRT@@SAXM@Z ; CSpeedTreeRT::SetTime
  00073	59		 pop	 ecx

; 133  : 
; 134  : 	m_fAccumTime += fElapsedTime; 

  00074	8b 45 fc	 mov	 eax, DWORD PTR _this$[ebp]
  00077	f3 0f 10 40 68	 movss	 xmm0, DWORD PTR [eax+104]
  0007c	f3 0f 58 45 f8	 addss	 xmm0, DWORD PTR _fElapsedTime$[ebp]
  00081	8b 45 fc	 mov	 eax, DWORD PTR _this$[ebp]
  00084	f3 0f 11 40 68	 movss	 DWORD PTR [eax+104], xmm0

; 135  : 	SetupWindMatrices(m_fAccumTime);

  00089	8b 45 fc	 mov	 eax, DWORD PTR _this$[ebp]
  0008c	51		 push	 ecx
  0008d	f3 0f 10 40 68	 movss	 xmm0, DWORD PTR [eax+104]
  00092	f3 0f 11 04 24	 movss	 DWORD PTR [esp], xmm0
  00097	8b 4d fc	 mov	 ecx, DWORD PTR _this$[ebp]
  0009a	e8 00 00 00 00	 call	 ?SetupWindMatrices@CSpeedTreeForest@@QAEXM@Z ; CSpeedTreeForest::SetupWindMatrices

; 136  : }

  0009f	c9		 leave
  000a0	c2 04 00	 ret	 4
?UpdateSystem@CSpeedTreeForest@@QAEXM@Z ENDP		; CSpeedTreeForest::UpdateSystem
_TEXT	ENDS
; Function compile flags: /Odspy
; File D:\Metin2 Server Files\mainline\SRC_2014\Metin2Client\SpeedTreeLib\SpeedTreeForest.cpp
; File D:\Metin2 Server Files\mainline\SRC_2014\Metin2Client\SpeedTreeLib\SpeedTreeWrapper.h
; File D:\Metin2 Server Files\mainline\SRC_2014\Metin2Client\SpeedTreeLib\SpeedTreeForest.cpp
;	COMDAT ?DeleteInstance@CSpeedTreeForest@@QAEXPAVCSpeedTreeWrapper@@@Z
_TEXT	SEGMENT
_this$ = -8						; size = 4
_pParentTree$ = -4					; size = 4
_pInstance$ = 8						; size = 4
?DeleteInstance@CSpeedTreeForest@@QAEXPAVCSpeedTreeWrapper@@@Z PROC ; CSpeedTreeForest::DeleteInstance, COMDAT
; _this$ = ecx

; 115  : {

  00000	55		 push	 ebp
  00001	8b ec		 mov	 ebp, esp
  00003	51		 push	 ecx
  00004	51		 push	 ecx
  00005	89 4d f8	 mov	 DWORD PTR _this$[ebp], ecx

; 116  : 	if (!pInstance)

  00008	83 7d 08 00	 cmp	 DWORD PTR _pInstance$[ebp], 0
  0000c	75 02		 jne	 SHORT $LN2@DeleteInst

; 117  : 		return;

  0000e	eb 1f		 jmp	 SHORT $LN1@DeleteInst
$LN2@DeleteInst:
; File D:\Metin2 Server Files\mainline\SRC_2014\Metin2Client\SpeedTreeLib\SpeedTreeWrapper.h

; 128  : 	CSpeedTreeWrapper *			InstanceOf(void) const							{ return m_pInstanceOf; }

  00010	8b 45 08	 mov	 eax, DWORD PTR _pInstance$[ebp]
  00013	8b 80 94 01 00
	00		 mov	 eax, DWORD PTR [eax+404]
  00019	89 45 fc	 mov	 DWORD PTR _pParentTree$[ebp], eax
; File D:\Metin2 Server Files\mainline\SRC_2014\Metin2Client\SpeedTreeLib\SpeedTreeForest.cpp

; 121  : 	if (!pParentTree)

  0001c	83 7d fc 00	 cmp	 DWORD PTR _pParentTree$[ebp], 0
  00020	75 02		 jne	 SHORT $LN3@DeleteInst

; 122  : 		return;

  00022	eb 0b		 jmp	 SHORT $LN1@DeleteInst
$LN3@DeleteInst:

; 123  : 
; 124  : 	pParentTree->DeleteInstance(pInstance);

  00024	ff 75 08	 push	 DWORD PTR _pInstance$[ebp]
  00027	8b 4d fc	 mov	 ecx, DWORD PTR _pParentTree$[ebp]
  0002a	e8 00 00 00 00	 call	 ?DeleteInstance@CSpeedTreeWrapper@@QAEXPAV1@@Z ; CSpeedTreeWrapper::DeleteInstance
$LN1@DeleteInst:

; 125  : }

  0002f	c9		 leave
  00030	c2 04 00	 ret	 4
?DeleteInstance@CSpeedTreeForest@@QAEXPAVCSpeedTreeWrapper@@@Z ENDP ; CSpeedTreeForest::DeleteInstance
_TEXT	ENDS
; Function compile flags: /Odspy
; File D:\Metin2 Server Files\mainline\SRC_2014\Metin2Client\SpeedTreeLib\SpeedTreeForest.cpp
;	COMDAT ?CreateInstance@CSpeedTreeForest@@QAEPAVCSpeedTreeWrapper@@MMMKPBD@Z
_TEXT	SEGMENT
_pMainTree$ = -12					; size = 4
_this$ = -8						; size = 4
_pTreeInst$ = -4					; size = 4
_x$ = 8							; size = 4
_y$ = 12						; size = 4
_z$ = 16						; size = 4
_dwTreeCRC$ = 20					; size = 4
_c_szTreeName$ = 24					; size = 4
?CreateInstance@CSpeedTreeForest@@QAEPAVCSpeedTreeWrapper@@MMMKPBD@Z PROC ; CSpeedTreeForest::CreateInstance, COMDAT
; _this$ = ecx

; 103  : {

  00000	55		 push	 ebp
  00001	8b ec		 mov	 ebp, esp
  00003	83 ec 0c	 sub	 esp, 12			; 0000000cH
  00006	89 4d f8	 mov	 DWORD PTR _this$[ebp], ecx

; 104  : 	CSpeedTreeWrapper * pMainTree;
; 105  : 	if (!GetMainTree(dwTreeCRC, &pMainTree, c_szTreeName))

  00009	ff 75 18	 push	 DWORD PTR _c_szTreeName$[ebp]
  0000c	8d 45 f4	 lea	 eax, DWORD PTR _pMainTree$[ebp]
  0000f	50		 push	 eax
  00010	ff 75 14	 push	 DWORD PTR _dwTreeCRC$[ebp]
  00013	8b 4d f8	 mov	 ecx, DWORD PTR _this$[ebp]
  00016	e8 00 00 00 00	 call	 ?GetMainTree@CSpeedTreeForest@@QAEHKPAPAVCSpeedTreeWrapper@@PBD@Z ; CSpeedTreeForest::GetMainTree
  0001b	85 c0		 test	 eax, eax
  0001d	75 04		 jne	 SHORT $LN2@CreateInst

; 106  : 		return NULL;

  0001f	33 c0		 xor	 eax, eax
  00021	eb 42		 jmp	 SHORT $LN1@CreateInst
$LN2@CreateInst:

; 107  : 
; 108  : 	CSpeedTreeWrapper* pTreeInst = pMainTree->MakeInstance();	

  00023	8b 4d f4	 mov	 ecx, DWORD PTR _pMainTree$[ebp]
  00026	e8 00 00 00 00	 call	 ?MakeInstance@CSpeedTreeWrapper@@QAEPAV1@XZ ; CSpeedTreeWrapper::MakeInstance
  0002b	89 45 fc	 mov	 DWORD PTR _pTreeInst$[ebp], eax

; 109  : 	pTreeInst->SetPosition(x, y, z);

  0002e	51		 push	 ecx
  0002f	f3 0f 10 45 10	 movss	 xmm0, DWORD PTR _z$[ebp]
  00034	f3 0f 11 04 24	 movss	 DWORD PTR [esp], xmm0
  00039	51		 push	 ecx
  0003a	f3 0f 10 45 0c	 movss	 xmm0, DWORD PTR _y$[ebp]
  0003f	f3 0f 11 04 24	 movss	 DWORD PTR [esp], xmm0
  00044	51		 push	 ecx
  00045	f3 0f 10 45 08	 movss	 xmm0, DWORD PTR _x$[ebp]
  0004a	f3 0f 11 04 24	 movss	 DWORD PTR [esp], xmm0
  0004f	8b 45 fc	 mov	 eax, DWORD PTR _pTreeInst$[ebp]
  00052	8b 00		 mov	 eax, DWORD PTR [eax]
  00054	8b 4d fc	 mov	 ecx, DWORD PTR _pTreeInst$[ebp]
  00057	ff 50 3c	 call	 DWORD PTR [eax+60]

; 110  : 	pTreeInst->RegisterBoundingSphere();

  0005a	8b 4d fc	 mov	 ecx, DWORD PTR _pTreeInst$[ebp]
  0005d	e8 00 00 00 00	 call	 ?RegisterBoundingSphere@CGraphicObjectInstance@@QAEXXZ ; CGraphicObjectInstance::RegisterBoundingSphere

; 111  : 	return pTreeInst;

  00062	8b 45 fc	 mov	 eax, DWORD PTR _pTreeInst$[ebp]
$LN1@CreateInst:

; 112  : }

  00065	c9		 leave
  00066	c2 14 00	 ret	 20			; 00000014H
?CreateInstance@CSpeedTreeForest@@QAEPAVCSpeedTreeWrapper@@MMMKPBD@Z ENDP ; CSpeedTreeForest::CreateInstance
_TEXT	ENDS
; Function compile flags: /Odspy
; File D:\Metin2 Server Files\mainline\SRC_2014\Metin2Client\SpeedTreeLib\SpeedTreeForest.cpp
; File C:\Program Files (x86)\Microsoft Visual Studio\2019\Community\VC\Tools\MSVC\14.28.29333\include\xtree
; File C:\Program Files (x86)\Microsoft Visual Studio\2019\Community\VC\Tools\MSVC\14.28.29333\include\xstddef
; File C:\Program Files (x86)\Microsoft Visual Studio\2019\Community\VC\Tools\MSVC\14.28.29333\include\xtree
; File D:\Metin2 Server Files\mainline\SRC_2014\Metin2Client\SpeedTreeLib\SpeedTreeForest.cpp
; File C:\Program Files (x86)\Microsoft Visual Studio\2019\Community\VC\Tools\MSVC\14.28.29333\include\xtree
; File C:\Program Files (x86)\Microsoft Visual Studio\2019\Community\VC\Tools\MSVC\14.28.29333\include\xstddef
; File C:\Program Files (x86)\Microsoft Visual Studio\2019\Community\VC\Tools\MSVC\14.28.29333\include\xutility
; File C:\Program Files (x86)\Microsoft Visual Studio\2019\Community\VC\Tools\MSVC\14.28.29333\include\xtree
; File D:\Metin2 Server Files\mainline\SRC_2014\Metin2Client\SpeedTreeLib\SpeedTreeForest.cpp
;	COMDAT ?GetMainTree@CSpeedTreeForest@@QAEPAVCSpeedTreeWrapper@@K@Z
_TEXT	SEGMENT
$T1 = -56						; size = 4
$T2 = -52						; size = 4
$T3 = -48						; size = 4
$T4 = -44						; size = 4
$T5 = -40						; size = 4
$T6 = -36						; size = 4
$T7 = -32						; size = 4
___param0$ = -28					; size = 4
__Scary$8 = -24						; size = 4
$T9 = -20						; size = 4
_itor$ = -16						; size = 4
tv189 = -12						; size = 4
_this$ = -8						; size = 4
$T10 = -1						; size = 1
_dwCRC$ = 8						; size = 4
?GetMainTree@CSpeedTreeForest@@QAEPAVCSpeedTreeWrapper@@K@Z PROC ; CSpeedTreeForest::GetMainTree, COMDAT
; _this$ = ecx

; 59   : {

  00000	55		 push	 ebp
  00001	8b ec		 mov	 ebp, esp
  00003	83 ec 38	 sub	 esp, 56			; 00000038H
  00006	89 4d f8	 mov	 DWORD PTR _this$[ebp], ecx

; 60   : 	TTreeMap::iterator itor = m_pMainTreeMap.find(dwCRC);

  00009	8d 45 08	 lea	 eax, DWORD PTR _dwCRC$[ebp]
  0000c	50		 push	 eax
  0000d	8d 45 f0	 lea	 eax, DWORD PTR _itor$[ebp]
  00010	50		 push	 eax
  00011	8b 4d f8	 mov	 ecx, DWORD PTR _this$[ebp]
  00014	83 c1 04	 add	 ecx, 4
  00017	e8 00 00 00 00	 call	 ?find@?$_Tree@V?$_Tmap_traits@KPAVCSpeedTreeWrapper@@U?$less@K@std@@V?$allocator@U?$pair@$$CBKPAVCSpeedTreeWrapper@@@std@@@3@$0A@@std@@@std@@QAE?AV?$_Tree_iterator@V?$_Tree_val@U?$_Tree_simple_types@U?$pair@$$CBKPAVCSpeedTreeWrapper@@@std@@@std@@@std@@@2@ABK@Z ; std::_Tree<std::_Tmap_traits<unsigned long,CSpeedTreeWrapper *,std::less<unsigned long>,std::allocator<std::pair<unsigned long const ,CSpeedTreeWrapper *> >,0> >::find
; File C:\Program Files (x86)\Microsoft Visual Studio\2019\Community\VC\Tools\MSVC\14.28.29333\include\xtree

; 2047 :         return _STD addressof(_Mypair._Myval2._Myval2);

  0001c	8b 45 f8	 mov	 eax, DWORD PTR _this$[ebp]
  0001f	83 c0 04	 add	 eax, 4
; File C:\Program Files (x86)\Microsoft Visual Studio\2019\Community\VC\Tools\MSVC\14.28.29333\include\xstddef

; 275  :     return __builtin_addressof(_Val);

  00022	89 45 ec	 mov	 DWORD PTR $T9[ebp], eax
; File C:\Program Files (x86)\Microsoft Visual Studio\2019\Community\VC\Tools\MSVC\14.28.29333\include\xtree

; 2047 :         return _STD addressof(_Mypair._Myval2._Myval2);

  00025	8b 45 ec	 mov	 eax, DWORD PTR $T9[ebp]
  00028	89 45 e8	 mov	 DWORD PTR __Scary$8[ebp], eax

; 1250 :         return iterator(_Scary->_Myhead, _Scary);

  0002b	8b 45 e8	 mov	 eax, DWORD PTR __Scary$8[ebp]
  0002e	8b 00		 mov	 eax, DWORD PTR [eax]
  00030	89 45 e4	 mov	 DWORD PTR ___param0$[ebp], eax

; 39   :     _Tree_unchecked_const_iterator(_Nodeptr _Pnode, const _Mytree* _Plist) noexcept : _Ptr(_Pnode) {

  00033	8b 45 e4	 mov	 eax, DWORD PTR ___param0$[ebp]
  00036	89 45 e0	 mov	 DWORD PTR $T7[ebp], eax

; 1250 :         return iterator(_Scary->_Myhead, _Scary);

  00039	8d 45 e0	 lea	 eax, DWORD PTR $T7[ebp]
  0003c	89 45 dc	 mov	 DWORD PTR $T6[ebp], eax

; 232  :         return this->_Ptr == _Right._Ptr;

  0003f	8b 45 dc	 mov	 eax, DWORD PTR $T6[ebp]
  00042	8b 4d f0	 mov	 ecx, DWORD PTR _itor$[ebp]
  00045	3b 08		 cmp	 ecx, DWORD PTR [eax]
  00047	75 09		 jne	 SHORT $LN72@GetMainTre
  00049	c7 45 f4 01 00
	00 00		 mov	 DWORD PTR tv189[ebp], 1
  00050	eb 04		 jmp	 SHORT $LN73@GetMainTre
$LN72@GetMainTre:
  00052	83 65 f4 00	 and	 DWORD PTR tv189[ebp], 0
$LN73@GetMainTre:
  00056	8a 45 f4	 mov	 al, BYTE PTR tv189[ebp]
  00059	88 45 ff	 mov	 BYTE PTR $T10[ebp], al
; File D:\Metin2 Server Files\mainline\SRC_2014\Metin2Client\SpeedTreeLib\SpeedTreeForest.cpp

; 62   : 	if (itor == m_pMainTreeMap.end())

  0005c	0f b6 45 ff	 movzx	 eax, BYTE PTR $T10[ebp]
  00060	85 c0		 test	 eax, eax
  00062	74 04		 je	 SHORT $LN2@GetMainTre

; 63   : 		return NULL;

  00064	33 c0		 xor	 eax, eax
  00066	eb 27		 jmp	 SHORT $LN1@GetMainTre
$LN2@GetMainTre:
; File C:\Program Files (x86)\Microsoft Visual Studio\2019\Community\VC\Tools\MSVC\14.28.29333\include\xtree

; 185  :         return this->_Ptr->_Myval;

  00068	8b 45 f0	 mov	 eax, DWORD PTR _itor$[ebp]
  0006b	83 c0 10	 add	 eax, 16			; 00000010H
  0006e	89 45 d8	 mov	 DWORD PTR $T5[ebp], eax

; 273  :         return const_cast<reference>(_Mybase::operator*());

  00071	8b 45 d8	 mov	 eax, DWORD PTR $T5[ebp]
  00074	89 45 d4	 mov	 DWORD PTR $T4[ebp], eax
; File C:\Program Files (x86)\Microsoft Visual Studio\2019\Community\VC\Tools\MSVC\14.28.29333\include\xstddef

; 275  :     return __builtin_addressof(_Val);

  00077	8b 45 d4	 mov	 eax, DWORD PTR $T4[ebp]
  0007a	89 45 d0	 mov	 DWORD PTR $T3[ebp], eax
; File C:\Program Files (x86)\Microsoft Visual Studio\2019\Community\VC\Tools\MSVC\14.28.29333\include\xutility

; 151  :         return _STD addressof(_Val);

  0007d	8b 45 d0	 mov	 eax, DWORD PTR $T3[ebp]
  00080	89 45 cc	 mov	 DWORD PTR $T2[ebp], eax
; File C:\Program Files (x86)\Microsoft Visual Studio\2019\Community\VC\Tools\MSVC\14.28.29333\include\xtree

; 277  :         return pointer_traits<pointer>::pointer_to(**this);

  00083	8b 45 cc	 mov	 eax, DWORD PTR $T2[ebp]
  00086	89 45 c8	 mov	 DWORD PTR $T1[ebp], eax
; File D:\Metin2 Server Files\mainline\SRC_2014\Metin2Client\SpeedTreeLib\SpeedTreeForest.cpp

; 65   : 	return itor->second;

  00089	8b 45 c8	 mov	 eax, DWORD PTR $T1[ebp]
  0008c	8b 40 04	 mov	 eax, DWORD PTR [eax+4]
$LN1@GetMainTre:

; 66   : }

  0008f	c9		 leave
  00090	c2 04 00	 ret	 4
?GetMainTree@CSpeedTreeForest@@QAEPAVCSpeedTreeWrapper@@K@Z ENDP ; CSpeedTreeForest::GetMainTree
_TEXT	ENDS
; Function compile flags: /Odspy
; File D:\Metin2 Server Files\mainline\SRC_2014\Metin2Client\SpeedTreeLib\SpeedTreeForest.cpp
; File C:\Program Files (x86)\Microsoft Visual Studio\2019\Community\VC\Tools\MSVC\14.28.29333\include\xtree
; File C:\Program Files (x86)\Microsoft Visual Studio\2019\Community\VC\Tools\MSVC\14.28.29333\include\xstddef
; File C:\Program Files (x86)\Microsoft Visual Studio\2019\Community\VC\Tools\MSVC\14.28.29333\include\xtree
; File D:\Metin2 Server Files\mainline\SRC_2014\Metin2Client\SpeedTreeLib\SpeedTreeForest.cpp
; File C:\Program Files (x86)\Microsoft Visual Studio\2019\Community\VC\Tools\MSVC\14.28.29333\include\xtree
; File C:\Program Files (x86)\Microsoft Visual Studio\2019\Community\VC\Tools\MSVC\14.28.29333\include\xstddef
; File C:\Program Files (x86)\Microsoft Visual Studio\2019\Community\VC\Tools\MSVC\14.28.29333\include\xutility
; File C:\Program Files (x86)\Microsoft Visual Studio\2019\Community\VC\Tools\MSVC\14.28.29333\include\xtree
; File D:\Metin2 Server Files\mainline\SRC_2014\Metin2Client\SpeedTreeLib\SpeedTreeForest.cpp
; File D:\Metin2 Server Files\mainline\SRC_2014\Metin2Client\eterbase\Singleton.h
; File D:\Metin2 Server Files\mainline\SRC_2014\Metin2Client\SpeedTreeLib\SpeedTreeForest.cpp
; File C:\Program Files (x86)\Microsoft Visual Studio\2019\Community\VC\Tools\MSVC\14.28.29333\include\type_traits
; File C:\Program Files (x86)\Microsoft Visual Studio\2019\Community\VC\Tools\MSVC\14.28.29333\include\utility
; File C:\Program Files (x86)\Microsoft Visual Studio\2019\Community\VC\Tools\MSVC\14.28.29333\include\type_traits
; File C:\Program Files (x86)\Microsoft Visual Studio\2019\Community\VC\Tools\MSVC\14.28.29333\include\utility
; File D:\Metin2 Server Files\mainline\SRC_2014\Metin2Client\SpeedTreeLib\SpeedTreeForest.cpp
;	COMDAT ?GetMainTree@CSpeedTreeForest@@QAEHKPAPAVCSpeedTreeWrapper@@PBD@Z
_TEXT	SEGMENT
$T2 = -136						; size = 8
$T3 = -128						; size = 8
$T4 = -120						; size = 4
$T5 = -116						; size = 4
$T6 = -112						; size = 4
tv172 = -108						; size = 4
_c_pvData$7 = -104					; size = 4
$T8 = -100						; size = 4
$T9 = -96						; size = 4
$T10 = -92						; size = 4
$T11 = -88						; size = 4
$T12 = -84						; size = 4
$T13 = -80						; size = 4
$T14 = -76						; size = 4
$T15 = -72						; size = 4
$T16 = -68						; size = 4
$T17 = -64						; size = 4
___param0$ = -60					; size = 4
__Scary$18 = -56					; size = 4
$T19 = -52						; size = 4
tv150 = -48						; size = 4
$T20 = -44						; size = 4
_itor$ = -40						; size = 4
tv222 = -36						; size = 4
tv290 = -32						; size = 4
_this$ = -28						; size = 4
$T21 = -24						; size = 4
_pTree$ = -20						; size = 4
$T22 = -14						; size = 1
$T23 = -13						; size = 1
__$EHRec$ = -12						; size = 12
_file$24 = 0						; size = 324
__$ArrayPad$ = 324					; size = 4
_dwCRC$ = 336						; size = 4
_ppMainTree$ = 340					; size = 4
_c_pszFileName$ = 344					; size = 4
?GetMainTree@CSpeedTreeForest@@QAEHKPAPAVCSpeedTreeWrapper@@PBD@Z PROC ; CSpeedTreeForest::GetMainTree, COMDAT
; _this$ = ecx

; 69   : {

  00000	55		 push	 ebp
  00001	8d ac 24 b8 fe
	ff ff		 lea	 ebp, DWORD PTR [esp-328]
  00008	81 ec 48 01 00
	00		 sub	 esp, 328		; 00000148H
  0000e	6a ff		 push	 -1
  00010	68 00 00 00 00	 push	 __ehhandler$?GetMainTree@CSpeedTreeForest@@QAEHKPAPAVCSpeedTreeWrapper@@PBD@Z
  00015	64 a1 00 00 00
	00		 mov	 eax, DWORD PTR fs:0
  0001b	50		 push	 eax
  0001c	83 ec 7c	 sub	 esp, 124		; 0000007cH
  0001f	a1 00 00 00 00	 mov	 eax, DWORD PTR ___security_cookie
  00024	33 c5		 xor	 eax, ebp
  00026	89 85 44 01 00
	00		 mov	 DWORD PTR __$ArrayPad$[ebp], eax
  0002c	50		 push	 eax
  0002d	8d 45 f4	 lea	 eax, DWORD PTR __$EHRec$[ebp]
  00030	64 a3 00 00 00
	00		 mov	 DWORD PTR fs:0, eax
  00036	89 4d e4	 mov	 DWORD PTR _this$[ebp], ecx

; 70   : 	TTreeMap::iterator itor = m_pMainTreeMap.find(dwCRC);

  00039	8d 85 50 01 00
	00		 lea	 eax, DWORD PTR _dwCRC$[ebp]
  0003f	50		 push	 eax
  00040	8d 45 d8	 lea	 eax, DWORD PTR _itor$[ebp]
  00043	50		 push	 eax
  00044	8b 4d e4	 mov	 ecx, DWORD PTR _this$[ebp]
  00047	83 c1 04	 add	 ecx, 4
  0004a	e8 00 00 00 00	 call	 ?find@?$_Tree@V?$_Tmap_traits@KPAVCSpeedTreeWrapper@@U?$less@K@std@@V?$allocator@U?$pair@$$CBKPAVCSpeedTreeWrapper@@@std@@@3@$0A@@std@@@std@@QAE?AV?$_Tree_iterator@V?$_Tree_val@U?$_Tree_simple_types@U?$pair@$$CBKPAVCSpeedTreeWrapper@@@std@@@std@@@std@@@2@ABK@Z ; std::_Tree<std::_Tmap_traits<unsigned long,CSpeedTreeWrapper *,std::less<unsigned long>,std::allocator<std::pair<unsigned long const ,CSpeedTreeWrapper *> >,0> >::find
; File C:\Program Files (x86)\Microsoft Visual Studio\2019\Community\VC\Tools\MSVC\14.28.29333\include\xtree

; 2047 :         return _STD addressof(_Mypair._Myval2._Myval2);

  0004f	8b 45 e4	 mov	 eax, DWORD PTR _this$[ebp]
  00052	83 c0 04	 add	 eax, 4
; File C:\Program Files (x86)\Microsoft Visual Studio\2019\Community\VC\Tools\MSVC\14.28.29333\include\xstddef

; 275  :     return __builtin_addressof(_Val);

  00055	89 45 cc	 mov	 DWORD PTR $T19[ebp], eax
; File C:\Program Files (x86)\Microsoft Visual Studio\2019\Community\VC\Tools\MSVC\14.28.29333\include\xtree

; 2047 :         return _STD addressof(_Mypair._Myval2._Myval2);

  00058	8b 45 cc	 mov	 eax, DWORD PTR $T19[ebp]
  0005b	89 45 c8	 mov	 DWORD PTR __Scary$18[ebp], eax

; 1250 :         return iterator(_Scary->_Myhead, _Scary);

  0005e	8b 45 c8	 mov	 eax, DWORD PTR __Scary$18[ebp]
  00061	8b 00		 mov	 eax, DWORD PTR [eax]
  00063	89 45 c4	 mov	 DWORD PTR ___param0$[ebp], eax

; 39   :     _Tree_unchecked_const_iterator(_Nodeptr _Pnode, const _Mytree* _Plist) noexcept : _Ptr(_Pnode) {

  00066	8b 45 c4	 mov	 eax, DWORD PTR ___param0$[ebp]
  00069	89 45 c0	 mov	 DWORD PTR $T17[ebp], eax

; 1250 :         return iterator(_Scary->_Myhead, _Scary);

  0006c	8d 45 c0	 lea	 eax, DWORD PTR $T17[ebp]
  0006f	89 45 bc	 mov	 DWORD PTR $T16[ebp], eax

; 232  :         return this->_Ptr == _Right._Ptr;

  00072	8b 45 bc	 mov	 eax, DWORD PTR $T16[ebp]
  00075	8b 4d d8	 mov	 ecx, DWORD PTR _itor$[ebp]
  00078	3b 08		 cmp	 ecx, DWORD PTR [eax]
  0007a	75 09		 jne	 SHORT $LN86@GetMainTre
  0007c	c7 45 e0 01 00
	00 00		 mov	 DWORD PTR tv290[ebp], 1
  00083	eb 04		 jmp	 SHORT $LN87@GetMainTre
$LN86@GetMainTre:
  00085	83 65 e0 00	 and	 DWORD PTR tv290[ebp], 0
$LN87@GetMainTre:
  00089	8a 45 e0	 mov	 al, BYTE PTR tv290[ebp]
  0008c	88 45 f3	 mov	 BYTE PTR $T23[ebp], al

; 236  :         return !(*this == _Right);

  0008f	0f b6 45 f3	 movzx	 eax, BYTE PTR $T23[ebp]
  00093	85 c0		 test	 eax, eax
  00095	75 09		 jne	 SHORT $LN81@GetMainTre
  00097	c7 45 dc 01 00
	00 00		 mov	 DWORD PTR tv222[ebp], 1
  0009e	eb 04		 jmp	 SHORT $LN82@GetMainTre
$LN81@GetMainTre:
  000a0	83 65 dc 00	 and	 DWORD PTR tv222[ebp], 0
$LN82@GetMainTre:
  000a4	8a 45 dc	 mov	 al, BYTE PTR tv222[ebp]
  000a7	88 45 f2	 mov	 BYTE PTR $T22[ebp], al
; File D:\Metin2 Server Files\mainline\SRC_2014\Metin2Client\SpeedTreeLib\SpeedTreeForest.cpp

; 74   : 	if (itor != m_pMainTreeMap.end())

  000aa	0f b6 45 f2	 movzx	 eax, BYTE PTR $T22[ebp]
  000ae	85 c0		 test	 eax, eax
  000b0	74 2f		 je	 SHORT $LN2@GetMainTre
; File C:\Program Files (x86)\Microsoft Visual Studio\2019\Community\VC\Tools\MSVC\14.28.29333\include\xtree

; 185  :         return this->_Ptr->_Myval;

  000b2	8b 45 d8	 mov	 eax, DWORD PTR _itor$[ebp]
  000b5	83 c0 10	 add	 eax, 16			; 00000010H
  000b8	89 45 b8	 mov	 DWORD PTR $T15[ebp], eax

; 273  :         return const_cast<reference>(_Mybase::operator*());

  000bb	8b 45 b8	 mov	 eax, DWORD PTR $T15[ebp]
  000be	89 45 b4	 mov	 DWORD PTR $T14[ebp], eax
; File C:\Program Files (x86)\Microsoft Visual Studio\2019\Community\VC\Tools\MSVC\14.28.29333\include\xstddef

; 275  :     return __builtin_addressof(_Val);

  000c1	8b 45 b4	 mov	 eax, DWORD PTR $T14[ebp]
  000c4	89 45 b0	 mov	 DWORD PTR $T13[ebp], eax
; File C:\Program Files (x86)\Microsoft Visual Studio\2019\Community\VC\Tools\MSVC\14.28.29333\include\xutility

; 151  :         return _STD addressof(_Val);

  000c7	8b 45 b0	 mov	 eax, DWORD PTR $T13[ebp]
  000ca	89 45 ac	 mov	 DWORD PTR $T12[ebp], eax
; File C:\Program Files (x86)\Microsoft Visual Studio\2019\Community\VC\Tools\MSVC\14.28.29333\include\xtree

; 277  :         return pointer_traits<pointer>::pointer_to(**this);

  000cd	8b 45 ac	 mov	 eax, DWORD PTR $T12[ebp]
  000d0	89 45 a8	 mov	 DWORD PTR $T11[ebp], eax
; File D:\Metin2 Server Files\mainline\SRC_2014\Metin2Client\SpeedTreeLib\SpeedTreeForest.cpp

; 75   : 		pTree = itor->second;

  000d3	8b 45 a8	 mov	 eax, DWORD PTR $T11[ebp]
  000d6	8b 40 04	 mov	 eax, DWORD PTR [eax+4]
  000d9	89 45 ec	 mov	 DWORD PTR _pTree$[ebp], eax
  000dc	e9 40 01 00 00	 jmp	 $LN3@GetMainTre
$LN2@GetMainTre:

; 76   : 	else
; 77   : 	{
; 78   : 		CMappedFile file;

  000e1	8d 4d 00	 lea	 ecx, DWORD PTR _file$24[ebp]
  000e4	e8 00 00 00 00	 call	 ??0CMappedFile@@QAE@XZ	; CMappedFile::CMappedFile
  000e9	83 65 fc 00	 and	 DWORD PTR __$EHRec$[ebp+8], 0
; File D:\Metin2 Server Files\mainline\SRC_2014\Metin2Client\eterbase\Singleton.h

; 27   : 		return (*ms_singleton);

  000ed	a1 00 00 00 00	 mov	 eax, DWORD PTR ?ms_singleton@?$CSingleton@VCEterPackManager@@@@0PAVCEterPackManager@@A ; CSingleton<CEterPackManager>::ms_singleton
  000f2	89 45 a4	 mov	 DWORD PTR $T10[ebp], eax
; File D:\Metin2 Server Files\mainline\SRC_2014\Metin2Client\SpeedTreeLib\SpeedTreeForest.cpp

; 82   : 		if (!CEterPackManager::Instance().Get(file, c_pszFileName, &c_pvData))

  000f5	8d 45 98	 lea	 eax, DWORD PTR _c_pvData$7[ebp]
  000f8	50		 push	 eax
  000f9	ff b5 58 01 00
	00		 push	 DWORD PTR _c_pszFileName$[ebp]
  000ff	8d 45 00	 lea	 eax, DWORD PTR _file$24[ebp]
  00102	50		 push	 eax
  00103	8b 4d a4	 mov	 ecx, DWORD PTR $T10[ebp]
  00106	e8 00 00 00 00	 call	 ?Get@CEterPackManager@@QAE_NAAVCMappedFile@@PBDPAPBX@Z ; CEterPackManager::Get
  0010b	0f b6 c0	 movzx	 eax, al
  0010e	85 c0		 test	 eax, eax
  00110	75 18		 jne	 SHORT $LN4@GetMainTre

; 83   : 			return FALSE;

  00112	83 65 a0 00	 and	 DWORD PTR $T9[ebp], 0
  00116	83 4d fc ff	 or	 DWORD PTR __$EHRec$[ebp+8], -1
  0011a	8d 4d 00	 lea	 ecx, DWORD PTR _file$24[ebp]
  0011d	e8 00 00 00 00	 call	 ??1CMappedFile@@UAE@XZ	; CMappedFile::~CMappedFile
  00122	8b 45 a0	 mov	 eax, DWORD PTR $T9[ebp]
  00125	e9 05 01 00 00	 jmp	 $LN1@GetMainTre
$LN4@GetMainTre:

; 84   : 
; 85   : 		pTree = new CSpeedTreeWrapper;

  0012a	68 18 03 00 00	 push	 792			; 00000318H
  0012f	e8 00 00 00 00	 call	 ??2@YAPAXI@Z		; operator new
  00134	59		 pop	 ecx
  00135	89 45 d4	 mov	 DWORD PTR $T20[ebp], eax
  00138	c6 45 fc 01	 mov	 BYTE PTR __$EHRec$[ebp+8], 1
  0013c	83 7d d4 00	 cmp	 DWORD PTR $T20[ebp], 0
  00140	74 0d		 je	 SHORT $LN7@GetMainTre
  00142	8b 4d d4	 mov	 ecx, DWORD PTR $T20[ebp]
  00145	e8 00 00 00 00	 call	 ??0CSpeedTreeWrapper@@QAE@XZ ; CSpeedTreeWrapper::CSpeedTreeWrapper
  0014a	89 45 d0	 mov	 DWORD PTR tv150[ebp], eax
  0014d	eb 04		 jmp	 SHORT $LN8@GetMainTre
$LN7@GetMainTre:
  0014f	83 65 d0 00	 and	 DWORD PTR tv150[ebp], 0
$LN8@GetMainTre:
  00153	8b 45 d0	 mov	 eax, DWORD PTR tv150[ebp]
  00156	89 45 9c	 mov	 DWORD PTR $T8[ebp], eax
  00159	c6 45 fc 00	 mov	 BYTE PTR __$EHRec$[ebp+8], 0
  0015d	8b 45 9c	 mov	 eax, DWORD PTR $T8[ebp]
  00160	89 45 ec	 mov	 DWORD PTR _pTree$[ebp], eax

; 86   : 
; 87   : 		if (!pTree->LoadTree(c_pszFileName, (const BYTE *) c_pvData, file.Size()))

  00163	51		 push	 ecx
  00164	f3 0f 10 05 00
	00 00 00	 movss	 xmm0, DWORD PTR __real@bf800000
  0016c	f3 0f 11 04 24	 movss	 DWORD PTR [esp], xmm0
  00171	51		 push	 ecx
  00172	f3 0f 10 05 00
	00 00 00	 movss	 xmm0, DWORD PTR __real@bf800000
  0017a	f3 0f 11 04 24	 movss	 DWORD PTR [esp], xmm0
  0017f	6a 01		 push	 1
  00181	8d 4d 00	 lea	 ecx, DWORD PTR _file$24[ebp]
  00184	e8 00 00 00 00	 call	 ?Size@CMappedFile@@QAEKXZ ; CMappedFile::Size
  00189	50		 push	 eax
  0018a	ff 75 98	 push	 DWORD PTR _c_pvData$7[ebp]
  0018d	ff b5 58 01 00
	00		 push	 DWORD PTR _c_pszFileName$[ebp]
  00193	8b 4d ec	 mov	 ecx, DWORD PTR _pTree$[ebp]
  00196	e8 00 00 00 00	 call	 ?LoadTree@CSpeedTreeWrapper@@QAE_NPBDPBEIIMM@Z ; CSpeedTreeWrapper::LoadTree
  0019b	0f b6 c0	 movzx	 eax, al
  0019e	85 c0		 test	 eax, eax
  001a0	75 36		 jne	 SHORT $LN5@GetMainTre

; 88   : 		{
; 89   : 			delete pTree;

  001a2	8b 45 ec	 mov	 eax, DWORD PTR _pTree$[ebp]
  001a5	89 45 e8	 mov	 DWORD PTR $T21[ebp], eax
  001a8	83 7d e8 00	 cmp	 DWORD PTR $T21[ebp], 0
  001ac	74 11		 je	 SHORT $LN9@GetMainTre
  001ae	6a 01		 push	 1
  001b0	8b 45 e8	 mov	 eax, DWORD PTR $T21[ebp]
  001b3	8b 00		 mov	 eax, DWORD PTR [eax]
  001b5	8b 4d e8	 mov	 ecx, DWORD PTR $T21[ebp]
  001b8	ff 10		 call	 DWORD PTR [eax]
  001ba	89 45 94	 mov	 DWORD PTR tv172[ebp], eax
  001bd	eb 04		 jmp	 SHORT $LN10@GetMainTre
$LN9@GetMainTre:
  001bf	83 65 94 00	 and	 DWORD PTR tv172[ebp], 0
$LN10@GetMainTre:

; 90   : 			return FALSE;

  001c3	83 65 90 00	 and	 DWORD PTR $T6[ebp], 0
  001c7	83 4d fc ff	 or	 DWORD PTR __$EHRec$[ebp+8], -1
  001cb	8d 4d 00	 lea	 ecx, DWORD PTR _file$24[ebp]
  001ce	e8 00 00 00 00	 call	 ??1CMappedFile@@UAE@XZ	; CMappedFile::~CMappedFile
  001d3	8b 45 90	 mov	 eax, DWORD PTR $T6[ebp]
  001d6	eb 57		 jmp	 SHORT $LN1@GetMainTre
$LN5@GetMainTre:
; File C:\Program Files (x86)\Microsoft Visual Studio\2019\Community\VC\Tools\MSVC\14.28.29333\include\type_traits

; 1443 :     return static_cast<_Ty&&>(_Arg);

  001d8	8d 85 50 01 00
	00		 lea	 eax, DWORD PTR _dwCRC$[ebp]
  001de	89 45 8c	 mov	 DWORD PTR $T5[ebp], eax
; File C:\Program Files (x86)\Microsoft Visual Studio\2019\Community\VC\Tools\MSVC\14.28.29333\include\utility

; 190  :         : first(_STD forward<_Other1>(_Val1)), second(_STD forward<_Other2>(_Val2)) {}

  001e1	8b 45 8c	 mov	 eax, DWORD PTR $T5[ebp]
  001e4	8b 00		 mov	 eax, DWORD PTR [eax]
  001e6	89 45 80	 mov	 DWORD PTR $T3[ebp], eax
; File C:\Program Files (x86)\Microsoft Visual Studio\2019\Community\VC\Tools\MSVC\14.28.29333\include\type_traits

; 1443 :     return static_cast<_Ty&&>(_Arg);

  001e9	8d 45 ec	 lea	 eax, DWORD PTR _pTree$[ebp]
  001ec	89 45 88	 mov	 DWORD PTR $T4[ebp], eax
; File C:\Program Files (x86)\Microsoft Visual Studio\2019\Community\VC\Tools\MSVC\14.28.29333\include\utility

; 190  :         : first(_STD forward<_Other1>(_Val1)), second(_STD forward<_Other2>(_Val2)) {}

  001ef	8b 45 88	 mov	 eax, DWORD PTR $T4[ebp]
  001f2	8b 00		 mov	 eax, DWORD PTR [eax]
  001f4	89 45 84	 mov	 DWORD PTR $T3[ebp+4], eax
; File D:\Metin2 Server Files\mainline\SRC_2014\Metin2Client\SpeedTreeLib\SpeedTreeForest.cpp

; 93   : 		m_pMainTreeMap.insert(std::map<DWORD, CSpeedTreeWrapper *>::value_type(dwCRC, pTree));

  001f7	8d 45 80	 lea	 eax, DWORD PTR $T3[ebp]
  001fa	50		 push	 eax
  001fb	8d 85 78 ff ff
	ff		 lea	 eax, DWORD PTR $T2[ebp]
  00201	50		 push	 eax
  00202	8b 4d e4	 mov	 ecx, DWORD PTR _this$[ebp]
  00205	83 c1 04	 add	 ecx, 4
  00208	e8 00 00 00 00	 call	 ??$insert@$0A@$0A@@?$_Tree@V?$_Tmap_traits@KPAVCSpeedTreeWrapper@@U?$less@K@std@@V?$allocator@U?$pair@$$CBKPAVCSpeedTreeWrapper@@@std@@@3@$0A@@std@@@std@@QAE?AU?$pair@V?$_Tree_iterator@V?$_Tree_val@U?$_Tree_simple_types@U?$pair@$$CBKPAVCSpeedTreeWrapper@@@std@@@std@@@std@@@std@@_N@1@$$QAU?$pair@$$CBKPAVCSpeedTreeWrapper@@@1@@Z ; std::_Tree<std::_Tmap_traits<unsigned long,CSpeedTreeWrapper *,std::less<unsigned long>,std::allocator<std::pair<unsigned long const ,CSpeedTreeWrapper *> >,0> >::insert<0,0>

; 94   : 
; 95   : 		file.Destroy();

  0020d	8d 4d 00	 lea	 ecx, DWORD PTR _file$24[ebp]
  00210	e8 00 00 00 00	 call	 ?Destroy@CMappedFile@@QAEXXZ ; CMappedFile::Destroy

; 96   : 	}

  00215	83 4d fc ff	 or	 DWORD PTR __$EHRec$[ebp+8], -1
  00219	8d 4d 00	 lea	 ecx, DWORD PTR _file$24[ebp]
  0021c	e8 00 00 00 00	 call	 ??1CMappedFile@@UAE@XZ	; CMappedFile::~CMappedFile
$LN3@GetMainTre:

; 97   : 
; 98   : 	*ppMainTree = pTree;

  00221	8b 85 54 01 00
	00		 mov	 eax, DWORD PTR _ppMainTree$[ebp]
  00227	8b 4d ec	 mov	 ecx, DWORD PTR _pTree$[ebp]
  0022a	89 08		 mov	 DWORD PTR [eax], ecx

; 99   : 	return TRUE;

  0022c	33 c0		 xor	 eax, eax
  0022e	40		 inc	 eax
$LN1@GetMainTre:

; 100  : }

  0022f	8b 4d f4	 mov	 ecx, DWORD PTR __$EHRec$[ebp]
  00232	64 89 0d 00 00
	00 00		 mov	 DWORD PTR fs:0, ecx
  00239	59		 pop	 ecx
  0023a	8b 8d 44 01 00
	00		 mov	 ecx, DWORD PTR __$ArrayPad$[ebp]
  00240	33 cd		 xor	 ecx, ebp
  00242	e8 00 00 00 00	 call	 @__security_check_cookie@4
  00247	81 c5 48 01 00
	00		 add	 ebp, 328		; 00000148H
  0024d	c9		 leave
  0024e	c2 0c 00	 ret	 12			; 0000000cH
_TEXT	ENDS
;	COMDAT text$x
text$x	SEGMENT
__unwindfunclet$?GetMainTree@CSpeedTreeForest@@QAEHKPAPAVCSpeedTreeWrapper@@PBD@Z$0:
  00000	8d 4d 00	 lea	 ecx, DWORD PTR _file$24[ebp]
  00003	e9 00 00 00 00	 jmp	 ??1CMappedFile@@UAE@XZ	; CMappedFile::~CMappedFile
__unwindfunclet$?GetMainTree@CSpeedTreeForest@@QAEHKPAPAVCSpeedTreeWrapper@@PBD@Z$1:
  00008	68 18 03 00 00	 push	 792			; 00000318H
  0000d	ff 75 d4	 push	 DWORD PTR $T20[ebp]
  00010	e8 00 00 00 00	 call	 ??3@YAXPAXI@Z		; operator delete
  00015	59		 pop	 ecx
  00016	59		 pop	 ecx
  00017	c3		 ret	 0
  00018	cc		 int	 3
  00019	cc		 int	 3
  0001a	cc		 int	 3
  0001b	cc		 int	 3
  0001c	cc		 int	 3
__ehhandler$?GetMainTree@CSpeedTreeForest@@QAEHKPAPAVCSpeedTreeWrapper@@PBD@Z:
  0001d	90		 npad	 1
  0001e	90		 npad	 1
  0001f	8b 54 24 08	 mov	 edx, DWORD PTR [esp+8]
  00023	8d 42 0c	 lea	 eax, DWORD PTR [edx+12]
  00026	8b 4a 80	 mov	 ecx, DWORD PTR [edx-128]
  00029	33 c8		 xor	 ecx, eax
  0002b	e8 00 00 00 00	 call	 @__security_check_cookie@4
  00030	8b 8a 50 01 00
	00		 mov	 ecx, DWORD PTR [edx+336]
  00036	33 c8		 xor	 ecx, eax
  00038	e8 00 00 00 00	 call	 @__security_check_cookie@4
  0003d	b8 00 00 00 00	 mov	 eax, OFFSET __ehfuncinfo$?GetMainTree@CSpeedTreeForest@@QAEHKPAPAVCSpeedTreeWrapper@@PBD@Z
  00042	e9 00 00 00 00	 jmp	 ___CxxFrameHandler3
text$x	ENDS
?GetMainTree@CSpeedTreeForest@@QAEHKPAPAVCSpeedTreeWrapper@@PBD@Z ENDP ; CSpeedTreeForest::GetMainTree
; Function compile flags: /Odspy
; File D:\Metin2 Server Files\mainline\SRC_2014\Metin2Client\SpeedTreeLib\SpeedTreeForest.cpp
;	COMDAT ??1CSpeedTreeForest@@UAE@XZ
_TEXT	SEGMENT
_this$ = -16						; size = 4
__$EHRec$ = -12						; size = 12
??1CSpeedTreeForest@@UAE@XZ PROC			; CSpeedTreeForest::~CSpeedTreeForest, COMDAT
; _this$ = ecx

; 35   : {

  00000	55		 push	 ebp
  00001	8b ec		 mov	 ebp, esp
  00003	6a ff		 push	 -1
  00005	68 00 00 00 00	 push	 __ehhandler$??1CSpeedTreeForest@@UAE@XZ
  0000a	64 a1 00 00 00
	00		 mov	 eax, DWORD PTR fs:0
  00010	50		 push	 eax
  00011	51		 push	 ecx
  00012	a1 00 00 00 00	 mov	 eax, DWORD PTR ___security_cookie
  00017	33 c5		 xor	 eax, ebp
  00019	50		 push	 eax
  0001a	8d 45 f4	 lea	 eax, DWORD PTR __$EHRec$[ebp]
  0001d	64 a3 00 00 00
	00		 mov	 DWORD PTR fs:0, eax
  00023	89 4d f0	 mov	 DWORD PTR _this$[ebp], ecx
  00026	8b 45 f0	 mov	 eax, DWORD PTR _this$[ebp]
  00029	c7 00 00 00 00
	00		 mov	 DWORD PTR [eax], OFFSET ??_7CSpeedTreeForest@@6B@

; 36   : 	Clear();

  0002f	8b 4d f0	 mov	 ecx, DWORD PTR _this$[ebp]
  00032	e8 00 00 00 00	 call	 ?Clear@CSpeedTreeForest@@QAEXXZ ; CSpeedTreeForest::Clear

; 37   : }

  00037	8b 4d f0	 mov	 ecx, DWORD PTR _this$[ebp]
  0003a	83 c1 04	 add	 ecx, 4
  0003d	e8 00 00 00 00	 call	 ??1?$_Tree@V?$_Tmap_traits@KPAVCSpeedTreeWrapper@@U?$less@K@std@@V?$allocator@U?$pair@$$CBKPAVCSpeedTreeWrapper@@@std@@@3@$0A@@std@@@std@@QAE@XZ ; std::_Tree<std::_Tmap_traits<unsigned long,CSpeedTreeWrapper *,std::less<unsigned long>,std::allocator<std::pair<unsigned long const ,CSpeedTreeWrapper *> >,0> >::~_Tree<std::_Tmap_traits<unsigned long,CSpeedTreeWrapper *,std::less<unsigned long>,std::allocator<std::pair<unsigned long const ,CSpeedTreeWrapper *> >,0> >
  00042	8b 4d f4	 mov	 ecx, DWORD PTR __$EHRec$[ebp]
  00045	64 89 0d 00 00
	00 00		 mov	 DWORD PTR fs:0, ecx
  0004c	59		 pop	 ecx
  0004d	c9		 leave
  0004e	c3		 ret	 0
  0004f	cc		 int	 3
  00050	cc		 int	 3
  00051	cc		 int	 3
  00052	cc		 int	 3
  00053	cc		 int	 3
_TEXT	ENDS
;	COMDAT text$x
text$x	SEGMENT
__ehhandler$??1CSpeedTreeForest@@UAE@XZ:
  00000	90		 npad	 1
  00001	90		 npad	 1
  00002	8b 54 24 08	 mov	 edx, DWORD PTR [esp+8]
  00006	8d 42 0c	 lea	 eax, DWORD PTR [edx+12]
  00009	8b 4a f8	 mov	 ecx, DWORD PTR [edx-8]
  0000c	33 c8		 xor	 ecx, eax
  0000e	e8 00 00 00 00	 call	 @__security_check_cookie@4
  00013	b8 00 00 00 00	 mov	 eax, OFFSET __ehfuncinfo$??1CSpeedTreeForest@@UAE@XZ
  00018	e9 00 00 00 00	 jmp	 ___CxxFrameHandler3
text$x	ENDS
??1CSpeedTreeForest@@UAE@XZ ENDP			; CSpeedTreeForest::~CSpeedTreeForest
; Function compile flags: /Odspy
; File D:\Metin2 Server Files\mainline\SRC_2014\Metin2Client\SpeedTreeLib\SpeedTreeForest.cpp
; File C:\Program Files (x86)\Microsoft Visual Studio\2019\Community\VC\Tools\MSVC\14.28.29333\include\map
; File D:\Metin2 Server Files\mainline\SRC_2014\Metin2Client\SpeedTreeLib\SpeedTreeForest.cpp
;	COMDAT ??0CSpeedTreeForest@@QAE@XZ
_TEXT	SEGMENT
_this$ = -24						; size = 4
_this$ = -20						; size = 4
$T2 = -13						; size = 1
__$EHRec$ = -12						; size = 12
??0CSpeedTreeForest@@QAE@XZ PROC			; CSpeedTreeForest::CSpeedTreeForest, COMDAT
; _this$ = ecx

; 23   : {

  00000	55		 push	 ebp
  00001	8b ec		 mov	 ebp, esp
  00003	6a ff		 push	 -1
  00005	68 00 00 00 00	 push	 __ehhandler$??0CSpeedTreeForest@@QAE@XZ
  0000a	64 a1 00 00 00
	00		 mov	 eax, DWORD PTR fs:0
  00010	50		 push	 eax
  00011	83 ec 0c	 sub	 esp, 12			; 0000000cH
  00014	a1 00 00 00 00	 mov	 eax, DWORD PTR ___security_cookie
  00019	33 c5		 xor	 eax, ebp
  0001b	50		 push	 eax
  0001c	8d 45 f4	 lea	 eax, DWORD PTR __$EHRec$[ebp]
  0001f	64 a3 00 00 00
	00		 mov	 DWORD PTR fs:0, eax
  00025	89 4d ec	 mov	 DWORD PTR _this$[ebp], ecx
  00028	8b 45 ec	 mov	 eax, DWORD PTR _this$[ebp]
  0002b	c7 00 00 00 00
	00		 mov	 DWORD PTR [eax], OFFSET ??_7CSpeedTreeForest@@6B@
  00031	8b 45 ec	 mov	 eax, DWORD PTR _this$[ebp]
  00034	83 c0 04	 add	 eax, 4
  00037	89 45 e8	 mov	 DWORD PTR _this$[ebp], eax
; File C:\Program Files (x86)\Microsoft Visual Studio\2019\Community\VC\Tools\MSVC\14.28.29333\include\map

; 107  :     map() : _Mybase(key_compare()) {}

  0003a	8d 45 f3	 lea	 eax, DWORD PTR $T2[ebp]
  0003d	50		 push	 eax
  0003e	8b 4d e8	 mov	 ecx, DWORD PTR _this$[ebp]
  00041	e8 00 00 00 00	 call	 ??0?$_Tree@V?$_Tmap_traits@KPAVCSpeedTreeWrapper@@U?$less@K@std@@V?$allocator@U?$pair@$$CBKPAVCSpeedTreeWrapper@@@std@@@3@$0A@@std@@@std@@QAE@ABU?$less@K@1@@Z ; std::_Tree<std::_Tmap_traits<unsigned long,CSpeedTreeWrapper *,std::less<unsigned long>,std::allocator<std::pair<unsigned long const ,CSpeedTreeWrapper *> >,0> >::_Tree<std::_Tmap_traits<unsigned long,CSpeedTreeWrapper *,std::less<unsigned long>,std::allocator<std::pair<unsigned long const ,CSpeedTreeWrapper *> >,0> >
; File D:\Metin2 Server Files\mainline\SRC_2014\Metin2Client\SpeedTreeLib\SpeedTreeForest.cpp

; 23   : {

  00046	83 65 fc 00	 and	 DWORD PTR __$EHRec$[ebp+8], 0

; 22   : CSpeedTreeForest::CSpeedTreeForest() : m_fWindStrength(0.0f)

  0004a	8b 45 ec	 mov	 eax, DWORD PTR _this$[ebp]
  0004d	0f 57 c0	 xorps	 xmm0, xmm0
  00050	f3 0f 11 40 64	 movss	 DWORD PTR [eax+100], xmm0

; 24   : 	CSpeedTreeRT::SetNumWindMatrices(c_nNumWindMatrices);

  00055	6a 04		 push	 4
  00057	e8 00 00 00 00	 call	 ?SetNumWindMatrices@CSpeedTreeRT@@SAXI@Z ; CSpeedTreeRT::SetNumWindMatrices
  0005c	59		 pop	 ecx

; 25   : 
; 26   : 	m_afForestExtents[0] = m_afForestExtents[1] = m_afForestExtents[2] = FLT_MAX;

  0005d	6a 04		 push	 4
  0005f	58		 pop	 eax
  00060	d1 e0		 shl	 eax, 1
  00062	8b 4d ec	 mov	 ecx, DWORD PTR _this$[ebp]
  00065	f3 0f 10 05 00
	00 00 00	 movss	 xmm0, DWORD PTR __real@7f7fffff
  0006d	f3 0f 11 44 01
	4c		 movss	 DWORD PTR [ecx+eax+76], xmm0
  00073	6a 04		 push	 4
  00075	58		 pop	 eax
  00076	c1 e0 00	 shl	 eax, 0
  00079	8b 4d ec	 mov	 ecx, DWORD PTR _this$[ebp]
  0007c	f3 0f 10 05 00
	00 00 00	 movss	 xmm0, DWORD PTR __real@7f7fffff
  00084	f3 0f 11 44 01
	4c		 movss	 DWORD PTR [ecx+eax+76], xmm0
  0008a	6a 04		 push	 4
  0008c	58		 pop	 eax
  0008d	6b c0 00	 imul	 eax, eax, 0
  00090	8b 4d ec	 mov	 ecx, DWORD PTR _this$[ebp]
  00093	f3 0f 10 05 00
	00 00 00	 movss	 xmm0, DWORD PTR __real@7f7fffff
  0009b	f3 0f 11 44 01
	4c		 movss	 DWORD PTR [ecx+eax+76], xmm0

; 27   : 	m_afForestExtents[3] = m_afForestExtents[4] = m_afForestExtents[5] = -FLT_MAX;

  000a1	6a 04		 push	 4
  000a3	58		 pop	 eax
  000a4	6b c0 05	 imul	 eax, eax, 5
  000a7	8b 4d ec	 mov	 ecx, DWORD PTR _this$[ebp]
  000aa	f3 0f 10 05 00
	00 00 00	 movss	 xmm0, DWORD PTR __real@ff7fffff
  000b2	f3 0f 11 44 01
	4c		 movss	 DWORD PTR [ecx+eax+76], xmm0
  000b8	6a 04		 push	 4
  000ba	58		 pop	 eax
  000bb	c1 e0 02	 shl	 eax, 2
  000be	8b 4d ec	 mov	 ecx, DWORD PTR _this$[ebp]
  000c1	f3 0f 10 05 00
	00 00 00	 movss	 xmm0, DWORD PTR __real@ff7fffff
  000c9	f3 0f 11 44 01
	4c		 movss	 DWORD PTR [ecx+eax+76], xmm0
  000cf	6a 04		 push	 4
  000d1	58		 pop	 eax
  000d2	6b c0 03	 imul	 eax, eax, 3
  000d5	8b 4d ec	 mov	 ecx, DWORD PTR _this$[ebp]
  000d8	f3 0f 10 05 00
	00 00 00	 movss	 xmm0, DWORD PTR __real@ff7fffff
  000e0	f3 0f 11 44 01
	4c		 movss	 DWORD PTR [ecx+eax+76], xmm0

; 28   : }

  000e6	83 4d fc ff	 or	 DWORD PTR __$EHRec$[ebp+8], -1
  000ea	8b 45 ec	 mov	 eax, DWORD PTR _this$[ebp]
  000ed	8b 4d f4	 mov	 ecx, DWORD PTR __$EHRec$[ebp]
  000f0	64 89 0d 00 00
	00 00		 mov	 DWORD PTR fs:0, ecx
  000f7	59		 pop	 ecx
  000f8	c9		 leave
  000f9	c3		 ret	 0
_TEXT	ENDS
;	COMDAT text$x
text$x	SEGMENT
__unwindfunclet$??0CSpeedTreeForest@@QAE@XZ$0:
  00000	8b 4d ec	 mov	 ecx, DWORD PTR _this$[ebp]
  00003	83 c1 04	 add	 ecx, 4
  00006	e9 00 00 00 00	 jmp	 ??1?$map@KPAVCSpeedTreeWrapper@@U?$less@K@std@@V?$allocator@U?$pair@$$CBKPAVCSpeedTreeWrapper@@@std@@@3@@std@@QAE@XZ
  0000b	cc		 int	 3
  0000c	cc		 int	 3
  0000d	cc		 int	 3
  0000e	cc		 int	 3
  0000f	cc		 int	 3
__ehhandler$??0CSpeedTreeForest@@QAE@XZ:
  00010	90		 npad	 1
  00011	90		 npad	 1
  00012	8b 54 24 08	 mov	 edx, DWORD PTR [esp+8]
  00016	8d 42 0c	 lea	 eax, DWORD PTR [edx+12]
  00019	8b 4a f0	 mov	 ecx, DWORD PTR [edx-16]
  0001c	33 c8		 xor	 ecx, eax
  0001e	e8 00 00 00 00	 call	 @__security_check_cookie@4
  00023	b8 00 00 00 00	 mov	 eax, OFFSET __ehfuncinfo$??0CSpeedTreeForest@@QAE@XZ
  00028	e9 00 00 00 00	 jmp	 ___CxxFrameHandler3
text$x	ENDS
??0CSpeedTreeForest@@QAE@XZ ENDP			; CSpeedTreeForest::CSpeedTreeForest
; Function compile flags: /Odspy
; File C:\Program Files (x86)\Microsoft Visual Studio\2019\Community\VC\Tools\MSVC\14.28.29333\include\xtree
;	COMDAT ?_Throw_tree_length_error@std@@YAXXZ
_TEXT	SEGMENT
?_Throw_tree_length_error@std@@YAXXZ PROC		; std::_Throw_tree_length_error, COMDAT

; 414  : [[noreturn]] inline void _Throw_tree_length_error() {

  00000	55		 push	 ebp
  00001	8b ec		 mov	 ebp, esp

; 415  :     _Xlength_error("map/set too long");

  00003	68 00 00 00 00	 push	 OFFSET ??_C@_0BB@GCADKGJO@map?1set?5too?5long@
  00008	e8 00 00 00 00	 call	 ?_Xlength_error@std@@YAXPBD@Z ; std::_Xlength_error
$LN2@Throw_tree:

; 416  : }

  0000d	5d		 pop	 ebp
  0000e	c3		 ret	 0
?_Throw_tree_length_error@std@@YAXXZ ENDP		; std::_Throw_tree_length_error
_TEXT	ENDS
; Function compile flags: /Odspy
; File C:\Program Files (x86)\Microsoft Visual Studio\2019\Community\VC\Tools\MSVC\14.28.29333\include\xmemory
;	COMDAT ?_Adjust_manually_vector_aligned@std@@YAXAAPAXAAI@Z
_TEXT	SEGMENT
__Min_back_shift$ = -16					; size = 4
__Ptr_user$ = -12					; size = 4
__Ptr_container$ = -8					; size = 4
__Back_shift$ = -4					; size = 4
__Ptr$ = 8						; size = 4
__Bytes$ = 12						; size = 4
?_Adjust_manually_vector_aligned@std@@YAXAAPAXAAI@Z PROC ; std::_Adjust_manually_vector_aligned, COMDAT

; 132  : inline void _Adjust_manually_vector_aligned(void*& _Ptr, size_t& _Bytes) {

  00000	55		 push	 ebp
  00001	8b ec		 mov	 ebp, esp
  00003	83 ec 10	 sub	 esp, 16			; 00000010H

; 133  :     // adjust parameters from _Allocate_manually_vector_aligned to pass to operator delete
; 134  :     _Bytes += _Non_user_size;

  00006	8b 45 0c	 mov	 eax, DWORD PTR __Bytes$[ebp]
  00009	8b 00		 mov	 eax, DWORD PTR [eax]
  0000b	83 c0 23	 add	 eax, 35			; 00000023H
  0000e	8b 4d 0c	 mov	 ecx, DWORD PTR __Bytes$[ebp]
  00011	89 01		 mov	 DWORD PTR [ecx], eax

; 135  : 
; 136  :     const uintptr_t* const _Ptr_user = reinterpret_cast<uintptr_t*>(_Ptr);

  00013	8b 45 08	 mov	 eax, DWORD PTR __Ptr$[ebp]
  00016	8b 00		 mov	 eax, DWORD PTR [eax]
  00018	89 45 f4	 mov	 DWORD PTR __Ptr_user$[ebp], eax

; 137  :     const uintptr_t _Ptr_container   = _Ptr_user[-1];

  0001b	6a 04		 push	 4
  0001d	58		 pop	 eax
  0001e	6b c0 ff	 imul	 eax, eax, -1
  00021	8b 4d f4	 mov	 ecx, DWORD PTR __Ptr_user$[ebp]
  00024	8b 04 01	 mov	 eax, DWORD PTR [ecx+eax]
  00027	89 45 f8	 mov	 DWORD PTR __Ptr_container$[ebp], eax

; 138  : 
; 139  :     // If the following asserts, it likely means that we are performing
; 140  :     // an aligned delete on memory coming from an unaligned allocation.
; 141  :     _STL_ASSERT(_Ptr_user[-2] == _Big_allocation_sentinel, "invalid argument");
; 142  : 
; 143  :     // Extra paranoia on aligned allocation/deallocation; ensure _Ptr_container is
; 144  :     // in range [_Min_back_shift, _Non_user_size]
; 145  : #ifdef _DEBUG
; 146  :     constexpr uintptr_t _Min_back_shift = 2 * sizeof(void*);
; 147  : #else // ^^^ _DEBUG ^^^ // vvv !_DEBUG vvv
; 148  :     constexpr uintptr_t _Min_back_shift = sizeof(void*);

  0002a	c7 45 f0 04 00
	00 00		 mov	 DWORD PTR __Min_back_shift$[ebp], 4

; 149  : #endif // _DEBUG
; 150  :     const uintptr_t _Back_shift = reinterpret_cast<uintptr_t>(_Ptr) - _Ptr_container;

  00031	8b 45 08	 mov	 eax, DWORD PTR __Ptr$[ebp]
  00034	8b 00		 mov	 eax, DWORD PTR [eax]
  00036	2b 45 f8	 sub	 eax, DWORD PTR __Ptr_container$[ebp]
  00039	89 45 fc	 mov	 DWORD PTR __Back_shift$[ebp], eax
$LN4@Adjust_man:

; 151  :     _STL_VERIFY(_Back_shift >= _Min_back_shift && _Back_shift <= _Non_user_size, "invalid argument");

  0003c	83 7d fc 04	 cmp	 DWORD PTR __Back_shift$[ebp], 4
  00040	72 08		 jb	 SHORT $LN7@Adjust_man
  00042	83 7d fc 23	 cmp	 DWORD PTR __Back_shift$[ebp], 35 ; 00000023H
  00046	77 02		 ja	 SHORT $LN7@Adjust_man
  00048	eb 09		 jmp	 SHORT $LN2@Adjust_man
$LN7@Adjust_man:
  0004a	e8 00 00 00 00	 call	 __invalid_parameter_noinfo_noreturn
  0004f	33 c0		 xor	 eax, eax
  00051	75 f7		 jne	 SHORT $LN7@Adjust_man
$LN2@Adjust_man:
  00053	33 c0		 xor	 eax, eax
  00055	75 e5		 jne	 SHORT $LN4@Adjust_man

; 152  :     _Ptr = reinterpret_cast<void*>(_Ptr_container);

  00057	8b 45 08	 mov	 eax, DWORD PTR __Ptr$[ebp]
  0005a	8b 4d f8	 mov	 ecx, DWORD PTR __Ptr_container$[ebp]
  0005d	89 08		 mov	 DWORD PTR [eax], ecx
$LN10@Adjust_man:

; 153  : }

  0005f	c9		 leave
  00060	c3		 ret	 0
?_Adjust_manually_vector_aligned@std@@YAXAAPAXAAI@Z ENDP ; std::_Adjust_manually_vector_aligned
_TEXT	ENDS
; Function compile flags: /Odspy
; File C:\Program Files (x86)\Microsoft Visual Studio\2019\Community\VC\Tools\MSVC\14.28.29333\include\exception
;	COMDAT ?_Throw_bad_array_new_length@std@@YAXXZ
_TEXT	SEGMENT
$T1 = -12						; size = 12
?_Throw_bad_array_new_length@std@@YAXXZ PROC		; std::_Throw_bad_array_new_length, COMDAT

; 320  : [[noreturn]] inline void _Throw_bad_array_new_length() {

  00000	55		 push	 ebp
  00001	8b ec		 mov	 ebp, esp
  00003	83 ec 0c	 sub	 esp, 12			; 0000000cH

; 321  :     _THROW(bad_array_new_length{});

  00006	8d 4d f4	 lea	 ecx, DWORD PTR $T1[ebp]
  00009	e8 00 00 00 00	 call	 ??0bad_array_new_length@std@@QAE@XZ ; std::bad_array_new_length::bad_array_new_length
  0000e	68 00 00 00 00	 push	 OFFSET __TI3?AVbad_array_new_length@std@@
  00013	8d 45 f4	 lea	 eax, DWORD PTR $T1[ebp]
  00016	50		 push	 eax
  00017	e8 00 00 00 00	 call	 __CxxThrowException@8
$LN2@Throw_bad_:

; 322  : }

  0001c	c9		 leave
  0001d	c3		 ret	 0
?_Throw_bad_array_new_length@std@@YAXXZ ENDP		; std::_Throw_bad_array_new_length
_TEXT	ENDS
; Function compile flags: /Odspy
; File C:\Program Files (x86)\Microsoft Visual Studio\2019\Community\VC\Tools\MSVC\14.28.29333\include\vcruntime_exception.h
;	COMDAT ??_Gbad_array_new_length@std@@UAEPAXI@Z
_TEXT	SEGMENT
_this$ = -4						; size = 4
___flags$ = 8						; size = 4
??_Gbad_array_new_length@std@@UAEPAXI@Z PROC		; std::bad_array_new_length::`scalar deleting destructor', COMDAT
; _this$ = ecx
  00000	55		 push	 ebp
  00001	8b ec		 mov	 ebp, esp
  00003	51		 push	 ecx
  00004	89 4d fc	 mov	 DWORD PTR _this$[ebp], ecx

; 89   :     {

  00007	8b 45 fc	 mov	 eax, DWORD PTR _this$[ebp]
  0000a	c7 00 00 00 00
	00		 mov	 DWORD PTR [eax], OFFSET ??_7exception@std@@6B@

; 90   :         __std_exception_destroy(&_Data);

  00010	8b 45 fc	 mov	 eax, DWORD PTR _this$[ebp]
  00013	83 c0 04	 add	 eax, 4
  00016	50		 push	 eax
  00017	e8 00 00 00 00	 call	 ___std_exception_destroy
  0001c	59		 pop	 ecx
  0001d	8b 45 08	 mov	 eax, DWORD PTR ___flags$[ebp]
  00020	83 e0 01	 and	 eax, 1
  00023	74 0c		 je	 SHORT $LN2@scalar
  00025	6a 0c		 push	 12			; 0000000cH
  00027	ff 75 fc	 push	 DWORD PTR _this$[ebp]
  0002a	e8 00 00 00 00	 call	 ??3@YAXPAXI@Z		; operator delete
  0002f	59		 pop	 ecx
  00030	59		 pop	 ecx
$LN2@scalar:
  00031	8b 45 fc	 mov	 eax, DWORD PTR _this$[ebp]
  00034	c9		 leave
  00035	c2 04 00	 ret	 4
??_Gbad_array_new_length@std@@UAEPAXI@Z ENDP		; std::bad_array_new_length::`scalar deleting destructor'
_TEXT	ENDS
; Function compile flags: /Odspy
;	COMDAT ??0bad_array_new_length@std@@QAE@ABV01@@Z
_TEXT	SEGMENT
_this$ = -4						; size = 4
___that$ = 8						; size = 4
??0bad_array_new_length@std@@QAE@ABV01@@Z PROC		; std::bad_array_new_length::bad_array_new_length, COMDAT
; _this$ = ecx
  00000	55		 push	 ebp
  00001	8b ec		 mov	 ebp, esp
  00003	51		 push	 ecx
  00004	89 4d fc	 mov	 DWORD PTR _this$[ebp], ecx
  00007	ff 75 08	 push	 DWORD PTR ___that$[ebp]
  0000a	8b 4d fc	 mov	 ecx, DWORD PTR _this$[ebp]
  0000d	e8 00 00 00 00	 call	 ??0exception@std@@QAE@ABV01@@Z ; std::exception::exception
  00012	8b 45 fc	 mov	 eax, DWORD PTR _this$[ebp]
  00015	c7 00 00 00 00
	00		 mov	 DWORD PTR [eax], OFFSET ??_7bad_alloc@std@@6B@
  0001b	8b 45 fc	 mov	 eax, DWORD PTR _this$[ebp]
  0001e	c7 00 00 00 00
	00		 mov	 DWORD PTR [eax], OFFSET ??_7bad_array_new_length@std@@6B@
  00024	8b 45 fc	 mov	 eax, DWORD PTR _this$[ebp]
  00027	c9		 leave
  00028	c2 04 00	 ret	 4
??0bad_array_new_length@std@@QAE@ABV01@@Z ENDP		; std::bad_array_new_length::bad_array_new_length
_TEXT	ENDS
; Function compile flags: /Odspy
; File C:\Program Files (x86)\Microsoft Visual Studio\2019\Community\VC\Tools\MSVC\14.28.29333\include\vcruntime_exception.h
;	COMDAT ??1bad_array_new_length@std@@UAE@XZ
_TEXT	SEGMENT
_this$ = -4						; size = 4
??1bad_array_new_length@std@@UAE@XZ PROC		; std::bad_array_new_length::~bad_array_new_length, COMDAT
; _this$ = ecx
  00000	55		 push	 ebp
  00001	8b ec		 mov	 ebp, esp
  00003	51		 push	 ecx
  00004	89 4d fc	 mov	 DWORD PTR _this$[ebp], ecx

; 89   :     {

  00007	8b 45 fc	 mov	 eax, DWORD PTR _this$[ebp]
  0000a	c7 00 00 00 00
	00		 mov	 DWORD PTR [eax], OFFSET ??_7exception@std@@6B@

; 90   :         __std_exception_destroy(&_Data);

  00010	8b 45 fc	 mov	 eax, DWORD PTR _this$[ebp]
  00013	83 c0 04	 add	 eax, 4
  00016	50		 push	 eax
  00017	e8 00 00 00 00	 call	 ___std_exception_destroy
  0001c	59		 pop	 ecx
  0001d	c9		 leave
  0001e	c3		 ret	 0
??1bad_array_new_length@std@@UAE@XZ ENDP		; std::bad_array_new_length::~bad_array_new_length
_TEXT	ENDS
; Function compile flags: /Odspy
; File C:\Program Files (x86)\Microsoft Visual Studio\2019\Community\VC\Tools\MSVC\14.28.29333\include\vcruntime_exception.h
;	COMDAT ??0bad_array_new_length@std@@QAE@XZ
_TEXT	SEGMENT
_this$ = -4						; size = 4
??0bad_array_new_length@std@@QAE@XZ PROC		; std::bad_array_new_length::bad_array_new_length, COMDAT
; _this$ = ecx

; 141  :     {

  00000	55		 push	 ebp
  00001	8b ec		 mov	 ebp, esp
  00003	51		 push	 ecx
  00004	89 4d fc	 mov	 DWORD PTR _this$[ebp], ecx

; 66   :     {

  00007	8b 45 fc	 mov	 eax, DWORD PTR _this$[ebp]
  0000a	c7 00 00 00 00
	00		 mov	 DWORD PTR [eax], OFFSET ??_7exception@std@@6B@

; 65   :         : _Data()

  00010	33 c0		 xor	 eax, eax
  00012	8b 4d fc	 mov	 ecx, DWORD PTR _this$[ebp]
  00015	83 c1 04	 add	 ecx, 4
  00018	89 01		 mov	 DWORD PTR [ecx], eax
  0001a	89 41 04	 mov	 DWORD PTR [ecx+4], eax

; 67   :         _Data._What = _Message;

  0001d	8b 45 fc	 mov	 eax, DWORD PTR _this$[ebp]
  00020	c7 40 04 00 00
	00 00		 mov	 DWORD PTR [eax+4], OFFSET ??_C@_0BF@KINCDENJ@bad?5array?5new?5length@

; 130  :     {

  00027	8b 45 fc	 mov	 eax, DWORD PTR _this$[ebp]
  0002a	c7 00 00 00 00
	00		 mov	 DWORD PTR [eax], OFFSET ??_7bad_alloc@std@@6B@

; 141  :     {

  00030	8b 45 fc	 mov	 eax, DWORD PTR _this$[ebp]
  00033	c7 00 00 00 00
	00		 mov	 DWORD PTR [eax], OFFSET ??_7bad_array_new_length@std@@6B@

; 142  :     }

  00039	8b 45 fc	 mov	 eax, DWORD PTR _this$[ebp]
  0003c	c9		 leave
  0003d	c3		 ret	 0
??0bad_array_new_length@std@@QAE@XZ ENDP		; std::bad_array_new_length::bad_array_new_length
_TEXT	ENDS
; Function compile flags: /Odspy
; File C:\Program Files (x86)\Microsoft Visual Studio\2019\Community\VC\Tools\MSVC\14.28.29333\include\vcruntime_exception.h
;	COMDAT ??_Gbad_alloc@std@@UAEPAXI@Z
_TEXT	SEGMENT
_this$ = -4						; size = 4
___flags$ = 8						; size = 4
??_Gbad_alloc@std@@UAEPAXI@Z PROC			; std::bad_alloc::`scalar deleting destructor', COMDAT
; _this$ = ecx
  00000	55		 push	 ebp
  00001	8b ec		 mov	 ebp, esp
  00003	51		 push	 ecx
  00004	89 4d fc	 mov	 DWORD PTR _this$[ebp], ecx

; 89   :     {

  00007	8b 45 fc	 mov	 eax, DWORD PTR _this$[ebp]
  0000a	c7 00 00 00 00
	00		 mov	 DWORD PTR [eax], OFFSET ??_7exception@std@@6B@

; 90   :         __std_exception_destroy(&_Data);

  00010	8b 45 fc	 mov	 eax, DWORD PTR _this$[ebp]
  00013	83 c0 04	 add	 eax, 4
  00016	50		 push	 eax
  00017	e8 00 00 00 00	 call	 ___std_exception_destroy
  0001c	59		 pop	 ecx
  0001d	8b 45 08	 mov	 eax, DWORD PTR ___flags$[ebp]
  00020	83 e0 01	 and	 eax, 1
  00023	74 0c		 je	 SHORT $LN2@scalar
  00025	6a 0c		 push	 12			; 0000000cH
  00027	ff 75 fc	 push	 DWORD PTR _this$[ebp]
  0002a	e8 00 00 00 00	 call	 ??3@YAXPAXI@Z		; operator delete
  0002f	59		 pop	 ecx
  00030	59		 pop	 ecx
$LN2@scalar:
  00031	8b 45 fc	 mov	 eax, DWORD PTR _this$[ebp]
  00034	c9		 leave
  00035	c2 04 00	 ret	 4
??_Gbad_alloc@std@@UAEPAXI@Z ENDP			; std::bad_alloc::`scalar deleting destructor'
_TEXT	ENDS
; Function compile flags: /Odspy
;	COMDAT ??0bad_alloc@std@@QAE@ABV01@@Z
_TEXT	SEGMENT
_this$ = -4						; size = 4
___that$ = 8						; size = 4
??0bad_alloc@std@@QAE@ABV01@@Z PROC			; std::bad_alloc::bad_alloc, COMDAT
; _this$ = ecx
  00000	55		 push	 ebp
  00001	8b ec		 mov	 ebp, esp
  00003	51		 push	 ecx
  00004	89 4d fc	 mov	 DWORD PTR _this$[ebp], ecx
  00007	ff 75 08	 push	 DWORD PTR ___that$[ebp]
  0000a	8b 4d fc	 mov	 ecx, DWORD PTR _this$[ebp]
  0000d	e8 00 00 00 00	 call	 ??0exception@std@@QAE@ABV01@@Z ; std::exception::exception
  00012	8b 45 fc	 mov	 eax, DWORD PTR _this$[ebp]
  00015	c7 00 00 00 00
	00		 mov	 DWORD PTR [eax], OFFSET ??_7bad_alloc@std@@6B@
  0001b	8b 45 fc	 mov	 eax, DWORD PTR _this$[ebp]
  0001e	c9		 leave
  0001f	c2 04 00	 ret	 4
??0bad_alloc@std@@QAE@ABV01@@Z ENDP			; std::bad_alloc::bad_alloc
_TEXT	ENDS
; Function compile flags: /Odspy
; File C:\Program Files (x86)\Microsoft Visual Studio\2019\Community\VC\Tools\MSVC\14.28.29333\include\vcruntime_exception.h
;	COMDAT ??_Gexception@std@@UAEPAXI@Z
_TEXT	SEGMENT
_this$ = -4						; size = 4
___flags$ = 8						; size = 4
??_Gexception@std@@UAEPAXI@Z PROC			; std::exception::`scalar deleting destructor', COMDAT
; _this$ = ecx
  00000	55		 push	 ebp
  00001	8b ec		 mov	 ebp, esp
  00003	51		 push	 ecx
  00004	89 4d fc	 mov	 DWORD PTR _this$[ebp], ecx

; 89   :     {

  00007	8b 45 fc	 mov	 eax, DWORD PTR _this$[ebp]
  0000a	c7 00 00 00 00
	00		 mov	 DWORD PTR [eax], OFFSET ??_7exception@std@@6B@

; 90   :         __std_exception_destroy(&_Data);

  00010	8b 45 fc	 mov	 eax, DWORD PTR _this$[ebp]
  00013	83 c0 04	 add	 eax, 4
  00016	50		 push	 eax
  00017	e8 00 00 00 00	 call	 ___std_exception_destroy
  0001c	59		 pop	 ecx
  0001d	8b 45 08	 mov	 eax, DWORD PTR ___flags$[ebp]
  00020	83 e0 01	 and	 eax, 1
  00023	74 0c		 je	 SHORT $LN2@scalar
  00025	6a 0c		 push	 12			; 0000000cH
  00027	ff 75 fc	 push	 DWORD PTR _this$[ebp]
  0002a	e8 00 00 00 00	 call	 ??3@YAXPAXI@Z		; operator delete
  0002f	59		 pop	 ecx
  00030	59		 pop	 ecx
$LN2@scalar:
  00031	8b 45 fc	 mov	 eax, DWORD PTR _this$[ebp]
  00034	c9		 leave
  00035	c2 04 00	 ret	 4
??_Gexception@std@@UAEPAXI@Z ENDP			; std::exception::`scalar deleting destructor'
_TEXT	ENDS
; Function compile flags: /Odspy
; File C:\Program Files (x86)\Microsoft Visual Studio\2019\Community\VC\Tools\MSVC\14.28.29333\include\vcruntime_exception.h
;	COMDAT ?what@exception@std@@UBEPBDXZ
_TEXT	SEGMENT
tv69 = -8						; size = 4
_this$ = -4						; size = 4
?what@exception@std@@UBEPBDXZ PROC			; std::exception::what, COMDAT
; _this$ = ecx

; 94   :     {

  00000	55		 push	 ebp
  00001	8b ec		 mov	 ebp, esp
  00003	51		 push	 ecx
  00004	51		 push	 ecx
  00005	89 4d fc	 mov	 DWORD PTR _this$[ebp], ecx

; 95   :         return _Data._What ? _Data._What : "Unknown exception";

  00008	8b 45 fc	 mov	 eax, DWORD PTR _this$[ebp]
  0000b	83 78 04 00	 cmp	 DWORD PTR [eax+4], 0
  0000f	74 0b		 je	 SHORT $LN3@what
  00011	8b 45 fc	 mov	 eax, DWORD PTR _this$[ebp]
  00014	8b 40 04	 mov	 eax, DWORD PTR [eax+4]
  00017	89 45 f8	 mov	 DWORD PTR tv69[ebp], eax
  0001a	eb 07		 jmp	 SHORT $LN4@what
$LN3@what:
  0001c	c7 45 f8 00 00
	00 00		 mov	 DWORD PTR tv69[ebp], OFFSET ??_C@_0BC@EOODALEL@Unknown?5exception@
$LN4@what:
  00023	8b 45 f8	 mov	 eax, DWORD PTR tv69[ebp]

; 96   :     }

  00026	c9		 leave
  00027	c3		 ret	 0
?what@exception@std@@UBEPBDXZ ENDP			; std::exception::what
_TEXT	ENDS
; Function compile flags: /Odspy
; File C:\Program Files (x86)\Microsoft Visual Studio\2019\Community\VC\Tools\MSVC\14.28.29333\include\vcruntime_exception.h
;	COMDAT ??0exception@std@@QAE@ABV01@@Z
_TEXT	SEGMENT
_this$ = -4						; size = 4
__Other$ = 8						; size = 4
??0exception@std@@QAE@ABV01@@Z PROC			; std::exception::exception, COMDAT
; _this$ = ecx

; 72   :     {

  00000	55		 push	 ebp
  00001	8b ec		 mov	 ebp, esp
  00003	51		 push	 ecx
  00004	89 4d fc	 mov	 DWORD PTR _this$[ebp], ecx
  00007	8b 45 fc	 mov	 eax, DWORD PTR _this$[ebp]
  0000a	c7 00 00 00 00
	00		 mov	 DWORD PTR [eax], OFFSET ??_7exception@std@@6B@

; 71   :         : _Data()

  00010	33 c0		 xor	 eax, eax
  00012	8b 4d fc	 mov	 ecx, DWORD PTR _this$[ebp]
  00015	83 c1 04	 add	 ecx, 4
  00018	89 01		 mov	 DWORD PTR [ecx], eax
  0001a	89 41 04	 mov	 DWORD PTR [ecx+4], eax

; 73   :         __std_exception_copy(&_Other._Data, &_Data);

  0001d	8b 45 fc	 mov	 eax, DWORD PTR _this$[ebp]
  00020	83 c0 04	 add	 eax, 4
  00023	50		 push	 eax
  00024	8b 45 08	 mov	 eax, DWORD PTR __Other$[ebp]
  00027	83 c0 04	 add	 eax, 4
  0002a	50		 push	 eax
  0002b	e8 00 00 00 00	 call	 ___std_exception_copy
  00030	59		 pop	 ecx
  00031	59		 pop	 ecx

; 74   :     }

  00032	8b 45 fc	 mov	 eax, DWORD PTR _this$[ebp]
  00035	c9		 leave
  00036	c2 04 00	 ret	 4
??0exception@std@@QAE@ABV01@@Z ENDP			; std::exception::exception
_TEXT	ENDS
END
