; Listing generated by Microsoft (R) Optimizing Compiler Version 19.28.29335.0 

	TITLE	D:\Metin2 Server Files\mainline\SRC_2014\Metin2Client\SpeedTreeLib\SpeedTreeForestDirectX8.cpp
	.686P
	.XMM
	include listing.inc
	.model	flat

INCLUDELIB LIBCMT
INCLUDELIB OLDNAMES

CONST	SEGMENT
?g_achSimpleVertexProgram@@3QBDB DB 'vs.1.1', 0aH, 'mov', 09H, 09H, 'oT0.'
	DB	'xy,', 09H, 09H, 'v7', 0aH, 'mov', 09H, 09H, 'oT1.xy,', 09H, 09H
	DB	'v8', 0aH, 'mov', 09H, 09H, 'a0.x,', 09H, 'v9.x', 0aH, 'm4x4', 09H
	DB	09H, 'r1,', 09H, 09H, 09H, 'v0,', 09H, 09H, 09H, 'c[54+a0.x]', 0aH
	DB	'sub', 09H, 09H, 'r2,', 09H, 09H, 09H, 'r1,', 09H, 09H, 09H, 'v'
	DB	'0', 0aH, 'mov', 09H, 09H, 'r3.x,', 09H, 09H, 'v9.y', 0aH, 'ma'
	DB	'd', 09H, 09H, 'r1,', 09H, 09H, 09H, 'r2,', 09H, 09H, 09H, 'r3'
	DB	'.x,', 09H, 09H, 'v0', 0aH, 'add', 09H, 09H, 'r2,', 09H, 09H, 09H
	DB	'c[52],', 09H, 09H, 'r1', 0aH, 'm4x4', 09H, 09H, 'oPos,', 09H, 09H
	DB	'r2,', 09H, 09H, 09H, 'c[0]', 0aH, 'dp4', 09H, 09H, 'r1,', 09H
	DB	09H, 09H, 'r2,', 09H, 09H, 09H, 'c[2]', 0aH, 'sub', 09H, 09H, 'r'
	DB	'2.x,', 09H, 09H, 'c[85].y,', 09H, 'r1.z', 0aH, 'mul', 09H, 09H
	DB	'oFog,', 09H, 09H, 'r2.x,', 09H, 09H, 'c[85].z', 0aH, 'mov', 09H
	DB	09H, 'oD0,', 09H, 09H, 'v5', 0aH, 00H	; g_achSimpleVertexProgram
CONST	ENDS
PUBLIC	??_H@YGXPAXIIP6EPAX0@Z@Z			; `vector constructor iterator'
PUBLIC	___local_stdio_printf_options
PUBLIC	_sprintf
PUBLIC	?begin@?$_Tree@V?$_Tmap_traits@KPAVCSpeedTreeWrapper@@U?$less@K@std@@V?$allocator@U?$pair@$$CBKPAVCSpeedTreeWrapper@@@std@@@3@$0A@@std@@@std@@QAE?AV?$_Tree_iterator@V?$_Tree_val@U?$_Tree_simple_types@U?$pair@$$CBKPAVCSpeedTreeWrapper@@@std@@@std@@@std@@@2@XZ ; std::_Tree<std::_Tmap_traits<unsigned long,CSpeedTreeWrapper *,std::less<unsigned long>,std::allocator<std::pair<unsigned long const ,CSpeedTreeWrapper *> >,0> >::begin
PUBLIC	?end@?$_Tree@V?$_Tmap_traits@KPAVCSpeedTreeWrapper@@U?$less@K@std@@V?$allocator@U?$pair@$$CBKPAVCSpeedTreeWrapper@@@std@@@3@$0A@@std@@@std@@QAE?AV?$_Tree_iterator@V?$_Tree_val@U?$_Tree_simple_types@U?$pair@$$CBKPAVCSpeedTreeWrapper@@@std@@@std@@@std@@@2@XZ ; std::_Tree<std::_Tmap_traits<unsigned long,CSpeedTreeWrapper *,std::less<unsigned long>,std::allocator<std::pair<unsigned long const ,CSpeedTreeWrapper *> >,0> >::end
PUBLIC	?empty@?$_Tree@V?$_Tmap_traits@KPAVCSpeedTreeWrapper@@U?$less@K@std@@V?$allocator@U?$pair@$$CBKPAVCSpeedTreeWrapper@@@std@@@3@$0A@@std@@@std@@QBE_NXZ ; std::_Tree<std::_Tmap_traits<unsigned long,CSpeedTreeWrapper *,std::less<unsigned long>,std::allocator<std::pair<unsigned long const ,CSpeedTreeWrapper *> >,0> >::empty
PUBLIC	??_G?$CSingleton@VCSpeedTreeForestDirectX8@@@@UAEPAXI@Z ; CSingleton<CSpeedTreeForestDirectX8>::`scalar deleting destructor'
PUBLIC	??0CSpeedTreeForestDirectX8@@QAE@XZ		; CSpeedTreeForestDirectX8::CSpeedTreeForestDirectX8
PUBLIC	??1CSpeedTreeForestDirectX8@@UAE@XZ		; CSpeedTreeForestDirectX8::~CSpeedTreeForestDirectX8
PUBLIC	?UploadWindMatrix@CSpeedTreeForestDirectX8@@UBEXIPBM@Z ; CSpeedTreeForestDirectX8::UploadWindMatrix
PUBLIC	?UpdateCompundMatrix@CSpeedTreeForestDirectX8@@QAEXABUD3DXVECTOR3@@ABUD3DXMATRIX@@1@Z ; CSpeedTreeForestDirectX8::UpdateCompundMatrix
PUBLIC	?Render@CSpeedTreeForestDirectX8@@UAEXK@Z	; CSpeedTreeForestDirectX8::Render
PUBLIC	?SetRenderingDevice@CSpeedTreeForestDirectX8@@QAE_NPAUIDirect3DDevice8@@@Z ; CSpeedTreeForestDirectX8::SetRenderingDevice
PUBLIC	?InitVertexShaders@CSpeedTreeForestDirectX8@@AAE_NXZ ; CSpeedTreeForestDirectX8::InitVertexShaders
PUBLIC	??_GCSpeedTreeForestDirectX8@@UAEPAXI@Z		; CSpeedTreeForestDirectX8::`scalar deleting destructor'
PUBLIC	??E?$_Tree_unchecked_const_iterator@V?$_Tree_val@U?$_Tree_simple_types@U?$pair@$$CBKPAVCSpeedTreeWrapper@@@std@@@std@@@std@@U_Iterator_base0@2@@std@@QAEAAV01@XZ ; std::_Tree_unchecked_const_iterator<std::_Tree_val<std::_Tree_simple_types<std::pair<unsigned long const ,CSpeedTreeWrapper *> > >,std::_Iterator_base0>::operator++
PUBLIC	??_ECSpeedTreeForestDirectX8@@WGM@AEPAXI@Z	; [thunk]:CSpeedTreeForestDirectX8::`vector deleting destructor'
PUBLIC	??_ECSpeedTreeForestDirectX8@@WHA@AEPAXI@Z	; [thunk]:CSpeedTreeForestDirectX8::`vector deleting destructor'
PUBLIC	?_OptionsStorage@?1??__local_stdio_printf_options@@9@4_KA ; `__local_stdio_printf_options'::`2'::_OptionsStorage
PUBLIC	?ms_singleton@?$CSingleton@VCSpeedTreeForestDirectX8@@@@0PAVCSpeedTreeForestDirectX8@@A ; CSingleton<CSpeedTreeForestDirectX8>::ms_singleton
PUBLIC	??_7?$CSingleton@VCSpeedTreeForestDirectX8@@@@6B@ ; CSingleton<CSpeedTreeForestDirectX8>::`vftable'
PUBLIC	??_7CSpeedTreeForestDirectX8@@6BCSpeedTreeForest@@@ ; CSpeedTreeForestDirectX8::`vftable'
PUBLIC	??_7CSpeedTreeForestDirectX8@@6BCGraphicBase@@@	; CSpeedTreeForestDirectX8::`vftable'
PUBLIC	??_7CSpeedTreeForestDirectX8@@6B?$CSingleton@VCSpeedTreeForestDirectX8@@@@@ ; CSpeedTreeForestDirectX8::`vftable'
PUBLIC	?ms_singleton@?$CSingleton@VCTimer@@@@0PAVCTimer@@A ; CSingleton<CTimer>::ms_singleton
PUBLIC	?ms_singleton@?$CSingleton@VCStateManager@@@@0PAVCStateManager@@A ; CSingleton<CStateManager>::ms_singleton
PUBLIC	?ms_singleton@?$CSingleton@VCCameraManager@@@@0PAVCCameraManager@@A ; CSingleton<CCameraManager>::ms_singleton
PUBLIC	??_C@_0CH@GFOKBLKL@Failed?5to?5create?5branch?5vertex?5@ ; `string'
PUBLIC	??_C@_0BE@MPNPNNCI@Vertex?5Shader?5Error@	; `string'
PUBLIC	??_C@_0EI@ONOKBFD@Failed?5to?5assemble?5branch?5verte@ ; `string'
PUBLIC	??_R4CSpeedTreeForestDirectX8@@6BCSpeedTreeForest@@@ ; CSpeedTreeForestDirectX8::`RTTI Complete Object Locator'
PUBLIC	??_R0?AVCSpeedTreeForestDirectX8@@@8		; CSpeedTreeForestDirectX8 `RTTI Type Descriptor'
PUBLIC	??_R3CSpeedTreeForestDirectX8@@8		; CSpeedTreeForestDirectX8::`RTTI Class Hierarchy Descriptor'
PUBLIC	??_R2CSpeedTreeForestDirectX8@@8		; CSpeedTreeForestDirectX8::`RTTI Base Class Array'
PUBLIC	??_R1A@?0A@EA@CSpeedTreeForestDirectX8@@8	; CSpeedTreeForestDirectX8::`RTTI Base Class Descriptor at (0,-1,0,64)'
PUBLIC	??_R1A@?0A@EA@CSpeedTreeForest@@8		; CSpeedTreeForest::`RTTI Base Class Descriptor at (0,-1,0,64)'
PUBLIC	??_R0?AVCSpeedTreeForest@@@8			; CSpeedTreeForest `RTTI Type Descriptor'
PUBLIC	??_R3CSpeedTreeForest@@8			; CSpeedTreeForest::`RTTI Class Hierarchy Descriptor'
PUBLIC	??_R2CSpeedTreeForest@@8			; CSpeedTreeForest::`RTTI Base Class Array'
PUBLIC	??_R1GM@?0A@EA@CGraphicBase@@8			; CGraphicBase::`RTTI Base Class Descriptor at (108,-1,0,64)'
PUBLIC	??_R0?AVCGraphicBase@@@8			; CGraphicBase `RTTI Type Descriptor'
PUBLIC	??_R3CGraphicBase@@8				; CGraphicBase::`RTTI Class Hierarchy Descriptor'
PUBLIC	??_R2CGraphicBase@@8				; CGraphicBase::`RTTI Base Class Array'
PUBLIC	??_R1A@?0A@EA@CGraphicBase@@8			; CGraphicBase::`RTTI Base Class Descriptor at (0,-1,0,64)'
PUBLIC	??_R1HA@?0A@EA@?$CSingleton@VCSpeedTreeForestDirectX8@@@@8 ; CSingleton<CSpeedTreeForestDirectX8>::`RTTI Base Class Descriptor at (112,-1,0,64)'
PUBLIC	??_R0?AV?$CSingleton@VCSpeedTreeForestDirectX8@@@@@8 ; CSingleton<CSpeedTreeForestDirectX8> `RTTI Type Descriptor'
PUBLIC	??_R3?$CSingleton@VCSpeedTreeForestDirectX8@@@@8 ; CSingleton<CSpeedTreeForestDirectX8>::`RTTI Class Hierarchy Descriptor'
PUBLIC	??_R2?$CSingleton@VCSpeedTreeForestDirectX8@@@@8 ; CSingleton<CSpeedTreeForestDirectX8>::`RTTI Base Class Array'
PUBLIC	??_R1A@?0A@EA@?$CSingleton@VCSpeedTreeForestDirectX8@@@@8 ; CSingleton<CSpeedTreeForestDirectX8>::`RTTI Base Class Descriptor at (0,-1,0,64)'
PUBLIC	??_R4CSpeedTreeForestDirectX8@@6BCGraphicBase@@@ ; CSpeedTreeForestDirectX8::`RTTI Complete Object Locator'
PUBLIC	??_R4CSpeedTreeForestDirectX8@@6B?$CSingleton@VCSpeedTreeForestDirectX8@@@@@ ; CSpeedTreeForestDirectX8::`RTTI Complete Object Locator'
PUBLIC	??_R4?$CSingleton@VCSpeedTreeForestDirectX8@@@@6B@ ; CSingleton<CSpeedTreeForestDirectX8>::`RTTI Complete Object Locator'
PUBLIC	__real@3f000000
PUBLIC	__real@3f34fdf4
PUBLIC	__real@3f800000
PUBLIC	__real@be99999a
PUBLIC	__real@bf34fdf4
EXTRN	??3@YAXPAXI@Z:PROC				; operator delete
EXTRN	?SetLightState@CSpeedTreeRT@@SAXI_N@Z:PROC	; CSpeedTreeRT::SetLightState
EXTRN	?SetLightAttributes@CSpeedTreeRT@@SAXIPBM@Z:PROC ; CSpeedTreeRT::SetLightAttributes
EXTRN	?SetCamera@CSpeedTreeRT@@SAXPBM0@Z:PROC		; CSpeedTreeRT::SetCamera
EXTRN	?SetNumWindMatrices@CSpeedTreeRT@@SAXI@Z:PROC	; CSpeedTreeRT::SetNumWindMatrices
EXTRN	__imp__MessageBoxA@16:PROC
EXTRN	_D3DXMatrixTranspose@8:PROC
EXTRN	_D3DXMatrixMultiply@12:PROC
EXTRN	_D3DXAssembleShader@24:PROC
EXTRN	___stdio_common_vsprintf:PROC
EXTRN	??0CGraphicBase@@QAE@XZ:PROC			; CGraphicBase::CGraphicBase
EXTRN	??1CGraphicBase@@UAE@XZ:PROC			; CGraphicBase::~CGraphicBase
EXTRN	?isShow@CGraphicObjectInstance@@QAE_NXZ:PROC	; CGraphicObjectInstance::isShow
EXTRN	?SetVertexShaders@CSpeedTreeWrapper@@SAXKK@Z:PROC ; CSpeedTreeWrapper::SetVertexShaders
EXTRN	?SetupBranchForTreeType@CSpeedTreeWrapper@@QBEXXZ:PROC ; CSpeedTreeWrapper::SetupBranchForTreeType
EXTRN	?SetupFrondForTreeType@CSpeedTreeWrapper@@QBEXXZ:PROC ; CSpeedTreeWrapper::SetupFrondForTreeType
EXTRN	?SetupLeafForTreeType@CSpeedTreeWrapper@@QBEXXZ:PROC ; CSpeedTreeWrapper::SetupLeafForTreeType
EXTRN	?EndLeafForTreeType@CSpeedTreeWrapper@@QAEXXZ:PROC ; CSpeedTreeWrapper::EndLeafForTreeType
EXTRN	?RenderBranches@CSpeedTreeWrapper@@QBEXXZ:PROC	; CSpeedTreeWrapper::RenderBranches
EXTRN	?RenderFronds@CSpeedTreeWrapper@@QBEXXZ:PROC	; CSpeedTreeWrapper::RenderFronds
EXTRN	?RenderLeaves@CSpeedTreeWrapper@@QBEXXZ:PROC	; CSpeedTreeWrapper::RenderLeaves
EXTRN	?RenderBillboards@CSpeedTreeWrapper@@QBEXXZ:PROC ; CSpeedTreeWrapper::RenderBillboards
EXTRN	?GetInstances@CSpeedTreeWrapper@@QAEPAPAV1@AAI@Z:PROC ; CSpeedTreeWrapper::GetInstances
EXTRN	?Advance@CSpeedTreeWrapper@@QAEXXZ:PROC		; CSpeedTreeWrapper::Advance
EXTRN	??0CSpeedTreeForest@@QAE@XZ:PROC		; CSpeedTreeForest::CSpeedTreeForest
EXTRN	??1CSpeedTreeForest@@UAE@XZ:PROC		; CSpeedTreeForest::~CSpeedTreeForest
EXTRN	?UpdateSystem@CSpeedTreeForest@@QAEXM@Z:PROC	; CSpeedTreeForest::UpdateSystem
EXTRN	??_E?$CSingleton@VCSpeedTreeForestDirectX8@@@@UAEPAXI@Z:PROC ; CSingleton<CSpeedTreeForestDirectX8>::`vector deleting destructor'
EXTRN	??_ECSpeedTreeForestDirectX8@@UAEPAXI@Z:PROC	; CSpeedTreeForestDirectX8::`vector deleting destructor'
EXTRN	?GetCurrentSecond@CTimer@@QAEMXZ:PROC		; CTimer::GetCurrentSecond
EXTRN	?SaveRenderState@CStateManager@@QAEXW4_D3DRENDERSTATETYPE@@K@Z:PROC ; CStateManager::SaveRenderState
EXTRN	?RestoreRenderState@CStateManager@@QAEXW4_D3DRENDERSTATETYPE@@@Z:PROC ; CStateManager::RestoreRenderState
EXTRN	?SetRenderState@CStateManager@@QAEXW4_D3DRENDERSTATETYPE@@K@Z:PROC ; CStateManager::SetRenderState
EXTRN	?SetTextureStageState@CStateManager@@QAEXKW4_D3DTEXTURESTAGESTATETYPE@@K@Z:PROC ; CStateManager::SetTextureStageState
EXTRN	?SetVertexShader@CStateManager@@QAEXK@Z:PROC	; CStateManager::SetVertexShader
EXTRN	?SetVertexShaderConstant@CStateManager@@QAEXKPBXK@Z:PROC ; CStateManager::SetVertexShaderConstant
EXTRN	?GetRenderState@CStateManager@@QAEKW4_D3DRENDERSTATETYPE@@@Z:PROC ; CStateManager::GetRenderState
EXTRN	?GetCurrentCamera@CCameraManager@@QAEPAVCCamera@@XZ:PROC ; CCameraManager::GetCurrentCamera
EXTRN	@__security_check_cookie@4:PROC
EXTRN	___CxxFrameHandler3:PROC
EXTRN	??_7type_info@@6B@:QWORD			; type_info::`vftable'
EXTRN	?ms_matView@CGraphicBase@@1UD3DXMATRIX@@A:BYTE	; CGraphicBase::ms_matView
EXTRN	?ms_matProj@CGraphicBase@@1UD3DXMATRIX@@A:BYTE	; CGraphicBase::ms_matProj
EXTRN	___security_cookie:DWORD
EXTRN	__fltused:DWORD
;	COMDAT ?_OptionsStorage@?1??__local_stdio_printf_options@@9@4_KA
_BSS	SEGMENT
?_OptionsStorage@?1??__local_stdio_printf_options@@9@4_KA DQ 01H DUP (?) ; `__local_stdio_printf_options'::`2'::_OptionsStorage
_BSS	ENDS
;	COMDAT ?ms_singleton@?$CSingleton@VCSpeedTreeForestDirectX8@@@@0PAVCSpeedTreeForestDirectX8@@A
_BSS	SEGMENT
?ms_singleton@?$CSingleton@VCSpeedTreeForestDirectX8@@@@0PAVCSpeedTreeForestDirectX8@@A DD 01H DUP (?) ; CSingleton<CSpeedTreeForestDirectX8>::ms_singleton
_BSS	ENDS
;	COMDAT ?ms_singleton@?$CSingleton@VCTimer@@@@0PAVCTimer@@A
_BSS	SEGMENT
?ms_singleton@?$CSingleton@VCTimer@@@@0PAVCTimer@@A DD 01H DUP (?) ; CSingleton<CTimer>::ms_singleton
_BSS	ENDS
;	COMDAT ?ms_singleton@?$CSingleton@VCStateManager@@@@0PAVCStateManager@@A
_BSS	SEGMENT
?ms_singleton@?$CSingleton@VCStateManager@@@@0PAVCStateManager@@A DD 01H DUP (?) ; CSingleton<CStateManager>::ms_singleton
_BSS	ENDS
;	COMDAT ?ms_singleton@?$CSingleton@VCCameraManager@@@@0PAVCCameraManager@@A
_BSS	SEGMENT
?ms_singleton@?$CSingleton@VCCameraManager@@@@0PAVCCameraManager@@A DD 01H DUP (?) ; CSingleton<CCameraManager>::ms_singleton
_BSS	ENDS
;	COMDAT __real@bf34fdf4
CONST	SEGMENT
__real@bf34fdf4 DD 0bf34fdf4r			; -0.707
CONST	ENDS
;	COMDAT __real@be99999a
CONST	SEGMENT
__real@be99999a DD 0be99999ar			; -0.3
CONST	ENDS
;	COMDAT __real@3f800000
CONST	SEGMENT
__real@3f800000 DD 03f800000r			; 1
CONST	ENDS
;	COMDAT __real@3f34fdf4
CONST	SEGMENT
__real@3f34fdf4 DD 03f34fdf4r			; 0.707
CONST	ENDS
;	COMDAT __real@3f000000
CONST	SEGMENT
__real@3f000000 DD 03f000000r			; 0.5
CONST	ENDS
;	COMDAT ??_R4?$CSingleton@VCSpeedTreeForestDirectX8@@@@6B@
rdata$r	SEGMENT
??_R4?$CSingleton@VCSpeedTreeForestDirectX8@@@@6B@ DD 00H ; CSingleton<CSpeedTreeForestDirectX8>::`RTTI Complete Object Locator'
	DD	00H
	DD	00H
	DD	FLAT:??_R0?AV?$CSingleton@VCSpeedTreeForestDirectX8@@@@@8
	DD	FLAT:??_R3?$CSingleton@VCSpeedTreeForestDirectX8@@@@8
rdata$r	ENDS
;	COMDAT ??_R4CSpeedTreeForestDirectX8@@6B?$CSingleton@VCSpeedTreeForestDirectX8@@@@@
rdata$r	SEGMENT
??_R4CSpeedTreeForestDirectX8@@6B?$CSingleton@VCSpeedTreeForestDirectX8@@@@@ DD 00H ; CSpeedTreeForestDirectX8::`RTTI Complete Object Locator'
	DD	070H
	DD	00H
	DD	FLAT:??_R0?AVCSpeedTreeForestDirectX8@@@8
	DD	FLAT:??_R3CSpeedTreeForestDirectX8@@8
rdata$r	ENDS
;	COMDAT ??_R4CSpeedTreeForestDirectX8@@6BCGraphicBase@@@
rdata$r	SEGMENT
??_R4CSpeedTreeForestDirectX8@@6BCGraphicBase@@@ DD 00H	; CSpeedTreeForestDirectX8::`RTTI Complete Object Locator'
	DD	06cH
	DD	00H
	DD	FLAT:??_R0?AVCSpeedTreeForestDirectX8@@@8
	DD	FLAT:??_R3CSpeedTreeForestDirectX8@@8
rdata$r	ENDS
;	COMDAT ??_R1A@?0A@EA@?$CSingleton@VCSpeedTreeForestDirectX8@@@@8
rdata$r	SEGMENT
??_R1A@?0A@EA@?$CSingleton@VCSpeedTreeForestDirectX8@@@@8 DD FLAT:??_R0?AV?$CSingleton@VCSpeedTreeForestDirectX8@@@@@8 ; CSingleton<CSpeedTreeForestDirectX8>::`RTTI Base Class Descriptor at (0,-1,0,64)'
	DD	00H
	DD	00H
	DD	0ffffffffH
	DD	00H
	DD	040H
	DD	FLAT:??_R3?$CSingleton@VCSpeedTreeForestDirectX8@@@@8
rdata$r	ENDS
;	COMDAT ??_R2?$CSingleton@VCSpeedTreeForestDirectX8@@@@8
rdata$r	SEGMENT
??_R2?$CSingleton@VCSpeedTreeForestDirectX8@@@@8 DD FLAT:??_R1A@?0A@EA@?$CSingleton@VCSpeedTreeForestDirectX8@@@@8 ; CSingleton<CSpeedTreeForestDirectX8>::`RTTI Base Class Array'
rdata$r	ENDS
;	COMDAT ??_R3?$CSingleton@VCSpeedTreeForestDirectX8@@@@8
rdata$r	SEGMENT
??_R3?$CSingleton@VCSpeedTreeForestDirectX8@@@@8 DD 00H	; CSingleton<CSpeedTreeForestDirectX8>::`RTTI Class Hierarchy Descriptor'
	DD	00H
	DD	01H
	DD	FLAT:??_R2?$CSingleton@VCSpeedTreeForestDirectX8@@@@8
rdata$r	ENDS
;	COMDAT ??_R0?AV?$CSingleton@VCSpeedTreeForestDirectX8@@@@@8
data$rs	SEGMENT
??_R0?AV?$CSingleton@VCSpeedTreeForestDirectX8@@@@@8 DD FLAT:??_7type_info@@6B@ ; CSingleton<CSpeedTreeForestDirectX8> `RTTI Type Descriptor'
	DD	00H
	DB	'.?AV?$CSingleton@VCSpeedTreeForestDirectX8@@@@', 00H
data$rs	ENDS
;	COMDAT ??_R1HA@?0A@EA@?$CSingleton@VCSpeedTreeForestDirectX8@@@@8
rdata$r	SEGMENT
??_R1HA@?0A@EA@?$CSingleton@VCSpeedTreeForestDirectX8@@@@8 DD FLAT:??_R0?AV?$CSingleton@VCSpeedTreeForestDirectX8@@@@@8 ; CSingleton<CSpeedTreeForestDirectX8>::`RTTI Base Class Descriptor at (112,-1,0,64)'
	DD	00H
	DD	070H
	DD	0ffffffffH
	DD	00H
	DD	040H
	DD	FLAT:??_R3?$CSingleton@VCSpeedTreeForestDirectX8@@@@8
rdata$r	ENDS
;	COMDAT ??_R1A@?0A@EA@CGraphicBase@@8
rdata$r	SEGMENT
??_R1A@?0A@EA@CGraphicBase@@8 DD FLAT:??_R0?AVCGraphicBase@@@8 ; CGraphicBase::`RTTI Base Class Descriptor at (0,-1,0,64)'
	DD	00H
	DD	00H
	DD	0ffffffffH
	DD	00H
	DD	040H
	DD	FLAT:??_R3CGraphicBase@@8
rdata$r	ENDS
;	COMDAT ??_R2CGraphicBase@@8
rdata$r	SEGMENT
??_R2CGraphicBase@@8 DD FLAT:??_R1A@?0A@EA@CGraphicBase@@8 ; CGraphicBase::`RTTI Base Class Array'
rdata$r	ENDS
;	COMDAT ??_R3CGraphicBase@@8
rdata$r	SEGMENT
??_R3CGraphicBase@@8 DD 00H				; CGraphicBase::`RTTI Class Hierarchy Descriptor'
	DD	00H
	DD	01H
	DD	FLAT:??_R2CGraphicBase@@8
rdata$r	ENDS
;	COMDAT ??_R0?AVCGraphicBase@@@8
data$rs	SEGMENT
??_R0?AVCGraphicBase@@@8 DD FLAT:??_7type_info@@6B@	; CGraphicBase `RTTI Type Descriptor'
	DD	00H
	DB	'.?AVCGraphicBase@@', 00H
data$rs	ENDS
;	COMDAT ??_R1GM@?0A@EA@CGraphicBase@@8
rdata$r	SEGMENT
??_R1GM@?0A@EA@CGraphicBase@@8 DD FLAT:??_R0?AVCGraphicBase@@@8 ; CGraphicBase::`RTTI Base Class Descriptor at (108,-1,0,64)'
	DD	00H
	DD	06cH
	DD	0ffffffffH
	DD	00H
	DD	040H
	DD	FLAT:??_R3CGraphicBase@@8
rdata$r	ENDS
;	COMDAT ??_R2CSpeedTreeForest@@8
rdata$r	SEGMENT
??_R2CSpeedTreeForest@@8 DD FLAT:??_R1A@?0A@EA@CSpeedTreeForest@@8 ; CSpeedTreeForest::`RTTI Base Class Array'
rdata$r	ENDS
;	COMDAT ??_R3CSpeedTreeForest@@8
rdata$r	SEGMENT
??_R3CSpeedTreeForest@@8 DD 00H				; CSpeedTreeForest::`RTTI Class Hierarchy Descriptor'
	DD	00H
	DD	01H
	DD	FLAT:??_R2CSpeedTreeForest@@8
rdata$r	ENDS
;	COMDAT ??_R0?AVCSpeedTreeForest@@@8
data$rs	SEGMENT
??_R0?AVCSpeedTreeForest@@@8 DD FLAT:??_7type_info@@6B@	; CSpeedTreeForest `RTTI Type Descriptor'
	DD	00H
	DB	'.?AVCSpeedTreeForest@@', 00H
data$rs	ENDS
;	COMDAT ??_R1A@?0A@EA@CSpeedTreeForest@@8
rdata$r	SEGMENT
??_R1A@?0A@EA@CSpeedTreeForest@@8 DD FLAT:??_R0?AVCSpeedTreeForest@@@8 ; CSpeedTreeForest::`RTTI Base Class Descriptor at (0,-1,0,64)'
	DD	00H
	DD	00H
	DD	0ffffffffH
	DD	00H
	DD	040H
	DD	FLAT:??_R3CSpeedTreeForest@@8
rdata$r	ENDS
;	COMDAT ??_R1A@?0A@EA@CSpeedTreeForestDirectX8@@8
rdata$r	SEGMENT
??_R1A@?0A@EA@CSpeedTreeForestDirectX8@@8 DD FLAT:??_R0?AVCSpeedTreeForestDirectX8@@@8 ; CSpeedTreeForestDirectX8::`RTTI Base Class Descriptor at (0,-1,0,64)'
	DD	03H
	DD	00H
	DD	0ffffffffH
	DD	00H
	DD	040H
	DD	FLAT:??_R3CSpeedTreeForestDirectX8@@8
rdata$r	ENDS
;	COMDAT ??_R2CSpeedTreeForestDirectX8@@8
rdata$r	SEGMENT
??_R2CSpeedTreeForestDirectX8@@8 DD FLAT:??_R1A@?0A@EA@CSpeedTreeForestDirectX8@@8 ; CSpeedTreeForestDirectX8::`RTTI Base Class Array'
	DD	FLAT:??_R1A@?0A@EA@CSpeedTreeForest@@8
	DD	FLAT:??_R1GM@?0A@EA@CGraphicBase@@8
	DD	FLAT:??_R1HA@?0A@EA@?$CSingleton@VCSpeedTreeForestDirectX8@@@@8
rdata$r	ENDS
;	COMDAT ??_R3CSpeedTreeForestDirectX8@@8
rdata$r	SEGMENT
??_R3CSpeedTreeForestDirectX8@@8 DD 00H			; CSpeedTreeForestDirectX8::`RTTI Class Hierarchy Descriptor'
	DD	01H
	DD	04H
	DD	FLAT:??_R2CSpeedTreeForestDirectX8@@8
rdata$r	ENDS
;	COMDAT ??_R0?AVCSpeedTreeForestDirectX8@@@8
data$rs	SEGMENT
??_R0?AVCSpeedTreeForestDirectX8@@@8 DD FLAT:??_7type_info@@6B@ ; CSpeedTreeForestDirectX8 `RTTI Type Descriptor'
	DD	00H
	DB	'.?AVCSpeedTreeForestDirectX8@@', 00H
data$rs	ENDS
;	COMDAT ??_R4CSpeedTreeForestDirectX8@@6BCSpeedTreeForest@@@
rdata$r	SEGMENT
??_R4CSpeedTreeForestDirectX8@@6BCSpeedTreeForest@@@ DD 00H ; CSpeedTreeForestDirectX8::`RTTI Complete Object Locator'
	DD	00H
	DD	00H
	DD	FLAT:??_R0?AVCSpeedTreeForestDirectX8@@@8
	DD	FLAT:??_R3CSpeedTreeForestDirectX8@@8
rdata$r	ENDS
;	COMDAT ??_C@_0EI@ONOKBFD@Failed?5to?5assemble?5branch?5verte@
CONST	SEGMENT
??_C@_0EI@ONOKBFD@Failed?5to?5assemble?5branch?5verte@ DB 'Failed to asse'
	DB	'mble branch vertex shader.', 0aH, 'The error reported is [ %s'
	DB	' ].', 0aH, 00H				; `string'
CONST	ENDS
;	COMDAT ??_C@_0BE@MPNPNNCI@Vertex?5Shader?5Error@
CONST	SEGMENT
??_C@_0BE@MPNPNNCI@Vertex?5Shader?5Error@ DB 'Vertex Shader Error', 00H ; `string'
CONST	ENDS
;	COMDAT ??_C@_0CH@GFOKBLKL@Failed?5to?5create?5branch?5vertex?5@
CONST	SEGMENT
??_C@_0CH@GFOKBLKL@Failed?5to?5create?5branch?5vertex?5@ DB 'Failed to cr'
	DB	'eate branch vertex shader.', 00H		; `string'
CONST	ENDS
_DATA	SEGMENT
?D3DFVF_SPEEDTREE_BRANCH_VERTEX@@3KA DD 0242H		; D3DFVF_SPEEDTREE_BRANCH_VERTEX
?D3DFVF_SPEEDTREE_LEAF_VERTEX@@3KA DD 0142H		; D3DFVF_SPEEDTREE_LEAF_VERTEX
_DATA	ENDS
;	COMDAT ??_7CSpeedTreeForestDirectX8@@6B?$CSingleton@VCSpeedTreeForestDirectX8@@@@@
CONST	SEGMENT
??_7CSpeedTreeForestDirectX8@@6B?$CSingleton@VCSpeedTreeForestDirectX8@@@@@ DD FLAT:??_R4CSpeedTreeForestDirectX8@@6B?$CSingleton@VCSpeedTreeForestDirectX8@@@@@ ; CSpeedTreeForestDirectX8::`vftable'
	DD	FLAT:??_ECSpeedTreeForestDirectX8@@WHA@AEPAXI@Z
CONST	ENDS
;	COMDAT ??_7CSpeedTreeForestDirectX8@@6BCGraphicBase@@@
CONST	SEGMENT
??_7CSpeedTreeForestDirectX8@@6BCGraphicBase@@@ DD FLAT:??_R4CSpeedTreeForestDirectX8@@6BCGraphicBase@@@ ; CSpeedTreeForestDirectX8::`vftable'
	DD	FLAT:??_ECSpeedTreeForestDirectX8@@WGM@AEPAXI@Z
CONST	ENDS
;	COMDAT ??_7CSpeedTreeForestDirectX8@@6BCSpeedTreeForest@@@
CONST	SEGMENT
??_7CSpeedTreeForestDirectX8@@6BCSpeedTreeForest@@@ DD FLAT:??_R4CSpeedTreeForestDirectX8@@6BCSpeedTreeForest@@@ ; CSpeedTreeForestDirectX8::`vftable'
	DD	FLAT:??_ECSpeedTreeForestDirectX8@@UAEPAXI@Z
	DD	FLAT:?UploadWindMatrix@CSpeedTreeForestDirectX8@@UBEXIPBM@Z
	DD	FLAT:?Render@CSpeedTreeForestDirectX8@@UAEXK@Z
CONST	ENDS
;	COMDAT ??_7?$CSingleton@VCSpeedTreeForestDirectX8@@@@6B@
CONST	SEGMENT
??_7?$CSingleton@VCSpeedTreeForestDirectX8@@@@6B@ DD FLAT:??_R4?$CSingleton@VCSpeedTreeForestDirectX8@@@@6B@ ; CSingleton<CSpeedTreeForestDirectX8>::`vftable'
	DD	FLAT:??_E?$CSingleton@VCSpeedTreeForestDirectX8@@@@UAEPAXI@Z
CONST	ENDS
;	COMDAT xdata$x
xdata$x	SEGMENT
__unwindtable$??0CSpeedTreeForestDirectX8@@QAE@XZ DD 0ffffffffH
	DD	FLAT:__unwindfunclet$??0CSpeedTreeForestDirectX8@@QAE@XZ$0
__ehfuncinfo$??0CSpeedTreeForestDirectX8@@QAE@XZ DD 019930522H
	DD	01H
	DD	FLAT:__unwindtable$??0CSpeedTreeForestDirectX8@@QAE@XZ
	DD	2 DUP(00H)
	DD	2 DUP(00H)
	DD	00H
	DD	01H
xdata$x	ENDS
; Function compile flags: /Odspy
;	COMDAT ??_ECSpeedTreeForestDirectX8@@WHA@AEPAXI@Z
_TEXT	SEGMENT
??_ECSpeedTreeForestDirectX8@@WHA@AEPAXI@Z PROC		; [thunk]:CSpeedTreeForestDirectX8::`vector deleting destructor', COMDAT
  00000	83 e9 70	 sub	 ecx, 112		; 00000070H
  00003	e9 00 00 00 00	 jmp	 ??_ECSpeedTreeForestDirectX8@@UAEPAXI@Z
??_ECSpeedTreeForestDirectX8@@WHA@AEPAXI@Z ENDP		; [thunk]:CSpeedTreeForestDirectX8::`vector deleting destructor'
_TEXT	ENDS
; Function compile flags: /Odspy
;	COMDAT ??_ECSpeedTreeForestDirectX8@@WGM@AEPAXI@Z
_TEXT	SEGMENT
??_ECSpeedTreeForestDirectX8@@WGM@AEPAXI@Z PROC		; [thunk]:CSpeedTreeForestDirectX8::`vector deleting destructor', COMDAT
  00000	83 e9 6c	 sub	 ecx, 108		; 0000006cH
  00003	e9 00 00 00 00	 jmp	 ??_ECSpeedTreeForestDirectX8@@UAEPAXI@Z
??_ECSpeedTreeForestDirectX8@@WGM@AEPAXI@Z ENDP		; [thunk]:CSpeedTreeForestDirectX8::`vector deleting destructor'
_TEXT	ENDS
; Function compile flags: /Odspy
; File C:\Program Files (x86)\Microsoft Visual Studio\2019\Community\VC\Tools\MSVC\14.28.29333\include\xtree
;	COMDAT ??E?$_Tree_unchecked_const_iterator@V?$_Tree_val@U?$_Tree_simple_types@U?$pair@$$CBKPAVCSpeedTreeWrapper@@@std@@@std@@@std@@U_Iterator_base0@2@@std@@QAEAAV01@XZ
_TEXT	SEGMENT
$T1 = -16						; size = 4
__Pnode$ = -12						; size = 4
__Pnode$2 = -8						; size = 4
_this$ = -4						; size = 4
??E?$_Tree_unchecked_const_iterator@V?$_Tree_val@U?$_Tree_simple_types@U?$pair@$$CBKPAVCSpeedTreeWrapper@@@std@@@std@@@std@@U_Iterator_base0@2@@std@@QAEAAV01@XZ PROC ; std::_Tree_unchecked_const_iterator<std::_Tree_val<std::_Tree_simple_types<std::pair<unsigned long const ,CSpeedTreeWrapper *> > >,std::_Iterator_base0>::operator++, COMDAT
; _this$ = ecx

; 51   :     _Tree_unchecked_const_iterator& operator++() noexcept {

  00000	55		 push	 ebp
  00001	8b ec		 mov	 ebp, esp
  00003	83 ec 10	 sub	 esp, 16			; 00000010H
  00006	89 4d fc	 mov	 DWORD PTR _this$[ebp], ecx

; 52   :         if (_Ptr->_Right->_Isnil) { // climb looking for right subtree

  00009	8b 45 fc	 mov	 eax, DWORD PTR _this$[ebp]
  0000c	8b 00		 mov	 eax, DWORD PTR [eax]
  0000e	8b 40 08	 mov	 eax, DWORD PTR [eax+8]
  00011	0f be 40 0d	 movsx	 eax, BYTE PTR [eax+13]
  00015	85 c0		 test	 eax, eax
  00017	74 37		 je	 SHORT $LN4@operator
$LN2@operator:

; 53   :             _Nodeptr _Pnode;
; 54   :             while (!(_Pnode = _Ptr->_Parent)->_Isnil && _Ptr == _Pnode->_Right) {

  00019	8b 45 fc	 mov	 eax, DWORD PTR _this$[ebp]
  0001c	8b 00		 mov	 eax, DWORD PTR [eax]
  0001e	8b 40 04	 mov	 eax, DWORD PTR [eax+4]
  00021	89 45 f8	 mov	 DWORD PTR __Pnode$2[ebp], eax
  00024	8b 45 f8	 mov	 eax, DWORD PTR __Pnode$2[ebp]
  00027	0f be 40 0d	 movsx	 eax, BYTE PTR [eax+13]
  0002b	85 c0		 test	 eax, eax
  0002d	75 17		 jne	 SHORT $LN3@operator
  0002f	8b 45 fc	 mov	 eax, DWORD PTR _this$[ebp]
  00032	8b 4d f8	 mov	 ecx, DWORD PTR __Pnode$2[ebp]
  00035	8b 00		 mov	 eax, DWORD PTR [eax]
  00037	3b 41 08	 cmp	 eax, DWORD PTR [ecx+8]
  0003a	75 0a		 jne	 SHORT $LN3@operator

; 55   :                 _Ptr = _Pnode; // ==> parent while right subtree

  0003c	8b 45 fc	 mov	 eax, DWORD PTR _this$[ebp]
  0003f	8b 4d f8	 mov	 ecx, DWORD PTR __Pnode$2[ebp]
  00042	89 08		 mov	 DWORD PTR [eax], ecx

; 56   :             }

  00044	eb d3		 jmp	 SHORT $LN2@operator
$LN3@operator:

; 57   : 
; 58   :             _Ptr = _Pnode; // ==> parent (head if end())

  00046	8b 45 fc	 mov	 eax, DWORD PTR _this$[ebp]
  00049	8b 4d f8	 mov	 ecx, DWORD PTR __Pnode$2[ebp]
  0004c	89 08		 mov	 DWORD PTR [eax], ecx

; 59   :         } else {

  0004e	eb 30		 jmp	 SHORT $LN5@operator
$LN4@operator:

; 60   :             _Ptr = _Mytree::_Min(_Ptr->_Right); // ==> smallest of right subtree

  00050	8b 45 fc	 mov	 eax, DWORD PTR _this$[ebp]
  00053	8b 00		 mov	 eax, DWORD PTR [eax]
  00055	8b 40 08	 mov	 eax, DWORD PTR [eax+8]
  00058	89 45 f4	 mov	 DWORD PTR __Pnode$[ebp], eax
$LN8@operator:

; 451  :         while (!_Pnode->_Left->_Isnil) {

  0005b	8b 45 f4	 mov	 eax, DWORD PTR __Pnode$[ebp]
  0005e	8b 00		 mov	 eax, DWORD PTR [eax]
  00060	0f be 40 0d	 movsx	 eax, BYTE PTR [eax+13]
  00064	85 c0		 test	 eax, eax
  00066	75 0a		 jne	 SHORT $LN9@operator

; 452  :             _Pnode = _Pnode->_Left;

  00068	8b 45 f4	 mov	 eax, DWORD PTR __Pnode$[ebp]
  0006b	8b 00		 mov	 eax, DWORD PTR [eax]
  0006d	89 45 f4	 mov	 DWORD PTR __Pnode$[ebp], eax

; 453  :         }

  00070	eb e9		 jmp	 SHORT $LN8@operator
$LN9@operator:

; 454  : 
; 455  :         return _Pnode;

  00072	8b 45 f4	 mov	 eax, DWORD PTR __Pnode$[ebp]
  00075	89 45 f0	 mov	 DWORD PTR $T1[ebp], eax

; 60   :             _Ptr = _Mytree::_Min(_Ptr->_Right); // ==> smallest of right subtree

  00078	8b 45 fc	 mov	 eax, DWORD PTR _this$[ebp]
  0007b	8b 4d f0	 mov	 ecx, DWORD PTR $T1[ebp]
  0007e	89 08		 mov	 DWORD PTR [eax], ecx
$LN5@operator:

; 61   :         }
; 62   : 
; 63   :         return *this;

  00080	8b 45 fc	 mov	 eax, DWORD PTR _this$[ebp]

; 64   :     }

  00083	c9		 leave
  00084	c3		 ret	 0
??E?$_Tree_unchecked_const_iterator@V?$_Tree_val@U?$_Tree_simple_types@U?$pair@$$CBKPAVCSpeedTreeWrapper@@@std@@@std@@@std@@U_Iterator_base0@2@@std@@QAEAAV01@XZ ENDP ; std::_Tree_unchecked_const_iterator<std::_Tree_val<std::_Tree_simple_types<std::pair<unsigned long const ,CSpeedTreeWrapper *> > >,std::_Iterator_base0>::operator++
_TEXT	ENDS
; Function compile flags: /Odspy
; File D:\Metin2 Server Files\mainline\SRC_2014\Metin2Client\SpeedTreeLib\VertexShaders.h
;	COMDAT ?LoadLeafShader@@YAKPAUIDirect3DDevice8@@@Z
_TEXT	SEGMENT
_dwShader$ = -4						; size = 4
_pDx$ = 8						; size = 4
?LoadLeafShader@@YAKPAUIDirect3DDevice8@@@Z PROC	; LoadLeafShader, COMDAT

; 276  : {

  00000	55		 push	 ebp
  00001	8b ec		 mov	 ebp, esp
  00003	51		 push	 ecx

; 277  : 	DWORD dwShader = D3DFVF_SPEEDTREE_LEAF_VERTEX;

  00004	a1 00 00 00 00	 mov	 eax, DWORD PTR ?D3DFVF_SPEEDTREE_LEAF_VERTEX@@3KA
  00009	89 45 fc	 mov	 DWORD PTR _dwShader$[ebp], eax

; 278  : 
; 279  : 	#if defined WRAPPER_USE_GPU_LEAF_PLACEMENT || defined WRAPPER_USE_GPU_WIND
; 280  : 
; 281  : 		// leaf shader declaration
; 282  : 		DWORD pLeafShaderDecl[ ] = 
; 283  : 		{
; 284  : 				D3DVSD_STREAM(0),
; 285  : 				D3DVSD_REG(D3DVSDE_POSITION,        D3DVSDT_FLOAT3),
; 286  : 			#ifdef WRAPPER_USE_DYNAMIC_LIGHTING
; 287  : 				D3DVSD_REG(D3DVSDE_NORMAL,			D3DVSDT_FLOAT3),
; 288  : 			#else
; 289  : 				D3DVSD_REG(D3DVSDE_DIFFUSE,			D3DVSDT_D3DCOLOR),
; 290  : 			#endif
; 291  : 				D3DVSD_REG(D3DVSDE_TEXCOORD0,		D3DVSDT_FLOAT2),
; 292  : 				D3DVSD_REG(D3DVSDE_TEXCOORD2,		D3DVSDT_FLOAT4),
; 293  : 				D3DVSD_END( )
; 294  : 		};
; 295  : 
; 296  : 		// assemble shader
; 297  : 		LPD3DXBUFFER pCode, pError;
; 298  : 
; 299  : 		if (D3DXAssembleShader(g_achLeafVertexProgram, sizeof(g_achLeafVertexProgram) - 1, 0, NULL, &pCode, &pError) == D3D_OK)
; 300  : 		{
; 301  : 			if (pDx->CreateVertexShader(pLeafShaderDecl, (DWORD*) pCode->GetBufferPointer( ), &dwShader, 0) != D3D_OK)
; 302  : 			{
; 303  : 				Tracef("Failed to create leaf vertex shader.");
; 304  : 				/*
; 305  : 				char szError[1024];
; 306  : 				sprintf(szError, "Failed to create leaf vertex shader.");
; 307  : 				MessageBox(NULL, szError, "Vertex Shader Error", MB_ICONSTOP);
; 308  : 				*/
; 309  : 			}
; 310  : 		}
; 311  : 		else
; 312  : 		{
; 313  : 			Tracef("Failed to assemble leaf vertex shader. The error reported is [ %s ].\n", pError->GetBufferPointer( ));
; 314  : 			/*
; 315  : 			char szError[1024];
; 316  : 			sprintf(szError, "Failed to assemble leaf vertex shader. The error reported is [ %s ].\n", pError->GetBufferPointer( ));
; 317  : 			MessageBox(NULL, szError, "Vertex Shader Error", MB_ICONSTOP);
; 318  : 			*/
; 319  : 		}
; 320  : 
; 321  : 		if (pCode)
; 322  :     		pCode->Release( );
; 323  : 
; 324  : 	#else
; 325  : 
; 326  : 		dwShader = D3DFVF_SPEEDTREE_LEAF_VERTEX;

  0000c	a1 00 00 00 00	 mov	 eax, DWORD PTR ?D3DFVF_SPEEDTREE_LEAF_VERTEX@@3KA
  00011	89 45 fc	 mov	 DWORD PTR _dwShader$[ebp], eax

; 327  : 
; 328  : 	#endif
; 329  : 
; 330  : 	return dwShader;

  00014	8b 45 fc	 mov	 eax, DWORD PTR _dwShader$[ebp]

; 331  : }

  00017	c9		 leave
  00018	c3		 ret	 0
?LoadLeafShader@@YAKPAUIDirect3DDevice8@@@Z ENDP	; LoadLeafShader
_TEXT	ENDS
; Function compile flags: /Odspy
; File D:\Metin2 Server Files\mainline\SRC_2014\Metin2Client\SpeedTreeLib\VertexShaders.h
;	COMDAT ?LoadBranchShader@@YAKPAUIDirect3DDevice8@@@Z
_TEXT	SEGMENT
_dwShader$ = -128					; size = 4
_pError$ = -124						; size = 4
_pCode$ = -120						; size = 4
_pBranchShaderDecl$ = -116				; size = 24
_szError$1 = -92					; size = 1024
_szError$2 = 932					; size = 1024
__$ArrayPad$ = 1956					; size = 4
_pDx$ = 1968						; size = 4
?LoadBranchShader@@YAKPAUIDirect3DDevice8@@@Z PROC	; LoadBranchShader, COMDAT

; 130  : {

  00000	55		 push	 ebp
  00001	8d ac 24 58 f8
	ff ff		 lea	 ebp, DWORD PTR [esp-1960]
  00008	81 ec 28 08 00
	00		 sub	 esp, 2088		; 00000828H
  0000e	a1 00 00 00 00	 mov	 eax, DWORD PTR ___security_cookie
  00013	33 c5		 xor	 eax, ebp
  00015	89 85 a4 07 00
	00		 mov	 DWORD PTR __$ArrayPad$[ebp], eax

; 131  : 	#ifndef WRAPPER_USE_GPU_WIND
; 132  : 		return D3DFVF_SPEEDTREE_BRANCH_VERTEX;

  0001b	a1 00 00 00 00	 mov	 eax, DWORD PTR ?D3DFVF_SPEEDTREE_BRANCH_VERTEX@@3KA
  00020	e9 e3 00 00 00	 jmp	 $LN1@LoadBranch

; 133  : 	#endif
; 134  : 
; 135  : 	// branch shader declaration
; 136  :     DWORD pBranchShaderDecl[] = 
; 137  :     {
; 138  : 			D3DVSD_STREAM(0),

  00025	c7 45 8c 00 00
	00 20		 mov	 DWORD PTR _pBranchShaderDecl$[ebp], 536870912 ; 20000000H

; 139  : 			D3DVSD_REG(D3DVSDE_POSITION,        D3DVSDT_FLOAT3),

  0002c	c7 45 90 00 00
	02 40		 mov	 DWORD PTR _pBranchShaderDecl$[ebp+4], 1073872896 ; 40020000H

; 140  : 		#ifdef WRAPPER_USE_DYNAMIC_LIGHTING
; 141  : 			D3DVSD_REG(D3DVSDE_NORMAL,			D3DVSDT_FLOAT3),
; 142  : 		#else
; 143  : 			D3DVSD_REG(D3DVSDE_DIFFUSE,			D3DVSDT_D3DCOLOR),

  00033	c7 45 94 05 00
	04 40		 mov	 DWORD PTR _pBranchShaderDecl$[ebp+8], 1074003973 ; 40040005H

; 144  : 		#endif
; 145  : 			D3DVSD_REG(D3DVSDE_TEXCOORD0,		D3DVSDT_FLOAT2),

  0003a	c7 45 98 07 00
	01 40		 mov	 DWORD PTR _pBranchShaderDecl$[ebp+12], 1073807367 ; 40010007H

; 146  : 		#ifdef WRAPPER_RENDER_SELF_SHADOWS
; 147  : 			D3DVSD_REG(D3DVSDE_TEXCOORD1,		D3DVSDT_FLOAT2),

  00041	c7 45 9c 08 00
	01 40		 mov	 DWORD PTR _pBranchShaderDecl$[ebp+16], 1073807368 ; 40010008H

; 148  : 		#endif
; 149  : 		#ifdef WRAPPER_USE_GPU_WIND
; 150  : 			D3DVSD_REG(D3DVSDE_TEXCOORD2,		D3DVSDT_FLOAT2),
; 151  : 		#endif
; 152  : 			D3DVSD_END( )

  00048	83 4d a0 ff	 or	 DWORD PTR _pBranchShaderDecl$[ebp+20], -1

; 153  :     };
; 154  : 
; 155  :     // assemble shader
; 156  : 	DWORD dwShader;
; 157  : 	LPD3DXBUFFER pCode, pError;
; 158  : 
; 159  :     if (D3DXAssembleShader(g_achSimpleVertexProgram, sizeof(g_achSimpleVertexProgram) - 1, 0, NULL, &pCode, &pError) == D3D_OK)

  0004c	8d 45 84	 lea	 eax, DWORD PTR _pError$[ebp]
  0004f	50		 push	 eax
  00050	8d 45 88	 lea	 eax, DWORD PTR _pCode$[ebp]
  00053	50		 push	 eax
  00054	6a 00		 push	 0
  00056	6a 00		 push	 0
  00058	68 1d 01 00 00	 push	 285			; 0000011dH
  0005d	68 00 00 00 00	 push	 OFFSET ?g_achSimpleVertexProgram@@3QBDB
  00062	e8 00 00 00 00	 call	 _D3DXAssembleShader@24
  00067	85 c0		 test	 eax, eax
  00069	75 59		 jne	 SHORT $LN2@LoadBranch

; 160  : 	{
; 161  : 		if (pDx->CreateVertexShader(pBranchShaderDecl, (DWORD*) pCode->GetBufferPointer( ), &dwShader, 0) != D3D_OK)

  0006b	6a 00		 push	 0
  0006d	8d 45 80	 lea	 eax, DWORD PTR _dwShader$[ebp]
  00070	50		 push	 eax
  00071	8b 45 88	 mov	 eax, DWORD PTR _pCode$[ebp]
  00074	8b 00		 mov	 eax, DWORD PTR [eax]
  00076	ff 75 88	 push	 DWORD PTR _pCode$[ebp]
  00079	ff 50 0c	 call	 DWORD PTR [eax+12]
  0007c	50		 push	 eax
  0007d	8d 45 8c	 lea	 eax, DWORD PTR _pBranchShaderDecl$[ebp]
  00080	50		 push	 eax
  00081	8b 85 b0 07 00
	00		 mov	 eax, DWORD PTR _pDx$[ebp]
  00087	8b 00		 mov	 eax, DWORD PTR [eax]
  00089	ff b5 b0 07 00
	00		 push	 DWORD PTR _pDx$[ebp]
  0008f	ff 90 2c 01 00
	00		 call	 DWORD PTR [eax+300]
  00095	85 c0		 test	 eax, eax
  00097	74 29		 je	 SHORT $LN4@LoadBranch

; 162  : 		{
; 163  : 			char szError[1024];
; 164  : 			sprintf(szError, "Failed to create branch vertex shader.");

  00099	68 00 00 00 00	 push	 OFFSET ??_C@_0CH@GFOKBLKL@Failed?5to?5create?5branch?5vertex?5@
  0009e	8d 85 a4 03 00
	00		 lea	 eax, DWORD PTR _szError$2[ebp]
  000a4	50		 push	 eax
  000a5	e8 00 00 00 00	 call	 _sprintf
  000aa	59		 pop	 ecx
  000ab	59		 pop	 ecx

; 165  : 			MessageBox(NULL, szError, "Vertex Shader Error", MB_ICONSTOP);

  000ac	6a 10		 push	 16			; 00000010H
  000ae	68 00 00 00 00	 push	 OFFSET ??_C@_0BE@MPNPNNCI@Vertex?5Shader?5Error@
  000b3	8d 85 a4 03 00
	00		 lea	 eax, DWORD PTR _szError$2[ebp]
  000b9	50		 push	 eax
  000ba	6a 00		 push	 0
  000bc	ff 15 00 00 00
	00		 call	 DWORD PTR __imp__MessageBoxA@16
$LN4@LoadBranch:

; 166  : 		}
; 167  : 	}

  000c2	eb 30		 jmp	 SHORT $LN3@LoadBranch
$LN2@LoadBranch:

; 168  : 	else
; 169  :     {
; 170  :         char szError[1024];
; 171  : 	    sprintf(szError, "Failed to assemble branch vertex shader.\nThe error reported is [ %s ].\n", pError->GetBufferPointer( ));

  000c4	8b 45 84	 mov	 eax, DWORD PTR _pError$[ebp]
  000c7	8b 00		 mov	 eax, DWORD PTR [eax]
  000c9	ff 75 84	 push	 DWORD PTR _pError$[ebp]
  000cc	ff 50 0c	 call	 DWORD PTR [eax+12]
  000cf	50		 push	 eax
  000d0	68 00 00 00 00	 push	 OFFSET ??_C@_0EI@ONOKBFD@Failed?5to?5assemble?5branch?5verte@
  000d5	8d 45 a4	 lea	 eax, DWORD PTR _szError$1[ebp]
  000d8	50		 push	 eax
  000d9	e8 00 00 00 00	 call	 _sprintf
  000de	83 c4 0c	 add	 esp, 12			; 0000000cH

; 172  : 	    MessageBox(NULL, szError, "Vertex Shader Error", MB_ICONSTOP);

  000e1	6a 10		 push	 16			; 00000010H
  000e3	68 00 00 00 00	 push	 OFFSET ??_C@_0BE@MPNPNNCI@Vertex?5Shader?5Error@
  000e8	8d 45 a4	 lea	 eax, DWORD PTR _szError$1[ebp]
  000eb	50		 push	 eax
  000ec	6a 00		 push	 0
  000ee	ff 15 00 00 00
	00		 call	 DWORD PTR __imp__MessageBoxA@16
$LN3@LoadBranch:

; 173  :     }
; 174  : 
; 175  : 	if (pCode)

  000f4	83 7d 88 00	 cmp	 DWORD PTR _pCode$[ebp], 0
  000f8	74 0b		 je	 SHORT $LN5@LoadBranch

; 176  :     	pCode->Release();

  000fa	8b 45 88	 mov	 eax, DWORD PTR _pCode$[ebp]
  000fd	8b 00		 mov	 eax, DWORD PTR [eax]
  000ff	ff 75 88	 push	 DWORD PTR _pCode$[ebp]
  00102	ff 50 08	 call	 DWORD PTR [eax+8]
$LN5@LoadBranch:

; 177  : 
; 178  : 	return dwShader;

  00105	8b 45 80	 mov	 eax, DWORD PTR _dwShader$[ebp]
$LN1@LoadBranch:

; 179  : }

  00108	8b 8d a4 07 00
	00		 mov	 ecx, DWORD PTR __$ArrayPad$[ebp]
  0010e	33 cd		 xor	 ecx, ebp
  00110	e8 00 00 00 00	 call	 @__security_check_cookie@4
  00115	81 c5 a8 07 00
	00		 add	 ebp, 1960		; 000007a8H
  0011b	c9		 leave
  0011c	c3		 ret	 0
?LoadBranchShader@@YAKPAUIDirect3DDevice8@@@Z ENDP	; LoadBranchShader
_TEXT	ENDS
; Function compile flags: /Odspy
;	COMDAT ??_GCSpeedTreeForestDirectX8@@UAEPAXI@Z
_TEXT	SEGMENT
_this$ = -4						; size = 4
___flags$ = 8						; size = 4
??_GCSpeedTreeForestDirectX8@@UAEPAXI@Z PROC		; CSpeedTreeForestDirectX8::`scalar deleting destructor', COMDAT
; _this$ = ecx
  00000	55		 push	 ebp
  00001	8b ec		 mov	 ebp, esp
  00003	51		 push	 ecx
  00004	89 4d fc	 mov	 DWORD PTR _this$[ebp], ecx
  00007	8b 4d fc	 mov	 ecx, DWORD PTR _this$[ebp]
  0000a	e8 00 00 00 00	 call	 ??1CSpeedTreeForestDirectX8@@UAE@XZ ; CSpeedTreeForestDirectX8::~CSpeedTreeForestDirectX8
  0000f	8b 45 08	 mov	 eax, DWORD PTR ___flags$[ebp]
  00012	83 e0 01	 and	 eax, 1
  00015	74 0f		 je	 SHORT $LN2@scalar
  00017	68 80 00 00 00	 push	 128			; 00000080H
  0001c	ff 75 fc	 push	 DWORD PTR _this$[ebp]
  0001f	e8 00 00 00 00	 call	 ??3@YAXPAXI@Z		; operator delete
  00024	59		 pop	 ecx
  00025	59		 pop	 ecx
$LN2@scalar:
  00026	8b 45 fc	 mov	 eax, DWORD PTR _this$[ebp]
  00029	c9		 leave
  0002a	c2 04 00	 ret	 4
??_GCSpeedTreeForestDirectX8@@UAEPAXI@Z ENDP		; CSpeedTreeForestDirectX8::`scalar deleting destructor'
_TEXT	ENDS
; Function compile flags: /Odspy
; File D:\Metin2 Server Files\mainline\SRC_2014\Metin2Client\SpeedTreeLib\SpeedTreeForestDirectX8.cpp
;	COMDAT ?InitVertexShaders@CSpeedTreeForestDirectX8@@AAE_NXZ
_TEXT	SEGMENT
_this$ = -4						; size = 4
?InitVertexShaders@CSpeedTreeForestDirectX8@@AAE_NXZ PROC ; CSpeedTreeForestDirectX8::InitVertexShaders, COMDAT
; _this$ = ecx

; 64   : {

  00000	55		 push	 ebp
  00001	8b ec		 mov	 ebp, esp
  00003	51		 push	 ecx
  00004	53		 push	 ebx
  00005	56		 push	 esi
  00006	57		 push	 edi
  00007	89 4d fc	 mov	 DWORD PTR _this$[ebp], ecx

; 65   : 	NANOBEGIN

  0000a	eb		 DB	 -21			; ffffffebH
  0000b	03		 DB	 3
  0000c	d6		 DB	 -42			; ffffffd6H
  0000d	d7		 DB	 -41			; ffffffd7H
  0000e	01		 DB	 1
  0000f	8b 45 fc	 mov	 eax, DWORD PTR _this$[ebp]
  00012	83 78 78 00	 cmp	 DWORD PTR [eax+120], 0
  00016	75 12		 jne	 SHORT $LN2@InitVertex

; 66   : 	// load the vertex shaders
; 67   : 	if (!m_dwBranchVertexShader)
; 68   : 		m_dwBranchVertexShader = LoadBranchShader(m_pDx);

  00018	8b 45 fc	 mov	 eax, DWORD PTR _this$[ebp]
  0001b	ff 70 74	 push	 DWORD PTR [eax+116]
  0001e	e8 00 00 00 00	 call	 ?LoadBranchShader@@YAKPAUIDirect3DDevice8@@@Z ; LoadBranchShader
  00023	59		 pop	 ecx
  00024	8b 4d fc	 mov	 ecx, DWORD PTR _this$[ebp]
  00027	89 41 78	 mov	 DWORD PTR [ecx+120], eax
$LN2@InitVertex:

; 69   : 
; 70   : 	if (!m_dwLeafVertexShader)

  0002a	8b 45 fc	 mov	 eax, DWORD PTR _this$[ebp]
  0002d	83 78 7c 00	 cmp	 DWORD PTR [eax+124], 0
  00031	75 12		 jne	 SHORT $LN3@InitVertex

; 71   : 		m_dwLeafVertexShader = LoadLeafShader(m_pDx);

  00033	8b 45 fc	 mov	 eax, DWORD PTR _this$[ebp]
  00036	ff 70 74	 push	 DWORD PTR [eax+116]
  00039	e8 00 00 00 00	 call	 ?LoadLeafShader@@YAKPAUIDirect3DDevice8@@@Z ; LoadLeafShader
  0003e	59		 pop	 ecx
  0003f	8b 4d fc	 mov	 ecx, DWORD PTR _this$[ebp]
  00042	89 41 7c	 mov	 DWORD PTR [ecx+124], eax
$LN3@InitVertex:

; 72   : 
; 73   : 	if (m_dwBranchVertexShader && m_dwLeafVertexShader)

  00045	8b 45 fc	 mov	 eax, DWORD PTR _this$[ebp]
  00048	83 78 78 00	 cmp	 DWORD PTR [eax+120], 0
  0004c	74 20		 je	 SHORT $LN4@InitVertex
  0004e	8b 45 fc	 mov	 eax, DWORD PTR _this$[ebp]
  00051	83 78 7c 00	 cmp	 DWORD PTR [eax+124], 0
  00055	74 17		 je	 SHORT $LN4@InitVertex

; 74   : 	{
; 75   : 		CSpeedTreeWrapper::SetVertexShaders(m_dwBranchVertexShader, m_dwLeafVertexShader);

  00057	8b 45 fc	 mov	 eax, DWORD PTR _this$[ebp]
  0005a	ff 70 7c	 push	 DWORD PTR [eax+124]
  0005d	8b 45 fc	 mov	 eax, DWORD PTR _this$[ebp]
  00060	ff 70 78	 push	 DWORD PTR [eax+120]
  00063	e8 00 00 00 00	 call	 ?SetVertexShaders@CSpeedTreeWrapper@@SAXKK@Z ; CSpeedTreeWrapper::SetVertexShaders
  00068	59		 pop	 ecx
  00069	59		 pop	 ecx

; 76   : 		return true;

  0006a	b0 01		 mov	 al, 1
  0006c	eb 07		 jmp	 SHORT $LN1@InitVertex
$LN4@InitVertex:

; 77   : 	}
; 78   : 
; 79   : 	NANOEND

  0006e	eb		 DB	 -21			; ffffffebH
  0006f	03		 DB	 3
  00070	d6		 DB	 -42			; ffffffd6H
  00071	d7		 DB	 -41			; ffffffd7H
  00072	00		 DB	 0
  00073	32 c0		 xor	 al, al
$LN1@InitVertex:

; 80   : 	return false;
; 81   : }

  00075	5f		 pop	 edi
  00076	5e		 pop	 esi
  00077	5b		 pop	 ebx
  00078	c9		 leave
  00079	c3		 ret	 0
?InitVertexShaders@CSpeedTreeForestDirectX8@@AAE_NXZ ENDP ; CSpeedTreeForestDirectX8::InitVertexShaders
_TEXT	ENDS
; Function compile flags: /Odspy
; File D:\Metin2 Server Files\mainline\SRC_2014\Metin2Client\SpeedTreeLib\SpeedTreeForestDirectX8.cpp
;	COMDAT ?SetRenderingDevice@CSpeedTreeForestDirectX8@@QAE_NPAUIDirect3DDevice8@@@Z
_TEXT	SEGMENT
_this$ = -20						; size = 4
_afLight1$ = -16					; size = 64
_c_afLightSpecular$ = 48				; size = 16
_c_afLightAmbient$ = 64					; size = 16
_c_afLightDiffuse$ = 80					; size = 16
_c_afLightPosition$ = 96				; size = 16
__$ArrayPad$ = 112					; size = 4
_lpDevice$ = 124					; size = 4
?SetRenderingDevice@CSpeedTreeForestDirectX8@@QAE_NPAUIDirect3DDevice8@@@Z PROC ; CSpeedTreeForestDirectX8::SetRenderingDevice, COMDAT
; _this$ = ecx

; 84   : {

  00000	55		 push	 ebp
  00001	8d 6c 24 8c	 lea	 ebp, DWORD PTR [esp-116]
  00005	81 ec 88 00 00
	00		 sub	 esp, 136		; 00000088H
  0000b	a1 00 00 00 00	 mov	 eax, DWORD PTR ___security_cookie
  00010	33 c5		 xor	 eax, ebp
  00012	89 45 70	 mov	 DWORD PTR __$ArrayPad$[ebp], eax
  00015	89 4d ec	 mov	 DWORD PTR _this$[ebp], ecx

; 85   : 	m_pDx = lpDevice;

  00018	8b 45 ec	 mov	 eax, DWORD PTR _this$[ebp]
  0001b	8b 4d 7c	 mov	 ecx, DWORD PTR _lpDevice$[ebp]
  0001e	89 48 74	 mov	 DWORD PTR [eax+116], ecx

; 86   : 
; 87   : 	if (!InitVertexShaders())

  00021	8b 4d ec	 mov	 ecx, DWORD PTR _this$[ebp]
  00024	e8 00 00 00 00	 call	 ?InitVertexShaders@CSpeedTreeForestDirectX8@@AAE_NXZ ; CSpeedTreeForestDirectX8::InitVertexShaders
  00029	0f b6 c0	 movzx	 eax, al
  0002c	85 c0		 test	 eax, eax
  0002e	75 07		 jne	 SHORT $LN2@SetRenderi

; 88   : 		return false;

  00030	32 c0		 xor	 al, al
  00032	e9 e3 01 00 00	 jmp	 $LN1@SetRenderi
$LN2@SetRenderi:

; 89   : 
; 90   : 	const float c_afLightPosition[4] = { -0.707f, -0.300f, 0.707f, 0.0f };

  00037	f3 0f 10 05 00
	00 00 00	 movss	 xmm0, DWORD PTR __real@bf34fdf4
  0003f	f3 0f 11 45 60	 movss	 DWORD PTR _c_afLightPosition$[ebp], xmm0
  00044	f3 0f 10 05 00
	00 00 00	 movss	 xmm0, DWORD PTR __real@be99999a
  0004c	f3 0f 11 45 64	 movss	 DWORD PTR _c_afLightPosition$[ebp+4], xmm0
  00051	f3 0f 10 05 00
	00 00 00	 movss	 xmm0, DWORD PTR __real@3f34fdf4
  00059	f3 0f 11 45 68	 movss	 DWORD PTR _c_afLightPosition$[ebp+8], xmm0
  0005e	0f 57 c0	 xorps	 xmm0, xmm0
  00061	f3 0f 11 45 6c	 movss	 DWORD PTR _c_afLightPosition$[ebp+12], xmm0

; 91   : 	const float	c_afLightAmbient[4] = { 0.5f, 0.5f, 0.5f, 1.0f };

  00066	f3 0f 10 05 00
	00 00 00	 movss	 xmm0, DWORD PTR __real@3f000000
  0006e	f3 0f 11 45 40	 movss	 DWORD PTR _c_afLightAmbient$[ebp], xmm0
  00073	f3 0f 10 05 00
	00 00 00	 movss	 xmm0, DWORD PTR __real@3f000000
  0007b	f3 0f 11 45 44	 movss	 DWORD PTR _c_afLightAmbient$[ebp+4], xmm0
  00080	f3 0f 10 05 00
	00 00 00	 movss	 xmm0, DWORD PTR __real@3f000000
  00088	f3 0f 11 45 48	 movss	 DWORD PTR _c_afLightAmbient$[ebp+8], xmm0
  0008d	f3 0f 10 05 00
	00 00 00	 movss	 xmm0, DWORD PTR __real@3f800000
  00095	f3 0f 11 45 4c	 movss	 DWORD PTR _c_afLightAmbient$[ebp+12], xmm0

; 92   : 	const float	c_afLightDiffuse[4] = { 1.0f, 1.0f, 1.0f, 1.0f };

  0009a	f3 0f 10 05 00
	00 00 00	 movss	 xmm0, DWORD PTR __real@3f800000
  000a2	f3 0f 11 45 50	 movss	 DWORD PTR _c_afLightDiffuse$[ebp], xmm0
  000a7	f3 0f 10 05 00
	00 00 00	 movss	 xmm0, DWORD PTR __real@3f800000
  000af	f3 0f 11 45 54	 movss	 DWORD PTR _c_afLightDiffuse$[ebp+4], xmm0
  000b4	f3 0f 10 05 00
	00 00 00	 movss	 xmm0, DWORD PTR __real@3f800000
  000bc	f3 0f 11 45 58	 movss	 DWORD PTR _c_afLightDiffuse$[ebp+8], xmm0
  000c1	f3 0f 10 05 00
	00 00 00	 movss	 xmm0, DWORD PTR __real@3f800000
  000c9	f3 0f 11 45 5c	 movss	 DWORD PTR _c_afLightDiffuse$[ebp+12], xmm0

; 93   : 	const float	c_afLightSpecular[4] = { 1.0f, 1.0f, 1.0f, 1.0f };

  000ce	f3 0f 10 05 00
	00 00 00	 movss	 xmm0, DWORD PTR __real@3f800000
  000d6	f3 0f 11 45 30	 movss	 DWORD PTR _c_afLightSpecular$[ebp], xmm0
  000db	f3 0f 10 05 00
	00 00 00	 movss	 xmm0, DWORD PTR __real@3f800000
  000e3	f3 0f 11 45 34	 movss	 DWORD PTR _c_afLightSpecular$[ebp+4], xmm0
  000e8	f3 0f 10 05 00
	00 00 00	 movss	 xmm0, DWORD PTR __real@3f800000
  000f0	f3 0f 11 45 38	 movss	 DWORD PTR _c_afLightSpecular$[ebp+8], xmm0
  000f5	f3 0f 10 05 00
	00 00 00	 movss	 xmm0, DWORD PTR __real@3f800000
  000fd	f3 0f 11 45 3c	 movss	 DWORD PTR _c_afLightSpecular$[ebp+12], xmm0

; 94   : 
; 95   : 	float afLight1[] =
; 96   : 	{
; 97   : 		c_afLightPosition[0], c_afLightPosition[1], c_afLightPosition[2],	// pos

  00102	6a 04		 push	 4
  00104	58		 pop	 eax
  00105	6b c0 00	 imul	 eax, eax, 0
  00108	f3 0f 10 44 05
	60		 movss	 xmm0, DWORD PTR _c_afLightPosition$[ebp+eax]
  0010e	f3 0f 11 45 f0	 movss	 DWORD PTR _afLight1$[ebp], xmm0
  00113	6a 04		 push	 4
  00115	58		 pop	 eax
  00116	c1 e0 00	 shl	 eax, 0
  00119	f3 0f 10 44 05
	60		 movss	 xmm0, DWORD PTR _c_afLightPosition$[ebp+eax]
  0011f	f3 0f 11 45 f4	 movss	 DWORD PTR _afLight1$[ebp+4], xmm0
  00124	6a 04		 push	 4
  00126	58		 pop	 eax
  00127	d1 e0		 shl	 eax, 1
  00129	f3 0f 10 44 05
	60		 movss	 xmm0, DWORD PTR _c_afLightPosition$[ebp+eax]
  0012f	f3 0f 11 45 f8	 movss	 DWORD PTR _afLight1$[ebp+8], xmm0

; 98   : 		c_afLightDiffuse[0], c_afLightDiffuse[1], c_afLightDiffuse[2],		// diffuse

  00134	6a 04		 push	 4
  00136	58		 pop	 eax
  00137	6b c0 00	 imul	 eax, eax, 0
  0013a	f3 0f 10 44 05
	50		 movss	 xmm0, DWORD PTR _c_afLightDiffuse$[ebp+eax]
  00140	f3 0f 11 45 fc	 movss	 DWORD PTR _afLight1$[ebp+12], xmm0
  00145	6a 04		 push	 4
  00147	58		 pop	 eax
  00148	c1 e0 00	 shl	 eax, 0
  0014b	f3 0f 10 44 05
	50		 movss	 xmm0, DWORD PTR _c_afLightDiffuse$[ebp+eax]
  00151	f3 0f 11 45 00	 movss	 DWORD PTR _afLight1$[ebp+16], xmm0
  00156	6a 04		 push	 4
  00158	58		 pop	 eax
  00159	d1 e0		 shl	 eax, 1
  0015b	f3 0f 10 44 05
	50		 movss	 xmm0, DWORD PTR _c_afLightDiffuse$[ebp+eax]
  00161	f3 0f 11 45 04	 movss	 DWORD PTR _afLight1$[ebp+20], xmm0

; 99   : 		c_afLightAmbient[0], c_afLightAmbient[1], c_afLightAmbient[2],		// ambient

  00166	6a 04		 push	 4
  00168	58		 pop	 eax
  00169	6b c0 00	 imul	 eax, eax, 0
  0016c	f3 0f 10 44 05
	40		 movss	 xmm0, DWORD PTR _c_afLightAmbient$[ebp+eax]
  00172	f3 0f 11 45 08	 movss	 DWORD PTR _afLight1$[ebp+24], xmm0
  00177	6a 04		 push	 4
  00179	58		 pop	 eax
  0017a	c1 e0 00	 shl	 eax, 0
  0017d	f3 0f 10 44 05
	40		 movss	 xmm0, DWORD PTR _c_afLightAmbient$[ebp+eax]
  00183	f3 0f 11 45 0c	 movss	 DWORD PTR _afLight1$[ebp+28], xmm0
  00188	6a 04		 push	 4
  0018a	58		 pop	 eax
  0018b	d1 e0		 shl	 eax, 1
  0018d	f3 0f 10 44 05
	40		 movss	 xmm0, DWORD PTR _c_afLightAmbient$[ebp+eax]
  00193	f3 0f 11 45 10	 movss	 DWORD PTR _afLight1$[ebp+32], xmm0

; 100  : 		c_afLightSpecular[0], c_afLightSpecular[1], c_afLightSpecular[2],	// specular

  00198	6a 04		 push	 4
  0019a	58		 pop	 eax
  0019b	6b c0 00	 imul	 eax, eax, 0
  0019e	f3 0f 10 44 05
	30		 movss	 xmm0, DWORD PTR _c_afLightSpecular$[ebp+eax]
  001a4	f3 0f 11 45 14	 movss	 DWORD PTR _afLight1$[ebp+36], xmm0
  001a9	6a 04		 push	 4
  001ab	58		 pop	 eax
  001ac	c1 e0 00	 shl	 eax, 0
  001af	f3 0f 10 44 05
	30		 movss	 xmm0, DWORD PTR _c_afLightSpecular$[ebp+eax]
  001b5	f3 0f 11 45 18	 movss	 DWORD PTR _afLight1$[ebp+40], xmm0
  001ba	6a 04		 push	 4
  001bc	58		 pop	 eax
  001bd	d1 e0		 shl	 eax, 1
  001bf	f3 0f 10 44 05
	30		 movss	 xmm0, DWORD PTR _c_afLightSpecular$[ebp+eax]
  001c5	f3 0f 11 45 1c	 movss	 DWORD PTR _afLight1$[ebp+44], xmm0

; 101  : 		c_afLightPosition[3],												// directional flag

  001ca	6a 04		 push	 4
  001cc	58		 pop	 eax
  001cd	6b c0 03	 imul	 eax, eax, 3
  001d0	f3 0f 10 44 05
	60		 movss	 xmm0, DWORD PTR _c_afLightPosition$[ebp+eax]
  001d6	f3 0f 11 45 20	 movss	 DWORD PTR _afLight1$[ebp+48], xmm0

; 102  : 		1.0f, 0.0f, 0.0f													// attenuation (constant, linear, quadratic)

  001db	f3 0f 10 05 00
	00 00 00	 movss	 xmm0, DWORD PTR __real@3f800000
  001e3	f3 0f 11 45 24	 movss	 DWORD PTR _afLight1$[ebp+52], xmm0
  001e8	0f 57 c0	 xorps	 xmm0, xmm0
  001eb	f3 0f 11 45 28	 movss	 DWORD PTR _afLight1$[ebp+56], xmm0
  001f0	0f 57 c0	 xorps	 xmm0, xmm0
  001f3	f3 0f 11 45 2c	 movss	 DWORD PTR _afLight1$[ebp+60], xmm0

; 103  : 	};
; 104  : 
; 105  : 	CSpeedTreeRT::SetNumWindMatrices(c_nNumWindMatrices);

  001f8	6a 04		 push	 4
  001fa	e8 00 00 00 00	 call	 ?SetNumWindMatrices@CSpeedTreeRT@@SAXI@Z ; CSpeedTreeRT::SetNumWindMatrices
  001ff	59		 pop	 ecx

; 106  : 
; 107  : 	CSpeedTreeRT::SetLightAttributes(0, afLight1);	

  00200	8d 45 f0	 lea	 eax, DWORD PTR _afLight1$[ebp]
  00203	50		 push	 eax
  00204	6a 00		 push	 0
  00206	e8 00 00 00 00	 call	 ?SetLightAttributes@CSpeedTreeRT@@SAXIPBM@Z ; CSpeedTreeRT::SetLightAttributes
  0020b	59		 pop	 ecx
  0020c	59		 pop	 ecx

; 108  : 	CSpeedTreeRT::SetLightState(0, true);

  0020d	6a 01		 push	 1
  0020f	6a 00		 push	 0
  00211	e8 00 00 00 00	 call	 ?SetLightState@CSpeedTreeRT@@SAXI_N@Z ; CSpeedTreeRT::SetLightState
  00216	59		 pop	 ecx
  00217	59		 pop	 ecx

; 109  : 	return true;

  00218	b0 01		 mov	 al, 1
$LN1@SetRenderi:

; 110  : }

  0021a	8b 4d 70	 mov	 ecx, DWORD PTR __$ArrayPad$[ebp]
  0021d	33 cd		 xor	 ecx, ebp
  0021f	e8 00 00 00 00	 call	 @__security_check_cookie@4
  00224	83 c5 74	 add	 ebp, 116		; 00000074H
  00227	c9		 leave
  00228	c2 04 00	 ret	 4
?SetRenderingDevice@CSpeedTreeForestDirectX8@@QAE_NPAUIDirect3DDevice8@@@Z ENDP ; CSpeedTreeForestDirectX8::SetRenderingDevice
_TEXT	ENDS
; Function compile flags: /Odspy
; File D:\Metin2 Server Files\mainline\SRC_2014\Metin2Client\SpeedTreeLib\SpeedTreeForestDirectX8.cpp
; File D:\Metin2 Server Files\mainline\SRC_2014\Metin2Client\eterbase\Singleton.h
; File D:\Metin2 Server Files\mainline\SRC_2014\Metin2Client\SpeedTreeLib\SpeedTreeForestDirectX8.cpp
; File D:\Metin2 Server Files\mainline\SRC_2014\Metin2Client\eterbase\Singleton.h
; File D:\Metin2 Server Files\mainline\SRC_2014\Metin2Client\SpeedTreeLib\SpeedTreeForestDirectX8.cpp
; File D:\Metin2 Server Files\mainline\SRC_2014\Metin2Client\eterlib\Camera.h
; File D:\Metin2 Server Files\mainline\SRC_2014\Metin2Client\SpeedTreeLib\SpeedTreeForestDirectX8.cpp
; File D:\Metin2 Server Files\mainline\SRC_2014\Metin2Client\eterbase\Singleton.h
; File D:\Metin2 Server Files\mainline\SRC_2014\Metin2Client\SpeedTreeLib\SpeedTreeForestDirectX8.cpp
; File D:\Metin2 Server Files\mainline\SRC_2014\Metin2Client\eterbase\Singleton.h
; File D:\Metin2 Server Files\mainline\SRC_2014\Metin2Client\SpeedTreeLib\SpeedTreeForestDirectX8.cpp
; File D:\Metin2 Server Files\mainline\SRC_2014\Metin2Client\eterbase\Singleton.h
; File D:\Metin2 Server Files\mainline\SRC_2014\Metin2Client\SpeedTreeLib\SpeedTreeForestDirectX8.cpp
; File C:\Program Files (x86)\Microsoft Visual Studio\2019\Community\VC\Tools\MSVC\14.28.29333\include\xtree
; File D:\Metin2 Server Files\mainline\SRC_2014\Metin2Client\SpeedTreeLib\SpeedTreeForestDirectX8.cpp
; File C:\Program Files (x86)\Microsoft Visual Studio\2019\Community\VC\Tools\MSVC\14.28.29333\include\xtree
; File D:\Metin2 Server Files\mainline\SRC_2014\Metin2Client\SpeedTreeLib\SpeedTreeForestDirectX8.cpp
; File C:\Program Files (x86)\Microsoft Visual Studio\2019\Community\VC\Tools\MSVC\14.28.29333\include\xtree
; File C:\Program Files (x86)\Microsoft Visual Studio\2019\Community\VC\Tools\MSVC\14.28.29333\include\xstddef
; File C:\Program Files (x86)\Microsoft Visual Studio\2019\Community\VC\Tools\MSVC\14.28.29333\include\xutility
; File C:\Program Files (x86)\Microsoft Visual Studio\2019\Community\VC\Tools\MSVC\14.28.29333\include\xtree
; File D:\Metin2 Server Files\mainline\SRC_2014\Metin2Client\SpeedTreeLib\SpeedTreeForestDirectX8.cpp
; File D:\Metin2 Server Files\mainline\SRC_2014\Metin2Client\eterbase\Singleton.h
; File D:\Metin2 Server Files\mainline\SRC_2014\Metin2Client\SpeedTreeLib\SpeedTreeForestDirectX8.cpp
; File C:\Program Files (x86)\Microsoft Visual Studio\2019\Community\VC\Tools\MSVC\14.28.29333\include\xtree
; File C:\Program Files (x86)\Microsoft Visual Studio\2019\Community\VC\Tools\MSVC\14.28.29333\include\xstddef
; File C:\Program Files (x86)\Microsoft Visual Studio\2019\Community\VC\Tools\MSVC\14.28.29333\include\xtree
; File D:\Metin2 Server Files\mainline\SRC_2014\Metin2Client\SpeedTreeLib\SpeedTreeForestDirectX8.cpp
; File C:\Program Files (x86)\Microsoft Visual Studio\2019\Community\VC\Tools\MSVC\14.28.29333\include\xtree
; File C:\Program Files (x86)\Microsoft Visual Studio\2019\Community\VC\Tools\MSVC\14.28.29333\include\xstddef
; File C:\Program Files (x86)\Microsoft Visual Studio\2019\Community\VC\Tools\MSVC\14.28.29333\include\xtree
; File D:\Metin2 Server Files\mainline\SRC_2014\Metin2Client\SpeedTreeLib\SpeedTreeForestDirectX8.cpp
; File C:\Program Files (x86)\Microsoft Visual Studio\2019\Community\VC\Tools\MSVC\14.28.29333\include\xtree
; File C:\Program Files (x86)\Microsoft Visual Studio\2019\Community\VC\Tools\MSVC\14.28.29333\include\xstddef
; File C:\Program Files (x86)\Microsoft Visual Studio\2019\Community\VC\Tools\MSVC\14.28.29333\include\xutility
; File C:\Program Files (x86)\Microsoft Visual Studio\2019\Community\VC\Tools\MSVC\14.28.29333\include\xtree
; File D:\Metin2 Server Files\mainline\SRC_2014\Metin2Client\SpeedTreeLib\SpeedTreeForestDirectX8.cpp
; File C:\Program Files (x86)\Microsoft Visual Studio\2019\Community\VC\Tools\MSVC\14.28.29333\include\xtree
; File C:\Program Files (x86)\Microsoft Visual Studio\2019\Community\VC\Tools\MSVC\14.28.29333\include\xstddef
; File C:\Program Files (x86)\Microsoft Visual Studio\2019\Community\VC\Tools\MSVC\14.28.29333\include\xtree
; File D:\Metin2 Server Files\mainline\SRC_2014\Metin2Client\SpeedTreeLib\SpeedTreeForestDirectX8.cpp
; File C:\Program Files (x86)\Microsoft Visual Studio\2019\Community\VC\Tools\MSVC\14.28.29333\include\xtree
; File C:\Program Files (x86)\Microsoft Visual Studio\2019\Community\VC\Tools\MSVC\14.28.29333\include\xstddef
; File C:\Program Files (x86)\Microsoft Visual Studio\2019\Community\VC\Tools\MSVC\14.28.29333\include\xtree
; File D:\Metin2 Server Files\mainline\SRC_2014\Metin2Client\SpeedTreeLib\SpeedTreeForestDirectX8.cpp
; File C:\Program Files (x86)\Microsoft Visual Studio\2019\Community\VC\Tools\MSVC\14.28.29333\include\xtree
; File C:\Program Files (x86)\Microsoft Visual Studio\2019\Community\VC\Tools\MSVC\14.28.29333\include\xstddef
; File C:\Program Files (x86)\Microsoft Visual Studio\2019\Community\VC\Tools\MSVC\14.28.29333\include\xutility
; File C:\Program Files (x86)\Microsoft Visual Studio\2019\Community\VC\Tools\MSVC\14.28.29333\include\xtree
; File D:\Metin2 Server Files\mainline\SRC_2014\Metin2Client\SpeedTreeLib\SpeedTreeForestDirectX8.cpp
; File D:\Metin2 Server Files\mainline\SRC_2014\Metin2Client\eterbase\Singleton.h
; File D:\Metin2 Server Files\mainline\SRC_2014\Metin2Client\SpeedTreeLib\SpeedTreeForestDirectX8.cpp
; File C:\Program Files (x86)\Microsoft Visual Studio\2019\Community\VC\Tools\MSVC\14.28.29333\include\xtree
; File C:\Program Files (x86)\Microsoft Visual Studio\2019\Community\VC\Tools\MSVC\14.28.29333\include\xstddef
; File C:\Program Files (x86)\Microsoft Visual Studio\2019\Community\VC\Tools\MSVC\14.28.29333\include\xtree
; File D:\Metin2 Server Files\mainline\SRC_2014\Metin2Client\SpeedTreeLib\SpeedTreeForestDirectX8.cpp
; File C:\Program Files (x86)\Microsoft Visual Studio\2019\Community\VC\Tools\MSVC\14.28.29333\include\xtree
; File C:\Program Files (x86)\Microsoft Visual Studio\2019\Community\VC\Tools\MSVC\14.28.29333\include\xstddef
; File C:\Program Files (x86)\Microsoft Visual Studio\2019\Community\VC\Tools\MSVC\14.28.29333\include\xtree
; File D:\Metin2 Server Files\mainline\SRC_2014\Metin2Client\SpeedTreeLib\SpeedTreeForestDirectX8.cpp
; File C:\Program Files (x86)\Microsoft Visual Studio\2019\Community\VC\Tools\MSVC\14.28.29333\include\xtree
; File C:\Program Files (x86)\Microsoft Visual Studio\2019\Community\VC\Tools\MSVC\14.28.29333\include\xstddef
; File C:\Program Files (x86)\Microsoft Visual Studio\2019\Community\VC\Tools\MSVC\14.28.29333\include\xutility
; File C:\Program Files (x86)\Microsoft Visual Studio\2019\Community\VC\Tools\MSVC\14.28.29333\include\xtree
; File D:\Metin2 Server Files\mainline\SRC_2014\Metin2Client\SpeedTreeLib\SpeedTreeForestDirectX8.cpp
; File C:\Program Files (x86)\Microsoft Visual Studio\2019\Community\VC\Tools\MSVC\14.28.29333\include\xtree
; File C:\Program Files (x86)\Microsoft Visual Studio\2019\Community\VC\Tools\MSVC\14.28.29333\include\xstddef
; File C:\Program Files (x86)\Microsoft Visual Studio\2019\Community\VC\Tools\MSVC\14.28.29333\include\xtree
; File D:\Metin2 Server Files\mainline\SRC_2014\Metin2Client\SpeedTreeLib\SpeedTreeForestDirectX8.cpp
; File C:\Program Files (x86)\Microsoft Visual Studio\2019\Community\VC\Tools\MSVC\14.28.29333\include\xtree
; File C:\Program Files (x86)\Microsoft Visual Studio\2019\Community\VC\Tools\MSVC\14.28.29333\include\xstddef
; File C:\Program Files (x86)\Microsoft Visual Studio\2019\Community\VC\Tools\MSVC\14.28.29333\include\xutility
; File C:\Program Files (x86)\Microsoft Visual Studio\2019\Community\VC\Tools\MSVC\14.28.29333\include\xtree
; File D:\Metin2 Server Files\mainline\SRC_2014\Metin2Client\SpeedTreeLib\SpeedTreeForestDirectX8.cpp
; File C:\Program Files (x86)\Microsoft Visual Studio\2019\Community\VC\Tools\MSVC\14.28.29333\include\xtree
; File C:\Program Files (x86)\Microsoft Visual Studio\2019\Community\VC\Tools\MSVC\14.28.29333\include\xstddef
; File C:\Program Files (x86)\Microsoft Visual Studio\2019\Community\VC\Tools\MSVC\14.28.29333\include\xtree
; File D:\Metin2 Server Files\mainline\SRC_2014\Metin2Client\SpeedTreeLib\SpeedTreeForestDirectX8.cpp
; File C:\Program Files (x86)\Microsoft Visual Studio\2019\Community\VC\Tools\MSVC\14.28.29333\include\xtree
; File C:\Program Files (x86)\Microsoft Visual Studio\2019\Community\VC\Tools\MSVC\14.28.29333\include\xstddef
; File C:\Program Files (x86)\Microsoft Visual Studio\2019\Community\VC\Tools\MSVC\14.28.29333\include\xtree
; File D:\Metin2 Server Files\mainline\SRC_2014\Metin2Client\SpeedTreeLib\SpeedTreeForestDirectX8.cpp
; File C:\Program Files (x86)\Microsoft Visual Studio\2019\Community\VC\Tools\MSVC\14.28.29333\include\xtree
; File C:\Program Files (x86)\Microsoft Visual Studio\2019\Community\VC\Tools\MSVC\14.28.29333\include\xstddef
; File C:\Program Files (x86)\Microsoft Visual Studio\2019\Community\VC\Tools\MSVC\14.28.29333\include\xutility
; File C:\Program Files (x86)\Microsoft Visual Studio\2019\Community\VC\Tools\MSVC\14.28.29333\include\xtree
; File D:\Metin2 Server Files\mainline\SRC_2014\Metin2Client\SpeedTreeLib\SpeedTreeForestDirectX8.cpp
;	COMDAT ?Render@CSpeedTreeForestDirectX8@@UAEXK@Z
_TEXT	SEGMENT
$T1 = -444						; size = 4
$T2 = -440						; size = 4
_dwFogVertexMode$ = -436				; size = 4
_dwColorVertexState$ = -432				; size = 4
_dwLightState$ = -428					; size = 4
$T3 = -424						; size = 4
$T4 = -420						; size = 4
$T5 = -416						; size = 4
$T6 = -412						; size = 4
$T7 = -408						; size = 4
$T8 = -404						; size = 4
$T9 = -400						; size = 4
__Tmp$10 = -396						; size = 4
$T11 = -392						; size = 4
$T12 = -388						; size = 4
___param0$ = -384					; size = 4
__Scary$13 = -380					; size = 4
$T14 = -376						; size = 4
$T15 = -372						; size = 4
$T16 = -368						; size = 4
___param0$ = -364					; size = 4
__Scary$17 = -360					; size = 4
$T18 = -356						; size = 4
$T19 = -352						; size = 4
$T20 = -348						; size = 4
$T21 = -344						; size = 4
$T22 = -340						; size = 4
$T23 = -336						; size = 4
$T24 = -332						; size = 4
$T25 = -328						; size = 4
__Tmp$26 = -324						; size = 4
$T27 = -320						; size = 4
$T28 = -316						; size = 4
___param0$ = -312					; size = 4
__Scary$29 = -308					; size = 4
$T30 = -304						; size = 4
$T31 = -300						; size = 4
$T32 = -296						; size = 4
$T33 = -292						; size = 4
$T34 = -288						; size = 4
$T35 = -284						; size = 4
$T36 = -280						; size = 4
$T37 = -276						; size = 4
__Tmp$38 = -272						; size = 4
$T39 = -268						; size = 4
$T40 = -264						; size = 4
___param0$ = -260					; size = 4
__Scary$41 = -256					; size = 4
$T42 = -252						; size = 4
$T43 = -248						; size = 4
$T44 = -244						; size = 4
___param0$ = -240					; size = 4
__Scary$45 = -236					; size = 4
$T46 = -232						; size = 4
$T47 = -228						; size = 4
$T48 = -224						; size = 4
$T49 = -220						; size = 4
$T50 = -216						; size = 4
$T51 = -212						; size = 4
$T52 = -208						; size = 4
$T53 = -204						; size = 4
$T54 = -200						; size = 4
__Tmp$55 = -196						; size = 4
$T56 = -192						; size = 4
$T57 = -188						; size = 4
___param0$ = -184					; size = 4
__Scary$58 = -180					; size = 4
$T59 = -176						; size = 4
$T60 = -172						; size = 4
$T61 = -168						; size = 4
___param0$ = -164					; size = 4
__Scary$62 = -160					; size = 4
$T63 = -156						; size = 4
$T64 = -152						; size = 4
$T65 = -148						; size = 4
$T66 = -144						; size = 4
$T67 = -140						; size = 4
$T68 = -136						; size = 4
$T69 = -132						; size = 4
$T70 = -128						; size = 4
__Tmp$71 = -124						; size = 4
$T72 = -120						; size = 4
$T73 = -116						; size = 4
___param0$ = -112					; size = 4
__Scary$74 = -108					; size = 4
$T75 = -104						; size = 4
$T76 = -100						; size = 4
$T77 = -96						; size = 4
___param0$ = -92					; size = 4
__Scary$78 = -88					; size = 4
$T79 = -84						; size = 4
$T80 = -80						; size = 4
_ppInstances$81 = -76					; size = 4
_pMainTree$82 = -72					; size = 4
$T83 = -68						; size = 4
$T84 = -64						; size = 4
$T85 = -60						; size = 4
$T86 = -56						; size = 4
$T87 = -52						; size = 4
$T88 = -48						; size = 4
$T89 = -44						; size = 4
__Tmp$90 = -40						; size = 4
__Right$ = -36						; size = 4
$T91 = -32						; size = 4
$T92 = -28						; size = 4
$T93 = -24						; size = 4
_this$ = -20						; size = 4
$T94 = -16						; size = 4
$T95 = -12						; size = 4
_ppInstances$96 = -8					; size = 4
_pMainTree$97 = -4					; size = 4
tv1235 = 0						; size = 4
tv1259 = 4						; size = 4
tv1120 = 8						; size = 4
tv1149 = 12						; size = 4
_ppInstances$98 = 16					; size = 4
_pMainTree$99 = 20					; size = 4
tv1068 = 24						; size = 4
tv1092 = 28						; size = 4
_ppInstances$100 = 32					; size = 4
_pMainTree$101 = 36					; size = 4
tv958 = 40						; size = 4
tv982 = 44						; size = 4
_ppInstances$102 = 48					; size = 4
_pMainTree$103 = 52					; size = 4
tv880 = 56						; size = 4
tv904 = 60						; size = 4
tv763 = 64						; size = 4
tv795 = 68						; size = 4
_i$104 = 72						; size = 4
_i$105 = 76						; size = 4
_i$106 = 80						; size = 4
_i$107 = 84						; size = 4
_i$108 = 88						; size = 4
$T109 = 92						; size = 1
$T110 = 93						; size = 1
$T111 = 94						; size = 1
$T112 = 95						; size = 1
$T113 = 96						; size = 1
$T114 = 97						; size = 1
$T115 = 98						; size = 1
$T116 = 99						; size = 1
$T117 = 100						; size = 1
$T118 = 101						; size = 1
$T119 = 102						; size = 1
$T120 = 103						; size = 1
_uiCount$ = 104						; size = 4
_this$ = 108						; size = 4
_itor$ = 112						; size = 4
_ulRenderBitVector$ = 124				; size = 4
?Render@CSpeedTreeForestDirectX8@@UAEXK@Z PROC		; CSpeedTreeForestDirectX8::Render, COMDAT
; _this$ = ecx

; 143  : {

  00000	55		 push	 ebp
  00001	8d 6c 24 8c	 lea	 ebp, DWORD PTR [esp-116]
  00005	81 ec 30 02 00
	00		 sub	 esp, 560		; 00000230H
  0000b	89 4d 6c	 mov	 DWORD PTR _this$[ebp], ecx
; File D:\Metin2 Server Files\mainline\SRC_2014\Metin2Client\eterbase\Singleton.h

; 27   : 		return (*ms_singleton);

  0000e	a1 00 00 00 00	 mov	 eax, DWORD PTR ?ms_singleton@?$CSingleton@VCTimer@@@@0PAVCTimer@@A ; CSingleton<CTimer>::ms_singleton
  00013	89 45 f4	 mov	 DWORD PTR $T95[ebp], eax
; File D:\Metin2 Server Files\mainline\SRC_2014\Metin2Client\SpeedTreeLib\SpeedTreeForestDirectX8.cpp

; 144  : 	UpdateSystem(CTimer::Instance().GetCurrentSecond());

  00016	8b 4d f4	 mov	 ecx, DWORD PTR $T95[ebp]
  00019	e8 00 00 00 00	 call	 ?GetCurrentSecond@CTimer@@QAEMXZ ; CTimer::GetCurrentSecond
  0001e	51		 push	 ecx
  0001f	d9 1c 24	 fstp	 DWORD PTR [esp]
  00022	8b 4d 6c	 mov	 ecx, DWORD PTR _this$[ebp]
  00025	e8 00 00 00 00	 call	 ?UpdateSystem@CSpeedTreeForest@@QAEXM@Z ; CSpeedTreeForest::UpdateSystem

; 145  : 
; 146  : 	if (m_pMainTreeMap.empty())

  0002a	8b 4d 6c	 mov	 ecx, DWORD PTR _this$[ebp]
  0002d	83 c1 04	 add	 ecx, 4
  00030	e8 00 00 00 00	 call	 ?empty@?$_Tree@V?$_Tmap_traits@KPAVCSpeedTreeWrapper@@U?$less@K@std@@V?$allocator@U?$pair@$$CBKPAVCSpeedTreeWrapper@@@std@@@3@$0A@@std@@@std@@QBE_NXZ ; std::_Tree<std::_Tmap_traits<unsigned long,CSpeedTreeWrapper *,std::less<unsigned long>,std::allocator<std::pair<unsigned long const ,CSpeedTreeWrapper *> >,0> >::empty
  00035	0f b6 c0	 movzx	 eax, al
  00038	85 c0		 test	 eax, eax
  0003a	74 05		 je	 SHORT $LN29@Render

; 147  : 		return;

  0003c	e9 fa 0b 00 00	 jmp	 $LN1@Render
$LN29@Render:

; 148  : 
; 149  : 	if (!(ulRenderBitVector & Forest_RenderToShadow) && !(ulRenderBitVector & Forest_RenderToMiniMap))

  00041	8b 45 7c	 mov	 eax, DWORD PTR _ulRenderBitVector$[ebp]
  00044	83 e0 20	 and	 eax, 32			; 00000020H
  00047	75 34		 jne	 SHORT $LN30@Render
  00049	8b 45 7c	 mov	 eax, DWORD PTR _ulRenderBitVector$[ebp]
  0004c	83 e0 40	 and	 eax, 64			; 00000040H
  0004f	75 2c		 jne	 SHORT $LN30@Render
; File D:\Metin2 Server Files\mainline\SRC_2014\Metin2Client\eterbase\Singleton.h

; 27   : 		return (*ms_singleton);

  00051	a1 00 00 00 00	 mov	 eax, DWORD PTR ?ms_singleton@?$CSingleton@VCCameraManager@@@@0PAVCCameraManager@@A ; CSingleton<CCameraManager>::ms_singleton
  00056	89 45 f0	 mov	 DWORD PTR $T94[ebp], eax
; File D:\Metin2 Server Files\mainline\SRC_2014\Metin2Client\SpeedTreeLib\SpeedTreeForestDirectX8.cpp

; 150  : 		UpdateCompundMatrix(CCameraManager::Instance().GetCurrentCamera()->GetEye(), ms_matView, ms_matProj);

  00059	8b 4d f0	 mov	 ecx, DWORD PTR $T94[ebp]
  0005c	e8 00 00 00 00	 call	 ?GetCurrentCamera@CCameraManager@@QAEPAVCCamera@@XZ ; CCameraManager::GetCurrentCamera
  00061	89 45 ec	 mov	 DWORD PTR _this$[ebp], eax
  00064	68 00 00 00 00	 push	 OFFSET ?ms_matProj@CGraphicBase@@1UD3DXMATRIX@@A ; CGraphicBase::ms_matProj
  00069	68 00 00 00 00	 push	 OFFSET ?ms_matView@CGraphicBase@@1UD3DXMATRIX@@A ; CGraphicBase::ms_matView
; File D:\Metin2 Server Files\mainline\SRC_2014\Metin2Client\eterlib\Camera.h

; 168  : 		const D3DXVECTOR3 & GetEye() const		{ return m_v3Eye; }

  0006e	8b 45 ec	 mov	 eax, DWORD PTR _this$[ebp]
  00071	83 c0 30	 add	 eax, 48			; 00000030H
; File D:\Metin2 Server Files\mainline\SRC_2014\Metin2Client\SpeedTreeLib\SpeedTreeForestDirectX8.cpp

; 150  : 		UpdateCompundMatrix(CCameraManager::Instance().GetCurrentCamera()->GetEye(), ms_matView, ms_matProj);

  00074	50		 push	 eax
  00075	8b 4d 6c	 mov	 ecx, DWORD PTR _this$[ebp]
  00078	e8 00 00 00 00	 call	 ?UpdateCompundMatrix@CSpeedTreeForestDirectX8@@QAEXABUD3DXVECTOR3@@ABUD3DXMATRIX@@1@Z ; CSpeedTreeForestDirectX8::UpdateCompundMatrix
$LN30@Render:
; File D:\Metin2 Server Files\mainline\SRC_2014\Metin2Client\eterbase\Singleton.h

; 27   : 		return (*ms_singleton);

  0007d	a1 00 00 00 00	 mov	 eax, DWORD PTR ?ms_singleton@?$CSingleton@VCStateManager@@@@0PAVCStateManager@@A ; CSingleton<CStateManager>::ms_singleton
  00082	89 45 e8	 mov	 DWORD PTR $T93[ebp], eax
; File D:\Metin2 Server Files\mainline\SRC_2014\Metin2Client\SpeedTreeLib\SpeedTreeForestDirectX8.cpp

; 152  : 	DWORD dwLightState = STATEMANAGER.GetRenderState(D3DRS_LIGHTING);

  00085	68 89 00 00 00	 push	 137			; 00000089H
  0008a	8b 4d e8	 mov	 ecx, DWORD PTR $T93[ebp]
  0008d	e8 00 00 00 00	 call	 ?GetRenderState@CStateManager@@QAEKW4_D3DRENDERSTATETYPE@@@Z ; CStateManager::GetRenderState
  00092	89 85 54 fe ff
	ff		 mov	 DWORD PTR _dwLightState$[ebp], eax
; File D:\Metin2 Server Files\mainline\SRC_2014\Metin2Client\eterbase\Singleton.h

; 27   : 		return (*ms_singleton);

  00098	a1 00 00 00 00	 mov	 eax, DWORD PTR ?ms_singleton@?$CSingleton@VCStateManager@@@@0PAVCStateManager@@A ; CSingleton<CStateManager>::ms_singleton
  0009d	89 45 e4	 mov	 DWORD PTR $T92[ebp], eax
; File D:\Metin2 Server Files\mainline\SRC_2014\Metin2Client\SpeedTreeLib\SpeedTreeForestDirectX8.cpp

; 153  : 	DWORD dwColorVertexState = STATEMANAGER.GetRenderState(D3DRS_COLORVERTEX);

  000a0	68 8d 00 00 00	 push	 141			; 0000008dH
  000a5	8b 4d e4	 mov	 ecx, DWORD PTR $T92[ebp]
  000a8	e8 00 00 00 00	 call	 ?GetRenderState@CStateManager@@QAEKW4_D3DRENDERSTATETYPE@@@Z ; CStateManager::GetRenderState
  000ad	89 85 50 fe ff
	ff		 mov	 DWORD PTR _dwColorVertexState$[ebp], eax
; File D:\Metin2 Server Files\mainline\SRC_2014\Metin2Client\eterbase\Singleton.h

; 27   : 		return (*ms_singleton);

  000b3	a1 00 00 00 00	 mov	 eax, DWORD PTR ?ms_singleton@?$CSingleton@VCStateManager@@@@0PAVCStateManager@@A ; CSingleton<CStateManager>::ms_singleton
  000b8	89 45 e0	 mov	 DWORD PTR $T91[ebp], eax
; File D:\Metin2 Server Files\mainline\SRC_2014\Metin2Client\SpeedTreeLib\SpeedTreeForestDirectX8.cpp

; 154  : 	DWORD dwFogVertexMode = STATEMANAGER.GetRenderState(D3DRS_FOGVERTEXMODE);

  000bb	68 8c 00 00 00	 push	 140			; 0000008cH
  000c0	8b 4d e0	 mov	 ecx, DWORD PTR $T91[ebp]
  000c3	e8 00 00 00 00	 call	 ?GetRenderState@CStateManager@@QAEKW4_D3DRENDERSTATETYPE@@@Z ; CStateManager::GetRenderState
  000c8	89 85 4c fe ff
	ff		 mov	 DWORD PTR _dwFogVertexMode$[ebp], eax

; 155  : 
; 156  : #ifdef WRAPPER_USE_DYNAMIC_LIGHTING
; 157  : 	STATEMANAGER.SetRenderState(D3DRS_LIGHTING, TRUE);
; 158  : #else
; 159  : 	STATEMANAGER.SetRenderState(D3DRS_LIGHTING, FALSE);

  000ce	6a 00		 push	 0
  000d0	68 89 00 00 00	 push	 137			; 00000089H
  000d5	8b 0d 00 00 00
	00		 mov	 ecx, DWORD PTR ?ms_singleton@?$CSingleton@VCStateManager@@@@0PAVCStateManager@@A ; CSingleton<CStateManager>::ms_singleton
  000db	e8 00 00 00 00	 call	 ?SetRenderState@CStateManager@@QAEXW4_D3DRENDERSTATETYPE@@K@Z ; CStateManager::SetRenderState

; 160  : 	STATEMANAGER.SetRenderState(D3DRS_COLORVERTEX, TRUE);

  000e0	6a 01		 push	 1
  000e2	68 8d 00 00 00	 push	 141			; 0000008dH
  000e7	8b 0d 00 00 00
	00		 mov	 ecx, DWORD PTR ?ms_singleton@?$CSingleton@VCStateManager@@@@0PAVCStateManager@@A ; CSingleton<CStateManager>::ms_singleton
  000ed	e8 00 00 00 00	 call	 ?SetRenderState@CStateManager@@QAEXW4_D3DRENDERSTATETYPE@@K@Z ; CStateManager::SetRenderState
; File C:\Program Files (x86)\Microsoft Visual Studio\2019\Community\VC\Tools\MSVC\14.28.29333\include\xtree

; 37   :     _Tree_unchecked_const_iterator() noexcept : _Ptr() {}

  000f2	83 65 70 00	 and	 DWORD PTR _itor$[ebp], 0
; File D:\Metin2 Server Files\mainline\SRC_2014\Metin2Client\SpeedTreeLib\SpeedTreeForestDirectX8.cpp

; 166  : 	itor = m_pMainTreeMap.begin();

  000f6	8d 85 48 fe ff
	ff		 lea	 eax, DWORD PTR $T2[ebp]
  000fc	50		 push	 eax
  000fd	8b 4d 6c	 mov	 ecx, DWORD PTR _this$[ebp]
  00100	83 c1 04	 add	 ecx, 4
  00103	e8 00 00 00 00	 call	 ?begin@?$_Tree@V?$_Tmap_traits@KPAVCSpeedTreeWrapper@@U?$less@K@std@@V?$allocator@U?$pair@$$CBKPAVCSpeedTreeWrapper@@@std@@@3@$0A@@std@@@std@@QAE?AV?$_Tree_iterator@V?$_Tree_val@U?$_Tree_simple_types@U?$pair@$$CBKPAVCSpeedTreeWrapper@@@std@@@std@@@std@@@2@XZ ; std::_Tree<std::_Tmap_traits<unsigned long,CSpeedTreeWrapper *,std::less<unsigned long>,std::allocator<std::pair<unsigned long const ,CSpeedTreeWrapper *> >,0> >::begin
  00108	8b 00		 mov	 eax, DWORD PTR [eax]
  0010a	89 45 70	 mov	 DWORD PTR _itor$[ebp], eax
$LN2@Render:

; 168  : 	while (itor != m_pMainTreeMap.end())

  0010d	8d 85 44 fe ff
	ff		 lea	 eax, DWORD PTR $T1[ebp]
  00113	50		 push	 eax
  00114	8b 4d 6c	 mov	 ecx, DWORD PTR _this$[ebp]
  00117	83 c1 04	 add	 ecx, 4
  0011a	e8 00 00 00 00	 call	 ?end@?$_Tree@V?$_Tmap_traits@KPAVCSpeedTreeWrapper@@U?$less@K@std@@V?$allocator@U?$pair@$$CBKPAVCSpeedTreeWrapper@@@std@@@3@$0A@@std@@@std@@QAE?AV?$_Tree_iterator@V?$_Tree_val@U?$_Tree_simple_types@U?$pair@$$CBKPAVCSpeedTreeWrapper@@@std@@@std@@@std@@@2@XZ ; std::_Tree<std::_Tmap_traits<unsigned long,CSpeedTreeWrapper *,std::less<unsigned long>,std::allocator<std::pair<unsigned long const ,CSpeedTreeWrapper *> >,0> >::end
  0011f	89 45 dc	 mov	 DWORD PTR __Right$[ebp], eax
; File C:\Program Files (x86)\Microsoft Visual Studio\2019\Community\VC\Tools\MSVC\14.28.29333\include\xtree

; 232  :         return this->_Ptr == _Right._Ptr;

  00122	8b 45 dc	 mov	 eax, DWORD PTR __Right$[ebp]
  00125	8b 4d 70	 mov	 ecx, DWORD PTR _itor$[ebp]
  00128	3b 08		 cmp	 ecx, DWORD PTR [eax]
  0012a	75 09		 jne	 SHORT $LN125@Render
  0012c	c7 45 44 01 00
	00 00		 mov	 DWORD PTR tv795[ebp], 1
  00133	eb 04		 jmp	 SHORT $LN126@Render
$LN125@Render:
  00135	83 65 44 00	 and	 DWORD PTR tv795[ebp], 0
$LN126@Render:
  00139	8a 45 44	 mov	 al, BYTE PTR tv795[ebp]
  0013c	88 45 67	 mov	 BYTE PTR $T120[ebp], al

; 236  :         return !(*this == _Right);

  0013f	0f b6 45 67	 movzx	 eax, BYTE PTR $T120[ebp]
  00143	85 c0		 test	 eax, eax
  00145	75 09		 jne	 SHORT $LN120@Render
  00147	c7 45 40 01 00
	00 00		 mov	 DWORD PTR tv763[ebp], 1
  0014e	eb 04		 jmp	 SHORT $LN121@Render
$LN120@Render:
  00150	83 65 40 00	 and	 DWORD PTR tv763[ebp], 0
$LN121@Render:
  00154	8a 45 40	 mov	 al, BYTE PTR tv763[ebp]
  00157	88 45 66	 mov	 BYTE PTR $T119[ebp], al
; File D:\Metin2 Server Files\mainline\SRC_2014\Metin2Client\SpeedTreeLib\SpeedTreeForestDirectX8.cpp

; 168  : 	while (itor != m_pMainTreeMap.end())

  0015a	0f b6 45 66	 movzx	 eax, BYTE PTR $T119[ebp]
  0015e	85 c0		 test	 eax, eax
  00160	74 7f		 je	 SHORT $LN3@Render
; File C:\Program Files (x86)\Microsoft Visual Studio\2019\Community\VC\Tools\MSVC\14.28.29333\include\xtree

; 286  :         _Tree_iterator _Tmp = *this;

  00162	8b 45 70	 mov	 eax, DWORD PTR _itor$[ebp]
  00165	89 45 d8	 mov	 DWORD PTR __Tmp$90[ebp], eax

; 198  :         _Mybase::operator++();

  00168	8d 4d 70	 lea	 ecx, DWORD PTR _itor$[ebp]
  0016b	e8 00 00 00 00	 call	 ??E?$_Tree_unchecked_const_iterator@V?$_Tree_val@U?$_Tree_simple_types@U?$pair@$$CBKPAVCSpeedTreeWrapper@@@std@@@std@@@std@@U_Iterator_base0@2@@std@@QAEAAV01@XZ ; std::_Tree_unchecked_const_iterator<std::_Tree_val<std::_Tree_simple_types<std::pair<unsigned long const ,CSpeedTreeWrapper *> > >,std::_Iterator_base0>::operator++

; 288  :         return _Tmp;

  00170	8b 45 d8	 mov	 eax, DWORD PTR __Tmp$90[ebp]
  00173	89 45 d4	 mov	 DWORD PTR $T89[ebp], eax
  00176	8d 45 d4	 lea	 eax, DWORD PTR $T89[ebp]
  00179	89 45 d0	 mov	 DWORD PTR $T88[ebp], eax

; 185  :         return this->_Ptr->_Myval;

  0017c	8b 45 d0	 mov	 eax, DWORD PTR $T88[ebp]
  0017f	8b 00		 mov	 eax, DWORD PTR [eax]
  00181	83 c0 10	 add	 eax, 16			; 00000010H
  00184	89 45 cc	 mov	 DWORD PTR $T87[ebp], eax

; 273  :         return const_cast<reference>(_Mybase::operator*());

  00187	8b 45 cc	 mov	 eax, DWORD PTR $T87[ebp]
  0018a	89 45 c8	 mov	 DWORD PTR $T86[ebp], eax
; File C:\Program Files (x86)\Microsoft Visual Studio\2019\Community\VC\Tools\MSVC\14.28.29333\include\xstddef

; 275  :     return __builtin_addressof(_Val);

  0018d	8b 45 c8	 mov	 eax, DWORD PTR $T86[ebp]
  00190	89 45 c4	 mov	 DWORD PTR $T85[ebp], eax
; File C:\Program Files (x86)\Microsoft Visual Studio\2019\Community\VC\Tools\MSVC\14.28.29333\include\xutility

; 151  :         return _STD addressof(_Val);

  00193	8b 45 c4	 mov	 eax, DWORD PTR $T85[ebp]
  00196	89 45 c0	 mov	 DWORD PTR $T84[ebp], eax
; File C:\Program Files (x86)\Microsoft Visual Studio\2019\Community\VC\Tools\MSVC\14.28.29333\include\xtree

; 277  :         return pointer_traits<pointer>::pointer_to(**this);

  00199	8b 45 c0	 mov	 eax, DWORD PTR $T84[ebp]
  0019c	89 45 bc	 mov	 DWORD PTR $T83[ebp], eax
; File D:\Metin2 Server Files\mainline\SRC_2014\Metin2Client\SpeedTreeLib\SpeedTreeForestDirectX8.cpp

; 170  : 		CSpeedTreeWrapper * pMainTree = (itor++)->second;

  0019f	8b 45 bc	 mov	 eax, DWORD PTR $T83[ebp]
  001a2	8b 40 04	 mov	 eax, DWORD PTR [eax+4]
  001a5	89 45 b8	 mov	 DWORD PTR _pMainTree$82[ebp], eax

; 171  : 		CSpeedTreeWrapper ** ppInstances = pMainTree->GetInstances(uiCount);

  001a8	8d 45 68	 lea	 eax, DWORD PTR _uiCount$[ebp]
  001ab	50		 push	 eax
  001ac	8b 4d b8	 mov	 ecx, DWORD PTR _pMainTree$82[ebp]
  001af	e8 00 00 00 00	 call	 ?GetInstances@CSpeedTreeWrapper@@QAEPAPAV1@AAI@Z ; CSpeedTreeWrapper::GetInstances
  001b4	89 45 b4	 mov	 DWORD PTR _ppInstances$81[ebp], eax

; 172  : 
; 173  : 		for (UINT i = 0; i < uiCount; ++i)

  001b7	83 65 48 00	 and	 DWORD PTR _i$104[ebp], 0
  001bb	eb 07		 jmp	 SHORT $LN6@Render
$LN4@Render:
  001bd	8b 45 48	 mov	 eax, DWORD PTR _i$104[ebp]
  001c0	40		 inc	 eax
  001c1	89 45 48	 mov	 DWORD PTR _i$104[ebp], eax
$LN6@Render:
  001c4	8b 45 48	 mov	 eax, DWORD PTR _i$104[ebp]
  001c7	3b 45 68	 cmp	 eax, DWORD PTR _uiCount$[ebp]
  001ca	73 10		 jae	 SHORT $LN5@Render

; 174  : 		{
; 175  : 			ppInstances[i]->Advance();

  001cc	8b 45 48	 mov	 eax, DWORD PTR _i$104[ebp]
  001cf	8b 4d b4	 mov	 ecx, DWORD PTR _ppInstances$81[ebp]
  001d2	8b 0c 81	 mov	 ecx, DWORD PTR [ecx+eax*4]
  001d5	e8 00 00 00 00	 call	 ?Advance@CSpeedTreeWrapper@@QAEXXZ ; CSpeedTreeWrapper::Advance

; 176  : 		}

  001da	eb e1		 jmp	 SHORT $LN4@Render
$LN5@Render:

; 177  : 	}

  001dc	e9 2c ff ff ff	 jmp	 $LN2@Render
$LN3@Render:

; 178  : 
; 179  : 	STATEMANAGER.SetVertexShaderConstant(c_nVertexShader_Light,	m_afLighting, 3);

  001e1	6a 03		 push	 3
  001e3	8b 45 6c	 mov	 eax, DWORD PTR _this$[ebp]
  001e6	83 c0 0c	 add	 eax, 12			; 0000000cH
  001e9	50		 push	 eax
  001ea	6a 47		 push	 71			; 00000047H
  001ec	8b 0d 00 00 00
	00		 mov	 ecx, DWORD PTR ?ms_singleton@?$CSingleton@VCStateManager@@@@0PAVCStateManager@@A ; CSingleton<CStateManager>::ms_singleton
  001f2	e8 00 00 00 00	 call	 ?SetVertexShaderConstant@CStateManager@@QAEXKPBXK@Z ; CStateManager::SetVertexShaderConstant

; 180  : 	STATEMANAGER.SetVertexShaderConstant(c_nVertexShader_Fog, m_afFog, 1);

  001f7	6a 01		 push	 1
  001f9	8b 45 6c	 mov	 eax, DWORD PTR _this$[ebp]
  001fc	83 c0 3c	 add	 eax, 60			; 0000003cH
  001ff	50		 push	 eax
  00200	6a 55		 push	 85			; 00000055H
  00202	8b 0d 00 00 00
	00		 mov	 ecx, DWORD PTR ?ms_singleton@?$CSingleton@VCStateManager@@@@0PAVCStateManager@@A ; CSingleton<CStateManager>::ms_singleton
  00208	e8 00 00 00 00	 call	 ?SetVertexShaderConstant@CStateManager@@QAEXKPBXK@Z ; CStateManager::SetVertexShaderConstant

; 181  : 
; 182  : 	if (ulRenderBitVector & Forest_RenderToShadow)

  0020d	8b 45 7c	 mov	 eax, DWORD PTR _ulRenderBitVector$[ebp]
  00210	83 e0 20	 and	 eax, 32			; 00000020H
  00213	74 38		 je	 SHORT $LN31@Render

; 183  : 	{
; 184  : 		//STATEMANAGER.SetTextureStageState(0, D3DTSS_COLOROP,	D3DTOP_DISABLE);
; 185  : 		STATEMANAGER.SetTextureStageState(0, D3DTSS_ALPHAARG1,	D3DTA_TEXTURE);

  00215	6a 02		 push	 2
  00217	6a 05		 push	 5
  00219	6a 00		 push	 0
  0021b	8b 0d 00 00 00
	00		 mov	 ecx, DWORD PTR ?ms_singleton@?$CSingleton@VCStateManager@@@@0PAVCStateManager@@A ; CSingleton<CStateManager>::ms_singleton
  00221	e8 00 00 00 00	 call	 ?SetTextureStageState@CStateManager@@QAEXKW4_D3DTEXTURESTAGESTATETYPE@@K@Z ; CStateManager::SetTextureStageState

; 186  : 		STATEMANAGER.SetTextureStageState(0, D3DTSS_ALPHAARG2,	D3DTA_DIFFUSE);

  00226	6a 00		 push	 0
  00228	6a 06		 push	 6
  0022a	6a 00		 push	 0
  0022c	8b 0d 00 00 00
	00		 mov	 ecx, DWORD PTR ?ms_singleton@?$CSingleton@VCStateManager@@@@0PAVCStateManager@@A ; CSingleton<CStateManager>::ms_singleton
  00232	e8 00 00 00 00	 call	 ?SetTextureStageState@CStateManager@@QAEXKW4_D3DTEXTURESTAGESTATETYPE@@K@Z ; CStateManager::SetTextureStageState

; 187  : 		STATEMANAGER.SetTextureStageState(0, D3DTSS_ALPHAOP,	D3DTOP_MODULATE);

  00237	6a 04		 push	 4
  00239	6a 04		 push	 4
  0023b	6a 00		 push	 0
  0023d	8b 0d 00 00 00
	00		 mov	 ecx, DWORD PTR ?ms_singleton@?$CSingleton@VCStateManager@@@@0PAVCStateManager@@A ; CSingleton<CStateManager>::ms_singleton
  00243	e8 00 00 00 00	 call	 ?SetTextureStageState@CStateManager@@QAEXKW4_D3DTEXTURESTAGESTATETYPE@@K@Z ; CStateManager::SetTextureStageState

; 188  : 	}

  00248	e9 ff 00 00 00	 jmp	 $LN32@Render
$LN31@Render:

; 189  : 	else
; 190  : 	{
; 191  : 		STATEMANAGER.SetTextureStageState(0, D3DTSS_COLORARG1,	D3DTA_TEXTURE);

  0024d	6a 02		 push	 2
  0024f	6a 02		 push	 2
  00251	6a 00		 push	 0
  00253	8b 0d 00 00 00
	00		 mov	 ecx, DWORD PTR ?ms_singleton@?$CSingleton@VCStateManager@@@@0PAVCStateManager@@A ; CSingleton<CStateManager>::ms_singleton
  00259	e8 00 00 00 00	 call	 ?SetTextureStageState@CStateManager@@QAEXKW4_D3DTEXTURESTAGESTATETYPE@@K@Z ; CStateManager::SetTextureStageState

; 192  : 		STATEMANAGER.SetTextureStageState(0, D3DTSS_COLORARG2,	D3DTA_DIFFUSE);

  0025e	6a 00		 push	 0
  00260	6a 03		 push	 3
  00262	6a 00		 push	 0
  00264	8b 0d 00 00 00
	00		 mov	 ecx, DWORD PTR ?ms_singleton@?$CSingleton@VCStateManager@@@@0PAVCStateManager@@A ; CSingleton<CStateManager>::ms_singleton
  0026a	e8 00 00 00 00	 call	 ?SetTextureStageState@CStateManager@@QAEXKW4_D3DTEXTURESTAGESTATETYPE@@K@Z ; CStateManager::SetTextureStageState

; 193  : 		STATEMANAGER.SetTextureStageState(0, D3DTSS_COLOROP,	D3DTOP_MODULATE);

  0026f	6a 04		 push	 4
  00271	6a 01		 push	 1
  00273	6a 00		 push	 0
  00275	8b 0d 00 00 00
	00		 mov	 ecx, DWORD PTR ?ms_singleton@?$CSingleton@VCStateManager@@@@0PAVCStateManager@@A ; CSingleton<CStateManager>::ms_singleton
  0027b	e8 00 00 00 00	 call	 ?SetTextureStageState@CStateManager@@QAEXKW4_D3DTEXTURESTAGESTATETYPE@@K@Z ; CStateManager::SetTextureStageState

; 194  : 		STATEMANAGER.SetTextureStageState(0, D3DTSS_ALPHAARG1,	D3DTA_TEXTURE);

  00280	6a 02		 push	 2
  00282	6a 05		 push	 5
  00284	6a 00		 push	 0
  00286	8b 0d 00 00 00
	00		 mov	 ecx, DWORD PTR ?ms_singleton@?$CSingleton@VCStateManager@@@@0PAVCStateManager@@A ; CSingleton<CStateManager>::ms_singleton
  0028c	e8 00 00 00 00	 call	 ?SetTextureStageState@CStateManager@@QAEXKW4_D3DTEXTURESTAGESTATETYPE@@K@Z ; CStateManager::SetTextureStageState

; 195  : 		STATEMANAGER.SetTextureStageState(0, D3DTSS_ALPHAARG2,	D3DTA_DIFFUSE);

  00291	6a 00		 push	 0
  00293	6a 06		 push	 6
  00295	6a 00		 push	 0
  00297	8b 0d 00 00 00
	00		 mov	 ecx, DWORD PTR ?ms_singleton@?$CSingleton@VCStateManager@@@@0PAVCStateManager@@A ; CSingleton<CStateManager>::ms_singleton
  0029d	e8 00 00 00 00	 call	 ?SetTextureStageState@CStateManager@@QAEXKW4_D3DTEXTURESTAGESTATETYPE@@K@Z ; CStateManager::SetTextureStageState

; 196  : 		STATEMANAGER.SetTextureStageState(0, D3DTSS_ALPHAOP,	D3DTOP_MODULATE);

  002a2	6a 04		 push	 4
  002a4	6a 04		 push	 4
  002a6	6a 00		 push	 0
  002a8	8b 0d 00 00 00
	00		 mov	 ecx, DWORD PTR ?ms_singleton@?$CSingleton@VCStateManager@@@@0PAVCStateManager@@A ; CSingleton<CStateManager>::ms_singleton
  002ae	e8 00 00 00 00	 call	 ?SetTextureStageState@CStateManager@@QAEXKW4_D3DTEXTURESTAGESTATETYPE@@K@Z ; CStateManager::SetTextureStageState

; 197  : 		STATEMANAGER.SetTextureStageState(0, D3DTSS_MINFILTER,	D3DTEXF_LINEAR);

  002b3	6a 02		 push	 2
  002b5	6a 11		 push	 17			; 00000011H
  002b7	6a 00		 push	 0
  002b9	8b 0d 00 00 00
	00		 mov	 ecx, DWORD PTR ?ms_singleton@?$CSingleton@VCStateManager@@@@0PAVCStateManager@@A ; CSingleton<CStateManager>::ms_singleton
  002bf	e8 00 00 00 00	 call	 ?SetTextureStageState@CStateManager@@QAEXKW4_D3DTEXTURESTAGESTATETYPE@@K@Z ; CStateManager::SetTextureStageState

; 198  : 		STATEMANAGER.SetTextureStageState(0, D3DTSS_MAGFILTER,	D3DTEXF_LINEAR);

  002c4	6a 02		 push	 2
  002c6	6a 10		 push	 16			; 00000010H
  002c8	6a 00		 push	 0
  002ca	8b 0d 00 00 00
	00		 mov	 ecx, DWORD PTR ?ms_singleton@?$CSingleton@VCStateManager@@@@0PAVCStateManager@@A ; CSingleton<CStateManager>::ms_singleton
  002d0	e8 00 00 00 00	 call	 ?SetTextureStageState@CStateManager@@QAEXKW4_D3DTEXTURESTAGESTATETYPE@@K@Z ; CStateManager::SetTextureStageState

; 199  : 		STATEMANAGER.SetTextureStageState(0, D3DTSS_MIPFILTER,	D3DTEXF_LINEAR);

  002d5	6a 02		 push	 2
  002d7	6a 12		 push	 18			; 00000012H
  002d9	6a 00		 push	 0
  002db	8b 0d 00 00 00
	00		 mov	 ecx, DWORD PTR ?ms_singleton@?$CSingleton@VCStateManager@@@@0PAVCStateManager@@A ; CSingleton<CStateManager>::ms_singleton
  002e1	e8 00 00 00 00	 call	 ?SetTextureStageState@CStateManager@@QAEXKW4_D3DTEXTURESTAGESTATETYPE@@K@Z ; CStateManager::SetTextureStageState

; 200  : 
; 201  : 		STATEMANAGER.SetTextureStageState(1, D3DTSS_COLORARG1, D3DTA_TEXTURE);

  002e6	6a 02		 push	 2
  002e8	6a 02		 push	 2
  002ea	6a 01		 push	 1
  002ec	8b 0d 00 00 00
	00		 mov	 ecx, DWORD PTR ?ms_singleton@?$CSingleton@VCStateManager@@@@0PAVCStateManager@@A ; CSingleton<CStateManager>::ms_singleton
  002f2	e8 00 00 00 00	 call	 ?SetTextureStageState@CStateManager@@QAEXKW4_D3DTEXTURESTAGESTATETYPE@@K@Z ; CStateManager::SetTextureStageState

; 202  : 		STATEMANAGER.SetTextureStageState(1, D3DTSS_COLORARG2, D3DTA_CURRENT);

  002f7	6a 01		 push	 1
  002f9	6a 03		 push	 3
  002fb	6a 01		 push	 1
  002fd	8b 0d 00 00 00
	00		 mov	 ecx, DWORD PTR ?ms_singleton@?$CSingleton@VCStateManager@@@@0PAVCStateManager@@A ; CSingleton<CStateManager>::ms_singleton
  00303	e8 00 00 00 00	 call	 ?SetTextureStageState@CStateManager@@QAEXKW4_D3DTEXTURESTAGESTATETYPE@@K@Z ; CStateManager::SetTextureStageState

; 203  : 		STATEMANAGER.SetTextureStageState(1, D3DTSS_COLOROP, D3DTOP_MODULATE);

  00308	6a 04		 push	 4
  0030a	6a 01		 push	 1
  0030c	6a 01		 push	 1
  0030e	8b 0d 00 00 00
	00		 mov	 ecx, DWORD PTR ?ms_singleton@?$CSingleton@VCStateManager@@@@0PAVCStateManager@@A ; CSingleton<CStateManager>::ms_singleton
  00314	e8 00 00 00 00	 call	 ?SetTextureStageState@CStateManager@@QAEXKW4_D3DTEXTURESTAGESTATETYPE@@K@Z ; CStateManager::SetTextureStageState

; 204  : 		STATEMANAGER.SetTextureStageState(1, D3DTSS_ALPHAOP, D3DTOP_DISABLE);

  00319	6a 01		 push	 1
  0031b	6a 04		 push	 4
  0031d	6a 01		 push	 1
  0031f	8b 0d 00 00 00
	00		 mov	 ecx, DWORD PTR ?ms_singleton@?$CSingleton@VCStateManager@@@@0PAVCStateManager@@A ; CSingleton<CStateManager>::ms_singleton
  00325	e8 00 00 00 00	 call	 ?SetTextureStageState@CStateManager@@QAEXKW4_D3DTEXTURESTAGESTATETYPE@@K@Z ; CStateManager::SetTextureStageState

; 205  : 		STATEMANAGER.SetTextureStageState(1, D3DTSS_ADDRESSU, D3DTADDRESS_WRAP);

  0032a	6a 01		 push	 1
  0032c	6a 0d		 push	 13			; 0000000dH
  0032e	6a 01		 push	 1
  00330	8b 0d 00 00 00
	00		 mov	 ecx, DWORD PTR ?ms_singleton@?$CSingleton@VCStateManager@@@@0PAVCStateManager@@A ; CSingleton<CStateManager>::ms_singleton
  00336	e8 00 00 00 00	 call	 ?SetTextureStageState@CStateManager@@QAEXKW4_D3DTEXTURESTAGESTATETYPE@@K@Z ; CStateManager::SetTextureStageState

; 206  : 		STATEMANAGER.SetTextureStageState(1, D3DTSS_ADDRESSV, D3DTADDRESS_WRAP);

  0033b	6a 01		 push	 1
  0033d	6a 0e		 push	 14			; 0000000eH
  0033f	6a 01		 push	 1
  00341	8b 0d 00 00 00
	00		 mov	 ecx, DWORD PTR ?ms_singleton@?$CSingleton@VCStateManager@@@@0PAVCStateManager@@A ; CSingleton<CStateManager>::ms_singleton
  00347	e8 00 00 00 00	 call	 ?SetTextureStageState@CStateManager@@QAEXKW4_D3DTEXTURESTAGESTATETYPE@@K@Z ; CStateManager::SetTextureStageState
$LN32@Render:

; 207  : 	}
; 208  : 
; 209  : 	STATEMANAGER.SaveRenderState(D3DRS_ALPHATESTENABLE, TRUE);

  0034c	6a 01		 push	 1
  0034e	6a 0f		 push	 15			; 0000000fH
  00350	8b 0d 00 00 00
	00		 mov	 ecx, DWORD PTR ?ms_singleton@?$CSingleton@VCStateManager@@@@0PAVCStateManager@@A ; CSingleton<CStateManager>::ms_singleton
  00356	e8 00 00 00 00	 call	 ?SaveRenderState@CStateManager@@QAEXW4_D3DRENDERSTATETYPE@@K@Z ; CStateManager::SaveRenderState

; 210  : 	STATEMANAGER.SaveRenderState(D3DRS_ALPHAFUNC, D3DCMP_GREATER);

  0035b	6a 05		 push	 5
  0035d	6a 19		 push	 25			; 00000019H
  0035f	8b 0d 00 00 00
	00		 mov	 ecx, DWORD PTR ?ms_singleton@?$CSingleton@VCStateManager@@@@0PAVCStateManager@@A ; CSingleton<CStateManager>::ms_singleton
  00365	e8 00 00 00 00	 call	 ?SaveRenderState@CStateManager@@QAEXW4_D3DRENDERSTATETYPE@@K@Z ; CStateManager::SaveRenderState

; 211  : 	STATEMANAGER.SaveRenderState(D3DRS_CULLMODE, D3DCULL_CW);

  0036a	6a 02		 push	 2
  0036c	6a 16		 push	 22			; 00000016H
  0036e	8b 0d 00 00 00
	00		 mov	 ecx, DWORD PTR ?ms_singleton@?$CSingleton@VCStateManager@@@@0PAVCStateManager@@A ; CSingleton<CStateManager>::ms_singleton
  00374	e8 00 00 00 00	 call	 ?SaveRenderState@CStateManager@@QAEXW4_D3DRENDERSTATETYPE@@K@Z ; CStateManager::SaveRenderState
; File D:\Metin2 Server Files\mainline\SRC_2014\Metin2Client\eterbase\Singleton.h

; 27   : 		return (*ms_singleton);

  00379	a1 00 00 00 00	 mov	 eax, DWORD PTR ?ms_singleton@?$CSingleton@VCStateManager@@@@0PAVCStateManager@@A ; CSingleton<CStateManager>::ms_singleton
  0037e	89 45 b0	 mov	 DWORD PTR $T80[ebp], eax
; File D:\Metin2 Server Files\mainline\SRC_2014\Metin2Client\SpeedTreeLib\SpeedTreeForestDirectX8.cpp

; 214  : 	if (STATEMANAGER.GetRenderState(D3DRS_FOGENABLE))

  00381	6a 1c		 push	 28			; 0000001cH
  00383	8b 4d b0	 mov	 ecx, DWORD PTR $T80[ebp]
  00386	e8 00 00 00 00	 call	 ?GetRenderState@CStateManager@@QAEKW4_D3DRENDERSTATETYPE@@@Z ; CStateManager::GetRenderState

; 215  : 	{
; 216  : 		#ifdef WRAPPER_USE_GPU_WIND
; 217  : 			STATEMANAGER.SetRenderState(D3DRS_FOGVERTEXMODE, D3DFOG_NONE); // GPU needs to work on all cards
; 218  : 		#endif
; 219  : 	}
; 220  : 
; 221  : 	// choose fixed function pipeline or custom shader for fronds and branches
; 222  : 	STATEMANAGER.SetVertexShader(m_dwBranchVertexShader);

  0038b	8b 45 6c	 mov	 eax, DWORD PTR _this$[ebp]
  0038e	ff 70 78	 push	 DWORD PTR [eax+120]
  00391	8b 0d 00 00 00
	00		 mov	 ecx, DWORD PTR ?ms_singleton@?$CSingleton@VCStateManager@@@@0PAVCStateManager@@A ; CSingleton<CStateManager>::ms_singleton
  00397	e8 00 00 00 00	 call	 ?SetVertexShader@CStateManager@@QAEXK@Z ; CStateManager::SetVertexShader

; 223  : 
; 224  : 	// render branches
; 225  : 	if (ulRenderBitVector & Forest_RenderBranches)

  0039c	8b 45 7c	 mov	 eax, DWORD PTR _ulRenderBitVector$[ebp]
  0039f	83 e0 01	 and	 eax, 1
  003a2	0f 84 54 01 00
	00		 je	 $LN8@Render
; File C:\Program Files (x86)\Microsoft Visual Studio\2019\Community\VC\Tools\MSVC\14.28.29333\include\xtree

; 2047 :         return _STD addressof(_Mypair._Myval2._Myval2);

  003a8	8b 45 6c	 mov	 eax, DWORD PTR _this$[ebp]
  003ab	83 c0 04	 add	 eax, 4
; File C:\Program Files (x86)\Microsoft Visual Studio\2019\Community\VC\Tools\MSVC\14.28.29333\include\xstddef

; 275  :     return __builtin_addressof(_Val);

  003ae	89 45 ac	 mov	 DWORD PTR $T79[ebp], eax
; File C:\Program Files (x86)\Microsoft Visual Studio\2019\Community\VC\Tools\MSVC\14.28.29333\include\xtree

; 2047 :         return _STD addressof(_Mypair._Myval2._Myval2);

  003b1	8b 45 ac	 mov	 eax, DWORD PTR $T79[ebp]
  003b4	89 45 a8	 mov	 DWORD PTR __Scary$78[ebp], eax

; 1240 :         return iterator(_Scary->_Myhead->_Left, _Scary);

  003b7	8b 45 a8	 mov	 eax, DWORD PTR __Scary$78[ebp]
  003ba	8b 00		 mov	 eax, DWORD PTR [eax]
  003bc	8b 00		 mov	 eax, DWORD PTR [eax]
  003be	89 45 a4	 mov	 DWORD PTR ___param0$[ebp], eax

; 39   :     _Tree_unchecked_const_iterator(_Nodeptr _Pnode, const _Mytree* _Plist) noexcept : _Ptr(_Pnode) {

  003c1	8b 45 a4	 mov	 eax, DWORD PTR ___param0$[ebp]
  003c4	89 45 a0	 mov	 DWORD PTR $T77[ebp], eax

; 1240 :         return iterator(_Scary->_Myhead->_Left, _Scary);

  003c7	8d 45 a0	 lea	 eax, DWORD PTR $T77[ebp]
  003ca	89 45 9c	 mov	 DWORD PTR $T76[ebp], eax
; File D:\Metin2 Server Files\mainline\SRC_2014\Metin2Client\SpeedTreeLib\SpeedTreeForestDirectX8.cpp

; 227  : 		itor = m_pMainTreeMap.begin();

  003cd	8b 45 9c	 mov	 eax, DWORD PTR $T76[ebp]
  003d0	8b 00		 mov	 eax, DWORD PTR [eax]
  003d2	89 45 70	 mov	 DWORD PTR _itor$[ebp], eax
$LN7@Render:
; File C:\Program Files (x86)\Microsoft Visual Studio\2019\Community\VC\Tools\MSVC\14.28.29333\include\xtree

; 2047 :         return _STD addressof(_Mypair._Myval2._Myval2);

  003d5	8b 45 6c	 mov	 eax, DWORD PTR _this$[ebp]
  003d8	83 c0 04	 add	 eax, 4
; File C:\Program Files (x86)\Microsoft Visual Studio\2019\Community\VC\Tools\MSVC\14.28.29333\include\xstddef

; 275  :     return __builtin_addressof(_Val);

  003db	89 45 98	 mov	 DWORD PTR $T75[ebp], eax
; File C:\Program Files (x86)\Microsoft Visual Studio\2019\Community\VC\Tools\MSVC\14.28.29333\include\xtree

; 2047 :         return _STD addressof(_Mypair._Myval2._Myval2);

  003de	8b 45 98	 mov	 eax, DWORD PTR $T75[ebp]
  003e1	89 45 94	 mov	 DWORD PTR __Scary$74[ebp], eax

; 1250 :         return iterator(_Scary->_Myhead, _Scary);

  003e4	8b 45 94	 mov	 eax, DWORD PTR __Scary$74[ebp]
  003e7	8b 00		 mov	 eax, DWORD PTR [eax]
  003e9	89 45 90	 mov	 DWORD PTR ___param0$[ebp], eax

; 39   :     _Tree_unchecked_const_iterator(_Nodeptr _Pnode, const _Mytree* _Plist) noexcept : _Ptr(_Pnode) {

  003ec	8b 45 90	 mov	 eax, DWORD PTR ___param0$[ebp]
  003ef	89 45 8c	 mov	 DWORD PTR $T73[ebp], eax

; 1250 :         return iterator(_Scary->_Myhead, _Scary);

  003f2	8d 45 8c	 lea	 eax, DWORD PTR $T73[ebp]
  003f5	89 45 88	 mov	 DWORD PTR $T72[ebp], eax

; 232  :         return this->_Ptr == _Right._Ptr;

  003f8	8b 45 88	 mov	 eax, DWORD PTR $T72[ebp]
  003fb	8b 4d 70	 mov	 ecx, DWORD PTR _itor$[ebp]
  003fe	3b 08		 cmp	 ecx, DWORD PTR [eax]
  00400	75 09		 jne	 SHORT $LN248@Render
  00402	c7 45 3c 01 00
	00 00		 mov	 DWORD PTR tv904[ebp], 1
  00409	eb 04		 jmp	 SHORT $LN249@Render
$LN248@Render:
  0040b	83 65 3c 00	 and	 DWORD PTR tv904[ebp], 0
$LN249@Render:
  0040f	8a 45 3c	 mov	 al, BYTE PTR tv904[ebp]
  00412	88 45 65	 mov	 BYTE PTR $T118[ebp], al

; 236  :         return !(*this == _Right);

  00415	0f b6 45 65	 movzx	 eax, BYTE PTR $T118[ebp]
  00419	85 c0		 test	 eax, eax
  0041b	75 09		 jne	 SHORT $LN243@Render
  0041d	c7 45 38 01 00
	00 00		 mov	 DWORD PTR tv880[ebp], 1
  00424	eb 04		 jmp	 SHORT $LN244@Render
$LN243@Render:
  00426	83 65 38 00	 and	 DWORD PTR tv880[ebp], 0
$LN244@Render:
  0042a	8a 45 38	 mov	 al, BYTE PTR tv880[ebp]
  0042d	88 45 64	 mov	 BYTE PTR $T117[ebp], al
; File D:\Metin2 Server Files\mainline\SRC_2014\Metin2Client\SpeedTreeLib\SpeedTreeForestDirectX8.cpp

; 229  : 		while (itor != m_pMainTreeMap.end())

  00430	0f b6 45 64	 movzx	 eax, BYTE PTR $T117[ebp]
  00434	85 c0		 test	 eax, eax
  00436	0f 84 c0 00 00
	00		 je	 $LN8@Render
; File C:\Program Files (x86)\Microsoft Visual Studio\2019\Community\VC\Tools\MSVC\14.28.29333\include\xtree

; 286  :         _Tree_iterator _Tmp = *this;

  0043c	8b 45 70	 mov	 eax, DWORD PTR _itor$[ebp]
  0043f	89 45 84	 mov	 DWORD PTR __Tmp$71[ebp], eax

; 198  :         _Mybase::operator++();

  00442	8d 4d 70	 lea	 ecx, DWORD PTR _itor$[ebp]
  00445	e8 00 00 00 00	 call	 ??E?$_Tree_unchecked_const_iterator@V?$_Tree_val@U?$_Tree_simple_types@U?$pair@$$CBKPAVCSpeedTreeWrapper@@@std@@@std@@@std@@U_Iterator_base0@2@@std@@QAEAAV01@XZ ; std::_Tree_unchecked_const_iterator<std::_Tree_val<std::_Tree_simple_types<std::pair<unsigned long const ,CSpeedTreeWrapper *> > >,std::_Iterator_base0>::operator++

; 288  :         return _Tmp;

  0044a	8b 45 84	 mov	 eax, DWORD PTR __Tmp$71[ebp]
  0044d	89 45 80	 mov	 DWORD PTR $T70[ebp], eax
  00450	8d 45 80	 lea	 eax, DWORD PTR $T70[ebp]
  00453	89 85 7c ff ff
	ff		 mov	 DWORD PTR $T69[ebp], eax

; 185  :         return this->_Ptr->_Myval;

  00459	8b 85 7c ff ff
	ff		 mov	 eax, DWORD PTR $T69[ebp]
  0045f	8b 00		 mov	 eax, DWORD PTR [eax]
  00461	83 c0 10	 add	 eax, 16			; 00000010H
  00464	89 85 78 ff ff
	ff		 mov	 DWORD PTR $T68[ebp], eax

; 273  :         return const_cast<reference>(_Mybase::operator*());

  0046a	8b 85 78 ff ff
	ff		 mov	 eax, DWORD PTR $T68[ebp]
  00470	89 85 74 ff ff
	ff		 mov	 DWORD PTR $T67[ebp], eax
; File C:\Program Files (x86)\Microsoft Visual Studio\2019\Community\VC\Tools\MSVC\14.28.29333\include\xstddef

; 275  :     return __builtin_addressof(_Val);

  00476	8b 85 74 ff ff
	ff		 mov	 eax, DWORD PTR $T67[ebp]
  0047c	89 85 70 ff ff
	ff		 mov	 DWORD PTR $T66[ebp], eax
; File C:\Program Files (x86)\Microsoft Visual Studio\2019\Community\VC\Tools\MSVC\14.28.29333\include\xutility

; 151  :         return _STD addressof(_Val);

  00482	8b 85 70 ff ff
	ff		 mov	 eax, DWORD PTR $T66[ebp]
  00488	89 85 6c ff ff
	ff		 mov	 DWORD PTR $T65[ebp], eax
; File C:\Program Files (x86)\Microsoft Visual Studio\2019\Community\VC\Tools\MSVC\14.28.29333\include\xtree

; 277  :         return pointer_traits<pointer>::pointer_to(**this);

  0048e	8b 85 6c ff ff
	ff		 mov	 eax, DWORD PTR $T65[ebp]
  00494	89 85 68 ff ff
	ff		 mov	 DWORD PTR $T64[ebp], eax
; File D:\Metin2 Server Files\mainline\SRC_2014\Metin2Client\SpeedTreeLib\SpeedTreeForestDirectX8.cpp

; 231  : 			CSpeedTreeWrapper * pMainTree = (itor++)->second;

  0049a	8b 85 68 ff ff
	ff		 mov	 eax, DWORD PTR $T64[ebp]
  004a0	8b 40 04	 mov	 eax, DWORD PTR [eax+4]
  004a3	89 45 34	 mov	 DWORD PTR _pMainTree$103[ebp], eax

; 232  : 			CSpeedTreeWrapper ** ppInstances = pMainTree->GetInstances(uiCount);

  004a6	8d 45 68	 lea	 eax, DWORD PTR _uiCount$[ebp]
  004a9	50		 push	 eax
  004aa	8b 4d 34	 mov	 ecx, DWORD PTR _pMainTree$103[ebp]
  004ad	e8 00 00 00 00	 call	 ?GetInstances@CSpeedTreeWrapper@@QAEPAPAV1@AAI@Z ; CSpeedTreeWrapper::GetInstances
  004b2	89 45 30	 mov	 DWORD PTR _ppInstances$102[ebp], eax

; 233  : 			
; 234  : 			pMainTree->SetupBranchForTreeType();

  004b5	8b 4d 34	 mov	 ecx, DWORD PTR _pMainTree$103[ebp]
  004b8	e8 00 00 00 00	 call	 ?SetupBranchForTreeType@CSpeedTreeWrapper@@QBEXXZ ; CSpeedTreeWrapper::SetupBranchForTreeType

; 235  : 
; 236  : 			for (UINT i = 0; i < uiCount; ++i)

  004bd	83 65 58 00	 and	 DWORD PTR _i$108[ebp], 0
  004c1	eb 07		 jmp	 SHORT $LN11@Render
$LN9@Render:
  004c3	8b 45 58	 mov	 eax, DWORD PTR _i$108[ebp]
  004c6	40		 inc	 eax
  004c7	89 45 58	 mov	 DWORD PTR _i$108[ebp], eax
$LN11@Render:
  004ca	8b 45 58	 mov	 eax, DWORD PTR _i$108[ebp]
  004cd	3b 45 68	 cmp	 eax, DWORD PTR _uiCount$[ebp]
  004d0	73 25		 jae	 SHORT $LN10@Render

; 237  : 				if (ppInstances[i]->isShow())

  004d2	8b 45 58	 mov	 eax, DWORD PTR _i$108[ebp]
  004d5	8b 4d 30	 mov	 ecx, DWORD PTR _ppInstances$102[ebp]
  004d8	8b 0c 81	 mov	 ecx, DWORD PTR [ecx+eax*4]
  004db	e8 00 00 00 00	 call	 ?isShow@CGraphicObjectInstance@@QAE_NXZ ; CGraphicObjectInstance::isShow
  004e0	0f b6 c0	 movzx	 eax, al
  004e3	85 c0		 test	 eax, eax
  004e5	74 0e		 je	 SHORT $LN35@Render

; 238  : 					ppInstances[i]->RenderBranches();

  004e7	8b 45 58	 mov	 eax, DWORD PTR _i$108[ebp]
  004ea	8b 4d 30	 mov	 ecx, DWORD PTR _ppInstances$102[ebp]
  004ed	8b 0c 81	 mov	 ecx, DWORD PTR [ecx+eax*4]
  004f0	e8 00 00 00 00	 call	 ?RenderBranches@CSpeedTreeWrapper@@QBEXXZ ; CSpeedTreeWrapper::RenderBranches
$LN35@Render:
  004f5	eb cc		 jmp	 SHORT $LN9@Render
$LN10@Render:

; 239  : 		}

  004f7	e9 d9 fe ff ff	 jmp	 $LN7@Render
$LN8@Render:

; 240  : 	}
; 241  : 
; 242  : 	// set render states
; 243  : 	STATEMANAGER.SetRenderState(D3DRS_CULLMODE, D3DCULL_NONE);

  004fc	6a 01		 push	 1
  004fe	6a 16		 push	 22			; 00000016H
  00500	8b 0d 00 00 00
	00		 mov	 ecx, DWORD PTR ?ms_singleton@?$CSingleton@VCStateManager@@@@0PAVCStateManager@@A ; CSingleton<CStateManager>::ms_singleton
  00506	e8 00 00 00 00	 call	 ?SetRenderState@CStateManager@@QAEXW4_D3DRENDERSTATETYPE@@K@Z ; CStateManager::SetRenderState

; 244  : 
; 245  : 	// render fronds
; 246  : 	if (ulRenderBitVector & Forest_RenderFronds)

  0050b	8b 45 7c	 mov	 eax, DWORD PTR _ulRenderBitVector$[ebp]
  0050e	83 e0 04	 and	 eax, 4
  00511	0f 84 9c 01 00
	00		 je	 $LN13@Render
; File C:\Program Files (x86)\Microsoft Visual Studio\2019\Community\VC\Tools\MSVC\14.28.29333\include\xtree

; 2047 :         return _STD addressof(_Mypair._Myval2._Myval2);

  00517	8b 45 6c	 mov	 eax, DWORD PTR _this$[ebp]
  0051a	83 c0 04	 add	 eax, 4
; File C:\Program Files (x86)\Microsoft Visual Studio\2019\Community\VC\Tools\MSVC\14.28.29333\include\xstddef

; 275  :     return __builtin_addressof(_Val);

  0051d	89 85 64 ff ff
	ff		 mov	 DWORD PTR $T63[ebp], eax
; File C:\Program Files (x86)\Microsoft Visual Studio\2019\Community\VC\Tools\MSVC\14.28.29333\include\xtree

; 2047 :         return _STD addressof(_Mypair._Myval2._Myval2);

  00523	8b 85 64 ff ff
	ff		 mov	 eax, DWORD PTR $T63[ebp]
  00529	89 85 60 ff ff
	ff		 mov	 DWORD PTR __Scary$62[ebp], eax

; 1240 :         return iterator(_Scary->_Myhead->_Left, _Scary);

  0052f	8b 85 60 ff ff
	ff		 mov	 eax, DWORD PTR __Scary$62[ebp]
  00535	8b 00		 mov	 eax, DWORD PTR [eax]
  00537	8b 00		 mov	 eax, DWORD PTR [eax]
  00539	89 85 5c ff ff
	ff		 mov	 DWORD PTR ___param0$[ebp], eax

; 39   :     _Tree_unchecked_const_iterator(_Nodeptr _Pnode, const _Mytree* _Plist) noexcept : _Ptr(_Pnode) {

  0053f	8b 85 5c ff ff
	ff		 mov	 eax, DWORD PTR ___param0$[ebp]
  00545	89 85 58 ff ff
	ff		 mov	 DWORD PTR $T61[ebp], eax

; 1240 :         return iterator(_Scary->_Myhead->_Left, _Scary);

  0054b	8d 85 58 ff ff
	ff		 lea	 eax, DWORD PTR $T61[ebp]
  00551	89 85 54 ff ff
	ff		 mov	 DWORD PTR $T60[ebp], eax
; File D:\Metin2 Server Files\mainline\SRC_2014\Metin2Client\SpeedTreeLib\SpeedTreeForestDirectX8.cpp

; 248  : 		itor = m_pMainTreeMap.begin();

  00557	8b 85 54 ff ff
	ff		 mov	 eax, DWORD PTR $T60[ebp]
  0055d	8b 00		 mov	 eax, DWORD PTR [eax]
  0055f	89 45 70	 mov	 DWORD PTR _itor$[ebp], eax
$LN12@Render:
; File C:\Program Files (x86)\Microsoft Visual Studio\2019\Community\VC\Tools\MSVC\14.28.29333\include\xtree

; 2047 :         return _STD addressof(_Mypair._Myval2._Myval2);

  00562	8b 45 6c	 mov	 eax, DWORD PTR _this$[ebp]
  00565	83 c0 04	 add	 eax, 4
; File C:\Program Files (x86)\Microsoft Visual Studio\2019\Community\VC\Tools\MSVC\14.28.29333\include\xstddef

; 275  :     return __builtin_addressof(_Val);

  00568	89 85 50 ff ff
	ff		 mov	 DWORD PTR $T59[ebp], eax
; File C:\Program Files (x86)\Microsoft Visual Studio\2019\Community\VC\Tools\MSVC\14.28.29333\include\xtree

; 2047 :         return _STD addressof(_Mypair._Myval2._Myval2);

  0056e	8b 85 50 ff ff
	ff		 mov	 eax, DWORD PTR $T59[ebp]
  00574	89 85 4c ff ff
	ff		 mov	 DWORD PTR __Scary$58[ebp], eax

; 1250 :         return iterator(_Scary->_Myhead, _Scary);

  0057a	8b 85 4c ff ff
	ff		 mov	 eax, DWORD PTR __Scary$58[ebp]
  00580	8b 00		 mov	 eax, DWORD PTR [eax]
  00582	89 85 48 ff ff
	ff		 mov	 DWORD PTR ___param0$[ebp], eax

; 39   :     _Tree_unchecked_const_iterator(_Nodeptr _Pnode, const _Mytree* _Plist) noexcept : _Ptr(_Pnode) {

  00588	8b 85 48 ff ff
	ff		 mov	 eax, DWORD PTR ___param0$[ebp]
  0058e	89 85 44 ff ff
	ff		 mov	 DWORD PTR $T57[ebp], eax

; 1250 :         return iterator(_Scary->_Myhead, _Scary);

  00594	8d 85 44 ff ff
	ff		 lea	 eax, DWORD PTR $T57[ebp]
  0059a	89 85 40 ff ff
	ff		 mov	 DWORD PTR $T56[ebp], eax

; 232  :         return this->_Ptr == _Right._Ptr;

  005a0	8b 85 40 ff ff
	ff		 mov	 eax, DWORD PTR $T56[ebp]
  005a6	8b 4d 70	 mov	 ecx, DWORD PTR _itor$[ebp]
  005a9	3b 08		 cmp	 ecx, DWORD PTR [eax]
  005ab	75 09		 jne	 SHORT $LN335@Render
  005ad	c7 45 2c 01 00
	00 00		 mov	 DWORD PTR tv982[ebp], 1
  005b4	eb 04		 jmp	 SHORT $LN336@Render
$LN335@Render:
  005b6	83 65 2c 00	 and	 DWORD PTR tv982[ebp], 0
$LN336@Render:
  005ba	8a 45 2c	 mov	 al, BYTE PTR tv982[ebp]
  005bd	88 45 63	 mov	 BYTE PTR $T116[ebp], al

; 236  :         return !(*this == _Right);

  005c0	0f b6 45 63	 movzx	 eax, BYTE PTR $T116[ebp]
  005c4	85 c0		 test	 eax, eax
  005c6	75 09		 jne	 SHORT $LN330@Render
  005c8	c7 45 28 01 00
	00 00		 mov	 DWORD PTR tv958[ebp], 1
  005cf	eb 04		 jmp	 SHORT $LN331@Render
$LN330@Render:
  005d1	83 65 28 00	 and	 DWORD PTR tv958[ebp], 0
$LN331@Render:
  005d5	8a 45 28	 mov	 al, BYTE PTR tv958[ebp]
  005d8	88 45 62	 mov	 BYTE PTR $T115[ebp], al
; File D:\Metin2 Server Files\mainline\SRC_2014\Metin2Client\SpeedTreeLib\SpeedTreeForestDirectX8.cpp

; 250  : 		while (itor != m_pMainTreeMap.end())

  005db	0f b6 45 62	 movzx	 eax, BYTE PTR $T115[ebp]
  005df	85 c0		 test	 eax, eax
  005e1	0f 84 cc 00 00
	00		 je	 $LN13@Render
; File C:\Program Files (x86)\Microsoft Visual Studio\2019\Community\VC\Tools\MSVC\14.28.29333\include\xtree

; 286  :         _Tree_iterator _Tmp = *this;

  005e7	8b 45 70	 mov	 eax, DWORD PTR _itor$[ebp]
  005ea	89 85 3c ff ff
	ff		 mov	 DWORD PTR __Tmp$55[ebp], eax

; 198  :         _Mybase::operator++();

  005f0	8d 4d 70	 lea	 ecx, DWORD PTR _itor$[ebp]
  005f3	e8 00 00 00 00	 call	 ??E?$_Tree_unchecked_const_iterator@V?$_Tree_val@U?$_Tree_simple_types@U?$pair@$$CBKPAVCSpeedTreeWrapper@@@std@@@std@@@std@@U_Iterator_base0@2@@std@@QAEAAV01@XZ ; std::_Tree_unchecked_const_iterator<std::_Tree_val<std::_Tree_simple_types<std::pair<unsigned long const ,CSpeedTreeWrapper *> > >,std::_Iterator_base0>::operator++

; 288  :         return _Tmp;

  005f8	8b 85 3c ff ff
	ff		 mov	 eax, DWORD PTR __Tmp$55[ebp]
  005fe	89 85 38 ff ff
	ff		 mov	 DWORD PTR $T54[ebp], eax
  00604	8d 85 38 ff ff
	ff		 lea	 eax, DWORD PTR $T54[ebp]
  0060a	89 85 34 ff ff
	ff		 mov	 DWORD PTR $T53[ebp], eax

; 185  :         return this->_Ptr->_Myval;

  00610	8b 85 34 ff ff
	ff		 mov	 eax, DWORD PTR $T53[ebp]
  00616	8b 00		 mov	 eax, DWORD PTR [eax]
  00618	83 c0 10	 add	 eax, 16			; 00000010H
  0061b	89 85 30 ff ff
	ff		 mov	 DWORD PTR $T52[ebp], eax

; 273  :         return const_cast<reference>(_Mybase::operator*());

  00621	8b 85 30 ff ff
	ff		 mov	 eax, DWORD PTR $T52[ebp]
  00627	89 85 2c ff ff
	ff		 mov	 DWORD PTR $T51[ebp], eax
; File C:\Program Files (x86)\Microsoft Visual Studio\2019\Community\VC\Tools\MSVC\14.28.29333\include\xstddef

; 275  :     return __builtin_addressof(_Val);

  0062d	8b 85 2c ff ff
	ff		 mov	 eax, DWORD PTR $T51[ebp]
  00633	89 85 28 ff ff
	ff		 mov	 DWORD PTR $T50[ebp], eax
; File C:\Program Files (x86)\Microsoft Visual Studio\2019\Community\VC\Tools\MSVC\14.28.29333\include\xutility

; 151  :         return _STD addressof(_Val);

  00639	8b 85 28 ff ff
	ff		 mov	 eax, DWORD PTR $T50[ebp]
  0063f	89 85 24 ff ff
	ff		 mov	 DWORD PTR $T49[ebp], eax
; File C:\Program Files (x86)\Microsoft Visual Studio\2019\Community\VC\Tools\MSVC\14.28.29333\include\xtree

; 277  :         return pointer_traits<pointer>::pointer_to(**this);

  00645	8b 85 24 ff ff
	ff		 mov	 eax, DWORD PTR $T49[ebp]
  0064b	89 85 20 ff ff
	ff		 mov	 DWORD PTR $T48[ebp], eax
; File D:\Metin2 Server Files\mainline\SRC_2014\Metin2Client\SpeedTreeLib\SpeedTreeForestDirectX8.cpp

; 252  : 			CSpeedTreeWrapper * pMainTree = (itor++)->second;

  00651	8b 85 20 ff ff
	ff		 mov	 eax, DWORD PTR $T48[ebp]
  00657	8b 40 04	 mov	 eax, DWORD PTR [eax+4]
  0065a	89 45 24	 mov	 DWORD PTR _pMainTree$101[ebp], eax

; 253  : 			CSpeedTreeWrapper ** ppInstances = pMainTree->GetInstances(uiCount);

  0065d	8d 45 68	 lea	 eax, DWORD PTR _uiCount$[ebp]
  00660	50		 push	 eax
  00661	8b 4d 24	 mov	 ecx, DWORD PTR _pMainTree$101[ebp]
  00664	e8 00 00 00 00	 call	 ?GetInstances@CSpeedTreeWrapper@@QAEPAPAV1@AAI@Z ; CSpeedTreeWrapper::GetInstances
  00669	89 45 20	 mov	 DWORD PTR _ppInstances$100[ebp], eax

; 254  : 
; 255  : 			pMainTree->SetupFrondForTreeType();

  0066c	8b 4d 24	 mov	 ecx, DWORD PTR _pMainTree$101[ebp]
  0066f	e8 00 00 00 00	 call	 ?SetupFrondForTreeType@CSpeedTreeWrapper@@QBEXXZ ; CSpeedTreeWrapper::SetupFrondForTreeType

; 256  : 
; 257  : 			for (UINT i = 0; i < uiCount; ++i)

  00674	83 65 54 00	 and	 DWORD PTR _i$107[ebp], 0
  00678	eb 07		 jmp	 SHORT $LN16@Render
$LN14@Render:
  0067a	8b 45 54	 mov	 eax, DWORD PTR _i$107[ebp]
  0067d	40		 inc	 eax
  0067e	89 45 54	 mov	 DWORD PTR _i$107[ebp], eax
$LN16@Render:
  00681	8b 45 54	 mov	 eax, DWORD PTR _i$107[ebp]
  00684	3b 45 68	 cmp	 eax, DWORD PTR _uiCount$[ebp]
  00687	73 25		 jae	 SHORT $LN15@Render

; 258  : 				if (ppInstances[i]->isShow())

  00689	8b 45 54	 mov	 eax, DWORD PTR _i$107[ebp]
  0068c	8b 4d 20	 mov	 ecx, DWORD PTR _ppInstances$100[ebp]
  0068f	8b 0c 81	 mov	 ecx, DWORD PTR [ecx+eax*4]
  00692	e8 00 00 00 00	 call	 ?isShow@CGraphicObjectInstance@@QAE_NXZ ; CGraphicObjectInstance::isShow
  00697	0f b6 c0	 movzx	 eax, al
  0069a	85 c0		 test	 eax, eax
  0069c	74 0e		 je	 SHORT $LN37@Render

; 259  : 					ppInstances[i]->RenderFronds();

  0069e	8b 45 54	 mov	 eax, DWORD PTR _i$107[ebp]
  006a1	8b 4d 20	 mov	 ecx, DWORD PTR _ppInstances$100[ebp]
  006a4	8b 0c 81	 mov	 ecx, DWORD PTR [ecx+eax*4]
  006a7	e8 00 00 00 00	 call	 ?RenderFronds@CSpeedTreeWrapper@@QBEXXZ ; CSpeedTreeWrapper::RenderFronds
$LN37@Render:
  006ac	eb cc		 jmp	 SHORT $LN14@Render
$LN15@Render:

; 260  : 		}

  006ae	e9 af fe ff ff	 jmp	 $LN12@Render
$LN13@Render:

; 261  : 	}
; 262  : 	
; 263  : 	// render leaves
; 264  : 	if (ulRenderBitVector & Forest_RenderLeaves)

  006b3	8b 45 7c	 mov	 eax, DWORD PTR _ulRenderBitVector$[ebp]
  006b6	83 e0 02	 and	 eax, 2
  006b9	0f 84 1d 03 00
	00		 je	 $LN43@Render

; 265  : 	{
; 266  : 		STATEMANAGER.SetVertexShader(m_dwLeafVertexShader);

  006bf	8b 45 6c	 mov	 eax, DWORD PTR _this$[ebp]
  006c2	ff 70 7c	 push	 DWORD PTR [eax+124]
  006c5	8b 0d 00 00 00
	00		 mov	 ecx, DWORD PTR ?ms_singleton@?$CSingleton@VCStateManager@@@@0PAVCStateManager@@A ; CSingleton<CStateManager>::ms_singleton
  006cb	e8 00 00 00 00	 call	 ?SetVertexShader@CStateManager@@QAEXK@Z ; CStateManager::SetVertexShader
; File D:\Metin2 Server Files\mainline\SRC_2014\Metin2Client\eterbase\Singleton.h

; 27   : 		return (*ms_singleton);

  006d0	a1 00 00 00 00	 mov	 eax, DWORD PTR ?ms_singleton@?$CSingleton@VCStateManager@@@@0PAVCStateManager@@A ; CSingleton<CStateManager>::ms_singleton
  006d5	89 85 1c ff ff
	ff		 mov	 DWORD PTR $T47[ebp], eax
; File D:\Metin2 Server Files\mainline\SRC_2014\Metin2Client\SpeedTreeLib\SpeedTreeForestDirectX8.cpp

; 268  : 		if (STATEMANAGER.GetRenderState(D3DRS_FOGENABLE))

  006db	6a 1c		 push	 28			; 0000001cH
  006dd	8b 8d 1c ff ff
	ff		 mov	 ecx, DWORD PTR $T47[ebp]
  006e3	e8 00 00 00 00	 call	 ?GetRenderState@CStateManager@@QAEKW4_D3DRENDERSTATETYPE@@@Z ; CStateManager::GetRenderState

; 269  : 		{
; 270  : 			#if defined WRAPPER_USE_GPU_WIND || defined WRAPPER_USE_GPU_LEAF_PLACEMENT
; 271  : 				STATEMANAGER.SetRenderState(D3DRS_FOGVERTEXMODE, D3DFOG_NONE);
; 272  : 			#endif
; 273  : 		}
; 274  : 
; 275  : 		if (ulRenderBitVector & Forest_RenderToShadow || ulRenderBitVector & Forest_RenderToMiniMap)

  006e8	8b 45 7c	 mov	 eax, DWORD PTR _ulRenderBitVector$[ebp]
  006eb	83 e0 20	 and	 eax, 32			; 00000020H
  006ee	75 08		 jne	 SHORT $LN41@Render
  006f0	8b 45 7c	 mov	 eax, DWORD PTR _ulRenderBitVector$[ebp]
  006f3	83 e0 40	 and	 eax, 64			; 00000040H
  006f6	74 1e		 je	 SHORT $LN40@Render
$LN41@Render:

; 276  : 		{
; 277  : 			STATEMANAGER.SetRenderState(D3DRS_ALPHAFUNC, D3DCMP_NOTEQUAL);

  006f8	6a 06		 push	 6
  006fa	6a 19		 push	 25			; 00000019H
  006fc	8b 0d 00 00 00
	00		 mov	 ecx, DWORD PTR ?ms_singleton@?$CSingleton@VCStateManager@@@@0PAVCStateManager@@A ; CSingleton<CStateManager>::ms_singleton
  00702	e8 00 00 00 00	 call	 ?SetRenderState@CStateManager@@QAEXW4_D3DRENDERSTATETYPE@@K@Z ; CStateManager::SetRenderState

; 278  : 			STATEMANAGER.SaveRenderState(D3DRS_ALPHAREF, 0x00000000);

  00707	6a 00		 push	 0
  00709	6a 18		 push	 24			; 00000018H
  0070b	8b 0d 00 00 00
	00		 mov	 ecx, DWORD PTR ?ms_singleton@?$CSingleton@VCStateManager@@@@0PAVCStateManager@@A ; CSingleton<CStateManager>::ms_singleton
  00711	e8 00 00 00 00	 call	 ?SaveRenderState@CStateManager@@QAEXW4_D3DRENDERSTATETYPE@@K@Z ; CStateManager::SaveRenderState
$LN40@Render:
; File C:\Program Files (x86)\Microsoft Visual Studio\2019\Community\VC\Tools\MSVC\14.28.29333\include\xtree

; 2047 :         return _STD addressof(_Mypair._Myval2._Myval2);

  00716	8b 45 6c	 mov	 eax, DWORD PTR _this$[ebp]
  00719	83 c0 04	 add	 eax, 4
; File C:\Program Files (x86)\Microsoft Visual Studio\2019\Community\VC\Tools\MSVC\14.28.29333\include\xstddef

; 275  :     return __builtin_addressof(_Val);

  0071c	89 85 18 ff ff
	ff		 mov	 DWORD PTR $T46[ebp], eax
; File C:\Program Files (x86)\Microsoft Visual Studio\2019\Community\VC\Tools\MSVC\14.28.29333\include\xtree

; 2047 :         return _STD addressof(_Mypair._Myval2._Myval2);

  00722	8b 85 18 ff ff
	ff		 mov	 eax, DWORD PTR $T46[ebp]
  00728	89 85 14 ff ff
	ff		 mov	 DWORD PTR __Scary$45[ebp], eax

; 1240 :         return iterator(_Scary->_Myhead->_Left, _Scary);

  0072e	8b 85 14 ff ff
	ff		 mov	 eax, DWORD PTR __Scary$45[ebp]
  00734	8b 00		 mov	 eax, DWORD PTR [eax]
  00736	8b 00		 mov	 eax, DWORD PTR [eax]
  00738	89 85 10 ff ff
	ff		 mov	 DWORD PTR ___param0$[ebp], eax

; 39   :     _Tree_unchecked_const_iterator(_Nodeptr _Pnode, const _Mytree* _Plist) noexcept : _Ptr(_Pnode) {

  0073e	8b 85 10 ff ff
	ff		 mov	 eax, DWORD PTR ___param0$[ebp]
  00744	89 85 0c ff ff
	ff		 mov	 DWORD PTR $T44[ebp], eax

; 1240 :         return iterator(_Scary->_Myhead->_Left, _Scary);

  0074a	8d 85 0c ff ff
	ff		 lea	 eax, DWORD PTR $T44[ebp]
  00750	89 85 08 ff ff
	ff		 mov	 DWORD PTR $T43[ebp], eax
; File D:\Metin2 Server Files\mainline\SRC_2014\Metin2Client\SpeedTreeLib\SpeedTreeForestDirectX8.cpp

; 281  : 		itor = m_pMainTreeMap.begin();

  00756	8b 85 08 ff ff
	ff		 mov	 eax, DWORD PTR $T43[ebp]
  0075c	8b 00		 mov	 eax, DWORD PTR [eax]
  0075e	89 45 70	 mov	 DWORD PTR _itor$[ebp], eax
$LN17@Render:
; File C:\Program Files (x86)\Microsoft Visual Studio\2019\Community\VC\Tools\MSVC\14.28.29333\include\xtree

; 2047 :         return _STD addressof(_Mypair._Myval2._Myval2);

  00761	8b 45 6c	 mov	 eax, DWORD PTR _this$[ebp]
  00764	83 c0 04	 add	 eax, 4
; File C:\Program Files (x86)\Microsoft Visual Studio\2019\Community\VC\Tools\MSVC\14.28.29333\include\xstddef

; 275  :     return __builtin_addressof(_Val);

  00767	89 85 04 ff ff
	ff		 mov	 DWORD PTR $T42[ebp], eax
; File C:\Program Files (x86)\Microsoft Visual Studio\2019\Community\VC\Tools\MSVC\14.28.29333\include\xtree

; 2047 :         return _STD addressof(_Mypair._Myval2._Myval2);

  0076d	8b 85 04 ff ff
	ff		 mov	 eax, DWORD PTR $T42[ebp]
  00773	89 85 00 ff ff
	ff		 mov	 DWORD PTR __Scary$41[ebp], eax

; 1250 :         return iterator(_Scary->_Myhead, _Scary);

  00779	8b 85 00 ff ff
	ff		 mov	 eax, DWORD PTR __Scary$41[ebp]
  0077f	8b 00		 mov	 eax, DWORD PTR [eax]
  00781	89 85 fc fe ff
	ff		 mov	 DWORD PTR ___param0$[ebp], eax

; 39   :     _Tree_unchecked_const_iterator(_Nodeptr _Pnode, const _Mytree* _Plist) noexcept : _Ptr(_Pnode) {

  00787	8b 85 fc fe ff
	ff		 mov	 eax, DWORD PTR ___param0$[ebp]
  0078d	89 85 f8 fe ff
	ff		 mov	 DWORD PTR $T40[ebp], eax

; 1250 :         return iterator(_Scary->_Myhead, _Scary);

  00793	8d 85 f8 fe ff
	ff		 lea	 eax, DWORD PTR $T40[ebp]
  00799	89 85 f4 fe ff
	ff		 mov	 DWORD PTR $T39[ebp], eax

; 232  :         return this->_Ptr == _Right._Ptr;

  0079f	8b 85 f4 fe ff
	ff		 mov	 eax, DWORD PTR $T39[ebp]
  007a5	8b 4d 70	 mov	 ecx, DWORD PTR _itor$[ebp]
  007a8	3b 08		 cmp	 ecx, DWORD PTR [eax]
  007aa	75 09		 jne	 SHORT $LN428@Render
  007ac	c7 45 1c 01 00
	00 00		 mov	 DWORD PTR tv1092[ebp], 1
  007b3	eb 04		 jmp	 SHORT $LN429@Render
$LN428@Render:
  007b5	83 65 1c 00	 and	 DWORD PTR tv1092[ebp], 0
$LN429@Render:
  007b9	8a 45 1c	 mov	 al, BYTE PTR tv1092[ebp]
  007bc	88 45 61	 mov	 BYTE PTR $T114[ebp], al

; 236  :         return !(*this == _Right);

  007bf	0f b6 45 61	 movzx	 eax, BYTE PTR $T114[ebp]
  007c3	85 c0		 test	 eax, eax
  007c5	75 09		 jne	 SHORT $LN423@Render
  007c7	c7 45 18 01 00
	00 00		 mov	 DWORD PTR tv1068[ebp], 1
  007ce	eb 04		 jmp	 SHORT $LN424@Render
$LN423@Render:
  007d0	83 65 18 00	 and	 DWORD PTR tv1068[ebp], 0
$LN424@Render:
  007d4	8a 45 18	 mov	 al, BYTE PTR tv1068[ebp]
  007d7	88 45 60	 mov	 BYTE PTR $T113[ebp], al
; File D:\Metin2 Server Files\mainline\SRC_2014\Metin2Client\SpeedTreeLib\SpeedTreeForestDirectX8.cpp

; 283  : 		while (itor != m_pMainTreeMap.end())

  007da	0f b6 45 60	 movzx	 eax, BYTE PTR $T113[ebp]
  007de	85 c0		 test	 eax, eax
  007e0	0f 84 cc 00 00
	00		 je	 $LN18@Render
; File C:\Program Files (x86)\Microsoft Visual Studio\2019\Community\VC\Tools\MSVC\14.28.29333\include\xtree

; 286  :         _Tree_iterator _Tmp = *this;

  007e6	8b 45 70	 mov	 eax, DWORD PTR _itor$[ebp]
  007e9	89 85 f0 fe ff
	ff		 mov	 DWORD PTR __Tmp$38[ebp], eax

; 198  :         _Mybase::operator++();

  007ef	8d 4d 70	 lea	 ecx, DWORD PTR _itor$[ebp]
  007f2	e8 00 00 00 00	 call	 ??E?$_Tree_unchecked_const_iterator@V?$_Tree_val@U?$_Tree_simple_types@U?$pair@$$CBKPAVCSpeedTreeWrapper@@@std@@@std@@@std@@U_Iterator_base0@2@@std@@QAEAAV01@XZ ; std::_Tree_unchecked_const_iterator<std::_Tree_val<std::_Tree_simple_types<std::pair<unsigned long const ,CSpeedTreeWrapper *> > >,std::_Iterator_base0>::operator++

; 288  :         return _Tmp;

  007f7	8b 85 f0 fe ff
	ff		 mov	 eax, DWORD PTR __Tmp$38[ebp]
  007fd	89 85 ec fe ff
	ff		 mov	 DWORD PTR $T37[ebp], eax
  00803	8d 85 ec fe ff
	ff		 lea	 eax, DWORD PTR $T37[ebp]
  00809	89 85 e8 fe ff
	ff		 mov	 DWORD PTR $T36[ebp], eax

; 185  :         return this->_Ptr->_Myval;

  0080f	8b 85 e8 fe ff
	ff		 mov	 eax, DWORD PTR $T36[ebp]
  00815	8b 00		 mov	 eax, DWORD PTR [eax]
  00817	83 c0 10	 add	 eax, 16			; 00000010H
  0081a	89 85 e4 fe ff
	ff		 mov	 DWORD PTR $T35[ebp], eax

; 273  :         return const_cast<reference>(_Mybase::operator*());

  00820	8b 85 e4 fe ff
	ff		 mov	 eax, DWORD PTR $T35[ebp]
  00826	89 85 e0 fe ff
	ff		 mov	 DWORD PTR $T34[ebp], eax
; File C:\Program Files (x86)\Microsoft Visual Studio\2019\Community\VC\Tools\MSVC\14.28.29333\include\xstddef

; 275  :     return __builtin_addressof(_Val);

  0082c	8b 85 e0 fe ff
	ff		 mov	 eax, DWORD PTR $T34[ebp]
  00832	89 85 dc fe ff
	ff		 mov	 DWORD PTR $T33[ebp], eax
; File C:\Program Files (x86)\Microsoft Visual Studio\2019\Community\VC\Tools\MSVC\14.28.29333\include\xutility

; 151  :         return _STD addressof(_Val);

  00838	8b 85 dc fe ff
	ff		 mov	 eax, DWORD PTR $T33[ebp]
  0083e	89 85 d8 fe ff
	ff		 mov	 DWORD PTR $T32[ebp], eax
; File C:\Program Files (x86)\Microsoft Visual Studio\2019\Community\VC\Tools\MSVC\14.28.29333\include\xtree

; 277  :         return pointer_traits<pointer>::pointer_to(**this);

  00844	8b 85 d8 fe ff
	ff		 mov	 eax, DWORD PTR $T32[ebp]
  0084a	89 85 d4 fe ff
	ff		 mov	 DWORD PTR $T31[ebp], eax
; File D:\Metin2 Server Files\mainline\SRC_2014\Metin2Client\SpeedTreeLib\SpeedTreeForestDirectX8.cpp

; 285  : 			CSpeedTreeWrapper * pMainTree = (itor++)->second;

  00850	8b 85 d4 fe ff
	ff		 mov	 eax, DWORD PTR $T31[ebp]
  00856	8b 40 04	 mov	 eax, DWORD PTR [eax+4]
  00859	89 45 14	 mov	 DWORD PTR _pMainTree$99[ebp], eax

; 286  : 			CSpeedTreeWrapper ** ppInstances = pMainTree->GetInstances(uiCount);

  0085c	8d 45 68	 lea	 eax, DWORD PTR _uiCount$[ebp]
  0085f	50		 push	 eax
  00860	8b 4d 14	 mov	 ecx, DWORD PTR _pMainTree$99[ebp]
  00863	e8 00 00 00 00	 call	 ?GetInstances@CSpeedTreeWrapper@@QAEPAPAV1@AAI@Z ; CSpeedTreeWrapper::GetInstances
  00868	89 45 10	 mov	 DWORD PTR _ppInstances$98[ebp], eax

; 287  : 
; 288  : 			pMainTree->SetupLeafForTreeType();

  0086b	8b 4d 14	 mov	 ecx, DWORD PTR _pMainTree$99[ebp]
  0086e	e8 00 00 00 00	 call	 ?SetupLeafForTreeType@CSpeedTreeWrapper@@QBEXXZ ; CSpeedTreeWrapper::SetupLeafForTreeType

; 289  : 
; 290  : 			for (UINT i = 0; i < uiCount; ++i)

  00873	83 65 50 00	 and	 DWORD PTR _i$106[ebp], 0
  00877	eb 07		 jmp	 SHORT $LN21@Render
$LN19@Render:
  00879	8b 45 50	 mov	 eax, DWORD PTR _i$106[ebp]
  0087c	40		 inc	 eax
  0087d	89 45 50	 mov	 DWORD PTR _i$106[ebp], eax
$LN21@Render:
  00880	8b 45 50	 mov	 eax, DWORD PTR _i$106[ebp]
  00883	3b 45 68	 cmp	 eax, DWORD PTR _uiCount$[ebp]
  00886	73 25		 jae	 SHORT $LN20@Render

; 291  : 				if (ppInstances[i]->isShow())

  00888	8b 45 50	 mov	 eax, DWORD PTR _i$106[ebp]
  0088b	8b 4d 10	 mov	 ecx, DWORD PTR _ppInstances$98[ebp]
  0088e	8b 0c 81	 mov	 ecx, DWORD PTR [ecx+eax*4]
  00891	e8 00 00 00 00	 call	 ?isShow@CGraphicObjectInstance@@QAE_NXZ ; CGraphicObjectInstance::isShow
  00896	0f b6 c0	 movzx	 eax, al
  00899	85 c0		 test	 eax, eax
  0089b	74 0e		 je	 SHORT $LN42@Render

; 292  : 					ppInstances[i]->RenderLeaves();

  0089d	8b 45 50	 mov	 eax, DWORD PTR _i$106[ebp]
  008a0	8b 4d 10	 mov	 ecx, DWORD PTR _ppInstances$98[ebp]
  008a3	8b 0c 81	 mov	 ecx, DWORD PTR [ecx+eax*4]
  008a6	e8 00 00 00 00	 call	 ?RenderLeaves@CSpeedTreeWrapper@@QBEXXZ ; CSpeedTreeWrapper::RenderLeaves
$LN42@Render:
  008ab	eb cc		 jmp	 SHORT $LN19@Render
$LN20@Render:

; 293  : 		}

  008ad	e9 af fe ff ff	 jmp	 $LN17@Render
$LN18@Render:
; File C:\Program Files (x86)\Microsoft Visual Studio\2019\Community\VC\Tools\MSVC\14.28.29333\include\xtree

; 2047 :         return _STD addressof(_Mypair._Myval2._Myval2);

  008b2	8b 45 6c	 mov	 eax, DWORD PTR _this$[ebp]
  008b5	83 c0 04	 add	 eax, 4
; File C:\Program Files (x86)\Microsoft Visual Studio\2019\Community\VC\Tools\MSVC\14.28.29333\include\xstddef

; 275  :     return __builtin_addressof(_Val);

  008b8	89 85 d0 fe ff
	ff		 mov	 DWORD PTR $T30[ebp], eax
; File C:\Program Files (x86)\Microsoft Visual Studio\2019\Community\VC\Tools\MSVC\14.28.29333\include\xtree

; 2047 :         return _STD addressof(_Mypair._Myval2._Myval2);

  008be	8b 85 d0 fe ff
	ff		 mov	 eax, DWORD PTR $T30[ebp]
  008c4	89 85 cc fe ff
	ff		 mov	 DWORD PTR __Scary$29[ebp], eax

; 1250 :         return iterator(_Scary->_Myhead, _Scary);

  008ca	8b 85 cc fe ff
	ff		 mov	 eax, DWORD PTR __Scary$29[ebp]
  008d0	8b 00		 mov	 eax, DWORD PTR [eax]
  008d2	89 85 c8 fe ff
	ff		 mov	 DWORD PTR ___param0$[ebp], eax

; 39   :     _Tree_unchecked_const_iterator(_Nodeptr _Pnode, const _Mytree* _Plist) noexcept : _Ptr(_Pnode) {

  008d8	8b 85 c8 fe ff
	ff		 mov	 eax, DWORD PTR ___param0$[ebp]
  008de	89 85 c4 fe ff
	ff		 mov	 DWORD PTR $T28[ebp], eax

; 1250 :         return iterator(_Scary->_Myhead, _Scary);

  008e4	8d 85 c4 fe ff
	ff		 lea	 eax, DWORD PTR $T28[ebp]
  008ea	89 85 c0 fe ff
	ff		 mov	 DWORD PTR $T27[ebp], eax

; 232  :         return this->_Ptr == _Right._Ptr;

  008f0	8b 85 c0 fe ff
	ff		 mov	 eax, DWORD PTR $T27[ebp]
  008f6	8b 4d 70	 mov	 ecx, DWORD PTR _itor$[ebp]
  008f9	3b 08		 cmp	 ecx, DWORD PTR [eax]
  008fb	75 09		 jne	 SHORT $LN492@Render
  008fd	c7 45 0c 01 00
	00 00		 mov	 DWORD PTR tv1149[ebp], 1
  00904	eb 04		 jmp	 SHORT $LN493@Render
$LN492@Render:
  00906	83 65 0c 00	 and	 DWORD PTR tv1149[ebp], 0
$LN493@Render:
  0090a	8a 45 0c	 mov	 al, BYTE PTR tv1149[ebp]
  0090d	88 45 5f	 mov	 BYTE PTR $T112[ebp], al

; 236  :         return !(*this == _Right);

  00910	0f b6 45 5f	 movzx	 eax, BYTE PTR $T112[ebp]
  00914	85 c0		 test	 eax, eax
  00916	75 09		 jne	 SHORT $LN487@Render
  00918	c7 45 08 01 00
	00 00		 mov	 DWORD PTR tv1120[ebp], 1
  0091f	eb 04		 jmp	 SHORT $LN488@Render
$LN487@Render:
  00921	83 65 08 00	 and	 DWORD PTR tv1120[ebp], 0
$LN488@Render:
  00925	8a 45 08	 mov	 al, BYTE PTR tv1120[ebp]
  00928	88 45 5e	 mov	 BYTE PTR $T111[ebp], al
; File D:\Metin2 Server Files\mainline\SRC_2014\Metin2Client\SpeedTreeLib\SpeedTreeForestDirectX8.cpp

; 295  : 		while (itor != m_pMainTreeMap.end())

  0092b	0f b6 45 5e	 movzx	 eax, BYTE PTR $T111[ebp]
  0092f	85 c0		 test	 eax, eax
  00931	74 7d		 je	 SHORT $LN23@Render
; File C:\Program Files (x86)\Microsoft Visual Studio\2019\Community\VC\Tools\MSVC\14.28.29333\include\xtree

; 286  :         _Tree_iterator _Tmp = *this;

  00933	8b 45 70	 mov	 eax, DWORD PTR _itor$[ebp]
  00936	89 85 bc fe ff
	ff		 mov	 DWORD PTR __Tmp$26[ebp], eax

; 198  :         _Mybase::operator++();

  0093c	8d 4d 70	 lea	 ecx, DWORD PTR _itor$[ebp]
  0093f	e8 00 00 00 00	 call	 ??E?$_Tree_unchecked_const_iterator@V?$_Tree_val@U?$_Tree_simple_types@U?$pair@$$CBKPAVCSpeedTreeWrapper@@@std@@@std@@@std@@U_Iterator_base0@2@@std@@QAEAAV01@XZ ; std::_Tree_unchecked_const_iterator<std::_Tree_val<std::_Tree_simple_types<std::pair<unsigned long const ,CSpeedTreeWrapper *> > >,std::_Iterator_base0>::operator++

; 288  :         return _Tmp;

  00944	8b 85 bc fe ff
	ff		 mov	 eax, DWORD PTR __Tmp$26[ebp]
  0094a	89 85 b8 fe ff
	ff		 mov	 DWORD PTR $T25[ebp], eax
  00950	8d 85 b8 fe ff
	ff		 lea	 eax, DWORD PTR $T25[ebp]
  00956	89 85 b4 fe ff
	ff		 mov	 DWORD PTR $T24[ebp], eax

; 185  :         return this->_Ptr->_Myval;

  0095c	8b 85 b4 fe ff
	ff		 mov	 eax, DWORD PTR $T24[ebp]
  00962	8b 00		 mov	 eax, DWORD PTR [eax]
  00964	83 c0 10	 add	 eax, 16			; 00000010H
  00967	89 85 b0 fe ff
	ff		 mov	 DWORD PTR $T23[ebp], eax

; 273  :         return const_cast<reference>(_Mybase::operator*());

  0096d	8b 85 b0 fe ff
	ff		 mov	 eax, DWORD PTR $T23[ebp]
  00973	89 85 ac fe ff
	ff		 mov	 DWORD PTR $T22[ebp], eax
; File C:\Program Files (x86)\Microsoft Visual Studio\2019\Community\VC\Tools\MSVC\14.28.29333\include\xstddef

; 275  :     return __builtin_addressof(_Val);

  00979	8b 85 ac fe ff
	ff		 mov	 eax, DWORD PTR $T22[ebp]
  0097f	89 85 a8 fe ff
	ff		 mov	 DWORD PTR $T21[ebp], eax
; File C:\Program Files (x86)\Microsoft Visual Studio\2019\Community\VC\Tools\MSVC\14.28.29333\include\xutility

; 151  :         return _STD addressof(_Val);

  00985	8b 85 a8 fe ff
	ff		 mov	 eax, DWORD PTR $T21[ebp]
  0098b	89 85 a4 fe ff
	ff		 mov	 DWORD PTR $T20[ebp], eax
; File C:\Program Files (x86)\Microsoft Visual Studio\2019\Community\VC\Tools\MSVC\14.28.29333\include\xtree

; 277  :         return pointer_traits<pointer>::pointer_to(**this);

  00991	8b 85 a4 fe ff
	ff		 mov	 eax, DWORD PTR $T20[ebp]
  00997	89 85 a0 fe ff
	ff		 mov	 DWORD PTR $T19[ebp], eax
; File D:\Metin2 Server Files\mainline\SRC_2014\Metin2Client\SpeedTreeLib\SpeedTreeForestDirectX8.cpp

; 296  : 			(itor++)->second->EndLeafForTreeType();

  0099d	8b 85 a0 fe ff
	ff		 mov	 eax, DWORD PTR $T19[ebp]
  009a3	8b 48 04	 mov	 ecx, DWORD PTR [eax+4]
  009a6	e8 00 00 00 00	 call	 ?EndLeafForTreeType@CSpeedTreeWrapper@@QAEXXZ ; CSpeedTreeWrapper::EndLeafForTreeType
  009ab	e9 02 ff ff ff	 jmp	 $LN18@Render
$LN23@Render:

; 297  : 
; 298  : 		if (ulRenderBitVector & Forest_RenderToShadow || ulRenderBitVector & Forest_RenderToMiniMap)

  009b0	8b 45 7c	 mov	 eax, DWORD PTR _ulRenderBitVector$[ebp]
  009b3	83 e0 20	 and	 eax, 32			; 00000020H
  009b6	75 08		 jne	 SHORT $LN44@Render
  009b8	8b 45 7c	 mov	 eax, DWORD PTR _ulRenderBitVector$[ebp]
  009bb	83 e0 40	 and	 eax, 64			; 00000040H
  009be	74 1c		 je	 SHORT $LN43@Render
$LN44@Render:

; 299  : 		{
; 300  : 			STATEMANAGER.SetRenderState(D3DRS_ALPHAFUNC, D3DCMP_GREATER);

  009c0	6a 05		 push	 5
  009c2	6a 19		 push	 25			; 00000019H
  009c4	8b 0d 00 00 00
	00		 mov	 ecx, DWORD PTR ?ms_singleton@?$CSingleton@VCStateManager@@@@0PAVCStateManager@@A ; CSingleton<CStateManager>::ms_singleton
  009ca	e8 00 00 00 00	 call	 ?SetRenderState@CStateManager@@QAEXW4_D3DRENDERSTATETYPE@@K@Z ; CStateManager::SetRenderState

; 301  : 			STATEMANAGER.RestoreRenderState(D3DRS_ALPHAREF);

  009cf	6a 18		 push	 24			; 00000018H
  009d1	8b 0d 00 00 00
	00		 mov	 ecx, DWORD PTR ?ms_singleton@?$CSingleton@VCStateManager@@@@0PAVCStateManager@@A ; CSingleton<CStateManager>::ms_singleton
  009d7	e8 00 00 00 00	 call	 ?RestoreRenderState@CStateManager@@QAEXW4_D3DRENDERSTATETYPE@@@Z ; CStateManager::RestoreRenderState
$LN43@Render:

; 302  : 		}
; 303  : 	}
; 304  : 
; 305  : 	// render billboards
; 306  : 	#ifndef WRAPPER_NO_BILLBOARD_MODE
; 307  : 		if (ulRenderBitVector & Forest_RenderBillboards)

  009dc	8b 45 7c	 mov	 eax, DWORD PTR _ulRenderBitVector$[ebp]
  009df	83 e0 08	 and	 eax, 8
  009e2	0f 84 c0 01 00
	00		 je	 $LN25@Render

; 308  : 		{
; 309  : 			STATEMANAGER.SetRenderState(D3DRS_LIGHTING, FALSE);

  009e8	6a 00		 push	 0
  009ea	68 89 00 00 00	 push	 137			; 00000089H
  009ef	8b 0d 00 00 00
	00		 mov	 ecx, DWORD PTR ?ms_singleton@?$CSingleton@VCStateManager@@@@0PAVCStateManager@@A ; CSingleton<CStateManager>::ms_singleton
  009f5	e8 00 00 00 00	 call	 ?SetRenderState@CStateManager@@QAEXW4_D3DRENDERSTATETYPE@@K@Z ; CStateManager::SetRenderState

; 310  : 			STATEMANAGER.SetRenderState(D3DRS_COLORVERTEX, FALSE);

  009fa	6a 00		 push	 0
  009fc	68 8d 00 00 00	 push	 141			; 0000008dH
  00a01	8b 0d 00 00 00
	00		 mov	 ecx, DWORD PTR ?ms_singleton@?$CSingleton@VCStateManager@@@@0PAVCStateManager@@A ; CSingleton<CStateManager>::ms_singleton
  00a07	e8 00 00 00 00	 call	 ?SetRenderState@CStateManager@@QAEXW4_D3DRENDERSTATETYPE@@K@Z ; CStateManager::SetRenderState
; File C:\Program Files (x86)\Microsoft Visual Studio\2019\Community\VC\Tools\MSVC\14.28.29333\include\xtree

; 2047 :         return _STD addressof(_Mypair._Myval2._Myval2);

  00a0c	8b 45 6c	 mov	 eax, DWORD PTR _this$[ebp]
  00a0f	83 c0 04	 add	 eax, 4
; File C:\Program Files (x86)\Microsoft Visual Studio\2019\Community\VC\Tools\MSVC\14.28.29333\include\xstddef

; 275  :     return __builtin_addressof(_Val);

  00a12	89 85 9c fe ff
	ff		 mov	 DWORD PTR $T18[ebp], eax
; File C:\Program Files (x86)\Microsoft Visual Studio\2019\Community\VC\Tools\MSVC\14.28.29333\include\xtree

; 2047 :         return _STD addressof(_Mypair._Myval2._Myval2);

  00a18	8b 85 9c fe ff
	ff		 mov	 eax, DWORD PTR $T18[ebp]
  00a1e	89 85 98 fe ff
	ff		 mov	 DWORD PTR __Scary$17[ebp], eax

; 1240 :         return iterator(_Scary->_Myhead->_Left, _Scary);

  00a24	8b 85 98 fe ff
	ff		 mov	 eax, DWORD PTR __Scary$17[ebp]
  00a2a	8b 00		 mov	 eax, DWORD PTR [eax]
  00a2c	8b 00		 mov	 eax, DWORD PTR [eax]
  00a2e	89 85 94 fe ff
	ff		 mov	 DWORD PTR ___param0$[ebp], eax

; 39   :     _Tree_unchecked_const_iterator(_Nodeptr _Pnode, const _Mytree* _Plist) noexcept : _Ptr(_Pnode) {

  00a34	8b 85 94 fe ff
	ff		 mov	 eax, DWORD PTR ___param0$[ebp]
  00a3a	89 85 90 fe ff
	ff		 mov	 DWORD PTR $T16[ebp], eax

; 1240 :         return iterator(_Scary->_Myhead->_Left, _Scary);

  00a40	8d 85 90 fe ff
	ff		 lea	 eax, DWORD PTR $T16[ebp]
  00a46	89 85 8c fe ff
	ff		 mov	 DWORD PTR $T15[ebp], eax
; File D:\Metin2 Server Files\mainline\SRC_2014\Metin2Client\SpeedTreeLib\SpeedTreeForestDirectX8.cpp

; 312  : 			itor = m_pMainTreeMap.begin();

  00a4c	8b 85 8c fe ff
	ff		 mov	 eax, DWORD PTR $T15[ebp]
  00a52	8b 00		 mov	 eax, DWORD PTR [eax]
  00a54	89 45 70	 mov	 DWORD PTR _itor$[ebp], eax
$LN24@Render:
; File C:\Program Files (x86)\Microsoft Visual Studio\2019\Community\VC\Tools\MSVC\14.28.29333\include\xtree

; 2047 :         return _STD addressof(_Mypair._Myval2._Myval2);

  00a57	8b 45 6c	 mov	 eax, DWORD PTR _this$[ebp]
  00a5a	83 c0 04	 add	 eax, 4
; File C:\Program Files (x86)\Microsoft Visual Studio\2019\Community\VC\Tools\MSVC\14.28.29333\include\xstddef

; 275  :     return __builtin_addressof(_Val);

  00a5d	89 85 88 fe ff
	ff		 mov	 DWORD PTR $T14[ebp], eax
; File C:\Program Files (x86)\Microsoft Visual Studio\2019\Community\VC\Tools\MSVC\14.28.29333\include\xtree

; 2047 :         return _STD addressof(_Mypair._Myval2._Myval2);

  00a63	8b 85 88 fe ff
	ff		 mov	 eax, DWORD PTR $T14[ebp]
  00a69	89 85 84 fe ff
	ff		 mov	 DWORD PTR __Scary$13[ebp], eax

; 1250 :         return iterator(_Scary->_Myhead, _Scary);

  00a6f	8b 85 84 fe ff
	ff		 mov	 eax, DWORD PTR __Scary$13[ebp]
  00a75	8b 00		 mov	 eax, DWORD PTR [eax]
  00a77	89 85 80 fe ff
	ff		 mov	 DWORD PTR ___param0$[ebp], eax

; 39   :     _Tree_unchecked_const_iterator(_Nodeptr _Pnode, const _Mytree* _Plist) noexcept : _Ptr(_Pnode) {

  00a7d	8b 85 80 fe ff
	ff		 mov	 eax, DWORD PTR ___param0$[ebp]
  00a83	89 85 7c fe ff
	ff		 mov	 DWORD PTR $T12[ebp], eax

; 1250 :         return iterator(_Scary->_Myhead, _Scary);

  00a89	8d 85 7c fe ff
	ff		 lea	 eax, DWORD PTR $T12[ebp]
  00a8f	89 85 78 fe ff
	ff		 mov	 DWORD PTR $T11[ebp], eax

; 232  :         return this->_Ptr == _Right._Ptr;

  00a95	8b 85 78 fe ff
	ff		 mov	 eax, DWORD PTR $T11[ebp]
  00a9b	8b 4d 70	 mov	 ecx, DWORD PTR _itor$[ebp]
  00a9e	3b 08		 cmp	 ecx, DWORD PTR [eax]
  00aa0	75 09		 jne	 SHORT $LN585@Render
  00aa2	c7 45 04 01 00
	00 00		 mov	 DWORD PTR tv1259[ebp], 1
  00aa9	eb 04		 jmp	 SHORT $LN586@Render
$LN585@Render:
  00aab	83 65 04 00	 and	 DWORD PTR tv1259[ebp], 0
$LN586@Render:
  00aaf	8a 45 04	 mov	 al, BYTE PTR tv1259[ebp]
  00ab2	88 45 5d	 mov	 BYTE PTR $T110[ebp], al

; 236  :         return !(*this == _Right);

  00ab5	0f b6 45 5d	 movzx	 eax, BYTE PTR $T110[ebp]
  00ab9	85 c0		 test	 eax, eax
  00abb	75 09		 jne	 SHORT $LN580@Render
  00abd	c7 45 00 01 00
	00 00		 mov	 DWORD PTR tv1235[ebp], 1
  00ac4	eb 04		 jmp	 SHORT $LN581@Render
$LN580@Render:
  00ac6	83 65 00 00	 and	 DWORD PTR tv1235[ebp], 0
$LN581@Render:
  00aca	8a 45 00	 mov	 al, BYTE PTR tv1235[ebp]
  00acd	88 45 5c	 mov	 BYTE PTR $T109[ebp], al
; File D:\Metin2 Server Files\mainline\SRC_2014\Metin2Client\SpeedTreeLib\SpeedTreeForestDirectX8.cpp

; 314  : 			while (itor != m_pMainTreeMap.end())

  00ad0	0f b6 45 5c	 movzx	 eax, BYTE PTR $T109[ebp]
  00ad4	85 c0		 test	 eax, eax
  00ad6	0f 84 cc 00 00
	00		 je	 $LN25@Render
; File C:\Program Files (x86)\Microsoft Visual Studio\2019\Community\VC\Tools\MSVC\14.28.29333\include\xtree

; 286  :         _Tree_iterator _Tmp = *this;

  00adc	8b 45 70	 mov	 eax, DWORD PTR _itor$[ebp]
  00adf	89 85 74 fe ff
	ff		 mov	 DWORD PTR __Tmp$10[ebp], eax

; 198  :         _Mybase::operator++();

  00ae5	8d 4d 70	 lea	 ecx, DWORD PTR _itor$[ebp]
  00ae8	e8 00 00 00 00	 call	 ??E?$_Tree_unchecked_const_iterator@V?$_Tree_val@U?$_Tree_simple_types@U?$pair@$$CBKPAVCSpeedTreeWrapper@@@std@@@std@@@std@@U_Iterator_base0@2@@std@@QAEAAV01@XZ ; std::_Tree_unchecked_const_iterator<std::_Tree_val<std::_Tree_simple_types<std::pair<unsigned long const ,CSpeedTreeWrapper *> > >,std::_Iterator_base0>::operator++

; 288  :         return _Tmp;

  00aed	8b 85 74 fe ff
	ff		 mov	 eax, DWORD PTR __Tmp$10[ebp]
  00af3	89 85 70 fe ff
	ff		 mov	 DWORD PTR $T9[ebp], eax
  00af9	8d 85 70 fe ff
	ff		 lea	 eax, DWORD PTR $T9[ebp]
  00aff	89 85 6c fe ff
	ff		 mov	 DWORD PTR $T8[ebp], eax

; 185  :         return this->_Ptr->_Myval;

  00b05	8b 85 6c fe ff
	ff		 mov	 eax, DWORD PTR $T8[ebp]
  00b0b	8b 00		 mov	 eax, DWORD PTR [eax]
  00b0d	83 c0 10	 add	 eax, 16			; 00000010H
  00b10	89 85 68 fe ff
	ff		 mov	 DWORD PTR $T7[ebp], eax

; 273  :         return const_cast<reference>(_Mybase::operator*());

  00b16	8b 85 68 fe ff
	ff		 mov	 eax, DWORD PTR $T7[ebp]
  00b1c	89 85 64 fe ff
	ff		 mov	 DWORD PTR $T6[ebp], eax
; File C:\Program Files (x86)\Microsoft Visual Studio\2019\Community\VC\Tools\MSVC\14.28.29333\include\xstddef

; 275  :     return __builtin_addressof(_Val);

  00b22	8b 85 64 fe ff
	ff		 mov	 eax, DWORD PTR $T6[ebp]
  00b28	89 85 60 fe ff
	ff		 mov	 DWORD PTR $T5[ebp], eax
; File C:\Program Files (x86)\Microsoft Visual Studio\2019\Community\VC\Tools\MSVC\14.28.29333\include\xutility

; 151  :         return _STD addressof(_Val);

  00b2e	8b 85 60 fe ff
	ff		 mov	 eax, DWORD PTR $T5[ebp]
  00b34	89 85 5c fe ff
	ff		 mov	 DWORD PTR $T4[ebp], eax
; File C:\Program Files (x86)\Microsoft Visual Studio\2019\Community\VC\Tools\MSVC\14.28.29333\include\xtree

; 277  :         return pointer_traits<pointer>::pointer_to(**this);

  00b3a	8b 85 5c fe ff
	ff		 mov	 eax, DWORD PTR $T4[ebp]
  00b40	89 85 58 fe ff
	ff		 mov	 DWORD PTR $T3[ebp], eax
; File D:\Metin2 Server Files\mainline\SRC_2014\Metin2Client\SpeedTreeLib\SpeedTreeForestDirectX8.cpp

; 316  : 				CSpeedTreeWrapper * pMainTree = (itor++)->second;

  00b46	8b 85 58 fe ff
	ff		 mov	 eax, DWORD PTR $T3[ebp]
  00b4c	8b 40 04	 mov	 eax, DWORD PTR [eax+4]
  00b4f	89 45 fc	 mov	 DWORD PTR _pMainTree$97[ebp], eax

; 317  : 				CSpeedTreeWrapper ** ppInstances = pMainTree->GetInstances(uiCount);

  00b52	8d 45 68	 lea	 eax, DWORD PTR _uiCount$[ebp]
  00b55	50		 push	 eax
  00b56	8b 4d fc	 mov	 ecx, DWORD PTR _pMainTree$97[ebp]
  00b59	e8 00 00 00 00	 call	 ?GetInstances@CSpeedTreeWrapper@@QAEPAPAV1@AAI@Z ; CSpeedTreeWrapper::GetInstances
  00b5e	89 45 f8	 mov	 DWORD PTR _ppInstances$96[ebp], eax

; 318  : 
; 319  : 				pMainTree->SetupBranchForTreeType();

  00b61	8b 4d fc	 mov	 ecx, DWORD PTR _pMainTree$97[ebp]
  00b64	e8 00 00 00 00	 call	 ?SetupBranchForTreeType@CSpeedTreeWrapper@@QBEXXZ ; CSpeedTreeWrapper::SetupBranchForTreeType

; 320  : 
; 321  : 				for (UINT i = 0; i < uiCount; ++i)

  00b69	83 65 4c 00	 and	 DWORD PTR _i$105[ebp], 0
  00b6d	eb 07		 jmp	 SHORT $LN28@Render
$LN26@Render:
  00b6f	8b 45 4c	 mov	 eax, DWORD PTR _i$105[ebp]
  00b72	40		 inc	 eax
  00b73	89 45 4c	 mov	 DWORD PTR _i$105[ebp], eax
$LN28@Render:
  00b76	8b 45 4c	 mov	 eax, DWORD PTR _i$105[ebp]
  00b79	3b 45 68	 cmp	 eax, DWORD PTR _uiCount$[ebp]
  00b7c	73 25		 jae	 SHORT $LN27@Render

; 322  : 					if (ppInstances[i]->isShow())

  00b7e	8b 45 4c	 mov	 eax, DWORD PTR _i$105[ebp]
  00b81	8b 4d f8	 mov	 ecx, DWORD PTR _ppInstances$96[ebp]
  00b84	8b 0c 81	 mov	 ecx, DWORD PTR [ecx+eax*4]
  00b87	e8 00 00 00 00	 call	 ?isShow@CGraphicObjectInstance@@QAE_NXZ ; CGraphicObjectInstance::isShow
  00b8c	0f b6 c0	 movzx	 eax, al
  00b8f	85 c0		 test	 eax, eax
  00b91	74 0e		 je	 SHORT $LN46@Render

; 323  : 						ppInstances[i]->RenderBillboards();

  00b93	8b 45 4c	 mov	 eax, DWORD PTR _i$105[ebp]
  00b96	8b 4d f8	 mov	 ecx, DWORD PTR _ppInstances$96[ebp]
  00b99	8b 0c 81	 mov	 ecx, DWORD PTR [ecx+eax*4]
  00b9c	e8 00 00 00 00	 call	 ?RenderBillboards@CSpeedTreeWrapper@@QBEXXZ ; CSpeedTreeWrapper::RenderBillboards
$LN46@Render:
  00ba1	eb cc		 jmp	 SHORT $LN26@Render
$LN27@Render:

; 324  : 			}

  00ba3	e9 af fe ff ff	 jmp	 $LN24@Render
$LN25@Render:

; 325  : 		}
; 326  : 	#endif
; 327  : 
; 328  : 	STATEMANAGER.SetRenderState(D3DRS_LIGHTING, dwLightState);

  00ba8	ff b5 54 fe ff
	ff		 push	 DWORD PTR _dwLightState$[ebp]
  00bae	68 89 00 00 00	 push	 137			; 00000089H
  00bb3	8b 0d 00 00 00
	00		 mov	 ecx, DWORD PTR ?ms_singleton@?$CSingleton@VCStateManager@@@@0PAVCStateManager@@A ; CSingleton<CStateManager>::ms_singleton
  00bb9	e8 00 00 00 00	 call	 ?SetRenderState@CStateManager@@QAEXW4_D3DRENDERSTATETYPE@@K@Z ; CStateManager::SetRenderState

; 329  : 	STATEMANAGER.SetRenderState(D3DRS_COLORVERTEX, dwColorVertexState);

  00bbe	ff b5 50 fe ff
	ff		 push	 DWORD PTR _dwColorVertexState$[ebp]
  00bc4	68 8d 00 00 00	 push	 141			; 0000008dH
  00bc9	8b 0d 00 00 00
	00		 mov	 ecx, DWORD PTR ?ms_singleton@?$CSingleton@VCStateManager@@@@0PAVCStateManager@@A ; CSingleton<CStateManager>::ms_singleton
  00bcf	e8 00 00 00 00	 call	 ?SetRenderState@CStateManager@@QAEXW4_D3DRENDERSTATETYPE@@K@Z ; CStateManager::SetRenderState

; 330  : 	STATEMANAGER.SetRenderState(D3DRS_FOGVERTEXMODE, dwFogVertexMode);

  00bd4	ff b5 4c fe ff
	ff		 push	 DWORD PTR _dwFogVertexMode$[ebp]
  00bda	68 8c 00 00 00	 push	 140			; 0000008cH
  00bdf	8b 0d 00 00 00
	00		 mov	 ecx, DWORD PTR ?ms_singleton@?$CSingleton@VCStateManager@@@@0PAVCStateManager@@A ; CSingleton<CStateManager>::ms_singleton
  00be5	e8 00 00 00 00	 call	 ?SetRenderState@CStateManager@@QAEXW4_D3DRENDERSTATETYPE@@K@Z ; CStateManager::SetRenderState

; 331  : 
; 332  : 	//   TextureStage 1 COLOROP ALPHAOP     
; 333  : 	//  . (   ..)
; 334  : 	if (!(ulRenderBitVector & Forest_RenderToShadow))

  00bea	8b 45 7c	 mov	 eax, DWORD PTR _ulRenderBitVector$[ebp]
  00bed	83 e0 20	 and	 eax, 32			; 00000020H
  00bf0	75 22		 jne	 SHORT $LN47@Render

; 335  : 	{
; 336  : 		STATEMANAGER.SetTextureStageState(1, D3DTSS_COLOROP, D3DTOP_DISABLE);

  00bf2	6a 01		 push	 1
  00bf4	6a 01		 push	 1
  00bf6	6a 01		 push	 1
  00bf8	8b 0d 00 00 00
	00		 mov	 ecx, DWORD PTR ?ms_singleton@?$CSingleton@VCStateManager@@@@0PAVCStateManager@@A ; CSingleton<CStateManager>::ms_singleton
  00bfe	e8 00 00 00 00	 call	 ?SetTextureStageState@CStateManager@@QAEXKW4_D3DTEXTURESTAGESTATETYPE@@K@Z ; CStateManager::SetTextureStageState

; 337  : 		STATEMANAGER.SetTextureStageState(1, D3DTSS_ALPHAOP, D3DTOP_DISABLE);

  00c03	6a 01		 push	 1
  00c05	6a 04		 push	 4
  00c07	6a 01		 push	 1
  00c09	8b 0d 00 00 00
	00		 mov	 ecx, DWORD PTR ?ms_singleton@?$CSingleton@VCStateManager@@@@0PAVCStateManager@@A ; CSingleton<CStateManager>::ms_singleton
  00c0f	e8 00 00 00 00	 call	 ?SetTextureStageState@CStateManager@@QAEXKW4_D3DTEXTURESTAGESTATETYPE@@K@Z ; CStateManager::SetTextureStageState
$LN47@Render:

; 338  : 	}
; 339  : 
; 340  : 	STATEMANAGER.RestoreRenderState(D3DRS_ALPHATESTENABLE);

  00c14	6a 0f		 push	 15			; 0000000fH
  00c16	8b 0d 00 00 00
	00		 mov	 ecx, DWORD PTR ?ms_singleton@?$CSingleton@VCStateManager@@@@0PAVCStateManager@@A ; CSingleton<CStateManager>::ms_singleton
  00c1c	e8 00 00 00 00	 call	 ?RestoreRenderState@CStateManager@@QAEXW4_D3DRENDERSTATETYPE@@@Z ; CStateManager::RestoreRenderState

; 341  : 	STATEMANAGER.RestoreRenderState(D3DRS_ALPHAFUNC);

  00c21	6a 19		 push	 25			; 00000019H
  00c23	8b 0d 00 00 00
	00		 mov	 ecx, DWORD PTR ?ms_singleton@?$CSingleton@VCStateManager@@@@0PAVCStateManager@@A ; CSingleton<CStateManager>::ms_singleton
  00c29	e8 00 00 00 00	 call	 ?RestoreRenderState@CStateManager@@QAEXW4_D3DRENDERSTATETYPE@@@Z ; CStateManager::RestoreRenderState

; 342  : 	STATEMANAGER.RestoreRenderState(D3DRS_CULLMODE);

  00c2e	6a 16		 push	 22			; 00000016H
  00c30	8b 0d 00 00 00
	00		 mov	 ecx, DWORD PTR ?ms_singleton@?$CSingleton@VCStateManager@@@@0PAVCStateManager@@A ; CSingleton<CStateManager>::ms_singleton
  00c36	e8 00 00 00 00	 call	 ?RestoreRenderState@CStateManager@@QAEXW4_D3DRENDERSTATETYPE@@@Z ; CStateManager::RestoreRenderState
$LN1@Render:

; 343  : }

  00c3b	83 c5 74	 add	 ebp, 116		; 00000074H
  00c3e	c9		 leave
  00c3f	c2 04 00	 ret	 4
?Render@CSpeedTreeForestDirectX8@@UAEXK@Z ENDP		; CSpeedTreeForestDirectX8::Render
_TEXT	ENDS
; Function compile flags: /Odspy
; File D:\Metin2 Server Files\mainline\SRC_2014\Metin2Client\SpeedTreeLib\SpeedTreeForestDirectX8.cpp
; File D:\Metin2 Server Files\mainline\SRC_2014\M2Data\include\d3dx8math.inl
; File D:\Metin2 Server Files\mainline\SRC_2014\Metin2Client\SpeedTreeLib\SpeedTreeForestDirectX8.cpp
;	COMDAT ?UpdateCompundMatrix@CSpeedTreeForestDirectX8@@QAEXABUD3DXVECTOR3@@ABUD3DXMATRIX@@1@Z
_TEXT	SEGMENT
_this$ = -40						; size = 4
_matBlendShader$ = -36					; size = 64
_matBlend$ = 28						; size = 64
_afDirection$ = 92					; size = 12
__$ArrayPad$ = 104					; size = 4
_c_rEyeVec$ = 116					; size = 4
_c_rmatView$ = 120					; size = 4
_c_rmatProj$ = 124					; size = 4
?UpdateCompundMatrix@CSpeedTreeForestDirectX8@@QAEXABUD3DXVECTOR3@@ABUD3DXMATRIX@@1@Z PROC ; CSpeedTreeForestDirectX8::UpdateCompundMatrix, COMDAT
; _this$ = ecx

; 121  : {

  00000	55		 push	 ebp
  00001	8d 6c 24 94	 lea	 ebp, DWORD PTR [esp-108]
  00005	81 ec 94 00 00
	00		 sub	 esp, 148		; 00000094H
  0000b	a1 00 00 00 00	 mov	 eax, DWORD PTR ___security_cookie
  00010	33 c5		 xor	 eax, ebp
  00012	89 45 68	 mov	 DWORD PTR __$ArrayPad$[ebp], eax
  00015	89 4d d8	 mov	 DWORD PTR _this$[ebp], ecx
; File D:\Metin2 Server Files\mainline\SRC_2014\M2Data\include\d3dx8math.inl

; 1516 :     pOut->m[0][1] = pOut->m[0][2] = pOut->m[0][3] =

  00018	6a 10		 push	 16			; 00000010H
  0001a	58		 pop	 eax
  0001b	6b c0 03	 imul	 eax, eax, 3
  0001e	8d 44 05 1c	 lea	 eax, DWORD PTR _matBlend$[ebp+eax]
  00022	6a 04		 push	 4
  00024	59		 pop	 ecx
  00025	d1 e1		 shl	 ecx, 1
  00027	0f 57 c0	 xorps	 xmm0, xmm0
  0002a	f3 0f 11 04 08	 movss	 DWORD PTR [eax+ecx], xmm0
  0002f	6a 10		 push	 16			; 00000010H
  00031	58		 pop	 eax
  00032	6b c0 03	 imul	 eax, eax, 3
  00035	8d 44 05 1c	 lea	 eax, DWORD PTR _matBlend$[ebp+eax]
  00039	6a 04		 push	 4
  0003b	59		 pop	 ecx
  0003c	c1 e1 00	 shl	 ecx, 0
  0003f	0f 57 c0	 xorps	 xmm0, xmm0
  00042	f3 0f 11 04 08	 movss	 DWORD PTR [eax+ecx], xmm0
  00047	6a 10		 push	 16			; 00000010H
  00049	58		 pop	 eax
  0004a	6b c0 03	 imul	 eax, eax, 3
  0004d	8d 44 05 1c	 lea	 eax, DWORD PTR _matBlend$[ebp+eax]
  00051	6a 04		 push	 4
  00053	59		 pop	 ecx
  00054	6b c9 00	 imul	 ecx, ecx, 0
  00057	0f 57 c0	 xorps	 xmm0, xmm0
  0005a	f3 0f 11 04 08	 movss	 DWORD PTR [eax+ecx], xmm0
  0005f	6a 10		 push	 16			; 00000010H
  00061	58		 pop	 eax
  00062	d1 e0		 shl	 eax, 1
  00064	8d 44 05 1c	 lea	 eax, DWORD PTR _matBlend$[ebp+eax]
  00068	6a 04		 push	 4
  0006a	59		 pop	 ecx
  0006b	6b c9 03	 imul	 ecx, ecx, 3
  0006e	0f 57 c0	 xorps	 xmm0, xmm0
  00071	f3 0f 11 04 08	 movss	 DWORD PTR [eax+ecx], xmm0
  00076	6a 10		 push	 16			; 00000010H
  00078	58		 pop	 eax
  00079	d1 e0		 shl	 eax, 1
  0007b	8d 44 05 1c	 lea	 eax, DWORD PTR _matBlend$[ebp+eax]
  0007f	6a 04		 push	 4
  00081	59		 pop	 ecx
  00082	c1 e1 00	 shl	 ecx, 0
  00085	0f 57 c0	 xorps	 xmm0, xmm0
  00088	f3 0f 11 04 08	 movss	 DWORD PTR [eax+ecx], xmm0
  0008d	6a 10		 push	 16			; 00000010H
  0008f	58		 pop	 eax
  00090	d1 e0		 shl	 eax, 1
  00092	8d 44 05 1c	 lea	 eax, DWORD PTR _matBlend$[ebp+eax]
  00096	6a 04		 push	 4
  00098	59		 pop	 ecx
  00099	6b c9 00	 imul	 ecx, ecx, 0
  0009c	0f 57 c0	 xorps	 xmm0, xmm0
  0009f	f3 0f 11 04 08	 movss	 DWORD PTR [eax+ecx], xmm0
  000a4	6a 10		 push	 16			; 00000010H
  000a6	58		 pop	 eax
  000a7	c1 e0 00	 shl	 eax, 0
  000aa	8d 44 05 1c	 lea	 eax, DWORD PTR _matBlend$[ebp+eax]
  000ae	6a 04		 push	 4
  000b0	59		 pop	 ecx
  000b1	6b c9 03	 imul	 ecx, ecx, 3
  000b4	0f 57 c0	 xorps	 xmm0, xmm0
  000b7	f3 0f 11 04 08	 movss	 DWORD PTR [eax+ecx], xmm0
  000bc	6a 10		 push	 16			; 00000010H
  000be	58		 pop	 eax
  000bf	c1 e0 00	 shl	 eax, 0
  000c2	8d 44 05 1c	 lea	 eax, DWORD PTR _matBlend$[ebp+eax]
  000c6	6a 04		 push	 4
  000c8	59		 pop	 ecx
  000c9	d1 e1		 shl	 ecx, 1
  000cb	0f 57 c0	 xorps	 xmm0, xmm0
  000ce	f3 0f 11 04 08	 movss	 DWORD PTR [eax+ecx], xmm0
  000d3	6a 10		 push	 16			; 00000010H
  000d5	58		 pop	 eax
  000d6	c1 e0 00	 shl	 eax, 0
  000d9	8d 44 05 1c	 lea	 eax, DWORD PTR _matBlend$[ebp+eax]
  000dd	6a 04		 push	 4
  000df	59		 pop	 ecx
  000e0	6b c9 00	 imul	 ecx, ecx, 0
  000e3	0f 57 c0	 xorps	 xmm0, xmm0
  000e6	f3 0f 11 04 08	 movss	 DWORD PTR [eax+ecx], xmm0
  000eb	6a 10		 push	 16			; 00000010H
  000ed	58		 pop	 eax
  000ee	6b c0 00	 imul	 eax, eax, 0
  000f1	8d 44 05 1c	 lea	 eax, DWORD PTR _matBlend$[ebp+eax]
  000f5	6a 04		 push	 4
  000f7	59		 pop	 ecx
  000f8	6b c9 03	 imul	 ecx, ecx, 3
  000fb	0f 57 c0	 xorps	 xmm0, xmm0
  000fe	f3 0f 11 04 08	 movss	 DWORD PTR [eax+ecx], xmm0
  00103	6a 10		 push	 16			; 00000010H
  00105	58		 pop	 eax
  00106	6b c0 00	 imul	 eax, eax, 0
  00109	8d 44 05 1c	 lea	 eax, DWORD PTR _matBlend$[ebp+eax]
  0010d	6a 04		 push	 4
  0010f	59		 pop	 ecx
  00110	d1 e1		 shl	 ecx, 1
  00112	0f 57 c0	 xorps	 xmm0, xmm0
  00115	f3 0f 11 04 08	 movss	 DWORD PTR [eax+ecx], xmm0
  0011a	6a 10		 push	 16			; 00000010H
  0011c	58		 pop	 eax
  0011d	6b c0 00	 imul	 eax, eax, 0
  00120	8d 44 05 1c	 lea	 eax, DWORD PTR _matBlend$[ebp+eax]
  00124	6a 04		 push	 4
  00126	59		 pop	 ecx
  00127	c1 e1 00	 shl	 ecx, 0
  0012a	0f 57 c0	 xorps	 xmm0, xmm0
  0012d	f3 0f 11 04 08	 movss	 DWORD PTR [eax+ecx], xmm0

; 1517 :     pOut->m[1][0] = pOut->m[1][2] = pOut->m[1][3] =
; 1518 :     pOut->m[2][0] = pOut->m[2][1] = pOut->m[2][3] =
; 1519 :     pOut->m[3][0] = pOut->m[3][1] = pOut->m[3][2] = 0.0f;
; 1520 : 
; 1521 :     pOut->m[0][0] = pOut->m[1][1] = pOut->m[2][2] = pOut->m[3][3] = 1.0f;

  00132	6a 10		 push	 16			; 00000010H
  00134	58		 pop	 eax
  00135	6b c0 03	 imul	 eax, eax, 3
  00138	8d 44 05 1c	 lea	 eax, DWORD PTR _matBlend$[ebp+eax]
  0013c	6a 04		 push	 4
  0013e	59		 pop	 ecx
  0013f	6b c9 03	 imul	 ecx, ecx, 3
  00142	f3 0f 10 05 00
	00 00 00	 movss	 xmm0, DWORD PTR __real@3f800000
  0014a	f3 0f 11 04 08	 movss	 DWORD PTR [eax+ecx], xmm0
  0014f	6a 10		 push	 16			; 00000010H
  00151	58		 pop	 eax
  00152	d1 e0		 shl	 eax, 1
  00154	8d 44 05 1c	 lea	 eax, DWORD PTR _matBlend$[ebp+eax]
  00158	6a 04		 push	 4
  0015a	59		 pop	 ecx
  0015b	d1 e1		 shl	 ecx, 1
  0015d	f3 0f 10 05 00
	00 00 00	 movss	 xmm0, DWORD PTR __real@3f800000
  00165	f3 0f 11 04 08	 movss	 DWORD PTR [eax+ecx], xmm0
  0016a	6a 10		 push	 16			; 00000010H
  0016c	58		 pop	 eax
  0016d	c1 e0 00	 shl	 eax, 0
  00170	8d 44 05 1c	 lea	 eax, DWORD PTR _matBlend$[ebp+eax]
  00174	6a 04		 push	 4
  00176	59		 pop	 ecx
  00177	c1 e1 00	 shl	 ecx, 0
  0017a	f3 0f 10 05 00
	00 00 00	 movss	 xmm0, DWORD PTR __real@3f800000
  00182	f3 0f 11 04 08	 movss	 DWORD PTR [eax+ecx], xmm0
  00187	6a 10		 push	 16			; 00000010H
  00189	58		 pop	 eax
  0018a	6b c0 00	 imul	 eax, eax, 0
  0018d	8d 44 05 1c	 lea	 eax, DWORD PTR _matBlend$[ebp+eax]
  00191	6a 04		 push	 4
  00193	59		 pop	 ecx
  00194	6b c9 00	 imul	 ecx, ecx, 0
  00197	f3 0f 10 05 00
	00 00 00	 movss	 xmm0, DWORD PTR __real@3f800000
  0019f	f3 0f 11 04 08	 movss	 DWORD PTR [eax+ecx], xmm0
; File D:\Metin2 Server Files\mainline\SRC_2014\Metin2Client\SpeedTreeLib\SpeedTreeForestDirectX8.cpp

; 127  : 	D3DXMatrixMultiply(&matBlendShader, &c_rmatView, &c_rmatProj);

  001a4	ff 75 7c	 push	 DWORD PTR _c_rmatProj$[ebp]
  001a7	ff 75 78	 push	 DWORD PTR _c_rmatView$[ebp]
  001aa	8d 45 dc	 lea	 eax, DWORD PTR _matBlendShader$[ebp]
  001ad	50		 push	 eax
  001ae	e8 00 00 00 00	 call	 _D3DXMatrixMultiply@12

; 128  : 
; 129  : 	float afDirection[3];
; 130  : 	afDirection[0] = matBlendShader.m[0][2];

  001b3	6a 10		 push	 16			; 00000010H
  001b5	58		 pop	 eax
  001b6	6b c0 00	 imul	 eax, eax, 0
  001b9	8d 44 05 dc	 lea	 eax, DWORD PTR _matBlendShader$[ebp+eax]
  001bd	6a 04		 push	 4
  001bf	59		 pop	 ecx
  001c0	d1 e1		 shl	 ecx, 1
  001c2	6a 04		 push	 4
  001c4	5a		 pop	 edx
  001c5	6b d2 00	 imul	 edx, edx, 0
  001c8	8b 04 08	 mov	 eax, DWORD PTR [eax+ecx]
  001cb	89 44 15 5c	 mov	 DWORD PTR _afDirection$[ebp+edx], eax

; 131  : 	afDirection[1] = matBlendShader.m[1][2];

  001cf	6a 10		 push	 16			; 00000010H
  001d1	58		 pop	 eax
  001d2	c1 e0 00	 shl	 eax, 0
  001d5	8d 44 05 dc	 lea	 eax, DWORD PTR _matBlendShader$[ebp+eax]
  001d9	6a 04		 push	 4
  001db	59		 pop	 ecx
  001dc	d1 e1		 shl	 ecx, 1
  001de	6a 04		 push	 4
  001e0	5a		 pop	 edx
  001e1	c1 e2 00	 shl	 edx, 0
  001e4	8b 04 08	 mov	 eax, DWORD PTR [eax+ecx]
  001e7	89 44 15 5c	 mov	 DWORD PTR _afDirection$[ebp+edx], eax

; 132  : 	afDirection[2] = matBlendShader.m[2][2];

  001eb	6a 10		 push	 16			; 00000010H
  001ed	58		 pop	 eax
  001ee	d1 e0		 shl	 eax, 1
  001f0	8d 44 05 dc	 lea	 eax, DWORD PTR _matBlendShader$[ebp+eax]
  001f4	6a 04		 push	 4
  001f6	59		 pop	 ecx
  001f7	d1 e1		 shl	 ecx, 1
  001f9	6a 04		 push	 4
  001fb	5a		 pop	 edx
  001fc	d1 e2		 shl	 edx, 1
  001fe	8b 04 08	 mov	 eax, DWORD PTR [eax+ecx]
  00201	89 44 15 5c	 mov	 DWORD PTR _afDirection$[ebp+edx], eax

; 133  : 	CSpeedTreeRT::SetCamera(c_rEyeVec, afDirection);

  00205	8d 45 5c	 lea	 eax, DWORD PTR _afDirection$[ebp]
  00208	50		 push	 eax
  00209	ff 75 74	 push	 DWORD PTR _c_rEyeVec$[ebp]
  0020c	e8 00 00 00 00	 call	 ?SetCamera@CSpeedTreeRT@@SAXPBM0@Z ; CSpeedTreeRT::SetCamera
  00211	59		 pop	 ecx
  00212	59		 pop	 ecx

; 134  : 
; 135  : 	D3DXMatrixTranspose(&matBlendShader, &matBlendShader);

  00213	8d 45 dc	 lea	 eax, DWORD PTR _matBlendShader$[ebp]
  00216	50		 push	 eax
  00217	8d 45 dc	 lea	 eax, DWORD PTR _matBlendShader$[ebp]
  0021a	50		 push	 eax
  0021b	e8 00 00 00 00	 call	 _D3DXMatrixTranspose@8

; 136  : 	STATEMANAGER.SetVertexShaderConstant(c_nVertexShader_CompoundMatrix, &matBlendShader, 4);

  00220	6a 04		 push	 4
  00222	8d 45 dc	 lea	 eax, DWORD PTR _matBlendShader$[ebp]
  00225	50		 push	 eax
  00226	6a 00		 push	 0
  00228	8b 0d 00 00 00
	00		 mov	 ecx, DWORD PTR ?ms_singleton@?$CSingleton@VCStateManager@@@@0PAVCStateManager@@A ; CSingleton<CStateManager>::ms_singleton
  0022e	e8 00 00 00 00	 call	 ?SetVertexShaderConstant@CStateManager@@QAEXKPBXK@Z ; CStateManager::SetVertexShaderConstant

; 137  : }

  00233	8b 4d 68	 mov	 ecx, DWORD PTR __$ArrayPad$[ebp]
  00236	33 cd		 xor	 ecx, ebp
  00238	e8 00 00 00 00	 call	 @__security_check_cookie@4
  0023d	83 c5 6c	 add	 ebp, 108		; 0000006cH
  00240	c9		 leave
  00241	c2 0c 00	 ret	 12			; 0000000cH
?UpdateCompundMatrix@CSpeedTreeForestDirectX8@@QAEXABUD3DXVECTOR3@@ABUD3DXMATRIX@@1@Z ENDP ; CSpeedTreeForestDirectX8::UpdateCompundMatrix
_TEXT	ENDS
; Function compile flags: /Odspy
; File D:\Metin2 Server Files\mainline\SRC_2014\Metin2Client\SpeedTreeLib\SpeedTreeForestDirectX8.cpp
;	COMDAT ?UploadWindMatrix@CSpeedTreeForestDirectX8@@UBEXIPBM@Z
_TEXT	SEGMENT
_this$ = -4						; size = 4
_uiLocation$ = 8					; size = 4
_pMatrix$ = 12						; size = 4
?UploadWindMatrix@CSpeedTreeForestDirectX8@@UBEXIPBM@Z PROC ; CSpeedTreeForestDirectX8::UploadWindMatrix, COMDAT
; _this$ = ecx

; 116  : {

  00000	55		 push	 ebp
  00001	8b ec		 mov	 ebp, esp
  00003	51		 push	 ecx
  00004	89 4d fc	 mov	 DWORD PTR _this$[ebp], ecx

; 117  : 	STATEMANAGER.SetVertexShaderConstant(uiLocation, pMatrix, 4);

  00007	6a 04		 push	 4
  00009	ff 75 0c	 push	 DWORD PTR _pMatrix$[ebp]
  0000c	ff 75 08	 push	 DWORD PTR _uiLocation$[ebp]
  0000f	8b 0d 00 00 00
	00		 mov	 ecx, DWORD PTR ?ms_singleton@?$CSingleton@VCStateManager@@@@0PAVCStateManager@@A ; CSingleton<CStateManager>::ms_singleton
  00015	e8 00 00 00 00	 call	 ?SetVertexShaderConstant@CStateManager@@QAEXKPBXK@Z ; CStateManager::SetVertexShaderConstant

; 118  : }

  0001a	c9		 leave
  0001b	c2 08 00	 ret	 8
?UploadWindMatrix@CSpeedTreeForestDirectX8@@UBEXIPBM@Z ENDP ; CSpeedTreeForestDirectX8::UploadWindMatrix
_TEXT	ENDS
; Function compile flags: /Odspy
; File D:\Metin2 Server Files\mainline\SRC_2014\Metin2Client\SpeedTreeLib\SpeedTreeForestDirectX8.cpp
; File D:\Metin2 Server Files\mainline\SRC_2014\Metin2Client\eterbase\Singleton.h
; File D:\Metin2 Server Files\mainline\SRC_2014\Metin2Client\SpeedTreeLib\SpeedTreeForestDirectX8.cpp
;	COMDAT ??1CSpeedTreeForestDirectX8@@UAE@XZ
_TEXT	SEGMENT
_this$ = -4						; size = 4
??1CSpeedTreeForestDirectX8@@UAE@XZ PROC		; CSpeedTreeForestDirectX8::~CSpeedTreeForestDirectX8, COMDAT
; _this$ = ecx

; 57   : {

  00000	55		 push	 ebp
  00001	8b ec		 mov	 ebp, esp
  00003	51		 push	 ecx
  00004	89 4d fc	 mov	 DWORD PTR _this$[ebp], ecx
  00007	8b 45 fc	 mov	 eax, DWORD PTR _this$[ebp]
  0000a	c7 00 00 00 00
	00		 mov	 DWORD PTR [eax], OFFSET ??_7CSpeedTreeForestDirectX8@@6BCSpeedTreeForest@@@
  00010	8b 45 fc	 mov	 eax, DWORD PTR _this$[ebp]
  00013	c7 40 6c 00 00
	00 00		 mov	 DWORD PTR [eax+108], OFFSET ??_7CSpeedTreeForestDirectX8@@6BCGraphicBase@@@
  0001a	8b 45 fc	 mov	 eax, DWORD PTR _this$[ebp]
  0001d	c7 40 70 00 00
	00 00		 mov	 DWORD PTR [eax+112], OFFSET ??_7CSpeedTreeForestDirectX8@@6B?$CSingleton@VCSpeedTreeForestDirectX8@@@@@
; File D:\Metin2 Server Files\mainline\SRC_2014\Metin2Client\eterbase\Singleton.h

; 19   : 	{ 

  00024	8b 45 fc	 mov	 eax, DWORD PTR _this$[ebp]
  00027	c7 40 70 00 00
	00 00		 mov	 DWORD PTR [eax+112], OFFSET ??_7?$CSingleton@VCSpeedTreeForestDirectX8@@@@6B@

; 20   : 		assert(ms_singleton);
; 21   : 		ms_singleton = 0; 

  0002e	83 25 00 00 00
	00 00		 and	 DWORD PTR ?ms_singleton@?$CSingleton@VCSpeedTreeForestDirectX8@@@@0PAVCSpeedTreeForestDirectX8@@A, 0 ; CSingleton<CSpeedTreeForestDirectX8>::ms_singleton
; File D:\Metin2 Server Files\mainline\SRC_2014\Metin2Client\SpeedTreeLib\SpeedTreeForestDirectX8.cpp

; 58   : }

  00035	8b 4d fc	 mov	 ecx, DWORD PTR _this$[ebp]
  00038	83 c1 6c	 add	 ecx, 108		; 0000006cH
  0003b	e8 00 00 00 00	 call	 ??1CGraphicBase@@UAE@XZ	; CGraphicBase::~CGraphicBase
  00040	8b 4d fc	 mov	 ecx, DWORD PTR _this$[ebp]
  00043	e8 00 00 00 00	 call	 ??1CSpeedTreeForest@@UAE@XZ ; CSpeedTreeForest::~CSpeedTreeForest
  00048	c9		 leave
  00049	c3		 ret	 0
??1CSpeedTreeForestDirectX8@@UAE@XZ ENDP		; CSpeedTreeForestDirectX8::~CSpeedTreeForestDirectX8
_TEXT	ENDS
; Function compile flags: /Odspy
; File D:\Metin2 Server Files\mainline\SRC_2014\Metin2Client\SpeedTreeLib\SpeedTreeForestDirectX8.cpp
; File D:\Metin2 Server Files\mainline\SRC_2014\Metin2Client\eterbase\Singleton.h
; File D:\Metin2 Server Files\mainline\SRC_2014\Metin2Client\SpeedTreeLib\SpeedTreeForestDirectX8.cpp
;	COMDAT ??0CSpeedTreeForestDirectX8@@QAE@XZ
_TEXT	SEGMENT
_offset$2 = -28						; size = 4
_this$ = -24						; size = 4
tv156 = -20						; size = 4
_this$ = -16						; size = 4
__$EHRec$ = -12						; size = 12
??0CSpeedTreeForestDirectX8@@QAE@XZ PROC		; CSpeedTreeForestDirectX8::CSpeedTreeForestDirectX8, COMDAT
; _this$ = ecx

; 49   : {

  00000	55		 push	 ebp
  00001	8b ec		 mov	 ebp, esp
  00003	6a ff		 push	 -1
  00005	68 00 00 00 00	 push	 __ehhandler$??0CSpeedTreeForestDirectX8@@QAE@XZ
  0000a	64 a1 00 00 00
	00		 mov	 eax, DWORD PTR fs:0
  00010	50		 push	 eax
  00011	83 ec 10	 sub	 esp, 16			; 00000010H
  00014	a1 00 00 00 00	 mov	 eax, DWORD PTR ___security_cookie
  00019	33 c5		 xor	 eax, ebp
  0001b	50		 push	 eax
  0001c	8d 45 f4	 lea	 eax, DWORD PTR __$EHRec$[ebp]
  0001f	64 a3 00 00 00
	00		 mov	 DWORD PTR fs:0, eax
  00025	89 4d f0	 mov	 DWORD PTR _this$[ebp], ecx
  00028	8b 4d f0	 mov	 ecx, DWORD PTR _this$[ebp]
  0002b	e8 00 00 00 00	 call	 ??0CSpeedTreeForest@@QAE@XZ ; CSpeedTreeForest::CSpeedTreeForest
  00030	83 65 fc 00	 and	 DWORD PTR __$EHRec$[ebp+8], 0
  00034	8b 4d f0	 mov	 ecx, DWORD PTR _this$[ebp]
  00037	83 c1 6c	 add	 ecx, 108		; 0000006cH
  0003a	e8 00 00 00 00	 call	 ??0CGraphicBase@@QAE@XZ	; CGraphicBase::CGraphicBase
  0003f	8b 45 f0	 mov	 eax, DWORD PTR _this$[ebp]
  00042	83 c0 70	 add	 eax, 112		; 00000070H
  00045	89 45 e8	 mov	 DWORD PTR _this$[ebp], eax
; File D:\Metin2 Server Files\mainline\SRC_2014\Metin2Client\eterbase\Singleton.h

; 12   : 	{ 

  00048	8b 45 e8	 mov	 eax, DWORD PTR _this$[ebp]
  0004b	c7 00 00 00 00
	00		 mov	 DWORD PTR [eax], OFFSET ??_7?$CSingleton@VCSpeedTreeForestDirectX8@@@@6B@

; 13   : 		assert(!ms_singleton);
; 14   : 		int offset = (int) (T*) 1 - (int) (CSingleton <T>*) (T*) 1; 

  00051	33 c0		 xor	 eax, eax
  00053	40		 inc	 eax
  00054	74 0a		 je	 SHORT $LN8@CSpeedTree
  00056	33 c0		 xor	 eax, eax
  00058	83 c0 71	 add	 eax, 113		; 00000071H
  0005b	89 45 ec	 mov	 DWORD PTR tv156[ebp], eax
  0005e	eb 04		 jmp	 SHORT $LN9@CSpeedTree
$LN8@CSpeedTree:
  00060	83 65 ec 00	 and	 DWORD PTR tv156[ebp], 0
$LN9@CSpeedTree:
  00064	33 c0		 xor	 eax, eax
  00066	40		 inc	 eax
  00067	2b 45 ec	 sub	 eax, DWORD PTR tv156[ebp]
  0006a	89 45 e4	 mov	 DWORD PTR _offset$2[ebp], eax

; 15   : 		ms_singleton = (T*) ((int) this + offset);

  0006d	8b 45 e8	 mov	 eax, DWORD PTR _this$[ebp]
  00070	03 45 e4	 add	 eax, DWORD PTR _offset$2[ebp]
  00073	a3 00 00 00 00	 mov	 DWORD PTR ?ms_singleton@?$CSingleton@VCSpeedTreeForestDirectX8@@@@0PAVCSpeedTreeForestDirectX8@@A, eax ; CSingleton<CSpeedTreeForestDirectX8>::ms_singleton
; File D:\Metin2 Server Files\mainline\SRC_2014\Metin2Client\SpeedTreeLib\SpeedTreeForestDirectX8.cpp

; 49   : {

  00078	8b 45 f0	 mov	 eax, DWORD PTR _this$[ebp]
  0007b	c7 00 00 00 00
	00		 mov	 DWORD PTR [eax], OFFSET ??_7CSpeedTreeForestDirectX8@@6BCSpeedTreeForest@@@
  00081	8b 45 f0	 mov	 eax, DWORD PTR _this$[ebp]
  00084	c7 40 6c 00 00
	00 00		 mov	 DWORD PTR [eax+108], OFFSET ??_7CSpeedTreeForestDirectX8@@6BCGraphicBase@@@
  0008b	8b 45 f0	 mov	 eax, DWORD PTR _this$[ebp]
  0008e	c7 40 70 00 00
	00 00		 mov	 DWORD PTR [eax+112], OFFSET ??_7CSpeedTreeForestDirectX8@@6B?$CSingleton@VCSpeedTreeForestDirectX8@@@@@

; 48   : CSpeedTreeForestDirectX8::CSpeedTreeForestDirectX8()  : m_dwBranchVertexShader(0), m_dwLeafVertexShader(0)

  00095	8b 45 f0	 mov	 eax, DWORD PTR _this$[ebp]
  00098	83 60 78 00	 and	 DWORD PTR [eax+120], 0
  0009c	8b 45 f0	 mov	 eax, DWORD PTR _this$[ebp]
  0009f	83 60 7c 00	 and	 DWORD PTR [eax+124], 0

; 50   : }

  000a3	83 4d fc ff	 or	 DWORD PTR __$EHRec$[ebp+8], -1
  000a7	8b 45 f0	 mov	 eax, DWORD PTR _this$[ebp]
  000aa	8b 4d f4	 mov	 ecx, DWORD PTR __$EHRec$[ebp]
  000ad	64 89 0d 00 00
	00 00		 mov	 DWORD PTR fs:0, ecx
  000b4	59		 pop	 ecx
  000b5	c9		 leave
  000b6	c3		 ret	 0
_TEXT	ENDS
;	COMDAT text$x
text$x	SEGMENT
__unwindfunclet$??0CSpeedTreeForestDirectX8@@QAE@XZ$0:
  00000	8b 4d f0	 mov	 ecx, DWORD PTR _this$[ebp]
  00003	e9 00 00 00 00	 jmp	 ??1CSpeedTreeForest@@UAE@XZ ; CSpeedTreeForest::~CSpeedTreeForest
  00008	cc		 int	 3
  00009	cc		 int	 3
  0000a	cc		 int	 3
  0000b	cc		 int	 3
  0000c	cc		 int	 3
__ehhandler$??0CSpeedTreeForestDirectX8@@QAE@XZ:
  0000d	90		 npad	 1
  0000e	90		 npad	 1
  0000f	8b 54 24 08	 mov	 edx, DWORD PTR [esp+8]
  00013	8d 42 0c	 lea	 eax, DWORD PTR [edx+12]
  00016	8b 4a ec	 mov	 ecx, DWORD PTR [edx-20]
  00019	33 c8		 xor	 ecx, eax
  0001b	e8 00 00 00 00	 call	 @__security_check_cookie@4
  00020	b8 00 00 00 00	 mov	 eax, OFFSET __ehfuncinfo$??0CSpeedTreeForestDirectX8@@QAE@XZ
  00025	e9 00 00 00 00	 jmp	 ___CxxFrameHandler3
text$x	ENDS
??0CSpeedTreeForestDirectX8@@QAE@XZ ENDP		; CSpeedTreeForestDirectX8::CSpeedTreeForestDirectX8
; Function compile flags: /Odspy
; File D:\Metin2 Server Files\mainline\SRC_2014\Metin2Client\eterbase\Singleton.h
;	COMDAT ??_G?$CSingleton@VCSpeedTreeForestDirectX8@@@@UAEPAXI@Z
_TEXT	SEGMENT
_this$ = -4						; size = 4
___flags$ = 8						; size = 4
??_G?$CSingleton@VCSpeedTreeForestDirectX8@@@@UAEPAXI@Z PROC ; CSingleton<CSpeedTreeForestDirectX8>::`scalar deleting destructor', COMDAT
; _this$ = ecx
  00000	55		 push	 ebp
  00001	8b ec		 mov	 ebp, esp
  00003	51		 push	 ecx
  00004	89 4d fc	 mov	 DWORD PTR _this$[ebp], ecx

; 19   : 	{ 

  00007	8b 45 fc	 mov	 eax, DWORD PTR _this$[ebp]
  0000a	c7 00 00 00 00
	00		 mov	 DWORD PTR [eax], OFFSET ??_7?$CSingleton@VCSpeedTreeForestDirectX8@@@@6B@

; 20   : 		assert(ms_singleton);
; 21   : 		ms_singleton = 0; 

  00010	83 25 00 00 00
	00 00		 and	 DWORD PTR ?ms_singleton@?$CSingleton@VCSpeedTreeForestDirectX8@@@@0PAVCSpeedTreeForestDirectX8@@A, 0 ; CSingleton<CSpeedTreeForestDirectX8>::ms_singleton
  00017	8b 45 08	 mov	 eax, DWORD PTR ___flags$[ebp]
  0001a	83 e0 01	 and	 eax, 1
  0001d	74 0c		 je	 SHORT $LN2@scalar
  0001f	6a 04		 push	 4
  00021	ff 75 fc	 push	 DWORD PTR _this$[ebp]
  00024	e8 00 00 00 00	 call	 ??3@YAXPAXI@Z		; operator delete
  00029	59		 pop	 ecx
  0002a	59		 pop	 ecx
$LN2@scalar:
  0002b	8b 45 fc	 mov	 eax, DWORD PTR _this$[ebp]
  0002e	c9		 leave
  0002f	c2 04 00	 ret	 4
??_G?$CSingleton@VCSpeedTreeForestDirectX8@@@@UAEPAXI@Z ENDP ; CSingleton<CSpeedTreeForestDirectX8>::`scalar deleting destructor'
_TEXT	ENDS
; Function compile flags: /Odspy
; File C:\Program Files (x86)\Microsoft Visual Studio\2019\Community\VC\Tools\MSVC\14.28.29333\include\xtree
; File C:\Program Files (x86)\Microsoft Visual Studio\2019\Community\VC\Tools\MSVC\14.28.29333\include\xstddef
; File C:\Program Files (x86)\Microsoft Visual Studio\2019\Community\VC\Tools\MSVC\14.28.29333\include\xtree
;	COMDAT ?empty@?$_Tree@V?$_Tmap_traits@KPAVCSpeedTreeWrapper@@U?$less@K@std@@V?$allocator@U?$pair@$$CBKPAVCSpeedTreeWrapper@@@std@@@3@$0A@@std@@@std@@QBE_NXZ
_TEXT	SEGMENT
$T1 = -20						; size = 4
$T2 = -16						; size = 4
$T3 = -12						; size = 4
_this$ = -8						; size = 4
tv67 = -4						; size = 4
?empty@?$_Tree@V?$_Tmap_traits@KPAVCSpeedTreeWrapper@@U?$less@K@std@@V?$allocator@U?$pair@$$CBKPAVCSpeedTreeWrapper@@@std@@@3@$0A@@std@@@std@@QBE_NXZ PROC ; std::_Tree<std::_Tmap_traits<unsigned long,CSpeedTreeWrapper *,std::less<unsigned long>,std::allocator<std::pair<unsigned long const ,CSpeedTreeWrapper *> >,0> >::empty, COMDAT
; _this$ = ecx

; 1315 :     _NODISCARD bool empty() const noexcept {

  00000	55		 push	 ebp
  00001	8b ec		 mov	 ebp, esp
  00003	83 ec 14	 sub	 esp, 20			; 00000014H
  00006	89 4d f8	 mov	 DWORD PTR _this$[ebp], ecx

; 2051 :         return _STD addressof(_Mypair._Myval2._Myval2);

  00009	8b 45 f8	 mov	 eax, DWORD PTR _this$[ebp]
; File C:\Program Files (x86)\Microsoft Visual Studio\2019\Community\VC\Tools\MSVC\14.28.29333\include\xstddef

; 275  :     return __builtin_addressof(_Val);

  0000c	89 45 f4	 mov	 DWORD PTR $T3[ebp], eax
; File C:\Program Files (x86)\Microsoft Visual Studio\2019\Community\VC\Tools\MSVC\14.28.29333\include\xtree

; 2051 :         return _STD addressof(_Mypair._Myval2._Myval2);

  0000f	8b 45 f4	 mov	 eax, DWORD PTR $T3[ebp]
  00012	89 45 f0	 mov	 DWORD PTR $T2[ebp], eax

; 1307 :         return _Get_scary()->_Mysize;

  00015	8b 45 f0	 mov	 eax, DWORD PTR $T2[ebp]
  00018	8b 40 04	 mov	 eax, DWORD PTR [eax+4]
  0001b	89 45 ec	 mov	 DWORD PTR $T1[ebp], eax

; 1316 :         return size() == 0;

  0001e	83 7d ec 00	 cmp	 DWORD PTR $T1[ebp], 0
  00022	75 09		 jne	 SHORT $LN3@empty
  00024	c7 45 fc 01 00
	00 00		 mov	 DWORD PTR tv67[ebp], 1
  0002b	eb 04		 jmp	 SHORT $LN4@empty
$LN3@empty:
  0002d	83 65 fc 00	 and	 DWORD PTR tv67[ebp], 0
$LN4@empty:
  00031	8a 45 fc	 mov	 al, BYTE PTR tv67[ebp]

; 1317 :     }

  00034	c9		 leave
  00035	c3		 ret	 0
?empty@?$_Tree@V?$_Tmap_traits@KPAVCSpeedTreeWrapper@@U?$less@K@std@@V?$allocator@U?$pair@$$CBKPAVCSpeedTreeWrapper@@@std@@@3@$0A@@std@@@std@@QBE_NXZ ENDP ; std::_Tree<std::_Tmap_traits<unsigned long,CSpeedTreeWrapper *,std::less<unsigned long>,std::allocator<std::pair<unsigned long const ,CSpeedTreeWrapper *> >,0> >::empty
_TEXT	ENDS
; Function compile flags: /Odspy
; File C:\Program Files (x86)\Microsoft Visual Studio\2019\Community\VC\Tools\MSVC\14.28.29333\include\xtree
; File C:\Program Files (x86)\Microsoft Visual Studio\2019\Community\VC\Tools\MSVC\14.28.29333\include\xstddef
; File C:\Program Files (x86)\Microsoft Visual Studio\2019\Community\VC\Tools\MSVC\14.28.29333\include\xtree
;	COMDAT ?end@?$_Tree@V?$_Tmap_traits@KPAVCSpeedTreeWrapper@@U?$less@K@std@@V?$allocator@U?$pair@$$CBKPAVCSpeedTreeWrapper@@@std@@@3@$0A@@std@@@std@@QAE?AV?$_Tree_iterator@V?$_Tree_val@U?$_Tree_simple_types@U?$pair@$$CBKPAVCSpeedTreeWrapper@@@std@@@std@@@std@@@2@XZ
_TEXT	SEGMENT
___param0$ = -16					; size = 4
__Scary$ = -12						; size = 4
$T1 = -8						; size = 4
_this$ = -4						; size = 4
___$ReturnUdt$ = 8					; size = 4
?end@?$_Tree@V?$_Tmap_traits@KPAVCSpeedTreeWrapper@@U?$less@K@std@@V?$allocator@U?$pair@$$CBKPAVCSpeedTreeWrapper@@@std@@@3@$0A@@std@@@std@@QAE?AV?$_Tree_iterator@V?$_Tree_val@U?$_Tree_simple_types@U?$pair@$$CBKPAVCSpeedTreeWrapper@@@std@@@std@@@std@@@2@XZ PROC ; std::_Tree<std::_Tmap_traits<unsigned long,CSpeedTreeWrapper *,std::less<unsigned long>,std::allocator<std::pair<unsigned long const ,CSpeedTreeWrapper *> >,0> >::end, COMDAT
; _this$ = ecx

; 1248 :     _NODISCARD iterator end() noexcept {

  00000	55		 push	 ebp
  00001	8b ec		 mov	 ebp, esp
  00003	83 ec 10	 sub	 esp, 16			; 00000010H
  00006	89 4d fc	 mov	 DWORD PTR _this$[ebp], ecx

; 2047 :         return _STD addressof(_Mypair._Myval2._Myval2);

  00009	8b 45 fc	 mov	 eax, DWORD PTR _this$[ebp]
; File C:\Program Files (x86)\Microsoft Visual Studio\2019\Community\VC\Tools\MSVC\14.28.29333\include\xstddef

; 275  :     return __builtin_addressof(_Val);

  0000c	89 45 f8	 mov	 DWORD PTR $T1[ebp], eax
; File C:\Program Files (x86)\Microsoft Visual Studio\2019\Community\VC\Tools\MSVC\14.28.29333\include\xtree

; 2047 :         return _STD addressof(_Mypair._Myval2._Myval2);

  0000f	8b 45 f8	 mov	 eax, DWORD PTR $T1[ebp]
  00012	89 45 f4	 mov	 DWORD PTR __Scary$[ebp], eax

; 1249 :         const auto _Scary = _Get_scary();
; 1250 :         return iterator(_Scary->_Myhead, _Scary);

  00015	8b 45 f4	 mov	 eax, DWORD PTR __Scary$[ebp]
  00018	8b 00		 mov	 eax, DWORD PTR [eax]
  0001a	89 45 f0	 mov	 DWORD PTR ___param0$[ebp], eax

; 39   :     _Tree_unchecked_const_iterator(_Nodeptr _Pnode, const _Mytree* _Plist) noexcept : _Ptr(_Pnode) {

  0001d	8b 45 08	 mov	 eax, DWORD PTR ___$ReturnUdt$[ebp]
  00020	8b 4d f0	 mov	 ecx, DWORD PTR ___param0$[ebp]
  00023	89 08		 mov	 DWORD PTR [eax], ecx

; 1249 :         const auto _Scary = _Get_scary();
; 1250 :         return iterator(_Scary->_Myhead, _Scary);

  00025	8b 45 08	 mov	 eax, DWORD PTR ___$ReturnUdt$[ebp]

; 1251 :     }

  00028	c9		 leave
  00029	c2 04 00	 ret	 4
?end@?$_Tree@V?$_Tmap_traits@KPAVCSpeedTreeWrapper@@U?$less@K@std@@V?$allocator@U?$pair@$$CBKPAVCSpeedTreeWrapper@@@std@@@3@$0A@@std@@@std@@QAE?AV?$_Tree_iterator@V?$_Tree_val@U?$_Tree_simple_types@U?$pair@$$CBKPAVCSpeedTreeWrapper@@@std@@@std@@@std@@@2@XZ ENDP ; std::_Tree<std::_Tmap_traits<unsigned long,CSpeedTreeWrapper *,std::less<unsigned long>,std::allocator<std::pair<unsigned long const ,CSpeedTreeWrapper *> >,0> >::end
_TEXT	ENDS
; Function compile flags: /Odspy
; File C:\Program Files (x86)\Microsoft Visual Studio\2019\Community\VC\Tools\MSVC\14.28.29333\include\xtree
; File C:\Program Files (x86)\Microsoft Visual Studio\2019\Community\VC\Tools\MSVC\14.28.29333\include\xstddef
; File C:\Program Files (x86)\Microsoft Visual Studio\2019\Community\VC\Tools\MSVC\14.28.29333\include\xtree
;	COMDAT ?begin@?$_Tree@V?$_Tmap_traits@KPAVCSpeedTreeWrapper@@U?$less@K@std@@V?$allocator@U?$pair@$$CBKPAVCSpeedTreeWrapper@@@std@@@3@$0A@@std@@@std@@QAE?AV?$_Tree_iterator@V?$_Tree_val@U?$_Tree_simple_types@U?$pair@$$CBKPAVCSpeedTreeWrapper@@@std@@@std@@@std@@@2@XZ
_TEXT	SEGMENT
___param0$ = -16					; size = 4
__Scary$ = -12						; size = 4
$T1 = -8						; size = 4
_this$ = -4						; size = 4
___$ReturnUdt$ = 8					; size = 4
?begin@?$_Tree@V?$_Tmap_traits@KPAVCSpeedTreeWrapper@@U?$less@K@std@@V?$allocator@U?$pair@$$CBKPAVCSpeedTreeWrapper@@@std@@@3@$0A@@std@@@std@@QAE?AV?$_Tree_iterator@V?$_Tree_val@U?$_Tree_simple_types@U?$pair@$$CBKPAVCSpeedTreeWrapper@@@std@@@std@@@std@@@2@XZ PROC ; std::_Tree<std::_Tmap_traits<unsigned long,CSpeedTreeWrapper *,std::less<unsigned long>,std::allocator<std::pair<unsigned long const ,CSpeedTreeWrapper *> >,0> >::begin, COMDAT
; _this$ = ecx

; 1238 :     _NODISCARD iterator begin() noexcept {

  00000	55		 push	 ebp
  00001	8b ec		 mov	 ebp, esp
  00003	83 ec 10	 sub	 esp, 16			; 00000010H
  00006	89 4d fc	 mov	 DWORD PTR _this$[ebp], ecx

; 2047 :         return _STD addressof(_Mypair._Myval2._Myval2);

  00009	8b 45 fc	 mov	 eax, DWORD PTR _this$[ebp]
; File C:\Program Files (x86)\Microsoft Visual Studio\2019\Community\VC\Tools\MSVC\14.28.29333\include\xstddef

; 275  :     return __builtin_addressof(_Val);

  0000c	89 45 f8	 mov	 DWORD PTR $T1[ebp], eax
; File C:\Program Files (x86)\Microsoft Visual Studio\2019\Community\VC\Tools\MSVC\14.28.29333\include\xtree

; 2047 :         return _STD addressof(_Mypair._Myval2._Myval2);

  0000f	8b 45 f8	 mov	 eax, DWORD PTR $T1[ebp]
  00012	89 45 f4	 mov	 DWORD PTR __Scary$[ebp], eax

; 1239 :         const auto _Scary = _Get_scary();
; 1240 :         return iterator(_Scary->_Myhead->_Left, _Scary);

  00015	8b 45 f4	 mov	 eax, DWORD PTR __Scary$[ebp]
  00018	8b 00		 mov	 eax, DWORD PTR [eax]
  0001a	8b 00		 mov	 eax, DWORD PTR [eax]
  0001c	89 45 f0	 mov	 DWORD PTR ___param0$[ebp], eax

; 39   :     _Tree_unchecked_const_iterator(_Nodeptr _Pnode, const _Mytree* _Plist) noexcept : _Ptr(_Pnode) {

  0001f	8b 45 08	 mov	 eax, DWORD PTR ___$ReturnUdt$[ebp]
  00022	8b 4d f0	 mov	 ecx, DWORD PTR ___param0$[ebp]
  00025	89 08		 mov	 DWORD PTR [eax], ecx

; 1239 :         const auto _Scary = _Get_scary();
; 1240 :         return iterator(_Scary->_Myhead->_Left, _Scary);

  00027	8b 45 08	 mov	 eax, DWORD PTR ___$ReturnUdt$[ebp]

; 1241 :     }

  0002a	c9		 leave
  0002b	c2 04 00	 ret	 4
?begin@?$_Tree@V?$_Tmap_traits@KPAVCSpeedTreeWrapper@@U?$less@K@std@@V?$allocator@U?$pair@$$CBKPAVCSpeedTreeWrapper@@@std@@@3@$0A@@std@@@std@@QAE?AV?$_Tree_iterator@V?$_Tree_val@U?$_Tree_simple_types@U?$pair@$$CBKPAVCSpeedTreeWrapper@@@std@@@std@@@std@@@2@XZ ENDP ; std::_Tree<std::_Tmap_traits<unsigned long,CSpeedTreeWrapper *,std::less<unsigned long>,std::allocator<std::pair<unsigned long const ,CSpeedTreeWrapper *> >,0> >::begin
_TEXT	ENDS
; Function compile flags: /Odspy
; File C:\Program Files (x86)\Windows Kits\10\Include\10.0.18362.0\ucrt\stdio.h
;	COMDAT _sprintf
_TEXT	SEGMENT
__Result$ = -20						; size = 4
__Format$ = -16						; size = 4
__ArgList$ = -12					; size = 4
tv86 = -8						; size = 4
__Result$1 = -4						; size = 4
__Buffer$ = 8						; size = 4
__Format$ = 12						; size = 4
_sprintf PROC						; COMDAT

; 1781 :     {

  00000	55		 push	 ebp
  00001	8b ec		 mov	 ebp, esp
  00003	83 ec 14	 sub	 esp, 20			; 00000014H

; 1782 :         int _Result;
; 1783 :         va_list _ArgList;
; 1784 :         __crt_va_start(_ArgList, _Format);

  00006	8d 45 10	 lea	 eax, DWORD PTR __Format$[ebp+4]
  00009	89 45 f4	 mov	 DWORD PTR __ArgList$[ebp], eax

; 1785 : 
; 1786 :         #pragma warning(push)
; 1787 :         #pragma warning(disable: 4996) // Deprecation
; 1788 :         _Result = _vsprintf_l(_Buffer, _Format, NULL, _ArgList);

  0000c	8b 45 0c	 mov	 eax, DWORD PTR __Format$[ebp]
  0000f	89 45 f0	 mov	 DWORD PTR __Format$[ebp], eax

; 1390 :         int const _Result = __stdio_common_vsprintf(

  00012	ff 75 f4	 push	 DWORD PTR __ArgList$[ebp]
  00015	6a 00		 push	 0
  00017	ff 75 f0	 push	 DWORD PTR __Format$[ebp]
  0001a	6a ff		 push	 -1
  0001c	ff 75 08	 push	 DWORD PTR __Buffer$[ebp]
  0001f	e8 00 00 00 00	 call	 ___local_stdio_printf_options
  00024	8b 08		 mov	 ecx, DWORD PTR [eax]
  00026	83 c9 01	 or	 ecx, 1
  00029	8b 40 04	 mov	 eax, DWORD PTR [eax+4]
  0002c	50		 push	 eax
  0002d	51		 push	 ecx
  0002e	e8 00 00 00 00	 call	 ___stdio_common_vsprintf
  00033	83 c4 1c	 add	 esp, 28			; 0000001cH
  00036	89 45 fc	 mov	 DWORD PTR __Result$1[ebp], eax

; 1391 :             _CRT_INTERNAL_LOCAL_PRINTF_OPTIONS | _CRT_INTERNAL_PRINTF_LEGACY_VSPRINTF_NULL_TERMINATION,
; 1392 :             _Buffer, _BufferCount, _Format, _Locale, _ArgList);
; 1393 : 
; 1394 :         return _Result < 0 ? -1 : _Result;

  00039	83 7d fc 00	 cmp	 DWORD PTR __Result$1[ebp], 0
  0003d	7d 06		 jge	 SHORT $LN7@sprintf
  0003f	83 4d f8 ff	 or	 DWORD PTR tv86[ebp], -1
  00043	eb 06		 jmp	 SHORT $LN3@sprintf
$LN7@sprintf:
  00045	8b 45 fc	 mov	 eax, DWORD PTR __Result$1[ebp]
  00048	89 45 f8	 mov	 DWORD PTR tv86[ebp], eax
$LN3@sprintf:

; 1785 : 
; 1786 :         #pragma warning(push)
; 1787 :         #pragma warning(disable: 4996) // Deprecation
; 1788 :         _Result = _vsprintf_l(_Buffer, _Format, NULL, _ArgList);

  0004b	8b 45 f8	 mov	 eax, DWORD PTR tv86[ebp]
  0004e	89 45 ec	 mov	 DWORD PTR __Result$[ebp], eax

; 1789 :         #pragma warning(pop)
; 1790 : 
; 1791 :         __crt_va_end(_ArgList);

  00051	83 65 f4 00	 and	 DWORD PTR __ArgList$[ebp], 0

; 1792 :         return _Result;

  00055	8b 45 ec	 mov	 eax, DWORD PTR __Result$[ebp]

; 1793 :     }

  00058	c9		 leave
  00059	c3		 ret	 0
_sprintf ENDP
_TEXT	ENDS
; Function compile flags: /Odspy
; File C:\Program Files (x86)\Windows Kits\10\Include\10.0.18362.0\ucrt\corecrt_stdio_config.h
;	COMDAT ___local_stdio_printf_options
_TEXT	SEGMENT
___local_stdio_printf_options PROC			; COMDAT

; 86   :     {

  00000	55		 push	 ebp
  00001	8b ec		 mov	 ebp, esp

; 87   :         static unsigned __int64 _OptionsStorage;
; 88   :         return &_OptionsStorage;

  00003	b8 00 00 00 00	 mov	 eax, OFFSET ?_OptionsStorage@?1??__local_stdio_printf_options@@9@4_KA ; `__local_stdio_printf_options'::`2'::_OptionsStorage

; 89   :     }

  00008	5d		 pop	 ebp
  00009	c3		 ret	 0
___local_stdio_printf_options ENDP
_TEXT	ENDS
; Function compile flags: /Odspy
;	COMDAT ??_H@YGXPAXIIP6EPAX0@Z@Z
_TEXT	SEGMENT
tv66 = -4						; size = 4
___t$ = 8						; size = 4
___s$ = 12						; size = 4
___n$ = 16						; size = 4
___f$ = 20						; size = 4
??_H@YGXPAXIIP6EPAX0@Z@Z PROC				; `vector constructor iterator', COMDAT
  00000	55		 push	 ebp
  00001	8b ec		 mov	 ebp, esp
  00003	51		 push	 ecx
$LN2@vector:
  00004	8b 45 10	 mov	 eax, DWORD PTR ___n$[ebp]
  00007	89 45 fc	 mov	 DWORD PTR tv66[ebp], eax
  0000a	8b 45 10	 mov	 eax, DWORD PTR ___n$[ebp]
  0000d	48		 dec	 eax
  0000e	89 45 10	 mov	 DWORD PTR ___n$[ebp], eax
  00011	83 7d fc 00	 cmp	 DWORD PTR tv66[ebp], 0
  00015	76 11		 jbe	 SHORT $LN1@vector
  00017	8b 4d 08	 mov	 ecx, DWORD PTR ___t$[ebp]
  0001a	ff 55 14	 call	 DWORD PTR ___f$[ebp]
  0001d	8b 45 08	 mov	 eax, DWORD PTR ___t$[ebp]
  00020	03 45 0c	 add	 eax, DWORD PTR ___s$[ebp]
  00023	89 45 08	 mov	 DWORD PTR ___t$[ebp], eax
  00026	eb dc		 jmp	 SHORT $LN2@vector
$LN1@vector:
  00028	c9		 leave
  00029	c2 10 00	 ret	 16			; 00000010H
??_H@YGXPAXIIP6EPAX0@Z@Z ENDP				; `vector constructor iterator'
_TEXT	ENDS
END
