; Listing generated by Microsoft (R) Optimizing Compiler Version 19.28.29335.0 

	TITLE	D:\Metin2 Server Files\mainline\SRC_2014\Metin2Client\UserInterface\AccountConnector.cpp
	.686P
	.XMM
	include listing.inc
	.model	flat

INCLUDELIB LIBCMT
INCLUDELIB OLDNAMES

PUBLIC	??_H@YGXPAXIIP6EPAX0@Z@Z			; `vector constructor iterator'
PUBLIC	??0exception@std@@QAE@ABV01@@Z			; std::exception::exception
PUBLIC	??1exception@std@@UAE@XZ			; std::exception::~exception
PUBLIC	?what@exception@std@@UBEPBDXZ			; std::exception::what
PUBLIC	??_Gexception@std@@UAEPAXI@Z			; std::exception::`scalar deleting destructor'
PUBLIC	??0bad_alloc@std@@QAE@ABV01@@Z			; std::bad_alloc::bad_alloc
PUBLIC	??_Gbad_alloc@std@@UAEPAXI@Z			; std::bad_alloc::`scalar deleting destructor'
PUBLIC	??0bad_array_new_length@std@@QAE@XZ		; std::bad_array_new_length::bad_array_new_length
PUBLIC	??1bad_array_new_length@std@@UAE@XZ		; std::bad_array_new_length::~bad_array_new_length
PUBLIC	??0bad_array_new_length@std@@QAE@ABV01@@Z	; std::bad_array_new_length::bad_array_new_length
PUBLIC	??_Gbad_array_new_length@std@@UAEPAXI@Z		; std::bad_array_new_length::`scalar deleting destructor'
PUBLIC	?_Throw_bad_array_new_length@std@@YAXXZ		; std::_Throw_bad_array_new_length
PUBLIC	?_Xlen_string@std@@YAXXZ			; std::_Xlen_string
PUBLIC	??1?$basic_string@DU?$char_traits@D@std@@V?$allocator@D@2@@std@@QAE@XZ ; std::basic_string<char,std::char_traits<char>,std::allocator<char> >::~basic_string<char,std::char_traits<char>,std::allocator<char> >
PUBLIC	?assign@?$basic_string@DU?$char_traits@D@std@@V?$allocator@D@2@@std@@QAEAAV12@QBDI@Z ; std::basic_string<char,std::char_traits<char>,std::allocator<char> >::assign
PUBLIC	??$_Destroy_in_place@PAD@std@@YAXAAPAD@Z	; std::_Destroy_in_place<char *>
PUBLIC	??$_Construct_in_place@PADABQAD@std@@YAXAAPADABQAD@Z ; std::_Construct_in_place<char *,char * const &>
PUBLIC	??$_Deallocate@$07$0A@@std@@YAXPAXI@Z		; std::_Deallocate<8,0>
PUBLIC	??$_Allocate@$07U_Default_allocate_traits@std@@$0A@@std@@YAPAXI@Z ; std::_Allocate<8,std::_Default_allocate_traits,0>
PUBLIC	??$_Allocate_manually_vector_aligned@U_Default_allocate_traits@std@@@std@@YAPAXI@Z ; std::_Allocate_manually_vector_aligned<std::_Default_allocate_traits>
PUBLIC	??1?$CSingleton@VCAccountConnector@@@@UAE@XZ	; CSingleton<CAccountConnector>::~CSingleton<CAccountConnector>
PUBLIC	??_G?$CSingleton@VCAccountConnector@@@@UAEPAXI@Z ; CSingleton<CAccountConnector>::`scalar deleting destructor'
PUBLIC	??0CAccountConnector@@QAE@XZ			; CAccountConnector::CAccountConnector
PUBLIC	??1CAccountConnector@@UAE@XZ			; CAccountConnector::~CAccountConnector
PUBLIC	?SetHandler@CAccountConnector@@QAEXPAU_object@@@Z ; CAccountConnector::SetHandler
PUBLIC	?SetLoginInfo@CAccountConnector@@QAEXPBD0@Z	; CAccountConnector::SetLoginInfo
PUBLIC	?ClearLoginInfo@CAccountConnector@@QAEXXZ	; CAccountConnector::ClearLoginInfo
PUBLIC	?SendChinaMatrixCardPacket@CAccountConnector@@QAE_NPBD@Z ; CAccountConnector::SendChinaMatrixCardPacket
PUBLIC	?SendRunupMatrixCardPacket@CAccountConnector@@QAE_NPBD@Z ; CAccountConnector::SendRunupMatrixCardPacket
PUBLIC	?SendNEWCIBNPasspodAnswerPacket@CAccountConnector@@QAE_NPBD@Z ; CAccountConnector::SendNEWCIBNPasspodAnswerPacket
PUBLIC	?Connect@CAccountConnector@@QAE_NPBDH0H@Z	; CAccountConnector::Connect
PUBLIC	?Disconnect@CAccountConnector@@QAEXXZ		; CAccountConnector::Disconnect
PUBLIC	?Process@CAccountConnector@@QAEXXZ		; CAccountConnector::Process
PUBLIC	?OnConnectFailure@CAccountConnector@@MAEXXZ	; CAccountConnector::OnConnectFailure
PUBLIC	?OnConnectSuccess@CAccountConnector@@MAEXXZ	; CAccountConnector::OnConnectSuccess
PUBLIC	?OnRemoteDisconnect@CAccountConnector@@MAEXXZ	; CAccountConnector::OnRemoteDisconnect
PUBLIC	?OnDisconnect@CAccountConnector@@MAEXXZ		; CAccountConnector::OnDisconnect
PUBLIC	?__Inialize@CAccountConnector@@IAEXXZ		; CAccountConnector::__Inialize
PUBLIC	?__StateProcess@CAccountConnector@@IAE_NXZ	; CAccountConnector::__StateProcess
PUBLIC	?__OfflineState_Set@CAccountConnector@@IAEXXZ	; CAccountConnector::__OfflineState_Set
PUBLIC	?__HandshakeState_Set@CAccountConnector@@IAEXXZ	; CAccountConnector::__HandshakeState_Set
PUBLIC	?__AuthState_Set@CAccountConnector@@IAEXXZ	; CAccountConnector::__AuthState_Set
PUBLIC	?__HandshakeState_Process@CAccountConnector@@IAE_NXZ ; CAccountConnector::__HandshakeState_Process
PUBLIC	?__AuthState_Process@CAccountConnector@@IAE_NXZ	; CAccountConnector::__AuthState_Process
PUBLIC	?__AuthState_RecvEmpty@CAccountConnector@@IAE_NXZ ; CAccountConnector::__AuthState_RecvEmpty
PUBLIC	?__AuthState_RecvPhase@CAccountConnector@@IAE_NXZ ; CAccountConnector::__AuthState_RecvPhase
PUBLIC	?__AuthState_RecvHandshake@CAccountConnector@@IAE_NXZ ; CAccountConnector::__AuthState_RecvHandshake
PUBLIC	?__AuthState_RecvPing@CAccountConnector@@IAE_NXZ ; CAccountConnector::__AuthState_RecvPing
PUBLIC	?__AuthState_SendPong@CAccountConnector@@IAE_NXZ ; CAccountConnector::__AuthState_SendPong
PUBLIC	?__AuthState_RecvAuthSuccess@CAccountConnector@@IAE_NXZ ; CAccountConnector::__AuthState_RecvAuthSuccess
PUBLIC	?__AuthState_RecvAuthFailure@CAccountConnector@@IAE_NXZ ; CAccountConnector::__AuthState_RecvAuthFailure
PUBLIC	?__AuthState_RecvChinaMatrixCard@CAccountConnector@@IAE_NXZ ; CAccountConnector::__AuthState_RecvChinaMatrixCard
PUBLIC	?__AuthState_RecvRunupMatrixQuiz@CAccountConnector@@IAE_NXZ ; CAccountConnector::__AuthState_RecvRunupMatrixQuiz
PUBLIC	?__AuthState_RecvNEWCIBNPasspodRequest@CAccountConnector@@IAE_NXZ ; CAccountConnector::__AuthState_RecvNEWCIBNPasspodRequest
PUBLIC	?__AuthState_RecvPanamaPack@CAccountConnector@@IAE_NXZ ; CAccountConnector::__AuthState_RecvPanamaPack
PUBLIC	?__AuthState_RecvKeyAgreement@CAccountConnector@@IAE_NXZ ; CAccountConnector::__AuthState_RecvKeyAgreement
PUBLIC	?__AuthState_RecvKeyAgreementCompleted@CAccountConnector@@IAE_NXZ ; CAccountConnector::__AuthState_RecvKeyAgreementCompleted
PUBLIC	?__AuthState_RecvHybridCryptKeys@CAccountConnector@@IAE_NH@Z ; CAccountConnector::__AuthState_RecvHybridCryptKeys
PUBLIC	?__AuthState_RecvHybridCryptSDB@CAccountConnector@@IAE_NH@Z ; CAccountConnector::__AuthState_RecvHybridCryptSDB
PUBLIC	?__AnalyzePacket@CAccountConnector@@IAE_NIIP81@AE_NXZ@Z ; CAccountConnector::__AnalyzePacket
PUBLIC	?__AnalyzeVarSizePacket@CAccountConnector@@IAE_NIP81@AE_NH@Z@Z ; CAccountConnector::__AnalyzeVarSizePacket
PUBLIC	??_GCAccountConnector@@UAEPAXI@Z		; CAccountConnector::`scalar deleting destructor'
PUBLIC	??1SPacketGCHybridCryptKeys@@QAE@XZ		; SPacketGCHybridCryptKeys::~SPacketGCHybridCryptKeys
PUBLIC	??1SPacketGCHybridSDB@@QAE@XZ			; SPacketGCHybridSDB::~SPacketGCHybridSDB
PUBLIC	??_ECAccountConnector@@WHM@AEPAXI@Z		; [thunk]:CAccountConnector::`vector deleting destructor'
PUBLIC	??_7exception@std@@6B@				; std::exception::`vftable'
PUBLIC	??_C@_0BC@EOODALEL@Unknown?5exception@		; `string'
PUBLIC	??_7bad_alloc@std@@6B@				; std::bad_alloc::`vftable'
PUBLIC	??_7bad_array_new_length@std@@6B@		; std::bad_array_new_length::`vftable'
PUBLIC	??_C@_0BF@KINCDENJ@bad?5array?5new?5length@	; `string'
PUBLIC	__TI3?AVbad_array_new_length@std@@
PUBLIC	__CTA3?AVbad_array_new_length@std@@
PUBLIC	??_R0?AVbad_array_new_length@std@@@8		; std::bad_array_new_length `RTTI Type Descriptor'
PUBLIC	__CT??_R0?AVbad_array_new_length@std@@@8??0bad_array_new_length@std@@QAE@ABV01@@Z12
PUBLIC	??_R0?AVbad_alloc@std@@@8			; std::bad_alloc `RTTI Type Descriptor'
PUBLIC	__CT??_R0?AVbad_alloc@std@@@8??0bad_alloc@std@@QAE@ABV01@@Z12
PUBLIC	??_R0?AVexception@std@@@8			; std::exception `RTTI Type Descriptor'
PUBLIC	__CT??_R0?AVexception@std@@@8??0exception@std@@QAE@ABV01@@Z12
PUBLIC	??_C@_0BA@JFNIOLAK@string?5too?5long@		; `string'
PUBLIC	??_C@_00CNPNBAHC@@				; `string'
PUBLIC	??_C@_01NBENCBCI@?$CK@				; `string'
PUBLIC	??_R4exception@std@@6B@				; std::exception::`RTTI Complete Object Locator'
PUBLIC	??_R3exception@std@@8				; std::exception::`RTTI Class Hierarchy Descriptor'
PUBLIC	??_R2exception@std@@8				; std::exception::`RTTI Base Class Array'
PUBLIC	??_R1A@?0A@EA@exception@std@@8			; std::exception::`RTTI Base Class Descriptor at (0,-1,0,64)'
PUBLIC	??_R4bad_alloc@std@@6B@				; std::bad_alloc::`RTTI Complete Object Locator'
PUBLIC	??_R3bad_alloc@std@@8				; std::bad_alloc::`RTTI Class Hierarchy Descriptor'
PUBLIC	??_R2bad_alloc@std@@8				; std::bad_alloc::`RTTI Base Class Array'
PUBLIC	??_R1A@?0A@EA@bad_alloc@std@@8			; std::bad_alloc::`RTTI Base Class Descriptor at (0,-1,0,64)'
PUBLIC	??_R4bad_array_new_length@std@@6B@		; std::bad_array_new_length::`RTTI Complete Object Locator'
PUBLIC	??_R3bad_array_new_length@std@@8		; std::bad_array_new_length::`RTTI Class Hierarchy Descriptor'
PUBLIC	??_R2bad_array_new_length@std@@8		; std::bad_array_new_length::`RTTI Base Class Array'
PUBLIC	??_R1A@?0A@EA@bad_array_new_length@std@@8	; std::bad_array_new_length::`RTTI Base Class Descriptor at (0,-1,0,64)'
PUBLIC	?ms_singleton@?$CSingleton@VCAccountConnector@@@@0PAVCAccountConnector@@A ; CSingleton<CAccountConnector>::ms_singleton
PUBLIC	??_7?$CSingleton@VCAccountConnector@@@@6B@	; CSingleton<CAccountConnector>::`vftable'
PUBLIC	??_7CAccountConnector@@6BCNetworkStream@@@	; CAccountConnector::`vftable'
PUBLIC	??_7CAccountConnector@@6B?$CSingleton@VCAccountConnector@@@@@ ; CAccountConnector::`vftable'
PUBLIC	?ms_singleton@?$CSingleton@VCPythonNetworkStream@@@@0PAVCPythonNetworkStream@@A ; CSingleton<CPythonNetworkStream>::ms_singleton
PUBLIC	?ms_singleton@?$CSingleton@VCEterPackManager@@@@0PAVCEterPackManager@@A ; CSingleton<CEterPackManager>::ms_singleton
PUBLIC	??_C@_0BP@JFBAGMPA@SendNEWCIBNPasspodAnswerPacket@ ; `string'
PUBLIC	??_C@_0BP@PNMANAPB@SendRunupMatrixCardPacketError@ ; `string'
PUBLIC	??_C@_0BA@HGDBLFFH@SendLogin?5Error@		; `string'
PUBLIC	??_C@_0DN@HEMMJEJK@?5CAccountConnector?3?3__AuthState@ ; `string'
PUBLIC	??_C@_0BF@MMAJMJLI@HANDSHAKE?5RECV?5?$CFu?5?$CFd@ ; `string'
PUBLIC	??_C@_0BC@CAMNEEDN@HANDSHAKE?5SEND?5?$CFu@	; `string'
PUBLIC	??_C@_0EE@PGOEFGOD@?5CAccountConnector?3?3__AuthState@ ; `string'
PUBLIC	??_C@_09FJACDEDF@BESAMEKEY@			; `string'
PUBLIC	??_C@_03KJMMOONA@?$CIs?$CJ@			; `string'
PUBLIC	??_C@_0P@OOEAIINI@OnLoginFailure@		; `string'
PUBLIC	??_C@_0BJ@IENIHBKM@BINARY_OnRunupMatrixQuiz@	; `string'
PUBLIC	??_C@_02HCKGKOFO@?$CI?$CJ@			; `string'
PUBLIC	??_C@_0BP@DDJIDHFM@BINARY_OnNEWCIBNPasspodRequest@ ; `string'
PUBLIC	??_C@_0L@FKCIBGAB@?$CIiiiiiiii?$CJ@		; `string'
PUBLIC	??_C@_0N@PIKEFLJP@OnMatrixCard@			; `string'
PUBLIC	??_C@_0BG@BIKAAIDD@KEY_AGREEMENT?5RECV?5?$CFu@	; `string'
PUBLIC	??_C@_0EK@DCNAEAA@?5CAccountConnector?3?3__AuthState@ ; `string'
PUBLIC	??_C@_0BG@HCLENPJB@KEY_AGREEMENT?5SEND?5?$CFu@	; `string'
PUBLIC	??_C@_0BN@EDLJMNFO@KEY_AGREEMENT_COMPLETED?5RECV@ ; `string'
PUBLIC	??_C@_0BB@JEKGEMCL@OnConnectFailure@		; `string'
PUBLIC	??_C@_06NAODFICM@OnExit@			; `string'
PUBLIC	??_R4CAccountConnector@@6BCNetworkStream@@@	; CAccountConnector::`RTTI Complete Object Locator'
PUBLIC	??_R0?AVCAccountConnector@@@8			; CAccountConnector `RTTI Type Descriptor'
PUBLIC	??_R3CAccountConnector@@8			; CAccountConnector::`RTTI Class Hierarchy Descriptor'
PUBLIC	??_R2CAccountConnector@@8			; CAccountConnector::`RTTI Base Class Array'
PUBLIC	??_R1A@?0A@EA@CAccountConnector@@8		; CAccountConnector::`RTTI Base Class Descriptor at (0,-1,0,64)'
PUBLIC	??_R1A@?0A@EA@CNetworkStream@@8			; CNetworkStream::`RTTI Base Class Descriptor at (0,-1,0,64)'
PUBLIC	??_R0?AVCNetworkStream@@@8			; CNetworkStream `RTTI Type Descriptor'
PUBLIC	??_R3CNetworkStream@@8				; CNetworkStream::`RTTI Class Hierarchy Descriptor'
PUBLIC	??_R2CNetworkStream@@8				; CNetworkStream::`RTTI Base Class Array'
PUBLIC	??_R1HM@?0A@EA@?$CSingleton@VCAccountConnector@@@@8 ; CSingleton<CAccountConnector>::`RTTI Base Class Descriptor at (124,-1,0,64)'
PUBLIC	??_R0?AV?$CSingleton@VCAccountConnector@@@@@8	; CSingleton<CAccountConnector> `RTTI Type Descriptor'
PUBLIC	??_R3?$CSingleton@VCAccountConnector@@@@8	; CSingleton<CAccountConnector>::`RTTI Class Hierarchy Descriptor'
PUBLIC	??_R2?$CSingleton@VCAccountConnector@@@@8	; CSingleton<CAccountConnector>::`RTTI Base Class Array'
PUBLIC	??_R1A@?0A@EA@?$CSingleton@VCAccountConnector@@@@8 ; CSingleton<CAccountConnector>::`RTTI Base Class Descriptor at (0,-1,0,64)'
PUBLIC	??_R4CAccountConnector@@6B?$CSingleton@VCAccountConnector@@@@@ ; CAccountConnector::`RTTI Complete Object Locator'
PUBLIC	??_R4?$CSingleton@VCAccountConnector@@@@6B@	; CSingleton<CAccountConnector>::`RTTI Complete Object Locator'
EXTRN	??2@YAPAXI@Z:PROC				; operator new
EXTRN	??3@YAXPAXI@Z:PROC				; operator delete
EXTRN	??_U@YAPAXI@Z:PROC				; operator new[]
EXTRN	??_V@YAXPAX@Z:PROC				; operator delete[]
EXTRN	__invalid_parameter_noinfo_noreturn:PROC
EXTRN	_strncpy:PROC
EXTRN	___std_exception_copy:PROC
EXTRN	___std_exception_destroy:PROC
EXTRN	??_Eexception@std@@UAEPAXI@Z:PROC		; std::exception::`vector deleting destructor'
EXTRN	??_Ebad_alloc@std@@UAEPAXI@Z:PROC		; std::bad_alloc::`vector deleting destructor'
EXTRN	??_Ebad_array_new_length@std@@UAEPAXI@Z:PROC	; std::bad_array_new_length::`vector deleting destructor'
EXTRN	?_Xlength_error@std@@YAXPBD@Z:PROC		; std::_Xlength_error
EXTRN	?Tracen@@YAXPBD@Z:PROC				; Tracen
EXTRN	?Tracenf@@YAXPBDZZ:PROC				; Tracenf
EXTRN	?TraceError@@YAXPBDZZ:PROC			; TraceError
EXTRN	__imp__Py_BuildValue:PROC
EXTRN	?PyCallClassMemberFunc@@YA_NPAU_object@@PBD0@Z:PROC ; PyCallClassMemberFunc
EXTRN	?ELTimer_SetServerMSec@@YAXK@Z:PROC		; ELTimer_SetServerMSec
EXTRN	?LocaleService_IsYMIR@@YA_NXZ:PROC		; LocaleService_IsYMIR
EXTRN	??0CNetworkStream@@QAE@XZ:PROC			; CNetworkStream::CNetworkStream
EXTRN	??1CNetworkStream@@UAE@XZ:PROC			; CNetworkStream::~CNetworkStream
EXTRN	?SetRecvBufferSize@CNetworkStream@@QAEXH@Z:PROC	; CNetworkStream::SetRecvBufferSize
EXTRN	?SetSendBufferSize@CNetworkStream@@QAEXH@Z:PROC	; CNetworkStream::SetSendBufferSize
EXTRN	?IsSecurityMode@CNetworkStream@@QAE_NXZ:PROC	; CNetworkStream::IsSecurityMode
EXTRN	?Process@CNetworkStream@@QAEXXZ:PROC		; CNetworkStream::Process
EXTRN	?Connect@CNetworkStream@@QAE_NPBDHH@Z:PROC	; CNetworkStream::Connect
EXTRN	?Disconnect@CNetworkStream@@QAEXXZ:PROC		; CNetworkStream::Disconnect
EXTRN	?Peek@CNetworkStream@@QAE_NH@Z:PROC		; CNetworkStream::Peek
EXTRN	?Peek@CNetworkStream@@QAE_NHPAX@Z:PROC		; CNetworkStream::Peek
EXTRN	?Recv@CNetworkStream@@QAE_NHPAX@Z:PROC		; CNetworkStream::Recv
EXTRN	?Send@CNetworkStream@@QAE_NHPBX@Z:PROC		; CNetworkStream::Send
EXTRN	?SendSequence@CNetworkStream@@QAE_NXZ:PROC	; CNetworkStream::SendSequence
EXTRN	?OnProcess@CNetworkStream@@MAE_NXZ:PROC		; CNetworkStream::OnProcess
EXTRN	?Prepare@CNetworkStream@@IAEIPAXPAI@Z:PROC	; CNetworkStream::Prepare
EXTRN	?Activate@CNetworkStream@@IAE_NIPBXI@Z:PROC	; CNetworkStream::Activate
EXTRN	?ActivateCipher@CNetworkStream@@IAEXXZ:PROC	; CNetworkStream::ActivateCipher
EXTRN	??_E?$CSingleton@VCAccountConnector@@@@UAEPAXI@Z:PROC ; CSingleton<CAccountConnector>::`vector deleting destructor'
EXTRN	?__BuildClientKey_20050304Myevan@CAccountConnector@@IAEXXZ:PROC ; CAccountConnector::__BuildClientKey_20050304Myevan
EXTRN	??_ECAccountConnector@@UAEPAXI@Z:PROC		; CAccountConnector::`vector deleting destructor'
EXTRN	?SetWaitFlag@CPythonNetworkStream@@QAEXXZ:PROC	; CPythonNetworkStream::SetWaitFlag
EXTRN	?SetLoginKey@CPythonNetworkStream@@QAEXK@Z:PROC	; CPythonNetworkStream::SetLoginKey
EXTRN	?ClearLoginInfo@CPythonNetworkStream@@QAEXXZ:PROC ; CPythonNetworkStream::ClearLoginInfo
EXTRN	?RegisterPack@CEterPackManager@@QAE_NPBD0PBE@Z:PROC ; CEterPackManager::RegisterPack
EXTRN	?DecryptPackIV@CEterPackManager@@QAE_NK@Z:PROC	; CEterPackManager::DecryptPackIV
EXTRN	?RetrieveHybridCryptPackKeys@CEterPackManager@@QAEXPBE@Z:PROC ; CEterPackManager::RetrieveHybridCryptPackKeys
EXTRN	?RetrieveHybridCryptPackSDB@CEterPackManager@@QAEXPBE@Z:PROC ; CEterPackManager::RetrieveHybridCryptPackSDB
EXTRN	@__security_check_cookie@4:PROC
EXTRN	__CxxThrowException@8:PROC
EXTRN	___CxxFrameHandler3:PROC
EXTRN	_memcpy:PROC
EXTRN	_memmove:PROC
EXTRN	??_7type_info@@6B@:QWORD			; type_info::`vftable'
EXTRN	?g_adwEncryptKey@@3PAKA:BYTE			; g_adwEncryptKey
EXTRN	___security_cookie:DWORD
;	COMDAT ?ms_singleton@?$CSingleton@VCAccountConnector@@@@0PAVCAccountConnector@@A
_BSS	SEGMENT
?ms_singleton@?$CSingleton@VCAccountConnector@@@@0PAVCAccountConnector@@A DD 01H DUP (?) ; CSingleton<CAccountConnector>::ms_singleton
_BSS	ENDS
;	COMDAT ?ms_singleton@?$CSingleton@VCPythonNetworkStream@@@@0PAVCPythonNetworkStream@@A
_BSS	SEGMENT
?ms_singleton@?$CSingleton@VCPythonNetworkStream@@@@0PAVCPythonNetworkStream@@A DD 01H DUP (?) ; CSingleton<CPythonNetworkStream>::ms_singleton
_BSS	ENDS
;	COMDAT ?ms_singleton@?$CSingleton@VCEterPackManager@@@@0PAVCEterPackManager@@A
_BSS	SEGMENT
?ms_singleton@?$CSingleton@VCEterPackManager@@@@0PAVCEterPackManager@@A DD 01H DUP (?) ; CSingleton<CEterPackManager>::ms_singleton
_BSS	ENDS
;	COMDAT ??_R4?$CSingleton@VCAccountConnector@@@@6B@
rdata$r	SEGMENT
??_R4?$CSingleton@VCAccountConnector@@@@6B@ DD 00H	; CSingleton<CAccountConnector>::`RTTI Complete Object Locator'
	DD	00H
	DD	00H
	DD	FLAT:??_R0?AV?$CSingleton@VCAccountConnector@@@@@8
	DD	FLAT:??_R3?$CSingleton@VCAccountConnector@@@@8
rdata$r	ENDS
;	COMDAT ??_R4CAccountConnector@@6B?$CSingleton@VCAccountConnector@@@@@
rdata$r	SEGMENT
??_R4CAccountConnector@@6B?$CSingleton@VCAccountConnector@@@@@ DD 00H ; CAccountConnector::`RTTI Complete Object Locator'
	DD	07cH
	DD	00H
	DD	FLAT:??_R0?AVCAccountConnector@@@8
	DD	FLAT:??_R3CAccountConnector@@8
rdata$r	ENDS
;	COMDAT ??_R1A@?0A@EA@?$CSingleton@VCAccountConnector@@@@8
rdata$r	SEGMENT
??_R1A@?0A@EA@?$CSingleton@VCAccountConnector@@@@8 DD FLAT:??_R0?AV?$CSingleton@VCAccountConnector@@@@@8 ; CSingleton<CAccountConnector>::`RTTI Base Class Descriptor at (0,-1,0,64)'
	DD	00H
	DD	00H
	DD	0ffffffffH
	DD	00H
	DD	040H
	DD	FLAT:??_R3?$CSingleton@VCAccountConnector@@@@8
rdata$r	ENDS
;	COMDAT ??_R2?$CSingleton@VCAccountConnector@@@@8
rdata$r	SEGMENT
??_R2?$CSingleton@VCAccountConnector@@@@8 DD FLAT:??_R1A@?0A@EA@?$CSingleton@VCAccountConnector@@@@8 ; CSingleton<CAccountConnector>::`RTTI Base Class Array'
rdata$r	ENDS
;	COMDAT ??_R3?$CSingleton@VCAccountConnector@@@@8
rdata$r	SEGMENT
??_R3?$CSingleton@VCAccountConnector@@@@8 DD 00H	; CSingleton<CAccountConnector>::`RTTI Class Hierarchy Descriptor'
	DD	00H
	DD	01H
	DD	FLAT:??_R2?$CSingleton@VCAccountConnector@@@@8
rdata$r	ENDS
;	COMDAT ??_R0?AV?$CSingleton@VCAccountConnector@@@@@8
data$rs	SEGMENT
??_R0?AV?$CSingleton@VCAccountConnector@@@@@8 DD FLAT:??_7type_info@@6B@ ; CSingleton<CAccountConnector> `RTTI Type Descriptor'
	DD	00H
	DB	'.?AV?$CSingleton@VCAccountConnector@@@@', 00H
data$rs	ENDS
;	COMDAT ??_R1HM@?0A@EA@?$CSingleton@VCAccountConnector@@@@8
rdata$r	SEGMENT
??_R1HM@?0A@EA@?$CSingleton@VCAccountConnector@@@@8 DD FLAT:??_R0?AV?$CSingleton@VCAccountConnector@@@@@8 ; CSingleton<CAccountConnector>::`RTTI Base Class Descriptor at (124,-1,0,64)'
	DD	00H
	DD	07cH
	DD	0ffffffffH
	DD	00H
	DD	040H
	DD	FLAT:??_R3?$CSingleton@VCAccountConnector@@@@8
rdata$r	ENDS
;	COMDAT ??_R2CNetworkStream@@8
rdata$r	SEGMENT
??_R2CNetworkStream@@8 DD FLAT:??_R1A@?0A@EA@CNetworkStream@@8 ; CNetworkStream::`RTTI Base Class Array'
rdata$r	ENDS
;	COMDAT ??_R3CNetworkStream@@8
rdata$r	SEGMENT
??_R3CNetworkStream@@8 DD 00H				; CNetworkStream::`RTTI Class Hierarchy Descriptor'
	DD	00H
	DD	01H
	DD	FLAT:??_R2CNetworkStream@@8
rdata$r	ENDS
;	COMDAT ??_R0?AVCNetworkStream@@@8
data$rs	SEGMENT
??_R0?AVCNetworkStream@@@8 DD FLAT:??_7type_info@@6B@	; CNetworkStream `RTTI Type Descriptor'
	DD	00H
	DB	'.?AVCNetworkStream@@', 00H
data$rs	ENDS
;	COMDAT ??_R1A@?0A@EA@CNetworkStream@@8
rdata$r	SEGMENT
??_R1A@?0A@EA@CNetworkStream@@8 DD FLAT:??_R0?AVCNetworkStream@@@8 ; CNetworkStream::`RTTI Base Class Descriptor at (0,-1,0,64)'
	DD	00H
	DD	00H
	DD	0ffffffffH
	DD	00H
	DD	040H
	DD	FLAT:??_R3CNetworkStream@@8
rdata$r	ENDS
;	COMDAT ??_R1A@?0A@EA@CAccountConnector@@8
rdata$r	SEGMENT
??_R1A@?0A@EA@CAccountConnector@@8 DD FLAT:??_R0?AVCAccountConnector@@@8 ; CAccountConnector::`RTTI Base Class Descriptor at (0,-1,0,64)'
	DD	02H
	DD	00H
	DD	0ffffffffH
	DD	00H
	DD	040H
	DD	FLAT:??_R3CAccountConnector@@8
rdata$r	ENDS
;	COMDAT ??_R2CAccountConnector@@8
rdata$r	SEGMENT
??_R2CAccountConnector@@8 DD FLAT:??_R1A@?0A@EA@CAccountConnector@@8 ; CAccountConnector::`RTTI Base Class Array'
	DD	FLAT:??_R1A@?0A@EA@CNetworkStream@@8
	DD	FLAT:??_R1HM@?0A@EA@?$CSingleton@VCAccountConnector@@@@8
rdata$r	ENDS
;	COMDAT ??_R3CAccountConnector@@8
rdata$r	SEGMENT
??_R3CAccountConnector@@8 DD 00H			; CAccountConnector::`RTTI Class Hierarchy Descriptor'
	DD	01H
	DD	03H
	DD	FLAT:??_R2CAccountConnector@@8
rdata$r	ENDS
;	COMDAT ??_R0?AVCAccountConnector@@@8
data$rs	SEGMENT
??_R0?AVCAccountConnector@@@8 DD FLAT:??_7type_info@@6B@ ; CAccountConnector `RTTI Type Descriptor'
	DD	00H
	DB	'.?AVCAccountConnector@@', 00H
data$rs	ENDS
;	COMDAT ??_R4CAccountConnector@@6BCNetworkStream@@@
rdata$r	SEGMENT
??_R4CAccountConnector@@6BCNetworkStream@@@ DD 00H	; CAccountConnector::`RTTI Complete Object Locator'
	DD	00H
	DD	00H
	DD	FLAT:??_R0?AVCAccountConnector@@@8
	DD	FLAT:??_R3CAccountConnector@@8
rdata$r	ENDS
;	COMDAT ??_C@_06NAODFICM@OnExit@
CONST	SEGMENT
??_C@_06NAODFICM@OnExit@ DB 'OnExit', 00H		; `string'
CONST	ENDS
;	COMDAT ??_C@_0BB@JEKGEMCL@OnConnectFailure@
CONST	SEGMENT
??_C@_0BB@JEKGEMCL@OnConnectFailure@ DB 'OnConnectFailure', 00H ; `string'
CONST	ENDS
;	COMDAT ??_C@_0BN@EDLJMNFO@KEY_AGREEMENT_COMPLETED?5RECV@
CONST	SEGMENT
??_C@_0BN@EDLJMNFO@KEY_AGREEMENT_COMPLETED?5RECV@ DB 'KEY_AGREEMENT_COMPL'
	DB	'ETED RECV', 00H				; `string'
CONST	ENDS
;	COMDAT ??_C@_0BG@HCLENPJB@KEY_AGREEMENT?5SEND?5?$CFu@
CONST	SEGMENT
??_C@_0BG@HCLENPJB@KEY_AGREEMENT?5SEND?5?$CFu@ DB 'KEY_AGREEMENT SEND %u', 00H ; `string'
CONST	ENDS
;	COMDAT ??_C@_0EK@DCNAEAA@?5CAccountConnector?3?3__AuthState@
CONST	SEGMENT
??_C@_0EK@DCNAEAA@?5CAccountConnector?3?3__AuthState@ DB ' CAccountConnec'
	DB	'tor::__AuthState_RecvKeyAgreement - SendKeyAgreement Error', 00H ; `string'
CONST	ENDS
;	COMDAT ??_C@_0BG@BIKAAIDD@KEY_AGREEMENT?5RECV?5?$CFu@
CONST	SEGMENT
??_C@_0BG@BIKAAIDD@KEY_AGREEMENT?5RECV?5?$CFu@ DB 'KEY_AGREEMENT RECV %u', 00H ; `string'
CONST	ENDS
;	COMDAT ??_C@_0N@PIKEFLJP@OnMatrixCard@
CONST	SEGMENT
??_C@_0N@PIKEFLJP@OnMatrixCard@ DB 'OnMatrixCard', 00H	; `string'
CONST	ENDS
;	COMDAT ??_C@_0L@FKCIBGAB@?$CIiiiiiiii?$CJ@
CONST	SEGMENT
??_C@_0L@FKCIBGAB@?$CIiiiiiiii?$CJ@ DB '(iiiiiiii)', 00H ; `string'
CONST	ENDS
;	COMDAT ??_C@_0BP@DDJIDHFM@BINARY_OnNEWCIBNPasspodRequest@
CONST	SEGMENT
??_C@_0BP@DDJIDHFM@BINARY_OnNEWCIBNPasspodRequest@ DB 'BINARY_OnNEWCIBNPa'
	DB	'sspodRequest', 00H				; `string'
CONST	ENDS
;	COMDAT ??_C@_02HCKGKOFO@?$CI?$CJ@
CONST	SEGMENT
??_C@_02HCKGKOFO@?$CI?$CJ@ DB '()', 00H			; `string'
CONST	ENDS
;	COMDAT ??_C@_0BJ@IENIHBKM@BINARY_OnRunupMatrixQuiz@
CONST	SEGMENT
??_C@_0BJ@IENIHBKM@BINARY_OnRunupMatrixQuiz@ DB 'BINARY_OnRunupMatrixQuiz'
	DB	00H						; `string'
CONST	ENDS
;	COMDAT ??_C@_0P@OOEAIINI@OnLoginFailure@
CONST	SEGMENT
??_C@_0P@OOEAIINI@OnLoginFailure@ DB 'OnLoginFailure', 00H ; `string'
CONST	ENDS
;	COMDAT ??_C@_03KJMMOONA@?$CIs?$CJ@
CONST	SEGMENT
??_C@_03KJMMOONA@?$CIs?$CJ@ DB '(s)', 00H		; `string'
CONST	ENDS
;	COMDAT ??_C@_09FJACDEDF@BESAMEKEY@
CONST	SEGMENT
??_C@_09FJACDEDF@BESAMEKEY@ DB 'BESAMEKEY', 00H		; `string'
CONST	ENDS
;	COMDAT ??_C@_0EE@PGOEFGOD@?5CAccountConnector?3?3__AuthState@
CONST	SEGMENT
??_C@_0EE@PGOEFGOD@?5CAccountConnector?3?3__AuthState@ DB ' CAccountConne'
	DB	'ctor::__AuthState_RecvHandshake - SendHandshake Error', 00H ; `string'
CONST	ENDS
;	COMDAT ??_C@_0BC@CAMNEEDN@HANDSHAKE?5SEND?5?$CFu@
CONST	SEGMENT
??_C@_0BC@CAMNEEDN@HANDSHAKE?5SEND?5?$CFu@ DB 'HANDSHAKE SEND %u', 00H ; `string'
CONST	ENDS
;	COMDAT ??_C@_0BF@MMAJMJLI@HANDSHAKE?5RECV?5?$CFu?5?$CFd@
CONST	SEGMENT
??_C@_0BF@MMAJMJLI@HANDSHAKE?5RECV?5?$CFu?5?$CFd@ DB 'HANDSHAKE RECV %u %'
	DB	'd', 00H					; `string'
CONST	ENDS
;	COMDAT ??_C@_0DN@HEMMJEJK@?5CAccountConnector?3?3__AuthState@
CONST	SEGMENT
??_C@_0DN@HEMMJEJK@?5CAccountConnector?3?3__AuthState@ DB ' CAccountConne'
	DB	'ctor::__AuthState_RecvPhase - SendLogin3 Error', 00H ; `string'
CONST	ENDS
;	COMDAT ??_C@_0BA@HGDBLFFH@SendLogin?5Error@
CONST	SEGMENT
??_C@_0BA@HGDBLFFH@SendLogin?5Error@ DB 'SendLogin Error', 00H ; `string'
CONST	ENDS
;	COMDAT ??_C@_0BP@PNMANAPB@SendRunupMatrixCardPacketError@
CONST	SEGMENT
??_C@_0BP@PNMANAPB@SendRunupMatrixCardPacketError@ DB 'SendRunupMatrixCar'
	DB	'dPacketError', 00H				; `string'
CONST	ENDS
;	COMDAT ??_C@_0BP@JFBAGMPA@SendNEWCIBNPasspodAnswerPacket@
CONST	SEGMENT
??_C@_0BP@JFBAGMPA@SendNEWCIBNPasspodAnswerPacket@ DB 'SendNEWCIBNPasspod'
	DB	'AnswerPacket', 00H				; `string'
CONST	ENDS
;	COMDAT ??_7CAccountConnector@@6B?$CSingleton@VCAccountConnector@@@@@
CONST	SEGMENT
??_7CAccountConnector@@6B?$CSingleton@VCAccountConnector@@@@@ DD FLAT:??_R4CAccountConnector@@6B?$CSingleton@VCAccountConnector@@@@@ ; CAccountConnector::`vftable'
	DD	FLAT:??_ECAccountConnector@@WHM@AEPAXI@Z
CONST	ENDS
;	COMDAT ??_7CAccountConnector@@6BCNetworkStream@@@
CONST	SEGMENT
??_7CAccountConnector@@6BCNetworkStream@@@ DD FLAT:??_R4CAccountConnector@@6BCNetworkStream@@@ ; CAccountConnector::`vftable'
	DD	FLAT:??_ECAccountConnector@@UAEPAXI@Z
	DD	FLAT:?OnConnectSuccess@CAccountConnector@@MAEXXZ
	DD	FLAT:?OnConnectFailure@CAccountConnector@@MAEXXZ
	DD	FLAT:?OnRemoteDisconnect@CAccountConnector@@MAEXXZ
	DD	FLAT:?OnDisconnect@CAccountConnector@@MAEXXZ
	DD	FLAT:?OnProcess@CNetworkStream@@MAE_NXZ
CONST	ENDS
;	COMDAT ??_7?$CSingleton@VCAccountConnector@@@@6B@
CONST	SEGMENT
??_7?$CSingleton@VCAccountConnector@@@@6B@ DD FLAT:??_R4?$CSingleton@VCAccountConnector@@@@6B@ ; CSingleton<CAccountConnector>::`vftable'
	DD	FLAT:??_E?$CSingleton@VCAccountConnector@@@@UAEPAXI@Z
CONST	ENDS
;	COMDAT ??_R1A@?0A@EA@bad_array_new_length@std@@8
rdata$r	SEGMENT
??_R1A@?0A@EA@bad_array_new_length@std@@8 DD FLAT:??_R0?AVbad_array_new_length@std@@@8 ; std::bad_array_new_length::`RTTI Base Class Descriptor at (0,-1,0,64)'
	DD	02H
	DD	00H
	DD	0ffffffffH
	DD	00H
	DD	040H
	DD	FLAT:??_R3bad_array_new_length@std@@8
rdata$r	ENDS
;	COMDAT ??_R2bad_array_new_length@std@@8
rdata$r	SEGMENT
??_R2bad_array_new_length@std@@8 DD FLAT:??_R1A@?0A@EA@bad_array_new_length@std@@8 ; std::bad_array_new_length::`RTTI Base Class Array'
	DD	FLAT:??_R1A@?0A@EA@bad_alloc@std@@8
	DD	FLAT:??_R1A@?0A@EA@exception@std@@8
rdata$r	ENDS
;	COMDAT ??_R3bad_array_new_length@std@@8
rdata$r	SEGMENT
??_R3bad_array_new_length@std@@8 DD 00H			; std::bad_array_new_length::`RTTI Class Hierarchy Descriptor'
	DD	00H
	DD	03H
	DD	FLAT:??_R2bad_array_new_length@std@@8
rdata$r	ENDS
;	COMDAT ??_R4bad_array_new_length@std@@6B@
rdata$r	SEGMENT
??_R4bad_array_new_length@std@@6B@ DD 00H		; std::bad_array_new_length::`RTTI Complete Object Locator'
	DD	00H
	DD	00H
	DD	FLAT:??_R0?AVbad_array_new_length@std@@@8
	DD	FLAT:??_R3bad_array_new_length@std@@8
rdata$r	ENDS
;	COMDAT ??_R1A@?0A@EA@bad_alloc@std@@8
rdata$r	SEGMENT
??_R1A@?0A@EA@bad_alloc@std@@8 DD FLAT:??_R0?AVbad_alloc@std@@@8 ; std::bad_alloc::`RTTI Base Class Descriptor at (0,-1,0,64)'
	DD	01H
	DD	00H
	DD	0ffffffffH
	DD	00H
	DD	040H
	DD	FLAT:??_R3bad_alloc@std@@8
rdata$r	ENDS
;	COMDAT ??_R2bad_alloc@std@@8
rdata$r	SEGMENT
??_R2bad_alloc@std@@8 DD FLAT:??_R1A@?0A@EA@bad_alloc@std@@8 ; std::bad_alloc::`RTTI Base Class Array'
	DD	FLAT:??_R1A@?0A@EA@exception@std@@8
rdata$r	ENDS
;	COMDAT ??_R3bad_alloc@std@@8
rdata$r	SEGMENT
??_R3bad_alloc@std@@8 DD 00H				; std::bad_alloc::`RTTI Class Hierarchy Descriptor'
	DD	00H
	DD	02H
	DD	FLAT:??_R2bad_alloc@std@@8
rdata$r	ENDS
;	COMDAT ??_R4bad_alloc@std@@6B@
rdata$r	SEGMENT
??_R4bad_alloc@std@@6B@ DD 00H				; std::bad_alloc::`RTTI Complete Object Locator'
	DD	00H
	DD	00H
	DD	FLAT:??_R0?AVbad_alloc@std@@@8
	DD	FLAT:??_R3bad_alloc@std@@8
rdata$r	ENDS
;	COMDAT ??_R1A@?0A@EA@exception@std@@8
rdata$r	SEGMENT
??_R1A@?0A@EA@exception@std@@8 DD FLAT:??_R0?AVexception@std@@@8 ; std::exception::`RTTI Base Class Descriptor at (0,-1,0,64)'
	DD	00H
	DD	00H
	DD	0ffffffffH
	DD	00H
	DD	040H
	DD	FLAT:??_R3exception@std@@8
rdata$r	ENDS
;	COMDAT ??_R2exception@std@@8
rdata$r	SEGMENT
??_R2exception@std@@8 DD FLAT:??_R1A@?0A@EA@exception@std@@8 ; std::exception::`RTTI Base Class Array'
rdata$r	ENDS
;	COMDAT ??_R3exception@std@@8
rdata$r	SEGMENT
??_R3exception@std@@8 DD 00H				; std::exception::`RTTI Class Hierarchy Descriptor'
	DD	00H
	DD	01H
	DD	FLAT:??_R2exception@std@@8
rdata$r	ENDS
;	COMDAT ??_R4exception@std@@6B@
rdata$r	SEGMENT
??_R4exception@std@@6B@ DD 00H				; std::exception::`RTTI Complete Object Locator'
	DD	00H
	DD	00H
	DD	FLAT:??_R0?AVexception@std@@@8
	DD	FLAT:??_R3exception@std@@8
rdata$r	ENDS
;	COMDAT ??_C@_01NBENCBCI@?$CK@
CONST	SEGMENT
??_C@_01NBENCBCI@?$CK@ DB '*', 00H			; `string'
CONST	ENDS
;	COMDAT ??_C@_00CNPNBAHC@@
CONST	SEGMENT
??_C@_00CNPNBAHC@@ DB 00H				; `string'
CONST	ENDS
;	COMDAT ??_C@_0BA@JFNIOLAK@string?5too?5long@
CONST	SEGMENT
??_C@_0BA@JFNIOLAK@string?5too?5long@ DB 'string too long', 00H ; `string'
CONST	ENDS
;	COMDAT __CT??_R0?AVexception@std@@@8??0exception@std@@QAE@ABV01@@Z12
xdata$x	SEGMENT
__CT??_R0?AVexception@std@@@8??0exception@std@@QAE@ABV01@@Z12 DD 00H
	DD	FLAT:??_R0?AVexception@std@@@8
	DD	00H
	DD	0ffffffffH
	ORG $+4
	DD	0cH
	DD	FLAT:??0exception@std@@QAE@ABV01@@Z
xdata$x	ENDS
;	COMDAT ??_R0?AVexception@std@@@8
data$r	SEGMENT
??_R0?AVexception@std@@@8 DD FLAT:??_7type_info@@6B@	; std::exception `RTTI Type Descriptor'
	DD	00H
	DB	'.?AVexception@std@@', 00H
data$r	ENDS
;	COMDAT __CT??_R0?AVbad_alloc@std@@@8??0bad_alloc@std@@QAE@ABV01@@Z12
xdata$x	SEGMENT
__CT??_R0?AVbad_alloc@std@@@8??0bad_alloc@std@@QAE@ABV01@@Z12 DD 010H
	DD	FLAT:??_R0?AVbad_alloc@std@@@8
	DD	00H
	DD	0ffffffffH
	ORG $+4
	DD	0cH
	DD	FLAT:??0bad_alloc@std@@QAE@ABV01@@Z
xdata$x	ENDS
;	COMDAT ??_R0?AVbad_alloc@std@@@8
data$r	SEGMENT
??_R0?AVbad_alloc@std@@@8 DD FLAT:??_7type_info@@6B@	; std::bad_alloc `RTTI Type Descriptor'
	DD	00H
	DB	'.?AVbad_alloc@std@@', 00H
data$r	ENDS
;	COMDAT __CT??_R0?AVbad_array_new_length@std@@@8??0bad_array_new_length@std@@QAE@ABV01@@Z12
xdata$x	SEGMENT
__CT??_R0?AVbad_array_new_length@std@@@8??0bad_array_new_length@std@@QAE@ABV01@@Z12 DD 00H
	DD	FLAT:??_R0?AVbad_array_new_length@std@@@8
	DD	00H
	DD	0ffffffffH
	ORG $+4
	DD	0cH
	DD	FLAT:??0bad_array_new_length@std@@QAE@ABV01@@Z
xdata$x	ENDS
;	COMDAT ??_R0?AVbad_array_new_length@std@@@8
data$r	SEGMENT
??_R0?AVbad_array_new_length@std@@@8 DD FLAT:??_7type_info@@6B@ ; std::bad_array_new_length `RTTI Type Descriptor'
	DD	00H
	DB	'.?AVbad_array_new_length@std@@', 00H
data$r	ENDS
;	COMDAT __CTA3?AVbad_array_new_length@std@@
xdata$x	SEGMENT
__CTA3?AVbad_array_new_length@std@@ DD 03H
	DD	FLAT:__CT??_R0?AVbad_array_new_length@std@@@8??0bad_array_new_length@std@@QAE@ABV01@@Z12
	DD	FLAT:__CT??_R0?AVbad_alloc@std@@@8??0bad_alloc@std@@QAE@ABV01@@Z12
	DD	FLAT:__CT??_R0?AVexception@std@@@8??0exception@std@@QAE@ABV01@@Z12
xdata$x	ENDS
;	COMDAT __TI3?AVbad_array_new_length@std@@
xdata$x	SEGMENT
__TI3?AVbad_array_new_length@std@@ DD 00H
	DD	FLAT:??1bad_array_new_length@std@@UAE@XZ
	DD	00H
	DD	FLAT:__CTA3?AVbad_array_new_length@std@@
xdata$x	ENDS
;	COMDAT ??_C@_0BF@KINCDENJ@bad?5array?5new?5length@
CONST	SEGMENT
??_C@_0BF@KINCDENJ@bad?5array?5new?5length@ DB 'bad array new length', 00H ; `string'
CONST	ENDS
;	COMDAT ??_7bad_array_new_length@std@@6B@
CONST	SEGMENT
??_7bad_array_new_length@std@@6B@ DD FLAT:??_R4bad_array_new_length@std@@6B@ ; std::bad_array_new_length::`vftable'
	DD	FLAT:??_Ebad_array_new_length@std@@UAEPAXI@Z
	DD	FLAT:?what@exception@std@@UBEPBDXZ
CONST	ENDS
;	COMDAT ??_7bad_alloc@std@@6B@
CONST	SEGMENT
??_7bad_alloc@std@@6B@ DD FLAT:??_R4bad_alloc@std@@6B@	; std::bad_alloc::`vftable'
	DD	FLAT:??_Ebad_alloc@std@@UAEPAXI@Z
	DD	FLAT:?what@exception@std@@UBEPBDXZ
CONST	ENDS
;	COMDAT ??_C@_0BC@EOODALEL@Unknown?5exception@
CONST	SEGMENT
??_C@_0BC@EOODALEL@Unknown?5exception@ DB 'Unknown exception', 00H ; `string'
CONST	ENDS
;	COMDAT ??_7exception@std@@6B@
CONST	SEGMENT
??_7exception@std@@6B@ DD FLAT:??_R4exception@std@@6B@	; std::exception::`vftable'
	DD	FLAT:??_Eexception@std@@UAEPAXI@Z
	DD	FLAT:?what@exception@std@@UBEPBDXZ
CONST	ENDS
;	COMDAT xdata$x
xdata$x	SEGMENT
__unwindtable$?__AuthState_RecvHybridCryptSDB@CAccountConnector@@IAE_NH@Z DD 0ffffffffH
	DD	FLAT:__unwindfunclet$?__AuthState_RecvHybridCryptSDB@CAccountConnector@@IAE_NH@Z$0
__ehfuncinfo$?__AuthState_RecvHybridCryptSDB@CAccountConnector@@IAE_NH@Z DD 019930522H
	DD	01H
	DD	FLAT:__unwindtable$?__AuthState_RecvHybridCryptSDB@CAccountConnector@@IAE_NH@Z
	DD	2 DUP(00H)
	DD	2 DUP(00H)
	DD	00H
	DD	01H
xdata$x	ENDS
;	COMDAT xdata$x
xdata$x	SEGMENT
__unwindtable$?__AuthState_RecvHybridCryptKeys@CAccountConnector@@IAE_NH@Z DD 0ffffffffH
	DD	FLAT:__unwindfunclet$?__AuthState_RecvHybridCryptKeys@CAccountConnector@@IAE_NH@Z$0
__ehfuncinfo$?__AuthState_RecvHybridCryptKeys@CAccountConnector@@IAE_NH@Z DD 019930522H
	DD	01H
	DD	FLAT:__unwindtable$?__AuthState_RecvHybridCryptKeys@CAccountConnector@@IAE_NH@Z
	DD	2 DUP(00H)
	DD	2 DUP(00H)
	DD	00H
	DD	01H
xdata$x	ENDS
;	COMDAT xdata$x
xdata$x	SEGMENT
__ehfuncinfo$??0CAccountConnector@@QAE@XZ DD 019930522H
	DD	05H
	DD	FLAT:__unwindtable$??0CAccountConnector@@QAE@XZ
	DD	2 DUP(00H)
	DD	2 DUP(00H)
	DD	00H
	DD	01H
__unwindtable$??0CAccountConnector@@QAE@XZ DD 0ffffffffH
	DD	FLAT:__unwindfunclet$??0CAccountConnector@@QAE@XZ$0
	DD	00H
	DD	FLAT:__unwindfunclet$??0CAccountConnector@@QAE@XZ$1
	DD	01H
	DD	FLAT:__unwindfunclet$??0CAccountConnector@@QAE@XZ$2
	DD	02H
	DD	FLAT:__unwindfunclet$??0CAccountConnector@@QAE@XZ$3
	DD	03H
	DD	FLAT:__unwindfunclet$??0CAccountConnector@@QAE@XZ$4
xdata$x	ENDS
; Function compile flags: /Odsp
;	COMDAT ??_ECAccountConnector@@WHM@AEPAXI@Z
_TEXT	SEGMENT
??_ECAccountConnector@@WHM@AEPAXI@Z PROC		; [thunk]:CAccountConnector::`vector deleting destructor', COMDAT
  00000	83 e9 7c	 sub	 ecx, 124		; 0000007cH
  00003	e9 00 00 00 00	 jmp	 ??_ECAccountConnector@@UAEPAXI@Z
??_ECAccountConnector@@WHM@AEPAXI@Z ENDP		; [thunk]:CAccountConnector::`vector deleting destructor'
_TEXT	ENDS
; Function compile flags: /Ogtp
; File D:\Metin2 Server Files\mainline\SRC_2014\Metin2Client\UserInterface\Packet.h
;	COMDAT ??1SPacketGCHybridSDB@@QAE@XZ
_TEXT	SEGMENT
??1SPacketGCHybridSDB@@QAE@XZ PROC			; SPacketGCHybridSDB::~SPacketGCHybridSDB, COMDAT
; _this$ = ecx

; 2669 : 	{

  00000	56		 push	 esi
  00001	8b f1		 mov	 esi, ecx

; 2670 : 		delete[] m_pStream;

  00003	ff 76 07	 push	 DWORD PTR [esi+7]
  00006	e8 00 00 00 00	 call	 ??_V@YAXPAX@Z		; operator delete[]
  0000b	83 c4 04	 add	 esp, 4

; 2671 : 		m_pStream = NULL;

  0000e	c7 46 07 00 00
	00 00		 mov	 DWORD PTR [esi+7], 0
  00015	5e		 pop	 esi

; 2672 : 	}

  00016	c3		 ret	 0
??1SPacketGCHybridSDB@@QAE@XZ ENDP			; SPacketGCHybridSDB::~SPacketGCHybridSDB
_TEXT	ENDS
; Function compile flags: /Ogtp
; File D:\Metin2 Server Files\mainline\SRC_2014\Metin2Client\UserInterface\Packet.h
;	COMDAT ??1SPacketGCHybridCryptKeys@@QAE@XZ
_TEXT	SEGMENT
??1SPacketGCHybridCryptKeys@@QAE@XZ PROC		; SPacketGCHybridCryptKeys::~SPacketGCHybridCryptKeys, COMDAT
; _this$ = ecx

; 2638 : 	{

  00000	56		 push	 esi
  00001	8b f1		 mov	 esi, ecx

; 2639 : 		if( m_pStream )

  00003	8b 46 07	 mov	 eax, DWORD PTR [esi+7]
  00006	85 c0		 test	 eax, eax
  00008	74 10		 je	 SHORT $LN2@SPacketGCH

; 2640 : 		{
; 2641 : 			delete[] m_pStream;

  0000a	50		 push	 eax
  0000b	e8 00 00 00 00	 call	 ??_V@YAXPAX@Z		; operator delete[]
  00010	83 c4 04	 add	 esp, 4

; 2642 : 			m_pStream = NULL;

  00013	c7 46 07 00 00
	00 00		 mov	 DWORD PTR [esi+7], 0
$LN2@SPacketGCH:

; 2643 : 		}
; 2644 : 	}

  0001a	5e		 pop	 esi
  0001b	c3		 ret	 0
??1SPacketGCHybridCryptKeys@@QAE@XZ ENDP		; SPacketGCHybridCryptKeys::~SPacketGCHybridCryptKeys
_TEXT	ENDS
; Function compile flags: /Ogtp
;	COMDAT ??_GCAccountConnector@@UAEPAXI@Z
_TEXT	SEGMENT
___flags$ = 8						; size = 4
??_GCAccountConnector@@UAEPAXI@Z PROC			; CAccountConnector::`scalar deleting destructor', COMDAT
; _this$ = ecx
  00000	55		 push	 ebp
  00001	8b ec		 mov	 ebp, esp
  00003	56		 push	 esi
  00004	8b f1		 mov	 esi, ecx
  00006	e8 00 00 00 00	 call	 ??1CAccountConnector@@UAE@XZ ; CAccountConnector::~CAccountConnector
  0000b	f6 45 08 01	 test	 BYTE PTR ___flags$[ebp], 1
  0000f	74 0e		 je	 SHORT $LN4@scalar
  00011	68 d8 00 00 00	 push	 216			; 000000d8H
  00016	56		 push	 esi
  00017	e8 00 00 00 00	 call	 ??3@YAXPAXI@Z		; operator delete
  0001c	83 c4 08	 add	 esp, 8
$LN4@scalar:
  0001f	8b c6		 mov	 eax, esi
  00021	5e		 pop	 esi
  00022	5d		 pop	 ebp
  00023	c2 04 00	 ret	 4
??_GCAccountConnector@@UAEPAXI@Z ENDP			; CAccountConnector::`scalar deleting destructor'
_TEXT	ENDS
; Function compile flags: /Ogtp
; File D:\Metin2 Server Files\mainline\SRC_2014\Metin2Client\UserInterface\AccountConnector.cpp
;	COMDAT ?__AnalyzeVarSizePacket@CAccountConnector@@IAE_NIP81@AE_NH@Z@Z
_TEXT	SEGMENT
_dynamicHeader$ = -8					; size = 3
_bHeader$ = -1						; size = 1
_uHeader$ = 8						; size = 4
_pfnDispatchPacket$ = 12				; size = 8
?__AnalyzeVarSizePacket@CAccountConnector@@IAE_NIP81@AE_NH@Z@Z PROC ; CAccountConnector::__AnalyzeVarSizePacket, COMDAT
; _this$ = ecx

; 645  : {

  00000	55		 push	 ebp
  00001	8b ec		 mov	 ebp, esp
  00003	83 ec 08	 sub	 esp, 8

; 646  : 	BYTE bHeader;
; 647  : 	if (!Peek(sizeof(bHeader), &bHeader))

  00006	8d 45 ff	 lea	 eax, DWORD PTR _bHeader$[ebp]
  00009	56		 push	 esi
  0000a	50		 push	 eax
  0000b	6a 01		 push	 1
  0000d	8b f1		 mov	 esi, ecx
  0000f	e8 00 00 00 00	 call	 ?Peek@CNetworkStream@@QAE_NHPAX@Z ; CNetworkStream::Peek
  00014	84 c0		 test	 al, al
  00016	74 3f		 je	 SHORT $LN7@AnalyzeVar

; 648  : 		return true;
; 649  : 
; 650  : 	if (bHeader!=uHeader)

  00018	0f b6 45 ff	 movzx	 eax, BYTE PTR _bHeader$[ebp]
  0001c	3b 45 08	 cmp	 eax, DWORD PTR _uHeader$[ebp]
  0001f	75 36		 jne	 SHORT $LN7@AnalyzeVar

; 651  : 		return true;
; 652  : 
; 653  : 	TDynamicSizePacketHeader dynamicHeader;
; 654  : 
; 655  : 	if (!Peek(sizeof(dynamicHeader), &dynamicHeader))

  00021	8d 45 f8	 lea	 eax, DWORD PTR _dynamicHeader$[ebp]
  00024	8b ce		 mov	 ecx, esi
  00026	50		 push	 eax
  00027	6a 03		 push	 3
  00029	e8 00 00 00 00	 call	 ?Peek@CNetworkStream@@QAE_NHPAX@Z ; CNetworkStream::Peek
  0002e	84 c0		 test	 al, al
  00030	74 25		 je	 SHORT $LN7@AnalyzeVar

; 656  : 		return true;
; 657  : 
; 658  : 	if (!Peek(dynamicHeader.size))

  00032	0f b7 45 f9	 movzx	 eax, WORD PTR _dynamicHeader$[ebp+1]
  00036	8b ce		 mov	 ecx, esi
  00038	50		 push	 eax
  00039	e8 00 00 00 00	 call	 ?Peek@CNetworkStream@@QAE_NH@Z ; CNetworkStream::Peek
  0003e	84 c0		 test	 al, al
  00040	74 15		 je	 SHORT $LN7@AnalyzeVar

; 660  : 
; 661  : 	return (this->*pfnDispatchPacket)(dynamicHeader.size);

  00042	8b 4d 10	 mov	 ecx, DWORD PTR _pfnDispatchPacket$[ebp+4]
  00045	0f b7 45 f9	 movzx	 eax, WORD PTR _dynamicHeader$[ebp+1]
  00049	50		 push	 eax
  0004a	8d 0c 31	 lea	 ecx, DWORD PTR [ecx+esi]
  0004d	ff 55 0c	 call	 DWORD PTR _pfnDispatchPacket$[ebp]
  00050	5e		 pop	 esi

; 662  : }

  00051	8b e5		 mov	 esp, ebp
  00053	5d		 pop	 ebp
  00054	c2 0c 00	 ret	 12			; 0000000cH
$LN7@AnalyzeVar:

; 659  : 		return true;

  00057	b0 01		 mov	 al, 1
  00059	5e		 pop	 esi

; 662  : }

  0005a	8b e5		 mov	 esp, ebp
  0005c	5d		 pop	 ebp
  0005d	c2 0c 00	 ret	 12			; 0000000cH
?__AnalyzeVarSizePacket@CAccountConnector@@IAE_NIP81@AE_NH@Z@Z ENDP ; CAccountConnector::__AnalyzeVarSizePacket
_TEXT	ENDS
; Function compile flags: /Ogtp
; File D:\Metin2 Server Files\mainline\SRC_2014\Metin2Client\UserInterface\AccountConnector.cpp
;	COMDAT ?__AnalyzePacket@CAccountConnector@@IAE_NIIP81@AE_NXZ@Z
_TEXT	SEGMENT
_bHeader$ = -1						; size = 1
_uHeader$ = 8						; size = 4
_uPacketSize$ = 12					; size = 4
_pfnDispatchPacket$ = 16				; size = 8
?__AnalyzePacket@CAccountConnector@@IAE_NIIP81@AE_NXZ@Z PROC ; CAccountConnector::__AnalyzePacket, COMDAT
; _this$ = ecx

; 630  : {

  00000	55		 push	 ebp
  00001	8b ec		 mov	 ebp, esp
  00003	51		 push	 ecx
  00004	56		 push	 esi

; 631  : 	BYTE bHeader;
; 632  : 	if (!Peek(sizeof(bHeader), &bHeader))

  00005	8d 45 ff	 lea	 eax, DWORD PTR _bHeader$[ebp]
  00008	8b f1		 mov	 esi, ecx
  0000a	50		 push	 eax
  0000b	6a 01		 push	 1
  0000d	e8 00 00 00 00	 call	 ?Peek@CNetworkStream@@QAE_NHPAX@Z ; CNetworkStream::Peek
  00012	84 c0		 test	 al, al
  00014	74 27		 je	 SHORT $LN6@AnalyzePac

; 633  : 		return true;
; 634  : 
; 635  : 	if (bHeader!=uHeader)

  00016	0f b6 45 ff	 movzx	 eax, BYTE PTR _bHeader$[ebp]
  0001a	3b 45 08	 cmp	 eax, DWORD PTR _uHeader$[ebp]
  0001d	75 1e		 jne	 SHORT $LN6@AnalyzePac

; 636  : 		return true;
; 637  : 
; 638  : 	if (!Peek(uPacketSize))

  0001f	ff 75 0c	 push	 DWORD PTR _uPacketSize$[ebp]
  00022	8b ce		 mov	 ecx, esi
  00024	e8 00 00 00 00	 call	 ?Peek@CNetworkStream@@QAE_NH@Z ; CNetworkStream::Peek
  00029	84 c0		 test	 al, al
  0002b	74 10		 je	 SHORT $LN6@AnalyzePac

; 640  : 
; 641  : 	return (this->*pfnDispatchPacket)();

  0002d	8b 4d 14	 mov	 ecx, DWORD PTR _pfnDispatchPacket$[ebp+4]
  00030	8d 0c 31	 lea	 ecx, DWORD PTR [ecx+esi]
  00033	ff 55 10	 call	 DWORD PTR _pfnDispatchPacket$[ebp]
  00036	5e		 pop	 esi

; 642  : }

  00037	8b e5		 mov	 esp, ebp
  00039	5d		 pop	 ebp
  0003a	c2 10 00	 ret	 16			; 00000010H
$LN6@AnalyzePac:

; 639  : 		return true;

  0003d	b0 01		 mov	 al, 1
  0003f	5e		 pop	 esi

; 642  : }

  00040	8b e5		 mov	 esp, ebp
  00042	5d		 pop	 ebp
  00043	c2 10 00	 ret	 16			; 00000010H
?__AnalyzePacket@CAccountConnector@@IAE_NIIP81@AE_NXZ@Z ENDP ; CAccountConnector::__AnalyzePacket
_TEXT	ENDS
; Function compile flags: /Ogtp
; File D:\Metin2 Server Files\mainline\SRC_2014\Metin2Client\UserInterface\AccountConnector.cpp
; File D:\Metin2 Server Files\mainline\SRC_2014\Metin2Client\UserInterface\Packet.h
; File D:\Metin2 Server Files\mainline\SRC_2014\Metin2Client\UserInterface\AccountConnector.cpp
; File D:\Metin2 Server Files\mainline\SRC_2014\Metin2Client\UserInterface\Packet.h
; File D:\Metin2 Server Files\mainline\SRC_2014\Metin2Client\UserInterface\AccountConnector.cpp
;	COMDAT ?__AuthState_RecvHybridCryptSDB@CAccountConnector@@IAE_NH@Z
_TEXT	SEGMENT
_kPacket$ = -24						; size = 11
__$EHRec$ = -12						; size = 12
_iTotalSize$ = 8					; size = 4
?__AuthState_RecvHybridCryptSDB@CAccountConnector@@IAE_NH@Z PROC ; CAccountConnector::__AuthState_RecvHybridCryptSDB, COMDAT
; _this$ = ecx

; 411  : {

  00000	55		 push	 ebp
  00001	8b ec		 mov	 ebp, esp
  00003	6a ff		 push	 -1
  00005	68 00 00 00 00	 push	 __ehhandler$?__AuthState_RecvHybridCryptSDB@CAccountConnector@@IAE_NH@Z
  0000a	64 a1 00 00 00
	00		 mov	 eax, DWORD PTR fs:0
  00010	50		 push	 eax
  00011	83 ec 0c	 sub	 esp, 12			; 0000000cH
  00014	53		 push	 ebx
  00015	56		 push	 esi
  00016	a1 00 00 00 00	 mov	 eax, DWORD PTR ___security_cookie
  0001b	33 c5		 xor	 eax, ebp
  0001d	50		 push	 eax
  0001e	8d 45 f4	 lea	 eax, DWORD PTR __$EHRec$[ebp]
  00021	64 a3 00 00 00
	00		 mov	 DWORD PTR fs:0, eax
  00027	8b f1		 mov	 esi, ecx

; 412  : 	int iFixedHeaderSize = TPacketGCHybridSDB::GetFixedHeaderSize();
; 413  : 
; 414  : 	TPacketGCHybridSDB kPacket(iTotalSize-iFixedHeaderSize);

  00029	8b 45 08	 mov	 eax, DWORD PTR _iTotalSize$[ebp]
  0002c	83 c0 f9	 add	 eax, -7			; fffffff9H
; File D:\Metin2 Server Files\mainline\SRC_2014\Metin2Client\UserInterface\Packet.h

; 2666 : 		m_pStream = new BYTE[iStreamSize];

  0002f	50		 push	 eax
  00030	89 45 eb	 mov	 DWORD PTR _kPacket$[ebp+3], eax
  00033	e8 00 00 00 00	 call	 ??_U@YAPAXI@Z		; operator new[]
  00038	83 c4 04	 add	 esp, 4
  0003b	89 45 ef	 mov	 DWORD PTR _kPacket$[ebp+7], eax
; File D:\Metin2 Server Files\mainline\SRC_2014\Metin2Client\UserInterface\AccountConnector.cpp

; 416  : 	if (!Recv(iFixedHeaderSize, &kPacket))

  0003e	8d 45 e8	 lea	 eax, DWORD PTR _kPacket$[ebp]
  00041	c7 45 fc 00 00
	00 00		 mov	 DWORD PTR __$EHRec$[ebp+8], 0
  00048	50		 push	 eax
  00049	6a 07		 push	 7
  0004b	8b ce		 mov	 ecx, esi
  0004d	e8 00 00 00 00	 call	 ?Recv@CNetworkStream@@QAE_NHPAX@Z ; CNetworkStream::Recv
  00052	84 c0		 test	 al, al
  00054	74 23		 je	 SHORT $LN6@AuthState_

; 417  : 		return false;
; 418  : 
; 419  : 	if (!Recv(kPacket.iSDBStreamLen, kPacket.m_pStream))

  00056	ff 75 ef	 push	 DWORD PTR _kPacket$[ebp+7]
  00059	8b ce		 mov	 ecx, esi
  0005b	ff 75 eb	 push	 DWORD PTR _kPacket$[ebp+3]
  0005e	e8 00 00 00 00	 call	 ?Recv@CNetworkStream@@QAE_NHPAX@Z ; CNetworkStream::Recv
  00063	84 c0		 test	 al, al
  00065	74 12		 je	 SHORT $LN6@AuthState_

; 420  : 		return false;
; 421  : 
; 422  : 	CEterPackManager::Instance().RetrieveHybridCryptPackSDB( kPacket.m_pStream ); 

  00067	ff 75 ef	 push	 DWORD PTR _kPacket$[ebp+7]
  0006a	8b 0d 00 00 00
	00		 mov	 ecx, DWORD PTR ?ms_singleton@?$CSingleton@VCEterPackManager@@@@0PAVCEterPackManager@@A ; CSingleton<CEterPackManager>::ms_singleton
  00070	e8 00 00 00 00	 call	 ?RetrieveHybridCryptPackSDB@CEterPackManager@@QAEXPBE@Z ; CEterPackManager::RetrieveHybridCryptPackSDB

; 423  : 	return true;

  00075	b3 01		 mov	 bl, 1
  00077	eb 02		 jmp	 SHORT $LN7@AuthState_
$LN6@AuthState_:
  00079	32 db		 xor	 bl, bl
$LN7@AuthState_:
; File D:\Metin2 Server Files\mainline\SRC_2014\Metin2Client\UserInterface\Packet.h

; 2670 : 		delete[] m_pStream;

  0007b	ff 75 ef	 push	 DWORD PTR _kPacket$[ebp+7]
  0007e	e8 00 00 00 00	 call	 ??_V@YAXPAX@Z		; operator delete[]
  00083	83 c4 04	 add	 esp, 4
; File D:\Metin2 Server Files\mainline\SRC_2014\Metin2Client\UserInterface\AccountConnector.cpp

; 423  : 	return true;

  00086	8a c3		 mov	 al, bl

; 424  : }

  00088	8b 4d f4	 mov	 ecx, DWORD PTR __$EHRec$[ebp]
  0008b	64 89 0d 00 00
	00 00		 mov	 DWORD PTR fs:0, ecx
  00092	59		 pop	 ecx
  00093	5e		 pop	 esi
  00094	5b		 pop	 ebx
  00095	8b e5		 mov	 esp, ebp
  00097	5d		 pop	 ebp
  00098	c2 04 00	 ret	 4
_TEXT	ENDS
;	COMDAT text$x
text$x	SEGMENT
__unwindfunclet$?__AuthState_RecvHybridCryptSDB@CAccountConnector@@IAE_NH@Z$0:
  00000	8d 4d e8	 lea	 ecx, DWORD PTR _kPacket$[ebp]
  00003	e9 00 00 00 00	 jmp	 ??1SPacketGCHybridSDB@@QAE@XZ ; SPacketGCHybridSDB::~SPacketGCHybridSDB
  00008	cc		 int	 3
  00009	cc		 int	 3
  0000a	cc		 int	 3
  0000b	cc		 int	 3
  0000c	cc		 int	 3
__ehhandler$?__AuthState_RecvHybridCryptSDB@CAccountConnector@@IAE_NH@Z:
  0000d	90		 npad	 1
  0000e	90		 npad	 1
  0000f	8b 54 24 08	 mov	 edx, DWORD PTR [esp+8]
  00013	8d 42 0c	 lea	 eax, DWORD PTR [edx+12]
  00016	8b 4a e8	 mov	 ecx, DWORD PTR [edx-24]
  00019	33 c8		 xor	 ecx, eax
  0001b	e8 00 00 00 00	 call	 @__security_check_cookie@4
  00020	b8 00 00 00 00	 mov	 eax, OFFSET __ehfuncinfo$?__AuthState_RecvHybridCryptSDB@CAccountConnector@@IAE_NH@Z
  00025	e9 00 00 00 00	 jmp	 ___CxxFrameHandler3
text$x	ENDS
?__AuthState_RecvHybridCryptSDB@CAccountConnector@@IAE_NH@Z ENDP ; CAccountConnector::__AuthState_RecvHybridCryptSDB
; Function compile flags: /Ogtp
; File D:\Metin2 Server Files\mainline\SRC_2014\Metin2Client\UserInterface\AccountConnector.cpp
; File D:\Metin2 Server Files\mainline\SRC_2014\Metin2Client\UserInterface\Packet.h
; File D:\Metin2 Server Files\mainline\SRC_2014\Metin2Client\UserInterface\AccountConnector.cpp
; File D:\Metin2 Server Files\mainline\SRC_2014\Metin2Client\UserInterface\Packet.h
; File D:\Metin2 Server Files\mainline\SRC_2014\Metin2Client\UserInterface\AccountConnector.cpp
;	COMDAT ?__AuthState_RecvHybridCryptKeys@CAccountConnector@@IAE_NH@Z
_TEXT	SEGMENT
_kPacket$ = -24						; size = 11
__$EHRec$ = -12						; size = 12
_iTotalSize$ = 8					; size = 4
?__AuthState_RecvHybridCryptKeys@CAccountConnector@@IAE_NH@Z PROC ; CAccountConnector::__AuthState_RecvHybridCryptKeys, COMDAT
; _this$ = ecx

; 395  : {

  00000	55		 push	 ebp
  00001	8b ec		 mov	 ebp, esp
  00003	6a ff		 push	 -1
  00005	68 00 00 00 00	 push	 __ehhandler$?__AuthState_RecvHybridCryptKeys@CAccountConnector@@IAE_NH@Z
  0000a	64 a1 00 00 00
	00		 mov	 eax, DWORD PTR fs:0
  00010	50		 push	 eax
  00011	83 ec 0c	 sub	 esp, 12			; 0000000cH
  00014	53		 push	 ebx
  00015	56		 push	 esi
  00016	a1 00 00 00 00	 mov	 eax, DWORD PTR ___security_cookie
  0001b	33 c5		 xor	 eax, ebp
  0001d	50		 push	 eax
  0001e	8d 45 f4	 lea	 eax, DWORD PTR __$EHRec$[ebp]
  00021	64 a3 00 00 00
	00		 mov	 DWORD PTR fs:0, eax
  00027	8b f1		 mov	 esi, ecx

; 396  : 	int iFixedHeaderSize = TPacketGCHybridCryptKeys::GetFixedHeaderSize();
; 397  : 	
; 398  : 	TPacketGCHybridCryptKeys kPacket(iTotalSize-iFixedHeaderSize);

  00029	8b 45 08	 mov	 eax, DWORD PTR _iTotalSize$[ebp]
  0002c	83 c0 f9	 add	 eax, -7			; fffffff9H
; File D:\Metin2 Server Files\mainline\SRC_2014\Metin2Client\UserInterface\Packet.h

; 2635 : 		m_pStream = new BYTE[iStreamSize];

  0002f	50		 push	 eax
  00030	89 45 eb	 mov	 DWORD PTR _kPacket$[ebp+3], eax
  00033	e8 00 00 00 00	 call	 ??_U@YAPAXI@Z		; operator new[]
  00038	83 c4 04	 add	 esp, 4
  0003b	89 45 ef	 mov	 DWORD PTR _kPacket$[ebp+7], eax
; File D:\Metin2 Server Files\mainline\SRC_2014\Metin2Client\UserInterface\AccountConnector.cpp

; 400  : 	if (!Recv(iFixedHeaderSize, &kPacket))

  0003e	8d 45 e8	 lea	 eax, DWORD PTR _kPacket$[ebp]
  00041	c7 45 fc 00 00
	00 00		 mov	 DWORD PTR __$EHRec$[ebp+8], 0
  00048	50		 push	 eax
  00049	6a 07		 push	 7
  0004b	8b ce		 mov	 ecx, esi
  0004d	e8 00 00 00 00	 call	 ?Recv@CNetworkStream@@QAE_NHPAX@Z ; CNetworkStream::Recv
  00052	84 c0		 test	 al, al
  00054	74 23		 je	 SHORT $LN6@AuthState_

; 401  : 		return false;
; 402  : 
; 403  : 	if (!Recv(kPacket.iKeyStreamLen, kPacket.m_pStream))

  00056	ff 75 ef	 push	 DWORD PTR _kPacket$[ebp+7]
  00059	8b ce		 mov	 ecx, esi
  0005b	ff 75 eb	 push	 DWORD PTR _kPacket$[ebp+3]
  0005e	e8 00 00 00 00	 call	 ?Recv@CNetworkStream@@QAE_NHPAX@Z ; CNetworkStream::Recv
  00063	84 c0		 test	 al, al
  00065	74 12		 je	 SHORT $LN6@AuthState_

; 404  : 		return false;
; 405  : 
; 406  : 	CEterPackManager::Instance().RetrieveHybridCryptPackKeys( kPacket.m_pStream ); 

  00067	ff 75 ef	 push	 DWORD PTR _kPacket$[ebp+7]
  0006a	8b 0d 00 00 00
	00		 mov	 ecx, DWORD PTR ?ms_singleton@?$CSingleton@VCEterPackManager@@@@0PAVCEterPackManager@@A ; CSingleton<CEterPackManager>::ms_singleton
  00070	e8 00 00 00 00	 call	 ?RetrieveHybridCryptPackKeys@CEterPackManager@@QAEXPBE@Z ; CEterPackManager::RetrieveHybridCryptPackKeys

; 407  : 	return true;

  00075	b3 01		 mov	 bl, 1
  00077	eb 02		 jmp	 SHORT $LN7@AuthState_
$LN6@AuthState_:
  00079	32 db		 xor	 bl, bl
$LN7@AuthState_:
; File D:\Metin2 Server Files\mainline\SRC_2014\Metin2Client\UserInterface\Packet.h

; 2639 : 		if( m_pStream )

  0007b	8b 45 ef	 mov	 eax, DWORD PTR _kPacket$[ebp+7]
  0007e	85 c0		 test	 eax, eax
  00080	74 09		 je	 SHORT $LN13@AuthState_

; 2640 : 		{
; 2641 : 			delete[] m_pStream;

  00082	50		 push	 eax
  00083	e8 00 00 00 00	 call	 ??_V@YAXPAX@Z		; operator delete[]
  00088	83 c4 04	 add	 esp, 4
$LN13@AuthState_:
; File D:\Metin2 Server Files\mainline\SRC_2014\Metin2Client\UserInterface\AccountConnector.cpp

; 408  : }

  0008b	8a c3		 mov	 al, bl
  0008d	8b 4d f4	 mov	 ecx, DWORD PTR __$EHRec$[ebp]
  00090	64 89 0d 00 00
	00 00		 mov	 DWORD PTR fs:0, ecx
  00097	59		 pop	 ecx
  00098	5e		 pop	 esi
  00099	5b		 pop	 ebx
  0009a	8b e5		 mov	 esp, ebp
  0009c	5d		 pop	 ebp
  0009d	c2 04 00	 ret	 4
_TEXT	ENDS
;	COMDAT text$x
text$x	SEGMENT
__unwindfunclet$?__AuthState_RecvHybridCryptKeys@CAccountConnector@@IAE_NH@Z$0:
  00000	8d 4d e8	 lea	 ecx, DWORD PTR _kPacket$[ebp]
  00003	e9 00 00 00 00	 jmp	 ??1SPacketGCHybridCryptKeys@@QAE@XZ ; SPacketGCHybridCryptKeys::~SPacketGCHybridCryptKeys
  00008	cc		 int	 3
  00009	cc		 int	 3
  0000a	cc		 int	 3
  0000b	cc		 int	 3
  0000c	cc		 int	 3
__ehhandler$?__AuthState_RecvHybridCryptKeys@CAccountConnector@@IAE_NH@Z:
  0000d	90		 npad	 1
  0000e	90		 npad	 1
  0000f	8b 54 24 08	 mov	 edx, DWORD PTR [esp+8]
  00013	8d 42 0c	 lea	 eax, DWORD PTR [edx+12]
  00016	8b 4a e8	 mov	 ecx, DWORD PTR [edx-24]
  00019	33 c8		 xor	 ecx, eax
  0001b	e8 00 00 00 00	 call	 @__security_check_cookie@4
  00020	b8 00 00 00 00	 mov	 eax, OFFSET __ehfuncinfo$?__AuthState_RecvHybridCryptKeys@CAccountConnector@@IAE_NH@Z
  00025	e9 00 00 00 00	 jmp	 ___CxxFrameHandler3
text$x	ENDS
?__AuthState_RecvHybridCryptKeys@CAccountConnector@@IAE_NH@Z ENDP ; CAccountConnector::__AuthState_RecvHybridCryptKeys
; Function compile flags: /Ogtp
; File D:\Metin2 Server Files\mainline\SRC_2014\Metin2Client\UserInterface\AccountConnector.cpp
;	COMDAT ?__AuthState_RecvKeyAgreementCompleted@CAccountConnector@@IAE_NXZ
_TEXT	SEGMENT
_packet$ = -4						; size = 4
?__AuthState_RecvKeyAgreementCompleted@CAccountConnector@@IAE_NXZ PROC ; CAccountConnector::__AuthState_RecvKeyAgreementCompleted, COMDAT
; _this$ = ecx

; 614  : {

  00000	55		 push	 ebp
  00001	8b ec		 mov	 ebp, esp
  00003	51		 push	 ecx
  00004	56		 push	 esi

; 615  : 	TPacketKeyAgreementCompleted packet;
; 616  : 	if (!Recv(sizeof(packet), &packet))

  00005	8d 45 fc	 lea	 eax, DWORD PTR _packet$[ebp]
  00008	8b f1		 mov	 esi, ecx
  0000a	50		 push	 eax
  0000b	6a 04		 push	 4
  0000d	e8 00 00 00 00	 call	 ?Recv@CNetworkStream@@QAE_NHPAX@Z ; CNetworkStream::Recv
  00012	84 c0		 test	 al, al
  00014	75 05		 jne	 SHORT $LN2@AuthState_
  00016	5e		 pop	 esi

; 626  : }

  00017	8b e5		 mov	 esp, ebp
  00019	5d		 pop	 ebp
  0001a	c3		 ret	 0
$LN2@AuthState_:

; 617  : 	{
; 618  : 		return false;
; 619  : 	}
; 620  : 
; 621  : 	Tracenf("KEY_AGREEMENT_COMPLETED RECV");

  0001b	68 00 00 00 00	 push	 OFFSET ??_C@_0BN@EDLJMNFO@KEY_AGREEMENT_COMPLETED?5RECV@
  00020	e8 00 00 00 00	 call	 ?Tracenf@@YAXPBDZZ	; Tracenf
  00025	83 c4 04	 add	 esp, 4

; 622  : 
; 623  : 	ActivateCipher();

  00028	8b ce		 mov	 ecx, esi
  0002a	e8 00 00 00 00	 call	 ?ActivateCipher@CNetworkStream@@IAEXXZ ; CNetworkStream::ActivateCipher

; 624  : 
; 625  : 	return true;

  0002f	b0 01		 mov	 al, 1
  00031	5e		 pop	 esi

; 626  : }

  00032	8b e5		 mov	 esp, ebp
  00034	5d		 pop	 ebp
  00035	c3		 ret	 0
?__AuthState_RecvKeyAgreementCompleted@CAccountConnector@@IAE_NXZ ENDP ; CAccountConnector::__AuthState_RecvKeyAgreementCompleted
_TEXT	ENDS
; Function compile flags: /Ogtp
; File D:\Metin2 Server Files\mainline\SRC_2014\Metin2Client\UserInterface\AccountConnector.cpp
;	COMDAT ?__AuthState_RecvKeyAgreement@CAccountConnector@@IAE_NXZ
_TEXT	SEGMENT
_dataLength$ = -536					; size = 4
_packet$ = -532						; size = 261
_packetToSend$ = -268					; size = 261
__$ArrayPad$ = -4					; size = 4
?__AuthState_RecvKeyAgreement@CAccountConnector@@IAE_NXZ PROC ; CAccountConnector::__AuthState_RecvKeyAgreement, COMDAT
; _this$ = ecx

; 570  : {

  00000	55		 push	 ebp
  00001	8b ec		 mov	 ebp, esp
  00003	81 ec 18 02 00
	00		 sub	 esp, 536		; 00000218H
  00009	a1 00 00 00 00	 mov	 eax, DWORD PTR ___security_cookie
  0000e	33 c5		 xor	 eax, ebp
  00010	89 45 fc	 mov	 DWORD PTR __$ArrayPad$[ebp], eax
  00013	56		 push	 esi

; 571  : 	TPacketKeyAgreement packet;
; 572  : 	if (!Recv(sizeof(packet), &packet))

  00014	8d 85 ec fd ff
	ff		 lea	 eax, DWORD PTR _packet$[ebp]
  0001a	8b f1		 mov	 esi, ecx
  0001c	50		 push	 eax
  0001d	68 05 01 00 00	 push	 261			; 00000105H
  00022	e8 00 00 00 00	 call	 ?Recv@CNetworkStream@@QAE_NHPAX@Z ; CNetworkStream::Recv
  00027	84 c0		 test	 al, al
  00029	75 0f		 jne	 SHORT $LN2@AuthState_
  0002b	5e		 pop	 esi

; 611  : }

  0002c	8b 4d fc	 mov	 ecx, DWORD PTR __$ArrayPad$[ebp]
  0002f	33 cd		 xor	 ecx, ebp
  00031	e8 00 00 00 00	 call	 @__security_check_cookie@4
  00036	8b e5		 mov	 esp, ebp
  00038	5d		 pop	 ebp
  00039	c3		 ret	 0
$LN2@AuthState_:

; 573  : 	{
; 574  : 		return false;
; 575  : 	}
; 576  : 
; 577  : 	Tracenf("KEY_AGREEMENT RECV %u", packet.wDataLength);

  0003a	0f b7 85 ef fd
	ff ff		 movzx	 eax, WORD PTR _packet$[ebp+3]
  00041	57		 push	 edi
  00042	50		 push	 eax
  00043	68 00 00 00 00	 push	 OFFSET ??_C@_0BG@BIKAAIDD@KEY_AGREEMENT?5RECV?5?$CFu@
  00048	e8 00 00 00 00	 call	 ?Tracenf@@YAXPBDZZ	; Tracenf
  0004d	83 c4 08	 add	 esp, 8

; 578  : 
; 579  : 	TPacketKeyAgreement packetToSend;
; 580  : 	size_t dataLength = TPacketKeyAgreement::MAX_DATA_LEN;

  00050	c7 85 e8 fd ff
	ff 00 01 00 00	 mov	 DWORD PTR _dataLength$[ebp], 256 ; 00000100H

; 581  : 	size_t agreedLength = Prepare(packetToSend.data, &dataLength);

  0005a	8d 85 e8 fd ff
	ff		 lea	 eax, DWORD PTR _dataLength$[ebp]
  00060	8b ce		 mov	 ecx, esi
  00062	50		 push	 eax
  00063	8d 85 f9 fe ff
	ff		 lea	 eax, DWORD PTR _packetToSend$[ebp+5]
  00069	50		 push	 eax
  0006a	e8 00 00 00 00	 call	 ?Prepare@CNetworkStream@@IAEIPAXPAI@Z ; CNetworkStream::Prepare
  0006f	8b f8		 mov	 edi, eax

; 582  : 	if (agreedLength == 0)

  00071	85 ff		 test	 edi, edi
  00073	0f 84 9b 00 00
	00		 je	 $LN4@AuthState_

; 583  : 	{
; 584  : 		//  
; 585  : 		Disconnect();
; 586  : 		return false;
; 587  : 	}
; 588  : 	assert(dataLength <= TPacketKeyAgreement::MAX_DATA_LEN);
; 589  : 
; 590  : 	if (Activate(packet.wAgreedLength, packet.data, packet.wDataLength))

  00079	0f b7 8d ef fd
	ff ff		 movzx	 ecx, WORD PTR _packet$[ebp+3]
  00080	8d 85 f1 fd ff
	ff		 lea	 eax, DWORD PTR _packet$[ebp+5]
  00086	51		 push	 ecx
  00087	0f b7 8d ed fd
	ff ff		 movzx	 ecx, WORD PTR _packet$[ebp+1]
  0008e	50		 push	 eax
  0008f	51		 push	 ecx
  00090	8b ce		 mov	 ecx, esi
  00092	e8 00 00 00 00	 call	 ?Activate@CNetworkStream@@IAE_NIPBXI@Z ; CNetworkStream::Activate
  00097	84 c0		 test	 al, al
  00099	74 79		 je	 SHORT $LN4@AuthState_

; 591  : 	{
; 592  : 		// Key agreement ,  
; 593  : 		packetToSend.bHeader = HEADER_CG_KEY_AGREEMENT;
; 594  : 		packetToSend.wAgreedLength = (WORD)agreedLength;
; 595  : 		packetToSend.wDataLength = (WORD)dataLength;

  0009b	66 8b 85 e8 fd
	ff ff		 mov	 ax, WORD PTR _dataLength$[ebp]

; 596  : 
; 597  : 		if (!Send(sizeof(packetToSend), &packetToSend))

  000a2	8b ce		 mov	 ecx, esi
  000a4	66 89 85 f7 fe
	ff ff		 mov	 WORD PTR _packetToSend$[ebp+3], ax
  000ab	8d 85 f4 fe ff
	ff		 lea	 eax, DWORD PTR _packetToSend$[ebp]
  000b1	50		 push	 eax
  000b2	68 05 01 00 00	 push	 261			; 00000105H
  000b7	c6 85 f4 fe ff
	ff fb		 mov	 BYTE PTR _packetToSend$[ebp], 251 ; 000000fbH
  000be	66 89 bd f5 fe
	ff ff		 mov	 WORD PTR _packetToSend$[ebp+1], di
  000c5	e8 00 00 00 00	 call	 ?Send@CNetworkStream@@QAE_NHPBX@Z ; CNetworkStream::Send
  000ca	84 c0		 test	 al, al
  000cc	75 1f		 jne	 SHORT $LN6@AuthState_

; 598  : 		{
; 599  : 			Tracen(" CAccountConnector::__AuthState_RecvKeyAgreement - SendKeyAgreement Error");

  000ce	68 00 00 00 00	 push	 OFFSET ??_C@_0EK@DCNAEAA@?5CAccountConnector?3?3__AuthState@
  000d3	e8 00 00 00 00	 call	 ?Tracen@@YAXPBD@Z	; Tracen
  000d8	83 c4 04	 add	 esp, 4

; 608  : 		return false;

  000db	32 c0		 xor	 al, al
  000dd	5f		 pop	 edi
  000de	5e		 pop	 esi

; 611  : }

  000df	8b 4d fc	 mov	 ecx, DWORD PTR __$ArrayPad$[ebp]
  000e2	33 cd		 xor	 ecx, ebp
  000e4	e8 00 00 00 00	 call	 @__security_check_cookie@4
  000e9	8b e5		 mov	 esp, ebp
  000eb	5d		 pop	 ebp
  000ec	c3		 ret	 0
$LN6@AuthState_:

; 600  : 			return false;
; 601  : 		}
; 602  : 		Tracenf("KEY_AGREEMENT SEND %u", packetToSend.wDataLength);

  000ed	0f b7 85 f7 fe
	ff ff		 movzx	 eax, WORD PTR _packetToSend$[ebp+3]
  000f4	50		 push	 eax
  000f5	68 00 00 00 00	 push	 OFFSET ??_C@_0BG@HCLENPJB@KEY_AGREEMENT?5SEND?5?$CFu@
  000fa	e8 00 00 00 00	 call	 ?Tracenf@@YAXPBDZZ	; Tracenf
  000ff	83 c4 08	 add	 esp, 8

; 609  : 	}
; 610  : 	return true;

  00102	b0 01		 mov	 al, 1
  00104	5f		 pop	 edi
  00105	5e		 pop	 esi

; 611  : }

  00106	8b 4d fc	 mov	 ecx, DWORD PTR __$ArrayPad$[ebp]
  00109	33 cd		 xor	 ecx, ebp
  0010b	e8 00 00 00 00	 call	 @__security_check_cookie@4
  00110	8b e5		 mov	 esp, ebp
  00112	5d		 pop	 ebp
  00113	c3		 ret	 0
$LN4@AuthState_:

; 603  : 	}
; 604  : 	else
; 605  : 	{
; 606  : 		//   
; 607  : 		Disconnect();

  00114	8b ce		 mov	 ecx, esi
  00116	e8 00 00 00 00	 call	 ?Disconnect@CAccountConnector@@QAEXXZ ; CAccountConnector::Disconnect

; 611  : }

  0011b	8b 4d fc	 mov	 ecx, DWORD PTR __$ArrayPad$[ebp]
  0011e	32 c0		 xor	 al, al
  00120	5f		 pop	 edi
  00121	33 cd		 xor	 ecx, ebp
  00123	5e		 pop	 esi
  00124	e8 00 00 00 00	 call	 @__security_check_cookie@4
  00129	8b e5		 mov	 esp, ebp
  0012b	5d		 pop	 ebp
  0012c	c3		 ret	 0
?__AuthState_RecvKeyAgreement@CAccountConnector@@IAE_NXZ ENDP ; CAccountConnector::__AuthState_RecvKeyAgreement
_TEXT	ENDS
; Function compile flags: /Ogtp
; File D:\Metin2 Server Files\mainline\SRC_2014\Metin2Client\UserInterface\AccountConnector.cpp
;	COMDAT ?__AuthState_RecvPanamaPack@CAccountConnector@@IAE_NXZ
_TEXT	SEGMENT
_kPacket$ = -296					; size = 289
__$ArrayPad$ = -4					; size = 4
?__AuthState_RecvPanamaPack@CAccountConnector@@IAE_NXZ PROC ; CAccountConnector::__AuthState_RecvPanamaPack, COMDAT
; _this$ = ecx

; 384  : {

  00000	55		 push	 ebp
  00001	8b ec		 mov	 ebp, esp
  00003	81 ec 28 01 00
	00		 sub	 esp, 296		; 00000128H
  00009	a1 00 00 00 00	 mov	 eax, DWORD PTR ___security_cookie
  0000e	33 c5		 xor	 eax, ebp
  00010	89 45 fc	 mov	 DWORD PTR __$ArrayPad$[ebp], eax

; 385  : 	TPacketGCPanamaPack kPacket;
; 386  : 
; 387  : 	if (!Recv(sizeof(TPacketGCPanamaPack), &kPacket))

  00013	8d 85 d8 fe ff
	ff		 lea	 eax, DWORD PTR _kPacket$[ebp]
  00019	50		 push	 eax
  0001a	68 21 01 00 00	 push	 289			; 00000121H
  0001f	e8 00 00 00 00	 call	 ?Recv@CNetworkStream@@QAE_NHPAX@Z ; CNetworkStream::Recv
  00024	84 c0		 test	 al, al
  00026	75 0e		 jne	 SHORT $LN2@AuthState_

; 391  : 	return true;
; 392  : }

  00028	8b 4d fc	 mov	 ecx, DWORD PTR __$ArrayPad$[ebp]
  0002b	33 cd		 xor	 ecx, ebp
  0002d	e8 00 00 00 00	 call	 @__security_check_cookie@4
  00032	8b e5		 mov	 esp, ebp
  00034	5d		 pop	 ebp
  00035	c3		 ret	 0
$LN2@AuthState_:

; 388  : 		return false;
; 389  : 
; 390  : 	CEterPackManager::instance().RegisterPack(kPacket.szPackName, "*", kPacket.abIV);

  00036	8b 0d 00 00 00
	00		 mov	 ecx, DWORD PTR ?ms_singleton@?$CSingleton@VCEterPackManager@@@@0PAVCEterPackManager@@A ; CSingleton<CEterPackManager>::ms_singleton
  0003c	8d 45 d9	 lea	 eax, DWORD PTR _kPacket$[ebp+257]
  0003f	50		 push	 eax
  00040	68 00 00 00 00	 push	 OFFSET ??_C@_01NBENCBCI@?$CK@
  00045	8d 85 d9 fe ff
	ff		 lea	 eax, DWORD PTR _kPacket$[ebp+1]
  0004b	50		 push	 eax
  0004c	e8 00 00 00 00	 call	 ?RegisterPack@CEterPackManager@@QAE_NPBD0PBE@Z ; CEterPackManager::RegisterPack

; 391  : 	return true;
; 392  : }

  00051	8b 4d fc	 mov	 ecx, DWORD PTR __$ArrayPad$[ebp]
  00054	b0 01		 mov	 al, 1
  00056	33 cd		 xor	 ecx, ebp
  00058	e8 00 00 00 00	 call	 @__security_check_cookie@4
  0005d	8b e5		 mov	 esp, ebp
  0005f	5d		 pop	 ebp
  00060	c3		 ret	 0
?__AuthState_RecvPanamaPack@CAccountConnector@@IAE_NXZ ENDP ; CAccountConnector::__AuthState_RecvPanamaPack
_TEXT	ENDS
; Function compile flags: /Ogtp
; File D:\Metin2 Server Files\mainline\SRC_2014\Metin2Client\UserInterface\AccountConnector.cpp
;	COMDAT ?__AuthState_RecvNEWCIBNPasspodRequest@CAccountConnector@@IAE_NXZ
_TEXT	SEGMENT
_kRequestPacket$ = -1					; size = 1
?__AuthState_RecvNEWCIBNPasspodRequest@CAccountConnector@@IAE_NXZ PROC ; CAccountConnector::__AuthState_RecvNEWCIBNPasspodRequest, COMDAT
; _this$ = ecx

; 534  : {

  00000	55		 push	 ebp
  00001	8b ec		 mov	 ebp, esp
  00003	51		 push	 ecx
  00004	56		 push	 esi

; 535  : 	TPacketGCNEWCIBNPasspodRequest kRequestPacket;
; 536  : 	if (!Recv(sizeof(kRequestPacket), &kRequestPacket))

  00005	8d 45 ff	 lea	 eax, DWORD PTR _kRequestPacket$[ebp]
  00008	8b f1		 mov	 esi, ecx
  0000a	50		 push	 eax
  0000b	6a 01		 push	 1
  0000d	e8 00 00 00 00	 call	 ?Recv@CNetworkStream@@QAE_NHPAX@Z ; CNetworkStream::Recv
  00012	84 c0		 test	 al, al
  00014	75 05		 jne	 SHORT $LN2@AuthState_
  00016	5e		 pop	 esi

; 541  : }

  00017	8b e5		 mov	 esp, ebp
  00019	5d		 pop	 ebp
  0001a	c3		 ret	 0
$LN2@AuthState_:

; 537  : 		return false;
; 538  : 
; 539  : 	PyCallClassMemberFunc(m_poHandler, "BINARY_OnNEWCIBNPasspodRequest", Py_BuildValue("()"));	

  0001b	68 00 00 00 00	 push	 OFFSET ??_C@_02HCKGKOFO@?$CI?$CJ@
  00020	ff 15 00 00 00
	00		 call	 DWORD PTR __imp__Py_BuildValue
  00026	50		 push	 eax
  00027	68 00 00 00 00	 push	 OFFSET ??_C@_0BP@DDJIDHFM@BINARY_OnNEWCIBNPasspodRequest@
  0002c	ff b6 d4 00 00
	00		 push	 DWORD PTR [esi+212]
  00032	e8 00 00 00 00	 call	 ?PyCallClassMemberFunc@@YA_NPAU_object@@PBD0@Z ; PyCallClassMemberFunc
  00037	83 c4 10	 add	 esp, 16			; 00000010H

; 540  : 	return true;

  0003a	b0 01		 mov	 al, 1
  0003c	5e		 pop	 esi

; 541  : }

  0003d	8b e5		 mov	 esp, ebp
  0003f	5d		 pop	 ebp
  00040	c3		 ret	 0
?__AuthState_RecvNEWCIBNPasspodRequest@CAccountConnector@@IAE_NXZ ENDP ; CAccountConnector::__AuthState_RecvNEWCIBNPasspodRequest
_TEXT	ENDS
; Function compile flags: /Ogtp
; File D:\Metin2 Server Files\mainline\SRC_2014\Metin2Client\UserInterface\AccountConnector.cpp
;	COMDAT ?__AuthState_RecvRunupMatrixQuiz@CAccountConnector@@IAE_NXZ
_TEXT	SEGMENT
_kMatrixQuizPacket$ = -16				; size = 10
__$ArrayPad$ = -4					; size = 4
?__AuthState_RecvRunupMatrixQuiz@CAccountConnector@@IAE_NXZ PROC ; CAccountConnector::__AuthState_RecvRunupMatrixQuiz, COMDAT
; _this$ = ecx

; 524  : {

  00000	55		 push	 ebp
  00001	8b ec		 mov	 ebp, esp
  00003	83 ec 10	 sub	 esp, 16			; 00000010H
  00006	a1 00 00 00 00	 mov	 eax, DWORD PTR ___security_cookie
  0000b	33 c5		 xor	 eax, ebp
  0000d	89 45 fc	 mov	 DWORD PTR __$ArrayPad$[ebp], eax
  00010	56		 push	 esi

; 525  : 	TPacketGCRunupMatrixQuiz kMatrixQuizPacket;
; 526  : 	if (!Recv(sizeof(TPacketGCRunupMatrixQuiz), &kMatrixQuizPacket))

  00011	8d 45 f0	 lea	 eax, DWORD PTR _kMatrixQuizPacket$[ebp]
  00014	8b f1		 mov	 esi, ecx
  00016	50		 push	 eax
  00017	6a 0a		 push	 10			; 0000000aH
  00019	e8 00 00 00 00	 call	 ?Recv@CNetworkStream@@QAE_NHPAX@Z ; CNetworkStream::Recv
  0001e	84 c0		 test	 al, al
  00020	75 0f		 jne	 SHORT $LN2@AuthState_
  00022	5e		 pop	 esi

; 530  : 	return true;
; 531  : }

  00023	8b 4d fc	 mov	 ecx, DWORD PTR __$ArrayPad$[ebp]
  00026	33 cd		 xor	 ecx, ebp
  00028	e8 00 00 00 00	 call	 @__security_check_cookie@4
  0002d	8b e5		 mov	 esp, ebp
  0002f	5d		 pop	 ebp
  00030	c3		 ret	 0
$LN2@AuthState_:

; 527  : 		return false;
; 528  : 
; 529  : 	PyCallClassMemberFunc(m_poHandler, "BINARY_OnRunupMatrixQuiz", Py_BuildValue("(s)", kMatrixQuizPacket.szQuiz));	

  00031	8d 45 f1	 lea	 eax, DWORD PTR _kMatrixQuizPacket$[ebp+1]
  00034	50		 push	 eax
  00035	68 00 00 00 00	 push	 OFFSET ??_C@_03KJMMOONA@?$CIs?$CJ@
  0003a	ff 15 00 00 00
	00		 call	 DWORD PTR __imp__Py_BuildValue
  00040	50		 push	 eax
  00041	68 00 00 00 00	 push	 OFFSET ??_C@_0BJ@IENIHBKM@BINARY_OnRunupMatrixQuiz@
  00046	ff b6 d4 00 00
	00		 push	 DWORD PTR [esi+212]
  0004c	e8 00 00 00 00	 call	 ?PyCallClassMemberFunc@@YA_NPAU_object@@PBD0@Z ; PyCallClassMemberFunc

; 530  : 	return true;
; 531  : }

  00051	8b 4d fc	 mov	 ecx, DWORD PTR __$ArrayPad$[ebp]
  00054	83 c4 14	 add	 esp, 20			; 00000014H
  00057	33 cd		 xor	 ecx, ebp
  00059	b0 01		 mov	 al, 1
  0005b	5e		 pop	 esi
  0005c	e8 00 00 00 00	 call	 @__security_check_cookie@4
  00061	8b e5		 mov	 esp, ebp
  00063	5d		 pop	 ebp
  00064	c3		 ret	 0
?__AuthState_RecvRunupMatrixQuiz@CAccountConnector@@IAE_NXZ ENDP ; CAccountConnector::__AuthState_RecvRunupMatrixQuiz
_TEXT	ENDS
; Function compile flags: /Ogtp
; File D:\Metin2 Server Files\mainline\SRC_2014\Metin2Client\UserInterface\AccountConnector.cpp
;	COMDAT ?__AuthState_RecvChinaMatrixCard@CAccountConnector@@IAE_NXZ
_TEXT	SEGMENT
_kMatrixCardPacket$ = -16				; size = 9
__$ArrayPad$ = -4					; size = 4
?__AuthState_RecvChinaMatrixCard@CAccountConnector@@IAE_NXZ PROC ; CAccountConnector::__AuthState_RecvChinaMatrixCard, COMDAT
; _this$ = ecx

; 547  : {

  00000	55		 push	 ebp
  00001	8b ec		 mov	 ebp, esp
  00003	83 ec 10	 sub	 esp, 16			; 00000010H
  00006	a1 00 00 00 00	 mov	 eax, DWORD PTR ___security_cookie
  0000b	33 c5		 xor	 eax, ebp
  0000d	89 45 fc	 mov	 DWORD PTR __$ArrayPad$[ebp], eax
  00010	56		 push	 esi

; 548  : 	TPacketGCChinaMatrixCard kMatrixCardPacket;
; 549  : 	if (!Recv(sizeof(TPacketGCChinaMatrixCard), &kMatrixCardPacket))

  00011	8d 45 f0	 lea	 eax, DWORD PTR _kMatrixCardPacket$[ebp]
  00014	8b f1		 mov	 esi, ecx
  00016	50		 push	 eax
  00017	6a 09		 push	 9
  00019	e8 00 00 00 00	 call	 ?Recv@CNetworkStream@@QAE_NHPAX@Z ; CNetworkStream::Recv
  0001e	84 c0		 test	 al, al
  00020	75 0f		 jne	 SHORT $LN2@AuthState_
  00022	5e		 pop	 esi

; 563  : 	}
; 564  : 
; 565  : 	return true;
; 566  : }

  00023	8b 4d fc	 mov	 ecx, DWORD PTR __$ArrayPad$[ebp]
  00026	33 cd		 xor	 ecx, ebp
  00028	e8 00 00 00 00	 call	 @__security_check_cookie@4
  0002d	8b e5		 mov	 esp, ebp
  0002f	5d		 pop	 ebp
  00030	c3		 ret	 0
$LN2@AuthState_:

; 550  : 		return false;
; 551  : 
; 552  : 	if (m_poHandler)

  00031	83 be d4 00 00
	00 00		 cmp	 DWORD PTR [esi+212], 0
  00038	74 59		 je	 SHORT $LN3@AuthState_

; 553  : 	{
; 554  : 		PyObject * pyValue = Py_BuildValue("(iiiiiiii)",	ROW(kMatrixCardPacket.dwRows, 0),

  0003a	8b 4d f5	 mov	 ecx, DWORD PTR _kMatrixCardPacket$[ebp+5]
  0003d	0f b6 c1	 movzx	 eax, cl
  00040	50		 push	 eax
  00041	8b c1		 mov	 eax, ecx
  00043	c1 e8 08	 shr	 eax, 8
  00046	0f b6 c0	 movzx	 eax, al
  00049	50		 push	 eax
  0004a	8b c1		 mov	 eax, ecx
  0004c	c1 e9 18	 shr	 ecx, 24			; 00000018H
  0004f	c1 e8 10	 shr	 eax, 16			; 00000010H
  00052	0f b6 c0	 movzx	 eax, al
  00055	50		 push	 eax
  00056	51		 push	 ecx
  00057	8b 4d f1	 mov	 ecx, DWORD PTR _kMatrixCardPacket$[ebp+1]
  0005a	0f b6 c1	 movzx	 eax, cl
  0005d	50		 push	 eax
  0005e	8b c1		 mov	 eax, ecx
  00060	c1 e8 08	 shr	 eax, 8
  00063	0f b6 c0	 movzx	 eax, al
  00066	50		 push	 eax
  00067	8b c1		 mov	 eax, ecx
  00069	c1 e9 18	 shr	 ecx, 24			; 00000018H
  0006c	c1 e8 10	 shr	 eax, 16			; 00000010H
  0006f	0f b6 c0	 movzx	 eax, al
  00072	50		 push	 eax
  00073	51		 push	 ecx
  00074	68 00 00 00 00	 push	 OFFSET ??_C@_0L@FKCIBGAB@?$CIiiiiiiii?$CJ@
  00079	ff 15 00 00 00
	00		 call	 DWORD PTR __imp__Py_BuildValue

; 555  : 															ROW(kMatrixCardPacket.dwRows, 1),
; 556  : 															ROW(kMatrixCardPacket.dwRows, 2),
; 557  : 															ROW(kMatrixCardPacket.dwRows, 3),
; 558  : 															COL(kMatrixCardPacket.dwCols, 0),
; 559  : 															COL(kMatrixCardPacket.dwCols, 1),
; 560  : 															COL(kMatrixCardPacket.dwCols, 2),
; 561  : 															COL(kMatrixCardPacket.dwCols, 3));
; 562  : 		PyCallClassMemberFunc(m_poHandler, "OnMatrixCard", pyValue);

  0007f	50		 push	 eax
  00080	68 00 00 00 00	 push	 OFFSET ??_C@_0N@PIKEFLJP@OnMatrixCard@
  00085	ff b6 d4 00 00
	00		 push	 DWORD PTR [esi+212]
  0008b	e8 00 00 00 00	 call	 ?PyCallClassMemberFunc@@YA_NPAU_object@@PBD0@Z ; PyCallClassMemberFunc
  00090	83 c4 30	 add	 esp, 48			; 00000030H
$LN3@AuthState_:

; 563  : 	}
; 564  : 
; 565  : 	return true;
; 566  : }

  00093	8b 4d fc	 mov	 ecx, DWORD PTR __$ArrayPad$[ebp]
  00096	b0 01		 mov	 al, 1
  00098	33 cd		 xor	 ecx, ebp
  0009a	5e		 pop	 esi
  0009b	e8 00 00 00 00	 call	 @__security_check_cookie@4
  000a0	8b e5		 mov	 esp, ebp
  000a2	5d		 pop	 ebp
  000a3	c3		 ret	 0
?__AuthState_RecvChinaMatrixCard@CAccountConnector@@IAE_NXZ ENDP ; CAccountConnector::__AuthState_RecvChinaMatrixCard
_TEXT	ENDS
; Function compile flags: /Ogtp
; File D:\Metin2 Server Files\mainline\SRC_2014\Metin2Client\UserInterface\AccountConnector.cpp
;	COMDAT ?__AuthState_RecvAuthFailure@CAccountConnector@@IAE_NXZ
_TEXT	SEGMENT
_packet_failure$ = -16					; size = 10
__$ArrayPad$ = -4					; size = 4
?__AuthState_RecvAuthFailure@CAccountConnector@@IAE_NXZ PROC ; CAccountConnector::__AuthState_RecvAuthFailure, COMDAT
; _this$ = ecx

; 510  : {

  00000	55		 push	 ebp
  00001	8b ec		 mov	 ebp, esp
  00003	83 ec 10	 sub	 esp, 16			; 00000010H
  00006	a1 00 00 00 00	 mov	 eax, DWORD PTR ___security_cookie
  0000b	33 c5		 xor	 eax, ebp
  0000d	89 45 fc	 mov	 DWORD PTR __$ArrayPad$[ebp], eax
  00010	56		 push	 esi

; 511  : 	TPacketGCLoginFailure packet_failure;
; 512  : 	if (!Recv(sizeof(TPacketGCLoginFailure), &packet_failure))

  00011	8d 45 f0	 lea	 eax, DWORD PTR _packet_failure$[ebp]
  00014	8b f1		 mov	 esi, ecx
  00016	50		 push	 eax
  00017	6a 0a		 push	 10			; 0000000aH
  00019	e8 00 00 00 00	 call	 ?Recv@CNetworkStream@@QAE_NHPAX@Z ; CNetworkStream::Recv
  0001e	84 c0		 test	 al, al
  00020	75 0f		 jne	 SHORT $LN2@AuthState_
  00022	5e		 pop	 esi

; 517  : 
; 518  : //	__OfflineState_Set();
; 519  : 
; 520  : 	return true;
; 521  : }

  00023	8b 4d fc	 mov	 ecx, DWORD PTR __$ArrayPad$[ebp]
  00026	33 cd		 xor	 ecx, ebp
  00028	e8 00 00 00 00	 call	 @__security_check_cookie@4
  0002d	8b e5		 mov	 esp, ebp
  0002f	5d		 pop	 ebp
  00030	c3		 ret	 0
$LN2@AuthState_:

; 513  : 		return false;
; 514  : 
; 515  : 	if (m_poHandler)

  00031	83 be d4 00 00
	00 00		 cmp	 DWORD PTR [esi+212], 0
  00038	74 23		 je	 SHORT $LN3@AuthState_

; 516  : 		PyCallClassMemberFunc(m_poHandler, "OnLoginFailure", Py_BuildValue("(s)", packet_failure.szStatus));

  0003a	8d 45 f1	 lea	 eax, DWORD PTR _packet_failure$[ebp+1]
  0003d	50		 push	 eax
  0003e	68 00 00 00 00	 push	 OFFSET ??_C@_03KJMMOONA@?$CIs?$CJ@
  00043	ff 15 00 00 00
	00		 call	 DWORD PTR __imp__Py_BuildValue
  00049	50		 push	 eax
  0004a	68 00 00 00 00	 push	 OFFSET ??_C@_0P@OOEAIINI@OnLoginFailure@
  0004f	ff b6 d4 00 00
	00		 push	 DWORD PTR [esi+212]
  00055	e8 00 00 00 00	 call	 ?PyCallClassMemberFunc@@YA_NPAU_object@@PBD0@Z ; PyCallClassMemberFunc
  0005a	83 c4 14	 add	 esp, 20			; 00000014H
$LN3@AuthState_:

; 517  : 
; 518  : //	__OfflineState_Set();
; 519  : 
; 520  : 	return true;
; 521  : }

  0005d	8b 4d fc	 mov	 ecx, DWORD PTR __$ArrayPad$[ebp]
  00060	b0 01		 mov	 al, 1
  00062	33 cd		 xor	 ecx, ebp
  00064	5e		 pop	 esi
  00065	e8 00 00 00 00	 call	 @__security_check_cookie@4
  0006a	8b e5		 mov	 esp, ebp
  0006c	5d		 pop	 ebp
  0006d	c3		 ret	 0
?__AuthState_RecvAuthFailure@CAccountConnector@@IAE_NXZ ENDP ; CAccountConnector::__AuthState_RecvAuthFailure
_TEXT	ENDS
; Function compile flags: /Ogtp
; File D:\Metin2 Server Files\mainline\SRC_2014\Metin2Client\UserInterface\AccountConnector.cpp
; File C:\Program Files (x86)\Microsoft Visual Studio\2019\Community\VC\Tools\MSVC\14.28.29333\include\xstring
; File D:\Metin2 Server Files\mainline\SRC_2014\Metin2Client\UserInterface\AccountConnector.cpp
;	COMDAT ?__AuthState_RecvAuthSuccess@CAccountConnector@@IAE_NXZ
_TEXT	SEGMENT
_kAuthSuccessPacket$ = -8				; size = 6
?__AuthState_RecvAuthSuccess@CAccountConnector@@IAE_NXZ PROC ; CAccountConnector::__AuthState_RecvAuthSuccess, COMDAT
; _this$ = ecx

; 452  : {

  00000	55		 push	 ebp
  00001	8b ec		 mov	 ebp, esp
  00003	83 ec 08	 sub	 esp, 8

; 453  : 	TPacketGCAuthSuccess kAuthSuccessPacket;
; 454  : 	if (!Recv(sizeof(kAuthSuccessPacket), &kAuthSuccessPacket))

  00006	8d 45 f8	 lea	 eax, DWORD PTR _kAuthSuccessPacket$[ebp]
  00009	56		 push	 esi
  0000a	50		 push	 eax
  0000b	6a 06		 push	 6
  0000d	8b f1		 mov	 esi, ecx
  0000f	e8 00 00 00 00	 call	 ?Recv@CNetworkStream@@QAE_NHPAX@Z ; CNetworkStream::Recv
  00014	84 c0		 test	 al, al
  00016	75 05		 jne	 SHORT $LN2@AuthState_
  00018	5e		 pop	 esi

; 476  : }

  00019	8b e5		 mov	 esp, ebp
  0001b	5d		 pop	 ebp
  0001c	c3		 ret	 0
$LN2@AuthState_:

; 455  : 		return false;
; 456  : 
; 457  : 	if (!kAuthSuccessPacket.bResult)

  0001d	80 7d fd 00	 cmp	 BYTE PTR _kAuthSuccessPacket$[ebp+5], 0
  00021	75 2f		 jne	 SHORT $LN3@AuthState_

; 458  : 	{
; 459  : 		if (m_poHandler)

  00023	83 be d4 00 00
	00 00		 cmp	 DWORD PTR [esi+212], 0
  0002a	74 7f		 je	 SHORT $LN4@AuthState_

; 460  : 			PyCallClassMemberFunc(m_poHandler, "OnLoginFailure", Py_BuildValue("(s)", "BESAMEKEY"));

  0002c	68 00 00 00 00	 push	 OFFSET ??_C@_09FJACDEDF@BESAMEKEY@
  00031	68 00 00 00 00	 push	 OFFSET ??_C@_03KJMMOONA@?$CIs?$CJ@
  00036	ff 15 00 00 00
	00		 call	 DWORD PTR __imp__Py_BuildValue
  0003c	50		 push	 eax
  0003d	68 00 00 00 00	 push	 OFFSET ??_C@_0P@OOEAIINI@OnLoginFailure@
  00042	ff b6 d4 00 00
	00		 push	 DWORD PTR [esi+212]
  00048	e8 00 00 00 00	 call	 ?PyCallClassMemberFunc@@YA_NPAU_object@@PBD0@Z ; PyCallClassMemberFunc
  0004d	83 c4 14	 add	 esp, 20			; 00000014H

; 461  : 	}

  00050	eb 59		 jmp	 SHORT $LN4@AuthState_
$LN3@AuthState_:

; 462  : 	else
; 463  : 	{
; 464  : 		DWORD dwPanamaKey = kAuthSuccessPacket.dwLoginKey ^ g_adwEncryptKey[0] ^ g_adwEncryptKey[1] ^ g_adwEncryptKey[2] ^ g_adwEncryptKey[3];

  00052	a1 0c 00 00 00	 mov	 eax, DWORD PTR ?g_adwEncryptKey@@3PAKA+12
  00057	33 05 00 00 00
	00		 xor	 eax, DWORD PTR ?g_adwEncryptKey@@3PAKA
  0005d	33 05 04 00 00
	00		 xor	 eax, DWORD PTR ?g_adwEncryptKey@@3PAKA+4
  00063	33 05 08 00 00
	00		 xor	 eax, DWORD PTR ?g_adwEncryptKey@@3PAKA+8
  00069	33 45 f9	 xor	 eax, DWORD PTR _kAuthSuccessPacket$[ebp+1]

; 465  : 		CEterPackManager::instance().DecryptPackIV(dwPanamaKey);

  0006c	8b 0d 00 00 00
	00		 mov	 ecx, DWORD PTR ?ms_singleton@?$CSingleton@VCEterPackManager@@@@0PAVCEterPackManager@@A ; CSingleton<CEterPackManager>::ms_singleton
  00072	57		 push	 edi
  00073	50		 push	 eax
  00074	e8 00 00 00 00	 call	 ?DecryptPackIV@CEterPackManager@@QAE_NK@Z ; CEterPackManager::DecryptPackIV

; 466  : 
; 467  : 		CPythonNetworkStream & rkNet = CPythonNetworkStream::Instance();

  00079	8b 3d 00 00 00
	00		 mov	 edi, DWORD PTR ?ms_singleton@?$CSingleton@VCPythonNetworkStream@@@@0PAVCPythonNetworkStream@@A ; CSingleton<CPythonNetworkStream>::ms_singleton

; 468  : 		rkNet.SetLoginKey(kAuthSuccessPacket.dwLoginKey);

  0007f	8b cf		 mov	 ecx, edi
  00081	ff 75 f9	 push	 DWORD PTR _kAuthSuccessPacket$[ebp+1]
  00084	e8 00 00 00 00	 call	 ?SetLoginKey@CPythonNetworkStream@@QAEXK@Z ; CPythonNetworkStream::SetLoginKey
; File C:\Program Files (x86)\Microsoft Visual Studio\2019\Community\VC\Tools\MSVC\14.28.29333\include\xstring

; 2227 :         return _BUF_SIZE <= _Myres;

  00089	83 be c8 00 00
	00 10		 cmp	 DWORD PTR [esi+200], 16	; 00000010H

; 3752 :         return _Mypair._Myval2._Myptr();

  00090	8d 86 b4 00 00
	00		 lea	 eax, DWORD PTR [esi+180]

; 2219 :         if (_Large_string_engaged()) {

  00096	72 02		 jb	 SHORT $LN10@AuthState_

; 2220 :             _Result = _Unfancy(_Bx._Ptr);

  00098	8b 00		 mov	 eax, DWORD PTR [eax]
$LN10@AuthState_:
; File D:\Metin2 Server Files\mainline\SRC_2014\Metin2Client\UserInterface\AccountConnector.cpp

; 469  : 		rkNet.Connect(m_strAddr.c_str(), m_iPort);

  0009a	6a 03		 push	 3
  0009c	ff b6 cc 00 00
	00		 push	 DWORD PTR [esi+204]
  000a2	8b cf		 mov	 ecx, edi
  000a4	50		 push	 eax
  000a5	e8 00 00 00 00	 call	 ?Connect@CNetworkStream@@QAE_NPBDHH@Z ; CNetworkStream::Connect
  000aa	5f		 pop	 edi
$LN4@AuthState_:

; 470  : 	}
; 471  : 
; 472  : 	Disconnect();

  000ab	8b ce		 mov	 ecx, esi
  000ad	e8 00 00 00 00	 call	 ?Disconnect@CAccountConnector@@QAEXXZ ; CAccountConnector::Disconnect

; 473  : 	__OfflineState_Set();

  000b2	8b ce		 mov	 ecx, esi
  000b4	e8 00 00 00 00	 call	 ?__OfflineState_Set@CAccountConnector@@IAEXXZ ; CAccountConnector::__OfflineState_Set

; 474  : 
; 475  : 	return true;

  000b9	b0 01		 mov	 al, 1
  000bb	5e		 pop	 esi

; 476  : }

  000bc	8b e5		 mov	 esp, ebp
  000be	5d		 pop	 ebp
  000bf	c3		 ret	 0
?__AuthState_RecvAuthSuccess@CAccountConnector@@IAE_NXZ ENDP ; CAccountConnector::__AuthState_RecvAuthSuccess
_TEXT	ENDS
; Function compile flags: /Ogtp
; File D:\Metin2 Server Files\mainline\SRC_2014\Metin2Client\UserInterface\AccountConnector.cpp
;	COMDAT ?__AuthState_SendPong@CAccountConnector@@IAE_NXZ
_TEXT	SEGMENT
_kPacketPong$ = -1					; size = 1
?__AuthState_SendPong@CAccountConnector@@IAE_NXZ PROC	; CAccountConnector::__AuthState_SendPong, COMDAT
; _this$ = ecx

; 439  : {

  00000	55		 push	 ebp
  00001	8b ec		 mov	 ebp, esp
  00003	51		 push	 ecx
  00004	56		 push	 esi

; 440  : 	TPacketCGPong kPacketPong;
; 441  : 	kPacketPong.bHeader = HEADER_CG_PONG;
; 442  : 	if (!Send(sizeof(kPacketPong), &kPacketPong))

  00005	8d 45 ff	 lea	 eax, DWORD PTR _kPacketPong$[ebp]
  00008	c6 45 ff fe	 mov	 BYTE PTR _kPacketPong$[ebp], 254 ; 000000feH
  0000c	50		 push	 eax
  0000d	6a 01		 push	 1
  0000f	8b f1		 mov	 esi, ecx
  00011	e8 00 00 00 00	 call	 ?Send@CNetworkStream@@QAE_NHPBX@Z ; CNetworkStream::Send
  00016	84 c0		 test	 al, al
  00018	75 05		 jne	 SHORT $LN2@AuthState_
  0001a	5e		 pop	 esi

; 449  : }

  0001b	8b e5		 mov	 esp, ebp
  0001d	5d		 pop	 ebp
  0001e	c3		 ret	 0
$LN2@AuthState_:

; 443  : 		return false;
; 444  : 
; 445  : 	if (IsSecurityMode())

  0001f	8b ce		 mov	 ecx, esi
  00021	e8 00 00 00 00	 call	 ?IsSecurityMode@CNetworkStream@@QAE_NXZ ; CNetworkStream::IsSecurityMode
  00026	84 c0		 test	 al, al
  00028	74 0c		 je	 SHORT $LN3@AuthState_

; 446  : 		return SendSequence();

  0002a	8b ce		 mov	 ecx, esi
  0002c	e8 00 00 00 00	 call	 ?SendSequence@CNetworkStream@@QAE_NXZ ; CNetworkStream::SendSequence
  00031	5e		 pop	 esi

; 449  : }

  00032	8b e5		 mov	 esp, ebp
  00034	5d		 pop	 ebp
  00035	c3		 ret	 0
$LN3@AuthState_:

; 447  : 
; 448  : 	return true;

  00036	b0 01		 mov	 al, 1
  00038	5e		 pop	 esi

; 449  : }

  00039	8b e5		 mov	 esp, ebp
  0003b	5d		 pop	 ebp
  0003c	c3		 ret	 0
?__AuthState_SendPong@CAccountConnector@@IAE_NXZ ENDP	; CAccountConnector::__AuthState_SendPong
_TEXT	ENDS
; Function compile flags: /Ogtp
; File D:\Metin2 Server Files\mainline\SRC_2014\Metin2Client\UserInterface\AccountConnector.cpp
;	COMDAT ?__AuthState_RecvPing@CAccountConnector@@IAE_NXZ
_TEXT	SEGMENT
_kPacketPing$ = -1					; size = 1
?__AuthState_RecvPing@CAccountConnector@@IAE_NXZ PROC	; CAccountConnector::__AuthState_RecvPing, COMDAT
; _this$ = ecx

; 428  : {

  00000	55		 push	 ebp
  00001	8b ec		 mov	 ebp, esp
  00003	51		 push	 ecx
  00004	56		 push	 esi

; 429  : 	TPacketGCPing kPacketPing;
; 430  : 	if (!Recv(sizeof(kPacketPing), &kPacketPing))

  00005	8d 45 ff	 lea	 eax, DWORD PTR _kPacketPing$[ebp]
  00008	8b f1		 mov	 esi, ecx
  0000a	50		 push	 eax
  0000b	6a 01		 push	 1
  0000d	e8 00 00 00 00	 call	 ?Recv@CNetworkStream@@QAE_NHPAX@Z ; CNetworkStream::Recv
  00012	84 c0		 test	 al, al
  00014	75 05		 jne	 SHORT $LN2@AuthState_
  00016	5e		 pop	 esi

; 436  : }

  00017	8b e5		 mov	 esp, ebp
  00019	5d		 pop	 ebp
  0001a	c3		 ret	 0
$LN2@AuthState_:

; 431  : 		return false;
; 432  : 
; 433  : 	__AuthState_SendPong();

  0001b	8b ce		 mov	 ecx, esi
  0001d	e8 00 00 00 00	 call	 ?__AuthState_SendPong@CAccountConnector@@IAE_NXZ ; CAccountConnector::__AuthState_SendPong

; 434  : 
; 435  : 	return true;

  00022	b0 01		 mov	 al, 1
  00024	5e		 pop	 esi

; 436  : }

  00025	8b e5		 mov	 esp, ebp
  00027	5d		 pop	 ebp
  00028	c3		 ret	 0
?__AuthState_RecvPing@CAccountConnector@@IAE_NXZ ENDP	; CAccountConnector::__AuthState_RecvPing
_TEXT	ENDS
; Function compile flags: /Ogtp
; File D:\Metin2 Server Files\mainline\SRC_2014\Metin2Client\UserInterface\AccountConnector.cpp
;	COMDAT ?__AuthState_RecvHandshake@CAccountConnector@@IAE_NXZ
_TEXT	SEGMENT
_kPacketHandshake$ = -20				; size = 13
__$ArrayPad$ = -4					; size = 4
?__AuthState_RecvHandshake@CAccountConnector@@IAE_NXZ PROC ; CAccountConnector::__AuthState_RecvHandshake, COMDAT
; _this$ = ecx

; 354  : {

  00000	55		 push	 ebp
  00001	8b ec		 mov	 ebp, esp
  00003	83 ec 14	 sub	 esp, 20			; 00000014H
  00006	a1 00 00 00 00	 mov	 eax, DWORD PTR ___security_cookie
  0000b	33 c5		 xor	 eax, ebp
  0000d	89 45 fc	 mov	 DWORD PTR __$ArrayPad$[ebp], eax
  00010	56		 push	 esi

; 355  : 	TPacketGCHandshake kPacketHandshake;
; 356  : 	if (!Recv(sizeof(kPacketHandshake), &kPacketHandshake))

  00011	8d 45 ec	 lea	 eax, DWORD PTR _kPacketHandshake$[ebp]
  00014	8b f1		 mov	 esi, ecx
  00016	50		 push	 eax
  00017	6a 0d		 push	 13			; 0000000dH
  00019	e8 00 00 00 00	 call	 ?Recv@CNetworkStream@@QAE_NHPAX@Z ; CNetworkStream::Recv
  0001e	84 c0		 test	 al, al
  00020	74 5b		 je	 SHORT $LN5@AuthState_

; 357  : 		return false;
; 358  : 
; 359  : 	// HandShake
; 360  : 	{
; 361  : 		Tracenf("HANDSHAKE RECV %u %d", kPacketHandshake.dwTime, kPacketHandshake.lDelta);

  00022	ff 75 f5	 push	 DWORD PTR _kPacketHandshake$[ebp+9]
  00025	ff 75 f1	 push	 DWORD PTR _kPacketHandshake$[ebp+5]
  00028	68 00 00 00 00	 push	 OFFSET ??_C@_0BF@MMAJMJLI@HANDSHAKE?5RECV?5?$CFu?5?$CFd@
  0002d	e8 00 00 00 00	 call	 ?Tracenf@@YAXPBDZZ	; Tracenf

; 362  : 
; 363  : 		ELTimer_SetServerMSec(kPacketHandshake.dwTime+ kPacketHandshake.lDelta);

  00032	8b 45 f1	 mov	 eax, DWORD PTR _kPacketHandshake$[ebp+5]
  00035	03 45 f5	 add	 eax, DWORD PTR _kPacketHandshake$[ebp+9]
  00038	50		 push	 eax
  00039	e8 00 00 00 00	 call	 ?ELTimer_SetServerMSec@@YAXK@Z ; ELTimer_SetServerMSec

; 364  : 
; 365  : 		//DWORD dwBaseServerTime = kPacketHandshake.dwTime+ kPacketHandshake.lDelta;
; 366  : 		//DWORD dwBaseClientTime = ELTimer_GetMSec();
; 367  : 
; 368  : 		kPacketHandshake.dwTime = kPacketHandshake.dwTime + kPacketHandshake.lDelta + kPacketHandshake.lDelta;

  0003e	8b 4d f5	 mov	 ecx, DWORD PTR _kPacketHandshake$[ebp+9]
  00041	8b 45 f1	 mov	 eax, DWORD PTR _kPacketHandshake$[ebp+5]

; 369  : 		kPacketHandshake.lDelta = 0;

  00044	c7 45 f5 00 00
	00 00		 mov	 DWORD PTR _kPacketHandshake$[ebp+9], 0
  0004b	8d 04 48	 lea	 eax, DWORD PTR [eax+ecx*2]

; 370  : 
; 371  : 		Tracenf("HANDSHAKE SEND %u", kPacketHandshake.dwTime);

  0004e	50		 push	 eax
  0004f	68 00 00 00 00	 push	 OFFSET ??_C@_0BC@CAMNEEDN@HANDSHAKE?5SEND?5?$CFu@
  00054	89 45 f1	 mov	 DWORD PTR _kPacketHandshake$[ebp+5], eax
  00057	e8 00 00 00 00	 call	 ?Tracenf@@YAXPBDZZ	; Tracenf
  0005c	83 c4 18	 add	 esp, 24			; 00000018H

; 372  : 
; 373  : 		if (!Send(sizeof(kPacketHandshake), &kPacketHandshake))

  0005f	8d 45 ec	 lea	 eax, DWORD PTR _kPacketHandshake$[ebp]
  00062	8b ce		 mov	 ecx, esi
  00064	50		 push	 eax
  00065	6a 0d		 push	 13			; 0000000dH
  00067	e8 00 00 00 00	 call	 ?Send@CNetworkStream@@QAE_NHPBX@Z ; CNetworkStream::Send
  0006c	84 c0		 test	 al, al
  0006e	75 1e		 jne	 SHORT $LN3@AuthState_

; 374  : 		{
; 375  : 			Tracen(" CAccountConnector::__AuthState_RecvHandshake - SendHandshake Error");

  00070	68 00 00 00 00	 push	 OFFSET ??_C@_0EE@PGOEFGOD@?5CAccountConnector?3?3__AuthState@
  00075	e8 00 00 00 00	 call	 ?Tracen@@YAXPBD@Z	; Tracen
  0007a	83 c4 04	 add	 esp, 4
$LN5@AuthState_:

; 376  : 			return false;
; 377  : 		}
; 378  : 	}
; 379  : 
; 380  : 	return true;
; 381  : }

  0007d	32 c0		 xor	 al, al
  0007f	5e		 pop	 esi
  00080	8b 4d fc	 mov	 ecx, DWORD PTR __$ArrayPad$[ebp]
  00083	33 cd		 xor	 ecx, ebp
  00085	e8 00 00 00 00	 call	 @__security_check_cookie@4
  0008a	8b e5		 mov	 esp, ebp
  0008c	5d		 pop	 ebp
  0008d	c3		 ret	 0
$LN3@AuthState_:
  0008e	8b 4d fc	 mov	 ecx, DWORD PTR __$ArrayPad$[ebp]
  00091	b0 01		 mov	 al, 1
  00093	33 cd		 xor	 ecx, ebp
  00095	5e		 pop	 esi
  00096	e8 00 00 00 00	 call	 @__security_check_cookie@4
  0009b	8b e5		 mov	 esp, ebp
  0009d	5d		 pop	 ebp
  0009e	c3		 ret	 0
?__AuthState_RecvHandshake@CAccountConnector@@IAE_NXZ ENDP ; CAccountConnector::__AuthState_RecvHandshake
_TEXT	ENDS
; Function compile flags: /Ogtp
; File D:\Metin2 Server Files\mainline\SRC_2014\Metin2Client\UserInterface\AccountConnector.cpp
; File C:\Program Files (x86)\Microsoft Visual Studio\2019\Community\VC\Tools\MSVC\14.28.29333\include\xstring
; File D:\Metin2 Server Files\mainline\SRC_2014\Metin2Client\UserInterface\AccountConnector.cpp
; File C:\Program Files (x86)\Microsoft Visual Studio\2019\Community\VC\Tools\MSVC\14.28.29333\include\xstring
; File D:\Metin2 Server Files\mainline\SRC_2014\Metin2Client\UserInterface\AccountConnector.cpp
; File C:\Program Files (x86)\Microsoft Visual Studio\2019\Community\VC\Tools\MSVC\14.28.29333\include\xstring
; File D:\Metin2 Server Files\mainline\SRC_2014\Metin2Client\UserInterface\AccountConnector.cpp
; File C:\Program Files (x86)\Microsoft Visual Studio\2019\Community\VC\Tools\MSVC\14.28.29333\include\xstring
; File D:\Metin2 Server Files\mainline\SRC_2014\Metin2Client\UserInterface\AccountConnector.cpp
;	COMDAT ?__AuthState_RecvPhase@CAccountConnector@@IAE_NXZ
_TEXT	SEGMENT
_kPacketPhase$ = -76					; size = 2
_LoginPacket$1 = -72					; size = 65
__$ArrayPad$ = -4					; size = 4
?__AuthState_RecvPhase@CAccountConnector@@IAE_NXZ PROC	; CAccountConnector::__AuthState_RecvPhase, COMDAT
; _this$ = ecx

; 232  : {

  00000	55		 push	 ebp
  00001	8b ec		 mov	 ebp, esp
  00003	83 ec 4c	 sub	 esp, 76			; 0000004cH
  00006	a1 00 00 00 00	 mov	 eax, DWORD PTR ___security_cookie
  0000b	33 c5		 xor	 eax, ebp
  0000d	89 45 fc	 mov	 DWORD PTR __$ArrayPad$[ebp], eax
  00010	56		 push	 esi

; 233  : 	TPacketGCPhase kPacketPhase;
; 234  : 	if (!Recv(sizeof(kPacketPhase), &kPacketPhase))

  00011	8d 45 b4	 lea	 eax, DWORD PTR _kPacketPhase$[ebp]
  00014	8b f1		 mov	 esi, ecx
  00016	50		 push	 eax
  00017	6a 02		 push	 2
  00019	e8 00 00 00 00	 call	 ?Recv@CNetworkStream@@QAE_NHPAX@Z ; CNetworkStream::Recv
  0001e	84 c0		 test	 al, al
  00020	0f 84 de 00 00
	00		 je	 $LN42@AuthState_

; 235  : 		return false;
; 236  : 
; 237  : 	if (kPacketPhase.phase == PHASE_HANDSHAKE)

  00026	66 8b 45 b4	 mov	 ax, WORD PTR _kPacketPhase$[ebp]
  0002a	80 fc 01	 cmp	 ah, 1
  0002d	75 18		 jne	 SHORT $LN6@AuthState_

; 238  : 	{
; 239  : 		__HandshakeState_Set();

  0002f	8b ce		 mov	 ecx, esi
  00031	e8 00 00 00 00	 call	 ?__HandshakeState_Set@CAccountConnector@@IAEXXZ ; CAccountConnector::__HandshakeState_Set

; 348  : 	}
; 349  : 
; 350  : 	return true;

  00036	b0 01		 mov	 al, 1
  00038	5e		 pop	 esi

; 351  : }

  00039	8b 4d fc	 mov	 ecx, DWORD PTR __$ArrayPad$[ebp]
  0003c	33 cd		 xor	 ecx, ebp
  0003e	e8 00 00 00 00	 call	 @__security_check_cookie@4
  00043	8b e5		 mov	 esp, ebp
  00045	5d		 pop	 ebp
  00046	c3		 ret	 0
$LN6@AuthState_:

; 240  : 	}
; 241  : 	else if (kPacketPhase.phase == PHASE_AUTH)

  00047	80 fc 0a	 cmp	 ah, 10			; 0000000aH
  0004a	0f 85 d7 00 00
	00		 jne	 $LN8@AuthState_
; File C:\Program Files (x86)\Microsoft Visual Studio\2019\Community\VC\Tools\MSVC\14.28.29333\include\xstring

; 2227 :         return _BUF_SIZE <= _Myres;

  00050	83 be 98 00 00
	00 10		 cmp	 DWORD PTR [esi+152], 16	; 00000010H

; 3752 :         return _Mypair._Myval2._Myptr();

  00057	8d 86 84 00 00
	00		 lea	 eax, DWORD PTR [esi+132]
; File D:\Metin2 Server Files\mainline\SRC_2014\Metin2Client\UserInterface\AccountConnector.cpp

; 318  : 		LoginPacket.header = HEADER_CG_LOGIN3;

  0005d	c6 45 b8 6f	 mov	 BYTE PTR _LoginPacket$1[ebp], 111 ; 0000006fH
; File C:\Program Files (x86)\Microsoft Visual Studio\2019\Community\VC\Tools\MSVC\14.28.29333\include\xstring

; 2219 :         if (_Large_string_engaged()) {

  00061	72 02		 jb	 SHORT $LN15@AuthState_

; 2220 :             _Result = _Unfancy(_Bx._Ptr);

  00063	8b 00		 mov	 eax, DWORD PTR [eax]
$LN15@AuthState_:
  00065	57		 push	 edi
; File D:\Metin2 Server Files\mainline\SRC_2014\Metin2Client\UserInterface\AccountConnector.cpp

; 320  : 		strncpy(LoginPacket.name, m_strID.c_str(), ID_MAX_NUM);

  00066	6a 1e		 push	 30			; 0000001eH
  00068	50		 push	 eax
  00069	8d 45 b9	 lea	 eax, DWORD PTR _LoginPacket$1[ebp+1]
  0006c	50		 push	 eax
  0006d	e8 00 00 00 00	 call	 _strncpy
  00072	83 c4 0c	 add	 esp, 12			; 0000000cH
; File C:\Program Files (x86)\Microsoft Visual Studio\2019\Community\VC\Tools\MSVC\14.28.29333\include\xstring

; 2218 :         const value_type* _Result = _Bx._Buf;

  00075	8d 86 9c 00 00
	00		 lea	 eax, DWORD PTR [esi+156]

; 2227 :         return _BUF_SIZE <= _Myres;

  0007b	83 be b0 00 00
	00 10		 cmp	 DWORD PTR [esi+176], 16	; 00000010H

; 2219 :         if (_Large_string_engaged()) {

  00082	72 06		 jb	 SHORT $LN22@AuthState_

; 2220 :             _Result = _Unfancy(_Bx._Ptr);

  00084	8b 86 9c 00 00
	00		 mov	 eax, DWORD PTR [esi+156]
$LN22@AuthState_:
; File D:\Metin2 Server Files\mainline\SRC_2014\Metin2Client\UserInterface\AccountConnector.cpp

; 321  : 		strncpy(LoginPacket.pwd, m_strPassword.c_str(), PASS_MAX_NUM);

  0008a	6a 10		 push	 16			; 00000010H
  0008c	50		 push	 eax
  0008d	8d 45 d8	 lea	 eax, DWORD PTR _LoginPacket$1[ebp+32]
  00090	50		 push	 eax
  00091	e8 00 00 00 00	 call	 _strncpy
  00096	83 c4 0c	 add	 esp, 12			; 0000000cH

; 322  : 		LoginPacket.name[ID_MAX_NUM] = '\0';

  00099	c6 45 d7 00	 mov	 BYTE PTR _LoginPacket$1[ebp+31], 0

; 323  : 		LoginPacket.pwd[PASS_MAX_NUM] = '\0';
; 324  : 
; 325  : 		//       ,     
; 326  : 		ClearLoginInfo();

  0009d	8b ce		 mov	 ecx, esi
  0009f	c6 45 e8 00	 mov	 BYTE PTR _LoginPacket$1[ebp+48], 0
  000a3	e8 00 00 00 00	 call	 ?ClearLoginInfo@CAccountConnector@@QAEXXZ ; CAccountConnector::ClearLoginInfo

; 327  : 		CPythonNetworkStream& rkNetStream=CPythonNetworkStream::Instance();
; 328  : 		rkNetStream.ClearLoginInfo();

  000a8	8b 0d 00 00 00
	00		 mov	 ecx, DWORD PTR ?ms_singleton@?$CSingleton@VCPythonNetworkStream@@@@0PAVCPythonNetworkStream@@A ; CSingleton<CPythonNetworkStream>::ms_singleton
  000ae	e8 00 00 00 00	 call	 ?ClearLoginInfo@CPythonNetworkStream@@QAEXXZ ; CPythonNetworkStream::ClearLoginInfo
; File C:\Program Files (x86)\Microsoft Visual Studio\2019\Community\VC\Tools\MSVC\14.28.29333\include\xstring

; 3062 :         return assign(_Ptr, _Convert_size<size_type>(_Traits::length(_Ptr)));

  000b3	6a 00		 push	 0
  000b5	68 00 00 00 00	 push	 OFFSET ??_C@_00CNPNBAHC@@
  000ba	8d 8e 9c 00 00
	00		 lea	 ecx, DWORD PTR [esi+156]
  000c0	e8 00 00 00 00	 call	 ?assign@?$basic_string@DU?$char_traits@D@std@@V?$allocator@D@2@@std@@QAEAAV12@QBDI@Z ; std::basic_string<char,std::char_traits<char>,std::allocator<char> >::assign
; File D:\Metin2 Server Files\mainline\SRC_2014\Metin2Client\UserInterface\AccountConnector.cpp

; 333  : 			LoginPacket.adwClientKey[i] = g_adwEncryptKey[i];

  000c5	a1 00 00 00 00	 mov	 eax, DWORD PTR ?g_adwEncryptKey@@3PAKA

; 334  : 
; 335  : 		if (!Send(sizeof(LoginPacket), &LoginPacket))

  000ca	8b ce		 mov	 ecx, esi
  000cc	89 45 e9	 mov	 DWORD PTR _LoginPacket$1[ebp+49], eax
  000cf	a1 04 00 00 00	 mov	 eax, DWORD PTR ?g_adwEncryptKey@@3PAKA+4
  000d4	89 45 ed	 mov	 DWORD PTR _LoginPacket$1[ebp+53], eax
  000d7	a1 08 00 00 00	 mov	 eax, DWORD PTR ?g_adwEncryptKey@@3PAKA+8
  000dc	89 45 f1	 mov	 DWORD PTR _LoginPacket$1[ebp+57], eax
  000df	a1 0c 00 00 00	 mov	 eax, DWORD PTR ?g_adwEncryptKey@@3PAKA+12
  000e4	89 45 f5	 mov	 DWORD PTR _LoginPacket$1[ebp+61], eax
  000e7	8d 45 b8	 lea	 eax, DWORD PTR _LoginPacket$1[ebp]
  000ea	50		 push	 eax
  000eb	6a 41		 push	 65			; 00000041H
  000ed	e8 00 00 00 00	 call	 ?Send@CNetworkStream@@QAE_NHPBX@Z ; CNetworkStream::Send
  000f2	5f		 pop	 edi
  000f3	84 c0		 test	 al, al
  000f5	75 1e		 jne	 SHORT $LN9@AuthState_

; 336  : 		{
; 337  : 			Tracen(" CAccountConnector::__AuthState_RecvPhase - SendLogin3 Error");

  000f7	68 00 00 00 00	 push	 OFFSET ??_C@_0DN@HEMMJEJK@?5CAccountConnector?3?3__AuthState@
  000fc	e8 00 00 00 00	 call	 ?Tracen@@YAXPBD@Z	; Tracen
  00101	83 c4 04	 add	 esp, 4
$LN42@AuthState_:

; 351  : }

  00104	32 c0		 xor	 al, al
  00106	5e		 pop	 esi
  00107	8b 4d fc	 mov	 ecx, DWORD PTR __$ArrayPad$[ebp]
  0010a	33 cd		 xor	 ecx, ebp
  0010c	e8 00 00 00 00	 call	 @__security_check_cookie@4
  00111	8b e5		 mov	 esp, ebp
  00113	5d		 pop	 ebp
  00114	c3		 ret	 0
$LN9@AuthState_:

; 338  : 			return false;
; 339  : 		}
; 340  : 
; 341  : 		if (!SendSequence())

  00115	8b ce		 mov	 ecx, esi
  00117	e8 00 00 00 00	 call	 ?SendSequence@CNetworkStream@@QAE_NXZ ; CNetworkStream::SendSequence
  0011c	84 c0		 test	 al, al
  0011e	74 e4		 je	 SHORT $LN42@AuthState_

; 342  : 		{
; 343  : 			return false;
; 344  : 		}
; 345  : #endif /* USE_OPENID */
; 346  : 
; 347  : 		__AuthState_Set();

  00120	8b ce		 mov	 ecx, esi
  00122	e8 00 00 00 00	 call	 ?__AuthState_Set@CAccountConnector@@IAEXXZ ; CAccountConnector::__AuthState_Set
$LN8@AuthState_:

; 351  : }

  00127	8b 4d fc	 mov	 ecx, DWORD PTR __$ArrayPad$[ebp]
  0012a	b0 01		 mov	 al, 1
  0012c	33 cd		 xor	 ecx, ebp
  0012e	5e		 pop	 esi
  0012f	e8 00 00 00 00	 call	 @__security_check_cookie@4
  00134	8b e5		 mov	 esp, ebp
  00136	5d		 pop	 ebp
  00137	c3		 ret	 0
?__AuthState_RecvPhase@CAccountConnector@@IAE_NXZ ENDP	; CAccountConnector::__AuthState_RecvPhase
_TEXT	ENDS
; Function compile flags: /Ogtp
; File D:\Metin2 Server Files\mainline\SRC_2014\Metin2Client\UserInterface\AccountConnector.cpp
;	COMDAT ?__AuthState_RecvEmpty@CAccountConnector@@IAE_NXZ
_TEXT	SEGMENT
_byEmpty$ = -1						; size = 1
?__AuthState_RecvEmpty@CAccountConnector@@IAE_NXZ PROC	; CAccountConnector::__AuthState_RecvEmpty, COMDAT
; _this$ = ecx

; 225  : {

  00000	55		 push	 ebp
  00001	8b ec		 mov	 ebp, esp
  00003	51		 push	 ecx

; 226  : 	BYTE byEmpty;
; 227  : 	Recv(sizeof(BYTE), &byEmpty);

  00004	8d 45 ff	 lea	 eax, DWORD PTR _byEmpty$[ebp]
  00007	50		 push	 eax
  00008	6a 01		 push	 1
  0000a	e8 00 00 00 00	 call	 ?Recv@CNetworkStream@@QAE_NHPAX@Z ; CNetworkStream::Recv

; 228  : 	return true;

  0000f	b0 01		 mov	 al, 1

; 229  : }

  00011	8b e5		 mov	 esp, ebp
  00013	5d		 pop	 ebp
  00014	c3		 ret	 0
?__AuthState_RecvEmpty@CAccountConnector@@IAE_NXZ ENDP	; CAccountConnector::__AuthState_RecvEmpty
_TEXT	ENDS
; Function compile flags: /Ogtp
; File D:\Metin2 Server Files\mainline\SRC_2014\Metin2Client\UserInterface\AccountConnector.cpp
;	COMDAT ?__AuthState_Process@CAccountConnector@@IAE_NXZ
_TEXT	SEGMENT
?__AuthState_Process@CAccountConnector@@IAE_NXZ PROC	; CAccountConnector::__AuthState_Process, COMDAT
; _this$ = ecx

; 170  : {

  00000	56		 push	 esi

; 171  : 	if (!__AnalyzePacket(0, sizeof(BYTE), &CAccountConnector::__AuthState_RecvEmpty))

  00001	6a 00		 push	 0
  00003	68 00 00 00 00	 push	 OFFSET ?__AuthState_RecvEmpty@CAccountConnector@@IAE_NXZ ; CAccountConnector::__AuthState_RecvEmpty
  00008	6a 01		 push	 1
  0000a	6a 00		 push	 0
  0000c	8b f1		 mov	 esi, ecx
  0000e	e8 00 00 00 00	 call	 ?__AnalyzePacket@CAccountConnector@@IAE_NIIP81@AE_NXZ@Z ; CAccountConnector::__AnalyzePacket
  00013	84 c0		 test	 al, al
  00015	0f 84 5e 01 00
	00		 je	 $LN15@AuthState_

; 172  : 		return true;
; 173  : 
; 174  : 	if (!__AnalyzePacket(HEADER_GC_PHASE, sizeof(TPacketGCPhase), &CAccountConnector::__AuthState_RecvPhase))

  0001b	6a 00		 push	 0
  0001d	68 00 00 00 00	 push	 OFFSET ?__AuthState_RecvPhase@CAccountConnector@@IAE_NXZ ; CAccountConnector::__AuthState_RecvPhase
  00022	6a 02		 push	 2
  00024	68 fd 00 00 00	 push	 253			; 000000fdH
  00029	8b ce		 mov	 ecx, esi
  0002b	e8 00 00 00 00	 call	 ?__AnalyzePacket@CAccountConnector@@IAE_NIIP81@AE_NXZ@Z ; CAccountConnector::__AnalyzePacket
  00030	84 c0		 test	 al, al
  00032	0f 84 3d 01 00
	00		 je	 $LN17@AuthState_

; 175  : 		return false;
; 176  : 
; 177  : 	if (!__AnalyzePacket(HEADER_GC_PING, sizeof(TPacketGCPing), &CAccountConnector::__AuthState_RecvPing))

  00038	6a 00		 push	 0
  0003a	68 00 00 00 00	 push	 OFFSET ?__AuthState_RecvPing@CAccountConnector@@IAE_NXZ ; CAccountConnector::__AuthState_RecvPing
  0003f	6a 01		 push	 1
  00041	6a 2c		 push	 44			; 0000002cH
  00043	8b ce		 mov	 ecx, esi
  00045	e8 00 00 00 00	 call	 ?__AnalyzePacket@CAccountConnector@@IAE_NIIP81@AE_NXZ@Z ; CAccountConnector::__AnalyzePacket
  0004a	84 c0		 test	 al, al
  0004c	0f 84 23 01 00
	00		 je	 $LN17@AuthState_

; 178  : 		return false;
; 179  : 
; 180  : 	if (!__AnalyzePacket(HEADER_GC_AUTH_SUCCESS, sizeof(TPacketGCAuthSuccess), &CAccountConnector::__AuthState_RecvAuthSuccess))

  00052	6a 00		 push	 0
  00054	68 00 00 00 00	 push	 OFFSET ?__AuthState_RecvAuthSuccess@CAccountConnector@@IAE_NXZ ; CAccountConnector::__AuthState_RecvAuthSuccess
  00059	6a 06		 push	 6
  0005b	68 96 00 00 00	 push	 150			; 00000096H
  00060	8b ce		 mov	 ecx, esi
  00062	e8 00 00 00 00	 call	 ?__AnalyzePacket@CAccountConnector@@IAE_NIIP81@AE_NXZ@Z ; CAccountConnector::__AnalyzePacket
  00067	84 c0		 test	 al, al
  00069	0f 84 0a 01 00
	00		 je	 $LN15@AuthState_

; 181  : 		return true;
; 182  : 
; 183  : #ifdef USE_OPENID
; 184  : 	if (!__AnalyzePacket(HEADER_GC_AUTH_SUCCESS_OPENID, sizeof(TPacketGCAuthSuccess), &CAccountConnector::__AuthState_RecvAuthSuccess_OpenID))
; 185  : 		return true;
; 186  : #endif /* USE_OPENID */
; 187  : 
; 188  : 	if (!__AnalyzePacket(HEADER_GC_LOGIN_FAILURE, sizeof(TPacketGCAuthSuccess), &CAccountConnector::__AuthState_RecvAuthFailure))

  0006f	6a 00		 push	 0
  00071	68 00 00 00 00	 push	 OFFSET ?__AuthState_RecvAuthFailure@CAccountConnector@@IAE_NXZ ; CAccountConnector::__AuthState_RecvAuthFailure
  00076	6a 06		 push	 6
  00078	6a 07		 push	 7
  0007a	8b ce		 mov	 ecx, esi
  0007c	e8 00 00 00 00	 call	 ?__AnalyzePacket@CAccountConnector@@IAE_NIIP81@AE_NXZ@Z ; CAccountConnector::__AnalyzePacket
  00081	84 c0		 test	 al, al
  00083	0f 84 f0 00 00
	00		 je	 $LN15@AuthState_

; 189  : 		return true;
; 190  : 
; 191  : 	if (!__AnalyzePacket(HEADER_GC_CHINA_MATRIX_CARD, sizeof(TPacketGCChinaMatrixCard), &CAccountConnector::__AuthState_RecvChinaMatrixCard))

  00089	6a 00		 push	 0
  0008b	68 00 00 00 00	 push	 OFFSET ?__AuthState_RecvChinaMatrixCard@CAccountConnector@@IAE_NXZ ; CAccountConnector::__AuthState_RecvChinaMatrixCard
  00090	6a 09		 push	 9
  00092	6a 74		 push	 116			; 00000074H
  00094	8b ce		 mov	 ecx, esi
  00096	e8 00 00 00 00	 call	 ?__AnalyzePacket@CAccountConnector@@IAE_NIIP81@AE_NXZ@Z ; CAccountConnector::__AnalyzePacket
  0009b	84 c0		 test	 al, al
  0009d	0f 84 d6 00 00
	00		 je	 $LN15@AuthState_

; 192  : 		return true;
; 193  : 
; 194  : 	if (!__AnalyzePacket(HEADER_GC_RUNUP_MATRIX_QUIZ, sizeof(TPacketGCRunupMatrixQuiz), &CAccountConnector::__AuthState_RecvRunupMatrixQuiz))

  000a3	6a 00		 push	 0
  000a5	68 00 00 00 00	 push	 OFFSET ?__AuthState_RecvRunupMatrixQuiz@CAccountConnector@@IAE_NXZ ; CAccountConnector::__AuthState_RecvRunupMatrixQuiz
  000aa	6a 0a		 push	 10			; 0000000aH
  000ac	68 c9 00 00 00	 push	 201			; 000000c9H
  000b1	8b ce		 mov	 ecx, esi
  000b3	e8 00 00 00 00	 call	 ?__AnalyzePacket@CAccountConnector@@IAE_NIIP81@AE_NXZ@Z ; CAccountConnector::__AnalyzePacket
  000b8	84 c0		 test	 al, al
  000ba	0f 84 b9 00 00
	00		 je	 $LN15@AuthState_

; 195  : 		return true;
; 196  : 
; 197  : 	if (!__AnalyzePacket(HEADER_GC_NEWCIBN_PASSPOD_REQUEST, sizeof(TPacketGCNEWCIBNPasspodRequest), &CAccountConnector::__AuthState_RecvNEWCIBNPasspodRequest))

  000c0	6a 00		 push	 0
  000c2	68 00 00 00 00	 push	 OFFSET ?__AuthState_RecvNEWCIBNPasspodRequest@CAccountConnector@@IAE_NXZ ; CAccountConnector::__AuthState_RecvNEWCIBNPasspodRequest
  000c7	6a 01		 push	 1
  000c9	68 ca 00 00 00	 push	 202			; 000000caH
  000ce	8b ce		 mov	 ecx, esi
  000d0	e8 00 00 00 00	 call	 ?__AnalyzePacket@CAccountConnector@@IAE_NIIP81@AE_NXZ@Z ; CAccountConnector::__AnalyzePacket
  000d5	84 c0		 test	 al, al
  000d7	0f 84 9c 00 00
	00		 je	 $LN15@AuthState_

; 198  : 		return true;
; 199  : 
; 200  : 	if (!__AnalyzePacket(HEADER_GC_HANDSHAKE, sizeof(TPacketGCHandshake), &CAccountConnector::__AuthState_RecvHandshake))

  000dd	6a 00		 push	 0
  000df	68 00 00 00 00	 push	 OFFSET ?__AuthState_RecvHandshake@CAccountConnector@@IAE_NXZ ; CAccountConnector::__AuthState_RecvHandshake
  000e4	6a 0d		 push	 13			; 0000000dH
  000e6	68 ff 00 00 00	 push	 255			; 000000ffH
  000eb	8b ce		 mov	 ecx, esi
  000ed	e8 00 00 00 00	 call	 ?__AnalyzePacket@CAccountConnector@@IAE_NIIP81@AE_NXZ@Z ; CAccountConnector::__AnalyzePacket
  000f2	84 c0		 test	 al, al
  000f4	74 7f		 je	 SHORT $LN17@AuthState_

; 201  : 		return false;
; 202  : 
; 203  : 	if (!__AnalyzePacket(HEADER_GC_PANAMA_PACK, sizeof(TPacketGCPanamaPack), &CAccountConnector::__AuthState_RecvPanamaPack))

  000f6	6a 00		 push	 0
  000f8	68 00 00 00 00	 push	 OFFSET ?__AuthState_RecvPanamaPack@CAccountConnector@@IAE_NXZ ; CAccountConnector::__AuthState_RecvPanamaPack
  000fd	68 21 01 00 00	 push	 289			; 00000121H
  00102	68 97 00 00 00	 push	 151			; 00000097H
  00107	8b ce		 mov	 ecx, esi
  00109	e8 00 00 00 00	 call	 ?__AnalyzePacket@CAccountConnector@@IAE_NIIP81@AE_NXZ@Z ; CAccountConnector::__AnalyzePacket
  0010e	84 c0		 test	 al, al
  00110	74 63		 je	 SHORT $LN17@AuthState_

; 204  : 		return false;
; 205  : 
; 206  : #ifdef _IMPROVED_PACKET_ENCRYPTION_
; 207  : 	if (!__AnalyzePacket(HEADER_GC_KEY_AGREEMENT, sizeof(TPacketKeyAgreement), &CAccountConnector::__AuthState_RecvKeyAgreement))

  00112	6a 00		 push	 0
  00114	68 00 00 00 00	 push	 OFFSET ?__AuthState_RecvKeyAgreement@CAccountConnector@@IAE_NXZ ; CAccountConnector::__AuthState_RecvKeyAgreement
  00119	68 05 01 00 00	 push	 261			; 00000105H
  0011e	68 fb 00 00 00	 push	 251			; 000000fbH
  00123	8b ce		 mov	 ecx, esi
  00125	e8 00 00 00 00	 call	 ?__AnalyzePacket@CAccountConnector@@IAE_NIIP81@AE_NXZ@Z ; CAccountConnector::__AnalyzePacket
  0012a	84 c0		 test	 al, al
  0012c	74 47		 je	 SHORT $LN17@AuthState_

; 208  : 		return false;
; 209  : 
; 210  : 	if (!__AnalyzePacket(HEADER_GC_KEY_AGREEMENT_COMPLETED, sizeof(TPacketKeyAgreementCompleted), &CAccountConnector::__AuthState_RecvKeyAgreementCompleted))

  0012e	6a 00		 push	 0
  00130	68 00 00 00 00	 push	 OFFSET ?__AuthState_RecvKeyAgreementCompleted@CAccountConnector@@IAE_NXZ ; CAccountConnector::__AuthState_RecvKeyAgreementCompleted
  00135	6a 04		 push	 4
  00137	68 fa 00 00 00	 push	 250			; 000000faH
  0013c	8b ce		 mov	 ecx, esi
  0013e	e8 00 00 00 00	 call	 ?__AnalyzePacket@CAccountConnector@@IAE_NIIP81@AE_NXZ@Z ; CAccountConnector::__AnalyzePacket
  00143	84 c0		 test	 al, al
  00145	74 2e		 je	 SHORT $LN17@AuthState_

; 211  : 		return false;
; 212  : #endif
; 213  : 
; 214  : 	//  TODO :      data serialize & deserialize   .
; 215  : 	if (!__AnalyzeVarSizePacket(HEADER_GC_HYBRIDCRYPT_KEYS, &CAccountConnector::__AuthState_RecvHybridCryptKeys))

  00147	6a 00		 push	 0
  00149	68 00 00 00 00	 push	 OFFSET ?__AuthState_RecvHybridCryptKeys@CAccountConnector@@IAE_NH@Z ; CAccountConnector::__AuthState_RecvHybridCryptKeys
  0014e	68 98 00 00 00	 push	 152			; 00000098H
  00153	8b ce		 mov	 ecx, esi
  00155	e8 00 00 00 00	 call	 ?__AnalyzeVarSizePacket@CAccountConnector@@IAE_NIP81@AE_NH@Z@Z ; CAccountConnector::__AnalyzeVarSizePacket
  0015a	84 c0		 test	 al, al
  0015c	74 17		 je	 SHORT $LN17@AuthState_

; 216  : 		return false;
; 217  : 
; 218  : 	if (!__AnalyzeVarSizePacket(HEADER_GC_HYBRIDCRYPT_SDB, &CAccountConnector::__AuthState_RecvHybridCryptSDB))

  0015e	6a 00		 push	 0
  00160	68 00 00 00 00	 push	 OFFSET ?__AuthState_RecvHybridCryptSDB@CAccountConnector@@IAE_NH@Z ; CAccountConnector::__AuthState_RecvHybridCryptSDB
  00165	68 99 00 00 00	 push	 153			; 00000099H
  0016a	8b ce		 mov	 ecx, esi
  0016c	e8 00 00 00 00	 call	 ?__AnalyzeVarSizePacket@CAccountConnector@@IAE_NIP81@AE_NH@Z@Z ; CAccountConnector::__AnalyzeVarSizePacket
  00171	84 c0		 test	 al, al
  00173	75 04		 jne	 SHORT $LN15@AuthState_
$LN17@AuthState_:

; 219  : 		return false;

  00175	32 c0		 xor	 al, al
  00177	5e		 pop	 esi

; 222  : }

  00178	c3		 ret	 0
$LN15@AuthState_:

; 220  : 
; 221  : 	return true;

  00179	b0 01		 mov	 al, 1
  0017b	5e		 pop	 esi

; 222  : }

  0017c	c3		 ret	 0
?__AuthState_Process@CAccountConnector@@IAE_NXZ ENDP	; CAccountConnector::__AuthState_Process
_TEXT	ENDS
; Function compile flags: /Ogtp
; File D:\Metin2 Server Files\mainline\SRC_2014\Metin2Client\UserInterface\AccountConnector.cpp
;	COMDAT ?__HandshakeState_Process@CAccountConnector@@IAE_NXZ
_TEXT	SEGMENT
?__HandshakeState_Process@CAccountConnector@@IAE_NXZ PROC ; CAccountConnector::__HandshakeState_Process, COMDAT
; _this$ = ecx

; 141  : {

  00000	56		 push	 esi

; 142  : 	if (!__AnalyzePacket(HEADER_GC_PHASE, sizeof(TPacketGCPhase), &CAccountConnector::__AuthState_RecvPhase))

  00001	6a 00		 push	 0
  00003	68 00 00 00 00	 push	 OFFSET ?__AuthState_RecvPhase@CAccountConnector@@IAE_NXZ ; CAccountConnector::__AuthState_RecvPhase
  00008	6a 02		 push	 2
  0000a	68 fd 00 00 00	 push	 253			; 000000fdH
  0000f	8b f1		 mov	 esi, ecx
  00011	e8 00 00 00 00	 call	 ?__AnalyzePacket@CAccountConnector@@IAE_NIIP81@AE_NXZ@Z ; CAccountConnector::__AnalyzePacket
  00016	84 c0		 test	 al, al
  00018	0f 84 96 00 00
	00		 je	 $LN10@HandshakeS

; 143  : 		return false;
; 144  : 
; 145  : 	if (!__AnalyzePacket(HEADER_GC_HANDSHAKE, sizeof(TPacketGCHandshake), &CAccountConnector::__AuthState_RecvHandshake))

  0001e	6a 00		 push	 0
  00020	68 00 00 00 00	 push	 OFFSET ?__AuthState_RecvHandshake@CAccountConnector@@IAE_NXZ ; CAccountConnector::__AuthState_RecvHandshake
  00025	6a 0d		 push	 13			; 0000000dH
  00027	68 ff 00 00 00	 push	 255			; 000000ffH
  0002c	8b ce		 mov	 ecx, esi
  0002e	e8 00 00 00 00	 call	 ?__AnalyzePacket@CAccountConnector@@IAE_NIIP81@AE_NXZ@Z ; CAccountConnector::__AnalyzePacket
  00033	84 c0		 test	 al, al
  00035	74 7d		 je	 SHORT $LN10@HandshakeS

; 146  : 		return false;
; 147  : 
; 148  : 	if (!__AnalyzePacket(HEADER_GC_PING, sizeof(TPacketGCPing), &CAccountConnector::__AuthState_RecvPing))

  00037	6a 00		 push	 0
  00039	68 00 00 00 00	 push	 OFFSET ?__AuthState_RecvPing@CAccountConnector@@IAE_NXZ ; CAccountConnector::__AuthState_RecvPing
  0003e	6a 01		 push	 1
  00040	6a 2c		 push	 44			; 0000002cH
  00042	8b ce		 mov	 ecx, esi
  00044	e8 00 00 00 00	 call	 ?__AnalyzePacket@CAccountConnector@@IAE_NIIP81@AE_NXZ@Z ; CAccountConnector::__AnalyzePacket
  00049	84 c0		 test	 al, al
  0004b	74 67		 je	 SHORT $LN10@HandshakeS

; 149  : 		return false;
; 150  : 
; 151  : 	//  TODO :      data serialize & deserialize   .
; 152  : 	if (!__AnalyzeVarSizePacket(HEADER_GC_HYBRIDCRYPT_KEYS, &CAccountConnector::__AuthState_RecvHybridCryptKeys))

  0004d	6a 00		 push	 0
  0004f	68 00 00 00 00	 push	 OFFSET ?__AuthState_RecvHybridCryptKeys@CAccountConnector@@IAE_NH@Z ; CAccountConnector::__AuthState_RecvHybridCryptKeys
  00054	68 98 00 00 00	 push	 152			; 00000098H
  00059	8b ce		 mov	 ecx, esi
  0005b	e8 00 00 00 00	 call	 ?__AnalyzeVarSizePacket@CAccountConnector@@IAE_NIP81@AE_NH@Z@Z ; CAccountConnector::__AnalyzeVarSizePacket
  00060	84 c0		 test	 al, al
  00062	74 50		 je	 SHORT $LN10@HandshakeS

; 153  : 		return false;
; 154  : 
; 155  : 	if (!__AnalyzeVarSizePacket(HEADER_GC_HYBRIDCRYPT_SDB, &CAccountConnector::__AuthState_RecvHybridCryptSDB))

  00064	6a 00		 push	 0
  00066	68 00 00 00 00	 push	 OFFSET ?__AuthState_RecvHybridCryptSDB@CAccountConnector@@IAE_NH@Z ; CAccountConnector::__AuthState_RecvHybridCryptSDB
  0006b	68 99 00 00 00	 push	 153			; 00000099H
  00070	8b ce		 mov	 ecx, esi
  00072	e8 00 00 00 00	 call	 ?__AnalyzeVarSizePacket@CAccountConnector@@IAE_NIP81@AE_NH@Z@Z ; CAccountConnector::__AnalyzeVarSizePacket
  00077	84 c0		 test	 al, al
  00079	74 39		 je	 SHORT $LN10@HandshakeS

; 156  : 		return false;
; 157  : 
; 158  : #ifdef _IMPROVED_PACKET_ENCRYPTION_
; 159  : 	if (!__AnalyzePacket(HEADER_GC_KEY_AGREEMENT, sizeof(TPacketKeyAgreement), &CAccountConnector::__AuthState_RecvKeyAgreement))

  0007b	6a 00		 push	 0
  0007d	68 00 00 00 00	 push	 OFFSET ?__AuthState_RecvKeyAgreement@CAccountConnector@@IAE_NXZ ; CAccountConnector::__AuthState_RecvKeyAgreement
  00082	68 05 01 00 00	 push	 261			; 00000105H
  00087	68 fb 00 00 00	 push	 251			; 000000fbH
  0008c	8b ce		 mov	 ecx, esi
  0008e	e8 00 00 00 00	 call	 ?__AnalyzePacket@CAccountConnector@@IAE_NIIP81@AE_NXZ@Z ; CAccountConnector::__AnalyzePacket
  00093	84 c0		 test	 al, al
  00095	74 1d		 je	 SHORT $LN10@HandshakeS

; 160  : 		return false;
; 161  : 
; 162  : 	if (!__AnalyzePacket(HEADER_GC_KEY_AGREEMENT_COMPLETED, sizeof(TPacketKeyAgreementCompleted), &CAccountConnector::__AuthState_RecvKeyAgreementCompleted))

  00097	6a 00		 push	 0
  00099	68 00 00 00 00	 push	 OFFSET ?__AuthState_RecvKeyAgreementCompleted@CAccountConnector@@IAE_NXZ ; CAccountConnector::__AuthState_RecvKeyAgreementCompleted
  0009e	6a 04		 push	 4
  000a0	68 fa 00 00 00	 push	 250			; 000000faH
  000a5	8b ce		 mov	 ecx, esi
  000a7	e8 00 00 00 00	 call	 ?__AnalyzePacket@CAccountConnector@@IAE_NIIP81@AE_NXZ@Z ; CAccountConnector::__AnalyzePacket
  000ac	84 c0		 test	 al, al
  000ae	74 04		 je	 SHORT $LN10@HandshakeS

; 164  : #endif
; 165  : 
; 166  : 	return true;

  000b0	b0 01		 mov	 al, 1
  000b2	5e		 pop	 esi

; 167  : }

  000b3	c3		 ret	 0
$LN10@HandshakeS:

; 163  : 		return false;

  000b4	32 c0		 xor	 al, al
  000b6	5e		 pop	 esi

; 167  : }

  000b7	c3		 ret	 0
?__HandshakeState_Process@CAccountConnector@@IAE_NXZ ENDP ; CAccountConnector::__HandshakeState_Process
_TEXT	ENDS
; Function compile flags: /Ogtp
; File D:\Metin2 Server Files\mainline\SRC_2014\Metin2Client\UserInterface\AccountConnector.cpp
;	COMDAT ?__AuthState_Set@CAccountConnector@@IAEXXZ
_TEXT	SEGMENT
?__AuthState_Set@CAccountConnector@@IAEXXZ PROC		; CAccountConnector::__AuthState_Set, COMDAT
; _this$ = ecx

; 677  : 	m_eState=STATE_AUTH;

  00000	c7 81 80 00 00
	00 02 00 00 00	 mov	 DWORD PTR [ecx+128], 2

; 678  : }

  0000a	c3		 ret	 0
?__AuthState_Set@CAccountConnector@@IAEXXZ ENDP		; CAccountConnector::__AuthState_Set
_TEXT	ENDS
; Function compile flags: /Ogtp
; File D:\Metin2 Server Files\mainline\SRC_2014\Metin2Client\UserInterface\AccountConnector.cpp
;	COMDAT ?__HandshakeState_Set@CAccountConnector@@IAEXXZ
_TEXT	SEGMENT
?__HandshakeState_Set@CAccountConnector@@IAEXXZ PROC	; CAccountConnector::__HandshakeState_Set, COMDAT
; _this$ = ecx

; 672  : 	m_eState=STATE_HANDSHAKE;

  00000	c7 81 80 00 00
	00 01 00 00 00	 mov	 DWORD PTR [ecx+128], 1

; 673  : }

  0000a	c3		 ret	 0
?__HandshakeState_Set@CAccountConnector@@IAEXXZ ENDP	; CAccountConnector::__HandshakeState_Set
_TEXT	ENDS
; Function compile flags: /Ogtp
; File D:\Metin2 Server Files\mainline\SRC_2014\Metin2Client\UserInterface\AccountConnector.cpp
;	COMDAT ?__OfflineState_Set@CAccountConnector@@IAEXXZ
_TEXT	SEGMENT
?__OfflineState_Set@CAccountConnector@@IAEXXZ PROC	; CAccountConnector::__OfflineState_Set, COMDAT
; _this$ = ecx

; 667  : 	__Inialize();

  00000	e9 00 00 00 00	 jmp	 ?__Inialize@CAccountConnector@@IAEXXZ ; CAccountConnector::__Inialize
?__OfflineState_Set@CAccountConnector@@IAEXXZ ENDP	; CAccountConnector::__OfflineState_Set
_TEXT	ENDS
; Function compile flags: /Ogtp
; File D:\Metin2 Server Files\mainline\SRC_2014\Metin2Client\UserInterface\AccountConnector.cpp
;	COMDAT ?__StateProcess@CAccountConnector@@IAE_NXZ
_TEXT	SEGMENT
?__StateProcess@CAccountConnector@@IAE_NXZ PROC		; CAccountConnector::__StateProcess, COMDAT
; _this$ = ecx

; 127  : 	switch (m_eState)

  00000	8b 81 80 00 00
	00		 mov	 eax, DWORD PTR [ecx+128]
  00006	83 e8 01	 sub	 eax, 1
  00009	74 0d		 je	 SHORT $LN4@StateProce
  0000b	83 e8 01	 sub	 eax, 1
  0000e	74 03		 je	 SHORT $LN5@StateProce

; 134  : 			break;
; 135  : 	}
; 136  : 
; 137  : 	return true;

  00010	b0 01		 mov	 al, 1

; 138  : }

  00012	c3		 ret	 0
$LN5@StateProce:

; 131  : 			break;
; 132  : 		case STATE_AUTH:
; 133  : 			return __AuthState_Process();

  00013	e9 00 00 00 00	 jmp	 ?__AuthState_Process@CAccountConnector@@IAE_NXZ ; CAccountConnector::__AuthState_Process
$LN4@StateProce:

; 128  : 	{
; 129  : 		case STATE_HANDSHAKE:
; 130  : 			return __HandshakeState_Process();

  00018	e9 00 00 00 00	 jmp	 ?__HandshakeState_Process@CAccountConnector@@IAE_NXZ ; CAccountConnector::__HandshakeState_Process
?__StateProcess@CAccountConnector@@IAE_NXZ ENDP		; CAccountConnector::__StateProcess
_TEXT	ENDS
; Function compile flags: /Ogtp
; File D:\Metin2 Server Files\mainline\SRC_2014\Metin2Client\UserInterface\AccountConnector.cpp
;	COMDAT ?__Inialize@CAccountConnector@@IAEXXZ
_TEXT	SEGMENT
?__Inialize@CAccountConnector@@IAEXXZ PROC		; CAccountConnector::__Inialize, COMDAT
; _this$ = ecx

; 726  : 	m_eState=STATE_OFFLINE;

  00000	c7 81 80 00 00
	00 00 00 00 00	 mov	 DWORD PTR [ecx+128], 0

; 727  : 	m_isWaitKey = FALSE;

  0000a	c7 81 d0 00 00
	00 00 00 00 00	 mov	 DWORD PTR [ecx+208], 0

; 728  : }

  00014	c3		 ret	 0
?__Inialize@CAccountConnector@@IAEXXZ ENDP		; CAccountConnector::__Inialize
_TEXT	ENDS
; Function compile flags: /Ogtp
; File D:\Metin2 Server Files\mainline\SRC_2014\Metin2Client\UserInterface\AccountConnector.cpp
;	COMDAT ?OnDisconnect@CAccountConnector@@MAEXXZ
_TEXT	SEGMENT
?OnDisconnect@CAccountConnector@@MAEXXZ PROC		; CAccountConnector::OnDisconnect, COMDAT
; _this$ = ecx

; 710  : 	__OfflineState_Set();

  00000	e9 00 00 00 00	 jmp	 ?__OfflineState_Set@CAccountConnector@@IAEXXZ ; CAccountConnector::__OfflineState_Set
?OnDisconnect@CAccountConnector@@MAEXXZ ENDP		; CAccountConnector::OnDisconnect
_TEXT	ENDS
; Function compile flags: /Ogtp
; File D:\Metin2 Server Files\mainline\SRC_2014\Metin2Client\UserInterface\AccountConnector.cpp
;	COMDAT ?OnRemoteDisconnect@CAccountConnector@@MAEXXZ
_TEXT	SEGMENT
?OnRemoteDisconnect@CAccountConnector@@MAEXXZ PROC	; CAccountConnector::OnRemoteDisconnect, COMDAT
; _this$ = ecx

; 694  : {

  00000	56		 push	 esi
  00001	8b f1		 mov	 esi, ecx

; 695  : 	// Matrix Card Number    close    .
; 696  : 	if (m_isWaitKey)

  00003	83 be d0 00 00
	00 00		 cmp	 DWORD PTR [esi+208], 0
  0000a	74 2a		 je	 SHORT $LN3@OnRemoteDi

; 697  : 	{
; 698  : 		if (m_poHandler)

  0000c	83 be d4 00 00
	00 00		 cmp	 DWORD PTR [esi+212], 0
  00013	74 21		 je	 SHORT $LN3@OnRemoteDi

; 699  : 		{
; 700  : 			PyCallClassMemberFunc(m_poHandler, "OnExit", Py_BuildValue("()"));

  00015	68 00 00 00 00	 push	 OFFSET ??_C@_02HCKGKOFO@?$CI?$CJ@
  0001a	ff 15 00 00 00
	00		 call	 DWORD PTR __imp__Py_BuildValue
  00020	50		 push	 eax
  00021	68 00 00 00 00	 push	 OFFSET ??_C@_06NAODFICM@OnExit@
  00026	ff b6 d4 00 00
	00		 push	 DWORD PTR [esi+212]
  0002c	e8 00 00 00 00	 call	 ?PyCallClassMemberFunc@@YA_NPAU_object@@PBD0@Z ; PyCallClassMemberFunc
  00031	83 c4 10	 add	 esp, 16			; 00000010H
  00034	5e		 pop	 esi

; 706  : }

  00035	c3		 ret	 0
$LN3@OnRemoteDi:
  00036	5e		 pop	 esi

; 701  : 			return;
; 702  : 		}
; 703  : 	}
; 704  : 
; 705  : 	__OfflineState_Set();

  00037	e9 00 00 00 00	 jmp	 ?__OfflineState_Set@CAccountConnector@@IAEXXZ ; CAccountConnector::__OfflineState_Set
?OnRemoteDisconnect@CAccountConnector@@MAEXXZ ENDP	; CAccountConnector::OnRemoteDisconnect
_TEXT	ENDS
; Function compile flags: /Ogtp
; File D:\Metin2 Server Files\mainline\SRC_2014\Metin2Client\UserInterface\AccountConnector.cpp
;	COMDAT ?OnConnectSuccess@CAccountConnector@@MAEXXZ
_TEXT	SEGMENT
?OnConnectSuccess@CAccountConnector@@MAEXXZ PROC	; CAccountConnector::OnConnectSuccess, COMDAT
; _this$ = ecx

; 690  : 	m_eState = STATE_HANDSHAKE;

  00000	c7 81 80 00 00
	00 01 00 00 00	 mov	 DWORD PTR [ecx+128], 1

; 691  : }

  0000a	c3		 ret	 0
?OnConnectSuccess@CAccountConnector@@MAEXXZ ENDP	; CAccountConnector::OnConnectSuccess
_TEXT	ENDS
; Function compile flags: /Ogtp
; File D:\Metin2 Server Files\mainline\SRC_2014\Metin2Client\UserInterface\AccountConnector.cpp
;	COMDAT ?OnConnectFailure@CAccountConnector@@MAEXXZ
_TEXT	SEGMENT
?OnConnectFailure@CAccountConnector@@MAEXXZ PROC	; CAccountConnector::OnConnectFailure, COMDAT
; _this$ = ecx

; 681  : {

  00000	56		 push	 esi
  00001	8b f1		 mov	 esi, ecx

; 682  : 	if (m_poHandler)

  00003	83 be d4 00 00
	00 00		 cmp	 DWORD PTR [esi+212], 0
  0000a	74 1f		 je	 SHORT $LN2@OnConnectF

; 683  : 		PyCallClassMemberFunc(m_poHandler, "OnConnectFailure", Py_BuildValue("()"));

  0000c	68 00 00 00 00	 push	 OFFSET ??_C@_02HCKGKOFO@?$CI?$CJ@
  00011	ff 15 00 00 00
	00		 call	 DWORD PTR __imp__Py_BuildValue
  00017	50		 push	 eax
  00018	68 00 00 00 00	 push	 OFFSET ??_C@_0BB@JEKGEMCL@OnConnectFailure@
  0001d	ff b6 d4 00 00
	00		 push	 DWORD PTR [esi+212]
  00023	e8 00 00 00 00	 call	 ?PyCallClassMemberFunc@@YA_NPAU_object@@PBD0@Z ; PyCallClassMemberFunc
  00028	83 c4 10	 add	 esp, 16			; 00000010H
$LN2@OnConnectF:

; 684  : 
; 685  : 	__OfflineState_Set();

  0002b	8b ce		 mov	 ecx, esi
  0002d	5e		 pop	 esi
  0002e	e9 00 00 00 00	 jmp	 ?__OfflineState_Set@CAccountConnector@@IAEXXZ ; CAccountConnector::__OfflineState_Set
?OnConnectFailure@CAccountConnector@@MAEXXZ ENDP	; CAccountConnector::OnConnectFailure
_TEXT	ENDS
; Function compile flags: /Ogtp
; File D:\Metin2 Server Files\mainline\SRC_2014\Metin2Client\UserInterface\AccountConnector.cpp
;	COMDAT ?Process@CAccountConnector@@QAEXXZ
_TEXT	SEGMENT
?Process@CAccountConnector@@QAEXXZ PROC			; CAccountConnector::Process, COMDAT
; _this$ = ecx

; 115  : {

  00000	56		 push	 esi
  00001	8b f1		 mov	 esi, ecx

; 116  : 	CNetworkStream::Process();

  00003	e8 00 00 00 00	 call	 ?Process@CNetworkStream@@QAEXXZ ; CNetworkStream::Process

; 117  : 
; 118  : 	if (!__StateProcess())

  00008	8b ce		 mov	 ecx, esi
  0000a	e8 00 00 00 00	 call	 ?__StateProcess@CAccountConnector@@IAE_NXZ ; CAccountConnector::__StateProcess
  0000f	84 c0		 test	 al, al
  00011	75 0f		 jne	 SHORT $LN2@Process

; 119  : 	{
; 120  : 		__OfflineState_Set();

  00013	8b ce		 mov	 ecx, esi
  00015	e8 00 00 00 00	 call	 ?__OfflineState_Set@CAccountConnector@@IAEXXZ ; CAccountConnector::__OfflineState_Set

; 121  : 		Disconnect();

  0001a	8b ce		 mov	 ecx, esi
  0001c	5e		 pop	 esi
  0001d	e9 00 00 00 00	 jmp	 ?Disconnect@CAccountConnector@@QAEXXZ ; CAccountConnector::Disconnect
$LN2@Process:
  00022	5e		 pop	 esi

; 122  : 	}
; 123  : }

  00023	c3		 ret	 0
?Process@CAccountConnector@@QAEXXZ ENDP			; CAccountConnector::Process
_TEXT	ENDS
; Function compile flags: /Ogtp
; File D:\Metin2 Server Files\mainline\SRC_2014\Metin2Client\UserInterface\AccountConnector.cpp
;	COMDAT ?Disconnect@CAccountConnector@@QAEXXZ
_TEXT	SEGMENT
?Disconnect@CAccountConnector@@QAEXXZ PROC		; CAccountConnector::Disconnect, COMDAT
; _this$ = ecx

; 62   : {

  00000	56		 push	 esi
  00001	8b f1		 mov	 esi, ecx

; 63   : 	CNetworkStream::Disconnect();

  00003	e8 00 00 00 00	 call	 ?Disconnect@CNetworkStream@@QAEXXZ ; CNetworkStream::Disconnect

; 64   : 	__OfflineState_Set();

  00008	8b ce		 mov	 ecx, esi
  0000a	5e		 pop	 esi
  0000b	e9 00 00 00 00	 jmp	 ?__OfflineState_Set@CAccountConnector@@IAEXXZ ; CAccountConnector::__OfflineState_Set
?Disconnect@CAccountConnector@@QAEXXZ ENDP		; CAccountConnector::Disconnect
_TEXT	ENDS
; Function compile flags: /Ogtp
; File D:\Metin2 Server Files\mainline\SRC_2014\Metin2Client\UserInterface\AccountConnector.cpp
; File C:\Program Files (x86)\Microsoft Visual Studio\2019\Community\VC\Tools\MSVC\14.28.29333\include\xstring
; File D:\Metin2 Server Files\mainline\SRC_2014\Metin2Client\UserInterface\AccountConnector.cpp
; File C:\Program Files (x86)\Microsoft Visual Studio\2019\Community\VC\Tools\MSVC\14.28.29333\include\xstring
; File D:\Metin2 Server Files\mainline\SRC_2014\Metin2Client\UserInterface\AccountConnector.cpp
; File C:\Program Files (x86)\Microsoft Visual Studio\2019\Community\VC\Tools\MSVC\14.28.29333\include\xstring
; File D:\Metin2 Server Files\mainline\SRC_2014\Metin2Client\UserInterface\AccountConnector.cpp
;	COMDAT ?Connect@CAccountConnector@@QAE_NPBDH0H@Z
_TEXT	SEGMENT
_c_szAddr$ = 8						; size = 4
_iPort$ = 12						; size = 4
_c_szAccountAddr$ = 16					; size = 4
_iAccountPort$ = 20					; size = 4
?Connect@CAccountConnector@@QAE_NPBDH0H@Z PROC		; CAccountConnector::Connect, COMDAT
; _this$ = ecx

; 38   : {

  00000	55		 push	 ebp
  00001	8b ec		 mov	 ebp, esp
; File C:\Program Files (x86)\Microsoft Visual Studio\2019\Community\VC\Tools\MSVC\14.28.29333\include\xstring

; 389  :         return _CSTD strlen(reinterpret_cast<const char*>(_First));

  00003	8b 55 08	 mov	 edx, DWORD PTR _c_szAddr$[ebp]
  00006	8b c2		 mov	 eax, edx
; File D:\Metin2 Server Files\mainline\SRC_2014\Metin2Client\UserInterface\AccountConnector.cpp

; 38   : {

  00008	56		 push	 esi
  00009	57		 push	 edi
  0000a	8b f1		 mov	 esi, ecx
; File C:\Program Files (x86)\Microsoft Visual Studio\2019\Community\VC\Tools\MSVC\14.28.29333\include\xstring

; 389  :         return _CSTD strlen(reinterpret_cast<const char*>(_First));

  0000c	8d 78 01	 lea	 edi, DWORD PTR [eax+1]
  0000f	90		 npad	 1
$LL11@Connect:
  00010	8a 08		 mov	 cl, BYTE PTR [eax]
  00012	40		 inc	 eax
  00013	84 c9		 test	 cl, cl
  00015	75 f9		 jne	 SHORT $LL11@Connect
  00017	2b c7		 sub	 eax, edi
; File D:\Metin2 Server Files\mainline\SRC_2014\Metin2Client\UserInterface\AccountConnector.cpp

; 43   : 	m_strAddr = c_szAddr;

  00019	8d 8e b4 00 00
	00		 lea	 ecx, DWORD PTR [esi+180]
; File C:\Program Files (x86)\Microsoft Visual Studio\2019\Community\VC\Tools\MSVC\14.28.29333\include\xstring

; 3062 :         return assign(_Ptr, _Convert_size<size_type>(_Traits::length(_Ptr)));

  0001f	50		 push	 eax
  00020	52		 push	 edx
  00021	e8 00 00 00 00	 call	 ?assign@?$basic_string@DU?$char_traits@D@std@@V?$allocator@D@2@@std@@QAEAAV12@QBDI@Z ; std::basic_string<char,std::char_traits<char>,std::allocator<char> >::assign
; File D:\Metin2 Server Files\mainline\SRC_2014\Metin2Client\UserInterface\AccountConnector.cpp

; 44   : 	m_iPort = iPort;

  00026	8b 45 0c	 mov	 eax, DWORD PTR _iPort$[ebp]

; 45   : 
; 46   : 	__OfflineState_Set();

  00029	8b ce		 mov	 ecx, esi
  0002b	89 86 cc 00 00
	00		 mov	 DWORD PTR [esi+204], eax
  00031	e8 00 00 00 00	 call	 ?__OfflineState_Set@CAccountConnector@@IAEXXZ ; CAccountConnector::__OfflineState_Set

; 47   : 
; 48   : 	// CHINA_CRYPT_KEY
; 49   : 	if (LocaleService_IsYMIR())

  00036	e8 00 00 00 00	 call	 ?LocaleService_IsYMIR@@YA_NXZ ; LocaleService_IsYMIR
  0003b	84 c0		 test	 al, al
  0003d	75 07		 jne	 SHORT $LN3@Connect

; 50   : 	{
; 51   : 	}	
; 52   : 	else
; 53   : 	{
; 54   : 		__BuildClientKey_20050304Myevan();		

  0003f	8b ce		 mov	 ecx, esi
  00041	e8 00 00 00 00	 call	 ?__BuildClientKey_20050304Myevan@CAccountConnector@@IAEXXZ ; CAccountConnector::__BuildClientKey_20050304Myevan
$LN3@Connect:

; 55   : 	}
; 56   : 	// END_OF_CHINA_CRYPT_KEY
; 57   : 
; 58   : 	return CNetworkStream::Connect(c_szAccountAddr, iAccountPort);

  00046	6a 03		 push	 3
  00048	ff 75 14	 push	 DWORD PTR _iAccountPort$[ebp]
  0004b	8b ce		 mov	 ecx, esi
  0004d	ff 75 10	 push	 DWORD PTR _c_szAccountAddr$[ebp]
  00050	e8 00 00 00 00	 call	 ?Connect@CNetworkStream@@QAE_NPBDHH@Z ; CNetworkStream::Connect
  00055	5f		 pop	 edi
  00056	5e		 pop	 esi

; 59   : }

  00057	5d		 pop	 ebp
  00058	c2 10 00	 ret	 16			; 00000010H
?Connect@CAccountConnector@@QAE_NPBDH0H@Z ENDP		; CAccountConnector::Connect
_TEXT	ENDS
; Function compile flags: /Ogtp
; File D:\Metin2 Server Files\mainline\SRC_2014\Metin2Client\UserInterface\AccountConnector.cpp
;	COMDAT ?SendNEWCIBNPasspodAnswerPacket@CAccountConnector@@QAE_NPBD@Z
_TEXT	SEGMENT
_answerPacket$ = -16					; size = 10
__$ArrayPad$ = -4					; size = 4
_answer$ = 8						; size = 4
?SendNEWCIBNPasspodAnswerPacket@CAccountConnector@@QAE_NPBD@Z PROC ; CAccountConnector::SendNEWCIBNPasspodAnswerPacket, COMDAT
; _this$ = ecx

; 68   : {

  00000	55		 push	 ebp
  00001	8b ec		 mov	 ebp, esp
  00003	83 ec 10	 sub	 esp, 16			; 00000010H
  00006	a1 00 00 00 00	 mov	 eax, DWORD PTR ___security_cookie
  0000b	33 c5		 xor	 eax, ebp
  0000d	89 45 fc	 mov	 DWORD PTR __$ArrayPad$[ebp], eax
  00010	8b 45 08	 mov	 eax, DWORD PTR _answer$[ebp]
  00013	56		 push	 esi

; 69   : 	TPacketCGNEWCIBNPasspodAnswer answerPacket;
; 70   : 	answerPacket.bHeader = HEADER_CG_NEWCIBN_PASSPOD_ANSWER;
; 71   : 	strncpy(answerPacket.szAnswer, answer, NEWCIBN_PASSPOD_ANSWER_MAX_LEN);

  00014	6a 08		 push	 8
  00016	50		 push	 eax
  00017	8d 45 f1	 lea	 eax, DWORD PTR _answerPacket$[ebp+1]
  0001a	c6 45 f0 ca	 mov	 BYTE PTR _answerPacket$[ebp], 202 ; 000000caH
  0001e	50		 push	 eax
  0001f	8b f1		 mov	 esi, ecx
  00021	e8 00 00 00 00	 call	 _strncpy
  00026	83 c4 0c	 add	 esp, 12			; 0000000cH

; 72   : 	answerPacket.szAnswer[NEWCIBN_PASSPOD_ANSWER_MAX_LEN] = '\0';	

  00029	c6 45 f9 00	 mov	 BYTE PTR _answerPacket$[ebp+9], 0

; 73   : 	if (!Send(sizeof(answerPacket), &answerPacket))

  0002d	8d 45 f0	 lea	 eax, DWORD PTR _answerPacket$[ebp]
  00030	8b ce		 mov	 ecx, esi
  00032	50		 push	 eax
  00033	6a 0a		 push	 10			; 0000000aH
  00035	e8 00 00 00 00	 call	 ?Send@CNetworkStream@@QAE_NHPBX@Z ; CNetworkStream::Send
  0003a	84 c0		 test	 al, al
  0003c	75 20		 jne	 SHORT $LN2@SendNEWCIB

; 74   : 	{
; 75   : 		TraceError("SendNEWCIBNPasspodAnswerPacket");

  0003e	68 00 00 00 00	 push	 OFFSET ??_C@_0BP@JFBAGMPA@SendNEWCIBNPasspodAnswerPacket@
  00043	e8 00 00 00 00	 call	 ?TraceError@@YAXPBDZZ	; TraceError
  00048	83 c4 04	 add	 esp, 4

; 76   : 		return false;

  0004b	32 c0		 xor	 al, al
  0004d	5e		 pop	 esi

; 79   : }

  0004e	8b 4d fc	 mov	 ecx, DWORD PTR __$ArrayPad$[ebp]
  00051	33 cd		 xor	 ecx, ebp
  00053	e8 00 00 00 00	 call	 @__security_check_cookie@4
  00058	8b e5		 mov	 esp, ebp
  0005a	5d		 pop	 ebp
  0005b	c2 04 00	 ret	 4
$LN2@SendNEWCIB:

; 77   : 	}
; 78   : 	return SendSequence();

  0005e	8b ce		 mov	 ecx, esi
  00060	e8 00 00 00 00	 call	 ?SendSequence@CNetworkStream@@QAE_NXZ ; CNetworkStream::SendSequence

; 79   : }

  00065	8b 4d fc	 mov	 ecx, DWORD PTR __$ArrayPad$[ebp]
  00068	33 cd		 xor	 ecx, ebp
  0006a	5e		 pop	 esi
  0006b	e8 00 00 00 00	 call	 @__security_check_cookie@4
  00070	8b e5		 mov	 esp, ebp
  00072	5d		 pop	 ebp
  00073	c2 04 00	 ret	 4
?SendNEWCIBNPasspodAnswerPacket@CAccountConnector@@QAE_NPBD@Z ENDP ; CAccountConnector::SendNEWCIBNPasspodAnswerPacket
_TEXT	ENDS
; Function compile flags: /Ogtp
; File D:\Metin2 Server Files\mainline\SRC_2014\Metin2Client\UserInterface\AccountConnector.cpp
;	COMDAT ?SendRunupMatrixCardPacket@CAccountConnector@@QAE_NPBD@Z
_TEXT	SEGMENT
_answerPacket$ = -12					; size = 6
__$ArrayPad$ = -4					; size = 4
_c_szMatrixCardString$ = 8				; size = 4
?SendRunupMatrixCardPacket@CAccountConnector@@QAE_NPBD@Z PROC ; CAccountConnector::SendRunupMatrixCardPacket, COMDAT
; _this$ = ecx

; 82   : {

  00000	55		 push	 ebp
  00001	8b ec		 mov	 ebp, esp
  00003	83 ec 0c	 sub	 esp, 12			; 0000000cH
  00006	a1 00 00 00 00	 mov	 eax, DWORD PTR ___security_cookie
  0000b	33 c5		 xor	 eax, ebp
  0000d	89 45 fc	 mov	 DWORD PTR __$ArrayPad$[ebp], eax
  00010	8b 45 08	 mov	 eax, DWORD PTR _c_szMatrixCardString$[ebp]
  00013	56		 push	 esi

; 83   : 	TPacketCGRunupMatrixAnswer answerPacket;
; 84   : 	answerPacket.bHeader = HEADER_CG_RUNUP_MATRIX_ANSWER;
; 85   : 	strncpy(answerPacket.szAnswer, c_szMatrixCardString, RUNUP_MATRIX_ANSWER_MAX_LEN);

  00014	6a 04		 push	 4
  00016	50		 push	 eax
  00017	8d 45 f5	 lea	 eax, DWORD PTR _answerPacket$[ebp+1]
  0001a	c6 45 f4 c9	 mov	 BYTE PTR _answerPacket$[ebp], 201 ; 000000c9H
  0001e	50		 push	 eax
  0001f	8b f1		 mov	 esi, ecx
  00021	e8 00 00 00 00	 call	 _strncpy
  00026	83 c4 0c	 add	 esp, 12			; 0000000cH

; 86   : 	answerPacket.szAnswer[RUNUP_MATRIX_ANSWER_MAX_LEN] = '\0';

  00029	c6 45 f9 00	 mov	 BYTE PTR _answerPacket$[ebp+5], 0

; 87   : 	if (!Send(sizeof(answerPacket), &answerPacket))

  0002d	8d 45 f4	 lea	 eax, DWORD PTR _answerPacket$[ebp]
  00030	8b ce		 mov	 ecx, esi
  00032	50		 push	 eax
  00033	6a 06		 push	 6
  00035	e8 00 00 00 00	 call	 ?Send@CNetworkStream@@QAE_NHPBX@Z ; CNetworkStream::Send
  0003a	84 c0		 test	 al, al
  0003c	75 20		 jne	 SHORT $LN2@SendRunupM

; 88   : 	{
; 89   : 		TraceError("SendRunupMatrixCardPacketError");

  0003e	68 00 00 00 00	 push	 OFFSET ??_C@_0BP@PNMANAPB@SendRunupMatrixCardPacketError@
  00043	e8 00 00 00 00	 call	 ?TraceError@@YAXPBDZZ	; TraceError
  00048	83 c4 04	 add	 esp, 4

; 90   : 		return false;

  0004b	32 c0		 xor	 al, al
  0004d	5e		 pop	 esi

; 93   : }

  0004e	8b 4d fc	 mov	 ecx, DWORD PTR __$ArrayPad$[ebp]
  00051	33 cd		 xor	 ecx, ebp
  00053	e8 00 00 00 00	 call	 @__security_check_cookie@4
  00058	8b e5		 mov	 esp, ebp
  0005a	5d		 pop	 ebp
  0005b	c2 04 00	 ret	 4
$LN2@SendRunupM:

; 91   : 	}
; 92   : 	return SendSequence();

  0005e	8b ce		 mov	 ecx, esi
  00060	e8 00 00 00 00	 call	 ?SendSequence@CNetworkStream@@QAE_NXZ ; CNetworkStream::SendSequence

; 93   : }

  00065	8b 4d fc	 mov	 ecx, DWORD PTR __$ArrayPad$[ebp]
  00068	33 cd		 xor	 ecx, ebp
  0006a	5e		 pop	 esi
  0006b	e8 00 00 00 00	 call	 @__security_check_cookie@4
  00070	8b e5		 mov	 esp, ebp
  00072	5d		 pop	 ebp
  00073	c2 04 00	 ret	 4
?SendRunupMatrixCardPacket@CAccountConnector@@QAE_NPBD@Z ENDP ; CAccountConnector::SendRunupMatrixCardPacket
_TEXT	ENDS
; Function compile flags: /Ogtp
; File D:\Metin2 Server Files\mainline\SRC_2014\Metin2Client\UserInterface\AccountConnector.cpp
;	COMDAT ?SendChinaMatrixCardPacket@CAccountConnector@@QAE_NPBD@Z
_TEXT	SEGMENT
_MatrixCardPacket$ = -16				; size = 10
__$ArrayPad$ = -4					; size = 4
_c_szMatrixCardString$ = 8				; size = 4
?SendChinaMatrixCardPacket@CAccountConnector@@QAE_NPBD@Z PROC ; CAccountConnector::SendChinaMatrixCardPacket, COMDAT
; _this$ = ecx

; 96   : {

  00000	55		 push	 ebp
  00001	8b ec		 mov	 ebp, esp
  00003	83 ec 10	 sub	 esp, 16			; 00000010H
  00006	a1 00 00 00 00	 mov	 eax, DWORD PTR ___security_cookie
  0000b	33 c5		 xor	 eax, ebp
  0000d	89 45 fc	 mov	 DWORD PTR __$ArrayPad$[ebp], eax
  00010	8b 45 08	 mov	 eax, DWORD PTR _c_szMatrixCardString$[ebp]
  00013	56		 push	 esi

; 97   : 	TPacketCGChinaMatrixCard MatrixCardPacket;
; 98   : 	MatrixCardPacket.bHeader = HEADER_CG_CHINA_MATRIX_CARD;
; 99   : 	strncpy(MatrixCardPacket.szAnswer, c_szMatrixCardString, CHINA_MATRIX_ANSWER_MAX_LEN);

  00014	6a 08		 push	 8
  00016	50		 push	 eax
  00017	8d 45 f1	 lea	 eax, DWORD PTR _MatrixCardPacket$[ebp+1]
  0001a	c6 45 f0 6c	 mov	 BYTE PTR _MatrixCardPacket$[ebp], 108 ; 0000006cH
  0001e	50		 push	 eax
  0001f	8b f1		 mov	 esi, ecx
  00021	e8 00 00 00 00	 call	 _strncpy
  00026	83 c4 0c	 add	 esp, 12			; 0000000cH

; 100  : 	MatrixCardPacket.szAnswer[CHINA_MATRIX_ANSWER_MAX_LEN] = '\0';

  00029	c6 45 f9 00	 mov	 BYTE PTR _MatrixCardPacket$[ebp+9], 0

; 101  : 
; 102  : 	if (!Send(sizeof(MatrixCardPacket), &MatrixCardPacket))

  0002d	8d 45 f0	 lea	 eax, DWORD PTR _MatrixCardPacket$[ebp]
  00030	8b ce		 mov	 ecx, esi
  00032	50		 push	 eax
  00033	6a 0a		 push	 10			; 0000000aH
  00035	e8 00 00 00 00	 call	 ?Send@CNetworkStream@@QAE_NHPBX@Z ; CNetworkStream::Send
  0003a	84 c0		 test	 al, al
  0003c	75 20		 jne	 SHORT $LN2@SendChinaM

; 103  : 	{
; 104  : 		Tracen("SendLogin Error");

  0003e	68 00 00 00 00	 push	 OFFSET ??_C@_0BA@HGDBLFFH@SendLogin?5Error@
  00043	e8 00 00 00 00	 call	 ?Tracen@@YAXPBD@Z	; Tracen
  00048	83 c4 04	 add	 esp, 4

; 105  : 		return false;

  0004b	32 c0		 xor	 al, al
  0004d	5e		 pop	 esi

; 112  : }

  0004e	8b 4d fc	 mov	 ecx, DWORD PTR __$ArrayPad$[ebp]
  00051	33 cd		 xor	 ecx, ebp
  00053	e8 00 00 00 00	 call	 @__security_check_cookie@4
  00058	8b e5		 mov	 esp, ebp
  0005a	5d		 pop	 ebp
  0005b	c2 04 00	 ret	 4
$LN2@SendChinaM:

; 106  : 	}
; 107  : 
; 108  : 	CPythonNetworkStream::Instance().SetWaitFlag();

  0005e	8b 0d 00 00 00
	00		 mov	 ecx, DWORD PTR ?ms_singleton@?$CSingleton@VCPythonNetworkStream@@@@0PAVCPythonNetworkStream@@A ; CSingleton<CPythonNetworkStream>::ms_singleton
  00064	e8 00 00 00 00	 call	 ?SetWaitFlag@CPythonNetworkStream@@QAEXXZ ; CPythonNetworkStream::SetWaitFlag

; 109  : 	m_isWaitKey = TRUE;
; 110  : 
; 111  : 	return SendSequence();

  00069	8b ce		 mov	 ecx, esi
  0006b	c7 86 d0 00 00
	00 01 00 00 00	 mov	 DWORD PTR [esi+208], 1
  00075	e8 00 00 00 00	 call	 ?SendSequence@CNetworkStream@@QAE_NXZ ; CNetworkStream::SendSequence

; 112  : }

  0007a	8b 4d fc	 mov	 ecx, DWORD PTR __$ArrayPad$[ebp]
  0007d	33 cd		 xor	 ecx, ebp
  0007f	5e		 pop	 esi
  00080	e8 00 00 00 00	 call	 @__security_check_cookie@4
  00085	8b e5		 mov	 esp, ebp
  00087	5d		 pop	 ebp
  00088	c2 04 00	 ret	 4
?SendChinaMatrixCardPacket@CAccountConnector@@QAE_NPBD@Z ENDP ; CAccountConnector::SendChinaMatrixCardPacket
_TEXT	ENDS
; Function compile flags: /Ogtp
; File D:\Metin2 Server Files\mainline\SRC_2014\Metin2Client\UserInterface\AccountConnector.cpp
; File C:\Program Files (x86)\Microsoft Visual Studio\2019\Community\VC\Tools\MSVC\14.28.29333\include\xstring
; File D:\Metin2 Server Files\mainline\SRC_2014\Metin2Client\UserInterface\AccountConnector.cpp
; File C:\Program Files (x86)\Microsoft Visual Studio\2019\Community\VC\Tools\MSVC\14.28.29333\include\xstring
; File D:\Metin2 Server Files\mainline\SRC_2014\Metin2Client\UserInterface\AccountConnector.cpp
;	COMDAT ?ClearLoginInfo@CAccountConnector@@QAEXXZ
_TEXT	SEGMENT
?ClearLoginInfo@CAccountConnector@@QAEXXZ PROC		; CAccountConnector::ClearLoginInfo, COMDAT
; _this$ = ecx
; File C:\Program Files (x86)\Microsoft Visual Studio\2019\Community\VC\Tools\MSVC\14.28.29333\include\xstring

; 3062 :         return assign(_Ptr, _Convert_size<size_type>(_Traits::length(_Ptr)));

  00000	6a 00		 push	 0
  00002	68 00 00 00 00	 push	 OFFSET ??_C@_00CNPNBAHC@@
; File D:\Metin2 Server Files\mainline\SRC_2014\Metin2Client\UserInterface\AccountConnector.cpp

; 34   : 	m_strPassword = "";

  00007	81 c1 9c 00 00
	00		 add	 ecx, 156		; 0000009cH
; File C:\Program Files (x86)\Microsoft Visual Studio\2019\Community\VC\Tools\MSVC\14.28.29333\include\xstring

; 3062 :         return assign(_Ptr, _Convert_size<size_type>(_Traits::length(_Ptr)));

  0000d	e8 00 00 00 00	 call	 ?assign@?$basic_string@DU?$char_traits@D@std@@V?$allocator@D@2@@std@@QAEAAV12@QBDI@Z ; std::basic_string<char,std::char_traits<char>,std::allocator<char> >::assign
; File D:\Metin2 Server Files\mainline\SRC_2014\Metin2Client\UserInterface\AccountConnector.cpp

; 35   : }

  00012	c3		 ret	 0
?ClearLoginInfo@CAccountConnector@@QAEXXZ ENDP		; CAccountConnector::ClearLoginInfo
_TEXT	ENDS
; Function compile flags: /Ogtp
; File D:\Metin2 Server Files\mainline\SRC_2014\Metin2Client\UserInterface\AccountConnector.cpp
; File C:\Program Files (x86)\Microsoft Visual Studio\2019\Community\VC\Tools\MSVC\14.28.29333\include\xstring
; File D:\Metin2 Server Files\mainline\SRC_2014\Metin2Client\UserInterface\AccountConnector.cpp
; File C:\Program Files (x86)\Microsoft Visual Studio\2019\Community\VC\Tools\MSVC\14.28.29333\include\xstring
; File D:\Metin2 Server Files\mainline\SRC_2014\Metin2Client\UserInterface\AccountConnector.cpp
; File C:\Program Files (x86)\Microsoft Visual Studio\2019\Community\VC\Tools\MSVC\14.28.29333\include\xstring
; File D:\Metin2 Server Files\mainline\SRC_2014\Metin2Client\UserInterface\AccountConnector.cpp
; File C:\Program Files (x86)\Microsoft Visual Studio\2019\Community\VC\Tools\MSVC\14.28.29333\include\xstring
; File D:\Metin2 Server Files\mainline\SRC_2014\Metin2Client\UserInterface\AccountConnector.cpp
;	COMDAT ?SetLoginInfo@CAccountConnector@@QAEXPBD0@Z
_TEXT	SEGMENT
_c_szName$ = 8						; size = 4
_c_szPwd$ = 12						; size = 4
?SetLoginInfo@CAccountConnector@@QAEXPBD0@Z PROC	; CAccountConnector::SetLoginInfo, COMDAT
; _this$ = ecx

; 26   : {

  00000	55		 push	 ebp
  00001	8b ec		 mov	 ebp, esp
  00003	56		 push	 esi
; File C:\Program Files (x86)\Microsoft Visual Studio\2019\Community\VC\Tools\MSVC\14.28.29333\include\xstring

; 389  :         return _CSTD strlen(reinterpret_cast<const char*>(_First));

  00004	8b 75 08	 mov	 esi, DWORD PTR _c_szName$[ebp]
  00007	8b d6		 mov	 edx, esi
; File D:\Metin2 Server Files\mainline\SRC_2014\Metin2Client\UserInterface\AccountConnector.cpp

; 26   : {

  00009	57		 push	 edi
  0000a	8b f9		 mov	 edi, ecx
; File C:\Program Files (x86)\Microsoft Visual Studio\2019\Community\VC\Tools\MSVC\14.28.29333\include\xstring

; 389  :         return _CSTD strlen(reinterpret_cast<const char*>(_First));

  0000c	8d 4a 01	 lea	 ecx, DWORD PTR [edx+1]
  0000f	90		 npad	 1
$LL15@SetLoginIn:
  00010	8a 02		 mov	 al, BYTE PTR [edx]
  00012	42		 inc	 edx
  00013	84 c0		 test	 al, al
  00015	75 f9		 jne	 SHORT $LL15@SetLoginIn
  00017	2b d1		 sub	 edx, ecx
; File D:\Metin2 Server Files\mainline\SRC_2014\Metin2Client\UserInterface\AccountConnector.cpp

; 27   : 	m_strID = c_szName;

  00019	8d 8f 84 00 00
	00		 lea	 ecx, DWORD PTR [edi+132]
; File C:\Program Files (x86)\Microsoft Visual Studio\2019\Community\VC\Tools\MSVC\14.28.29333\include\xstring

; 3062 :         return assign(_Ptr, _Convert_size<size_type>(_Traits::length(_Ptr)));

  0001f	52		 push	 edx
  00020	56		 push	 esi
  00021	e8 00 00 00 00	 call	 ?assign@?$basic_string@DU?$char_traits@D@std@@V?$allocator@D@2@@std@@QAEAAV12@QBDI@Z ; std::basic_string<char,std::char_traits<char>,std::allocator<char> >::assign

; 389  :         return _CSTD strlen(reinterpret_cast<const char*>(_First));

  00026	8b 55 0c	 mov	 edx, DWORD PTR _c_szPwd$[ebp]
  00029	8b c2		 mov	 eax, edx
  0002b	8d 70 01	 lea	 esi, DWORD PTR [eax+1]
  0002e	66 90		 npad	 2
$LL16@SetLoginIn:
  00030	8a 08		 mov	 cl, BYTE PTR [eax]
  00032	40		 inc	 eax
  00033	84 c9		 test	 cl, cl
  00035	75 f9		 jne	 SHORT $LL16@SetLoginIn
  00037	2b c6		 sub	 eax, esi
; File D:\Metin2 Server Files\mainline\SRC_2014\Metin2Client\UserInterface\AccountConnector.cpp

; 28   : 	m_strPassword = c_szPwd;

  00039	8d 8f 9c 00 00
	00		 lea	 ecx, DWORD PTR [edi+156]
; File C:\Program Files (x86)\Microsoft Visual Studio\2019\Community\VC\Tools\MSVC\14.28.29333\include\xstring

; 3062 :         return assign(_Ptr, _Convert_size<size_type>(_Traits::length(_Ptr)));

  0003f	50		 push	 eax
  00040	52		 push	 edx
  00041	e8 00 00 00 00	 call	 ?assign@?$basic_string@DU?$char_traits@D@std@@V?$allocator@D@2@@std@@QAEAAV12@QBDI@Z ; std::basic_string<char,std::char_traits<char>,std::allocator<char> >::assign
  00046	5f		 pop	 edi
  00047	5e		 pop	 esi
; File D:\Metin2 Server Files\mainline\SRC_2014\Metin2Client\UserInterface\AccountConnector.cpp

; 29   : }

  00048	5d		 pop	 ebp
  00049	c2 08 00	 ret	 8
?SetLoginInfo@CAccountConnector@@QAEXPBD0@Z ENDP	; CAccountConnector::SetLoginInfo
_TEXT	ENDS
; Function compile flags: /Ogtp
; File D:\Metin2 Server Files\mainline\SRC_2014\Metin2Client\UserInterface\AccountConnector.cpp
;	COMDAT ?SetHandler@CAccountConnector@@QAEXPAU_object@@@Z
_TEXT	SEGMENT
_poHandler$ = 8						; size = 4
?SetHandler@CAccountConnector@@QAEXPAU_object@@@Z PROC	; CAccountConnector::SetHandler, COMDAT
; _this$ = ecx

; 21   : {

  00000	55		 push	 ebp
  00001	8b ec		 mov	 ebp, esp

; 22   : 	m_poHandler = poHandler;

  00003	8b 45 08	 mov	 eax, DWORD PTR _poHandler$[ebp]
  00006	89 81 d4 00 00
	00		 mov	 DWORD PTR [ecx+212], eax

; 23   : }

  0000c	5d		 pop	 ebp
  0000d	c2 04 00	 ret	 4
?SetHandler@CAccountConnector@@QAEXPAU_object@@@Z ENDP	; CAccountConnector::SetHandler
_TEXT	ENDS
; Function compile flags: /Ogtp
; File D:\Metin2 Server Files\mainline\SRC_2014\Metin2Client\UserInterface\AccountConnector.cpp
; File C:\Program Files (x86)\Microsoft Visual Studio\2019\Community\VC\Tools\MSVC\14.28.29333\include\xstring
; File C:\Program Files (x86)\Microsoft Visual Studio\2019\Community\VC\Tools\MSVC\14.28.29333\include\xmemory
; File C:\Program Files (x86)\Microsoft Visual Studio\2019\Community\VC\Tools\MSVC\14.28.29333\include\xstring
; File C:\Program Files (x86)\Microsoft Visual Studio\2019\Community\VC\Tools\MSVC\14.28.29333\include\xmemory
; File C:\Program Files (x86)\Microsoft Visual Studio\2019\Community\VC\Tools\MSVC\14.28.29333\include\xstring
; File C:\Program Files (x86)\Microsoft Visual Studio\2019\Community\VC\Tools\MSVC\14.28.29333\include\xmemory
; File C:\Program Files (x86)\Microsoft Visual Studio\2019\Community\VC\Tools\MSVC\14.28.29333\include\xstring
; File D:\Metin2 Server Files\mainline\SRC_2014\Metin2Client\UserInterface\AccountConnector.cpp
; File C:\Program Files (x86)\Microsoft Visual Studio\2019\Community\VC\Tools\MSVC\14.28.29333\include\xstring
; File D:\Metin2 Server Files\mainline\SRC_2014\Metin2Client\eterBase\Singleton.h
; File D:\Metin2 Server Files\mainline\SRC_2014\Metin2Client\UserInterface\AccountConnector.cpp
;	COMDAT ??1CAccountConnector@@UAE@XZ
_TEXT	SEGMENT
??1CAccountConnector@@UAE@XZ PROC			; CAccountConnector::~CAccountConnector, COMDAT
; _this$ = ecx

; 743  : {

  00000	56		 push	 esi
  00001	8b f1		 mov	 esi, ecx
  00003	c7 06 00 00 00
	00		 mov	 DWORD PTR [esi], OFFSET ??_7CAccountConnector@@6BCNetworkStream@@@
  00009	c7 46 7c 00 00
	00 00		 mov	 DWORD PTR [esi+124], OFFSET ??_7CAccountConnector@@6B?$CSingleton@VCAccountConnector@@@@@

; 744  : 	__OfflineState_Set();

  00010	e8 00 00 00 00	 call	 ?__OfflineState_Set@CAccountConnector@@IAEXXZ ; CAccountConnector::__OfflineState_Set
; File C:\Program Files (x86)\Microsoft Visual Studio\2019\Community\VC\Tools\MSVC\14.28.29333\include\xstring

; 2227 :         return _BUF_SIZE <= _Myres;

  00015	8b 86 c8 00 00
	00		 mov	 eax, DWORD PTR [esi+200]
  0001b	83 f8 10	 cmp	 eax, 16			; 00000010H

; 4385 :         if (_Mypair._Myval2._Large_string_engaged()) {

  0001e	72 10		 jb	 SHORT $LN7@CAccountCo

; 4386 :             const pointer _Ptr = _Mypair._Myval2._Bx._Ptr;
; 4387 :             auto& _Al          = _Getal();
; 4388 :             _Destroy_in_place(_Mypair._Myval2._Bx._Ptr);
; 4389 :             _Al.deallocate(_Ptr, _Mypair._Myval2._Myres + 1);

  00020	40		 inc	 eax
; File C:\Program Files (x86)\Microsoft Visual Studio\2019\Community\VC\Tools\MSVC\14.28.29333\include\xmemory

; 810  :         _Deallocate<_New_alignof<_Ty>>(_Ptr, sizeof(_Ty) * _Count);

  00021	50		 push	 eax
  00022	ff b6 b4 00 00
	00		 push	 DWORD PTR [esi+180]
  00028	e8 00 00 00 00	 call	 ??$_Deallocate@$07$0A@@std@@YAXPAXI@Z ; std::_Deallocate<8,0>
  0002d	83 c4 08	 add	 esp, 8
$LN7@CAccountCo:
; File C:\Program Files (x86)\Microsoft Visual Studio\2019\Community\VC\Tools\MSVC\14.28.29333\include\xstring

; 4392 :         _Mypair._Myval2._Mysize = 0;

  00030	c7 86 c4 00 00
	00 00 00 00 00	 mov	 DWORD PTR [esi+196], 0

; 4393 :         _Mypair._Myval2._Myres  = _BUF_SIZE - 1;

  0003a	c7 86 c8 00 00
	00 0f 00 00 00	 mov	 DWORD PTR [esi+200], 15	; 0000000fH

; 4394 :         // the _Traits::assign is last so the codegen doesn't think the char write can alias this
; 4395 :         _Traits::assign(_Mypair._Myval2._Bx._Buf[0], _Elem());

  00044	c6 86 b4 00 00
	00 00		 mov	 BYTE PTR [esi+180], 0

; 2227 :         return _BUF_SIZE <= _Myres;

  0004b	8b 86 b0 00 00
	00		 mov	 eax, DWORD PTR [esi+176]
  00051	83 f8 10	 cmp	 eax, 16			; 00000010H

; 4385 :         if (_Mypair._Myval2._Large_string_engaged()) {

  00054	72 10		 jb	 SHORT $LN17@CAccountCo

; 4386 :             const pointer _Ptr = _Mypair._Myval2._Bx._Ptr;
; 4387 :             auto& _Al          = _Getal();
; 4388 :             _Destroy_in_place(_Mypair._Myval2._Bx._Ptr);
; 4389 :             _Al.deallocate(_Ptr, _Mypair._Myval2._Myres + 1);

  00056	40		 inc	 eax
; File C:\Program Files (x86)\Microsoft Visual Studio\2019\Community\VC\Tools\MSVC\14.28.29333\include\xmemory

; 810  :         _Deallocate<_New_alignof<_Ty>>(_Ptr, sizeof(_Ty) * _Count);

  00057	50		 push	 eax
  00058	ff b6 9c 00 00
	00		 push	 DWORD PTR [esi+156]
  0005e	e8 00 00 00 00	 call	 ??$_Deallocate@$07$0A@@std@@YAXPAXI@Z ; std::_Deallocate<8,0>
  00063	83 c4 08	 add	 esp, 8
$LN17@CAccountCo:
; File C:\Program Files (x86)\Microsoft Visual Studio\2019\Community\VC\Tools\MSVC\14.28.29333\include\xstring

; 4392 :         _Mypair._Myval2._Mysize = 0;

  00066	c7 86 ac 00 00
	00 00 00 00 00	 mov	 DWORD PTR [esi+172], 0

; 4393 :         _Mypair._Myval2._Myres  = _BUF_SIZE - 1;

  00070	c7 86 b0 00 00
	00 0f 00 00 00	 mov	 DWORD PTR [esi+176], 15	; 0000000fH

; 4394 :         // the _Traits::assign is last so the codegen doesn't think the char write can alias this
; 4395 :         _Traits::assign(_Mypair._Myval2._Bx._Buf[0], _Elem());

  0007a	c6 86 9c 00 00
	00 00		 mov	 BYTE PTR [esi+156], 0

; 2227 :         return _BUF_SIZE <= _Myres;

  00081	8b 86 98 00 00
	00		 mov	 eax, DWORD PTR [esi+152]
  00087	83 f8 10	 cmp	 eax, 16			; 00000010H

; 4385 :         if (_Mypair._Myval2._Large_string_engaged()) {

  0008a	72 10		 jb	 SHORT $LN27@CAccountCo

; 4386 :             const pointer _Ptr = _Mypair._Myval2._Bx._Ptr;
; 4387 :             auto& _Al          = _Getal();
; 4388 :             _Destroy_in_place(_Mypair._Myval2._Bx._Ptr);
; 4389 :             _Al.deallocate(_Ptr, _Mypair._Myval2._Myres + 1);

  0008c	40		 inc	 eax
; File C:\Program Files (x86)\Microsoft Visual Studio\2019\Community\VC\Tools\MSVC\14.28.29333\include\xmemory

; 810  :         _Deallocate<_New_alignof<_Ty>>(_Ptr, sizeof(_Ty) * _Count);

  0008d	50		 push	 eax
  0008e	ff b6 84 00 00
	00		 push	 DWORD PTR [esi+132]
  00094	e8 00 00 00 00	 call	 ??$_Deallocate@$07$0A@@std@@YAXPAXI@Z ; std::_Deallocate<8,0>
  00099	83 c4 08	 add	 esp, 8
$LN27@CAccountCo:
; File C:\Program Files (x86)\Microsoft Visual Studio\2019\Community\VC\Tools\MSVC\14.28.29333\include\xstring

; 4392 :         _Mypair._Myval2._Mysize = 0;

  0009c	c7 86 94 00 00
	00 00 00 00 00	 mov	 DWORD PTR [esi+148], 0
; File D:\Metin2 Server Files\mainline\SRC_2014\Metin2Client\UserInterface\AccountConnector.cpp

; 745  : }

  000a6	8b ce		 mov	 ecx, esi
; File C:\Program Files (x86)\Microsoft Visual Studio\2019\Community\VC\Tools\MSVC\14.28.29333\include\xstring

; 4393 :         _Mypair._Myval2._Myres  = _BUF_SIZE - 1;

  000a8	c7 86 98 00 00
	00 0f 00 00 00	 mov	 DWORD PTR [esi+152], 15	; 0000000fH

; 4394 :         // the _Traits::assign is last so the codegen doesn't think the char write can alias this
; 4395 :         _Traits::assign(_Mypair._Myval2._Bx._Buf[0], _Elem());

  000b2	c6 86 84 00 00
	00 00		 mov	 BYTE PTR [esi+132], 0
; File D:\Metin2 Server Files\mainline\SRC_2014\Metin2Client\eterBase\Singleton.h

; 19   : 	{ 

  000b9	c7 46 7c 00 00
	00 00		 mov	 DWORD PTR [esi+124], OFFSET ??_7?$CSingleton@VCAccountConnector@@@@6B@

; 20   : 		assert(ms_singleton);
; 21   : 		ms_singleton = 0; 

  000c0	c7 05 00 00 00
	00 00 00 00 00	 mov	 DWORD PTR ?ms_singleton@?$CSingleton@VCAccountConnector@@@@0PAVCAccountConnector@@A, 0 ; CSingleton<CAccountConnector>::ms_singleton
; File D:\Metin2 Server Files\mainline\SRC_2014\Metin2Client\UserInterface\AccountConnector.cpp

; 745  : }

  000ca	5e		 pop	 esi
  000cb	e9 00 00 00 00	 jmp	 ??1CNetworkStream@@UAE@XZ ; CNetworkStream::~CNetworkStream
??1CAccountConnector@@UAE@XZ ENDP			; CAccountConnector::~CAccountConnector
_TEXT	ENDS
; Function compile flags: /Ogtp
; File D:\Metin2 Server Files\mainline\SRC_2014\Metin2Client\UserInterface\AccountConnector.cpp
; File D:\Metin2 Server Files\mainline\SRC_2014\Metin2Client\eterBase\Singleton.h
; File D:\Metin2 Server Files\mainline\SRC_2014\Metin2Client\UserInterface\AccountConnector.cpp
; File D:\Metin2 Server Files\mainline\SRC_2014\Metin2Client\eterBase\Singleton.h
; File D:\Metin2 Server Files\mainline\SRC_2014\Metin2Client\UserInterface\AccountConnector.cpp
; File C:\Program Files (x86)\Microsoft Visual Studio\2019\Community\VC\Tools\MSVC\14.28.29333\include\xstring
; File D:\Metin2 Server Files\mainline\SRC_2014\Metin2Client\UserInterface\AccountConnector.cpp
; File C:\Program Files (x86)\Microsoft Visual Studio\2019\Community\VC\Tools\MSVC\14.28.29333\include\xstring
; File D:\Metin2 Server Files\mainline\SRC_2014\Metin2Client\UserInterface\AccountConnector.cpp
; File C:\Program Files (x86)\Microsoft Visual Studio\2019\Community\VC\Tools\MSVC\14.28.29333\include\xstring
; File D:\Metin2 Server Files\mainline\SRC_2014\Metin2Client\UserInterface\AccountConnector.cpp
; File C:\Program Files (x86)\Microsoft Visual Studio\2019\Community\VC\Tools\MSVC\14.28.29333\include\xstring
; File D:\Metin2 Server Files\mainline\SRC_2014\Metin2Client\UserInterface\AccountConnector.cpp
;	COMDAT ??0CAccountConnector@@QAE@XZ
_TEXT	SEGMENT
_this$ = -16						; size = 4
__$EHRec$ = -12						; size = 12
??0CAccountConnector@@QAE@XZ PROC			; CAccountConnector::CAccountConnector, COMDAT
; _this$ = ecx

; 731  : {

  00000	55		 push	 ebp
  00001	8b ec		 mov	 ebp, esp
  00003	6a ff		 push	 -1
  00005	68 00 00 00 00	 push	 __ehhandler$??0CAccountConnector@@QAE@XZ
  0000a	64 a1 00 00 00
	00		 mov	 eax, DWORD PTR fs:0
  00010	50		 push	 eax
  00011	51		 push	 ecx
  00012	56		 push	 esi
  00013	a1 00 00 00 00	 mov	 eax, DWORD PTR ___security_cookie
  00018	33 c5		 xor	 eax, ebp
  0001a	50		 push	 eax
  0001b	8d 45 f4	 lea	 eax, DWORD PTR __$EHRec$[ebp]
  0001e	64 a3 00 00 00
	00		 mov	 DWORD PTR fs:0, eax
  00024	8b f1		 mov	 esi, ecx
  00026	89 75 f0	 mov	 DWORD PTR _this$[ebp], esi
  00029	e8 00 00 00 00	 call	 ??0CNetworkStream@@QAE@XZ ; CNetworkStream::CNetworkStream
; File D:\Metin2 Server Files\mainline\SRC_2014\Metin2Client\eterBase\Singleton.h

; 15   : 		ms_singleton = (T*) ((int) this + offset);

  0002e	8b c6		 mov	 eax, esi
  00030	c7 46 7c 00 00
	00 00		 mov	 DWORD PTR [esi+124], OFFSET ??_7?$CSingleton@VCAccountConnector@@@@6B@
; File D:\Metin2 Server Files\mainline\SRC_2014\Metin2Client\UserInterface\AccountConnector.cpp

; 731  : {

  00037	c7 45 fc 00 00
	00 00		 mov	 DWORD PTR __$EHRec$[ebp+8], 0
; File D:\Metin2 Server Files\mainline\SRC_2014\Metin2Client\eterBase\Singleton.h

; 15   : 		ms_singleton = (T*) ((int) this + offset);

  0003e	a3 00 00 00 00	 mov	 DWORD PTR ?ms_singleton@?$CSingleton@VCAccountConnector@@@@0PAVCAccountConnector@@A, eax ; CSingleton<CAccountConnector>::ms_singleton
; File D:\Metin2 Server Files\mainline\SRC_2014\Metin2Client\UserInterface\AccountConnector.cpp

; 731  : {

  00043	c7 06 00 00 00
	00		 mov	 DWORD PTR [esi], OFFSET ??_7CAccountConnector@@6BCNetworkStream@@@
  00049	c7 46 7c 00 00
	00 00		 mov	 DWORD PTR [esi+124], OFFSET ??_7CAccountConnector@@6B?$CSingleton@VCAccountConnector@@@@@
; File C:\Program Files (x86)\Microsoft Visual Studio\2019\Community\VC\Tools\MSVC\14.28.29333\include\xstring

; 4377 :         _Mypair._Myval2._Mysize = 0;

  00050	c7 86 94 00 00
	00 00 00 00 00	 mov	 DWORD PTR [esi+148], 0

; 4378 :         _Mypair._Myval2._Myres  = _BUF_SIZE - 1;

  0005a	c7 86 98 00 00
	00 0f 00 00 00	 mov	 DWORD PTR [esi+152], 15	; 0000000fH

; 4379 :         // the _Traits::assign is last so the codegen doesn't think the char write can alias this
; 4380 :         _Traits::assign(_Mypair._Myval2._Bx._Buf[0], _Elem());

  00064	c6 86 84 00 00
	00 00		 mov	 BYTE PTR [esi+132], 0

; 4377 :         _Mypair._Myval2._Mysize = 0;

  0006b	c7 86 ac 00 00
	00 00 00 00 00	 mov	 DWORD PTR [esi+172], 0

; 4378 :         _Mypair._Myval2._Myres  = _BUF_SIZE - 1;

  00075	c7 86 b0 00 00
	00 0f 00 00 00	 mov	 DWORD PTR [esi+176], 15	; 0000000fH

; 4379 :         // the _Traits::assign is last so the codegen doesn't think the char write can alias this
; 4380 :         _Traits::assign(_Mypair._Myval2._Bx._Buf[0], _Elem());

  0007f	c6 86 9c 00 00
	00 00		 mov	 BYTE PTR [esi+156], 0
; File D:\Metin2 Server Files\mainline\SRC_2014\Metin2Client\UserInterface\AccountConnector.cpp

; 731  : {

  00086	8d 86 b4 00 00
	00		 lea	 eax, DWORD PTR [esi+180]
; File C:\Program Files (x86)\Microsoft Visual Studio\2019\Community\VC\Tools\MSVC\14.28.29333\include\xstring

; 4377 :         _Mypair._Myval2._Mysize = 0;

  0008c	c7 40 10 00 00
	00 00		 mov	 DWORD PTR [eax+16], 0

; 4378 :         _Mypair._Myval2._Myres  = _BUF_SIZE - 1;

  00093	c7 40 14 0f 00
	00 00		 mov	 DWORD PTR [eax+20], 15	; 0000000fH

; 4379 :         // the _Traits::assign is last so the codegen doesn't think the char write can alias this
; 4380 :         _Traits::assign(_Mypair._Myval2._Bx._Buf[0], _Elem());

  0009a	c6 00 00	 mov	 BYTE PTR [eax], 0
; File D:\Metin2 Server Files\mainline\SRC_2014\Metin2Client\UserInterface\AccountConnector.cpp

; 732  : 	m_poHandler = NULL;

  0009d	c7 86 d4 00 00
	00 00 00 00 00	 mov	 DWORD PTR [esi+212], 0
; File C:\Program Files (x86)\Microsoft Visual Studio\2019\Community\VC\Tools\MSVC\14.28.29333\include\xstring

; 2209 :         value_type* _Result = _Bx._Buf;

  000a7	8b c8		 mov	 ecx, eax

; 2227 :         return _BUF_SIZE <= _Myres;

  000a9	83 78 14 10	 cmp	 DWORD PTR [eax+20], 16	; 00000010H
; File D:\Metin2 Server Files\mainline\SRC_2014\Metin2Client\UserInterface\AccountConnector.cpp

; 731  : {

  000ad	c6 45 fc 04	 mov	 BYTE PTR __$EHRec$[ebp+8], 4
; File C:\Program Files (x86)\Microsoft Visual Studio\2019\Community\VC\Tools\MSVC\14.28.29333\include\xstring

; 2210 :         if (_Large_string_engaged()) {

  000b1	72 02		 jb	 SHORT $LN55@CAccountCo

; 2211 :             _Result = _Unfancy(_Bx._Ptr);

  000b3	8b 08		 mov	 ecx, DWORD PTR [eax]
$LN55@CAccountCo:

; 3046 :             _Mypair._Myval2._Mysize = _Count;

  000b5	c7 40 10 00 00
	00 00		 mov	 DWORD PTR [eax+16], 0

; 3047 :             _Traits::move(_Old_ptr, _Ptr, _Count);
; 3048 :             _Traits::assign(_Old_ptr[_Count], _Elem());

  000bc	c6 01 00	 mov	 BYTE PTR [ecx], 0
; File D:\Metin2 Server Files\mainline\SRC_2014\Metin2Client\UserInterface\AccountConnector.cpp

; 736  : 	SetLoginInfo("", "");

  000bf	8b ce		 mov	 ecx, esi
  000c1	68 00 00 00 00	 push	 OFFSET ??_C@_00CNPNBAHC@@
  000c6	68 00 00 00 00	 push	 OFFSET ??_C@_00CNPNBAHC@@
  000cb	c7 86 cc 00 00
	00 00 00 00 00	 mov	 DWORD PTR [esi+204], 0
  000d5	e8 00 00 00 00	 call	 ?SetLoginInfo@CAccountConnector@@QAEXPBD0@Z ; CAccountConnector::SetLoginInfo

; 737  : 	SetRecvBufferSize(1024 * 128);

  000da	68 00 00 02 00	 push	 131072			; 00020000H
  000df	8b ce		 mov	 ecx, esi
  000e1	e8 00 00 00 00	 call	 ?SetRecvBufferSize@CNetworkStream@@QAEXH@Z ; CNetworkStream::SetRecvBufferSize

; 738  : 	SetSendBufferSize(2048);

  000e6	68 00 08 00 00	 push	 2048			; 00000800H
  000eb	8b ce		 mov	 ecx, esi
  000ed	e8 00 00 00 00	 call	 ?SetSendBufferSize@CNetworkStream@@QAEXH@Z ; CNetworkStream::SetSendBufferSize

; 739  : 	__Inialize();

  000f2	8b ce		 mov	 ecx, esi
  000f4	e8 00 00 00 00	 call	 ?__Inialize@CAccountConnector@@IAEXXZ ; CAccountConnector::__Inialize

; 740  : }

  000f9	8b c6		 mov	 eax, esi
  000fb	8b 4d f4	 mov	 ecx, DWORD PTR __$EHRec$[ebp]
  000fe	64 89 0d 00 00
	00 00		 mov	 DWORD PTR fs:0, ecx
  00105	59		 pop	 ecx
  00106	5e		 pop	 esi
  00107	8b e5		 mov	 esp, ebp
  00109	5d		 pop	 ebp
  0010a	c3		 ret	 0
_TEXT	ENDS
;	COMDAT text$x
text$x	SEGMENT
__unwindfunclet$??0CAccountConnector@@QAE@XZ$0:
  00000	8b 4d f0	 mov	 ecx, DWORD PTR _this$[ebp]
  00003	e9 00 00 00 00	 jmp	 ??1CNetworkStream@@UAE@XZ ; CNetworkStream::~CNetworkStream
__unwindfunclet$??0CAccountConnector@@QAE@XZ$1:
  00008	8b 4d f0	 mov	 ecx, DWORD PTR _this$[ebp]
  0000b	83 c1 7c	 add	 ecx, 124		; 0000007cH
  0000e	e9 00 00 00 00	 jmp	 ??1?$CSingleton@VCAccountConnector@@@@UAE@XZ ; CSingleton<CAccountConnector>::~CSingleton<CAccountConnector>
__unwindfunclet$??0CAccountConnector@@QAE@XZ$2:
  00013	8b 4d f0	 mov	 ecx, DWORD PTR _this$[ebp]
  00016	81 c1 84 00 00
	00		 add	 ecx, 132		; 00000084H
  0001c	e9 00 00 00 00	 jmp	 ??1?$basic_string@DU?$char_traits@D@std@@V?$allocator@D@2@@std@@QAE@XZ ; std::basic_string<char,std::char_traits<char>,std::allocator<char> >::~basic_string<char,std::char_traits<char>,std::allocator<char> >
__unwindfunclet$??0CAccountConnector@@QAE@XZ$3:
  00021	8b 4d f0	 mov	 ecx, DWORD PTR _this$[ebp]
  00024	81 c1 9c 00 00
	00		 add	 ecx, 156		; 0000009cH
  0002a	e9 00 00 00 00	 jmp	 ??1?$basic_string@DU?$char_traits@D@std@@V?$allocator@D@2@@std@@QAE@XZ ; std::basic_string<char,std::char_traits<char>,std::allocator<char> >::~basic_string<char,std::char_traits<char>,std::allocator<char> >
__unwindfunclet$??0CAccountConnector@@QAE@XZ$4:
  0002f	8b 4d f0	 mov	 ecx, DWORD PTR _this$[ebp]
  00032	81 c1 b4 00 00
	00		 add	 ecx, 180		; 000000b4H
  00038	e9 00 00 00 00	 jmp	 ??1?$basic_string@DU?$char_traits@D@std@@V?$allocator@D@2@@std@@QAE@XZ ; std::basic_string<char,std::char_traits<char>,std::allocator<char> >::~basic_string<char,std::char_traits<char>,std::allocator<char> >
  0003d	cc		 int	 3
  0003e	cc		 int	 3
  0003f	cc		 int	 3
  00040	cc		 int	 3
  00041	cc		 int	 3
__ehhandler$??0CAccountConnector@@QAE@XZ:
  00042	90		 npad	 1
  00043	90		 npad	 1
  00044	8b 54 24 08	 mov	 edx, DWORD PTR [esp+8]
  00048	8d 42 0c	 lea	 eax, DWORD PTR [edx+12]
  0004b	8b 4a f4	 mov	 ecx, DWORD PTR [edx-12]
  0004e	33 c8		 xor	 ecx, eax
  00050	e8 00 00 00 00	 call	 @__security_check_cookie@4
  00055	b8 00 00 00 00	 mov	 eax, OFFSET __ehfuncinfo$??0CAccountConnector@@QAE@XZ
  0005a	e9 00 00 00 00	 jmp	 ___CxxFrameHandler3
text$x	ENDS
??0CAccountConnector@@QAE@XZ ENDP			; CAccountConnector::CAccountConnector
; Function compile flags: /Ogtp
; File D:\Metin2 Server Files\mainline\SRC_2014\Metin2Client\eterBase\Singleton.h
;	COMDAT ??_G?$CSingleton@VCAccountConnector@@@@UAEPAXI@Z
_TEXT	SEGMENT
___flags$ = 8						; size = 4
??_G?$CSingleton@VCAccountConnector@@@@UAEPAXI@Z PROC	; CSingleton<CAccountConnector>::`scalar deleting destructor', COMDAT
; _this$ = ecx
  00000	55		 push	 ebp
  00001	8b ec		 mov	 ebp, esp
  00003	f6 45 08 01	 test	 BYTE PTR ___flags$[ebp], 1

; 19   : 	{ 

  00007	56		 push	 esi
  00008	8b f1		 mov	 esi, ecx
  0000a	c7 06 00 00 00
	00		 mov	 DWORD PTR [esi], OFFSET ??_7?$CSingleton@VCAccountConnector@@@@6B@

; 20   : 		assert(ms_singleton);
; 21   : 		ms_singleton = 0; 

  00010	c7 05 00 00 00
	00 00 00 00 00	 mov	 DWORD PTR ?ms_singleton@?$CSingleton@VCAccountConnector@@@@0PAVCAccountConnector@@A, 0 ; CSingleton<CAccountConnector>::ms_singleton
  0001a	74 0b		 je	 SHORT $LN6@scalar
  0001c	6a 04		 push	 4
  0001e	56		 push	 esi
  0001f	e8 00 00 00 00	 call	 ??3@YAXPAXI@Z		; operator delete
  00024	83 c4 08	 add	 esp, 8
$LN6@scalar:
  00027	8b c6		 mov	 eax, esi
  00029	5e		 pop	 esi
  0002a	5d		 pop	 ebp
  0002b	c2 04 00	 ret	 4
??_G?$CSingleton@VCAccountConnector@@@@UAEPAXI@Z ENDP	; CSingleton<CAccountConnector>::`scalar deleting destructor'
_TEXT	ENDS
; Function compile flags: /Ogtp
; File D:\Metin2 Server Files\mainline\SRC_2014\Metin2Client\eterBase\Singleton.h
;	COMDAT ??1?$CSingleton@VCAccountConnector@@@@UAE@XZ
_TEXT	SEGMENT
??1?$CSingleton@VCAccountConnector@@@@UAE@XZ PROC	; CSingleton<CAccountConnector>::~CSingleton<CAccountConnector>, COMDAT
; _this$ = ecx

; 19   : 	{ 

  00000	c7 01 00 00 00
	00		 mov	 DWORD PTR [ecx], OFFSET ??_7?$CSingleton@VCAccountConnector@@@@6B@

; 20   : 		assert(ms_singleton);
; 21   : 		ms_singleton = 0; 

  00006	c7 05 00 00 00
	00 00 00 00 00	 mov	 DWORD PTR ?ms_singleton@?$CSingleton@VCAccountConnector@@@@0PAVCAccountConnector@@A, 0 ; CSingleton<CAccountConnector>::ms_singleton

; 22   : 	}

  00010	c3		 ret	 0
??1?$CSingleton@VCAccountConnector@@@@UAE@XZ ENDP	; CSingleton<CAccountConnector>::~CSingleton<CAccountConnector>
_TEXT	ENDS
; Function compile flags: /Ogtp
; File C:\Program Files (x86)\Microsoft Visual Studio\2019\Community\VC\Tools\MSVC\14.28.29333\include\xmemory
;	COMDAT ??$_Allocate_manually_vector_aligned@U_Default_allocate_traits@std@@@std@@YAPAXI@Z
_TEXT	SEGMENT
__Bytes$ = 8						; size = 4
??$_Allocate_manually_vector_aligned@U_Default_allocate_traits@std@@@std@@YAPAXI@Z PROC ; std::_Allocate_manually_vector_aligned<std::_Default_allocate_traits>, COMDAT

; 113  : __declspec(allocator) void* _Allocate_manually_vector_aligned(const size_t _Bytes) {

  00000	55		 push	 ebp
  00001	8b ec		 mov	 ebp, esp

; 114  :     // allocate _Bytes manually aligned to at least _Big_allocation_alignment
; 115  :     const size_t _Block_size = _Non_user_size + _Bytes;

  00003	8b 45 08	 mov	 eax, DWORD PTR __Bytes$[ebp]
  00006	8d 48 23	 lea	 ecx, DWORD PTR [eax+35]

; 116  :     if (_Block_size <= _Bytes) {

  00009	3b c8		 cmp	 ecx, eax
  0000b	0f 86 00 00 00
	00		 jbe	 ?_Throw_bad_array_new_length@std@@YAXXZ ; std::_Throw_bad_array_new_length

; 77   :         return ::operator new(_Bytes);

  00011	51		 push	 ecx
  00012	e8 00 00 00 00	 call	 ??2@YAPAXI@Z		; operator new

; 117  :         _Throw_bad_array_new_length(); // add overflow
; 118  :     }
; 119  : 
; 120  :     const uintptr_t _Ptr_container = reinterpret_cast<uintptr_t>(_Traits::_Allocate(_Block_size));

  00017	8b c8		 mov	 ecx, eax

; 77   :         return ::operator new(_Bytes);

  00019	83 c4 04	 add	 esp, 4

; 121  :     _STL_VERIFY(_Ptr_container != 0, "invalid argument"); // validate even in release since we're doing p[-1]

  0001c	85 c9		 test	 ecx, ecx
  0001e	74 0b		 je	 SHORT $LN7@Allocate_m

; 122  :     void* const _Ptr = reinterpret_cast<void*>((_Ptr_container + _Non_user_size) & ~(_Big_allocation_alignment - 1));

  00020	8d 41 23	 lea	 eax, DWORD PTR [ecx+35]
  00023	83 e0 e0	 and	 eax, -32		; ffffffe0H

; 123  :     static_cast<uintptr_t*>(_Ptr)[-1] = _Ptr_container;

  00026	89 48 fc	 mov	 DWORD PTR [eax-4], ecx

; 124  : 
; 125  : #ifdef _DEBUG
; 126  :     static_cast<uintptr_t*>(_Ptr)[-2] = _Big_allocation_sentinel;
; 127  : #endif // _DEBUG
; 128  :     return _Ptr;
; 129  : }

  00029	5d		 pop	 ebp
  0002a	c3		 ret	 0
$LN7@Allocate_m:

; 121  :     _STL_VERIFY(_Ptr_container != 0, "invalid argument"); // validate even in release since we're doing p[-1]

  0002b	e9 00 00 00 00	 jmp	 __invalid_parameter_noinfo_noreturn
??$_Allocate_manually_vector_aligned@U_Default_allocate_traits@std@@@std@@YAPAXI@Z ENDP ; std::_Allocate_manually_vector_aligned<std::_Default_allocate_traits>
_TEXT	ENDS
; Function compile flags: /Ogtp
; File C:\Program Files (x86)\Microsoft Visual Studio\2019\Community\VC\Tools\MSVC\14.28.29333\include\xmemory
;	COMDAT ??$_Allocate@$07U_Default_allocate_traits@std@@$0A@@std@@YAPAXI@Z
_TEXT	SEGMENT
__Bytes$ = 8						; size = 4
??$_Allocate@$07U_Default_allocate_traits@std@@$0A@@std@@YAPAXI@Z PROC ; std::_Allocate<8,std::_Default_allocate_traits,0>, COMDAT

; 197  : __declspec(allocator) void* _Allocate(const size_t _Bytes) {

  00000	55		 push	 ebp
  00001	8b ec		 mov	 ebp, esp

; 198  :     // allocate _Bytes when !_HAS_ALIGNED_NEW || _Align <= __STDCPP_DEFAULT_NEW_ALIGNMENT__
; 199  : #if defined(_M_IX86) || defined(_M_X64)
; 200  :     if (_Bytes >= _Big_allocation_threshold) { // boost the alignment of big allocations to help autovectorization

  00003	8b 45 08	 mov	 eax, DWORD PTR __Bytes$[ebp]
  00006	3d 00 10 00 00	 cmp	 eax, 4096		; 00001000H
  0000b	72 09		 jb	 SHORT $LN2@Allocate

; 201  :         return _Allocate_manually_vector_aligned<_Traits>(_Bytes);

  0000d	89 45 08	 mov	 DWORD PTR __Bytes$[ebp], eax

; 210  : }

  00010	5d		 pop	 ebp

; 201  :         return _Allocate_manually_vector_aligned<_Traits>(_Bytes);

  00011	e9 00 00 00 00	 jmp	 ??$_Allocate_manually_vector_aligned@U_Default_allocate_traits@std@@@std@@YAPAXI@Z ; std::_Allocate_manually_vector_aligned<std::_Default_allocate_traits>
$LN2@Allocate:

; 202  :     }
; 203  : #endif // defined(_M_IX86) || defined(_M_X64)
; 204  : 
; 205  :     if (_Bytes != 0) {

  00016	85 c0		 test	 eax, eax
  00018	74 09		 je	 SHORT $LN3@Allocate

; 77   :         return ::operator new(_Bytes);

  0001a	89 45 08	 mov	 DWORD PTR __Bytes$[ebp], eax

; 210  : }

  0001d	5d		 pop	 ebp

; 77   :         return ::operator new(_Bytes);

  0001e	e9 00 00 00 00	 jmp	 ??2@YAPAXI@Z		; operator new
$LN3@Allocate:

; 206  :         return _Traits::_Allocate(_Bytes);
; 207  :     }
; 208  : 
; 209  :     return nullptr;

  00023	33 c0		 xor	 eax, eax

; 210  : }

  00025	5d		 pop	 ebp
  00026	c3		 ret	 0
??$_Allocate@$07U_Default_allocate_traits@std@@$0A@@std@@YAPAXI@Z ENDP ; std::_Allocate<8,std::_Default_allocate_traits,0>
_TEXT	ENDS
; Function compile flags: /Ogtp
; File C:\Program Files (x86)\Microsoft Visual Studio\2019\Community\VC\Tools\MSVC\14.28.29333\include\xmemory
;	COMDAT ??$_Deallocate@$07$0A@@std@@YAXPAXI@Z
_TEXT	SEGMENT
__Ptr$ = 8						; size = 4
__Bytes$ = 12						; size = 4
??$_Deallocate@$07$0A@@std@@YAXPAXI@Z PROC		; std::_Deallocate<8,0>, COMDAT

; 213  : void _Deallocate(void* _Ptr, size_t _Bytes) noexcept {

  00000	55		 push	 ebp
  00001	8b ec		 mov	 ebp, esp

; 214  :     // deallocate storage allocated by _Allocate when !_HAS_ALIGNED_NEW || _Align <= __STDCPP_DEFAULT_NEW_ALIGNMENT__
; 215  : #if defined(_M_IX86) || defined(_M_X64)
; 216  :     if (_Bytes >= _Big_allocation_threshold) { // boost the alignment of big allocations to help autovectorization

  00003	8b 4d 0c	 mov	 ecx, DWORD PTR __Bytes$[ebp]
  00006	81 f9 00 10 00
	00		 cmp	 ecx, 4096		; 00001000H
  0000c	72 18		 jb	 SHORT $LN15@Deallocate

; 137  :     const uintptr_t _Ptr_container   = _Ptr_user[-1];

  0000e	8b 45 08	 mov	 eax, DWORD PTR __Ptr$[ebp]
  00011	83 c1 23	 add	 ecx, 35			; 00000023H
  00014	8b 50 fc	 mov	 edx, DWORD PTR [eax-4]

; 138  : 
; 139  :     // If the following asserts, it likely means that we are performing
; 140  :     // an aligned delete on memory coming from an unaligned allocation.
; 141  :     _STL_ASSERT(_Ptr_user[-2] == _Big_allocation_sentinel, "invalid argument");
; 142  : 
; 143  :     // Extra paranoia on aligned allocation/deallocation; ensure _Ptr_container is
; 144  :     // in range [_Min_back_shift, _Non_user_size]
; 145  : #ifdef _DEBUG
; 146  :     constexpr uintptr_t _Min_back_shift = 2 * sizeof(void*);
; 147  : #else // ^^^ _DEBUG ^^^ // vvv !_DEBUG vvv
; 148  :     constexpr uintptr_t _Min_back_shift = sizeof(void*);
; 149  : #endif // _DEBUG
; 150  :     const uintptr_t _Back_shift = reinterpret_cast<uintptr_t>(_Ptr) - _Ptr_container;

  00017	2b c2		 sub	 eax, edx

; 151  :     _STL_VERIFY(_Back_shift >= _Min_back_shift && _Back_shift <= _Non_user_size, "invalid argument");

  00019	83 c0 fc	 add	 eax, -4			; fffffffcH
  0001c	83 f8 1f	 cmp	 eax, 31			; 0000001fH
  0001f	76 08		 jbe	 SHORT $LN13@Deallocate
  00021	e9 00 00 00 00	 jmp	 __invalid_parameter_noinfo_noreturn
$LN15@Deallocate:

; 214  :     // deallocate storage allocated by _Allocate when !_HAS_ALIGNED_NEW || _Align <= __STDCPP_DEFAULT_NEW_ALIGNMENT__
; 215  : #if defined(_M_IX86) || defined(_M_X64)
; 216  :     if (_Bytes >= _Big_allocation_threshold) { // boost the alignment of big allocations to help autovectorization

  00026	8b 55 08	 mov	 edx, DWORD PTR __Ptr$[ebp]
$LN13@Deallocate:

; 217  :         _Adjust_manually_vector_aligned(_Ptr, _Bytes);
; 218  :     }
; 219  : #endif // defined(_M_IX86) || defined(_M_X64)
; 220  : 
; 221  :     ::operator delete(_Ptr, _Bytes);

  00029	89 4d 0c	 mov	 DWORD PTR __Bytes$[ebp], ecx
  0002c	89 55 08	 mov	 DWORD PTR __Ptr$[ebp], edx

; 222  : }

  0002f	5d		 pop	 ebp

; 217  :         _Adjust_manually_vector_aligned(_Ptr, _Bytes);
; 218  :     }
; 219  : #endif // defined(_M_IX86) || defined(_M_X64)
; 220  : 
; 221  :     ::operator delete(_Ptr, _Bytes);

  00030	e9 00 00 00 00	 jmp	 ??3@YAXPAXI@Z		; operator delete
??$_Deallocate@$07$0A@@std@@YAXPAXI@Z ENDP		; std::_Deallocate<8,0>
_TEXT	ENDS
; Function compile flags: /Ogtp
; File C:\Program Files (x86)\Microsoft Visual Studio\2019\Community\VC\Tools\MSVC\14.28.29333\include\xmemory
;	COMDAT ??$_Construct_in_place@PADABQAD@std@@YAXAAPADABQAD@Z
_TEXT	SEGMENT
__Obj$ = 8						; size = 4
_<_Args_0>$ = 12					; size = 4
??$_Construct_in_place@PADABQAD@std@@YAXAAPADABQAD@Z PROC ; std::_Construct_in_place<char *,char * const &>, COMDAT

; 228  : void _Construct_in_place(_Ty& _Obj, _Types&&... _Args) noexcept(is_nothrow_constructible_v<_Ty, _Types...>) {

  00000	55		 push	 ebp
  00001	8b ec		 mov	 ebp, esp

; 229  :     ::new (const_cast<void*>(static_cast<const volatile void*>(_STD addressof(_Obj))))

  00003	8b 45 0c	 mov	 eax, DWORD PTR _<_Args_0>$[ebp]
  00006	8b 08		 mov	 ecx, DWORD PTR [eax]
  00008	8b 45 08	 mov	 eax, DWORD PTR __Obj$[ebp]
  0000b	89 08		 mov	 DWORD PTR [eax], ecx

; 230  :         _Ty(_STD forward<_Types>(_Args)...);
; 231  : }

  0000d	5d		 pop	 ebp
  0000e	c3		 ret	 0
??$_Construct_in_place@PADABQAD@std@@YAXAAPADABQAD@Z ENDP ; std::_Construct_in_place<char *,char * const &>
_TEXT	ENDS
; Function compile flags: /Ogtp
; File C:\Program Files (x86)\Microsoft Visual Studio\2019\Community\VC\Tools\MSVC\14.28.29333\include\xmemory
;	COMDAT ??$_Destroy_in_place@PAD@std@@YAXAAPAD@Z
_TEXT	SEGMENT
__Obj$ = 8						; size = 4
??$_Destroy_in_place@PAD@std@@YAXAAPAD@Z PROC		; std::_Destroy_in_place<char *>, COMDAT

; 271  : #if _HAS_IF_CONSTEXPR
; 272  :     if constexpr (is_array_v<_Ty>) {
; 273  :         _Destroy_range(_Obj, _Obj + extent_v<_Ty>);
; 274  :     } else
; 275  : #endif // _HAS_IF_CONSTEXPR
; 276  :     {
; 277  :         _Obj.~_Ty();
; 278  :     }
; 279  : }

  00000	c2 00 00	 ret	 0
??$_Destroy_in_place@PAD@std@@YAXAAPAD@Z ENDP		; std::_Destroy_in_place<char *>
_TEXT	ENDS
; Function compile flags: /Ogtp
; File C:\Program Files (x86)\Microsoft Visual Studio\2019\Community\VC\Tools\MSVC\14.28.29333\include\xstring
; File C:\Program Files (x86)\Microsoft Visual Studio\2019\Community\VC\Tools\MSVC\14.28.29333\include\utility
; File C:\Program Files (x86)\Microsoft Visual Studio\2019\Community\VC\Tools\MSVC\14.28.29333\include\xstring
; File C:\Program Files (x86)\Microsoft Visual Studio\2019\Community\VC\Tools\MSVC\14.28.29333\include\xmemory
; File C:\Program Files (x86)\Microsoft Visual Studio\2019\Community\VC\Tools\MSVC\14.28.29333\include\xstring
; File C:\Program Files (x86)\Microsoft Visual Studio\2019\Community\VC\Tools\MSVC\14.28.29333\include\xmemory
; File C:\Program Files (x86)\Microsoft Visual Studio\2019\Community\VC\Tools\MSVC\14.28.29333\include\xstring
;	COMDAT ?assign@?$basic_string@DU?$char_traits@D@std@@V?$allocator@D@2@@std@@QAEAAV12@QBDI@Z
_TEXT	SEGMENT
__Old$1$ = -4						; size = 4
__Ptr$ = 8						; size = 4
__New_ptr$1 = 12					; size = 4
__Count$ = 12						; size = 4
?assign@?$basic_string@DU?$char_traits@D@std@@V?$allocator@D@2@@std@@QAEAAV12@QBDI@Z PROC ; std::basic_string<char,std::char_traits<char>,std::allocator<char> >::assign, COMDAT
; _this$ = ecx

; 3042 :     basic_string& assign(_In_reads_(_Count) const _Elem* const _Ptr, _CRT_GUARDOVERFLOW const size_type _Count) {

  00000	55		 push	 ebp
  00001	8b ec		 mov	 ebp, esp
  00003	51		 push	 ecx
  00004	53		 push	 ebx
  00005	56		 push	 esi
  00006	8b f1		 mov	 esi, ecx
  00008	57		 push	 edi

; 3043 :         // assign [_Ptr, _Ptr + _Count)
; 3044 :         if (_Count <= _Mypair._Myval2._Myres) {

  00009	8b 7d 0c	 mov	 edi, DWORD PTR __Count$[ebp]
  0000c	8b 4e 14	 mov	 ecx, DWORD PTR [esi+20]
  0000f	89 4d fc	 mov	 DWORD PTR __Old$1$[ebp], ecx
  00012	3b f9		 cmp	 edi, ecx
  00014	77 28		 ja	 SHORT $LN2@assign

; 2209 :         value_type* _Result = _Bx._Buf;

  00016	8b de		 mov	 ebx, esi

; 2227 :         return _BUF_SIZE <= _Myres;

  00018	83 f9 10	 cmp	 ecx, 16			; 00000010H

; 2210 :         if (_Large_string_engaged()) {

  0001b	72 02		 jb	 SHORT $LN5@assign

; 2211 :             _Result = _Unfancy(_Bx._Ptr);

  0001d	8b 1e		 mov	 ebx, DWORD PTR [esi]
$LN5@assign:

; 119  :         _CSTD memmove(_First1, _First2, _Count * sizeof(_Elem));

  0001f	57		 push	 edi
  00020	ff 75 08	 push	 DWORD PTR __Ptr$[ebp]

; 3045 :             _Elem* const _Old_ptr   = _Mypair._Myval2._Myptr();
; 3046 :             _Mypair._Myval2._Mysize = _Count;

  00023	89 7e 10	 mov	 DWORD PTR [esi+16], edi

; 119  :         _CSTD memmove(_First1, _First2, _Count * sizeof(_Elem));

  00026	53		 push	 ebx
  00027	e8 00 00 00 00	 call	 _memmove
  0002c	83 c4 0c	 add	 esp, 12			; 0000000cH

; 3047 :             _Traits::move(_Old_ptr, _Ptr, _Count);
; 3048 :             _Traits::assign(_Old_ptr[_Count], _Elem());

  0002f	c6 04 3b 00	 mov	 BYTE PTR [ebx+edi], 0

; 3059 :     }

  00033	8b c6		 mov	 eax, esi
  00035	5f		 pop	 edi
  00036	5e		 pop	 esi
  00037	5b		 pop	 ebx
  00038	8b e5		 mov	 esp, ebp
  0003a	5d		 pop	 ebp
  0003b	c2 08 00	 ret	 8
$LN2@assign:

; 4305 :         if (_New_size > max_size()) {

  0003e	81 ff ff ff ff
	7f		 cmp	 edi, 2147483647		; 7fffffffH
  00044	0f 87 91 00 00
	00		 ja	 $LN36@assign

; 4285 :         const size_type _Masked = _Requested | _ALLOC_MASK;

  0004a	8b df		 mov	 ebx, edi
  0004c	83 cb 0f	 or	 ebx, 15			; 0000000fH
  0004f	81 fb ff ff ff
	7f		 cmp	 ebx, 2147483647		; 7fffffffH

; 4286 :         if (_Masked > _Max) { // the mask overflows, settle for max_size()

  00055	76 07		 jbe	 SHORT $LN19@assign

; 4287 :             return _Max;

  00057	bb ff ff ff 7f	 mov	 ebx, 2147483647		; 7fffffffH
  0005c	eb 1e		 jmp	 SHORT $LN18@assign
$LN19@assign:

; 4288 :         }
; 4289 : 
; 4290 :         if (_Old > _Max - _Old / 2) { // similarly, geometric overflows

  0005e	8b d1		 mov	 edx, ecx
  00060	b8 ff ff ff 7f	 mov	 eax, 2147483647		; 7fffffffH
  00065	d1 ea		 shr	 edx, 1
  00067	2b c2		 sub	 eax, edx
  00069	3b c8		 cmp	 ecx, eax
  0006b	76 07		 jbe	 SHORT $LN20@assign

; 4291 :             return _Max;

  0006d	bb ff ff ff 7f	 mov	 ebx, 2147483647		; 7fffffffH
  00072	eb 08		 jmp	 SHORT $LN18@assign
$LN20@assign:

; 4292 :         }
; 4293 : 
; 4294 :         return (_STD max)(_Masked, _Old + _Old / 2);

  00074	8d 04 0a	 lea	 eax, DWORD PTR [edx+ecx]
; File C:\Program Files (x86)\Microsoft Visual Studio\2019\Community\VC\Tools\MSVC\14.28.29333\include\utility

; 44   :     return _Left < _Right ? _Right : _Left;

  00077	3b d8		 cmp	 ebx, eax
  00079	0f 42 d8	 cmovb	 ebx, eax
$LN18@assign:
; File C:\Program Files (x86)\Microsoft Visual Studio\2019\Community\VC\Tools\MSVC\14.28.29333\include\xstring

; 4312 :         const pointer _New_ptr        = _Al.allocate(_New_capacity + 1); // throws

  0007c	8d 43 01	 lea	 eax, DWORD PTR [ebx+1]
; File C:\Program Files (x86)\Microsoft Visual Studio\2019\Community\VC\Tools\MSVC\14.28.29333\include\xmemory

; 814  :         return static_cast<_Ty*>(_Allocate<_New_alignof<_Ty>>(_Get_size_of_n<sizeof(_Ty)>(_Count)));

  0007f	50		 push	 eax
  00080	e8 00 00 00 00	 call	 ??$_Allocate@$07U_Default_allocate_traits@std@@$0A@@std@@YAPAXI@Z ; std::_Allocate<8,std::_Default_allocate_traits,0>
; File C:\Program Files (x86)\Microsoft Visual Studio\2019\Community\VC\Tools\MSVC\14.28.29333\include\xstring

; 62   :         _CSTD memcpy(_First1, _First2, _Count * sizeof(_Elem));

  00085	57		 push	 edi
  00086	ff 75 08	 push	 DWORD PTR __Ptr$[ebp]

; 4312 :         const pointer _New_ptr        = _Al.allocate(_New_capacity + 1); // throws

  00089	89 45 0c	 mov	 DWORD PTR __New_ptr$1[ebp], eax

; 62   :         _CSTD memcpy(_First1, _First2, _Count * sizeof(_Elem));

  0008c	50		 push	 eax

; 4314 :         _Mypair._Myval2._Mysize = _New_size;

  0008d	89 7e 10	 mov	 DWORD PTR [esi+16], edi

; 4315 :         _Mypair._Myval2._Myres  = _New_capacity;

  00090	89 5e 14	 mov	 DWORD PTR [esi+20], ebx

; 62   :         _CSTD memcpy(_First1, _First2, _Count * sizeof(_Elem));

  00093	e8 00 00 00 00	 call	 _memcpy

; 3056 :                 _Traits::assign(_New_ptr[_Count], _Elem());

  00098	8b 5d 0c	 mov	 ebx, DWORD PTR __New_ptr$1[ebp]

; 62   :         _CSTD memcpy(_First1, _First2, _Count * sizeof(_Elem));

  0009b	83 c4 10	 add	 esp, 16			; 00000010H

; 4317 :         if (_BUF_SIZE <= _Old_capacity) {

  0009e	8b 45 fc	 mov	 eax, DWORD PTR __Old$1$[ebp]

; 3056 :                 _Traits::assign(_New_ptr[_Count], _Elem());

  000a1	c6 04 3b 00	 mov	 BYTE PTR [ebx+edi], 0

; 4317 :         if (_BUF_SIZE <= _Old_capacity) {

  000a5	83 f8 10	 cmp	 eax, 16			; 00000010H
  000a8	72 19		 jb	 SHORT $LN13@assign

; 4318 :             _Al.deallocate(_Mypair._Myval2._Bx._Ptr, _Old_capacity + 1);

  000aa	40		 inc	 eax
; File C:\Program Files (x86)\Microsoft Visual Studio\2019\Community\VC\Tools\MSVC\14.28.29333\include\xmemory

; 810  :         _Deallocate<_New_alignof<_Ty>>(_Ptr, sizeof(_Ty) * _Count);

  000ab	50		 push	 eax
  000ac	ff 36		 push	 DWORD PTR [esi]
  000ae	e8 00 00 00 00	 call	 ??$_Deallocate@$07$0A@@std@@YAXPAXI@Z ; std::_Deallocate<8,0>
; File C:\Program Files (x86)\Microsoft Visual Studio\2019\Community\VC\Tools\MSVC\14.28.29333\include\xstring

; 3059 :     }

  000b3	83 c4 08	 add	 esp, 8

; 4319 :             _Mypair._Myval2._Bx._Ptr = _New_ptr;

  000b6	89 1e		 mov	 DWORD PTR [esi], ebx

; 3059 :     }

  000b8	8b c6		 mov	 eax, esi
  000ba	5f		 pop	 edi
  000bb	5e		 pop	 esi
  000bc	5b		 pop	 ebx
  000bd	8b e5		 mov	 esp, ebp
  000bf	5d		 pop	 ebp
  000c0	c2 08 00	 ret	 8
$LN13@assign:

; 4321 :             _Construct_in_place(_Mypair._Myval2._Bx._Ptr, _New_ptr);

  000c3	8d 45 0c	 lea	 eax, DWORD PTR __New_ptr$1[ebp]
  000c6	50		 push	 eax
  000c7	56		 push	 esi
  000c8	e8 00 00 00 00	 call	 ??$_Construct_in_place@PADABQAD@std@@YAXAAPADABQAD@Z ; std::_Construct_in_place<char *,char * const &>

; 3059 :     }

  000cd	83 c4 08	 add	 esp, 8
  000d0	8b c6		 mov	 eax, esi
  000d2	5f		 pop	 edi
  000d3	5e		 pop	 esi
  000d4	5b		 pop	 ebx
  000d5	8b e5		 mov	 esp, ebp
  000d7	5d		 pop	 ebp
  000d8	c2 08 00	 ret	 8
$LN36@assign:

; 4306 :             _Xlen_string(); // result too long

  000db	e8 00 00 00 00	 call	 ?_Xlen_string@std@@YAXXZ ; std::_Xlen_string
$LN33@assign:
  000e0	cc		 int	 3
?assign@?$basic_string@DU?$char_traits@D@std@@V?$allocator@D@2@@std@@QAEAAV12@QBDI@Z ENDP ; std::basic_string<char,std::char_traits<char>,std::allocator<char> >::assign
_TEXT	ENDS
; Function compile flags: /Ogtp
; File C:\Program Files (x86)\Microsoft Visual Studio\2019\Community\VC\Tools\MSVC\14.28.29333\include\xstring
; File C:\Program Files (x86)\Microsoft Visual Studio\2019\Community\VC\Tools\MSVC\14.28.29333\include\xmemory
; File C:\Program Files (x86)\Microsoft Visual Studio\2019\Community\VC\Tools\MSVC\14.28.29333\include\xstring
;	COMDAT ??1?$basic_string@DU?$char_traits@D@std@@V?$allocator@D@2@@std@@QAE@XZ
_TEXT	SEGMENT
??1?$basic_string@DU?$char_traits@D@std@@V?$allocator@D@2@@std@@QAE@XZ PROC ; std::basic_string<char,std::char_traits<char>,std::allocator<char> >::~basic_string<char,std::char_traits<char>,std::allocator<char> >, COMDAT
; _this$ = ecx

; 2800 :     ~basic_string() noexcept {

  00000	56		 push	 esi
  00001	8b f1		 mov	 esi, ecx

; 2227 :         return _BUF_SIZE <= _Myres;

  00003	8b 46 14	 mov	 eax, DWORD PTR [esi+20]
  00006	83 f8 10	 cmp	 eax, 16			; 00000010H

; 4385 :         if (_Mypair._Myval2._Large_string_engaged()) {

  00009	72 0c		 jb	 SHORT $LN4@basic_stri

; 4386 :             const pointer _Ptr = _Mypair._Myval2._Bx._Ptr;
; 4387 :             auto& _Al          = _Getal();
; 4388 :             _Destroy_in_place(_Mypair._Myval2._Bx._Ptr);
; 4389 :             _Al.deallocate(_Ptr, _Mypair._Myval2._Myres + 1);

  0000b	40		 inc	 eax
; File C:\Program Files (x86)\Microsoft Visual Studio\2019\Community\VC\Tools\MSVC\14.28.29333\include\xmemory

; 810  :         _Deallocate<_New_alignof<_Ty>>(_Ptr, sizeof(_Ty) * _Count);

  0000c	50		 push	 eax
  0000d	ff 36		 push	 DWORD PTR [esi]
  0000f	e8 00 00 00 00	 call	 ??$_Deallocate@$07$0A@@std@@YAXPAXI@Z ; std::_Deallocate<8,0>
  00014	83 c4 08	 add	 esp, 8
$LN4@basic_stri:
; File C:\Program Files (x86)\Microsoft Visual Studio\2019\Community\VC\Tools\MSVC\14.28.29333\include\xstring

; 4392 :         _Mypair._Myval2._Mysize = 0;

  00017	c7 46 10 00 00
	00 00		 mov	 DWORD PTR [esi+16], 0

; 4393 :         _Mypair._Myval2._Myres  = _BUF_SIZE - 1;

  0001e	c7 46 14 0f 00
	00 00		 mov	 DWORD PTR [esi+20], 15	; 0000000fH

; 4394 :         // the _Traits::assign is last so the codegen doesn't think the char write can alias this
; 4395 :         _Traits::assign(_Mypair._Myval2._Bx._Buf[0], _Elem());

  00025	c6 06 00	 mov	 BYTE PTR [esi], 0
  00028	5e		 pop	 esi

; 2801 :         _Tidy_deallocate();
; 2802 : #if _ITERATOR_DEBUG_LEVEL != 0
; 2803 :         auto&& _Alproxy          = _GET_PROXY_ALLOCATOR(_Alty, _Getal());
; 2804 :         const auto _To_delete    = _Mypair._Myval2._Myproxy;
; 2805 :         _Mypair._Myval2._Myproxy = nullptr;
; 2806 :         _Delete_plain_internal(_Alproxy, _To_delete);
; 2807 : #endif // _ITERATOR_DEBUG_LEVEL != 0
; 2808 :     }

  00029	c3		 ret	 0
??1?$basic_string@DU?$char_traits@D@std@@V?$allocator@D@2@@std@@QAE@XZ ENDP ; std::basic_string<char,std::char_traits<char>,std::allocator<char> >::~basic_string<char,std::char_traits<char>,std::allocator<char> >
_TEXT	ENDS
; Function compile flags: /Ogtp
; File C:\Program Files (x86)\Microsoft Visual Studio\2019\Community\VC\Tools\MSVC\14.28.29333\include\xstring
;	COMDAT ?_Xlen_string@std@@YAXXZ
_TEXT	SEGMENT
?_Xlen_string@std@@YAXXZ PROC				; std::_Xlen_string, COMDAT

; 2275 :     _Xlength_error("string too long");

  00000	68 00 00 00 00	 push	 OFFSET ??_C@_0BA@JFNIOLAK@string?5too?5long@
  00005	e8 00 00 00 00	 call	 ?_Xlength_error@std@@YAXPBD@Z ; std::_Xlength_error
$LN3@Xlen_strin:
  0000a	cc		 int	 3
?_Xlen_string@std@@YAXXZ ENDP				; std::_Xlen_string
_TEXT	ENDS
; Function compile flags: /Ogtp
; File C:\Program Files (x86)\Microsoft Visual Studio\2019\Community\VC\Tools\MSVC\14.28.29333\include\exception
;	COMDAT ?_Throw_bad_array_new_length@std@@YAXXZ
_TEXT	SEGMENT
$T1 = -12						; size = 12
?_Throw_bad_array_new_length@std@@YAXXZ PROC		; std::_Throw_bad_array_new_length, COMDAT

; 320  : [[noreturn]] inline void _Throw_bad_array_new_length() {

  00000	55		 push	 ebp
  00001	8b ec		 mov	 ebp, esp
  00003	83 ec 0c	 sub	 esp, 12			; 0000000cH

; 321  :     _THROW(bad_array_new_length{});

  00006	8d 4d f4	 lea	 ecx, DWORD PTR $T1[ebp]
  00009	e8 00 00 00 00	 call	 ??0bad_array_new_length@std@@QAE@XZ ; std::bad_array_new_length::bad_array_new_length
  0000e	68 00 00 00 00	 push	 OFFSET __TI3?AVbad_array_new_length@std@@
  00013	8d 45 f4	 lea	 eax, DWORD PTR $T1[ebp]
  00016	50		 push	 eax
  00017	e8 00 00 00 00	 call	 __CxxThrowException@8
$LN3@Throw_bad_:
  0001c	cc		 int	 3
?_Throw_bad_array_new_length@std@@YAXXZ ENDP		; std::_Throw_bad_array_new_length
_TEXT	ENDS
; Function compile flags: /Ogtp
; File C:\Program Files (x86)\Microsoft Visual Studio\2019\Community\VC\Tools\MSVC\14.28.29333\include\vcruntime_exception.h
;	COMDAT ??_Gbad_array_new_length@std@@UAEPAXI@Z
_TEXT	SEGMENT
___flags$ = 8						; size = 4
??_Gbad_array_new_length@std@@UAEPAXI@Z PROC		; std::bad_array_new_length::`scalar deleting destructor', COMDAT
; _this$ = ecx
  00000	55		 push	 ebp
  00001	8b ec		 mov	 ebp, esp

; 89   :     {

  00003	56		 push	 esi
  00004	8b f1		 mov	 esi, ecx

; 90   :         __std_exception_destroy(&_Data);

  00006	8d 46 04	 lea	 eax, DWORD PTR [esi+4]
  00009	c7 06 00 00 00
	00		 mov	 DWORD PTR [esi], OFFSET ??_7exception@std@@6B@
  0000f	50		 push	 eax
  00010	e8 00 00 00 00	 call	 ___std_exception_destroy
  00015	83 c4 04	 add	 esp, 4
  00018	f6 45 08 01	 test	 BYTE PTR ___flags$[ebp], 1
  0001c	74 0b		 je	 SHORT $LN12@scalar
  0001e	6a 0c		 push	 12			; 0000000cH
  00020	56		 push	 esi
  00021	e8 00 00 00 00	 call	 ??3@YAXPAXI@Z		; operator delete
  00026	83 c4 08	 add	 esp, 8
$LN12@scalar:
  00029	8b c6		 mov	 eax, esi
  0002b	5e		 pop	 esi
  0002c	5d		 pop	 ebp
  0002d	c2 04 00	 ret	 4
??_Gbad_array_new_length@std@@UAEPAXI@Z ENDP		; std::bad_array_new_length::`scalar deleting destructor'
_TEXT	ENDS
; Function compile flags: /Ogtp
; File C:\Program Files (x86)\Microsoft Visual Studio\2019\Community\VC\Tools\MSVC\14.28.29333\include\vcruntime_exception.h
;	COMDAT ??0bad_array_new_length@std@@QAE@ABV01@@Z
_TEXT	SEGMENT
___that$ = 8						; size = 4
??0bad_array_new_length@std@@QAE@ABV01@@Z PROC		; std::bad_array_new_length::bad_array_new_length, COMDAT
; _this$ = ecx
  00000	55		 push	 ebp
  00001	8b ec		 mov	 ebp, esp

; 72   :     {

  00003	56		 push	 esi
  00004	8b f1		 mov	 esi, ecx
  00006	0f 57 c0	 xorps	 xmm0, xmm0

; 71   :         : _Data()

  00009	8d 46 04	 lea	 eax, DWORD PTR [esi+4]

; 73   :         __std_exception_copy(&_Other._Data, &_Data);

  0000c	50		 push	 eax
  0000d	c7 06 00 00 00
	00		 mov	 DWORD PTR [esi], OFFSET ??_7exception@std@@6B@
  00013	66 0f d6 00	 movq	 QWORD PTR [eax], xmm0
  00017	8b 45 08	 mov	 eax, DWORD PTR ___that$[ebp]
  0001a	83 c0 04	 add	 eax, 4
  0001d	50		 push	 eax
  0001e	e8 00 00 00 00	 call	 ___std_exception_copy
  00023	83 c4 08	 add	 esp, 8
  00026	c7 06 00 00 00
	00		 mov	 DWORD PTR [esi], OFFSET ??_7bad_array_new_length@std@@6B@
  0002c	8b c6		 mov	 eax, esi
  0002e	5e		 pop	 esi
  0002f	5d		 pop	 ebp
  00030	c2 04 00	 ret	 4
??0bad_array_new_length@std@@QAE@ABV01@@Z ENDP		; std::bad_array_new_length::bad_array_new_length
_TEXT	ENDS
; Function compile flags: /Ogtp
; File C:\Program Files (x86)\Microsoft Visual Studio\2019\Community\VC\Tools\MSVC\14.28.29333\include\vcruntime_exception.h
;	COMDAT ??1bad_array_new_length@std@@UAE@XZ
_TEXT	SEGMENT
??1bad_array_new_length@std@@UAE@XZ PROC		; std::bad_array_new_length::~bad_array_new_length, COMDAT
; _this$ = ecx

; 90   :         __std_exception_destroy(&_Data);

  00000	8d 41 04	 lea	 eax, DWORD PTR [ecx+4]
  00003	c7 01 00 00 00
	00		 mov	 DWORD PTR [ecx], OFFSET ??_7exception@std@@6B@
  00009	50		 push	 eax
  0000a	e8 00 00 00 00	 call	 ___std_exception_destroy
  0000f	59		 pop	 ecx
  00010	c3		 ret	 0
??1bad_array_new_length@std@@UAE@XZ ENDP		; std::bad_array_new_length::~bad_array_new_length
_TEXT	ENDS
; Function compile flags: /Ogtp
; File C:\Program Files (x86)\Microsoft Visual Studio\2019\Community\VC\Tools\MSVC\14.28.29333\include\vcruntime_exception.h
;	COMDAT ??0bad_array_new_length@std@@QAE@XZ
_TEXT	SEGMENT
??0bad_array_new_length@std@@QAE@XZ PROC		; std::bad_array_new_length::bad_array_new_length, COMDAT
; _this$ = ecx

; 141  :     {

  00000	0f 57 c0	 xorps	 xmm0, xmm0

; 142  :     }

  00003	8b c1		 mov	 eax, ecx

; 65   :         : _Data()

  00005	66 0f d6 41 04	 movq	 QWORD PTR [ecx+4], xmm0

; 66   :     {
; 67   :         _Data._What = _Message;

  0000a	c7 41 04 00 00
	00 00		 mov	 DWORD PTR [ecx+4], OFFSET ??_C@_0BF@KINCDENJ@bad?5array?5new?5length@

; 141  :     {

  00011	c7 01 00 00 00
	00		 mov	 DWORD PTR [ecx], OFFSET ??_7bad_array_new_length@std@@6B@

; 142  :     }

  00017	c3		 ret	 0
??0bad_array_new_length@std@@QAE@XZ ENDP		; std::bad_array_new_length::bad_array_new_length
_TEXT	ENDS
; Function compile flags: /Ogtp
; File C:\Program Files (x86)\Microsoft Visual Studio\2019\Community\VC\Tools\MSVC\14.28.29333\include\vcruntime_exception.h
;	COMDAT ??_Gbad_alloc@std@@UAEPAXI@Z
_TEXT	SEGMENT
___flags$ = 8						; size = 4
??_Gbad_alloc@std@@UAEPAXI@Z PROC			; std::bad_alloc::`scalar deleting destructor', COMDAT
; _this$ = ecx
  00000	55		 push	 ebp
  00001	8b ec		 mov	 ebp, esp

; 89   :     {

  00003	56		 push	 esi
  00004	8b f1		 mov	 esi, ecx

; 90   :         __std_exception_destroy(&_Data);

  00006	8d 46 04	 lea	 eax, DWORD PTR [esi+4]
  00009	c7 06 00 00 00
	00		 mov	 DWORD PTR [esi], OFFSET ??_7exception@std@@6B@
  0000f	50		 push	 eax
  00010	e8 00 00 00 00	 call	 ___std_exception_destroy
  00015	83 c4 04	 add	 esp, 4
  00018	f6 45 08 01	 test	 BYTE PTR ___flags$[ebp], 1
  0001c	74 0b		 je	 SHORT $LN9@scalar
  0001e	6a 0c		 push	 12			; 0000000cH
  00020	56		 push	 esi
  00021	e8 00 00 00 00	 call	 ??3@YAXPAXI@Z		; operator delete
  00026	83 c4 08	 add	 esp, 8
$LN9@scalar:
  00029	8b c6		 mov	 eax, esi
  0002b	5e		 pop	 esi
  0002c	5d		 pop	 ebp
  0002d	c2 04 00	 ret	 4
??_Gbad_alloc@std@@UAEPAXI@Z ENDP			; std::bad_alloc::`scalar deleting destructor'
_TEXT	ENDS
; Function compile flags: /Ogtp
; File C:\Program Files (x86)\Microsoft Visual Studio\2019\Community\VC\Tools\MSVC\14.28.29333\include\vcruntime_exception.h
;	COMDAT ??0bad_alloc@std@@QAE@ABV01@@Z
_TEXT	SEGMENT
___that$ = 8						; size = 4
??0bad_alloc@std@@QAE@ABV01@@Z PROC			; std::bad_alloc::bad_alloc, COMDAT
; _this$ = ecx
  00000	55		 push	 ebp
  00001	8b ec		 mov	 ebp, esp

; 72   :     {

  00003	56		 push	 esi
  00004	8b f1		 mov	 esi, ecx
  00006	0f 57 c0	 xorps	 xmm0, xmm0

; 71   :         : _Data()

  00009	8d 46 04	 lea	 eax, DWORD PTR [esi+4]

; 73   :         __std_exception_copy(&_Other._Data, &_Data);

  0000c	50		 push	 eax
  0000d	c7 06 00 00 00
	00		 mov	 DWORD PTR [esi], OFFSET ??_7exception@std@@6B@
  00013	66 0f d6 00	 movq	 QWORD PTR [eax], xmm0
  00017	8b 45 08	 mov	 eax, DWORD PTR ___that$[ebp]
  0001a	83 c0 04	 add	 eax, 4
  0001d	50		 push	 eax
  0001e	e8 00 00 00 00	 call	 ___std_exception_copy
  00023	83 c4 08	 add	 esp, 8
  00026	c7 06 00 00 00
	00		 mov	 DWORD PTR [esi], OFFSET ??_7bad_alloc@std@@6B@
  0002c	8b c6		 mov	 eax, esi
  0002e	5e		 pop	 esi
  0002f	5d		 pop	 ebp
  00030	c2 04 00	 ret	 4
??0bad_alloc@std@@QAE@ABV01@@Z ENDP			; std::bad_alloc::bad_alloc
_TEXT	ENDS
; Function compile flags: /Ogtp
; File C:\Program Files (x86)\Microsoft Visual Studio\2019\Community\VC\Tools\MSVC\14.28.29333\include\vcruntime_exception.h
;	COMDAT ??_Gexception@std@@UAEPAXI@Z
_TEXT	SEGMENT
___flags$ = 8						; size = 4
??_Gexception@std@@UAEPAXI@Z PROC			; std::exception::`scalar deleting destructor', COMDAT
; _this$ = ecx
  00000	55		 push	 ebp
  00001	8b ec		 mov	 ebp, esp

; 89   :     {

  00003	56		 push	 esi
  00004	8b f1		 mov	 esi, ecx

; 90   :         __std_exception_destroy(&_Data);

  00006	8d 46 04	 lea	 eax, DWORD PTR [esi+4]
  00009	c7 06 00 00 00
	00		 mov	 DWORD PTR [esi], OFFSET ??_7exception@std@@6B@
  0000f	50		 push	 eax
  00010	e8 00 00 00 00	 call	 ___std_exception_destroy
  00015	83 c4 04	 add	 esp, 4
  00018	f6 45 08 01	 test	 BYTE PTR ___flags$[ebp], 1
  0001c	74 0b		 je	 SHORT $LN6@scalar
  0001e	6a 0c		 push	 12			; 0000000cH
  00020	56		 push	 esi
  00021	e8 00 00 00 00	 call	 ??3@YAXPAXI@Z		; operator delete
  00026	83 c4 08	 add	 esp, 8
$LN6@scalar:
  00029	8b c6		 mov	 eax, esi
  0002b	5e		 pop	 esi
  0002c	5d		 pop	 ebp
  0002d	c2 04 00	 ret	 4
??_Gexception@std@@UAEPAXI@Z ENDP			; std::exception::`scalar deleting destructor'
_TEXT	ENDS
; Function compile flags: /Ogtp
; File C:\Program Files (x86)\Microsoft Visual Studio\2019\Community\VC\Tools\MSVC\14.28.29333\include\vcruntime_exception.h
;	COMDAT ?what@exception@std@@UBEPBDXZ
_TEXT	SEGMENT
?what@exception@std@@UBEPBDXZ PROC			; std::exception::what, COMDAT
; _this$ = ecx

; 95   :         return _Data._What ? _Data._What : "Unknown exception";

  00000	8b 49 04	 mov	 ecx, DWORD PTR [ecx+4]
  00003	b8 00 00 00 00	 mov	 eax, OFFSET ??_C@_0BC@EOODALEL@Unknown?5exception@
  00008	85 c9		 test	 ecx, ecx
  0000a	0f 45 c1	 cmovne	 eax, ecx

; 96   :     }

  0000d	c3		 ret	 0
?what@exception@std@@UBEPBDXZ ENDP			; std::exception::what
_TEXT	ENDS
; Function compile flags: /Ogtp
; File C:\Program Files (x86)\Microsoft Visual Studio\2019\Community\VC\Tools\MSVC\14.28.29333\include\vcruntime_exception.h
;	COMDAT ??1exception@std@@UAE@XZ
_TEXT	SEGMENT
??1exception@std@@UAE@XZ PROC				; std::exception::~exception, COMDAT
; _this$ = ecx

; 90   :         __std_exception_destroy(&_Data);

  00000	8d 41 04	 lea	 eax, DWORD PTR [ecx+4]
  00003	c7 01 00 00 00
	00		 mov	 DWORD PTR [ecx], OFFSET ??_7exception@std@@6B@
  00009	50		 push	 eax
  0000a	e8 00 00 00 00	 call	 ___std_exception_destroy
  0000f	59		 pop	 ecx

; 91   :     }

  00010	c3		 ret	 0
??1exception@std@@UAE@XZ ENDP				; std::exception::~exception
_TEXT	ENDS
; Function compile flags: /Ogtp
; File C:\Program Files (x86)\Microsoft Visual Studio\2019\Community\VC\Tools\MSVC\14.28.29333\include\vcruntime_exception.h
;	COMDAT ??0exception@std@@QAE@ABV01@@Z
_TEXT	SEGMENT
__Other$ = 8						; size = 4
??0exception@std@@QAE@ABV01@@Z PROC			; std::exception::exception, COMDAT
; _this$ = ecx

; 72   :     {

  00000	55		 push	 ebp
  00001	8b ec		 mov	 ebp, esp
  00003	56		 push	 esi
  00004	8b f1		 mov	 esi, ecx
  00006	0f 57 c0	 xorps	 xmm0, xmm0
  00009	8d 46 04	 lea	 eax, DWORD PTR [esi+4]

; 73   :         __std_exception_copy(&_Other._Data, &_Data);

  0000c	50		 push	 eax
  0000d	c7 06 00 00 00
	00		 mov	 DWORD PTR [esi], OFFSET ??_7exception@std@@6B@
  00013	66 0f d6 00	 movq	 QWORD PTR [eax], xmm0
  00017	8b 45 08	 mov	 eax, DWORD PTR __Other$[ebp]
  0001a	83 c0 04	 add	 eax, 4
  0001d	50		 push	 eax
  0001e	e8 00 00 00 00	 call	 ___std_exception_copy
  00023	83 c4 08	 add	 esp, 8

; 74   :     }

  00026	8b c6		 mov	 eax, esi
  00028	5e		 pop	 esi
  00029	5d		 pop	 ebp
  0002a	c2 04 00	 ret	 4
??0exception@std@@QAE@ABV01@@Z ENDP			; std::exception::exception
_TEXT	ENDS
; Function compile flags: /Ogtp
;	COMDAT ??_H@YGXPAXIIP6EPAX0@Z@Z
_TEXT	SEGMENT
___t$ = 8						; size = 4
___s$ = 12						; size = 4
___n$ = 16						; size = 4
___f$ = 20						; size = 4
??_H@YGXPAXIIP6EPAX0@Z@Z PROC				; `vector constructor iterator', COMDAT
  00000	55		 push	 ebp
  00001	8b ec		 mov	 ebp, esp
  00003	56		 push	 esi
  00004	8b 75 10	 mov	 esi, DWORD PTR ___n$[ebp]
  00007	85 f6		 test	 esi, esi
  00009	74 16		 je	 SHORT $LN6@vector
  0000b	53		 push	 ebx
  0000c	8b 5d 14	 mov	 ebx, DWORD PTR ___f$[ebp]
  0000f	57		 push	 edi
  00010	8b 7d 08	 mov	 edi, DWORD PTR ___t$[ebp]
$LL2@vector:
  00013	8b cf		 mov	 ecx, edi
  00015	ff d3		 call	 ebx
  00017	03 7d 0c	 add	 edi, DWORD PTR ___s$[ebp]
  0001a	83 ee 01	 sub	 esi, 1
  0001d	75 f4		 jne	 SHORT $LL2@vector
  0001f	5f		 pop	 edi
  00020	5b		 pop	 ebx
$LN6@vector:
  00021	5e		 pop	 esi
  00022	5d		 pop	 ebp
  00023	c2 10 00	 ret	 16			; 00000010H
??_H@YGXPAXIIP6EPAX0@Z@Z ENDP				; `vector constructor iterator'
_TEXT	ENDS
END
