; Listing generated by Microsoft (R) Optimizing Compiler Version 19.28.29335.0 

	TITLE	D:\Metin2 Server Files\mainline\SRC_2014\Metin2Client\UserInterface\CameraProcedure.cpp
	.686P
	.XMM
	include listing.inc
	.model	flat

INCLUDELIB LIBCMT
INCLUDELIB OLDNAMES

PUBLIC	?CAMERA_MIN_DISTANCE@CCamera@@0MA		; CCamera::CAMERA_MIN_DISTANCE
PUBLIC	?CAMERA_MAX_DISTANCE@CCamera@@0MA		; CCamera::CAMERA_MAX_DISTANCE
_DATA	SEGMENT
?CAMERA_MIN_DISTANCE@CCamera@@0MA DD 043480000r	; 200	; CCamera::CAMERA_MIN_DISTANCE
?CAMERA_MAX_DISTANCE@CCamera@@0MA DD 0451c4000r	; 2500	; CCamera::CAMERA_MAX_DISTANCE
_DATA	ENDS
PUBLIC	??0exception@std@@QAE@ABV01@@Z			; std::exception::exception
PUBLIC	??1exception@std@@UAE@XZ			; std::exception::~exception
PUBLIC	?what@exception@std@@UBEPBDXZ			; std::exception::what
PUBLIC	??_Gexception@std@@UAEPAXI@Z			; std::exception::`scalar deleting destructor'
PUBLIC	??0bad_alloc@std@@QAE@ABV01@@Z			; std::bad_alloc::bad_alloc
PUBLIC	??_Gbad_alloc@std@@UAEPAXI@Z			; std::bad_alloc::`scalar deleting destructor'
PUBLIC	??0bad_array_new_length@std@@QAE@XZ		; std::bad_array_new_length::bad_array_new_length
PUBLIC	??1bad_array_new_length@std@@UAE@XZ		; std::bad_array_new_length::~bad_array_new_length
PUBLIC	??0bad_array_new_length@std@@QAE@ABV01@@Z	; std::bad_array_new_length::bad_array_new_length
PUBLIC	??_Gbad_array_new_length@std@@UAEPAXI@Z		; std::bad_array_new_length::`scalar deleting destructor'
PUBLIC	?_Throw_bad_array_new_length@std@@YAXXZ		; std::_Throw_bad_array_new_length
PUBLIC	??1SpherePackCallback@@UAE@XZ			; SpherePackCallback::~SpherePackCallback
PUBLIC	?VisibilityCallback@SpherePackCallback@@UAEXABVFrustum@@PAVSpherePack@@W4ViewState@@@Z ; SpherePackCallback::VisibilityCallback
PUBLIC	?RayTraceCallback@SpherePackCallback@@UAEXABVVector3d@@0M0PAVSpherePack@@@Z ; SpherePackCallback::RayTraceCallback
PUBLIC	?RangeTestCallback@SpherePackCallback@@UAEXABVVector3d@@MPAVSpherePack@@W4ViewState@@@Z ; SpherePackCallback::RangeTestCallback
PUBLIC	?PointTest2dCallback@SpherePackCallback@@UAEXABVVector3d@@PAVSpherePack@@W4ViewState@@@Z ; SpherePackCallback::PointTest2dCallback
PUBLIC	??_GSpherePackCallback@@UAEPAXI@Z		; SpherePackCallback::`scalar deleting destructor'
PUBLIC	??1?$vector@UD3DXVECTOR3@@V?$allocator@UD3DXVECTOR3@@@std@@@std@@QAE@XZ ; std::vector<D3DXVECTOR3,std::allocator<D3DXVECTOR3> >::~vector<D3DXVECTOR3,std::allocator<D3DXVECTOR3> >
PUBLIC	?_Xlength@?$vector@UD3DXVECTOR3@@V?$allocator@UD3DXVECTOR3@@@std@@@std@@CAXXZ ; std::vector<D3DXVECTOR3,std::allocator<D3DXVECTOR3> >::_Xlength
PUBLIC	??$_Deallocate@$07$0A@@std@@YAXPAXI@Z		; std::_Deallocate<8,0>
PUBLIC	??$_Allocate@$07U_Default_allocate_traits@std@@$0A@@std@@YAPAXI@Z ; std::_Allocate<8,std::_Default_allocate_traits,0>
PUBLIC	??$_Allocate_manually_vector_aligned@U_Default_allocate_traits@std@@@std@@YAPAXI@Z ; std::_Allocate_manually_vector_aligned<std::_Default_allocate_traits>
PUBLIC	?Update@CCamera@@QAEXXZ				; CCamera::Update
PUBLIC	?ProcessTerrainCollision@CCamera@@AAEXXZ	; CCamera::ProcessTerrainCollision
PUBLIC	?ProcessBuildingCollision@CCamera@@AAEXXZ	; CCamera::ProcessBuildingCollision
PUBLIC	??$_Emplace_reallocate@ABUD3DXVECTOR3@@@?$vector@UD3DXVECTOR3@@V?$allocator@UD3DXVECTOR3@@@std@@@std@@QAEPAUD3DXVECTOR3@@QAU2@ABU2@@Z ; std::vector<D3DXVECTOR3,std::allocator<D3DXVECTOR3> >::_Emplace_reallocate<D3DXVECTOR3 const &>
PUBLIC	??$_Destroy_range@V?$allocator@UD3DXVECTOR3@@@std@@@std@@YAXPAUD3DXVECTOR3@@QAU1@AAV?$allocator@UD3DXVECTOR3@@@0@@Z ; std::_Destroy_range<std::allocator<D3DXVECTOR3> >
PUBLIC	??1?$RangeTester@UCameraCollisionChecker@@@@UAE@XZ ; RangeTester<CameraCollisionChecker>::~RangeTester<CameraCollisionChecker>
PUBLIC	?RayTraceCallback@?$RangeTester@UCameraCollisionChecker@@@@UAEXABVVector3d@@0M0PAVSpherePack@@@Z ; RangeTester<CameraCollisionChecker>::RayTraceCallback
PUBLIC	?VisibilityCallback@?$RangeTester@UCameraCollisionChecker@@@@UAEXABVFrustum@@PAVSpherePack@@W4ViewState@@@Z ; RangeTester<CameraCollisionChecker>::VisibilityCallback
PUBLIC	?RangeTestCallback@?$RangeTester@UCameraCollisionChecker@@@@UAEXABVVector3d@@MPAVSpherePack@@W4ViewState@@@Z ; RangeTester<CameraCollisionChecker>::RangeTestCallback
PUBLIC	?PointTest2dCallback@?$RangeTester@UCameraCollisionChecker@@@@UAEXABVVector3d@@PAVSpherePack@@W4ViewState@@@Z ; RangeTester<CameraCollisionChecker>::PointTest2dCallback
PUBLIC	??_G?$RangeTester@UCameraCollisionChecker@@@@UAEPAXI@Z ; RangeTester<CameraCollisionChecker>::`scalar deleting destructor'
PUBLIC	??$_Uninitialized_move@PAUD3DXVECTOR3@@V?$allocator@UD3DXVECTOR3@@@std@@@std@@YAPAUD3DXVECTOR3@@QAU1@0PAU1@AAV?$allocator@UD3DXVECTOR3@@@0@@Z ; std::_Uninitialized_move<D3DXVECTOR3 *,std::allocator<D3DXVECTOR3> >
PUBLIC	??_7exception@std@@6B@				; std::exception::`vftable'
PUBLIC	??_C@_0BC@EOODALEL@Unknown?5exception@		; `string'
PUBLIC	??_7bad_alloc@std@@6B@				; std::bad_alloc::`vftable'
PUBLIC	??_7bad_array_new_length@std@@6B@		; std::bad_array_new_length::`vftable'
PUBLIC	??_C@_0BF@KINCDENJ@bad?5array?5new?5length@	; `string'
PUBLIC	__TI3?AVbad_array_new_length@std@@
PUBLIC	__CTA3?AVbad_array_new_length@std@@
PUBLIC	??_R0?AVbad_array_new_length@std@@@8		; std::bad_array_new_length `RTTI Type Descriptor'
PUBLIC	__CT??_R0?AVbad_array_new_length@std@@@8??0bad_array_new_length@std@@QAE@ABV01@@Z12
PUBLIC	??_R0?AVbad_alloc@std@@@8			; std::bad_alloc `RTTI Type Descriptor'
PUBLIC	__CT??_R0?AVbad_alloc@std@@@8??0bad_alloc@std@@QAE@ABV01@@Z12
PUBLIC	??_R0?AVexception@std@@@8			; std::exception `RTTI Type Descriptor'
PUBLIC	__CT??_R0?AVexception@std@@@8??0exception@std@@QAE@ABV01@@Z12
PUBLIC	??_7SpherePackCallback@@6B@			; SpherePackCallback::`vftable'
PUBLIC	?ms_singleton@?$CSingleton@VCCullingManager@@@@0PAVCCullingManager@@A ; CSingleton<CCullingManager>::ms_singleton
PUBLIC	??_C@_0BA@FOIKENOD@vector?5too?5long@		; `string'
PUBLIC	??_R4exception@std@@6B@				; std::exception::`RTTI Complete Object Locator'
PUBLIC	??_R3exception@std@@8				; std::exception::`RTTI Class Hierarchy Descriptor'
PUBLIC	??_R2exception@std@@8				; std::exception::`RTTI Base Class Array'
PUBLIC	??_R1A@?0A@EA@exception@std@@8			; std::exception::`RTTI Base Class Descriptor at (0,-1,0,64)'
PUBLIC	??_R4bad_alloc@std@@6B@				; std::bad_alloc::`RTTI Complete Object Locator'
PUBLIC	??_R3bad_alloc@std@@8				; std::bad_alloc::`RTTI Class Hierarchy Descriptor'
PUBLIC	??_R2bad_alloc@std@@8				; std::bad_alloc::`RTTI Base Class Array'
PUBLIC	??_R1A@?0A@EA@bad_alloc@std@@8			; std::bad_alloc::`RTTI Base Class Descriptor at (0,-1,0,64)'
PUBLIC	??_R4bad_array_new_length@std@@6B@		; std::bad_array_new_length::`RTTI Complete Object Locator'
PUBLIC	??_R3bad_array_new_length@std@@8		; std::bad_array_new_length::`RTTI Class Hierarchy Descriptor'
PUBLIC	??_R2bad_array_new_length@std@@8		; std::bad_array_new_length::`RTTI Base Class Array'
PUBLIC	??_R1A@?0A@EA@bad_array_new_length@std@@8	; std::bad_array_new_length::`RTTI Base Class Descriptor at (0,-1,0,64)'
PUBLIC	??_R4SpherePackCallback@@6B@			; SpherePackCallback::`RTTI Complete Object Locator'
PUBLIC	??_R0?AVSpherePackCallback@@@8			; SpherePackCallback `RTTI Type Descriptor'
PUBLIC	??_R3SpherePackCallback@@8			; SpherePackCallback::`RTTI Class Hierarchy Descriptor'
PUBLIC	??_R2SpherePackCallback@@8			; SpherePackCallback::`RTTI Base Class Array'
PUBLIC	??_R1A@?0A@EA@SpherePackCallback@@8		; SpherePackCallback::`RTTI Base Class Descriptor at (0,-1,0,64)'
PUBLIC	?ms_singleton@?$CSingleton@VCPythonBackground@@@@0PAVCPythonBackground@@A ; CSingleton<CPythonBackground>::ms_singleton
PUBLIC	??_7?$RangeTester@UCameraCollisionChecker@@@@6B@ ; RangeTester<CameraCollisionChecker>::`vftable'
PUBLIC	??_R4?$RangeTester@UCameraCollisionChecker@@@@6B@ ; RangeTester<CameraCollisionChecker>::`RTTI Complete Object Locator'
PUBLIC	??_R0?AU?$RangeTester@UCameraCollisionChecker@@@@@8 ; RangeTester<CameraCollisionChecker> `RTTI Type Descriptor'
PUBLIC	??_R3?$RangeTester@UCameraCollisionChecker@@@@8	; RangeTester<CameraCollisionChecker>::`RTTI Class Hierarchy Descriptor'
PUBLIC	??_R2?$RangeTester@UCameraCollisionChecker@@@@8	; RangeTester<CameraCollisionChecker>::`RTTI Base Class Array'
PUBLIC	??_R1A@?0A@EA@?$RangeTester@UCameraCollisionChecker@@@@8 ; RangeTester<CameraCollisionChecker>::`RTTI Base Class Descriptor at (0,-1,0,64)'
PUBLIC	__real@00000000
PUBLIC	__real@3f000000
PUBLIC	__real@3f800000
PUBLIC	__real@40000000
PUBLIC	__real@40400000
PUBLIC	__real@40800000
PUBLIC	__real@42480000
PUBLIC	__real@42c80000
PUBLIC	__xmm@7fffffff7fffffff7fffffff7fffffff
EXTRN	??2@YAPAXI@Z:PROC				; operator new
EXTRN	??3@YAXPAXI@Z:PROC				; operator delete
EXTRN	__invalid_parameter_noinfo_noreturn:PROC
EXTRN	___std_exception_copy:PROC
EXTRN	___std_exception_destroy:PROC
EXTRN	??_Eexception@std@@UAEPAXI@Z:PROC		; std::exception::`vector deleting destructor'
EXTRN	??_Ebad_alloc@std@@UAEPAXI@Z:PROC		; std::bad_alloc::`vector deleting destructor'
EXTRN	??_Ebad_array_new_length@std@@UAEPAXI@Z:PROC	; std::bad_array_new_length::`vector deleting destructor'
EXTRN	?_Xlength_error@std@@YAXPBD@Z:PROC		; std::_Xlength_error
EXTRN	?fMIN@@YAMMM@Z:PROC				; fMIN
EXTRN	?fMAX@@YAMMM@Z:PROC				; fMAX
EXTRN	??_ESpherePackCallback@@UAEPAXI@Z:PROC		; SpherePackCallback::`vector deleting destructor'
EXTRN	?RangeTest@SpherePackFactory@@QAEXABVVector3d@@MPAVSpherePackCallback@@@Z:PROC ; SpherePackFactory::RangeTest
EXTRN	?GetPosition@CGraphicObjectInstance@@QBEABUD3DXVECTOR3@@XZ:PROC ; CGraphicObjectInstance::GetPosition
EXTRN	?CollisionDynamicSphere@CGraphicObjectInstance@@QBE_NABUCDynamicSphereInstance@@@Z:PROC ; CGraphicObjectInstance::CollisionDynamicSphere
EXTRN	?GetHeight@CMapManager@@QAEMMM@Z:PROC		; CMapManager::GetHeight
EXTRN	?GetPickingPointWithRayOnlyTerrain@CPythonBackground@@QAE_NABVCRay@@PAUD3DXVECTOR3@@@Z:PROC ; CPythonBackground::GetPickingPointWithRayOnlyTerrain
EXTRN	?SetCameraState@CCamera@@QAEXW4_eCameraState_@@@Z:PROC ; CCamera::SetCameraState
EXTRN	?SetEye@CCamera@@QAEXABUD3DXVECTOR3@@@Z:PROC	; CCamera::SetEye
EXTRN	?SetDistance@CCamera@@QAEXM@Z:PROC		; CCamera::SetDistance
EXTRN	?RotateEyeAroundTarget@CCamera@@QAEXMM@Z:PROC	; CCamera::RotateEyeAroundTarget
EXTRN	?SetTargetHeight@CCamera@@QAEXM@Z:PROC		; CCamera::SetTargetHeight
EXTRN	??_E?$RangeTester@UCameraCollisionChecker@@@@UAEPAXI@Z:PROC ; RangeTester<CameraCollisionChecker>::`vector deleting destructor'
EXTRN	@__security_check_cookie@4:PROC
EXTRN	__CxxThrowException@8:PROC
EXTRN	___CxxFrameHandler3:PROC
EXTRN	__libm_sse2_sqrt_precise:PROC
EXTRN	_floor:PROC
EXTRN	??_7type_info@@6B@:QWORD			; type_info::`vftable'
EXTRN	___security_cookie:DWORD
EXTRN	__fltused:DWORD
;	COMDAT ?ms_singleton@?$CSingleton@VCCullingManager@@@@0PAVCCullingManager@@A
_BSS	SEGMENT
?ms_singleton@?$CSingleton@VCCullingManager@@@@0PAVCCullingManager@@A DD 01H DUP (?) ; CSingleton<CCullingManager>::ms_singleton
_BSS	ENDS
;	COMDAT ?ms_singleton@?$CSingleton@VCPythonBackground@@@@0PAVCPythonBackground@@A
_BSS	SEGMENT
?ms_singleton@?$CSingleton@VCPythonBackground@@@@0PAVCPythonBackground@@A DD 01H DUP (?) ; CSingleton<CPythonBackground>::ms_singleton
_BSS	ENDS
;	COMDAT __xmm@7fffffff7fffffff7fffffff7fffffff
CONST	SEGMENT
__xmm@7fffffff7fffffff7fffffff7fffffff DB 0ffH, 0ffH, 0ffH, 07fH, 0ffH, 0ffH
	DB	0ffH, 07fH, 0ffH, 0ffH, 0ffH, 07fH, 0ffH, 0ffH, 0ffH, 07fH
CONST	ENDS
;	COMDAT __real@42c80000
CONST	SEGMENT
__real@42c80000 DD 042c80000r			; 100
CONST	ENDS
;	COMDAT __real@42480000
CONST	SEGMENT
__real@42480000 DD 042480000r			; 50
CONST	ENDS
;	COMDAT __real@40800000
CONST	SEGMENT
__real@40800000 DD 040800000r			; 4
CONST	ENDS
;	COMDAT __real@40400000
CONST	SEGMENT
__real@40400000 DD 040400000r			; 3
CONST	ENDS
;	COMDAT __real@40000000
CONST	SEGMENT
__real@40000000 DD 040000000r			; 2
CONST	ENDS
;	COMDAT __real@3f800000
CONST	SEGMENT
__real@3f800000 DD 03f800000r			; 1
CONST	ENDS
;	COMDAT __real@3f000000
CONST	SEGMENT
__real@3f000000 DD 03f000000r			; 0.5
CONST	ENDS
;	COMDAT __real@00000000
CONST	SEGMENT
__real@00000000 DD 000000000r			; 0
CONST	ENDS
;	COMDAT ??_R1A@?0A@EA@?$RangeTester@UCameraCollisionChecker@@@@8
rdata$r	SEGMENT
??_R1A@?0A@EA@?$RangeTester@UCameraCollisionChecker@@@@8 DD FLAT:??_R0?AU?$RangeTester@UCameraCollisionChecker@@@@@8 ; RangeTester<CameraCollisionChecker>::`RTTI Base Class Descriptor at (0,-1,0,64)'
	DD	01H
	DD	00H
	DD	0ffffffffH
	DD	00H
	DD	040H
	DD	FLAT:??_R3?$RangeTester@UCameraCollisionChecker@@@@8
rdata$r	ENDS
;	COMDAT ??_R2?$RangeTester@UCameraCollisionChecker@@@@8
rdata$r	SEGMENT
??_R2?$RangeTester@UCameraCollisionChecker@@@@8 DD FLAT:??_R1A@?0A@EA@?$RangeTester@UCameraCollisionChecker@@@@8 ; RangeTester<CameraCollisionChecker>::`RTTI Base Class Array'
	DD	FLAT:??_R1A@?0A@EA@SpherePackCallback@@8
rdata$r	ENDS
;	COMDAT ??_R3?$RangeTester@UCameraCollisionChecker@@@@8
rdata$r	SEGMENT
??_R3?$RangeTester@UCameraCollisionChecker@@@@8 DD 00H	; RangeTester<CameraCollisionChecker>::`RTTI Class Hierarchy Descriptor'
	DD	00H
	DD	02H
	DD	FLAT:??_R2?$RangeTester@UCameraCollisionChecker@@@@8
rdata$r	ENDS
;	COMDAT ??_R0?AU?$RangeTester@UCameraCollisionChecker@@@@@8
data$rs	SEGMENT
??_R0?AU?$RangeTester@UCameraCollisionChecker@@@@@8 DD FLAT:??_7type_info@@6B@ ; RangeTester<CameraCollisionChecker> `RTTI Type Descriptor'
	DD	00H
	DB	'.?AU?$RangeTester@UCameraCollisionChecker@@@@', 00H
data$rs	ENDS
;	COMDAT ??_R4?$RangeTester@UCameraCollisionChecker@@@@6B@
rdata$r	SEGMENT
??_R4?$RangeTester@UCameraCollisionChecker@@@@6B@ DD 00H ; RangeTester<CameraCollisionChecker>::`RTTI Complete Object Locator'
	DD	00H
	DD	00H
	DD	FLAT:??_R0?AU?$RangeTester@UCameraCollisionChecker@@@@@8
	DD	FLAT:??_R3?$RangeTester@UCameraCollisionChecker@@@@8
rdata$r	ENDS
;	COMDAT ??_7?$RangeTester@UCameraCollisionChecker@@@@6B@
CONST	SEGMENT
??_7?$RangeTester@UCameraCollisionChecker@@@@6B@ DD FLAT:??_R4?$RangeTester@UCameraCollisionChecker@@@@6B@ ; RangeTester<CameraCollisionChecker>::`vftable'
	DD	FLAT:??_E?$RangeTester@UCameraCollisionChecker@@@@UAEPAXI@Z
	DD	FLAT:?VisibilityCallback@?$RangeTester@UCameraCollisionChecker@@@@UAEXABVFrustum@@PAVSpherePack@@W4ViewState@@@Z
	DD	FLAT:?RayTraceCallback@?$RangeTester@UCameraCollisionChecker@@@@UAEXABVVector3d@@0M0PAVSpherePack@@@Z
	DD	FLAT:?RangeTestCallback@?$RangeTester@UCameraCollisionChecker@@@@UAEXABVVector3d@@MPAVSpherePack@@W4ViewState@@@Z
	DD	FLAT:?PointTest2dCallback@?$RangeTester@UCameraCollisionChecker@@@@UAEXABVVector3d@@PAVSpherePack@@W4ViewState@@@Z
CONST	ENDS
;	COMDAT ??_R1A@?0A@EA@SpherePackCallback@@8
rdata$r	SEGMENT
??_R1A@?0A@EA@SpherePackCallback@@8 DD FLAT:??_R0?AVSpherePackCallback@@@8 ; SpherePackCallback::`RTTI Base Class Descriptor at (0,-1,0,64)'
	DD	00H
	DD	00H
	DD	0ffffffffH
	DD	00H
	DD	040H
	DD	FLAT:??_R3SpherePackCallback@@8
rdata$r	ENDS
;	COMDAT ??_R2SpherePackCallback@@8
rdata$r	SEGMENT
??_R2SpherePackCallback@@8 DD FLAT:??_R1A@?0A@EA@SpherePackCallback@@8 ; SpherePackCallback::`RTTI Base Class Array'
rdata$r	ENDS
;	COMDAT ??_R3SpherePackCallback@@8
rdata$r	SEGMENT
??_R3SpherePackCallback@@8 DD 00H			; SpherePackCallback::`RTTI Class Hierarchy Descriptor'
	DD	00H
	DD	01H
	DD	FLAT:??_R2SpherePackCallback@@8
rdata$r	ENDS
;	COMDAT ??_R0?AVSpherePackCallback@@@8
data$rs	SEGMENT
??_R0?AVSpherePackCallback@@@8 DD FLAT:??_7type_info@@6B@ ; SpherePackCallback `RTTI Type Descriptor'
	DD	00H
	DB	'.?AVSpherePackCallback@@', 00H
data$rs	ENDS
;	COMDAT ??_R4SpherePackCallback@@6B@
rdata$r	SEGMENT
??_R4SpherePackCallback@@6B@ DD 00H			; SpherePackCallback::`RTTI Complete Object Locator'
	DD	00H
	DD	00H
	DD	FLAT:??_R0?AVSpherePackCallback@@@8
	DD	FLAT:??_R3SpherePackCallback@@8
rdata$r	ENDS
;	COMDAT ??_R1A@?0A@EA@bad_array_new_length@std@@8
rdata$r	SEGMENT
??_R1A@?0A@EA@bad_array_new_length@std@@8 DD FLAT:??_R0?AVbad_array_new_length@std@@@8 ; std::bad_array_new_length::`RTTI Base Class Descriptor at (0,-1,0,64)'
	DD	02H
	DD	00H
	DD	0ffffffffH
	DD	00H
	DD	040H
	DD	FLAT:??_R3bad_array_new_length@std@@8
rdata$r	ENDS
;	COMDAT ??_R2bad_array_new_length@std@@8
rdata$r	SEGMENT
??_R2bad_array_new_length@std@@8 DD FLAT:??_R1A@?0A@EA@bad_array_new_length@std@@8 ; std::bad_array_new_length::`RTTI Base Class Array'
	DD	FLAT:??_R1A@?0A@EA@bad_alloc@std@@8
	DD	FLAT:??_R1A@?0A@EA@exception@std@@8
rdata$r	ENDS
;	COMDAT ??_R3bad_array_new_length@std@@8
rdata$r	SEGMENT
??_R3bad_array_new_length@std@@8 DD 00H			; std::bad_array_new_length::`RTTI Class Hierarchy Descriptor'
	DD	00H
	DD	03H
	DD	FLAT:??_R2bad_array_new_length@std@@8
rdata$r	ENDS
;	COMDAT ??_R4bad_array_new_length@std@@6B@
rdata$r	SEGMENT
??_R4bad_array_new_length@std@@6B@ DD 00H		; std::bad_array_new_length::`RTTI Complete Object Locator'
	DD	00H
	DD	00H
	DD	FLAT:??_R0?AVbad_array_new_length@std@@@8
	DD	FLAT:??_R3bad_array_new_length@std@@8
rdata$r	ENDS
;	COMDAT ??_R1A@?0A@EA@bad_alloc@std@@8
rdata$r	SEGMENT
??_R1A@?0A@EA@bad_alloc@std@@8 DD FLAT:??_R0?AVbad_alloc@std@@@8 ; std::bad_alloc::`RTTI Base Class Descriptor at (0,-1,0,64)'
	DD	01H
	DD	00H
	DD	0ffffffffH
	DD	00H
	DD	040H
	DD	FLAT:??_R3bad_alloc@std@@8
rdata$r	ENDS
;	COMDAT ??_R2bad_alloc@std@@8
rdata$r	SEGMENT
??_R2bad_alloc@std@@8 DD FLAT:??_R1A@?0A@EA@bad_alloc@std@@8 ; std::bad_alloc::`RTTI Base Class Array'
	DD	FLAT:??_R1A@?0A@EA@exception@std@@8
rdata$r	ENDS
;	COMDAT ??_R3bad_alloc@std@@8
rdata$r	SEGMENT
??_R3bad_alloc@std@@8 DD 00H				; std::bad_alloc::`RTTI Class Hierarchy Descriptor'
	DD	00H
	DD	02H
	DD	FLAT:??_R2bad_alloc@std@@8
rdata$r	ENDS
;	COMDAT ??_R4bad_alloc@std@@6B@
rdata$r	SEGMENT
??_R4bad_alloc@std@@6B@ DD 00H				; std::bad_alloc::`RTTI Complete Object Locator'
	DD	00H
	DD	00H
	DD	FLAT:??_R0?AVbad_alloc@std@@@8
	DD	FLAT:??_R3bad_alloc@std@@8
rdata$r	ENDS
;	COMDAT ??_R1A@?0A@EA@exception@std@@8
rdata$r	SEGMENT
??_R1A@?0A@EA@exception@std@@8 DD FLAT:??_R0?AVexception@std@@@8 ; std::exception::`RTTI Base Class Descriptor at (0,-1,0,64)'
	DD	00H
	DD	00H
	DD	0ffffffffH
	DD	00H
	DD	040H
	DD	FLAT:??_R3exception@std@@8
rdata$r	ENDS
;	COMDAT ??_R2exception@std@@8
rdata$r	SEGMENT
??_R2exception@std@@8 DD FLAT:??_R1A@?0A@EA@exception@std@@8 ; std::exception::`RTTI Base Class Array'
rdata$r	ENDS
;	COMDAT ??_R3exception@std@@8
rdata$r	SEGMENT
??_R3exception@std@@8 DD 00H				; std::exception::`RTTI Class Hierarchy Descriptor'
	DD	00H
	DD	01H
	DD	FLAT:??_R2exception@std@@8
rdata$r	ENDS
;	COMDAT ??_R4exception@std@@6B@
rdata$r	SEGMENT
??_R4exception@std@@6B@ DD 00H				; std::exception::`RTTI Complete Object Locator'
	DD	00H
	DD	00H
	DD	FLAT:??_R0?AVexception@std@@@8
	DD	FLAT:??_R3exception@std@@8
rdata$r	ENDS
;	COMDAT ??_C@_0BA@FOIKENOD@vector?5too?5long@
CONST	SEGMENT
??_C@_0BA@FOIKENOD@vector?5too?5long@ DB 'vector too long', 00H ; `string'
CONST	ENDS
;	COMDAT ??_7SpherePackCallback@@6B@
CONST	SEGMENT
??_7SpherePackCallback@@6B@ DD FLAT:??_R4SpherePackCallback@@6B@ ; SpherePackCallback::`vftable'
	DD	FLAT:??_ESpherePackCallback@@UAEPAXI@Z
	DD	FLAT:?VisibilityCallback@SpherePackCallback@@UAEXABVFrustum@@PAVSpherePack@@W4ViewState@@@Z
	DD	FLAT:?RayTraceCallback@SpherePackCallback@@UAEXABVVector3d@@0M0PAVSpherePack@@@Z
	DD	FLAT:?RangeTestCallback@SpherePackCallback@@UAEXABVVector3d@@MPAVSpherePack@@W4ViewState@@@Z
	DD	FLAT:?PointTest2dCallback@SpherePackCallback@@UAEXABVVector3d@@PAVSpherePack@@W4ViewState@@@Z
CONST	ENDS
;	COMDAT __CT??_R0?AVexception@std@@@8??0exception@std@@QAE@ABV01@@Z12
xdata$x	SEGMENT
__CT??_R0?AVexception@std@@@8??0exception@std@@QAE@ABV01@@Z12 DD 00H
	DD	FLAT:??_R0?AVexception@std@@@8
	DD	00H
	DD	0ffffffffH
	ORG $+4
	DD	0cH
	DD	FLAT:??0exception@std@@QAE@ABV01@@Z
xdata$x	ENDS
;	COMDAT ??_R0?AVexception@std@@@8
data$r	SEGMENT
??_R0?AVexception@std@@@8 DD FLAT:??_7type_info@@6B@	; std::exception `RTTI Type Descriptor'
	DD	00H
	DB	'.?AVexception@std@@', 00H
data$r	ENDS
;	COMDAT __CT??_R0?AVbad_alloc@std@@@8??0bad_alloc@std@@QAE@ABV01@@Z12
xdata$x	SEGMENT
__CT??_R0?AVbad_alloc@std@@@8??0bad_alloc@std@@QAE@ABV01@@Z12 DD 010H
	DD	FLAT:??_R0?AVbad_alloc@std@@@8
	DD	00H
	DD	0ffffffffH
	ORG $+4
	DD	0cH
	DD	FLAT:??0bad_alloc@std@@QAE@ABV01@@Z
xdata$x	ENDS
;	COMDAT ??_R0?AVbad_alloc@std@@@8
data$r	SEGMENT
??_R0?AVbad_alloc@std@@@8 DD FLAT:??_7type_info@@6B@	; std::bad_alloc `RTTI Type Descriptor'
	DD	00H
	DB	'.?AVbad_alloc@std@@', 00H
data$r	ENDS
;	COMDAT __CT??_R0?AVbad_array_new_length@std@@@8??0bad_array_new_length@std@@QAE@ABV01@@Z12
xdata$x	SEGMENT
__CT??_R0?AVbad_array_new_length@std@@@8??0bad_array_new_length@std@@QAE@ABV01@@Z12 DD 00H
	DD	FLAT:??_R0?AVbad_array_new_length@std@@@8
	DD	00H
	DD	0ffffffffH
	ORG $+4
	DD	0cH
	DD	FLAT:??0bad_array_new_length@std@@QAE@ABV01@@Z
xdata$x	ENDS
;	COMDAT ??_R0?AVbad_array_new_length@std@@@8
data$r	SEGMENT
??_R0?AVbad_array_new_length@std@@@8 DD FLAT:??_7type_info@@6B@ ; std::bad_array_new_length `RTTI Type Descriptor'
	DD	00H
	DB	'.?AVbad_array_new_length@std@@', 00H
data$r	ENDS
;	COMDAT __CTA3?AVbad_array_new_length@std@@
xdata$x	SEGMENT
__CTA3?AVbad_array_new_length@std@@ DD 03H
	DD	FLAT:__CT??_R0?AVbad_array_new_length@std@@@8??0bad_array_new_length@std@@QAE@ABV01@@Z12
	DD	FLAT:__CT??_R0?AVbad_alloc@std@@@8??0bad_alloc@std@@QAE@ABV01@@Z12
	DD	FLAT:__CT??_R0?AVexception@std@@@8??0exception@std@@QAE@ABV01@@Z12
xdata$x	ENDS
;	COMDAT __TI3?AVbad_array_new_length@std@@
xdata$x	SEGMENT
__TI3?AVbad_array_new_length@std@@ DD 00H
	DD	FLAT:??1bad_array_new_length@std@@UAE@XZ
	DD	00H
	DD	FLAT:__CTA3?AVbad_array_new_length@std@@
xdata$x	ENDS
;	COMDAT ??_C@_0BF@KINCDENJ@bad?5array?5new?5length@
CONST	SEGMENT
??_C@_0BF@KINCDENJ@bad?5array?5new?5length@ DB 'bad array new length', 00H ; `string'
CONST	ENDS
;	COMDAT ??_7bad_array_new_length@std@@6B@
CONST	SEGMENT
??_7bad_array_new_length@std@@6B@ DD FLAT:??_R4bad_array_new_length@std@@6B@ ; std::bad_array_new_length::`vftable'
	DD	FLAT:??_Ebad_array_new_length@std@@UAEPAXI@Z
	DD	FLAT:?what@exception@std@@UBEPBDXZ
CONST	ENDS
;	COMDAT ??_7bad_alloc@std@@6B@
CONST	SEGMENT
??_7bad_alloc@std@@6B@ DD FLAT:??_R4bad_alloc@std@@6B@	; std::bad_alloc::`vftable'
	DD	FLAT:??_Ebad_alloc@std@@UAEPAXI@Z
	DD	FLAT:?what@exception@std@@UBEPBDXZ
CONST	ENDS
;	COMDAT ??_C@_0BC@EOODALEL@Unknown?5exception@
CONST	SEGMENT
??_C@_0BC@EOODALEL@Unknown?5exception@ DB 'Unknown exception', 00H ; `string'
CONST	ENDS
;	COMDAT ??_7exception@std@@6B@
CONST	SEGMENT
??_7exception@std@@6B@ DD FLAT:??_R4exception@std@@6B@	; std::exception::`vftable'
	DD	FLAT:??_Eexception@std@@UAEPAXI@Z
	DD	FLAT:?what@exception@std@@UBEPBDXZ
CONST	ENDS
;	COMDAT xdata$x
xdata$x	SEGMENT
__unwindtable$??$ForInRange@UCameraCollisionChecker@@@CCullingManager@@QAEXABVVector3d@@MPAUCameraCollisionChecker@@@Z DD 0ffffffffH
	DD	FLAT:__unwindfunclet$??$ForInRange@UCameraCollisionChecker@@@CCullingManager@@QAEXABVVector3d@@MPAUCameraCollisionChecker@@@Z$0
__ehfuncinfo$??$ForInRange@UCameraCollisionChecker@@@CCullingManager@@QAEXABVVector3d@@MPAUCameraCollisionChecker@@@Z DD 019930522H
	DD	01H
	DD	FLAT:__unwindtable$??$ForInRange@UCameraCollisionChecker@@@CCullingManager@@QAEXABVVector3d@@MPAUCameraCollisionChecker@@@Z
	DD	2 DUP(00H)
	DD	2 DUP(00H)
	DD	00H
	DD	01H
xdata$x	ENDS
;	COMDAT xdata$x
xdata$x	SEGMENT
__ehfuncinfo$?ProcessBuildingCollision@CCamera@@AAEXXZ DD 019930522H
	DD	0cH
	DD	FLAT:__unwindtable$?ProcessBuildingCollision@CCamera@@AAEXXZ
	DD	2 DUP(00H)
	DD	2 DUP(00H)
	DD	00H
	DD	01H
__unwindtable$?ProcessBuildingCollision@CCamera@@AAEXXZ DD 0ffffffffH
	DD	FLAT:__unwindfunclet$?ProcessBuildingCollision@CCamera@@AAEXXZ$0
	DD	00H
	DD	FLAT:__unwindfunclet$?ProcessBuildingCollision@CCamera@@AAEXXZ$6
	DD	0ffffffffH
	DD	FLAT:__unwindfunclet$?ProcessBuildingCollision@CCamera@@AAEXXZ$1
	DD	02H
	DD	FLAT:__unwindfunclet$?ProcessBuildingCollision@CCamera@@AAEXXZ$7
	DD	0ffffffffH
	DD	FLAT:__unwindfunclet$?ProcessBuildingCollision@CCamera@@AAEXXZ$2
	DD	04H
	DD	FLAT:__unwindfunclet$?ProcessBuildingCollision@CCamera@@AAEXXZ$8
	DD	0ffffffffH
	DD	FLAT:__unwindfunclet$?ProcessBuildingCollision@CCamera@@AAEXXZ$3
	DD	06H
	DD	FLAT:__unwindfunclet$?ProcessBuildingCollision@CCamera@@AAEXXZ$9
	DD	0ffffffffH
	DD	FLAT:__unwindfunclet$?ProcessBuildingCollision@CCamera@@AAEXXZ$4
	DD	08H
	DD	FLAT:__unwindfunclet$?ProcessBuildingCollision@CCamera@@AAEXXZ$10
	DD	0ffffffffH
	DD	FLAT:__unwindfunclet$?ProcessBuildingCollision@CCamera@@AAEXXZ$5
	DD	0aH
	DD	FLAT:__unwindfunclet$?ProcessBuildingCollision@CCamera@@AAEXXZ$11
xdata$x	ENDS
; Function compile flags: /Ogtp
; File C:\Program Files (x86)\Microsoft Visual Studio\2019\Community\VC\Tools\MSVC\14.28.29333\include\xmemory
;	COMDAT ??$_Uninitialized_move@PAUD3DXVECTOR3@@V?$allocator@UD3DXVECTOR3@@@std@@@std@@YAPAUD3DXVECTOR3@@QAU1@0PAU1@AAV?$allocator@UD3DXVECTOR3@@@0@@Z
_TEXT	SEGMENT
__First$ = 8						; size = 4
__Last$ = 12						; size = 4
__Dest$ = 16						; size = 4
__Al$ = 20						; size = 4
??$_Uninitialized_move@PAUD3DXVECTOR3@@V?$allocator@UD3DXVECTOR3@@@std@@@std@@YAPAUD3DXVECTOR3@@QAU1@0PAU1@AAV?$allocator@UD3DXVECTOR3@@@0@@Z PROC ; std::_Uninitialized_move<D3DXVECTOR3 *,std::allocator<D3DXVECTOR3> >, COMDAT

; 1685 :     const _InIt _First, const _InIt _Last, _Alloc_ptr_t<_Alloc> _Dest, _Alloc& _Al) {

  00000	55		 push	 ebp
  00001	8b ec		 mov	 ebp, esp

; 1686 :     // move [_First, _Last) to raw _Dest, using _Al
; 1687 :     // note: only called internally from elsewhere in the STL
; 1688 :     using _Ptrval     = typename _Alloc::value_type*;
; 1689 :     auto _UFirst      = _Get_unwrapped(_First);
; 1690 :     const auto _ULast = _Get_unwrapped(_Last);
; 1691 :     if constexpr (conjunction_v<bool_constant<_Ptr_move_cat<decltype(_UFirst), _Ptrval>::_Really_trivial>,
; 1692 :                       _Uses_default_construct<_Alloc, _Ptrval, decltype(_STD move(*_UFirst))>>) {
; 1693 :         _Copy_memmove(_UFirst, _ULast, _Unfancy(_Dest));
; 1694 :         return _Dest + (_ULast - _UFirst);
; 1695 :     } else {
; 1696 :         _Uninitialized_backout_al<_Alloc> _Backout{_Dest, _Al};
; 1697 :         for (; _UFirst != _ULast; ++_UFirst) {

  00003	8b 4d 08	 mov	 ecx, DWORD PTR __First$[ebp]

; 1535 :     _Uninitialized_backout_al(pointer _Dest, _Alloc& _Al_) : _First(_Dest), _Last(_Dest), _Al(_Al_) {}

  00006	8b 45 10	 mov	 eax, DWORD PTR __Dest$[ebp]

; 1685 :     const _InIt _First, const _InIt _Last, _Alloc_ptr_t<_Alloc> _Dest, _Alloc& _Al) {

  00009	56		 push	 esi

; 1686 :     // move [_First, _Last) to raw _Dest, using _Al
; 1687 :     // note: only called internally from elsewhere in the STL
; 1688 :     using _Ptrval     = typename _Alloc::value_type*;
; 1689 :     auto _UFirst      = _Get_unwrapped(_First);
; 1690 :     const auto _ULast = _Get_unwrapped(_Last);
; 1691 :     if constexpr (conjunction_v<bool_constant<_Ptr_move_cat<decltype(_UFirst), _Ptrval>::_Really_trivial>,
; 1692 :                       _Uses_default_construct<_Alloc, _Ptrval, decltype(_STD move(*_UFirst))>>) {
; 1693 :         _Copy_memmove(_UFirst, _ULast, _Unfancy(_Dest));
; 1694 :         return _Dest + (_ULast - _UFirst);
; 1695 :     } else {
; 1696 :         _Uninitialized_backout_al<_Alloc> _Backout{_Dest, _Al};
; 1697 :         for (; _UFirst != _ULast; ++_UFirst) {

  0000a	8b 75 0c	 mov	 esi, DWORD PTR __Last$[ebp]
  0000d	3b ce		 cmp	 ecx, esi
  0000f	74 18		 je	 SHORT $LN3@Uninitiali
$LL4@Uninitiali:

; 701  :         ::new (const_cast<void*>(static_cast<const volatile void*>(_Ptr))) _Objty(_STD forward<_Types>(_Args)...);

  00011	f3 0f 7e 01	 movq	 xmm0, QWORD PTR [ecx]
  00015	66 0f d6 00	 movq	 QWORD PTR [eax], xmm0
  00019	8b 51 08	 mov	 edx, DWORD PTR [ecx+8]

; 1547 :         ++_Last;

  0001c	83 c1 0c	 add	 ecx, 12			; 0000000cH

; 701  :         ::new (const_cast<void*>(static_cast<const volatile void*>(_Ptr))) _Objty(_STD forward<_Types>(_Args)...);

  0001f	89 50 08	 mov	 DWORD PTR [eax+8], edx

; 1547 :         ++_Last;

  00022	83 c0 0c	 add	 eax, 12			; 0000000cH

; 1686 :     // move [_First, _Last) to raw _Dest, using _Al
; 1687 :     // note: only called internally from elsewhere in the STL
; 1688 :     using _Ptrval     = typename _Alloc::value_type*;
; 1689 :     auto _UFirst      = _Get_unwrapped(_First);
; 1690 :     const auto _ULast = _Get_unwrapped(_Last);
; 1691 :     if constexpr (conjunction_v<bool_constant<_Ptr_move_cat<decltype(_UFirst), _Ptrval>::_Really_trivial>,
; 1692 :                       _Uses_default_construct<_Alloc, _Ptrval, decltype(_STD move(*_UFirst))>>) {
; 1693 :         _Copy_memmove(_UFirst, _ULast, _Unfancy(_Dest));
; 1694 :         return _Dest + (_ULast - _UFirst);
; 1695 :     } else {
; 1696 :         _Uninitialized_backout_al<_Alloc> _Backout{_Dest, _Al};
; 1697 :         for (; _UFirst != _ULast; ++_UFirst) {

  00025	3b ce		 cmp	 ecx, esi
  00027	75 e8		 jne	 SHORT $LL4@Uninitiali
$LN3@Uninitiali:
  00029	5e		 pop	 esi

; 1698 :             _Backout._Emplace_back(_STD move(*_UFirst));
; 1699 :         }
; 1700 : 
; 1701 :         return _Backout._Release();
; 1702 :     }
; 1703 : }

  0002a	5d		 pop	 ebp
  0002b	c3		 ret	 0
??$_Uninitialized_move@PAUD3DXVECTOR3@@V?$allocator@UD3DXVECTOR3@@@std@@@std@@YAPAUD3DXVECTOR3@@QAU1@0PAU1@AAV?$allocator@UD3DXVECTOR3@@@0@@Z ENDP ; std::_Uninitialized_move<D3DXVECTOR3 *,std::allocator<D3DXVECTOR3> >
_TEXT	ENDS
; Function compile flags: /Ogtp
;	COMDAT ??_G?$RangeTester@UCameraCollisionChecker@@@@UAEPAXI@Z
_TEXT	SEGMENT
___flags$ = 8						; size = 4
??_G?$RangeTester@UCameraCollisionChecker@@@@UAEPAXI@Z PROC ; RangeTester<CameraCollisionChecker>::`scalar deleting destructor', COMDAT
; _this$ = ecx
  00000	55		 push	 ebp
  00001	8b ec		 mov	 ebp, esp
  00003	f6 45 08 01	 test	 BYTE PTR ___flags$[ebp], 1
  00007	56		 push	 esi
  00008	8b f1		 mov	 esi, ecx
  0000a	c7 06 00 00 00
	00		 mov	 DWORD PTR [esi], OFFSET ??_7SpherePackCallback@@6B@
  00010	74 0b		 je	 SHORT $LN4@scalar
  00012	6a 0c		 push	 12			; 0000000cH
  00014	56		 push	 esi
  00015	e8 00 00 00 00	 call	 ??3@YAXPAXI@Z		; operator delete
  0001a	83 c4 08	 add	 esp, 8
$LN4@scalar:
  0001d	8b c6		 mov	 eax, esi
  0001f	5e		 pop	 esi
  00020	5d		 pop	 ebp
  00021	c2 04 00	 ret	 4
??_G?$RangeTester@UCameraCollisionChecker@@@@UAEPAXI@Z ENDP ; RangeTester<CameraCollisionChecker>::`scalar deleting destructor'
_TEXT	ENDS
; Function compile flags: /Ogtp
; File D:\Metin2 Server Files\mainline\SRC_2014\Metin2Client\eterlib\CullingManager.h
; File D:\Metin2 Server Files\mainline\SRC_2014\Metin2Client\UserInterface\CameraProcedure.cpp
; File C:\Program Files (x86)\Microsoft Visual Studio\2019\Community\VC\Tools\MSVC\14.28.29333\include\vector
; File C:\Program Files (x86)\Microsoft Visual Studio\2019\Community\VC\Tools\MSVC\14.28.29333\include\xmemory
; File C:\Program Files (x86)\Microsoft Visual Studio\2019\Community\VC\Tools\MSVC\14.28.29333\include\vector
; File D:\Metin2 Server Files\mainline\SRC_2014\Metin2Client\UserInterface\CameraProcedure.cpp
; File D:\Metin2 Server Files\mainline\SRC_2014\Metin2Client\eterlib\CullingManager.h
; File C:\Program Files (x86)\Microsoft Visual Studio\2019\Community\VC\Tools\MSVC\14.28.29333\include\vector
; File D:\Metin2 Server Files\mainline\SRC_2014\Metin2Client\UserInterface\CameraProcedure.cpp
; File D:\Metin2 Server Files\mainline\SRC_2014\Metin2Client\eterlib\CullingManager.h
;	COMDAT ?PointTest2dCallback@?$RangeTester@UCameraCollisionChecker@@@@UAEXABVVector3d@@PAVSpherePack@@W4ViewState@@@Z
_TEXT	SEGMENT
_p$ = 8							; size = 4
_sphere$ = 12						; size = 4
_state$ = 16						; size = 4
?PointTest2dCallback@?$RangeTester@UCameraCollisionChecker@@@@UAEXABVVector3d@@PAVSpherePack@@W4ViewState@@@Z PROC ; RangeTester<CameraCollisionChecker>::PointTest2dCallback, COMDAT
; _this$ = ecx

; 50   : 	{

  00000	55		 push	 ebp
  00001	8b ec		 mov	 ebp, esp

; 51   : #ifdef SPHERELIB_STRICT
; 52   : 		if (sphere->IS_SPHERE)
; 53   : 			puts("RangeTester::PointTest2dCallback");	
; 54   : #endif
; 55   : 		if (state!=VS_OUTSIDE)

  00003	83 7d 10 02	 cmp	 DWORD PTR _state$[ebp], 2
  00007	74 52		 je	 SHORT $LN5@PointTest2

; 56   : 		{
; 57   : #ifdef SPHERELIB_STRICT
; 58   : 			puts("FIND!!");
; 59   : #endif
; 60   : 			(*f)((CGraphicObjectInstance *)sphere->GetUserData());

  00009	8b 45 0c	 mov	 eax, DWORD PTR _sphere$[ebp]
  0000c	56		 push	 esi
  0000d	8b 71 04	 mov	 esi, DWORD PTR [ecx+4]
  00010	57		 push	 edi
  00011	8b 78 44	 mov	 edi, DWORD PTR [eax+68]
; File D:\Metin2 Server Files\mainline\SRC_2014\Metin2Client\UserInterface\CameraProcedure.cpp

; 116  : 		if (pOpponent->CollisionDynamicSphere(*m_pdsi))

  00014	8b cf		 mov	 ecx, edi
  00016	ff 76 08	 push	 DWORD PTR [esi+8]
  00019	e8 00 00 00 00	 call	 ?CollisionDynamicSphere@CGraphicObjectInstance@@QBE_NABUCDynamicSphereInstance@@@Z ; CGraphicObjectInstance::CollisionDynamicSphere
  0001e	84 c0		 test	 al, al
  00020	74 37		 je	 SHORT $LN16@PointTest2

; 117  :  		{
; 118  : 			m_pkVct_v3Position->push_back(pOpponent->GetPosition());

  00022	8b cf		 mov	 ecx, edi
  00024	e8 00 00 00 00	 call	 ?GetPosition@CGraphicObjectInstance@@QBEABUD3DXVECTOR3@@XZ ; CGraphicObjectInstance::GetPosition
  00029	8b 4e 04	 mov	 ecx, DWORD PTR [esi+4]
; File C:\Program Files (x86)\Microsoft Visual Studio\2019\Community\VC\Tools\MSVC\14.28.29333\include\vector

; 704  :         if (_Mylast != _My_data._Myend) {

  0002c	8b 51 04	 mov	 edx, DWORD PTR [ecx+4]
  0002f	3b 51 08	 cmp	 edx, DWORD PTR [ecx+8]
  00032	74 1b		 je	 SHORT $LN10@PointTest2
; File C:\Program Files (x86)\Microsoft Visual Studio\2019\Community\VC\Tools\MSVC\14.28.29333\include\xmemory

; 701  :         ::new (const_cast<void*>(static_cast<const volatile void*>(_Ptr))) _Objty(_STD forward<_Types>(_Args)...);

  00034	f3 0f 7e 00	 movq	 xmm0, QWORD PTR [eax]
  00038	66 0f d6 02	 movq	 QWORD PTR [edx], xmm0
  0003c	8b 40 08	 mov	 eax, DWORD PTR [eax+8]
  0003f	89 42 08	 mov	 DWORD PTR [edx+8], eax
; File C:\Program Files (x86)\Microsoft Visual Studio\2019\Community\VC\Tools\MSVC\14.28.29333\include\vector

; 690  :         ++_Mylast;

  00042	83 41 04 0c	 add	 DWORD PTR [ecx+4], 12	; 0000000cH
  00046	5f		 pop	 edi
; File D:\Metin2 Server Files\mainline\SRC_2014\Metin2Client\UserInterface\CameraProcedure.cpp

; 119  : 			m_isBlocked = true;

  00047	c6 06 01	 mov	 BYTE PTR [esi], 1
  0004a	5e		 pop	 esi
; File D:\Metin2 Server Files\mainline\SRC_2014\Metin2Client\eterlib\CullingManager.h

; 62   : 	}

  0004b	5d		 pop	 ebp
  0004c	c2 0c 00	 ret	 12			; 0000000cH
$LN10@PointTest2:
; File C:\Program Files (x86)\Microsoft Visual Studio\2019\Community\VC\Tools\MSVC\14.28.29333\include\vector

; 708  :         _Ty& _Result = *_Emplace_reallocate(_Mylast, _STD forward<_Valty>(_Val)...);

  0004f	50		 push	 eax
  00050	52		 push	 edx
  00051	e8 00 00 00 00	 call	 ??$_Emplace_reallocate@ABUD3DXVECTOR3@@@?$vector@UD3DXVECTOR3@@V?$allocator@UD3DXVECTOR3@@@std@@@std@@QAEPAUD3DXVECTOR3@@QAU2@ABU2@@Z ; std::vector<D3DXVECTOR3,std::allocator<D3DXVECTOR3> >::_Emplace_reallocate<D3DXVECTOR3 const &>
; File D:\Metin2 Server Files\mainline\SRC_2014\Metin2Client\UserInterface\CameraProcedure.cpp

; 119  : 			m_isBlocked = true;

  00056	c6 06 01	 mov	 BYTE PTR [esi], 1
$LN16@PointTest2:
  00059	5f		 pop	 edi
  0005a	5e		 pop	 esi
$LN5@PointTest2:
; File D:\Metin2 Server Files\mainline\SRC_2014\Metin2Client\eterlib\CullingManager.h

; 62   : 	}

  0005b	5d		 pop	 ebp
  0005c	c2 0c 00	 ret	 12			; 0000000cH
?PointTest2dCallback@?$RangeTester@UCameraCollisionChecker@@@@UAEXABVVector3d@@PAVSpherePack@@W4ViewState@@@Z ENDP ; RangeTester<CameraCollisionChecker>::PointTest2dCallback
_TEXT	ENDS
; Function compile flags: /Ogtp
; File D:\Metin2 Server Files\mainline\SRC_2014\Metin2Client\eterlib\CullingManager.h
; File D:\Metin2 Server Files\mainline\SRC_2014\Metin2Client\UserInterface\CameraProcedure.cpp
; File C:\Program Files (x86)\Microsoft Visual Studio\2019\Community\VC\Tools\MSVC\14.28.29333\include\vector
; File C:\Program Files (x86)\Microsoft Visual Studio\2019\Community\VC\Tools\MSVC\14.28.29333\include\xmemory
; File C:\Program Files (x86)\Microsoft Visual Studio\2019\Community\VC\Tools\MSVC\14.28.29333\include\vector
; File D:\Metin2 Server Files\mainline\SRC_2014\Metin2Client\UserInterface\CameraProcedure.cpp
; File D:\Metin2 Server Files\mainline\SRC_2014\Metin2Client\eterlib\CullingManager.h
; File C:\Program Files (x86)\Microsoft Visual Studio\2019\Community\VC\Tools\MSVC\14.28.29333\include\vector
; File D:\Metin2 Server Files\mainline\SRC_2014\Metin2Client\UserInterface\CameraProcedure.cpp
; File D:\Metin2 Server Files\mainline\SRC_2014\Metin2Client\eterlib\CullingManager.h
;	COMDAT ?RangeTestCallback@?$RangeTester@UCameraCollisionChecker@@@@UAEXABVVector3d@@MPAVSpherePack@@W4ViewState@@@Z
_TEXT	SEGMENT
_p$ = 8							; size = 4
_distance$ = 12						; size = 4
_sphere$ = 16						; size = 4
_state$ = 20						; size = 4
?RangeTestCallback@?$RangeTester@UCameraCollisionChecker@@@@UAEXABVVector3d@@MPAVSpherePack@@W4ViewState@@@Z PROC ; RangeTester<CameraCollisionChecker>::RangeTestCallback, COMDAT
; _this$ = ecx

; 40   : 	{

  00000	55		 push	 ebp
  00001	8b ec		 mov	 ebp, esp

; 41   : #ifdef SPHERELIB_STRICT
; 42   : 		if (sphere->IS_SPHERE)
; 43   : 			puts("RangeTester::RangeTestCallback");
; 44   : #endif	
; 45   : 		if (state!=VS_OUTSIDE)

  00003	83 7d 14 02	 cmp	 DWORD PTR _state$[ebp], 2
  00007	74 52		 je	 SHORT $LN5@RangeTestC

; 46   : 			(*f)((CGraphicObjectInstance *)sphere->GetUserData());

  00009	8b 45 10	 mov	 eax, DWORD PTR _sphere$[ebp]
  0000c	56		 push	 esi
  0000d	8b 71 04	 mov	 esi, DWORD PTR [ecx+4]
  00010	57		 push	 edi
  00011	8b 78 44	 mov	 edi, DWORD PTR [eax+68]
; File D:\Metin2 Server Files\mainline\SRC_2014\Metin2Client\UserInterface\CameraProcedure.cpp

; 116  : 		if (pOpponent->CollisionDynamicSphere(*m_pdsi))

  00014	8b cf		 mov	 ecx, edi
  00016	ff 76 08	 push	 DWORD PTR [esi+8]
  00019	e8 00 00 00 00	 call	 ?CollisionDynamicSphere@CGraphicObjectInstance@@QBE_NABUCDynamicSphereInstance@@@Z ; CGraphicObjectInstance::CollisionDynamicSphere
  0001e	84 c0		 test	 al, al
  00020	74 37		 je	 SHORT $LN16@RangeTestC

; 117  :  		{
; 118  : 			m_pkVct_v3Position->push_back(pOpponent->GetPosition());

  00022	8b cf		 mov	 ecx, edi
  00024	e8 00 00 00 00	 call	 ?GetPosition@CGraphicObjectInstance@@QBEABUD3DXVECTOR3@@XZ ; CGraphicObjectInstance::GetPosition
  00029	8b 4e 04	 mov	 ecx, DWORD PTR [esi+4]
; File C:\Program Files (x86)\Microsoft Visual Studio\2019\Community\VC\Tools\MSVC\14.28.29333\include\vector

; 704  :         if (_Mylast != _My_data._Myend) {

  0002c	8b 51 04	 mov	 edx, DWORD PTR [ecx+4]
  0002f	3b 51 08	 cmp	 edx, DWORD PTR [ecx+8]
  00032	74 1b		 je	 SHORT $LN10@RangeTestC
; File C:\Program Files (x86)\Microsoft Visual Studio\2019\Community\VC\Tools\MSVC\14.28.29333\include\xmemory

; 701  :         ::new (const_cast<void*>(static_cast<const volatile void*>(_Ptr))) _Objty(_STD forward<_Types>(_Args)...);

  00034	f3 0f 7e 00	 movq	 xmm0, QWORD PTR [eax]
  00038	66 0f d6 02	 movq	 QWORD PTR [edx], xmm0
  0003c	8b 40 08	 mov	 eax, DWORD PTR [eax+8]
  0003f	89 42 08	 mov	 DWORD PTR [edx+8], eax
; File C:\Program Files (x86)\Microsoft Visual Studio\2019\Community\VC\Tools\MSVC\14.28.29333\include\vector

; 690  :         ++_Mylast;

  00042	83 41 04 0c	 add	 DWORD PTR [ecx+4], 12	; 0000000cH
  00046	5f		 pop	 edi
; File D:\Metin2 Server Files\mainline\SRC_2014\Metin2Client\UserInterface\CameraProcedure.cpp

; 119  : 			m_isBlocked = true;

  00047	c6 06 01	 mov	 BYTE PTR [esi], 1
  0004a	5e		 pop	 esi
; File D:\Metin2 Server Files\mainline\SRC_2014\Metin2Client\eterlib\CullingManager.h

; 47   : 	}

  0004b	5d		 pop	 ebp
  0004c	c2 10 00	 ret	 16			; 00000010H
$LN10@RangeTestC:
; File C:\Program Files (x86)\Microsoft Visual Studio\2019\Community\VC\Tools\MSVC\14.28.29333\include\vector

; 708  :         _Ty& _Result = *_Emplace_reallocate(_Mylast, _STD forward<_Valty>(_Val)...);

  0004f	50		 push	 eax
  00050	52		 push	 edx
  00051	e8 00 00 00 00	 call	 ??$_Emplace_reallocate@ABUD3DXVECTOR3@@@?$vector@UD3DXVECTOR3@@V?$allocator@UD3DXVECTOR3@@@std@@@std@@QAEPAUD3DXVECTOR3@@QAU2@ABU2@@Z ; std::vector<D3DXVECTOR3,std::allocator<D3DXVECTOR3> >::_Emplace_reallocate<D3DXVECTOR3 const &>
; File D:\Metin2 Server Files\mainline\SRC_2014\Metin2Client\UserInterface\CameraProcedure.cpp

; 119  : 			m_isBlocked = true;

  00056	c6 06 01	 mov	 BYTE PTR [esi], 1
$LN16@RangeTestC:
  00059	5f		 pop	 edi
  0005a	5e		 pop	 esi
$LN5@RangeTestC:
; File D:\Metin2 Server Files\mainline\SRC_2014\Metin2Client\eterlib\CullingManager.h

; 47   : 	}

  0005b	5d		 pop	 ebp
  0005c	c2 10 00	 ret	 16			; 00000010H
?RangeTestCallback@?$RangeTester@UCameraCollisionChecker@@@@UAEXABVVector3d@@MPAVSpherePack@@W4ViewState@@@Z ENDP ; RangeTester<CameraCollisionChecker>::RangeTestCallback
_TEXT	ENDS
; Function compile flags: /Ogtp
; File D:\Metin2 Server Files\mainline\SRC_2014\Metin2Client\eterlib\CullingManager.h
;	COMDAT ?VisibilityCallback@?$RangeTester@UCameraCollisionChecker@@@@UAEXABVFrustum@@PAVSpherePack@@W4ViewState@@@Z
_TEXT	SEGMENT
_f$ = 8							; size = 4
_sphere$ = 12						; size = 4
_state$ = 16						; size = 4
?VisibilityCallback@?$RangeTester@UCameraCollisionChecker@@@@UAEXABVFrustum@@PAVSpherePack@@W4ViewState@@@Z PROC ; RangeTester<CameraCollisionChecker>::VisibilityCallback, COMDAT
; _this$ = ecx

; 37   : 	virtual void VisibilityCallback(const Frustum &f,SpherePack *sphere,ViewState state){};

  00000	c2 0c 00	 ret	 12			; 0000000cH
?VisibilityCallback@?$RangeTester@UCameraCollisionChecker@@@@UAEXABVFrustum@@PAVSpherePack@@W4ViewState@@@Z ENDP ; RangeTester<CameraCollisionChecker>::VisibilityCallback
_TEXT	ENDS
; Function compile flags: /Ogtp
; File D:\Metin2 Server Files\mainline\SRC_2014\Metin2Client\eterlib\CullingManager.h
; File D:\Metin2 Server Files\mainline\SRC_2014\Metin2Client\UserInterface\CameraProcedure.cpp
; File C:\Program Files (x86)\Microsoft Visual Studio\2019\Community\VC\Tools\MSVC\14.28.29333\include\vector
; File C:\Program Files (x86)\Microsoft Visual Studio\2019\Community\VC\Tools\MSVC\14.28.29333\include\xmemory
; File C:\Program Files (x86)\Microsoft Visual Studio\2019\Community\VC\Tools\MSVC\14.28.29333\include\vector
; File D:\Metin2 Server Files\mainline\SRC_2014\Metin2Client\UserInterface\CameraProcedure.cpp
; File D:\Metin2 Server Files\mainline\SRC_2014\Metin2Client\eterlib\CullingManager.h
; File C:\Program Files (x86)\Microsoft Visual Studio\2019\Community\VC\Tools\MSVC\14.28.29333\include\vector
; File D:\Metin2 Server Files\mainline\SRC_2014\Metin2Client\UserInterface\CameraProcedure.cpp
; File D:\Metin2 Server Files\mainline\SRC_2014\Metin2Client\eterlib\CullingManager.h
;	COMDAT ?RayTraceCallback@?$RangeTester@UCameraCollisionChecker@@@@UAEXABVVector3d@@0M0PAVSpherePack@@@Z
_TEXT	SEGMENT
_p1$ = 8						; size = 4
_dir$ = 12						; size = 4
_distance$ = 16						; size = 4
_sect$ = 20						; size = 4
_sphere$ = 24						; size = 4
?RayTraceCallback@?$RangeTester@UCameraCollisionChecker@@@@UAEXABVVector3d@@0M0PAVSpherePack@@@Z PROC ; RangeTester<CameraCollisionChecker>::RayTraceCallback, COMDAT
; _this$ = ecx

; 27   : 	{

  00000	55		 push	 ebp
  00001	8b ec		 mov	 ebp, esp

; 28   : #ifdef SPHERELIB_STRICT
; 29   : 		if (sphere->IS_SPHERE)
; 30   : 			puts("RangeTester::RayTraceCallback");
; 31   : #endif	
; 32   : 		if (dist<=0.0f || dist>=distance)

  00003	f3 0f 10 49 08	 movss	 xmm1, DWORD PTR [ecx+8]
  00008	0f 57 c0	 xorps	 xmm0, xmm0
  0000b	0f 2f c1	 comiss	 xmm0, xmm1
  0000e	73 06		 jae	 SHORT $LN3@RayTraceCa
  00010	0f 2f 4d 10	 comiss	 xmm1, DWORD PTR _distance$[ebp]
  00014	72 52		 jb	 SHORT $LN6@RayTraceCa
$LN3@RayTraceCa:

; 33   : 			(*f)((CGraphicObjectInstance *)sphere->GetUserData());

  00016	8b 45 18	 mov	 eax, DWORD PTR _sphere$[ebp]
  00019	56		 push	 esi
  0001a	8b 71 04	 mov	 esi, DWORD PTR [ecx+4]
  0001d	57		 push	 edi
  0001e	8b 78 44	 mov	 edi, DWORD PTR [eax+68]
; File D:\Metin2 Server Files\mainline\SRC_2014\Metin2Client\UserInterface\CameraProcedure.cpp

; 116  : 		if (pOpponent->CollisionDynamicSphere(*m_pdsi))

  00021	8b cf		 mov	 ecx, edi
  00023	ff 76 08	 push	 DWORD PTR [esi+8]
  00026	e8 00 00 00 00	 call	 ?CollisionDynamicSphere@CGraphicObjectInstance@@QBE_NABUCDynamicSphereInstance@@@Z ; CGraphicObjectInstance::CollisionDynamicSphere
  0002b	84 c0		 test	 al, al
  0002d	74 37		 je	 SHORT $LN17@RayTraceCa

; 117  :  		{
; 118  : 			m_pkVct_v3Position->push_back(pOpponent->GetPosition());

  0002f	8b cf		 mov	 ecx, edi
  00031	e8 00 00 00 00	 call	 ?GetPosition@CGraphicObjectInstance@@QBEABUD3DXVECTOR3@@XZ ; CGraphicObjectInstance::GetPosition
  00036	8b 4e 04	 mov	 ecx, DWORD PTR [esi+4]
; File C:\Program Files (x86)\Microsoft Visual Studio\2019\Community\VC\Tools\MSVC\14.28.29333\include\vector

; 704  :         if (_Mylast != _My_data._Myend) {

  00039	8b 51 04	 mov	 edx, DWORD PTR [ecx+4]
  0003c	3b 51 08	 cmp	 edx, DWORD PTR [ecx+8]
  0003f	74 1b		 je	 SHORT $LN11@RayTraceCa
; File C:\Program Files (x86)\Microsoft Visual Studio\2019\Community\VC\Tools\MSVC\14.28.29333\include\xmemory

; 701  :         ::new (const_cast<void*>(static_cast<const volatile void*>(_Ptr))) _Objty(_STD forward<_Types>(_Args)...);

  00041	f3 0f 7e 00	 movq	 xmm0, QWORD PTR [eax]
  00045	66 0f d6 02	 movq	 QWORD PTR [edx], xmm0
  00049	8b 40 08	 mov	 eax, DWORD PTR [eax+8]
  0004c	89 42 08	 mov	 DWORD PTR [edx+8], eax
; File C:\Program Files (x86)\Microsoft Visual Studio\2019\Community\VC\Tools\MSVC\14.28.29333\include\vector

; 690  :         ++_Mylast;

  0004f	83 41 04 0c	 add	 DWORD PTR [ecx+4], 12	; 0000000cH
  00053	5f		 pop	 edi
; File D:\Metin2 Server Files\mainline\SRC_2014\Metin2Client\UserInterface\CameraProcedure.cpp

; 119  : 			m_isBlocked = true;

  00054	c6 06 01	 mov	 BYTE PTR [esi], 1
  00057	5e		 pop	 esi
; File D:\Metin2 Server Files\mainline\SRC_2014\Metin2Client\eterlib\CullingManager.h

; 34   : 	};

  00058	5d		 pop	 ebp
  00059	c2 14 00	 ret	 20			; 00000014H
$LN11@RayTraceCa:
; File C:\Program Files (x86)\Microsoft Visual Studio\2019\Community\VC\Tools\MSVC\14.28.29333\include\vector

; 708  :         _Ty& _Result = *_Emplace_reallocate(_Mylast, _STD forward<_Valty>(_Val)...);

  0005c	50		 push	 eax
  0005d	52		 push	 edx
  0005e	e8 00 00 00 00	 call	 ??$_Emplace_reallocate@ABUD3DXVECTOR3@@@?$vector@UD3DXVECTOR3@@V?$allocator@UD3DXVECTOR3@@@std@@@std@@QAEPAUD3DXVECTOR3@@QAU2@ABU2@@Z ; std::vector<D3DXVECTOR3,std::allocator<D3DXVECTOR3> >::_Emplace_reallocate<D3DXVECTOR3 const &>
; File D:\Metin2 Server Files\mainline\SRC_2014\Metin2Client\UserInterface\CameraProcedure.cpp

; 119  : 			m_isBlocked = true;

  00063	c6 06 01	 mov	 BYTE PTR [esi], 1
$LN17@RayTraceCa:
  00066	5f		 pop	 edi
  00067	5e		 pop	 esi
$LN6@RayTraceCa:
; File D:\Metin2 Server Files\mainline\SRC_2014\Metin2Client\eterlib\CullingManager.h

; 34   : 	};

  00068	5d		 pop	 ebp
  00069	c2 14 00	 ret	 20			; 00000014H
?RayTraceCallback@?$RangeTester@UCameraCollisionChecker@@@@UAEXABVVector3d@@0M0PAVSpherePack@@@Z ENDP ; RangeTester<CameraCollisionChecker>::RayTraceCallback
_TEXT	ENDS
; Function compile flags: /Ogtp
; File D:\Metin2 Server Files\mainline\SRC_2014\Metin2Client\eterlib\CullingManager.h
;	COMDAT ??1?$RangeTester@UCameraCollisionChecker@@@@UAE@XZ
_TEXT	SEGMENT
??1?$RangeTester@UCameraCollisionChecker@@@@UAE@XZ PROC	; RangeTester<CameraCollisionChecker>::~RangeTester<CameraCollisionChecker>, COMDAT
; _this$ = ecx

; 19   : 	{}

  00000	c7 01 00 00 00
	00		 mov	 DWORD PTR [ecx], OFFSET ??_7SpherePackCallback@@6B@
  00006	c3		 ret	 0
??1?$RangeTester@UCameraCollisionChecker@@@@UAE@XZ ENDP	; RangeTester<CameraCollisionChecker>::~RangeTester<CameraCollisionChecker>
_TEXT	ENDS
; Function compile flags: /Ogtp
; File C:\Program Files (x86)\Microsoft Visual Studio\2019\Community\VC\Tools\MSVC\14.28.29333\include\xmemory
;	COMDAT ??$_Destroy_range@V?$allocator@UD3DXVECTOR3@@@std@@@std@@YAXPAUD3DXVECTOR3@@QAU1@AAV?$allocator@UD3DXVECTOR3@@@0@@Z
_TEXT	SEGMENT
__First$ = 8						; size = 4
__Last$ = 12						; size = 4
__Al$ = 16						; size = 4
??$_Destroy_range@V?$allocator@UD3DXVECTOR3@@@std@@@std@@YAXPAUD3DXVECTOR3@@QAU1@AAV?$allocator@UD3DXVECTOR3@@@0@@Z PROC ; std::_Destroy_range<std::allocator<D3DXVECTOR3> >, COMDAT

; 963  :     // note that this is an optimization for debug mode codegen; in release mode the BE removes all of this
; 964  :     using _Ty = typename _Alloc::value_type;
; 965  :     if _CONSTEXPR_IF (!conjunction_v<is_trivially_destructible<_Ty>, _Uses_default_destroy<_Alloc, _Ty*>>) {
; 966  :         for (; _First != _Last; ++_First) {
; 967  :             allocator_traits<_Alloc>::destroy(_Al, _Unfancy(_First));
; 968  :         }
; 969  :     }
; 970  : }

  00000	c2 00 00	 ret	 0
??$_Destroy_range@V?$allocator@UD3DXVECTOR3@@@std@@@std@@YAXPAUD3DXVECTOR3@@QAU1@AAV?$allocator@UD3DXVECTOR3@@@0@@Z ENDP ; std::_Destroy_range<std::allocator<D3DXVECTOR3> >
_TEXT	ENDS
; Function compile flags: /Ogtp
; File C:\Program Files (x86)\Microsoft Visual Studio\2019\Community\VC\Tools\MSVC\14.28.29333\include\vector
; File C:\Program Files (x86)\Microsoft Visual Studio\2019\Community\VC\Tools\MSVC\14.28.29333\include\xmemory
; File C:\Program Files (x86)\Microsoft Visual Studio\2019\Community\VC\Tools\MSVC\14.28.29333\include\vector
; File C:\Program Files (x86)\Microsoft Visual Studio\2019\Community\VC\Tools\MSVC\14.28.29333\include\xmemory
; File C:\Program Files (x86)\Microsoft Visual Studio\2019\Community\VC\Tools\MSVC\14.28.29333\include\vector
; File C:\Program Files (x86)\Microsoft Visual Studio\2019\Community\VC\Tools\MSVC\14.28.29333\include\xmemory
; File C:\Program Files (x86)\Microsoft Visual Studio\2019\Community\VC\Tools\MSVC\14.28.29333\include\vector
; File C:\Program Files (x86)\Microsoft Visual Studio\2019\Community\VC\Tools\MSVC\14.28.29333\include\xmemory
; File C:\Program Files (x86)\Microsoft Visual Studio\2019\Community\VC\Tools\MSVC\14.28.29333\include\vector
; File C:\Program Files (x86)\Microsoft Visual Studio\2019\Community\VC\Tools\MSVC\14.28.29333\include\xmemory
; File C:\Program Files (x86)\Microsoft Visual Studio\2019\Community\VC\Tools\MSVC\14.28.29333\include\vector
; File C:\Program Files (x86)\Microsoft Visual Studio\2019\Community\VC\Tools\MSVC\14.28.29333\include\xmemory
; File C:\Program Files (x86)\Microsoft Visual Studio\2019\Community\VC\Tools\MSVC\14.28.29333\include\vector
;	COMDAT ??$_Emplace_reallocate@ABUD3DXVECTOR3@@@?$vector@UD3DXVECTOR3@@V?$allocator@UD3DXVECTOR3@@@std@@@std@@QAEPAUD3DXVECTOR3@@QAU2@ABU2@@Z
_TEXT	SEGMENT
tv375 = -12						; size = 4
__Oldsize$1$ = -8					; size = 4
tv374 = -4						; size = 4
__Whereoff$1$ = -4					; size = 4
__Whereptr$ = 8						; size = 4
_<_Val_0>$ = 12						; size = 4
??$_Emplace_reallocate@ABUD3DXVECTOR3@@@?$vector@UD3DXVECTOR3@@V?$allocator@UD3DXVECTOR3@@@std@@@std@@QAEPAUD3DXVECTOR3@@QAU2@ABU2@@Z PROC ; std::vector<D3DXVECTOR3,std::allocator<D3DXVECTOR3> >::_Emplace_reallocate<D3DXVECTOR3 const &>, COMDAT
; _this$ = ecx

; 725  :     pointer _Emplace_reallocate(const pointer _Whereptr, _Valty&&... _Val) {

  00000	55		 push	 ebp
  00001	8b ec		 mov	 ebp, esp
  00003	83 ec 0c	 sub	 esp, 12			; 0000000cH

; 726  :         // reallocate and insert by perfectly forwarding _Val at _Whereptr
; 727  :         _Alty& _Al        = _Getal();
; 728  :         auto& _My_data    = _Mypair._Myval2;
; 729  :         pointer& _Myfirst = _My_data._Myfirst;
; 730  :         pointer& _Mylast  = _My_data._Mylast;
; 731  : 
; 732  :         _STL_INTERNAL_CHECK(_Mylast == _My_data._Myend); // check that we have no unused capacity
; 733  : 
; 734  :         const auto _Whereoff = static_cast<size_type>(_Whereptr - _Myfirst);

  00006	8b 55 08	 mov	 edx, DWORD PTR __Whereptr$[ebp]
  00009	b8 ab aa aa 2a	 mov	 eax, 715827883		; 2aaaaaabH
  0000e	53		 push	 ebx
  0000f	56		 push	 esi
  00010	8b f1		 mov	 esi, ecx
  00012	57		 push	 edi
  00013	8b 3e		 mov	 edi, DWORD PTR [esi]
  00015	2b d7		 sub	 edx, edi

; 735  :         const auto _Oldsize  = static_cast<size_type>(_Mylast - _Myfirst);

  00017	8b 4e 04	 mov	 ecx, DWORD PTR [esi+4]
  0001a	f7 ea		 imul	 edx
  0001c	2b cf		 sub	 ecx, edi
  0001e	d1 fa		 sar	 edx, 1
  00020	8b c2		 mov	 eax, edx
  00022	c1 e8 1f	 shr	 eax, 31			; 0000001fH
  00025	03 c2		 add	 eax, edx
  00027	89 45 fc	 mov	 DWORD PTR __Whereoff$1$[ebp], eax
  0002a	b8 ab aa aa 2a	 mov	 eax, 715827883		; 2aaaaaabH
  0002f	f7 e9		 imul	 ecx
  00031	d1 fa		 sar	 edx, 1
  00033	8b c2		 mov	 eax, edx
  00035	c1 e8 1f	 shr	 eax, 31			; 0000001fH
  00038	03 c2		 add	 eax, edx
  0003a	89 45 f8	 mov	 DWORD PTR __Oldsize$1$[ebp], eax

; 736  : 
; 737  :         if (_Oldsize == max_size()) {

  0003d	3d 55 55 55 15	 cmp	 eax, 357913941		; 15555555H
  00042	0f 84 f0 00 00
	00		 je	 $LN41@Emplace_re

; 1494 :         return static_cast<size_type>(_My_data._Myend - _My_data._Myfirst);

  00048	8b 4e 08	 mov	 ecx, DWORD PTR [esi+8]

; 739  :         }
; 740  : 
; 741  :         const size_type _Newsize     = _Oldsize + 1;

  0004b	8d 58 01	 lea	 ebx, DWORD PTR [eax+1]

; 1494 :         return static_cast<size_type>(_My_data._Myend - _My_data._Myfirst);

  0004e	2b cf		 sub	 ecx, edi
  00050	b8 ab aa aa 2a	 mov	 eax, 715827883		; 2aaaaaabH
  00055	f7 e9		 imul	 ecx

; 1620 :         if (_Oldcapacity > _Max - _Oldcapacity / 2) {

  00057	b8 55 55 55 15	 mov	 eax, 357913941		; 15555555H

; 1494 :         return static_cast<size_type>(_My_data._Myend - _My_data._Myfirst);

  0005c	d1 fa		 sar	 edx, 1
  0005e	8b ca		 mov	 ecx, edx
  00060	c1 e9 1f	 shr	 ecx, 31			; 0000001fH
  00063	03 ca		 add	 ecx, edx

; 1620 :         if (_Oldcapacity > _Max - _Oldcapacity / 2) {

  00065	8b d1		 mov	 edx, ecx
  00067	d1 ea		 shr	 edx, 1
  00069	2b c2		 sub	 eax, edx
  0006b	3b c8		 cmp	 ecx, eax
  0006d	76 46		 jbe	 SHORT $LN12@Emplace_re

; 1621 :             return _Max; // geometric growth would overflow

  0006f	b9 55 55 55 15	 mov	 ecx, 357913941		; 15555555H
$LN20@Emplace_re:
; File C:\Program Files (x86)\Microsoft Visual Studio\2019\Community\VC\Tools\MSVC\14.28.29333\include\xmemory

; 65   :     return _Count * _Ty_size;

  00074	8d 04 49	 lea	 eax, DWORD PTR [ecx+ecx*2]
  00077	c1 e0 02	 shl	 eax, 2

; 814  :         return static_cast<_Ty*>(_Allocate<_New_alignof<_Ty>>(_Get_size_of_n<sizeof(_Ty)>(_Count)));

  0007a	50		 push	 eax

; 65   :     return _Count * _Ty_size;

  0007b	89 45 f4	 mov	 DWORD PTR tv375[ebp], eax

; 814  :         return static_cast<_Ty*>(_Allocate<_New_alignof<_Ty>>(_Get_size_of_n<sizeof(_Ty)>(_Count)));

  0007e	e8 00 00 00 00	 call	 ??$_Allocate@$07U_Default_allocate_traits@std@@$0A@@std@@YAPAXI@Z ; std::_Allocate<8,std::_Default_allocate_traits,0>
  00083	8b f8		 mov	 edi, eax
  00085	83 c4 04	 add	 esp, 4
; File C:\Program Files (x86)\Microsoft Visual Studio\2019\Community\VC\Tools\MSVC\14.28.29333\include\vector

; 749  :         _Alty_traits::construct(_Al, _Unfancy(_Newvec + _Whereoff), _STD forward<_Valty>(_Val)...);

  00088	8b 45 fc	 mov	 eax, DWORD PTR __Whereoff$1$[ebp]
  0008b	8d 04 40	 lea	 eax, DWORD PTR [eax+eax*2]
  0008e	8d 1c 87	 lea	 ebx, DWORD PTR [edi+eax*4]
; File C:\Program Files (x86)\Microsoft Visual Studio\2019\Community\VC\Tools\MSVC\14.28.29333\include\xmemory

; 701  :         ::new (const_cast<void*>(static_cast<const volatile void*>(_Ptr))) _Objty(_STD forward<_Types>(_Args)...);

  00091	8b 45 0c	 mov	 eax, DWORD PTR _<_Val_0>$[ebp]
; File C:\Program Files (x86)\Microsoft Visual Studio\2019\Community\VC\Tools\MSVC\14.28.29333\include\vector

; 749  :         _Alty_traits::construct(_Al, _Unfancy(_Newvec + _Whereoff), _STD forward<_Valty>(_Val)...);

  00094	89 5d fc	 mov	 DWORD PTR tv374[ebp], ebx
; File C:\Program Files (x86)\Microsoft Visual Studio\2019\Community\VC\Tools\MSVC\14.28.29333\include\xmemory

; 701  :         ::new (const_cast<void*>(static_cast<const volatile void*>(_Ptr))) _Objty(_STD forward<_Types>(_Args)...);

  00097	f3 0f 7e 00	 movq	 xmm0, QWORD PTR [eax]
  0009b	66 0f d6 03	 movq	 QWORD PTR [ebx], xmm0
  0009f	8b 40 08	 mov	 eax, DWORD PTR [eax+8]
  000a2	89 43 08	 mov	 DWORD PTR [ebx+8], eax
; File C:\Program Files (x86)\Microsoft Visual Studio\2019\Community\VC\Tools\MSVC\14.28.29333\include\vector

; 752  :         if (_Whereptr == _Mylast) { // at back, provide strong guarantee

  000a5	8b 56 04	 mov	 edx, DWORD PTR [esi+4]
  000a8	8b 45 08	 mov	 eax, DWORD PTR __Whereptr$[ebp]
  000ab	8b 0e		 mov	 ecx, DWORD PTR [esi]
  000ad	3b c2		 cmp	 eax, edx
  000af	75 18		 jne	 SHORT $LN4@Emplace_re

; 1597 :         _Uninitialized_move(_First, _Last, _Dest, _Getal());

  000b1	8b c7		 mov	 eax, edi

; 753  :             _Umove_if_noexcept(_Myfirst, _Mylast, _Newvec);
; 754  :         } else { // provide basic guarantee

  000b3	eb 29		 jmp	 SHORT $LN5@Emplace_re
$LN12@Emplace_re:

; 1624 :         const size_type _Geometric = _Oldcapacity + _Oldcapacity / 2;

  000b5	8d 04 0a	 lea	 eax, DWORD PTR [edx+ecx]
; File C:\Program Files (x86)\Microsoft Visual Studio\2019\Community\VC\Tools\MSVC\14.28.29333\include\xmemory

; 60   :         if (_Count > _Max_possible) {

  000b8	8b cb		 mov	 ecx, ebx
  000ba	3b c3		 cmp	 eax, ebx
  000bc	0f 43 c8	 cmovae	 ecx, eax
  000bf	81 f9 55 55 55
	15		 cmp	 ecx, 357913941		; 15555555H
  000c5	77 76		 ja	 SHORT $LN42@Emplace_re
  000c7	eb ab		 jmp	 SHORT $LN20@Emplace_re
$LN4@Emplace_re:
; File C:\Program Files (x86)\Microsoft Visual Studio\2019\Community\VC\Tools\MSVC\14.28.29333\include\vector

; 1592 :         return _Uninitialized_move(_First, _Last, _Dest, _Getal());

  000c9	56		 push	 esi
  000ca	57		 push	 edi
  000cb	50		 push	 eax
  000cc	51		 push	 ecx
  000cd	e8 00 00 00 00	 call	 ??$_Uninitialized_move@PAUD3DXVECTOR3@@V?$allocator@UD3DXVECTOR3@@@std@@@std@@YAPAUD3DXVECTOR3@@QAU1@0PAU1@AAV?$allocator@UD3DXVECTOR3@@@0@@Z ; std::_Uninitialized_move<D3DXVECTOR3 *,std::allocator<D3DXVECTOR3> >
  000d2	8b 4d 08	 mov	 ecx, DWORD PTR __Whereptr$[ebp]

; 755  :             _Umove(_Myfirst, _Whereptr, _Newvec);
; 756  :             _Constructed_first = _Newvec;
; 757  :             _Umove(_Whereptr, _Mylast, _Newvec + _Whereoff + 1);

  000d5	8d 43 0c	 lea	 eax, DWORD PTR [ebx+12]

; 1592 :         return _Uninitialized_move(_First, _Last, _Dest, _Getal());

  000d8	8b 56 04	 mov	 edx, DWORD PTR [esi+4]
  000db	83 c4 10	 add	 esp, 16			; 00000010H
$LN5@Emplace_re:

; 755  :             _Umove(_Myfirst, _Whereptr, _Newvec);
; 756  :             _Constructed_first = _Newvec;
; 757  :             _Umove(_Whereptr, _Mylast, _Newvec + _Whereoff + 1);

  000de	56		 push	 esi
  000df	50		 push	 eax
  000e0	52		 push	 edx
  000e1	51		 push	 ecx
  000e2	e8 00 00 00 00	 call	 ??$_Uninitialized_move@PAUD3DXVECTOR3@@V?$allocator@UD3DXVECTOR3@@@std@@@std@@YAPAUD3DXVECTOR3@@QAU1@0PAU1@AAV?$allocator@UD3DXVECTOR3@@@0@@Z ; std::_Uninitialized_move<D3DXVECTOR3 *,std::allocator<D3DXVECTOR3> >

; 1676 :         if (_Myfirst) { // destroy and deallocate old array

  000e7	8b 1e		 mov	 ebx, DWORD PTR [esi]

; 755  :             _Umove(_Myfirst, _Whereptr, _Newvec);
; 756  :             _Constructed_first = _Newvec;
; 757  :             _Umove(_Whereptr, _Mylast, _Newvec + _Whereoff + 1);

  000e9	83 c4 10	 add	 esp, 16			; 00000010H

; 1676 :         if (_Myfirst) { // destroy and deallocate old array

  000ec	85 db		 test	 ebx, ebx
  000ee	74 25		 je	 SHORT $LN35@Emplace_re

; 1677 :             _Destroy(_Myfirst, _Mylast);
; 1678 :             _Getal().deallocate(_Myfirst, static_cast<size_type>(_Myend - _Myfirst));

  000f0	8b 4e 08	 mov	 ecx, DWORD PTR [esi+8]
  000f3	b8 ab aa aa 2a	 mov	 eax, 715827883		; 2aaaaaabH
  000f8	2b cb		 sub	 ecx, ebx
  000fa	f7 e9		 imul	 ecx
  000fc	d1 fa		 sar	 edx, 1
  000fe	8b c2		 mov	 eax, edx
  00100	c1 e8 1f	 shr	 eax, 31			; 0000001fH
  00103	03 c2		 add	 eax, edx
; File C:\Program Files (x86)\Microsoft Visual Studio\2019\Community\VC\Tools\MSVC\14.28.29333\include\xmemory

; 810  :         _Deallocate<_New_alignof<_Ty>>(_Ptr, sizeof(_Ty) * _Count);

  00105	8d 04 40	 lea	 eax, DWORD PTR [eax+eax*2]
  00108	c1 e0 02	 shl	 eax, 2
  0010b	50		 push	 eax
  0010c	53		 push	 ebx
  0010d	e8 00 00 00 00	 call	 ??$_Deallocate@$07$0A@@std@@YAXPAXI@Z ; std::_Deallocate<8,0>
  00112	83 c4 08	 add	 esp, 8
$LN35@Emplace_re:
; File C:\Program Files (x86)\Microsoft Visual Studio\2019\Community\VC\Tools\MSVC\14.28.29333\include\vector

; 1682 :         _Mylast  = _Newvec + _Newsize;

  00115	8b 45 f8	 mov	 eax, DWORD PTR __Oldsize$1$[ebp]
  00118	40		 inc	 eax
  00119	89 3e		 mov	 DWORD PTR [esi], edi
  0011b	8d 0c 40	 lea	 ecx, DWORD PTR [eax+eax*2]

; 758  :         }
; 759  :         _CATCH_ALL
; 760  :         _Destroy(_Constructed_first, _Constructed_last);
; 761  :         _Al.deallocate(_Newvec, _Newcapacity);
; 762  :         _RERAISE;
; 763  :         _CATCH_END
; 764  : 
; 765  :         _Change_array(_Newvec, _Newsize, _Newcapacity);
; 766  :         return _Newvec + _Whereoff;

  0011e	8b 45 fc	 mov	 eax, DWORD PTR tv374[ebp]

; 1682 :         _Mylast  = _Newvec + _Newsize;

  00121	8d 0c 8f	 lea	 ecx, DWORD PTR [edi+ecx*4]
  00124	89 4e 04	 mov	 DWORD PTR [esi+4], ecx

; 1683 :         _Myend   = _Newvec + _Newcapacity;

  00127	8b 4d f4	 mov	 ecx, DWORD PTR tv375[ebp]
  0012a	03 cf		 add	 ecx, edi

; 758  :         }
; 759  :         _CATCH_ALL
; 760  :         _Destroy(_Constructed_first, _Constructed_last);
; 761  :         _Al.deallocate(_Newvec, _Newcapacity);
; 762  :         _RERAISE;
; 763  :         _CATCH_END
; 764  : 
; 765  :         _Change_array(_Newvec, _Newsize, _Newcapacity);
; 766  :         return _Newvec + _Whereoff;

  0012c	5f		 pop	 edi

; 1683 :         _Myend   = _Newvec + _Newcapacity;

  0012d	89 4e 08	 mov	 DWORD PTR [esi+8], ecx

; 758  :         }
; 759  :         _CATCH_ALL
; 760  :         _Destroy(_Constructed_first, _Constructed_last);
; 761  :         _Al.deallocate(_Newvec, _Newcapacity);
; 762  :         _RERAISE;
; 763  :         _CATCH_END
; 764  : 
; 765  :         _Change_array(_Newvec, _Newsize, _Newcapacity);
; 766  :         return _Newvec + _Whereoff;

  00130	5e		 pop	 esi
  00131	5b		 pop	 ebx

; 767  :     }

  00132	8b e5		 mov	 esp, ebp
  00134	5d		 pop	 ebp
  00135	c2 08 00	 ret	 8
$LN41@Emplace_re:

; 738  :             _Xlength();

  00138	e8 00 00 00 00	 call	 ?_Xlength@?$vector@UD3DXVECTOR3@@V?$allocator@UD3DXVECTOR3@@@std@@@std@@CAXXZ ; std::vector<D3DXVECTOR3,std::allocator<D3DXVECTOR3> >::_Xlength
$LN42@Emplace_re:
; File C:\Program Files (x86)\Microsoft Visual Studio\2019\Community\VC\Tools\MSVC\14.28.29333\include\xmemory

; 61   :             _Throw_bad_array_new_length(); // multiply overflow

  0013d	e8 00 00 00 00	 call	 ?_Throw_bad_array_new_length@std@@YAXXZ ; std::_Throw_bad_array_new_length
$LN39@Emplace_re:
  00142	cc		 int	 3
??$_Emplace_reallocate@ABUD3DXVECTOR3@@@?$vector@UD3DXVECTOR3@@V?$allocator@UD3DXVECTOR3@@@std@@@std@@QAEPAUD3DXVECTOR3@@QAU2@ABU2@@Z ENDP ; std::vector<D3DXVECTOR3,std::allocator<D3DXVECTOR3> >::_Emplace_reallocate<D3DXVECTOR3 const &>
_TEXT	ENDS
; Function compile flags: /Ogtp
; File D:\Metin2 Server Files\mainline\SRC_2014\Metin2Client\UserInterface\CameraProcedure.cpp
; File D:\Metin2 Server Files\mainline\SRC_2014\M2Data\include\d3dx8math.inl
; File D:\Metin2 Server Files\mainline\SRC_2014\Metin2Client\UserInterface\CameraProcedure.cpp
; File D:\Metin2 Server Files\mainline\SRC_2014\M2Data\include\d3dx8math.inl
; File D:\Metin2 Server Files\mainline\SRC_2014\Metin2Client\UserInterface\CameraProcedure.cpp
; File D:\Metin2 Server Files\mainline\SRC_2014\M2Data\include\d3dx8math.inl
; File C:\Program Files (x86)\Microsoft Visual Studio\2019\Community\VC\Tools\MSVC\14.28.29333\include\vector
; File D:\Metin2 Server Files\mainline\SRC_2014\M2Data\include\d3dx8math.inl
; File C:\Program Files (x86)\Microsoft Visual Studio\2019\Community\VC\Tools\MSVC\14.28.29333\include\vector
; File D:\Metin2 Server Files\mainline\SRC_2014\Metin2Client\SphereLib\vector.h
; File D:\Metin2 Server Files\mainline\SRC_2014\M2Data\include\d3dx8math.inl
; File D:\Metin2 Server Files\mainline\SRC_2014\Metin2Client\SphereLib\vector.h
; File D:\Metin2 Server Files\mainline\SRC_2014\M2Data\include\d3dx8math.inl
; File D:\Metin2 Server Files\mainline\SRC_2014\Metin2Client\SphereLib\vector.h
; File D:\Metin2 Server Files\mainline\SRC_2014\M2Data\include\d3dx8math.inl
; File D:\Metin2 Server Files\mainline\SRC_2014\Metin2Client\UserInterface\CameraProcedure.cpp
; File C:\Program Files (x86)\Microsoft Visual Studio\2019\Community\VC\Tools\MSVC\14.28.29333\include\vector
; File D:\Metin2 Server Files\mainline\SRC_2014\Metin2Client\UserInterface\CameraProcedure.cpp
; File D:\Metin2 Server Files\mainline\SRC_2014\Metin2Client\eterlib\CullingManager.h
; File D:\Metin2 Server Files\mainline\SRC_2014\Metin2Client\UserInterface\CameraProcedure.cpp
; File D:\Metin2 Server Files\mainline\SRC_2014\Metin2Client\eterlib\CullingManager.h
; File D:\Metin2 Server Files\mainline\SRC_2014\Metin2Client\UserInterface\CameraProcedure.cpp
; File C:\Program Files (x86)\Microsoft Visual Studio\2019\Community\VC\Tools\MSVC\14.28.29333\include\vector
; File D:\Metin2 Server Files\mainline\SRC_2014\Metin2Client\UserInterface\CameraProcedure.cpp
; File D:\Metin2 Server Files\mainline\SRC_2014\M2Data\include\d3dx8math.inl
; File D:\Metin2 Server Files\mainline\SRC_2014\Metin2Client\UserInterface\CameraProcedure.cpp
; File C:\Program Files (x86)\Microsoft Visual Studio\2019\Community\VC\Tools\MSVC\14.28.29333\include\vector
; File C:\Program Files (x86)\Microsoft Visual Studio\2019\Community\VC\Tools\MSVC\14.28.29333\include\xmemory
; File D:\Metin2 Server Files\mainline\SRC_2014\Metin2Client\UserInterface\CameraProcedure.cpp
; File D:\Metin2 Server Files\mainline\SRC_2014\M2Data\include\d3dx8math.inl
; File D:\Metin2 Server Files\mainline\SRC_2014\Metin2Client\UserInterface\CameraProcedure.cpp
; File D:\Metin2 Server Files\mainline\SRC_2014\M2Data\include\d3dx8math.inl
; File D:\Metin2 Server Files\mainline\SRC_2014\Metin2Client\UserInterface\CameraProcedure.cpp
; File D:\Metin2 Server Files\mainline\SRC_2014\M2Data\include\d3dx8math.inl
; File C:\Program Files (x86)\Microsoft Visual Studio\2019\Community\VC\Tools\MSVC\14.28.29333\include\vector
; File D:\Metin2 Server Files\mainline\SRC_2014\M2Data\include\d3dx8math.inl
; File D:\Metin2 Server Files\mainline\SRC_2014\Metin2Client\UserInterface\CameraProcedure.cpp
; File D:\Metin2 Server Files\mainline\SRC_2014\Metin2Client\eterlib\CullingManager.h
; File D:\Metin2 Server Files\mainline\SRC_2014\Metin2Client\UserInterface\CameraProcedure.cpp
; File D:\Metin2 Server Files\mainline\SRC_2014\Metin2Client\eterlib\CullingManager.h
; File D:\Metin2 Server Files\mainline\SRC_2014\Metin2Client\UserInterface\CameraProcedure.cpp
; File D:\Metin2 Server Files\mainline\SRC_2014\Metin2Client\eterlib\CullingManager.h
; File D:\Metin2 Server Files\mainline\SRC_2014\Metin2Client\UserInterface\CameraProcedure.cpp
; File C:\Program Files (x86)\Microsoft Visual Studio\2019\Community\VC\Tools\MSVC\14.28.29333\include\vector
; File C:\Program Files (x86)\Microsoft Visual Studio\2019\Community\VC\Tools\MSVC\14.28.29333\include\xmemory
; File D:\Metin2 Server Files\mainline\SRC_2014\Metin2Client\UserInterface\CameraProcedure.cpp
; File D:\Metin2 Server Files\mainline\SRC_2014\M2Data\include\d3dx8math.inl
; File D:\Metin2 Server Files\mainline\SRC_2014\Metin2Client\UserInterface\CameraProcedure.cpp
; File C:\Program Files (x86)\Microsoft Visual Studio\2019\Community\VC\Tools\MSVC\14.28.29333\include\vector
; File D:\Metin2 Server Files\mainline\SRC_2014\M2Data\include\d3dx8math.inl
; File C:\Program Files (x86)\Microsoft Visual Studio\2019\Community\VC\Tools\MSVC\14.28.29333\include\vector
; File D:\Metin2 Server Files\mainline\SRC_2014\M2Data\include\d3dx8math.inl
; File C:\Program Files (x86)\Microsoft Visual Studio\2019\Community\VC\Tools\MSVC\14.28.29333\include\vector
; File D:\Metin2 Server Files\mainline\SRC_2014\M2Data\include\d3dx8math.inl
; File D:\Metin2 Server Files\mainline\SRC_2014\Metin2Client\UserInterface\CameraProcedure.cpp
; File D:\Metin2 Server Files\mainline\SRC_2014\Metin2Client\eterlib\CullingManager.h
; File D:\Metin2 Server Files\mainline\SRC_2014\Metin2Client\UserInterface\CameraProcedure.cpp
; File D:\Metin2 Server Files\mainline\SRC_2014\Metin2Client\eterlib\CullingManager.h
; File D:\Metin2 Server Files\mainline\SRC_2014\Metin2Client\UserInterface\CameraProcedure.cpp
; File C:\Program Files (x86)\Microsoft Visual Studio\2019\Community\VC\Tools\MSVC\14.28.29333\include\vector
; File C:\Program Files (x86)\Microsoft Visual Studio\2019\Community\VC\Tools\MSVC\14.28.29333\include\xmemory
; File D:\Metin2 Server Files\mainline\SRC_2014\Metin2Client\UserInterface\CameraProcedure.cpp
; File D:\Metin2 Server Files\mainline\SRC_2014\M2Data\include\d3dx8math.inl
; File D:\Metin2 Server Files\mainline\SRC_2014\Metin2Client\UserInterface\CameraProcedure.cpp
; File C:\Program Files (x86)\Microsoft Visual Studio\2019\Community\VC\Tools\MSVC\14.28.29333\include\vector
; File D:\Metin2 Server Files\mainline\SRC_2014\M2Data\include\d3dx8math.inl
; File C:\Program Files (x86)\Microsoft Visual Studio\2019\Community\VC\Tools\MSVC\14.28.29333\include\vector
; File D:\Metin2 Server Files\mainline\SRC_2014\M2Data\include\d3dx8math.inl
; File C:\Program Files (x86)\Microsoft Visual Studio\2019\Community\VC\Tools\MSVC\14.28.29333\include\vector
; File D:\Metin2 Server Files\mainline\SRC_2014\M2Data\include\d3dx8math.inl
; File D:\Metin2 Server Files\mainline\SRC_2014\Metin2Client\UserInterface\CameraProcedure.cpp
; File D:\Metin2 Server Files\mainline\SRC_2014\Metin2Client\eterlib\CullingManager.h
; File D:\Metin2 Server Files\mainline\SRC_2014\Metin2Client\UserInterface\CameraProcedure.cpp
; File D:\Metin2 Server Files\mainline\SRC_2014\Metin2Client\eterlib\CullingManager.h
; File D:\Metin2 Server Files\mainline\SRC_2014\Metin2Client\UserInterface\CameraProcedure.cpp
; File C:\Program Files (x86)\Microsoft Visual Studio\2019\Community\VC\Tools\MSVC\14.28.29333\include\vector
; File C:\Program Files (x86)\Microsoft Visual Studio\2019\Community\VC\Tools\MSVC\14.28.29333\include\xmemory
; File D:\Metin2 Server Files\mainline\SRC_2014\Metin2Client\UserInterface\CameraProcedure.cpp
; File D:\Metin2 Server Files\mainline\SRC_2014\M2Data\include\d3dx8math.inl
; File D:\Metin2 Server Files\mainline\SRC_2014\Metin2Client\UserInterface\CameraProcedure.cpp
; File D:\Metin2 Server Files\mainline\SRC_2014\M2Data\include\d3dx8math.inl
; File C:\Program Files (x86)\Microsoft Visual Studio\2019\Community\VC\Tools\MSVC\14.28.29333\include\vector
; File D:\Metin2 Server Files\mainline\SRC_2014\M2Data\include\d3dx8math.inl
; File C:\Program Files (x86)\Microsoft Visual Studio\2019\Community\VC\Tools\MSVC\14.28.29333\include\vector
; File D:\Metin2 Server Files\mainline\SRC_2014\M2Data\include\d3dx8math.inl
; File D:\Metin2 Server Files\mainline\SRC_2014\Metin2Client\UserInterface\CameraProcedure.cpp
; File D:\Metin2 Server Files\mainline\SRC_2014\Metin2Client\eterlib\CullingManager.h
; File D:\Metin2 Server Files\mainline\SRC_2014\Metin2Client\UserInterface\CameraProcedure.cpp
; File D:\Metin2 Server Files\mainline\SRC_2014\Metin2Client\eterlib\CullingManager.h
; File D:\Metin2 Server Files\mainline\SRC_2014\Metin2Client\UserInterface\CameraProcedure.cpp
; File C:\Program Files (x86)\Microsoft Visual Studio\2019\Community\VC\Tools\MSVC\14.28.29333\include\vector
; File C:\Program Files (x86)\Microsoft Visual Studio\2019\Community\VC\Tools\MSVC\14.28.29333\include\xmemory
; File D:\Metin2 Server Files\mainline\SRC_2014\Metin2Client\UserInterface\CameraProcedure.cpp
; File D:\Metin2 Server Files\mainline\SRC_2014\M2Data\include\d3dx8math.inl
; File D:\Metin2 Server Files\mainline\SRC_2014\Metin2Client\UserInterface\CameraProcedure.cpp
; File C:\Program Files (x86)\Microsoft Visual Studio\2019\Community\VC\Tools\MSVC\14.28.29333\include\vector
; File D:\Metin2 Server Files\mainline\SRC_2014\M2Data\include\d3dx8math.inl
; File C:\Program Files (x86)\Microsoft Visual Studio\2019\Community\VC\Tools\MSVC\14.28.29333\include\vector
; File D:\Metin2 Server Files\mainline\SRC_2014\M2Data\include\d3dx8math.inl
; File C:\Program Files (x86)\Microsoft Visual Studio\2019\Community\VC\Tools\MSVC\14.28.29333\include\vector
; File D:\Metin2 Server Files\mainline\SRC_2014\M2Data\include\d3dx8math.inl
; File D:\Metin2 Server Files\mainline\SRC_2014\Metin2Client\UserInterface\CameraProcedure.cpp
; File D:\Metin2 Server Files\mainline\SRC_2014\Metin2Client\eterlib\CullingManager.h
; File D:\Metin2 Server Files\mainline\SRC_2014\Metin2Client\UserInterface\CameraProcedure.cpp
; File D:\Metin2 Server Files\mainline\SRC_2014\Metin2Client\eterlib\CullingManager.h
; File D:\Metin2 Server Files\mainline\SRC_2014\Metin2Client\UserInterface\CameraProcedure.cpp
; File C:\Program Files (x86)\Microsoft Visual Studio\2019\Community\VC\Tools\MSVC\14.28.29333\include\vector
; File D:\Metin2 Server Files\mainline\SRC_2014\Metin2Client\UserInterface\CameraProcedure.cpp
; File D:\Metin2 Server Files\mainline\SRC_2014\M2Data\include\d3dx8math.inl
; File D:\Metin2 Server Files\mainline\SRC_2014\Metin2Client\UserInterface\CameraProcedure.cpp
; File C:\Program Files (x86)\Microsoft Visual Studio\2019\Community\VC\Tools\MSVC\14.28.29333\include\vector
; File C:\Program Files (x86)\Microsoft Visual Studio\2019\Community\VC\Tools\MSVC\14.28.29333\include\xmemory
; File D:\Metin2 Server Files\mainline\SRC_2014\Metin2Client\UserInterface\CameraProcedure.cpp
;	COMDAT ?ProcessBuildingCollision@CCamera@@AAEXXZ
_TEXT	SEGMENT
_r$2 = -92						; size = 12
_r$3 = -92						; size = 12
_r$4 = -92						; size = 12
_r$5 = -92						; size = 12
_r$6 = -92						; size = 12
_r$7 = -92						; size = 12
_kCameraCollisionChecker$8 = -80			; size = 12
_kCameraCollisionChecker$9 = -80			; size = 12
_kCameraCollisionChecker$10 = -80			; size = 12
_kCameraCollisionChecker$11 = -80			; size = 12
_kCameraCollisionChecker$12 = -80			; size = 12
_kCameraCollisionChecker$13 = -80			; size = 12
_kVct_kPosition$14 = -68				; size = 12
_kVct_kPosition$15 = -68				; size = 12
_kVct_kPosition$16 = -68				; size = 12
_kVct_kPosition$17 = -68				; size = 12
_kVct_kPosition$18 = -68				; size = 12
_kVct_kPosition$19 = -68				; size = 12
_aVector3d$ = -56					; size = 12
_s$ = -44						; size = 28
__$ArrayPad$ = -16					; size = 4
__$EHRec$ = -12						; size = 12
?ProcessBuildingCollision@CCamera@@AAEXXZ PROC		; CCamera::ProcessBuildingCollision, COMDAT
; _this$ = ecx

; 125  : {

  00000	55		 push	 ebp
  00001	8b ec		 mov	 ebp, esp
  00003	6a ff		 push	 -1
  00005	68 00 00 00 00	 push	 __ehhandler$?ProcessBuildingCollision@CCamera@@AAEXXZ
  0000a	64 a1 00 00 00
	00		 mov	 eax, DWORD PTR fs:0
  00010	50		 push	 eax
  00011	83 ec 50	 sub	 esp, 80			; 00000050H
  00014	a1 00 00 00 00	 mov	 eax, DWORD PTR ___security_cookie
  00019	33 c5		 xor	 eax, ebp
  0001b	89 45 f0	 mov	 DWORD PTR __$ArrayPad$[ebp], eax
  0001e	53		 push	 ebx
  0001f	56		 push	 esi
  00020	57		 push	 edi
  00021	50		 push	 eax
  00022	8d 45 f4	 lea	 eax, DWORD PTR __$EHRec$[ebp]
  00025	64 a3 00 00 00
	00		 mov	 DWORD PTR fs:0, eax
  0002b	8b f1		 mov	 esi, ecx

; 133  : 	s.v3LastPosition = m_v3Eye;

  0002d	f3 0f 7e 46 30	 movq	 xmm0, QWORD PTR [esi+48]
  00032	f3 0f 10 b6 f4
	02 00 00	 movss	 xmm6, DWORD PTR [esi+756]
; File D:\Metin2 Server Files\mainline\SRC_2014\M2Data\include\d3dx8math.inl

; 283  :     return D3DXVECTOR3(f * v.x, f * v.y, f * v.z);

  0003a	f3 0f 10 4e 58	 movss	 xmm1, DWORD PTR [esi+88]
  0003f	f3 0f 10 56 5c	 movss	 xmm2, DWORD PTR [esi+92]
; File D:\Metin2 Server Files\mainline\SRC_2014\Metin2Client\UserInterface\CameraProcedure.cpp

; 136  : 	aVector3d.Set(m_v3Eye.x, m_v3Eye.y, m_v3Eye.z);

  00044	f3 0f 10 66 30	 movss	 xmm4, DWORD PTR [esi+48]
  00049	f3 0f 10 6e 34	 movss	 xmm5, DWORD PTR [esi+52]
  0004e	f3 0f 10 5e 38	 movss	 xmm3, DWORD PTR [esi+56]
  00053	8b 46 38	 mov	 eax, DWORD PTR [esi+56]

; 137  : 
; 138  : 	// 
; 139  : 
; 140  : 	CCullingManager & rkCullingMgr = CCullingManager::Instance();

  00056	8b 1d 00 00 00
	00		 mov	 ebx, DWORD PTR ?ms_singleton@?$CSingleton@VCCullingManager@@@@0PAVCCullingManager@@A ; CSingleton<CCullingManager>::ms_singleton
  0005c	66 0f d6 45 e0	 movq	 QWORD PTR _s$[ebp+12], xmm0
; File D:\Metin2 Server Files\mainline\SRC_2014\M2Data\include\d3dx8math.inl

; 283  :     return D3DXVECTOR3(f * v.x, f * v.y, f * v.z);

  00061	f3 0f 10 46 54	 movss	 xmm0, DWORD PTR [esi+84]
  00066	f3 0f 59 c6	 mulss	 xmm0, xmm6
; File D:\Metin2 Server Files\mainline\SRC_2014\Metin2Client\UserInterface\CameraProcedure.cpp

; 133  : 	s.v3LastPosition = m_v3Eye;

  0006a	89 45 e8	 mov	 DWORD PTR _s$[ebp+20], eax
; File D:\Metin2 Server Files\mainline\SRC_2014\M2Data\include\d3dx8math.inl

; 283  :     return D3DXVECTOR3(f * v.x, f * v.y, f * v.z);

  0006d	f3 0f 59 ce	 mulss	 xmm1, xmm6
; File C:\Program Files (x86)\Microsoft Visual Studio\2019\Community\VC\Tools\MSVC\14.28.29333\include\vector

; 375  :     _Vector_val() noexcept : _Myfirst(), _Mylast(), _Myend() {}

  00071	c7 45 bc 00 00
	00 00		 mov	 DWORD PTR _kVct_kPosition$19[ebp], 0
; File D:\Metin2 Server Files\mainline\SRC_2014\M2Data\include\d3dx8math.inl

; 283  :     return D3DXVECTOR3(f * v.x, f * v.y, f * v.z);

  00078	f3 0f 59 d6	 mulss	 xmm2, xmm6
; File C:\Program Files (x86)\Microsoft Visual Studio\2019\Community\VC\Tools\MSVC\14.28.29333\include\vector

; 375  :     _Vector_val() noexcept : _Myfirst(), _Mylast(), _Myend() {}

  0007c	c7 45 c0 00 00
	00 00		 mov	 DWORD PTR _kVct_kPosition$19[ebp+4], 0
; File D:\Metin2 Server Files\mainline\SRC_2014\Metin2Client\SphereLib\vector.h

; 107  : 		x = a;

  00083	f3 0f 11 65 c8	 movss	 DWORD PTR _aVector3d$[ebp], xmm4
; File D:\Metin2 Server Files\mainline\SRC_2014\M2Data\include\d3dx8math.inl

; 263  :     return D3DXVECTOR3(x - v.x, y - v.y, z - v.z);

  00088	f3 0f 5c e0	 subss	 xmm4, xmm0
; File D:\Metin2 Server Files\mainline\SRC_2014\Metin2Client\SphereLib\vector.h

; 108  : 		y = b;

  0008c	f3 0f 11 6d cc	 movss	 DWORD PTR _aVector3d$[ebp+4], xmm5
; File D:\Metin2 Server Files\mainline\SRC_2014\M2Data\include\d3dx8math.inl

; 263  :     return D3DXVECTOR3(x - v.x, y - v.y, z - v.z);

  00091	f3 0f 5c e9	 subss	 xmm5, xmm1
; File D:\Metin2 Server Files\mainline\SRC_2014\Metin2Client\SphereLib\vector.h

; 109  : 		z = c;

  00095	f3 0f 11 5d d0	 movss	 DWORD PTR _aVector3d$[ebp+8], xmm3
; File D:\Metin2 Server Files\mainline\SRC_2014\M2Data\include\d3dx8math.inl

; 263  :     return D3DXVECTOR3(x - v.x, y - v.y, z - v.z);

  0009a	f3 0f 5c da	 subss	 xmm3, xmm2
; File D:\Metin2 Server Files\mainline\SRC_2014\Metin2Client\UserInterface\CameraProcedure.cpp

; 132  : 	s.fRadius = m_fObjectCollisionRadius;

  0009e	f3 0f 11 75 ec	 movss	 DWORD PTR _s$[ebp+24], xmm6
; File C:\Program Files (x86)\Microsoft Visual Studio\2019\Community\VC\Tools\MSVC\14.28.29333\include\vector

; 375  :     _Vector_val() noexcept : _Myfirst(), _Mylast(), _Myend() {}

  000a3	c7 45 c4 00 00
	00 00		 mov	 DWORD PTR _kVct_kPosition$19[ebp+8], 0
; File D:\Metin2 Server Files\mainline\SRC_2014\Metin2Client\UserInterface\CameraProcedure.cpp

; 144  : 		s.v3Position = v3CheckVector;

  000aa	f3 0f 11 65 d4	 movss	 DWORD PTR _s$[ebp], xmm4
  000af	f3 0f 11 6d d8	 movss	 DWORD PTR _s$[ebp+4], xmm5
  000b4	f3 0f 11 5d dc	 movss	 DWORD PTR _s$[ebp+8], xmm3

; 111  : 	CameraCollisionChecker(CDynamicSphereInstance * pdsi, std::vector<D3DXVECTOR3>* pkVct_v3Position) : m_pdsi(pdsi), m_pkVct_v3Position(pkVct_v3Position), m_isBlocked(false) 

  000b9	8d 45 bc	 lea	 eax, DWORD PTR _kVct_kPosition$19[ebp]

; 145  : 
; 146  : 		std::vector<D3DXVECTOR3> kVct_kPosition;

  000bc	c7 45 fc 00 00
	00 00		 mov	 DWORD PTR __$EHRec$[ebp+8], 0

; 111  : 	CameraCollisionChecker(CDynamicSphereInstance * pdsi, std::vector<D3DXVECTOR3>* pkVct_v3Position) : m_pdsi(pdsi), m_pkVct_v3Position(pkVct_v3Position), m_isBlocked(false) 

  000c3	89 45 b4	 mov	 DWORD PTR _kCameraCollisionChecker$13[ebp+4], eax
  000c6	8d 45 d4	 lea	 eax, DWORD PTR _s$[ebp]
  000c9	89 45 b8	 mov	 DWORD PTR _kCameraCollisionChecker$13[ebp+8], eax
; File D:\Metin2 Server Files\mainline\SRC_2014\Metin2Client\eterlib\CullingManager.h

; 15   : 		: f(fn), dist(distance)

  000cc	8d 45 b0	 lea	 eax, DWORD PTR _kCameraCollisionChecker$13[ebp]
; File D:\Metin2 Server Files\mainline\SRC_2014\Metin2Client\UserInterface\CameraProcedure.cpp

; 111  : 	CameraCollisionChecker(CDynamicSphereInstance * pdsi, std::vector<D3DXVECTOR3>* pkVct_v3Position) : m_pdsi(pdsi), m_pkVct_v3Position(pkVct_v3Position), m_isBlocked(false) 

  000cf	c6 45 b0 00	 mov	 BYTE PTR _kCameraCollisionChecker$13[ebp], 0
; File D:\Metin2 Server Files\mainline\SRC_2014\Metin2Client\eterlib\CullingManager.h

; 16   : 	{}

  000d3	c7 45 a4 00 00
	00 00		 mov	 DWORD PTR _r$7[ebp], OFFSET ??_7?$RangeTester@UCameraCollisionChecker@@@@6B@

; 15   : 		: f(fn), dist(distance)

  000da	89 45 a8	 mov	 DWORD PTR _r$7[ebp+4], eax
  000dd	c7 45 ac 00 00
	80 bf		 mov	 DWORD PTR _r$7[ebp+8], -1082130432 ; bf800000H

; 114  : 		m_Factory->RangeTest(p, radius, &r/*this*/);	

  000e4	8d 45 a4	 lea	 eax, DWORD PTR _r$7[ebp]
  000e7	c6 45 fc 01	 mov	 BYTE PTR __$EHRec$[ebp+8], 1
  000eb	50		 push	 eax
  000ec	51		 push	 ecx
  000ed	8b 4b 1c	 mov	 ecx, DWORD PTR [ebx+28]
  000f0	8d 45 c8	 lea	 eax, DWORD PTR _aVector3d$[ebp]
  000f3	f3 0f 11 34 24	 movss	 DWORD PTR [esp], xmm6
  000f8	50		 push	 eax
  000f9	e8 00 00 00 00	 call	 ?RangeTest@SpherePackFactory@@QAEXABVVector3d@@MPAVSpherePackCallback@@@Z ; SpherePackFactory::RangeTest
; File D:\Metin2 Server Files\mainline\SRC_2014\Metin2Client\UserInterface\CameraProcedure.cpp

; 151  : 		if (bCollide)

  000fe	80 7d b0 00	 cmp	 BYTE PTR _kCameraCollisionChecker$13[ebp], 0
  00102	8b 7d bc	 mov	 edi, DWORD PTR _kVct_kPosition$19[ebp]
  00105	0f 84 11 01 00
	00		 je	 $LN9@ProcessBui

; 152  : 		{
; 153  : 			if (m_v3AngularVelocity.y > 0.0f)

  0010b	f3 0f 10 86 28
	03 00 00	 movss	 xmm0, DWORD PTR [esi+808]
  00113	0f 2f 05 00 00
	00 00		 comiss	 xmm0, DWORD PTR __real@00000000
  0011a	76 22		 jbe	 SHORT $LN240@ProcessBui

; 154  : 			{
; 155  : 				m_v3AngularVelocity.y = 0.0f;
; 156  : 				m_v3AngularVelocity.z += fMoveAmountLarge;

  0011c	f3 0f 10 86 2c
	03 00 00	 movss	 xmm0, DWORD PTR [esi+812]
  00124	f3 0f 58 05 00
	00 00 00	 addss	 xmm0, DWORD PTR __real@40800000
  0012c	c7 86 28 03 00
	00 00 00 00 00	 mov	 DWORD PTR [esi+808], 0
  00136	f3 0f 11 86 2c
	03 00 00	 movss	 DWORD PTR [esi+812], xmm0
$LN240@ProcessBui:
; File C:\Program Files (x86)\Microsoft Visual Studio\2019\Community\VC\Tools\MSVC\14.28.29333\include\vector

; 1484 :         return static_cast<size_type>(_My_data._Mylast - _My_data._Myfirst);

  0013e	8b 4d c0	 mov	 ecx, DWORD PTR _kVct_kPosition$19[ebp+4]
  00141	b8 ab aa aa 2a	 mov	 eax, 715827883		; 2aaaaaabH
  00146	2b cf		 sub	 ecx, edi
  00148	f7 e9		 imul	 ecx
  0014a	d1 fa		 sar	 edx, 1
  0014c	8b c2		 mov	 eax, edx
  0014e	c1 e8 1f	 shr	 eax, 31			; 0000001fH
  00151	03 c2		 add	 eax, edx
; File D:\Metin2 Server Files\mainline\SRC_2014\Metin2Client\UserInterface\CameraProcedure.cpp

; 161  : 			if (kVct_kPosition.size() > 1)

  00153	83 f8 01	 cmp	 eax, 1
  00156	0f 87 a8 00 00
	00		 ja	 $LN8@ProcessBui
; File D:\Metin2 Server Files\mainline\SRC_2014\M2Data\include\d3dx8math.inl

; 263  :     return D3DXVECTOR3(x - v.x, y - v.y, z - v.z);

  0015c	f3 0f 10 37	 movss	 xmm6, DWORD PTR [edi]
  00160	f3 0f 5c 76 30	 subss	 xmm6, DWORD PTR [esi+48]
  00165	f3 0f 10 67 08	 movss	 xmm4, DWORD PTR [edi+8]
  0016a	f3 0f 5c 66 38	 subss	 xmm4, DWORD PTR [esi+56]
  0016f	f3 0f 10 6f 04	 movss	 xmm5, DWORD PTR [edi+4]
  00174	f3 0f 5c 6e 34	 subss	 xmm5, DWORD PTR [esi+52]

; 1278 :     v.y = pV1->z * pV2->x - pV1->x * pV2->z;

  00179	0f 28 c6	 movaps	 xmm0, xmm6

; 1279 :     v.z = pV1->x * pV2->y - pV1->y * pV2->x;

  0017c	f3 0f 59 76 58	 mulss	 xmm6, DWORD PTR [esi+88]
  00181	f3 0f 59 46 5c	 mulss	 xmm0, DWORD PTR [esi+92]
  00186	0f 28 fc	 movaps	 xmm7, xmm4
  00189	f3 0f 59 7e 54	 mulss	 xmm7, DWORD PTR [esi+84]
  0018e	f3 0f 59 66 58	 mulss	 xmm4, DWORD PTR [esi+88]
  00193	f3 0f 5c f8	 subss	 xmm7, xmm0
  00197	0f 28 c5	 movaps	 xmm0, xmm5
  0019a	f3 0f 59 46 5c	 mulss	 xmm0, DWORD PTR [esi+92]
  0019f	f3 0f 59 6e 54	 mulss	 xmm5, DWORD PTR [esi+84]

; 1264 :     return pV1->x * pV2->x + pV1->y * pV2->y + pV1->z * pV2->z;

  001a4	f3 0f 59 7e 4c	 mulss	 xmm7, DWORD PTR [esi+76]

; 1277 :     v.x = pV1->y * pV2->z - pV1->z * pV2->y;

  001a9	f3 0f 5c c4	 subss	 xmm0, xmm4

; 1279 :     v.z = pV1->x * pV2->y - pV1->y * pV2->x;

  001ad	f3 0f 5c f5	 subss	 xmm6, xmm5

; 1264 :     return pV1->x * pV2->x + pV1->y * pV2->y + pV1->z * pV2->z;

  001b1	f3 0f 59 46 48	 mulss	 xmm0, DWORD PTR [esi+72]
  001b6	f3 0f 59 76 50	 mulss	 xmm6, DWORD PTR [esi+80]
  001bb	f3 0f 58 f8	 addss	 xmm7, xmm0
  001bf	0f 57 c0	 xorps	 xmm0, xmm0
  001c2	f3 0f 58 fe	 addss	 xmm7, xmm6
; File D:\Metin2 Server Files\mainline\SRC_2014\Metin2Client\UserInterface\CameraProcedure.cpp

; 170  : 				if (fDot < 0)

  001c6	0f 2f c7	 comiss	 xmm0, xmm7
  001c9	76 1a		 jbe	 SHORT $LN6@ProcessBui

; 171  : 				{
; 172  : 	//				m_v3AngularVelocity.x = fMIN(-fMoveAmountSmall, m_v3AngularVelocity.x);
; 173  :  					m_v3AngularVelocity.x -= fMoveAmountSmall;

  001cb	f3 0f 10 86 24
	03 00 00	 movss	 xmm0, DWORD PTR [esi+804]
  001d3	f3 0f 5c 05 00
	00 00 00	 subss	 xmm0, DWORD PTR __real@40000000
  001db	f3 0f 11 86 24
	03 00 00	 movss	 DWORD PTR [esi+804], xmm0

; 174  : 				}

  001e3	eb 37		 jmp	 SHORT $LN9@ProcessBui
$LN6@ProcessBui:

; 175  : 				else if(fDot > 0)

  001e5	0f 2f f8	 comiss	 xmm7, xmm0
  001e8	76 1a		 jbe	 SHORT $LN8@ProcessBui

; 176  : 				{
; 177  : 	//				m_v3AngularVelocity.x = fMAX(fMoveAmountSmall, m_v3AngularVelocity.x);
; 178  :  					m_v3AngularVelocity.x += fMoveAmountSmall;

  001ea	f3 0f 10 86 24
	03 00 00	 movss	 xmm0, DWORD PTR [esi+804]
  001f2	f3 0f 58 05 00
	00 00 00	 addss	 xmm0, DWORD PTR __real@40000000
  001fa	f3 0f 11 86 24
	03 00 00	 movss	 DWORD PTR [esi+804], xmm0

; 179  : 				}

  00202	eb 18		 jmp	 SHORT $LN9@ProcessBui
$LN8@ProcessBui:
; File C:\Program Files (x86)\Microsoft Visual Studio\2019\Community\VC\Tools\MSVC\14.28.29333\include\vector

; 1694 :         if (_Myfirst) { // destroy and deallocate old array

  00204	f3 0f 10 86 2c
	03 00 00	 movss	 xmm0, DWORD PTR [esi+812]
  0020c	f3 0f 58 05 00
	00 00 00	 addss	 xmm0, DWORD PTR __real@40000000
  00214	f3 0f 11 86 2c
	03 00 00	 movss	 DWORD PTR [esi+812], xmm0
$LN9@ProcessBui:
  0021c	85 ff		 test	 edi, edi
  0021e	74 25		 je	 SHORT $LN72@ProcessBui

; 1695 :             _Destroy(_Myfirst, _Mylast);
; 1696 :             _Getal().deallocate(_Myfirst, static_cast<size_type>(_Myend - _Myfirst));

  00220	8b 4d c4	 mov	 ecx, DWORD PTR _kVct_kPosition$19[ebp+8]
  00223	b8 ab aa aa 2a	 mov	 eax, 715827883		; 2aaaaaabH
  00228	2b cf		 sub	 ecx, edi
  0022a	f7 e9		 imul	 ecx
  0022c	d1 fa		 sar	 edx, 1
  0022e	8b c2		 mov	 eax, edx
  00230	c1 e8 1f	 shr	 eax, 31			; 0000001fH
  00233	03 c2		 add	 eax, edx
; File C:\Program Files (x86)\Microsoft Visual Studio\2019\Community\VC\Tools\MSVC\14.28.29333\include\xmemory

; 810  :         _Deallocate<_New_alignof<_Ty>>(_Ptr, sizeof(_Ty) * _Count);

  00235	8d 04 40	 lea	 eax, DWORD PTR [eax+eax*2]
  00238	c1 e0 02	 shl	 eax, 2
  0023b	50		 push	 eax
  0023c	57		 push	 edi
  0023d	e8 00 00 00 00	 call	 ??$_Deallocate@$07$0A@@std@@YAXPAXI@Z ; std::_Deallocate<8,0>
  00242	83 c4 08	 add	 esp, 8
$LN72@ProcessBui:
; File D:\Metin2 Server Files\mainline\SRC_2014\Metin2Client\UserInterface\CameraProcedure.cpp

; 191  : 		v3CheckVector = m_v3Eye + 2.0f * m_fObjectCollisionRadius * m_v3Up;

  00245	f3 0f 10 ae f4
	02 00 00	 movss	 xmm5, DWORD PTR [esi+756]
; File D:\Metin2 Server Files\mainline\SRC_2014\M2Data\include\d3dx8math.inl

; 283  :     return D3DXVECTOR3(f * v.x, f * v.y, f * v.z);

  0024d	f3 0f 10 56 4c	 movss	 xmm2, DWORD PTR [esi+76]
; File D:\Metin2 Server Files\mainline\SRC_2014\Metin2Client\UserInterface\CameraProcedure.cpp

; 191  : 		v3CheckVector = m_v3Eye + 2.0f * m_fObjectCollisionRadius * m_v3Up;

  00252	0f 28 c5	 movaps	 xmm0, xmm5
; File D:\Metin2 Server Files\mainline\SRC_2014\M2Data\include\d3dx8math.inl

; 283  :     return D3DXVECTOR3(f * v.x, f * v.y, f * v.z);

  00255	f3 0f 10 5e 50	 movss	 xmm3, DWORD PTR [esi+80]
; File D:\Metin2 Server Files\mainline\SRC_2014\Metin2Client\UserInterface\CameraProcedure.cpp

; 191  : 		v3CheckVector = m_v3Eye + 2.0f * m_fObjectCollisionRadius * m_v3Up;

  0025a	f3 0f 58 c5	 addss	 xmm0, xmm5
; File D:\Metin2 Server Files\mainline\SRC_2014\M2Data\include\d3dx8math.inl

; 257  :     return D3DXVECTOR3(x + v.x, y + v.y, z + v.z);

  0025e	f3 0f 10 4e 34	 movss	 xmm1, DWORD PTR [esi+52]
; File C:\Program Files (x86)\Microsoft Visual Studio\2019\Community\VC\Tools\MSVC\14.28.29333\include\vector

; 375  :     _Vector_val() noexcept : _Myfirst(), _Mylast(), _Myend() {}

  00263	c7 45 bc 00 00
	00 00		 mov	 DWORD PTR _kVct_kPosition$18[ebp], 0
  0026a	c7 45 c0 00 00
	00 00		 mov	 DWORD PTR _kVct_kPosition$18[ebp+4], 0
  00271	c7 45 c4 00 00
	00 00		 mov	 DWORD PTR _kVct_kPosition$18[ebp+8], 0
; File D:\Metin2 Server Files\mainline\SRC_2014\M2Data\include\d3dx8math.inl

; 283  :     return D3DXVECTOR3(f * v.x, f * v.y, f * v.z);

  00278	0f 28 e0	 movaps	 xmm4, xmm0
  0027b	f3 0f 59 d0	 mulss	 xmm2, xmm0
  0027f	f3 0f 59 66 48	 mulss	 xmm4, DWORD PTR [esi+72]
  00284	f3 0f 59 d8	 mulss	 xmm3, xmm0

; 257  :     return D3DXVECTOR3(x + v.x, y + v.y, z + v.z);

  00288	f3 0f 58 ca	 addss	 xmm1, xmm2
  0028c	f3 0f 10 46 38	 movss	 xmm0, DWORD PTR [esi+56]
  00291	f3 0f 58 66 30	 addss	 xmm4, DWORD PTR [esi+48]
  00296	f3 0f 58 c3	 addss	 xmm0, xmm3
; File D:\Metin2 Server Files\mainline\SRC_2014\Metin2Client\UserInterface\CameraProcedure.cpp

; 192  : 		s.v3Position = v3CheckVector;

  0029a	f3 0f 11 4d d8	 movss	 DWORD PTR _s$[ebp+4], xmm1
  0029f	f3 0f 11 65 d4	 movss	 DWORD PTR _s$[ebp], xmm4
  002a4	f3 0f 11 45 dc	 movss	 DWORD PTR _s$[ebp+8], xmm0

; 111  : 	CameraCollisionChecker(CDynamicSphereInstance * pdsi, std::vector<D3DXVECTOR3>* pkVct_v3Position) : m_pdsi(pdsi), m_pkVct_v3Position(pkVct_v3Position), m_isBlocked(false) 

  002a9	8d 45 bc	 lea	 eax, DWORD PTR _kVct_kPosition$18[ebp]

; 193  : 
; 194  : 		std::vector<D3DXVECTOR3> kVct_kPosition;

  002ac	c7 45 fc 02 00
	00 00		 mov	 DWORD PTR __$EHRec$[ebp+8], 2

; 111  : 	CameraCollisionChecker(CDynamicSphereInstance * pdsi, std::vector<D3DXVECTOR3>* pkVct_v3Position) : m_pdsi(pdsi), m_pkVct_v3Position(pkVct_v3Position), m_isBlocked(false) 

  002b3	89 45 b4	 mov	 DWORD PTR _kCameraCollisionChecker$12[ebp+4], eax
  002b6	8d 45 d4	 lea	 eax, DWORD PTR _s$[ebp]
  002b9	89 45 b8	 mov	 DWORD PTR _kCameraCollisionChecker$12[ebp+8], eax
; File D:\Metin2 Server Files\mainline\SRC_2014\Metin2Client\eterlib\CullingManager.h

; 15   : 		: f(fn), dist(distance)

  002bc	8d 45 b0	 lea	 eax, DWORD PTR _kCameraCollisionChecker$12[ebp]
; File D:\Metin2 Server Files\mainline\SRC_2014\Metin2Client\UserInterface\CameraProcedure.cpp

; 111  : 	CameraCollisionChecker(CDynamicSphereInstance * pdsi, std::vector<D3DXVECTOR3>* pkVct_v3Position) : m_pdsi(pdsi), m_pkVct_v3Position(pkVct_v3Position), m_isBlocked(false) 

  002bf	c6 45 b0 00	 mov	 BYTE PTR _kCameraCollisionChecker$12[ebp], 0
; File D:\Metin2 Server Files\mainline\SRC_2014\Metin2Client\eterlib\CullingManager.h

; 16   : 	{}

  002c3	c7 45 a4 00 00
	00 00		 mov	 DWORD PTR _r$6[ebp], OFFSET ??_7?$RangeTester@UCameraCollisionChecker@@@@6B@

; 15   : 		: f(fn), dist(distance)

  002ca	89 45 a8	 mov	 DWORD PTR _r$6[ebp+4], eax
  002cd	c7 45 ac 00 00
	80 bf		 mov	 DWORD PTR _r$6[ebp+8], -1082130432 ; bf800000H

; 114  : 		m_Factory->RangeTest(p, radius, &r/*this*/);	

  002d4	8d 45 a4	 lea	 eax, DWORD PTR _r$6[ebp]
  002d7	c6 45 fc 03	 mov	 BYTE PTR __$EHRec$[ebp+8], 3
  002db	50		 push	 eax
  002dc	51		 push	 ecx
  002dd	8b 4b 1c	 mov	 ecx, DWORD PTR [ebx+28]
  002e0	8d 45 c8	 lea	 eax, DWORD PTR _aVector3d$[ebp]
  002e3	f3 0f 11 2c 24	 movss	 DWORD PTR [esp], xmm5
  002e8	50		 push	 eax
  002e9	e8 00 00 00 00	 call	 ?RangeTest@SpherePackFactory@@QAEXABVVector3d@@MPAVSpherePackCallback@@@Z ; SpherePackFactory::RangeTest
; File D:\Metin2 Server Files\mainline\SRC_2014\Metin2Client\UserInterface\CameraProcedure.cpp

; 199  : 		if (bCollide)

  002ee	80 7d b0 00	 cmp	 BYTE PTR _kCameraCollisionChecker$12[ebp], 0
; File D:\Metin2 Server Files\mainline\SRC_2014\Metin2Client\eterlib\CullingManager.h

; 115  : 	}

  002f2	c6 45 fc 02	 mov	 BYTE PTR __$EHRec$[ebp+8], 2
; File D:\Metin2 Server Files\mainline\SRC_2014\Metin2Client\UserInterface\CameraProcedure.cpp

; 199  : 		if (bCollide)

  002f6	74 26		 je	 SHORT $LN10@ProcessBui

; 200  : 		{
; 201  : 			m_v3AngularVelocity.z = fMIN(-fMoveAmountSmall, m_v3AngularVelocity.y);

  002f8	f3 0f 10 86 28
	03 00 00	 movss	 xmm0, DWORD PTR [esi+808]
  00300	83 ec 08	 sub	 esp, 8
  00303	f3 0f 11 44 24
	04		 movss	 DWORD PTR [esp+4], xmm0
  00309	c7 04 24 00 00
	00 c0		 mov	 DWORD PTR [esp], -1073741824 ; c0000000H
  00310	e8 00 00 00 00	 call	 ?fMIN@@YAMMM@Z		; fMIN
  00315	d9 9e 2c 03 00
	00		 fstp	 DWORD PTR [esi+812]
  0031b	83 c4 08	 add	 esp, 8
$LN10@ProcessBui:
; File C:\Program Files (x86)\Microsoft Visual Studio\2019\Community\VC\Tools\MSVC\14.28.29333\include\vector

; 1694 :         if (_Myfirst) { // destroy and deallocate old array

  0031e	8b 7d bc	 mov	 edi, DWORD PTR _kVct_kPosition$18[ebp]
  00321	85 ff		 test	 edi, edi
  00323	74 25		 je	 SHORT $LN102@ProcessBui

; 1695 :             _Destroy(_Myfirst, _Mylast);
; 1696 :             _Getal().deallocate(_Myfirst, static_cast<size_type>(_Myend - _Myfirst));

  00325	8b 4d c4	 mov	 ecx, DWORD PTR _kVct_kPosition$18[ebp+8]
  00328	b8 ab aa aa 2a	 mov	 eax, 715827883		; 2aaaaaabH
  0032d	2b cf		 sub	 ecx, edi
  0032f	f7 e9		 imul	 ecx
  00331	d1 fa		 sar	 edx, 1
  00333	8b c2		 mov	 eax, edx
  00335	c1 e8 1f	 shr	 eax, 31			; 0000001fH
  00338	03 c2		 add	 eax, edx
; File C:\Program Files (x86)\Microsoft Visual Studio\2019\Community\VC\Tools\MSVC\14.28.29333\include\xmemory

; 810  :         _Deallocate<_New_alignof<_Ty>>(_Ptr, sizeof(_Ty) * _Count);

  0033a	8d 04 40	 lea	 eax, DWORD PTR [eax+eax*2]
  0033d	c1 e0 02	 shl	 eax, 2
  00340	50		 push	 eax
  00341	57		 push	 edi
  00342	e8 00 00 00 00	 call	 ??$_Deallocate@$07$0A@@std@@YAXPAXI@Z ; std::_Deallocate<8,0>
  00347	83 c4 08	 add	 esp, 8
$LN102@ProcessBui:
; File D:\Metin2 Server Files\mainline\SRC_2014\Metin2Client\UserInterface\CameraProcedure.cpp

; 208  : 		v3CheckVector = m_v3Eye + 3.0f * m_fObjectCollisionRadius * m_v3Cross;

  0034a	f3 0f 10 ae f4
	02 00 00	 movss	 xmm5, DWORD PTR [esi+756]
; File D:\Metin2 Server Files\mainline\SRC_2014\M2Data\include\d3dx8math.inl

; 283  :     return D3DXVECTOR3(f * v.x, f * v.y, f * v.z);

  00352	f3 0f 10 56 64	 movss	 xmm2, DWORD PTR [esi+100]
; File D:\Metin2 Server Files\mainline\SRC_2014\Metin2Client\UserInterface\CameraProcedure.cpp

; 208  : 		v3CheckVector = m_v3Eye + 3.0f * m_fObjectCollisionRadius * m_v3Cross;

  00357	0f 28 c5	 movaps	 xmm0, xmm5
  0035a	f3 0f 59 05 00
	00 00 00	 mulss	 xmm0, DWORD PTR __real@40400000
; File C:\Program Files (x86)\Microsoft Visual Studio\2019\Community\VC\Tools\MSVC\14.28.29333\include\vector

; 375  :     _Vector_val() noexcept : _Myfirst(), _Mylast(), _Myend() {}

  00362	c7 45 bc 00 00
	00 00		 mov	 DWORD PTR _kVct_kPosition$17[ebp], 0
; File D:\Metin2 Server Files\mainline\SRC_2014\M2Data\include\d3dx8math.inl

; 283  :     return D3DXVECTOR3(f * v.x, f * v.y, f * v.z);

  00369	f3 0f 10 5e 68	 movss	 xmm3, DWORD PTR [esi+104]

; 257  :     return D3DXVECTOR3(x + v.x, y + v.y, z + v.z);

  0036e	f3 0f 10 4e 34	 movss	 xmm1, DWORD PTR [esi+52]

; 283  :     return D3DXVECTOR3(f * v.x, f * v.y, f * v.z);

  00373	0f 28 e0	 movaps	 xmm4, xmm0
  00376	f3 0f 59 d0	 mulss	 xmm2, xmm0
; File C:\Program Files (x86)\Microsoft Visual Studio\2019\Community\VC\Tools\MSVC\14.28.29333\include\vector

; 375  :     _Vector_val() noexcept : _Myfirst(), _Mylast(), _Myend() {}

  0037a	c7 45 c0 00 00
	00 00		 mov	 DWORD PTR _kVct_kPosition$17[ebp+4], 0
; File D:\Metin2 Server Files\mainline\SRC_2014\M2Data\include\d3dx8math.inl

; 283  :     return D3DXVECTOR3(f * v.x, f * v.y, f * v.z);

  00381	f3 0f 59 66 60	 mulss	 xmm4, DWORD PTR [esi+96]
; File C:\Program Files (x86)\Microsoft Visual Studio\2019\Community\VC\Tools\MSVC\14.28.29333\include\vector

; 375  :     _Vector_val() noexcept : _Myfirst(), _Mylast(), _Myend() {}

  00386	c7 45 c4 00 00
	00 00		 mov	 DWORD PTR _kVct_kPosition$17[ebp+8], 0
; File D:\Metin2 Server Files\mainline\SRC_2014\M2Data\include\d3dx8math.inl

; 283  :     return D3DXVECTOR3(f * v.x, f * v.y, f * v.z);

  0038d	f3 0f 59 d8	 mulss	 xmm3, xmm0

; 257  :     return D3DXVECTOR3(x + v.x, y + v.y, z + v.z);

  00391	f3 0f 58 ca	 addss	 xmm1, xmm2
  00395	f3 0f 10 46 38	 movss	 xmm0, DWORD PTR [esi+56]
  0039a	f3 0f 58 66 30	 addss	 xmm4, DWORD PTR [esi+48]
  0039f	f3 0f 58 c3	 addss	 xmm0, xmm3
; File D:\Metin2 Server Files\mainline\SRC_2014\Metin2Client\UserInterface\CameraProcedure.cpp

; 209  : 		s.v3Position = v3CheckVector;

  003a3	f3 0f 11 4d d8	 movss	 DWORD PTR _s$[ebp+4], xmm1
  003a8	f3 0f 11 65 d4	 movss	 DWORD PTR _s$[ebp], xmm4
  003ad	f3 0f 11 45 dc	 movss	 DWORD PTR _s$[ebp+8], xmm0

; 111  : 	CameraCollisionChecker(CDynamicSphereInstance * pdsi, std::vector<D3DXVECTOR3>* pkVct_v3Position) : m_pdsi(pdsi), m_pkVct_v3Position(pkVct_v3Position), m_isBlocked(false) 

  003b2	8d 45 bc	 lea	 eax, DWORD PTR _kVct_kPosition$17[ebp]

; 210  : 
; 211  : 		std::vector<D3DXVECTOR3> kVct_kPosition;

  003b5	c7 45 fc 04 00
	00 00		 mov	 DWORD PTR __$EHRec$[ebp+8], 4

; 111  : 	CameraCollisionChecker(CDynamicSphereInstance * pdsi, std::vector<D3DXVECTOR3>* pkVct_v3Position) : m_pdsi(pdsi), m_pkVct_v3Position(pkVct_v3Position), m_isBlocked(false) 

  003bc	89 45 b4	 mov	 DWORD PTR _kCameraCollisionChecker$11[ebp+4], eax
  003bf	8d 45 d4	 lea	 eax, DWORD PTR _s$[ebp]
  003c2	89 45 b8	 mov	 DWORD PTR _kCameraCollisionChecker$11[ebp+8], eax
; File D:\Metin2 Server Files\mainline\SRC_2014\Metin2Client\eterlib\CullingManager.h

; 15   : 		: f(fn), dist(distance)

  003c5	8d 45 b0	 lea	 eax, DWORD PTR _kCameraCollisionChecker$11[ebp]
; File D:\Metin2 Server Files\mainline\SRC_2014\Metin2Client\UserInterface\CameraProcedure.cpp

; 111  : 	CameraCollisionChecker(CDynamicSphereInstance * pdsi, std::vector<D3DXVECTOR3>* pkVct_v3Position) : m_pdsi(pdsi), m_pkVct_v3Position(pkVct_v3Position), m_isBlocked(false) 

  003c8	c6 45 b0 00	 mov	 BYTE PTR _kCameraCollisionChecker$11[ebp], 0
; File D:\Metin2 Server Files\mainline\SRC_2014\Metin2Client\eterlib\CullingManager.h

; 16   : 	{}

  003cc	c7 45 a4 00 00
	00 00		 mov	 DWORD PTR _r$5[ebp], OFFSET ??_7?$RangeTester@UCameraCollisionChecker@@@@6B@

; 15   : 		: f(fn), dist(distance)

  003d3	89 45 a8	 mov	 DWORD PTR _r$5[ebp+4], eax
  003d6	c7 45 ac 00 00
	80 bf		 mov	 DWORD PTR _r$5[ebp+8], -1082130432 ; bf800000H

; 114  : 		m_Factory->RangeTest(p, radius, &r/*this*/);	

  003dd	8d 45 a4	 lea	 eax, DWORD PTR _r$5[ebp]
  003e0	c6 45 fc 05	 mov	 BYTE PTR __$EHRec$[ebp+8], 5
  003e4	50		 push	 eax
  003e5	51		 push	 ecx
  003e6	8b 4b 1c	 mov	 ecx, DWORD PTR [ebx+28]
  003e9	8d 45 c8	 lea	 eax, DWORD PTR _aVector3d$[ebp]
  003ec	f3 0f 11 2c 24	 movss	 DWORD PTR [esp], xmm5
  003f1	50		 push	 eax
  003f2	e8 00 00 00 00	 call	 ?RangeTest@SpherePackFactory@@QAEXABVVector3d@@MPAVSpherePackCallback@@@Z ; SpherePackFactory::RangeTest
; File D:\Metin2 Server Files\mainline\SRC_2014\Metin2Client\UserInterface\CameraProcedure.cpp

; 216  : 		if (bCollide)

  003f7	80 7d b0 00	 cmp	 BYTE PTR _kCameraCollisionChecker$11[ebp], 0
  003fb	74 33		 je	 SHORT $LN12@ProcessBui

; 217  : 		{
; 218  : 			if (m_v3AngularVelocity.x > 0.0f)

  003fd	f3 0f 10 86 24
	03 00 00	 movss	 xmm0, DWORD PTR [esi+804]
  00405	0f 2f 05 00 00
	00 00		 comiss	 xmm0, DWORD PTR __real@00000000
  0040c	76 22		 jbe	 SHORT $LN12@ProcessBui

; 219  : 			{
; 220  : 				m_v3AngularVelocity.x = 0.0f;
; 221  : 				m_v3AngularVelocity.y += fMoveAmountLarge;

  0040e	f3 0f 10 86 28
	03 00 00	 movss	 xmm0, DWORD PTR [esi+808]
  00416	f3 0f 58 05 00
	00 00 00	 addss	 xmm0, DWORD PTR __real@40800000
  0041e	c7 86 24 03 00
	00 00 00 00 00	 mov	 DWORD PTR [esi+804], 0
  00428	f3 0f 11 86 28
	03 00 00	 movss	 DWORD PTR [esi+808], xmm0
$LN12@ProcessBui:
; File C:\Program Files (x86)\Microsoft Visual Studio\2019\Community\VC\Tools\MSVC\14.28.29333\include\vector

; 1694 :         if (_Myfirst) { // destroy and deallocate old array

  00430	8b 7d bc	 mov	 edi, DWORD PTR _kVct_kPosition$17[ebp]
  00433	85 ff		 test	 edi, edi
  00435	74 25		 je	 SHORT $LN132@ProcessBui

; 1695 :             _Destroy(_Myfirst, _Mylast);
; 1696 :             _Getal().deallocate(_Myfirst, static_cast<size_type>(_Myend - _Myfirst));

  00437	8b 4d c4	 mov	 ecx, DWORD PTR _kVct_kPosition$17[ebp+8]
  0043a	b8 ab aa aa 2a	 mov	 eax, 715827883		; 2aaaaaabH
  0043f	2b cf		 sub	 ecx, edi
  00441	f7 e9		 imul	 ecx
  00443	d1 fa		 sar	 edx, 1
  00445	8b c2		 mov	 eax, edx
  00447	c1 e8 1f	 shr	 eax, 31			; 0000001fH
  0044a	03 c2		 add	 eax, edx
; File C:\Program Files (x86)\Microsoft Visual Studio\2019\Community\VC\Tools\MSVC\14.28.29333\include\xmemory

; 810  :         _Deallocate<_New_alignof<_Ty>>(_Ptr, sizeof(_Ty) * _Count);

  0044c	8d 04 40	 lea	 eax, DWORD PTR [eax+eax*2]
  0044f	c1 e0 02	 shl	 eax, 2
  00452	50		 push	 eax
  00453	57		 push	 edi
  00454	e8 00 00 00 00	 call	 ??$_Deallocate@$07$0A@@std@@YAXPAXI@Z ; std::_Deallocate<8,0>
  00459	83 c4 08	 add	 esp, 8
$LN132@ProcessBui:
; File D:\Metin2 Server Files\mainline\SRC_2014\Metin2Client\UserInterface\CameraProcedure.cpp

; 228  : 		v3CheckVector = m_v3Eye - 3.0f * m_fObjectCollisionRadius * m_v3Cross;

  0045c	f3 0f 10 ae f4
	02 00 00	 movss	 xmm5, DWORD PTR [esi+756]
; File D:\Metin2 Server Files\mainline\SRC_2014\M2Data\include\d3dx8math.inl

; 283  :     return D3DXVECTOR3(f * v.x, f * v.y, f * v.z);

  00464	f3 0f 10 5e 64	 movss	 xmm3, DWORD PTR [esi+100]
; File D:\Metin2 Server Files\mainline\SRC_2014\Metin2Client\UserInterface\CameraProcedure.cpp

; 228  : 		v3CheckVector = m_v3Eye - 3.0f * m_fObjectCollisionRadius * m_v3Cross;

  00469	0f 28 c5	 movaps	 xmm0, xmm5
  0046c	f3 0f 59 05 00
	00 00 00	 mulss	 xmm0, DWORD PTR __real@40400000
; File C:\Program Files (x86)\Microsoft Visual Studio\2019\Community\VC\Tools\MSVC\14.28.29333\include\vector

; 375  :     _Vector_val() noexcept : _Myfirst(), _Mylast(), _Myend() {}

  00474	c7 45 bc 00 00
	00 00		 mov	 DWORD PTR _kVct_kPosition$16[ebp], 0
; File D:\Metin2 Server Files\mainline\SRC_2014\M2Data\include\d3dx8math.inl

; 283  :     return D3DXVECTOR3(f * v.x, f * v.y, f * v.z);

  0047b	f3 0f 10 66 68	 movss	 xmm4, DWORD PTR [esi+104]

; 263  :     return D3DXVECTOR3(x - v.x, y - v.y, z - v.z);

  00480	f3 0f 10 56 30	 movss	 xmm2, DWORD PTR [esi+48]

; 283  :     return D3DXVECTOR3(f * v.x, f * v.y, f * v.z);

  00485	0f 28 c8	 movaps	 xmm1, xmm0
  00488	f3 0f 59 d8	 mulss	 xmm3, xmm0
; File C:\Program Files (x86)\Microsoft Visual Studio\2019\Community\VC\Tools\MSVC\14.28.29333\include\vector

; 375  :     _Vector_val() noexcept : _Myfirst(), _Mylast(), _Myend() {}

  0048c	c7 45 c0 00 00
	00 00		 mov	 DWORD PTR _kVct_kPosition$16[ebp+4], 0
; File D:\Metin2 Server Files\mainline\SRC_2014\M2Data\include\d3dx8math.inl

; 283  :     return D3DXVECTOR3(f * v.x, f * v.y, f * v.z);

  00493	f3 0f 59 4e 60	 mulss	 xmm1, DWORD PTR [esi+96]
; File C:\Program Files (x86)\Microsoft Visual Studio\2019\Community\VC\Tools\MSVC\14.28.29333\include\vector

; 375  :     _Vector_val() noexcept : _Myfirst(), _Mylast(), _Myend() {}

  00498	c7 45 c4 00 00
	00 00		 mov	 DWORD PTR _kVct_kPosition$16[ebp+8], 0
; File D:\Metin2 Server Files\mainline\SRC_2014\M2Data\include\d3dx8math.inl

; 283  :     return D3DXVECTOR3(f * v.x, f * v.y, f * v.z);

  0049f	f3 0f 59 e0	 mulss	 xmm4, xmm0

; 263  :     return D3DXVECTOR3(x - v.x, y - v.y, z - v.z);

  004a3	f3 0f 10 46 38	 movss	 xmm0, DWORD PTR [esi+56]
  004a8	f3 0f 5c d1	 subss	 xmm2, xmm1
  004ac	f3 0f 10 4e 34	 movss	 xmm1, DWORD PTR [esi+52]
  004b1	f3 0f 5c cb	 subss	 xmm1, xmm3
  004b5	f3 0f 5c c4	 subss	 xmm0, xmm4
; File D:\Metin2 Server Files\mainline\SRC_2014\Metin2Client\UserInterface\CameraProcedure.cpp

; 229  : 		s.v3Position = v3CheckVector;

  004b9	f3 0f 11 55 d4	 movss	 DWORD PTR _s$[ebp], xmm2
  004be	f3 0f 11 4d d8	 movss	 DWORD PTR _s$[ebp+4], xmm1
  004c3	f3 0f 11 45 dc	 movss	 DWORD PTR _s$[ebp+8], xmm0

; 111  : 	CameraCollisionChecker(CDynamicSphereInstance * pdsi, std::vector<D3DXVECTOR3>* pkVct_v3Position) : m_pdsi(pdsi), m_pkVct_v3Position(pkVct_v3Position), m_isBlocked(false) 

  004c8	8d 45 bc	 lea	 eax, DWORD PTR _kVct_kPosition$16[ebp]

; 230  : 
; 231  : 		std::vector<D3DXVECTOR3> kVct_kPosition;

  004cb	c7 45 fc 06 00
	00 00		 mov	 DWORD PTR __$EHRec$[ebp+8], 6

; 111  : 	CameraCollisionChecker(CDynamicSphereInstance * pdsi, std::vector<D3DXVECTOR3>* pkVct_v3Position) : m_pdsi(pdsi), m_pkVct_v3Position(pkVct_v3Position), m_isBlocked(false) 

  004d2	89 45 b4	 mov	 DWORD PTR _kCameraCollisionChecker$10[ebp+4], eax
  004d5	8d 45 d4	 lea	 eax, DWORD PTR _s$[ebp]
  004d8	89 45 b8	 mov	 DWORD PTR _kCameraCollisionChecker$10[ebp+8], eax
; File D:\Metin2 Server Files\mainline\SRC_2014\Metin2Client\eterlib\CullingManager.h

; 15   : 		: f(fn), dist(distance)

  004db	8d 45 b0	 lea	 eax, DWORD PTR _kCameraCollisionChecker$10[ebp]
; File D:\Metin2 Server Files\mainline\SRC_2014\Metin2Client\UserInterface\CameraProcedure.cpp

; 111  : 	CameraCollisionChecker(CDynamicSphereInstance * pdsi, std::vector<D3DXVECTOR3>* pkVct_v3Position) : m_pdsi(pdsi), m_pkVct_v3Position(pkVct_v3Position), m_isBlocked(false) 

  004de	c6 45 b0 00	 mov	 BYTE PTR _kCameraCollisionChecker$10[ebp], 0
; File D:\Metin2 Server Files\mainline\SRC_2014\Metin2Client\eterlib\CullingManager.h

; 16   : 	{}

  004e2	c7 45 a4 00 00
	00 00		 mov	 DWORD PTR _r$4[ebp], OFFSET ??_7?$RangeTester@UCameraCollisionChecker@@@@6B@

; 15   : 		: f(fn), dist(distance)

  004e9	89 45 a8	 mov	 DWORD PTR _r$4[ebp+4], eax
  004ec	c7 45 ac 00 00
	80 bf		 mov	 DWORD PTR _r$4[ebp+8], -1082130432 ; bf800000H

; 114  : 		m_Factory->RangeTest(p, radius, &r/*this*/);	

  004f3	8d 45 a4	 lea	 eax, DWORD PTR _r$4[ebp]
  004f6	c6 45 fc 07	 mov	 BYTE PTR __$EHRec$[ebp+8], 7
  004fa	50		 push	 eax
  004fb	51		 push	 ecx
  004fc	8b 4b 1c	 mov	 ecx, DWORD PTR [ebx+28]
  004ff	8d 45 c8	 lea	 eax, DWORD PTR _aVector3d$[ebp]
  00502	f3 0f 11 2c 24	 movss	 DWORD PTR [esp], xmm5
  00507	50		 push	 eax
  00508	e8 00 00 00 00	 call	 ?RangeTest@SpherePackFactory@@QAEXABVVector3d@@MPAVSpherePackCallback@@@Z ; SpherePackFactory::RangeTest
; File D:\Metin2 Server Files\mainline\SRC_2014\Metin2Client\UserInterface\CameraProcedure.cpp

; 236  : 		if (bCollide)

  0050d	80 7d b0 00	 cmp	 BYTE PTR _kCameraCollisionChecker$10[ebp], 0
  00511	74 2e		 je	 SHORT $LN14@ProcessBui

; 237  : 		{
; 238  : 			if (m_v3AngularVelocity.x < 0.0f)

  00513	0f 57 c0	 xorps	 xmm0, xmm0
  00516	0f 2f 86 24 03
	00 00		 comiss	 xmm0, DWORD PTR [esi+804]
  0051d	76 22		 jbe	 SHORT $LN14@ProcessBui

; 239  : 			{
; 240  : 				m_v3AngularVelocity.x = 0.0f;
; 241  : 				m_v3AngularVelocity.y += fMoveAmountLarge;

  0051f	f3 0f 10 86 28
	03 00 00	 movss	 xmm0, DWORD PTR [esi+808]
  00527	f3 0f 58 05 00
	00 00 00	 addss	 xmm0, DWORD PTR __real@40800000
  0052f	c7 86 24 03 00
	00 00 00 00 00	 mov	 DWORD PTR [esi+804], 0
  00539	f3 0f 11 86 28
	03 00 00	 movss	 DWORD PTR [esi+808], xmm0
$LN14@ProcessBui:
; File C:\Program Files (x86)\Microsoft Visual Studio\2019\Community\VC\Tools\MSVC\14.28.29333\include\vector

; 1694 :         if (_Myfirst) { // destroy and deallocate old array

  00541	8b 7d bc	 mov	 edi, DWORD PTR _kVct_kPosition$16[ebp]
  00544	85 ff		 test	 edi, edi
  00546	74 25		 je	 SHORT $LN162@ProcessBui

; 1695 :             _Destroy(_Myfirst, _Mylast);
; 1696 :             _Getal().deallocate(_Myfirst, static_cast<size_type>(_Myend - _Myfirst));

  00548	8b 4d c4	 mov	 ecx, DWORD PTR _kVct_kPosition$16[ebp+8]
  0054b	b8 ab aa aa 2a	 mov	 eax, 715827883		; 2aaaaaabH
  00550	2b cf		 sub	 ecx, edi
  00552	f7 e9		 imul	 ecx
  00554	d1 fa		 sar	 edx, 1
  00556	8b c2		 mov	 eax, edx
  00558	c1 e8 1f	 shr	 eax, 31			; 0000001fH
  0055b	03 c2		 add	 eax, edx
; File C:\Program Files (x86)\Microsoft Visual Studio\2019\Community\VC\Tools\MSVC\14.28.29333\include\xmemory

; 810  :         _Deallocate<_New_alignof<_Ty>>(_Ptr, sizeof(_Ty) * _Count);

  0055d	8d 04 40	 lea	 eax, DWORD PTR [eax+eax*2]
  00560	c1 e0 02	 shl	 eax, 2
  00563	50		 push	 eax
  00564	57		 push	 edi
  00565	e8 00 00 00 00	 call	 ??$_Deallocate@$07$0A@@std@@YAXPAXI@Z ; std::_Deallocate<8,0>
  0056a	83 c4 08	 add	 esp, 8
$LN162@ProcessBui:
; File D:\Metin2 Server Files\mainline\SRC_2014\Metin2Client\UserInterface\CameraProcedure.cpp

; 248  : 		v3CheckVector = m_v3Eye - 2.0f * m_fTerrainCollisionRadius * m_v3Up;

  0056d	f3 0f 10 8e f0
	02 00 00	 movss	 xmm1, DWORD PTR [esi+752]
; File D:\Metin2 Server Files\mainline\SRC_2014\M2Data\include\d3dx8math.inl

; 283  :     return D3DXVECTOR3(f * v.x, f * v.y, f * v.z);

  00575	f3 0f 10 5e 4c	 movss	 xmm3, DWORD PTR [esi+76]
; File D:\Metin2 Server Files\mainline\SRC_2014\Metin2Client\UserInterface\CameraProcedure.cpp

; 248  : 		v3CheckVector = m_v3Eye - 2.0f * m_fTerrainCollisionRadius * m_v3Up;

  0057a	f3 0f 58 c9	 addss	 xmm1, xmm1
; File D:\Metin2 Server Files\mainline\SRC_2014\M2Data\include\d3dx8math.inl

; 283  :     return D3DXVECTOR3(f * v.x, f * v.y, f * v.z);

  0057e	f3 0f 10 66 50	 movss	 xmm4, DWORD PTR [esi+80]

; 263  :     return D3DXVECTOR3(x - v.x, y - v.y, z - v.z);

  00583	f3 0f 10 56 30	 movss	 xmm2, DWORD PTR [esi+48]
; File C:\Program Files (x86)\Microsoft Visual Studio\2019\Community\VC\Tools\MSVC\14.28.29333\include\vector

; 375  :     _Vector_val() noexcept : _Myfirst(), _Mylast(), _Myend() {}

  00588	c7 45 bc 00 00
	00 00		 mov	 DWORD PTR _kVct_kPosition$15[ebp], 0
  0058f	c7 45 c0 00 00
	00 00		 mov	 DWORD PTR _kVct_kPosition$15[ebp+4], 0
; File D:\Metin2 Server Files\mainline\SRC_2014\M2Data\include\d3dx8math.inl

; 283  :     return D3DXVECTOR3(f * v.x, f * v.y, f * v.z);

  00596	0f 28 c1	 movaps	 xmm0, xmm1
  00599	f3 0f 59 e1	 mulss	 xmm4, xmm1
; File C:\Program Files (x86)\Microsoft Visual Studio\2019\Community\VC\Tools\MSVC\14.28.29333\include\vector

; 375  :     _Vector_val() noexcept : _Myfirst(), _Mylast(), _Myend() {}

  0059d	c7 45 c4 00 00
	00 00		 mov	 DWORD PTR _kVct_kPosition$15[ebp+8], 0
; File D:\Metin2 Server Files\mainline\SRC_2014\M2Data\include\d3dx8math.inl

; 283  :     return D3DXVECTOR3(f * v.x, f * v.y, f * v.z);

  005a4	f3 0f 59 46 48	 mulss	 xmm0, DWORD PTR [esi+72]
  005a9	f3 0f 59 d9	 mulss	 xmm3, xmm1

; 263  :     return D3DXVECTOR3(x - v.x, y - v.y, z - v.z);

  005ad	f3 0f 10 4e 34	 movss	 xmm1, DWORD PTR [esi+52]
  005b2	f3 0f 5c d0	 subss	 xmm2, xmm0
  005b6	f3 0f 10 46 38	 movss	 xmm0, DWORD PTR [esi+56]
  005bb	f3 0f 5c cb	 subss	 xmm1, xmm3
  005bf	f3 0f 5c c4	 subss	 xmm0, xmm4
; File D:\Metin2 Server Files\mainline\SRC_2014\Metin2Client\UserInterface\CameraProcedure.cpp

; 249  : 		s.v3Position = v3CheckVector;

  005c3	f3 0f 11 55 d4	 movss	 DWORD PTR _s$[ebp], xmm2
  005c8	f3 0f 11 4d d8	 movss	 DWORD PTR _s$[ebp+4], xmm1
  005cd	f3 0f 11 45 dc	 movss	 DWORD PTR _s$[ebp+8], xmm0

; 252  : 		CameraCollisionChecker kCameraCollisionChecker(&s, &kVct_kPosition);
; 253  : 		rkCullingMgr.ForInRange(aVector3d, m_fObjectCollisionRadius, &kCameraCollisionChecker);

  005d2	f3 0f 10 86 f4
	02 00 00	 movss	 xmm0, DWORD PTR [esi+756]

; 111  : 	CameraCollisionChecker(CDynamicSphereInstance * pdsi, std::vector<D3DXVECTOR3>* pkVct_v3Position) : m_pdsi(pdsi), m_pkVct_v3Position(pkVct_v3Position), m_isBlocked(false) 

  005da	8d 45 bc	 lea	 eax, DWORD PTR _kVct_kPosition$15[ebp]
  005dd	89 45 b4	 mov	 DWORD PTR _kCameraCollisionChecker$9[ebp+4], eax
  005e0	8d 45 d4	 lea	 eax, DWORD PTR _s$[ebp]
  005e3	89 45 b8	 mov	 DWORD PTR _kCameraCollisionChecker$9[ebp+8], eax
; File D:\Metin2 Server Files\mainline\SRC_2014\Metin2Client\eterlib\CullingManager.h

; 15   : 		: f(fn), dist(distance)

  005e6	8d 45 b0	 lea	 eax, DWORD PTR _kCameraCollisionChecker$9[ebp]
; File D:\Metin2 Server Files\mainline\SRC_2014\Metin2Client\UserInterface\CameraProcedure.cpp

; 251  : 		std::vector<D3DXVECTOR3> kVct_kPosition;

  005e9	c7 45 fc 08 00
	00 00		 mov	 DWORD PTR __$EHRec$[ebp+8], 8

; 111  : 	CameraCollisionChecker(CDynamicSphereInstance * pdsi, std::vector<D3DXVECTOR3>* pkVct_v3Position) : m_pdsi(pdsi), m_pkVct_v3Position(pkVct_v3Position), m_isBlocked(false) 

  005f0	c6 45 b0 00	 mov	 BYTE PTR _kCameraCollisionChecker$9[ebp], 0
; File D:\Metin2 Server Files\mainline\SRC_2014\Metin2Client\eterlib\CullingManager.h

; 16   : 	{}

  005f4	c7 45 a4 00 00
	00 00		 mov	 DWORD PTR _r$3[ebp], OFFSET ??_7?$RangeTester@UCameraCollisionChecker@@@@6B@

; 15   : 		: f(fn), dist(distance)

  005fb	89 45 a8	 mov	 DWORD PTR _r$3[ebp+4], eax
  005fe	c7 45 ac 00 00
	80 bf		 mov	 DWORD PTR _r$3[ebp+8], -1082130432 ; bf800000H

; 114  : 		m_Factory->RangeTest(p, radius, &r/*this*/);	

  00605	8d 45 a4	 lea	 eax, DWORD PTR _r$3[ebp]
  00608	c6 45 fc 09	 mov	 BYTE PTR __$EHRec$[ebp+8], 9
  0060c	50		 push	 eax
  0060d	51		 push	 ecx
  0060e	8b 4b 1c	 mov	 ecx, DWORD PTR [ebx+28]
  00611	8d 45 c8	 lea	 eax, DWORD PTR _aVector3d$[ebp]
  00614	f3 0f 11 04 24	 movss	 DWORD PTR [esp], xmm0
  00619	50		 push	 eax
  0061a	e8 00 00 00 00	 call	 ?RangeTest@SpherePackFactory@@QAEXABVVector3d@@MPAVSpherePackCallback@@@Z ; SpherePackFactory::RangeTest
; File D:\Metin2 Server Files\mainline\SRC_2014\Metin2Client\UserInterface\CameraProcedure.cpp

; 256  : 		if (bCollide)

  0061f	80 7d b0 00	 cmp	 BYTE PTR _kCameraCollisionChecker$9[ebp], 0
  00623	74 2e		 je	 SHORT $LN16@ProcessBui

; 257  : 		{
; 258  : 			if (m_v3AngularVelocity.z < 0.0f)

  00625	0f 57 c0	 xorps	 xmm0, xmm0
  00628	0f 2f 86 2c 03
	00 00		 comiss	 xmm0, DWORD PTR [esi+812]
  0062f	76 22		 jbe	 SHORT $LN16@ProcessBui

; 259  : 			{
; 260  : 				m_v3AngularVelocity.z = 0.0f;
; 261  : 				m_v3AngularVelocity.y += fMoveAmountLarge;

  00631	f3 0f 10 86 28
	03 00 00	 movss	 xmm0, DWORD PTR [esi+808]
  00639	f3 0f 58 05 00
	00 00 00	 addss	 xmm0, DWORD PTR __real@40800000
  00641	c7 86 2c 03 00
	00 00 00 00 00	 mov	 DWORD PTR [esi+812], 0
  0064b	f3 0f 11 86 28
	03 00 00	 movss	 DWORD PTR [esi+808], xmm0
$LN16@ProcessBui:
; File C:\Program Files (x86)\Microsoft Visual Studio\2019\Community\VC\Tools\MSVC\14.28.29333\include\vector

; 1694 :         if (_Myfirst) { // destroy and deallocate old array

  00653	8b 7d bc	 mov	 edi, DWORD PTR _kVct_kPosition$15[ebp]
  00656	85 ff		 test	 edi, edi
  00658	74 25		 je	 SHORT $LN192@ProcessBui

; 1695 :             _Destroy(_Myfirst, _Mylast);
; 1696 :             _Getal().deallocate(_Myfirst, static_cast<size_type>(_Myend - _Myfirst));

  0065a	8b 4d c4	 mov	 ecx, DWORD PTR _kVct_kPosition$15[ebp+8]
  0065d	b8 ab aa aa 2a	 mov	 eax, 715827883		; 2aaaaaabH
  00662	2b cf		 sub	 ecx, edi
  00664	f7 e9		 imul	 ecx
  00666	d1 fa		 sar	 edx, 1
  00668	8b c2		 mov	 eax, edx
  0066a	c1 e8 1f	 shr	 eax, 31			; 0000001fH
  0066d	03 c2		 add	 eax, edx
; File C:\Program Files (x86)\Microsoft Visual Studio\2019\Community\VC\Tools\MSVC\14.28.29333\include\xmemory

; 810  :         _Deallocate<_New_alignof<_Ty>>(_Ptr, sizeof(_Ty) * _Count);

  0066f	8d 04 40	 lea	 eax, DWORD PTR [eax+eax*2]
  00672	c1 e0 02	 shl	 eax, 2
  00675	50		 push	 eax
  00676	57		 push	 edi
  00677	e8 00 00 00 00	 call	 ??$_Deallocate@$07$0A@@std@@YAXPAXI@Z ; std::_Deallocate<8,0>
  0067c	83 c4 08	 add	 esp, 8
$LN192@ProcessBui:
; File D:\Metin2 Server Files\mainline\SRC_2014\Metin2Client\UserInterface\CameraProcedure.cpp

; 268  : 		v3CheckVector = m_v3Eye + 4.0f * m_fObjectCollisionRadius * m_v3View;

  0067f	f3 0f 10 ae f4
	02 00 00	 movss	 xmm5, DWORD PTR [esi+756]
; File D:\Metin2 Server Files\mainline\SRC_2014\M2Data\include\d3dx8math.inl

; 283  :     return D3DXVECTOR3(f * v.x, f * v.y, f * v.z);

  00687	f3 0f 10 56 58	 movss	 xmm2, DWORD PTR [esi+88]
; File D:\Metin2 Server Files\mainline\SRC_2014\Metin2Client\UserInterface\CameraProcedure.cpp

; 268  : 		v3CheckVector = m_v3Eye + 4.0f * m_fObjectCollisionRadius * m_v3View;

  0068c	0f 28 c5	 movaps	 xmm0, xmm5
  0068f	f3 0f 59 05 00
	00 00 00	 mulss	 xmm0, DWORD PTR __real@40800000
; File C:\Program Files (x86)\Microsoft Visual Studio\2019\Community\VC\Tools\MSVC\14.28.29333\include\vector

; 375  :     _Vector_val() noexcept : _Myfirst(), _Mylast(), _Myend() {}

  00697	c7 45 bc 00 00
	00 00		 mov	 DWORD PTR _kVct_kPosition$14[ebp], 0
; File D:\Metin2 Server Files\mainline\SRC_2014\M2Data\include\d3dx8math.inl

; 283  :     return D3DXVECTOR3(f * v.x, f * v.y, f * v.z);

  0069e	f3 0f 10 5e 5c	 movss	 xmm3, DWORD PTR [esi+92]

; 257  :     return D3DXVECTOR3(x + v.x, y + v.y, z + v.z);

  006a3	f3 0f 10 4e 34	 movss	 xmm1, DWORD PTR [esi+52]

; 283  :     return D3DXVECTOR3(f * v.x, f * v.y, f * v.z);

  006a8	0f 28 e0	 movaps	 xmm4, xmm0
  006ab	f3 0f 59 d0	 mulss	 xmm2, xmm0
; File C:\Program Files (x86)\Microsoft Visual Studio\2019\Community\VC\Tools\MSVC\14.28.29333\include\vector

; 375  :     _Vector_val() noexcept : _Myfirst(), _Mylast(), _Myend() {}

  006af	c7 45 c0 00 00
	00 00		 mov	 DWORD PTR _kVct_kPosition$14[ebp+4], 0
; File D:\Metin2 Server Files\mainline\SRC_2014\M2Data\include\d3dx8math.inl

; 283  :     return D3DXVECTOR3(f * v.x, f * v.y, f * v.z);

  006b6	f3 0f 59 66 54	 mulss	 xmm4, DWORD PTR [esi+84]
; File C:\Program Files (x86)\Microsoft Visual Studio\2019\Community\VC\Tools\MSVC\14.28.29333\include\vector

; 375  :     _Vector_val() noexcept : _Myfirst(), _Mylast(), _Myend() {}

  006bb	c7 45 c4 00 00
	00 00		 mov	 DWORD PTR _kVct_kPosition$14[ebp+8], 0
; File D:\Metin2 Server Files\mainline\SRC_2014\M2Data\include\d3dx8math.inl

; 283  :     return D3DXVECTOR3(f * v.x, f * v.y, f * v.z);

  006c2	f3 0f 59 d8	 mulss	 xmm3, xmm0

; 257  :     return D3DXVECTOR3(x + v.x, y + v.y, z + v.z);

  006c6	f3 0f 58 ca	 addss	 xmm1, xmm2
  006ca	f3 0f 10 46 38	 movss	 xmm0, DWORD PTR [esi+56]
  006cf	f3 0f 58 66 30	 addss	 xmm4, DWORD PTR [esi+48]
  006d4	f3 0f 58 c3	 addss	 xmm0, xmm3
; File D:\Metin2 Server Files\mainline\SRC_2014\Metin2Client\UserInterface\CameraProcedure.cpp

; 269  : 		s.v3Position = v3CheckVector;

  006d8	f3 0f 11 4d d8	 movss	 DWORD PTR _s$[ebp+4], xmm1
  006dd	f3 0f 11 65 d4	 movss	 DWORD PTR _s$[ebp], xmm4
  006e2	f3 0f 11 45 dc	 movss	 DWORD PTR _s$[ebp+8], xmm0

; 111  : 	CameraCollisionChecker(CDynamicSphereInstance * pdsi, std::vector<D3DXVECTOR3>* pkVct_v3Position) : m_pdsi(pdsi), m_pkVct_v3Position(pkVct_v3Position), m_isBlocked(false) 

  006e7	8d 45 bc	 lea	 eax, DWORD PTR _kVct_kPosition$14[ebp]

; 270  : 
; 271  : 		std::vector<D3DXVECTOR3> kVct_kPosition;

  006ea	c7 45 fc 0a 00
	00 00		 mov	 DWORD PTR __$EHRec$[ebp+8], 10 ; 0000000aH

; 111  : 	CameraCollisionChecker(CDynamicSphereInstance * pdsi, std::vector<D3DXVECTOR3>* pkVct_v3Position) : m_pdsi(pdsi), m_pkVct_v3Position(pkVct_v3Position), m_isBlocked(false) 

  006f1	89 45 b4	 mov	 DWORD PTR _kCameraCollisionChecker$8[ebp+4], eax
  006f4	8d 45 d4	 lea	 eax, DWORD PTR _s$[ebp]
  006f7	89 45 b8	 mov	 DWORD PTR _kCameraCollisionChecker$8[ebp+8], eax
; File D:\Metin2 Server Files\mainline\SRC_2014\Metin2Client\eterlib\CullingManager.h

; 15   : 		: f(fn), dist(distance)

  006fa	8d 45 b0	 lea	 eax, DWORD PTR _kCameraCollisionChecker$8[ebp]
; File D:\Metin2 Server Files\mainline\SRC_2014\Metin2Client\UserInterface\CameraProcedure.cpp

; 111  : 	CameraCollisionChecker(CDynamicSphereInstance * pdsi, std::vector<D3DXVECTOR3>* pkVct_v3Position) : m_pdsi(pdsi), m_pkVct_v3Position(pkVct_v3Position), m_isBlocked(false) 

  006fd	c6 45 b0 00	 mov	 BYTE PTR _kCameraCollisionChecker$8[ebp], 0
; File D:\Metin2 Server Files\mainline\SRC_2014\Metin2Client\eterlib\CullingManager.h

; 16   : 	{}

  00701	c7 45 a4 00 00
	00 00		 mov	 DWORD PTR _r$2[ebp], OFFSET ??_7?$RangeTester@UCameraCollisionChecker@@@@6B@

; 15   : 		: f(fn), dist(distance)

  00708	89 45 a8	 mov	 DWORD PTR _r$2[ebp+4], eax
  0070b	c7 45 ac 00 00
	80 bf		 mov	 DWORD PTR _r$2[ebp+8], -1082130432 ; bf800000H

; 114  : 		m_Factory->RangeTest(p, radius, &r/*this*/);	

  00712	8d 45 a4	 lea	 eax, DWORD PTR _r$2[ebp]
  00715	c6 45 fc 0b	 mov	 BYTE PTR __$EHRec$[ebp+8], 11 ; 0000000bH
  00719	50		 push	 eax
  0071a	51		 push	 ecx
  0071b	8b 4b 1c	 mov	 ecx, DWORD PTR [ebx+28]
  0071e	8d 45 c8	 lea	 eax, DWORD PTR _aVector3d$[ebp]
  00721	f3 0f 11 2c 24	 movss	 DWORD PTR [esp], xmm5
  00726	50		 push	 eax
  00727	e8 00 00 00 00	 call	 ?RangeTest@SpherePackFactory@@QAEXABVVector3d@@MPAVSpherePackCallback@@@Z ; SpherePackFactory::RangeTest
; File D:\Metin2 Server Files\mainline\SRC_2014\Metin2Client\UserInterface\CameraProcedure.cpp

; 276  : 		if (bCollide)

  0072c	80 7d b0 00	 cmp	 BYTE PTR _kCameraCollisionChecker$8[ebp], 0
  00730	8b 7d bc	 mov	 edi, DWORD PTR _kVct_kPosition$14[ebp]
  00733	0f 84 26 01 00
	00		 je	 $LN24@ProcessBui

; 277  : 		{
; 278  : 			if (m_v3AngularVelocity.y < 0.0f)

  00739	f3 0f 10 0d 00
	00 00 00	 movss	 xmm1, DWORD PTR __real@40800000
  00741	0f 57 c0	 xorps	 xmm0, xmm0
  00744	0f 2f 86 28 03
	00 00		 comiss	 xmm0, DWORD PTR [esi+808]
  0074b	76 1e		 jbe	 SHORT $LN241@ProcessBui

; 279  : 			{
; 280  : 				m_v3AngularVelocity.y = 0.0f;
; 281  : 				m_v3AngularVelocity.z += fMoveAmountLarge;

  0074d	f3 0f 10 86 2c
	03 00 00	 movss	 xmm0, DWORD PTR [esi+812]
  00755	f3 0f 58 c1	 addss	 xmm0, xmm1
  00759	c7 86 28 03 00
	00 00 00 00 00	 mov	 DWORD PTR [esi+808], 0
  00763	f3 0f 11 86 2c
	03 00 00	 movss	 DWORD PTR [esi+812], xmm0
$LN241@ProcessBui:
; File C:\Program Files (x86)\Microsoft Visual Studio\2019\Community\VC\Tools\MSVC\14.28.29333\include\vector

; 1484 :         return static_cast<size_type>(_My_data._Mylast - _My_data._Myfirst);

  0076b	8b 4d c0	 mov	 ecx, DWORD PTR _kVct_kPosition$14[ebp+4]
  0076e	b8 ab aa aa 2a	 mov	 eax, 715827883		; 2aaaaaabH
  00773	2b cf		 sub	 ecx, edi
  00775	f7 e9		 imul	 ecx
  00777	d1 fa		 sar	 edx, 1
  00779	8b c2		 mov	 eax, edx
  0077b	c1 e8 1f	 shr	 eax, 31			; 0000001fH
  0077e	03 c2		 add	 eax, edx
; File D:\Metin2 Server Files\mainline\SRC_2014\Metin2Client\UserInterface\CameraProcedure.cpp

; 284  : 			if (kVct_kPosition.size() > 1)

  00780	83 f8 01	 cmp	 eax, 1
  00783	76 11		 jbe	 SHORT $LN19@ProcessBui

; 285  : 			{
; 286  : 	//			m_v3AngularVelocity.z = fMAX(fMoveAmountLarge, m_v3AngularVelocity.z);
; 287  :  				m_v3AngularVelocity.z += fMoveAmountLarge;

  00785	f3 0f 10 86 2c
	03 00 00	 movss	 xmm0, DWORD PTR [esi+812]
  0078d	f3 0f 58 c1	 addss	 xmm0, xmm1

; 288  : 			}

  00791	e9 c1 00 00 00	 jmp	 $LN244@ProcessBui
$LN19@ProcessBui:
; File D:\Metin2 Server Files\mainline\SRC_2014\M2Data\include\d3dx8math.inl

; 263  :     return D3DXVECTOR3(x - v.x, y - v.y, z - v.z);

  00796	f3 0f 10 37	 movss	 xmm6, DWORD PTR [edi]
  0079a	f3 0f 10 57 08	 movss	 xmm2, DWORD PTR [edi+8]
  0079f	f3 0f 5c 76 30	 subss	 xmm6, DWORD PTR [esi+48]
  007a4	f3 0f 5c 56 38	 subss	 xmm2, DWORD PTR [esi+56]

; 1277 :     v.x = pV1->y * pV2->z - pV1->z * pV2->y;

  007a9	f3 0f 10 4e 5c	 movss	 xmm1, DWORD PTR [esi+92]

; 1278 :     v.y = pV1->z * pV2->x - pV1->x * pV2->z;

  007ae	f3 0f 10 5e 54	 movss	 xmm3, DWORD PTR [esi+84]
  007b3	0f 28 c1	 movaps	 xmm0, xmm1

; 263  :     return D3DXVECTOR3(x - v.x, y - v.y, z - v.z);

  007b6	f3 0f 10 6f 04	 movss	 xmm5, DWORD PTR [edi+4]

; 1278 :     v.y = pV1->z * pV2->x - pV1->x * pV2->z;

  007bb	0f 28 fb	 movaps	 xmm7, xmm3

; 263  :     return D3DXVECTOR3(x - v.x, y - v.y, z - v.z);

  007be	f3 0f 5c 6e 34	 subss	 xmm5, DWORD PTR [esi+52]

; 1277 :     v.x = pV1->y * pV2->z - pV1->z * pV2->y;

  007c3	f3 0f 10 66 58	 movss	 xmm4, DWORD PTR [esi+88]

; 1278 :     v.y = pV1->z * pV2->x - pV1->x * pV2->z;

  007c8	f3 0f 59 fa	 mulss	 xmm7, xmm2
  007cc	f3 0f 59 c6	 mulss	 xmm0, xmm6
  007d0	f3 0f 59 cd	 mulss	 xmm1, xmm5
  007d4	f3 0f 5c f8	 subss	 xmm7, xmm0

; 1279 :     v.z = pV1->x * pV2->y - pV1->y * pV2->x;

  007d8	f3 0f 59 dd	 mulss	 xmm3, xmm5
  007dc	0f 28 c4	 movaps	 xmm0, xmm4
  007df	f3 0f 59 e6	 mulss	 xmm4, xmm6
  007e3	f3 0f 59 c2	 mulss	 xmm0, xmm2

; 1264 :     return pV1->x * pV2->x + pV1->y * pV2->y + pV1->z * pV2->z;

  007e7	f3 0f 59 7e 4c	 mulss	 xmm7, DWORD PTR [esi+76]

; 1279 :     v.z = pV1->x * pV2->y - pV1->y * pV2->x;

  007ec	f3 0f 5c e3	 subss	 xmm4, xmm3
  007f0	f3 0f 5c c8	 subss	 xmm1, xmm0
  007f4	0f 57 c0	 xorps	 xmm0, xmm0

; 1264 :     return pV1->x * pV2->x + pV1->y * pV2->y + pV1->z * pV2->z;

  007f7	f3 0f 59 66 50	 mulss	 xmm4, DWORD PTR [esi+80]
  007fc	f3 0f 59 4e 48	 mulss	 xmm1, DWORD PTR [esi+72]
  00801	f3 0f 58 f9	 addss	 xmm7, xmm1
  00805	f3 0f 58 fc	 addss	 xmm7, xmm4
; File D:\Metin2 Server Files\mainline\SRC_2014\Metin2Client\UserInterface\CameraProcedure.cpp

; 293  : 				if (fDot < 0)

  00809	0f 2f c7	 comiss	 xmm0, xmm7
  0080c	76 1a		 jbe	 SHORT $LN21@ProcessBui

; 294  : 				{
; 295  : 	// 				m_v3AngularVelocity.x = fMIN(-fMoveAmountSmall, m_v3AngularVelocity.x);
; 296  : 					m_v3AngularVelocity.x -= fMoveAmountSmall;

  0080e	f3 0f 10 86 24
	03 00 00	 movss	 xmm0, DWORD PTR [esi+804]
  00816	f3 0f 5c 05 00
	00 00 00	 subss	 xmm0, DWORD PTR __real@40000000
  0081e	f3 0f 11 86 24
	03 00 00	 movss	 DWORD PTR [esi+804], xmm0

; 297  : 				}

  00826	eb 37		 jmp	 SHORT $LN24@ProcessBui
$LN21@ProcessBui:

; 298  : 				else if(fDot > 0)

  00828	0f 2f f8	 comiss	 xmm7, xmm0
  0082b	76 1a		 jbe	 SHORT $LN23@ProcessBui

; 299  : 				{
; 300  : 	// 				m_v3AngularVelocity.x = fMAX(fMoveAmountSmall, m_v3AngularVelocity.x);
; 301  : 					m_v3AngularVelocity.x += fMoveAmountSmall;

  0082d	f3 0f 10 86 24
	03 00 00	 movss	 xmm0, DWORD PTR [esi+804]
  00835	f3 0f 58 05 00
	00 00 00	 addss	 xmm0, DWORD PTR __real@40000000
  0083d	f3 0f 11 86 24
	03 00 00	 movss	 DWORD PTR [esi+804], xmm0

; 302  : 				}

  00845	eb 18		 jmp	 SHORT $LN24@ProcessBui
$LN23@ProcessBui:

; 303  : 				else
; 304  : 				{
; 305  : 	//				m_v3AngularVelocity.z = fMAX(fMoveAmountSmall, m_v3AngularVelocity.z);
; 306  : 					m_v3AngularVelocity.z += fMoveAmountSmall;

  00847	f3 0f 10 86 2c
	03 00 00	 movss	 xmm0, DWORD PTR [esi+812]
  0084f	f3 0f 58 05 00
	00 00 00	 addss	 xmm0, DWORD PTR __real@40000000
$LN244@ProcessBui:
; File C:\Program Files (x86)\Microsoft Visual Studio\2019\Community\VC\Tools\MSVC\14.28.29333\include\vector

; 1694 :         if (_Myfirst) { // destroy and deallocate old array

  00857	f3 0f 11 86 2c
	03 00 00	 movss	 DWORD PTR [esi+812], xmm0
$LN24@ProcessBui:
  0085f	85 ff		 test	 edi, edi
  00861	74 25		 je	 SHORT $LN234@ProcessBui

; 1695 :             _Destroy(_Myfirst, _Mylast);
; 1696 :             _Getal().deallocate(_Myfirst, static_cast<size_type>(_Myend - _Myfirst));

  00863	8b 4d c4	 mov	 ecx, DWORD PTR _kVct_kPosition$14[ebp+8]
  00866	b8 ab aa aa 2a	 mov	 eax, 715827883		; 2aaaaaabH
  0086b	2b cf		 sub	 ecx, edi
  0086d	f7 e9		 imul	 ecx
  0086f	d1 fa		 sar	 edx, 1
  00871	8b c2		 mov	 eax, edx
  00873	c1 e8 1f	 shr	 eax, 31			; 0000001fH
  00876	03 c2		 add	 eax, edx
; File C:\Program Files (x86)\Microsoft Visual Studio\2019\Community\VC\Tools\MSVC\14.28.29333\include\xmemory

; 810  :         _Deallocate<_New_alignof<_Ty>>(_Ptr, sizeof(_Ty) * _Count);

  00878	8d 04 40	 lea	 eax, DWORD PTR [eax+eax*2]
  0087b	c1 e0 02	 shl	 eax, 2
  0087e	50		 push	 eax
  0087f	57		 push	 edi
  00880	e8 00 00 00 00	 call	 ??$_Deallocate@$07$0A@@std@@YAXPAXI@Z ; std::_Deallocate<8,0>
  00885	83 c4 08	 add	 esp, 8
$LN234@ProcessBui:
; File D:\Metin2 Server Files\mainline\SRC_2014\Metin2Client\UserInterface\CameraProcedure.cpp

; 311  : }

  00888	8b 4d f4	 mov	 ecx, DWORD PTR __$EHRec$[ebp]
  0088b	64 89 0d 00 00
	00 00		 mov	 DWORD PTR fs:0, ecx
  00892	59		 pop	 ecx
  00893	5f		 pop	 edi
  00894	5e		 pop	 esi
  00895	5b		 pop	 ebx
  00896	8b 4d f0	 mov	 ecx, DWORD PTR __$ArrayPad$[ebp]
  00899	33 cd		 xor	 ecx, ebp
  0089b	e8 00 00 00 00	 call	 @__security_check_cookie@4
  008a0	8b e5		 mov	 esp, ebp
  008a2	5d		 pop	 ebp
  008a3	c3		 ret	 0
_TEXT	ENDS
;	COMDAT text$x
text$x	SEGMENT
__unwindfunclet$?ProcessBuildingCollision@CCamera@@AAEXXZ$0:
  00000	8d 4d bc	 lea	 ecx, DWORD PTR _kVct_kPosition$19[ebp]
  00003	e9 00 00 00 00	 jmp	 ??1?$vector@UD3DXVECTOR3@@V?$allocator@UD3DXVECTOR3@@@std@@@std@@QAE@XZ ; std::vector<D3DXVECTOR3,std::allocator<D3DXVECTOR3> >::~vector<D3DXVECTOR3,std::allocator<D3DXVECTOR3> >
__unwindfunclet$?ProcessBuildingCollision@CCamera@@AAEXXZ$6:
  00008	8d 4d a4	 lea	 ecx, DWORD PTR _r$7[ebp]
  0000b	e9 00 00 00 00	 jmp	 ??1?$RangeTester@UCameraCollisionChecker@@@@UAE@XZ ; RangeTester<CameraCollisionChecker>::~RangeTester<CameraCollisionChecker>
__unwindfunclet$?ProcessBuildingCollision@CCamera@@AAEXXZ$1:
  00010	8d 4d bc	 lea	 ecx, DWORD PTR _kVct_kPosition$18[ebp]
  00013	e9 00 00 00 00	 jmp	 ??1?$vector@UD3DXVECTOR3@@V?$allocator@UD3DXVECTOR3@@@std@@@std@@QAE@XZ ; std::vector<D3DXVECTOR3,std::allocator<D3DXVECTOR3> >::~vector<D3DXVECTOR3,std::allocator<D3DXVECTOR3> >
__unwindfunclet$?ProcessBuildingCollision@CCamera@@AAEXXZ$7:
  00018	8d 4d a4	 lea	 ecx, DWORD PTR _r$6[ebp]
  0001b	e9 00 00 00 00	 jmp	 ??1?$RangeTester@UCameraCollisionChecker@@@@UAE@XZ ; RangeTester<CameraCollisionChecker>::~RangeTester<CameraCollisionChecker>
__unwindfunclet$?ProcessBuildingCollision@CCamera@@AAEXXZ$2:
  00020	8d 4d bc	 lea	 ecx, DWORD PTR _kVct_kPosition$17[ebp]
  00023	e9 00 00 00 00	 jmp	 ??1?$vector@UD3DXVECTOR3@@V?$allocator@UD3DXVECTOR3@@@std@@@std@@QAE@XZ ; std::vector<D3DXVECTOR3,std::allocator<D3DXVECTOR3> >::~vector<D3DXVECTOR3,std::allocator<D3DXVECTOR3> >
__unwindfunclet$?ProcessBuildingCollision@CCamera@@AAEXXZ$8:
  00028	8d 4d a4	 lea	 ecx, DWORD PTR _r$5[ebp]
  0002b	e9 00 00 00 00	 jmp	 ??1?$RangeTester@UCameraCollisionChecker@@@@UAE@XZ ; RangeTester<CameraCollisionChecker>::~RangeTester<CameraCollisionChecker>
__unwindfunclet$?ProcessBuildingCollision@CCamera@@AAEXXZ$3:
  00030	8d 4d bc	 lea	 ecx, DWORD PTR _kVct_kPosition$16[ebp]
  00033	e9 00 00 00 00	 jmp	 ??1?$vector@UD3DXVECTOR3@@V?$allocator@UD3DXVECTOR3@@@std@@@std@@QAE@XZ ; std::vector<D3DXVECTOR3,std::allocator<D3DXVECTOR3> >::~vector<D3DXVECTOR3,std::allocator<D3DXVECTOR3> >
__unwindfunclet$?ProcessBuildingCollision@CCamera@@AAEXXZ$9:
  00038	8d 4d a4	 lea	 ecx, DWORD PTR _r$4[ebp]
  0003b	e9 00 00 00 00	 jmp	 ??1?$RangeTester@UCameraCollisionChecker@@@@UAE@XZ ; RangeTester<CameraCollisionChecker>::~RangeTester<CameraCollisionChecker>
__unwindfunclet$?ProcessBuildingCollision@CCamera@@AAEXXZ$4:
  00040	8d 4d bc	 lea	 ecx, DWORD PTR _kVct_kPosition$15[ebp]
  00043	e9 00 00 00 00	 jmp	 ??1?$vector@UD3DXVECTOR3@@V?$allocator@UD3DXVECTOR3@@@std@@@std@@QAE@XZ ; std::vector<D3DXVECTOR3,std::allocator<D3DXVECTOR3> >::~vector<D3DXVECTOR3,std::allocator<D3DXVECTOR3> >
__unwindfunclet$?ProcessBuildingCollision@CCamera@@AAEXXZ$10:
  00048	8d 4d a4	 lea	 ecx, DWORD PTR _r$3[ebp]
  0004b	e9 00 00 00 00	 jmp	 ??1?$RangeTester@UCameraCollisionChecker@@@@UAE@XZ ; RangeTester<CameraCollisionChecker>::~RangeTester<CameraCollisionChecker>
__unwindfunclet$?ProcessBuildingCollision@CCamera@@AAEXXZ$5:
  00050	8d 4d bc	 lea	 ecx, DWORD PTR _kVct_kPosition$14[ebp]
  00053	e9 00 00 00 00	 jmp	 ??1?$vector@UD3DXVECTOR3@@V?$allocator@UD3DXVECTOR3@@@std@@@std@@QAE@XZ ; std::vector<D3DXVECTOR3,std::allocator<D3DXVECTOR3> >::~vector<D3DXVECTOR3,std::allocator<D3DXVECTOR3> >
__unwindfunclet$?ProcessBuildingCollision@CCamera@@AAEXXZ$11:
  00058	8d 4d a4	 lea	 ecx, DWORD PTR _r$2[ebp]
  0005b	e9 00 00 00 00	 jmp	 ??1?$RangeTester@UCameraCollisionChecker@@@@UAE@XZ ; RangeTester<CameraCollisionChecker>::~RangeTester<CameraCollisionChecker>
  00060	cc		 int	 3
  00061	cc		 int	 3
  00062	cc		 int	 3
  00063	cc		 int	 3
  00064	cc		 int	 3
__ehhandler$?ProcessBuildingCollision@CCamera@@AAEXXZ:
  00065	90		 npad	 1
  00066	90		 npad	 1
  00067	8b 54 24 08	 mov	 edx, DWORD PTR [esp+8]
  0006b	8d 42 0c	 lea	 eax, DWORD PTR [edx+12]
  0006e	8b 4a a0	 mov	 ecx, DWORD PTR [edx-96]
  00071	33 c8		 xor	 ecx, eax
  00073	e8 00 00 00 00	 call	 @__security_check_cookie@4
  00078	8b 4a fc	 mov	 ecx, DWORD PTR [edx-4]
  0007b	33 c8		 xor	 ecx, eax
  0007d	e8 00 00 00 00	 call	 @__security_check_cookie@4
  00082	b8 00 00 00 00	 mov	 eax, OFFSET __ehfuncinfo$?ProcessBuildingCollision@CCamera@@AAEXXZ
  00087	e9 00 00 00 00	 jmp	 ___CxxFrameHandler3
text$x	ENDS
?ProcessBuildingCollision@CCamera@@AAEXXZ ENDP		; CCamera::ProcessBuildingCollision
; Function compile flags: /Ogtp
; File D:\Metin2 Server Files\mainline\SRC_2014\Metin2Client\UserInterface\CameraProcedure.cpp
; File C:\Program Files (x86)\Windows Kits\10\Include\10.0.18362.0\ucrt\corecrt_math.h
; File D:\Metin2 Server Files\mainline\SRC_2014\M2Data\include\d3dx8math.inl
; File D:\Metin2 Server Files\mainline\SRC_2014\Metin2Client\UserInterface\CameraProcedure.cpp
; File D:\Metin2 Server Files\mainline\SRC_2014\M2Data\include\d3dx8math.inl
; File C:\Program Files (x86)\Windows Kits\10\Include\10.0.18362.0\ucrt\corecrt_math.h
; File D:\Metin2 Server Files\mainline\SRC_2014\Metin2Client\UserInterface\CameraProcedure.cpp
; File C:\Program Files (x86)\Windows Kits\10\Include\10.0.18362.0\ucrt\corecrt_math.h
; File D:\Metin2 Server Files\mainline\SRC_2014\Metin2Client\UserInterface\CameraProcedure.cpp
; File D:\Metin2 Server Files\mainline\SRC_2014\M2Data\include\d3dx8math.inl
; File D:\Metin2 Server Files\mainline\SRC_2014\Metin2Client\UserInterface\CameraProcedure.cpp
; File D:\Metin2 Server Files\mainline\SRC_2014\M2Data\include\d3dx8math.inl
; File D:\Metin2 Server Files\mainline\SRC_2014\Metin2Client\UserInterface\CameraProcedure.cpp
; File D:\Metin2 Server Files\mainline\SRC_2014\M2Data\include\d3dx8math.inl
; File D:\Metin2 Server Files\mainline\SRC_2014\Metin2Client\UserInterface\CameraProcedure.cpp
; File D:\Metin2 Server Files\mainline\SRC_2014\M2Data\include\d3dx8math.inl
; File D:\Metin2 Server Files\mainline\SRC_2014\Metin2Client\UserInterface\CameraProcedure.cpp
; File D:\Metin2 Server Files\mainline\SRC_2014\M2Data\include\d3dx8math.inl
; File D:\Metin2 Server Files\mainline\SRC_2014\Metin2Client\UserInterface\CameraProcedure.cpp
; File D:\Metin2 Server Files\mainline\SRC_2014\M2Data\include\d3dx8math.inl
; File D:\Metin2 Server Files\mainline\SRC_2014\Metin2Client\UserInterface\CameraProcedure.cpp
; File D:\Metin2 Server Files\mainline\SRC_2014\M2Data\include\d3dx8math.inl
; File C:\Program Files (x86)\Windows Kits\10\Include\10.0.18362.0\ucrt\corecrt_math.h
; File D:\Metin2 Server Files\mainline\SRC_2014\Metin2Client\UserInterface\CameraProcedure.cpp
; File C:\Program Files (x86)\Windows Kits\10\Include\10.0.18362.0\ucrt\corecrt_math.h
; File D:\Metin2 Server Files\mainline\SRC_2014\Metin2Client\UserInterface\CameraProcedure.cpp
; File D:\Metin2 Server Files\mainline\SRC_2014\M2Data\include\d3dx8math.inl
; File D:\Metin2 Server Files\mainline\SRC_2014\Metin2Client\UserInterface\CameraProcedure.cpp
; File D:\Metin2 Server Files\mainline\SRC_2014\M2Data\include\d3dx8math.inl
; File D:\Metin2 Server Files\mainline\SRC_2014\Metin2Client\UserInterface\CameraProcedure.cpp
; File D:\Metin2 Server Files\mainline\SRC_2014\M2Data\include\d3dx8math.inl
; File D:\Metin2 Server Files\mainline\SRC_2014\Metin2Client\UserInterface\CameraProcedure.cpp
;	COMDAT ?ProcessTerrainCollision@CCamera@@AAEXXZ
_TEXT	SEGMENT
tv900 = -48						; size = 8
tv894 = -48						; size = 4
tv892 = -48						; size = 8
tv886 = -48						; size = 4
tv471 = -48						; size = 4
_f$1$ = -36						; size = 4
tv777 = -36						; size = 4
tv785 = -32						; size = 4
_v3CollisionPoint$ = -28				; size = 12
_v3NewEye$1 = -16					; size = 12
_v3NewEye$2 = -16					; size = 12
__$ArrayPad$ = -4					; size = 4
?ProcessTerrainCollision@CCamera@@AAEXXZ PROC		; CCamera::ProcessTerrainCollision, COMDAT
; _this$ = ecx

; 14   : {

  00000	55		 push	 ebp
  00001	8b ec		 mov	 ebp, esp
  00003	83 e4 c0	 and	 esp, -64		; ffffffc0H
  00006	83 ec 38	 sub	 esp, 56			; 00000038H
  00009	a1 00 00 00 00	 mov	 eax, DWORD PTR ___security_cookie
  0000e	33 c4		 xor	 eax, esp
  00010	89 44 24 34	 mov	 DWORD PTR __$ArrayPad$[esp+56], eax
  00014	56		 push	 esi
  00015	8b f1		 mov	 esi, ecx

; 15   : 	CPythonBackground & rPythonBackground = CPythonBackground::Instance();
; 16   : 	D3DXVECTOR3 v3CollisionPoint;
; 17   : 
; 18   : 	if (rPythonBackground.GetPickingPointWithRayOnlyTerrain(m_kTargetToCameraBottomRay, &v3CollisionPoint))

  00017	8d 44 24 20	 lea	 eax, DWORD PTR _v3CollisionPoint$[esp+60]
  0001b	57		 push	 edi
  0001c	8b 3d 00 00 00
	00		 mov	 edi, DWORD PTR ?ms_singleton@?$CSingleton@VCPythonBackground@@@@0PAVCPythonBackground@@A ; CSingleton<CPythonBackground>::ms_singleton
  00022	8b cf		 mov	 ecx, edi
  00024	50		 push	 eax
  00025	8d 86 00 02 00
	00		 lea	 eax, DWORD PTR [esi+512]
  0002b	50		 push	 eax
  0002c	e8 00 00 00 00	 call	 ?GetPickingPointWithRayOnlyTerrain@CPythonBackground@@QAE_NABVCRay@@PAUD3DXVECTOR3@@@Z ; CPythonBackground::GetPickingPointWithRayOnlyTerrain
  00031	8b ce		 mov	 ecx, esi
  00033	84 c0		 test	 al, al
  00035	0f 84 fa 00 00
	00		 je	 $LN2@ProcessTer

; 19   : 	{
; 20   : 		SetCameraState(CAMERA_STATE_CANTGODOWN);

  0003b	6a 01		 push	 1
  0003d	e8 00 00 00 00	 call	 ?SetCameraState@CCamera@@QAEXW4_eCameraState_@@@Z ; CCamera::SetCameraState

; 21   : 		D3DXVECTOR3 v3CheckVector = m_v3Eye - 2.0f * m_fTerrainCollisionRadius * m_v3Up;

  00042	f3 0f 10 8e f0
	02 00 00	 movss	 xmm1, DWORD PTR [esi+752]
; File C:\Program Files (x86)\Windows Kits\10\Include\10.0.18362.0\ucrt\corecrt_math.h

; 686  :             return (float)floor(_X);

  0004a	83 ec 08	 sub	 esp, 8
; File D:\Metin2 Server Files\mainline\SRC_2014\M2Data\include\d3dx8math.inl

; 263  :     return D3DXVECTOR3(x - v.x, y - v.y, z - v.z);

  0004d	f3 0f 10 56 30	 movss	 xmm2, DWORD PTR [esi+48]
; File D:\Metin2 Server Files\mainline\SRC_2014\Metin2Client\UserInterface\CameraProcedure.cpp

; 21   : 		D3DXVECTOR3 v3CheckVector = m_v3Eye - 2.0f * m_fTerrainCollisionRadius * m_v3Up;

  00052	f3 0f 58 c9	 addss	 xmm1, xmm1
; File D:\Metin2 Server Files\mainline\SRC_2014\M2Data\include\d3dx8math.inl

; 283  :     return D3DXVECTOR3(f * v.x, f * v.y, f * v.z);

  00056	0f 28 c1	 movaps	 xmm0, xmm1
  00059	f3 0f 59 46 48	 mulss	 xmm0, DWORD PTR [esi+72]

; 263  :     return D3DXVECTOR3(x - v.x, y - v.y, z - v.z);

  0005e	f3 0f 5c d0	 subss	 xmm2, xmm0

; 283  :     return D3DXVECTOR3(f * v.x, f * v.y, f * v.z);

  00062	f3 0f 10 46 4c	 movss	 xmm0, DWORD PTR [esi+76]
  00067	f3 0f 59 c1	 mulss	 xmm0, xmm1

; 263  :     return D3DXVECTOR3(x - v.x, y - v.y, z - v.z);

  0006b	f3 0f 10 4e 34	 movss	 xmm1, DWORD PTR [esi+52]
  00070	f3 0f 5c c8	 subss	 xmm1, xmm0
  00074	f3 0f 11 54 24
	28		 movss	 DWORD PTR tv785[esp+72], xmm2

; 181  :     y = fy;

  0007a	0f 5a c1	 cvtps2pd xmm0, xmm1

; 263  :     return D3DXVECTOR3(x - v.x, y - v.y, z - v.z);

  0007d	f3 0f 11 4c 24
	24		 movss	 DWORD PTR tv777[esp+72], xmm1
; File C:\Program Files (x86)\Windows Kits\10\Include\10.0.18362.0\ucrt\corecrt_math.h

; 686  :             return (float)floor(_X);

  00083	f2 0f 11 44 24
	18		 movsd	 QWORD PTR tv900[esp+72], xmm0
  00089	dd 44 24 18	 fld	 QWORD PTR tv900[esp+72]
  0008d	dd 1c 24	 fstp	 QWORD PTR [esp]
  00090	e8 00 00 00 00	 call	 _floor
  00095	f3 0f 10 44 24
	28		 movss	 xmm0, DWORD PTR tv785[esp+72]
  0009b	d9 5c 24 18	 fstp	 DWORD PTR tv894[esp+72]
  0009f	d9 44 24 18	 fld	 DWORD PTR tv894[esp+72]
; File D:\Metin2 Server Files\mainline\SRC_2014\Metin2Client\UserInterface\CameraProcedure.cpp

; 22   : 		v3CheckVector.z = rPythonBackground.GetHeight(floorf(v3CheckVector.x), floorf(v3CheckVector.y));

  000a3	0f 5a c0	 cvtps2pd xmm0, xmm0
  000a6	51		 push	 ecx
  000a7	d9 5c 24 08	 fstp	 DWORD PTR [esp+8]
; File C:\Program Files (x86)\Windows Kits\10\Include\10.0.18362.0\ucrt\corecrt_math.h

; 686  :             return (float)floor(_X);

  000ab	f2 0f 11 44 24
	1c		 movsd	 QWORD PTR tv892[esp+76], xmm0
  000b1	dd 44 24 1c	 fld	 QWORD PTR tv892[esp+76]
  000b5	dd 1c 24	 fstp	 QWORD PTR [esp]
  000b8	e8 00 00 00 00	 call	 _floor
  000bd	d9 5c 24 1c	 fstp	 DWORD PTR tv886[esp+76]
  000c1	d9 44 24 1c	 fld	 DWORD PTR tv886[esp+76]
; File D:\Metin2 Server Files\mainline\SRC_2014\Metin2Client\UserInterface\CameraProcedure.cpp

; 22   : 		v3CheckVector.z = rPythonBackground.GetHeight(floorf(v3CheckVector.x), floorf(v3CheckVector.y));

  000c5	83 c4 04	 add	 esp, 4
  000c8	8b cf		 mov	 ecx, edi
  000ca	d9 1c 24	 fstp	 DWORD PTR [esp]
  000cd	e8 00 00 00 00	 call	 ?GetHeight@CMapManager@@QAEMMM@Z ; CMapManager::GetHeight

; 23   : 		D3DXVECTOR3 v3NewEye = v3CheckVector + 2.0f * m_fTerrainCollisionRadius * m_v3Up;

  000d2	f3 0f 10 8e f0
	02 00 00	 movss	 xmm1, DWORD PTR [esi+752]
; File D:\Metin2 Server Files\mainline\SRC_2014\M2Data\include\d3dx8math.inl

; 283  :     return D3DXVECTOR3(f * v.x, f * v.y, f * v.z);

  000da	f3 0f 10 46 48	 movss	 xmm0, DWORD PTR [esi+72]
; File D:\Metin2 Server Files\mainline\SRC_2014\Metin2Client\UserInterface\CameraProcedure.cpp

; 23   : 		D3DXVECTOR3 v3NewEye = v3CheckVector + 2.0f * m_fTerrainCollisionRadius * m_v3Up;

  000df	f3 0f 58 c9	 addss	 xmm1, xmm1
  000e3	d9 5c 24 10	 fstp	 DWORD PTR tv471[esp+64]
; File D:\Metin2 Server Files\mainline\SRC_2014\M2Data\include\d3dx8math.inl

; 283  :     return D3DXVECTOR3(f * v.x, f * v.y, f * v.z);

  000e7	f3 0f 59 c1	 mulss	 xmm0, xmm1

; 182  :     z = fz;

  000eb	f3 0f 58 44 24
	20		 addss	 xmm0, DWORD PTR tv785[esp+64]

; 180  :     x = fx;

  000f1	f3 0f 11 44 24
	30		 movss	 DWORD PTR _v3NewEye$2[esp+64], xmm0

; 283  :     return D3DXVECTOR3(f * v.x, f * v.y, f * v.z);

  000f7	f3 0f 10 46 4c	 movss	 xmm0, DWORD PTR [esi+76]
  000fc	f3 0f 59 c1	 mulss	 xmm0, xmm1

; 180  :     x = fx;

  00100	f3 0f 58 44 24
	1c		 addss	 xmm0, DWORD PTR tv777[esp+64]

; 181  :     y = fy;

  00106	f3 0f 11 44 24
	34		 movss	 DWORD PTR _v3NewEye$2[esp+68], xmm0

; 283  :     return D3DXVECTOR3(f * v.x, f * v.y, f * v.z);

  0010c	f3 0f 10 46 50	 movss	 xmm0, DWORD PTR [esi+80]
  00111	f3 0f 59 c1	 mulss	 xmm0, xmm1

; 181  :     y = fy;

  00115	f3 0f 58 44 24
	10		 addss	 xmm0, DWORD PTR tv471[esp+64]
; File D:\Metin2 Server Files\mainline\SRC_2014\Metin2Client\UserInterface\CameraProcedure.cpp

; 24   : 		if (v3NewEye.z > m_v3Eye.z)

  0011b	0f 2f 46 38	 comiss	 xmm0, DWORD PTR [esi+56]
; File D:\Metin2 Server Files\mainline\SRC_2014\M2Data\include\d3dx8math.inl

; 182  :     z = fz;

  0011f	f3 0f 11 44 24
	38		 movss	 DWORD PTR _v3NewEye$2[esp+72], xmm0
; File D:\Metin2 Server Files\mainline\SRC_2014\Metin2Client\UserInterface\CameraProcedure.cpp

; 24   : 		if (v3NewEye.z > m_v3Eye.z)

  00125	76 15		 jbe	 SHORT $LN3@ProcessTer

; 25   : 		{
; 26   : 			//printf("ToCameraBottom(%f, %f, %f) TCR %f, UP(%f, %f, %f), new %f > old %f", 
; 27   : 			//	v3CheckVector.x, v3CheckVector.y, v3CheckVector.z, 
; 28   : 			//	m_fTerrainCollisionRadius,
; 29   : 			//	m_v3Up.x, m_v3Up.y, m_v3Up.z,
; 30   : 			//	v3NewEye.z, m_v3Eye.z);
; 31   : 			SetEye(v3NewEye);

  00127	8d 44 24 30	 lea	 eax, DWORD PTR _v3NewEye$2[esp+64]
  0012b	8b ce		 mov	 ecx, esi
  0012d	50		 push	 eax
  0012e	e8 00 00 00 00	 call	 ?SetEye@CCamera@@QAEXABUD3DXVECTOR3@@@Z ; CCamera::SetEye

; 32   : 		}
; 33   : 		/*
; 34   : 		SetCameraState(CAMERA_STATE_NORMAL);
; 35   : 		D3DXVECTOR3 v3NewEye = v3CollisionPoint;
; 36   : 		SetEye(v3NewEye);
; 37   : 		*/
; 38   : 	}

  00133	eb 07		 jmp	 SHORT $LN3@ProcessTer
$LN2@ProcessTer:

; 39   : 	else
; 40   : 		SetCameraState(CAMERA_STATE_NORMAL);

  00135	6a 00		 push	 0
  00137	e8 00 00 00 00	 call	 ?SetCameraState@CCamera@@QAEXW4_eCameraState_@@@Z ; CCamera::SetCameraState
$LN3@ProcessTer:

; 41   : 
; 42   : 	if (rPythonBackground.GetPickingPointWithRayOnlyTerrain(m_kCameraBottomToTerrainRay, &v3CollisionPoint))

  0013c	8d 44 24 24	 lea	 eax, DWORD PTR _v3CollisionPoint$[esp+64]
  00140	8b cf		 mov	 ecx, edi
  00142	50		 push	 eax
  00143	8d 86 38 01 00
	00		 lea	 eax, DWORD PTR [esi+312]
  00149	50		 push	 eax
  0014a	e8 00 00 00 00	 call	 ?GetPickingPointWithRayOnlyTerrain@CPythonBackground@@QAE_NABVCRay@@PAUD3DXVECTOR3@@@Z ; CPythonBackground::GetPickingPointWithRayOnlyTerrain
  0014f	8b ce		 mov	 ecx, esi
  00151	84 c0		 test	 al, al
  00153	0f 84 d0 00 00
	00		 je	 $LN5@ProcessTer

; 43   : 	{
; 44   : 		SetCameraState(CAMERA_STATE_CANTGODOWN);

  00159	6a 01		 push	 1
  0015b	e8 00 00 00 00	 call	 ?SetCameraState@CCamera@@QAEXW4_eCameraState_@@@Z ; CCamera::SetCameraState
; File D:\Metin2 Server Files\mainline\SRC_2014\M2Data\include\d3dx8math.inl

; 263  :     return D3DXVECTOR3(x - v.x, y - v.y, z - v.z);

  00160	f3 0f 10 4e 34	 movss	 xmm1, DWORD PTR [esi+52]
  00165	f3 0f 5c 4c 24
	28		 subss	 xmm1, DWORD PTR _v3CollisionPoint$[esp+68]
  0016b	f3 0f 10 56 30	 movss	 xmm2, DWORD PTR [esi+48]
  00170	f3 0f 5c 54 24
	24		 subss	 xmm2, DWORD PTR _v3CollisionPoint$[esp+64]
  00176	f3 0f 10 46 38	 movss	 xmm0, DWORD PTR [esi+56]
  0017b	f3 0f 5c 44 24
	2c		 subss	 xmm0, DWORD PTR _v3CollisionPoint$[esp+72]
; File D:\Metin2 Server Files\mainline\SRC_2014\Metin2Client\UserInterface\CameraProcedure.cpp

; 45   : 		if (D3DXVec3Length(&(m_v3Eye - v3CollisionPoint)) < 2.0f * m_fTerrainCollisionRadius)

  00181	f3 0f 10 9e f0
	02 00 00	 movss	 xmm3, DWORD PTR [esi+752]
; File D:\Metin2 Server Files\mainline\SRC_2014\M2Data\include\d3dx8math.inl

; 182  :     z = fz;

  00189	f3 0f 59 c9	 mulss	 xmm1, xmm1
; File D:\Metin2 Server Files\mainline\SRC_2014\Metin2Client\UserInterface\CameraProcedure.cpp

; 45   : 		if (D3DXVec3Length(&(m_v3Eye - v3CollisionPoint)) < 2.0f * m_fTerrainCollisionRadius)

  0018d	f3 0f 58 db	 addss	 xmm3, xmm3
; File D:\Metin2 Server Files\mainline\SRC_2014\M2Data\include\d3dx8math.inl

; 1239 :     return sqrtf(pV->x * pV->x + pV->y * pV->y + pV->z * pV->z);

  00191	f3 0f 59 d2	 mulss	 xmm2, xmm2
  00195	f3 0f 59 c0	 mulss	 xmm0, xmm0
  00199	f3 0f 58 ca	 addss	 xmm1, xmm2
; File D:\Metin2 Server Files\mainline\SRC_2014\Metin2Client\UserInterface\CameraProcedure.cpp

; 45   : 		if (D3DXVec3Length(&(m_v3Eye - v3CollisionPoint)) < 2.0f * m_fTerrainCollisionRadius)

  0019d	f3 0f 11 5c 24
	1c		 movss	 DWORD PTR _f$1$[esp+64], xmm3
; File D:\Metin2 Server Files\mainline\SRC_2014\M2Data\include\d3dx8math.inl

; 1239 :     return sqrtf(pV->x * pV->x + pV->y * pV->y + pV->z * pV->z);

  001a3	f3 0f 58 c8	 addss	 xmm1, xmm0
; File C:\Program Files (x86)\Windows Kits\10\Include\10.0.18362.0\ucrt\corecrt_math.h

; 760  :             return (float)sqrt(_X);

  001a7	0f 5a c1	 cvtps2pd xmm0, xmm1
  001aa	0f 57 c9	 xorps	 xmm1, xmm1
  001ad	66 0f 2e c8	 ucomisd xmm1, xmm0
  001b1	77 06		 ja	 SHORT $LN45@ProcessTer
  001b3	f2 0f 51 c0	 sqrtsd	 xmm0, xmm0
  001b7	eb 05		 jmp	 SHORT $LN46@ProcessTer
$LN45@ProcessTer:
  001b9	e8 00 00 00 00	 call	 __libm_sse2_sqrt_precise
$LN46@ProcessTer:
; File D:\Metin2 Server Files\mainline\SRC_2014\Metin2Client\UserInterface\CameraProcedure.cpp

; 45   : 		if (D3DXVec3Length(&(m_v3Eye - v3CollisionPoint)) < 2.0f * m_fTerrainCollisionRadius)

  001be	f3 0f 10 4c 24
	1c		 movss	 xmm1, DWORD PTR _f$1$[esp+64]
; File C:\Program Files (x86)\Windows Kits\10\Include\10.0.18362.0\ucrt\corecrt_math.h

; 760  :             return (float)sqrt(_X);

  001c4	f2 0f 5a c0	 cvtsd2ss xmm0, xmm0
; File D:\Metin2 Server Files\mainline\SRC_2014\Metin2Client\UserInterface\CameraProcedure.cpp

; 45   : 		if (D3DXVec3Length(&(m_v3Eye - v3CollisionPoint)) < 2.0f * m_fTerrainCollisionRadius)

  001c8	0f 2f c8	 comiss	 xmm1, xmm0
  001cb	76 63		 jbe	 SHORT $LN6@ProcessTer
; File D:\Metin2 Server Files\mainline\SRC_2014\M2Data\include\d3dx8math.inl

; 283  :     return D3DXVECTOR3(f * v.x, f * v.y, f * v.z);

  001cd	f3 0f 10 46 48	 movss	 xmm0, DWORD PTR [esi+72]
; File D:\Metin2 Server Files\mainline\SRC_2014\Metin2Client\UserInterface\CameraProcedure.cpp

; 49   : 			SetEye(v3NewEye);

  001d2	8d 44 24 30	 lea	 eax, DWORD PTR _v3NewEye$1[esp+64]
; File D:\Metin2 Server Files\mainline\SRC_2014\M2Data\include\d3dx8math.inl

; 283  :     return D3DXVECTOR3(f * v.x, f * v.y, f * v.z);

  001d6	f3 0f 59 c1	 mulss	 xmm0, xmm1
; File D:\Metin2 Server Files\mainline\SRC_2014\Metin2Client\UserInterface\CameraProcedure.cpp

; 49   : 			SetEye(v3NewEye);

  001da	8b ce		 mov	 ecx, esi
  001dc	50		 push	 eax
; File D:\Metin2 Server Files\mainline\SRC_2014\M2Data\include\d3dx8math.inl

; 182  :     z = fz;

  001dd	f3 0f 58 44 24
	28		 addss	 xmm0, DWORD PTR _v3CollisionPoint$[esp+68]

; 180  :     x = fx;

  001e3	f3 0f 11 44 24
	34		 movss	 DWORD PTR _v3NewEye$1[esp+68], xmm0

; 283  :     return D3DXVECTOR3(f * v.x, f * v.y, f * v.z);

  001e9	f3 0f 10 46 4c	 movss	 xmm0, DWORD PTR [esi+76]
  001ee	f3 0f 59 c1	 mulss	 xmm0, xmm1

; 180  :     x = fx;

  001f2	f3 0f 58 44 24
	2c		 addss	 xmm0, DWORD PTR _v3CollisionPoint$[esp+72]

; 181  :     y = fy;

  001f8	f3 0f 11 44 24
	38		 movss	 DWORD PTR _v3NewEye$1[esp+72], xmm0

; 283  :     return D3DXVECTOR3(f * v.x, f * v.y, f * v.z);

  001fe	f3 0f 10 46 50	 movss	 xmm0, DWORD PTR [esi+80]
  00203	f3 0f 59 c1	 mulss	 xmm0, xmm1

; 181  :     y = fy;

  00207	f3 0f 58 44 24
	30		 addss	 xmm0, DWORD PTR _v3CollisionPoint$[esp+76]

; 182  :     z = fz;

  0020d	f3 0f 11 44 24
	3c		 movss	 DWORD PTR _v3NewEye$1[esp+76], xmm0
; File D:\Metin2 Server Files\mainline\SRC_2014\Metin2Client\UserInterface\CameraProcedure.cpp

; 49   : 			SetEye(v3NewEye);

  00213	e8 00 00 00 00	 call	 ?SetEye@CCamera@@QAEXABUD3DXVECTOR3@@@Z ; CCamera::SetEye

; 54   : /*
; 55   : 	if (rPythonBackground.GetPickingPointWithRayOnlyTerrain(m_kCameraFrontToTerrainRay, &v3CollisionPoint))
; 56   : 	{
; 57   : 		if (D3DXVec3Length(&(m_v3Eye - v3CollisionPoint)) < 4.0f * m_fTerrainCollisionRadius)
; 58   : 		{
; 59   : 			D3DXVECTOR3 v3NewEye = v3CollisionPoint - 4.0f * m_fTerrainCollisionRadius * m_v3View;
; 60   : 			//printf("CameraFrontToTerrain new %f > old %f", v3NewEye.z, m_v3Eye.z);
; 61   : 			SetEye(v3NewEye);
; 62   : 		}
; 63   : 	}
; 64   : 
; 65   : 	if (rPythonBackground.GetPickingPointWithRayOnlyTerrain(m_kCameraBackToTerrainRay, &v3CollisionPoint))
; 66   : 	{
; 67   : 		if (D3DXVec3Length(&(m_v3Eye - v3CollisionPoint)) < m_fTerrainCollisionRadius)
; 68   : 		{
; 69   : 			D3DXVECTOR3 v3NewEye = v3CollisionPoint + m_fTerrainCollisionRadius * m_v3View;
; 70   : 			//printf("CameraBackToTerrain new %f > old %f", v3NewEye.z, m_v3Eye.z);
; 71   : 			SetEye(v3NewEye);
; 72   : 		}
; 73   : 	}
; 74   : 
; 75   : 	// Left
; 76   : 	if (rPythonBackground.GetPickingPointWithRayOnlyTerrain(m_kCameraLeftToTerrainRay, &v3CollisionPoint))
; 77   : 	{
; 78   : 		SetCameraState(CAMERA_STATE_CANTGOLEFT);
; 79   : 		if (D3DXVec3Length(&(m_v3Eye - v3CollisionPoint)) < 3.0f * m_fTerrainCollisionRadius)
; 80   : 		{
; 81   : 			D3DXVECTOR3 v3NewEye = v3CollisionPoint + 3.0f * m_fTerrainCollisionRadius * m_v3Cross;
; 82   : 			//printf("CameraLeftToTerrain new %f > old %f", v3NewEye.z, m_v3Eye.z);
; 83   : 			SetEye(v3NewEye);
; 84   : 		}
; 85   : 	}
; 86   : 	else
; 87   : 		SetCameraState(CAMERA_STATE_NORMAL);
; 88   : 
; 89   : 	// Right
; 90   : 	if (rPythonBackground.GetPickingPointWithRayOnlyTerrain(m_kCameraRightToTerrainRay, &v3CollisionPoint))
; 91   : 	{
; 92   : 		SetCameraState(CAMERA_STATE_CANTGORIGHT);
; 93   : 		if (D3DXVec3Length(&(m_v3Eye - v3CollisionPoint)) < 3.0f * m_fTerrainCollisionRadius)
; 94   : 		{
; 95   : 			D3DXVECTOR3 v3NewEye = v3CollisionPoint - 3.0f * m_fTerrainCollisionRadius * m_v3Cross;
; 96   : 			//printf("CameraRightToTerrain new %f > old %f", v3NewEye.z, m_v3Eye.z);
; 97   : 			SetEye(v3NewEye);
; 98   : 		}
; 99   : 	}
; 100  : 	else
; 101  : 		SetCameraState(CAMERA_STATE_NORMAL);
; 102  : 	*/
; 103  : }

  00218	5f		 pop	 edi
  00219	5e		 pop	 esi
  0021a	8b 4c 24 34	 mov	 ecx, DWORD PTR __$ArrayPad$[esp+56]
  0021e	33 cc		 xor	 ecx, esp
  00220	e8 00 00 00 00	 call	 @__security_check_cookie@4
  00225	8b e5		 mov	 esp, ebp
  00227	5d		 pop	 ebp
  00228	c3		 ret	 0
$LN5@ProcessTer:

; 50   : 		}
; 51   : 	}
; 52   : 	else
; 53   : 		SetCameraState(CAMERA_STATE_NORMAL);

  00229	6a 00		 push	 0
  0022b	e8 00 00 00 00	 call	 ?SetCameraState@CCamera@@QAEXW4_eCameraState_@@@Z ; CCamera::SetCameraState
$LN6@ProcessTer:

; 54   : /*
; 55   : 	if (rPythonBackground.GetPickingPointWithRayOnlyTerrain(m_kCameraFrontToTerrainRay, &v3CollisionPoint))
; 56   : 	{
; 57   : 		if (D3DXVec3Length(&(m_v3Eye - v3CollisionPoint)) < 4.0f * m_fTerrainCollisionRadius)
; 58   : 		{
; 59   : 			D3DXVECTOR3 v3NewEye = v3CollisionPoint - 4.0f * m_fTerrainCollisionRadius * m_v3View;
; 60   : 			//printf("CameraFrontToTerrain new %f > old %f", v3NewEye.z, m_v3Eye.z);
; 61   : 			SetEye(v3NewEye);
; 62   : 		}
; 63   : 	}
; 64   : 
; 65   : 	if (rPythonBackground.GetPickingPointWithRayOnlyTerrain(m_kCameraBackToTerrainRay, &v3CollisionPoint))
; 66   : 	{
; 67   : 		if (D3DXVec3Length(&(m_v3Eye - v3CollisionPoint)) < m_fTerrainCollisionRadius)
; 68   : 		{
; 69   : 			D3DXVECTOR3 v3NewEye = v3CollisionPoint + m_fTerrainCollisionRadius * m_v3View;
; 70   : 			//printf("CameraBackToTerrain new %f > old %f", v3NewEye.z, m_v3Eye.z);
; 71   : 			SetEye(v3NewEye);
; 72   : 		}
; 73   : 	}
; 74   : 
; 75   : 	// Left
; 76   : 	if (rPythonBackground.GetPickingPointWithRayOnlyTerrain(m_kCameraLeftToTerrainRay, &v3CollisionPoint))
; 77   : 	{
; 78   : 		SetCameraState(CAMERA_STATE_CANTGOLEFT);
; 79   : 		if (D3DXVec3Length(&(m_v3Eye - v3CollisionPoint)) < 3.0f * m_fTerrainCollisionRadius)
; 80   : 		{
; 81   : 			D3DXVECTOR3 v3NewEye = v3CollisionPoint + 3.0f * m_fTerrainCollisionRadius * m_v3Cross;
; 82   : 			//printf("CameraLeftToTerrain new %f > old %f", v3NewEye.z, m_v3Eye.z);
; 83   : 			SetEye(v3NewEye);
; 84   : 		}
; 85   : 	}
; 86   : 	else
; 87   : 		SetCameraState(CAMERA_STATE_NORMAL);
; 88   : 
; 89   : 	// Right
; 90   : 	if (rPythonBackground.GetPickingPointWithRayOnlyTerrain(m_kCameraRightToTerrainRay, &v3CollisionPoint))
; 91   : 	{
; 92   : 		SetCameraState(CAMERA_STATE_CANTGORIGHT);
; 93   : 		if (D3DXVec3Length(&(m_v3Eye - v3CollisionPoint)) < 3.0f * m_fTerrainCollisionRadius)
; 94   : 		{
; 95   : 			D3DXVECTOR3 v3NewEye = v3CollisionPoint - 3.0f * m_fTerrainCollisionRadius * m_v3Cross;
; 96   : 			//printf("CameraRightToTerrain new %f > old %f", v3NewEye.z, m_v3Eye.z);
; 97   : 			SetEye(v3NewEye);
; 98   : 		}
; 99   : 	}
; 100  : 	else
; 101  : 		SetCameraState(CAMERA_STATE_NORMAL);
; 102  : 	*/
; 103  : }

  00230	8b 4c 24 3c	 mov	 ecx, DWORD PTR __$ArrayPad$[esp+64]
  00234	5f		 pop	 edi
  00235	5e		 pop	 esi
  00236	33 cc		 xor	 ecx, esp
  00238	e8 00 00 00 00	 call	 @__security_check_cookie@4
  0023d	8b e5		 mov	 esp, ebp
  0023f	5d		 pop	 ebp
  00240	c3		 ret	 0
?ProcessTerrainCollision@CCamera@@AAEXXZ ENDP		; CCamera::ProcessTerrainCollision
_TEXT	ENDS
; Function compile flags: /Ogtp
; File D:\Metin2 Server Files\mainline\SRC_2014\Metin2Client\UserInterface\CameraProcedure.cpp
; File D:\Metin2 Server Files\mainline\SRC_2014\M2Data\include\d3dx8math.inl
; File D:\Metin2 Server Files\mainline\SRC_2014\Metin2Client\UserInterface\CameraProcedure.cpp
; File D:\Metin2 Server Files\mainline\SRC_2014\M2Data\include\d3dx8math.inl
; File C:\Program Files (x86)\Windows Kits\10\Include\10.0.18362.0\ucrt\corecrt_math.h
; File D:\Metin2 Server Files\mainline\SRC_2014\M2Data\include\d3dx8math.inl
; File C:\Program Files (x86)\Windows Kits\10\Include\10.0.18362.0\ucrt\corecrt_math.h
; File D:\Metin2 Server Files\mainline\SRC_2014\Metin2Client\UserInterface\CameraProcedure.cpp
; File D:\Metin2 Server Files\mainline\SRC_2014\M2Data\include\d3dx8math.inl
; File D:\Metin2 Server Files\mainline\SRC_2014\Metin2Client\UserInterface\CameraProcedure.cpp
; File C:\Program Files (x86)\Windows Kits\10\Include\10.0.18362.0\ucrt\corecrt_math.h
; File D:\Metin2 Server Files\mainline\SRC_2014\Metin2Client\UserInterface\CameraProcedure.cpp
; File C:\Program Files (x86)\Windows Kits\10\Include\10.0.18362.0\ucrt\corecrt_math.h
; File D:\Metin2 Server Files\mainline\SRC_2014\Metin2Client\UserInterface\CameraProcedure.cpp
;	COMDAT ?Update@CCamera@@QAEXXZ
_TEXT	SEGMENT
_fNewDistance$ = -4					; size = 4
?Update@CCamera@@QAEXXZ PROC				; CCamera::Update, COMDAT
; _this$ = ecx

; 314  : {

  00000	55		 push	 ebp
  00001	8b ec		 mov	 ebp, esp
  00003	51		 push	 ecx
  00004	56		 push	 esi
  00005	8b f1		 mov	 esi, ecx

; 315  : // 	ProcessBuildingCollision();
; 316  : 
; 317  : 	RotateEyeAroundTarget(m_v3AngularVelocity.z, m_v3AngularVelocity.x);

  00007	83 ec 08	 sub	 esp, 8
  0000a	f3 0f 10 86 24
	03 00 00	 movss	 xmm0, DWORD PTR [esi+804]
  00012	f3 0f 11 44 24
	04		 movss	 DWORD PTR [esp+4], xmm0
  00018	f3 0f 10 86 2c
	03 00 00	 movss	 xmm0, DWORD PTR [esi+812]
  00020	f3 0f 11 04 24	 movss	 DWORD PTR [esp], xmm0
  00025	e8 00 00 00 00	 call	 ?RotateEyeAroundTarget@CCamera@@QAEXMM@Z ; CCamera::RotateEyeAroundTarget

; 318  : 
; 319  : 	float fNewDistance=fMAX(CAMERA_MIN_DISTANCE, fMIN( CAMERA_MAX_DISTANCE, GetDistance() - m_v3AngularVelocity.y ) );

  0002a	f3 0f 10 86 34
	01 00 00	 movss	 xmm0, DWORD PTR [esi+308]
  00032	83 ec 08	 sub	 esp, 8
  00035	f3 0f 5c 86 28
	03 00 00	 subss	 xmm0, DWORD PTR [esi+808]
  0003d	f3 0f 11 44 24
	04		 movss	 DWORD PTR [esp+4], xmm0
  00043	f3 0f 10 05 00
	00 00 00	 movss	 xmm0, DWORD PTR ?CAMERA_MAX_DISTANCE@CCamera@@0MA
  0004b	f3 0f 11 04 24	 movss	 DWORD PTR [esp], xmm0
  00050	e8 00 00 00 00	 call	 ?fMIN@@YAMMM@Z		; fMIN
  00055	f3 0f 10 05 00
	00 00 00	 movss	 xmm0, DWORD PTR ?CAMERA_MIN_DISTANCE@CCamera@@0MA
  0005d	d9 5c 24 04	 fstp	 DWORD PTR [esp+4]
  00061	f3 0f 11 04 24	 movss	 DWORD PTR [esp], xmm0
  00066	e8 00 00 00 00	 call	 ?fMAX@@YAMMM@Z		; fMAX

; 320  : 	SetDistance(fNewDistance);

  0006b	83 c4 04	 add	 esp, 4
  0006e	8b ce		 mov	 ecx, esi
  00070	d9 5d fc	 fstp	 DWORD PTR _fNewDistance$[ebp]
  00073	f3 0f 10 45 fc	 movss	 xmm0, DWORD PTR _fNewDistance$[ebp]
  00078	f3 0f 11 04 24	 movss	 DWORD PTR [esp], xmm0
  0007d	e8 00 00 00 00	 call	 ?SetDistance@CCamera@@QAEXM@Z ; CCamera::SetDistance

; 321  : 	
; 322  : 	if (m_bProcessTerrainCollision)

  00082	80 be 34 03 00
	00 00		 cmp	 BYTE PTR [esi+820], 0
  00089	74 07		 je	 SHORT $LN2@Update

; 323  :  		ProcessTerrainCollision();

  0008b	8b ce		 mov	 ecx, esi
  0008d	e8 00 00 00 00	 call	 ?ProcessTerrainCollision@CCamera@@AAEXXZ ; CCamera::ProcessTerrainCollision
$LN2@Update:
; File D:\Metin2 Server Files\mainline\SRC_2014\M2Data\include\d3dx8math.inl

; 222  :     x *= f;

  00092	f3 0f 10 0d 00
	00 00 00	 movss	 xmm1, DWORD PTR __real@3f000000

; 223  :     y *= f;

  0009a	f3 0f 10 86 28
	03 00 00	 movss	 xmm0, DWORD PTR [esi+808]
  000a2	f3 0f 10 96 24
	03 00 00	 movss	 xmm2, DWORD PTR [esi+804]
; File D:\Metin2 Server Files\mainline\SRC_2014\Metin2Client\UserInterface\CameraProcedure.cpp

; 326  : 	if (fabs(m_v3AngularVelocity.x) < 1.0f)

  000aa	f3 0f 10 1d 00
	00 00 00	 movss	 xmm3, DWORD PTR __real@3f800000
; File D:\Metin2 Server Files\mainline\SRC_2014\M2Data\include\d3dx8math.inl

; 223  :     y *= f;

  000b2	f3 0f 59 c1	 mulss	 xmm0, xmm1
  000b6	f3 0f 59 d1	 mulss	 xmm2, xmm1
  000ba	f3 0f 11 86 28
	03 00 00	 movss	 DWORD PTR [esi+808], xmm0

; 224  :     z *= f;

  000c2	f3 0f 10 86 2c
	03 00 00	 movss	 xmm0, DWORD PTR [esi+812]
  000ca	f3 0f 59 c1	 mulss	 xmm0, xmm1
; File C:\Program Files (x86)\Windows Kits\10\Include\10.0.18362.0\ucrt\corecrt_math.h

; 672  :             return (float)fabs(_X);

  000ce	f3 0f 10 0d 00
	00 00 00	 movss	 xmm1, DWORD PTR __xmm@7fffffff7fffffff7fffffff7fffffff
; File D:\Metin2 Server Files\mainline\SRC_2014\M2Data\include\d3dx8math.inl

; 222  :     x *= f;

  000d6	f3 0f 11 96 24
	03 00 00	 movss	 DWORD PTR [esi+804], xmm2
; File C:\Program Files (x86)\Windows Kits\10\Include\10.0.18362.0\ucrt\corecrt_math.h

; 672  :             return (float)fabs(_X);

  000de	0f 54 d1	 andps	 xmm2, xmm1
; File D:\Metin2 Server Files\mainline\SRC_2014\Metin2Client\UserInterface\CameraProcedure.cpp

; 326  : 	if (fabs(m_v3AngularVelocity.x) < 1.0f)

  000e1	0f 2f da	 comiss	 xmm3, xmm2
; File D:\Metin2 Server Files\mainline\SRC_2014\M2Data\include\d3dx8math.inl

; 224  :     z *= f;

  000e4	f3 0f 11 86 2c
	03 00 00	 movss	 DWORD PTR [esi+812], xmm0
; File D:\Metin2 Server Files\mainline\SRC_2014\Metin2Client\UserInterface\CameraProcedure.cpp

; 326  : 	if (fabs(m_v3AngularVelocity.x) < 1.0f)

  000ec	76 0a		 jbe	 SHORT $LN3@Update

; 327  : 		m_v3AngularVelocity.x = 0.0f;

  000ee	c7 86 24 03 00
	00 00 00 00 00	 mov	 DWORD PTR [esi+804], 0
$LN3@Update:
; File C:\Program Files (x86)\Windows Kits\10\Include\10.0.18362.0\ucrt\corecrt_math.h

; 672  :             return (float)fabs(_X);

  000f8	f3 0f 10 86 28
	03 00 00	 movss	 xmm0, DWORD PTR [esi+808]
  00100	0f 54 c1	 andps	 xmm0, xmm1
; File D:\Metin2 Server Files\mainline\SRC_2014\Metin2Client\UserInterface\CameraProcedure.cpp

; 328  : 	if (fabs(m_v3AngularVelocity.y) < 1.0f)

  00103	0f 2f d8	 comiss	 xmm3, xmm0
  00106	76 0a		 jbe	 SHORT $LN4@Update

; 329  : 		m_v3AngularVelocity.y = 0.0f;

  00108	c7 86 28 03 00
	00 00 00 00 00	 mov	 DWORD PTR [esi+808], 0
$LN4@Update:
; File C:\Program Files (x86)\Windows Kits\10\Include\10.0.18362.0\ucrt\corecrt_math.h

; 672  :             return (float)fabs(_X);

  00112	f3 0f 10 86 2c
	03 00 00	 movss	 xmm0, DWORD PTR [esi+812]
  0011a	0f 54 c1	 andps	 xmm0, xmm1
; File D:\Metin2 Server Files\mainline\SRC_2014\Metin2Client\UserInterface\CameraProcedure.cpp

; 330  : 	if (fabs(m_v3AngularVelocity.z) < 1.0f)

  0011d	0f 2f d8	 comiss	 xmm3, xmm0
  00120	76 0a		 jbe	 SHORT $LN5@Update

; 331  : 		m_v3AngularVelocity.z = 0.0f;

  00122	c7 86 2c 03 00
	00 00 00 00 00	 mov	 DWORD PTR [esi+812], 0
$LN5@Update:

; 332  : 
; 333  : 	const float CAMERA_MOVABLE_DISTANCE = CAMERA_MAX_DISTANCE - CAMERA_MIN_DISTANCE;
; 334  : 	const float CAMERA_TARGET_DELTA = CAMERA_TARGET_FACE - CAMERA_TARGET_STANDARD;
; 335  : 	float fCameraCurMovableDistance=CAMERA_MAX_DISTANCE - GetDistance();

  0012c	f3 0f 10 05 00
	00 00 00	 movss	 xmm0, DWORD PTR ?CAMERA_MAX_DISTANCE@CCamera@@0MA
  00134	0f 28 c8	 movaps	 xmm1, xmm0
  00137	f3 0f 5c 8e 34
	01 00 00	 subss	 xmm1, DWORD PTR [esi+308]
  0013f	f3 0f 5c 05 00
	00 00 00	 subss	 xmm0, DWORD PTR ?CAMERA_MIN_DISTANCE@CCamera@@0MA

; 336  : 	float fNewTargetHeight = CAMERA_TARGET_STANDARD + CAMERA_TARGET_DELTA * fCameraCurMovableDistance / CAMERA_MOVABLE_DISTANCE;
; 337  : 
; 338  : 	SetTargetHeight(fNewTargetHeight);

  00147	51		 push	 ecx
  00148	8b ce		 mov	 ecx, esi
  0014a	f3 0f 59 0d 00
	00 00 00	 mulss	 xmm1, DWORD PTR __real@42480000
  00152	f3 0f 5e c8	 divss	 xmm1, xmm0
  00156	f3 0f 58 0d 00
	00 00 00	 addss	 xmm1, DWORD PTR __real@42c80000
  0015e	f3 0f 11 0c 24	 movss	 DWORD PTR [esp], xmm1
  00163	e8 00 00 00 00	 call	 ?SetTargetHeight@CCamera@@QAEXM@Z ; CCamera::SetTargetHeight
  00168	5e		 pop	 esi

; 339  : 
; 340  : 	// Cinematic
; 341  : #ifdef __20040725_CAMERA_WORK__
; 342  : 	m_MovementPosition += m_MovementSpeed;
; 343  : 	
; 344  : 	if (0.0f != m_MovementPosition.m_fViewDir)
; 345  : 		MoveFront(m_MovementPosition.m_fViewDir);
; 346  : 	if (0.0f != m_MovementPosition.m_fCrossDir)
; 347  : 		MoveAlongCross(m_MovementPosition.m_fCrossDir);
; 348  : 	if (0.0f != m_MovementPosition.m_fUpDir)
; 349  : 		MoveVertical(m_MovementPosition.m_fUpDir);
; 350  : #endif
; 351  : }

  00169	8b e5		 mov	 esp, ebp
  0016b	5d		 pop	 ebp
  0016c	c3		 ret	 0
?Update@CCamera@@QAEXXZ ENDP				; CCamera::Update
_TEXT	ENDS
; Function compile flags: /Ogtp
; File C:\Program Files (x86)\Microsoft Visual Studio\2019\Community\VC\Tools\MSVC\14.28.29333\include\xmemory
;	COMDAT ??$_Allocate_manually_vector_aligned@U_Default_allocate_traits@std@@@std@@YAPAXI@Z
_TEXT	SEGMENT
__Bytes$ = 8						; size = 4
??$_Allocate_manually_vector_aligned@U_Default_allocate_traits@std@@@std@@YAPAXI@Z PROC ; std::_Allocate_manually_vector_aligned<std::_Default_allocate_traits>, COMDAT

; 113  : __declspec(allocator) void* _Allocate_manually_vector_aligned(const size_t _Bytes) {

  00000	55		 push	 ebp
  00001	8b ec		 mov	 ebp, esp

; 114  :     // allocate _Bytes manually aligned to at least _Big_allocation_alignment
; 115  :     const size_t _Block_size = _Non_user_size + _Bytes;

  00003	8b 45 08	 mov	 eax, DWORD PTR __Bytes$[ebp]
  00006	8d 48 23	 lea	 ecx, DWORD PTR [eax+35]

; 116  :     if (_Block_size <= _Bytes) {

  00009	3b c8		 cmp	 ecx, eax
  0000b	0f 86 00 00 00
	00		 jbe	 ?_Throw_bad_array_new_length@std@@YAXXZ ; std::_Throw_bad_array_new_length

; 77   :         return ::operator new(_Bytes);

  00011	51		 push	 ecx
  00012	e8 00 00 00 00	 call	 ??2@YAPAXI@Z		; operator new

; 117  :         _Throw_bad_array_new_length(); // add overflow
; 118  :     }
; 119  : 
; 120  :     const uintptr_t _Ptr_container = reinterpret_cast<uintptr_t>(_Traits::_Allocate(_Block_size));

  00017	8b c8		 mov	 ecx, eax

; 77   :         return ::operator new(_Bytes);

  00019	83 c4 04	 add	 esp, 4

; 121  :     _STL_VERIFY(_Ptr_container != 0, "invalid argument"); // validate even in release since we're doing p[-1]

  0001c	85 c9		 test	 ecx, ecx
  0001e	74 0b		 je	 SHORT $LN7@Allocate_m

; 122  :     void* const _Ptr = reinterpret_cast<void*>((_Ptr_container + _Non_user_size) & ~(_Big_allocation_alignment - 1));

  00020	8d 41 23	 lea	 eax, DWORD PTR [ecx+35]
  00023	83 e0 e0	 and	 eax, -32		; ffffffe0H

; 123  :     static_cast<uintptr_t*>(_Ptr)[-1] = _Ptr_container;

  00026	89 48 fc	 mov	 DWORD PTR [eax-4], ecx

; 124  : 
; 125  : #ifdef _DEBUG
; 126  :     static_cast<uintptr_t*>(_Ptr)[-2] = _Big_allocation_sentinel;
; 127  : #endif // _DEBUG
; 128  :     return _Ptr;
; 129  : }

  00029	5d		 pop	 ebp
  0002a	c3		 ret	 0
$LN7@Allocate_m:

; 121  :     _STL_VERIFY(_Ptr_container != 0, "invalid argument"); // validate even in release since we're doing p[-1]

  0002b	e9 00 00 00 00	 jmp	 __invalid_parameter_noinfo_noreturn
??$_Allocate_manually_vector_aligned@U_Default_allocate_traits@std@@@std@@YAPAXI@Z ENDP ; std::_Allocate_manually_vector_aligned<std::_Default_allocate_traits>
_TEXT	ENDS
; Function compile flags: /Ogtp
; File C:\Program Files (x86)\Microsoft Visual Studio\2019\Community\VC\Tools\MSVC\14.28.29333\include\xmemory
;	COMDAT ??$_Allocate@$07U_Default_allocate_traits@std@@$0A@@std@@YAPAXI@Z
_TEXT	SEGMENT
__Bytes$ = 8						; size = 4
??$_Allocate@$07U_Default_allocate_traits@std@@$0A@@std@@YAPAXI@Z PROC ; std::_Allocate<8,std::_Default_allocate_traits,0>, COMDAT

; 197  : __declspec(allocator) void* _Allocate(const size_t _Bytes) {

  00000	55		 push	 ebp
  00001	8b ec		 mov	 ebp, esp

; 198  :     // allocate _Bytes when !_HAS_ALIGNED_NEW || _Align <= __STDCPP_DEFAULT_NEW_ALIGNMENT__
; 199  : #if defined(_M_IX86) || defined(_M_X64)
; 200  :     if (_Bytes >= _Big_allocation_threshold) { // boost the alignment of big allocations to help autovectorization

  00003	8b 45 08	 mov	 eax, DWORD PTR __Bytes$[ebp]
  00006	3d 00 10 00 00	 cmp	 eax, 4096		; 00001000H
  0000b	72 09		 jb	 SHORT $LN2@Allocate

; 201  :         return _Allocate_manually_vector_aligned<_Traits>(_Bytes);

  0000d	89 45 08	 mov	 DWORD PTR __Bytes$[ebp], eax

; 210  : }

  00010	5d		 pop	 ebp

; 201  :         return _Allocate_manually_vector_aligned<_Traits>(_Bytes);

  00011	e9 00 00 00 00	 jmp	 ??$_Allocate_manually_vector_aligned@U_Default_allocate_traits@std@@@std@@YAPAXI@Z ; std::_Allocate_manually_vector_aligned<std::_Default_allocate_traits>
$LN2@Allocate:

; 202  :     }
; 203  : #endif // defined(_M_IX86) || defined(_M_X64)
; 204  : 
; 205  :     if (_Bytes != 0) {

  00016	85 c0		 test	 eax, eax
  00018	74 09		 je	 SHORT $LN3@Allocate

; 77   :         return ::operator new(_Bytes);

  0001a	89 45 08	 mov	 DWORD PTR __Bytes$[ebp], eax

; 210  : }

  0001d	5d		 pop	 ebp

; 77   :         return ::operator new(_Bytes);

  0001e	e9 00 00 00 00	 jmp	 ??2@YAPAXI@Z		; operator new
$LN3@Allocate:

; 206  :         return _Traits::_Allocate(_Bytes);
; 207  :     }
; 208  : 
; 209  :     return nullptr;

  00023	33 c0		 xor	 eax, eax

; 210  : }

  00025	5d		 pop	 ebp
  00026	c3		 ret	 0
??$_Allocate@$07U_Default_allocate_traits@std@@$0A@@std@@YAPAXI@Z ENDP ; std::_Allocate<8,std::_Default_allocate_traits,0>
_TEXT	ENDS
; Function compile flags: /Ogtp
; File C:\Program Files (x86)\Microsoft Visual Studio\2019\Community\VC\Tools\MSVC\14.28.29333\include\xmemory
;	COMDAT ??$_Deallocate@$07$0A@@std@@YAXPAXI@Z
_TEXT	SEGMENT
__Ptr$ = 8						; size = 4
__Bytes$ = 12						; size = 4
??$_Deallocate@$07$0A@@std@@YAXPAXI@Z PROC		; std::_Deallocate<8,0>, COMDAT

; 213  : void _Deallocate(void* _Ptr, size_t _Bytes) noexcept {

  00000	55		 push	 ebp
  00001	8b ec		 mov	 ebp, esp

; 214  :     // deallocate storage allocated by _Allocate when !_HAS_ALIGNED_NEW || _Align <= __STDCPP_DEFAULT_NEW_ALIGNMENT__
; 215  : #if defined(_M_IX86) || defined(_M_X64)
; 216  :     if (_Bytes >= _Big_allocation_threshold) { // boost the alignment of big allocations to help autovectorization

  00003	8b 4d 0c	 mov	 ecx, DWORD PTR __Bytes$[ebp]
  00006	81 f9 00 10 00
	00		 cmp	 ecx, 4096		; 00001000H
  0000c	72 18		 jb	 SHORT $LN15@Deallocate

; 137  :     const uintptr_t _Ptr_container   = _Ptr_user[-1];

  0000e	8b 45 08	 mov	 eax, DWORD PTR __Ptr$[ebp]
  00011	83 c1 23	 add	 ecx, 35			; 00000023H
  00014	8b 50 fc	 mov	 edx, DWORD PTR [eax-4]

; 138  : 
; 139  :     // If the following asserts, it likely means that we are performing
; 140  :     // an aligned delete on memory coming from an unaligned allocation.
; 141  :     _STL_ASSERT(_Ptr_user[-2] == _Big_allocation_sentinel, "invalid argument");
; 142  : 
; 143  :     // Extra paranoia on aligned allocation/deallocation; ensure _Ptr_container is
; 144  :     // in range [_Min_back_shift, _Non_user_size]
; 145  : #ifdef _DEBUG
; 146  :     constexpr uintptr_t _Min_back_shift = 2 * sizeof(void*);
; 147  : #else // ^^^ _DEBUG ^^^ // vvv !_DEBUG vvv
; 148  :     constexpr uintptr_t _Min_back_shift = sizeof(void*);
; 149  : #endif // _DEBUG
; 150  :     const uintptr_t _Back_shift = reinterpret_cast<uintptr_t>(_Ptr) - _Ptr_container;

  00017	2b c2		 sub	 eax, edx

; 151  :     _STL_VERIFY(_Back_shift >= _Min_back_shift && _Back_shift <= _Non_user_size, "invalid argument");

  00019	83 c0 fc	 add	 eax, -4			; fffffffcH
  0001c	83 f8 1f	 cmp	 eax, 31			; 0000001fH
  0001f	76 08		 jbe	 SHORT $LN13@Deallocate
  00021	e9 00 00 00 00	 jmp	 __invalid_parameter_noinfo_noreturn
$LN15@Deallocate:

; 214  :     // deallocate storage allocated by _Allocate when !_HAS_ALIGNED_NEW || _Align <= __STDCPP_DEFAULT_NEW_ALIGNMENT__
; 215  : #if defined(_M_IX86) || defined(_M_X64)
; 216  :     if (_Bytes >= _Big_allocation_threshold) { // boost the alignment of big allocations to help autovectorization

  00026	8b 55 08	 mov	 edx, DWORD PTR __Ptr$[ebp]
$LN13@Deallocate:

; 217  :         _Adjust_manually_vector_aligned(_Ptr, _Bytes);
; 218  :     }
; 219  : #endif // defined(_M_IX86) || defined(_M_X64)
; 220  : 
; 221  :     ::operator delete(_Ptr, _Bytes);

  00029	89 4d 0c	 mov	 DWORD PTR __Bytes$[ebp], ecx
  0002c	89 55 08	 mov	 DWORD PTR __Ptr$[ebp], edx

; 222  : }

  0002f	5d		 pop	 ebp

; 217  :         _Adjust_manually_vector_aligned(_Ptr, _Bytes);
; 218  :     }
; 219  : #endif // defined(_M_IX86) || defined(_M_X64)
; 220  : 
; 221  :     ::operator delete(_Ptr, _Bytes);

  00030	e9 00 00 00 00	 jmp	 ??3@YAXPAXI@Z		; operator delete
??$_Deallocate@$07$0A@@std@@YAXPAXI@Z ENDP		; std::_Deallocate<8,0>
_TEXT	ENDS
; Function compile flags: /Ogtp
; File C:\Program Files (x86)\Microsoft Visual Studio\2019\Community\VC\Tools\MSVC\14.28.29333\include\vector
;	COMDAT ?_Xlength@?$vector@UD3DXVECTOR3@@V?$allocator@UD3DXVECTOR3@@@std@@@std@@CAXXZ
_TEXT	SEGMENT
?_Xlength@?$vector@UD3DXVECTOR3@@V?$allocator@UD3DXVECTOR3@@@std@@@std@@CAXXZ PROC ; std::vector<D3DXVECTOR3,std::allocator<D3DXVECTOR3> >::_Xlength, COMDAT

; 1705 :         _Xlength_error("vector too long");

  00000	68 00 00 00 00	 push	 OFFSET ??_C@_0BA@FOIKENOD@vector?5too?5long@
  00005	e8 00 00 00 00	 call	 ?_Xlength_error@std@@YAXPBD@Z ; std::_Xlength_error
$LN3@Xlength:
  0000a	cc		 int	 3
?_Xlength@?$vector@UD3DXVECTOR3@@V?$allocator@UD3DXVECTOR3@@@std@@@std@@CAXXZ ENDP ; std::vector<D3DXVECTOR3,std::allocator<D3DXVECTOR3> >::_Xlength
_TEXT	ENDS
; Function compile flags: /Ogtp
; File C:\Program Files (x86)\Microsoft Visual Studio\2019\Community\VC\Tools\MSVC\14.28.29333\include\vector
; File C:\Program Files (x86)\Microsoft Visual Studio\2019\Community\VC\Tools\MSVC\14.28.29333\include\xmemory
; File C:\Program Files (x86)\Microsoft Visual Studio\2019\Community\VC\Tools\MSVC\14.28.29333\include\vector
; File C:\Program Files (x86)\Microsoft Visual Studio\2019\Community\VC\Tools\MSVC\14.28.29333\include\xmemory
; File C:\Program Files (x86)\Microsoft Visual Studio\2019\Community\VC\Tools\MSVC\14.28.29333\include\vector
;	COMDAT ??1?$vector@UD3DXVECTOR3@@V?$allocator@UD3DXVECTOR3@@@std@@@std@@QAE@XZ
_TEXT	SEGMENT
??1?$vector@UD3DXVECTOR3@@V?$allocator@UD3DXVECTOR3@@@std@@@std@@QAE@XZ PROC ; std::vector<D3DXVECTOR3,std::allocator<D3DXVECTOR3> >::~vector<D3DXVECTOR3,std::allocator<D3DXVECTOR3> >, COMDAT
; _this$ = ecx

; 672  :     ~vector() noexcept {

  00000	56		 push	 esi
  00001	8b f1		 mov	 esi, ecx

; 1694 :         if (_Myfirst) { // destroy and deallocate old array

  00003	8b 0e		 mov	 ecx, DWORD PTR [esi]
  00005	85 c9		 test	 ecx, ecx
  00007	74 39		 je	 SHORT $LN4@vector

; 1695 :             _Destroy(_Myfirst, _Mylast);
; 1696 :             _Getal().deallocate(_Myfirst, static_cast<size_type>(_Myend - _Myfirst));

  00009	8b 56 08	 mov	 edx, DWORD PTR [esi+8]
  0000c	b8 ab aa aa 2a	 mov	 eax, 715827883		; 2aaaaaabH
  00011	2b d1		 sub	 edx, ecx
  00013	f7 ea		 imul	 edx
  00015	d1 fa		 sar	 edx, 1
  00017	8b c2		 mov	 eax, edx
  00019	c1 e8 1f	 shr	 eax, 31			; 0000001fH
  0001c	03 c2		 add	 eax, edx
; File C:\Program Files (x86)\Microsoft Visual Studio\2019\Community\VC\Tools\MSVC\14.28.29333\include\xmemory

; 810  :         _Deallocate<_New_alignof<_Ty>>(_Ptr, sizeof(_Ty) * _Count);

  0001e	8d 04 40	 lea	 eax, DWORD PTR [eax+eax*2]
  00021	c1 e0 02	 shl	 eax, 2
  00024	50		 push	 eax
  00025	51		 push	 ecx
  00026	e8 00 00 00 00	 call	 ??$_Deallocate@$07$0A@@std@@YAXPAXI@Z ; std::_Deallocate<8,0>
; File C:\Program Files (x86)\Microsoft Visual Studio\2019\Community\VC\Tools\MSVC\14.28.29333\include\vector

; 1698 :             _Myfirst = pointer();

  0002b	c7 06 00 00 00
	00		 mov	 DWORD PTR [esi], 0
; File C:\Program Files (x86)\Microsoft Visual Studio\2019\Community\VC\Tools\MSVC\14.28.29333\include\xmemory

; 810  :         _Deallocate<_New_alignof<_Ty>>(_Ptr, sizeof(_Ty) * _Count);

  00031	83 c4 08	 add	 esp, 8
; File C:\Program Files (x86)\Microsoft Visual Studio\2019\Community\VC\Tools\MSVC\14.28.29333\include\vector

; 1699 :             _Mylast  = pointer();

  00034	c7 46 04 00 00
	00 00		 mov	 DWORD PTR [esi+4], 0

; 1700 :             _Myend   = pointer();

  0003b	c7 46 08 00 00
	00 00		 mov	 DWORD PTR [esi+8], 0
$LN4@vector:
  00042	5e		 pop	 esi

; 673  :         _Tidy();
; 674  : #if _ITERATOR_DEBUG_LEVEL != 0
; 675  :         auto&& _Alproxy = _GET_PROXY_ALLOCATOR(_Alty, _Getal());
; 676  :         _Delete_plain_internal(_Alproxy, _STD exchange(_Mypair._Myval2._Myproxy, nullptr));
; 677  : #endif // _ITERATOR_DEBUG_LEVEL != 0
; 678  :     }

  00043	c3		 ret	 0
??1?$vector@UD3DXVECTOR3@@V?$allocator@UD3DXVECTOR3@@@std@@@std@@QAE@XZ ENDP ; std::vector<D3DXVECTOR3,std::allocator<D3DXVECTOR3> >::~vector<D3DXVECTOR3,std::allocator<D3DXVECTOR3> >
_TEXT	ENDS
; Function compile flags: /Ogtp
;	COMDAT ??_GSpherePackCallback@@UAEPAXI@Z
_TEXT	SEGMENT
___flags$ = 8						; size = 4
??_GSpherePackCallback@@UAEPAXI@Z PROC			; SpherePackCallback::`scalar deleting destructor', COMDAT
; _this$ = ecx
  00000	55		 push	 ebp
  00001	8b ec		 mov	 ebp, esp
  00003	f6 45 08 01	 test	 BYTE PTR ___flags$[ebp], 1
  00007	56		 push	 esi
  00008	8b f1		 mov	 esi, ecx
  0000a	c7 06 00 00 00
	00		 mov	 DWORD PTR [esi], OFFSET ??_7SpherePackCallback@@6B@
  00010	74 0b		 je	 SHORT $LN4@scalar
  00012	6a 04		 push	 4
  00014	56		 push	 esi
  00015	e8 00 00 00 00	 call	 ??3@YAXPAXI@Z		; operator delete
  0001a	83 c4 08	 add	 esp, 8
$LN4@scalar:
  0001d	8b c6		 mov	 eax, esi
  0001f	5e		 pop	 esi
  00020	5d		 pop	 ebp
  00021	c2 04 00	 ret	 4
??_GSpherePackCallback@@UAEPAXI@Z ENDP			; SpherePackCallback::`scalar deleting destructor'
_TEXT	ENDS
; Function compile flags: /Ogtp
; File D:\Metin2 Server Files\mainline\SRC_2014\Metin2Client\SphereLib\spherepack.h
;	COMDAT ?PointTest2dCallback@SpherePackCallback@@UAEXABVVector3d@@PAVSpherePack@@W4ViewState@@@Z
_TEXT	SEGMENT
_searchpos$ = 8						; size = 4
_sphere$ = 12						; size = 4
_state$ = 16						; size = 4
?PointTest2dCallback@SpherePackCallback@@UAEXABVVector3d@@PAVSpherePack@@W4ViewState@@@Z PROC ; SpherePackCallback::PointTest2dCallback, COMDAT
; _this$ = ecx

; 79   : 	{};

  00000	c2 0c 00	 ret	 12			; 0000000cH
?PointTest2dCallback@SpherePackCallback@@UAEXABVVector3d@@PAVSpherePack@@W4ViewState@@@Z ENDP ; SpherePackCallback::PointTest2dCallback
_TEXT	ENDS
; Function compile flags: /Ogtp
; File D:\Metin2 Server Files\mainline\SRC_2014\Metin2Client\SphereLib\spherepack.h
;	COMDAT ?RangeTestCallback@SpherePackCallback@@UAEXABVVector3d@@MPAVSpherePack@@W4ViewState@@@Z
_TEXT	SEGMENT
_searchpos$ = 8						; size = 4
_distance$ = 12						; size = 4
_sphere$ = 16						; size = 4
_state$ = 20						; size = 4
?RangeTestCallback@SpherePackCallback@@UAEXABVVector3d@@MPAVSpherePack@@W4ViewState@@@Z PROC ; SpherePackCallback::RangeTestCallback, COMDAT
; _this$ = ecx

; 74   : 	{};

  00000	c2 10 00	 ret	 16			; 00000010H
?RangeTestCallback@SpherePackCallback@@UAEXABVVector3d@@MPAVSpherePack@@W4ViewState@@@Z ENDP ; SpherePackCallback::RangeTestCallback
_TEXT	ENDS
; Function compile flags: /Ogtp
; File D:\Metin2 Server Files\mainline\SRC_2014\Metin2Client\SphereLib\spherepack.h
;	COMDAT ?RayTraceCallback@SpherePackCallback@@UAEXABVVector3d@@0M0PAVSpherePack@@@Z
_TEXT	SEGMENT
_p1$ = 8						; size = 4
_dir$ = 12						; size = 4
_distance$ = 16						; size = 4
_sect$ = 20						; size = 4
_sphere$ = 24						; size = 4
?RayTraceCallback@SpherePackCallback@@UAEXABVVector3d@@0M0PAVSpherePack@@@Z PROC ; SpherePackCallback::RayTraceCallback, COMDAT
; _this$ = ecx

; 68   : 	{};

  00000	c2 14 00	 ret	 20			; 00000014H
?RayTraceCallback@SpherePackCallback@@UAEXABVVector3d@@0M0PAVSpherePack@@@Z ENDP ; SpherePackCallback::RayTraceCallback
_TEXT	ENDS
; Function compile flags: /Ogtp
; File D:\Metin2 Server Files\mainline\SRC_2014\Metin2Client\SphereLib\spherepack.h
;	COMDAT ?VisibilityCallback@SpherePackCallback@@UAEXABVFrustum@@PAVSpherePack@@W4ViewState@@@Z
_TEXT	SEGMENT
_f$ = 8							; size = 4
_sphere$ = 12						; size = 4
_state$ = 16						; size = 4
?VisibilityCallback@SpherePackCallback@@UAEXABVFrustum@@PAVSpherePack@@W4ViewState@@@Z PROC ; SpherePackCallback::VisibilityCallback, COMDAT
; _this$ = ecx

; 61   : 	{};

  00000	c2 0c 00	 ret	 12			; 0000000cH
?VisibilityCallback@SpherePackCallback@@UAEXABVFrustum@@PAVSpherePack@@W4ViewState@@@Z ENDP ; SpherePackCallback::VisibilityCallback
_TEXT	ENDS
; Function compile flags: /Ogtp
; File D:\Metin2 Server Files\mainline\SRC_2014\Metin2Client\SphereLib\spherepack.h
;	COMDAT ??1SpherePackCallback@@UAE@XZ
_TEXT	SEGMENT
??1SpherePackCallback@@UAE@XZ PROC			; SpherePackCallback::~SpherePackCallback, COMDAT
; _this$ = ecx

; 56   : 	virtual ~SpherePackCallback() {}

  00000	c7 01 00 00 00
	00		 mov	 DWORD PTR [ecx], OFFSET ??_7SpherePackCallback@@6B@
  00006	c3		 ret	 0
??1SpherePackCallback@@UAE@XZ ENDP			; SpherePackCallback::~SpherePackCallback
_TEXT	ENDS
; Function compile flags: /Ogtp
; File C:\Program Files (x86)\Microsoft Visual Studio\2019\Community\VC\Tools\MSVC\14.28.29333\include\exception
;	COMDAT ?_Throw_bad_array_new_length@std@@YAXXZ
_TEXT	SEGMENT
$T1 = -12						; size = 12
?_Throw_bad_array_new_length@std@@YAXXZ PROC		; std::_Throw_bad_array_new_length, COMDAT

; 320  : [[noreturn]] inline void _Throw_bad_array_new_length() {

  00000	55		 push	 ebp
  00001	8b ec		 mov	 ebp, esp
  00003	83 ec 0c	 sub	 esp, 12			; 0000000cH

; 321  :     _THROW(bad_array_new_length{});

  00006	8d 4d f4	 lea	 ecx, DWORD PTR $T1[ebp]
  00009	e8 00 00 00 00	 call	 ??0bad_array_new_length@std@@QAE@XZ ; std::bad_array_new_length::bad_array_new_length
  0000e	68 00 00 00 00	 push	 OFFSET __TI3?AVbad_array_new_length@std@@
  00013	8d 45 f4	 lea	 eax, DWORD PTR $T1[ebp]
  00016	50		 push	 eax
  00017	e8 00 00 00 00	 call	 __CxxThrowException@8
$LN3@Throw_bad_:
  0001c	cc		 int	 3
?_Throw_bad_array_new_length@std@@YAXXZ ENDP		; std::_Throw_bad_array_new_length
_TEXT	ENDS
; Function compile flags: /Ogtp
; File C:\Program Files (x86)\Microsoft Visual Studio\2019\Community\VC\Tools\MSVC\14.28.29333\include\vcruntime_exception.h
;	COMDAT ??_Gbad_array_new_length@std@@UAEPAXI@Z
_TEXT	SEGMENT
___flags$ = 8						; size = 4
??_Gbad_array_new_length@std@@UAEPAXI@Z PROC		; std::bad_array_new_length::`scalar deleting destructor', COMDAT
; _this$ = ecx
  00000	55		 push	 ebp
  00001	8b ec		 mov	 ebp, esp

; 89   :     {

  00003	56		 push	 esi
  00004	8b f1		 mov	 esi, ecx

; 90   :         __std_exception_destroy(&_Data);

  00006	8d 46 04	 lea	 eax, DWORD PTR [esi+4]
  00009	c7 06 00 00 00
	00		 mov	 DWORD PTR [esi], OFFSET ??_7exception@std@@6B@
  0000f	50		 push	 eax
  00010	e8 00 00 00 00	 call	 ___std_exception_destroy
  00015	83 c4 04	 add	 esp, 4
  00018	f6 45 08 01	 test	 BYTE PTR ___flags$[ebp], 1
  0001c	74 0b		 je	 SHORT $LN12@scalar
  0001e	6a 0c		 push	 12			; 0000000cH
  00020	56		 push	 esi
  00021	e8 00 00 00 00	 call	 ??3@YAXPAXI@Z		; operator delete
  00026	83 c4 08	 add	 esp, 8
$LN12@scalar:
  00029	8b c6		 mov	 eax, esi
  0002b	5e		 pop	 esi
  0002c	5d		 pop	 ebp
  0002d	c2 04 00	 ret	 4
??_Gbad_array_new_length@std@@UAEPAXI@Z ENDP		; std::bad_array_new_length::`scalar deleting destructor'
_TEXT	ENDS
; Function compile flags: /Ogtp
; File C:\Program Files (x86)\Microsoft Visual Studio\2019\Community\VC\Tools\MSVC\14.28.29333\include\vcruntime_exception.h
;	COMDAT ??0bad_array_new_length@std@@QAE@ABV01@@Z
_TEXT	SEGMENT
___that$ = 8						; size = 4
??0bad_array_new_length@std@@QAE@ABV01@@Z PROC		; std::bad_array_new_length::bad_array_new_length, COMDAT
; _this$ = ecx
  00000	55		 push	 ebp
  00001	8b ec		 mov	 ebp, esp

; 72   :     {

  00003	56		 push	 esi
  00004	8b f1		 mov	 esi, ecx
  00006	0f 57 c0	 xorps	 xmm0, xmm0

; 71   :         : _Data()

  00009	8d 46 04	 lea	 eax, DWORD PTR [esi+4]

; 73   :         __std_exception_copy(&_Other._Data, &_Data);

  0000c	50		 push	 eax
  0000d	c7 06 00 00 00
	00		 mov	 DWORD PTR [esi], OFFSET ??_7exception@std@@6B@
  00013	66 0f d6 00	 movq	 QWORD PTR [eax], xmm0
  00017	8b 45 08	 mov	 eax, DWORD PTR ___that$[ebp]
  0001a	83 c0 04	 add	 eax, 4
  0001d	50		 push	 eax
  0001e	e8 00 00 00 00	 call	 ___std_exception_copy
  00023	83 c4 08	 add	 esp, 8
  00026	c7 06 00 00 00
	00		 mov	 DWORD PTR [esi], OFFSET ??_7bad_array_new_length@std@@6B@
  0002c	8b c6		 mov	 eax, esi
  0002e	5e		 pop	 esi
  0002f	5d		 pop	 ebp
  00030	c2 04 00	 ret	 4
??0bad_array_new_length@std@@QAE@ABV01@@Z ENDP		; std::bad_array_new_length::bad_array_new_length
_TEXT	ENDS
; Function compile flags: /Ogtp
; File C:\Program Files (x86)\Microsoft Visual Studio\2019\Community\VC\Tools\MSVC\14.28.29333\include\vcruntime_exception.h
;	COMDAT ??1bad_array_new_length@std@@UAE@XZ
_TEXT	SEGMENT
??1bad_array_new_length@std@@UAE@XZ PROC		; std::bad_array_new_length::~bad_array_new_length, COMDAT
; _this$ = ecx

; 90   :         __std_exception_destroy(&_Data);

  00000	8d 41 04	 lea	 eax, DWORD PTR [ecx+4]
  00003	c7 01 00 00 00
	00		 mov	 DWORD PTR [ecx], OFFSET ??_7exception@std@@6B@
  00009	50		 push	 eax
  0000a	e8 00 00 00 00	 call	 ___std_exception_destroy
  0000f	59		 pop	 ecx
  00010	c3		 ret	 0
??1bad_array_new_length@std@@UAE@XZ ENDP		; std::bad_array_new_length::~bad_array_new_length
_TEXT	ENDS
; Function compile flags: /Ogtp
; File C:\Program Files (x86)\Microsoft Visual Studio\2019\Community\VC\Tools\MSVC\14.28.29333\include\vcruntime_exception.h
;	COMDAT ??0bad_array_new_length@std@@QAE@XZ
_TEXT	SEGMENT
??0bad_array_new_length@std@@QAE@XZ PROC		; std::bad_array_new_length::bad_array_new_length, COMDAT
; _this$ = ecx

; 141  :     {

  00000	0f 57 c0	 xorps	 xmm0, xmm0

; 142  :     }

  00003	8b c1		 mov	 eax, ecx

; 65   :         : _Data()

  00005	66 0f d6 41 04	 movq	 QWORD PTR [ecx+4], xmm0

; 66   :     {
; 67   :         _Data._What = _Message;

  0000a	c7 41 04 00 00
	00 00		 mov	 DWORD PTR [ecx+4], OFFSET ??_C@_0BF@KINCDENJ@bad?5array?5new?5length@

; 141  :     {

  00011	c7 01 00 00 00
	00		 mov	 DWORD PTR [ecx], OFFSET ??_7bad_array_new_length@std@@6B@

; 142  :     }

  00017	c3		 ret	 0
??0bad_array_new_length@std@@QAE@XZ ENDP		; std::bad_array_new_length::bad_array_new_length
_TEXT	ENDS
; Function compile flags: /Ogtp
; File C:\Program Files (x86)\Microsoft Visual Studio\2019\Community\VC\Tools\MSVC\14.28.29333\include\vcruntime_exception.h
;	COMDAT ??_Gbad_alloc@std@@UAEPAXI@Z
_TEXT	SEGMENT
___flags$ = 8						; size = 4
??_Gbad_alloc@std@@UAEPAXI@Z PROC			; std::bad_alloc::`scalar deleting destructor', COMDAT
; _this$ = ecx
  00000	55		 push	 ebp
  00001	8b ec		 mov	 ebp, esp

; 89   :     {

  00003	56		 push	 esi
  00004	8b f1		 mov	 esi, ecx

; 90   :         __std_exception_destroy(&_Data);

  00006	8d 46 04	 lea	 eax, DWORD PTR [esi+4]
  00009	c7 06 00 00 00
	00		 mov	 DWORD PTR [esi], OFFSET ??_7exception@std@@6B@
  0000f	50		 push	 eax
  00010	e8 00 00 00 00	 call	 ___std_exception_destroy
  00015	83 c4 04	 add	 esp, 4
  00018	f6 45 08 01	 test	 BYTE PTR ___flags$[ebp], 1
  0001c	74 0b		 je	 SHORT $LN9@scalar
  0001e	6a 0c		 push	 12			; 0000000cH
  00020	56		 push	 esi
  00021	e8 00 00 00 00	 call	 ??3@YAXPAXI@Z		; operator delete
  00026	83 c4 08	 add	 esp, 8
$LN9@scalar:
  00029	8b c6		 mov	 eax, esi
  0002b	5e		 pop	 esi
  0002c	5d		 pop	 ebp
  0002d	c2 04 00	 ret	 4
??_Gbad_alloc@std@@UAEPAXI@Z ENDP			; std::bad_alloc::`scalar deleting destructor'
_TEXT	ENDS
; Function compile flags: /Ogtp
; File C:\Program Files (x86)\Microsoft Visual Studio\2019\Community\VC\Tools\MSVC\14.28.29333\include\vcruntime_exception.h
;	COMDAT ??0bad_alloc@std@@QAE@ABV01@@Z
_TEXT	SEGMENT
___that$ = 8						; size = 4
??0bad_alloc@std@@QAE@ABV01@@Z PROC			; std::bad_alloc::bad_alloc, COMDAT
; _this$ = ecx
  00000	55		 push	 ebp
  00001	8b ec		 mov	 ebp, esp

; 72   :     {

  00003	56		 push	 esi
  00004	8b f1		 mov	 esi, ecx
  00006	0f 57 c0	 xorps	 xmm0, xmm0

; 71   :         : _Data()

  00009	8d 46 04	 lea	 eax, DWORD PTR [esi+4]

; 73   :         __std_exception_copy(&_Other._Data, &_Data);

  0000c	50		 push	 eax
  0000d	c7 06 00 00 00
	00		 mov	 DWORD PTR [esi], OFFSET ??_7exception@std@@6B@
  00013	66 0f d6 00	 movq	 QWORD PTR [eax], xmm0
  00017	8b 45 08	 mov	 eax, DWORD PTR ___that$[ebp]
  0001a	83 c0 04	 add	 eax, 4
  0001d	50		 push	 eax
  0001e	e8 00 00 00 00	 call	 ___std_exception_copy
  00023	83 c4 08	 add	 esp, 8
  00026	c7 06 00 00 00
	00		 mov	 DWORD PTR [esi], OFFSET ??_7bad_alloc@std@@6B@
  0002c	8b c6		 mov	 eax, esi
  0002e	5e		 pop	 esi
  0002f	5d		 pop	 ebp
  00030	c2 04 00	 ret	 4
??0bad_alloc@std@@QAE@ABV01@@Z ENDP			; std::bad_alloc::bad_alloc
_TEXT	ENDS
; Function compile flags: /Ogtp
; File C:\Program Files (x86)\Microsoft Visual Studio\2019\Community\VC\Tools\MSVC\14.28.29333\include\vcruntime_exception.h
;	COMDAT ??_Gexception@std@@UAEPAXI@Z
_TEXT	SEGMENT
___flags$ = 8						; size = 4
??_Gexception@std@@UAEPAXI@Z PROC			; std::exception::`scalar deleting destructor', COMDAT
; _this$ = ecx
  00000	55		 push	 ebp
  00001	8b ec		 mov	 ebp, esp

; 89   :     {

  00003	56		 push	 esi
  00004	8b f1		 mov	 esi, ecx

; 90   :         __std_exception_destroy(&_Data);

  00006	8d 46 04	 lea	 eax, DWORD PTR [esi+4]
  00009	c7 06 00 00 00
	00		 mov	 DWORD PTR [esi], OFFSET ??_7exception@std@@6B@
  0000f	50		 push	 eax
  00010	e8 00 00 00 00	 call	 ___std_exception_destroy
  00015	83 c4 04	 add	 esp, 4
  00018	f6 45 08 01	 test	 BYTE PTR ___flags$[ebp], 1
  0001c	74 0b		 je	 SHORT $LN6@scalar
  0001e	6a 0c		 push	 12			; 0000000cH
  00020	56		 push	 esi
  00021	e8 00 00 00 00	 call	 ??3@YAXPAXI@Z		; operator delete
  00026	83 c4 08	 add	 esp, 8
$LN6@scalar:
  00029	8b c6		 mov	 eax, esi
  0002b	5e		 pop	 esi
  0002c	5d		 pop	 ebp
  0002d	c2 04 00	 ret	 4
??_Gexception@std@@UAEPAXI@Z ENDP			; std::exception::`scalar deleting destructor'
_TEXT	ENDS
; Function compile flags: /Ogtp
; File C:\Program Files (x86)\Microsoft Visual Studio\2019\Community\VC\Tools\MSVC\14.28.29333\include\vcruntime_exception.h
;	COMDAT ?what@exception@std@@UBEPBDXZ
_TEXT	SEGMENT
?what@exception@std@@UBEPBDXZ PROC			; std::exception::what, COMDAT
; _this$ = ecx

; 95   :         return _Data._What ? _Data._What : "Unknown exception";

  00000	8b 49 04	 mov	 ecx, DWORD PTR [ecx+4]
  00003	b8 00 00 00 00	 mov	 eax, OFFSET ??_C@_0BC@EOODALEL@Unknown?5exception@
  00008	85 c9		 test	 ecx, ecx
  0000a	0f 45 c1	 cmovne	 eax, ecx

; 96   :     }

  0000d	c3		 ret	 0
?what@exception@std@@UBEPBDXZ ENDP			; std::exception::what
_TEXT	ENDS
; Function compile flags: /Ogtp
; File C:\Program Files (x86)\Microsoft Visual Studio\2019\Community\VC\Tools\MSVC\14.28.29333\include\vcruntime_exception.h
;	COMDAT ??1exception@std@@UAE@XZ
_TEXT	SEGMENT
??1exception@std@@UAE@XZ PROC				; std::exception::~exception, COMDAT
; _this$ = ecx

; 90   :         __std_exception_destroy(&_Data);

  00000	8d 41 04	 lea	 eax, DWORD PTR [ecx+4]
  00003	c7 01 00 00 00
	00		 mov	 DWORD PTR [ecx], OFFSET ??_7exception@std@@6B@
  00009	50		 push	 eax
  0000a	e8 00 00 00 00	 call	 ___std_exception_destroy
  0000f	59		 pop	 ecx

; 91   :     }

  00010	c3		 ret	 0
??1exception@std@@UAE@XZ ENDP				; std::exception::~exception
_TEXT	ENDS
; Function compile flags: /Ogtp
; File C:\Program Files (x86)\Microsoft Visual Studio\2019\Community\VC\Tools\MSVC\14.28.29333\include\vcruntime_exception.h
;	COMDAT ??0exception@std@@QAE@ABV01@@Z
_TEXT	SEGMENT
__Other$ = 8						; size = 4
??0exception@std@@QAE@ABV01@@Z PROC			; std::exception::exception, COMDAT
; _this$ = ecx

; 72   :     {

  00000	55		 push	 ebp
  00001	8b ec		 mov	 ebp, esp
  00003	56		 push	 esi
  00004	8b f1		 mov	 esi, ecx
  00006	0f 57 c0	 xorps	 xmm0, xmm0
  00009	8d 46 04	 lea	 eax, DWORD PTR [esi+4]

; 73   :         __std_exception_copy(&_Other._Data, &_Data);

  0000c	50		 push	 eax
  0000d	c7 06 00 00 00
	00		 mov	 DWORD PTR [esi], OFFSET ??_7exception@std@@6B@
  00013	66 0f d6 00	 movq	 QWORD PTR [eax], xmm0
  00017	8b 45 08	 mov	 eax, DWORD PTR __Other$[ebp]
  0001a	83 c0 04	 add	 eax, 4
  0001d	50		 push	 eax
  0001e	e8 00 00 00 00	 call	 ___std_exception_copy
  00023	83 c4 08	 add	 esp, 8

; 74   :     }

  00026	8b c6		 mov	 eax, esi
  00028	5e		 pop	 esi
  00029	5d		 pop	 ebp
  0002a	c2 04 00	 ret	 4
??0exception@std@@QAE@ABV01@@Z ENDP			; std::exception::exception
_TEXT	ENDS
END
