; Listing generated by Microsoft (R) Optimizing Compiler Version 19.28.29335.0 

	TITLE	D:\Metin2 Server Files\mainline\SRC_2014\Metin2Client\UserInterface\InstanceBase.cpp
	.686P
	.XMM
	include listing.inc
	.model	flat

INCLUDELIB LIBCMT
INCLUDELIB OLDNAMES

PUBLIC	??_R4?$CDynamicPool@VCInstanceBase@@@@6B@	; CDynamicPool<CInstanceBase>::`RTTI Complete Object Locator'
PUBLIC	??_R0?AV?$CDynamicPool@VCInstanceBase@@@@@8	; CDynamicPool<CInstanceBase> `RTTI Type Descriptor'
PUBLIC	??_R3?$CDynamicPool@VCInstanceBase@@@@8		; CDynamicPool<CInstanceBase>::`RTTI Class Hierarchy Descriptor'
PUBLIC	??_R2?$CDynamicPool@VCInstanceBase@@@@8		; CDynamicPool<CInstanceBase>::`RTTI Base Class Array'
PUBLIC	??_R1A@?0A@EA@?$CDynamicPool@VCInstanceBase@@@@8 ; CDynamicPool<CInstanceBase>::`RTTI Base Class Descriptor at (0,-1,0,64)'
PUBLIC	??_R4CActorInstanceBackground@@6B@		; CActorInstanceBackground::`RTTI Complete Object Locator'
PUBLIC	??_R0?AVCActorInstanceBackground@@@8		; CActorInstanceBackground `RTTI Type Descriptor'
PUBLIC	??_R3CActorInstanceBackground@@8		; CActorInstanceBackground::`RTTI Class Hierarchy Descriptor'
PUBLIC	??_R2CActorInstanceBackground@@8		; CActorInstanceBackground::`RTTI Base Class Array'
PUBLIC	??_R1A@?0A@EA@CActorInstanceBackground@@8	; CActorInstanceBackground::`RTTI Base Class Descriptor at (0,-1,0,64)'
PUBLIC	??_7?$CDynamicPoolEx@VCRotationDecorator@NEffectUpdateDecorator@@@@6B@ ; CDynamicPoolEx<NEffectUpdateDecorator::CRotationDecorator>::`vftable'
PUBLIC	??_G?$CDynamicPoolEx@VCRotationDecorator@NEffectUpdateDecorator@@@@UAEPAXI@Z ; CDynamicPoolEx<NEffectUpdateDecorator::CRotationDecorator>::`scalar deleting destructor'
PUBLIC	??_R4IBackground@@6B@				; IBackground::`RTTI Complete Object Locator'
PUBLIC	??_R0?AVIBackground@@@8				; IBackground `RTTI Type Descriptor'
PUBLIC	??_R3IBackground@@8				; IBackground::`RTTI Class Hierarchy Descriptor'
PUBLIC	??_R2IBackground@@8				; IBackground::`RTTI Base Class Array'
PUBLIC	??_R1A@?0A@EA@IBackground@@8			; IBackground::`RTTI Base Class Descriptor at (0,-1,0,64)'
PUBLIC	??_R1A@?0A@EA@?$CSingleton@VIBackground@@@@8	; CSingleton<IBackground>::`RTTI Base Class Descriptor at (0,-1,0,64)'
PUBLIC	??_R0?AV?$CSingleton@VIBackground@@@@@8		; CSingleton<IBackground> `RTTI Type Descriptor'
PUBLIC	??_R3?$CSingleton@VIBackground@@@@8		; CSingleton<IBackground>::`RTTI Class Hierarchy Descriptor'
PUBLIC	??_R2?$CSingleton@VIBackground@@@@8		; CSingleton<IBackground>::`RTTI Base Class Array'
PUBLIC	??_R4?$CSingleton@VIBackground@@@@6B@		; CSingleton<IBackground>::`RTTI Complete Object Locator'
PUBLIC	??_7?$CDynamicPoolEx@VCGravityDecorator@NEffectUpdateDecorator@@@@6B@ ; CDynamicPoolEx<NEffectUpdateDecorator::CGravityDecorator>::`vftable'
PUBLIC	??_G?$CDynamicPoolEx@VCGravityDecorator@NEffectUpdateDecorator@@@@UAEPAXI@Z ; CDynamicPoolEx<NEffectUpdateDecorator::CGravityDecorator>::`scalar deleting destructor'
PUBLIC	??_7?$CDynamicPoolEx@VCAirResistanceDecorator@NEffectUpdateDecorator@@@@6B@ ; CDynamicPoolEx<NEffectUpdateDecorator::CAirResistanceDecorator>::`vftable'
PUBLIC	??_G?$CDynamicPoolEx@VCAirResistanceDecorator@NEffectUpdateDecorator@@@@UAEPAXI@Z ; CDynamicPoolEx<NEffectUpdateDecorator::CAirResistanceDecorator>::`scalar deleting destructor'
PUBLIC	??_7?$CDynamicPoolEx@VCTextureAnimationRandomDecorator@NEffectUpdateDecorator@@@@6B@ ; CDynamicPoolEx<NEffectUpdateDecorator::CTextureAnimationRandomDecorator>::`vftable'
PUBLIC	??_G?$CDynamicPoolEx@VCTextureAnimationRandomDecorator@NEffectUpdateDecorator@@@@UAEPAXI@Z ; CDynamicPoolEx<NEffectUpdateDecorator::CTextureAnimationRandomDecorator>::`scalar deleting destructor'
PUBLIC	??_7?$CDynamicPoolEx@VCTextureAnimationCCWDecorator@NEffectUpdateDecorator@@@@6B@ ; CDynamicPoolEx<NEffectUpdateDecorator::CTextureAnimationCCWDecorator>::`vftable'
PUBLIC	??_G?$CDynamicPoolEx@VCTextureAnimationCCWDecorator@NEffectUpdateDecorator@@@@UAEPAXI@Z ; CDynamicPoolEx<NEffectUpdateDecorator::CTextureAnimationCCWDecorator>::`scalar deleting destructor'
PUBLIC	??_7?$CDynamicPoolEx@VCTextureAnimationCWDecorator@NEffectUpdateDecorator@@@@6B@ ; CDynamicPoolEx<NEffectUpdateDecorator::CTextureAnimationCWDecorator>::`vftable'
PUBLIC	??_G?$CDynamicPoolEx@VCTextureAnimationCWDecorator@NEffectUpdateDecorator@@@@UAEPAXI@Z ; CDynamicPoolEx<NEffectUpdateDecorator::CTextureAnimationCWDecorator>::`scalar deleting destructor'
PUBLIC	??_7?$CDynamicPoolEx@VCNullDecorator@NEffectUpdateDecorator@@@@6B@ ; CDynamicPoolEx<NEffectUpdateDecorator::CNullDecorator>::`vftable'
PUBLIC	??_G?$CDynamicPoolEx@VCNullDecorator@NEffectUpdateDecorator@@@@UAEPAXI@Z ; CDynamicPoolEx<NEffectUpdateDecorator::CNullDecorator>::`scalar deleting destructor'
PUBLIC	?ms_singleton@?$CSingleton@VIBackground@@@@0PAVIBackground@@A ; CSingleton<IBackground>::ms_singleton
PUBLIC	??_7?$CSingleton@VIBackground@@@@6B@		; CSingleton<IBackground>::`vftable'
PUBLIC	??_G?$CSingleton@VIBackground@@@@UAEPAXI@Z	; CSingleton<IBackground>::`scalar deleting destructor'
PUBLIC	??_7IBackground@@6B@				; IBackground::`vftable'
PUBLIC	??_GIBackground@@UAEPAXI@Z			; IBackground::`scalar deleting destructor'
PUBLIC	??_7?$CDynamicPoolEx@VCHeaderDecorator@NEffectUpdateDecorator@@@@6B@ ; CDynamicPoolEx<NEffectUpdateDecorator::CHeaderDecorator>::`vftable'
PUBLIC	??_G?$CDynamicPoolEx@VCHeaderDecorator@NEffectUpdateDecorator@@@@UAEPAXI@Z ; CDynamicPoolEx<NEffectUpdateDecorator::CHeaderDecorator>::`scalar deleting destructor'
PUBLIC	?HAIR_COLOR_ENABLE@@3HA				; HAIR_COLOR_ENABLE
PUBLIC	?USE_ARMOR_SPECULAR@@3HA			; USE_ARMOR_SPECULAR
PUBLIC	?RIDE_HORSE_ENABLE@@3HA				; RIDE_HORSE_ENABLE
PUBLIC	?IsBlock@CActorInstanceBackground@@UAE_NHH@Z	; CActorInstanceBackground::IsBlock
PUBLIC	??_7CActorInstanceBackground@@6B@		; CActorInstanceBackground::`vftable'
PUBLIC	??_GCActorInstanceBackground@@UAEPAXI@Z		; CActorInstanceBackground::`scalar deleting destructor'
PUBLIC	?ms_dwUpdateCounter@CInstanceBase@@1KA		; CInstanceBase::ms_dwUpdateCounter
PUBLIC	?ms_dwRenderCounter@CInstanceBase@@1KA		; CInstanceBase::ms_dwRenderCounter
PUBLIC	?ms_dwDeformCounter@CInstanceBase@@1KA		; CInstanceBase::ms_dwDeformCounter
PUBLIC	??_7?$CDynamicPool@VCInstanceBase@@@@6B@	; CDynamicPool<CInstanceBase>::`vftable'
PUBLIC	??_G?$CDynamicPool@VCInstanceBase@@@@UAEPAXI@Z	; CDynamicPool<CInstanceBase>::`scalar deleting destructor'
PUBLIC	?g_iAccumulationTime@@3HA			; g_iAccumulationTime
PUBLIC	??_R4?$CDynamicPoolEx@VCHeaderDecorator@NEffectUpdateDecorator@@@@6B@ ; CDynamicPoolEx<NEffectUpdateDecorator::CHeaderDecorator>::`RTTI Complete Object Locator'
PUBLIC	??_R0?AV?$CDynamicPoolEx@VCHeaderDecorator@NEffectUpdateDecorator@@@@@8 ; CDynamicPoolEx<NEffectUpdateDecorator::CHeaderDecorator> `RTTI Type Descriptor'
PUBLIC	??_R3?$CDynamicPoolEx@VCHeaderDecorator@NEffectUpdateDecorator@@@@8 ; CDynamicPoolEx<NEffectUpdateDecorator::CHeaderDecorator>::`RTTI Class Hierarchy Descriptor'
PUBLIC	??_R2?$CDynamicPoolEx@VCHeaderDecorator@NEffectUpdateDecorator@@@@8 ; CDynamicPoolEx<NEffectUpdateDecorator::CHeaderDecorator>::`RTTI Base Class Array'
PUBLIC	??_R1A@?0A@EA@?$CDynamicPoolEx@VCHeaderDecorator@NEffectUpdateDecorator@@@@8 ; CDynamicPoolEx<NEffectUpdateDecorator::CHeaderDecorator>::`RTTI Base Class Descriptor at (0,-1,0,64)'
PUBLIC	??_R4?$CDynamicPoolEx@VCNullDecorator@NEffectUpdateDecorator@@@@6B@ ; CDynamicPoolEx<NEffectUpdateDecorator::CNullDecorator>::`RTTI Complete Object Locator'
PUBLIC	??_R0?AV?$CDynamicPoolEx@VCNullDecorator@NEffectUpdateDecorator@@@@@8 ; CDynamicPoolEx<NEffectUpdateDecorator::CNullDecorator> `RTTI Type Descriptor'
PUBLIC	??_R3?$CDynamicPoolEx@VCNullDecorator@NEffectUpdateDecorator@@@@8 ; CDynamicPoolEx<NEffectUpdateDecorator::CNullDecorator>::`RTTI Class Hierarchy Descriptor'
PUBLIC	??_R2?$CDynamicPoolEx@VCNullDecorator@NEffectUpdateDecorator@@@@8 ; CDynamicPoolEx<NEffectUpdateDecorator::CNullDecorator>::`RTTI Base Class Array'
PUBLIC	??_R1A@?0A@EA@?$CDynamicPoolEx@VCNullDecorator@NEffectUpdateDecorator@@@@8 ; CDynamicPoolEx<NEffectUpdateDecorator::CNullDecorator>::`RTTI Base Class Descriptor at (0,-1,0,64)'
PUBLIC	??_R4?$CDynamicPoolEx@VCTextureAnimationCWDecorator@NEffectUpdateDecorator@@@@6B@ ; CDynamicPoolEx<NEffectUpdateDecorator::CTextureAnimationCWDecorator>::`RTTI Complete Object Locator'
PUBLIC	??_R0?AV?$CDynamicPoolEx@VCTextureAnimationCWDecorator@NEffectUpdateDecorator@@@@@8 ; CDynamicPoolEx<NEffectUpdateDecorator::CTextureAnimationCWDecorator> `RTTI Type Descriptor'
PUBLIC	??_R3?$CDynamicPoolEx@VCTextureAnimationCWDecorator@NEffectUpdateDecorator@@@@8 ; CDynamicPoolEx<NEffectUpdateDecorator::CTextureAnimationCWDecorator>::`RTTI Class Hierarchy Descriptor'
PUBLIC	??_R2?$CDynamicPoolEx@VCTextureAnimationCWDecorator@NEffectUpdateDecorator@@@@8 ; CDynamicPoolEx<NEffectUpdateDecorator::CTextureAnimationCWDecorator>::`RTTI Base Class Array'
PUBLIC	??_R1A@?0A@EA@?$CDynamicPoolEx@VCTextureAnimationCWDecorator@NEffectUpdateDecorator@@@@8 ; CDynamicPoolEx<NEffectUpdateDecorator::CTextureAnimationCWDecorator>::`RTTI Base Class Descriptor at (0,-1,0,64)'
PUBLIC	??_R4?$CDynamicPoolEx@VCTextureAnimationCCWDecorator@NEffectUpdateDecorator@@@@6B@ ; CDynamicPoolEx<NEffectUpdateDecorator::CTextureAnimationCCWDecorator>::`RTTI Complete Object Locator'
PUBLIC	??_R0?AV?$CDynamicPoolEx@VCTextureAnimationCCWDecorator@NEffectUpdateDecorator@@@@@8 ; CDynamicPoolEx<NEffectUpdateDecorator::CTextureAnimationCCWDecorator> `RTTI Type Descriptor'
PUBLIC	??_R3?$CDynamicPoolEx@VCTextureAnimationCCWDecorator@NEffectUpdateDecorator@@@@8 ; CDynamicPoolEx<NEffectUpdateDecorator::CTextureAnimationCCWDecorator>::`RTTI Class Hierarchy Descriptor'
PUBLIC	??_R2?$CDynamicPoolEx@VCTextureAnimationCCWDecorator@NEffectUpdateDecorator@@@@8 ; CDynamicPoolEx<NEffectUpdateDecorator::CTextureAnimationCCWDecorator>::`RTTI Base Class Array'
PUBLIC	??_R1A@?0A@EA@?$CDynamicPoolEx@VCTextureAnimationCCWDecorator@NEffectUpdateDecorator@@@@8 ; CDynamicPoolEx<NEffectUpdateDecorator::CTextureAnimationCCWDecorator>::`RTTI Base Class Descriptor at (0,-1,0,64)'
PUBLIC	??_R4?$CDynamicPoolEx@VCTextureAnimationRandomDecorator@NEffectUpdateDecorator@@@@6B@ ; CDynamicPoolEx<NEffectUpdateDecorator::CTextureAnimationRandomDecorator>::`RTTI Complete Object Locator'
PUBLIC	??_R0?AV?$CDynamicPoolEx@VCTextureAnimationRandomDecorator@NEffectUpdateDecorator@@@@@8 ; CDynamicPoolEx<NEffectUpdateDecorator::CTextureAnimationRandomDecorator> `RTTI Type Descriptor'
PUBLIC	??_R3?$CDynamicPoolEx@VCTextureAnimationRandomDecorator@NEffectUpdateDecorator@@@@8 ; CDynamicPoolEx<NEffectUpdateDecorator::CTextureAnimationRandomDecorator>::`RTTI Class Hierarchy Descriptor'
PUBLIC	??_R2?$CDynamicPoolEx@VCTextureAnimationRandomDecorator@NEffectUpdateDecorator@@@@8 ; CDynamicPoolEx<NEffectUpdateDecorator::CTextureAnimationRandomDecorator>::`RTTI Base Class Array'
PUBLIC	??_R1A@?0A@EA@?$CDynamicPoolEx@VCTextureAnimationRandomDecorator@NEffectUpdateDecorator@@@@8 ; CDynamicPoolEx<NEffectUpdateDecorator::CTextureAnimationRandomDecorator>::`RTTI Base Class Descriptor at (0,-1,0,64)'
PUBLIC	??_R4?$CDynamicPoolEx@VCAirResistanceDecorator@NEffectUpdateDecorator@@@@6B@ ; CDynamicPoolEx<NEffectUpdateDecorator::CAirResistanceDecorator>::`RTTI Complete Object Locator'
PUBLIC	??_R0?AV?$CDynamicPoolEx@VCAirResistanceDecorator@NEffectUpdateDecorator@@@@@8 ; CDynamicPoolEx<NEffectUpdateDecorator::CAirResistanceDecorator> `RTTI Type Descriptor'
PUBLIC	??_R3?$CDynamicPoolEx@VCAirResistanceDecorator@NEffectUpdateDecorator@@@@8 ; CDynamicPoolEx<NEffectUpdateDecorator::CAirResistanceDecorator>::`RTTI Class Hierarchy Descriptor'
PUBLIC	??_R2?$CDynamicPoolEx@VCAirResistanceDecorator@NEffectUpdateDecorator@@@@8 ; CDynamicPoolEx<NEffectUpdateDecorator::CAirResistanceDecorator>::`RTTI Base Class Array'
PUBLIC	??_R1A@?0A@EA@?$CDynamicPoolEx@VCAirResistanceDecorator@NEffectUpdateDecorator@@@@8 ; CDynamicPoolEx<NEffectUpdateDecorator::CAirResistanceDecorator>::`RTTI Base Class Descriptor at (0,-1,0,64)'
PUBLIC	??_R4?$CDynamicPoolEx@VCGravityDecorator@NEffectUpdateDecorator@@@@6B@ ; CDynamicPoolEx<NEffectUpdateDecorator::CGravityDecorator>::`RTTI Complete Object Locator'
PUBLIC	??_R0?AV?$CDynamicPoolEx@VCGravityDecorator@NEffectUpdateDecorator@@@@@8 ; CDynamicPoolEx<NEffectUpdateDecorator::CGravityDecorator> `RTTI Type Descriptor'
PUBLIC	??_R3?$CDynamicPoolEx@VCGravityDecorator@NEffectUpdateDecorator@@@@8 ; CDynamicPoolEx<NEffectUpdateDecorator::CGravityDecorator>::`RTTI Class Hierarchy Descriptor'
PUBLIC	??_R2?$CDynamicPoolEx@VCGravityDecorator@NEffectUpdateDecorator@@@@8 ; CDynamicPoolEx<NEffectUpdateDecorator::CGravityDecorator>::`RTTI Base Class Array'
PUBLIC	??_R1A@?0A@EA@?$CDynamicPoolEx@VCGravityDecorator@NEffectUpdateDecorator@@@@8 ; CDynamicPoolEx<NEffectUpdateDecorator::CGravityDecorator>::`RTTI Base Class Descriptor at (0,-1,0,64)'
PUBLIC	??_R4?$CDynamicPoolEx@VCRotationDecorator@NEffectUpdateDecorator@@@@6B@ ; CDynamicPoolEx<NEffectUpdateDecorator::CRotationDecorator>::`RTTI Complete Object Locator'
PUBLIC	??_R0?AV?$CDynamicPoolEx@VCRotationDecorator@NEffectUpdateDecorator@@@@@8 ; CDynamicPoolEx<NEffectUpdateDecorator::CRotationDecorator> `RTTI Type Descriptor'
PUBLIC	??_R3?$CDynamicPoolEx@VCRotationDecorator@NEffectUpdateDecorator@@@@8 ; CDynamicPoolEx<NEffectUpdateDecorator::CRotationDecorator>::`RTTI Class Hierarchy Descriptor'
PUBLIC	??_R2?$CDynamicPoolEx@VCRotationDecorator@NEffectUpdateDecorator@@@@8 ; CDynamicPoolEx<NEffectUpdateDecorator::CRotationDecorator>::`RTTI Base Class Array'
PUBLIC	??_R1A@?0A@EA@?$CDynamicPoolEx@VCRotationDecorator@NEffectUpdateDecorator@@@@8 ; CDynamicPoolEx<NEffectUpdateDecorator::CRotationDecorator>::`RTTI Base Class Descriptor at (0,-1,0,64)'
EXTRN	__purecall:PROC
EXTRN	??_E?$CDynamicPoolEx@VCRotationDecorator@NEffectUpdateDecorator@@@@UAEPAXI@Z:PROC ; CDynamicPoolEx<NEffectUpdateDecorator::CRotationDecorator>::`vector deleting destructor'
EXTRN	??_E?$CDynamicPoolEx@VCGravityDecorator@NEffectUpdateDecorator@@@@UAEPAXI@Z:PROC ; CDynamicPoolEx<NEffectUpdateDecorator::CGravityDecorator>::`vector deleting destructor'
EXTRN	??_E?$CDynamicPoolEx@VCAirResistanceDecorator@NEffectUpdateDecorator@@@@UAEPAXI@Z:PROC ; CDynamicPoolEx<NEffectUpdateDecorator::CAirResistanceDecorator>::`vector deleting destructor'
EXTRN	??_E?$CDynamicPoolEx@VCTextureAnimationRandomDecorator@NEffectUpdateDecorator@@@@UAEPAXI@Z:PROC ; CDynamicPoolEx<NEffectUpdateDecorator::CTextureAnimationRandomDecorator>::`vector deleting destructor'
EXTRN	??_E?$CDynamicPoolEx@VCTextureAnimationCCWDecorator@NEffectUpdateDecorator@@@@UAEPAXI@Z:PROC ; CDynamicPoolEx<NEffectUpdateDecorator::CTextureAnimationCCWDecorator>::`vector deleting destructor'
EXTRN	??_E?$CDynamicPoolEx@VCTextureAnimationCWDecorator@NEffectUpdateDecorator@@@@UAEPAXI@Z:PROC ; CDynamicPoolEx<NEffectUpdateDecorator::CTextureAnimationCWDecorator>::`vector deleting destructor'
EXTRN	??_E?$CDynamicPoolEx@VCNullDecorator@NEffectUpdateDecorator@@@@UAEPAXI@Z:PROC ; CDynamicPoolEx<NEffectUpdateDecorator::CNullDecorator>::`vector deleting destructor'
EXTRN	??_E?$CSingleton@VIBackground@@@@UAEPAXI@Z:PROC	; CSingleton<IBackground>::`vector deleting destructor'
EXTRN	??_EIBackground@@UAEPAXI@Z:PROC			; IBackground::`vector deleting destructor'
EXTRN	??_E?$CDynamicPoolEx@VCHeaderDecorator@NEffectUpdateDecorator@@@@UAEPAXI@Z:PROC ; CDynamicPoolEx<NEffectUpdateDecorator::CHeaderDecorator>::`vector deleting destructor'
EXTRN	??_7type_info@@6B@:QWORD			; type_info::`vftable'
EXTRN	??_ECActorInstanceBackground@@UAEPAXI@Z:PROC	; CActorInstanceBackground::`vector deleting destructor'
EXTRN	??_E?$CDynamicPool@VCInstanceBase@@@@UAEPAXI@Z:PROC ; CDynamicPool<CInstanceBase>::`vector deleting destructor'
;	COMDAT ?ms_singleton@?$CSingleton@VIBackground@@@@0PAVIBackground@@A
_BSS	SEGMENT
?ms_singleton@?$CSingleton@VIBackground@@@@0PAVIBackground@@A DD 01H DUP (?) ; CSingleton<IBackground>::ms_singleton
_BSS	ENDS
_BSS	SEGMENT
?HAIR_COLOR_ENABLE@@3HA DD 01H DUP (?)			; HAIR_COLOR_ENABLE
?USE_ARMOR_SPECULAR@@3HA DD 01H DUP (?)			; USE_ARMOR_SPECULAR
?ms_dwUpdateCounter@CInstanceBase@@1KA DD 01H DUP (?)	; CInstanceBase::ms_dwUpdateCounter
?ms_dwRenderCounter@CInstanceBase@@1KA DD 01H DUP (?)	; CInstanceBase::ms_dwRenderCounter
?ms_dwDeformCounter@CInstanceBase@@1KA DD 01H DUP (?)	; CInstanceBase::ms_dwDeformCounter
?g_iAccumulationTime@@3HA DD 01H DUP (?)		; g_iAccumulationTime
_BSS	ENDS
;	COMDAT ??_R1A@?0A@EA@?$CDynamicPoolEx@VCRotationDecorator@NEffectUpdateDecorator@@@@8
rdata$r	SEGMENT
??_R1A@?0A@EA@?$CDynamicPoolEx@VCRotationDecorator@NEffectUpdateDecorator@@@@8 DD FLAT:??_R0?AV?$CDynamicPoolEx@VCRotationDecorator@NEffectUpdateDecorator@@@@@8 ; CDynamicPoolEx<NEffectUpdateDecorator::CRotationDecorator>::`RTTI Base Class Descriptor at (0,-1,0,64)'
	DD	00H
	DD	00H
	DD	0ffffffffH
	DD	00H
	DD	040H
	DD	FLAT:??_R3?$CDynamicPoolEx@VCRotationDecorator@NEffectUpdateDecorator@@@@8
rdata$r	ENDS
;	COMDAT ??_R2?$CDynamicPoolEx@VCRotationDecorator@NEffectUpdateDecorator@@@@8
rdata$r	SEGMENT
??_R2?$CDynamicPoolEx@VCRotationDecorator@NEffectUpdateDecorator@@@@8 DD FLAT:??_R1A@?0A@EA@?$CDynamicPoolEx@VCRotationDecorator@NEffectUpdateDecorator@@@@8 ; CDynamicPoolEx<NEffectUpdateDecorator::CRotationDecorator>::`RTTI Base Class Array'
rdata$r	ENDS
;	COMDAT ??_R3?$CDynamicPoolEx@VCRotationDecorator@NEffectUpdateDecorator@@@@8
rdata$r	SEGMENT
??_R3?$CDynamicPoolEx@VCRotationDecorator@NEffectUpdateDecorator@@@@8 DD 00H ; CDynamicPoolEx<NEffectUpdateDecorator::CRotationDecorator>::`RTTI Class Hierarchy Descriptor'
	DD	00H
	DD	01H
	DD	FLAT:??_R2?$CDynamicPoolEx@VCRotationDecorator@NEffectUpdateDecorator@@@@8
rdata$r	ENDS
;	COMDAT ??_R0?AV?$CDynamicPoolEx@VCRotationDecorator@NEffectUpdateDecorator@@@@@8
data$rs	SEGMENT
??_R0?AV?$CDynamicPoolEx@VCRotationDecorator@NEffectUpdateDecorator@@@@@8 DD FLAT:??_7type_info@@6B@ ; CDynamicPoolEx<NEffectUpdateDecorator::CRotationDecorator> `RTTI Type Descriptor'
	DD	00H
	DB	'.?AV?$CDynamicPoolEx@VCRotationDecorator@NEffectUpdateDe'
	DB	'corator@@@@', 00H
data$rs	ENDS
;	COMDAT ??_R4?$CDynamicPoolEx@VCRotationDecorator@NEffectUpdateDecorator@@@@6B@
rdata$r	SEGMENT
??_R4?$CDynamicPoolEx@VCRotationDecorator@NEffectUpdateDecorator@@@@6B@ DD 00H ; CDynamicPoolEx<NEffectUpdateDecorator::CRotationDecorator>::`RTTI Complete Object Locator'
	DD	00H
	DD	00H
	DD	FLAT:??_R0?AV?$CDynamicPoolEx@VCRotationDecorator@NEffectUpdateDecorator@@@@@8
	DD	FLAT:??_R3?$CDynamicPoolEx@VCRotationDecorator@NEffectUpdateDecorator@@@@8
rdata$r	ENDS
;	COMDAT ??_R1A@?0A@EA@?$CDynamicPoolEx@VCGravityDecorator@NEffectUpdateDecorator@@@@8
rdata$r	SEGMENT
??_R1A@?0A@EA@?$CDynamicPoolEx@VCGravityDecorator@NEffectUpdateDecorator@@@@8 DD FLAT:??_R0?AV?$CDynamicPoolEx@VCGravityDecorator@NEffectUpdateDecorator@@@@@8 ; CDynamicPoolEx<NEffectUpdateDecorator::CGravityDecorator>::`RTTI Base Class Descriptor at (0,-1,0,64)'
	DD	00H
	DD	00H
	DD	0ffffffffH
	DD	00H
	DD	040H
	DD	FLAT:??_R3?$CDynamicPoolEx@VCGravityDecorator@NEffectUpdateDecorator@@@@8
rdata$r	ENDS
;	COMDAT ??_R2?$CDynamicPoolEx@VCGravityDecorator@NEffectUpdateDecorator@@@@8
rdata$r	SEGMENT
??_R2?$CDynamicPoolEx@VCGravityDecorator@NEffectUpdateDecorator@@@@8 DD FLAT:??_R1A@?0A@EA@?$CDynamicPoolEx@VCGravityDecorator@NEffectUpdateDecorator@@@@8 ; CDynamicPoolEx<NEffectUpdateDecorator::CGravityDecorator>::`RTTI Base Class Array'
rdata$r	ENDS
;	COMDAT ??_R3?$CDynamicPoolEx@VCGravityDecorator@NEffectUpdateDecorator@@@@8
rdata$r	SEGMENT
??_R3?$CDynamicPoolEx@VCGravityDecorator@NEffectUpdateDecorator@@@@8 DD 00H ; CDynamicPoolEx<NEffectUpdateDecorator::CGravityDecorator>::`RTTI Class Hierarchy Descriptor'
	DD	00H
	DD	01H
	DD	FLAT:??_R2?$CDynamicPoolEx@VCGravityDecorator@NEffectUpdateDecorator@@@@8
rdata$r	ENDS
;	COMDAT ??_R0?AV?$CDynamicPoolEx@VCGravityDecorator@NEffectUpdateDecorator@@@@@8
data$rs	SEGMENT
??_R0?AV?$CDynamicPoolEx@VCGravityDecorator@NEffectUpdateDecorator@@@@@8 DD FLAT:??_7type_info@@6B@ ; CDynamicPoolEx<NEffectUpdateDecorator::CGravityDecorator> `RTTI Type Descriptor'
	DD	00H
	DB	'.?AV?$CDynamicPoolEx@VCGravityDecorator@NEffectUpdateDec'
	DB	'orator@@@@', 00H
data$rs	ENDS
;	COMDAT ??_R4?$CDynamicPoolEx@VCGravityDecorator@NEffectUpdateDecorator@@@@6B@
rdata$r	SEGMENT
??_R4?$CDynamicPoolEx@VCGravityDecorator@NEffectUpdateDecorator@@@@6B@ DD 00H ; CDynamicPoolEx<NEffectUpdateDecorator::CGravityDecorator>::`RTTI Complete Object Locator'
	DD	00H
	DD	00H
	DD	FLAT:??_R0?AV?$CDynamicPoolEx@VCGravityDecorator@NEffectUpdateDecorator@@@@@8
	DD	FLAT:??_R3?$CDynamicPoolEx@VCGravityDecorator@NEffectUpdateDecorator@@@@8
rdata$r	ENDS
;	COMDAT ??_R1A@?0A@EA@?$CDynamicPoolEx@VCAirResistanceDecorator@NEffectUpdateDecorator@@@@8
rdata$r	SEGMENT
??_R1A@?0A@EA@?$CDynamicPoolEx@VCAirResistanceDecorator@NEffectUpdateDecorator@@@@8 DD FLAT:??_R0?AV?$CDynamicPoolEx@VCAirResistanceDecorator@NEffectUpdateDecorator@@@@@8 ; CDynamicPoolEx<NEffectUpdateDecorator::CAirResistanceDecorator>::`RTTI Base Class Descriptor at (0,-1,0,64)'
	DD	00H
	DD	00H
	DD	0ffffffffH
	DD	00H
	DD	040H
	DD	FLAT:??_R3?$CDynamicPoolEx@VCAirResistanceDecorator@NEffectUpdateDecorator@@@@8
rdata$r	ENDS
;	COMDAT ??_R2?$CDynamicPoolEx@VCAirResistanceDecorator@NEffectUpdateDecorator@@@@8
rdata$r	SEGMENT
??_R2?$CDynamicPoolEx@VCAirResistanceDecorator@NEffectUpdateDecorator@@@@8 DD FLAT:??_R1A@?0A@EA@?$CDynamicPoolEx@VCAirResistanceDecorator@NEffectUpdateDecorator@@@@8 ; CDynamicPoolEx<NEffectUpdateDecorator::CAirResistanceDecorator>::`RTTI Base Class Array'
rdata$r	ENDS
;	COMDAT ??_R3?$CDynamicPoolEx@VCAirResistanceDecorator@NEffectUpdateDecorator@@@@8
rdata$r	SEGMENT
??_R3?$CDynamicPoolEx@VCAirResistanceDecorator@NEffectUpdateDecorator@@@@8 DD 00H ; CDynamicPoolEx<NEffectUpdateDecorator::CAirResistanceDecorator>::`RTTI Class Hierarchy Descriptor'
	DD	00H
	DD	01H
	DD	FLAT:??_R2?$CDynamicPoolEx@VCAirResistanceDecorator@NEffectUpdateDecorator@@@@8
rdata$r	ENDS
;	COMDAT ??_R0?AV?$CDynamicPoolEx@VCAirResistanceDecorator@NEffectUpdateDecorator@@@@@8
data$rs	SEGMENT
??_R0?AV?$CDynamicPoolEx@VCAirResistanceDecorator@NEffectUpdateDecorator@@@@@8 DD FLAT:??_7type_info@@6B@ ; CDynamicPoolEx<NEffectUpdateDecorator::CAirResistanceDecorator> `RTTI Type Descriptor'
	DD	00H
	DB	'.?AV?$CDynamicPoolEx@VCAirResistanceDecorator@NEffectUpd'
	DB	'ateDecorator@@@@', 00H
data$rs	ENDS
;	COMDAT ??_R4?$CDynamicPoolEx@VCAirResistanceDecorator@NEffectUpdateDecorator@@@@6B@
rdata$r	SEGMENT
??_R4?$CDynamicPoolEx@VCAirResistanceDecorator@NEffectUpdateDecorator@@@@6B@ DD 00H ; CDynamicPoolEx<NEffectUpdateDecorator::CAirResistanceDecorator>::`RTTI Complete Object Locator'
	DD	00H
	DD	00H
	DD	FLAT:??_R0?AV?$CDynamicPoolEx@VCAirResistanceDecorator@NEffectUpdateDecorator@@@@@8
	DD	FLAT:??_R3?$CDynamicPoolEx@VCAirResistanceDecorator@NEffectUpdateDecorator@@@@8
rdata$r	ENDS
;	COMDAT ??_R1A@?0A@EA@?$CDynamicPoolEx@VCTextureAnimationRandomDecorator@NEffectUpdateDecorator@@@@8
rdata$r	SEGMENT
??_R1A@?0A@EA@?$CDynamicPoolEx@VCTextureAnimationRandomDecorator@NEffectUpdateDecorator@@@@8 DD FLAT:??_R0?AV?$CDynamicPoolEx@VCTextureAnimationRandomDecorator@NEffectUpdateDecorator@@@@@8 ; CDynamicPoolEx<NEffectUpdateDecorator::CTextureAnimationRandomDecorator>::`RTTI Base Class Descriptor at (0,-1,0,64)'
	DD	00H
	DD	00H
	DD	0ffffffffH
	DD	00H
	DD	040H
	DD	FLAT:??_R3?$CDynamicPoolEx@VCTextureAnimationRandomDecorator@NEffectUpdateDecorator@@@@8
rdata$r	ENDS
;	COMDAT ??_R2?$CDynamicPoolEx@VCTextureAnimationRandomDecorator@NEffectUpdateDecorator@@@@8
rdata$r	SEGMENT
??_R2?$CDynamicPoolEx@VCTextureAnimationRandomDecorator@NEffectUpdateDecorator@@@@8 DD FLAT:??_R1A@?0A@EA@?$CDynamicPoolEx@VCTextureAnimationRandomDecorator@NEffectUpdateDecorator@@@@8 ; CDynamicPoolEx<NEffectUpdateDecorator::CTextureAnimationRandomDecorator>::`RTTI Base Class Array'
rdata$r	ENDS
;	COMDAT ??_R3?$CDynamicPoolEx@VCTextureAnimationRandomDecorator@NEffectUpdateDecorator@@@@8
rdata$r	SEGMENT
??_R3?$CDynamicPoolEx@VCTextureAnimationRandomDecorator@NEffectUpdateDecorator@@@@8 DD 00H ; CDynamicPoolEx<NEffectUpdateDecorator::CTextureAnimationRandomDecorator>::`RTTI Class Hierarchy Descriptor'
	DD	00H
	DD	01H
	DD	FLAT:??_R2?$CDynamicPoolEx@VCTextureAnimationRandomDecorator@NEffectUpdateDecorator@@@@8
rdata$r	ENDS
;	COMDAT ??_R0?AV?$CDynamicPoolEx@VCTextureAnimationRandomDecorator@NEffectUpdateDecorator@@@@@8
data$rs	SEGMENT
??_R0?AV?$CDynamicPoolEx@VCTextureAnimationRandomDecorator@NEffectUpdateDecorator@@@@@8 DD FLAT:??_7type_info@@6B@ ; CDynamicPoolEx<NEffectUpdateDecorator::CTextureAnimationRandomDecorator> `RTTI Type Descriptor'
	DD	00H
	DB	'.?AV?$CDynamicPoolEx@VCTextureAnimationRandomDecorator@N'
	DB	'EffectUpdateDecorator@@@@', 00H
data$rs	ENDS
;	COMDAT ??_R4?$CDynamicPoolEx@VCTextureAnimationRandomDecorator@NEffectUpdateDecorator@@@@6B@
rdata$r	SEGMENT
??_R4?$CDynamicPoolEx@VCTextureAnimationRandomDecorator@NEffectUpdateDecorator@@@@6B@ DD 00H ; CDynamicPoolEx<NEffectUpdateDecorator::CTextureAnimationRandomDecorator>::`RTTI Complete Object Locator'
	DD	00H
	DD	00H
	DD	FLAT:??_R0?AV?$CDynamicPoolEx@VCTextureAnimationRandomDecorator@NEffectUpdateDecorator@@@@@8
	DD	FLAT:??_R3?$CDynamicPoolEx@VCTextureAnimationRandomDecorator@NEffectUpdateDecorator@@@@8
rdata$r	ENDS
;	COMDAT ??_R1A@?0A@EA@?$CDynamicPoolEx@VCTextureAnimationCCWDecorator@NEffectUpdateDecorator@@@@8
rdata$r	SEGMENT
??_R1A@?0A@EA@?$CDynamicPoolEx@VCTextureAnimationCCWDecorator@NEffectUpdateDecorator@@@@8 DD FLAT:??_R0?AV?$CDynamicPoolEx@VCTextureAnimationCCWDecorator@NEffectUpdateDecorator@@@@@8 ; CDynamicPoolEx<NEffectUpdateDecorator::CTextureAnimationCCWDecorator>::`RTTI Base Class Descriptor at (0,-1,0,64)'
	DD	00H
	DD	00H
	DD	0ffffffffH
	DD	00H
	DD	040H
	DD	FLAT:??_R3?$CDynamicPoolEx@VCTextureAnimationCCWDecorator@NEffectUpdateDecorator@@@@8
rdata$r	ENDS
;	COMDAT ??_R2?$CDynamicPoolEx@VCTextureAnimationCCWDecorator@NEffectUpdateDecorator@@@@8
rdata$r	SEGMENT
??_R2?$CDynamicPoolEx@VCTextureAnimationCCWDecorator@NEffectUpdateDecorator@@@@8 DD FLAT:??_R1A@?0A@EA@?$CDynamicPoolEx@VCTextureAnimationCCWDecorator@NEffectUpdateDecorator@@@@8 ; CDynamicPoolEx<NEffectUpdateDecorator::CTextureAnimationCCWDecorator>::`RTTI Base Class Array'
rdata$r	ENDS
;	COMDAT ??_R3?$CDynamicPoolEx@VCTextureAnimationCCWDecorator@NEffectUpdateDecorator@@@@8
rdata$r	SEGMENT
??_R3?$CDynamicPoolEx@VCTextureAnimationCCWDecorator@NEffectUpdateDecorator@@@@8 DD 00H ; CDynamicPoolEx<NEffectUpdateDecorator::CTextureAnimationCCWDecorator>::`RTTI Class Hierarchy Descriptor'
	DD	00H
	DD	01H
	DD	FLAT:??_R2?$CDynamicPoolEx@VCTextureAnimationCCWDecorator@NEffectUpdateDecorator@@@@8
rdata$r	ENDS
;	COMDAT ??_R0?AV?$CDynamicPoolEx@VCTextureAnimationCCWDecorator@NEffectUpdateDecorator@@@@@8
data$rs	SEGMENT
??_R0?AV?$CDynamicPoolEx@VCTextureAnimationCCWDecorator@NEffectUpdateDecorator@@@@@8 DD FLAT:??_7type_info@@6B@ ; CDynamicPoolEx<NEffectUpdateDecorator::CTextureAnimationCCWDecorator> `RTTI Type Descriptor'
	DD	00H
	DB	'.?AV?$CDynamicPoolEx@VCTextureAnimationCCWDecorator@NEff'
	DB	'ectUpdateDecorator@@@@', 00H
data$rs	ENDS
;	COMDAT ??_R4?$CDynamicPoolEx@VCTextureAnimationCCWDecorator@NEffectUpdateDecorator@@@@6B@
rdata$r	SEGMENT
??_R4?$CDynamicPoolEx@VCTextureAnimationCCWDecorator@NEffectUpdateDecorator@@@@6B@ DD 00H ; CDynamicPoolEx<NEffectUpdateDecorator::CTextureAnimationCCWDecorator>::`RTTI Complete Object Locator'
	DD	00H
	DD	00H
	DD	FLAT:??_R0?AV?$CDynamicPoolEx@VCTextureAnimationCCWDecorator@NEffectUpdateDecorator@@@@@8
	DD	FLAT:??_R3?$CDynamicPoolEx@VCTextureAnimationCCWDecorator@NEffectUpdateDecorator@@@@8
rdata$r	ENDS
;	COMDAT ??_R1A@?0A@EA@?$CDynamicPoolEx@VCTextureAnimationCWDecorator@NEffectUpdateDecorator@@@@8
rdata$r	SEGMENT
??_R1A@?0A@EA@?$CDynamicPoolEx@VCTextureAnimationCWDecorator@NEffectUpdateDecorator@@@@8 DD FLAT:??_R0?AV?$CDynamicPoolEx@VCTextureAnimationCWDecorator@NEffectUpdateDecorator@@@@@8 ; CDynamicPoolEx<NEffectUpdateDecorator::CTextureAnimationCWDecorator>::`RTTI Base Class Descriptor at (0,-1,0,64)'
	DD	00H
	DD	00H
	DD	0ffffffffH
	DD	00H
	DD	040H
	DD	FLAT:??_R3?$CDynamicPoolEx@VCTextureAnimationCWDecorator@NEffectUpdateDecorator@@@@8
rdata$r	ENDS
;	COMDAT ??_R2?$CDynamicPoolEx@VCTextureAnimationCWDecorator@NEffectUpdateDecorator@@@@8
rdata$r	SEGMENT
??_R2?$CDynamicPoolEx@VCTextureAnimationCWDecorator@NEffectUpdateDecorator@@@@8 DD FLAT:??_R1A@?0A@EA@?$CDynamicPoolEx@VCTextureAnimationCWDecorator@NEffectUpdateDecorator@@@@8 ; CDynamicPoolEx<NEffectUpdateDecorator::CTextureAnimationCWDecorator>::`RTTI Base Class Array'
rdata$r	ENDS
;	COMDAT ??_R3?$CDynamicPoolEx@VCTextureAnimationCWDecorator@NEffectUpdateDecorator@@@@8
rdata$r	SEGMENT
??_R3?$CDynamicPoolEx@VCTextureAnimationCWDecorator@NEffectUpdateDecorator@@@@8 DD 00H ; CDynamicPoolEx<NEffectUpdateDecorator::CTextureAnimationCWDecorator>::`RTTI Class Hierarchy Descriptor'
	DD	00H
	DD	01H
	DD	FLAT:??_R2?$CDynamicPoolEx@VCTextureAnimationCWDecorator@NEffectUpdateDecorator@@@@8
rdata$r	ENDS
;	COMDAT ??_R0?AV?$CDynamicPoolEx@VCTextureAnimationCWDecorator@NEffectUpdateDecorator@@@@@8
data$rs	SEGMENT
??_R0?AV?$CDynamicPoolEx@VCTextureAnimationCWDecorator@NEffectUpdateDecorator@@@@@8 DD FLAT:??_7type_info@@6B@ ; CDynamicPoolEx<NEffectUpdateDecorator::CTextureAnimationCWDecorator> `RTTI Type Descriptor'
	DD	00H
	DB	'.?AV?$CDynamicPoolEx@VCTextureAnimationCWDecorator@NEffe'
	DB	'ctUpdateDecorator@@@@', 00H
data$rs	ENDS
;	COMDAT ??_R4?$CDynamicPoolEx@VCTextureAnimationCWDecorator@NEffectUpdateDecorator@@@@6B@
rdata$r	SEGMENT
??_R4?$CDynamicPoolEx@VCTextureAnimationCWDecorator@NEffectUpdateDecorator@@@@6B@ DD 00H ; CDynamicPoolEx<NEffectUpdateDecorator::CTextureAnimationCWDecorator>::`RTTI Complete Object Locator'
	DD	00H
	DD	00H
	DD	FLAT:??_R0?AV?$CDynamicPoolEx@VCTextureAnimationCWDecorator@NEffectUpdateDecorator@@@@@8
	DD	FLAT:??_R3?$CDynamicPoolEx@VCTextureAnimationCWDecorator@NEffectUpdateDecorator@@@@8
rdata$r	ENDS
;	COMDAT ??_R1A@?0A@EA@?$CDynamicPoolEx@VCNullDecorator@NEffectUpdateDecorator@@@@8
rdata$r	SEGMENT
??_R1A@?0A@EA@?$CDynamicPoolEx@VCNullDecorator@NEffectUpdateDecorator@@@@8 DD FLAT:??_R0?AV?$CDynamicPoolEx@VCNullDecorator@NEffectUpdateDecorator@@@@@8 ; CDynamicPoolEx<NEffectUpdateDecorator::CNullDecorator>::`RTTI Base Class Descriptor at (0,-1,0,64)'
	DD	00H
	DD	00H
	DD	0ffffffffH
	DD	00H
	DD	040H
	DD	FLAT:??_R3?$CDynamicPoolEx@VCNullDecorator@NEffectUpdateDecorator@@@@8
rdata$r	ENDS
;	COMDAT ??_R2?$CDynamicPoolEx@VCNullDecorator@NEffectUpdateDecorator@@@@8
rdata$r	SEGMENT
??_R2?$CDynamicPoolEx@VCNullDecorator@NEffectUpdateDecorator@@@@8 DD FLAT:??_R1A@?0A@EA@?$CDynamicPoolEx@VCNullDecorator@NEffectUpdateDecorator@@@@8 ; CDynamicPoolEx<NEffectUpdateDecorator::CNullDecorator>::`RTTI Base Class Array'
rdata$r	ENDS
;	COMDAT ??_R3?$CDynamicPoolEx@VCNullDecorator@NEffectUpdateDecorator@@@@8
rdata$r	SEGMENT
??_R3?$CDynamicPoolEx@VCNullDecorator@NEffectUpdateDecorator@@@@8 DD 00H ; CDynamicPoolEx<NEffectUpdateDecorator::CNullDecorator>::`RTTI Class Hierarchy Descriptor'
	DD	00H
	DD	01H
	DD	FLAT:??_R2?$CDynamicPoolEx@VCNullDecorator@NEffectUpdateDecorator@@@@8
rdata$r	ENDS
;	COMDAT ??_R0?AV?$CDynamicPoolEx@VCNullDecorator@NEffectUpdateDecorator@@@@@8
data$rs	SEGMENT
??_R0?AV?$CDynamicPoolEx@VCNullDecorator@NEffectUpdateDecorator@@@@@8 DD FLAT:??_7type_info@@6B@ ; CDynamicPoolEx<NEffectUpdateDecorator::CNullDecorator> `RTTI Type Descriptor'
	DD	00H
	DB	'.?AV?$CDynamicPoolEx@VCNullDecorator@NEffectUpdateDecora'
	DB	'tor@@@@', 00H
data$rs	ENDS
;	COMDAT ??_R4?$CDynamicPoolEx@VCNullDecorator@NEffectUpdateDecorator@@@@6B@
rdata$r	SEGMENT
??_R4?$CDynamicPoolEx@VCNullDecorator@NEffectUpdateDecorator@@@@6B@ DD 00H ; CDynamicPoolEx<NEffectUpdateDecorator::CNullDecorator>::`RTTI Complete Object Locator'
	DD	00H
	DD	00H
	DD	FLAT:??_R0?AV?$CDynamicPoolEx@VCNullDecorator@NEffectUpdateDecorator@@@@@8
	DD	FLAT:??_R3?$CDynamicPoolEx@VCNullDecorator@NEffectUpdateDecorator@@@@8
rdata$r	ENDS
;	COMDAT ??_R1A@?0A@EA@?$CDynamicPoolEx@VCHeaderDecorator@NEffectUpdateDecorator@@@@8
rdata$r	SEGMENT
??_R1A@?0A@EA@?$CDynamicPoolEx@VCHeaderDecorator@NEffectUpdateDecorator@@@@8 DD FLAT:??_R0?AV?$CDynamicPoolEx@VCHeaderDecorator@NEffectUpdateDecorator@@@@@8 ; CDynamicPoolEx<NEffectUpdateDecorator::CHeaderDecorator>::`RTTI Base Class Descriptor at (0,-1,0,64)'
	DD	00H
	DD	00H
	DD	0ffffffffH
	DD	00H
	DD	040H
	DD	FLAT:??_R3?$CDynamicPoolEx@VCHeaderDecorator@NEffectUpdateDecorator@@@@8
rdata$r	ENDS
;	COMDAT ??_R2?$CDynamicPoolEx@VCHeaderDecorator@NEffectUpdateDecorator@@@@8
rdata$r	SEGMENT
??_R2?$CDynamicPoolEx@VCHeaderDecorator@NEffectUpdateDecorator@@@@8 DD FLAT:??_R1A@?0A@EA@?$CDynamicPoolEx@VCHeaderDecorator@NEffectUpdateDecorator@@@@8 ; CDynamicPoolEx<NEffectUpdateDecorator::CHeaderDecorator>::`RTTI Base Class Array'
rdata$r	ENDS
;	COMDAT ??_R3?$CDynamicPoolEx@VCHeaderDecorator@NEffectUpdateDecorator@@@@8
rdata$r	SEGMENT
??_R3?$CDynamicPoolEx@VCHeaderDecorator@NEffectUpdateDecorator@@@@8 DD 00H ; CDynamicPoolEx<NEffectUpdateDecorator::CHeaderDecorator>::`RTTI Class Hierarchy Descriptor'
	DD	00H
	DD	01H
	DD	FLAT:??_R2?$CDynamicPoolEx@VCHeaderDecorator@NEffectUpdateDecorator@@@@8
rdata$r	ENDS
;	COMDAT ??_R0?AV?$CDynamicPoolEx@VCHeaderDecorator@NEffectUpdateDecorator@@@@@8
data$rs	SEGMENT
??_R0?AV?$CDynamicPoolEx@VCHeaderDecorator@NEffectUpdateDecorator@@@@@8 DD FLAT:??_7type_info@@6B@ ; CDynamicPoolEx<NEffectUpdateDecorator::CHeaderDecorator> `RTTI Type Descriptor'
	DD	00H
	DB	'.?AV?$CDynamicPoolEx@VCHeaderDecorator@NEffectUpdateDeco'
	DB	'rator@@@@', 00H
data$rs	ENDS
;	COMDAT ??_R4?$CDynamicPoolEx@VCHeaderDecorator@NEffectUpdateDecorator@@@@6B@
rdata$r	SEGMENT
??_R4?$CDynamicPoolEx@VCHeaderDecorator@NEffectUpdateDecorator@@@@6B@ DD 00H ; CDynamicPoolEx<NEffectUpdateDecorator::CHeaderDecorator>::`RTTI Complete Object Locator'
	DD	00H
	DD	00H
	DD	FLAT:??_R0?AV?$CDynamicPoolEx@VCHeaderDecorator@NEffectUpdateDecorator@@@@@8
	DD	FLAT:??_R3?$CDynamicPoolEx@VCHeaderDecorator@NEffectUpdateDecorator@@@@8
rdata$r	ENDS
;	COMDAT ??_7?$CDynamicPool@VCInstanceBase@@@@6B@
CONST	SEGMENT
??_7?$CDynamicPool@VCInstanceBase@@@@6B@ DD FLAT:??_R4?$CDynamicPool@VCInstanceBase@@@@6B@ ; CDynamicPool<CInstanceBase>::`vftable'
	DD	FLAT:??_E?$CDynamicPool@VCInstanceBase@@@@UAEPAXI@Z
CONST	ENDS
;	COMDAT ??_7CActorInstanceBackground@@6B@
CONST	SEGMENT
??_7CActorInstanceBackground@@6B@ DD FLAT:??_R4CActorInstanceBackground@@6B@ ; CActorInstanceBackground::`vftable'
	DD	FLAT:??_ECActorInstanceBackground@@UAEPAXI@Z
	DD	FLAT:?IsBlock@CActorInstanceBackground@@UAE_NHH@Z
CONST	ENDS
_DATA	SEGMENT
?RIDE_HORSE_ENABLE@@3HA DD 01H				; RIDE_HORSE_ENABLE
_DATA	ENDS
;	COMDAT ??_7?$CDynamicPoolEx@VCHeaderDecorator@NEffectUpdateDecorator@@@@6B@
CONST	SEGMENT
??_7?$CDynamicPoolEx@VCHeaderDecorator@NEffectUpdateDecorator@@@@6B@ DD FLAT:??_R4?$CDynamicPoolEx@VCHeaderDecorator@NEffectUpdateDecorator@@@@6B@ ; CDynamicPoolEx<NEffectUpdateDecorator::CHeaderDecorator>::`vftable'
	DD	FLAT:??_E?$CDynamicPoolEx@VCHeaderDecorator@NEffectUpdateDecorator@@@@UAEPAXI@Z
CONST	ENDS
;	COMDAT ??_7IBackground@@6B@
CONST	SEGMENT
??_7IBackground@@6B@ DD FLAT:??_R4IBackground@@6B@	; IBackground::`vftable'
	DD	FLAT:??_EIBackground@@UAEPAXI@Z
	DD	FLAT:__purecall
CONST	ENDS
;	COMDAT ??_7?$CSingleton@VIBackground@@@@6B@
CONST	SEGMENT
??_7?$CSingleton@VIBackground@@@@6B@ DD FLAT:??_R4?$CSingleton@VIBackground@@@@6B@ ; CSingleton<IBackground>::`vftable'
	DD	FLAT:??_E?$CSingleton@VIBackground@@@@UAEPAXI@Z
CONST	ENDS
;	COMDAT ??_7?$CDynamicPoolEx@VCNullDecorator@NEffectUpdateDecorator@@@@6B@
CONST	SEGMENT
??_7?$CDynamicPoolEx@VCNullDecorator@NEffectUpdateDecorator@@@@6B@ DD FLAT:??_R4?$CDynamicPoolEx@VCNullDecorator@NEffectUpdateDecorator@@@@6B@ ; CDynamicPoolEx<NEffectUpdateDecorator::CNullDecorator>::`vftable'
	DD	FLAT:??_E?$CDynamicPoolEx@VCNullDecorator@NEffectUpdateDecorator@@@@UAEPAXI@Z
CONST	ENDS
;	COMDAT ??_7?$CDynamicPoolEx@VCTextureAnimationCWDecorator@NEffectUpdateDecorator@@@@6B@
CONST	SEGMENT
??_7?$CDynamicPoolEx@VCTextureAnimationCWDecorator@NEffectUpdateDecorator@@@@6B@ DD FLAT:??_R4?$CDynamicPoolEx@VCTextureAnimationCWDecorator@NEffectUpdateDecorator@@@@6B@ ; CDynamicPoolEx<NEffectUpdateDecorator::CTextureAnimationCWDecorator>::`vftable'
	DD	FLAT:??_E?$CDynamicPoolEx@VCTextureAnimationCWDecorator@NEffectUpdateDecorator@@@@UAEPAXI@Z
CONST	ENDS
;	COMDAT ??_7?$CDynamicPoolEx@VCTextureAnimationCCWDecorator@NEffectUpdateDecorator@@@@6B@
CONST	SEGMENT
??_7?$CDynamicPoolEx@VCTextureAnimationCCWDecorator@NEffectUpdateDecorator@@@@6B@ DD FLAT:??_R4?$CDynamicPoolEx@VCTextureAnimationCCWDecorator@NEffectUpdateDecorator@@@@6B@ ; CDynamicPoolEx<NEffectUpdateDecorator::CTextureAnimationCCWDecorator>::`vftable'
	DD	FLAT:??_E?$CDynamicPoolEx@VCTextureAnimationCCWDecorator@NEffectUpdateDecorator@@@@UAEPAXI@Z
CONST	ENDS
;	COMDAT ??_7?$CDynamicPoolEx@VCTextureAnimationRandomDecorator@NEffectUpdateDecorator@@@@6B@
CONST	SEGMENT
??_7?$CDynamicPoolEx@VCTextureAnimationRandomDecorator@NEffectUpdateDecorator@@@@6B@ DD FLAT:??_R4?$CDynamicPoolEx@VCTextureAnimationRandomDecorator@NEffectUpdateDecorator@@@@6B@ ; CDynamicPoolEx<NEffectUpdateDecorator::CTextureAnimationRandomDecorator>::`vftable'
	DD	FLAT:??_E?$CDynamicPoolEx@VCTextureAnimationRandomDecorator@NEffectUpdateDecorator@@@@UAEPAXI@Z
CONST	ENDS
;	COMDAT ??_7?$CDynamicPoolEx@VCAirResistanceDecorator@NEffectUpdateDecorator@@@@6B@
CONST	SEGMENT
??_7?$CDynamicPoolEx@VCAirResistanceDecorator@NEffectUpdateDecorator@@@@6B@ DD FLAT:??_R4?$CDynamicPoolEx@VCAirResistanceDecorator@NEffectUpdateDecorator@@@@6B@ ; CDynamicPoolEx<NEffectUpdateDecorator::CAirResistanceDecorator>::`vftable'
	DD	FLAT:??_E?$CDynamicPoolEx@VCAirResistanceDecorator@NEffectUpdateDecorator@@@@UAEPAXI@Z
CONST	ENDS
;	COMDAT ??_7?$CDynamicPoolEx@VCGravityDecorator@NEffectUpdateDecorator@@@@6B@
CONST	SEGMENT
??_7?$CDynamicPoolEx@VCGravityDecorator@NEffectUpdateDecorator@@@@6B@ DD FLAT:??_R4?$CDynamicPoolEx@VCGravityDecorator@NEffectUpdateDecorator@@@@6B@ ; CDynamicPoolEx<NEffectUpdateDecorator::CGravityDecorator>::`vftable'
	DD	FLAT:??_E?$CDynamicPoolEx@VCGravityDecorator@NEffectUpdateDecorator@@@@UAEPAXI@Z
CONST	ENDS
;	COMDAT ??_R4?$CSingleton@VIBackground@@@@6B@
rdata$r	SEGMENT
??_R4?$CSingleton@VIBackground@@@@6B@ DD 00H		; CSingleton<IBackground>::`RTTI Complete Object Locator'
	DD	00H
	DD	00H
	DD	FLAT:??_R0?AV?$CSingleton@VIBackground@@@@@8
	DD	FLAT:??_R3?$CSingleton@VIBackground@@@@8
rdata$r	ENDS
;	COMDAT ??_R2?$CSingleton@VIBackground@@@@8
rdata$r	SEGMENT
??_R2?$CSingleton@VIBackground@@@@8 DD FLAT:??_R1A@?0A@EA@?$CSingleton@VIBackground@@@@8 ; CSingleton<IBackground>::`RTTI Base Class Array'
rdata$r	ENDS
;	COMDAT ??_R3?$CSingleton@VIBackground@@@@8
rdata$r	SEGMENT
??_R3?$CSingleton@VIBackground@@@@8 DD 00H		; CSingleton<IBackground>::`RTTI Class Hierarchy Descriptor'
	DD	00H
	DD	01H
	DD	FLAT:??_R2?$CSingleton@VIBackground@@@@8
rdata$r	ENDS
;	COMDAT ??_R0?AV?$CSingleton@VIBackground@@@@@8
data$rs	SEGMENT
??_R0?AV?$CSingleton@VIBackground@@@@@8 DD FLAT:??_7type_info@@6B@ ; CSingleton<IBackground> `RTTI Type Descriptor'
	DD	00H
	DB	'.?AV?$CSingleton@VIBackground@@@@', 00H
data$rs	ENDS
;	COMDAT ??_R1A@?0A@EA@?$CSingleton@VIBackground@@@@8
rdata$r	SEGMENT
??_R1A@?0A@EA@?$CSingleton@VIBackground@@@@8 DD FLAT:??_R0?AV?$CSingleton@VIBackground@@@@@8 ; CSingleton<IBackground>::`RTTI Base Class Descriptor at (0,-1,0,64)'
	DD	00H
	DD	00H
	DD	0ffffffffH
	DD	00H
	DD	040H
	DD	FLAT:??_R3?$CSingleton@VIBackground@@@@8
rdata$r	ENDS
;	COMDAT ??_R1A@?0A@EA@IBackground@@8
rdata$r	SEGMENT
??_R1A@?0A@EA@IBackground@@8 DD FLAT:??_R0?AVIBackground@@@8 ; IBackground::`RTTI Base Class Descriptor at (0,-1,0,64)'
	DD	01H
	DD	00H
	DD	0ffffffffH
	DD	00H
	DD	040H
	DD	FLAT:??_R3IBackground@@8
rdata$r	ENDS
;	COMDAT ??_R2IBackground@@8
rdata$r	SEGMENT
??_R2IBackground@@8 DD FLAT:??_R1A@?0A@EA@IBackground@@8 ; IBackground::`RTTI Base Class Array'
	DD	FLAT:??_R1A@?0A@EA@?$CSingleton@VIBackground@@@@8
rdata$r	ENDS
;	COMDAT ??_R3IBackground@@8
rdata$r	SEGMENT
??_R3IBackground@@8 DD 00H				; IBackground::`RTTI Class Hierarchy Descriptor'
	DD	00H
	DD	02H
	DD	FLAT:??_R2IBackground@@8
rdata$r	ENDS
;	COMDAT ??_R0?AVIBackground@@@8
data$rs	SEGMENT
??_R0?AVIBackground@@@8 DD FLAT:??_7type_info@@6B@	; IBackground `RTTI Type Descriptor'
	DD	00H
	DB	'.?AVIBackground@@', 00H
data$rs	ENDS
;	COMDAT ??_R4IBackground@@6B@
rdata$r	SEGMENT
??_R4IBackground@@6B@ DD 00H				; IBackground::`RTTI Complete Object Locator'
	DD	00H
	DD	00H
	DD	FLAT:??_R0?AVIBackground@@@8
	DD	FLAT:??_R3IBackground@@8
rdata$r	ENDS
;	COMDAT ??_7?$CDynamicPoolEx@VCRotationDecorator@NEffectUpdateDecorator@@@@6B@
CONST	SEGMENT
??_7?$CDynamicPoolEx@VCRotationDecorator@NEffectUpdateDecorator@@@@6B@ DD FLAT:??_R4?$CDynamicPoolEx@VCRotationDecorator@NEffectUpdateDecorator@@@@6B@ ; CDynamicPoolEx<NEffectUpdateDecorator::CRotationDecorator>::`vftable'
	DD	FLAT:??_E?$CDynamicPoolEx@VCRotationDecorator@NEffectUpdateDecorator@@@@UAEPAXI@Z
CONST	ENDS
;	COMDAT ??_R1A@?0A@EA@CActorInstanceBackground@@8
rdata$r	SEGMENT
??_R1A@?0A@EA@CActorInstanceBackground@@8 DD FLAT:??_R0?AVCActorInstanceBackground@@@8 ; CActorInstanceBackground::`RTTI Base Class Descriptor at (0,-1,0,64)'
	DD	02H
	DD	00H
	DD	0ffffffffH
	DD	00H
	DD	040H
	DD	FLAT:??_R3CActorInstanceBackground@@8
rdata$r	ENDS
;	COMDAT ??_R2CActorInstanceBackground@@8
rdata$r	SEGMENT
??_R2CActorInstanceBackground@@8 DD FLAT:??_R1A@?0A@EA@CActorInstanceBackground@@8 ; CActorInstanceBackground::`RTTI Base Class Array'
	DD	FLAT:??_R1A@?0A@EA@IBackground@@8
	DD	FLAT:??_R1A@?0A@EA@?$CSingleton@VIBackground@@@@8
rdata$r	ENDS
;	COMDAT ??_R3CActorInstanceBackground@@8
rdata$r	SEGMENT
??_R3CActorInstanceBackground@@8 DD 00H			; CActorInstanceBackground::`RTTI Class Hierarchy Descriptor'
	DD	00H
	DD	03H
	DD	FLAT:??_R2CActorInstanceBackground@@8
rdata$r	ENDS
;	COMDAT ??_R0?AVCActorInstanceBackground@@@8
data$rs	SEGMENT
??_R0?AVCActorInstanceBackground@@@8 DD FLAT:??_7type_info@@6B@ ; CActorInstanceBackground `RTTI Type Descriptor'
	DD	00H
	DB	'.?AVCActorInstanceBackground@@', 00H
data$rs	ENDS
;	COMDAT ??_R4CActorInstanceBackground@@6B@
rdata$r	SEGMENT
??_R4CActorInstanceBackground@@6B@ DD 00H		; CActorInstanceBackground::`RTTI Complete Object Locator'
	DD	00H
	DD	00H
	DD	FLAT:??_R0?AVCActorInstanceBackground@@@8
	DD	FLAT:??_R3CActorInstanceBackground@@8
rdata$r	ENDS
;	COMDAT ??_R1A@?0A@EA@?$CDynamicPool@VCInstanceBase@@@@8
rdata$r	SEGMENT
??_R1A@?0A@EA@?$CDynamicPool@VCInstanceBase@@@@8 DD FLAT:??_R0?AV?$CDynamicPool@VCInstanceBase@@@@@8 ; CDynamicPool<CInstanceBase>::`RTTI Base Class Descriptor at (0,-1,0,64)'
	DD	00H
	DD	00H
	DD	0ffffffffH
	DD	00H
	DD	040H
	DD	FLAT:??_R3?$CDynamicPool@VCInstanceBase@@@@8
rdata$r	ENDS
;	COMDAT ??_R2?$CDynamicPool@VCInstanceBase@@@@8
rdata$r	SEGMENT
??_R2?$CDynamicPool@VCInstanceBase@@@@8 DD FLAT:??_R1A@?0A@EA@?$CDynamicPool@VCInstanceBase@@@@8 ; CDynamicPool<CInstanceBase>::`RTTI Base Class Array'
rdata$r	ENDS
;	COMDAT ??_R3?$CDynamicPool@VCInstanceBase@@@@8
rdata$r	SEGMENT
??_R3?$CDynamicPool@VCInstanceBase@@@@8 DD 00H		; CDynamicPool<CInstanceBase>::`RTTI Class Hierarchy Descriptor'
	DD	00H
	DD	01H
	DD	FLAT:??_R2?$CDynamicPool@VCInstanceBase@@@@8
rdata$r	ENDS
;	COMDAT ??_R0?AV?$CDynamicPool@VCInstanceBase@@@@@8
data$rs	SEGMENT
??_R0?AV?$CDynamicPool@VCInstanceBase@@@@@8 DD FLAT:??_7type_info@@6B@ ; CDynamicPool<CInstanceBase> `RTTI Type Descriptor'
	DD	00H
	DB	'.?AV?$CDynamicPool@VCInstanceBase@@@@', 00H
data$rs	ENDS
;	COMDAT ??_R4?$CDynamicPool@VCInstanceBase@@@@6B@
rdata$r	SEGMENT
??_R4?$CDynamicPool@VCInstanceBase@@@@6B@ DD 00H	; CDynamicPool<CInstanceBase>::`RTTI Complete Object Locator'
	DD	00H
	DD	00H
	DD	FLAT:??_R0?AV?$CDynamicPool@VCInstanceBase@@@@@8
	DD	FLAT:??_R3?$CDynamicPool@VCInstanceBase@@@@8
rdata$r	ENDS
PUBLIC	??_H@YGXPAXIIP6EPAX0@Z@Z			; `vector constructor iterator'
PUBLIC	?__empty_global_delete@@YAXPAX@Z		; __empty_global_delete
PUBLIC	?__empty_global_delete@@YAXPAXI@Z		; __empty_global_delete
PUBLIC	___local_stdio_printf_options
PUBLIC	_sprintf
PUBLIC	??0exception@std@@QAE@ABV01@@Z			; std::exception::exception
PUBLIC	??1exception@std@@UAE@XZ			; std::exception::~exception
PUBLIC	?what@exception@std@@UBEPBDXZ			; std::exception::what
PUBLIC	??_Gexception@std@@UAEPAXI@Z			; std::exception::`scalar deleting destructor'
PUBLIC	??0bad_alloc@std@@QAE@ABV01@@Z			; std::bad_alloc::bad_alloc
PUBLIC	??_Gbad_alloc@std@@UAEPAXI@Z			; std::bad_alloc::`scalar deleting destructor'
PUBLIC	??0bad_array_new_length@std@@QAE@XZ		; std::bad_array_new_length::bad_array_new_length
PUBLIC	??1bad_array_new_length@std@@UAE@XZ		; std::bad_array_new_length::~bad_array_new_length
PUBLIC	??0bad_array_new_length@std@@QAE@ABV01@@Z	; std::bad_array_new_length::bad_array_new_length
PUBLIC	??_Gbad_array_new_length@std@@UAEPAXI@Z		; std::bad_array_new_length::`scalar deleting destructor'
PUBLIC	?_Throw_bad_array_new_length@std@@YAXXZ		; std::_Throw_bad_array_new_length
PUBLIC	?_Xlen_string@std@@YAXXZ			; std::_Xlen_string
PUBLIC	??1?$basic_string@DU?$char_traits@D@std@@V?$allocator@D@2@@std@@QAE@XZ ; std::basic_string<char,std::char_traits<char>,std::allocator<char> >::~basic_string<char,std::char_traits<char>,std::allocator<char> >
PUBLIC	?assign@?$basic_string@DU?$char_traits@D@std@@V?$allocator@D@2@@std@@QAEAAV12@QBDI@Z ; std::basic_string<char,std::char_traits<char>,std::allocator<char> >::assign
PUBLIC	??1?$CSingleton@VIBackground@@@@UAE@XZ		; CSingleton<IBackground>::~CSingleton<IBackground>
PUBLIC	??1IBackground@@UAE@XZ				; IBackground::~IBackground
PUBLIC	??$_Destroy_in_place@PAD@std@@YAXAAPAD@Z	; std::_Destroy_in_place<char *>
PUBLIC	??$_Construct_in_place@PADABQAD@std@@YAXAAPADABQAD@Z ; std::_Construct_in_place<char *,char * const &>
PUBLIC	??$_Deallocate@$07$0A@@std@@YAXPAXI@Z		; std::_Deallocate<8,0>
PUBLIC	??$_Allocate@$07U_Default_allocate_traits@std@@$0A@@std@@YAPAXI@Z ; std::_Allocate<8,std::_Default_allocate_traits,0>
PUBLIC	??$_Allocate_manually_vector_aligned@U_Default_allocate_traits@std@@@std@@YAPAXI@Z ; std::_Allocate_manually_vector_aligned<std::_Default_allocate_traits>
PUBLIC	??1?$_Tree@V?$_Tmap_traits@KKU?$less@K@std@@V?$allocator@U?$pair@$$CBKK@std@@@2@$0A@@std@@@std@@QAE@XZ ; std::_Tree<std::_Tmap_traits<unsigned long,unsigned long,std::less<unsigned long>,std::allocator<std::pair<unsigned long const ,unsigned long> >,0> >::~_Tree<std::_Tmap_traits<unsigned long,unsigned long,std::less<unsigned long>,std::allocator<std::pair<unsigned long const ,unsigned long> >,0> >
PUBLIC	?DestroySystem@CInstanceBase@@SAXXZ		; CInstanceBase::DestroySystem
PUBLIC	?CreateSystem@CInstanceBase@@SAXI@Z		; CInstanceBase::CreateSystem
PUBLIC	?SetMainInstance@CInstanceBase@@QAEXXZ		; CInstanceBase::SetMainInstance
PUBLIC	?OnSelected@CInstanceBase@@QAEXXZ		; CInstanceBase::OnSelected
PUBLIC	?OnUnselected@CInstanceBase@@QAEXXZ		; CInstanceBase::OnUnselected
PUBLIC	?OnTargeted@CInstanceBase@@QAEXXZ		; CInstanceBase::OnTargeted
PUBLIC	?OnUntargeted@CInstanceBase@@QAEXXZ		; CInstanceBase::OnUntargeted
PUBLIC	?__IsExistMainInstance@CInstanceBase@@IAE_NXZ	; CInstanceBase::__IsExistMainInstance
PUBLIC	?__IsMainInstance@CInstanceBase@@IAE_NXZ	; CInstanceBase::__IsMainInstance
PUBLIC	?__MainCanSeeHiddenThing@CInstanceBase@@IAE_NXZ	; CInstanceBase::__MainCanSeeHiddenThing
PUBLIC	?__GetBowRange@CInstanceBase@@IAEMXZ		; CInstanceBase::__GetBowRange
PUBLIC	??0CInstanceBase@@QAE@XZ			; CInstanceBase::CInstanceBase
PUBLIC	??1CInstanceBase@@UAE@XZ			; CInstanceBase::~CInstanceBase
PUBLIC	?LessRenderOrder@CInstanceBase@@QAE_NPAV1@@Z	; CInstanceBase::LessRenderOrder
PUBLIC	?MountHorse@CInstanceBase@@QAEXI@Z		; CInstanceBase::MountHorse
PUBLIC	?DismountHorse@CInstanceBase@@QAEXXZ		; CInstanceBase::DismountHorse
PUBLIC	?CalculateDistanceSq3d@CInstanceBase@@QAEMABUD3DXVECTOR3@@@Z ; CInstanceBase::CalculateDistanceSq3d
PUBLIC	?Create@CInstanceBase@@QAE_NABUSCreateData@1@@Z	; CInstanceBase::Create
PUBLIC	?CreateDeviceObjects@CInstanceBase@@QAE_NXZ	; CInstanceBase::CreateDeviceObjects
PUBLIC	?DestroyDeviceObjects@CInstanceBase@@QAEXXZ	; CInstanceBase::DestroyDeviceObjects
PUBLIC	?Destroy@CInstanceBase@@QAEXXZ			; CInstanceBase::Destroy
PUBLIC	?Update@CInstanceBase@@QAEXXZ			; CInstanceBase::Update
PUBLIC	?Transform@CInstanceBase@@QAEXXZ		; CInstanceBase::Transform
PUBLIC	?Deform@CInstanceBase@@QAEXXZ			; CInstanceBase::Deform
PUBLIC	?Render@CInstanceBase@@QAEXXZ			; CInstanceBase::Render
PUBLIC	?RenderTrace@CInstanceBase@@QAEXXZ		; CInstanceBase::RenderTrace
PUBLIC	?RenderToShadowMap@CInstanceBase@@QAEXXZ	; CInstanceBase::RenderToShadowMap
PUBLIC	?RenderCollision@CInstanceBase@@QAEXXZ		; CInstanceBase::RenderCollision
PUBLIC	?RegisterBoundingSphere@CInstanceBase@@QAEXXZ	; CInstanceBase::RegisterBoundingSphere
PUBLIC	?GetBoundBox@CInstanceBase@@QAEXPAUD3DXVECTOR3@@0@Z ; CInstanceBase::GetBoundBox
PUBLIC	?SetNameString@CInstanceBase@@QAEXPBDH@Z	; CInstanceBase::SetNameString
PUBLIC	?SetRace@CInstanceBase@@QAE_NK@Z		; CInstanceBase::SetRace
PUBLIC	?SetVirtualID@CInstanceBase@@QAEXK@Z		; CInstanceBase::SetVirtualID
PUBLIC	?SetVirtualNumber@CInstanceBase@@QAEXK@Z	; CInstanceBase::SetVirtualNumber
PUBLIC	?SetInstanceType@CInstanceBase@@QAEXH@Z		; CInstanceBase::SetInstanceType
PUBLIC	?SetAlignment@CInstanceBase@@QAEXF@Z		; CInstanceBase::SetAlignment
PUBLIC	?SetPKMode@CInstanceBase@@QAEXE@Z		; CInstanceBase::SetPKMode
PUBLIC	?SetKiller@CInstanceBase@@QAEX_N@Z		; CInstanceBase::SetKiller
PUBLIC	?SetPartyMemberFlag@CInstanceBase@@QAEX_N@Z	; CInstanceBase::SetPartyMemberFlag
PUBLIC	?SetStateFlags@CInstanceBase@@QAEXK@Z		; CInstanceBase::SetStateFlags
PUBLIC	?SetArmor@CInstanceBase@@QAEXK@Z		; CInstanceBase::SetArmor
PUBLIC	?SetShape@CInstanceBase@@QAEXKM@Z		; CInstanceBase::SetShape
PUBLIC	?SetHair@CInstanceBase@@QAEXK@Z			; CInstanceBase::SetHair
PUBLIC	?SetWeapon@CInstanceBase@@QAE_NK@Z		; CInstanceBase::SetWeapon
PUBLIC	?ChangeArmor@CInstanceBase@@QAE_NK@Z		; CInstanceBase::ChangeArmor
PUBLIC	?ChangeWeapon@CInstanceBase@@QAEXK@Z		; CInstanceBase::ChangeWeapon
PUBLIC	?ChangeHair@CInstanceBase@@QAEXK@Z		; CInstanceBase::ChangeHair
PUBLIC	?ChangeGuild@CInstanceBase@@QAEXK@Z		; CInstanceBase::ChangeGuild
PUBLIC	?GetWeaponType@CInstanceBase@@QAEKXZ		; CInstanceBase::GetWeaponType
PUBLIC	?SetComboType@CInstanceBase@@QAEXI@Z		; CInstanceBase::SetComboType
PUBLIC	?GetNameString@CInstanceBase@@QAEPBDXZ		; CInstanceBase::GetNameString
PUBLIC	?GetInstanceType@CInstanceBase@@QAEHXZ		; CInstanceBase::GetInstanceType
PUBLIC	?GetPart@CInstanceBase@@QAEKW4EParts@CRaceData@@@Z ; CInstanceBase::GetPart
PUBLIC	?GetShape@CInstanceBase@@QAEKXZ			; CInstanceBase::GetShape
PUBLIC	?GetRace@CInstanceBase@@QAEKXZ			; CInstanceBase::GetRace
PUBLIC	?GetVirtualID@CInstanceBase@@QAEKXZ		; CInstanceBase::GetVirtualID
PUBLIC	?GetVirtualNumber@CInstanceBase@@QAEKXZ		; CInstanceBase::GetVirtualNumber
PUBLIC	?GetEmpireID@CInstanceBase@@QAEKXZ		; CInstanceBase::GetEmpireID
PUBLIC	?GetGuildID@CInstanceBase@@QAEKXZ		; CInstanceBase::GetGuildID
PUBLIC	?GetAlignment@CInstanceBase@@QAEHXZ		; CInstanceBase::GetAlignment
PUBLIC	?GetAlignmentGrade@CInstanceBase@@QAEIXZ	; CInstanceBase::GetAlignmentGrade
PUBLIC	?GetAlignmentType@CInstanceBase@@QAEHXZ		; CInstanceBase::GetAlignmentType
PUBLIC	?GetPKMode@CInstanceBase@@QAEEXZ		; CInstanceBase::GetPKMode
PUBLIC	?IsKiller@CInstanceBase@@QAE_NXZ		; CInstanceBase::IsKiller
PUBLIC	?IsPartyMember@CInstanceBase@@QAE_NXZ		; CInstanceBase::IsPartyMember
PUBLIC	?CanAct@CInstanceBase@@QAE_NXZ			; CInstanceBase::CanAct
PUBLIC	?CanMove@CInstanceBase@@QAE_NXZ			; CInstanceBase::CanMove
PUBLIC	?CanAttack@CInstanceBase@@QAE_NXZ		; CInstanceBase::CanAttack
PUBLIC	?CanUseSkill@CInstanceBase@@QAE_NXZ		; CInstanceBase::CanUseSkill
PUBLIC	?CanFishing@CInstanceBase@@QAE_NXZ		; CInstanceBase::CanFishing
PUBLIC	?IsConflictAlignmentInstance@CInstanceBase@@QAE_NAAV1@@Z ; CInstanceBase::IsConflictAlignmentInstance
PUBLIC	?IsAttackableInstance@CInstanceBase@@QAE_NAAV1@@Z ; CInstanceBase::IsAttackableInstance
PUBLIC	?IsTargetableInstance@CInstanceBase@@QAE_NAAV1@@Z ; CInstanceBase::IsTargetableInstance
PUBLIC	?CanChangeTarget@CInstanceBase@@QAE_NXZ		; CInstanceBase::CanChangeTarget
PUBLIC	?CanPickInstance@CInstanceBase@@QAE_NXZ		; CInstanceBase::CanPickInstance
PUBLIC	?CanViewTargetHP@CInstanceBase@@QAE_NAAV1@@Z	; CInstanceBase::CanViewTargetHP
PUBLIC	?IsInvisibility@CInstanceBase@@QAEHXZ		; CInstanceBase::IsInvisibility
PUBLIC	?IsParalysis@CInstanceBase@@QAEHXZ		; CInstanceBase::IsParalysis
PUBLIC	?IsGameMaster@CInstanceBase@@QAEHXZ		; CInstanceBase::IsGameMaster
PUBLIC	?IsSameEmpire@CInstanceBase@@QAEHAAV1@@Z	; CInstanceBase::IsSameEmpire
PUBLIC	?IsBowMode@CInstanceBase@@QAEHXZ		; CInstanceBase::IsBowMode
PUBLIC	?IsHandMode@CInstanceBase@@QAEHXZ		; CInstanceBase::IsHandMode
PUBLIC	?IsFishingMode@CInstanceBase@@QAEHXZ		; CInstanceBase::IsFishingMode
PUBLIC	?IsFishing@CInstanceBase@@QAEHXZ		; CInstanceBase::IsFishing
PUBLIC	?IsWearingDress@CInstanceBase@@QAEHXZ		; CInstanceBase::IsWearingDress
PUBLIC	?IsHoldingPickAxe@CInstanceBase@@QAEHXZ		; CInstanceBase::IsHoldingPickAxe
PUBLIC	?IsMountingHorse@CInstanceBase@@QAEHXZ		; CInstanceBase::IsMountingHorse
PUBLIC	?IsNewMount@CInstanceBase@@QAEHXZ		; CInstanceBase::IsNewMount
PUBLIC	?IsForceVisible@CInstanceBase@@QAEHXZ		; CInstanceBase::IsForceVisible
PUBLIC	?IsInSafe@CInstanceBase@@QAEHXZ			; CInstanceBase::IsInSafe
PUBLIC	?IsEnemy@CInstanceBase@@QAEHXZ			; CInstanceBase::IsEnemy
PUBLIC	?IsStone@CInstanceBase@@QAEHXZ			; CInstanceBase::IsStone
PUBLIC	?IsResource@CInstanceBase@@QAEHXZ		; CInstanceBase::IsResource
PUBLIC	?IsNPC@CInstanceBase@@QAEHXZ			; CInstanceBase::IsNPC
PUBLIC	?IsPC@CInstanceBase@@QAEHXZ			; CInstanceBase::IsPC
PUBLIC	?IsPoly@CInstanceBase@@QAEHXZ			; CInstanceBase::IsPoly
PUBLIC	?IsWarp@CInstanceBase@@QAEHXZ			; CInstanceBase::IsWarp
PUBLIC	?IsGoto@CInstanceBase@@QAEHXZ			; CInstanceBase::IsGoto
PUBLIC	?IsObject@CInstanceBase@@QAEHXZ			; CInstanceBase::IsObject
PUBLIC	?IsDoor@CInstanceBase@@QAEHXZ			; CInstanceBase::IsDoor
PUBLIC	?IsBuilding@CInstanceBase@@QAEHXZ		; CInstanceBase::IsBuilding
PUBLIC	?IsWoodenDoor@CInstanceBase@@QAEHXZ		; CInstanceBase::IsWoodenDoor
PUBLIC	?IsStoneDoor@CInstanceBase@@QAEHXZ		; CInstanceBase::IsStoneDoor
PUBLIC	?IsFlag@CInstanceBase@@QAEHXZ			; CInstanceBase::IsFlag
PUBLIC	?IsGuildWall@CInstanceBase@@QAEHXZ		; CInstanceBase::IsGuildWall
PUBLIC	?IsDead@CInstanceBase@@QAEHXZ			; CInstanceBase::IsDead
PUBLIC	?IsStun@CInstanceBase@@QAEHXZ			; CInstanceBase::IsStun
PUBLIC	?IsSleep@CInstanceBase@@QAEHXZ			; CInstanceBase::IsSleep
PUBLIC	?__IsSyncing@CInstanceBase@@QAEHXZ		; CInstanceBase::__IsSyncing
PUBLIC	?PushUDPState@CInstanceBase@@QAEXKABUD3DXVECTOR3@@MII@Z ; CInstanceBase::PushUDPState
PUBLIC	?PushTCPState@CInstanceBase@@QAEXKABUD3DXVECTOR3@@MII@Z ; CInstanceBase::PushTCPState
PUBLIC	?PushTCPStateExpanded@CInstanceBase@@QAEXKABUD3DXVECTOR3@@MIII@Z ; CInstanceBase::PushTCPStateExpanded
PUBLIC	?NEW_SetOwner@CInstanceBase@@QAEXK@Z		; CInstanceBase::NEW_SetOwner
PUBLIC	?NEW_IsLastPixelPosition@CInstanceBase@@QAE_NXZ	; CInstanceBase::NEW_IsLastPixelPosition
PUBLIC	?NEW_GetLastPixelPositionRef@CInstanceBase@@QAEABUD3DXVECTOR3@@XZ ; CInstanceBase::NEW_GetLastPixelPositionRef
PUBLIC	?AvoidObject@CInstanceBase@@QAE_NABVCGraphicObjectInstance@@@Z ; CInstanceBase::AvoidObject
PUBLIC	?IsBlockObject@CInstanceBase@@QAE_NABVCGraphicObjectInstance@@@Z ; CInstanceBase::IsBlockObject
PUBLIC	?BlockMovement@CInstanceBase@@QAEXXZ		; CInstanceBase::BlockMovement
PUBLIC	?RestoreRenderMode@CInstanceBase@@QAEXXZ	; CInstanceBase::RestoreRenderMode
PUBLIC	?SetAddRenderMode@CInstanceBase@@QAEXXZ		; CInstanceBase::SetAddRenderMode
PUBLIC	?SetModulateRenderMode@CInstanceBase@@QAEXXZ	; CInstanceBase::SetModulateRenderMode
PUBLIC	?SetRenderMode@CInstanceBase@@QAEXH@Z		; CInstanceBase::SetRenderMode
PUBLIC	?SetAddColor@CInstanceBase@@QAEXABUD3DXCOLOR@@@Z ; CInstanceBase::SetAddColor
PUBLIC	?IntersectDefendingSphere@CInstanceBase@@QAE_NXZ ; CInstanceBase::IntersectDefendingSphere
PUBLIC	?IntersectBoundingBox@CInstanceBase@@QAE_NXZ	; CInstanceBase::IntersectBoundingBox
PUBLIC	?Refresh@CInstanceBase@@QAEXK_N@Z		; CInstanceBase::Refresh
PUBLIC	?GetDistance@CInstanceBase@@QAEMPAV1@@Z		; CInstanceBase::GetDistance
PUBLIC	?GetDistance@CInstanceBase@@QAEMABUD3DXVECTOR3@@@Z ; CInstanceBase::GetDistance
PUBLIC	?GetGraphicThingInstanceRef@CInstanceBase@@QAEAAVCActorInstance@@XZ ; CInstanceBase::GetGraphicThingInstanceRef
PUBLIC	?GetGraphicThingInstancePtr@CInstanceBase@@QAEPAVCActorInstance@@XZ ; CInstanceBase::GetGraphicThingInstancePtr
PUBLIC	?__Background_IsWaterPixelPosition@CInstanceBase@@QAE_NABUD3DXVECTOR3@@@Z ; CInstanceBase::__Background_IsWaterPixelPosition
PUBLIC	?__Background_GetWaterHeight@CInstanceBase@@QAE_NABUD3DXVECTOR3@@PAM@Z ; CInstanceBase::__Background_GetWaterHeight
PUBLIC	?__LessRenderOrder_GetLODLevel@CInstanceBase@@IAEIXZ ; CInstanceBase::__LessRenderOrder_GetLODLevel
PUBLIC	?__Initialize@CInstanceBase@@IAEXXZ		; CInstanceBase::__Initialize
PUBLIC	?__InitializeRotationSpeed@CInstanceBase@@IAEXXZ ; CInstanceBase::__InitializeRotationSpeed
PUBLIC	?__Create_SetName@CInstanceBase@@IAEXABUSCreateData@1@@Z ; CInstanceBase::__Create_SetName
PUBLIC	?__Create_SetWarpName@CInstanceBase@@IAEXABUSCreateData@1@@Z ; CInstanceBase::__Create_SetWarpName
PUBLIC	?__GetMainInstancePtr@CInstanceBase@@IAEPAV1@XZ	; CInstanceBase::__GetMainInstancePtr
PUBLIC	?__FindInstancePtr@CInstanceBase@@IAEPAV1@K@Z	; CInstanceBase::__FindInstancePtr
PUBLIC	?__FindRaceType@CInstanceBase@@IAE_NKPAE@Z	; CInstanceBase::__FindRaceType
PUBLIC	?__GetRaceType@CInstanceBase@@IAEKXZ		; CInstanceBase::__GetRaceType
PUBLIC	?__IsShapeAnimalWear@CInstanceBase@@IAE_NXZ	; CInstanceBase::__IsShapeAnimalWear
PUBLIC	?__IsChangableWeapon@CInstanceBase@@IAEHH@Z	; CInstanceBase::__IsChangableWeapon
PUBLIC	?__EnableSkipCollision@CInstanceBase@@IAEXXZ	; CInstanceBase::__EnableSkipCollision
PUBLIC	?__DisableSkipCollision@CInstanceBase@@IAEXXZ	; CInstanceBase::__DisableSkipCollision
PUBLIC	?__ClearMainInstance@CInstanceBase@@IAEXXZ	; CInstanceBase::__ClearMainInstance
PUBLIC	?__CanProcessNetworkStatePacket@CInstanceBase@@IAEHXZ ; CInstanceBase::__CanProcessNetworkStatePacket
PUBLIC	?__IsInDustRange@CInstanceBase@@IAE_NXZ		; CInstanceBase::__IsInDustRange
PUBLIC	?__ProcessFunctionEmotion@CInstanceBase@@IAEXKKABUD3DXVECTOR3@@@Z ; CInstanceBase::__ProcessFunctionEmotion
PUBLIC	?__IsEnableTCPProcess@CInstanceBase@@IAEHI@Z	; CInstanceBase::__IsEnableTCPProcess
PUBLIC	?__CanRender@CInstanceBase@@IAE_NXZ		; CInstanceBase::__CanRender
PUBLIC	?__IsInViewFrustum@CInstanceBase@@IAE_NXZ	; CInstanceBase::__IsInViewFrustum
PUBLIC	?__AttachHorseSaddle@CInstanceBase@@IAEXXZ	; CInstanceBase::__AttachHorseSaddle
PUBLIC	?__DetachHorseSaddle@CInstanceBase@@IAEXXZ	; CInstanceBase::__DetachHorseSaddle
PUBLIC	??0SHORSE@CInstanceBase@@QAE@XZ			; CInstanceBase::SHORSE::SHORSE
PUBLIC	??1SHORSE@CInstanceBase@@QAE@XZ			; CInstanceBase::SHORSE::~SHORSE
PUBLIC	?Destroy@SHORSE@CInstanceBase@@QAEXXZ		; CInstanceBase::SHORSE::Destroy
PUBLIC	?Create@SHORSE@CInstanceBase@@QAEXABUD3DXVECTOR3@@II@Z ; CInstanceBase::SHORSE::Create
PUBLIC	?SetAttackSpeed@SHORSE@CInstanceBase@@QAEXI@Z	; CInstanceBase::SHORSE::SetAttackSpeed
PUBLIC	?SetMoveSpeed@SHORSE@CInstanceBase@@QAEXI@Z	; CInstanceBase::SHORSE::SetMoveSpeed
PUBLIC	?Deform@SHORSE@CInstanceBase@@QAEXXZ		; CInstanceBase::SHORSE::Deform
PUBLIC	?Render@SHORSE@CInstanceBase@@QAEXXZ		; CInstanceBase::SHORSE::Render
PUBLIC	?GetActorRef@SHORSE@CInstanceBase@@QAEAAVCActorInstance@@XZ ; CInstanceBase::SHORSE::GetActorRef
PUBLIC	?GetActorPtr@SHORSE@CInstanceBase@@QAEPAVCActorInstance@@XZ ; CInstanceBase::SHORSE::GetActorPtr
PUBLIC	?IsMounting@SHORSE@CInstanceBase@@QAE_NXZ	; CInstanceBase::SHORSE::IsMounting
PUBLIC	?CanAttack@SHORSE@CInstanceBase@@QAE_NXZ	; CInstanceBase::SHORSE::CanAttack
PUBLIC	?CanUseSkill@SHORSE@CInstanceBase@@QAE_NXZ	; CInstanceBase::SHORSE::CanUseSkill
PUBLIC	?GetLevel@SHORSE@CInstanceBase@@QAEIXZ		; CInstanceBase::SHORSE::GetLevel
PUBLIC	?IsNewMount@SHORSE@CInstanceBase@@QAE_NXZ	; CInstanceBase::SHORSE::IsNewMount
PUBLIC	?__Initialize@SHORSE@CInstanceBase@@QAEXXZ	; CInstanceBase::SHORSE::__Initialize
PUBLIC	?__SetBlendRenderingMode@CInstanceBase@@IAEXXZ	; CInstanceBase::__SetBlendRenderingMode
PUBLIC	?__SetAlphaValue@CInstanceBase@@IAEXM@Z		; CInstanceBase::__SetAlphaValue
PUBLIC	?__GetAlphaValue@CInstanceBase@@IAEMXZ		; CInstanceBase::__GetAlphaValue
PUBLIC	?MovementProcess@CInstanceBase@@IAEXXZ		; CInstanceBase::MovementProcess
PUBLIC	?StateProcess@CInstanceBase@@IAEXXZ		; CInstanceBase::StateProcess
PUBLIC	?GetLocalTime@CInstanceBase@@IAEMXZ		; CInstanceBase::GetLocalTime
PUBLIC	?RefreshState@CInstanceBase@@IAEXK_N@Z		; CInstanceBase::RefreshState
PUBLIC	?RefreshActorInstance@CInstanceBase@@IAEXXZ	; CInstanceBase::RefreshActorInstance
PUBLIC	?OnSyncing@CInstanceBase@@IAEXXZ		; CInstanceBase::OnSyncing
PUBLIC	?OnWaiting@CInstanceBase@@IAEXXZ		; CInstanceBase::OnWaiting
PUBLIC	?OnMoving@CInstanceBase@@IAEXXZ			; CInstanceBase::OnMoving
PUBLIC	?NEW_SetSrcPixelPosition@CInstanceBase@@IAEXABUD3DXVECTOR3@@@Z ; CInstanceBase::NEW_SetSrcPixelPosition
PUBLIC	?NEW_SetDstPixelPosition@CInstanceBase@@IAEXABUD3DXVECTOR3@@@Z ; CInstanceBase::NEW_SetDstPixelPosition
PUBLIC	?NEW_SetDstPixelPositionZ@CInstanceBase@@IAEXM@Z ; CInstanceBase::NEW_SetDstPixelPositionZ
PUBLIC	?NEW_GetCurPixelPositionRef@CInstanceBase@@IAEABUD3DXVECTOR3@@XZ ; CInstanceBase::NEW_GetCurPixelPositionRef
PUBLIC	?NEW_GetSrcPixelPositionRef@CInstanceBase@@IAEABUD3DXVECTOR3@@XZ ; CInstanceBase::NEW_GetSrcPixelPositionRef
PUBLIC	?NEW_GetDstPixelPositionRef@CInstanceBase@@QAEABUD3DXVECTOR3@@XZ ; CInstanceBase::NEW_GetDstPixelPositionRef
PUBLIC	?__GetRefinedEffect@CInstanceBase@@IAEIPAVCItemData@@@Z ; CInstanceBase::__GetRefinedEffect
PUBLIC	?__ClearWeaponRefineEffect@CInstanceBase@@IAEXXZ ; CInstanceBase::__ClearWeaponRefineEffect
PUBLIC	?__ClearArmorRefineEffect@CInstanceBase@@IAEXXZ	; CInstanceBase::__ClearArmorRefineEffect
PUBLIC	??1SEffectContainer@CInstanceBase@@QAE@XZ	; CInstanceBase::SEffectContainer::~SEffectContainer
PUBLIC	??1?$list@USCommand@CInstanceBase@@V?$allocator@USCommand@CInstanceBase@@@std@@@std@@QAE@XZ ; std::list<CInstanceBase::SCommand,std::allocator<CInstanceBase::SCommand> >::~list<CInstanceBase::SCommand,std::allocator<CInstanceBase::SCommand> >
PUBLIC	?push_back@?$list@USCommand@CInstanceBase@@V?$allocator@USCommand@CInstanceBase@@@std@@@std@@QAEXABUSCommand@CInstanceBase@@@Z ; std::list<CInstanceBase::SCommand,std::allocator<CInstanceBase::SCommand> >::push_back
PUBLIC	??1?$list@USEffectDamage@CInstanceBase@@V?$allocator@USEffectDamage@CInstanceBase@@@std@@@std@@QAE@XZ ; std::list<CInstanceBase::SEffectDamage,std::allocator<CInstanceBase::SEffectDamage> >::~list<CInstanceBase::SEffectDamage,std::allocator<CInstanceBase::SEffectDamage> >
PUBLIC	?__Warrior_Initialize@CInstanceBase@@IAEXXZ	; CInstanceBase::__Warrior_Initialize
PUBLIC	?__GetBackgroundHeight@CInstanceBase@@KAMMM@Z	; CInstanceBase::__GetBackgroundHeight
PUBLIC	?__GetShadowMapColor@CInstanceBase@@KAKMM@Z	; CInstanceBase::__GetShadowMapColor
PUBLIC	?ResetPerformanceCounter@CInstanceBase@@SAXXZ	; CInstanceBase::ResetPerformanceCounter
PUBLIC	?GetInfo@CInstanceBase@@SAXPAV?$basic_string@DU?$char_traits@D@std@@V?$allocator@D@2@@std@@@Z ; CInstanceBase::GetInfo
PUBLIC	?New@CInstanceBase@@SAPAV1@XZ			; CInstanceBase::New
PUBLIC	?Delete@CInstanceBase@@SAXPAV1@@Z		; CInstanceBase::Delete
PUBLIC	?GetDuelMode@CInstanceBase@@QAEKXZ		; CInstanceBase::GetDuelMode
PUBLIC	?SetDuelMode@CInstanceBase@@QAEXK@Z		; CInstanceBase::SetDuelMode
PUBLIC	??_GCInstanceBase@@UAEPAXI@Z			; CInstanceBase::`scalar deleting destructor'
PUBLIC	?_Reallocate_exactly@?$vector@PAVCInstanceBase@@V?$allocator@PAVCInstanceBase@@@std@@@std@@AAEXI@Z ; std::vector<CInstanceBase *,std::allocator<CInstanceBase *> >::_Reallocate_exactly
PUBLIC	?_Xlength@?$vector@PAVCInstanceBase@@V?$allocator@PAVCInstanceBase@@@std@@@std@@CAXXZ ; std::vector<CInstanceBase *,std::allocator<CInstanceBase *> >::_Xlength
PUBLIC	?IsWall@@YA_NI@Z				; IsWall
PUBLIC	?__ArmorVnumToShape@@YA_NHPAK@Z			; __ArmorVnumToShape
PUBLIC	??1CActorInstanceBackground@@UAE@XZ		; CActorInstanceBackground::~CActorInstanceBackground
PUBLIC	??1?$CDynamicPool@VCInstanceBase@@@@UAE@XZ	; CDynamicPool<CInstanceBase>::~CDynamicPool<CInstanceBase>
PUBLIC	?Delete@?$CDynamicPool@VCInstanceBase@@@@KAXPAVCInstanceBase@@@Z ; CDynamicPool<CInstanceBase>::Delete
PUBLIC	??1?$CDynamicPoolEx@VCRotationDecorator@NEffectUpdateDecorator@@@@UAE@XZ ; CDynamicPoolEx<NEffectUpdateDecorator::CRotationDecorator>::~CDynamicPoolEx<NEffectUpdateDecorator::CRotationDecorator>
PUBLIC	?Delete@?$CDynamicPoolEx@VCRotationDecorator@NEffectUpdateDecorator@@@@KAXPAVCRotationDecorator@NEffectUpdateDecorator@@@Z ; CDynamicPoolEx<NEffectUpdateDecorator::CRotationDecorator>::Delete
PUBLIC	??1?$CDynamicPoolEx@VCGravityDecorator@NEffectUpdateDecorator@@@@UAE@XZ ; CDynamicPoolEx<NEffectUpdateDecorator::CGravityDecorator>::~CDynamicPoolEx<NEffectUpdateDecorator::CGravityDecorator>
PUBLIC	?Delete@?$CDynamicPoolEx@VCGravityDecorator@NEffectUpdateDecorator@@@@KAXPAVCGravityDecorator@NEffectUpdateDecorator@@@Z ; CDynamicPoolEx<NEffectUpdateDecorator::CGravityDecorator>::Delete
PUBLIC	??1?$CDynamicPoolEx@VCAirResistanceDecorator@NEffectUpdateDecorator@@@@UAE@XZ ; CDynamicPoolEx<NEffectUpdateDecorator::CAirResistanceDecorator>::~CDynamicPoolEx<NEffectUpdateDecorator::CAirResistanceDecorator>
PUBLIC	?Delete@?$CDynamicPoolEx@VCAirResistanceDecorator@NEffectUpdateDecorator@@@@KAXPAVCAirResistanceDecorator@NEffectUpdateDecorator@@@Z ; CDynamicPoolEx<NEffectUpdateDecorator::CAirResistanceDecorator>::Delete
PUBLIC	??1?$CDynamicPoolEx@VCTextureAnimationRandomDecorator@NEffectUpdateDecorator@@@@UAE@XZ ; CDynamicPoolEx<NEffectUpdateDecorator::CTextureAnimationRandomDecorator>::~CDynamicPoolEx<NEffectUpdateDecorator::CTextureAnimationRandomDecorator>
PUBLIC	?Delete@?$CDynamicPoolEx@VCTextureAnimationRandomDecorator@NEffectUpdateDecorator@@@@KAXPAVCTextureAnimationRandomDecorator@NEffectUpdateDecorator@@@Z ; CDynamicPoolEx<NEffectUpdateDecorator::CTextureAnimationRandomDecorator>::Delete
PUBLIC	??1?$CDynamicPoolEx@VCTextureAnimationCCWDecorator@NEffectUpdateDecorator@@@@UAE@XZ ; CDynamicPoolEx<NEffectUpdateDecorator::CTextureAnimationCCWDecorator>::~CDynamicPoolEx<NEffectUpdateDecorator::CTextureAnimationCCWDecorator>
PUBLIC	?Delete@?$CDynamicPoolEx@VCTextureAnimationCCWDecorator@NEffectUpdateDecorator@@@@KAXPAVCTextureAnimationCCWDecorator@NEffectUpdateDecorator@@@Z ; CDynamicPoolEx<NEffectUpdateDecorator::CTextureAnimationCCWDecorator>::Delete
PUBLIC	??1?$CDynamicPoolEx@VCTextureAnimationCWDecorator@NEffectUpdateDecorator@@@@UAE@XZ ; CDynamicPoolEx<NEffectUpdateDecorator::CTextureAnimationCWDecorator>::~CDynamicPoolEx<NEffectUpdateDecorator::CTextureAnimationCWDecorator>
PUBLIC	?Delete@?$CDynamicPoolEx@VCTextureAnimationCWDecorator@NEffectUpdateDecorator@@@@KAXPAVCTextureAnimationCWDecorator@NEffectUpdateDecorator@@@Z ; CDynamicPoolEx<NEffectUpdateDecorator::CTextureAnimationCWDecorator>::Delete
PUBLIC	??1?$CDynamicPoolEx@VCNullDecorator@NEffectUpdateDecorator@@@@UAE@XZ ; CDynamicPoolEx<NEffectUpdateDecorator::CNullDecorator>::~CDynamicPoolEx<NEffectUpdateDecorator::CNullDecorator>
PUBLIC	?Delete@?$CDynamicPoolEx@VCNullDecorator@NEffectUpdateDecorator@@@@KAXPAVCNullDecorator@NEffectUpdateDecorator@@@Z ; CDynamicPoolEx<NEffectUpdateDecorator::CNullDecorator>::Delete
PUBLIC	??1?$CDynamicPoolEx@VCHeaderDecorator@NEffectUpdateDecorator@@@@UAE@XZ ; CDynamicPoolEx<NEffectUpdateDecorator::CHeaderDecorator>::~CDynamicPoolEx<NEffectUpdateDecorator::CHeaderDecorator>
PUBLIC	?Delete@?$CDynamicPoolEx@VCHeaderDecorator@NEffectUpdateDecorator@@@@KAXPAVCHeaderDecorator@NEffectUpdateDecorator@@@Z ; CDynamicPoolEx<NEffectUpdateDecorator::CHeaderDecorator>::Delete
PUBLIC	??$_Emplace_reallocate@ABQAVCInstanceBase@@@?$vector@PAVCInstanceBase@@V?$allocator@PAVCInstanceBase@@@std@@@std@@QAEPAPAVCInstanceBase@@QAPAV2@ABQAV2@@Z ; std::vector<CInstanceBase *,std::allocator<CInstanceBase *> >::_Emplace_reallocate<CInstanceBase * const &>
PUBLIC	??$_Construct_in_place@PAU?$_List_node@USEffectDamage@CInstanceBase@@PAX@std@@AAPAU12@@std@@YAXAAPAU?$_List_node@USEffectDamage@CInstanceBase@@PAX@0@0@Z ; std::_Construct_in_place<std::_List_node<CInstanceBase::SEffectDamage,void *> *,std::_List_node<CInstanceBase::SEffectDamage,void *> * &>
PUBLIC	??$_Construct_in_place@PAU?$_List_node@USCommand@CInstanceBase@@PAX@std@@AAPAU12@@std@@YAXAAPAU?$_List_node@USCommand@CInstanceBase@@PAX@0@0@Z ; std::_Construct_in_place<std::_List_node<CInstanceBase::SCommand,void *> *,std::_List_node<CInstanceBase::SCommand,void *> * &>
PUBLIC	??$_Destroy_range@V?$allocator@PAVCInstanceBase@@@std@@@std@@YAXPAPAVCInstanceBase@@QAPAV1@AAV?$allocator@PAVCInstanceBase@@@0@@Z ; std::_Destroy_range<std::allocator<CInstanceBase *> >
PUBLIC	??$_Destroy_range@V?$allocator@PAVCHeaderDecorator@NEffectUpdateDecorator@@@std@@@std@@YAXPAPAVCHeaderDecorator@NEffectUpdateDecorator@@QAPAV12@AAV?$allocator@PAVCHeaderDecorator@NEffectUpdateDecorator@@@0@@Z ; std::_Destroy_range<std::allocator<NEffectUpdateDecorator::CHeaderDecorator *> >
PUBLIC	??$_Destroy_range@V?$allocator@PAVCNullDecorator@NEffectUpdateDecorator@@@std@@@std@@YAXPAPAVCNullDecorator@NEffectUpdateDecorator@@QAPAV12@AAV?$allocator@PAVCNullDecorator@NEffectUpdateDecorator@@@0@@Z ; std::_Destroy_range<std::allocator<NEffectUpdateDecorator::CNullDecorator *> >
PUBLIC	??$_Destroy_range@V?$allocator@PAVCTextureAnimationCWDecorator@NEffectUpdateDecorator@@@std@@@std@@YAXPAPAVCTextureAnimationCWDecorator@NEffectUpdateDecorator@@QAPAV12@AAV?$allocator@PAVCTextureAnimationCWDecorator@NEffectUpdateDecorator@@@0@@Z ; std::_Destroy_range<std::allocator<NEffectUpdateDecorator::CTextureAnimationCWDecorator *> >
PUBLIC	??$_Destroy_range@V?$allocator@PAVCTextureAnimationCCWDecorator@NEffectUpdateDecorator@@@std@@@std@@YAXPAPAVCTextureAnimationCCWDecorator@NEffectUpdateDecorator@@QAPAV12@AAV?$allocator@PAVCTextureAnimationCCWDecorator@NEffectUpdateDecorator@@@0@@Z ; std::_Destroy_range<std::allocator<NEffectUpdateDecorator::CTextureAnimationCCWDecorator *> >
PUBLIC	??$_Destroy_range@V?$allocator@PAVCTextureAnimationRandomDecorator@NEffectUpdateDecorator@@@std@@@std@@YAXPAPAVCTextureAnimationRandomDecorator@NEffectUpdateDecorator@@QAPAV12@AAV?$allocator@PAVCTextureAnimationRandomDecorator@NEffectUpdateDecorator@@@0@@Z ; std::_Destroy_range<std::allocator<NEffectUpdateDecorator::CTextureAnimationRandomDecorator *> >
PUBLIC	??$_Destroy_range@V?$allocator@PAVCAirResistanceDecorator@NEffectUpdateDecorator@@@std@@@std@@YAXPAPAVCAirResistanceDecorator@NEffectUpdateDecorator@@QAPAV12@AAV?$allocator@PAVCAirResistanceDecorator@NEffectUpdateDecorator@@@0@@Z ; std::_Destroy_range<std::allocator<NEffectUpdateDecorator::CAirResistanceDecorator *> >
PUBLIC	??$_Destroy_range@V?$allocator@PAVCGravityDecorator@NEffectUpdateDecorator@@@std@@@std@@YAXPAPAVCGravityDecorator@NEffectUpdateDecorator@@QAPAV12@AAV?$allocator@PAVCGravityDecorator@NEffectUpdateDecorator@@@0@@Z ; std::_Destroy_range<std::allocator<NEffectUpdateDecorator::CGravityDecorator *> >
PUBLIC	??$_Destroy_range@V?$allocator@PAVCRotationDecorator@NEffectUpdateDecorator@@@std@@@std@@YAXPAPAVCRotationDecorator@NEffectUpdateDecorator@@QAPAV12@AAV?$allocator@PAVCRotationDecorator@NEffectUpdateDecorator@@@0@@Z ; std::_Destroy_range<std::allocator<NEffectUpdateDecorator::CRotationDecorator *> >
PUBLIC	??$_Uninitialized_move@PAPAVCInstanceBase@@V?$allocator@PAVCInstanceBase@@@std@@@std@@YAPAPAVCInstanceBase@@QAPAV1@0PAPAV1@AAV?$allocator@PAVCInstanceBase@@@0@@Z ; std::_Uninitialized_move<CInstanceBase * *,std::allocator<CInstanceBase *> >
PUBLIC	??1?$_Alloc_construct_ptr@V?$allocator@U?$_List_node@USCommand@CInstanceBase@@PAX@std@@@std@@@std@@QAE@XZ ; std::_Alloc_construct_ptr<std::allocator<std::_List_node<CInstanceBase::SCommand,void *> > >::~_Alloc_construct_ptr<std::allocator<std::_List_node<CInstanceBase::SCommand,void *> > >
PUBLIC	??$_Erase_tree@V?$allocator@U?$_Tree_node@U?$pair@$$CBKK@std@@PAX@std@@@std@@@?$_Tree_val@U?$_Tree_simple_types@U?$pair@$$CBKK@std@@@std@@@std@@QAEXAAV?$allocator@U?$_Tree_node@U?$pair@$$CBKK@std@@PAX@std@@@1@PAU?$_Tree_node@U?$pair@$$CBKK@std@@PAX@1@@Z ; std::_Tree_val<std::_Tree_simple_types<std::pair<unsigned long const ,unsigned long> > >::_Erase_tree<std::allocator<std::_Tree_node<std::pair<unsigned long const ,unsigned long>,void *> > >
PUBLIC	??$_Destroy_in_place@PAU?$_List_node@USEffectDamage@CInstanceBase@@PAX@std@@@std@@YAXAAPAU?$_List_node@USEffectDamage@CInstanceBase@@PAX@0@@Z ; std::_Destroy_in_place<std::_List_node<CInstanceBase::SEffectDamage,void *> *>
PUBLIC	??$_Destroy_in_place@PAU?$_List_node@USCommand@CInstanceBase@@PAX@std@@@std@@YAXAAPAU?$_List_node@USCommand@CInstanceBase@@PAX@0@@Z ; std::_Destroy_in_place<std::_List_node<CInstanceBase::SCommand,void *> *>
PUBLIC	??$_Construct_in_place@PAU?$_Tree_node@U?$pair@$$CBKK@std@@PAX@std@@ABQAU12@@std@@YAXAAPAU?$_Tree_node@U?$pair@$$CBKK@std@@PAX@0@ABQAU10@@Z ; std::_Construct_in_place<std::_Tree_node<std::pair<unsigned long const ,unsigned long>,void *> *,std::_Tree_node<std::pair<unsigned long const ,unsigned long>,void *> * const &>
PUBLIC	??$_Copy_memmove@PAPAVCInstanceBase@@PAPAV1@@std@@YAPAPAVCInstanceBase@@PAPAV1@00@Z ; std::_Copy_memmove<CInstanceBase * *,CInstanceBase * *>
PUBLIC	??$_Construct_in_place@PAU?$_List_node@USCommand@CInstanceBase@@PAX@std@@ABQAU12@@std@@YAXAAPAU?$_List_node@USCommand@CInstanceBase@@PAX@0@ABQAU10@@Z ; std::_Construct_in_place<std::_List_node<CInstanceBase::SCommand,void *> *,std::_List_node<CInstanceBase::SCommand,void *> * const &>
PUBLIC	??$_Destroy_in_place@PAU?$_Tree_node@U?$pair@$$CBKK@std@@PAX@std@@@std@@YAXAAPAU?$_Tree_node@U?$pair@$$CBKK@std@@PAX@0@@Z ; std::_Destroy_in_place<std::_Tree_node<std::pair<unsigned long const ,unsigned long>,void *> *>
PUBLIC	?_OptionsStorage@?1??__local_stdio_printf_options@@9@4_KA ; `__local_stdio_printf_options'::`2'::_OptionsStorage
PUBLIC	??_7exception@std@@6B@				; std::exception::`vftable'
PUBLIC	??_C@_0BC@EOODALEL@Unknown?5exception@		; `string'
PUBLIC	??_7bad_alloc@std@@6B@				; std::bad_alloc::`vftable'
PUBLIC	??_7bad_array_new_length@std@@6B@		; std::bad_array_new_length::`vftable'
PUBLIC	??_C@_0BF@KINCDENJ@bad?5array?5new?5length@	; `string'
PUBLIC	__TI3?AVbad_array_new_length@std@@
PUBLIC	__CTA3?AVbad_array_new_length@std@@
PUBLIC	??_R0?AVbad_array_new_length@std@@@8		; std::bad_array_new_length `RTTI Type Descriptor'
PUBLIC	__CT??_R0?AVbad_array_new_length@std@@@8??0bad_array_new_length@std@@QAE@ABV01@@Z12
PUBLIC	??_R0?AVbad_alloc@std@@@8			; std::bad_alloc `RTTI Type Descriptor'
PUBLIC	__CT??_R0?AVbad_alloc@std@@@8??0bad_alloc@std@@QAE@ABV01@@Z12
PUBLIC	??_R0?AVexception@std@@@8			; std::exception `RTTI Type Descriptor'
PUBLIC	__CT??_R0?AVexception@std@@@8??0exception@std@@QAE@ABV01@@Z12
PUBLIC	??_C@_0BA@JFNIOLAK@string?5too?5long@		; `string'
PUBLIC	??_C@_00CNPNBAHC@@				; `string'
PUBLIC	??_C@_0BA@FOIKENOD@vector?5too?5long@		; `string'
PUBLIC	??_R4exception@std@@6B@				; std::exception::`RTTI Complete Object Locator'
PUBLIC	??_R3exception@std@@8				; std::exception::`RTTI Class Hierarchy Descriptor'
PUBLIC	??_R2exception@std@@8				; std::exception::`RTTI Base Class Array'
PUBLIC	??_R1A@?0A@EA@exception@std@@8			; std::exception::`RTTI Base Class Descriptor at (0,-1,0,64)'
PUBLIC	??_R4bad_alloc@std@@6B@				; std::bad_alloc::`RTTI Complete Object Locator'
PUBLIC	??_R3bad_alloc@std@@8				; std::bad_alloc::`RTTI Class Hierarchy Descriptor'
PUBLIC	??_R2bad_alloc@std@@8				; std::bad_alloc::`RTTI Base Class Array'
PUBLIC	??_R1A@?0A@EA@bad_alloc@std@@8			; std::bad_alloc::`RTTI Base Class Descriptor at (0,-1,0,64)'
PUBLIC	??_R4bad_array_new_length@std@@6B@		; std::bad_array_new_length::`RTTI Complete Object Locator'
PUBLIC	??_R3bad_array_new_length@std@@8		; std::bad_array_new_length::`RTTI Class Hierarchy Descriptor'
PUBLIC	??_R2bad_array_new_length@std@@8		; std::bad_array_new_length::`RTTI Base Class Array'
PUBLIC	??_R1A@?0A@EA@bad_array_new_length@std@@8	; std::bad_array_new_length::`RTTI Base Class Descriptor at (0,-1,0,64)'
PUBLIC	?ms_kPool@?$CPooledObject@VCHeaderDecorator@NEffectUpdateDecorator@@@@1V?$CDynamicPoolEx@VCHeaderDecorator@NEffectUpdateDecorator@@@@A ; CPooledObject<NEffectUpdateDecorator::CHeaderDecorator>::ms_kPool
PUBLIC	?ms_kPool@?$CPooledObject@VCNullDecorator@NEffectUpdateDecorator@@@@1V?$CDynamicPoolEx@VCNullDecorator@NEffectUpdateDecorator@@@@A ; CPooledObject<NEffectUpdateDecorator::CNullDecorator>::ms_kPool
PUBLIC	?ms_kPool@?$CPooledObject@VCTextureAnimationCWDecorator@NEffectUpdateDecorator@@@@1V?$CDynamicPoolEx@VCTextureAnimationCWDecorator@NEffectUpdateDecorator@@@@A ; CPooledObject<NEffectUpdateDecorator::CTextureAnimationCWDecorator>::ms_kPool
PUBLIC	?ms_kPool@?$CPooledObject@VCTextureAnimationCCWDecorator@NEffectUpdateDecorator@@@@1V?$CDynamicPoolEx@VCTextureAnimationCCWDecorator@NEffectUpdateDecorator@@@@A ; CPooledObject<NEffectUpdateDecorator::CTextureAnimationCCWDecorator>::ms_kPool
PUBLIC	?ms_kPool@?$CPooledObject@VCTextureAnimationRandomDecorator@NEffectUpdateDecorator@@@@1V?$CDynamicPoolEx@VCTextureAnimationRandomDecorator@NEffectUpdateDecorator@@@@A ; CPooledObject<NEffectUpdateDecorator::CTextureAnimationRandomDecorator>::ms_kPool
PUBLIC	?ms_kPool@?$CPooledObject@VCAirResistanceDecorator@NEffectUpdateDecorator@@@@1V?$CDynamicPoolEx@VCAirResistanceDecorator@NEffectUpdateDecorator@@@@A ; CPooledObject<NEffectUpdateDecorator::CAirResistanceDecorator>::ms_kPool
PUBLIC	?ms_kPool@?$CPooledObject@VCGravityDecorator@NEffectUpdateDecorator@@@@1V?$CDynamicPoolEx@VCGravityDecorator@NEffectUpdateDecorator@@@@A ; CPooledObject<NEffectUpdateDecorator::CGravityDecorator>::ms_kPool
PUBLIC	?ms_kPool@?$CPooledObject@VCRotationDecorator@NEffectUpdateDecorator@@@@1V?$CDynamicPoolEx@VCRotationDecorator@NEffectUpdateDecorator@@@@A ; CPooledObject<NEffectUpdateDecorator::CRotationDecorator>::ms_kPool
PUBLIC	?ms_singleton@?$CSingleton@VCStateManager@@@@0PAVCStateManager@@A ; CSingleton<CStateManager>::ms_singleton
PUBLIC	?ms_kPool@CInstanceBase@@2V?$CDynamicPool@VCInstanceBase@@@@A ; CInstanceBase::ms_kPool
PUBLIC	??_7CInstanceBase@@6B@				; CInstanceBase::`vftable'
PUBLIC	?ms_singleton@?$CSingleton@VCPythonBackground@@@@0PAVCPythonBackground@@A ; CSingleton<CPythonBackground>::ms_singleton
PUBLIC	?ms_singleton@?$CSingleton@VCPythonNonPlayer@@@@0PAVCPythonNonPlayer@@A ; CSingleton<CPythonNonPlayer>::ms_singleton
PUBLIC	?ms_singleton@?$TAbstractSingleton@VIAbstractPlayer@@@@0PAVIAbstractPlayer@@A ; TAbstractSingleton<IAbstractPlayer>::ms_singleton
PUBLIC	?ms_singleton@?$CSingleton@VCPythonPlayer@@@@0PAVCPythonPlayer@@A ; CSingleton<CPythonPlayer>::ms_singleton
PUBLIC	?ms_singleton@?$CSingleton@VCPythonCharacterManager@@@@0PAVCPythonCharacterManager@@A ; CSingleton<CPythonCharacterManager>::ms_singleton
PUBLIC	?ms_singleton@?$TAbstractSingleton@VIAbstractApplication@@@@0PAVIAbstractApplication@@A ; TAbstractSingleton<IAbstractApplication>::ms_singleton
PUBLIC	?ms_singleton@?$CSingleton@VCItemManager@@@@0PAVCItemManager@@A ; CSingleton<CItemManager>::ms_singleton
PUBLIC	??_C@_06PNAKCKLH@saddle@			; `string'
PUBLIC	??_C@_0EL@PHAIMNFF@CInstanceBase?3?3__EnableSkipColl@ ; `string'
PUBLIC	??_C@_0BP@PGINAIMI@Inst?5?9?5UC?5?$CFd?0?5RC?5?$CFd?5Pool?5?9?5?$CFd?5@ ; `string'
PUBLIC	??_C@_0EG@IFLKAGDE@CInstanceBase?3?3PushTCPState?5?G?C?$LH@ ; `string'
PUBLIC	??_C@_0DM@EIDAANLK@vid?$DN?$CFd?5?$LP?r?A?w?$MA?O?5?$LM?v?5?$LO?x?$LE?B?5?$LL?s?E?B?$LG?s?5?$LN?$LK@ ; `string'
PUBLIC	??_C@_0EG@MNIPPABI@CPythonCharacterManager?3?3Change@ ; `string'
PUBLIC	??_C@_0O@NKNMEGII@list?5too?5long@		; `string'
PUBLIC	??_R4CInstanceBase@@6B@				; CInstanceBase::`RTTI Complete Object Locator'
PUBLIC	??_R0?AVCInstanceBase@@@8			; CInstanceBase `RTTI Type Descriptor'
PUBLIC	??_R3CInstanceBase@@8				; CInstanceBase::`RTTI Class Hierarchy Descriptor'
PUBLIC	??_R2CInstanceBase@@8				; CInstanceBase::`RTTI Base Class Array'
PUBLIC	??_R1A@?0A@EA@CInstanceBase@@8			; CInstanceBase::`RTTI Base Class Descriptor at (0,-1,0,64)'
PUBLIC	__real@3b808081
PUBLIC	__real@3f800000
PUBLIC	__real@4076800000000000
PUBLIC	__real@42480000
PUBLIC	__real@42c80000
PUBLIC	__real@43b40000
PUBLIC	__real@447a0000
PUBLIC	__real@44fa0000
PUBLIC	__real@45160000
PUBLIC	__real@451c4000
PUBLIC	__real@c2c80000
PUBLIC	__xmm@0000c41c0000c41b0000c41a0000c419
PUBLIC	__xmm@41f00000000000000000000000000000
PUBLIC	__xmm@80000000800000008000000080000000
EXTRN	??2@YAPAXI@Z:PROC				; operator new
EXTRN	??3@YAXPAX@Z:PROC				; operator delete
EXTRN	??3@YAXPAXI@Z:PROC				; operator delete
EXTRN	_atexit:PROC
EXTRN	__Init_thread_header:PROC
EXTRN	__Init_thread_abort:PROC
EXTRN	__Init_thread_footer:PROC
EXTRN	__invalid_parameter_noinfo_noreturn:PROC
EXTRN	___stdio_common_vsprintf:PROC
EXTRN	___std_exception_copy:PROC
EXTRN	___std_exception_destroy:PROC
EXTRN	??_Eexception@std@@UAEPAXI@Z:PROC		; std::exception::`vector deleting destructor'
EXTRN	??_Ebad_alloc@std@@UAEPAXI@Z:PROC		; std::bad_alloc::`vector deleting destructor'
EXTRN	??_Ebad_array_new_length@std@@UAEPAXI@Z:PROC	; std::bad_array_new_length::`vector deleting destructor'
EXTRN	?_Xlength_error@std@@YAXPBD@Z:PROC		; std::_Xlength_error
EXTRN	?Lognf@@YAXIPBDZZ:PROC				; Lognf
EXTRN	?TraceError@@YAXPBDZZ:PROC			; TraceError
EXTRN	?IsFile@@YA_NPBD@Z:PROC				; IsFile
EXTRN	?ELTimer_GetFrameMSec@@YAKXZ:PROC		; ELTimer_GetFrameMSec
EXTRN	??0CScreen@@QAE@XZ:PROC				; CScreen::CScreen
EXTRN	??1CScreen@@UAE@XZ:PROC				; CScreen::~CScreen
EXTRN	?RenderLine3d@CScreen@@QAEXMMMMMM@Z:PROC	; CScreen::RenderLine3d
EXTRN	?SetDiffuseColor@CScreen@@QAEXMMMM@Z:PROC	; CScreen::SetDiffuseColor
EXTRN	?Render@CGraphicObjectInstance@@QAE_NXZ:PROC	; CGraphicObjectInstance::Render
EXTRN	?isShow@CGraphicObjectInstance@@QAE_NXZ:PROC	; CGraphicObjectInstance::isShow
EXTRN	?Initialize@CGraphicObjectInstance@@QAEXXZ:PROC	; CGraphicObjectInstance::Initialize
EXTRN	?RegisterBoundingSphere@CGraphicObjectInstance@@QAEXXZ:PROC ; CGraphicObjectInstance::RegisterBoundingSphere
EXTRN	?DeformNoSkin@CGraphicThingInstance@@QAEXXZ:PROC ; CGraphicThingInstance::DeformNoSkin
EXTRN	?CreateDeviceObjects@CGraphicThingInstance@@QAE_NXZ:PROC ; CGraphicThingInstance::CreateDeviceObjects
EXTRN	?DestroyDeviceObjects@CGraphicThingInstance@@QAEXXZ:PROC ; CGraphicThingInstance::DestroyDeviceObjects
EXTRN	?AttachModelInstance@CGraphicThingInstance@@QAEXHPBDAAV1@H@Z:PROC ; CGraphicThingInstance::AttachModelInstance
EXTRN	?DetachModelInstance@CGraphicThingInstance@@QAEXHAAV1@H@Z:PROC ; CGraphicThingInstance::DetachModelInstance
EXTRN	?GetLocalTime@CGraphicThingInstance@@QAEMXZ:PROC ; CGraphicThingInstance::GetLocalTime
EXTRN	?GetSecondElapsed@CGraphicThingInstance@@QAEMXZ:PROC ; CGraphicThingInstance::GetSecondElapsed
EXTRN	?GetLODControllerPointer@CGraphicThingInstance@@QAEPAVCGrannyLODController@@K@Z:PROC ; CGraphicThingInstance::GetLODControllerPointer
EXTRN	?Intersect@CGraphicThingInstance@@QAE_NPAM00@Z:PROC ; CGraphicThingInstance::Intersect
EXTRN	?GetBoundBox@CGraphicThingInstance@@QAEXPAUD3DXVECTOR3@@0@Z:PROC ; CGraphicThingInstance::GetBoundBox
EXTRN	?GetRotatingDirection@@YAHMM@Z:PROC		; GetRotatingDirection
EXTRN	?SPixelPosition_CalculateDistanceSq3d@@YAMABUD3DXVECTOR3@@0@Z:PROC ; SPixelPosition_CalculateDistanceSq3d
EXTRN	?GetIndex@CItemData@@QBEKXZ:PROC		; CItemData::GetIndex
EXTRN	?GetType@CItemData@@QBEEXZ:PROC			; CItemData::GetType
EXTRN	?GetSubType@CItemData@@QBEEXZ:PROC		; CItemData::GetSubType
EXTRN	?GetRefine@CItemData@@QBEIXZ:PROC		; CItemData::GetRefine
EXTRN	?GetWeaponType@CItemData@@QBEKXZ:PROC		; CItemData::GetWeaponType
EXTRN	?GetValue@CItemData@@QBEJE@Z:PROC		; CItemData::GetValue
EXTRN	?GetSocketCount@CItemData@@QBEHXZ:PROC		; CItemData::GetSocketCount
EXTRN	?GetSpecularPowerf@CItemData@@QBEMXZ:PROC	; CItemData::GetSpecularPowerf
EXTRN	?GetGuildSymbolFileName@@YAPBDK@Z:PROC		; GetGuildSymbolFileName
EXTRN	?SaveRenderState@CStateManager@@QAEXW4_D3DRENDERSTATETYPE@@K@Z:PROC ; CStateManager::SaveRenderState
EXTRN	?RestoreRenderState@CStateManager@@QAEXW4_D3DRENDERSTATETYPE@@@Z:PROC ; CStateManager::RestoreRenderState
EXTRN	?SetRenderState@CStateManager@@QAEXW4_D3DRENDERSTATETYPE@@K@Z:PROC ; CStateManager::SetRenderState
EXTRN	?SetTextureStageState@CStateManager@@QAEXKW4_D3DTEXTURESTAGESTATETYPE@@K@Z:PROC ; CStateManager::SetTextureStageState
EXTRN	?GetEmptyPtr@IEventHandler@CActorInstance@@SAPAV12@XZ:PROC ; CActorInstance::IEventHandler::GetEmptyPtr
EXTRN	?IsDirLine@CActorInstance@@SA_NXZ:PROC		; CActorInstance::IsDirLine
EXTRN	??0CActorInstance@@QAE@XZ:PROC			; CActorInstance::CActorInstance
EXTRN	??1CActorInstance@@UAE@XZ:PROC			; CActorInstance::~CActorInstance
EXTRN	?INSTANCEBASE_Transform@CActorInstance@@QAEXXZ:PROC ; CActorInstance::INSTANCEBASE_Transform
EXTRN	?INSTANCEBASE_Deform@CActorInstance@@QAEXXZ:PROC ; CActorInstance::INSTANCEBASE_Deform
EXTRN	?Destroy@CActorInstance@@QAEXXZ:PROC		; CActorInstance::Destroy
EXTRN	?Stop@CActorInstance@@QAEXM@Z:PROC		; CActorInstance::Stop
EXTRN	?SetMainInstance@CActorInstance@@QAEXXZ:PROC	; CActorInstance::SetMainInstance
EXTRN	?SetAttackSpeed@CActorInstance@@QAEXM@Z:PROC	; CActorInstance::SetAttackSpeed
EXTRN	?SetMoveSpeed@CActorInstance@@QAEXM@Z:PROC	; CActorInstance::SetMoveSpeed
EXTRN	?SetMaterialColor@CActorInstance@@QAEXK@Z:PROC	; CActorInstance::SetMaterialColor
EXTRN	?SetEventHandler@CActorInstance@@QAEXPAVIEventHandler@1@@Z:PROC ; CActorInstance::SetEventHandler
EXTRN	?SetRace@CActorInstance@@QAE_NK@Z:PROC		; CActorInstance::SetRace
EXTRN	?SetHair@CActorInstance@@QAEXK@Z:PROC		; CActorInstance::SetHair
EXTRN	?SetVirtualID@CActorInstance@@QAEXK@Z:PROC	; CActorInstance::SetVirtualID
EXTRN	?SetShape@CActorInstance@@QAEXKM@Z:PROC		; CActorInstance::SetShape
EXTRN	?ChangeMaterial@CActorInstance@@QAEXPBD@Z:PROC	; CActorInstance::ChangeMaterial
EXTRN	?SetComboType@CActorInstance@@QAEXG@Z:PROC	; CActorInstance::SetComboType
EXTRN	?GetRace@CActorInstance@@QAEKXZ:PROC		; CActorInstance::GetRace
EXTRN	?GetActorType@CActorInstance@@QBEIXZ:PROC	; CActorInstance::GetActorType
EXTRN	?SetActorType@CActorInstance@@QAEXI@Z:PROC	; CActorInstance::SetActorType
EXTRN	?CanAct@CActorInstance@@QAE_NXZ:PROC		; CActorInstance::CanAct
EXTRN	?CanMove@CActorInstance@@QAE_NXZ:PROC		; CActorInstance::CanMove
EXTRN	?CanAttack@CActorInstance@@QAE_NXZ:PROC		; CActorInstance::CanAttack
EXTRN	?CanUseSkill@CActorInstance@@QAE_NXZ:PROC	; CActorInstance::CanUseSkill
EXTRN	?IsPC@CActorInstance@@QAE_NXZ:PROC		; CActorInstance::IsPC
EXTRN	?IsNPC@CActorInstance@@QAE_NXZ:PROC		; CActorInstance::IsNPC
EXTRN	?IsEnemy@CActorInstance@@QAE_NXZ:PROC		; CActorInstance::IsEnemy
EXTRN	?IsStone@CActorInstance@@QAE_NXZ:PROC		; CActorInstance::IsStone
EXTRN	?IsWarp@CActorInstance@@QAE_NXZ:PROC		; CActorInstance::IsWarp
EXTRN	?IsGoto@CActorInstance@@QAE_NXZ:PROC		; CActorInstance::IsGoto
EXTRN	?IsObject@CActorInstance@@QAE_NXZ:PROC		; CActorInstance::IsObject
EXTRN	?IsDoor@CActorInstance@@QAE_NXZ:PROC		; CActorInstance::IsDoor
EXTRN	?IsPoly@CActorInstance@@QAE_NXZ:PROC		; CActorInstance::IsPoly
EXTRN	?IsBuilding@CActorInstance@@QAE_NXZ:PROC	; CActorInstance::IsBuilding
EXTRN	?IsHandMode@CActorInstance@@QAE_NXZ:PROC	; CActorInstance::IsHandMode
EXTRN	?IsBowMode@CActorInstance@@QAE_NXZ:PROC		; CActorInstance::IsBowMode
EXTRN	?AttachWeapon@CActorInstance@@QAEXKKK@Z:PROC	; CActorInstance::AttachWeapon
EXTRN	?RefreshActorInstance@CActorInstance@@QAEXXZ:PROC ; CActorInstance::RefreshActorInstance
EXTRN	?GetPartItemID@CActorInstance@@QAEKK@Z:PROC	; CActorInstance::GetPartItemID
EXTRN	?SetMotionMode@CActorInstance@@QAEXH@Z:PROC	; CActorInstance::SetMotionMode
EXTRN	?GetMotionMode@CActorInstance@@QAEHXZ:PROC	; CActorInstance::GetMotionMode
EXTRN	?InterceptOnceMotion@CActorInstance@@QAE_NKMIM@Z:PROC ; CActorInstance::InterceptOnceMotion
EXTRN	?InterceptLoopMotion@CActorInstance@@QAE_NKM@Z:PROC ; CActorInstance::InterceptLoopMotion
EXTRN	?IsPushing@CActorInstance@@QAE_NXZ:PROC		; CActorInstance::IsPushing
EXTRN	?IsUsingSkill@CActorInstance@@QAEHXZ:PROC	; CActorInstance::IsUsingSkill
EXTRN	?CanCancelSkill@CActorInstance@@QAEHXZ:PROC	; CActorInstance::CanCancelSkill
EXTRN	?UpdateAdvancingPointInstance@CActorInstance@@QAEXXZ:PROC ; CActorInstance::UpdateAdvancingPointInstance
EXTRN	?AvoidObject@CActorInstance@@QAE_NABVCGraphicObjectInstance@@@Z:PROC ; CActorInstance::AvoidObject
EXTRN	?IsBlockObject@CActorInstance@@QAE_NABVCGraphicObjectInstance@@@Z:PROC ; CActorInstance::IsBlockObject
EXTRN	?BlockMovement@CActorInstance@@QAEXXZ:PROC	; CActorInstance::BlockMovement
EXTRN	?IsUsingMovingSkill@CActorInstance@@QAEHXZ:PROC	; CActorInstance::IsUsingMovingSkill
EXTRN	?IsActEmotion@CActorInstance@@QAEHXZ:PROC	; CActorInstance::IsActEmotion
EXTRN	?IsSleep@CActorInstance@@QAEHXZ:PROC		; CActorInstance::IsSleep
EXTRN	?IsParalysis@CActorInstance@@QAEHXZ:PROC	; CActorInstance::IsParalysis
EXTRN	?IsDead@CActorInstance@@QAEHXZ:PROC		; CActorInstance::IsDead
EXTRN	?IsStun@CActorInstance@@QAEHXZ:PROC		; CActorInstance::IsStun
EXTRN	?IsKnockDown@CActorInstance@@QAEHXZ:PROC	; CActorInstance::IsKnockDown
EXTRN	?DieEnd@CActorInstance@@QAEXXZ:PROC		; CActorInstance::DieEnd
EXTRN	?SetBattleHitEffect@CActorInstance@@QAEXK@Z:PROC ; CActorInstance::SetBattleHitEffect
EXTRN	?GetMovementVectorRef@CActorInstance@@QAEABUD3DXVECTOR3@@XZ:PROC ; CActorInstance::GetMovementVectorRef
EXTRN	?SetCurPixelPosition@CActorInstance@@QAEXABUD3DXVECTOR3@@@Z:PROC ; CActorInstance::SetCurPixelPosition
EXTRN	?NEW_SetSrcPixelPosition@CActorInstance@@QAEXABUD3DXVECTOR3@@@Z:PROC ; CActorInstance::NEW_SetSrcPixelPosition
EXTRN	?NEW_SetDstPixelPosition@CActorInstance@@QAEXABUD3DXVECTOR3@@@Z:PROC ; CActorInstance::NEW_SetDstPixelPosition
EXTRN	?NEW_SetDstPixelPositionZ@CActorInstance@@QAEXM@Z:PROC ; CActorInstance::NEW_SetDstPixelPositionZ
EXTRN	?NEW_GetCurPixelPositionRef@CActorInstance@@QAEABUD3DXVECTOR3@@XZ:PROC ; CActorInstance::NEW_GetCurPixelPositionRef
EXTRN	?NEW_GetSrcPixelPositionRef@CActorInstance@@QAEABUD3DXVECTOR3@@XZ:PROC ; CActorInstance::NEW_GetSrcPixelPositionRef
EXTRN	?NEW_GetDstPixelPositionRef@CActorInstance@@QAEABUD3DXVECTOR3@@XZ:PROC ; CActorInstance::NEW_GetDstPixelPositionRef
EXTRN	?NEW_GetLastPixelPositionRef@CActorInstance@@QAEABUD3DXVECTOR3@@XZ:PROC ; CActorInstance::NEW_GetLastPixelPositionRef
EXTRN	?GetPixelPosition@CActorInstance@@QAEXPAUD3DXVECTOR3@@@Z:PROC ; CActorInstance::GetPixelPosition
EXTRN	?SetOwner@CActorInstance@@QAEXK@Z:PROC		; CActorInstance::SetOwner
EXTRN	?GetRotation@CActorInstance@@QAEMXZ:PROC	; CActorInstance::GetRotation
EXTRN	?GetTargetRotation@CActorInstance@@QAEMXZ:PROC	; CActorInstance::GetTargetRotation
EXTRN	?GetAdvancingRotation@CActorInstance@@QAEMXZ:PROC ; CActorInstance::GetAdvancingRotation
EXTRN	?SetRotation@CActorInstance@@QAEXM@Z:PROC	; CActorInstance::SetRotation
EXTRN	?SetAdvancingRotation@CActorInstance@@QAEXM@Z:PROC ; CActorInstance::SetAdvancingRotation
EXTRN	?IsMovement@CActorInstance@@QAEHXZ:PROC		; CActorInstance::IsMovement
EXTRN	?RestoreRenderMode@CActorInstance@@QAEXXZ:PROC	; CActorInstance::RestoreRenderMode
EXTRN	?SetBlendRenderMode@CActorInstance@@QAEXXZ:PROC	; CActorInstance::SetBlendRenderMode
EXTRN	?SetAlphaValue@CActorInstance@@QAEXM@Z:PROC	; CActorInstance::SetAlphaValue
EXTRN	?GetAlphaValue@CActorInstance@@QAEMXZ:PROC	; CActorInstance::GetAlphaValue
EXTRN	?BlendAlphaValue@CActorInstance@@QAEXMM@Z:PROC	; CActorInstance::BlendAlphaValue
EXTRN	?SetAddRenderMode@CActorInstance@@QAEXXZ:PROC	; CActorInstance::SetAddRenderMode
EXTRN	?SetAddColor@CActorInstance@@QAEXABUD3DXCOLOR@@@Z:PROC ; CActorInstance::SetAddColor
EXTRN	?SetModulateRenderMode@CActorInstance@@QAEXXZ:PROC ; CActorInstance::SetModulateRenderMode
EXTRN	?SetRenderMode@CActorInstance@@QAEXH@Z:PROC	; CActorInstance::SetRenderMode
EXTRN	?RenderTrace@CActorInstance@@QAEXXZ:PROC	; CActorInstance::RenderTrace
EXTRN	?RenderCollisionData@CActorInstance@@QAEXXZ:PROC ; CActorInstance::RenderCollisionData
EXTRN	?RenderToShadowMap@CActorInstance@@QAEXXZ:PROC	; CActorInstance::RenderToShadowMap
EXTRN	?IntersectDefendingSphere@CActorInstance@@QAE_NXZ:PROC ; CActorInstance::IntersectDefendingSphere
EXTRN	?CanFishing@CActorInstance@@QAE_NXZ:PROC	; CActorInstance::CanFishing
EXTRN	?IsFishing@CActorInstance@@QAEHXZ:PROC		; CActorInstance::IsFishing
EXTRN	?CanChangeTarget@CActorInstance@@QAE_NXZ:PROC	; CActorInstance::CanChangeTarget
EXTRN	?MountHorse@CActorInstance@@QAEXPAV1@@Z:PROC	; CActorInstance::MountHorse
EXTRN	?HORSE_MotionProcess@CActorInstance@@QAEXH@Z:PROC ; CActorInstance::HORSE_MotionProcess
EXTRN	?MotionProcess@CActorInstance@@QAEXH@Z:PROC	; CActorInstance::MotionProcess
EXTRN	?RotationProcess@CActorInstance@@QAEXXZ:PROC	; CActorInstance::RotationProcess
EXTRN	?PhysicsProcess@CActorInstance@@QAEXXZ:PROC	; CActorInstance::PhysicsProcess
EXTRN	?ComboProcess@CActorInstance@@QAEXXZ:PROC	; CActorInstance::ComboProcess
EXTRN	?AccumulationMovement@CActorInstance@@QAEXXZ:PROC ; CActorInstance::AccumulationMovement
EXTRN	?__OnSyncing@CActorInstance@@QAEXXZ:PROC	; CActorInstance::__OnSyncing
EXTRN	?__OnWaiting@CActorInstance@@QAEXXZ:PROC	; CActorInstance::__OnWaiting
EXTRN	?__OnMoving@CActorInstance@@QAEXXZ:PROC		; CActorInstance::__OnMoving
EXTRN	?EnableSkipCollision@CActorInstance@@QAEXXZ:PROC ; CActorInstance::EnableSkipCollision
EXTRN	?DisableSkipCollision@CActorInstance@@QAEXXZ:PROC ; CActorInstance::DisableSkipCollision
EXTRN	?__IsSyncing@CActorInstance@@QAE_NXZ:PROC	; CActorInstance::__IsSyncing
EXTRN	??0CAffectFlagContainer@@QAE@XZ:PROC		; CAffectFlagContainer::CAffectFlagContainer
EXTRN	??1CAffectFlagContainer@@QAE@XZ:PROC		; CAffectFlagContainer::~CAffectFlagContainer
EXTRN	?Clear@CAffectFlagContainer@@QAEXXZ:PROC	; CAffectFlagContainer::Clear
EXTRN	?CopyInstance@CAffectFlagContainer@@QAEXABV1@@Z:PROC ; CAffectFlagContainer::CopyInstance
EXTRN	?IsSet@CAffectFlagContainer@@QBE_NI@Z:PROC	; CAffectFlagContainer::IsSet
EXTRN	?ConvertToPosition@CAffectFlagContainer@@QBEXPAI0@Z:PROC ; CAffectFlagContainer::ConvertToPosition
EXTRN	?__AttachEffect@CInstanceBase@@IAEKI@Z:PROC	; CInstanceBase::__AttachEffect
EXTRN	?__DetachEffect@CInstanceBase@@IAEXK@Z:PROC	; CInstanceBase::__DetachEffect
EXTRN	?AttachTextTail@CInstanceBase@@QAEXXZ:PROC	; CInstanceBase::AttachTextTail
EXTRN	?DetachTextTail@CInstanceBase@@QAEXXZ:PROC	; CInstanceBase::DetachTextTail
EXTRN	?RefreshTextTail@CInstanceBase@@QAEXXZ:PROC	; CInstanceBase::RefreshTextTail
EXTRN	?RefreshTextTailTitle@CInstanceBase@@QAEXXZ:PROC ; CInstanceBase::RefreshTextTailTitle
EXTRN	?SetAttackSpeed@CInstanceBase@@QAEXI@Z:PROC	; CInstanceBase::SetAttackSpeed
EXTRN	?SetMoveSpeed@CInstanceBase@@QAEXI@Z:PROC	; CInstanceBase::SetMoveSpeed
EXTRN	?SetRotationSpeed@CInstanceBase@@QAEXM@Z:PROC	; CInstanceBase::SetRotationSpeed
EXTRN	?IsPVPInstance@CInstanceBase@@QAE_NAAV1@@Z:PROC	; CInstanceBase::IsPVPInstance
EXTRN	?IsAffect@CInstanceBase@@QAE_NI@Z:PROC		; CInstanceBase::IsAffect
EXTRN	?IsWaiting@CInstanceBase@@QAEHXZ:PROC		; CInstanceBase::IsWaiting
EXTRN	?IsWalking@CInstanceBase@@QAEHXZ:PROC		; CInstanceBase::IsWalking
EXTRN	?SetAdvancingRotation@CInstanceBase@@QAEXM@Z:PROC ; CInstanceBase::SetAdvancingRotation
EXTRN	?EndWalking@CInstanceBase@@QAEXM@Z:PROC		; CInstanceBase::EndWalking
EXTRN	?EndWalkingWithoutBlending@CInstanceBase@@QAEXXZ:PROC ; CInstanceBase::EndWalkingWithoutBlending
EXTRN	?SetEventHandler@CInstanceBase@@QAEXPAVIEventHandler@CActorInstance@@@Z:PROC ; CInstanceBase::SetEventHandler
EXTRN	?NEW_UseSkill@CInstanceBase@@QAE_NIII_N@Z:PROC	; CInstanceBase::NEW_UseSkill
EXTRN	?NEW_GetDistanceFromDestPixelPosition@CInstanceBase@@QAEMABUD3DXVECTOR3@@@Z:PROC ; CInstanceBase::NEW_GetDistanceFromDestPixelPosition
EXTRN	?NEW_GetDistanceFromDestInstance@CInstanceBase@@QAEMAAV1@@Z:PROC ; CInstanceBase::NEW_GetDistanceFromDestInstance
EXTRN	?NEW_GetAdvancingRotationFromPixelPosition@CInstanceBase@@QAEMABUD3DXVECTOR3@@0@Z:PROC ; CInstanceBase::NEW_GetAdvancingRotationFromPixelPosition
EXTRN	?NEW_SetPixelPosition@CInstanceBase@@QAEXABUD3DXVECTOR3@@@Z:PROC ; CInstanceBase::NEW_SetPixelPosition
EXTRN	?RunNormalAttack@CInstanceBase@@QAEXM@Z:PROC	; CInstanceBase::RunNormalAttack
EXTRN	?RunComboAttack@CInstanceBase@@QAEXMK@Z:PROC	; CInstanceBase::RunComboAttack
EXTRN	?SCRIPT_SetPixelPosition@CInstanceBase@@QAEXMM@Z:PROC ; CInstanceBase::SCRIPT_SetPixelPosition
EXTRN	?NEW_GetPixelPosition@CInstanceBase@@QAEXPAUD3DXVECTOR3@@@Z:PROC ; CInstanceBase::NEW_GetPixelPosition
EXTRN	?NEW_LookAtDestInstance@CInstanceBase@@QAEXAAV1@@Z:PROC ; CInstanceBase::NEW_LookAtDestInstance
EXTRN	?GetRotation@CInstanceBase@@QAEMXZ:PROC		; CInstanceBase::GetRotation
EXTRN	?GetAdvancingRotation@CInstanceBase@@QAEMXZ:PROC ; CInstanceBase::GetAdvancingRotation
EXTRN	?SetRotation@CInstanceBase@@QAEXM@Z:PROC	; CInstanceBase::SetRotation
EXTRN	?BlendRotation@CInstanceBase@@QAEXMM@Z:PROC	; CInstanceBase::BlendRotation
EXTRN	?SetMotionMode@CInstanceBase@@QAEXH@Z:PROC	; CInstanceBase::SetMotionMode
EXTRN	?__ClearAffects@CInstanceBase@@QAEXXZ:PROC	; CInstanceBase::__ClearAffects
EXTRN	?SetAffectFlagContainer@CInstanceBase@@QAEXABVCAffectFlagContainer@@@Z:PROC ; CInstanceBase::SetAffectFlagContainer
EXTRN	?__EnableChangingTCPState@CInstanceBase@@IAEXXZ:PROC ; CInstanceBase::__EnableChangingTCPState
EXTRN	?__ComboProcess@CInstanceBase@@IAEXXZ:PROC	; CInstanceBase::__ComboProcess
EXTRN	?AttackProcess@CInstanceBase@@IAEXXZ:PROC	; CInstanceBase::AttackProcess
EXTRN	?StartWalking@CInstanceBase@@IAEXXZ:PROC	; CInstanceBase::StartWalking
EXTRN	?__AttachSelectEffect@CInstanceBase@@IAEXXZ:PROC ; CInstanceBase::__AttachSelectEffect
EXTRN	?__DetachSelectEffect@CInstanceBase@@IAEXXZ:PROC ; CInstanceBase::__DetachSelectEffect
EXTRN	?__AttachTargetEffect@CInstanceBase@@IAEXXZ:PROC ; CInstanceBase::__AttachTargetEffect
EXTRN	?__DetachTargetEffect@CInstanceBase@@IAEXXZ:PROC ; CInstanceBase::__DetachTargetEffect
EXTRN	?__AttachEmpireEffect@CInstanceBase@@IAEXK@Z:PROC ; CInstanceBase::__AttachEmpireEffect
EXTRN	?__EffectContainer_Initialize@CInstanceBase@@IAEXXZ:PROC ; CInstanceBase::__EffectContainer_Initialize
EXTRN	?__EffectContainer_Destroy@CInstanceBase@@IAEXXZ:PROC ; CInstanceBase::__EffectContainer_Destroy
EXTRN	?__StoneSmoke_Inialize@CInstanceBase@@IAEXXZ:PROC ; CInstanceBase::__StoneSmoke_Inialize
EXTRN	?__StoneSmoke_Destroy@CInstanceBase@@IAEXXZ:PROC ; CInstanceBase::__StoneSmoke_Destroy
EXTRN	?ProcessDamage@CInstanceBase@@IAEXXZ:PROC	; CInstanceBase::ProcessDamage
EXTRN	?__FindDUELKey@CInstanceBase@@KA_NKK@Z:PROC	; CInstanceBase::__FindDUELKey
EXTRN	?GetEventHandlerRef@CInstanceBase@@IAEAAVIEventHandler@CActorInstance@@XZ:PROC ; CInstanceBase::GetEventHandlerRef
EXTRN	??_ECInstanceBase@@UAEPAXI@Z:PROC		; CInstanceBase::`vector deleting destructor'
EXTRN	?GetHeight@CMapManager@@QAEMMM@Z:PROC		; CMapManager::GetHeight
EXTRN	?GetWaterHeight@CMapManager@@QAE_NHHPAJ@Z:PROC	; CMapManager::GetWaterHeight
EXTRN	?GetShadowMapColor@CMapManager@@QAEKMM@Z:PROC	; CMapManager::GetShadowMapColor
EXTRN	?isAttrOn@CMapManager@@QAE_NMME@Z:PROC		; CMapManager::isAttrOn
EXTRN	?isAttrOn@CMapManager@@QAE_NHHE@Z:PROC		; CMapManager::isAttrOn
EXTRN	?GetName@CPythonNonPlayer@@QAE_NKPAPBD@Z:PROC	; CPythonNonPlayer::GetName
EXTRN	?GetInstanceType@CPythonNonPlayer@@QAE_NKPAE@Z:PROC ; CPythonNonPlayer::GetInstanceType
EXTRN	?GetMonsterColor@CPythonNonPlayer@@QAEKK@Z:PROC	; CPythonNonPlayer::GetMonsterColor
EXTRN	?IsObserverMode@CPythonPlayer@@QAE_NXZ:PROC	; CPythonPlayer::IsObserverMode
EXTRN	?ClearMainInstance@CPythonCharacterManager@@QAEXXZ:PROC ; CPythonCharacterManager::ClearMainInstance
EXTRN	?SetMainInstance@CPythonCharacterManager@@QAE_NK@Z:PROC ; CPythonCharacterManager::SetMainInstance
EXTRN	?GetMainInstancePtr@CPythonCharacterManager@@QAEPAVCInstanceBase@@XZ:PROC ; CPythonCharacterManager::GetMainInstancePtr
EXTRN	?GetItemDataPointer@CItemManager@@QAEHKPAPAVCItemData@@@Z:PROC ; CItemManager::GetItemDataPointer
EXTRN	?ELTimer_GetServerFrameMSec@@YAKXZ:PROC		; ELTimer_GetServerFrameMSec
EXTRN	@__security_check_cookie@4:PROC
EXTRN	__CIfmod:PROC
EXTRN	__CxxThrowException@8:PROC
EXTRN	___CxxFrameHandler3:PROC
EXTRN	__libm_sse2_sqrt_precise:PROC
EXTRN	_memchr:PROC
EXTRN	_memcpy:PROC
EXTRN	_memmove:PROC
EXTRN	_memset:PROC
EXTRN	__Init_thread_epoch:DWORD
EXTRN	?ms_adwCRCAffectEffect@CInstanceBase@@1PAKA:BYTE ; CInstanceBase::ms_adwCRCAffectEffect
EXTRN	?ms_fDustGap@CInstanceBase@@1MA:DWORD		; CInstanceBase::ms_fDustGap
EXTRN	?ms_fHorseDustGap@CInstanceBase@@1MA:DWORD	; CInstanceBase::ms_fHorseDustGap
EXTRN	___security_cookie:DWORD
EXTRN	__fltused:DWORD
EXTRN	__tls_array:DWORD
EXTRN	__tls_index:DWORD
;	COMDAT ?_OptionsStorage@?1??__local_stdio_printf_options@@9@4_KA
_BSS	SEGMENT
?_OptionsStorage@?1??__local_stdio_printf_options@@9@4_KA DQ 01H DUP (?) ; `__local_stdio_printf_options'::`2'::_OptionsStorage
_BSS	ENDS
;	COMDAT ?ms_singleton@?$CSingleton@VCStateManager@@@@0PAVCStateManager@@A
_BSS	SEGMENT
?ms_singleton@?$CSingleton@VCStateManager@@@@0PAVCStateManager@@A DD 01H DUP (?) ; CSingleton<CStateManager>::ms_singleton
_BSS	ENDS
;	COMDAT ?ms_singleton@?$CSingleton@VCPythonBackground@@@@0PAVCPythonBackground@@A
_BSS	SEGMENT
?ms_singleton@?$CSingleton@VCPythonBackground@@@@0PAVCPythonBackground@@A DD 01H DUP (?) ; CSingleton<CPythonBackground>::ms_singleton
_BSS	ENDS
;	COMDAT ?ms_singleton@?$CSingleton@VCPythonNonPlayer@@@@0PAVCPythonNonPlayer@@A
_BSS	SEGMENT
?ms_singleton@?$CSingleton@VCPythonNonPlayer@@@@0PAVCPythonNonPlayer@@A DD 01H DUP (?) ; CSingleton<CPythonNonPlayer>::ms_singleton
_BSS	ENDS
;	COMDAT ?ms_singleton@?$TAbstractSingleton@VIAbstractPlayer@@@@0PAVIAbstractPlayer@@A
_BSS	SEGMENT
?ms_singleton@?$TAbstractSingleton@VIAbstractPlayer@@@@0PAVIAbstractPlayer@@A DD 01H DUP (?) ; TAbstractSingleton<IAbstractPlayer>::ms_singleton
_BSS	ENDS
;	COMDAT ?ms_singleton@?$CSingleton@VCPythonPlayer@@@@0PAVCPythonPlayer@@A
_BSS	SEGMENT
?ms_singleton@?$CSingleton@VCPythonPlayer@@@@0PAVCPythonPlayer@@A DD 01H DUP (?) ; CSingleton<CPythonPlayer>::ms_singleton
_BSS	ENDS
;	COMDAT ?ms_singleton@?$CSingleton@VCPythonCharacterManager@@@@0PAVCPythonCharacterManager@@A
_BSS	SEGMENT
?ms_singleton@?$CSingleton@VCPythonCharacterManager@@@@0PAVCPythonCharacterManager@@A DD 01H DUP (?) ; CSingleton<CPythonCharacterManager>::ms_singleton
_BSS	ENDS
;	COMDAT ?ms_singleton@?$TAbstractSingleton@VIAbstractApplication@@@@0PAVIAbstractApplication@@A
_BSS	SEGMENT
?ms_singleton@?$TAbstractSingleton@VIAbstractApplication@@@@0PAVIAbstractApplication@@A DD 01H DUP (?) ; TAbstractSingleton<IAbstractApplication>::ms_singleton
_BSS	ENDS
;	COMDAT ?ms_singleton@?$CSingleton@VCItemManager@@@@0PAVCItemManager@@A
_BSS	SEGMENT
?ms_singleton@?$CSingleton@VCItemManager@@@@0PAVCItemManager@@A DD 01H DUP (?) ; CSingleton<CItemManager>::ms_singleton
_BSS	ENDS
;	COMDAT ?s_kScreen@?9??Render@CInstanceBase@@QAEXXZ@4VCScreen@@A
_BSS	SEGMENT
?s_kScreen@?9??Render@CInstanceBase@@QAEXXZ@4VCScreen@@A DD 01H DUP (?) ; `CInstanceBase::Render'::`10'::s_kScreen
_BSS	ENDS
;	COMDAT ?$TSS0@?9??Render@CInstanceBase@@QAEXXZ@4HA
_BSS	SEGMENT
?$TSS0@?9??Render@CInstanceBase@@QAEXXZ@4HA DD 01H DUP (?) ; `CInstanceBase::Render'::`10'::$TSS0
_BSS	ENDS
CRT$XCU	SEGMENT
?gs_kActorInstBG$initializer$@@3P6AXXZA DD FLAT:??__Egs_kActorInstBG@@YAXXZ ; gs_kActorInstBG$initializer$
CRT$XCU	ENDS
;	COMDAT __xmm@80000000800000008000000080000000
CONST	SEGMENT
__xmm@80000000800000008000000080000000 DB 00H, 00H, 00H, 080H, 00H, 00H, 00H
	DB	080H, 00H, 00H, 00H, 080H, 00H, 00H, 00H, 080H
CONST	ENDS
;	COMDAT __xmm@41f00000000000000000000000000000
CONST	SEGMENT
__xmm@41f00000000000000000000000000000 DB 00H, 00H, 00H, 00H, 00H, 00H, 00H
	DB	00H, 00H, 00H, 00H, 00H, 00H, 00H, 0f0H, 'A'
CONST	ENDS
;	COMDAT __xmm@0000c41c0000c41b0000c41a0000c419
CONST	SEGMENT
__xmm@0000c41c0000c41b0000c41a0000c419 DB 019H, 0c4H, 00H, 00H, 01aH, 0c4H
	DB	00H, 00H, 01bH, 0c4H, 00H, 00H, 01cH, 0c4H, 00H, 00H
CONST	ENDS
;	COMDAT __real@c2c80000
CONST	SEGMENT
__real@c2c80000 DD 0c2c80000r			; -100
CONST	ENDS
;	COMDAT __real@451c4000
CONST	SEGMENT
__real@451c4000 DD 0451c4000r			; 2500
CONST	ENDS
;	COMDAT __real@45160000
CONST	SEGMENT
__real@45160000 DD 045160000r			; 2400
CONST	ENDS
;	COMDAT __real@44fa0000
CONST	SEGMENT
__real@44fa0000 DD 044fa0000r			; 2000
CONST	ENDS
;	COMDAT __real@447a0000
CONST	SEGMENT
__real@447a0000 DD 0447a0000r			; 1000
CONST	ENDS
;	COMDAT __real@43b40000
CONST	SEGMENT
__real@43b40000 DD 043b40000r			; 360
CONST	ENDS
;	COMDAT __real@42c80000
CONST	SEGMENT
__real@42c80000 DD 042c80000r			; 100
CONST	ENDS
;	COMDAT __real@42480000
CONST	SEGMENT
__real@42480000 DD 042480000r			; 50
CONST	ENDS
;	COMDAT __real@4076800000000000
CONST	SEGMENT
__real@4076800000000000 DQ 04076800000000000r	; 360
CONST	ENDS
;	COMDAT __real@3f800000
CONST	SEGMENT
__real@3f800000 DD 03f800000r			; 1
CONST	ENDS
;	COMDAT __real@3b808081
CONST	SEGMENT
__real@3b808081 DD 03b808081r			; 0.00392157
CONST	ENDS
;	COMDAT ??_R1A@?0A@EA@CInstanceBase@@8
rdata$r	SEGMENT
??_R1A@?0A@EA@CInstanceBase@@8 DD FLAT:??_R0?AVCInstanceBase@@@8 ; CInstanceBase::`RTTI Base Class Descriptor at (0,-1,0,64)'
	DD	00H
	DD	00H
	DD	0ffffffffH
	DD	00H
	DD	040H
	DD	FLAT:??_R3CInstanceBase@@8
rdata$r	ENDS
;	COMDAT ??_R2CInstanceBase@@8
rdata$r	SEGMENT
??_R2CInstanceBase@@8 DD FLAT:??_R1A@?0A@EA@CInstanceBase@@8 ; CInstanceBase::`RTTI Base Class Array'
rdata$r	ENDS
;	COMDAT ??_R3CInstanceBase@@8
rdata$r	SEGMENT
??_R3CInstanceBase@@8 DD 00H				; CInstanceBase::`RTTI Class Hierarchy Descriptor'
	DD	00H
	DD	01H
	DD	FLAT:??_R2CInstanceBase@@8
rdata$r	ENDS
;	COMDAT ??_R0?AVCInstanceBase@@@8
data$rs	SEGMENT
??_R0?AVCInstanceBase@@@8 DD FLAT:??_7type_info@@6B@	; CInstanceBase `RTTI Type Descriptor'
	DD	00H
	DB	'.?AVCInstanceBase@@', 00H
data$rs	ENDS
;	COMDAT ??_R4CInstanceBase@@6B@
rdata$r	SEGMENT
??_R4CInstanceBase@@6B@ DD 00H				; CInstanceBase::`RTTI Complete Object Locator'
	DD	00H
	DD	00H
	DD	FLAT:??_R0?AVCInstanceBase@@@8
	DD	FLAT:??_R3CInstanceBase@@8
rdata$r	ENDS
;	COMDAT ??_C@_0O@NKNMEGII@list?5too?5long@
CONST	SEGMENT
??_C@_0O@NKNMEGII@list?5too?5long@ DB 'list too long', 00H ; `string'
CONST	ENDS
;	COMDAT ??_C@_0EG@MNIPPABI@CPythonCharacterManager?3?3Change@
CONST	SEGMENT
??_C@_0EG@MNIPPABI@CPythonCharacterManager?3?3Change@ DB 'CPythonCharacte'
	DB	'rManager::ChangeArmor - SetRace VID[%d] Race[%d] ERROR', 00H ; `string'
CONST	ENDS
;	COMDAT ??_C@_0DM@EIDAANLK@vid?$DN?$CFd?5?$LP?r?A?w?$MA?O?5?$LM?v?5?$LO?x?$LE?B?5?$LL?s?E?B?$LG?s?5?$LN?$LK@
CONST	SEGMENT
??_C@_0DM@EIDAANLK@vid?$DN?$CFd?5?$LP?r?A?w?$MA?O?5?$LM?v?5?$LO?x?$LE?B?5?$LL?s?E?B?$LG?s?5?$LN?$LK@ DB 'v'
	DB	'id=%d ', 0bfH, 0f2H, 0c1H, 0f7H, 0c0H, 0cfH, ' ', 0bcH, 0f6H, ' '
	DB	0beH, 0f8H, 0b4H, 0c2H, ' ', 0bbH, 0f3H, 0c5H, 0c2H, 0b6H, 0f3H
	DB	' ', 0bdH, 0baH, 0c5H, 0b5H, ' IsDead=%d, IsKnockDown=%d', 00H ; `string'
CONST	ENDS
;	COMDAT ??_C@_0EG@IFLKAGDE@CInstanceBase?3?3PushTCPState?5?G?C?$LH@
CONST	SEGMENT
??_C@_0EG@IFLKAGDE@CInstanceBase?3?3PushTCPState?5?G?C?$LH@ DB 'CInstance'
	DB	'Base::PushTCPState ', 0c7H, 0c3H, 0b7H, 0b9H, 0c0H, 0ccH, 0beH
	DB	0eeH, ' ', 0c0H, 0daH, 0bdH, 0c5H, 0bfH, 0a1H, 0b0H, 0d4H, ' ', 0c0H
	DB	0ccH, 0b5H, 0bfH, 0c6H, 0d0H, 0c5H, 0b6H, 0c0H, 0baH, ' ', 0bfH
	DB	0c0H, 0b8H, 0e9H, ' ', 0beH, 0c8H, 0b5H, 0c8H, 0b4H, 0d9H, '!', 00H ; `string'
CONST	ENDS
;	COMDAT ??_C@_0BP@PGINAIMI@Inst?5?9?5UC?5?$CFd?0?5RC?5?$CFd?5Pool?5?9?5?$CFd?5@
CONST	SEGMENT
??_C@_0BP@PGINAIMI@Inst?5?9?5UC?5?$CFd?0?5RC?5?$CFd?5Pool?5?9?5?$CFd?5@ DB 'I'
	DB	'nst - UC %d, RC %d Pool - %d ', 00H		; `string'
CONST	ENDS
;	COMDAT ??_C@_0EL@PHAIMNFF@CInstanceBase?3?3__EnableSkipColl@
CONST	SEGMENT
??_C@_0EL@PHAIMNFF@CInstanceBase?3?3__EnableSkipColl@ DB 'CInstanceBase::'
	DB	'__EnableSkipCollision - ', 0c0H, 0daH, 0bdH, 0c5H, 0c0H, 0baH
	DB	' ', 0c3H, 0e6H, 0b5H, 0b9H, 0b0H, 0cbH, 0bbH, 0e7H, 0bdH, 0baH
	DB	0c5H, 0b5H, 0c0H, 0ccH, ' ', 0b5H, 0c7H, 0b8H, 0e9H, ' ', 0beH
	DB	0c8H, 0b5H, 0c8H, 0b4H, 0d9H, '!!', 00H	; `string'
CONST	ENDS
;	COMDAT ??_C@_06PNAKCKLH@saddle@
CONST	SEGMENT
??_C@_06PNAKCKLH@saddle@ DB 'saddle', 00H		; `string'
CONST	ENDS
;	COMDAT ??_7CInstanceBase@@6B@
CONST	SEGMENT
??_7CInstanceBase@@6B@ DD FLAT:??_R4CInstanceBase@@6B@	; CInstanceBase::`vftable'
	DD	FLAT:??_ECInstanceBase@@UAEPAXI@Z
CONST	ENDS
_DATA	SEGMENT
?ms_kPool@CInstanceBase@@2V?$CDynamicPool@VCInstanceBase@@@@A DD FLAT:??_7?$CDynamicPool@VCInstanceBase@@@@6B@ ; CInstanceBase::ms_kPool
	DD	00H
	DD	00H
	DD	00H
	DD	00H
	DD	00H
	DD	00H
	DD	00H
	DD	00H
?gs_kActorInstBG@@3VCActorInstanceBackground@@A DD FLAT:??_7CActorInstanceBackground@@6B@ ; gs_kActorInstBG
_DATA	ENDS
;	COMDAT ?ms_kPool@?$CPooledObject@VCRotationDecorator@NEffectUpdateDecorator@@@@1V?$CDynamicPoolEx@VCRotationDecorator@NEffectUpdateDecorator@@@@A
_DATA	SEGMENT
?ms_kPool@?$CPooledObject@VCRotationDecorator@NEffectUpdateDecorator@@@@1V?$CDynamicPoolEx@VCRotationDecorator@NEffectUpdateDecorator@@@@A DD FLAT:??_7?$CDynamicPoolEx@VCRotationDecorator@NEffectUpdateDecorator@@@@6B@ ; CPooledObject<NEffectUpdateDecorator::CRotationDecorator>::ms_kPool
	DD	00H
	DD	00H
	DD	00H
	DD	00H
	DD	00H
	DD	00H
	DD	00H
	DD	00H
_DATA	ENDS
;	COMDAT ?ms_kPool@?$CPooledObject@VCGravityDecorator@NEffectUpdateDecorator@@@@1V?$CDynamicPoolEx@VCGravityDecorator@NEffectUpdateDecorator@@@@A
_DATA	SEGMENT
?ms_kPool@?$CPooledObject@VCGravityDecorator@NEffectUpdateDecorator@@@@1V?$CDynamicPoolEx@VCGravityDecorator@NEffectUpdateDecorator@@@@A DD FLAT:??_7?$CDynamicPoolEx@VCGravityDecorator@NEffectUpdateDecorator@@@@6B@ ; CPooledObject<NEffectUpdateDecorator::CGravityDecorator>::ms_kPool
	DD	00H
	DD	00H
	DD	00H
	DD	00H
	DD	00H
	DD	00H
	DD	00H
	DD	00H
_DATA	ENDS
;	COMDAT ?ms_kPool@?$CPooledObject@VCAirResistanceDecorator@NEffectUpdateDecorator@@@@1V?$CDynamicPoolEx@VCAirResistanceDecorator@NEffectUpdateDecorator@@@@A
_DATA	SEGMENT
?ms_kPool@?$CPooledObject@VCAirResistanceDecorator@NEffectUpdateDecorator@@@@1V?$CDynamicPoolEx@VCAirResistanceDecorator@NEffectUpdateDecorator@@@@A DD FLAT:??_7?$CDynamicPoolEx@VCAirResistanceDecorator@NEffectUpdateDecorator@@@@6B@ ; CPooledObject<NEffectUpdateDecorator::CAirResistanceDecorator>::ms_kPool
	DD	00H
	DD	00H
	DD	00H
	DD	00H
	DD	00H
	DD	00H
	DD	00H
	DD	00H
_DATA	ENDS
;	COMDAT ?ms_kPool@?$CPooledObject@VCTextureAnimationRandomDecorator@NEffectUpdateDecorator@@@@1V?$CDynamicPoolEx@VCTextureAnimationRandomDecorator@NEffectUpdateDecorator@@@@A
_DATA	SEGMENT
?ms_kPool@?$CPooledObject@VCTextureAnimationRandomDecorator@NEffectUpdateDecorator@@@@1V?$CDynamicPoolEx@VCTextureAnimationRandomDecorator@NEffectUpdateDecorator@@@@A DD FLAT:??_7?$CDynamicPoolEx@VCTextureAnimationRandomDecorator@NEffectUpdateDecorator@@@@6B@ ; CPooledObject<NEffectUpdateDecorator::CTextureAnimationRandomDecorator>::ms_kPool
	DD	00H
	DD	00H
	DD	00H
	DD	00H
	DD	00H
	DD	00H
	DD	00H
	DD	00H
_DATA	ENDS
;	COMDAT ?ms_kPool@?$CPooledObject@VCTextureAnimationCCWDecorator@NEffectUpdateDecorator@@@@1V?$CDynamicPoolEx@VCTextureAnimationCCWDecorator@NEffectUpdateDecorator@@@@A
_DATA	SEGMENT
?ms_kPool@?$CPooledObject@VCTextureAnimationCCWDecorator@NEffectUpdateDecorator@@@@1V?$CDynamicPoolEx@VCTextureAnimationCCWDecorator@NEffectUpdateDecorator@@@@A DD FLAT:??_7?$CDynamicPoolEx@VCTextureAnimationCCWDecorator@NEffectUpdateDecorator@@@@6B@ ; CPooledObject<NEffectUpdateDecorator::CTextureAnimationCCWDecorator>::ms_kPool
	DD	00H
	DD	00H
	DD	00H
	DD	00H
	DD	00H
	DD	00H
	DD	00H
	DD	00H
_DATA	ENDS
;	COMDAT ?ms_kPool@?$CPooledObject@VCTextureAnimationCWDecorator@NEffectUpdateDecorator@@@@1V?$CDynamicPoolEx@VCTextureAnimationCWDecorator@NEffectUpdateDecorator@@@@A
_DATA	SEGMENT
?ms_kPool@?$CPooledObject@VCTextureAnimationCWDecorator@NEffectUpdateDecorator@@@@1V?$CDynamicPoolEx@VCTextureAnimationCWDecorator@NEffectUpdateDecorator@@@@A DD FLAT:??_7?$CDynamicPoolEx@VCTextureAnimationCWDecorator@NEffectUpdateDecorator@@@@6B@ ; CPooledObject<NEffectUpdateDecorator::CTextureAnimationCWDecorator>::ms_kPool
	DD	00H
	DD	00H
	DD	00H
	DD	00H
	DD	00H
	DD	00H
	DD	00H
	DD	00H
_DATA	ENDS
;	COMDAT ?ms_kPool@?$CPooledObject@VCNullDecorator@NEffectUpdateDecorator@@@@1V?$CDynamicPoolEx@VCNullDecorator@NEffectUpdateDecorator@@@@A
_DATA	SEGMENT
?ms_kPool@?$CPooledObject@VCNullDecorator@NEffectUpdateDecorator@@@@1V?$CDynamicPoolEx@VCNullDecorator@NEffectUpdateDecorator@@@@A DD FLAT:??_7?$CDynamicPoolEx@VCNullDecorator@NEffectUpdateDecorator@@@@6B@ ; CPooledObject<NEffectUpdateDecorator::CNullDecorator>::ms_kPool
	DD	00H
	DD	00H
	DD	00H
	DD	00H
	DD	00H
	DD	00H
	DD	00H
	DD	00H
_DATA	ENDS
;	COMDAT ?ms_kPool@?$CPooledObject@VCHeaderDecorator@NEffectUpdateDecorator@@@@1V?$CDynamicPoolEx@VCHeaderDecorator@NEffectUpdateDecorator@@@@A
_DATA	SEGMENT
?ms_kPool@?$CPooledObject@VCHeaderDecorator@NEffectUpdateDecorator@@@@1V?$CDynamicPoolEx@VCHeaderDecorator@NEffectUpdateDecorator@@@@A DD FLAT:??_7?$CDynamicPoolEx@VCHeaderDecorator@NEffectUpdateDecorator@@@@6B@ ; CPooledObject<NEffectUpdateDecorator::CHeaderDecorator>::ms_kPool
	DD	00H
	DD	00H
	DD	00H
	DD	00H
	DD	00H
	DD	00H
	DD	00H
	DD	00H
_DATA	ENDS
;	COMDAT ??_R1A@?0A@EA@bad_array_new_length@std@@8
rdata$r	SEGMENT
??_R1A@?0A@EA@bad_array_new_length@std@@8 DD FLAT:??_R0?AVbad_array_new_length@std@@@8 ; std::bad_array_new_length::`RTTI Base Class Descriptor at (0,-1,0,64)'
	DD	02H
	DD	00H
	DD	0ffffffffH
	DD	00H
	DD	040H
	DD	FLAT:??_R3bad_array_new_length@std@@8
rdata$r	ENDS
;	COMDAT ??_R2bad_array_new_length@std@@8
rdata$r	SEGMENT
??_R2bad_array_new_length@std@@8 DD FLAT:??_R1A@?0A@EA@bad_array_new_length@std@@8 ; std::bad_array_new_length::`RTTI Base Class Array'
	DD	FLAT:??_R1A@?0A@EA@bad_alloc@std@@8
	DD	FLAT:??_R1A@?0A@EA@exception@std@@8
rdata$r	ENDS
;	COMDAT ??_R3bad_array_new_length@std@@8
rdata$r	SEGMENT
??_R3bad_array_new_length@std@@8 DD 00H			; std::bad_array_new_length::`RTTI Class Hierarchy Descriptor'
	DD	00H
	DD	03H
	DD	FLAT:??_R2bad_array_new_length@std@@8
rdata$r	ENDS
;	COMDAT ??_R4bad_array_new_length@std@@6B@
rdata$r	SEGMENT
??_R4bad_array_new_length@std@@6B@ DD 00H		; std::bad_array_new_length::`RTTI Complete Object Locator'
	DD	00H
	DD	00H
	DD	FLAT:??_R0?AVbad_array_new_length@std@@@8
	DD	FLAT:??_R3bad_array_new_length@std@@8
rdata$r	ENDS
;	COMDAT ??_R1A@?0A@EA@bad_alloc@std@@8
rdata$r	SEGMENT
??_R1A@?0A@EA@bad_alloc@std@@8 DD FLAT:??_R0?AVbad_alloc@std@@@8 ; std::bad_alloc::`RTTI Base Class Descriptor at (0,-1,0,64)'
	DD	01H
	DD	00H
	DD	0ffffffffH
	DD	00H
	DD	040H
	DD	FLAT:??_R3bad_alloc@std@@8
rdata$r	ENDS
;	COMDAT ??_R2bad_alloc@std@@8
rdata$r	SEGMENT
??_R2bad_alloc@std@@8 DD FLAT:??_R1A@?0A@EA@bad_alloc@std@@8 ; std::bad_alloc::`RTTI Base Class Array'
	DD	FLAT:??_R1A@?0A@EA@exception@std@@8
rdata$r	ENDS
;	COMDAT ??_R3bad_alloc@std@@8
rdata$r	SEGMENT
??_R3bad_alloc@std@@8 DD 00H				; std::bad_alloc::`RTTI Class Hierarchy Descriptor'
	DD	00H
	DD	02H
	DD	FLAT:??_R2bad_alloc@std@@8
rdata$r	ENDS
;	COMDAT ??_R4bad_alloc@std@@6B@
rdata$r	SEGMENT
??_R4bad_alloc@std@@6B@ DD 00H				; std::bad_alloc::`RTTI Complete Object Locator'
	DD	00H
	DD	00H
	DD	FLAT:??_R0?AVbad_alloc@std@@@8
	DD	FLAT:??_R3bad_alloc@std@@8
rdata$r	ENDS
;	COMDAT ??_R1A@?0A@EA@exception@std@@8
rdata$r	SEGMENT
??_R1A@?0A@EA@exception@std@@8 DD FLAT:??_R0?AVexception@std@@@8 ; std::exception::`RTTI Base Class Descriptor at (0,-1,0,64)'
	DD	00H
	DD	00H
	DD	0ffffffffH
	DD	00H
	DD	040H
	DD	FLAT:??_R3exception@std@@8
rdata$r	ENDS
;	COMDAT ??_R2exception@std@@8
rdata$r	SEGMENT
??_R2exception@std@@8 DD FLAT:??_R1A@?0A@EA@exception@std@@8 ; std::exception::`RTTI Base Class Array'
rdata$r	ENDS
;	COMDAT ??_R3exception@std@@8
rdata$r	SEGMENT
??_R3exception@std@@8 DD 00H				; std::exception::`RTTI Class Hierarchy Descriptor'
	DD	00H
	DD	01H
	DD	FLAT:??_R2exception@std@@8
rdata$r	ENDS
;	COMDAT ??_R4exception@std@@6B@
rdata$r	SEGMENT
??_R4exception@std@@6B@ DD 00H				; std::exception::`RTTI Complete Object Locator'
	DD	00H
	DD	00H
	DD	FLAT:??_R0?AVexception@std@@@8
	DD	FLAT:??_R3exception@std@@8
rdata$r	ENDS
;	COMDAT ??_C@_0BA@FOIKENOD@vector?5too?5long@
CONST	SEGMENT
??_C@_0BA@FOIKENOD@vector?5too?5long@ DB 'vector too long', 00H ; `string'
CONST	ENDS
;	COMDAT ??_C@_00CNPNBAHC@@
CONST	SEGMENT
??_C@_00CNPNBAHC@@ DB 00H				; `string'
CONST	ENDS
;	COMDAT ??_C@_0BA@JFNIOLAK@string?5too?5long@
CONST	SEGMENT
??_C@_0BA@JFNIOLAK@string?5too?5long@ DB 'string too long', 00H ; `string'
CONST	ENDS
;	COMDAT __CT??_R0?AVexception@std@@@8??0exception@std@@QAE@ABV01@@Z12
xdata$x	SEGMENT
__CT??_R0?AVexception@std@@@8??0exception@std@@QAE@ABV01@@Z12 DD 00H
	DD	FLAT:??_R0?AVexception@std@@@8
	DD	00H
	DD	0ffffffffH
	ORG $+4
	DD	0cH
	DD	FLAT:??0exception@std@@QAE@ABV01@@Z
xdata$x	ENDS
;	COMDAT ??_R0?AVexception@std@@@8
data$r	SEGMENT
??_R0?AVexception@std@@@8 DD FLAT:??_7type_info@@6B@	; std::exception `RTTI Type Descriptor'
	DD	00H
	DB	'.?AVexception@std@@', 00H
data$r	ENDS
;	COMDAT __CT??_R0?AVbad_alloc@std@@@8??0bad_alloc@std@@QAE@ABV01@@Z12
xdata$x	SEGMENT
__CT??_R0?AVbad_alloc@std@@@8??0bad_alloc@std@@QAE@ABV01@@Z12 DD 010H
	DD	FLAT:??_R0?AVbad_alloc@std@@@8
	DD	00H
	DD	0ffffffffH
	ORG $+4
	DD	0cH
	DD	FLAT:??0bad_alloc@std@@QAE@ABV01@@Z
xdata$x	ENDS
;	COMDAT ??_R0?AVbad_alloc@std@@@8
data$r	SEGMENT
??_R0?AVbad_alloc@std@@@8 DD FLAT:??_7type_info@@6B@	; std::bad_alloc `RTTI Type Descriptor'
	DD	00H
	DB	'.?AVbad_alloc@std@@', 00H
data$r	ENDS
;	COMDAT __CT??_R0?AVbad_array_new_length@std@@@8??0bad_array_new_length@std@@QAE@ABV01@@Z12
xdata$x	SEGMENT
__CT??_R0?AVbad_array_new_length@std@@@8??0bad_array_new_length@std@@QAE@ABV01@@Z12 DD 00H
	DD	FLAT:??_R0?AVbad_array_new_length@std@@@8
	DD	00H
	DD	0ffffffffH
	ORG $+4
	DD	0cH
	DD	FLAT:??0bad_array_new_length@std@@QAE@ABV01@@Z
xdata$x	ENDS
;	COMDAT ??_R0?AVbad_array_new_length@std@@@8
data$r	SEGMENT
??_R0?AVbad_array_new_length@std@@@8 DD FLAT:??_7type_info@@6B@ ; std::bad_array_new_length `RTTI Type Descriptor'
	DD	00H
	DB	'.?AVbad_array_new_length@std@@', 00H
data$r	ENDS
;	COMDAT __CTA3?AVbad_array_new_length@std@@
xdata$x	SEGMENT
__CTA3?AVbad_array_new_length@std@@ DD 03H
	DD	FLAT:__CT??_R0?AVbad_array_new_length@std@@@8??0bad_array_new_length@std@@QAE@ABV01@@Z12
	DD	FLAT:__CT??_R0?AVbad_alloc@std@@@8??0bad_alloc@std@@QAE@ABV01@@Z12
	DD	FLAT:__CT??_R0?AVexception@std@@@8??0exception@std@@QAE@ABV01@@Z12
xdata$x	ENDS
;	COMDAT __TI3?AVbad_array_new_length@std@@
xdata$x	SEGMENT
__TI3?AVbad_array_new_length@std@@ DD 00H
	DD	FLAT:??1bad_array_new_length@std@@UAE@XZ
	DD	00H
	DD	FLAT:__CTA3?AVbad_array_new_length@std@@
xdata$x	ENDS
;	COMDAT ??_C@_0BF@KINCDENJ@bad?5array?5new?5length@
CONST	SEGMENT
??_C@_0BF@KINCDENJ@bad?5array?5new?5length@ DB 'bad array new length', 00H ; `string'
CONST	ENDS
;	COMDAT ??_7bad_array_new_length@std@@6B@
CONST	SEGMENT
??_7bad_array_new_length@std@@6B@ DD FLAT:??_R4bad_array_new_length@std@@6B@ ; std::bad_array_new_length::`vftable'
	DD	FLAT:??_Ebad_array_new_length@std@@UAEPAXI@Z
	DD	FLAT:?what@exception@std@@UBEPBDXZ
CONST	ENDS
;	COMDAT ??_7bad_alloc@std@@6B@
CONST	SEGMENT
??_7bad_alloc@std@@6B@ DD FLAT:??_R4bad_alloc@std@@6B@	; std::bad_alloc::`vftable'
	DD	FLAT:??_Ebad_alloc@std@@UAEPAXI@Z
	DD	FLAT:?what@exception@std@@UBEPBDXZ
CONST	ENDS
;	COMDAT ??_C@_0BC@EOODALEL@Unknown?5exception@
CONST	SEGMENT
??_C@_0BC@EOODALEL@Unknown?5exception@ DB 'Unknown exception', 00H ; `string'
CONST	ENDS
;	COMDAT ??_7exception@std@@6B@
CONST	SEGMENT
??_7exception@std@@6B@ DD FLAT:??_R4exception@std@@6B@	; std::exception::`vftable'
	DD	FLAT:??_Eexception@std@@UAEPAXI@Z
	DD	FLAT:?what@exception@std@@UBEPBDXZ
CONST	ENDS
;	COMDAT xdata$x
xdata$x	SEGMENT
__unwindtable$??$?0ABUSCommand@CInstanceBase@@@?$_List_node_emplace_op2@V?$allocator@U?$_List_node@USCommand@CInstanceBase@@PAX@std@@@std@@@std@@QAE@AAV?$allocator@U?$_List_node@USCommand@CInstanceBase@@PAX@std@@@1@ABUSCommand@CInstanceBase@@@Z DD 0ffffffffH
	DD	FLAT:__unwindfunclet$??$?0ABUSCommand@CInstanceBase@@@?$_List_node_emplace_op2@V?$allocator@U?$_List_node@USCommand@CInstanceBase@@PAX@std@@@std@@@std@@QAE@AAV?$allocator@U?$_List_node@USCommand@CInstanceBase@@PAX@std@@@1@ABUSCommand@CInstanceBase@@@Z$0
__ehfuncinfo$??$?0ABUSCommand@CInstanceBase@@@?$_List_node_emplace_op2@V?$allocator@U?$_List_node@USCommand@CInstanceBase@@PAX@std@@@std@@@std@@QAE@AAV?$allocator@U?$_List_node@USCommand@CInstanceBase@@PAX@std@@@1@ABUSCommand@CInstanceBase@@@Z DD 019930522H
	DD	01H
	DD	FLAT:__unwindtable$??$?0ABUSCommand@CInstanceBase@@@?$_List_node_emplace_op2@V?$allocator@U?$_List_node@USCommand@CInstanceBase@@PAX@std@@@std@@@std@@QAE@AAV?$allocator@U?$_List_node@USCommand@CInstanceBase@@PAX@std@@@1@ABUSCommand@CInstanceBase@@@Z
	DD	2 DUP(00H)
	DD	2 DUP(00H)
	DD	00H
	DD	01H
xdata$x	ENDS
;	COMDAT xdata$x
xdata$x	SEGMENT
__unwindtable$??$_Emplace@ABUSCommand@CInstanceBase@@@?$list@USCommand@CInstanceBase@@V?$allocator@USCommand@CInstanceBase@@@std@@@std@@QAEPAU?$_List_node@USCommand@CInstanceBase@@PAX@1@QAU21@ABUSCommand@CInstanceBase@@@Z DD 0ffffffffH
	DD	FLAT:__unwindfunclet$??$_Emplace@ABUSCommand@CInstanceBase@@@?$list@USCommand@CInstanceBase@@V?$allocator@USCommand@CInstanceBase@@@std@@@std@@QAEPAU?$_List_node@USCommand@CInstanceBase@@PAX@1@QAU21@ABUSCommand@CInstanceBase@@@Z$1
__ehfuncinfo$??$_Emplace@ABUSCommand@CInstanceBase@@@?$list@USCommand@CInstanceBase@@V?$allocator@USCommand@CInstanceBase@@@std@@@std@@QAEPAU?$_List_node@USCommand@CInstanceBase@@PAX@1@QAU21@ABUSCommand@CInstanceBase@@@Z DD 019930522H
	DD	01H
	DD	FLAT:__unwindtable$??$_Emplace@ABUSCommand@CInstanceBase@@@?$list@USCommand@CInstanceBase@@V?$allocator@USCommand@CInstanceBase@@@std@@@std@@QAEPAU?$_List_node@USCommand@CInstanceBase@@PAX@1@QAU21@ABUSCommand@CInstanceBase@@@Z
	DD	2 DUP(00H)
	DD	2 DUP(00H)
	DD	00H
	DD	01H
xdata$x	ENDS
;	COMDAT xdata$x
xdata$x	SEGMENT
__unwindtable$?Alloc@?$CDynamicPool@VCInstanceBase@@@@QAEPAVCInstanceBase@@XZ DD 0ffffffffH
	DD	FLAT:__unwindfunclet$?Alloc@?$CDynamicPool@VCInstanceBase@@@@QAEPAVCInstanceBase@@XZ$0
__ehfuncinfo$?Alloc@?$CDynamicPool@VCInstanceBase@@@@QAEPAVCInstanceBase@@XZ DD 019930522H
	DD	01H
	DD	FLAT:__unwindtable$?Alloc@?$CDynamicPool@VCInstanceBase@@@@QAEPAVCInstanceBase@@XZ
	DD	2 DUP(00H)
	DD	2 DUP(00H)
	DD	00H
	DD	01H
xdata$x	ENDS
;	COMDAT xdata$x
xdata$x	SEGMENT
__unwindtable$?New@CInstanceBase@@SAPAV1@XZ DD 0ffffffffH
	DD	FLAT:__unwindfunclet$?New@CInstanceBase@@SAPAV1@XZ$0
__ehfuncinfo$?New@CInstanceBase@@SAPAV1@XZ DD 019930522H
	DD	01H
	DD	FLAT:__unwindtable$?New@CInstanceBase@@SAPAV1@XZ
	DD	2 DUP(00H)
	DD	2 DUP(00H)
	DD	00H
	DD	01H
xdata$x	ENDS
;	COMDAT xdata$x
xdata$x	SEGMENT
__unwindtable$?push_back@?$list@USCommand@CInstanceBase@@V?$allocator@USCommand@CInstanceBase@@@std@@@std@@QAEXABUSCommand@CInstanceBase@@@Z DD 0ffffffffH
	DD	FLAT:__unwindfunclet$?push_back@?$list@USCommand@CInstanceBase@@V?$allocator@USCommand@CInstanceBase@@@std@@@std@@QAEXABUSCommand@CInstanceBase@@@Z$1
__ehfuncinfo$?push_back@?$list@USCommand@CInstanceBase@@V?$allocator@USCommand@CInstanceBase@@@std@@@std@@QAEXABUSCommand@CInstanceBase@@@Z DD 019930522H
	DD	01H
	DD	FLAT:__unwindtable$?push_back@?$list@USCommand@CInstanceBase@@V?$allocator@USCommand@CInstanceBase@@@std@@@std@@QAEXABUSCommand@CInstanceBase@@@Z
	DD	2 DUP(00H)
	DD	2 DUP(00H)
	DD	00H
	DD	01H
xdata$x	ENDS
;	COMDAT xdata$x
xdata$x	SEGMENT
__unwindtable$?Create@SHORSE@CInstanceBase@@QAEXABUD3DXVECTOR3@@II@Z DD 0ffffffffH
	DD	FLAT:__unwindfunclet$?Create@SHORSE@CInstanceBase@@QAEXABUD3DXVECTOR3@@II@Z$0
__ehfuncinfo$?Create@SHORSE@CInstanceBase@@QAEXABUD3DXVECTOR3@@II@Z DD 019930522H
	DD	01H
	DD	FLAT:__unwindtable$?Create@SHORSE@CInstanceBase@@QAEXABUD3DXVECTOR3@@II@Z
	DD	2 DUP(00H)
	DD	2 DUP(00H)
	DD	00H
	DD	01H
xdata$x	ENDS
;	COMDAT xdata$x
xdata$x	SEGMENT
__unwindtable$?__Create_SetWarpName@CInstanceBase@@IAEXABUSCreateData@1@@Z DD 0ffffffffH
	DD	FLAT:__unwindfunclet$?__Create_SetWarpName@CInstanceBase@@IAEXABUSCreateData@1@@Z$0
__ehfuncinfo$?__Create_SetWarpName@CInstanceBase@@IAEXABUSCreateData@1@@Z DD 019930522H
	DD	01H
	DD	FLAT:__unwindtable$?__Create_SetWarpName@CInstanceBase@@IAEXABUSCreateData@1@@Z
	DD	2 DUP(00H)
	DD	2 DUP(00H)
	DD	00H
	DD	01H
xdata$x	ENDS
;	COMDAT xdata$x
xdata$x	SEGMENT
__unwindtable$?ChangeArmor@CInstanceBase@@QAE_NK@Z DD 0ffffffffH
	DD	FLAT:__unwindfunclet$?ChangeArmor@CInstanceBase@@QAE_NK@Z$0
__ehfuncinfo$?ChangeArmor@CInstanceBase@@QAE_NK@Z DD 019930522H
	DD	01H
	DD	FLAT:__unwindtable$?ChangeArmor@CInstanceBase@@QAE_NK@Z
	DD	2 DUP(00H)
	DD	2 DUP(00H)
	DD	00H
	DD	01H
xdata$x	ENDS
;	COMDAT xdata$x
xdata$x	SEGMENT
__unwindtable$?Render@CInstanceBase@@QAEXXZ DD 0ffffffffH
	DD	FLAT:__unwindfunclet$?Render@CInstanceBase@@QAEXXZ$0
__ehfuncinfo$?Render@CInstanceBase@@QAEXXZ DD 019930522H
	DD	01H
	DD	FLAT:__unwindtable$?Render@CInstanceBase@@QAEXXZ
	DD	2 DUP(00H)
	DD	2 DUP(00H)
	DD	00H
	DD	01H
xdata$x	ENDS
;	COMDAT xdata$x
xdata$x	SEGMENT
__unwindtable$?Create@CInstanceBase@@QAE_NABUSCreateData@1@@Z DD 0ffffffffH
	DD	FLAT:__unwindfunclet$?Create@CInstanceBase@@QAE_NABUSCreateData@1@@Z$0
__ehfuncinfo$?Create@CInstanceBase@@QAE_NABUSCreateData@1@@Z DD 019930522H
	DD	01H
	DD	FLAT:__unwindtable$?Create@CInstanceBase@@QAE_NABUSCreateData@1@@Z
	DD	2 DUP(00H)
	DD	2 DUP(00H)
	DD	00H
	DD	01H
xdata$x	ENDS
;	COMDAT xdata$x
xdata$x	SEGMENT
__ehfuncinfo$??1CInstanceBase@@UAE@XZ DD 019930522H
	DD	00H
	DD	00H
	DD	2 DUP(00H)
	DD	2 DUP(00H)
	DD	00H
	DD	05H
xdata$x	ENDS
;	COMDAT xdata$x
xdata$x	SEGMENT
__ehfuncinfo$??0CInstanceBase@@QAE@XZ DD 019930522H
	DD	06H
	DD	FLAT:__unwindtable$??0CInstanceBase@@QAE@XZ
	DD	2 DUP(00H)
	DD	2 DUP(00H)
	DD	00H
	DD	01H
__unwindtable$??0CInstanceBase@@QAE@XZ DD 0ffffffffH
	DD	FLAT:__unwindfunclet$??0CInstanceBase@@QAE@XZ$0
	DD	00H
	DD	FLAT:__unwindfunclet$??0CInstanceBase@@QAE@XZ$1
	DD	01H
	DD	FLAT:__unwindfunclet$??0CInstanceBase@@QAE@XZ$2
	DD	02H
	DD	FLAT:__unwindfunclet$??0CInstanceBase@@QAE@XZ$3
	DD	03H
	DD	FLAT:__unwindfunclet$??0CInstanceBase@@QAE@XZ$4
	DD	04H
	DD	FLAT:__unwindfunclet$??0CInstanceBase@@QAE@XZ$5
xdata$x	ENDS
CRT$XCU	SEGMENT
??ms_kPool$initializer$@CInstanceBase@@2P6AXXZA@@3P6AXXZA DD FLAT:??__E?ms_kPool@CInstanceBase@@2V?$CDynamicPool@VCInstanceBase@@@@A@@YAXXZ ; ??ms_kPool$initializer$@CInstanceBase@@2P6AXXZA@@3P6AXXZA
CRT$XCU	ENDS
;	COMDAT CRT$XCU
CRT$XCU	SEGMENT
??ms_kPool$initializer$@?$CPooledObject@VCHeaderDecorator@NEffectUpdateDecorator@@@@1P6AXXZA@@3P6AXXZA DD FLAT:??__E?ms_kPool@?$CPooledObject@VCHeaderDecorator@NEffectUpdateDecorator@@@@1V?$CDynamicPoolEx@VCHeaderDecorator@NEffectUpdateDecorator@@@@A@@YAXXZ ; ??ms_kPool$initializer$@?$CPooledObject@VCHeaderDecorator@NEffectUpdateDecorator@@@@1P6AXXZA@@3P6AXXZA
CRT$XCU	ENDS
;	COMDAT CRT$XCU
CRT$XCU	SEGMENT
??ms_kPool$initializer$@?$CPooledObject@VCNullDecorator@NEffectUpdateDecorator@@@@1P6AXXZA@@3P6AXXZA DD FLAT:??__E?ms_kPool@?$CPooledObject@VCNullDecorator@NEffectUpdateDecorator@@@@1V?$CDynamicPoolEx@VCNullDecorator@NEffectUpdateDecorator@@@@A@@YAXXZ ; ??ms_kPool$initializer$@?$CPooledObject@VCNullDecorator@NEffectUpdateDecorator@@@@1P6AXXZA@@3P6AXXZA
CRT$XCU	ENDS
;	COMDAT CRT$XCU
CRT$XCU	SEGMENT
??ms_kPool$initializer$@?$CPooledObject@VCTextureAnimationCWDecorator@NEffectUpdateDecorator@@@@1P6AXXZA@@3P6AXXZA DD FLAT:??__E?ms_kPool@?$CPooledObject@VCTextureAnimationCWDecorator@NEffectUpdateDecorator@@@@1V?$CDynamicPoolEx@VCTextureAnimationCWDecorator@NEffectUpdateDecorator@@@@A@@YAXXZ ; ??ms_kPool$initializer$@?$CPooledObject@VCTextureAnimationCWDecorator@NEffectUpdateDecorator@@@@1P6AXXZA@@3P6AXXZA
CRT$XCU	ENDS
;	COMDAT CRT$XCU
CRT$XCU	SEGMENT
??ms_kPool$initializer$@?$CPooledObject@VCTextureAnimationCCWDecorator@NEffectUpdateDecorator@@@@1P6AXXZA@@3P6AXXZA DD FLAT:??__E?ms_kPool@?$CPooledObject@VCTextureAnimationCCWDecorator@NEffectUpdateDecorator@@@@1V?$CDynamicPoolEx@VCTextureAnimationCCWDecorator@NEffectUpdateDecorator@@@@A@@YAXXZ ; ??ms_kPool$initializer$@?$CPooledObject@VCTextureAnimationCCWDecorator@NEffectUpdateDecorator@@@@1P6AXXZA@@3P6AXXZA
CRT$XCU	ENDS
;	COMDAT CRT$XCU
CRT$XCU	SEGMENT
??ms_kPool$initializer$@?$CPooledObject@VCTextureAnimationRandomDecorator@NEffectUpdateDecorator@@@@1P6AXXZA@@3P6AXXZA DD FLAT:??__E?ms_kPool@?$CPooledObject@VCTextureAnimationRandomDecorator@NEffectUpdateDecorator@@@@1V?$CDynamicPoolEx@VCTextureAnimationRandomDecorator@NEffectUpdateDecorator@@@@A@@YAXXZ ; ??ms_kPool$initializer$@?$CPooledObject@VCTextureAnimationRandomDecorator@NEffectUpdateDecorator@@@@1P6AXXZA@@3P6AXXZA
CRT$XCU	ENDS
;	COMDAT CRT$XCU
CRT$XCU	SEGMENT
??ms_kPool$initializer$@?$CPooledObject@VCAirResistanceDecorator@NEffectUpdateDecorator@@@@1P6AXXZA@@3P6AXXZA DD FLAT:??__E?ms_kPool@?$CPooledObject@VCAirResistanceDecorator@NEffectUpdateDecorator@@@@1V?$CDynamicPoolEx@VCAirResistanceDecorator@NEffectUpdateDecorator@@@@A@@YAXXZ ; ??ms_kPool$initializer$@?$CPooledObject@VCAirResistanceDecorator@NEffectUpdateDecorator@@@@1P6AXXZA@@3P6AXXZA
CRT$XCU	ENDS
;	COMDAT CRT$XCU
CRT$XCU	SEGMENT
??ms_kPool$initializer$@?$CPooledObject@VCGravityDecorator@NEffectUpdateDecorator@@@@1P6AXXZA@@3P6AXXZA DD FLAT:??__E?ms_kPool@?$CPooledObject@VCGravityDecorator@NEffectUpdateDecorator@@@@1V?$CDynamicPoolEx@VCGravityDecorator@NEffectUpdateDecorator@@@@A@@YAXXZ ; ??ms_kPool$initializer$@?$CPooledObject@VCGravityDecorator@NEffectUpdateDecorator@@@@1P6AXXZA@@3P6AXXZA
CRT$XCU	ENDS
;	COMDAT CRT$XCU
CRT$XCU	SEGMENT
??ms_kPool$initializer$@?$CPooledObject@VCRotationDecorator@NEffectUpdateDecorator@@@@1P6AXXZA@@3P6AXXZA DD FLAT:??__E?ms_kPool@?$CPooledObject@VCRotationDecorator@NEffectUpdateDecorator@@@@1V?$CDynamicPoolEx@VCRotationDecorator@NEffectUpdateDecorator@@@@A@@YAXXZ ; ??ms_kPool$initializer$@?$CPooledObject@VCRotationDecorator@NEffectUpdateDecorator@@@@1P6AXXZA@@3P6AXXZA
CRT$XCU	ENDS
; Function compile flags: /Ogtp
; File C:\Program Files (x86)\Microsoft Visual Studio\2019\Community\VC\Tools\MSVC\14.28.29333\include\xmemory
;	COMDAT ??$_Destroy_in_place@PAU?$_Tree_node@U?$pair@$$CBKK@std@@PAX@std@@@std@@YAXAAPAU?$_Tree_node@U?$pair@$$CBKK@std@@PAX@0@@Z
_TEXT	SEGMENT
__Obj$ = 8						; size = 4
??$_Destroy_in_place@PAU?$_Tree_node@U?$pair@$$CBKK@std@@PAX@std@@@std@@YAXAAPAU?$_Tree_node@U?$pair@$$CBKK@std@@PAX@0@@Z PROC ; std::_Destroy_in_place<std::_Tree_node<std::pair<unsigned long const ,unsigned long>,void *> *>, COMDAT

; 271  : #if _HAS_IF_CONSTEXPR
; 272  :     if constexpr (is_array_v<_Ty>) {
; 273  :         _Destroy_range(_Obj, _Obj + extent_v<_Ty>);
; 274  :     } else
; 275  : #endif // _HAS_IF_CONSTEXPR
; 276  :     {
; 277  :         _Obj.~_Ty();
; 278  :     }
; 279  : }

  00000	c2 00 00	 ret	 0
??$_Destroy_in_place@PAU?$_Tree_node@U?$pair@$$CBKK@std@@PAX@std@@@std@@YAXAAPAU?$_Tree_node@U?$pair@$$CBKK@std@@PAX@0@@Z ENDP ; std::_Destroy_in_place<std::_Tree_node<std::pair<unsigned long const ,unsigned long>,void *> *>
_TEXT	ENDS
; Function compile flags: /Ogtp
; File C:\Program Files (x86)\Microsoft Visual Studio\2019\Community\VC\Tools\MSVC\14.28.29333\include\xmemory
;	COMDAT ??$_Construct_in_place@PAU?$_List_node@USCommand@CInstanceBase@@PAX@std@@ABQAU12@@std@@YAXAAPAU?$_List_node@USCommand@CInstanceBase@@PAX@0@ABQAU10@@Z
_TEXT	SEGMENT
__Obj$ = 8						; size = 4
_<_Args_0>$ = 12					; size = 4
??$_Construct_in_place@PAU?$_List_node@USCommand@CInstanceBase@@PAX@std@@ABQAU12@@std@@YAXAAPAU?$_List_node@USCommand@CInstanceBase@@PAX@0@ABQAU10@@Z PROC ; std::_Construct_in_place<std::_List_node<CInstanceBase::SCommand,void *> *,std::_List_node<CInstanceBase::SCommand,void *> * const &>, COMDAT

; 228  : void _Construct_in_place(_Ty& _Obj, _Types&&... _Args) noexcept(is_nothrow_constructible_v<_Ty, _Types...>) {

  00000	55		 push	 ebp
  00001	8b ec		 mov	 ebp, esp

; 229  :     ::new (const_cast<void*>(static_cast<const volatile void*>(_STD addressof(_Obj))))

  00003	8b 45 0c	 mov	 eax, DWORD PTR _<_Args_0>$[ebp]
  00006	8b 08		 mov	 ecx, DWORD PTR [eax]
  00008	8b 45 08	 mov	 eax, DWORD PTR __Obj$[ebp]
  0000b	89 08		 mov	 DWORD PTR [eax], ecx

; 230  :         _Ty(_STD forward<_Types>(_Args)...);
; 231  : }

  0000d	5d		 pop	 ebp
  0000e	c3		 ret	 0
??$_Construct_in_place@PAU?$_List_node@USCommand@CInstanceBase@@PAX@std@@ABQAU12@@std@@YAXAAPAU?$_List_node@USCommand@CInstanceBase@@PAX@0@ABQAU10@@Z ENDP ; std::_Construct_in_place<std::_List_node<CInstanceBase::SCommand,void *> *,std::_List_node<CInstanceBase::SCommand,void *> * const &>
_TEXT	ENDS
; Function compile flags: /Ogtp
; File C:\Program Files (x86)\Microsoft Visual Studio\2019\Community\VC\Tools\MSVC\14.28.29333\include\xutility
;	COMDAT ??$_Copy_memmove@PAPAVCInstanceBase@@PAPAV1@@std@@YAPAPAVCInstanceBase@@PAPAV1@00@Z
_TEXT	SEGMENT
__First$ = 8						; size = 4
__Last$ = 12						; size = 4
__Dest$ = 16						; size = 4
??$_Copy_memmove@PAPAVCInstanceBase@@PAPAV1@@std@@YAPAPAVCInstanceBase@@PAPAV1@00@Z PROC ; std::_Copy_memmove<CInstanceBase * *,CInstanceBase * *>, COMDAT

; 4360 : _OutIt _Copy_memmove(_InIt _First, _InIt _Last, _OutIt _Dest) {

  00000	55		 push	 ebp
  00001	8b ec		 mov	 ebp, esp

; 4361 :     const char* const _First_ch = const_cast<const char*>(reinterpret_cast<const volatile char*>(_First));
; 4362 :     const char* const _Last_ch  = const_cast<const char*>(reinterpret_cast<const volatile char*>(_Last));
; 4363 :     char* const _Dest_ch        = const_cast<char*>(reinterpret_cast<volatile char*>(_Dest));
; 4364 :     const auto _Count           = static_cast<size_t>(_Last_ch - _First_ch);

  00003	8b 45 08	 mov	 eax, DWORD PTR __First$[ebp]
  00006	56		 push	 esi

; 4365 :     _CSTD memmove(_Dest_ch, _First_ch, _Count);

  00007	8b 75 10	 mov	 esi, DWORD PTR __Dest$[ebp]
  0000a	57		 push	 edi
  0000b	8b 7d 0c	 mov	 edi, DWORD PTR __Last$[ebp]
  0000e	2b f8		 sub	 edi, eax
  00010	57		 push	 edi
  00011	50		 push	 eax
  00012	56		 push	 esi
  00013	e8 00 00 00 00	 call	 _memmove
  00018	83 c4 0c	 add	 esp, 12			; 0000000cH

; 4366 :     return reinterpret_cast<_OutIt>(_Dest_ch + _Count);

  0001b	8d 04 37	 lea	 eax, DWORD PTR [edi+esi]
  0001e	5f		 pop	 edi
  0001f	5e		 pop	 esi

; 4367 : }

  00020	5d		 pop	 ebp
  00021	c3		 ret	 0
??$_Copy_memmove@PAPAVCInstanceBase@@PAPAV1@@std@@YAPAPAVCInstanceBase@@PAPAV1@00@Z ENDP ; std::_Copy_memmove<CInstanceBase * *,CInstanceBase * *>
_TEXT	ENDS
; Function compile flags: /Ogtp
; File C:\Program Files (x86)\Microsoft Visual Studio\2019\Community\VC\Tools\MSVC\14.28.29333\include\xmemory
;	COMDAT ??$_Construct_in_place@PAU?$_Tree_node@U?$pair@$$CBKK@std@@PAX@std@@ABQAU12@@std@@YAXAAPAU?$_Tree_node@U?$pair@$$CBKK@std@@PAX@0@ABQAU10@@Z
_TEXT	SEGMENT
__Obj$ = 8						; size = 4
_<_Args_0>$ = 12					; size = 4
??$_Construct_in_place@PAU?$_Tree_node@U?$pair@$$CBKK@std@@PAX@std@@ABQAU12@@std@@YAXAAPAU?$_Tree_node@U?$pair@$$CBKK@std@@PAX@0@ABQAU10@@Z PROC ; std::_Construct_in_place<std::_Tree_node<std::pair<unsigned long const ,unsigned long>,void *> *,std::_Tree_node<std::pair<unsigned long const ,unsigned long>,void *> * const &>, COMDAT

; 228  : void _Construct_in_place(_Ty& _Obj, _Types&&... _Args) noexcept(is_nothrow_constructible_v<_Ty, _Types...>) {

  00000	55		 push	 ebp
  00001	8b ec		 mov	 ebp, esp

; 229  :     ::new (const_cast<void*>(static_cast<const volatile void*>(_STD addressof(_Obj))))

  00003	8b 45 0c	 mov	 eax, DWORD PTR _<_Args_0>$[ebp]
  00006	8b 08		 mov	 ecx, DWORD PTR [eax]
  00008	8b 45 08	 mov	 eax, DWORD PTR __Obj$[ebp]
  0000b	89 08		 mov	 DWORD PTR [eax], ecx

; 230  :         _Ty(_STD forward<_Types>(_Args)...);
; 231  : }

  0000d	5d		 pop	 ebp
  0000e	c3		 ret	 0
??$_Construct_in_place@PAU?$_Tree_node@U?$pair@$$CBKK@std@@PAX@std@@ABQAU12@@std@@YAXAAPAU?$_Tree_node@U?$pair@$$CBKK@std@@PAX@0@ABQAU10@@Z ENDP ; std::_Construct_in_place<std::_Tree_node<std::pair<unsigned long const ,unsigned long>,void *> *,std::_Tree_node<std::pair<unsigned long const ,unsigned long>,void *> * const &>
_TEXT	ENDS
; Function compile flags: /Ogtp
; File C:\Program Files (x86)\Microsoft Visual Studio\2019\Community\VC\Tools\MSVC\14.28.29333\include\xmemory
;	COMDAT ??$_Destroy_in_place@PAU?$_List_node@USCommand@CInstanceBase@@PAX@std@@@std@@YAXAAPAU?$_List_node@USCommand@CInstanceBase@@PAX@0@@Z
_TEXT	SEGMENT
__Obj$ = 8						; size = 4
??$_Destroy_in_place@PAU?$_List_node@USCommand@CInstanceBase@@PAX@std@@@std@@YAXAAPAU?$_List_node@USCommand@CInstanceBase@@PAX@0@@Z PROC ; std::_Destroy_in_place<std::_List_node<CInstanceBase::SCommand,void *> *>, COMDAT

; 271  : #if _HAS_IF_CONSTEXPR
; 272  :     if constexpr (is_array_v<_Ty>) {
; 273  :         _Destroy_range(_Obj, _Obj + extent_v<_Ty>);
; 274  :     } else
; 275  : #endif // _HAS_IF_CONSTEXPR
; 276  :     {
; 277  :         _Obj.~_Ty();
; 278  :     }
; 279  : }

  00000	c2 00 00	 ret	 0
??$_Destroy_in_place@PAU?$_List_node@USCommand@CInstanceBase@@PAX@std@@@std@@YAXAAPAU?$_List_node@USCommand@CInstanceBase@@PAX@0@@Z ENDP ; std::_Destroy_in_place<std::_List_node<CInstanceBase::SCommand,void *> *>
_TEXT	ENDS
; Function compile flags: /Ogtp
; File C:\Program Files (x86)\Microsoft Visual Studio\2019\Community\VC\Tools\MSVC\14.28.29333\include\xmemory
;	COMDAT ??$_Destroy_in_place@PAU?$_List_node@USEffectDamage@CInstanceBase@@PAX@std@@@std@@YAXAAPAU?$_List_node@USEffectDamage@CInstanceBase@@PAX@0@@Z
_TEXT	SEGMENT
__Obj$ = 8						; size = 4
??$_Destroy_in_place@PAU?$_List_node@USEffectDamage@CInstanceBase@@PAX@std@@@std@@YAXAAPAU?$_List_node@USEffectDamage@CInstanceBase@@PAX@0@@Z PROC ; std::_Destroy_in_place<std::_List_node<CInstanceBase::SEffectDamage,void *> *>, COMDAT

; 271  : #if _HAS_IF_CONSTEXPR
; 272  :     if constexpr (is_array_v<_Ty>) {
; 273  :         _Destroy_range(_Obj, _Obj + extent_v<_Ty>);
; 274  :     } else
; 275  : #endif // _HAS_IF_CONSTEXPR
; 276  :     {
; 277  :         _Obj.~_Ty();
; 278  :     }
; 279  : }

  00000	c2 00 00	 ret	 0
??$_Destroy_in_place@PAU?$_List_node@USEffectDamage@CInstanceBase@@PAX@std@@@std@@YAXAAPAU?$_List_node@USEffectDamage@CInstanceBase@@PAX@0@@Z ENDP ; std::_Destroy_in_place<std::_List_node<CInstanceBase::SEffectDamage,void *> *>
_TEXT	ENDS
; Function compile flags: /Ogtp
; File C:\Program Files (x86)\Microsoft Visual Studio\2019\Community\VC\Tools\MSVC\14.28.29333\include\xtree
; File C:\Program Files (x86)\Microsoft Visual Studio\2019\Community\VC\Tools\MSVC\14.28.29333\include\utility
; File C:\Program Files (x86)\Microsoft Visual Studio\2019\Community\VC\Tools\MSVC\14.28.29333\include\xmemory
; File C:\Program Files (x86)\Microsoft Visual Studio\2019\Community\VC\Tools\MSVC\14.28.29333\include\xtree
;	COMDAT ??$_Erase_tree@V?$allocator@U?$_Tree_node@U?$pair@$$CBKK@std@@PAX@std@@@std@@@?$_Tree_val@U?$_Tree_simple_types@U?$pair@$$CBKK@std@@@std@@@std@@QAEXAAV?$allocator@U?$_Tree_node@U?$pair@$$CBKK@std@@PAX@std@@@1@PAU?$_Tree_node@U?$pair@$$CBKK@std@@PAX@1@@Z
_TEXT	SEGMENT
__Al$ = 8						; size = 4
__Rootnode$ = 12					; size = 4
??$_Erase_tree@V?$allocator@U?$_Tree_node@U?$pair@$$CBKK@std@@PAX@std@@@std@@@?$_Tree_val@U?$_Tree_simple_types@U?$pair@$$CBKK@std@@@std@@@std@@QAEXAAV?$allocator@U?$_Tree_node@U?$pair@$$CBKK@std@@PAX@std@@@1@PAU?$_Tree_node@U?$pair@$$CBKK@std@@PAX@1@@Z PROC ; std::_Tree_val<std::_Tree_simple_types<std::pair<unsigned long const ,unsigned long> > >::_Erase_tree<std::allocator<std::_Tree_node<std::pair<unsigned long const ,unsigned long>,void *> > >, COMDAT
; _this$ = ecx

; 742  :     void _Erase_tree(_Alnode& _Al, _Nodeptr _Rootnode) noexcept {

  00000	55		 push	 ebp
  00001	8b ec		 mov	 ebp, esp
  00003	53		 push	 ebx
  00004	56		 push	 esi

; 743  :         while (!_Rootnode->_Isnil) { // free subtrees, then node

  00005	8b 75 0c	 mov	 esi, DWORD PTR __Rootnode$[ebp]
  00008	8b d9		 mov	 ebx, ecx
  0000a	80 7e 0d 00	 cmp	 BYTE PTR [esi+13], 0
  0000e	75 25		 jne	 SHORT $LN3@Erase_tree
  00010	57		 push	 edi
  00011	8b 7d 08	 mov	 edi, DWORD PTR __Al$[ebp]
$LL2@Erase_tree:

; 744  :             _Erase_tree(_Al, _Rootnode->_Right);

  00014	ff 76 08	 push	 DWORD PTR [esi+8]
  00017	8b cb		 mov	 ecx, ebx
  00019	57		 push	 edi
  0001a	e8 00 00 00 00	 call	 ??$_Erase_tree@V?$allocator@U?$_Tree_node@U?$pair@$$CBKK@std@@PAX@std@@@std@@@?$_Tree_val@U?$_Tree_simple_types@U?$pair@$$CBKK@std@@@std@@@std@@QAEXAAV?$allocator@U?$_Tree_node@U?$pair@$$CBKK@std@@PAX@std@@@1@PAU?$_Tree_node@U?$pair@$$CBKK@std@@PAX@1@@Z ; std::_Tree_val<std::_Tree_simple_types<std::pair<unsigned long const ,unsigned long> > >::_Erase_tree<std::allocator<std::_Tree_node<std::pair<unsigned long const ,unsigned long>,void *> > >
; File C:\Program Files (x86)\Microsoft Visual Studio\2019\Community\VC\Tools\MSVC\14.28.29333\include\utility

; 598  :     _Ty _Old_val = static_cast<_Ty&&>(_Val);

  0001f	8b c6		 mov	 eax, esi

; 599  :     _Val         = static_cast<_Other&&>(_New_val);

  00021	8b 36		 mov	 esi, DWORD PTR [esi]
; File C:\Program Files (x86)\Microsoft Visual Studio\2019\Community\VC\Tools\MSVC\14.28.29333\include\xmemory

; 696  :         _Deallocate<_New_alignof<value_type>>(_Ptr, sizeof(value_type) * _Count);

  00023	6a 18		 push	 24			; 00000018H
  00025	50		 push	 eax
  00026	e8 00 00 00 00	 call	 ??$_Deallocate@$07$0A@@std@@YAXPAXI@Z ; std::_Deallocate<8,0>
  0002b	83 c4 08	 add	 esp, 8
; File C:\Program Files (x86)\Microsoft Visual Studio\2019\Community\VC\Tools\MSVC\14.28.29333\include\xtree

; 743  :         while (!_Rootnode->_Isnil) { // free subtrees, then node

  0002e	80 7e 0d 00	 cmp	 BYTE PTR [esi+13], 0
  00032	74 e0		 je	 SHORT $LL2@Erase_tree
  00034	5f		 pop	 edi
$LN3@Erase_tree:
  00035	5e		 pop	 esi

; 745  :             _Alnode::value_type::_Freenode(_Al, _STD exchange(_Rootnode, _Rootnode->_Left));
; 746  :         }
; 747  :     }

  00036	5b		 pop	 ebx
  00037	5d		 pop	 ebp
  00038	c2 08 00	 ret	 8
??$_Erase_tree@V?$allocator@U?$_Tree_node@U?$pair@$$CBKK@std@@PAX@std@@@std@@@?$_Tree_val@U?$_Tree_simple_types@U?$pair@$$CBKK@std@@@std@@@std@@QAEXAAV?$allocator@U?$_Tree_node@U?$pair@$$CBKK@std@@PAX@std@@@1@PAU?$_Tree_node@U?$pair@$$CBKK@std@@PAX@1@@Z ENDP ; std::_Tree_val<std::_Tree_simple_types<std::pair<unsigned long const ,unsigned long> > >::_Erase_tree<std::allocator<std::_Tree_node<std::pair<unsigned long const ,unsigned long>,void *> > >
_TEXT	ENDS
; Function compile flags: /Ogtp
; File C:\Program Files (x86)\Microsoft Visual Studio\2019\Community\VC\Tools\MSVC\14.28.29333\include\xmemory
;	COMDAT ??1?$_Alloc_construct_ptr@V?$allocator@U?$_List_node@USCommand@CInstanceBase@@PAX@std@@@std@@@std@@QAE@XZ
_TEXT	SEGMENT
??1?$_Alloc_construct_ptr@V?$allocator@U?$_List_node@USCommand@CInstanceBase@@PAX@std@@@std@@@std@@QAE@XZ PROC ; std::_Alloc_construct_ptr<std::allocator<std::_List_node<CInstanceBase::SCommand,void *> > >::~_Alloc_construct_ptr<std::allocator<std::_List_node<CInstanceBase::SCommand,void *> > >, COMDAT
; _this$ = ecx

; 1057 :         if (_Ptr) {

  00000	8b 41 04	 mov	 eax, DWORD PTR [ecx+4]
  00003	85 c0		 test	 eax, eax
  00005	74 0b		 je	 SHORT $LN2@Alloc_cons

; 810  :         _Deallocate<_New_alignof<_Ty>>(_Ptr, sizeof(_Ty) * _Count);

  00007	6a 2c		 push	 44			; 0000002cH
  00009	50		 push	 eax
  0000a	e8 00 00 00 00	 call	 ??$_Deallocate@$07$0A@@std@@YAXPAXI@Z ; std::_Deallocate<8,0>
  0000f	83 c4 08	 add	 esp, 8
$LN2@Alloc_cons:

; 1058 :             _Al.deallocate(_Ptr, 1);
; 1059 :         }
; 1060 :     }

  00012	c3		 ret	 0
??1?$_Alloc_construct_ptr@V?$allocator@U?$_List_node@USCommand@CInstanceBase@@PAX@std@@@std@@@std@@QAE@XZ ENDP ; std::_Alloc_construct_ptr<std::allocator<std::_List_node<CInstanceBase::SCommand,void *> > >::~_Alloc_construct_ptr<std::allocator<std::_List_node<CInstanceBase::SCommand,void *> > >
_TEXT	ENDS
; Function compile flags: /Ogtp
;	COMDAT ??__F?ms_kPool@?$CPooledObject@VCRotationDecorator@NEffectUpdateDecorator@@@@1V?$CDynamicPoolEx@VCRotationDecorator@NEffectUpdateDecorator@@@@A@@YAXXZ
text$yd	SEGMENT
??__F?ms_kPool@?$CPooledObject@VCRotationDecorator@NEffectUpdateDecorator@@@@1V?$CDynamicPoolEx@VCRotationDecorator@NEffectUpdateDecorator@@@@A@@YAXXZ PROC ; `dynamic atexit destructor for 'CPooledObject<NEffectUpdateDecorator::CRotationDecorator>::ms_kPool'', COMDAT
  00000	b9 00 00 00 00	 mov	 ecx, OFFSET ?ms_kPool@?$CPooledObject@VCRotationDecorator@NEffectUpdateDecorator@@@@1V?$CDynamicPoolEx@VCRotationDecorator@NEffectUpdateDecorator@@@@A ; CPooledObject<NEffectUpdateDecorator::CRotationDecorator>::ms_kPool
  00005	e9 00 00 00 00	 jmp	 ??1?$CDynamicPoolEx@VCRotationDecorator@NEffectUpdateDecorator@@@@UAE@XZ ; CDynamicPoolEx<NEffectUpdateDecorator::CRotationDecorator>::~CDynamicPoolEx<NEffectUpdateDecorator::CRotationDecorator>
??__F?ms_kPool@?$CPooledObject@VCRotationDecorator@NEffectUpdateDecorator@@@@1V?$CDynamicPoolEx@VCRotationDecorator@NEffectUpdateDecorator@@@@A@@YAXXZ ENDP ; `dynamic atexit destructor for 'CPooledObject<NEffectUpdateDecorator::CRotationDecorator>::ms_kPool''
text$yd	ENDS
; Function compile flags: /Ogtp
; File D:\Metin2 Server Files\mainline\SRC_2014\Metin2Client\eterLib\Pool.h
;	COMDAT ??__E?ms_kPool@?$CPooledObject@VCRotationDecorator@NEffectUpdateDecorator@@@@1V?$CDynamicPoolEx@VCRotationDecorator@NEffectUpdateDecorator@@@@A@@YAXXZ
text$di	SEGMENT
??__E?ms_kPool@?$CPooledObject@VCRotationDecorator@NEffectUpdateDecorator@@@@1V?$CDynamicPoolEx@VCRotationDecorator@NEffectUpdateDecorator@@@@A@@YAXXZ PROC ; `dynamic initializer for 'CPooledObject<NEffectUpdateDecorator::CRotationDecorator>::ms_kPool'', COMDAT

; 272  : template <class T> CDynamicPoolEx<T> CPooledObject<T>::ms_kPool;

  00000	68 00 00 00 00	 push	 OFFSET ??__F?ms_kPool@?$CPooledObject@VCRotationDecorator@NEffectUpdateDecorator@@@@1V?$CDynamicPoolEx@VCRotationDecorator@NEffectUpdateDecorator@@@@A@@YAXXZ ; `dynamic atexit destructor for 'CPooledObject<NEffectUpdateDecorator::CRotationDecorator>::ms_kPool''
  00005	e8 00 00 00 00	 call	 _atexit
  0000a	59		 pop	 ecx
  0000b	c3		 ret	 0
??__E?ms_kPool@?$CPooledObject@VCRotationDecorator@NEffectUpdateDecorator@@@@1V?$CDynamicPoolEx@VCRotationDecorator@NEffectUpdateDecorator@@@@A@@YAXXZ ENDP ; `dynamic initializer for 'CPooledObject<NEffectUpdateDecorator::CRotationDecorator>::ms_kPool''
text$di	ENDS
; Function compile flags: /Ogtp
;	COMDAT ??__F?ms_kPool@?$CPooledObject@VCGravityDecorator@NEffectUpdateDecorator@@@@1V?$CDynamicPoolEx@VCGravityDecorator@NEffectUpdateDecorator@@@@A@@YAXXZ
text$yd	SEGMENT
??__F?ms_kPool@?$CPooledObject@VCGravityDecorator@NEffectUpdateDecorator@@@@1V?$CDynamicPoolEx@VCGravityDecorator@NEffectUpdateDecorator@@@@A@@YAXXZ PROC ; `dynamic atexit destructor for 'CPooledObject<NEffectUpdateDecorator::CGravityDecorator>::ms_kPool'', COMDAT
  00000	b9 00 00 00 00	 mov	 ecx, OFFSET ?ms_kPool@?$CPooledObject@VCGravityDecorator@NEffectUpdateDecorator@@@@1V?$CDynamicPoolEx@VCGravityDecorator@NEffectUpdateDecorator@@@@A ; CPooledObject<NEffectUpdateDecorator::CGravityDecorator>::ms_kPool
  00005	e9 00 00 00 00	 jmp	 ??1?$CDynamicPoolEx@VCGravityDecorator@NEffectUpdateDecorator@@@@UAE@XZ ; CDynamicPoolEx<NEffectUpdateDecorator::CGravityDecorator>::~CDynamicPoolEx<NEffectUpdateDecorator::CGravityDecorator>
??__F?ms_kPool@?$CPooledObject@VCGravityDecorator@NEffectUpdateDecorator@@@@1V?$CDynamicPoolEx@VCGravityDecorator@NEffectUpdateDecorator@@@@A@@YAXXZ ENDP ; `dynamic atexit destructor for 'CPooledObject<NEffectUpdateDecorator::CGravityDecorator>::ms_kPool''
text$yd	ENDS
; Function compile flags: /Ogtp
; File D:\Metin2 Server Files\mainline\SRC_2014\Metin2Client\eterLib\Pool.h
;	COMDAT ??__E?ms_kPool@?$CPooledObject@VCGravityDecorator@NEffectUpdateDecorator@@@@1V?$CDynamicPoolEx@VCGravityDecorator@NEffectUpdateDecorator@@@@A@@YAXXZ
text$di	SEGMENT
??__E?ms_kPool@?$CPooledObject@VCGravityDecorator@NEffectUpdateDecorator@@@@1V?$CDynamicPoolEx@VCGravityDecorator@NEffectUpdateDecorator@@@@A@@YAXXZ PROC ; `dynamic initializer for 'CPooledObject<NEffectUpdateDecorator::CGravityDecorator>::ms_kPool'', COMDAT

; 272  : template <class T> CDynamicPoolEx<T> CPooledObject<T>::ms_kPool;

  00000	68 00 00 00 00	 push	 OFFSET ??__F?ms_kPool@?$CPooledObject@VCGravityDecorator@NEffectUpdateDecorator@@@@1V?$CDynamicPoolEx@VCGravityDecorator@NEffectUpdateDecorator@@@@A@@YAXXZ ; `dynamic atexit destructor for 'CPooledObject<NEffectUpdateDecorator::CGravityDecorator>::ms_kPool''
  00005	e8 00 00 00 00	 call	 _atexit
  0000a	59		 pop	 ecx
  0000b	c3		 ret	 0
??__E?ms_kPool@?$CPooledObject@VCGravityDecorator@NEffectUpdateDecorator@@@@1V?$CDynamicPoolEx@VCGravityDecorator@NEffectUpdateDecorator@@@@A@@YAXXZ ENDP ; `dynamic initializer for 'CPooledObject<NEffectUpdateDecorator::CGravityDecorator>::ms_kPool''
text$di	ENDS
; Function compile flags: /Ogtp
;	COMDAT ??__F?ms_kPool@?$CPooledObject@VCAirResistanceDecorator@NEffectUpdateDecorator@@@@1V?$CDynamicPoolEx@VCAirResistanceDecorator@NEffectUpdateDecorator@@@@A@@YAXXZ
text$yd	SEGMENT
??__F?ms_kPool@?$CPooledObject@VCAirResistanceDecorator@NEffectUpdateDecorator@@@@1V?$CDynamicPoolEx@VCAirResistanceDecorator@NEffectUpdateDecorator@@@@A@@YAXXZ PROC ; `dynamic atexit destructor for 'CPooledObject<NEffectUpdateDecorator::CAirResistanceDecorator>::ms_kPool'', COMDAT
  00000	b9 00 00 00 00	 mov	 ecx, OFFSET ?ms_kPool@?$CPooledObject@VCAirResistanceDecorator@NEffectUpdateDecorator@@@@1V?$CDynamicPoolEx@VCAirResistanceDecorator@NEffectUpdateDecorator@@@@A ; CPooledObject<NEffectUpdateDecorator::CAirResistanceDecorator>::ms_kPool
  00005	e9 00 00 00 00	 jmp	 ??1?$CDynamicPoolEx@VCAirResistanceDecorator@NEffectUpdateDecorator@@@@UAE@XZ ; CDynamicPoolEx<NEffectUpdateDecorator::CAirResistanceDecorator>::~CDynamicPoolEx<NEffectUpdateDecorator::CAirResistanceDecorator>
??__F?ms_kPool@?$CPooledObject@VCAirResistanceDecorator@NEffectUpdateDecorator@@@@1V?$CDynamicPoolEx@VCAirResistanceDecorator@NEffectUpdateDecorator@@@@A@@YAXXZ ENDP ; `dynamic atexit destructor for 'CPooledObject<NEffectUpdateDecorator::CAirResistanceDecorator>::ms_kPool''
text$yd	ENDS
; Function compile flags: /Ogtp
; File D:\Metin2 Server Files\mainline\SRC_2014\Metin2Client\eterLib\Pool.h
;	COMDAT ??__E?ms_kPool@?$CPooledObject@VCAirResistanceDecorator@NEffectUpdateDecorator@@@@1V?$CDynamicPoolEx@VCAirResistanceDecorator@NEffectUpdateDecorator@@@@A@@YAXXZ
text$di	SEGMENT
??__E?ms_kPool@?$CPooledObject@VCAirResistanceDecorator@NEffectUpdateDecorator@@@@1V?$CDynamicPoolEx@VCAirResistanceDecorator@NEffectUpdateDecorator@@@@A@@YAXXZ PROC ; `dynamic initializer for 'CPooledObject<NEffectUpdateDecorator::CAirResistanceDecorator>::ms_kPool'', COMDAT

; 272  : template <class T> CDynamicPoolEx<T> CPooledObject<T>::ms_kPool;

  00000	68 00 00 00 00	 push	 OFFSET ??__F?ms_kPool@?$CPooledObject@VCAirResistanceDecorator@NEffectUpdateDecorator@@@@1V?$CDynamicPoolEx@VCAirResistanceDecorator@NEffectUpdateDecorator@@@@A@@YAXXZ ; `dynamic atexit destructor for 'CPooledObject<NEffectUpdateDecorator::CAirResistanceDecorator>::ms_kPool''
  00005	e8 00 00 00 00	 call	 _atexit
  0000a	59		 pop	 ecx
  0000b	c3		 ret	 0
??__E?ms_kPool@?$CPooledObject@VCAirResistanceDecorator@NEffectUpdateDecorator@@@@1V?$CDynamicPoolEx@VCAirResistanceDecorator@NEffectUpdateDecorator@@@@A@@YAXXZ ENDP ; `dynamic initializer for 'CPooledObject<NEffectUpdateDecorator::CAirResistanceDecorator>::ms_kPool''
text$di	ENDS
; Function compile flags: /Ogtp
;	COMDAT ??__F?ms_kPool@?$CPooledObject@VCTextureAnimationRandomDecorator@NEffectUpdateDecorator@@@@1V?$CDynamicPoolEx@VCTextureAnimationRandomDecorator@NEffectUpdateDecorator@@@@A@@YAXXZ
text$yd	SEGMENT
??__F?ms_kPool@?$CPooledObject@VCTextureAnimationRandomDecorator@NEffectUpdateDecorator@@@@1V?$CDynamicPoolEx@VCTextureAnimationRandomDecorator@NEffectUpdateDecorator@@@@A@@YAXXZ PROC ; `dynamic atexit destructor for 'CPooledObject<NEffectUpdateDecorator::CTextureAnimationRandomDecorator>::ms_kPool'', COMDAT
  00000	b9 00 00 00 00	 mov	 ecx, OFFSET ?ms_kPool@?$CPooledObject@VCTextureAnimationRandomDecorator@NEffectUpdateDecorator@@@@1V?$CDynamicPoolEx@VCTextureAnimationRandomDecorator@NEffectUpdateDecorator@@@@A ; CPooledObject<NEffectUpdateDecorator::CTextureAnimationRandomDecorator>::ms_kPool
  00005	e9 00 00 00 00	 jmp	 ??1?$CDynamicPoolEx@VCTextureAnimationRandomDecorator@NEffectUpdateDecorator@@@@UAE@XZ ; CDynamicPoolEx<NEffectUpdateDecorator::CTextureAnimationRandomDecorator>::~CDynamicPoolEx<NEffectUpdateDecorator::CTextureAnimationRandomDecorator>
??__F?ms_kPool@?$CPooledObject@VCTextureAnimationRandomDecorator@NEffectUpdateDecorator@@@@1V?$CDynamicPoolEx@VCTextureAnimationRandomDecorator@NEffectUpdateDecorator@@@@A@@YAXXZ ENDP ; `dynamic atexit destructor for 'CPooledObject<NEffectUpdateDecorator::CTextureAnimationRandomDecorator>::ms_kPool''
text$yd	ENDS
; Function compile flags: /Ogtp
; File D:\Metin2 Server Files\mainline\SRC_2014\Metin2Client\eterLib\Pool.h
;	COMDAT ??__E?ms_kPool@?$CPooledObject@VCTextureAnimationRandomDecorator@NEffectUpdateDecorator@@@@1V?$CDynamicPoolEx@VCTextureAnimationRandomDecorator@NEffectUpdateDecorator@@@@A@@YAXXZ
text$di	SEGMENT
??__E?ms_kPool@?$CPooledObject@VCTextureAnimationRandomDecorator@NEffectUpdateDecorator@@@@1V?$CDynamicPoolEx@VCTextureAnimationRandomDecorator@NEffectUpdateDecorator@@@@A@@YAXXZ PROC ; `dynamic initializer for 'CPooledObject<NEffectUpdateDecorator::CTextureAnimationRandomDecorator>::ms_kPool'', COMDAT

; 272  : template <class T> CDynamicPoolEx<T> CPooledObject<T>::ms_kPool;

  00000	68 00 00 00 00	 push	 OFFSET ??__F?ms_kPool@?$CPooledObject@VCTextureAnimationRandomDecorator@NEffectUpdateDecorator@@@@1V?$CDynamicPoolEx@VCTextureAnimationRandomDecorator@NEffectUpdateDecorator@@@@A@@YAXXZ ; `dynamic atexit destructor for 'CPooledObject<NEffectUpdateDecorator::CTextureAnimationRandomDecorator>::ms_kPool''
  00005	e8 00 00 00 00	 call	 _atexit
  0000a	59		 pop	 ecx
  0000b	c3		 ret	 0
??__E?ms_kPool@?$CPooledObject@VCTextureAnimationRandomDecorator@NEffectUpdateDecorator@@@@1V?$CDynamicPoolEx@VCTextureAnimationRandomDecorator@NEffectUpdateDecorator@@@@A@@YAXXZ ENDP ; `dynamic initializer for 'CPooledObject<NEffectUpdateDecorator::CTextureAnimationRandomDecorator>::ms_kPool''
text$di	ENDS
; Function compile flags: /Ogtp
;	COMDAT ??__F?ms_kPool@?$CPooledObject@VCTextureAnimationCCWDecorator@NEffectUpdateDecorator@@@@1V?$CDynamicPoolEx@VCTextureAnimationCCWDecorator@NEffectUpdateDecorator@@@@A@@YAXXZ
text$yd	SEGMENT
??__F?ms_kPool@?$CPooledObject@VCTextureAnimationCCWDecorator@NEffectUpdateDecorator@@@@1V?$CDynamicPoolEx@VCTextureAnimationCCWDecorator@NEffectUpdateDecorator@@@@A@@YAXXZ PROC ; `dynamic atexit destructor for 'CPooledObject<NEffectUpdateDecorator::CTextureAnimationCCWDecorator>::ms_kPool'', COMDAT
  00000	b9 00 00 00 00	 mov	 ecx, OFFSET ?ms_kPool@?$CPooledObject@VCTextureAnimationCCWDecorator@NEffectUpdateDecorator@@@@1V?$CDynamicPoolEx@VCTextureAnimationCCWDecorator@NEffectUpdateDecorator@@@@A ; CPooledObject<NEffectUpdateDecorator::CTextureAnimationCCWDecorator>::ms_kPool
  00005	e9 00 00 00 00	 jmp	 ??1?$CDynamicPoolEx@VCTextureAnimationCCWDecorator@NEffectUpdateDecorator@@@@UAE@XZ ; CDynamicPoolEx<NEffectUpdateDecorator::CTextureAnimationCCWDecorator>::~CDynamicPoolEx<NEffectUpdateDecorator::CTextureAnimationCCWDecorator>
??__F?ms_kPool@?$CPooledObject@VCTextureAnimationCCWDecorator@NEffectUpdateDecorator@@@@1V?$CDynamicPoolEx@VCTextureAnimationCCWDecorator@NEffectUpdateDecorator@@@@A@@YAXXZ ENDP ; `dynamic atexit destructor for 'CPooledObject<NEffectUpdateDecorator::CTextureAnimationCCWDecorator>::ms_kPool''
text$yd	ENDS
; Function compile flags: /Ogtp
; File D:\Metin2 Server Files\mainline\SRC_2014\Metin2Client\eterLib\Pool.h
;	COMDAT ??__E?ms_kPool@?$CPooledObject@VCTextureAnimationCCWDecorator@NEffectUpdateDecorator@@@@1V?$CDynamicPoolEx@VCTextureAnimationCCWDecorator@NEffectUpdateDecorator@@@@A@@YAXXZ
text$di	SEGMENT
??__E?ms_kPool@?$CPooledObject@VCTextureAnimationCCWDecorator@NEffectUpdateDecorator@@@@1V?$CDynamicPoolEx@VCTextureAnimationCCWDecorator@NEffectUpdateDecorator@@@@A@@YAXXZ PROC ; `dynamic initializer for 'CPooledObject<NEffectUpdateDecorator::CTextureAnimationCCWDecorator>::ms_kPool'', COMDAT

; 272  : template <class T> CDynamicPoolEx<T> CPooledObject<T>::ms_kPool;

  00000	68 00 00 00 00	 push	 OFFSET ??__F?ms_kPool@?$CPooledObject@VCTextureAnimationCCWDecorator@NEffectUpdateDecorator@@@@1V?$CDynamicPoolEx@VCTextureAnimationCCWDecorator@NEffectUpdateDecorator@@@@A@@YAXXZ ; `dynamic atexit destructor for 'CPooledObject<NEffectUpdateDecorator::CTextureAnimationCCWDecorator>::ms_kPool''
  00005	e8 00 00 00 00	 call	 _atexit
  0000a	59		 pop	 ecx
  0000b	c3		 ret	 0
??__E?ms_kPool@?$CPooledObject@VCTextureAnimationCCWDecorator@NEffectUpdateDecorator@@@@1V?$CDynamicPoolEx@VCTextureAnimationCCWDecorator@NEffectUpdateDecorator@@@@A@@YAXXZ ENDP ; `dynamic initializer for 'CPooledObject<NEffectUpdateDecorator::CTextureAnimationCCWDecorator>::ms_kPool''
text$di	ENDS
; Function compile flags: /Ogtp
;	COMDAT ??__F?ms_kPool@?$CPooledObject@VCTextureAnimationCWDecorator@NEffectUpdateDecorator@@@@1V?$CDynamicPoolEx@VCTextureAnimationCWDecorator@NEffectUpdateDecorator@@@@A@@YAXXZ
text$yd	SEGMENT
??__F?ms_kPool@?$CPooledObject@VCTextureAnimationCWDecorator@NEffectUpdateDecorator@@@@1V?$CDynamicPoolEx@VCTextureAnimationCWDecorator@NEffectUpdateDecorator@@@@A@@YAXXZ PROC ; `dynamic atexit destructor for 'CPooledObject<NEffectUpdateDecorator::CTextureAnimationCWDecorator>::ms_kPool'', COMDAT
  00000	b9 00 00 00 00	 mov	 ecx, OFFSET ?ms_kPool@?$CPooledObject@VCTextureAnimationCWDecorator@NEffectUpdateDecorator@@@@1V?$CDynamicPoolEx@VCTextureAnimationCWDecorator@NEffectUpdateDecorator@@@@A ; CPooledObject<NEffectUpdateDecorator::CTextureAnimationCWDecorator>::ms_kPool
  00005	e9 00 00 00 00	 jmp	 ??1?$CDynamicPoolEx@VCTextureAnimationCWDecorator@NEffectUpdateDecorator@@@@UAE@XZ ; CDynamicPoolEx<NEffectUpdateDecorator::CTextureAnimationCWDecorator>::~CDynamicPoolEx<NEffectUpdateDecorator::CTextureAnimationCWDecorator>
??__F?ms_kPool@?$CPooledObject@VCTextureAnimationCWDecorator@NEffectUpdateDecorator@@@@1V?$CDynamicPoolEx@VCTextureAnimationCWDecorator@NEffectUpdateDecorator@@@@A@@YAXXZ ENDP ; `dynamic atexit destructor for 'CPooledObject<NEffectUpdateDecorator::CTextureAnimationCWDecorator>::ms_kPool''
text$yd	ENDS
; Function compile flags: /Ogtp
; File D:\Metin2 Server Files\mainline\SRC_2014\Metin2Client\eterLib\Pool.h
;	COMDAT ??__E?ms_kPool@?$CPooledObject@VCTextureAnimationCWDecorator@NEffectUpdateDecorator@@@@1V?$CDynamicPoolEx@VCTextureAnimationCWDecorator@NEffectUpdateDecorator@@@@A@@YAXXZ
text$di	SEGMENT
??__E?ms_kPool@?$CPooledObject@VCTextureAnimationCWDecorator@NEffectUpdateDecorator@@@@1V?$CDynamicPoolEx@VCTextureAnimationCWDecorator@NEffectUpdateDecorator@@@@A@@YAXXZ PROC ; `dynamic initializer for 'CPooledObject<NEffectUpdateDecorator::CTextureAnimationCWDecorator>::ms_kPool'', COMDAT

; 272  : template <class T> CDynamicPoolEx<T> CPooledObject<T>::ms_kPool;

  00000	68 00 00 00 00	 push	 OFFSET ??__F?ms_kPool@?$CPooledObject@VCTextureAnimationCWDecorator@NEffectUpdateDecorator@@@@1V?$CDynamicPoolEx@VCTextureAnimationCWDecorator@NEffectUpdateDecorator@@@@A@@YAXXZ ; `dynamic atexit destructor for 'CPooledObject<NEffectUpdateDecorator::CTextureAnimationCWDecorator>::ms_kPool''
  00005	e8 00 00 00 00	 call	 _atexit
  0000a	59		 pop	 ecx
  0000b	c3		 ret	 0
??__E?ms_kPool@?$CPooledObject@VCTextureAnimationCWDecorator@NEffectUpdateDecorator@@@@1V?$CDynamicPoolEx@VCTextureAnimationCWDecorator@NEffectUpdateDecorator@@@@A@@YAXXZ ENDP ; `dynamic initializer for 'CPooledObject<NEffectUpdateDecorator::CTextureAnimationCWDecorator>::ms_kPool''
text$di	ENDS
; Function compile flags: /Ogtp
;	COMDAT ??__F?ms_kPool@?$CPooledObject@VCNullDecorator@NEffectUpdateDecorator@@@@1V?$CDynamicPoolEx@VCNullDecorator@NEffectUpdateDecorator@@@@A@@YAXXZ
text$yd	SEGMENT
??__F?ms_kPool@?$CPooledObject@VCNullDecorator@NEffectUpdateDecorator@@@@1V?$CDynamicPoolEx@VCNullDecorator@NEffectUpdateDecorator@@@@A@@YAXXZ PROC ; `dynamic atexit destructor for 'CPooledObject<NEffectUpdateDecorator::CNullDecorator>::ms_kPool'', COMDAT
  00000	b9 00 00 00 00	 mov	 ecx, OFFSET ?ms_kPool@?$CPooledObject@VCNullDecorator@NEffectUpdateDecorator@@@@1V?$CDynamicPoolEx@VCNullDecorator@NEffectUpdateDecorator@@@@A ; CPooledObject<NEffectUpdateDecorator::CNullDecorator>::ms_kPool
  00005	e9 00 00 00 00	 jmp	 ??1?$CDynamicPoolEx@VCNullDecorator@NEffectUpdateDecorator@@@@UAE@XZ ; CDynamicPoolEx<NEffectUpdateDecorator::CNullDecorator>::~CDynamicPoolEx<NEffectUpdateDecorator::CNullDecorator>
??__F?ms_kPool@?$CPooledObject@VCNullDecorator@NEffectUpdateDecorator@@@@1V?$CDynamicPoolEx@VCNullDecorator@NEffectUpdateDecorator@@@@A@@YAXXZ ENDP ; `dynamic atexit destructor for 'CPooledObject<NEffectUpdateDecorator::CNullDecorator>::ms_kPool''
text$yd	ENDS
; Function compile flags: /Ogtp
; File D:\Metin2 Server Files\mainline\SRC_2014\Metin2Client\eterLib\Pool.h
;	COMDAT ??__E?ms_kPool@?$CPooledObject@VCNullDecorator@NEffectUpdateDecorator@@@@1V?$CDynamicPoolEx@VCNullDecorator@NEffectUpdateDecorator@@@@A@@YAXXZ
text$di	SEGMENT
??__E?ms_kPool@?$CPooledObject@VCNullDecorator@NEffectUpdateDecorator@@@@1V?$CDynamicPoolEx@VCNullDecorator@NEffectUpdateDecorator@@@@A@@YAXXZ PROC ; `dynamic initializer for 'CPooledObject<NEffectUpdateDecorator::CNullDecorator>::ms_kPool'', COMDAT

; 272  : template <class T> CDynamicPoolEx<T> CPooledObject<T>::ms_kPool;

  00000	68 00 00 00 00	 push	 OFFSET ??__F?ms_kPool@?$CPooledObject@VCNullDecorator@NEffectUpdateDecorator@@@@1V?$CDynamicPoolEx@VCNullDecorator@NEffectUpdateDecorator@@@@A@@YAXXZ ; `dynamic atexit destructor for 'CPooledObject<NEffectUpdateDecorator::CNullDecorator>::ms_kPool''
  00005	e8 00 00 00 00	 call	 _atexit
  0000a	59		 pop	 ecx
  0000b	c3		 ret	 0
??__E?ms_kPool@?$CPooledObject@VCNullDecorator@NEffectUpdateDecorator@@@@1V?$CDynamicPoolEx@VCNullDecorator@NEffectUpdateDecorator@@@@A@@YAXXZ ENDP ; `dynamic initializer for 'CPooledObject<NEffectUpdateDecorator::CNullDecorator>::ms_kPool''
text$di	ENDS
; Function compile flags: /Ogtp
;	COMDAT ??__F?ms_kPool@?$CPooledObject@VCHeaderDecorator@NEffectUpdateDecorator@@@@1V?$CDynamicPoolEx@VCHeaderDecorator@NEffectUpdateDecorator@@@@A@@YAXXZ
text$yd	SEGMENT
??__F?ms_kPool@?$CPooledObject@VCHeaderDecorator@NEffectUpdateDecorator@@@@1V?$CDynamicPoolEx@VCHeaderDecorator@NEffectUpdateDecorator@@@@A@@YAXXZ PROC ; `dynamic atexit destructor for 'CPooledObject<NEffectUpdateDecorator::CHeaderDecorator>::ms_kPool'', COMDAT
  00000	b9 00 00 00 00	 mov	 ecx, OFFSET ?ms_kPool@?$CPooledObject@VCHeaderDecorator@NEffectUpdateDecorator@@@@1V?$CDynamicPoolEx@VCHeaderDecorator@NEffectUpdateDecorator@@@@A ; CPooledObject<NEffectUpdateDecorator::CHeaderDecorator>::ms_kPool
  00005	e9 00 00 00 00	 jmp	 ??1?$CDynamicPoolEx@VCHeaderDecorator@NEffectUpdateDecorator@@@@UAE@XZ ; CDynamicPoolEx<NEffectUpdateDecorator::CHeaderDecorator>::~CDynamicPoolEx<NEffectUpdateDecorator::CHeaderDecorator>
??__F?ms_kPool@?$CPooledObject@VCHeaderDecorator@NEffectUpdateDecorator@@@@1V?$CDynamicPoolEx@VCHeaderDecorator@NEffectUpdateDecorator@@@@A@@YAXXZ ENDP ; `dynamic atexit destructor for 'CPooledObject<NEffectUpdateDecorator::CHeaderDecorator>::ms_kPool''
text$yd	ENDS
; Function compile flags: /Ogtp
; File D:\Metin2 Server Files\mainline\SRC_2014\Metin2Client\eterLib\Pool.h
;	COMDAT ??__E?ms_kPool@?$CPooledObject@VCHeaderDecorator@NEffectUpdateDecorator@@@@1V?$CDynamicPoolEx@VCHeaderDecorator@NEffectUpdateDecorator@@@@A@@YAXXZ
text$di	SEGMENT
??__E?ms_kPool@?$CPooledObject@VCHeaderDecorator@NEffectUpdateDecorator@@@@1V?$CDynamicPoolEx@VCHeaderDecorator@NEffectUpdateDecorator@@@@A@@YAXXZ PROC ; `dynamic initializer for 'CPooledObject<NEffectUpdateDecorator::CHeaderDecorator>::ms_kPool'', COMDAT

; 272  : template <class T> CDynamicPoolEx<T> CPooledObject<T>::ms_kPool;

  00000	68 00 00 00 00	 push	 OFFSET ??__F?ms_kPool@?$CPooledObject@VCHeaderDecorator@NEffectUpdateDecorator@@@@1V?$CDynamicPoolEx@VCHeaderDecorator@NEffectUpdateDecorator@@@@A@@YAXXZ ; `dynamic atexit destructor for 'CPooledObject<NEffectUpdateDecorator::CHeaderDecorator>::ms_kPool''
  00005	e8 00 00 00 00	 call	 _atexit
  0000a	59		 pop	 ecx
  0000b	c3		 ret	 0
??__E?ms_kPool@?$CPooledObject@VCHeaderDecorator@NEffectUpdateDecorator@@@@1V?$CDynamicPoolEx@VCHeaderDecorator@NEffectUpdateDecorator@@@@A@@YAXXZ ENDP ; `dynamic initializer for 'CPooledObject<NEffectUpdateDecorator::CHeaderDecorator>::ms_kPool''
text$di	ENDS
; Function compile flags: /Ogtp
; File C:\Program Files (x86)\Microsoft Visual Studio\2019\Community\VC\Tools\MSVC\14.28.29333\include\xmemory
;	COMDAT ??$_Uninitialized_move@PAPAVCInstanceBase@@V?$allocator@PAVCInstanceBase@@@std@@@std@@YAPAPAVCInstanceBase@@QAPAV1@0PAPAV1@AAV?$allocator@PAVCInstanceBase@@@0@@Z
_TEXT	SEGMENT
__First$ = 8						; size = 4
__Last$ = 12						; size = 4
__Dest$ = 16						; size = 4
__Al$ = 20						; size = 4
??$_Uninitialized_move@PAPAVCInstanceBase@@V?$allocator@PAVCInstanceBase@@@std@@@std@@YAPAPAVCInstanceBase@@QAPAV1@0PAPAV1@AAV?$allocator@PAVCInstanceBase@@@0@@Z PROC ; std::_Uninitialized_move<CInstanceBase * *,std::allocator<CInstanceBase *> >, COMDAT

; 1685 :     const _InIt _First, const _InIt _Last, _Alloc_ptr_t<_Alloc> _Dest, _Alloc& _Al) {

  00000	55		 push	 ebp
  00001	8b ec		 mov	 ebp, esp
  00003	53		 push	 ebx

; 1686 :     // move [_First, _Last) to raw _Dest, using _Al
; 1687 :     // note: only called internally from elsewhere in the STL
; 1688 :     using _Ptrval     = typename _Alloc::value_type*;
; 1689 :     auto _UFirst      = _Get_unwrapped(_First);
; 1690 :     const auto _ULast = _Get_unwrapped(_Last);
; 1691 :     if constexpr (conjunction_v<bool_constant<_Ptr_move_cat<decltype(_UFirst), _Ptrval>::_Really_trivial>,
; 1692 :                       _Uses_default_construct<_Alloc, _Ptrval, decltype(_STD move(*_UFirst))>>) {
; 1693 :         _Copy_memmove(_UFirst, _ULast, _Unfancy(_Dest));

  00004	8b 5d 10	 mov	 ebx, DWORD PTR __Dest$[ebp]
  00007	57		 push	 edi
  00008	8b 7d 0c	 mov	 edi, DWORD PTR __Last$[ebp]
  0000b	53		 push	 ebx
  0000c	57		 push	 edi
  0000d	ff 75 08	 push	 DWORD PTR __First$[ebp]
  00010	e8 00 00 00 00	 call	 ??$_Copy_memmove@PAPAVCInstanceBase@@PAPAV1@@std@@YAPAPAVCInstanceBase@@PAPAV1@00@Z ; std::_Copy_memmove<CInstanceBase * *,CInstanceBase * *>

; 1694 :         return _Dest + (_ULast - _UFirst);

  00015	2b 7d 08	 sub	 edi, DWORD PTR __First$[ebp]
  00018	83 c4 0c	 add	 esp, 12			; 0000000cH
  0001b	c1 ff 02	 sar	 edi, 2
  0001e	8d 04 bb	 lea	 eax, DWORD PTR [ebx+edi*4]
  00021	5f		 pop	 edi
  00022	5b		 pop	 ebx

; 1695 :     } else {
; 1696 :         _Uninitialized_backout_al<_Alloc> _Backout{_Dest, _Al};
; 1697 :         for (; _UFirst != _ULast; ++_UFirst) {
; 1698 :             _Backout._Emplace_back(_STD move(*_UFirst));
; 1699 :         }
; 1700 : 
; 1701 :         return _Backout._Release();
; 1702 :     }
; 1703 : }

  00023	5d		 pop	 ebp
  00024	c3		 ret	 0
??$_Uninitialized_move@PAPAVCInstanceBase@@V?$allocator@PAVCInstanceBase@@@std@@@std@@YAPAPAVCInstanceBase@@QAPAV1@0PAPAV1@AAV?$allocator@PAVCInstanceBase@@@0@@Z ENDP ; std::_Uninitialized_move<CInstanceBase * *,std::allocator<CInstanceBase *> >
_TEXT	ENDS
; Function compile flags: /Ogtp
; File C:\Program Files (x86)\Microsoft Visual Studio\2019\Community\VC\Tools\MSVC\14.28.29333\include\xmemory
;	COMDAT ??$_Destroy_range@V?$allocator@PAVCRotationDecorator@NEffectUpdateDecorator@@@std@@@std@@YAXPAPAVCRotationDecorator@NEffectUpdateDecorator@@QAPAV12@AAV?$allocator@PAVCRotationDecorator@NEffectUpdateDecorator@@@0@@Z
_TEXT	SEGMENT
__First$ = 8						; size = 4
__Last$ = 12						; size = 4
__Al$ = 16						; size = 4
??$_Destroy_range@V?$allocator@PAVCRotationDecorator@NEffectUpdateDecorator@@@std@@@std@@YAXPAPAVCRotationDecorator@NEffectUpdateDecorator@@QAPAV12@AAV?$allocator@PAVCRotationDecorator@NEffectUpdateDecorator@@@0@@Z PROC ; std::_Destroy_range<std::allocator<NEffectUpdateDecorator::CRotationDecorator *> >, COMDAT

; 963  :     // note that this is an optimization for debug mode codegen; in release mode the BE removes all of this
; 964  :     using _Ty = typename _Alloc::value_type;
; 965  :     if _CONSTEXPR_IF (!conjunction_v<is_trivially_destructible<_Ty>, _Uses_default_destroy<_Alloc, _Ty*>>) {
; 966  :         for (; _First != _Last; ++_First) {
; 967  :             allocator_traits<_Alloc>::destroy(_Al, _Unfancy(_First));
; 968  :         }
; 969  :     }
; 970  : }

  00000	c2 00 00	 ret	 0
??$_Destroy_range@V?$allocator@PAVCRotationDecorator@NEffectUpdateDecorator@@@std@@@std@@YAXPAPAVCRotationDecorator@NEffectUpdateDecorator@@QAPAV12@AAV?$allocator@PAVCRotationDecorator@NEffectUpdateDecorator@@@0@@Z ENDP ; std::_Destroy_range<std::allocator<NEffectUpdateDecorator::CRotationDecorator *> >
_TEXT	ENDS
; Function compile flags: /Ogtp
; File C:\Program Files (x86)\Microsoft Visual Studio\2019\Community\VC\Tools\MSVC\14.28.29333\include\xmemory
;	COMDAT ??$_Destroy_range@V?$allocator@PAVCGravityDecorator@NEffectUpdateDecorator@@@std@@@std@@YAXPAPAVCGravityDecorator@NEffectUpdateDecorator@@QAPAV12@AAV?$allocator@PAVCGravityDecorator@NEffectUpdateDecorator@@@0@@Z
_TEXT	SEGMENT
__First$ = 8						; size = 4
__Last$ = 12						; size = 4
__Al$ = 16						; size = 4
??$_Destroy_range@V?$allocator@PAVCGravityDecorator@NEffectUpdateDecorator@@@std@@@std@@YAXPAPAVCGravityDecorator@NEffectUpdateDecorator@@QAPAV12@AAV?$allocator@PAVCGravityDecorator@NEffectUpdateDecorator@@@0@@Z PROC ; std::_Destroy_range<std::allocator<NEffectUpdateDecorator::CGravityDecorator *> >, COMDAT

; 963  :     // note that this is an optimization for debug mode codegen; in release mode the BE removes all of this
; 964  :     using _Ty = typename _Alloc::value_type;
; 965  :     if _CONSTEXPR_IF (!conjunction_v<is_trivially_destructible<_Ty>, _Uses_default_destroy<_Alloc, _Ty*>>) {
; 966  :         for (; _First != _Last; ++_First) {
; 967  :             allocator_traits<_Alloc>::destroy(_Al, _Unfancy(_First));
; 968  :         }
; 969  :     }
; 970  : }

  00000	c2 00 00	 ret	 0
??$_Destroy_range@V?$allocator@PAVCGravityDecorator@NEffectUpdateDecorator@@@std@@@std@@YAXPAPAVCGravityDecorator@NEffectUpdateDecorator@@QAPAV12@AAV?$allocator@PAVCGravityDecorator@NEffectUpdateDecorator@@@0@@Z ENDP ; std::_Destroy_range<std::allocator<NEffectUpdateDecorator::CGravityDecorator *> >
_TEXT	ENDS
; Function compile flags: /Ogtp
; File C:\Program Files (x86)\Microsoft Visual Studio\2019\Community\VC\Tools\MSVC\14.28.29333\include\xmemory
;	COMDAT ??$_Destroy_range@V?$allocator@PAVCAirResistanceDecorator@NEffectUpdateDecorator@@@std@@@std@@YAXPAPAVCAirResistanceDecorator@NEffectUpdateDecorator@@QAPAV12@AAV?$allocator@PAVCAirResistanceDecorator@NEffectUpdateDecorator@@@0@@Z
_TEXT	SEGMENT
__First$ = 8						; size = 4
__Last$ = 12						; size = 4
__Al$ = 16						; size = 4
??$_Destroy_range@V?$allocator@PAVCAirResistanceDecorator@NEffectUpdateDecorator@@@std@@@std@@YAXPAPAVCAirResistanceDecorator@NEffectUpdateDecorator@@QAPAV12@AAV?$allocator@PAVCAirResistanceDecorator@NEffectUpdateDecorator@@@0@@Z PROC ; std::_Destroy_range<std::allocator<NEffectUpdateDecorator::CAirResistanceDecorator *> >, COMDAT

; 963  :     // note that this is an optimization for debug mode codegen; in release mode the BE removes all of this
; 964  :     using _Ty = typename _Alloc::value_type;
; 965  :     if _CONSTEXPR_IF (!conjunction_v<is_trivially_destructible<_Ty>, _Uses_default_destroy<_Alloc, _Ty*>>) {
; 966  :         for (; _First != _Last; ++_First) {
; 967  :             allocator_traits<_Alloc>::destroy(_Al, _Unfancy(_First));
; 968  :         }
; 969  :     }
; 970  : }

  00000	c2 00 00	 ret	 0
??$_Destroy_range@V?$allocator@PAVCAirResistanceDecorator@NEffectUpdateDecorator@@@std@@@std@@YAXPAPAVCAirResistanceDecorator@NEffectUpdateDecorator@@QAPAV12@AAV?$allocator@PAVCAirResistanceDecorator@NEffectUpdateDecorator@@@0@@Z ENDP ; std::_Destroy_range<std::allocator<NEffectUpdateDecorator::CAirResistanceDecorator *> >
_TEXT	ENDS
; Function compile flags: /Ogtp
; File C:\Program Files (x86)\Microsoft Visual Studio\2019\Community\VC\Tools\MSVC\14.28.29333\include\xmemory
;	COMDAT ??$_Destroy_range@V?$allocator@PAVCTextureAnimationRandomDecorator@NEffectUpdateDecorator@@@std@@@std@@YAXPAPAVCTextureAnimationRandomDecorator@NEffectUpdateDecorator@@QAPAV12@AAV?$allocator@PAVCTextureAnimationRandomDecorator@NEffectUpdateDecorator@@@0@@Z
_TEXT	SEGMENT
__First$ = 8						; size = 4
__Last$ = 12						; size = 4
__Al$ = 16						; size = 4
??$_Destroy_range@V?$allocator@PAVCTextureAnimationRandomDecorator@NEffectUpdateDecorator@@@std@@@std@@YAXPAPAVCTextureAnimationRandomDecorator@NEffectUpdateDecorator@@QAPAV12@AAV?$allocator@PAVCTextureAnimationRandomDecorator@NEffectUpdateDecorator@@@0@@Z PROC ; std::_Destroy_range<std::allocator<NEffectUpdateDecorator::CTextureAnimationRandomDecorator *> >, COMDAT

; 963  :     // note that this is an optimization for debug mode codegen; in release mode the BE removes all of this
; 964  :     using _Ty = typename _Alloc::value_type;
; 965  :     if _CONSTEXPR_IF (!conjunction_v<is_trivially_destructible<_Ty>, _Uses_default_destroy<_Alloc, _Ty*>>) {
; 966  :         for (; _First != _Last; ++_First) {
; 967  :             allocator_traits<_Alloc>::destroy(_Al, _Unfancy(_First));
; 968  :         }
; 969  :     }
; 970  : }

  00000	c2 00 00	 ret	 0
??$_Destroy_range@V?$allocator@PAVCTextureAnimationRandomDecorator@NEffectUpdateDecorator@@@std@@@std@@YAXPAPAVCTextureAnimationRandomDecorator@NEffectUpdateDecorator@@QAPAV12@AAV?$allocator@PAVCTextureAnimationRandomDecorator@NEffectUpdateDecorator@@@0@@Z ENDP ; std::_Destroy_range<std::allocator<NEffectUpdateDecorator::CTextureAnimationRandomDecorator *> >
_TEXT	ENDS
; Function compile flags: /Ogtp
; File C:\Program Files (x86)\Microsoft Visual Studio\2019\Community\VC\Tools\MSVC\14.28.29333\include\xmemory
;	COMDAT ??$_Destroy_range@V?$allocator@PAVCTextureAnimationCCWDecorator@NEffectUpdateDecorator@@@std@@@std@@YAXPAPAVCTextureAnimationCCWDecorator@NEffectUpdateDecorator@@QAPAV12@AAV?$allocator@PAVCTextureAnimationCCWDecorator@NEffectUpdateDecorator@@@0@@Z
_TEXT	SEGMENT
__First$ = 8						; size = 4
__Last$ = 12						; size = 4
__Al$ = 16						; size = 4
??$_Destroy_range@V?$allocator@PAVCTextureAnimationCCWDecorator@NEffectUpdateDecorator@@@std@@@std@@YAXPAPAVCTextureAnimationCCWDecorator@NEffectUpdateDecorator@@QAPAV12@AAV?$allocator@PAVCTextureAnimationCCWDecorator@NEffectUpdateDecorator@@@0@@Z PROC ; std::_Destroy_range<std::allocator<NEffectUpdateDecorator::CTextureAnimationCCWDecorator *> >, COMDAT

; 963  :     // note that this is an optimization for debug mode codegen; in release mode the BE removes all of this
; 964  :     using _Ty = typename _Alloc::value_type;
; 965  :     if _CONSTEXPR_IF (!conjunction_v<is_trivially_destructible<_Ty>, _Uses_default_destroy<_Alloc, _Ty*>>) {
; 966  :         for (; _First != _Last; ++_First) {
; 967  :             allocator_traits<_Alloc>::destroy(_Al, _Unfancy(_First));
; 968  :         }
; 969  :     }
; 970  : }

  00000	c2 00 00	 ret	 0
??$_Destroy_range@V?$allocator@PAVCTextureAnimationCCWDecorator@NEffectUpdateDecorator@@@std@@@std@@YAXPAPAVCTextureAnimationCCWDecorator@NEffectUpdateDecorator@@QAPAV12@AAV?$allocator@PAVCTextureAnimationCCWDecorator@NEffectUpdateDecorator@@@0@@Z ENDP ; std::_Destroy_range<std::allocator<NEffectUpdateDecorator::CTextureAnimationCCWDecorator *> >
_TEXT	ENDS
; Function compile flags: /Ogtp
; File C:\Program Files (x86)\Microsoft Visual Studio\2019\Community\VC\Tools\MSVC\14.28.29333\include\xmemory
;	COMDAT ??$_Destroy_range@V?$allocator@PAVCTextureAnimationCWDecorator@NEffectUpdateDecorator@@@std@@@std@@YAXPAPAVCTextureAnimationCWDecorator@NEffectUpdateDecorator@@QAPAV12@AAV?$allocator@PAVCTextureAnimationCWDecorator@NEffectUpdateDecorator@@@0@@Z
_TEXT	SEGMENT
__First$ = 8						; size = 4
__Last$ = 12						; size = 4
__Al$ = 16						; size = 4
??$_Destroy_range@V?$allocator@PAVCTextureAnimationCWDecorator@NEffectUpdateDecorator@@@std@@@std@@YAXPAPAVCTextureAnimationCWDecorator@NEffectUpdateDecorator@@QAPAV12@AAV?$allocator@PAVCTextureAnimationCWDecorator@NEffectUpdateDecorator@@@0@@Z PROC ; std::_Destroy_range<std::allocator<NEffectUpdateDecorator::CTextureAnimationCWDecorator *> >, COMDAT

; 963  :     // note that this is an optimization for debug mode codegen; in release mode the BE removes all of this
; 964  :     using _Ty = typename _Alloc::value_type;
; 965  :     if _CONSTEXPR_IF (!conjunction_v<is_trivially_destructible<_Ty>, _Uses_default_destroy<_Alloc, _Ty*>>) {
; 966  :         for (; _First != _Last; ++_First) {
; 967  :             allocator_traits<_Alloc>::destroy(_Al, _Unfancy(_First));
; 968  :         }
; 969  :     }
; 970  : }

  00000	c2 00 00	 ret	 0
??$_Destroy_range@V?$allocator@PAVCTextureAnimationCWDecorator@NEffectUpdateDecorator@@@std@@@std@@YAXPAPAVCTextureAnimationCWDecorator@NEffectUpdateDecorator@@QAPAV12@AAV?$allocator@PAVCTextureAnimationCWDecorator@NEffectUpdateDecorator@@@0@@Z ENDP ; std::_Destroy_range<std::allocator<NEffectUpdateDecorator::CTextureAnimationCWDecorator *> >
_TEXT	ENDS
; Function compile flags: /Ogtp
; File C:\Program Files (x86)\Microsoft Visual Studio\2019\Community\VC\Tools\MSVC\14.28.29333\include\xmemory
;	COMDAT ??$_Destroy_range@V?$allocator@PAVCNullDecorator@NEffectUpdateDecorator@@@std@@@std@@YAXPAPAVCNullDecorator@NEffectUpdateDecorator@@QAPAV12@AAV?$allocator@PAVCNullDecorator@NEffectUpdateDecorator@@@0@@Z
_TEXT	SEGMENT
__First$ = 8						; size = 4
__Last$ = 12						; size = 4
__Al$ = 16						; size = 4
??$_Destroy_range@V?$allocator@PAVCNullDecorator@NEffectUpdateDecorator@@@std@@@std@@YAXPAPAVCNullDecorator@NEffectUpdateDecorator@@QAPAV12@AAV?$allocator@PAVCNullDecorator@NEffectUpdateDecorator@@@0@@Z PROC ; std::_Destroy_range<std::allocator<NEffectUpdateDecorator::CNullDecorator *> >, COMDAT

; 963  :     // note that this is an optimization for debug mode codegen; in release mode the BE removes all of this
; 964  :     using _Ty = typename _Alloc::value_type;
; 965  :     if _CONSTEXPR_IF (!conjunction_v<is_trivially_destructible<_Ty>, _Uses_default_destroy<_Alloc, _Ty*>>) {
; 966  :         for (; _First != _Last; ++_First) {
; 967  :             allocator_traits<_Alloc>::destroy(_Al, _Unfancy(_First));
; 968  :         }
; 969  :     }
; 970  : }

  00000	c2 00 00	 ret	 0
??$_Destroy_range@V?$allocator@PAVCNullDecorator@NEffectUpdateDecorator@@@std@@@std@@YAXPAPAVCNullDecorator@NEffectUpdateDecorator@@QAPAV12@AAV?$allocator@PAVCNullDecorator@NEffectUpdateDecorator@@@0@@Z ENDP ; std::_Destroy_range<std::allocator<NEffectUpdateDecorator::CNullDecorator *> >
_TEXT	ENDS
; Function compile flags: /Ogtp
; File C:\Program Files (x86)\Microsoft Visual Studio\2019\Community\VC\Tools\MSVC\14.28.29333\include\xmemory
;	COMDAT ??$_Destroy_range@V?$allocator@PAVCHeaderDecorator@NEffectUpdateDecorator@@@std@@@std@@YAXPAPAVCHeaderDecorator@NEffectUpdateDecorator@@QAPAV12@AAV?$allocator@PAVCHeaderDecorator@NEffectUpdateDecorator@@@0@@Z
_TEXT	SEGMENT
__First$ = 8						; size = 4
__Last$ = 12						; size = 4
__Al$ = 16						; size = 4
??$_Destroy_range@V?$allocator@PAVCHeaderDecorator@NEffectUpdateDecorator@@@std@@@std@@YAXPAPAVCHeaderDecorator@NEffectUpdateDecorator@@QAPAV12@AAV?$allocator@PAVCHeaderDecorator@NEffectUpdateDecorator@@@0@@Z PROC ; std::_Destroy_range<std::allocator<NEffectUpdateDecorator::CHeaderDecorator *> >, COMDAT

; 963  :     // note that this is an optimization for debug mode codegen; in release mode the BE removes all of this
; 964  :     using _Ty = typename _Alloc::value_type;
; 965  :     if _CONSTEXPR_IF (!conjunction_v<is_trivially_destructible<_Ty>, _Uses_default_destroy<_Alloc, _Ty*>>) {
; 966  :         for (; _First != _Last; ++_First) {
; 967  :             allocator_traits<_Alloc>::destroy(_Al, _Unfancy(_First));
; 968  :         }
; 969  :     }
; 970  : }

  00000	c2 00 00	 ret	 0
??$_Destroy_range@V?$allocator@PAVCHeaderDecorator@NEffectUpdateDecorator@@@std@@@std@@YAXPAPAVCHeaderDecorator@NEffectUpdateDecorator@@QAPAV12@AAV?$allocator@PAVCHeaderDecorator@NEffectUpdateDecorator@@@0@@Z ENDP ; std::_Destroy_range<std::allocator<NEffectUpdateDecorator::CHeaderDecorator *> >
_TEXT	ENDS
; Function compile flags: /Ogtp
; File C:\Program Files (x86)\Microsoft Visual Studio\2019\Community\VC\Tools\MSVC\14.28.29333\include\xmemory
;	COMDAT ??$_Destroy_range@V?$allocator@PAVCInstanceBase@@@std@@@std@@YAXPAPAVCInstanceBase@@QAPAV1@AAV?$allocator@PAVCInstanceBase@@@0@@Z
_TEXT	SEGMENT
__First$ = 8						; size = 4
__Last$ = 12						; size = 4
__Al$ = 16						; size = 4
??$_Destroy_range@V?$allocator@PAVCInstanceBase@@@std@@@std@@YAXPAPAVCInstanceBase@@QAPAV1@AAV?$allocator@PAVCInstanceBase@@@0@@Z PROC ; std::_Destroy_range<std::allocator<CInstanceBase *> >, COMDAT

; 963  :     // note that this is an optimization for debug mode codegen; in release mode the BE removes all of this
; 964  :     using _Ty = typename _Alloc::value_type;
; 965  :     if _CONSTEXPR_IF (!conjunction_v<is_trivially_destructible<_Ty>, _Uses_default_destroy<_Alloc, _Ty*>>) {
; 966  :         for (; _First != _Last; ++_First) {
; 967  :             allocator_traits<_Alloc>::destroy(_Al, _Unfancy(_First));
; 968  :         }
; 969  :     }
; 970  : }

  00000	c2 00 00	 ret	 0
??$_Destroy_range@V?$allocator@PAVCInstanceBase@@@std@@@std@@YAXPAPAVCInstanceBase@@QAPAV1@AAV?$allocator@PAVCInstanceBase@@@0@@Z ENDP ; std::_Destroy_range<std::allocator<CInstanceBase *> >
_TEXT	ENDS
; Function compile flags: /Ogtp
; File C:\Program Files (x86)\Microsoft Visual Studio\2019\Community\VC\Tools\MSVC\14.28.29333\include\xmemory
;	COMDAT ??$_Construct_in_place@PAU?$_List_node@USCommand@CInstanceBase@@PAX@std@@AAPAU12@@std@@YAXAAPAU?$_List_node@USCommand@CInstanceBase@@PAX@0@0@Z
_TEXT	SEGMENT
__Obj$ = 8						; size = 4
_<_Args_0>$ = 12					; size = 4
??$_Construct_in_place@PAU?$_List_node@USCommand@CInstanceBase@@PAX@std@@AAPAU12@@std@@YAXAAPAU?$_List_node@USCommand@CInstanceBase@@PAX@0@0@Z PROC ; std::_Construct_in_place<std::_List_node<CInstanceBase::SCommand,void *> *,std::_List_node<CInstanceBase::SCommand,void *> * &>, COMDAT

; 228  : void _Construct_in_place(_Ty& _Obj, _Types&&... _Args) noexcept(is_nothrow_constructible_v<_Ty, _Types...>) {

  00000	55		 push	 ebp
  00001	8b ec		 mov	 ebp, esp

; 229  :     ::new (const_cast<void*>(static_cast<const volatile void*>(_STD addressof(_Obj))))

  00003	8b 45 0c	 mov	 eax, DWORD PTR _<_Args_0>$[ebp]
  00006	8b 08		 mov	 ecx, DWORD PTR [eax]
  00008	8b 45 08	 mov	 eax, DWORD PTR __Obj$[ebp]
  0000b	89 08		 mov	 DWORD PTR [eax], ecx

; 230  :         _Ty(_STD forward<_Types>(_Args)...);
; 231  : }

  0000d	5d		 pop	 ebp
  0000e	c3		 ret	 0
??$_Construct_in_place@PAU?$_List_node@USCommand@CInstanceBase@@PAX@std@@AAPAU12@@std@@YAXAAPAU?$_List_node@USCommand@CInstanceBase@@PAX@0@0@Z ENDP ; std::_Construct_in_place<std::_List_node<CInstanceBase::SCommand,void *> *,std::_List_node<CInstanceBase::SCommand,void *> * &>
_TEXT	ENDS
; Function compile flags: /Ogtp
; File C:\Program Files (x86)\Microsoft Visual Studio\2019\Community\VC\Tools\MSVC\14.28.29333\include\xmemory
;	COMDAT ??$_Construct_in_place@PAU?$_List_node@USEffectDamage@CInstanceBase@@PAX@std@@AAPAU12@@std@@YAXAAPAU?$_List_node@USEffectDamage@CInstanceBase@@PAX@0@0@Z
_TEXT	SEGMENT
__Obj$ = 8						; size = 4
_<_Args_0>$ = 12					; size = 4
??$_Construct_in_place@PAU?$_List_node@USEffectDamage@CInstanceBase@@PAX@std@@AAPAU12@@std@@YAXAAPAU?$_List_node@USEffectDamage@CInstanceBase@@PAX@0@0@Z PROC ; std::_Construct_in_place<std::_List_node<CInstanceBase::SEffectDamage,void *> *,std::_List_node<CInstanceBase::SEffectDamage,void *> * &>, COMDAT

; 228  : void _Construct_in_place(_Ty& _Obj, _Types&&... _Args) noexcept(is_nothrow_constructible_v<_Ty, _Types...>) {

  00000	55		 push	 ebp
  00001	8b ec		 mov	 ebp, esp

; 229  :     ::new (const_cast<void*>(static_cast<const volatile void*>(_STD addressof(_Obj))))

  00003	8b 45 0c	 mov	 eax, DWORD PTR _<_Args_0>$[ebp]
  00006	8b 08		 mov	 ecx, DWORD PTR [eax]
  00008	8b 45 08	 mov	 eax, DWORD PTR __Obj$[ebp]
  0000b	89 08		 mov	 DWORD PTR [eax], ecx

; 230  :         _Ty(_STD forward<_Types>(_Args)...);
; 231  : }

  0000d	5d		 pop	 ebp
  0000e	c3		 ret	 0
??$_Construct_in_place@PAU?$_List_node@USEffectDamage@CInstanceBase@@PAX@std@@AAPAU12@@std@@YAXAAPAU?$_List_node@USEffectDamage@CInstanceBase@@PAX@0@0@Z ENDP ; std::_Construct_in_place<std::_List_node<CInstanceBase::SEffectDamage,void *> *,std::_List_node<CInstanceBase::SEffectDamage,void *> * &>
_TEXT	ENDS
; Function compile flags: /Ogtp
; File C:\Program Files (x86)\Microsoft Visual Studio\2019\Community\VC\Tools\MSVC\14.28.29333\include\vector
; File C:\Program Files (x86)\Microsoft Visual Studio\2019\Community\VC\Tools\MSVC\14.28.29333\include\xmemory
; File C:\Program Files (x86)\Microsoft Visual Studio\2019\Community\VC\Tools\MSVC\14.28.29333\include\vector
; File C:\Program Files (x86)\Microsoft Visual Studio\2019\Community\VC\Tools\MSVC\14.28.29333\include\xmemory
; File C:\Program Files (x86)\Microsoft Visual Studio\2019\Community\VC\Tools\MSVC\14.28.29333\include\vector
; File C:\Program Files (x86)\Microsoft Visual Studio\2019\Community\VC\Tools\MSVC\14.28.29333\include\xmemory
; File C:\Program Files (x86)\Microsoft Visual Studio\2019\Community\VC\Tools\MSVC\14.28.29333\include\vector
; File C:\Program Files (x86)\Microsoft Visual Studio\2019\Community\VC\Tools\MSVC\14.28.29333\include\xmemory
; File C:\Program Files (x86)\Microsoft Visual Studio\2019\Community\VC\Tools\MSVC\14.28.29333\include\vector
; File C:\Program Files (x86)\Microsoft Visual Studio\2019\Community\VC\Tools\MSVC\14.28.29333\include\xmemory
; File C:\Program Files (x86)\Microsoft Visual Studio\2019\Community\VC\Tools\MSVC\14.28.29333\include\vector
; File C:\Program Files (x86)\Microsoft Visual Studio\2019\Community\VC\Tools\MSVC\14.28.29333\include\xmemory
; File C:\Program Files (x86)\Microsoft Visual Studio\2019\Community\VC\Tools\MSVC\14.28.29333\include\vector
;	COMDAT ??$_Emplace_reallocate@ABQAVCInstanceBase@@@?$vector@PAVCInstanceBase@@V?$allocator@PAVCInstanceBase@@@std@@@std@@QAEPAPAVCInstanceBase@@QAPAV2@ABQAV2@@Z
_TEXT	SEGMENT
tv435 = -12						; size = 4
__Newsize$1$ = -8					; size = 4
tv434 = -4						; size = 4
__Whereptr$ = 8						; size = 4
_<_Val_0>$ = 12						; size = 4
??$_Emplace_reallocate@ABQAVCInstanceBase@@@?$vector@PAVCInstanceBase@@V?$allocator@PAVCInstanceBase@@@std@@@std@@QAEPAPAVCInstanceBase@@QAPAV2@ABQAV2@@Z PROC ; std::vector<CInstanceBase *,std::allocator<CInstanceBase *> >::_Emplace_reallocate<CInstanceBase * const &>, COMDAT
; _this$ = ecx

; 725  :     pointer _Emplace_reallocate(const pointer _Whereptr, _Valty&&... _Val) {

  00000	55		 push	 ebp
  00001	8b ec		 mov	 ebp, esp
  00003	83 ec 0c	 sub	 esp, 12			; 0000000cH
  00006	53		 push	 ebx

; 726  :         // reallocate and insert by perfectly forwarding _Val at _Whereptr
; 727  :         _Alty& _Al        = _Getal();
; 728  :         auto& _My_data    = _Mypair._Myval2;
; 729  :         pointer& _Myfirst = _My_data._Myfirst;
; 730  :         pointer& _Mylast  = _My_data._Mylast;
; 731  : 
; 732  :         _STL_INTERNAL_CHECK(_Mylast == _My_data._Myend); // check that we have no unused capacity
; 733  : 
; 734  :         const auto _Whereoff = static_cast<size_type>(_Whereptr - _Myfirst);

  00007	8b 5d 08	 mov	 ebx, DWORD PTR __Whereptr$[ebp]
  0000a	56		 push	 esi
  0000b	8b f1		 mov	 esi, ecx
  0000d	57		 push	 edi
  0000e	8b 16		 mov	 edx, DWORD PTR [esi]
  00010	2b da		 sub	 ebx, edx

; 735  :         const auto _Oldsize  = static_cast<size_type>(_Mylast - _Myfirst);

  00012	8b 46 04	 mov	 eax, DWORD PTR [esi+4]
  00015	2b c2		 sub	 eax, edx
  00017	c1 fb 02	 sar	 ebx, 2
  0001a	c1 f8 02	 sar	 eax, 2

; 736  : 
; 737  :         if (_Oldsize == max_size()) {

  0001d	3d ff ff ff 3f	 cmp	 eax, 1073741823		; 3fffffffH
  00022	0f 84 c4 00 00
	00		 je	 $LN39@Emplace_re

; 1494 :         return static_cast<size_type>(_My_data._Myend - _My_data._Myfirst);

  00028	8b 4e 08	 mov	 ecx, DWORD PTR [esi+8]

; 739  :         }
; 740  : 
; 741  :         const size_type _Newsize     = _Oldsize + 1;

  0002b	8d 78 01	 lea	 edi, DWORD PTR [eax+1]

; 1494 :         return static_cast<size_type>(_My_data._Myend - _My_data._Myfirst);

  0002e	2b ca		 sub	 ecx, edx

; 739  :         }
; 740  : 
; 741  :         const size_type _Newsize     = _Oldsize + 1;

  00030	89 7d f8	 mov	 DWORD PTR __Newsize$1$[ebp], edi

; 1494 :         return static_cast<size_type>(_My_data._Myend - _My_data._Myfirst);

  00033	c1 f9 02	 sar	 ecx, 2

; 1620 :         if (_Oldcapacity > _Max - _Oldcapacity / 2) {

  00036	b8 ff ff ff 3f	 mov	 eax, 1073741823		; 3fffffffH
  0003b	8b d1		 mov	 edx, ecx
  0003d	d1 ea		 shr	 edx, 1
  0003f	2b c2		 sub	 eax, edx
  00041	3b c8		 cmp	 ecx, eax
  00043	76 3a		 jbe	 SHORT $LN12@Emplace_re

; 1621 :             return _Max; // geometric growth would overflow

  00045	b9 ff ff ff 3f	 mov	 ecx, 1073741823		; 3fffffffH
$LN20@Emplace_re:
; File C:\Program Files (x86)\Microsoft Visual Studio\2019\Community\VC\Tools\MSVC\14.28.29333\include\xmemory

; 65   :     return _Count * _Ty_size;

  0004a	8d 04 8d 00 00
	00 00		 lea	 eax, DWORD PTR [ecx*4]

; 814  :         return static_cast<_Ty*>(_Allocate<_New_alignof<_Ty>>(_Get_size_of_n<sizeof(_Ty)>(_Count)));

  00051	50		 push	 eax

; 65   :     return _Count * _Ty_size;

  00052	89 45 f4	 mov	 DWORD PTR tv435[ebp], eax

; 814  :         return static_cast<_Ty*>(_Allocate<_New_alignof<_Ty>>(_Get_size_of_n<sizeof(_Ty)>(_Count)));

  00055	e8 00 00 00 00	 call	 ??$_Allocate@$07U_Default_allocate_traits@std@@$0A@@std@@YAPAXI@Z ; std::_Allocate<8,std::_Default_allocate_traits,0>
; File C:\Program Files (x86)\Microsoft Visual Studio\2019\Community\VC\Tools\MSVC\14.28.29333\include\vector

; 749  :         _Alty_traits::construct(_Al, _Unfancy(_Newvec + _Whereoff), _STD forward<_Valty>(_Val)...);

  0005a	8b 4d 0c	 mov	 ecx, DWORD PTR _<_Val_0>$[ebp]
; File C:\Program Files (x86)\Microsoft Visual Studio\2019\Community\VC\Tools\MSVC\14.28.29333\include\xmemory

; 814  :         return static_cast<_Ty*>(_Allocate<_New_alignof<_Ty>>(_Get_size_of_n<sizeof(_Ty)>(_Count)));

  0005d	8b f8		 mov	 edi, eax
; File C:\Program Files (x86)\Microsoft Visual Studio\2019\Community\VC\Tools\MSVC\14.28.29333\include\vector

; 749  :         _Alty_traits::construct(_Al, _Unfancy(_Newvec + _Whereoff), _STD forward<_Valty>(_Val)...);

  0005f	8d 04 9f	 lea	 eax, DWORD PTR [edi+ebx*4]
; File C:\Program Files (x86)\Microsoft Visual Studio\2019\Community\VC\Tools\MSVC\14.28.29333\include\xmemory

; 814  :         return static_cast<_Ty*>(_Allocate<_New_alignof<_Ty>>(_Get_size_of_n<sizeof(_Ty)>(_Count)));

  00062	83 c4 04	 add	 esp, 4
; File C:\Program Files (x86)\Microsoft Visual Studio\2019\Community\VC\Tools\MSVC\14.28.29333\include\vector

; 752  :         if (_Whereptr == _Mylast) { // at back, provide strong guarantee

  00065	8b 5d 08	 mov	 ebx, DWORD PTR __Whereptr$[ebp]
  00068	89 45 fc	 mov	 DWORD PTR tv434[ebp], eax
  0006b	8b 09		 mov	 ecx, DWORD PTR [ecx]
  0006d	89 08		 mov	 DWORD PTR [eax], ecx
  0006f	8b 56 04	 mov	 edx, DWORD PTR [esi+4]
  00072	8b 0e		 mov	 ecx, DWORD PTR [esi]
  00074	3b da		 cmp	 ebx, edx
  00076	75 1b		 jne	 SHORT $LN4@Emplace_re

; 753  :             _Umove_if_noexcept(_Myfirst, _Mylast, _Newvec);
; 754  :         } else { // provide basic guarantee

  00078	8b 5d fc	 mov	 ebx, DWORD PTR tv434[ebp]

; 1597 :         _Uninitialized_move(_First, _Last, _Dest, _Getal());

  0007b	8b c7		 mov	 eax, edi

; 753  :             _Umove_if_noexcept(_Myfirst, _Mylast, _Newvec);
; 754  :         } else { // provide basic guarantee

  0007d	eb 2b		 jmp	 SHORT $LN5@Emplace_re
$LN12@Emplace_re:

; 1624 :         const size_type _Geometric = _Oldcapacity + _Oldcapacity / 2;

  0007f	8d 04 0a	 lea	 eax, DWORD PTR [edx+ecx]
; File C:\Program Files (x86)\Microsoft Visual Studio\2019\Community\VC\Tools\MSVC\14.28.29333\include\xmemory

; 60   :         if (_Count > _Max_possible) {

  00082	8b cf		 mov	 ecx, edi
  00084	3b c7		 cmp	 eax, edi
  00086	0f 43 c8	 cmovae	 ecx, eax
  00089	81 f9 ff ff ff
	3f		 cmp	 ecx, 1073741823		; 3fffffffH
  0008f	77 60		 ja	 SHORT $LN40@Emplace_re
  00091	eb b7		 jmp	 SHORT $LN20@Emplace_re
$LN4@Emplace_re:
; File C:\Program Files (x86)\Microsoft Visual Studio\2019\Community\VC\Tools\MSVC\14.28.29333\include\vector

; 1592 :         return _Uninitialized_move(_First, _Last, _Dest, _Getal());

  00093	56		 push	 esi
  00094	57		 push	 edi
  00095	53		 push	 ebx
  00096	51		 push	 ecx
  00097	e8 00 00 00 00	 call	 ??$_Uninitialized_move@PAPAVCInstanceBase@@V?$allocator@PAVCInstanceBase@@@std@@@std@@YAPAPAVCInstanceBase@@QAPAV1@0PAPAV1@AAV?$allocator@PAVCInstanceBase@@@0@@Z ; std::_Uninitialized_move<CInstanceBase * *,std::allocator<CInstanceBase *> >
  0009c	8b 56 04	 mov	 edx, DWORD PTR [esi+4]
  0009f	8b cb		 mov	 ecx, ebx

; 755  :             _Umove(_Myfirst, _Whereptr, _Newvec);
; 756  :             _Constructed_first = _Newvec;
; 757  :             _Umove(_Whereptr, _Mylast, _Newvec + _Whereoff + 1);

  000a1	8b 5d fc	 mov	 ebx, DWORD PTR tv434[ebp]

; 1592 :         return _Uninitialized_move(_First, _Last, _Dest, _Getal());

  000a4	83 c4 10	 add	 esp, 16			; 00000010H

; 755  :             _Umove(_Myfirst, _Whereptr, _Newvec);
; 756  :             _Constructed_first = _Newvec;
; 757  :             _Umove(_Whereptr, _Mylast, _Newvec + _Whereoff + 1);

  000a7	8d 43 04	 lea	 eax, DWORD PTR [ebx+4]
$LN5@Emplace_re:
  000aa	56		 push	 esi
  000ab	50		 push	 eax
  000ac	52		 push	 edx
  000ad	51		 push	 ecx
  000ae	e8 00 00 00 00	 call	 ??$_Uninitialized_move@PAPAVCInstanceBase@@V?$allocator@PAVCInstanceBase@@@std@@@std@@YAPAPAVCInstanceBase@@QAPAV1@0PAPAV1@AAV?$allocator@PAVCInstanceBase@@@0@@Z ; std::_Uninitialized_move<CInstanceBase * *,std::allocator<CInstanceBase *> >

; 1676 :         if (_Myfirst) { // destroy and deallocate old array

  000b3	8b 0e		 mov	 ecx, DWORD PTR [esi]

; 755  :             _Umove(_Myfirst, _Whereptr, _Newvec);
; 756  :             _Constructed_first = _Newvec;
; 757  :             _Umove(_Whereptr, _Mylast, _Newvec + _Whereoff + 1);

  000b5	83 c4 10	 add	 esp, 16			; 00000010H

; 1676 :         if (_Myfirst) { // destroy and deallocate old array

  000b8	85 c9		 test	 ecx, ecx
  000ba	74 12		 je	 SHORT $LN33@Emplace_re

; 1677 :             _Destroy(_Myfirst, _Mylast);
; 1678 :             _Getal().deallocate(_Myfirst, static_cast<size_type>(_Myend - _Myfirst));

  000bc	8b 46 08	 mov	 eax, DWORD PTR [esi+8]
  000bf	2b c1		 sub	 eax, ecx
; File C:\Program Files (x86)\Microsoft Visual Studio\2019\Community\VC\Tools\MSVC\14.28.29333\include\xmemory

; 810  :         _Deallocate<_New_alignof<_Ty>>(_Ptr, sizeof(_Ty) * _Count);

  000c1	83 e0 fc	 and	 eax, -4			; fffffffcH
  000c4	50		 push	 eax
  000c5	51		 push	 ecx
  000c6	e8 00 00 00 00	 call	 ??$_Deallocate@$07$0A@@std@@YAXPAXI@Z ; std::_Deallocate<8,0>
  000cb	83 c4 08	 add	 esp, 8
$LN33@Emplace_re:
; File C:\Program Files (x86)\Microsoft Visual Studio\2019\Community\VC\Tools\MSVC\14.28.29333\include\vector

; 1682 :         _Mylast  = _Newvec + _Newsize;

  000ce	8b 45 f8	 mov	 eax, DWORD PTR __Newsize$1$[ebp]
  000d1	89 3e		 mov	 DWORD PTR [esi], edi
  000d3	8d 0c 87	 lea	 ecx, DWORD PTR [edi+eax*4]

; 758  :         }
; 759  :         _CATCH_ALL
; 760  :         _Destroy(_Constructed_first, _Constructed_last);
; 761  :         _Al.deallocate(_Newvec, _Newcapacity);
; 762  :         _RERAISE;
; 763  :         _CATCH_END
; 764  : 
; 765  :         _Change_array(_Newvec, _Newsize, _Newcapacity);
; 766  :         return _Newvec + _Whereoff;

  000d6	8b c3		 mov	 eax, ebx

; 1682 :         _Mylast  = _Newvec + _Newsize;

  000d8	89 4e 04	 mov	 DWORD PTR [esi+4], ecx

; 1683 :         _Myend   = _Newvec + _Newcapacity;

  000db	8b 4d f4	 mov	 ecx, DWORD PTR tv435[ebp]
  000de	03 cf		 add	 ecx, edi

; 758  :         }
; 759  :         _CATCH_ALL
; 760  :         _Destroy(_Constructed_first, _Constructed_last);
; 761  :         _Al.deallocate(_Newvec, _Newcapacity);
; 762  :         _RERAISE;
; 763  :         _CATCH_END
; 764  : 
; 765  :         _Change_array(_Newvec, _Newsize, _Newcapacity);
; 766  :         return _Newvec + _Whereoff;

  000e0	5f		 pop	 edi

; 1683 :         _Myend   = _Newvec + _Newcapacity;

  000e1	89 4e 08	 mov	 DWORD PTR [esi+8], ecx

; 758  :         }
; 759  :         _CATCH_ALL
; 760  :         _Destroy(_Constructed_first, _Constructed_last);
; 761  :         _Al.deallocate(_Newvec, _Newcapacity);
; 762  :         _RERAISE;
; 763  :         _CATCH_END
; 764  : 
; 765  :         _Change_array(_Newvec, _Newsize, _Newcapacity);
; 766  :         return _Newvec + _Whereoff;

  000e4	5e		 pop	 esi
  000e5	5b		 pop	 ebx

; 767  :     }

  000e6	8b e5		 mov	 esp, ebp
  000e8	5d		 pop	 ebp
  000e9	c2 08 00	 ret	 8
$LN39@Emplace_re:

; 738  :             _Xlength();

  000ec	e8 00 00 00 00	 call	 ?_Xlength@?$vector@PAVCInstanceBase@@V?$allocator@PAVCInstanceBase@@@std@@@std@@CAXXZ ; std::vector<CInstanceBase *,std::allocator<CInstanceBase *> >::_Xlength
$LN40@Emplace_re:
; File C:\Program Files (x86)\Microsoft Visual Studio\2019\Community\VC\Tools\MSVC\14.28.29333\include\xmemory

; 61   :             _Throw_bad_array_new_length(); // multiply overflow

  000f1	e8 00 00 00 00	 call	 ?_Throw_bad_array_new_length@std@@YAXXZ ; std::_Throw_bad_array_new_length
$LN37@Emplace_re:
  000f6	cc		 int	 3
??$_Emplace_reallocate@ABQAVCInstanceBase@@@?$vector@PAVCInstanceBase@@V?$allocator@PAVCInstanceBase@@@std@@@std@@QAEPAPAVCInstanceBase@@QAPAV2@ABQAV2@@Z ENDP ; std::vector<CInstanceBase *,std::allocator<CInstanceBase *> >::_Emplace_reallocate<CInstanceBase * const &>
_TEXT	ENDS
; Function compile flags: /Ogtp
;	COMDAT ??_G?$CDynamicPoolEx@VCHeaderDecorator@NEffectUpdateDecorator@@@@UAEPAXI@Z
_TEXT	SEGMENT
___flags$ = 8						; size = 4
??_G?$CDynamicPoolEx@VCHeaderDecorator@NEffectUpdateDecorator@@@@UAEPAXI@Z PROC ; CDynamicPoolEx<NEffectUpdateDecorator::CHeaderDecorator>::`scalar deleting destructor', COMDAT
; _this$ = ecx
  00000	55		 push	 ebp
  00001	8b ec		 mov	 ebp, esp
  00003	56		 push	 esi
  00004	8b f1		 mov	 esi, ecx
  00006	e8 00 00 00 00	 call	 ??1?$CDynamicPoolEx@VCHeaderDecorator@NEffectUpdateDecorator@@@@UAE@XZ ; CDynamicPoolEx<NEffectUpdateDecorator::CHeaderDecorator>::~CDynamicPoolEx<NEffectUpdateDecorator::CHeaderDecorator>
  0000b	f6 45 08 01	 test	 BYTE PTR ___flags$[ebp], 1
  0000f	74 0b		 je	 SHORT $LN4@scalar
  00011	6a 24		 push	 36			; 00000024H
  00013	56		 push	 esi
  00014	e8 00 00 00 00	 call	 ??3@YAXPAXI@Z		; operator delete
  00019	83 c4 08	 add	 esp, 8
$LN4@scalar:
  0001c	8b c6		 mov	 eax, esi
  0001e	5e		 pop	 esi
  0001f	5d		 pop	 ebp
  00020	c2 04 00	 ret	 4
??_G?$CDynamicPoolEx@VCHeaderDecorator@NEffectUpdateDecorator@@@@UAEPAXI@Z ENDP ; CDynamicPoolEx<NEffectUpdateDecorator::CHeaderDecorator>::`scalar deleting destructor'
_TEXT	ENDS
; Function compile flags: /Ogtp
; File D:\Metin2 Server Files\mainline\SRC_2014\Metin2Client\eterLib\Pool.h
;	COMDAT ?Delete@?$CDynamicPoolEx@VCHeaderDecorator@NEffectUpdateDecorator@@@@KAXPAVCHeaderDecorator@NEffectUpdateDecorator@@@Z
_TEXT	SEGMENT
_pkData$ = 8						; size = 4
?Delete@?$CDynamicPoolEx@VCHeaderDecorator@NEffectUpdateDecorator@@@@KAXPAVCHeaderDecorator@NEffectUpdateDecorator@@@Z PROC ; CDynamicPoolEx<NEffectUpdateDecorator::CHeaderDecorator>::Delete, COMDAT

; 224  : 			::operator delete(pkData);

  00000	e9 00 00 00 00	 jmp	 ??3@YAXPAX@Z		; operator delete
?Delete@?$CDynamicPoolEx@VCHeaderDecorator@NEffectUpdateDecorator@@@@KAXPAVCHeaderDecorator@NEffectUpdateDecorator@@@Z ENDP ; CDynamicPoolEx<NEffectUpdateDecorator::CHeaderDecorator>::Delete
_TEXT	ENDS
; Function compile flags: /Ogtp
; File D:\Metin2 Server Files\mainline\SRC_2014\Metin2Client\eterLib\Pool.h
; File C:\Program Files (x86)\Microsoft Visual Studio\2019\Community\VC\Tools\MSVC\14.28.29333\include\vector
; File C:\Program Files (x86)\Microsoft Visual Studio\2019\Community\VC\Tools\MSVC\14.28.29333\include\algorithm
; File D:\Metin2 Server Files\mainline\SRC_2014\Metin2Client\eterLib\Pool.h
; File C:\Program Files (x86)\Microsoft Visual Studio\2019\Community\VC\Tools\MSVC\14.28.29333\include\algorithm
; File D:\Metin2 Server Files\mainline\SRC_2014\Metin2Client\eterLib\Pool.h
; File C:\Program Files (x86)\Microsoft Visual Studio\2019\Community\VC\Tools\MSVC\14.28.29333\include\algorithm
; File D:\Metin2 Server Files\mainline\SRC_2014\Metin2Client\eterLib\Pool.h
; File C:\Program Files (x86)\Microsoft Visual Studio\2019\Community\VC\Tools\MSVC\14.28.29333\include\vector
; File C:\Program Files (x86)\Microsoft Visual Studio\2019\Community\VC\Tools\MSVC\14.28.29333\include\xmemory
; File C:\Program Files (x86)\Microsoft Visual Studio\2019\Community\VC\Tools\MSVC\14.28.29333\include\vector
; File C:\Program Files (x86)\Microsoft Visual Studio\2019\Community\VC\Tools\MSVC\14.28.29333\include\xmemory
; File C:\Program Files (x86)\Microsoft Visual Studio\2019\Community\VC\Tools\MSVC\14.28.29333\include\vector
; File C:\Program Files (x86)\Microsoft Visual Studio\2019\Community\VC\Tools\MSVC\14.28.29333\include\xmemory
; File C:\Program Files (x86)\Microsoft Visual Studio\2019\Community\VC\Tools\MSVC\14.28.29333\include\vector
; File C:\Program Files (x86)\Microsoft Visual Studio\2019\Community\VC\Tools\MSVC\14.28.29333\include\xmemory
; File C:\Program Files (x86)\Microsoft Visual Studio\2019\Community\VC\Tools\MSVC\14.28.29333\include\vector
; File D:\Metin2 Server Files\mainline\SRC_2014\Metin2Client\eterLib\Pool.h
;	COMDAT ??1?$CDynamicPoolEx@VCHeaderDecorator@NEffectUpdateDecorator@@@@UAE@XZ
_TEXT	SEGMENT
??1?$CDynamicPoolEx@VCHeaderDecorator@NEffectUpdateDecorator@@@@UAE@XZ PROC ; CDynamicPoolEx<NEffectUpdateDecorator::CHeaderDecorator>::~CDynamicPoolEx<NEffectUpdateDecorator::CHeaderDecorator>, COMDAT
; _this$ = ecx

; 132  : 		{

  00000	53		 push	 ebx
  00001	56		 push	 esi
  00002	57		 push	 edi
  00003	8b f9		 mov	 edi, ecx
  00005	c7 07 00 00 00
	00		 mov	 DWORD PTR [edi], OFFSET ??_7?$CDynamicPoolEx@VCHeaderDecorator@NEffectUpdateDecorator@@@@6B@
; File C:\Program Files (x86)\Microsoft Visual Studio\2019\Community\VC\Tools\MSVC\14.28.29333\include\vector

; 42   :     _Vector_const_iterator(_Tptr _Parg, const _Container_base* _Pvector) noexcept : _Ptr(_Parg) {

  0000b	8b 5f 08	 mov	 ebx, DWORD PTR [edi+8]
  0000e	8b 77 04	 mov	 esi, DWORD PTR [edi+4]
; File C:\Program Files (x86)\Microsoft Visual Studio\2019\Community\VC\Tools\MSVC\14.28.29333\include\algorithm

; 307  :     for (; _UFirst != _ULast; ++_UFirst) {

  00011	3b f3		 cmp	 esi, ebx
  00013	74 14		 je	 SHORT $LN19@CDynamicPo
$LL20@CDynamicPo:
; File D:\Metin2 Server Files\mainline\SRC_2014\Metin2Client\eterLib\Pool.h

; 224  : 			::operator delete(pkData);

  00015	ff 36		 push	 DWORD PTR [esi]
  00017	e8 00 00 00 00	 call	 ??3@YAXPAX@Z		; operator delete
; File C:\Program Files (x86)\Microsoft Visual Studio\2019\Community\VC\Tools\MSVC\14.28.29333\include\algorithm

; 307  :     for (; _UFirst != _ULast; ++_UFirst) {

  0001c	83 c6 04	 add	 esi, 4
; File D:\Metin2 Server Files\mainline\SRC_2014\Metin2Client\eterLib\Pool.h

; 224  : 			::operator delete(pkData);

  0001f	83 c4 04	 add	 esp, 4
; File C:\Program Files (x86)\Microsoft Visual Studio\2019\Community\VC\Tools\MSVC\14.28.29333\include\algorithm

; 307  :     for (; _UFirst != _ULast; ++_UFirst) {

  00022	3b f3		 cmp	 esi, ebx
  00024	75 ef		 jne	 SHORT $LL20@CDynamicPo
  00026	8b 77 04	 mov	 esi, DWORD PTR [edi+4]
$LN19@CDynamicPo:
; File D:\Metin2 Server Files\mainline\SRC_2014\Metin2Client\eterLib\Pool.h

; 162  : 			m_kVct_pkFree.clear();

  00029	8b 4f 10	 mov	 ecx, DWORD PTR [edi+16]
  0002c	89 77 08	 mov	 DWORD PTR [edi+8], esi
  0002f	89 4f 14	 mov	 DWORD PTR [edi+20], ecx
; File C:\Program Files (x86)\Microsoft Visual Studio\2019\Community\VC\Tools\MSVC\14.28.29333\include\vector

; 1694 :         if (_Myfirst) { // destroy and deallocate old array

  00032	85 c9		 test	 ecx, ecx
  00034	74 27		 je	 SHORT $LN27@CDynamicPo

; 1695 :             _Destroy(_Myfirst, _Mylast);
; 1696 :             _Getal().deallocate(_Myfirst, static_cast<size_type>(_Myend - _Myfirst));

  00036	8b 47 18	 mov	 eax, DWORD PTR [edi+24]
  00039	2b c1		 sub	 eax, ecx
; File C:\Program Files (x86)\Microsoft Visual Studio\2019\Community\VC\Tools\MSVC\14.28.29333\include\xmemory

; 810  :         _Deallocate<_New_alignof<_Ty>>(_Ptr, sizeof(_Ty) * _Count);

  0003b	83 e0 fc	 and	 eax, -4			; fffffffcH
  0003e	50		 push	 eax
  0003f	51		 push	 ecx
  00040	e8 00 00 00 00	 call	 ??$_Deallocate@$07$0A@@std@@YAXPAXI@Z ; std::_Deallocate<8,0>
; File C:\Program Files (x86)\Microsoft Visual Studio\2019\Community\VC\Tools\MSVC\14.28.29333\include\vector

; 1698 :             _Myfirst = pointer();

  00045	c7 47 10 00 00
	00 00		 mov	 DWORD PTR [edi+16], 0
; File C:\Program Files (x86)\Microsoft Visual Studio\2019\Community\VC\Tools\MSVC\14.28.29333\include\xmemory

; 810  :         _Deallocate<_New_alignof<_Ty>>(_Ptr, sizeof(_Ty) * _Count);

  0004c	83 c4 08	 add	 esp, 8
; File C:\Program Files (x86)\Microsoft Visual Studio\2019\Community\VC\Tools\MSVC\14.28.29333\include\vector

; 1699 :             _Mylast  = pointer();

  0004f	c7 47 14 00 00
	00 00		 mov	 DWORD PTR [edi+20], 0

; 1700 :             _Myend   = pointer();

  00056	c7 47 18 00 00
	00 00		 mov	 DWORD PTR [edi+24], 0
$LN27@CDynamicPo:

; 1694 :         if (_Myfirst) { // destroy and deallocate old array

  0005d	8b 4f 04	 mov	 ecx, DWORD PTR [edi+4]
  00060	85 c9		 test	 ecx, ecx
  00062	74 27		 je	 SHORT $LN34@CDynamicPo

; 1695 :             _Destroy(_Myfirst, _Mylast);
; 1696 :             _Getal().deallocate(_Myfirst, static_cast<size_type>(_Myend - _Myfirst));

  00064	8b 47 0c	 mov	 eax, DWORD PTR [edi+12]
  00067	2b c1		 sub	 eax, ecx
; File C:\Program Files (x86)\Microsoft Visual Studio\2019\Community\VC\Tools\MSVC\14.28.29333\include\xmemory

; 810  :         _Deallocate<_New_alignof<_Ty>>(_Ptr, sizeof(_Ty) * _Count);

  00069	83 e0 fc	 and	 eax, -4			; fffffffcH
  0006c	50		 push	 eax
  0006d	51		 push	 ecx
  0006e	e8 00 00 00 00	 call	 ??$_Deallocate@$07$0A@@std@@YAXPAXI@Z ; std::_Deallocate<8,0>
; File C:\Program Files (x86)\Microsoft Visual Studio\2019\Community\VC\Tools\MSVC\14.28.29333\include\vector

; 1698 :             _Myfirst = pointer();

  00073	c7 47 04 00 00
	00 00		 mov	 DWORD PTR [edi+4], 0
; File C:\Program Files (x86)\Microsoft Visual Studio\2019\Community\VC\Tools\MSVC\14.28.29333\include\xmemory

; 810  :         _Deallocate<_New_alignof<_Ty>>(_Ptr, sizeof(_Ty) * _Count);

  0007a	83 c4 08	 add	 esp, 8
; File C:\Program Files (x86)\Microsoft Visual Studio\2019\Community\VC\Tools\MSVC\14.28.29333\include\vector

; 1699 :             _Mylast  = pointer();

  0007d	c7 47 08 00 00
	00 00		 mov	 DWORD PTR [edi+8], 0

; 1700 :             _Myend   = pointer();

  00084	c7 47 0c 00 00
	00 00		 mov	 DWORD PTR [edi+12], 0
$LN34@CDynamicPo:
  0008b	5f		 pop	 edi
; File D:\Metin2 Server Files\mainline\SRC_2014\Metin2Client\eterLib\Pool.h

; 142  : 		}

  0008c	5e		 pop	 esi
  0008d	5b		 pop	 ebx
  0008e	c3		 ret	 0
??1?$CDynamicPoolEx@VCHeaderDecorator@NEffectUpdateDecorator@@@@UAE@XZ ENDP ; CDynamicPoolEx<NEffectUpdateDecorator::CHeaderDecorator>::~CDynamicPoolEx<NEffectUpdateDecorator::CHeaderDecorator>
_TEXT	ENDS
; Function compile flags: /Ogtp
;	COMDAT ??_G?$CDynamicPoolEx@VCNullDecorator@NEffectUpdateDecorator@@@@UAEPAXI@Z
_TEXT	SEGMENT
___flags$ = 8						; size = 4
??_G?$CDynamicPoolEx@VCNullDecorator@NEffectUpdateDecorator@@@@UAEPAXI@Z PROC ; CDynamicPoolEx<NEffectUpdateDecorator::CNullDecorator>::`scalar deleting destructor', COMDAT
; _this$ = ecx
  00000	55		 push	 ebp
  00001	8b ec		 mov	 ebp, esp
  00003	56		 push	 esi
  00004	8b f1		 mov	 esi, ecx
  00006	e8 00 00 00 00	 call	 ??1?$CDynamicPoolEx@VCNullDecorator@NEffectUpdateDecorator@@@@UAE@XZ ; CDynamicPoolEx<NEffectUpdateDecorator::CNullDecorator>::~CDynamicPoolEx<NEffectUpdateDecorator::CNullDecorator>
  0000b	f6 45 08 01	 test	 BYTE PTR ___flags$[ebp], 1
  0000f	74 0b		 je	 SHORT $LN4@scalar
  00011	6a 24		 push	 36			; 00000024H
  00013	56		 push	 esi
  00014	e8 00 00 00 00	 call	 ??3@YAXPAXI@Z		; operator delete
  00019	83 c4 08	 add	 esp, 8
$LN4@scalar:
  0001c	8b c6		 mov	 eax, esi
  0001e	5e		 pop	 esi
  0001f	5d		 pop	 ebp
  00020	c2 04 00	 ret	 4
??_G?$CDynamicPoolEx@VCNullDecorator@NEffectUpdateDecorator@@@@UAEPAXI@Z ENDP ; CDynamicPoolEx<NEffectUpdateDecorator::CNullDecorator>::`scalar deleting destructor'
_TEXT	ENDS
; Function compile flags: /Ogtp
; File D:\Metin2 Server Files\mainline\SRC_2014\Metin2Client\eterLib\Pool.h
;	COMDAT ?Delete@?$CDynamicPoolEx@VCNullDecorator@NEffectUpdateDecorator@@@@KAXPAVCNullDecorator@NEffectUpdateDecorator@@@Z
_TEXT	SEGMENT
_pkData$ = 8						; size = 4
?Delete@?$CDynamicPoolEx@VCNullDecorator@NEffectUpdateDecorator@@@@KAXPAVCNullDecorator@NEffectUpdateDecorator@@@Z PROC ; CDynamicPoolEx<NEffectUpdateDecorator::CNullDecorator>::Delete, COMDAT

; 224  : 			::operator delete(pkData);

  00000	e9 00 00 00 00	 jmp	 ??3@YAXPAX@Z		; operator delete
?Delete@?$CDynamicPoolEx@VCNullDecorator@NEffectUpdateDecorator@@@@KAXPAVCNullDecorator@NEffectUpdateDecorator@@@Z ENDP ; CDynamicPoolEx<NEffectUpdateDecorator::CNullDecorator>::Delete
_TEXT	ENDS
; Function compile flags: /Ogtp
; File D:\Metin2 Server Files\mainline\SRC_2014\Metin2Client\eterLib\Pool.h
; File C:\Program Files (x86)\Microsoft Visual Studio\2019\Community\VC\Tools\MSVC\14.28.29333\include\vector
; File C:\Program Files (x86)\Microsoft Visual Studio\2019\Community\VC\Tools\MSVC\14.28.29333\include\algorithm
; File D:\Metin2 Server Files\mainline\SRC_2014\Metin2Client\eterLib\Pool.h
; File C:\Program Files (x86)\Microsoft Visual Studio\2019\Community\VC\Tools\MSVC\14.28.29333\include\algorithm
; File D:\Metin2 Server Files\mainline\SRC_2014\Metin2Client\eterLib\Pool.h
; File C:\Program Files (x86)\Microsoft Visual Studio\2019\Community\VC\Tools\MSVC\14.28.29333\include\algorithm
; File D:\Metin2 Server Files\mainline\SRC_2014\Metin2Client\eterLib\Pool.h
; File C:\Program Files (x86)\Microsoft Visual Studio\2019\Community\VC\Tools\MSVC\14.28.29333\include\vector
; File C:\Program Files (x86)\Microsoft Visual Studio\2019\Community\VC\Tools\MSVC\14.28.29333\include\xmemory
; File C:\Program Files (x86)\Microsoft Visual Studio\2019\Community\VC\Tools\MSVC\14.28.29333\include\vector
; File C:\Program Files (x86)\Microsoft Visual Studio\2019\Community\VC\Tools\MSVC\14.28.29333\include\xmemory
; File C:\Program Files (x86)\Microsoft Visual Studio\2019\Community\VC\Tools\MSVC\14.28.29333\include\vector
; File C:\Program Files (x86)\Microsoft Visual Studio\2019\Community\VC\Tools\MSVC\14.28.29333\include\xmemory
; File C:\Program Files (x86)\Microsoft Visual Studio\2019\Community\VC\Tools\MSVC\14.28.29333\include\vector
; File C:\Program Files (x86)\Microsoft Visual Studio\2019\Community\VC\Tools\MSVC\14.28.29333\include\xmemory
; File C:\Program Files (x86)\Microsoft Visual Studio\2019\Community\VC\Tools\MSVC\14.28.29333\include\vector
; File D:\Metin2 Server Files\mainline\SRC_2014\Metin2Client\eterLib\Pool.h
;	COMDAT ??1?$CDynamicPoolEx@VCNullDecorator@NEffectUpdateDecorator@@@@UAE@XZ
_TEXT	SEGMENT
??1?$CDynamicPoolEx@VCNullDecorator@NEffectUpdateDecorator@@@@UAE@XZ PROC ; CDynamicPoolEx<NEffectUpdateDecorator::CNullDecorator>::~CDynamicPoolEx<NEffectUpdateDecorator::CNullDecorator>, COMDAT
; _this$ = ecx

; 132  : 		{

  00000	53		 push	 ebx
  00001	56		 push	 esi
  00002	57		 push	 edi
  00003	8b f9		 mov	 edi, ecx
  00005	c7 07 00 00 00
	00		 mov	 DWORD PTR [edi], OFFSET ??_7?$CDynamicPoolEx@VCNullDecorator@NEffectUpdateDecorator@@@@6B@
; File C:\Program Files (x86)\Microsoft Visual Studio\2019\Community\VC\Tools\MSVC\14.28.29333\include\vector

; 42   :     _Vector_const_iterator(_Tptr _Parg, const _Container_base* _Pvector) noexcept : _Ptr(_Parg) {

  0000b	8b 5f 08	 mov	 ebx, DWORD PTR [edi+8]
  0000e	8b 77 04	 mov	 esi, DWORD PTR [edi+4]
; File C:\Program Files (x86)\Microsoft Visual Studio\2019\Community\VC\Tools\MSVC\14.28.29333\include\algorithm

; 307  :     for (; _UFirst != _ULast; ++_UFirst) {

  00011	3b f3		 cmp	 esi, ebx
  00013	74 14		 je	 SHORT $LN19@CDynamicPo
$LL20@CDynamicPo:
; File D:\Metin2 Server Files\mainline\SRC_2014\Metin2Client\eterLib\Pool.h

; 224  : 			::operator delete(pkData);

  00015	ff 36		 push	 DWORD PTR [esi]
  00017	e8 00 00 00 00	 call	 ??3@YAXPAX@Z		; operator delete
; File C:\Program Files (x86)\Microsoft Visual Studio\2019\Community\VC\Tools\MSVC\14.28.29333\include\algorithm

; 307  :     for (; _UFirst != _ULast; ++_UFirst) {

  0001c	83 c6 04	 add	 esi, 4
; File D:\Metin2 Server Files\mainline\SRC_2014\Metin2Client\eterLib\Pool.h

; 224  : 			::operator delete(pkData);

  0001f	83 c4 04	 add	 esp, 4
; File C:\Program Files (x86)\Microsoft Visual Studio\2019\Community\VC\Tools\MSVC\14.28.29333\include\algorithm

; 307  :     for (; _UFirst != _ULast; ++_UFirst) {

  00022	3b f3		 cmp	 esi, ebx
  00024	75 ef		 jne	 SHORT $LL20@CDynamicPo
  00026	8b 77 04	 mov	 esi, DWORD PTR [edi+4]
$LN19@CDynamicPo:
; File D:\Metin2 Server Files\mainline\SRC_2014\Metin2Client\eterLib\Pool.h

; 162  : 			m_kVct_pkFree.clear();

  00029	8b 4f 10	 mov	 ecx, DWORD PTR [edi+16]
  0002c	89 77 08	 mov	 DWORD PTR [edi+8], esi
  0002f	89 4f 14	 mov	 DWORD PTR [edi+20], ecx
; File C:\Program Files (x86)\Microsoft Visual Studio\2019\Community\VC\Tools\MSVC\14.28.29333\include\vector

; 1694 :         if (_Myfirst) { // destroy and deallocate old array

  00032	85 c9		 test	 ecx, ecx
  00034	74 27		 je	 SHORT $LN27@CDynamicPo

; 1695 :             _Destroy(_Myfirst, _Mylast);
; 1696 :             _Getal().deallocate(_Myfirst, static_cast<size_type>(_Myend - _Myfirst));

  00036	8b 47 18	 mov	 eax, DWORD PTR [edi+24]
  00039	2b c1		 sub	 eax, ecx
; File C:\Program Files (x86)\Microsoft Visual Studio\2019\Community\VC\Tools\MSVC\14.28.29333\include\xmemory

; 810  :         _Deallocate<_New_alignof<_Ty>>(_Ptr, sizeof(_Ty) * _Count);

  0003b	83 e0 fc	 and	 eax, -4			; fffffffcH
  0003e	50		 push	 eax
  0003f	51		 push	 ecx
  00040	e8 00 00 00 00	 call	 ??$_Deallocate@$07$0A@@std@@YAXPAXI@Z ; std::_Deallocate<8,0>
; File C:\Program Files (x86)\Microsoft Visual Studio\2019\Community\VC\Tools\MSVC\14.28.29333\include\vector

; 1698 :             _Myfirst = pointer();

  00045	c7 47 10 00 00
	00 00		 mov	 DWORD PTR [edi+16], 0
; File C:\Program Files (x86)\Microsoft Visual Studio\2019\Community\VC\Tools\MSVC\14.28.29333\include\xmemory

; 810  :         _Deallocate<_New_alignof<_Ty>>(_Ptr, sizeof(_Ty) * _Count);

  0004c	83 c4 08	 add	 esp, 8
; File C:\Program Files (x86)\Microsoft Visual Studio\2019\Community\VC\Tools\MSVC\14.28.29333\include\vector

; 1699 :             _Mylast  = pointer();

  0004f	c7 47 14 00 00
	00 00		 mov	 DWORD PTR [edi+20], 0

; 1700 :             _Myend   = pointer();

  00056	c7 47 18 00 00
	00 00		 mov	 DWORD PTR [edi+24], 0
$LN27@CDynamicPo:

; 1694 :         if (_Myfirst) { // destroy and deallocate old array

  0005d	8b 4f 04	 mov	 ecx, DWORD PTR [edi+4]
  00060	85 c9		 test	 ecx, ecx
  00062	74 27		 je	 SHORT $LN34@CDynamicPo

; 1695 :             _Destroy(_Myfirst, _Mylast);
; 1696 :             _Getal().deallocate(_Myfirst, static_cast<size_type>(_Myend - _Myfirst));

  00064	8b 47 0c	 mov	 eax, DWORD PTR [edi+12]
  00067	2b c1		 sub	 eax, ecx
; File C:\Program Files (x86)\Microsoft Visual Studio\2019\Community\VC\Tools\MSVC\14.28.29333\include\xmemory

; 810  :         _Deallocate<_New_alignof<_Ty>>(_Ptr, sizeof(_Ty) * _Count);

  00069	83 e0 fc	 and	 eax, -4			; fffffffcH
  0006c	50		 push	 eax
  0006d	51		 push	 ecx
  0006e	e8 00 00 00 00	 call	 ??$_Deallocate@$07$0A@@std@@YAXPAXI@Z ; std::_Deallocate<8,0>
; File C:\Program Files (x86)\Microsoft Visual Studio\2019\Community\VC\Tools\MSVC\14.28.29333\include\vector

; 1698 :             _Myfirst = pointer();

  00073	c7 47 04 00 00
	00 00		 mov	 DWORD PTR [edi+4], 0
; File C:\Program Files (x86)\Microsoft Visual Studio\2019\Community\VC\Tools\MSVC\14.28.29333\include\xmemory

; 810  :         _Deallocate<_New_alignof<_Ty>>(_Ptr, sizeof(_Ty) * _Count);

  0007a	83 c4 08	 add	 esp, 8
; File C:\Program Files (x86)\Microsoft Visual Studio\2019\Community\VC\Tools\MSVC\14.28.29333\include\vector

; 1699 :             _Mylast  = pointer();

  0007d	c7 47 08 00 00
	00 00		 mov	 DWORD PTR [edi+8], 0

; 1700 :             _Myend   = pointer();

  00084	c7 47 0c 00 00
	00 00		 mov	 DWORD PTR [edi+12], 0
$LN34@CDynamicPo:
  0008b	5f		 pop	 edi
; File D:\Metin2 Server Files\mainline\SRC_2014\Metin2Client\eterLib\Pool.h

; 142  : 		}

  0008c	5e		 pop	 esi
  0008d	5b		 pop	 ebx
  0008e	c3		 ret	 0
??1?$CDynamicPoolEx@VCNullDecorator@NEffectUpdateDecorator@@@@UAE@XZ ENDP ; CDynamicPoolEx<NEffectUpdateDecorator::CNullDecorator>::~CDynamicPoolEx<NEffectUpdateDecorator::CNullDecorator>
_TEXT	ENDS
; Function compile flags: /Ogtp
;	COMDAT ??_G?$CDynamicPoolEx@VCTextureAnimationCWDecorator@NEffectUpdateDecorator@@@@UAEPAXI@Z
_TEXT	SEGMENT
___flags$ = 8						; size = 4
??_G?$CDynamicPoolEx@VCTextureAnimationCWDecorator@NEffectUpdateDecorator@@@@UAEPAXI@Z PROC ; CDynamicPoolEx<NEffectUpdateDecorator::CTextureAnimationCWDecorator>::`scalar deleting destructor', COMDAT
; _this$ = ecx
  00000	55		 push	 ebp
  00001	8b ec		 mov	 ebp, esp
  00003	56		 push	 esi
  00004	8b f1		 mov	 esi, ecx
  00006	e8 00 00 00 00	 call	 ??1?$CDynamicPoolEx@VCTextureAnimationCWDecorator@NEffectUpdateDecorator@@@@UAE@XZ ; CDynamicPoolEx<NEffectUpdateDecorator::CTextureAnimationCWDecorator>::~CDynamicPoolEx<NEffectUpdateDecorator::CTextureAnimationCWDecorator>
  0000b	f6 45 08 01	 test	 BYTE PTR ___flags$[ebp], 1
  0000f	74 0b		 je	 SHORT $LN4@scalar
  00011	6a 24		 push	 36			; 00000024H
  00013	56		 push	 esi
  00014	e8 00 00 00 00	 call	 ??3@YAXPAXI@Z		; operator delete
  00019	83 c4 08	 add	 esp, 8
$LN4@scalar:
  0001c	8b c6		 mov	 eax, esi
  0001e	5e		 pop	 esi
  0001f	5d		 pop	 ebp
  00020	c2 04 00	 ret	 4
??_G?$CDynamicPoolEx@VCTextureAnimationCWDecorator@NEffectUpdateDecorator@@@@UAEPAXI@Z ENDP ; CDynamicPoolEx<NEffectUpdateDecorator::CTextureAnimationCWDecorator>::`scalar deleting destructor'
_TEXT	ENDS
; Function compile flags: /Ogtp
; File D:\Metin2 Server Files\mainline\SRC_2014\Metin2Client\eterLib\Pool.h
;	COMDAT ?Delete@?$CDynamicPoolEx@VCTextureAnimationCWDecorator@NEffectUpdateDecorator@@@@KAXPAVCTextureAnimationCWDecorator@NEffectUpdateDecorator@@@Z
_TEXT	SEGMENT
_pkData$ = 8						; size = 4
?Delete@?$CDynamicPoolEx@VCTextureAnimationCWDecorator@NEffectUpdateDecorator@@@@KAXPAVCTextureAnimationCWDecorator@NEffectUpdateDecorator@@@Z PROC ; CDynamicPoolEx<NEffectUpdateDecorator::CTextureAnimationCWDecorator>::Delete, COMDAT

; 224  : 			::operator delete(pkData);

  00000	e9 00 00 00 00	 jmp	 ??3@YAXPAX@Z		; operator delete
?Delete@?$CDynamicPoolEx@VCTextureAnimationCWDecorator@NEffectUpdateDecorator@@@@KAXPAVCTextureAnimationCWDecorator@NEffectUpdateDecorator@@@Z ENDP ; CDynamicPoolEx<NEffectUpdateDecorator::CTextureAnimationCWDecorator>::Delete
_TEXT	ENDS
; Function compile flags: /Ogtp
; File D:\Metin2 Server Files\mainline\SRC_2014\Metin2Client\eterLib\Pool.h
; File C:\Program Files (x86)\Microsoft Visual Studio\2019\Community\VC\Tools\MSVC\14.28.29333\include\vector
; File C:\Program Files (x86)\Microsoft Visual Studio\2019\Community\VC\Tools\MSVC\14.28.29333\include\algorithm
; File D:\Metin2 Server Files\mainline\SRC_2014\Metin2Client\eterLib\Pool.h
; File C:\Program Files (x86)\Microsoft Visual Studio\2019\Community\VC\Tools\MSVC\14.28.29333\include\algorithm
; File D:\Metin2 Server Files\mainline\SRC_2014\Metin2Client\eterLib\Pool.h
; File C:\Program Files (x86)\Microsoft Visual Studio\2019\Community\VC\Tools\MSVC\14.28.29333\include\algorithm
; File D:\Metin2 Server Files\mainline\SRC_2014\Metin2Client\eterLib\Pool.h
; File C:\Program Files (x86)\Microsoft Visual Studio\2019\Community\VC\Tools\MSVC\14.28.29333\include\vector
; File C:\Program Files (x86)\Microsoft Visual Studio\2019\Community\VC\Tools\MSVC\14.28.29333\include\xmemory
; File C:\Program Files (x86)\Microsoft Visual Studio\2019\Community\VC\Tools\MSVC\14.28.29333\include\vector
; File C:\Program Files (x86)\Microsoft Visual Studio\2019\Community\VC\Tools\MSVC\14.28.29333\include\xmemory
; File C:\Program Files (x86)\Microsoft Visual Studio\2019\Community\VC\Tools\MSVC\14.28.29333\include\vector
; File C:\Program Files (x86)\Microsoft Visual Studio\2019\Community\VC\Tools\MSVC\14.28.29333\include\xmemory
; File C:\Program Files (x86)\Microsoft Visual Studio\2019\Community\VC\Tools\MSVC\14.28.29333\include\vector
; File C:\Program Files (x86)\Microsoft Visual Studio\2019\Community\VC\Tools\MSVC\14.28.29333\include\xmemory
; File C:\Program Files (x86)\Microsoft Visual Studio\2019\Community\VC\Tools\MSVC\14.28.29333\include\vector
; File D:\Metin2 Server Files\mainline\SRC_2014\Metin2Client\eterLib\Pool.h
;	COMDAT ??1?$CDynamicPoolEx@VCTextureAnimationCWDecorator@NEffectUpdateDecorator@@@@UAE@XZ
_TEXT	SEGMENT
??1?$CDynamicPoolEx@VCTextureAnimationCWDecorator@NEffectUpdateDecorator@@@@UAE@XZ PROC ; CDynamicPoolEx<NEffectUpdateDecorator::CTextureAnimationCWDecorator>::~CDynamicPoolEx<NEffectUpdateDecorator::CTextureAnimationCWDecorator>, COMDAT
; _this$ = ecx

; 132  : 		{

  00000	53		 push	 ebx
  00001	56		 push	 esi
  00002	57		 push	 edi
  00003	8b f9		 mov	 edi, ecx
  00005	c7 07 00 00 00
	00		 mov	 DWORD PTR [edi], OFFSET ??_7?$CDynamicPoolEx@VCTextureAnimationCWDecorator@NEffectUpdateDecorator@@@@6B@
; File C:\Program Files (x86)\Microsoft Visual Studio\2019\Community\VC\Tools\MSVC\14.28.29333\include\vector

; 42   :     _Vector_const_iterator(_Tptr _Parg, const _Container_base* _Pvector) noexcept : _Ptr(_Parg) {

  0000b	8b 5f 08	 mov	 ebx, DWORD PTR [edi+8]
  0000e	8b 77 04	 mov	 esi, DWORD PTR [edi+4]
; File C:\Program Files (x86)\Microsoft Visual Studio\2019\Community\VC\Tools\MSVC\14.28.29333\include\algorithm

; 307  :     for (; _UFirst != _ULast; ++_UFirst) {

  00011	3b f3		 cmp	 esi, ebx
  00013	74 14		 je	 SHORT $LN19@CDynamicPo
$LL20@CDynamicPo:
; File D:\Metin2 Server Files\mainline\SRC_2014\Metin2Client\eterLib\Pool.h

; 224  : 			::operator delete(pkData);

  00015	ff 36		 push	 DWORD PTR [esi]
  00017	e8 00 00 00 00	 call	 ??3@YAXPAX@Z		; operator delete
; File C:\Program Files (x86)\Microsoft Visual Studio\2019\Community\VC\Tools\MSVC\14.28.29333\include\algorithm

; 307  :     for (; _UFirst != _ULast; ++_UFirst) {

  0001c	83 c6 04	 add	 esi, 4
; File D:\Metin2 Server Files\mainline\SRC_2014\Metin2Client\eterLib\Pool.h

; 224  : 			::operator delete(pkData);

  0001f	83 c4 04	 add	 esp, 4
; File C:\Program Files (x86)\Microsoft Visual Studio\2019\Community\VC\Tools\MSVC\14.28.29333\include\algorithm

; 307  :     for (; _UFirst != _ULast; ++_UFirst) {

  00022	3b f3		 cmp	 esi, ebx
  00024	75 ef		 jne	 SHORT $LL20@CDynamicPo
  00026	8b 77 04	 mov	 esi, DWORD PTR [edi+4]
$LN19@CDynamicPo:
; File D:\Metin2 Server Files\mainline\SRC_2014\Metin2Client\eterLib\Pool.h

; 162  : 			m_kVct_pkFree.clear();

  00029	8b 4f 10	 mov	 ecx, DWORD PTR [edi+16]
  0002c	89 77 08	 mov	 DWORD PTR [edi+8], esi
  0002f	89 4f 14	 mov	 DWORD PTR [edi+20], ecx
; File C:\Program Files (x86)\Microsoft Visual Studio\2019\Community\VC\Tools\MSVC\14.28.29333\include\vector

; 1694 :         if (_Myfirst) { // destroy and deallocate old array

  00032	85 c9		 test	 ecx, ecx
  00034	74 27		 je	 SHORT $LN27@CDynamicPo

; 1695 :             _Destroy(_Myfirst, _Mylast);
; 1696 :             _Getal().deallocate(_Myfirst, static_cast<size_type>(_Myend - _Myfirst));

  00036	8b 47 18	 mov	 eax, DWORD PTR [edi+24]
  00039	2b c1		 sub	 eax, ecx
; File C:\Program Files (x86)\Microsoft Visual Studio\2019\Community\VC\Tools\MSVC\14.28.29333\include\xmemory

; 810  :         _Deallocate<_New_alignof<_Ty>>(_Ptr, sizeof(_Ty) * _Count);

  0003b	83 e0 fc	 and	 eax, -4			; fffffffcH
  0003e	50		 push	 eax
  0003f	51		 push	 ecx
  00040	e8 00 00 00 00	 call	 ??$_Deallocate@$07$0A@@std@@YAXPAXI@Z ; std::_Deallocate<8,0>
; File C:\Program Files (x86)\Microsoft Visual Studio\2019\Community\VC\Tools\MSVC\14.28.29333\include\vector

; 1698 :             _Myfirst = pointer();

  00045	c7 47 10 00 00
	00 00		 mov	 DWORD PTR [edi+16], 0
; File C:\Program Files (x86)\Microsoft Visual Studio\2019\Community\VC\Tools\MSVC\14.28.29333\include\xmemory

; 810  :         _Deallocate<_New_alignof<_Ty>>(_Ptr, sizeof(_Ty) * _Count);

  0004c	83 c4 08	 add	 esp, 8
; File C:\Program Files (x86)\Microsoft Visual Studio\2019\Community\VC\Tools\MSVC\14.28.29333\include\vector

; 1699 :             _Mylast  = pointer();

  0004f	c7 47 14 00 00
	00 00		 mov	 DWORD PTR [edi+20], 0

; 1700 :             _Myend   = pointer();

  00056	c7 47 18 00 00
	00 00		 mov	 DWORD PTR [edi+24], 0
$LN27@CDynamicPo:

; 1694 :         if (_Myfirst) { // destroy and deallocate old array

  0005d	8b 4f 04	 mov	 ecx, DWORD PTR [edi+4]
  00060	85 c9		 test	 ecx, ecx
  00062	74 27		 je	 SHORT $LN34@CDynamicPo

; 1695 :             _Destroy(_Myfirst, _Mylast);
; 1696 :             _Getal().deallocate(_Myfirst, static_cast<size_type>(_Myend - _Myfirst));

  00064	8b 47 0c	 mov	 eax, DWORD PTR [edi+12]
  00067	2b c1		 sub	 eax, ecx
; File C:\Program Files (x86)\Microsoft Visual Studio\2019\Community\VC\Tools\MSVC\14.28.29333\include\xmemory

; 810  :         _Deallocate<_New_alignof<_Ty>>(_Ptr, sizeof(_Ty) * _Count);

  00069	83 e0 fc	 and	 eax, -4			; fffffffcH
  0006c	50		 push	 eax
  0006d	51		 push	 ecx
  0006e	e8 00 00 00 00	 call	 ??$_Deallocate@$07$0A@@std@@YAXPAXI@Z ; std::_Deallocate<8,0>
; File C:\Program Files (x86)\Microsoft Visual Studio\2019\Community\VC\Tools\MSVC\14.28.29333\include\vector

; 1698 :             _Myfirst = pointer();

  00073	c7 47 04 00 00
	00 00		 mov	 DWORD PTR [edi+4], 0
; File C:\Program Files (x86)\Microsoft Visual Studio\2019\Community\VC\Tools\MSVC\14.28.29333\include\xmemory

; 810  :         _Deallocate<_New_alignof<_Ty>>(_Ptr, sizeof(_Ty) * _Count);

  0007a	83 c4 08	 add	 esp, 8
; File C:\Program Files (x86)\Microsoft Visual Studio\2019\Community\VC\Tools\MSVC\14.28.29333\include\vector

; 1699 :             _Mylast  = pointer();

  0007d	c7 47 08 00 00
	00 00		 mov	 DWORD PTR [edi+8], 0

; 1700 :             _Myend   = pointer();

  00084	c7 47 0c 00 00
	00 00		 mov	 DWORD PTR [edi+12], 0
$LN34@CDynamicPo:
  0008b	5f		 pop	 edi
; File D:\Metin2 Server Files\mainline\SRC_2014\Metin2Client\eterLib\Pool.h

; 142  : 		}

  0008c	5e		 pop	 esi
  0008d	5b		 pop	 ebx
  0008e	c3		 ret	 0
??1?$CDynamicPoolEx@VCTextureAnimationCWDecorator@NEffectUpdateDecorator@@@@UAE@XZ ENDP ; CDynamicPoolEx<NEffectUpdateDecorator::CTextureAnimationCWDecorator>::~CDynamicPoolEx<NEffectUpdateDecorator::CTextureAnimationCWDecorator>
_TEXT	ENDS
; Function compile flags: /Ogtp
;	COMDAT ??_G?$CDynamicPoolEx@VCTextureAnimationCCWDecorator@NEffectUpdateDecorator@@@@UAEPAXI@Z
_TEXT	SEGMENT
___flags$ = 8						; size = 4
??_G?$CDynamicPoolEx@VCTextureAnimationCCWDecorator@NEffectUpdateDecorator@@@@UAEPAXI@Z PROC ; CDynamicPoolEx<NEffectUpdateDecorator::CTextureAnimationCCWDecorator>::`scalar deleting destructor', COMDAT
; _this$ = ecx
  00000	55		 push	 ebp
  00001	8b ec		 mov	 ebp, esp
  00003	56		 push	 esi
  00004	8b f1		 mov	 esi, ecx
  00006	e8 00 00 00 00	 call	 ??1?$CDynamicPoolEx@VCTextureAnimationCCWDecorator@NEffectUpdateDecorator@@@@UAE@XZ ; CDynamicPoolEx<NEffectUpdateDecorator::CTextureAnimationCCWDecorator>::~CDynamicPoolEx<NEffectUpdateDecorator::CTextureAnimationCCWDecorator>
  0000b	f6 45 08 01	 test	 BYTE PTR ___flags$[ebp], 1
  0000f	74 0b		 je	 SHORT $LN4@scalar
  00011	6a 24		 push	 36			; 00000024H
  00013	56		 push	 esi
  00014	e8 00 00 00 00	 call	 ??3@YAXPAXI@Z		; operator delete
  00019	83 c4 08	 add	 esp, 8
$LN4@scalar:
  0001c	8b c6		 mov	 eax, esi
  0001e	5e		 pop	 esi
  0001f	5d		 pop	 ebp
  00020	c2 04 00	 ret	 4
??_G?$CDynamicPoolEx@VCTextureAnimationCCWDecorator@NEffectUpdateDecorator@@@@UAEPAXI@Z ENDP ; CDynamicPoolEx<NEffectUpdateDecorator::CTextureAnimationCCWDecorator>::`scalar deleting destructor'
_TEXT	ENDS
; Function compile flags: /Ogtp
; File D:\Metin2 Server Files\mainline\SRC_2014\Metin2Client\eterLib\Pool.h
;	COMDAT ?Delete@?$CDynamicPoolEx@VCTextureAnimationCCWDecorator@NEffectUpdateDecorator@@@@KAXPAVCTextureAnimationCCWDecorator@NEffectUpdateDecorator@@@Z
_TEXT	SEGMENT
_pkData$ = 8						; size = 4
?Delete@?$CDynamicPoolEx@VCTextureAnimationCCWDecorator@NEffectUpdateDecorator@@@@KAXPAVCTextureAnimationCCWDecorator@NEffectUpdateDecorator@@@Z PROC ; CDynamicPoolEx<NEffectUpdateDecorator::CTextureAnimationCCWDecorator>::Delete, COMDAT

; 224  : 			::operator delete(pkData);

  00000	e9 00 00 00 00	 jmp	 ??3@YAXPAX@Z		; operator delete
?Delete@?$CDynamicPoolEx@VCTextureAnimationCCWDecorator@NEffectUpdateDecorator@@@@KAXPAVCTextureAnimationCCWDecorator@NEffectUpdateDecorator@@@Z ENDP ; CDynamicPoolEx<NEffectUpdateDecorator::CTextureAnimationCCWDecorator>::Delete
_TEXT	ENDS
; Function compile flags: /Ogtp
; File D:\Metin2 Server Files\mainline\SRC_2014\Metin2Client\eterLib\Pool.h
; File C:\Program Files (x86)\Microsoft Visual Studio\2019\Community\VC\Tools\MSVC\14.28.29333\include\vector
; File C:\Program Files (x86)\Microsoft Visual Studio\2019\Community\VC\Tools\MSVC\14.28.29333\include\algorithm
; File D:\Metin2 Server Files\mainline\SRC_2014\Metin2Client\eterLib\Pool.h
; File C:\Program Files (x86)\Microsoft Visual Studio\2019\Community\VC\Tools\MSVC\14.28.29333\include\algorithm
; File D:\Metin2 Server Files\mainline\SRC_2014\Metin2Client\eterLib\Pool.h
; File C:\Program Files (x86)\Microsoft Visual Studio\2019\Community\VC\Tools\MSVC\14.28.29333\include\algorithm
; File D:\Metin2 Server Files\mainline\SRC_2014\Metin2Client\eterLib\Pool.h
; File C:\Program Files (x86)\Microsoft Visual Studio\2019\Community\VC\Tools\MSVC\14.28.29333\include\vector
; File C:\Program Files (x86)\Microsoft Visual Studio\2019\Community\VC\Tools\MSVC\14.28.29333\include\xmemory
; File C:\Program Files (x86)\Microsoft Visual Studio\2019\Community\VC\Tools\MSVC\14.28.29333\include\vector
; File C:\Program Files (x86)\Microsoft Visual Studio\2019\Community\VC\Tools\MSVC\14.28.29333\include\xmemory
; File C:\Program Files (x86)\Microsoft Visual Studio\2019\Community\VC\Tools\MSVC\14.28.29333\include\vector
; File C:\Program Files (x86)\Microsoft Visual Studio\2019\Community\VC\Tools\MSVC\14.28.29333\include\xmemory
; File C:\Program Files (x86)\Microsoft Visual Studio\2019\Community\VC\Tools\MSVC\14.28.29333\include\vector
; File C:\Program Files (x86)\Microsoft Visual Studio\2019\Community\VC\Tools\MSVC\14.28.29333\include\xmemory
; File C:\Program Files (x86)\Microsoft Visual Studio\2019\Community\VC\Tools\MSVC\14.28.29333\include\vector
; File D:\Metin2 Server Files\mainline\SRC_2014\Metin2Client\eterLib\Pool.h
;	COMDAT ??1?$CDynamicPoolEx@VCTextureAnimationCCWDecorator@NEffectUpdateDecorator@@@@UAE@XZ
_TEXT	SEGMENT
??1?$CDynamicPoolEx@VCTextureAnimationCCWDecorator@NEffectUpdateDecorator@@@@UAE@XZ PROC ; CDynamicPoolEx<NEffectUpdateDecorator::CTextureAnimationCCWDecorator>::~CDynamicPoolEx<NEffectUpdateDecorator::CTextureAnimationCCWDecorator>, COMDAT
; _this$ = ecx

; 132  : 		{

  00000	53		 push	 ebx
  00001	56		 push	 esi
  00002	57		 push	 edi
  00003	8b f9		 mov	 edi, ecx
  00005	c7 07 00 00 00
	00		 mov	 DWORD PTR [edi], OFFSET ??_7?$CDynamicPoolEx@VCTextureAnimationCCWDecorator@NEffectUpdateDecorator@@@@6B@
; File C:\Program Files (x86)\Microsoft Visual Studio\2019\Community\VC\Tools\MSVC\14.28.29333\include\vector

; 42   :     _Vector_const_iterator(_Tptr _Parg, const _Container_base* _Pvector) noexcept : _Ptr(_Parg) {

  0000b	8b 5f 08	 mov	 ebx, DWORD PTR [edi+8]
  0000e	8b 77 04	 mov	 esi, DWORD PTR [edi+4]
; File C:\Program Files (x86)\Microsoft Visual Studio\2019\Community\VC\Tools\MSVC\14.28.29333\include\algorithm

; 307  :     for (; _UFirst != _ULast; ++_UFirst) {

  00011	3b f3		 cmp	 esi, ebx
  00013	74 14		 je	 SHORT $LN19@CDynamicPo
$LL20@CDynamicPo:
; File D:\Metin2 Server Files\mainline\SRC_2014\Metin2Client\eterLib\Pool.h

; 224  : 			::operator delete(pkData);

  00015	ff 36		 push	 DWORD PTR [esi]
  00017	e8 00 00 00 00	 call	 ??3@YAXPAX@Z		; operator delete
; File C:\Program Files (x86)\Microsoft Visual Studio\2019\Community\VC\Tools\MSVC\14.28.29333\include\algorithm

; 307  :     for (; _UFirst != _ULast; ++_UFirst) {

  0001c	83 c6 04	 add	 esi, 4
; File D:\Metin2 Server Files\mainline\SRC_2014\Metin2Client\eterLib\Pool.h

; 224  : 			::operator delete(pkData);

  0001f	83 c4 04	 add	 esp, 4
; File C:\Program Files (x86)\Microsoft Visual Studio\2019\Community\VC\Tools\MSVC\14.28.29333\include\algorithm

; 307  :     for (; _UFirst != _ULast; ++_UFirst) {

  00022	3b f3		 cmp	 esi, ebx
  00024	75 ef		 jne	 SHORT $LL20@CDynamicPo
  00026	8b 77 04	 mov	 esi, DWORD PTR [edi+4]
$LN19@CDynamicPo:
; File D:\Metin2 Server Files\mainline\SRC_2014\Metin2Client\eterLib\Pool.h

; 162  : 			m_kVct_pkFree.clear();

  00029	8b 4f 10	 mov	 ecx, DWORD PTR [edi+16]
  0002c	89 77 08	 mov	 DWORD PTR [edi+8], esi
  0002f	89 4f 14	 mov	 DWORD PTR [edi+20], ecx
; File C:\Program Files (x86)\Microsoft Visual Studio\2019\Community\VC\Tools\MSVC\14.28.29333\include\vector

; 1694 :         if (_Myfirst) { // destroy and deallocate old array

  00032	85 c9		 test	 ecx, ecx
  00034	74 27		 je	 SHORT $LN27@CDynamicPo

; 1695 :             _Destroy(_Myfirst, _Mylast);
; 1696 :             _Getal().deallocate(_Myfirst, static_cast<size_type>(_Myend - _Myfirst));

  00036	8b 47 18	 mov	 eax, DWORD PTR [edi+24]
  00039	2b c1		 sub	 eax, ecx
; File C:\Program Files (x86)\Microsoft Visual Studio\2019\Community\VC\Tools\MSVC\14.28.29333\include\xmemory

; 810  :         _Deallocate<_New_alignof<_Ty>>(_Ptr, sizeof(_Ty) * _Count);

  0003b	83 e0 fc	 and	 eax, -4			; fffffffcH
  0003e	50		 push	 eax
  0003f	51		 push	 ecx
  00040	e8 00 00 00 00	 call	 ??$_Deallocate@$07$0A@@std@@YAXPAXI@Z ; std::_Deallocate<8,0>
; File C:\Program Files (x86)\Microsoft Visual Studio\2019\Community\VC\Tools\MSVC\14.28.29333\include\vector

; 1698 :             _Myfirst = pointer();

  00045	c7 47 10 00 00
	00 00		 mov	 DWORD PTR [edi+16], 0
; File C:\Program Files (x86)\Microsoft Visual Studio\2019\Community\VC\Tools\MSVC\14.28.29333\include\xmemory

; 810  :         _Deallocate<_New_alignof<_Ty>>(_Ptr, sizeof(_Ty) * _Count);

  0004c	83 c4 08	 add	 esp, 8
; File C:\Program Files (x86)\Microsoft Visual Studio\2019\Community\VC\Tools\MSVC\14.28.29333\include\vector

; 1699 :             _Mylast  = pointer();

  0004f	c7 47 14 00 00
	00 00		 mov	 DWORD PTR [edi+20], 0

; 1700 :             _Myend   = pointer();

  00056	c7 47 18 00 00
	00 00		 mov	 DWORD PTR [edi+24], 0
$LN27@CDynamicPo:

; 1694 :         if (_Myfirst) { // destroy and deallocate old array

  0005d	8b 4f 04	 mov	 ecx, DWORD PTR [edi+4]
  00060	85 c9		 test	 ecx, ecx
  00062	74 27		 je	 SHORT $LN34@CDynamicPo

; 1695 :             _Destroy(_Myfirst, _Mylast);
; 1696 :             _Getal().deallocate(_Myfirst, static_cast<size_type>(_Myend - _Myfirst));

  00064	8b 47 0c	 mov	 eax, DWORD PTR [edi+12]
  00067	2b c1		 sub	 eax, ecx
; File C:\Program Files (x86)\Microsoft Visual Studio\2019\Community\VC\Tools\MSVC\14.28.29333\include\xmemory

; 810  :         _Deallocate<_New_alignof<_Ty>>(_Ptr, sizeof(_Ty) * _Count);

  00069	83 e0 fc	 and	 eax, -4			; fffffffcH
  0006c	50		 push	 eax
  0006d	51		 push	 ecx
  0006e	e8 00 00 00 00	 call	 ??$_Deallocate@$07$0A@@std@@YAXPAXI@Z ; std::_Deallocate<8,0>
; File C:\Program Files (x86)\Microsoft Visual Studio\2019\Community\VC\Tools\MSVC\14.28.29333\include\vector

; 1698 :             _Myfirst = pointer();

  00073	c7 47 04 00 00
	00 00		 mov	 DWORD PTR [edi+4], 0
; File C:\Program Files (x86)\Microsoft Visual Studio\2019\Community\VC\Tools\MSVC\14.28.29333\include\xmemory

; 810  :         _Deallocate<_New_alignof<_Ty>>(_Ptr, sizeof(_Ty) * _Count);

  0007a	83 c4 08	 add	 esp, 8
; File C:\Program Files (x86)\Microsoft Visual Studio\2019\Community\VC\Tools\MSVC\14.28.29333\include\vector

; 1699 :             _Mylast  = pointer();

  0007d	c7 47 08 00 00
	00 00		 mov	 DWORD PTR [edi+8], 0

; 1700 :             _Myend   = pointer();

  00084	c7 47 0c 00 00
	00 00		 mov	 DWORD PTR [edi+12], 0
$LN34@CDynamicPo:
  0008b	5f		 pop	 edi
; File D:\Metin2 Server Files\mainline\SRC_2014\Metin2Client\eterLib\Pool.h

; 142  : 		}

  0008c	5e		 pop	 esi
  0008d	5b		 pop	 ebx
  0008e	c3		 ret	 0
??1?$CDynamicPoolEx@VCTextureAnimationCCWDecorator@NEffectUpdateDecorator@@@@UAE@XZ ENDP ; CDynamicPoolEx<NEffectUpdateDecorator::CTextureAnimationCCWDecorator>::~CDynamicPoolEx<NEffectUpdateDecorator::CTextureAnimationCCWDecorator>
_TEXT	ENDS
; Function compile flags: /Ogtp
;	COMDAT ??_G?$CDynamicPoolEx@VCTextureAnimationRandomDecorator@NEffectUpdateDecorator@@@@UAEPAXI@Z
_TEXT	SEGMENT
___flags$ = 8						; size = 4
??_G?$CDynamicPoolEx@VCTextureAnimationRandomDecorator@NEffectUpdateDecorator@@@@UAEPAXI@Z PROC ; CDynamicPoolEx<NEffectUpdateDecorator::CTextureAnimationRandomDecorator>::`scalar deleting destructor', COMDAT
; _this$ = ecx
  00000	55		 push	 ebp
  00001	8b ec		 mov	 ebp, esp
  00003	56		 push	 esi
  00004	8b f1		 mov	 esi, ecx
  00006	e8 00 00 00 00	 call	 ??1?$CDynamicPoolEx@VCTextureAnimationRandomDecorator@NEffectUpdateDecorator@@@@UAE@XZ ; CDynamicPoolEx<NEffectUpdateDecorator::CTextureAnimationRandomDecorator>::~CDynamicPoolEx<NEffectUpdateDecorator::CTextureAnimationRandomDecorator>
  0000b	f6 45 08 01	 test	 BYTE PTR ___flags$[ebp], 1
  0000f	74 0b		 je	 SHORT $LN4@scalar
  00011	6a 24		 push	 36			; 00000024H
  00013	56		 push	 esi
  00014	e8 00 00 00 00	 call	 ??3@YAXPAXI@Z		; operator delete
  00019	83 c4 08	 add	 esp, 8
$LN4@scalar:
  0001c	8b c6		 mov	 eax, esi
  0001e	5e		 pop	 esi
  0001f	5d		 pop	 ebp
  00020	c2 04 00	 ret	 4
??_G?$CDynamicPoolEx@VCTextureAnimationRandomDecorator@NEffectUpdateDecorator@@@@UAEPAXI@Z ENDP ; CDynamicPoolEx<NEffectUpdateDecorator::CTextureAnimationRandomDecorator>::`scalar deleting destructor'
_TEXT	ENDS
; Function compile flags: /Ogtp
; File D:\Metin2 Server Files\mainline\SRC_2014\Metin2Client\eterLib\Pool.h
;	COMDAT ?Delete@?$CDynamicPoolEx@VCTextureAnimationRandomDecorator@NEffectUpdateDecorator@@@@KAXPAVCTextureAnimationRandomDecorator@NEffectUpdateDecorator@@@Z
_TEXT	SEGMENT
_pkData$ = 8						; size = 4
?Delete@?$CDynamicPoolEx@VCTextureAnimationRandomDecorator@NEffectUpdateDecorator@@@@KAXPAVCTextureAnimationRandomDecorator@NEffectUpdateDecorator@@@Z PROC ; CDynamicPoolEx<NEffectUpdateDecorator::CTextureAnimationRandomDecorator>::Delete, COMDAT

; 224  : 			::operator delete(pkData);

  00000	e9 00 00 00 00	 jmp	 ??3@YAXPAX@Z		; operator delete
?Delete@?$CDynamicPoolEx@VCTextureAnimationRandomDecorator@NEffectUpdateDecorator@@@@KAXPAVCTextureAnimationRandomDecorator@NEffectUpdateDecorator@@@Z ENDP ; CDynamicPoolEx<NEffectUpdateDecorator::CTextureAnimationRandomDecorator>::Delete
_TEXT	ENDS
; Function compile flags: /Ogtp
; File D:\Metin2 Server Files\mainline\SRC_2014\Metin2Client\eterLib\Pool.h
; File C:\Program Files (x86)\Microsoft Visual Studio\2019\Community\VC\Tools\MSVC\14.28.29333\include\vector
; File C:\Program Files (x86)\Microsoft Visual Studio\2019\Community\VC\Tools\MSVC\14.28.29333\include\algorithm
; File D:\Metin2 Server Files\mainline\SRC_2014\Metin2Client\eterLib\Pool.h
; File C:\Program Files (x86)\Microsoft Visual Studio\2019\Community\VC\Tools\MSVC\14.28.29333\include\algorithm
; File D:\Metin2 Server Files\mainline\SRC_2014\Metin2Client\eterLib\Pool.h
; File C:\Program Files (x86)\Microsoft Visual Studio\2019\Community\VC\Tools\MSVC\14.28.29333\include\algorithm
; File D:\Metin2 Server Files\mainline\SRC_2014\Metin2Client\eterLib\Pool.h
; File C:\Program Files (x86)\Microsoft Visual Studio\2019\Community\VC\Tools\MSVC\14.28.29333\include\vector
; File C:\Program Files (x86)\Microsoft Visual Studio\2019\Community\VC\Tools\MSVC\14.28.29333\include\xmemory
; File C:\Program Files (x86)\Microsoft Visual Studio\2019\Community\VC\Tools\MSVC\14.28.29333\include\vector
; File C:\Program Files (x86)\Microsoft Visual Studio\2019\Community\VC\Tools\MSVC\14.28.29333\include\xmemory
; File C:\Program Files (x86)\Microsoft Visual Studio\2019\Community\VC\Tools\MSVC\14.28.29333\include\vector
; File C:\Program Files (x86)\Microsoft Visual Studio\2019\Community\VC\Tools\MSVC\14.28.29333\include\xmemory
; File C:\Program Files (x86)\Microsoft Visual Studio\2019\Community\VC\Tools\MSVC\14.28.29333\include\vector
; File C:\Program Files (x86)\Microsoft Visual Studio\2019\Community\VC\Tools\MSVC\14.28.29333\include\xmemory
; File C:\Program Files (x86)\Microsoft Visual Studio\2019\Community\VC\Tools\MSVC\14.28.29333\include\vector
; File D:\Metin2 Server Files\mainline\SRC_2014\Metin2Client\eterLib\Pool.h
;	COMDAT ??1?$CDynamicPoolEx@VCTextureAnimationRandomDecorator@NEffectUpdateDecorator@@@@UAE@XZ
_TEXT	SEGMENT
??1?$CDynamicPoolEx@VCTextureAnimationRandomDecorator@NEffectUpdateDecorator@@@@UAE@XZ PROC ; CDynamicPoolEx<NEffectUpdateDecorator::CTextureAnimationRandomDecorator>::~CDynamicPoolEx<NEffectUpdateDecorator::CTextureAnimationRandomDecorator>, COMDAT
; _this$ = ecx

; 132  : 		{

  00000	53		 push	 ebx
  00001	56		 push	 esi
  00002	57		 push	 edi
  00003	8b f9		 mov	 edi, ecx
  00005	c7 07 00 00 00
	00		 mov	 DWORD PTR [edi], OFFSET ??_7?$CDynamicPoolEx@VCTextureAnimationRandomDecorator@NEffectUpdateDecorator@@@@6B@
; File C:\Program Files (x86)\Microsoft Visual Studio\2019\Community\VC\Tools\MSVC\14.28.29333\include\vector

; 42   :     _Vector_const_iterator(_Tptr _Parg, const _Container_base* _Pvector) noexcept : _Ptr(_Parg) {

  0000b	8b 5f 08	 mov	 ebx, DWORD PTR [edi+8]
  0000e	8b 77 04	 mov	 esi, DWORD PTR [edi+4]
; File C:\Program Files (x86)\Microsoft Visual Studio\2019\Community\VC\Tools\MSVC\14.28.29333\include\algorithm

; 307  :     for (; _UFirst != _ULast; ++_UFirst) {

  00011	3b f3		 cmp	 esi, ebx
  00013	74 14		 je	 SHORT $LN19@CDynamicPo
$LL20@CDynamicPo:
; File D:\Metin2 Server Files\mainline\SRC_2014\Metin2Client\eterLib\Pool.h

; 224  : 			::operator delete(pkData);

  00015	ff 36		 push	 DWORD PTR [esi]
  00017	e8 00 00 00 00	 call	 ??3@YAXPAX@Z		; operator delete
; File C:\Program Files (x86)\Microsoft Visual Studio\2019\Community\VC\Tools\MSVC\14.28.29333\include\algorithm

; 307  :     for (; _UFirst != _ULast; ++_UFirst) {

  0001c	83 c6 04	 add	 esi, 4
; File D:\Metin2 Server Files\mainline\SRC_2014\Metin2Client\eterLib\Pool.h

; 224  : 			::operator delete(pkData);

  0001f	83 c4 04	 add	 esp, 4
; File C:\Program Files (x86)\Microsoft Visual Studio\2019\Community\VC\Tools\MSVC\14.28.29333\include\algorithm

; 307  :     for (; _UFirst != _ULast; ++_UFirst) {

  00022	3b f3		 cmp	 esi, ebx
  00024	75 ef		 jne	 SHORT $LL20@CDynamicPo
  00026	8b 77 04	 mov	 esi, DWORD PTR [edi+4]
$LN19@CDynamicPo:
; File D:\Metin2 Server Files\mainline\SRC_2014\Metin2Client\eterLib\Pool.h

; 162  : 			m_kVct_pkFree.clear();

  00029	8b 4f 10	 mov	 ecx, DWORD PTR [edi+16]
  0002c	89 77 08	 mov	 DWORD PTR [edi+8], esi
  0002f	89 4f 14	 mov	 DWORD PTR [edi+20], ecx
; File C:\Program Files (x86)\Microsoft Visual Studio\2019\Community\VC\Tools\MSVC\14.28.29333\include\vector

; 1694 :         if (_Myfirst) { // destroy and deallocate old array

  00032	85 c9		 test	 ecx, ecx
  00034	74 27		 je	 SHORT $LN27@CDynamicPo

; 1695 :             _Destroy(_Myfirst, _Mylast);
; 1696 :             _Getal().deallocate(_Myfirst, static_cast<size_type>(_Myend - _Myfirst));

  00036	8b 47 18	 mov	 eax, DWORD PTR [edi+24]
  00039	2b c1		 sub	 eax, ecx
; File C:\Program Files (x86)\Microsoft Visual Studio\2019\Community\VC\Tools\MSVC\14.28.29333\include\xmemory

; 810  :         _Deallocate<_New_alignof<_Ty>>(_Ptr, sizeof(_Ty) * _Count);

  0003b	83 e0 fc	 and	 eax, -4			; fffffffcH
  0003e	50		 push	 eax
  0003f	51		 push	 ecx
  00040	e8 00 00 00 00	 call	 ??$_Deallocate@$07$0A@@std@@YAXPAXI@Z ; std::_Deallocate<8,0>
; File C:\Program Files (x86)\Microsoft Visual Studio\2019\Community\VC\Tools\MSVC\14.28.29333\include\vector

; 1698 :             _Myfirst = pointer();

  00045	c7 47 10 00 00
	00 00		 mov	 DWORD PTR [edi+16], 0
; File C:\Program Files (x86)\Microsoft Visual Studio\2019\Community\VC\Tools\MSVC\14.28.29333\include\xmemory

; 810  :         _Deallocate<_New_alignof<_Ty>>(_Ptr, sizeof(_Ty) * _Count);

  0004c	83 c4 08	 add	 esp, 8
; File C:\Program Files (x86)\Microsoft Visual Studio\2019\Community\VC\Tools\MSVC\14.28.29333\include\vector

; 1699 :             _Mylast  = pointer();

  0004f	c7 47 14 00 00
	00 00		 mov	 DWORD PTR [edi+20], 0

; 1700 :             _Myend   = pointer();

  00056	c7 47 18 00 00
	00 00		 mov	 DWORD PTR [edi+24], 0
$LN27@CDynamicPo:

; 1694 :         if (_Myfirst) { // destroy and deallocate old array

  0005d	8b 4f 04	 mov	 ecx, DWORD PTR [edi+4]
  00060	85 c9		 test	 ecx, ecx
  00062	74 27		 je	 SHORT $LN34@CDynamicPo

; 1695 :             _Destroy(_Myfirst, _Mylast);
; 1696 :             _Getal().deallocate(_Myfirst, static_cast<size_type>(_Myend - _Myfirst));

  00064	8b 47 0c	 mov	 eax, DWORD PTR [edi+12]
  00067	2b c1		 sub	 eax, ecx
; File C:\Program Files (x86)\Microsoft Visual Studio\2019\Community\VC\Tools\MSVC\14.28.29333\include\xmemory

; 810  :         _Deallocate<_New_alignof<_Ty>>(_Ptr, sizeof(_Ty) * _Count);

  00069	83 e0 fc	 and	 eax, -4			; fffffffcH
  0006c	50		 push	 eax
  0006d	51		 push	 ecx
  0006e	e8 00 00 00 00	 call	 ??$_Deallocate@$07$0A@@std@@YAXPAXI@Z ; std::_Deallocate<8,0>
; File C:\Program Files (x86)\Microsoft Visual Studio\2019\Community\VC\Tools\MSVC\14.28.29333\include\vector

; 1698 :             _Myfirst = pointer();

  00073	c7 47 04 00 00
	00 00		 mov	 DWORD PTR [edi+4], 0
; File C:\Program Files (x86)\Microsoft Visual Studio\2019\Community\VC\Tools\MSVC\14.28.29333\include\xmemory

; 810  :         _Deallocate<_New_alignof<_Ty>>(_Ptr, sizeof(_Ty) * _Count);

  0007a	83 c4 08	 add	 esp, 8
; File C:\Program Files (x86)\Microsoft Visual Studio\2019\Community\VC\Tools\MSVC\14.28.29333\include\vector

; 1699 :             _Mylast  = pointer();

  0007d	c7 47 08 00 00
	00 00		 mov	 DWORD PTR [edi+8], 0

; 1700 :             _Myend   = pointer();

  00084	c7 47 0c 00 00
	00 00		 mov	 DWORD PTR [edi+12], 0
$LN34@CDynamicPo:
  0008b	5f		 pop	 edi
; File D:\Metin2 Server Files\mainline\SRC_2014\Metin2Client\eterLib\Pool.h

; 142  : 		}

  0008c	5e		 pop	 esi
  0008d	5b		 pop	 ebx
  0008e	c3		 ret	 0
??1?$CDynamicPoolEx@VCTextureAnimationRandomDecorator@NEffectUpdateDecorator@@@@UAE@XZ ENDP ; CDynamicPoolEx<NEffectUpdateDecorator::CTextureAnimationRandomDecorator>::~CDynamicPoolEx<NEffectUpdateDecorator::CTextureAnimationRandomDecorator>
_TEXT	ENDS
; Function compile flags: /Ogtp
;	COMDAT ??_G?$CDynamicPoolEx@VCAirResistanceDecorator@NEffectUpdateDecorator@@@@UAEPAXI@Z
_TEXT	SEGMENT
___flags$ = 8						; size = 4
??_G?$CDynamicPoolEx@VCAirResistanceDecorator@NEffectUpdateDecorator@@@@UAEPAXI@Z PROC ; CDynamicPoolEx<NEffectUpdateDecorator::CAirResistanceDecorator>::`scalar deleting destructor', COMDAT
; _this$ = ecx
  00000	55		 push	 ebp
  00001	8b ec		 mov	 ebp, esp
  00003	56		 push	 esi
  00004	8b f1		 mov	 esi, ecx
  00006	e8 00 00 00 00	 call	 ??1?$CDynamicPoolEx@VCAirResistanceDecorator@NEffectUpdateDecorator@@@@UAE@XZ ; CDynamicPoolEx<NEffectUpdateDecorator::CAirResistanceDecorator>::~CDynamicPoolEx<NEffectUpdateDecorator::CAirResistanceDecorator>
  0000b	f6 45 08 01	 test	 BYTE PTR ___flags$[ebp], 1
  0000f	74 0b		 je	 SHORT $LN4@scalar
  00011	6a 24		 push	 36			; 00000024H
  00013	56		 push	 esi
  00014	e8 00 00 00 00	 call	 ??3@YAXPAXI@Z		; operator delete
  00019	83 c4 08	 add	 esp, 8
$LN4@scalar:
  0001c	8b c6		 mov	 eax, esi
  0001e	5e		 pop	 esi
  0001f	5d		 pop	 ebp
  00020	c2 04 00	 ret	 4
??_G?$CDynamicPoolEx@VCAirResistanceDecorator@NEffectUpdateDecorator@@@@UAEPAXI@Z ENDP ; CDynamicPoolEx<NEffectUpdateDecorator::CAirResistanceDecorator>::`scalar deleting destructor'
_TEXT	ENDS
; Function compile flags: /Ogtp
; File D:\Metin2 Server Files\mainline\SRC_2014\Metin2Client\eterLib\Pool.h
;	COMDAT ?Delete@?$CDynamicPoolEx@VCAirResistanceDecorator@NEffectUpdateDecorator@@@@KAXPAVCAirResistanceDecorator@NEffectUpdateDecorator@@@Z
_TEXT	SEGMENT
_pkData$ = 8						; size = 4
?Delete@?$CDynamicPoolEx@VCAirResistanceDecorator@NEffectUpdateDecorator@@@@KAXPAVCAirResistanceDecorator@NEffectUpdateDecorator@@@Z PROC ; CDynamicPoolEx<NEffectUpdateDecorator::CAirResistanceDecorator>::Delete, COMDAT

; 224  : 			::operator delete(pkData);

  00000	e9 00 00 00 00	 jmp	 ??3@YAXPAX@Z		; operator delete
?Delete@?$CDynamicPoolEx@VCAirResistanceDecorator@NEffectUpdateDecorator@@@@KAXPAVCAirResistanceDecorator@NEffectUpdateDecorator@@@Z ENDP ; CDynamicPoolEx<NEffectUpdateDecorator::CAirResistanceDecorator>::Delete
_TEXT	ENDS
; Function compile flags: /Ogtp
; File D:\Metin2 Server Files\mainline\SRC_2014\Metin2Client\eterLib\Pool.h
; File C:\Program Files (x86)\Microsoft Visual Studio\2019\Community\VC\Tools\MSVC\14.28.29333\include\vector
; File C:\Program Files (x86)\Microsoft Visual Studio\2019\Community\VC\Tools\MSVC\14.28.29333\include\algorithm
; File D:\Metin2 Server Files\mainline\SRC_2014\Metin2Client\eterLib\Pool.h
; File C:\Program Files (x86)\Microsoft Visual Studio\2019\Community\VC\Tools\MSVC\14.28.29333\include\algorithm
; File D:\Metin2 Server Files\mainline\SRC_2014\Metin2Client\eterLib\Pool.h
; File C:\Program Files (x86)\Microsoft Visual Studio\2019\Community\VC\Tools\MSVC\14.28.29333\include\algorithm
; File D:\Metin2 Server Files\mainline\SRC_2014\Metin2Client\eterLib\Pool.h
; File C:\Program Files (x86)\Microsoft Visual Studio\2019\Community\VC\Tools\MSVC\14.28.29333\include\vector
; File C:\Program Files (x86)\Microsoft Visual Studio\2019\Community\VC\Tools\MSVC\14.28.29333\include\xmemory
; File C:\Program Files (x86)\Microsoft Visual Studio\2019\Community\VC\Tools\MSVC\14.28.29333\include\vector
; File C:\Program Files (x86)\Microsoft Visual Studio\2019\Community\VC\Tools\MSVC\14.28.29333\include\xmemory
; File C:\Program Files (x86)\Microsoft Visual Studio\2019\Community\VC\Tools\MSVC\14.28.29333\include\vector
; File C:\Program Files (x86)\Microsoft Visual Studio\2019\Community\VC\Tools\MSVC\14.28.29333\include\xmemory
; File C:\Program Files (x86)\Microsoft Visual Studio\2019\Community\VC\Tools\MSVC\14.28.29333\include\vector
; File C:\Program Files (x86)\Microsoft Visual Studio\2019\Community\VC\Tools\MSVC\14.28.29333\include\xmemory
; File C:\Program Files (x86)\Microsoft Visual Studio\2019\Community\VC\Tools\MSVC\14.28.29333\include\vector
; File D:\Metin2 Server Files\mainline\SRC_2014\Metin2Client\eterLib\Pool.h
;	COMDAT ??1?$CDynamicPoolEx@VCAirResistanceDecorator@NEffectUpdateDecorator@@@@UAE@XZ
_TEXT	SEGMENT
??1?$CDynamicPoolEx@VCAirResistanceDecorator@NEffectUpdateDecorator@@@@UAE@XZ PROC ; CDynamicPoolEx<NEffectUpdateDecorator::CAirResistanceDecorator>::~CDynamicPoolEx<NEffectUpdateDecorator::CAirResistanceDecorator>, COMDAT
; _this$ = ecx

; 132  : 		{

  00000	53		 push	 ebx
  00001	56		 push	 esi
  00002	57		 push	 edi
  00003	8b f9		 mov	 edi, ecx
  00005	c7 07 00 00 00
	00		 mov	 DWORD PTR [edi], OFFSET ??_7?$CDynamicPoolEx@VCAirResistanceDecorator@NEffectUpdateDecorator@@@@6B@
; File C:\Program Files (x86)\Microsoft Visual Studio\2019\Community\VC\Tools\MSVC\14.28.29333\include\vector

; 42   :     _Vector_const_iterator(_Tptr _Parg, const _Container_base* _Pvector) noexcept : _Ptr(_Parg) {

  0000b	8b 5f 08	 mov	 ebx, DWORD PTR [edi+8]
  0000e	8b 77 04	 mov	 esi, DWORD PTR [edi+4]
; File C:\Program Files (x86)\Microsoft Visual Studio\2019\Community\VC\Tools\MSVC\14.28.29333\include\algorithm

; 307  :     for (; _UFirst != _ULast; ++_UFirst) {

  00011	3b f3		 cmp	 esi, ebx
  00013	74 14		 je	 SHORT $LN19@CDynamicPo
$LL20@CDynamicPo:
; File D:\Metin2 Server Files\mainline\SRC_2014\Metin2Client\eterLib\Pool.h

; 224  : 			::operator delete(pkData);

  00015	ff 36		 push	 DWORD PTR [esi]
  00017	e8 00 00 00 00	 call	 ??3@YAXPAX@Z		; operator delete
; File C:\Program Files (x86)\Microsoft Visual Studio\2019\Community\VC\Tools\MSVC\14.28.29333\include\algorithm

; 307  :     for (; _UFirst != _ULast; ++_UFirst) {

  0001c	83 c6 04	 add	 esi, 4
; File D:\Metin2 Server Files\mainline\SRC_2014\Metin2Client\eterLib\Pool.h

; 224  : 			::operator delete(pkData);

  0001f	83 c4 04	 add	 esp, 4
; File C:\Program Files (x86)\Microsoft Visual Studio\2019\Community\VC\Tools\MSVC\14.28.29333\include\algorithm

; 307  :     for (; _UFirst != _ULast; ++_UFirst) {

  00022	3b f3		 cmp	 esi, ebx
  00024	75 ef		 jne	 SHORT $LL20@CDynamicPo
  00026	8b 77 04	 mov	 esi, DWORD PTR [edi+4]
$LN19@CDynamicPo:
; File D:\Metin2 Server Files\mainline\SRC_2014\Metin2Client\eterLib\Pool.h

; 162  : 			m_kVct_pkFree.clear();

  00029	8b 4f 10	 mov	 ecx, DWORD PTR [edi+16]
  0002c	89 77 08	 mov	 DWORD PTR [edi+8], esi
  0002f	89 4f 14	 mov	 DWORD PTR [edi+20], ecx
; File C:\Program Files (x86)\Microsoft Visual Studio\2019\Community\VC\Tools\MSVC\14.28.29333\include\vector

; 1694 :         if (_Myfirst) { // destroy and deallocate old array

  00032	85 c9		 test	 ecx, ecx
  00034	74 27		 je	 SHORT $LN27@CDynamicPo

; 1695 :             _Destroy(_Myfirst, _Mylast);
; 1696 :             _Getal().deallocate(_Myfirst, static_cast<size_type>(_Myend - _Myfirst));

  00036	8b 47 18	 mov	 eax, DWORD PTR [edi+24]
  00039	2b c1		 sub	 eax, ecx
; File C:\Program Files (x86)\Microsoft Visual Studio\2019\Community\VC\Tools\MSVC\14.28.29333\include\xmemory

; 810  :         _Deallocate<_New_alignof<_Ty>>(_Ptr, sizeof(_Ty) * _Count);

  0003b	83 e0 fc	 and	 eax, -4			; fffffffcH
  0003e	50		 push	 eax
  0003f	51		 push	 ecx
  00040	e8 00 00 00 00	 call	 ??$_Deallocate@$07$0A@@std@@YAXPAXI@Z ; std::_Deallocate<8,0>
; File C:\Program Files (x86)\Microsoft Visual Studio\2019\Community\VC\Tools\MSVC\14.28.29333\include\vector

; 1698 :             _Myfirst = pointer();

  00045	c7 47 10 00 00
	00 00		 mov	 DWORD PTR [edi+16], 0
; File C:\Program Files (x86)\Microsoft Visual Studio\2019\Community\VC\Tools\MSVC\14.28.29333\include\xmemory

; 810  :         _Deallocate<_New_alignof<_Ty>>(_Ptr, sizeof(_Ty) * _Count);

  0004c	83 c4 08	 add	 esp, 8
; File C:\Program Files (x86)\Microsoft Visual Studio\2019\Community\VC\Tools\MSVC\14.28.29333\include\vector

; 1699 :             _Mylast  = pointer();

  0004f	c7 47 14 00 00
	00 00		 mov	 DWORD PTR [edi+20], 0

; 1700 :             _Myend   = pointer();

  00056	c7 47 18 00 00
	00 00		 mov	 DWORD PTR [edi+24], 0
$LN27@CDynamicPo:

; 1694 :         if (_Myfirst) { // destroy and deallocate old array

  0005d	8b 4f 04	 mov	 ecx, DWORD PTR [edi+4]
  00060	85 c9		 test	 ecx, ecx
  00062	74 27		 je	 SHORT $LN34@CDynamicPo

; 1695 :             _Destroy(_Myfirst, _Mylast);
; 1696 :             _Getal().deallocate(_Myfirst, static_cast<size_type>(_Myend - _Myfirst));

  00064	8b 47 0c	 mov	 eax, DWORD PTR [edi+12]
  00067	2b c1		 sub	 eax, ecx
; File C:\Program Files (x86)\Microsoft Visual Studio\2019\Community\VC\Tools\MSVC\14.28.29333\include\xmemory

; 810  :         _Deallocate<_New_alignof<_Ty>>(_Ptr, sizeof(_Ty) * _Count);

  00069	83 e0 fc	 and	 eax, -4			; fffffffcH
  0006c	50		 push	 eax
  0006d	51		 push	 ecx
  0006e	e8 00 00 00 00	 call	 ??$_Deallocate@$07$0A@@std@@YAXPAXI@Z ; std::_Deallocate<8,0>
; File C:\Program Files (x86)\Microsoft Visual Studio\2019\Community\VC\Tools\MSVC\14.28.29333\include\vector

; 1698 :             _Myfirst = pointer();

  00073	c7 47 04 00 00
	00 00		 mov	 DWORD PTR [edi+4], 0
; File C:\Program Files (x86)\Microsoft Visual Studio\2019\Community\VC\Tools\MSVC\14.28.29333\include\xmemory

; 810  :         _Deallocate<_New_alignof<_Ty>>(_Ptr, sizeof(_Ty) * _Count);

  0007a	83 c4 08	 add	 esp, 8
; File C:\Program Files (x86)\Microsoft Visual Studio\2019\Community\VC\Tools\MSVC\14.28.29333\include\vector

; 1699 :             _Mylast  = pointer();

  0007d	c7 47 08 00 00
	00 00		 mov	 DWORD PTR [edi+8], 0

; 1700 :             _Myend   = pointer();

  00084	c7 47 0c 00 00
	00 00		 mov	 DWORD PTR [edi+12], 0
$LN34@CDynamicPo:
  0008b	5f		 pop	 edi
; File D:\Metin2 Server Files\mainline\SRC_2014\Metin2Client\eterLib\Pool.h

; 142  : 		}

  0008c	5e		 pop	 esi
  0008d	5b		 pop	 ebx
  0008e	c3		 ret	 0
??1?$CDynamicPoolEx@VCAirResistanceDecorator@NEffectUpdateDecorator@@@@UAE@XZ ENDP ; CDynamicPoolEx<NEffectUpdateDecorator::CAirResistanceDecorator>::~CDynamicPoolEx<NEffectUpdateDecorator::CAirResistanceDecorator>
_TEXT	ENDS
; Function compile flags: /Ogtp
;	COMDAT ??_G?$CDynamicPoolEx@VCGravityDecorator@NEffectUpdateDecorator@@@@UAEPAXI@Z
_TEXT	SEGMENT
___flags$ = 8						; size = 4
??_G?$CDynamicPoolEx@VCGravityDecorator@NEffectUpdateDecorator@@@@UAEPAXI@Z PROC ; CDynamicPoolEx<NEffectUpdateDecorator::CGravityDecorator>::`scalar deleting destructor', COMDAT
; _this$ = ecx
  00000	55		 push	 ebp
  00001	8b ec		 mov	 ebp, esp
  00003	56		 push	 esi
  00004	8b f1		 mov	 esi, ecx
  00006	e8 00 00 00 00	 call	 ??1?$CDynamicPoolEx@VCGravityDecorator@NEffectUpdateDecorator@@@@UAE@XZ ; CDynamicPoolEx<NEffectUpdateDecorator::CGravityDecorator>::~CDynamicPoolEx<NEffectUpdateDecorator::CGravityDecorator>
  0000b	f6 45 08 01	 test	 BYTE PTR ___flags$[ebp], 1
  0000f	74 0b		 je	 SHORT $LN4@scalar
  00011	6a 24		 push	 36			; 00000024H
  00013	56		 push	 esi
  00014	e8 00 00 00 00	 call	 ??3@YAXPAXI@Z		; operator delete
  00019	83 c4 08	 add	 esp, 8
$LN4@scalar:
  0001c	8b c6		 mov	 eax, esi
  0001e	5e		 pop	 esi
  0001f	5d		 pop	 ebp
  00020	c2 04 00	 ret	 4
??_G?$CDynamicPoolEx@VCGravityDecorator@NEffectUpdateDecorator@@@@UAEPAXI@Z ENDP ; CDynamicPoolEx<NEffectUpdateDecorator::CGravityDecorator>::`scalar deleting destructor'
_TEXT	ENDS
; Function compile flags: /Ogtp
; File D:\Metin2 Server Files\mainline\SRC_2014\Metin2Client\eterLib\Pool.h
;	COMDAT ?Delete@?$CDynamicPoolEx@VCGravityDecorator@NEffectUpdateDecorator@@@@KAXPAVCGravityDecorator@NEffectUpdateDecorator@@@Z
_TEXT	SEGMENT
_pkData$ = 8						; size = 4
?Delete@?$CDynamicPoolEx@VCGravityDecorator@NEffectUpdateDecorator@@@@KAXPAVCGravityDecorator@NEffectUpdateDecorator@@@Z PROC ; CDynamicPoolEx<NEffectUpdateDecorator::CGravityDecorator>::Delete, COMDAT

; 224  : 			::operator delete(pkData);

  00000	e9 00 00 00 00	 jmp	 ??3@YAXPAX@Z		; operator delete
?Delete@?$CDynamicPoolEx@VCGravityDecorator@NEffectUpdateDecorator@@@@KAXPAVCGravityDecorator@NEffectUpdateDecorator@@@Z ENDP ; CDynamicPoolEx<NEffectUpdateDecorator::CGravityDecorator>::Delete
_TEXT	ENDS
; Function compile flags: /Ogtp
; File D:\Metin2 Server Files\mainline\SRC_2014\Metin2Client\eterLib\Pool.h
; File C:\Program Files (x86)\Microsoft Visual Studio\2019\Community\VC\Tools\MSVC\14.28.29333\include\vector
; File C:\Program Files (x86)\Microsoft Visual Studio\2019\Community\VC\Tools\MSVC\14.28.29333\include\algorithm
; File D:\Metin2 Server Files\mainline\SRC_2014\Metin2Client\eterLib\Pool.h
; File C:\Program Files (x86)\Microsoft Visual Studio\2019\Community\VC\Tools\MSVC\14.28.29333\include\algorithm
; File D:\Metin2 Server Files\mainline\SRC_2014\Metin2Client\eterLib\Pool.h
; File C:\Program Files (x86)\Microsoft Visual Studio\2019\Community\VC\Tools\MSVC\14.28.29333\include\algorithm
; File D:\Metin2 Server Files\mainline\SRC_2014\Metin2Client\eterLib\Pool.h
; File C:\Program Files (x86)\Microsoft Visual Studio\2019\Community\VC\Tools\MSVC\14.28.29333\include\vector
; File C:\Program Files (x86)\Microsoft Visual Studio\2019\Community\VC\Tools\MSVC\14.28.29333\include\xmemory
; File C:\Program Files (x86)\Microsoft Visual Studio\2019\Community\VC\Tools\MSVC\14.28.29333\include\vector
; File C:\Program Files (x86)\Microsoft Visual Studio\2019\Community\VC\Tools\MSVC\14.28.29333\include\xmemory
; File C:\Program Files (x86)\Microsoft Visual Studio\2019\Community\VC\Tools\MSVC\14.28.29333\include\vector
; File C:\Program Files (x86)\Microsoft Visual Studio\2019\Community\VC\Tools\MSVC\14.28.29333\include\xmemory
; File C:\Program Files (x86)\Microsoft Visual Studio\2019\Community\VC\Tools\MSVC\14.28.29333\include\vector
; File C:\Program Files (x86)\Microsoft Visual Studio\2019\Community\VC\Tools\MSVC\14.28.29333\include\xmemory
; File C:\Program Files (x86)\Microsoft Visual Studio\2019\Community\VC\Tools\MSVC\14.28.29333\include\vector
; File D:\Metin2 Server Files\mainline\SRC_2014\Metin2Client\eterLib\Pool.h
;	COMDAT ??1?$CDynamicPoolEx@VCGravityDecorator@NEffectUpdateDecorator@@@@UAE@XZ
_TEXT	SEGMENT
??1?$CDynamicPoolEx@VCGravityDecorator@NEffectUpdateDecorator@@@@UAE@XZ PROC ; CDynamicPoolEx<NEffectUpdateDecorator::CGravityDecorator>::~CDynamicPoolEx<NEffectUpdateDecorator::CGravityDecorator>, COMDAT
; _this$ = ecx

; 132  : 		{

  00000	53		 push	 ebx
  00001	56		 push	 esi
  00002	57		 push	 edi
  00003	8b f9		 mov	 edi, ecx
  00005	c7 07 00 00 00
	00		 mov	 DWORD PTR [edi], OFFSET ??_7?$CDynamicPoolEx@VCGravityDecorator@NEffectUpdateDecorator@@@@6B@
; File C:\Program Files (x86)\Microsoft Visual Studio\2019\Community\VC\Tools\MSVC\14.28.29333\include\vector

; 42   :     _Vector_const_iterator(_Tptr _Parg, const _Container_base* _Pvector) noexcept : _Ptr(_Parg) {

  0000b	8b 5f 08	 mov	 ebx, DWORD PTR [edi+8]
  0000e	8b 77 04	 mov	 esi, DWORD PTR [edi+4]
; File C:\Program Files (x86)\Microsoft Visual Studio\2019\Community\VC\Tools\MSVC\14.28.29333\include\algorithm

; 307  :     for (; _UFirst != _ULast; ++_UFirst) {

  00011	3b f3		 cmp	 esi, ebx
  00013	74 14		 je	 SHORT $LN19@CDynamicPo
$LL20@CDynamicPo:
; File D:\Metin2 Server Files\mainline\SRC_2014\Metin2Client\eterLib\Pool.h

; 224  : 			::operator delete(pkData);

  00015	ff 36		 push	 DWORD PTR [esi]
  00017	e8 00 00 00 00	 call	 ??3@YAXPAX@Z		; operator delete
; File C:\Program Files (x86)\Microsoft Visual Studio\2019\Community\VC\Tools\MSVC\14.28.29333\include\algorithm

; 307  :     for (; _UFirst != _ULast; ++_UFirst) {

  0001c	83 c6 04	 add	 esi, 4
; File D:\Metin2 Server Files\mainline\SRC_2014\Metin2Client\eterLib\Pool.h

; 224  : 			::operator delete(pkData);

  0001f	83 c4 04	 add	 esp, 4
; File C:\Program Files (x86)\Microsoft Visual Studio\2019\Community\VC\Tools\MSVC\14.28.29333\include\algorithm

; 307  :     for (; _UFirst != _ULast; ++_UFirst) {

  00022	3b f3		 cmp	 esi, ebx
  00024	75 ef		 jne	 SHORT $LL20@CDynamicPo
  00026	8b 77 04	 mov	 esi, DWORD PTR [edi+4]
$LN19@CDynamicPo:
; File D:\Metin2 Server Files\mainline\SRC_2014\Metin2Client\eterLib\Pool.h

; 162  : 			m_kVct_pkFree.clear();

  00029	8b 4f 10	 mov	 ecx, DWORD PTR [edi+16]
  0002c	89 77 08	 mov	 DWORD PTR [edi+8], esi
  0002f	89 4f 14	 mov	 DWORD PTR [edi+20], ecx
; File C:\Program Files (x86)\Microsoft Visual Studio\2019\Community\VC\Tools\MSVC\14.28.29333\include\vector

; 1694 :         if (_Myfirst) { // destroy and deallocate old array

  00032	85 c9		 test	 ecx, ecx
  00034	74 27		 je	 SHORT $LN27@CDynamicPo

; 1695 :             _Destroy(_Myfirst, _Mylast);
; 1696 :             _Getal().deallocate(_Myfirst, static_cast<size_type>(_Myend - _Myfirst));

  00036	8b 47 18	 mov	 eax, DWORD PTR [edi+24]
  00039	2b c1		 sub	 eax, ecx
; File C:\Program Files (x86)\Microsoft Visual Studio\2019\Community\VC\Tools\MSVC\14.28.29333\include\xmemory

; 810  :         _Deallocate<_New_alignof<_Ty>>(_Ptr, sizeof(_Ty) * _Count);

  0003b	83 e0 fc	 and	 eax, -4			; fffffffcH
  0003e	50		 push	 eax
  0003f	51		 push	 ecx
  00040	e8 00 00 00 00	 call	 ??$_Deallocate@$07$0A@@std@@YAXPAXI@Z ; std::_Deallocate<8,0>
; File C:\Program Files (x86)\Microsoft Visual Studio\2019\Community\VC\Tools\MSVC\14.28.29333\include\vector

; 1698 :             _Myfirst = pointer();

  00045	c7 47 10 00 00
	00 00		 mov	 DWORD PTR [edi+16], 0
; File C:\Program Files (x86)\Microsoft Visual Studio\2019\Community\VC\Tools\MSVC\14.28.29333\include\xmemory

; 810  :         _Deallocate<_New_alignof<_Ty>>(_Ptr, sizeof(_Ty) * _Count);

  0004c	83 c4 08	 add	 esp, 8
; File C:\Program Files (x86)\Microsoft Visual Studio\2019\Community\VC\Tools\MSVC\14.28.29333\include\vector

; 1699 :             _Mylast  = pointer();

  0004f	c7 47 14 00 00
	00 00		 mov	 DWORD PTR [edi+20], 0

; 1700 :             _Myend   = pointer();

  00056	c7 47 18 00 00
	00 00		 mov	 DWORD PTR [edi+24], 0
$LN27@CDynamicPo:

; 1694 :         if (_Myfirst) { // destroy and deallocate old array

  0005d	8b 4f 04	 mov	 ecx, DWORD PTR [edi+4]
  00060	85 c9		 test	 ecx, ecx
  00062	74 27		 je	 SHORT $LN34@CDynamicPo

; 1695 :             _Destroy(_Myfirst, _Mylast);
; 1696 :             _Getal().deallocate(_Myfirst, static_cast<size_type>(_Myend - _Myfirst));

  00064	8b 47 0c	 mov	 eax, DWORD PTR [edi+12]
  00067	2b c1		 sub	 eax, ecx
; File C:\Program Files (x86)\Microsoft Visual Studio\2019\Community\VC\Tools\MSVC\14.28.29333\include\xmemory

; 810  :         _Deallocate<_New_alignof<_Ty>>(_Ptr, sizeof(_Ty) * _Count);

  00069	83 e0 fc	 and	 eax, -4			; fffffffcH
  0006c	50		 push	 eax
  0006d	51		 push	 ecx
  0006e	e8 00 00 00 00	 call	 ??$_Deallocate@$07$0A@@std@@YAXPAXI@Z ; std::_Deallocate<8,0>
; File C:\Program Files (x86)\Microsoft Visual Studio\2019\Community\VC\Tools\MSVC\14.28.29333\include\vector

; 1698 :             _Myfirst = pointer();

  00073	c7 47 04 00 00
	00 00		 mov	 DWORD PTR [edi+4], 0
; File C:\Program Files (x86)\Microsoft Visual Studio\2019\Community\VC\Tools\MSVC\14.28.29333\include\xmemory

; 810  :         _Deallocate<_New_alignof<_Ty>>(_Ptr, sizeof(_Ty) * _Count);

  0007a	83 c4 08	 add	 esp, 8
; File C:\Program Files (x86)\Microsoft Visual Studio\2019\Community\VC\Tools\MSVC\14.28.29333\include\vector

; 1699 :             _Mylast  = pointer();

  0007d	c7 47 08 00 00
	00 00		 mov	 DWORD PTR [edi+8], 0

; 1700 :             _Myend   = pointer();

  00084	c7 47 0c 00 00
	00 00		 mov	 DWORD PTR [edi+12], 0
$LN34@CDynamicPo:
  0008b	5f		 pop	 edi
; File D:\Metin2 Server Files\mainline\SRC_2014\Metin2Client\eterLib\Pool.h

; 142  : 		}

  0008c	5e		 pop	 esi
  0008d	5b		 pop	 ebx
  0008e	c3		 ret	 0
??1?$CDynamicPoolEx@VCGravityDecorator@NEffectUpdateDecorator@@@@UAE@XZ ENDP ; CDynamicPoolEx<NEffectUpdateDecorator::CGravityDecorator>::~CDynamicPoolEx<NEffectUpdateDecorator::CGravityDecorator>
_TEXT	ENDS
; Function compile flags: /Ogtp
;	COMDAT ??_G?$CDynamicPoolEx@VCRotationDecorator@NEffectUpdateDecorator@@@@UAEPAXI@Z
_TEXT	SEGMENT
___flags$ = 8						; size = 4
??_G?$CDynamicPoolEx@VCRotationDecorator@NEffectUpdateDecorator@@@@UAEPAXI@Z PROC ; CDynamicPoolEx<NEffectUpdateDecorator::CRotationDecorator>::`scalar deleting destructor', COMDAT
; _this$ = ecx
  00000	55		 push	 ebp
  00001	8b ec		 mov	 ebp, esp
  00003	56		 push	 esi
  00004	8b f1		 mov	 esi, ecx
  00006	e8 00 00 00 00	 call	 ??1?$CDynamicPoolEx@VCRotationDecorator@NEffectUpdateDecorator@@@@UAE@XZ ; CDynamicPoolEx<NEffectUpdateDecorator::CRotationDecorator>::~CDynamicPoolEx<NEffectUpdateDecorator::CRotationDecorator>
  0000b	f6 45 08 01	 test	 BYTE PTR ___flags$[ebp], 1
  0000f	74 0b		 je	 SHORT $LN4@scalar
  00011	6a 24		 push	 36			; 00000024H
  00013	56		 push	 esi
  00014	e8 00 00 00 00	 call	 ??3@YAXPAXI@Z		; operator delete
  00019	83 c4 08	 add	 esp, 8
$LN4@scalar:
  0001c	8b c6		 mov	 eax, esi
  0001e	5e		 pop	 esi
  0001f	5d		 pop	 ebp
  00020	c2 04 00	 ret	 4
??_G?$CDynamicPoolEx@VCRotationDecorator@NEffectUpdateDecorator@@@@UAEPAXI@Z ENDP ; CDynamicPoolEx<NEffectUpdateDecorator::CRotationDecorator>::`scalar deleting destructor'
_TEXT	ENDS
; Function compile flags: /Ogtp
; File D:\Metin2 Server Files\mainline\SRC_2014\Metin2Client\eterLib\Pool.h
;	COMDAT ?Delete@?$CDynamicPoolEx@VCRotationDecorator@NEffectUpdateDecorator@@@@KAXPAVCRotationDecorator@NEffectUpdateDecorator@@@Z
_TEXT	SEGMENT
_pkData$ = 8						; size = 4
?Delete@?$CDynamicPoolEx@VCRotationDecorator@NEffectUpdateDecorator@@@@KAXPAVCRotationDecorator@NEffectUpdateDecorator@@@Z PROC ; CDynamicPoolEx<NEffectUpdateDecorator::CRotationDecorator>::Delete, COMDAT

; 224  : 			::operator delete(pkData);

  00000	e9 00 00 00 00	 jmp	 ??3@YAXPAX@Z		; operator delete
?Delete@?$CDynamicPoolEx@VCRotationDecorator@NEffectUpdateDecorator@@@@KAXPAVCRotationDecorator@NEffectUpdateDecorator@@@Z ENDP ; CDynamicPoolEx<NEffectUpdateDecorator::CRotationDecorator>::Delete
_TEXT	ENDS
; Function compile flags: /Ogtp
; File D:\Metin2 Server Files\mainline\SRC_2014\Metin2Client\eterLib\Pool.h
; File C:\Program Files (x86)\Microsoft Visual Studio\2019\Community\VC\Tools\MSVC\14.28.29333\include\vector
; File C:\Program Files (x86)\Microsoft Visual Studio\2019\Community\VC\Tools\MSVC\14.28.29333\include\algorithm
; File D:\Metin2 Server Files\mainline\SRC_2014\Metin2Client\eterLib\Pool.h
; File C:\Program Files (x86)\Microsoft Visual Studio\2019\Community\VC\Tools\MSVC\14.28.29333\include\algorithm
; File D:\Metin2 Server Files\mainline\SRC_2014\Metin2Client\eterLib\Pool.h
; File C:\Program Files (x86)\Microsoft Visual Studio\2019\Community\VC\Tools\MSVC\14.28.29333\include\algorithm
; File D:\Metin2 Server Files\mainline\SRC_2014\Metin2Client\eterLib\Pool.h
; File C:\Program Files (x86)\Microsoft Visual Studio\2019\Community\VC\Tools\MSVC\14.28.29333\include\vector
; File C:\Program Files (x86)\Microsoft Visual Studio\2019\Community\VC\Tools\MSVC\14.28.29333\include\xmemory
; File C:\Program Files (x86)\Microsoft Visual Studio\2019\Community\VC\Tools\MSVC\14.28.29333\include\vector
; File C:\Program Files (x86)\Microsoft Visual Studio\2019\Community\VC\Tools\MSVC\14.28.29333\include\xmemory
; File C:\Program Files (x86)\Microsoft Visual Studio\2019\Community\VC\Tools\MSVC\14.28.29333\include\vector
; File C:\Program Files (x86)\Microsoft Visual Studio\2019\Community\VC\Tools\MSVC\14.28.29333\include\xmemory
; File C:\Program Files (x86)\Microsoft Visual Studio\2019\Community\VC\Tools\MSVC\14.28.29333\include\vector
; File C:\Program Files (x86)\Microsoft Visual Studio\2019\Community\VC\Tools\MSVC\14.28.29333\include\xmemory
; File C:\Program Files (x86)\Microsoft Visual Studio\2019\Community\VC\Tools\MSVC\14.28.29333\include\vector
; File D:\Metin2 Server Files\mainline\SRC_2014\Metin2Client\eterLib\Pool.h
;	COMDAT ??1?$CDynamicPoolEx@VCRotationDecorator@NEffectUpdateDecorator@@@@UAE@XZ
_TEXT	SEGMENT
??1?$CDynamicPoolEx@VCRotationDecorator@NEffectUpdateDecorator@@@@UAE@XZ PROC ; CDynamicPoolEx<NEffectUpdateDecorator::CRotationDecorator>::~CDynamicPoolEx<NEffectUpdateDecorator::CRotationDecorator>, COMDAT
; _this$ = ecx

; 132  : 		{

  00000	53		 push	 ebx
  00001	56		 push	 esi
  00002	57		 push	 edi
  00003	8b f9		 mov	 edi, ecx
  00005	c7 07 00 00 00
	00		 mov	 DWORD PTR [edi], OFFSET ??_7?$CDynamicPoolEx@VCRotationDecorator@NEffectUpdateDecorator@@@@6B@
; File C:\Program Files (x86)\Microsoft Visual Studio\2019\Community\VC\Tools\MSVC\14.28.29333\include\vector

; 42   :     _Vector_const_iterator(_Tptr _Parg, const _Container_base* _Pvector) noexcept : _Ptr(_Parg) {

  0000b	8b 5f 08	 mov	 ebx, DWORD PTR [edi+8]
  0000e	8b 77 04	 mov	 esi, DWORD PTR [edi+4]
; File C:\Program Files (x86)\Microsoft Visual Studio\2019\Community\VC\Tools\MSVC\14.28.29333\include\algorithm

; 307  :     for (; _UFirst != _ULast; ++_UFirst) {

  00011	3b f3		 cmp	 esi, ebx
  00013	74 14		 je	 SHORT $LN19@CDynamicPo
$LL20@CDynamicPo:
; File D:\Metin2 Server Files\mainline\SRC_2014\Metin2Client\eterLib\Pool.h

; 224  : 			::operator delete(pkData);

  00015	ff 36		 push	 DWORD PTR [esi]
  00017	e8 00 00 00 00	 call	 ??3@YAXPAX@Z		; operator delete
; File C:\Program Files (x86)\Microsoft Visual Studio\2019\Community\VC\Tools\MSVC\14.28.29333\include\algorithm

; 307  :     for (; _UFirst != _ULast; ++_UFirst) {

  0001c	83 c6 04	 add	 esi, 4
; File D:\Metin2 Server Files\mainline\SRC_2014\Metin2Client\eterLib\Pool.h

; 224  : 			::operator delete(pkData);

  0001f	83 c4 04	 add	 esp, 4
; File C:\Program Files (x86)\Microsoft Visual Studio\2019\Community\VC\Tools\MSVC\14.28.29333\include\algorithm

; 307  :     for (; _UFirst != _ULast; ++_UFirst) {

  00022	3b f3		 cmp	 esi, ebx
  00024	75 ef		 jne	 SHORT $LL20@CDynamicPo
  00026	8b 77 04	 mov	 esi, DWORD PTR [edi+4]
$LN19@CDynamicPo:
; File D:\Metin2 Server Files\mainline\SRC_2014\Metin2Client\eterLib\Pool.h

; 162  : 			m_kVct_pkFree.clear();

  00029	8b 4f 10	 mov	 ecx, DWORD PTR [edi+16]
  0002c	89 77 08	 mov	 DWORD PTR [edi+8], esi
  0002f	89 4f 14	 mov	 DWORD PTR [edi+20], ecx
; File C:\Program Files (x86)\Microsoft Visual Studio\2019\Community\VC\Tools\MSVC\14.28.29333\include\vector

; 1694 :         if (_Myfirst) { // destroy and deallocate old array

  00032	85 c9		 test	 ecx, ecx
  00034	74 27		 je	 SHORT $LN27@CDynamicPo

; 1695 :             _Destroy(_Myfirst, _Mylast);
; 1696 :             _Getal().deallocate(_Myfirst, static_cast<size_type>(_Myend - _Myfirst));

  00036	8b 47 18	 mov	 eax, DWORD PTR [edi+24]
  00039	2b c1		 sub	 eax, ecx
; File C:\Program Files (x86)\Microsoft Visual Studio\2019\Community\VC\Tools\MSVC\14.28.29333\include\xmemory

; 810  :         _Deallocate<_New_alignof<_Ty>>(_Ptr, sizeof(_Ty) * _Count);

  0003b	83 e0 fc	 and	 eax, -4			; fffffffcH
  0003e	50		 push	 eax
  0003f	51		 push	 ecx
  00040	e8 00 00 00 00	 call	 ??$_Deallocate@$07$0A@@std@@YAXPAXI@Z ; std::_Deallocate<8,0>
; File C:\Program Files (x86)\Microsoft Visual Studio\2019\Community\VC\Tools\MSVC\14.28.29333\include\vector

; 1698 :             _Myfirst = pointer();

  00045	c7 47 10 00 00
	00 00		 mov	 DWORD PTR [edi+16], 0
; File C:\Program Files (x86)\Microsoft Visual Studio\2019\Community\VC\Tools\MSVC\14.28.29333\include\xmemory

; 810  :         _Deallocate<_New_alignof<_Ty>>(_Ptr, sizeof(_Ty) * _Count);

  0004c	83 c4 08	 add	 esp, 8
; File C:\Program Files (x86)\Microsoft Visual Studio\2019\Community\VC\Tools\MSVC\14.28.29333\include\vector

; 1699 :             _Mylast  = pointer();

  0004f	c7 47 14 00 00
	00 00		 mov	 DWORD PTR [edi+20], 0

; 1700 :             _Myend   = pointer();

  00056	c7 47 18 00 00
	00 00		 mov	 DWORD PTR [edi+24], 0
$LN27@CDynamicPo:

; 1694 :         if (_Myfirst) { // destroy and deallocate old array

  0005d	8b 4f 04	 mov	 ecx, DWORD PTR [edi+4]
  00060	85 c9		 test	 ecx, ecx
  00062	74 27		 je	 SHORT $LN34@CDynamicPo

; 1695 :             _Destroy(_Myfirst, _Mylast);
; 1696 :             _Getal().deallocate(_Myfirst, static_cast<size_type>(_Myend - _Myfirst));

  00064	8b 47 0c	 mov	 eax, DWORD PTR [edi+12]
  00067	2b c1		 sub	 eax, ecx
; File C:\Program Files (x86)\Microsoft Visual Studio\2019\Community\VC\Tools\MSVC\14.28.29333\include\xmemory

; 810  :         _Deallocate<_New_alignof<_Ty>>(_Ptr, sizeof(_Ty) * _Count);

  00069	83 e0 fc	 and	 eax, -4			; fffffffcH
  0006c	50		 push	 eax
  0006d	51		 push	 ecx
  0006e	e8 00 00 00 00	 call	 ??$_Deallocate@$07$0A@@std@@YAXPAXI@Z ; std::_Deallocate<8,0>
; File C:\Program Files (x86)\Microsoft Visual Studio\2019\Community\VC\Tools\MSVC\14.28.29333\include\vector

; 1698 :             _Myfirst = pointer();

  00073	c7 47 04 00 00
	00 00		 mov	 DWORD PTR [edi+4], 0
; File C:\Program Files (x86)\Microsoft Visual Studio\2019\Community\VC\Tools\MSVC\14.28.29333\include\xmemory

; 810  :         _Deallocate<_New_alignof<_Ty>>(_Ptr, sizeof(_Ty) * _Count);

  0007a	83 c4 08	 add	 esp, 8
; File C:\Program Files (x86)\Microsoft Visual Studio\2019\Community\VC\Tools\MSVC\14.28.29333\include\vector

; 1699 :             _Mylast  = pointer();

  0007d	c7 47 08 00 00
	00 00		 mov	 DWORD PTR [edi+8], 0

; 1700 :             _Myend   = pointer();

  00084	c7 47 0c 00 00
	00 00		 mov	 DWORD PTR [edi+12], 0
$LN34@CDynamicPo:
  0008b	5f		 pop	 edi
; File D:\Metin2 Server Files\mainline\SRC_2014\Metin2Client\eterLib\Pool.h

; 142  : 		}

  0008c	5e		 pop	 esi
  0008d	5b		 pop	 ebx
  0008e	c3		 ret	 0
??1?$CDynamicPoolEx@VCRotationDecorator@NEffectUpdateDecorator@@@@UAE@XZ ENDP ; CDynamicPoolEx<NEffectUpdateDecorator::CRotationDecorator>::~CDynamicPoolEx<NEffectUpdateDecorator::CRotationDecorator>
_TEXT	ENDS
; Function compile flags: /Ogtp
;	COMDAT ??__Fs_kScreen@?9??Render@CInstanceBase@@QAEXXZ@YAXXZ
text$yd	SEGMENT
??__Fs_kScreen@?9??Render@CInstanceBase@@QAEXXZ@YAXXZ PROC ; `CInstanceBase::Render'::`10'::`dynamic atexit destructor for 's_kScreen'', COMDAT
  00000	b9 00 00 00 00	 mov	 ecx, OFFSET ?s_kScreen@?9??Render@CInstanceBase@@QAEXXZ@4VCScreen@@A
  00005	e9 00 00 00 00	 jmp	 ??1CScreen@@UAE@XZ	; CScreen::~CScreen
??__Fs_kScreen@?9??Render@CInstanceBase@@QAEXXZ@YAXXZ ENDP ; `CInstanceBase::Render'::`10'::`dynamic atexit destructor for 's_kScreen''
text$yd	ENDS
; Function compile flags: /Ogtp
;	COMDAT ??__F?ms_kPool@CInstanceBase@@2V?$CDynamicPool@VCInstanceBase@@@@A@@YAXXZ
text$yd	SEGMENT
??__F?ms_kPool@CInstanceBase@@2V?$CDynamicPool@VCInstanceBase@@@@A@@YAXXZ PROC ; `dynamic atexit destructor for 'CInstanceBase::ms_kPool'', COMDAT
  00000	b9 00 00 00 00	 mov	 ecx, OFFSET ?ms_kPool@CInstanceBase@@2V?$CDynamicPool@VCInstanceBase@@@@A ; CInstanceBase::ms_kPool
  00005	e9 00 00 00 00	 jmp	 ??1?$CDynamicPool@VCInstanceBase@@@@UAE@XZ ; CDynamicPool<CInstanceBase>::~CDynamicPool<CInstanceBase>
??__F?ms_kPool@CInstanceBase@@2V?$CDynamicPool@VCInstanceBase@@@@A@@YAXXZ ENDP ; `dynamic atexit destructor for 'CInstanceBase::ms_kPool''
text$yd	ENDS
; Function compile flags: /Ogtp
; File D:\Metin2 Server Files\mainline\SRC_2014\Metin2Client\UserInterface\InstanceBase.cpp
;	COMDAT ??__E?ms_kPool@CInstanceBase@@2V?$CDynamicPool@VCInstanceBase@@@@A@@YAXXZ
text$di	SEGMENT
??__E?ms_kPool@CInstanceBase@@2V?$CDynamicPool@VCInstanceBase@@@@A@@YAXXZ PROC ; `dynamic initializer for 'CInstanceBase::ms_kPool'', COMDAT

; 386  : CDynamicPool<CInstanceBase> CInstanceBase::ms_kPool;

  00000	68 00 00 00 00	 push	 OFFSET ??__F?ms_kPool@CInstanceBase@@2V?$CDynamicPool@VCInstanceBase@@@@A@@YAXXZ ; `dynamic atexit destructor for 'CInstanceBase::ms_kPool''
  00005	e8 00 00 00 00	 call	 _atexit
  0000a	59		 pop	 ecx
  0000b	c3		 ret	 0
??__E?ms_kPool@CInstanceBase@@2V?$CDynamicPool@VCInstanceBase@@@@A@@YAXXZ ENDP ; `dynamic initializer for 'CInstanceBase::ms_kPool''
text$di	ENDS
; Function compile flags: /Ogtp
;	COMDAT ??_G?$CDynamicPool@VCInstanceBase@@@@UAEPAXI@Z
_TEXT	SEGMENT
___flags$ = 8						; size = 4
??_G?$CDynamicPool@VCInstanceBase@@@@UAEPAXI@Z PROC	; CDynamicPool<CInstanceBase>::`scalar deleting destructor', COMDAT
; _this$ = ecx
  00000	55		 push	 ebp
  00001	8b ec		 mov	 ebp, esp
  00003	56		 push	 esi
  00004	8b f1		 mov	 esi, ecx
  00006	e8 00 00 00 00	 call	 ??1?$CDynamicPool@VCInstanceBase@@@@UAE@XZ ; CDynamicPool<CInstanceBase>::~CDynamicPool<CInstanceBase>
  0000b	f6 45 08 01	 test	 BYTE PTR ___flags$[ebp], 1
  0000f	74 0b		 je	 SHORT $LN4@scalar
  00011	6a 24		 push	 36			; 00000024H
  00013	56		 push	 esi
  00014	e8 00 00 00 00	 call	 ??3@YAXPAXI@Z		; operator delete
  00019	83 c4 08	 add	 esp, 8
$LN4@scalar:
  0001c	8b c6		 mov	 eax, esi
  0001e	5e		 pop	 esi
  0001f	5d		 pop	 ebp
  00020	c2 04 00	 ret	 4
??_G?$CDynamicPool@VCInstanceBase@@@@UAEPAXI@Z ENDP	; CDynamicPool<CInstanceBase>::`scalar deleting destructor'
_TEXT	ENDS
; Function compile flags: /Ogtp
; File D:\Metin2 Server Files\mainline\SRC_2014\Metin2Client\eterLib\Pool.h
;	COMDAT ?Delete@?$CDynamicPool@VCInstanceBase@@@@KAXPAVCInstanceBase@@@Z
_TEXT	SEGMENT
_pkData$ = 8						; size = 4
?Delete@?$CDynamicPool@VCInstanceBase@@@@KAXPAVCInstanceBase@@@Z PROC ; CDynamicPool<CInstanceBase>::Delete, COMDAT

; 109  : 		{

  00000	55		 push	 ebp
  00001	8b ec		 mov	 ebp, esp

; 110  : 			delete pkData;

  00003	8b 4d 08	 mov	 ecx, DWORD PTR _pkData$[ebp]
  00006	85 c9		 test	 ecx, ecx
  00008	74 06		 je	 SHORT $LN3@Delete
  0000a	8b 01		 mov	 eax, DWORD PTR [ecx]
  0000c	6a 01		 push	 1
  0000e	ff 10		 call	 DWORD PTR [eax]
$LN3@Delete:

; 111  : 		}

  00010	5d		 pop	 ebp
  00011	c3		 ret	 0
?Delete@?$CDynamicPool@VCInstanceBase@@@@KAXPAVCInstanceBase@@@Z ENDP ; CDynamicPool<CInstanceBase>::Delete
_TEXT	ENDS
; Function compile flags: /Ogtp
; File D:\Metin2 Server Files\mainline\SRC_2014\Metin2Client\eterLib\Pool.h
; File C:\Program Files (x86)\Microsoft Visual Studio\2019\Community\VC\Tools\MSVC\14.28.29333\include\vector
; File C:\Program Files (x86)\Microsoft Visual Studio\2019\Community\VC\Tools\MSVC\14.28.29333\include\xmemory
; File C:\Program Files (x86)\Microsoft Visual Studio\2019\Community\VC\Tools\MSVC\14.28.29333\include\vector
; File C:\Program Files (x86)\Microsoft Visual Studio\2019\Community\VC\Tools\MSVC\14.28.29333\include\xmemory
; File C:\Program Files (x86)\Microsoft Visual Studio\2019\Community\VC\Tools\MSVC\14.28.29333\include\vector
; File C:\Program Files (x86)\Microsoft Visual Studio\2019\Community\VC\Tools\MSVC\14.28.29333\include\xmemory
; File C:\Program Files (x86)\Microsoft Visual Studio\2019\Community\VC\Tools\MSVC\14.28.29333\include\vector
; File C:\Program Files (x86)\Microsoft Visual Studio\2019\Community\VC\Tools\MSVC\14.28.29333\include\xmemory
; File C:\Program Files (x86)\Microsoft Visual Studio\2019\Community\VC\Tools\MSVC\14.28.29333\include\vector
; File D:\Metin2 Server Files\mainline\SRC_2014\Metin2Client\eterLib\Pool.h
;	COMDAT ??1?$CDynamicPool@VCInstanceBase@@@@UAE@XZ
_TEXT	SEGMENT
??1?$CDynamicPool@VCInstanceBase@@@@UAE@XZ PROC		; CDynamicPool<CInstanceBase>::~CDynamicPool<CInstanceBase>, COMDAT
; _this$ = ecx

; 18   : 		{

  00000	56		 push	 esi
  00001	8b f1		 mov	 esi, ecx
  00003	c7 06 00 00 00
	00		 mov	 DWORD PTR [esi], OFFSET ??_7?$CDynamicPool@VCInstanceBase@@@@6B@
; File C:\Program Files (x86)\Microsoft Visual Studio\2019\Community\VC\Tools\MSVC\14.28.29333\include\vector

; 1694 :         if (_Myfirst) { // destroy and deallocate old array

  00009	8b 4e 10	 mov	 ecx, DWORD PTR [esi+16]
  0000c	85 c9		 test	 ecx, ecx
  0000e	74 27		 je	 SHORT $LN6@CDynamicPo

; 1695 :             _Destroy(_Myfirst, _Mylast);
; 1696 :             _Getal().deallocate(_Myfirst, static_cast<size_type>(_Myend - _Myfirst));

  00010	8b 46 18	 mov	 eax, DWORD PTR [esi+24]
  00013	2b c1		 sub	 eax, ecx
; File C:\Program Files (x86)\Microsoft Visual Studio\2019\Community\VC\Tools\MSVC\14.28.29333\include\xmemory

; 810  :         _Deallocate<_New_alignof<_Ty>>(_Ptr, sizeof(_Ty) * _Count);

  00015	83 e0 fc	 and	 eax, -4			; fffffffcH
  00018	50		 push	 eax
  00019	51		 push	 ecx
  0001a	e8 00 00 00 00	 call	 ??$_Deallocate@$07$0A@@std@@YAXPAXI@Z ; std::_Deallocate<8,0>
; File C:\Program Files (x86)\Microsoft Visual Studio\2019\Community\VC\Tools\MSVC\14.28.29333\include\vector

; 1698 :             _Myfirst = pointer();

  0001f	c7 46 10 00 00
	00 00		 mov	 DWORD PTR [esi+16], 0
; File C:\Program Files (x86)\Microsoft Visual Studio\2019\Community\VC\Tools\MSVC\14.28.29333\include\xmemory

; 810  :         _Deallocate<_New_alignof<_Ty>>(_Ptr, sizeof(_Ty) * _Count);

  00026	83 c4 08	 add	 esp, 8
; File C:\Program Files (x86)\Microsoft Visual Studio\2019\Community\VC\Tools\MSVC\14.28.29333\include\vector

; 1699 :             _Mylast  = pointer();

  00029	c7 46 14 00 00
	00 00		 mov	 DWORD PTR [esi+20], 0

; 1700 :             _Myend   = pointer();

  00030	c7 46 18 00 00
	00 00		 mov	 DWORD PTR [esi+24], 0
$LN6@CDynamicPo:

; 1694 :         if (_Myfirst) { // destroy and deallocate old array

  00037	8b 4e 04	 mov	 ecx, DWORD PTR [esi+4]
  0003a	85 c9		 test	 ecx, ecx
  0003c	74 27		 je	 SHORT $LN13@CDynamicPo

; 1695 :             _Destroy(_Myfirst, _Mylast);
; 1696 :             _Getal().deallocate(_Myfirst, static_cast<size_type>(_Myend - _Myfirst));

  0003e	8b 46 0c	 mov	 eax, DWORD PTR [esi+12]
  00041	2b c1		 sub	 eax, ecx
; File C:\Program Files (x86)\Microsoft Visual Studio\2019\Community\VC\Tools\MSVC\14.28.29333\include\xmemory

; 810  :         _Deallocate<_New_alignof<_Ty>>(_Ptr, sizeof(_Ty) * _Count);

  00043	83 e0 fc	 and	 eax, -4			; fffffffcH
  00046	50		 push	 eax
  00047	51		 push	 ecx
  00048	e8 00 00 00 00	 call	 ??$_Deallocate@$07$0A@@std@@YAXPAXI@Z ; std::_Deallocate<8,0>
; File C:\Program Files (x86)\Microsoft Visual Studio\2019\Community\VC\Tools\MSVC\14.28.29333\include\vector

; 1698 :             _Myfirst = pointer();

  0004d	c7 46 04 00 00
	00 00		 mov	 DWORD PTR [esi+4], 0
; File C:\Program Files (x86)\Microsoft Visual Studio\2019\Community\VC\Tools\MSVC\14.28.29333\include\xmemory

; 810  :         _Deallocate<_New_alignof<_Ty>>(_Ptr, sizeof(_Ty) * _Count);

  00054	83 c4 08	 add	 esp, 8
; File C:\Program Files (x86)\Microsoft Visual Studio\2019\Community\VC\Tools\MSVC\14.28.29333\include\vector

; 1699 :             _Mylast  = pointer();

  00057	c7 46 08 00 00
	00 00		 mov	 DWORD PTR [esi+8], 0

; 1700 :             _Myend   = pointer();

  0005e	c7 46 0c 00 00
	00 00		 mov	 DWORD PTR [esi+12], 0
$LN13@CDynamicPo:
  00065	5e		 pop	 esi
; File D:\Metin2 Server Files\mainline\SRC_2014\Metin2Client\eterLib\Pool.h

; 26   : 		}

  00066	c3		 ret	 0
??1?$CDynamicPool@VCInstanceBase@@@@UAE@XZ ENDP		; CDynamicPool<CInstanceBase>::~CDynamicPool<CInstanceBase>
_TEXT	ENDS
; Function compile flags: /Ogtp
; File D:\Metin2 Server Files\mainline\SRC_2014\Metin2Client\eterBase\Singleton.h
;	COMDAT ??__Fgs_kActorInstBG@@YAXXZ
text$yd	SEGMENT
??__Fgs_kActorInstBG@@YAXXZ PROC			; `dynamic atexit destructor for 'gs_kActorInstBG'', COMDAT

; 19   : 	{ 

  00000	c7 05 00 00 00
	00 00 00 00 00	 mov	 DWORD PTR ?gs_kActorInstBG@@3VCActorInstanceBackground@@A, OFFSET ??_7?$CSingleton@VIBackground@@@@6B@

; 20   : 		assert(ms_singleton);
; 21   : 		ms_singleton = 0; 

  0000a	c7 05 00 00 00
	00 00 00 00 00	 mov	 DWORD PTR ?ms_singleton@?$CSingleton@VIBackground@@@@0PAVIBackground@@A, 0 ; CSingleton<IBackground>::ms_singleton
  00014	c3		 ret	 0
??__Fgs_kActorInstBG@@YAXXZ ENDP			; `dynamic atexit destructor for 'gs_kActorInstBG''
text$yd	ENDS
; Function compile flags: /Ogtp
; File D:\Metin2 Server Files\mainline\SRC_2014\Metin2Client\UserInterface\InstanceBase.cpp
; File D:\Metin2 Server Files\mainline\SRC_2014\Metin2Client\eterBase\Singleton.h
; File D:\Metin2 Server Files\mainline\SRC_2014\Metin2Client\UserInterface\InstanceBase.cpp
;	COMDAT ??__Egs_kActorInstBG@@YAXXZ
text$di	SEGMENT
??__Egs_kActorInstBG@@YAXXZ PROC			; `dynamic initializer for 'gs_kActorInstBG'', COMDAT

; 319  : static CActorInstanceBackground gs_kActorInstBG;

  00000	68 00 00 00 00	 push	 OFFSET ??__Fgs_kActorInstBG@@YAXXZ ; `dynamic atexit destructor for 'gs_kActorInstBG''
; File D:\Metin2 Server Files\mainline\SRC_2014\Metin2Client\eterBase\Singleton.h

; 15   : 		ms_singleton = (T*) ((int) this + offset);

  00005	c7 05 00 00 00
	00 00 00 00 00	 mov	 DWORD PTR ?ms_singleton@?$CSingleton@VIBackground@@@@0PAVIBackground@@A, OFFSET ?gs_kActorInstBG@@3VCActorInstanceBackground@@A ; CSingleton<IBackground>::ms_singleton
; File D:\Metin2 Server Files\mainline\SRC_2014\Metin2Client\UserInterface\InstanceBase.cpp

; 319  : static CActorInstanceBackground gs_kActorInstBG;

  0000f	e8 00 00 00 00	 call	 _atexit
  00014	59		 pop	 ecx
  00015	c3		 ret	 0
??__Egs_kActorInstBG@@YAXXZ ENDP			; `dynamic initializer for 'gs_kActorInstBG''
text$di	ENDS
; Function compile flags: /Ogtp
; File D:\Metin2 Server Files\mainline\SRC_2014\Metin2Client\eterBase\Singleton.h
;	COMDAT ??_GCActorInstanceBackground@@UAEPAXI@Z
_TEXT	SEGMENT
___flags$ = 8						; size = 4
??_GCActorInstanceBackground@@UAEPAXI@Z PROC		; CActorInstanceBackground::`scalar deleting destructor', COMDAT
; _this$ = ecx
  00000	55		 push	 ebp
  00001	8b ec		 mov	 ebp, esp
  00003	f6 45 08 01	 test	 BYTE PTR ___flags$[ebp], 1

; 19   : 	{ 

  00007	56		 push	 esi
  00008	8b f1		 mov	 esi, ecx
  0000a	c7 06 00 00 00
	00		 mov	 DWORD PTR [esi], OFFSET ??_7?$CSingleton@VIBackground@@@@6B@

; 20   : 		assert(ms_singleton);
; 21   : 		ms_singleton = 0; 

  00010	c7 05 00 00 00
	00 00 00 00 00	 mov	 DWORD PTR ?ms_singleton@?$CSingleton@VIBackground@@@@0PAVIBackground@@A, 0 ; CSingleton<IBackground>::ms_singleton
  0001a	74 0b		 je	 SHORT $LN12@scalar
  0001c	6a 04		 push	 4
  0001e	56		 push	 esi
  0001f	e8 00 00 00 00	 call	 ??3@YAXPAXI@Z		; operator delete
  00024	83 c4 08	 add	 esp, 8
$LN12@scalar:
  00027	8b c6		 mov	 eax, esi
  00029	5e		 pop	 esi
  0002a	5d		 pop	 ebp
  0002b	c2 04 00	 ret	 4
??_GCActorInstanceBackground@@UAEPAXI@Z ENDP		; CActorInstanceBackground::`scalar deleting destructor'
_TEXT	ENDS
; Function compile flags: /Ogtp
; File D:\Metin2 Server Files\mainline\SRC_2014\Metin2Client\UserInterface\InstanceBase.cpp
;	COMDAT ?IsBlock@CActorInstanceBackground@@UAE_NHH@Z
_TEXT	SEGMENT
_x$ = 8							; size = 4
_y$ = 12						; size = 4
?IsBlock@CActorInstanceBackground@@UAE_NHH@Z PROC	; CActorInstanceBackground::IsBlock, COMDAT
; _this$ = ecx

; 313  : 		{

  00000	55		 push	 ebp
  00001	8b ec		 mov	 ebp, esp

; 314  : 			CPythonBackground& rkBG=CPythonBackground::Instance();
; 315  : 			return rkBG.isAttrOn(x, y, CTerrainImpl::ATTRIBUTE_BLOCK);

  00003	8b 0d 00 00 00
	00		 mov	 ecx, DWORD PTR ?ms_singleton@?$CSingleton@VCPythonBackground@@@@0PAVCPythonBackground@@A ; CSingleton<CPythonBackground>::ms_singleton
  00009	6a 01		 push	 1
  0000b	ff 75 0c	 push	 DWORD PTR _y$[ebp]
  0000e	ff 75 08	 push	 DWORD PTR _x$[ebp]
  00011	e8 00 00 00 00	 call	 ?isAttrOn@CMapManager@@QAE_NHHE@Z ; CMapManager::isAttrOn

; 316  : 		}

  00016	5d		 pop	 ebp
  00017	c2 08 00	 ret	 8
?IsBlock@CActorInstanceBackground@@UAE_NHH@Z ENDP	; CActorInstanceBackground::IsBlock
_TEXT	ENDS
; Function compile flags: /Ogtp
; File D:\Metin2 Server Files\mainline\SRC_2014\Metin2Client\UserInterface\InstanceBase.cpp
; File D:\Metin2 Server Files\mainline\SRC_2014\Metin2Client\eterBase\Singleton.h
; File D:\Metin2 Server Files\mainline\SRC_2014\Metin2Client\UserInterface\InstanceBase.cpp
;	COMDAT ??1CActorInstanceBackground@@UAE@XZ
_TEXT	SEGMENT
??1CActorInstanceBackground@@UAE@XZ PROC		; CActorInstanceBackground::~CActorInstanceBackground, COMDAT
; _this$ = ecx
; File D:\Metin2 Server Files\mainline\SRC_2014\Metin2Client\eterBase\Singleton.h

; 19   : 	{ 

  00000	c7 01 00 00 00
	00		 mov	 DWORD PTR [ecx], OFFSET ??_7?$CSingleton@VIBackground@@@@6B@

; 20   : 		assert(ms_singleton);
; 21   : 		ms_singleton = 0; 

  00006	c7 05 00 00 00
	00 00 00 00 00	 mov	 DWORD PTR ?ms_singleton@?$CSingleton@VIBackground@@@@0PAVIBackground@@A, 0 ; CSingleton<IBackground>::ms_singleton
; File D:\Metin2 Server Files\mainline\SRC_2014\Metin2Client\UserInterface\InstanceBase.cpp

; 311  : 		virtual ~CActorInstanceBackground() {}

  00010	c3		 ret	 0
??1CActorInstanceBackground@@UAE@XZ ENDP		; CActorInstanceBackground::~CActorInstanceBackground
_TEXT	ENDS
; Function compile flags: /Ogtp
; File D:\Metin2 Server Files\mainline\SRC_2014\Metin2Client\UserInterface\InstanceBase.cpp
;	COMDAT ?__ArmorVnumToShape@@YA_NHPAK@Z
_TEXT	SEGMENT
_pItemData$ = 8						; size = 4
_iVnum$ = 8						; size = 4
_pdwShape$ = 12						; size = 4
?__ArmorVnumToShape@@YA_NHPAK@Z PROC			; __ArmorVnumToShape, COMDAT

; 281  : {

  00000	55		 push	 ebp
  00001	8b ec		 mov	 ebp, esp

; 282  : 	*pdwShape = iVnum;

  00003	8b 45 08	 mov	 eax, DWORD PTR _iVnum$[ebp]
  00006	56		 push	 esi
  00007	8b 75 0c	 mov	 esi, DWORD PTR _pdwShape$[ebp]
  0000a	89 06		 mov	 DWORD PTR [esi], eax

; 283  : 
; 284  : 	/////////////////////////////////////////
; 285  : 
; 286  : 	if (0 == iVnum || 1 == iVnum)

  0000c	85 c0		 test	 eax, eax
  0000e	74 33		 je	 SHORT $LN3@ArmorVnumT
  00010	83 f8 01	 cmp	 eax, 1
  00013	74 2e		 je	 SHORT $LN3@ArmorVnumT

; 288  : 
; 289  : 	if (!USE_ARMOR_SPECULAR)

  00015	83 3d 00 00 00
	00 00		 cmp	 DWORD PTR ?USE_ARMOR_SPECULAR@@3HA, 0 ; USE_ARMOR_SPECULAR
  0001c	74 25		 je	 SHORT $LN3@ArmorVnumT

; 290  : 		return false;
; 291  : 
; 292  : 	CItemData * pItemData;
; 293  : 	if (!CItemManager::Instance().GetItemDataPointer(iVnum, &pItemData))

  0001e	8d 4d 08	 lea	 ecx, DWORD PTR _pItemData$[ebp]
  00021	51		 push	 ecx
  00022	8b 0d 00 00 00
	00		 mov	 ecx, DWORD PTR ?ms_singleton@?$CSingleton@VCItemManager@@@@0PAVCItemManager@@A ; CSingleton<CItemManager>::ms_singleton
  00028	50		 push	 eax
  00029	e8 00 00 00 00	 call	 ?GetItemDataPointer@CItemManager@@QAEHKPAPAVCItemData@@@Z ; CItemManager::GetItemDataPointer
  0002e	85 c0		 test	 eax, eax
  00030	74 11		 je	 SHORT $LN3@ArmorVnumT

; 294  : 		return false;
; 295  : 
; 296  : 	enum
; 297  : 	{
; 298  : 		SHAPE_VALUE_SLOT_INDEX = 3,
; 299  : 	};
; 300  : 
; 301  : 	*pdwShape = pItemData->GetValue(SHAPE_VALUE_SLOT_INDEX);

  00032	8b 4d 08	 mov	 ecx, DWORD PTR _pItemData$[ebp]
  00035	6a 03		 push	 3
  00037	e8 00 00 00 00	 call	 ?GetValue@CItemData@@QBEJE@Z ; CItemData::GetValue
  0003c	89 06		 mov	 DWORD PTR [esi], eax

; 302  : 
; 303  : 	return true;

  0003e	b0 01		 mov	 al, 1
  00040	5e		 pop	 esi

; 304  : }

  00041	5d		 pop	 ebp
  00042	c3		 ret	 0
$LN3@ArmorVnumT:

; 287  : 		return false;

  00043	32 c0		 xor	 al, al
  00045	5e		 pop	 esi

; 304  : }

  00046	5d		 pop	 ebp
  00047	c3		 ret	 0
?__ArmorVnumToShape@@YA_NHPAK@Z ENDP			; __ArmorVnumToShape
_TEXT	ENDS
; Function compile flags: /Ogtp
; File D:\Metin2 Server Files\mainline\SRC_2014\Metin2Client\UserInterface\InstanceBase.cpp
;	COMDAT ?IsWall@@YA_NI@Z
_TEXT	SEGMENT
_race$ = 8						; size = 4
?IsWall@@YA_NI@Z PROC					; IsWall, COMDAT

; 22   : {

  00000	55		 push	 ebp
  00001	8b ec		 mov	 ebp, esp

; 23   : 	switch (race)

  00003	8b 45 08	 mov	 eax, DWORD PTR _race$[ebp]
  00006	05 87 c8 ff ff	 add	 eax, -14201		; ffffc887H
  0000b	83 f8 03	 cmp	 eax, 3
  0000e	0f 96 c0	 setbe	 al

; 24   : 	{
; 25   : 		case 14201:
; 26   : 		case 14202:
; 27   : 		case 14203:
; 28   : 		case 14204:
; 29   : 			return true;
; 30   : 			break;
; 31   : 	}
; 32   : 	return false;
; 33   : }

  00011	5d		 pop	 ebp
  00012	c3		 ret	 0
?IsWall@@YA_NI@Z ENDP					; IsWall
_TEXT	ENDS
; Function compile flags: /Ogtp
; File C:\Program Files (x86)\Microsoft Visual Studio\2019\Community\VC\Tools\MSVC\14.28.29333\include\vector
;	COMDAT ?_Xlength@?$vector@PAVCInstanceBase@@V?$allocator@PAVCInstanceBase@@@std@@@std@@CAXXZ
_TEXT	SEGMENT
?_Xlength@?$vector@PAVCInstanceBase@@V?$allocator@PAVCInstanceBase@@@std@@@std@@CAXXZ PROC ; std::vector<CInstanceBase *,std::allocator<CInstanceBase *> >::_Xlength, COMDAT

; 1705 :         _Xlength_error("vector too long");

  00000	68 00 00 00 00	 push	 OFFSET ??_C@_0BA@FOIKENOD@vector?5too?5long@
  00005	e8 00 00 00 00	 call	 ?_Xlength_error@std@@YAXPBD@Z ; std::_Xlength_error
$LN3@Xlength:
  0000a	cc		 int	 3
?_Xlength@?$vector@PAVCInstanceBase@@V?$allocator@PAVCInstanceBase@@@std@@@std@@CAXXZ ENDP ; std::vector<CInstanceBase *,std::allocator<CInstanceBase *> >::_Xlength
_TEXT	ENDS
; Function compile flags: /Ogtp
; File C:\Program Files (x86)\Microsoft Visual Studio\2019\Community\VC\Tools\MSVC\14.28.29333\include\vector
; File C:\Program Files (x86)\Microsoft Visual Studio\2019\Community\VC\Tools\MSVC\14.28.29333\include\xmemory
; File C:\Program Files (x86)\Microsoft Visual Studio\2019\Community\VC\Tools\MSVC\14.28.29333\include\vector
; File C:\Program Files (x86)\Microsoft Visual Studio\2019\Community\VC\Tools\MSVC\14.28.29333\include\xmemory
; File C:\Program Files (x86)\Microsoft Visual Studio\2019\Community\VC\Tools\MSVC\14.28.29333\include\vector
; File C:\Program Files (x86)\Microsoft Visual Studio\2019\Community\VC\Tools\MSVC\14.28.29333\include\xmemory
; File C:\Program Files (x86)\Microsoft Visual Studio\2019\Community\VC\Tools\MSVC\14.28.29333\include\vector
; File C:\Program Files (x86)\Microsoft Visual Studio\2019\Community\VC\Tools\MSVC\14.28.29333\include\xmemory
; File C:\Program Files (x86)\Microsoft Visual Studio\2019\Community\VC\Tools\MSVC\14.28.29333\include\vector
; File C:\Program Files (x86)\Microsoft Visual Studio\2019\Community\VC\Tools\MSVC\14.28.29333\include\xmemory
; File C:\Program Files (x86)\Microsoft Visual Studio\2019\Community\VC\Tools\MSVC\14.28.29333\include\vector
;	COMDAT ?_Reallocate_exactly@?$vector@PAVCInstanceBase@@V?$allocator@PAVCInstanceBase@@@std@@@std@@AAEXI@Z
_TEXT	SEGMENT
tv254 = 8						; size = 4
__Newcapacity$ = 8					; size = 4
?_Reallocate_exactly@?$vector@PAVCInstanceBase@@V?$allocator@PAVCInstanceBase@@@std@@@std@@AAEXI@Z PROC ; std::vector<CInstanceBase *,std::allocator<CInstanceBase *> >::_Reallocate_exactly, COMDAT
; _this$ = ecx

; 1251 :     void _Reallocate_exactly(const size_type _Newcapacity) {

  00000	55		 push	 ebp
  00001	8b ec		 mov	 ebp, esp
; File C:\Program Files (x86)\Microsoft Visual Studio\2019\Community\VC\Tools\MSVC\14.28.29333\include\xmemory

; 60   :         if (_Count > _Max_possible) {

  00003	8b 45 08	 mov	 eax, DWORD PTR __Newcapacity$[ebp]
; File C:\Program Files (x86)\Microsoft Visual Studio\2019\Community\VC\Tools\MSVC\14.28.29333\include\vector

; 1251 :     void _Reallocate_exactly(const size_type _Newcapacity) {

  00006	53		 push	 ebx
  00007	56		 push	 esi
  00008	8b f1		 mov	 esi, ecx
  0000a	57		 push	 edi

; 1252 :         // set capacity to _Newcapacity (without geometric growth), provide strong guarantee
; 1253 :         auto& _My_data    = _Mypair._Myval2;
; 1254 :         pointer& _Myfirst = _My_data._Myfirst;
; 1255 :         pointer& _Mylast  = _My_data._Mylast;
; 1256 : 
; 1257 :         const auto _Size = static_cast<size_type>(_Mylast - _Myfirst);

  0000b	8b 7e 04	 mov	 edi, DWORD PTR [esi+4]
  0000e	2b 3e		 sub	 edi, DWORD PTR [esi]
  00010	c1 ff 02	 sar	 edi, 2
; File C:\Program Files (x86)\Microsoft Visual Studio\2019\Community\VC\Tools\MSVC\14.28.29333\include\xmemory

; 60   :         if (_Count > _Max_possible) {

  00013	3d ff ff ff 3f	 cmp	 eax, 1073741823		; 3fffffffH
  00018	77 4c		 ja	 SHORT $LN26@Reallocate

; 62   :         }
; 63   :     }
; 64   : 
; 65   :     return _Count * _Ty_size;

  0001a	c1 e0 02	 shl	 eax, 2

; 814  :         return static_cast<_Ty*>(_Allocate<_New_alignof<_Ty>>(_Get_size_of_n<sizeof(_Ty)>(_Count)));

  0001d	50		 push	 eax

; 65   :     return _Count * _Ty_size;

  0001e	89 45 08	 mov	 DWORD PTR tv254[ebp], eax

; 814  :         return static_cast<_Ty*>(_Allocate<_New_alignof<_Ty>>(_Get_size_of_n<sizeof(_Ty)>(_Count)));

  00021	e8 00 00 00 00	 call	 ??$_Allocate@$07U_Default_allocate_traits@std@@$0A@@std@@YAPAXI@Z ; std::_Allocate<8,std::_Default_allocate_traits,0>
; File C:\Program Files (x86)\Microsoft Visual Studio\2019\Community\VC\Tools\MSVC\14.28.29333\include\vector

; 1597 :         _Uninitialized_move(_First, _Last, _Dest, _Getal());

  00026	56		 push	 esi
; File C:\Program Files (x86)\Microsoft Visual Studio\2019\Community\VC\Tools\MSVC\14.28.29333\include\xmemory

; 814  :         return static_cast<_Ty*>(_Allocate<_New_alignof<_Ty>>(_Get_size_of_n<sizeof(_Ty)>(_Count)));

  00027	8b d8		 mov	 ebx, eax
; File C:\Program Files (x86)\Microsoft Visual Studio\2019\Community\VC\Tools\MSVC\14.28.29333\include\vector

; 1597 :         _Uninitialized_move(_First, _Last, _Dest, _Getal());

  00029	53		 push	 ebx
  0002a	ff 76 04	 push	 DWORD PTR [esi+4]
  0002d	ff 36		 push	 DWORD PTR [esi]
  0002f	e8 00 00 00 00	 call	 ??$_Uninitialized_move@PAPAVCInstanceBase@@V?$allocator@PAVCInstanceBase@@@std@@@std@@YAPAPAVCInstanceBase@@QAPAV1@0PAPAV1@AAV?$allocator@PAVCInstanceBase@@@0@@Z ; std::_Uninitialized_move<CInstanceBase * *,std::allocator<CInstanceBase *> >

; 1676 :         if (_Myfirst) { // destroy and deallocate old array

  00034	8b 0e		 mov	 ecx, DWORD PTR [esi]

; 1597 :         _Uninitialized_move(_First, _Last, _Dest, _Getal());

  00036	83 c4 14	 add	 esp, 20			; 00000014H

; 1676 :         if (_Myfirst) { // destroy and deallocate old array

  00039	85 c9		 test	 ecx, ecx
  0003b	74 12		 je	 SHORT $LN20@Reallocate

; 1677 :             _Destroy(_Myfirst, _Mylast);
; 1678 :             _Getal().deallocate(_Myfirst, static_cast<size_type>(_Myend - _Myfirst));

  0003d	8b 46 08	 mov	 eax, DWORD PTR [esi+8]
  00040	2b c1		 sub	 eax, ecx
; File C:\Program Files (x86)\Microsoft Visual Studio\2019\Community\VC\Tools\MSVC\14.28.29333\include\xmemory

; 810  :         _Deallocate<_New_alignof<_Ty>>(_Ptr, sizeof(_Ty) * _Count);

  00042	83 e0 fc	 and	 eax, -4			; fffffffcH
  00045	50		 push	 eax
  00046	51		 push	 ecx
  00047	e8 00 00 00 00	 call	 ??$_Deallocate@$07$0A@@std@@YAXPAXI@Z ; std::_Deallocate<8,0>
  0004c	83 c4 08	 add	 esp, 8
$LN20@Reallocate:
; File C:\Program Files (x86)\Microsoft Visual Studio\2019\Community\VC\Tools\MSVC\14.28.29333\include\vector

; 1682 :         _Mylast  = _Newvec + _Newsize;

  0004f	8d 04 bb	 lea	 eax, DWORD PTR [ebx+edi*4]
  00052	89 1e		 mov	 DWORD PTR [esi], ebx
  00054	89 46 04	 mov	 DWORD PTR [esi+4], eax

; 1683 :         _Myend   = _Newvec + _Newcapacity;

  00057	8b 45 08	 mov	 eax, DWORD PTR tv254[ebp]
  0005a	03 c3		 add	 eax, ebx
  0005c	5f		 pop	 edi
  0005d	89 46 08	 mov	 DWORD PTR [esi+8], eax
  00060	5e		 pop	 esi
  00061	5b		 pop	 ebx

; 1269 :     }

  00062	5d		 pop	 ebp
  00063	c2 04 00	 ret	 4
$LN26@Reallocate:
; File C:\Program Files (x86)\Microsoft Visual Studio\2019\Community\VC\Tools\MSVC\14.28.29333\include\xmemory

; 61   :             _Throw_bad_array_new_length(); // multiply overflow

  00066	e8 00 00 00 00	 call	 ?_Throw_bad_array_new_length@std@@YAXXZ ; std::_Throw_bad_array_new_length
$LN24@Reallocate:
  0006b	cc		 int	 3
?_Reallocate_exactly@?$vector@PAVCInstanceBase@@V?$allocator@PAVCInstanceBase@@@std@@@std@@AAEXI@Z ENDP ; std::vector<CInstanceBase *,std::allocator<CInstanceBase *> >::_Reallocate_exactly
_TEXT	ENDS
; Function compile flags: /Ogtp
;	COMDAT ??_GCInstanceBase@@UAEPAXI@Z
_TEXT	SEGMENT
___flags$ = 8						; size = 4
??_GCInstanceBase@@UAEPAXI@Z PROC			; CInstanceBase::`scalar deleting destructor', COMDAT
; _this$ = ecx
  00000	55		 push	 ebp
  00001	8b ec		 mov	 ebp, esp
  00003	56		 push	 esi
  00004	8b f1		 mov	 esi, ecx
  00006	e8 00 00 00 00	 call	 ??1CInstanceBase@@UAE@XZ ; CInstanceBase::~CInstanceBase
  0000b	f6 45 08 01	 test	 BYTE PTR ___flags$[ebp], 1
  0000f	74 0e		 je	 SHORT $LN4@scalar
  00011	68 b0 06 00 00	 push	 1712			; 000006b0H
  00016	56		 push	 esi
  00017	e8 00 00 00 00	 call	 ??3@YAXPAXI@Z		; operator delete
  0001c	83 c4 08	 add	 esp, 8
$LN4@scalar:
  0001f	8b c6		 mov	 eax, esi
  00021	5e		 pop	 esi
  00022	5d		 pop	 ebp
  00023	c2 04 00	 ret	 4
??_GCInstanceBase@@UAEPAXI@Z ENDP			; CInstanceBase::`scalar deleting destructor'
_TEXT	ENDS
; Function compile flags: /Ogtp
; File D:\Metin2 Server Files\mainline\SRC_2014\Metin2Client\UserInterface\InstanceBase.cpp
;	COMDAT ?SetDuelMode@CInstanceBase@@QAEXK@Z
_TEXT	SEGMENT
_type$ = 8						; size = 4
?SetDuelMode@CInstanceBase@@QAEXK@Z PROC		; CInstanceBase::SetDuelMode, COMDAT
; _this$ = ecx

; 2137 : {

  00000	55		 push	 ebp
  00001	8b ec		 mov	 ebp, esp

; 2138 : 	m_dwDuelMode = type;

  00003	8b 45 08	 mov	 eax, DWORD PTR _type$[ebp]
  00006	89 81 a8 06 00
	00		 mov	 DWORD PTR [ecx+1704], eax

; 2139 : }

  0000c	5d		 pop	 ebp
  0000d	c2 04 00	 ret	 4
?SetDuelMode@CInstanceBase@@QAEXK@Z ENDP		; CInstanceBase::SetDuelMode
_TEXT	ENDS
; Function compile flags: /Ogtp
; File D:\Metin2 Server Files\mainline\SRC_2014\Metin2Client\UserInterface\InstanceBase.cpp
;	COMDAT ?GetDuelMode@CInstanceBase@@QAEKXZ
_TEXT	SEGMENT
?GetDuelMode@CInstanceBase@@QAEKXZ PROC			; CInstanceBase::GetDuelMode, COMDAT
; _this$ = ecx

; 2143 : 	return m_dwDuelMode;

  00000	8b 81 a8 06 00
	00		 mov	 eax, DWORD PTR [ecx+1704]

; 2144 : }

  00006	c3		 ret	 0
?GetDuelMode@CInstanceBase@@QAEKXZ ENDP			; CInstanceBase::GetDuelMode
_TEXT	ENDS
; Function compile flags: /Ogtp
; File D:\Metin2 Server Files\mainline\SRC_2014\Metin2Client\UserInterface\InstanceBase.cpp
; File C:\Program Files (x86)\Microsoft Visual Studio\2019\Community\VC\Tools\MSVC\14.28.29333\include\vector
; File D:\Metin2 Server Files\mainline\SRC_2014\Metin2Client\UserInterface\InstanceBase.cpp
; File C:\Program Files (x86)\Microsoft Visual Studio\2019\Community\VC\Tools\MSVC\14.28.29333\include\vector
; File D:\Metin2 Server Files\mainline\SRC_2014\Metin2Client\UserInterface\InstanceBase.cpp
; File C:\Program Files (x86)\Microsoft Visual Studio\2019\Community\VC\Tools\MSVC\14.28.29333\include\vector
; File D:\Metin2 Server Files\mainline\SRC_2014\Metin2Client\UserInterface\InstanceBase.cpp
;	COMDAT ?Delete@CInstanceBase@@SAXPAV1@@Z
_TEXT	SEGMENT
_pkData$ = 8						; size = 4
_pkInst$ = 8						; size = 4
?Delete@CInstanceBase@@SAXPAV1@@Z PROC			; CInstanceBase::Delete, COMDAT

; 642  : {

  00000	55		 push	 ebp
  00001	8b ec		 mov	 ebp, esp
  00003	56		 push	 esi

; 643  : 	pkInst->Destroy();

  00004	8b 75 08	 mov	 esi, DWORD PTR _pkInst$[ebp]
  00007	8b ce		 mov	 ecx, esi
  00009	e8 00 00 00 00	 call	 ?Destroy@CInstanceBase@@QAEXXZ ; CInstanceBase::Destroy
; File C:\Program Files (x86)\Microsoft Visual Studio\2019\Community\VC\Tools\MSVC\14.28.29333\include\vector

; 704  :         if (_Mylast != _My_data._Myend) {

  0000e	a1 14 00 00 00	 mov	 eax, DWORD PTR ?ms_kPool@CInstanceBase@@2V?$CDynamicPool@VCInstanceBase@@@@A+20
; File D:\Metin2 Server Files\mainline\SRC_2014\Metin2Client\UserInterface\InstanceBase.cpp

; 644  : 	ms_kPool.Free(pkInst);

  00013	89 75 08	 mov	 DWORD PTR _pkData$[ebp], esi
; File C:\Program Files (x86)\Microsoft Visual Studio\2019\Community\VC\Tools\MSVC\14.28.29333\include\vector

; 704  :         if (_Mylast != _My_data._Myend) {

  00016	3b 05 18 00 00
	00		 cmp	 eax, DWORD PTR ?ms_kPool@CInstanceBase@@2V?$CDynamicPool@VCInstanceBase@@@@A+24
  0001c	74 0c		 je	 SHORT $LN8@Delete

; 687  :         _Alty_traits::construct(_Getal(), _Unfancy(_Mylast), _STD forward<_Valty>(_Val)...);

  0001e	89 30		 mov	 DWORD PTR [eax], esi

; 688  :         _Orphan_range(_Mylast, _Mylast);
; 689  :         _Ty& _Result = *_Mylast;
; 690  :         ++_Mylast;

  00020	83 05 14 00 00
	00 04		 add	 DWORD PTR ?ms_kPool@CInstanceBase@@2V?$CDynamicPool@VCInstanceBase@@@@A+20, 4
  00027	5e		 pop	 esi
; File D:\Metin2 Server Files\mainline\SRC_2014\Metin2Client\UserInterface\InstanceBase.cpp

; 645  : }

  00028	5d		 pop	 ebp
  00029	c3		 ret	 0
$LN8@Delete:
; File C:\Program Files (x86)\Microsoft Visual Studio\2019\Community\VC\Tools\MSVC\14.28.29333\include\vector

; 708  :         _Ty& _Result = *_Emplace_reallocate(_Mylast, _STD forward<_Valty>(_Val)...);

  0002a	8d 4d 08	 lea	 ecx, DWORD PTR _pkData$[ebp]
  0002d	51		 push	 ecx
  0002e	50		 push	 eax
  0002f	b9 10 00 00 00	 mov	 ecx, OFFSET ?ms_kPool@CInstanceBase@@2V?$CDynamicPool@VCInstanceBase@@@@A+16
  00034	e8 00 00 00 00	 call	 ??$_Emplace_reallocate@ABQAVCInstanceBase@@@?$vector@PAVCInstanceBase@@V?$allocator@PAVCInstanceBase@@@std@@@std@@QAEPAPAVCInstanceBase@@QAPAV2@ABQAV2@@Z ; std::vector<CInstanceBase *,std::allocator<CInstanceBase *> >::_Emplace_reallocate<CInstanceBase * const &>
  00039	5e		 pop	 esi
; File D:\Metin2 Server Files\mainline\SRC_2014\Metin2Client\UserInterface\InstanceBase.cpp

; 645  : }

  0003a	5d		 pop	 ebp
  0003b	c3		 ret	 0
?Delete@CInstanceBase@@SAXPAV1@@Z ENDP			; CInstanceBase::Delete
_TEXT	ENDS
; Function compile flags: /Ogtp
; File D:\Metin2 Server Files\mainline\SRC_2014\Metin2Client\UserInterface\InstanceBase.cpp
; File D:\Metin2 Server Files\mainline\SRC_2014\Metin2Client\eterLib\Pool.h
; File C:\Program Files (x86)\Microsoft Visual Studio\2019\Community\VC\Tools\MSVC\14.28.29333\include\vector
; File D:\Metin2 Server Files\mainline\SRC_2014\Metin2Client\eterLib\Pool.h
; File C:\Program Files (x86)\Microsoft Visual Studio\2019\Community\VC\Tools\MSVC\14.28.29333\include\vector
; File D:\Metin2 Server Files\mainline\SRC_2014\Metin2Client\UserInterface\InstanceBase.cpp
; File C:\Program Files (x86)\Microsoft Visual Studio\2019\Community\VC\Tools\MSVC\14.28.29333\include\vector
; File D:\Metin2 Server Files\mainline\SRC_2014\Metin2Client\eterLib\Pool.h
; File D:\Metin2 Server Files\mainline\SRC_2014\Metin2Client\UserInterface\InstanceBase.cpp
; File C:\Program Files (x86)\Microsoft Visual Studio\2019\Community\VC\Tools\MSVC\14.28.29333\include\vector
; File D:\Metin2 Server Files\mainline\SRC_2014\Metin2Client\eterLib\Pool.h
; File D:\Metin2 Server Files\mainline\SRC_2014\Metin2Client\UserInterface\InstanceBase.cpp
; File D:\Metin2 Server Files\mainline\SRC_2014\Metin2Client\eterLib\Pool.h
; File C:\Program Files (x86)\Microsoft Visual Studio\2019\Community\VC\Tools\MSVC\14.28.29333\include\vector
; File D:\Metin2 Server Files\mainline\SRC_2014\Metin2Client\UserInterface\InstanceBase.cpp
;	COMDAT ?New@CInstanceBase@@SAPAV1@XZ
_TEXT	SEGMENT
$T2 = -16						; size = 4
_pkNewData$3 = -16					; size = 4
__$EHRec$ = -12						; size = 12
?New@CInstanceBase@@SAPAV1@XZ PROC			; CInstanceBase::New, COMDAT

; 637  : {

  00000	55		 push	 ebp
  00001	8b ec		 mov	 ebp, esp
  00003	6a ff		 push	 -1
  00005	68 00 00 00 00	 push	 __ehhandler$?New@CInstanceBase@@SAPAV1@XZ
  0000a	64 a1 00 00 00
	00		 mov	 eax, DWORD PTR fs:0
  00010	50		 push	 eax
  00011	51		 push	 ecx
  00012	56		 push	 esi
  00013	a1 00 00 00 00	 mov	 eax, DWORD PTR ___security_cookie
  00018	33 c5		 xor	 eax, ebp
  0001a	50		 push	 eax
  0001b	8d 45 f4	 lea	 eax, DWORD PTR __$EHRec$[ebp]
  0001e	64 a3 00 00 00
	00		 mov	 DWORD PTR fs:0, eax
; File D:\Metin2 Server Files\mainline\SRC_2014\Metin2Client\eterLib\Pool.h

; 63   : 			if (m_kVct_pkFree.empty())

  00024	8b 0d 14 00 00
	00		 mov	 ecx, DWORD PTR ?ms_kPool@CInstanceBase@@2V?$CDynamicPool@VCInstanceBase@@@@A+20
  0002a	39 0d 10 00 00
	00		 cmp	 DWORD PTR ?ms_kPool@CInstanceBase@@2V?$CDynamicPool@VCInstanceBase@@@@A+16, ecx
  00030	0f 85 87 00 00
	00		 jne	 $LN4@New

; 65   : 				T* pkNewData=new T;

  00036	68 b0 06 00 00	 push	 1712			; 000006b0H
  0003b	e8 00 00 00 00	 call	 ??2@YAPAXI@Z		; operator new
  00040	83 c4 04	 add	 esp, 4
  00043	89 45 f0	 mov	 DWORD PTR $T2[ebp], eax
  00046	c7 45 fc 00 00
	00 00		 mov	 DWORD PTR __$EHRec$[ebp+8], 0
  0004d	85 c0		 test	 eax, eax
  0004f	74 0b		 je	 SHORT $LN6@New
  00051	8b c8		 mov	 ecx, eax
  00053	e8 00 00 00 00	 call	 ??0CInstanceBase@@QAE@XZ ; CInstanceBase::CInstanceBase
  00058	8b f0		 mov	 esi, eax
  0005a	eb 02		 jmp	 SHORT $LN7@New
$LN6@New:
  0005c	33 f6		 xor	 esi, esi
$LN7@New:
; File C:\Program Files (x86)\Microsoft Visual Studio\2019\Community\VC\Tools\MSVC\14.28.29333\include\vector

; 704  :         if (_Mylast != _My_data._Myend) {

  0005e	a1 08 00 00 00	 mov	 eax, DWORD PTR ?ms_kPool@CInstanceBase@@2V?$CDynamicPool@VCInstanceBase@@@@A+8
; File D:\Metin2 Server Files\mainline\SRC_2014\Metin2Client\eterLib\Pool.h

; 65   : 				T* pkNewData=new T;

  00063	c7 45 fc ff ff
	ff ff		 mov	 DWORD PTR __$EHRec$[ebp+8], -1
  0006a	89 75 f0	 mov	 DWORD PTR _pkNewData$3[ebp], esi
; File C:\Program Files (x86)\Microsoft Visual Studio\2019\Community\VC\Tools\MSVC\14.28.29333\include\vector

; 704  :         if (_Mylast != _My_data._Myend) {

  0006d	3b 05 0c 00 00
	00		 cmp	 eax, DWORD PTR ?ms_kPool@CInstanceBase@@2V?$CDynamicPool@VCInstanceBase@@@@A+12
  00073	74 21		 je	 SHORT $LN14@New

; 687  :         _Alty_traits::construct(_Getal(), _Unfancy(_Mylast), _STD forward<_Valty>(_Val)...);

  00075	89 30		 mov	 DWORD PTR [eax], esi
; File D:\Metin2 Server Files\mainline\SRC_2014\Metin2Client\UserInterface\InstanceBase.cpp

; 638  : 	return ms_kPool.Alloc();

  00077	8b c6		 mov	 eax, esi
; File C:\Program Files (x86)\Microsoft Visual Studio\2019\Community\VC\Tools\MSVC\14.28.29333\include\vector

; 690  :         ++_Mylast;

  00079	83 05 08 00 00
	00 04		 add	 DWORD PTR ?ms_kPool@CInstanceBase@@2V?$CDynamicPool@VCInstanceBase@@@@A+8, 4
; File D:\Metin2 Server Files\mainline\SRC_2014\Metin2Client\eterLib\Pool.h

; 67   : 				++m_uUsedCapacity;

  00080	ff 05 20 00 00
	00		 inc	 DWORD PTR ?ms_kPool@CInstanceBase@@2V?$CDynamicPool@VCInstanceBase@@@@A+32
; File D:\Metin2 Server Files\mainline\SRC_2014\Metin2Client\UserInterface\InstanceBase.cpp

; 639  : }

  00086	8b 4d f4	 mov	 ecx, DWORD PTR __$EHRec$[ebp]
  00089	64 89 0d 00 00
	00 00		 mov	 DWORD PTR fs:0, ecx
  00090	59		 pop	 ecx
  00091	5e		 pop	 esi
  00092	8b e5		 mov	 esp, ebp
  00094	5d		 pop	 ebp
  00095	c3		 ret	 0
$LN14@New:
; File C:\Program Files (x86)\Microsoft Visual Studio\2019\Community\VC\Tools\MSVC\14.28.29333\include\vector

; 708  :         _Ty& _Result = *_Emplace_reallocate(_Mylast, _STD forward<_Valty>(_Val)...);

  00096	8d 4d f0	 lea	 ecx, DWORD PTR _pkNewData$3[ebp]
  00099	51		 push	 ecx
  0009a	50		 push	 eax
  0009b	b9 04 00 00 00	 mov	 ecx, OFFSET ?ms_kPool@CInstanceBase@@2V?$CDynamicPool@VCInstanceBase@@@@A+4
  000a0	e8 00 00 00 00	 call	 ??$_Emplace_reallocate@ABQAVCInstanceBase@@@?$vector@PAVCInstanceBase@@V?$allocator@PAVCInstanceBase@@@std@@@std@@QAEPAPAVCInstanceBase@@QAPAV2@ABQAV2@@Z ; std::vector<CInstanceBase *,std::allocator<CInstanceBase *> >::_Emplace_reallocate<CInstanceBase * const &>
; File D:\Metin2 Server Files\mainline\SRC_2014\Metin2Client\eterLib\Pool.h

; 67   : 				++m_uUsedCapacity;

  000a5	ff 05 20 00 00
	00		 inc	 DWORD PTR ?ms_kPool@CInstanceBase@@2V?$CDynamicPool@VCInstanceBase@@@@A+32
; File D:\Metin2 Server Files\mainline\SRC_2014\Metin2Client\UserInterface\InstanceBase.cpp

; 638  : 	return ms_kPool.Alloc();

  000ab	8b c6		 mov	 eax, esi

; 639  : }

  000ad	8b 4d f4	 mov	 ecx, DWORD PTR __$EHRec$[ebp]
  000b0	64 89 0d 00 00
	00 00		 mov	 DWORD PTR fs:0, ecx
  000b7	59		 pop	 ecx
  000b8	5e		 pop	 esi
  000b9	8b e5		 mov	 esp, ebp
  000bb	5d		 pop	 ebp
  000bc	c3		 ret	 0
$LN4@New:
; File D:\Metin2 Server Files\mainline\SRC_2014\Metin2Client\eterLib\Pool.h

; 71   : 			T* pkFreeData=m_kVct_pkFree.back();

  000bd	8b 41 fc	 mov	 eax, DWORD PTR [ecx-4]
; File C:\Program Files (x86)\Microsoft Visual Studio\2019\Community\VC\Tools\MSVC\14.28.29333\include\vector

; 1559 :         return _My_data._Mylast[-1];

  000c0	83 c1 fc	 add	 ecx, -4			; fffffffcH

; 1338 :         --_Mylast;

  000c3	89 0d 14 00 00
	00		 mov	 DWORD PTR ?ms_kPool@CInstanceBase@@2V?$CDynamicPool@VCInstanceBase@@@@A+20, ecx
; File D:\Metin2 Server Files\mainline\SRC_2014\Metin2Client\UserInterface\InstanceBase.cpp

; 639  : }

  000c9	8b 4d f4	 mov	 ecx, DWORD PTR __$EHRec$[ebp]
  000cc	64 89 0d 00 00
	00 00		 mov	 DWORD PTR fs:0, ecx
  000d3	59		 pop	 ecx
  000d4	5e		 pop	 esi
  000d5	8b e5		 mov	 esp, ebp
  000d7	5d		 pop	 ebp
  000d8	c3		 ret	 0
_TEXT	ENDS
;	COMDAT text$x
text$x	SEGMENT
__unwindfunclet$?New@CInstanceBase@@SAPAV1@XZ$0:
  00000	68 b0 06 00 00	 push	 1712			; 000006b0H
  00005	8b 45 f0	 mov	 eax, DWORD PTR $T2[ebp]
  00008	50		 push	 eax
  00009	e8 00 00 00 00	 call	 ??3@YAXPAXI@Z		; operator delete
  0000e	83 c4 08	 add	 esp, 8
  00011	c3		 ret	 0
  00012	cc		 int	 3
  00013	cc		 int	 3
  00014	cc		 int	 3
  00015	cc		 int	 3
  00016	cc		 int	 3
__ehhandler$?New@CInstanceBase@@SAPAV1@XZ:
  00017	90		 npad	 1
  00018	90		 npad	 1
  00019	8b 54 24 08	 mov	 edx, DWORD PTR [esp+8]
  0001d	8d 42 0c	 lea	 eax, DWORD PTR [edx+12]
  00020	8b 4a f4	 mov	 ecx, DWORD PTR [edx-12]
  00023	33 c8		 xor	 ecx, eax
  00025	e8 00 00 00 00	 call	 @__security_check_cookie@4
  0002a	b8 00 00 00 00	 mov	 eax, OFFSET __ehfuncinfo$?New@CInstanceBase@@SAPAV1@XZ
  0002f	e9 00 00 00 00	 jmp	 ___CxxFrameHandler3
text$x	ENDS
?New@CInstanceBase@@SAPAV1@XZ ENDP			; CInstanceBase::New
; Function compile flags: /Ogtp
; File D:\Metin2 Server Files\mainline\SRC_2014\Metin2Client\UserInterface\InstanceBase.cpp
; File C:\Program Files (x86)\Microsoft Visual Studio\2019\Community\VC\Tools\MSVC\14.28.29333\include\vector
; File D:\Metin2 Server Files\mainline\SRC_2014\Metin2Client\UserInterface\InstanceBase.cpp
; File C:\Program Files (x86)\Microsoft Visual Studio\2019\Community\VC\Tools\MSVC\14.28.29333\include\vector
; File D:\Metin2 Server Files\mainline\SRC_2014\Metin2Client\UserInterface\InstanceBase.cpp
; File C:\Program Files (x86)\Microsoft Visual Studio\2019\Community\VC\Tools\MSVC\14.28.29333\include\xstring
; File D:\Metin2 Server Files\mainline\SRC_2014\Metin2Client\UserInterface\InstanceBase.cpp
; File C:\Program Files (x86)\Microsoft Visual Studio\2019\Community\VC\Tools\MSVC\14.28.29333\include\xstring
; File D:\Metin2 Server Files\mainline\SRC_2014\Metin2Client\UserInterface\InstanceBase.cpp
; File C:\Program Files (x86)\Microsoft Visual Studio\2019\Community\VC\Tools\MSVC\14.28.29333\include\xstring
; File C:\Program Files (x86)\Microsoft Visual Studio\2019\Community\VC\Tools\MSVC\14.28.29333\include\utility
; File C:\Program Files (x86)\Microsoft Visual Studio\2019\Community\VC\Tools\MSVC\14.28.29333\include\xstring
; File C:\Program Files (x86)\Microsoft Visual Studio\2019\Community\VC\Tools\MSVC\14.28.29333\include\xmemory
; File C:\Program Files (x86)\Microsoft Visual Studio\2019\Community\VC\Tools\MSVC\14.28.29333\include\xstring
; File C:\Program Files (x86)\Microsoft Visual Studio\2019\Community\VC\Tools\MSVC\14.28.29333\include\xmemory
; File C:\Program Files (x86)\Microsoft Visual Studio\2019\Community\VC\Tools\MSVC\14.28.29333\include\xstring
; File C:\Program Files (x86)\Microsoft Visual Studio\2019\Community\VC\Tools\MSVC\14.28.29333\include\xmemory
; File C:\Program Files (x86)\Microsoft Visual Studio\2019\Community\VC\Tools\MSVC\14.28.29333\include\xstring
; File D:\Metin2 Server Files\mainline\SRC_2014\Metin2Client\UserInterface\InstanceBase.cpp
; File C:\Program Files (x86)\Microsoft Visual Studio\2019\Community\VC\Tools\MSVC\14.28.29333\include\xstring
; File D:\Metin2 Server Files\mainline\SRC_2014\Metin2Client\UserInterface\InstanceBase.cpp
; File C:\Program Files (x86)\Microsoft Visual Studio\2019\Community\VC\Tools\MSVC\14.28.29333\include\xstring
; File D:\Metin2 Server Files\mainline\SRC_2014\Metin2Client\UserInterface\InstanceBase.cpp
; File C:\Program Files (x86)\Microsoft Visual Studio\2019\Community\VC\Tools\MSVC\14.28.29333\include\xstring
; File D:\Metin2 Server Files\mainline\SRC_2014\Metin2Client\UserInterface\InstanceBase.cpp
;	COMDAT ?GetInfo@CInstanceBase@@SAXPAV?$basic_string@DU?$char_traits@D@std@@V?$allocator@D@2@@std@@@Z
_TEXT	SEGMENT
__Old_size$1$ = -276					; size = 4
__New_ptr$1 = -272					; size = 4
__Old$1$ = -268						; size = 4
tv476 = -264						; size = 4
tv472 = -264						; size = 4
$T2 = -264						; size = 4
_szInfo$ = -260						; size = 256
__$ArrayPad$ = -4					; size = 4
_pstInfo$ = 8						; size = 4
?GetInfo@CInstanceBase@@SAXPAV?$basic_string@DU?$char_traits@D@std@@V?$allocator@D@2@@std@@@Z PROC ; CInstanceBase::GetInfo, COMDAT

; 966  : {

  00000	55		 push	 ebp
  00001	8b ec		 mov	 ebp, esp
  00003	81 ec 14 01 00
	00		 sub	 esp, 276		; 00000114H
  00009	a1 00 00 00 00	 mov	 eax, DWORD PTR ___security_cookie
  0000e	33 c5		 xor	 eax, ebp
  00010	89 45 fc	 mov	 DWORD PTR __$ArrayPad$[ebp], eax
; File C:\Program Files (x86)\Microsoft Visual Studio\2019\Community\VC\Tools\MSVC\14.28.29333\include\vector

; 1484 :         return static_cast<size_type>(_My_data._Mylast - _My_data._Myfirst);

  00013	a1 08 00 00 00	 mov	 eax, DWORD PTR ?ms_kPool@CInstanceBase@@2V?$CDynamicPool@VCInstanceBase@@@@A+8
  00018	2b 05 04 00 00
	00		 sub	 eax, DWORD PTR ?ms_kPool@CInstanceBase@@2V?$CDynamicPool@VCInstanceBase@@@@A+4
; File D:\Metin2 Server Files\mainline\SRC_2014\Metin2Client\UserInterface\InstanceBase.cpp

; 966  : {

  0001e	53		 push	 ebx
  0001f	8b 5d 08	 mov	 ebx, DWORD PTR _pstInfo$[ebp]
  00022	56		 push	 esi
  00023	57		 push	 edi
; File C:\Program Files (x86)\Microsoft Visual Studio\2019\Community\VC\Tools\MSVC\14.28.29333\include\vector

; 1484 :         return static_cast<size_type>(_My_data._Mylast - _My_data._Myfirst);

  00024	c1 f8 02	 sar	 eax, 2
; File D:\Metin2 Server Files\mainline\SRC_2014\Metin2Client\UserInterface\InstanceBase.cpp

; 968  : 	sprintf(szInfo, "Inst - UC %d, RC %d Pool - %d ", 

  00027	50		 push	 eax
  00028	ff 35 00 00 00
	00		 push	 DWORD PTR ?ms_dwRenderCounter@CInstanceBase@@1KA ; CInstanceBase::ms_dwRenderCounter
  0002e	8d 85 fc fe ff
	ff		 lea	 eax, DWORD PTR _szInfo$[ebp]
  00034	ff 35 00 00 00
	00		 push	 DWORD PTR ?ms_dwUpdateCounter@CInstanceBase@@1KA ; CInstanceBase::ms_dwUpdateCounter
  0003a	68 00 00 00 00	 push	 OFFSET ??_C@_0BP@PGINAIMI@Inst?5?9?5UC?5?$CFd?0?5RC?5?$CFd?5Pool?5?9?5?$CFd?5@
  0003f	50		 push	 eax
  00040	e8 00 00 00 00	 call	 _sprintf
; File C:\Program Files (x86)\Microsoft Visual Studio\2019\Community\VC\Tools\MSVC\14.28.29333\include\xstring

; 389  :         return _CSTD strlen(reinterpret_cast<const char*>(_First));

  00045	8d bd fc fe ff
	ff		 lea	 edi, DWORD PTR _szInfo$[ebp]
; File D:\Metin2 Server Files\mainline\SRC_2014\Metin2Client\UserInterface\InstanceBase.cpp

; 968  : 	sprintf(szInfo, "Inst - UC %d, RC %d Pool - %d ", 

  0004b	83 c4 14	 add	 esp, 20			; 00000014H
; File C:\Program Files (x86)\Microsoft Visual Studio\2019\Community\VC\Tools\MSVC\14.28.29333\include\xstring

; 389  :         return _CSTD strlen(reinterpret_cast<const char*>(_First));

  0004e	8d 4f 01	 lea	 ecx, DWORD PTR [edi+1]
$LL53@GetInfo:
  00051	8a 07		 mov	 al, BYTE PTR [edi]
  00053	47		 inc	 edi
  00054	84 c0		 test	 al, al
  00056	75 f9		 jne	 SHORT $LL53@GetInfo

; 2938 :         if (_Count <= _Mypair._Myval2._Myres - _Old_size) {

  00058	8b 53 14	 mov	 edx, DWORD PTR [ebx+20]

; 389  :         return _CSTD strlen(reinterpret_cast<const char*>(_First));

  0005b	2b f9		 sub	 edi, ecx

; 2937 :         const size_type _Old_size = _Mypair._Myval2._Mysize;

  0005d	8b 73 10	 mov	 esi, DWORD PTR [ebx+16]

; 2938 :         if (_Count <= _Mypair._Myval2._Myres - _Old_size) {

  00060	8b c2		 mov	 eax, edx
  00062	2b c6		 sub	 eax, esi
  00064	89 b5 ec fe ff
	ff		 mov	 DWORD PTR __Old_size$1$[ebp], esi
  0006a	89 95 f4 fe ff
	ff		 mov	 DWORD PTR __Old$1$[ebp], edx
  00070	3b f8		 cmp	 edi, eax
  00072	77 35		 ja	 SHORT $LN12@GetInfo

; 2939 :             _Mypair._Myval2._Mysize = _Old_size + _Count;

  00074	8d 04 3e	 lea	 eax, DWORD PTR [esi+edi]
  00077	89 43 10	 mov	 DWORD PTR [ebx+16], eax

; 2227 :         return _BUF_SIZE <= _Myres;

  0007a	83 fa 10	 cmp	 edx, 16			; 00000010H

; 2210 :         if (_Large_string_engaged()) {

  0007d	72 02		 jb	 SHORT $LN15@GetInfo

; 2211 :             _Result = _Unfancy(_Bx._Ptr);

  0007f	8b 1b		 mov	 ebx, DWORD PTR [ebx]
$LN15@GetInfo:

; 119  :         _CSTD memmove(_First1, _First2, _Count * sizeof(_Elem));

  00081	57		 push	 edi
  00082	8d 85 fc fe ff
	ff		 lea	 eax, DWORD PTR _szInfo$[ebp]

; 2941 :             _Traits::move(_Old_ptr + _Old_size, _Ptr, _Count);

  00088	03 f3		 add	 esi, ebx

; 119  :         _CSTD memmove(_First1, _First2, _Count * sizeof(_Elem));

  0008a	50		 push	 eax
  0008b	56		 push	 esi
  0008c	e8 00 00 00 00	 call	 _memmove
  00091	83 c4 0c	 add	 esp, 12			; 0000000cH

; 2942 :             _Traits::assign(_Old_ptr[_Old_size + _Count], _Elem());

  00094	c6 04 3e 00	 mov	 BYTE PTR [esi+edi], 0
  00098	5f		 pop	 edi
; File D:\Metin2 Server Files\mainline\SRC_2014\Metin2Client\UserInterface\InstanceBase.cpp

; 975  : }

  00099	5e		 pop	 esi
  0009a	5b		 pop	 ebx
  0009b	8b 4d fc	 mov	 ecx, DWORD PTR __$ArrayPad$[ebp]
  0009e	33 cd		 xor	 ecx, ebp
  000a0	e8 00 00 00 00	 call	 @__security_check_cookie@4
  000a5	8b e5		 mov	 esp, ebp
  000a7	5d		 pop	 ebp
  000a8	c3		 ret	 0
$LN12@GetInfo:
; File C:\Program Files (x86)\Microsoft Visual Studio\2019\Community\VC\Tools\MSVC\14.28.29333\include\xstring

; 4333 :         if (max_size() - _Old_size < _Size_increase) {

  000a9	b8 ff ff ff 7f	 mov	 eax, 2147483647		; 7fffffffH
  000ae	2b c6		 sub	 eax, esi
  000b0	3b c7		 cmp	 eax, edi
  000b2	0f 82 12 01 00
	00		 jb	 $LN58@GetInfo

; 4335 :         }
; 4336 : 
; 4337 :         const size_type _New_size     = _Old_size + _Size_increase;

  000b8	8d 0c 3e	 lea	 ecx, DWORD PTR [esi+edi]

; 4285 :         const size_type _Masked = _Requested | _ALLOC_MASK;

  000bb	83 c9 0f	 or	 ecx, 15			; 0000000fH
  000be	81 f9 ff ff ff
	7f		 cmp	 ecx, 2147483647		; 7fffffffH

; 4286 :         if (_Masked > _Max) { // the mask overflows, settle for max_size()

  000c4	76 07		 jbe	 SHORT $LN29@GetInfo

; 4287 :             return _Max;

  000c6	b9 ff ff ff 7f	 mov	 ecx, 2147483647		; 7fffffffH
  000cb	eb 2d		 jmp	 SHORT $LN55@GetInfo
$LN29@GetInfo:

; 4288 :         }
; 4289 : 
; 4290 :         if (_Old > _Max - _Old / 2) { // similarly, geometric overflows

  000cd	8b c2		 mov	 eax, edx
  000cf	d1 e8		 shr	 eax, 1
  000d1	89 85 f8 fe ff
	ff		 mov	 DWORD PTR tv476[ebp], eax
  000d7	b8 ff ff ff 7f	 mov	 eax, 2147483647		; 7fffffffH
  000dc	2b 85 f8 fe ff
	ff		 sub	 eax, DWORD PTR tv476[ebp]
  000e2	3b d0		 cmp	 edx, eax
  000e4	76 07		 jbe	 SHORT $LN30@GetInfo

; 4291 :             return _Max;

  000e6	b9 ff ff ff 7f	 mov	 ecx, 2147483647		; 7fffffffH
  000eb	eb 0d		 jmp	 SHORT $LN55@GetInfo
$LN30@GetInfo:

; 4292 :         }
; 4293 : 
; 4294 :         return (_STD max)(_Masked, _Old + _Old / 2);

  000ed	8b 85 f8 fe ff
	ff		 mov	 eax, DWORD PTR tv476[ebp]
  000f3	03 c2		 add	 eax, edx
; File C:\Program Files (x86)\Microsoft Visual Studio\2019\Community\VC\Tools\MSVC\14.28.29333\include\utility

; 44   :     return _Left < _Right ? _Right : _Left;

  000f5	3b c8		 cmp	 ecx, eax
  000f7	0f 42 c8	 cmovb	 ecx, eax
$LN55@GetInfo:
; File C:\Program Files (x86)\Microsoft Visual Studio\2019\Community\VC\Tools\MSVC\14.28.29333\include\xstring

; 4341 :         const pointer _New_ptr        = _Al.allocate(_New_capacity + 1); // throws

  000fa	8d 41 01	 lea	 eax, DWORD PTR [ecx+1]
  000fd	89 8d f8 fe ff
	ff		 mov	 DWORD PTR $T2[ebp], ecx
; File C:\Program Files (x86)\Microsoft Visual Studio\2019\Community\VC\Tools\MSVC\14.28.29333\include\xmemory

; 814  :         return static_cast<_Ty*>(_Allocate<_New_alignof<_Ty>>(_Get_size_of_n<sizeof(_Ty)>(_Count)));

  00103	50		 push	 eax
  00104	e8 00 00 00 00	 call	 ??$_Allocate@$07U_Default_allocate_traits@std@@$0A@@std@@YAPAXI@Z ; std::_Allocate<8,std::_Default_allocate_traits,0>
; File C:\Program Files (x86)\Microsoft Visual Studio\2019\Community\VC\Tools\MSVC\14.28.29333\include\xstring

; 4343 :         _My_data._Mysize      = _New_size;

  00109	8d 0c 3e	 lea	 ecx, DWORD PTR [esi+edi]
  0010c	89 85 f0 fe ff
	ff		 mov	 DWORD PTR __New_ptr$1[ebp], eax
  00112	89 4b 10	 mov	 DWORD PTR [ebx+16], ecx
; File C:\Program Files (x86)\Microsoft Visual Studio\2019\Community\VC\Tools\MSVC\14.28.29333\include\xmemory

; 814  :         return static_cast<_Ty*>(_Allocate<_New_alignof<_Ty>>(_Get_size_of_n<sizeof(_Ty)>(_Count)));

  00115	83 c4 04	 add	 esp, 4
; File C:\Program Files (x86)\Microsoft Visual Studio\2019\Community\VC\Tools\MSVC\14.28.29333\include\xstring

; 4346 :         if (_BUF_SIZE <= _Old_capacity) {

  00118	83 bd f4 fe ff
	ff 10		 cmp	 DWORD PTR __Old$1$[ebp], 16 ; 00000010H
  0011f	8b 8d f8 fe ff
	ff		 mov	 ecx, DWORD PTR $T2[ebp]
  00125	89 4b 14	 mov	 DWORD PTR [ebx+20], ecx
  00128	8d 0c 30	 lea	 ecx, DWORD PTR [eax+esi]
  0012b	89 8d f8 fe ff
	ff		 mov	 DWORD PTR tv472[ebp], ecx
  00131	72 56		 jb	 SHORT $LN23@GetInfo

; 62   :         _CSTD memcpy(_First1, _First2, _Count * sizeof(_Elem));

  00133	ff b5 ec fe ff
	ff		 push	 DWORD PTR __Old_size$1$[ebp]

; 4347 :             const pointer _Old_ptr = _My_data._Bx._Ptr;

  00139	8b 33		 mov	 esi, DWORD PTR [ebx]

; 62   :         _CSTD memcpy(_First1, _First2, _Count * sizeof(_Elem));

  0013b	56		 push	 esi
  0013c	50		 push	 eax
  0013d	e8 00 00 00 00	 call	 _memcpy
  00142	57		 push	 edi
  00143	8d 85 fc fe ff
	ff		 lea	 eax, DWORD PTR _szInfo$[ebp]
  00149	50		 push	 eax
  0014a	ff b5 f8 fe ff
	ff		 push	 DWORD PTR tv472[ebp]
  00150	e8 00 00 00 00	 call	 _memcpy

; 2952 :                 _Traits::assign(_New_ptr[_Old_size + _Count], _Elem());

  00155	8b 85 f8 fe ff
	ff		 mov	 eax, DWORD PTR tv472[ebp]
  0015b	c6 04 38 00	 mov	 BYTE PTR [eax+edi], 0

; 4349 :             _Al.deallocate(_Old_ptr, _Old_capacity + 1);

  0015f	8b 85 f4 fe ff
	ff		 mov	 eax, DWORD PTR __Old$1$[ebp]
  00165	40		 inc	 eax
; File C:\Program Files (x86)\Microsoft Visual Studio\2019\Community\VC\Tools\MSVC\14.28.29333\include\xmemory

; 810  :         _Deallocate<_New_alignof<_Ty>>(_Ptr, sizeof(_Ty) * _Count);

  00166	50		 push	 eax
  00167	56		 push	 esi
  00168	e8 00 00 00 00	 call	 ??$_Deallocate@$07$0A@@std@@YAXPAXI@Z ; std::_Deallocate<8,0>
; File C:\Program Files (x86)\Microsoft Visual Studio\2019\Community\VC\Tools\MSVC\14.28.29333\include\xstring

; 4350 :             _My_data._Bx._Ptr = _New_ptr;

  0016d	8b 85 f0 fe ff
	ff		 mov	 eax, DWORD PTR __New_ptr$1[ebp]
; File D:\Metin2 Server Files\mainline\SRC_2014\Metin2Client\UserInterface\InstanceBase.cpp

; 975  : }

  00173	83 c4 20	 add	 esp, 32			; 00000020H
; File C:\Program Files (x86)\Microsoft Visual Studio\2019\Community\VC\Tools\MSVC\14.28.29333\include\xstring

; 4350 :             _My_data._Bx._Ptr = _New_ptr;

  00176	89 03		 mov	 DWORD PTR [ebx], eax
  00178	5f		 pop	 edi
; File D:\Metin2 Server Files\mainline\SRC_2014\Metin2Client\UserInterface\InstanceBase.cpp

; 975  : }

  00179	5e		 pop	 esi
  0017a	5b		 pop	 ebx
  0017b	8b 4d fc	 mov	 ecx, DWORD PTR __$ArrayPad$[ebp]
  0017e	33 cd		 xor	 ecx, ebp
  00180	e8 00 00 00 00	 call	 @__security_check_cookie@4
  00185	8b e5		 mov	 esp, ebp
  00187	5d		 pop	 ebp
  00188	c3		 ret	 0
$LN23@GetInfo:
; File C:\Program Files (x86)\Microsoft Visual Studio\2019\Community\VC\Tools\MSVC\14.28.29333\include\xstring

; 62   :         _CSTD memcpy(_First1, _First2, _Count * sizeof(_Elem));

  00189	56		 push	 esi
  0018a	53		 push	 ebx
  0018b	50		 push	 eax
  0018c	e8 00 00 00 00	 call	 _memcpy
  00191	8b b5 f8 fe ff
	ff		 mov	 esi, DWORD PTR tv472[ebp]
  00197	8d 85 fc fe ff
	ff		 lea	 eax, DWORD PTR _szInfo$[ebp]
  0019d	57		 push	 edi
  0019e	50		 push	 eax
  0019f	56		 push	 esi
  001a0	e8 00 00 00 00	 call	 _memcpy

; 4353 :             _Construct_in_place(_My_data._Bx._Ptr, _New_ptr);

  001a5	8d 85 f0 fe ff
	ff		 lea	 eax, DWORD PTR __New_ptr$1[ebp]

; 2952 :                 _Traits::assign(_New_ptr[_Old_size + _Count], _Elem());

  001ab	c6 04 3e 00	 mov	 BYTE PTR [esi+edi], 0

; 4353 :             _Construct_in_place(_My_data._Bx._Ptr, _New_ptr);

  001af	50		 push	 eax
  001b0	53		 push	 ebx
  001b1	e8 00 00 00 00	 call	 ??$_Construct_in_place@PADABQAD@std@@YAXAAPADABQAD@Z ; std::_Construct_in_place<char *,char * const &>
; File D:\Metin2 Server Files\mainline\SRC_2014\Metin2Client\UserInterface\InstanceBase.cpp

; 975  : }

  001b6	8b 4d fc	 mov	 ecx, DWORD PTR __$ArrayPad$[ebp]
  001b9	83 c4 20	 add	 esp, 32			; 00000020H
  001bc	33 cd		 xor	 ecx, ebp
  001be	5f		 pop	 edi
  001bf	5e		 pop	 esi
  001c0	5b		 pop	 ebx
  001c1	e8 00 00 00 00	 call	 @__security_check_cookie@4
  001c6	8b e5		 mov	 esp, ebp
  001c8	5d		 pop	 ebp
  001c9	c3		 ret	 0
$LN58@GetInfo:
; File C:\Program Files (x86)\Microsoft Visual Studio\2019\Community\VC\Tools\MSVC\14.28.29333\include\xstring

; 4334 :             _Xlen_string(); // result too long

  001ca	e8 00 00 00 00	 call	 ?_Xlen_string@std@@YAXXZ ; std::_Xlen_string
$LN54@GetInfo:
  001cf	cc		 int	 3
?GetInfo@CInstanceBase@@SAXPAV?$basic_string@DU?$char_traits@D@std@@V?$allocator@D@2@@std@@@Z ENDP ; CInstanceBase::GetInfo
_TEXT	ENDS
; Function compile flags: /Ogtp
; File D:\Metin2 Server Files\mainline\SRC_2014\Metin2Client\UserInterface\InstanceBase.cpp
;	COMDAT ?ResetPerformanceCounter@CInstanceBase@@SAXXZ
_TEXT	SEGMENT
?ResetPerformanceCounter@CInstanceBase@@SAXXZ PROC	; CInstanceBase::ResetPerformanceCounter, COMDAT

; 979  : 	ms_dwUpdateCounter=0;

  00000	c7 05 00 00 00
	00 00 00 00 00	 mov	 DWORD PTR ?ms_dwUpdateCounter@CInstanceBase@@1KA, 0 ; CInstanceBase::ms_dwUpdateCounter

; 980  : 	ms_dwRenderCounter=0;

  0000a	c7 05 00 00 00
	00 00 00 00 00	 mov	 DWORD PTR ?ms_dwRenderCounter@CInstanceBase@@1KA, 0 ; CInstanceBase::ms_dwRenderCounter

; 981  : 	ms_dwDeformCounter=0;

  00014	c7 05 00 00 00
	00 00 00 00 00	 mov	 DWORD PTR ?ms_dwDeformCounter@CInstanceBase@@1KA, 0 ; CInstanceBase::ms_dwDeformCounter

; 982  : }

  0001e	c3		 ret	 0
?ResetPerformanceCounter@CInstanceBase@@SAXXZ ENDP	; CInstanceBase::ResetPerformanceCounter
_TEXT	ENDS
; Function compile flags: /Ogtp
; File D:\Metin2 Server Files\mainline\SRC_2014\Metin2Client\UserInterface\InstanceBase.cpp
;	COMDAT ?__GetShadowMapColor@CInstanceBase@@KAKMM@Z
_TEXT	SEGMENT
_x$ = 8							; size = 4
_y$ = 12						; size = 4
?__GetShadowMapColor@CInstanceBase@@KAKMM@Z PROC	; CInstanceBase::__GetShadowMapColor, COMDAT

; 425  : {

  00000	55		 push	 ebp
  00001	8b ec		 mov	 ebp, esp

; 426  : 	CPythonBackground& rkBG=CPythonBackground::Instance();
; 427  : 	return rkBG.GetShadowMapColor(x, y);

  00003	f3 0f 10 45 0c	 movss	 xmm0, DWORD PTR _y$[ebp]
  00008	83 ec 08	 sub	 esp, 8
  0000b	8b 0d 00 00 00
	00		 mov	 ecx, DWORD PTR ?ms_singleton@?$CSingleton@VCPythonBackground@@@@0PAVCPythonBackground@@A ; CSingleton<CPythonBackground>::ms_singleton
  00011	f3 0f 11 44 24
	04		 movss	 DWORD PTR [esp+4], xmm0
  00017	f3 0f 10 45 08	 movss	 xmm0, DWORD PTR _x$[ebp]
  0001c	f3 0f 11 04 24	 movss	 DWORD PTR [esp], xmm0
  00021	e8 00 00 00 00	 call	 ?GetShadowMapColor@CMapManager@@QAEKMM@Z ; CMapManager::GetShadowMapColor

; 428  : }

  00026	5d		 pop	 ebp
  00027	c3		 ret	 0
?__GetShadowMapColor@CInstanceBase@@KAKMM@Z ENDP	; CInstanceBase::__GetShadowMapColor
_TEXT	ENDS
; Function compile flags: /Ogtp
; File D:\Metin2 Server Files\mainline\SRC_2014\Metin2Client\UserInterface\InstanceBase.cpp
;	COMDAT ?__GetBackgroundHeight@CInstanceBase@@KAMMM@Z
_TEXT	SEGMENT
_x$ = 8							; size = 4
_y$ = 12						; size = 4
?__GetBackgroundHeight@CInstanceBase@@KAMMM@Z PROC	; CInstanceBase::__GetBackgroundHeight, COMDAT

; 431  : {

  00000	55		 push	 ebp
  00001	8b ec		 mov	 ebp, esp

; 432  : 	CPythonBackground& rkBG=CPythonBackground::Instance();
; 433  : 	return rkBG.GetHeight(x, y);

  00003	f3 0f 10 45 0c	 movss	 xmm0, DWORD PTR _y$[ebp]
  00008	83 ec 08	 sub	 esp, 8
  0000b	8b 0d 00 00 00
	00		 mov	 ecx, DWORD PTR ?ms_singleton@?$CSingleton@VCPythonBackground@@@@0PAVCPythonBackground@@A ; CSingleton<CPythonBackground>::ms_singleton
  00011	f3 0f 11 44 24
	04		 movss	 DWORD PTR [esp+4], xmm0
  00017	f3 0f 10 45 08	 movss	 xmm0, DWORD PTR _x$[ebp]
  0001c	f3 0f 11 04 24	 movss	 DWORD PTR [esp], xmm0
  00021	e8 00 00 00 00	 call	 ?GetHeight@CMapManager@@QAEMMM@Z ; CMapManager::GetHeight

; 434  : }

  00026	5d		 pop	 ebp
  00027	c3		 ret	 0
?__GetBackgroundHeight@CInstanceBase@@KAMMM@Z ENDP	; CInstanceBase::__GetBackgroundHeight
_TEXT	ENDS
; Function compile flags: /Ogtp
; File D:\Metin2 Server Files\mainline\SRC_2014\Metin2Client\UserInterface\InstanceBase.cpp
;	COMDAT ?__Warrior_Initialize@CInstanceBase@@IAEXXZ
_TEXT	SEGMENT
?__Warrior_Initialize@CInstanceBase@@IAEXXZ PROC	; CInstanceBase::__Warrior_Initialize, COMDAT
; _this$ = ecx

; 3024 : 	m_kWarrior.m_dwGeomgyeongEffect=0;

  00000	c7 81 a4 06 00
	00 00 00 00 00	 mov	 DWORD PTR [ecx+1700], 0

; 3025 : }

  0000a	c3		 ret	 0
?__Warrior_Initialize@CInstanceBase@@IAEXXZ ENDP	; CInstanceBase::__Warrior_Initialize
_TEXT	ENDS
; Function compile flags: /Ogtp
; File C:\Program Files (x86)\Microsoft Visual Studio\2019\Community\VC\Tools\MSVC\14.28.29333\include\list
; File C:\Program Files (x86)\Microsoft Visual Studio\2019\Community\VC\Tools\MSVC\14.28.29333\include\xmemory
; File C:\Program Files (x86)\Microsoft Visual Studio\2019\Community\VC\Tools\MSVC\14.28.29333\include\list
; File C:\Program Files (x86)\Microsoft Visual Studio\2019\Community\VC\Tools\MSVC\14.28.29333\include\xmemory
; File C:\Program Files (x86)\Microsoft Visual Studio\2019\Community\VC\Tools\MSVC\14.28.29333\include\list
;	COMDAT ??1?$list@USEffectDamage@CInstanceBase@@V?$allocator@USEffectDamage@CInstanceBase@@@std@@@std@@QAE@XZ
_TEXT	SEGMENT
??1?$list@USEffectDamage@CInstanceBase@@V?$allocator@USEffectDamage@CInstanceBase@@@std@@@std@@QAE@XZ PROC ; std::list<CInstanceBase::SEffectDamage,std::allocator<CInstanceBase::SEffectDamage> >::~list<CInstanceBase::SEffectDamage,std::allocator<CInstanceBase::SEffectDamage> >, COMDAT
; _this$ = ecx

; 1045 :     ~list() noexcept {

  00000	57		 push	 edi
  00001	8b f9		 mov	 edi, ecx

; 1440 :         _Node::_Free_non_head(_Al, _My_data._Myhead);

  00003	8b 17		 mov	 edx, DWORD PTR [edi]

; 324  :         _Head->_Prev->_Next = nullptr;

  00005	8b 42 04	 mov	 eax, DWORD PTR [edx+4]
  00008	c7 00 00 00 00
	00		 mov	 DWORD PTR [eax], 0

; 325  : 
; 326  :         auto _Pnode = _Head->_Next;

  0000e	8b 02		 mov	 eax, DWORD PTR [edx]

; 327  :         for (_Nodeptr _Pnext; _Pnode; _Pnode = _Pnext) {

  00010	85 c0		 test	 eax, eax
  00012	74 15		 je	 SHORT $LN7@list
  00014	56		 push	 esi
$LL8@list:

; 328  :             _Pnext = _Pnode->_Next;

  00015	8b 30		 mov	 esi, DWORD PTR [eax]
; File C:\Program Files (x86)\Microsoft Visual Studio\2019\Community\VC\Tools\MSVC\14.28.29333\include\xmemory

; 696  :         _Deallocate<_New_alignof<value_type>>(_Ptr, sizeof(value_type) * _Count);

  00017	6a 18		 push	 24			; 00000018H
  00019	50		 push	 eax
  0001a	e8 00 00 00 00	 call	 ??$_Deallocate@$07$0A@@std@@YAXPAXI@Z ; std::_Deallocate<8,0>
  0001f	83 c4 08	 add	 esp, 8
; File C:\Program Files (x86)\Microsoft Visual Studio\2019\Community\VC\Tools\MSVC\14.28.29333\include\list

; 327  :         for (_Nodeptr _Pnext; _Pnode; _Pnode = _Pnext) {

  00022	8b c6		 mov	 eax, esi
  00024	85 f6		 test	 esi, esi
  00026	75 ed		 jne	 SHORT $LL8@list
  00028	5e		 pop	 esi
$LN7@list:
; File C:\Program Files (x86)\Microsoft Visual Studio\2019\Community\VC\Tools\MSVC\14.28.29333\include\xmemory

; 696  :         _Deallocate<_New_alignof<value_type>>(_Ptr, sizeof(value_type) * _Count);

  00029	6a 18		 push	 24			; 00000018H
  0002b	ff 37		 push	 DWORD PTR [edi]
  0002d	e8 00 00 00 00	 call	 ??$_Deallocate@$07$0A@@std@@YAXPAXI@Z ; std::_Deallocate<8,0>
  00032	83 c4 08	 add	 esp, 8
  00035	5f		 pop	 edi
; File C:\Program Files (x86)\Microsoft Visual Studio\2019\Community\VC\Tools\MSVC\14.28.29333\include\list

; 1051 :     }

  00036	c3		 ret	 0
??1?$list@USEffectDamage@CInstanceBase@@V?$allocator@USEffectDamage@CInstanceBase@@@std@@@std@@QAE@XZ ENDP ; std::list<CInstanceBase::SEffectDamage,std::allocator<CInstanceBase::SEffectDamage> >::~list<CInstanceBase::SEffectDamage,std::allocator<CInstanceBase::SEffectDamage> >
_TEXT	ENDS
; Function compile flags: /Ogtp
; File C:\Program Files (x86)\Microsoft Visual Studio\2019\Community\VC\Tools\MSVC\14.28.29333\include\list
; File C:\Program Files (x86)\Microsoft Visual Studio\2019\Community\VC\Tools\MSVC\14.28.29333\include\xmemory
; File C:\Program Files (x86)\Microsoft Visual Studio\2019\Community\VC\Tools\MSVC\14.28.29333\include\list
; File C:\Program Files (x86)\Microsoft Visual Studio\2019\Community\VC\Tools\MSVC\14.28.29333\include\xmemory
; File C:\Program Files (x86)\Microsoft Visual Studio\2019\Community\VC\Tools\MSVC\14.28.29333\include\list
; File C:\Program Files (x86)\Microsoft Visual Studio\2019\Community\VC\Tools\MSVC\14.28.29333\include\xmemory
; File C:\Program Files (x86)\Microsoft Visual Studio\2019\Community\VC\Tools\MSVC\14.28.29333\include\list
;	COMDAT ?push_back@?$list@USCommand@CInstanceBase@@V?$allocator@USCommand@CInstanceBase@@@std@@@std@@QAEXABUSCommand@CInstanceBase@@@Z
_TEXT	SEGMENT
__Op$2 = -24						; size = 8
__Insert_after$3 = -20					; size = 4
__Where$1$ = -16					; size = 4
__$EHRec$ = -12						; size = 12
__Insert_before$ = 8					; size = 4
__Val$ = 8						; size = 4
?push_back@?$list@USCommand@CInstanceBase@@V?$allocator@USCommand@CInstanceBase@@@std@@@std@@QAEXABUSCommand@CInstanceBase@@@Z PROC ; std::list<CInstanceBase::SCommand,std::allocator<CInstanceBase::SCommand> >::push_back, COMDAT
; _this$ = ecx

; 1251 :     void push_back(const _Ty& _Val) {

  00000	55		 push	 ebp
  00001	8b ec		 mov	 ebp, esp
  00003	6a ff		 push	 -1
  00005	68 00 00 00 00	 push	 __ehhandler$?push_back@?$list@USCommand@CInstanceBase@@V?$allocator@USCommand@CInstanceBase@@@std@@@std@@QAEXABUSCommand@CInstanceBase@@@Z
  0000a	64 a1 00 00 00
	00		 mov	 eax, DWORD PTR fs:0
  00010	50		 push	 eax
  00011	83 ec 0c	 sub	 esp, 12			; 0000000cH
  00014	56		 push	 esi
  00015	57		 push	 edi
  00016	a1 00 00 00 00	 mov	 eax, DWORD PTR ___security_cookie
  0001b	33 c5		 xor	 eax, ebp
  0001d	50		 push	 eax
  0001e	8d 45 f4	 lea	 eax, DWORD PTR __$EHRec$[ebp]
  00021	64 a3 00 00 00
	00		 mov	 DWORD PTR fs:0, eax
  00027	8b f1		 mov	 esi, ecx

; 1014 :         if (_Mysize == max_size()) {

  00029	81 7e 04 5d 74
	d1 05		 cmp	 DWORD PTR [esi+4], 97612893 ; 05d1745dH

; 1252 :         _Emplace(_Mypair._Myval2._Myhead, _Val);

  00030	8b 06		 mov	 eax, DWORD PTR [esi]
  00032	89 45 f0	 mov	 DWORD PTR __Where$1$[ebp], eax

; 1014 :         if (_Mysize == max_size()) {

  00035	74 76		 je	 SHORT $LN40@push_back
; File C:\Program Files (x86)\Microsoft Visual Studio\2019\Community\VC\Tools\MSVC\14.28.29333\include\xmemory

; 1045 :     explicit _Alloc_construct_ptr(_Alloc& _Al_) : _Al(_Al_), _Ptr(nullptr) {}

  00037	89 75 e8	 mov	 DWORD PTR __Op$2[ebp], esi

; 814  :         return static_cast<_Ty*>(_Allocate<_New_alignof<_Ty>>(_Get_size_of_n<sizeof(_Ty)>(_Count)));

  0003a	6a 2c		 push	 44			; 0000002cH
; File C:\Program Files (x86)\Microsoft Visual Studio\2019\Community\VC\Tools\MSVC\14.28.29333\include\list

; 585  :     explicit _List_node_emplace_op2(_Alnode& _Al_, _Valtys&&... _Vals) : _Alloc_construct_ptr<_Alnode>(_Al_) {

  0003c	c7 45 fc 00 00
	00 00		 mov	 DWORD PTR __$EHRec$[ebp+8], 0
; File C:\Program Files (x86)\Microsoft Visual Studio\2019\Community\VC\Tools\MSVC\14.28.29333\include\xmemory

; 1052 :         _Ptr = nullptr; // if allocate throws, prevents double-free

  00043	c7 45 ec 00 00
	00 00		 mov	 DWORD PTR __Op$2[ebp+4], 0

; 814  :         return static_cast<_Ty*>(_Allocate<_New_alignof<_Ty>>(_Get_size_of_n<sizeof(_Ty)>(_Count)));

  0004a	e8 00 00 00 00	 call	 ??$_Allocate@$07U_Default_allocate_traits@std@@$0A@@std@@YAPAXI@Z ; std::_Allocate<8,std::_Default_allocate_traits,0>

; 701  :         ::new (const_cast<void*>(static_cast<const volatile void*>(_Ptr))) _Objty(_STD forward<_Types>(_Args)...);

  0004f	8b 4d 08	 mov	 ecx, DWORD PTR __Val$[ebp]

; 1053 :         _Ptr = _Al.allocate(1);

  00052	8b f8		 mov	 edi, eax
; File C:\Program Files (x86)\Microsoft Visual Studio\2019\Community\VC\Tools\MSVC\14.28.29333\include\list

; 1020 :         return _Op._Transfer_before(_Where);

  00054	8b 45 f0	 mov	 eax, DWORD PTR __Where$1$[ebp]
  00057	89 45 08	 mov	 DWORD PTR __Insert_before$[ebp], eax
; File C:\Program Files (x86)\Microsoft Visual Studio\2019\Community\VC\Tools\MSVC\14.28.29333\include\xmemory

; 701  :         ::new (const_cast<void*>(static_cast<const volatile void*>(_Ptr))) _Objty(_STD forward<_Types>(_Args)...);

  0005a	0f 10 01	 movups	 xmm0, XMMWORD PTR [ecx]
  0005d	0f 11 47 08	 movups	 XMMWORD PTR [edi+8], xmm0
  00061	0f 10 41 10	 movups	 xmm0, XMMWORD PTR [ecx+16]
  00065	0f 11 47 18	 movups	 XMMWORD PTR [edi+24], xmm0
  00069	8b 49 20	 mov	 ecx, DWORD PTR [ecx+32]
  0006c	89 4f 28	 mov	 DWORD PTR [edi+40], ecx
; File C:\Program Files (x86)\Microsoft Visual Studio\2019\Community\VC\Tools\MSVC\14.28.29333\include\list

; 1019 :         ++_Mysize;

  0006f	ff 46 04	 inc	 DWORD PTR [esi+4]

; 600  :         const pointer _Insert_after = _Insert_before->_Prev;

  00072	8b 70 04	 mov	 esi, DWORD PTR [eax+4]

; 601  :         _Construct_in_place(this->_Ptr->_Next, _Insert_before);

  00075	8d 45 08	 lea	 eax, DWORD PTR __Insert_before$[ebp]
  00078	50		 push	 eax
  00079	57		 push	 edi
  0007a	89 75 ec	 mov	 DWORD PTR __Insert_after$3[ebp], esi
  0007d	e8 00 00 00 00	 call	 ??$_Construct_in_place@PAU?$_List_node@USCommand@CInstanceBase@@PAX@std@@ABQAU12@@std@@YAXAAPAU?$_List_node@USCommand@CInstanceBase@@PAX@0@ABQAU10@@Z ; std::_Construct_in_place<std::_List_node<CInstanceBase::SCommand,void *> *,std::_List_node<CInstanceBase::SCommand,void *> * const &>

; 602  :         _Construct_in_place(this->_Ptr->_Prev, _Insert_after);

  00082	8d 45 ec	 lea	 eax, DWORD PTR __Insert_after$3[ebp]
  00085	50		 push	 eax
  00086	8d 47 04	 lea	 eax, DWORD PTR [edi+4]
  00089	50		 push	 eax
  0008a	e8 00 00 00 00	 call	 ??$_Construct_in_place@PAU?$_List_node@USCommand@CInstanceBase@@PAX@std@@ABQAU12@@std@@YAXAAPAU?$_List_node@USCommand@CInstanceBase@@PAX@0@ABQAU10@@Z ; std::_Construct_in_place<std::_List_node<CInstanceBase::SCommand,void *> *,std::_List_node<CInstanceBase::SCommand,void *> * const &>

; 603  :         const auto _Result    = this->_Ptr;
; 604  :         this->_Ptr            = pointer{};
; 605  :         _Insert_before->_Prev = _Result;

  0008f	8b 45 f0	 mov	 eax, DWORD PTR __Where$1$[ebp]
  00092	83 c4 14	 add	 esp, 20			; 00000014H
  00095	89 78 04	 mov	 DWORD PTR [eax+4], edi

; 606  :         _Insert_after->_Next  = _Result;

  00098	89 3e		 mov	 DWORD PTR [esi], edi

; 1253 :     }

  0009a	8b 4d f4	 mov	 ecx, DWORD PTR __$EHRec$[ebp]
  0009d	64 89 0d 00 00
	00 00		 mov	 DWORD PTR fs:0, ecx
  000a4	59		 pop	 ecx
  000a5	5f		 pop	 edi
  000a6	5e		 pop	 esi
  000a7	8b e5		 mov	 esp, ebp
  000a9	5d		 pop	 ebp
  000aa	c2 04 00	 ret	 4
$LN40@push_back:

; 1015 :             _Xlength_error("list too long");

  000ad	68 00 00 00 00	 push	 OFFSET ??_C@_0O@NKNMEGII@list?5too?5long@
  000b2	e8 00 00 00 00	 call	 ?_Xlength_error@std@@YAXPBD@Z ; std::_Xlength_error
$LN38@push_back:
  000b7	cc		 int	 3
_TEXT	ENDS
;	COMDAT text$x
text$x	SEGMENT
__unwindfunclet$?push_back@?$list@USCommand@CInstanceBase@@V?$allocator@USCommand@CInstanceBase@@@std@@@std@@QAEXABUSCommand@CInstanceBase@@@Z$1:
  00000	8d 4d e8	 lea	 ecx, DWORD PTR __Op$2[ebp]
  00003	e9 00 00 00 00	 jmp	 ??1?$_Alloc_construct_ptr@V?$allocator@U?$_List_node@USCommand@CInstanceBase@@PAX@std@@@std@@@std@@QAE@XZ ; std::_Alloc_construct_ptr<std::allocator<std::_List_node<CInstanceBase::SCommand,void *> > >::~_Alloc_construct_ptr<std::allocator<std::_List_node<CInstanceBase::SCommand,void *> > >
  00008	cc		 int	 3
  00009	cc		 int	 3
  0000a	cc		 int	 3
  0000b	cc		 int	 3
  0000c	cc		 int	 3
__ehhandler$?push_back@?$list@USCommand@CInstanceBase@@V?$allocator@USCommand@CInstanceBase@@@std@@@std@@QAEXABUSCommand@CInstanceBase@@@Z:
  0000d	90		 npad	 1
  0000e	90		 npad	 1
  0000f	8b 54 24 08	 mov	 edx, DWORD PTR [esp+8]
  00013	8d 42 0c	 lea	 eax, DWORD PTR [edx+12]
  00016	8b 4a e8	 mov	 ecx, DWORD PTR [edx-24]
  00019	33 c8		 xor	 ecx, eax
  0001b	e8 00 00 00 00	 call	 @__security_check_cookie@4
  00020	b8 00 00 00 00	 mov	 eax, OFFSET __ehfuncinfo$?push_back@?$list@USCommand@CInstanceBase@@V?$allocator@USCommand@CInstanceBase@@@std@@@std@@QAEXABUSCommand@CInstanceBase@@@Z
  00025	e9 00 00 00 00	 jmp	 ___CxxFrameHandler3
text$x	ENDS
?push_back@?$list@USCommand@CInstanceBase@@V?$allocator@USCommand@CInstanceBase@@@std@@@std@@QAEXABUSCommand@CInstanceBase@@@Z ENDP ; std::list<CInstanceBase::SCommand,std::allocator<CInstanceBase::SCommand> >::push_back
; Function compile flags: /Ogtp
; File C:\Program Files (x86)\Microsoft Visual Studio\2019\Community\VC\Tools\MSVC\14.28.29333\include\list
; File C:\Program Files (x86)\Microsoft Visual Studio\2019\Community\VC\Tools\MSVC\14.28.29333\include\xmemory
; File C:\Program Files (x86)\Microsoft Visual Studio\2019\Community\VC\Tools\MSVC\14.28.29333\include\list
; File C:\Program Files (x86)\Microsoft Visual Studio\2019\Community\VC\Tools\MSVC\14.28.29333\include\xmemory
; File C:\Program Files (x86)\Microsoft Visual Studio\2019\Community\VC\Tools\MSVC\14.28.29333\include\list
;	COMDAT ??1?$list@USCommand@CInstanceBase@@V?$allocator@USCommand@CInstanceBase@@@std@@@std@@QAE@XZ
_TEXT	SEGMENT
??1?$list@USCommand@CInstanceBase@@V?$allocator@USCommand@CInstanceBase@@@std@@@std@@QAE@XZ PROC ; std::list<CInstanceBase::SCommand,std::allocator<CInstanceBase::SCommand> >::~list<CInstanceBase::SCommand,std::allocator<CInstanceBase::SCommand> >, COMDAT
; _this$ = ecx

; 1045 :     ~list() noexcept {

  00000	57		 push	 edi
  00001	8b f9		 mov	 edi, ecx

; 1440 :         _Node::_Free_non_head(_Al, _My_data._Myhead);

  00003	8b 17		 mov	 edx, DWORD PTR [edi]

; 324  :         _Head->_Prev->_Next = nullptr;

  00005	8b 42 04	 mov	 eax, DWORD PTR [edx+4]
  00008	c7 00 00 00 00
	00		 mov	 DWORD PTR [eax], 0

; 325  : 
; 326  :         auto _Pnode = _Head->_Next;

  0000e	8b 02		 mov	 eax, DWORD PTR [edx]

; 327  :         for (_Nodeptr _Pnext; _Pnode; _Pnode = _Pnext) {

  00010	85 c0		 test	 eax, eax
  00012	74 15		 je	 SHORT $LN7@list
  00014	56		 push	 esi
$LL8@list:

; 328  :             _Pnext = _Pnode->_Next;

  00015	8b 30		 mov	 esi, DWORD PTR [eax]
; File C:\Program Files (x86)\Microsoft Visual Studio\2019\Community\VC\Tools\MSVC\14.28.29333\include\xmemory

; 696  :         _Deallocate<_New_alignof<value_type>>(_Ptr, sizeof(value_type) * _Count);

  00017	6a 2c		 push	 44			; 0000002cH
  00019	50		 push	 eax
  0001a	e8 00 00 00 00	 call	 ??$_Deallocate@$07$0A@@std@@YAXPAXI@Z ; std::_Deallocate<8,0>
  0001f	83 c4 08	 add	 esp, 8
; File C:\Program Files (x86)\Microsoft Visual Studio\2019\Community\VC\Tools\MSVC\14.28.29333\include\list

; 327  :         for (_Nodeptr _Pnext; _Pnode; _Pnode = _Pnext) {

  00022	8b c6		 mov	 eax, esi
  00024	85 f6		 test	 esi, esi
  00026	75 ed		 jne	 SHORT $LL8@list
  00028	5e		 pop	 esi
$LN7@list:
; File C:\Program Files (x86)\Microsoft Visual Studio\2019\Community\VC\Tools\MSVC\14.28.29333\include\xmemory

; 696  :         _Deallocate<_New_alignof<value_type>>(_Ptr, sizeof(value_type) * _Count);

  00029	6a 2c		 push	 44			; 0000002cH
  0002b	ff 37		 push	 DWORD PTR [edi]
  0002d	e8 00 00 00 00	 call	 ??$_Deallocate@$07$0A@@std@@YAXPAXI@Z ; std::_Deallocate<8,0>
  00032	83 c4 08	 add	 esp, 8
  00035	5f		 pop	 edi
; File C:\Program Files (x86)\Microsoft Visual Studio\2019\Community\VC\Tools\MSVC\14.28.29333\include\list

; 1051 :     }

  00036	c3		 ret	 0
??1?$list@USCommand@CInstanceBase@@V?$allocator@USCommand@CInstanceBase@@@std@@@std@@QAE@XZ ENDP ; std::list<CInstanceBase::SCommand,std::allocator<CInstanceBase::SCommand> >::~list<CInstanceBase::SCommand,std::allocator<CInstanceBase::SCommand> >
_TEXT	ENDS
; Function compile flags: /Ogtp
;	COMDAT ??1SEffectContainer@CInstanceBase@@QAE@XZ
_TEXT	SEGMENT
??1SEffectContainer@CInstanceBase@@QAE@XZ PROC		; CInstanceBase::SEffectContainer::~SEffectContainer, COMDAT
; _this$ = ecx
  00000	e9 00 00 00 00	 jmp	 ??1?$_Tree@V?$_Tmap_traits@KKU?$less@K@std@@V?$allocator@U?$pair@$$CBKK@std@@@2@$0A@@std@@@std@@QAE@XZ ; std::_Tree<std::_Tmap_traits<unsigned long,unsigned long,std::less<unsigned long>,std::allocator<std::pair<unsigned long const ,unsigned long> >,0> >::~_Tree<std::_Tmap_traits<unsigned long,unsigned long,std::less<unsigned long>,std::allocator<std::pair<unsigned long const ,unsigned long> >,0> >
??1SEffectContainer@CInstanceBase@@QAE@XZ ENDP		; CInstanceBase::SEffectContainer::~SEffectContainer
_TEXT	ENDS
; Function compile flags: /Ogtp
; File D:\Metin2 Server Files\mainline\SRC_2014\Metin2Client\UserInterface\InstanceBase.cpp
;	COMDAT ?__ClearArmorRefineEffect@CInstanceBase@@IAEXXZ
_TEXT	SEGMENT
?__ClearArmorRefineEffect@CInstanceBase@@IAEXXZ PROC	; CInstanceBase::__ClearArmorRefineEffect, COMDAT
; _this$ = ecx

; 2677 : {

  00000	56		 push	 esi
  00001	8b f1		 mov	 esi, ecx

; 2678 : 	if (m_armorRefineEffect)

  00003	8b 86 a4 01 00
	00		 mov	 eax, DWORD PTR [esi+420]
  00009	85 c0		 test	 eax, eax
  0000b	74 10		 je	 SHORT $LN2@ClearArmor

; 2679 : 	{
; 2680 : 		__DetachEffect(m_armorRefineEffect);

  0000d	50		 push	 eax
  0000e	e8 00 00 00 00	 call	 ?__DetachEffect@CInstanceBase@@IAEXK@Z ; CInstanceBase::__DetachEffect

; 2681 : 		m_armorRefineEffect = 0;

  00013	c7 86 a4 01 00
	00 00 00 00 00	 mov	 DWORD PTR [esi+420], 0
$LN2@ClearArmor:

; 2682 : 	}
; 2683 : }

  0001d	5e		 pop	 esi
  0001e	c3		 ret	 0
?__ClearArmorRefineEffect@CInstanceBase@@IAEXXZ ENDP	; CInstanceBase::__ClearArmorRefineEffect
_TEXT	ENDS
; Function compile flags: /Ogtp
; File D:\Metin2 Server Files\mainline\SRC_2014\Metin2Client\UserInterface\InstanceBase.cpp
;	COMDAT ?__ClearWeaponRefineEffect@CInstanceBase@@IAEXXZ
_TEXT	SEGMENT
?__ClearWeaponRefineEffect@CInstanceBase@@IAEXXZ PROC	; CInstanceBase::__ClearWeaponRefineEffect, COMDAT
; _this$ = ecx

; 2663 : {

  00000	56		 push	 esi
  00001	8b f1		 mov	 esi, ecx

; 2664 : 	if (m_swordRefineEffectRight)

  00003	8b 86 9c 01 00
	00		 mov	 eax, DWORD PTR [esi+412]
  00009	85 c0		 test	 eax, eax
  0000b	74 10		 je	 SHORT $LN2@ClearWeapo

; 2665 : 	{
; 2666 : 		__DetachEffect(m_swordRefineEffectRight);

  0000d	50		 push	 eax
  0000e	e8 00 00 00 00	 call	 ?__DetachEffect@CInstanceBase@@IAEXK@Z ; CInstanceBase::__DetachEffect

; 2667 : 		m_swordRefineEffectRight = 0;

  00013	c7 86 9c 01 00
	00 00 00 00 00	 mov	 DWORD PTR [esi+412], 0
$LN2@ClearWeapo:

; 2668 : 	}
; 2669 : 	if (m_swordRefineEffectLeft)

  0001d	8b 86 a0 01 00
	00		 mov	 eax, DWORD PTR [esi+416]
  00023	85 c0		 test	 eax, eax
  00025	74 12		 je	 SHORT $LN3@ClearWeapo

; 2670 : 	{
; 2671 : 		__DetachEffect(m_swordRefineEffectLeft);

  00027	50		 push	 eax
  00028	8b ce		 mov	 ecx, esi
  0002a	e8 00 00 00 00	 call	 ?__DetachEffect@CInstanceBase@@IAEXK@Z ; CInstanceBase::__DetachEffect

; 2672 : 		m_swordRefineEffectLeft = 0;

  0002f	c7 86 a0 01 00
	00 00 00 00 00	 mov	 DWORD PTR [esi+416], 0
$LN3@ClearWeapo:

; 2673 : 	}
; 2674 : }

  00039	5e		 pop	 esi
  0003a	c3		 ret	 0
?__ClearWeaponRefineEffect@CInstanceBase@@IAEXXZ ENDP	; CInstanceBase::__ClearWeaponRefineEffect
_TEXT	ENDS
; Function compile flags: /Ogtp
; File D:\Metin2 Server Files\mainline\SRC_2014\Metin2Client\UserInterface\InstanceBase.cpp
;	COMDAT ?__GetRefinedEffect@CInstanceBase@@IAEIPAVCItemData@@@Z
_TEXT	SEGMENT
_pItem$ = 8						; size = 4
?__GetRefinedEffect@CInstanceBase@@IAEIPAVCItemData@@@Z PROC ; CInstanceBase::__GetRefinedEffect, COMDAT
; _this$ = ecx

; 2686 : {

  00000	55		 push	 ebp
  00001	8b ec		 mov	 ebp, esp
  00003	53		 push	 ebx

; 2687 : 	DWORD refine = max(pItem->GetRefine() + pItem->GetSocketCount(),CItemData::ITEM_SOCKET_MAX_NUM) - CItemData::ITEM_SOCKET_MAX_NUM;

  00004	8b 5d 08	 mov	 ebx, DWORD PTR _pItem$[ebp]
  00007	56		 push	 esi
  00008	57		 push	 edi
  00009	8b f9		 mov	 edi, ecx
  0000b	8b cb		 mov	 ecx, ebx
  0000d	e8 00 00 00 00	 call	 ?GetRefine@CItemData@@QBEIXZ ; CItemData::GetRefine
  00012	8b cb		 mov	 ecx, ebx
  00014	8b f0		 mov	 esi, eax
  00016	e8 00 00 00 00	 call	 ?GetSocketCount@CItemData@@QBEHXZ ; CItemData::GetSocketCount
  0001b	03 f0		 add	 esi, eax
  0001d	83 fe 03	 cmp	 esi, 3
  00020	76 14		 jbe	 SHORT $LN21@GetRefined
  00022	8b cb		 mov	 ecx, ebx
  00024	e8 00 00 00 00	 call	 ?GetRefine@CItemData@@QBEIXZ ; CItemData::GetRefine
  00029	8b cb		 mov	 ecx, ebx
  0002b	8b f0		 mov	 esi, eax
  0002d	e8 00 00 00 00	 call	 ?GetSocketCount@CItemData@@QBEHXZ ; CItemData::GetSocketCount
  00032	03 f0		 add	 esi, eax
  00034	eb 05		 jmp	 SHORT $LN22@GetRefined
$LN21@GetRefined:
  00036	be 03 00 00 00	 mov	 esi, 3
$LN22@GetRefined:

; 2688 : 	switch (pItem->GetType())

  0003b	8b cb		 mov	 ecx, ebx
  0003d	83 c6 fd	 add	 esi, -3			; fffffffdH
  00040	e8 00 00 00 00	 call	 ?GetType@CItemData@@QBEEXZ ; CItemData::GetType
  00045	0f b6 c0	 movzx	 eax, al
  00048	83 e8 01	 sub	 eax, 1
  0004b	74 79		 je	 SHORT $LN6@GetRefined
  0004d	83 e8 01	 sub	 eax, 1
  00050	0f 85 e9 00 00
	00		 jne	 $LN27@GetRefined

; 2717 : 		break;
; 2718 : 	case CItemData::ITEM_TYPE_ARMOR:
; 2719 : 		__ClearArmorRefineEffect();

  00056	8b cf		 mov	 ecx, edi
  00058	e8 00 00 00 00	 call	 ?__ClearArmorRefineEffect@CInstanceBase@@IAEXXZ ; CInstanceBase::__ClearArmorRefineEffect

; 2720 : 
; 2721 : 		//   
; 2722 : 		if (pItem->GetSubType() == CItemData::ARMOR_BODY)

  0005d	8b cb		 mov	 ecx, ebx
  0005f	e8 00 00 00 00	 call	 ?GetSubType@CItemData@@QBEEXZ ; CItemData::GetSubType
  00064	84 c0		 test	 al, al
  00066	75 29		 jne	 SHORT $LN17@GetRefined

; 2723 : 		{
; 2724 : 			DWORD vnum = pItem->GetIndex();

  00068	8b cb		 mov	 ecx, ebx
  0006a	e8 00 00 00 00	 call	 ?GetIndex@CItemData@@QBEKXZ ; CItemData::GetIndex

; 2725 : 
; 2726 : 			if (12010 <= vnum && vnum <= 12049)

  0006f	05 16 d1 ff ff	 add	 eax, -12010		; ffffd116H
  00074	83 f8 27	 cmp	 eax, 39			; 00000027H
  00077	77 18		 ja	 SHORT $LN17@GetRefined

; 2727 : 			{
; 2728 : 				__AttachEffect(EFFECT_REFINED+EFFECT_BODYARMOR_SPECIAL);

  00079	68 f8 00 00 00	 push	 248			; 000000f8H
  0007e	8b cf		 mov	 ecx, edi
  00080	e8 00 00 00 00	 call	 ?__AttachEffect@CInstanceBase@@IAEKI@Z ; CInstanceBase::__AttachEffect

; 2729 : 				__AttachEffect(EFFECT_REFINED+EFFECT_BODYARMOR_SPECIAL2);

  00085	68 f9 00 00 00	 push	 249			; 000000f9H
  0008a	8b cf		 mov	 ecx, edi
  0008c	e8 00 00 00 00	 call	 ?__AttachEffect@CInstanceBase@@IAEKI@Z ; CInstanceBase::__AttachEffect
$LN17@GetRefined:

; 2730 : 			}
; 2731 : 		}
; 2732 : 
; 2733 : 		if (refine < 7)	//  7   .

  00091	83 fe 07	 cmp	 esi, 7
  00094	0f 82 a5 00 00
	00		 jb	 $LN27@GetRefined

; 2734 : 			return 0;
; 2735 : 
; 2736 : 		if (pItem->GetSubType() == CItemData::ARMOR_BODY)

  0009a	8b cb		 mov	 ecx, ebx
  0009c	e8 00 00 00 00	 call	 ?GetSubType@CItemData@@QBEEXZ ; CItemData::GetSubType
  000a1	84 c0		 test	 al, al
  000a3	0f 85 96 00 00
	00		 jne	 $LN27@GetRefined

; 2737 : 		{
; 2738 : 			m_armorRefineEffect = EFFECT_REFINED+EFFECT_BODYARMOR_REFINED7+refine-7;

  000a9	8d 86 ee 00 00
	00		 lea	 eax, DWORD PTR [esi+238]

; 2739 : 			__AttachEffect(m_armorRefineEffect);

  000af	8b cf		 mov	 ecx, edi
  000b1	50		 push	 eax
  000b2	89 87 a4 01 00
	00		 mov	 DWORD PTR [edi+420], eax
  000b8	e8 00 00 00 00	 call	 ?__AttachEffect@CInstanceBase@@IAEKI@Z ; CInstanceBase::__AttachEffect
  000bd	5f		 pop	 edi

; 2740 : 		}
; 2741 : 		break;
; 2742 : 	}
; 2743 : 	return 0;
; 2744 : }

  000be	5e		 pop	 esi
  000bf	33 c0		 xor	 eax, eax
  000c1	5b		 pop	 ebx
  000c2	5d		 pop	 ebp
  000c3	c2 04 00	 ret	 4
$LN6@GetRefined:

; 2689 : 	{
; 2690 : 	case CItemData::ITEM_TYPE_WEAPON:
; 2691 : 		__ClearWeaponRefineEffect();		

  000c6	8b cf		 mov	 ecx, edi
  000c8	e8 00 00 00 00	 call	 ?__ClearWeaponRefineEffect@CInstanceBase@@IAEXXZ ; CInstanceBase::__ClearWeaponRefineEffect

; 2692 : 		if (refine < 7)	//  7   .

  000cd	83 fe 07	 cmp	 esi, 7
  000d0	72 6d		 jb	 SHORT $LN27@GetRefined

; 2693 : 			return 0;
; 2694 : 		switch(pItem->GetSubType())

  000d2	8b cb		 mov	 ecx, ebx
  000d4	e8 00 00 00 00	 call	 ?GetSubType@CItemData@@QBEEXZ ; CItemData::GetSubType
  000d9	0f b6 c0	 movzx	 eax, al
  000dc	48		 dec	 eax
  000dd	83 f8 05	 cmp	 eax, 5
  000e0	77 28		 ja	 SHORT $LN12@GetRefined
  000e2	ff 24 85 00 00
	00 00		 jmp	 DWORD PTR $LN23@GetRefined[eax*4]
$LN8@GetRefined:

; 2695 : 		{
; 2696 : 		case CItemData::WEAPON_DAGGER:
; 2697 : 			m_swordRefineEffectRight = EFFECT_REFINED+EFFECT_SMALLSWORD_REFINED7+refine-7;
; 2698 : 			m_swordRefineEffectLeft = EFFECT_REFINED+EFFECT_SMALLSWORD_REFINED7_LEFT+refine-7;

  000e9	8d 86 eb 00 00
	00		 lea	 eax, DWORD PTR [esi+235]
  000ef	89 87 a0 01 00
	00		 mov	 DWORD PTR [edi+416], eax
$LN10@GetRefined:

; 2712 : 		}
; 2713 : 		if (m_swordRefineEffectRight)

  000f5	b8 e8 00 00 00	 mov	 eax, 232		; 000000e8H
  000fa	eb 13		 jmp	 SHORT $LN4@GetRefined
$LN9@GetRefined:

; 2699 : 			break;
; 2700 : 		case CItemData::WEAPON_FAN:
; 2701 : 			m_swordRefineEffectRight = EFFECT_REFINED+EFFECT_FANBELL_REFINED7+refine-7;

  000fc	b8 e5 00 00 00	 mov	 eax, 229		; 000000e5H

; 2702 : 			break;

  00101	eb 0c		 jmp	 SHORT $LN4@GetRefined
$LN11@GetRefined:

; 2703 : 		case CItemData::WEAPON_ARROW:
; 2704 : 		case CItemData::WEAPON_BELL:
; 2705 : 			m_swordRefineEffectRight = EFFECT_REFINED+EFFECT_SMALLSWORD_REFINED7+refine-7;
; 2706 : 			break;
; 2707 : 		case CItemData::WEAPON_BOW:
; 2708 : 			m_swordRefineEffectRight = EFFECT_REFINED+EFFECT_BOW_REFINED7+refine-7;

  00103	b8 e2 00 00 00	 mov	 eax, 226		; 000000e2H

; 2709 : 			break;

  00108	eb 05		 jmp	 SHORT $LN4@GetRefined
$LN12@GetRefined:

; 2710 : 		default:
; 2711 : 			m_swordRefineEffectRight = EFFECT_REFINED+EFFECT_SWORD_REFINED7+refine-7;

  0010a	b8 df 00 00 00	 mov	 eax, 223		; 000000dfH
$LN4@GetRefined:

; 2712 : 		}
; 2713 : 		if (m_swordRefineEffectRight)

  0010f	03 c6		 add	 eax, esi
  00111	89 87 9c 01 00
	00		 mov	 DWORD PTR [edi+412], eax
  00117	74 0e		 je	 SHORT $LN13@GetRefined

; 2714 : 			m_swordRefineEffectRight = __AttachEffect(m_swordRefineEffectRight);

  00119	50		 push	 eax
  0011a	8b cf		 mov	 ecx, edi
  0011c	e8 00 00 00 00	 call	 ?__AttachEffect@CInstanceBase@@IAEKI@Z ; CInstanceBase::__AttachEffect
  00121	89 87 9c 01 00
	00		 mov	 DWORD PTR [edi+412], eax
$LN13@GetRefined:

; 2715 : 		if (m_swordRefineEffectLeft)

  00127	8b 87 a0 01 00
	00		 mov	 eax, DWORD PTR [edi+416]
  0012d	85 c0		 test	 eax, eax
  0012f	74 0e		 je	 SHORT $LN27@GetRefined

; 2716 : 			m_swordRefineEffectLeft = __AttachEffect(m_swordRefineEffectLeft);

  00131	50		 push	 eax
  00132	8b cf		 mov	 ecx, edi
  00134	e8 00 00 00 00	 call	 ?__AttachEffect@CInstanceBase@@IAEKI@Z ; CInstanceBase::__AttachEffect
  00139	89 87 a0 01 00
	00		 mov	 DWORD PTR [edi+416], eax
$LN27@GetRefined:

; 2740 : 		}
; 2741 : 		break;
; 2742 : 	}
; 2743 : 	return 0;
; 2744 : }

  0013f	5f		 pop	 edi
  00140	5e		 pop	 esi
  00141	33 c0		 xor	 eax, eax
  00143	5b		 pop	 ebx
  00144	5d		 pop	 ebp
  00145	c2 04 00	 ret	 4
$LN23@GetRefined:
  00148	00 00 00 00	 DD	 $LN8@GetRefined
  0014c	00 00 00 00	 DD	 $LN11@GetRefined
  00150	00 00 00 00	 DD	 $LN12@GetRefined
  00154	00 00 00 00	 DD	 $LN10@GetRefined
  00158	00 00 00 00	 DD	 $LN9@GetRefined
  0015c	00 00 00 00	 DD	 $LN10@GetRefined
?__GetRefinedEffect@CInstanceBase@@IAEIPAVCItemData@@@Z ENDP ; CInstanceBase::__GetRefinedEffect
_TEXT	ENDS
; Function compile flags: /Ogtp
; File D:\Metin2 Server Files\mainline\SRC_2014\Metin2Client\UserInterface\InstanceBase.cpp
;	COMDAT ?NEW_GetDstPixelPositionRef@CInstanceBase@@QAEABUD3DXVECTOR3@@XZ
_TEXT	SEGMENT
?NEW_GetDstPixelPositionRef@CInstanceBase@@QAEABUD3DXVECTOR3@@XZ PROC ; CInstanceBase::NEW_GetDstPixelPositionRef, COMDAT
; _this$ = ecx

; 1016 : 	return m_GraphicThingInstance.NEW_GetDstPixelPositionRef();

  00000	81 c1 d4 01 00
	00		 add	 ecx, 468		; 000001d4H
  00006	e9 00 00 00 00	 jmp	 ?NEW_GetDstPixelPositionRef@CActorInstance@@QAEABUD3DXVECTOR3@@XZ ; CActorInstance::NEW_GetDstPixelPositionRef
?NEW_GetDstPixelPositionRef@CInstanceBase@@QAEABUD3DXVECTOR3@@XZ ENDP ; CInstanceBase::NEW_GetDstPixelPositionRef
_TEXT	ENDS
; Function compile flags: /Ogtp
; File D:\Metin2 Server Files\mainline\SRC_2014\Metin2Client\UserInterface\InstanceBase.cpp
;	COMDAT ?NEW_GetSrcPixelPositionRef@CInstanceBase@@IAEABUD3DXVECTOR3@@XZ
_TEXT	SEGMENT
?NEW_GetSrcPixelPositionRef@CInstanceBase@@IAEABUD3DXVECTOR3@@XZ PROC ; CInstanceBase::NEW_GetSrcPixelPositionRef, COMDAT
; _this$ = ecx

; 1021 : 	return m_GraphicThingInstance.NEW_GetSrcPixelPositionRef();

  00000	81 c1 d4 01 00
	00		 add	 ecx, 468		; 000001d4H
  00006	e9 00 00 00 00	 jmp	 ?NEW_GetSrcPixelPositionRef@CActorInstance@@QAEABUD3DXVECTOR3@@XZ ; CActorInstance::NEW_GetSrcPixelPositionRef
?NEW_GetSrcPixelPositionRef@CInstanceBase@@IAEABUD3DXVECTOR3@@XZ ENDP ; CInstanceBase::NEW_GetSrcPixelPositionRef
_TEXT	ENDS
; Function compile flags: /Ogtp
; File D:\Metin2 Server Files\mainline\SRC_2014\Metin2Client\UserInterface\InstanceBase.cpp
;	COMDAT ?NEW_GetCurPixelPositionRef@CInstanceBase@@IAEABUD3DXVECTOR3@@XZ
_TEXT	SEGMENT
?NEW_GetCurPixelPositionRef@CInstanceBase@@IAEABUD3DXVECTOR3@@XZ PROC ; CInstanceBase::NEW_GetCurPixelPositionRef, COMDAT
; _this$ = ecx

; 1011 : 	return m_GraphicThingInstance.NEW_GetCurPixelPositionRef();	

  00000	81 c1 d4 01 00
	00		 add	 ecx, 468		; 000001d4H
  00006	e9 00 00 00 00	 jmp	 ?NEW_GetCurPixelPositionRef@CActorInstance@@QAEABUD3DXVECTOR3@@XZ ; CActorInstance::NEW_GetCurPixelPositionRef
?NEW_GetCurPixelPositionRef@CInstanceBase@@IAEABUD3DXVECTOR3@@XZ ENDP ; CInstanceBase::NEW_GetCurPixelPositionRef
_TEXT	ENDS
; Function compile flags: /Ogtp
; File D:\Metin2 Server Files\mainline\SRC_2014\Metin2Client\UserInterface\InstanceBase.cpp
;	COMDAT ?NEW_SetDstPixelPositionZ@CInstanceBase@@IAEXM@Z
_TEXT	SEGMENT
_z$ = 8							; size = 4
?NEW_SetDstPixelPositionZ@CInstanceBase@@IAEXM@Z PROC	; CInstanceBase::NEW_SetDstPixelPositionZ, COMDAT
; _this$ = ecx

; 995  : {

  00000	55		 push	 ebp
  00001	8b ec		 mov	 ebp, esp

; 996  : 	m_GraphicThingInstance.NEW_SetDstPixelPositionZ(z);

  00003	f3 0f 10 45 08	 movss	 xmm0, DWORD PTR _z$[ebp]
  00008	51		 push	 ecx
  00009	81 c1 d4 01 00
	00		 add	 ecx, 468		; 000001d4H
  0000f	f3 0f 11 04 24	 movss	 DWORD PTR [esp], xmm0
  00014	e8 00 00 00 00	 call	 ?NEW_SetDstPixelPositionZ@CActorInstance@@QAEXM@Z ; CActorInstance::NEW_SetDstPixelPositionZ

; 997  : }

  00019	5d		 pop	 ebp
  0001a	c2 04 00	 ret	 4
?NEW_SetDstPixelPositionZ@CInstanceBase@@IAEXM@Z ENDP	; CInstanceBase::NEW_SetDstPixelPositionZ
_TEXT	ENDS
; Function compile flags: /Ogtp
; File D:\Metin2 Server Files\mainline\SRC_2014\Metin2Client\UserInterface\InstanceBase.cpp
;	COMDAT ?NEW_SetDstPixelPosition@CInstanceBase@@IAEXABUD3DXVECTOR3@@@Z
_TEXT	SEGMENT
_c_rkPPosDst$ = 8					; size = 4
?NEW_SetDstPixelPosition@CInstanceBase@@IAEXABUD3DXVECTOR3@@@Z PROC ; CInstanceBase::NEW_SetDstPixelPosition, COMDAT
; _this$ = ecx

; 1000 : {

  00000	55		 push	 ebp
  00001	8b ec		 mov	 ebp, esp

; 1001 : 	m_GraphicThingInstance.NEW_SetDstPixelPosition(c_rkPPosDst);

  00003	81 c1 d4 01 00
	00		 add	 ecx, 468		; 000001d4H

; 1002 : }

  00009	5d		 pop	 ebp

; 1001 : 	m_GraphicThingInstance.NEW_SetDstPixelPosition(c_rkPPosDst);

  0000a	e9 00 00 00 00	 jmp	 ?NEW_SetDstPixelPosition@CActorInstance@@QAEXABUD3DXVECTOR3@@@Z ; CActorInstance::NEW_SetDstPixelPosition
?NEW_SetDstPixelPosition@CInstanceBase@@IAEXABUD3DXVECTOR3@@@Z ENDP ; CInstanceBase::NEW_SetDstPixelPosition
_TEXT	ENDS
; Function compile flags: /Ogtp
; File D:\Metin2 Server Files\mainline\SRC_2014\Metin2Client\UserInterface\InstanceBase.cpp
;	COMDAT ?NEW_SetSrcPixelPosition@CInstanceBase@@IAEXABUD3DXVECTOR3@@@Z
_TEXT	SEGMENT
_c_rkPPosSrc$ = 8					; size = 4
?NEW_SetSrcPixelPosition@CInstanceBase@@IAEXABUD3DXVECTOR3@@@Z PROC ; CInstanceBase::NEW_SetSrcPixelPosition, COMDAT
; _this$ = ecx

; 1005 : {

  00000	55		 push	 ebp
  00001	8b ec		 mov	 ebp, esp

; 1006 : 	m_GraphicThingInstance.NEW_SetSrcPixelPosition(c_rkPPosSrc);

  00003	81 c1 d4 01 00
	00		 add	 ecx, 468		; 000001d4H

; 1007 : }

  00009	5d		 pop	 ebp

; 1006 : 	m_GraphicThingInstance.NEW_SetSrcPixelPosition(c_rkPPosSrc);

  0000a	e9 00 00 00 00	 jmp	 ?NEW_SetSrcPixelPosition@CActorInstance@@QAEXABUD3DXVECTOR3@@@Z ; CActorInstance::NEW_SetSrcPixelPosition
?NEW_SetSrcPixelPosition@CInstanceBase@@IAEXABUD3DXVECTOR3@@@Z ENDP ; CInstanceBase::NEW_SetSrcPixelPosition
_TEXT	ENDS
; Function compile flags: /Ogtp
; File D:\Metin2 Server Files\mainline\SRC_2014\Metin2Client\UserInterface\InstanceBase.cpp
;	COMDAT ?OnMoving@CInstanceBase@@IAEXXZ
_TEXT	SEGMENT
?OnMoving@CInstanceBase@@IAEXXZ PROC			; CInstanceBase::OnMoving, COMDAT
; _this$ = ecx

; 1037 : 	m_GraphicThingInstance.__OnMoving();

  00000	81 c1 d4 01 00
	00		 add	 ecx, 468		; 000001d4H
  00006	e9 00 00 00 00	 jmp	 ?__OnMoving@CActorInstance@@QAEXXZ ; CActorInstance::__OnMoving
?OnMoving@CInstanceBase@@IAEXXZ ENDP			; CInstanceBase::OnMoving
_TEXT	ENDS
; Function compile flags: /Ogtp
; File D:\Metin2 Server Files\mainline\SRC_2014\Metin2Client\UserInterface\InstanceBase.cpp
;	COMDAT ?OnWaiting@CInstanceBase@@IAEXXZ
_TEXT	SEGMENT
?OnWaiting@CInstanceBase@@IAEXXZ PROC			; CInstanceBase::OnWaiting, COMDAT
; _this$ = ecx

; 1032 : 	m_GraphicThingInstance.__OnWaiting();

  00000	81 c1 d4 01 00
	00		 add	 ecx, 468		; 000001d4H
  00006	e9 00 00 00 00	 jmp	 ?__OnWaiting@CActorInstance@@QAEXXZ ; CActorInstance::__OnWaiting
?OnWaiting@CInstanceBase@@IAEXXZ ENDP			; CInstanceBase::OnWaiting
_TEXT	ENDS
; Function compile flags: /Ogtp
; File D:\Metin2 Server Files\mainline\SRC_2014\Metin2Client\UserInterface\InstanceBase.cpp
;	COMDAT ?OnSyncing@CInstanceBase@@IAEXXZ
_TEXT	SEGMENT
?OnSyncing@CInstanceBase@@IAEXXZ PROC			; CInstanceBase::OnSyncing, COMDAT
; _this$ = ecx

; 1027 : 	m_GraphicThingInstance.__OnSyncing();

  00000	81 c1 d4 01 00
	00		 add	 ecx, 468		; 000001d4H
  00006	e9 00 00 00 00	 jmp	 ?__OnSyncing@CActorInstance@@QAEXXZ ; CActorInstance::__OnSyncing
?OnSyncing@CInstanceBase@@IAEXXZ ENDP			; CInstanceBase::OnSyncing
_TEXT	ENDS
; Function compile flags: /Ogtp
; File D:\Metin2 Server Files\mainline\SRC_2014\Metin2Client\UserInterface\InstanceBase.cpp
;	COMDAT ?RefreshActorInstance@CInstanceBase@@IAEXXZ
_TEXT	SEGMENT
?RefreshActorInstance@CInstanceBase@@IAEXXZ PROC	; CInstanceBase::RefreshActorInstance, COMDAT
; _this$ = ecx

; 2511 : 	m_GraphicThingInstance.RefreshActorInstance();

  00000	81 c1 d4 01 00
	00		 add	 ecx, 468		; 000001d4H
  00006	e9 00 00 00 00	 jmp	 ?RefreshActorInstance@CActorInstance@@QAEXXZ ; CActorInstance::RefreshActorInstance
?RefreshActorInstance@CInstanceBase@@IAEXXZ ENDP	; CInstanceBase::RefreshActorInstance
_TEXT	ENDS
; Function compile flags: /Ogtp
; File D:\Metin2 Server Files\mainline\SRC_2014\Metin2Client\UserInterface\InstanceBase.cpp
;	COMDAT ?RefreshState@CInstanceBase@@IAEXK_N@Z
_TEXT	SEGMENT
_pItemData$ = -8					; size = 4
_bySubType$1$ = -2					; size = 1
_byItemType$1$ = -1					; size = 1
_dwMotIndex$ = 8					; size = 4
_isLoop$ = 12						; size = 1
?RefreshState@CInstanceBase@@IAEXK_N@Z PROC		; CInstanceBase::RefreshState, COMDAT
; _this$ = ecx

; 2851 : {

  00000	55		 push	 ebp
  00001	8b ec		 mov	 ebp, esp
  00003	83 ec 08	 sub	 esp, 8
  00006	53		 push	 ebx
  00007	57		 push	 edi
  00008	8b f9		 mov	 edi, ecx

; 2852 : 	DWORD dwPartItemID = m_GraphicThingInstance.GetPartItemID(CRaceData::PART_WEAPON);

  0000a	6a 01		 push	 1
  0000c	8d 9f d4 01 00
	00		 lea	 ebx, DWORD PTR [edi+468]
  00012	8b cb		 mov	 ecx, ebx
  00014	e8 00 00 00 00	 call	 ?GetPartItemID@CActorInstance@@QAEKK@Z ; CActorInstance::GetPartItemID

; 2853 : 
; 2854 : 	BYTE byItemType = 0xff;
; 2855 : 	BYTE bySubType = 0xff;
; 2856 : 
; 2857 : 	CItemManager & rkItemMgr = CItemManager::Instance();
; 2858 : 	CItemData * pItemData;
; 2859 : 	
; 2860 : 	if (rkItemMgr.GetItemDataPointer(dwPartItemID, &pItemData))

  00019	8d 4d f8	 lea	 ecx, DWORD PTR _pItemData$[ebp]
  0001c	c6 45 ff ff	 mov	 BYTE PTR _byItemType$1$[ebp], 255 ; 000000ffH
  00020	51		 push	 ecx
  00021	8b 0d 00 00 00
	00		 mov	 ecx, DWORD PTR ?ms_singleton@?$CSingleton@VCItemManager@@@@0PAVCItemManager@@A ; CSingleton<CItemManager>::ms_singleton
  00027	50		 push	 eax
  00028	c6 45 fe ff	 mov	 BYTE PTR _bySubType$1$[ebp], 255 ; 000000ffH
  0002c	e8 00 00 00 00	 call	 ?GetItemDataPointer@CItemManager@@QAEHKPAPAVCItemData@@@Z ; CItemManager::GetItemDataPointer
  00031	85 c0		 test	 eax, eax
  00033	74 16		 je	 SHORT $LN6@RefreshSta

; 2861 : 	{
; 2862 : 		byItemType = pItemData->GetType();

  00035	8b 4d f8	 mov	 ecx, DWORD PTR _pItemData$[ebp]
  00038	e8 00 00 00 00	 call	 ?GetType@CItemData@@QBEEXZ ; CItemData::GetType

; 2863 : 		bySubType = pItemData->GetWeaponType();

  0003d	8b 4d f8	 mov	 ecx, DWORD PTR _pItemData$[ebp]
  00040	88 45 ff	 mov	 BYTE PTR _byItemType$1$[ebp], al
  00043	e8 00 00 00 00	 call	 ?GetWeaponType@CItemData@@QBEKXZ ; CItemData::GetWeaponType
  00048	88 45 fe	 mov	 BYTE PTR _bySubType$1$[ebp], al
$LN6@RefreshSta:

; 2864 : 	}
; 2865 : 
; 2866 : 	if (IsPoly())

  0004b	8b cf		 mov	 ecx, edi
  0004d	e8 00 00 00 00	 call	 ?IsPoly@CInstanceBase@@QAEHXZ ; CInstanceBase::IsPoly
  00052	85 c0		 test	 eax, eax
  00054	74 0a		 je	 SHORT $LN7@RefreshSta

; 2867 : 	{
; 2868 : 		SetMotionMode(CRaceMotionData::MODE_GENERAL);

  00056	b8 01 00 00 00	 mov	 eax, 1

; 2869 : 	}

  0005b	e9 da 00 00 00	 jmp	 $LN4@RefreshSta
$LN7@RefreshSta:

; 2870 : 	else if (IsWearingDress())

  00060	8b cf		 mov	 ecx, edi
  00062	e8 00 00 00 00	 call	 ?IsWearingDress@CInstanceBase@@QAEHXZ ; CInstanceBase::IsWearingDress
  00067	85 c0		 test	 eax, eax
  00069	74 0a		 je	 SHORT $LN9@RefreshSta

; 2871 : 	{
; 2872 : 		SetMotionMode(CRaceMotionData::MODE_WEDDING_DRESS);

  0006b	b8 10 00 00 00	 mov	 eax, 16			; 00000010H

; 2873 : 	}

  00070	e9 c5 00 00 00	 jmp	 $LN4@RefreshSta
$LN9@RefreshSta:

; 2874 : 	else if (IsHoldingPickAxe())

  00075	8b cf		 mov	 ecx, edi
  00077	e8 00 00 00 00	 call	 ?IsHoldingPickAxe@CInstanceBase@@QAEHXZ ; CInstanceBase::IsHoldingPickAxe
  0007c	8d 4f 04	 lea	 ecx, DWORD PTR [edi+4]
  0007f	85 c0		 test	 eax, eax
  00081	74 14		 je	 SHORT $LN11@RefreshSta

; 2875 : 	{
; 2876 : 		if (m_kHorse.IsMounting())

  00083	e8 00 00 00 00	 call	 ?IsMounting@SHORSE@CInstanceBase@@QAE_NXZ ; CInstanceBase::SHORSE::IsMounting

; 2877 : 		{
; 2878 : 			SetMotionMode(CRaceMotionData::MODE_HORSE);
; 2879 : 		}
; 2880 : 		else
; 2881 : 		{
; 2882 : 			SetMotionMode(CRaceMotionData::MODE_GENERAL);
; 2883 : 		}
; 2884 : 	}

  00088	0f b6 c0	 movzx	 eax, al
  0008b	8d 04 c5 01 00
	00 00		 lea	 eax, DWORD PTR [eax*8+1]
  00092	e9 9d 00 00 00	 jmp	 $LN41@RefreshSta
$LN11@RefreshSta:

; 2885 : 	else if (CItemData::ITEM_TYPE_ROD == byItemType)

  00097	80 7d ff 0d	 cmp	 BYTE PTR _byItemType$1$[ebp], 13 ; 0000000dH
  0009b	75 10		 jne	 SHORT $LN15@RefreshSta

; 2886 : 	{
; 2887 : 		if (m_kHorse.IsMounting())

  0009d	e8 00 00 00 00	 call	 ?IsMounting@SHORSE@CInstanceBase@@QAE_NXZ ; CInstanceBase::SHORSE::IsMounting

; 2888 : 		{
; 2889 : 			SetMotionMode(CRaceMotionData::MODE_HORSE);
; 2890 : 		}
; 2891 : 		else
; 2892 : 		{
; 2893 : 			SetMotionMode(CRaceMotionData::MODE_FISHING);
; 2894 : 		}
; 2895 : 	}

  000a2	0f b6 c0	 movzx	 eax, al
  000a5	83 c0 08	 add	 eax, 8
  000a8	e9 87 00 00 00	 jmp	 $LN41@RefreshSta
$LN15@RefreshSta:
  000ad	56		 push	 esi

; 2896 : 	else if (m_kHorse.IsMounting())

  000ae	0f b6 75 fe	 movzx	 esi, BYTE PTR _bySubType$1$[ebp]
  000b2	e8 00 00 00 00	 call	 ?IsMounting@SHORSE@CInstanceBase@@QAE_NXZ ; CInstanceBase::SHORSE::IsMounting
  000b7	84 c0		 test	 al, al
  000b9	74 3d		 je	 SHORT $LN19@RefreshSta

; 2897 : 	{
; 2898 : 		switch (bySubType)

  000bb	83 fe 05	 cmp	 esi, 5
  000be	77 31		 ja	 SHORT $LN27@RefreshSta
  000c0	ff 24 b5 00 00
	00 00		 jmp	 DWORD PTR $LN38@RefreshSta[esi*4]
$LN21@RefreshSta:

; 2899 : 		{
; 2900 : 			case CItemData::WEAPON_SWORD:
; 2901 : 				SetMotionMode(CRaceMotionData::MODE_HORSE_ONEHAND_SWORD);

  000c7	b8 0a 00 00 00	 mov	 eax, 10			; 0000000aH

; 2902 : 				break;

  000cc	eb 65		 jmp	 SHORT $LN2@RefreshSta
$LN22@RefreshSta:

; 2903 : 
; 2904 : 			case CItemData::WEAPON_TWO_HANDED:
; 2905 : 				SetMotionMode(CRaceMotionData::MODE_HORSE_TWOHAND_SWORD); // Only Warrior

  000ce	b8 0b 00 00 00	 mov	 eax, 11			; 0000000bH

; 2906 : 				break;

  000d3	eb 5e		 jmp	 SHORT $LN2@RefreshSta
$LN23@RefreshSta:

; 2907 : 
; 2908 : 			case CItemData::WEAPON_DAGGER:
; 2909 : 				SetMotionMode(CRaceMotionData::MODE_HORSE_DUALHAND_SWORD); // Only Assassin

  000d5	b8 0c 00 00 00	 mov	 eax, 12			; 0000000cH

; 2910 : 				break;

  000da	eb 57		 jmp	 SHORT $LN2@RefreshSta
$LN24@RefreshSta:

; 2911 : 
; 2912 : 			case CItemData::WEAPON_FAN:
; 2913 : 				SetMotionMode(CRaceMotionData::MODE_HORSE_FAN); // Only Shaman

  000dc	b8 0e 00 00 00	 mov	 eax, 14			; 0000000eH

; 2914 : 				break;

  000e1	eb 50		 jmp	 SHORT $LN2@RefreshSta
$LN25@RefreshSta:

; 2915 : 
; 2916 : 			case CItemData::WEAPON_BELL:
; 2917 : 				SetMotionMode(CRaceMotionData::MODE_HORSE_BELL); // Only Shaman

  000e3	b8 0f 00 00 00	 mov	 eax, 15			; 0000000fH

; 2918 : 				break;

  000e8	eb 49		 jmp	 SHORT $LN2@RefreshSta
$LN26@RefreshSta:

; 2919 : 
; 2920 : 			case CItemData::WEAPON_BOW:
; 2921 : 				SetMotionMode(CRaceMotionData::MODE_HORSE_BOW); // Only Shaman

  000ea	b8 0d 00 00 00	 mov	 eax, 13			; 0000000dH

; 2922 : 				break;

  000ef	eb 42		 jmp	 SHORT $LN2@RefreshSta
$LN27@RefreshSta:

; 2923 : 
; 2924 : 			default:
; 2925 : 				SetMotionMode(CRaceMotionData::MODE_HORSE);

  000f1	b8 09 00 00 00	 mov	 eax, 9

; 2926 : 				break;
; 2927 : 		}
; 2928 : 	}

  000f6	eb 3b		 jmp	 SHORT $LN2@RefreshSta
$LN19@RefreshSta:

; 2929 : 	else
; 2930 : 	{
; 2931 : 		switch (bySubType)

  000f8	83 fe 05	 cmp	 esi, 5
  000fb	77 31		 ja	 SHORT $LN34@RefreshSta
  000fd	ff 24 b5 00 00
	00 00		 jmp	 DWORD PTR $LN39@RefreshSta[esi*4]
$LN28@RefreshSta:

; 2932 : 		{
; 2933 : 			case CItemData::WEAPON_SWORD:
; 2934 : 				SetMotionMode(CRaceMotionData::MODE_ONEHAND_SWORD);

  00104	b8 02 00 00 00	 mov	 eax, 2

; 2935 : 				break;

  00109	eb 28		 jmp	 SHORT $LN2@RefreshSta
$LN29@RefreshSta:

; 2936 : 
; 2937 : 			case CItemData::WEAPON_TWO_HANDED:
; 2938 : 				SetMotionMode(CRaceMotionData::MODE_TWOHAND_SWORD); // Only Warrior

  0010b	b8 03 00 00 00	 mov	 eax, 3

; 2939 : 				break;

  00110	eb 21		 jmp	 SHORT $LN2@RefreshSta
$LN30@RefreshSta:

; 2940 : 
; 2941 : 			case CItemData::WEAPON_DAGGER:
; 2942 : 				SetMotionMode(CRaceMotionData::MODE_DUALHAND_SWORD); // Only Assassin

  00112	b8 04 00 00 00	 mov	 eax, 4

; 2943 : 				break;

  00117	eb 1a		 jmp	 SHORT $LN2@RefreshSta
$LN31@RefreshSta:

; 2944 : 
; 2945 : 			case CItemData::WEAPON_BOW:
; 2946 : 				SetMotionMode(CRaceMotionData::MODE_BOW); // Only Assassin

  00119	b8 05 00 00 00	 mov	 eax, 5

; 2947 : 				break;

  0011e	eb 13		 jmp	 SHORT $LN2@RefreshSta
$LN32@RefreshSta:

; 2948 : 
; 2949 : 			case CItemData::WEAPON_FAN:
; 2950 : 				SetMotionMode(CRaceMotionData::MODE_FAN); // Only Shaman

  00120	b8 06 00 00 00	 mov	 eax, 6

; 2951 : 				break;

  00125	eb 0c		 jmp	 SHORT $LN2@RefreshSta
$LN33@RefreshSta:

; 2952 : 
; 2953 : 			case CItemData::WEAPON_BELL:
; 2954 : 				SetMotionMode(CRaceMotionData::MODE_BELL); // Only Shaman

  00127	b8 07 00 00 00	 mov	 eax, 7

; 2955 : 				break;

  0012c	eb 05		 jmp	 SHORT $LN2@RefreshSta
$LN34@RefreshSta:

; 2956 : 
; 2957 : 			case CItemData::WEAPON_ARROW:
; 2958 : 			default:
; 2959 : 				SetMotionMode(CRaceMotionData::MODE_GENERAL);

  0012e	b8 01 00 00 00	 mov	 eax, 1
$LN2@RefreshSta:
  00133	5e		 pop	 esi
$LN41@RefreshSta:

; 2960 : 				break;
; 2961 : 		}
; 2962 : 	}
; 2963 : 
; 2964 : 	if (isLoop)

  00134	8d 9f d4 01 00
	00		 lea	 ebx, DWORD PTR [edi+468]
$LN4@RefreshSta:
  0013a	50		 push	 eax
  0013b	8b cf		 mov	 ecx, edi
  0013d	e8 00 00 00 00	 call	 ?SetMotionMode@CInstanceBase@@QAEXH@Z ; CInstanceBase::SetMotionMode
  00142	80 7d 0c 00	 cmp	 BYTE PTR _isLoop$[ebp], 0
  00146	51		 push	 ecx
  00147	74 20		 je	 SHORT $LN35@RefreshSta

; 2965 : 		m_GraphicThingInstance.InterceptLoopMotion(dwMotIndex);

  00149	c7 04 24 cd cc
	cc 3d		 mov	 DWORD PTR [esp], 1036831949 ; 3dcccccdH
  00150	8b cb		 mov	 ecx, ebx
  00152	ff 75 08	 push	 DWORD PTR _dwMotIndex$[ebp]
  00155	e8 00 00 00 00	 call	 ?InterceptLoopMotion@CActorInstance@@QAE_NKM@Z ; CActorInstance::InterceptLoopMotion

; 2968 : 
; 2969 : 	RefreshActorInstance();

  0015a	8b cf		 mov	 ecx, edi
  0015c	e8 00 00 00 00	 call	 ?RefreshActorInstance@CInstanceBase@@IAEXXZ ; CInstanceBase::RefreshActorInstance
  00161	5f		 pop	 edi
  00162	5b		 pop	 ebx

; 2970 : }

  00163	8b e5		 mov	 esp, ebp
  00165	5d		 pop	 ebp
  00166	c2 08 00	 ret	 8
$LN35@RefreshSta:

; 2966 : 	else
; 2967 : 		m_GraphicThingInstance.InterceptOnceMotion(dwMotIndex);

  00169	c7 04 24 00 00
	80 3f		 mov	 DWORD PTR [esp], 1065353216 ; 3f800000H
  00170	6a 00		 push	 0
  00172	51		 push	 ecx
  00173	c7 04 24 cd cc
	cc 3d		 mov	 DWORD PTR [esp], 1036831949 ; 3dcccccdH
  0017a	8b cb		 mov	 ecx, ebx
  0017c	ff 75 08	 push	 DWORD PTR _dwMotIndex$[ebp]
  0017f	e8 00 00 00 00	 call	 ?InterceptOnceMotion@CActorInstance@@QAE_NKMIM@Z ; CActorInstance::InterceptOnceMotion

; 2968 : 
; 2969 : 	RefreshActorInstance();

  00184	8b cf		 mov	 ecx, edi
  00186	e8 00 00 00 00	 call	 ?RefreshActorInstance@CInstanceBase@@IAEXXZ ; CInstanceBase::RefreshActorInstance
  0018b	5f		 pop	 edi
  0018c	5b		 pop	 ebx

; 2970 : }

  0018d	8b e5		 mov	 esp, ebp
  0018f	5d		 pop	 ebp
  00190	c2 08 00	 ret	 8
  00193	90		 npad	 1
$LN38@RefreshSta:
  00194	00 00 00 00	 DD	 $LN21@RefreshSta
  00198	00 00 00 00	 DD	 $LN23@RefreshSta
  0019c	00 00 00 00	 DD	 $LN26@RefreshSta
  001a0	00 00 00 00	 DD	 $LN22@RefreshSta
  001a4	00 00 00 00	 DD	 $LN25@RefreshSta
  001a8	00 00 00 00	 DD	 $LN24@RefreshSta
$LN39@RefreshSta:
  001ac	00 00 00 00	 DD	 $LN28@RefreshSta
  001b0	00 00 00 00	 DD	 $LN30@RefreshSta
  001b4	00 00 00 00	 DD	 $LN31@RefreshSta
  001b8	00 00 00 00	 DD	 $LN29@RefreshSta
  001bc	00 00 00 00	 DD	 $LN33@RefreshSta
  001c0	00 00 00 00	 DD	 $LN32@RefreshSta
?RefreshState@CInstanceBase@@IAEXK_N@Z ENDP		; CInstanceBase::RefreshState
_TEXT	ENDS
; Function compile flags: /Ogtp
; File D:\Metin2 Server Files\mainline\SRC_2014\Metin2Client\UserInterface\InstanceBase.cpp
;	COMDAT ?GetLocalTime@CInstanceBase@@IAEMXZ
_TEXT	SEGMENT
?GetLocalTime@CInstanceBase@@IAEMXZ PROC		; CInstanceBase::GetLocalTime, COMDAT
; _this$ = ecx

; 1165 : 	return m_GraphicThingInstance.GetLocalTime();

  00000	81 c1 d4 01 00
	00		 add	 ecx, 468		; 000001d4H
  00006	e9 00 00 00 00	 jmp	 ?GetLocalTime@CGraphicThingInstance@@QAEMXZ ; CGraphicThingInstance::GetLocalTime
?GetLocalTime@CInstanceBase@@IAEMXZ ENDP		; CInstanceBase::GetLocalTime
_TEXT	ENDS
; Function compile flags: /Ogtp
; File D:\Metin2 Server Files\mainline\SRC_2014\Metin2Client\UserInterface\InstanceBase.cpp
; File C:\Program Files (x86)\Microsoft Visual Studio\2019\Community\VC\Tools\MSVC\14.28.29333\include\list
; File D:\Metin2 Server Files\mainline\SRC_2014\Metin2Client\UserInterface\InstanceBase.cpp
; File C:\Program Files (x86)\Microsoft Visual Studio\2019\Community\VC\Tools\MSVC\14.28.29333\include\list
; File D:\Metin2 Server Files\mainline\SRC_2014\Metin2Client\UserInterface\InstanceBase.cpp
; File C:\Program Files (x86)\Microsoft Visual Studio\2019\Community\VC\Tools\MSVC\14.28.29333\include\list
; File C:\Program Files (x86)\Microsoft Visual Studio\2019\Community\VC\Tools\MSVC\14.28.29333\include\xmemory
; File C:\Program Files (x86)\Microsoft Visual Studio\2019\Community\VC\Tools\MSVC\14.28.29333\include\list
; File C:\Program Files (x86)\Microsoft Visual Studio\2019\Community\VC\Tools\MSVC\14.28.29333\include\xmemory
; File D:\Metin2 Server Files\mainline\SRC_2014\Metin2Client\UserInterface\InstanceBase.cpp
; File C:\Program Files (x86)\Microsoft Visual Studio\2019\Community\VC\Tools\MSVC\14.28.29333\include\list
; File D:\Metin2 Server Files\mainline\SRC_2014\Metin2Client\UserInterface\InstanceBase.cpp
; File C:\Program Files (x86)\Microsoft Visual Studio\2019\Community\VC\Tools\MSVC\14.28.29333\include\list
; File D:\Metin2 Server Files\mainline\SRC_2014\Metin2Client\UserInterface\InstanceBase.cpp
; File C:\Program Files (x86)\Microsoft Visual Studio\2019\Community\VC\Tools\MSVC\14.28.29333\include\list
; File C:\Program Files (x86)\Microsoft Visual Studio\2019\Community\VC\Tools\MSVC\14.28.29333\include\xmemory
; File D:\Metin2 Server Files\mainline\SRC_2014\Metin2Client\UserInterface\InstanceBase.cpp
; File C:\Program Files (x86)\Microsoft Visual Studio\2019\Community\VC\Tools\MSVC\14.28.29333\include\xmemory
; File D:\Metin2 Server Files\mainline\SRC_2014\Metin2Client\UserInterface\InstanceBase.cpp
; File D:\Metin2 Server Files\mainline\SRC_2014\M2Data\include\d3dx8math.inl
; File D:\Metin2 Server Files\mainline\SRC_2014\Metin2Client\UserInterface\InstanceBase.cpp
; File C:\Program Files (x86)\Windows Kits\10\Include\10.0.18362.0\ucrt\corecrt_math.h
; File D:\Metin2 Server Files\mainline\SRC_2014\Metin2Client\UserInterface\InstanceBase.cpp
; File C:\Program Files (x86)\Windows Kits\10\Include\10.0.18362.0\ucrt\corecrt_math.h
; File D:\Metin2 Server Files\mainline\SRC_2014\Metin2Client\UserInterface\InstanceBase.cpp
; File C:\Program Files (x86)\Microsoft Visual Studio\2019\Community\VC\Tools\MSVC\14.28.29333\include\list
; File D:\Metin2 Server Files\mainline\SRC_2014\Metin2Client\UserInterface\InstanceBase.cpp
; File C:\Program Files (x86)\Microsoft Visual Studio\2019\Community\VC\Tools\MSVC\14.28.29333\include\list
; File D:\Metin2 Server Files\mainline\SRC_2014\Metin2Client\UserInterface\InstanceBase.cpp
;	COMDAT ?StateProcess@CInstanceBase@@IAEXXZ
_TEXT	SEGMENT
_fDirLen$1$ = -88					; size = 4
_kCmdTop$1 = -84					; size = 36
_kCmdTop$6$ = -48					; size = 16
_kPPosDst$2 = -28					; size = 12
_kPPosCur$3 = -16					; size = 12
__$ArrayPad$ = -4					; size = 4
?StateProcess@CInstanceBase@@IAEXXZ PROC		; CInstanceBase::StateProcess, COMDAT
; _this$ = ecx

; 1278 : {	

  00000	55		 push	 ebp
  00001	8b ec		 mov	 ebp, esp
  00003	83 e4 f8	 and	 esp, -8			; fffffff8H
  00006	83 ec 5c	 sub	 esp, 92			; 0000005cH
  00009	a1 00 00 00 00	 mov	 eax, DWORD PTR ___security_cookie
  0000e	33 c4		 xor	 eax, esp
  00010	89 44 24 58	 mov	 DWORD PTR __$ArrayPad$[esp+92], eax
  00014	53		 push	 ebx
  00015	56		 push	 esi
  00016	57		 push	 edi
  00017	8b f9		 mov	 edi, ecx
; File C:\Program Files (x86)\Microsoft Visual Studio\2019\Community\VC\Tools\MSVC\14.28.29333\include\list

; 1200 :         return _Mypair._Myval2._Mysize == 0;

  00019	83 bf 94 06 00
	00 00		 cmp	 DWORD PTR [edi+1684], 0
; File D:\Metin2 Server Files\mainline\SRC_2014\Metin2Client\UserInterface\InstanceBase.cpp

; 1281 : 		if (m_kQue_kCmdNew.empty())

  00020	0f 84 2c 06 00
	00		 je	 $LN74@StateProce
  00026	66 66 0f 1f 84
	00 00 00 00 00	 npad	 10
$LL2@StateProce:
; File C:\Program Files (x86)\Microsoft Visual Studio\2019\Community\VC\Tools\MSVC\14.28.29333\include\list

; 1212 :         return _Mypair._Myval2._Myhead->_Next->_Myval;

  00030	8b 87 90 06 00
	00		 mov	 eax, DWORD PTR [edi+1680]
; File D:\Metin2 Server Files\mainline\SRC_2014\Metin2Client\UserInterface\InstanceBase.cpp

; 1284 : 		DWORD dwDstChkTime = m_kQue_kCmdNew.front().m_dwChkTime;

  00036	8b 00		 mov	 eax, DWORD PTR [eax]
  00038	8b 70 08	 mov	 esi, DWORD PTR [eax+8]

; 1285 : 		DWORD dwCurChkTime = ELTimer_GetServerFrameMSec();	

  0003b	e8 00 00 00 00	 call	 ?ELTimer_GetServerFrameMSec@@YAKXZ ; ELTimer_GetServerFrameMSec

; 1286 : 
; 1287 : 		if (dwCurChkTime < dwDstChkTime)

  00040	3b c6		 cmp	 eax, esi
  00042	0f 82 0a 06 00
	00		 jb	 $LN74@StateProce
; File C:\Program Files (x86)\Microsoft Visual Studio\2019\Community\VC\Tools\MSVC\14.28.29333\include\list

; 1212 :         return _Mypair._Myval2._Myhead->_Next->_Myval;

  00048	8b 87 90 06 00
	00		 mov	 eax, DWORD PTR [edi+1680]
; File C:\Program Files (x86)\Microsoft Visual Studio\2019\Community\VC\Tools\MSVC\14.28.29333\include\xmemory

; 696  :         _Deallocate<_New_alignof<value_type>>(_Ptr, sizeof(value_type) * _Count);

  0004e	6a 2c		 push	 44			; 0000002cH
; File C:\Program Files (x86)\Microsoft Visual Studio\2019\Community\VC\Tools\MSVC\14.28.29333\include\list

; 1212 :         return _Mypair._Myval2._Myhead->_Next->_Myval;

  00050	8b 10		 mov	 edx, DWORD PTR [eax]
; File C:\Program Files (x86)\Microsoft Visual Studio\2019\Community\VC\Tools\MSVC\14.28.29333\include\xmemory

; 696  :         _Deallocate<_New_alignof<value_type>>(_Ptr, sizeof(value_type) * _Count);

  00052	52		 push	 edx
; File D:\Metin2 Server Files\mainline\SRC_2014\Metin2Client\UserInterface\InstanceBase.cpp

; 1290 : 		SCommand kCmdTop = m_kQue_kCmdNew.front();

  00053	0f 10 42 08	 movups	 xmm0, XMMWORD PTR [edx+8]
  00057	8b 72 28	 mov	 esi, DWORD PTR [edx+40]
; File C:\Program Files (x86)\Microsoft Visual Studio\2019\Community\VC\Tools\MSVC\14.28.29333\include\list

; 1360 :         const auto _Result = _Pnode->_Next;

  0005a	8b 0a		 mov	 ecx, DWORD PTR [edx]
; File D:\Metin2 Server Files\mainline\SRC_2014\Metin2Client\UserInterface\InstanceBase.cpp

; 1290 : 		SCommand kCmdTop = m_kQue_kCmdNew.front();

  0005c	0f 11 44 24 1c	 movups	 XMMWORD PTR _kCmdTop$1[esp+112], xmm0
  00061	0f 10 42 18	 movups	 xmm0, XMMWORD PTR [edx+24]
; File C:\Program Files (x86)\Microsoft Visual Studio\2019\Community\VC\Tools\MSVC\14.28.29333\include\list

; 1362 :         --_Mypair._Myval2._Mysize;

  00065	ff 8f 94 06 00
	00		 dec	 DWORD PTR [edi+1684]

; 1363 :         _Pnode->_Prev->_Next = _Result;

  0006b	8b 42 04	 mov	 eax, DWORD PTR [edx+4]
; File D:\Metin2 Server Files\mainline\SRC_2014\Metin2Client\UserInterface\InstanceBase.cpp

; 1290 : 		SCommand kCmdTop = m_kQue_kCmdNew.front();

  0006e	0f 11 44 24 40	 movups	 XMMWORD PTR _kCmdTop$6$[esp+112], xmm0
  00073	0f 11 44 24 2c	 movups	 XMMWORD PTR _kCmdTop$1[esp+128], xmm0
; File C:\Program Files (x86)\Microsoft Visual Studio\2019\Community\VC\Tools\MSVC\14.28.29333\include\list

; 1363 :         _Pnode->_Prev->_Next = _Result;

  00078	89 08		 mov	 DWORD PTR [eax], ecx

; 1364 :         _Result->_Prev       = _Pnode->_Prev;

  0007a	8b 42 04	 mov	 eax, DWORD PTR [edx+4]
  0007d	89 41 04	 mov	 DWORD PTR [ecx+4], eax
; File C:\Program Files (x86)\Microsoft Visual Studio\2019\Community\VC\Tools\MSVC\14.28.29333\include\xmemory

; 696  :         _Deallocate<_New_alignof<value_type>>(_Ptr, sizeof(value_type) * _Count);

  00080	e8 00 00 00 00	 call	 ??$_Deallocate@$07$0A@@std@@YAXPAXI@Z ; std::_Deallocate<8,0>
; File D:\Metin2 Server Files\mainline\SRC_2014\Metin2Client\UserInterface\InstanceBase.cpp

; 1293 : 		TPixelPosition kPPosDst = kCmdTop.m_kPPosDst;

  00085	f2 0f 10 44 24
	48		 movsd	 xmm0, QWORD PTR _kCmdTop$6$[esp+120]
; File C:\Program Files (x86)\Microsoft Visual Studio\2019\Community\VC\Tools\MSVC\14.28.29333\include\xmemory

; 696  :         _Deallocate<_New_alignof<value_type>>(_Ptr, sizeof(value_type) * _Count);

  0008b	83 c4 08	 add	 esp, 8
; File D:\Metin2 Server Files\mainline\SRC_2014\Metin2Client\UserInterface\InstanceBase.cpp

; 1298 : 		UINT uVID = GetVirtualID();	

  0008e	8b cf		 mov	 ecx, edi
  00090	66 0f d6 44 24
	4c		 movq	 QWORD PTR _kPPosDst$2[esp+104], xmm0
  00096	89 74 24 54	 mov	 DWORD PTR _kPPosDst$2[esp+112], esi
  0009a	e8 00 00 00 00	 call	 ?GetVirtualID@CInstanceBase@@QAEKXZ ; CInstanceBase::GetVirtualID
  0009f	8b d8		 mov	 ebx, eax

; 1299 : 		UINT uTargetVID = kCmdTop.m_uTargetVID;
; 1300 : 
; 1301 : 		TPixelPosition kPPosCur;
; 1302 : 		NEW_GetPixelPosition(&kPPosCur);

  000a1	8b cf		 mov	 ecx, edi
  000a3	8d 44 24 58	 lea	 eax, DWORD PTR _kPPosCur$3[esp+104]
  000a7	50		 push	 eax
  000a8	e8 00 00 00 00	 call	 ?NEW_GetPixelPosition@CInstanceBase@@QAEXPAUD3DXVECTOR3@@@Z ; CInstanceBase::NEW_GetPixelPosition
; File D:\Metin2 Server Files\mainline\SRC_2014\M2Data\include\d3dx8math.inl

; 263  :     return D3DXVECTOR3(x - v.x, y - v.y, z - v.z);

  000ad	f3 0f 10 4c 24
	4c		 movss	 xmm1, DWORD PTR _kPPosDst$2[esp+104]
  000b3	f3 0f 10 44 24
	50		 movss	 xmm0, DWORD PTR _kPPosDst$2[esp+108]
  000b9	f3 0f 5c 44 24
	5c		 subss	 xmm0, DWORD PTR _kPPosCur$3[esp+108]
  000bf	f3 0f 5c 4c 24
	58		 subss	 xmm1, DWORD PTR _kPPosCur$3[esp+104]

; 181  :     y = fy;

  000c5	f3 0f 59 c0	 mulss	 xmm0, xmm0
; File D:\Metin2 Server Files\mainline\SRC_2014\Metin2Client\UserInterface\InstanceBase.cpp

; 1314 : 		float fDirLen = (float)sqrt(kPPosDir.x * kPPosDir.x + kPPosDir.y * kPPosDir.y);

  000c9	f3 0f 59 c9	 mulss	 xmm1, xmm1
  000cd	f3 0f 58 c1	 addss	 xmm0, xmm1
  000d1	0f 57 c9	 xorps	 xmm1, xmm1
; File C:\Program Files (x86)\Windows Kits\10\Include\10.0.18362.0\ucrt\corecrt_math.h

; 760  :             return (float)sqrt(_X);

  000d4	0f 5a c0	 cvtps2pd xmm0, xmm0
  000d7	66 0f 2e c8	 ucomisd xmm1, xmm0
  000db	77 06		 ja	 SHORT $LN78@StateProce
  000dd	f2 0f 51 c0	 sqrtsd	 xmm0, xmm0
  000e1	eb 05		 jmp	 SHORT $LN79@StateProce
$LN78@StateProce:
  000e3	e8 00 00 00 00	 call	 __libm_sse2_sqrt_precise
$LN79@StateProce:
  000e8	f2 0f 5a c0	 cvtsd2ss xmm0, xmm0
; File D:\Metin2 Server Files\mainline\SRC_2014\Metin2Client\UserInterface\InstanceBase.cpp

; 1318 : 		if (!__CanProcessNetworkStatePacket())

  000ec	8b cf		 mov	 ecx, edi
; File C:\Program Files (x86)\Windows Kits\10\Include\10.0.18362.0\ucrt\corecrt_math.h

; 760  :             return (float)sqrt(_X);

  000ee	f3 0f 11 44 24
	10		 movss	 DWORD PTR _fDirLen$1$[esp+104], xmm0
; File D:\Metin2 Server Files\mainline\SRC_2014\Metin2Client\UserInterface\InstanceBase.cpp

; 1318 : 		if (!__CanProcessNetworkStatePacket())

  000f4	e8 00 00 00 00	 call	 ?__CanProcessNetworkStatePacket@CInstanceBase@@IAEHXZ ; CInstanceBase::__CanProcessNetworkStatePacket
  000f9	85 c0		 test	 eax, eax
  000fb	0f 84 29 05 00
	00		 je	 $LN73@StateProce

; 1321 : 			return;
; 1322 : 		}
; 1323 : 
; 1324 : 		if (!__IsEnableTCPProcess(eFunc))

  00101	8b 5c 24 20	 mov	 ebx, DWORD PTR _kCmdTop$1[esp+116]
  00105	8b cf		 mov	 ecx, edi
  00107	53		 push	 ebx
  00108	e8 00 00 00 00	 call	 ?__IsEnableTCPProcess@CInstanceBase@@IAEHI@Z ; CInstanceBase::__IsEnableTCPProcess
  0010d	85 c0		 test	 eax, eax
  0010f	0f 84 3d 05 00
	00		 je	 $LN74@StateProce

; 1325 : 		{
; 1326 : 			return;
; 1327 : 		}
; 1328 : 
; 1329 : 		switch (eFunc)

  00115	83 fb 05	 cmp	 ebx, 5
  00118	0f 87 f2 03 00
	00		 ja	 $LN38@StateProce
  0011e	ff 24 9d 00 00
	00 00		 jmp	 DWORD PTR $LN77@StateProce[ebx*4]
$LN10@StateProce:

; 1330 : 		{
; 1331 : 			case FUNC_WAIT:
; 1332 : 			{
; 1333 : 				//Tracenf("%s (%f, %f) -> (%f, %f)  %f", GetNameString(), kPPosCur.x, kPPosCur.y, kPPosDst.x, kPPosDst.y, fDirLen);
; 1334 : 				if (fDirLen > 1.0f)

  00125	f3 0f 10 44 24
	10		 movss	 xmm0, DWORD PTR _fDirLen$1$[esp+104]
  0012b	8b cf		 mov	 ecx, edi
  0012d	0f 2f 05 00 00
	00 00		 comiss	 xmm0, DWORD PTR __real@3f800000
  00134	76 41		 jbe	 SHORT $LN11@StateProce

; 1335 : 				{
; 1336 : 					//NEW_GetSrcPixelPositionRef() = kPPosCur;
; 1337 : 					//NEW_GetDstPixelPositionRef() = kPPosDst;
; 1338 : 					NEW_SetSrcPixelPosition(kPPosCur);

  00136	8d 44 24 58	 lea	 eax, DWORD PTR _kPPosCur$3[esp+104]
  0013a	50		 push	 eax
  0013b	e8 00 00 00 00	 call	 ?NEW_SetSrcPixelPosition@CInstanceBase@@IAEXABUD3DXVECTOR3@@@Z ; CInstanceBase::NEW_SetSrcPixelPosition

; 1339 : 					NEW_SetDstPixelPosition(kPPosDst);

  00140	8d 44 24 4c	 lea	 eax, DWORD PTR _kPPosDst$2[esp+104]
  00144	8b cf		 mov	 ecx, edi
  00146	50		 push	 eax
  00147	e8 00 00 00 00	 call	 ?NEW_SetDstPixelPosition@CInstanceBase@@IAEXABUD3DXVECTOR3@@@Z ; CInstanceBase::NEW_SetDstPixelPosition

; 1340 : 
; 1341 : 					__EnableSkipCollision();

  0014c	8b cf		 mov	 ecx, edi
  0014e	e8 00 00 00 00	 call	 ?__EnableSkipCollision@CInstanceBase@@IAEXXZ ; CInstanceBase::__EnableSkipCollision

; 1342 : 
; 1343 : 					m_fDstRot = fRotDst;

  00153	f3 0f 10 44 24
	1c		 movss	 xmm0, DWORD PTR _kCmdTop$1[esp+112]
  00159	f3 0f 11 87 c0
	01 00 00	 movss	 DWORD PTR [edi+448], xmm0

; 1344 : 					m_isGoing = TRUE;

  00161	c6 87 88 01 00
	00 01		 mov	 BYTE PTR [edi+392], 1

; 1345 : 
; 1346 : 					m_kMovAfterFunc.eFunc = FUNC_WAIT;

  00168	c7 87 a8 01 00
	00 00 00 00 00	 mov	 DWORD PTR [edi+424], 0

; 1347 : 
; 1348 : 					if (!IsWalking())
; 1349 : 						StartWalking();
; 1350 : 
; 1351 : 					//Tracen("");
; 1352 : 				}

  00172	e9 f4 03 00 00	 jmp	 $LN80@StateProce
$LN11@StateProce:

; 1353 : 				else
; 1354 : 				{
; 1355 : 					//Tracen(" ");
; 1356 : 
; 1357 : 					m_isGoing = FALSE;

  00177	c6 87 88 01 00
	00 00		 mov	 BYTE PTR [edi+392], 0

; 1358 : 
; 1359 : 					if (!IsWaiting())

  0017e	e8 00 00 00 00	 call	 ?IsWaiting@CInstanceBase@@QAEHXZ ; CInstanceBase::IsWaiting
  00183	85 c0		 test	 eax, eax
  00185	75 0f		 jne	 SHORT $LN14@StateProce

; 1360 : 						EndWalking();

  00187	51		 push	 ecx
  00188	8b cf		 mov	 ecx, edi
  0018a	c7 04 24 9a 99
	19 3e		 mov	 DWORD PTR [esp], 1041865114 ; 3e19999aH
  00191	e8 00 00 00 00	 call	 ?EndWalking@CInstanceBase@@QAEXM@Z ; CInstanceBase::EndWalking
$LN14@StateProce:

; 1361 : 
; 1362 : 					SCRIPT_SetPixelPosition(kPPosDst.x, kPPosDst.y);

  00196	f3 0f 10 44 24
	50		 movss	 xmm0, DWORD PTR _kPPosDst$2[esp+108]
  0019c	83 ec 08	 sub	 esp, 8
  0019f	8b cf		 mov	 ecx, edi
  001a1	f3 0f 11 44 24
	04		 movss	 DWORD PTR [esp+4], xmm0
  001a7	f3 0f 10 44 24
	54		 movss	 xmm0, DWORD PTR _kPPosDst$2[esp+112]
  001ad	f3 0f 11 04 24	 movss	 DWORD PTR [esp], xmm0
  001b2	e8 00 00 00 00	 call	 ?SCRIPT_SetPixelPosition@CInstanceBase@@QAEXMM@Z ; CInstanceBase::SCRIPT_SetPixelPosition

; 1363 : 					SetAdvancingRotation(fRotDst);

  001b7	f3 0f 10 44 24
	1c		 movss	 xmm0, DWORD PTR _kCmdTop$1[esp+112]
  001bd	51		 push	 ecx
  001be	8b cf		 mov	 ecx, edi
  001c0	f3 0f 11 04 24	 movss	 DWORD PTR [esp], xmm0
  001c5	e8 00 00 00 00	 call	 ?SetAdvancingRotation@CInstanceBase@@QAEXM@Z ; CInstanceBase::SetAdvancingRotation

; 1364 : 					SetRotation(fRotDst);

  001ca	f3 0f 10 44 24
	1c		 movss	 xmm0, DWORD PTR _kCmdTop$1[esp+112]
  001d0	51		 push	 ecx
  001d1	8b cf		 mov	 ecx, edi
  001d3	f3 0f 11 04 24	 movss	 DWORD PTR [esp], xmm0
  001d8	e8 00 00 00 00	 call	 ?SetRotation@CInstanceBase@@QAEXM@Z ; CInstanceBase::SetRotation

; 1365 : 				}
; 1366 : 				break;

  001dd	e9 29 04 00 00	 jmp	 $LN41@StateProce
$LN15@StateProce:

; 1367 : 			}
; 1368 : 
; 1369 : 			case FUNC_MOVE:
; 1370 : 			{
; 1371 : 				//NEW_GetSrcPixelPositionRef() = kPPosCur;
; 1372 : 				//NEW_GetDstPixelPositionRef() = kPPosDst;
; 1373 : 				NEW_SetSrcPixelPosition(kPPosCur);

  001e2	8d 44 24 58	 lea	 eax, DWORD PTR _kPPosCur$3[esp+104]
  001e6	8b cf		 mov	 ecx, edi
  001e8	50		 push	 eax
  001e9	e8 00 00 00 00	 call	 ?NEW_SetSrcPixelPosition@CInstanceBase@@IAEXABUD3DXVECTOR3@@@Z ; CInstanceBase::NEW_SetSrcPixelPosition

; 1374 : 				NEW_SetDstPixelPosition(kPPosDst);

  001ee	8d 44 24 4c	 lea	 eax, DWORD PTR _kPPosDst$2[esp+104]
  001f2	8b cf		 mov	 ecx, edi
  001f4	50		 push	 eax
  001f5	e8 00 00 00 00	 call	 ?NEW_SetDstPixelPosition@CInstanceBase@@IAEXABUD3DXVECTOR3@@@Z ; CInstanceBase::NEW_SetDstPixelPosition

; 1375 : 				m_fDstRot = fRotDst;

  001fa	f3 0f 10 44 24
	1c		 movss	 xmm0, DWORD PTR _kCmdTop$1[esp+112]

; 1376 : 				m_isGoing = TRUE;
; 1377 : 				__EnableSkipCollision();

  00200	8b cf		 mov	 ecx, edi
  00202	f3 0f 11 87 c0
	01 00 00	 movss	 DWORD PTR [edi+448], xmm0
  0020a	c6 87 88 01 00
	00 01		 mov	 BYTE PTR [edi+392], 1
  00211	e8 00 00 00 00	 call	 ?__EnableSkipCollision@CInstanceBase@@IAEXXZ ; CInstanceBase::__EnableSkipCollision

; 1378 : 				//m_isSyncMov = TRUE;
; 1379 : 
; 1380 : 				m_kMovAfterFunc.eFunc = FUNC_MOVE;

  00216	c7 87 a8 01 00
	00 01 00 00 00	 mov	 DWORD PTR [edi+424], 1

; 1381 : 
; 1382 : 				if (!IsWalking())
; 1383 : 				{
; 1384 : 					//Tracen("    ");
; 1385 : 					StartWalking();
; 1386 : 				}
; 1387 : 				else
; 1388 : 				{
; 1389 : 					//Tracen("  ");
; 1390 : 				}
; 1391 : 				break;

  00220	e9 46 03 00 00	 jmp	 $LN80@StateProce
$LN18@StateProce:

; 1392 : 			}
; 1393 : 
; 1394 : 			case FUNC_COMBO:
; 1395 : 			{
; 1396 : 				if (fDirLen >= 50.0f)

  00225	f3 0f 10 44 24
	10		 movss	 xmm0, DWORD PTR _fDirLen$1$[esp+104]
  0022b	8b cf		 mov	 ecx, edi
  0022d	0f 2f 05 00 00
	00 00		 comiss	 xmm0, DWORD PTR __real@42480000
  00234	72 41		 jb	 SHORT $LN19@StateProce

; 1397 : 				{
; 1398 : 					NEW_SetSrcPixelPosition(kPPosCur);

  00236	8d 44 24 58	 lea	 eax, DWORD PTR _kPPosCur$3[esp+104]
  0023a	50		 push	 eax
  0023b	e8 00 00 00 00	 call	 ?NEW_SetSrcPixelPosition@CInstanceBase@@IAEXABUD3DXVECTOR3@@@Z ; CInstanceBase::NEW_SetSrcPixelPosition

; 1399 : 					NEW_SetDstPixelPosition(kPPosDst);

  00240	8d 44 24 4c	 lea	 eax, DWORD PTR _kPPosDst$2[esp+104]
  00244	8b cf		 mov	 ecx, edi
  00246	50		 push	 eax
  00247	e8 00 00 00 00	 call	 ?NEW_SetDstPixelPosition@CInstanceBase@@IAEXABUD3DXVECTOR3@@@Z ; CInstanceBase::NEW_SetDstPixelPosition

; 1400 : 					m_fDstRot=fRotDst;

  0024c	f3 0f 10 44 24
	1c		 movss	 xmm0, DWORD PTR _kCmdTop$1[esp+112]

; 1401 : 					m_isGoing = TRUE;
; 1402 : 					__EnableSkipCollision();

  00252	8b cf		 mov	 ecx, edi
  00254	f3 0f 11 87 c0
	01 00 00	 movss	 DWORD PTR [edi+448], xmm0
  0025c	c6 87 88 01 00
	00 01		 mov	 BYTE PTR [edi+392], 1
  00263	e8 00 00 00 00	 call	 ?__EnableSkipCollision@CInstanceBase@@IAEXXZ ; CInstanceBase::__EnableSkipCollision

; 1403 : 
; 1404 : 					m_kMovAfterFunc.eFunc = FUNC_COMBO;

  00268	c7 87 a8 01 00
	00 03 00 00 00	 mov	 DWORD PTR [edi+424], 3

; 1405 : 					m_kMovAfterFunc.uArg = uArg;
; 1406 : 
; 1407 : 					if (!IsWalking())
; 1408 : 						StartWalking();
; 1409 : 				}

  00272	e9 ea 02 00 00	 jmp	 $LN81@StateProce
$LN19@StateProce:

; 1410 : 				else
; 1411 : 				{
; 1412 : 					//Tracen("  ");
; 1413 : 
; 1414 : 					m_isGoing = FALSE;

  00277	c6 87 88 01 00
	00 00		 mov	 BYTE PTR [edi+392], 0

; 1415 : 
; 1416 : 					if (IsWalking())

  0027e	e8 00 00 00 00	 call	 ?IsWalking@CInstanceBase@@QAEHXZ ; CInstanceBase::IsWalking
  00283	85 c0		 test	 eax, eax
  00285	74 0f		 je	 SHORT $LN22@StateProce

; 1417 : 						EndWalking();

  00287	51		 push	 ecx
  00288	8b cf		 mov	 ecx, edi
  0028a	c7 04 24 9a 99
	19 3e		 mov	 DWORD PTR [esp], 1041865114 ; 3e19999aH
  00291	e8 00 00 00 00	 call	 ?EndWalking@CInstanceBase@@QAEXM@Z ; CInstanceBase::EndWalking
$LN22@StateProce:

; 1418 : 
; 1419 : 					SCRIPT_SetPixelPosition(kPPosDst.x, kPPosDst.y);

  00296	f3 0f 10 44 24
	50		 movss	 xmm0, DWORD PTR _kPPosDst$2[esp+108]
  0029c	83 ec 08	 sub	 esp, 8
  0029f	8b cf		 mov	 ecx, edi
  002a1	f3 0f 11 44 24
	04		 movss	 DWORD PTR [esp+4], xmm0
  002a7	f3 0f 10 44 24
	54		 movss	 xmm0, DWORD PTR _kPPosDst$2[esp+112]
  002ad	f3 0f 11 04 24	 movss	 DWORD PTR [esp], xmm0
  002b2	e8 00 00 00 00	 call	 ?SCRIPT_SetPixelPosition@CInstanceBase@@QAEXMM@Z ; CInstanceBase::SCRIPT_SetPixelPosition

; 1420 : 					RunComboAttack(fRotDst, uArg);

  002b7	ff 74 24 24	 push	 DWORD PTR _kCmdTop$1[esp+120]
  002bb	f3 0f 10 44 24
	20		 movss	 xmm0, DWORD PTR _kCmdTop$1[esp+116]
  002c1	51		 push	 ecx
  002c2	8b cf		 mov	 ecx, edi
  002c4	f3 0f 11 04 24	 movss	 DWORD PTR [esp], xmm0
  002c9	e8 00 00 00 00	 call	 ?RunComboAttack@CInstanceBase@@QAEXMK@Z ; CInstanceBase::RunComboAttack

; 1421 : 				}
; 1422 : 				break;

  002ce	e9 38 03 00 00	 jmp	 $LN41@StateProce
$LN23@StateProce:

; 1423 : 			}
; 1424 : 
; 1425 : 			case FUNC_ATTACK:
; 1426 : 			{
; 1427 : 				if (fDirLen>=50.0f)

  002d3	f3 0f 10 44 24
	10		 movss	 xmm0, DWORD PTR _fDirLen$1$[esp+104]
  002d9	8b cf		 mov	 ecx, edi
  002db	0f 2f 05 00 00
	00 00		 comiss	 xmm0, DWORD PTR __real@42480000
  002e2	72 41		 jb	 SHORT $LN24@StateProce

; 1428 : 				{
; 1429 : 					//NEW_GetSrcPixelPositionRef() = kPPosCur;
; 1430 : 					//NEW_GetDstPixelPositionRef() = kPPosDst;
; 1431 : 					NEW_SetSrcPixelPosition(kPPosCur);

  002e4	8d 44 24 58	 lea	 eax, DWORD PTR _kPPosCur$3[esp+104]
  002e8	50		 push	 eax
  002e9	e8 00 00 00 00	 call	 ?NEW_SetSrcPixelPosition@CInstanceBase@@IAEXABUD3DXVECTOR3@@@Z ; CInstanceBase::NEW_SetSrcPixelPosition

; 1432 : 					NEW_SetDstPixelPosition(kPPosDst);

  002ee	8d 44 24 4c	 lea	 eax, DWORD PTR _kPPosDst$2[esp+104]
  002f2	8b cf		 mov	 ecx, edi
  002f4	50		 push	 eax
  002f5	e8 00 00 00 00	 call	 ?NEW_SetDstPixelPosition@CInstanceBase@@IAEXABUD3DXVECTOR3@@@Z ; CInstanceBase::NEW_SetDstPixelPosition

; 1433 : 					m_fDstRot = fRotDst;

  002fa	f3 0f 10 44 24
	1c		 movss	 xmm0, DWORD PTR _kCmdTop$1[esp+112]

; 1434 : 					m_isGoing = TRUE;
; 1435 : 					__EnableSkipCollision();

  00300	8b cf		 mov	 ecx, edi
  00302	f3 0f 11 87 c0
	01 00 00	 movss	 DWORD PTR [edi+448], xmm0
  0030a	c6 87 88 01 00
	00 01		 mov	 BYTE PTR [edi+392], 1
  00311	e8 00 00 00 00	 call	 ?__EnableSkipCollision@CInstanceBase@@IAEXXZ ; CInstanceBase::__EnableSkipCollision

; 1436 : 					//m_isSyncMov = TRUE;
; 1437 : 
; 1438 : 					m_kMovAfterFunc.eFunc = FUNC_ATTACK;

  00316	c7 87 a8 01 00
	00 02 00 00 00	 mov	 DWORD PTR [edi+424], 2

; 1439 : 
; 1440 : 					if (!IsWalking())
; 1441 : 						StartWalking();
; 1442 : 
; 1443 : 					//Tracen("    ");
; 1444 : 				}

  00320	e9 46 02 00 00	 jmp	 $LN80@StateProce
$LN24@StateProce:

; 1445 : 				else
; 1446 : 				{
; 1447 : 					//Tracen("  ");
; 1448 : 
; 1449 : 					m_isGoing = FALSE;

  00325	c6 87 88 01 00
	00 00		 mov	 BYTE PTR [edi+392], 0

; 1450 : 
; 1451 : 					if (IsWalking())

  0032c	e8 00 00 00 00	 call	 ?IsWalking@CInstanceBase@@QAEHXZ ; CInstanceBase::IsWalking
  00331	85 c0		 test	 eax, eax
  00333	74 0f		 je	 SHORT $LN27@StateProce

; 1452 : 						EndWalking();

  00335	51		 push	 ecx
  00336	8b cf		 mov	 ecx, edi
  00338	c7 04 24 9a 99
	19 3e		 mov	 DWORD PTR [esp], 1041865114 ; 3e19999aH
  0033f	e8 00 00 00 00	 call	 ?EndWalking@CInstanceBase@@QAEXM@Z ; CInstanceBase::EndWalking
$LN27@StateProce:

; 1453 : 
; 1454 : 					SCRIPT_SetPixelPosition(kPPosDst.x, kPPosDst.y);

  00344	f3 0f 10 44 24
	50		 movss	 xmm0, DWORD PTR _kPPosDst$2[esp+108]
  0034a	83 ec 08	 sub	 esp, 8
  0034d	8b cf		 mov	 ecx, edi
  0034f	f3 0f 11 44 24
	04		 movss	 DWORD PTR [esp+4], xmm0
  00355	f3 0f 10 44 24
	54		 movss	 xmm0, DWORD PTR _kPPosDst$2[esp+112]
  0035b	f3 0f 11 04 24	 movss	 DWORD PTR [esp], xmm0
  00360	e8 00 00 00 00	 call	 ?SCRIPT_SetPixelPosition@CInstanceBase@@QAEXMM@Z ; CInstanceBase::SCRIPT_SetPixelPosition

; 1455 : 					BlendRotation(fRotDst);

  00365	f3 0f 10 44 24
	1c		 movss	 xmm0, DWORD PTR _kCmdTop$1[esp+112]
  0036b	83 ec 08	 sub	 esp, 8
  0036e	8b cf		 mov	 ecx, edi
  00370	c7 44 24 04 cd
	cc cc 3d	 mov	 DWORD PTR [esp+4], 1036831949 ; 3dcccccdH
  00378	f3 0f 11 04 24	 movss	 DWORD PTR [esp], xmm0
  0037d	e8 00 00 00 00	 call	 ?BlendRotation@CInstanceBase@@QAEXMM@Z ; CInstanceBase::BlendRotation

; 1456 : 
; 1457 : 					RunNormalAttack(fRotDst);

  00382	f3 0f 10 44 24
	1c		 movss	 xmm0, DWORD PTR _kCmdTop$1[esp+112]
  00388	51		 push	 ecx
  00389	8b cf		 mov	 ecx, edi
  0038b	f3 0f 11 04 24	 movss	 DWORD PTR [esp], xmm0
  00390	e8 00 00 00 00	 call	 ?RunNormalAttack@CInstanceBase@@QAEXM@Z ; CInstanceBase::RunNormalAttack

; 1458 : 
; 1459 : 					//Tracen("   ");
; 1460 : 				}
; 1461 : 				break;

  00395	e9 71 02 00 00	 jmp	 $LN41@StateProce
$LN28@StateProce:

; 1462 : 			}
; 1463 : 
; 1464 : 			case FUNC_MOB_SKILL:
; 1465 : 			{
; 1466 : 				if (fDirLen >= 50.0f)

  0039a	f3 0f 10 44 24
	10		 movss	 xmm0, DWORD PTR _fDirLen$1$[esp+104]
  003a0	8b cf		 mov	 ecx, edi
  003a2	0f 2f 05 00 00
	00 00		 comiss	 xmm0, DWORD PTR __real@42480000
  003a9	72 41		 jb	 SHORT $LN29@StateProce

; 1467 : 				{
; 1468 : 					NEW_SetSrcPixelPosition(kPPosCur);

  003ab	8d 44 24 58	 lea	 eax, DWORD PTR _kPPosCur$3[esp+104]
  003af	50		 push	 eax
  003b0	e8 00 00 00 00	 call	 ?NEW_SetSrcPixelPosition@CInstanceBase@@IAEXABUD3DXVECTOR3@@@Z ; CInstanceBase::NEW_SetSrcPixelPosition

; 1469 : 					NEW_SetDstPixelPosition(kPPosDst);

  003b5	8d 44 24 4c	 lea	 eax, DWORD PTR _kPPosDst$2[esp+104]
  003b9	8b cf		 mov	 ecx, edi
  003bb	50		 push	 eax
  003bc	e8 00 00 00 00	 call	 ?NEW_SetDstPixelPosition@CInstanceBase@@IAEXABUD3DXVECTOR3@@@Z ; CInstanceBase::NEW_SetDstPixelPosition

; 1470 : 					m_fDstRot = fRotDst;

  003c1	f3 0f 10 44 24
	1c		 movss	 xmm0, DWORD PTR _kCmdTop$1[esp+112]

; 1471 : 					m_isGoing = TRUE;
; 1472 : 					__EnableSkipCollision();

  003c7	8b cf		 mov	 ecx, edi
  003c9	f3 0f 11 87 c0
	01 00 00	 movss	 DWORD PTR [edi+448], xmm0
  003d1	c6 87 88 01 00
	00 01		 mov	 BYTE PTR [edi+392], 1
  003d8	e8 00 00 00 00	 call	 ?__EnableSkipCollision@CInstanceBase@@IAEXXZ ; CInstanceBase::__EnableSkipCollision

; 1473 : 
; 1474 : 					m_kMovAfterFunc.eFunc = FUNC_MOB_SKILL;

  003dd	c7 87 a8 01 00
	00 04 00 00 00	 mov	 DWORD PTR [edi+424], 4

; 1475 : 					m_kMovAfterFunc.uArg = uArg;
; 1476 : 
; 1477 : 					if (!IsWalking())
; 1478 : 						StartWalking();
; 1479 : 				}

  003e7	e9 75 01 00 00	 jmp	 $LN81@StateProce
$LN29@StateProce:

; 1480 : 				else
; 1481 : 				{
; 1482 : 					m_isGoing = FALSE;

  003ec	c6 87 88 01 00
	00 00		 mov	 BYTE PTR [edi+392], 0

; 1483 : 
; 1484 : 					if (IsWalking())

  003f3	e8 00 00 00 00	 call	 ?IsWalking@CInstanceBase@@QAEHXZ ; CInstanceBase::IsWalking
  003f8	85 c0		 test	 eax, eax
  003fa	74 0f		 je	 SHORT $LN32@StateProce

; 1485 : 						EndWalking();

  003fc	51		 push	 ecx
  003fd	8b cf		 mov	 ecx, edi
  003ff	c7 04 24 9a 99
	19 3e		 mov	 DWORD PTR [esp], 1041865114 ; 3e19999aH
  00406	e8 00 00 00 00	 call	 ?EndWalking@CInstanceBase@@QAEXM@Z ; CInstanceBase::EndWalking
$LN32@StateProce:

; 1486 : 
; 1487 : 					SCRIPT_SetPixelPosition(kPPosDst.x, kPPosDst.y);

  0040b	f3 0f 10 44 24
	50		 movss	 xmm0, DWORD PTR _kPPosDst$2[esp+108]
  00411	83 ec 08	 sub	 esp, 8
  00414	8b cf		 mov	 ecx, edi
  00416	f3 0f 11 44 24
	04		 movss	 DWORD PTR [esp+4], xmm0
  0041c	f3 0f 10 44 24
	54		 movss	 xmm0, DWORD PTR _kPPosDst$2[esp+112]
  00422	f3 0f 11 04 24	 movss	 DWORD PTR [esp], xmm0
  00427	e8 00 00 00 00	 call	 ?SCRIPT_SetPixelPosition@CInstanceBase@@QAEXMM@Z ; CInstanceBase::SCRIPT_SetPixelPosition

; 1488 : 					BlendRotation(fRotDst);

  0042c	f3 0f 10 44 24
	1c		 movss	 xmm0, DWORD PTR _kCmdTop$1[esp+112]
  00432	83 ec 08	 sub	 esp, 8
  00435	8b cf		 mov	 ecx, edi
  00437	c7 44 24 04 cd
	cc cc 3d	 mov	 DWORD PTR [esp+4], 1036831949 ; 3dcccccdH
  0043f	f3 0f 11 04 24	 movss	 DWORD PTR [esp], xmm0
  00444	e8 00 00 00 00	 call	 ?BlendRotation@CInstanceBase@@QAEXMM@Z ; CInstanceBase::BlendRotation

; 1489 : 
; 1490 : 					m_GraphicThingInstance.InterceptOnceMotion(CRaceMotionData::NAME_SPECIAL_1 + uArg);

  00449	8b 44 24 24	 mov	 eax, DWORD PTR _kCmdTop$1[esp+120]
  0044d	51		 push	 ecx
  0044e	c7 04 24 00 00
	80 3f		 mov	 DWORD PTR [esp], 1065353216 ; 3f800000H
  00455	83 c0 21	 add	 eax, 33			; 00000021H
  00458	6a 00		 push	 0
  0045a	51		 push	 ecx
  0045b	c7 04 24 cd cc
	cc 3d		 mov	 DWORD PTR [esp], 1036831949 ; 3dcccccdH
  00462	8d 8f d4 01 00
	00		 lea	 ecx, DWORD PTR [edi+468]
  00468	50		 push	 eax
  00469	e8 00 00 00 00	 call	 ?InterceptOnceMotion@CActorInstance@@QAE_NKMIM@Z ; CActorInstance::InterceptOnceMotion

; 1491 : 				}
; 1492 : 				break;

  0046e	e9 98 01 00 00	 jmp	 $LN41@StateProce
$LN33@StateProce:

; 1493 : 			}
; 1494 : 
; 1495 : 			case FUNC_EMOTION:
; 1496 : 			{
; 1497 : 				if (fDirLen>100.0f)

  00473	f3 0f 10 44 24
	10		 movss	 xmm0, DWORD PTR _fDirLen$1$[esp+104]
  00479	8b cf		 mov	 ecx, edi
  0047b	0f 2f 05 00 00
	00 00		 comiss	 xmm0, DWORD PTR __real@42c80000
  00482	76 75		 jbe	 SHORT $LN34@StateProce

; 1498 : 				{
; 1499 : 					NEW_SetSrcPixelPosition(kPPosCur);

  00484	8d 44 24 58	 lea	 eax, DWORD PTR _kPPosCur$3[esp+104]
  00488	50		 push	 eax
  00489	e8 00 00 00 00	 call	 ?NEW_SetSrcPixelPosition@CInstanceBase@@IAEXABUD3DXVECTOR3@@@Z ; CInstanceBase::NEW_SetSrcPixelPosition

; 1500 : 					NEW_SetDstPixelPosition(kPPosDst);

  0048e	8d 44 24 4c	 lea	 eax, DWORD PTR _kPPosDst$2[esp+104]
  00492	8b cf		 mov	 ecx, edi
  00494	50		 push	 eax
  00495	e8 00 00 00 00	 call	 ?NEW_SetDstPixelPosition@CInstanceBase@@IAEXABUD3DXVECTOR3@@@Z ; CInstanceBase::NEW_SetDstPixelPosition

; 1501 : 					m_fDstRot = fRotDst;

  0049a	f3 0f 10 44 24
	1c		 movss	 xmm0, DWORD PTR _kCmdTop$1[esp+112]

; 1502 : 					m_isGoing = TRUE;
; 1503 : 
; 1504 : 					if (__IsMainInstance())

  004a0	8b cf		 mov	 ecx, edi
  004a2	f3 0f 11 87 c0
	01 00 00	 movss	 DWORD PTR [edi+448], xmm0
  004aa	c6 87 88 01 00
	00 01		 mov	 BYTE PTR [edi+392], 1
  004b1	e8 00 00 00 00	 call	 ?__IsMainInstance@CInstanceBase@@IAE_NXZ ; CInstanceBase::__IsMainInstance
  004b6	84 c0		 test	 al, al
  004b8	74 07		 je	 SHORT $LN36@StateProce

; 1505 : 						__EnableSkipCollision();

  004ba	8b cf		 mov	 ecx, edi
  004bc	e8 00 00 00 00	 call	 ?__EnableSkipCollision@CInstanceBase@@IAEXXZ ; CInstanceBase::__EnableSkipCollision
$LN36@StateProce:

; 1506 : 
; 1507 : 					m_kMovAfterFunc.eFunc = FUNC_EMOTION;
; 1508 : 					m_kMovAfterFunc.uArg = uArg;

  004c1	8b 44 24 24	 mov	 eax, DWORD PTR _kCmdTop$1[esp+120]

; 1509 : 					m_kMovAfterFunc.uArgExpanded = uTargetVID;
; 1510 : 					m_kMovAfterFunc.kPosDst = kPPosDst;

  004c5	f3 0f 7e 44 24
	4c		 movq	 xmm0, QWORD PTR _kPPosDst$2[esp+104]
  004cb	89 87 ac 01 00
	00		 mov	 DWORD PTR [edi+428], eax
  004d1	8b 44 24 28	 mov	 eax, DWORD PTR _kCmdTop$1[esp+124]
  004d5	89 87 b0 01 00
	00		 mov	 DWORD PTR [edi+432], eax
  004db	8b 44 24 54	 mov	 eax, DWORD PTR _kPPosDst$2[esp+112]
  004df	66 0f d6 87 b4
	01 00 00	 movq	 QWORD PTR [edi+436], xmm0
  004e7	c7 87 a8 01 00
	00 05 00 00 00	 mov	 DWORD PTR [edi+424], 5
  004f1	89 87 bc 01 00
	00		 mov	 DWORD PTR [edi+444], eax

; 1511 : 
; 1512 : 					if (!IsWalking())
; 1513 : 						StartWalking();
; 1514 : 				}

  004f7	eb 72		 jmp	 SHORT $LN80@StateProce
$LN34@StateProce:

; 1515 : 				else
; 1516 : 				{
; 1517 : 					__ProcessFunctionEmotion(uArg, uTargetVID, kPPosDst);

  004f9	8d 44 24 4c	 lea	 eax, DWORD PTR _kPPosDst$2[esp+104]
  004fd	50		 push	 eax
  004fe	ff 74 24 2c	 push	 DWORD PTR _kCmdTop$1[esp+128]
  00502	ff 74 24 2c	 push	 DWORD PTR _kCmdTop$1[esp+128]
  00506	e8 00 00 00 00	 call	 ?__ProcessFunctionEmotion@CInstanceBase@@IAEXKKABUD3DXVECTOR3@@@Z ; CInstanceBase::__ProcessFunctionEmotion

; 1518 : 				}
; 1519 : 				break;

  0050b	e9 fb 00 00 00	 jmp	 $LN41@StateProce
$LN38@StateProce:

; 1520 : 			}
; 1521 : 
; 1522 : 			default:
; 1523 : 			{
; 1524 : 				if (eFunc & FUNC_SKILL)

  00510	84 db		 test	 bl, bl
  00512	0f 89 f3 00 00
	00		 jns	 $LN41@StateProce

; 1525 : 				{
; 1526 : 					if (fDirLen >= 50.0f)

  00518	f3 0f 10 44 24
	10		 movss	 xmm0, DWORD PTR _fDirLen$1$[esp+104]
  0051e	8b cf		 mov	 ecx, edi
  00520	0f 2f 05 00 00
	00 00		 comiss	 xmm0, DWORD PTR __real@42480000
  00527	72 5d		 jb	 SHORT $LN40@StateProce

; 1527 : 					{
; 1528 : 						//NEW_GetSrcPixelPositionRef() = kPPosCur;
; 1529 : 						//NEW_GetDstPixelPositionRef() = kPPosDst;
; 1530 : 						NEW_SetSrcPixelPosition(kPPosCur);

  00529	8d 44 24 58	 lea	 eax, DWORD PTR _kPPosCur$3[esp+104]
  0052d	50		 push	 eax
  0052e	e8 00 00 00 00	 call	 ?NEW_SetSrcPixelPosition@CInstanceBase@@IAEXABUD3DXVECTOR3@@@Z ; CInstanceBase::NEW_SetSrcPixelPosition

; 1531 : 						NEW_SetDstPixelPosition(kPPosDst);

  00533	8d 44 24 4c	 lea	 eax, DWORD PTR _kPPosDst$2[esp+104]
  00537	8b cf		 mov	 ecx, edi
  00539	50		 push	 eax
  0053a	e8 00 00 00 00	 call	 ?NEW_SetDstPixelPosition@CInstanceBase@@IAEXABUD3DXVECTOR3@@@Z ; CInstanceBase::NEW_SetDstPixelPosition

; 1532 : 						m_fDstRot = fRotDst;

  0053f	f3 0f 10 44 24
	1c		 movss	 xmm0, DWORD PTR _kCmdTop$1[esp+112]

; 1533 : 						m_isGoing = TRUE;
; 1534 : 						//m_isSyncMov = TRUE;
; 1535 : 						__EnableSkipCollision();

  00545	8b cf		 mov	 ecx, edi
  00547	f3 0f 11 87 c0
	01 00 00	 movss	 DWORD PTR [edi+448], xmm0
  0054f	c6 87 88 01 00
	00 01		 mov	 BYTE PTR [edi+392], 1
  00556	e8 00 00 00 00	 call	 ?__EnableSkipCollision@CInstanceBase@@IAEXXZ ; CInstanceBase::__EnableSkipCollision

; 1536 : 
; 1537 : 						m_kMovAfterFunc.eFunc = eFunc;

  0055b	89 9f a8 01 00
	00		 mov	 DWORD PTR [edi+424], ebx
$LN81@StateProce:
; File C:\Program Files (x86)\Microsoft Visual Studio\2019\Community\VC\Tools\MSVC\14.28.29333\include\list

; 1200 :         return _Mypair._Myval2._Mysize == 0;

  00561	8b 44 24 24	 mov	 eax, DWORD PTR _kCmdTop$1[esp+120]
  00565	89 87 ac 01 00
	00		 mov	 DWORD PTR [edi+428], eax
$LN80@StateProce:
  0056b	8b cf		 mov	 ecx, edi
  0056d	e8 00 00 00 00	 call	 ?IsWalking@CInstanceBase@@QAEHXZ ; CInstanceBase::IsWalking
  00572	85 c0		 test	 eax, eax
  00574	0f 85 91 00 00
	00		 jne	 $LN41@StateProce
  0057a	8b cf		 mov	 ecx, edi
  0057c	e8 00 00 00 00	 call	 ?StartWalking@CInstanceBase@@IAEXXZ ; CInstanceBase::StartWalking
  00581	e9 85 00 00 00	 jmp	 $LN41@StateProce
$LN40@StateProce:
; File D:\Metin2 Server Files\mainline\SRC_2014\Metin2Client\UserInterface\InstanceBase.cpp

; 1549 : 						m_isGoing = FALSE;

  00586	c6 87 88 01 00
	00 00		 mov	 BYTE PTR [edi+392], 0

; 1550 : 
; 1551 : 						if (IsWalking())

  0058d	e8 00 00 00 00	 call	 ?IsWalking@CInstanceBase@@QAEHXZ ; CInstanceBase::IsWalking
  00592	85 c0		 test	 eax, eax
  00594	74 0f		 je	 SHORT $LN43@StateProce

; 1552 : 							EndWalking();

  00596	51		 push	 ecx
  00597	8b cf		 mov	 ecx, edi
  00599	c7 04 24 9a 99
	19 3e		 mov	 DWORD PTR [esp], 1041865114 ; 3e19999aH
  005a0	e8 00 00 00 00	 call	 ?EndWalking@CInstanceBase@@QAEXM@Z ; CInstanceBase::EndWalking
$LN43@StateProce:

; 1553 : 
; 1554 : 						SCRIPT_SetPixelPosition(kPPosDst.x, kPPosDst.y);

  005a5	f3 0f 10 44 24
	50		 movss	 xmm0, DWORD PTR _kPPosDst$2[esp+108]
  005ab	83 ec 08	 sub	 esp, 8
  005ae	8b cf		 mov	 ecx, edi
  005b0	f3 0f 11 44 24
	04		 movss	 DWORD PTR [esp+4], xmm0
  005b6	f3 0f 10 44 24
	54		 movss	 xmm0, DWORD PTR _kPPosDst$2[esp+112]
  005bc	f3 0f 11 04 24	 movss	 DWORD PTR [esp], xmm0
  005c1	e8 00 00 00 00	 call	 ?SCRIPT_SetPixelPosition@CInstanceBase@@QAEXMM@Z ; CInstanceBase::SCRIPT_SetPixelPosition

; 1555 : 						SetAdvancingRotation(fRotDst);

  005c6	f3 0f 10 44 24
	1c		 movss	 xmm0, DWORD PTR _kCmdTop$1[esp+112]
  005cc	51		 push	 ecx
  005cd	8b cf		 mov	 ecx, edi
  005cf	f3 0f 11 04 24	 movss	 DWORD PTR [esp], xmm0
  005d4	e8 00 00 00 00	 call	 ?SetAdvancingRotation@CInstanceBase@@QAEXM@Z ; CInstanceBase::SetAdvancingRotation

; 1556 : 						SetRotation(fRotDst);

  005d9	f3 0f 10 44 24
	1c		 movss	 xmm0, DWORD PTR _kCmdTop$1[esp+112]
  005df	51		 push	 ecx
  005e0	8b cf		 mov	 ecx, edi
  005e2	f3 0f 11 04 24	 movss	 DWORD PTR [esp], xmm0
  005e7	e8 00 00 00 00	 call	 ?SetRotation@CInstanceBase@@QAEXM@Z ; CInstanceBase::SetRotation

; 1557 : 
; 1558 : 						NEW_UseSkill(0, eFunc & 0x7f, uArg&0x0f, (uArg>>4) ? true : false);

  005ec	8b 4c 24 24	 mov	 ecx, DWORD PTR _kCmdTop$1[esp+120]
  005f0	83 f9 10	 cmp	 ecx, 16			; 00000010H
  005f3	0f 93 c0	 setae	 al
  005f6	83 e1 0f	 and	 ecx, 15			; 0000000fH
  005f9	0f b6 c0	 movzx	 eax, al
  005fc	83 e3 7f	 and	 ebx, 127		; 0000007fH
  005ff	50		 push	 eax
  00600	51		 push	 ecx
  00601	53		 push	 ebx
  00602	6a 00		 push	 0
  00604	8b cf		 mov	 ecx, edi
  00606	e8 00 00 00 00	 call	 ?NEW_UseSkill@CInstanceBase@@QAE_NIII_N@Z ; CInstanceBase::NEW_UseSkill
$LN41@StateProce:
; File C:\Program Files (x86)\Microsoft Visual Studio\2019\Community\VC\Tools\MSVC\14.28.29333\include\list

; 1200 :         return _Mypair._Myval2._Mysize == 0;

  0060b	83 bf 94 06 00
	00 00		 cmp	 DWORD PTR [edi+1684], 0
; File D:\Metin2 Server Files\mainline\SRC_2014\Metin2Client\UserInterface\InstanceBase.cpp

; 1281 : 		if (m_kQue_kCmdNew.empty())

  00612	0f 85 18 fa ff
	ff		 jne	 $LL2@StateProce

; 1559 : 						//Tracen("   ");
; 1560 : 					}
; 1561 : 				}
; 1562 : 				break;
; 1563 : 			}
; 1564 : 		}
; 1565 : 	}
; 1566 : }

  00618	5f		 pop	 edi
  00619	5e		 pop	 esi
  0061a	5b		 pop	 ebx
  0061b	8b 4c 24 58	 mov	 ecx, DWORD PTR __$ArrayPad$[esp+92]
  0061f	33 cc		 xor	 ecx, esp
  00621	e8 00 00 00 00	 call	 @__security_check_cookie@4
  00626	8b e5		 mov	 esp, ebp
  00628	5d		 pop	 ebp
  00629	c3		 ret	 0
$LN73@StateProce:

; 1319 : 		{
; 1320 : 			Lognf(0, "vid=%d      IsDead=%d, IsKnockDown=%d", uVID, m_GraphicThingInstance.IsDead(), m_GraphicThingInstance.IsKnockDown());

  0062a	8d 8f d4 01 00
	00		 lea	 ecx, DWORD PTR [edi+468]
  00630	e8 00 00 00 00	 call	 ?IsKnockDown@CActorInstance@@QAEHXZ ; CActorInstance::IsKnockDown
  00635	50		 push	 eax
  00636	8d 8f d4 01 00
	00		 lea	 ecx, DWORD PTR [edi+468]
  0063c	e8 00 00 00 00	 call	 ?IsDead@CActorInstance@@QAEHXZ ; CActorInstance::IsDead
  00641	50		 push	 eax
  00642	53		 push	 ebx
  00643	68 00 00 00 00	 push	 OFFSET ??_C@_0DM@EIDAANLK@vid?$DN?$CFd?5?$LP?r?A?w?$MA?O?5?$LM?v?5?$LO?x?$LE?B?5?$LL?s?E?B?$LG?s?5?$LN?$LK@
  00648	6a 00		 push	 0
  0064a	e8 00 00 00 00	 call	 ?Lognf@@YAXIPBDZZ	; Lognf
  0064f	83 c4 14	 add	 esp, 20			; 00000014H
$LN74@StateProce:

; 1559 : 						//Tracen("   ");
; 1560 : 					}
; 1561 : 				}
; 1562 : 				break;
; 1563 : 			}
; 1564 : 		}
; 1565 : 	}
; 1566 : }

  00652	8b 4c 24 64	 mov	 ecx, DWORD PTR __$ArrayPad$[esp+104]
  00656	5f		 pop	 edi
  00657	5e		 pop	 esi
  00658	5b		 pop	 ebx
  00659	33 cc		 xor	 ecx, esp
  0065b	e8 00 00 00 00	 call	 @__security_check_cookie@4
  00660	8b e5		 mov	 esp, ebp
  00662	5d		 pop	 ebp
  00663	c3		 ret	 0
$LN77@StateProce:
  00664	00 00 00 00	 DD	 $LN10@StateProce
  00668	00 00 00 00	 DD	 $LN15@StateProce
  0066c	00 00 00 00	 DD	 $LN23@StateProce
  00670	00 00 00 00	 DD	 $LN18@StateProce
  00674	00 00 00 00	 DD	 $LN28@StateProce
  00678	00 00 00 00	 DD	 $LN33@StateProce
?StateProcess@CInstanceBase@@IAEXXZ ENDP		; CInstanceBase::StateProcess
_TEXT	ENDS
; Function compile flags: /Ogtp
; File D:\Metin2 Server Files\mainline\SRC_2014\Metin2Client\UserInterface\InstanceBase.cpp
; File D:\Metin2 Server Files\mainline\SRC_2014\M2Data\include\d3dx8math.inl
; File D:\Metin2 Server Files\mainline\SRC_2014\Metin2Client\UserInterface\InstanceBase.cpp
; File D:\Metin2 Server Files\mainline\SRC_2014\M2Data\include\d3dx8math.inl
; File D:\Metin2 Server Files\mainline\SRC_2014\Metin2Client\UserInterface\InstanceBase.cpp
; File D:\Metin2 Server Files\mainline\SRC_2014\M2Data\include\d3dx8math.inl
; File D:\Metin2 Server Files\mainline\SRC_2014\Metin2Client\UserInterface\InstanceBase.cpp
; File D:\Metin2 Server Files\mainline\SRC_2014\M2Data\include\d3dx8math.inl
; File D:\Metin2 Server Files\mainline\SRC_2014\Metin2Client\UserInterface\InstanceBase.cpp
; File D:\Metin2 Server Files\mainline\SRC_2014\M2Data\include\d3dx8math.inl
; File D:\Metin2 Server Files\mainline\SRC_2014\Metin2Client\UserInterface\InstanceBase.cpp
; File C:\Program Files (x86)\Windows Kits\10\Include\10.0.18362.0\ucrt\corecrt_math.h
; File D:\Metin2 Server Files\mainline\SRC_2014\Metin2Client\UserInterface\InstanceBase.cpp
; File C:\Program Files (x86)\Windows Kits\10\Include\10.0.18362.0\ucrt\corecrt_math.h
; File D:\Metin2 Server Files\mainline\SRC_2014\Metin2Client\UserInterface\InstanceBase.cpp
; File C:\Program Files (x86)\Windows Kits\10\Include\10.0.18362.0\ucrt\corecrt_math.h
; File D:\Metin2 Server Files\mainline\SRC_2014\Metin2Client\UserInterface\InstanceBase.cpp
; File C:\Program Files (x86)\Windows Kits\10\Include\10.0.18362.0\ucrt\corecrt_math.h
; File D:\Metin2 Server Files\mainline\SRC_2014\Metin2Client\UserInterface\InstanceBase.cpp
; File C:\Program Files (x86)\Windows Kits\10\Include\10.0.18362.0\ucrt\corecrt_math.h
; File D:\Metin2 Server Files\mainline\SRC_2014\Metin2Client\UserInterface\InstanceBase.cpp
; File C:\Program Files (x86)\Windows Kits\10\Include\10.0.18362.0\ucrt\corecrt_math.h
; File D:\Metin2 Server Files\mainline\SRC_2014\Metin2Client\UserInterface\InstanceBase.cpp
; File C:\Program Files (x86)\Windows Kits\10\Include\10.0.18362.0\ucrt\corecrt_math.h
; File D:\Metin2 Server Files\mainline\SRC_2014\Metin2Client\UserInterface\InstanceBase.cpp
; File C:\Program Files (x86)\Windows Kits\10\Include\10.0.18362.0\ucrt\corecrt_math.h
; File D:\Metin2 Server Files\mainline\SRC_2014\Metin2Client\UserInterface\InstanceBase.cpp
; File C:\Program Files (x86)\Windows Kits\10\Include\10.0.18362.0\ucrt\corecrt_math.h
; File D:\Metin2 Server Files\mainline\SRC_2014\Metin2Client\UserInterface\InstanceBase.cpp
; File C:\Program Files (x86)\Windows Kits\10\Include\10.0.18362.0\ucrt\corecrt_math.h
; File D:\Metin2 Server Files\mainline\SRC_2014\Metin2Client\UserInterface\InstanceBase.cpp
;	COMDAT ?MovementProcess@CInstanceBase@@IAEXXZ
_TEXT	SEGMENT
tv799 = -44						; size = 4
_fRotation$1 = -44					; size = 4
tv1007 = -40						; size = 8
tv995 = -40						; size = 8
tv894 = -40						; size = 4
tv881 = -40						; size = 4
tv873 = -40						; size = 4
tv866 = -40						; size = 4
tv837 = -40						; size = 4
tv591 = -40						; size = 4
tv577 = -40						; size = 4
_fDstRot$2 = -40					; size = 4
_fDstRot$3 = -40					; size = 4
_fDstRot$4 = -40					; size = 4
_fNextLen$1$ = -32					; size = 4
tv798 = -32						; size = 4
_fAdvancingRotation$5 = -32				; size = 4
_fRotation$1$ = -28					; size = 4
_fRestLen$1$ = -28					; size = 4
tv787 = -28						; size = 4
_fCurLen$1$ = -24					; size = 4
tv789 = -24						; size = 4
_fDustDistance$6 = -24					; size = 4
_fTotalLen$1$ = -20					; size = 4
tv838 = -20						; size = 4
_kPPosCur$ = -16					; size = 12
__$ArrayPad$ = -4					; size = 4
?MovementProcess@CInstanceBase@@IAEXXZ PROC		; CInstanceBase::MovementProcess, COMDAT
; _this$ = ecx

; 1570 : {

  00000	55		 push	 ebp
  00001	8b ec		 mov	 ebp, esp
  00003	83 e4 f8	 and	 esp, -8			; fffffff8H
  00006	83 ec 2c	 sub	 esp, 44			; 0000002cH
  00009	a1 00 00 00 00	 mov	 eax, DWORD PTR ___security_cookie
  0000e	33 c4		 xor	 eax, esp
  00010	89 44 24 28	 mov	 DWORD PTR __$ArrayPad$[esp+44], eax
  00014	53		 push	 ebx
  00015	56		 push	 esi
  00016	57		 push	 edi

; 1571 : 	TPixelPosition kPPosCur;
; 1572 : 	NEW_GetPixelPosition(&kPPosCur);

  00017	8d 44 24 28	 lea	 eax, DWORD PTR _kPPosCur$[esp+56]
  0001b	8b f9		 mov	 edi, ecx
  0001d	50		 push	 eax
  0001e	e8 00 00 00 00	 call	 ?NEW_GetPixelPosition@CInstanceBase@@QAEXPAUD3DXVECTOR3@@@Z ; CInstanceBase::NEW_GetPixelPosition

; 1573 : 
; 1574 : 	//   y - .
; 1575 : 
; 1576 : 	TPixelPosition kPPosNext;
; 1577 : 	{
; 1578 : 		const D3DXVECTOR3 & c_rkV3Mov = m_GraphicThingInstance.GetMovementVectorRef();

  00023	8d 9f d4 01 00
	00		 lea	 ebx, DWORD PTR [edi+468]
  00029	8b cb		 mov	 ecx, ebx
  0002b	e8 00 00 00 00	 call	 ?GetMovementVectorRef@CActorInstance@@QAEABUD3DXVECTOR3@@XZ ; CActorInstance::GetMovementVectorRef

; 1579 : 
; 1580 : 		kPPosNext.x = kPPosCur.x + (+c_rkV3Mov.x);
; 1581 : 		kPPosNext.y = kPPosCur.y + (-c_rkV3Mov.y);
; 1582 : 		kPPosNext.z = kPPosCur.z + (+c_rkV3Mov.z);
; 1583 : 	}
; 1584 : 
; 1585 : 	TPixelPosition kPPosDeltaSC = kPPosCur - NEW_GetSrcPixelPositionRef();

  00030	8b cf		 mov	 ecx, edi
  00032	f3 0f 10 00	 movss	 xmm0, DWORD PTR [eax]
  00036	f3 0f 58 44 24
	28		 addss	 xmm0, DWORD PTR _kPPosCur$[esp+56]
  0003c	f3 0f 11 44 24
	0c		 movss	 DWORD PTR tv799[esp+56], xmm0
  00042	f3 0f 10 44 24
	2c		 movss	 xmm0, DWORD PTR _kPPosCur$[esp+60]
  00048	f3 0f 5c 40 04	 subss	 xmm0, DWORD PTR [eax+4]
  0004d	f3 0f 11 44 24
	18		 movss	 DWORD PTR tv798[esp+56], xmm0
  00053	e8 00 00 00 00	 call	 ?NEW_GetSrcPixelPositionRef@CInstanceBase@@IAEABUD3DXVECTOR3@@XZ ; CInstanceBase::NEW_GetSrcPixelPositionRef
; File D:\Metin2 Server Files\mainline\SRC_2014\M2Data\include\d3dx8math.inl

; 263  :     return D3DXVECTOR3(x - v.x, y - v.y, z - v.z);

  00058	f3 0f 10 44 24
	28		 movss	 xmm0, DWORD PTR _kPPosCur$[esp+56]
; File D:\Metin2 Server Files\mainline\SRC_2014\Metin2Client\UserInterface\InstanceBase.cpp

; 1586 : 	TPixelPosition kPPosDeltaSN = kPPosNext - NEW_GetSrcPixelPositionRef();

  0005e	8b cf		 mov	 ecx, edi
; File D:\Metin2 Server Files\mainline\SRC_2014\M2Data\include\d3dx8math.inl

; 263  :     return D3DXVECTOR3(x - v.x, y - v.y, z - v.z);

  00060	f3 0f 5c 00	 subss	 xmm0, DWORD PTR [eax]
  00064	f3 0f 11 44 24
	1c		 movss	 DWORD PTR tv787[esp+56], xmm0
  0006a	f3 0f 10 44 24
	2c		 movss	 xmm0, DWORD PTR _kPPosCur$[esp+60]
  00070	f3 0f 5c 40 04	 subss	 xmm0, DWORD PTR [eax+4]
  00075	f3 0f 11 44 24
	20		 movss	 DWORD PTR tv789[esp+56], xmm0
; File D:\Metin2 Server Files\mainline\SRC_2014\Metin2Client\UserInterface\InstanceBase.cpp

; 1586 : 	TPixelPosition kPPosDeltaSN = kPPosNext - NEW_GetSrcPixelPositionRef();

  0007b	e8 00 00 00 00	 call	 ?NEW_GetSrcPixelPositionRef@CInstanceBase@@IAEABUD3DXVECTOR3@@XZ ; CInstanceBase::NEW_GetSrcPixelPositionRef
; File D:\Metin2 Server Files\mainline\SRC_2014\M2Data\include\d3dx8math.inl

; 263  :     return D3DXVECTOR3(x - v.x, y - v.y, z - v.z);

  00080	f3 0f 10 44 24
	0c		 movss	 xmm0, DWORD PTR tv799[esp+56]
; File D:\Metin2 Server Files\mainline\SRC_2014\Metin2Client\UserInterface\InstanceBase.cpp

; 1587 : 	TPixelPosition kPPosDeltaSD = NEW_GetDstPixelPositionRef() - NEW_GetSrcPixelPositionRef();

  00086	8b cf		 mov	 ecx, edi
; File D:\Metin2 Server Files\mainline\SRC_2014\M2Data\include\d3dx8math.inl

; 263  :     return D3DXVECTOR3(x - v.x, y - v.y, z - v.z);

  00088	f3 0f 5c 00	 subss	 xmm0, DWORD PTR [eax]
  0008c	f3 0f 11 44 24
	0c		 movss	 DWORD PTR tv799[esp+56], xmm0
  00092	f3 0f 10 44 24
	18		 movss	 xmm0, DWORD PTR tv798[esp+56]
  00098	f3 0f 5c 40 04	 subss	 xmm0, DWORD PTR [eax+4]
  0009d	f3 0f 11 44 24
	18		 movss	 DWORD PTR tv798[esp+56], xmm0
; File D:\Metin2 Server Files\mainline\SRC_2014\Metin2Client\UserInterface\InstanceBase.cpp

; 1587 : 	TPixelPosition kPPosDeltaSD = NEW_GetDstPixelPositionRef() - NEW_GetSrcPixelPositionRef();

  000a3	e8 00 00 00 00	 call	 ?NEW_GetSrcPixelPositionRef@CInstanceBase@@IAEABUD3DXVECTOR3@@XZ ; CInstanceBase::NEW_GetSrcPixelPositionRef
  000a8	8b cf		 mov	 ecx, edi
  000aa	8b f0		 mov	 esi, eax
  000ac	e8 00 00 00 00	 call	 ?NEW_GetDstPixelPositionRef@CInstanceBase@@QAEABUD3DXVECTOR3@@XZ ; CInstanceBase::NEW_GetDstPixelPositionRef

; 1589 : 	float fCurLen = sqrtf(kPPosDeltaSC.x * kPPosDeltaSC.x + kPPosDeltaSC.y * kPPosDeltaSC.y);

  000b1	f3 0f 10 4c 24
	1c		 movss	 xmm1, DWORD PTR tv787[esp+56]
  000b7	f3 0f 59 c9	 mulss	 xmm1, xmm1
; File D:\Metin2 Server Files\mainline\SRC_2014\M2Data\include\d3dx8math.inl

; 263  :     return D3DXVECTOR3(x - v.x, y - v.y, z - v.z);

  000bb	f3 0f 10 00	 movss	 xmm0, DWORD PTR [eax]
  000bf	f3 0f 5c 06	 subss	 xmm0, DWORD PTR [esi]
  000c3	f3 0f 11 44 24
	10		 movss	 DWORD PTR tv837[esp+56], xmm0
  000c9	f3 0f 10 40 04	 movss	 xmm0, DWORD PTR [eax+4]
  000ce	f3 0f 5c 46 04	 subss	 xmm0, DWORD PTR [esi+4]
  000d3	f3 0f 11 44 24
	24		 movss	 DWORD PTR tv838[esp+56], xmm0

; 181  :     y = fy;

  000d9	f3 0f 10 44 24
	20		 movss	 xmm0, DWORD PTR tv789[esp+56]
  000df	f3 0f 59 c0	 mulss	 xmm0, xmm0
; File D:\Metin2 Server Files\mainline\SRC_2014\Metin2Client\UserInterface\InstanceBase.cpp

; 1589 : 	float fCurLen = sqrtf(kPPosDeltaSC.x * kPPosDeltaSC.x + kPPosDeltaSC.y * kPPosDeltaSC.y);

  000e3	f3 0f 58 c1	 addss	 xmm0, xmm1
  000e7	0f 57 c9	 xorps	 xmm1, xmm1
; File C:\Program Files (x86)\Windows Kits\10\Include\10.0.18362.0\ucrt\corecrt_math.h

; 760  :             return (float)sqrt(_X);

  000ea	0f 5a c0	 cvtps2pd xmm0, xmm0
  000ed	66 0f 2e c8	 ucomisd xmm1, xmm0
  000f1	77 06		 ja	 SHORT $LN68@MovementPr
  000f3	f2 0f 51 c0	 sqrtsd	 xmm0, xmm0
  000f7	eb 05		 jmp	 SHORT $LN69@MovementPr
$LN68@MovementPr:
  000f9	e8 00 00 00 00	 call	 __libm_sse2_sqrt_precise
$LN69@MovementPr:
; File D:\Metin2 Server Files\mainline\SRC_2014\Metin2Client\UserInterface\InstanceBase.cpp

; 1590 : 	float fNextLen = sqrtf(kPPosDeltaSN.x * kPPosDeltaSN.x + kPPosDeltaSN.y * kPPosDeltaSN.y);

  000fe	f3 0f 10 4c 24
	0c		 movss	 xmm1, DWORD PTR tv799[esp+56]
; File C:\Program Files (x86)\Windows Kits\10\Include\10.0.18362.0\ucrt\corecrt_math.h

; 760  :             return (float)sqrt(_X);

  00104	f2 0f 5a c0	 cvtsd2ss xmm0, xmm0
; File D:\Metin2 Server Files\mainline\SRC_2014\Metin2Client\UserInterface\InstanceBase.cpp

; 1590 : 	float fNextLen = sqrtf(kPPosDeltaSN.x * kPPosDeltaSN.x + kPPosDeltaSN.y * kPPosDeltaSN.y);

  00108	f3 0f 59 c9	 mulss	 xmm1, xmm1
; File C:\Program Files (x86)\Windows Kits\10\Include\10.0.18362.0\ucrt\corecrt_math.h

; 760  :             return (float)sqrt(_X);

  0010c	f3 0f 11 44 24
	20		 movss	 DWORD PTR _fCurLen$1$[esp+56], xmm0
; File D:\Metin2 Server Files\mainline\SRC_2014\Metin2Client\UserInterface\InstanceBase.cpp

; 1589 : 	float fCurLen = sqrtf(kPPosDeltaSC.x * kPPosDeltaSC.x + kPPosDeltaSC.y * kPPosDeltaSC.y);

  00112	f3 0f 10 44 24
	18		 movss	 xmm0, DWORD PTR tv798[esp+56]
  00118	f3 0f 59 c0	 mulss	 xmm0, xmm0

; 1590 : 	float fNextLen = sqrtf(kPPosDeltaSN.x * kPPosDeltaSN.x + kPPosDeltaSN.y * kPPosDeltaSN.y);

  0011c	f3 0f 58 c8	 addss	 xmm1, xmm0
; File C:\Program Files (x86)\Windows Kits\10\Include\10.0.18362.0\ucrt\corecrt_math.h

; 760  :             return (float)sqrt(_X);

  00120	0f 5a c1	 cvtps2pd xmm0, xmm1
  00123	0f 57 c9	 xorps	 xmm1, xmm1
  00126	66 0f 2e c8	 ucomisd xmm1, xmm0
  0012a	77 06		 ja	 SHORT $LN70@MovementPr
  0012c	f2 0f 51 c0	 sqrtsd	 xmm0, xmm0
  00130	eb 05		 jmp	 SHORT $LN71@MovementPr
$LN70@MovementPr:
  00132	e8 00 00 00 00	 call	 __libm_sse2_sqrt_precise
$LN71@MovementPr:
; File D:\Metin2 Server Files\mainline\SRC_2014\Metin2Client\UserInterface\InstanceBase.cpp

; 1591 : 	float fTotalLen = sqrtf(kPPosDeltaSD.x * kPPosDeltaSD.x + kPPosDeltaSD.y * kPPosDeltaSD.y);

  00137	f3 0f 10 4c 24
	10		 movss	 xmm1, DWORD PTR tv837[esp+56]
; File C:\Program Files (x86)\Windows Kits\10\Include\10.0.18362.0\ucrt\corecrt_math.h

; 760  :             return (float)sqrt(_X);

  0013d	f2 0f 5a c0	 cvtsd2ss xmm0, xmm0
; File D:\Metin2 Server Files\mainline\SRC_2014\Metin2Client\UserInterface\InstanceBase.cpp

; 1591 : 	float fTotalLen = sqrtf(kPPosDeltaSD.x * kPPosDeltaSD.x + kPPosDeltaSD.y * kPPosDeltaSD.y);

  00141	f3 0f 59 c9	 mulss	 xmm1, xmm1
; File C:\Program Files (x86)\Windows Kits\10\Include\10.0.18362.0\ucrt\corecrt_math.h

; 760  :             return (float)sqrt(_X);

  00145	f3 0f 11 44 24
	18		 movss	 DWORD PTR _fNextLen$1$[esp+56], xmm0
; File D:\Metin2 Server Files\mainline\SRC_2014\Metin2Client\UserInterface\InstanceBase.cpp

; 1590 : 	float fNextLen = sqrtf(kPPosDeltaSN.x * kPPosDeltaSN.x + kPPosDeltaSN.y * kPPosDeltaSN.y);

  0014b	f3 0f 10 44 24
	24		 movss	 xmm0, DWORD PTR tv838[esp+56]
  00151	f3 0f 59 c0	 mulss	 xmm0, xmm0

; 1591 : 	float fTotalLen = sqrtf(kPPosDeltaSD.x * kPPosDeltaSD.x + kPPosDeltaSD.y * kPPosDeltaSD.y);

  00155	f3 0f 58 c1	 addss	 xmm0, xmm1
  00159	0f 57 c9	 xorps	 xmm1, xmm1
; File C:\Program Files (x86)\Windows Kits\10\Include\10.0.18362.0\ucrt\corecrt_math.h

; 760  :             return (float)sqrt(_X);

  0015c	0f 5a c0	 cvtps2pd xmm0, xmm0
  0015f	66 0f 2e c8	 ucomisd xmm1, xmm0
  00163	77 06		 ja	 SHORT $LN72@MovementPr
  00165	f2 0f 51 c0	 sqrtsd	 xmm0, xmm0
  00169	eb 05		 jmp	 SHORT $LN73@MovementPr
$LN72@MovementPr:
  0016b	e8 00 00 00 00	 call	 __libm_sse2_sqrt_precise
$LN73@MovementPr:
  00170	f2 0f 5a c0	 cvtsd2ss xmm0, xmm0
; File D:\Metin2 Server Files\mainline\SRC_2014\Metin2Client\UserInterface\InstanceBase.cpp

; 1594 : 	if (__IsMainInstance())

  00174	8b cf		 mov	 ecx, edi
; File C:\Program Files (x86)\Windows Kits\10\Include\10.0.18362.0\ucrt\corecrt_math.h

; 760  :             return (float)sqrt(_X);

  00176	f3 0f 11 44 24
	24		 movss	 DWORD PTR _fTotalLen$1$[esp+56], xmm0
; File D:\Metin2 Server Files\mainline\SRC_2014\Metin2Client\UserInterface\InstanceBase.cpp

; 1592 : 	float fRestLen = fTotalLen - fCurLen;

  0017c	f3 0f 5c 44 24
	20		 subss	 xmm0, DWORD PTR _fCurLen$1$[esp+56]
  00182	f3 0f 11 44 24
	1c		 movss	 DWORD PTR _fRestLen$1$[esp+56], xmm0

; 1594 : 	if (__IsMainInstance())

  00188	e8 00 00 00 00	 call	 ?__IsMainInstance@CInstanceBase@@IAE_NXZ ; CInstanceBase::__IsMainInstance
  0018d	8a 8f 88 01 00
	00		 mov	 cl, BYTE PTR [edi+392]
  00193	84 c0		 test	 al, al
  00195	0f 84 be 00 00
	00		 je	 $LN4@MovementPr

; 1595 : 	{
; 1596 : 		if (m_isGoing && IsWalking())

  0019b	84 c9		 test	 cl, cl
  0019d	0f 84 ec 04 00
	00		 je	 $LN29@MovementPr
  001a3	8b cf		 mov	 ecx, edi
  001a5	e8 00 00 00 00	 call	 ?IsWalking@CInstanceBase@@QAEHXZ ; CInstanceBase::IsWalking
  001aa	85 c0		 test	 eax, eax
  001ac	0f 84 dd 04 00
	00		 je	 $LN29@MovementPr

; 1597 : 		{
; 1598 : 			float fDstRot = NEW_GetAdvancingRotationFromPixelPosition(NEW_GetSrcPixelPositionRef(), NEW_GetDstPixelPositionRef());

  001b2	8b cf		 mov	 ecx, edi
  001b4	e8 00 00 00 00	 call	 ?NEW_GetDstPixelPositionRef@CInstanceBase@@QAEABUD3DXVECTOR3@@XZ ; CInstanceBase::NEW_GetDstPixelPositionRef
  001b9	50		 push	 eax
  001ba	8b cf		 mov	 ecx, edi
  001bc	e8 00 00 00 00	 call	 ?NEW_GetSrcPixelPositionRef@CInstanceBase@@IAEABUD3DXVECTOR3@@XZ ; CInstanceBase::NEW_GetSrcPixelPositionRef
  001c1	50		 push	 eax
  001c2	8b cf		 mov	 ecx, edi
  001c4	e8 00 00 00 00	 call	 ?NEW_GetAdvancingRotationFromPixelPosition@CInstanceBase@@QAEMABUD3DXVECTOR3@@0@Z ; CInstanceBase::NEW_GetAdvancingRotationFromPixelPosition
  001c9	d9 5c 24 10	 fstp	 DWORD PTR _fDstRot$4[esp+56]

; 1599 : 
; 1600 : 			SetAdvancingRotation(fDstRot);

  001cd	f3 0f 10 44 24
	10		 movss	 xmm0, DWORD PTR _fDstRot$4[esp+56]
  001d3	51		 push	 ecx
  001d4	8b cf		 mov	 ecx, edi
  001d6	f3 0f 11 04 24	 movss	 DWORD PTR [esp], xmm0
  001db	e8 00 00 00 00	 call	 ?SetAdvancingRotation@CInstanceBase@@QAEXM@Z ; CInstanceBase::SetAdvancingRotation
  001e0	0f 57 c0	 xorps	 xmm0, xmm0

; 1601 : 
; 1602 : 			if (fRestLen<=0.0)

  001e3	0f 2f 44 24 1c	 comiss	 xmm0, DWORD PTR _fRestLen$1$[esp+56]
  001e8	0f 82 a1 04 00
	00		 jb	 $LN29@MovementPr

; 1603 : 			{
; 1604 : 				if (IsWalking())

  001ee	8b cf		 mov	 ecx, edi
  001f0	e8 00 00 00 00	 call	 ?IsWalking@CInstanceBase@@QAEHXZ ; CInstanceBase::IsWalking
  001f5	85 c0		 test	 eax, eax
  001f7	74 0f		 je	 SHORT $LN8@MovementPr

; 1605 : 					EndWalking();

  001f9	51		 push	 ecx
  001fa	8b cf		 mov	 ecx, edi
  001fc	c7 04 24 9a 99
	19 3e		 mov	 DWORD PTR [esp], 1041865114 ; 3e19999aH
  00203	e8 00 00 00 00	 call	 ?EndWalking@CInstanceBase@@QAEXM@Z ; CInstanceBase::EndWalking
$LN8@MovementPr:

; 1606 : 
; 1607 : 				//Tracen("  ");
; 1608 : 
; 1609 : 				m_isGoing = FALSE;
; 1610 : 
; 1611 : 				BlockMovement();

  00208	8b cf		 mov	 ecx, edi
  0020a	c6 87 88 01 00
	00 00		 mov	 BYTE PTR [edi+392], 0
  00211	e8 00 00 00 00	 call	 ?BlockMovement@CInstanceBase@@QAEXXZ ; CInstanceBase::BlockMovement

; 1612 : 
; 1613 : 				if (FUNC_EMOTION == m_kMovAfterFunc.eFunc)

  00216	83 bf a8 01 00
	00 05		 cmp	 DWORD PTR [edi+424], 5
  0021d	0f 85 6c 04 00
	00		 jne	 $LN29@MovementPr

; 1614 : 				{
; 1615 : 					DWORD dwMotionNumber = m_kMovAfterFunc.uArg;
; 1616 : 					DWORD dwTargetVID = m_kMovAfterFunc.uArgExpanded;
; 1617 : 					__ProcessFunctionEmotion(dwMotionNumber, dwTargetVID, m_kMovAfterFunc.kPosDst);

  00223	8d 87 b4 01 00
	00		 lea	 eax, DWORD PTR [edi+436]
  00229	8b cf		 mov	 ecx, edi
  0022b	50		 push	 eax
  0022c	ff b7 b0 01 00
	00		 push	 DWORD PTR [edi+432]
  00232	ff b7 ac 01 00
	00		 push	 DWORD PTR [edi+428]
  00238	e8 00 00 00 00	 call	 ?__ProcessFunctionEmotion@CInstanceBase@@IAEXKKABUD3DXVECTOR3@@@Z ; CInstanceBase::__ProcessFunctionEmotion

; 1618 : 					m_kMovAfterFunc.eFunc = FUNC_WAIT;

  0023d	c7 87 a8 01 00
	00 00 00 00 00	 mov	 DWORD PTR [edi+424], 0

; 1809 : 				}
; 1810 : 			}
; 1811 : 		}
; 1812 : 	}
; 1813 : }

  00247	5f		 pop	 edi
  00248	5e		 pop	 esi
  00249	5b		 pop	 ebx
  0024a	8b 4c 24 28	 mov	 ecx, DWORD PTR __$ArrayPad$[esp+44]
  0024e	33 cc		 xor	 ecx, esp
  00250	e8 00 00 00 00	 call	 @__security_check_cookie@4
  00255	8b e5		 mov	 esp, ebp
  00257	5d		 pop	 ebp
  00258	c3		 ret	 0
$LN4@MovementPr:

; 1619 : 					return;
; 1620 : 				}
; 1621 : 			}
; 1622 : 		}
; 1623 : 	}
; 1624 : 	else
; 1625 : 	{
; 1626 : 		if (m_isGoing && IsWalking())

  00259	84 c9		 test	 cl, cl
  0025b	0f 84 2e 04 00
	00		 je	 $LN29@MovementPr
  00261	8b cf		 mov	 ecx, edi
  00263	e8 00 00 00 00	 call	 ?IsWalking@CInstanceBase@@QAEHXZ ; CInstanceBase::IsWalking
  00268	85 c0		 test	 eax, eax
  0026a	0f 84 1f 04 00
	00		 je	 $LN29@MovementPr

; 1627 : 		{
; 1628 : 			float fDstRot = NEW_GetAdvancingRotationFromPixelPosition(NEW_GetSrcPixelPositionRef(), NEW_GetDstPixelPositionRef());

  00270	8b cf		 mov	 ecx, edi
  00272	e8 00 00 00 00	 call	 ?NEW_GetDstPixelPositionRef@CInstanceBase@@QAEABUD3DXVECTOR3@@XZ ; CInstanceBase::NEW_GetDstPixelPositionRef
  00277	50		 push	 eax
  00278	8b cf		 mov	 ecx, edi
  0027a	e8 00 00 00 00	 call	 ?NEW_GetSrcPixelPositionRef@CInstanceBase@@IAEABUD3DXVECTOR3@@XZ ; CInstanceBase::NEW_GetSrcPixelPositionRef
  0027f	50		 push	 eax
  00280	8b cf		 mov	 ecx, edi
  00282	e8 00 00 00 00	 call	 ?NEW_GetAdvancingRotationFromPixelPosition@CInstanceBase@@QAEMABUD3DXVECTOR3@@0@Z ; CInstanceBase::NEW_GetAdvancingRotationFromPixelPosition
  00287	d9 5c 24 10	 fstp	 DWORD PTR _fDstRot$3[esp+56]

; 1629 : 
; 1630 : 			SetAdvancingRotation(fDstRot);

  0028b	f3 0f 10 44 24
	10		 movss	 xmm0, DWORD PTR _fDstRot$3[esp+56]
  00291	51		 push	 ecx
  00292	8b cf		 mov	 ecx, edi
  00294	f3 0f 11 04 24	 movss	 DWORD PTR [esp], xmm0
  00299	e8 00 00 00 00	 call	 ?SetAdvancingRotation@CInstanceBase@@QAEXM@Z ; CInstanceBase::SetAdvancingRotation

; 1631 : 
; 1632 : 			//      ..
; 1633 : 			if (fRestLen < -100.0f)

  0029e	f3 0f 10 05 00
	00 00 00	 movss	 xmm0, DWORD PTR __real@c2c80000
  002a6	0f 2f 44 24 1c	 comiss	 xmm0, DWORD PTR _fRestLen$1$[esp+56]
  002ab	76 53		 jbe	 SHORT $LN11@MovementPr

; 1634 : 			{
; 1635 : 				NEW_SetSrcPixelPosition(kPPosCur);

  002ad	8d 44 24 28	 lea	 eax, DWORD PTR _kPPosCur$[esp+56]
  002b1	8b cf		 mov	 ecx, edi
  002b3	50		 push	 eax
  002b4	e8 00 00 00 00	 call	 ?NEW_SetSrcPixelPosition@CInstanceBase@@IAEXABUD3DXVECTOR3@@@Z ; CInstanceBase::NEW_SetSrcPixelPosition

; 1636 : 
; 1637 : 				float fDstRot = NEW_GetAdvancingRotationFromPixelPosition(kPPosCur, NEW_GetDstPixelPositionRef());

  002b9	8b cf		 mov	 ecx, edi
  002bb	e8 00 00 00 00	 call	 ?NEW_GetDstPixelPositionRef@CInstanceBase@@QAEABUD3DXVECTOR3@@XZ ; CInstanceBase::NEW_GetDstPixelPositionRef
  002c0	50		 push	 eax
  002c1	8d 44 24 2c	 lea	 eax, DWORD PTR _kPPosCur$[esp+60]
  002c5	8b cf		 mov	 ecx, edi
  002c7	50		 push	 eax
  002c8	e8 00 00 00 00	 call	 ?NEW_GetAdvancingRotationFromPixelPosition@CInstanceBase@@QAEMABUD3DXVECTOR3@@0@Z ; CInstanceBase::NEW_GetAdvancingRotationFromPixelPosition
  002cd	d9 5c 24 10	 fstp	 DWORD PTR _fDstRot$2[esp+56]

; 1638 : 				SetAdvancingRotation(fDstRot);

  002d1	f3 0f 10 44 24
	10		 movss	 xmm0, DWORD PTR _fDstRot$2[esp+56]
  002d7	51		 push	 ecx
  002d8	8b cf		 mov	 ecx, edi
  002da	f3 0f 11 04 24	 movss	 DWORD PTR [esp], xmm0
  002df	e8 00 00 00 00	 call	 ?SetAdvancingRotation@CInstanceBase@@QAEXM@Z ; CInstanceBase::SetAdvancingRotation

; 1639 : 				//Tracenf("VID %d   (%f, %f) %f rest %f", GetVirtualID(), kPPosCur.x, kPPosCur.y, fDstRot, fRestLen);			
; 1640 : 
; 1641 : 				//    
; 1642 : 				if (FUNC_MOVE == m_kMovAfterFunc.eFunc)

  002e4	83 bf a8 01 00
	00 01		 cmp	 DWORD PTR [edi+424], 1
  002eb	0f 85 9e 03 00
	00		 jne	 $LN29@MovementPr

; 1643 : 				{
; 1644 : 					m_kMovAfterFunc.eFunc = FUNC_WAIT;

  002f1	c7 87 a8 01 00
	00 00 00 00 00	 mov	 DWORD PTR [edi+424], 0

; 1645 : 				}
; 1646 : 			}

  002fb	e9 8f 03 00 00	 jmp	 $LN29@MovementPr
$LN11@MovementPr:

; 1647 : 			// ...
; 1648 : 			else if (fCurLen <= fTotalLen && fTotalLen <= fNextLen)

  00300	f3 0f 10 44 24
	24		 movss	 xmm0, DWORD PTR _fTotalLen$1$[esp+56]
  00306	0f 2f 44 24 20	 comiss	 xmm0, DWORD PTR _fCurLen$1$[esp+56]
  0030b	0f 82 7e 03 00
	00		 jb	 $LN29@MovementPr
  00311	f3 0f 10 4c 24
	18		 movss	 xmm1, DWORD PTR _fNextLen$1$[esp+56]
  00317	0f 2f c8	 comiss	 xmm1, xmm0
  0031a	0f 82 6f 03 00
	00		 jb	 $LN29@MovementPr

; 1649 : 			{
; 1650 : 				if (m_GraphicThingInstance.IsDead() || m_GraphicThingInstance.IsKnockDown())

  00320	8b cb		 mov	 ecx, ebx
  00322	e8 00 00 00 00	 call	 ?IsDead@CActorInstance@@QAEHXZ ; CActorInstance::IsDead
  00327	85 c0		 test	 eax, eax
  00329	0f 85 52 03 00
	00		 jne	 $LN17@MovementPr
  0032f	8b cb		 mov	 ecx, ebx
  00331	e8 00 00 00 00	 call	 ?IsKnockDown@CActorInstance@@QAEHXZ ; CActorInstance::IsKnockDown
  00336	85 c0		 test	 eax, eax
  00338	0f 85 43 03 00
	00		 jne	 $LN17@MovementPr

; 1657 : 
; 1658 : 					//Tracen("     ");
; 1659 : 				}
; 1660 : 				else
; 1661 : 				{
; 1662 : 					switch (m_kMovAfterFunc.eFunc)

  0033e	8b 8f a8 01 00
	00		 mov	 ecx, DWORD PTR [edi+424]
  00344	8d 41 ff	 lea	 eax, DWORD PTR [ecx-1]
  00347	83 f8 04	 cmp	 eax, 4
  0034a	0f 87 30 02 00
	00		 ja	 $LN26@MovementPr
  00350	ff 24 85 00 00
	00 00		 jmp	 DWORD PTR $LN65@MovementPr[eax*4]
$LN18@MovementPr:

; 1663 : 					{
; 1664 : 						case FUNC_ATTACK:
; 1665 : 						{
; 1666 : 							if (IsWalking())

  00357	8b cf		 mov	 ecx, edi
  00359	e8 00 00 00 00	 call	 ?IsWalking@CInstanceBase@@QAEHXZ ; CInstanceBase::IsWalking
  0035e	85 c0		 test	 eax, eax
  00360	74 0f		 je	 SHORT $LN19@MovementPr

; 1667 : 								EndWalking();

  00362	51		 push	 ecx
  00363	8b cf		 mov	 ecx, edi
  00365	c7 04 24 9a 99
	19 3e		 mov	 DWORD PTR [esp], 1041865114 ; 3e19999aH
  0036c	e8 00 00 00 00	 call	 ?EndWalking@CInstanceBase@@QAEXM@Z ; CInstanceBase::EndWalking
$LN19@MovementPr:

; 1668 : 
; 1669 : 							__DisableSkipCollision();

  00371	8b cf		 mov	 ecx, edi
  00373	e8 00 00 00 00	 call	 ?__DisableSkipCollision@CInstanceBase@@IAEXXZ ; CInstanceBase::__DisableSkipCollision

; 1670 : 							m_isGoing = FALSE;
; 1671 : 
; 1672 : 							BlockMovement();

  00378	8b cf		 mov	 ecx, edi
  0037a	c6 87 88 01 00
	00 00		 mov	 BYTE PTR [edi+392], 0
  00381	e8 00 00 00 00	 call	 ?BlockMovement@CInstanceBase@@QAEXXZ ; CInstanceBase::BlockMovement

; 1673 : 							SCRIPT_SetPixelPosition(NEW_GetDstPixelPositionRef().x, NEW_GetDstPixelPositionRef().y);

  00386	8b cf		 mov	 ecx, edi
  00388	e8 00 00 00 00	 call	 ?NEW_GetDstPixelPositionRef@CInstanceBase@@QAEABUD3DXVECTOR3@@XZ ; CInstanceBase::NEW_GetDstPixelPositionRef
  0038d	8b cf		 mov	 ecx, edi
  0038f	f3 0f 10 40 04	 movss	 xmm0, DWORD PTR [eax+4]
  00394	f3 0f 11 44 24
	10		 movss	 DWORD PTR tv866[esp+56], xmm0
  0039a	e8 00 00 00 00	 call	 ?NEW_GetDstPixelPositionRef@CInstanceBase@@QAEABUD3DXVECTOR3@@XZ ; CInstanceBase::NEW_GetDstPixelPositionRef
  0039f	f3 0f 10 44 24
	10		 movss	 xmm0, DWORD PTR tv866[esp+56]
  003a5	83 ec 08	 sub	 esp, 8
  003a8	8b cf		 mov	 ecx, edi
  003aa	f3 0f 11 44 24
	04		 movss	 DWORD PTR [esp+4], xmm0
  003b0	f3 0f 10 00	 movss	 xmm0, DWORD PTR [eax]
  003b4	f3 0f 11 04 24	 movss	 DWORD PTR [esp], xmm0
  003b9	e8 00 00 00 00	 call	 ?SCRIPT_SetPixelPosition@CInstanceBase@@QAEXMM@Z ; CInstanceBase::SCRIPT_SetPixelPosition

; 1674 : 							SetAdvancingRotation(m_fDstRot);

  003be	f3 0f 10 87 c0
	01 00 00	 movss	 xmm0, DWORD PTR [edi+448]
  003c6	51		 push	 ecx
  003c7	8b cf		 mov	 ecx, edi
  003c9	f3 0f 11 04 24	 movss	 DWORD PTR [esp], xmm0
  003ce	e8 00 00 00 00	 call	 ?SetAdvancingRotation@CInstanceBase@@QAEXM@Z ; CInstanceBase::SetAdvancingRotation

; 1675 : 							SetRotation(m_fDstRot);

  003d3	f3 0f 10 87 c0
	01 00 00	 movss	 xmm0, DWORD PTR [edi+448]
  003db	51		 push	 ecx
  003dc	8b cf		 mov	 ecx, edi
  003de	f3 0f 11 04 24	 movss	 DWORD PTR [esp], xmm0
  003e3	e8 00 00 00 00	 call	 ?SetRotation@CInstanceBase@@QAEXM@Z ; CInstanceBase::SetRotation

; 1676 : 
; 1677 : 							RunNormalAttack(m_fDstRot);

  003e8	f3 0f 10 87 c0
	01 00 00	 movss	 xmm0, DWORD PTR [edi+448]
  003f0	51		 push	 ecx
  003f1	8b cf		 mov	 ecx, edi
  003f3	f3 0f 11 04 24	 movss	 DWORD PTR [esp], xmm0
  003f8	e8 00 00 00 00	 call	 ?RunNormalAttack@CInstanceBase@@QAEXM@Z ; CInstanceBase::RunNormalAttack

; 1678 : 							break;

  003fd	e9 8d 02 00 00	 jmp	 $LN29@MovementPr
$LN20@MovementPr:

; 1679 : 						}
; 1680 : 
; 1681 : 						case FUNC_COMBO:
; 1682 : 						{
; 1683 : 							if (IsWalking())

  00402	8b cf		 mov	 ecx, edi
  00404	e8 00 00 00 00	 call	 ?IsWalking@CInstanceBase@@QAEHXZ ; CInstanceBase::IsWalking
  00409	85 c0		 test	 eax, eax
  0040b	74 0f		 je	 SHORT $LN21@MovementPr

; 1684 : 								EndWalking();

  0040d	51		 push	 ecx
  0040e	8b cf		 mov	 ecx, edi
  00410	c7 04 24 9a 99
	19 3e		 mov	 DWORD PTR [esp], 1041865114 ; 3e19999aH
  00417	e8 00 00 00 00	 call	 ?EndWalking@CInstanceBase@@QAEXM@Z ; CInstanceBase::EndWalking
$LN21@MovementPr:

; 1685 : 
; 1686 : 							__DisableSkipCollision();

  0041c	8b cf		 mov	 ecx, edi
  0041e	e8 00 00 00 00	 call	 ?__DisableSkipCollision@CInstanceBase@@IAEXXZ ; CInstanceBase::__DisableSkipCollision

; 1687 : 							m_isGoing = FALSE;
; 1688 : 
; 1689 : 							BlockMovement();

  00423	8b cf		 mov	 ecx, edi
  00425	c6 87 88 01 00
	00 00		 mov	 BYTE PTR [edi+392], 0
  0042c	e8 00 00 00 00	 call	 ?BlockMovement@CInstanceBase@@QAEXXZ ; CInstanceBase::BlockMovement

; 1690 : 							SCRIPT_SetPixelPosition(NEW_GetDstPixelPositionRef().x, NEW_GetDstPixelPositionRef().y);

  00431	8b cf		 mov	 ecx, edi
  00433	e8 00 00 00 00	 call	 ?NEW_GetDstPixelPositionRef@CInstanceBase@@QAEABUD3DXVECTOR3@@XZ ; CInstanceBase::NEW_GetDstPixelPositionRef
  00438	8b cf		 mov	 ecx, edi
  0043a	f3 0f 10 40 04	 movss	 xmm0, DWORD PTR [eax+4]
  0043f	f3 0f 11 44 24
	10		 movss	 DWORD PTR tv873[esp+56], xmm0
  00445	e8 00 00 00 00	 call	 ?NEW_GetDstPixelPositionRef@CInstanceBase@@QAEABUD3DXVECTOR3@@XZ ; CInstanceBase::NEW_GetDstPixelPositionRef
  0044a	f3 0f 10 44 24
	10		 movss	 xmm0, DWORD PTR tv873[esp+56]
  00450	83 ec 08	 sub	 esp, 8
  00453	8b cf		 mov	 ecx, edi
  00455	f3 0f 11 44 24
	04		 movss	 DWORD PTR [esp+4], xmm0
  0045b	f3 0f 10 00	 movss	 xmm0, DWORD PTR [eax]
  0045f	f3 0f 11 04 24	 movss	 DWORD PTR [esp], xmm0
  00464	e8 00 00 00 00	 call	 ?SCRIPT_SetPixelPosition@CInstanceBase@@QAEXMM@Z ; CInstanceBase::SCRIPT_SetPixelPosition

; 1691 : 							RunComboAttack(m_fDstRot, m_kMovAfterFunc.uArg);

  00469	ff b7 ac 01 00
	00		 push	 DWORD PTR [edi+428]
  0046f	f3 0f 10 87 c0
	01 00 00	 movss	 xmm0, DWORD PTR [edi+448]
  00477	51		 push	 ecx
  00478	8b cf		 mov	 ecx, edi
  0047a	f3 0f 11 04 24	 movss	 DWORD PTR [esp], xmm0
  0047f	e8 00 00 00 00	 call	 ?RunComboAttack@CInstanceBase@@QAEXMK@Z ; CInstanceBase::RunComboAttack

; 1692 : 							break;

  00484	e9 06 02 00 00	 jmp	 $LN29@MovementPr
$LN22@MovementPr:

; 1693 : 						}
; 1694 : 
; 1695 : 						case FUNC_EMOTION:
; 1696 : 						{
; 1697 : 							m_isGoing = FALSE;
; 1698 : 							m_kMovAfterFunc.eFunc = FUNC_WAIT;
; 1699 : 							__DisableSkipCollision();

  00489	8b cf		 mov	 ecx, edi
  0048b	c6 87 88 01 00
	00 00		 mov	 BYTE PTR [edi+392], 0
  00492	c7 87 a8 01 00
	00 00 00 00 00	 mov	 DWORD PTR [edi+424], 0
  0049c	e8 00 00 00 00	 call	 ?__DisableSkipCollision@CInstanceBase@@IAEXXZ ; CInstanceBase::__DisableSkipCollision

; 1700 : 							BlockMovement();

  004a1	8b cf		 mov	 ecx, edi
  004a3	e8 00 00 00 00	 call	 ?BlockMovement@CInstanceBase@@QAEXXZ ; CInstanceBase::BlockMovement

; 1701 : 
; 1702 : 							DWORD dwMotionNumber = m_kMovAfterFunc.uArg;
; 1703 : 							DWORD dwTargetVID = m_kMovAfterFunc.uArgExpanded;
; 1704 : 							__ProcessFunctionEmotion(dwMotionNumber, dwTargetVID, m_kMovAfterFunc.kPosDst);

  004a8	8d 87 b4 01 00
	00		 lea	 eax, DWORD PTR [edi+436]
  004ae	8b cf		 mov	 ecx, edi
  004b0	50		 push	 eax
  004b1	ff b7 b0 01 00
	00		 push	 DWORD PTR [edi+432]
  004b7	ff b7 ac 01 00
	00		 push	 DWORD PTR [edi+428]
  004bd	e8 00 00 00 00	 call	 ?__ProcessFunctionEmotion@CInstanceBase@@IAEXKKABUD3DXVECTOR3@@@Z ; CInstanceBase::__ProcessFunctionEmotion

; 1705 : 							break;

  004c2	e9 c8 01 00 00	 jmp	 $LN29@MovementPr
$LN24@MovementPr:

; 1706 : 						}
; 1707 : 
; 1708 : 						case FUNC_MOVE:
; 1709 : 						{
; 1710 : 							break;
; 1711 : 						}
; 1712 : 
; 1713 : 						case FUNC_MOB_SKILL:
; 1714 : 						{
; 1715 : 							if (IsWalking())

  004c7	8b cf		 mov	 ecx, edi
  004c9	e8 00 00 00 00	 call	 ?IsWalking@CInstanceBase@@QAEHXZ ; CInstanceBase::IsWalking
  004ce	85 c0		 test	 eax, eax
  004d0	74 0f		 je	 SHORT $LN25@MovementPr

; 1716 : 								EndWalking();

  004d2	51		 push	 ecx
  004d3	8b cf		 mov	 ecx, edi
  004d5	c7 04 24 9a 99
	19 3e		 mov	 DWORD PTR [esp], 1041865114 ; 3e19999aH
  004dc	e8 00 00 00 00	 call	 ?EndWalking@CInstanceBase@@QAEXM@Z ; CInstanceBase::EndWalking
$LN25@MovementPr:

; 1717 : 
; 1718 : 							__DisableSkipCollision();

  004e1	8b cf		 mov	 ecx, edi
  004e3	e8 00 00 00 00	 call	 ?__DisableSkipCollision@CInstanceBase@@IAEXXZ ; CInstanceBase::__DisableSkipCollision

; 1719 : 							m_isGoing = FALSE;
; 1720 : 
; 1721 : 							BlockMovement();

  004e8	8b cf		 mov	 ecx, edi
  004ea	c6 87 88 01 00
	00 00		 mov	 BYTE PTR [edi+392], 0
  004f1	e8 00 00 00 00	 call	 ?BlockMovement@CInstanceBase@@QAEXXZ ; CInstanceBase::BlockMovement

; 1722 : 							SCRIPT_SetPixelPosition(NEW_GetDstPixelPositionRef().x, NEW_GetDstPixelPositionRef().y);

  004f6	8b cf		 mov	 ecx, edi
  004f8	e8 00 00 00 00	 call	 ?NEW_GetDstPixelPositionRef@CInstanceBase@@QAEABUD3DXVECTOR3@@XZ ; CInstanceBase::NEW_GetDstPixelPositionRef
  004fd	8b cf		 mov	 ecx, edi
  004ff	f3 0f 10 40 04	 movss	 xmm0, DWORD PTR [eax+4]
  00504	f3 0f 11 44 24
	10		 movss	 DWORD PTR tv881[esp+56], xmm0
  0050a	e8 00 00 00 00	 call	 ?NEW_GetDstPixelPositionRef@CInstanceBase@@QAEABUD3DXVECTOR3@@XZ ; CInstanceBase::NEW_GetDstPixelPositionRef
  0050f	f3 0f 10 44 24
	10		 movss	 xmm0, DWORD PTR tv881[esp+56]
  00515	83 ec 08	 sub	 esp, 8
  00518	8b cf		 mov	 ecx, edi
  0051a	f3 0f 11 44 24
	04		 movss	 DWORD PTR [esp+4], xmm0
  00520	f3 0f 10 00	 movss	 xmm0, DWORD PTR [eax]
  00524	f3 0f 11 04 24	 movss	 DWORD PTR [esp], xmm0
  00529	e8 00 00 00 00	 call	 ?SCRIPT_SetPixelPosition@CInstanceBase@@QAEXMM@Z ; CInstanceBase::SCRIPT_SetPixelPosition

; 1723 : 							SetAdvancingRotation(m_fDstRot);

  0052e	f3 0f 10 87 c0
	01 00 00	 movss	 xmm0, DWORD PTR [edi+448]
  00536	51		 push	 ecx
  00537	8b cf		 mov	 ecx, edi
  00539	f3 0f 11 04 24	 movss	 DWORD PTR [esp], xmm0
  0053e	e8 00 00 00 00	 call	 ?SetAdvancingRotation@CInstanceBase@@QAEXM@Z ; CInstanceBase::SetAdvancingRotation

; 1724 : 							SetRotation(m_fDstRot);

  00543	f3 0f 10 87 c0
	01 00 00	 movss	 xmm0, DWORD PTR [edi+448]
  0054b	51		 push	 ecx
  0054c	8b cf		 mov	 ecx, edi
  0054e	f3 0f 11 04 24	 movss	 DWORD PTR [esp], xmm0
  00553	e8 00 00 00 00	 call	 ?SetRotation@CInstanceBase@@QAEXM@Z ; CInstanceBase::SetRotation

; 1725 : 
; 1726 : 							m_GraphicThingInstance.InterceptOnceMotion(CRaceMotionData::NAME_SPECIAL_1 + m_kMovAfterFunc.uArg);

  00558	8b 87 ac 01 00
	00		 mov	 eax, DWORD PTR [edi+428]
  0055e	51		 push	 ecx
  0055f	c7 04 24 00 00
	80 3f		 mov	 DWORD PTR [esp], 1065353216 ; 3f800000H
  00566	83 c0 21	 add	 eax, 33			; 00000021H
  00569	6a 00		 push	 0
  0056b	51		 push	 ecx
  0056c	c7 04 24 cd cc
	cc 3d		 mov	 DWORD PTR [esp], 1036831949 ; 3dcccccdH
  00573	8b cb		 mov	 ecx, ebx
  00575	50		 push	 eax
  00576	e8 00 00 00 00	 call	 ?InterceptOnceMotion@CActorInstance@@QAE_NKMIM@Z ; CActorInstance::InterceptOnceMotion

; 1727 : 							break;

  0057b	e9 0f 01 00 00	 jmp	 $LN29@MovementPr
$LN26@MovementPr:

; 1728 : 						}
; 1729 : 
; 1730 : 						default:
; 1731 : 						{
; 1732 : 							if (m_kMovAfterFunc.eFunc & FUNC_SKILL)

  00580	84 c9		 test	 cl, cl
  00582	79 60		 jns	 SHORT $LN27@MovementPr

; 1733 : 							{
; 1734 : 								SetAdvancingRotation(m_fDstRot);

  00584	f3 0f 10 87 c0
	01 00 00	 movss	 xmm0, DWORD PTR [edi+448]
  0058c	51		 push	 ecx
  0058d	8b cf		 mov	 ecx, edi
  0058f	f3 0f 11 04 24	 movss	 DWORD PTR [esp], xmm0
  00594	e8 00 00 00 00	 call	 ?SetAdvancingRotation@CInstanceBase@@QAEXM@Z ; CInstanceBase::SetAdvancingRotation

; 1735 : 								BlendRotation(m_fDstRot);

  00599	f3 0f 10 87 c0
	01 00 00	 movss	 xmm0, DWORD PTR [edi+448]
  005a1	83 ec 08	 sub	 esp, 8
  005a4	8b cf		 mov	 ecx, edi
  005a6	c7 44 24 04 cd
	cc cc 3d	 mov	 DWORD PTR [esp+4], 1036831949 ; 3dcccccdH
  005ae	f3 0f 11 04 24	 movss	 DWORD PTR [esp], xmm0
  005b3	e8 00 00 00 00	 call	 ?BlendRotation@CInstanceBase@@QAEXMM@Z ; CInstanceBase::BlendRotation

; 1736 : 								NEW_UseSkill(0, m_kMovAfterFunc.eFunc & 0x7f, m_kMovAfterFunc.uArg&0x0f, (m_kMovAfterFunc.uArg>>4) ? true : false);

  005b8	8b 8f ac 01 00
	00		 mov	 ecx, DWORD PTR [edi+428]
  005be	83 f9 10	 cmp	 ecx, 16			; 00000010H
  005c1	0f 93 c0	 setae	 al
  005c4	83 e1 0f	 and	 ecx, 15			; 0000000fH
  005c7	0f b6 c0	 movzx	 eax, al
  005ca	50		 push	 eax
  005cb	8b 87 a8 01 00
	00		 mov	 eax, DWORD PTR [edi+424]
  005d1	51		 push	 ecx
  005d2	83 e0 7f	 and	 eax, 127		; 0000007fH
  005d5	8b cf		 mov	 ecx, edi
  005d7	50		 push	 eax
  005d8	6a 00		 push	 0
  005da	e8 00 00 00 00	 call	 ?NEW_UseSkill@CInstanceBase@@QAE_NIII_N@Z ; CInstanceBase::NEW_UseSkill

; 1737 : 							}

  005df	e9 ab 00 00 00	 jmp	 $LN29@MovementPr
$LN27@MovementPr:

; 1738 : 							else
; 1739 : 							{
; 1740 : 								//Tracenf("VID %d   (%f, %f) rot %f", GetVirtualID(), NEW_GetDstPixelPositionRef().x, NEW_GetDstPixelPositionRef().y, m_fDstRot);
; 1741 : 
; 1742 : 								__DisableSkipCollision();

  005e4	8b cf		 mov	 ecx, edi
  005e6	e8 00 00 00 00	 call	 ?__DisableSkipCollision@CInstanceBase@@IAEXXZ ; CInstanceBase::__DisableSkipCollision

; 1743 : 								m_isGoing = FALSE;
; 1744 : 
; 1745 : 								BlockMovement();

  005eb	8b cf		 mov	 ecx, edi
  005ed	c6 87 88 01 00
	00 00		 mov	 BYTE PTR [edi+392], 0
  005f4	e8 00 00 00 00	 call	 ?BlockMovement@CInstanceBase@@QAEXXZ ; CInstanceBase::BlockMovement

; 1746 : 								SCRIPT_SetPixelPosition(NEW_GetDstPixelPositionRef().x, NEW_GetDstPixelPositionRef().y);

  005f9	8b cf		 mov	 ecx, edi
  005fb	e8 00 00 00 00	 call	 ?NEW_GetDstPixelPositionRef@CInstanceBase@@QAEABUD3DXVECTOR3@@XZ ; CInstanceBase::NEW_GetDstPixelPositionRef
  00600	8b cf		 mov	 ecx, edi
  00602	f3 0f 10 40 04	 movss	 xmm0, DWORD PTR [eax+4]
  00607	f3 0f 11 44 24
	10		 movss	 DWORD PTR tv894[esp+56], xmm0
  0060d	e8 00 00 00 00	 call	 ?NEW_GetDstPixelPositionRef@CInstanceBase@@QAEABUD3DXVECTOR3@@XZ ; CInstanceBase::NEW_GetDstPixelPositionRef
  00612	f3 0f 10 44 24
	10		 movss	 xmm0, DWORD PTR tv894[esp+56]
  00618	83 ec 08	 sub	 esp, 8
  0061b	8b cf		 mov	 ecx, edi
  0061d	f3 0f 11 44 24
	04		 movss	 DWORD PTR [esp+4], xmm0
  00623	f3 0f 10 00	 movss	 xmm0, DWORD PTR [eax]
  00627	f3 0f 11 04 24	 movss	 DWORD PTR [esp], xmm0
  0062c	e8 00 00 00 00	 call	 ?SCRIPT_SetPixelPosition@CInstanceBase@@QAEXMM@Z ; CInstanceBase::SCRIPT_SetPixelPosition

; 1747 : 								SetAdvancingRotation(m_fDstRot);

  00631	f3 0f 10 87 c0
	01 00 00	 movss	 xmm0, DWORD PTR [edi+448]
  00639	51		 push	 ecx
  0063a	8b cf		 mov	 ecx, edi
  0063c	f3 0f 11 04 24	 movss	 DWORD PTR [esp], xmm0
  00641	e8 00 00 00 00	 call	 ?SetAdvancingRotation@CInstanceBase@@QAEXM@Z ; CInstanceBase::SetAdvancingRotation

; 1748 : 								BlendRotation(m_fDstRot);

  00646	f3 0f 10 87 c0
	01 00 00	 movss	 xmm0, DWORD PTR [edi+448]
  0064e	83 ec 08	 sub	 esp, 8
  00651	8b cf		 mov	 ecx, edi
  00653	c7 44 24 04 cd
	cc cc 3d	 mov	 DWORD PTR [esp+4], 1036831949 ; 3dcccccdH
  0065b	f3 0f 11 04 24	 movss	 DWORD PTR [esp], xmm0
  00660	e8 00 00 00 00	 call	 ?BlendRotation@CInstanceBase@@QAEXMM@Z ; CInstanceBase::BlendRotation

; 1749 : 								if (!IsWaiting())

  00665	8b cf		 mov	 ecx, edi
  00667	e8 00 00 00 00	 call	 ?IsWaiting@CInstanceBase@@QAEHXZ ; CInstanceBase::IsWaiting
  0066c	85 c0		 test	 eax, eax
  0066e	75 1f		 jne	 SHORT $LN29@MovementPr

; 1750 : 								{
; 1751 : 									EndWalking();

  00670	51		 push	 ecx
  00671	8b cf		 mov	 ecx, edi
  00673	c7 04 24 9a 99
	19 3e		 mov	 DWORD PTR [esp], 1041865114 ; 3e19999aH
  0067a	e8 00 00 00 00	 call	 ?EndWalking@CInstanceBase@@QAEXM@Z ; CInstanceBase::EndWalking
  0067f	eb 0e		 jmp	 SHORT $LN29@MovementPr
$LN17@MovementPr:

; 1651 : 				{
; 1652 : 					__DisableSkipCollision();

  00681	8b cf		 mov	 ecx, edi
  00683	e8 00 00 00 00	 call	 ?__DisableSkipCollision@CInstanceBase@@IAEXXZ ; CInstanceBase::__DisableSkipCollision

; 1653 : 
; 1654 : 					//Tracen("   ");
; 1655 : 
; 1656 : 					m_isGoing = FALSE;

  00688	c6 87 88 01 00
	00 00		 mov	 BYTE PTR [edi+392], 0
$LN29@MovementPr:

; 1752 : 								}
; 1753 : 
; 1754 : 								//Tracenf("VID %d  (%f, %f) rot %f IsWalking %d", GetVirtualID(), NEW_GetDstPixelPositionRef().x, NEW_GetDstPixelPositionRef().y, m_fDstRot, IsWalking());
; 1755 : 							}
; 1756 : 							break;
; 1757 : 						}
; 1758 : 					}
; 1759 : 
; 1760 : 				}
; 1761 : 			}
; 1762 : 
; 1763 : 		}
; 1764 : 	}
; 1765 : 
; 1766 : 	if (IsWalking() || m_GraphicThingInstance.IsUsingMovingSkill())

  0068f	8b cf		 mov	 ecx, edi
  00691	e8 00 00 00 00	 call	 ?IsWalking@CInstanceBase@@QAEHXZ ; CInstanceBase::IsWalking
  00696	85 c0		 test	 eax, eax
  00698	75 0f		 jne	 SHORT $LN31@MovementPr
  0069a	8b cb		 mov	 ecx, ebx
  0069c	e8 00 00 00 00	 call	 ?IsUsingMovingSkill@CActorInstance@@QAEHXZ ; CActorInstance::IsUsingMovingSkill
  006a1	85 c0		 test	 eax, eax
  006a3	0f 84 87 01 00
	00		 je	 $LN41@MovementPr
$LN31@MovementPr:

; 1767 : 	{
; 1768 : 		float fRotation = m_GraphicThingInstance.GetRotation();

  006a9	8b cb		 mov	 ecx, ebx
  006ab	e8 00 00 00 00	 call	 ?GetRotation@CActorInstance@@QAEMXZ ; CActorInstance::GetRotation
  006b0	d9 5c 24 0c	 fstp	 DWORD PTR _fRotation$1[esp+56]

; 1769 : 		float fAdvancingRotation = m_GraphicThingInstance.GetAdvancingRotation();

  006b4	8b cb		 mov	 ecx, ebx
  006b6	e8 00 00 00 00	 call	 ?GetAdvancingRotation@CActorInstance@@QAEMXZ ; CActorInstance::GetAdvancingRotation

; 1770 : 		int iDirection = GetRotatingDirection(fRotation, fAdvancingRotation);

  006bb	83 ec 08	 sub	 esp, 8
  006be	d9 5c 24 20	 fstp	 DWORD PTR _fAdvancingRotation$5[esp+64]
  006c2	f3 0f 10 44 24
	20		 movss	 xmm0, DWORD PTR _fAdvancingRotation$5[esp+64]
  006c8	f3 0f 11 44 24
	04		 movss	 DWORD PTR [esp+4], xmm0
  006ce	f3 0f 10 44 24
	14		 movss	 xmm0, DWORD PTR _fRotation$1[esp+64]
  006d4	f3 0f 11 44 24
	24		 movss	 DWORD PTR _fRotation$1$[esp+64], xmm0
  006da	f3 0f 11 04 24	 movss	 DWORD PTR [esp], xmm0
  006df	e8 00 00 00 00	 call	 ?GetRotatingDirection@@YAHMM@Z ; GetRotatingDirection
  006e4	83 c4 08	 add	 esp, 8

; 1771 : 
; 1772 : 		if (DEGREE_DIRECTION_SAME != m_iRotatingDirection)

  006e7	83 bf 74 01 00
	00 00		 cmp	 DWORD PTR [edi+372], 0
  006ee	0f 84 dc 00 00
	00		 je	 $LN32@MovementPr

; 1773 : 		{
; 1774 : 			if (DEGREE_DIRECTION_LEFT == iDirection)

  006f4	83 f8 02	 cmp	 eax, 2
  006f7	75 49		 jne	 SHORT $LN33@MovementPr

; 1775 : 			{
; 1776 : 				fRotation = fmodf(fRotation + m_fRotSpd*m_GraphicThingInstance.GetSecondElapsed(), 360.0f);

  006f9	8b cb		 mov	 ecx, ebx
  006fb	e8 00 00 00 00	 call	 ?GetSecondElapsed@CGraphicThingInstance@@QAEMXZ ; CGraphicThingInstance::GetSecondElapsed
  00700	f3 0f 10 87 c8
	01 00 00	 movss	 xmm0, DWORD PTR [edi+456]
  00708	d9 5c 24 10	 fstp	 DWORD PTR tv577[esp+56]
  0070c	f3 0f 59 44 24
	10		 mulss	 xmm0, DWORD PTR tv577[esp+56]
  00712	f3 0f 58 44 24
	0c		 addss	 xmm0, DWORD PTR _fRotation$1[esp+56]
; File C:\Program Files (x86)\Windows Kits\10\Include\10.0.18362.0\ucrt\corecrt_math.h

; 691  :             return (float)fmod(_X, _Y);

  00718	0f 5a c0	 cvtps2pd xmm0, xmm0
  0071b	f2 0f 11 44 24
	10		 movsd	 QWORD PTR tv1007[esp+56], xmm0
  00721	dd 44 24 10	 fld	 QWORD PTR tv1007[esp+56]
$LN74@MovementPr:
; File D:\Metin2 Server Files\mainline\SRC_2014\Metin2Client\UserInterface\InstanceBase.cpp

; 1783 : 			if (m_iRotatingDirection != GetRotatingDirection(fRotation, fAdvancingRotation))

  00725	dd 05 00 00 00
	00		 fld	 QWORD PTR __real@4076800000000000
  0072b	e8 00 00 00 00	 call	 __CIfmod
  00730	d9 5c 24 0c	 fstp	 DWORD PTR _fRotation$1[esp+56]
  00734	f3 0f 10 4c 24
	0c		 movss	 xmm1, DWORD PTR _fRotation$1[esp+56]
  0073a	f3 0f 11 4c 24
	1c		 movss	 DWORD PTR _fRotation$1$[esp+56], xmm1
  00740	eb 45		 jmp	 SHORT $LN35@MovementPr
$LN33@MovementPr:

; 1778 : 			else if (DEGREE_DIRECTION_RIGHT == iDirection)

  00742	83 f8 01	 cmp	 eax, 1
  00745	75 3a		 jne	 SHORT $LN66@MovementPr

; 1779 : 			{
; 1780 : 				fRotation = fmodf(fRotation - m_fRotSpd*m_GraphicThingInstance.GetSecondElapsed() + 360.0f, 360.0f);

  00747	8b cb		 mov	 ecx, ebx
  00749	e8 00 00 00 00	 call	 ?GetSecondElapsed@CGraphicThingInstance@@QAEMXZ ; CGraphicThingInstance::GetSecondElapsed
  0074e	f3 0f 10 87 c8
	01 00 00	 movss	 xmm0, DWORD PTR [edi+456]
  00756	f3 0f 10 4c 24
	0c		 movss	 xmm1, DWORD PTR _fRotation$1[esp+56]
  0075c	d9 5c 24 10	 fstp	 DWORD PTR tv591[esp+56]
  00760	f3 0f 59 44 24
	10		 mulss	 xmm0, DWORD PTR tv591[esp+56]
  00766	f3 0f 5c c8	 subss	 xmm1, xmm0
  0076a	f3 0f 58 0d 00
	00 00 00	 addss	 xmm1, DWORD PTR __real@43b40000
; File C:\Program Files (x86)\Windows Kits\10\Include\10.0.18362.0\ucrt\corecrt_math.h

; 691  :             return (float)fmod(_X, _Y);

  00772	0f 5a c1	 cvtps2pd xmm0, xmm1
  00775	f2 0f 11 44 24
	10		 movsd	 QWORD PTR tv995[esp+56], xmm0
  0077b	dd 44 24 10	 fld	 QWORD PTR tv995[esp+56]
; File D:\Metin2 Server Files\mainline\SRC_2014\Metin2Client\UserInterface\InstanceBase.cpp

; 1778 : 			else if (DEGREE_DIRECTION_RIGHT == iDirection)

  0077f	eb a4		 jmp	 SHORT $LN74@MovementPr
$LN66@MovementPr:
  00781	f3 0f 10 4c 24
	0c		 movss	 xmm1, DWORD PTR _fRotation$1[esp+56]
$LN35@MovementPr:

; 1783 : 			if (m_iRotatingDirection != GetRotatingDirection(fRotation, fAdvancingRotation))

  00787	f3 0f 10 44 24
	18		 movss	 xmm0, DWORD PTR _fAdvancingRotation$5[esp+56]
  0078d	83 ec 08	 sub	 esp, 8
  00790	f3 0f 11 44 24
	04		 movss	 DWORD PTR [esp+4], xmm0
  00796	f3 0f 11 0c 24	 movss	 DWORD PTR [esp], xmm1
  0079b	e8 00 00 00 00	 call	 ?GetRotatingDirection@@YAHMM@Z ; GetRotatingDirection
  007a0	83 c4 08	 add	 esp, 8
  007a3	39 87 74 01 00
	00		 cmp	 DWORD PTR [edi+372], eax
  007a9	74 12		 je	 SHORT $LN67@MovementPr

; 1784 : 			{
; 1785 : 				m_iRotatingDirection = DEGREE_DIRECTION_SAME;
; 1786 : 				fRotation = fAdvancingRotation;

  007ab	f3 0f 10 44 24
	18		 movss	 xmm0, DWORD PTR _fAdvancingRotation$5[esp+56]
  007b1	c7 87 74 01 00
	00 00 00 00 00	 mov	 DWORD PTR [edi+372], 0
  007bb	eb 06		 jmp	 SHORT $LN36@MovementPr
$LN67@MovementPr:

; 1783 : 			if (m_iRotatingDirection != GetRotatingDirection(fRotation, fAdvancingRotation))

  007bd	f3 0f 10 44 24
	1c		 movss	 xmm0, DWORD PTR _fRotation$1$[esp+56]
$LN36@MovementPr:

; 1787 : 			}
; 1788 : 
; 1789 : 			m_GraphicThingInstance.SetRotation(fRotation);

  007c3	51		 push	 ecx
  007c4	8b cb		 mov	 ecx, ebx
  007c6	f3 0f 11 04 24	 movss	 DWORD PTR [esp], xmm0
  007cb	e8 00 00 00 00	 call	 ?SetRotation@CActorInstance@@QAEXM@Z ; CActorInstance::SetRotation
$LN32@MovementPr:

; 1790 : 		}
; 1791 : 
; 1792 : 		if (__IsInDustRange())

  007d0	8b cf		 mov	 ecx, edi
  007d2	e8 00 00 00 00	 call	 ?__IsInDustRange@CInstanceBase@@IAE_NXZ ; CInstanceBase::__IsInDustRange
  007d7	84 c0		 test	 al, al
  007d9	74 55		 je	 SHORT $LN41@MovementPr

; 1793 : 		{ 
; 1794 : 			float fDustDistance = NEW_GetDistanceFromDestPixelPosition(m_kPPosDust);

  007db	8d b7 8c 01 00
	00		 lea	 esi, DWORD PTR [edi+396]
  007e1	8b cf		 mov	 ecx, edi
  007e3	56		 push	 esi
  007e4	e8 00 00 00 00	 call	 ?NEW_GetDistanceFromDestPixelPosition@CInstanceBase@@QAEMABUD3DXVECTOR3@@@Z ; CInstanceBase::NEW_GetDistanceFromDestPixelPosition

; 1795 : 			if (IsMountingHorse())

  007e9	8b cf		 mov	 ecx, edi
  007eb	d9 5c 24 20	 fstp	 DWORD PTR _fDustDistance$6[esp+56]
  007ef	e8 00 00 00 00	 call	 ?IsMountingHorse@CInstanceBase@@QAEHXZ ; CInstanceBase::IsMountingHorse
  007f4	f3 0f 10 44 24
	20		 movss	 xmm0, DWORD PTR _fDustDistance$6[esp+56]
  007fa	85 c0		 test	 eax, eax
  007fc	74 18		 je	 SHORT $LN38@MovementPr

; 1796 : 			{
; 1797 : 				if (fDustDistance > ms_fHorseDustGap)

  007fe	0f 2f 05 00 00
	00 00		 comiss	 xmm0, DWORD PTR ?ms_fHorseDustGap@CInstanceBase@@1MA
  00805	76 29		 jbe	 SHORT $LN41@MovementPr

; 1798 : 				{
; 1799 : 					NEW_GetPixelPosition(&m_kPPosDust);

  00807	56		 push	 esi
  00808	8b cf		 mov	 ecx, edi
  0080a	e8 00 00 00 00	 call	 ?NEW_GetPixelPosition@CInstanceBase@@QAEXPAUD3DXVECTOR3@@@Z ; CInstanceBase::NEW_GetPixelPosition

; 1800 : 					__AttachEffect(EFFECT_HORSE_DUST);

  0080f	68 e4 00 00 00	 push	 228			; 000000e4H

; 1801 : 				}
; 1802 : 			}

  00814	eb 13		 jmp	 SHORT $LN75@MovementPr
$LN38@MovementPr:

; 1803 : 			else
; 1804 : 			{
; 1805 : 				if (fDustDistance > ms_fDustGap)

  00816	0f 2f 05 00 00
	00 00		 comiss	 xmm0, DWORD PTR ?ms_fDustGap@CInstanceBase@@1MA
  0081d	76 11		 jbe	 SHORT $LN41@MovementPr

; 1806 : 				{
; 1807 : 					NEW_GetPixelPosition(&m_kPPosDust);

  0081f	56		 push	 esi
  00820	8b cf		 mov	 ecx, edi
  00822	e8 00 00 00 00	 call	 ?NEW_GetPixelPosition@CInstanceBase@@QAEXPAUD3DXVECTOR3@@@Z ; CInstanceBase::NEW_GetPixelPosition

; 1808 : 					__AttachEffect(EFFECT_DUST);

  00827	6a 00		 push	 0
$LN75@MovementPr:

; 1809 : 				}
; 1810 : 			}
; 1811 : 		}
; 1812 : 	}
; 1813 : }

  00829	8b cf		 mov	 ecx, edi
  0082b	e8 00 00 00 00	 call	 ?__AttachEffect@CInstanceBase@@IAEKI@Z ; CInstanceBase::__AttachEffect
$LN41@MovementPr:
  00830	8b 4c 24 34	 mov	 ecx, DWORD PTR __$ArrayPad$[esp+56]
  00834	5f		 pop	 edi
  00835	5e		 pop	 esi
  00836	5b		 pop	 ebx
  00837	33 cc		 xor	 ecx, esp
  00839	e8 00 00 00 00	 call	 @__security_check_cookie@4
  0083e	8b e5		 mov	 esp, ebp
  00840	5d		 pop	 ebp
  00841	c3		 ret	 0
  00842	66 90		 npad	 2
$LN65@MovementPr:
  00844	00 00 00 00	 DD	 $LN29@MovementPr
  00848	00 00 00 00	 DD	 $LN18@MovementPr
  0084c	00 00 00 00	 DD	 $LN20@MovementPr
  00850	00 00 00 00	 DD	 $LN24@MovementPr
  00854	00 00 00 00	 DD	 $LN22@MovementPr
?MovementProcess@CInstanceBase@@IAEXXZ ENDP		; CInstanceBase::MovementProcess
_TEXT	ENDS
; Function compile flags: /Ogtp
; File D:\Metin2 Server Files\mainline\SRC_2014\Metin2Client\UserInterface\InstanceBase.cpp
;	COMDAT ?__GetAlphaValue@CInstanceBase@@IAEMXZ
_TEXT	SEGMENT
?__GetAlphaValue@CInstanceBase@@IAEMXZ PROC		; CInstanceBase::__GetAlphaValue, COMDAT
; _this$ = ecx

; 2556 : 	return m_GraphicThingInstance.GetAlphaValue();

  00000	81 c1 d4 01 00
	00		 add	 ecx, 468		; 000001d4H
  00006	e9 00 00 00 00	 jmp	 ?GetAlphaValue@CActorInstance@@QAEMXZ ; CActorInstance::GetAlphaValue
?__GetAlphaValue@CInstanceBase@@IAEMXZ ENDP		; CInstanceBase::__GetAlphaValue
_TEXT	ENDS
; Function compile flags: /Ogtp
; File D:\Metin2 Server Files\mainline\SRC_2014\Metin2Client\UserInterface\InstanceBase.cpp
;	COMDAT ?__SetAlphaValue@CInstanceBase@@IAEXM@Z
_TEXT	SEGMENT
_fAlpha$ = 8						; size = 4
?__SetAlphaValue@CInstanceBase@@IAEXM@Z PROC		; CInstanceBase::__SetAlphaValue, COMDAT
; _this$ = ecx

; 2550 : {

  00000	55		 push	 ebp
  00001	8b ec		 mov	 ebp, esp

; 2551 : 	m_GraphicThingInstance.SetAlphaValue(fAlpha);

  00003	f3 0f 10 45 08	 movss	 xmm0, DWORD PTR _fAlpha$[ebp]
  00008	51		 push	 ecx
  00009	81 c1 d4 01 00
	00		 add	 ecx, 468		; 000001d4H
  0000f	f3 0f 11 04 24	 movss	 DWORD PTR [esp], xmm0
  00014	e8 00 00 00 00	 call	 ?SetAlphaValue@CActorInstance@@QAEXM@Z ; CActorInstance::SetAlphaValue

; 2552 : }

  00019	5d		 pop	 ebp
  0001a	c2 04 00	 ret	 4
?__SetAlphaValue@CInstanceBase@@IAEXM@Z ENDP		; CInstanceBase::__SetAlphaValue
_TEXT	ENDS
; Function compile flags: /Ogtp
; File D:\Metin2 Server Files\mainline\SRC_2014\Metin2Client\UserInterface\InstanceBase.cpp
;	COMDAT ?__SetBlendRenderingMode@CInstanceBase@@IAEXXZ
_TEXT	SEGMENT
?__SetBlendRenderingMode@CInstanceBase@@IAEXXZ PROC	; CInstanceBase::__SetBlendRenderingMode, COMDAT
; _this$ = ecx

; 2546 : 	m_GraphicThingInstance.SetBlendRenderMode();

  00000	81 c1 d4 01 00
	00		 add	 ecx, 468		; 000001d4H
  00006	e9 00 00 00 00	 jmp	 ?SetBlendRenderMode@CActorInstance@@QAEXXZ ; CActorInstance::SetBlendRenderMode
?__SetBlendRenderingMode@CInstanceBase@@IAEXXZ ENDP	; CInstanceBase::__SetBlendRenderingMode
_TEXT	ENDS
; Function compile flags: /Ogtp
; File D:\Metin2 Server Files\mainline\SRC_2014\Metin2Client\UserInterface\InstanceBase.cpp
;	COMDAT ?__Initialize@SHORSE@CInstanceBase@@QAEXXZ
_TEXT	SEGMENT
?__Initialize@SHORSE@CInstanceBase@@QAEXXZ PROC		; CInstanceBase::SHORSE::__Initialize, COMDAT
; _this$ = ecx

; 50   : 	m_isMounting=false;

  00000	c6 01 00	 mov	 BYTE PTR [ecx], 0

; 51   : 	m_pkActor=NULL;

  00003	c7 41 04 00 00
	00 00		 mov	 DWORD PTR [ecx+4], 0

; 52   : }

  0000a	c3		 ret	 0
?__Initialize@SHORSE@CInstanceBase@@QAEXXZ ENDP		; CInstanceBase::SHORSE::__Initialize
_TEXT	ENDS
; Function compile flags: /Ogtp
; File D:\Metin2 Server Files\mainline\SRC_2014\Metin2Client\UserInterface\InstanceBase.cpp
;	COMDAT ?IsNewMount@SHORSE@CInstanceBase@@QAE_NXZ
_TEXT	SEGMENT
?IsNewMount@SHORSE@CInstanceBase@@QAE_NXZ PROC		; CInstanceBase::SHORSE::IsNewMount, COMDAT
; _this$ = ecx

; 188  : 	if (!m_pkActor)

  00000	8b 49 04	 mov	 ecx, DWORD PTR [ecx+4]
  00003	85 c9		 test	 ecx, ecx
  00005	75 03		 jne	 SHORT $LN2@IsNewMount
$LN10@IsNewMount:

; 200  : 		(20220 == mount)
; 201  : 		)
; 202  : 		return true;
; 203  : 
; 204  : 	return false;
; 205  : }

  00007	32 c0		 xor	 al, al
  00009	c3		 ret	 0
$LN2@IsNewMount:

; 189  : 		return false;
; 190  : 	DWORD mount = m_pkActor->GetRace();

  0000a	e8 00 00 00 00	 call	 ?GetRace@CActorInstance@@QAEKXZ ; CActorInstance::GetRace

; 191  : 
; 192  : 	if ((20205 <= mount &&  20208 >= mount) ||
; 193  : 		(20214 == mount) || (20217 == mount)			//  ,  

  0000f	3d ed 4e 00 00	 cmp	 eax, 20205		; 00004eedH
  00014	72 07		 jb	 SHORT $LN5@IsNewMount
  00016	3d f0 4e 00 00	 cmp	 eax, 20208		; 00004ef0H
  0001b	76 31		 jbe	 SHORT $LN4@IsNewMount
$LN5@IsNewMount:
  0001d	3d f6 4e 00 00	 cmp	 eax, 20214		; 00004ef6H
  00022	74 2a		 je	 SHORT $LN4@IsNewMount
  00024	3d f9 4e 00 00	 cmp	 eax, 20217		; 00004ef9H
  00029	74 23		 je	 SHORT $LN4@IsNewMount

; 196  : 
; 197  : 	//  
; 198  : 	if ((20209 <= mount &&  20212 >= mount) || 
; 199  : 		(20215 == mount) || (20218 == mount) ||			//  ,  

  0002b	3d f1 4e 00 00	 cmp	 eax, 20209		; 00004ef1H
  00030	72 07		 jb	 SHORT $LN8@IsNewMount
  00032	3d f4 4e 00 00	 cmp	 eax, 20212		; 00004ef4H
  00037	76 15		 jbe	 SHORT $LN4@IsNewMount
$LN8@IsNewMount:
  00039	3d f7 4e 00 00	 cmp	 eax, 20215		; 00004ef7H
  0003e	74 0e		 je	 SHORT $LN4@IsNewMount
  00040	3d fa 4e 00 00	 cmp	 eax, 20218		; 00004efaH
  00045	74 07		 je	 SHORT $LN4@IsNewMount
  00047	3d fc 4e 00 00	 cmp	 eax, 20220		; 00004efcH
  0004c	75 b9		 jne	 SHORT $LN10@IsNewMount
$LN4@IsNewMount:

; 194  : 		)
; 195  : 		return true;

  0004e	b0 01		 mov	 al, 1

; 200  : 		(20220 == mount)
; 201  : 		)
; 202  : 		return true;
; 203  : 
; 204  : 	return false;
; 205  : }

  00050	c3		 ret	 0
?IsNewMount@SHORSE@CInstanceBase@@QAE_NXZ ENDP		; CInstanceBase::SHORSE::IsNewMount
_TEXT	ENDS
; Function compile flags: /Ogtp
; File D:\Metin2 Server Files\mainline\SRC_2014\Metin2Client\UserInterface\InstanceBase.cpp
;	COMDAT ?GetLevel@SHORSE@CInstanceBase@@QAEIXZ
_TEXT	SEGMENT
?GetLevel@SHORSE@CInstanceBase@@QAEIXZ PROC		; CInstanceBase::SHORSE::GetLevel, COMDAT
; _this$ = ecx

; 126  : 	if (m_pkActor)

  00000	8b 49 04	 mov	 ecx, DWORD PTR [ecx+4]
  00003	85 c9		 test	 ecx, ecx
  00005	74 6f		 je	 SHORT $LN12@GetLevel

; 127  : 	{
; 128  : 		DWORD mount = m_pkActor->GetRace();

  00007	e8 00 00 00 00	 call	 ?GetRace@CActorInstance@@QAEKXZ ; CActorInstance::GetRace

; 129  : 		switch (mount)

  0000c	8d 88 7b b1 ff
	ff		 lea	 ecx, DWORD PTR [eax-20101]
  00012	83 f9 79	 cmp	 ecx, 121		; 00000079H
  00015	77 14		 ja	 SHORT $LN2@GetLevel
  00017	0f b6 89 00 00
	00 00		 movzx	 ecx, BYTE PTR $LN16@GetLevel[ecx]
  0001e	ff 24 8d 00 00
	00 00		 jmp	 DWORD PTR $LN17@GetLevel[ecx*4]
$LN5@GetLevel:

; 130  : 		{
; 131  : 			case 20101:
; 132  : 			case 20102:
; 133  : 			case 20103:
; 134  : 				return 1;

  00025	b8 01 00 00 00	 mov	 eax, 1

; 184  : }

  0002a	c3		 ret	 0
$LN2@GetLevel:

; 135  : 			case 20104:
; 136  : 			case 20105:
; 137  : 			case 20106:
; 138  : 				return 2;
; 139  : 			case 20107:
; 140  : 			case 20108:
; 141  : 			case 20109:
; 142  : 			case 20110: // #0000673: [M2EU]      
; 143  : 			case 20111: // #0000673: [M2EU]      
; 144  : 			case 20112: // #0000673: [M2EU]      
; 145  : 			case 20113: // #0000673: [M2EU]      
; 146  : 			case 20114:
; 147  : 			case 20115:
; 148  : 			case 20116:
; 149  : 			case 20117:
; 150  : 			case 20118:
; 151  : 			case 20120:
; 152  : 			case 20121:
; 153  : 			case 20122:
; 154  : 			case 20123:
; 155  : 			case 20124:
; 156  : 			case 20125:
; 157  : 				return 3;
; 158  : 			case 20119: //    ,  2 
; 159  : 			case 20219: //    ,  2  (=  )
; 160  : 			case 20220:
; 161  : 			case 20221:
; 162  : 			case 20222:
; 163  : 				return 2;
; 164  : 		}
; 165  : 
; 166  : 		//      (20201 ~ 20212    4  , , )
; 167  : 		//	--     /         .. [hyo]
; 168  : 		{
; 169  : 			//   2 ( ,  )
; 170  : 			if ((20205 <= mount &&  20208 >= mount) ||
; 171  : 				(20214 == mount) || (20217 == mount)			//  ,  

  0002b	3d ed 4e 00 00	 cmp	 eax, 20205		; 00004eedH
  00030	72 07		 jb	 SHORT $LN11@GetLevel
  00032	3d f0 4e 00 00	 cmp	 eax, 20208		; 00004ef0H
  00037	76 37		 jbe	 SHORT $LN10@GetLevel
$LN11@GetLevel:
  00039	3d f6 4e 00 00	 cmp	 eax, 20214		; 00004ef6H
  0003e	74 30		 je	 SHORT $LN10@GetLevel
  00040	3d f9 4e 00 00	 cmp	 eax, 20217		; 00004ef9H
  00045	74 29		 je	 SHORT $LN10@GetLevel

; 174  : 
; 175  : 			//   3 ( ,  )
; 176  : 			if ((20209 <= mount &&  20212 >= mount) || 
; 177  : 				(20215 == mount) || (20218 == mount) ||			//  ,  

  00047	3d f1 4e 00 00	 cmp	 eax, 20209		; 00004ef1H
  0004c	72 07		 jb	 SHORT $LN14@GetLevel
  0004e	3d f4 4e 00 00	 cmp	 eax, 20212		; 00004ef4H
  00053	76 15		 jbe	 SHORT $LN13@GetLevel
$LN14@GetLevel:
  00055	3d f7 4e 00 00	 cmp	 eax, 20215		; 00004ef7H
  0005a	74 0e		 je	 SHORT $LN13@GetLevel
  0005c	3d fa 4e 00 00	 cmp	 eax, 20218		; 00004efaH
  00061	74 07		 je	 SHORT $LN13@GetLevel
  00063	3d fc 4e 00 00	 cmp	 eax, 20220		; 00004efcH
  00068	75 0c		 jne	 SHORT $LN12@GetLevel
$LN13@GetLevel:

; 178  : 				(20220 == mount)
; 179  : 				)
; 180  : 				return 3;

  0006a	b8 03 00 00 00	 mov	 eax, 3

; 184  : }

  0006f	c3		 ret	 0
$LN10@GetLevel:

; 172  : 				)
; 173  : 				return 2;

  00070	b8 02 00 00 00	 mov	 eax, 2

; 184  : }

  00075	c3		 ret	 0
$LN12@GetLevel:

; 181  : 		}
; 182  : 	}
; 183  : 	return 0;

  00076	33 c0		 xor	 eax, eax

; 184  : }

  00078	c3		 ret	 0
  00079	0f 1f 00	 npad	 3
$LN17@GetLevel:
  0007c	00 00 00 00	 DD	 $LN5@GetLevel
  00080	00 00 00 00	 DD	 $LN10@GetLevel
  00084	00 00 00 00	 DD	 $LN13@GetLevel
  00088	00 00 00 00	 DD	 $LN2@GetLevel
$LN16@GetLevel:
  0008c	00		 DB	 0
  0008d	00		 DB	 0
  0008e	00		 DB	 0
  0008f	01		 DB	 1
  00090	01		 DB	 1
  00091	01		 DB	 1
  00092	02		 DB	 2
  00093	02		 DB	 2
  00094	02		 DB	 2
  00095	02		 DB	 2
  00096	02		 DB	 2
  00097	02		 DB	 2
  00098	02		 DB	 2
  00099	02		 DB	 2
  0009a	02		 DB	 2
  0009b	02		 DB	 2
  0009c	02		 DB	 2
  0009d	02		 DB	 2
  0009e	01		 DB	 1
  0009f	02		 DB	 2
  000a0	02		 DB	 2
  000a1	02		 DB	 2
  000a2	02		 DB	 2
  000a3	02		 DB	 2
  000a4	02		 DB	 2
  000a5	03		 DB	 3
  000a6	03		 DB	 3
  000a7	03		 DB	 3
  000a8	03		 DB	 3
  000a9	03		 DB	 3
  000aa	03		 DB	 3
  000ab	03		 DB	 3
  000ac	03		 DB	 3
  000ad	03		 DB	 3
  000ae	03		 DB	 3
  000af	03		 DB	 3
  000b0	03		 DB	 3
  000b1	03		 DB	 3
  000b2	03		 DB	 3
  000b3	03		 DB	 3
  000b4	03		 DB	 3
  000b5	03		 DB	 3
  000b6	03		 DB	 3
  000b7	03		 DB	 3
  000b8	03		 DB	 3
  000b9	03		 DB	 3
  000ba	03		 DB	 3
  000bb	03		 DB	 3
  000bc	03		 DB	 3
  000bd	03		 DB	 3
  000be	03		 DB	 3
  000bf	03		 DB	 3
  000c0	03		 DB	 3
  000c1	03		 DB	 3
  000c2	03		 DB	 3
  000c3	03		 DB	 3
  000c4	03		 DB	 3
  000c5	03		 DB	 3
  000c6	03		 DB	 3
  000c7	03		 DB	 3
  000c8	03		 DB	 3
  000c9	03		 DB	 3
  000ca	03		 DB	 3
  000cb	03		 DB	 3
  000cc	03		 DB	 3
  000cd	03		 DB	 3
  000ce	03		 DB	 3
  000cf	03		 DB	 3
  000d0	03		 DB	 3
  000d1	03		 DB	 3
  000d2	03		 DB	 3
  000d3	03		 DB	 3
  000d4	03		 DB	 3
  000d5	03		 DB	 3
  000d6	03		 DB	 3
  000d7	03		 DB	 3
  000d8	03		 DB	 3
  000d9	03		 DB	 3
  000da	03		 DB	 3
  000db	03		 DB	 3
  000dc	03		 DB	 3
  000dd	03		 DB	 3
  000de	03		 DB	 3
  000df	03		 DB	 3
  000e0	03		 DB	 3
  000e1	03		 DB	 3
  000e2	03		 DB	 3
  000e3	03		 DB	 3
  000e4	03		 DB	 3
  000e5	03		 DB	 3
  000e6	03		 DB	 3
  000e7	03		 DB	 3
  000e8	03		 DB	 3
  000e9	03		 DB	 3
  000ea	03		 DB	 3
  000eb	03		 DB	 3
  000ec	03		 DB	 3
  000ed	03		 DB	 3
  000ee	03		 DB	 3
  000ef	03		 DB	 3
  000f0	03		 DB	 3
  000f1	03		 DB	 3
  000f2	03		 DB	 3
  000f3	03		 DB	 3
  000f4	03		 DB	 3
  000f5	03		 DB	 3
  000f6	03		 DB	 3
  000f7	03		 DB	 3
  000f8	03		 DB	 3
  000f9	03		 DB	 3
  000fa	03		 DB	 3
  000fb	03		 DB	 3
  000fc	03		 DB	 3
  000fd	03		 DB	 3
  000fe	03		 DB	 3
  000ff	03		 DB	 3
  00100	03		 DB	 3
  00101	03		 DB	 3
  00102	01		 DB	 1
  00103	01		 DB	 1
  00104	01		 DB	 1
  00105	01		 DB	 1
?GetLevel@SHORSE@CInstanceBase@@QAEIXZ ENDP		; CInstanceBase::SHORSE::GetLevel
_TEXT	ENDS
; Function compile flags: /Ogtp
; File D:\Metin2 Server Files\mainline\SRC_2014\Metin2Client\UserInterface\InstanceBase.cpp
;	COMDAT ?CanUseSkill@SHORSE@CInstanceBase@@QAE_NXZ
_TEXT	SEGMENT
?CanUseSkill@SHORSE@CInstanceBase@@QAE_NXZ PROC		; CInstanceBase::SHORSE::CanUseSkill, COMDAT
; _this$ = ecx

; 207  : {

  00000	56		 push	 esi
  00001	8b f1		 mov	 esi, ecx

; 208  : 	//    3  .
; 209  : 	if (IsMounting())

  00003	e8 00 00 00 00	 call	 ?IsMounting@SHORSE@CInstanceBase@@QAE_NXZ ; CInstanceBase::SHORSE::IsMounting
  00008	84 c0		 test	 al, al
  0000a	74 0f		 je	 SHORT $LN2@CanUseSkil

; 210  : 		return 2 < GetLevel();

  0000c	8b ce		 mov	 ecx, esi
  0000e	e8 00 00 00 00	 call	 ?GetLevel@SHORSE@CInstanceBase@@QAEIXZ ; CInstanceBase::SHORSE::GetLevel
  00013	83 f8 02	 cmp	 eax, 2
  00016	5e		 pop	 esi
  00017	0f 97 c0	 seta	 al

; 213  : }

  0001a	c3		 ret	 0
$LN2@CanUseSkil:

; 211  : 
; 212  : 	return true;

  0001b	b0 01		 mov	 al, 1
  0001d	5e		 pop	 esi

; 213  : }

  0001e	c3		 ret	 0
?CanUseSkill@SHORSE@CInstanceBase@@QAE_NXZ ENDP		; CInstanceBase::SHORSE::CanUseSkill
_TEXT	ENDS
; Function compile flags: /Ogtp
; File D:\Metin2 Server Files\mainline\SRC_2014\Metin2Client\UserInterface\InstanceBase.cpp
;	COMDAT ?CanAttack@SHORSE@CInstanceBase@@QAE_NXZ
_TEXT	SEGMENT
?CanAttack@SHORSE@CInstanceBase@@QAE_NXZ PROC		; CInstanceBase::SHORSE::CanAttack, COMDAT
; _this$ = ecx

; 216  : {

  00000	56		 push	 esi
  00001	8b f1		 mov	 esi, ecx

; 217  : 	if (IsMounting())

  00003	e8 00 00 00 00	 call	 ?IsMounting@SHORSE@CInstanceBase@@QAE_NXZ ; CInstanceBase::SHORSE::IsMounting
  00008	84 c0		 test	 al, al
  0000a	74 10		 je	 SHORT $LN3@CanAttack

; 218  : 		if (GetLevel()<=1)

  0000c	8b ce		 mov	 ecx, esi
  0000e	e8 00 00 00 00	 call	 ?GetLevel@SHORSE@CInstanceBase@@QAEIXZ ; CInstanceBase::SHORSE::GetLevel
  00013	83 f8 01	 cmp	 eax, 1
  00016	77 04		 ja	 SHORT $LN3@CanAttack

; 219  : 			return false;

  00018	32 c0		 xor	 al, al
  0001a	5e		 pop	 esi

; 222  : }

  0001b	c3		 ret	 0
$LN3@CanAttack:

; 220  : 
; 221  : 	return true;

  0001c	b0 01		 mov	 al, 1
  0001e	5e		 pop	 esi

; 222  : }

  0001f	c3		 ret	 0
?CanAttack@SHORSE@CInstanceBase@@QAE_NXZ ENDP		; CInstanceBase::SHORSE::CanAttack
_TEXT	ENDS
; Function compile flags: /Ogtp
; File D:\Metin2 Server Files\mainline\SRC_2014\Metin2Client\UserInterface\InstanceBase.cpp
;	COMDAT ?IsMounting@SHORSE@CInstanceBase@@QAE_NXZ
_TEXT	SEGMENT
?IsMounting@SHORSE@CInstanceBase@@QAE_NXZ PROC		; CInstanceBase::SHORSE::IsMounting, COMDAT
; _this$ = ecx

; 226  : 	return m_isMounting;

  00000	8a 01		 mov	 al, BYTE PTR [ecx]

; 227  : }

  00002	c3		 ret	 0
?IsMounting@SHORSE@CInstanceBase@@QAE_NXZ ENDP		; CInstanceBase::SHORSE::IsMounting
_TEXT	ENDS
; Function compile flags: /Ogtp
; File D:\Metin2 Server Files\mainline\SRC_2014\Metin2Client\UserInterface\InstanceBase.cpp
;	COMDAT ?GetActorPtr@SHORSE@CInstanceBase@@QAEPAVCActorInstance@@XZ
_TEXT	SEGMENT
?GetActorPtr@SHORSE@CInstanceBase@@QAEPAVCActorInstance@@XZ PROC ; CInstanceBase::SHORSE::GetActorPtr, COMDAT
; _this$ = ecx

; 121  : 	return m_pkActor;

  00000	8b 41 04	 mov	 eax, DWORD PTR [ecx+4]

; 122  : }

  00003	c3		 ret	 0
?GetActorPtr@SHORSE@CInstanceBase@@QAEPAVCActorInstance@@XZ ENDP ; CInstanceBase::SHORSE::GetActorPtr
_TEXT	ENDS
; Function compile flags: /Ogtp
; File D:\Metin2 Server Files\mainline\SRC_2014\Metin2Client\UserInterface\InstanceBase.cpp
;	COMDAT ?GetActorRef@SHORSE@CInstanceBase@@QAEAAVCActorInstance@@XZ
_TEXT	SEGMENT
?GetActorRef@SHORSE@CInstanceBase@@QAEAAVCActorInstance@@XZ PROC ; CInstanceBase::SHORSE::GetActorRef, COMDAT
; _this$ = ecx

; 115  : 	assert(NULL!=m_pkActor && "CInstanceBase::SHORSE::GetActorRef");
; 116  : 	return *m_pkActor;

  00000	8b 41 04	 mov	 eax, DWORD PTR [ecx+4]

; 117  : }

  00003	c3		 ret	 0
?GetActorRef@SHORSE@CInstanceBase@@QAEAAVCActorInstance@@XZ ENDP ; CInstanceBase::SHORSE::GetActorRef
_TEXT	ENDS
; Function compile flags: /Ogtp
; File D:\Metin2 Server Files\mainline\SRC_2014\Metin2Client\UserInterface\InstanceBase.cpp
;	COMDAT ?Render@SHORSE@CInstanceBase@@QAEXXZ
_TEXT	SEGMENT
?Render@SHORSE@CInstanceBase@@QAEXXZ PROC		; CInstanceBase::SHORSE::Render, COMDAT
; _this$ = ecx

; 239  : {

  00000	56		 push	 esi
  00001	8b f1		 mov	 esi, ecx

; 240  : 	if (!IsMounting())

  00003	e8 00 00 00 00	 call	 ?IsMounting@SHORSE@CInstanceBase@@QAE_NXZ ; CInstanceBase::SHORSE::IsMounting
  00008	84 c0		 test	 al, al
  0000a	74 0f		 je	 SHORT $LN1@Render

; 241  : 		return;
; 242  : 
; 243  : 	CActorInstance& rkActor=GetActorRef();

  0000c	8b ce		 mov	 ecx, esi
  0000e	e8 00 00 00 00	 call	 ?GetActorRef@SHORSE@CInstanceBase@@QAEAAVCActorInstance@@XZ ; CInstanceBase::SHORSE::GetActorRef

; 244  : 	rkActor.Render();

  00013	8b c8		 mov	 ecx, eax
  00015	5e		 pop	 esi
  00016	e9 00 00 00 00	 jmp	 ?Render@CGraphicObjectInstance@@QAE_NXZ ; CGraphicObjectInstance::Render
$LN1@Render:
  0001b	5e		 pop	 esi

; 245  : }

  0001c	c3		 ret	 0
?Render@SHORSE@CInstanceBase@@QAEXXZ ENDP		; CInstanceBase::SHORSE::Render
_TEXT	ENDS
; Function compile flags: /Ogtp
; File D:\Metin2 Server Files\mainline\SRC_2014\Metin2Client\UserInterface\InstanceBase.cpp
;	COMDAT ?Deform@SHORSE@CInstanceBase@@QAEXXZ
_TEXT	SEGMENT
?Deform@SHORSE@CInstanceBase@@QAEXXZ PROC		; CInstanceBase::SHORSE::Deform, COMDAT
; _this$ = ecx

; 230  : {

  00000	56		 push	 esi
  00001	8b f1		 mov	 esi, ecx

; 231  : 	if (!IsMounting())

  00003	e8 00 00 00 00	 call	 ?IsMounting@SHORSE@CInstanceBase@@QAE_NXZ ; CInstanceBase::SHORSE::IsMounting
  00008	84 c0		 test	 al, al
  0000a	74 0f		 je	 SHORT $LN1@Deform

; 232  : 		return;
; 233  : 
; 234  : 	CActorInstance& rkActor=GetActorRef();

  0000c	8b ce		 mov	 ecx, esi
  0000e	e8 00 00 00 00	 call	 ?GetActorRef@SHORSE@CInstanceBase@@QAEAAVCActorInstance@@XZ ; CInstanceBase::SHORSE::GetActorRef

; 235  : 	rkActor.INSTANCEBASE_Deform();

  00013	8b c8		 mov	 ecx, eax
  00015	5e		 pop	 esi
  00016	e9 00 00 00 00	 jmp	 ?INSTANCEBASE_Deform@CActorInstance@@QAEXXZ ; CActorInstance::INSTANCEBASE_Deform
$LN1@Deform:
  0001b	5e		 pop	 esi

; 236  : }

  0001c	c3		 ret	 0
?Deform@SHORSE@CInstanceBase@@QAEXXZ ENDP		; CInstanceBase::SHORSE::Deform
_TEXT	ENDS
; Function compile flags: /Ogtp
; File D:\Metin2 Server Files\mainline\SRC_2014\Metin2Client\UserInterface\InstanceBase.cpp
;	COMDAT ?SetMoveSpeed@SHORSE@CInstanceBase@@QAEXI@Z
_TEXT	SEGMENT
_uMovSpd$ = 8						; size = 4
?SetMoveSpeed@SHORSE@CInstanceBase@@QAEXI@Z PROC	; CInstanceBase::SHORSE::SetMoveSpeed, COMDAT
; _this$ = ecx

; 64   : {	

  00000	55		 push	 ebp
  00001	8b ec		 mov	 ebp, esp
  00003	56		 push	 esi
  00004	8b f1		 mov	 esi, ecx

; 65   : 	if (!IsMounting())

  00006	e8 00 00 00 00	 call	 ?IsMounting@SHORSE@CInstanceBase@@QAE_NXZ ; CInstanceBase::SHORSE::IsMounting
  0000b	84 c0		 test	 al, al
  0000d	74 37		 je	 SHORT $LN1@SetMoveSpe

; 66   : 		return;
; 67   : 
; 68   : 	CActorInstance& rkActor=GetActorRef();

  0000f	8b ce		 mov	 ecx, esi
  00011	e8 00 00 00 00	 call	 ?GetActorRef@SHORSE@CInstanceBase@@QAEAAVCActorInstance@@XZ ; CInstanceBase::SHORSE::GetActorRef

; 69   : 	rkActor.SetMoveSpeed(uMovSpd/100.0f);

  00016	8b 4d 08	 mov	 ecx, DWORD PTR _uMovSpd$[ebp]
  00019	66 0f 6e c1	 movd	 xmm0, ecx
  0001d	f3 0f e6 c0	 cvtdq2pd xmm0, xmm0
  00021	c1 e9 1f	 shr	 ecx, 31			; 0000001fH
  00024	51		 push	 ecx
  00025	f2 0f 58 04 cd
	00 00 00 00	 addsd	 xmm0, QWORD PTR __xmm@41f00000000000000000000000000000[ecx*8]
  0002e	8b c8		 mov	 ecx, eax
  00030	66 0f 5a c0	 cvtpd2ps xmm0, xmm0
  00034	f3 0f 5e 05 00
	00 00 00	 divss	 xmm0, DWORD PTR __real@42c80000
  0003c	f3 0f 11 04 24	 movss	 DWORD PTR [esp], xmm0
  00041	e8 00 00 00 00	 call	 ?SetMoveSpeed@CActorInstance@@QAEXM@Z ; CActorInstance::SetMoveSpeed
$LN1@SetMoveSpe:
  00046	5e		 pop	 esi

; 70   : }

  00047	5d		 pop	 ebp
  00048	c2 04 00	 ret	 4
?SetMoveSpeed@SHORSE@CInstanceBase@@QAEXI@Z ENDP	; CInstanceBase::SHORSE::SetMoveSpeed
_TEXT	ENDS
; Function compile flags: /Ogtp
; File D:\Metin2 Server Files\mainline\SRC_2014\Metin2Client\UserInterface\InstanceBase.cpp
;	COMDAT ?SetAttackSpeed@SHORSE@CInstanceBase@@QAEXI@Z
_TEXT	SEGMENT
_uAtkSpd$ = 8						; size = 4
?SetAttackSpeed@SHORSE@CInstanceBase@@QAEXI@Z PROC	; CInstanceBase::SHORSE::SetAttackSpeed, COMDAT
; _this$ = ecx

; 55   : {

  00000	55		 push	 ebp
  00001	8b ec		 mov	 ebp, esp
  00003	56		 push	 esi
  00004	8b f1		 mov	 esi, ecx

; 56   : 	if (!IsMounting())

  00006	e8 00 00 00 00	 call	 ?IsMounting@SHORSE@CInstanceBase@@QAE_NXZ ; CInstanceBase::SHORSE::IsMounting
  0000b	84 c0		 test	 al, al
  0000d	74 37		 je	 SHORT $LN1@SetAttackS

; 57   : 		return;
; 58   : 
; 59   : 	CActorInstance& rkActor=GetActorRef();

  0000f	8b ce		 mov	 ecx, esi
  00011	e8 00 00 00 00	 call	 ?GetActorRef@SHORSE@CInstanceBase@@QAEAAVCActorInstance@@XZ ; CInstanceBase::SHORSE::GetActorRef

; 60   : 	rkActor.SetAttackSpeed(uAtkSpd/100.0f);	

  00016	8b 4d 08	 mov	 ecx, DWORD PTR _uAtkSpd$[ebp]
  00019	66 0f 6e c1	 movd	 xmm0, ecx
  0001d	f3 0f e6 c0	 cvtdq2pd xmm0, xmm0
  00021	c1 e9 1f	 shr	 ecx, 31			; 0000001fH
  00024	51		 push	 ecx
  00025	f2 0f 58 04 cd
	00 00 00 00	 addsd	 xmm0, QWORD PTR __xmm@41f00000000000000000000000000000[ecx*8]
  0002e	8b c8		 mov	 ecx, eax
  00030	66 0f 5a c0	 cvtpd2ps xmm0, xmm0
  00034	f3 0f 5e 05 00
	00 00 00	 divss	 xmm0, DWORD PTR __real@42c80000
  0003c	f3 0f 11 04 24	 movss	 DWORD PTR [esp], xmm0
  00041	e8 00 00 00 00	 call	 ?SetAttackSpeed@CActorInstance@@QAEXM@Z ; CActorInstance::SetAttackSpeed
$LN1@SetAttackS:
  00046	5e		 pop	 esi

; 61   : }

  00047	5d		 pop	 ebp
  00048	c2 04 00	 ret	 4
?SetAttackSpeed@SHORSE@CInstanceBase@@QAEXI@Z ENDP	; CInstanceBase::SHORSE::SetAttackSpeed
_TEXT	ENDS
; Function compile flags: /Ogtp
; File D:\Metin2 Server Files\mainline\SRC_2014\Metin2Client\UserInterface\InstanceBase.cpp
;	COMDAT ?Create@SHORSE@CInstanceBase@@QAEXABUD3DXVECTOR3@@II@Z
_TEXT	SEGMENT
$T2 = -16						; size = 4
__$EHRec$ = -12						; size = 12
_c_rkPPos$ = 8						; size = 4
_eRace$ = 12						; size = 4
_eHitEffect$ = 16					; size = 4
?Create@SHORSE@CInstanceBase@@QAEXABUD3DXVECTOR3@@II@Z PROC ; CInstanceBase::SHORSE::Create, COMDAT
; _this$ = ecx

; 73   : {

  00000	55		 push	 ebp
  00001	8b ec		 mov	 ebp, esp
  00003	6a ff		 push	 -1
  00005	68 00 00 00 00	 push	 __ehhandler$?Create@SHORSE@CInstanceBase@@QAEXABUD3DXVECTOR3@@II@Z
  0000a	64 a1 00 00 00
	00		 mov	 eax, DWORD PTR fs:0
  00010	50		 push	 eax
  00011	51		 push	 ecx
  00012	56		 push	 esi
  00013	57		 push	 edi
  00014	a1 00 00 00 00	 mov	 eax, DWORD PTR ___security_cookie
  00019	33 c5		 xor	 eax, ebp
  0001b	50		 push	 eax
  0001c	8d 45 f4	 lea	 eax, DWORD PTR __$EHRec$[ebp]
  0001f	64 a3 00 00 00
	00		 mov	 DWORD PTR fs:0, eax
  00025	8b f1		 mov	 esi, ecx

; 74   : 	assert(NULL==m_pkActor && "CInstanceBase::SHORSE::Create - ALREADY MOUNT");
; 75   : 
; 76   : 	m_pkActor=new CActorInstance;

  00027	68 b0 04 00 00	 push	 1200			; 000004b0H
  0002c	e8 00 00 00 00	 call	 ??2@YAPAXI@Z		; operator new
  00031	83 c4 04	 add	 esp, 4
  00034	89 45 f0	 mov	 DWORD PTR $T2[ebp], eax
  00037	c7 45 fc 00 00
	00 00		 mov	 DWORD PTR __$EHRec$[ebp+8], 0
  0003e	85 c0		 test	 eax, eax
  00040	74 09		 je	 SHORT $LN4@Create
  00042	8b c8		 mov	 ecx, eax
  00044	e8 00 00 00 00	 call	 ??0CActorInstance@@QAE@XZ ; CActorInstance::CActorInstance
  00049	eb 02		 jmp	 SHORT $LN5@Create
$LN4@Create:
  0004b	33 c0		 xor	 eax, eax
$LN5@Create:

; 77   : 
; 78   : 	CActorInstance& rkActor=GetActorRef();

  0004d	8b ce		 mov	 ecx, esi
  0004f	c7 45 fc ff ff
	ff ff		 mov	 DWORD PTR __$EHRec$[ebp+8], -1
  00056	89 46 04	 mov	 DWORD PTR [esi+4], eax
  00059	e8 00 00 00 00	 call	 ?GetActorRef@SHORSE@CInstanceBase@@QAEAAVCActorInstance@@XZ ; CInstanceBase::SHORSE::GetActorRef
  0005e	8b f8		 mov	 edi, eax

; 79   : 	rkActor.SetEventHandler(CActorInstance::IEventHandler::GetEmptyPtr());

  00060	e8 00 00 00 00	 call	 ?GetEmptyPtr@IEventHandler@CActorInstance@@SAPAV12@XZ ; CActorInstance::IEventHandler::GetEmptyPtr
  00065	50		 push	 eax
  00066	8b cf		 mov	 ecx, edi
  00068	e8 00 00 00 00	 call	 ?SetEventHandler@CActorInstance@@QAEXPAVIEventHandler@1@@Z ; CActorInstance::SetEventHandler

; 80   : 	if (!rkActor.SetRace(eRace))

  0006d	ff 75 0c	 push	 DWORD PTR _eRace$[ebp]
  00070	8b cf		 mov	 ecx, edi
  00072	e8 00 00 00 00	 call	 ?SetRace@CActorInstance@@QAE_NK@Z ; CActorInstance::SetRace
  00077	84 c0		 test	 al, al
  00079	75 27		 jne	 SHORT $LN2@Create

; 81   : 	{
; 82   : 		delete m_pkActor;

  0007b	8b 4e 04	 mov	 ecx, DWORD PTR [esi+4]
  0007e	85 c9		 test	 ecx, ecx
  00080	74 06		 je	 SHORT $LN6@Create
  00082	8b 01		 mov	 eax, DWORD PTR [ecx]
  00084	6a 01		 push	 1
  00086	ff 10		 call	 DWORD PTR [eax]
$LN6@Create:

; 83   : 		m_pkActor=NULL;

  00088	c7 46 04 00 00
	00 00		 mov	 DWORD PTR [esi+4], 0

; 100  : }

  0008f	8b 4d f4	 mov	 ecx, DWORD PTR __$EHRec$[ebp]
  00092	64 89 0d 00 00
	00 00		 mov	 DWORD PTR fs:0, ecx
  00099	59		 pop	 ecx
  0009a	5f		 pop	 edi
  0009b	5e		 pop	 esi
  0009c	8b e5		 mov	 esp, ebp
  0009e	5d		 pop	 ebp
  0009f	c2 0c 00	 ret	 12			; 0000000cH
$LN2@Create:

; 84   : 		return;
; 85   : 	}
; 86   : 
; 87   : 	rkActor.SetShape(0);

  000a2	51		 push	 ecx
  000a3	c7 04 24 00 00
	00 00		 mov	 DWORD PTR [esp], 0
  000aa	8b cf		 mov	 ecx, edi
  000ac	6a 00		 push	 0
  000ae	e8 00 00 00 00	 call	 ?SetShape@CActorInstance@@QAEXKM@Z ; CActorInstance::SetShape

; 88   : 	rkActor.SetBattleHitEffect(eHitEffect);

  000b3	ff 75 10	 push	 DWORD PTR _eHitEffect$[ebp]
  000b6	8b cf		 mov	 ecx, edi
  000b8	e8 00 00 00 00	 call	 ?SetBattleHitEffect@CActorInstance@@QAEXK@Z ; CActorInstance::SetBattleHitEffect

; 89   : 	rkActor.SetAlphaValue(0.0f);

  000bd	51		 push	 ecx
  000be	8b cf		 mov	 ecx, edi
  000c0	c7 04 24 00 00
	00 00		 mov	 DWORD PTR [esp], 0
  000c7	e8 00 00 00 00	 call	 ?SetAlphaValue@CActorInstance@@QAEXM@Z ; CActorInstance::SetAlphaValue

; 90   : 	rkActor.BlendAlphaValue(1.0f, 0.5f);

  000cc	83 ec 08	 sub	 esp, 8
  000cf	8b cf		 mov	 ecx, edi
  000d1	c7 44 24 04 00
	00 00 3f	 mov	 DWORD PTR [esp+4], 1056964608 ; 3f000000H
  000d9	c7 04 24 00 00
	80 3f		 mov	 DWORD PTR [esp], 1065353216 ; 3f800000H
  000e0	e8 00 00 00 00	 call	 ?BlendAlphaValue@CActorInstance@@QAEXMM@Z ; CActorInstance::BlendAlphaValue

; 91   : 	rkActor.SetMoveSpeed(1.0f);

  000e5	51		 push	 ecx
  000e6	8b cf		 mov	 ecx, edi
  000e8	c7 04 24 00 00
	80 3f		 mov	 DWORD PTR [esp], 1065353216 ; 3f800000H
  000ef	e8 00 00 00 00	 call	 ?SetMoveSpeed@CActorInstance@@QAEXM@Z ; CActorInstance::SetMoveSpeed

; 92   : 	rkActor.SetAttackSpeed(1.0f);

  000f4	51		 push	 ecx
  000f5	8b cf		 mov	 ecx, edi
  000f7	c7 04 24 00 00
	80 3f		 mov	 DWORD PTR [esp], 1065353216 ; 3f800000H
  000fe	e8 00 00 00 00	 call	 ?SetAttackSpeed@CActorInstance@@QAEXM@Z ; CActorInstance::SetAttackSpeed

; 93   : 	rkActor.SetMotionMode(CRaceMotionData::MODE_GENERAL);

  00103	6a 01		 push	 1
  00105	8b cf		 mov	 ecx, edi
  00107	e8 00 00 00 00	 call	 ?SetMotionMode@CActorInstance@@QAEXH@Z ; CActorInstance::SetMotionMode

; 94   : 	rkActor.Stop();

  0010c	51		 push	 ecx
  0010d	8b cf		 mov	 ecx, edi
  0010f	c7 04 24 9a 99
	19 3e		 mov	 DWORD PTR [esp], 1041865114 ; 3e19999aH
  00116	e8 00 00 00 00	 call	 ?Stop@CActorInstance@@QAEXM@Z ; CActorInstance::Stop

; 95   : 	rkActor.RefreshActorInstance();

  0011b	8b cf		 mov	 ecx, edi
  0011d	e8 00 00 00 00	 call	 ?RefreshActorInstance@CActorInstance@@QAEXXZ ; CActorInstance::RefreshActorInstance

; 96   : 
; 97   : 	rkActor.SetCurPixelPosition(c_rkPPos);

  00122	ff 75 08	 push	 DWORD PTR _c_rkPPos$[ebp]
  00125	8b cf		 mov	 ecx, edi
  00127	e8 00 00 00 00	 call	 ?SetCurPixelPosition@CActorInstance@@QAEXABUD3DXVECTOR3@@@Z ; CActorInstance::SetCurPixelPosition

; 98   : 
; 99   : 	m_isMounting=true;

  0012c	c6 06 01	 mov	 BYTE PTR [esi], 1

; 100  : }

  0012f	8b 4d f4	 mov	 ecx, DWORD PTR __$EHRec$[ebp]
  00132	64 89 0d 00 00
	00 00		 mov	 DWORD PTR fs:0, ecx
  00139	59		 pop	 ecx
  0013a	5f		 pop	 edi
  0013b	5e		 pop	 esi
  0013c	8b e5		 mov	 esp, ebp
  0013e	5d		 pop	 ebp
  0013f	c2 0c 00	 ret	 12			; 0000000cH
_TEXT	ENDS
;	COMDAT text$x
text$x	SEGMENT
__unwindfunclet$?Create@SHORSE@CInstanceBase@@QAEXABUD3DXVECTOR3@@II@Z$0:
  00000	68 b0 04 00 00	 push	 1200			; 000004b0H
  00005	8b 45 f0	 mov	 eax, DWORD PTR $T2[ebp]
  00008	50		 push	 eax
  00009	e8 00 00 00 00	 call	 ??3@YAXPAXI@Z		; operator delete
  0000e	83 c4 08	 add	 esp, 8
  00011	c3		 ret	 0
  00012	cc		 int	 3
  00013	cc		 int	 3
  00014	cc		 int	 3
  00015	cc		 int	 3
  00016	cc		 int	 3
__ehhandler$?Create@SHORSE@CInstanceBase@@QAEXABUD3DXVECTOR3@@II@Z:
  00017	90		 npad	 1
  00018	90		 npad	 1
  00019	8b 54 24 08	 mov	 edx, DWORD PTR [esp+8]
  0001d	8d 42 0c	 lea	 eax, DWORD PTR [edx+12]
  00020	8b 4a f0	 mov	 ecx, DWORD PTR [edx-16]
  00023	33 c8		 xor	 ecx, eax
  00025	e8 00 00 00 00	 call	 @__security_check_cookie@4
  0002a	b8 00 00 00 00	 mov	 eax, OFFSET __ehfuncinfo$?Create@SHORSE@CInstanceBase@@QAEXABUD3DXVECTOR3@@II@Z
  0002f	e9 00 00 00 00	 jmp	 ___CxxFrameHandler3
text$x	ENDS
?Create@SHORSE@CInstanceBase@@QAEXABUD3DXVECTOR3@@II@Z ENDP ; CInstanceBase::SHORSE::Create
; Function compile flags: /Ogtp
; File D:\Metin2 Server Files\mainline\SRC_2014\Metin2Client\UserInterface\InstanceBase.cpp
;	COMDAT ?Destroy@SHORSE@CInstanceBase@@QAEXXZ
_TEXT	SEGMENT
?Destroy@SHORSE@CInstanceBase@@QAEXXZ PROC		; CInstanceBase::SHORSE::Destroy, COMDAT
; _this$ = ecx

; 103  : {

  00000	56		 push	 esi
  00001	8b f1		 mov	 esi, ecx

; 104  : 	if (m_pkActor)

  00003	8b 4e 04	 mov	 ecx, DWORD PTR [esi+4]
  00006	85 c9		 test	 ecx, ecx
  00008	74 12		 je	 SHORT $LN4@Destroy

; 105  : 	{
; 106  : 		m_pkActor->Destroy();

  0000a	e8 00 00 00 00	 call	 ?Destroy@CActorInstance@@QAEXXZ ; CActorInstance::Destroy

; 107  : 		delete m_pkActor;	

  0000f	8b 4e 04	 mov	 ecx, DWORD PTR [esi+4]
  00012	85 c9		 test	 ecx, ecx
  00014	74 06		 je	 SHORT $LN4@Destroy
  00016	8b 01		 mov	 eax, DWORD PTR [ecx]
  00018	6a 01		 push	 1
  0001a	ff 10		 call	 DWORD PTR [eax]
$LN4@Destroy:

; 108  : 	}	
; 109  : 
; 110  : 	__Initialize();

  0001c	8b ce		 mov	 ecx, esi
  0001e	5e		 pop	 esi
  0001f	e9 00 00 00 00	 jmp	 ?__Initialize@SHORSE@CInstanceBase@@QAEXXZ ; CInstanceBase::SHORSE::__Initialize
?Destroy@SHORSE@CInstanceBase@@QAEXXZ ENDP		; CInstanceBase::SHORSE::Destroy
_TEXT	ENDS
; Function compile flags: /Ogtp
; File D:\Metin2 Server Files\mainline\SRC_2014\Metin2Client\UserInterface\InstanceBase.cpp
;	COMDAT ??1SHORSE@CInstanceBase@@QAE@XZ
_TEXT	SEGMENT
??1SHORSE@CInstanceBase@@QAE@XZ PROC			; CInstanceBase::SHORSE::~SHORSE, COMDAT
; _this$ = ecx

; 45   : 	assert(m_pkActor==NULL);
; 46   : }

  00000	c2 00 00	 ret	 0
??1SHORSE@CInstanceBase@@QAE@XZ ENDP			; CInstanceBase::SHORSE::~SHORSE
_TEXT	ENDS
; Function compile flags: /Ogtp
; File D:\Metin2 Server Files\mainline\SRC_2014\Metin2Client\UserInterface\InstanceBase.cpp
;	COMDAT ??0SHORSE@CInstanceBase@@QAE@XZ
_TEXT	SEGMENT
??0SHORSE@CInstanceBase@@QAE@XZ PROC			; CInstanceBase::SHORSE::SHORSE, COMDAT
; _this$ = ecx

; 39   : {

  00000	56		 push	 esi
  00001	8b f1		 mov	 esi, ecx

; 40   : 	__Initialize();

  00003	e8 00 00 00 00	 call	 ?__Initialize@SHORSE@CInstanceBase@@QAEXXZ ; CInstanceBase::SHORSE::__Initialize

; 41   : }

  00008	8b c6		 mov	 eax, esi
  0000a	5e		 pop	 esi
  0000b	c3		 ret	 0
??0SHORSE@CInstanceBase@@QAE@XZ ENDP			; CInstanceBase::SHORSE::SHORSE
_TEXT	ENDS
; Function compile flags: /Ogtp
; File D:\Metin2 Server Files\mainline\SRC_2014\Metin2Client\UserInterface\InstanceBase.cpp
;	COMDAT ?__DetachHorseSaddle@CInstanceBase@@IAEXXZ
_TEXT	SEGMENT
?__DetachHorseSaddle@CInstanceBase@@IAEXXZ PROC		; CInstanceBase::__DetachHorseSaddle, COMDAT
; _this$ = ecx

; 255  : {

  00000	56		 push	 esi
  00001	8b f1		 mov	 esi, ecx

; 256  : 	if (!IsMountingHorse())

  00003	e8 00 00 00 00	 call	 ?IsMountingHorse@CInstanceBase@@QAEHXZ ; CInstanceBase::IsMountingHorse
  00008	85 c0		 test	 eax, eax
  0000a	74 13		 je	 SHORT $LN1@DetachHors

; 257  : 		return;
; 258  : 	m_kHorse.m_pkActor->DetachModelInstance(CRaceData::PART_MAIN, m_GraphicThingInstance, CRaceData::PART_MAIN);

  0000c	8b 4e 08	 mov	 ecx, DWORD PTR [esi+8]
  0000f	8d 86 d4 01 00
	00		 lea	 eax, DWORD PTR [esi+468]
  00015	6a 00		 push	 0
  00017	50		 push	 eax
  00018	6a 00		 push	 0
  0001a	e8 00 00 00 00	 call	 ?DetachModelInstance@CGraphicThingInstance@@QAEXHAAV1@H@Z ; CGraphicThingInstance::DetachModelInstance
$LN1@DetachHors:

; 259  : }

  0001f	5e		 pop	 esi
  00020	c3		 ret	 0
?__DetachHorseSaddle@CInstanceBase@@IAEXXZ ENDP		; CInstanceBase::__DetachHorseSaddle
_TEXT	ENDS
; Function compile flags: /Ogtp
; File D:\Metin2 Server Files\mainline\SRC_2014\Metin2Client\UserInterface\InstanceBase.cpp
;	COMDAT ?__AttachHorseSaddle@CInstanceBase@@IAEXXZ
_TEXT	SEGMENT
?__AttachHorseSaddle@CInstanceBase@@IAEXXZ PROC		; CInstanceBase::__AttachHorseSaddle, COMDAT
; _this$ = ecx

; 248  : {

  00000	56		 push	 esi
  00001	8b f1		 mov	 esi, ecx

; 249  : 	if (!IsMountingHorse())

  00003	e8 00 00 00 00	 call	 ?IsMountingHorse@CInstanceBase@@QAEHXZ ; CInstanceBase::IsMountingHorse
  00008	85 c0		 test	 eax, eax
  0000a	74 18		 je	 SHORT $LN1@AttachHors

; 250  : 		return;
; 251  : 	m_kHorse.m_pkActor->AttachModelInstance(CRaceData::PART_MAIN, "saddle", m_GraphicThingInstance, CRaceData::PART_MAIN);

  0000c	8b 4e 08	 mov	 ecx, DWORD PTR [esi+8]
  0000f	8d 86 d4 01 00
	00		 lea	 eax, DWORD PTR [esi+468]
  00015	6a 00		 push	 0
  00017	50		 push	 eax
  00018	68 00 00 00 00	 push	 OFFSET ??_C@_06PNAKCKLH@saddle@
  0001d	6a 00		 push	 0
  0001f	e8 00 00 00 00	 call	 ?AttachModelInstance@CGraphicThingInstance@@QAEXHPBDAAV1@H@Z ; CGraphicThingInstance::AttachModelInstance
$LN1@AttachHors:

; 252  : }

  00024	5e		 pop	 esi
  00025	c3		 ret	 0
?__AttachHorseSaddle@CInstanceBase@@IAEXXZ ENDP		; CInstanceBase::__AttachHorseSaddle
_TEXT	ENDS
; Function compile flags: /Ogtp
; File D:\Metin2 Server Files\mainline\SRC_2014\Metin2Client\UserInterface\InstanceBase.cpp
;	COMDAT ?__IsInViewFrustum@CInstanceBase@@IAE_NXZ
_TEXT	SEGMENT
?__IsInViewFrustum@CInstanceBase@@IAE_NXZ PROC		; CInstanceBase::__IsInViewFrustum, COMDAT
; _this$ = ecx

; 2453 : 	return m_GraphicThingInstance.isShow();

  00000	81 c1 d4 01 00
	00		 add	 ecx, 468		; 000001d4H
  00006	e9 00 00 00 00	 jmp	 ?isShow@CGraphicObjectInstance@@QAE_NXZ ; CGraphicObjectInstance::isShow
?__IsInViewFrustum@CInstanceBase@@IAE_NXZ ENDP		; CInstanceBase::__IsInViewFrustum
_TEXT	ENDS
; Function compile flags: /Ogtp
; File D:\Metin2 Server Files\mainline\SRC_2014\Metin2Client\UserInterface\InstanceBase.cpp
;	COMDAT ?__CanRender@CInstanceBase@@IAE_NXZ
_TEXT	SEGMENT
?__CanRender@CInstanceBase@@IAE_NXZ PROC		; CInstanceBase::__CanRender, COMDAT
; _this$ = ecx

; 2457 : {

  00000	56		 push	 esi
  00001	8b f1		 mov	 esi, ecx

; 2458 : 	if (!__IsInViewFrustum())

  00003	e8 00 00 00 00	 call	 ?__IsInViewFrustum@CInstanceBase@@IAE_NXZ ; CInstanceBase::__IsInViewFrustum
  00008	84 c0		 test	 al, al
  0000a	74 11		 je	 SHORT $LN5@CanRender

; 2459 : 		return false;
; 2460 : 	if (IsAffect(AFFECT_INVISIBILITY))

  0000c	6a 01		 push	 1
  0000e	8b ce		 mov	 ecx, esi
  00010	e8 00 00 00 00	 call	 ?IsAffect@CInstanceBase@@QAE_NI@Z ; CInstanceBase::IsAffect
  00015	84 c0		 test	 al, al
  00017	75 04		 jne	 SHORT $LN5@CanRender

; 2462 : 
; 2463 : 	return true;

  00019	b0 01		 mov	 al, 1
  0001b	5e		 pop	 esi

; 2464 : }

  0001c	c3		 ret	 0
$LN5@CanRender:

; 2461 : 		return false;

  0001d	32 c0		 xor	 al, al
  0001f	5e		 pop	 esi

; 2464 : }

  00020	c3		 ret	 0
?__CanRender@CInstanceBase@@IAE_NXZ ENDP		; CInstanceBase::__CanRender
_TEXT	ENDS
; Function compile flags: /Ogtp
; File D:\Metin2 Server Files\mainline\SRC_2014\Metin2Client\UserInterface\InstanceBase.cpp
;	COMDAT ?__IsEnableTCPProcess@CInstanceBase@@IAEHI@Z
_TEXT	SEGMENT
_eCurFunc$ = 8						; size = 4
?__IsEnableTCPProcess@CInstanceBase@@IAEHI@Z PROC	; CInstanceBase::__IsEnableTCPProcess, COMDAT
; _this$ = ecx

; 1260 : {

  00000	55		 push	 ebp
  00001	8b ec		 mov	 ebp, esp
  00003	56		 push	 esi
  00004	8b f1		 mov	 esi, ecx

; 1261 : 	if (m_GraphicThingInstance.IsActEmotion())

  00006	8d 8e d4 01 00
	00		 lea	 ecx, DWORD PTR [esi+468]
  0000c	e8 00 00 00 00	 call	 ?IsActEmotion@CActorInstance@@QAEHXZ ; CActorInstance::IsActEmotion
  00011	85 c0		 test	 eax, eax
  00013	75 18		 jne	 SHORT $LN6@IsEnableTC

; 1262 : 	{
; 1263 : 		return FALSE;
; 1264 : 	}
; 1265 : 
; 1266 : 	if (!m_bEnableTCPState)

  00015	39 86 d0 01 00
	00		 cmp	 DWORD PTR [esi+464], eax
  0001b	75 06		 jne	 SHORT $LN4@IsEnableTC

; 1267 : 	{
; 1268 : 		if (FUNC_EMOTION != eCurFunc)

  0001d	83 7d 08 05	 cmp	 DWORD PTR _eCurFunc$[ebp], 5
  00021	75 0a		 jne	 SHORT $LN6@IsEnableTC
$LN4@IsEnableTC:

; 1271 : 		}
; 1272 : 	}
; 1273 : 
; 1274 : 	return TRUE;

  00023	b8 01 00 00 00	 mov	 eax, 1
  00028	5e		 pop	 esi

; 1275 : }

  00029	5d		 pop	 ebp
  0002a	c2 04 00	 ret	 4
$LN6@IsEnableTC:

; 1269 : 		{
; 1270 : 			return FALSE;

  0002d	33 c0		 xor	 eax, eax
  0002f	5e		 pop	 esi

; 1275 : }

  00030	5d		 pop	 ebp
  00031	c2 04 00	 ret	 4
?__IsEnableTCPProcess@CInstanceBase@@IAEHI@Z ENDP	; CInstanceBase::__IsEnableTCPProcess
_TEXT	ENDS
; Function compile flags: /Ogtp
; File D:\Metin2 Server Files\mainline\SRC_2014\Metin2Client\UserInterface\InstanceBase.cpp
; File D:\Metin2 Server Files\mainline\SRC_2014\Metin2Client\UserInterface\InstanceBase.h
; File D:\Metin2 Server Files\mainline\SRC_2014\Metin2Client\UserInterface\InstanceBase.cpp
; File D:\Metin2 Server Files\mainline\SRC_2014\Metin2Client\UserInterface\InstanceBase.h
; File D:\Metin2 Server Files\mainline\SRC_2014\Metin2Client\UserInterface\InstanceBase.cpp
; File D:\Metin2 Server Files\mainline\SRC_2014\Metin2Client\UserInterface\InstanceBase.h
; File D:\Metin2 Server Files\mainline\SRC_2014\Metin2Client\UserInterface\InstanceBase.cpp
;	COMDAT ?__ProcessFunctionEmotion@CInstanceBase@@IAEXKKABUD3DXVECTOR3@@@Z
_TEXT	SEGMENT
_this$1$ = -4						; size = 4
_dwMotionNumber$ = 8					; size = 4
_race$1$ = 12						; size = 4
_dwTargetVID$ = 12					; size = 4
_pTargetInstance$1$ = 16				; size = 4
_c_rkPosDst$ = 16					; size = 4
?__ProcessFunctionEmotion@CInstanceBase@@IAEXKKABUD3DXVECTOR3@@@Z PROC ; CInstanceBase::__ProcessFunctionEmotion, COMDAT
; _this$ = ecx

; 1816 : {

  00000	55		 push	 ebp
  00001	8b ec		 mov	 ebp, esp
  00003	51		 push	 ecx
  00004	53		 push	 ebx
  00005	8b d9		 mov	 ebx, ecx
  00007	57		 push	 edi
  00008	89 5d fc	 mov	 DWORD PTR _this$1$[ebp], ebx

; 1817 : 	if (IsWalking())

  0000b	e8 00 00 00 00	 call	 ?IsWalking@CInstanceBase@@QAEHXZ ; CInstanceBase::IsWalking
  00010	85 c0		 test	 eax, eax
  00012	74 07		 je	 SHORT $LN2@ProcessFun

; 1818 : 		EndWalkingWithoutBlending();

  00014	8b cb		 mov	 ecx, ebx
  00016	e8 00 00 00 00	 call	 ?EndWalkingWithoutBlending@CInstanceBase@@QAEXXZ ; CInstanceBase::EndWalkingWithoutBlending
$LN2@ProcessFun:

; 1819 : 
; 1820 : 	__EnableChangingTCPState();

  0001b	8b cb		 mov	 ecx, ebx
  0001d	e8 00 00 00 00	 call	 ?__EnableChangingTCPState@CInstanceBase@@IAEXXZ ; CInstanceBase::__EnableChangingTCPState

; 1821 : 	SCRIPT_SetPixelPosition(c_rkPosDst.x, c_rkPosDst.y);

  00022	8b 45 10	 mov	 eax, DWORD PTR _c_rkPosDst$[ebp]
  00025	83 ec 08	 sub	 esp, 8
  00028	8b cb		 mov	 ecx, ebx
  0002a	f3 0f 10 40 04	 movss	 xmm0, DWORD PTR [eax+4]
  0002f	f3 0f 11 44 24
	04		 movss	 DWORD PTR [esp+4], xmm0
  00035	f3 0f 10 00	 movss	 xmm0, DWORD PTR [eax]
  00039	f3 0f 11 04 24	 movss	 DWORD PTR [esp], xmm0
  0003e	e8 00 00 00 00	 call	 ?SCRIPT_SetPixelPosition@CInstanceBase@@QAEXMM@Z ; CInstanceBase::SCRIPT_SetPixelPosition

; 1822 : 
; 1823 : 	CInstanceBase * pTargetInstance = CPythonCharacterManager::Instance().GetInstancePtr(dwTargetVID);

  00043	8b 0d 00 00 00
	00		 mov	 ecx, DWORD PTR ?ms_singleton@?$CSingleton@VCPythonCharacterManager@@@@0PAVCPythonCharacterManager@@A ; CSingleton<CPythonCharacterManager>::ms_singleton
  00049	ff 75 0c	 push	 DWORD PTR _dwTargetVID$[ebp]
  0004c	83 c1 04	 add	 ecx, 4
  0004f	8b 01		 mov	 eax, DWORD PTR [ecx]
  00051	ff 50 08	 call	 DWORD PTR [eax+8]
  00054	8b f8		 mov	 edi, eax
  00056	89 7d 10	 mov	 DWORD PTR _pTargetInstance$1$[ebp], edi

; 1824 : 	if (pTargetInstance)

  00059	85 ff		 test	 edi, edi
  0005b	0f 84 21 01 00
	00		 je	 $LN5@ProcessFun

; 1825 : 	{
; 1826 : 		pTargetInstance->__EnableChangingTCPState();

  00061	8b cf		 mov	 ecx, edi
  00063	e8 00 00 00 00	 call	 ?__EnableChangingTCPState@CInstanceBase@@IAEXXZ ; CInstanceBase::__EnableChangingTCPState

; 1827 : 
; 1828 : 		if (pTargetInstance->IsWalking())

  00068	8b cf		 mov	 ecx, edi
  0006a	e8 00 00 00 00	 call	 ?IsWalking@CInstanceBase@@QAEHXZ ; CInstanceBase::IsWalking
  0006f	85 c0		 test	 eax, eax
  00071	74 07		 je	 SHORT $LN4@ProcessFun

; 1829 : 			pTargetInstance->EndWalkingWithoutBlending();

  00073	8b cf		 mov	 ecx, edi
  00075	e8 00 00 00 00	 call	 ?EndWalkingWithoutBlending@CInstanceBase@@QAEXXZ ; CInstanceBase::EndWalkingWithoutBlending
$LN4@ProcessFun:

; 1832 : 		WORD wMotionNumber2 = LOWORD(dwMotionNumber);
; 1833 : 
; 1834 : 		int src_job = RaceToJob(GetRace());

  0007a	56		 push	 esi
  0007b	8b cb		 mov	 ecx, ebx
  0007d	e8 00 00 00 00	 call	 ?GetRace@CInstanceBase@@QAEKXZ ; CInstanceBase::GetRace

; 1835 : 		int dst_job = RaceToJob(pTargetInstance->GetRace());

  00082	8b cf		 mov	 ecx, edi
  00084	89 45 0c	 mov	 DWORD PTR _race$1$[ebp], eax
  00087	e8 00 00 00 00	 call	 ?GetRace@CInstanceBase@@QAEKXZ ; CInstanceBase::GetRace

; 1836 : 
; 1837 : 		NEW_LookAtDestInstance(*pTargetInstance);

  0008c	57		 push	 edi
  0008d	8b cb		 mov	 ecx, ebx
  0008f	8b f0		 mov	 esi, eax
  00091	e8 00 00 00 00	 call	 ?NEW_LookAtDestInstance@CInstanceBase@@QAEXAAV1@@Z ; CInstanceBase::NEW_LookAtDestInstance

; 1838 : 		m_GraphicThingInstance.InterceptOnceMotion(wMotionNumber1 + dst_job);

  00096	8d bb d4 01 00
	00		 lea	 edi, DWORD PTR [ebx+468]
  0009c	51		 push	 ecx
  0009d	c7 04 24 00 00
	80 3f		 mov	 DWORD PTR [esp], 1065353216 ; 3f800000H
  000a4	6a 00		 push	 0
  000a6	51		 push	 ecx
  000a7	c7 04 24 cd cc
	cc 3d		 mov	 DWORD PTR [esp], 1036831949 ; 3dcccccdH
; File D:\Metin2 Server Files\mainline\SRC_2014\Metin2Client\UserInterface\InstanceBase.h

; 1109 : 	return race % JOB_NUM;

  000ae	81 e6 03 00 00
	80		 and	 esi, -2147483645	; 80000003H
  000b4	79 05		 jns	 SHORT $LN13@ProcessFun
  000b6	4e		 dec	 esi
  000b7	83 ce fc	 or	 esi, -4			; fffffffcH
  000ba	46		 inc	 esi
$LN13@ProcessFun:
; File D:\Metin2 Server Files\mainline\SRC_2014\Metin2Client\UserInterface\InstanceBase.cpp

; 1831 : 		WORD wMotionNumber1 = HIWORD(dwMotionNumber);

  000bb	8b 5d 08	 mov	 ebx, DWORD PTR _dwMotionNumber$[ebp]

; 1838 : 		m_GraphicThingInstance.InterceptOnceMotion(wMotionNumber1 + dst_job);

  000be	8b cf		 mov	 ecx, edi
  000c0	8b c3		 mov	 eax, ebx
  000c2	c1 e8 10	 shr	 eax, 16			; 00000010H
  000c5	03 f0		 add	 esi, eax
  000c7	56		 push	 esi
  000c8	e8 00 00 00 00	 call	 ?InterceptOnceMotion@CActorInstance@@QAE_NKMIM@Z ; CActorInstance::InterceptOnceMotion

; 1839 : 		m_GraphicThingInstance.SetRotation(m_GraphicThingInstance.GetTargetRotation());

  000cd	8b cf		 mov	 ecx, edi
  000cf	e8 00 00 00 00	 call	 ?GetTargetRotation@CActorInstance@@QAEMXZ ; CActorInstance::GetTargetRotation
  000d4	51		 push	 ecx
  000d5	8b cf		 mov	 ecx, edi
  000d7	d9 1c 24	 fstp	 DWORD PTR [esp]
  000da	e8 00 00 00 00	 call	 ?SetRotation@CActorInstance@@QAEXM@Z ; CActorInstance::SetRotation

; 1840 : 		m_GraphicThingInstance.SetAdvancingRotation(m_GraphicThingInstance.GetTargetRotation());

  000df	8b cf		 mov	 ecx, edi
  000e1	e8 00 00 00 00	 call	 ?GetTargetRotation@CActorInstance@@QAEMXZ ; CActorInstance::GetTargetRotation
  000e6	51		 push	 ecx
  000e7	8b cf		 mov	 ecx, edi
  000e9	d9 1c 24	 fstp	 DWORD PTR [esp]
  000ec	e8 00 00 00 00	 call	 ?SetAdvancingRotation@CActorInstance@@QAEXM@Z ; CActorInstance::SetAdvancingRotation

; 1841 : 
; 1842 : 		pTargetInstance->NEW_LookAtDestInstance(*this);

  000f1	ff 75 fc	 push	 DWORD PTR _this$1$[ebp]
  000f4	8b 7d 10	 mov	 edi, DWORD PTR _pTargetInstance$1$[ebp]
  000f7	8b cf		 mov	 ecx, edi
  000f9	e8 00 00 00 00	 call	 ?NEW_LookAtDestInstance@CInstanceBase@@QAEXAAV1@@Z ; CInstanceBase::NEW_LookAtDestInstance

; 1843 : 		pTargetInstance->m_GraphicThingInstance.InterceptOnceMotion(wMotionNumber2 + src_job);

  000fe	51		 push	 ecx
  000ff	c7 04 24 00 00
	80 3f		 mov	 DWORD PTR [esp], 1065353216 ; 3f800000H
  00106	6a 00		 push	 0
  00108	51		 push	 ecx
; File D:\Metin2 Server Files\mainline\SRC_2014\Metin2Client\UserInterface\InstanceBase.h

; 1109 : 	return race % JOB_NUM;

  00109	8b 4d 0c	 mov	 ecx, DWORD PTR _race$1$[ebp]
; File D:\Metin2 Server Files\mainline\SRC_2014\Metin2Client\UserInterface\InstanceBase.cpp

; 1843 : 		pTargetInstance->m_GraphicThingInstance.InterceptOnceMotion(wMotionNumber2 + src_job);

  0010c	c7 04 24 cd cc
	cc 3d		 mov	 DWORD PTR [esp], 1036831949 ; 3dcccccdH
; File D:\Metin2 Server Files\mainline\SRC_2014\Metin2Client\UserInterface\InstanceBase.h

; 1109 : 	return race % JOB_NUM;

  00113	81 e1 03 00 00
	80		 and	 ecx, -2147483645	; 80000003H
  00119	79 05		 jns	 SHORT $LN14@ProcessFun
  0011b	49		 dec	 ecx
  0011c	83 c9 fc	 or	 ecx, -4			; fffffffcH
  0011f	41		 inc	 ecx
$LN14@ProcessFun:
; File D:\Metin2 Server Files\mainline\SRC_2014\Metin2Client\UserInterface\InstanceBase.cpp

; 1843 : 		pTargetInstance->m_GraphicThingInstance.InterceptOnceMotion(wMotionNumber2 + src_job);

  00120	0f b7 c3	 movzx	 eax, bx
  00123	03 c8		 add	 ecx, eax
  00125	51		 push	 ecx
  00126	8d 8f d4 01 00
	00		 lea	 ecx, DWORD PTR [edi+468]
  0012c	e8 00 00 00 00	 call	 ?InterceptOnceMotion@CActorInstance@@QAE_NKMIM@Z ; CActorInstance::InterceptOnceMotion

; 1844 : 		pTargetInstance->m_GraphicThingInstance.SetRotation(pTargetInstance->m_GraphicThingInstance.GetTargetRotation());

  00131	8d 8f d4 01 00
	00		 lea	 ecx, DWORD PTR [edi+468]
  00137	e8 00 00 00 00	 call	 ?GetTargetRotation@CActorInstance@@QAEMXZ ; CActorInstance::GetTargetRotation
  0013c	51		 push	 ecx
  0013d	8d 8f d4 01 00
	00		 lea	 ecx, DWORD PTR [edi+468]
  00143	d9 1c 24	 fstp	 DWORD PTR [esp]
  00146	e8 00 00 00 00	 call	 ?SetRotation@CActorInstance@@QAEXM@Z ; CActorInstance::SetRotation

; 1845 : 		pTargetInstance->m_GraphicThingInstance.SetAdvancingRotation(pTargetInstance->m_GraphicThingInstance.GetTargetRotation());

  0014b	8d 8f d4 01 00
	00		 lea	 ecx, DWORD PTR [edi+468]
  00151	e8 00 00 00 00	 call	 ?GetTargetRotation@CActorInstance@@QAEMXZ ; CActorInstance::GetTargetRotation
  00156	51		 push	 ecx
  00157	8d 8f d4 01 00
	00		 lea	 ecx, DWORD PTR [edi+468]
  0015d	d9 1c 24	 fstp	 DWORD PTR [esp]
  00160	e8 00 00 00 00	 call	 ?SetAdvancingRotation@CActorInstance@@QAEXM@Z ; CActorInstance::SetAdvancingRotation

; 1846 : 
; 1847 : 		if (pTargetInstance->__IsMainInstance())

  00165	8b cf		 mov	 ecx, edi
  00167	e8 00 00 00 00	 call	 ?__IsMainInstance@CInstanceBase@@IAE_NXZ ; CInstanceBase::__IsMainInstance
  0016c	5e		 pop	 esi
  0016d	84 c0		 test	 al, al
  0016f	74 0e		 je	 SHORT $LN12@ProcessFun

; 1848 : 		{
; 1849 : 			IAbstractPlayer & rPlayer=IAbstractPlayer::GetSingleton();

  00171	8b 0d 00 00 00
	00		 mov	 ecx, DWORD PTR ?ms_singleton@?$TAbstractSingleton@VIAbstractPlayer@@@@0PAVIAbstractPlayer@@A ; TAbstractSingleton<IAbstractPlayer>::ms_singleton

; 1850 : 			rPlayer.EndEmotionProcess();

  00177	8b 01		 mov	 eax, DWORD PTR [ecx]
  00179	ff 90 84 00 00
	00		 call	 DWORD PTR [eax+132]
$LN12@ProcessFun:

; 1851 : 		}
; 1852 : 	}
; 1853 : 
; 1854 : 	if (__IsMainInstance())

  0017f	8b 5d fc	 mov	 ebx, DWORD PTR _this$1$[ebp]
$LN5@ProcessFun:
  00182	8b cb		 mov	 ecx, ebx
  00184	e8 00 00 00 00	 call	 ?__IsMainInstance@CInstanceBase@@IAE_NXZ ; CInstanceBase::__IsMainInstance
  00189	5f		 pop	 edi
  0018a	5b		 pop	 ebx
  0018b	84 c0		 test	 al, al
  0018d	74 0e		 je	 SHORT $LN6@ProcessFun

; 1855 : 	{
; 1856 : 		IAbstractPlayer & rPlayer=IAbstractPlayer::GetSingleton();

  0018f	8b 0d 00 00 00
	00		 mov	 ecx, DWORD PTR ?ms_singleton@?$TAbstractSingleton@VIAbstractPlayer@@@@0PAVIAbstractPlayer@@A ; TAbstractSingleton<IAbstractPlayer>::ms_singleton

; 1857 : 		rPlayer.EndEmotionProcess();

  00195	8b 01		 mov	 eax, DWORD PTR [ecx]
  00197	ff 90 84 00 00
	00		 call	 DWORD PTR [eax+132]
$LN6@ProcessFun:

; 1858 : 	}
; 1859 : }

  0019d	8b e5		 mov	 esp, ebp
  0019f	5d		 pop	 ebp
  001a0	c2 0c 00	 ret	 12			; 0000000cH
?__ProcessFunctionEmotion@CInstanceBase@@IAEXKKABUD3DXVECTOR3@@@Z ENDP ; CInstanceBase::__ProcessFunctionEmotion
_TEXT	ENDS
; Function compile flags: /Ogtp
; File D:\Metin2 Server Files\mainline\SRC_2014\Metin2Client\UserInterface\InstanceBase.cpp
;	COMDAT ?__IsInDustRange@CInstanceBase@@IAE_NXZ
_TEXT	SEGMENT
_fDistance$ = -4					; size = 4
?__IsInDustRange@CInstanceBase@@IAE_NXZ PROC		; CInstanceBase::__IsInDustRange, COMDAT
; _this$ = ecx

; 389  : {

  00000	55		 push	 ebp
  00001	8b ec		 mov	 ebp, esp
  00003	51		 push	 ecx
  00004	56		 push	 esi
  00005	8b f1		 mov	 esi, ecx

; 390  : 	if (!__IsExistMainInstance())

  00007	e8 00 00 00 00	 call	 ?__IsExistMainInstance@CInstanceBase@@IAE_NXZ ; CInstanceBase::__IsExistMainInstance
  0000c	84 c0		 test	 al, al
  0000e	74 43		 je	 SHORT $LN5@IsInDustRa

; 391  : 		return false;
; 392  : 
; 393  : 	CInstanceBase* pkInstMain=__GetMainInstancePtr();

  00010	8b ce		 mov	 ecx, esi
  00012	e8 00 00 00 00	 call	 ?__GetMainInstancePtr@CInstanceBase@@IAEPAV1@XZ ; CInstanceBase::__GetMainInstancePtr

; 394  : 
; 395  : 	float fDistance=NEW_GetDistanceFromDestInstance(*pkInstMain);

  00017	50		 push	 eax
  00018	8b ce		 mov	 ecx, esi
  0001a	e8 00 00 00 00	 call	 ?NEW_GetDistanceFromDestInstance@CInstanceBase@@QAEMAAV1@@Z ; CInstanceBase::NEW_GetDistanceFromDestInstance

; 396  : 
; 397  : 	if (IsPC())

  0001f	8b ce		 mov	 ecx, esi
  00021	d9 5d fc	 fstp	 DWORD PTR _fDistance$[ebp]
  00024	e8 00 00 00 00	 call	 ?IsPC@CInstanceBase@@QAEHXZ ; CInstanceBase::IsPC
  00029	f3 0f 10 4d fc	 movss	 xmm1, DWORD PTR _fDistance$[ebp]
  0002e	85 c0		 test	 eax, eax
  00030	74 0d		 je	 SHORT $LN4@IsInDustRa

; 398  : 	{
; 399  : 		if (fDistance<=PC_DUST_RANGE)

  00032	f3 0f 10 05 00
	00 00 00	 movss	 xmm0, DWORD PTR __real@44fa0000
  0003a	0f 2f c1	 comiss	 xmm0, xmm1
  0003d	73 0d		 jae	 SHORT $LN7@IsInDustRa
$LN4@IsInDustRa:

; 400  : 			return true;
; 401  : 	}
; 402  : 
; 403  : 	if (fDistance<=NPC_DUST_RANGE)

  0003f	f3 0f 10 05 00
	00 00 00	 movss	 xmm0, DWORD PTR __real@447a0000
  00047	0f 2f c1	 comiss	 xmm0, xmm1
  0004a	72 07		 jb	 SHORT $LN5@IsInDustRa
$LN7@IsInDustRa:

; 404  : 		return true;

  0004c	b0 01		 mov	 al, 1
  0004e	5e		 pop	 esi

; 407  : }

  0004f	8b e5		 mov	 esp, ebp
  00051	5d		 pop	 ebp
  00052	c3		 ret	 0
$LN5@IsInDustRa:

; 405  : 
; 406  : 	return false;

  00053	32 c0		 xor	 al, al
  00055	5e		 pop	 esi

; 407  : }

  00056	8b e5		 mov	 esp, ebp
  00058	5d		 pop	 ebp
  00059	c3		 ret	 0
?__IsInDustRange@CInstanceBase@@IAE_NXZ ENDP		; CInstanceBase::__IsInDustRange
_TEXT	ENDS
; Function compile flags: /Ogtp
; File D:\Metin2 Server Files\mainline\SRC_2014\Metin2Client\UserInterface\InstanceBase.cpp
;	COMDAT ?__CanProcessNetworkStatePacket@CInstanceBase@@IAEHXZ
_TEXT	SEGMENT
?__CanProcessNetworkStatePacket@CInstanceBase@@IAEHXZ PROC ; CInstanceBase::__CanProcessNetworkStatePacket, COMDAT
; _this$ = ecx

; 1247 : {

  00000	56		 push	 esi

; 1248 : 	if (m_GraphicThingInstance.IsDead())

  00001	8d b1 d4 01 00
	00		 lea	 esi, DWORD PTR [ecx+468]
  00007	8b ce		 mov	 ecx, esi
  00009	e8 00 00 00 00	 call	 ?IsDead@CActorInstance@@QAEHXZ ; CActorInstance::IsDead
  0000e	85 c0		 test	 eax, eax
  00010	75 28		 jne	 SHORT $LN7@CanProcess

; 1249 : 		return FALSE;
; 1250 : 	if (m_GraphicThingInstance.IsKnockDown())

  00012	8b ce		 mov	 ecx, esi
  00014	e8 00 00 00 00	 call	 ?IsKnockDown@CActorInstance@@QAEHXZ ; CActorInstance::IsKnockDown
  00019	85 c0		 test	 eax, eax
  0001b	75 1d		 jne	 SHORT $LN7@CanProcess

; 1251 : 		return FALSE;
; 1252 : 	if (m_GraphicThingInstance.IsUsingSkill())

  0001d	8b ce		 mov	 ecx, esi
  0001f	e8 00 00 00 00	 call	 ?IsUsingSkill@CActorInstance@@QAEHXZ ; CActorInstance::IsUsingSkill
  00024	85 c0		 test	 eax, eax
  00026	74 0b		 je	 SHORT $LN5@CanProcess

; 1253 : 		if (!m_GraphicThingInstance.CanCancelSkill())

  00028	8b ce		 mov	 ecx, esi
  0002a	e8 00 00 00 00	 call	 ?CanCancelSkill@CActorInstance@@QAEHXZ ; CActorInstance::CanCancelSkill
  0002f	85 c0		 test	 eax, eax
  00031	74 07		 je	 SHORT $LN7@CanProcess
$LN5@CanProcess:

; 1255 : 
; 1256 : 	return TRUE;

  00033	b8 01 00 00 00	 mov	 eax, 1
  00038	5e		 pop	 esi

; 1257 : }

  00039	c3		 ret	 0
$LN7@CanProcess:

; 1254 : 			return FALSE;

  0003a	33 c0		 xor	 eax, eax
  0003c	5e		 pop	 esi

; 1257 : }

  0003d	c3		 ret	 0
?__CanProcessNetworkStatePacket@CInstanceBase@@IAEHXZ ENDP ; CInstanceBase::__CanProcessNetworkStatePacket
_TEXT	ENDS
; Function compile flags: /Ogtp
; File D:\Metin2 Server Files\mainline\SRC_2014\Metin2Client\UserInterface\InstanceBase.cpp
;	COMDAT ?__ClearMainInstance@CInstanceBase@@IAEXXZ
_TEXT	SEGMENT
?__ClearMainInstance@CInstanceBase@@IAEXXZ PROC		; CInstanceBase::__ClearMainInstance, COMDAT
; _this$ = ecx

; 665  : 	CPythonCharacterManager& rkChrMgr=CPythonCharacterManager::Instance();
; 666  : 	rkChrMgr.ClearMainInstance();

  00000	8b 0d 00 00 00
	00		 mov	 ecx, DWORD PTR ?ms_singleton@?$CSingleton@VCPythonCharacterManager@@@@0PAVCPythonCharacterManager@@A ; CSingleton<CPythonCharacterManager>::ms_singleton
  00006	e9 00 00 00 00	 jmp	 ?ClearMainInstance@CPythonCharacterManager@@QAEXXZ ; CPythonCharacterManager::ClearMainInstance
?__ClearMainInstance@CInstanceBase@@IAEXXZ ENDP		; CInstanceBase::__ClearMainInstance
_TEXT	ENDS
; Function compile flags: /Ogtp
; File D:\Metin2 Server Files\mainline\SRC_2014\Metin2Client\UserInterface\InstanceBase.cpp
;	COMDAT ?__DisableSkipCollision@CInstanceBase@@IAEXXZ
_TEXT	SEGMENT
?__DisableSkipCollision@CInstanceBase@@IAEXXZ PROC	; CInstanceBase::__DisableSkipCollision, COMDAT
; _this$ = ecx

; 421  : 	m_GraphicThingInstance.DisableSkipCollision();

  00000	81 c1 d4 01 00
	00		 add	 ecx, 468		; 000001d4H
  00006	e9 00 00 00 00	 jmp	 ?DisableSkipCollision@CActorInstance@@QAEXXZ ; CActorInstance::DisableSkipCollision
?__DisableSkipCollision@CInstanceBase@@IAEXXZ ENDP	; CInstanceBase::__DisableSkipCollision
_TEXT	ENDS
; Function compile flags: /Ogtp
; File D:\Metin2 Server Files\mainline\SRC_2014\Metin2Client\UserInterface\InstanceBase.cpp
;	COMDAT ?__EnableSkipCollision@CInstanceBase@@IAEXXZ
_TEXT	SEGMENT
?__EnableSkipCollision@CInstanceBase@@IAEXXZ PROC	; CInstanceBase::__EnableSkipCollision, COMDAT
; _this$ = ecx

; 410  : {

  00000	56		 push	 esi
  00001	8b f1		 mov	 esi, ecx

; 411  : 	if (__IsMainInstance())

  00003	e8 00 00 00 00	 call	 ?__IsMainInstance@CInstanceBase@@IAE_NXZ ; CInstanceBase::__IsMainInstance
  00008	84 c0		 test	 al, al
  0000a	74 0f		 je	 SHORT $LN2@EnableSkip

; 412  : 	{
; 413  : 		TraceError("CInstanceBase::__EnableSkipCollision -    !!");

  0000c	68 00 00 00 00	 push	 OFFSET ??_C@_0EL@PHAIMNFF@CInstanceBase?3?3__EnableSkipColl@
  00011	e8 00 00 00 00	 call	 ?TraceError@@YAXPBDZZ	; TraceError
  00016	83 c4 04	 add	 esp, 4
  00019	5e		 pop	 esi

; 417  : }

  0001a	c3		 ret	 0
$LN2@EnableSkip:

; 414  : 		return;
; 415  : 	}
; 416  : 	m_GraphicThingInstance.EnableSkipCollision();

  0001b	8d 8e d4 01 00
	00		 lea	 ecx, DWORD PTR [esi+468]
  00021	5e		 pop	 esi
  00022	e9 00 00 00 00	 jmp	 ?EnableSkipCollision@CActorInstance@@QAEXXZ ; CActorInstance::EnableSkipCollision
?__EnableSkipCollision@CInstanceBase@@IAEXXZ ENDP	; CInstanceBase::__EnableSkipCollision
_TEXT	ENDS
; Function compile flags: /Ogtp
; File D:\Metin2 Server Files\mainline\SRC_2014\Metin2Client\UserInterface\InstanceBase.cpp
;	COMDAT ?__IsChangableWeapon@CInstanceBase@@IAEHH@Z
_TEXT	SEGMENT
_c_iBouquets$1 = -24					; size = 20
__$ArrayPad$ = -4					; size = 4
_iWeaponID$ = 8						; size = 4
?__IsChangableWeapon@CInstanceBase@@IAEHH@Z PROC	; CInstanceBase::__IsChangableWeapon, COMDAT
; _this$ = ecx

; 901  : {	

  00000	55		 push	 ebp
  00001	8b ec		 mov	 ebp, esp
  00003	83 ec 18	 sub	 esp, 24			; 00000018H
  00006	a1 00 00 00 00	 mov	 eax, DWORD PTR ___security_cookie
  0000b	33 c5		 xor	 eax, ebp
  0000d	89 45 fc	 mov	 DWORD PTR __$ArrayPad$[ebp], eax

; 902  : 	//       ..
; 903  : 	if (IsWearingDress())

  00010	e8 00 00 00 00	 call	 ?IsWearingDress@CInstanceBase@@QAEHXZ ; CInstanceBase::IsWearingDress
  00015	85 c0		 test	 eax, eax
  00017	74 39		 je	 SHORT $LN5@IsChangabl

; 904  : 	{
; 905  : 		const int c_iBouquets[] =
; 906  : 		{
; 907  : 			50201,	// Bouquet for Assassin

  00019	0f 28 05 00 00
	00 00		 movaps	 xmm0, XMMWORD PTR __xmm@0000c41c0000c41b0000c41a0000c419

; 908  : 			50202,	// Bouquet for Shaman
; 909  : 			50203,
; 910  : 			50204,
; 911  : 			0, // #0000545: [M2CN]     
; 912  : 		};
; 913  : 
; 914  : 		for (int i = 0; c_iBouquets[i] != 0; ++i)

  00020	33 c9		 xor	 ecx, ecx
  00022	8b 55 08	 mov	 edx, DWORD PTR _iWeaponID$[ebp]
  00025	b8 19 c4 00 00	 mov	 eax, 50201		; 0000c419H
  0002a	0f 11 45 e8	 movups	 XMMWORD PTR _c_iBouquets$1[ebp], xmm0
  0002e	c7 45 f8 00 00
	00 00		 mov	 DWORD PTR _c_iBouquets$1[ebp+16], 0
$LL4@IsChangabl:

; 915  : 			if (iWeaponID == c_iBouquets[i])

  00035	3b d0		 cmp	 edx, eax
  00037	74 19		 je	 SHORT $LN5@IsChangabl

; 908  : 			50202,	// Bouquet for Shaman
; 909  : 			50203,
; 910  : 			50204,
; 911  : 			0, // #0000545: [M2CN]     
; 912  : 		};
; 913  : 
; 914  : 		for (int i = 0; c_iBouquets[i] != 0; ++i)

  00039	8b 44 8d ec	 mov	 eax, DWORD PTR _c_iBouquets$1[ebp+ecx*4+4]
  0003d	41		 inc	 ecx
  0003e	85 c0		 test	 eax, eax
  00040	75 f3		 jne	 SHORT $LL4@IsChangabl

; 916  : 				return true;
; 917  : 
; 918  : 		return false;
; 919  : 	}
; 920  : 	else
; 921  : 		return true;
; 922  : }

  00042	8b 4d fc	 mov	 ecx, DWORD PTR __$ArrayPad$[ebp]
  00045	33 cd		 xor	 ecx, ebp
  00047	e8 00 00 00 00	 call	 @__security_check_cookie@4
  0004c	8b e5		 mov	 esp, ebp
  0004e	5d		 pop	 ebp
  0004f	c2 04 00	 ret	 4
$LN5@IsChangabl:
  00052	8b 4d fc	 mov	 ecx, DWORD PTR __$ArrayPad$[ebp]
  00055	b8 01 00 00 00	 mov	 eax, 1
  0005a	33 cd		 xor	 ecx, ebp
  0005c	e8 00 00 00 00	 call	 @__security_check_cookie@4
  00061	8b e5		 mov	 esp, ebp
  00063	5d		 pop	 ebp
  00064	c2 04 00	 ret	 4
?__IsChangableWeapon@CInstanceBase@@IAEHH@Z ENDP	; CInstanceBase::__IsChangableWeapon
_TEXT	ENDS
; Function compile flags: /Ogtp
; File D:\Metin2 Server Files\mainline\SRC_2014\Metin2Client\UserInterface\InstanceBase.cpp
;	COMDAT ?__IsShapeAnimalWear@CInstanceBase@@IAE_NXZ
_TEXT	SEGMENT
?__IsShapeAnimalWear@CInstanceBase@@IAE_NXZ PROC	; CInstanceBase::__IsShapeAnimalWear, COMDAT
; _this$ = ecx

; 2834 : {

  00000	56		 push	 esi
  00001	8b f1		 mov	 esi, ecx

; 2835 : 	if (100 == GetShape() ||
; 2836 : 		101 == GetShape() ||
; 2837 : 		102 == GetShape() ||

  00003	e8 00 00 00 00	 call	 ?GetShape@CInstanceBase@@QAEKXZ ; CInstanceBase::GetShape
  00008	83 f8 64	 cmp	 eax, 100		; 00000064H
  0000b	74 28		 je	 SHORT $LN3@IsShapeAni
  0000d	8b ce		 mov	 ecx, esi
  0000f	e8 00 00 00 00	 call	 ?GetShape@CInstanceBase@@QAEKXZ ; CInstanceBase::GetShape
  00014	83 f8 65	 cmp	 eax, 101		; 00000065H
  00017	74 1c		 je	 SHORT $LN3@IsShapeAni
  00019	8b ce		 mov	 ecx, esi
  0001b	e8 00 00 00 00	 call	 ?GetShape@CInstanceBase@@QAEKXZ ; CInstanceBase::GetShape
  00020	83 f8 66	 cmp	 eax, 102		; 00000066H
  00023	74 10		 je	 SHORT $LN3@IsShapeAni
  00025	8b ce		 mov	 ecx, esi
  00027	e8 00 00 00 00	 call	 ?GetShape@CInstanceBase@@QAEKXZ ; CInstanceBase::GetShape
  0002c	83 f8 67	 cmp	 eax, 103		; 00000067H
  0002f	74 04		 je	 SHORT $LN3@IsShapeAni

; 2840 : 
; 2841 : 	return false;

  00031	32 c0		 xor	 al, al
  00033	5e		 pop	 esi

; 2842 : }

  00034	c3		 ret	 0
$LN3@IsShapeAni:

; 2838 : 		103 == GetShape())
; 2839 : 		return true;

  00035	b0 01		 mov	 al, 1
  00037	5e		 pop	 esi

; 2842 : }

  00038	c3		 ret	 0
?__IsShapeAnimalWear@CInstanceBase@@IAE_NXZ ENDP	; CInstanceBase::__IsShapeAnimalWear
_TEXT	ENDS
; Function compile flags: /Ogtp
; File D:\Metin2 Server Files\mainline\SRC_2014\Metin2Client\UserInterface\InstanceBase.cpp
;	COMDAT ?__GetRaceType@CInstanceBase@@IAEKXZ
_TEXT	SEGMENT
?__GetRaceType@CInstanceBase@@IAEKXZ PROC		; CInstanceBase::__GetRaceType, COMDAT
; _this$ = ecx

; 2846 : 	return m_eRaceType;

  00000	0f b6 81 5d 01
	00 00		 movzx	 eax, BYTE PTR [ecx+349]

; 2847 : }

  00007	c3		 ret	 0
?__GetRaceType@CInstanceBase@@IAEKXZ ENDP		; CInstanceBase::__GetRaceType
_TEXT	ENDS
; Function compile flags: /Ogtp
; File D:\Metin2 Server Files\mainline\SRC_2014\Metin2Client\UserInterface\InstanceBase.cpp
;	COMDAT ?__FindRaceType@CInstanceBase@@IAE_NKPAE@Z
_TEXT	SEGMENT
_dwRace$ = 8						; size = 4
_pbType$ = 12						; size = 4
?__FindRaceType@CInstanceBase@@IAE_NKPAE@Z PROC		; CInstanceBase::__FindRaceType, COMDAT
; _this$ = ecx

; 713  : {

  00000	55		 push	 ebp
  00001	8b ec		 mov	 ebp, esp

; 714  : 	CPythonNonPlayer& rkNonPlayer=CPythonNonPlayer::Instance();
; 715  : 	return rkNonPlayer.GetInstanceType(dwRace, pbType);

  00003	8b 0d 00 00 00
	00		 mov	 ecx, DWORD PTR ?ms_singleton@?$CSingleton@VCPythonNonPlayer@@@@0PAVCPythonNonPlayer@@A ; CSingleton<CPythonNonPlayer>::ms_singleton

; 716  : }

  00009	5d		 pop	 ebp

; 714  : 	CPythonNonPlayer& rkNonPlayer=CPythonNonPlayer::Instance();
; 715  : 	return rkNonPlayer.GetInstanceType(dwRace, pbType);

  0000a	e9 00 00 00 00	 jmp	 ?GetInstanceType@CPythonNonPlayer@@QAE_NKPAE@Z ; CPythonNonPlayer::GetInstanceType
?__FindRaceType@CInstanceBase@@IAE_NKPAE@Z ENDP		; CInstanceBase::__FindRaceType
_TEXT	ENDS
; Function compile flags: /Ogtp
; File D:\Metin2 Server Files\mainline\SRC_2014\Metin2Client\UserInterface\InstanceBase.cpp
;	COMDAT ?__FindInstancePtr@CInstanceBase@@IAEPAV1@K@Z
_TEXT	SEGMENT
_dwVID$ = 8						; size = 4
?__FindInstancePtr@CInstanceBase@@IAEPAV1@K@Z PROC	; CInstanceBase::__FindInstancePtr, COMDAT
; _this$ = ecx

; 707  : {

  00000	55		 push	 ebp
  00001	8b ec		 mov	 ebp, esp

; 708  : 	CPythonCharacterManager& rkChrMgr=CPythonCharacterManager::Instance();
; 709  : 	return rkChrMgr.GetInstancePtr(dwVID);

  00003	8b 0d 00 00 00
	00		 mov	 ecx, DWORD PTR ?ms_singleton@?$CSingleton@VCPythonCharacterManager@@@@0PAVCPythonCharacterManager@@A ; CSingleton<CPythonCharacterManager>::ms_singleton
  00009	8b 41 04	 mov	 eax, DWORD PTR [ecx+4]
  0000c	8d 49 04	 lea	 ecx, DWORD PTR [ecx+4]

; 710  : }

  0000f	5d		 pop	 ebp

; 708  : 	CPythonCharacterManager& rkChrMgr=CPythonCharacterManager::Instance();
; 709  : 	return rkChrMgr.GetInstancePtr(dwVID);

  00010	ff 60 08	 jmp	 DWORD PTR [eax+8]
?__FindInstancePtr@CInstanceBase@@IAEPAV1@K@Z ENDP	; CInstanceBase::__FindInstancePtr
_TEXT	ENDS
; Function compile flags: /Ogtp
; File D:\Metin2 Server Files\mainline\SRC_2014\Metin2Client\UserInterface\InstanceBase.cpp
;	COMDAT ?__GetMainInstancePtr@CInstanceBase@@IAEPAV1@XZ
_TEXT	SEGMENT
?__GetMainInstancePtr@CInstanceBase@@IAEPAV1@XZ PROC	; CInstanceBase::__GetMainInstancePtr, COMDAT
; _this$ = ecx

; 659  : 	CPythonCharacterManager& rkChrMgr=CPythonCharacterManager::Instance();
; 660  : 	return rkChrMgr.GetMainInstancePtr();

  00000	8b 0d 00 00 00
	00		 mov	 ecx, DWORD PTR ?ms_singleton@?$CSingleton@VCPythonCharacterManager@@@@0PAVCPythonCharacterManager@@A ; CSingleton<CPythonCharacterManager>::ms_singleton
  00006	e9 00 00 00 00	 jmp	 ?GetMainInstancePtr@CPythonCharacterManager@@QAEPAVCInstanceBase@@XZ ; CPythonCharacterManager::GetMainInstancePtr
?__GetMainInstancePtr@CInstanceBase@@IAEPAV1@XZ ENDP	; CInstanceBase::__GetMainInstancePtr
_TEXT	ENDS
; Function compile flags: /Ogtp
; File D:\Metin2 Server Files\mainline\SRC_2014\Metin2Client\UserInterface\InstanceBase.cpp
; File C:\Program Files (x86)\Microsoft Visual Studio\2019\Community\VC\Tools\MSVC\14.28.29333\include\xstring
; File D:\Metin2 Server Files\mainline\SRC_2014\Metin2Client\UserInterface\InstanceBase.cpp
; File C:\Program Files (x86)\Microsoft Visual Studio\2019\Community\VC\Tools\MSVC\14.28.29333\include\xstring
; File D:\Metin2 Server Files\mainline\SRC_2014\Metin2Client\UserInterface\InstanceBase.cpp
; File C:\Program Files (x86)\Microsoft Visual Studio\2019\Community\VC\Tools\MSVC\14.28.29333\include\xstring
; File C:\Program Files (x86)\Microsoft Visual Studio\2019\Community\VC\Tools\MSVC\14.28.29333\include\utility
; File C:\Program Files (x86)\Microsoft Visual Studio\2019\Community\VC\Tools\MSVC\14.28.29333\include\xstring
; File C:\Program Files (x86)\Microsoft Visual Studio\2019\Community\VC\Tools\MSVC\14.28.29333\include\xmemory
; File C:\Program Files (x86)\Microsoft Visual Studio\2019\Community\VC\Tools\MSVC\14.28.29333\include\xstring
; File C:\Program Files (x86)\Microsoft Visual Studio\2019\Community\VC\Tools\MSVC\14.28.29333\include\xmemory
; File C:\Program Files (x86)\Microsoft Visual Studio\2019\Community\VC\Tools\MSVC\14.28.29333\include\xstring
; File C:\Program Files (x86)\Microsoft Visual Studio\2019\Community\VC\Tools\MSVC\14.28.29333\include\xmemory
; File C:\Program Files (x86)\Microsoft Visual Studio\2019\Community\VC\Tools\MSVC\14.28.29333\include\xstring
; File D:\Metin2 Server Files\mainline\SRC_2014\Metin2Client\UserInterface\InstanceBase.cpp
; File C:\Program Files (x86)\Microsoft Visual Studio\2019\Community\VC\Tools\MSVC\14.28.29333\include\xstring
; File D:\Metin2 Server Files\mainline\SRC_2014\Metin2Client\UserInterface\InstanceBase.cpp
; File C:\Program Files (x86)\Microsoft Visual Studio\2019\Community\VC\Tools\MSVC\14.28.29333\include\xstring
; File C:\Program Files (x86)\Microsoft Visual Studio\2019\Community\VC\Tools\MSVC\14.28.29333\include\xmemory
; File D:\Metin2 Server Files\mainline\SRC_2014\Metin2Client\UserInterface\InstanceBase.cpp
; File C:\Program Files (x86)\Microsoft Visual Studio\2019\Community\VC\Tools\MSVC\14.28.29333\include\xstring
; File D:\Metin2 Server Files\mainline\SRC_2014\Metin2Client\UserInterface\InstanceBase.cpp
; File C:\Program Files (x86)\Microsoft Visual Studio\2019\Community\VC\Tools\MSVC\14.28.29333\include\xstring
; File D:\Metin2 Server Files\mainline\SRC_2014\Metin2Client\UserInterface\InstanceBase.cpp
;	COMDAT ?__Create_SetWarpName@CInstanceBase@@IAEXABUSCreateData@1@@Z
_TEXT	SEGMENT
_this$GSCopy$1$ = -320					; size = 4
__New_ptr$2 = -316					; size = 4
_c_szName$ = -312					; size = 4
__Count$1$ = -308					; size = 4
tv980 = -304						; size = 4
$T3 = -304						; size = 4
__Old_capacity$1$ = -300				; size = 4
__Matches$4 = -296					; size = 256
_strName$5 = -40					; size = 24
__$ArrayPad$ = -16					; size = 4
__$EHRec$ = -12						; size = 12
_c_rkCreateData$ = 8					; size = 4
?__Create_SetWarpName@CInstanceBase@@IAEXABUSCreateData@1@@Z PROC ; CInstanceBase::__Create_SetWarpName, COMDAT
; _this$ = ecx

; 863  : {

  00000	55		 push	 ebp
  00001	8b ec		 mov	 ebp, esp
  00003	6a ff		 push	 -1
  00005	68 00 00 00 00	 push	 __ehhandler$?__Create_SetWarpName@CInstanceBase@@IAEXABUSCreateData@1@@Z
  0000a	64 a1 00 00 00
	00		 mov	 eax, DWORD PTR fs:0
  00010	50		 push	 eax
  00011	81 ec 34 01 00
	00		 sub	 esp, 308		; 00000134H
  00017	a1 00 00 00 00	 mov	 eax, DWORD PTR ___security_cookie
  0001c	33 c5		 xor	 eax, ebp
  0001e	89 45 f0	 mov	 DWORD PTR __$ArrayPad$[ebp], eax
  00021	53		 push	 ebx
  00022	56		 push	 esi
  00023	57		 push	 edi
  00024	50		 push	 eax
  00025	8d 45 f4	 lea	 eax, DWORD PTR __$EHRec$[ebp]
  00028	64 a3 00 00 00
	00		 mov	 DWORD PTR fs:0, eax
  0002e	8b d9		 mov	 ebx, ecx
  00030	89 9d c0 fe ff
	ff		 mov	 DWORD PTR _this$GSCopy$1$[ebp], ebx
  00036	8b 75 08	 mov	 esi, DWORD PTR _c_rkCreateData$[ebp]

; 864  : 	const char * c_szName;
; 865  : 	if (CPythonNonPlayer::Instance().GetName(c_rkCreateData.m_dwRace, &c_szName))

  00039	8d 85 c8 fe ff
	ff		 lea	 eax, DWORD PTR _c_szName$[ebp]
  0003f	8b 0d 00 00 00
	00		 mov	 ecx, DWORD PTR ?ms_singleton@?$CSingleton@VCPythonNonPlayer@@@@0PAVCPythonNonPlayer@@A ; CSingleton<CPythonNonPlayer>::ms_singleton
  00045	50		 push	 eax
  00046	ff 76 18	 push	 DWORD PTR [esi+24]
  00049	e8 00 00 00 00	 call	 ?GetName@CPythonNonPlayer@@QAE_NKPAPBD@Z ; CPythonNonPlayer::GetName
  0004e	84 c0		 test	 al, al
  00050	0f 84 2d 02 00
	00		 je	 $LN2@Create_Set
; File C:\Program Files (x86)\Microsoft Visual Studio\2019\Community\VC\Tools\MSVC\14.28.29333\include\xstring

; 389  :         return _CSTD strlen(reinterpret_cast<const char*>(_First));

  00056	8b 95 c8 fe ff
	ff		 mov	 edx, DWORD PTR _c_szName$[ebp]
  0005c	8b ca		 mov	 ecx, edx

; 4377 :         _Mypair._Myval2._Mysize = 0;

  0005e	c7 45 e8 00 00
	00 00		 mov	 DWORD PTR _strName$5[ebp+16], 0

; 4378 :         _Mypair._Myval2._Myres  = _BUF_SIZE - 1;

  00065	c7 45 ec 0f 00
	00 00		 mov	 DWORD PTR _strName$5[ebp+20], 15 ; 0000000fH

; 4379 :         // the _Traits::assign is last so the codegen doesn't think the char write can alias this
; 4380 :         _Traits::assign(_Mypair._Myval2._Bx._Buf[0], _Elem());

  0006c	c6 45 d8 00	 mov	 BYTE PTR _strName$5[ebp], 0

; 389  :         return _CSTD strlen(reinterpret_cast<const char*>(_First));

  00070	8d 71 01	 lea	 esi, DWORD PTR [ecx+1]
$LL147@Create_Set:
  00073	8a 01		 mov	 al, BYTE PTR [ecx]
  00075	41		 inc	 ecx
  00076	84 c0		 test	 al, al
  00078	75 f9		 jne	 SHORT $LL147@Create_Set
  0007a	2b ce		 sub	 ecx, esi

; 3062 :         return assign(_Ptr, _Convert_size<size_type>(_Traits::length(_Ptr)));

  0007c	51		 push	 ecx
  0007d	52		 push	 edx
  0007e	8d 4d d8	 lea	 ecx, DWORD PTR _strName$5[ebp]
  00081	e8 00 00 00 00	 call	 ?assign@?$basic_string@DU?$char_traits@D@std@@V?$allocator@D@2@@std@@QAEAAV12@QBDI@Z ; std::basic_string<char,std::char_traits<char>,std::allocator<char> >::assign

; 2227 :         return _BUF_SIZE <= _Myres;

  00086	8b 45 ec	 mov	 eax, DWORD PTR _strName$5[ebp+20]

; 2218 :         const value_type* _Result = _Bx._Buf;

  00089	8d 75 d8	 lea	 esi, DWORD PTR _strName$5[ebp]

; 2219 :         if (_Large_string_engaged()) {

  0008c	8b 5d d8	 mov	 ebx, DWORD PTR _strName$5[ebp]

; 2227 :         return _BUF_SIZE <= _Myres;

  0008f	83 f8 10	 cmp	 eax, 16			; 00000010H

; 751  :     if (_Needle_size != 0 && _Start_at < _Hay_size) { // room for match, look for it

  00092	8b 7d e8	 mov	 edi, DWORD PTR _strName$5[ebp+16]

; 2219 :         if (_Large_string_engaged()) {

  00095	0f 43 f3	 cmovae	 esi, ebx
; File D:\Metin2 Server Files\mainline\SRC_2014\Metin2Client\UserInterface\InstanceBase.cpp

; 867  : 		std::string strName = c_szName;

  00098	c7 45 fc 00 00
	00 00		 mov	 DWORD PTR __$EHRec$[ebp+8], 0
; File C:\Program Files (x86)\Microsoft Visual Studio\2019\Community\VC\Tools\MSVC\14.28.29333\include\xstring

; 2227 :         return _BUF_SIZE <= _Myres;

  0009f	89 85 d4 fe ff
	ff		 mov	 DWORD PTR __Old_capacity$1$[ebp], eax

; 751  :     if (_Needle_size != 0 && _Start_at < _Hay_size) { // room for match, look for it

  000a5	85 ff		 test	 edi, edi
  000a7	0f 84 a5 01 00
	00		 je	 $LN80@Create_Set
  000ad	68 00 01 00 00	 push	 256			; 00000100H
  000b2	8d 85 d8 fe ff
	ff		 lea	 eax, DWORD PTR __Matches$4[ebp]
  000b8	6a 00		 push	 0
  000ba	50		 push	 eax
  000bb	e8 00 00 00 00	 call	 _memset

; 752  :         _String_bitmap<typename _Traits::char_type> _Matches;
; 753  :         if (!_Matches._Mark(_Needle, _Needle + _Needle_size)) { // couldn't put one of the characters into the bitmap,
; 754  :                                                                 // fall back to the serial algorithm
; 755  :             return _Traits_find_first_of<_Traits>(_Haystack, _Hay_size, _Start_at, _Needle, _Needle_size, false_type{});
; 756  :         }
; 757  : 
; 758  :         const auto _End = _Haystack + _Hay_size;

  000c0	8d 0c 37	 lea	 ecx, DWORD PTR [edi+esi]

; 683  :             _Matches[static_cast<unsigned char>(*_First)] = true;

  000c3	c6 85 f8 fe ff
	ff 01		 mov	 BYTE PTR __Matches$4[ebp+32], 1

; 759  :         for (auto _Match_try = _Haystack + _Start_at; _Match_try < _End; ++_Match_try) {

  000ca	8b d6		 mov	 edx, esi
  000cc	83 c4 0c	 add	 esp, 12			; 0000000cH
  000cf	3b d1		 cmp	 edx, ecx
  000d1	0f 83 7b 01 00
	00		 jae	 $LN80@Create_Set
  000d7	66 0f 1f 84 00
	00 00 00 00	 npad	 9
$LL33@Create_Set:

; 690  :         return _Matches[static_cast<unsigned char>(_Ch)];

  000e0	0f b6 06	 movzx	 eax, BYTE PTR [esi]

; 760  :             if (_Matches._Match(*_Match_try)) {

  000e3	80 bc 05 d8 fe
	ff ff 00	 cmp	 BYTE PTR __Matches$4[ebp+eax], 0
  000eb	75 0a		 jne	 SHORT $LN137@Create_Set

; 759  :         for (auto _Match_try = _Haystack + _Start_at; _Match_try < _End; ++_Match_try) {

  000ed	46		 inc	 esi
  000ee	3b f1		 cmp	 esi, ecx
  000f0	72 ee		 jb	 SHORT $LL33@Create_Set

; 760  :             if (_Matches._Match(*_Match_try)) {

  000f2	e9 5b 01 00 00	 jmp	 $LN80@Create_Set
$LN137@Create_Set:

; 761  :                 return static_cast<size_t>(_Match_try - _Haystack); // found a match

  000f7	2b f2		 sub	 esi, edx
; File D:\Metin2 Server Files\mainline\SRC_2014\Metin2Client\UserInterface\InstanceBase.cpp

; 869  : 		if (iFindingPos > 0)

  000f9	85 f6		 test	 esi, esi
  000fb	0f 8e 51 01 00
	00		 jle	 $LN80@Create_Set
; File C:\Program Files (x86)\Microsoft Visual Studio\2019\Community\VC\Tools\MSVC\14.28.29333\include\xstring

; 3785 :         if (_Newsize <= _Old_size) {

  00101	3b f7		 cmp	 esi, edi
  00103	77 19		 ja	 SHORT $LN57@Create_Set

; 2227 :         return _BUF_SIZE <= _Myres;

  00105	83 bd d4 fe ff
	ff 10		 cmp	 DWORD PTR __Old_capacity$1$[ebp], 16 ; 00000010H

; 2209 :         value_type* _Result = _Bx._Buf;

  0010c	8d 45 d8	 lea	 eax, DWORD PTR _strName$5[ebp]

; 4373 :         _Traits::assign(_Mypair._Myval2._Myptr()[_Mypair._Myval2._Mysize = _Newsize], _Elem());

  0010f	89 75 e8	 mov	 DWORD PTR _strName$5[ebp+16], esi

; 2210 :         if (_Large_string_engaged()) {

  00112	0f 43 c3	 cmovae	 eax, ebx

; 4373 :         _Traits::assign(_Mypair._Myval2._Myptr()[_Mypair._Myval2._Mysize = _Newsize], _Elem());

  00115	c6 04 06 00	 mov	 BYTE PTR [esi+eax], 0

; 3787 :         } else {

  00119	e9 25 01 00 00	 jmp	 $LN150@Create_Set
$LN57@Create_Set:

; 3788 :             append(_Newsize - _Old_size, _Ch);

  0011e	8b 8d d4 fe ff
	ff		 mov	 ecx, DWORD PTR __Old_capacity$1$[ebp]
  00124	8b d6		 mov	 edx, esi
  00126	8b c1		 mov	 eax, ecx
  00128	2b d7		 sub	 edx, edi
  0012a	2b c7		 sub	 eax, edi
  0012c	89 95 cc fe ff
	ff		 mov	 DWORD PTR __Count$1$[ebp], edx

; 2963 :         if (_Count <= _Mypair._Myval2._Myres - _Old_size) {

  00132	3b d0		 cmp	 edx, eax
  00134	77 29		 ja	 SHORT $LN68@Create_Set

; 2964 :             _Mypair._Myval2._Mysize = _Old_size + _Count;

  00136	89 75 e8	 mov	 DWORD PTR _strName$5[ebp+16], esi

; 2227 :         return _BUF_SIZE <= _Myres;

  00139	83 f9 10	 cmp	 ecx, 16			; 00000010H

; 2209 :         value_type* _Result = _Bx._Buf;

  0013c	8d 75 d8	 lea	 esi, DWORD PTR _strName$5[ebp]

; 424  :         return static_cast<_Elem*>(_CSTD memset(_First, _Ch, _Count));

  0013f	52		 push	 edx

; 2210 :         if (_Large_string_engaged()) {

  00140	0f 43 f3	 cmovae	 esi, ebx

; 2966 :             _Traits::assign(_Old_ptr + _Old_size, _Count, _Ch);

  00143	03 f7		 add	 esi, edi

; 424  :         return static_cast<_Elem*>(_CSTD memset(_First, _Ch, _Count));

  00145	6a 00		 push	 0
  00147	56		 push	 esi
  00148	e8 00 00 00 00	 call	 _memset

; 2967 :             _Traits::assign(_Old_ptr[_Old_size + _Count], _Elem());

  0014d	8b 85 cc fe ff
	ff		 mov	 eax, DWORD PTR __Count$1$[ebp]

; 424  :         return static_cast<_Elem*>(_CSTD memset(_First, _Ch, _Count));

  00153	83 c4 0c	 add	 esp, 12			; 0000000cH

; 2967 :             _Traits::assign(_Old_ptr[_Old_size + _Count], _Elem());

  00156	c6 04 06 00	 mov	 BYTE PTR [esi+eax], 0

; 2968 :             return *this;

  0015a	e9 e4 00 00 00	 jmp	 $LN150@Create_Set
$LN68@Create_Set:

; 4332 :         const size_type _Old_size = _My_data._Mysize;

  0015f	bb ff ff ff 7f	 mov	 ebx, 2147483647		; 7fffffffH
  00164	8b c3		 mov	 eax, ebx
  00166	2b c7		 sub	 eax, edi

; 4333 :         if (max_size() - _Old_size < _Size_increase) {

  00168	3b c2		 cmp	 eax, edx
  0016a	0f 82 47 01 00
	00		 jb	 $LN154@Create_Set

; 4285 :         const size_type _Masked = _Requested | _ALLOC_MASK;

  00170	8b d6		 mov	 edx, esi
  00172	83 ca 0f	 or	 edx, 15			; 0000000fH
  00175	3b d3		 cmp	 edx, ebx

; 4286 :         if (_Masked > _Max) { // the mask overflows, settle for max_size()

  00177	76 04		 jbe	 SHORT $LN85@Create_Set

; 4287 :             return _Max;

  00179	8b d3		 mov	 edx, ebx
  0017b	eb 18		 jmp	 SHORT $LN151@Create_Set
$LN85@Create_Set:

; 4288 :         }
; 4289 : 
; 4290 :         if (_Old > _Max - _Old / 2) { // similarly, geometric overflows

  0017d	8b c1		 mov	 eax, ecx
  0017f	d1 e8		 shr	 eax, 1
  00181	2b d8		 sub	 ebx, eax
  00183	3b cb		 cmp	 ecx, ebx
  00185	76 07		 jbe	 SHORT $LN86@Create_Set

; 4291 :             return _Max;

  00187	ba ff ff ff 7f	 mov	 edx, 2147483647		; 7fffffffH
  0018c	eb 07		 jmp	 SHORT $LN151@Create_Set
$LN86@Create_Set:

; 4292 :         }
; 4293 : 
; 4294 :         return (_STD max)(_Masked, _Old + _Old / 2);

  0018e	03 c1		 add	 eax, ecx
; File C:\Program Files (x86)\Microsoft Visual Studio\2019\Community\VC\Tools\MSVC\14.28.29333\include\utility

; 44   :     return _Left < _Right ? _Right : _Left;

  00190	3b d0		 cmp	 edx, eax
  00192	0f 42 d0	 cmovb	 edx, eax
$LN151@Create_Set:
; File C:\Program Files (x86)\Microsoft Visual Studio\2019\Community\VC\Tools\MSVC\14.28.29333\include\xstring

; 4341 :         const pointer _New_ptr        = _Al.allocate(_New_capacity + 1); // throws

  00195	8d 42 01	 lea	 eax, DWORD PTR [edx+1]
  00198	89 95 d0 fe ff
	ff		 mov	 DWORD PTR $T3[ebp], edx
; File C:\Program Files (x86)\Microsoft Visual Studio\2019\Community\VC\Tools\MSVC\14.28.29333\include\xmemory

; 814  :         return static_cast<_Ty*>(_Allocate<_New_alignof<_Ty>>(_Get_size_of_n<sizeof(_Ty)>(_Count)));

  0019e	50		 push	 eax
  0019f	e8 00 00 00 00	 call	 ??$_Allocate@$07U_Default_allocate_traits@std@@$0A@@std@@YAPAXI@Z ; std::_Allocate<8,std::_Default_allocate_traits,0>
; File C:\Program Files (x86)\Microsoft Visual Studio\2019\Community\VC\Tools\MSVC\14.28.29333\include\xstring

; 4341 :         const pointer _New_ptr        = _Al.allocate(_New_capacity + 1); // throws

  001a4	8b d8		 mov	 ebx, eax

; 4342 :         _My_data._Orphan_all();
; 4343 :         _My_data._Mysize      = _New_size;

  001a6	89 75 e8	 mov	 DWORD PTR _strName$5[ebp+16], esi

; 4344 :         _My_data._Myres       = _New_capacity;

  001a9	8b 85 d0 fe ff
	ff		 mov	 eax, DWORD PTR $T3[ebp]
; File C:\Program Files (x86)\Microsoft Visual Studio\2019\Community\VC\Tools\MSVC\14.28.29333\include\xmemory

; 814  :         return static_cast<_Ty*>(_Allocate<_New_alignof<_Ty>>(_Get_size_of_n<sizeof(_Ty)>(_Count)));

  001af	83 c4 04	 add	 esp, 4
; File C:\Program Files (x86)\Microsoft Visual Studio\2019\Community\VC\Tools\MSVC\14.28.29333\include\xstring

; 4345 :         _Elem* const _Raw_new = _Unfancy(_New_ptr);

  001b2	8b b5 cc fe ff
	ff		 mov	 esi, DWORD PTR __Count$1$[ebp]
  001b8	89 45 ec	 mov	 DWORD PTR _strName$5[ebp+20], eax
  001bb	8d 04 1f	 lea	 eax, DWORD PTR [edi+ebx]
  001be	89 9d c4 fe ff
	ff		 mov	 DWORD PTR __New_ptr$2[ebp], ebx
  001c4	03 c6		 add	 eax, esi

; 4346 :         if (_BUF_SIZE <= _Old_capacity) {

  001c6	83 bd d4 fe ff
	ff 10		 cmp	 DWORD PTR __Old_capacity$1$[ebp], 16 ; 00000010H
  001cd	89 85 d0 fe ff
	ff		 mov	 DWORD PTR tv980[ebp], eax
  001d3	57		 push	 edi
  001d4	72 3b		 jb	 SHORT $LN79@Create_Set

; 4347 :             const pointer _Old_ptr = _My_data._Bx._Ptr;

  001d6	8b 75 d8	 mov	 esi, DWORD PTR _strName$5[ebp]

; 62   :         _CSTD memcpy(_First1, _First2, _Count * sizeof(_Elem));

  001d9	56		 push	 esi
  001da	53		 push	 ebx
  001db	e8 00 00 00 00	 call	 _memcpy

; 424  :         return static_cast<_Elem*>(_CSTD memset(_First, _Ch, _Count));

  001e0	8b 85 cc fe ff
	ff		 mov	 eax, DWORD PTR __Count$1$[ebp]
  001e6	50		 push	 eax
  001e7	8d 04 1f	 lea	 eax, DWORD PTR [edi+ebx]
  001ea	6a 00		 push	 0
  001ec	50		 push	 eax
  001ed	e8 00 00 00 00	 call	 _memset

; 2977 :                 _Traits::assign(_New_ptr[_Old_size + _Count], _Elem());

  001f2	8b 85 d0 fe ff
	ff		 mov	 eax, DWORD PTR tv980[ebp]
  001f8	c6 00 00	 mov	 BYTE PTR [eax], 0

; 4349 :             _Al.deallocate(_Old_ptr, _Old_capacity + 1);

  001fb	8b 85 d4 fe ff
	ff		 mov	 eax, DWORD PTR __Old_capacity$1$[ebp]
  00201	40		 inc	 eax
; File C:\Program Files (x86)\Microsoft Visual Studio\2019\Community\VC\Tools\MSVC\14.28.29333\include\xmemory

; 810  :         _Deallocate<_New_alignof<_Ty>>(_Ptr, sizeof(_Ty) * _Count);

  00202	50		 push	 eax
  00203	56		 push	 esi
  00204	e8 00 00 00 00	 call	 ??$_Deallocate@$07$0A@@std@@YAXPAXI@Z ; std::_Deallocate<8,0>
  00209	83 c4 20	 add	 esp, 32			; 00000020H
; File C:\Program Files (x86)\Microsoft Visual Studio\2019\Community\VC\Tools\MSVC\14.28.29333\include\xstring

; 4350 :             _My_data._Bx._Ptr = _New_ptr;

  0020c	89 5d d8	 mov	 DWORD PTR _strName$5[ebp], ebx

; 4351 :         } else {

  0020f	eb 35		 jmp	 SHORT $LN152@Create_Set
$LN79@Create_Set:

; 62   :         _CSTD memcpy(_First1, _First2, _Count * sizeof(_Elem));

  00211	8d 45 d8	 lea	 eax, DWORD PTR _strName$5[ebp]
  00214	50		 push	 eax
  00215	53		 push	 ebx
  00216	e8 00 00 00 00	 call	 _memcpy

; 424  :         return static_cast<_Elem*>(_CSTD memset(_First, _Ch, _Count));

  0021b	56		 push	 esi
  0021c	8d 04 1f	 lea	 eax, DWORD PTR [edi+ebx]
  0021f	6a 00		 push	 0
  00221	50		 push	 eax
  00222	e8 00 00 00 00	 call	 _memset

; 2977 :                 _Traits::assign(_New_ptr[_Old_size + _Count], _Elem());

  00227	8b 85 d0 fe ff
	ff		 mov	 eax, DWORD PTR tv980[ebp]
  0022d	c6 00 00	 mov	 BYTE PTR [eax], 0

; 4353 :             _Construct_in_place(_My_data._Bx._Ptr, _New_ptr);

  00230	8d 85 c4 fe ff
	ff		 lea	 eax, DWORD PTR __New_ptr$2[ebp]
  00236	50		 push	 eax
  00237	8d 45 d8	 lea	 eax, DWORD PTR _strName$5[ebp]
  0023a	50		 push	 eax
  0023b	e8 00 00 00 00	 call	 ??$_Construct_in_place@PADABQAD@std@@YAXAAPADABQAD@Z ; std::_Construct_in_place<char *,char * const &>
  00240	83 c4 20	 add	 esp, 32			; 00000020H
$LN150@Create_Set:

; 2218 :         const value_type* _Result = _Bx._Buf;

  00243	8b 5d d8	 mov	 ebx, DWORD PTR _strName$5[ebp]
$LN152@Create_Set:
  00246	8b 45 ec	 mov	 eax, DWORD PTR _strName$5[ebp+20]
  00249	8b 7d e8	 mov	 edi, DWORD PTR _strName$5[ebp+16]
  0024c	89 85 d4 fe ff
	ff		 mov	 DWORD PTR __Old_capacity$1$[ebp], eax
$LN80@Create_Set:

; 2227 :         return _BUF_SIZE <= _Myres;

  00252	83 bd d4 fe ff
	ff 10		 cmp	 DWORD PTR __Old_capacity$1$[ebp], 16 ; 00000010H

; 2218 :         const value_type* _Result = _Bx._Buf;

  00259	8d 45 d8	 lea	 eax, DWORD PTR _strName$5[ebp]
; File D:\Metin2 Server Files\mainline\SRC_2014\Metin2Client\UserInterface\InstanceBase.cpp

; 873  : 		SetNameString(strName.c_str(), strName.length());

  0025c	8b 8d c0 fe ff
	ff		 mov	 ecx, DWORD PTR _this$GSCopy$1$[ebp]
; File C:\Program Files (x86)\Microsoft Visual Studio\2019\Community\VC\Tools\MSVC\14.28.29333\include\xstring

; 2219 :         if (_Large_string_engaged()) {

  00262	0f 43 c3	 cmovae	 eax, ebx
; File D:\Metin2 Server Files\mainline\SRC_2014\Metin2Client\UserInterface\InstanceBase.cpp

; 873  : 		SetNameString(strName.c_str(), strName.length());

  00265	57		 push	 edi
  00266	50		 push	 eax
  00267	e8 00 00 00 00	 call	 ?SetNameString@CInstanceBase@@QAEXPBDH@Z ; CInstanceBase::SetNameString
; File C:\Program Files (x86)\Microsoft Visual Studio\2019\Community\VC\Tools\MSVC\14.28.29333\include\xstring

; 2227 :         return _BUF_SIZE <= _Myres;

  0026c	8b 45 ec	 mov	 eax, DWORD PTR _strName$5[ebp+20]
  0026f	83 f8 10	 cmp	 eax, 16			; 00000010H

; 4385 :         if (_Mypair._Myval2._Large_string_engaged()) {

  00272	72 25		 jb	 SHORT $LN3@Create_Set

; 4386 :             const pointer _Ptr = _Mypair._Myval2._Bx._Ptr;
; 4387 :             auto& _Al          = _Getal();
; 4388 :             _Destroy_in_place(_Mypair._Myval2._Bx._Ptr);
; 4389 :             _Al.deallocate(_Ptr, _Mypair._Myval2._Myres + 1);

  00274	40		 inc	 eax
; File C:\Program Files (x86)\Microsoft Visual Studio\2019\Community\VC\Tools\MSVC\14.28.29333\include\xmemory

; 810  :         _Deallocate<_New_alignof<_Ty>>(_Ptr, sizeof(_Ty) * _Count);

  00275	50		 push	 eax
  00276	ff 75 d8	 push	 DWORD PTR _strName$5[ebp]
  00279	e8 00 00 00 00	 call	 ??$_Deallocate@$07$0A@@std@@YAXPAXI@Z ; std::_Deallocate<8,0>
  0027e	83 c4 08	 add	 esp, 8
; File D:\Metin2 Server Files\mainline\SRC_2014\Metin2Client\UserInterface\InstanceBase.cpp

; 874  : 	}

  00281	eb 16		 jmp	 SHORT $LN3@Create_Set
$LN2@Create_Set:
; File C:\Program Files (x86)\Microsoft Visual Studio\2019\Community\VC\Tools\MSVC\14.28.29333\include\xstring

; 2227 :         return _BUF_SIZE <= _Myres;

  00283	83 7e 60 10	 cmp	 DWORD PTR [esi+96], 16	; 00000010H

; 3752 :         return _Mypair._Myval2._Myptr();

  00287	8d 46 4c	 lea	 eax, DWORD PTR [esi+76]

; 2219 :         if (_Large_string_engaged()) {

  0028a	72 02		 jb	 SHORT $LN129@Create_Set

; 2220 :             _Result = _Unfancy(_Bx._Ptr);

  0028c	8b 00		 mov	 eax, DWORD PTR [eax]
$LN129@Create_Set:
; File D:\Metin2 Server Files\mainline\SRC_2014\Metin2Client\UserInterface\InstanceBase.cpp

; 877  : 		SetNameString(c_rkCreateData.m_stName.c_str(), c_rkCreateData.m_stName.length());

  0028e	ff 76 5c	 push	 DWORD PTR [esi+92]
  00291	8b cb		 mov	 ecx, ebx
  00293	50		 push	 eax
  00294	e8 00 00 00 00	 call	 ?SetNameString@CInstanceBase@@QAEXPBDH@Z ; CInstanceBase::SetNameString
$LN3@Create_Set:

; 879  : }

  00299	8b 4d f4	 mov	 ecx, DWORD PTR __$EHRec$[ebp]
  0029c	64 89 0d 00 00
	00 00		 mov	 DWORD PTR fs:0, ecx
  002a3	59		 pop	 ecx
  002a4	5f		 pop	 edi
  002a5	5e		 pop	 esi
  002a6	5b		 pop	 ebx
  002a7	8b 4d f0	 mov	 ecx, DWORD PTR __$ArrayPad$[ebp]
  002aa	33 cd		 xor	 ecx, ebp
  002ac	e8 00 00 00 00	 call	 @__security_check_cookie@4
  002b1	8b e5		 mov	 esp, ebp
  002b3	5d		 pop	 ebp
  002b4	c2 04 00	 ret	 4
$LN154@Create_Set:
; File C:\Program Files (x86)\Microsoft Visual Studio\2019\Community\VC\Tools\MSVC\14.28.29333\include\xstring

; 4334 :             _Xlen_string(); // result too long

  002b7	e8 00 00 00 00	 call	 ?_Xlen_string@std@@YAXXZ ; std::_Xlen_string
$LN149@Create_Set:
  002bc	cc		 int	 3
_TEXT	ENDS
;	COMDAT text$x
text$x	SEGMENT
__unwindfunclet$?__Create_SetWarpName@CInstanceBase@@IAEXABUSCreateData@1@@Z$0:
  00000	8d 4d d8	 lea	 ecx, DWORD PTR _strName$5[ebp]
  00003	e9 00 00 00 00	 jmp	 ??1?$basic_string@DU?$char_traits@D@std@@V?$allocator@D@2@@std@@QAE@XZ ; std::basic_string<char,std::char_traits<char>,std::allocator<char> >::~basic_string<char,std::char_traits<char>,std::allocator<char> >
  00008	cc		 int	 3
  00009	cc		 int	 3
  0000a	cc		 int	 3
  0000b	cc		 int	 3
  0000c	cc		 int	 3
__ehhandler$?__Create_SetWarpName@CInstanceBase@@IAEXABUSCreateData@1@@Z:
  0000d	90		 npad	 1
  0000e	90		 npad	 1
  0000f	8b 54 24 08	 mov	 edx, DWORD PTR [esp+8]
  00013	8d 42 0c	 lea	 eax, DWORD PTR [edx+12]
  00016	8b 8a bc fe ff
	ff		 mov	 ecx, DWORD PTR [edx-324]
  0001c	33 c8		 xor	 ecx, eax
  0001e	e8 00 00 00 00	 call	 @__security_check_cookie@4
  00023	8b 4a fc	 mov	 ecx, DWORD PTR [edx-4]
  00026	33 c8		 xor	 ecx, eax
  00028	e8 00 00 00 00	 call	 @__security_check_cookie@4
  0002d	b8 00 00 00 00	 mov	 eax, OFFSET __ehfuncinfo$?__Create_SetWarpName@CInstanceBase@@IAEXABUSCreateData@1@@Z
  00032	e9 00 00 00 00	 jmp	 ___CxxFrameHandler3
text$x	ENDS
?__Create_SetWarpName@CInstanceBase@@IAEXABUSCreateData@1@@Z ENDP ; CInstanceBase::__Create_SetWarpName
; Function compile flags: /Ogtp
; File D:\Metin2 Server Files\mainline\SRC_2014\Metin2Client\UserInterface\InstanceBase.cpp
; File C:\Program Files (x86)\Microsoft Visual Studio\2019\Community\VC\Tools\MSVC\14.28.29333\include\xstring
; File D:\Metin2 Server Files\mainline\SRC_2014\Metin2Client\UserInterface\InstanceBase.cpp
;	COMDAT ?__Create_SetName@CInstanceBase@@IAEXABUSCreateData@1@@Z
_TEXT	SEGMENT
_c_rkCreateData$ = 8					; size = 4
?__Create_SetName@CInstanceBase@@IAEXABUSCreateData@1@@Z PROC ; CInstanceBase::__Create_SetName, COMDAT
; _this$ = ecx

; 847  : {

  00000	55		 push	 ebp
  00001	8b ec		 mov	 ebp, esp
  00003	56		 push	 esi
  00004	8b f1		 mov	 esi, ecx

; 848  : 	if (IsGoto())

  00006	e8 00 00 00 00	 call	 ?IsGoto@CInstanceBase@@QAEHXZ ; CInstanceBase::IsGoto
  0000b	8b ce		 mov	 ecx, esi
  0000d	85 c0		 test	 eax, eax
  0000f	74 11		 je	 SHORT $LN2@Create_Set

; 849  : 	{
; 850  : 		SetNameString("", 0);

  00011	6a 00		 push	 0
  00013	68 00 00 00 00	 push	 OFFSET ??_C@_00CNPNBAHC@@

; 860  : }

  00018	e8 00 00 00 00	 call	 ?SetNameString@CInstanceBase@@QAEXPBDH@Z ; CInstanceBase::SetNameString
  0001d	5e		 pop	 esi
  0001e	5d		 pop	 ebp
  0001f	c2 04 00	 ret	 4
$LN2@Create_Set:

; 851  : 		return;
; 852  : 	}
; 853  : 	if (IsWarp())

  00022	e8 00 00 00 00	 call	 ?IsWarp@CInstanceBase@@QAEHXZ ; CInstanceBase::IsWarp
  00027	85 c0		 test	 eax, eax
  00029	74 0f		 je	 SHORT $LN3@Create_Set

; 854  : 	{
; 855  : 		__Create_SetWarpName(c_rkCreateData);

  0002b	ff 75 08	 push	 DWORD PTR _c_rkCreateData$[ebp]
  0002e	8b ce		 mov	 ecx, esi
  00030	e8 00 00 00 00	 call	 ?__Create_SetWarpName@CInstanceBase@@IAEXABUSCreateData@1@@Z ; CInstanceBase::__Create_SetWarpName
  00035	5e		 pop	 esi

; 860  : }

  00036	5d		 pop	 ebp
  00037	c2 04 00	 ret	 4
$LN3@Create_Set:
; File C:\Program Files (x86)\Microsoft Visual Studio\2019\Community\VC\Tools\MSVC\14.28.29333\include\xstring

; 3752 :         return _Mypair._Myval2._Myptr();

  0003a	8b 4d 08	 mov	 ecx, DWORD PTR _c_rkCreateData$[ebp]

; 2227 :         return _BUF_SIZE <= _Myres;

  0003d	83 79 60 10	 cmp	 DWORD PTR [ecx+96], 16	; 00000010H

; 3752 :         return _Mypair._Myval2._Myptr();

  00041	8d 41 4c	 lea	 eax, DWORD PTR [ecx+76]

; 2219 :         if (_Large_string_engaged()) {

  00044	72 02		 jb	 SHORT $LN8@Create_Set

; 2220 :             _Result = _Unfancy(_Bx._Ptr);

  00046	8b 00		 mov	 eax, DWORD PTR [eax]
$LN8@Create_Set:
; File D:\Metin2 Server Files\mainline\SRC_2014\Metin2Client\UserInterface\InstanceBase.cpp

; 859  : 	SetNameString(c_rkCreateData.m_stName.c_str(), c_rkCreateData.m_stName.length());

  00048	ff 71 5c	 push	 DWORD PTR [ecx+92]
  0004b	8b ce		 mov	 ecx, esi
  0004d	50		 push	 eax

; 860  : }

  0004e	e8 00 00 00 00	 call	 ?SetNameString@CInstanceBase@@QAEXPBDH@Z ; CInstanceBase::SetNameString
  00053	5e		 pop	 esi
  00054	5d		 pop	 ebp
  00055	c2 04 00	 ret	 4
?__Create_SetName@CInstanceBase@@IAEXABUSCreateData@1@@Z ENDP ; CInstanceBase::__Create_SetName
_TEXT	ENDS
; Function compile flags: /Ogtp
; File D:\Metin2 Server Files\mainline\SRC_2014\Metin2Client\UserInterface\InstanceBase.cpp
;	COMDAT ?__InitializeRotationSpeed@CInstanceBase@@IAEXXZ
_TEXT	SEGMENT
?__InitializeRotationSpeed@CInstanceBase@@IAEXXZ PROC	; CInstanceBase::__InitializeRotationSpeed, COMDAT
; _this$ = ecx

; 3019 : 	SetRotationSpeed(c_fDefaultRotationSpeed);

  00000	51		 push	 ecx
  00001	c7 04 24 00 00
	96 44		 mov	 DWORD PTR [esp], 1150681088 ; 44960000H
  00008	e8 00 00 00 00	 call	 ?SetRotationSpeed@CInstanceBase@@QAEXM@Z ; CInstanceBase::SetRotationSpeed

; 3020 : }

  0000d	c3		 ret	 0
?__InitializeRotationSpeed@CInstanceBase@@IAEXXZ ENDP	; CInstanceBase::__InitializeRotationSpeed
_TEXT	ENDS
; Function compile flags: /Ogtp
; File D:\Metin2 Server Files\mainline\SRC_2014\Metin2Client\UserInterface\InstanceBase.cpp
; File D:\Metin2 Server Files\mainline\SRC_2014\M2Data\include\d3dx8math.inl
; File D:\Metin2 Server Files\mainline\SRC_2014\Metin2Client\UserInterface\InstanceBase.cpp
; File D:\Metin2 Server Files\mainline\SRC_2014\M2Data\include\d3dx8math.inl
; File D:\Metin2 Server Files\mainline\SRC_2014\Metin2Client\UserInterface\InstanceBase.cpp
; File D:\Metin2 Server Files\mainline\SRC_2014\M2Data\include\d3dx8math.inl
; File D:\Metin2 Server Files\mainline\SRC_2014\Metin2Client\UserInterface\InstanceBase.cpp
; File D:\Metin2 Server Files\mainline\SRC_2014\M2Data\include\d3dx8math.inl
; File D:\Metin2 Server Files\mainline\SRC_2014\Metin2Client\UserInterface\InstanceBase.cpp
; File C:\Program Files (x86)\Microsoft Visual Studio\2019\Community\VC\Tools\MSVC\14.28.29333\include\list
; File C:\Program Files (x86)\Microsoft Visual Studio\2019\Community\VC\Tools\MSVC\14.28.29333\include\xmemory
; File C:\Program Files (x86)\Microsoft Visual Studio\2019\Community\VC\Tools\MSVC\14.28.29333\include\list
; File D:\Metin2 Server Files\mainline\SRC_2014\Metin2Client\UserInterface\InstanceBase.cpp
; File C:\Program Files (x86)\Microsoft Visual Studio\2019\Community\VC\Tools\MSVC\14.28.29333\include\list
; File D:\Metin2 Server Files\mainline\SRC_2014\Metin2Client\UserInterface\InstanceBase.cpp
; File C:\Program Files (x86)\Microsoft Visual Studio\2019\Community\VC\Tools\MSVC\14.28.29333\include\list
; File C:\Program Files (x86)\Microsoft Visual Studio\2019\Community\VC\Tools\MSVC\14.28.29333\include\xstring
; File D:\Metin2 Server Files\mainline\SRC_2014\Metin2Client\UserInterface\InstanceBase.cpp
; File C:\Program Files (x86)\Microsoft Visual Studio\2019\Community\VC\Tools\MSVC\14.28.29333\include\xstring
; File D:\Metin2 Server Files\mainline\SRC_2014\Metin2Client\UserInterface\InstanceBase.cpp
;	COMDAT ?__Initialize@CInstanceBase@@IAEXXZ
_TEXT	SEGMENT
tv413 = -32						; size = 16
$T1 = -16						; size = 12
$T2 = -16						; size = 12
$T3 = -16						; size = 12
__$ArrayPad$ = -4					; size = 4
?__Initialize@CInstanceBase@@IAEXXZ PROC		; CInstanceBase::__Initialize, COMDAT
; _this$ = ecx

; 3028 : {

  00000	53		 push	 ebx
  00001	8b dc		 mov	 ebx, esp
  00003	83 ec 08	 sub	 esp, 8
  00006	83 e4 f0	 and	 esp, -16		; fffffff0H
  00009	83 c4 04	 add	 esp, 4
  0000c	55		 push	 ebp
  0000d	8b 6b 04	 mov	 ebp, DWORD PTR [ebx+4]
  00010	89 6c 24 04	 mov	 DWORD PTR [esp+4], ebp
  00014	8b ec		 mov	 ebp, esp
  00016	83 ec 28	 sub	 esp, 40			; 00000028H
  00019	a1 00 00 00 00	 mov	 eax, DWORD PTR ___security_cookie
  0001e	33 c5		 xor	 eax, ebp
  00020	89 45 fc	 mov	 DWORD PTR __$ArrayPad$[ebp], eax
  00023	56		 push	 esi
  00024	57		 push	 edi
  00025	8b f9		 mov	 edi, ecx

; 3029 : 	__Warrior_Initialize();

  00027	e8 00 00 00 00	 call	 ?__Warrior_Initialize@CInstanceBase@@IAEXXZ ; CInstanceBase::__Warrior_Initialize

; 3030 : 	__StoneSmoke_Inialize();

  0002c	8b cf		 mov	 ecx, edi
  0002e	e8 00 00 00 00	 call	 ?__StoneSmoke_Inialize@CInstanceBase@@IAEXXZ ; CInstanceBase::__StoneSmoke_Inialize

; 3031 : 	__EffectContainer_Initialize();

  00033	8b cf		 mov	 ecx, edi
  00035	e8 00 00 00 00	 call	 ?__EffectContainer_Initialize@CInstanceBase@@IAEXXZ ; CInstanceBase::__EffectContainer_Initialize

; 3032 : 	__InitializeRotationSpeed();

  0003a	8b cf		 mov	 ecx, edi
  0003c	e8 00 00 00 00	 call	 ?__InitializeRotationSpeed@CInstanceBase@@IAEXXZ ; CInstanceBase::__InitializeRotationSpeed

; 3033 : 
; 3034 : 	SetEventHandler(CActorInstance::IEventHandler::GetEmptyPtr());

  00041	e8 00 00 00 00	 call	 ?GetEmptyPtr@IEventHandler@CActorInstance@@SAPAV12@XZ ; CActorInstance::IEventHandler::GetEmptyPtr
  00046	50		 push	 eax
  00047	8b cf		 mov	 ecx, edi
  00049	e8 00 00 00 00	 call	 ?SetEventHandler@CInstanceBase@@QAEXPAVIEventHandler@CActorInstance@@@Z ; CInstanceBase::SetEventHandler

; 3035 : 
; 3036 : 	m_kAffectFlagContainer.Clear();

  0004e	8d 4f 48	 lea	 ecx, DWORD PTR [edi+72]
  00051	e8 00 00 00 00	 call	 ?Clear@CAffectFlagContainer@@QAEXXZ ; CAffectFlagContainer::Clear

; 3037 : 
; 3038 : 	m_dwLevel = 0;
; 3039 : 	m_dwGuildID = 0;
; 3040 : 	m_dwEmpireID = 0;
; 3041 : 
; 3042 : 	m_eType = 0;
; 3043 : 	m_eRaceType = 0;
; 3044 : 	m_eShape = 0;
; 3045 : 	m_dwRace = 0;
; 3046 : 	m_dwVirtualNumber = 0;
; 3047 : 
; 3048 : 	m_dwBaseCmdTime=0;
; 3049 : 	m_dwBaseChkTime=0;
; 3050 : 	m_dwSkipTime=0;
; 3051 : 
; 3052 : 	m_GraphicThingInstance.Initialize();

  00056	8d 8f d4 01 00
	00		 lea	 ecx, DWORD PTR [edi+468]
  0005c	c7 47 3c 00 00
	00 00		 mov	 DWORD PTR [edi+60], 0
  00063	c7 47 44 00 00
	00 00		 mov	 DWORD PTR [edi+68], 0
  0006a	c7 47 40 00 00
	00 00		 mov	 DWORD PTR [edi+64], 0
  00071	66 c7 87 5c 01
	00 00 00 00	 mov	 WORD PTR [edi+348], 0
  0007a	c7 87 60 01 00
	00 00 00 00 00	 mov	 DWORD PTR [edi+352], 0
  00084	c7 87 64 01 00
	00 00 00 00 00	 mov	 DWORD PTR [edi+356], 0
  0008e	c7 87 68 01 00
	00 00 00 00 00	 mov	 DWORD PTR [edi+360], 0
  00098	c7 87 88 06 00
	00 00 00 00 00	 mov	 DWORD PTR [edi+1672], 0
  000a2	c7 87 84 06 00
	00 00 00 00 00	 mov	 DWORD PTR [edi+1668], 0
  000ac	c7 87 8c 06 00
	00 00 00 00 00	 mov	 DWORD PTR [edi+1676], 0
  000b6	e8 00 00 00 00	 call	 ?Initialize@CGraphicObjectInstance@@QAEXXZ ; CGraphicObjectInstance::Initialize

; 3066 : 	NEW_SetSrcPixelPosition(TPixelPosition(0, 0, 0));

  000bb	8d 45 f0	 lea	 eax, DWORD PTR $T3[ebp]
  000be	c7 87 78 01 00
	00 00 00 00 00	 mov	 DWORD PTR [edi+376], 0
  000c8	0f 57 c0	 xorps	 xmm0, xmm0
  000cb	c7 87 7c 01 00
	00 00 00 00 00	 mov	 DWORD PTR [edi+380], 0
  000d5	50		 push	 eax
  000d6	8b cf		 mov	 ecx, edi
  000d8	c7 87 80 01 00
	00 00 00 00 00	 mov	 DWORD PTR [edi+384], 0
  000e2	c7 87 84 01 00
	00 00 00 00 00	 mov	 DWORD PTR [edi+388], 0
  000ec	c7 87 74 01 00
	00 00 00 00 00	 mov	 DWORD PTR [edi+372], 0
  000f6	c7 47 0c 00 00
	00 00		 mov	 DWORD PTR [edi+12], 0
  000fd	c6 87 88 01 00
	00 00		 mov	 BYTE PTR [edi+392], 0
; File D:\Metin2 Server Files\mainline\SRC_2014\M2Data\include\d3dx8math.inl

; 180  :     x = fx;

  00104	0f 29 45 e0	 movaps	 XMMWORD PTR tv413[ebp], xmm0
  00108	c7 45 f0 00 00
	00 00		 mov	 DWORD PTR $T3[ebp], 0

; 181  :     y = fy;

  0010f	c7 45 f4 00 00
	00 00		 mov	 DWORD PTR $T3[ebp+4], 0

; 182  :     z = fz;

  00116	c7 45 f8 00 00
	00 00		 mov	 DWORD PTR $T3[ebp+8], 0
; File D:\Metin2 Server Files\mainline\SRC_2014\Metin2Client\UserInterface\InstanceBase.cpp

; 3066 : 	NEW_SetSrcPixelPosition(TPixelPosition(0, 0, 0));

  0011d	e8 00 00 00 00	 call	 ?NEW_SetSrcPixelPosition@CInstanceBase@@IAEXABUD3DXVECTOR3@@@Z ; CInstanceBase::NEW_SetSrcPixelPosition

; 3067 : 	NEW_SetDstPixelPosition(TPixelPosition(0, 0, 0));

  00122	8d 45 f0	 lea	 eax, DWORD PTR $T2[ebp]
; File D:\Metin2 Server Files\mainline\SRC_2014\M2Data\include\d3dx8math.inl

; 180  :     x = fx;

  00125	c7 45 f0 00 00
	00 00		 mov	 DWORD PTR $T2[ebp], 0
; File D:\Metin2 Server Files\mainline\SRC_2014\Metin2Client\UserInterface\InstanceBase.cpp

; 3067 : 	NEW_SetDstPixelPosition(TPixelPosition(0, 0, 0));

  0012c	50		 push	 eax
  0012d	8b cf		 mov	 ecx, edi
; File D:\Metin2 Server Files\mainline\SRC_2014\M2Data\include\d3dx8math.inl

; 181  :     y = fy;

  0012f	c7 45 f4 00 00
	00 00		 mov	 DWORD PTR $T2[ebp+4], 0

; 182  :     z = fz;

  00136	c7 45 f8 00 00
	00 00		 mov	 DWORD PTR $T2[ebp+8], 0
; File D:\Metin2 Server Files\mainline\SRC_2014\Metin2Client\UserInterface\InstanceBase.cpp

; 3067 : 	NEW_SetDstPixelPosition(TPixelPosition(0, 0, 0));

  0013d	e8 00 00 00 00	 call	 ?NEW_SetDstPixelPosition@CInstanceBase@@IAEXABUD3DXVECTOR3@@@Z ; CInstanceBase::NEW_SetDstPixelPosition

; 3069 : 	m_kPPosDust = TPixelPosition(0, 0, 0);

  00142	0f 28 45 e0	 movaps	 xmm0, XMMWORD PTR tv413[ebp]
  00146	0f 14 c0	 unpcklps xmm0, xmm0
  00149	66 0f d6 87 8c
	01 00 00	 movq	 QWORD PTR [edi+396], xmm0
; File D:\Metin2 Server Files\mainline\SRC_2014\M2Data\include\d3dx8math.inl

; 182  :     z = fz;

  00151	c7 45 f8 00 00
	00 00		 mov	 DWORD PTR $T1[ebp+8], 0
; File D:\Metin2 Server Files\mainline\SRC_2014\Metin2Client\UserInterface\InstanceBase.cpp

; 3069 : 	m_kPPosDust = TPixelPosition(0, 0, 0);

  00158	8b 45 f8	 mov	 eax, DWORD PTR $T1[ebp+8]
  0015b	89 87 94 01 00
	00		 mov	 DWORD PTR [edi+404], eax
; File C:\Program Files (x86)\Microsoft Visual Studio\2019\Community\VC\Tools\MSVC\14.28.29333\include\list

; 1429 :         _Node::_Free_non_head(_Getal(), _My_data._Myhead);

  00161	8b 8f 90 06 00
	00		 mov	 ecx, DWORD PTR [edi+1680]

; 324  :         _Head->_Prev->_Next = nullptr;

  00167	8b 41 04	 mov	 eax, DWORD PTR [ecx+4]
  0016a	c7 00 00 00 00
	00		 mov	 DWORD PTR [eax], 0

; 325  : 
; 326  :         auto _Pnode = _Head->_Next;

  00170	8b 01		 mov	 eax, DWORD PTR [ecx]

; 327  :         for (_Nodeptr _Pnext; _Pnode; _Pnode = _Pnext) {

  00172	85 c0		 test	 eax, eax
  00174	74 13		 je	 SHORT $LN13@Initialize
$LL14@Initialize:

; 328  :             _Pnext = _Pnode->_Next;

  00176	8b 30		 mov	 esi, DWORD PTR [eax]
; File C:\Program Files (x86)\Microsoft Visual Studio\2019\Community\VC\Tools\MSVC\14.28.29333\include\xmemory

; 696  :         _Deallocate<_New_alignof<value_type>>(_Ptr, sizeof(value_type) * _Count);

  00178	6a 2c		 push	 44			; 0000002cH
  0017a	50		 push	 eax
  0017b	e8 00 00 00 00	 call	 ??$_Deallocate@$07$0A@@std@@YAXPAXI@Z ; std::_Deallocate<8,0>
  00180	83 c4 08	 add	 esp, 8
; File C:\Program Files (x86)\Microsoft Visual Studio\2019\Community\VC\Tools\MSVC\14.28.29333\include\list

; 327  :         for (_Nodeptr _Pnext; _Pnode; _Pnode = _Pnext) {

  00183	8b c6		 mov	 eax, esi
  00185	85 f6		 test	 esi, esi
  00187	75 ed		 jne	 SHORT $LL14@Initialize
$LN13@Initialize:

; 1430 :         _My_data._Myhead->_Next = _My_data._Myhead;

  00189	8b 87 90 06 00
	00		 mov	 eax, DWORD PTR [edi+1680]
; File D:\Metin2 Server Files\mainline\SRC_2014\Metin2Client\UserInterface\InstanceBase.cpp

; 3087 : 	m_stName = "";

  0018f	8d 4f 10	 lea	 ecx, DWORD PTR [edi+16]
; File C:\Program Files (x86)\Microsoft Visual Studio\2019\Community\VC\Tools\MSVC\14.28.29333\include\list

; 1430 :         _My_data._Myhead->_Next = _My_data._Myhead;

  00192	89 00		 mov	 DWORD PTR [eax], eax

; 1431 :         _My_data._Myhead->_Prev = _My_data._Myhead;

  00194	8b 87 90 06 00
	00		 mov	 eax, DWORD PTR [edi+1680]
  0019a	89 40 04	 mov	 DWORD PTR [eax+4], eax
; File D:\Metin2 Server Files\mainline\SRC_2014\Metin2Client\UserInterface\InstanceBase.cpp

; 3080 : 	m_sAlignment = 0;

  0019d	33 c0		 xor	 eax, eax
; File C:\Program Files (x86)\Microsoft Visual Studio\2019\Community\VC\Tools\MSVC\14.28.29333\include\list

; 1432 :         _My_data._Mysize        = 0;

  0019f	c7 87 94 06 00
	00 00 00 00 00	 mov	 DWORD PTR [edi+1684], 0
; File C:\Program Files (x86)\Microsoft Visual Studio\2019\Community\VC\Tools\MSVC\14.28.29333\include\xstring

; 3062 :         return assign(_Ptr, _Convert_size<size_type>(_Traits::length(_Ptr)));

  001a9	50		 push	 eax
  001aa	68 00 00 00 00	 push	 OFFSET ??_C@_00CNPNBAHC@@
; File D:\Metin2 Server Files\mainline\SRC_2014\Metin2Client\UserInterface\InstanceBase.cpp

; 3074 : 	m_dwLastComboIndex = 0;

  001af	c7 87 98 01 00
	00 00 00 00 00	 mov	 DWORD PTR [edi+408], 0

; 3075 : 
; 3076 : 	m_swordRefineEffectRight = 0;

  001b9	c7 87 9c 01 00
	00 00 00 00 00	 mov	 DWORD PTR [edi+412], 0

; 3077 : 	m_swordRefineEffectLeft = 0;

  001c3	c7 87 a0 01 00
	00 00 00 00 00	 mov	 DWORD PTR [edi+416], 0

; 3078 : 	m_armorRefineEffect = 0;

  001cd	c7 87 a4 01 00
	00 00 00 00 00	 mov	 DWORD PTR [edi+420], 0

; 3080 : 	m_sAlignment = 0;

  001d7	89 87 6c 01 00
	00		 mov	 DWORD PTR [edi+364], eax

; 3081 : 	m_byPKMode = 0;
; 3082 : 	m_isKiller = false;
; 3083 : 	m_isPartyMember = false;

  001dd	88 87 70 01 00
	00		 mov	 BYTE PTR [edi+368], al

; 3084 : 
; 3085 : 	m_bEnableTCPState = TRUE;

  001e3	c7 87 d0 01 00
	00 01 00 00 00	 mov	 DWORD PTR [edi+464], 1
; File C:\Program Files (x86)\Microsoft Visual Studio\2019\Community\VC\Tools\MSVC\14.28.29333\include\xstring

; 3062 :         return assign(_Ptr, _Convert_size<size_type>(_Traits::length(_Ptr)));

  001ed	e8 00 00 00 00	 call	 ?assign@?$basic_string@DU?$char_traits@D@std@@V?$allocator@D@2@@std@@QAEAAV12@QBDI@Z ; std::basic_string<char,std::char_traits<char>,std::allocator<char> >::assign
; File D:\Metin2 Server Files\mainline\SRC_2014\Metin2Client\UserInterface\InstanceBase.cpp

; 3090 : 	memset(m_adwCRCAffectEffect, 0, sizeof(m_adwCRCAffectEffect));

  001f2	68 00 01 00 00	 push	 256			; 00000100H
  001f7	0f 57 c0	 xorps	 xmm0, xmm0
  001fa	8d 47 50	 lea	 eax, DWORD PTR [edi+80]
  001fd	6a 00		 push	 0
  001ff	0f 11 47 28	 movups	 XMMWORD PTR [edi+40], xmm0
  00203	50		 push	 eax
  00204	c7 47 38 00 00
	00 00		 mov	 DWORD PTR [edi+56], 0
  0020b	e8 00 00 00 00	 call	 _memset

; 3091 : 	//memset(m_adwCRCEmoticonEffect, 0, sizeof(m_adwCRCEmoticonEffect));
; 3092 : 	memset(&m_kMovAfterFunc, 0, sizeof(m_kMovAfterFunc));
; 3093 : 
; 3094 : 	m_bDamageEffectType = false;
; 3095 : 	m_dwDuelMode = DUEL_NONE;
; 3096 : 	m_dwEmoticonTime = 0;
; 3097 : }

  00210	8b 4d fc	 mov	 ecx, DWORD PTR __$ArrayPad$[ebp]
  00213	83 c4 0c	 add	 esp, 12			; 0000000cH
  00216	0f 57 c0	 xorps	 xmm0, xmm0
  00219	33 cd		 xor	 ecx, ebp
  0021b	0f 11 87 a8 01
	00 00		 movups	 XMMWORD PTR [edi+424], xmm0
  00222	66 0f d6 87 b8
	01 00 00	 movq	 QWORD PTR [edi+440], xmm0
  0022a	c7 87 98 06 00
	00 00 00 00 00	 mov	 DWORD PTR [edi+1688], 0
  00234	c7 87 a8 06 00
	00 00 00 00 00	 mov	 DWORD PTR [edi+1704], 0
  0023e	c7 87 ac 06 00
	00 00 00 00 00	 mov	 DWORD PTR [edi+1708], 0
  00248	5f		 pop	 edi
  00249	5e		 pop	 esi
  0024a	e8 00 00 00 00	 call	 @__security_check_cookie@4
  0024f	8b e5		 mov	 esp, ebp
  00251	5d		 pop	 ebp
  00252	8b e3		 mov	 esp, ebx
  00254	5b		 pop	 ebx
  00255	c3		 ret	 0
?__Initialize@CInstanceBase@@IAEXXZ ENDP		; CInstanceBase::__Initialize
_TEXT	ENDS
; Function compile flags: /Ogtp
; File D:\Metin2 Server Files\mainline\SRC_2014\Metin2Client\UserInterface\InstanceBase.cpp
;	COMDAT ?__LessRenderOrder_GetLODLevel@CInstanceBase@@IAEIXZ
_TEXT	SEGMENT
?__LessRenderOrder_GetLODLevel@CInstanceBase@@IAEIXZ PROC ; CInstanceBase::__LessRenderOrder_GetLODLevel, COMDAT
; _this$ = ecx

; 356  : 	CGrannyLODController* pLODCtrl=m_GraphicThingInstance.GetLODControllerPointer(0);

  00000	6a 00		 push	 0
  00002	81 c1 d4 01 00
	00		 add	 ecx, 468		; 000001d4H
  00008	e8 00 00 00 00	 call	 ?GetLODControllerPointer@CGraphicThingInstance@@QAEPAVCGrannyLODController@@K@Z ; CGraphicThingInstance::GetLODControllerPointer

; 357  : 	if (!pLODCtrl)

  0000d	85 c0		 test	 eax, eax
  0000f	75 01		 jne	 SHORT $LN2@LessRender

; 361  : }

  00011	c3		 ret	 0
$LN2@LessRender:

; 358  : 		return 0;
; 359  : 
; 360  : 	return pLODCtrl->GetLODLevel();

  00012	0f b6 40 1c	 movzx	 eax, BYTE PTR [eax+28]

; 361  : }

  00016	c3		 ret	 0
?__LessRenderOrder_GetLODLevel@CInstanceBase@@IAEIXZ ENDP ; CInstanceBase::__LessRenderOrder_GetLODLevel
_TEXT	ENDS
; Function compile flags: /Ogtp
; File D:\Metin2 Server Files\mainline\SRC_2014\Metin2Client\UserInterface\InstanceBase.cpp
;	COMDAT ?__Background_GetWaterHeight@CInstanceBase@@QAE_NABUD3DXVECTOR3@@PAM@Z
_TEXT	SEGMENT
_lHeight$ = -4						; size = 4
_c_rkPPos$ = 8						; size = 4
_pfHeight$ = 12						; size = 4
?__Background_GetWaterHeight@CInstanceBase@@QAE_NABUD3DXVECTOR3@@PAM@Z PROC ; CInstanceBase::__Background_GetWaterHeight, COMDAT
; _this$ = ecx

; 364  : {

  00000	55		 push	 ebp
  00001	8b ec		 mov	 ebp, esp
  00003	51		 push	 ecx

; 365  : 	long lHeight;
; 366  : 	if (!CPythonBackground::Instance().GetWaterHeight(int(c_rkPPos.x), int(c_rkPPos.y), &lHeight))

  00004	8b 4d 08	 mov	 ecx, DWORD PTR _c_rkPPos$[ebp]
  00007	8d 45 fc	 lea	 eax, DWORD PTR _lHeight$[ebp]
  0000a	50		 push	 eax
  0000b	f3 0f 2c 41 04	 cvttss2si eax, DWORD PTR [ecx+4]
  00010	50		 push	 eax
  00011	f3 0f 2c 01	 cvttss2si eax, DWORD PTR [ecx]
  00015	8b 0d 00 00 00
	00		 mov	 ecx, DWORD PTR ?ms_singleton@?$CSingleton@VCPythonBackground@@@@0PAVCPythonBackground@@A ; CSingleton<CPythonBackground>::ms_singleton
  0001b	50		 push	 eax
  0001c	e8 00 00 00 00	 call	 ?GetWaterHeight@CMapManager@@QAE_NHHPAJ@Z ; CMapManager::GetWaterHeight
  00021	84 c0		 test	 al, al
  00023	75 06		 jne	 SHORT $LN2@Background

; 372  : }

  00025	8b e5		 mov	 esp, ebp
  00027	5d		 pop	 ebp
  00028	c2 08 00	 ret	 8
$LN2@Background:
  0002b	66 0f 6e 45 fc	 movd	 xmm0, DWORD PTR _lHeight$[ebp]

; 367  : 		return false;
; 368  : 
; 369  : 	*pfHeight = float(lHeight);

  00030	8b 45 0c	 mov	 eax, DWORD PTR _pfHeight$[ebp]
  00033	0f 5b c0	 cvtdq2ps xmm0, xmm0
  00036	f3 0f 11 00	 movss	 DWORD PTR [eax], xmm0

; 370  : 
; 371  : 	return true;

  0003a	b0 01		 mov	 al, 1

; 372  : }

  0003c	8b e5		 mov	 esp, ebp
  0003e	5d		 pop	 ebp
  0003f	c2 08 00	 ret	 8
?__Background_GetWaterHeight@CInstanceBase@@QAE_NABUD3DXVECTOR3@@PAM@Z ENDP ; CInstanceBase::__Background_GetWaterHeight
_TEXT	ENDS
; Function compile flags: /Ogtp
; File D:\Metin2 Server Files\mainline\SRC_2014\Metin2Client\UserInterface\InstanceBase.cpp
;	COMDAT ?__Background_IsWaterPixelPosition@CInstanceBase@@QAE_NABUD3DXVECTOR3@@@Z
_TEXT	SEGMENT
_c_rkPPos$ = 8						; size = 4
?__Background_IsWaterPixelPosition@CInstanceBase@@QAE_NABUD3DXVECTOR3@@@Z PROC ; CInstanceBase::__Background_IsWaterPixelPosition, COMDAT
; _this$ = ecx

; 375  : {

  00000	55		 push	 ebp
  00001	8b ec		 mov	 ebp, esp

; 376  : 	return CPythonBackground::Instance().isAttrOn(c_rkPPos.x, c_rkPPos.y, CTerrainImpl::ATTRIBUTE_WATER);

  00003	8b 45 08	 mov	 eax, DWORD PTR _c_rkPPos$[ebp]
  00006	8b 0d 00 00 00
	00		 mov	 ecx, DWORD PTR ?ms_singleton@?$CSingleton@VCPythonBackground@@@@0PAVCPythonBackground@@A ; CSingleton<CPythonBackground>::ms_singleton
  0000c	6a 02		 push	 2
  0000e	83 ec 08	 sub	 esp, 8
  00011	f3 0f 10 40 04	 movss	 xmm0, DWORD PTR [eax+4]
  00016	f3 0f 11 44 24
	04		 movss	 DWORD PTR [esp+4], xmm0
  0001c	f3 0f 10 00	 movss	 xmm0, DWORD PTR [eax]
  00020	f3 0f 11 04 24	 movss	 DWORD PTR [esp], xmm0
  00025	e8 00 00 00 00	 call	 ?isAttrOn@CMapManager@@QAE_NMME@Z ; CMapManager::isAttrOn

; 377  : }

  0002a	5d		 pop	 ebp
  0002b	c2 04 00	 ret	 4
?__Background_IsWaterPixelPosition@CInstanceBase@@QAE_NABUD3DXVECTOR3@@@Z ENDP ; CInstanceBase::__Background_IsWaterPixelPosition
_TEXT	ENDS
; Function compile flags: /Ogtp
; File D:\Metin2 Server Files\mainline\SRC_2014\Metin2Client\UserInterface\InstanceBase.cpp
;	COMDAT ?GetGraphicThingInstancePtr@CInstanceBase@@QAEPAVCActorInstance@@XZ
_TEXT	SEGMENT
?GetGraphicThingInstancePtr@CInstanceBase@@QAEPAVCActorInstance@@XZ PROC ; CInstanceBase::GetGraphicThingInstancePtr, COMDAT
; _this$ = ecx

; 2506 : 	return &m_GraphicThingInstance;

  00000	8d 81 d4 01 00
	00		 lea	 eax, DWORD PTR [ecx+468]

; 2507 : }

  00006	c3		 ret	 0
?GetGraphicThingInstancePtr@CInstanceBase@@QAEPAVCActorInstance@@XZ ENDP ; CInstanceBase::GetGraphicThingInstancePtr
_TEXT	ENDS
; Function compile flags: /Ogtp
; File D:\Metin2 Server Files\mainline\SRC_2014\Metin2Client\UserInterface\InstanceBase.cpp
;	COMDAT ?GetGraphicThingInstanceRef@CInstanceBase@@QAEAAVCActorInstance@@XZ
_TEXT	SEGMENT
?GetGraphicThingInstanceRef@CInstanceBase@@QAEAAVCActorInstance@@XZ PROC ; CInstanceBase::GetGraphicThingInstanceRef, COMDAT
; _this$ = ecx

; 2501 : 	return m_GraphicThingInstance;

  00000	8d 81 d4 01 00
	00		 lea	 eax, DWORD PTR [ecx+468]

; 2502 : }

  00006	c3		 ret	 0
?GetGraphicThingInstanceRef@CInstanceBase@@QAEAAVCActorInstance@@XZ ENDP ; CInstanceBase::GetGraphicThingInstanceRef
_TEXT	ENDS
; Function compile flags: /Ogtp
; File D:\Metin2 Server Files\mainline\SRC_2014\Metin2Client\UserInterface\InstanceBase.cpp
; File C:\Program Files (x86)\Windows Kits\10\Include\10.0.18362.0\ucrt\corecrt_math.h
; File D:\Metin2 Server Files\mainline\SRC_2014\Metin2Client\UserInterface\InstanceBase.cpp
; File C:\Program Files (x86)\Windows Kits\10\Include\10.0.18362.0\ucrt\corecrt_math.h
; File D:\Metin2 Server Files\mainline\SRC_2014\Metin2Client\UserInterface\InstanceBase.cpp
;	COMDAT ?GetDistance@CInstanceBase@@QAEMABUD3DXVECTOR3@@@Z
_TEXT	SEGMENT
tv167 = -20						; size = 4
_PixelPosition$ = -16					; size = 12
__$ArrayPad$ = -4					; size = 4
_c_rPixelPosition$ = 8					; size = 4
?GetDistance@CInstanceBase@@QAEMABUD3DXVECTOR3@@@Z PROC	; CInstanceBase::GetDistance, COMDAT
; _this$ = ecx

; 2489 : {

  00000	55		 push	 ebp
  00001	8b ec		 mov	 ebp, esp
  00003	83 e4 f8	 and	 esp, -8			; fffffff8H
  00006	83 ec 18	 sub	 esp, 24			; 00000018H
  00009	a1 00 00 00 00	 mov	 eax, DWORD PTR ___security_cookie
  0000e	33 c4		 xor	 eax, esp
  00010	89 44 24 14	 mov	 DWORD PTR __$ArrayPad$[esp+24], eax

; 2490 : 	TPixelPosition PixelPosition;
; 2491 : 	m_GraphicThingInstance.GetPixelPosition(&PixelPosition);

  00014	8d 44 24 08	 lea	 eax, DWORD PTR _PixelPosition$[esp+24]
  00018	81 c1 d4 01 00
	00		 add	 ecx, 468		; 000001d4H
  0001e	50		 push	 eax
  0001f	e8 00 00 00 00	 call	 ?GetPixelPosition@CActorInstance@@QAEXPAUD3DXVECTOR3@@@Z ; CActorInstance::GetPixelPosition

; 2492 : 
; 2493 : 	float fdx = PixelPosition.x - c_rPixelPosition.x;

  00024	8b 45 08	 mov	 eax, DWORD PTR _c_rPixelPosition$[ebp]
  00027	f3 0f 10 4c 24
	08		 movss	 xmm1, DWORD PTR _PixelPosition$[esp+24]

; 2494 : 	float fdy = PixelPosition.y - c_rPixelPosition.y;

  0002d	f3 0f 10 44 24
	0c		 movss	 xmm0, DWORD PTR _PixelPosition$[esp+28]
  00033	f3 0f 5c 40 04	 subss	 xmm0, DWORD PTR [eax+4]
  00038	f3 0f 5c 08	 subss	 xmm1, DWORD PTR [eax]

; 2495 : 
; 2496 : 	return sqrtf((fdx*fdx) + (fdy*fdy));

  0003c	f3 0f 59 c0	 mulss	 xmm0, xmm0
  00040	f3 0f 59 c9	 mulss	 xmm1, xmm1
  00044	f3 0f 58 c1	 addss	 xmm0, xmm1
  00048	0f 57 c9	 xorps	 xmm1, xmm1
; File C:\Program Files (x86)\Windows Kits\10\Include\10.0.18362.0\ucrt\corecrt_math.h

; 760  :             return (float)sqrt(_X);

  0004b	0f 5a c0	 cvtps2pd xmm0, xmm0
  0004e	66 0f 2e c8	 ucomisd xmm1, xmm0
  00052	77 06		 ja	 SHORT $LN5@GetDistanc
  00054	f2 0f 51 c0	 sqrtsd	 xmm0, xmm0
  00058	eb 05		 jmp	 SHORT $LN6@GetDistanc
$LN5@GetDistanc:
  0005a	e8 00 00 00 00	 call	 __libm_sse2_sqrt_precise
$LN6@GetDistanc:
; File D:\Metin2 Server Files\mainline\SRC_2014\Metin2Client\UserInterface\InstanceBase.cpp

; 2497 : }

  0005f	8b 4c 24 14	 mov	 ecx, DWORD PTR __$ArrayPad$[esp+24]
; File C:\Program Files (x86)\Windows Kits\10\Include\10.0.18362.0\ucrt\corecrt_math.h

; 760  :             return (float)sqrt(_X);

  00063	f2 0f 5a c0	 cvtsd2ss xmm0, xmm0
; File D:\Metin2 Server Files\mainline\SRC_2014\Metin2Client\UserInterface\InstanceBase.cpp

; 2497 : }

  00067	33 cc		 xor	 ecx, esp
  00069	f3 0f 11 44 24
	04		 movss	 DWORD PTR tv167[esp+24], xmm0
  0006f	d9 44 24 04	 fld	 DWORD PTR tv167[esp+24]
  00073	e8 00 00 00 00	 call	 @__security_check_cookie@4
  00078	8b e5		 mov	 esp, ebp
  0007a	5d		 pop	 ebp
  0007b	c2 04 00	 ret	 4
?GetDistance@CInstanceBase@@QAEMABUD3DXVECTOR3@@@Z ENDP	; CInstanceBase::GetDistance
_TEXT	ENDS
; Function compile flags: /Ogtp
; File D:\Metin2 Server Files\mainline\SRC_2014\Metin2Client\UserInterface\InstanceBase.cpp
;	COMDAT ?GetDistance@CInstanceBase@@QAEMPAV1@@Z
_TEXT	SEGMENT
_TargetPixelPosition$ = -16				; size = 12
__$ArrayPad$ = -4					; size = 4
_pkTargetInst$ = 8					; size = 4
?GetDistance@CInstanceBase@@QAEMPAV1@@Z PROC		; CInstanceBase::GetDistance, COMDAT
; _this$ = ecx

; 2482 : {

  00000	55		 push	 ebp
  00001	8b ec		 mov	 ebp, esp
  00003	83 ec 10	 sub	 esp, 16			; 00000010H
  00006	a1 00 00 00 00	 mov	 eax, DWORD PTR ___security_cookie
  0000b	33 c5		 xor	 eax, ebp
  0000d	89 45 fc	 mov	 DWORD PTR __$ArrayPad$[ebp], eax
  00010	56		 push	 esi
  00011	8b f1		 mov	 esi, ecx

; 2483 : 	TPixelPosition TargetPixelPosition;
; 2484 : 	pkTargetInst->m_GraphicThingInstance.GetPixelPosition(&TargetPixelPosition);

  00013	8d 45 f0	 lea	 eax, DWORD PTR _TargetPixelPosition$[ebp]
  00016	8b 4d 08	 mov	 ecx, DWORD PTR _pkTargetInst$[ebp]
  00019	50		 push	 eax
  0001a	81 c1 d4 01 00
	00		 add	 ecx, 468		; 000001d4H
  00020	e8 00 00 00 00	 call	 ?GetPixelPosition@CActorInstance@@QAEXPAUD3DXVECTOR3@@@Z ; CActorInstance::GetPixelPosition

; 2485 : 	return GetDistance(TargetPixelPosition);

  00025	8d 45 f0	 lea	 eax, DWORD PTR _TargetPixelPosition$[ebp]
  00028	8b ce		 mov	 ecx, esi
  0002a	50		 push	 eax
  0002b	e8 00 00 00 00	 call	 ?GetDistance@CInstanceBase@@QAEMABUD3DXVECTOR3@@@Z ; CInstanceBase::GetDistance

; 2486 : }

  00030	8b 4d fc	 mov	 ecx, DWORD PTR __$ArrayPad$[ebp]
  00033	33 cd		 xor	 ecx, ebp
  00035	5e		 pop	 esi
  00036	e8 00 00 00 00	 call	 @__security_check_cookie@4
  0003b	8b e5		 mov	 esp, ebp
  0003d	5d		 pop	 ebp
  0003e	c2 04 00	 ret	 4
?GetDistance@CInstanceBase@@QAEMPAV1@@Z ENDP		; CInstanceBase::GetDistance
_TEXT	ENDS
; Function compile flags: /Ogtp
; File D:\Metin2 Server Files\mainline\SRC_2014\Metin2Client\UserInterface\InstanceBase.cpp
;	COMDAT ?Refresh@CInstanceBase@@QAEXK_N@Z
_TEXT	SEGMENT
_dwMotIndex$ = 8					; size = 4
_isLoop$ = 12						; size = 1
?Refresh@CInstanceBase@@QAEXK_N@Z PROC			; CInstanceBase::Refresh, COMDAT
; _this$ = ecx

; 2515 : {

  00000	55		 push	 ebp
  00001	8b ec		 mov	 ebp, esp

; 2517 : }

  00003	5d		 pop	 ebp

; 2516 : 	RefreshState(dwMotIndex, isLoop);

  00004	e9 00 00 00 00	 jmp	 ?RefreshState@CInstanceBase@@IAEXK_N@Z ; CInstanceBase::RefreshState
?Refresh@CInstanceBase@@QAEXK_N@Z ENDP			; CInstanceBase::Refresh
_TEXT	ENDS
; Function compile flags: /Ogtp
; File D:\Metin2 Server Files\mainline\SRC_2014\Metin2Client\UserInterface\InstanceBase.cpp
;	COMDAT ?IntersectBoundingBox@CInstanceBase@@QAE_NXZ
_TEXT	SEGMENT
_u$ = -12						; size = 4
_v$ = -8						; size = 4
_t$ = -4						; size = 4
?IntersectBoundingBox@CInstanceBase@@QAE_NXZ PROC	; CInstanceBase::IntersectBoundingBox, COMDAT
; _this$ = ecx

; 2471 : {

  00000	55		 push	 ebp
  00001	8b ec		 mov	 ebp, esp
  00003	83 ec 0c	 sub	 esp, 12			; 0000000cH

; 2472 : 	float u, v, t;
; 2473 : 	return m_GraphicThingInstance.Intersect(&u, &v, &t);

  00006	8d 45 fc	 lea	 eax, DWORD PTR _t$[ebp]
  00009	81 c1 d4 01 00
	00		 add	 ecx, 468		; 000001d4H
  0000f	50		 push	 eax
  00010	8d 45 f8	 lea	 eax, DWORD PTR _v$[ebp]
  00013	50		 push	 eax
  00014	8d 45 f4	 lea	 eax, DWORD PTR _u$[ebp]
  00017	50		 push	 eax
  00018	e8 00 00 00 00	 call	 ?Intersect@CGraphicThingInstance@@QAE_NPAM00@Z ; CGraphicThingInstance::Intersect

; 2474 : }

  0001d	8b e5		 mov	 esp, ebp
  0001f	5d		 pop	 ebp
  00020	c3		 ret	 0
?IntersectBoundingBox@CInstanceBase@@QAE_NXZ ENDP	; CInstanceBase::IntersectBoundingBox
_TEXT	ENDS
; Function compile flags: /Ogtp
; File D:\Metin2 Server Files\mainline\SRC_2014\Metin2Client\UserInterface\InstanceBase.cpp
;	COMDAT ?IntersectDefendingSphere@CInstanceBase@@QAE_NXZ
_TEXT	SEGMENT
?IntersectDefendingSphere@CInstanceBase@@QAE_NXZ PROC	; CInstanceBase::IntersectDefendingSphere, COMDAT
; _this$ = ecx

; 2478 : 	return m_GraphicThingInstance.IntersectDefendingSphere();

  00000	81 c1 d4 01 00
	00		 add	 ecx, 468		; 000001d4H
  00006	e9 00 00 00 00	 jmp	 ?IntersectDefendingSphere@CActorInstance@@QAE_NXZ ; CActorInstance::IntersectDefendingSphere
?IntersectDefendingSphere@CInstanceBase@@QAE_NXZ ENDP	; CInstanceBase::IntersectDefendingSphere
_TEXT	ENDS
; Function compile flags: /Ogtp
; File D:\Metin2 Server Files\mainline\SRC_2014\Metin2Client\UserInterface\InstanceBase.cpp
;	COMDAT ?SetAddColor@CInstanceBase@@QAEXABUD3DXCOLOR@@@Z
_TEXT	SEGMENT
_c_rColor$ = 8						; size = 4
?SetAddColor@CInstanceBase@@QAEXABUD3DXCOLOR@@@Z PROC	; CInstanceBase::SetAddColor, COMDAT
; _this$ = ecx

; 2540 : {

  00000	55		 push	 ebp
  00001	8b ec		 mov	 ebp, esp

; 2541 : 	m_GraphicThingInstance.SetAddColor(c_rColor);

  00003	81 c1 d4 01 00
	00		 add	 ecx, 468		; 000001d4H

; 2542 : }

  00009	5d		 pop	 ebp

; 2541 : 	m_GraphicThingInstance.SetAddColor(c_rColor);

  0000a	e9 00 00 00 00	 jmp	 ?SetAddColor@CActorInstance@@QAEXABUD3DXCOLOR@@@Z ; CActorInstance::SetAddColor
?SetAddColor@CInstanceBase@@QAEXABUD3DXCOLOR@@@Z ENDP	; CInstanceBase::SetAddColor
_TEXT	ENDS
; Function compile flags: /Ogtp
; File D:\Metin2 Server Files\mainline\SRC_2014\Metin2Client\UserInterface\InstanceBase.cpp
;	COMDAT ?SetRenderMode@CInstanceBase@@QAEXH@Z
_TEXT	SEGMENT
_iRenderMode$ = 8					; size = 4
?SetRenderMode@CInstanceBase@@QAEXH@Z PROC		; CInstanceBase::SetRenderMode, COMDAT
; _this$ = ecx

; 2535 : {

  00000	55		 push	 ebp
  00001	8b ec		 mov	 ebp, esp

; 2536 : 	m_GraphicThingInstance.SetRenderMode(iRenderMode);

  00003	81 c1 d4 01 00
	00		 add	 ecx, 468		; 000001d4H

; 2537 : }

  00009	5d		 pop	 ebp

; 2536 : 	m_GraphicThingInstance.SetRenderMode(iRenderMode);

  0000a	e9 00 00 00 00	 jmp	 ?SetRenderMode@CActorInstance@@QAEXH@Z ; CActorInstance::SetRenderMode
?SetRenderMode@CInstanceBase@@QAEXH@Z ENDP		; CInstanceBase::SetRenderMode
_TEXT	ENDS
; Function compile flags: /Ogtp
; File D:\Metin2 Server Files\mainline\SRC_2014\Metin2Client\UserInterface\InstanceBase.cpp
;	COMDAT ?SetModulateRenderMode@CInstanceBase@@QAEXXZ
_TEXT	SEGMENT
?SetModulateRenderMode@CInstanceBase@@QAEXXZ PROC	; CInstanceBase::SetModulateRenderMode, COMDAT
; _this$ = ecx

; 2531 : 	m_GraphicThingInstance.SetModulateRenderMode();

  00000	81 c1 d4 01 00
	00		 add	 ecx, 468		; 000001d4H
  00006	e9 00 00 00 00	 jmp	 ?SetModulateRenderMode@CActorInstance@@QAEXXZ ; CActorInstance::SetModulateRenderMode
?SetModulateRenderMode@CInstanceBase@@QAEXXZ ENDP	; CInstanceBase::SetModulateRenderMode
_TEXT	ENDS
; Function compile flags: /Ogtp
; File D:\Metin2 Server Files\mainline\SRC_2014\Metin2Client\UserInterface\InstanceBase.cpp
;	COMDAT ?SetAddRenderMode@CInstanceBase@@QAEXXZ
_TEXT	SEGMENT
?SetAddRenderMode@CInstanceBase@@QAEXXZ PROC		; CInstanceBase::SetAddRenderMode, COMDAT
; _this$ = ecx

; 2526 : 	m_GraphicThingInstance.SetAddRenderMode();

  00000	81 c1 d4 01 00
	00		 add	 ecx, 468		; 000001d4H
  00006	e9 00 00 00 00	 jmp	 ?SetAddRenderMode@CActorInstance@@QAEXXZ ; CActorInstance::SetAddRenderMode
?SetAddRenderMode@CInstanceBase@@QAEXXZ ENDP		; CInstanceBase::SetAddRenderMode
_TEXT	ENDS
; Function compile flags: /Ogtp
; File D:\Metin2 Server Files\mainline\SRC_2014\Metin2Client\UserInterface\InstanceBase.cpp
;	COMDAT ?RestoreRenderMode@CInstanceBase@@QAEXXZ
_TEXT	SEGMENT
?RestoreRenderMode@CInstanceBase@@QAEXXZ PROC		; CInstanceBase::RestoreRenderMode, COMDAT
; _this$ = ecx

; 2521 : 	m_GraphicThingInstance.RestoreRenderMode();

  00000	81 c1 d4 01 00
	00		 add	 ecx, 468		; 000001d4H
  00006	e9 00 00 00 00	 jmp	 ?RestoreRenderMode@CActorInstance@@QAEXXZ ; CActorInstance::RestoreRenderMode
?RestoreRenderMode@CInstanceBase@@QAEXXZ ENDP		; CInstanceBase::RestoreRenderMode
_TEXT	ENDS
; Function compile flags: /Ogtp
; File D:\Metin2 Server Files\mainline\SRC_2014\Metin2Client\UserInterface\InstanceBase.cpp
;	COMDAT ?BlockMovement@CInstanceBase@@QAEXXZ
_TEXT	SEGMENT
?BlockMovement@CInstanceBase@@QAEXXZ PROC		; CInstanceBase::BlockMovement, COMDAT
; _this$ = ecx

; 265  : 	m_GraphicThingInstance.BlockMovement();

  00000	81 c1 d4 01 00
	00		 add	 ecx, 468		; 000001d4H
  00006	e9 00 00 00 00	 jmp	 ?BlockMovement@CActorInstance@@QAEXXZ ; CActorInstance::BlockMovement
?BlockMovement@CInstanceBase@@QAEXXZ ENDP		; CInstanceBase::BlockMovement
_TEXT	ENDS
; Function compile flags: /Ogtp
; File D:\Metin2 Server Files\mainline\SRC_2014\Metin2Client\UserInterface\InstanceBase.cpp
;	COMDAT ?IsBlockObject@CInstanceBase@@QAE_NABVCGraphicObjectInstance@@@Z
_TEXT	SEGMENT
_c_rkBGObj$ = 8						; size = 4
?IsBlockObject@CInstanceBase@@QAE_NABVCGraphicObjectInstance@@@Z PROC ; CInstanceBase::IsBlockObject, COMDAT
; _this$ = ecx

; 269  : {

  00000	55		 push	 ebp
  00001	8b ec		 mov	 ebp, esp

; 270  : 	return m_GraphicThingInstance.IsBlockObject(c_rkBGObj);

  00003	81 c1 d4 01 00
	00		 add	 ecx, 468		; 000001d4H

; 271  : }

  00009	5d		 pop	 ebp

; 270  : 	return m_GraphicThingInstance.IsBlockObject(c_rkBGObj);

  0000a	e9 00 00 00 00	 jmp	 ?IsBlockObject@CActorInstance@@QAE_NABVCGraphicObjectInstance@@@Z ; CActorInstance::IsBlockObject
?IsBlockObject@CInstanceBase@@QAE_NABVCGraphicObjectInstance@@@Z ENDP ; CInstanceBase::IsBlockObject
_TEXT	ENDS
; Function compile flags: /Ogtp
; File D:\Metin2 Server Files\mainline\SRC_2014\Metin2Client\UserInterface\InstanceBase.cpp
;	COMDAT ?AvoidObject@CInstanceBase@@QAE_NABVCGraphicObjectInstance@@@Z
_TEXT	SEGMENT
_c_rkBGObj$ = 8						; size = 4
?AvoidObject@CInstanceBase@@QAE_NABVCGraphicObjectInstance@@@Z PROC ; CInstanceBase::AvoidObject, COMDAT
; _this$ = ecx

; 274  : {

  00000	55		 push	 ebp
  00001	8b ec		 mov	 ebp, esp

; 275  : 	return m_GraphicThingInstance.AvoidObject(c_rkBGObj);

  00003	81 c1 d4 01 00
	00		 add	 ecx, 468		; 000001d4H

; 276  : }

  00009	5d		 pop	 ebp

; 275  : 	return m_GraphicThingInstance.AvoidObject(c_rkBGObj);

  0000a	e9 00 00 00 00	 jmp	 ?AvoidObject@CActorInstance@@QAE_NABVCGraphicObjectInstance@@@Z ; CActorInstance::AvoidObject
?AvoidObject@CInstanceBase@@QAE_NABVCGraphicObjectInstance@@@Z ENDP ; CInstanceBase::AvoidObject
_TEXT	ENDS
; Function compile flags: /Ogtp
; File D:\Metin2 Server Files\mainline\SRC_2014\Metin2Client\UserInterface\InstanceBase.cpp
;	COMDAT ?NEW_GetLastPixelPositionRef@CInstanceBase@@QAEABUD3DXVECTOR3@@XZ
_TEXT	SEGMENT
?NEW_GetLastPixelPositionRef@CInstanceBase@@QAEABUD3DXVECTOR3@@XZ PROC ; CInstanceBase::NEW_GetLastPixelPositionRef, COMDAT
; _this$ = ecx

; 991  : 	return m_GraphicThingInstance.NEW_GetLastPixelPositionRef();

  00000	81 c1 d4 01 00
	00		 add	 ecx, 468		; 000001d4H
  00006	e9 00 00 00 00	 jmp	 ?NEW_GetLastPixelPositionRef@CActorInstance@@QAEABUD3DXVECTOR3@@XZ ; CActorInstance::NEW_GetLastPixelPositionRef
?NEW_GetLastPixelPositionRef@CInstanceBase@@QAEABUD3DXVECTOR3@@XZ ENDP ; CInstanceBase::NEW_GetLastPixelPositionRef
_TEXT	ENDS
; Function compile flags: /Ogtp
; File D:\Metin2 Server Files\mainline\SRC_2014\Metin2Client\UserInterface\InstanceBase.cpp
;	COMDAT ?NEW_IsLastPixelPosition@CInstanceBase@@QAE_NXZ
_TEXT	SEGMENT
?NEW_IsLastPixelPosition@CInstanceBase@@QAE_NXZ PROC	; CInstanceBase::NEW_IsLastPixelPosition, COMDAT
; _this$ = ecx

; 986  : 	return m_GraphicThingInstance.IsPushing();

  00000	81 c1 d4 01 00
	00		 add	 ecx, 468		; 000001d4H
  00006	e9 00 00 00 00	 jmp	 ?IsPushing@CActorInstance@@QAE_NXZ ; CActorInstance::IsPushing
?NEW_IsLastPixelPosition@CInstanceBase@@QAE_NXZ ENDP	; CInstanceBase::NEW_IsLastPixelPosition
_TEXT	ENDS
; Function compile flags: /Ogtp
; File D:\Metin2 Server Files\mainline\SRC_2014\Metin2Client\UserInterface\InstanceBase.cpp
;	COMDAT ?NEW_SetOwner@CInstanceBase@@QAEXK@Z
_TEXT	SEGMENT
_dwVIDOwner$ = 8					; size = 4
?NEW_SetOwner@CInstanceBase@@QAEXK@Z PROC		; CInstanceBase::NEW_SetOwner, COMDAT
; _this$ = ecx

; 1159 : {

  00000	55		 push	 ebp
  00001	8b ec		 mov	 ebp, esp

; 1160 : 	m_GraphicThingInstance.SetOwner(dwVIDOwner);

  00003	81 c1 d4 01 00
	00		 add	 ecx, 468		; 000001d4H

; 1161 : }

  00009	5d		 pop	 ebp

; 1160 : 	m_GraphicThingInstance.SetOwner(dwVIDOwner);

  0000a	e9 00 00 00 00	 jmp	 ?SetOwner@CActorInstance@@QAEXK@Z ; CActorInstance::SetOwner
?NEW_SetOwner@CInstanceBase@@QAEXK@Z ENDP		; CInstanceBase::NEW_SetOwner
_TEXT	ENDS
; Function compile flags: /Ogtp
; File D:\Metin2 Server Files\mainline\SRC_2014\Metin2Client\UserInterface\InstanceBase.cpp
;	COMDAT ?PushTCPStateExpanded@CInstanceBase@@QAEXKABUD3DXVECTOR3@@MIII@Z
_TEXT	SEGMENT
_kCmdNew$ = -40						; size = 36
__$ArrayPad$ = -4					; size = 4
_dwCmdTime$ = 8						; size = 4
_c_rkPPosDst$ = 12					; size = 4
_fDstRot$ = 16						; size = 4
_eFunc$ = 20						; size = 4
_uArg$ = 24						; size = 4
_uTargetVID$ = 28					; size = 4
?PushTCPStateExpanded@CInstanceBase@@QAEXKABUD3DXVECTOR3@@MIII@Z PROC ; CInstanceBase::PushTCPStateExpanded, COMDAT
; _this$ = ecx

; 1176 : {

  00000	55		 push	 ebp
  00001	8b ec		 mov	 ebp, esp
  00003	83 ec 28	 sub	 esp, 40			; 00000028H
  00006	a1 00 00 00 00	 mov	 eax, DWORD PTR ___security_cookie
  0000b	33 c5		 xor	 eax, ebp
  0000d	89 45 fc	 mov	 DWORD PTR __$ArrayPad$[ebp], eax

; 1177 : 	SCommand kCmdNew;
; 1178 : 	kCmdNew.m_kPPosDst = c_rkPPosDst;

  00010	8b 45 0c	 mov	 eax, DWORD PTR _c_rkPPosDst$[ebp]

; 1179 : 	kCmdNew.m_dwChkTime = dwCmdTime+100;
; 1180 : 	kCmdNew.m_dwCmdTime = dwCmdTime;
; 1181 : 	kCmdNew.m_fDstRot = fDstRot;
; 1182 : 	kCmdNew.m_eFunc = eFunc;
; 1183 : 	kCmdNew.m_uArg = uArg;
; 1184 : 	kCmdNew.m_uTargetVID = uTargetVID;
; 1185 : 	m_kQue_kCmdNew.push_back(kCmdNew);

  00013	81 c1 90 06 00
	00		 add	 ecx, 1680		; 00000690H
  00019	8b 55 08	 mov	 edx, DWORD PTR _dwCmdTime$[ebp]
  0001c	89 55 dc	 mov	 DWORD PTR _kCmdNew$[ebp+4], edx
  0001f	f3 0f 7e 00	 movq	 xmm0, QWORD PTR [eax]
  00023	8b 40 08	 mov	 eax, DWORD PTR [eax+8]
  00026	89 45 f8	 mov	 DWORD PTR _kCmdNew$[ebp+32], eax
  00029	8d 42 64	 lea	 eax, DWORD PTR [edx+100]
  0002c	89 45 d8	 mov	 DWORD PTR _kCmdNew$[ebp], eax
  0002f	8b 45 14	 mov	 eax, DWORD PTR _eFunc$[ebp]
  00032	89 45 e4	 mov	 DWORD PTR _kCmdNew$[ebp+12], eax
  00035	8b 45 18	 mov	 eax, DWORD PTR _uArg$[ebp]
  00038	89 45 e8	 mov	 DWORD PTR _kCmdNew$[ebp+16], eax
  0003b	8b 45 1c	 mov	 eax, DWORD PTR _uTargetVID$[ebp]
  0003e	89 45 ec	 mov	 DWORD PTR _kCmdNew$[ebp+20], eax
  00041	8d 45 d8	 lea	 eax, DWORD PTR _kCmdNew$[ebp]
  00044	66 0f d6 45 f0	 movq	 QWORD PTR _kCmdNew$[ebp+24], xmm0
  00049	f3 0f 10 45 10	 movss	 xmm0, DWORD PTR _fDstRot$[ebp]
  0004e	50		 push	 eax
  0004f	f3 0f 11 45 e0	 movss	 DWORD PTR _kCmdNew$[ebp+8], xmm0
  00054	e8 00 00 00 00	 call	 ?push_back@?$list@USCommand@CInstanceBase@@V?$allocator@USCommand@CInstanceBase@@@std@@@std@@QAEXABUSCommand@CInstanceBase@@@Z ; std::list<CInstanceBase::SCommand,std::allocator<CInstanceBase::SCommand> >::push_back

; 1186 : }

  00059	8b 4d fc	 mov	 ecx, DWORD PTR __$ArrayPad$[ebp]
  0005c	33 cd		 xor	 ecx, ebp
  0005e	e8 00 00 00 00	 call	 @__security_check_cookie@4
  00063	8b e5		 mov	 esp, ebp
  00065	5d		 pop	 ebp
  00066	c2 18 00	 ret	 24			; 00000018H
?PushTCPStateExpanded@CInstanceBase@@QAEXKABUD3DXVECTOR3@@MIII@Z ENDP ; CInstanceBase::PushTCPStateExpanded
_TEXT	ENDS
; Function compile flags: /Ogtp
; File D:\Metin2 Server Files\mainline\SRC_2014\Metin2Client\UserInterface\InstanceBase.cpp
;	COMDAT ?PushTCPState@CInstanceBase@@QAEXKABUD3DXVECTOR3@@MII@Z
_TEXT	SEGMENT
_kCmdNew$ = -40						; size = 36
__$ArrayPad$ = -4					; size = 4
_dwCmdTime$ = 8						; size = 4
_c_rkPPosDst$ = 12					; size = 4
_fDstRot$ = 16						; size = 4
_eFunc$ = 20						; size = 4
_uArg$ = 24						; size = 4
?PushTCPState@CInstanceBase@@QAEXKABUD3DXVECTOR3@@MII@Z PROC ; CInstanceBase::PushTCPState, COMDAT
; _this$ = ecx

; 1189 : {	

  00000	55		 push	 ebp
  00001	8b ec		 mov	 ebp, esp
  00003	83 ec 28	 sub	 esp, 40			; 00000028H
  00006	a1 00 00 00 00	 mov	 eax, DWORD PTR ___security_cookie
  0000b	33 c5		 xor	 eax, ebp
  0000d	89 45 fc	 mov	 DWORD PTR __$ArrayPad$[ebp], eax
  00010	57		 push	 edi
  00011	8b f9		 mov	 edi, ecx

; 1190 : 	if (__IsMainInstance())

  00013	e8 00 00 00 00	 call	 ?__IsMainInstance@CInstanceBase@@IAE_NXZ ; CInstanceBase::__IsMainInstance
  00018	84 c0		 test	 al, al
  0001a	74 1e		 je	 SHORT $LN2@PushTCPSta

; 1191 : 	{
; 1192 : 		//assert(!"CInstanceBase::PushTCPState     !");
; 1193 : 		TraceError("CInstanceBase::PushTCPState     !");

  0001c	68 00 00 00 00	 push	 OFFSET ??_C@_0EG@IFLKAGDE@CInstanceBase?3?3PushTCPState?5?G?C?$LH@
  00021	e8 00 00 00 00	 call	 ?TraceError@@YAXPBDZZ	; TraceError
  00026	83 c4 04	 add	 esp, 4
  00029	5f		 pop	 edi

; 1221 : 
; 1222 : 	//int nApplyGap=kCmdNew.m_dwChkTime-ELTimer_GetServerFrameMSec();
; 1223 : 
; 1224 : 	//if (nApplyGap<-500 || nApplyGap>500)
; 1225 : 	//	Tracenf("VID[%d] NAME[%s]  [cur:%d ave:%d]  (%d)", GetVirtualID(), GetNameString(), nNetworkGap, m_nAverageNetworkGap, nApplyGap);
; 1226 : }

  0002a	8b 4d fc	 mov	 ecx, DWORD PTR __$ArrayPad$[ebp]
  0002d	33 cd		 xor	 ecx, ebp
  0002f	e8 00 00 00 00	 call	 @__security_check_cookie@4
  00034	8b e5		 mov	 esp, ebp
  00036	5d		 pop	 ebp
  00037	c2 14 00	 ret	 20			; 00000014H
$LN2@PushTCPSta:
  0003a	56		 push	 esi

; 1194 : 		return;
; 1195 : 	}
; 1196 : 
; 1197 : 	int nNetworkGap=ELTimer_GetServerFrameMSec()-dwCmdTime;

  0003b	e8 00 00 00 00	 call	 ?ELTimer_GetServerFrameMSec@@YAKXZ ; ELTimer_GetServerFrameMSec
  00040	8b 75 08	 mov	 esi, DWORD PTR _dwCmdTime$[ebp]
  00043	2b c6		 sub	 eax, esi

; 1198 : 	
; 1199 : 	m_nAverageNetworkGap=(m_nAverageNetworkGap*70+nNetworkGap*30)/100;

  00045	6b 97 80 01 00
	00 46		 imul	 edx, DWORD PTR [edi+384], 70
  0004c	8b c8		 mov	 ecx, eax
  0004e	c1 e1 04	 shl	 ecx, 4
  00051	2b c8		 sub	 ecx, eax

; 1200 : 	
; 1201 : 	/*
; 1202 : 	if (m_dwBaseCmdTime == 0)
; 1203 : 	{
; 1204 : 		m_dwBaseChkTime = ELTimer_GetFrameMSec()-nNetworkGap;
; 1205 : 		m_dwBaseCmdTime = dwCmdTime;
; 1206 : 
; 1207 : 		Tracenf("VID[%d]  [%d]", GetVirtualID(), nNetworkGap);
; 1208 : 	}
; 1209 : 	*/
; 1210 : 
; 1211 : 	//m_dwBaseChkTime-m_dwBaseCmdTime+ELTimer_GetServerMSec();
; 1212 : 
; 1213 : 	SCommand kCmdNew;
; 1214 : 	kCmdNew.m_kPPosDst = c_rkPPosDst;
; 1215 : 	kCmdNew.m_dwChkTime = dwCmdTime+m_nAverageNetworkGap;//m_dwBaseChkTime + (dwCmdTime - m_dwBaseCmdTime);// + nNetworkGap;
; 1216 : 	kCmdNew.m_dwCmdTime = dwCmdTime;

  00053	89 75 dc	 mov	 DWORD PTR _kCmdNew$[ebp+4], esi
  00056	b8 1f 85 eb 51	 mov	 eax, 1374389535		; 51eb851fH
  0005b	8d 0c 4a	 lea	 ecx, DWORD PTR [edx+ecx*2]
  0005e	f7 e9		 imul	 ecx
  00060	8b 45 0c	 mov	 eax, DWORD PTR _c_rkPPosDst$[ebp]
  00063	c1 fa 05	 sar	 edx, 5
  00066	8b ca		 mov	 ecx, edx
  00068	c1 e9 1f	 shr	 ecx, 31			; 0000001fH
  0006b	03 ca		 add	 ecx, edx
  0006d	89 8f 80 01 00
	00		 mov	 DWORD PTR [edi+384], ecx
  00073	f3 0f 7e 00	 movq	 xmm0, QWORD PTR [eax]
  00077	8b 40 08	 mov	 eax, DWORD PTR [eax+8]
  0007a	89 45 f8	 mov	 DWORD PTR _kCmdNew$[ebp+32], eax
  0007d	8d 04 31	 lea	 eax, DWORD PTR [ecx+esi]
  00080	89 45 d8	 mov	 DWORD PTR _kCmdNew$[ebp], eax

; 1217 : 	kCmdNew.m_fDstRot = fDstRot;
; 1218 : 	kCmdNew.m_eFunc = eFunc;
; 1219 : 	kCmdNew.m_uArg = uArg;
; 1220 : 	m_kQue_kCmdNew.push_back(kCmdNew);

  00083	8d 8f 90 06 00
	00		 lea	 ecx, DWORD PTR [edi+1680]
  00089	8b 45 14	 mov	 eax, DWORD PTR _eFunc$[ebp]
  0008c	89 45 e4	 mov	 DWORD PTR _kCmdNew$[ebp+12], eax
  0008f	8b 45 18	 mov	 eax, DWORD PTR _uArg$[ebp]
  00092	89 45 e8	 mov	 DWORD PTR _kCmdNew$[ebp+16], eax
  00095	8d 45 d8	 lea	 eax, DWORD PTR _kCmdNew$[ebp]
  00098	66 0f d6 45 f0	 movq	 QWORD PTR _kCmdNew$[ebp+24], xmm0
  0009d	f3 0f 10 45 10	 movss	 xmm0, DWORD PTR _fDstRot$[ebp]
  000a2	50		 push	 eax
  000a3	f3 0f 11 45 e0	 movss	 DWORD PTR _kCmdNew$[ebp+8], xmm0
  000a8	e8 00 00 00 00	 call	 ?push_back@?$list@USCommand@CInstanceBase@@V?$allocator@USCommand@CInstanceBase@@@std@@@std@@QAEXABUSCommand@CInstanceBase@@@Z ; std::list<CInstanceBase::SCommand,std::allocator<CInstanceBase::SCommand> >::push_back

; 1221 : 
; 1222 : 	//int nApplyGap=kCmdNew.m_dwChkTime-ELTimer_GetServerFrameMSec();
; 1223 : 
; 1224 : 	//if (nApplyGap<-500 || nApplyGap>500)
; 1225 : 	//	Tracenf("VID[%d] NAME[%s]  [cur:%d ave:%d]  (%d)", GetVirtualID(), GetNameString(), nNetworkGap, m_nAverageNetworkGap, nApplyGap);
; 1226 : }

  000ad	8b 4d fc	 mov	 ecx, DWORD PTR __$ArrayPad$[ebp]
  000b0	5e		 pop	 esi
  000b1	33 cd		 xor	 ecx, ebp
  000b3	5f		 pop	 edi
  000b4	e8 00 00 00 00	 call	 @__security_check_cookie@4
  000b9	8b e5		 mov	 esp, ebp
  000bb	5d		 pop	 ebp
  000bc	c2 14 00	 ret	 20			; 00000014H
?PushTCPState@CInstanceBase@@QAEXKABUD3DXVECTOR3@@MII@Z ENDP ; CInstanceBase::PushTCPState
_TEXT	ENDS
; Function compile flags: /Ogtp
; File D:\Metin2 Server Files\mainline\SRC_2014\Metin2Client\UserInterface\InstanceBase.cpp
;	COMDAT ?PushUDPState@CInstanceBase@@QAEXKABUD3DXVECTOR3@@MII@Z
_TEXT	SEGMENT
_dwCmdTime$ = 8						; size = 4
_c_rkPPosDst$ = 12					; size = 4
_fDstRot$ = 16						; size = 4
_eFunc$ = 20						; size = 4
_uArg$ = 24						; size = 4
?PushUDPState@CInstanceBase@@QAEXKABUD3DXVECTOR3@@MII@Z PROC ; CInstanceBase::PushUDPState, COMDAT
; _this$ = ecx

; 1171 : }

  00000	c2 14 00	 ret	 20			; 00000014H
?PushUDPState@CInstanceBase@@QAEXKABUD3DXVECTOR3@@MII@Z ENDP ; CInstanceBase::PushUDPState
_TEXT	ENDS
; Function compile flags: /Ogtp
; File D:\Metin2 Server Files\mainline\SRC_2014\Metin2Client\UserInterface\InstanceBase.cpp
;	COMDAT ?__IsSyncing@CInstanceBase@@QAEHXZ
_TEXT	SEGMENT
?__IsSyncing@CInstanceBase@@QAEHXZ PROC			; CInstanceBase::__IsSyncing, COMDAT
; _this$ = ecx

; 1153 : 	return m_GraphicThingInstance.__IsSyncing();

  00000	81 c1 d4 01 00
	00		 add	 ecx, 468		; 000001d4H
  00006	e8 00 00 00 00	 call	 ?__IsSyncing@CActorInstance@@QAE_NXZ ; CActorInstance::__IsSyncing
  0000b	0f b6 c0	 movzx	 eax, al

; 1154 : }

  0000e	c3		 ret	 0
?__IsSyncing@CInstanceBase@@QAEHXZ ENDP			; CInstanceBase::__IsSyncing
_TEXT	ENDS
; Function compile flags: /Ogtp
; File D:\Metin2 Server Files\mainline\SRC_2014\Metin2Client\UserInterface\InstanceBase.cpp
;	COMDAT ?IsSleep@CInstanceBase@@QAEHXZ
_TEXT	SEGMENT
?IsSleep@CInstanceBase@@QAEHXZ PROC			; CInstanceBase::IsSleep, COMDAT
; _this$ = ecx

; 1147 : 	return m_GraphicThingInstance.IsSleep();

  00000	81 c1 d4 01 00
	00		 add	 ecx, 468		; 000001d4H
  00006	e9 00 00 00 00	 jmp	 ?IsSleep@CActorInstance@@QAEHXZ ; CActorInstance::IsSleep
?IsSleep@CInstanceBase@@QAEHXZ ENDP			; CInstanceBase::IsSleep
_TEXT	ENDS
; Function compile flags: /Ogtp
; File D:\Metin2 Server Files\mainline\SRC_2014\Metin2Client\UserInterface\InstanceBase.cpp
;	COMDAT ?IsStun@CInstanceBase@@QAEHXZ
_TEXT	SEGMENT
?IsStun@CInstanceBase@@QAEHXZ PROC			; CInstanceBase::IsStun, COMDAT
; _this$ = ecx

; 1142 : 	return m_GraphicThingInstance.IsStun();

  00000	81 c1 d4 01 00
	00		 add	 ecx, 468		; 000001d4H
  00006	e9 00 00 00 00	 jmp	 ?IsStun@CActorInstance@@QAEHXZ ; CActorInstance::IsStun
?IsStun@CInstanceBase@@QAEHXZ ENDP			; CInstanceBase::IsStun
_TEXT	ENDS
; Function compile flags: /Ogtp
; File D:\Metin2 Server Files\mainline\SRC_2014\Metin2Client\UserInterface\InstanceBase.cpp
;	COMDAT ?IsDead@CInstanceBase@@QAEHXZ
_TEXT	SEGMENT
?IsDead@CInstanceBase@@QAEHXZ PROC			; CInstanceBase::IsDead, COMDAT
; _this$ = ecx

; 1137 : 	return m_GraphicThingInstance.IsDead();

  00000	81 c1 d4 01 00
	00		 add	 ecx, 468		; 000001d4H
  00006	e9 00 00 00 00	 jmp	 ?IsDead@CActorInstance@@QAEHXZ ; CActorInstance::IsDead
?IsDead@CInstanceBase@@QAEHXZ ENDP			; CInstanceBase::IsDead
_TEXT	ENDS
; Function compile flags: /Ogtp
; File D:\Metin2 Server Files\mainline\SRC_2014\Metin2Client\UserInterface\InstanceBase.cpp
;	COMDAT ?IsGuildWall@CInstanceBase@@QAEHXZ
_TEXT	SEGMENT
?IsGuildWall@CInstanceBase@@QAEHXZ PROC			; CInstanceBase::IsGuildWall, COMDAT
; _this$ = ecx

; 2332 : 	return IsWall(m_dwRace);		

  00000	ff b1 64 01 00
	00		 push	 DWORD PTR [ecx+356]
  00006	e8 00 00 00 00	 call	 ?IsWall@@YA_NI@Z	; IsWall
  0000b	83 c4 04	 add	 esp, 4
  0000e	0f b6 c0	 movzx	 eax, al

; 2333 : }

  00011	c3		 ret	 0
?IsGuildWall@CInstanceBase@@QAEHXZ ENDP			; CInstanceBase::IsGuildWall
_TEXT	ENDS
; Function compile flags: /Ogtp
; File D:\Metin2 Server Files\mainline\SRC_2014\Metin2Client\UserInterface\InstanceBase.cpp
;	COMDAT ?IsFlag@CInstanceBase@@QAEHXZ
_TEXT	SEGMENT
?IsFlag@CInstanceBase@@QAEHXZ PROC			; CInstanceBase::IsFlag, COMDAT
; _this$ = ecx

; 2413 : {

  00000	56		 push	 esi
  00001	8b f1		 mov	 esi, ecx

; 2414 : 	if (GetRace() == 20035)

  00003	e8 00 00 00 00	 call	 ?GetRace@CInstanceBase@@QAEKXZ ; CInstanceBase::GetRace
  00008	3d 43 4e 00 00	 cmp	 eax, 20035		; 00004e43H
  0000d	74 20		 je	 SHORT $LN6@IsFlag

; 2415 : 		return TRUE;
; 2416 : 	if (GetRace() == 20036)

  0000f	8b ce		 mov	 ecx, esi
  00011	e8 00 00 00 00	 call	 ?GetRace@CInstanceBase@@QAEKXZ ; CInstanceBase::GetRace
  00016	3d 44 4e 00 00	 cmp	 eax, 20036		; 00004e44H
  0001b	74 12		 je	 SHORT $LN6@IsFlag

; 2417 : 		return TRUE;
; 2418 : 	if (GetRace() == 20037)

  0001d	8b ce		 mov	 ecx, esi
  0001f	e8 00 00 00 00	 call	 ?GetRace@CInstanceBase@@QAEKXZ ; CInstanceBase::GetRace
  00024	3d 45 4e 00 00	 cmp	 eax, 20037		; 00004e45H
  00029	74 04		 je	 SHORT $LN6@IsFlag

; 2420 : 
; 2421 : 	return FALSE;

  0002b	33 c0		 xor	 eax, eax
  0002d	5e		 pop	 esi

; 2422 : }

  0002e	c3		 ret	 0
$LN6@IsFlag:

; 2419 : 		return TRUE;

  0002f	b8 01 00 00 00	 mov	 eax, 1
  00034	5e		 pop	 esi

; 2422 : }

  00035	c3		 ret	 0
?IsFlag@CInstanceBase@@QAEHXZ ENDP			; CInstanceBase::IsFlag
_TEXT	ENDS
; Function compile flags: /Ogtp
; File D:\Metin2 Server Files\mainline\SRC_2014\Metin2Client\UserInterface\InstanceBase.cpp
;	COMDAT ?IsStoneDoor@CInstanceBase@@QAEHXZ
_TEXT	SEGMENT
?IsStoneDoor@CInstanceBase@@QAEHXZ PROC			; CInstanceBase::IsStoneDoor, COMDAT
; _this$ = ecx

; 2408 : {

  00000	56		 push	 esi
  00001	8b f1		 mov	 esi, ecx

; 2409 : 	return m_GraphicThingInstance.IsDoor() && 13001 == GetVirtualNumber();

  00003	8d 8e d4 01 00
	00		 lea	 ecx, DWORD PTR [esi+468]
  00009	e8 00 00 00 00	 call	 ?IsDoor@CActorInstance@@QAE_NXZ ; CActorInstance::IsDoor
  0000e	84 c0		 test	 al, al
  00010	74 15		 je	 SHORT $LN3@IsStoneDoo
  00012	8b ce		 mov	 ecx, esi
  00014	e8 00 00 00 00	 call	 ?GetVirtualNumber@CInstanceBase@@QAEKXZ ; CInstanceBase::GetVirtualNumber
  00019	3d c9 32 00 00	 cmp	 eax, 13001		; 000032c9H
  0001e	75 07		 jne	 SHORT $LN3@IsStoneDoo
  00020	b8 01 00 00 00	 mov	 eax, 1
  00025	5e		 pop	 esi

; 2410 : }

  00026	c3		 ret	 0
$LN3@IsStoneDoo:

; 2409 : 	return m_GraphicThingInstance.IsDoor() && 13001 == GetVirtualNumber();

  00027	33 c0		 xor	 eax, eax
  00029	5e		 pop	 esi

; 2410 : }

  0002a	c3		 ret	 0
?IsStoneDoor@CInstanceBase@@QAEHXZ ENDP			; CInstanceBase::IsStoneDoor
_TEXT	ENDS
; Function compile flags: /Ogtp
; File D:\Metin2 Server Files\mainline\SRC_2014\Metin2Client\UserInterface\InstanceBase.cpp
;	COMDAT ?IsWoodenDoor@CInstanceBase@@QAEHXZ
_TEXT	SEGMENT
?IsWoodenDoor@CInstanceBase@@QAEHXZ PROC		; CInstanceBase::IsWoodenDoor, COMDAT
; _this$ = ecx

; 2390 : {

  00000	56		 push	 esi
  00001	8b f1		 mov	 esi, ecx

; 2391 : 	if (m_GraphicThingInstance.IsDoor())

  00003	8d 8e d4 01 00
	00		 lea	 ecx, DWORD PTR [esi+468]
  00009	e8 00 00 00 00	 call	 ?IsDoor@CActorInstance@@QAE_NXZ ; CActorInstance::IsDoor
  0000e	84 c0		 test	 al, al
  00010	74 1f		 je	 SHORT $LN2@IsWoodenDo

; 2392 : 	{
; 2393 : 		int vnum = GetVirtualNumber();

  00012	8b ce		 mov	 ecx, esi
  00014	e8 00 00 00 00	 call	 ?GetVirtualNumber@CInstanceBase@@QAEKXZ ; CInstanceBase::GetVirtualNumber

; 2394 : 		if (vnum == 13000) // 

  00019	3d c8 32 00 00	 cmp	 eax, 13000		; 000032c8H
  0001e	74 0a		 je	 SHORT $LN9@IsWoodenDo

; 2395 : 			return true;
; 2396 : 		else if (vnum >= 30111 && vnum <= 30119) // 

  00020	05 61 8a ff ff	 add	 eax, -30111		; ffff8a61H
  00025	83 f8 08	 cmp	 eax, 8
  00028	77 07		 ja	 SHORT $LN2@IsWoodenDo
$LN9@IsWoodenDo:

; 2397 : 			return true;

  0002a	b8 01 00 00 00	 mov	 eax, 1
  0002f	5e		 pop	 esi

; 2404 : 	}
; 2405 : }

  00030	c3		 ret	 0
$LN2@IsWoodenDo:

; 2398 : 		else
; 2399 : 			return false;
; 2400 : 	}
; 2401 : 	else
; 2402 : 	{
; 2403 : 		return false;

  00031	33 c0		 xor	 eax, eax
  00033	5e		 pop	 esi

; 2404 : 	}
; 2405 : }

  00034	c3		 ret	 0
?IsWoodenDoor@CInstanceBase@@QAEHXZ ENDP		; CInstanceBase::IsWoodenDoor
_TEXT	ENDS
; Function compile flags: /Ogtp
; File D:\Metin2 Server Files\mainline\SRC_2014\Metin2Client\UserInterface\InstanceBase.cpp
;	COMDAT ?IsBuilding@CInstanceBase@@QAEHXZ
_TEXT	SEGMENT
?IsBuilding@CInstanceBase@@QAEHXZ PROC			; CInstanceBase::IsBuilding, COMDAT
; _this$ = ecx

; 2381 : 	return m_GraphicThingInstance.IsBuilding();

  00000	81 c1 d4 01 00
	00		 add	 ecx, 468		; 000001d4H
  00006	e8 00 00 00 00	 call	 ?IsBuilding@CActorInstance@@QAE_NXZ ; CActorInstance::IsBuilding
  0000b	0f b6 c0	 movzx	 eax, al

; 2382 : }

  0000e	c3		 ret	 0
?IsBuilding@CInstanceBase@@QAEHXZ ENDP			; CInstanceBase::IsBuilding
_TEXT	ENDS
; Function compile flags: /Ogtp
; File D:\Metin2 Server Files\mainline\SRC_2014\Metin2Client\UserInterface\InstanceBase.cpp
;	COMDAT ?IsDoor@CInstanceBase@@QAEHXZ
_TEXT	SEGMENT
?IsDoor@CInstanceBase@@QAEHXZ PROC			; CInstanceBase::IsDoor, COMDAT
; _this$ = ecx

; 2386 : 	return m_GraphicThingInstance.IsDoor();

  00000	81 c1 d4 01 00
	00		 add	 ecx, 468		; 000001d4H
  00006	e8 00 00 00 00	 call	 ?IsDoor@CActorInstance@@QAE_NXZ ; CActorInstance::IsDoor
  0000b	0f b6 c0	 movzx	 eax, al

; 2387 : }

  0000e	c3		 ret	 0
?IsDoor@CInstanceBase@@QAEHXZ ENDP			; CInstanceBase::IsDoor
_TEXT	ENDS
; Function compile flags: /Ogtp
; File D:\Metin2 Server Files\mainline\SRC_2014\Metin2Client\UserInterface\InstanceBase.cpp
;	COMDAT ?IsObject@CInstanceBase@@QAEHXZ
_TEXT	SEGMENT
?IsObject@CInstanceBase@@QAEHXZ PROC			; CInstanceBase::IsObject, COMDAT
; _this$ = ecx

; 2376 : 	return m_GraphicThingInstance.IsObject();

  00000	81 c1 d4 01 00
	00		 add	 ecx, 468		; 000001d4H
  00006	e8 00 00 00 00	 call	 ?IsObject@CActorInstance@@QAE_NXZ ; CActorInstance::IsObject
  0000b	0f b6 c0	 movzx	 eax, al

; 2377 : }

  0000e	c3		 ret	 0
?IsObject@CInstanceBase@@QAEHXZ ENDP			; CInstanceBase::IsObject
_TEXT	ENDS
; Function compile flags: /Ogtp
; File D:\Metin2 Server Files\mainline\SRC_2014\Metin2Client\UserInterface\InstanceBase.cpp
;	COMDAT ?IsGoto@CInstanceBase@@QAEHXZ
_TEXT	SEGMENT
?IsGoto@CInstanceBase@@QAEHXZ PROC			; CInstanceBase::IsGoto, COMDAT
; _this$ = ecx

; 2371 : 	return m_GraphicThingInstance.IsGoto();

  00000	81 c1 d4 01 00
	00		 add	 ecx, 468		; 000001d4H
  00006	e8 00 00 00 00	 call	 ?IsGoto@CActorInstance@@QAE_NXZ ; CActorInstance::IsGoto
  0000b	0f b6 c0	 movzx	 eax, al

; 2372 : }

  0000e	c3		 ret	 0
?IsGoto@CInstanceBase@@QAEHXZ ENDP			; CInstanceBase::IsGoto
_TEXT	ENDS
; Function compile flags: /Ogtp
; File D:\Metin2 Server Files\mainline\SRC_2014\Metin2Client\UserInterface\InstanceBase.cpp
;	COMDAT ?IsWarp@CInstanceBase@@QAEHXZ
_TEXT	SEGMENT
?IsWarp@CInstanceBase@@QAEHXZ PROC			; CInstanceBase::IsWarp, COMDAT
; _this$ = ecx

; 2366 : 	return m_GraphicThingInstance.IsWarp();

  00000	81 c1 d4 01 00
	00		 add	 ecx, 468		; 000001d4H
  00006	e8 00 00 00 00	 call	 ?IsWarp@CActorInstance@@QAE_NXZ ; CActorInstance::IsWarp
  0000b	0f b6 c0	 movzx	 eax, al

; 2367 : }

  0000e	c3		 ret	 0
?IsWarp@CInstanceBase@@QAEHXZ ENDP			; CInstanceBase::IsWarp
_TEXT	ENDS
; Function compile flags: /Ogtp
; File D:\Metin2 Server Files\mainline\SRC_2014\Metin2Client\UserInterface\InstanceBase.cpp
;	COMDAT ?IsPoly@CInstanceBase@@QAEHXZ
_TEXT	SEGMENT
?IsPoly@CInstanceBase@@QAEHXZ PROC			; CInstanceBase::IsPoly, COMDAT
; _this$ = ecx

; 2306 : 	return m_GraphicThingInstance.IsPoly();

  00000	81 c1 d4 01 00
	00		 add	 ecx, 468		; 000001d4H
  00006	e8 00 00 00 00	 call	 ?IsPoly@CActorInstance@@QAE_NXZ ; CActorInstance::IsPoly
  0000b	0f b6 c0	 movzx	 eax, al

; 2307 : }

  0000e	c3		 ret	 0
?IsPoly@CInstanceBase@@QAEHXZ ENDP			; CInstanceBase::IsPoly
_TEXT	ENDS
; Function compile flags: /Ogtp
; File D:\Metin2 Server Files\mainline\SRC_2014\Metin2Client\UserInterface\InstanceBase.cpp
;	COMDAT ?IsPC@CInstanceBase@@QAEHXZ
_TEXT	SEGMENT
?IsPC@CInstanceBase@@QAEHXZ PROC			; CInstanceBase::IsPC, COMDAT
; _this$ = ecx

; 2311 : 	return m_GraphicThingInstance.IsPC();

  00000	81 c1 d4 01 00
	00		 add	 ecx, 468		; 000001d4H
  00006	e8 00 00 00 00	 call	 ?IsPC@CActorInstance@@QAE_NXZ ; CActorInstance::IsPC
  0000b	0f b6 c0	 movzx	 eax, al

; 2312 : }

  0000e	c3		 ret	 0
?IsPC@CInstanceBase@@QAEHXZ ENDP			; CInstanceBase::IsPC
_TEXT	ENDS
; Function compile flags: /Ogtp
; File D:\Metin2 Server Files\mainline\SRC_2014\Metin2Client\UserInterface\InstanceBase.cpp
;	COMDAT ?IsNPC@CInstanceBase@@QAEHXZ
_TEXT	SEGMENT
?IsNPC@CInstanceBase@@QAEHXZ PROC			; CInstanceBase::IsNPC, COMDAT
; _this$ = ecx

; 2316 : 	return m_GraphicThingInstance.IsNPC();

  00000	81 c1 d4 01 00
	00		 add	 ecx, 468		; 000001d4H
  00006	e8 00 00 00 00	 call	 ?IsNPC@CActorInstance@@QAE_NXZ ; CActorInstance::IsNPC
  0000b	0f b6 c0	 movzx	 eax, al

; 2317 : }

  0000e	c3		 ret	 0
?IsNPC@CInstanceBase@@QAEHXZ ENDP			; CInstanceBase::IsNPC
_TEXT	ENDS
; Function compile flags: /Ogtp
; File D:\Metin2 Server Files\mainline\SRC_2014\Metin2Client\UserInterface\InstanceBase.cpp
;	COMDAT ?IsResource@CInstanceBase@@QAEHXZ
_TEXT	SEGMENT
?IsResource@CInstanceBase@@QAEHXZ PROC			; CInstanceBase::IsResource, COMDAT
; _this$ = ecx

; 2338 : 	switch (m_dwVirtualNumber)

  00000	8b 81 68 01 00
	00		 mov	 eax, DWORD PTR [ecx+360]
  00006	3d 61 76 00 00	 cmp	 eax, 30305		; 00007661H
  0000b	77 17		 ja	 SHORT $LN6@IsResource
  0000d	3d 5d 76 00 00	 cmp	 eax, 30301		; 0000765dH
  00012	73 0a		 jae	 SHORT $LN4@IsResource
  00014	05 b1 b1 ff ff	 add	 eax, -20047		; ffffb1b1H
  00019	83 f8 0c	 cmp	 eax, 12			; 0000000cH
  0001c	77 06		 ja	 SHORT $LN6@IsResource
$LN4@IsResource:

; 2339 : 	{
; 2340 : 		case 20047:
; 2341 : 		case 20048:
; 2342 : 		case 20049:
; 2343 : 		case 20050:
; 2344 : 		case 20051:
; 2345 : 		case 20052:
; 2346 : 		case 20053:
; 2347 : 		case 20054:
; 2348 : 		case 20055:
; 2349 : 		case 20056:
; 2350 : 		case 20057:
; 2351 : 		case 20058:
; 2352 : 		case 20059:
; 2353 : 		case 30301:
; 2354 : 		case 30302:
; 2355 : 		case 30303:
; 2356 : 		case 30304:
; 2357 : 		case 30305:
; 2358 : 			return TRUE;

  0001e	b8 01 00 00 00	 mov	 eax, 1

; 2362 : }

  00023	c3		 ret	 0
$LN6@IsResource:

; 2359 : 	}
; 2360 : 
; 2361 : 	return FALSE;

  00024	33 c0		 xor	 eax, eax

; 2362 : }

  00026	c3		 ret	 0
?IsResource@CInstanceBase@@QAEHXZ ENDP			; CInstanceBase::IsResource
_TEXT	ENDS
; Function compile flags: /Ogtp
; File D:\Metin2 Server Files\mainline\SRC_2014\Metin2Client\UserInterface\InstanceBase.cpp
;	COMDAT ?IsStone@CInstanceBase@@QAEHXZ
_TEXT	SEGMENT
?IsStone@CInstanceBase@@QAEHXZ PROC			; CInstanceBase::IsStone, COMDAT
; _this$ = ecx

; 2326 : 	return m_GraphicThingInstance.IsStone();

  00000	81 c1 d4 01 00
	00		 add	 ecx, 468		; 000001d4H
  00006	e8 00 00 00 00	 call	 ?IsStone@CActorInstance@@QAE_NXZ ; CActorInstance::IsStone
  0000b	0f b6 c0	 movzx	 eax, al

; 2327 : }

  0000e	c3		 ret	 0
?IsStone@CInstanceBase@@QAEHXZ ENDP			; CInstanceBase::IsStone
_TEXT	ENDS
; Function compile flags: /Ogtp
; File D:\Metin2 Server Files\mainline\SRC_2014\Metin2Client\UserInterface\InstanceBase.cpp
;	COMDAT ?IsEnemy@CInstanceBase@@QAEHXZ
_TEXT	SEGMENT
?IsEnemy@CInstanceBase@@QAEHXZ PROC			; CInstanceBase::IsEnemy, COMDAT
; _this$ = ecx

; 2321 : 	return m_GraphicThingInstance.IsEnemy();

  00000	81 c1 d4 01 00
	00		 add	 ecx, 468		; 000001d4H
  00006	e8 00 00 00 00	 call	 ?IsEnemy@CActorInstance@@QAE_NXZ ; CActorInstance::IsEnemy
  0000b	0f b6 c0	 movzx	 eax, al

; 2322 : }

  0000e	c3		 ret	 0
?IsEnemy@CInstanceBase@@QAEHXZ ENDP			; CInstanceBase::IsEnemy
_TEXT	ENDS
; Function compile flags: /Ogtp
; File D:\Metin2 Server Files\mainline\SRC_2014\Metin2Client\UserInterface\InstanceBase.cpp
;	COMDAT ?IsInSafe@CInstanceBase@@QAEHXZ
_TEXT	SEGMENT
?IsInSafe@CInstanceBase@@QAEHXZ PROC			; CInstanceBase::IsInSafe, COMDAT
; _this$ = ecx

; 566  : 	const TPixelPosition& c_rkPPosCur=m_GraphicThingInstance.NEW_GetCurPixelPositionRef();

  00000	81 c1 d4 01 00
	00		 add	 ecx, 468		; 000001d4H
  00006	e8 00 00 00 00	 call	 ?NEW_GetCurPixelPositionRef@CActorInstance@@QAEABUD3DXVECTOR3@@XZ ; CActorInstance::NEW_GetCurPixelPositionRef

; 567  : 	if (CPythonBackground::Instance().isAttrOn(c_rkPPosCur.x, c_rkPPosCur.y, CTerrainImpl::ATTRIBUTE_BANPK))

  0000b	8b 0d 00 00 00
	00		 mov	 ecx, DWORD PTR ?ms_singleton@?$CSingleton@VCPythonBackground@@@@0PAVCPythonBackground@@A ; CSingleton<CPythonBackground>::ms_singleton
  00011	6a 04		 push	 4
  00013	83 ec 08	 sub	 esp, 8
  00016	f3 0f 10 40 04	 movss	 xmm0, DWORD PTR [eax+4]
  0001b	f3 0f 11 44 24
	04		 movss	 DWORD PTR [esp+4], xmm0
  00021	f3 0f 10 00	 movss	 xmm0, DWORD PTR [eax]
  00025	f3 0f 11 04 24	 movss	 DWORD PTR [esp], xmm0
  0002a	e8 00 00 00 00	 call	 ?isAttrOn@CMapManager@@QAE_NMME@Z ; CMapManager::isAttrOn
  0002f	33 c9		 xor	 ecx, ecx
  00031	84 c0		 test	 al, al
  00033	0f 95 c1	 setne	 cl
  00036	8b c1		 mov	 eax, ecx

; 568  : 		return TRUE;
; 569  : 
; 570  : 	return FALSE;
; 571  : }

  00038	c3		 ret	 0
?IsInSafe@CInstanceBase@@QAEHXZ ENDP			; CInstanceBase::IsInSafe
_TEXT	ENDS
; Function compile flags: /Ogtp
; File D:\Metin2 Server Files\mainline\SRC_2014\Metin2Client\UserInterface\InstanceBase.cpp
;	COMDAT ?IsForceVisible@CInstanceBase@@QAEHXZ
_TEXT	SEGMENT
?IsForceVisible@CInstanceBase@@QAEHXZ PROC		; CInstanceBase::IsForceVisible, COMDAT
; _this$ = ecx

; 2425 : {

  00000	56		 push	 esi

; 2426 : 	if (IsAffect(AFFECT_SHOW_ALWAYS))

  00001	6a 07		 push	 7
  00003	8b f1		 mov	 esi, ecx
  00005	e8 00 00 00 00	 call	 ?IsAffect@CInstanceBase@@QAE_NI@Z ; CInstanceBase::IsAffect
  0000a	84 c0		 test	 al, al
  0000c	75 23		 jne	 SHORT $LN4@IsForceVis

; 2427 : 		return TRUE;
; 2428 : 
; 2429 : 	if (IsObject() || IsBuilding() || IsDoor() )

  0000e	8b ce		 mov	 ecx, esi
  00010	e8 00 00 00 00	 call	 ?IsObject@CInstanceBase@@QAEHXZ ; CInstanceBase::IsObject
  00015	85 c0		 test	 eax, eax
  00017	75 18		 jne	 SHORT $LN4@IsForceVis
  00019	8b ce		 mov	 ecx, esi
  0001b	e8 00 00 00 00	 call	 ?IsBuilding@CInstanceBase@@QAEHXZ ; CInstanceBase::IsBuilding
  00020	85 c0		 test	 eax, eax
  00022	75 0d		 jne	 SHORT $LN4@IsForceVis
  00024	8b ce		 mov	 ecx, esi
  00026	e8 00 00 00 00	 call	 ?IsDoor@CInstanceBase@@QAEHXZ ; CInstanceBase::IsDoor
  0002b	85 c0		 test	 eax, eax
  0002d	75 02		 jne	 SHORT $LN4@IsForceVis
  0002f	5e		 pop	 esi

; 2431 : 
; 2432 : 	return FALSE;
; 2433 : }

  00030	c3		 ret	 0
$LN4@IsForceVis:

; 2430 : 		return TRUE;

  00031	b8 01 00 00 00	 mov	 eax, 1
  00036	5e		 pop	 esi

; 2431 : 
; 2432 : 	return FALSE;
; 2433 : }

  00037	c3		 ret	 0
?IsForceVisible@CInstanceBase@@QAEHXZ ENDP		; CInstanceBase::IsForceVisible
_TEXT	ENDS
; Function compile flags: /Ogtp
; File D:\Metin2 Server Files\mainline\SRC_2014\Metin2Client\UserInterface\InstanceBase.cpp
;	COMDAT ?IsNewMount@CInstanceBase@@QAEHXZ
_TEXT	SEGMENT
?IsNewMount@CInstanceBase@@QAEHXZ PROC			; CInstanceBase::IsNewMount, COMDAT
; _this$ = ecx

; 939  : 	return m_kHorse.IsNewMount();

  00000	83 c1 04	 add	 ecx, 4
  00003	e8 00 00 00 00	 call	 ?IsNewMount@SHORSE@CInstanceBase@@QAE_NXZ ; CInstanceBase::SHORSE::IsNewMount
  00008	0f b6 c0	 movzx	 eax, al

; 940  : }

  0000b	c3		 ret	 0
?IsNewMount@CInstanceBase@@QAEHXZ ENDP			; CInstanceBase::IsNewMount
_TEXT	ENDS
; Function compile flags: /Ogtp
; File D:\Metin2 Server Files\mainline\SRC_2014\Metin2Client\UserInterface\InstanceBase.cpp
;	COMDAT ?IsMountingHorse@CInstanceBase@@QAEHXZ
_TEXT	SEGMENT
?IsMountingHorse@CInstanceBase@@QAEHXZ PROC		; CInstanceBase::IsMountingHorse, COMDAT
; _this$ = ecx

; 944  : 	return m_kHorse.IsMounting();

  00000	83 c1 04	 add	 ecx, 4
  00003	e8 00 00 00 00	 call	 ?IsMounting@SHORSE@CInstanceBase@@QAE_NXZ ; CInstanceBase::SHORSE::IsMounting
  00008	0f b6 c0	 movzx	 eax, al

; 945  : }

  0000b	c3		 ret	 0
?IsMountingHorse@CInstanceBase@@QAEHXZ ENDP		; CInstanceBase::IsMountingHorse
_TEXT	ENDS
; Function compile flags: /Ogtp
; File D:\Metin2 Server Files\mainline\SRC_2014\Metin2Client\UserInterface\InstanceBase.cpp
;	COMDAT ?IsHoldingPickAxe@CInstanceBase@@QAEHXZ
_TEXT	SEGMENT
?IsHoldingPickAxe@CInstanceBase@@QAEHXZ PROC		; CInstanceBase::IsHoldingPickAxe, COMDAT
; _this$ = ecx

; 932  : 	const int c_iPickAxeStart = 29101;
; 933  : 	const int c_iPickAxeEnd = 29110;
; 934  : 	return m_awPart[CRaceData::PART_WEAPON] >= c_iPickAxeStart && m_awPart[CRaceData::PART_WEAPON] <= c_iPickAxeEnd;

  00000	8b 41 2c	 mov	 eax, DWORD PTR [ecx+44]
  00003	b9 09 00 00 00	 mov	 ecx, 9
  00008	2d ad 71 00 00	 sub	 eax, 29101		; 000071adH
  0000d	3b c8		 cmp	 ecx, eax
  0000f	1b c0		 sbb	 eax, eax
  00011	40		 inc	 eax

; 935  : }

  00012	c3		 ret	 0
?IsHoldingPickAxe@CInstanceBase@@QAEHXZ ENDP		; CInstanceBase::IsHoldingPickAxe
_TEXT	ENDS
; Function compile flags: /Ogtp
; File D:\Metin2 Server Files\mainline\SRC_2014\Metin2Client\UserInterface\InstanceBase.cpp
;	COMDAT ?IsWearingDress@CInstanceBase@@QAEHXZ
_TEXT	SEGMENT
?IsWearingDress@CInstanceBase@@QAEHXZ PROC		; CInstanceBase::IsWearingDress, COMDAT
; _this$ = ecx

; 926  : 	const int c_iWeddingDressShape = 201;
; 927  : 	return c_iWeddingDressShape == m_eShape;

  00000	33 c0		 xor	 eax, eax
  00002	81 b9 60 01 00
	00 c9 00 00 00	 cmp	 DWORD PTR [ecx+352], 201 ; 000000c9H
  0000c	0f 94 c0	 sete	 al

; 928  : }

  0000f	c3		 ret	 0
?IsWearingDress@CInstanceBase@@QAEHXZ ENDP		; CInstanceBase::IsWearingDress
_TEXT	ENDS
; Function compile flags: /Ogtp
; File D:\Metin2 Server Files\mainline\SRC_2014\Metin2Client\UserInterface\InstanceBase.cpp
;	COMDAT ?IsFishing@CInstanceBase@@QAEHXZ
_TEXT	SEGMENT
?IsFishing@CInstanceBase@@QAEHXZ PROC			; CInstanceBase::IsFishing, COMDAT
; _this$ = ecx

; 1132 : 	return m_GraphicThingInstance.IsFishing();

  00000	81 c1 d4 01 00
	00		 add	 ecx, 468		; 000001d4H
  00006	e9 00 00 00 00	 jmp	 ?IsFishing@CActorInstance@@QAEHXZ ; CActorInstance::IsFishing
?IsFishing@CInstanceBase@@QAEHXZ ENDP			; CInstanceBase::IsFishing
_TEXT	ENDS
; Function compile flags: /Ogtp
; File D:\Metin2 Server Files\mainline\SRC_2014\Metin2Client\UserInterface\InstanceBase.cpp
;	COMDAT ?IsFishingMode@CInstanceBase@@QAEHXZ
_TEXT	SEGMENT
?IsFishingMode@CInstanceBase@@QAEHXZ PROC		; CInstanceBase::IsFishingMode, COMDAT
; _this$ = ecx

; 1124 : 	if (CRaceMotionData::MODE_FISHING == m_GraphicThingInstance.GetMotionMode())

  00000	81 c1 d4 01 00
	00		 add	 ecx, 468		; 000001d4H
  00006	e8 00 00 00 00	 call	 ?GetMotionMode@CActorInstance@@QAEHXZ ; CActorInstance::GetMotionMode
  0000b	33 c9		 xor	 ecx, ecx
  0000d	83 f8 08	 cmp	 eax, 8
  00010	0f 94 c1	 sete	 cl
  00013	8b c1		 mov	 eax, ecx

; 1125 : 		return true;
; 1126 : 
; 1127 : 	return false;
; 1128 : }

  00015	c3		 ret	 0
?IsFishingMode@CInstanceBase@@QAEHXZ ENDP		; CInstanceBase::IsFishingMode
_TEXT	ENDS
; Function compile flags: /Ogtp
; File D:\Metin2 Server Files\mainline\SRC_2014\Metin2Client\UserInterface\InstanceBase.cpp
;	COMDAT ?IsHandMode@CInstanceBase@@QAEHXZ
_TEXT	SEGMENT
?IsHandMode@CInstanceBase@@QAEHXZ PROC			; CInstanceBase::IsHandMode, COMDAT
; _this$ = ecx

; 1119 : 	return m_GraphicThingInstance.IsHandMode();

  00000	81 c1 d4 01 00
	00		 add	 ecx, 468		; 000001d4H
  00006	e8 00 00 00 00	 call	 ?IsHandMode@CActorInstance@@QAE_NXZ ; CActorInstance::IsHandMode
  0000b	0f b6 c0	 movzx	 eax, al

; 1120 : }

  0000e	c3		 ret	 0
?IsHandMode@CInstanceBase@@QAEHXZ ENDP			; CInstanceBase::IsHandMode
_TEXT	ENDS
; Function compile flags: /Ogtp
; File D:\Metin2 Server Files\mainline\SRC_2014\Metin2Client\UserInterface\InstanceBase.cpp
;	COMDAT ?IsBowMode@CInstanceBase@@QAEHXZ
_TEXT	SEGMENT
?IsBowMode@CInstanceBase@@QAEHXZ PROC			; CInstanceBase::IsBowMode, COMDAT
; _this$ = ecx

; 1114 : 	return m_GraphicThingInstance.IsBowMode();

  00000	81 c1 d4 01 00
	00		 add	 ecx, 468		; 000001d4H
  00006	e8 00 00 00 00	 call	 ?IsBowMode@CActorInstance@@QAE_NXZ ; CActorInstance::IsBowMode
  0000b	0f b6 c0	 movzx	 eax, al

; 1115 : }

  0000e	c3		 ret	 0
?IsBowMode@CInstanceBase@@QAEHXZ ENDP			; CInstanceBase::IsBowMode
_TEXT	ENDS
; Function compile flags: /Ogtp
; File D:\Metin2 Server Files\mainline\SRC_2014\Metin2Client\UserInterface\InstanceBase.cpp
;	COMDAT ?IsSameEmpire@CInstanceBase@@QAEHAAV1@@Z
_TEXT	SEGMENT
_rkInstDst$ = 8						; size = 4
?IsSameEmpire@CInstanceBase@@QAEHAAV1@@Z PROC		; CInstanceBase::IsSameEmpire, COMDAT
; _this$ = ecx

; 470  : {

  00000	55		 push	 ebp
  00001	8b ec		 mov	 ebp, esp
  00003	56		 push	 esi

; 471  : 	if (0 == rkInstDst.m_dwEmpireID)

  00004	8b 75 08	 mov	 esi, DWORD PTR _rkInstDst$[ebp]
  00007	57		 push	 edi
  00008	8b f9		 mov	 edi, ecx
  0000a	83 7e 40 00	 cmp	 DWORD PTR [esi+64], 0
  0000e	74 24		 je	 SHORT $LN7@IsSameEmpi

; 472  : 		return TRUE;
; 473  : 
; 474  : 	if (IsGameMaster())

  00010	e8 00 00 00 00	 call	 ?IsGameMaster@CInstanceBase@@QAEHXZ ; CInstanceBase::IsGameMaster
  00015	85 c0		 test	 eax, eax
  00017	75 1b		 jne	 SHORT $LN7@IsSameEmpi

; 475  : 		return TRUE;
; 476  : 
; 477  : 	if (rkInstDst.IsGameMaster())

  00019	8b ce		 mov	 ecx, esi
  0001b	e8 00 00 00 00	 call	 ?IsGameMaster@CInstanceBase@@QAEHXZ ; CInstanceBase::IsGameMaster
  00020	85 c0		 test	 eax, eax
  00022	75 10		 jne	 SHORT $LN7@IsSameEmpi

; 478  : 		return TRUE;
; 479  : 
; 480  : 	if (rkInstDst.m_dwEmpireID==m_dwEmpireID)

  00024	8b 46 40	 mov	 eax, DWORD PTR [esi+64]
  00027	3b 47 40	 cmp	 eax, DWORD PTR [edi+64]
  0002a	74 08		 je	 SHORT $LN7@IsSameEmpi

; 482  : 
; 483  : 	return FALSE;

  0002c	5f		 pop	 edi
  0002d	33 c0		 xor	 eax, eax

; 484  : }

  0002f	5e		 pop	 esi
  00030	5d		 pop	 ebp
  00031	c2 04 00	 ret	 4
$LN7@IsSameEmpi:
  00034	5f		 pop	 edi

; 481  : 		return TRUE;

  00035	b8 01 00 00 00	 mov	 eax, 1

; 484  : }

  0003a	5e		 pop	 esi
  0003b	5d		 pop	 ebp
  0003c	c2 04 00	 ret	 4
?IsSameEmpire@CInstanceBase@@QAEHAAV1@@Z ENDP		; CInstanceBase::IsSameEmpire
_TEXT	ENDS
; Function compile flags: /Ogtp
; File D:\Metin2 Server Files\mainline\SRC_2014\Metin2Client\UserInterface\InstanceBase.cpp
;	COMDAT ?IsGameMaster@CInstanceBase@@QAEHXZ
_TEXT	SEGMENT
?IsGameMaster@CInstanceBase@@QAEHXZ PROC		; CInstanceBase::IsGameMaster, COMDAT
; _this$ = ecx

; 463  : 	if (m_kAffectFlagContainer.IsSet(AFFECT_YMIR))

  00000	6a 00		 push	 0
  00002	83 c1 48	 add	 ecx, 72			; 00000048H
  00005	e8 00 00 00 00	 call	 ?IsSet@CAffectFlagContainer@@QBE_NI@Z ; CAffectFlagContainer::IsSet
  0000a	33 c9		 xor	 ecx, ecx
  0000c	84 c0		 test	 al, al
  0000e	0f 95 c1	 setne	 cl
  00011	8b c1		 mov	 eax, ecx

; 464  : 		return true;
; 465  : 	return false;
; 466  : }

  00013	c3		 ret	 0
?IsGameMaster@CInstanceBase@@QAEHXZ ENDP		; CInstanceBase::IsGameMaster
_TEXT	ENDS
; Function compile flags: /Ogtp
; File D:\Metin2 Server Files\mainline\SRC_2014\Metin2Client\UserInterface\InstanceBase.cpp
;	COMDAT ?IsParalysis@CInstanceBase@@QAEHXZ
_TEXT	SEGMENT
?IsParalysis@CInstanceBase@@QAEHXZ PROC			; CInstanceBase::IsParalysis, COMDAT
; _this$ = ecx

; 458  : 	return m_GraphicThingInstance.IsParalysis();

  00000	81 c1 d4 01 00
	00		 add	 ecx, 468		; 000001d4H
  00006	e9 00 00 00 00	 jmp	 ?IsParalysis@CActorInstance@@QAEHXZ ; CActorInstance::IsParalysis
?IsParalysis@CInstanceBase@@QAEHXZ ENDP			; CInstanceBase::IsParalysis
_TEXT	ENDS
; Function compile flags: /Ogtp
; File D:\Metin2 Server Files\mainline\SRC_2014\Metin2Client\UserInterface\InstanceBase.cpp
;	COMDAT ?IsInvisibility@CInstanceBase@@QAEHXZ
_TEXT	SEGMENT
?IsInvisibility@CInstanceBase@@QAEHXZ PROC		; CInstanceBase::IsInvisibility, COMDAT
; _this$ = ecx

; 450  : 	if (IsAffect(AFFECT_INVISIBILITY))

  00000	6a 01		 push	 1
  00002	e8 00 00 00 00	 call	 ?IsAffect@CInstanceBase@@QAE_NI@Z ; CInstanceBase::IsAffect
  00007	33 c9		 xor	 ecx, ecx
  00009	84 c0		 test	 al, al
  0000b	0f 95 c1	 setne	 cl
  0000e	8b c1		 mov	 eax, ecx

; 451  : 		return true;
; 452  : 
; 453  : 	return false;
; 454  : }

  00010	c3		 ret	 0
?IsInvisibility@CInstanceBase@@QAEHXZ ENDP		; CInstanceBase::IsInvisibility
_TEXT	ENDS
; Function compile flags: /Ogtp
; File D:\Metin2 Server Files\mainline\SRC_2014\Metin2Client\UserInterface\InstanceBase.cpp
;	COMDAT ?CanViewTargetHP@CInstanceBase@@QAE_NAAV1@@Z
_TEXT	SEGMENT
_rkInstVictim$ = 8					; size = 4
?CanViewTargetHP@CInstanceBase@@QAE_NAAV1@@Z PROC	; CInstanceBase::CanViewTargetHP, COMDAT
; _this$ = ecx

; 2293 : {

  00000	55		 push	 ebp
  00001	8b ec		 mov	 ebp, esp
  00003	56		 push	 esi

; 2294 : 	if (rkInstVictim.IsStone())

  00004	8b 75 08	 mov	 esi, DWORD PTR _rkInstVictim$[ebp]
  00007	8b ce		 mov	 ecx, esi
  00009	e8 00 00 00 00	 call	 ?IsStone@CInstanceBase@@QAEHXZ ; CInstanceBase::IsStone
  0000e	85 c0		 test	 eax, eax
  00010	75 1d		 jne	 SHORT $LN6@CanViewTar

; 2295 : 		return true;
; 2296 : 	if (rkInstVictim.IsWoodenDoor())

  00012	8b ce		 mov	 ecx, esi
  00014	e8 00 00 00 00	 call	 ?IsWoodenDoor@CInstanceBase@@QAEHXZ ; CInstanceBase::IsWoodenDoor
  00019	85 c0		 test	 eax, eax
  0001b	75 12		 jne	 SHORT $LN6@CanViewTar

; 2297 : 		return true;
; 2298 : 	if (rkInstVictim.IsEnemy())

  0001d	8b ce		 mov	 ecx, esi
  0001f	e8 00 00 00 00	 call	 ?IsEnemy@CInstanceBase@@QAEHXZ ; CInstanceBase::IsEnemy
  00024	85 c0		 test	 eax, eax
  00026	75 07		 jne	 SHORT $LN6@CanViewTar

; 2300 : 
; 2301 : 	return false;

  00028	32 c0		 xor	 al, al
  0002a	5e		 pop	 esi

; 2302 : }

  0002b	5d		 pop	 ebp
  0002c	c2 04 00	 ret	 4
$LN6@CanViewTar:

; 2299 : 		return true;

  0002f	b0 01		 mov	 al, 1
  00031	5e		 pop	 esi

; 2302 : }

  00032	5d		 pop	 ebp
  00033	c2 04 00	 ret	 4
?CanViewTargetHP@CInstanceBase@@QAE_NAAV1@@Z ENDP	; CInstanceBase::CanViewTargetHP
_TEXT	ENDS
; Function compile flags: /Ogtp
; File D:\Metin2 Server Files\mainline\SRC_2014\Metin2Client\UserInterface\InstanceBase.cpp
;	COMDAT ?CanPickInstance@CInstanceBase@@QAE_NXZ
_TEXT	SEGMENT
?CanPickInstance@CInstanceBase@@QAE_NXZ PROC		; CInstanceBase::CanPickInstance, COMDAT
; _this$ = ecx

; 2263 : {

  00000	56		 push	 esi
  00001	8b f1		 mov	 esi, ecx

; 2264 : 	if (!__IsInViewFrustum())

  00003	e8 00 00 00 00	 call	 ?__IsInViewFrustum@CInstanceBase@@IAE_NXZ ; CInstanceBase::__IsInViewFrustum
  00008	84 c0		 test	 al, al
  0000a	74 62		 je	 SHORT $LN12@CanPickIns

; 2265 : 		return false;
; 2266 : 
; 2267 : 	if (IsDoor())

  0000c	8b ce		 mov	 ecx, esi
  0000e	e8 00 00 00 00	 call	 ?IsDoor@CInstanceBase@@QAEHXZ ; CInstanceBase::IsDoor
  00013	85 c0		 test	 eax, eax
  00015	74 0b		 je	 SHORT $LN4@CanPickIns

; 2268 : 	{
; 2269 : 		if (IsDead())

  00017	8b ce		 mov	 ecx, esi
  00019	e8 00 00 00 00	 call	 ?IsDead@CInstanceBase@@QAEHXZ ; CInstanceBase::IsDead
  0001e	85 c0		 test	 eax, eax
  00020	75 4c		 jne	 SHORT $LN12@CanPickIns
$LN4@CanPickIns:

; 2270 : 			return false;
; 2271 : 	}
; 2272 : 
; 2273 : 	if (IsPC())

  00022	8b ce		 mov	 ecx, esi
  00024	e8 00 00 00 00	 call	 ?IsPC@CInstanceBase@@QAEHXZ ; CInstanceBase::IsPC
  00029	85 c0		 test	 eax, eax
  0002b	74 32		 je	 SHORT $LN9@CanPickIns

; 2274 : 	{
; 2275 : 		if (IsAffect(AFFECT_EUNHYEONG))

  0002d	6a 12		 push	 18			; 00000012H
  0002f	8b ce		 mov	 ecx, esi
  00031	e8 00 00 00 00	 call	 ?IsAffect@CInstanceBase@@QAE_NI@Z ; CInstanceBase::IsAffect
  00036	84 c0		 test	 al, al
  00038	74 0b		 je	 SHORT $LN7@CanPickIns

; 2276 : 		{
; 2277 : 			if (!__MainCanSeeHiddenThing())

  0003a	8b ce		 mov	 ecx, esi
  0003c	e8 00 00 00 00	 call	 ?__MainCanSeeHiddenThing@CInstanceBase@@IAE_NXZ ; CInstanceBase::__MainCanSeeHiddenThing
  00041	84 c0		 test	 al, al
  00043	74 29		 je	 SHORT $LN12@CanPickIns
$LN7@CanPickIns:

; 2278 : 				return false;
; 2279 : 		}
; 2280 : 		if (IsAffect(AFFECT_REVIVE_INVISIBILITY))

  00045	6a 1b		 push	 27			; 0000001bH
  00047	8b ce		 mov	 ecx, esi
  00049	e8 00 00 00 00	 call	 ?IsAffect@CInstanceBase@@QAE_NI@Z ; CInstanceBase::IsAffect
  0004e	84 c0		 test	 al, al
  00050	75 1c		 jne	 SHORT $LN12@CanPickIns

; 2281 : 			return false;
; 2282 : 		if (IsAffect(AFFECT_INVISIBILITY))

  00052	6a 01		 push	 1
  00054	8b ce		 mov	 ecx, esi
  00056	e8 00 00 00 00	 call	 ?IsAffect@CInstanceBase@@QAE_NI@Z ; CInstanceBase::IsAffect
  0005b	84 c0		 test	 al, al
  0005d	75 0f		 jne	 SHORT $LN12@CanPickIns
$LN9@CanPickIns:

; 2283 : 			return false;
; 2284 : 	}
; 2285 : 
; 2286 : 	if (IsDead())

  0005f	8b ce		 mov	 ecx, esi
  00061	e8 00 00 00 00	 call	 ?IsDead@CInstanceBase@@QAEHXZ ; CInstanceBase::IsDead
  00066	85 c0		 test	 eax, eax
  00068	75 04		 jne	 SHORT $LN12@CanPickIns

; 2288 : 
; 2289 : 	return true;

  0006a	b0 01		 mov	 al, 1
  0006c	5e		 pop	 esi

; 2290 : }

  0006d	c3		 ret	 0
$LN12@CanPickIns:

; 2287 : 		return false;

  0006e	32 c0		 xor	 al, al
  00070	5e		 pop	 esi

; 2290 : }

  00071	c3		 ret	 0
?CanPickInstance@CInstanceBase@@QAE_NXZ ENDP		; CInstanceBase::CanPickInstance
_TEXT	ENDS
; Function compile flags: /Ogtp
; File D:\Metin2 Server Files\mainline\SRC_2014\Metin2Client\UserInterface\InstanceBase.cpp
;	COMDAT ?CanChangeTarget@CInstanceBase@@QAE_NXZ
_TEXT	SEGMENT
?CanChangeTarget@CInstanceBase@@QAE_NXZ PROC		; CInstanceBase::CanChangeTarget, COMDAT
; _this$ = ecx

; 2258 : 	return m_GraphicThingInstance.CanChangeTarget();

  00000	81 c1 d4 01 00
	00		 add	 ecx, 468		; 000001d4H
  00006	e9 00 00 00 00	 jmp	 ?CanChangeTarget@CActorInstance@@QAE_NXZ ; CActorInstance::CanChangeTarget
?CanChangeTarget@CInstanceBase@@QAE_NXZ ENDP		; CInstanceBase::CanChangeTarget
_TEXT	ENDS
; Function compile flags: /Ogtp
; File D:\Metin2 Server Files\mainline\SRC_2014\Metin2Client\UserInterface\InstanceBase.cpp
;	COMDAT ?IsTargetableInstance@CInstanceBase@@QAE_NAAV1@@Z
_TEXT	SEGMENT
_rkInstVictim$ = 8					; size = 4
?IsTargetableInstance@CInstanceBase@@QAE_NAAV1@@Z PROC	; CInstanceBase::IsTargetableInstance, COMDAT
; _this$ = ecx

; 2251 : {

  00000	55		 push	 ebp
  00001	8b ec		 mov	 ebp, esp

; 2252 : 	return rkInstVictim.CanPickInstance();

  00003	8b 4d 08	 mov	 ecx, DWORD PTR _rkInstVictim$[ebp]
  00006	e8 00 00 00 00	 call	 ?CanPickInstance@CInstanceBase@@QAE_NXZ ; CInstanceBase::CanPickInstance

; 2253 : }

  0000b	5d		 pop	 ebp
  0000c	c2 04 00	 ret	 4
?IsTargetableInstance@CInstanceBase@@QAE_NAAV1@@Z ENDP	; CInstanceBase::IsTargetableInstance
_TEXT	ENDS
; Function compile flags: /Ogtp
; File D:\Metin2 Server Files\mainline\SRC_2014\Metin2Client\UserInterface\InstanceBase.cpp
;	COMDAT ?IsAttackableInstance@CInstanceBase@@QAE_NAAV1@@Z
_TEXT	SEGMENT
_this$1$ = -4						; size = 4
_rkInstVictim$ = 8					; size = 4
?IsAttackableInstance@CInstanceBase@@QAE_NAAV1@@Z PROC	; CInstanceBase::IsAttackableInstance, COMDAT
; _this$ = ecx

; 2147 : {	

  00000	55		 push	 ebp
  00001	8b ec		 mov	 ebp, esp
  00003	51		 push	 ecx
  00004	53		 push	 ebx
  00005	56		 push	 esi
  00006	57		 push	 edi
  00007	8b f9		 mov	 edi, ecx
  00009	89 7d fc	 mov	 DWORD PTR _this$1$[ebp], edi

; 2148 : 	if (__IsMainInstance())

  0000c	e8 00 00 00 00	 call	 ?__IsMainInstance@CInstanceBase@@IAE_NXZ ; CInstanceBase::__IsMainInstance
  00011	84 c0		 test	 al, al
  00013	74 13		 je	 SHORT $LN5@IsAttackab

; 2149 : 	{		
; 2150 : 		CPythonPlayer& rkPlayer=CPythonPlayer::Instance();
; 2151 : 		if(rkPlayer.IsObserverMode())

  00015	8b 0d 00 00 00
	00		 mov	 ecx, DWORD PTR ?ms_singleton@?$CSingleton@VCPythonPlayer@@@@0PAVCPythonPlayer@@A ; CSingleton<CPythonPlayer>::ms_singleton
  0001b	e8 00 00 00 00	 call	 ?IsObserverMode@CPythonPlayer@@QAE_NXZ ; CPythonPlayer::IsObserverMode
  00020	84 c0		 test	 al, al
  00022	0f 85 5c 02 00
	00		 jne	 $LN45@IsAttackab
$LN5@IsAttackab:

; 2152 : 			return false;
; 2153 : 	}
; 2154 : 
; 2155 : 	if (GetVirtualID() == rkInstVictim.GetVirtualID())

  00028	8b 5d 08	 mov	 ebx, DWORD PTR _rkInstVictim$[ebp]
  0002b	8b cb		 mov	 ecx, ebx
  0002d	e8 00 00 00 00	 call	 ?GetVirtualID@CInstanceBase@@QAEKXZ ; CInstanceBase::GetVirtualID
  00032	8b cf		 mov	 ecx, edi
  00034	8b f0		 mov	 esi, eax
  00036	e8 00 00 00 00	 call	 ?GetVirtualID@CInstanceBase@@QAEKXZ ; CInstanceBase::GetVirtualID
  0003b	3b c6		 cmp	 eax, esi
  0003d	0f 84 41 02 00
	00		 je	 $LN45@IsAttackab

; 2156 : 		return false;
; 2157 : 
; 2158 : 	if (IsStone())

  00043	8b cf		 mov	 ecx, edi
  00045	e8 00 00 00 00	 call	 ?IsStone@CInstanceBase@@QAEHXZ ; CInstanceBase::IsStone
  0004a	85 c0		 test	 eax, eax
  0004c	74 0c		 je	 SHORT $LN7@IsAttackab

; 2159 : 	{
; 2160 : 		if (rkInstVictim.IsPC())

  0004e	8b cb		 mov	 ecx, ebx
  00050	e8 00 00 00 00	 call	 ?IsPC@CInstanceBase@@QAEHXZ ; CInstanceBase::IsPC
  00055	e9 1b 02 00 00	 jmp	 $LN50@IsAttackab
$LN7@IsAttackab:

; 2161 : 			return true;
; 2162 : 	}
; 2163 : 	else if (IsPC())

  0005a	8b cf		 mov	 ecx, edi
  0005c	e8 00 00 00 00	 call	 ?IsPC@CInstanceBase@@QAEHXZ ; CInstanceBase::IsPC
  00061	85 c0		 test	 eax, eax
  00063	0f 84 d0 01 00
	00		 je	 $LN10@IsAttackab

; 2164 : 	{
; 2165 : 		if (rkInstVictim.IsStone())

  00069	8b cb		 mov	 ecx, ebx
  0006b	e8 00 00 00 00	 call	 ?IsStone@CInstanceBase@@QAEHXZ ; CInstanceBase::IsStone
  00070	85 c0		 test	 eax, eax
  00072	0f 85 01 02 00
	00		 jne	 $LN47@IsAttackab

; 2166 : 			return true;
; 2167 : 
; 2168 : 		if (rkInstVictim.IsPC())

  00078	8b cb		 mov	 ecx, ebx
  0007a	e8 00 00 00 00	 call	 ?IsPC@CInstanceBase@@QAEHXZ ; CInstanceBase::IsPC
  0007f	85 c0		 test	 eax, eax
  00081	0f 84 9e 01 00
	00		 je	 $LN32@IsAttackab

; 2169 : 		{
; 2170 : 			if (GetDuelMode())

  00087	8b cf		 mov	 ecx, edi
  00089	e8 00 00 00 00	 call	 ?GetDuelMode@CInstanceBase@@QAEKXZ ; CInstanceBase::GetDuelMode
  0008e	85 c0		 test	 eax, eax
  00090	74 34		 je	 SHORT $LN18@IsAttackab

; 2171 : 			{
; 2172 : 				switch(GetDuelMode())

  00092	8b cf		 mov	 ecx, edi
  00094	e8 00 00 00 00	 call	 ?GetDuelMode@CInstanceBase@@QAEKXZ ; CInstanceBase::GetDuelMode
  00099	83 e8 01	 sub	 eax, 1
  0009c	0f 84 e2 01 00
	00		 je	 $LN45@IsAttackab
  000a2	83 e8 01	 sub	 eax, 1
  000a5	75 1f		 jne	 SHORT $LN18@IsAttackab

; 2173 : 				{
; 2174 : 				case DUEL_CANNOTATTACK:
; 2175 : 					return false;
; 2176 : 				case DUEL_START:
; 2177 : 					if(__FindDUELKey(GetVirtualID(),rkInstVictim.GetVirtualID()))

  000a7	8b cb		 mov	 ecx, ebx
  000a9	e8 00 00 00 00	 call	 ?GetVirtualID@CInstanceBase@@QAEKXZ ; CInstanceBase::GetVirtualID
  000ae	50		 push	 eax
  000af	8b cf		 mov	 ecx, edi
  000b1	e8 00 00 00 00	 call	 ?GetVirtualID@CInstanceBase@@QAEKXZ ; CInstanceBase::GetVirtualID
  000b6	50		 push	 eax
  000b7	e8 00 00 00 00	 call	 ?__FindDUELKey@CInstanceBase@@KA_NKK@Z ; CInstanceBase::__FindDUELKey
  000bc	83 c4 08	 add	 esp, 8
  000bf	84 c0		 test	 al, al
  000c1	e9 b1 01 00 00	 jmp	 $LN49@IsAttackab
$LN18@IsAttackab:

; 2178 : 						return true;
; 2179 : 					else
; 2180 : 						return false;
; 2181 : 				}
; 2182 : 			}
; 2183 : 			if (PK_MODE_GUILD == GetPKMode())

  000c6	8b cf		 mov	 ecx, edi
  000c8	e8 00 00 00 00	 call	 ?GetPKMode@CInstanceBase@@QAEEXZ ; CInstanceBase::GetPKMode
  000cd	3c 04		 cmp	 al, 4
  000cf	75 18		 jne	 SHORT $LN20@IsAttackab

; 2184 : 				if (GetGuildID() == rkInstVictim.GetGuildID())

  000d1	8b cb		 mov	 ecx, ebx
  000d3	e8 00 00 00 00	 call	 ?GetGuildID@CInstanceBase@@QAEKXZ ; CInstanceBase::GetGuildID
  000d8	8b cf		 mov	 ecx, edi
  000da	8b f0		 mov	 esi, eax
  000dc	e8 00 00 00 00	 call	 ?GetGuildID@CInstanceBase@@QAEKXZ ; CInstanceBase::GetGuildID
  000e1	3b c6		 cmp	 eax, esi
  000e3	0f 84 9b 01 00
	00		 je	 $LN45@IsAttackab
$LN20@IsAttackab:

; 2185 : 					return false;
; 2186 : 
; 2187 : 			if (rkInstVictim.IsKiller())

  000e9	8b cb		 mov	 ecx, ebx
  000eb	e8 00 00 00 00	 call	 ?IsKiller@CInstanceBase@@QAE_NXZ ; CInstanceBase::IsKiller
  000f0	84 c0		 test	 al, al
  000f2	74 2b		 je	 SHORT $LN22@IsAttackab

; 2188 : 				if (!IAbstractPlayer::GetSingleton().IsSamePartyMember(GetVirtualID(), rkInstVictim.GetVirtualID()))

  000f4	8b 35 00 00 00
	00		 mov	 esi, DWORD PTR ?ms_singleton@?$TAbstractSingleton@VIAbstractPlayer@@@@0PAVIAbstractPlayer@@A ; TAbstractSingleton<IAbstractPlayer>::ms_singleton
  000fa	8b cb		 mov	 ecx, ebx
  000fc	8b 3e		 mov	 edi, DWORD PTR [esi]
  000fe	e8 00 00 00 00	 call	 ?GetVirtualID@CInstanceBase@@QAEKXZ ; CInstanceBase::GetVirtualID
  00103	8b 4d fc	 mov	 ecx, DWORD PTR _this$1$[ebp]
  00106	50		 push	 eax
  00107	e8 00 00 00 00	 call	 ?GetVirtualID@CInstanceBase@@QAEKXZ ; CInstanceBase::GetVirtualID
  0010c	50		 push	 eax
  0010d	8b 47 2c	 mov	 eax, DWORD PTR [edi+44]
  00110	8b ce		 mov	 ecx, esi
  00112	ff d0		 call	 eax
  00114	84 c0		 test	 al, al
  00116	0f 84 5d 01 00
	00		 je	 $LN47@IsAttackab
  0011c	8b 7d fc	 mov	 edi, DWORD PTR _this$1$[ebp]
$LN22@IsAttackab:

; 2189 : 					return true;
; 2190 : 
; 2191 : 			if (PK_MODE_PROTECT != GetPKMode())

  0011f	8b cf		 mov	 ecx, edi
  00121	e8 00 00 00 00	 call	 ?GetPKMode@CInstanceBase@@QAEEXZ ; CInstanceBase::GetPKMode
  00126	3c 03		 cmp	 al, 3
  00128	0f 84 9b 00 00
	00		 je	 $LN30@IsAttackab

; 2192 : 			{
; 2193 : 				if (PK_MODE_FREE == GetPKMode())

  0012e	8b cf		 mov	 ecx, edi
  00130	e8 00 00 00 00	 call	 ?GetPKMode@CInstanceBase@@QAEEXZ ; CInstanceBase::GetPKMode
  00135	3c 02		 cmp	 al, 2
  00137	75 36		 jne	 SHORT $LN26@IsAttackab

; 2194 : 				{
; 2195 : 					if (PK_MODE_PROTECT != rkInstVictim.GetPKMode())

  00139	8b cb		 mov	 ecx, ebx
  0013b	e8 00 00 00 00	 call	 ?GetPKMode@CInstanceBase@@QAEEXZ ; CInstanceBase::GetPKMode
  00140	3c 03		 cmp	 al, 3
  00142	74 2b		 je	 SHORT $LN26@IsAttackab

; 2196 : 						if (!IAbstractPlayer::GetSingleton().IsSamePartyMember(GetVirtualID(), rkInstVictim.GetVirtualID()))

  00144	8b 35 00 00 00
	00		 mov	 esi, DWORD PTR ?ms_singleton@?$TAbstractSingleton@VIAbstractPlayer@@@@0PAVIAbstractPlayer@@A ; TAbstractSingleton<IAbstractPlayer>::ms_singleton
  0014a	8b cb		 mov	 ecx, ebx
  0014c	8b 3e		 mov	 edi, DWORD PTR [esi]
  0014e	e8 00 00 00 00	 call	 ?GetVirtualID@CInstanceBase@@QAEKXZ ; CInstanceBase::GetVirtualID
  00153	8b 4d fc	 mov	 ecx, DWORD PTR _this$1$[ebp]
  00156	50		 push	 eax
  00157	e8 00 00 00 00	 call	 ?GetVirtualID@CInstanceBase@@QAEKXZ ; CInstanceBase::GetVirtualID
  0015c	50		 push	 eax
  0015d	8b 47 2c	 mov	 eax, DWORD PTR [edi+44]
  00160	8b ce		 mov	 ecx, esi
  00162	ff d0		 call	 eax
  00164	84 c0		 test	 al, al
  00166	0f 84 0d 01 00
	00		 je	 $LN47@IsAttackab
  0016c	8b 7d fc	 mov	 edi, DWORD PTR _this$1$[ebp]
$LN26@IsAttackab:

; 2197 : 							return true;
; 2198 : 				}
; 2199 : 				if (PK_MODE_GUILD == GetPKMode())

  0016f	8b cf		 mov	 ecx, edi
  00171	e8 00 00 00 00	 call	 ?GetPKMode@CInstanceBase@@QAEEXZ ; CInstanceBase::GetPKMode
  00176	3c 04		 cmp	 al, 4
  00178	75 4f		 jne	 SHORT $LN30@IsAttackab

; 2200 : 				{
; 2201 : 					if (PK_MODE_PROTECT != rkInstVictim.GetPKMode())

  0017a	8b cb		 mov	 ecx, ebx
  0017c	e8 00 00 00 00	 call	 ?GetPKMode@CInstanceBase@@QAEEXZ ; CInstanceBase::GetPKMode
  00181	3c 03		 cmp	 al, 3
  00183	74 44		 je	 SHORT $LN30@IsAttackab

; 2202 : 						if (!IAbstractPlayer::GetSingleton().IsSamePartyMember(GetVirtualID(), rkInstVictim.GetVirtualID()))

  00185	8b 35 00 00 00
	00		 mov	 esi, DWORD PTR ?ms_singleton@?$TAbstractSingleton@VIAbstractPlayer@@@@0PAVIAbstractPlayer@@A ; TAbstractSingleton<IAbstractPlayer>::ms_singleton
  0018b	8b cb		 mov	 ecx, ebx
  0018d	8b 3e		 mov	 edi, DWORD PTR [esi]
  0018f	e8 00 00 00 00	 call	 ?GetVirtualID@CInstanceBase@@QAEKXZ ; CInstanceBase::GetVirtualID
  00194	8b 4d fc	 mov	 ecx, DWORD PTR _this$1$[ebp]
  00197	50		 push	 eax
  00198	e8 00 00 00 00	 call	 ?GetVirtualID@CInstanceBase@@QAEKXZ ; CInstanceBase::GetVirtualID
  0019d	50		 push	 eax
  0019e	8b 47 2c	 mov	 eax, DWORD PTR [edi+44]
  001a1	8b ce		 mov	 ecx, esi
  001a3	ff d0		 call	 eax
  001a5	84 c0		 test	 al, al
  001a7	75 1d		 jne	 SHORT $LN48@IsAttackab

; 2203 : 							if (GetGuildID() != rkInstVictim.GetGuildID())

  001a9	8b cb		 mov	 ecx, ebx
  001ab	e8 00 00 00 00	 call	 ?GetGuildID@CInstanceBase@@QAEKXZ ; CInstanceBase::GetGuildID
  001b0	8b 7d fc	 mov	 edi, DWORD PTR _this$1$[ebp]
  001b3	8b f0		 mov	 esi, eax
  001b5	8b cf		 mov	 ecx, edi
  001b7	e8 00 00 00 00	 call	 ?GetGuildID@CInstanceBase@@QAEKXZ ; CInstanceBase::GetGuildID
  001bc	3b c6		 cmp	 eax, esi
  001be	0f 85 b5 00 00
	00		 jne	 $LN47@IsAttackab

; 2202 : 						if (!IAbstractPlayer::GetSingleton().IsSamePartyMember(GetVirtualID(), rkInstVictim.GetVirtualID()))

  001c4	eb 03		 jmp	 SHORT $LN30@IsAttackab
$LN48@IsAttackab:
  001c6	8b 7d fc	 mov	 edi, DWORD PTR _this$1$[ebp]
$LN30@IsAttackab:

; 2204 : 								return true;
; 2205 : 				}
; 2206 : 			}
; 2207 : 
; 2208 : 			if (IsSameEmpire(rkInstVictim))

  001c9	53		 push	 ebx
  001ca	8b cf		 mov	 ecx, edi
  001cc	e8 00 00 00 00	 call	 ?IsSameEmpire@CInstanceBase@@QAEHAAV1@@Z ; CInstanceBase::IsSameEmpire
  001d1	85 c0		 test	 eax, eax
  001d3	0f 84 a0 00 00
	00		 je	 $LN47@IsAttackab

; 2209 : 			{
; 2210 : 				if (IsPVPInstance(rkInstVictim))

  001d9	53		 push	 ebx
  001da	8b cf		 mov	 ecx, edi
  001dc	e8 00 00 00 00	 call	 ?IsPVPInstance@CInstanceBase@@QAE_NAAV1@@Z ; CInstanceBase::IsPVPInstance
  001e1	84 c0		 test	 al, al
  001e3	0f 85 90 00 00
	00		 jne	 $LN47@IsAttackab

; 2211 : 					return true;
; 2212 : 
; 2213 : 				if (PK_MODE_REVENGE == GetPKMode())

  001e9	8b cf		 mov	 ecx, edi
  001eb	e8 00 00 00 00	 call	 ?GetPKMode@CInstanceBase@@QAEEXZ ; CInstanceBase::GetPKMode
  001f0	3c 01		 cmp	 al, 1
  001f2	75 31		 jne	 SHORT $LN32@IsAttackab

; 2214 : 					if (!IAbstractPlayer::GetSingleton().IsSamePartyMember(GetVirtualID(), rkInstVictim.GetVirtualID()))

  001f4	8b 35 00 00 00
	00		 mov	 esi, DWORD PTR ?ms_singleton@?$TAbstractSingleton@VIAbstractPlayer@@@@0PAVIAbstractPlayer@@A ; TAbstractSingleton<IAbstractPlayer>::ms_singleton
  001fa	8b cb		 mov	 ecx, ebx
  001fc	8b 3e		 mov	 edi, DWORD PTR [esi]
  001fe	e8 00 00 00 00	 call	 ?GetVirtualID@CInstanceBase@@QAEKXZ ; CInstanceBase::GetVirtualID
  00203	8b 4d fc	 mov	 ecx, DWORD PTR _this$1$[ebp]
  00206	50		 push	 eax
  00207	e8 00 00 00 00	 call	 ?GetVirtualID@CInstanceBase@@QAEKXZ ; CInstanceBase::GetVirtualID
  0020c	50		 push	 eax
  0020d	8b 47 2c	 mov	 eax, DWORD PTR [edi+44]
  00210	8b ce		 mov	 ecx, esi
  00212	ff d0		 call	 eax
  00214	84 c0		 test	 al, al
  00216	75 0d		 jne	 SHORT $LN32@IsAttackab

; 2215 : 						if (IsConflictAlignmentInstance(rkInstVictim))

  00218	8b 4d fc	 mov	 ecx, DWORD PTR _this$1$[ebp]
  0021b	53		 push	 ebx
  0021c	e8 00 00 00 00	 call	 ?IsConflictAlignmentInstance@CInstanceBase@@QAE_NAAV1@@Z ; CInstanceBase::IsConflictAlignmentInstance
  00221	84 c0		 test	 al, al
  00223	75 54		 jne	 SHORT $LN47@IsAttackab
$LN32@IsAttackab:

; 2216 : 							return true;
; 2217 : 			}
; 2218 : 			else
; 2219 : 			{
; 2220 : 				return true;
; 2221 : 			}
; 2222 : 		}
; 2223 : 
; 2224 : 		if (rkInstVictim.IsEnemy())

  00225	8b cb		 mov	 ecx, ebx
  00227	e8 00 00 00 00	 call	 ?IsEnemy@CInstanceBase@@QAEHXZ ; CInstanceBase::IsEnemy
  0022c	85 c0		 test	 eax, eax
  0022e	75 49		 jne	 SHORT $LN47@IsAttackab

; 2225 : 			return true;
; 2226 : 
; 2227 : 		if (rkInstVictim.IsWoodenDoor())

  00230	8b cb		 mov	 ecx, ebx
  00232	e8 00 00 00 00	 call	 ?IsWoodenDoor@CInstanceBase@@QAEHXZ ; CInstanceBase::IsWoodenDoor
  00237	eb 3c		 jmp	 SHORT $LN50@IsAttackab
$LN10@IsAttackab:

; 2228 : 			return true;
; 2229 : 	}
; 2230 : 	else if (IsEnemy())

  00239	8b cf		 mov	 ecx, edi
  0023b	e8 00 00 00 00	 call	 ?IsEnemy@CInstanceBase@@QAEHXZ ; CInstanceBase::IsEnemy
  00240	85 c0		 test	 eax, eax
  00242	74 14		 je	 SHORT $LN39@IsAttackab

; 2231 : 	{
; 2232 : 		if (rkInstVictim.IsPC())

  00244	8b cb		 mov	 ecx, ebx
  00246	e8 00 00 00 00	 call	 ?IsPC@CInstanceBase@@QAEHXZ ; CInstanceBase::IsPC
  0024b	85 c0		 test	 eax, eax
  0024d	75 2a		 jne	 SHORT $LN47@IsAttackab

; 2233 : 			return true;
; 2234 : 
; 2235 : 		if (rkInstVictim.IsBuilding())

  0024f	8b cb		 mov	 ecx, ebx
  00251	e8 00 00 00 00	 call	 ?IsBuilding@CInstanceBase@@QAEHXZ ; CInstanceBase::IsBuilding
  00256	eb 1d		 jmp	 SHORT $LN50@IsAttackab
$LN39@IsAttackab:

; 2236 : 			return true;
; 2237 : 		
; 2238 : 	}
; 2239 : 	else if (IsPoly())

  00258	8b cf		 mov	 ecx, edi
  0025a	e8 00 00 00 00	 call	 ?IsPoly@CInstanceBase@@QAEHXZ ; CInstanceBase::IsPoly
  0025f	85 c0		 test	 eax, eax
  00261	74 21		 je	 SHORT $LN45@IsAttackab

; 2240 : 	{
; 2241 : 		if (rkInstVictim.IsPC())

  00263	8b cb		 mov	 ecx, ebx
  00265	e8 00 00 00 00	 call	 ?IsPC@CInstanceBase@@QAEHXZ ; CInstanceBase::IsPC
  0026a	85 c0		 test	 eax, eax
  0026c	75 0b		 jne	 SHORT $LN47@IsAttackab

; 2242 : 			return true;
; 2243 : 
; 2244 : 		if (rkInstVictim.IsEnemy())

  0026e	8b cb		 mov	 ecx, ebx
  00270	e8 00 00 00 00	 call	 ?IsEnemy@CInstanceBase@@QAEHXZ ; CInstanceBase::IsEnemy
$LN50@IsAttackab:

; 2245 : 			return true;

  00275	85 c0		 test	 eax, eax
$LN49@IsAttackab:
  00277	74 0b		 je	 SHORT $LN45@IsAttackab
$LN47@IsAttackab:
  00279	5f		 pop	 edi

; 2246 : 	}
; 2247 : 	return false;
; 2248 : }

  0027a	5e		 pop	 esi
  0027b	b0 01		 mov	 al, 1
  0027d	5b		 pop	 ebx
  0027e	8b e5		 mov	 esp, ebp
  00280	5d		 pop	 ebp
  00281	c2 04 00	 ret	 4
$LN45@IsAttackab:
  00284	5f		 pop	 edi
  00285	5e		 pop	 esi
  00286	32 c0		 xor	 al, al
  00288	5b		 pop	 ebx
  00289	8b e5		 mov	 esp, ebp
  0028b	5d		 pop	 ebp
  0028c	c2 04 00	 ret	 4
?IsAttackableInstance@CInstanceBase@@QAE_NAAV1@@Z ENDP	; CInstanceBase::IsAttackableInstance
_TEXT	ENDS
; Function compile flags: /Ogtp
; File D:\Metin2 Server Files\mainline\SRC_2014\Metin2Client\UserInterface\InstanceBase.cpp
;	COMDAT ?IsConflictAlignmentInstance@CInstanceBase@@QAE_NAAV1@@Z
_TEXT	SEGMENT
_rkInstVictim$ = 8					; size = 4
?IsConflictAlignmentInstance@CInstanceBase@@QAE_NAAV1@@Z PROC ; CInstanceBase::IsConflictAlignmentInstance, COMDAT
; _this$ = ecx

; 2116 : {

  00000	55		 push	 ebp
  00001	8b ec		 mov	 ebp, esp
  00003	56		 push	 esi

; 2117 : 	if (PK_MODE_PROTECT == rkInstVictim.GetPKMode())

  00004	8b 75 08	 mov	 esi, DWORD PTR _rkInstVictim$[ebp]
  00007	57		 push	 edi
  00008	8b f9		 mov	 edi, ecx
  0000a	8b ce		 mov	 ecx, esi
  0000c	e8 00 00 00 00	 call	 ?GetPKMode@CInstanceBase@@QAEEXZ ; CInstanceBase::GetPKMode
  00011	3c 03		 cmp	 al, 3
  00013	74 29		 je	 SHORT $LN6@IsConflict

; 2118 : 		return false;
; 2119 : 
; 2120 : 	switch (GetAlignmentType())

  00015	8b cf		 mov	 ecx, edi
  00017	e8 00 00 00 00	 call	 ?GetAlignmentType@CInstanceBase@@QAEHXZ ; CInstanceBase::GetAlignmentType
  0001c	85 c0		 test	 eax, eax
  0001e	78 1e		 js	 SHORT $LN6@IsConflict
  00020	83 f8 01	 cmp	 eax, 1
  00023	7e 21		 jle	 SHORT $LN5@IsConflict
  00025	83 f8 02	 cmp	 eax, 2
  00028	75 14		 jne	 SHORT $LN6@IsConflict

; 2126 : 			break;
; 2127 : 		case ALIGNMENT_TYPE_DARK:
; 2128 : 			if (GetAlignmentType() != rkInstVictim.GetAlignmentType())

  0002a	8b ce		 mov	 ecx, esi
  0002c	e8 00 00 00 00	 call	 ?GetAlignmentType@CInstanceBase@@QAEHXZ ; CInstanceBase::GetAlignmentType
  00031	8b cf		 mov	 ecx, edi
  00033	8b f0		 mov	 esi, eax
  00035	e8 00 00 00 00	 call	 ?GetAlignmentType@CInstanceBase@@QAEHXZ ; CInstanceBase::GetAlignmentType
  0003a	3b c6		 cmp	 eax, esi
  0003c	75 14		 jne	 SHORT $LN10@IsConflict
$LN6@IsConflict:
  0003e	5f		 pop	 edi

; 2129 : 				return true;
; 2130 : 			break;
; 2131 : 	}
; 2132 : 
; 2133 : 	return false;

  0003f	32 c0		 xor	 al, al

; 2134 : }

  00041	5e		 pop	 esi
  00042	5d		 pop	 ebp
  00043	c2 04 00	 ret	 4
$LN5@IsConflict:

; 2121 : 	{
; 2122 : 		case ALIGNMENT_TYPE_NORMAL:
; 2123 : 		case ALIGNMENT_TYPE_WHITE:
; 2124 : 			if (ALIGNMENT_TYPE_DARK == rkInstVictim.GetAlignmentType())

  00046	8b ce		 mov	 ecx, esi
  00048	e8 00 00 00 00	 call	 ?GetAlignmentType@CInstanceBase@@QAEHXZ ; CInstanceBase::GetAlignmentType
  0004d	83 f8 02	 cmp	 eax, 2
  00050	75 ec		 jne	 SHORT $LN6@IsConflict
$LN10@IsConflict:
  00052	5f		 pop	 edi

; 2125 : 				return true;

  00053	b0 01		 mov	 al, 1

; 2134 : }

  00055	5e		 pop	 esi
  00056	5d		 pop	 ebp
  00057	c2 04 00	 ret	 4
?IsConflictAlignmentInstance@CInstanceBase@@QAE_NAAV1@@Z ENDP ; CInstanceBase::IsConflictAlignmentInstance
_TEXT	ENDS
; Function compile flags: /Ogtp
; File D:\Metin2 Server Files\mainline\SRC_2014\Metin2Client\UserInterface\InstanceBase.cpp
;	COMDAT ?CanFishing@CInstanceBase@@QAE_NXZ
_TEXT	SEGMENT
?CanFishing@CInstanceBase@@QAE_NXZ PROC			; CInstanceBase::CanFishing, COMDAT
; _this$ = ecx

; 1108 : 	return m_GraphicThingInstance.CanFishing();

  00000	81 c1 d4 01 00
	00		 add	 ecx, 468		; 000001d4H
  00006	e9 00 00 00 00	 jmp	 ?CanFishing@CActorInstance@@QAE_NXZ ; CActorInstance::CanFishing
?CanFishing@CInstanceBase@@QAE_NXZ ENDP			; CInstanceBase::CanFishing
_TEXT	ENDS
; Function compile flags: /Ogtp
; File D:\Metin2 Server Files\mainline\SRC_2014\Metin2Client\UserInterface\InstanceBase.cpp
;	COMDAT ?CanUseSkill@CInstanceBase@@QAE_NXZ
_TEXT	SEGMENT
?CanUseSkill@CInstanceBase@@QAE_NXZ PROC		; CInstanceBase::CanUseSkill, COMDAT
; _this$ = ecx

; 1071 : {

  00000	56		 push	 esi
  00001	8b f1		 mov	 esi, ecx

; 1072 : 	if (IsPoly())

  00003	e8 00 00 00 00	 call	 ?IsPoly@CInstanceBase@@QAEHXZ ; CInstanceBase::IsPoly
  00008	85 c0		 test	 eax, eax
  0000a	75 35		 jne	 SHORT $LN8@CanUseSkil

; 1073 : 		return false;
; 1074 : 
; 1075 : 	if (IsWearingDress())

  0000c	8b ce		 mov	 ecx, esi
  0000e	e8 00 00 00 00	 call	 ?IsWearingDress@CInstanceBase@@QAEHXZ ; CInstanceBase::IsWearingDress
  00013	85 c0		 test	 eax, eax
  00015	75 2a		 jne	 SHORT $LN8@CanUseSkil

; 1076 : 		return false;
; 1077 : 
; 1078 : 	if (IsHoldingPickAxe())

  00017	8b ce		 mov	 ecx, esi
  00019	e8 00 00 00 00	 call	 ?IsHoldingPickAxe@CInstanceBase@@QAEHXZ ; CInstanceBase::IsHoldingPickAxe
  0001e	85 c0		 test	 eax, eax
  00020	75 1f		 jne	 SHORT $LN8@CanUseSkil

; 1079 : 		return false;
; 1080 : 
; 1081 : 	if (!m_kHorse.CanUseSkill())

  00022	8d 4e 04	 lea	 ecx, DWORD PTR [esi+4]
  00025	e8 00 00 00 00	 call	 ?CanUseSkill@SHORSE@CInstanceBase@@QAE_NXZ ; CInstanceBase::SHORSE::CanUseSkill
  0002a	84 c0		 test	 al, al
  0002c	74 13		 je	 SHORT $LN8@CanUseSkil

; 1082 : 		return false;
; 1083 : 
; 1084 : 	if (!m_GraphicThingInstance.CanUseSkill())

  0002e	8d 8e d4 01 00
	00		 lea	 ecx, DWORD PTR [esi+468]
  00034	e8 00 00 00 00	 call	 ?CanUseSkill@CActorInstance@@QAE_NXZ ; CActorInstance::CanUseSkill
  00039	84 c0		 test	 al, al
  0003b	74 04		 je	 SHORT $LN8@CanUseSkil

; 1086 : 
; 1087 : 	return true;

  0003d	b0 01		 mov	 al, 1
  0003f	5e		 pop	 esi

; 1088 : }

  00040	c3		 ret	 0
$LN8@CanUseSkil:

; 1085 : 		return false;

  00041	32 c0		 xor	 al, al
  00043	5e		 pop	 esi

; 1088 : }

  00044	c3		 ret	 0
?CanUseSkill@CInstanceBase@@QAE_NXZ ENDP		; CInstanceBase::CanUseSkill
_TEXT	ENDS
; Function compile flags: /Ogtp
; File D:\Metin2 Server Files\mainline\SRC_2014\Metin2Client\UserInterface\InstanceBase.cpp
;	COMDAT ?CanAttack@CInstanceBase@@QAE_NXZ
_TEXT	SEGMENT
?CanAttack@CInstanceBase@@QAE_NXZ PROC			; CInstanceBase::CanAttack, COMDAT
; _this$ = ecx

; 1091 : {

  00000	56		 push	 esi
  00001	8b f1		 mov	 esi, ecx

; 1092 : 	if (!m_kHorse.CanAttack())

  00003	8d 4e 04	 lea	 ecx, DWORD PTR [esi+4]
  00006	e8 00 00 00 00	 call	 ?CanAttack@SHORSE@CInstanceBase@@QAE_NXZ ; CInstanceBase::SHORSE::CanAttack
  0000b	84 c0		 test	 al, al
  0000d	74 22		 je	 SHORT $LN6@CanAttack

; 1093 : 		return false;
; 1094 : 
; 1095 : 	if (IsWearingDress())

  0000f	8b ce		 mov	 ecx, esi
  00011	e8 00 00 00 00	 call	 ?IsWearingDress@CInstanceBase@@QAEHXZ ; CInstanceBase::IsWearingDress
  00016	85 c0		 test	 eax, eax
  00018	75 17		 jne	 SHORT $LN6@CanAttack

; 1096 : 		return false;
; 1097 : 
; 1098 : 	if (IsHoldingPickAxe())

  0001a	8b ce		 mov	 ecx, esi
  0001c	e8 00 00 00 00	 call	 ?IsHoldingPickAxe@CInstanceBase@@QAEHXZ ; CInstanceBase::IsHoldingPickAxe
  00021	85 c0		 test	 eax, eax
  00023	75 0c		 jne	 SHORT $LN6@CanAttack

; 1100 : 	
; 1101 : 	return m_GraphicThingInstance.CanAttack();

  00025	8d 8e d4 01 00
	00		 lea	 ecx, DWORD PTR [esi+468]
  0002b	5e		 pop	 esi
  0002c	e9 00 00 00 00	 jmp	 ?CanAttack@CActorInstance@@QAE_NXZ ; CActorInstance::CanAttack
$LN6@CanAttack:

; 1099 : 		return false;

  00031	32 c0		 xor	 al, al
  00033	5e		 pop	 esi

; 1102 : }

  00034	c3		 ret	 0
?CanAttack@CInstanceBase@@QAE_NXZ ENDP			; CInstanceBase::CanAttack
_TEXT	ENDS
; Function compile flags: /Ogtp
; File D:\Metin2 Server Files\mainline\SRC_2014\Metin2Client\UserInterface\InstanceBase.cpp
;	COMDAT ?CanMove@CInstanceBase@@QAE_NXZ
_TEXT	SEGMENT
?CanMove@CInstanceBase@@QAE_NXZ PROC			; CInstanceBase::CanMove, COMDAT
; _this$ = ecx

; 1067 : 	return m_GraphicThingInstance.CanMove();

  00000	81 c1 d4 01 00
	00		 add	 ecx, 468		; 000001d4H
  00006	e9 00 00 00 00	 jmp	 ?CanMove@CActorInstance@@QAE_NXZ ; CActorInstance::CanMove
?CanMove@CInstanceBase@@QAE_NXZ ENDP			; CInstanceBase::CanMove
_TEXT	ENDS
; Function compile flags: /Ogtp
; File D:\Metin2 Server Files\mainline\SRC_2014\Metin2Client\UserInterface\InstanceBase.cpp
;	COMDAT ?CanAct@CInstanceBase@@QAE_NXZ
_TEXT	SEGMENT
?CanAct@CInstanceBase@@QAE_NXZ PROC			; CInstanceBase::CanAct, COMDAT
; _this$ = ecx

; 1062 : 	return m_GraphicThingInstance.CanAct();

  00000	81 c1 d4 01 00
	00		 add	 ecx, 468		; 000001d4H
  00006	e9 00 00 00 00	 jmp	 ?CanAct@CActorInstance@@QAE_NXZ ; CActorInstance::CanAct
?CanAct@CInstanceBase@@QAE_NXZ ENDP			; CInstanceBase::CanAct
_TEXT	ENDS
; Function compile flags: /Ogtp
; File D:\Metin2 Server Files\mainline\SRC_2014\Metin2Client\UserInterface\InstanceBase.cpp
;	COMDAT ?IsPartyMember@CInstanceBase@@QAE_NXZ
_TEXT	SEGMENT
?IsPartyMember@CInstanceBase@@QAE_NXZ PROC		; CInstanceBase::IsPartyMember, COMDAT
; _this$ = ecx

; 561  : 	return m_isPartyMember;

  00000	8a 81 70 01 00
	00		 mov	 al, BYTE PTR [ecx+368]

; 562  : }

  00006	c3		 ret	 0
?IsPartyMember@CInstanceBase@@QAE_NXZ ENDP		; CInstanceBase::IsPartyMember
_TEXT	ENDS
; Function compile flags: /Ogtp
; File D:\Metin2 Server Files\mainline\SRC_2014\Metin2Client\UserInterface\InstanceBase.cpp
;	COMDAT ?IsKiller@CInstanceBase@@QAE_NXZ
_TEXT	SEGMENT
?IsKiller@CInstanceBase@@QAE_NXZ PROC			; CInstanceBase::IsKiller, COMDAT
; _this$ = ecx

; 556  : 	return m_isKiller;

  00000	8a 81 6f 01 00
	00		 mov	 al, BYTE PTR [ecx+367]

; 557  : }

  00006	c3		 ret	 0
?IsKiller@CInstanceBase@@QAE_NXZ ENDP			; CInstanceBase::IsKiller
_TEXT	ENDS
; Function compile flags: /Ogtp
; File D:\Metin2 Server Files\mainline\SRC_2014\Metin2Client\UserInterface\InstanceBase.cpp
;	COMDAT ?GetPKMode@CInstanceBase@@QAEEXZ
_TEXT	SEGMENT
?GetPKMode@CInstanceBase@@QAEEXZ PROC			; CInstanceBase::GetPKMode, COMDAT
; _this$ = ecx

; 551  : 	return m_byPKMode;

  00000	8a 81 6e 01 00
	00		 mov	 al, BYTE PTR [ecx+366]

; 552  : }

  00006	c3		 ret	 0
?GetPKMode@CInstanceBase@@QAEEXZ ENDP			; CInstanceBase::GetPKMode
_TEXT	ENDS
; Function compile flags: /Ogtp
; File D:\Metin2 Server Files\mainline\SRC_2014\Metin2Client\UserInterface\InstanceBase.cpp
;	COMDAT ?GetAlignmentType@CInstanceBase@@QAEHXZ
_TEXT	SEGMENT
?GetAlignmentType@CInstanceBase@@QAEHXZ PROC		; CInstanceBase::GetAlignmentType, COMDAT
; _this$ = ecx

; 525  : 	switch (GetAlignmentGrade())

  00000	e8 00 00 00 00	 call	 ?GetAlignmentGrade@CInstanceBase@@QAEIXZ ; CInstanceBase::GetAlignmentGrade
  00005	83 f8 08	 cmp	 eax, 8
  00008	77 17		 ja	 SHORT $LN2@GetAlignme
  0000a	0f b6 80 00 00
	00 00		 movzx	 eax, BYTE PTR $LN7@GetAlignme[eax]
  00011	ff 24 85 00 00
	00 00		 jmp	 DWORD PTR $LN8@GetAlignme[eax*4]
$LN4@GetAlignme:

; 526  : 	{
; 527  : 		case 0:
; 528  : 		case 1:
; 529  : 		case 2:
; 530  : 		case 3:
; 531  : 		{
; 532  : 			return ALIGNMENT_TYPE_WHITE;

  00018	33 c0		 xor	 eax, eax

; 547  : }

  0001a	c3		 ret	 0
$LN5@GetAlignme:

; 533  : 			break;
; 534  : 		}
; 535  : 
; 536  : 		case 5:
; 537  : 		case 6:
; 538  : 		case 7:
; 539  : 		case 8:
; 540  : 		{
; 541  : 			return ALIGNMENT_TYPE_DARK;

  0001b	b8 02 00 00 00	 mov	 eax, 2

; 547  : }

  00020	c3		 ret	 0
$LN2@GetAlignme:

; 542  : 			break;
; 543  : 		}
; 544  : 	}
; 545  : 
; 546  : 	return ALIGNMENT_TYPE_NORMAL;

  00021	b8 01 00 00 00	 mov	 eax, 1

; 547  : }

  00026	c3		 ret	 0
  00027	90		 npad	 1
$LN8@GetAlignme:
  00028	00 00 00 00	 DD	 $LN4@GetAlignme
  0002c	00 00 00 00	 DD	 $LN5@GetAlignme
  00030	00 00 00 00	 DD	 $LN2@GetAlignme
$LN7@GetAlignme:
  00034	00		 DB	 0
  00035	00		 DB	 0
  00036	00		 DB	 0
  00037	00		 DB	 0
  00038	02		 DB	 2
  00039	01		 DB	 1
  0003a	01		 DB	 1
  0003b	01		 DB	 1
  0003c	01		 DB	 1
?GetAlignmentType@CInstanceBase@@QAEHXZ ENDP		; CInstanceBase::GetAlignmentType
_TEXT	ENDS
; Function compile flags: /Ogtp
; File D:\Metin2 Server Files\mainline\SRC_2014\Metin2Client\UserInterface\InstanceBase.cpp
;	COMDAT ?GetAlignmentGrade@CInstanceBase@@QAEIXZ
_TEXT	SEGMENT
?GetAlignmentGrade@CInstanceBase@@QAEIXZ PROC		; CInstanceBase::GetAlignmentGrade, COMDAT
; _this$ = ecx

; 503  : 	if (m_sAlignment >= 12000)

  00000	0f b7 89 6c 01
	00 00		 movzx	 ecx, WORD PTR [ecx+364]
  00007	b8 e0 2e 00 00	 mov	 eax, 12000		; 00002ee0H
  0000c	66 3b c8	 cmp	 cx, ax
  0000f	7c 03		 jl	 SHORT $LN2@GetAlignme

; 504  : 		return 0;

  00011	33 c0		 xor	 eax, eax

; 518  : 		return 7;
; 519  : 
; 520  : 	return 8;
; 521  : }

  00013	c3		 ret	 0
$LN2@GetAlignme:

; 505  : 	else if (m_sAlignment >= 8000)

  00014	b8 40 1f 00 00	 mov	 eax, 8000		; 00001f40H
  00019	66 3b c8	 cmp	 cx, ax
  0001c	7c 06		 jl	 SHORT $LN4@GetAlignme

; 506  : 		return 1;

  0001e	b8 01 00 00 00	 mov	 eax, 1

; 518  : 		return 7;
; 519  : 
; 520  : 	return 8;
; 521  : }

  00023	c3		 ret	 0
$LN4@GetAlignme:

; 507  : 	else if (m_sAlignment >= 4000)

  00024	b8 a0 0f 00 00	 mov	 eax, 4000		; 00000fa0H
  00029	66 3b c8	 cmp	 cx, ax
  0002c	7c 06		 jl	 SHORT $LN6@GetAlignme

; 508  : 		return 2;

  0002e	b8 02 00 00 00	 mov	 eax, 2

; 518  : 		return 7;
; 519  : 
; 520  : 	return 8;
; 521  : }

  00033	c3		 ret	 0
$LN6@GetAlignme:

; 509  : 	else if (m_sAlignment >= 1000)

  00034	b8 e8 03 00 00	 mov	 eax, 1000		; 000003e8H
  00039	66 3b c8	 cmp	 cx, ax
  0003c	7c 06		 jl	 SHORT $LN8@GetAlignme

; 510  : 		return 3;

  0003e	b8 03 00 00 00	 mov	 eax, 3

; 518  : 		return 7;
; 519  : 
; 520  : 	return 8;
; 521  : }

  00043	c3		 ret	 0
$LN8@GetAlignme:

; 511  : 	else if (m_sAlignment >= 0)

  00044	66 85 c9	 test	 cx, cx
  00047	78 06		 js	 SHORT $LN10@GetAlignme

; 512  : 		return 4;

  00049	b8 04 00 00 00	 mov	 eax, 4

; 518  : 		return 7;
; 519  : 
; 520  : 	return 8;
; 521  : }

  0004e	c3		 ret	 0
$LN10@GetAlignme:

; 513  : 	else if (m_sAlignment > -4000)

  0004f	b8 60 f0 ff ff	 mov	 eax, -4000		; fffff060H
  00054	66 3b c8	 cmp	 cx, ax
  00057	7e 06		 jle	 SHORT $LN12@GetAlignme

; 514  : 		return 5;

  00059	b8 05 00 00 00	 mov	 eax, 5

; 518  : 		return 7;
; 519  : 
; 520  : 	return 8;
; 521  : }

  0005e	c3		 ret	 0
$LN12@GetAlignme:

; 515  : 	else if (m_sAlignment > -8000)

  0005f	b8 c0 e0 ff ff	 mov	 eax, -8000		; ffffe0c0H
  00064	66 3b c8	 cmp	 cx, ax
  00067	7e 06		 jle	 SHORT $LN14@GetAlignme

; 516  : 		return 6;

  00069	b8 06 00 00 00	 mov	 eax, 6

; 518  : 		return 7;
; 519  : 
; 520  : 	return 8;
; 521  : }

  0006e	c3		 ret	 0
$LN14@GetAlignme:

; 517  : 	else if (m_sAlignment > -12000)

  0006f	33 c0		 xor	 eax, eax
  00071	ba 20 d1 ff ff	 mov	 edx, -12000		; ffffd120H
  00076	66 3b ca	 cmp	 cx, dx
  00079	0f 9e c0	 setle	 al
  0007c	83 c0 07	 add	 eax, 7

; 518  : 		return 7;
; 519  : 
; 520  : 	return 8;
; 521  : }

  0007f	c3		 ret	 0
?GetAlignmentGrade@CInstanceBase@@QAEIXZ ENDP		; CInstanceBase::GetAlignmentGrade
_TEXT	ENDS
; Function compile flags: /Ogtp
; File D:\Metin2 Server Files\mainline\SRC_2014\Metin2Client\UserInterface\InstanceBase.cpp
;	COMDAT ?GetAlignment@CInstanceBase@@QAEHXZ
_TEXT	SEGMENT
?GetAlignment@CInstanceBase@@QAEHXZ PROC		; CInstanceBase::GetAlignment, COMDAT
; _this$ = ecx

; 498  : 	return m_sAlignment;

  00000	0f bf 81 6c 01
	00 00		 movsx	 eax, WORD PTR [ecx+364]

; 499  : }

  00007	c3		 ret	 0
?GetAlignment@CInstanceBase@@QAEHXZ ENDP		; CInstanceBase::GetAlignment
_TEXT	ENDS
; Function compile flags: /Ogtp
; File D:\Metin2 Server Files\mainline\SRC_2014\Metin2Client\UserInterface\InstanceBase.cpp
;	COMDAT ?GetGuildID@CInstanceBase@@QAEKXZ
_TEXT	SEGMENT
?GetGuildID@CInstanceBase@@QAEKXZ PROC			; CInstanceBase::GetGuildID, COMDAT
; _this$ = ecx

; 493  : 	return m_dwGuildID;

  00000	8b 41 44	 mov	 eax, DWORD PTR [ecx+68]

; 494  : }

  00003	c3		 ret	 0
?GetGuildID@CInstanceBase@@QAEKXZ ENDP			; CInstanceBase::GetGuildID
_TEXT	ENDS
; Function compile flags: /Ogtp
; File D:\Metin2 Server Files\mainline\SRC_2014\Metin2Client\UserInterface\InstanceBase.cpp
;	COMDAT ?GetEmpireID@CInstanceBase@@QAEKXZ
_TEXT	SEGMENT
?GetEmpireID@CInstanceBase@@QAEKXZ PROC			; CInstanceBase::GetEmpireID, COMDAT
; _this$ = ecx

; 488  : 	return m_dwEmpireID;

  00000	8b 41 40	 mov	 eax, DWORD PTR [ecx+64]

; 489  : }

  00003	c3		 ret	 0
?GetEmpireID@CInstanceBase@@QAEKXZ ENDP			; CInstanceBase::GetEmpireID
_TEXT	ENDS
; Function compile flags: /Ogtp
; File D:\Metin2 Server Files\mainline\SRC_2014\Metin2Client\UserInterface\InstanceBase.cpp
;	COMDAT ?GetVirtualNumber@CInstanceBase@@QAEKXZ
_TEXT	SEGMENT
?GetVirtualNumber@CInstanceBase@@QAEKXZ PROC		; CInstanceBase::GetVirtualNumber, COMDAT
; _this$ = ecx

; 2447 : 	return m_dwVirtualNumber;

  00000	8b 81 68 01 00
	00		 mov	 eax, DWORD PTR [ecx+360]

; 2448 : }

  00006	c3		 ret	 0
?GetVirtualNumber@CInstanceBase@@QAEKXZ ENDP		; CInstanceBase::GetVirtualNumber
_TEXT	ENDS
; Function compile flags: /Ogtp
; File D:\Metin2 Server Files\mainline\SRC_2014\Metin2Client\UserInterface\InstanceBase.cpp
;	COMDAT ?GetVirtualID@CInstanceBase@@QAEKXZ
_TEXT	SEGMENT
?GetVirtualID@CInstanceBase@@QAEKXZ PROC		; CInstanceBase::GetVirtualID, COMDAT
; _this$ = ecx

; 2442 : 	return m_GraphicThingInstance.GetVirtualID();

  00000	8b 81 d4 01 00
	00		 mov	 eax, DWORD PTR [ecx+468]
  00006	81 c1 d4 01 00
	00		 add	 ecx, 468		; 000001d4H
  0000c	ff 60 48	 jmp	 DWORD PTR [eax+72]
?GetVirtualID@CInstanceBase@@QAEKXZ ENDP		; CInstanceBase::GetVirtualID
_TEXT	ENDS
; Function compile flags: /Ogtp
; File D:\Metin2 Server Files\mainline\SRC_2014\Metin2Client\UserInterface\InstanceBase.cpp
;	COMDAT ?GetRace@CInstanceBase@@QAEKXZ
_TEXT	SEGMENT
?GetRace@CInstanceBase@@QAEKXZ PROC			; CInstanceBase::GetRace, COMDAT
; _this$ = ecx

; 2111 : 	return m_dwRace;

  00000	8b 81 64 01 00
	00		 mov	 eax, DWORD PTR [ecx+356]

; 2112 : }

  00006	c3		 ret	 0
?GetRace@CInstanceBase@@QAEKXZ ENDP			; CInstanceBase::GetRace
_TEXT	ENDS
; Function compile flags: /Ogtp
; File D:\Metin2 Server Files\mainline\SRC_2014\Metin2Client\UserInterface\InstanceBase.cpp
;	COMDAT ?GetShape@CInstanceBase@@QAEKXZ
_TEXT	SEGMENT
?GetShape@CInstanceBase@@QAEKXZ PROC			; CInstanceBase::GetShape, COMDAT
; _this$ = ecx

; 1057 : 	return m_eShape;

  00000	8b 81 60 01 00
	00		 mov	 eax, DWORD PTR [ecx+352]

; 1058 : }

  00006	c3		 ret	 0
?GetShape@CInstanceBase@@QAEKXZ ENDP			; CInstanceBase::GetShape
_TEXT	ENDS
; Function compile flags: /Ogtp
; File D:\Metin2 Server Files\mainline\SRC_2014\Metin2Client\UserInterface\InstanceBase.cpp
;	COMDAT ?GetPart@CInstanceBase@@QAEKW4EParts@CRaceData@@@Z
_TEXT	SEGMENT
_part$ = 8						; size = 4
?GetPart@CInstanceBase@@QAEKW4EParts@CRaceData@@@Z PROC	; CInstanceBase::GetPart, COMDAT
; _this$ = ecx

; 1050 : {

  00000	55		 push	 ebp
  00001	8b ec		 mov	 ebp, esp

; 1051 : 	assert(part >= 0 && part < CRaceData::PART_MAX_NUM);
; 1052 : 	return m_awPart[part];

  00003	8b 45 08	 mov	 eax, DWORD PTR _part$[ebp]
  00006	8b 44 81 28	 mov	 eax, DWORD PTR [ecx+eax*4+40]

; 1053 : }

  0000a	5d		 pop	 ebp
  0000b	c2 04 00	 ret	 4
?GetPart@CInstanceBase@@QAEKW4EParts@CRaceData@@@Z ENDP	; CInstanceBase::GetPart
_TEXT	ENDS
; Function compile flags: /Ogtp
; File D:\Metin2 Server Files\mainline\SRC_2014\Metin2Client\UserInterface\InstanceBase.cpp
;	COMDAT ?GetInstanceType@CInstanceBase@@QAEHXZ
_TEXT	SEGMENT
?GetInstanceType@CInstanceBase@@QAEHXZ PROC		; CInstanceBase::GetInstanceType, COMDAT
; _this$ = ecx

; 2437 : 	return m_GraphicThingInstance.GetActorType();

  00000	81 c1 d4 01 00
	00		 add	 ecx, 468		; 000001d4H
  00006	e9 00 00 00 00	 jmp	 ?GetActorType@CActorInstance@@QBEIXZ ; CActorInstance::GetActorType
?GetInstanceType@CInstanceBase@@QAEHXZ ENDP		; CInstanceBase::GetInstanceType
_TEXT	ENDS
; Function compile flags: /Ogtp
; File D:\Metin2 Server Files\mainline\SRC_2014\Metin2Client\UserInterface\InstanceBase.cpp
; File C:\Program Files (x86)\Microsoft Visual Studio\2019\Community\VC\Tools\MSVC\14.28.29333\include\xstring
; File D:\Metin2 Server Files\mainline\SRC_2014\Metin2Client\UserInterface\InstanceBase.cpp
;	COMDAT ?GetNameString@CInstanceBase@@QAEPBDXZ
_TEXT	SEGMENT
?GetNameString@CInstanceBase@@QAEPBDXZ PROC		; CInstanceBase::GetNameString, COMDAT
; _this$ = ecx
; File C:\Program Files (x86)\Microsoft Visual Studio\2019\Community\VC\Tools\MSVC\14.28.29333\include\xstring

; 2227 :         return _BUF_SIZE <= _Myres;

  00000	83 79 24 10	 cmp	 DWORD PTR [ecx+36], 16	; 00000010H

; 3752 :         return _Mypair._Myval2._Myptr();

  00004	8d 41 10	 lea	 eax, DWORD PTR [ecx+16]

; 2219 :         if (_Large_string_engaged()) {

  00007	72 02		 jb	 SHORT $LN6@GetNameStr
; File D:\Metin2 Server Files\mainline\SRC_2014\Metin2Client\UserInterface\InstanceBase.cpp

; 2106 : 	return m_stName.c_str();

  00009	8b 00		 mov	 eax, DWORD PTR [eax]
$LN6@GetNameStr:

; 2107 : }

  0000b	c3		 ret	 0
?GetNameString@CInstanceBase@@QAEPBDXZ ENDP		; CInstanceBase::GetNameString
_TEXT	ENDS
; Function compile flags: /Ogtp
; File D:\Metin2 Server Files\mainline\SRC_2014\Metin2Client\UserInterface\InstanceBase.cpp
;	COMDAT ?SetComboType@CInstanceBase@@QAEXI@Z
_TEXT	SEGMENT
_uComboType$ = 8					; size = 4
?SetComboType@CInstanceBase@@QAEXI@Z PROC		; CInstanceBase::SetComboType, COMDAT
; _this$ = ecx

; 2100 : {

  00000	55		 push	 ebp
  00001	8b ec		 mov	 ebp, esp

; 2101 : 	m_GraphicThingInstance.SetComboType(uComboType);

  00003	81 c1 d4 01 00
	00		 add	 ecx, 468		; 000001d4H

; 2102 : }

  00009	5d		 pop	 ebp

; 2101 : 	m_GraphicThingInstance.SetComboType(uComboType);

  0000a	e9 00 00 00 00	 jmp	 ?SetComboType@CActorInstance@@QAEXG@Z ; CActorInstance::SetComboType
?SetComboType@CInstanceBase@@QAEXI@Z ENDP		; CInstanceBase::SetComboType
_TEXT	ENDS
; Function compile flags: /Ogtp
; File D:\Metin2 Server Files\mainline\SRC_2014\Metin2Client\UserInterface\InstanceBase.cpp
;	COMDAT ?GetWeaponType@CInstanceBase@@QAEKXZ
_TEXT	SEGMENT
_pItemData$ = -4					; size = 4
?GetWeaponType@CInstanceBase@@QAEKXZ PROC		; CInstanceBase::GetWeaponType, COMDAT
; _this$ = ecx

; 2629 : {

  00000	55		 push	 ebp
  00001	8b ec		 mov	 ebp, esp
  00003	51		 push	 ecx

; 2630 : 	DWORD dwWeapon = GetPart(CRaceData::PART_WEAPON);

  00004	6a 01		 push	 1
  00006	e8 00 00 00 00	 call	 ?GetPart@CInstanceBase@@QAEKW4EParts@CRaceData@@@Z ; CInstanceBase::GetPart

; 2631 : 	CItemData * pItemData;
; 2632 : 	if (!CItemManager::Instance().GetItemDataPointer(dwWeapon, &pItemData))

  0000b	8d 4d fc	 lea	 ecx, DWORD PTR _pItemData$[ebp]
  0000e	51		 push	 ecx
  0000f	8b 0d 00 00 00
	00		 mov	 ecx, DWORD PTR ?ms_singleton@?$CSingleton@VCItemManager@@@@0PAVCItemManager@@A ; CSingleton<CItemManager>::ms_singleton
  00015	50		 push	 eax
  00016	e8 00 00 00 00	 call	 ?GetItemDataPointer@CItemManager@@QAEHKPAPAVCItemData@@@Z ; CItemManager::GetItemDataPointer
  0001b	85 c0		 test	 eax, eax
  0001d	75 09		 jne	 SHORT $LN2@GetWeaponT

; 2633 : 		return CItemData::WEAPON_NONE;

  0001f	b8 08 00 00 00	 mov	 eax, 8

; 2636 : }

  00024	8b e5		 mov	 esp, ebp
  00026	5d		 pop	 ebp
  00027	c3		 ret	 0
$LN2@GetWeaponT:

; 2634 : 
; 2635 : 	return pItemData->GetWeaponType();

  00028	8b 4d fc	 mov	 ecx, DWORD PTR _pItemData$[ebp]
  0002b	e8 00 00 00 00	 call	 ?GetWeaponType@CItemData@@QBEKXZ ; CItemData::GetWeaponType

; 2636 : }

  00030	8b e5		 mov	 esp, ebp
  00032	5d		 pop	 ebp
  00033	c3		 ret	 0
?GetWeaponType@CInstanceBase@@QAEKXZ ENDP		; CInstanceBase::GetWeaponType
_TEXT	ENDS
; Function compile flags: /Ogtp
; File D:\Metin2 Server Files\mainline\SRC_2014\Metin2Client\UserInterface\InstanceBase.cpp
;	COMDAT ?ChangeGuild@CInstanceBase@@QAEXK@Z
_TEXT	SEGMENT
_dwGuildID$ = 8						; size = 4
?ChangeGuild@CInstanceBase@@QAEXK@Z PROC		; CInstanceBase::ChangeGuild, COMDAT
; _this$ = ecx

; 1041 : {

  00000	55		 push	 ebp
  00001	8b ec		 mov	 ebp, esp

; 1042 : 	m_dwGuildID=dwGuildID;

  00003	8b 45 08	 mov	 eax, DWORD PTR _dwGuildID$[ebp]
  00006	56		 push	 esi
  00007	8b f1		 mov	 esi, ecx
  00009	89 46 44	 mov	 DWORD PTR [esi+68], eax

; 1043 : 
; 1044 : 	DetachTextTail();

  0000c	e8 00 00 00 00	 call	 ?DetachTextTail@CInstanceBase@@QAEXXZ ; CInstanceBase::DetachTextTail

; 1045 : 	AttachTextTail();

  00011	8b ce		 mov	 ecx, esi
  00013	e8 00 00 00 00	 call	 ?AttachTextTail@CInstanceBase@@QAEXXZ ; CInstanceBase::AttachTextTail

; 1046 : 	RefreshTextTail();

  00018	8b ce		 mov	 ecx, esi
  0001a	e8 00 00 00 00	 call	 ?RefreshTextTail@CInstanceBase@@QAEXXZ ; CInstanceBase::RefreshTextTail
  0001f	5e		 pop	 esi

; 1047 : }

  00020	5d		 pop	 ebp
  00021	c2 04 00	 ret	 4
?ChangeGuild@CInstanceBase@@QAEXK@Z ENDP		; CInstanceBase::ChangeGuild
_TEXT	ENDS
; Function compile flags: /Ogtp
; File D:\Metin2 Server Files\mainline\SRC_2014\Metin2Client\UserInterface\InstanceBase.cpp
;	COMDAT ?ChangeHair@CInstanceBase@@QAEXK@Z
_TEXT	SEGMENT
_eHair$ = 8						; size = 4
?ChangeHair@CInstanceBase@@QAEXK@Z PROC			; CInstanceBase::ChangeHair, COMDAT
; _this$ = ecx

; 2574 : {

  00000	55		 push	 ebp
  00001	8b ec		 mov	 ebp, esp

; 2575 : 	if (!HAIR_COLOR_ENABLE)

  00003	83 3d 00 00 00
	00 00		 cmp	 DWORD PTR ?HAIR_COLOR_ENABLE@@3HA, 0 ; HAIR_COLOR_ENABLE
  0000a	56		 push	 esi
  0000b	8b f1		 mov	 esi, ecx
  0000d	74 2c		 je	 SHORT $LN1@ChangeHair

; 2576 : 		return;
; 2577 : 
; 2578 : 	if (IsPC()==false)

  0000f	e8 00 00 00 00	 call	 ?IsPC@CInstanceBase@@QAEHXZ ; CInstanceBase::IsPC
  00014	85 c0		 test	 eax, eax
  00016	74 23		 je	 SHORT $LN1@ChangeHair

; 2579 : 		return;
; 2580 : 
; 2581 : 	if (GetPart(CRaceData::PART_HAIR)==eHair)

  00018	6a 04		 push	 4
  0001a	8b ce		 mov	 ecx, esi
  0001c	e8 00 00 00 00	 call	 ?GetPart@CInstanceBase@@QAEKW4EParts@CRaceData@@@Z ; CInstanceBase::GetPart
  00021	8b 4d 08	 mov	 ecx, DWORD PTR _eHair$[ebp]
  00024	3b c1		 cmp	 eax, ecx
  00026	74 13		 je	 SHORT $LN1@ChangeHair

; 2582 : 		return;
; 2583 : 
; 2584 : 	SetHair(eHair);

  00028	51		 push	 ecx
  00029	8b ce		 mov	 ecx, esi
  0002b	e8 00 00 00 00	 call	 ?SetHair@CInstanceBase@@QAEXK@Z ; CInstanceBase::SetHair

; 2585 : 
; 2586 : 	//int type = m_GraphicThingInstance.GetMotionMode();
; 2587 : 
; 2588 : 	RefreshState(CRaceMotionData::NAME_WAIT, true);

  00030	6a 01		 push	 1
  00032	6a 01		 push	 1
  00034	8b ce		 mov	 ecx, esi
  00036	e8 00 00 00 00	 call	 ?RefreshState@CInstanceBase@@IAEXK_N@Z ; CInstanceBase::RefreshState
$LN1@ChangeHair:
  0003b	5e		 pop	 esi

; 2589 : 	//RefreshState(type, true);
; 2590 : }

  0003c	5d		 pop	 ebp
  0003d	c2 04 00	 ret	 4
?ChangeHair@CInstanceBase@@QAEXK@Z ENDP			; CInstanceBase::ChangeHair
_TEXT	ENDS
; Function compile flags: /Ogtp
; File D:\Metin2 Server Files\mainline\SRC_2014\Metin2Client\UserInterface\InstanceBase.cpp
;	COMDAT ?ChangeWeapon@CInstanceBase@@QAEXK@Z
_TEXT	SEGMENT
_eWeapon$ = 8						; size = 4
?ChangeWeapon@CInstanceBase@@QAEXK@Z PROC		; CInstanceBase::ChangeWeapon, COMDAT
; _this$ = ecx

; 2771 : {

  00000	55		 push	 ebp
  00001	8b ec		 mov	 ebp, esp
  00003	56		 push	 esi
  00004	8b f1		 mov	 esi, ecx

; 2772 : 	if (eWeapon == m_GraphicThingInstance.GetPartItemID(CRaceData::PART_WEAPON))

  00006	6a 01		 push	 1
  00008	8d 8e d4 01 00
	00		 lea	 ecx, DWORD PTR [esi+468]
  0000e	e8 00 00 00 00	 call	 ?GetPartItemID@CActorInstance@@QAEKK@Z ; CActorInstance::GetPartItemID
  00013	8b 4d 08	 mov	 ecx, DWORD PTR _eWeapon$[ebp]
  00016	3b c8		 cmp	 ecx, eax
  00018	74 17		 je	 SHORT $LN3@ChangeWeap

; 2773 : 		return;
; 2774 : 
; 2775 : 	if (SetWeapon(eWeapon))

  0001a	51		 push	 ecx
  0001b	8b ce		 mov	 ecx, esi
  0001d	e8 00 00 00 00	 call	 ?SetWeapon@CInstanceBase@@QAE_NK@Z ; CInstanceBase::SetWeapon
  00022	84 c0		 test	 al, al
  00024	74 0b		 je	 SHORT $LN3@ChangeWeap

; 2776 : 		RefreshState(CRaceMotionData::NAME_WAIT, true);

  00026	6a 01		 push	 1
  00028	6a 01		 push	 1
  0002a	8b ce		 mov	 ecx, esi
  0002c	e8 00 00 00 00	 call	 ?RefreshState@CInstanceBase@@IAEXK_N@Z ; CInstanceBase::RefreshState
$LN3@ChangeWeap:
  00031	5e		 pop	 esi

; 2777 : }

  00032	5d		 pop	 ebp
  00033	c2 04 00	 ret	 4
?ChangeWeapon@CInstanceBase@@QAEXK@Z ENDP		; CInstanceBase::ChangeWeapon
_TEXT	ENDS
; Function compile flags: /Ogtp
; File D:\Metin2 Server Files\mainline\SRC_2014\Metin2Client\UserInterface\InstanceBase.cpp
;	COMDAT ?ChangeArmor@CInstanceBase@@QAE_NK@Z
_TEXT	SEGMENT
_fAdvRot$ = -44						; size = 4
_fRot$ = -40						; size = 4
_eWeapon$1$ = -36					; size = 4
_eHair$1$ = -32						; size = 4
_dwVID$1$ = -28						; size = 4
_eShape$ = -28						; size = 4
_kAffectFlagContainer$ = -24				; size = 8
__$ArrayPad$ = -16					; size = 4
__$EHRec$ = -12						; size = 12
_dwArmor$ = 8						; size = 4
?ChangeArmor@CInstanceBase@@QAE_NK@Z PROC		; CInstanceBase::ChangeArmor, COMDAT
; _this$ = ecx

; 2780 : {

  00000	55		 push	 ebp
  00001	8b ec		 mov	 ebp, esp
  00003	6a ff		 push	 -1
  00005	68 00 00 00 00	 push	 __ehhandler$?ChangeArmor@CInstanceBase@@QAE_NK@Z
  0000a	64 a1 00 00 00
	00		 mov	 eax, DWORD PTR fs:0
  00010	50		 push	 eax
  00011	83 ec 20	 sub	 esp, 32			; 00000020H
  00014	a1 00 00 00 00	 mov	 eax, DWORD PTR ___security_cookie
  00019	33 c5		 xor	 eax, ebp
  0001b	89 45 f0	 mov	 DWORD PTR __$ArrayPad$[ebp], eax
  0001e	53		 push	 ebx
  0001f	56		 push	 esi
  00020	57		 push	 edi
  00021	50		 push	 eax
  00022	8d 45 f4	 lea	 eax, DWORD PTR __$EHRec$[ebp]
  00025	64 a3 00 00 00
	00		 mov	 DWORD PTR fs:0, eax
  0002b	8b f1		 mov	 esi, ecx

; 2781 : 	DWORD eShape;
; 2782 : 	__ArmorVnumToShape(dwArmor, &eShape);

  0002d	8b 5d 08	 mov	 ebx, DWORD PTR _dwArmor$[ebp]
  00030	8d 45 e4	 lea	 eax, DWORD PTR _eShape$[ebp]
  00033	50		 push	 eax
  00034	53		 push	 ebx
  00035	e8 00 00 00 00	 call	 ?__ArmorVnumToShape@@YA_NHPAK@Z ; __ArmorVnumToShape
  0003a	83 c4 08	 add	 esp, 8

; 2783 : 
; 2784 : 	if (GetShape()==eShape)

  0003d	8b ce		 mov	 ecx, esi
  0003f	e8 00 00 00 00	 call	 ?GetShape@CInstanceBase@@QAEKXZ ; CInstanceBase::GetShape
  00044	3b 45 e4	 cmp	 eax, DWORD PTR _eShape$[ebp]
  00047	75 07		 jne	 SHORT $LN2@ChangeArmo

; 2785 : 		return false;

  00049	32 c0		 xor	 al, al
  0004b	e9 13 01 00 00	 jmp	 $LN1@ChangeArmo
$LN2@ChangeArmo:

; 2786 : 
; 2787 : 	CAffectFlagContainer kAffectFlagContainer;

  00050	8d 4d e8	 lea	 ecx, DWORD PTR _kAffectFlagContainer$[ebp]
  00053	e8 00 00 00 00	 call	 ??0CAffectFlagContainer@@QAE@XZ ; CAffectFlagContainer::CAffectFlagContainer

; 2788 : 	kAffectFlagContainer.CopyInstance(m_kAffectFlagContainer);

  00058	8d 46 48	 lea	 eax, DWORD PTR [esi+72]
  0005b	c7 45 fc 00 00
	00 00		 mov	 DWORD PTR __$EHRec$[ebp+8], 0
  00062	50		 push	 eax
  00063	8d 4d e8	 lea	 ecx, DWORD PTR _kAffectFlagContainer$[ebp]
  00066	e8 00 00 00 00	 call	 ?CopyInstance@CAffectFlagContainer@@QAEXABV1@@Z ; CAffectFlagContainer::CopyInstance

; 2789 : 
; 2790 : 	DWORD dwVID = GetVirtualID();

  0006b	8b ce		 mov	 ecx, esi
  0006d	e8 00 00 00 00	 call	 ?GetVirtualID@CInstanceBase@@QAEKXZ ; CInstanceBase::GetVirtualID

; 2791 : 	DWORD dwRace = GetRace();

  00072	8b ce		 mov	 ecx, esi
  00074	89 45 e4	 mov	 DWORD PTR _dwVID$1$[ebp], eax
  00077	e8 00 00 00 00	 call	 ?GetRace@CInstanceBase@@QAEKXZ ; CInstanceBase::GetRace

; 2792 : 	DWORD eHair = GetPart(CRaceData::PART_HAIR);

  0007c	6a 04		 push	 4
  0007e	8b ce		 mov	 ecx, esi
  00080	8b f8		 mov	 edi, eax
  00082	e8 00 00 00 00	 call	 ?GetPart@CInstanceBase@@QAEKW4EParts@CRaceData@@@Z ; CInstanceBase::GetPart

; 2793 : 	DWORD eWeapon = GetPart(CRaceData::PART_WEAPON);

  00087	6a 01		 push	 1
  00089	8b ce		 mov	 ecx, esi
  0008b	89 45 e0	 mov	 DWORD PTR _eHair$1$[ebp], eax
  0008e	e8 00 00 00 00	 call	 ?GetPart@CInstanceBase@@QAEKW4EParts@CRaceData@@@Z ; CInstanceBase::GetPart

; 2794 : 	float fRot = GetRotation();

  00093	8b ce		 mov	 ecx, esi
  00095	89 45 dc	 mov	 DWORD PTR _eWeapon$1$[ebp], eax
  00098	e8 00 00 00 00	 call	 ?GetRotation@CInstanceBase@@QAEMXZ ; CInstanceBase::GetRotation
  0009d	d9 5d d8	 fstp	 DWORD PTR _fRot$[ebp]

; 2795 : 	float fAdvRot = GetAdvancingRotation();

  000a0	8b ce		 mov	 ecx, esi
  000a2	e8 00 00 00 00	 call	 ?GetAdvancingRotation@CInstanceBase@@QAEMXZ ; CInstanceBase::GetAdvancingRotation

; 2796 : 
; 2797 : 	if (IsWalking())

  000a7	8b ce		 mov	 ecx, esi
  000a9	d9 5d d4	 fstp	 DWORD PTR _fAdvRot$[ebp]
  000ac	e8 00 00 00 00	 call	 ?IsWalking@CInstanceBase@@QAEHXZ ; CInstanceBase::IsWalking
  000b1	85 c0		 test	 eax, eax
  000b3	74 0f		 je	 SHORT $LN3@ChangeArmo

; 2798 : 		EndWalking();

  000b5	51		 push	 ecx
  000b6	8b ce		 mov	 ecx, esi
  000b8	c7 04 24 9a 99
	19 3e		 mov	 DWORD PTR [esp], 1041865114 ; 3e19999aH
  000bf	e8 00 00 00 00	 call	 ?EndWalking@CInstanceBase@@QAEXM@Z ; CInstanceBase::EndWalking
$LN3@ChangeArmo:

; 2799 : 
; 2800 : 	// 2004.07.25.myevan.   
; 2801 : 	//////////////////////////////////////////////////////
; 2802 : 	__ClearAffects();

  000c4	8b ce		 mov	 ecx, esi
  000c6	e8 00 00 00 00	 call	 ?__ClearAffects@CInstanceBase@@QAEXXZ ; CInstanceBase::__ClearAffects

; 2803 : 	//////////////////////////////////////////////////////
; 2804 : 
; 2805 : 	if (!SetRace(dwRace))

  000cb	57		 push	 edi
  000cc	8b ce		 mov	 ecx, esi
  000ce	e8 00 00 00 00	 call	 ?SetRace@CInstanceBase@@QAE_NK@Z ; CInstanceBase::SetRace
  000d3	84 c0		 test	 al, al
  000d5	75 15		 jne	 SHORT $LN4@ChangeArmo

; 2806 : 	{
; 2807 : 		TraceError("CPythonCharacterManager::ChangeArmor - SetRace VID[%d] Race[%d] ERROR", dwVID, dwRace);

  000d7	57		 push	 edi
  000d8	ff 75 e4	 push	 DWORD PTR _dwVID$1$[ebp]
  000db	68 00 00 00 00	 push	 OFFSET ??_C@_0EG@MNIPPABI@CPythonCharacterManager?3?3Change@
  000e0	e8 00 00 00 00	 call	 ?TraceError@@YAXPBDZZ	; TraceError
  000e5	83 c4 0c	 add	 esp, 12			; 0000000cH
  000e8	32 db		 xor	 bl, bl
  000ea	eb 6d		 jmp	 SHORT $LN7@ChangeArmo
$LN4@ChangeArmo:

; 2808 : 		return false;
; 2809 : 	}
; 2810 : 
; 2811 : 	SetArmor(dwArmor);

  000ec	53		 push	 ebx
  000ed	8b ce		 mov	 ecx, esi
  000ef	e8 00 00 00 00	 call	 ?SetArmor@CInstanceBase@@QAEXK@Z ; CInstanceBase::SetArmor

; 2812 : 	SetHair(eHair);

  000f4	ff 75 e0	 push	 DWORD PTR _eHair$1$[ebp]
  000f7	8b ce		 mov	 ecx, esi
  000f9	e8 00 00 00 00	 call	 ?SetHair@CInstanceBase@@QAEXK@Z ; CInstanceBase::SetHair

; 2813 : 	SetWeapon(eWeapon);

  000fe	ff 75 dc	 push	 DWORD PTR _eWeapon$1$[ebp]
  00101	8b ce		 mov	 ecx, esi
  00103	e8 00 00 00 00	 call	 ?SetWeapon@CInstanceBase@@QAE_NK@Z ; CInstanceBase::SetWeapon

; 2814 : 
; 2815 : 	SetRotation(fRot);

  00108	f3 0f 10 45 d8	 movss	 xmm0, DWORD PTR _fRot$[ebp]
  0010d	51		 push	 ecx
  0010e	8b ce		 mov	 ecx, esi
  00110	f3 0f 11 04 24	 movss	 DWORD PTR [esp], xmm0
  00115	e8 00 00 00 00	 call	 ?SetRotation@CInstanceBase@@QAEXM@Z ; CInstanceBase::SetRotation

; 2816 : 	SetAdvancingRotation(fAdvRot);

  0011a	f3 0f 10 45 d4	 movss	 xmm0, DWORD PTR _fAdvRot$[ebp]
  0011f	51		 push	 ecx
  00120	8b ce		 mov	 ecx, esi
  00122	f3 0f 11 04 24	 movss	 DWORD PTR [esp], xmm0
  00127	e8 00 00 00 00	 call	 ?SetAdvancingRotation@CInstanceBase@@QAEXM@Z ; CInstanceBase::SetAdvancingRotation

; 2817 : 
; 2818 : 	__AttachHorseSaddle();

  0012c	8b ce		 mov	 ecx, esi
  0012e	e8 00 00 00 00	 call	 ?__AttachHorseSaddle@CInstanceBase@@IAEXXZ ; CInstanceBase::__AttachHorseSaddle

; 2819 : 
; 2820 : 	RefreshState(CRaceMotionData::NAME_WAIT, TRUE);

  00133	6a 01		 push	 1
  00135	6a 01		 push	 1
  00137	8b ce		 mov	 ecx, esi
  00139	e8 00 00 00 00	 call	 ?RefreshState@CInstanceBase@@IAEXK_N@Z ; CInstanceBase::RefreshState

; 2821 : 
; 2822 : 	// 2004.07.25.myevan.   
; 2823 : 	/////////////////////////////////////////////////
; 2824 : 	SetAffectFlagContainer(kAffectFlagContainer);

  0013e	8d 45 e8	 lea	 eax, DWORD PTR _kAffectFlagContainer$[ebp]
  00141	8b ce		 mov	 ecx, esi
  00143	50		 push	 eax
  00144	e8 00 00 00 00	 call	 ?SetAffectFlagContainer@CInstanceBase@@QAEXABVCAffectFlagContainer@@@Z ; CInstanceBase::SetAffectFlagContainer

; 2825 : 	/////////////////////////////////////////////////
; 2826 : 
; 2827 : 	CActorInstance::IEventHandler& rkEventHandler=GetEventHandlerRef();

  00149	8b ce		 mov	 ecx, esi
  0014b	e8 00 00 00 00	 call	 ?GetEventHandlerRef@CInstanceBase@@IAEAAVIEventHandler@CActorInstance@@XZ ; CInstanceBase::GetEventHandlerRef

; 2828 : 	rkEventHandler.OnChangeShape();

  00150	8b c8		 mov	 ecx, eax
  00152	8b 10		 mov	 edx, DWORD PTR [eax]
  00154	ff 52 34	 call	 DWORD PTR [edx+52]

; 2829 : 
; 2830 : 	return true;

  00157	b3 01		 mov	 bl, 1
$LN7@ChangeArmo:
  00159	8d 4d e8	 lea	 ecx, DWORD PTR _kAffectFlagContainer$[ebp]
  0015c	e8 00 00 00 00	 call	 ??1CAffectFlagContainer@@QAE@XZ ; CAffectFlagContainer::~CAffectFlagContainer
  00161	8a c3		 mov	 al, bl
$LN1@ChangeArmo:

; 2831 : }

  00163	8b 4d f4	 mov	 ecx, DWORD PTR __$EHRec$[ebp]
  00166	64 89 0d 00 00
	00 00		 mov	 DWORD PTR fs:0, ecx
  0016d	59		 pop	 ecx
  0016e	5f		 pop	 edi
  0016f	5e		 pop	 esi
  00170	5b		 pop	 ebx
  00171	8b 4d f0	 mov	 ecx, DWORD PTR __$ArrayPad$[ebp]
  00174	33 cd		 xor	 ecx, ebp
  00176	e8 00 00 00 00	 call	 @__security_check_cookie@4
  0017b	8b e5		 mov	 esp, ebp
  0017d	5d		 pop	 ebp
  0017e	c2 04 00	 ret	 4
_TEXT	ENDS
;	COMDAT text$x
text$x	SEGMENT
__unwindfunclet$?ChangeArmor@CInstanceBase@@QAE_NK@Z$0:
  00000	8d 4d e8	 lea	 ecx, DWORD PTR _kAffectFlagContainer$[ebp]
  00003	e9 00 00 00 00	 jmp	 ??1CAffectFlagContainer@@QAE@XZ ; CAffectFlagContainer::~CAffectFlagContainer
  00008	cc		 int	 3
  00009	cc		 int	 3
  0000a	cc		 int	 3
  0000b	cc		 int	 3
  0000c	cc		 int	 3
__ehhandler$?ChangeArmor@CInstanceBase@@QAE_NK@Z:
  0000d	90		 npad	 1
  0000e	90		 npad	 1
  0000f	8b 54 24 08	 mov	 edx, DWORD PTR [esp+8]
  00013	8d 42 0c	 lea	 eax, DWORD PTR [edx+12]
  00016	8b 4a d0	 mov	 ecx, DWORD PTR [edx-48]
  00019	33 c8		 xor	 ecx, eax
  0001b	e8 00 00 00 00	 call	 @__security_check_cookie@4
  00020	8b 4a fc	 mov	 ecx, DWORD PTR [edx-4]
  00023	33 c8		 xor	 ecx, eax
  00025	e8 00 00 00 00	 call	 @__security_check_cookie@4
  0002a	b8 00 00 00 00	 mov	 eax, OFFSET __ehfuncinfo$?ChangeArmor@CInstanceBase@@QAE_NK@Z
  0002f	e9 00 00 00 00	 jmp	 ___CxxFrameHandler3
text$x	ENDS
?ChangeArmor@CInstanceBase@@QAE_NK@Z ENDP		; CInstanceBase::ChangeArmor
; Function compile flags: /Ogtp
; File D:\Metin2 Server Files\mainline\SRC_2014\Metin2Client\UserInterface\InstanceBase.cpp
;	COMDAT ?SetWeapon@CInstanceBase@@QAE_NK@Z
_TEXT	SEGMENT
_pItemData$ = -4					; size = 4
_eWeapon$ = 8						; size = 4
?SetWeapon@CInstanceBase@@QAE_NK@Z PROC			; CInstanceBase::SetWeapon, COMDAT
; _this$ = ecx

; 2747 : {

  00000	55		 push	 ebp
  00001	8b ec		 mov	 ebp, esp
  00003	51		 push	 ecx
  00004	53		 push	 ebx
  00005	8b d9		 mov	 ebx, ecx

; 2748 : 	if (IsPoly())

  00007	e8 00 00 00 00	 call	 ?IsPoly@CInstanceBase@@QAEHXZ ; CInstanceBase::IsPoly
  0000c	85 c0		 test	 eax, eax
  0000e	75 66		 jne	 SHORT $LN8@SetWeapon

; 2749 : 		return false;
; 2750 : 	
; 2751 : 	if (__IsShapeAnimalWear())

  00010	8b cb		 mov	 ecx, ebx
  00012	e8 00 00 00 00	 call	 ?__IsShapeAnimalWear@CInstanceBase@@IAE_NXZ ; CInstanceBase::__IsShapeAnimalWear
  00017	84 c0		 test	 al, al
  00019	75 5b		 jne	 SHORT $LN8@SetWeapon

; 2753 : 	
; 2754 : 	if (__IsChangableWeapon(eWeapon) == false)

  0001b	57		 push	 edi
  0001c	ff 75 08	 push	 DWORD PTR _eWeapon$[ebp]
  0001f	8b cb		 mov	 ecx, ebx
  00021	e8 00 00 00 00	 call	 ?__IsChangableWeapon@CInstanceBase@@IAEHH@Z ; CInstanceBase::__IsChangableWeapon

; 2755 : 		eWeapon = 0;
; 2756 : 
; 2757 : 	m_GraphicThingInstance.AttachWeapon(eWeapon);

  00026	f7 d8		 neg	 eax
  00028	8d 8b d4 01 00
	00		 lea	 ecx, DWORD PTR [ebx+468]
  0002e	6a 01		 push	 1
  00030	1b ff		 sbb	 edi, edi
  00032	23 7d 08	 and	 edi, DWORD PTR _eWeapon$[ebp]
  00035	6a 00		 push	 0
  00037	57		 push	 edi
  00038	e8 00 00 00 00	 call	 ?AttachWeapon@CActorInstance@@QAEXKKK@Z ; CActorInstance::AttachWeapon

; 2758 : 	m_awPart[CRaceData::PART_WEAPON] = eWeapon;
; 2759 : 	
; 2760 : 	//Weapon Effect
; 2761 : 	CItemData * pItemData;
; 2762 : 	if (CItemManager::Instance().GetItemDataPointer(eWeapon, &pItemData))

  0003d	8d 45 fc	 lea	 eax, DWORD PTR _pItemData$[ebp]
  00040	89 7b 2c	 mov	 DWORD PTR [ebx+44], edi
  00043	8b 0d 00 00 00
	00		 mov	 ecx, DWORD PTR ?ms_singleton@?$CSingleton@VCItemManager@@@@0PAVCItemManager@@A ; CSingleton<CItemManager>::ms_singleton
  00049	50		 push	 eax
  0004a	57		 push	 edi
  0004b	e8 00 00 00 00	 call	 ?GetItemDataPointer@CItemManager@@QAEHKPAPAVCItemData@@@Z ; CItemManager::GetItemDataPointer
  00050	8b cb		 mov	 ecx, ebx
  00052	5f		 pop	 edi
  00053	85 c0		 test	 eax, eax
  00055	74 11		 je	 SHORT $LN5@SetWeapon

; 2763 : 		__GetRefinedEffect(pItemData);

  00057	ff 75 fc	 push	 DWORD PTR _pItemData$[ebp]
  0005a	e8 00 00 00 00	 call	 ?__GetRefinedEffect@CInstanceBase@@IAEIPAVCItemData@@@Z ; CInstanceBase::__GetRefinedEffect

; 2766 : 
; 2767 : 	return true;

  0005f	b0 01		 mov	 al, 1
  00061	5b		 pop	 ebx

; 2768 : }

  00062	8b e5		 mov	 esp, ebp
  00064	5d		 pop	 ebp
  00065	c2 04 00	 ret	 4
$LN5@SetWeapon:

; 2764 : 	else
; 2765 : 		__ClearWeaponRefineEffect();

  00068	e8 00 00 00 00	 call	 ?__ClearWeaponRefineEffect@CInstanceBase@@IAEXXZ ; CInstanceBase::__ClearWeaponRefineEffect

; 2766 : 
; 2767 : 	return true;

  0006d	b0 01		 mov	 al, 1
  0006f	5b		 pop	 ebx

; 2768 : }

  00070	8b e5		 mov	 esp, ebp
  00072	5d		 pop	 ebp
  00073	c2 04 00	 ret	 4
$LN8@SetWeapon:

; 2752 : 		return false;

  00076	32 c0		 xor	 al, al
  00078	5b		 pop	 ebx

; 2768 : }

  00079	8b e5		 mov	 esp, ebp
  0007b	5d		 pop	 ebp
  0007c	c2 04 00	 ret	 4
?SetWeapon@CInstanceBase@@QAE_NK@Z ENDP			; CInstanceBase::SetWeapon
_TEXT	ENDS
; Function compile flags: /Ogtp
; File D:\Metin2 Server Files\mainline\SRC_2014\Metin2Client\UserInterface\InstanceBase.cpp
;	COMDAT ?SetHair@CInstanceBase@@QAEXK@Z
_TEXT	SEGMENT
_eHair$ = 8						; size = 4
?SetHair@CInstanceBase@@QAEXK@Z PROC			; CInstanceBase::SetHair, COMDAT
; _this$ = ecx

; 2563 : {

  00000	55		 push	 ebp
  00001	8b ec		 mov	 ebp, esp

; 2564 : 	if (!HAIR_COLOR_ENABLE)

  00003	83 3d 00 00 00
	00 00		 cmp	 DWORD PTR ?HAIR_COLOR_ENABLE@@3HA, 0 ; HAIR_COLOR_ENABLE
  0000a	56		 push	 esi
  0000b	8b f1		 mov	 esi, ecx
  0000d	74 1b		 je	 SHORT $LN1@SetHair

; 2565 : 		return;
; 2566 : 
; 2567 : 	if (IsPC()==false)

  0000f	e8 00 00 00 00	 call	 ?IsPC@CInstanceBase@@QAEHXZ ; CInstanceBase::IsPC
  00014	85 c0		 test	 eax, eax
  00016	74 12		 je	 SHORT $LN1@SetHair

; 2568 : 		return;
; 2569 : 	m_awPart[CRaceData::PART_HAIR] = eHair;

  00018	8b 45 08	 mov	 eax, DWORD PTR _eHair$[ebp]

; 2570 : 	m_GraphicThingInstance.SetHair(eHair);

  0001b	8d 8e d4 01 00
	00		 lea	 ecx, DWORD PTR [esi+468]
  00021	50		 push	 eax
  00022	89 46 38	 mov	 DWORD PTR [esi+56], eax
  00025	e8 00 00 00 00	 call	 ?SetHair@CActorInstance@@QAEXK@Z ; CActorInstance::SetHair
$LN1@SetHair:
  0002a	5e		 pop	 esi

; 2571 : }

  0002b	5d		 pop	 ebp
  0002c	c2 04 00	 ret	 4
?SetHair@CInstanceBase@@QAEXK@Z ENDP			; CInstanceBase::SetHair
_TEXT	ENDS
; Function compile flags: /Ogtp
; File D:\Metin2 Server Files\mainline\SRC_2014\Metin2Client\UserInterface\InstanceBase.cpp
;	COMDAT ?SetShape@CInstanceBase@@QAEXKM@Z
_TEXT	SEGMENT
_eShape$ = 8						; size = 4
_fSpecular$ = 12					; size = 4
?SetShape@CInstanceBase@@QAEXKM@Z PROC			; CInstanceBase::SetShape, COMDAT
; _this$ = ecx

; 2613 : {

  00000	55		 push	 ebp
  00001	8b ec		 mov	 ebp, esp
  00003	53		 push	 ebx
  00004	56		 push	 esi
  00005	57		 push	 edi
  00006	8b f1		 mov	 esi, ecx

; 2614 : 	if (IsPoly())

  00008	e8 00 00 00 00	 call	 ?IsPoly@CInstanceBase@@QAEHXZ ; CInstanceBase::IsPoly
  0000d	8b 7d 08	 mov	 edi, DWORD PTR _eShape$[ebp]
  00010	85 c0		 test	 eax, eax
  00012	74 07		 je	 SHORT $LN2@SetShape

; 2615 : 	{
; 2616 : 		m_GraphicThingInstance.SetShape(0);	

  00014	33 c0		 xor	 eax, eax
  00016	0f 57 c0	 xorps	 xmm0, xmm0

; 2617 : 	}

  00019	eb 07		 jmp	 SHORT $LN3@SetShape
$LN2@SetShape:

; 2618 : 	else
; 2619 : 	{
; 2620 : 		m_GraphicThingInstance.SetShape(eShape, fSpecular);		

  0001b	f3 0f 10 45 0c	 movss	 xmm0, DWORD PTR _fSpecular$[ebp]
  00020	8b c7		 mov	 eax, edi
$LN3@SetShape:

; 2621 : 	}
; 2622 : 
; 2623 : 	m_eShape = eShape;

  00022	51		 push	 ecx
  00023	f3 0f 11 04 24	 movss	 DWORD PTR [esp], xmm0
  00028	8d 8e d4 01 00
	00		 lea	 ecx, DWORD PTR [esi+468]
  0002e	50		 push	 eax
  0002f	e8 00 00 00 00	 call	 ?SetShape@CActorInstance@@QAEXKM@Z ; CActorInstance::SetShape
  00034	89 be 60 01 00
	00		 mov	 DWORD PTR [esi+352], edi
  0003a	5f		 pop	 edi
  0003b	5e		 pop	 esi
  0003c	5b		 pop	 ebx

; 2624 : }

  0003d	5d		 pop	 ebp
  0003e	c2 08 00	 ret	 8
?SetShape@CInstanceBase@@QAEXKM@Z ENDP			; CInstanceBase::SetShape
_TEXT	ENDS
; Function compile flags: /Ogtp
; File D:\Metin2 Server Files\mainline\SRC_2014\Metin2Client\UserInterface\InstanceBase.cpp
;	COMDAT ?SetArmor@CInstanceBase@@QAEXK@Z
_TEXT	SEGMENT
_dwShape$ = -8						; size = 4
_fSpecularPower$1 = -4					; size = 4
_pItemData$2 = 8					; size = 4
_dwArmor$ = 8						; size = 4
?SetArmor@CInstanceBase@@QAEXK@Z PROC			; CInstanceBase::SetArmor, COMDAT
; _this$ = ecx

; 2593 : {

  00000	55		 push	 ebp
  00001	8b ec		 mov	 ebp, esp
  00003	83 ec 08	 sub	 esp, 8

; 2594 : 	DWORD dwShape;
; 2595 : 	if (__ArmorVnumToShape(dwArmor, &dwShape))

  00006	8d 45 f8	 lea	 eax, DWORD PTR _dwShape$[ebp]
  00009	56		 push	 esi
  0000a	8b 75 08	 mov	 esi, DWORD PTR _dwArmor$[ebp]
  0000d	57		 push	 edi
  0000e	50		 push	 eax
  0000f	56		 push	 esi
  00010	8b f9		 mov	 edi, ecx
  00012	e8 00 00 00 00	 call	 ?__ArmorVnumToShape@@YA_NHPAK@Z ; __ArmorVnumToShape
  00017	83 c4 08	 add	 esp, 8
  0001a	84 c0		 test	 al, al
  0001c	74 4d		 je	 SHORT $LN4@SetArmor

; 2596 : 	{
; 2597 : 		CItemData * pItemData;
; 2598 : 		if (CItemManager::Instance().GetItemDataPointer(dwArmor, &pItemData))

  0001e	8b 0d 00 00 00
	00		 mov	 ecx, DWORD PTR ?ms_singleton@?$CSingleton@VCItemManager@@@@0PAVCItemManager@@A ; CSingleton<CItemManager>::ms_singleton
  00024	8d 45 08	 lea	 eax, DWORD PTR _pItemData$2[ebp]
  00027	50		 push	 eax
  00028	56		 push	 esi
  00029	e8 00 00 00 00	 call	 ?GetItemDataPointer@CItemManager@@QAEHKPAPAVCItemData@@@Z ; CItemManager::GetItemDataPointer
  0002e	85 c0		 test	 eax, eax
  00030	74 32		 je	 SHORT $LN3@SetArmor

; 2599 : 		{
; 2600 : 			float fSpecularPower=pItemData->GetSpecularPowerf();

  00032	8b 4d 08	 mov	 ecx, DWORD PTR _pItemData$2[ebp]
  00035	e8 00 00 00 00	 call	 ?GetSpecularPowerf@CItemData@@QBEMXZ ; CItemData::GetSpecularPowerf

; 2601 : 			SetShape(dwShape, fSpecularPower);

  0003a	51		 push	 ecx
  0003b	d9 5d fc	 fstp	 DWORD PTR _fSpecularPower$1[ebp]
  0003e	f3 0f 10 45 fc	 movss	 xmm0, DWORD PTR _fSpecularPower$1[ebp]
  00043	8b cf		 mov	 ecx, edi
  00045	f3 0f 11 04 24	 movss	 DWORD PTR [esp], xmm0
  0004a	ff 75 f8	 push	 DWORD PTR _dwShape$[ebp]
  0004d	e8 00 00 00 00	 call	 ?SetShape@CInstanceBase@@QAEXKM@Z ; CInstanceBase::SetShape

; 2602 : 			__GetRefinedEffect(pItemData);

  00052	ff 75 08	 push	 DWORD PTR _pItemData$2[ebp]
  00055	8b cf		 mov	 ecx, edi
  00057	e8 00 00 00 00	 call	 ?__GetRefinedEffect@CInstanceBase@@IAEIPAVCItemData@@@Z ; CInstanceBase::__GetRefinedEffect
  0005c	5f		 pop	 edi

; 2610 : }

  0005d	5e		 pop	 esi
  0005e	8b e5		 mov	 esp, ebp
  00060	5d		 pop	 ebp
  00061	c2 04 00	 ret	 4
$LN3@SetArmor:

; 2603 : 			return;
; 2604 : 		}
; 2605 : 		else
; 2606 : 			__ClearArmorRefineEffect();

  00064	8b cf		 mov	 ecx, edi
  00066	e8 00 00 00 00	 call	 ?__ClearArmorRefineEffect@CInstanceBase@@IAEXXZ ; CInstanceBase::__ClearArmorRefineEffect
$LN4@SetArmor:

; 2607 : 	}
; 2608 : 
; 2609 : 	SetShape(dwArmor);

  0006b	51		 push	 ecx
  0006c	c7 04 24 00 00
	00 00		 mov	 DWORD PTR [esp], 0
  00073	8b cf		 mov	 ecx, edi
  00075	56		 push	 esi
  00076	e8 00 00 00 00	 call	 ?SetShape@CInstanceBase@@QAEXKM@Z ; CInstanceBase::SetShape
  0007b	5f		 pop	 edi

; 2610 : }

  0007c	5e		 pop	 esi
  0007d	8b e5		 mov	 esp, ebp
  0007f	5d		 pop	 ebp
  00080	c2 04 00	 ret	 4
?SetArmor@CInstanceBase@@QAEXK@Z ENDP			; CInstanceBase::SetArmor
_TEXT	ENDS
; Function compile flags: /Ogtp
; File D:\Metin2 Server Files\mainline\SRC_2014\Metin2Client\UserInterface\InstanceBase.cpp
;	COMDAT ?SetStateFlags@CInstanceBase@@QAEXK@Z
_TEXT	SEGMENT
_dwStateFlags$ = 8					; size = 4
?SetStateFlags@CInstanceBase@@QAEXK@Z PROC		; CInstanceBase::SetStateFlags, COMDAT
; _this$ = ecx

; 2087 : {

  00000	55		 push	 ebp
  00001	8b ec		 mov	 ebp, esp
  00003	53		 push	 ebx

; 2088 : 	if (dwStateFlags & ADD_CHARACTER_STATE_KILLER)

  00004	8b 5d 08	 mov	 ebx, DWORD PTR _dwStateFlags$[ebp]
  00007	8b c3		 mov	 eax, ebx
  00009	c1 e8 03	 shr	 eax, 3
  0000c	24 01		 and	 al, 1
  0000e	56		 push	 esi

; 2089 : 		SetKiller(TRUE);
; 2090 : 	else
; 2091 : 		SetKiller(FALSE);
; 2092 : 
; 2093 : 	if (dwStateFlags & ADD_CHARACTER_STATE_PARTY)

  0000f	0f b6 c0	 movzx	 eax, al
  00012	8b f1		 mov	 esi, ecx
  00014	50		 push	 eax
  00015	e8 00 00 00 00	 call	 ?SetKiller@CInstanceBase@@QAEX_N@Z ; CInstanceBase::SetKiller
  0001a	c1 eb 04	 shr	 ebx, 4

; 2094 : 		SetPartyMemberFlag(TRUE);
; 2095 : 	else
; 2096 : 		SetPartyMemberFlag(FALSE);
; 2097 : }

  0001d	8b ce		 mov	 ecx, esi
  0001f	80 e3 01	 and	 bl, 1
  00022	0f b6 c3	 movzx	 eax, bl
  00025	50		 push	 eax
  00026	e8 00 00 00 00	 call	 ?SetPartyMemberFlag@CInstanceBase@@QAEX_N@Z ; CInstanceBase::SetPartyMemberFlag
  0002b	5e		 pop	 esi
  0002c	5b		 pop	 ebx
  0002d	5d		 pop	 ebp
  0002e	c2 04 00	 ret	 4
?SetStateFlags@CInstanceBase@@QAEXK@Z ENDP		; CInstanceBase::SetStateFlags
_TEXT	ENDS
; Function compile flags: /Ogtp
; File D:\Metin2 Server Files\mainline\SRC_2014\Metin2Client\UserInterface\InstanceBase.cpp
;	COMDAT ?SetPartyMemberFlag@CInstanceBase@@QAEX_N@Z
_TEXT	SEGMENT
_bFlag$ = 8						; size = 1
?SetPartyMemberFlag@CInstanceBase@@QAEX_N@Z PROC	; CInstanceBase::SetPartyMemberFlag, COMDAT
; _this$ = ecx

; 2082 : {

  00000	55		 push	 ebp
  00001	8b ec		 mov	 ebp, esp

; 2083 : 	m_isPartyMember = bFlag;

  00003	8a 45 08	 mov	 al, BYTE PTR _bFlag$[ebp]
  00006	88 81 70 01 00
	00		 mov	 BYTE PTR [ecx+368], al

; 2084 : }

  0000c	5d		 pop	 ebp
  0000d	c2 04 00	 ret	 4
?SetPartyMemberFlag@CInstanceBase@@QAEX_N@Z ENDP	; CInstanceBase::SetPartyMemberFlag
_TEXT	ENDS
; Function compile flags: /Ogtp
; File D:\Metin2 Server Files\mainline\SRC_2014\Metin2Client\UserInterface\InstanceBase.cpp
;	COMDAT ?SetKiller@CInstanceBase@@QAEX_N@Z
_TEXT	SEGMENT
_bFlag$ = 8						; size = 1
?SetKiller@CInstanceBase@@QAEX_N@Z PROC			; CInstanceBase::SetKiller, COMDAT
; _this$ = ecx

; 2073 : {

  00000	55		 push	 ebp
  00001	8b ec		 mov	 ebp, esp

; 2074 : 	if (m_isKiller == bFlag)

  00003	8a 45 08	 mov	 al, BYTE PTR _bFlag$[ebp]
  00006	38 81 6f 01 00
	00		 cmp	 BYTE PTR [ecx+367], al
  0000c	74 0b		 je	 SHORT $LN1@SetKiller

; 2075 : 		return;
; 2076 : 
; 2077 : 	m_isKiller = bFlag;

  0000e	88 81 6f 01 00
	00		 mov	 BYTE PTR [ecx+367], al

; 2078 : 	RefreshTextTail();

  00014	e8 00 00 00 00	 call	 ?RefreshTextTail@CInstanceBase@@QAEXXZ ; CInstanceBase::RefreshTextTail
$LN1@SetKiller:

; 2079 : }

  00019	5d		 pop	 ebp
  0001a	c2 04 00	 ret	 4
?SetKiller@CInstanceBase@@QAEX_N@Z ENDP			; CInstanceBase::SetKiller
_TEXT	ENDS
; Function compile flags: /Ogtp
; File D:\Metin2 Server Files\mainline\SRC_2014\Metin2Client\UserInterface\InstanceBase.cpp
;	COMDAT ?SetPKMode@CInstanceBase@@QAEXE@Z
_TEXT	SEGMENT
_byPKMode$ = 8						; size = 1
?SetPKMode@CInstanceBase@@QAEXE@Z PROC			; CInstanceBase::SetPKMode, COMDAT
; _this$ = ecx

; 2059 : {

  00000	55		 push	 ebp
  00001	8b ec		 mov	 ebp, esp

; 2060 : 	if (m_byPKMode == byPKMode)

  00003	8a 45 08	 mov	 al, BYTE PTR _byPKMode$[ebp]
  00006	38 81 6e 01 00
	00		 cmp	 BYTE PTR [ecx+366], al
  0000c	74 1a		 je	 SHORT $LN3@SetPKMode

; 2061 : 		return;
; 2062 : 
; 2063 : 	m_byPKMode = byPKMode;

  0000e	88 81 6e 01 00
	00		 mov	 BYTE PTR [ecx+366], al

; 2064 : 
; 2065 : 	if (__IsMainInstance())

  00014	e8 00 00 00 00	 call	 ?__IsMainInstance@CInstanceBase@@IAE_NXZ ; CInstanceBase::__IsMainInstance
  00019	84 c0		 test	 al, al
  0001b	74 0b		 je	 SHORT $LN3@SetPKMode

; 2066 : 	{
; 2067 : 		IAbstractPlayer& rPlayer=IAbstractPlayer::GetSingleton();

  0001d	8b 0d 00 00 00
	00		 mov	 ecx, DWORD PTR ?ms_singleton@?$TAbstractSingleton@VIAbstractPlayer@@@@0PAVIAbstractPlayer@@A ; TAbstractSingleton<IAbstractPlayer>::ms_singleton

; 2068 : 		rPlayer.NotifyChangePKMode();

  00023	8b 01		 mov	 eax, DWORD PTR [ecx]
  00025	ff 50 70	 call	 DWORD PTR [eax+112]
$LN3@SetPKMode:

; 2069 : 	}	
; 2070 : }

  00028	5d		 pop	 ebp
  00029	c2 04 00	 ret	 4
?SetPKMode@CInstanceBase@@QAEXE@Z ENDP			; CInstanceBase::SetPKMode
_TEXT	ENDS
; Function compile flags: /Ogtp
; File D:\Metin2 Server Files\mainline\SRC_2014\Metin2Client\UserInterface\InstanceBase.cpp
;	COMDAT ?SetAlignment@CInstanceBase@@QAEXF@Z
_TEXT	SEGMENT
_sAlignment$ = 8					; size = 2
?SetAlignment@CInstanceBase@@QAEXF@Z PROC		; CInstanceBase::SetAlignment, COMDAT
; _this$ = ecx

; 2053 : {

  00000	55		 push	 ebp
  00001	8b ec		 mov	 ebp, esp

; 2054 : 	m_sAlignment = sAlignment;

  00003	66 8b 45 08	 mov	 ax, WORD PTR _sAlignment$[ebp]
  00007	66 89 81 6c 01
	00 00		 mov	 WORD PTR [ecx+364], ax

; 2055 : 	RefreshTextTailTitle();

  0000e	e8 00 00 00 00	 call	 ?RefreshTextTailTitle@CInstanceBase@@QAEXXZ ; CInstanceBase::RefreshTextTailTitle

; 2056 : }

  00013	5d		 pop	 ebp
  00014	c2 04 00	 ret	 4
?SetAlignment@CInstanceBase@@QAEXF@Z ENDP		; CInstanceBase::SetAlignment
_TEXT	ENDS
; Function compile flags: /Ogtp
; File D:\Metin2 Server Files\mainline\SRC_2014\Metin2Client\UserInterface\InstanceBase.cpp
;	COMDAT ?SetInstanceType@CInstanceBase@@QAEXH@Z
_TEXT	SEGMENT
_iInstanceType$ = 8					; size = 4
?SetInstanceType@CInstanceBase@@QAEXH@Z PROC		; CInstanceBase::SetInstanceType, COMDAT
; _this$ = ecx

; 2048 : {

  00000	55		 push	 ebp
  00001	8b ec		 mov	 ebp, esp

; 2049 : 	m_GraphicThingInstance.SetActorType(iInstanceType);

  00003	81 c1 d4 01 00
	00		 add	 ecx, 468		; 000001d4H

; 2050 : }

  00009	5d		 pop	 ebp

; 2049 : 	m_GraphicThingInstance.SetActorType(iInstanceType);

  0000a	e9 00 00 00 00	 jmp	 ?SetActorType@CActorInstance@@QAEXI@Z ; CActorInstance::SetActorType
?SetInstanceType@CInstanceBase@@QAEXH@Z ENDP		; CInstanceBase::SetInstanceType
_TEXT	ENDS
; Function compile flags: /Ogtp
; File D:\Metin2 Server Files\mainline\SRC_2014\Metin2Client\UserInterface\InstanceBase.cpp
;	COMDAT ?SetVirtualNumber@CInstanceBase@@QAEXK@Z
_TEXT	SEGMENT
_dwVirtualNumber$ = 8					; size = 4
?SetVirtualNumber@CInstanceBase@@QAEXK@Z PROC		; CInstanceBase::SetVirtualNumber, COMDAT
; _this$ = ecx

; 2043 : {

  00000	55		 push	 ebp
  00001	8b ec		 mov	 ebp, esp

; 2044 : 	m_dwVirtualNumber = dwVirtualNumber;

  00003	8b 45 08	 mov	 eax, DWORD PTR _dwVirtualNumber$[ebp]
  00006	89 81 68 01 00
	00		 mov	 DWORD PTR [ecx+360], eax

; 2045 : }

  0000c	5d		 pop	 ebp
  0000d	c2 04 00	 ret	 4
?SetVirtualNumber@CInstanceBase@@QAEXK@Z ENDP		; CInstanceBase::SetVirtualNumber
_TEXT	ENDS
; Function compile flags: /Ogtp
; File D:\Metin2 Server Files\mainline\SRC_2014\Metin2Client\UserInterface\InstanceBase.cpp
;	COMDAT ?SetVirtualID@CInstanceBase@@QAEXK@Z
_TEXT	SEGMENT
_dwVirtualID$ = 8					; size = 4
?SetVirtualID@CInstanceBase@@QAEXK@Z PROC		; CInstanceBase::SetVirtualID, COMDAT
; _this$ = ecx

; 2038 : {

  00000	55		 push	 ebp
  00001	8b ec		 mov	 ebp, esp

; 2039 : 	m_GraphicThingInstance.SetVirtualID(dwVirtualID);		

  00003	81 c1 d4 01 00
	00		 add	 ecx, 468		; 000001d4H

; 2040 : }

  00009	5d		 pop	 ebp

; 2039 : 	m_GraphicThingInstance.SetVirtualID(dwVirtualID);		

  0000a	e9 00 00 00 00	 jmp	 ?SetVirtualID@CActorInstance@@QAEXK@Z ; CActorInstance::SetVirtualID
?SetVirtualID@CInstanceBase@@QAEXK@Z ENDP		; CInstanceBase::SetVirtualID
_TEXT	ENDS
; Function compile flags: /Ogtp
; File D:\Metin2 Server Files\mainline\SRC_2014\Metin2Client\UserInterface\InstanceBase.cpp
;	COMDAT ?SetRace@CInstanceBase@@QAE_NK@Z
_TEXT	SEGMENT
_eRace$ = 8						; size = 4
?SetRace@CInstanceBase@@QAE_NK@Z PROC			; CInstanceBase::SetRace, COMDAT
; _this$ = ecx

; 888  : {

  00000	55		 push	 ebp
  00001	8b ec		 mov	 ebp, esp

; 889  : 	m_dwRace = eRace;

  00003	8b 45 08	 mov	 eax, DWORD PTR _eRace$[ebp]
  00006	56		 push	 esi
  00007	8b f1		 mov	 esi, ecx

; 890  : 
; 891  : 	if (!m_GraphicThingInstance.SetRace(eRace))

  00009	50		 push	 eax
  0000a	8d 8e d4 01 00
	00		 lea	 ecx, DWORD PTR [esi+468]
  00010	89 86 64 01 00
	00		 mov	 DWORD PTR [esi+356], eax
  00016	e8 00 00 00 00	 call	 ?SetRace@CActorInstance@@QAE_NK@Z ; CActorInstance::SetRace
  0001b	84 c0		 test	 al, al
  0001d	75 05		 jne	 SHORT $LN2@SetRace
  0001f	5e		 pop	 esi

; 898  : }

  00020	5d		 pop	 ebp
  00021	c2 04 00	 ret	 4
$LN2@SetRace:
  00024	57		 push	 edi

; 892  : 		return false;
; 893  : 
; 894  : 	if (!__FindRaceType(m_dwRace, &m_eRaceType))

  00025	8d be 5d 01 00
	00		 lea	 edi, DWORD PTR [esi+349]
  0002b	8b ce		 mov	 ecx, esi
  0002d	57		 push	 edi
  0002e	ff b6 64 01 00
	00		 push	 DWORD PTR [esi+356]
  00034	e8 00 00 00 00	 call	 ?__FindRaceType@CInstanceBase@@IAE_NKPAE@Z ; CInstanceBase::__FindRaceType
  00039	84 c0		 test	 al, al
  0003b	75 03		 jne	 SHORT $LN3@SetRace

; 895  : 		m_eRaceType=CActorInstance::TYPE_PC;

  0003d	c6 07 06	 mov	 BYTE PTR [edi], 6
$LN3@SetRace:

; 896  : 
; 897  : 	return true;

  00040	5f		 pop	 edi
  00041	b0 01		 mov	 al, 1
  00043	5e		 pop	 esi

; 898  : }

  00044	5d		 pop	 ebp
  00045	c2 04 00	 ret	 4
?SetRace@CInstanceBase@@QAE_NK@Z ENDP			; CInstanceBase::SetRace
_TEXT	ENDS
; Function compile flags: /Ogtp
; File D:\Metin2 Server Files\mainline\SRC_2014\Metin2Client\UserInterface\InstanceBase.cpp
;	COMDAT ?SetNameString@CInstanceBase@@QAEXPBDH@Z
_TEXT	SEGMENT
_c_szName$ = 8						; size = 4
_len$ = 12						; size = 4
?SetNameString@CInstanceBase@@QAEXPBDH@Z PROC		; CInstanceBase::SetNameString, COMDAT
; _this$ = ecx

; 882  : {

  00000	55		 push	 ebp
  00001	8b ec		 mov	 ebp, esp

; 883  : 	m_stName.assign(c_szName, len);

  00003	83 c1 10	 add	 ecx, 16			; 00000010H

; 884  : }

  00006	5d		 pop	 ebp

; 883  : 	m_stName.assign(c_szName, len);

  00007	e9 00 00 00 00	 jmp	 ?assign@?$basic_string@DU?$char_traits@D@std@@V?$allocator@D@2@@std@@QAEAAV12@QBDI@Z ; std::basic_string<char,std::char_traits<char>,std::allocator<char> >::assign
?SetNameString@CInstanceBase@@QAEXPBDH@Z ENDP		; CInstanceBase::SetNameString
_TEXT	ENDS
; Function compile flags: /Ogtp
; File D:\Metin2 Server Files\mainline\SRC_2014\Metin2Client\UserInterface\InstanceBase.cpp
;	COMDAT ?GetBoundBox@CInstanceBase@@QAEXPAUD3DXVECTOR3@@0@Z
_TEXT	SEGMENT
_vtMin$ = 8						; size = 4
_vtMax$ = 12						; size = 4
?GetBoundBox@CInstanceBase@@QAEXPAUD3DXVECTOR3@@0@Z PROC ; CInstanceBase::GetBoundBox, COMDAT
; _this$ = ecx

; 3111 : {

  00000	55		 push	 ebp
  00001	8b ec		 mov	 ebp, esp

; 3112 : 	m_GraphicThingInstance.GetBoundBox(vtMin, vtMax);

  00003	81 c1 d4 01 00
	00		 add	 ecx, 468		; 000001d4H

; 3113 : }

  00009	5d		 pop	 ebp

; 3112 : 	m_GraphicThingInstance.GetBoundBox(vtMin, vtMax);

  0000a	e9 00 00 00 00	 jmp	 ?GetBoundBox@CGraphicThingInstance@@QAEXPAUD3DXVECTOR3@@0@Z ; CGraphicThingInstance::GetBoundBox
?GetBoundBox@CInstanceBase@@QAEXPAUD3DXVECTOR3@@0@Z ENDP ; CInstanceBase::GetBoundBox
_TEXT	ENDS
; Function compile flags: /Ogtp
; File D:\Metin2 Server Files\mainline\SRC_2014\Metin2Client\UserInterface\InstanceBase.cpp
;	COMDAT ?RegisterBoundingSphere@CInstanceBase@@QAEXXZ
_TEXT	SEGMENT
?RegisterBoundingSphere@CInstanceBase@@QAEXXZ PROC	; CInstanceBase::RegisterBoundingSphere, COMDAT
; _this$ = ecx

; 2976 : {

  00000	56		 push	 esi

; 2977 : 	// Stone   DeforomNoSkin  
; 2978 : 	//     
; 2979 : 	//        .
; 2980 : 	if (!IsStone())

  00001	8d b1 d4 01 00
	00		 lea	 esi, DWORD PTR [ecx+468]
  00007	e8 00 00 00 00	 call	 ?IsStone@CInstanceBase@@QAEHXZ ; CInstanceBase::IsStone
  0000c	85 c0		 test	 eax, eax
  0000e	75 07		 jne	 SHORT $LN4@RegisterBo

; 2981 : 	{
; 2982 : 		m_GraphicThingInstance.DeformNoSkin();

  00010	8b ce		 mov	 ecx, esi
  00012	e8 00 00 00 00	 call	 ?DeformNoSkin@CGraphicThingInstance@@QAEXXZ ; CGraphicThingInstance::DeformNoSkin
$LN4@RegisterBo:

; 2983 : 	}
; 2984 : 
; 2985 : 	m_GraphicThingInstance.RegisterBoundingSphere();

  00017	8b ce		 mov	 ecx, esi
  00019	5e		 pop	 esi
  0001a	e9 00 00 00 00	 jmp	 ?RegisterBoundingSphere@CGraphicObjectInstance@@QAEXXZ ; CGraphicObjectInstance::RegisterBoundingSphere
?RegisterBoundingSphere@CInstanceBase@@QAEXXZ ENDP	; CInstanceBase::RegisterBoundingSphere
_TEXT	ENDS
; Function compile flags: /Ogtp
; File D:\Metin2 Server Files\mainline\SRC_2014\Metin2Client\UserInterface\InstanceBase.cpp
;	COMDAT ?RenderCollision@CInstanceBase@@QAEXXZ
_TEXT	SEGMENT
?RenderCollision@CInstanceBase@@QAEXXZ PROC		; CInstanceBase::RenderCollision, COMDAT
; _this$ = ecx

; 2031 : 	m_GraphicThingInstance.RenderCollisionData();

  00000	81 c1 d4 01 00
	00		 add	 ecx, 468		; 000001d4H
  00006	e9 00 00 00 00	 jmp	 ?RenderCollisionData@CActorInstance@@QAEXXZ ; CActorInstance::RenderCollisionData
?RenderCollision@CInstanceBase@@QAEXXZ ENDP		; CInstanceBase::RenderCollision
_TEXT	ENDS
; Function compile flags: /Ogtp
; File D:\Metin2 Server Files\mainline\SRC_2014\Metin2Client\UserInterface\InstanceBase.cpp
;	COMDAT ?RenderToShadowMap@CInstanceBase@@QAEXXZ
_TEXT	SEGMENT
tv72 = -4						; size = 4
?RenderToShadowMap@CInstanceBase@@QAEXXZ PROC		; CInstanceBase::RenderToShadowMap, COMDAT
; _this$ = ecx

; 2005 : {

  00000	55		 push	 ebp
  00001	8b ec		 mov	 ebp, esp
  00003	51		 push	 ecx
  00004	56		 push	 esi
  00005	8b f1		 mov	 esi, ecx

; 2006 : 	if (IsDoor())

  00007	e8 00 00 00 00	 call	 ?IsDoor@CInstanceBase@@QAEHXZ ; CInstanceBase::IsDoor
  0000c	85 c0		 test	 eax, eax
  0000e	75 4c		 jne	 SHORT $LN1@RenderToSh

; 2007 : 		return;
; 2008 : 
; 2009 : 	if (IsBuilding())

  00010	8b ce		 mov	 ecx, esi
  00012	e8 00 00 00 00	 call	 ?IsBuilding@CInstanceBase@@QAEHXZ ; CInstanceBase::IsBuilding
  00017	85 c0		 test	 eax, eax
  00019	75 41		 jne	 SHORT $LN1@RenderToSh

; 2010 : 		return;
; 2011 : 
; 2012 : 	if (!__CanRender())

  0001b	8b ce		 mov	 ecx, esi
  0001d	e8 00 00 00 00	 call	 ?__CanRender@CInstanceBase@@IAE_NXZ ; CInstanceBase::__CanRender
  00022	84 c0		 test	 al, al
  00024	74 36		 je	 SHORT $LN1@RenderToSh

; 2013 : 		return;
; 2014 : 
; 2015 : 	if (!__IsExistMainInstance())

  00026	8b ce		 mov	 ecx, esi
  00028	e8 00 00 00 00	 call	 ?__IsExistMainInstance@CInstanceBase@@IAE_NXZ ; CInstanceBase::__IsExistMainInstance
  0002d	84 c0		 test	 al, al
  0002f	74 2b		 je	 SHORT $LN1@RenderToSh

; 2016 : 		return;
; 2017 : 
; 2018 : 	CInstanceBase* pkInstMain=__GetMainInstancePtr();

  00031	8b ce		 mov	 ecx, esi
  00033	e8 00 00 00 00	 call	 ?__GetMainInstancePtr@CInstanceBase@@IAEPAV1@XZ ; CInstanceBase::__GetMainInstancePtr

; 2019 : 
; 2020 : 	const float SHADOW_APPLY_DISTANCE = 2500.0f;
; 2021 : 
; 2022 : 	float fDistance=NEW_GetDistanceFromDestInstance(*pkInstMain);

  00038	50		 push	 eax
  00039	8b ce		 mov	 ecx, esi
  0003b	e8 00 00 00 00	 call	 ?NEW_GetDistanceFromDestInstance@CInstanceBase@@QAEMAAV1@@Z ; CInstanceBase::NEW_GetDistanceFromDestInstance

; 2023 : 	if (fDistance>=SHADOW_APPLY_DISTANCE)

  00040	d9 5d fc	 fstp	 DWORD PTR tv72[ebp]
  00043	f3 0f 10 45 fc	 movss	 xmm0, DWORD PTR tv72[ebp]
  00048	0f 2f 05 00 00
	00 00		 comiss	 xmm0, DWORD PTR __real@451c4000
  0004f	73 0b		 jae	 SHORT $LN1@RenderToSh

; 2024 : 		return;
; 2025 : 
; 2026 : 	m_GraphicThingInstance.RenderToShadowMap();	

  00051	8d 8e d4 01 00
	00		 lea	 ecx, DWORD PTR [esi+468]
  00057	e8 00 00 00 00	 call	 ?RenderToShadowMap@CActorInstance@@QAEXXZ ; CActorInstance::RenderToShadowMap
$LN1@RenderToSh:
  0005c	5e		 pop	 esi

; 2027 : }

  0005d	8b e5		 mov	 esp, ebp
  0005f	5d		 pop	 ebp
  00060	c3		 ret	 0
?RenderToShadowMap@CInstanceBase@@QAEXXZ ENDP		; CInstanceBase::RenderToShadowMap
_TEXT	ENDS
; Function compile flags: /Ogtp
; File D:\Metin2 Server Files\mainline\SRC_2014\Metin2Client\UserInterface\InstanceBase.cpp
;	COMDAT ?RenderTrace@CInstanceBase@@QAEXXZ
_TEXT	SEGMENT
?RenderTrace@CInstanceBase@@QAEXXZ PROC			; CInstanceBase::RenderTrace, COMDAT
; _this$ = ecx

; 1951 : {

  00000	56		 push	 esi
  00001	8b f1		 mov	 esi, ecx

; 1952 : 	if (!__CanRender())

  00003	e8 00 00 00 00	 call	 ?__CanRender@CInstanceBase@@IAE_NXZ ; CInstanceBase::__CanRender
  00008	84 c0		 test	 al, al
  0000a	74 0c		 je	 SHORT $LN1@RenderTrac

; 1953 : 		return;
; 1954 : 
; 1955 : 	m_GraphicThingInstance.RenderTrace();

  0000c	8d 8e d4 01 00
	00		 lea	 ecx, DWORD PTR [esi+468]
  00012	5e		 pop	 esi
  00013	e9 00 00 00 00	 jmp	 ?RenderTrace@CActorInstance@@QAEXXZ ; CActorInstance::RenderTrace
$LN1@RenderTrac:
  00018	5e		 pop	 esi

; 1956 : }

  00019	c3		 ret	 0
?RenderTrace@CInstanceBase@@QAEXXZ ENDP			; CInstanceBase::RenderTrace
_TEXT	ENDS
; Function compile flags: /Ogtp
; File D:\Metin2 Server Files\mainline\SRC_2014\Metin2Client\UserInterface\InstanceBase.cpp
; File D:\Metin2 Server Files\mainline\SRC_2014\M2Data\include\d3dx8math.inl
; File D:\Metin2 Server Files\mainline\SRC_2014\Metin2Client\UserInterface\InstanceBase.cpp
; File D:\Metin2 Server Files\mainline\SRC_2014\M2Data\include\d3dx8math.inl
; File D:\Metin2 Server Files\mainline\SRC_2014\Metin2Client\UserInterface\InstanceBase.cpp
;	COMDAT ?Render@CInstanceBase@@QAEXXZ
_TEXT	SEGMENT
_kD3DVt3Cur$1$sroa$287$1$ = -44				; size = 4
_kD3DVt3Cur$1$sroa$286$1$ = -40				; size = 4
_fx$1$ = -36						; size = 4
_fy$1$ = -32						; size = 4
_px$4 = -28						; size = 12
__$ArrayPad$ = -16					; size = 4
__$EHRec$ = -12						; size = 12
?Render@CInstanceBase@@QAEXXZ PROC			; CInstanceBase::Render, COMDAT
; _this$ = ecx

; 1962 : {

  00000	55		 push	 ebp
  00001	8b ec		 mov	 ebp, esp
  00003	6a ff		 push	 -1
  00005	68 00 00 00 00	 push	 __ehhandler$?Render@CInstanceBase@@QAEXXZ
  0000a	64 a1 00 00 00
	00		 mov	 eax, DWORD PTR fs:0
  00010	50		 push	 eax
  00011	83 ec 20	 sub	 esp, 32			; 00000020H
  00014	a1 00 00 00 00	 mov	 eax, DWORD PTR ___security_cookie
  00019	33 c5		 xor	 eax, ebp
  0001b	89 45 f0	 mov	 DWORD PTR __$ArrayPad$[ebp], eax
  0001e	56		 push	 esi
  0001f	57		 push	 edi
  00020	50		 push	 eax
  00021	8d 45 f4	 lea	 eax, DWORD PTR __$EHRec$[ebp]
  00024	64 a3 00 00 00
	00		 mov	 DWORD PTR fs:0, eax
  0002a	8b f1		 mov	 esi, ecx

; 1963 : 	// 2004.07.17.levites.isShow ViewFrustumCheck 
; 1964 : 	if (!__CanRender())

  0002c	e8 00 00 00 00	 call	 ?__CanRender@CInstanceBase@@IAE_NXZ ; CInstanceBase::__CanRender
  00031	84 c0		 test	 al, al
  00033	0f 84 b9 01 00
	00		 je	 $LN5@Render

; 1965 : 		return;
; 1966 : 
; 1967 : 	++ms_dwRenderCounter;

  00039	ff 05 00 00 00
	00		 inc	 DWORD PTR ?ms_dwRenderCounter@CInstanceBase@@1KA ; CInstanceBase::ms_dwRenderCounter

; 1968 : 
; 1969 : 	m_kHorse.Render();

  0003f	8d 4e 04	 lea	 ecx, DWORD PTR [esi+4]
  00042	e8 00 00 00 00	 call	 ?Render@SHORSE@CInstanceBase@@QAEXXZ ; CInstanceBase::SHORSE::Render

; 1970 : 	m_GraphicThingInstance.Render();	

  00047	8d 8e d4 01 00
	00		 lea	 ecx, DWORD PTR [esi+468]
  0004d	e8 00 00 00 00	 call	 ?Render@CGraphicObjectInstance@@QAE_NXZ ; CGraphicObjectInstance::Render

; 1971 : 	
; 1972 : 	if (CActorInstance::IsDirLine())

  00052	e8 00 00 00 00	 call	 ?IsDirLine@CActorInstance@@SA_NXZ ; CActorInstance::IsDirLine
  00057	84 c0		 test	 al, al
  00059	0f 84 93 01 00
	00		 je	 $LN5@Render

; 1973 : 	{	
; 1974 : 		if (NEW_GetDstPixelPositionRef().x != 0.0f)

  0005f	8b ce		 mov	 ecx, esi
  00061	e8 00 00 00 00	 call	 ?NEW_GetDstPixelPositionRef@CInstanceBase@@QAEABUD3DXVECTOR3@@XZ ; CInstanceBase::NEW_GetDstPixelPositionRef
  00066	0f 57 c0	 xorps	 xmm0, xmm0
  00069	f3 0f 10 08	 movss	 xmm1, DWORD PTR [eax]
  0006d	0f 2e c8	 ucomiss xmm1, xmm0
  00070	9f		 lahf
  00071	f6 c4 44	 test	 ah, 68			; 00000044H
  00074	0f 8b 78 01 00
	00		 jnp	 $LN5@Render

; 1975 : 		{
; 1976 : 			static CScreen s_kScreen;

  0007a	64 a1 00 00 00
	00		 mov	 eax, DWORD PTR fs:__tls_array
  00080	8b 0d 00 00 00
	00		 mov	 ecx, DWORD PTR __tls_index
  00086	8b 0c 88	 mov	 ecx, DWORD PTR [eax+ecx*4]
  00089	a1 00 00 00 00	 mov	 eax, DWORD PTR ?$TSS0@?9??Render@CInstanceBase@@QAEXXZ@4HA
  0008e	3b 81 00 00 00
	00		 cmp	 eax, DWORD PTR __Init_thread_epoch[ecx]
  00094	0f 8f 73 01 00
	00		 jg	 $LN14@Render
$LN2@Render:

; 1977 : 
; 1978 : 			STATEMANAGER.SetTextureStageState(0, D3DTSS_COLORARG1,	D3DTA_DIFFUSE);

  0009a	8b 0d 00 00 00
	00		 mov	 ecx, DWORD PTR ?ms_singleton@?$CSingleton@VCStateManager@@@@0PAVCStateManager@@A ; CSingleton<CStateManager>::ms_singleton
  000a0	6a 00		 push	 0
  000a2	6a 02		 push	 2
  000a4	6a 00		 push	 0
  000a6	e8 00 00 00 00	 call	 ?SetTextureStageState@CStateManager@@QAEXKW4_D3DTEXTURESTAGESTATETYPE@@K@Z ; CStateManager::SetTextureStageState

; 1979 : 			STATEMANAGER.SetTextureStageState(0, D3DTSS_COLOROP,	D3DTOP_SELECTARG1);

  000ab	8b 0d 00 00 00
	00		 mov	 ecx, DWORD PTR ?ms_singleton@?$CSingleton@VCStateManager@@@@0PAVCStateManager@@A ; CSingleton<CStateManager>::ms_singleton
  000b1	6a 02		 push	 2
  000b3	6a 01		 push	 1
  000b5	6a 00		 push	 0
  000b7	e8 00 00 00 00	 call	 ?SetTextureStageState@CStateManager@@QAEXKW4_D3DTEXTURESTAGESTATETYPE@@K@Z ; CStateManager::SetTextureStageState

; 1980 : 			STATEMANAGER.SetTextureStageState(0, D3DTSS_ALPHAOP,	D3DTOP_DISABLE);	

  000bc	8b 0d 00 00 00
	00		 mov	 ecx, DWORD PTR ?ms_singleton@?$CSingleton@VCStateManager@@@@0PAVCStateManager@@A ; CSingleton<CStateManager>::ms_singleton
  000c2	6a 01		 push	 1
  000c4	6a 04		 push	 4
  000c6	6a 00		 push	 0
  000c8	e8 00 00 00 00	 call	 ?SetTextureStageState@CStateManager@@QAEXKW4_D3DTEXTURESTAGESTATETYPE@@K@Z ; CStateManager::SetTextureStageState

; 1981 : 			STATEMANAGER.SaveRenderState(D3DRS_ZENABLE, FALSE);

  000cd	8b 0d 00 00 00
	00		 mov	 ecx, DWORD PTR ?ms_singleton@?$CSingleton@VCStateManager@@@@0PAVCStateManager@@A ; CSingleton<CStateManager>::ms_singleton
  000d3	6a 00		 push	 0
  000d5	6a 07		 push	 7
  000d7	e8 00 00 00 00	 call	 ?SaveRenderState@CStateManager@@QAEXW4_D3DRENDERSTATETYPE@@K@Z ; CStateManager::SaveRenderState

; 1982 : 			STATEMANAGER.SetRenderState(D3DRS_FOGENABLE, FALSE);

  000dc	8b 0d 00 00 00
	00		 mov	 ecx, DWORD PTR ?ms_singleton@?$CSingleton@VCStateManager@@@@0PAVCStateManager@@A ; CSingleton<CStateManager>::ms_singleton
  000e2	6a 00		 push	 0
  000e4	6a 1c		 push	 28			; 0000001cH
  000e6	e8 00 00 00 00	 call	 ?SetRenderState@CStateManager@@QAEXW4_D3DRENDERSTATETYPE@@K@Z ; CStateManager::SetRenderState

; 1983 : 			STATEMANAGER.SetRenderState(D3DRS_LIGHTING, FALSE);

  000eb	8b 0d 00 00 00
	00		 mov	 ecx, DWORD PTR ?ms_singleton@?$CSingleton@VCStateManager@@@@0PAVCStateManager@@A ; CSingleton<CStateManager>::ms_singleton
  000f1	6a 00		 push	 0
  000f3	68 89 00 00 00	 push	 137			; 00000089H
  000f8	e8 00 00 00 00	 call	 ?SetRenderState@CStateManager@@QAEXW4_D3DRENDERSTATETYPE@@K@Z ; CStateManager::SetRenderState

; 1984 : 			
; 1985 : 			TPixelPosition px;
; 1986 : 			m_GraphicThingInstance.GetPixelPosition(&px);

  000fd	8d 45 e4	 lea	 eax, DWORD PTR _px$4[ebp]
  00100	50		 push	 eax
  00101	8d 8e d4 01 00
	00		 lea	 ecx, DWORD PTR [esi+468]
  00107	e8 00 00 00 00	 call	 ?GetPixelPosition@CActorInstance@@QAEXPAUD3DXVECTOR3@@@Z ; CActorInstance::GetPixelPosition
; File D:\Metin2 Server Files\mainline\SRC_2014\M2Data\include\d3dx8math.inl

; 180  :     x = fx;

  0010c	f3 0f 10 45 e4	 movss	 xmm0, DWORD PTR _px$4[ebp]
; File D:\Metin2 Server Files\mainline\SRC_2014\Metin2Client\UserInterface\InstanceBase.cpp

; 1989 : 			D3DXVECTOR3 kD3DVt3Dest(NEW_GetDstPixelPositionRef().x, -NEW_GetDstPixelPositionRef().y, NEW_GetDstPixelPositionRef().z);

  00111	8b ce		 mov	 ecx, esi
; File D:\Metin2 Server Files\mainline\SRC_2014\M2Data\include\d3dx8math.inl

; 180  :     x = fx;

  00113	f3 0f 11 45 d4	 movss	 DWORD PTR _kD3DVt3Cur$1$sroa$287$1$[ebp], xmm0

; 181  :     y = fy;

  00118	f3 0f 10 45 e8	 movss	 xmm0, DWORD PTR _px$4[ebp+4]
  0011d	f3 0f 11 45 d8	 movss	 DWORD PTR _kD3DVt3Cur$1$sroa$286$1$[ebp], xmm0
; File D:\Metin2 Server Files\mainline\SRC_2014\Metin2Client\UserInterface\InstanceBase.cpp

; 1989 : 			D3DXVECTOR3 kD3DVt3Dest(NEW_GetDstPixelPositionRef().x, -NEW_GetDstPixelPositionRef().y, NEW_GetDstPixelPositionRef().z);

  00122	e8 00 00 00 00	 call	 ?NEW_GetDstPixelPositionRef@CInstanceBase@@QAEABUD3DXVECTOR3@@XZ ; CInstanceBase::NEW_GetDstPixelPositionRef
  00127	8b ce		 mov	 ecx, esi
  00129	f3 0f 10 00	 movss	 xmm0, DWORD PTR [eax]
  0012d	f3 0f 11 45 dc	 movss	 DWORD PTR _fx$1$[ebp], xmm0
  00132	e8 00 00 00 00	 call	 ?NEW_GetDstPixelPositionRef@CInstanceBase@@QAEABUD3DXVECTOR3@@XZ ; CInstanceBase::NEW_GetDstPixelPositionRef
  00137	8b ce		 mov	 ecx, esi
  00139	f3 0f 10 40 04	 movss	 xmm0, DWORD PTR [eax+4]
  0013e	0f 57 05 00 00
	00 00		 xorps	 xmm0, DWORD PTR __xmm@80000000800000008000000080000000
  00145	f3 0f 11 45 e0	 movss	 DWORD PTR _fy$1$[ebp], xmm0
  0014a	e8 00 00 00 00	 call	 ?NEW_GetDstPixelPositionRef@CInstanceBase@@QAEABUD3DXVECTOR3@@XZ ; CInstanceBase::NEW_GetDstPixelPositionRef

; 1990 : 
; 1991 : 			//printf("%s %f\n", GetNameString(), kD3DVt3Cur.y - kD3DVt3Dest.y);
; 1992 : 			//float fdx = NEW_GetDstPixelPositionRef().x - NEW_GetSrcPixelPositionRef().x;
; 1993 : 			//float fdy = NEW_GetDstPixelPositionRef().y - NEW_GetSrcPixelPositionRef().y;
; 1994 : 
; 1995 : 			s_kScreen.SetDiffuseColor(0.0f, 0.0f, 1.0f);

  0014f	83 ec 10	 sub	 esp, 16			; 00000010H
  00152	b9 00 00 00 00	 mov	 ecx, OFFSET ?s_kScreen@?9??Render@CInstanceBase@@QAEXXZ@4VCScreen@@A
  00157	c7 44 24 0c 00
	00 80 3f	 mov	 DWORD PTR [esp+12], 1065353216 ; 3f800000H
  0015f	c7 44 24 08 00
	00 80 3f	 mov	 DWORD PTR [esp+8], 1065353216 ; 3f800000H
  00167	c7 44 24 04 00
	00 00 00	 mov	 DWORD PTR [esp+4], 0
  0016f	c7 04 24 00 00
	00 00		 mov	 DWORD PTR [esp], 0
  00176	e8 00 00 00 00	 call	 ?SetDiffuseColor@CScreen@@QAEXMMMM@Z ; CScreen::SetDiffuseColor

; 1996 : 			s_kScreen.RenderLine3d(kD3DVt3Cur.x, kD3DVt3Cur.y, px.z, kD3DVt3Dest.x, kD3DVt3Dest.y, px.z);

  0017b	f3 0f 10 45 ec	 movss	 xmm0, DWORD PTR _px$4[ebp+8]
  00180	83 ec 18	 sub	 esp, 24			; 00000018H
  00183	f3 0f 10 4d e0	 movss	 xmm1, DWORD PTR _fy$1$[ebp]
  00188	b9 00 00 00 00	 mov	 ecx, OFFSET ?s_kScreen@?9??Render@CInstanceBase@@QAEXXZ@4VCScreen@@A
  0018d	f3 0f 11 44 24
	14		 movss	 DWORD PTR [esp+20], xmm0
  00193	f3 0f 11 4c 24
	10		 movss	 DWORD PTR [esp+16], xmm1
  00199	f3 0f 10 4d dc	 movss	 xmm1, DWORD PTR _fx$1$[ebp]
  0019e	f3 0f 11 4c 24
	0c		 movss	 DWORD PTR [esp+12], xmm1
  001a4	f3 0f 11 44 24
	08		 movss	 DWORD PTR [esp+8], xmm0
  001aa	f3 0f 10 45 d8	 movss	 xmm0, DWORD PTR _kD3DVt3Cur$1$sroa$286$1$[ebp]
  001af	f3 0f 11 44 24
	04		 movss	 DWORD PTR [esp+4], xmm0
  001b5	f3 0f 10 45 d4	 movss	 xmm0, DWORD PTR _kD3DVt3Cur$1$sroa$287$1$[ebp]
  001ba	f3 0f 11 04 24	 movss	 DWORD PTR [esp], xmm0
  001bf	e8 00 00 00 00	 call	 ?RenderLine3d@CScreen@@QAEXMMMMMM@Z ; CScreen::RenderLine3d

; 1997 : 			STATEMANAGER.RestoreRenderState(D3DRS_ZENABLE);

  001c4	8b 0d 00 00 00
	00		 mov	 ecx, DWORD PTR ?ms_singleton@?$CSingleton@VCStateManager@@@@0PAVCStateManager@@A ; CSingleton<CStateManager>::ms_singleton
  001ca	6a 07		 push	 7
  001cc	e8 00 00 00 00	 call	 ?RestoreRenderState@CStateManager@@QAEXW4_D3DRENDERSTATETYPE@@@Z ; CStateManager::RestoreRenderState

; 1998 : 			STATEMANAGER.SetRenderState(D3DRS_FOGENABLE, TRUE);

  001d1	8b 0d 00 00 00
	00		 mov	 ecx, DWORD PTR ?ms_singleton@?$CSingleton@VCStateManager@@@@0PAVCStateManager@@A ; CSingleton<CStateManager>::ms_singleton
  001d7	6a 01		 push	 1
  001d9	6a 1c		 push	 28			; 0000001cH
  001db	e8 00 00 00 00	 call	 ?SetRenderState@CStateManager@@QAEXW4_D3DRENDERSTATETYPE@@K@Z ; CStateManager::SetRenderState

; 1999 : 			STATEMANAGER.SetRenderState(D3DRS_LIGHTING, TRUE);

  001e0	8b 0d 00 00 00
	00		 mov	 ecx, DWORD PTR ?ms_singleton@?$CSingleton@VCStateManager@@@@0PAVCStateManager@@A ; CSingleton<CStateManager>::ms_singleton
  001e6	6a 01		 push	 1
  001e8	68 89 00 00 00	 push	 137			; 00000089H
  001ed	e8 00 00 00 00	 call	 ?SetRenderState@CStateManager@@QAEXW4_D3DRENDERSTATETYPE@@K@Z ; CStateManager::SetRenderState
$LN5@Render:

; 2000 : 		}
; 2001 : 	}	
; 2002 : }

  001f2	8b 4d f4	 mov	 ecx, DWORD PTR __$EHRec$[ebp]
  001f5	64 89 0d 00 00
	00 00		 mov	 DWORD PTR fs:0, ecx
  001fc	59		 pop	 ecx
  001fd	5f		 pop	 edi
  001fe	5e		 pop	 esi
  001ff	8b 4d f0	 mov	 ecx, DWORD PTR __$ArrayPad$[ebp]
  00202	33 cd		 xor	 ecx, ebp
  00204	e8 00 00 00 00	 call	 @__security_check_cookie@4
  00209	8b e5		 mov	 esp, ebp
  0020b	5d		 pop	 ebp
  0020c	c3		 ret	 0
$LN14@Render:

; 1975 : 		{
; 1976 : 			static CScreen s_kScreen;

  0020d	68 00 00 00 00	 push	 OFFSET ?$TSS0@?9??Render@CInstanceBase@@QAEXXZ@4HA
  00212	e8 00 00 00 00	 call	 __Init_thread_header
  00217	83 c4 04	 add	 esp, 4
  0021a	83 3d 00 00 00
	00 ff		 cmp	 DWORD PTR ?$TSS0@?9??Render@CInstanceBase@@QAEXXZ@4HA, -1
  00221	0f 85 73 fe ff
	ff		 jne	 $LN2@Render
  00227	b9 00 00 00 00	 mov	 ecx, OFFSET ?s_kScreen@?9??Render@CInstanceBase@@QAEXXZ@4VCScreen@@A
  0022c	c7 45 fc 00 00
	00 00		 mov	 DWORD PTR __$EHRec$[ebp+8], 0
  00233	e8 00 00 00 00	 call	 ??0CScreen@@QAE@XZ	; CScreen::CScreen
  00238	68 00 00 00 00	 push	 OFFSET ??__Fs_kScreen@?9??Render@CInstanceBase@@QAEXXZ@YAXXZ ; `CInstanceBase::Render'::`10'::`dynamic atexit destructor for 's_kScreen''
  0023d	e8 00 00 00 00	 call	 _atexit
  00242	68 00 00 00 00	 push	 OFFSET ?$TSS0@?9??Render@CInstanceBase@@QAEXXZ@4HA
  00247	c7 45 fc ff ff
	ff ff		 mov	 DWORD PTR __$EHRec$[ebp+8], -1
  0024e	e8 00 00 00 00	 call	 __Init_thread_footer
  00253	83 c4 08	 add	 esp, 8
  00256	e9 3f fe ff ff	 jmp	 $LN2@Render
_TEXT	ENDS
;	COMDAT text$x
text$x	SEGMENT
__unwindfunclet$?Render@CInstanceBase@@QAEXXZ$0:
  00000	68 00 00 00 00	 push	 OFFSET ?$TSS0@?9??Render@CInstanceBase@@QAEXXZ@4HA
  00005	e8 00 00 00 00	 call	 __Init_thread_abort
  0000a	59		 pop	 ecx
  0000b	c3		 ret	 0
  0000c	cc		 int	 3
  0000d	cc		 int	 3
  0000e	cc		 int	 3
  0000f	cc		 int	 3
  00010	cc		 int	 3
__ehhandler$?Render@CInstanceBase@@QAEXXZ:
  00011	90		 npad	 1
  00012	90		 npad	 1
  00013	8b 54 24 08	 mov	 edx, DWORD PTR [esp+8]
  00017	8d 42 0c	 lea	 eax, DWORD PTR [edx+12]
  0001a	8b 4a d4	 mov	 ecx, DWORD PTR [edx-44]
  0001d	33 c8		 xor	 ecx, eax
  0001f	e8 00 00 00 00	 call	 @__security_check_cookie@4
  00024	8b 4a fc	 mov	 ecx, DWORD PTR [edx-4]
  00027	33 c8		 xor	 ecx, eax
  00029	e8 00 00 00 00	 call	 @__security_check_cookie@4
  0002e	b8 00 00 00 00	 mov	 eax, OFFSET __ehfuncinfo$?Render@CInstanceBase@@QAEXXZ
  00033	e9 00 00 00 00	 jmp	 ___CxxFrameHandler3
text$x	ENDS
?Render@CInstanceBase@@QAEXXZ ENDP			; CInstanceBase::Render
; Function compile flags: /Ogtp
; File D:\Metin2 Server Files\mainline\SRC_2014\Metin2Client\UserInterface\InstanceBase.cpp
;	COMDAT ?Deform@CInstanceBase@@QAEXXZ
_TEXT	SEGMENT
?Deform@CInstanceBase@@QAEXXZ PROC			; CInstanceBase::Deform, COMDAT
; _this$ = ecx

; 1938 : {

  00000	56		 push	 esi
  00001	8b f1		 mov	 esi, ecx

; 1939 : 	// 2004.07.17.levites.isShow ViewFrustumCheck 
; 1940 : 	if (!__CanRender())

  00003	e8 00 00 00 00	 call	 ?__CanRender@CInstanceBase@@IAE_NXZ ; CInstanceBase::__CanRender
  00008	84 c0		 test	 al, al
  0000a	74 1a		 je	 SHORT $LN1@Deform

; 1941 : 		return;
; 1942 : 
; 1943 : 	++ms_dwDeformCounter;

  0000c	ff 05 00 00 00
	00		 inc	 DWORD PTR ?ms_dwDeformCounter@CInstanceBase@@1KA ; CInstanceBase::ms_dwDeformCounter

; 1944 : 
; 1945 : 	m_GraphicThingInstance.INSTANCEBASE_Deform();

  00012	8d 8e d4 01 00
	00		 lea	 ecx, DWORD PTR [esi+468]
  00018	e8 00 00 00 00	 call	 ?INSTANCEBASE_Deform@CActorInstance@@QAEXXZ ; CActorInstance::INSTANCEBASE_Deform

; 1946 : 
; 1947 : 	m_kHorse.Deform();

  0001d	8d 4e 04	 lea	 ecx, DWORD PTR [esi+4]
  00020	5e		 pop	 esi
  00021	e9 00 00 00 00	 jmp	 ?Deform@SHORSE@CInstanceBase@@QAEXXZ ; CInstanceBase::SHORSE::Deform
$LN1@Deform:
  00026	5e		 pop	 esi

; 1948 : }

  00027	c3		 ret	 0
?Deform@CInstanceBase@@QAEXXZ ENDP			; CInstanceBase::Deform
_TEXT	ENDS
; Function compile flags: /Ogtp
; File D:\Metin2 Server Files\mainline\SRC_2014\Metin2Client\UserInterface\InstanceBase.cpp
;	COMDAT ?Transform@CInstanceBase@@QAEXXZ
_TEXT	SEGMENT
?Transform@CInstanceBase@@QAEXXZ PROC			; CInstanceBase::Transform, COMDAT
; _this$ = ecx

; 1914 : {

  00000	56		 push	 esi
  00001	8b f1		 mov	 esi, ecx

; 1915 : 	if (__IsSyncing())

  00003	e8 00 00 00 00	 call	 ?__IsSyncing@CInstanceBase@@QAEHXZ ; CInstanceBase::__IsSyncing
  00008	85 c0		 test	 eax, eax
  0000a	75 5b		 jne	 SHORT $LN7@Transform

; 1916 : 	{
; 1917 : 		//OnSyncing();
; 1918 : 	}
; 1919 : 	else
; 1920 : 	{
; 1921 : 		if (IsWalking() || m_GraphicThingInstance.IsUsingMovingSkill())

  0000c	8b ce		 mov	 ecx, esi
  0000e	e8 00 00 00 00	 call	 ?IsWalking@CInstanceBase@@QAEHXZ ; CInstanceBase::IsWalking
  00013	85 c0		 test	 eax, eax
  00015	75 0f		 jne	 SHORT $LN5@Transform
  00017	8d 8e d4 01 00
	00		 lea	 ecx, DWORD PTR [esi+468]
  0001d	e8 00 00 00 00	 call	 ?IsUsingMovingSkill@CActorInstance@@QAEHXZ ; CActorInstance::IsUsingMovingSkill
  00022	85 c0		 test	 eax, eax
  00024	74 41		 je	 SHORT $LN7@Transform
$LN5@Transform:

; 1922 : 		{
; 1923 : 			const D3DXVECTOR3& c_rv3Movment=m_GraphicThingInstance.GetMovementVectorRef();

  00026	8d 8e d4 01 00
	00		 lea	 ecx, DWORD PTR [esi+468]
  0002c	e8 00 00 00 00	 call	 ?GetMovementVectorRef@CActorInstance@@QAEABUD3DXVECTOR3@@XZ ; CActorInstance::GetMovementVectorRef

; 1924 : 
; 1925 : 			float len=(c_rv3Movment.x*c_rv3Movment.x)+(c_rv3Movment.y*c_rv3Movment.y);
; 1926 : 			if (len>1.0f)

  00031	8b ce		 mov	 ecx, esi
  00033	f3 0f 10 48 04	 movss	 xmm1, DWORD PTR [eax+4]
  00038	f3 0f 10 00	 movss	 xmm0, DWORD PTR [eax]
  0003c	f3 0f 59 c0	 mulss	 xmm0, xmm0
  00040	f3 0f 59 c9	 mulss	 xmm1, xmm1
  00044	f3 0f 58 c1	 addss	 xmm0, xmm1
  00048	0f 2f 05 00 00
	00 00		 comiss	 xmm0, DWORD PTR __real@3f800000
  0004f	76 11		 jbe	 SHORT $LN6@Transform

; 1927 : 				OnMoving();

  00051	e8 00 00 00 00	 call	 ?OnMoving@CInstanceBase@@IAEXXZ ; CInstanceBase::OnMoving

; 1930 : 		}	
; 1931 : 	}
; 1932 : 
; 1933 : 	m_GraphicThingInstance.INSTANCEBASE_Transform();

  00056	8d 8e d4 01 00
	00		 lea	 ecx, DWORD PTR [esi+468]
  0005c	5e		 pop	 esi
  0005d	e9 00 00 00 00	 jmp	 ?INSTANCEBASE_Transform@CActorInstance@@QAEXXZ ; CActorInstance::INSTANCEBASE_Transform
$LN6@Transform:

; 1928 : 			else
; 1929 : 				OnWaiting();	

  00062	e8 00 00 00 00	 call	 ?OnWaiting@CInstanceBase@@IAEXXZ ; CInstanceBase::OnWaiting
$LN7@Transform:

; 1930 : 		}	
; 1931 : 	}
; 1932 : 
; 1933 : 	m_GraphicThingInstance.INSTANCEBASE_Transform();

  00067	8d 8e d4 01 00
	00		 lea	 ecx, DWORD PTR [esi+468]
  0006d	5e		 pop	 esi
  0006e	e9 00 00 00 00	 jmp	 ?INSTANCEBASE_Transform@CActorInstance@@QAEXXZ ; CActorInstance::INSTANCEBASE_Transform
?Transform@CInstanceBase@@QAEXXZ ENDP			; CInstanceBase::Transform
_TEXT	ENDS
; Function compile flags: /Ogtp
; File D:\Metin2 Server Files\mainline\SRC_2014\Metin2Client\UserInterface\InstanceBase.cpp
;	COMDAT ?Update@CInstanceBase@@QAEXXZ
_TEXT	SEGMENT
_kPPosCur$1 = -16					; size = 12
__$ArrayPad$ = -4					; size = 4
?Update@CInstanceBase@@QAEXXZ PROC			; CInstanceBase::Update, COMDAT
; _this$ = ecx

; 1867 : {

  00000	55		 push	 ebp
  00001	8b ec		 mov	 ebp, esp
  00003	83 ec 10	 sub	 esp, 16			; 00000010H
  00006	a1 00 00 00 00	 mov	 eax, DWORD PTR ___security_cookie
  0000b	33 c5		 xor	 eax, ebp
  0000d	89 45 fc	 mov	 DWORD PTR __$ArrayPad$[ebp], eax

; 1868 : 	++ms_dwUpdateCounter;	

  00010	ff 05 00 00 00
	00		 inc	 DWORD PTR ?ms_dwUpdateCounter@CInstanceBase@@1KA ; CInstanceBase::ms_dwUpdateCounter
  00016	56		 push	 esi
  00017	57		 push	 edi
  00018	8b f1		 mov	 esi, ecx

; 1869 : 
; 1870 : 	StateProcess();

  0001a	e8 00 00 00 00	 call	 ?StateProcess@CInstanceBase@@IAEXXZ ; CInstanceBase::StateProcess

; 1871 : 	m_GraphicThingInstance.PhysicsProcess();

  0001f	8d be d4 01 00
	00		 lea	 edi, DWORD PTR [esi+468]
  00025	8b cf		 mov	 ecx, edi
  00027	e8 00 00 00 00	 call	 ?PhysicsProcess@CActorInstance@@QAEXXZ ; CActorInstance::PhysicsProcess

; 1872 : 	m_GraphicThingInstance.RotationProcess();

  0002c	8b cf		 mov	 ecx, edi
  0002e	e8 00 00 00 00	 call	 ?RotationProcess@CActorInstance@@QAEXXZ ; CActorInstance::RotationProcess

; 1873 : 	m_GraphicThingInstance.ComboProcess();

  00033	8b cf		 mov	 ecx, edi
  00035	e8 00 00 00 00	 call	 ?ComboProcess@CActorInstance@@QAEXXZ ; CActorInstance::ComboProcess

; 1874 : 	m_GraphicThingInstance.AccumulationMovement();

  0003a	8b cf		 mov	 ecx, edi
  0003c	e8 00 00 00 00	 call	 ?AccumulationMovement@CActorInstance@@QAEXXZ ; CActorInstance::AccumulationMovement

; 1875 : 
; 1876 : 	if (m_GraphicThingInstance.IsMovement())

  00041	8b cf		 mov	 ecx, edi
  00043	e8 00 00 00 00	 call	 ?IsMovement@CActorInstance@@QAEHXZ ; CActorInstance::IsMovement
  00048	85 c0		 test	 eax, eax
  0004a	74 6c		 je	 SHORT $LN2@Update

; 1877 : 	{
; 1878 : 		TPixelPosition kPPosCur;
; 1879 : 		NEW_GetPixelPosition(&kPPosCur);

  0004c	8d 45 f0	 lea	 eax, DWORD PTR _kPPosCur$1[ebp]
  0004f	8b ce		 mov	 ecx, esi
  00051	50		 push	 eax
  00052	e8 00 00 00 00	 call	 ?NEW_GetPixelPosition@CInstanceBase@@QAEXPAUD3DXVECTOR3@@@Z ; CInstanceBase::NEW_GetPixelPosition

; 1880 : 
; 1881 : 		DWORD dwCurTime=ELTimer_GetFrameMSec();

  00057	e8 00 00 00 00	 call	 ?ELTimer_GetFrameMSec@@YAKXZ ; ELTimer_GetFrameMSec

; 1882 : 		//if (m_dwNextUpdateHeightTime<dwCurTime)
; 1883 : 		{
; 1884 : 			m_dwNextUpdateHeightTime=dwCurTime;
; 1885 : 			kPPosCur.z = __GetBackgroundHeight(kPPosCur.x, kPPosCur.y);

  0005c	f3 0f 10 45 f4	 movss	 xmm0, DWORD PTR _kPPosCur$1[ebp+4]
  00061	83 ec 08	 sub	 esp, 8
  00064	89 86 84 01 00
	00		 mov	 DWORD PTR [esi+388], eax
  0006a	f3 0f 11 44 24
	04		 movss	 DWORD PTR [esp+4], xmm0
  00070	f3 0f 10 45 f0	 movss	 xmm0, DWORD PTR _kPPosCur$1[ebp]
  00075	f3 0f 11 04 24	 movss	 DWORD PTR [esp], xmm0
  0007a	e8 00 00 00 00	 call	 ?__GetBackgroundHeight@CInstanceBase@@KAMMM@Z ; CInstanceBase::__GetBackgroundHeight
  0007f	83 c4 08	 add	 esp, 8

; 1886 : 			NEW_SetPixelPosition(kPPosCur);

  00082	8d 45 f0	 lea	 eax, DWORD PTR _kPPosCur$1[ebp]
  00085	8b ce		 mov	 ecx, esi
  00087	d9 5d f8	 fstp	 DWORD PTR _kPPosCur$1[ebp+8]
  0008a	50		 push	 eax
  0008b	e8 00 00 00 00	 call	 ?NEW_SetPixelPosition@CInstanceBase@@QAEXABUD3DXVECTOR3@@@Z ; CInstanceBase::NEW_SetPixelPosition

; 1887 : 		}
; 1888 : 
; 1889 : 		// SetMaterialColor
; 1890 : 		{
; 1891 : 			DWORD dwMtrlColor=__GetShadowMapColor(kPPosCur.x, kPPosCur.y);

  00090	f3 0f 10 45 f4	 movss	 xmm0, DWORD PTR _kPPosCur$1[ebp+4]
  00095	83 ec 08	 sub	 esp, 8
  00098	f3 0f 11 44 24
	04		 movss	 DWORD PTR [esp+4], xmm0
  0009e	f3 0f 10 45 f0	 movss	 xmm0, DWORD PTR _kPPosCur$1[ebp]
  000a3	f3 0f 11 04 24	 movss	 DWORD PTR [esp], xmm0
  000a8	e8 00 00 00 00	 call	 ?__GetShadowMapColor@CInstanceBase@@KAKMM@Z ; CInstanceBase::__GetShadowMapColor
  000ad	83 c4 08	 add	 esp, 8

; 1892 : 			m_GraphicThingInstance.SetMaterialColor(dwMtrlColor);

  000b0	8b cf		 mov	 ecx, edi
  000b2	50		 push	 eax
  000b3	e8 00 00 00 00	 call	 ?SetMaterialColor@CActorInstance@@QAEXK@Z ; CActorInstance::SetMaterialColor
$LN2@Update:

; 1893 : 		}
; 1894 : 	}
; 1895 : 
; 1896 : 	m_GraphicThingInstance.UpdateAdvancingPointInstance();

  000b8	8b cf		 mov	 ecx, edi
  000ba	e8 00 00 00 00	 call	 ?UpdateAdvancingPointInstance@CActorInstance@@QAEXXZ ; CActorInstance::UpdateAdvancingPointInstance

; 1897 : 
; 1898 : 	AttackProcess();

  000bf	8b ce		 mov	 ecx, esi
  000c1	e8 00 00 00 00	 call	 ?AttackProcess@CInstanceBase@@IAEXXZ ; CInstanceBase::AttackProcess

; 1899 : 	MovementProcess();

  000c6	8b ce		 mov	 ecx, esi
  000c8	e8 00 00 00 00	 call	 ?MovementProcess@CInstanceBase@@IAEXXZ ; CInstanceBase::MovementProcess

; 1900 : 
; 1901 : 	m_GraphicThingInstance.MotionProcess(IsPC());

  000cd	8b ce		 mov	 ecx, esi
  000cf	e8 00 00 00 00	 call	 ?IsPC@CInstanceBase@@QAEHXZ ; CInstanceBase::IsPC
  000d4	50		 push	 eax
  000d5	8b cf		 mov	 ecx, edi
  000d7	e8 00 00 00 00	 call	 ?MotionProcess@CActorInstance@@QAEXH@Z ; CActorInstance::MotionProcess

; 1902 : 	if (IsMountingHorse())

  000dc	8b ce		 mov	 ecx, esi
  000de	e8 00 00 00 00	 call	 ?IsMountingHorse@CInstanceBase@@QAEHXZ ; CInstanceBase::IsMountingHorse
  000e3	85 c0		 test	 eax, eax
  000e5	74 0a		 je	 SHORT $LN3@Update

; 1903 : 	{
; 1904 : 		m_kHorse.m_pkActor->HORSE_MotionProcess(FALSE);

  000e7	8b 4e 08	 mov	 ecx, DWORD PTR [esi+8]
  000ea	6a 00		 push	 0
  000ec	e8 00 00 00 00	 call	 ?HORSE_MotionProcess@CActorInstance@@QAEXH@Z ; CActorInstance::HORSE_MotionProcess
$LN3@Update:

; 1905 : 	}
; 1906 : 
; 1907 : 	__ComboProcess();	

  000f1	8b ce		 mov	 ecx, esi
  000f3	e8 00 00 00 00	 call	 ?__ComboProcess@CInstanceBase@@IAEXXZ ; CInstanceBase::__ComboProcess

; 1908 : 	
; 1909 : 	ProcessDamage();

  000f8	8b ce		 mov	 ecx, esi
  000fa	e8 00 00 00 00	 call	 ?ProcessDamage@CInstanceBase@@IAEXXZ ; CInstanceBase::ProcessDamage

; 1910 : 
; 1911 : }

  000ff	8b 4d fc	 mov	 ecx, DWORD PTR __$ArrayPad$[ebp]
  00102	5f		 pop	 edi
  00103	33 cd		 xor	 ecx, ebp
  00105	5e		 pop	 esi
  00106	e8 00 00 00 00	 call	 @__security_check_cookie@4
  0010b	8b e5		 mov	 esp, ebp
  0010d	5d		 pop	 ebp
  0010e	c3		 ret	 0
?Update@CInstanceBase@@QAEXXZ ENDP			; CInstanceBase::Update
_TEXT	ENDS
; Function compile flags: /Ogtp
; File D:\Metin2 Server Files\mainline\SRC_2014\Metin2Client\UserInterface\InstanceBase.cpp
; File C:\Program Files (x86)\Microsoft Visual Studio\2019\Community\VC\Tools\MSVC\14.28.29333\include\list
; File C:\Program Files (x86)\Microsoft Visual Studio\2019\Community\VC\Tools\MSVC\14.28.29333\include\xmemory
; File C:\Program Files (x86)\Microsoft Visual Studio\2019\Community\VC\Tools\MSVC\14.28.29333\include\list
; File D:\Metin2 Server Files\mainline\SRC_2014\Metin2Client\UserInterface\InstanceBase.cpp
; File C:\Program Files (x86)\Microsoft Visual Studio\2019\Community\VC\Tools\MSVC\14.28.29333\include\list
; File D:\Metin2 Server Files\mainline\SRC_2014\Metin2Client\UserInterface\InstanceBase.cpp
;	COMDAT ?Destroy@CInstanceBase@@QAEXXZ
_TEXT	SEGMENT
?Destroy@CInstanceBase@@QAEXXZ PROC			; CInstanceBase::Destroy, COMDAT
; _this$ = ecx

; 2999 : {	

  00000	57		 push	 edi
  00001	8b f9		 mov	 edi, ecx

; 3000 : 	DetachTextTail();

  00003	e8 00 00 00 00	 call	 ?DetachTextTail@CInstanceBase@@QAEXXZ ; CInstanceBase::DetachTextTail

; 3001 : 	
; 3002 : 	DismountHorse();

  00008	8b cf		 mov	 ecx, edi
  0000a	e8 00 00 00 00	 call	 ?DismountHorse@CInstanceBase@@QAEXXZ ; CInstanceBase::DismountHorse
; File C:\Program Files (x86)\Microsoft Visual Studio\2019\Community\VC\Tools\MSVC\14.28.29333\include\list

; 1429 :         _Node::_Free_non_head(_Getal(), _My_data._Myhead);

  0000f	8b 97 90 06 00
	00		 mov	 edx, DWORD PTR [edi+1680]

; 324  :         _Head->_Prev->_Next = nullptr;

  00015	8b 42 04	 mov	 eax, DWORD PTR [edx+4]
  00018	c7 00 00 00 00
	00		 mov	 DWORD PTR [eax], 0

; 325  : 
; 326  :         auto _Pnode = _Head->_Next;

  0001e	8b 02		 mov	 eax, DWORD PTR [edx]

; 327  :         for (_Nodeptr _Pnext; _Pnode; _Pnode = _Pnext) {

  00020	85 c0		 test	 eax, eax
  00022	74 15		 je	 SHORT $LN8@Destroy
  00024	56		 push	 esi
$LL9@Destroy:

; 328  :             _Pnext = _Pnode->_Next;

  00025	8b 30		 mov	 esi, DWORD PTR [eax]
; File C:\Program Files (x86)\Microsoft Visual Studio\2019\Community\VC\Tools\MSVC\14.28.29333\include\xmemory

; 696  :         _Deallocate<_New_alignof<value_type>>(_Ptr, sizeof(value_type) * _Count);

  00027	6a 2c		 push	 44			; 0000002cH
  00029	50		 push	 eax
  0002a	e8 00 00 00 00	 call	 ??$_Deallocate@$07$0A@@std@@YAXPAXI@Z ; std::_Deallocate<8,0>
  0002f	83 c4 08	 add	 esp, 8
; File C:\Program Files (x86)\Microsoft Visual Studio\2019\Community\VC\Tools\MSVC\14.28.29333\include\list

; 327  :         for (_Nodeptr _Pnext; _Pnode; _Pnode = _Pnext) {

  00032	8b c6		 mov	 eax, esi
  00034	85 f6		 test	 esi, esi
  00036	75 ed		 jne	 SHORT $LL9@Destroy
  00038	5e		 pop	 esi
$LN8@Destroy:

; 1430 :         _My_data._Myhead->_Next = _My_data._Myhead;

  00039	8b 87 90 06 00
	00		 mov	 eax, DWORD PTR [edi+1680]
; File D:\Metin2 Server Files\mainline\SRC_2014\Metin2Client\UserInterface\InstanceBase.cpp

; 3006 : 	__EffectContainer_Destroy();

  0003f	8b cf		 mov	 ecx, edi
; File C:\Program Files (x86)\Microsoft Visual Studio\2019\Community\VC\Tools\MSVC\14.28.29333\include\list

; 1430 :         _My_data._Myhead->_Next = _My_data._Myhead;

  00041	89 00		 mov	 DWORD PTR [eax], eax

; 1431 :         _My_data._Myhead->_Prev = _My_data._Myhead;

  00043	8b 87 90 06 00
	00		 mov	 eax, DWORD PTR [edi+1680]
  00049	89 40 04	 mov	 DWORD PTR [eax+4], eax

; 1432 :         _My_data._Mysize        = 0;

  0004c	c7 87 94 06 00
	00 00 00 00 00	 mov	 DWORD PTR [edi+1684], 0
; File D:\Metin2 Server Files\mainline\SRC_2014\Metin2Client\UserInterface\InstanceBase.cpp

; 3006 : 	__EffectContainer_Destroy();

  00056	e8 00 00 00 00	 call	 ?__EffectContainer_Destroy@CInstanceBase@@IAEXXZ ; CInstanceBase::__EffectContainer_Destroy

; 3007 : 	__StoneSmoke_Destroy();

  0005b	8b cf		 mov	 ecx, edi
  0005d	e8 00 00 00 00	 call	 ?__StoneSmoke_Destroy@CInstanceBase@@IAEXXZ ; CInstanceBase::__StoneSmoke_Destroy

; 3008 : 
; 3009 : 	if (__IsMainInstance())

  00062	8b cf		 mov	 ecx, edi
  00064	e8 00 00 00 00	 call	 ?__IsMainInstance@CInstanceBase@@IAE_NXZ ; CInstanceBase::__IsMainInstance
  00069	84 c0		 test	 al, al
  0006b	74 07		 je	 SHORT $LN2@Destroy

; 3010 : 		__ClearMainInstance();	

  0006d	8b cf		 mov	 ecx, edi
  0006f	e8 00 00 00 00	 call	 ?__ClearMainInstance@CInstanceBase@@IAEXXZ ; CInstanceBase::__ClearMainInstance
$LN2@Destroy:

; 3011 : 	
; 3012 : 	m_GraphicThingInstance.Destroy();

  00074	8d 8f d4 01 00
	00		 lea	 ecx, DWORD PTR [edi+468]
  0007a	e8 00 00 00 00	 call	 ?Destroy@CActorInstance@@QAEXXZ ; CActorInstance::Destroy

; 3013 : 	
; 3014 : 	__Initialize();

  0007f	8b cf		 mov	 ecx, edi
  00081	5f		 pop	 edi
  00082	e9 00 00 00 00	 jmp	 ?__Initialize@CInstanceBase@@IAEXXZ ; CInstanceBase::__Initialize
?Destroy@CInstanceBase@@QAEXXZ ENDP			; CInstanceBase::Destroy
_TEXT	ENDS
; Function compile flags: /Ogtp
; File D:\Metin2 Server Files\mainline\SRC_2014\Metin2Client\UserInterface\InstanceBase.cpp
;	COMDAT ?DestroyDeviceObjects@CInstanceBase@@QAEXXZ
_TEXT	SEGMENT
?DestroyDeviceObjects@CInstanceBase@@QAEXXZ PROC	; CInstanceBase::DestroyDeviceObjects, COMDAT
; _this$ = ecx

; 2995 : 	m_GraphicThingInstance.DestroyDeviceObjects();

  00000	81 c1 d4 01 00
	00		 add	 ecx, 468		; 000001d4H
  00006	e9 00 00 00 00	 jmp	 ?DestroyDeviceObjects@CGraphicThingInstance@@QAEXXZ ; CGraphicThingInstance::DestroyDeviceObjects
?DestroyDeviceObjects@CInstanceBase@@QAEXXZ ENDP	; CInstanceBase::DestroyDeviceObjects
_TEXT	ENDS
; Function compile flags: /Ogtp
; File D:\Metin2 Server Files\mainline\SRC_2014\Metin2Client\UserInterface\InstanceBase.cpp
;	COMDAT ?CreateDeviceObjects@CInstanceBase@@QAE_NXZ
_TEXT	SEGMENT
?CreateDeviceObjects@CInstanceBase@@QAE_NXZ PROC	; CInstanceBase::CreateDeviceObjects, COMDAT
; _this$ = ecx

; 2990 : 	return m_GraphicThingInstance.CreateDeviceObjects();

  00000	81 c1 d4 01 00
	00		 add	 ecx, 468		; 000001d4H
  00006	e9 00 00 00 00	 jmp	 ?CreateDeviceObjects@CGraphicThingInstance@@QAE_NXZ ; CGraphicThingInstance::CreateDeviceObjects
?CreateDeviceObjects@CInstanceBase@@QAE_NXZ ENDP	; CInstanceBase::CreateDeviceObjects
_TEXT	ENDS
; Function compile flags: /Ogtp
; File D:\Metin2 Server Files\mainline\SRC_2014\Metin2Client\UserInterface\InstanceBase.cpp
; File D:\Metin2 Server Files\mainline\SRC_2014\M2Data\include\d3dx8math.inl
; File D:\Metin2 Server Files\mainline\SRC_2014\Metin2Client\UserInterface\InstanceBase.cpp
; File D:\Metin2 Server Files\mainline\SRC_2014\M2Data\include\d3dx8math.inl
; File D:\Metin2 Server Files\mainline\SRC_2014\Metin2Client\UserInterface\InstanceBase.cpp
; File D:\Metin2 Server Files\mainline\SRC_2014\M2Data\include\d3dx8math.inl
; File D:\Metin2 Server Files\mainline\SRC_2014\Metin2Client\UserInterface\InstanceBase.cpp
; File D:\Metin2 Server Files\mainline\SRC_2014\M2Data\include\d3dx8math.inl
; File D:\Metin2 Server Files\mainline\SRC_2014\Metin2Client\UserInterface\InstanceBase.cpp
; File D:\Metin2 Server Files\mainline\SRC_2014\M2Data\include\d3dx8math.inl
; File D:\Metin2 Server Files\mainline\SRC_2014\Metin2Client\UserInterface\InstanceBase.cpp
; File C:\Program Files (x86)\Microsoft Visual Studio\2019\Community\VC\Tools\MSVC\14.28.29333\include\xstring
; File D:\Metin2 Server Files\mainline\SRC_2014\Metin2Client\UserInterface\InstanceBase.cpp
; File C:\Program Files (x86)\Microsoft Visual Studio\2019\Community\VC\Tools\MSVC\14.28.29333\include\xstring
; File D:\Metin2 Server Files\mainline\SRC_2014\Metin2Client\UserInterface\InstanceBase.cpp
; File C:\Program Files (x86)\Microsoft Visual Studio\2019\Community\VC\Tools\MSVC\14.28.29333\include\xstring
; File D:\Metin2 Server Files\mainline\SRC_2014\Metin2Client\UserInterface\InstanceBase.cpp
; File C:\Program Files (x86)\Microsoft Visual Studio\2019\Community\VC\Tools\MSVC\14.28.29333\include\xstring
; File D:\Metin2 Server Files\mainline\SRC_2014\Metin2Client\UserInterface\InstanceBase.cpp
; File C:\Program Files (x86)\Microsoft Visual Studio\2019\Community\VC\Tools\MSVC\14.28.29333\include\xstring
; File D:\Metin2 Server Files\mainline\SRC_2014\Metin2Client\UserInterface\InstanceBase.cpp
; File C:\Program Files (x86)\Microsoft Visual Studio\2019\Community\VC\Tools\MSVC\14.28.29333\include\xstring
; File C:\Program Files (x86)\Microsoft Visual Studio\2019\Community\VC\Tools\MSVC\14.28.29333\include\xmemory
; File D:\Metin2 Server Files\mainline\SRC_2014\Metin2Client\UserInterface\InstanceBase.cpp
;	COMDAT ?Create@CInstanceBase@@QAE_NABUSCreateData@1@@Z
_TEXT	SEGMENT
_center_z$2 = -68					; size = 4
_center_x$3 = -64					; size = 4
$T4 = -60						; size = 1
_center_y$5 = -60					; size = 4
_strFileName$6 = -56					; size = 24
$T7 = -32						; size = 16
$T8 = -28						; size = 12
__$ArrayPad$ = -16					; size = 4
__$EHRec$ = -12						; size = 12
_c_rkCreateData$ = 8					; size = 4
?Create@CInstanceBase@@QAE_NABUSCreateData@1@@Z PROC	; CInstanceBase::Create, COMDAT
; _this$ = ecx

; 719  : {

  00000	55		 push	 ebp
  00001	8b ec		 mov	 ebp, esp
  00003	6a ff		 push	 -1
  00005	68 00 00 00 00	 push	 __ehhandler$?Create@CInstanceBase@@QAE_NABUSCreateData@1@@Z
  0000a	64 a1 00 00 00
	00		 mov	 eax, DWORD PTR fs:0
  00010	50		 push	 eax
  00011	83 ec 38	 sub	 esp, 56			; 00000038H
  00014	a1 00 00 00 00	 mov	 eax, DWORD PTR ___security_cookie
  00019	33 c5		 xor	 eax, ebp
  0001b	89 45 f0	 mov	 DWORD PTR __$ArrayPad$[ebp], eax
  0001e	53		 push	 ebx
  0001f	56		 push	 esi
  00020	57		 push	 edi
  00021	50		 push	 eax
  00022	8d 45 f4	 lea	 eax, DWORD PTR __$EHRec$[ebp]
  00025	64 a3 00 00 00
	00		 mov	 DWORD PTR fs:0, eax
  0002b	8b f1		 mov	 esi, ecx

; 720  : 	IAbstractApplication::GetSingleton().SkipRenderBuffering(300);

  0002d	8b 0d 00 00 00
	00		 mov	 ecx, DWORD PTR ?ms_singleton@?$TAbstractSingleton@VIAbstractApplication@@@@0PAVIAbstractApplication@@A ; TAbstractSingleton<IAbstractApplication>::ms_singleton
  00033	8b 7d 08	 mov	 edi, DWORD PTR _c_rkCreateData$[ebp]
  00036	68 2c 01 00 00	 push	 300			; 0000012cH
  0003b	8b 01		 mov	 eax, DWORD PTR [ecx]
  0003d	ff 50 10	 call	 DWORD PTR [eax+16]

; 721  : 
; 722  : 	SetInstanceType(c_rkCreateData.m_bType);

  00040	0f b6 07	 movzx	 eax, BYTE PTR [edi]
  00043	8b ce		 mov	 ecx, esi
  00045	50		 push	 eax
  00046	e8 00 00 00 00	 call	 ?SetInstanceType@CInstanceBase@@QAEXH@Z ; CInstanceBase::SetInstanceType

; 723  : 
; 724  : 
; 725  : 	if (!SetRace(c_rkCreateData.m_dwRace))

  0004b	ff 77 18	 push	 DWORD PTR [edi+24]
  0004e	8b ce		 mov	 ecx, esi
  00050	e8 00 00 00 00	 call	 ?SetRace@CInstanceBase@@QAE_NK@Z ; CInstanceBase::SetRace
  00055	84 c0		 test	 al, al
  00057	0f 84 8f 03 00
	00		 je	 $LN1@Create
$LN2@Create:

; 726  : 		return false;
; 727  : 
; 728  : 	SetVirtualID(c_rkCreateData.m_dwVID);

  0005d	ff 77 14	 push	 DWORD PTR [edi+20]
  00060	8b ce		 mov	 ecx, esi
  00062	e8 00 00 00 00	 call	 ?SetVirtualID@CInstanceBase@@QAEXK@Z ; CInstanceBase::SetVirtualID

; 729  : 
; 730  : 	if (c_rkCreateData.m_isMain)

  00067	80 7f 64 00	 cmp	 BYTE PTR [edi+100], 0
  0006b	74 07		 je	 SHORT $LN3@Create

; 731  : 		SetMainInstance();

  0006d	8b ce		 mov	 ecx, esi
  0006f	e8 00 00 00 00	 call	 ?SetMainInstance@CInstanceBase@@QAEXXZ ; CInstanceBase::SetMainInstance
$LN3@Create:

; 732  : 
; 733  : 	if (IsGuildWall())

  00074	8b ce		 mov	 ecx, esi
  00076	e8 00 00 00 00	 call	 ?IsGuildWall@CInstanceBase@@QAEHXZ ; CInstanceBase::IsGuildWall
  0007b	85 c0		 test	 eax, eax
  0007d	0f 84 90 00 00
	00		 je	 $LN4@Create

; 734  : 	{
; 735  : 		unsigned center_x;
; 736  : 		unsigned center_y;
; 737  : 
; 738  : 		c_rkCreateData.m_kAffectFlags.ConvertToPosition(&center_x, &center_y);

  00083	8d 45 c4	 lea	 eax, DWORD PTR _center_y$5[ebp]
  00086	50		 push	 eax
  00087	8d 45 c0	 lea	 eax, DWORD PTR _center_x$3[ebp]
  0008a	50		 push	 eax
  0008b	8d 4f 43	 lea	 ecx, DWORD PTR [edi+67]
  0008e	e8 00 00 00 00	 call	 ?ConvertToPosition@CAffectFlagContainer@@QBEXPAI0@Z ; CAffectFlagContainer::ConvertToPosition

; 739  : 		
; 740  : 		float center_z = __GetBackgroundHeight(center_x, center_y);

  00093	8b 45 c4	 mov	 eax, DWORD PTR _center_y$5[ebp]
  00096	83 ec 08	 sub	 esp, 8
  00099	66 0f 6e c0	 movd	 xmm0, eax
  0009d	f3 0f e6 c0	 cvtdq2pd xmm0, xmm0
  000a1	c1 e8 1f	 shr	 eax, 31			; 0000001fH
  000a4	f2 0f 58 04 c5
	00 00 00 00	 addsd	 xmm0, QWORD PTR __xmm@41f00000000000000000000000000000[eax*8]
  000ad	8b 45 c0	 mov	 eax, DWORD PTR _center_x$3[ebp]
  000b0	66 0f 5a c0	 cvtpd2ps xmm0, xmm0
  000b4	f3 0f 11 44 24
	04		 movss	 DWORD PTR [esp+4], xmm0
  000ba	66 0f 6e c0	 movd	 xmm0, eax
  000be	f3 0f e6 c0	 cvtdq2pd xmm0, xmm0
  000c2	c1 e8 1f	 shr	 eax, 31			; 0000001fH
  000c5	f2 0f 58 04 c5
	00 00 00 00	 addsd	 xmm0, QWORD PTR __xmm@41f00000000000000000000000000000[eax*8]
  000ce	66 0f 5a c0	 cvtpd2ps xmm0, xmm0
  000d2	f3 0f 11 04 24	 movss	 DWORD PTR [esp], xmm0
  000d7	e8 00 00 00 00	 call	 ?__GetBackgroundHeight@CInstanceBase@@KAMMM@Z ; CInstanceBase::__GetBackgroundHeight
  000dc	66 0f 6e 47 28	 movd	 xmm0, DWORD PTR [edi+40]

; 741  : 		NEW_SetPixelPosition(TPixelPosition(float(c_rkCreateData.m_lPosX), float(c_rkCreateData.m_lPosY), center_z));

  000e1	8d 45 e4	 lea	 eax, DWORD PTR $T8[ebp]
  000e4	66 0f 6e 4f 24	 movd	 xmm1, DWORD PTR [edi+36]
  000e9	83 c4 08	 add	 esp, 8
  000ec	0f 5b c0	 cvtdq2ps xmm0, xmm0
  000ef	8b ce		 mov	 ecx, esi
  000f1	50		 push	 eax
  000f2	0f 5b c9	 cvtdq2ps xmm1, xmm1
  000f5	d9 5d bc	 fstp	 DWORD PTR _center_z$2[ebp]
; File D:\Metin2 Server Files\mainline\SRC_2014\M2Data\include\d3dx8math.inl

; 181  :     y = fy;

  000f8	f3 0f 11 45 e8	 movss	 DWORD PTR $T8[ebp+4], xmm0

; 182  :     z = fz;

  000fd	f3 0f 10 45 bc	 movss	 xmm0, DWORD PTR _center_z$2[ebp]
  00102	f3 0f 11 4d e4	 movss	 DWORD PTR $T8[ebp], xmm1
  00107	f3 0f 11 45 ec	 movss	 DWORD PTR $T8[ebp+8], xmm0
; File D:\Metin2 Server Files\mainline\SRC_2014\Metin2Client\UserInterface\InstanceBase.cpp

; 741  : 		NEW_SetPixelPosition(TPixelPosition(float(c_rkCreateData.m_lPosX), float(c_rkCreateData.m_lPosY), center_z));

  0010c	e8 00 00 00 00	 call	 ?NEW_SetPixelPosition@CInstanceBase@@QAEXABUD3DXVECTOR3@@@Z ; CInstanceBase::NEW_SetPixelPosition

; 742  : 	}

  00111	eb 25		 jmp	 SHORT $LN5@Create
$LN4@Create:
  00113	66 0f 6e 47 28	 movd	 xmm0, DWORD PTR [edi+40]

; 743  : 	else
; 744  : 	{
; 745  : 		SCRIPT_SetPixelPosition(float(c_rkCreateData.m_lPosX), float(c_rkCreateData.m_lPosY));

  00118	83 ec 08	 sub	 esp, 8
  0011b	0f 5b c0	 cvtdq2ps xmm0, xmm0
  0011e	8b ce		 mov	 ecx, esi
  00120	f3 0f 11 44 24
	04		 movss	 DWORD PTR [esp+4], xmm0
  00126	66 0f 6e 47 24	 movd	 xmm0, DWORD PTR [edi+36]
  0012b	0f 5b c0	 cvtdq2ps xmm0, xmm0
  0012e	f3 0f 11 04 24	 movss	 DWORD PTR [esp], xmm0
  00133	e8 00 00 00 00	 call	 ?SCRIPT_SetPixelPosition@CInstanceBase@@QAEXMM@Z ; CInstanceBase::SCRIPT_SetPixelPosition
$LN5@Create:

; 746  : 	}	
; 747  : 
; 748  : 	if (0 != c_rkCreateData.m_dwMountVnum)

  00138	8b 47 3c	 mov	 eax, DWORD PTR [edi+60]
  0013b	85 c0		 test	 eax, eax
  0013d	74 08		 je	 SHORT $LN6@Create

; 749  : 		MountHorse(c_rkCreateData.m_dwMountVnum);

  0013f	50		 push	 eax
  00140	8b ce		 mov	 ecx, esi
  00142	e8 00 00 00 00	 call	 ?MountHorse@CInstanceBase@@QAEXI@Z ; CInstanceBase::MountHorse
$LN6@Create:

; 750  : 
; 751  : 	SetArmor(c_rkCreateData.m_dwArmor);

  00147	ff 77 30	 push	 DWORD PTR [edi+48]
  0014a	8b ce		 mov	 ecx, esi
  0014c	e8 00 00 00 00	 call	 ?SetArmor@CInstanceBase@@QAEXK@Z ; CInstanceBase::SetArmor

; 752  : 
; 753  : 	if (IsPC())

  00151	8b ce		 mov	 ecx, esi
  00153	e8 00 00 00 00	 call	 ?IsPC@CInstanceBase@@QAEHXZ ; CInstanceBase::IsPC
  00158	85 c0		 test	 eax, eax
  0015a	74 14		 je	 SHORT $LN7@Create

; 754  : 	{
; 755  : 		SetHair(c_rkCreateData.m_dwHair);

  0015c	ff 77 38	 push	 DWORD PTR [edi+56]
  0015f	8b ce		 mov	 ecx, esi
  00161	e8 00 00 00 00	 call	 ?SetHair@CInstanceBase@@QAEXK@Z ; CInstanceBase::SetHair

; 756  : 		SetWeapon(c_rkCreateData.m_dwWeapon);

  00166	ff 77 34	 push	 DWORD PTR [edi+52]
  00169	8b ce		 mov	 ecx, esi
  0016b	e8 00 00 00 00	 call	 ?SetWeapon@CInstanceBase@@QAE_NK@Z ; CInstanceBase::SetWeapon
$LN7@Create:

; 757  : 	}
; 758  : 
; 759  : 	__Create_SetName(c_rkCreateData);

  00170	57		 push	 edi
  00171	8b ce		 mov	 ecx, esi
  00173	e8 00 00 00 00	 call	 ?__Create_SetName@CInstanceBase@@IAEXABUSCreateData@1@@Z ; CInstanceBase::__Create_SetName

; 760  : 
; 761  : 	m_dwLevel = c_rkCreateData.m_dwLevel;

  00178	8b 47 10	 mov	 eax, DWORD PTR [edi+16]

; 762  : 	m_dwGuildID = c_rkCreateData.m_dwGuildID;
; 763  : 	m_dwEmpireID = c_rkCreateData.m_dwEmpireID;
; 764  : 
; 765  : 	SetVirtualNumber(c_rkCreateData.m_dwRace);

  0017b	8b ce		 mov	 ecx, esi
  0017d	89 46 3c	 mov	 DWORD PTR [esi+60], eax
  00180	8b 47 0c	 mov	 eax, DWORD PTR [edi+12]
  00183	89 46 44	 mov	 DWORD PTR [esi+68], eax
  00186	8b 47 08	 mov	 eax, DWORD PTR [edi+8]
  00189	89 46 40	 mov	 DWORD PTR [esi+64], eax
  0018c	ff 77 18	 push	 DWORD PTR [edi+24]
  0018f	e8 00 00 00 00	 call	 ?SetVirtualNumber@CInstanceBase@@QAEXK@Z ; CInstanceBase::SetVirtualNumber

; 766  : 	SetRotation(c_rkCreateData.m_fRot);

  00194	f3 0f 10 47 2c	 movss	 xmm0, DWORD PTR [edi+44]
  00199	51		 push	 ecx
  0019a	8b ce		 mov	 ecx, esi
  0019c	f3 0f 11 04 24	 movss	 DWORD PTR [esp], xmm0
  001a1	e8 00 00 00 00	 call	 ?SetRotation@CInstanceBase@@QAEXM@Z ; CInstanceBase::SetRotation

; 767  : 
; 768  : 	SetAlignment(c_rkCreateData.m_sAlignment);

  001a6	0f b7 47 40	 movzx	 eax, WORD PTR [edi+64]
  001aa	8b ce		 mov	 ecx, esi
  001ac	50		 push	 eax
  001ad	e8 00 00 00 00	 call	 ?SetAlignment@CInstanceBase@@QAEXF@Z ; CInstanceBase::SetAlignment

; 769  : 	SetPKMode(c_rkCreateData.m_byPKMode);

  001b2	0f b6 47 42	 movzx	 eax, BYTE PTR [edi+66]
  001b6	8b ce		 mov	 ecx, esi
  001b8	50		 push	 eax
  001b9	e8 00 00 00 00	 call	 ?SetPKMode@CInstanceBase@@QAEXE@Z ; CInstanceBase::SetPKMode

; 770  : 
; 771  : 	SetMoveSpeed(c_rkCreateData.m_dwMovSpd);

  001be	ff 77 1c	 push	 DWORD PTR [edi+28]
  001c1	8b ce		 mov	 ecx, esi
  001c3	e8 00 00 00 00	 call	 ?SetMoveSpeed@CInstanceBase@@QAEXI@Z ; CInstanceBase::SetMoveSpeed

; 772  : 	SetAttackSpeed(c_rkCreateData.m_dwAtkSpd);

  001c8	ff 77 20	 push	 DWORD PTR [edi+32]
  001cb	8b ce		 mov	 ecx, esi
  001cd	e8 00 00 00 00	 call	 ?SetAttackSpeed@CInstanceBase@@QAEXI@Z ; CInstanceBase::SetAttackSpeed

; 773  : 	
; 774  : 	// NOTE : Dress    Alpha   .
; 775  : 	if (!IsWearingDress())

  001d2	8b ce		 mov	 ecx, esi
  001d4	8d 9e d4 01 00
	00		 lea	 ebx, DWORD PTR [esi+468]
  001da	e8 00 00 00 00	 call	 ?IsWearingDress@CInstanceBase@@QAEHXZ ; CInstanceBase::IsWearingDress
  001df	85 c0		 test	 eax, eax
  001e1	75 24		 jne	 SHORT $LN64@Create

; 776  : 	{
; 777  : 		// NOTE :  Affect    
; 778  : 		m_GraphicThingInstance.SetAlphaValue(0.0f);

  001e3	51		 push	 ecx
  001e4	8b cb		 mov	 ecx, ebx
  001e6	89 04 24	 mov	 DWORD PTR [esp], eax
  001e9	e8 00 00 00 00	 call	 ?SetAlphaValue@CActorInstance@@QAEXM@Z ; CActorInstance::SetAlphaValue

; 779  : 		m_GraphicThingInstance.BlendAlphaValue(1.0f, 0.5f);

  001ee	83 ec 08	 sub	 esp, 8
  001f1	8b cb		 mov	 ecx, ebx
  001f3	c7 44 24 04 00
	00 00 3f	 mov	 DWORD PTR [esp+4], 1056964608 ; 3f000000H
  001fb	c7 04 24 00 00
	80 3f		 mov	 DWORD PTR [esp], 1065353216 ; 3f800000H
  00202	e8 00 00 00 00	 call	 ?BlendAlphaValue@CActorInstance@@QAEXMM@Z ; CActorInstance::BlendAlphaValue
$LN64@Create:

; 780  : 	}
; 781  : 
; 782  : 	if (!IsGuildWall())

  00207	8b ce		 mov	 ecx, esi
  00209	e8 00 00 00 00	 call	 ?IsGuildWall@CInstanceBase@@QAEHXZ ; CInstanceBase::IsGuildWall
  0020e	85 c0		 test	 eax, eax
  00210	75 0b		 jne	 SHORT $LN9@Create

; 783  : 	{
; 784  : 		SetAffectFlagContainer(c_rkCreateData.m_kAffectFlags);

  00212	8d 47 43	 lea	 eax, DWORD PTR [edi+67]
  00215	8b ce		 mov	 ecx, esi
  00217	50		 push	 eax
  00218	e8 00 00 00 00	 call	 ?SetAffectFlagContainer@CInstanceBase@@QAEXABVCAffectFlagContainer@@@Z ; CInstanceBase::SetAffectFlagContainer
$LN9@Create:

; 785  : 	}	
; 786  : 
; 787  : 	// NOTE :  Affect    
; 788  : 	AttachTextTail();

  0021d	8b ce		 mov	 ecx, esi
  0021f	e8 00 00 00 00	 call	 ?AttachTextTail@CInstanceBase@@QAEXXZ ; CInstanceBase::AttachTextTail

; 789  : 	RefreshTextTail();

  00224	8b ce		 mov	 ecx, esi
  00226	e8 00 00 00 00	 call	 ?RefreshTextTail@CInstanceBase@@QAEXXZ ; CInstanceBase::RefreshTextTail

; 790  : 
; 791  : 	if (c_rkCreateData.m_dwStateFlags & ADD_CHARACTER_STATE_SPAWN) 

  0022b	f6 47 04 02	 test	 BYTE PTR [edi+4], 2
  0022f	74 39		 je	 SHORT $LN10@Create

; 792  : 	{
; 793  : 		if (IsAffect(AFFECT_SPAWN))

  00231	6a 02		 push	 2
  00233	8b ce		 mov	 ecx, esi
  00235	e8 00 00 00 00	 call	 ?IsAffect@CInstanceBase@@QAE_NI@Z ; CInstanceBase::IsAffect
  0023a	84 c0		 test	 al, al
  0023c	74 09		 je	 SHORT $LN12@Create

; 794  : 			__AttachEffect(EFFECT_SPAWN_APPEAR);

  0023e	6a 09		 push	 9
  00240	8b ce		 mov	 ecx, esi
  00242	e8 00 00 00 00	 call	 ?__AttachEffect@CInstanceBase@@IAEKI@Z ; CInstanceBase::__AttachEffect
$LN12@Create:

; 795  : 
; 796  : 		if (IsPC())

  00247	8b ce		 mov	 ecx, esi
  00249	e8 00 00 00 00	 call	 ?IsPC@CInstanceBase@@QAEHXZ ; CInstanceBase::IsPC
  0024e	85 c0		 test	 eax, eax
  00250	74 0c		 je	 SHORT $LN13@Create

; 797  : 		{
; 798  : 			Refresh(CRaceMotionData::NAME_WAIT, true);

  00252	b8 01 00 00 00	 mov	 eax, 1
  00257	8a c8		 mov	 cl, al

; 803  : 		}
; 804  : 	}

  00259	88 4d c4	 mov	 BYTE PTR $T4[ebp], cl
  0025c	eb 14		 jmp	 SHORT $LN11@Create
$LN13@Create:

; 799  : 		}
; 800  : 		else
; 801  : 		{
; 802  : 			Refresh(CRaceMotionData::NAME_SPAWN, false);

  0025e	32 c9		 xor	 cl, cl
  00260	b8 19 00 00 00	 mov	 eax, 25			; 00000019H

; 803  : 		}
; 804  : 	}

  00265	88 4d c4	 mov	 BYTE PTR $T4[ebp], cl
  00268	eb 08		 jmp	 SHORT $LN11@Create
$LN10@Create:

; 805  : 	else
; 806  : 	{
; 807  : 		Refresh(CRaceMotionData::NAME_WAIT, true);

  0026a	b8 01 00 00 00	 mov	 eax, 1
  0026f	88 45 c4	 mov	 BYTE PTR $T4[ebp], al
$LN11@Create:

; 808  : 	}
; 809  : 
; 810  : 	__AttachEmpireEffect(c_rkCreateData.m_dwEmpireID);

  00272	ff 75 c4	 push	 DWORD PTR $T4[ebp]
  00275	8b ce		 mov	 ecx, esi
  00277	50		 push	 eax
  00278	e8 00 00 00 00	 call	 ?Refresh@CInstanceBase@@QAEXK_N@Z ; CInstanceBase::Refresh
  0027d	ff 77 08	 push	 DWORD PTR [edi+8]
  00280	8b ce		 mov	 ecx, esi
  00282	e8 00 00 00 00	 call	 ?__AttachEmpireEffect@CInstanceBase@@IAEXK@Z ; CInstanceBase::__AttachEmpireEffect

; 811  : 
; 812  : 	RegisterBoundingSphere();

  00287	8b ce		 mov	 ecx, esi
  00289	e8 00 00 00 00	 call	 ?RegisterBoundingSphere@CInstanceBase@@QAEXXZ ; CInstanceBase::RegisterBoundingSphere

; 813  : 
; 814  : 	if (c_rkCreateData.m_dwStateFlags & ADD_CHARACTER_STATE_DEAD)

  0028e	8b 47 04	 mov	 eax, DWORD PTR [edi+4]
  00291	a8 01		 test	 al, 1
  00293	74 0a		 je	 SHORT $LN15@Create

; 815  : 		m_GraphicThingInstance.DieEnd();

  00295	8b cb		 mov	 ecx, ebx
  00297	e8 00 00 00 00	 call	 ?DieEnd@CActorInstance@@QAEXXZ ; CActorInstance::DieEnd
  0029c	8b 47 04	 mov	 eax, DWORD PTR [edi+4]
$LN15@Create:

; 816  : 
; 817  : 	SetStateFlags(c_rkCreateData.m_dwStateFlags);

  0029f	50		 push	 eax
  002a0	8b ce		 mov	 ecx, esi
  002a2	e8 00 00 00 00	 call	 ?SetStateFlags@CInstanceBase@@QAEXK@Z ; CInstanceBase::SetStateFlags

; 818  : 
; 819  : 	m_GraphicThingInstance.SetBattleHitEffect(ms_adwCRCAffectEffect[EFFECT_HIT]);

  002a7	ff 35 08 00 00
	00		 push	 DWORD PTR ?ms_adwCRCAffectEffect@CInstanceBase@@1PAKA+8
  002ad	8b cb		 mov	 ecx, ebx
  002af	e8 00 00 00 00	 call	 ?SetBattleHitEffect@CActorInstance@@QAEXK@Z ; CActorInstance::SetBattleHitEffect

; 820  : 
; 821  : 	if (!IsPC())

  002b4	8b ce		 mov	 ecx, esi
  002b6	e8 00 00 00 00	 call	 ?IsPC@CInstanceBase@@QAEHXZ ; CInstanceBase::IsPC
  002bb	85 c0		 test	 eax, eax
  002bd	0f 85 8a 00 00
	00		 jne	 $LN17@Create

; 822  : 	{
; 823  : 		DWORD dwBodyColor = CPythonNonPlayer::Instance().GetMonsterColor(c_rkCreateData.m_dwRace);

  002c3	ff 77 18	 push	 DWORD PTR [edi+24]
  002c6	8b 0d 00 00 00
	00		 mov	 ecx, DWORD PTR ?ms_singleton@?$CSingleton@VCPythonNonPlayer@@@@0PAVCPythonNonPlayer@@A ; CSingleton<CPythonNonPlayer>::ms_singleton
  002cc	e8 00 00 00 00	 call	 ?GetMonsterColor@CPythonNonPlayer@@QAEKK@Z ; CPythonNonPlayer::GetMonsterColor
  002d1	8b d8		 mov	 ebx, eax

; 824  : 		if (0 != dwBodyColor)

  002d3	85 db		 test	 ebx, ebx
  002d5	74 70		 je	 SHORT $LN66@Create

; 825  : 		{
; 826  : 			SetModulateRenderMode();

  002d7	8b ce		 mov	 ecx, esi
  002d9	e8 00 00 00 00	 call	 ?SetModulateRenderMode@CInstanceBase@@QAEXXZ ; CInstanceBase::SetModulateRenderMode
; File D:\Metin2 Server Files\mainline\SRC_2014\M2Data\include\d3dx8math.inl

; 888  :     r = f * (FLOAT) (unsigned char) (dw >> 16);

  002de	f3 0f 10 0d 00
	00 00 00	 movss	 xmm1, DWORD PTR __real@3b808081
  002e6	8b cb		 mov	 ecx, ebx
  002e8	c1 e9 10	 shr	 ecx, 16			; 00000010H

; 889  :     g = f * (FLOAT) (unsigned char) (dw >>  8);

  002eb	8b c3		 mov	 eax, ebx
  002ed	0f b6 c9	 movzx	 ecx, cl
  002f0	c1 e8 08	 shr	 eax, 8
  002f3	0f b6 c0	 movzx	 eax, al
  002f6	66 0f 6e c1	 movd	 xmm0, ecx
; File D:\Metin2 Server Files\mainline\SRC_2014\Metin2Client\UserInterface\InstanceBase.cpp

; 827  : 			SetAddColor(dwBodyColor);

  002fa	8b ce		 mov	 ecx, esi
; File D:\Metin2 Server Files\mainline\SRC_2014\M2Data\include\d3dx8math.inl

; 888  :     r = f * (FLOAT) (unsigned char) (dw >> 16);

  002fc	0f 5b c0	 cvtdq2ps xmm0, xmm0
  002ff	f3 0f 59 c1	 mulss	 xmm0, xmm1
  00303	f3 0f 11 45 e0	 movss	 DWORD PTR $T7[ebp], xmm0
  00308	66 0f 6e c0	 movd	 xmm0, eax

; 889  :     g = f * (FLOAT) (unsigned char) (dw >>  8);

  0030c	0f 5b c0	 cvtdq2ps xmm0, xmm0

; 890  :     b = f * (FLOAT) (unsigned char) (dw >>  0);

  0030f	0f b6 c3	 movzx	 eax, bl

; 891  :     a = f * (FLOAT) (unsigned char) (dw >> 24);

  00312	c1 eb 18	 shr	 ebx, 24			; 00000018H
  00315	f3 0f 59 c1	 mulss	 xmm0, xmm1
  00319	f3 0f 11 45 e4	 movss	 DWORD PTR $T7[ebp+4], xmm0
  0031e	66 0f 6e c0	 movd	 xmm0, eax
; File D:\Metin2 Server Files\mainline\SRC_2014\Metin2Client\UserInterface\InstanceBase.cpp

; 827  : 			SetAddColor(dwBodyColor);

  00322	8d 45 e0	 lea	 eax, DWORD PTR $T7[ebp]
; File D:\Metin2 Server Files\mainline\SRC_2014\M2Data\include\d3dx8math.inl

; 890  :     b = f * (FLOAT) (unsigned char) (dw >>  0);

  00325	0f 5b c0	 cvtdq2ps xmm0, xmm0
; File D:\Metin2 Server Files\mainline\SRC_2014\Metin2Client\UserInterface\InstanceBase.cpp

; 827  : 			SetAddColor(dwBodyColor);

  00328	50		 push	 eax
; File D:\Metin2 Server Files\mainline\SRC_2014\M2Data\include\d3dx8math.inl

; 890  :     b = f * (FLOAT) (unsigned char) (dw >>  0);

  00329	f3 0f 59 c1	 mulss	 xmm0, xmm1
  0032d	f3 0f 11 45 e8	 movss	 DWORD PTR $T7[ebp+8], xmm0
  00332	66 0f 6e c3	 movd	 xmm0, ebx

; 891  :     a = f * (FLOAT) (unsigned char) (dw >> 24);

  00336	0f 5b c0	 cvtdq2ps xmm0, xmm0
  00339	f3 0f 59 c1	 mulss	 xmm0, xmm1
  0033d	f3 0f 11 45 ec	 movss	 DWORD PTR $T7[ebp+12], xmm0
; File D:\Metin2 Server Files\mainline\SRC_2014\Metin2Client\UserInterface\InstanceBase.cpp

; 827  : 			SetAddColor(dwBodyColor);

  00342	e8 00 00 00 00	 call	 ?SetAddColor@CInstanceBase@@QAEXABUD3DXCOLOR@@@Z ; CInstanceBase::SetAddColor
$LN66@Create:

; 828  : 		}
; 829  : 	}
; 830  : 
; 831  : 	__AttachHorseSaddle();

  00347	8d 9e d4 01 00
	00		 lea	 ebx, DWORD PTR [esi+468]
$LN17@Create:
  0034d	8b ce		 mov	 ecx, esi
  0034f	e8 00 00 00 00	 call	 ?__AttachHorseSaddle@CInstanceBase@@IAEXXZ ; CInstanceBase::__AttachHorseSaddle

; 832  : 
; 833  : 	//     ,    
; 834  : 	const int c_iGuildSymbolRace = 14200;
; 835  : 	if (c_iGuildSymbolRace == GetRace())

  00354	8b ce		 mov	 ecx, esi
  00356	e8 00 00 00 00	 call	 ?GetRace@CInstanceBase@@QAEKXZ ; CInstanceBase::GetRace
  0035b	3d 78 37 00 00	 cmp	 eax, 14200		; 00003778H
  00360	0f 85 84 00 00
	00		 jne	 $LN58@Create

; 837  : 		std::string strFileName = GetGuildSymbolFileName(m_dwGuildID);

  00366	ff 76 44	 push	 DWORD PTR [esi+68]
  00369	e8 00 00 00 00	 call	 ?GetGuildSymbolFileName@@YAPBDK@Z ; GetGuildSymbolFileName
  0036e	8b d0		 mov	 edx, eax
; File C:\Program Files (x86)\Microsoft Visual Studio\2019\Community\VC\Tools\MSVC\14.28.29333\include\xstring

; 4377 :         _Mypair._Myval2._Mysize = 0;

  00370	c7 45 d8 00 00
	00 00		 mov	 DWORD PTR _strFileName$6[ebp+16], 0

; 389  :         return _CSTD strlen(reinterpret_cast<const char*>(_First));

  00377	8b ca		 mov	 ecx, edx

; 4378 :         _Mypair._Myval2._Myres  = _BUF_SIZE - 1;

  00379	c7 45 dc 0f 00
	00 00		 mov	 DWORD PTR _strFileName$6[ebp+20], 15 ; 0000000fH
; File D:\Metin2 Server Files\mainline\SRC_2014\Metin2Client\UserInterface\InstanceBase.cpp

; 837  : 		std::string strFileName = GetGuildSymbolFileName(m_dwGuildID);

  00380	83 c4 04	 add	 esp, 4
; File C:\Program Files (x86)\Microsoft Visual Studio\2019\Community\VC\Tools\MSVC\14.28.29333\include\xstring

; 4380 :         _Traits::assign(_Mypair._Myval2._Bx._Buf[0], _Elem());

  00383	c6 45 c8 00	 mov	 BYTE PTR _strFileName$6[ebp], 0

; 389  :         return _CSTD strlen(reinterpret_cast<const char*>(_First));

  00387	8d 71 01	 lea	 esi, DWORD PTR [ecx+1]
  0038a	66 0f 1f 44 00
	00		 npad	 6
$LL65@Create:
  00390	8a 01		 mov	 al, BYTE PTR [ecx]
  00392	41		 inc	 ecx
  00393	84 c0		 test	 al, al
  00395	75 f9		 jne	 SHORT $LL65@Create
  00397	2b ce		 sub	 ecx, esi

; 3062 :         return assign(_Ptr, _Convert_size<size_type>(_Traits::length(_Ptr)));

  00399	51		 push	 ecx
  0039a	52		 push	 edx
  0039b	8d 4d c8	 lea	 ecx, DWORD PTR _strFileName$6[ebp]
  0039e	e8 00 00 00 00	 call	 ?assign@?$basic_string@DU?$char_traits@D@std@@V?$allocator@D@2@@std@@QAEAAV12@QBDI@Z ; std::basic_string<char,std::char_traits<char>,std::allocator<char> >::assign

; 2227 :         return _BUF_SIZE <= _Myres;

  003a3	83 7d dc 10	 cmp	 DWORD PTR _strFileName$6[ebp+20], 16 ; 00000010H

; 2218 :         const value_type* _Result = _Bx._Buf;

  003a7	8d 45 c8	 lea	 eax, DWORD PTR _strFileName$6[ebp]
; File D:\Metin2 Server Files\mainline\SRC_2014\Metin2Client\UserInterface\InstanceBase.cpp

; 837  : 		std::string strFileName = GetGuildSymbolFileName(m_dwGuildID);

  003aa	c7 45 fc 00 00
	00 00		 mov	 DWORD PTR __$EHRec$[ebp+8], 0
; File C:\Program Files (x86)\Microsoft Visual Studio\2019\Community\VC\Tools\MSVC\14.28.29333\include\xstring

; 2219 :         if (_Large_string_engaged()) {

  003b1	0f 43 45 c8	 cmovae	 eax, DWORD PTR _strFileName$6[ebp]
; File D:\Metin2 Server Files\mainline\SRC_2014\Metin2Client\UserInterface\InstanceBase.cpp

; 838  : 		if (IsFile(strFileName.c_str()))

  003b5	50		 push	 eax
  003b6	e8 00 00 00 00	 call	 ?IsFile@@YA_NPBD@Z	; IsFile
  003bb	83 c4 04	 add	 esp, 4
  003be	84 c0		 test	 al, al
  003c0	74 13		 je	 SHORT $LN19@Create
; File C:\Program Files (x86)\Microsoft Visual Studio\2019\Community\VC\Tools\MSVC\14.28.29333\include\xstring

; 2227 :         return _BUF_SIZE <= _Myres;

  003c2	83 7d dc 10	 cmp	 DWORD PTR _strFileName$6[ebp+20], 16 ; 00000010H

; 2218 :         const value_type* _Result = _Bx._Buf;

  003c6	8d 45 c8	 lea	 eax, DWORD PTR _strFileName$6[ebp]
; File D:\Metin2 Server Files\mainline\SRC_2014\Metin2Client\UserInterface\InstanceBase.cpp

; 839  : 			m_GraphicThingInstance.ChangeMaterial(strFileName.c_str());

  003c9	8b cb		 mov	 ecx, ebx
; File C:\Program Files (x86)\Microsoft Visual Studio\2019\Community\VC\Tools\MSVC\14.28.29333\include\xstring

; 2219 :         if (_Large_string_engaged()) {

  003cb	0f 43 45 c8	 cmovae	 eax, DWORD PTR _strFileName$6[ebp]
; File D:\Metin2 Server Files\mainline\SRC_2014\Metin2Client\UserInterface\InstanceBase.cpp

; 839  : 			m_GraphicThingInstance.ChangeMaterial(strFileName.c_str());

  003cf	50		 push	 eax
  003d0	e8 00 00 00 00	 call	 ?ChangeMaterial@CActorInstance@@QAEXPBD@Z ; CActorInstance::ChangeMaterial
$LN19@Create:
; File C:\Program Files (x86)\Microsoft Visual Studio\2019\Community\VC\Tools\MSVC\14.28.29333\include\xstring

; 2227 :         return _BUF_SIZE <= _Myres;

  003d5	8b 45 dc	 mov	 eax, DWORD PTR _strFileName$6[ebp+20]
  003d8	83 f8 10	 cmp	 eax, 16			; 00000010H

; 4385 :         if (_Mypair._Myval2._Large_string_engaged()) {

  003db	72 0d		 jb	 SHORT $LN58@Create

; 4386 :             const pointer _Ptr = _Mypair._Myval2._Bx._Ptr;
; 4387 :             auto& _Al          = _Getal();
; 4388 :             _Destroy_in_place(_Mypair._Myval2._Bx._Ptr);
; 4389 :             _Al.deallocate(_Ptr, _Mypair._Myval2._Myres + 1);

  003dd	40		 inc	 eax
; File C:\Program Files (x86)\Microsoft Visual Studio\2019\Community\VC\Tools\MSVC\14.28.29333\include\xmemory

; 810  :         _Deallocate<_New_alignof<_Ty>>(_Ptr, sizeof(_Ty) * _Count);

  003de	50		 push	 eax
  003df	ff 75 c8	 push	 DWORD PTR _strFileName$6[ebp]
  003e2	e8 00 00 00 00	 call	 ??$_Deallocate@$07$0A@@std@@YAXPAXI@Z ; std::_Deallocate<8,0>
  003e7	83 c4 08	 add	 esp, 8
$LN58@Create:
; File D:\Metin2 Server Files\mainline\SRC_2014\Metin2Client\UserInterface\InstanceBase.cpp

; 842  : 	return true;

  003ea	b0 01		 mov	 al, 1
$LN1@Create:

; 843  : }

  003ec	8b 4d f4	 mov	 ecx, DWORD PTR __$EHRec$[ebp]
  003ef	64 89 0d 00 00
	00 00		 mov	 DWORD PTR fs:0, ecx
  003f6	59		 pop	 ecx
  003f7	5f		 pop	 edi
  003f8	5e		 pop	 esi
  003f9	5b		 pop	 ebx
  003fa	8b 4d f0	 mov	 ecx, DWORD PTR __$ArrayPad$[ebp]
  003fd	33 cd		 xor	 ecx, ebp
  003ff	e8 00 00 00 00	 call	 @__security_check_cookie@4
  00404	8b e5		 mov	 esp, ebp
  00406	5d		 pop	 ebp
  00407	c2 04 00	 ret	 4
_TEXT	ENDS
;	COMDAT text$x
text$x	SEGMENT
__unwindfunclet$?Create@CInstanceBase@@QAE_NABUSCreateData@1@@Z$0:
  00000	8d 4d c8	 lea	 ecx, DWORD PTR _strFileName$6[ebp]
  00003	e9 00 00 00 00	 jmp	 ??1?$basic_string@DU?$char_traits@D@std@@V?$allocator@D@2@@std@@QAE@XZ ; std::basic_string<char,std::char_traits<char>,std::allocator<char> >::~basic_string<char,std::char_traits<char>,std::allocator<char> >
  00008	cc		 int	 3
  00009	cc		 int	 3
  0000a	cc		 int	 3
  0000b	cc		 int	 3
  0000c	cc		 int	 3
__ehhandler$?Create@CInstanceBase@@QAE_NABUSCreateData@1@@Z:
  0000d	90		 npad	 1
  0000e	90		 npad	 1
  0000f	8b 54 24 08	 mov	 edx, DWORD PTR [esp+8]
  00013	8d 42 0c	 lea	 eax, DWORD PTR [edx+12]
  00016	8b 4a b8	 mov	 ecx, DWORD PTR [edx-72]
  00019	33 c8		 xor	 ecx, eax
  0001b	e8 00 00 00 00	 call	 @__security_check_cookie@4
  00020	8b 4a fc	 mov	 ecx, DWORD PTR [edx-4]
  00023	33 c8		 xor	 ecx, eax
  00025	e8 00 00 00 00	 call	 @__security_check_cookie@4
  0002a	b8 00 00 00 00	 mov	 eax, OFFSET __ehfuncinfo$?Create@CInstanceBase@@QAE_NABUSCreateData@1@@Z
  0002f	e9 00 00 00 00	 jmp	 ___CxxFrameHandler3
text$x	ENDS
?Create@CInstanceBase@@QAE_NABUSCreateData@1@@Z ENDP	; CInstanceBase::Create
; Function compile flags: /Ogtp
; File D:\Metin2 Server Files\mainline\SRC_2014\Metin2Client\UserInterface\InstanceBase.cpp
;	COMDAT ?CalculateDistanceSq3d@CInstanceBase@@QAEMABUD3DXVECTOR3@@@Z
_TEXT	SEGMENT
_c_rkPPosDst$ = 8					; size = 4
?CalculateDistanceSq3d@CInstanceBase@@QAEMABUD3DXVECTOR3@@@Z PROC ; CInstanceBase::CalculateDistanceSq3d, COMDAT
; _this$ = ecx

; 574  : {

  00000	55		 push	 ebp
  00001	8b ec		 mov	 ebp, esp

; 575  : 	const TPixelPosition& c_rkPPosSrc=m_GraphicThingInstance.NEW_GetCurPixelPositionRef();

  00003	81 c1 d4 01 00
	00		 add	 ecx, 468		; 000001d4H
  00009	e8 00 00 00 00	 call	 ?NEW_GetCurPixelPositionRef@CActorInstance@@QAEABUD3DXVECTOR3@@XZ ; CActorInstance::NEW_GetCurPixelPositionRef

; 576  : 	return SPixelPosition_CalculateDistanceSq3d(c_rkPPosSrc, c_rkPPosDst);

  0000e	ff 75 08	 push	 DWORD PTR _c_rkPPosDst$[ebp]
  00011	50		 push	 eax
  00012	e8 00 00 00 00	 call	 ?SPixelPosition_CalculateDistanceSq3d@@YAMABUD3DXVECTOR3@@0@Z ; SPixelPosition_CalculateDistanceSq3d
  00017	83 c4 08	 add	 esp, 8

; 577  : }

  0001a	5d		 pop	 ebp
  0001b	c2 04 00	 ret	 4
?CalculateDistanceSq3d@CInstanceBase@@QAEMABUD3DXVECTOR3@@@Z ENDP ; CInstanceBase::CalculateDistanceSq3d
_TEXT	ENDS
; Function compile flags: /Ogtp
; File D:\Metin2 Server Files\mainline\SRC_2014\Metin2Client\UserInterface\InstanceBase.cpp
;	COMDAT ?DismountHorse@CInstanceBase@@QAEXXZ
_TEXT	SEGMENT
?DismountHorse@CInstanceBase@@QAEXXZ PROC		; CInstanceBase::DismountHorse, COMDAT
; _this$ = ecx

; 962  : 	m_kHorse.Destroy();

  00000	83 c1 04	 add	 ecx, 4
  00003	e9 00 00 00 00	 jmp	 ?Destroy@SHORSE@CInstanceBase@@QAEXXZ ; CInstanceBase::SHORSE::Destroy
?DismountHorse@CInstanceBase@@QAEXXZ ENDP		; CInstanceBase::DismountHorse
_TEXT	ENDS
; Function compile flags: /Ogtp
; File D:\Metin2 Server Files\mainline\SRC_2014\Metin2Client\UserInterface\InstanceBase.cpp
;	COMDAT ?MountHorse@CInstanceBase@@QAEXI@Z
_TEXT	SEGMENT
_eRace$ = 8						; size = 4
?MountHorse@CInstanceBase@@QAEXI@Z PROC			; CInstanceBase::MountHorse, COMDAT
; _this$ = ecx

; 948  : {

  00000	55		 push	 ebp
  00001	8b ec		 mov	 ebp, esp
  00003	53		 push	 ebx
  00004	56		 push	 esi
  00005	8b f1		 mov	 esi, ecx
  00007	57		 push	 edi

; 949  : 	m_kHorse.Destroy();

  00008	8d 4e 04	 lea	 ecx, DWORD PTR [esi+4]
  0000b	e8 00 00 00 00	 call	 ?Destroy@SHORSE@CInstanceBase@@QAEXXZ ; CInstanceBase::SHORSE::Destroy

; 950  : 	m_kHorse.Create(m_GraphicThingInstance.NEW_GetCurPixelPositionRef(), eRace, ms_adwCRCAffectEffect[EFFECT_HIT]);

  00010	ff 35 08 00 00
	00		 push	 DWORD PTR ?ms_adwCRCAffectEffect@CInstanceBase@@1PAKA+8
  00016	8d 8e d4 01 00
	00		 lea	 ecx, DWORD PTR [esi+468]
  0001c	ff 75 08	 push	 DWORD PTR _eRace$[ebp]
  0001f	e8 00 00 00 00	 call	 ?NEW_GetCurPixelPositionRef@CActorInstance@@QAEABUD3DXVECTOR3@@XZ ; CActorInstance::NEW_GetCurPixelPositionRef
  00024	50		 push	 eax
  00025	8d 4e 04	 lea	 ecx, DWORD PTR [esi+4]
  00028	e8 00 00 00 00	 call	 ?Create@SHORSE@CInstanceBase@@QAEXABUD3DXVECTOR3@@II@Z ; CInstanceBase::SHORSE::Create

; 951  : 
; 952  : 	SetMotionMode(CRaceMotionData::MODE_HORSE);	

  0002d	6a 09		 push	 9
  0002f	8b ce		 mov	 ecx, esi
  00031	e8 00 00 00 00	 call	 ?SetMotionMode@CInstanceBase@@QAEXH@Z ; CInstanceBase::SetMotionMode

; 953  : 	SetRotationSpeed(c_fDefaultHorseRotationSpeed);

  00036	51		 push	 ecx
  00037	8b ce		 mov	 ecx, esi
  00039	c7 04 24 00 00
	96 43		 mov	 DWORD PTR [esp], 1133903872 ; 43960000H
  00040	e8 00 00 00 00	 call	 ?SetRotationSpeed@CInstanceBase@@QAEXM@Z ; CInstanceBase::SetRotationSpeed

; 954  : 
; 955  : 	m_GraphicThingInstance.MountHorse(m_kHorse.GetActorPtr());

  00045	8d 4e 04	 lea	 ecx, DWORD PTR [esi+4]
  00048	e8 00 00 00 00	 call	 ?GetActorPtr@SHORSE@CInstanceBase@@QAEPAVCActorInstance@@XZ ; CInstanceBase::SHORSE::GetActorPtr
  0004d	50		 push	 eax
  0004e	8d 8e d4 01 00
	00		 lea	 ecx, DWORD PTR [esi+468]
  00054	e8 00 00 00 00	 call	 ?MountHorse@CActorInstance@@QAEXPAV1@@Z ; CActorInstance::MountHorse

; 956  : 	m_GraphicThingInstance.Stop();

  00059	51		 push	 ecx
  0005a	8d 8e d4 01 00
	00		 lea	 ecx, DWORD PTR [esi+468]
  00060	c7 04 24 9a 99
	19 3e		 mov	 DWORD PTR [esp], 1041865114 ; 3e19999aH
  00067	e8 00 00 00 00	 call	 ?Stop@CActorInstance@@QAEXM@Z ; CActorInstance::Stop

; 957  : 	m_GraphicThingInstance.RefreshActorInstance();

  0006c	8d 8e d4 01 00
	00		 lea	 ecx, DWORD PTR [esi+468]
  00072	e8 00 00 00 00	 call	 ?RefreshActorInstance@CActorInstance@@QAEXXZ ; CActorInstance::RefreshActorInstance
  00077	5f		 pop	 edi
  00078	5e		 pop	 esi
  00079	5b		 pop	 ebx

; 958  : }

  0007a	5d		 pop	 ebp
  0007b	c2 04 00	 ret	 4
?MountHorse@CInstanceBase@@QAEXI@Z ENDP			; CInstanceBase::MountHorse
_TEXT	ENDS
; Function compile flags: /Ogtp
; File D:\Metin2 Server Files\mainline\SRC_2014\Metin2Client\UserInterface\InstanceBase.cpp
;	COMDAT ?LessRenderOrder@CInstanceBase@@QAE_NPAV1@@Z
_TEXT	SEGMENT
tv194 = -4						; size = 4
tv168 = -4						; size = 4
tv187 = 8						; size = 4
_pkInst$ = 8						; size = 4
?LessRenderOrder@CInstanceBase@@QAE_NPAV1@@Z PROC	; CInstanceBase::LessRenderOrder, COMDAT
; _this$ = ecx

; 322  : {

  00000	55		 push	 ebp
  00001	8b ec		 mov	 ebp, esp
  00003	51		 push	 ecx
  00004	53		 push	 ebx
  00005	56		 push	 esi
  00006	57		 push	 edi
  00007	8b f9		 mov	 edi, ecx

; 323  : 	int nMainAlpha=(__GetAlphaValue() < 1.0f) ? 1 : 0;

  00009	e8 00 00 00 00	 call	 ?__GetAlphaValue@CInstanceBase@@IAEMXZ ; CInstanceBase::__GetAlphaValue
  0000e	f3 0f 10 05 00
	00 00 00	 movss	 xmm0, DWORD PTR __real@3f800000
  00016	33 c0		 xor	 eax, eax

; 324  : 	int nTestAlpha=(pkInst->__GetAlphaValue() < 1.0f) ? 1 : 0;

  00018	8b 5d 08	 mov	 ebx, DWORD PTR _pkInst$[ebp]
  0001b	8b cb		 mov	 ecx, ebx
  0001d	d9 5d fc	 fstp	 DWORD PTR tv194[ebp]
  00020	0f 2f 45 fc	 comiss	 xmm0, DWORD PTR tv194[ebp]
  00024	0f 97 c0	 seta	 al
  00027	89 45 fc	 mov	 DWORD PTR tv168[ebp], eax
  0002a	e8 00 00 00 00	 call	 ?__GetAlphaValue@CInstanceBase@@IAEMXZ ; CInstanceBase::__GetAlphaValue
  0002f	f3 0f 10 05 00
	00 00 00	 movss	 xmm0, DWORD PTR __real@3f800000
  00037	33 c9		 xor	 ecx, ecx

; 325  : 	if (nMainAlpha < nTestAlpha)

  00039	8b 45 fc	 mov	 eax, DWORD PTR tv168[ebp]
  0003c	d9 5d 08	 fstp	 DWORD PTR tv187[ebp]
  0003f	0f 2f 45 08	 comiss	 xmm0, DWORD PTR tv187[ebp]
  00043	0f 97 c1	 seta	 cl
  00046	3b c1		 cmp	 eax, ecx
  00048	72 7b		 jb	 SHORT $LN12@LessRender

; 326  : 		return true;
; 327  : 	if (nMainAlpha > nTestAlpha)

  0004a	77 6e		 ja	 SHORT $LN10@LessRender

; 328  : 		return false;
; 329  : 
; 330  : 	if (GetRace()<pkInst->GetRace())

  0004c	8b cb		 mov	 ecx, ebx
  0004e	e8 00 00 00 00	 call	 ?GetRace@CInstanceBase@@QAEKXZ ; CInstanceBase::GetRace
  00053	8b cf		 mov	 ecx, edi
  00055	8b f0		 mov	 esi, eax
  00057	e8 00 00 00 00	 call	 ?GetRace@CInstanceBase@@QAEKXZ ; CInstanceBase::GetRace
  0005c	3b c6		 cmp	 eax, esi
  0005e	72 65		 jb	 SHORT $LN12@LessRender

; 331  : 		return true;
; 332  : 	if (GetRace()>pkInst->GetRace())

  00060	8b cb		 mov	 ecx, ebx
  00062	e8 00 00 00 00	 call	 ?GetRace@CInstanceBase@@QAEKXZ ; CInstanceBase::GetRace
  00067	8b cf		 mov	 ecx, edi
  00069	8b f0		 mov	 esi, eax
  0006b	e8 00 00 00 00	 call	 ?GetRace@CInstanceBase@@QAEKXZ ; CInstanceBase::GetRace
  00070	3b c6		 cmp	 eax, esi
  00072	77 46		 ja	 SHORT $LN10@LessRender

; 333  : 		return false;
; 334  : 
; 335  : 	if (GetShape()<pkInst->GetShape())

  00074	8b cb		 mov	 ecx, ebx
  00076	e8 00 00 00 00	 call	 ?GetShape@CInstanceBase@@QAEKXZ ; CInstanceBase::GetShape
  0007b	8b cf		 mov	 ecx, edi
  0007d	8b f0		 mov	 esi, eax
  0007f	e8 00 00 00 00	 call	 ?GetShape@CInstanceBase@@QAEKXZ ; CInstanceBase::GetShape
  00084	3b c6		 cmp	 eax, esi
  00086	72 3d		 jb	 SHORT $LN12@LessRender

; 336  : 		return true;
; 337  : 
; 338  : 	if (GetShape()>pkInst->GetShape())

  00088	8b cb		 mov	 ecx, ebx
  0008a	e8 00 00 00 00	 call	 ?GetShape@CInstanceBase@@QAEKXZ ; CInstanceBase::GetShape
  0008f	8b cf		 mov	 ecx, edi
  00091	8b f0		 mov	 esi, eax
  00093	e8 00 00 00 00	 call	 ?GetShape@CInstanceBase@@QAEKXZ ; CInstanceBase::GetShape
  00098	3b c6		 cmp	 eax, esi
  0009a	77 1e		 ja	 SHORT $LN10@LessRender

; 339  : 		return false;
; 340  : 
; 341  : 	UINT uLeftLODLevel=__LessRenderOrder_GetLODLevel();

  0009c	8b cf		 mov	 ecx, edi
  0009e	e8 00 00 00 00	 call	 ?__LessRenderOrder_GetLODLevel@CInstanceBase@@IAEIXZ ; CInstanceBase::__LessRenderOrder_GetLODLevel

; 342  : 	UINT uRightLODLevel=pkInst->__LessRenderOrder_GetLODLevel();

  000a3	8b cb		 mov	 ecx, ebx
  000a5	8b f0		 mov	 esi, eax
  000a7	e8 00 00 00 00	 call	 ?__LessRenderOrder_GetLODLevel@CInstanceBase@@IAEIXZ ; CInstanceBase::__LessRenderOrder_GetLODLevel

; 343  : 	if (uLeftLODLevel<uRightLODLevel)

  000ac	3b f0		 cmp	 esi, eax
  000ae	72 15		 jb	 SHORT $LN12@LessRender

; 344  : 		return true;
; 345  : 	if (uLeftLODLevel>uRightLODLevel)

  000b0	77 08		 ja	 SHORT $LN10@LessRender

; 346  : 		return false;
; 347  : 
; 348  : 	if (m_awPart[CRaceData::PART_WEAPON]<pkInst->m_awPart[CRaceData::PART_WEAPON])

  000b2	8b 47 2c	 mov	 eax, DWORD PTR [edi+44]
  000b5	3b 43 2c	 cmp	 eax, DWORD PTR [ebx+44]
  000b8	72 0b		 jb	 SHORT $LN12@LessRender
$LN10@LessRender:
  000ba	5f		 pop	 edi

; 349  : 		return true;
; 350  : 
; 351  : 	return false;
; 352  : }

  000bb	5e		 pop	 esi
  000bc	32 c0		 xor	 al, al
  000be	5b		 pop	 ebx
  000bf	8b e5		 mov	 esp, ebp
  000c1	5d		 pop	 ebp
  000c2	c2 04 00	 ret	 4
$LN12@LessRender:
  000c5	5f		 pop	 edi
  000c6	5e		 pop	 esi
  000c7	b0 01		 mov	 al, 1
  000c9	5b		 pop	 ebx
  000ca	8b e5		 mov	 esp, ebp
  000cc	5d		 pop	 ebp
  000cd	c2 04 00	 ret	 4
?LessRenderOrder@CInstanceBase@@QAE_NPAV1@@Z ENDP	; CInstanceBase::LessRenderOrder
_TEXT	ENDS
; Function compile flags: /Ogtp
; File D:\Metin2 Server Files\mainline\SRC_2014\Metin2Client\UserInterface\InstanceBase.cpp
; File C:\Program Files (x86)\Microsoft Visual Studio\2019\Community\VC\Tools\MSVC\14.28.29333\include\list
; File C:\Program Files (x86)\Microsoft Visual Studio\2019\Community\VC\Tools\MSVC\14.28.29333\include\xmemory
; File C:\Program Files (x86)\Microsoft Visual Studio\2019\Community\VC\Tools\MSVC\14.28.29333\include\list
; File C:\Program Files (x86)\Microsoft Visual Studio\2019\Community\VC\Tools\MSVC\14.28.29333\include\xmemory
; File C:\Program Files (x86)\Microsoft Visual Studio\2019\Community\VC\Tools\MSVC\14.28.29333\include\list
; File C:\Program Files (x86)\Microsoft Visual Studio\2019\Community\VC\Tools\MSVC\14.28.29333\include\xmemory
; File C:\Program Files (x86)\Microsoft Visual Studio\2019\Community\VC\Tools\MSVC\14.28.29333\include\list
; File C:\Program Files (x86)\Microsoft Visual Studio\2019\Community\VC\Tools\MSVC\14.28.29333\include\xmemory
; File C:\Program Files (x86)\Microsoft Visual Studio\2019\Community\VC\Tools\MSVC\14.28.29333\include\list
; File C:\Program Files (x86)\Microsoft Visual Studio\2019\Community\VC\Tools\MSVC\14.28.29333\include\xmemory
; File D:\Metin2 Server Files\mainline\SRC_2014\Metin2Client\UserInterface\InstanceBase.cpp
; File C:\Program Files (x86)\Microsoft Visual Studio\2019\Community\VC\Tools\MSVC\14.28.29333\include\xstring
; File C:\Program Files (x86)\Microsoft Visual Studio\2019\Community\VC\Tools\MSVC\14.28.29333\include\xmemory
; File C:\Program Files (x86)\Microsoft Visual Studio\2019\Community\VC\Tools\MSVC\14.28.29333\include\xstring
; File D:\Metin2 Server Files\mainline\SRC_2014\Metin2Client\UserInterface\InstanceBase.cpp
;	COMDAT ??1CInstanceBase@@UAE@XZ
_TEXT	SEGMENT
__$EHRec$ = -12						; size = 12
??1CInstanceBase@@UAE@XZ PROC				; CInstanceBase::~CInstanceBase, COMDAT
; _this$ = ecx

; 3105 : {

  00000	55		 push	 ebp
  00001	8b ec		 mov	 ebp, esp
  00003	6a ff		 push	 -1
  00005	68 00 00 00 00	 push	 __ehhandler$??1CInstanceBase@@UAE@XZ
  0000a	64 a1 00 00 00
	00		 mov	 eax, DWORD PTR fs:0
  00010	50		 push	 eax
  00011	56		 push	 esi
  00012	57		 push	 edi
  00013	a1 00 00 00 00	 mov	 eax, DWORD PTR ___security_cookie
  00018	33 c5		 xor	 eax, ebp
  0001a	50		 push	 eax
  0001b	8d 45 f4	 lea	 eax, DWORD PTR __$EHRec$[ebp]
  0001e	64 a3 00 00 00
	00		 mov	 DWORD PTR fs:0, eax
  00024	8b f9		 mov	 edi, ecx
  00026	c7 07 00 00 00
	00		 mov	 DWORD PTR [edi], OFFSET ??_7CInstanceBase@@6B@

; 3106 : 	Destroy();

  0002c	e8 00 00 00 00	 call	 ?Destroy@CInstanceBase@@QAEXXZ ; CInstanceBase::Destroy
; File C:\Program Files (x86)\Microsoft Visual Studio\2019\Community\VC\Tools\MSVC\14.28.29333\include\list

; 1440 :         _Node::_Free_non_head(_Al, _My_data._Myhead);

  00031	8b 97 9c 06 00
	00		 mov	 edx, DWORD PTR [edi+1692]

; 324  :         _Head->_Prev->_Next = nullptr;

  00037	8b 42 04	 mov	 eax, DWORD PTR [edx+4]
  0003a	c7 00 00 00 00
	00		 mov	 DWORD PTR [eax], 0

; 325  : 
; 326  :         auto _Pnode = _Head->_Next;

  00040	8b 02		 mov	 eax, DWORD PTR [edx]

; 327  :         for (_Nodeptr _Pnext; _Pnode; _Pnode = _Pnext) {

  00042	85 c0		 test	 eax, eax
  00044	74 13		 je	 SHORT $LN9@CInstanceB
$LL10@CInstanceB:

; 328  :             _Pnext = _Pnode->_Next;

  00046	8b 30		 mov	 esi, DWORD PTR [eax]
; File C:\Program Files (x86)\Microsoft Visual Studio\2019\Community\VC\Tools\MSVC\14.28.29333\include\xmemory

; 696  :         _Deallocate<_New_alignof<value_type>>(_Ptr, sizeof(value_type) * _Count);

  00048	6a 18		 push	 24			; 00000018H
  0004a	50		 push	 eax
  0004b	e8 00 00 00 00	 call	 ??$_Deallocate@$07$0A@@std@@YAXPAXI@Z ; std::_Deallocate<8,0>
  00050	83 c4 08	 add	 esp, 8
; File C:\Program Files (x86)\Microsoft Visual Studio\2019\Community\VC\Tools\MSVC\14.28.29333\include\list

; 327  :         for (_Nodeptr _Pnext; _Pnode; _Pnode = _Pnext) {

  00053	8b c6		 mov	 eax, esi
  00055	85 f6		 test	 esi, esi
  00057	75 ed		 jne	 SHORT $LL10@CInstanceB
$LN9@CInstanceB:
; File C:\Program Files (x86)\Microsoft Visual Studio\2019\Community\VC\Tools\MSVC\14.28.29333\include\xmemory

; 696  :         _Deallocate<_New_alignof<value_type>>(_Ptr, sizeof(value_type) * _Count);

  00059	6a 18		 push	 24			; 00000018H
  0005b	ff b7 9c 06 00
	00		 push	 DWORD PTR [edi+1692]
  00061	e8 00 00 00 00	 call	 ??$_Deallocate@$07$0A@@std@@YAXPAXI@Z ; std::_Deallocate<8,0>
; File C:\Program Files (x86)\Microsoft Visual Studio\2019\Community\VC\Tools\MSVC\14.28.29333\include\list

; 1440 :         _Node::_Free_non_head(_Al, _My_data._Myhead);

  00066	8b 8f 90 06 00
	00		 mov	 ecx, DWORD PTR [edi+1680]
; File C:\Program Files (x86)\Microsoft Visual Studio\2019\Community\VC\Tools\MSVC\14.28.29333\include\xmemory

; 696  :         _Deallocate<_New_alignof<value_type>>(_Ptr, sizeof(value_type) * _Count);

  0006c	83 c4 08	 add	 esp, 8
; File C:\Program Files (x86)\Microsoft Visual Studio\2019\Community\VC\Tools\MSVC\14.28.29333\include\list

; 324  :         _Head->_Prev->_Next = nullptr;

  0006f	8b 41 04	 mov	 eax, DWORD PTR [ecx+4]
  00072	c7 00 00 00 00
	00		 mov	 DWORD PTR [eax], 0

; 325  : 
; 326  :         auto _Pnode = _Head->_Next;

  00078	8b 01		 mov	 eax, DWORD PTR [ecx]

; 327  :         for (_Nodeptr _Pnext; _Pnode; _Pnode = _Pnext) {

  0007a	85 c0		 test	 eax, eax
  0007c	74 15		 je	 SHORT $LN28@CInstanceB
  0007e	66 90		 npad	 2
$LL29@CInstanceB:

; 328  :             _Pnext = _Pnode->_Next;

  00080	8b 30		 mov	 esi, DWORD PTR [eax]
; File C:\Program Files (x86)\Microsoft Visual Studio\2019\Community\VC\Tools\MSVC\14.28.29333\include\xmemory

; 696  :         _Deallocate<_New_alignof<value_type>>(_Ptr, sizeof(value_type) * _Count);

  00082	6a 2c		 push	 44			; 0000002cH
  00084	50		 push	 eax
  00085	e8 00 00 00 00	 call	 ??$_Deallocate@$07$0A@@std@@YAXPAXI@Z ; std::_Deallocate<8,0>
  0008a	83 c4 08	 add	 esp, 8
; File C:\Program Files (x86)\Microsoft Visual Studio\2019\Community\VC\Tools\MSVC\14.28.29333\include\list

; 327  :         for (_Nodeptr _Pnext; _Pnode; _Pnode = _Pnext) {

  0008d	8b c6		 mov	 eax, esi
  0008f	85 f6		 test	 esi, esi
  00091	75 ed		 jne	 SHORT $LL29@CInstanceB
$LN28@CInstanceB:
; File C:\Program Files (x86)\Microsoft Visual Studio\2019\Community\VC\Tools\MSVC\14.28.29333\include\xmemory

; 696  :         _Deallocate<_New_alignof<value_type>>(_Ptr, sizeof(value_type) * _Count);

  00093	6a 2c		 push	 44			; 0000002cH
  00095	ff b7 90 06 00
	00		 push	 DWORD PTR [edi+1680]
  0009b	e8 00 00 00 00	 call	 ??$_Deallocate@$07$0A@@std@@YAXPAXI@Z ; std::_Deallocate<8,0>
  000a0	83 c4 08	 add	 esp, 8
; File D:\Metin2 Server Files\mainline\SRC_2014\Metin2Client\UserInterface\InstanceBase.cpp

; 3107 : }

  000a3	8d 8f d4 01 00
	00		 lea	 ecx, DWORD PTR [edi+468]
  000a9	e8 00 00 00 00	 call	 ??1CActorInstance@@UAE@XZ ; CActorInstance::~CActorInstance
  000ae	8d 8f 50 01 00
	00		 lea	 ecx, DWORD PTR [edi+336]
  000b4	e8 00 00 00 00	 call	 ??1?$_Tree@V?$_Tmap_traits@KKU?$less@K@std@@V?$allocator@U?$pair@$$CBKK@std@@@2@$0A@@std@@@std@@QAE@XZ ; std::_Tree<std::_Tmap_traits<unsigned long,unsigned long,std::less<unsigned long>,std::allocator<std::pair<unsigned long const ,unsigned long> >,0> >::~_Tree<std::_Tmap_traits<unsigned long,unsigned long,std::less<unsigned long>,std::allocator<std::pair<unsigned long const ,unsigned long> >,0> >
  000b9	8d 4f 48	 lea	 ecx, DWORD PTR [edi+72]
  000bc	e8 00 00 00 00	 call	 ??1CAffectFlagContainer@@QAE@XZ ; CAffectFlagContainer::~CAffectFlagContainer
; File C:\Program Files (x86)\Microsoft Visual Studio\2019\Community\VC\Tools\MSVC\14.28.29333\include\xstring

; 2227 :         return _BUF_SIZE <= _Myres;

  000c1	8b 47 24	 mov	 eax, DWORD PTR [edi+36]
  000c4	83 f8 10	 cmp	 eax, 16			; 00000010H

; 4385 :         if (_Mypair._Myval2._Large_string_engaged()) {

  000c7	72 0d		 jb	 SHORT $LN51@CInstanceB

; 4386 :             const pointer _Ptr = _Mypair._Myval2._Bx._Ptr;
; 4387 :             auto& _Al          = _Getal();
; 4388 :             _Destroy_in_place(_Mypair._Myval2._Bx._Ptr);
; 4389 :             _Al.deallocate(_Ptr, _Mypair._Myval2._Myres + 1);

  000c9	40		 inc	 eax
; File C:\Program Files (x86)\Microsoft Visual Studio\2019\Community\VC\Tools\MSVC\14.28.29333\include\xmemory

; 810  :         _Deallocate<_New_alignof<_Ty>>(_Ptr, sizeof(_Ty) * _Count);

  000ca	50		 push	 eax
  000cb	ff 77 10	 push	 DWORD PTR [edi+16]
  000ce	e8 00 00 00 00	 call	 ??$_Deallocate@$07$0A@@std@@YAXPAXI@Z ; std::_Deallocate<8,0>
  000d3	83 c4 08	 add	 esp, 8
$LN51@CInstanceB:
; File C:\Program Files (x86)\Microsoft Visual Studio\2019\Community\VC\Tools\MSVC\14.28.29333\include\xstring

; 4392 :         _Mypair._Myval2._Mysize = 0;

  000d6	c7 47 20 00 00
	00 00		 mov	 DWORD PTR [edi+32], 0

; 4393 :         _Mypair._Myval2._Myres  = _BUF_SIZE - 1;

  000dd	c7 47 24 0f 00
	00 00		 mov	 DWORD PTR [edi+36], 15	; 0000000fH

; 4394 :         // the _Traits::assign is last so the codegen doesn't think the char write can alias this
; 4395 :         _Traits::assign(_Mypair._Myval2._Bx._Buf[0], _Elem());

  000e4	c6 47 10 00	 mov	 BYTE PTR [edi+16], 0
; File D:\Metin2 Server Files\mainline\SRC_2014\Metin2Client\UserInterface\InstanceBase.cpp

; 3107 : }

  000e8	8b 4d f4	 mov	 ecx, DWORD PTR __$EHRec$[ebp]
  000eb	64 89 0d 00 00
	00 00		 mov	 DWORD PTR fs:0, ecx
  000f2	59		 pop	 ecx
  000f3	5f		 pop	 edi
  000f4	5e		 pop	 esi
  000f5	8b e5		 mov	 esp, ebp
  000f7	5d		 pop	 ebp
  000f8	c3		 ret	 0
  000f9	cc		 int	 3
  000fa	cc		 int	 3
  000fb	cc		 int	 3
  000fc	cc		 int	 3
  000fd	cc		 int	 3
_TEXT	ENDS
;	COMDAT text$x
text$x	SEGMENT
__ehhandler$??1CInstanceBase@@UAE@XZ:
  00000	90		 npad	 1
  00001	90		 npad	 1
  00002	8b 54 24 08	 mov	 edx, DWORD PTR [esp+8]
  00006	8d 42 0c	 lea	 eax, DWORD PTR [edx+12]
  00009	8b 4a f4	 mov	 ecx, DWORD PTR [edx-12]
  0000c	33 c8		 xor	 ecx, eax
  0000e	e8 00 00 00 00	 call	 @__security_check_cookie@4
  00013	b8 00 00 00 00	 mov	 eax, OFFSET __ehfuncinfo$??1CInstanceBase@@UAE@XZ
  00018	e9 00 00 00 00	 jmp	 ___CxxFrameHandler3
text$x	ENDS
??1CInstanceBase@@UAE@XZ ENDP				; CInstanceBase::~CInstanceBase
; Function compile flags: /Ogtp
; File D:\Metin2 Server Files\mainline\SRC_2014\Metin2Client\UserInterface\InstanceBase.cpp
; File C:\Program Files (x86)\Microsoft Visual Studio\2019\Community\VC\Tools\MSVC\14.28.29333\include\xstring
; File D:\Metin2 Server Files\mainline\SRC_2014\Metin2Client\UserInterface\InstanceBase.cpp
; File C:\Program Files (x86)\Microsoft Visual Studio\2019\Community\VC\Tools\MSVC\14.28.29333\include\xmemory
; File C:\Program Files (x86)\Microsoft Visual Studio\2019\Community\VC\Tools\MSVC\14.28.29333\include\xtree
; File C:\Program Files (x86)\Microsoft Visual Studio\2019\Community\VC\Tools\MSVC\14.28.29333\include\xmemory
; File C:\Program Files (x86)\Microsoft Visual Studio\2019\Community\VC\Tools\MSVC\14.28.29333\include\xtree
; File D:\Metin2 Server Files\mainline\SRC_2014\Metin2Client\UserInterface\InstanceBase.cpp
; File C:\Program Files (x86)\Microsoft Visual Studio\2019\Community\VC\Tools\MSVC\14.28.29333\include\xmemory
; File D:\Metin2 Server Files\mainline\SRC_2014\Metin2Client\UserInterface\InstanceBase.cpp
; File C:\Program Files (x86)\Microsoft Visual Studio\2019\Community\VC\Tools\MSVC\14.28.29333\include\list
; File C:\Program Files (x86)\Microsoft Visual Studio\2019\Community\VC\Tools\MSVC\14.28.29333\include\xmemory
; File C:\Program Files (x86)\Microsoft Visual Studio\2019\Community\VC\Tools\MSVC\14.28.29333\include\list
; File C:\Program Files (x86)\Microsoft Visual Studio\2019\Community\VC\Tools\MSVC\14.28.29333\include\xmemory
; File D:\Metin2 Server Files\mainline\SRC_2014\Metin2Client\UserInterface\InstanceBase.cpp
; File C:\Program Files (x86)\Microsoft Visual Studio\2019\Community\VC\Tools\MSVC\14.28.29333\include\list
; File C:\Program Files (x86)\Microsoft Visual Studio\2019\Community\VC\Tools\MSVC\14.28.29333\include\xmemory
; File C:\Program Files (x86)\Microsoft Visual Studio\2019\Community\VC\Tools\MSVC\14.28.29333\include\list
; File D:\Metin2 Server Files\mainline\SRC_2014\Metin2Client\UserInterface\InstanceBase.cpp
;	COMDAT ??0CInstanceBase@@QAE@XZ
_TEXT	SEGMENT
_this$ = -20						; size = 4
__Newhead$2 = -16					; size = 4
__Newhead$3 = -16					; size = 4
__Pnode$4 = -16						; size = 4
_this$ = -16						; size = 4
__$EHRec$ = -12						; size = 12
??0CInstanceBase@@QAE@XZ PROC				; CInstanceBase::CInstanceBase, COMDAT
; _this$ = ecx

; 3100 : {

  00000	55		 push	 ebp
  00001	8b ec		 mov	 ebp, esp
  00003	6a ff		 push	 -1
  00005	68 00 00 00 00	 push	 __ehhandler$??0CInstanceBase@@QAE@XZ
  0000a	64 a1 00 00 00
	00		 mov	 eax, DWORD PTR fs:0
  00010	50		 push	 eax
  00011	83 ec 08	 sub	 esp, 8
  00014	53		 push	 ebx
  00015	56		 push	 esi
  00016	57		 push	 edi
  00017	a1 00 00 00 00	 mov	 eax, DWORD PTR ___security_cookie
  0001c	33 c5		 xor	 eax, ebp
  0001e	50		 push	 eax
  0001f	8d 45 f4	 lea	 eax, DWORD PTR __$EHRec$[ebp]
  00022	64 a3 00 00 00
	00		 mov	 DWORD PTR fs:0, eax
  00028	8b d9		 mov	 ebx, ecx
  0002a	89 5d ec	 mov	 DWORD PTR _this$[ebp], ebx
  0002d	8d 4b 04	 lea	 ecx, DWORD PTR [ebx+4]
  00030	c7 03 00 00 00
	00		 mov	 DWORD PTR [ebx], OFFSET ??_7CInstanceBase@@6B@
  00036	e8 00 00 00 00	 call	 ??0SHORSE@CInstanceBase@@QAE@XZ ; CInstanceBase::SHORSE::SHORSE
; File C:\Program Files (x86)\Microsoft Visual Studio\2019\Community\VC\Tools\MSVC\14.28.29333\include\xstring

; 4377 :         _Mypair._Myval2._Mysize = 0;

  0003b	c7 43 20 00 00
	00 00		 mov	 DWORD PTR [ebx+32], 0

; 4378 :         _Mypair._Myval2._Myres  = _BUF_SIZE - 1;

  00042	c7 43 24 0f 00
	00 00		 mov	 DWORD PTR [ebx+36], 15	; 0000000fH

; 4379 :         // the _Traits::assign is last so the codegen doesn't think the char write can alias this
; 4380 :         _Traits::assign(_Mypair._Myval2._Bx._Buf[0], _Elem());

  00049	c6 43 10 00	 mov	 BYTE PTR [ebx+16], 0
; File D:\Metin2 Server Files\mainline\SRC_2014\Metin2Client\UserInterface\InstanceBase.cpp

; 3100 : {

  0004d	8d 4b 48	 lea	 ecx, DWORD PTR [ebx+72]
  00050	c7 45 fc 00 00
	00 00		 mov	 DWORD PTR __$EHRec$[ebp+8], 0
  00057	e8 00 00 00 00	 call	 ??0CAffectFlagContainer@@QAE@XZ ; CAffectFlagContainer::CAffectFlagContainer
  0005c	8d bb 50 01 00
	00		 lea	 edi, DWORD PTR [ebx+336]
  00062	c6 45 fc 01	 mov	 BYTE PTR __$EHRec$[ebp+8], 1
  00066	89 7d f0	 mov	 DWORD PTR _this$[ebp], edi
; File C:\Program Files (x86)\Microsoft Visual Studio\2019\Community\VC\Tools\MSVC\14.28.29333\include\xmemory

; 814  :         return static_cast<_Ty*>(_Allocate<_New_alignof<_Ty>>(_Get_size_of_n<sizeof(_Ty)>(_Count)));

  00069	6a 18		 push	 24			; 00000018H
; File C:\Program Files (x86)\Microsoft Visual Studio\2019\Community\VC\Tools\MSVC\14.28.29333\include\xtree

; 435  :     _Tree_val() noexcept : _Myhead(), _Mysize(0) {}

  0006b	c7 07 00 00 00
	00		 mov	 DWORD PTR [edi], 0
  00071	c7 47 04 00 00
	00 00		 mov	 DWORD PTR [edi+4], 0
; File C:\Program Files (x86)\Microsoft Visual Studio\2019\Community\VC\Tools\MSVC\14.28.29333\include\xmemory

; 814  :         return static_cast<_Ty*>(_Allocate<_New_alignof<_Ty>>(_Get_size_of_n<sizeof(_Ty)>(_Count)));

  00078	e8 00 00 00 00	 call	 ??$_Allocate@$07U_Default_allocate_traits@std@@$0A@@std@@YAPAXI@Z ; std::_Allocate<8,std::_Default_allocate_traits,0>
; File C:\Program Files (x86)\Microsoft Visual Studio\2019\Community\VC\Tools\MSVC\14.28.29333\include\xtree

; 343  :         const auto _Pnode = _Al.allocate(1);

  0007d	8b f0		 mov	 esi, eax

; 344  :         _Construct_in_place(_Pnode->_Left, _Pnode);

  0007f	8d 45 f0	 lea	 eax, DWORD PTR __Pnode$4[ebp]
  00082	50		 push	 eax
  00083	56		 push	 esi
  00084	89 75 f0	 mov	 DWORD PTR __Pnode$4[ebp], esi
  00087	e8 00 00 00 00	 call	 ??$_Construct_in_place@PAU?$_Tree_node@U?$pair@$$CBKK@std@@PAX@std@@ABQAU12@@std@@YAXAAPAU?$_Tree_node@U?$pair@$$CBKK@std@@PAX@0@ABQAU10@@Z ; std::_Construct_in_place<std::_Tree_node<std::pair<unsigned long const ,unsigned long>,void *> *,std::_Tree_node<std::pair<unsigned long const ,unsigned long>,void *> * const &>

; 345  :         _Construct_in_place(_Pnode->_Parent, _Pnode);

  0008c	8d 45 f0	 lea	 eax, DWORD PTR __Pnode$4[ebp]
  0008f	50		 push	 eax
  00090	8d 4e 04	 lea	 ecx, DWORD PTR [esi+4]
  00093	51		 push	 ecx
  00094	e8 00 00 00 00	 call	 ??$_Construct_in_place@PAU?$_Tree_node@U?$pair@$$CBKK@std@@PAX@std@@ABQAU12@@std@@YAXAAPAU?$_Tree_node@U?$pair@$$CBKK@std@@PAX@0@ABQAU10@@Z ; std::_Construct_in_place<std::_Tree_node<std::pair<unsigned long const ,unsigned long>,void *> *,std::_Tree_node<std::pair<unsigned long const ,unsigned long>,void *> * const &>

; 346  :         _Construct_in_place(_Pnode->_Right, _Pnode);

  00099	8d 45 f0	 lea	 eax, DWORD PTR __Pnode$4[ebp]
  0009c	50		 push	 eax
  0009d	8d 46 08	 lea	 eax, DWORD PTR [esi+8]
  000a0	50		 push	 eax
  000a1	e8 00 00 00 00	 call	 ??$_Construct_in_place@PAU?$_Tree_node@U?$pair@$$CBKK@std@@PAX@std@@ABQAU12@@std@@YAXAAPAU?$_Tree_node@U?$pair@$$CBKK@std@@PAX@0@ABQAU10@@Z ; std::_Construct_in_place<std::_Tree_node<std::pair<unsigned long const ,unsigned long>,void *> *,std::_Tree_node<std::pair<unsigned long const ,unsigned long>,void *> * const &>

; 347  :         _Pnode->_Color = _Black;

  000a6	66 c7 46 0c 01
	01		 mov	 WORD PTR [esi+12], 257	; 00000101H
  000ac	83 c4 1c	 add	 esp, 28			; 0000001cH

; 2021 :         _Scary->_Myhead = _Node::_Buyheadnode(_Getal());

  000af	89 37		 mov	 DWORD PTR [edi], esi
; File D:\Metin2 Server Files\mainline\SRC_2014\Metin2Client\UserInterface\InstanceBase.cpp

; 3100 : {

  000b1	8d 8b d4 01 00
	00		 lea	 ecx, DWORD PTR [ebx+468]
  000b7	c6 45 fc 02	 mov	 BYTE PTR __$EHRec$[ebp+8], 2
  000bb	e8 00 00 00 00	 call	 ??0CActorInstance@@QAE@XZ ; CActorInstance::CActorInstance
; File C:\Program Files (x86)\Microsoft Visual Studio\2019\Community\VC\Tools\MSVC\14.28.29333\include\xmemory

; 814  :         return static_cast<_Ty*>(_Allocate<_New_alignof<_Ty>>(_Get_size_of_n<sizeof(_Ty)>(_Count)));

  000c0	6a 2c		 push	 44			; 0000002cH
; File D:\Metin2 Server Files\mainline\SRC_2014\Metin2Client\UserInterface\InstanceBase.cpp

; 3100 : {

  000c2	c6 45 fc 03	 mov	 BYTE PTR __$EHRec$[ebp+8], 3
; File C:\Program Files (x86)\Microsoft Visual Studio\2019\Community\VC\Tools\MSVC\14.28.29333\include\list

; 354  :     _List_val() noexcept : _Myhead(), _Mysize(0) {} // initialize data

  000c6	c7 83 90 06 00
	00 00 00 00 00	 mov	 DWORD PTR [ebx+1680], 0
  000d0	c7 83 94 06 00
	00 00 00 00 00	 mov	 DWORD PTR [ebx+1684], 0
; File C:\Program Files (x86)\Microsoft Visual Studio\2019\Community\VC\Tools\MSVC\14.28.29333\include\xmemory

; 814  :         return static_cast<_Ty*>(_Allocate<_New_alignof<_Ty>>(_Get_size_of_n<sizeof(_Ty)>(_Count)));

  000da	e8 00 00 00 00	 call	 ??$_Allocate@$07U_Default_allocate_traits@std@@$0A@@std@@YAPAXI@Z ; std::_Allocate<8,std::_Default_allocate_traits,0>
; File C:\Program Files (x86)\Microsoft Visual Studio\2019\Community\VC\Tools\MSVC\14.28.29333\include\list

; 1775 :         auto _Newhead = _Al.allocate(1);

  000df	8b f0		 mov	 esi, eax

; 1776 :         _Construct_in_place(_Newhead->_Next, _Newhead);

  000e1	8d 45 f0	 lea	 eax, DWORD PTR __Newhead$3[ebp]
  000e4	50		 push	 eax
  000e5	56		 push	 esi
  000e6	89 75 f0	 mov	 DWORD PTR __Newhead$3[ebp], esi
  000e9	e8 00 00 00 00	 call	 ??$_Construct_in_place@PAU?$_List_node@USCommand@CInstanceBase@@PAX@std@@AAPAU12@@std@@YAXAAPAU?$_List_node@USCommand@CInstanceBase@@PAX@0@0@Z ; std::_Construct_in_place<std::_List_node<CInstanceBase::SCommand,void *> *,std::_List_node<CInstanceBase::SCommand,void *> * &>

; 1777 :         _Construct_in_place(_Newhead->_Prev, _Newhead);

  000ee	8d 45 f0	 lea	 eax, DWORD PTR __Newhead$3[ebp]
  000f1	50		 push	 eax
  000f2	8d 4e 04	 lea	 ecx, DWORD PTR [esi+4]
  000f5	51		 push	 ecx
  000f6	e8 00 00 00 00	 call	 ??$_Construct_in_place@PAU?$_List_node@USCommand@CInstanceBase@@PAX@std@@AAPAU12@@std@@YAXAAPAU?$_List_node@USCommand@CInstanceBase@@PAX@0@0@Z ; std::_Construct_in_place<std::_List_node<CInstanceBase::SCommand,void *> *,std::_List_node<CInstanceBase::SCommand,void *> * &>

; 1778 :         _Mypair._Myval2._Myhead = _Newhead;

  000fb	89 b3 90 06 00
	00		 mov	 DWORD PTR [ebx+1680], esi
; File C:\Program Files (x86)\Microsoft Visual Studio\2019\Community\VC\Tools\MSVC\14.28.29333\include\xmemory

; 814  :         return static_cast<_Ty*>(_Allocate<_New_alignof<_Ty>>(_Get_size_of_n<sizeof(_Ty)>(_Count)));

  00101	6a 18		 push	 24			; 00000018H
; File D:\Metin2 Server Files\mainline\SRC_2014\Metin2Client\UserInterface\InstanceBase.cpp

; 3100 : {

  00103	c6 45 fc 04	 mov	 BYTE PTR __$EHRec$[ebp+8], 4
; File C:\Program Files (x86)\Microsoft Visual Studio\2019\Community\VC\Tools\MSVC\14.28.29333\include\list

; 354  :     _List_val() noexcept : _Myhead(), _Mysize(0) {} // initialize data

  00107	c7 83 9c 06 00
	00 00 00 00 00	 mov	 DWORD PTR [ebx+1692], 0
  00111	c7 83 a0 06 00
	00 00 00 00 00	 mov	 DWORD PTR [ebx+1696], 0
; File C:\Program Files (x86)\Microsoft Visual Studio\2019\Community\VC\Tools\MSVC\14.28.29333\include\xmemory

; 814  :         return static_cast<_Ty*>(_Allocate<_New_alignof<_Ty>>(_Get_size_of_n<sizeof(_Ty)>(_Count)));

  0011b	e8 00 00 00 00	 call	 ??$_Allocate@$07U_Default_allocate_traits@std@@$0A@@std@@YAPAXI@Z ; std::_Allocate<8,std::_Default_allocate_traits,0>
; File C:\Program Files (x86)\Microsoft Visual Studio\2019\Community\VC\Tools\MSVC\14.28.29333\include\list

; 1775 :         auto _Newhead = _Al.allocate(1);

  00120	8b f0		 mov	 esi, eax

; 1776 :         _Construct_in_place(_Newhead->_Next, _Newhead);

  00122	8d 45 f0	 lea	 eax, DWORD PTR __Newhead$2[ebp]
  00125	50		 push	 eax
  00126	56		 push	 esi
  00127	89 75 f0	 mov	 DWORD PTR __Newhead$2[ebp], esi
  0012a	e8 00 00 00 00	 call	 ??$_Construct_in_place@PAU?$_List_node@USEffectDamage@CInstanceBase@@PAX@std@@AAPAU12@@std@@YAXAAPAU?$_List_node@USEffectDamage@CInstanceBase@@PAX@0@0@Z ; std::_Construct_in_place<std::_List_node<CInstanceBase::SEffectDamage,void *> *,std::_List_node<CInstanceBase::SEffectDamage,void *> * &>

; 1777 :         _Construct_in_place(_Newhead->_Prev, _Newhead);

  0012f	8d 45 f0	 lea	 eax, DWORD PTR __Newhead$2[ebp]
  00132	50		 push	 eax
  00133	8d 4e 04	 lea	 ecx, DWORD PTR [esi+4]
  00136	51		 push	 ecx
  00137	e8 00 00 00 00	 call	 ??$_Construct_in_place@PAU?$_List_node@USEffectDamage@CInstanceBase@@PAX@std@@AAPAU12@@std@@YAXAAPAU?$_List_node@USEffectDamage@CInstanceBase@@PAX@0@0@Z ; std::_Construct_in_place<std::_List_node<CInstanceBase::SEffectDamage,void *> *,std::_List_node<CInstanceBase::SEffectDamage,void *> * &>
  0013c	83 c4 28	 add	 esp, 40			; 00000028H

; 1778 :         _Mypair._Myval2._Myhead = _Newhead;

  0013f	89 b3 9c 06 00
	00		 mov	 DWORD PTR [ebx+1692], esi
; File D:\Metin2 Server Files\mainline\SRC_2014\Metin2Client\UserInterface\InstanceBase.cpp

; 3100 : {

  00145	c6 45 fc 05	 mov	 BYTE PTR __$EHRec$[ebp+8], 5

; 3101 : 	__Initialize();

  00149	8b cb		 mov	 ecx, ebx
  0014b	e8 00 00 00 00	 call	 ?__Initialize@CInstanceBase@@IAEXXZ ; CInstanceBase::__Initialize

; 3102 : }

  00150	8b c3		 mov	 eax, ebx
  00152	8b 4d f4	 mov	 ecx, DWORD PTR __$EHRec$[ebp]
  00155	64 89 0d 00 00
	00 00		 mov	 DWORD PTR fs:0, ecx
  0015c	59		 pop	 ecx
  0015d	5f		 pop	 edi
  0015e	5e		 pop	 esi
  0015f	5b		 pop	 ebx
  00160	8b e5		 mov	 esp, ebp
  00162	5d		 pop	 ebp
  00163	c3		 ret	 0
_TEXT	ENDS
;	COMDAT text$x
text$x	SEGMENT
__unwindfunclet$??0CInstanceBase@@QAE@XZ$0:
  00000	8b 4d ec	 mov	 ecx, DWORD PTR _this$[ebp]
  00003	83 c1 10	 add	 ecx, 16			; 00000010H
  00006	e9 00 00 00 00	 jmp	 ??1?$basic_string@DU?$char_traits@D@std@@V?$allocator@D@2@@std@@QAE@XZ ; std::basic_string<char,std::char_traits<char>,std::allocator<char> >::~basic_string<char,std::char_traits<char>,std::allocator<char> >
__unwindfunclet$??0CInstanceBase@@QAE@XZ$1:
  0000b	8b 4d ec	 mov	 ecx, DWORD PTR _this$[ebp]
  0000e	83 c1 48	 add	 ecx, 72			; 00000048H
  00011	e9 00 00 00 00	 jmp	 ??1CAffectFlagContainer@@QAE@XZ ; CAffectFlagContainer::~CAffectFlagContainer
__unwindfunclet$??0CInstanceBase@@QAE@XZ$2:
  00016	8b 4d ec	 mov	 ecx, DWORD PTR _this$[ebp]
  00019	81 c1 50 01 00
	00		 add	 ecx, 336		; 00000150H
  0001f	e9 00 00 00 00	 jmp	 ??1SEffectContainer@CInstanceBase@@QAE@XZ
__unwindfunclet$??0CInstanceBase@@QAE@XZ$3:
  00024	8b 4d ec	 mov	 ecx, DWORD PTR _this$[ebp]
  00027	81 c1 d4 01 00
	00		 add	 ecx, 468		; 000001d4H
  0002d	e9 00 00 00 00	 jmp	 ??1CActorInstance@@UAE@XZ ; CActorInstance::~CActorInstance
__unwindfunclet$??0CInstanceBase@@QAE@XZ$4:
  00032	8b 4d ec	 mov	 ecx, DWORD PTR _this$[ebp]
  00035	81 c1 90 06 00
	00		 add	 ecx, 1680		; 00000690H
  0003b	e9 00 00 00 00	 jmp	 ??1?$list@USCommand@CInstanceBase@@V?$allocator@USCommand@CInstanceBase@@@std@@@std@@QAE@XZ ; std::list<CInstanceBase::SCommand,std::allocator<CInstanceBase::SCommand> >::~list<CInstanceBase::SCommand,std::allocator<CInstanceBase::SCommand> >
__unwindfunclet$??0CInstanceBase@@QAE@XZ$5:
  00040	8b 4d ec	 mov	 ecx, DWORD PTR _this$[ebp]
  00043	81 c1 9c 06 00
	00		 add	 ecx, 1692		; 0000069cH
  00049	e9 00 00 00 00	 jmp	 ??1?$list@USEffectDamage@CInstanceBase@@V?$allocator@USEffectDamage@CInstanceBase@@@std@@@std@@QAE@XZ ; std::list<CInstanceBase::SEffectDamage,std::allocator<CInstanceBase::SEffectDamage> >::~list<CInstanceBase::SEffectDamage,std::allocator<CInstanceBase::SEffectDamage> >
  0004e	cc		 int	 3
  0004f	cc		 int	 3
  00050	cc		 int	 3
  00051	cc		 int	 3
  00052	cc		 int	 3
__ehhandler$??0CInstanceBase@@QAE@XZ:
  00053	90		 npad	 1
  00054	90		 npad	 1
  00055	8b 54 24 08	 mov	 edx, DWORD PTR [esp+8]
  00059	8d 42 0c	 lea	 eax, DWORD PTR [edx+12]
  0005c	8b 4a e8	 mov	 ecx, DWORD PTR [edx-24]
  0005f	33 c8		 xor	 ecx, eax
  00061	e8 00 00 00 00	 call	 @__security_check_cookie@4
  00066	b8 00 00 00 00	 mov	 eax, OFFSET __ehfuncinfo$??0CInstanceBase@@QAE@XZ
  0006b	e9 00 00 00 00	 jmp	 ___CxxFrameHandler3
text$x	ENDS
??0CInstanceBase@@QAE@XZ ENDP				; CInstanceBase::CInstanceBase
; Function compile flags: /Ogtp
; File D:\Metin2 Server Files\mainline\SRC_2014\Metin2Client\UserInterface\InstanceBase.cpp
;	COMDAT ?__GetBowRange@CInstanceBase@@IAEMXZ
_TEXT	SEGMENT
_fRange$ = -4						; size = 4
?__GetBowRange@CInstanceBase@@IAEMXZ PROC		; CInstanceBase::__GetBowRange, COMDAT
; _this$ = ecx

; 694  : {

  00000	55		 push	 ebp
  00001	8b ec		 mov	 ebp, esp
  00003	51		 push	 ecx

; 695  : 	float fRange = 2500.0f - 100.0f;

  00004	c7 45 fc 00 00
	16 45		 mov	 DWORD PTR _fRange$[ebp], 1159069696 ; 45160000H

; 696  : 
; 697  : 	if (__IsMainInstance())

  0000b	e8 00 00 00 00	 call	 ?__IsMainInstance@CInstanceBase@@IAE_NXZ ; CInstanceBase::__IsMainInstance
  00010	84 c0		 test	 al, al
  00012	74 21		 je	 SHORT $LN4@GetBowRang

; 698  : 	{
; 699  : 		IAbstractPlayer& rPlayer=IAbstractPlayer::GetSingleton();

  00014	8b 0d 00 00 00
	00		 mov	 ecx, DWORD PTR ?ms_singleton@?$TAbstractSingleton@VIAbstractPlayer@@@@0PAVIAbstractPlayer@@A ; TAbstractSingleton<IAbstractPlayer>::ms_singleton

; 700  : 		fRange += float(rPlayer.GetStatus(POINT_BOW_DISTANCE));

  0001a	6a 22		 push	 34			; 00000022H
  0001c	8b 01		 mov	 eax, DWORD PTR [ecx]
  0001e	ff 50 10	 call	 DWORD PTR [eax+16]
  00021	66 0f 6e c0	 movd	 xmm0, eax
  00025	0f 5b c0	 cvtdq2ps xmm0, xmm0
  00028	f3 0f 58 05 00
	00 00 00	 addss	 xmm0, DWORD PTR __real@45160000
  00030	f3 0f 11 45 fc	 movss	 DWORD PTR _fRange$[ebp], xmm0
$LN4@GetBowRang:

; 701  : 	}
; 702  : 
; 703  : 	return fRange;
; 704  : }

  00035	d9 45 fc	 fld	 DWORD PTR _fRange$[ebp]
  00038	8b e5		 mov	 esp, ebp
  0003a	5d		 pop	 ebp
  0003b	c3		 ret	 0
?__GetBowRange@CInstanceBase@@IAEMXZ ENDP		; CInstanceBase::__GetBowRange
_TEXT	ENDS
; Function compile flags: /Ogtp
; File D:\Metin2 Server Files\mainline\SRC_2014\Metin2Client\UserInterface\InstanceBase.cpp
;	COMDAT ?__MainCanSeeHiddenThing@CInstanceBase@@IAE_NXZ
_TEXT	SEGMENT
?__MainCanSeeHiddenThing@CInstanceBase@@IAE_NXZ PROC	; CInstanceBase::__MainCanSeeHiddenThing, COMDAT
; _this$ = ecx

; 688  : 	return false;

  00000	32 c0		 xor	 al, al

; 689  : //	CInstanceBase * pInstance = __GetMainInstancePtr();
; 690  : //	return pInstance->IsAffect(AFFECT_GAMJI);
; 691  : }

  00002	c3		 ret	 0
?__MainCanSeeHiddenThing@CInstanceBase@@IAE_NXZ ENDP	; CInstanceBase::__MainCanSeeHiddenThing
_TEXT	ENDS
; Function compile flags: /Ogtp
; File D:\Metin2 Server Files\mainline\SRC_2014\Metin2Client\UserInterface\InstanceBase.cpp
;	COMDAT ?__IsMainInstance@CInstanceBase@@IAE_NXZ
_TEXT	SEGMENT
?__IsMainInstance@CInstanceBase@@IAE_NXZ PROC		; CInstanceBase::__IsMainInstance, COMDAT
; _this$ = ecx

; 671  : {

  00000	56		 push	 esi
  00001	8b f1		 mov	 esi, ecx

; 672  : 	if (this==__GetMainInstancePtr())

  00003	e8 00 00 00 00	 call	 ?__GetMainInstancePtr@CInstanceBase@@IAEPAV1@XZ ; CInstanceBase::__GetMainInstancePtr
  00008	3b f0		 cmp	 esi, eax
  0000a	5e		 pop	 esi
  0000b	0f 94 c0	 sete	 al

; 673  : 		return true;
; 674  : 
; 675  : 	return false;
; 676  : }

  0000e	c3		 ret	 0
?__IsMainInstance@CInstanceBase@@IAE_NXZ ENDP		; CInstanceBase::__IsMainInstance
_TEXT	ENDS
; Function compile flags: /Ogtp
; File D:\Metin2 Server Files\mainline\SRC_2014\Metin2Client\UserInterface\InstanceBase.cpp
;	COMDAT ?__IsExistMainInstance@CInstanceBase@@IAE_NXZ
_TEXT	SEGMENT
?__IsExistMainInstance@CInstanceBase@@IAE_NXZ PROC	; CInstanceBase::__IsExistMainInstance, COMDAT
; _this$ = ecx

; 680  : 	if(__GetMainInstancePtr())

  00000	e8 00 00 00 00	 call	 ?__GetMainInstancePtr@CInstanceBase@@IAEPAV1@XZ ; CInstanceBase::__GetMainInstancePtr
  00005	85 c0		 test	 eax, eax
  00007	0f 95 c0	 setne	 al

; 681  : 		return true;
; 682  : 	else
; 683  : 		return false;
; 684  : }

  0000a	c3		 ret	 0
?__IsExistMainInstance@CInstanceBase@@IAE_NXZ ENDP	; CInstanceBase::__IsExistMainInstance
_TEXT	ENDS
; Function compile flags: /Ogtp
; File D:\Metin2 Server Files\mainline\SRC_2014\Metin2Client\UserInterface\InstanceBase.cpp
;	COMDAT ?OnUntargeted@CInstanceBase@@QAEXXZ
_TEXT	SEGMENT
?OnUntargeted@CInstanceBase@@QAEXXZ PROC		; CInstanceBase::OnUntargeted, COMDAT
; _this$ = ecx

; 618  : 	__DetachTargetEffect();

  00000	e9 00 00 00 00	 jmp	 ?__DetachTargetEffect@CInstanceBase@@IAEXXZ ; CInstanceBase::__DetachTargetEffect
?OnUntargeted@CInstanceBase@@QAEXXZ ENDP		; CInstanceBase::OnUntargeted
_TEXT	ENDS
; Function compile flags: /Ogtp
; File D:\Metin2 Server Files\mainline\SRC_2014\Metin2Client\UserInterface\InstanceBase.cpp
;	COMDAT ?OnTargeted@CInstanceBase@@QAEXXZ
_TEXT	SEGMENT
?OnTargeted@CInstanceBase@@QAEXXZ PROC			; CInstanceBase::OnTargeted, COMDAT
; _this$ = ecx

; 601  : {

  00000	56		 push	 esi
  00001	8b f1		 mov	 esi, ecx

; 602  : #ifdef __MOVIE_MODE__
; 603  : 	if (!__IsExistMainInstance())
; 604  : 		return;
; 605  : #endif
; 606  : 
; 607  : 	if (IsStoneDoor())

  00003	e8 00 00 00 00	 call	 ?IsStoneDoor@CInstanceBase@@QAEHXZ ; CInstanceBase::IsStoneDoor
  00008	85 c0		 test	 eax, eax
  0000a	75 13		 jne	 SHORT $LN1@OnTargeted

; 608  : 		return;
; 609  : 
; 610  : 	if (IsDead())

  0000c	8b ce		 mov	 ecx, esi
  0000e	e8 00 00 00 00	 call	 ?IsDead@CInstanceBase@@QAEHXZ ; CInstanceBase::IsDead
  00013	85 c0		 test	 eax, eax
  00015	75 08		 jne	 SHORT $LN1@OnTargeted

; 611  : 		return;
; 612  : 
; 613  : 	__AttachTargetEffect();

  00017	8b ce		 mov	 ecx, esi
  00019	5e		 pop	 esi
  0001a	e9 00 00 00 00	 jmp	 ?__AttachTargetEffect@CInstanceBase@@IAEXXZ ; CInstanceBase::__AttachTargetEffect
$LN1@OnTargeted:
  0001f	5e		 pop	 esi

; 614  : }

  00020	c3		 ret	 0
?OnTargeted@CInstanceBase@@QAEXXZ ENDP			; CInstanceBase::OnTargeted
_TEXT	ENDS
; Function compile flags: /Ogtp
; File D:\Metin2 Server Files\mainline\SRC_2014\Metin2Client\UserInterface\InstanceBase.cpp
;	COMDAT ?OnUnselected@CInstanceBase@@QAEXXZ
_TEXT	SEGMENT
?OnUnselected@CInstanceBase@@QAEXXZ PROC		; CInstanceBase::OnUnselected, COMDAT
; _this$ = ecx

; 597  : 	__DetachSelectEffect();

  00000	e9 00 00 00 00	 jmp	 ?__DetachSelectEffect@CInstanceBase@@IAEXXZ ; CInstanceBase::__DetachSelectEffect
?OnUnselected@CInstanceBase@@QAEXXZ ENDP		; CInstanceBase::OnUnselected
_TEXT	ENDS
; Function compile flags: /Ogtp
; File D:\Metin2 Server Files\mainline\SRC_2014\Metin2Client\UserInterface\InstanceBase.cpp
;	COMDAT ?OnSelected@CInstanceBase@@QAEXXZ
_TEXT	SEGMENT
?OnSelected@CInstanceBase@@QAEXXZ PROC			; CInstanceBase::OnSelected, COMDAT
; _this$ = ecx

; 580  : {

  00000	56		 push	 esi
  00001	8b f1		 mov	 esi, ecx

; 581  : #ifdef __MOVIE_MODE__
; 582  : 	if (!__IsExistMainInstance())
; 583  : 		return;
; 584  : #endif
; 585  : 
; 586  : 	if (IsStoneDoor())

  00003	e8 00 00 00 00	 call	 ?IsStoneDoor@CInstanceBase@@QAEHXZ ; CInstanceBase::IsStoneDoor
  00008	85 c0		 test	 eax, eax
  0000a	75 13		 jne	 SHORT $LN1@OnSelected

; 587  : 		return;
; 588  : 
; 589  : 	if (IsDead())

  0000c	8b ce		 mov	 ecx, esi
  0000e	e8 00 00 00 00	 call	 ?IsDead@CInstanceBase@@QAEHXZ ; CInstanceBase::IsDead
  00013	85 c0		 test	 eax, eax
  00015	75 08		 jne	 SHORT $LN1@OnSelected

; 590  : 		return;
; 591  : 
; 592  : 	__AttachSelectEffect();

  00017	8b ce		 mov	 ecx, esi
  00019	5e		 pop	 esi
  0001a	e9 00 00 00 00	 jmp	 ?__AttachSelectEffect@CInstanceBase@@IAEXXZ ; CInstanceBase::__AttachSelectEffect
$LN1@OnSelected:
  0001f	5e		 pop	 esi

; 593  : }

  00020	c3		 ret	 0
?OnSelected@CInstanceBase@@QAEXXZ ENDP			; CInstanceBase::OnSelected
_TEXT	ENDS
; Function compile flags: /Ogtp
; File D:\Metin2 Server Files\mainline\SRC_2014\Metin2Client\UserInterface\InstanceBase.cpp
;	COMDAT ?SetMainInstance@CInstanceBase@@QAEXXZ
_TEXT	SEGMENT
?SetMainInstance@CInstanceBase@@QAEXXZ PROC		; CInstanceBase::SetMainInstance, COMDAT
; _this$ = ecx

; 648  : {

  00000	56		 push	 esi

; 649  : 	CPythonCharacterManager& rkChrMgr=CPythonCharacterManager::Instance();

  00001	8b 35 00 00 00
	00		 mov	 esi, DWORD PTR ?ms_singleton@?$CSingleton@VCPythonCharacterManager@@@@0PAVCPythonCharacterManager@@A ; CSingleton<CPythonCharacterManager>::ms_singleton
  00007	57		 push	 edi
  00008	8b f9		 mov	 edi, ecx

; 650  : 
; 651  : 	DWORD dwVID=GetVirtualID();

  0000a	e8 00 00 00 00	 call	 ?GetVirtualID@CInstanceBase@@QAEKXZ ; CInstanceBase::GetVirtualID

; 652  : 	rkChrMgr.SetMainInstance(dwVID);

  0000f	50		 push	 eax
  00010	8b ce		 mov	 ecx, esi
  00012	e8 00 00 00 00	 call	 ?SetMainInstance@CPythonCharacterManager@@QAE_NK@Z ; CPythonCharacterManager::SetMainInstance

; 653  : 
; 654  : 	m_GraphicThingInstance.SetMainInstance();

  00017	8d 8f d4 01 00
	00		 lea	 ecx, DWORD PTR [edi+468]
  0001d	5f		 pop	 edi
  0001e	5e		 pop	 esi
  0001f	e9 00 00 00 00	 jmp	 ?SetMainInstance@CActorInstance@@QAEXXZ ; CActorInstance::SetMainInstance
?SetMainInstance@CInstanceBase@@QAEXXZ ENDP		; CInstanceBase::SetMainInstance
_TEXT	ENDS
; Function compile flags: /Ogtp
; File D:\Metin2 Server Files\mainline\SRC_2014\Metin2Client\UserInterface\InstanceBase.cpp
; File C:\Program Files (x86)\Microsoft Visual Studio\2019\Community\VC\Tools\MSVC\14.28.29333\include\vector
; File D:\Metin2 Server Files\mainline\SRC_2014\Metin2Client\UserInterface\InstanceBase.cpp
; File D:\Metin2 Server Files\mainline\SRC_2014\Metin2Client\eterLib\Pool.h
; File C:\Program Files (x86)\Microsoft Visual Studio\2019\Community\VC\Tools\MSVC\14.28.29333\include\vector
; File D:\Metin2 Server Files\mainline\SRC_2014\Metin2Client\eterLib\Pool.h
; File C:\Program Files (x86)\Microsoft Visual Studio\2019\Community\VC\Tools\MSVC\14.28.29333\include\vector
; File D:\Metin2 Server Files\mainline\SRC_2014\Metin2Client\UserInterface\InstanceBase.cpp
; File C:\Program Files (x86)\Microsoft Visual Studio\2019\Community\VC\Tools\MSVC\14.28.29333\include\vector
; File D:\Metin2 Server Files\mainline\SRC_2014\Metin2Client\UserInterface\InstanceBase.cpp
;	COMDAT ?CreateSystem@CInstanceBase@@SAXI@Z
_TEXT	SEGMENT
_uCapacity$ = 8						; size = 4
?CreateSystem@CInstanceBase@@SAXI@Z PROC		; CInstanceBase::CreateSystem, COMDAT

; 627  : {

  00000	55		 push	 ebp
  00001	8b ec		 mov	 ebp, esp
; File C:\Program Files (x86)\Microsoft Visual Studio\2019\Community\VC\Tools\MSVC\14.28.29333\include\vector

; 1494 :         return static_cast<size_type>(_My_data._Myend - _My_data._Myfirst);

  00003	a1 0c 00 00 00	 mov	 eax, DWORD PTR ?ms_kPool@CInstanceBase@@2V?$CDynamicPool@VCInstanceBase@@@@A+12
  00008	2b 05 04 00 00
	00		 sub	 eax, DWORD PTR ?ms_kPool@CInstanceBase@@2V?$CDynamicPool@VCInstanceBase@@@@A+4
; File D:\Metin2 Server Files\mainline\SRC_2014\Metin2Client\UserInterface\InstanceBase.cpp

; 627  : {

  0000e	56		 push	 esi
; File D:\Metin2 Server Files\mainline\SRC_2014\Metin2Client\eterLib\Pool.h

; 57   : 			m_uInitCapacity=uCapacity;

  0000f	8b 75 08	 mov	 esi, DWORD PTR _uCapacity$[ebp]
; File C:\Program Files (x86)\Microsoft Visual Studio\2019\Community\VC\Tools\MSVC\14.28.29333\include\vector

; 1494 :         return static_cast<size_type>(_My_data._Myend - _My_data._Myfirst);

  00012	c1 f8 02	 sar	 eax, 2
; File D:\Metin2 Server Files\mainline\SRC_2014\Metin2Client\eterLib\Pool.h

; 57   : 			m_uInitCapacity=uCapacity;

  00015	89 35 1c 00 00
	00		 mov	 DWORD PTR ?ms_kPool@CInstanceBase@@2V?$CDynamicPool@VCInstanceBase@@@@A+28, esi
; File C:\Program Files (x86)\Microsoft Visual Studio\2019\Community\VC\Tools\MSVC\14.28.29333\include\vector

; 1306 :         if (_Newcapacity > capacity()) { // something to do (reserve() never shrinks)

  0001b	3b f0		 cmp	 esi, eax
  0001d	76 13		 jbe	 SHORT $LN6@CreateSyst

; 1307 :             if (_Newcapacity > max_size()) {

  0001f	81 fe ff ff ff
	3f		 cmp	 esi, 1073741823		; 3fffffffH
  00025	77 5b		 ja	 SHORT $LN19@CreateSyst

; 1309 :             }
; 1310 : 
; 1311 :             _Reallocate_exactly(_Newcapacity);

  00027	56		 push	 esi
  00028	b9 04 00 00 00	 mov	 ecx, OFFSET ?ms_kPool@CInstanceBase@@2V?$CDynamicPool@VCInstanceBase@@@@A+4
  0002d	e8 00 00 00 00	 call	 ?_Reallocate_exactly@?$vector@PAVCInstanceBase@@V?$allocator@PAVCInstanceBase@@@std@@@std@@AAEXI@Z ; std::vector<CInstanceBase *,std::allocator<CInstanceBase *> >::_Reallocate_exactly
$LN6@CreateSyst:

; 1494 :         return static_cast<size_type>(_My_data._Myend - _My_data._Myfirst);

  00032	a1 18 00 00 00	 mov	 eax, DWORD PTR ?ms_kPool@CInstanceBase@@2V?$CDynamicPool@VCInstanceBase@@@@A+24
  00037	2b 05 10 00 00
	00		 sub	 eax, DWORD PTR ?ms_kPool@CInstanceBase@@2V?$CDynamicPool@VCInstanceBase@@@@A+16
  0003d	c1 f8 02	 sar	 eax, 2

; 1306 :         if (_Newcapacity > capacity()) { // something to do (reserve() never shrinks)

  00040	3b f0		 cmp	 esi, eax
  00042	76 13		 jbe	 SHORT $LN13@CreateSyst

; 1307 :             if (_Newcapacity > max_size()) {

  00044	81 fe ff ff ff
	3f		 cmp	 esi, 1073741823		; 3fffffffH
  0004a	77 36		 ja	 SHORT $LN19@CreateSyst

; 1309 :             }
; 1310 : 
; 1311 :             _Reallocate_exactly(_Newcapacity);

  0004c	56		 push	 esi
  0004d	b9 10 00 00 00	 mov	 ecx, OFFSET ?ms_kPool@CInstanceBase@@2V?$CDynamicPool@VCInstanceBase@@@@A+16
  00052	e8 00 00 00 00	 call	 ?_Reallocate_exactly@?$vector@PAVCInstanceBase@@V?$allocator@PAVCInstanceBase@@@std@@@std@@AAEXI@Z ; std::vector<CInstanceBase *,std::allocator<CInstanceBase *> >::_Reallocate_exactly
$LN13@CreateSyst:
; File D:\Metin2 Server Files\mainline\SRC_2014\Metin2Client\UserInterface\InstanceBase.cpp

; 630  : 	memset(ms_adwCRCAffectEffect, 0, sizeof(ms_adwCRCAffectEffect));

  00057	68 48 04 00 00	 push	 1096			; 00000448H
  0005c	6a 00		 push	 0
  0005e	68 00 00 00 00	 push	 OFFSET ?ms_adwCRCAffectEffect@CInstanceBase@@1PAKA ; CInstanceBase::ms_adwCRCAffectEffect
  00063	e8 00 00 00 00	 call	 _memset
  00068	83 c4 0c	 add	 esp, 12			; 0000000cH

; 631  : 
; 632  : 	ms_fDustGap=250.0f;

  0006b	c7 05 00 00 00
	00 00 00 7a 43	 mov	 DWORD PTR ?ms_fDustGap@CInstanceBase@@1MA, 1132068864 ; 437a0000H

; 633  : 	ms_fHorseDustGap=500.0f;

  00075	c7 05 00 00 00
	00 00 00 fa 43	 mov	 DWORD PTR ?ms_fHorseDustGap@CInstanceBase@@1MA, 1140457472 ; 43fa0000H
  0007f	5e		 pop	 esi

; 634  : }

  00080	5d		 pop	 ebp
  00081	c3		 ret	 0
$LN19@CreateSyst:
; File C:\Program Files (x86)\Microsoft Visual Studio\2019\Community\VC\Tools\MSVC\14.28.29333\include\vector

; 1308 :                 _Xlength();

  00082	e8 00 00 00 00	 call	 ?_Xlength@?$vector@PAVCInstanceBase@@V?$allocator@PAVCInstanceBase@@@std@@@std@@CAXXZ ; std::vector<CInstanceBase *,std::allocator<CInstanceBase *> >::_Xlength
$LN20@CreateSyst:
  00087	cc		 int	 3
?CreateSystem@CInstanceBase@@SAXI@Z ENDP		; CInstanceBase::CreateSystem
_TEXT	ENDS
; Function compile flags: /Ogtp
; File D:\Metin2 Server Files\mainline\SRC_2014\Metin2Client\UserInterface\InstanceBase.cpp
; File C:\Program Files (x86)\Microsoft Visual Studio\2019\Community\VC\Tools\MSVC\14.28.29333\include\algorithm
; File D:\Metin2 Server Files\mainline\SRC_2014\Metin2Client\UserInterface\InstanceBase.cpp
; File C:\Program Files (x86)\Microsoft Visual Studio\2019\Community\VC\Tools\MSVC\14.28.29333\include\algorithm
; File D:\Metin2 Server Files\mainline\SRC_2014\Metin2Client\eterLib\Pool.h
; File C:\Program Files (x86)\Microsoft Visual Studio\2019\Community\VC\Tools\MSVC\14.28.29333\include\algorithm
; File D:\Metin2 Server Files\mainline\SRC_2014\Metin2Client\eterLib\Pool.h
; File D:\Metin2 Server Files\mainline\SRC_2014\Metin2Client\UserInterface\InstanceBase.cpp
; File D:\Metin2 Server Files\mainline\SRC_2014\Metin2Client\eterLib\Pool.h
; File D:\Metin2 Server Files\mainline\SRC_2014\Metin2Client\UserInterface\InstanceBase.cpp
;	COMDAT ?DestroySystem@CInstanceBase@@SAXXZ
_TEXT	SEGMENT
?DestroySystem@CInstanceBase@@SAXXZ PROC		; CInstanceBase::DestroySystem, COMDAT

; 622  : {

  00000	56		 push	 esi
; File C:\Program Files (x86)\Microsoft Visual Studio\2019\Community\VC\Tools\MSVC\14.28.29333\include\algorithm

; 307  :     for (; _UFirst != _ULast; ++_UFirst) {

  00001	8b 35 04 00 00
	00		 mov	 esi, DWORD PTR ?ms_kPool@CInstanceBase@@2V?$CDynamicPool@VCInstanceBase@@@@A+4
; File D:\Metin2 Server Files\mainline\SRC_2014\Metin2Client\UserInterface\InstanceBase.cpp

; 622  : {

  00007	57		 push	 edi
; File C:\Program Files (x86)\Microsoft Visual Studio\2019\Community\VC\Tools\MSVC\14.28.29333\include\algorithm

; 306  :     const auto _ULast = _Get_unwrapped(_Last);

  00008	8b 3d 08 00 00
	00		 mov	 edi, DWORD PTR ?ms_kPool@CInstanceBase@@2V?$CDynamicPool@VCInstanceBase@@@@A+8

; 307  :     for (; _UFirst != _ULast; ++_UFirst) {

  0000e	3b f7		 cmp	 esi, edi
  00010	74 2a		 je	 SHORT $LN32@DestroySys
$LL22@DestroySys:
; File D:\Metin2 Server Files\mainline\SRC_2014\Metin2Client\eterLib\Pool.h

; 110  : 			delete pkData;

  00012	8b 0e		 mov	 ecx, DWORD PTR [esi]
  00014	85 c9		 test	 ecx, ecx
  00016	74 06		 je	 SHORT $LN20@DestroySys
  00018	8b 01		 mov	 eax, DWORD PTR [ecx]
  0001a	6a 01		 push	 1
  0001c	ff 10		 call	 DWORD PTR [eax]
$LN20@DestroySys:
; File C:\Program Files (x86)\Microsoft Visual Studio\2019\Community\VC\Tools\MSVC\14.28.29333\include\algorithm

; 307  :     for (; _UFirst != _ULast; ++_UFirst) {

  0001e	83 c6 04	 add	 esi, 4
  00021	3b f7		 cmp	 esi, edi
  00023	75 ed		 jne	 SHORT $LL22@DestroySys
; File D:\Metin2 Server Files\mainline\SRC_2014\Metin2Client\eterLib\Pool.h

; 51   : 			m_kVct_pkData.clear();

  00025	a1 04 00 00 00	 mov	 eax, DWORD PTR ?ms_kPool@CInstanceBase@@2V?$CDynamicPool@VCInstanceBase@@@@A+4
  0002a	a3 08 00 00 00	 mov	 DWORD PTR ?ms_kPool@CInstanceBase@@2V?$CDynamicPool@VCInstanceBase@@@@A+8, eax
; File D:\Metin2 Server Files\mainline\SRC_2014\Metin2Client\UserInterface\InstanceBase.cpp

; 624  : }

  0002f	a1 10 00 00 00	 mov	 eax, DWORD PTR ?ms_kPool@CInstanceBase@@2V?$CDynamicPool@VCInstanceBase@@@@A+16
  00034	5f		 pop	 edi
  00035	a3 14 00 00 00	 mov	 DWORD PTR ?ms_kPool@CInstanceBase@@2V?$CDynamicPool@VCInstanceBase@@@@A+20, eax
  0003a	5e		 pop	 esi
  0003b	c3		 ret	 0
$LN32@DestroySys:
  0003c	a1 10 00 00 00	 mov	 eax, DWORD PTR ?ms_kPool@CInstanceBase@@2V?$CDynamicPool@VCInstanceBase@@@@A+16
  00041	5f		 pop	 edi
; File D:\Metin2 Server Files\mainline\SRC_2014\Metin2Client\eterLib\Pool.h

; 51   : 			m_kVct_pkData.clear();

  00042	89 35 08 00 00
	00		 mov	 DWORD PTR ?ms_kPool@CInstanceBase@@2V?$CDynamicPool@VCInstanceBase@@@@A+8, esi
; File D:\Metin2 Server Files\mainline\SRC_2014\Metin2Client\UserInterface\InstanceBase.cpp

; 624  : }

  00048	a3 14 00 00 00	 mov	 DWORD PTR ?ms_kPool@CInstanceBase@@2V?$CDynamicPool@VCInstanceBase@@@@A+20, eax
  0004d	5e		 pop	 esi
  0004e	c3		 ret	 0
?DestroySystem@CInstanceBase@@SAXXZ ENDP		; CInstanceBase::DestroySystem
_TEXT	ENDS
; Function compile flags: /Ogtp
; File C:\Program Files (x86)\Microsoft Visual Studio\2019\Community\VC\Tools\MSVC\14.28.29333\include\xtree
; File C:\Program Files (x86)\Microsoft Visual Studio\2019\Community\VC\Tools\MSVC\14.28.29333\include\utility
; File C:\Program Files (x86)\Microsoft Visual Studio\2019\Community\VC\Tools\MSVC\14.28.29333\include\xmemory
; File C:\Program Files (x86)\Microsoft Visual Studio\2019\Community\VC\Tools\MSVC\14.28.29333\include\xtree
; File C:\Program Files (x86)\Microsoft Visual Studio\2019\Community\VC\Tools\MSVC\14.28.29333\include\xmemory
; File C:\Program Files (x86)\Microsoft Visual Studio\2019\Community\VC\Tools\MSVC\14.28.29333\include\xtree
;	COMDAT ??1?$_Tree@V?$_Tmap_traits@KKU?$less@K@std@@V?$allocator@U?$pair@$$CBKK@std@@@2@$0A@@std@@@std@@QAE@XZ
_TEXT	SEGMENT
??1?$_Tree@V?$_Tmap_traits@KKU?$less@K@std@@V?$allocator@U?$pair@$$CBKK@std@@@2@$0A@@std@@@std@@QAE@XZ PROC ; std::_Tree<std::_Tmap_traits<unsigned long,unsigned long,std::less<unsigned long>,std::allocator<std::pair<unsigned long const ,unsigned long> >,0> >::~_Tree<std::_Tmap_traits<unsigned long,unsigned long,std::less<unsigned long>,std::allocator<std::pair<unsigned long const ,unsigned long> >,0> >, COMDAT
; _this$ = ecx

; 1189 :     ~_Tree() noexcept {

  00000	56		 push	 esi
  00001	57		 push	 edi
  00002	8b f9		 mov	 edi, ecx

; 752  :         _Erase_tree(_Al, _Myhead->_Parent);

  00004	8b 07		 mov	 eax, DWORD PTR [edi]
  00006	8b 70 04	 mov	 esi, DWORD PTR [eax+4]

; 743  :         while (!_Rootnode->_Isnil) { // free subtrees, then node

  00009	80 7e 0d 00	 cmp	 BYTE PTR [esi+13], 0
  0000d	75 23		 jne	 SHORT $LN7@Tree
  0000f	90		 npad	 1
$LL6@Tree:

; 744  :             _Erase_tree(_Al, _Rootnode->_Right);

  00010	ff 76 08	 push	 DWORD PTR [esi+8]
  00013	8b cf		 mov	 ecx, edi
  00015	57		 push	 edi
  00016	e8 00 00 00 00	 call	 ??$_Erase_tree@V?$allocator@U?$_Tree_node@U?$pair@$$CBKK@std@@PAX@std@@@std@@@?$_Tree_val@U?$_Tree_simple_types@U?$pair@$$CBKK@std@@@std@@@std@@QAEXAAV?$allocator@U?$_Tree_node@U?$pair@$$CBKK@std@@PAX@std@@@1@PAU?$_Tree_node@U?$pair@$$CBKK@std@@PAX@1@@Z ; std::_Tree_val<std::_Tree_simple_types<std::pair<unsigned long const ,unsigned long> > >::_Erase_tree<std::allocator<std::_Tree_node<std::pair<unsigned long const ,unsigned long>,void *> > >
; File C:\Program Files (x86)\Microsoft Visual Studio\2019\Community\VC\Tools\MSVC\14.28.29333\include\utility

; 598  :     _Ty _Old_val = static_cast<_Ty&&>(_Val);

  0001b	8b c6		 mov	 eax, esi

; 599  :     _Val         = static_cast<_Other&&>(_New_val);

  0001d	8b 36		 mov	 esi, DWORD PTR [esi]
; File C:\Program Files (x86)\Microsoft Visual Studio\2019\Community\VC\Tools\MSVC\14.28.29333\include\xmemory

; 696  :         _Deallocate<_New_alignof<value_type>>(_Ptr, sizeof(value_type) * _Count);

  0001f	6a 18		 push	 24			; 00000018H
  00021	50		 push	 eax
  00022	e8 00 00 00 00	 call	 ??$_Deallocate@$07$0A@@std@@YAXPAXI@Z ; std::_Deallocate<8,0>
  00027	83 c4 08	 add	 esp, 8
; File C:\Program Files (x86)\Microsoft Visual Studio\2019\Community\VC\Tools\MSVC\14.28.29333\include\xtree

; 743  :         while (!_Rootnode->_Isnil) { // free subtrees, then node

  0002a	80 7e 0d 00	 cmp	 BYTE PTR [esi+13], 0
  0002e	74 e0		 je	 SHORT $LL6@Tree
  00030	8b 07		 mov	 eax, DWORD PTR [edi]
$LN7@Tree:
; File C:\Program Files (x86)\Microsoft Visual Studio\2019\Community\VC\Tools\MSVC\14.28.29333\include\xmemory

; 696  :         _Deallocate<_New_alignof<value_type>>(_Ptr, sizeof(value_type) * _Count);

  00032	6a 18		 push	 24			; 00000018H
  00034	50		 push	 eax
  00035	e8 00 00 00 00	 call	 ??$_Deallocate@$07$0A@@std@@YAXPAXI@Z ; std::_Deallocate<8,0>
  0003a	83 c4 08	 add	 esp, 8
  0003d	5f		 pop	 edi
  0003e	5e		 pop	 esi
; File C:\Program Files (x86)\Microsoft Visual Studio\2019\Community\VC\Tools\MSVC\14.28.29333\include\xtree

; 1196 :     }

  0003f	c3		 ret	 0
??1?$_Tree@V?$_Tmap_traits@KKU?$less@K@std@@V?$allocator@U?$pair@$$CBKK@std@@@2@$0A@@std@@@std@@QAE@XZ ENDP ; std::_Tree<std::_Tmap_traits<unsigned long,unsigned long,std::less<unsigned long>,std::allocator<std::pair<unsigned long const ,unsigned long> >,0> >::~_Tree<std::_Tmap_traits<unsigned long,unsigned long,std::less<unsigned long>,std::allocator<std::pair<unsigned long const ,unsigned long> >,0> >
_TEXT	ENDS
; Function compile flags: /Ogtp
; File C:\Program Files (x86)\Microsoft Visual Studio\2019\Community\VC\Tools\MSVC\14.28.29333\include\xmemory
;	COMDAT ??$_Allocate_manually_vector_aligned@U_Default_allocate_traits@std@@@std@@YAPAXI@Z
_TEXT	SEGMENT
__Bytes$ = 8						; size = 4
??$_Allocate_manually_vector_aligned@U_Default_allocate_traits@std@@@std@@YAPAXI@Z PROC ; std::_Allocate_manually_vector_aligned<std::_Default_allocate_traits>, COMDAT

; 113  : __declspec(allocator) void* _Allocate_manually_vector_aligned(const size_t _Bytes) {

  00000	55		 push	 ebp
  00001	8b ec		 mov	 ebp, esp

; 114  :     // allocate _Bytes manually aligned to at least _Big_allocation_alignment
; 115  :     const size_t _Block_size = _Non_user_size + _Bytes;

  00003	8b 45 08	 mov	 eax, DWORD PTR __Bytes$[ebp]
  00006	8d 48 23	 lea	 ecx, DWORD PTR [eax+35]

; 116  :     if (_Block_size <= _Bytes) {

  00009	3b c8		 cmp	 ecx, eax
  0000b	0f 86 00 00 00
	00		 jbe	 ?_Throw_bad_array_new_length@std@@YAXXZ ; std::_Throw_bad_array_new_length

; 77   :         return ::operator new(_Bytes);

  00011	51		 push	 ecx
  00012	e8 00 00 00 00	 call	 ??2@YAPAXI@Z		; operator new

; 117  :         _Throw_bad_array_new_length(); // add overflow
; 118  :     }
; 119  : 
; 120  :     const uintptr_t _Ptr_container = reinterpret_cast<uintptr_t>(_Traits::_Allocate(_Block_size));

  00017	8b c8		 mov	 ecx, eax

; 77   :         return ::operator new(_Bytes);

  00019	83 c4 04	 add	 esp, 4

; 121  :     _STL_VERIFY(_Ptr_container != 0, "invalid argument"); // validate even in release since we're doing p[-1]

  0001c	85 c9		 test	 ecx, ecx
  0001e	74 0b		 je	 SHORT $LN7@Allocate_m

; 122  :     void* const _Ptr = reinterpret_cast<void*>((_Ptr_container + _Non_user_size) & ~(_Big_allocation_alignment - 1));

  00020	8d 41 23	 lea	 eax, DWORD PTR [ecx+35]
  00023	83 e0 e0	 and	 eax, -32		; ffffffe0H

; 123  :     static_cast<uintptr_t*>(_Ptr)[-1] = _Ptr_container;

  00026	89 48 fc	 mov	 DWORD PTR [eax-4], ecx

; 124  : 
; 125  : #ifdef _DEBUG
; 126  :     static_cast<uintptr_t*>(_Ptr)[-2] = _Big_allocation_sentinel;
; 127  : #endif // _DEBUG
; 128  :     return _Ptr;
; 129  : }

  00029	5d		 pop	 ebp
  0002a	c3		 ret	 0
$LN7@Allocate_m:

; 121  :     _STL_VERIFY(_Ptr_container != 0, "invalid argument"); // validate even in release since we're doing p[-1]

  0002b	e9 00 00 00 00	 jmp	 __invalid_parameter_noinfo_noreturn
??$_Allocate_manually_vector_aligned@U_Default_allocate_traits@std@@@std@@YAPAXI@Z ENDP ; std::_Allocate_manually_vector_aligned<std::_Default_allocate_traits>
_TEXT	ENDS
; Function compile flags: /Ogtp
; File C:\Program Files (x86)\Microsoft Visual Studio\2019\Community\VC\Tools\MSVC\14.28.29333\include\xmemory
;	COMDAT ??$_Allocate@$07U_Default_allocate_traits@std@@$0A@@std@@YAPAXI@Z
_TEXT	SEGMENT
__Bytes$ = 8						; size = 4
??$_Allocate@$07U_Default_allocate_traits@std@@$0A@@std@@YAPAXI@Z PROC ; std::_Allocate<8,std::_Default_allocate_traits,0>, COMDAT

; 197  : __declspec(allocator) void* _Allocate(const size_t _Bytes) {

  00000	55		 push	 ebp
  00001	8b ec		 mov	 ebp, esp

; 198  :     // allocate _Bytes when !_HAS_ALIGNED_NEW || _Align <= __STDCPP_DEFAULT_NEW_ALIGNMENT__
; 199  : #if defined(_M_IX86) || defined(_M_X64)
; 200  :     if (_Bytes >= _Big_allocation_threshold) { // boost the alignment of big allocations to help autovectorization

  00003	8b 45 08	 mov	 eax, DWORD PTR __Bytes$[ebp]
  00006	3d 00 10 00 00	 cmp	 eax, 4096		; 00001000H
  0000b	72 09		 jb	 SHORT $LN2@Allocate

; 201  :         return _Allocate_manually_vector_aligned<_Traits>(_Bytes);

  0000d	89 45 08	 mov	 DWORD PTR __Bytes$[ebp], eax

; 210  : }

  00010	5d		 pop	 ebp

; 201  :         return _Allocate_manually_vector_aligned<_Traits>(_Bytes);

  00011	e9 00 00 00 00	 jmp	 ??$_Allocate_manually_vector_aligned@U_Default_allocate_traits@std@@@std@@YAPAXI@Z ; std::_Allocate_manually_vector_aligned<std::_Default_allocate_traits>
$LN2@Allocate:

; 202  :     }
; 203  : #endif // defined(_M_IX86) || defined(_M_X64)
; 204  : 
; 205  :     if (_Bytes != 0) {

  00016	85 c0		 test	 eax, eax
  00018	74 09		 je	 SHORT $LN3@Allocate

; 77   :         return ::operator new(_Bytes);

  0001a	89 45 08	 mov	 DWORD PTR __Bytes$[ebp], eax

; 210  : }

  0001d	5d		 pop	 ebp

; 77   :         return ::operator new(_Bytes);

  0001e	e9 00 00 00 00	 jmp	 ??2@YAPAXI@Z		; operator new
$LN3@Allocate:

; 206  :         return _Traits::_Allocate(_Bytes);
; 207  :     }
; 208  : 
; 209  :     return nullptr;

  00023	33 c0		 xor	 eax, eax

; 210  : }

  00025	5d		 pop	 ebp
  00026	c3		 ret	 0
??$_Allocate@$07U_Default_allocate_traits@std@@$0A@@std@@YAPAXI@Z ENDP ; std::_Allocate<8,std::_Default_allocate_traits,0>
_TEXT	ENDS
; Function compile flags: /Ogtp
; File C:\Program Files (x86)\Microsoft Visual Studio\2019\Community\VC\Tools\MSVC\14.28.29333\include\xmemory
;	COMDAT ??$_Deallocate@$07$0A@@std@@YAXPAXI@Z
_TEXT	SEGMENT
__Ptr$ = 8						; size = 4
__Bytes$ = 12						; size = 4
??$_Deallocate@$07$0A@@std@@YAXPAXI@Z PROC		; std::_Deallocate<8,0>, COMDAT

; 213  : void _Deallocate(void* _Ptr, size_t _Bytes) noexcept {

  00000	55		 push	 ebp
  00001	8b ec		 mov	 ebp, esp

; 214  :     // deallocate storage allocated by _Allocate when !_HAS_ALIGNED_NEW || _Align <= __STDCPP_DEFAULT_NEW_ALIGNMENT__
; 215  : #if defined(_M_IX86) || defined(_M_X64)
; 216  :     if (_Bytes >= _Big_allocation_threshold) { // boost the alignment of big allocations to help autovectorization

  00003	8b 4d 0c	 mov	 ecx, DWORD PTR __Bytes$[ebp]
  00006	81 f9 00 10 00
	00		 cmp	 ecx, 4096		; 00001000H
  0000c	72 18		 jb	 SHORT $LN15@Deallocate

; 137  :     const uintptr_t _Ptr_container   = _Ptr_user[-1];

  0000e	8b 45 08	 mov	 eax, DWORD PTR __Ptr$[ebp]
  00011	83 c1 23	 add	 ecx, 35			; 00000023H
  00014	8b 50 fc	 mov	 edx, DWORD PTR [eax-4]

; 138  : 
; 139  :     // If the following asserts, it likely means that we are performing
; 140  :     // an aligned delete on memory coming from an unaligned allocation.
; 141  :     _STL_ASSERT(_Ptr_user[-2] == _Big_allocation_sentinel, "invalid argument");
; 142  : 
; 143  :     // Extra paranoia on aligned allocation/deallocation; ensure _Ptr_container is
; 144  :     // in range [_Min_back_shift, _Non_user_size]
; 145  : #ifdef _DEBUG
; 146  :     constexpr uintptr_t _Min_back_shift = 2 * sizeof(void*);
; 147  : #else // ^^^ _DEBUG ^^^ // vvv !_DEBUG vvv
; 148  :     constexpr uintptr_t _Min_back_shift = sizeof(void*);
; 149  : #endif // _DEBUG
; 150  :     const uintptr_t _Back_shift = reinterpret_cast<uintptr_t>(_Ptr) - _Ptr_container;

  00017	2b c2		 sub	 eax, edx

; 151  :     _STL_VERIFY(_Back_shift >= _Min_back_shift && _Back_shift <= _Non_user_size, "invalid argument");

  00019	83 c0 fc	 add	 eax, -4			; fffffffcH
  0001c	83 f8 1f	 cmp	 eax, 31			; 0000001fH
  0001f	76 08		 jbe	 SHORT $LN13@Deallocate
  00021	e9 00 00 00 00	 jmp	 __invalid_parameter_noinfo_noreturn
$LN15@Deallocate:

; 214  :     // deallocate storage allocated by _Allocate when !_HAS_ALIGNED_NEW || _Align <= __STDCPP_DEFAULT_NEW_ALIGNMENT__
; 215  : #if defined(_M_IX86) || defined(_M_X64)
; 216  :     if (_Bytes >= _Big_allocation_threshold) { // boost the alignment of big allocations to help autovectorization

  00026	8b 55 08	 mov	 edx, DWORD PTR __Ptr$[ebp]
$LN13@Deallocate:

; 217  :         _Adjust_manually_vector_aligned(_Ptr, _Bytes);
; 218  :     }
; 219  : #endif // defined(_M_IX86) || defined(_M_X64)
; 220  : 
; 221  :     ::operator delete(_Ptr, _Bytes);

  00029	89 4d 0c	 mov	 DWORD PTR __Bytes$[ebp], ecx
  0002c	89 55 08	 mov	 DWORD PTR __Ptr$[ebp], edx

; 222  : }

  0002f	5d		 pop	 ebp

; 217  :         _Adjust_manually_vector_aligned(_Ptr, _Bytes);
; 218  :     }
; 219  : #endif // defined(_M_IX86) || defined(_M_X64)
; 220  : 
; 221  :     ::operator delete(_Ptr, _Bytes);

  00030	e9 00 00 00 00	 jmp	 ??3@YAXPAXI@Z		; operator delete
??$_Deallocate@$07$0A@@std@@YAXPAXI@Z ENDP		; std::_Deallocate<8,0>
_TEXT	ENDS
; Function compile flags: /Ogtp
; File C:\Program Files (x86)\Microsoft Visual Studio\2019\Community\VC\Tools\MSVC\14.28.29333\include\xmemory
;	COMDAT ??$_Construct_in_place@PADABQAD@std@@YAXAAPADABQAD@Z
_TEXT	SEGMENT
__Obj$ = 8						; size = 4
_<_Args_0>$ = 12					; size = 4
??$_Construct_in_place@PADABQAD@std@@YAXAAPADABQAD@Z PROC ; std::_Construct_in_place<char *,char * const &>, COMDAT

; 228  : void _Construct_in_place(_Ty& _Obj, _Types&&... _Args) noexcept(is_nothrow_constructible_v<_Ty, _Types...>) {

  00000	55		 push	 ebp
  00001	8b ec		 mov	 ebp, esp

; 229  :     ::new (const_cast<void*>(static_cast<const volatile void*>(_STD addressof(_Obj))))

  00003	8b 45 0c	 mov	 eax, DWORD PTR _<_Args_0>$[ebp]
  00006	8b 08		 mov	 ecx, DWORD PTR [eax]
  00008	8b 45 08	 mov	 eax, DWORD PTR __Obj$[ebp]
  0000b	89 08		 mov	 DWORD PTR [eax], ecx

; 230  :         _Ty(_STD forward<_Types>(_Args)...);
; 231  : }

  0000d	5d		 pop	 ebp
  0000e	c3		 ret	 0
??$_Construct_in_place@PADABQAD@std@@YAXAAPADABQAD@Z ENDP ; std::_Construct_in_place<char *,char * const &>
_TEXT	ENDS
; Function compile flags: /Ogtp
; File C:\Program Files (x86)\Microsoft Visual Studio\2019\Community\VC\Tools\MSVC\14.28.29333\include\xmemory
;	COMDAT ??$_Destroy_in_place@PAD@std@@YAXAAPAD@Z
_TEXT	SEGMENT
__Obj$ = 8						; size = 4
??$_Destroy_in_place@PAD@std@@YAXAAPAD@Z PROC		; std::_Destroy_in_place<char *>, COMDAT

; 271  : #if _HAS_IF_CONSTEXPR
; 272  :     if constexpr (is_array_v<_Ty>) {
; 273  :         _Destroy_range(_Obj, _Obj + extent_v<_Ty>);
; 274  :     } else
; 275  : #endif // _HAS_IF_CONSTEXPR
; 276  :     {
; 277  :         _Obj.~_Ty();
; 278  :     }
; 279  : }

  00000	c2 00 00	 ret	 0
??$_Destroy_in_place@PAD@std@@YAXAAPAD@Z ENDP		; std::_Destroy_in_place<char *>
_TEXT	ENDS
; Function compile flags: /Ogtp
; File D:\Metin2 Server Files\mainline\SRC_2014\Metin2Client\eterBase\Singleton.h
;	COMDAT ??_GIBackground@@UAEPAXI@Z
_TEXT	SEGMENT
___flags$ = 8						; size = 4
??_GIBackground@@UAEPAXI@Z PROC				; IBackground::`scalar deleting destructor', COMDAT
; _this$ = ecx
  00000	55		 push	 ebp
  00001	8b ec		 mov	 ebp, esp
  00003	f6 45 08 01	 test	 BYTE PTR ___flags$[ebp], 1

; 19   : 	{ 

  00007	56		 push	 esi
  00008	8b f1		 mov	 esi, ecx
  0000a	c7 06 00 00 00
	00		 mov	 DWORD PTR [esi], OFFSET ??_7?$CSingleton@VIBackground@@@@6B@

; 20   : 		assert(ms_singleton);
; 21   : 		ms_singleton = 0; 

  00010	c7 05 00 00 00
	00 00 00 00 00	 mov	 DWORD PTR ?ms_singleton@?$CSingleton@VIBackground@@@@0PAVIBackground@@A, 0 ; CSingleton<IBackground>::ms_singleton
  0001a	74 0b		 je	 SHORT $LN9@scalar
  0001c	6a 04		 push	 4
  0001e	56		 push	 esi
  0001f	e8 00 00 00 00	 call	 ??3@YAXPAXI@Z		; operator delete
  00024	83 c4 08	 add	 esp, 8
$LN9@scalar:
  00027	8b c6		 mov	 eax, esi
  00029	5e		 pop	 esi
  0002a	5d		 pop	 ebp
  0002b	c2 04 00	 ret	 4
??_GIBackground@@UAEPAXI@Z ENDP				; IBackground::`scalar deleting destructor'
_TEXT	ENDS
; Function compile flags: /Ogtp
; File D:\Metin2 Server Files\mainline\SRC_2014\Metin2Client\gameLib\Interface.h
; File D:\Metin2 Server Files\mainline\SRC_2014\Metin2Client\eterBase\Singleton.h
; File D:\Metin2 Server Files\mainline\SRC_2014\Metin2Client\gameLib\Interface.h
;	COMDAT ??1IBackground@@UAE@XZ
_TEXT	SEGMENT
??1IBackground@@UAE@XZ PROC				; IBackground::~IBackground, COMDAT
; _this$ = ecx
; File D:\Metin2 Server Files\mainline\SRC_2014\Metin2Client\eterBase\Singleton.h

; 19   : 	{ 

  00000	c7 01 00 00 00
	00		 mov	 DWORD PTR [ecx], OFFSET ??_7?$CSingleton@VIBackground@@@@6B@

; 20   : 		assert(ms_singleton);
; 21   : 		ms_singleton = 0; 

  00006	c7 05 00 00 00
	00 00 00 00 00	 mov	 DWORD PTR ?ms_singleton@?$CSingleton@VIBackground@@@@0PAVIBackground@@A, 0 ; CSingleton<IBackground>::ms_singleton
; File D:\Metin2 Server Files\mainline\SRC_2014\Metin2Client\gameLib\Interface.h

; 8    : 		virtual ~IBackground() {}

  00010	c3		 ret	 0
??1IBackground@@UAE@XZ ENDP				; IBackground::~IBackground
_TEXT	ENDS
; Function compile flags: /Ogtp
; File D:\Metin2 Server Files\mainline\SRC_2014\Metin2Client\eterBase\Singleton.h
;	COMDAT ??_G?$CSingleton@VIBackground@@@@UAEPAXI@Z
_TEXT	SEGMENT
___flags$ = 8						; size = 4
??_G?$CSingleton@VIBackground@@@@UAEPAXI@Z PROC		; CSingleton<IBackground>::`scalar deleting destructor', COMDAT
; _this$ = ecx
  00000	55		 push	 ebp
  00001	8b ec		 mov	 ebp, esp
  00003	f6 45 08 01	 test	 BYTE PTR ___flags$[ebp], 1

; 19   : 	{ 

  00007	56		 push	 esi
  00008	8b f1		 mov	 esi, ecx
  0000a	c7 06 00 00 00
	00		 mov	 DWORD PTR [esi], OFFSET ??_7?$CSingleton@VIBackground@@@@6B@

; 20   : 		assert(ms_singleton);
; 21   : 		ms_singleton = 0; 

  00010	c7 05 00 00 00
	00 00 00 00 00	 mov	 DWORD PTR ?ms_singleton@?$CSingleton@VIBackground@@@@0PAVIBackground@@A, 0 ; CSingleton<IBackground>::ms_singleton
  0001a	74 0b		 je	 SHORT $LN6@scalar
  0001c	6a 04		 push	 4
  0001e	56		 push	 esi
  0001f	e8 00 00 00 00	 call	 ??3@YAXPAXI@Z		; operator delete
  00024	83 c4 08	 add	 esp, 8
$LN6@scalar:
  00027	8b c6		 mov	 eax, esi
  00029	5e		 pop	 esi
  0002a	5d		 pop	 ebp
  0002b	c2 04 00	 ret	 4
??_G?$CSingleton@VIBackground@@@@UAEPAXI@Z ENDP		; CSingleton<IBackground>::`scalar deleting destructor'
_TEXT	ENDS
; Function compile flags: /Ogtp
; File D:\Metin2 Server Files\mainline\SRC_2014\Metin2Client\eterBase\Singleton.h
;	COMDAT ??1?$CSingleton@VIBackground@@@@UAE@XZ
_TEXT	SEGMENT
??1?$CSingleton@VIBackground@@@@UAE@XZ PROC		; CSingleton<IBackground>::~CSingleton<IBackground>, COMDAT
; _this$ = ecx

; 19   : 	{ 

  00000	c7 01 00 00 00
	00		 mov	 DWORD PTR [ecx], OFFSET ??_7?$CSingleton@VIBackground@@@@6B@

; 20   : 		assert(ms_singleton);
; 21   : 		ms_singleton = 0; 

  00006	c7 05 00 00 00
	00 00 00 00 00	 mov	 DWORD PTR ?ms_singleton@?$CSingleton@VIBackground@@@@0PAVIBackground@@A, 0 ; CSingleton<IBackground>::ms_singleton

; 22   : 	}

  00010	c3		 ret	 0
??1?$CSingleton@VIBackground@@@@UAE@XZ ENDP		; CSingleton<IBackground>::~CSingleton<IBackground>
_TEXT	ENDS
; Function compile flags: /Ogtp
; File C:\Program Files (x86)\Microsoft Visual Studio\2019\Community\VC\Tools\MSVC\14.28.29333\include\xstring
; File C:\Program Files (x86)\Microsoft Visual Studio\2019\Community\VC\Tools\MSVC\14.28.29333\include\utility
; File C:\Program Files (x86)\Microsoft Visual Studio\2019\Community\VC\Tools\MSVC\14.28.29333\include\xstring
; File C:\Program Files (x86)\Microsoft Visual Studio\2019\Community\VC\Tools\MSVC\14.28.29333\include\xmemory
; File C:\Program Files (x86)\Microsoft Visual Studio\2019\Community\VC\Tools\MSVC\14.28.29333\include\xstring
; File C:\Program Files (x86)\Microsoft Visual Studio\2019\Community\VC\Tools\MSVC\14.28.29333\include\xmemory
; File C:\Program Files (x86)\Microsoft Visual Studio\2019\Community\VC\Tools\MSVC\14.28.29333\include\xstring
;	COMDAT ?assign@?$basic_string@DU?$char_traits@D@std@@V?$allocator@D@2@@std@@QAEAAV12@QBDI@Z
_TEXT	SEGMENT
__Old$1$ = -4						; size = 4
__Ptr$ = 8						; size = 4
__New_ptr$1 = 12					; size = 4
__Count$ = 12						; size = 4
?assign@?$basic_string@DU?$char_traits@D@std@@V?$allocator@D@2@@std@@QAEAAV12@QBDI@Z PROC ; std::basic_string<char,std::char_traits<char>,std::allocator<char> >::assign, COMDAT
; _this$ = ecx

; 3042 :     basic_string& assign(_In_reads_(_Count) const _Elem* const _Ptr, _CRT_GUARDOVERFLOW const size_type _Count) {

  00000	55		 push	 ebp
  00001	8b ec		 mov	 ebp, esp
  00003	51		 push	 ecx
  00004	53		 push	 ebx
  00005	56		 push	 esi
  00006	8b f1		 mov	 esi, ecx
  00008	57		 push	 edi

; 3043 :         // assign [_Ptr, _Ptr + _Count)
; 3044 :         if (_Count <= _Mypair._Myval2._Myres) {

  00009	8b 7d 0c	 mov	 edi, DWORD PTR __Count$[ebp]
  0000c	8b 4e 14	 mov	 ecx, DWORD PTR [esi+20]
  0000f	89 4d fc	 mov	 DWORD PTR __Old$1$[ebp], ecx
  00012	3b f9		 cmp	 edi, ecx
  00014	77 28		 ja	 SHORT $LN2@assign

; 2209 :         value_type* _Result = _Bx._Buf;

  00016	8b de		 mov	 ebx, esi

; 2227 :         return _BUF_SIZE <= _Myres;

  00018	83 f9 10	 cmp	 ecx, 16			; 00000010H

; 2210 :         if (_Large_string_engaged()) {

  0001b	72 02		 jb	 SHORT $LN5@assign

; 2211 :             _Result = _Unfancy(_Bx._Ptr);

  0001d	8b 1e		 mov	 ebx, DWORD PTR [esi]
$LN5@assign:

; 119  :         _CSTD memmove(_First1, _First2, _Count * sizeof(_Elem));

  0001f	57		 push	 edi
  00020	ff 75 08	 push	 DWORD PTR __Ptr$[ebp]

; 3045 :             _Elem* const _Old_ptr   = _Mypair._Myval2._Myptr();
; 3046 :             _Mypair._Myval2._Mysize = _Count;

  00023	89 7e 10	 mov	 DWORD PTR [esi+16], edi

; 119  :         _CSTD memmove(_First1, _First2, _Count * sizeof(_Elem));

  00026	53		 push	 ebx
  00027	e8 00 00 00 00	 call	 _memmove
  0002c	83 c4 0c	 add	 esp, 12			; 0000000cH

; 3047 :             _Traits::move(_Old_ptr, _Ptr, _Count);
; 3048 :             _Traits::assign(_Old_ptr[_Count], _Elem());

  0002f	c6 04 3b 00	 mov	 BYTE PTR [ebx+edi], 0

; 3059 :     }

  00033	8b c6		 mov	 eax, esi
  00035	5f		 pop	 edi
  00036	5e		 pop	 esi
  00037	5b		 pop	 ebx
  00038	8b e5		 mov	 esp, ebp
  0003a	5d		 pop	 ebp
  0003b	c2 08 00	 ret	 8
$LN2@assign:

; 4305 :         if (_New_size > max_size()) {

  0003e	81 ff ff ff ff
	7f		 cmp	 edi, 2147483647		; 7fffffffH
  00044	0f 87 91 00 00
	00		 ja	 $LN36@assign

; 4285 :         const size_type _Masked = _Requested | _ALLOC_MASK;

  0004a	8b df		 mov	 ebx, edi
  0004c	83 cb 0f	 or	 ebx, 15			; 0000000fH
  0004f	81 fb ff ff ff
	7f		 cmp	 ebx, 2147483647		; 7fffffffH

; 4286 :         if (_Masked > _Max) { // the mask overflows, settle for max_size()

  00055	76 07		 jbe	 SHORT $LN19@assign

; 4287 :             return _Max;

  00057	bb ff ff ff 7f	 mov	 ebx, 2147483647		; 7fffffffH
  0005c	eb 1e		 jmp	 SHORT $LN18@assign
$LN19@assign:

; 4288 :         }
; 4289 : 
; 4290 :         if (_Old > _Max - _Old / 2) { // similarly, geometric overflows

  0005e	8b d1		 mov	 edx, ecx
  00060	b8 ff ff ff 7f	 mov	 eax, 2147483647		; 7fffffffH
  00065	d1 ea		 shr	 edx, 1
  00067	2b c2		 sub	 eax, edx
  00069	3b c8		 cmp	 ecx, eax
  0006b	76 07		 jbe	 SHORT $LN20@assign

; 4291 :             return _Max;

  0006d	bb ff ff ff 7f	 mov	 ebx, 2147483647		; 7fffffffH
  00072	eb 08		 jmp	 SHORT $LN18@assign
$LN20@assign:

; 4292 :         }
; 4293 : 
; 4294 :         return (_STD max)(_Masked, _Old + _Old / 2);

  00074	8d 04 0a	 lea	 eax, DWORD PTR [edx+ecx]
; File C:\Program Files (x86)\Microsoft Visual Studio\2019\Community\VC\Tools\MSVC\14.28.29333\include\utility

; 44   :     return _Left < _Right ? _Right : _Left;

  00077	3b d8		 cmp	 ebx, eax
  00079	0f 42 d8	 cmovb	 ebx, eax
$LN18@assign:
; File C:\Program Files (x86)\Microsoft Visual Studio\2019\Community\VC\Tools\MSVC\14.28.29333\include\xstring

; 4312 :         const pointer _New_ptr        = _Al.allocate(_New_capacity + 1); // throws

  0007c	8d 43 01	 lea	 eax, DWORD PTR [ebx+1]
; File C:\Program Files (x86)\Microsoft Visual Studio\2019\Community\VC\Tools\MSVC\14.28.29333\include\xmemory

; 814  :         return static_cast<_Ty*>(_Allocate<_New_alignof<_Ty>>(_Get_size_of_n<sizeof(_Ty)>(_Count)));

  0007f	50		 push	 eax
  00080	e8 00 00 00 00	 call	 ??$_Allocate@$07U_Default_allocate_traits@std@@$0A@@std@@YAPAXI@Z ; std::_Allocate<8,std::_Default_allocate_traits,0>
; File C:\Program Files (x86)\Microsoft Visual Studio\2019\Community\VC\Tools\MSVC\14.28.29333\include\xstring

; 62   :         _CSTD memcpy(_First1, _First2, _Count * sizeof(_Elem));

  00085	57		 push	 edi
  00086	ff 75 08	 push	 DWORD PTR __Ptr$[ebp]

; 4312 :         const pointer _New_ptr        = _Al.allocate(_New_capacity + 1); // throws

  00089	89 45 0c	 mov	 DWORD PTR __New_ptr$1[ebp], eax

; 62   :         _CSTD memcpy(_First1, _First2, _Count * sizeof(_Elem));

  0008c	50		 push	 eax

; 4314 :         _Mypair._Myval2._Mysize = _New_size;

  0008d	89 7e 10	 mov	 DWORD PTR [esi+16], edi

; 4315 :         _Mypair._Myval2._Myres  = _New_capacity;

  00090	89 5e 14	 mov	 DWORD PTR [esi+20], ebx

; 62   :         _CSTD memcpy(_First1, _First2, _Count * sizeof(_Elem));

  00093	e8 00 00 00 00	 call	 _memcpy

; 3056 :                 _Traits::assign(_New_ptr[_Count], _Elem());

  00098	8b 5d 0c	 mov	 ebx, DWORD PTR __New_ptr$1[ebp]

; 62   :         _CSTD memcpy(_First1, _First2, _Count * sizeof(_Elem));

  0009b	83 c4 10	 add	 esp, 16			; 00000010H

; 4317 :         if (_BUF_SIZE <= _Old_capacity) {

  0009e	8b 45 fc	 mov	 eax, DWORD PTR __Old$1$[ebp]

; 3056 :                 _Traits::assign(_New_ptr[_Count], _Elem());

  000a1	c6 04 3b 00	 mov	 BYTE PTR [ebx+edi], 0

; 4317 :         if (_BUF_SIZE <= _Old_capacity) {

  000a5	83 f8 10	 cmp	 eax, 16			; 00000010H
  000a8	72 19		 jb	 SHORT $LN13@assign

; 4318 :             _Al.deallocate(_Mypair._Myval2._Bx._Ptr, _Old_capacity + 1);

  000aa	40		 inc	 eax
; File C:\Program Files (x86)\Microsoft Visual Studio\2019\Community\VC\Tools\MSVC\14.28.29333\include\xmemory

; 810  :         _Deallocate<_New_alignof<_Ty>>(_Ptr, sizeof(_Ty) * _Count);

  000ab	50		 push	 eax
  000ac	ff 36		 push	 DWORD PTR [esi]
  000ae	e8 00 00 00 00	 call	 ??$_Deallocate@$07$0A@@std@@YAXPAXI@Z ; std::_Deallocate<8,0>
; File C:\Program Files (x86)\Microsoft Visual Studio\2019\Community\VC\Tools\MSVC\14.28.29333\include\xstring

; 3059 :     }

  000b3	83 c4 08	 add	 esp, 8

; 4319 :             _Mypair._Myval2._Bx._Ptr = _New_ptr;

  000b6	89 1e		 mov	 DWORD PTR [esi], ebx

; 3059 :     }

  000b8	8b c6		 mov	 eax, esi
  000ba	5f		 pop	 edi
  000bb	5e		 pop	 esi
  000bc	5b		 pop	 ebx
  000bd	8b e5		 mov	 esp, ebp
  000bf	5d		 pop	 ebp
  000c0	c2 08 00	 ret	 8
$LN13@assign:

; 4321 :             _Construct_in_place(_Mypair._Myval2._Bx._Ptr, _New_ptr);

  000c3	8d 45 0c	 lea	 eax, DWORD PTR __New_ptr$1[ebp]
  000c6	50		 push	 eax
  000c7	56		 push	 esi
  000c8	e8 00 00 00 00	 call	 ??$_Construct_in_place@PADABQAD@std@@YAXAAPADABQAD@Z ; std::_Construct_in_place<char *,char * const &>

; 3059 :     }

  000cd	83 c4 08	 add	 esp, 8
  000d0	8b c6		 mov	 eax, esi
  000d2	5f		 pop	 edi
  000d3	5e		 pop	 esi
  000d4	5b		 pop	 ebx
  000d5	8b e5		 mov	 esp, ebp
  000d7	5d		 pop	 ebp
  000d8	c2 08 00	 ret	 8
$LN36@assign:

; 4306 :             _Xlen_string(); // result too long

  000db	e8 00 00 00 00	 call	 ?_Xlen_string@std@@YAXXZ ; std::_Xlen_string
$LN33@assign:
  000e0	cc		 int	 3
?assign@?$basic_string@DU?$char_traits@D@std@@V?$allocator@D@2@@std@@QAEAAV12@QBDI@Z ENDP ; std::basic_string<char,std::char_traits<char>,std::allocator<char> >::assign
_TEXT	ENDS
; Function compile flags: /Ogtp
; File C:\Program Files (x86)\Microsoft Visual Studio\2019\Community\VC\Tools\MSVC\14.28.29333\include\xstring
; File C:\Program Files (x86)\Microsoft Visual Studio\2019\Community\VC\Tools\MSVC\14.28.29333\include\xmemory
; File C:\Program Files (x86)\Microsoft Visual Studio\2019\Community\VC\Tools\MSVC\14.28.29333\include\xstring
;	COMDAT ??1?$basic_string@DU?$char_traits@D@std@@V?$allocator@D@2@@std@@QAE@XZ
_TEXT	SEGMENT
??1?$basic_string@DU?$char_traits@D@std@@V?$allocator@D@2@@std@@QAE@XZ PROC ; std::basic_string<char,std::char_traits<char>,std::allocator<char> >::~basic_string<char,std::char_traits<char>,std::allocator<char> >, COMDAT
; _this$ = ecx

; 2800 :     ~basic_string() noexcept {

  00000	56		 push	 esi
  00001	8b f1		 mov	 esi, ecx

; 2227 :         return _BUF_SIZE <= _Myres;

  00003	8b 46 14	 mov	 eax, DWORD PTR [esi+20]
  00006	83 f8 10	 cmp	 eax, 16			; 00000010H

; 4385 :         if (_Mypair._Myval2._Large_string_engaged()) {

  00009	72 0c		 jb	 SHORT $LN4@basic_stri

; 4386 :             const pointer _Ptr = _Mypair._Myval2._Bx._Ptr;
; 4387 :             auto& _Al          = _Getal();
; 4388 :             _Destroy_in_place(_Mypair._Myval2._Bx._Ptr);
; 4389 :             _Al.deallocate(_Ptr, _Mypair._Myval2._Myres + 1);

  0000b	40		 inc	 eax
; File C:\Program Files (x86)\Microsoft Visual Studio\2019\Community\VC\Tools\MSVC\14.28.29333\include\xmemory

; 810  :         _Deallocate<_New_alignof<_Ty>>(_Ptr, sizeof(_Ty) * _Count);

  0000c	50		 push	 eax
  0000d	ff 36		 push	 DWORD PTR [esi]
  0000f	e8 00 00 00 00	 call	 ??$_Deallocate@$07$0A@@std@@YAXPAXI@Z ; std::_Deallocate<8,0>
  00014	83 c4 08	 add	 esp, 8
$LN4@basic_stri:
; File C:\Program Files (x86)\Microsoft Visual Studio\2019\Community\VC\Tools\MSVC\14.28.29333\include\xstring

; 4392 :         _Mypair._Myval2._Mysize = 0;

  00017	c7 46 10 00 00
	00 00		 mov	 DWORD PTR [esi+16], 0

; 4393 :         _Mypair._Myval2._Myres  = _BUF_SIZE - 1;

  0001e	c7 46 14 0f 00
	00 00		 mov	 DWORD PTR [esi+20], 15	; 0000000fH

; 4394 :         // the _Traits::assign is last so the codegen doesn't think the char write can alias this
; 4395 :         _Traits::assign(_Mypair._Myval2._Bx._Buf[0], _Elem());

  00025	c6 06 00	 mov	 BYTE PTR [esi], 0
  00028	5e		 pop	 esi

; 2801 :         _Tidy_deallocate();
; 2802 : #if _ITERATOR_DEBUG_LEVEL != 0
; 2803 :         auto&& _Alproxy          = _GET_PROXY_ALLOCATOR(_Alty, _Getal());
; 2804 :         const auto _To_delete    = _Mypair._Myval2._Myproxy;
; 2805 :         _Mypair._Myval2._Myproxy = nullptr;
; 2806 :         _Delete_plain_internal(_Alproxy, _To_delete);
; 2807 : #endif // _ITERATOR_DEBUG_LEVEL != 0
; 2808 :     }

  00029	c3		 ret	 0
??1?$basic_string@DU?$char_traits@D@std@@V?$allocator@D@2@@std@@QAE@XZ ENDP ; std::basic_string<char,std::char_traits<char>,std::allocator<char> >::~basic_string<char,std::char_traits<char>,std::allocator<char> >
_TEXT	ENDS
; Function compile flags: /Ogtp
; File C:\Program Files (x86)\Microsoft Visual Studio\2019\Community\VC\Tools\MSVC\14.28.29333\include\xstring
;	COMDAT ?_Xlen_string@std@@YAXXZ
_TEXT	SEGMENT
?_Xlen_string@std@@YAXXZ PROC				; std::_Xlen_string, COMDAT

; 2275 :     _Xlength_error("string too long");

  00000	68 00 00 00 00	 push	 OFFSET ??_C@_0BA@JFNIOLAK@string?5too?5long@
  00005	e8 00 00 00 00	 call	 ?_Xlength_error@std@@YAXPBD@Z ; std::_Xlength_error
$LN3@Xlen_strin:
  0000a	cc		 int	 3
?_Xlen_string@std@@YAXXZ ENDP				; std::_Xlen_string
_TEXT	ENDS
; Function compile flags: /Ogtp
; File C:\Program Files (x86)\Microsoft Visual Studio\2019\Community\VC\Tools\MSVC\14.28.29333\include\exception
;	COMDAT ?_Throw_bad_array_new_length@std@@YAXXZ
_TEXT	SEGMENT
$T1 = -12						; size = 12
?_Throw_bad_array_new_length@std@@YAXXZ PROC		; std::_Throw_bad_array_new_length, COMDAT

; 320  : [[noreturn]] inline void _Throw_bad_array_new_length() {

  00000	55		 push	 ebp
  00001	8b ec		 mov	 ebp, esp
  00003	83 ec 0c	 sub	 esp, 12			; 0000000cH

; 321  :     _THROW(bad_array_new_length{});

  00006	8d 4d f4	 lea	 ecx, DWORD PTR $T1[ebp]
  00009	e8 00 00 00 00	 call	 ??0bad_array_new_length@std@@QAE@XZ ; std::bad_array_new_length::bad_array_new_length
  0000e	68 00 00 00 00	 push	 OFFSET __TI3?AVbad_array_new_length@std@@
  00013	8d 45 f4	 lea	 eax, DWORD PTR $T1[ebp]
  00016	50		 push	 eax
  00017	e8 00 00 00 00	 call	 __CxxThrowException@8
$LN3@Throw_bad_:
  0001c	cc		 int	 3
?_Throw_bad_array_new_length@std@@YAXXZ ENDP		; std::_Throw_bad_array_new_length
_TEXT	ENDS
; Function compile flags: /Ogtp
; File C:\Program Files (x86)\Microsoft Visual Studio\2019\Community\VC\Tools\MSVC\14.28.29333\include\vcruntime_exception.h
;	COMDAT ??_Gbad_array_new_length@std@@UAEPAXI@Z
_TEXT	SEGMENT
___flags$ = 8						; size = 4
??_Gbad_array_new_length@std@@UAEPAXI@Z PROC		; std::bad_array_new_length::`scalar deleting destructor', COMDAT
; _this$ = ecx
  00000	55		 push	 ebp
  00001	8b ec		 mov	 ebp, esp

; 89   :     {

  00003	56		 push	 esi
  00004	8b f1		 mov	 esi, ecx

; 90   :         __std_exception_destroy(&_Data);

  00006	8d 46 04	 lea	 eax, DWORD PTR [esi+4]
  00009	c7 06 00 00 00
	00		 mov	 DWORD PTR [esi], OFFSET ??_7exception@std@@6B@
  0000f	50		 push	 eax
  00010	e8 00 00 00 00	 call	 ___std_exception_destroy
  00015	83 c4 04	 add	 esp, 4
  00018	f6 45 08 01	 test	 BYTE PTR ___flags$[ebp], 1
  0001c	74 0b		 je	 SHORT $LN12@scalar
  0001e	6a 0c		 push	 12			; 0000000cH
  00020	56		 push	 esi
  00021	e8 00 00 00 00	 call	 ??3@YAXPAXI@Z		; operator delete
  00026	83 c4 08	 add	 esp, 8
$LN12@scalar:
  00029	8b c6		 mov	 eax, esi
  0002b	5e		 pop	 esi
  0002c	5d		 pop	 ebp
  0002d	c2 04 00	 ret	 4
??_Gbad_array_new_length@std@@UAEPAXI@Z ENDP		; std::bad_array_new_length::`scalar deleting destructor'
_TEXT	ENDS
; Function compile flags: /Ogtp
; File C:\Program Files (x86)\Microsoft Visual Studio\2019\Community\VC\Tools\MSVC\14.28.29333\include\vcruntime_exception.h
;	COMDAT ??0bad_array_new_length@std@@QAE@ABV01@@Z
_TEXT	SEGMENT
___that$ = 8						; size = 4
??0bad_array_new_length@std@@QAE@ABV01@@Z PROC		; std::bad_array_new_length::bad_array_new_length, COMDAT
; _this$ = ecx
  00000	55		 push	 ebp
  00001	8b ec		 mov	 ebp, esp

; 72   :     {

  00003	56		 push	 esi
  00004	8b f1		 mov	 esi, ecx
  00006	0f 57 c0	 xorps	 xmm0, xmm0

; 71   :         : _Data()

  00009	8d 46 04	 lea	 eax, DWORD PTR [esi+4]

; 73   :         __std_exception_copy(&_Other._Data, &_Data);

  0000c	50		 push	 eax
  0000d	c7 06 00 00 00
	00		 mov	 DWORD PTR [esi], OFFSET ??_7exception@std@@6B@
  00013	66 0f d6 00	 movq	 QWORD PTR [eax], xmm0
  00017	8b 45 08	 mov	 eax, DWORD PTR ___that$[ebp]
  0001a	83 c0 04	 add	 eax, 4
  0001d	50		 push	 eax
  0001e	e8 00 00 00 00	 call	 ___std_exception_copy
  00023	83 c4 08	 add	 esp, 8
  00026	c7 06 00 00 00
	00		 mov	 DWORD PTR [esi], OFFSET ??_7bad_array_new_length@std@@6B@
  0002c	8b c6		 mov	 eax, esi
  0002e	5e		 pop	 esi
  0002f	5d		 pop	 ebp
  00030	c2 04 00	 ret	 4
??0bad_array_new_length@std@@QAE@ABV01@@Z ENDP		; std::bad_array_new_length::bad_array_new_length
_TEXT	ENDS
; Function compile flags: /Ogtp
; File C:\Program Files (x86)\Microsoft Visual Studio\2019\Community\VC\Tools\MSVC\14.28.29333\include\vcruntime_exception.h
;	COMDAT ??1bad_array_new_length@std@@UAE@XZ
_TEXT	SEGMENT
??1bad_array_new_length@std@@UAE@XZ PROC		; std::bad_array_new_length::~bad_array_new_length, COMDAT
; _this$ = ecx

; 90   :         __std_exception_destroy(&_Data);

  00000	8d 41 04	 lea	 eax, DWORD PTR [ecx+4]
  00003	c7 01 00 00 00
	00		 mov	 DWORD PTR [ecx], OFFSET ??_7exception@std@@6B@
  00009	50		 push	 eax
  0000a	e8 00 00 00 00	 call	 ___std_exception_destroy
  0000f	59		 pop	 ecx
  00010	c3		 ret	 0
??1bad_array_new_length@std@@UAE@XZ ENDP		; std::bad_array_new_length::~bad_array_new_length
_TEXT	ENDS
; Function compile flags: /Ogtp
; File C:\Program Files (x86)\Microsoft Visual Studio\2019\Community\VC\Tools\MSVC\14.28.29333\include\vcruntime_exception.h
;	COMDAT ??0bad_array_new_length@std@@QAE@XZ
_TEXT	SEGMENT
??0bad_array_new_length@std@@QAE@XZ PROC		; std::bad_array_new_length::bad_array_new_length, COMDAT
; _this$ = ecx

; 141  :     {

  00000	0f 57 c0	 xorps	 xmm0, xmm0

; 142  :     }

  00003	8b c1		 mov	 eax, ecx

; 65   :         : _Data()

  00005	66 0f d6 41 04	 movq	 QWORD PTR [ecx+4], xmm0

; 66   :     {
; 67   :         _Data._What = _Message;

  0000a	c7 41 04 00 00
	00 00		 mov	 DWORD PTR [ecx+4], OFFSET ??_C@_0BF@KINCDENJ@bad?5array?5new?5length@

; 141  :     {

  00011	c7 01 00 00 00
	00		 mov	 DWORD PTR [ecx], OFFSET ??_7bad_array_new_length@std@@6B@

; 142  :     }

  00017	c3		 ret	 0
??0bad_array_new_length@std@@QAE@XZ ENDP		; std::bad_array_new_length::bad_array_new_length
_TEXT	ENDS
; Function compile flags: /Ogtp
; File C:\Program Files (x86)\Microsoft Visual Studio\2019\Community\VC\Tools\MSVC\14.28.29333\include\vcruntime_exception.h
;	COMDAT ??_Gbad_alloc@std@@UAEPAXI@Z
_TEXT	SEGMENT
___flags$ = 8						; size = 4
??_Gbad_alloc@std@@UAEPAXI@Z PROC			; std::bad_alloc::`scalar deleting destructor', COMDAT
; _this$ = ecx
  00000	55		 push	 ebp
  00001	8b ec		 mov	 ebp, esp

; 89   :     {

  00003	56		 push	 esi
  00004	8b f1		 mov	 esi, ecx

; 90   :         __std_exception_destroy(&_Data);

  00006	8d 46 04	 lea	 eax, DWORD PTR [esi+4]
  00009	c7 06 00 00 00
	00		 mov	 DWORD PTR [esi], OFFSET ??_7exception@std@@6B@
  0000f	50		 push	 eax
  00010	e8 00 00 00 00	 call	 ___std_exception_destroy
  00015	83 c4 04	 add	 esp, 4
  00018	f6 45 08 01	 test	 BYTE PTR ___flags$[ebp], 1
  0001c	74 0b		 je	 SHORT $LN9@scalar
  0001e	6a 0c		 push	 12			; 0000000cH
  00020	56		 push	 esi
  00021	e8 00 00 00 00	 call	 ??3@YAXPAXI@Z		; operator delete
  00026	83 c4 08	 add	 esp, 8
$LN9@scalar:
  00029	8b c6		 mov	 eax, esi
  0002b	5e		 pop	 esi
  0002c	5d		 pop	 ebp
  0002d	c2 04 00	 ret	 4
??_Gbad_alloc@std@@UAEPAXI@Z ENDP			; std::bad_alloc::`scalar deleting destructor'
_TEXT	ENDS
; Function compile flags: /Ogtp
; File C:\Program Files (x86)\Microsoft Visual Studio\2019\Community\VC\Tools\MSVC\14.28.29333\include\vcruntime_exception.h
;	COMDAT ??0bad_alloc@std@@QAE@ABV01@@Z
_TEXT	SEGMENT
___that$ = 8						; size = 4
??0bad_alloc@std@@QAE@ABV01@@Z PROC			; std::bad_alloc::bad_alloc, COMDAT
; _this$ = ecx
  00000	55		 push	 ebp
  00001	8b ec		 mov	 ebp, esp

; 72   :     {

  00003	56		 push	 esi
  00004	8b f1		 mov	 esi, ecx
  00006	0f 57 c0	 xorps	 xmm0, xmm0

; 71   :         : _Data()

  00009	8d 46 04	 lea	 eax, DWORD PTR [esi+4]

; 73   :         __std_exception_copy(&_Other._Data, &_Data);

  0000c	50		 push	 eax
  0000d	c7 06 00 00 00
	00		 mov	 DWORD PTR [esi], OFFSET ??_7exception@std@@6B@
  00013	66 0f d6 00	 movq	 QWORD PTR [eax], xmm0
  00017	8b 45 08	 mov	 eax, DWORD PTR ___that$[ebp]
  0001a	83 c0 04	 add	 eax, 4
  0001d	50		 push	 eax
  0001e	e8 00 00 00 00	 call	 ___std_exception_copy
  00023	83 c4 08	 add	 esp, 8
  00026	c7 06 00 00 00
	00		 mov	 DWORD PTR [esi], OFFSET ??_7bad_alloc@std@@6B@
  0002c	8b c6		 mov	 eax, esi
  0002e	5e		 pop	 esi
  0002f	5d		 pop	 ebp
  00030	c2 04 00	 ret	 4
??0bad_alloc@std@@QAE@ABV01@@Z ENDP			; std::bad_alloc::bad_alloc
_TEXT	ENDS
; Function compile flags: /Ogtp
; File C:\Program Files (x86)\Microsoft Visual Studio\2019\Community\VC\Tools\MSVC\14.28.29333\include\vcruntime_exception.h
;	COMDAT ??_Gexception@std@@UAEPAXI@Z
_TEXT	SEGMENT
___flags$ = 8						; size = 4
??_Gexception@std@@UAEPAXI@Z PROC			; std::exception::`scalar deleting destructor', COMDAT
; _this$ = ecx
  00000	55		 push	 ebp
  00001	8b ec		 mov	 ebp, esp

; 89   :     {

  00003	56		 push	 esi
  00004	8b f1		 mov	 esi, ecx

; 90   :         __std_exception_destroy(&_Data);

  00006	8d 46 04	 lea	 eax, DWORD PTR [esi+4]
  00009	c7 06 00 00 00
	00		 mov	 DWORD PTR [esi], OFFSET ??_7exception@std@@6B@
  0000f	50		 push	 eax
  00010	e8 00 00 00 00	 call	 ___std_exception_destroy
  00015	83 c4 04	 add	 esp, 4
  00018	f6 45 08 01	 test	 BYTE PTR ___flags$[ebp], 1
  0001c	74 0b		 je	 SHORT $LN6@scalar
  0001e	6a 0c		 push	 12			; 0000000cH
  00020	56		 push	 esi
  00021	e8 00 00 00 00	 call	 ??3@YAXPAXI@Z		; operator delete
  00026	83 c4 08	 add	 esp, 8
$LN6@scalar:
  00029	8b c6		 mov	 eax, esi
  0002b	5e		 pop	 esi
  0002c	5d		 pop	 ebp
  0002d	c2 04 00	 ret	 4
??_Gexception@std@@UAEPAXI@Z ENDP			; std::exception::`scalar deleting destructor'
_TEXT	ENDS
; Function compile flags: /Ogtp
; File C:\Program Files (x86)\Microsoft Visual Studio\2019\Community\VC\Tools\MSVC\14.28.29333\include\vcruntime_exception.h
;	COMDAT ?what@exception@std@@UBEPBDXZ
_TEXT	SEGMENT
?what@exception@std@@UBEPBDXZ PROC			; std::exception::what, COMDAT
; _this$ = ecx

; 95   :         return _Data._What ? _Data._What : "Unknown exception";

  00000	8b 49 04	 mov	 ecx, DWORD PTR [ecx+4]
  00003	b8 00 00 00 00	 mov	 eax, OFFSET ??_C@_0BC@EOODALEL@Unknown?5exception@
  00008	85 c9		 test	 ecx, ecx
  0000a	0f 45 c1	 cmovne	 eax, ecx

; 96   :     }

  0000d	c3		 ret	 0
?what@exception@std@@UBEPBDXZ ENDP			; std::exception::what
_TEXT	ENDS
; Function compile flags: /Ogtp
; File C:\Program Files (x86)\Microsoft Visual Studio\2019\Community\VC\Tools\MSVC\14.28.29333\include\vcruntime_exception.h
;	COMDAT ??1exception@std@@UAE@XZ
_TEXT	SEGMENT
??1exception@std@@UAE@XZ PROC				; std::exception::~exception, COMDAT
; _this$ = ecx

; 90   :         __std_exception_destroy(&_Data);

  00000	8d 41 04	 lea	 eax, DWORD PTR [ecx+4]
  00003	c7 01 00 00 00
	00		 mov	 DWORD PTR [ecx], OFFSET ??_7exception@std@@6B@
  00009	50		 push	 eax
  0000a	e8 00 00 00 00	 call	 ___std_exception_destroy
  0000f	59		 pop	 ecx

; 91   :     }

  00010	c3		 ret	 0
??1exception@std@@UAE@XZ ENDP				; std::exception::~exception
_TEXT	ENDS
; Function compile flags: /Ogtp
; File C:\Program Files (x86)\Microsoft Visual Studio\2019\Community\VC\Tools\MSVC\14.28.29333\include\vcruntime_exception.h
;	COMDAT ??0exception@std@@QAE@ABV01@@Z
_TEXT	SEGMENT
__Other$ = 8						; size = 4
??0exception@std@@QAE@ABV01@@Z PROC			; std::exception::exception, COMDAT
; _this$ = ecx

; 72   :     {

  00000	55		 push	 ebp
  00001	8b ec		 mov	 ebp, esp
  00003	56		 push	 esi
  00004	8b f1		 mov	 esi, ecx
  00006	0f 57 c0	 xorps	 xmm0, xmm0
  00009	8d 46 04	 lea	 eax, DWORD PTR [esi+4]

; 73   :         __std_exception_copy(&_Other._Data, &_Data);

  0000c	50		 push	 eax
  0000d	c7 06 00 00 00
	00		 mov	 DWORD PTR [esi], OFFSET ??_7exception@std@@6B@
  00013	66 0f d6 00	 movq	 QWORD PTR [eax], xmm0
  00017	8b 45 08	 mov	 eax, DWORD PTR __Other$[ebp]
  0001a	83 c0 04	 add	 eax, 4
  0001d	50		 push	 eax
  0001e	e8 00 00 00 00	 call	 ___std_exception_copy
  00023	83 c4 08	 add	 esp, 8

; 74   :     }

  00026	8b c6		 mov	 eax, esi
  00028	5e		 pop	 esi
  00029	5d		 pop	 ebp
  0002a	c2 04 00	 ret	 4
??0exception@std@@QAE@ABV01@@Z ENDP			; std::exception::exception
_TEXT	ENDS
; Function compile flags: /Ogtp
; File C:\Program Files (x86)\Windows Kits\10\Include\10.0.18362.0\ucrt\stdio.h
;	COMDAT _sprintf
_TEXT	SEGMENT
__Buffer$ = 8						; size = 4
__Format$ = 12						; size = 4
_sprintf PROC						; COMDAT

; 1781 :     {

  00000	55		 push	 ebp
  00001	8b ec		 mov	 ebp, esp

; 1390 :         int const _Result = __stdio_common_vsprintf(

  00003	8d 45 10	 lea	 eax, DWORD PTR __Format$[ebp+4]
  00006	50		 push	 eax
  00007	6a 00		 push	 0
  00009	ff 75 0c	 push	 DWORD PTR __Format$[ebp]
  0000c	6a ff		 push	 -1
  0000e	ff 75 08	 push	 DWORD PTR __Buffer$[ebp]
  00011	e8 00 00 00 00	 call	 ___local_stdio_printf_options
  00016	8b 08		 mov	 ecx, DWORD PTR [eax]
  00018	ff 70 04	 push	 DWORD PTR [eax+4]
  0001b	83 c9 01	 or	 ecx, 1
  0001e	51		 push	 ecx
  0001f	e8 00 00 00 00	 call	 ___stdio_common_vsprintf

; 1391 :             _CRT_INTERNAL_LOCAL_PRINTF_OPTIONS | _CRT_INTERNAL_PRINTF_LEGACY_VSPRINTF_NULL_TERMINATION,
; 1392 :             _Buffer, _BufferCount, _Format, _Locale, _ArgList);
; 1393 : 
; 1394 :         return _Result < 0 ? -1 : _Result;

  00024	83 c9 ff	 or	 ecx, -1
  00027	83 c4 1c	 add	 esp, 28			; 0000001cH
  0002a	85 c0		 test	 eax, eax
  0002c	0f 48 c1	 cmovs	 eax, ecx

; 1782 :         int _Result;
; 1783 :         va_list _ArgList;
; 1784 :         __crt_va_start(_ArgList, _Format);
; 1785 : 
; 1786 :         #pragma warning(push)
; 1787 :         #pragma warning(disable: 4996) // Deprecation
; 1788 :         _Result = _vsprintf_l(_Buffer, _Format, NULL, _ArgList);
; 1789 :         #pragma warning(pop)
; 1790 : 
; 1791 :         __crt_va_end(_ArgList);
; 1792 :         return _Result;
; 1793 :     }

  0002f	5d		 pop	 ebp
  00030	c3		 ret	 0
_sprintf ENDP
_TEXT	ENDS
; Function compile flags: /Ogtp
; File C:\Program Files (x86)\Windows Kits\10\Include\10.0.18362.0\ucrt\corecrt_stdio_config.h
;	COMDAT ___local_stdio_printf_options
_TEXT	SEGMENT
___local_stdio_printf_options PROC			; COMDAT

; 87   :         static unsigned __int64 _OptionsStorage;
; 88   :         return &_OptionsStorage;

  00000	b8 00 00 00 00	 mov	 eax, OFFSET ?_OptionsStorage@?1??__local_stdio_printf_options@@9@4_KA ; `__local_stdio_printf_options'::`2'::_OptionsStorage

; 89   :     }

  00005	c3		 ret	 0
___local_stdio_printf_options ENDP
_TEXT	ENDS
; Function compile flags: /Ogtp
; File D:\Metin2 Server Files\mainline\SRC_2014\Metin2Client\UserInterface\InstanceBase.cpp
;	COMDAT ?__empty_global_delete@@YAXPAXI@Z
_TEXT	SEGMENT
___formal$ = 8						; size = 4
___formal$ = 12						; size = 4
?__empty_global_delete@@YAXPAXI@Z PROC			; __empty_global_delete, COMDAT

  00000	c2 00 00	 ret	 0
?__empty_global_delete@@YAXPAXI@Z ENDP			; __empty_global_delete
_TEXT	ENDS
; Function compile flags: /Ogtp
; File D:\Metin2 Server Files\mainline\SRC_2014\Metin2Client\UserInterface\InstanceBase.cpp
;	COMDAT ?__empty_global_delete@@YAXPAX@Z
_TEXT	SEGMENT
___formal$ = 8						; size = 4
?__empty_global_delete@@YAXPAX@Z PROC			; __empty_global_delete, COMDAT

  00000	c2 00 00	 ret	 0
?__empty_global_delete@@YAXPAX@Z ENDP			; __empty_global_delete
_TEXT	ENDS
; Function compile flags: /Ogtp
;	COMDAT ??_H@YGXPAXIIP6EPAX0@Z@Z
_TEXT	SEGMENT
___t$ = 8						; size = 4
___s$ = 12						; size = 4
___n$ = 16						; size = 4
___f$ = 20						; size = 4
??_H@YGXPAXIIP6EPAX0@Z@Z PROC				; `vector constructor iterator', COMDAT
  00000	55		 push	 ebp
  00001	8b ec		 mov	 ebp, esp
  00003	56		 push	 esi
  00004	8b 75 10	 mov	 esi, DWORD PTR ___n$[ebp]
  00007	85 f6		 test	 esi, esi
  00009	74 16		 je	 SHORT $LN6@vector
  0000b	53		 push	 ebx
  0000c	8b 5d 14	 mov	 ebx, DWORD PTR ___f$[ebp]
  0000f	57		 push	 edi
  00010	8b 7d 08	 mov	 edi, DWORD PTR ___t$[ebp]
$LL2@vector:
  00013	8b cf		 mov	 ecx, edi
  00015	ff d3		 call	 ebx
  00017	03 7d 0c	 add	 edi, DWORD PTR ___s$[ebp]
  0001a	83 ee 01	 sub	 esi, 1
  0001d	75 f4		 jne	 SHORT $LL2@vector
  0001f	5f		 pop	 edi
  00020	5b		 pop	 ebx
$LN6@vector:
  00021	5e		 pop	 esi
  00022	5d		 pop	 ebp
  00023	c2 10 00	 ret	 16			; 00000010H
??_H@YGXPAXIIP6EPAX0@Z@Z ENDP				; `vector constructor iterator'
_TEXT	ENDS
END
