; Listing generated by Microsoft (R) Optimizing Compiler Version 19.28.29335.0 

	TITLE	D:\Metin2 Server Files\mainline\SRC_2014\Metin2Client\UserInterface\MarkImage.cpp
	.686P
	.XMM
	include listing.inc
	.model	flat

INCLUDELIB LIBCMT
INCLUDELIB OLDNAMES

PUBLIC	___local_stdio_printf_options
PUBLIC	_printf
PUBLIC	??0exception@std@@QAE@ABV01@@Z			; std::exception::exception
PUBLIC	??1exception@std@@UAE@XZ			; std::exception::~exception
PUBLIC	?what@exception@std@@UBEPBDXZ			; std::exception::what
PUBLIC	??_Gexception@std@@UAEPAXI@Z			; std::exception::`scalar deleting destructor'
PUBLIC	??0bad_alloc@std@@QAE@ABV01@@Z			; std::bad_alloc::bad_alloc
PUBLIC	??_Gbad_alloc@std@@UAEPAXI@Z			; std::bad_alloc::`scalar deleting destructor'
PUBLIC	??0bad_array_new_length@std@@QAE@XZ		; std::bad_array_new_length::bad_array_new_length
PUBLIC	??1bad_array_new_length@std@@UAE@XZ		; std::bad_array_new_length::~bad_array_new_length
PUBLIC	??0bad_array_new_length@std@@QAE@ABV01@@Z	; std::bad_array_new_length::bad_array_new_length
PUBLIC	??_Gbad_array_new_length@std@@UAEPAXI@Z		; std::bad_array_new_length::`scalar deleting destructor'
PUBLIC	?_Throw_bad_array_new_length@std@@YAXXZ		; std::_Throw_bad_array_new_length
PUBLIC	?_Throw_tree_length_error@std@@YAXXZ		; std::_Throw_tree_length_error
PUBLIC	??$_Deallocate@$07$0A@@std@@YAXPAXI@Z		; std::_Deallocate<8,0>
PUBLIC	??$_Allocate@$07U_Default_allocate_traits@std@@$0A@@std@@YAPAXI@Z ; std::_Allocate<8,std::_Default_allocate_traits,0>
PUBLIC	??$_Allocate_manually_vector_aligned@U_Default_allocate_traits@std@@@std@@YAPAXI@Z ; std::_Allocate_manually_vector_aligned<std::_Default_allocate_traits>
PUBLIC	?Clear@SGuildMark@@QAEXXZ			; SGuildMark::Clear
PUBLIC	?IsEmpty@SGuildMark@@QAE_NXZ			; SGuildMark::IsEmpty
PUBLIC	?GetCRC@SGuildMarkBlock@@QBEKXZ			; SGuildMarkBlock::GetCRC
PUBLIC	?CopyFrom@SGuildMarkBlock@@QAEXPBEKK@Z		; SGuildMarkBlock::CopyFrom
PUBLIC	?Compress@SGuildMarkBlock@@QAEXPBK@Z		; SGuildMarkBlock::Compress
PUBLIC	??0CGuildMarkImage@@QAE@XZ			; CGuildMarkImage::CGuildMarkImage
PUBLIC	??1CGuildMarkImage@@UAE@XZ			; CGuildMarkImage::~CGuildMarkImage
PUBLIC	?Create@CGuildMarkImage@@QAEXXZ			; CGuildMarkImage::Create
PUBLIC	?Destroy@CGuildMarkImage@@QAEXXZ		; CGuildMarkImage::Destroy
PUBLIC	?Build@CGuildMarkImage@@QAE_NPBD@Z		; CGuildMarkImage::Build
PUBLIC	?Save@CGuildMarkImage@@QAE_NPBD@Z		; CGuildMarkImage::Save
PUBLIC	?Load@CGuildMarkImage@@QAE_NPBD@Z		; CGuildMarkImage::Load
PUBLIC	?PutData@CGuildMarkImage@@QAEXIIIIPAX@Z		; CGuildMarkImage::PutData
PUBLIC	?GetData@CGuildMarkImage@@QAEXIIIIPAX@Z		; CGuildMarkImage::GetData
PUBLIC	?SaveMark@CGuildMarkImage@@QAE_NKPAE@Z		; CGuildMarkImage::SaveMark
PUBLIC	?DeleteMark@CGuildMarkImage@@QAE_NK@Z		; CGuildMarkImage::DeleteMark
PUBLIC	?SaveBlockFromCompressedData@CGuildMarkImage@@QAE_NKPBEK@Z ; CGuildMarkImage::SaveBlockFromCompressedData
PUBLIC	?GetEmptyPosition@CGuildMarkImage@@QAEKXZ	; CGuildMarkImage::GetEmptyPosition
PUBLIC	?GetBlockCRCList@CGuildMarkImage@@QAEXPAK@Z	; CGuildMarkImage::GetBlockCRCList
PUBLIC	?GetDiffBlocks@CGuildMarkImage@@QAEXPBKAAV?$map@EPBUSGuildMarkBlock@@U?$less@E@std@@V?$allocator@U?$pair@$$CBEPBUSGuildMarkBlock@@@std@@@3@@std@@@Z ; CGuildMarkImage::GetDiffBlocks
PUBLIC	?BuildAllBlocks@CGuildMarkImage@@AAEXXZ		; CGuildMarkImage::BuildAllBlocks
PUBLIC	??_GCGuildMarkImage@@UAEPAXI@Z			; CGuildMarkImage::`scalar deleting destructor'
PUBLIC	?NewMarkImage@@YAPAVCGuildMarkImage@@XZ		; NewMarkImage
PUBLIC	?DeleteMarkImage@@YAXPAVCGuildMarkImage@@@Z	; DeleteMarkImage
PUBLIC	?_Insert_node@?$_Tree_val@U?$_Tree_simple_types@U?$pair@$$CBEPBUSGuildMarkBlock@@@std@@@std@@@std@@QAEPAU?$_Tree_node@U?$pair@$$CBEPBUSGuildMarkBlock@@@std@@PAX@2@U?$_Tree_id@PAU?$_Tree_node@U?$pair@$$CBEPBUSGuildMarkBlock@@@std@@PAX@std@@@2@QAU32@@Z ; std::_Tree_val<std::_Tree_simple_types<std::pair<unsigned char const ,SGuildMarkBlock const *> > >::_Insert_node
PUBLIC	??1?$_Alloc_construct_ptr@V?$allocator@U?$_Tree_node@U?$pair@$$CBEPBUSGuildMarkBlock@@@std@@PAX@std@@@std@@@std@@QAE@XZ ; std::_Alloc_construct_ptr<std::allocator<std::_Tree_node<std::pair<unsigned char const ,SGuildMarkBlock const *>,void *> > >::~_Alloc_construct_ptr<std::allocator<std::_Tree_node<std::pair<unsigned char const ,SGuildMarkBlock const *>,void *> > >
PUBLIC	??$_Destroy_in_place@PAU?$_Tree_node@U?$pair@$$CBEPBUSGuildMarkBlock@@@std@@PAX@std@@@std@@YAXAAPAU?$_Tree_node@U?$pair@$$CBEPBUSGuildMarkBlock@@@std@@PAX@0@@Z ; std::_Destroy_in_place<std::_Tree_node<std::pair<unsigned char const ,SGuildMarkBlock const *>,void *> *>
PUBLIC	??$_Construct_in_place@PAU?$_Tree_node@U?$pair@$$CBEPBUSGuildMarkBlock@@@std@@PAX@std@@AAPAU12@@std@@YAXAAPAU?$_Tree_node@U?$pair@$$CBEPBUSGuildMarkBlock@@@std@@PAX@0@0@Z ; std::_Construct_in_place<std::_Tree_node<std::pair<unsigned char const ,SGuildMarkBlock const *>,void *> *,std::_Tree_node<std::pair<unsigned char const ,SGuildMarkBlock const *>,void *> * &>
PUBLIC	?_OptionsStorage@?1??__local_stdio_printf_options@@9@4_KA ; `__local_stdio_printf_options'::`2'::_OptionsStorage
PUBLIC	??_7exception@std@@6B@				; std::exception::`vftable'
PUBLIC	??_C@_0BC@EOODALEL@Unknown?5exception@		; `string'
PUBLIC	??_7bad_alloc@std@@6B@				; std::bad_alloc::`vftable'
PUBLIC	??_7bad_array_new_length@std@@6B@		; std::bad_array_new_length::`vftable'
PUBLIC	??_C@_0BF@KINCDENJ@bad?5array?5new?5length@	; `string'
PUBLIC	__TI3?AVbad_array_new_length@std@@
PUBLIC	__CTA3?AVbad_array_new_length@std@@
PUBLIC	??_R0?AVbad_array_new_length@std@@@8		; std::bad_array_new_length `RTTI Type Descriptor'
PUBLIC	__CT??_R0?AVbad_array_new_length@std@@@8??0bad_array_new_length@std@@QAE@ABV01@@Z12
PUBLIC	??_R0?AVbad_alloc@std@@@8			; std::bad_alloc `RTTI Type Descriptor'
PUBLIC	__CT??_R0?AVbad_alloc@std@@@8??0bad_alloc@std@@QAE@ABV01@@Z12
PUBLIC	??_R0?AVexception@std@@@8			; std::exception `RTTI Type Descriptor'
PUBLIC	__CT??_R0?AVexception@std@@@8??0exception@std@@QAE@ABV01@@Z12
PUBLIC	??_C@_0BB@GCADKGJO@map?1set?5too?5long@		; `string'
PUBLIC	?ms_singleton@?$CSingleton@VCLZO@@@@0PAVCLZO@@A	; CSingleton<CLZO>::ms_singleton
PUBLIC	??_R4exception@std@@6B@				; std::exception::`RTTI Complete Object Locator'
PUBLIC	??_R3exception@std@@8				; std::exception::`RTTI Class Hierarchy Descriptor'
PUBLIC	??_R2exception@std@@8				; std::exception::`RTTI Base Class Array'
PUBLIC	??_R1A@?0A@EA@exception@std@@8			; std::exception::`RTTI Base Class Descriptor at (0,-1,0,64)'
PUBLIC	??_R4bad_alloc@std@@6B@				; std::bad_alloc::`RTTI Complete Object Locator'
PUBLIC	??_R3bad_alloc@std@@8				; std::bad_alloc::`RTTI Class Hierarchy Descriptor'
PUBLIC	??_R2bad_alloc@std@@8				; std::bad_alloc::`RTTI Base Class Array'
PUBLIC	??_R1A@?0A@EA@bad_alloc@std@@8			; std::bad_alloc::`RTTI Base Class Descriptor at (0,-1,0,64)'
PUBLIC	??_R4bad_array_new_length@std@@6B@		; std::bad_array_new_length::`RTTI Complete Object Locator'
PUBLIC	??_R3bad_array_new_length@std@@8		; std::bad_array_new_length::`RTTI Class Hierarchy Descriptor'
PUBLIC	??_R2bad_array_new_length@std@@8		; std::bad_array_new_length::`RTTI Base Class Array'
PUBLIC	??_R1A@?0A@EA@bad_array_new_length@std@@8	; std::bad_array_new_length::`RTTI Base Class Descriptor at (0,-1,0,64)'
PUBLIC	??_7CGuildMarkImage@@6B@			; CGuildMarkImage::`vftable'
PUBLIC	??_C@_0CJ@CFLIGMKO@CGuildMarkImage?3?5cannot?5initial@ ; `string'
PUBLIC	??_C@_0DB@LCKJIDBG@CGuildMarkImage?3?5cannot?5open?5fi@ ; `string'
PUBLIC	??_C@_0CF@POGBMAHP@CGuildMarkImage?3?5?$CFs?5width?5must?5@ ; `string'
PUBLIC	??_C@_0CG@ENKENEAG@CGuildMarkImage?3?5?$CFs?5height?5must@ ; `string'
PUBLIC	??_C@_0DM@NNKMJGHN@CGuildMarkImage?3?3CopyMarkFromDa@ ; `string'
PUBLIC	??_C@_0BG@PFKANOHB@PutMark?5pos?5?$CFu?5?$CFux?$CFu?6@ ; `string'
PUBLIC	??_C@_0FG@IJMAAEIA@CGuildMarkImage?3?3CopyBlockFromC@ ; `string'
PUBLIC	??_C@_0FG@JNKKBOCL@CGuildMarkImage?3?3CopyBlockFromC@ ; `string'
PUBLIC	??_C@_0CK@BGEKGKPD@SGuildMarkBlock?3?3Compress?3?5Erro@ ; `string'
PUBLIC	??_R4CGuildMarkImage@@6B@			; CGuildMarkImage::`RTTI Complete Object Locator'
PUBLIC	??_R0?AVCGuildMarkImage@@@8			; CGuildMarkImage `RTTI Type Descriptor'
PUBLIC	??_R3CGuildMarkImage@@8				; CGuildMarkImage::`RTTI Class Hierarchy Descriptor'
PUBLIC	??_R2CGuildMarkImage@@8				; CGuildMarkImage::`RTTI Base Class Array'
PUBLIC	??_R1A@?0A@EA@CGuildMarkImage@@8		; CGuildMarkImage::`RTTI Base Class Descriptor at (0,-1,0,64)'
EXTRN	??2@YAPAXI@Z:PROC				; operator new
EXTRN	??3@YAXPAXI@Z:PROC				; operator delete
EXTRN	__invalid_parameter_noinfo_noreturn:PROC
EXTRN	_free:PROC
EXTRN	_malloc:PROC
EXTRN	___acrt_iob_func:PROC
EXTRN	___stdio_common_vfprintf:PROC
EXTRN	___std_exception_copy:PROC
EXTRN	___std_exception_destroy:PROC
EXTRN	??_Eexception@std@@UAEPAXI@Z:PROC		; std::exception::`vector deleting destructor'
EXTRN	??_Ebad_alloc@std@@UAEPAXI@Z:PROC		; std::bad_alloc::`vector deleting destructor'
EXTRN	??_Ebad_array_new_length@std@@UAEPAXI@Z:PROC	; std::bad_array_new_length::`vector deleting destructor'
EXTRN	?_Xlength_error@std@@YAXPBD@Z:PROC		; std::_Xlength_error
EXTRN	?TraceError@@YAXPBDZZ:PROC			; TraceError
EXTRN	?GetCRC32@@YAKPBDI@Z:PROC			; GetCRC32
EXTRN	_lzo1x_decompress_safe:PROC
EXTRN	_lzo1x_999_compress:PROC
EXTRN	?GetWorkMemory@CLZO@@QAEPAEXZ:PROC		; CLZO::GetWorkMemory
EXTRN	__imp__ilBindImage@4:PROC
EXTRN	__imp__ilConvertImage@8:PROC
EXTRN	__imp__ilCopyPixels@36:PROC
EXTRN	__imp__ilDeleteImages@8:PROC
EXTRN	__imp__ilEnable@4:PROC
EXTRN	__imp__ilGenImages@8:PROC
EXTRN	__imp__ilGetInteger@4:PROC
EXTRN	__imp__ilLoad@8:PROC
EXTRN	__imp__ilOriginFunc@4:PROC
EXTRN	__imp__ilSave@8:PROC
EXTRN	__imp__ilSetPixels@36:PROC
EXTRN	__imp__ilTexImage@28:PROC
EXTRN	??_ECGuildMarkImage@@UAEPAXI@Z:PROC		; CGuildMarkImage::`vector deleting destructor'
EXTRN	@__security_check_cookie@4:PROC
EXTRN	__CxxThrowException@8:PROC
EXTRN	___CxxFrameHandler3:PROC
EXTRN	__chkstk:PROC
EXTRN	_memcpy:PROC
EXTRN	_memset:PROC
EXTRN	??_7type_info@@6B@:QWORD			; type_info::`vftable'
EXTRN	___security_cookie:DWORD
;	COMDAT ?_OptionsStorage@?1??__local_stdio_printf_options@@9@4_KA
_BSS	SEGMENT
?_OptionsStorage@?1??__local_stdio_printf_options@@9@4_KA DQ 01H DUP (?) ; `__local_stdio_printf_options'::`2'::_OptionsStorage
_BSS	ENDS
;	COMDAT ?ms_singleton@?$CSingleton@VCLZO@@@@0PAVCLZO@@A
_BSS	SEGMENT
?ms_singleton@?$CSingleton@VCLZO@@@@0PAVCLZO@@A DD 01H DUP (?) ; CSingleton<CLZO>::ms_singleton
_BSS	ENDS
;	COMDAT ??_R1A@?0A@EA@CGuildMarkImage@@8
rdata$r	SEGMENT
??_R1A@?0A@EA@CGuildMarkImage@@8 DD FLAT:??_R0?AVCGuildMarkImage@@@8 ; CGuildMarkImage::`RTTI Base Class Descriptor at (0,-1,0,64)'
	DD	00H
	DD	00H
	DD	0ffffffffH
	DD	00H
	DD	040H
	DD	FLAT:??_R3CGuildMarkImage@@8
rdata$r	ENDS
;	COMDAT ??_R2CGuildMarkImage@@8
rdata$r	SEGMENT
??_R2CGuildMarkImage@@8 DD FLAT:??_R1A@?0A@EA@CGuildMarkImage@@8 ; CGuildMarkImage::`RTTI Base Class Array'
rdata$r	ENDS
;	COMDAT ??_R3CGuildMarkImage@@8
rdata$r	SEGMENT
??_R3CGuildMarkImage@@8 DD 00H				; CGuildMarkImage::`RTTI Class Hierarchy Descriptor'
	DD	00H
	DD	01H
	DD	FLAT:??_R2CGuildMarkImage@@8
rdata$r	ENDS
;	COMDAT ??_R0?AVCGuildMarkImage@@@8
data$rs	SEGMENT
??_R0?AVCGuildMarkImage@@@8 DD FLAT:??_7type_info@@6B@	; CGuildMarkImage `RTTI Type Descriptor'
	DD	00H
	DB	'.?AVCGuildMarkImage@@', 00H
data$rs	ENDS
;	COMDAT ??_R4CGuildMarkImage@@6B@
rdata$r	SEGMENT
??_R4CGuildMarkImage@@6B@ DD 00H			; CGuildMarkImage::`RTTI Complete Object Locator'
	DD	00H
	DD	00H
	DD	FLAT:??_R0?AVCGuildMarkImage@@@8
	DD	FLAT:??_R3CGuildMarkImage@@8
rdata$r	ENDS
;	COMDAT ??_C@_0CK@BGEKGKPD@SGuildMarkBlock?3?3Compress?3?5Erro@
CONST	SEGMENT
??_C@_0CK@BGEKGKPD@SGuildMarkBlock?3?3Compress?3?5Erro@ DB 'SGuildMarkBlo'
	DB	'ck::Compress: Error! %u > %u', 00H		; `string'
CONST	ENDS
;	COMDAT ??_C@_0FG@JNKKBOCL@CGuildMarkImage?3?3CopyBlockFromC@
CONST	SEGMENT
??_C@_0FG@JNKKBOCL@CGuildMarkImage?3?3CopyBlockFromC@ DB 'CGuildMarkImage'
	DB	'::CopyBlockFromCompressedData: image corrupted, decompressed '
	DB	'size = %u', 00H				; `string'
CONST	ENDS
;	COMDAT ??_C@_0FG@IJMAAEIA@CGuildMarkImage?3?3CopyBlockFromC@
CONST	SEGMENT
??_C@_0FG@IJMAAEIA@CGuildMarkImage?3?3CopyBlockFromC@ DB 'CGuildMarkImage'
	DB	'::CopyBlockFromCompressedData: cannot decompress, compressed '
	DB	'size = %u', 00H				; `string'
CONST	ENDS
;	COMDAT ??_C@_0BG@PFKANOHB@PutMark?5pos?5?$CFu?5?$CFux?$CFu?6@
CONST	SEGMENT
??_C@_0BG@PFKANOHB@PutMark?5pos?5?$CFu?5?$CFux?$CFu?6@ DB 'PutMark pos %u'
	DB	' %ux%u', 0aH, 00H				; `string'
CONST	ENDS
;	COMDAT ??_C@_0DM@NNKMJGHN@CGuildMarkImage?3?3CopyMarkFromDa@
CONST	SEGMENT
??_C@_0DM@NNKMJGHN@CGuildMarkImage?3?3CopyMarkFromDa@ DB 'CGuildMarkImage'
	DB	'::CopyMarkFromData: Invalid mark position %u', 00H ; `string'
CONST	ENDS
;	COMDAT ??_C@_0CG@ENKENEAG@CGuildMarkImage?3?5?$CFs?5height?5must@
CONST	SEGMENT
??_C@_0CG@ENKENEAG@CGuildMarkImage?3?5?$CFs?5height?5must@ DB 'CGuildMark'
	DB	'Image: %s height must be %u', 00H		; `string'
CONST	ENDS
;	COMDAT ??_C@_0CF@POGBMAHP@CGuildMarkImage?3?5?$CFs?5width?5must?5@
CONST	SEGMENT
??_C@_0CF@POGBMAHP@CGuildMarkImage?3?5?$CFs?5width?5must?5@ DB 'CGuildMar'
	DB	'kImage: %s width must be %u', 00H		; `string'
CONST	ENDS
;	COMDAT ??_C@_0DB@LCKJIDBG@CGuildMarkImage?3?5cannot?5open?5fi@
CONST	SEGMENT
??_C@_0DB@LCKJIDBG@CGuildMarkImage?3?5cannot?5open?5fi@ DB 'CGuildMarkIma'
	DB	'ge: cannot open file for writing %s', 00H	; `string'
CONST	ENDS
;	COMDAT ??_C@_0CJ@CFLIGMKO@CGuildMarkImage?3?5cannot?5initial@
CONST	SEGMENT
??_C@_0CJ@CFLIGMKO@CGuildMarkImage?3?5cannot?5initial@ DB 'CGuildMarkImag'
	DB	'e: cannot initialize image', 00H		; `string'
CONST	ENDS
;	COMDAT ??_7CGuildMarkImage@@6B@
CONST	SEGMENT
??_7CGuildMarkImage@@6B@ DD FLAT:??_R4CGuildMarkImage@@6B@ ; CGuildMarkImage::`vftable'
	DD	FLAT:??_ECGuildMarkImage@@UAEPAXI@Z
CONST	ENDS
;	COMDAT ??_R1A@?0A@EA@bad_array_new_length@std@@8
rdata$r	SEGMENT
??_R1A@?0A@EA@bad_array_new_length@std@@8 DD FLAT:??_R0?AVbad_array_new_length@std@@@8 ; std::bad_array_new_length::`RTTI Base Class Descriptor at (0,-1,0,64)'
	DD	02H
	DD	00H
	DD	0ffffffffH
	DD	00H
	DD	040H
	DD	FLAT:??_R3bad_array_new_length@std@@8
rdata$r	ENDS
;	COMDAT ??_R2bad_array_new_length@std@@8
rdata$r	SEGMENT
??_R2bad_array_new_length@std@@8 DD FLAT:??_R1A@?0A@EA@bad_array_new_length@std@@8 ; std::bad_array_new_length::`RTTI Base Class Array'
	DD	FLAT:??_R1A@?0A@EA@bad_alloc@std@@8
	DD	FLAT:??_R1A@?0A@EA@exception@std@@8
rdata$r	ENDS
;	COMDAT ??_R3bad_array_new_length@std@@8
rdata$r	SEGMENT
??_R3bad_array_new_length@std@@8 DD 00H			; std::bad_array_new_length::`RTTI Class Hierarchy Descriptor'
	DD	00H
	DD	03H
	DD	FLAT:??_R2bad_array_new_length@std@@8
rdata$r	ENDS
;	COMDAT ??_R4bad_array_new_length@std@@6B@
rdata$r	SEGMENT
??_R4bad_array_new_length@std@@6B@ DD 00H		; std::bad_array_new_length::`RTTI Complete Object Locator'
	DD	00H
	DD	00H
	DD	FLAT:??_R0?AVbad_array_new_length@std@@@8
	DD	FLAT:??_R3bad_array_new_length@std@@8
rdata$r	ENDS
;	COMDAT ??_R1A@?0A@EA@bad_alloc@std@@8
rdata$r	SEGMENT
??_R1A@?0A@EA@bad_alloc@std@@8 DD FLAT:??_R0?AVbad_alloc@std@@@8 ; std::bad_alloc::`RTTI Base Class Descriptor at (0,-1,0,64)'
	DD	01H
	DD	00H
	DD	0ffffffffH
	DD	00H
	DD	040H
	DD	FLAT:??_R3bad_alloc@std@@8
rdata$r	ENDS
;	COMDAT ??_R2bad_alloc@std@@8
rdata$r	SEGMENT
??_R2bad_alloc@std@@8 DD FLAT:??_R1A@?0A@EA@bad_alloc@std@@8 ; std::bad_alloc::`RTTI Base Class Array'
	DD	FLAT:??_R1A@?0A@EA@exception@std@@8
rdata$r	ENDS
;	COMDAT ??_R3bad_alloc@std@@8
rdata$r	SEGMENT
??_R3bad_alloc@std@@8 DD 00H				; std::bad_alloc::`RTTI Class Hierarchy Descriptor'
	DD	00H
	DD	02H
	DD	FLAT:??_R2bad_alloc@std@@8
rdata$r	ENDS
;	COMDAT ??_R4bad_alloc@std@@6B@
rdata$r	SEGMENT
??_R4bad_alloc@std@@6B@ DD 00H				; std::bad_alloc::`RTTI Complete Object Locator'
	DD	00H
	DD	00H
	DD	FLAT:??_R0?AVbad_alloc@std@@@8
	DD	FLAT:??_R3bad_alloc@std@@8
rdata$r	ENDS
;	COMDAT ??_R1A@?0A@EA@exception@std@@8
rdata$r	SEGMENT
??_R1A@?0A@EA@exception@std@@8 DD FLAT:??_R0?AVexception@std@@@8 ; std::exception::`RTTI Base Class Descriptor at (0,-1,0,64)'
	DD	00H
	DD	00H
	DD	0ffffffffH
	DD	00H
	DD	040H
	DD	FLAT:??_R3exception@std@@8
rdata$r	ENDS
;	COMDAT ??_R2exception@std@@8
rdata$r	SEGMENT
??_R2exception@std@@8 DD FLAT:??_R1A@?0A@EA@exception@std@@8 ; std::exception::`RTTI Base Class Array'
rdata$r	ENDS
;	COMDAT ??_R3exception@std@@8
rdata$r	SEGMENT
??_R3exception@std@@8 DD 00H				; std::exception::`RTTI Class Hierarchy Descriptor'
	DD	00H
	DD	01H
	DD	FLAT:??_R2exception@std@@8
rdata$r	ENDS
;	COMDAT ??_R4exception@std@@6B@
rdata$r	SEGMENT
??_R4exception@std@@6B@ DD 00H				; std::exception::`RTTI Complete Object Locator'
	DD	00H
	DD	00H
	DD	FLAT:??_R0?AVexception@std@@@8
	DD	FLAT:??_R3exception@std@@8
rdata$r	ENDS
;	COMDAT ??_C@_0BB@GCADKGJO@map?1set?5too?5long@
CONST	SEGMENT
??_C@_0BB@GCADKGJO@map?1set?5too?5long@ DB 'map/set too long', 00H ; `string'
CONST	ENDS
;	COMDAT __CT??_R0?AVexception@std@@@8??0exception@std@@QAE@ABV01@@Z12
xdata$x	SEGMENT
__CT??_R0?AVexception@std@@@8??0exception@std@@QAE@ABV01@@Z12 DD 00H
	DD	FLAT:??_R0?AVexception@std@@@8
	DD	00H
	DD	0ffffffffH
	ORG $+4
	DD	0cH
	DD	FLAT:??0exception@std@@QAE@ABV01@@Z
xdata$x	ENDS
;	COMDAT ??_R0?AVexception@std@@@8
data$r	SEGMENT
??_R0?AVexception@std@@@8 DD FLAT:??_7type_info@@6B@	; std::exception `RTTI Type Descriptor'
	DD	00H
	DB	'.?AVexception@std@@', 00H
data$r	ENDS
;	COMDAT __CT??_R0?AVbad_alloc@std@@@8??0bad_alloc@std@@QAE@ABV01@@Z12
xdata$x	SEGMENT
__CT??_R0?AVbad_alloc@std@@@8??0bad_alloc@std@@QAE@ABV01@@Z12 DD 010H
	DD	FLAT:??_R0?AVbad_alloc@std@@@8
	DD	00H
	DD	0ffffffffH
	ORG $+4
	DD	0cH
	DD	FLAT:??0bad_alloc@std@@QAE@ABV01@@Z
xdata$x	ENDS
;	COMDAT ??_R0?AVbad_alloc@std@@@8
data$r	SEGMENT
??_R0?AVbad_alloc@std@@@8 DD FLAT:??_7type_info@@6B@	; std::bad_alloc `RTTI Type Descriptor'
	DD	00H
	DB	'.?AVbad_alloc@std@@', 00H
data$r	ENDS
;	COMDAT __CT??_R0?AVbad_array_new_length@std@@@8??0bad_array_new_length@std@@QAE@ABV01@@Z12
xdata$x	SEGMENT
__CT??_R0?AVbad_array_new_length@std@@@8??0bad_array_new_length@std@@QAE@ABV01@@Z12 DD 00H
	DD	FLAT:??_R0?AVbad_array_new_length@std@@@8
	DD	00H
	DD	0ffffffffH
	ORG $+4
	DD	0cH
	DD	FLAT:??0bad_array_new_length@std@@QAE@ABV01@@Z
xdata$x	ENDS
;	COMDAT ??_R0?AVbad_array_new_length@std@@@8
data$r	SEGMENT
??_R0?AVbad_array_new_length@std@@@8 DD FLAT:??_7type_info@@6B@ ; std::bad_array_new_length `RTTI Type Descriptor'
	DD	00H
	DB	'.?AVbad_array_new_length@std@@', 00H
data$r	ENDS
;	COMDAT __CTA3?AVbad_array_new_length@std@@
xdata$x	SEGMENT
__CTA3?AVbad_array_new_length@std@@ DD 03H
	DD	FLAT:__CT??_R0?AVbad_array_new_length@std@@@8??0bad_array_new_length@std@@QAE@ABV01@@Z12
	DD	FLAT:__CT??_R0?AVbad_alloc@std@@@8??0bad_alloc@std@@QAE@ABV01@@Z12
	DD	FLAT:__CT??_R0?AVexception@std@@@8??0exception@std@@QAE@ABV01@@Z12
xdata$x	ENDS
;	COMDAT __TI3?AVbad_array_new_length@std@@
xdata$x	SEGMENT
__TI3?AVbad_array_new_length@std@@ DD 00H
	DD	FLAT:??1bad_array_new_length@std@@UAE@XZ
	DD	00H
	DD	FLAT:__CTA3?AVbad_array_new_length@std@@
xdata$x	ENDS
;	COMDAT ??_C@_0BF@KINCDENJ@bad?5array?5new?5length@
CONST	SEGMENT
??_C@_0BF@KINCDENJ@bad?5array?5new?5length@ DB 'bad array new length', 00H ; `string'
CONST	ENDS
;	COMDAT ??_7bad_array_new_length@std@@6B@
CONST	SEGMENT
??_7bad_array_new_length@std@@6B@ DD FLAT:??_R4bad_array_new_length@std@@6B@ ; std::bad_array_new_length::`vftable'
	DD	FLAT:??_Ebad_array_new_length@std@@UAEPAXI@Z
	DD	FLAT:?what@exception@std@@UBEPBDXZ
CONST	ENDS
;	COMDAT ??_7bad_alloc@std@@6B@
CONST	SEGMENT
??_7bad_alloc@std@@6B@ DD FLAT:??_R4bad_alloc@std@@6B@	; std::bad_alloc::`vftable'
	DD	FLAT:??_Ebad_alloc@std@@UAEPAXI@Z
	DD	FLAT:?what@exception@std@@UBEPBDXZ
CONST	ENDS
;	COMDAT ??_C@_0BC@EOODALEL@Unknown?5exception@
CONST	SEGMENT
??_C@_0BC@EOODALEL@Unknown?5exception@ DB 'Unknown exception', 00H ; `string'
CONST	ENDS
;	COMDAT ??_7exception@std@@6B@
CONST	SEGMENT
??_7exception@std@@6B@ DD FLAT:??_R4exception@std@@6B@	; std::exception::`vftable'
	DD	FLAT:??_Eexception@std@@UAEPAXI@Z
	DD	FLAT:?what@exception@std@@UBEPBDXZ
CONST	ENDS
;	COMDAT xdata$x
xdata$x	SEGMENT
__unwindtable$??$?0U?$pair@$$CBEPBUSGuildMarkBlock@@@std@@@?$_Tree_temp_node@V?$allocator@U?$_Tree_node@U?$pair@$$CBEPBUSGuildMarkBlock@@@std@@PAX@std@@@std@@@std@@QAE@AAV?$allocator@U?$_Tree_node@U?$pair@$$CBEPBUSGuildMarkBlock@@@std@@PAX@std@@@1@PAU?$_Tree_node@U?$pair@$$CBEPBUSGuildMarkBlock@@@std@@PAX@1@$$QAU?$pair@$$CBEPBUSGuildMarkBlock@@@1@@Z DD 0ffffffffH
	DD	FLAT:__unwindfunclet$??$?0U?$pair@$$CBEPBUSGuildMarkBlock@@@std@@@?$_Tree_temp_node@V?$allocator@U?$_Tree_node@U?$pair@$$CBEPBUSGuildMarkBlock@@@std@@PAX@std@@@std@@@std@@QAE@AAV?$allocator@U?$_Tree_node@U?$pair@$$CBEPBUSGuildMarkBlock@@@std@@PAX@std@@@1@PAU?$_Tree_node@U?$pair@$$CBEPBUSGuildMarkBlock@@@std@@PAX@1@$$QAU?$pair@$$CBEPBUSGuildMarkBlock@@@1@@Z$1
__ehfuncinfo$??$?0U?$pair@$$CBEPBUSGuildMarkBlock@@@std@@@?$_Tree_temp_node@V?$allocator@U?$_Tree_node@U?$pair@$$CBEPBUSGuildMarkBlock@@@std@@PAX@std@@@std@@@std@@QAE@AAV?$allocator@U?$_Tree_node@U?$pair@$$CBEPBUSGuildMarkBlock@@@std@@PAX@std@@@1@PAU?$_Tree_node@U?$pair@$$CBEPBUSGuildMarkBlock@@@std@@PAX@1@$$QAU?$pair@$$CBEPBUSGuildMarkBlock@@@1@@Z DD 019930522H
	DD	01H
	DD	FLAT:__unwindtable$??$?0U?$pair@$$CBEPBUSGuildMarkBlock@@@std@@@?$_Tree_temp_node@V?$allocator@U?$_Tree_node@U?$pair@$$CBEPBUSGuildMarkBlock@@@std@@PAX@std@@@std@@@std@@QAE@AAV?$allocator@U?$_Tree_node@U?$pair@$$CBEPBUSGuildMarkBlock@@@std@@PAX@std@@@1@PAU?$_Tree_node@U?$pair@$$CBEPBUSGuildMarkBlock@@@std@@PAX@1@$$QAU?$pair@$$CBEPBUSGuildMarkBlock@@@1@@Z
	DD	2 DUP(00H)
	DD	2 DUP(00H)
	DD	00H
	DD	01H
xdata$x	ENDS
;	COMDAT xdata$x
xdata$x	SEGMENT
__unwindtable$??0?$_Tree_temp_node_alloc@V?$allocator@U?$_Tree_node@U?$pair@$$CBEPBUSGuildMarkBlock@@@std@@PAX@std@@@std@@@std@@QAE@AAV?$allocator@U?$_Tree_node@U?$pair@$$CBEPBUSGuildMarkBlock@@@std@@PAX@std@@@1@@Z DD 0ffffffffH
	DD	FLAT:__unwindfunclet$??0?$_Tree_temp_node_alloc@V?$allocator@U?$_Tree_node@U?$pair@$$CBEPBUSGuildMarkBlock@@@std@@PAX@std@@@std@@@std@@QAE@AAV?$allocator@U?$_Tree_node@U?$pair@$$CBEPBUSGuildMarkBlock@@@std@@PAX@std@@@1@@Z$0
__ehfuncinfo$??0?$_Tree_temp_node_alloc@V?$allocator@U?$_Tree_node@U?$pair@$$CBEPBUSGuildMarkBlock@@@std@@PAX@std@@@std@@@std@@QAE@AAV?$allocator@U?$_Tree_node@U?$pair@$$CBEPBUSGuildMarkBlock@@@std@@PAX@std@@@1@@Z DD 019930522H
	DD	01H
	DD	FLAT:__unwindtable$??0?$_Tree_temp_node_alloc@V?$allocator@U?$_Tree_node@U?$pair@$$CBEPBUSGuildMarkBlock@@@std@@PAX@std@@@std@@@std@@QAE@AAV?$allocator@U?$_Tree_node@U?$pair@$$CBEPBUSGuildMarkBlock@@@std@@PAX@std@@@1@@Z
	DD	2 DUP(00H)
	DD	2 DUP(00H)
	DD	00H
	DD	01H
xdata$x	ENDS
;	COMDAT xdata$x
xdata$x	SEGMENT
__unwindtable$??$_Emplace@U?$pair@$$CBEPBUSGuildMarkBlock@@@std@@@?$_Tree@V?$_Tmap_traits@EPBUSGuildMarkBlock@@U?$less@E@std@@V?$allocator@U?$pair@$$CBEPBUSGuildMarkBlock@@@std@@@3@$0A@@std@@@std@@IAE?AU?$pair@PAU?$_Tree_node@U?$pair@$$CBEPBUSGuildMarkBlock@@@std@@PAX@std@@_N@1@$$QAU?$pair@$$CBEPBUSGuildMarkBlock@@@1@@Z DD 0ffffffffH
	DD	FLAT:__unwindfunclet$??$_Emplace@U?$pair@$$CBEPBUSGuildMarkBlock@@@std@@@?$_Tree@V?$_Tmap_traits@EPBUSGuildMarkBlock@@U?$less@E@std@@V?$allocator@U?$pair@$$CBEPBUSGuildMarkBlock@@@std@@@3@$0A@@std@@@std@@IAE?AU?$pair@PAU?$_Tree_node@U?$pair@$$CBEPBUSGuildMarkBlock@@@std@@PAX@std@@_N@1@$$QAU?$pair@$$CBEPBUSGuildMarkBlock@@@1@@Z$2
__ehfuncinfo$??$_Emplace@U?$pair@$$CBEPBUSGuildMarkBlock@@@std@@@?$_Tree@V?$_Tmap_traits@EPBUSGuildMarkBlock@@U?$less@E@std@@V?$allocator@U?$pair@$$CBEPBUSGuildMarkBlock@@@std@@@3@$0A@@std@@@std@@IAE?AU?$pair@PAU?$_Tree_node@U?$pair@$$CBEPBUSGuildMarkBlock@@@std@@PAX@std@@_N@1@$$QAU?$pair@$$CBEPBUSGuildMarkBlock@@@1@@Z DD 019930522H
	DD	01H
	DD	FLAT:__unwindtable$??$_Emplace@U?$pair@$$CBEPBUSGuildMarkBlock@@@std@@@?$_Tree@V?$_Tmap_traits@EPBUSGuildMarkBlock@@U?$less@E@std@@V?$allocator@U?$pair@$$CBEPBUSGuildMarkBlock@@@std@@@3@$0A@@std@@@std@@IAE?AU?$pair@PAU?$_Tree_node@U?$pair@$$CBEPBUSGuildMarkBlock@@@std@@PAX@std@@_N@1@$$QAU?$pair@$$CBEPBUSGuildMarkBlock@@@1@@Z
	DD	2 DUP(00H)
	DD	2 DUP(00H)
	DD	00H
	DD	01H
xdata$x	ENDS
;	COMDAT xdata$x
xdata$x	SEGMENT
__unwindtable$??$insert@$0A@$0A@@?$_Tree@V?$_Tmap_traits@EPBUSGuildMarkBlock@@U?$less@E@std@@V?$allocator@U?$pair@$$CBEPBUSGuildMarkBlock@@@std@@@3@$0A@@std@@@std@@QAE?AU?$pair@V?$_Tree_iterator@V?$_Tree_val@U?$_Tree_simple_types@U?$pair@$$CBEPBUSGuildMarkBlock@@@std@@@std@@@std@@@std@@_N@1@$$QAU?$pair@$$CBEPBUSGuildMarkBlock@@@1@@Z DD 0ffffffffH
	DD	FLAT:__unwindfunclet$??$insert@$0A@$0A@@?$_Tree@V?$_Tmap_traits@EPBUSGuildMarkBlock@@U?$less@E@std@@V?$allocator@U?$pair@$$CBEPBUSGuildMarkBlock@@@std@@@3@$0A@@std@@@std@@QAE?AU?$pair@V?$_Tree_iterator@V?$_Tree_val@U?$_Tree_simple_types@U?$pair@$$CBEPBUSGuildMarkBlock@@@std@@@std@@@std@@@std@@_N@1@$$QAU?$pair@$$CBEPBUSGuildMarkBlock@@@1@@Z$2
__ehfuncinfo$??$insert@$0A@$0A@@?$_Tree@V?$_Tmap_traits@EPBUSGuildMarkBlock@@U?$less@E@std@@V?$allocator@U?$pair@$$CBEPBUSGuildMarkBlock@@@std@@@3@$0A@@std@@@std@@QAE?AU?$pair@V?$_Tree_iterator@V?$_Tree_val@U?$_Tree_simple_types@U?$pair@$$CBEPBUSGuildMarkBlock@@@std@@@std@@@std@@@std@@_N@1@$$QAU?$pair@$$CBEPBUSGuildMarkBlock@@@1@@Z DD 019930522H
	DD	01H
	DD	FLAT:__unwindtable$??$insert@$0A@$0A@@?$_Tree@V?$_Tmap_traits@EPBUSGuildMarkBlock@@U?$less@E@std@@V?$allocator@U?$pair@$$CBEPBUSGuildMarkBlock@@@std@@@3@$0A@@std@@@std@@QAE?AU?$pair@V?$_Tree_iterator@V?$_Tree_val@U?$_Tree_simple_types@U?$pair@$$CBEPBUSGuildMarkBlock@@@std@@@std@@@std@@@std@@_N@1@$$QAU?$pair@$$CBEPBUSGuildMarkBlock@@@1@@Z
	DD	2 DUP(00H)
	DD	2 DUP(00H)
	DD	00H
	DD	01H
xdata$x	ENDS
;	COMDAT xdata$x
xdata$x	SEGMENT
__unwindtable$?GetDiffBlocks@CGuildMarkImage@@QAEXPBKAAV?$map@EPBUSGuildMarkBlock@@U?$less@E@std@@V?$allocator@U?$pair@$$CBEPBUSGuildMarkBlock@@@std@@@3@@std@@@Z DD 0ffffffffH
	DD	FLAT:__unwindfunclet$?GetDiffBlocks@CGuildMarkImage@@QAEXPBKAAV?$map@EPBUSGuildMarkBlock@@U?$less@E@std@@V?$allocator@U?$pair@$$CBEPBUSGuildMarkBlock@@@std@@@3@@std@@@Z$2
__ehfuncinfo$?GetDiffBlocks@CGuildMarkImage@@QAEXPBKAAV?$map@EPBUSGuildMarkBlock@@U?$less@E@std@@V?$allocator@U?$pair@$$CBEPBUSGuildMarkBlock@@@std@@@3@@std@@@Z DD 019930522H
	DD	01H
	DD	FLAT:__unwindtable$?GetDiffBlocks@CGuildMarkImage@@QAEXPBKAAV?$map@EPBUSGuildMarkBlock@@U?$less@E@std@@V?$allocator@U?$pair@$$CBEPBUSGuildMarkBlock@@@std@@@3@@std@@@Z
	DD	2 DUP(00H)
	DD	2 DUP(00H)
	DD	00H
	DD	01H
xdata$x	ENDS
; Function compile flags: /Ogtp
; File C:\Program Files (x86)\Microsoft Visual Studio\2019\Community\VC\Tools\MSVC\14.28.29333\include\xmemory
;	COMDAT ??$_Construct_in_place@PAU?$_Tree_node@U?$pair@$$CBEPBUSGuildMarkBlock@@@std@@PAX@std@@AAPAU12@@std@@YAXAAPAU?$_Tree_node@U?$pair@$$CBEPBUSGuildMarkBlock@@@std@@PAX@0@0@Z
_TEXT	SEGMENT
__Obj$ = 8						; size = 4
_<_Args_0>$ = 12					; size = 4
??$_Construct_in_place@PAU?$_Tree_node@U?$pair@$$CBEPBUSGuildMarkBlock@@@std@@PAX@std@@AAPAU12@@std@@YAXAAPAU?$_Tree_node@U?$pair@$$CBEPBUSGuildMarkBlock@@@std@@PAX@0@0@Z PROC ; std::_Construct_in_place<std::_Tree_node<std::pair<unsigned char const ,SGuildMarkBlock const *>,void *> *,std::_Tree_node<std::pair<unsigned char const ,SGuildMarkBlock const *>,void *> * &>, COMDAT

; 228  : void _Construct_in_place(_Ty& _Obj, _Types&&... _Args) noexcept(is_nothrow_constructible_v<_Ty, _Types...>) {

  00000	55		 push	 ebp
  00001	8b ec		 mov	 ebp, esp

; 229  :     ::new (const_cast<void*>(static_cast<const volatile void*>(_STD addressof(_Obj))))

  00003	8b 45 0c	 mov	 eax, DWORD PTR _<_Args_0>$[ebp]
  00006	8b 08		 mov	 ecx, DWORD PTR [eax]
  00008	8b 45 08	 mov	 eax, DWORD PTR __Obj$[ebp]
  0000b	89 08		 mov	 DWORD PTR [eax], ecx

; 230  :         _Ty(_STD forward<_Types>(_Args)...);
; 231  : }

  0000d	5d		 pop	 ebp
  0000e	c3		 ret	 0
??$_Construct_in_place@PAU?$_Tree_node@U?$pair@$$CBEPBUSGuildMarkBlock@@@std@@PAX@std@@AAPAU12@@std@@YAXAAPAU?$_Tree_node@U?$pair@$$CBEPBUSGuildMarkBlock@@@std@@PAX@0@0@Z ENDP ; std::_Construct_in_place<std::_Tree_node<std::pair<unsigned char const ,SGuildMarkBlock const *>,void *> *,std::_Tree_node<std::pair<unsigned char const ,SGuildMarkBlock const *>,void *> * &>
_TEXT	ENDS
; Function compile flags: /Ogtp
; File C:\Program Files (x86)\Microsoft Visual Studio\2019\Community\VC\Tools\MSVC\14.28.29333\include\xmemory
;	COMDAT ??$_Destroy_in_place@PAU?$_Tree_node@U?$pair@$$CBEPBUSGuildMarkBlock@@@std@@PAX@std@@@std@@YAXAAPAU?$_Tree_node@U?$pair@$$CBEPBUSGuildMarkBlock@@@std@@PAX@0@@Z
_TEXT	SEGMENT
__Obj$ = 8						; size = 4
??$_Destroy_in_place@PAU?$_Tree_node@U?$pair@$$CBEPBUSGuildMarkBlock@@@std@@PAX@std@@@std@@YAXAAPAU?$_Tree_node@U?$pair@$$CBEPBUSGuildMarkBlock@@@std@@PAX@0@@Z PROC ; std::_Destroy_in_place<std::_Tree_node<std::pair<unsigned char const ,SGuildMarkBlock const *>,void *> *>, COMDAT

; 271  : #if _HAS_IF_CONSTEXPR
; 272  :     if constexpr (is_array_v<_Ty>) {
; 273  :         _Destroy_range(_Obj, _Obj + extent_v<_Ty>);
; 274  :     } else
; 275  : #endif // _HAS_IF_CONSTEXPR
; 276  :     {
; 277  :         _Obj.~_Ty();
; 278  :     }
; 279  : }

  00000	c2 00 00	 ret	 0
??$_Destroy_in_place@PAU?$_Tree_node@U?$pair@$$CBEPBUSGuildMarkBlock@@@std@@PAX@std@@@std@@YAXAAPAU?$_Tree_node@U?$pair@$$CBEPBUSGuildMarkBlock@@@std@@PAX@0@@Z ENDP ; std::_Destroy_in_place<std::_Tree_node<std::pair<unsigned char const ,SGuildMarkBlock const *>,void *> *>
_TEXT	ENDS
; Function compile flags: /Ogtp
; File C:\Program Files (x86)\Microsoft Visual Studio\2019\Community\VC\Tools\MSVC\14.28.29333\include\xmemory
;	COMDAT ??1?$_Alloc_construct_ptr@V?$allocator@U?$_Tree_node@U?$pair@$$CBEPBUSGuildMarkBlock@@@std@@PAX@std@@@std@@@std@@QAE@XZ
_TEXT	SEGMENT
??1?$_Alloc_construct_ptr@V?$allocator@U?$_Tree_node@U?$pair@$$CBEPBUSGuildMarkBlock@@@std@@PAX@std@@@std@@@std@@QAE@XZ PROC ; std::_Alloc_construct_ptr<std::allocator<std::_Tree_node<std::pair<unsigned char const ,SGuildMarkBlock const *>,void *> > >::~_Alloc_construct_ptr<std::allocator<std::_Tree_node<std::pair<unsigned char const ,SGuildMarkBlock const *>,void *> > >, COMDAT
; _this$ = ecx

; 1057 :         if (_Ptr) {

  00000	8b 41 04	 mov	 eax, DWORD PTR [ecx+4]
  00003	85 c0		 test	 eax, eax
  00005	74 0b		 je	 SHORT $LN2@Alloc_cons

; 810  :         _Deallocate<_New_alignof<_Ty>>(_Ptr, sizeof(_Ty) * _Count);

  00007	6a 18		 push	 24			; 00000018H
  00009	50		 push	 eax
  0000a	e8 00 00 00 00	 call	 ??$_Deallocate@$07$0A@@std@@YAXPAXI@Z ; std::_Deallocate<8,0>
  0000f	83 c4 08	 add	 esp, 8
$LN2@Alloc_cons:

; 1058 :             _Al.deallocate(_Ptr, 1);
; 1059 :         }
; 1060 :     }

  00012	c3		 ret	 0
??1?$_Alloc_construct_ptr@V?$allocator@U?$_Tree_node@U?$pair@$$CBEPBUSGuildMarkBlock@@@std@@PAX@std@@@std@@@std@@QAE@XZ ENDP ; std::_Alloc_construct_ptr<std::allocator<std::_Tree_node<std::pair<unsigned char const ,SGuildMarkBlock const *>,void *> > >::~_Alloc_construct_ptr<std::allocator<std::_Tree_node<std::pair<unsigned char const ,SGuildMarkBlock const *>,void *> > >
_TEXT	ENDS
; Function compile flags: /Ogtp
; File C:\Program Files (x86)\Microsoft Visual Studio\2019\Community\VC\Tools\MSVC\14.28.29333\include\xtree
;	COMDAT ?_Insert_node@?$_Tree_val@U?$_Tree_simple_types@U?$pair@$$CBEPBUSGuildMarkBlock@@@std@@@std@@@std@@QAEPAU?$_Tree_node@U?$pair@$$CBEPBUSGuildMarkBlock@@@std@@PAX@2@U?$_Tree_id@PAU?$_Tree_node@U?$pair@$$CBEPBUSGuildMarkBlock@@@std@@PAX@std@@@2@QAU32@@Z
_TEXT	SEGMENT
__Head$1$ = -8						; size = 4
_this$1$ = -4						; size = 4
__Loc$ = 8						; size = 8
__Newnode$ = 16						; size = 4
?_Insert_node@?$_Tree_val@U?$_Tree_simple_types@U?$pair@$$CBEPBUSGuildMarkBlock@@@std@@@std@@@std@@QAEPAU?$_Tree_node@U?$pair@$$CBEPBUSGuildMarkBlock@@@std@@PAX@2@U?$_Tree_id@PAU?$_Tree_node@U?$pair@$$CBEPBUSGuildMarkBlock@@@std@@PAX@std@@@2@QAU32@@Z PROC ; std::_Tree_val<std::_Tree_simple_types<std::pair<unsigned char const ,SGuildMarkBlock const *> > >::_Insert_node, COMDAT
; _this$ = ecx

; 644  :     _Nodeptr _Insert_node(const _Tree_id<_Nodeptr> _Loc, const _Nodeptr _Newnode) noexcept {

  00000	55		 push	 ebp
  00001	8b ec		 mov	 ebp, esp
  00003	83 ec 08	 sub	 esp, 8

; 645  :         ++_Mysize;
; 646  :         const auto _Head  = _Myhead;
; 647  :         _Newnode->_Parent = _Loc._Parent;

  00006	8b 55 08	 mov	 edx, DWORD PTR __Loc$[ebp]
  00009	8b c1		 mov	 eax, ecx
  0000b	89 45 fc	 mov	 DWORD PTR _this$1$[ebp], eax
  0000e	8b 08		 mov	 ecx, DWORD PTR [eax]
  00010	ff 40 04	 inc	 DWORD PTR [eax+4]
  00013	8b 45 10	 mov	 eax, DWORD PTR __Newnode$[ebp]
  00016	89 4d f8	 mov	 DWORD PTR __Head$1$[ebp], ecx
  00019	89 50 04	 mov	 DWORD PTR [eax+4], edx

; 648  :         if (_Loc._Parent == _Head) { // first node in tree, just set head values

  0001c	3b d1		 cmp	 edx, ecx
  0001e	75 12		 jne	 SHORT $LN5@Insert_nod

; 649  :             _Head->_Left     = _Newnode;

  00020	89 01		 mov	 DWORD PTR [ecx], eax

; 650  :             _Head->_Parent   = _Newnode;

  00022	89 41 04	 mov	 DWORD PTR [ecx+4], eax

; 651  :             _Head->_Right    = _Newnode;

  00025	89 41 08	 mov	 DWORD PTR [ecx+8], eax

; 652  :             _Newnode->_Color = _Black; // the root is black

  00028	c6 40 0c 01	 mov	 BYTE PTR [eax+12], 1

; 711  :     }

  0002c	8b e5		 mov	 esp, ebp
  0002e	5d		 pop	 ebp
  0002f	c2 0c 00	 ret	 12			; 0000000cH
$LN5@Insert_nod:

; 653  :             return _Newnode;
; 654  :         }
; 655  : 
; 656  :         _STL_INTERNAL_CHECK(_Loc._Child != _Tree_child::_Unused);
; 657  :         if (_Loc._Child == _Tree_child::_Right) { // add to right of _Loc._Parent

  00032	83 7d 0c 00	 cmp	 DWORD PTR __Loc$[ebp+4], 0
  00036	75 0d		 jne	 SHORT $LN6@Insert_nod

; 658  :             _STL_INTERNAL_CHECK(_Loc._Parent->_Right->_Isnil);
; 659  :             _Loc._Parent->_Right = _Newnode;

  00038	89 42 08	 mov	 DWORD PTR [edx+8], eax

; 660  :             if (_Loc._Parent == _Head->_Right) { // remember rightmost node

  0003b	3b 51 08	 cmp	 edx, DWORD PTR [ecx+8]
  0003e	75 0d		 jne	 SHORT $LN9@Insert_nod

; 661  :                 _Head->_Right = _Newnode;

  00040	89 41 08	 mov	 DWORD PTR [ecx+8], eax

; 662  :             }
; 663  :         } else { // add to left of _Loc._Parent

  00043	eb 08		 jmp	 SHORT $LN9@Insert_nod
$LN6@Insert_nod:

; 664  :             _STL_INTERNAL_CHECK(_Loc._Parent->_Left->_Isnil);
; 665  :             _Loc._Parent->_Left = _Newnode;

  00045	89 02		 mov	 DWORD PTR [edx], eax

; 666  :             if (_Loc._Parent == _Head->_Left) { // remember leftmost node

  00047	3b 11		 cmp	 edx, DWORD PTR [ecx]
  00049	75 02		 jne	 SHORT $LN9@Insert_nod

; 667  :                 _Head->_Left = _Newnode;

  0004b	89 01		 mov	 DWORD PTR [ecx], eax
$LN9@Insert_nod:

; 668  :             }
; 669  :         }
; 670  : 
; 671  :         for (_Nodeptr _Pnode = _Newnode; _Pnode->_Parent->_Color == _Red;) {

  0004d	8b d0		 mov	 edx, eax
  0004f	8b 40 04	 mov	 eax, DWORD PTR [eax+4]
  00052	80 78 0c 00	 cmp	 BYTE PTR [eax+12], 0
  00056	0f 85 99 01 00
	00		 jne	 $LN3@Insert_nod
  0005c	53		 push	 ebx
  0005d	56		 push	 esi
  0005e	57		 push	 edi
  0005f	90		 npad	 1
$LL2@Insert_nod:

; 672  :             if (_Pnode->_Parent == _Pnode->_Parent->_Parent->_Left) { // fixup red-red in left subtree

  00060	8b 4a 04	 mov	 ecx, DWORD PTR [edx+4]
  00063	8d 7a 04	 lea	 edi, DWORD PTR [edx+4]
  00066	8b 71 04	 mov	 esi, DWORD PTR [ecx+4]
  00069	8d 59 04	 lea	 ebx, DWORD PTR [ecx+4]
  0006c	8b 06		 mov	 eax, DWORD PTR [esi]
  0006e	3b c8		 cmp	 ecx, eax
  00070	0f 85 ba 00 00
	00		 jne	 $LN10@Insert_nod

; 673  :                 const auto _Parent_sibling = _Pnode->_Parent->_Parent->_Right;

  00076	8b 46 08	 mov	 eax, DWORD PTR [esi+8]

; 674  :                 if (_Parent_sibling->_Color == _Red) { // parent's sibling has two red children, blacken both

  00079	80 78 0c 00	 cmp	 BYTE PTR [eax+12], 0
  0007d	0f 84 b3 00 00
	00		 je	 $LN53@Insert_nod

; 675  :                     _Pnode->_Parent->_Color          = _Black;
; 676  :                     _Parent_sibling->_Color          = _Black;
; 677  :                     _Pnode->_Parent->_Parent->_Color = _Red;
; 678  :                     _Pnode                           = _Pnode->_Parent->_Parent;
; 679  :                 } else { // parent's sibling has red and black children
; 680  :                     if (_Pnode == _Pnode->_Parent->_Right) { // rotate right child to left

  00083	8b 71 08	 mov	 esi, DWORD PTR [ecx+8]
  00086	3b d6		 cmp	 edx, esi
  00088	75 47		 jne	 SHORT $LN51@Insert_nod

; 460  :         _Wherenode->_Right = _Pnode->_Left;

  0008a	8b 06		 mov	 eax, DWORD PTR [esi]

; 681  :                         _Pnode = _Pnode->_Parent;

  0008c	8b d1		 mov	 edx, ecx

; 460  :         _Wherenode->_Right = _Pnode->_Left;

  0008e	89 42 08	 mov	 DWORD PTR [edx+8], eax

; 461  : 
; 462  :         if (!_Pnode->_Left->_Isnil) {

  00091	8b 06		 mov	 eax, DWORD PTR [esi]
  00093	80 78 0d 00	 cmp	 BYTE PTR [eax+13], 0
  00097	75 03		 jne	 SHORT $LN20@Insert_nod

; 463  :             _Pnode->_Left->_Parent = _Wherenode;

  00099	89 50 04	 mov	 DWORD PTR [eax+4], edx
$LN20@Insert_nod:

; 464  :         }
; 465  : 
; 466  :         _Pnode->_Parent = _Wherenode->_Parent;

  0009c	8b 03		 mov	 eax, DWORD PTR [ebx]
  0009e	89 46 04	 mov	 DWORD PTR [esi+4], eax

; 467  : 
; 468  :         if (_Wherenode == _Myhead->_Parent) {

  000a1	8b 45 fc	 mov	 eax, DWORD PTR _this$1$[ebp]
  000a4	8b 00		 mov	 eax, DWORD PTR [eax]
  000a6	3b 50 04	 cmp	 edx, DWORD PTR [eax+4]
  000a9	75 0b		 jne	 SHORT $LN21@Insert_nod

; 469  :             _Myhead->_Parent = _Pnode;

  000ab	89 70 04	 mov	 DWORD PTR [eax+4], esi

; 477  :         _Wherenode->_Parent = _Pnode;

  000ae	8b fb		 mov	 edi, ebx
  000b0	89 16		 mov	 DWORD PTR [esi], edx
  000b2	89 33		 mov	 DWORD PTR [ebx], esi
  000b4	eb 1d		 jmp	 SHORT $LN49@Insert_nod
$LN21@Insert_nod:

; 470  :         } else if (_Wherenode == _Wherenode->_Parent->_Left) {

  000b6	8b 03		 mov	 eax, DWORD PTR [ebx]
  000b8	3b 10		 cmp	 edx, DWORD PTR [eax]
  000ba	75 0a		 jne	 SHORT $LN23@Insert_nod

; 471  :             _Wherenode->_Parent->_Left = _Pnode;

  000bc	89 30		 mov	 DWORD PTR [eax], esi

; 477  :         _Wherenode->_Parent = _Pnode;

  000be	8b fb		 mov	 edi, ebx
  000c0	89 16		 mov	 DWORD PTR [esi], edx
  000c2	89 33		 mov	 DWORD PTR [ebx], esi
  000c4	eb 0d		 jmp	 SHORT $LN49@Insert_nod
$LN23@Insert_nod:

; 473  :             _Wherenode->_Parent->_Right = _Pnode;

  000c6	89 70 08	 mov	 DWORD PTR [eax+8], esi

; 477  :         _Wherenode->_Parent = _Pnode;

  000c9	8b fb		 mov	 edi, ebx
  000cb	89 16		 mov	 DWORD PTR [esi], edx
  000cd	89 33		 mov	 DWORD PTR [ebx], esi
  000cf	eb 02		 jmp	 SHORT $LN49@Insert_nod
$LN51@Insert_nod:
  000d1	8b f1		 mov	 esi, ecx
$LN49@Insert_nod:

; 682  :                         _Lrotate(_Pnode);
; 683  :                     }
; 684  : 
; 685  :                     _Pnode->_Parent->_Color          = _Black; // propagate red up

  000d3	c6 46 0c 01	 mov	 BYTE PTR [esi+12], 1

; 686  :                     _Pnode->_Parent->_Parent->_Color = _Red;

  000d7	8b 07		 mov	 eax, DWORD PTR [edi]
  000d9	8b 40 04	 mov	 eax, DWORD PTR [eax+4]
  000dc	c6 40 0c 00	 mov	 BYTE PTR [eax+12], 0

; 687  :                     _Rrotate(_Pnode->_Parent->_Parent);

  000e0	8b 07		 mov	 eax, DWORD PTR [edi]
  000e2	8b 48 04	 mov	 ecx, DWORD PTR [eax+4]

; 481  :         _Nodeptr _Pnode   = _Wherenode->_Left;

  000e5	8b 31		 mov	 esi, DWORD PTR [ecx]

; 482  :         _Wherenode->_Left = _Pnode->_Right;

  000e7	8b 46 08	 mov	 eax, DWORD PTR [esi+8]
  000ea	89 01		 mov	 DWORD PTR [ecx], eax

; 483  : 
; 484  :         if (!_Pnode->_Right->_Isnil) {

  000ec	8b 46 08	 mov	 eax, DWORD PTR [esi+8]
  000ef	80 78 0d 00	 cmp	 BYTE PTR [eax+13], 0
  000f3	75 03		 jne	 SHORT $LN27@Insert_nod

; 485  :             _Pnode->_Right->_Parent = _Wherenode;

  000f5	89 48 04	 mov	 DWORD PTR [eax+4], ecx
$LN27@Insert_nod:

; 486  :         }
; 487  : 
; 488  :         _Pnode->_Parent = _Wherenode->_Parent;

  000f8	8b 41 04	 mov	 eax, DWORD PTR [ecx+4]
  000fb	89 46 04	 mov	 DWORD PTR [esi+4], eax

; 489  : 
; 490  :         if (_Wherenode == _Myhead->_Parent) {

  000fe	8b 45 fc	 mov	 eax, DWORD PTR _this$1$[ebp]
  00101	8b 00		 mov	 eax, DWORD PTR [eax]
  00103	3b 48 04	 cmp	 ecx, DWORD PTR [eax+4]
  00106	75 0b		 jne	 SHORT $LN28@Insert_nod

; 491  :             _Myhead->_Parent = _Pnode;

  00108	89 70 04	 mov	 DWORD PTR [eax+4], esi

; 496  :         }
; 497  : 
; 498  :         _Pnode->_Right      = _Wherenode;

  0010b	89 4e 08	 mov	 DWORD PTR [esi+8], ecx

; 688  :                 }
; 689  :             } else { // fixup red-red in right subtree

  0010e	e9 cc 00 00 00	 jmp	 $LN52@Insert_nod
$LN28@Insert_nod:

; 492  :         } else if (_Wherenode == _Wherenode->_Parent->_Right) {

  00113	8b 41 04	 mov	 eax, DWORD PTR [ecx+4]
  00116	3b 48 08	 cmp	 ecx, DWORD PTR [eax+8]
  00119	75 0b		 jne	 SHORT $LN30@Insert_nod

; 493  :             _Wherenode->_Parent->_Right = _Pnode;

  0011b	89 70 08	 mov	 DWORD PTR [eax+8], esi

; 496  :         }
; 497  : 
; 498  :         _Pnode->_Right      = _Wherenode;

  0011e	89 4e 08	 mov	 DWORD PTR [esi+8], ecx

; 688  :                 }
; 689  :             } else { // fixup red-red in right subtree

  00121	e9 b9 00 00 00	 jmp	 $LN52@Insert_nod
$LN30@Insert_nod:

; 495  :             _Wherenode->_Parent->_Left = _Pnode;

  00126	89 30		 mov	 DWORD PTR [eax], esi

; 496  :         }
; 497  : 
; 498  :         _Pnode->_Right      = _Wherenode;

  00128	89 4e 08	 mov	 DWORD PTR [esi+8], ecx

; 688  :                 }
; 689  :             } else { // fixup red-red in right subtree

  0012b	e9 af 00 00 00	 jmp	 $LN52@Insert_nod
$LN10@Insert_nod:

; 690  :                 const auto _Parent_sibling = _Pnode->_Parent->_Parent->_Left;
; 691  :                 if (_Parent_sibling->_Color == _Red) { // parent's sibling has two red children, blacken both

  00130	80 78 0c 00	 cmp	 BYTE PTR [eax+12], 0
  00134	75 1b		 jne	 SHORT $LN15@Insert_nod
$LN53@Insert_nod:

; 668  :             }
; 669  :         }
; 670  : 
; 671  :         for (_Nodeptr _Pnode = _Newnode; _Pnode->_Parent->_Color == _Red;) {

  00136	c6 41 0c 01	 mov	 BYTE PTR [ecx+12], 1
  0013a	c6 40 0c 01	 mov	 BYTE PTR [eax+12], 1
  0013e	8b 07		 mov	 eax, DWORD PTR [edi]
  00140	8b 40 04	 mov	 eax, DWORD PTR [eax+4]
  00143	c6 40 0c 00	 mov	 BYTE PTR [eax+12], 0
  00147	8b 07		 mov	 eax, DWORD PTR [edi]
  00149	8b 50 04	 mov	 edx, DWORD PTR [eax+4]
  0014c	e9 91 00 00 00	 jmp	 $LN46@Insert_nod
$LN15@Insert_nod:

; 692  :                     _Pnode->_Parent->_Color          = _Black;
; 693  :                     _Parent_sibling->_Color          = _Black;
; 694  :                     _Pnode->_Parent->_Parent->_Color = _Red;
; 695  :                     _Pnode                           = _Pnode->_Parent->_Parent;
; 696  :                 } else { // parent's sibling has red and black children
; 697  :                     if (_Pnode == _Pnode->_Parent->_Left) { // rotate left child to right

  00151	8b 01		 mov	 eax, DWORD PTR [ecx]
  00153	3b d0		 cmp	 edx, eax
  00155	75 3e		 jne	 SHORT $LN39@Insert_nod

; 698  :                         _Pnode = _Pnode->_Parent;

  00157	8b d1		 mov	 edx, ecx

; 481  :         _Nodeptr _Pnode   = _Wherenode->_Left;

  00159	8b c8		 mov	 ecx, eax

; 482  :         _Wherenode->_Left = _Pnode->_Right;

  0015b	8b 41 08	 mov	 eax, DWORD PTR [ecx+8]
  0015e	89 02		 mov	 DWORD PTR [edx], eax

; 483  : 
; 484  :         if (!_Pnode->_Right->_Isnil) {

  00160	8b 41 08	 mov	 eax, DWORD PTR [ecx+8]
  00163	80 78 0d 00	 cmp	 BYTE PTR [eax+13], 0
  00167	75 03		 jne	 SHORT $LN34@Insert_nod

; 485  :             _Pnode->_Right->_Parent = _Wherenode;

  00169	89 50 04	 mov	 DWORD PTR [eax+4], edx
$LN34@Insert_nod:

; 486  :         }
; 487  : 
; 488  :         _Pnode->_Parent = _Wherenode->_Parent;

  0016c	8b 03		 mov	 eax, DWORD PTR [ebx]
  0016e	89 41 04	 mov	 DWORD PTR [ecx+4], eax

; 489  : 
; 490  :         if (_Wherenode == _Myhead->_Parent) {

  00171	8b 45 fc	 mov	 eax, DWORD PTR _this$1$[ebp]
  00174	8b 00		 mov	 eax, DWORD PTR [eax]
  00176	3b 50 04	 cmp	 edx, DWORD PTR [eax+4]
  00179	75 05		 jne	 SHORT $LN35@Insert_nod

; 491  :             _Myhead->_Parent = _Pnode;

  0017b	89 48 04	 mov	 DWORD PTR [eax+4], ecx
  0017e	eb 0e		 jmp	 SHORT $LN38@Insert_nod
$LN35@Insert_nod:

; 492  :         } else if (_Wherenode == _Wherenode->_Parent->_Right) {

  00180	8b 03		 mov	 eax, DWORD PTR [ebx]
  00182	3b 50 08	 cmp	 edx, DWORD PTR [eax+8]
  00185	75 05		 jne	 SHORT $LN37@Insert_nod

; 493  :             _Wherenode->_Parent->_Right = _Pnode;

  00187	89 48 08	 mov	 DWORD PTR [eax+8], ecx

; 494  :         } else {

  0018a	eb 02		 jmp	 SHORT $LN38@Insert_nod
$LN37@Insert_nod:

; 495  :             _Wherenode->_Parent->_Left = _Pnode;

  0018c	89 08		 mov	 DWORD PTR [eax], ecx
$LN38@Insert_nod:

; 496  :         }
; 497  : 
; 498  :         _Pnode->_Right      = _Wherenode;

  0018e	89 51 08	 mov	 DWORD PTR [ecx+8], edx

; 499  :         _Wherenode->_Parent = _Pnode;

  00191	8b fb		 mov	 edi, ebx
  00193	89 0b		 mov	 DWORD PTR [ebx], ecx
$LN39@Insert_nod:

; 699  :                         _Rrotate(_Pnode);
; 700  :                     }
; 701  : 
; 702  :                     _Pnode->_Parent->_Color          = _Black; // propagate red up

  00195	c6 41 0c 01	 mov	 BYTE PTR [ecx+12], 1

; 703  :                     _Pnode->_Parent->_Parent->_Color = _Red;

  00199	8b 07		 mov	 eax, DWORD PTR [edi]
  0019b	8b 40 04	 mov	 eax, DWORD PTR [eax+4]
  0019e	c6 40 0c 00	 mov	 BYTE PTR [eax+12], 0

; 704  :                     _Lrotate(_Pnode->_Parent->_Parent);

  001a2	8b 07		 mov	 eax, DWORD PTR [edi]
  001a4	8b 48 04	 mov	 ecx, DWORD PTR [eax+4]

; 459  :         _Nodeptr _Pnode    = _Wherenode->_Right;

  001a7	8b 71 08	 mov	 esi, DWORD PTR [ecx+8]

; 460  :         _Wherenode->_Right = _Pnode->_Left;

  001aa	8b 06		 mov	 eax, DWORD PTR [esi]
  001ac	89 41 08	 mov	 DWORD PTR [ecx+8], eax

; 461  : 
; 462  :         if (!_Pnode->_Left->_Isnil) {

  001af	8b 06		 mov	 eax, DWORD PTR [esi]
  001b1	80 78 0d 00	 cmp	 BYTE PTR [eax+13], 0
  001b5	75 03		 jne	 SHORT $LN41@Insert_nod

; 463  :             _Pnode->_Left->_Parent = _Wherenode;

  001b7	89 48 04	 mov	 DWORD PTR [eax+4], ecx
$LN41@Insert_nod:

; 464  :         }
; 465  : 
; 466  :         _Pnode->_Parent = _Wherenode->_Parent;

  001ba	8b 41 04	 mov	 eax, DWORD PTR [ecx+4]
  001bd	89 46 04	 mov	 DWORD PTR [esi+4], eax

; 467  : 
; 468  :         if (_Wherenode == _Myhead->_Parent) {

  001c0	8b 45 fc	 mov	 eax, DWORD PTR _this$1$[ebp]
  001c3	8b 00		 mov	 eax, DWORD PTR [eax]
  001c5	3b 48 04	 cmp	 ecx, DWORD PTR [eax+4]
  001c8	75 05		 jne	 SHORT $LN42@Insert_nod

; 469  :             _Myhead->_Parent = _Pnode;

  001ca	89 70 04	 mov	 DWORD PTR [eax+4], esi
  001cd	eb 0e		 jmp	 SHORT $LN45@Insert_nod
$LN42@Insert_nod:

; 470  :         } else if (_Wherenode == _Wherenode->_Parent->_Left) {

  001cf	8b 41 04	 mov	 eax, DWORD PTR [ecx+4]
  001d2	3b 08		 cmp	 ecx, DWORD PTR [eax]
  001d4	75 04		 jne	 SHORT $LN44@Insert_nod

; 471  :             _Wherenode->_Parent->_Left = _Pnode;

  001d6	89 30		 mov	 DWORD PTR [eax], esi

; 472  :         } else {

  001d8	eb 03		 jmp	 SHORT $LN45@Insert_nod
$LN44@Insert_nod:

; 473  :             _Wherenode->_Parent->_Right = _Pnode;

  001da	89 70 08	 mov	 DWORD PTR [eax+8], esi
$LN45@Insert_nod:

; 474  :         }
; 475  : 
; 476  :         _Pnode->_Left       = _Wherenode;

  001dd	89 0e		 mov	 DWORD PTR [esi], ecx
$LN52@Insert_nod:

; 668  :             }
; 669  :         }
; 670  : 
; 671  :         for (_Nodeptr _Pnode = _Newnode; _Pnode->_Parent->_Color == _Red;) {

  001df	89 71 04	 mov	 DWORD PTR [ecx+4], esi
$LN46@Insert_nod:
  001e2	8b 42 04	 mov	 eax, DWORD PTR [edx+4]
  001e5	80 78 0c 00	 cmp	 BYTE PTR [eax+12], 0
  001e9	0f 84 71 fe ff
	ff		 je	 $LL2@Insert_nod
  001ef	8b 4d f8	 mov	 ecx, DWORD PTR __Head$1$[ebp]
  001f2	5f		 pop	 edi
  001f3	5e		 pop	 esi
  001f4	5b		 pop	 ebx
$LN3@Insert_nod:

; 705  :                 }
; 706  :             }
; 707  :         }
; 708  : 
; 709  :         _Head->_Parent->_Color = _Black; // root is always black

  001f5	8b 41 04	 mov	 eax, DWORD PTR [ecx+4]
  001f8	c6 40 0c 01	 mov	 BYTE PTR [eax+12], 1

; 710  :         return _Newnode;

  001fc	8b 45 10	 mov	 eax, DWORD PTR __Newnode$[ebp]

; 711  :     }

  001ff	8b e5		 mov	 esp, ebp
  00201	5d		 pop	 ebp
  00202	c2 0c 00	 ret	 12			; 0000000cH
?_Insert_node@?$_Tree_val@U?$_Tree_simple_types@U?$pair@$$CBEPBUSGuildMarkBlock@@@std@@@std@@@std@@QAEPAU?$_Tree_node@U?$pair@$$CBEPBUSGuildMarkBlock@@@std@@PAX@2@U?$_Tree_id@PAU?$_Tree_node@U?$pair@$$CBEPBUSGuildMarkBlock@@@std@@PAX@std@@@2@QAU32@@Z ENDP ; std::_Tree_val<std::_Tree_simple_types<std::pair<unsigned char const ,SGuildMarkBlock const *> > >::_Insert_node
_TEXT	ENDS
; Function compile flags: /Ogtp
; File D:\Metin2 Server Files\mainline\SRC_2014\Metin2Client\UserInterface\MarkImage.cpp
;	COMDAT ?DeleteMarkImage@@YAXPAVCGuildMarkImage@@@Z
_TEXT	SEGMENT
_pkImage$ = 8						; size = 4
?DeleteMarkImage@@YAXPAVCGuildMarkImage@@@Z PROC	; DeleteMarkImage, COMDAT

; 23   : {

  00000	55		 push	 ebp
  00001	8b ec		 mov	 ebp, esp

; 24   : 	delete pkImage;

  00003	8b 4d 08	 mov	 ecx, DWORD PTR _pkImage$[ebp]
  00006	85 c9		 test	 ecx, ecx
  00008	74 06		 je	 SHORT $LN3@DeleteMark
  0000a	8b 01		 mov	 eax, DWORD PTR [ecx]
  0000c	6a 01		 push	 1
  0000e	ff 10		 call	 DWORD PTR [eax]
$LN3@DeleteMark:

; 25   : }

  00010	5d		 pop	 ebp
  00011	c3		 ret	 0
?DeleteMarkImage@@YAXPAVCGuildMarkImage@@@Z ENDP	; DeleteMarkImage
_TEXT	ENDS
; Function compile flags: /Ogtp
; File D:\Metin2 Server Files\mainline\SRC_2014\Metin2Client\UserInterface\MarkImage.cpp
;	COMDAT ?NewMarkImage@@YAPAVCGuildMarkImage@@XZ
_TEXT	SEGMENT
$T1 = -4						; size = 4
?NewMarkImage@@YAPAVCGuildMarkImage@@XZ PROC		; NewMarkImage, COMDAT

; 18   : {

  00000	55		 push	 ebp
  00001	8b ec		 mov	 ebp, esp
  00003	51		 push	 ecx

; 19   : 	return new CGuildMarkImage;

  00004	68 c8 07 5f 00	 push	 6227912			; 005f07c8H
  00009	e8 00 00 00 00	 call	 ??2@YAPAXI@Z		; operator new
  0000e	83 c4 04	 add	 esp, 4
  00011	89 45 fc	 mov	 DWORD PTR $T1[ebp], eax
  00014	85 c0		 test	 eax, eax
  00016	74 0b		 je	 SHORT $LN3@NewMarkIma
  00018	8b c8		 mov	 ecx, eax
  0001a	e8 00 00 00 00	 call	 ??0CGuildMarkImage@@QAE@XZ ; CGuildMarkImage::CGuildMarkImage

; 20   : }

  0001f	8b e5		 mov	 esp, ebp
  00021	5d		 pop	 ebp
  00022	c3		 ret	 0
$LN3@NewMarkIma:

; 19   : 	return new CGuildMarkImage;

  00023	33 c0		 xor	 eax, eax

; 20   : }

  00025	8b e5		 mov	 esp, ebp
  00027	5d		 pop	 ebp
  00028	c3		 ret	 0
?NewMarkImage@@YAPAVCGuildMarkImage@@XZ ENDP		; NewMarkImage
_TEXT	ENDS
; Function compile flags: /Ogtp
;	COMDAT ??_GCGuildMarkImage@@UAEPAXI@Z
_TEXT	SEGMENT
___flags$ = 8						; size = 4
??_GCGuildMarkImage@@UAEPAXI@Z PROC			; CGuildMarkImage::`scalar deleting destructor', COMDAT
; _this$ = ecx
  00000	55		 push	 ebp
  00001	8b ec		 mov	 ebp, esp
  00003	56		 push	 esi
  00004	8b f1		 mov	 esi, ecx
  00006	e8 00 00 00 00	 call	 ??1CGuildMarkImage@@UAE@XZ ; CGuildMarkImage::~CGuildMarkImage
  0000b	f6 45 08 01	 test	 BYTE PTR ___flags$[ebp], 1
  0000f	74 0e		 je	 SHORT $LN4@scalar
  00011	68 c8 07 5f 00	 push	 6227912			; 005f07c8H
  00016	56		 push	 esi
  00017	e8 00 00 00 00	 call	 ??3@YAXPAXI@Z		; operator delete
  0001c	83 c4 08	 add	 esp, 8
$LN4@scalar:
  0001f	8b c6		 mov	 eax, esi
  00021	5e		 pop	 esi
  00022	5d		 pop	 ebp
  00023	c2 04 00	 ret	 4
??_GCGuildMarkImage@@UAEPAXI@Z ENDP			; CGuildMarkImage::`scalar deleting destructor'
_TEXT	ENDS
; Function compile flags: /Ogtp
; File D:\Metin2 Server Files\mainline\SRC_2014\Metin2Client\UserInterface\MarkImage.cpp
;	COMDAT ?BuildAllBlocks@CGuildMarkImage@@AAEXXZ
_TEXT	SEGMENT
_this$GSCopy$1$ = -12296				; size = 4
_apxBuf$ = -12292					; size = 12288
__$ArrayPad$ = -4					; size = 4
?BuildAllBlocks@CGuildMarkImage@@AAEXXZ PROC		; CGuildMarkImage::BuildAllBlocks, COMDAT
; _this$ = ecx

; 212  : {

  00000	55		 push	 ebp
  00001	8b ec		 mov	 ebp, esp
  00003	b8 08 30 00 00	 mov	 eax, 12296		; 00003008H
  00008	e8 00 00 00 00	 call	 __chkstk
  0000d	a1 00 00 00 00	 mov	 eax, DWORD PTR ___security_cookie
  00012	33 c5		 xor	 eax, ebp
  00014	89 45 fc	 mov	 DWORD PTR __$ArrayPad$[ebp], eax
  00017	53		 push	 ebx
  00018	8b c1		 mov	 eax, ecx
  0001a	33 db		 xor	 ebx, ebx
  0001c	56		 push	 esi
  0001d	57		 push	 edi
  0001e	89 85 f8 cf ff
	ff		 mov	 DWORD PTR _this$GSCopy$1$[ebp], eax
  00024	8d 78 04	 lea	 edi, DWORD PTR [eax+4]
$LL4@BuildAllBl:

; 217  : 		for (UINT col = 0; col < BLOCK_COL_COUNT; ++col)

  00027	33 f6		 xor	 esi, esi
  00029	0f 1f 80 00 00
	00 00		 npad	 7
$LL7@BuildAllBl:

; 218  : 		{
; 219  : 			GetData(col * SGuildMarkBlock::WIDTH, row * SGuildMarkBlock::HEIGHT, SGuildMarkBlock::WIDTH, SGuildMarkBlock::HEIGHT, apxBuf);

  00030	8d 8d fc cf ff
	ff		 lea	 ecx, DWORD PTR _apxBuf$[ebp]
  00036	51		 push	 ecx
  00037	6a 30		 push	 48			; 00000030H
  00039	6a 40		 push	 64			; 00000040H
  0003b	53		 push	 ebx
  0003c	56		 push	 esi
  0003d	8b c8		 mov	 ecx, eax
  0003f	e8 00 00 00 00	 call	 ?GetData@CGuildMarkImage@@QAEXIIIIPAX@Z ; CGuildMarkImage::GetData

; 220  : 			m_aakBlock[row][col].Compress(apxBuf);

  00044	8d 85 fc cf ff
	ff		 lea	 eax, DWORD PTR _apxBuf$[ebp]
  0004a	8b cf		 mov	 ecx, edi
  0004c	50		 push	 eax
  0004d	e8 00 00 00 00	 call	 ?Compress@SGuildMarkBlock@@QAEXPBK@Z ; SGuildMarkBlock::Compress
  00052	8b 85 f8 cf ff
	ff		 mov	 eax, DWORD PTR _this$GSCopy$1$[ebp]
  00058	83 c6 40	 add	 esi, 64			; 00000040H
  0005b	81 c7 4c 63 00
	00		 add	 edi, 25420		; 0000634cH
  00061	81 fe 00 02 00
	00		 cmp	 esi, 512		; 00000200H
  00067	72 c7		 jb	 SHORT $LL7@BuildAllBl

; 213  : 	Pixel apxBuf[SGuildMarkBlock::SIZE];
; 214  : 	sys_log(0, "CGuildMarkImage::BuildAllBlocks");
; 215  : 
; 216  : 	for (UINT row = 0; row < BLOCK_ROW_COUNT; ++row)

  00069	83 c3 30	 add	 ebx, 48			; 00000030H
  0006c	81 fb e0 01 00
	00		 cmp	 ebx, 480		; 000001e0H
  00072	72 b3		 jb	 SHORT $LL4@BuildAllBl

; 221  : 		}
; 222  : }

  00074	8b 4d fc	 mov	 ecx, DWORD PTR __$ArrayPad$[ebp]
  00077	5f		 pop	 edi
  00078	5e		 pop	 esi
  00079	33 cd		 xor	 ecx, ebp
  0007b	5b		 pop	 ebx
  0007c	e8 00 00 00 00	 call	 @__security_check_cookie@4
  00081	8b e5		 mov	 esp, ebp
  00083	5d		 pop	 ebp
  00084	c3		 ret	 0
?BuildAllBlocks@CGuildMarkImage@@AAEXXZ ENDP		; CGuildMarkImage::BuildAllBlocks
_TEXT	ENDS
; Function compile flags: /Ogtp
; File D:\Metin2 Server Files\mainline\SRC_2014\Metin2Client\UserInterface\MarkImage.cpp
; File C:\Program Files (x86)\Microsoft Visual Studio\2019\Community\VC\Tools\MSVC\14.28.29333\include\xtree
; File C:\Program Files (x86)\Microsoft Visual Studio\2019\Community\VC\Tools\MSVC\14.28.29333\include\utility
; File C:\Program Files (x86)\Microsoft Visual Studio\2019\Community\VC\Tools\MSVC\14.28.29333\include\xtree
; File C:\Program Files (x86)\Microsoft Visual Studio\2019\Community\VC\Tools\MSVC\14.28.29333\include\xstddef
; File C:\Program Files (x86)\Microsoft Visual Studio\2019\Community\VC\Tools\MSVC\14.28.29333\include\xtree
; File C:\Program Files (x86)\Microsoft Visual Studio\2019\Community\VC\Tools\MSVC\14.28.29333\include\xstddef
; File C:\Program Files (x86)\Microsoft Visual Studio\2019\Community\VC\Tools\MSVC\14.28.29333\include\xtree
; File C:\Program Files (x86)\Microsoft Visual Studio\2019\Community\VC\Tools\MSVC\14.28.29333\include\xstddef
; File C:\Program Files (x86)\Microsoft Visual Studio\2019\Community\VC\Tools\MSVC\14.28.29333\include\xtree
; File C:\Program Files (x86)\Microsoft Visual Studio\2019\Community\VC\Tools\MSVC\14.28.29333\include\xmemory
; File C:\Program Files (x86)\Microsoft Visual Studio\2019\Community\VC\Tools\MSVC\14.28.29333\include\xtree
; File C:\Program Files (x86)\Microsoft Visual Studio\2019\Community\VC\Tools\MSVC\14.28.29333\include\xmemory
; File C:\Program Files (x86)\Microsoft Visual Studio\2019\Community\VC\Tools\MSVC\14.28.29333\include\xtree
; File C:\Program Files (x86)\Microsoft Visual Studio\2019\Community\VC\Tools\MSVC\14.28.29333\include\xmemory
; File C:\Program Files (x86)\Microsoft Visual Studio\2019\Community\VC\Tools\MSVC\14.28.29333\include\xtree
; File C:\Program Files (x86)\Microsoft Visual Studio\2019\Community\VC\Tools\MSVC\14.28.29333\include\utility
; File C:\Program Files (x86)\Microsoft Visual Studio\2019\Community\VC\Tools\MSVC\14.28.29333\include\xtree
; File D:\Metin2 Server Files\mainline\SRC_2014\Metin2Client\UserInterface\MarkImage.cpp
; File C:\Program Files (x86)\Microsoft Visual Studio\2019\Community\VC\Tools\MSVC\14.28.29333\include\xtree
; File D:\Metin2 Server Files\mainline\SRC_2014\Metin2Client\UserInterface\MarkImage.cpp
;	COMDAT ?GetDiffBlocks@CGuildMarkImage@@QAEXPBKAAV?$map@EPBUSGuildMarkBlock@@U?$less@E@std@@V?$allocator@U?$pair@$$CBEPBUSGuildMarkBlock@@@std@@@3@@std@@@Z
_TEXT	SEGMENT
$T4 = -52						; size = 8
$T5 = -44						; size = 8
tv780 = -36						; size = 4
_row$1$ = -32						; size = 4
__Loc$1$ = -28						; size = 4
$T6 = -24						; size = 4
_col$1$ = -20						; size = 4
tv783 = -16						; size = 4
__Myhead$7 = -16					; size = 4
__$EHRec$ = -12						; size = 12
_crcList$ = 8						; size = 4
_mapDiffBlocks$ = 12					; size = 4
?GetDiffBlocks@CGuildMarkImage@@QAEXPBKAAV?$map@EPBUSGuildMarkBlock@@U?$less@E@std@@V?$allocator@U?$pair@$$CBEPBUSGuildMarkBlock@@@std@@@3@@std@@@Z PROC ; CGuildMarkImage::GetDiffBlocks, COMDAT
; _this$ = ecx

; 243  : {

  00000	55		 push	 ebp
  00001	8b ec		 mov	 ebp, esp
  00003	6a ff		 push	 -1
  00005	68 00 00 00 00	 push	 __ehhandler$?GetDiffBlocks@CGuildMarkImage@@QAEXPBKAAV?$map@EPBUSGuildMarkBlock@@U?$less@E@std@@V?$allocator@U?$pair@$$CBEPBUSGuildMarkBlock@@@std@@@3@@std@@@Z
  0000a	64 a1 00 00 00
	00		 mov	 eax, DWORD PTR fs:0
  00010	50		 push	 eax
  00011	83 ec 28	 sub	 esp, 40			; 00000028H
  00014	53		 push	 ebx
  00015	56		 push	 esi
  00016	57		 push	 edi
  00017	a1 00 00 00 00	 mov	 eax, DWORD PTR ___security_cookie
  0001c	33 c5		 xor	 eax, ebp
  0001e	50		 push	 eax
  0001f	8d 45 f4	 lea	 eax, DWORD PTR __$EHRec$[ebp]
  00022	64 a3 00 00 00
	00		 mov	 DWORD PTR fs:0, eax

; 244  : 	BYTE posBlock = 0;
; 245  : 
; 246  : 	for (DWORD row = 0; row < BLOCK_ROW_COUNT; ++row)

  00028	8d 41 04	 lea	 eax, DWORD PTR [ecx+4]
  0002b	c7 45 e0 00 00
	00 00		 mov	 DWORD PTR _row$1$[ebp], 0
  00032	32 db		 xor	 bl, bl
  00034	89 45 dc	 mov	 DWORD PTR tv780[ebp], eax
$LL4@GetDiffBlo:

; 247  : 		for (DWORD col = 0; col < BLOCK_COL_COUNT; ++col)

  00037	33 c9		 xor	 ecx, ecx
  00039	89 45 e8	 mov	 DWORD PTR $T6[ebp], eax
  0003c	89 4d ec	 mov	 DWORD PTR _col$1$[ebp], ecx
  0003f	90		 npad	 1
$LL7@GetDiffBlo:

; 248  : 		{
; 249  : 			if (m_aakBlock[row][col].m_crc != *crcList)

  00040	8b 55 08	 mov	 edx, DWORD PTR _crcList$[ebp]
  00043	8b 80 48 63 00
	00		 mov	 eax, DWORD PTR [eax+25416]
  00049	3b 02		 cmp	 eax, DWORD PTR [edx]
  0004b	0f 84 d2 00 00
	00		 je	 $LN74@GetDiffBlo
; File C:\Program Files (x86)\Microsoft Visual Studio\2019\Community\VC\Tools\MSVC\14.28.29333\include\xtree

; 1701 :         _Tree_find_result<_Nodeptr> _Result{{_Scary->_Myhead->_Parent, _Tree_child::_Right}, _Scary->_Myhead};

  00051	8b 45 0c	 mov	 eax, DWORD PTR _mapDiffBlocks$[ebp]
  00054	33 ff		 xor	 edi, edi
; File C:\Program Files (x86)\Microsoft Visual Studio\2019\Community\VC\Tools\MSVC\14.28.29333\include\utility

; 190  :         : first(_STD forward<_Other1>(_Val1)), second(_STD forward<_Other2>(_Val2)) {}

  00056	88 5d cc	 mov	 BYTE PTR $T4[ebp], bl
; File C:\Program Files (x86)\Microsoft Visual Studio\2019\Community\VC\Tools\MSVC\14.28.29333\include\xtree

; 1701 :         _Tree_find_result<_Nodeptr> _Result{{_Scary->_Myhead->_Parent, _Tree_child::_Right}, _Scary->_Myhead};

  00059	8b 00		 mov	 eax, DWORD PTR [eax]
  0005b	8b d0		 mov	 edx, eax
  0005d	89 45 f0	 mov	 DWORD PTR tv783[ebp], eax
  00060	8b 70 04	 mov	 esi, DWORD PTR [eax+4]
  00063	89 75 e4	 mov	 DWORD PTR __Loc$1$[ebp], esi

; 1702 :         _Nodeptr _Trynode = _Result._Location._Parent;
; 1703 :         while (!_Trynode->_Isnil) {

  00066	80 7e 0d 00	 cmp	 BYTE PTR [esi+13], 0
  0006a	75 24		 jne	 SHORT $LN20@GetDiffBlo
; File C:\Program Files (x86)\Microsoft Visual Studio\2019\Community\VC\Tools\MSVC\14.28.29333\include\xstddef

; 127  :         return _Left < _Right;

  0006c	8b c6		 mov	 eax, esi
  0006e	66 90		 npad	 2
$LL19@GetDiffBlo:
; File C:\Program Files (x86)\Microsoft Visual Studio\2019\Community\VC\Tools\MSVC\14.28.29333\include\xtree

; 1704 :             _Result._Location._Parent = _Trynode;

  00070	89 45 e4	 mov	 DWORD PTR __Loc$1$[ebp], eax
; File C:\Program Files (x86)\Microsoft Visual Studio\2019\Community\VC\Tools\MSVC\14.28.29333\include\xstddef

; 127  :         return _Left < _Right;

  00073	38 58 10	 cmp	 BYTE PTR [eax+16], bl
; File C:\Program Files (x86)\Microsoft Visual Studio\2019\Community\VC\Tools\MSVC\14.28.29333\include\xtree

; 1705 :             if (_DEBUG_LT_PRED(_Getcomp(), _Traits::_Kfn(_Trynode->_Myval), _Keyval)) {

  00076	73 05		 jae	 SHORT $LN21@GetDiffBlo

; 1706 :                 _Result._Location._Child = _Tree_child::_Right;
; 1707 :                 _Trynode                 = _Trynode->_Right;

  00078	8b 40 08	 mov	 eax, DWORD PTR [eax+8]

; 1708 :             } else {

  0007b	eb 04		 jmp	 SHORT $LN22@GetDiffBlo
$LN21@GetDiffBlo:

; 1709 :                 _Result._Location._Child = _Tree_child::_Left;
; 1710 :                 _Result._Bound           = _Trynode;

  0007d	8b d0		 mov	 edx, eax

; 1711 :                 _Trynode                 = _Trynode->_Left;

  0007f	8b 00		 mov	 eax, DWORD PTR [eax]
$LN22@GetDiffBlo:

; 1702 :         _Nodeptr _Trynode = _Result._Location._Parent;
; 1703 :         while (!_Trynode->_Isnil) {

  00081	1b ff		 sbb	 edi, edi
  00083	47		 inc	 edi
  00084	80 78 0d 00	 cmp	 BYTE PTR [eax+13], 0
  00088	74 e6		 je	 SHORT $LL19@GetDiffBlo
  0008a	8b 4d ec	 mov	 ecx, DWORD PTR _col$1$[ebp]
  0008d	8b 45 f0	 mov	 eax, DWORD PTR tv783[ebp]
$LN20@GetDiffBlo:

; 1695 :         return !_Bound->_Isnil && !_DEBUG_LT_PRED(_Getcomp(), _Keyval, _Traits::_Kfn(_Bound->_Myval));

  00090	80 7a 0d 00	 cmp	 BYTE PTR [edx+13], 0
  00094	75 09		 jne	 SHORT $LN28@GetDiffBlo
; File C:\Program Files (x86)\Microsoft Visual Studio\2019\Community\VC\Tools\MSVC\14.28.29333\include\xstddef

; 127  :         return _Left < _Right;

  00096	3a 5a 10	 cmp	 bl, BYTE PTR [edx+16]
; File C:\Program Files (x86)\Microsoft Visual Studio\2019\Community\VC\Tools\MSVC\14.28.29333\include\xtree

; 1695 :         return !_Bound->_Isnil && !_DEBUG_LT_PRED(_Getcomp(), _Keyval, _Traits::_Kfn(_Bound->_Myval));

  00099	0f 83 84 00 00
	00		 jae	 $LN74@GetDiffBlo
$LN28@GetDiffBlo:

; 1719 :         if (max_size() == _Get_scary()->_Mysize) {

  0009f	8b 4d 0c	 mov	 ecx, DWORD PTR _mapDiffBlocks$[ebp]
  000a2	81 79 04 aa aa
	aa 0a		 cmp	 DWORD PTR [ecx+4], 178956970 ; 0aaaaaaaH
  000a9	0f 84 c1 00 00
	00		 je	 $LN88@GetDiffBlo

; 1015 :             _Inserted = _Tree_temp_node<_Alnode>(_Getal(), _Scary->_Myhead, _STD forward<_Valtys>(_Vals)...)._Release();

  000af	89 45 f0	 mov	 DWORD PTR __Myhead$7[ebp], eax
; File C:\Program Files (x86)\Microsoft Visual Studio\2019\Community\VC\Tools\MSVC\14.28.29333\include\xmemory

; 1045 :     explicit _Alloc_construct_ptr(_Alloc& _Al_) : _Al(_Al_), _Ptr(nullptr) {}

  000b2	89 4d d4	 mov	 DWORD PTR $T5[ebp], ecx

; 814  :         return static_cast<_Ty*>(_Allocate<_New_alignof<_Ty>>(_Get_size_of_n<sizeof(_Ty)>(_Count)));

  000b5	6a 18		 push	 24			; 00000018H
; File C:\Program Files (x86)\Microsoft Visual Studio\2019\Community\VC\Tools\MSVC\14.28.29333\include\xtree

; 784  :     explicit _Tree_temp_node_alloc(_Alnode& _Al_) : _Alloc_construct_ptr<_Alnode>(_Al_) {

  000b7	c7 45 fc 00 00
	00 00		 mov	 DWORD PTR __$EHRec$[ebp+8], 0
; File C:\Program Files (x86)\Microsoft Visual Studio\2019\Community\VC\Tools\MSVC\14.28.29333\include\xmemory

; 1052 :         _Ptr = nullptr; // if allocate throws, prevents double-free

  000be	c7 45 d8 00 00
	00 00		 mov	 DWORD PTR $T5[ebp+4], 0

; 814  :         return static_cast<_Ty*>(_Allocate<_New_alignof<_Ty>>(_Get_size_of_n<sizeof(_Ty)>(_Count)));

  000c5	e8 00 00 00 00	 call	 ??$_Allocate@$07U_Default_allocate_traits@std@@$0A@@std@@YAPAXI@Z ; std::_Allocate<8,std::_Default_allocate_traits,0>
; File C:\Program Files (x86)\Microsoft Visual Studio\2019\Community\VC\Tools\MSVC\14.28.29333\include\xtree

; 806  :         _Alnode_traits::construct(this->_Al, _STD addressof(this->_Ptr->_Myval), _STD forward<_Valtys>(_Vals)...);

  000ca	8b 4d cc	 mov	 ecx, DWORD PTR $T4[ebp]
; File C:\Program Files (x86)\Microsoft Visual Studio\2019\Community\VC\Tools\MSVC\14.28.29333\include\xmemory

; 1053 :         _Ptr = _Al.allocate(1);

  000cd	8b f0		 mov	 esi, eax
; File C:\Program Files (x86)\Microsoft Visual Studio\2019\Community\VC\Tools\MSVC\14.28.29333\include\xtree

; 806  :         _Alnode_traits::construct(this->_Al, _STD addressof(this->_Ptr->_Myval), _STD forward<_Valtys>(_Vals)...);

  000cf	8b 45 e8	 mov	 eax, DWORD PTR $T6[ebp]

; 786  :     }

  000d2	c7 45 fc ff ff
	ff ff		 mov	 DWORD PTR __$EHRec$[ebp+8], -1

; 806  :         _Alnode_traits::construct(this->_Al, _STD addressof(this->_Ptr->_Myval), _STD forward<_Valtys>(_Vals)...);

  000d9	89 4e 10	 mov	 DWORD PTR [esi+16], ecx
  000dc	89 46 14	 mov	 DWORD PTR [esi+20], eax

; 807  :         _Construct_in_place(this->_Ptr->_Left, _Myhead);

  000df	8d 45 f0	 lea	 eax, DWORD PTR __Myhead$7[ebp]
  000e2	50		 push	 eax
  000e3	56		 push	 esi
  000e4	e8 00 00 00 00	 call	 ??$_Construct_in_place@PAU?$_Tree_node@U?$pair@$$CBEPBUSGuildMarkBlock@@@std@@PAX@std@@AAPAU12@@std@@YAXAAPAU?$_Tree_node@U?$pair@$$CBEPBUSGuildMarkBlock@@@std@@PAX@0@0@Z ; std::_Construct_in_place<std::_Tree_node<std::pair<unsigned char const ,SGuildMarkBlock const *>,void *> *,std::_Tree_node<std::pair<unsigned char const ,SGuildMarkBlock const *>,void *> * &>

; 808  :         _Construct_in_place(this->_Ptr->_Parent, _Myhead);

  000e9	8d 45 f0	 lea	 eax, DWORD PTR __Myhead$7[ebp]
  000ec	50		 push	 eax
  000ed	8d 46 04	 lea	 eax, DWORD PTR [esi+4]
  000f0	50		 push	 eax
  000f1	e8 00 00 00 00	 call	 ??$_Construct_in_place@PAU?$_Tree_node@U?$pair@$$CBEPBUSGuildMarkBlock@@@std@@PAX@std@@AAPAU12@@std@@YAXAAPAU?$_Tree_node@U?$pair@$$CBEPBUSGuildMarkBlock@@@std@@PAX@0@0@Z ; std::_Construct_in_place<std::_Tree_node<std::pair<unsigned char const ,SGuildMarkBlock const *>,void *> *,std::_Tree_node<std::pair<unsigned char const ,SGuildMarkBlock const *>,void *> * &>

; 809  :         _Construct_in_place(this->_Ptr->_Right, _Myhead);

  000f6	8d 45 f0	 lea	 eax, DWORD PTR __Myhead$7[ebp]
  000f9	50		 push	 eax
  000fa	8d 46 08	 lea	 eax, DWORD PTR [esi+8]
  000fd	50		 push	 eax
  000fe	e8 00 00 00 00	 call	 ??$_Construct_in_place@PAU?$_Tree_node@U?$pair@$$CBEPBUSGuildMarkBlock@@@std@@PAX@std@@AAPAU12@@std@@YAXAAPAU?$_Tree_node@U?$pair@$$CBEPBUSGuildMarkBlock@@@std@@PAX@0@0@Z ; std::_Construct_in_place<std::_Tree_node<std::pair<unsigned char const ,SGuildMarkBlock const *>,void *> *,std::_Tree_node<std::pair<unsigned char const ,SGuildMarkBlock const *>,void *> * &>

; 1034 :         return {_Scary->_Insert_node(_Loc._Location, _Inserted), true};

  00103	8b 4d 0c	 mov	 ecx, DWORD PTR _mapDiffBlocks$[ebp]

; 809  :         _Construct_in_place(this->_Ptr->_Right, _Myhead);

  00106	83 c4 1c	 add	 esp, 28			; 0000001cH

; 810  :         this->_Ptr->_Color = _Red;

  00109	66 c7 46 0c 00
	00		 mov	 WORD PTR [esi+12], 0
; File C:\Program Files (x86)\Microsoft Visual Studio\2019\Community\VC\Tools\MSVC\14.28.29333\include\utility

; 599  :     _Val         = static_cast<_Other&&>(_New_val);

  0010f	c7 45 d8 00 00
	00 00		 mov	 DWORD PTR $T5[ebp+4], 0
; File C:\Program Files (x86)\Microsoft Visual Studio\2019\Community\VC\Tools\MSVC\14.28.29333\include\xtree

; 1034 :         return {_Scary->_Insert_node(_Loc._Location, _Inserted), true};

  00116	56		 push	 esi
  00117	57		 push	 edi
  00118	ff 75 e4	 push	 DWORD PTR __Loc$1$[ebp]
  0011b	e8 00 00 00 00	 call	 ?_Insert_node@?$_Tree_val@U?$_Tree_simple_types@U?$pair@$$CBEPBUSGuildMarkBlock@@@std@@@std@@@std@@QAEPAU?$_Tree_node@U?$pair@$$CBEPBUSGuildMarkBlock@@@std@@PAX@2@U?$_Tree_id@PAU?$_Tree_node@U?$pair@$$CBEPBUSGuildMarkBlock@@@std@@PAX@std@@@2@QAU32@@Z ; std::_Tree_val<std::_Tree_simple_types<std::pair<unsigned char const ,SGuildMarkBlock const *> > >::_Insert_node
  00120	8b 4d ec	 mov	 ecx, DWORD PTR _col$1$[ebp]
$LN74@GetDiffBlo:
; File D:\Metin2 Server Files\mainline\SRC_2014\Metin2Client\UserInterface\MarkImage.cpp

; 247  : 		for (DWORD col = 0; col < BLOCK_COL_COUNT; ++col)

  00123	8b 45 e8	 mov	 eax, DWORD PTR $T6[ebp]
  00126	41		 inc	 ecx

; 250  : 			{
; 251  : 				mapDiffBlocks.insert(std::map<BYTE, const SGuildMarkBlock *>::value_type(posBlock, &m_aakBlock[row][col]));
; 252  : 			}
; 253  : 			++crcList;

  00127	83 45 08 04	 add	 DWORD PTR _crcList$[ebp], 4
  0012b	05 4c 63 00 00	 add	 eax, 25420		; 0000634cH

; 254  : 			++posBlock;

  00130	fe c3		 inc	 bl
  00132	89 4d ec	 mov	 DWORD PTR _col$1$[ebp], ecx
  00135	89 45 e8	 mov	 DWORD PTR $T6[ebp], eax
  00138	83 f9 08	 cmp	 ecx, 8
  0013b	0f 82 ff fe ff
	ff		 jb	 $LL7@GetDiffBlo

; 244  : 	BYTE posBlock = 0;
; 245  : 
; 246  : 	for (DWORD row = 0; row < BLOCK_ROW_COUNT; ++row)

  00141	8b 55 e0	 mov	 edx, DWORD PTR _row$1$[ebp]
  00144	8b 45 dc	 mov	 eax, DWORD PTR tv780[ebp]
  00147	42		 inc	 edx
  00148	05 60 1a 03 00	 add	 eax, 203360		; 00031a60H
  0014d	89 55 e0	 mov	 DWORD PTR _row$1$[ebp], edx
  00150	89 45 dc	 mov	 DWORD PTR tv780[ebp], eax
  00153	83 fa 0a	 cmp	 edx, 10			; 0000000aH
  00156	0f 82 db fe ff
	ff		 jb	 $LL4@GetDiffBlo

; 256  : }

  0015c	8b 4d f4	 mov	 ecx, DWORD PTR __$EHRec$[ebp]
  0015f	64 89 0d 00 00
	00 00		 mov	 DWORD PTR fs:0, ecx
  00166	59		 pop	 ecx
  00167	5f		 pop	 edi
  00168	5e		 pop	 esi
  00169	5b		 pop	 ebx
  0016a	8b e5		 mov	 esp, ebp
  0016c	5d		 pop	 ebp
  0016d	c2 08 00	 ret	 8
$LN88@GetDiffBlo:
; File C:\Program Files (x86)\Microsoft Visual Studio\2019\Community\VC\Tools\MSVC\14.28.29333\include\xtree

; 1720 :             _Throw_tree_length_error();

  00170	e8 00 00 00 00	 call	 ?_Throw_tree_length_error@std@@YAXXZ ; std::_Throw_tree_length_error
$LN104@GetDiffBlo:
  00175	cc		 int	 3
_TEXT	ENDS
;	COMDAT text$x
text$x	SEGMENT
__unwindfunclet$?GetDiffBlocks@CGuildMarkImage@@QAEXPBKAAV?$map@EPBUSGuildMarkBlock@@U?$less@E@std@@V?$allocator@U?$pair@$$CBEPBUSGuildMarkBlock@@@std@@@3@@std@@@Z$2:
  00000	8d 4d d4	 lea	 ecx, DWORD PTR $T5[ebp]
  00003	e9 00 00 00 00	 jmp	 ??1?$_Alloc_construct_ptr@V?$allocator@U?$_Tree_node@U?$pair@$$CBEPBUSGuildMarkBlock@@@std@@PAX@std@@@std@@@std@@QAE@XZ ; std::_Alloc_construct_ptr<std::allocator<std::_Tree_node<std::pair<unsigned char const ,SGuildMarkBlock const *>,void *> > >::~_Alloc_construct_ptr<std::allocator<std::_Tree_node<std::pair<unsigned char const ,SGuildMarkBlock const *>,void *> > >
  00008	cc		 int	 3
  00009	cc		 int	 3
  0000a	cc		 int	 3
  0000b	cc		 int	 3
  0000c	cc		 int	 3
__ehhandler$?GetDiffBlocks@CGuildMarkImage@@QAEXPBKAAV?$map@EPBUSGuildMarkBlock@@U?$less@E@std@@V?$allocator@U?$pair@$$CBEPBUSGuildMarkBlock@@@std@@@3@@std@@@Z:
  0000d	90		 npad	 1
  0000e	90		 npad	 1
  0000f	8b 54 24 08	 mov	 edx, DWORD PTR [esp+8]
  00013	8d 42 0c	 lea	 eax, DWORD PTR [edx+12]
  00016	8b 4a c8	 mov	 ecx, DWORD PTR [edx-56]
  00019	33 c8		 xor	 ecx, eax
  0001b	e8 00 00 00 00	 call	 @__security_check_cookie@4
  00020	b8 00 00 00 00	 mov	 eax, OFFSET __ehfuncinfo$?GetDiffBlocks@CGuildMarkImage@@QAEXPBKAAV?$map@EPBUSGuildMarkBlock@@U?$less@E@std@@V?$allocator@U?$pair@$$CBEPBUSGuildMarkBlock@@@std@@@3@@std@@@Z
  00025	e9 00 00 00 00	 jmp	 ___CxxFrameHandler3
text$x	ENDS
?GetDiffBlocks@CGuildMarkImage@@QAEXPBKAAV?$map@EPBUSGuildMarkBlock@@U?$less@E@std@@V?$allocator@U?$pair@$$CBEPBUSGuildMarkBlock@@@std@@@3@@std@@@Z ENDP ; CGuildMarkImage::GetDiffBlocks
; Function compile flags: /Ogtp
; File D:\Metin2 Server Files\mainline\SRC_2014\Metin2Client\UserInterface\MarkImage.cpp
;	COMDAT ?GetBlockCRCList@CGuildMarkImage@@QAEXPAK@Z
_TEXT	SEGMENT
tv264 = -4						; size = 4
_crcList$ = 8						; size = 4
?GetBlockCRCList@CGuildMarkImage@@QAEXPAK@Z PROC	; CGuildMarkImage::GetBlockCRCList, COMDAT
; _this$ = ecx

; 259  : {

  00000	55		 push	 ebp
  00001	8b ec		 mov	 ebp, esp
  00003	51		 push	 ecx
  00004	53		 push	 ebx
  00005	56		 push	 esi
  00006	57		 push	 edi

; 260  : 	for (DWORD row = 0; row < BLOCK_ROW_COUNT; ++row)

  00007	8b 7d 08	 mov	 edi, DWORD PTR _crcList$[ebp]
  0000a	8d 71 04	 lea	 esi, DWORD PTR [ecx+4]
  0000d	c7 45 fc 0a 00
	00 00		 mov	 DWORD PTR tv264[ebp], 10 ; 0000000aH
$LL4@GetBlockCR:

; 261  : 		for (DWORD col = 0; col < BLOCK_COL_COUNT; ++col)

  00014	bb 08 00 00 00	 mov	 ebx, 8
  00019	0f 1f 80 00 00
	00 00		 npad	 7
$LL7@GetBlockCR:

; 262  : 			*(crcList++) = m_aakBlock[row][col].GetCRC();

  00020	8b ce		 mov	 ecx, esi
  00022	e8 00 00 00 00	 call	 ?GetCRC@SGuildMarkBlock@@QBEKXZ ; SGuildMarkBlock::GetCRC
  00027	89 07		 mov	 DWORD PTR [edi], eax
  00029	81 c6 4c 63 00
	00		 add	 esi, 25420		; 0000634cH
  0002f	83 c7 04	 add	 edi, 4
  00032	83 eb 01	 sub	 ebx, 1
  00035	75 e9		 jne	 SHORT $LL7@GetBlockCR

; 260  : 	for (DWORD row = 0; row < BLOCK_ROW_COUNT; ++row)

  00037	83 6d fc 01	 sub	 DWORD PTR tv264[ebp], 1
  0003b	75 d7		 jne	 SHORT $LL4@GetBlockCR

; 263  : }

  0003d	5f		 pop	 edi
  0003e	5e		 pop	 esi
  0003f	5b		 pop	 ebx
  00040	8b e5		 mov	 esp, ebp
  00042	5d		 pop	 ebp
  00043	c2 04 00	 ret	 4
?GetBlockCRCList@CGuildMarkImage@@QAEXPAK@Z ENDP	; CGuildMarkImage::GetBlockCRCList
_TEXT	ENDS
; Function compile flags: /Ogtp
; File D:\Metin2 Server Files\mainline\SRC_2014\Metin2Client\UserInterface\MarkImage.cpp
;	COMDAT ?GetEmptyPosition@CGuildMarkImage@@QAEKXZ
_TEXT	SEGMENT
_this$GSCopy$1$ = -776					; size = 4
_kMark$ = -772						; size = 768
__$ArrayPad$ = -4					; size = 4
?GetEmptyPosition@CGuildMarkImage@@QAEKXZ PROC		; CGuildMarkImage::GetEmptyPosition, COMDAT
; _this$ = ecx

; 225  : {

  00000	55		 push	 ebp
  00001	8b ec		 mov	 ebp, esp
  00003	81 ec 08 03 00
	00		 sub	 esp, 776		; 00000308H
  00009	a1 00 00 00 00	 mov	 eax, DWORD PTR ___security_cookie
  0000e	33 c5		 xor	 eax, ebp
  00010	89 45 fc	 mov	 DWORD PTR __$ArrayPad$[ebp], eax
  00013	53		 push	 ebx
  00014	56		 push	 esi
  00015	57		 push	 edi

; 226  : 	SGuildMark kMark;
; 227  : 
; 228  : 	for (DWORD row = 0; row < MARK_ROW_COUNT; ++row)

  00016	33 db		 xor	 ebx, ebx
  00018	89 8d f8 fc ff
	ff		 mov	 DWORD PTR _this$GSCopy$1$[ebp], ecx
  0001e	33 ff		 xor	 edi, edi
$LL4@GetEmptyPo:

; 229  : 	{
; 230  : 		for (DWORD col = 0; col < MARK_COL_COUNT; ++col)

  00020	33 f6		 xor	 esi, esi
$LL7@GetEmptyPo:

; 231  : 		{
; 232  : 			GetData(col * SGuildMark::WIDTH, row * SGuildMark::HEIGHT, SGuildMark::WIDTH, SGuildMark::HEIGHT, kMark.m_apxBuf);

  00022	8d 85 fc fc ff
	ff		 lea	 eax, DWORD PTR _kMark$[ebp]
  00028	50		 push	 eax
  00029	6a 0c		 push	 12			; 0000000cH
  0002b	6a 10		 push	 16			; 00000010H
  0002d	8b c6		 mov	 eax, esi
  0002f	57		 push	 edi
  00030	c1 e0 04	 shl	 eax, 4
  00033	50		 push	 eax
  00034	e8 00 00 00 00	 call	 ?GetData@CGuildMarkImage@@QAEXIIIIPAX@Z ; CGuildMarkImage::GetData

; 233  : 
; 234  : 			if (kMark.IsEmpty())

  00039	8d 8d fc fc ff
	ff		 lea	 ecx, DWORD PTR _kMark$[ebp]
  0003f	e8 00 00 00 00	 call	 ?IsEmpty@SGuildMark@@QAE_NXZ ; SGuildMark::IsEmpty
  00044	84 c0		 test	 al, al
  00046	75 2c		 jne	 SHORT $LN12@GetEmptyPo

; 229  : 	{
; 230  : 		for (DWORD col = 0; col < MARK_COL_COUNT; ++col)

  00048	8b 8d f8 fc ff
	ff		 mov	 ecx, DWORD PTR _this$GSCopy$1$[ebp]
  0004e	46		 inc	 esi
  0004f	83 fe 20	 cmp	 esi, 32			; 00000020H
  00052	72 ce		 jb	 SHORT $LL7@GetEmptyPo

; 226  : 	SGuildMark kMark;
; 227  : 
; 228  : 	for (DWORD row = 0; row < MARK_ROW_COUNT; ++row)

  00054	83 c7 0c	 add	 edi, 12			; 0000000cH
  00057	43		 inc	 ebx
  00058	81 ff e0 01 00
	00		 cmp	 edi, 480		; 000001e0H
  0005e	72 c0		 jb	 SHORT $LL4@GetEmptyPo

; 235  : 				return (row * MARK_COL_COUNT + col);
; 236  : 		}
; 237  : 	}
; 238  : 
; 239  : 	return INVALID_MARK_POSITION;
; 240  : }

  00060	5f		 pop	 edi
  00061	5e		 pop	 esi
  00062	83 c8 ff	 or	 eax, -1
  00065	5b		 pop	 ebx
  00066	8b 4d fc	 mov	 ecx, DWORD PTR __$ArrayPad$[ebp]
  00069	33 cd		 xor	 ecx, ebp
  0006b	e8 00 00 00 00	 call	 @__security_check_cookie@4
  00070	8b e5		 mov	 esp, ebp
  00072	5d		 pop	 ebp
  00073	c3		 ret	 0
$LN12@GetEmptyPo:
  00074	8b 4d fc	 mov	 ecx, DWORD PTR __$ArrayPad$[ebp]
  00077	c1 e3 05	 shl	 ebx, 5
  0007a	33 cd		 xor	 ecx, ebp
  0007c	5f		 pop	 edi
  0007d	8d 04 1e	 lea	 eax, DWORD PTR [esi+ebx]
  00080	5e		 pop	 esi
  00081	5b		 pop	 ebx
  00082	e8 00 00 00 00	 call	 @__security_check_cookie@4
  00087	8b e5		 mov	 esp, ebp
  00089	5d		 pop	 ebp
  0008a	c3		 ret	 0
?GetEmptyPosition@CGuildMarkImage@@QAEKXZ ENDP		; CGuildMarkImage::GetEmptyPosition
_TEXT	ENDS
; Function compile flags: /Ogtp
; File D:\Metin2 Server Files\mainline\SRC_2014\Metin2Client\UserInterface\MarkImage.cpp
;	COMDAT ?SaveBlockFromCompressedData@CGuildMarkImage@@QAE_NKPBEK@Z
_TEXT	SEGMENT
_pbComp$GSCopy$1$ = -12304				; size = 4
_this$GSCopy$1$ = -12300				; size = 4
_sizeBuf$ = -12296					; size = 4
_apxBuf$ = -12292					; size = 12288
__$ArrayPad$ = -4					; size = 4
_posBlock$ = 8						; size = 4
_pbComp$ = 12						; size = 4
_dwCompSize$ = 16					; size = 4
?SaveBlockFromCompressedData@CGuildMarkImage@@QAE_NKPBEK@Z PROC ; CGuildMarkImage::SaveBlockFromCompressedData, COMDAT
; _this$ = ecx

; 183  : {

  00000	55		 push	 ebp
  00001	8b ec		 mov	 ebp, esp
  00003	b8 10 30 00 00	 mov	 eax, 12304		; 00003010H
  00008	e8 00 00 00 00	 call	 __chkstk
  0000d	a1 00 00 00 00	 mov	 eax, DWORD PTR ___security_cookie
  00012	33 c5		 xor	 eax, ebp
  00014	89 45 fc	 mov	 DWORD PTR __$ArrayPad$[ebp], eax
  00017	56		 push	 esi
  00018	8b 75 0c	 mov	 esi, DWORD PTR _pbComp$[ebp]
  0001b	57		 push	 edi

; 184  : 	if (posBlock >= BLOCK_TOTAL_COUNT)

  0001c	8b 7d 08	 mov	 edi, DWORD PTR _posBlock$[ebp]
  0001f	89 8d f4 cf ff
	ff		 mov	 DWORD PTR _this$GSCopy$1$[ebp], ecx
  00025	89 b5 f0 cf ff
	ff		 mov	 DWORD PTR _pbComp$GSCopy$1$[ebp], esi
  0002b	83 ff 50	 cmp	 edi, 80			; 00000050H
  0002e	72 14		 jb	 SHORT $LN2@SaveBlockF

; 185  : 		return false;

  00030	5f		 pop	 edi
  00031	32 c0		 xor	 al, al

; 208  : 	return true;
; 209  : }

  00033	5e		 pop	 esi
  00034	8b 4d fc	 mov	 ecx, DWORD PTR __$ArrayPad$[ebp]
  00037	33 cd		 xor	 ecx, ebp
  00039	e8 00 00 00 00	 call	 @__security_check_cookie@4
  0003e	8b e5		 mov	 esp, ebp
  00040	5d		 pop	 ebp
  00041	c2 0c 00	 ret	 12			; 0000000cH
$LN2@SaveBlockF:

; 186  : 
; 187  : 	Pixel apxBuf[SGuildMarkBlock::SIZE];
; 188  : 	size_t sizeBuf = sizeof(apxBuf);
; 189  : 
; 190  : 	if (LZO_E_OK != lzo1x_decompress_safe(pbComp, dwCompSize, (BYTE *) apxBuf, (lzo_uint*) &sizeBuf, CLZO::Instance().GetWorkMemory()))

  00044	8b 0d 00 00 00
	00		 mov	 ecx, DWORD PTR ?ms_singleton@?$CSingleton@VCLZO@@@@0PAVCLZO@@A ; CSingleton<CLZO>::ms_singleton
  0004a	53		 push	 ebx
  0004b	c7 85 f8 cf ff
	ff 00 30 00 00	 mov	 DWORD PTR _sizeBuf$[ebp], 12288 ; 00003000H
  00055	e8 00 00 00 00	 call	 ?GetWorkMemory@CLZO@@QAEPAEXZ ; CLZO::GetWorkMemory
  0005a	8b 5d 10	 mov	 ebx, DWORD PTR _dwCompSize$[ebp]
  0005d	50		 push	 eax
  0005e	8d 85 f8 cf ff
	ff		 lea	 eax, DWORD PTR _sizeBuf$[ebp]
  00064	50		 push	 eax
  00065	8d 85 fc cf ff
	ff		 lea	 eax, DWORD PTR _apxBuf$[ebp]
  0006b	50		 push	 eax
  0006c	53		 push	 ebx
  0006d	56		 push	 esi
  0006e	e8 00 00 00 00	 call	 _lzo1x_decompress_safe
  00073	83 c4 14	 add	 esp, 20			; 00000014H
  00076	85 c0		 test	 eax, eax
  00078	74 23		 je	 SHORT $LN3@SaveBlockF

; 191  : 	{
; 192  : 		sys_err("CGuildMarkImage::CopyBlockFromCompressedData: cannot decompress, compressed size = %u", dwCompSize);

  0007a	53		 push	 ebx
  0007b	68 00 00 00 00	 push	 OFFSET ??_C@_0FG@IJMAAEIA@CGuildMarkImage?3?3CopyBlockFromC@
  00080	e8 00 00 00 00	 call	 ?TraceError@@YAXPBDZZ	; TraceError
  00085	83 c4 08	 add	 esp, 8

; 193  : 		return false;

  00088	32 c0		 xor	 al, al
  0008a	5b		 pop	 ebx
  0008b	5f		 pop	 edi

; 208  : 	return true;
; 209  : }

  0008c	5e		 pop	 esi
  0008d	8b 4d fc	 mov	 ecx, DWORD PTR __$ArrayPad$[ebp]
  00090	33 cd		 xor	 ecx, ebp
  00092	e8 00 00 00 00	 call	 @__security_check_cookie@4
  00097	8b e5		 mov	 esp, ebp
  00099	5d		 pop	 ebp
  0009a	c2 0c 00	 ret	 12			; 0000000cH
$LN3@SaveBlockF:

; 194  : 	}
; 195  : 
; 196  : 	if (sizeBuf != sizeof(apxBuf))

  0009d	8b 85 f8 cf ff
	ff		 mov	 eax, DWORD PTR _sizeBuf$[ebp]
  000a3	3d 00 30 00 00	 cmp	 eax, 12288		; 00003000H
  000a8	74 23		 je	 SHORT $LN4@SaveBlockF

; 197  : 	{
; 198  : 		sys_err("CGuildMarkImage::CopyBlockFromCompressedData: image corrupted, decompressed size = %u", sizeBuf);

  000aa	50		 push	 eax
  000ab	68 00 00 00 00	 push	 OFFSET ??_C@_0FG@JNKKBOCL@CGuildMarkImage?3?3CopyBlockFromC@
  000b0	e8 00 00 00 00	 call	 ?TraceError@@YAXPBDZZ	; TraceError
  000b5	83 c4 08	 add	 esp, 8

; 199  : 		return false;

  000b8	32 c0		 xor	 al, al
  000ba	5b		 pop	 ebx
  000bb	5f		 pop	 edi

; 208  : 	return true;
; 209  : }

  000bc	5e		 pop	 esi
  000bd	8b 4d fc	 mov	 ecx, DWORD PTR __$ArrayPad$[ebp]
  000c0	33 cd		 xor	 ecx, ebp
  000c2	e8 00 00 00 00	 call	 @__security_check_cookie@4
  000c7	8b e5		 mov	 esp, ebp
  000c9	5d		 pop	 ebp
  000ca	c2 0c 00	 ret	 12			; 0000000cH
$LN4@SaveBlockF:

; 200  : 	}
; 201  : 
; 202  : 	DWORD rowBlock = posBlock / BLOCK_COL_COUNT;
; 203  : 	DWORD colBlock = posBlock % BLOCK_COL_COUNT;
; 204  : 
; 205  : 	PutData(colBlock * SGuildMarkBlock::WIDTH, rowBlock * SGuildMarkBlock::HEIGHT, SGuildMarkBlock::WIDTH, SGuildMarkBlock::HEIGHT, apxBuf);

  000cd	8b 8d f4 cf ff
	ff		 mov	 ecx, DWORD PTR _this$GSCopy$1$[ebp]
  000d3	8d 85 fc cf ff
	ff		 lea	 eax, DWORD PTR _apxBuf$[ebp]
  000d9	50		 push	 eax
  000da	8b f7		 mov	 esi, edi
  000dc	83 e7 07	 and	 edi, 7
  000df	c1 ee 03	 shr	 esi, 3
  000e2	6a 30		 push	 48			; 00000030H
  000e4	6a 40		 push	 64			; 00000040H
  000e6	8d 04 76	 lea	 eax, DWORD PTR [esi+esi*2]
  000e9	c1 e0 04	 shl	 eax, 4
  000ec	50		 push	 eax
  000ed	8b c7		 mov	 eax, edi
  000ef	c1 e0 06	 shl	 eax, 6
  000f2	50		 push	 eax
  000f3	e8 00 00 00 00	 call	 ?PutData@CGuildMarkImage@@QAEXIIIIPAX@Z ; CGuildMarkImage::PutData

; 206  : 
; 207  : 	m_aakBlock[rowBlock][colBlock].CopyFrom(pbComp, dwCompSize, GetCRC32((const char *) apxBuf, sizeof(Pixel) * SGuildMarkBlock::SIZE));

  000f8	8d 85 fc cf ff
	ff		 lea	 eax, DWORD PTR _apxBuf$[ebp]
  000fe	68 00 30 00 00	 push	 12288			; 00003000H
  00103	50		 push	 eax
  00104	e8 00 00 00 00	 call	 ?GetCRC32@@YAKPBDI@Z	; GetCRC32
  00109	8b 8d f4 cf ff
	ff		 mov	 ecx, DWORD PTR _this$GSCopy$1$[ebp]
  0010f	83 c4 08	 add	 esp, 8
  00112	83 c1 04	 add	 ecx, 4
  00115	50		 push	 eax
  00116	8d 04 f7	 lea	 eax, DWORD PTR [edi+esi*8]
  00119	69 c0 4c 63 00
	00		 imul	 eax, eax, 25420
  0011f	53		 push	 ebx
  00120	ff b5 f0 cf ff
	ff		 push	 DWORD PTR _pbComp$GSCopy$1$[ebp]
  00126	03 c8		 add	 ecx, eax
  00128	e8 00 00 00 00	 call	 ?CopyFrom@SGuildMarkBlock@@QAEXPBEKK@Z ; SGuildMarkBlock::CopyFrom

; 208  : 	return true;
; 209  : }

  0012d	8b 4d fc	 mov	 ecx, DWORD PTR __$ArrayPad$[ebp]
  00130	b0 01		 mov	 al, 1
  00132	5b		 pop	 ebx
  00133	5f		 pop	 edi
  00134	33 cd		 xor	 ecx, ebp
  00136	5e		 pop	 esi
  00137	e8 00 00 00 00	 call	 @__security_check_cookie@4
  0013c	8b e5		 mov	 esp, ebp
  0013e	5d		 pop	 ebp
  0013f	c2 0c 00	 ret	 12			; 0000000cH
?SaveBlockFromCompressedData@CGuildMarkImage@@QAE_NKPBEK@Z ENDP ; CGuildMarkImage::SaveBlockFromCompressedData
_TEXT	ENDS
; Function compile flags: /Ogtp
; File D:\Metin2 Server Files\mainline\SRC_2014\Metin2Client\UserInterface\MarkImage.cpp
;	COMDAT ?DeleteMark@CGuildMarkImage@@QAE_NK@Z
_TEXT	SEGMENT
_image$ = -772						; size = 768
__$ArrayPad$ = -4					; size = 4
_posMark$ = 8						; size = 4
?DeleteMark@CGuildMarkImage@@QAE_NK@Z PROC		; CGuildMarkImage::DeleteMark, COMDAT
; _this$ = ecx

; 175  : {

  00000	55		 push	 ebp
  00001	8b ec		 mov	 ebp, esp
  00003	81 ec 04 03 00
	00		 sub	 esp, 772		; 00000304H
  00009	a1 00 00 00 00	 mov	 eax, DWORD PTR ___security_cookie
  0000e	33 c5		 xor	 eax, ebp
  00010	89 45 fc	 mov	 DWORD PTR __$ArrayPad$[ebp], eax
  00013	56		 push	 esi

; 176  : 	Pixel image[SGuildMark::SIZE];
; 177  : 	memset(&image, 0, sizeof(image));

  00014	68 00 03 00 00	 push	 768			; 00000300H
  00019	8d 85 fc fc ff
	ff		 lea	 eax, DWORD PTR _image$[ebp]
  0001f	8b f1		 mov	 esi, ecx
  00021	6a 00		 push	 0
  00023	50		 push	 eax
  00024	e8 00 00 00 00	 call	 _memset
  00029	83 c4 0c	 add	 esp, 12			; 0000000cH

; 178  : 	return SaveMark(posMark, (BYTE *) &image);

  0002c	8d 85 fc fc ff
	ff		 lea	 eax, DWORD PTR _image$[ebp]
  00032	8b ce		 mov	 ecx, esi
  00034	50		 push	 eax
  00035	ff 75 08	 push	 DWORD PTR _posMark$[ebp]
  00038	e8 00 00 00 00	 call	 ?SaveMark@CGuildMarkImage@@QAE_NKPAE@Z ; CGuildMarkImage::SaveMark

; 179  : }

  0003d	8b 4d fc	 mov	 ecx, DWORD PTR __$ArrayPad$[ebp]
  00040	33 cd		 xor	 ecx, ebp
  00042	5e		 pop	 esi
  00043	e8 00 00 00 00	 call	 @__security_check_cookie@4
  00048	8b e5		 mov	 esp, ebp
  0004a	5d		 pop	 ebp
  0004b	c2 04 00	 ret	 4
?DeleteMark@CGuildMarkImage@@QAE_NK@Z ENDP		; CGuildMarkImage::DeleteMark
_TEXT	ENDS
; Function compile flags: /Ogtp
; File D:\Metin2 Server Files\mainline\SRC_2014\Metin2Client\UserInterface\MarkImage.cpp
;	COMDAT ?SaveMark@CGuildMarkImage@@QAE_NKPAE@Z
_TEXT	SEGMENT
_colBlock$1$ = -12304					; size = 4
_this$GSCopy$1$ = -12300				; size = 4
_pbImage$GSCopy$1$ = -12296				; size = 4
_apxBuf$ = -12292					; size = 12288
__$ArrayPad$ = -4					; size = 4
_posMark$ = 8						; size = 4
_pbImage$ = 12						; size = 4
?SaveMark@CGuildMarkImage@@QAE_NKPAE@Z PROC		; CGuildMarkImage::SaveMark, COMDAT
; _this$ = ecx

; 150  : {

  00000	55		 push	 ebp
  00001	8b ec		 mov	 ebp, esp
  00003	b8 10 30 00 00	 mov	 eax, 12304		; 00003010H
  00008	e8 00 00 00 00	 call	 __chkstk
  0000d	a1 00 00 00 00	 mov	 eax, DWORD PTR ___security_cookie
  00012	33 c5		 xor	 eax, ebp
  00014	89 45 fc	 mov	 DWORD PTR __$ArrayPad$[ebp], eax

; 151  : 	if (posMark >= MARK_TOTAL_COUNT)

  00017	8b 55 08	 mov	 edx, DWORD PTR _posMark$[ebp]
  0001a	8b 45 0c	 mov	 eax, DWORD PTR _pbImage$[ebp]
  0001d	89 8d f4 cf ff
	ff		 mov	 DWORD PTR _this$GSCopy$1$[ebp], ecx
  00023	89 85 f8 cf ff
	ff		 mov	 DWORD PTR _pbImage$GSCopy$1$[ebp], eax
  00029	81 fa 00 05 00
	00		 cmp	 edx, 1280		; 00000500H
  0002f	72 20		 jb	 SHORT $LN2@SaveMark

; 152  : 	{
; 153  : 		sys_err("CGuildMarkImage::CopyMarkFromData: Invalid mark position %u", posMark);

  00031	52		 push	 edx
  00032	68 00 00 00 00	 push	 OFFSET ??_C@_0DM@NNKMJGHN@CGuildMarkImage?3?3CopyMarkFromDa@
  00037	e8 00 00 00 00	 call	 ?TraceError@@YAXPBDZZ	; TraceError
  0003c	83 c4 08	 add	 esp, 8

; 154  : 		return false;

  0003f	32 c0		 xor	 al, al

; 171  : 	return true;
; 172  : }

  00041	8b 4d fc	 mov	 ecx, DWORD PTR __$ArrayPad$[ebp]
  00044	33 cd		 xor	 ecx, ebp
  00046	e8 00 00 00 00	 call	 @__security_check_cookie@4
  0004b	8b e5		 mov	 esp, ebp
  0004d	5d		 pop	 ebp
  0004e	c2 08 00	 ret	 8
$LN2@SaveMark:
  00051	53		 push	 ebx
  00052	56		 push	 esi

; 155  : 	}
; 156  : 
; 157  : 	//    .
; 158  : 	DWORD colMark = posMark % MARK_COL_COUNT;
; 159  : 	DWORD rowMark = posMark / MARK_COL_COUNT;

  00053	8b da		 mov	 ebx, edx
  00055	8b c2		 mov	 eax, edx
  00057	57		 push	 edi
  00058	c1 eb 05	 shr	 ebx, 5
  0005b	83 e0 1f	 and	 eax, 31			; 0000001fH

; 160  : 
; 161  : 	printf("PutMark pos %u %ux%u\n", posMark, colMark * SGuildMark::WIDTH, rowMark * SGuildMark::HEIGHT);

  0005e	8b f0		 mov	 esi, eax
  00060	89 85 f0 cf ff
	ff		 mov	 DWORD PTR _colBlock$1$[ebp], eax
  00066	c1 e6 04	 shl	 esi, 4
  00069	8d 3c 5b	 lea	 edi, DWORD PTR [ebx+ebx*2]
  0006c	c1 e7 02	 shl	 edi, 2
  0006f	57		 push	 edi
  00070	56		 push	 esi
  00071	52		 push	 edx
  00072	68 00 00 00 00	 push	 OFFSET ??_C@_0BG@PFKANOHB@PutMark?5pos?5?$CFu?5?$CFux?$CFu?6@
  00077	e8 00 00 00 00	 call	 _printf
  0007c	83 c4 10	 add	 esp, 16			; 00000010H

; 162  : 	PutData(colMark * SGuildMark::WIDTH, rowMark * SGuildMark::HEIGHT, SGuildMark::WIDTH, SGuildMark::HEIGHT, pbImage);

  0007f	ff b5 f8 cf ff
	ff		 push	 DWORD PTR _pbImage$GSCopy$1$[ebp]
  00085	6a 0c		 push	 12			; 0000000cH
  00087	6a 10		 push	 16			; 00000010H
  00089	57		 push	 edi
  0008a	8b bd f4 cf ff
	ff		 mov	 edi, DWORD PTR _this$GSCopy$1$[ebp]
  00090	8b cf		 mov	 ecx, edi
  00092	56		 push	 esi
  00093	e8 00 00 00 00	 call	 ?PutData@CGuildMarkImage@@QAEXIIIIPAX@Z ; CGuildMarkImage::PutData

; 163  : 
; 164  : 	//    
; 165  : 	DWORD rowBlock = rowMark / SGuildMarkBlock::MARK_PER_BLOCK_HEIGHT;
; 166  : 	DWORD colBlock = colMark / SGuildMarkBlock::MARK_PER_BLOCK_WIDTH;

  00098	8b b5 f0 cf ff
	ff		 mov	 esi, DWORD PTR _colBlock$1$[ebp]

; 167  : 
; 168  : 	Pixel apxBuf[SGuildMarkBlock::SIZE];
; 169  : 	GetData(colBlock * SGuildMarkBlock::WIDTH, rowBlock * SGuildMarkBlock::HEIGHT, SGuildMarkBlock::WIDTH, SGuildMarkBlock::HEIGHT, apxBuf);

  0009e	8d 85 fc cf ff
	ff		 lea	 eax, DWORD PTR _apxBuf$[ebp]
  000a4	50		 push	 eax
  000a5	c1 eb 02	 shr	 ebx, 2
  000a8	8b cf		 mov	 ecx, edi
  000aa	6a 30		 push	 48			; 00000030H
  000ac	6a 40		 push	 64			; 00000040H
  000ae	c1 ee 02	 shr	 esi, 2
  000b1	8d 04 5b	 lea	 eax, DWORD PTR [ebx+ebx*2]
  000b4	c1 e0 04	 shl	 eax, 4
  000b7	50		 push	 eax
  000b8	8b c6		 mov	 eax, esi
  000ba	c1 e0 06	 shl	 eax, 6
  000bd	50		 push	 eax
  000be	e8 00 00 00 00	 call	 ?GetData@CGuildMarkImage@@QAEXIIIIPAX@Z ; CGuildMarkImage::GetData

; 170  : 	m_aakBlock[rowBlock][colBlock].Compress(apxBuf);

  000c3	8d 85 fc cf ff
	ff		 lea	 eax, DWORD PTR _apxBuf$[ebp]
  000c9	50		 push	 eax
  000ca	8d 04 de	 lea	 eax, DWORD PTR [esi+ebx*8]
  000cd	69 c0 4c 63 00
	00		 imul	 eax, eax, 25420
  000d3	8d 4f 04	 lea	 ecx, DWORD PTR [edi+4]
  000d6	03 c8		 add	 ecx, eax
  000d8	e8 00 00 00 00	 call	 ?Compress@SGuildMarkBlock@@QAEXPBK@Z ; SGuildMarkBlock::Compress

; 171  : 	return true;
; 172  : }

  000dd	8b 4d fc	 mov	 ecx, DWORD PTR __$ArrayPad$[ebp]
  000e0	b0 01		 mov	 al, 1
  000e2	5f		 pop	 edi
  000e3	5e		 pop	 esi
  000e4	33 cd		 xor	 ecx, ebp
  000e6	5b		 pop	 ebx
  000e7	e8 00 00 00 00	 call	 @__security_check_cookie@4
  000ec	8b e5		 mov	 esp, ebp
  000ee	5d		 pop	 ebp
  000ef	c2 08 00	 ret	 8
?SaveMark@CGuildMarkImage@@QAE_NKPAE@Z ENDP		; CGuildMarkImage::SaveMark
_TEXT	ENDS
; Function compile flags: /Ogtp
; File D:\Metin2 Server Files\mainline\SRC_2014\Metin2Client\UserInterface\MarkImage.cpp
;	COMDAT ?GetData@CGuildMarkImage@@QAEXIIIIPAX@Z
_TEXT	SEGMENT
_x$ = 8							; size = 4
_y$ = 12						; size = 4
_width$ = 16						; size = 4
_height$ = 20						; size = 4
_data$ = 24						; size = 4
?GetData@CGuildMarkImage@@QAEXIIIIPAX@Z PROC		; CGuildMarkImage::GetData, COMDAT
; _this$ = ecx

; 138  : {

  00000	55		 push	 ebp
  00001	8b ec		 mov	 ebp, esp

; 139  : 	ilBindImage(m_uImg);

  00003	ff b1 c4 07 5f
	00		 push	 DWORD PTR [ecx+6227908]
  00009	ff 15 00 00 00
	00		 call	 DWORD PTR __imp__ilBindImage@4

; 140  : 	ilCopyPixels(x, y, 0, width, height, 1, IL_BGRA, IL_UNSIGNED_BYTE, data);	

  0000f	ff 75 18	 push	 DWORD PTR _data$[ebp]
  00012	68 01 14 00 00	 push	 5121			; 00001401H
  00017	68 e1 80 00 00	 push	 32993			; 000080e1H
  0001c	6a 01		 push	 1
  0001e	ff 75 14	 push	 DWORD PTR _height$[ebp]
  00021	ff 75 10	 push	 DWORD PTR _width$[ebp]
  00024	6a 00		 push	 0
  00026	ff 75 0c	 push	 DWORD PTR _y$[ebp]
  00029	ff 75 08	 push	 DWORD PTR _x$[ebp]
  0002c	ff 15 00 00 00
	00		 call	 DWORD PTR __imp__ilCopyPixels@36

; 141  : }

  00032	5d		 pop	 ebp
  00033	c2 14 00	 ret	 20			; 00000014H
?GetData@CGuildMarkImage@@QAEXIIIIPAX@Z ENDP		; CGuildMarkImage::GetData
_TEXT	ENDS
; Function compile flags: /Ogtp
; File D:\Metin2 Server Files\mainline\SRC_2014\Metin2Client\UserInterface\MarkImage.cpp
;	COMDAT ?PutData@CGuildMarkImage@@QAEXIIIIPAX@Z
_TEXT	SEGMENT
_x$ = 8							; size = 4
_y$ = 12						; size = 4
_width$ = 16						; size = 4
_height$ = 20						; size = 4
_data$ = 24						; size = 4
?PutData@CGuildMarkImage@@QAEXIIIIPAX@Z PROC		; CGuildMarkImage::PutData, COMDAT
; _this$ = ecx

; 132  : {

  00000	55		 push	 ebp
  00001	8b ec		 mov	 ebp, esp

; 133  : 	ilBindImage(m_uImg);

  00003	ff b1 c4 07 5f
	00		 push	 DWORD PTR [ecx+6227908]
  00009	ff 15 00 00 00
	00		 call	 DWORD PTR __imp__ilBindImage@4

; 134  : 	ilSetPixels(x, y, 0, width, height, 1, IL_BGRA, IL_UNSIGNED_BYTE, data);

  0000f	ff 75 18	 push	 DWORD PTR _data$[ebp]
  00012	68 01 14 00 00	 push	 5121			; 00001401H
  00017	68 e1 80 00 00	 push	 32993			; 000080e1H
  0001c	6a 01		 push	 1
  0001e	ff 75 14	 push	 DWORD PTR _height$[ebp]
  00021	ff 75 10	 push	 DWORD PTR _width$[ebp]
  00024	6a 00		 push	 0
  00026	ff 75 0c	 push	 DWORD PTR _y$[ebp]
  00029	ff 75 08	 push	 DWORD PTR _x$[ebp]
  0002c	ff 15 00 00 00
	00		 call	 DWORD PTR __imp__ilSetPixels@36

; 135  : }

  00032	5d		 pop	 ebp
  00033	c2 14 00	 ret	 20			; 00000014H
?PutData@CGuildMarkImage@@QAEXIIIIPAX@Z ENDP		; CGuildMarkImage::PutData
_TEXT	ENDS
; Function compile flags: /Ogtp
; File D:\Metin2 Server Files\mainline\SRC_2014\Metin2Client\UserInterface\MarkImage.cpp
;	COMDAT ?Load@CGuildMarkImage@@QAE_NPBD@Z
_TEXT	SEGMENT
_c_szFileName$ = 8					; size = 4
?Load@CGuildMarkImage@@QAE_NPBD@Z PROC			; CGuildMarkImage::Load, COMDAT
; _this$ = ecx

; 94   : {

  00000	55		 push	 ebp
  00001	8b ec		 mov	 ebp, esp
  00003	56		 push	 esi
  00004	57		 push	 edi
  00005	8b f9		 mov	 edi, ecx

; 95   : 	Destroy();

  00007	e8 00 00 00 00	 call	 ?Destroy@CGuildMarkImage@@QAEXXZ ; CGuildMarkImage::Destroy

; 96   : 	Create();	

  0000c	8b cf		 mov	 ecx, edi
  0000e	e8 00 00 00 00	 call	 ?Create@CGuildMarkImage@@QAEXXZ ; CGuildMarkImage::Create

; 97   : 
; 98   : 	ilBindImage(m_uImg);

  00013	ff b7 c4 07 5f
	00		 push	 DWORD PTR [edi+6227908]
  00019	ff 15 00 00 00
	00		 call	 DWORD PTR __imp__ilBindImage@4

; 99   : 	ilEnable(IL_ORIGIN_SET);

  0001f	68 00 06 00 00	 push	 1536			; 00000600H
  00024	ff 15 00 00 00
	00		 call	 DWORD PTR __imp__ilEnable@4

; 100  : 	ilOriginFunc(IL_ORIGIN_UPPER_LEFT);

  0002a	68 02 06 00 00	 push	 1538			; 00000602H
  0002f	ff 15 00 00 00
	00		 call	 DWORD PTR __imp__ilOriginFunc@4

; 101  : 
; 102  : 	if (!ilLoad(IL_TYPE_UNKNOWN, (const ILstring) c_szFileName))

  00035	8b 75 08	 mov	 esi, DWORD PTR _c_szFileName$[ebp]
  00038	56		 push	 esi
  00039	6a 00		 push	 0
  0003b	ff 15 00 00 00
	00		 call	 DWORD PTR __imp__ilLoad@8
  00041	84 c0		 test	 al, al
  00043	75 2a		 jne	 SHORT $LN3@Load

; 103  : 	{
; 104  : 		Build(c_szFileName);

  00045	56		 push	 esi
  00046	8b cf		 mov	 ecx, edi
  00048	e8 00 00 00 00	 call	 ?Build@CGuildMarkImage@@QAE_NPBD@Z ; CGuildMarkImage::Build

; 105  : 		
; 106  : 		if (!Load(c_szFileName))

  0004d	56		 push	 esi
  0004e	8b cf		 mov	 ecx, edi
  00050	e8 00 00 00 00	 call	 ?Load@CGuildMarkImage@@QAE_NPBD@Z ; CGuildMarkImage::Load
  00055	84 c0		 test	 al, al
  00057	75 16		 jne	 SHORT $LN3@Load

; 107  : 		{
; 108  : 			sys_err("CGuildMarkImage: cannot open file for writing %s", c_szFileName);

  00059	56		 push	 esi
  0005a	68 00 00 00 00	 push	 OFFSET ??_C@_0DB@LCKJIDBG@CGuildMarkImage?3?5cannot?5open?5fi@
  0005f	e8 00 00 00 00	 call	 ?TraceError@@YAXPBDZZ	; TraceError
  00064	83 c4 08	 add	 esp, 8

; 109  : 			return false;

  00067	32 c0		 xor	 al, al
  00069	5f		 pop	 edi

; 129  : }

  0006a	5e		 pop	 esi
  0006b	5d		 pop	 ebp
  0006c	c2 04 00	 ret	 4
$LN3@Load:

; 110  : 		}
; 111  : 	}
; 112  : 
; 113  : 	if (ilGetInteger(IL_IMAGE_WIDTH) != WIDTH)	

  0006f	68 e4 0d 00 00	 push	 3556			; 00000de4H
  00074	ff 15 00 00 00
	00		 call	 DWORD PTR __imp__ilGetInteger@4
  0007a	3d 00 02 00 00	 cmp	 eax, 512		; 00000200H
  0007f	74 1b		 je	 SHORT $LN4@Load

; 114  : 	{
; 115  : 		sys_err("CGuildMarkImage: %s width must be %u", c_szFileName, WIDTH);

  00081	68 00 02 00 00	 push	 512			; 00000200H
  00086	56		 push	 esi
  00087	68 00 00 00 00	 push	 OFFSET ??_C@_0CF@POGBMAHP@CGuildMarkImage?3?5?$CFs?5width?5must?5@
  0008c	e8 00 00 00 00	 call	 ?TraceError@@YAXPBDZZ	; TraceError
  00091	83 c4 0c	 add	 esp, 12			; 0000000cH

; 116  : 		return false;

  00094	32 c0		 xor	 al, al
  00096	5f		 pop	 edi

; 129  : }

  00097	5e		 pop	 esi
  00098	5d		 pop	 ebp
  00099	c2 04 00	 ret	 4
$LN4@Load:

; 117  : 	}
; 118  : 
; 119  : 	if (ilGetInteger(IL_IMAGE_HEIGHT) != HEIGHT)

  0009c	68 e5 0d 00 00	 push	 3557			; 00000de5H
  000a1	ff 15 00 00 00
	00		 call	 DWORD PTR __imp__ilGetInteger@4
  000a7	3d 00 02 00 00	 cmp	 eax, 512		; 00000200H
  000ac	74 1b		 je	 SHORT $LN5@Load

; 120  : 	{
; 121  : 		sys_err("CGuildMarkImage: %s height must be %u", c_szFileName, HEIGHT);

  000ae	68 00 02 00 00	 push	 512			; 00000200H
  000b3	56		 push	 esi
  000b4	68 00 00 00 00	 push	 OFFSET ??_C@_0CG@ENKENEAG@CGuildMarkImage?3?5?$CFs?5height?5must@
  000b9	e8 00 00 00 00	 call	 ?TraceError@@YAXPBDZZ	; TraceError
  000be	83 c4 0c	 add	 esp, 12			; 0000000cH

; 122  : 		return false;

  000c1	32 c0		 xor	 al, al
  000c3	5f		 pop	 edi

; 129  : }

  000c4	5e		 pop	 esi
  000c5	5d		 pop	 ebp
  000c6	c2 04 00	 ret	 4
$LN5@Load:

; 123  : 	}
; 124  : 
; 125  : 	ilConvertImage(IL_BGRA, IL_UNSIGNED_BYTE);

  000c9	68 01 14 00 00	 push	 5121			; 00001401H
  000ce	68 e1 80 00 00	 push	 32993			; 000080e1H
  000d3	ff 15 00 00 00
	00		 call	 DWORD PTR __imp__ilConvertImage@8

; 126  : 
; 127  : 	BuildAllBlocks();

  000d9	8b cf		 mov	 ecx, edi
  000db	e8 00 00 00 00	 call	 ?BuildAllBlocks@CGuildMarkImage@@AAEXXZ ; CGuildMarkImage::BuildAllBlocks
  000e0	5f		 pop	 edi

; 128  : 	return true;

  000e1	b0 01		 mov	 al, 1

; 129  : }

  000e3	5e		 pop	 esi
  000e4	5d		 pop	 ebp
  000e5	c2 04 00	 ret	 4
?Load@CGuildMarkImage@@QAE_NPBD@Z ENDP			; CGuildMarkImage::Load
_TEXT	ENDS
; Function compile flags: /Ogtp
; File D:\Metin2 Server Files\mainline\SRC_2014\Metin2Client\UserInterface\MarkImage.cpp
;	COMDAT ?Save@CGuildMarkImage@@QAE_NPBD@Z
_TEXT	SEGMENT
_c_szFileName$ = 8					; size = 4
?Save@CGuildMarkImage@@QAE_NPBD@Z PROC			; CGuildMarkImage::Save, COMDAT
; _this$ = ecx

; 55   : {

  00000	55		 push	 ebp
  00001	8b ec		 mov	 ebp, esp
  00003	56		 push	 esi

; 56   : 	ilEnable(IL_FILE_OVERWRITE);

  00004	68 20 06 00 00	 push	 1568			; 00000620H
  00009	8b f1		 mov	 esi, ecx
  0000b	ff 15 00 00 00
	00		 call	 DWORD PTR __imp__ilEnable@4

; 57   : 	ilBindImage(m_uImg);

  00011	ff b6 c4 07 5f
	00		 push	 DWORD PTR [esi+6227908]
  00017	ff 15 00 00 00
	00		 call	 DWORD PTR __imp__ilBindImage@4

; 58   : 
; 59   : 	if (!ilSave(IL_TGA, (const ILstring)c_szFileName))

  0001d	ff 75 08	 push	 DWORD PTR _c_szFileName$[ebp]
  00020	68 2d 04 00 00	 push	 1069			; 0000042dH
  00025	ff 15 00 00 00
	00		 call	 DWORD PTR __imp__ilSave@8
  0002b	84 c0		 test	 al, al
  0002d	5e		 pop	 esi
  0002e	0f 95 c0	 setne	 al

; 60   : 		return false;
; 61   : 
; 62   : 	return true;
; 63   : }

  00031	5d		 pop	 ebp
  00032	c2 04 00	 ret	 4
?Save@CGuildMarkImage@@QAE_NPBD@Z ENDP			; CGuildMarkImage::Save
_TEXT	ENDS
; Function compile flags: /Ogtp
; File D:\Metin2 Server Files\mainline\SRC_2014\Metin2Client\UserInterface\MarkImage.cpp
;	COMDAT ?Build@CGuildMarkImage@@QAE_NPBD@Z
_TEXT	SEGMENT
_c_szFileName$ = 8					; size = 4
?Build@CGuildMarkImage@@QAE_NPBD@Z PROC			; CGuildMarkImage::Build, COMDAT
; _this$ = ecx

; 66   : {

  00000	55		 push	 ebp
  00001	8b ec		 mov	 ebp, esp
  00003	56		 push	 esi
  00004	8b f1		 mov	 esi, ecx

; 67   : 	Destroy();

  00006	e8 00 00 00 00	 call	 ?Destroy@CGuildMarkImage@@QAEXXZ ; CGuildMarkImage::Destroy

; 68   : 	Create();

  0000b	8b ce		 mov	 ecx, esi
  0000d	e8 00 00 00 00	 call	 ?Create@CGuildMarkImage@@QAEXXZ ; CGuildMarkImage::Create

; 69   : 
; 70   : 	ilBindImage(m_uImg);

  00012	ff b6 c4 07 5f
	00		 push	 DWORD PTR [esi+6227908]
  00018	ff 15 00 00 00
	00		 call	 DWORD PTR __imp__ilBindImage@4

; 71   : 	ilEnable(IL_ORIGIN_SET);

  0001e	68 00 06 00 00	 push	 1536			; 00000600H
  00023	ff 15 00 00 00
	00		 call	 DWORD PTR __imp__ilEnable@4

; 72   : 	ilOriginFunc(IL_ORIGIN_UPPER_LEFT);

  00029	68 02 06 00 00	 push	 1538			; 00000602H
  0002e	ff 15 00 00 00
	00		 call	 DWORD PTR __imp__ilOriginFunc@4

; 73   : 
; 74   : 	BYTE * data = (BYTE *) malloc(sizeof(Pixel) * WIDTH * HEIGHT);

  00034	68 00 00 10 00	 push	 1048576			; 00100000H
  00039	e8 00 00 00 00	 call	 _malloc

; 75   : 	memset(data, 0, sizeof(Pixel) * WIDTH * HEIGHT);

  0003e	68 00 00 10 00	 push	 1048576			; 00100000H
  00043	8b f0		 mov	 esi, eax
  00045	6a 00		 push	 0
  00047	56		 push	 esi
  00048	e8 00 00 00 00	 call	 _memset
  0004d	83 c4 10	 add	 esp, 16			; 00000010H

; 76   : 
; 77   : 	if (!ilTexImage(WIDTH, HEIGHT, 1, 4, IL_BGRA, IL_UNSIGNED_BYTE, data))

  00050	56		 push	 esi
  00051	68 01 14 00 00	 push	 5121			; 00001401H
  00056	68 e1 80 00 00	 push	 32993			; 000080e1H
  0005b	6a 04		 push	 4
  0005d	6a 01		 push	 1
  0005f	68 00 02 00 00	 push	 512			; 00000200H
  00064	68 00 02 00 00	 push	 512			; 00000200H
  00069	ff 15 00 00 00
	00		 call	 DWORD PTR __imp__ilTexImage@28
  0006f	84 c0		 test	 al, al
  00071	75 14		 jne	 SHORT $LN2@Build

; 78   : 	{
; 79   : 		sys_err("CGuildMarkImage: cannot initialize image");

  00073	68 00 00 00 00	 push	 OFFSET ??_C@_0CJ@CFLIGMKO@CGuildMarkImage?3?5cannot?5initial@
  00078	e8 00 00 00 00	 call	 ?TraceError@@YAXPBDZZ	; TraceError
  0007d	83 c4 04	 add	 esp, 4

; 80   : 		return false;

  00080	32 c0		 xor	 al, al
  00082	5e		 pop	 esi

; 88   : 		return false;
; 89   : 
; 90   : 	return true;
; 91   : }

  00083	5d		 pop	 ebp
  00084	c2 04 00	 ret	 4
$LN2@Build:

; 81   : 	}
; 82   : 
; 83   : 	free(data);

  00087	56		 push	 esi
  00088	e8 00 00 00 00	 call	 _free
  0008d	83 c4 04	 add	 esp, 4

; 84   : 
; 85   : 	ilEnable(IL_FILE_OVERWRITE);

  00090	68 20 06 00 00	 push	 1568			; 00000620H
  00095	ff 15 00 00 00
	00		 call	 DWORD PTR __imp__ilEnable@4

; 86   : 
; 87   : 	if (!ilSave(IL_TGA, (const ILstring)c_szFileName))

  0009b	ff 75 08	 push	 DWORD PTR _c_szFileName$[ebp]
  0009e	68 2d 04 00 00	 push	 1069			; 0000042dH
  000a3	ff 15 00 00 00
	00		 call	 DWORD PTR __imp__ilSave@8
  000a9	84 c0		 test	 al, al
  000ab	5e		 pop	 esi
  000ac	0f 95 c0	 setne	 al

; 88   : 		return false;
; 89   : 
; 90   : 	return true;
; 91   : }

  000af	5d		 pop	 ebp
  000b0	c2 04 00	 ret	 4
?Build@CGuildMarkImage@@QAE_NPBD@Z ENDP			; CGuildMarkImage::Build
_TEXT	ENDS
; Function compile flags: /Ogtp
; File D:\Metin2 Server Files\mainline\SRC_2014\Metin2Client\UserInterface\MarkImage.cpp
;	COMDAT ?Destroy@CGuildMarkImage@@QAEXXZ
_TEXT	SEGMENT
?Destroy@CGuildMarkImage@@QAEXXZ PROC			; CGuildMarkImage::Destroy, COMDAT
; _this$ = ecx

; 39   : 	if (INVALID_HANDLE == m_uImg)

  00000	83 b9 c4 07 5f
	00 ff		 cmp	 DWORD PTR [ecx+6227908], -1
  00007	56		 push	 esi
  00008	8d b1 c4 07 5f
	00		 lea	 esi, DWORD PTR [ecx+6227908]
  0000e	74 0f		 je	 SHORT $LN1@Destroy

; 40   : 		return;
; 41   : 
; 42   : 	ilDeleteImages(1, &m_uImg);

  00010	56		 push	 esi
  00011	6a 01		 push	 1
  00013	ff 15 00 00 00
	00		 call	 DWORD PTR __imp__ilDeleteImages@8

; 43   : 	m_uImg = INVALID_HANDLE;

  00019	c7 06 ff ff ff
	ff		 mov	 DWORD PTR [esi], -1
$LN1@Destroy:

; 44   : }

  0001f	5e		 pop	 esi
  00020	c3		 ret	 0
?Destroy@CGuildMarkImage@@QAEXXZ ENDP			; CGuildMarkImage::Destroy
_TEXT	ENDS
; Function compile flags: /Ogtp
; File D:\Metin2 Server Files\mainline\SRC_2014\Metin2Client\UserInterface\MarkImage.cpp
;	COMDAT ?Create@CGuildMarkImage@@QAEXXZ
_TEXT	SEGMENT
?Create@CGuildMarkImage@@QAEXXZ PROC			; CGuildMarkImage::Create, COMDAT
; _this$ = ecx

; 48   : 	if (INVALID_HANDLE != m_uImg)

  00000	81 c1 c4 07 5f
	00		 add	 ecx, 6227908		; 005f07c4H
  00006	83 39 ff	 cmp	 DWORD PTR [ecx], -1
  00009	75 09		 jne	 SHORT $LN1@Create

; 49   : 		return;
; 50   : 
; 51   : 	ilGenImages(1, &m_uImg);

  0000b	51		 push	 ecx
  0000c	6a 01		 push	 1
  0000e	ff 15 00 00 00
	00		 call	 DWORD PTR __imp__ilGenImages@8
$LN1@Create:

; 52   : }

  00014	c3		 ret	 0
?Create@CGuildMarkImage@@QAEXXZ ENDP			; CGuildMarkImage::Create
_TEXT	ENDS
; Function compile flags: /Ogtp
; File D:\Metin2 Server Files\mainline\SRC_2014\Metin2Client\UserInterface\MarkImage.cpp
;	COMDAT ??1CGuildMarkImage@@UAE@XZ
_TEXT	SEGMENT
??1CGuildMarkImage@@UAE@XZ PROC				; CGuildMarkImage::~CGuildMarkImage, COMDAT
; _this$ = ecx

; 33   : {

  00000	c7 01 00 00 00
	00		 mov	 DWORD PTR [ecx], OFFSET ??_7CGuildMarkImage@@6B@

; 34   : 	Destroy();

  00006	e9 00 00 00 00	 jmp	 ?Destroy@CGuildMarkImage@@QAEXXZ ; CGuildMarkImage::Destroy
??1CGuildMarkImage@@UAE@XZ ENDP				; CGuildMarkImage::~CGuildMarkImage
_TEXT	ENDS
; Function compile flags: /Ogtp
; File D:\Metin2 Server Files\mainline\SRC_2014\Metin2Client\UserInterface\MarkImage.cpp
;	COMDAT ??0CGuildMarkImage@@QAE@XZ
_TEXT	SEGMENT
??0CGuildMarkImage@@QAE@XZ PROC				; CGuildMarkImage::CGuildMarkImage, COMDAT
; _this$ = ecx

; 28   : {

  00000	c7 01 00 00 00
	00		 mov	 DWORD PTR [ecx], OFFSET ??_7CGuildMarkImage@@6B@

; 29   : 	m_uImg = INVALID_HANDLE;
; 30   : }

  00006	8b c1		 mov	 eax, ecx
  00008	c7 81 c4 07 5f
	00 ff ff ff ff	 mov	 DWORD PTR [ecx+6227908], -1
  00012	c3		 ret	 0
??0CGuildMarkImage@@QAE@XZ ENDP				; CGuildMarkImage::CGuildMarkImage
_TEXT	ENDS
; Function compile flags: /Ogtp
; File D:\Metin2 Server Files\mainline\SRC_2014\Metin2Client\UserInterface\MarkImage.cpp
;	COMDAT ?Compress@SGuildMarkBlock@@QAEXPBK@Z
_TEXT	SEGMENT
_pxBuf$ = 8						; size = 4
?Compress@SGuildMarkBlock@@QAEXPBK@Z PROC		; SGuildMarkBlock::Compress, COMDAT
; _this$ = ecx

; 299  : {

  00000	55		 push	 ebp
  00001	8b ec		 mov	 ebp, esp
  00003	56		 push	 esi
  00004	57		 push	 edi
  00005	8b f9		 mov	 edi, ecx

; 300  : 	m_sizeCompBuf = MAX_COMP_SIZE;

  00007	8d b7 44 63 00
	00		 lea	 esi, DWORD PTR [edi+25412]
  0000d	c7 06 43 33 00
	00		 mov	 DWORD PTR [esi], 13123	; 00003343H

; 301  : 
; 302  : 	if (LZO_E_OK != lzo1x_999_compress((const BYTE *) pxBuf,

  00013	8b 0d 00 00 00
	00		 mov	 ecx, DWORD PTR ?ms_singleton@?$CSingleton@VCLZO@@@@0PAVCLZO@@A ; CSingleton<CLZO>::ms_singleton
  00019	e8 00 00 00 00	 call	 ?GetWorkMemory@CLZO@@QAEPAEXZ ; CLZO::GetWorkMemory
  0001e	50		 push	 eax
  0001f	56		 push	 esi
  00020	8d 87 00 30 00
	00		 lea	 eax, DWORD PTR [edi+12288]
  00026	50		 push	 eax
  00027	68 00 30 00 00	 push	 12288			; 00003000H
  0002c	ff 75 08	 push	 DWORD PTR _pxBuf$[ebp]
  0002f	e8 00 00 00 00	 call	 _lzo1x_999_compress
  00034	83 c4 14	 add	 esp, 20			; 00000014H
  00037	85 c0		 test	 eax, eax
  00039	74 1a		 je	 SHORT $LN2@Compress

; 303  : 		sizeof(Pixel) * SGuildMarkBlock::SIZE, m_abCompBuf,
; 304  : 		(lzo_uint*) &m_sizeCompBuf,
; 305  : 		CLZO::Instance().GetWorkMemory()))
; 306  : 	{
; 307  : 		sys_err("SGuildMarkBlock::Compress: Error! %u > %u", sizeof(Pixel) * SGuildMarkBlock::SIZE, m_sizeCompBuf);

  0003b	ff 36		 push	 DWORD PTR [esi]
  0003d	68 00 30 00 00	 push	 12288			; 00003000H
  00042	68 00 00 00 00	 push	 OFFSET ??_C@_0CK@BGEKGKPD@SGuildMarkBlock?3?3Compress?3?5Erro@
  00047	e8 00 00 00 00	 call	 ?TraceError@@YAXPBDZZ	; TraceError
  0004c	83 c4 0c	 add	 esp, 12			; 0000000cH
  0004f	5f		 pop	 edi

; 313  : }

  00050	5e		 pop	 esi
  00051	5d		 pop	 ebp
  00052	c2 04 00	 ret	 4
$LN2@Compress:

; 308  : 		return;
; 309  : 	}
; 310  : 
; 311  : 	//sys_log(0, "SGuildMarkBlock::Compress %u > %u", sizeof(Pixel) * SGuildMarkBlock::SIZE, m_sizeCompBuf);
; 312  : 	m_crc = GetCRC32((const char *) pxBuf, sizeof(Pixel) * SGuildMarkBlock::SIZE);

  00055	68 00 30 00 00	 push	 12288			; 00003000H
  0005a	ff 75 08	 push	 DWORD PTR _pxBuf$[ebp]
  0005d	e8 00 00 00 00	 call	 ?GetCRC32@@YAKPBDI@Z	; GetCRC32
  00062	83 c4 08	 add	 esp, 8
  00065	89 87 48 63 00
	00		 mov	 DWORD PTR [edi+25416], eax
  0006b	5f		 pop	 edi

; 313  : }

  0006c	5e		 pop	 esi
  0006d	5d		 pop	 ebp
  0006e	c2 04 00	 ret	 4
?Compress@SGuildMarkBlock@@QAEXPBK@Z ENDP		; SGuildMarkBlock::Compress
_TEXT	ENDS
; Function compile flags: /Ogtp
; File D:\Metin2 Server Files\mainline\SRC_2014\Metin2Client\UserInterface\MarkImage.cpp
;	COMDAT ?CopyFrom@SGuildMarkBlock@@QAEXPBEKK@Z
_TEXT	SEGMENT
_pbCompBuf$ = 8						; size = 4
_dwCompSize$ = 12					; size = 4
_crc$ = 16						; size = 4
?CopyFrom@SGuildMarkBlock@@QAEXPBEKK@Z PROC		; SGuildMarkBlock::CopyFrom, COMDAT
; _this$ = ecx

; 288  : {

  00000	55		 push	 ebp
  00001	8b ec		 mov	 ebp, esp

; 289  : 	if (dwCompSize > MAX_COMP_SIZE)

  00003	8b 45 0c	 mov	 eax, DWORD PTR _dwCompSize$[ebp]
  00006	56		 push	 esi
  00007	8b f1		 mov	 esi, ecx
  00009	3d 43 33 00 00	 cmp	 eax, 13123		; 00003343H
  0000e	77 22		 ja	 SHORT $LN1@CopyFrom

; 290  : 		return;
; 291  : 
; 292  : 	m_sizeCompBuf = dwCompSize;
; 293  : 	thecore_memcpy(m_abCompBuf, pbCompBuf, dwCompSize);

  00010	50		 push	 eax
  00011	ff 75 08	 push	 DWORD PTR _pbCompBuf$[ebp]
  00014	89 86 44 63 00
	00		 mov	 DWORD PTR [esi+25412], eax
  0001a	8d 86 00 30 00
	00		 lea	 eax, DWORD PTR [esi+12288]
  00020	50		 push	 eax
  00021	e8 00 00 00 00	 call	 _memcpy

; 294  : 	m_crc = crc;

  00026	8b 45 10	 mov	 eax, DWORD PTR _crc$[ebp]
  00029	83 c4 0c	 add	 esp, 12			; 0000000cH
  0002c	89 86 48 63 00
	00		 mov	 DWORD PTR [esi+25416], eax
$LN1@CopyFrom:
  00032	5e		 pop	 esi

; 295  : 	//printf("SGuildMarkBlock::CopyFrom: %u > %u crc %u\n", sizeof(Pixel) * SGuildMarkBlock::SIZE, m_sizeCompBuf, m_crc);
; 296  : }

  00033	5d		 pop	 ebp
  00034	c2 0c 00	 ret	 12			; 0000000cH
?CopyFrom@SGuildMarkBlock@@QAEXPBEKK@Z ENDP		; SGuildMarkBlock::CopyFrom
_TEXT	ENDS
; Function compile flags: /Ogtp
; File D:\Metin2 Server Files\mainline\SRC_2014\Metin2Client\UserInterface\MarkImage.cpp
;	COMDAT ?GetCRC@SGuildMarkBlock@@QBEKXZ
_TEXT	SEGMENT
?GetCRC@SGuildMarkBlock@@QBEKXZ PROC			; SGuildMarkBlock::GetCRC, COMDAT
; _this$ = ecx

; 284  : 	return m_crc;

  00000	8b 81 48 63 00
	00		 mov	 eax, DWORD PTR [ecx+25416]

; 285  : }

  00006	c3		 ret	 0
?GetCRC@SGuildMarkBlock@@QBEKXZ ENDP			; SGuildMarkBlock::GetCRC
_TEXT	ENDS
; Function compile flags: /Ogtp
; File D:\Metin2 Server Files\mainline\SRC_2014\Metin2Client\UserInterface\MarkImage.cpp
;	COMDAT ?IsEmpty@SGuildMark@@QAE_NXZ
_TEXT	SEGMENT
?IsEmpty@SGuildMark@@QAE_NXZ PROC			; SGuildMark::IsEmpty, COMDAT
; _this$ = ecx

; 274  : 	for (DWORD iPixel = 0; iPixel < SIZE; ++iPixel)

  00000	33 c0		 xor	 eax, eax
$LL4@IsEmpty:

; 275  : 		if (m_apxBuf[iPixel] != 0x00000000)

  00002	83 3c 81 00	 cmp	 DWORD PTR [ecx+eax*4], 0
  00006	75 0b		 jne	 SHORT $LN8@IsEmpty

; 274  : 	for (DWORD iPixel = 0; iPixel < SIZE; ++iPixel)

  00008	40		 inc	 eax
  00009	3d c0 00 00 00	 cmp	 eax, 192		; 000000c0H
  0000e	72 f2		 jb	 SHORT $LL4@IsEmpty

; 277  : 
; 278  : 	return true;

  00010	b0 01		 mov	 al, 1

; 279  : }

  00012	c3		 ret	 0
$LN8@IsEmpty:

; 276  : 			return false;

  00013	32 c0		 xor	 al, al

; 279  : }

  00015	c3		 ret	 0
?IsEmpty@SGuildMark@@QAE_NXZ ENDP			; SGuildMark::IsEmpty
_TEXT	ENDS
; Function compile flags: /Ogtp
; File D:\Metin2 Server Files\mainline\SRC_2014\Metin2Client\UserInterface\MarkImage.cpp
;	COMDAT ?Clear@SGuildMark@@QAEXXZ
_TEXT	SEGMENT
?Clear@SGuildMark@@QAEXXZ PROC				; SGuildMark::Clear, COMDAT
; _this$ = ecx

; 267  : {

  00000	57		 push	 edi
  00001	8b f9		 mov	 edi, ecx

; 268  : 	for (DWORD iPixel = 0; iPixel < SIZE; ++iPixel)

  00003	b8 00 00 00 ff	 mov	 eax, -16777216		; ff000000H
  00008	b9 c0 00 00 00	 mov	 ecx, 192		; 000000c0H
  0000d	f3 ab		 rep stosd
  0000f	5f		 pop	 edi

; 269  : 		m_apxBuf[iPixel] = 0xff000000;	
; 270  : }

  00010	c3		 ret	 0
?Clear@SGuildMark@@QAEXXZ ENDP				; SGuildMark::Clear
_TEXT	ENDS
; Function compile flags: /Ogtp
; File C:\Program Files (x86)\Microsoft Visual Studio\2019\Community\VC\Tools\MSVC\14.28.29333\include\xmemory
;	COMDAT ??$_Allocate_manually_vector_aligned@U_Default_allocate_traits@std@@@std@@YAPAXI@Z
_TEXT	SEGMENT
__Bytes$ = 8						; size = 4
??$_Allocate_manually_vector_aligned@U_Default_allocate_traits@std@@@std@@YAPAXI@Z PROC ; std::_Allocate_manually_vector_aligned<std::_Default_allocate_traits>, COMDAT

; 113  : __declspec(allocator) void* _Allocate_manually_vector_aligned(const size_t _Bytes) {

  00000	55		 push	 ebp
  00001	8b ec		 mov	 ebp, esp

; 114  :     // allocate _Bytes manually aligned to at least _Big_allocation_alignment
; 115  :     const size_t _Block_size = _Non_user_size + _Bytes;

  00003	8b 45 08	 mov	 eax, DWORD PTR __Bytes$[ebp]
  00006	8d 48 23	 lea	 ecx, DWORD PTR [eax+35]

; 116  :     if (_Block_size <= _Bytes) {

  00009	3b c8		 cmp	 ecx, eax
  0000b	0f 86 00 00 00
	00		 jbe	 ?_Throw_bad_array_new_length@std@@YAXXZ ; std::_Throw_bad_array_new_length

; 77   :         return ::operator new(_Bytes);

  00011	51		 push	 ecx
  00012	e8 00 00 00 00	 call	 ??2@YAPAXI@Z		; operator new

; 117  :         _Throw_bad_array_new_length(); // add overflow
; 118  :     }
; 119  : 
; 120  :     const uintptr_t _Ptr_container = reinterpret_cast<uintptr_t>(_Traits::_Allocate(_Block_size));

  00017	8b c8		 mov	 ecx, eax

; 77   :         return ::operator new(_Bytes);

  00019	83 c4 04	 add	 esp, 4

; 121  :     _STL_VERIFY(_Ptr_container != 0, "invalid argument"); // validate even in release since we're doing p[-1]

  0001c	85 c9		 test	 ecx, ecx
  0001e	74 0b		 je	 SHORT $LN7@Allocate_m

; 122  :     void* const _Ptr = reinterpret_cast<void*>((_Ptr_container + _Non_user_size) & ~(_Big_allocation_alignment - 1));

  00020	8d 41 23	 lea	 eax, DWORD PTR [ecx+35]
  00023	83 e0 e0	 and	 eax, -32		; ffffffe0H

; 123  :     static_cast<uintptr_t*>(_Ptr)[-1] = _Ptr_container;

  00026	89 48 fc	 mov	 DWORD PTR [eax-4], ecx

; 124  : 
; 125  : #ifdef _DEBUG
; 126  :     static_cast<uintptr_t*>(_Ptr)[-2] = _Big_allocation_sentinel;
; 127  : #endif // _DEBUG
; 128  :     return _Ptr;
; 129  : }

  00029	5d		 pop	 ebp
  0002a	c3		 ret	 0
$LN7@Allocate_m:

; 121  :     _STL_VERIFY(_Ptr_container != 0, "invalid argument"); // validate even in release since we're doing p[-1]

  0002b	e9 00 00 00 00	 jmp	 __invalid_parameter_noinfo_noreturn
??$_Allocate_manually_vector_aligned@U_Default_allocate_traits@std@@@std@@YAPAXI@Z ENDP ; std::_Allocate_manually_vector_aligned<std::_Default_allocate_traits>
_TEXT	ENDS
; Function compile flags: /Ogtp
; File C:\Program Files (x86)\Microsoft Visual Studio\2019\Community\VC\Tools\MSVC\14.28.29333\include\xmemory
;	COMDAT ??$_Allocate@$07U_Default_allocate_traits@std@@$0A@@std@@YAPAXI@Z
_TEXT	SEGMENT
__Bytes$ = 8						; size = 4
??$_Allocate@$07U_Default_allocate_traits@std@@$0A@@std@@YAPAXI@Z PROC ; std::_Allocate<8,std::_Default_allocate_traits,0>, COMDAT

; 197  : __declspec(allocator) void* _Allocate(const size_t _Bytes) {

  00000	55		 push	 ebp
  00001	8b ec		 mov	 ebp, esp

; 198  :     // allocate _Bytes when !_HAS_ALIGNED_NEW || _Align <= __STDCPP_DEFAULT_NEW_ALIGNMENT__
; 199  : #if defined(_M_IX86) || defined(_M_X64)
; 200  :     if (_Bytes >= _Big_allocation_threshold) { // boost the alignment of big allocations to help autovectorization

  00003	8b 45 08	 mov	 eax, DWORD PTR __Bytes$[ebp]
  00006	3d 00 10 00 00	 cmp	 eax, 4096		; 00001000H
  0000b	72 09		 jb	 SHORT $LN2@Allocate

; 201  :         return _Allocate_manually_vector_aligned<_Traits>(_Bytes);

  0000d	89 45 08	 mov	 DWORD PTR __Bytes$[ebp], eax

; 210  : }

  00010	5d		 pop	 ebp

; 201  :         return _Allocate_manually_vector_aligned<_Traits>(_Bytes);

  00011	e9 00 00 00 00	 jmp	 ??$_Allocate_manually_vector_aligned@U_Default_allocate_traits@std@@@std@@YAPAXI@Z ; std::_Allocate_manually_vector_aligned<std::_Default_allocate_traits>
$LN2@Allocate:

; 202  :     }
; 203  : #endif // defined(_M_IX86) || defined(_M_X64)
; 204  : 
; 205  :     if (_Bytes != 0) {

  00016	85 c0		 test	 eax, eax
  00018	74 09		 je	 SHORT $LN3@Allocate

; 77   :         return ::operator new(_Bytes);

  0001a	89 45 08	 mov	 DWORD PTR __Bytes$[ebp], eax

; 210  : }

  0001d	5d		 pop	 ebp

; 77   :         return ::operator new(_Bytes);

  0001e	e9 00 00 00 00	 jmp	 ??2@YAPAXI@Z		; operator new
$LN3@Allocate:

; 206  :         return _Traits::_Allocate(_Bytes);
; 207  :     }
; 208  : 
; 209  :     return nullptr;

  00023	33 c0		 xor	 eax, eax

; 210  : }

  00025	5d		 pop	 ebp
  00026	c3		 ret	 0
??$_Allocate@$07U_Default_allocate_traits@std@@$0A@@std@@YAPAXI@Z ENDP ; std::_Allocate<8,std::_Default_allocate_traits,0>
_TEXT	ENDS
; Function compile flags: /Ogtp
; File C:\Program Files (x86)\Microsoft Visual Studio\2019\Community\VC\Tools\MSVC\14.28.29333\include\xmemory
;	COMDAT ??$_Deallocate@$07$0A@@std@@YAXPAXI@Z
_TEXT	SEGMENT
__Ptr$ = 8						; size = 4
__Bytes$ = 12						; size = 4
??$_Deallocate@$07$0A@@std@@YAXPAXI@Z PROC		; std::_Deallocate<8,0>, COMDAT

; 213  : void _Deallocate(void* _Ptr, size_t _Bytes) noexcept {

  00000	55		 push	 ebp
  00001	8b ec		 mov	 ebp, esp

; 214  :     // deallocate storage allocated by _Allocate when !_HAS_ALIGNED_NEW || _Align <= __STDCPP_DEFAULT_NEW_ALIGNMENT__
; 215  : #if defined(_M_IX86) || defined(_M_X64)
; 216  :     if (_Bytes >= _Big_allocation_threshold) { // boost the alignment of big allocations to help autovectorization

  00003	8b 4d 0c	 mov	 ecx, DWORD PTR __Bytes$[ebp]
  00006	81 f9 00 10 00
	00		 cmp	 ecx, 4096		; 00001000H
  0000c	72 18		 jb	 SHORT $LN15@Deallocate

; 137  :     const uintptr_t _Ptr_container   = _Ptr_user[-1];

  0000e	8b 45 08	 mov	 eax, DWORD PTR __Ptr$[ebp]
  00011	83 c1 23	 add	 ecx, 35			; 00000023H
  00014	8b 50 fc	 mov	 edx, DWORD PTR [eax-4]

; 138  : 
; 139  :     // If the following asserts, it likely means that we are performing
; 140  :     // an aligned delete on memory coming from an unaligned allocation.
; 141  :     _STL_ASSERT(_Ptr_user[-2] == _Big_allocation_sentinel, "invalid argument");
; 142  : 
; 143  :     // Extra paranoia on aligned allocation/deallocation; ensure _Ptr_container is
; 144  :     // in range [_Min_back_shift, _Non_user_size]
; 145  : #ifdef _DEBUG
; 146  :     constexpr uintptr_t _Min_back_shift = 2 * sizeof(void*);
; 147  : #else // ^^^ _DEBUG ^^^ // vvv !_DEBUG vvv
; 148  :     constexpr uintptr_t _Min_back_shift = sizeof(void*);
; 149  : #endif // _DEBUG
; 150  :     const uintptr_t _Back_shift = reinterpret_cast<uintptr_t>(_Ptr) - _Ptr_container;

  00017	2b c2		 sub	 eax, edx

; 151  :     _STL_VERIFY(_Back_shift >= _Min_back_shift && _Back_shift <= _Non_user_size, "invalid argument");

  00019	83 c0 fc	 add	 eax, -4			; fffffffcH
  0001c	83 f8 1f	 cmp	 eax, 31			; 0000001fH
  0001f	76 08		 jbe	 SHORT $LN13@Deallocate
  00021	e9 00 00 00 00	 jmp	 __invalid_parameter_noinfo_noreturn
$LN15@Deallocate:

; 214  :     // deallocate storage allocated by _Allocate when !_HAS_ALIGNED_NEW || _Align <= __STDCPP_DEFAULT_NEW_ALIGNMENT__
; 215  : #if defined(_M_IX86) || defined(_M_X64)
; 216  :     if (_Bytes >= _Big_allocation_threshold) { // boost the alignment of big allocations to help autovectorization

  00026	8b 55 08	 mov	 edx, DWORD PTR __Ptr$[ebp]
$LN13@Deallocate:

; 217  :         _Adjust_manually_vector_aligned(_Ptr, _Bytes);
; 218  :     }
; 219  : #endif // defined(_M_IX86) || defined(_M_X64)
; 220  : 
; 221  :     ::operator delete(_Ptr, _Bytes);

  00029	89 4d 0c	 mov	 DWORD PTR __Bytes$[ebp], ecx
  0002c	89 55 08	 mov	 DWORD PTR __Ptr$[ebp], edx

; 222  : }

  0002f	5d		 pop	 ebp

; 217  :         _Adjust_manually_vector_aligned(_Ptr, _Bytes);
; 218  :     }
; 219  : #endif // defined(_M_IX86) || defined(_M_X64)
; 220  : 
; 221  :     ::operator delete(_Ptr, _Bytes);

  00030	e9 00 00 00 00	 jmp	 ??3@YAXPAXI@Z		; operator delete
??$_Deallocate@$07$0A@@std@@YAXPAXI@Z ENDP		; std::_Deallocate<8,0>
_TEXT	ENDS
; Function compile flags: /Ogtp
; File C:\Program Files (x86)\Microsoft Visual Studio\2019\Community\VC\Tools\MSVC\14.28.29333\include\xtree
;	COMDAT ?_Throw_tree_length_error@std@@YAXXZ
_TEXT	SEGMENT
?_Throw_tree_length_error@std@@YAXXZ PROC		; std::_Throw_tree_length_error, COMDAT

; 415  :     _Xlength_error("map/set too long");

  00000	68 00 00 00 00	 push	 OFFSET ??_C@_0BB@GCADKGJO@map?1set?5too?5long@
  00005	e8 00 00 00 00	 call	 ?_Xlength_error@std@@YAXPBD@Z ; std::_Xlength_error
$LN3@Throw_tree:
  0000a	cc		 int	 3
?_Throw_tree_length_error@std@@YAXXZ ENDP		; std::_Throw_tree_length_error
_TEXT	ENDS
; Function compile flags: /Ogtp
; File C:\Program Files (x86)\Microsoft Visual Studio\2019\Community\VC\Tools\MSVC\14.28.29333\include\exception
;	COMDAT ?_Throw_bad_array_new_length@std@@YAXXZ
_TEXT	SEGMENT
$T1 = -12						; size = 12
?_Throw_bad_array_new_length@std@@YAXXZ PROC		; std::_Throw_bad_array_new_length, COMDAT

; 320  : [[noreturn]] inline void _Throw_bad_array_new_length() {

  00000	55		 push	 ebp
  00001	8b ec		 mov	 ebp, esp
  00003	83 ec 0c	 sub	 esp, 12			; 0000000cH

; 321  :     _THROW(bad_array_new_length{});

  00006	8d 4d f4	 lea	 ecx, DWORD PTR $T1[ebp]
  00009	e8 00 00 00 00	 call	 ??0bad_array_new_length@std@@QAE@XZ ; std::bad_array_new_length::bad_array_new_length
  0000e	68 00 00 00 00	 push	 OFFSET __TI3?AVbad_array_new_length@std@@
  00013	8d 45 f4	 lea	 eax, DWORD PTR $T1[ebp]
  00016	50		 push	 eax
  00017	e8 00 00 00 00	 call	 __CxxThrowException@8
$LN3@Throw_bad_:
  0001c	cc		 int	 3
?_Throw_bad_array_new_length@std@@YAXXZ ENDP		; std::_Throw_bad_array_new_length
_TEXT	ENDS
; Function compile flags: /Ogtp
; File C:\Program Files (x86)\Microsoft Visual Studio\2019\Community\VC\Tools\MSVC\14.28.29333\include\vcruntime_exception.h
;	COMDAT ??_Gbad_array_new_length@std@@UAEPAXI@Z
_TEXT	SEGMENT
___flags$ = 8						; size = 4
??_Gbad_array_new_length@std@@UAEPAXI@Z PROC		; std::bad_array_new_length::`scalar deleting destructor', COMDAT
; _this$ = ecx
  00000	55		 push	 ebp
  00001	8b ec		 mov	 ebp, esp

; 89   :     {

  00003	56		 push	 esi
  00004	8b f1		 mov	 esi, ecx

; 90   :         __std_exception_destroy(&_Data);

  00006	8d 46 04	 lea	 eax, DWORD PTR [esi+4]
  00009	c7 06 00 00 00
	00		 mov	 DWORD PTR [esi], OFFSET ??_7exception@std@@6B@
  0000f	50		 push	 eax
  00010	e8 00 00 00 00	 call	 ___std_exception_destroy
  00015	83 c4 04	 add	 esp, 4
  00018	f6 45 08 01	 test	 BYTE PTR ___flags$[ebp], 1
  0001c	74 0b		 je	 SHORT $LN12@scalar
  0001e	6a 0c		 push	 12			; 0000000cH
  00020	56		 push	 esi
  00021	e8 00 00 00 00	 call	 ??3@YAXPAXI@Z		; operator delete
  00026	83 c4 08	 add	 esp, 8
$LN12@scalar:
  00029	8b c6		 mov	 eax, esi
  0002b	5e		 pop	 esi
  0002c	5d		 pop	 ebp
  0002d	c2 04 00	 ret	 4
??_Gbad_array_new_length@std@@UAEPAXI@Z ENDP		; std::bad_array_new_length::`scalar deleting destructor'
_TEXT	ENDS
; Function compile flags: /Ogtp
; File C:\Program Files (x86)\Microsoft Visual Studio\2019\Community\VC\Tools\MSVC\14.28.29333\include\vcruntime_exception.h
;	COMDAT ??0bad_array_new_length@std@@QAE@ABV01@@Z
_TEXT	SEGMENT
___that$ = 8						; size = 4
??0bad_array_new_length@std@@QAE@ABV01@@Z PROC		; std::bad_array_new_length::bad_array_new_length, COMDAT
; _this$ = ecx
  00000	55		 push	 ebp
  00001	8b ec		 mov	 ebp, esp

; 72   :     {

  00003	56		 push	 esi
  00004	8b f1		 mov	 esi, ecx
  00006	0f 57 c0	 xorps	 xmm0, xmm0

; 71   :         : _Data()

  00009	8d 46 04	 lea	 eax, DWORD PTR [esi+4]

; 73   :         __std_exception_copy(&_Other._Data, &_Data);

  0000c	50		 push	 eax
  0000d	c7 06 00 00 00
	00		 mov	 DWORD PTR [esi], OFFSET ??_7exception@std@@6B@
  00013	66 0f d6 00	 movq	 QWORD PTR [eax], xmm0
  00017	8b 45 08	 mov	 eax, DWORD PTR ___that$[ebp]
  0001a	83 c0 04	 add	 eax, 4
  0001d	50		 push	 eax
  0001e	e8 00 00 00 00	 call	 ___std_exception_copy
  00023	83 c4 08	 add	 esp, 8
  00026	c7 06 00 00 00
	00		 mov	 DWORD PTR [esi], OFFSET ??_7bad_array_new_length@std@@6B@
  0002c	8b c6		 mov	 eax, esi
  0002e	5e		 pop	 esi
  0002f	5d		 pop	 ebp
  00030	c2 04 00	 ret	 4
??0bad_array_new_length@std@@QAE@ABV01@@Z ENDP		; std::bad_array_new_length::bad_array_new_length
_TEXT	ENDS
; Function compile flags: /Ogtp
; File C:\Program Files (x86)\Microsoft Visual Studio\2019\Community\VC\Tools\MSVC\14.28.29333\include\vcruntime_exception.h
;	COMDAT ??1bad_array_new_length@std@@UAE@XZ
_TEXT	SEGMENT
??1bad_array_new_length@std@@UAE@XZ PROC		; std::bad_array_new_length::~bad_array_new_length, COMDAT
; _this$ = ecx

; 90   :         __std_exception_destroy(&_Data);

  00000	8d 41 04	 lea	 eax, DWORD PTR [ecx+4]
  00003	c7 01 00 00 00
	00		 mov	 DWORD PTR [ecx], OFFSET ??_7exception@std@@6B@
  00009	50		 push	 eax
  0000a	e8 00 00 00 00	 call	 ___std_exception_destroy
  0000f	59		 pop	 ecx
  00010	c3		 ret	 0
??1bad_array_new_length@std@@UAE@XZ ENDP		; std::bad_array_new_length::~bad_array_new_length
_TEXT	ENDS
; Function compile flags: /Ogtp
; File C:\Program Files (x86)\Microsoft Visual Studio\2019\Community\VC\Tools\MSVC\14.28.29333\include\vcruntime_exception.h
;	COMDAT ??0bad_array_new_length@std@@QAE@XZ
_TEXT	SEGMENT
??0bad_array_new_length@std@@QAE@XZ PROC		; std::bad_array_new_length::bad_array_new_length, COMDAT
; _this$ = ecx

; 141  :     {

  00000	0f 57 c0	 xorps	 xmm0, xmm0

; 142  :     }

  00003	8b c1		 mov	 eax, ecx

; 65   :         : _Data()

  00005	66 0f d6 41 04	 movq	 QWORD PTR [ecx+4], xmm0

; 66   :     {
; 67   :         _Data._What = _Message;

  0000a	c7 41 04 00 00
	00 00		 mov	 DWORD PTR [ecx+4], OFFSET ??_C@_0BF@KINCDENJ@bad?5array?5new?5length@

; 141  :     {

  00011	c7 01 00 00 00
	00		 mov	 DWORD PTR [ecx], OFFSET ??_7bad_array_new_length@std@@6B@

; 142  :     }

  00017	c3		 ret	 0
??0bad_array_new_length@std@@QAE@XZ ENDP		; std::bad_array_new_length::bad_array_new_length
_TEXT	ENDS
; Function compile flags: /Ogtp
; File C:\Program Files (x86)\Microsoft Visual Studio\2019\Community\VC\Tools\MSVC\14.28.29333\include\vcruntime_exception.h
;	COMDAT ??_Gbad_alloc@std@@UAEPAXI@Z
_TEXT	SEGMENT
___flags$ = 8						; size = 4
??_Gbad_alloc@std@@UAEPAXI@Z PROC			; std::bad_alloc::`scalar deleting destructor', COMDAT
; _this$ = ecx
  00000	55		 push	 ebp
  00001	8b ec		 mov	 ebp, esp

; 89   :     {

  00003	56		 push	 esi
  00004	8b f1		 mov	 esi, ecx

; 90   :         __std_exception_destroy(&_Data);

  00006	8d 46 04	 lea	 eax, DWORD PTR [esi+4]
  00009	c7 06 00 00 00
	00		 mov	 DWORD PTR [esi], OFFSET ??_7exception@std@@6B@
  0000f	50		 push	 eax
  00010	e8 00 00 00 00	 call	 ___std_exception_destroy
  00015	83 c4 04	 add	 esp, 4
  00018	f6 45 08 01	 test	 BYTE PTR ___flags$[ebp], 1
  0001c	74 0b		 je	 SHORT $LN9@scalar
  0001e	6a 0c		 push	 12			; 0000000cH
  00020	56		 push	 esi
  00021	e8 00 00 00 00	 call	 ??3@YAXPAXI@Z		; operator delete
  00026	83 c4 08	 add	 esp, 8
$LN9@scalar:
  00029	8b c6		 mov	 eax, esi
  0002b	5e		 pop	 esi
  0002c	5d		 pop	 ebp
  0002d	c2 04 00	 ret	 4
??_Gbad_alloc@std@@UAEPAXI@Z ENDP			; std::bad_alloc::`scalar deleting destructor'
_TEXT	ENDS
; Function compile flags: /Ogtp
; File C:\Program Files (x86)\Microsoft Visual Studio\2019\Community\VC\Tools\MSVC\14.28.29333\include\vcruntime_exception.h
;	COMDAT ??0bad_alloc@std@@QAE@ABV01@@Z
_TEXT	SEGMENT
___that$ = 8						; size = 4
??0bad_alloc@std@@QAE@ABV01@@Z PROC			; std::bad_alloc::bad_alloc, COMDAT
; _this$ = ecx
  00000	55		 push	 ebp
  00001	8b ec		 mov	 ebp, esp

; 72   :     {

  00003	56		 push	 esi
  00004	8b f1		 mov	 esi, ecx
  00006	0f 57 c0	 xorps	 xmm0, xmm0

; 71   :         : _Data()

  00009	8d 46 04	 lea	 eax, DWORD PTR [esi+4]

; 73   :         __std_exception_copy(&_Other._Data, &_Data);

  0000c	50		 push	 eax
  0000d	c7 06 00 00 00
	00		 mov	 DWORD PTR [esi], OFFSET ??_7exception@std@@6B@
  00013	66 0f d6 00	 movq	 QWORD PTR [eax], xmm0
  00017	8b 45 08	 mov	 eax, DWORD PTR ___that$[ebp]
  0001a	83 c0 04	 add	 eax, 4
  0001d	50		 push	 eax
  0001e	e8 00 00 00 00	 call	 ___std_exception_copy
  00023	83 c4 08	 add	 esp, 8
  00026	c7 06 00 00 00
	00		 mov	 DWORD PTR [esi], OFFSET ??_7bad_alloc@std@@6B@
  0002c	8b c6		 mov	 eax, esi
  0002e	5e		 pop	 esi
  0002f	5d		 pop	 ebp
  00030	c2 04 00	 ret	 4
??0bad_alloc@std@@QAE@ABV01@@Z ENDP			; std::bad_alloc::bad_alloc
_TEXT	ENDS
; Function compile flags: /Ogtp
; File C:\Program Files (x86)\Microsoft Visual Studio\2019\Community\VC\Tools\MSVC\14.28.29333\include\vcruntime_exception.h
;	COMDAT ??_Gexception@std@@UAEPAXI@Z
_TEXT	SEGMENT
___flags$ = 8						; size = 4
??_Gexception@std@@UAEPAXI@Z PROC			; std::exception::`scalar deleting destructor', COMDAT
; _this$ = ecx
  00000	55		 push	 ebp
  00001	8b ec		 mov	 ebp, esp

; 89   :     {

  00003	56		 push	 esi
  00004	8b f1		 mov	 esi, ecx

; 90   :         __std_exception_destroy(&_Data);

  00006	8d 46 04	 lea	 eax, DWORD PTR [esi+4]
  00009	c7 06 00 00 00
	00		 mov	 DWORD PTR [esi], OFFSET ??_7exception@std@@6B@
  0000f	50		 push	 eax
  00010	e8 00 00 00 00	 call	 ___std_exception_destroy
  00015	83 c4 04	 add	 esp, 4
  00018	f6 45 08 01	 test	 BYTE PTR ___flags$[ebp], 1
  0001c	74 0b		 je	 SHORT $LN6@scalar
  0001e	6a 0c		 push	 12			; 0000000cH
  00020	56		 push	 esi
  00021	e8 00 00 00 00	 call	 ??3@YAXPAXI@Z		; operator delete
  00026	83 c4 08	 add	 esp, 8
$LN6@scalar:
  00029	8b c6		 mov	 eax, esi
  0002b	5e		 pop	 esi
  0002c	5d		 pop	 ebp
  0002d	c2 04 00	 ret	 4
??_Gexception@std@@UAEPAXI@Z ENDP			; std::exception::`scalar deleting destructor'
_TEXT	ENDS
; Function compile flags: /Ogtp
; File C:\Program Files (x86)\Microsoft Visual Studio\2019\Community\VC\Tools\MSVC\14.28.29333\include\vcruntime_exception.h
;	COMDAT ?what@exception@std@@UBEPBDXZ
_TEXT	SEGMENT
?what@exception@std@@UBEPBDXZ PROC			; std::exception::what, COMDAT
; _this$ = ecx

; 95   :         return _Data._What ? _Data._What : "Unknown exception";

  00000	8b 49 04	 mov	 ecx, DWORD PTR [ecx+4]
  00003	b8 00 00 00 00	 mov	 eax, OFFSET ??_C@_0BC@EOODALEL@Unknown?5exception@
  00008	85 c9		 test	 ecx, ecx
  0000a	0f 45 c1	 cmovne	 eax, ecx

; 96   :     }

  0000d	c3		 ret	 0
?what@exception@std@@UBEPBDXZ ENDP			; std::exception::what
_TEXT	ENDS
; Function compile flags: /Ogtp
; File C:\Program Files (x86)\Microsoft Visual Studio\2019\Community\VC\Tools\MSVC\14.28.29333\include\vcruntime_exception.h
;	COMDAT ??1exception@std@@UAE@XZ
_TEXT	SEGMENT
??1exception@std@@UAE@XZ PROC				; std::exception::~exception, COMDAT
; _this$ = ecx

; 90   :         __std_exception_destroy(&_Data);

  00000	8d 41 04	 lea	 eax, DWORD PTR [ecx+4]
  00003	c7 01 00 00 00
	00		 mov	 DWORD PTR [ecx], OFFSET ??_7exception@std@@6B@
  00009	50		 push	 eax
  0000a	e8 00 00 00 00	 call	 ___std_exception_destroy
  0000f	59		 pop	 ecx

; 91   :     }

  00010	c3		 ret	 0
??1exception@std@@UAE@XZ ENDP				; std::exception::~exception
_TEXT	ENDS
; Function compile flags: /Ogtp
; File C:\Program Files (x86)\Microsoft Visual Studio\2019\Community\VC\Tools\MSVC\14.28.29333\include\vcruntime_exception.h
;	COMDAT ??0exception@std@@QAE@ABV01@@Z
_TEXT	SEGMENT
__Other$ = 8						; size = 4
??0exception@std@@QAE@ABV01@@Z PROC			; std::exception::exception, COMDAT
; _this$ = ecx

; 72   :     {

  00000	55		 push	 ebp
  00001	8b ec		 mov	 ebp, esp
  00003	56		 push	 esi
  00004	8b f1		 mov	 esi, ecx
  00006	0f 57 c0	 xorps	 xmm0, xmm0
  00009	8d 46 04	 lea	 eax, DWORD PTR [esi+4]

; 73   :         __std_exception_copy(&_Other._Data, &_Data);

  0000c	50		 push	 eax
  0000d	c7 06 00 00 00
	00		 mov	 DWORD PTR [esi], OFFSET ??_7exception@std@@6B@
  00013	66 0f d6 00	 movq	 QWORD PTR [eax], xmm0
  00017	8b 45 08	 mov	 eax, DWORD PTR __Other$[ebp]
  0001a	83 c0 04	 add	 eax, 4
  0001d	50		 push	 eax
  0001e	e8 00 00 00 00	 call	 ___std_exception_copy
  00023	83 c4 08	 add	 esp, 8

; 74   :     }

  00026	8b c6		 mov	 eax, esi
  00028	5e		 pop	 esi
  00029	5d		 pop	 ebp
  0002a	c2 04 00	 ret	 4
??0exception@std@@QAE@ABV01@@Z ENDP			; std::exception::exception
_TEXT	ENDS
; Function compile flags: /Ogtp
; File C:\Program Files (x86)\Windows Kits\10\Include\10.0.18362.0\ucrt\stdio.h
;	COMDAT _printf
_TEXT	SEGMENT
__Format$ = 8						; size = 4
_printf	PROC						; COMDAT

; 954  :     {

  00000	55		 push	 ebp
  00001	8b ec		 mov	 ebp, esp
  00003	56		 push	 esi

; 955  :         int _Result;
; 956  :         va_list _ArgList;
; 957  :         __crt_va_start(_ArgList, _Format);
; 958  :         _Result = _vfprintf_l(stdout, _Format, NULL, _ArgList);

  00004	8b 75 08	 mov	 esi, DWORD PTR __Format$[ebp]
  00007	6a 01		 push	 1
  00009	e8 00 00 00 00	 call	 ___acrt_iob_func
  0000e	83 c4 04	 add	 esp, 4

; 643  :         return __stdio_common_vfprintf(_CRT_INTERNAL_LOCAL_PRINTF_OPTIONS, _Stream, _Format, _Locale, _ArgList);

  00011	8d 4d 0c	 lea	 ecx, DWORD PTR __Format$[ebp+4]
  00014	51		 push	 ecx
  00015	6a 00		 push	 0
  00017	56		 push	 esi
  00018	50		 push	 eax
  00019	e8 00 00 00 00	 call	 ___local_stdio_printf_options
  0001e	ff 70 04	 push	 DWORD PTR [eax+4]
  00021	ff 30		 push	 DWORD PTR [eax]
  00023	e8 00 00 00 00	 call	 ___stdio_common_vfprintf
  00028	83 c4 18	 add	 esp, 24			; 00000018H

; 959  :         __crt_va_end(_ArgList);
; 960  :         return _Result;

  0002b	5e		 pop	 esi

; 961  :     }

  0002c	5d		 pop	 ebp
  0002d	c3		 ret	 0
_printf	ENDP
_TEXT	ENDS
; Function compile flags: /Ogtp
; File C:\Program Files (x86)\Windows Kits\10\Include\10.0.18362.0\ucrt\corecrt_stdio_config.h
;	COMDAT ___local_stdio_printf_options
_TEXT	SEGMENT
___local_stdio_printf_options PROC			; COMDAT

; 87   :         static unsigned __int64 _OptionsStorage;
; 88   :         return &_OptionsStorage;

  00000	b8 00 00 00 00	 mov	 eax, OFFSET ?_OptionsStorage@?1??__local_stdio_printf_options@@9@4_KA ; `__local_stdio_printf_options'::`2'::_OptionsStorage

; 89   :     }

  00005	c3		 ret	 0
___local_stdio_printf_options ENDP
_TEXT	ENDS
END
