; Listing generated by Microsoft (R) Optimizing Compiler Version 19.28.29335.0 

	TITLE	D:\Metin2 Server Files\mainline\SRC_2014\Metin2Client\UserInterface\MovieMan.cpp
	.686P
	.XMM
	include listing.inc
	.model	flat

INCLUDELIB LIBCMT
INCLUDELIB OLDNAMES

PUBLIC	??_R4?$CDynamicPoolEx@VCHeaderDecorator@NEffectUpdateDecorator@@@@6B@ ; CDynamicPoolEx<NEffectUpdateDecorator::CHeaderDecorator>::`RTTI Complete Object Locator'
PUBLIC	??_R0?AV?$CDynamicPoolEx@VCHeaderDecorator@NEffectUpdateDecorator@@@@@8 ; CDynamicPoolEx<NEffectUpdateDecorator::CHeaderDecorator> `RTTI Type Descriptor'
PUBLIC	??_R3?$CDynamicPoolEx@VCHeaderDecorator@NEffectUpdateDecorator@@@@8 ; CDynamicPoolEx<NEffectUpdateDecorator::CHeaderDecorator>::`RTTI Class Hierarchy Descriptor'
PUBLIC	??_R2?$CDynamicPoolEx@VCHeaderDecorator@NEffectUpdateDecorator@@@@8 ; CDynamicPoolEx<NEffectUpdateDecorator::CHeaderDecorator>::`RTTI Base Class Array'
PUBLIC	??_R1A@?0A@EA@?$CDynamicPoolEx@VCHeaderDecorator@NEffectUpdateDecorator@@@@8 ; CDynamicPoolEx<NEffectUpdateDecorator::CHeaderDecorator>::`RTTI Base Class Descriptor at (0,-1,0,64)'
PUBLIC	??_R4?$CDynamicPoolEx@VCNullDecorator@NEffectUpdateDecorator@@@@6B@ ; CDynamicPoolEx<NEffectUpdateDecorator::CNullDecorator>::`RTTI Complete Object Locator'
PUBLIC	??_R0?AV?$CDynamicPoolEx@VCNullDecorator@NEffectUpdateDecorator@@@@@8 ; CDynamicPoolEx<NEffectUpdateDecorator::CNullDecorator> `RTTI Type Descriptor'
PUBLIC	??_R3?$CDynamicPoolEx@VCNullDecorator@NEffectUpdateDecorator@@@@8 ; CDynamicPoolEx<NEffectUpdateDecorator::CNullDecorator>::`RTTI Class Hierarchy Descriptor'
PUBLIC	??_R2?$CDynamicPoolEx@VCNullDecorator@NEffectUpdateDecorator@@@@8 ; CDynamicPoolEx<NEffectUpdateDecorator::CNullDecorator>::`RTTI Base Class Array'
PUBLIC	??_R1A@?0A@EA@?$CDynamicPoolEx@VCNullDecorator@NEffectUpdateDecorator@@@@8 ; CDynamicPoolEx<NEffectUpdateDecorator::CNullDecorator>::`RTTI Base Class Descriptor at (0,-1,0,64)'
PUBLIC	??_R4?$CDynamicPoolEx@VCTextureAnimationCWDecorator@NEffectUpdateDecorator@@@@6B@ ; CDynamicPoolEx<NEffectUpdateDecorator::CTextureAnimationCWDecorator>::`RTTI Complete Object Locator'
PUBLIC	??_R0?AV?$CDynamicPoolEx@VCTextureAnimationCWDecorator@NEffectUpdateDecorator@@@@@8 ; CDynamicPoolEx<NEffectUpdateDecorator::CTextureAnimationCWDecorator> `RTTI Type Descriptor'
PUBLIC	??_R3?$CDynamicPoolEx@VCTextureAnimationCWDecorator@NEffectUpdateDecorator@@@@8 ; CDynamicPoolEx<NEffectUpdateDecorator::CTextureAnimationCWDecorator>::`RTTI Class Hierarchy Descriptor'
PUBLIC	??_R2?$CDynamicPoolEx@VCTextureAnimationCWDecorator@NEffectUpdateDecorator@@@@8 ; CDynamicPoolEx<NEffectUpdateDecorator::CTextureAnimationCWDecorator>::`RTTI Base Class Array'
PUBLIC	??_R1A@?0A@EA@?$CDynamicPoolEx@VCTextureAnimationCWDecorator@NEffectUpdateDecorator@@@@8 ; CDynamicPoolEx<NEffectUpdateDecorator::CTextureAnimationCWDecorator>::`RTTI Base Class Descriptor at (0,-1,0,64)'
PUBLIC	??_R4?$CDynamicPoolEx@VCTextureAnimationCCWDecorator@NEffectUpdateDecorator@@@@6B@ ; CDynamicPoolEx<NEffectUpdateDecorator::CTextureAnimationCCWDecorator>::`RTTI Complete Object Locator'
PUBLIC	??_R0?AV?$CDynamicPoolEx@VCTextureAnimationCCWDecorator@NEffectUpdateDecorator@@@@@8 ; CDynamicPoolEx<NEffectUpdateDecorator::CTextureAnimationCCWDecorator> `RTTI Type Descriptor'
PUBLIC	??_R3?$CDynamicPoolEx@VCTextureAnimationCCWDecorator@NEffectUpdateDecorator@@@@8 ; CDynamicPoolEx<NEffectUpdateDecorator::CTextureAnimationCCWDecorator>::`RTTI Class Hierarchy Descriptor'
PUBLIC	??_R2?$CDynamicPoolEx@VCTextureAnimationCCWDecorator@NEffectUpdateDecorator@@@@8 ; CDynamicPoolEx<NEffectUpdateDecorator::CTextureAnimationCCWDecorator>::`RTTI Base Class Array'
PUBLIC	??_R1A@?0A@EA@?$CDynamicPoolEx@VCTextureAnimationCCWDecorator@NEffectUpdateDecorator@@@@8 ; CDynamicPoolEx<NEffectUpdateDecorator::CTextureAnimationCCWDecorator>::`RTTI Base Class Descriptor at (0,-1,0,64)'
PUBLIC	??_R4?$CDynamicPoolEx@VCTextureAnimationRandomDecorator@NEffectUpdateDecorator@@@@6B@ ; CDynamicPoolEx<NEffectUpdateDecorator::CTextureAnimationRandomDecorator>::`RTTI Complete Object Locator'
PUBLIC	??_R0?AV?$CDynamicPoolEx@VCTextureAnimationRandomDecorator@NEffectUpdateDecorator@@@@@8 ; CDynamicPoolEx<NEffectUpdateDecorator::CTextureAnimationRandomDecorator> `RTTI Type Descriptor'
PUBLIC	??_R3?$CDynamicPoolEx@VCTextureAnimationRandomDecorator@NEffectUpdateDecorator@@@@8 ; CDynamicPoolEx<NEffectUpdateDecorator::CTextureAnimationRandomDecorator>::`RTTI Class Hierarchy Descriptor'
PUBLIC	??_R2?$CDynamicPoolEx@VCTextureAnimationRandomDecorator@NEffectUpdateDecorator@@@@8 ; CDynamicPoolEx<NEffectUpdateDecorator::CTextureAnimationRandomDecorator>::`RTTI Base Class Array'
PUBLIC	??_R1A@?0A@EA@?$CDynamicPoolEx@VCTextureAnimationRandomDecorator@NEffectUpdateDecorator@@@@8 ; CDynamicPoolEx<NEffectUpdateDecorator::CTextureAnimationRandomDecorator>::`RTTI Base Class Descriptor at (0,-1,0,64)'
PUBLIC	??_R4?$CDynamicPoolEx@VCAirResistanceDecorator@NEffectUpdateDecorator@@@@6B@ ; CDynamicPoolEx<NEffectUpdateDecorator::CAirResistanceDecorator>::`RTTI Complete Object Locator'
PUBLIC	??_R0?AV?$CDynamicPoolEx@VCAirResistanceDecorator@NEffectUpdateDecorator@@@@@8 ; CDynamicPoolEx<NEffectUpdateDecorator::CAirResistanceDecorator> `RTTI Type Descriptor'
PUBLIC	??_R3?$CDynamicPoolEx@VCAirResistanceDecorator@NEffectUpdateDecorator@@@@8 ; CDynamicPoolEx<NEffectUpdateDecorator::CAirResistanceDecorator>::`RTTI Class Hierarchy Descriptor'
PUBLIC	??_R2?$CDynamicPoolEx@VCAirResistanceDecorator@NEffectUpdateDecorator@@@@8 ; CDynamicPoolEx<NEffectUpdateDecorator::CAirResistanceDecorator>::`RTTI Base Class Array'
PUBLIC	??_R1A@?0A@EA@?$CDynamicPoolEx@VCAirResistanceDecorator@NEffectUpdateDecorator@@@@8 ; CDynamicPoolEx<NEffectUpdateDecorator::CAirResistanceDecorator>::`RTTI Base Class Descriptor at (0,-1,0,64)'
PUBLIC	??_R4?$CDynamicPoolEx@VCGravityDecorator@NEffectUpdateDecorator@@@@6B@ ; CDynamicPoolEx<NEffectUpdateDecorator::CGravityDecorator>::`RTTI Complete Object Locator'
PUBLIC	??_R0?AV?$CDynamicPoolEx@VCGravityDecorator@NEffectUpdateDecorator@@@@@8 ; CDynamicPoolEx<NEffectUpdateDecorator::CGravityDecorator> `RTTI Type Descriptor'
PUBLIC	??_R3?$CDynamicPoolEx@VCGravityDecorator@NEffectUpdateDecorator@@@@8 ; CDynamicPoolEx<NEffectUpdateDecorator::CGravityDecorator>::`RTTI Class Hierarchy Descriptor'
PUBLIC	??_R2?$CDynamicPoolEx@VCGravityDecorator@NEffectUpdateDecorator@@@@8 ; CDynamicPoolEx<NEffectUpdateDecorator::CGravityDecorator>::`RTTI Base Class Array'
PUBLIC	??_R1A@?0A@EA@?$CDynamicPoolEx@VCGravityDecorator@NEffectUpdateDecorator@@@@8 ; CDynamicPoolEx<NEffectUpdateDecorator::CGravityDecorator>::`RTTI Base Class Descriptor at (0,-1,0,64)'
PUBLIC	??_R4?$CDynamicPoolEx@VCRotationDecorator@NEffectUpdateDecorator@@@@6B@ ; CDynamicPoolEx<NEffectUpdateDecorator::CRotationDecorator>::`RTTI Complete Object Locator'
PUBLIC	??_R0?AV?$CDynamicPoolEx@VCRotationDecorator@NEffectUpdateDecorator@@@@@8 ; CDynamicPoolEx<NEffectUpdateDecorator::CRotationDecorator> `RTTI Type Descriptor'
PUBLIC	??_R3?$CDynamicPoolEx@VCRotationDecorator@NEffectUpdateDecorator@@@@8 ; CDynamicPoolEx<NEffectUpdateDecorator::CRotationDecorator>::`RTTI Class Hierarchy Descriptor'
PUBLIC	??_R2?$CDynamicPoolEx@VCRotationDecorator@NEffectUpdateDecorator@@@@8 ; CDynamicPoolEx<NEffectUpdateDecorator::CRotationDecorator>::`RTTI Base Class Array'
PUBLIC	??_R1A@?0A@EA@?$CDynamicPoolEx@VCRotationDecorator@NEffectUpdateDecorator@@@@8 ; CDynamicPoolEx<NEffectUpdateDecorator::CRotationDecorator>::`RTTI Base Class Descriptor at (0,-1,0,64)'
PUBLIC	??_7?$CDynamicPoolEx@VCRotationDecorator@NEffectUpdateDecorator@@@@6B@ ; CDynamicPoolEx<NEffectUpdateDecorator::CRotationDecorator>::`vftable'
PUBLIC	??_G?$CDynamicPoolEx@VCRotationDecorator@NEffectUpdateDecorator@@@@UAEPAXI@Z ; CDynamicPoolEx<NEffectUpdateDecorator::CRotationDecorator>::`scalar deleting destructor'
PUBLIC	??_7?$CDynamicPoolEx@VCGravityDecorator@NEffectUpdateDecorator@@@@6B@ ; CDynamicPoolEx<NEffectUpdateDecorator::CGravityDecorator>::`vftable'
PUBLIC	??_G?$CDynamicPoolEx@VCGravityDecorator@NEffectUpdateDecorator@@@@UAEPAXI@Z ; CDynamicPoolEx<NEffectUpdateDecorator::CGravityDecorator>::`scalar deleting destructor'
PUBLIC	??_7?$CDynamicPoolEx@VCAirResistanceDecorator@NEffectUpdateDecorator@@@@6B@ ; CDynamicPoolEx<NEffectUpdateDecorator::CAirResistanceDecorator>::`vftable'
PUBLIC	??_G?$CDynamicPoolEx@VCAirResistanceDecorator@NEffectUpdateDecorator@@@@UAEPAXI@Z ; CDynamicPoolEx<NEffectUpdateDecorator::CAirResistanceDecorator>::`scalar deleting destructor'
PUBLIC	??_7?$CDynamicPoolEx@VCTextureAnimationRandomDecorator@NEffectUpdateDecorator@@@@6B@ ; CDynamicPoolEx<NEffectUpdateDecorator::CTextureAnimationRandomDecorator>::`vftable'
PUBLIC	??_G?$CDynamicPoolEx@VCTextureAnimationRandomDecorator@NEffectUpdateDecorator@@@@UAEPAXI@Z ; CDynamicPoolEx<NEffectUpdateDecorator::CTextureAnimationRandomDecorator>::`scalar deleting destructor'
PUBLIC	??_7?$CDynamicPoolEx@VCTextureAnimationCCWDecorator@NEffectUpdateDecorator@@@@6B@ ; CDynamicPoolEx<NEffectUpdateDecorator::CTextureAnimationCCWDecorator>::`vftable'
PUBLIC	??_G?$CDynamicPoolEx@VCTextureAnimationCCWDecorator@NEffectUpdateDecorator@@@@UAEPAXI@Z ; CDynamicPoolEx<NEffectUpdateDecorator::CTextureAnimationCCWDecorator>::`scalar deleting destructor'
PUBLIC	??_7?$CDynamicPoolEx@VCTextureAnimationCWDecorator@NEffectUpdateDecorator@@@@6B@ ; CDynamicPoolEx<NEffectUpdateDecorator::CTextureAnimationCWDecorator>::`vftable'
PUBLIC	??_G?$CDynamicPoolEx@VCTextureAnimationCWDecorator@NEffectUpdateDecorator@@@@UAEPAXI@Z ; CDynamicPoolEx<NEffectUpdateDecorator::CTextureAnimationCWDecorator>::`scalar deleting destructor'
PUBLIC	??_7?$CDynamicPoolEx@VCNullDecorator@NEffectUpdateDecorator@@@@6B@ ; CDynamicPoolEx<NEffectUpdateDecorator::CNullDecorator>::`vftable'
PUBLIC	??_G?$CDynamicPoolEx@VCNullDecorator@NEffectUpdateDecorator@@@@UAEPAXI@Z ; CDynamicPoolEx<NEffectUpdateDecorator::CNullDecorator>::`scalar deleting destructor'
PUBLIC	??_7?$CDynamicPoolEx@VCHeaderDecorator@NEffectUpdateDecorator@@@@6B@ ; CDynamicPoolEx<NEffectUpdateDecorator::CHeaderDecorator>::`vftable'
PUBLIC	??_G?$CDynamicPoolEx@VCHeaderDecorator@NEffectUpdateDecorator@@@@UAEPAXI@Z ; CDynamicPoolEx<NEffectUpdateDecorator::CHeaderDecorator>::`scalar deleting destructor'
EXTRN	??_E?$CDynamicPoolEx@VCRotationDecorator@NEffectUpdateDecorator@@@@UAEPAXI@Z:PROC ; CDynamicPoolEx<NEffectUpdateDecorator::CRotationDecorator>::`vector deleting destructor'
EXTRN	??_E?$CDynamicPoolEx@VCGravityDecorator@NEffectUpdateDecorator@@@@UAEPAXI@Z:PROC ; CDynamicPoolEx<NEffectUpdateDecorator::CGravityDecorator>::`vector deleting destructor'
EXTRN	??_E?$CDynamicPoolEx@VCAirResistanceDecorator@NEffectUpdateDecorator@@@@UAEPAXI@Z:PROC ; CDynamicPoolEx<NEffectUpdateDecorator::CAirResistanceDecorator>::`vector deleting destructor'
EXTRN	??_E?$CDynamicPoolEx@VCTextureAnimationRandomDecorator@NEffectUpdateDecorator@@@@UAEPAXI@Z:PROC ; CDynamicPoolEx<NEffectUpdateDecorator::CTextureAnimationRandomDecorator>::`vector deleting destructor'
EXTRN	??_E?$CDynamicPoolEx@VCTextureAnimationCCWDecorator@NEffectUpdateDecorator@@@@UAEPAXI@Z:PROC ; CDynamicPoolEx<NEffectUpdateDecorator::CTextureAnimationCCWDecorator>::`vector deleting destructor'
EXTRN	??_7type_info@@6B@:QWORD			; type_info::`vftable'
EXTRN	??_E?$CDynamicPoolEx@VCTextureAnimationCWDecorator@NEffectUpdateDecorator@@@@UAEPAXI@Z:PROC ; CDynamicPoolEx<NEffectUpdateDecorator::CTextureAnimationCWDecorator>::`vector deleting destructor'
EXTRN	??_E?$CDynamicPoolEx@VCNullDecorator@NEffectUpdateDecorator@@@@UAEPAXI@Z:PROC ; CDynamicPoolEx<NEffectUpdateDecorator::CNullDecorator>::`vector deleting destructor'
EXTRN	??_E?$CDynamicPoolEx@VCHeaderDecorator@NEffectUpdateDecorator@@@@UAEPAXI@Z:PROC ; CDynamicPoolEx<NEffectUpdateDecorator::CHeaderDecorator>::`vector deleting destructor'
;	COMDAT ??_7?$CDynamicPoolEx@VCHeaderDecorator@NEffectUpdateDecorator@@@@6B@
CONST	SEGMENT
??_7?$CDynamicPoolEx@VCHeaderDecorator@NEffectUpdateDecorator@@@@6B@ DD FLAT:??_R4?$CDynamicPoolEx@VCHeaderDecorator@NEffectUpdateDecorator@@@@6B@ ; CDynamicPoolEx<NEffectUpdateDecorator::CHeaderDecorator>::`vftable'
	DD	FLAT:??_E?$CDynamicPoolEx@VCHeaderDecorator@NEffectUpdateDecorator@@@@UAEPAXI@Z
CONST	ENDS
;	COMDAT ??_7?$CDynamicPoolEx@VCNullDecorator@NEffectUpdateDecorator@@@@6B@
CONST	SEGMENT
??_7?$CDynamicPoolEx@VCNullDecorator@NEffectUpdateDecorator@@@@6B@ DD FLAT:??_R4?$CDynamicPoolEx@VCNullDecorator@NEffectUpdateDecorator@@@@6B@ ; CDynamicPoolEx<NEffectUpdateDecorator::CNullDecorator>::`vftable'
	DD	FLAT:??_E?$CDynamicPoolEx@VCNullDecorator@NEffectUpdateDecorator@@@@UAEPAXI@Z
CONST	ENDS
;	COMDAT ??_7?$CDynamicPoolEx@VCTextureAnimationCWDecorator@NEffectUpdateDecorator@@@@6B@
CONST	SEGMENT
??_7?$CDynamicPoolEx@VCTextureAnimationCWDecorator@NEffectUpdateDecorator@@@@6B@ DD FLAT:??_R4?$CDynamicPoolEx@VCTextureAnimationCWDecorator@NEffectUpdateDecorator@@@@6B@ ; CDynamicPoolEx<NEffectUpdateDecorator::CTextureAnimationCWDecorator>::`vftable'
	DD	FLAT:??_E?$CDynamicPoolEx@VCTextureAnimationCWDecorator@NEffectUpdateDecorator@@@@UAEPAXI@Z
CONST	ENDS
;	COMDAT ??_7?$CDynamicPoolEx@VCTextureAnimationCCWDecorator@NEffectUpdateDecorator@@@@6B@
CONST	SEGMENT
??_7?$CDynamicPoolEx@VCTextureAnimationCCWDecorator@NEffectUpdateDecorator@@@@6B@ DD FLAT:??_R4?$CDynamicPoolEx@VCTextureAnimationCCWDecorator@NEffectUpdateDecorator@@@@6B@ ; CDynamicPoolEx<NEffectUpdateDecorator::CTextureAnimationCCWDecorator>::`vftable'
	DD	FLAT:??_E?$CDynamicPoolEx@VCTextureAnimationCCWDecorator@NEffectUpdateDecorator@@@@UAEPAXI@Z
CONST	ENDS
;	COMDAT ??_7?$CDynamicPoolEx@VCTextureAnimationRandomDecorator@NEffectUpdateDecorator@@@@6B@
CONST	SEGMENT
??_7?$CDynamicPoolEx@VCTextureAnimationRandomDecorator@NEffectUpdateDecorator@@@@6B@ DD FLAT:??_R4?$CDynamicPoolEx@VCTextureAnimationRandomDecorator@NEffectUpdateDecorator@@@@6B@ ; CDynamicPoolEx<NEffectUpdateDecorator::CTextureAnimationRandomDecorator>::`vftable'
	DD	FLAT:??_E?$CDynamicPoolEx@VCTextureAnimationRandomDecorator@NEffectUpdateDecorator@@@@UAEPAXI@Z
CONST	ENDS
;	COMDAT ??_7?$CDynamicPoolEx@VCAirResistanceDecorator@NEffectUpdateDecorator@@@@6B@
CONST	SEGMENT
??_7?$CDynamicPoolEx@VCAirResistanceDecorator@NEffectUpdateDecorator@@@@6B@ DD FLAT:??_R4?$CDynamicPoolEx@VCAirResistanceDecorator@NEffectUpdateDecorator@@@@6B@ ; CDynamicPoolEx<NEffectUpdateDecorator::CAirResistanceDecorator>::`vftable'
	DD	FLAT:??_E?$CDynamicPoolEx@VCAirResistanceDecorator@NEffectUpdateDecorator@@@@UAEPAXI@Z
CONST	ENDS
;	COMDAT ??_7?$CDynamicPoolEx@VCGravityDecorator@NEffectUpdateDecorator@@@@6B@
CONST	SEGMENT
??_7?$CDynamicPoolEx@VCGravityDecorator@NEffectUpdateDecorator@@@@6B@ DD FLAT:??_R4?$CDynamicPoolEx@VCGravityDecorator@NEffectUpdateDecorator@@@@6B@ ; CDynamicPoolEx<NEffectUpdateDecorator::CGravityDecorator>::`vftable'
	DD	FLAT:??_E?$CDynamicPoolEx@VCGravityDecorator@NEffectUpdateDecorator@@@@UAEPAXI@Z
CONST	ENDS
;	COMDAT ??_7?$CDynamicPoolEx@VCRotationDecorator@NEffectUpdateDecorator@@@@6B@
CONST	SEGMENT
??_7?$CDynamicPoolEx@VCRotationDecorator@NEffectUpdateDecorator@@@@6B@ DD FLAT:??_R4?$CDynamicPoolEx@VCRotationDecorator@NEffectUpdateDecorator@@@@6B@ ; CDynamicPoolEx<NEffectUpdateDecorator::CRotationDecorator>::`vftable'
	DD	FLAT:??_E?$CDynamicPoolEx@VCRotationDecorator@NEffectUpdateDecorator@@@@UAEPAXI@Z
CONST	ENDS
;	COMDAT ??_R1A@?0A@EA@?$CDynamicPoolEx@VCRotationDecorator@NEffectUpdateDecorator@@@@8
rdata$r	SEGMENT
??_R1A@?0A@EA@?$CDynamicPoolEx@VCRotationDecorator@NEffectUpdateDecorator@@@@8 DD FLAT:??_R0?AV?$CDynamicPoolEx@VCRotationDecorator@NEffectUpdateDecorator@@@@@8 ; CDynamicPoolEx<NEffectUpdateDecorator::CRotationDecorator>::`RTTI Base Class Descriptor at (0,-1,0,64)'
	DD	00H
	DD	00H
	DD	0ffffffffH
	DD	00H
	DD	040H
	DD	FLAT:??_R3?$CDynamicPoolEx@VCRotationDecorator@NEffectUpdateDecorator@@@@8
rdata$r	ENDS
;	COMDAT ??_R2?$CDynamicPoolEx@VCRotationDecorator@NEffectUpdateDecorator@@@@8
rdata$r	SEGMENT
??_R2?$CDynamicPoolEx@VCRotationDecorator@NEffectUpdateDecorator@@@@8 DD FLAT:??_R1A@?0A@EA@?$CDynamicPoolEx@VCRotationDecorator@NEffectUpdateDecorator@@@@8 ; CDynamicPoolEx<NEffectUpdateDecorator::CRotationDecorator>::`RTTI Base Class Array'
rdata$r	ENDS
;	COMDAT ??_R3?$CDynamicPoolEx@VCRotationDecorator@NEffectUpdateDecorator@@@@8
rdata$r	SEGMENT
??_R3?$CDynamicPoolEx@VCRotationDecorator@NEffectUpdateDecorator@@@@8 DD 00H ; CDynamicPoolEx<NEffectUpdateDecorator::CRotationDecorator>::`RTTI Class Hierarchy Descriptor'
	DD	00H
	DD	01H
	DD	FLAT:??_R2?$CDynamicPoolEx@VCRotationDecorator@NEffectUpdateDecorator@@@@8
rdata$r	ENDS
;	COMDAT ??_R0?AV?$CDynamicPoolEx@VCRotationDecorator@NEffectUpdateDecorator@@@@@8
data$rs	SEGMENT
??_R0?AV?$CDynamicPoolEx@VCRotationDecorator@NEffectUpdateDecorator@@@@@8 DD FLAT:??_7type_info@@6B@ ; CDynamicPoolEx<NEffectUpdateDecorator::CRotationDecorator> `RTTI Type Descriptor'
	DD	00H
	DB	'.?AV?$CDynamicPoolEx@VCRotationDecorator@NEffectUpdateDe'
	DB	'corator@@@@', 00H
data$rs	ENDS
;	COMDAT ??_R4?$CDynamicPoolEx@VCRotationDecorator@NEffectUpdateDecorator@@@@6B@
rdata$r	SEGMENT
??_R4?$CDynamicPoolEx@VCRotationDecorator@NEffectUpdateDecorator@@@@6B@ DD 00H ; CDynamicPoolEx<NEffectUpdateDecorator::CRotationDecorator>::`RTTI Complete Object Locator'
	DD	00H
	DD	00H
	DD	FLAT:??_R0?AV?$CDynamicPoolEx@VCRotationDecorator@NEffectUpdateDecorator@@@@@8
	DD	FLAT:??_R3?$CDynamicPoolEx@VCRotationDecorator@NEffectUpdateDecorator@@@@8
rdata$r	ENDS
;	COMDAT ??_R1A@?0A@EA@?$CDynamicPoolEx@VCGravityDecorator@NEffectUpdateDecorator@@@@8
rdata$r	SEGMENT
??_R1A@?0A@EA@?$CDynamicPoolEx@VCGravityDecorator@NEffectUpdateDecorator@@@@8 DD FLAT:??_R0?AV?$CDynamicPoolEx@VCGravityDecorator@NEffectUpdateDecorator@@@@@8 ; CDynamicPoolEx<NEffectUpdateDecorator::CGravityDecorator>::`RTTI Base Class Descriptor at (0,-1,0,64)'
	DD	00H
	DD	00H
	DD	0ffffffffH
	DD	00H
	DD	040H
	DD	FLAT:??_R3?$CDynamicPoolEx@VCGravityDecorator@NEffectUpdateDecorator@@@@8
rdata$r	ENDS
;	COMDAT ??_R2?$CDynamicPoolEx@VCGravityDecorator@NEffectUpdateDecorator@@@@8
rdata$r	SEGMENT
??_R2?$CDynamicPoolEx@VCGravityDecorator@NEffectUpdateDecorator@@@@8 DD FLAT:??_R1A@?0A@EA@?$CDynamicPoolEx@VCGravityDecorator@NEffectUpdateDecorator@@@@8 ; CDynamicPoolEx<NEffectUpdateDecorator::CGravityDecorator>::`RTTI Base Class Array'
rdata$r	ENDS
;	COMDAT ??_R3?$CDynamicPoolEx@VCGravityDecorator@NEffectUpdateDecorator@@@@8
rdata$r	SEGMENT
??_R3?$CDynamicPoolEx@VCGravityDecorator@NEffectUpdateDecorator@@@@8 DD 00H ; CDynamicPoolEx<NEffectUpdateDecorator::CGravityDecorator>::`RTTI Class Hierarchy Descriptor'
	DD	00H
	DD	01H
	DD	FLAT:??_R2?$CDynamicPoolEx@VCGravityDecorator@NEffectUpdateDecorator@@@@8
rdata$r	ENDS
;	COMDAT ??_R0?AV?$CDynamicPoolEx@VCGravityDecorator@NEffectUpdateDecorator@@@@@8
data$rs	SEGMENT
??_R0?AV?$CDynamicPoolEx@VCGravityDecorator@NEffectUpdateDecorator@@@@@8 DD FLAT:??_7type_info@@6B@ ; CDynamicPoolEx<NEffectUpdateDecorator::CGravityDecorator> `RTTI Type Descriptor'
	DD	00H
	DB	'.?AV?$CDynamicPoolEx@VCGravityDecorator@NEffectUpdateDec'
	DB	'orator@@@@', 00H
data$rs	ENDS
;	COMDAT ??_R4?$CDynamicPoolEx@VCGravityDecorator@NEffectUpdateDecorator@@@@6B@
rdata$r	SEGMENT
??_R4?$CDynamicPoolEx@VCGravityDecorator@NEffectUpdateDecorator@@@@6B@ DD 00H ; CDynamicPoolEx<NEffectUpdateDecorator::CGravityDecorator>::`RTTI Complete Object Locator'
	DD	00H
	DD	00H
	DD	FLAT:??_R0?AV?$CDynamicPoolEx@VCGravityDecorator@NEffectUpdateDecorator@@@@@8
	DD	FLAT:??_R3?$CDynamicPoolEx@VCGravityDecorator@NEffectUpdateDecorator@@@@8
rdata$r	ENDS
;	COMDAT ??_R1A@?0A@EA@?$CDynamicPoolEx@VCAirResistanceDecorator@NEffectUpdateDecorator@@@@8
rdata$r	SEGMENT
??_R1A@?0A@EA@?$CDynamicPoolEx@VCAirResistanceDecorator@NEffectUpdateDecorator@@@@8 DD FLAT:??_R0?AV?$CDynamicPoolEx@VCAirResistanceDecorator@NEffectUpdateDecorator@@@@@8 ; CDynamicPoolEx<NEffectUpdateDecorator::CAirResistanceDecorator>::`RTTI Base Class Descriptor at (0,-1,0,64)'
	DD	00H
	DD	00H
	DD	0ffffffffH
	DD	00H
	DD	040H
	DD	FLAT:??_R3?$CDynamicPoolEx@VCAirResistanceDecorator@NEffectUpdateDecorator@@@@8
rdata$r	ENDS
;	COMDAT ??_R2?$CDynamicPoolEx@VCAirResistanceDecorator@NEffectUpdateDecorator@@@@8
rdata$r	SEGMENT
??_R2?$CDynamicPoolEx@VCAirResistanceDecorator@NEffectUpdateDecorator@@@@8 DD FLAT:??_R1A@?0A@EA@?$CDynamicPoolEx@VCAirResistanceDecorator@NEffectUpdateDecorator@@@@8 ; CDynamicPoolEx<NEffectUpdateDecorator::CAirResistanceDecorator>::`RTTI Base Class Array'
rdata$r	ENDS
;	COMDAT ??_R3?$CDynamicPoolEx@VCAirResistanceDecorator@NEffectUpdateDecorator@@@@8
rdata$r	SEGMENT
??_R3?$CDynamicPoolEx@VCAirResistanceDecorator@NEffectUpdateDecorator@@@@8 DD 00H ; CDynamicPoolEx<NEffectUpdateDecorator::CAirResistanceDecorator>::`RTTI Class Hierarchy Descriptor'
	DD	00H
	DD	01H
	DD	FLAT:??_R2?$CDynamicPoolEx@VCAirResistanceDecorator@NEffectUpdateDecorator@@@@8
rdata$r	ENDS
;	COMDAT ??_R0?AV?$CDynamicPoolEx@VCAirResistanceDecorator@NEffectUpdateDecorator@@@@@8
data$rs	SEGMENT
??_R0?AV?$CDynamicPoolEx@VCAirResistanceDecorator@NEffectUpdateDecorator@@@@@8 DD FLAT:??_7type_info@@6B@ ; CDynamicPoolEx<NEffectUpdateDecorator::CAirResistanceDecorator> `RTTI Type Descriptor'
	DD	00H
	DB	'.?AV?$CDynamicPoolEx@VCAirResistanceDecorator@NEffectUpd'
	DB	'ateDecorator@@@@', 00H
data$rs	ENDS
;	COMDAT ??_R4?$CDynamicPoolEx@VCAirResistanceDecorator@NEffectUpdateDecorator@@@@6B@
rdata$r	SEGMENT
??_R4?$CDynamicPoolEx@VCAirResistanceDecorator@NEffectUpdateDecorator@@@@6B@ DD 00H ; CDynamicPoolEx<NEffectUpdateDecorator::CAirResistanceDecorator>::`RTTI Complete Object Locator'
	DD	00H
	DD	00H
	DD	FLAT:??_R0?AV?$CDynamicPoolEx@VCAirResistanceDecorator@NEffectUpdateDecorator@@@@@8
	DD	FLAT:??_R3?$CDynamicPoolEx@VCAirResistanceDecorator@NEffectUpdateDecorator@@@@8
rdata$r	ENDS
;	COMDAT ??_R1A@?0A@EA@?$CDynamicPoolEx@VCTextureAnimationRandomDecorator@NEffectUpdateDecorator@@@@8
rdata$r	SEGMENT
??_R1A@?0A@EA@?$CDynamicPoolEx@VCTextureAnimationRandomDecorator@NEffectUpdateDecorator@@@@8 DD FLAT:??_R0?AV?$CDynamicPoolEx@VCTextureAnimationRandomDecorator@NEffectUpdateDecorator@@@@@8 ; CDynamicPoolEx<NEffectUpdateDecorator::CTextureAnimationRandomDecorator>::`RTTI Base Class Descriptor at (0,-1,0,64)'
	DD	00H
	DD	00H
	DD	0ffffffffH
	DD	00H
	DD	040H
	DD	FLAT:??_R3?$CDynamicPoolEx@VCTextureAnimationRandomDecorator@NEffectUpdateDecorator@@@@8
rdata$r	ENDS
;	COMDAT ??_R2?$CDynamicPoolEx@VCTextureAnimationRandomDecorator@NEffectUpdateDecorator@@@@8
rdata$r	SEGMENT
??_R2?$CDynamicPoolEx@VCTextureAnimationRandomDecorator@NEffectUpdateDecorator@@@@8 DD FLAT:??_R1A@?0A@EA@?$CDynamicPoolEx@VCTextureAnimationRandomDecorator@NEffectUpdateDecorator@@@@8 ; CDynamicPoolEx<NEffectUpdateDecorator::CTextureAnimationRandomDecorator>::`RTTI Base Class Array'
rdata$r	ENDS
;	COMDAT ??_R3?$CDynamicPoolEx@VCTextureAnimationRandomDecorator@NEffectUpdateDecorator@@@@8
rdata$r	SEGMENT
??_R3?$CDynamicPoolEx@VCTextureAnimationRandomDecorator@NEffectUpdateDecorator@@@@8 DD 00H ; CDynamicPoolEx<NEffectUpdateDecorator::CTextureAnimationRandomDecorator>::`RTTI Class Hierarchy Descriptor'
	DD	00H
	DD	01H
	DD	FLAT:??_R2?$CDynamicPoolEx@VCTextureAnimationRandomDecorator@NEffectUpdateDecorator@@@@8
rdata$r	ENDS
;	COMDAT ??_R0?AV?$CDynamicPoolEx@VCTextureAnimationRandomDecorator@NEffectUpdateDecorator@@@@@8
data$rs	SEGMENT
??_R0?AV?$CDynamicPoolEx@VCTextureAnimationRandomDecorator@NEffectUpdateDecorator@@@@@8 DD FLAT:??_7type_info@@6B@ ; CDynamicPoolEx<NEffectUpdateDecorator::CTextureAnimationRandomDecorator> `RTTI Type Descriptor'
	DD	00H
	DB	'.?AV?$CDynamicPoolEx@VCTextureAnimationRandomDecorator@N'
	DB	'EffectUpdateDecorator@@@@', 00H
data$rs	ENDS
;	COMDAT ??_R4?$CDynamicPoolEx@VCTextureAnimationRandomDecorator@NEffectUpdateDecorator@@@@6B@
rdata$r	SEGMENT
??_R4?$CDynamicPoolEx@VCTextureAnimationRandomDecorator@NEffectUpdateDecorator@@@@6B@ DD 00H ; CDynamicPoolEx<NEffectUpdateDecorator::CTextureAnimationRandomDecorator>::`RTTI Complete Object Locator'
	DD	00H
	DD	00H
	DD	FLAT:??_R0?AV?$CDynamicPoolEx@VCTextureAnimationRandomDecorator@NEffectUpdateDecorator@@@@@8
	DD	FLAT:??_R3?$CDynamicPoolEx@VCTextureAnimationRandomDecorator@NEffectUpdateDecorator@@@@8
rdata$r	ENDS
;	COMDAT ??_R1A@?0A@EA@?$CDynamicPoolEx@VCTextureAnimationCCWDecorator@NEffectUpdateDecorator@@@@8
rdata$r	SEGMENT
??_R1A@?0A@EA@?$CDynamicPoolEx@VCTextureAnimationCCWDecorator@NEffectUpdateDecorator@@@@8 DD FLAT:??_R0?AV?$CDynamicPoolEx@VCTextureAnimationCCWDecorator@NEffectUpdateDecorator@@@@@8 ; CDynamicPoolEx<NEffectUpdateDecorator::CTextureAnimationCCWDecorator>::`RTTI Base Class Descriptor at (0,-1,0,64)'
	DD	00H
	DD	00H
	DD	0ffffffffH
	DD	00H
	DD	040H
	DD	FLAT:??_R3?$CDynamicPoolEx@VCTextureAnimationCCWDecorator@NEffectUpdateDecorator@@@@8
rdata$r	ENDS
;	COMDAT ??_R2?$CDynamicPoolEx@VCTextureAnimationCCWDecorator@NEffectUpdateDecorator@@@@8
rdata$r	SEGMENT
??_R2?$CDynamicPoolEx@VCTextureAnimationCCWDecorator@NEffectUpdateDecorator@@@@8 DD FLAT:??_R1A@?0A@EA@?$CDynamicPoolEx@VCTextureAnimationCCWDecorator@NEffectUpdateDecorator@@@@8 ; CDynamicPoolEx<NEffectUpdateDecorator::CTextureAnimationCCWDecorator>::`RTTI Base Class Array'
rdata$r	ENDS
;	COMDAT ??_R3?$CDynamicPoolEx@VCTextureAnimationCCWDecorator@NEffectUpdateDecorator@@@@8
rdata$r	SEGMENT
??_R3?$CDynamicPoolEx@VCTextureAnimationCCWDecorator@NEffectUpdateDecorator@@@@8 DD 00H ; CDynamicPoolEx<NEffectUpdateDecorator::CTextureAnimationCCWDecorator>::`RTTI Class Hierarchy Descriptor'
	DD	00H
	DD	01H
	DD	FLAT:??_R2?$CDynamicPoolEx@VCTextureAnimationCCWDecorator@NEffectUpdateDecorator@@@@8
rdata$r	ENDS
;	COMDAT ??_R0?AV?$CDynamicPoolEx@VCTextureAnimationCCWDecorator@NEffectUpdateDecorator@@@@@8
data$rs	SEGMENT
??_R0?AV?$CDynamicPoolEx@VCTextureAnimationCCWDecorator@NEffectUpdateDecorator@@@@@8 DD FLAT:??_7type_info@@6B@ ; CDynamicPoolEx<NEffectUpdateDecorator::CTextureAnimationCCWDecorator> `RTTI Type Descriptor'
	DD	00H
	DB	'.?AV?$CDynamicPoolEx@VCTextureAnimationCCWDecorator@NEff'
	DB	'ectUpdateDecorator@@@@', 00H
data$rs	ENDS
;	COMDAT ??_R4?$CDynamicPoolEx@VCTextureAnimationCCWDecorator@NEffectUpdateDecorator@@@@6B@
rdata$r	SEGMENT
??_R4?$CDynamicPoolEx@VCTextureAnimationCCWDecorator@NEffectUpdateDecorator@@@@6B@ DD 00H ; CDynamicPoolEx<NEffectUpdateDecorator::CTextureAnimationCCWDecorator>::`RTTI Complete Object Locator'
	DD	00H
	DD	00H
	DD	FLAT:??_R0?AV?$CDynamicPoolEx@VCTextureAnimationCCWDecorator@NEffectUpdateDecorator@@@@@8
	DD	FLAT:??_R3?$CDynamicPoolEx@VCTextureAnimationCCWDecorator@NEffectUpdateDecorator@@@@8
rdata$r	ENDS
;	COMDAT ??_R1A@?0A@EA@?$CDynamicPoolEx@VCTextureAnimationCWDecorator@NEffectUpdateDecorator@@@@8
rdata$r	SEGMENT
??_R1A@?0A@EA@?$CDynamicPoolEx@VCTextureAnimationCWDecorator@NEffectUpdateDecorator@@@@8 DD FLAT:??_R0?AV?$CDynamicPoolEx@VCTextureAnimationCWDecorator@NEffectUpdateDecorator@@@@@8 ; CDynamicPoolEx<NEffectUpdateDecorator::CTextureAnimationCWDecorator>::`RTTI Base Class Descriptor at (0,-1,0,64)'
	DD	00H
	DD	00H
	DD	0ffffffffH
	DD	00H
	DD	040H
	DD	FLAT:??_R3?$CDynamicPoolEx@VCTextureAnimationCWDecorator@NEffectUpdateDecorator@@@@8
rdata$r	ENDS
;	COMDAT ??_R2?$CDynamicPoolEx@VCTextureAnimationCWDecorator@NEffectUpdateDecorator@@@@8
rdata$r	SEGMENT
??_R2?$CDynamicPoolEx@VCTextureAnimationCWDecorator@NEffectUpdateDecorator@@@@8 DD FLAT:??_R1A@?0A@EA@?$CDynamicPoolEx@VCTextureAnimationCWDecorator@NEffectUpdateDecorator@@@@8 ; CDynamicPoolEx<NEffectUpdateDecorator::CTextureAnimationCWDecorator>::`RTTI Base Class Array'
rdata$r	ENDS
;	COMDAT ??_R3?$CDynamicPoolEx@VCTextureAnimationCWDecorator@NEffectUpdateDecorator@@@@8
rdata$r	SEGMENT
??_R3?$CDynamicPoolEx@VCTextureAnimationCWDecorator@NEffectUpdateDecorator@@@@8 DD 00H ; CDynamicPoolEx<NEffectUpdateDecorator::CTextureAnimationCWDecorator>::`RTTI Class Hierarchy Descriptor'
	DD	00H
	DD	01H
	DD	FLAT:??_R2?$CDynamicPoolEx@VCTextureAnimationCWDecorator@NEffectUpdateDecorator@@@@8
rdata$r	ENDS
;	COMDAT ??_R0?AV?$CDynamicPoolEx@VCTextureAnimationCWDecorator@NEffectUpdateDecorator@@@@@8
data$rs	SEGMENT
??_R0?AV?$CDynamicPoolEx@VCTextureAnimationCWDecorator@NEffectUpdateDecorator@@@@@8 DD FLAT:??_7type_info@@6B@ ; CDynamicPoolEx<NEffectUpdateDecorator::CTextureAnimationCWDecorator> `RTTI Type Descriptor'
	DD	00H
	DB	'.?AV?$CDynamicPoolEx@VCTextureAnimationCWDecorator@NEffe'
	DB	'ctUpdateDecorator@@@@', 00H
data$rs	ENDS
;	COMDAT ??_R4?$CDynamicPoolEx@VCTextureAnimationCWDecorator@NEffectUpdateDecorator@@@@6B@
rdata$r	SEGMENT
??_R4?$CDynamicPoolEx@VCTextureAnimationCWDecorator@NEffectUpdateDecorator@@@@6B@ DD 00H ; CDynamicPoolEx<NEffectUpdateDecorator::CTextureAnimationCWDecorator>::`RTTI Complete Object Locator'
	DD	00H
	DD	00H
	DD	FLAT:??_R0?AV?$CDynamicPoolEx@VCTextureAnimationCWDecorator@NEffectUpdateDecorator@@@@@8
	DD	FLAT:??_R3?$CDynamicPoolEx@VCTextureAnimationCWDecorator@NEffectUpdateDecorator@@@@8
rdata$r	ENDS
;	COMDAT ??_R1A@?0A@EA@?$CDynamicPoolEx@VCNullDecorator@NEffectUpdateDecorator@@@@8
rdata$r	SEGMENT
??_R1A@?0A@EA@?$CDynamicPoolEx@VCNullDecorator@NEffectUpdateDecorator@@@@8 DD FLAT:??_R0?AV?$CDynamicPoolEx@VCNullDecorator@NEffectUpdateDecorator@@@@@8 ; CDynamicPoolEx<NEffectUpdateDecorator::CNullDecorator>::`RTTI Base Class Descriptor at (0,-1,0,64)'
	DD	00H
	DD	00H
	DD	0ffffffffH
	DD	00H
	DD	040H
	DD	FLAT:??_R3?$CDynamicPoolEx@VCNullDecorator@NEffectUpdateDecorator@@@@8
rdata$r	ENDS
;	COMDAT ??_R2?$CDynamicPoolEx@VCNullDecorator@NEffectUpdateDecorator@@@@8
rdata$r	SEGMENT
??_R2?$CDynamicPoolEx@VCNullDecorator@NEffectUpdateDecorator@@@@8 DD FLAT:??_R1A@?0A@EA@?$CDynamicPoolEx@VCNullDecorator@NEffectUpdateDecorator@@@@8 ; CDynamicPoolEx<NEffectUpdateDecorator::CNullDecorator>::`RTTI Base Class Array'
rdata$r	ENDS
;	COMDAT ??_R3?$CDynamicPoolEx@VCNullDecorator@NEffectUpdateDecorator@@@@8
rdata$r	SEGMENT
??_R3?$CDynamicPoolEx@VCNullDecorator@NEffectUpdateDecorator@@@@8 DD 00H ; CDynamicPoolEx<NEffectUpdateDecorator::CNullDecorator>::`RTTI Class Hierarchy Descriptor'
	DD	00H
	DD	01H
	DD	FLAT:??_R2?$CDynamicPoolEx@VCNullDecorator@NEffectUpdateDecorator@@@@8
rdata$r	ENDS
;	COMDAT ??_R0?AV?$CDynamicPoolEx@VCNullDecorator@NEffectUpdateDecorator@@@@@8
data$rs	SEGMENT
??_R0?AV?$CDynamicPoolEx@VCNullDecorator@NEffectUpdateDecorator@@@@@8 DD FLAT:??_7type_info@@6B@ ; CDynamicPoolEx<NEffectUpdateDecorator::CNullDecorator> `RTTI Type Descriptor'
	DD	00H
	DB	'.?AV?$CDynamicPoolEx@VCNullDecorator@NEffectUpdateDecora'
	DB	'tor@@@@', 00H
data$rs	ENDS
;	COMDAT ??_R4?$CDynamicPoolEx@VCNullDecorator@NEffectUpdateDecorator@@@@6B@
rdata$r	SEGMENT
??_R4?$CDynamicPoolEx@VCNullDecorator@NEffectUpdateDecorator@@@@6B@ DD 00H ; CDynamicPoolEx<NEffectUpdateDecorator::CNullDecorator>::`RTTI Complete Object Locator'
	DD	00H
	DD	00H
	DD	FLAT:??_R0?AV?$CDynamicPoolEx@VCNullDecorator@NEffectUpdateDecorator@@@@@8
	DD	FLAT:??_R3?$CDynamicPoolEx@VCNullDecorator@NEffectUpdateDecorator@@@@8
rdata$r	ENDS
;	COMDAT ??_R1A@?0A@EA@?$CDynamicPoolEx@VCHeaderDecorator@NEffectUpdateDecorator@@@@8
rdata$r	SEGMENT
??_R1A@?0A@EA@?$CDynamicPoolEx@VCHeaderDecorator@NEffectUpdateDecorator@@@@8 DD FLAT:??_R0?AV?$CDynamicPoolEx@VCHeaderDecorator@NEffectUpdateDecorator@@@@@8 ; CDynamicPoolEx<NEffectUpdateDecorator::CHeaderDecorator>::`RTTI Base Class Descriptor at (0,-1,0,64)'
	DD	00H
	DD	00H
	DD	0ffffffffH
	DD	00H
	DD	040H
	DD	FLAT:??_R3?$CDynamicPoolEx@VCHeaderDecorator@NEffectUpdateDecorator@@@@8
rdata$r	ENDS
;	COMDAT ??_R2?$CDynamicPoolEx@VCHeaderDecorator@NEffectUpdateDecorator@@@@8
rdata$r	SEGMENT
??_R2?$CDynamicPoolEx@VCHeaderDecorator@NEffectUpdateDecorator@@@@8 DD FLAT:??_R1A@?0A@EA@?$CDynamicPoolEx@VCHeaderDecorator@NEffectUpdateDecorator@@@@8 ; CDynamicPoolEx<NEffectUpdateDecorator::CHeaderDecorator>::`RTTI Base Class Array'
rdata$r	ENDS
;	COMDAT ??_R3?$CDynamicPoolEx@VCHeaderDecorator@NEffectUpdateDecorator@@@@8
rdata$r	SEGMENT
??_R3?$CDynamicPoolEx@VCHeaderDecorator@NEffectUpdateDecorator@@@@8 DD 00H ; CDynamicPoolEx<NEffectUpdateDecorator::CHeaderDecorator>::`RTTI Class Hierarchy Descriptor'
	DD	00H
	DD	01H
	DD	FLAT:??_R2?$CDynamicPoolEx@VCHeaderDecorator@NEffectUpdateDecorator@@@@8
rdata$r	ENDS
;	COMDAT ??_R0?AV?$CDynamicPoolEx@VCHeaderDecorator@NEffectUpdateDecorator@@@@@8
data$rs	SEGMENT
??_R0?AV?$CDynamicPoolEx@VCHeaderDecorator@NEffectUpdateDecorator@@@@@8 DD FLAT:??_7type_info@@6B@ ; CDynamicPoolEx<NEffectUpdateDecorator::CHeaderDecorator> `RTTI Type Descriptor'
	DD	00H
	DB	'.?AV?$CDynamicPoolEx@VCHeaderDecorator@NEffectUpdateDeco'
	DB	'rator@@@@', 00H
data$rs	ENDS
;	COMDAT ??_R4?$CDynamicPoolEx@VCHeaderDecorator@NEffectUpdateDecorator@@@@6B@
rdata$r	SEGMENT
??_R4?$CDynamicPoolEx@VCHeaderDecorator@NEffectUpdateDecorator@@@@6B@ DD 00H ; CDynamicPoolEx<NEffectUpdateDecorator::CHeaderDecorator>::`RTTI Complete Object Locator'
	DD	00H
	DD	00H
	DD	FLAT:??_R0?AV?$CDynamicPoolEx@VCHeaderDecorator@NEffectUpdateDecorator@@@@@8
	DD	FLAT:??_R3?$CDynamicPoolEx@VCHeaderDecorator@NEffectUpdateDecorator@@@@8
rdata$r	ENDS
CONST	SEGMENT
?CLSID_MP43DMOCodec@@3U_GUID@@B DD 0cba9e78bH		; CLSID_MP43DMOCodec
	DW	049a3H
	DW	049eaH
	DB	093H
	DB	0d4H
	DB	06bH
	DB	0cbH
	DB	0a8H
	DB	0c4H
	DB	0deH
	DB	07H
?CLSID_MP4VideoCodec@@3U_GUID@@B DD 082ccd3e0H		; CLSID_MP4VideoCodec
	DW	0f71aH
	DW	011d0H
	DB	09fH
	DB	0e5H
	DB	00H
	DB	060H
	DB	097H
	DB	078H
	DB	0eaH
	DB	066H
CONST	ENDS
PUBLIC	??_H@YGXPAXIIP6EPAX0@Z@Z			; `vector constructor iterator'
PUBLIC	?__empty_global_delete@@YAXPAX@Z		; __empty_global_delete
PUBLIC	?__empty_global_delete@@YAXPAXI@Z		; __empty_global_delete
PUBLIC	??1?$basic_string@DU?$char_traits@D@std@@V?$allocator@D@2@@std@@QAE@XZ ; std::basic_string<char,std::char_traits<char>,std::allocator<char> >::~basic_string<char,std::char_traits<char>,std::allocator<char> >
PUBLIC	??$_Destroy_in_place@PAD@std@@YAXAAPAD@Z	; std::_Destroy_in_place<char *>
PUBLIC	??$_Deallocate@$07$0A@@std@@YAXPAXI@Z		; std::_Deallocate<8,0>
PUBLIC	?ClearToBlack@CMovieMan@@QAEXXZ			; CMovieMan::ClearToBlack
PUBLIC	?PlayLogo@CMovieMan@@QAEXPBD@Z			; CMovieMan::PlayLogo
PUBLIC	?PlayIntro@CMovieMan@@QAEXXZ			; CMovieMan::PlayIntro
PUBLIC	?PlayTutorial@CMovieMan@@QAEHJ@Z		; CMovieMan::PlayTutorial
PUBLIC	?FillRect@CMovieMan@@AAEXAAUtagRECT@@K@Z	; CMovieMan::FillRect
PUBLIC	?GetWindowRect@CMovieMan@@AAEXAAUtagRECT@@@Z	; CMovieMan::GetWindowRect
PUBLIC	?CalcMovieRect@CMovieMan@@AAEXHHAAUtagRECT@@@Z	; CMovieMan::CalcMovieRect
PUBLIC	?CalcBackgroundRect@CMovieMan@@AAEXABUtagRECT@@AAU2@1@Z ; CMovieMan::CalcBackgroundRect
PUBLIC	?PlayMovie@CMovieMan@@AAEHPBD_NHK@Z		; CMovieMan::PlayMovie
PUBLIC	?BuildFilterGraphManually@CMovieMan@@AAEJPA_WPAUIAMMultiMediaStream@@U_GUID@@22@Z ; CMovieMan::BuildFilterGraphManually
PUBLIC	?RenderFileToMMStream@CMovieMan@@AAEJPBDPAPAUIMultiMediaStream@@PAUIDirectDraw@@@Z ; CMovieMan::RenderFileToMMStream
PUBLIC	?RenderStreamToSurface@CMovieMan@@AAEJPAUIDirectDrawSurface@@PAUIDirectDrawMediaStream@@PAUIMultiMediaStream@@_NHK@Z ; CMovieMan::RenderStreamToSurface
PUBLIC	?RenderPostEffectFadeOut@CMovieMan@@AAEJPAUIDirectDrawSurface@@HK@Z ; CMovieMan::RenderPostEffectFadeOut
PUBLIC	??$?8DU?$char_traits@D@std@@V?$allocator@D@1@@std@@YA_NABV?$basic_string@DU?$char_traits@D@std@@V?$allocator@D@2@@0@QBD@Z ; std::operator==<char,std::char_traits<char>,std::allocator<char> >
PUBLIC	??1?$CDynamicPoolEx@VCRotationDecorator@NEffectUpdateDecorator@@@@UAE@XZ ; CDynamicPoolEx<NEffectUpdateDecorator::CRotationDecorator>::~CDynamicPoolEx<NEffectUpdateDecorator::CRotationDecorator>
PUBLIC	?Delete@?$CDynamicPoolEx@VCRotationDecorator@NEffectUpdateDecorator@@@@KAXPAVCRotationDecorator@NEffectUpdateDecorator@@@Z ; CDynamicPoolEx<NEffectUpdateDecorator::CRotationDecorator>::Delete
PUBLIC	??1?$CDynamicPoolEx@VCGravityDecorator@NEffectUpdateDecorator@@@@UAE@XZ ; CDynamicPoolEx<NEffectUpdateDecorator::CGravityDecorator>::~CDynamicPoolEx<NEffectUpdateDecorator::CGravityDecorator>
PUBLIC	?Delete@?$CDynamicPoolEx@VCGravityDecorator@NEffectUpdateDecorator@@@@KAXPAVCGravityDecorator@NEffectUpdateDecorator@@@Z ; CDynamicPoolEx<NEffectUpdateDecorator::CGravityDecorator>::Delete
PUBLIC	??1?$CDynamicPoolEx@VCAirResistanceDecorator@NEffectUpdateDecorator@@@@UAE@XZ ; CDynamicPoolEx<NEffectUpdateDecorator::CAirResistanceDecorator>::~CDynamicPoolEx<NEffectUpdateDecorator::CAirResistanceDecorator>
PUBLIC	?Delete@?$CDynamicPoolEx@VCAirResistanceDecorator@NEffectUpdateDecorator@@@@KAXPAVCAirResistanceDecorator@NEffectUpdateDecorator@@@Z ; CDynamicPoolEx<NEffectUpdateDecorator::CAirResistanceDecorator>::Delete
PUBLIC	??1?$CDynamicPoolEx@VCTextureAnimationRandomDecorator@NEffectUpdateDecorator@@@@UAE@XZ ; CDynamicPoolEx<NEffectUpdateDecorator::CTextureAnimationRandomDecorator>::~CDynamicPoolEx<NEffectUpdateDecorator::CTextureAnimationRandomDecorator>
PUBLIC	?Delete@?$CDynamicPoolEx@VCTextureAnimationRandomDecorator@NEffectUpdateDecorator@@@@KAXPAVCTextureAnimationRandomDecorator@NEffectUpdateDecorator@@@Z ; CDynamicPoolEx<NEffectUpdateDecorator::CTextureAnimationRandomDecorator>::Delete
PUBLIC	??1?$CDynamicPoolEx@VCTextureAnimationCCWDecorator@NEffectUpdateDecorator@@@@UAE@XZ ; CDynamicPoolEx<NEffectUpdateDecorator::CTextureAnimationCCWDecorator>::~CDynamicPoolEx<NEffectUpdateDecorator::CTextureAnimationCCWDecorator>
PUBLIC	?Delete@?$CDynamicPoolEx@VCTextureAnimationCCWDecorator@NEffectUpdateDecorator@@@@KAXPAVCTextureAnimationCCWDecorator@NEffectUpdateDecorator@@@Z ; CDynamicPoolEx<NEffectUpdateDecorator::CTextureAnimationCCWDecorator>::Delete
PUBLIC	??1?$CDynamicPoolEx@VCTextureAnimationCWDecorator@NEffectUpdateDecorator@@@@UAE@XZ ; CDynamicPoolEx<NEffectUpdateDecorator::CTextureAnimationCWDecorator>::~CDynamicPoolEx<NEffectUpdateDecorator::CTextureAnimationCWDecorator>
PUBLIC	?Delete@?$CDynamicPoolEx@VCTextureAnimationCWDecorator@NEffectUpdateDecorator@@@@KAXPAVCTextureAnimationCWDecorator@NEffectUpdateDecorator@@@Z ; CDynamicPoolEx<NEffectUpdateDecorator::CTextureAnimationCWDecorator>::Delete
PUBLIC	??1?$CDynamicPoolEx@VCNullDecorator@NEffectUpdateDecorator@@@@UAE@XZ ; CDynamicPoolEx<NEffectUpdateDecorator::CNullDecorator>::~CDynamicPoolEx<NEffectUpdateDecorator::CNullDecorator>
PUBLIC	?Delete@?$CDynamicPoolEx@VCNullDecorator@NEffectUpdateDecorator@@@@KAXPAVCNullDecorator@NEffectUpdateDecorator@@@Z ; CDynamicPoolEx<NEffectUpdateDecorator::CNullDecorator>::Delete
PUBLIC	??1?$CDynamicPoolEx@VCHeaderDecorator@NEffectUpdateDecorator@@@@UAE@XZ ; CDynamicPoolEx<NEffectUpdateDecorator::CHeaderDecorator>::~CDynamicPoolEx<NEffectUpdateDecorator::CHeaderDecorator>
PUBLIC	?Delete@?$CDynamicPoolEx@VCHeaderDecorator@NEffectUpdateDecorator@@@@KAXPAVCHeaderDecorator@NEffectUpdateDecorator@@@Z ; CDynamicPoolEx<NEffectUpdateDecorator::CHeaderDecorator>::Delete
PUBLIC	??$_Refancy@PAD$0A@@std@@YAPADPAD@Z		; std::_Refancy<char *,0>
PUBLIC	??$_Destroy_range@V?$allocator@PAVCHeaderDecorator@NEffectUpdateDecorator@@@std@@@std@@YAXPAPAVCHeaderDecorator@NEffectUpdateDecorator@@QAPAV12@AAV?$allocator@PAVCHeaderDecorator@NEffectUpdateDecorator@@@0@@Z ; std::_Destroy_range<std::allocator<NEffectUpdateDecorator::CHeaderDecorator *> >
PUBLIC	??$_Destroy_range@V?$allocator@PAVCNullDecorator@NEffectUpdateDecorator@@@std@@@std@@YAXPAPAVCNullDecorator@NEffectUpdateDecorator@@QAPAV12@AAV?$allocator@PAVCNullDecorator@NEffectUpdateDecorator@@@0@@Z ; std::_Destroy_range<std::allocator<NEffectUpdateDecorator::CNullDecorator *> >
PUBLIC	??$_Destroy_range@V?$allocator@PAVCTextureAnimationCWDecorator@NEffectUpdateDecorator@@@std@@@std@@YAXPAPAVCTextureAnimationCWDecorator@NEffectUpdateDecorator@@QAPAV12@AAV?$allocator@PAVCTextureAnimationCWDecorator@NEffectUpdateDecorator@@@0@@Z ; std::_Destroy_range<std::allocator<NEffectUpdateDecorator::CTextureAnimationCWDecorator *> >
PUBLIC	??$_Destroy_range@V?$allocator@PAVCTextureAnimationCCWDecorator@NEffectUpdateDecorator@@@std@@@std@@YAXPAPAVCTextureAnimationCCWDecorator@NEffectUpdateDecorator@@QAPAV12@AAV?$allocator@PAVCTextureAnimationCCWDecorator@NEffectUpdateDecorator@@@0@@Z ; std::_Destroy_range<std::allocator<NEffectUpdateDecorator::CTextureAnimationCCWDecorator *> >
PUBLIC	??$_Destroy_range@V?$allocator@PAVCTextureAnimationRandomDecorator@NEffectUpdateDecorator@@@std@@@std@@YAXPAPAVCTextureAnimationRandomDecorator@NEffectUpdateDecorator@@QAPAV12@AAV?$allocator@PAVCTextureAnimationRandomDecorator@NEffectUpdateDecorator@@@0@@Z ; std::_Destroy_range<std::allocator<NEffectUpdateDecorator::CTextureAnimationRandomDecorator *> >
PUBLIC	??$_Destroy_range@V?$allocator@PAVCAirResistanceDecorator@NEffectUpdateDecorator@@@std@@@std@@YAXPAPAVCAirResistanceDecorator@NEffectUpdateDecorator@@QAPAV12@AAV?$allocator@PAVCAirResistanceDecorator@NEffectUpdateDecorator@@@0@@Z ; std::_Destroy_range<std::allocator<NEffectUpdateDecorator::CAirResistanceDecorator *> >
PUBLIC	??$_Destroy_range@V?$allocator@PAVCGravityDecorator@NEffectUpdateDecorator@@@std@@@std@@YAXPAPAVCGravityDecorator@NEffectUpdateDecorator@@QAPAV12@AAV?$allocator@PAVCGravityDecorator@NEffectUpdateDecorator@@@0@@Z ; std::_Destroy_range<std::allocator<NEffectUpdateDecorator::CGravityDecorator *> >
PUBLIC	??$_Destroy_range@V?$allocator@PAVCRotationDecorator@NEffectUpdateDecorator@@@std@@@std@@YAXPAPAVCRotationDecorator@NEffectUpdateDecorator@@QAPAV12@AAV?$allocator@PAVCRotationDecorator@NEffectUpdateDecorator@@@0@@Z ; std::_Destroy_range<std::allocator<NEffectUpdateDecorator::CRotationDecorator *> >
PUBLIC	??$_Traits_equal@U?$char_traits@D@std@@@std@@YA_NQBDI0I@Z ; std::_Traits_equal<std::char_traits<char> >
PUBLIC	??$_Refancy@PBD$0A@@std@@YAPBDPBD@Z		; std::_Refancy<char const *,0>
PUBLIC	?ms_kPool@?$CPooledObject@VCHeaderDecorator@NEffectUpdateDecorator@@@@1V?$CDynamicPoolEx@VCHeaderDecorator@NEffectUpdateDecorator@@@@A ; CPooledObject<NEffectUpdateDecorator::CHeaderDecorator>::ms_kPool
PUBLIC	?ms_kPool@?$CPooledObject@VCNullDecorator@NEffectUpdateDecorator@@@@1V?$CDynamicPoolEx@VCNullDecorator@NEffectUpdateDecorator@@@@A ; CPooledObject<NEffectUpdateDecorator::CNullDecorator>::ms_kPool
PUBLIC	?ms_kPool@?$CPooledObject@VCTextureAnimationCWDecorator@NEffectUpdateDecorator@@@@1V?$CDynamicPoolEx@VCTextureAnimationCWDecorator@NEffectUpdateDecorator@@@@A ; CPooledObject<NEffectUpdateDecorator::CTextureAnimationCWDecorator>::ms_kPool
PUBLIC	?ms_kPool@?$CPooledObject@VCTextureAnimationCCWDecorator@NEffectUpdateDecorator@@@@1V?$CDynamicPoolEx@VCTextureAnimationCCWDecorator@NEffectUpdateDecorator@@@@A ; CPooledObject<NEffectUpdateDecorator::CTextureAnimationCCWDecorator>::ms_kPool
PUBLIC	?ms_kPool@?$CPooledObject@VCTextureAnimationRandomDecorator@NEffectUpdateDecorator@@@@1V?$CDynamicPoolEx@VCTextureAnimationRandomDecorator@NEffectUpdateDecorator@@@@A ; CPooledObject<NEffectUpdateDecorator::CTextureAnimationRandomDecorator>::ms_kPool
PUBLIC	?ms_kPool@?$CPooledObject@VCAirResistanceDecorator@NEffectUpdateDecorator@@@@1V?$CDynamicPoolEx@VCAirResistanceDecorator@NEffectUpdateDecorator@@@@A ; CPooledObject<NEffectUpdateDecorator::CAirResistanceDecorator>::ms_kPool
PUBLIC	?ms_kPool@?$CPooledObject@VCGravityDecorator@NEffectUpdateDecorator@@@@1V?$CDynamicPoolEx@VCGravityDecorator@NEffectUpdateDecorator@@@@A ; CPooledObject<NEffectUpdateDecorator::CGravityDecorator>::ms_kPool
PUBLIC	?ms_kPool@?$CPooledObject@VCRotationDecorator@NEffectUpdateDecorator@@@@1V?$CDynamicPoolEx@VCRotationDecorator@NEffectUpdateDecorator@@@@A ; CPooledObject<NEffectUpdateDecorator::CRotationDecorator>::ms_kPool
PUBLIC	??_C@_09MGJJCKGJ@intro?4mpg@			; `string'
PUBLIC	??_C@_0BM@JFEKAACJ@TutorialMovie?2Tutorial0?4mpg@ ; `string'
PUBLIC	??_C@_0BM@FOBGNDIM@TutorialMovie?2Tutorial1?4mpg@ ; `string'
PUBLIC	??_C@_0BM@NIICKBCC@TutorialMovie?2Tutorial2?4mpg@ ; `string'
PUBLIC	??_C@_13FPGAJAPJ@?$AA?2@			; `string'
PUBLIC	??_C@_03GJLKJKAN@mpg@				; `string'
PUBLIC	??_C@_04OEEJDDPO@mp43@				; `string'
PUBLIC	??_C@_1BM@KFENCCEP@?$AAS?$AAo?$AAu?$AAr?$AAc?$AAe?$AA?5?$AAF?$AAi?$AAl?$AAt?$AAe?$AAr@ ; `string'
PUBLIC	??_C@_1BC@GEEOHGFK@?$AAS?$AAp?$AAl?$AAi?$AAt?$AAt?$AAe?$AAr@ ; `string'
PUBLIC	??_C@_1BM@DBOEKKK@?$AAV?$AAi?$AAd?$AAe?$AAo?$AA?5?$AAD?$AAe?$AAc?$AAo?$AAd?$AAe?$AAr@ ; `string'
PUBLIC	??_C@_1BM@CMEFDNDD@?$AAA?$AAu?$AAd?$AAi?$AAo?$AA?5?$AAD?$AAe?$AAc?$AAo?$AAd?$AAe?$AAr@ ; `string'
PUBLIC	__real@3f800000
PUBLIC	__real@c61c4000
PUBLIC	__xmm@41f00000000000000000000000000000
EXTRN	??3@YAXPAX@Z:PROC				; operator delete
EXTRN	??3@YAXPAXI@Z:PROC				; operator delete
EXTRN	_atexit:PROC
EXTRN	__invalid_parameter_noinfo_noreturn:PROC
EXTRN	_free:PROC
EXTRN	_malloc:PROC
EXTRN	_tolower:PROC
EXTRN	_wcsnlen:PROC
EXTRN	_wcsncat:PROC
EXTRN	_wcsncpy:PROC
EXTRN	__imp__GetCurrentDirectoryW@8:PROC
EXTRN	__imp__GetTickCount@0:PROC
EXTRN	__imp__CreateSolidBrush@4:PROC
EXTRN	__imp__DeleteObject@4:PROC
EXTRN	__imp__PatBlt@24:PROC
EXTRN	__imp__StretchBlt@44:PROC
EXTRN	__imp__PeekMessageA@20:PROC
EXTRN	__imp__GetAsyncKeyState@4:PROC
EXTRN	__imp__GetDC@4:PROC
EXTRN	__imp__ReleaseDC@8:PROC
EXTRN	__imp__BeginPaint@8:PROC
EXTRN	__imp__EndPaint@8:PROC
EXTRN	__imp__InvalidateRect@12:PROC
EXTRN	__imp__GetClientRect@8:PROC
EXTRN	__imp__ClientToScreen@8:PROC
EXTRN	__imp__FillRect@12:PROC
EXTRN	__imp__SetRect@20:PROC
EXTRN	__imp__OffsetRect@12:PROC
EXTRN	__imp__MultiByteToWideChar@24:PROC
EXTRN	__imp__CoCreateInstance@20:PROC
EXTRN	?GetFileExtension@@YAXPBDHPAV?$basic_string@DU?$char_traits@D@std@@V?$allocator@D@2@@std@@@Z:PROC ; GetFileExtension
EXTRN	_DirectDrawCreate@12:PROC
EXTRN	?GetWindowHandle@CMSWindow@@QAEPAUHWND__@@XZ:PROC ; CMSWindow::GetWindowHandle
EXTRN	@__security_check_cookie@4:PROC
EXTRN	___CxxFrameHandler3:PROC
EXTRN	_memcpy:PROC
EXTRN	_memset:PROC
EXTRN	_IID_IBaseFilter:BYTE
EXTRN	_IID_IBasicAudio:BYTE
EXTRN	_CLSID_MPEG1Splitter:BYTE
EXTRN	_CLSID_CMpegVideoCodec:BYTE
EXTRN	_CLSID_CMpegAudioCodec:BYTE
EXTRN	_CLSID_AviSplitter:BYTE
EXTRN	_MSPID_PrimaryVideo:BYTE
EXTRN	_MSPID_PrimaryAudio:BYTE
EXTRN	_IID_IMultiMediaStream:BYTE
EXTRN	_IID_IDirectDrawMediaStream:BYTE
EXTRN	_IID_IAMMultiMediaStream:BYTE
EXTRN	_CLSID_AMMultiMediaStream:BYTE
EXTRN	?ms_pInstance@CPythonApplication@@1PAV1@A:DWORD	; CPythonApplication::ms_pInstance
EXTRN	_CLSID_DMOWrapperFilter:BYTE
EXTRN	_IID_IDMOWrapperFilter:BYTE
EXTRN	_DMOCATEGORY_VIDEO_DECODER:BYTE
EXTRN	___security_cookie:DWORD
EXTRN	__fltused:DWORD
;	COMDAT CRT$XCU
CRT$XCU	SEGMENT
??ms_kPool$initializer$@?$CPooledObject@VCHeaderDecorator@NEffectUpdateDecorator@@@@1P6AXXZA@@3P6AXXZA DD FLAT:??__E?ms_kPool@?$CPooledObject@VCHeaderDecorator@NEffectUpdateDecorator@@@@1V?$CDynamicPoolEx@VCHeaderDecorator@NEffectUpdateDecorator@@@@A@@YAXXZ ; ??ms_kPool$initializer$@?$CPooledObject@VCHeaderDecorator@NEffectUpdateDecorator@@@@1P6AXXZA@@3P6AXXZA
CRT$XCU	ENDS
;	COMDAT __xmm@41f00000000000000000000000000000
CONST	SEGMENT
__xmm@41f00000000000000000000000000000 DB 00H, 00H, 00H, 00H, 00H, 00H, 00H
	DB	00H, 00H, 00H, 00H, 00H, 00H, 00H, 0f0H, 'A'
CONST	ENDS
;	COMDAT __real@c61c4000
CONST	SEGMENT
__real@c61c4000 DD 0c61c4000r			; -10000
CONST	ENDS
;	COMDAT __real@3f800000
CONST	SEGMENT
__real@3f800000 DD 03f800000r			; 1
CONST	ENDS
;	COMDAT ??_C@_1BM@CMEFDNDD@?$AAA?$AAu?$AAd?$AAi?$AAo?$AA?5?$AAD?$AAe?$AAc?$AAo?$AAd?$AAe?$AAr@
CONST	SEGMENT
??_C@_1BM@CMEFDNDD@?$AAA?$AAu?$AAd?$AAi?$AAo?$AA?5?$AAD?$AAe?$AAc?$AAo?$AAd?$AAe?$AAr@ DB 'A'
	DB	00H, 'u', 00H, 'd', 00H, 'i', 00H, 'o', 00H, ' ', 00H, 'D', 00H
	DB	'e', 00H, 'c', 00H, 'o', 00H, 'd', 00H, 'e', 00H, 'r', 00H, 00H
	DB	00H						; `string'
CONST	ENDS
;	COMDAT ??_C@_1BM@DBOEKKK@?$AAV?$AAi?$AAd?$AAe?$AAo?$AA?5?$AAD?$AAe?$AAc?$AAo?$AAd?$AAe?$AAr@
CONST	SEGMENT
??_C@_1BM@DBOEKKK@?$AAV?$AAi?$AAd?$AAe?$AAo?$AA?5?$AAD?$AAe?$AAc?$AAo?$AAd?$AAe?$AAr@ DB 'V'
	DB	00H, 'i', 00H, 'd', 00H, 'e', 00H, 'o', 00H, ' ', 00H, 'D', 00H
	DB	'e', 00H, 'c', 00H, 'o', 00H, 'd', 00H, 'e', 00H, 'r', 00H, 00H
	DB	00H						; `string'
CONST	ENDS
;	COMDAT ??_C@_1BC@GEEOHGFK@?$AAS?$AAp?$AAl?$AAi?$AAt?$AAt?$AAe?$AAr@
CONST	SEGMENT
??_C@_1BC@GEEOHGFK@?$AAS?$AAp?$AAl?$AAi?$AAt?$AAt?$AAe?$AAr@ DB 'S', 00H, 'p'
	DB	00H, 'l', 00H, 'i', 00H, 't', 00H, 't', 00H, 'e', 00H, 'r', 00H
	DB	00H, 00H					; `string'
CONST	ENDS
;	COMDAT ??_C@_1BM@KFENCCEP@?$AAS?$AAo?$AAu?$AAr?$AAc?$AAe?$AA?5?$AAF?$AAi?$AAl?$AAt?$AAe?$AAr@
CONST	SEGMENT
??_C@_1BM@KFENCCEP@?$AAS?$AAo?$AAu?$AAr?$AAc?$AAe?$AA?5?$AAF?$AAi?$AAl?$AAt?$AAe?$AAr@ DB 'S'
	DB	00H, 'o', 00H, 'u', 00H, 'r', 00H, 'c', 00H, 'e', 00H, ' ', 00H
	DB	'F', 00H, 'i', 00H, 'l', 00H, 't', 00H, 'e', 00H, 'r', 00H, 00H
	DB	00H						; `string'
CONST	ENDS
;	COMDAT ??_C@_04OEEJDDPO@mp43@
CONST	SEGMENT
??_C@_04OEEJDDPO@mp43@ DB 'mp43', 00H			; `string'
CONST	ENDS
;	COMDAT ??_C@_03GJLKJKAN@mpg@
CONST	SEGMENT
??_C@_03GJLKJKAN@mpg@ DB 'mpg', 00H			; `string'
CONST	ENDS
;	COMDAT ??_C@_13FPGAJAPJ@?$AA?2@
CONST	SEGMENT
??_C@_13FPGAJAPJ@?$AA?2@ DB '\', 00H, 00H, 00H		; `string'
CONST	ENDS
;	COMDAT ??_C@_0BM@NIICKBCC@TutorialMovie?2Tutorial2?4mpg@
CONST	SEGMENT
??_C@_0BM@NIICKBCC@TutorialMovie?2Tutorial2?4mpg@ DB 'TutorialMovie\Tutor'
	DB	'ial2.mpg', 00H				; `string'
CONST	ENDS
;	COMDAT ??_C@_0BM@FOBGNDIM@TutorialMovie?2Tutorial1?4mpg@
CONST	SEGMENT
??_C@_0BM@FOBGNDIM@TutorialMovie?2Tutorial1?4mpg@ DB 'TutorialMovie\Tutor'
	DB	'ial1.mpg', 00H				; `string'
CONST	ENDS
;	COMDAT ??_C@_0BM@JFEKAACJ@TutorialMovie?2Tutorial0?4mpg@
CONST	SEGMENT
??_C@_0BM@JFEKAACJ@TutorialMovie?2Tutorial0?4mpg@ DB 'TutorialMovie\Tutor'
	DB	'ial0.mpg', 00H				; `string'
CONST	ENDS
;	COMDAT ??_C@_09MGJJCKGJ@intro?4mpg@
CONST	SEGMENT
??_C@_09MGJJCKGJ@intro?4mpg@ DB 'intro.mpg', 00H	; `string'
CONST	ENDS
;	COMDAT ?ms_kPool@?$CPooledObject@VCRotationDecorator@NEffectUpdateDecorator@@@@1V?$CDynamicPoolEx@VCRotationDecorator@NEffectUpdateDecorator@@@@A
_DATA	SEGMENT
?ms_kPool@?$CPooledObject@VCRotationDecorator@NEffectUpdateDecorator@@@@1V?$CDynamicPoolEx@VCRotationDecorator@NEffectUpdateDecorator@@@@A DD FLAT:??_7?$CDynamicPoolEx@VCRotationDecorator@NEffectUpdateDecorator@@@@6B@ ; CPooledObject<NEffectUpdateDecorator::CRotationDecorator>::ms_kPool
	DD	00H
	DD	00H
	DD	00H
	DD	00H
	DD	00H
	DD	00H
	DD	00H
	DD	00H
_DATA	ENDS
;	COMDAT ?ms_kPool@?$CPooledObject@VCGravityDecorator@NEffectUpdateDecorator@@@@1V?$CDynamicPoolEx@VCGravityDecorator@NEffectUpdateDecorator@@@@A
_DATA	SEGMENT
?ms_kPool@?$CPooledObject@VCGravityDecorator@NEffectUpdateDecorator@@@@1V?$CDynamicPoolEx@VCGravityDecorator@NEffectUpdateDecorator@@@@A DD FLAT:??_7?$CDynamicPoolEx@VCGravityDecorator@NEffectUpdateDecorator@@@@6B@ ; CPooledObject<NEffectUpdateDecorator::CGravityDecorator>::ms_kPool
	DD	00H
	DD	00H
	DD	00H
	DD	00H
	DD	00H
	DD	00H
	DD	00H
	DD	00H
_DATA	ENDS
;	COMDAT ?ms_kPool@?$CPooledObject@VCAirResistanceDecorator@NEffectUpdateDecorator@@@@1V?$CDynamicPoolEx@VCAirResistanceDecorator@NEffectUpdateDecorator@@@@A
_DATA	SEGMENT
?ms_kPool@?$CPooledObject@VCAirResistanceDecorator@NEffectUpdateDecorator@@@@1V?$CDynamicPoolEx@VCAirResistanceDecorator@NEffectUpdateDecorator@@@@A DD FLAT:??_7?$CDynamicPoolEx@VCAirResistanceDecorator@NEffectUpdateDecorator@@@@6B@ ; CPooledObject<NEffectUpdateDecorator::CAirResistanceDecorator>::ms_kPool
	DD	00H
	DD	00H
	DD	00H
	DD	00H
	DD	00H
	DD	00H
	DD	00H
	DD	00H
_DATA	ENDS
;	COMDAT ?ms_kPool@?$CPooledObject@VCTextureAnimationRandomDecorator@NEffectUpdateDecorator@@@@1V?$CDynamicPoolEx@VCTextureAnimationRandomDecorator@NEffectUpdateDecorator@@@@A
_DATA	SEGMENT
?ms_kPool@?$CPooledObject@VCTextureAnimationRandomDecorator@NEffectUpdateDecorator@@@@1V?$CDynamicPoolEx@VCTextureAnimationRandomDecorator@NEffectUpdateDecorator@@@@A DD FLAT:??_7?$CDynamicPoolEx@VCTextureAnimationRandomDecorator@NEffectUpdateDecorator@@@@6B@ ; CPooledObject<NEffectUpdateDecorator::CTextureAnimationRandomDecorator>::ms_kPool
	DD	00H
	DD	00H
	DD	00H
	DD	00H
	DD	00H
	DD	00H
	DD	00H
	DD	00H
_DATA	ENDS
;	COMDAT ?ms_kPool@?$CPooledObject@VCTextureAnimationCCWDecorator@NEffectUpdateDecorator@@@@1V?$CDynamicPoolEx@VCTextureAnimationCCWDecorator@NEffectUpdateDecorator@@@@A
_DATA	SEGMENT
?ms_kPool@?$CPooledObject@VCTextureAnimationCCWDecorator@NEffectUpdateDecorator@@@@1V?$CDynamicPoolEx@VCTextureAnimationCCWDecorator@NEffectUpdateDecorator@@@@A DD FLAT:??_7?$CDynamicPoolEx@VCTextureAnimationCCWDecorator@NEffectUpdateDecorator@@@@6B@ ; CPooledObject<NEffectUpdateDecorator::CTextureAnimationCCWDecorator>::ms_kPool
	DD	00H
	DD	00H
	DD	00H
	DD	00H
	DD	00H
	DD	00H
	DD	00H
	DD	00H
_DATA	ENDS
;	COMDAT ?ms_kPool@?$CPooledObject@VCTextureAnimationCWDecorator@NEffectUpdateDecorator@@@@1V?$CDynamicPoolEx@VCTextureAnimationCWDecorator@NEffectUpdateDecorator@@@@A
_DATA	SEGMENT
?ms_kPool@?$CPooledObject@VCTextureAnimationCWDecorator@NEffectUpdateDecorator@@@@1V?$CDynamicPoolEx@VCTextureAnimationCWDecorator@NEffectUpdateDecorator@@@@A DD FLAT:??_7?$CDynamicPoolEx@VCTextureAnimationCWDecorator@NEffectUpdateDecorator@@@@6B@ ; CPooledObject<NEffectUpdateDecorator::CTextureAnimationCWDecorator>::ms_kPool
	DD	00H
	DD	00H
	DD	00H
	DD	00H
	DD	00H
	DD	00H
	DD	00H
	DD	00H
_DATA	ENDS
;	COMDAT ?ms_kPool@?$CPooledObject@VCNullDecorator@NEffectUpdateDecorator@@@@1V?$CDynamicPoolEx@VCNullDecorator@NEffectUpdateDecorator@@@@A
_DATA	SEGMENT
?ms_kPool@?$CPooledObject@VCNullDecorator@NEffectUpdateDecorator@@@@1V?$CDynamicPoolEx@VCNullDecorator@NEffectUpdateDecorator@@@@A DD FLAT:??_7?$CDynamicPoolEx@VCNullDecorator@NEffectUpdateDecorator@@@@6B@ ; CPooledObject<NEffectUpdateDecorator::CNullDecorator>::ms_kPool
	DD	00H
	DD	00H
	DD	00H
	DD	00H
	DD	00H
	DD	00H
	DD	00H
	DD	00H
_DATA	ENDS
;	COMDAT ?ms_kPool@?$CPooledObject@VCHeaderDecorator@NEffectUpdateDecorator@@@@1V?$CDynamicPoolEx@VCHeaderDecorator@NEffectUpdateDecorator@@@@A
_DATA	SEGMENT
?ms_kPool@?$CPooledObject@VCHeaderDecorator@NEffectUpdateDecorator@@@@1V?$CDynamicPoolEx@VCHeaderDecorator@NEffectUpdateDecorator@@@@A DD FLAT:??_7?$CDynamicPoolEx@VCHeaderDecorator@NEffectUpdateDecorator@@@@6B@ ; CPooledObject<NEffectUpdateDecorator::CHeaderDecorator>::ms_kPool
	DD	00H
	DD	00H
	DD	00H
	DD	00H
	DD	00H
	DD	00H
	DD	00H
	DD	00H
_DATA	ENDS
CONST	SEGMENT
?CLSID_MP3AudioCodec@@3U_GUID@@B DD 038be3000H		; CLSID_MP3AudioCodec
	DW	0dbf4H
	DW	011d0H
	DB	086H
	DB	0eH
	DB	00H
	DB	0a0H
	DB	024H
	DB	0cfH
	DB	0efH
	DB	06dH
CONST	ENDS
;	COMDAT xdata$x
xdata$x	SEGMENT
__unwindtable$?RenderFileToMMStream@CMovieMan@@AAEJPBDPAPAUIMultiMediaStream@@PAUIDirectDraw@@@Z DD 0ffffffffH
	DD	FLAT:__unwindfunclet$?RenderFileToMMStream@CMovieMan@@AAEJPBDPAPAUIMultiMediaStream@@PAUIDirectDraw@@@Z$0
__ehfuncinfo$?RenderFileToMMStream@CMovieMan@@AAEJPBDPAPAUIMultiMediaStream@@PAUIDirectDraw@@@Z DD 019930522H
	DD	01H
	DD	FLAT:__unwindtable$?RenderFileToMMStream@CMovieMan@@AAEJPBDPAPAUIMultiMediaStream@@PAUIDirectDraw@@@Z
	DD	2 DUP(00H)
	DD	2 DUP(00H)
	DD	00H
	DD	01H
xdata$x	ENDS
;	COMDAT CRT$XCU
CRT$XCU	SEGMENT
??ms_kPool$initializer$@?$CPooledObject@VCNullDecorator@NEffectUpdateDecorator@@@@1P6AXXZA@@3P6AXXZA DD FLAT:??__E?ms_kPool@?$CPooledObject@VCNullDecorator@NEffectUpdateDecorator@@@@1V?$CDynamicPoolEx@VCNullDecorator@NEffectUpdateDecorator@@@@A@@YAXXZ ; ??ms_kPool$initializer$@?$CPooledObject@VCNullDecorator@NEffectUpdateDecorator@@@@1P6AXXZA@@3P6AXXZA
CRT$XCU	ENDS
;	COMDAT CRT$XCU
CRT$XCU	SEGMENT
??ms_kPool$initializer$@?$CPooledObject@VCTextureAnimationCWDecorator@NEffectUpdateDecorator@@@@1P6AXXZA@@3P6AXXZA DD FLAT:??__E?ms_kPool@?$CPooledObject@VCTextureAnimationCWDecorator@NEffectUpdateDecorator@@@@1V?$CDynamicPoolEx@VCTextureAnimationCWDecorator@NEffectUpdateDecorator@@@@A@@YAXXZ ; ??ms_kPool$initializer$@?$CPooledObject@VCTextureAnimationCWDecorator@NEffectUpdateDecorator@@@@1P6AXXZA@@3P6AXXZA
CRT$XCU	ENDS
;	COMDAT CRT$XCU
CRT$XCU	SEGMENT
??ms_kPool$initializer$@?$CPooledObject@VCTextureAnimationCCWDecorator@NEffectUpdateDecorator@@@@1P6AXXZA@@3P6AXXZA DD FLAT:??__E?ms_kPool@?$CPooledObject@VCTextureAnimationCCWDecorator@NEffectUpdateDecorator@@@@1V?$CDynamicPoolEx@VCTextureAnimationCCWDecorator@NEffectUpdateDecorator@@@@A@@YAXXZ ; ??ms_kPool$initializer$@?$CPooledObject@VCTextureAnimationCCWDecorator@NEffectUpdateDecorator@@@@1P6AXXZA@@3P6AXXZA
CRT$XCU	ENDS
;	COMDAT CRT$XCU
CRT$XCU	SEGMENT
??ms_kPool$initializer$@?$CPooledObject@VCTextureAnimationRandomDecorator@NEffectUpdateDecorator@@@@1P6AXXZA@@3P6AXXZA DD FLAT:??__E?ms_kPool@?$CPooledObject@VCTextureAnimationRandomDecorator@NEffectUpdateDecorator@@@@1V?$CDynamicPoolEx@VCTextureAnimationRandomDecorator@NEffectUpdateDecorator@@@@A@@YAXXZ ; ??ms_kPool$initializer$@?$CPooledObject@VCTextureAnimationRandomDecorator@NEffectUpdateDecorator@@@@1P6AXXZA@@3P6AXXZA
CRT$XCU	ENDS
;	COMDAT CRT$XCU
CRT$XCU	SEGMENT
??ms_kPool$initializer$@?$CPooledObject@VCAirResistanceDecorator@NEffectUpdateDecorator@@@@1P6AXXZA@@3P6AXXZA DD FLAT:??__E?ms_kPool@?$CPooledObject@VCAirResistanceDecorator@NEffectUpdateDecorator@@@@1V?$CDynamicPoolEx@VCAirResistanceDecorator@NEffectUpdateDecorator@@@@A@@YAXXZ ; ??ms_kPool$initializer$@?$CPooledObject@VCAirResistanceDecorator@NEffectUpdateDecorator@@@@1P6AXXZA@@3P6AXXZA
CRT$XCU	ENDS
;	COMDAT CRT$XCU
CRT$XCU	SEGMENT
??ms_kPool$initializer$@?$CPooledObject@VCGravityDecorator@NEffectUpdateDecorator@@@@1P6AXXZA@@3P6AXXZA DD FLAT:??__E?ms_kPool@?$CPooledObject@VCGravityDecorator@NEffectUpdateDecorator@@@@1V?$CDynamicPoolEx@VCGravityDecorator@NEffectUpdateDecorator@@@@A@@YAXXZ ; ??ms_kPool$initializer$@?$CPooledObject@VCGravityDecorator@NEffectUpdateDecorator@@@@1P6AXXZA@@3P6AXXZA
CRT$XCU	ENDS
;	COMDAT CRT$XCU
CRT$XCU	SEGMENT
??ms_kPool$initializer$@?$CPooledObject@VCRotationDecorator@NEffectUpdateDecorator@@@@1P6AXXZA@@3P6AXXZA DD FLAT:??__E?ms_kPool@?$CPooledObject@VCRotationDecorator@NEffectUpdateDecorator@@@@1V?$CDynamicPoolEx@VCRotationDecorator@NEffectUpdateDecorator@@@@A@@YAXXZ ; ??ms_kPool$initializer$@?$CPooledObject@VCRotationDecorator@NEffectUpdateDecorator@@@@1P6AXXZA@@3P6AXXZA
CRT$XCU	ENDS
; Function compile flags: /Ogtp
; File C:\Program Files (x86)\Microsoft Visual Studio\2019\Community\VC\Tools\MSVC\14.28.29333\include\xmemory
;	COMDAT ??$_Refancy@PBD$0A@@std@@YAPBDPBD@Z
_TEXT	SEGMENT
__Ptr$ = 8						; size = 4
??$_Refancy@PBD$0A@@std@@YAPBDPBD@Z PROC		; std::_Refancy<char const *,0>, COMDAT

; 261  : _Pointer _Refancy(_Pointer _Ptr) noexcept {

  00000	55		 push	 ebp
  00001	8b ec		 mov	 ebp, esp

; 262  :     return _Ptr;

  00003	8b 45 08	 mov	 eax, DWORD PTR __Ptr$[ebp]

; 263  : }

  00006	5d		 pop	 ebp
  00007	c3		 ret	 0
??$_Refancy@PBD$0A@@std@@YAPBDPBD@Z ENDP		; std::_Refancy<char const *,0>
_TEXT	ENDS
; Function compile flags: /Ogtp
; File C:\Program Files (x86)\Microsoft Visual Studio\2019\Community\VC\Tools\MSVC\14.28.29333\include\xstring
;	COMDAT ??$_Traits_equal@U?$char_traits@D@std@@@std@@YA_NQBDI0I@Z
_TEXT	SEGMENT
__Left$ = 8						; size = 4
__Left_size$ = 12					; size = 4
__Right$ = 16						; size = 4
__Right_size$ = 20					; size = 4
??$_Traits_equal@U?$char_traits@D@std@@@std@@YA_NQBDI0I@Z PROC ; std::_Traits_equal<std::char_traits<char> >, COMDAT

; 559  :     _In_reads_(_Right_size) const _Traits_ptr_t<_Traits> _Right, const size_t _Right_size) noexcept {

  00000	55		 push	 ebp
  00001	8b ec		 mov	 ebp, esp

; 560  :     // compare [_Left, _Left + _Left_size) to [_Right, _Right + _Right_size) for equality using _Traits
; 561  :     return _Left_size == _Right_size && _Traits::compare(_Left, _Right, _Left_size) == 0;

  00003	8b 4d 0c	 mov	 ecx, DWORD PTR __Left_size$[ebp]
  00006	3b 4d 14	 cmp	 ecx, DWORD PTR __Right_size$[ebp]
  00009	75 61		 jne	 SHORT $LN3@Traits_equ

; 369  :         return _CSTD memcmp(_First1, _First2, _Count);

  0000b	8b 55 08	 mov	 edx, DWORD PTR __Left$[ebp]
  0000e	56		 push	 esi
  0000f	8b 75 10	 mov	 esi, DWORD PTR __Right$[ebp]
  00012	83 e9 04	 sub	 ecx, 4
  00015	72 11		 jb	 SHORT $LN9@Traits_equ
$LL10@Traits_equ:
  00017	8b 02		 mov	 eax, DWORD PTR [edx]
  00019	3b 06		 cmp	 eax, DWORD PTR [esi]
  0001b	75 10		 jne	 SHORT $LN8@Traits_equ
  0001d	83 c2 04	 add	 edx, 4
  00020	83 c6 04	 add	 esi, 4
  00023	83 e9 04	 sub	 ecx, 4
  00026	73 ef		 jae	 SHORT $LL10@Traits_equ
$LN9@Traits_equ:
  00028	83 f9 fc	 cmp	 ecx, -4			; fffffffcH
  0002b	74 34		 je	 SHORT $LN7@Traits_equ
$LN8@Traits_equ:
  0002d	8a 02		 mov	 al, BYTE PTR [edx]
  0002f	3a 06		 cmp	 al, BYTE PTR [esi]
  00031	75 27		 jne	 SHORT $LN11@Traits_equ
  00033	83 f9 fd	 cmp	 ecx, -3			; fffffffdH
  00036	74 29		 je	 SHORT $LN7@Traits_equ
  00038	8a 42 01	 mov	 al, BYTE PTR [edx+1]
  0003b	3a 46 01	 cmp	 al, BYTE PTR [esi+1]
  0003e	75 1a		 jne	 SHORT $LN11@Traits_equ
  00040	83 f9 fe	 cmp	 ecx, -2			; fffffffeH
  00043	74 1c		 je	 SHORT $LN7@Traits_equ
  00045	8a 42 02	 mov	 al, BYTE PTR [edx+2]
  00048	3a 46 02	 cmp	 al, BYTE PTR [esi+2]
  0004b	75 0d		 jne	 SHORT $LN11@Traits_equ
  0004d	83 f9 ff	 cmp	 ecx, -1
  00050	74 0f		 je	 SHORT $LN7@Traits_equ
  00052	8a 42 03	 mov	 al, BYTE PTR [edx+3]
  00055	3a 46 03	 cmp	 al, BYTE PTR [esi+3]
  00058	74 07		 je	 SHORT $LN7@Traits_equ
$LN11@Traits_equ:
  0005a	1b c0		 sbb	 eax, eax
  0005c	83 c8 01	 or	 eax, 1
  0005f	eb 02		 jmp	 SHORT $LN12@Traits_equ
$LN7@Traits_equ:
  00061	33 c0		 xor	 eax, eax
$LN12@Traits_equ:
  00063	5e		 pop	 esi

; 560  :     // compare [_Left, _Left + _Left_size) to [_Right, _Right + _Right_size) for equality using _Traits
; 561  :     return _Left_size == _Right_size && _Traits::compare(_Left, _Right, _Left_size) == 0;

  00064	85 c0		 test	 eax, eax
  00066	75 04		 jne	 SHORT $LN3@Traits_equ
  00068	b0 01		 mov	 al, 1

; 562  : }

  0006a	5d		 pop	 ebp
  0006b	c3		 ret	 0
$LN3@Traits_equ:

; 560  :     // compare [_Left, _Left + _Left_size) to [_Right, _Right + _Right_size) for equality using _Traits
; 561  :     return _Left_size == _Right_size && _Traits::compare(_Left, _Right, _Left_size) == 0;

  0006c	32 c0		 xor	 al, al

; 562  : }

  0006e	5d		 pop	 ebp
  0006f	c3		 ret	 0
??$_Traits_equal@U?$char_traits@D@std@@@std@@YA_NQBDI0I@Z ENDP ; std::_Traits_equal<std::char_traits<char> >
_TEXT	ENDS
; Function compile flags: /Ogtp
;	COMDAT ??__F?ms_kPool@?$CPooledObject@VCRotationDecorator@NEffectUpdateDecorator@@@@1V?$CDynamicPoolEx@VCRotationDecorator@NEffectUpdateDecorator@@@@A@@YAXXZ
text$yd	SEGMENT
??__F?ms_kPool@?$CPooledObject@VCRotationDecorator@NEffectUpdateDecorator@@@@1V?$CDynamicPoolEx@VCRotationDecorator@NEffectUpdateDecorator@@@@A@@YAXXZ PROC ; `dynamic atexit destructor for 'CPooledObject<NEffectUpdateDecorator::CRotationDecorator>::ms_kPool'', COMDAT
  00000	b9 00 00 00 00	 mov	 ecx, OFFSET ?ms_kPool@?$CPooledObject@VCRotationDecorator@NEffectUpdateDecorator@@@@1V?$CDynamicPoolEx@VCRotationDecorator@NEffectUpdateDecorator@@@@A ; CPooledObject<NEffectUpdateDecorator::CRotationDecorator>::ms_kPool
  00005	e9 00 00 00 00	 jmp	 ??1?$CDynamicPoolEx@VCRotationDecorator@NEffectUpdateDecorator@@@@UAE@XZ ; CDynamicPoolEx<NEffectUpdateDecorator::CRotationDecorator>::~CDynamicPoolEx<NEffectUpdateDecorator::CRotationDecorator>
??__F?ms_kPool@?$CPooledObject@VCRotationDecorator@NEffectUpdateDecorator@@@@1V?$CDynamicPoolEx@VCRotationDecorator@NEffectUpdateDecorator@@@@A@@YAXXZ ENDP ; `dynamic atexit destructor for 'CPooledObject<NEffectUpdateDecorator::CRotationDecorator>::ms_kPool''
text$yd	ENDS
; Function compile flags: /Ogtp
; File D:\Metin2 Server Files\mainline\SRC_2014\Metin2Client\eterLib\Pool.h
;	COMDAT ??__E?ms_kPool@?$CPooledObject@VCRotationDecorator@NEffectUpdateDecorator@@@@1V?$CDynamicPoolEx@VCRotationDecorator@NEffectUpdateDecorator@@@@A@@YAXXZ
text$di	SEGMENT
??__E?ms_kPool@?$CPooledObject@VCRotationDecorator@NEffectUpdateDecorator@@@@1V?$CDynamicPoolEx@VCRotationDecorator@NEffectUpdateDecorator@@@@A@@YAXXZ PROC ; `dynamic initializer for 'CPooledObject<NEffectUpdateDecorator::CRotationDecorator>::ms_kPool'', COMDAT

; 272  : template <class T> CDynamicPoolEx<T> CPooledObject<T>::ms_kPool;

  00000	68 00 00 00 00	 push	 OFFSET ??__F?ms_kPool@?$CPooledObject@VCRotationDecorator@NEffectUpdateDecorator@@@@1V?$CDynamicPoolEx@VCRotationDecorator@NEffectUpdateDecorator@@@@A@@YAXXZ ; `dynamic atexit destructor for 'CPooledObject<NEffectUpdateDecorator::CRotationDecorator>::ms_kPool''
  00005	e8 00 00 00 00	 call	 _atexit
  0000a	59		 pop	 ecx
  0000b	c3		 ret	 0
??__E?ms_kPool@?$CPooledObject@VCRotationDecorator@NEffectUpdateDecorator@@@@1V?$CDynamicPoolEx@VCRotationDecorator@NEffectUpdateDecorator@@@@A@@YAXXZ ENDP ; `dynamic initializer for 'CPooledObject<NEffectUpdateDecorator::CRotationDecorator>::ms_kPool''
text$di	ENDS
; Function compile flags: /Ogtp
;	COMDAT ??__F?ms_kPool@?$CPooledObject@VCGravityDecorator@NEffectUpdateDecorator@@@@1V?$CDynamicPoolEx@VCGravityDecorator@NEffectUpdateDecorator@@@@A@@YAXXZ
text$yd	SEGMENT
??__F?ms_kPool@?$CPooledObject@VCGravityDecorator@NEffectUpdateDecorator@@@@1V?$CDynamicPoolEx@VCGravityDecorator@NEffectUpdateDecorator@@@@A@@YAXXZ PROC ; `dynamic atexit destructor for 'CPooledObject<NEffectUpdateDecorator::CGravityDecorator>::ms_kPool'', COMDAT
  00000	b9 00 00 00 00	 mov	 ecx, OFFSET ?ms_kPool@?$CPooledObject@VCGravityDecorator@NEffectUpdateDecorator@@@@1V?$CDynamicPoolEx@VCGravityDecorator@NEffectUpdateDecorator@@@@A ; CPooledObject<NEffectUpdateDecorator::CGravityDecorator>::ms_kPool
  00005	e9 00 00 00 00	 jmp	 ??1?$CDynamicPoolEx@VCGravityDecorator@NEffectUpdateDecorator@@@@UAE@XZ ; CDynamicPoolEx<NEffectUpdateDecorator::CGravityDecorator>::~CDynamicPoolEx<NEffectUpdateDecorator::CGravityDecorator>
??__F?ms_kPool@?$CPooledObject@VCGravityDecorator@NEffectUpdateDecorator@@@@1V?$CDynamicPoolEx@VCGravityDecorator@NEffectUpdateDecorator@@@@A@@YAXXZ ENDP ; `dynamic atexit destructor for 'CPooledObject<NEffectUpdateDecorator::CGravityDecorator>::ms_kPool''
text$yd	ENDS
; Function compile flags: /Ogtp
; File D:\Metin2 Server Files\mainline\SRC_2014\Metin2Client\eterLib\Pool.h
;	COMDAT ??__E?ms_kPool@?$CPooledObject@VCGravityDecorator@NEffectUpdateDecorator@@@@1V?$CDynamicPoolEx@VCGravityDecorator@NEffectUpdateDecorator@@@@A@@YAXXZ
text$di	SEGMENT
??__E?ms_kPool@?$CPooledObject@VCGravityDecorator@NEffectUpdateDecorator@@@@1V?$CDynamicPoolEx@VCGravityDecorator@NEffectUpdateDecorator@@@@A@@YAXXZ PROC ; `dynamic initializer for 'CPooledObject<NEffectUpdateDecorator::CGravityDecorator>::ms_kPool'', COMDAT

; 272  : template <class T> CDynamicPoolEx<T> CPooledObject<T>::ms_kPool;

  00000	68 00 00 00 00	 push	 OFFSET ??__F?ms_kPool@?$CPooledObject@VCGravityDecorator@NEffectUpdateDecorator@@@@1V?$CDynamicPoolEx@VCGravityDecorator@NEffectUpdateDecorator@@@@A@@YAXXZ ; `dynamic atexit destructor for 'CPooledObject<NEffectUpdateDecorator::CGravityDecorator>::ms_kPool''
  00005	e8 00 00 00 00	 call	 _atexit
  0000a	59		 pop	 ecx
  0000b	c3		 ret	 0
??__E?ms_kPool@?$CPooledObject@VCGravityDecorator@NEffectUpdateDecorator@@@@1V?$CDynamicPoolEx@VCGravityDecorator@NEffectUpdateDecorator@@@@A@@YAXXZ ENDP ; `dynamic initializer for 'CPooledObject<NEffectUpdateDecorator::CGravityDecorator>::ms_kPool''
text$di	ENDS
; Function compile flags: /Ogtp
;	COMDAT ??__F?ms_kPool@?$CPooledObject@VCAirResistanceDecorator@NEffectUpdateDecorator@@@@1V?$CDynamicPoolEx@VCAirResistanceDecorator@NEffectUpdateDecorator@@@@A@@YAXXZ
text$yd	SEGMENT
??__F?ms_kPool@?$CPooledObject@VCAirResistanceDecorator@NEffectUpdateDecorator@@@@1V?$CDynamicPoolEx@VCAirResistanceDecorator@NEffectUpdateDecorator@@@@A@@YAXXZ PROC ; `dynamic atexit destructor for 'CPooledObject<NEffectUpdateDecorator::CAirResistanceDecorator>::ms_kPool'', COMDAT
  00000	b9 00 00 00 00	 mov	 ecx, OFFSET ?ms_kPool@?$CPooledObject@VCAirResistanceDecorator@NEffectUpdateDecorator@@@@1V?$CDynamicPoolEx@VCAirResistanceDecorator@NEffectUpdateDecorator@@@@A ; CPooledObject<NEffectUpdateDecorator::CAirResistanceDecorator>::ms_kPool
  00005	e9 00 00 00 00	 jmp	 ??1?$CDynamicPoolEx@VCAirResistanceDecorator@NEffectUpdateDecorator@@@@UAE@XZ ; CDynamicPoolEx<NEffectUpdateDecorator::CAirResistanceDecorator>::~CDynamicPoolEx<NEffectUpdateDecorator::CAirResistanceDecorator>
??__F?ms_kPool@?$CPooledObject@VCAirResistanceDecorator@NEffectUpdateDecorator@@@@1V?$CDynamicPoolEx@VCAirResistanceDecorator@NEffectUpdateDecorator@@@@A@@YAXXZ ENDP ; `dynamic atexit destructor for 'CPooledObject<NEffectUpdateDecorator::CAirResistanceDecorator>::ms_kPool''
text$yd	ENDS
; Function compile flags: /Ogtp
; File D:\Metin2 Server Files\mainline\SRC_2014\Metin2Client\eterLib\Pool.h
;	COMDAT ??__E?ms_kPool@?$CPooledObject@VCAirResistanceDecorator@NEffectUpdateDecorator@@@@1V?$CDynamicPoolEx@VCAirResistanceDecorator@NEffectUpdateDecorator@@@@A@@YAXXZ
text$di	SEGMENT
??__E?ms_kPool@?$CPooledObject@VCAirResistanceDecorator@NEffectUpdateDecorator@@@@1V?$CDynamicPoolEx@VCAirResistanceDecorator@NEffectUpdateDecorator@@@@A@@YAXXZ PROC ; `dynamic initializer for 'CPooledObject<NEffectUpdateDecorator::CAirResistanceDecorator>::ms_kPool'', COMDAT

; 272  : template <class T> CDynamicPoolEx<T> CPooledObject<T>::ms_kPool;

  00000	68 00 00 00 00	 push	 OFFSET ??__F?ms_kPool@?$CPooledObject@VCAirResistanceDecorator@NEffectUpdateDecorator@@@@1V?$CDynamicPoolEx@VCAirResistanceDecorator@NEffectUpdateDecorator@@@@A@@YAXXZ ; `dynamic atexit destructor for 'CPooledObject<NEffectUpdateDecorator::CAirResistanceDecorator>::ms_kPool''
  00005	e8 00 00 00 00	 call	 _atexit
  0000a	59		 pop	 ecx
  0000b	c3		 ret	 0
??__E?ms_kPool@?$CPooledObject@VCAirResistanceDecorator@NEffectUpdateDecorator@@@@1V?$CDynamicPoolEx@VCAirResistanceDecorator@NEffectUpdateDecorator@@@@A@@YAXXZ ENDP ; `dynamic initializer for 'CPooledObject<NEffectUpdateDecorator::CAirResistanceDecorator>::ms_kPool''
text$di	ENDS
; Function compile flags: /Ogtp
;	COMDAT ??__F?ms_kPool@?$CPooledObject@VCTextureAnimationRandomDecorator@NEffectUpdateDecorator@@@@1V?$CDynamicPoolEx@VCTextureAnimationRandomDecorator@NEffectUpdateDecorator@@@@A@@YAXXZ
text$yd	SEGMENT
??__F?ms_kPool@?$CPooledObject@VCTextureAnimationRandomDecorator@NEffectUpdateDecorator@@@@1V?$CDynamicPoolEx@VCTextureAnimationRandomDecorator@NEffectUpdateDecorator@@@@A@@YAXXZ PROC ; `dynamic atexit destructor for 'CPooledObject<NEffectUpdateDecorator::CTextureAnimationRandomDecorator>::ms_kPool'', COMDAT
  00000	b9 00 00 00 00	 mov	 ecx, OFFSET ?ms_kPool@?$CPooledObject@VCTextureAnimationRandomDecorator@NEffectUpdateDecorator@@@@1V?$CDynamicPoolEx@VCTextureAnimationRandomDecorator@NEffectUpdateDecorator@@@@A ; CPooledObject<NEffectUpdateDecorator::CTextureAnimationRandomDecorator>::ms_kPool
  00005	e9 00 00 00 00	 jmp	 ??1?$CDynamicPoolEx@VCTextureAnimationRandomDecorator@NEffectUpdateDecorator@@@@UAE@XZ ; CDynamicPoolEx<NEffectUpdateDecorator::CTextureAnimationRandomDecorator>::~CDynamicPoolEx<NEffectUpdateDecorator::CTextureAnimationRandomDecorator>
??__F?ms_kPool@?$CPooledObject@VCTextureAnimationRandomDecorator@NEffectUpdateDecorator@@@@1V?$CDynamicPoolEx@VCTextureAnimationRandomDecorator@NEffectUpdateDecorator@@@@A@@YAXXZ ENDP ; `dynamic atexit destructor for 'CPooledObject<NEffectUpdateDecorator::CTextureAnimationRandomDecorator>::ms_kPool''
text$yd	ENDS
; Function compile flags: /Ogtp
; File D:\Metin2 Server Files\mainline\SRC_2014\Metin2Client\eterLib\Pool.h
;	COMDAT ??__E?ms_kPool@?$CPooledObject@VCTextureAnimationRandomDecorator@NEffectUpdateDecorator@@@@1V?$CDynamicPoolEx@VCTextureAnimationRandomDecorator@NEffectUpdateDecorator@@@@A@@YAXXZ
text$di	SEGMENT
??__E?ms_kPool@?$CPooledObject@VCTextureAnimationRandomDecorator@NEffectUpdateDecorator@@@@1V?$CDynamicPoolEx@VCTextureAnimationRandomDecorator@NEffectUpdateDecorator@@@@A@@YAXXZ PROC ; `dynamic initializer for 'CPooledObject<NEffectUpdateDecorator::CTextureAnimationRandomDecorator>::ms_kPool'', COMDAT

; 272  : template <class T> CDynamicPoolEx<T> CPooledObject<T>::ms_kPool;

  00000	68 00 00 00 00	 push	 OFFSET ??__F?ms_kPool@?$CPooledObject@VCTextureAnimationRandomDecorator@NEffectUpdateDecorator@@@@1V?$CDynamicPoolEx@VCTextureAnimationRandomDecorator@NEffectUpdateDecorator@@@@A@@YAXXZ ; `dynamic atexit destructor for 'CPooledObject<NEffectUpdateDecorator::CTextureAnimationRandomDecorator>::ms_kPool''
  00005	e8 00 00 00 00	 call	 _atexit
  0000a	59		 pop	 ecx
  0000b	c3		 ret	 0
??__E?ms_kPool@?$CPooledObject@VCTextureAnimationRandomDecorator@NEffectUpdateDecorator@@@@1V?$CDynamicPoolEx@VCTextureAnimationRandomDecorator@NEffectUpdateDecorator@@@@A@@YAXXZ ENDP ; `dynamic initializer for 'CPooledObject<NEffectUpdateDecorator::CTextureAnimationRandomDecorator>::ms_kPool''
text$di	ENDS
; Function compile flags: /Ogtp
;	COMDAT ??__F?ms_kPool@?$CPooledObject@VCTextureAnimationCCWDecorator@NEffectUpdateDecorator@@@@1V?$CDynamicPoolEx@VCTextureAnimationCCWDecorator@NEffectUpdateDecorator@@@@A@@YAXXZ
text$yd	SEGMENT
??__F?ms_kPool@?$CPooledObject@VCTextureAnimationCCWDecorator@NEffectUpdateDecorator@@@@1V?$CDynamicPoolEx@VCTextureAnimationCCWDecorator@NEffectUpdateDecorator@@@@A@@YAXXZ PROC ; `dynamic atexit destructor for 'CPooledObject<NEffectUpdateDecorator::CTextureAnimationCCWDecorator>::ms_kPool'', COMDAT
  00000	b9 00 00 00 00	 mov	 ecx, OFFSET ?ms_kPool@?$CPooledObject@VCTextureAnimationCCWDecorator@NEffectUpdateDecorator@@@@1V?$CDynamicPoolEx@VCTextureAnimationCCWDecorator@NEffectUpdateDecorator@@@@A ; CPooledObject<NEffectUpdateDecorator::CTextureAnimationCCWDecorator>::ms_kPool
  00005	e9 00 00 00 00	 jmp	 ??1?$CDynamicPoolEx@VCTextureAnimationCCWDecorator@NEffectUpdateDecorator@@@@UAE@XZ ; CDynamicPoolEx<NEffectUpdateDecorator::CTextureAnimationCCWDecorator>::~CDynamicPoolEx<NEffectUpdateDecorator::CTextureAnimationCCWDecorator>
??__F?ms_kPool@?$CPooledObject@VCTextureAnimationCCWDecorator@NEffectUpdateDecorator@@@@1V?$CDynamicPoolEx@VCTextureAnimationCCWDecorator@NEffectUpdateDecorator@@@@A@@YAXXZ ENDP ; `dynamic atexit destructor for 'CPooledObject<NEffectUpdateDecorator::CTextureAnimationCCWDecorator>::ms_kPool''
text$yd	ENDS
; Function compile flags: /Ogtp
; File D:\Metin2 Server Files\mainline\SRC_2014\Metin2Client\eterLib\Pool.h
;	COMDAT ??__E?ms_kPool@?$CPooledObject@VCTextureAnimationCCWDecorator@NEffectUpdateDecorator@@@@1V?$CDynamicPoolEx@VCTextureAnimationCCWDecorator@NEffectUpdateDecorator@@@@A@@YAXXZ
text$di	SEGMENT
??__E?ms_kPool@?$CPooledObject@VCTextureAnimationCCWDecorator@NEffectUpdateDecorator@@@@1V?$CDynamicPoolEx@VCTextureAnimationCCWDecorator@NEffectUpdateDecorator@@@@A@@YAXXZ PROC ; `dynamic initializer for 'CPooledObject<NEffectUpdateDecorator::CTextureAnimationCCWDecorator>::ms_kPool'', COMDAT

; 272  : template <class T> CDynamicPoolEx<T> CPooledObject<T>::ms_kPool;

  00000	68 00 00 00 00	 push	 OFFSET ??__F?ms_kPool@?$CPooledObject@VCTextureAnimationCCWDecorator@NEffectUpdateDecorator@@@@1V?$CDynamicPoolEx@VCTextureAnimationCCWDecorator@NEffectUpdateDecorator@@@@A@@YAXXZ ; `dynamic atexit destructor for 'CPooledObject<NEffectUpdateDecorator::CTextureAnimationCCWDecorator>::ms_kPool''
  00005	e8 00 00 00 00	 call	 _atexit
  0000a	59		 pop	 ecx
  0000b	c3		 ret	 0
??__E?ms_kPool@?$CPooledObject@VCTextureAnimationCCWDecorator@NEffectUpdateDecorator@@@@1V?$CDynamicPoolEx@VCTextureAnimationCCWDecorator@NEffectUpdateDecorator@@@@A@@YAXXZ ENDP ; `dynamic initializer for 'CPooledObject<NEffectUpdateDecorator::CTextureAnimationCCWDecorator>::ms_kPool''
text$di	ENDS
; Function compile flags: /Ogtp
;	COMDAT ??__F?ms_kPool@?$CPooledObject@VCTextureAnimationCWDecorator@NEffectUpdateDecorator@@@@1V?$CDynamicPoolEx@VCTextureAnimationCWDecorator@NEffectUpdateDecorator@@@@A@@YAXXZ
text$yd	SEGMENT
??__F?ms_kPool@?$CPooledObject@VCTextureAnimationCWDecorator@NEffectUpdateDecorator@@@@1V?$CDynamicPoolEx@VCTextureAnimationCWDecorator@NEffectUpdateDecorator@@@@A@@YAXXZ PROC ; `dynamic atexit destructor for 'CPooledObject<NEffectUpdateDecorator::CTextureAnimationCWDecorator>::ms_kPool'', COMDAT
  00000	b9 00 00 00 00	 mov	 ecx, OFFSET ?ms_kPool@?$CPooledObject@VCTextureAnimationCWDecorator@NEffectUpdateDecorator@@@@1V?$CDynamicPoolEx@VCTextureAnimationCWDecorator@NEffectUpdateDecorator@@@@A ; CPooledObject<NEffectUpdateDecorator::CTextureAnimationCWDecorator>::ms_kPool
  00005	e9 00 00 00 00	 jmp	 ??1?$CDynamicPoolEx@VCTextureAnimationCWDecorator@NEffectUpdateDecorator@@@@UAE@XZ ; CDynamicPoolEx<NEffectUpdateDecorator::CTextureAnimationCWDecorator>::~CDynamicPoolEx<NEffectUpdateDecorator::CTextureAnimationCWDecorator>
??__F?ms_kPool@?$CPooledObject@VCTextureAnimationCWDecorator@NEffectUpdateDecorator@@@@1V?$CDynamicPoolEx@VCTextureAnimationCWDecorator@NEffectUpdateDecorator@@@@A@@YAXXZ ENDP ; `dynamic atexit destructor for 'CPooledObject<NEffectUpdateDecorator::CTextureAnimationCWDecorator>::ms_kPool''
text$yd	ENDS
; Function compile flags: /Ogtp
; File D:\Metin2 Server Files\mainline\SRC_2014\Metin2Client\eterLib\Pool.h
;	COMDAT ??__E?ms_kPool@?$CPooledObject@VCTextureAnimationCWDecorator@NEffectUpdateDecorator@@@@1V?$CDynamicPoolEx@VCTextureAnimationCWDecorator@NEffectUpdateDecorator@@@@A@@YAXXZ
text$di	SEGMENT
??__E?ms_kPool@?$CPooledObject@VCTextureAnimationCWDecorator@NEffectUpdateDecorator@@@@1V?$CDynamicPoolEx@VCTextureAnimationCWDecorator@NEffectUpdateDecorator@@@@A@@YAXXZ PROC ; `dynamic initializer for 'CPooledObject<NEffectUpdateDecorator::CTextureAnimationCWDecorator>::ms_kPool'', COMDAT

; 272  : template <class T> CDynamicPoolEx<T> CPooledObject<T>::ms_kPool;

  00000	68 00 00 00 00	 push	 OFFSET ??__F?ms_kPool@?$CPooledObject@VCTextureAnimationCWDecorator@NEffectUpdateDecorator@@@@1V?$CDynamicPoolEx@VCTextureAnimationCWDecorator@NEffectUpdateDecorator@@@@A@@YAXXZ ; `dynamic atexit destructor for 'CPooledObject<NEffectUpdateDecorator::CTextureAnimationCWDecorator>::ms_kPool''
  00005	e8 00 00 00 00	 call	 _atexit
  0000a	59		 pop	 ecx
  0000b	c3		 ret	 0
??__E?ms_kPool@?$CPooledObject@VCTextureAnimationCWDecorator@NEffectUpdateDecorator@@@@1V?$CDynamicPoolEx@VCTextureAnimationCWDecorator@NEffectUpdateDecorator@@@@A@@YAXXZ ENDP ; `dynamic initializer for 'CPooledObject<NEffectUpdateDecorator::CTextureAnimationCWDecorator>::ms_kPool''
text$di	ENDS
; Function compile flags: /Ogtp
;	COMDAT ??__F?ms_kPool@?$CPooledObject@VCNullDecorator@NEffectUpdateDecorator@@@@1V?$CDynamicPoolEx@VCNullDecorator@NEffectUpdateDecorator@@@@A@@YAXXZ
text$yd	SEGMENT
??__F?ms_kPool@?$CPooledObject@VCNullDecorator@NEffectUpdateDecorator@@@@1V?$CDynamicPoolEx@VCNullDecorator@NEffectUpdateDecorator@@@@A@@YAXXZ PROC ; `dynamic atexit destructor for 'CPooledObject<NEffectUpdateDecorator::CNullDecorator>::ms_kPool'', COMDAT
  00000	b9 00 00 00 00	 mov	 ecx, OFFSET ?ms_kPool@?$CPooledObject@VCNullDecorator@NEffectUpdateDecorator@@@@1V?$CDynamicPoolEx@VCNullDecorator@NEffectUpdateDecorator@@@@A ; CPooledObject<NEffectUpdateDecorator::CNullDecorator>::ms_kPool
  00005	e9 00 00 00 00	 jmp	 ??1?$CDynamicPoolEx@VCNullDecorator@NEffectUpdateDecorator@@@@UAE@XZ ; CDynamicPoolEx<NEffectUpdateDecorator::CNullDecorator>::~CDynamicPoolEx<NEffectUpdateDecorator::CNullDecorator>
??__F?ms_kPool@?$CPooledObject@VCNullDecorator@NEffectUpdateDecorator@@@@1V?$CDynamicPoolEx@VCNullDecorator@NEffectUpdateDecorator@@@@A@@YAXXZ ENDP ; `dynamic atexit destructor for 'CPooledObject<NEffectUpdateDecorator::CNullDecorator>::ms_kPool''
text$yd	ENDS
; Function compile flags: /Ogtp
; File D:\Metin2 Server Files\mainline\SRC_2014\Metin2Client\eterLib\Pool.h
;	COMDAT ??__E?ms_kPool@?$CPooledObject@VCNullDecorator@NEffectUpdateDecorator@@@@1V?$CDynamicPoolEx@VCNullDecorator@NEffectUpdateDecorator@@@@A@@YAXXZ
text$di	SEGMENT
??__E?ms_kPool@?$CPooledObject@VCNullDecorator@NEffectUpdateDecorator@@@@1V?$CDynamicPoolEx@VCNullDecorator@NEffectUpdateDecorator@@@@A@@YAXXZ PROC ; `dynamic initializer for 'CPooledObject<NEffectUpdateDecorator::CNullDecorator>::ms_kPool'', COMDAT

; 272  : template <class T> CDynamicPoolEx<T> CPooledObject<T>::ms_kPool;

  00000	68 00 00 00 00	 push	 OFFSET ??__F?ms_kPool@?$CPooledObject@VCNullDecorator@NEffectUpdateDecorator@@@@1V?$CDynamicPoolEx@VCNullDecorator@NEffectUpdateDecorator@@@@A@@YAXXZ ; `dynamic atexit destructor for 'CPooledObject<NEffectUpdateDecorator::CNullDecorator>::ms_kPool''
  00005	e8 00 00 00 00	 call	 _atexit
  0000a	59		 pop	 ecx
  0000b	c3		 ret	 0
??__E?ms_kPool@?$CPooledObject@VCNullDecorator@NEffectUpdateDecorator@@@@1V?$CDynamicPoolEx@VCNullDecorator@NEffectUpdateDecorator@@@@A@@YAXXZ ENDP ; `dynamic initializer for 'CPooledObject<NEffectUpdateDecorator::CNullDecorator>::ms_kPool''
text$di	ENDS
; Function compile flags: /Ogtp
;	COMDAT ??__F?ms_kPool@?$CPooledObject@VCHeaderDecorator@NEffectUpdateDecorator@@@@1V?$CDynamicPoolEx@VCHeaderDecorator@NEffectUpdateDecorator@@@@A@@YAXXZ
text$yd	SEGMENT
??__F?ms_kPool@?$CPooledObject@VCHeaderDecorator@NEffectUpdateDecorator@@@@1V?$CDynamicPoolEx@VCHeaderDecorator@NEffectUpdateDecorator@@@@A@@YAXXZ PROC ; `dynamic atexit destructor for 'CPooledObject<NEffectUpdateDecorator::CHeaderDecorator>::ms_kPool'', COMDAT
  00000	b9 00 00 00 00	 mov	 ecx, OFFSET ?ms_kPool@?$CPooledObject@VCHeaderDecorator@NEffectUpdateDecorator@@@@1V?$CDynamicPoolEx@VCHeaderDecorator@NEffectUpdateDecorator@@@@A ; CPooledObject<NEffectUpdateDecorator::CHeaderDecorator>::ms_kPool
  00005	e9 00 00 00 00	 jmp	 ??1?$CDynamicPoolEx@VCHeaderDecorator@NEffectUpdateDecorator@@@@UAE@XZ ; CDynamicPoolEx<NEffectUpdateDecorator::CHeaderDecorator>::~CDynamicPoolEx<NEffectUpdateDecorator::CHeaderDecorator>
??__F?ms_kPool@?$CPooledObject@VCHeaderDecorator@NEffectUpdateDecorator@@@@1V?$CDynamicPoolEx@VCHeaderDecorator@NEffectUpdateDecorator@@@@A@@YAXXZ ENDP ; `dynamic atexit destructor for 'CPooledObject<NEffectUpdateDecorator::CHeaderDecorator>::ms_kPool''
text$yd	ENDS
; Function compile flags: /Ogtp
; File D:\Metin2 Server Files\mainline\SRC_2014\Metin2Client\eterLib\Pool.h
;	COMDAT ??__E?ms_kPool@?$CPooledObject@VCHeaderDecorator@NEffectUpdateDecorator@@@@1V?$CDynamicPoolEx@VCHeaderDecorator@NEffectUpdateDecorator@@@@A@@YAXXZ
text$di	SEGMENT
??__E?ms_kPool@?$CPooledObject@VCHeaderDecorator@NEffectUpdateDecorator@@@@1V?$CDynamicPoolEx@VCHeaderDecorator@NEffectUpdateDecorator@@@@A@@YAXXZ PROC ; `dynamic initializer for 'CPooledObject<NEffectUpdateDecorator::CHeaderDecorator>::ms_kPool'', COMDAT

; 272  : template <class T> CDynamicPoolEx<T> CPooledObject<T>::ms_kPool;

  00000	68 00 00 00 00	 push	 OFFSET ??__F?ms_kPool@?$CPooledObject@VCHeaderDecorator@NEffectUpdateDecorator@@@@1V?$CDynamicPoolEx@VCHeaderDecorator@NEffectUpdateDecorator@@@@A@@YAXXZ ; `dynamic atexit destructor for 'CPooledObject<NEffectUpdateDecorator::CHeaderDecorator>::ms_kPool''
  00005	e8 00 00 00 00	 call	 _atexit
  0000a	59		 pop	 ecx
  0000b	c3		 ret	 0
??__E?ms_kPool@?$CPooledObject@VCHeaderDecorator@NEffectUpdateDecorator@@@@1V?$CDynamicPoolEx@VCHeaderDecorator@NEffectUpdateDecorator@@@@A@@YAXXZ ENDP ; `dynamic initializer for 'CPooledObject<NEffectUpdateDecorator::CHeaderDecorator>::ms_kPool''
text$di	ENDS
; Function compile flags: /Ogtp
; File C:\Program Files (x86)\Microsoft Visual Studio\2019\Community\VC\Tools\MSVC\14.28.29333\include\xmemory
;	COMDAT ??$_Destroy_range@V?$allocator@PAVCRotationDecorator@NEffectUpdateDecorator@@@std@@@std@@YAXPAPAVCRotationDecorator@NEffectUpdateDecorator@@QAPAV12@AAV?$allocator@PAVCRotationDecorator@NEffectUpdateDecorator@@@0@@Z
_TEXT	SEGMENT
__First$ = 8						; size = 4
__Last$ = 12						; size = 4
__Al$ = 16						; size = 4
??$_Destroy_range@V?$allocator@PAVCRotationDecorator@NEffectUpdateDecorator@@@std@@@std@@YAXPAPAVCRotationDecorator@NEffectUpdateDecorator@@QAPAV12@AAV?$allocator@PAVCRotationDecorator@NEffectUpdateDecorator@@@0@@Z PROC ; std::_Destroy_range<std::allocator<NEffectUpdateDecorator::CRotationDecorator *> >, COMDAT

; 963  :     // note that this is an optimization for debug mode codegen; in release mode the BE removes all of this
; 964  :     using _Ty = typename _Alloc::value_type;
; 965  :     if _CONSTEXPR_IF (!conjunction_v<is_trivially_destructible<_Ty>, _Uses_default_destroy<_Alloc, _Ty*>>) {
; 966  :         for (; _First != _Last; ++_First) {
; 967  :             allocator_traits<_Alloc>::destroy(_Al, _Unfancy(_First));
; 968  :         }
; 969  :     }
; 970  : }

  00000	c2 00 00	 ret	 0
??$_Destroy_range@V?$allocator@PAVCRotationDecorator@NEffectUpdateDecorator@@@std@@@std@@YAXPAPAVCRotationDecorator@NEffectUpdateDecorator@@QAPAV12@AAV?$allocator@PAVCRotationDecorator@NEffectUpdateDecorator@@@0@@Z ENDP ; std::_Destroy_range<std::allocator<NEffectUpdateDecorator::CRotationDecorator *> >
_TEXT	ENDS
; Function compile flags: /Ogtp
; File C:\Program Files (x86)\Microsoft Visual Studio\2019\Community\VC\Tools\MSVC\14.28.29333\include\xmemory
;	COMDAT ??$_Destroy_range@V?$allocator@PAVCGravityDecorator@NEffectUpdateDecorator@@@std@@@std@@YAXPAPAVCGravityDecorator@NEffectUpdateDecorator@@QAPAV12@AAV?$allocator@PAVCGravityDecorator@NEffectUpdateDecorator@@@0@@Z
_TEXT	SEGMENT
__First$ = 8						; size = 4
__Last$ = 12						; size = 4
__Al$ = 16						; size = 4
??$_Destroy_range@V?$allocator@PAVCGravityDecorator@NEffectUpdateDecorator@@@std@@@std@@YAXPAPAVCGravityDecorator@NEffectUpdateDecorator@@QAPAV12@AAV?$allocator@PAVCGravityDecorator@NEffectUpdateDecorator@@@0@@Z PROC ; std::_Destroy_range<std::allocator<NEffectUpdateDecorator::CGravityDecorator *> >, COMDAT

; 963  :     // note that this is an optimization for debug mode codegen; in release mode the BE removes all of this
; 964  :     using _Ty = typename _Alloc::value_type;
; 965  :     if _CONSTEXPR_IF (!conjunction_v<is_trivially_destructible<_Ty>, _Uses_default_destroy<_Alloc, _Ty*>>) {
; 966  :         for (; _First != _Last; ++_First) {
; 967  :             allocator_traits<_Alloc>::destroy(_Al, _Unfancy(_First));
; 968  :         }
; 969  :     }
; 970  : }

  00000	c2 00 00	 ret	 0
??$_Destroy_range@V?$allocator@PAVCGravityDecorator@NEffectUpdateDecorator@@@std@@@std@@YAXPAPAVCGravityDecorator@NEffectUpdateDecorator@@QAPAV12@AAV?$allocator@PAVCGravityDecorator@NEffectUpdateDecorator@@@0@@Z ENDP ; std::_Destroy_range<std::allocator<NEffectUpdateDecorator::CGravityDecorator *> >
_TEXT	ENDS
; Function compile flags: /Ogtp
; File C:\Program Files (x86)\Microsoft Visual Studio\2019\Community\VC\Tools\MSVC\14.28.29333\include\xmemory
;	COMDAT ??$_Destroy_range@V?$allocator@PAVCAirResistanceDecorator@NEffectUpdateDecorator@@@std@@@std@@YAXPAPAVCAirResistanceDecorator@NEffectUpdateDecorator@@QAPAV12@AAV?$allocator@PAVCAirResistanceDecorator@NEffectUpdateDecorator@@@0@@Z
_TEXT	SEGMENT
__First$ = 8						; size = 4
__Last$ = 12						; size = 4
__Al$ = 16						; size = 4
??$_Destroy_range@V?$allocator@PAVCAirResistanceDecorator@NEffectUpdateDecorator@@@std@@@std@@YAXPAPAVCAirResistanceDecorator@NEffectUpdateDecorator@@QAPAV12@AAV?$allocator@PAVCAirResistanceDecorator@NEffectUpdateDecorator@@@0@@Z PROC ; std::_Destroy_range<std::allocator<NEffectUpdateDecorator::CAirResistanceDecorator *> >, COMDAT

; 963  :     // note that this is an optimization for debug mode codegen; in release mode the BE removes all of this
; 964  :     using _Ty = typename _Alloc::value_type;
; 965  :     if _CONSTEXPR_IF (!conjunction_v<is_trivially_destructible<_Ty>, _Uses_default_destroy<_Alloc, _Ty*>>) {
; 966  :         for (; _First != _Last; ++_First) {
; 967  :             allocator_traits<_Alloc>::destroy(_Al, _Unfancy(_First));
; 968  :         }
; 969  :     }
; 970  : }

  00000	c2 00 00	 ret	 0
??$_Destroy_range@V?$allocator@PAVCAirResistanceDecorator@NEffectUpdateDecorator@@@std@@@std@@YAXPAPAVCAirResistanceDecorator@NEffectUpdateDecorator@@QAPAV12@AAV?$allocator@PAVCAirResistanceDecorator@NEffectUpdateDecorator@@@0@@Z ENDP ; std::_Destroy_range<std::allocator<NEffectUpdateDecorator::CAirResistanceDecorator *> >
_TEXT	ENDS
; Function compile flags: /Ogtp
; File C:\Program Files (x86)\Microsoft Visual Studio\2019\Community\VC\Tools\MSVC\14.28.29333\include\xmemory
;	COMDAT ??$_Destroy_range@V?$allocator@PAVCTextureAnimationRandomDecorator@NEffectUpdateDecorator@@@std@@@std@@YAXPAPAVCTextureAnimationRandomDecorator@NEffectUpdateDecorator@@QAPAV12@AAV?$allocator@PAVCTextureAnimationRandomDecorator@NEffectUpdateDecorator@@@0@@Z
_TEXT	SEGMENT
__First$ = 8						; size = 4
__Last$ = 12						; size = 4
__Al$ = 16						; size = 4
??$_Destroy_range@V?$allocator@PAVCTextureAnimationRandomDecorator@NEffectUpdateDecorator@@@std@@@std@@YAXPAPAVCTextureAnimationRandomDecorator@NEffectUpdateDecorator@@QAPAV12@AAV?$allocator@PAVCTextureAnimationRandomDecorator@NEffectUpdateDecorator@@@0@@Z PROC ; std::_Destroy_range<std::allocator<NEffectUpdateDecorator::CTextureAnimationRandomDecorator *> >, COMDAT

; 963  :     // note that this is an optimization for debug mode codegen; in release mode the BE removes all of this
; 964  :     using _Ty = typename _Alloc::value_type;
; 965  :     if _CONSTEXPR_IF (!conjunction_v<is_trivially_destructible<_Ty>, _Uses_default_destroy<_Alloc, _Ty*>>) {
; 966  :         for (; _First != _Last; ++_First) {
; 967  :             allocator_traits<_Alloc>::destroy(_Al, _Unfancy(_First));
; 968  :         }
; 969  :     }
; 970  : }

  00000	c2 00 00	 ret	 0
??$_Destroy_range@V?$allocator@PAVCTextureAnimationRandomDecorator@NEffectUpdateDecorator@@@std@@@std@@YAXPAPAVCTextureAnimationRandomDecorator@NEffectUpdateDecorator@@QAPAV12@AAV?$allocator@PAVCTextureAnimationRandomDecorator@NEffectUpdateDecorator@@@0@@Z ENDP ; std::_Destroy_range<std::allocator<NEffectUpdateDecorator::CTextureAnimationRandomDecorator *> >
_TEXT	ENDS
; Function compile flags: /Ogtp
; File C:\Program Files (x86)\Microsoft Visual Studio\2019\Community\VC\Tools\MSVC\14.28.29333\include\xmemory
;	COMDAT ??$_Destroy_range@V?$allocator@PAVCTextureAnimationCCWDecorator@NEffectUpdateDecorator@@@std@@@std@@YAXPAPAVCTextureAnimationCCWDecorator@NEffectUpdateDecorator@@QAPAV12@AAV?$allocator@PAVCTextureAnimationCCWDecorator@NEffectUpdateDecorator@@@0@@Z
_TEXT	SEGMENT
__First$ = 8						; size = 4
__Last$ = 12						; size = 4
__Al$ = 16						; size = 4
??$_Destroy_range@V?$allocator@PAVCTextureAnimationCCWDecorator@NEffectUpdateDecorator@@@std@@@std@@YAXPAPAVCTextureAnimationCCWDecorator@NEffectUpdateDecorator@@QAPAV12@AAV?$allocator@PAVCTextureAnimationCCWDecorator@NEffectUpdateDecorator@@@0@@Z PROC ; std::_Destroy_range<std::allocator<NEffectUpdateDecorator::CTextureAnimationCCWDecorator *> >, COMDAT

; 963  :     // note that this is an optimization for debug mode codegen; in release mode the BE removes all of this
; 964  :     using _Ty = typename _Alloc::value_type;
; 965  :     if _CONSTEXPR_IF (!conjunction_v<is_trivially_destructible<_Ty>, _Uses_default_destroy<_Alloc, _Ty*>>) {
; 966  :         for (; _First != _Last; ++_First) {
; 967  :             allocator_traits<_Alloc>::destroy(_Al, _Unfancy(_First));
; 968  :         }
; 969  :     }
; 970  : }

  00000	c2 00 00	 ret	 0
??$_Destroy_range@V?$allocator@PAVCTextureAnimationCCWDecorator@NEffectUpdateDecorator@@@std@@@std@@YAXPAPAVCTextureAnimationCCWDecorator@NEffectUpdateDecorator@@QAPAV12@AAV?$allocator@PAVCTextureAnimationCCWDecorator@NEffectUpdateDecorator@@@0@@Z ENDP ; std::_Destroy_range<std::allocator<NEffectUpdateDecorator::CTextureAnimationCCWDecorator *> >
_TEXT	ENDS
; Function compile flags: /Ogtp
; File C:\Program Files (x86)\Microsoft Visual Studio\2019\Community\VC\Tools\MSVC\14.28.29333\include\xmemory
;	COMDAT ??$_Destroy_range@V?$allocator@PAVCTextureAnimationCWDecorator@NEffectUpdateDecorator@@@std@@@std@@YAXPAPAVCTextureAnimationCWDecorator@NEffectUpdateDecorator@@QAPAV12@AAV?$allocator@PAVCTextureAnimationCWDecorator@NEffectUpdateDecorator@@@0@@Z
_TEXT	SEGMENT
__First$ = 8						; size = 4
__Last$ = 12						; size = 4
__Al$ = 16						; size = 4
??$_Destroy_range@V?$allocator@PAVCTextureAnimationCWDecorator@NEffectUpdateDecorator@@@std@@@std@@YAXPAPAVCTextureAnimationCWDecorator@NEffectUpdateDecorator@@QAPAV12@AAV?$allocator@PAVCTextureAnimationCWDecorator@NEffectUpdateDecorator@@@0@@Z PROC ; std::_Destroy_range<std::allocator<NEffectUpdateDecorator::CTextureAnimationCWDecorator *> >, COMDAT

; 963  :     // note that this is an optimization for debug mode codegen; in release mode the BE removes all of this
; 964  :     using _Ty = typename _Alloc::value_type;
; 965  :     if _CONSTEXPR_IF (!conjunction_v<is_trivially_destructible<_Ty>, _Uses_default_destroy<_Alloc, _Ty*>>) {
; 966  :         for (; _First != _Last; ++_First) {
; 967  :             allocator_traits<_Alloc>::destroy(_Al, _Unfancy(_First));
; 968  :         }
; 969  :     }
; 970  : }

  00000	c2 00 00	 ret	 0
??$_Destroy_range@V?$allocator@PAVCTextureAnimationCWDecorator@NEffectUpdateDecorator@@@std@@@std@@YAXPAPAVCTextureAnimationCWDecorator@NEffectUpdateDecorator@@QAPAV12@AAV?$allocator@PAVCTextureAnimationCWDecorator@NEffectUpdateDecorator@@@0@@Z ENDP ; std::_Destroy_range<std::allocator<NEffectUpdateDecorator::CTextureAnimationCWDecorator *> >
_TEXT	ENDS
; Function compile flags: /Ogtp
; File C:\Program Files (x86)\Microsoft Visual Studio\2019\Community\VC\Tools\MSVC\14.28.29333\include\xmemory
;	COMDAT ??$_Destroy_range@V?$allocator@PAVCNullDecorator@NEffectUpdateDecorator@@@std@@@std@@YAXPAPAVCNullDecorator@NEffectUpdateDecorator@@QAPAV12@AAV?$allocator@PAVCNullDecorator@NEffectUpdateDecorator@@@0@@Z
_TEXT	SEGMENT
__First$ = 8						; size = 4
__Last$ = 12						; size = 4
__Al$ = 16						; size = 4
??$_Destroy_range@V?$allocator@PAVCNullDecorator@NEffectUpdateDecorator@@@std@@@std@@YAXPAPAVCNullDecorator@NEffectUpdateDecorator@@QAPAV12@AAV?$allocator@PAVCNullDecorator@NEffectUpdateDecorator@@@0@@Z PROC ; std::_Destroy_range<std::allocator<NEffectUpdateDecorator::CNullDecorator *> >, COMDAT

; 963  :     // note that this is an optimization for debug mode codegen; in release mode the BE removes all of this
; 964  :     using _Ty = typename _Alloc::value_type;
; 965  :     if _CONSTEXPR_IF (!conjunction_v<is_trivially_destructible<_Ty>, _Uses_default_destroy<_Alloc, _Ty*>>) {
; 966  :         for (; _First != _Last; ++_First) {
; 967  :             allocator_traits<_Alloc>::destroy(_Al, _Unfancy(_First));
; 968  :         }
; 969  :     }
; 970  : }

  00000	c2 00 00	 ret	 0
??$_Destroy_range@V?$allocator@PAVCNullDecorator@NEffectUpdateDecorator@@@std@@@std@@YAXPAPAVCNullDecorator@NEffectUpdateDecorator@@QAPAV12@AAV?$allocator@PAVCNullDecorator@NEffectUpdateDecorator@@@0@@Z ENDP ; std::_Destroy_range<std::allocator<NEffectUpdateDecorator::CNullDecorator *> >
_TEXT	ENDS
; Function compile flags: /Ogtp
; File C:\Program Files (x86)\Microsoft Visual Studio\2019\Community\VC\Tools\MSVC\14.28.29333\include\xmemory
;	COMDAT ??$_Destroy_range@V?$allocator@PAVCHeaderDecorator@NEffectUpdateDecorator@@@std@@@std@@YAXPAPAVCHeaderDecorator@NEffectUpdateDecorator@@QAPAV12@AAV?$allocator@PAVCHeaderDecorator@NEffectUpdateDecorator@@@0@@Z
_TEXT	SEGMENT
__First$ = 8						; size = 4
__Last$ = 12						; size = 4
__Al$ = 16						; size = 4
??$_Destroy_range@V?$allocator@PAVCHeaderDecorator@NEffectUpdateDecorator@@@std@@@std@@YAXPAPAVCHeaderDecorator@NEffectUpdateDecorator@@QAPAV12@AAV?$allocator@PAVCHeaderDecorator@NEffectUpdateDecorator@@@0@@Z PROC ; std::_Destroy_range<std::allocator<NEffectUpdateDecorator::CHeaderDecorator *> >, COMDAT

; 963  :     // note that this is an optimization for debug mode codegen; in release mode the BE removes all of this
; 964  :     using _Ty = typename _Alloc::value_type;
; 965  :     if _CONSTEXPR_IF (!conjunction_v<is_trivially_destructible<_Ty>, _Uses_default_destroy<_Alloc, _Ty*>>) {
; 966  :         for (; _First != _Last; ++_First) {
; 967  :             allocator_traits<_Alloc>::destroy(_Al, _Unfancy(_First));
; 968  :         }
; 969  :     }
; 970  : }

  00000	c2 00 00	 ret	 0
??$_Destroy_range@V?$allocator@PAVCHeaderDecorator@NEffectUpdateDecorator@@@std@@@std@@YAXPAPAVCHeaderDecorator@NEffectUpdateDecorator@@QAPAV12@AAV?$allocator@PAVCHeaderDecorator@NEffectUpdateDecorator@@@0@@Z ENDP ; std::_Destroy_range<std::allocator<NEffectUpdateDecorator::CHeaderDecorator *> >
_TEXT	ENDS
; Function compile flags: /Ogtp
; File C:\Program Files (x86)\Microsoft Visual Studio\2019\Community\VC\Tools\MSVC\14.28.29333\include\xmemory
;	COMDAT ??$_Refancy@PAD$0A@@std@@YAPADPAD@Z
_TEXT	SEGMENT
__Ptr$ = 8						; size = 4
??$_Refancy@PAD$0A@@std@@YAPADPAD@Z PROC		; std::_Refancy<char *,0>, COMDAT

; 261  : _Pointer _Refancy(_Pointer _Ptr) noexcept {

  00000	55		 push	 ebp
  00001	8b ec		 mov	 ebp, esp

; 262  :     return _Ptr;

  00003	8b 45 08	 mov	 eax, DWORD PTR __Ptr$[ebp]

; 263  : }

  00006	5d		 pop	 ebp
  00007	c3		 ret	 0
??$_Refancy@PAD$0A@@std@@YAPADPAD@Z ENDP		; std::_Refancy<char *,0>
_TEXT	ENDS
; Function compile flags: /Ogtp
;	COMDAT ??_G?$CDynamicPoolEx@VCHeaderDecorator@NEffectUpdateDecorator@@@@UAEPAXI@Z
_TEXT	SEGMENT
___flags$ = 8						; size = 4
??_G?$CDynamicPoolEx@VCHeaderDecorator@NEffectUpdateDecorator@@@@UAEPAXI@Z PROC ; CDynamicPoolEx<NEffectUpdateDecorator::CHeaderDecorator>::`scalar deleting destructor', COMDAT
; _this$ = ecx
  00000	55		 push	 ebp
  00001	8b ec		 mov	 ebp, esp
  00003	56		 push	 esi
  00004	8b f1		 mov	 esi, ecx
  00006	e8 00 00 00 00	 call	 ??1?$CDynamicPoolEx@VCHeaderDecorator@NEffectUpdateDecorator@@@@UAE@XZ ; CDynamicPoolEx<NEffectUpdateDecorator::CHeaderDecorator>::~CDynamicPoolEx<NEffectUpdateDecorator::CHeaderDecorator>
  0000b	f6 45 08 01	 test	 BYTE PTR ___flags$[ebp], 1
  0000f	74 0b		 je	 SHORT $LN4@scalar
  00011	6a 24		 push	 36			; 00000024H
  00013	56		 push	 esi
  00014	e8 00 00 00 00	 call	 ??3@YAXPAXI@Z		; operator delete
  00019	83 c4 08	 add	 esp, 8
$LN4@scalar:
  0001c	8b c6		 mov	 eax, esi
  0001e	5e		 pop	 esi
  0001f	5d		 pop	 ebp
  00020	c2 04 00	 ret	 4
??_G?$CDynamicPoolEx@VCHeaderDecorator@NEffectUpdateDecorator@@@@UAEPAXI@Z ENDP ; CDynamicPoolEx<NEffectUpdateDecorator::CHeaderDecorator>::`scalar deleting destructor'
_TEXT	ENDS
; Function compile flags: /Ogtp
; File D:\Metin2 Server Files\mainline\SRC_2014\Metin2Client\eterLib\Pool.h
;	COMDAT ?Delete@?$CDynamicPoolEx@VCHeaderDecorator@NEffectUpdateDecorator@@@@KAXPAVCHeaderDecorator@NEffectUpdateDecorator@@@Z
_TEXT	SEGMENT
_pkData$ = 8						; size = 4
?Delete@?$CDynamicPoolEx@VCHeaderDecorator@NEffectUpdateDecorator@@@@KAXPAVCHeaderDecorator@NEffectUpdateDecorator@@@Z PROC ; CDynamicPoolEx<NEffectUpdateDecorator::CHeaderDecorator>::Delete, COMDAT

; 224  : 			::operator delete(pkData);

  00000	e9 00 00 00 00	 jmp	 ??3@YAXPAX@Z		; operator delete
?Delete@?$CDynamicPoolEx@VCHeaderDecorator@NEffectUpdateDecorator@@@@KAXPAVCHeaderDecorator@NEffectUpdateDecorator@@@Z ENDP ; CDynamicPoolEx<NEffectUpdateDecorator::CHeaderDecorator>::Delete
_TEXT	ENDS
; Function compile flags: /Ogtp
; File D:\Metin2 Server Files\mainline\SRC_2014\Metin2Client\eterLib\Pool.h
; File C:\Program Files (x86)\Microsoft Visual Studio\2019\Community\VC\Tools\MSVC\14.28.29333\include\vector
; File C:\Program Files (x86)\Microsoft Visual Studio\2019\Community\VC\Tools\MSVC\14.28.29333\include\algorithm
; File D:\Metin2 Server Files\mainline\SRC_2014\Metin2Client\eterLib\Pool.h
; File C:\Program Files (x86)\Microsoft Visual Studio\2019\Community\VC\Tools\MSVC\14.28.29333\include\algorithm
; File D:\Metin2 Server Files\mainline\SRC_2014\Metin2Client\eterLib\Pool.h
; File C:\Program Files (x86)\Microsoft Visual Studio\2019\Community\VC\Tools\MSVC\14.28.29333\include\algorithm
; File D:\Metin2 Server Files\mainline\SRC_2014\Metin2Client\eterLib\Pool.h
; File C:\Program Files (x86)\Microsoft Visual Studio\2019\Community\VC\Tools\MSVC\14.28.29333\include\vector
; File C:\Program Files (x86)\Microsoft Visual Studio\2019\Community\VC\Tools\MSVC\14.28.29333\include\xmemory
; File C:\Program Files (x86)\Microsoft Visual Studio\2019\Community\VC\Tools\MSVC\14.28.29333\include\vector
; File C:\Program Files (x86)\Microsoft Visual Studio\2019\Community\VC\Tools\MSVC\14.28.29333\include\xmemory
; File C:\Program Files (x86)\Microsoft Visual Studio\2019\Community\VC\Tools\MSVC\14.28.29333\include\vector
; File C:\Program Files (x86)\Microsoft Visual Studio\2019\Community\VC\Tools\MSVC\14.28.29333\include\xmemory
; File C:\Program Files (x86)\Microsoft Visual Studio\2019\Community\VC\Tools\MSVC\14.28.29333\include\vector
; File C:\Program Files (x86)\Microsoft Visual Studio\2019\Community\VC\Tools\MSVC\14.28.29333\include\xmemory
; File C:\Program Files (x86)\Microsoft Visual Studio\2019\Community\VC\Tools\MSVC\14.28.29333\include\vector
; File D:\Metin2 Server Files\mainline\SRC_2014\Metin2Client\eterLib\Pool.h
;	COMDAT ??1?$CDynamicPoolEx@VCHeaderDecorator@NEffectUpdateDecorator@@@@UAE@XZ
_TEXT	SEGMENT
??1?$CDynamicPoolEx@VCHeaderDecorator@NEffectUpdateDecorator@@@@UAE@XZ PROC ; CDynamicPoolEx<NEffectUpdateDecorator::CHeaderDecorator>::~CDynamicPoolEx<NEffectUpdateDecorator::CHeaderDecorator>, COMDAT
; _this$ = ecx

; 132  : 		{

  00000	53		 push	 ebx
  00001	56		 push	 esi
  00002	57		 push	 edi
  00003	8b f9		 mov	 edi, ecx
  00005	c7 07 00 00 00
	00		 mov	 DWORD PTR [edi], OFFSET ??_7?$CDynamicPoolEx@VCHeaderDecorator@NEffectUpdateDecorator@@@@6B@
; File C:\Program Files (x86)\Microsoft Visual Studio\2019\Community\VC\Tools\MSVC\14.28.29333\include\vector

; 42   :     _Vector_const_iterator(_Tptr _Parg, const _Container_base* _Pvector) noexcept : _Ptr(_Parg) {

  0000b	8b 5f 08	 mov	 ebx, DWORD PTR [edi+8]
  0000e	8b 77 04	 mov	 esi, DWORD PTR [edi+4]
; File C:\Program Files (x86)\Microsoft Visual Studio\2019\Community\VC\Tools\MSVC\14.28.29333\include\algorithm

; 307  :     for (; _UFirst != _ULast; ++_UFirst) {

  00011	3b f3		 cmp	 esi, ebx
  00013	74 14		 je	 SHORT $LN19@CDynamicPo
$LL20@CDynamicPo:
; File D:\Metin2 Server Files\mainline\SRC_2014\Metin2Client\eterLib\Pool.h

; 224  : 			::operator delete(pkData);

  00015	ff 36		 push	 DWORD PTR [esi]
  00017	e8 00 00 00 00	 call	 ??3@YAXPAX@Z		; operator delete
; File C:\Program Files (x86)\Microsoft Visual Studio\2019\Community\VC\Tools\MSVC\14.28.29333\include\algorithm

; 307  :     for (; _UFirst != _ULast; ++_UFirst) {

  0001c	83 c6 04	 add	 esi, 4
; File D:\Metin2 Server Files\mainline\SRC_2014\Metin2Client\eterLib\Pool.h

; 224  : 			::operator delete(pkData);

  0001f	83 c4 04	 add	 esp, 4
; File C:\Program Files (x86)\Microsoft Visual Studio\2019\Community\VC\Tools\MSVC\14.28.29333\include\algorithm

; 307  :     for (; _UFirst != _ULast; ++_UFirst) {

  00022	3b f3		 cmp	 esi, ebx
  00024	75 ef		 jne	 SHORT $LL20@CDynamicPo
  00026	8b 77 04	 mov	 esi, DWORD PTR [edi+4]
$LN19@CDynamicPo:
; File D:\Metin2 Server Files\mainline\SRC_2014\Metin2Client\eterLib\Pool.h

; 162  : 			m_kVct_pkFree.clear();

  00029	8b 4f 10	 mov	 ecx, DWORD PTR [edi+16]
  0002c	89 77 08	 mov	 DWORD PTR [edi+8], esi
  0002f	89 4f 14	 mov	 DWORD PTR [edi+20], ecx
; File C:\Program Files (x86)\Microsoft Visual Studio\2019\Community\VC\Tools\MSVC\14.28.29333\include\vector

; 1694 :         if (_Myfirst) { // destroy and deallocate old array

  00032	85 c9		 test	 ecx, ecx
  00034	74 27		 je	 SHORT $LN27@CDynamicPo

; 1695 :             _Destroy(_Myfirst, _Mylast);
; 1696 :             _Getal().deallocate(_Myfirst, static_cast<size_type>(_Myend - _Myfirst));

  00036	8b 47 18	 mov	 eax, DWORD PTR [edi+24]
  00039	2b c1		 sub	 eax, ecx
; File C:\Program Files (x86)\Microsoft Visual Studio\2019\Community\VC\Tools\MSVC\14.28.29333\include\xmemory

; 810  :         _Deallocate<_New_alignof<_Ty>>(_Ptr, sizeof(_Ty) * _Count);

  0003b	83 e0 fc	 and	 eax, -4			; fffffffcH
  0003e	50		 push	 eax
  0003f	51		 push	 ecx
  00040	e8 00 00 00 00	 call	 ??$_Deallocate@$07$0A@@std@@YAXPAXI@Z ; std::_Deallocate<8,0>
; File C:\Program Files (x86)\Microsoft Visual Studio\2019\Community\VC\Tools\MSVC\14.28.29333\include\vector

; 1698 :             _Myfirst = pointer();

  00045	c7 47 10 00 00
	00 00		 mov	 DWORD PTR [edi+16], 0
; File C:\Program Files (x86)\Microsoft Visual Studio\2019\Community\VC\Tools\MSVC\14.28.29333\include\xmemory

; 810  :         _Deallocate<_New_alignof<_Ty>>(_Ptr, sizeof(_Ty) * _Count);

  0004c	83 c4 08	 add	 esp, 8
; File C:\Program Files (x86)\Microsoft Visual Studio\2019\Community\VC\Tools\MSVC\14.28.29333\include\vector

; 1699 :             _Mylast  = pointer();

  0004f	c7 47 14 00 00
	00 00		 mov	 DWORD PTR [edi+20], 0

; 1700 :             _Myend   = pointer();

  00056	c7 47 18 00 00
	00 00		 mov	 DWORD PTR [edi+24], 0
$LN27@CDynamicPo:

; 1694 :         if (_Myfirst) { // destroy and deallocate old array

  0005d	8b 4f 04	 mov	 ecx, DWORD PTR [edi+4]
  00060	85 c9		 test	 ecx, ecx
  00062	74 27		 je	 SHORT $LN34@CDynamicPo

; 1695 :             _Destroy(_Myfirst, _Mylast);
; 1696 :             _Getal().deallocate(_Myfirst, static_cast<size_type>(_Myend - _Myfirst));

  00064	8b 47 0c	 mov	 eax, DWORD PTR [edi+12]
  00067	2b c1		 sub	 eax, ecx
; File C:\Program Files (x86)\Microsoft Visual Studio\2019\Community\VC\Tools\MSVC\14.28.29333\include\xmemory

; 810  :         _Deallocate<_New_alignof<_Ty>>(_Ptr, sizeof(_Ty) * _Count);

  00069	83 e0 fc	 and	 eax, -4			; fffffffcH
  0006c	50		 push	 eax
  0006d	51		 push	 ecx
  0006e	e8 00 00 00 00	 call	 ??$_Deallocate@$07$0A@@std@@YAXPAXI@Z ; std::_Deallocate<8,0>
; File C:\Program Files (x86)\Microsoft Visual Studio\2019\Community\VC\Tools\MSVC\14.28.29333\include\vector

; 1698 :             _Myfirst = pointer();

  00073	c7 47 04 00 00
	00 00		 mov	 DWORD PTR [edi+4], 0
; File C:\Program Files (x86)\Microsoft Visual Studio\2019\Community\VC\Tools\MSVC\14.28.29333\include\xmemory

; 810  :         _Deallocate<_New_alignof<_Ty>>(_Ptr, sizeof(_Ty) * _Count);

  0007a	83 c4 08	 add	 esp, 8
; File C:\Program Files (x86)\Microsoft Visual Studio\2019\Community\VC\Tools\MSVC\14.28.29333\include\vector

; 1699 :             _Mylast  = pointer();

  0007d	c7 47 08 00 00
	00 00		 mov	 DWORD PTR [edi+8], 0

; 1700 :             _Myend   = pointer();

  00084	c7 47 0c 00 00
	00 00		 mov	 DWORD PTR [edi+12], 0
$LN34@CDynamicPo:
  0008b	5f		 pop	 edi
; File D:\Metin2 Server Files\mainline\SRC_2014\Metin2Client\eterLib\Pool.h

; 142  : 		}

  0008c	5e		 pop	 esi
  0008d	5b		 pop	 ebx
  0008e	c3		 ret	 0
??1?$CDynamicPoolEx@VCHeaderDecorator@NEffectUpdateDecorator@@@@UAE@XZ ENDP ; CDynamicPoolEx<NEffectUpdateDecorator::CHeaderDecorator>::~CDynamicPoolEx<NEffectUpdateDecorator::CHeaderDecorator>
_TEXT	ENDS
; Function compile flags: /Ogtp
;	COMDAT ??_G?$CDynamicPoolEx@VCNullDecorator@NEffectUpdateDecorator@@@@UAEPAXI@Z
_TEXT	SEGMENT
___flags$ = 8						; size = 4
??_G?$CDynamicPoolEx@VCNullDecorator@NEffectUpdateDecorator@@@@UAEPAXI@Z PROC ; CDynamicPoolEx<NEffectUpdateDecorator::CNullDecorator>::`scalar deleting destructor', COMDAT
; _this$ = ecx
  00000	55		 push	 ebp
  00001	8b ec		 mov	 ebp, esp
  00003	56		 push	 esi
  00004	8b f1		 mov	 esi, ecx
  00006	e8 00 00 00 00	 call	 ??1?$CDynamicPoolEx@VCNullDecorator@NEffectUpdateDecorator@@@@UAE@XZ ; CDynamicPoolEx<NEffectUpdateDecorator::CNullDecorator>::~CDynamicPoolEx<NEffectUpdateDecorator::CNullDecorator>
  0000b	f6 45 08 01	 test	 BYTE PTR ___flags$[ebp], 1
  0000f	74 0b		 je	 SHORT $LN4@scalar
  00011	6a 24		 push	 36			; 00000024H
  00013	56		 push	 esi
  00014	e8 00 00 00 00	 call	 ??3@YAXPAXI@Z		; operator delete
  00019	83 c4 08	 add	 esp, 8
$LN4@scalar:
  0001c	8b c6		 mov	 eax, esi
  0001e	5e		 pop	 esi
  0001f	5d		 pop	 ebp
  00020	c2 04 00	 ret	 4
??_G?$CDynamicPoolEx@VCNullDecorator@NEffectUpdateDecorator@@@@UAEPAXI@Z ENDP ; CDynamicPoolEx<NEffectUpdateDecorator::CNullDecorator>::`scalar deleting destructor'
_TEXT	ENDS
; Function compile flags: /Ogtp
; File D:\Metin2 Server Files\mainline\SRC_2014\Metin2Client\eterLib\Pool.h
;	COMDAT ?Delete@?$CDynamicPoolEx@VCNullDecorator@NEffectUpdateDecorator@@@@KAXPAVCNullDecorator@NEffectUpdateDecorator@@@Z
_TEXT	SEGMENT
_pkData$ = 8						; size = 4
?Delete@?$CDynamicPoolEx@VCNullDecorator@NEffectUpdateDecorator@@@@KAXPAVCNullDecorator@NEffectUpdateDecorator@@@Z PROC ; CDynamicPoolEx<NEffectUpdateDecorator::CNullDecorator>::Delete, COMDAT

; 224  : 			::operator delete(pkData);

  00000	e9 00 00 00 00	 jmp	 ??3@YAXPAX@Z		; operator delete
?Delete@?$CDynamicPoolEx@VCNullDecorator@NEffectUpdateDecorator@@@@KAXPAVCNullDecorator@NEffectUpdateDecorator@@@Z ENDP ; CDynamicPoolEx<NEffectUpdateDecorator::CNullDecorator>::Delete
_TEXT	ENDS
; Function compile flags: /Ogtp
; File D:\Metin2 Server Files\mainline\SRC_2014\Metin2Client\eterLib\Pool.h
; File C:\Program Files (x86)\Microsoft Visual Studio\2019\Community\VC\Tools\MSVC\14.28.29333\include\vector
; File C:\Program Files (x86)\Microsoft Visual Studio\2019\Community\VC\Tools\MSVC\14.28.29333\include\algorithm
; File D:\Metin2 Server Files\mainline\SRC_2014\Metin2Client\eterLib\Pool.h
; File C:\Program Files (x86)\Microsoft Visual Studio\2019\Community\VC\Tools\MSVC\14.28.29333\include\algorithm
; File D:\Metin2 Server Files\mainline\SRC_2014\Metin2Client\eterLib\Pool.h
; File C:\Program Files (x86)\Microsoft Visual Studio\2019\Community\VC\Tools\MSVC\14.28.29333\include\algorithm
; File D:\Metin2 Server Files\mainline\SRC_2014\Metin2Client\eterLib\Pool.h
; File C:\Program Files (x86)\Microsoft Visual Studio\2019\Community\VC\Tools\MSVC\14.28.29333\include\vector
; File C:\Program Files (x86)\Microsoft Visual Studio\2019\Community\VC\Tools\MSVC\14.28.29333\include\xmemory
; File C:\Program Files (x86)\Microsoft Visual Studio\2019\Community\VC\Tools\MSVC\14.28.29333\include\vector
; File C:\Program Files (x86)\Microsoft Visual Studio\2019\Community\VC\Tools\MSVC\14.28.29333\include\xmemory
; File C:\Program Files (x86)\Microsoft Visual Studio\2019\Community\VC\Tools\MSVC\14.28.29333\include\vector
; File C:\Program Files (x86)\Microsoft Visual Studio\2019\Community\VC\Tools\MSVC\14.28.29333\include\xmemory
; File C:\Program Files (x86)\Microsoft Visual Studio\2019\Community\VC\Tools\MSVC\14.28.29333\include\vector
; File C:\Program Files (x86)\Microsoft Visual Studio\2019\Community\VC\Tools\MSVC\14.28.29333\include\xmemory
; File C:\Program Files (x86)\Microsoft Visual Studio\2019\Community\VC\Tools\MSVC\14.28.29333\include\vector
; File D:\Metin2 Server Files\mainline\SRC_2014\Metin2Client\eterLib\Pool.h
;	COMDAT ??1?$CDynamicPoolEx@VCNullDecorator@NEffectUpdateDecorator@@@@UAE@XZ
_TEXT	SEGMENT
??1?$CDynamicPoolEx@VCNullDecorator@NEffectUpdateDecorator@@@@UAE@XZ PROC ; CDynamicPoolEx<NEffectUpdateDecorator::CNullDecorator>::~CDynamicPoolEx<NEffectUpdateDecorator::CNullDecorator>, COMDAT
; _this$ = ecx

; 132  : 		{

  00000	53		 push	 ebx
  00001	56		 push	 esi
  00002	57		 push	 edi
  00003	8b f9		 mov	 edi, ecx
  00005	c7 07 00 00 00
	00		 mov	 DWORD PTR [edi], OFFSET ??_7?$CDynamicPoolEx@VCNullDecorator@NEffectUpdateDecorator@@@@6B@
; File C:\Program Files (x86)\Microsoft Visual Studio\2019\Community\VC\Tools\MSVC\14.28.29333\include\vector

; 42   :     _Vector_const_iterator(_Tptr _Parg, const _Container_base* _Pvector) noexcept : _Ptr(_Parg) {

  0000b	8b 5f 08	 mov	 ebx, DWORD PTR [edi+8]
  0000e	8b 77 04	 mov	 esi, DWORD PTR [edi+4]
; File C:\Program Files (x86)\Microsoft Visual Studio\2019\Community\VC\Tools\MSVC\14.28.29333\include\algorithm

; 307  :     for (; _UFirst != _ULast; ++_UFirst) {

  00011	3b f3		 cmp	 esi, ebx
  00013	74 14		 je	 SHORT $LN19@CDynamicPo
$LL20@CDynamicPo:
; File D:\Metin2 Server Files\mainline\SRC_2014\Metin2Client\eterLib\Pool.h

; 224  : 			::operator delete(pkData);

  00015	ff 36		 push	 DWORD PTR [esi]
  00017	e8 00 00 00 00	 call	 ??3@YAXPAX@Z		; operator delete
; File C:\Program Files (x86)\Microsoft Visual Studio\2019\Community\VC\Tools\MSVC\14.28.29333\include\algorithm

; 307  :     for (; _UFirst != _ULast; ++_UFirst) {

  0001c	83 c6 04	 add	 esi, 4
; File D:\Metin2 Server Files\mainline\SRC_2014\Metin2Client\eterLib\Pool.h

; 224  : 			::operator delete(pkData);

  0001f	83 c4 04	 add	 esp, 4
; File C:\Program Files (x86)\Microsoft Visual Studio\2019\Community\VC\Tools\MSVC\14.28.29333\include\algorithm

; 307  :     for (; _UFirst != _ULast; ++_UFirst) {

  00022	3b f3		 cmp	 esi, ebx
  00024	75 ef		 jne	 SHORT $LL20@CDynamicPo
  00026	8b 77 04	 mov	 esi, DWORD PTR [edi+4]
$LN19@CDynamicPo:
; File D:\Metin2 Server Files\mainline\SRC_2014\Metin2Client\eterLib\Pool.h

; 162  : 			m_kVct_pkFree.clear();

  00029	8b 4f 10	 mov	 ecx, DWORD PTR [edi+16]
  0002c	89 77 08	 mov	 DWORD PTR [edi+8], esi
  0002f	89 4f 14	 mov	 DWORD PTR [edi+20], ecx
; File C:\Program Files (x86)\Microsoft Visual Studio\2019\Community\VC\Tools\MSVC\14.28.29333\include\vector

; 1694 :         if (_Myfirst) { // destroy and deallocate old array

  00032	85 c9		 test	 ecx, ecx
  00034	74 27		 je	 SHORT $LN27@CDynamicPo

; 1695 :             _Destroy(_Myfirst, _Mylast);
; 1696 :             _Getal().deallocate(_Myfirst, static_cast<size_type>(_Myend - _Myfirst));

  00036	8b 47 18	 mov	 eax, DWORD PTR [edi+24]
  00039	2b c1		 sub	 eax, ecx
; File C:\Program Files (x86)\Microsoft Visual Studio\2019\Community\VC\Tools\MSVC\14.28.29333\include\xmemory

; 810  :         _Deallocate<_New_alignof<_Ty>>(_Ptr, sizeof(_Ty) * _Count);

  0003b	83 e0 fc	 and	 eax, -4			; fffffffcH
  0003e	50		 push	 eax
  0003f	51		 push	 ecx
  00040	e8 00 00 00 00	 call	 ??$_Deallocate@$07$0A@@std@@YAXPAXI@Z ; std::_Deallocate<8,0>
; File C:\Program Files (x86)\Microsoft Visual Studio\2019\Community\VC\Tools\MSVC\14.28.29333\include\vector

; 1698 :             _Myfirst = pointer();

  00045	c7 47 10 00 00
	00 00		 mov	 DWORD PTR [edi+16], 0
; File C:\Program Files (x86)\Microsoft Visual Studio\2019\Community\VC\Tools\MSVC\14.28.29333\include\xmemory

; 810  :         _Deallocate<_New_alignof<_Ty>>(_Ptr, sizeof(_Ty) * _Count);

  0004c	83 c4 08	 add	 esp, 8
; File C:\Program Files (x86)\Microsoft Visual Studio\2019\Community\VC\Tools\MSVC\14.28.29333\include\vector

; 1699 :             _Mylast  = pointer();

  0004f	c7 47 14 00 00
	00 00		 mov	 DWORD PTR [edi+20], 0

; 1700 :             _Myend   = pointer();

  00056	c7 47 18 00 00
	00 00		 mov	 DWORD PTR [edi+24], 0
$LN27@CDynamicPo:

; 1694 :         if (_Myfirst) { // destroy and deallocate old array

  0005d	8b 4f 04	 mov	 ecx, DWORD PTR [edi+4]
  00060	85 c9		 test	 ecx, ecx
  00062	74 27		 je	 SHORT $LN34@CDynamicPo

; 1695 :             _Destroy(_Myfirst, _Mylast);
; 1696 :             _Getal().deallocate(_Myfirst, static_cast<size_type>(_Myend - _Myfirst));

  00064	8b 47 0c	 mov	 eax, DWORD PTR [edi+12]
  00067	2b c1		 sub	 eax, ecx
; File C:\Program Files (x86)\Microsoft Visual Studio\2019\Community\VC\Tools\MSVC\14.28.29333\include\xmemory

; 810  :         _Deallocate<_New_alignof<_Ty>>(_Ptr, sizeof(_Ty) * _Count);

  00069	83 e0 fc	 and	 eax, -4			; fffffffcH
  0006c	50		 push	 eax
  0006d	51		 push	 ecx
  0006e	e8 00 00 00 00	 call	 ??$_Deallocate@$07$0A@@std@@YAXPAXI@Z ; std::_Deallocate<8,0>
; File C:\Program Files (x86)\Microsoft Visual Studio\2019\Community\VC\Tools\MSVC\14.28.29333\include\vector

; 1698 :             _Myfirst = pointer();

  00073	c7 47 04 00 00
	00 00		 mov	 DWORD PTR [edi+4], 0
; File C:\Program Files (x86)\Microsoft Visual Studio\2019\Community\VC\Tools\MSVC\14.28.29333\include\xmemory

; 810  :         _Deallocate<_New_alignof<_Ty>>(_Ptr, sizeof(_Ty) * _Count);

  0007a	83 c4 08	 add	 esp, 8
; File C:\Program Files (x86)\Microsoft Visual Studio\2019\Community\VC\Tools\MSVC\14.28.29333\include\vector

; 1699 :             _Mylast  = pointer();

  0007d	c7 47 08 00 00
	00 00		 mov	 DWORD PTR [edi+8], 0

; 1700 :             _Myend   = pointer();

  00084	c7 47 0c 00 00
	00 00		 mov	 DWORD PTR [edi+12], 0
$LN34@CDynamicPo:
  0008b	5f		 pop	 edi
; File D:\Metin2 Server Files\mainline\SRC_2014\Metin2Client\eterLib\Pool.h

; 142  : 		}

  0008c	5e		 pop	 esi
  0008d	5b		 pop	 ebx
  0008e	c3		 ret	 0
??1?$CDynamicPoolEx@VCNullDecorator@NEffectUpdateDecorator@@@@UAE@XZ ENDP ; CDynamicPoolEx<NEffectUpdateDecorator::CNullDecorator>::~CDynamicPoolEx<NEffectUpdateDecorator::CNullDecorator>
_TEXT	ENDS
; Function compile flags: /Ogtp
;	COMDAT ??_G?$CDynamicPoolEx@VCTextureAnimationCWDecorator@NEffectUpdateDecorator@@@@UAEPAXI@Z
_TEXT	SEGMENT
___flags$ = 8						; size = 4
??_G?$CDynamicPoolEx@VCTextureAnimationCWDecorator@NEffectUpdateDecorator@@@@UAEPAXI@Z PROC ; CDynamicPoolEx<NEffectUpdateDecorator::CTextureAnimationCWDecorator>::`scalar deleting destructor', COMDAT
; _this$ = ecx
  00000	55		 push	 ebp
  00001	8b ec		 mov	 ebp, esp
  00003	56		 push	 esi
  00004	8b f1		 mov	 esi, ecx
  00006	e8 00 00 00 00	 call	 ??1?$CDynamicPoolEx@VCTextureAnimationCWDecorator@NEffectUpdateDecorator@@@@UAE@XZ ; CDynamicPoolEx<NEffectUpdateDecorator::CTextureAnimationCWDecorator>::~CDynamicPoolEx<NEffectUpdateDecorator::CTextureAnimationCWDecorator>
  0000b	f6 45 08 01	 test	 BYTE PTR ___flags$[ebp], 1
  0000f	74 0b		 je	 SHORT $LN4@scalar
  00011	6a 24		 push	 36			; 00000024H
  00013	56		 push	 esi
  00014	e8 00 00 00 00	 call	 ??3@YAXPAXI@Z		; operator delete
  00019	83 c4 08	 add	 esp, 8
$LN4@scalar:
  0001c	8b c6		 mov	 eax, esi
  0001e	5e		 pop	 esi
  0001f	5d		 pop	 ebp
  00020	c2 04 00	 ret	 4
??_G?$CDynamicPoolEx@VCTextureAnimationCWDecorator@NEffectUpdateDecorator@@@@UAEPAXI@Z ENDP ; CDynamicPoolEx<NEffectUpdateDecorator::CTextureAnimationCWDecorator>::`scalar deleting destructor'
_TEXT	ENDS
; Function compile flags: /Ogtp
; File D:\Metin2 Server Files\mainline\SRC_2014\Metin2Client\eterLib\Pool.h
;	COMDAT ?Delete@?$CDynamicPoolEx@VCTextureAnimationCWDecorator@NEffectUpdateDecorator@@@@KAXPAVCTextureAnimationCWDecorator@NEffectUpdateDecorator@@@Z
_TEXT	SEGMENT
_pkData$ = 8						; size = 4
?Delete@?$CDynamicPoolEx@VCTextureAnimationCWDecorator@NEffectUpdateDecorator@@@@KAXPAVCTextureAnimationCWDecorator@NEffectUpdateDecorator@@@Z PROC ; CDynamicPoolEx<NEffectUpdateDecorator::CTextureAnimationCWDecorator>::Delete, COMDAT

; 224  : 			::operator delete(pkData);

  00000	e9 00 00 00 00	 jmp	 ??3@YAXPAX@Z		; operator delete
?Delete@?$CDynamicPoolEx@VCTextureAnimationCWDecorator@NEffectUpdateDecorator@@@@KAXPAVCTextureAnimationCWDecorator@NEffectUpdateDecorator@@@Z ENDP ; CDynamicPoolEx<NEffectUpdateDecorator::CTextureAnimationCWDecorator>::Delete
_TEXT	ENDS
; Function compile flags: /Ogtp
; File D:\Metin2 Server Files\mainline\SRC_2014\Metin2Client\eterLib\Pool.h
; File C:\Program Files (x86)\Microsoft Visual Studio\2019\Community\VC\Tools\MSVC\14.28.29333\include\vector
; File C:\Program Files (x86)\Microsoft Visual Studio\2019\Community\VC\Tools\MSVC\14.28.29333\include\algorithm
; File D:\Metin2 Server Files\mainline\SRC_2014\Metin2Client\eterLib\Pool.h
; File C:\Program Files (x86)\Microsoft Visual Studio\2019\Community\VC\Tools\MSVC\14.28.29333\include\algorithm
; File D:\Metin2 Server Files\mainline\SRC_2014\Metin2Client\eterLib\Pool.h
; File C:\Program Files (x86)\Microsoft Visual Studio\2019\Community\VC\Tools\MSVC\14.28.29333\include\algorithm
; File D:\Metin2 Server Files\mainline\SRC_2014\Metin2Client\eterLib\Pool.h
; File C:\Program Files (x86)\Microsoft Visual Studio\2019\Community\VC\Tools\MSVC\14.28.29333\include\vector
; File C:\Program Files (x86)\Microsoft Visual Studio\2019\Community\VC\Tools\MSVC\14.28.29333\include\xmemory
; File C:\Program Files (x86)\Microsoft Visual Studio\2019\Community\VC\Tools\MSVC\14.28.29333\include\vector
; File C:\Program Files (x86)\Microsoft Visual Studio\2019\Community\VC\Tools\MSVC\14.28.29333\include\xmemory
; File C:\Program Files (x86)\Microsoft Visual Studio\2019\Community\VC\Tools\MSVC\14.28.29333\include\vector
; File C:\Program Files (x86)\Microsoft Visual Studio\2019\Community\VC\Tools\MSVC\14.28.29333\include\xmemory
; File C:\Program Files (x86)\Microsoft Visual Studio\2019\Community\VC\Tools\MSVC\14.28.29333\include\vector
; File C:\Program Files (x86)\Microsoft Visual Studio\2019\Community\VC\Tools\MSVC\14.28.29333\include\xmemory
; File C:\Program Files (x86)\Microsoft Visual Studio\2019\Community\VC\Tools\MSVC\14.28.29333\include\vector
; File D:\Metin2 Server Files\mainline\SRC_2014\Metin2Client\eterLib\Pool.h
;	COMDAT ??1?$CDynamicPoolEx@VCTextureAnimationCWDecorator@NEffectUpdateDecorator@@@@UAE@XZ
_TEXT	SEGMENT
??1?$CDynamicPoolEx@VCTextureAnimationCWDecorator@NEffectUpdateDecorator@@@@UAE@XZ PROC ; CDynamicPoolEx<NEffectUpdateDecorator::CTextureAnimationCWDecorator>::~CDynamicPoolEx<NEffectUpdateDecorator::CTextureAnimationCWDecorator>, COMDAT
; _this$ = ecx

; 132  : 		{

  00000	53		 push	 ebx
  00001	56		 push	 esi
  00002	57		 push	 edi
  00003	8b f9		 mov	 edi, ecx
  00005	c7 07 00 00 00
	00		 mov	 DWORD PTR [edi], OFFSET ??_7?$CDynamicPoolEx@VCTextureAnimationCWDecorator@NEffectUpdateDecorator@@@@6B@
; File C:\Program Files (x86)\Microsoft Visual Studio\2019\Community\VC\Tools\MSVC\14.28.29333\include\vector

; 42   :     _Vector_const_iterator(_Tptr _Parg, const _Container_base* _Pvector) noexcept : _Ptr(_Parg) {

  0000b	8b 5f 08	 mov	 ebx, DWORD PTR [edi+8]
  0000e	8b 77 04	 mov	 esi, DWORD PTR [edi+4]
; File C:\Program Files (x86)\Microsoft Visual Studio\2019\Community\VC\Tools\MSVC\14.28.29333\include\algorithm

; 307  :     for (; _UFirst != _ULast; ++_UFirst) {

  00011	3b f3		 cmp	 esi, ebx
  00013	74 14		 je	 SHORT $LN19@CDynamicPo
$LL20@CDynamicPo:
; File D:\Metin2 Server Files\mainline\SRC_2014\Metin2Client\eterLib\Pool.h

; 224  : 			::operator delete(pkData);

  00015	ff 36		 push	 DWORD PTR [esi]
  00017	e8 00 00 00 00	 call	 ??3@YAXPAX@Z		; operator delete
; File C:\Program Files (x86)\Microsoft Visual Studio\2019\Community\VC\Tools\MSVC\14.28.29333\include\algorithm

; 307  :     for (; _UFirst != _ULast; ++_UFirst) {

  0001c	83 c6 04	 add	 esi, 4
; File D:\Metin2 Server Files\mainline\SRC_2014\Metin2Client\eterLib\Pool.h

; 224  : 			::operator delete(pkData);

  0001f	83 c4 04	 add	 esp, 4
; File C:\Program Files (x86)\Microsoft Visual Studio\2019\Community\VC\Tools\MSVC\14.28.29333\include\algorithm

; 307  :     for (; _UFirst != _ULast; ++_UFirst) {

  00022	3b f3		 cmp	 esi, ebx
  00024	75 ef		 jne	 SHORT $LL20@CDynamicPo
  00026	8b 77 04	 mov	 esi, DWORD PTR [edi+4]
$LN19@CDynamicPo:
; File D:\Metin2 Server Files\mainline\SRC_2014\Metin2Client\eterLib\Pool.h

; 162  : 			m_kVct_pkFree.clear();

  00029	8b 4f 10	 mov	 ecx, DWORD PTR [edi+16]
  0002c	89 77 08	 mov	 DWORD PTR [edi+8], esi
  0002f	89 4f 14	 mov	 DWORD PTR [edi+20], ecx
; File C:\Program Files (x86)\Microsoft Visual Studio\2019\Community\VC\Tools\MSVC\14.28.29333\include\vector

; 1694 :         if (_Myfirst) { // destroy and deallocate old array

  00032	85 c9		 test	 ecx, ecx
  00034	74 27		 je	 SHORT $LN27@CDynamicPo

; 1695 :             _Destroy(_Myfirst, _Mylast);
; 1696 :             _Getal().deallocate(_Myfirst, static_cast<size_type>(_Myend - _Myfirst));

  00036	8b 47 18	 mov	 eax, DWORD PTR [edi+24]
  00039	2b c1		 sub	 eax, ecx
; File C:\Program Files (x86)\Microsoft Visual Studio\2019\Community\VC\Tools\MSVC\14.28.29333\include\xmemory

; 810  :         _Deallocate<_New_alignof<_Ty>>(_Ptr, sizeof(_Ty) * _Count);

  0003b	83 e0 fc	 and	 eax, -4			; fffffffcH
  0003e	50		 push	 eax
  0003f	51		 push	 ecx
  00040	e8 00 00 00 00	 call	 ??$_Deallocate@$07$0A@@std@@YAXPAXI@Z ; std::_Deallocate<8,0>
; File C:\Program Files (x86)\Microsoft Visual Studio\2019\Community\VC\Tools\MSVC\14.28.29333\include\vector

; 1698 :             _Myfirst = pointer();

  00045	c7 47 10 00 00
	00 00		 mov	 DWORD PTR [edi+16], 0
; File C:\Program Files (x86)\Microsoft Visual Studio\2019\Community\VC\Tools\MSVC\14.28.29333\include\xmemory

; 810  :         _Deallocate<_New_alignof<_Ty>>(_Ptr, sizeof(_Ty) * _Count);

  0004c	83 c4 08	 add	 esp, 8
; File C:\Program Files (x86)\Microsoft Visual Studio\2019\Community\VC\Tools\MSVC\14.28.29333\include\vector

; 1699 :             _Mylast  = pointer();

  0004f	c7 47 14 00 00
	00 00		 mov	 DWORD PTR [edi+20], 0

; 1700 :             _Myend   = pointer();

  00056	c7 47 18 00 00
	00 00		 mov	 DWORD PTR [edi+24], 0
$LN27@CDynamicPo:

; 1694 :         if (_Myfirst) { // destroy and deallocate old array

  0005d	8b 4f 04	 mov	 ecx, DWORD PTR [edi+4]
  00060	85 c9		 test	 ecx, ecx
  00062	74 27		 je	 SHORT $LN34@CDynamicPo

; 1695 :             _Destroy(_Myfirst, _Mylast);
; 1696 :             _Getal().deallocate(_Myfirst, static_cast<size_type>(_Myend - _Myfirst));

  00064	8b 47 0c	 mov	 eax, DWORD PTR [edi+12]
  00067	2b c1		 sub	 eax, ecx
; File C:\Program Files (x86)\Microsoft Visual Studio\2019\Community\VC\Tools\MSVC\14.28.29333\include\xmemory

; 810  :         _Deallocate<_New_alignof<_Ty>>(_Ptr, sizeof(_Ty) * _Count);

  00069	83 e0 fc	 and	 eax, -4			; fffffffcH
  0006c	50		 push	 eax
  0006d	51		 push	 ecx
  0006e	e8 00 00 00 00	 call	 ??$_Deallocate@$07$0A@@std@@YAXPAXI@Z ; std::_Deallocate<8,0>
; File C:\Program Files (x86)\Microsoft Visual Studio\2019\Community\VC\Tools\MSVC\14.28.29333\include\vector

; 1698 :             _Myfirst = pointer();

  00073	c7 47 04 00 00
	00 00		 mov	 DWORD PTR [edi+4], 0
; File C:\Program Files (x86)\Microsoft Visual Studio\2019\Community\VC\Tools\MSVC\14.28.29333\include\xmemory

; 810  :         _Deallocate<_New_alignof<_Ty>>(_Ptr, sizeof(_Ty) * _Count);

  0007a	83 c4 08	 add	 esp, 8
; File C:\Program Files (x86)\Microsoft Visual Studio\2019\Community\VC\Tools\MSVC\14.28.29333\include\vector

; 1699 :             _Mylast  = pointer();

  0007d	c7 47 08 00 00
	00 00		 mov	 DWORD PTR [edi+8], 0

; 1700 :             _Myend   = pointer();

  00084	c7 47 0c 00 00
	00 00		 mov	 DWORD PTR [edi+12], 0
$LN34@CDynamicPo:
  0008b	5f		 pop	 edi
; File D:\Metin2 Server Files\mainline\SRC_2014\Metin2Client\eterLib\Pool.h

; 142  : 		}

  0008c	5e		 pop	 esi
  0008d	5b		 pop	 ebx
  0008e	c3		 ret	 0
??1?$CDynamicPoolEx@VCTextureAnimationCWDecorator@NEffectUpdateDecorator@@@@UAE@XZ ENDP ; CDynamicPoolEx<NEffectUpdateDecorator::CTextureAnimationCWDecorator>::~CDynamicPoolEx<NEffectUpdateDecorator::CTextureAnimationCWDecorator>
_TEXT	ENDS
; Function compile flags: /Ogtp
;	COMDAT ??_G?$CDynamicPoolEx@VCTextureAnimationCCWDecorator@NEffectUpdateDecorator@@@@UAEPAXI@Z
_TEXT	SEGMENT
___flags$ = 8						; size = 4
??_G?$CDynamicPoolEx@VCTextureAnimationCCWDecorator@NEffectUpdateDecorator@@@@UAEPAXI@Z PROC ; CDynamicPoolEx<NEffectUpdateDecorator::CTextureAnimationCCWDecorator>::`scalar deleting destructor', COMDAT
; _this$ = ecx
  00000	55		 push	 ebp
  00001	8b ec		 mov	 ebp, esp
  00003	56		 push	 esi
  00004	8b f1		 mov	 esi, ecx
  00006	e8 00 00 00 00	 call	 ??1?$CDynamicPoolEx@VCTextureAnimationCCWDecorator@NEffectUpdateDecorator@@@@UAE@XZ ; CDynamicPoolEx<NEffectUpdateDecorator::CTextureAnimationCCWDecorator>::~CDynamicPoolEx<NEffectUpdateDecorator::CTextureAnimationCCWDecorator>
  0000b	f6 45 08 01	 test	 BYTE PTR ___flags$[ebp], 1
  0000f	74 0b		 je	 SHORT $LN4@scalar
  00011	6a 24		 push	 36			; 00000024H
  00013	56		 push	 esi
  00014	e8 00 00 00 00	 call	 ??3@YAXPAXI@Z		; operator delete
  00019	83 c4 08	 add	 esp, 8
$LN4@scalar:
  0001c	8b c6		 mov	 eax, esi
  0001e	5e		 pop	 esi
  0001f	5d		 pop	 ebp
  00020	c2 04 00	 ret	 4
??_G?$CDynamicPoolEx@VCTextureAnimationCCWDecorator@NEffectUpdateDecorator@@@@UAEPAXI@Z ENDP ; CDynamicPoolEx<NEffectUpdateDecorator::CTextureAnimationCCWDecorator>::`scalar deleting destructor'
_TEXT	ENDS
; Function compile flags: /Ogtp
; File D:\Metin2 Server Files\mainline\SRC_2014\Metin2Client\eterLib\Pool.h
;	COMDAT ?Delete@?$CDynamicPoolEx@VCTextureAnimationCCWDecorator@NEffectUpdateDecorator@@@@KAXPAVCTextureAnimationCCWDecorator@NEffectUpdateDecorator@@@Z
_TEXT	SEGMENT
_pkData$ = 8						; size = 4
?Delete@?$CDynamicPoolEx@VCTextureAnimationCCWDecorator@NEffectUpdateDecorator@@@@KAXPAVCTextureAnimationCCWDecorator@NEffectUpdateDecorator@@@Z PROC ; CDynamicPoolEx<NEffectUpdateDecorator::CTextureAnimationCCWDecorator>::Delete, COMDAT

; 224  : 			::operator delete(pkData);

  00000	e9 00 00 00 00	 jmp	 ??3@YAXPAX@Z		; operator delete
?Delete@?$CDynamicPoolEx@VCTextureAnimationCCWDecorator@NEffectUpdateDecorator@@@@KAXPAVCTextureAnimationCCWDecorator@NEffectUpdateDecorator@@@Z ENDP ; CDynamicPoolEx<NEffectUpdateDecorator::CTextureAnimationCCWDecorator>::Delete
_TEXT	ENDS
; Function compile flags: /Ogtp
; File D:\Metin2 Server Files\mainline\SRC_2014\Metin2Client\eterLib\Pool.h
; File C:\Program Files (x86)\Microsoft Visual Studio\2019\Community\VC\Tools\MSVC\14.28.29333\include\vector
; File C:\Program Files (x86)\Microsoft Visual Studio\2019\Community\VC\Tools\MSVC\14.28.29333\include\algorithm
; File D:\Metin2 Server Files\mainline\SRC_2014\Metin2Client\eterLib\Pool.h
; File C:\Program Files (x86)\Microsoft Visual Studio\2019\Community\VC\Tools\MSVC\14.28.29333\include\algorithm
; File D:\Metin2 Server Files\mainline\SRC_2014\Metin2Client\eterLib\Pool.h
; File C:\Program Files (x86)\Microsoft Visual Studio\2019\Community\VC\Tools\MSVC\14.28.29333\include\algorithm
; File D:\Metin2 Server Files\mainline\SRC_2014\Metin2Client\eterLib\Pool.h
; File C:\Program Files (x86)\Microsoft Visual Studio\2019\Community\VC\Tools\MSVC\14.28.29333\include\vector
; File C:\Program Files (x86)\Microsoft Visual Studio\2019\Community\VC\Tools\MSVC\14.28.29333\include\xmemory
; File C:\Program Files (x86)\Microsoft Visual Studio\2019\Community\VC\Tools\MSVC\14.28.29333\include\vector
; File C:\Program Files (x86)\Microsoft Visual Studio\2019\Community\VC\Tools\MSVC\14.28.29333\include\xmemory
; File C:\Program Files (x86)\Microsoft Visual Studio\2019\Community\VC\Tools\MSVC\14.28.29333\include\vector
; File C:\Program Files (x86)\Microsoft Visual Studio\2019\Community\VC\Tools\MSVC\14.28.29333\include\xmemory
; File C:\Program Files (x86)\Microsoft Visual Studio\2019\Community\VC\Tools\MSVC\14.28.29333\include\vector
; File C:\Program Files (x86)\Microsoft Visual Studio\2019\Community\VC\Tools\MSVC\14.28.29333\include\xmemory
; File C:\Program Files (x86)\Microsoft Visual Studio\2019\Community\VC\Tools\MSVC\14.28.29333\include\vector
; File D:\Metin2 Server Files\mainline\SRC_2014\Metin2Client\eterLib\Pool.h
;	COMDAT ??1?$CDynamicPoolEx@VCTextureAnimationCCWDecorator@NEffectUpdateDecorator@@@@UAE@XZ
_TEXT	SEGMENT
??1?$CDynamicPoolEx@VCTextureAnimationCCWDecorator@NEffectUpdateDecorator@@@@UAE@XZ PROC ; CDynamicPoolEx<NEffectUpdateDecorator::CTextureAnimationCCWDecorator>::~CDynamicPoolEx<NEffectUpdateDecorator::CTextureAnimationCCWDecorator>, COMDAT
; _this$ = ecx

; 132  : 		{

  00000	53		 push	 ebx
  00001	56		 push	 esi
  00002	57		 push	 edi
  00003	8b f9		 mov	 edi, ecx
  00005	c7 07 00 00 00
	00		 mov	 DWORD PTR [edi], OFFSET ??_7?$CDynamicPoolEx@VCTextureAnimationCCWDecorator@NEffectUpdateDecorator@@@@6B@
; File C:\Program Files (x86)\Microsoft Visual Studio\2019\Community\VC\Tools\MSVC\14.28.29333\include\vector

; 42   :     _Vector_const_iterator(_Tptr _Parg, const _Container_base* _Pvector) noexcept : _Ptr(_Parg) {

  0000b	8b 5f 08	 mov	 ebx, DWORD PTR [edi+8]
  0000e	8b 77 04	 mov	 esi, DWORD PTR [edi+4]
; File C:\Program Files (x86)\Microsoft Visual Studio\2019\Community\VC\Tools\MSVC\14.28.29333\include\algorithm

; 307  :     for (; _UFirst != _ULast; ++_UFirst) {

  00011	3b f3		 cmp	 esi, ebx
  00013	74 14		 je	 SHORT $LN19@CDynamicPo
$LL20@CDynamicPo:
; File D:\Metin2 Server Files\mainline\SRC_2014\Metin2Client\eterLib\Pool.h

; 224  : 			::operator delete(pkData);

  00015	ff 36		 push	 DWORD PTR [esi]
  00017	e8 00 00 00 00	 call	 ??3@YAXPAX@Z		; operator delete
; File C:\Program Files (x86)\Microsoft Visual Studio\2019\Community\VC\Tools\MSVC\14.28.29333\include\algorithm

; 307  :     for (; _UFirst != _ULast; ++_UFirst) {

  0001c	83 c6 04	 add	 esi, 4
; File D:\Metin2 Server Files\mainline\SRC_2014\Metin2Client\eterLib\Pool.h

; 224  : 			::operator delete(pkData);

  0001f	83 c4 04	 add	 esp, 4
; File C:\Program Files (x86)\Microsoft Visual Studio\2019\Community\VC\Tools\MSVC\14.28.29333\include\algorithm

; 307  :     for (; _UFirst != _ULast; ++_UFirst) {

  00022	3b f3		 cmp	 esi, ebx
  00024	75 ef		 jne	 SHORT $LL20@CDynamicPo
  00026	8b 77 04	 mov	 esi, DWORD PTR [edi+4]
$LN19@CDynamicPo:
; File D:\Metin2 Server Files\mainline\SRC_2014\Metin2Client\eterLib\Pool.h

; 162  : 			m_kVct_pkFree.clear();

  00029	8b 4f 10	 mov	 ecx, DWORD PTR [edi+16]
  0002c	89 77 08	 mov	 DWORD PTR [edi+8], esi
  0002f	89 4f 14	 mov	 DWORD PTR [edi+20], ecx
; File C:\Program Files (x86)\Microsoft Visual Studio\2019\Community\VC\Tools\MSVC\14.28.29333\include\vector

; 1694 :         if (_Myfirst) { // destroy and deallocate old array

  00032	85 c9		 test	 ecx, ecx
  00034	74 27		 je	 SHORT $LN27@CDynamicPo

; 1695 :             _Destroy(_Myfirst, _Mylast);
; 1696 :             _Getal().deallocate(_Myfirst, static_cast<size_type>(_Myend - _Myfirst));

  00036	8b 47 18	 mov	 eax, DWORD PTR [edi+24]
  00039	2b c1		 sub	 eax, ecx
; File C:\Program Files (x86)\Microsoft Visual Studio\2019\Community\VC\Tools\MSVC\14.28.29333\include\xmemory

; 810  :         _Deallocate<_New_alignof<_Ty>>(_Ptr, sizeof(_Ty) * _Count);

  0003b	83 e0 fc	 and	 eax, -4			; fffffffcH
  0003e	50		 push	 eax
  0003f	51		 push	 ecx
  00040	e8 00 00 00 00	 call	 ??$_Deallocate@$07$0A@@std@@YAXPAXI@Z ; std::_Deallocate<8,0>
; File C:\Program Files (x86)\Microsoft Visual Studio\2019\Community\VC\Tools\MSVC\14.28.29333\include\vector

; 1698 :             _Myfirst = pointer();

  00045	c7 47 10 00 00
	00 00		 mov	 DWORD PTR [edi+16], 0
; File C:\Program Files (x86)\Microsoft Visual Studio\2019\Community\VC\Tools\MSVC\14.28.29333\include\xmemory

; 810  :         _Deallocate<_New_alignof<_Ty>>(_Ptr, sizeof(_Ty) * _Count);

  0004c	83 c4 08	 add	 esp, 8
; File C:\Program Files (x86)\Microsoft Visual Studio\2019\Community\VC\Tools\MSVC\14.28.29333\include\vector

; 1699 :             _Mylast  = pointer();

  0004f	c7 47 14 00 00
	00 00		 mov	 DWORD PTR [edi+20], 0

; 1700 :             _Myend   = pointer();

  00056	c7 47 18 00 00
	00 00		 mov	 DWORD PTR [edi+24], 0
$LN27@CDynamicPo:

; 1694 :         if (_Myfirst) { // destroy and deallocate old array

  0005d	8b 4f 04	 mov	 ecx, DWORD PTR [edi+4]
  00060	85 c9		 test	 ecx, ecx
  00062	74 27		 je	 SHORT $LN34@CDynamicPo

; 1695 :             _Destroy(_Myfirst, _Mylast);
; 1696 :             _Getal().deallocate(_Myfirst, static_cast<size_type>(_Myend - _Myfirst));

  00064	8b 47 0c	 mov	 eax, DWORD PTR [edi+12]
  00067	2b c1		 sub	 eax, ecx
; File C:\Program Files (x86)\Microsoft Visual Studio\2019\Community\VC\Tools\MSVC\14.28.29333\include\xmemory

; 810  :         _Deallocate<_New_alignof<_Ty>>(_Ptr, sizeof(_Ty) * _Count);

  00069	83 e0 fc	 and	 eax, -4			; fffffffcH
  0006c	50		 push	 eax
  0006d	51		 push	 ecx
  0006e	e8 00 00 00 00	 call	 ??$_Deallocate@$07$0A@@std@@YAXPAXI@Z ; std::_Deallocate<8,0>
; File C:\Program Files (x86)\Microsoft Visual Studio\2019\Community\VC\Tools\MSVC\14.28.29333\include\vector

; 1698 :             _Myfirst = pointer();

  00073	c7 47 04 00 00
	00 00		 mov	 DWORD PTR [edi+4], 0
; File C:\Program Files (x86)\Microsoft Visual Studio\2019\Community\VC\Tools\MSVC\14.28.29333\include\xmemory

; 810  :         _Deallocate<_New_alignof<_Ty>>(_Ptr, sizeof(_Ty) * _Count);

  0007a	83 c4 08	 add	 esp, 8
; File C:\Program Files (x86)\Microsoft Visual Studio\2019\Community\VC\Tools\MSVC\14.28.29333\include\vector

; 1699 :             _Mylast  = pointer();

  0007d	c7 47 08 00 00
	00 00		 mov	 DWORD PTR [edi+8], 0

; 1700 :             _Myend   = pointer();

  00084	c7 47 0c 00 00
	00 00		 mov	 DWORD PTR [edi+12], 0
$LN34@CDynamicPo:
  0008b	5f		 pop	 edi
; File D:\Metin2 Server Files\mainline\SRC_2014\Metin2Client\eterLib\Pool.h

; 142  : 		}

  0008c	5e		 pop	 esi
  0008d	5b		 pop	 ebx
  0008e	c3		 ret	 0
??1?$CDynamicPoolEx@VCTextureAnimationCCWDecorator@NEffectUpdateDecorator@@@@UAE@XZ ENDP ; CDynamicPoolEx<NEffectUpdateDecorator::CTextureAnimationCCWDecorator>::~CDynamicPoolEx<NEffectUpdateDecorator::CTextureAnimationCCWDecorator>
_TEXT	ENDS
; Function compile flags: /Ogtp
;	COMDAT ??_G?$CDynamicPoolEx@VCTextureAnimationRandomDecorator@NEffectUpdateDecorator@@@@UAEPAXI@Z
_TEXT	SEGMENT
___flags$ = 8						; size = 4
??_G?$CDynamicPoolEx@VCTextureAnimationRandomDecorator@NEffectUpdateDecorator@@@@UAEPAXI@Z PROC ; CDynamicPoolEx<NEffectUpdateDecorator::CTextureAnimationRandomDecorator>::`scalar deleting destructor', COMDAT
; _this$ = ecx
  00000	55		 push	 ebp
  00001	8b ec		 mov	 ebp, esp
  00003	56		 push	 esi
  00004	8b f1		 mov	 esi, ecx
  00006	e8 00 00 00 00	 call	 ??1?$CDynamicPoolEx@VCTextureAnimationRandomDecorator@NEffectUpdateDecorator@@@@UAE@XZ ; CDynamicPoolEx<NEffectUpdateDecorator::CTextureAnimationRandomDecorator>::~CDynamicPoolEx<NEffectUpdateDecorator::CTextureAnimationRandomDecorator>
  0000b	f6 45 08 01	 test	 BYTE PTR ___flags$[ebp], 1
  0000f	74 0b		 je	 SHORT $LN4@scalar
  00011	6a 24		 push	 36			; 00000024H
  00013	56		 push	 esi
  00014	e8 00 00 00 00	 call	 ??3@YAXPAXI@Z		; operator delete
  00019	83 c4 08	 add	 esp, 8
$LN4@scalar:
  0001c	8b c6		 mov	 eax, esi
  0001e	5e		 pop	 esi
  0001f	5d		 pop	 ebp
  00020	c2 04 00	 ret	 4
??_G?$CDynamicPoolEx@VCTextureAnimationRandomDecorator@NEffectUpdateDecorator@@@@UAEPAXI@Z ENDP ; CDynamicPoolEx<NEffectUpdateDecorator::CTextureAnimationRandomDecorator>::`scalar deleting destructor'
_TEXT	ENDS
; Function compile flags: /Ogtp
; File D:\Metin2 Server Files\mainline\SRC_2014\Metin2Client\eterLib\Pool.h
;	COMDAT ?Delete@?$CDynamicPoolEx@VCTextureAnimationRandomDecorator@NEffectUpdateDecorator@@@@KAXPAVCTextureAnimationRandomDecorator@NEffectUpdateDecorator@@@Z
_TEXT	SEGMENT
_pkData$ = 8						; size = 4
?Delete@?$CDynamicPoolEx@VCTextureAnimationRandomDecorator@NEffectUpdateDecorator@@@@KAXPAVCTextureAnimationRandomDecorator@NEffectUpdateDecorator@@@Z PROC ; CDynamicPoolEx<NEffectUpdateDecorator::CTextureAnimationRandomDecorator>::Delete, COMDAT

; 224  : 			::operator delete(pkData);

  00000	e9 00 00 00 00	 jmp	 ??3@YAXPAX@Z		; operator delete
?Delete@?$CDynamicPoolEx@VCTextureAnimationRandomDecorator@NEffectUpdateDecorator@@@@KAXPAVCTextureAnimationRandomDecorator@NEffectUpdateDecorator@@@Z ENDP ; CDynamicPoolEx<NEffectUpdateDecorator::CTextureAnimationRandomDecorator>::Delete
_TEXT	ENDS
; Function compile flags: /Ogtp
; File D:\Metin2 Server Files\mainline\SRC_2014\Metin2Client\eterLib\Pool.h
; File C:\Program Files (x86)\Microsoft Visual Studio\2019\Community\VC\Tools\MSVC\14.28.29333\include\vector
; File C:\Program Files (x86)\Microsoft Visual Studio\2019\Community\VC\Tools\MSVC\14.28.29333\include\algorithm
; File D:\Metin2 Server Files\mainline\SRC_2014\Metin2Client\eterLib\Pool.h
; File C:\Program Files (x86)\Microsoft Visual Studio\2019\Community\VC\Tools\MSVC\14.28.29333\include\algorithm
; File D:\Metin2 Server Files\mainline\SRC_2014\Metin2Client\eterLib\Pool.h
; File C:\Program Files (x86)\Microsoft Visual Studio\2019\Community\VC\Tools\MSVC\14.28.29333\include\algorithm
; File D:\Metin2 Server Files\mainline\SRC_2014\Metin2Client\eterLib\Pool.h
; File C:\Program Files (x86)\Microsoft Visual Studio\2019\Community\VC\Tools\MSVC\14.28.29333\include\vector
; File C:\Program Files (x86)\Microsoft Visual Studio\2019\Community\VC\Tools\MSVC\14.28.29333\include\xmemory
; File C:\Program Files (x86)\Microsoft Visual Studio\2019\Community\VC\Tools\MSVC\14.28.29333\include\vector
; File C:\Program Files (x86)\Microsoft Visual Studio\2019\Community\VC\Tools\MSVC\14.28.29333\include\xmemory
; File C:\Program Files (x86)\Microsoft Visual Studio\2019\Community\VC\Tools\MSVC\14.28.29333\include\vector
; File C:\Program Files (x86)\Microsoft Visual Studio\2019\Community\VC\Tools\MSVC\14.28.29333\include\xmemory
; File C:\Program Files (x86)\Microsoft Visual Studio\2019\Community\VC\Tools\MSVC\14.28.29333\include\vector
; File C:\Program Files (x86)\Microsoft Visual Studio\2019\Community\VC\Tools\MSVC\14.28.29333\include\xmemory
; File C:\Program Files (x86)\Microsoft Visual Studio\2019\Community\VC\Tools\MSVC\14.28.29333\include\vector
; File D:\Metin2 Server Files\mainline\SRC_2014\Metin2Client\eterLib\Pool.h
;	COMDAT ??1?$CDynamicPoolEx@VCTextureAnimationRandomDecorator@NEffectUpdateDecorator@@@@UAE@XZ
_TEXT	SEGMENT
??1?$CDynamicPoolEx@VCTextureAnimationRandomDecorator@NEffectUpdateDecorator@@@@UAE@XZ PROC ; CDynamicPoolEx<NEffectUpdateDecorator::CTextureAnimationRandomDecorator>::~CDynamicPoolEx<NEffectUpdateDecorator::CTextureAnimationRandomDecorator>, COMDAT
; _this$ = ecx

; 132  : 		{

  00000	53		 push	 ebx
  00001	56		 push	 esi
  00002	57		 push	 edi
  00003	8b f9		 mov	 edi, ecx
  00005	c7 07 00 00 00
	00		 mov	 DWORD PTR [edi], OFFSET ??_7?$CDynamicPoolEx@VCTextureAnimationRandomDecorator@NEffectUpdateDecorator@@@@6B@
; File C:\Program Files (x86)\Microsoft Visual Studio\2019\Community\VC\Tools\MSVC\14.28.29333\include\vector

; 42   :     _Vector_const_iterator(_Tptr _Parg, const _Container_base* _Pvector) noexcept : _Ptr(_Parg) {

  0000b	8b 5f 08	 mov	 ebx, DWORD PTR [edi+8]
  0000e	8b 77 04	 mov	 esi, DWORD PTR [edi+4]
; File C:\Program Files (x86)\Microsoft Visual Studio\2019\Community\VC\Tools\MSVC\14.28.29333\include\algorithm

; 307  :     for (; _UFirst != _ULast; ++_UFirst) {

  00011	3b f3		 cmp	 esi, ebx
  00013	74 14		 je	 SHORT $LN19@CDynamicPo
$LL20@CDynamicPo:
; File D:\Metin2 Server Files\mainline\SRC_2014\Metin2Client\eterLib\Pool.h

; 224  : 			::operator delete(pkData);

  00015	ff 36		 push	 DWORD PTR [esi]
  00017	e8 00 00 00 00	 call	 ??3@YAXPAX@Z		; operator delete
; File C:\Program Files (x86)\Microsoft Visual Studio\2019\Community\VC\Tools\MSVC\14.28.29333\include\algorithm

; 307  :     for (; _UFirst != _ULast; ++_UFirst) {

  0001c	83 c6 04	 add	 esi, 4
; File D:\Metin2 Server Files\mainline\SRC_2014\Metin2Client\eterLib\Pool.h

; 224  : 			::operator delete(pkData);

  0001f	83 c4 04	 add	 esp, 4
; File C:\Program Files (x86)\Microsoft Visual Studio\2019\Community\VC\Tools\MSVC\14.28.29333\include\algorithm

; 307  :     for (; _UFirst != _ULast; ++_UFirst) {

  00022	3b f3		 cmp	 esi, ebx
  00024	75 ef		 jne	 SHORT $LL20@CDynamicPo
  00026	8b 77 04	 mov	 esi, DWORD PTR [edi+4]
$LN19@CDynamicPo:
; File D:\Metin2 Server Files\mainline\SRC_2014\Metin2Client\eterLib\Pool.h

; 162  : 			m_kVct_pkFree.clear();

  00029	8b 4f 10	 mov	 ecx, DWORD PTR [edi+16]
  0002c	89 77 08	 mov	 DWORD PTR [edi+8], esi
  0002f	89 4f 14	 mov	 DWORD PTR [edi+20], ecx
; File C:\Program Files (x86)\Microsoft Visual Studio\2019\Community\VC\Tools\MSVC\14.28.29333\include\vector

; 1694 :         if (_Myfirst) { // destroy and deallocate old array

  00032	85 c9		 test	 ecx, ecx
  00034	74 27		 je	 SHORT $LN27@CDynamicPo

; 1695 :             _Destroy(_Myfirst, _Mylast);
; 1696 :             _Getal().deallocate(_Myfirst, static_cast<size_type>(_Myend - _Myfirst));

  00036	8b 47 18	 mov	 eax, DWORD PTR [edi+24]
  00039	2b c1		 sub	 eax, ecx
; File C:\Program Files (x86)\Microsoft Visual Studio\2019\Community\VC\Tools\MSVC\14.28.29333\include\xmemory

; 810  :         _Deallocate<_New_alignof<_Ty>>(_Ptr, sizeof(_Ty) * _Count);

  0003b	83 e0 fc	 and	 eax, -4			; fffffffcH
  0003e	50		 push	 eax
  0003f	51		 push	 ecx
  00040	e8 00 00 00 00	 call	 ??$_Deallocate@$07$0A@@std@@YAXPAXI@Z ; std::_Deallocate<8,0>
; File C:\Program Files (x86)\Microsoft Visual Studio\2019\Community\VC\Tools\MSVC\14.28.29333\include\vector

; 1698 :             _Myfirst = pointer();

  00045	c7 47 10 00 00
	00 00		 mov	 DWORD PTR [edi+16], 0
; File C:\Program Files (x86)\Microsoft Visual Studio\2019\Community\VC\Tools\MSVC\14.28.29333\include\xmemory

; 810  :         _Deallocate<_New_alignof<_Ty>>(_Ptr, sizeof(_Ty) * _Count);

  0004c	83 c4 08	 add	 esp, 8
; File C:\Program Files (x86)\Microsoft Visual Studio\2019\Community\VC\Tools\MSVC\14.28.29333\include\vector

; 1699 :             _Mylast  = pointer();

  0004f	c7 47 14 00 00
	00 00		 mov	 DWORD PTR [edi+20], 0

; 1700 :             _Myend   = pointer();

  00056	c7 47 18 00 00
	00 00		 mov	 DWORD PTR [edi+24], 0
$LN27@CDynamicPo:

; 1694 :         if (_Myfirst) { // destroy and deallocate old array

  0005d	8b 4f 04	 mov	 ecx, DWORD PTR [edi+4]
  00060	85 c9		 test	 ecx, ecx
  00062	74 27		 je	 SHORT $LN34@CDynamicPo

; 1695 :             _Destroy(_Myfirst, _Mylast);
; 1696 :             _Getal().deallocate(_Myfirst, static_cast<size_type>(_Myend - _Myfirst));

  00064	8b 47 0c	 mov	 eax, DWORD PTR [edi+12]
  00067	2b c1		 sub	 eax, ecx
; File C:\Program Files (x86)\Microsoft Visual Studio\2019\Community\VC\Tools\MSVC\14.28.29333\include\xmemory

; 810  :         _Deallocate<_New_alignof<_Ty>>(_Ptr, sizeof(_Ty) * _Count);

  00069	83 e0 fc	 and	 eax, -4			; fffffffcH
  0006c	50		 push	 eax
  0006d	51		 push	 ecx
  0006e	e8 00 00 00 00	 call	 ??$_Deallocate@$07$0A@@std@@YAXPAXI@Z ; std::_Deallocate<8,0>
; File C:\Program Files (x86)\Microsoft Visual Studio\2019\Community\VC\Tools\MSVC\14.28.29333\include\vector

; 1698 :             _Myfirst = pointer();

  00073	c7 47 04 00 00
	00 00		 mov	 DWORD PTR [edi+4], 0
; File C:\Program Files (x86)\Microsoft Visual Studio\2019\Community\VC\Tools\MSVC\14.28.29333\include\xmemory

; 810  :         _Deallocate<_New_alignof<_Ty>>(_Ptr, sizeof(_Ty) * _Count);

  0007a	83 c4 08	 add	 esp, 8
; File C:\Program Files (x86)\Microsoft Visual Studio\2019\Community\VC\Tools\MSVC\14.28.29333\include\vector

; 1699 :             _Mylast  = pointer();

  0007d	c7 47 08 00 00
	00 00		 mov	 DWORD PTR [edi+8], 0

; 1700 :             _Myend   = pointer();

  00084	c7 47 0c 00 00
	00 00		 mov	 DWORD PTR [edi+12], 0
$LN34@CDynamicPo:
  0008b	5f		 pop	 edi
; File D:\Metin2 Server Files\mainline\SRC_2014\Metin2Client\eterLib\Pool.h

; 142  : 		}

  0008c	5e		 pop	 esi
  0008d	5b		 pop	 ebx
  0008e	c3		 ret	 0
??1?$CDynamicPoolEx@VCTextureAnimationRandomDecorator@NEffectUpdateDecorator@@@@UAE@XZ ENDP ; CDynamicPoolEx<NEffectUpdateDecorator::CTextureAnimationRandomDecorator>::~CDynamicPoolEx<NEffectUpdateDecorator::CTextureAnimationRandomDecorator>
_TEXT	ENDS
; Function compile flags: /Ogtp
;	COMDAT ??_G?$CDynamicPoolEx@VCAirResistanceDecorator@NEffectUpdateDecorator@@@@UAEPAXI@Z
_TEXT	SEGMENT
___flags$ = 8						; size = 4
??_G?$CDynamicPoolEx@VCAirResistanceDecorator@NEffectUpdateDecorator@@@@UAEPAXI@Z PROC ; CDynamicPoolEx<NEffectUpdateDecorator::CAirResistanceDecorator>::`scalar deleting destructor', COMDAT
; _this$ = ecx
  00000	55		 push	 ebp
  00001	8b ec		 mov	 ebp, esp
  00003	56		 push	 esi
  00004	8b f1		 mov	 esi, ecx
  00006	e8 00 00 00 00	 call	 ??1?$CDynamicPoolEx@VCAirResistanceDecorator@NEffectUpdateDecorator@@@@UAE@XZ ; CDynamicPoolEx<NEffectUpdateDecorator::CAirResistanceDecorator>::~CDynamicPoolEx<NEffectUpdateDecorator::CAirResistanceDecorator>
  0000b	f6 45 08 01	 test	 BYTE PTR ___flags$[ebp], 1
  0000f	74 0b		 je	 SHORT $LN4@scalar
  00011	6a 24		 push	 36			; 00000024H
  00013	56		 push	 esi
  00014	e8 00 00 00 00	 call	 ??3@YAXPAXI@Z		; operator delete
  00019	83 c4 08	 add	 esp, 8
$LN4@scalar:
  0001c	8b c6		 mov	 eax, esi
  0001e	5e		 pop	 esi
  0001f	5d		 pop	 ebp
  00020	c2 04 00	 ret	 4
??_G?$CDynamicPoolEx@VCAirResistanceDecorator@NEffectUpdateDecorator@@@@UAEPAXI@Z ENDP ; CDynamicPoolEx<NEffectUpdateDecorator::CAirResistanceDecorator>::`scalar deleting destructor'
_TEXT	ENDS
; Function compile flags: /Ogtp
; File D:\Metin2 Server Files\mainline\SRC_2014\Metin2Client\eterLib\Pool.h
;	COMDAT ?Delete@?$CDynamicPoolEx@VCAirResistanceDecorator@NEffectUpdateDecorator@@@@KAXPAVCAirResistanceDecorator@NEffectUpdateDecorator@@@Z
_TEXT	SEGMENT
_pkData$ = 8						; size = 4
?Delete@?$CDynamicPoolEx@VCAirResistanceDecorator@NEffectUpdateDecorator@@@@KAXPAVCAirResistanceDecorator@NEffectUpdateDecorator@@@Z PROC ; CDynamicPoolEx<NEffectUpdateDecorator::CAirResistanceDecorator>::Delete, COMDAT

; 224  : 			::operator delete(pkData);

  00000	e9 00 00 00 00	 jmp	 ??3@YAXPAX@Z		; operator delete
?Delete@?$CDynamicPoolEx@VCAirResistanceDecorator@NEffectUpdateDecorator@@@@KAXPAVCAirResistanceDecorator@NEffectUpdateDecorator@@@Z ENDP ; CDynamicPoolEx<NEffectUpdateDecorator::CAirResistanceDecorator>::Delete
_TEXT	ENDS
; Function compile flags: /Ogtp
; File D:\Metin2 Server Files\mainline\SRC_2014\Metin2Client\eterLib\Pool.h
; File C:\Program Files (x86)\Microsoft Visual Studio\2019\Community\VC\Tools\MSVC\14.28.29333\include\vector
; File C:\Program Files (x86)\Microsoft Visual Studio\2019\Community\VC\Tools\MSVC\14.28.29333\include\algorithm
; File D:\Metin2 Server Files\mainline\SRC_2014\Metin2Client\eterLib\Pool.h
; File C:\Program Files (x86)\Microsoft Visual Studio\2019\Community\VC\Tools\MSVC\14.28.29333\include\algorithm
; File D:\Metin2 Server Files\mainline\SRC_2014\Metin2Client\eterLib\Pool.h
; File C:\Program Files (x86)\Microsoft Visual Studio\2019\Community\VC\Tools\MSVC\14.28.29333\include\algorithm
; File D:\Metin2 Server Files\mainline\SRC_2014\Metin2Client\eterLib\Pool.h
; File C:\Program Files (x86)\Microsoft Visual Studio\2019\Community\VC\Tools\MSVC\14.28.29333\include\vector
; File C:\Program Files (x86)\Microsoft Visual Studio\2019\Community\VC\Tools\MSVC\14.28.29333\include\xmemory
; File C:\Program Files (x86)\Microsoft Visual Studio\2019\Community\VC\Tools\MSVC\14.28.29333\include\vector
; File C:\Program Files (x86)\Microsoft Visual Studio\2019\Community\VC\Tools\MSVC\14.28.29333\include\xmemory
; File C:\Program Files (x86)\Microsoft Visual Studio\2019\Community\VC\Tools\MSVC\14.28.29333\include\vector
; File C:\Program Files (x86)\Microsoft Visual Studio\2019\Community\VC\Tools\MSVC\14.28.29333\include\xmemory
; File C:\Program Files (x86)\Microsoft Visual Studio\2019\Community\VC\Tools\MSVC\14.28.29333\include\vector
; File C:\Program Files (x86)\Microsoft Visual Studio\2019\Community\VC\Tools\MSVC\14.28.29333\include\xmemory
; File C:\Program Files (x86)\Microsoft Visual Studio\2019\Community\VC\Tools\MSVC\14.28.29333\include\vector
; File D:\Metin2 Server Files\mainline\SRC_2014\Metin2Client\eterLib\Pool.h
;	COMDAT ??1?$CDynamicPoolEx@VCAirResistanceDecorator@NEffectUpdateDecorator@@@@UAE@XZ
_TEXT	SEGMENT
??1?$CDynamicPoolEx@VCAirResistanceDecorator@NEffectUpdateDecorator@@@@UAE@XZ PROC ; CDynamicPoolEx<NEffectUpdateDecorator::CAirResistanceDecorator>::~CDynamicPoolEx<NEffectUpdateDecorator::CAirResistanceDecorator>, COMDAT
; _this$ = ecx

; 132  : 		{

  00000	53		 push	 ebx
  00001	56		 push	 esi
  00002	57		 push	 edi
  00003	8b f9		 mov	 edi, ecx
  00005	c7 07 00 00 00
	00		 mov	 DWORD PTR [edi], OFFSET ??_7?$CDynamicPoolEx@VCAirResistanceDecorator@NEffectUpdateDecorator@@@@6B@
; File C:\Program Files (x86)\Microsoft Visual Studio\2019\Community\VC\Tools\MSVC\14.28.29333\include\vector

; 42   :     _Vector_const_iterator(_Tptr _Parg, const _Container_base* _Pvector) noexcept : _Ptr(_Parg) {

  0000b	8b 5f 08	 mov	 ebx, DWORD PTR [edi+8]
  0000e	8b 77 04	 mov	 esi, DWORD PTR [edi+4]
; File C:\Program Files (x86)\Microsoft Visual Studio\2019\Community\VC\Tools\MSVC\14.28.29333\include\algorithm

; 307  :     for (; _UFirst != _ULast; ++_UFirst) {

  00011	3b f3		 cmp	 esi, ebx
  00013	74 14		 je	 SHORT $LN19@CDynamicPo
$LL20@CDynamicPo:
; File D:\Metin2 Server Files\mainline\SRC_2014\Metin2Client\eterLib\Pool.h

; 224  : 			::operator delete(pkData);

  00015	ff 36		 push	 DWORD PTR [esi]
  00017	e8 00 00 00 00	 call	 ??3@YAXPAX@Z		; operator delete
; File C:\Program Files (x86)\Microsoft Visual Studio\2019\Community\VC\Tools\MSVC\14.28.29333\include\algorithm

; 307  :     for (; _UFirst != _ULast; ++_UFirst) {

  0001c	83 c6 04	 add	 esi, 4
; File D:\Metin2 Server Files\mainline\SRC_2014\Metin2Client\eterLib\Pool.h

; 224  : 			::operator delete(pkData);

  0001f	83 c4 04	 add	 esp, 4
; File C:\Program Files (x86)\Microsoft Visual Studio\2019\Community\VC\Tools\MSVC\14.28.29333\include\algorithm

; 307  :     for (; _UFirst != _ULast; ++_UFirst) {

  00022	3b f3		 cmp	 esi, ebx
  00024	75 ef		 jne	 SHORT $LL20@CDynamicPo
  00026	8b 77 04	 mov	 esi, DWORD PTR [edi+4]
$LN19@CDynamicPo:
; File D:\Metin2 Server Files\mainline\SRC_2014\Metin2Client\eterLib\Pool.h

; 162  : 			m_kVct_pkFree.clear();

  00029	8b 4f 10	 mov	 ecx, DWORD PTR [edi+16]
  0002c	89 77 08	 mov	 DWORD PTR [edi+8], esi
  0002f	89 4f 14	 mov	 DWORD PTR [edi+20], ecx
; File C:\Program Files (x86)\Microsoft Visual Studio\2019\Community\VC\Tools\MSVC\14.28.29333\include\vector

; 1694 :         if (_Myfirst) { // destroy and deallocate old array

  00032	85 c9		 test	 ecx, ecx
  00034	74 27		 je	 SHORT $LN27@CDynamicPo

; 1695 :             _Destroy(_Myfirst, _Mylast);
; 1696 :             _Getal().deallocate(_Myfirst, static_cast<size_type>(_Myend - _Myfirst));

  00036	8b 47 18	 mov	 eax, DWORD PTR [edi+24]
  00039	2b c1		 sub	 eax, ecx
; File C:\Program Files (x86)\Microsoft Visual Studio\2019\Community\VC\Tools\MSVC\14.28.29333\include\xmemory

; 810  :         _Deallocate<_New_alignof<_Ty>>(_Ptr, sizeof(_Ty) * _Count);

  0003b	83 e0 fc	 and	 eax, -4			; fffffffcH
  0003e	50		 push	 eax
  0003f	51		 push	 ecx
  00040	e8 00 00 00 00	 call	 ??$_Deallocate@$07$0A@@std@@YAXPAXI@Z ; std::_Deallocate<8,0>
; File C:\Program Files (x86)\Microsoft Visual Studio\2019\Community\VC\Tools\MSVC\14.28.29333\include\vector

; 1698 :             _Myfirst = pointer();

  00045	c7 47 10 00 00
	00 00		 mov	 DWORD PTR [edi+16], 0
; File C:\Program Files (x86)\Microsoft Visual Studio\2019\Community\VC\Tools\MSVC\14.28.29333\include\xmemory

; 810  :         _Deallocate<_New_alignof<_Ty>>(_Ptr, sizeof(_Ty) * _Count);

  0004c	83 c4 08	 add	 esp, 8
; File C:\Program Files (x86)\Microsoft Visual Studio\2019\Community\VC\Tools\MSVC\14.28.29333\include\vector

; 1699 :             _Mylast  = pointer();

  0004f	c7 47 14 00 00
	00 00		 mov	 DWORD PTR [edi+20], 0

; 1700 :             _Myend   = pointer();

  00056	c7 47 18 00 00
	00 00		 mov	 DWORD PTR [edi+24], 0
$LN27@CDynamicPo:

; 1694 :         if (_Myfirst) { // destroy and deallocate old array

  0005d	8b 4f 04	 mov	 ecx, DWORD PTR [edi+4]
  00060	85 c9		 test	 ecx, ecx
  00062	74 27		 je	 SHORT $LN34@CDynamicPo

; 1695 :             _Destroy(_Myfirst, _Mylast);
; 1696 :             _Getal().deallocate(_Myfirst, static_cast<size_type>(_Myend - _Myfirst));

  00064	8b 47 0c	 mov	 eax, DWORD PTR [edi+12]
  00067	2b c1		 sub	 eax, ecx
; File C:\Program Files (x86)\Microsoft Visual Studio\2019\Community\VC\Tools\MSVC\14.28.29333\include\xmemory

; 810  :         _Deallocate<_New_alignof<_Ty>>(_Ptr, sizeof(_Ty) * _Count);

  00069	83 e0 fc	 and	 eax, -4			; fffffffcH
  0006c	50		 push	 eax
  0006d	51		 push	 ecx
  0006e	e8 00 00 00 00	 call	 ??$_Deallocate@$07$0A@@std@@YAXPAXI@Z ; std::_Deallocate<8,0>
; File C:\Program Files (x86)\Microsoft Visual Studio\2019\Community\VC\Tools\MSVC\14.28.29333\include\vector

; 1698 :             _Myfirst = pointer();

  00073	c7 47 04 00 00
	00 00		 mov	 DWORD PTR [edi+4], 0
; File C:\Program Files (x86)\Microsoft Visual Studio\2019\Community\VC\Tools\MSVC\14.28.29333\include\xmemory

; 810  :         _Deallocate<_New_alignof<_Ty>>(_Ptr, sizeof(_Ty) * _Count);

  0007a	83 c4 08	 add	 esp, 8
; File C:\Program Files (x86)\Microsoft Visual Studio\2019\Community\VC\Tools\MSVC\14.28.29333\include\vector

; 1699 :             _Mylast  = pointer();

  0007d	c7 47 08 00 00
	00 00		 mov	 DWORD PTR [edi+8], 0

; 1700 :             _Myend   = pointer();

  00084	c7 47 0c 00 00
	00 00		 mov	 DWORD PTR [edi+12], 0
$LN34@CDynamicPo:
  0008b	5f		 pop	 edi
; File D:\Metin2 Server Files\mainline\SRC_2014\Metin2Client\eterLib\Pool.h

; 142  : 		}

  0008c	5e		 pop	 esi
  0008d	5b		 pop	 ebx
  0008e	c3		 ret	 0
??1?$CDynamicPoolEx@VCAirResistanceDecorator@NEffectUpdateDecorator@@@@UAE@XZ ENDP ; CDynamicPoolEx<NEffectUpdateDecorator::CAirResistanceDecorator>::~CDynamicPoolEx<NEffectUpdateDecorator::CAirResistanceDecorator>
_TEXT	ENDS
; Function compile flags: /Ogtp
;	COMDAT ??_G?$CDynamicPoolEx@VCGravityDecorator@NEffectUpdateDecorator@@@@UAEPAXI@Z
_TEXT	SEGMENT
___flags$ = 8						; size = 4
??_G?$CDynamicPoolEx@VCGravityDecorator@NEffectUpdateDecorator@@@@UAEPAXI@Z PROC ; CDynamicPoolEx<NEffectUpdateDecorator::CGravityDecorator>::`scalar deleting destructor', COMDAT
; _this$ = ecx
  00000	55		 push	 ebp
  00001	8b ec		 mov	 ebp, esp
  00003	56		 push	 esi
  00004	8b f1		 mov	 esi, ecx
  00006	e8 00 00 00 00	 call	 ??1?$CDynamicPoolEx@VCGravityDecorator@NEffectUpdateDecorator@@@@UAE@XZ ; CDynamicPoolEx<NEffectUpdateDecorator::CGravityDecorator>::~CDynamicPoolEx<NEffectUpdateDecorator::CGravityDecorator>
  0000b	f6 45 08 01	 test	 BYTE PTR ___flags$[ebp], 1
  0000f	74 0b		 je	 SHORT $LN4@scalar
  00011	6a 24		 push	 36			; 00000024H
  00013	56		 push	 esi
  00014	e8 00 00 00 00	 call	 ??3@YAXPAXI@Z		; operator delete
  00019	83 c4 08	 add	 esp, 8
$LN4@scalar:
  0001c	8b c6		 mov	 eax, esi
  0001e	5e		 pop	 esi
  0001f	5d		 pop	 ebp
  00020	c2 04 00	 ret	 4
??_G?$CDynamicPoolEx@VCGravityDecorator@NEffectUpdateDecorator@@@@UAEPAXI@Z ENDP ; CDynamicPoolEx<NEffectUpdateDecorator::CGravityDecorator>::`scalar deleting destructor'
_TEXT	ENDS
; Function compile flags: /Ogtp
; File D:\Metin2 Server Files\mainline\SRC_2014\Metin2Client\eterLib\Pool.h
;	COMDAT ?Delete@?$CDynamicPoolEx@VCGravityDecorator@NEffectUpdateDecorator@@@@KAXPAVCGravityDecorator@NEffectUpdateDecorator@@@Z
_TEXT	SEGMENT
_pkData$ = 8						; size = 4
?Delete@?$CDynamicPoolEx@VCGravityDecorator@NEffectUpdateDecorator@@@@KAXPAVCGravityDecorator@NEffectUpdateDecorator@@@Z PROC ; CDynamicPoolEx<NEffectUpdateDecorator::CGravityDecorator>::Delete, COMDAT

; 224  : 			::operator delete(pkData);

  00000	e9 00 00 00 00	 jmp	 ??3@YAXPAX@Z		; operator delete
?Delete@?$CDynamicPoolEx@VCGravityDecorator@NEffectUpdateDecorator@@@@KAXPAVCGravityDecorator@NEffectUpdateDecorator@@@Z ENDP ; CDynamicPoolEx<NEffectUpdateDecorator::CGravityDecorator>::Delete
_TEXT	ENDS
; Function compile flags: /Ogtp
; File D:\Metin2 Server Files\mainline\SRC_2014\Metin2Client\eterLib\Pool.h
; File C:\Program Files (x86)\Microsoft Visual Studio\2019\Community\VC\Tools\MSVC\14.28.29333\include\vector
; File C:\Program Files (x86)\Microsoft Visual Studio\2019\Community\VC\Tools\MSVC\14.28.29333\include\algorithm
; File D:\Metin2 Server Files\mainline\SRC_2014\Metin2Client\eterLib\Pool.h
; File C:\Program Files (x86)\Microsoft Visual Studio\2019\Community\VC\Tools\MSVC\14.28.29333\include\algorithm
; File D:\Metin2 Server Files\mainline\SRC_2014\Metin2Client\eterLib\Pool.h
; File C:\Program Files (x86)\Microsoft Visual Studio\2019\Community\VC\Tools\MSVC\14.28.29333\include\algorithm
; File D:\Metin2 Server Files\mainline\SRC_2014\Metin2Client\eterLib\Pool.h
; File C:\Program Files (x86)\Microsoft Visual Studio\2019\Community\VC\Tools\MSVC\14.28.29333\include\vector
; File C:\Program Files (x86)\Microsoft Visual Studio\2019\Community\VC\Tools\MSVC\14.28.29333\include\xmemory
; File C:\Program Files (x86)\Microsoft Visual Studio\2019\Community\VC\Tools\MSVC\14.28.29333\include\vector
; File C:\Program Files (x86)\Microsoft Visual Studio\2019\Community\VC\Tools\MSVC\14.28.29333\include\xmemory
; File C:\Program Files (x86)\Microsoft Visual Studio\2019\Community\VC\Tools\MSVC\14.28.29333\include\vector
; File C:\Program Files (x86)\Microsoft Visual Studio\2019\Community\VC\Tools\MSVC\14.28.29333\include\xmemory
; File C:\Program Files (x86)\Microsoft Visual Studio\2019\Community\VC\Tools\MSVC\14.28.29333\include\vector
; File C:\Program Files (x86)\Microsoft Visual Studio\2019\Community\VC\Tools\MSVC\14.28.29333\include\xmemory
; File C:\Program Files (x86)\Microsoft Visual Studio\2019\Community\VC\Tools\MSVC\14.28.29333\include\vector
; File D:\Metin2 Server Files\mainline\SRC_2014\Metin2Client\eterLib\Pool.h
;	COMDAT ??1?$CDynamicPoolEx@VCGravityDecorator@NEffectUpdateDecorator@@@@UAE@XZ
_TEXT	SEGMENT
??1?$CDynamicPoolEx@VCGravityDecorator@NEffectUpdateDecorator@@@@UAE@XZ PROC ; CDynamicPoolEx<NEffectUpdateDecorator::CGravityDecorator>::~CDynamicPoolEx<NEffectUpdateDecorator::CGravityDecorator>, COMDAT
; _this$ = ecx

; 132  : 		{

  00000	53		 push	 ebx
  00001	56		 push	 esi
  00002	57		 push	 edi
  00003	8b f9		 mov	 edi, ecx
  00005	c7 07 00 00 00
	00		 mov	 DWORD PTR [edi], OFFSET ??_7?$CDynamicPoolEx@VCGravityDecorator@NEffectUpdateDecorator@@@@6B@
; File C:\Program Files (x86)\Microsoft Visual Studio\2019\Community\VC\Tools\MSVC\14.28.29333\include\vector

; 42   :     _Vector_const_iterator(_Tptr _Parg, const _Container_base* _Pvector) noexcept : _Ptr(_Parg) {

  0000b	8b 5f 08	 mov	 ebx, DWORD PTR [edi+8]
  0000e	8b 77 04	 mov	 esi, DWORD PTR [edi+4]
; File C:\Program Files (x86)\Microsoft Visual Studio\2019\Community\VC\Tools\MSVC\14.28.29333\include\algorithm

; 307  :     for (; _UFirst != _ULast; ++_UFirst) {

  00011	3b f3		 cmp	 esi, ebx
  00013	74 14		 je	 SHORT $LN19@CDynamicPo
$LL20@CDynamicPo:
; File D:\Metin2 Server Files\mainline\SRC_2014\Metin2Client\eterLib\Pool.h

; 224  : 			::operator delete(pkData);

  00015	ff 36		 push	 DWORD PTR [esi]
  00017	e8 00 00 00 00	 call	 ??3@YAXPAX@Z		; operator delete
; File C:\Program Files (x86)\Microsoft Visual Studio\2019\Community\VC\Tools\MSVC\14.28.29333\include\algorithm

; 307  :     for (; _UFirst != _ULast; ++_UFirst) {

  0001c	83 c6 04	 add	 esi, 4
; File D:\Metin2 Server Files\mainline\SRC_2014\Metin2Client\eterLib\Pool.h

; 224  : 			::operator delete(pkData);

  0001f	83 c4 04	 add	 esp, 4
; File C:\Program Files (x86)\Microsoft Visual Studio\2019\Community\VC\Tools\MSVC\14.28.29333\include\algorithm

; 307  :     for (; _UFirst != _ULast; ++_UFirst) {

  00022	3b f3		 cmp	 esi, ebx
  00024	75 ef		 jne	 SHORT $LL20@CDynamicPo
  00026	8b 77 04	 mov	 esi, DWORD PTR [edi+4]
$LN19@CDynamicPo:
; File D:\Metin2 Server Files\mainline\SRC_2014\Metin2Client\eterLib\Pool.h

; 162  : 			m_kVct_pkFree.clear();

  00029	8b 4f 10	 mov	 ecx, DWORD PTR [edi+16]
  0002c	89 77 08	 mov	 DWORD PTR [edi+8], esi
  0002f	89 4f 14	 mov	 DWORD PTR [edi+20], ecx
; File C:\Program Files (x86)\Microsoft Visual Studio\2019\Community\VC\Tools\MSVC\14.28.29333\include\vector

; 1694 :         if (_Myfirst) { // destroy and deallocate old array

  00032	85 c9		 test	 ecx, ecx
  00034	74 27		 je	 SHORT $LN27@CDynamicPo

; 1695 :             _Destroy(_Myfirst, _Mylast);
; 1696 :             _Getal().deallocate(_Myfirst, static_cast<size_type>(_Myend - _Myfirst));

  00036	8b 47 18	 mov	 eax, DWORD PTR [edi+24]
  00039	2b c1		 sub	 eax, ecx
; File C:\Program Files (x86)\Microsoft Visual Studio\2019\Community\VC\Tools\MSVC\14.28.29333\include\xmemory

; 810  :         _Deallocate<_New_alignof<_Ty>>(_Ptr, sizeof(_Ty) * _Count);

  0003b	83 e0 fc	 and	 eax, -4			; fffffffcH
  0003e	50		 push	 eax
  0003f	51		 push	 ecx
  00040	e8 00 00 00 00	 call	 ??$_Deallocate@$07$0A@@std@@YAXPAXI@Z ; std::_Deallocate<8,0>
; File C:\Program Files (x86)\Microsoft Visual Studio\2019\Community\VC\Tools\MSVC\14.28.29333\include\vector

; 1698 :             _Myfirst = pointer();

  00045	c7 47 10 00 00
	00 00		 mov	 DWORD PTR [edi+16], 0
; File C:\Program Files (x86)\Microsoft Visual Studio\2019\Community\VC\Tools\MSVC\14.28.29333\include\xmemory

; 810  :         _Deallocate<_New_alignof<_Ty>>(_Ptr, sizeof(_Ty) * _Count);

  0004c	83 c4 08	 add	 esp, 8
; File C:\Program Files (x86)\Microsoft Visual Studio\2019\Community\VC\Tools\MSVC\14.28.29333\include\vector

; 1699 :             _Mylast  = pointer();

  0004f	c7 47 14 00 00
	00 00		 mov	 DWORD PTR [edi+20], 0

; 1700 :             _Myend   = pointer();

  00056	c7 47 18 00 00
	00 00		 mov	 DWORD PTR [edi+24], 0
$LN27@CDynamicPo:

; 1694 :         if (_Myfirst) { // destroy and deallocate old array

  0005d	8b 4f 04	 mov	 ecx, DWORD PTR [edi+4]
  00060	85 c9		 test	 ecx, ecx
  00062	74 27		 je	 SHORT $LN34@CDynamicPo

; 1695 :             _Destroy(_Myfirst, _Mylast);
; 1696 :             _Getal().deallocate(_Myfirst, static_cast<size_type>(_Myend - _Myfirst));

  00064	8b 47 0c	 mov	 eax, DWORD PTR [edi+12]
  00067	2b c1		 sub	 eax, ecx
; File C:\Program Files (x86)\Microsoft Visual Studio\2019\Community\VC\Tools\MSVC\14.28.29333\include\xmemory

; 810  :         _Deallocate<_New_alignof<_Ty>>(_Ptr, sizeof(_Ty) * _Count);

  00069	83 e0 fc	 and	 eax, -4			; fffffffcH
  0006c	50		 push	 eax
  0006d	51		 push	 ecx
  0006e	e8 00 00 00 00	 call	 ??$_Deallocate@$07$0A@@std@@YAXPAXI@Z ; std::_Deallocate<8,0>
; File C:\Program Files (x86)\Microsoft Visual Studio\2019\Community\VC\Tools\MSVC\14.28.29333\include\vector

; 1698 :             _Myfirst = pointer();

  00073	c7 47 04 00 00
	00 00		 mov	 DWORD PTR [edi+4], 0
; File C:\Program Files (x86)\Microsoft Visual Studio\2019\Community\VC\Tools\MSVC\14.28.29333\include\xmemory

; 810  :         _Deallocate<_New_alignof<_Ty>>(_Ptr, sizeof(_Ty) * _Count);

  0007a	83 c4 08	 add	 esp, 8
; File C:\Program Files (x86)\Microsoft Visual Studio\2019\Community\VC\Tools\MSVC\14.28.29333\include\vector

; 1699 :             _Mylast  = pointer();

  0007d	c7 47 08 00 00
	00 00		 mov	 DWORD PTR [edi+8], 0

; 1700 :             _Myend   = pointer();

  00084	c7 47 0c 00 00
	00 00		 mov	 DWORD PTR [edi+12], 0
$LN34@CDynamicPo:
  0008b	5f		 pop	 edi
; File D:\Metin2 Server Files\mainline\SRC_2014\Metin2Client\eterLib\Pool.h

; 142  : 		}

  0008c	5e		 pop	 esi
  0008d	5b		 pop	 ebx
  0008e	c3		 ret	 0
??1?$CDynamicPoolEx@VCGravityDecorator@NEffectUpdateDecorator@@@@UAE@XZ ENDP ; CDynamicPoolEx<NEffectUpdateDecorator::CGravityDecorator>::~CDynamicPoolEx<NEffectUpdateDecorator::CGravityDecorator>
_TEXT	ENDS
; Function compile flags: /Ogtp
;	COMDAT ??_G?$CDynamicPoolEx@VCRotationDecorator@NEffectUpdateDecorator@@@@UAEPAXI@Z
_TEXT	SEGMENT
___flags$ = 8						; size = 4
??_G?$CDynamicPoolEx@VCRotationDecorator@NEffectUpdateDecorator@@@@UAEPAXI@Z PROC ; CDynamicPoolEx<NEffectUpdateDecorator::CRotationDecorator>::`scalar deleting destructor', COMDAT
; _this$ = ecx
  00000	55		 push	 ebp
  00001	8b ec		 mov	 ebp, esp
  00003	56		 push	 esi
  00004	8b f1		 mov	 esi, ecx
  00006	e8 00 00 00 00	 call	 ??1?$CDynamicPoolEx@VCRotationDecorator@NEffectUpdateDecorator@@@@UAE@XZ ; CDynamicPoolEx<NEffectUpdateDecorator::CRotationDecorator>::~CDynamicPoolEx<NEffectUpdateDecorator::CRotationDecorator>
  0000b	f6 45 08 01	 test	 BYTE PTR ___flags$[ebp], 1
  0000f	74 0b		 je	 SHORT $LN4@scalar
  00011	6a 24		 push	 36			; 00000024H
  00013	56		 push	 esi
  00014	e8 00 00 00 00	 call	 ??3@YAXPAXI@Z		; operator delete
  00019	83 c4 08	 add	 esp, 8
$LN4@scalar:
  0001c	8b c6		 mov	 eax, esi
  0001e	5e		 pop	 esi
  0001f	5d		 pop	 ebp
  00020	c2 04 00	 ret	 4
??_G?$CDynamicPoolEx@VCRotationDecorator@NEffectUpdateDecorator@@@@UAEPAXI@Z ENDP ; CDynamicPoolEx<NEffectUpdateDecorator::CRotationDecorator>::`scalar deleting destructor'
_TEXT	ENDS
; Function compile flags: /Ogtp
; File D:\Metin2 Server Files\mainline\SRC_2014\Metin2Client\eterLib\Pool.h
;	COMDAT ?Delete@?$CDynamicPoolEx@VCRotationDecorator@NEffectUpdateDecorator@@@@KAXPAVCRotationDecorator@NEffectUpdateDecorator@@@Z
_TEXT	SEGMENT
_pkData$ = 8						; size = 4
?Delete@?$CDynamicPoolEx@VCRotationDecorator@NEffectUpdateDecorator@@@@KAXPAVCRotationDecorator@NEffectUpdateDecorator@@@Z PROC ; CDynamicPoolEx<NEffectUpdateDecorator::CRotationDecorator>::Delete, COMDAT

; 224  : 			::operator delete(pkData);

  00000	e9 00 00 00 00	 jmp	 ??3@YAXPAX@Z		; operator delete
?Delete@?$CDynamicPoolEx@VCRotationDecorator@NEffectUpdateDecorator@@@@KAXPAVCRotationDecorator@NEffectUpdateDecorator@@@Z ENDP ; CDynamicPoolEx<NEffectUpdateDecorator::CRotationDecorator>::Delete
_TEXT	ENDS
; Function compile flags: /Ogtp
; File D:\Metin2 Server Files\mainline\SRC_2014\Metin2Client\eterLib\Pool.h
; File C:\Program Files (x86)\Microsoft Visual Studio\2019\Community\VC\Tools\MSVC\14.28.29333\include\vector
; File C:\Program Files (x86)\Microsoft Visual Studio\2019\Community\VC\Tools\MSVC\14.28.29333\include\algorithm
; File D:\Metin2 Server Files\mainline\SRC_2014\Metin2Client\eterLib\Pool.h
; File C:\Program Files (x86)\Microsoft Visual Studio\2019\Community\VC\Tools\MSVC\14.28.29333\include\algorithm
; File D:\Metin2 Server Files\mainline\SRC_2014\Metin2Client\eterLib\Pool.h
; File C:\Program Files (x86)\Microsoft Visual Studio\2019\Community\VC\Tools\MSVC\14.28.29333\include\algorithm
; File D:\Metin2 Server Files\mainline\SRC_2014\Metin2Client\eterLib\Pool.h
; File C:\Program Files (x86)\Microsoft Visual Studio\2019\Community\VC\Tools\MSVC\14.28.29333\include\vector
; File C:\Program Files (x86)\Microsoft Visual Studio\2019\Community\VC\Tools\MSVC\14.28.29333\include\xmemory
; File C:\Program Files (x86)\Microsoft Visual Studio\2019\Community\VC\Tools\MSVC\14.28.29333\include\vector
; File C:\Program Files (x86)\Microsoft Visual Studio\2019\Community\VC\Tools\MSVC\14.28.29333\include\xmemory
; File C:\Program Files (x86)\Microsoft Visual Studio\2019\Community\VC\Tools\MSVC\14.28.29333\include\vector
; File C:\Program Files (x86)\Microsoft Visual Studio\2019\Community\VC\Tools\MSVC\14.28.29333\include\xmemory
; File C:\Program Files (x86)\Microsoft Visual Studio\2019\Community\VC\Tools\MSVC\14.28.29333\include\vector
; File C:\Program Files (x86)\Microsoft Visual Studio\2019\Community\VC\Tools\MSVC\14.28.29333\include\xmemory
; File C:\Program Files (x86)\Microsoft Visual Studio\2019\Community\VC\Tools\MSVC\14.28.29333\include\vector
; File D:\Metin2 Server Files\mainline\SRC_2014\Metin2Client\eterLib\Pool.h
;	COMDAT ??1?$CDynamicPoolEx@VCRotationDecorator@NEffectUpdateDecorator@@@@UAE@XZ
_TEXT	SEGMENT
??1?$CDynamicPoolEx@VCRotationDecorator@NEffectUpdateDecorator@@@@UAE@XZ PROC ; CDynamicPoolEx<NEffectUpdateDecorator::CRotationDecorator>::~CDynamicPoolEx<NEffectUpdateDecorator::CRotationDecorator>, COMDAT
; _this$ = ecx

; 132  : 		{

  00000	53		 push	 ebx
  00001	56		 push	 esi
  00002	57		 push	 edi
  00003	8b f9		 mov	 edi, ecx
  00005	c7 07 00 00 00
	00		 mov	 DWORD PTR [edi], OFFSET ??_7?$CDynamicPoolEx@VCRotationDecorator@NEffectUpdateDecorator@@@@6B@
; File C:\Program Files (x86)\Microsoft Visual Studio\2019\Community\VC\Tools\MSVC\14.28.29333\include\vector

; 42   :     _Vector_const_iterator(_Tptr _Parg, const _Container_base* _Pvector) noexcept : _Ptr(_Parg) {

  0000b	8b 5f 08	 mov	 ebx, DWORD PTR [edi+8]
  0000e	8b 77 04	 mov	 esi, DWORD PTR [edi+4]
; File C:\Program Files (x86)\Microsoft Visual Studio\2019\Community\VC\Tools\MSVC\14.28.29333\include\algorithm

; 307  :     for (; _UFirst != _ULast; ++_UFirst) {

  00011	3b f3		 cmp	 esi, ebx
  00013	74 14		 je	 SHORT $LN19@CDynamicPo
$LL20@CDynamicPo:
; File D:\Metin2 Server Files\mainline\SRC_2014\Metin2Client\eterLib\Pool.h

; 224  : 			::operator delete(pkData);

  00015	ff 36		 push	 DWORD PTR [esi]
  00017	e8 00 00 00 00	 call	 ??3@YAXPAX@Z		; operator delete
; File C:\Program Files (x86)\Microsoft Visual Studio\2019\Community\VC\Tools\MSVC\14.28.29333\include\algorithm

; 307  :     for (; _UFirst != _ULast; ++_UFirst) {

  0001c	83 c6 04	 add	 esi, 4
; File D:\Metin2 Server Files\mainline\SRC_2014\Metin2Client\eterLib\Pool.h

; 224  : 			::operator delete(pkData);

  0001f	83 c4 04	 add	 esp, 4
; File C:\Program Files (x86)\Microsoft Visual Studio\2019\Community\VC\Tools\MSVC\14.28.29333\include\algorithm

; 307  :     for (; _UFirst != _ULast; ++_UFirst) {

  00022	3b f3		 cmp	 esi, ebx
  00024	75 ef		 jne	 SHORT $LL20@CDynamicPo
  00026	8b 77 04	 mov	 esi, DWORD PTR [edi+4]
$LN19@CDynamicPo:
; File D:\Metin2 Server Files\mainline\SRC_2014\Metin2Client\eterLib\Pool.h

; 162  : 			m_kVct_pkFree.clear();

  00029	8b 4f 10	 mov	 ecx, DWORD PTR [edi+16]
  0002c	89 77 08	 mov	 DWORD PTR [edi+8], esi
  0002f	89 4f 14	 mov	 DWORD PTR [edi+20], ecx
; File C:\Program Files (x86)\Microsoft Visual Studio\2019\Community\VC\Tools\MSVC\14.28.29333\include\vector

; 1694 :         if (_Myfirst) { // destroy and deallocate old array

  00032	85 c9		 test	 ecx, ecx
  00034	74 27		 je	 SHORT $LN27@CDynamicPo

; 1695 :             _Destroy(_Myfirst, _Mylast);
; 1696 :             _Getal().deallocate(_Myfirst, static_cast<size_type>(_Myend - _Myfirst));

  00036	8b 47 18	 mov	 eax, DWORD PTR [edi+24]
  00039	2b c1		 sub	 eax, ecx
; File C:\Program Files (x86)\Microsoft Visual Studio\2019\Community\VC\Tools\MSVC\14.28.29333\include\xmemory

; 810  :         _Deallocate<_New_alignof<_Ty>>(_Ptr, sizeof(_Ty) * _Count);

  0003b	83 e0 fc	 and	 eax, -4			; fffffffcH
  0003e	50		 push	 eax
  0003f	51		 push	 ecx
  00040	e8 00 00 00 00	 call	 ??$_Deallocate@$07$0A@@std@@YAXPAXI@Z ; std::_Deallocate<8,0>
; File C:\Program Files (x86)\Microsoft Visual Studio\2019\Community\VC\Tools\MSVC\14.28.29333\include\vector

; 1698 :             _Myfirst = pointer();

  00045	c7 47 10 00 00
	00 00		 mov	 DWORD PTR [edi+16], 0
; File C:\Program Files (x86)\Microsoft Visual Studio\2019\Community\VC\Tools\MSVC\14.28.29333\include\xmemory

; 810  :         _Deallocate<_New_alignof<_Ty>>(_Ptr, sizeof(_Ty) * _Count);

  0004c	83 c4 08	 add	 esp, 8
; File C:\Program Files (x86)\Microsoft Visual Studio\2019\Community\VC\Tools\MSVC\14.28.29333\include\vector

; 1699 :             _Mylast  = pointer();

  0004f	c7 47 14 00 00
	00 00		 mov	 DWORD PTR [edi+20], 0

; 1700 :             _Myend   = pointer();

  00056	c7 47 18 00 00
	00 00		 mov	 DWORD PTR [edi+24], 0
$LN27@CDynamicPo:

; 1694 :         if (_Myfirst) { // destroy and deallocate old array

  0005d	8b 4f 04	 mov	 ecx, DWORD PTR [edi+4]
  00060	85 c9		 test	 ecx, ecx
  00062	74 27		 je	 SHORT $LN34@CDynamicPo

; 1695 :             _Destroy(_Myfirst, _Mylast);
; 1696 :             _Getal().deallocate(_Myfirst, static_cast<size_type>(_Myend - _Myfirst));

  00064	8b 47 0c	 mov	 eax, DWORD PTR [edi+12]
  00067	2b c1		 sub	 eax, ecx
; File C:\Program Files (x86)\Microsoft Visual Studio\2019\Community\VC\Tools\MSVC\14.28.29333\include\xmemory

; 810  :         _Deallocate<_New_alignof<_Ty>>(_Ptr, sizeof(_Ty) * _Count);

  00069	83 e0 fc	 and	 eax, -4			; fffffffcH
  0006c	50		 push	 eax
  0006d	51		 push	 ecx
  0006e	e8 00 00 00 00	 call	 ??$_Deallocate@$07$0A@@std@@YAXPAXI@Z ; std::_Deallocate<8,0>
; File C:\Program Files (x86)\Microsoft Visual Studio\2019\Community\VC\Tools\MSVC\14.28.29333\include\vector

; 1698 :             _Myfirst = pointer();

  00073	c7 47 04 00 00
	00 00		 mov	 DWORD PTR [edi+4], 0
; File C:\Program Files (x86)\Microsoft Visual Studio\2019\Community\VC\Tools\MSVC\14.28.29333\include\xmemory

; 810  :         _Deallocate<_New_alignof<_Ty>>(_Ptr, sizeof(_Ty) * _Count);

  0007a	83 c4 08	 add	 esp, 8
; File C:\Program Files (x86)\Microsoft Visual Studio\2019\Community\VC\Tools\MSVC\14.28.29333\include\vector

; 1699 :             _Mylast  = pointer();

  0007d	c7 47 08 00 00
	00 00		 mov	 DWORD PTR [edi+8], 0

; 1700 :             _Myend   = pointer();

  00084	c7 47 0c 00 00
	00 00		 mov	 DWORD PTR [edi+12], 0
$LN34@CDynamicPo:
  0008b	5f		 pop	 edi
; File D:\Metin2 Server Files\mainline\SRC_2014\Metin2Client\eterLib\Pool.h

; 142  : 		}

  0008c	5e		 pop	 esi
  0008d	5b		 pop	 ebx
  0008e	c3		 ret	 0
??1?$CDynamicPoolEx@VCRotationDecorator@NEffectUpdateDecorator@@@@UAE@XZ ENDP ; CDynamicPoolEx<NEffectUpdateDecorator::CRotationDecorator>::~CDynamicPoolEx<NEffectUpdateDecorator::CRotationDecorator>
_TEXT	ENDS
; Function compile flags: /Ogtp
; File C:\Program Files (x86)\Microsoft Visual Studio\2019\Community\VC\Tools\MSVC\14.28.29333\include\xstring
;	COMDAT ??$?8DU?$char_traits@D@std@@V?$allocator@D@1@@std@@YA_NABV?$basic_string@DU?$char_traits@D@std@@V?$allocator@D@2@@0@QBD@Z
_TEXT	SEGMENT
__Left$ = 8						; size = 4
__Right$ = 12						; size = 4
??$?8DU?$char_traits@D@std@@V?$allocator@D@1@@std@@YA_NABV?$basic_string@DU?$char_traits@D@std@@V?$allocator@D@2@@0@QBD@Z PROC ; std::operator==<char,std::char_traits<char>,std::allocator<char> >, COMDAT

; 4564 : _NODISCARD bool operator==(const basic_string<_Elem, _Traits, _Alloc>& _Left, _In_z_ const _Elem* const _Right) {

  00000	55		 push	 ebp
  00001	8b ec		 mov	 ebp, esp

; 389  :         return _CSTD strlen(reinterpret_cast<const char*>(_First));

  00003	8b 4d 0c	 mov	 ecx, DWORD PTR __Right$[ebp]
  00006	8d 51 01	 lea	 edx, DWORD PTR [ecx+1]
  00009	0f 1f 80 00 00
	00 00		 npad	 7
$LL12@operator:
  00010	8a 01		 mov	 al, BYTE PTR [ecx]
  00012	41		 inc	 ecx
  00013	84 c0		 test	 al, al
  00015	75 f9		 jne	 SHORT $LL12@operator

; 2218 :         const value_type* _Result = _Bx._Buf;

  00017	8b 45 08	 mov	 eax, DWORD PTR __Left$[ebp]

; 389  :         return _CSTD strlen(reinterpret_cast<const char*>(_First));

  0001a	2b ca		 sub	 ecx, edx

; 2218 :         const value_type* _Result = _Bx._Buf;

  0001c	8b d0		 mov	 edx, eax

; 2227 :         return _BUF_SIZE <= _Myres;

  0001e	83 78 14 10	 cmp	 DWORD PTR [eax+20], 16	; 00000010H

; 2219 :         if (_Large_string_engaged()) {

  00022	72 02		 jb	 SHORT $LN8@operator

; 2220 :             _Result = _Unfancy(_Bx._Ptr);

  00024	8b 10		 mov	 edx, DWORD PTR [eax]
$LN8@operator:

; 4180 :         return _Traits_equal<_Traits>(_Mypair._Myval2._Myptr(), _Mypair._Myval2._Mysize, _Ptr, _Traits::length(_Ptr));

  00026	51		 push	 ecx
  00027	ff 75 0c	 push	 DWORD PTR __Right$[ebp]
  0002a	ff 70 10	 push	 DWORD PTR [eax+16]
  0002d	52		 push	 edx
  0002e	e8 00 00 00 00	 call	 ??$_Traits_equal@U?$char_traits@D@std@@@std@@YA_NQBDI0I@Z ; std::_Traits_equal<std::char_traits<char> >
  00033	83 c4 10	 add	 esp, 16			; 00000010H

; 4565 :     return _Left._Equal(_Right);
; 4566 : }

  00036	5d		 pop	 ebp
  00037	c3		 ret	 0
??$?8DU?$char_traits@D@std@@V?$allocator@D@1@@std@@YA_NABV?$basic_string@DU?$char_traits@D@std@@V?$allocator@D@2@@0@QBD@Z ENDP ; std::operator==<char,std::char_traits<char>,std::allocator<char> >
_TEXT	ENDS
; Function compile flags: /Ogtp
; File D:\Metin2 Server Files\mainline\SRC_2014\Metin2Client\UserInterface\MovieMan.cpp
;	COMDAT ?RenderPostEffectFadeOut@CMovieMan@@AAEJPAUIDirectDrawSurface@@HK@Z
_TEXT	SEGMENT
_fadeBegin$1$ = -216					; size = 4
_fadeOutColorBlue$1$ = -212				; size = 4
_fadeOutColorGreen$1$ = -208				; size = 4
_fadeOutColorRed$1$ = -204				; size = 4
_surfaceDC$1 = -200					; size = 4
_pSurface$GSCopy$1$ = -196				; size = 4
_fadeProgress$1$ = -192					; size = 4
_x$1$ = -188						; size = 4
_pSrcSurfaceBuf$1$ = -188				; size = 4
_pCopiedSrcSurBuf$1$ = -184				; size = 4
_desktopDC$1$ = -180					; size = 4
_y$1$ = -180						; size = 4
_lockedSurfaceDesc$ = -176				; size = 108
_windowRect$ = -68					; size = 16
_lowerRect$2 = -52					; size = 16
_upperRect$3 = -36					; size = 16
_movieRect$4 = -20					; size = 16
__$ArrayPad$ = -4					; size = 4
_pSurface$ = 8						; size = 4
_fadeOutDuration$ = 12					; size = 4
_fadeOutColor$ = 16					; size = 4
?RenderPostEffectFadeOut@CMovieMan@@AAEJPAUIDirectDrawSurface@@HK@Z PROC ; CMovieMan::RenderPostEffectFadeOut, COMDAT
; _this$ = ecx

; 427  : {

  00000	55		 push	 ebp
  00001	8b ec		 mov	 ebp, esp
  00003	81 ec d8 00 00
	00		 sub	 esp, 216		; 000000d8H
  00009	a1 00 00 00 00	 mov	 eax, DWORD PTR ___security_cookie
  0000e	33 c5		 xor	 eax, ebp
  00010	89 45 fc	 mov	 DWORD PTR __$ArrayPad$[ebp], eax
  00013	53		 push	 ebx
  00014	8b 5d 08	 mov	 ebx, DWORD PTR _pSurface$[ebp]
  00017	56		 push	 esi
  00018	57		 push	 edi
  00019	8b f9		 mov	 edi, ecx
  0001b	89 9d 3c ff ff
	ff		 mov	 DWORD PTR _pSurface$GSCopy$1$[ebp], ebx

; 428  : 	// Lock   
; 429  : 	DDSURFACEDESC lockedSurfaceDesc;
; 430  : 
; 431  : 	int *pCopiedSrcSurBuf = NULL;

  00021	c7 85 48 ff ff
	ff 00 00 00 00	 mov	 DWORD PTR _pCopiedSrcSurBuf$1$[ebp], 0

; 432  : 	LONG fadeBegin = GetTickCount();

  0002b	ff 15 00 00 00
	00		 call	 DWORD PTR __imp__GetTickCount@0
  00031	8b f0		 mov	 esi, eax
  00033	89 b5 28 ff ff
	ff		 mov	 DWORD PTR _fadeBegin$1$[ebp], esi

; 433  : 	float fadeProgress = 0.0;
; 434  : 	while ((fadeProgress = ((float)((LONG)GetTickCount()) - fadeBegin) / fadeOutDuration) < 1.0)

  00039	ff 15 00 00 00
	00		 call	 DWORD PTR __imp__GetTickCount@0
  0003f	66 0f 6e ce	 movd	 xmm1, esi
  00043	0f 5b c9	 cvtdq2ps xmm1, xmm1
  00046	66 0f 6e c0	 movd	 xmm0, eax
  0004a	0f 5b c0	 cvtdq2ps xmm0, xmm0
  0004d	f3 0f 5c c1	 subss	 xmm0, xmm1
  00051	66 0f 6e 4d 0c	 movd	 xmm1, DWORD PTR _fadeOutDuration$[ebp]
  00056	0f 5b c9	 cvtdq2ps xmm1, xmm1
  00059	f3 0f 5e c1	 divss	 xmm0, xmm1
  0005d	f3 0f 10 0d 00
	00 00 00	 movss	 xmm1, DWORD PTR __real@3f800000
  00065	0f 2f c8	 comiss	 xmm1, xmm0
  00068	f3 0f 11 85 40
	ff ff ff	 movss	 DWORD PTR _fadeProgress$1$[ebp], xmm0
  00070	0f 86 fb 03 00
	00		 jbe	 $LN3@RenderPost
$LL2@RenderPost:

; 435  : 	{
; 436  : 		ZeroMemory(&lockedSurfaceDesc, sizeof(lockedSurfaceDesc));

  00076	6a 68		 push	 104			; 00000068H
  00078	8d 85 54 ff ff
	ff		 lea	 eax, DWORD PTR _lockedSurfaceDesc$[ebp+4]
  0007e	6a 00		 push	 0
  00080	50		 push	 eax
  00081	e8 00 00 00 00	 call	 _memset

; 437  : 		lockedSurfaceDesc.dwSize = sizeof(lockedSurfaceDesc);
; 438  : 		HRESULT hr = pSurface->Lock(NULL, &lockedSurfaceDesc, DDLOCK_WAIT | DDLOCK_NOSYSLOCK | DDLOCK_READONLY, NULL);

  00086	8b 03		 mov	 eax, DWORD PTR [ebx]
  00088	8d 8d 50 ff ff
	ff		 lea	 ecx, DWORD PTR _lockedSurfaceDesc$[ebp]
  0008e	83 c4 0c	 add	 esp, 12			; 0000000cH
  00091	c7 85 50 ff ff
	ff 6c 00 00 00	 mov	 DWORD PTR _lockedSurfaceDesc$[ebp], 108 ; 0000006cH
  0009b	6a 00		 push	 0
  0009d	68 11 08 00 00	 push	 2065			; 00000811H
  000a2	51		 push	 ecx
  000a3	6a 00		 push	 0
  000a5	53		 push	 ebx
  000a6	ff 50 64	 call	 DWORD PTR [eax+100]

; 439  : 		if (FAILED(hr))

  000a9	85 c0		 test	 eax, eax
  000ab	0f 88 e9 03 00
	00		 js	 $LN1@RenderPost

; 440  : 		{
; 441  : 			return hr;
; 442  : 		}
; 443  : 
; 444  : 		//  1    FadeOut 
; 445  : 		if (!pCopiedSrcSurBuf)

  000b1	8b 85 48 ff ff
	ff		 mov	 eax, DWORD PTR _pCopiedSrcSurBuf$1$[ebp]
  000b7	85 c0		 test	 eax, eax
  000b9	75 41		 jne	 SHORT $LN11@RenderPost

; 446  : 		{
; 447  : 			if (!(pCopiedSrcSurBuf = (int*)malloc((LONG)lockedSurfaceDesc.lPitch * m_movieHeight)))

  000bb	8b 47 0c	 mov	 eax, DWORD PTR [edi+12]
  000be	0f af 85 60 ff
	ff ff		 imul	 eax, DWORD PTR _lockedSurfaceDesc$[ebp+16]
  000c5	50		 push	 eax
  000c6	e8 00 00 00 00	 call	 _malloc
  000cb	83 c4 04	 add	 esp, 4
  000ce	89 85 48 ff ff
	ff		 mov	 DWORD PTR _pCopiedSrcSurBuf$1$[ebp], eax
  000d4	85 c0		 test	 eax, eax
  000d6	0f 84 6e 03 00
	00		 je	 $LN23@RenderPost

; 450  : 				return E_OUTOFMEMORY;
; 451  : 			}
; 452  : 			CopyMemory(pCopiedSrcSurBuf, lockedSurfaceDesc.lpSurface, (LONG)lockedSurfaceDesc.lPitch * m_movieHeight);

  000dc	8b 4f 0c	 mov	 ecx, DWORD PTR [edi+12]
  000df	0f af 8d 60 ff
	ff ff		 imul	 ecx, DWORD PTR _lockedSurfaceDesc$[ebp+16]
  000e6	51		 push	 ecx
  000e7	ff b5 74 ff ff
	ff		 push	 DWORD PTR _lockedSurfaceDesc$[ebp+36]
  000ed	50		 push	 eax
  000ee	e8 00 00 00 00	 call	 _memcpy
  000f3	8b 85 48 ff ff
	ff		 mov	 eax, DWORD PTR _pCopiedSrcSurBuf$1$[ebp]
  000f9	83 c4 0c	 add	 esp, 12			; 0000000cH
$LN11@RenderPost:

; 453  : 		}
; 454  : 
; 455  : 		//  (32)
; 456  : 		int *pSrcSurfaceBuf = pCopiedSrcSurBuf;
; 457  : 		int *pDestSurfaceBuf = (int*)lockedSurfaceDesc.lpSurface;
; 458  : 
; 459  : 		int fadeOutColorRed = (int)(((fadeOutColor >> 16) & 255) * fadeProgress);

  000fc	8b 4d 10	 mov	 ecx, DWORD PTR _fadeOutColor$[ebp]
  000ff	89 85 44 ff ff
	ff		 mov	 DWORD PTR _pSrcSurfaceBuf$1$[ebp], eax
  00105	8b c1		 mov	 eax, ecx
  00107	c1 e8 10	 shr	 eax, 16			; 00000010H
  0010a	0f b6 c0	 movzx	 eax, al
  0010d	f3 0f 10 95 40
	ff ff ff	 movss	 xmm2, DWORD PTR _fadeProgress$1$[ebp]
  00115	8b 9d 74 ff ff
	ff		 mov	 ebx, DWORD PTR _lockedSurfaceDesc$[ebp+36]

; 460  : 		int fadeOutColorGreen = (int)(((fadeOutColor >> 8) & 255) * fadeProgress);
; 461  : 		int fadeOutColorBlue = (int)((fadeOutColor & 255) * fadeProgress);
; 462  : 		for(int y = 0; y < m_movieHeight; ++y)

  0011b	c7 85 4c ff ff
	ff 00 00 00 00	 mov	 DWORD PTR _y$1$[ebp], 0
  00125	66 0f 6e c0	 movd	 xmm0, eax
  00129	f3 0f e6 c0	 cvtdq2pd xmm0, xmm0
  0012d	c1 e8 1f	 shr	 eax, 31			; 0000001fH
  00130	f2 0f 58 04 c5
	00 00 00 00	 addsd	 xmm0, QWORD PTR __xmm@41f00000000000000000000000000000[eax*8]
  00139	8b c1		 mov	 eax, ecx
  0013b	c1 e8 08	 shr	 eax, 8
  0013e	0f b6 c0	 movzx	 eax, al
  00141	66 0f 5a c0	 cvtpd2ps xmm0, xmm0
  00145	f3 0f 59 c2	 mulss	 xmm0, xmm2
  00149	f3 0f 2c d0	 cvttss2si edx, xmm0
  0014d	66 0f 6e c0	 movd	 xmm0, eax
  00151	f3 0f e6 c0	 cvtdq2pd xmm0, xmm0
  00155	c1 e8 1f	 shr	 eax, 31			; 0000001fH
  00158	89 95 34 ff ff
	ff		 mov	 DWORD PTR _fadeOutColorRed$1$[ebp], edx
  0015e	f2 0f 58 04 c5
	00 00 00 00	 addsd	 xmm0, QWORD PTR __xmm@41f00000000000000000000000000000[eax*8]
  00167	66 0f 5a c0	 cvtpd2ps xmm0, xmm0
  0016b	f3 0f 59 c2	 mulss	 xmm0, xmm2
  0016f	f3 0f 2c c0	 cvttss2si eax, xmm0
  00173	89 85 30 ff ff
	ff		 mov	 DWORD PTR _fadeOutColorGreen$1$[ebp], eax
  00179	0f b6 c1	 movzx	 eax, cl
  0017c	66 0f 6e c0	 movd	 xmm0, eax
  00180	f3 0f e6 c0	 cvtdq2pd xmm0, xmm0
  00184	c1 e8 1f	 shr	 eax, 31			; 0000001fH
  00187	83 7f 0c 00	 cmp	 DWORD PTR [edi+12], 0
  0018b	f2 0f 58 04 c5
	00 00 00 00	 addsd	 xmm0, QWORD PTR __xmm@41f00000000000000000000000000000[eax*8]
  00194	66 0f 5a c0	 cvtpd2ps xmm0, xmm0
  00198	f3 0f 59 c2	 mulss	 xmm0, xmm2
  0019c	f3 0f 2c c0	 cvttss2si eax, xmm0
  001a0	89 85 2c ff ff
	ff		 mov	 DWORD PTR _fadeOutColorBlue$1$[ebp], eax
  001a6	0f 8e 45 01 00
	00		 jle	 $LN33@RenderPost
  001ac	8b 4f 08	 mov	 ecx, DWORD PTR [edi+8]
  001af	8b b5 44 ff ff
	ff		 mov	 esi, DWORD PTR _pSrcSurfaceBuf$1$[ebp]
  001b5	66 66 66 0f 1f
	84 00 00 00 00
	00		 npad	 11
$LL6@RenderPost:

; 463  : 		{
; 464  : 			for(int x = 0; x < m_movieWidth; ++x)

  001c0	c7 85 44 ff ff
	ff 00 00 00 00	 mov	 DWORD PTR _x$1$[ebp], 0
  001ca	85 c9		 test	 ecx, ecx
  001cc	0f 8e d9 00 00
	00		 jle	 $LN34@RenderPost
  001d2	f3 0f 10 0d 00
	00 00 00	 movss	 xmm1, DWORD PTR __real@3f800000
  001da	66 0f 6e a5 30
	ff ff ff	 movd	 xmm4, DWORD PTR _fadeOutColorGreen$1$[ebp]
  001e2	f3 0f 5c ca	 subss	 xmm1, xmm2
  001e6	66 0f 6e da	 movd	 xmm3, edx
  001ea	66 0f 6e e8	 movd	 xmm5, eax
  001ee	0f 5b db	 cvtdq2ps xmm3, xmm3
  001f1	0f 5b e4	 cvtdq2ps xmm4, xmm4
  001f4	0f 5b ed	 cvtdq2ps xmm5, xmm5
$LL9@RenderPost:

; 465  : 			{
; 466  : 				DWORD srcPixel = *pSrcSurfaceBuf;

  001f7	8b 16		 mov	 edx, DWORD PTR [esi]

; 467  : 				*pDestSurfaceBuf = RGB(

  001f9	8b c2		 mov	 eax, edx
  001fb	c1 e8 10	 shr	 eax, 16			; 00000010H

; 468  : 					(srcPixel & 255) * (1 - fadeProgress) + fadeOutColorBlue,
; 469  : 					((srcPixel >> 8) & 255) * (1 - fadeProgress) + fadeOutColorGreen,
; 470  : 					((srcPixel >> 16) & 255) * (1 - fadeProgress) + fadeOutColorRed);
; 471  : 				pSrcSurfaceBuf++;

  001fe	83 c6 04	 add	 esi, 4
  00201	0f b6 c0	 movzx	 eax, al
  00204	66 0f 6e c0	 movd	 xmm0, eax
  00208	f3 0f e6 c0	 cvtdq2pd xmm0, xmm0
  0020c	c1 e8 1f	 shr	 eax, 31			; 0000001fH
  0020f	f2 0f 58 04 c5
	00 00 00 00	 addsd	 xmm0, QWORD PTR __xmm@41f00000000000000000000000000000[eax*8]
  00218	66 0f 5a c0	 cvtpd2ps xmm0, xmm0
  0021c	f3 0f 59 c1	 mulss	 xmm0, xmm1
  00220	f3 0f 58 c3	 addss	 xmm0, xmm3
  00224	f3 0f 2c c0	 cvttss2si eax, xmm0
  00228	0f b6 c8	 movzx	 ecx, al
  0022b	8b c2		 mov	 eax, edx
  0022d	c1 e8 08	 shr	 eax, 8
  00230	0f b6 c0	 movzx	 eax, al
  00233	c1 e1 08	 shl	 ecx, 8
  00236	66 0f 6e c0	 movd	 xmm0, eax
  0023a	f3 0f e6 c0	 cvtdq2pd xmm0, xmm0
  0023e	c1 e8 1f	 shr	 eax, 31			; 0000001fH
  00241	f2 0f 58 04 c5
	00 00 00 00	 addsd	 xmm0, QWORD PTR __xmm@41f00000000000000000000000000000[eax*8]
  0024a	66 0f 5a c0	 cvtpd2ps xmm0, xmm0
  0024e	f3 0f 59 c1	 mulss	 xmm0, xmm1
  00252	f3 0f 58 c4	 addss	 xmm0, xmm4
  00256	f3 0f 2c c0	 cvttss2si eax, xmm0
  0025a	0f b6 c0	 movzx	 eax, al
  0025d	0b c8		 or	 ecx, eax
  0025f	0f b6 c2	 movzx	 eax, dl
  00262	c1 e1 08	 shl	 ecx, 8
  00265	66 0f 6e c0	 movd	 xmm0, eax
  00269	f3 0f e6 c0	 cvtdq2pd xmm0, xmm0
  0026d	c1 e8 1f	 shr	 eax, 31			; 0000001fH
  00270	f2 0f 58 04 c5
	00 00 00 00	 addsd	 xmm0, QWORD PTR __xmm@41f00000000000000000000000000000[eax*8]
  00279	66 0f 5a c0	 cvtpd2ps xmm0, xmm0
  0027d	f3 0f 59 c1	 mulss	 xmm0, xmm1
  00281	f3 0f 58 c5	 addss	 xmm0, xmm5
  00285	f3 0f 2c c0	 cvttss2si eax, xmm0
  00289	0f b6 c0	 movzx	 eax, al
  0028c	0b c8		 or	 ecx, eax
  0028e	8b 85 44 ff ff
	ff		 mov	 eax, DWORD PTR _x$1$[ebp]
  00294	89 0b		 mov	 DWORD PTR [ebx], ecx
  00296	40		 inc	 eax
  00297	8b 4f 08	 mov	 ecx, DWORD PTR [edi+8]

; 472  : 				pDestSurfaceBuf++;

  0029a	83 c3 04	 add	 ebx, 4
  0029d	89 85 44 ff ff
	ff		 mov	 DWORD PTR _x$1$[ebp], eax
  002a3	3b c1		 cmp	 eax, ecx
  002a5	0f 8c 4c ff ff
	ff		 jl	 $LL9@RenderPost
$LN34@RenderPost:

; 473  : 			}
; 474  : 			pSrcSurfaceBuf += (lockedSurfaceDesc.lPitch / 4) - m_movieWidth;

  002ab	8b 85 60 ff ff
	ff		 mov	 eax, DWORD PTR _lockedSurfaceDesc$[ebp+16]
  002b1	99		 cdq
  002b2	83 e2 03	 and	 edx, 3
  002b5	03 c2		 add	 eax, edx
  002b7	8b 95 34 ff ff
	ff		 mov	 edx, DWORD PTR _fadeOutColorRed$1$[ebp]
  002bd	c1 f8 02	 sar	 eax, 2
  002c0	2b c1		 sub	 eax, ecx
  002c2	c1 e0 02	 shl	 eax, 2
  002c5	03 f0		 add	 esi, eax

; 475  : 			pDestSurfaceBuf += (lockedSurfaceDesc.lPitch / 4) - m_movieWidth;

  002c7	03 d8		 add	 ebx, eax
  002c9	8b 85 4c ff ff
	ff		 mov	 eax, DWORD PTR _y$1$[ebp]
  002cf	40		 inc	 eax
  002d0	3b 47 0c	 cmp	 eax, DWORD PTR [edi+12]
  002d3	89 85 4c ff ff
	ff		 mov	 DWORD PTR _y$1$[ebp], eax
  002d9	8b 85 2c ff ff
	ff		 mov	 eax, DWORD PTR _fadeOutColorBlue$1$[ebp]
  002df	0f 8c db fe ff
	ff		 jl	 $LL6@RenderPost
  002e5	8b b5 28 ff ff
	ff		 mov	 esi, DWORD PTR _fadeBegin$1$[ebp]
  002eb	8b 9d 74 ff ff
	ff		 mov	 ebx, DWORD PTR _lockedSurfaceDesc$[ebp+36]
$LN33@RenderPost:

; 476  : 		}
; 477  : 		pSurface->Unlock(lockedSurfaceDesc.lpSurface);

  002f1	8b 85 3c ff ff
	ff		 mov	 eax, DWORD PTR _pSurface$GSCopy$1$[ebp]
  002f7	53		 push	 ebx
  002f8	8b 9d 3c ff ff
	ff		 mov	 ebx, DWORD PTR _pSurface$GSCopy$1$[ebp]
  002fe	53		 push	 ebx
  002ff	8b 00		 mov	 eax, DWORD PTR [eax]
  00301	ff 90 80 00 00
	00		 call	 DWORD PTR [eax+128]

; 478  : 
; 479  : 		//     
; 480  : 		RECT movieRect;
; 481  : 		CalcMovieRect(m_movieWidth, m_movieHeight, movieRect);

  00307	8d 45 ec	 lea	 eax, DWORD PTR _movieRect$4[ebp]
  0030a	8b cf		 mov	 ecx, edi
  0030c	50		 push	 eax
  0030d	ff 77 0c	 push	 DWORD PTR [edi+12]
  00310	ff 77 08	 push	 DWORD PTR [edi+8]
  00313	e8 00 00 00 00	 call	 ?CalcMovieRect@CMovieMan@@AAEXHHAAUtagRECT@@@Z ; CMovieMan::CalcMovieRect

; 482  : 		if (FAILED(m_pPrimarySurface->Blt(&movieRect, pSurface, NULL, DDBLT_WAIT, NULL)))

  00318	8b 47 20	 mov	 eax, DWORD PTR [edi+32]
  0031b	8d 55 ec	 lea	 edx, DWORD PTR _movieRect$4[ebp]
  0031e	6a 00		 push	 0
  00320	68 00 00 00 01	 push	 16777216		; 01000000H
  00325	6a 00		 push	 0
  00327	8b 08		 mov	 ecx, DWORD PTR [eax]
  00329	53		 push	 ebx
  0032a	52		 push	 edx
  0032b	50		 push	 eax
  0032c	ff 51 14	 call	 DWORD PTR [ecx+20]
  0032f	85 c0		 test	 eax, eax
  00331	79 6e		 jns	 SHORT $LN13@RenderPost

; 91   : 	HDC desktopDC = GetDC(0);

  00333	6a 00		 push	 0
  00335	ff 15 00 00 00
	00		 call	 DWORD PTR __imp__GetDC@4

; 92   : 	if (SUCCEEDED(pSrcSurface->GetDC(&surfaceDC)))

  0033b	8b 0b		 mov	 ecx, DWORD PTR [ebx]
  0033d	89 85 4c ff ff
	ff		 mov	 DWORD PTR _desktopDC$1$[ebp], eax
  00343	8d 85 38 ff ff
	ff		 lea	 eax, DWORD PTR _surfaceDC$1[ebp]
  00349	50		 push	 eax
  0034a	53		 push	 ebx
  0034b	ff 51 44	 call	 DWORD PTR [ecx+68]
  0034e	85 c0		 test	 eax, eax
  00350	78 41		 js	 SHORT $LN17@RenderPost

; 93   : 	{
; 94   : 		StretchBlt(desktopDC, pDestRect->left, pDestRect->top, pDestRect->right - pDestRect->left, pDestRect->bottom - pDestRect->top,

  00352	8b 45 f8	 mov	 eax, DWORD PTR _movieRect$4[ebp+12]
  00355	8b 55 f0	 mov	 edx, DWORD PTR _movieRect$4[ebp+4]
  00358	2b c2		 sub	 eax, edx
  0035a	8b 4d ec	 mov	 ecx, DWORD PTR _movieRect$4[ebp]
  0035d	68 20 00 cc 00	 push	 13369376		; 00cc0020H
  00362	ff 77 0c	 push	 DWORD PTR [edi+12]
  00365	ff 77 08	 push	 DWORD PTR [edi+8]
  00368	6a 00		 push	 0
  0036a	6a 00		 push	 0
  0036c	ff b5 38 ff ff
	ff		 push	 DWORD PTR _surfaceDC$1[ebp]
  00372	50		 push	 eax
  00373	8b 45 f4	 mov	 eax, DWORD PTR _movieRect$4[ebp+8]
  00376	2b c1		 sub	 eax, ecx
  00378	50		 push	 eax
  00379	52		 push	 edx
  0037a	51		 push	 ecx
  0037b	ff b5 4c ff ff
	ff		 push	 DWORD PTR _desktopDC$1$[ebp]
  00381	ff 15 00 00 00
	00		 call	 DWORD PTR __imp__StretchBlt@44

; 95   : 			surfaceDC, 0, 0, m_movieWidth, m_movieHeight, SRCCOPY);
; 96   : 		pSrcSurface->ReleaseDC(surfaceDC);

  00387	ff b5 38 ff ff
	ff		 push	 DWORD PTR _surfaceDC$1[ebp]
  0038d	8b 03		 mov	 eax, DWORD PTR [ebx]
  0038f	53		 push	 ebx
  00390	ff 50 68	 call	 DWORD PTR [eax+104]
$LN17@RenderPost:

; 97   : 	}
; 98   : 	ReleaseDC(0, desktopDC);

  00393	ff b5 4c ff ff
	ff		 push	 DWORD PTR _desktopDC$1$[ebp]
  00399	6a 00		 push	 0
  0039b	ff 15 00 00 00
	00		 call	 DWORD PTR __imp__ReleaseDC@8
$LN13@RenderPost:

; 483  : 		{
; 484  : 			GDIBlt(pSurface, &movieRect);
; 485  : 		}
; 486  : 
; 487  : 		//     
; 488  : 		RECT upperRect, lowerRect;
; 489  : 		CalcBackgroundRect(movieRect, upperRect, lowerRect);

  003a1	8d 45 cc	 lea	 eax, DWORD PTR _lowerRect$2[ebp]
  003a4	8b cf		 mov	 ecx, edi
  003a6	50		 push	 eax
  003a7	8d 45 dc	 lea	 eax, DWORD PTR _upperRect$3[ebp]
  003aa	50		 push	 eax
  003ab	8d 45 ec	 lea	 eax, DWORD PTR _movieRect$4[ebp]
  003ae	50		 push	 eax
  003af	e8 00 00 00 00	 call	 ?CalcBackgroundRect@CMovieMan@@AAEXABUtagRECT@@AAU2@1@Z ; CMovieMan::CalcBackgroundRect

; 490  : 		FillRect(upperRect, (fadeOutColorRed << 16) | (fadeOutColorGreen << 8) | fadeOutColorBlue);

  003b4	8b 9d 34 ff ff
	ff		 mov	 ebx, DWORD PTR _fadeOutColorRed$1$[ebp]
  003ba	8d 45 dc	 lea	 eax, DWORD PTR _upperRect$3[ebp]
  003bd	c1 e3 08	 shl	 ebx, 8
  003c0	8b cf		 mov	 ecx, edi
  003c2	0b 9d 30 ff ff
	ff		 or	 ebx, DWORD PTR _fadeOutColorGreen$1$[ebp]
  003c8	c1 e3 08	 shl	 ebx, 8
  003cb	0b 9d 2c ff ff
	ff		 or	 ebx, DWORD PTR _fadeOutColorBlue$1$[ebp]
  003d1	53		 push	 ebx
  003d2	50		 push	 eax
  003d3	e8 00 00 00 00	 call	 ?FillRect@CMovieMan@@AAEXAAUtagRECT@@K@Z ; CMovieMan::FillRect

; 491  : 		FillRect(lowerRect, (fadeOutColorRed << 16) | (fadeOutColorGreen << 8) | fadeOutColorBlue);

  003d8	53		 push	 ebx
  003d9	8d 45 cc	 lea	 eax, DWORD PTR _lowerRect$2[ebp]
  003dc	8b cf		 mov	 ecx, edi
  003de	50		 push	 eax
  003df	e8 00 00 00 00	 call	 ?FillRect@CMovieMan@@AAEXAAUtagRECT@@K@Z ; CMovieMan::FillRect

; 492  : 		
; 493  : 		//  
; 494  : 		if (m_pBasicAudio)

  003e4	8b 57 24	 mov	 edx, DWORD PTR [edi+36]
  003e7	85 d2		 test	 edx, edx
  003e9	74 1b		 je	 SHORT $LN14@RenderPost

; 495  : 		{
; 496  : 			m_pBasicAudio->put_Volume((long)(-10000 * fadeProgress));

  003eb	f3 0f 10 85 40
	ff ff ff	 movss	 xmm0, DWORD PTR _fadeProgress$1$[ebp]
  003f3	f3 0f 59 05 00
	00 00 00	 mulss	 xmm0, DWORD PTR __real@c61c4000
  003fb	8b 0a		 mov	 ecx, DWORD PTR [edx]
  003fd	f3 0f 2c c0	 cvttss2si eax, xmm0
  00401	50		 push	 eax
  00402	52		 push	 edx
  00403	ff 51 1c	 call	 DWORD PTR [ecx+28]
$LN14@RenderPost:

; 433  : 	float fadeProgress = 0.0;
; 434  : 	while ((fadeProgress = ((float)((LONG)GetTickCount()) - fadeBegin) / fadeOutDuration) < 1.0)

  00406	ff 15 00 00 00
	00		 call	 DWORD PTR __imp__GetTickCount@0
  0040c	66 0f 6e ce	 movd	 xmm1, esi
  00410	0f 5b c9	 cvtdq2ps xmm1, xmm1
  00413	66 0f 6e c0	 movd	 xmm0, eax
  00417	0f 5b c0	 cvtdq2ps xmm0, xmm0
  0041a	f3 0f 5c c1	 subss	 xmm0, xmm1
  0041e	66 0f 6e 4d 0c	 movd	 xmm1, DWORD PTR _fadeOutDuration$[ebp]
  00423	0f 5b c9	 cvtdq2ps xmm1, xmm1
  00426	f3 0f 5e c1	 divss	 xmm0, xmm1
  0042a	f3 0f 10 0d 00
	00 00 00	 movss	 xmm1, DWORD PTR __real@3f800000
  00432	0f 2f c8	 comiss	 xmm1, xmm0
  00435	f3 0f 11 85 40
	ff ff ff	 movss	 DWORD PTR _fadeProgress$1$[ebp], xmm0
  0043d	76 32		 jbe	 SHORT $LN3@RenderPost
  0043f	8b 9d 3c ff ff
	ff		 mov	 ebx, DWORD PTR _pSurface$GSCopy$1$[ebp]
  00445	e9 2c fc ff ff	 jmp	 $LL2@RenderPost
$LN23@RenderPost:

; 448  : 			{
; 449  : 				pSurface->Unlock(lockedSurfaceDesc.lpSurface);

  0044a	ff b5 74 ff ff
	ff		 push	 DWORD PTR _lockedSurfaceDesc$[ebp+36]
  00450	8b 03		 mov	 eax, DWORD PTR [ebx]
  00452	53		 push	 ebx
  00453	ff 90 80 00 00
	00		 call	 DWORD PTR [eax+128]
  00459	5f		 pop	 edi

; 509  : }

  0045a	5e		 pop	 esi
  0045b	b8 0e 00 07 80	 mov	 eax, -2147024882	; 8007000eH
  00460	5b		 pop	 ebx
  00461	8b 4d fc	 mov	 ecx, DWORD PTR __$ArrayPad$[ebp]
  00464	33 cd		 xor	 ecx, ebp
  00466	e8 00 00 00 00	 call	 @__security_check_cookie@4
  0046b	8b e5		 mov	 esp, ebp
  0046d	5d		 pop	 ebp
  0046e	c2 0c 00	 ret	 12			; 0000000cH
$LN3@RenderPost:

; 497  : 		}
; 498  : 	}
; 499  : 
; 500  : 	//  
; 501  : 	free(pCopiedSrcSurBuf);

  00471	ff b5 48 ff ff
	ff		 push	 DWORD PTR _pCopiedSrcSurBuf$1$[ebp]
  00477	e8 00 00 00 00	 call	 _free
  0047c	83 c4 04	 add	 esp, 4

; 502  : 
; 503  : 	//  1.0   FadeOut  
; 504  : 	RECT windowRect;
; 505  : 	GetWindowRect(windowRect);

  0047f	8d 45 bc	 lea	 eax, DWORD PTR _windowRect$[ebp]
  00482	8b cf		 mov	 ecx, edi
  00484	50		 push	 eax
  00485	e8 00 00 00 00	 call	 ?GetWindowRect@CMovieMan@@AAEXAAUtagRECT@@@Z ; CMovieMan::GetWindowRect

; 506  : 	FillRect(windowRect, fadeOutColor);

  0048a	ff 75 10	 push	 DWORD PTR _fadeOutColor$[ebp]
  0048d	8d 45 bc	 lea	 eax, DWORD PTR _windowRect$[ebp]
  00490	8b cf		 mov	 ecx, edi
  00492	50		 push	 eax
  00493	e8 00 00 00 00	 call	 ?FillRect@CMovieMan@@AAEXAAUtagRECT@@K@Z ; CMovieMan::FillRect

; 507  : 
; 508  : 	return S_OK;

  00498	33 c0		 xor	 eax, eax
$LN1@RenderPost:

; 509  : }

  0049a	8b 4d fc	 mov	 ecx, DWORD PTR __$ArrayPad$[ebp]
  0049d	5f		 pop	 edi
  0049e	5e		 pop	 esi
  0049f	33 cd		 xor	 ecx, ebp
  004a1	5b		 pop	 ebx
  004a2	e8 00 00 00 00	 call	 @__security_check_cookie@4
  004a7	8b e5		 mov	 esp, ebp
  004a9	5d		 pop	 ebp
  004aa	c2 0c 00	 ret	 12			; 0000000cH
?RenderPostEffectFadeOut@CMovieMan@@AAEJPAUIDirectDrawSurface@@HK@Z ENDP ; CMovieMan::RenderPostEffectFadeOut
_TEXT	ENDS
; Function compile flags: /Ogtp
; File D:\Metin2 Server Files\mainline\SRC_2014\Metin2Client\UserInterface\MovieMan.cpp
;	COMDAT ?RenderStreamToSurface@CMovieMan@@AAEJPAUIDirectDrawSurface@@PAUIDirectDrawMediaStream@@PAUIMultiMediaStream@@_NHK@Z
_TEXT	SEGMENT
_hr$1$ = -72						; size = 4
_pMMStream$GSCopy$1$ = -68				; size = 4
_desktopDC$1$ = -64					; size = 4
_surfaceDC$1 = -60					; size = 4
_pSample$ = -56						; size = 4
_lowerRect$2 = -52					; size = 16
_upperRect$3 = -36					; size = 16
_movieRect$4 = -20					; size = 16
__$ArrayPad$ = -4					; size = 4
_pSurface$ = 8						; size = 4
_pDDStream$ = 12					; size = 4
_pMMStream$ = 16					; size = 4
_bSkipAllowed$ = 20					; size = 1
_nPostEffectID$ = 24					; size = 4
_dwPostEffectData$ = 28					; size = 4
?RenderStreamToSurface@CMovieMan@@AAEJPAUIDirectDrawSurface@@PAUIDirectDrawMediaStream@@PAUIMultiMediaStream@@_NHK@Z PROC ; CMovieMan::RenderStreamToSurface, COMDAT
; _this$ = ecx

; 318  : {    

  00000	55		 push	 ebp
  00001	8b ec		 mov	 ebp, esp
  00003	83 ec 48	 sub	 esp, 72			; 00000048H
  00006	a1 00 00 00 00	 mov	 eax, DWORD PTR ___security_cookie
  0000b	33 c5		 xor	 eax, ebp
  0000d	89 45 fc	 mov	 DWORD PTR __$ArrayPad$[ebp], eax
  00010	8b 45 10	 mov	 eax, DWORD PTR _pMMStream$[ebp]

; 319  : 	#define KEY_DOWN(vk)	(GetAsyncKeyState(vk) & 0x8000)
; 320  : 
; 321  : 	IDirectDrawStreamSample *pSample = NULL;
; 322  : 	HRESULT hr = pDDStream->CreateSample(pSurface, NULL, 0, &pSample);

  00013	8d 55 c8	 lea	 edx, DWORD PTR _pSample$[ebp]
  00016	53		 push	 ebx
  00017	56		 push	 esi
  00018	57		 push	 edi
  00019	8b 7d 08	 mov	 edi, DWORD PTR _pSurface$[ebp]
  0001c	8b f1		 mov	 esi, ecx
  0001e	8b 4d 0c	 mov	 ecx, DWORD PTR _pDDStream$[ebp]
  00021	52		 push	 edx
  00022	6a 00		 push	 0
  00024	6a 00		 push	 0
  00026	89 45 bc	 mov	 DWORD PTR _pMMStream$GSCopy$1$[ebp], eax
  00029	8b 01		 mov	 eax, DWORD PTR [ecx]
  0002b	57		 push	 edi
  0002c	51		 push	 ecx
  0002d	c7 45 c8 00 00
	00 00		 mov	 DWORD PTR _pSample$[ebp], 0
  00034	ff 50 34	 call	 DWORD PTR [eax+52]
  00037	8b d8		 mov	 ebx, eax
  00039	89 5d b8	 mov	 DWORD PTR _hr$1$[ebp], ebx

; 323  : 	if (SUCCEEDED(hr))

  0003c	85 db		 test	 ebx, ebx
  0003e	0f 88 63 01 00
	00		 js	 $LN6@RenderStre

; 324  : 	{
; 325  : 		//     
; 326  : 		RECT movieRect;
; 327  : 		RECT upperRect, lowerRect;
; 328  : 		CalcMovieRect(m_movieWidth, m_movieHeight, movieRect);

  00044	8d 45 ec	 lea	 eax, DWORD PTR _movieRect$4[ebp]
  00047	8b ce		 mov	 ecx, esi
  00049	50		 push	 eax
  0004a	ff 76 0c	 push	 DWORD PTR [esi+12]
  0004d	ff 76 08	 push	 DWORD PTR [esi+8]
  00050	e8 00 00 00 00	 call	 ?CalcMovieRect@CMovieMan@@AAEXHHAAUtagRECT@@@Z ; CMovieMan::CalcMovieRect

; 329  : 		CalcBackgroundRect(movieRect, upperRect, lowerRect);

  00055	8d 45 cc	 lea	 eax, DWORD PTR _lowerRect$2[ebp]
  00058	8b ce		 mov	 ecx, esi
  0005a	50		 push	 eax
  0005b	8d 45 dc	 lea	 eax, DWORD PTR _upperRect$3[ebp]
  0005e	50		 push	 eax
  0005f	8d 45 ec	 lea	 eax, DWORD PTR _movieRect$4[ebp]
  00062	50		 push	 eax
  00063	e8 00 00 00 00	 call	 ?CalcBackgroundRect@CMovieMan@@AAEXABUtagRECT@@AAU2@1@Z ; CMovieMan::CalcBackgroundRect

; 330  : 		FillRect(upperRect, 0);

  00068	6a 00		 push	 0
  0006a	8d 45 dc	 lea	 eax, DWORD PTR _upperRect$3[ebp]
  0006d	8b ce		 mov	 ecx, esi
  0006f	50		 push	 eax
  00070	e8 00 00 00 00	 call	 ?FillRect@CMovieMan@@AAEXAAUtagRECT@@K@Z ; CMovieMan::FillRect

; 331  : 		FillRect(lowerRect, 0);

  00075	6a 00		 push	 0
  00077	8d 45 cc	 lea	 eax, DWORD PTR _lowerRect$2[ebp]
  0007a	8b ce		 mov	 ecx, esi
  0007c	50		 push	 eax
  0007d	e8 00 00 00 00	 call	 ?FillRect@CMovieMan@@AAEXAAUtagRECT@@K@Z ; CMovieMan::FillRect

; 332  : 
; 333  : 		pMMStream->SetState(STREAMSTATE_RUN);

  00082	8b 4d bc	 mov	 ecx, DWORD PTR _pMMStream$GSCopy$1$[ebp]
  00085	6a 01		 push	 1
  00087	51		 push	 ecx
  00088	8b 01		 mov	 eax, DWORD PTR [ecx]
  0008a	ff 50 1c	 call	 DWORD PTR [eax+28]

; 334  : 		while (pSample->Update(0, NULL, NULL, NULL) == S_OK)

  0008d	8b 45 c8	 mov	 eax, DWORD PTR _pSample$[ebp]
  00090	6a 00		 push	 0
  00092	6a 00		 push	 0
  00094	6a 00		 push	 0
  00096	8b 08		 mov	 ecx, DWORD PTR [eax]
  00098	6a 00		 push	 0
  0009a	50		 push	 eax
  0009b	ff 51 18	 call	 DWORD PTR [ecx+24]
  0009e	85 c0		 test	 eax, eax
  000a0	0f 85 d5 00 00
	00		 jne	 $LN9@RenderStre
  000a6	8b 1d 00 00 00
	00		 mov	 ebx, DWORD PTR __imp__GetAsyncKeyState@4
  000ac	0f 1f 40 00	 npad	 4
$LL2@RenderStre:

; 335  : 		{
; 336  : 			//     
; 337  : 			CalcMovieRect(m_movieWidth, m_movieHeight, movieRect);

  000b0	8d 45 ec	 lea	 eax, DWORD PTR _movieRect$4[ebp]
  000b3	8b ce		 mov	 ecx, esi
  000b5	50		 push	 eax
  000b6	ff 76 0c	 push	 DWORD PTR [esi+12]
  000b9	ff 76 08	 push	 DWORD PTR [esi+8]
  000bc	e8 00 00 00 00	 call	 ?CalcMovieRect@CMovieMan@@AAEXHHAAUtagRECT@@@Z ; CMovieMan::CalcMovieRect

; 338  : 			if (FAILED(m_pPrimarySurface->Blt(&movieRect, pSurface, NULL, DDBLT_WAIT, NULL)))

  000c1	8b 46 20	 mov	 eax, DWORD PTR [esi+32]
  000c4	8d 55 ec	 lea	 edx, DWORD PTR _movieRect$4[ebp]
  000c7	6a 00		 push	 0
  000c9	68 00 00 00 01	 push	 16777216		; 01000000H
  000ce	6a 00		 push	 0
  000d0	8b 08		 mov	 ecx, DWORD PTR [eax]
  000d2	57		 push	 edi
  000d3	52		 push	 edx
  000d4	50		 push	 eax
  000d5	ff 51 14	 call	 DWORD PTR [ecx+20]
  000d8	85 c0		 test	 eax, eax
  000da	79 5c		 jns	 SHORT $LN7@RenderStre

; 91   : 	HDC desktopDC = GetDC(0);

  000dc	6a 00		 push	 0
  000de	ff 15 00 00 00
	00		 call	 DWORD PTR __imp__GetDC@4

; 92   : 	if (SUCCEEDED(pSrcSurface->GetDC(&surfaceDC)))

  000e4	8b 0f		 mov	 ecx, DWORD PTR [edi]
  000e6	89 45 c0	 mov	 DWORD PTR _desktopDC$1$[ebp], eax
  000e9	8d 45 c4	 lea	 eax, DWORD PTR _surfaceDC$1[ebp]
  000ec	50		 push	 eax
  000ed	57		 push	 edi
  000ee	ff 51 44	 call	 DWORD PTR [ecx+68]
  000f1	85 c0		 test	 eax, eax
  000f3	78 38		 js	 SHORT $LN13@RenderStre

; 93   : 	{
; 94   : 		StretchBlt(desktopDC, pDestRect->left, pDestRect->top, pDestRect->right - pDestRect->left, pDestRect->bottom - pDestRect->top,

  000f5	8b 45 f8	 mov	 eax, DWORD PTR _movieRect$4[ebp+12]
  000f8	8b 55 f0	 mov	 edx, DWORD PTR _movieRect$4[ebp+4]
  000fb	2b c2		 sub	 eax, edx
  000fd	8b 4d ec	 mov	 ecx, DWORD PTR _movieRect$4[ebp]
  00100	68 20 00 cc 00	 push	 13369376		; 00cc0020H
  00105	ff 76 0c	 push	 DWORD PTR [esi+12]
  00108	ff 76 08	 push	 DWORD PTR [esi+8]
  0010b	6a 00		 push	 0
  0010d	6a 00		 push	 0
  0010f	ff 75 c4	 push	 DWORD PTR _surfaceDC$1[ebp]
  00112	50		 push	 eax
  00113	8b 45 f4	 mov	 eax, DWORD PTR _movieRect$4[ebp+8]
  00116	2b c1		 sub	 eax, ecx
  00118	50		 push	 eax
  00119	52		 push	 edx
  0011a	51		 push	 ecx
  0011b	ff 75 c0	 push	 DWORD PTR _desktopDC$1$[ebp]
  0011e	ff 15 00 00 00
	00		 call	 DWORD PTR __imp__StretchBlt@44

; 95   : 			surfaceDC, 0, 0, m_movieWidth, m_movieHeight, SRCCOPY);
; 96   : 		pSrcSurface->ReleaseDC(surfaceDC);

  00124	ff 75 c4	 push	 DWORD PTR _surfaceDC$1[ebp]
  00127	8b 07		 mov	 eax, DWORD PTR [edi]
  00129	57		 push	 edi
  0012a	ff 50 68	 call	 DWORD PTR [eax+104]
$LN13@RenderStre:

; 97   : 	}
; 98   : 	ReleaseDC(0, desktopDC);

  0012d	ff 75 c0	 push	 DWORD PTR _desktopDC$1$[ebp]
  00130	6a 00		 push	 0
  00132	ff 15 00 00 00
	00		 call	 DWORD PTR __imp__ReleaseDC@8
$LN7@RenderStre:

; 339  : 			{
; 340  : 				GDIBlt(pSurface, &movieRect);
; 341  : 			}
; 342  : 
; 343  : 			//    ESC/  
; 344  : 			if (bSkipAllowed && (KEY_DOWN(VK_LBUTTON) || KEY_DOWN(VK_ESCAPE) || KEY_DOWN(VK_SPACE)))

  00138	80 7d 14 00	 cmp	 BYTE PTR _bSkipAllowed$[ebp], 0
  0013c	74 21		 je	 SHORT $LN8@RenderStre
  0013e	6a 01		 push	 1
  00140	ff d3		 call	 ebx
  00142	66 0f ba e0 0f	 bt	 ax, 15			; 0000000fH
  00147	72 2f		 jb	 SHORT $LN19@RenderStre
  00149	6a 1b		 push	 27			; 0000001bH
  0014b	ff d3		 call	 ebx
  0014d	66 0f ba e0 0f	 bt	 ax, 15			; 0000000fH
  00152	72 24		 jb	 SHORT $LN19@RenderStre
  00154	6a 20		 push	 32			; 00000020H
  00156	ff d3		 call	 ebx
  00158	66 0f ba e0 0f	 bt	 ax, 15			; 0000000fH
  0015d	72 19		 jb	 SHORT $LN19@RenderStre
$LN8@RenderStre:

; 334  : 		while (pSample->Update(0, NULL, NULL, NULL) == S_OK)

  0015f	8b 45 c8	 mov	 eax, DWORD PTR _pSample$[ebp]
  00162	6a 00		 push	 0
  00164	6a 00		 push	 0
  00166	6a 00		 push	 0
  00168	8b 08		 mov	 ecx, DWORD PTR [eax]
  0016a	6a 00		 push	 0
  0016c	50		 push	 eax
  0016d	ff 51 18	 call	 DWORD PTR [ecx+24]
  00170	85 c0		 test	 eax, eax
  00172	0f 84 38 ff ff
	ff		 je	 $LL2@RenderStre
$LN19@RenderStre:
  00178	8b 5d b8	 mov	 ebx, DWORD PTR _hr$1$[ebp]
$LN9@RenderStre:

; 345  : 			{
; 346  : 				break;
; 347  : 			}
; 348  : 		}
; 349  : 
; 350  : 		//    2  
; 351  : 		switch(nPostEffectID)

  0017b	83 6d 18 01	 sub	 DWORD PTR _nPostEffectID$[ebp], 1
  0017f	75 10		 jne	 SHORT $LN4@RenderStre

; 352  : 		{
; 353  : 		case MOVIEMAN_POSTEFFECT_FADEOUT:
; 354  : 			RenderPostEffectFadeOut(pSurface, MOVIEMAN_FADE_DURATION, dwPostEffectData);

  00181	ff 75 1c	 push	 DWORD PTR _dwPostEffectData$[ebp]
  00184	8b ce		 mov	 ecx, esi
  00186	68 14 05 00 00	 push	 1300			; 00000514H
  0018b	57		 push	 edi
  0018c	e8 00 00 00 00	 call	 ?RenderPostEffectFadeOut@CMovieMan@@AAEJPAUIDirectDrawSurface@@HK@Z ; CMovieMan::RenderPostEffectFadeOut
$LN4@RenderStre:

; 355  : 			break;
; 356  : 		}
; 357  : 
; 358  : 		pMMStream->SetState(STREAMSTATE_STOP);

  00191	8b 4d bc	 mov	 ecx, DWORD PTR _pMMStream$GSCopy$1$[ebp]
  00194	6a 00		 push	 0
  00196	51		 push	 ecx
  00197	8b 01		 mov	 eax, DWORD PTR [ecx]
  00199	ff 50 1c	 call	 DWORD PTR [eax+28]

; 359  : 		pSample->Release();

  0019c	8b 45 c8	 mov	 eax, DWORD PTR _pSample$[ebp]
  0019f	50		 push	 eax
  001a0	8b 08		 mov	 ecx, DWORD PTR [eax]
  001a2	ff 51 08	 call	 DWORD PTR [ecx+8]

; 360  : 	}
; 361  : 
; 362  : 	return hr;

  001a5	8b c3		 mov	 eax, ebx
$LN6@RenderStre:

; 363  : }

  001a7	8b 4d fc	 mov	 ecx, DWORD PTR __$ArrayPad$[ebp]
  001aa	5f		 pop	 edi
  001ab	5e		 pop	 esi
  001ac	33 cd		 xor	 ecx, ebp
  001ae	5b		 pop	 ebx
  001af	e8 00 00 00 00	 call	 @__security_check_cookie@4
  001b4	8b e5		 mov	 esp, ebp
  001b6	5d		 pop	 ebp
  001b7	c2 18 00	 ret	 24			; 00000018H
?RenderStreamToSurface@CMovieMan@@AAEJPAUIDirectDrawSurface@@PAUIDirectDrawMediaStream@@PAUIMultiMediaStream@@_NHK@Z ENDP ; CMovieMan::RenderStreamToSurface
_TEXT	ENDS
; Function compile flags: /Ogtp
; File D:\Metin2 Server Files\mainline\SRC_2014\Metin2Client\UserInterface\MovieMan.cpp
; File C:\Program Files (x86)\Microsoft Visual Studio\2019\Community\VC\Tools\MSVC\14.28.29333\include\xstring
; File D:\Metin2 Server Files\mainline\SRC_2014\Metin2Client\UserInterface\MovieMan.cpp
; File C:\Program Files (x86)\Microsoft Visual Studio\2019\Community\VC\Tools\MSVC\14.28.29333\include\xstring
; File C:\Program Files (x86)\Microsoft Visual Studio\2019\Community\VC\Tools\MSVC\14.28.29333\include\algorithm
; File D:\Metin2 Server Files\mainline\SRC_2014\Metin2Client\UserInterface\MovieMan.cpp
; File C:\Program Files (x86)\Microsoft Visual Studio\2019\Community\VC\Tools\MSVC\14.28.29333\include\xstring
; File C:\Program Files (x86)\Microsoft Visual Studio\2019\Community\VC\Tools\MSVC\14.28.29333\include\xmemory
; File D:\Metin2 Server Files\mainline\SRC_2014\Metin2Client\UserInterface\MovieMan.cpp
;	COMDAT ?RenderFileToMMStream@CMovieMan@@AAEJPBDPAPAUIMultiMediaStream@@PAUIDirectDraw@@@Z
_TEXT	SEGMENT
_ppMMStream$GSCopy$1$ = -1108				; size = 4
tv468 = -1104						; size = 4
_this$GSCopy$1$ = -1100					; size = 4
__ULast$1$ = -1096					; size = 4
_pAMStream$ = -1092					; size = 4
_ext$ = -1088						; size = 24
_wsDir$ = -1064						; size = 522
_wPath$ = -540						; size = 522
__$ArrayPad$ = -16					; size = 4
__$EHRec$ = -12						; size = 12
_cpFilename$ = 8					; size = 4
_ppMMStream$ = 12					; size = 4
_pDD$ = 16						; size = 4
?RenderFileToMMStream@CMovieMan@@AAEJPBDPAPAUIMultiMediaStream@@PAUIDirectDraw@@@Z PROC ; CMovieMan::RenderFileToMMStream, COMDAT
; _this$ = ecx

; 366  : {

  00000	55		 push	 ebp
  00001	8b ec		 mov	 ebp, esp
  00003	6a ff		 push	 -1
  00005	68 00 00 00 00	 push	 __ehhandler$?RenderFileToMMStream@CMovieMan@@AAEJPBDPAPAUIMultiMediaStream@@PAUIDirectDraw@@@Z
  0000a	64 a1 00 00 00
	00		 mov	 eax, DWORD PTR fs:0
  00010	50		 push	 eax
  00011	81 ec 48 04 00
	00		 sub	 esp, 1096		; 00000448H
  00017	a1 00 00 00 00	 mov	 eax, DWORD PTR ___security_cookie
  0001c	33 c5		 xor	 eax, ebp
  0001e	89 45 f0	 mov	 DWORD PTR __$ArrayPad$[ebp], eax
  00021	56		 push	 esi
  00022	57		 push	 edi
  00023	50		 push	 eax
  00024	8d 45 f4	 lea	 eax, DWORD PTR __$EHRec$[ebp]
  00027	64 a3 00 00 00
	00		 mov	 DWORD PTR fs:0, eax
  0002d	89 8d b4 fb ff
	ff		 mov	 DWORD PTR _this$GSCopy$1$[ebp], ecx
  00033	8b 45 0c	 mov	 eax, DWORD PTR _ppMMStream$[ebp]
  00036	8b 75 08	 mov	 esi, DWORD PTR _cpFilename$[ebp]
  00039	8b 7d 10	 mov	 edi, DWORD PTR _pDD$[ebp]
  0003c	89 85 ac fb ff
	ff		 mov	 DWORD PTR _ppMMStream$GSCopy$1$[ebp], eax

; 367  : 	IAMMultiMediaStream *pAMStream;
; 368  : 	HRESULT hr = CoCreateInstance(CLSID_AMMultiMediaStream, NULL, CLSCTX_INPROC_SERVER, IID_IAMMultiMediaStream, (void **) &pAMStream);

  00042	8d 85 bc fb ff
	ff		 lea	 eax, DWORD PTR _pAMStream$[ebp]
  00048	50		 push	 eax
  00049	68 00 00 00 00	 push	 OFFSET _IID_IAMMultiMediaStream
  0004e	6a 01		 push	 1
  00050	6a 00		 push	 0
  00052	68 00 00 00 00	 push	 OFFSET _CLSID_AMMultiMediaStream
  00057	ff 15 00 00 00
	00		 call	 DWORD PTR __imp__CoCreateInstance@20

; 369  : 	if (FAILED(hr))

  0005d	85 c0		 test	 eax, eax
  0005f	0f 88 ae 02 00
	00		 js	 $LN1@RenderFile

; 370  : 	{
; 371  : 		return hr;
; 372  : 	}
; 373  : 
; 374  : 	WCHAR wPath[MAX_PATH + 1];
; 375  : 	MultiByteToWideChar(CP_ACP, 0, cpFilename, -1, wPath, MAX_PATH + 1);

  00065	68 05 01 00 00	 push	 261			; 00000105H
  0006a	8d 85 e4 fd ff
	ff		 lea	 eax, DWORD PTR _wPath$[ebp]
  00070	50		 push	 eax
  00071	6a ff		 push	 -1
  00073	56		 push	 esi
  00074	6a 00		 push	 0
  00076	6a 00		 push	 0
  00078	ff 15 00 00 00
	00		 call	 DWORD PTR __imp__MultiByteToWideChar@24

; 376  : 	//
; 377  : 	WCHAR wsDir[MAX_PATH + 1];
; 378  : 	::memset(wsDir, 0, sizeof(wsDir));

  0007e	68 0a 02 00 00	 push	 522			; 0000020aH
  00083	8d 85 d8 fb ff
	ff		 lea	 eax, DWORD PTR _wsDir$[ebp]
  00089	6a 00		 push	 0
  0008b	50		 push	 eax
  0008c	e8 00 00 00 00	 call	 _memset
  00091	83 c4 0c	 add	 esp, 12			; 0000000cH

; 379  : 	::GetCurrentDirectoryW( MAX_PATH, wsDir );

  00094	8d 85 d8 fb ff
	ff		 lea	 eax, DWORD PTR _wsDir$[ebp]
  0009a	50		 push	 eax
  0009b	68 04 01 00 00	 push	 260			; 00000104H
  000a0	ff 15 00 00 00
	00		 call	 DWORD PTR __imp__GetCurrentDirectoryW@8

; 380  : 	::wcsncat( wsDir, L"\\", sizeof(WCHAR)*1 );

  000a6	6a 02		 push	 2
  000a8	8d 85 d8 fb ff
	ff		 lea	 eax, DWORD PTR _wsDir$[ebp]
  000ae	68 00 00 00 00	 push	 OFFSET ??_C@_13FPGAJAPJ@?$AA?2@
  000b3	50		 push	 eax
  000b4	e8 00 00 00 00	 call	 _wcsncat

; 381  : 	::wcsncat( wsDir, wPath, sizeof(WCHAR)*::wcsnlen(wPath, MAX_PATH) );

  000b9	8d 85 e4 fd ff
	ff		 lea	 eax, DWORD PTR _wPath$[ebp]
  000bf	68 04 01 00 00	 push	 260			; 00000104H
  000c4	50		 push	 eax
  000c5	e8 00 00 00 00	 call	 _wcsnlen
  000ca	03 c0		 add	 eax, eax
  000cc	50		 push	 eax
  000cd	8d 85 e4 fd ff
	ff		 lea	 eax, DWORD PTR _wPath$[ebp]
  000d3	50		 push	 eax
  000d4	8d 85 d8 fb ff
	ff		 lea	 eax, DWORD PTR _wsDir$[ebp]
  000da	50		 push	 eax
  000db	e8 00 00 00 00	 call	 _wcsncat

; 382  : 	::memset(wPath, 0, sizeof(wPath));

  000e0	68 0a 02 00 00	 push	 522			; 0000020aH
  000e5	8d 85 e4 fd ff
	ff		 lea	 eax, DWORD PTR _wPath$[ebp]
  000eb	6a 00		 push	 0
  000ed	50		 push	 eax
  000ee	e8 00 00 00 00	 call	 _memset

; 383  : 	::wcsncpy( wPath, wsDir, sizeof(WCHAR)*::wcsnlen(wsDir, MAX_PATH) );

  000f3	8d 85 d8 fb ff
	ff		 lea	 eax, DWORD PTR _wsDir$[ebp]
  000f9	68 04 01 00 00	 push	 260			; 00000104H
  000fe	50		 push	 eax
  000ff	e8 00 00 00 00	 call	 _wcsnlen
  00104	03 c0		 add	 eax, eax
  00106	50		 push	 eax
  00107	8d 85 d8 fb ff
	ff		 lea	 eax, DWORD PTR _wsDir$[ebp]
  0010d	50		 push	 eax
  0010e	8d 85 e4 fd ff
	ff		 lea	 eax, DWORD PTR _wPath$[ebp]
  00114	50		 push	 eax
  00115	e8 00 00 00 00	 call	 _wcsncpy

; 384  : 	//
; 385  : 
; 386  : 	pAMStream->Initialize(STREAMTYPE_READ, AMMSF_NOGRAPHTHREAD, NULL);

  0011a	8b 85 bc fb ff
	ff		 mov	 eax, DWORD PTR _pAMStream$[ebp]
  00120	83 c4 40	 add	 esp, 64			; 00000040H
  00123	8b 08		 mov	 ecx, DWORD PTR [eax]
  00125	6a 00		 push	 0
  00127	6a 01		 push	 1
  00129	6a 00		 push	 0
  0012b	50		 push	 eax
  0012c	ff 51 30	 call	 DWORD PTR [ecx+48]

; 387  : 	pAMStream->AddMediaStream(pDD, &MSPID_PrimaryVideo, 0, NULL);

  0012f	8b 85 bc fb ff
	ff		 mov	 eax, DWORD PTR _pAMStream$[ebp]
  00135	6a 00		 push	 0
  00137	6a 00		 push	 0
  00139	68 00 00 00 00	 push	 OFFSET _MSPID_PrimaryVideo
  0013e	8b 08		 mov	 ecx, DWORD PTR [eax]
  00140	57		 push	 edi
  00141	50		 push	 eax
  00142	ff 51 3c	 call	 DWORD PTR [ecx+60]

; 388  : 	pAMStream->AddMediaStream(NULL, &MSPID_PrimaryAudio, AMMSF_ADDDEFAULTRENDERER, NULL);

  00145	8b 85 bc fb ff
	ff		 mov	 eax, DWORD PTR _pAMStream$[ebp]
  0014b	6a 00		 push	 0
  0014d	6a 01		 push	 1
  0014f	68 00 00 00 00	 push	 OFFSET _MSPID_PrimaryAudio
  00154	8b 08		 mov	 ecx, DWORD PTR [eax]
  00156	6a 00		 push	 0
  00158	50		 push	 eax
  00159	ff 51 3c	 call	 DWORD PTR [ecx+60]
; File C:\Program Files (x86)\Microsoft Visual Studio\2019\Community\VC\Tools\MSVC\14.28.29333\include\xstring

; 4377 :         _Mypair._Myval2._Mysize = 0;

  0015c	c7 85 d0 fb ff
	ff 00 00 00 00	 mov	 DWORD PTR _ext$[ebp+16], 0

; 4378 :         _Mypair._Myval2._Myres  = _BUF_SIZE - 1;

  00166	c7 85 d4 fb ff
	ff 0f 00 00 00	 mov	 DWORD PTR _ext$[ebp+20], 15 ; 0000000fH

; 4379 :         // the _Traits::assign is last so the codegen doesn't think the char write can alias this
; 4380 :         _Traits::assign(_Mypair._Myval2._Bx._Buf[0], _Elem());

  00170	c6 85 c0 fb ff
	ff 00		 mov	 BYTE PTR _ext$[ebp], 0
; File D:\Metin2 Server Files\mainline\SRC_2014\Metin2Client\UserInterface\MovieMan.cpp

; 391  : 	GetFileExtension(cpFilename, strlen(cpFilename), &ext);

  00177	8b ce		 mov	 ecx, esi
  00179	c7 45 fc 00 00
	00 00		 mov	 DWORD PTR __$EHRec$[ebp+8], 0
  00180	8d 51 01	 lea	 edx, DWORD PTR [ecx+1]
$LL79@RenderFile:
  00183	8a 01		 mov	 al, BYTE PTR [ecx]
  00185	41		 inc	 ecx
  00186	84 c0		 test	 al, al
  00188	75 f9		 jne	 SHORT $LL79@RenderFile
  0018a	8d 85 c0 fb ff
	ff		 lea	 eax, DWORD PTR _ext$[ebp]
  00190	2b ca		 sub	 ecx, edx
  00192	50		 push	 eax
  00193	51		 push	 ecx
  00194	56		 push	 esi
  00195	e8 00 00 00 00	 call	 ?GetFileExtension@@YAXPBDHPAV?$basic_string@DU?$char_traits@D@std@@V?$allocator@D@2@@std@@@Z ; GetFileExtension
; File C:\Program Files (x86)\Microsoft Visual Studio\2019\Community\VC\Tools\MSVC\14.28.29333\include\xstring

; 2227 :         return _BUF_SIZE <= _Myres;

  0019a	8b bd d4 fb ff
	ff		 mov	 edi, DWORD PTR _ext$[ebp+20]

; 2209 :         value_type* _Result = _Bx._Buf;

  001a0	8d 85 c0 fb ff
	ff		 lea	 eax, DWORD PTR _ext$[ebp]

; 2210 :         if (_Large_string_engaged()) {

  001a6	8b b5 c0 fb ff
	ff		 mov	 esi, DWORD PTR _ext$[ebp]

; 2227 :         return _BUF_SIZE <= _Myres;

  001ac	83 ff 10	 cmp	 edi, 16			; 00000010H

; 2210 :         if (_Large_string_engaged()) {

  001af	0f 43 c6	 cmovae	 eax, esi

; 3570 :         return iterator(_Refancy<pointer>(_Mypair._Myval2._Myptr()), _STD addressof(_Mypair._Myval2));

  001b2	50		 push	 eax
  001b3	e8 00 00 00 00	 call	 ??$_Refancy@PAD$0A@@std@@YAPADPAD@Z ; std::_Refancy<char *,0>

; 2227 :         return _BUF_SIZE <= _Myres;

  001b8	83 ff 10	 cmp	 edi, 16			; 00000010H

; 3570 :         return iterator(_Refancy<pointer>(_Mypair._Myval2._Myptr()), _STD addressof(_Mypair._Myval2));

  001bb	89 85 b0 fb ff
	ff		 mov	 DWORD PTR tv468[ebp], eax

; 2209 :         value_type* _Result = _Bx._Buf;

  001c1	8d 8d c0 fb ff
	ff		 lea	 ecx, DWORD PTR _ext$[ebp]

; 2210 :         if (_Large_string_engaged()) {

  001c7	0f 43 ce	 cmovae	 ecx, esi

; 3578 :         return iterator(

  001ca	51		 push	 ecx
  001cb	e8 00 00 00 00	 call	 ??$_Refancy@PAD$0A@@std@@YAPADPAD@Z ; std::_Refancy<char *,0>
  001d0	03 85 d0 fb ff
	ff		 add	 eax, DWORD PTR _ext$[ebp+16]

; 2227 :         return _BUF_SIZE <= _Myres;

  001d6	83 ff 10	 cmp	 edi, 16			; 00000010H

; 3578 :         return iterator(

  001d9	89 85 b8 fb ff
	ff		 mov	 DWORD PTR __ULast$1$[ebp], eax

; 2209 :         value_type* _Result = _Bx._Buf;

  001df	8d 85 c0 fb ff
	ff		 lea	 eax, DWORD PTR _ext$[ebp]

; 2210 :         if (_Large_string_engaged()) {

  001e5	0f 43 c6	 cmovae	 eax, esi

; 3570 :         return iterator(_Refancy<pointer>(_Mypair._Myval2._Myptr()), _STD addressof(_Mypair._Myval2));

  001e8	50		 push	 eax
  001e9	e8 00 00 00 00	 call	 ??$_Refancy@PAD$0A@@std@@YAPADPAD@Z ; std::_Refancy<char *,0>
  001ee	8b f0		 mov	 esi, eax
  001f0	83 c4 18	 add	 esp, 24			; 00000018H
; File C:\Program Files (x86)\Microsoft Visual Studio\2019\Community\VC\Tools\MSVC\14.28.29333\include\algorithm

; 3432 :     for (; _UFirst != _ULast; ++_UFirst, (void) ++_UDest) {

  001f3	3b b5 b8 fb ff
	ff		 cmp	 esi, DWORD PTR __ULast$1$[ebp]
  001f9	74 20		 je	 SHORT $LN56@RenderFile
  001fb	8b bd b0 fb ff
	ff		 mov	 edi, DWORD PTR tv468[ebp]
  00201	2b fe		 sub	 edi, esi
$LL57@RenderFile:

; 3433 :         *_UDest = _Func(*_UFirst);

  00203	0f be 06	 movsx	 eax, BYTE PTR [esi]
  00206	50		 push	 eax
  00207	e8 00 00 00 00	 call	 _tolower
  0020c	88 04 37	 mov	 BYTE PTR [edi+esi], al
  0020f	83 c4 04	 add	 esp, 4
  00212	46		 inc	 esi
  00213	3b b5 b8 fb ff
	ff		 cmp	 esi, DWORD PTR __ULast$1$[ebp]
  00219	75 e8		 jne	 SHORT $LL57@RenderFile
$LN56@RenderFile:
; File D:\Metin2 Server Files\mainline\SRC_2014\Metin2Client\UserInterface\MovieMan.cpp

; 393  : 	if (ext == "mpg")

  0021b	8d 85 c0 fb ff
	ff		 lea	 eax, DWORD PTR _ext$[ebp]
  00221	68 00 00 00 00	 push	 OFFSET ??_C@_03GJLKJKAN@mpg@
  00226	50		 push	 eax
  00227	e8 00 00 00 00	 call	 ??$?8DU?$char_traits@D@std@@V?$allocator@D@1@@std@@YA_NABV?$basic_string@DU?$char_traits@D@std@@V?$allocator@D@2@@0@QBD@Z ; std::operator==<char,std::char_traits<char>,std::allocator<char> >
  0022c	83 c4 08	 add	 esp, 8
  0022f	84 c0		 test	 al, al
  00231	74 47		 je	 SHORT $LN3@RenderFile

; 394  : 	{
; 395  : 		// 2007-08-01, nuclei
; 396  : 		// MPG       
; 397  : 		//  (ffdshow )    
; 398  : 		// (        )
; 399  : 		hr = BuildFilterGraphManually(wPath, pAMStream, CLSID_MPEG1Splitter, CLSID_CMpegVideoCodec, CLSID_CMpegAudioCodec);

  00233	0f 10 05 00 00
	00 00		 movups	 xmm0, XMMWORD PTR _CLSID_CMpegAudioCodec
  0023a	83 ec 10	 sub	 esp, 16			; 00000010H
  0023d	8b c4		 mov	 eax, esp
  0023f	83 ec 10	 sub	 esp, 16			; 00000010H
  00242	0f 11 00	 movups	 XMMWORD PTR [eax], xmm0
  00245	8b c4		 mov	 eax, esp
  00247	0f 10 05 00 00
	00 00		 movups	 xmm0, XMMWORD PTR _CLSID_CMpegVideoCodec
  0024e	0f 11 00	 movups	 XMMWORD PTR [eax], xmm0
  00251	0f 10 05 00 00
	00 00		 movups	 xmm0, XMMWORD PTR _CLSID_MPEG1Splitter
$LN83@RenderFile:

; 410  : 	}
; 411  : 
; 412  : 	//   hr S_OK
; 413  : 	if (SUCCEEDED(hr))

  00258	8b 8d b4 fb ff
	ff		 mov	 ecx, DWORD PTR _this$GSCopy$1$[ebp]
  0025e	83 ec 10	 sub	 esp, 16			; 00000010H
  00261	8b c4		 mov	 eax, esp
  00263	ff b5 bc fb ff
	ff		 push	 DWORD PTR _pAMStream$[ebp]
  00269	0f 11 00	 movups	 XMMWORD PTR [eax], xmm0
  0026c	8d 85 e4 fd ff
	ff		 lea	 eax, DWORD PTR _wPath$[ebp]
  00272	50		 push	 eax
  00273	e8 00 00 00 00	 call	 ?BuildFilterGraphManually@CMovieMan@@AAEJPA_WPAUIAMMultiMediaStream@@U_GUID@@22@Z ; CMovieMan::BuildFilterGraphManually
  00278	eb 54		 jmp	 SHORT $LN81@RenderFile
$LN3@RenderFile:

; 400  : 	}
; 401  : 	else if (ext == "mp43")

  0027a	8d 85 c0 fb ff
	ff		 lea	 eax, DWORD PTR _ext$[ebp]
  00280	68 00 00 00 00	 push	 OFFSET ??_C@_04OEEJDDPO@mp43@
  00285	50		 push	 eax
  00286	e8 00 00 00 00	 call	 ??$?8DU?$char_traits@D@std@@V?$allocator@D@1@@std@@YA_NABV?$basic_string@DU?$char_traits@D@std@@V?$allocator@D@2@@0@QBD@Z ; std::operator==<char,std::char_traits<char>,std::allocator<char> >
  0028b	83 c4 08	 add	 esp, 8
  0028e	84 c0		 test	 al, al
  00290	74 27		 je	 SHORT $LN5@RenderFile

; 402  : 	{
; 403  : 		// 2007-08-12, nuclei
; 404  : 		// MPEG-4, MP3   AVI  ( .mp43 )
; 405  : 		hr = BuildFilterGraphManually(wPath, pAMStream, CLSID_AviSplitter, CLSID_MP4VideoCodec, CLSID_MP3AudioCodec);

  00292	0f 10 05 00 00
	00 00		 movups	 xmm0, XMMWORD PTR ?CLSID_MP3AudioCodec@@3U_GUID@@B
  00299	83 ec 10	 sub	 esp, 16			; 00000010H
  0029c	8b c4		 mov	 eax, esp
  0029e	83 ec 10	 sub	 esp, 16			; 00000010H
  002a1	0f 11 00	 movups	 XMMWORD PTR [eax], xmm0
  002a4	8b c4		 mov	 eax, esp
  002a6	0f 10 05 00 00
	00 00		 movups	 xmm0, XMMWORD PTR ?CLSID_MP4VideoCodec@@3U_GUID@@B
  002ad	0f 11 00	 movups	 XMMWORD PTR [eax], xmm0
  002b0	0f 10 05 00 00
	00 00		 movups	 xmm0, XMMWORD PTR _CLSID_AviSplitter

; 406  : 	}

  002b7	eb 9f		 jmp	 SHORT $LN83@RenderFile
$LN5@RenderFile:

; 407  : 	else
; 408  : 	{
; 409  : 		hr = pAMStream->OpenFile(wPath, 0);

  002b9	8b 85 bc fb ff
	ff		 mov	 eax, DWORD PTR _pAMStream$[ebp]
  002bf	8d 95 e4 fd ff
	ff		 lea	 edx, DWORD PTR _wPath$[ebp]
  002c5	6a 00		 push	 0
  002c7	52		 push	 edx
  002c8	50		 push	 eax
  002c9	8b 08		 mov	 ecx, DWORD PTR [eax]
  002cb	ff 51 40	 call	 DWORD PTR [ecx+64]
$LN81@RenderFile:

; 410  : 	}
; 411  : 
; 412  : 	//   hr S_OK
; 413  : 	if (SUCCEEDED(hr))

  002ce	8b f0		 mov	 esi, eax
  002d0	85 f6		 test	 esi, esi
  002d2	78 16		 js	 SHORT $LN7@RenderFile

; 414  : 	{
; 415  : 		pAMStream->QueryInterface(IID_IMultiMediaStream, (void**) ppMMStream);

  002d4	8b 85 bc fb ff
	ff		 mov	 eax, DWORD PTR _pAMStream$[ebp]
  002da	ff b5 ac fb ff
	ff		 push	 DWORD PTR _ppMMStream$GSCopy$1$[ebp]
  002e0	68 00 00 00 00	 push	 OFFSET _IID_IMultiMediaStream
  002e5	8b 08		 mov	 ecx, DWORD PTR [eax]
  002e7	50		 push	 eax
  002e8	ff 11		 call	 DWORD PTR [ecx]
$LN7@RenderFile:

; 416  : 	}
; 417  : 
; 418  : 	pAMStream->Release();

  002ea	8b 85 bc fb ff
	ff		 mov	 eax, DWORD PTR _pAMStream$[ebp]
  002f0	50		 push	 eax
  002f1	8b 08		 mov	 ecx, DWORD PTR [eax]
  002f3	ff 51 08	 call	 DWORD PTR [ecx+8]
; File C:\Program Files (x86)\Microsoft Visual Studio\2019\Community\VC\Tools\MSVC\14.28.29333\include\xstring

; 2227 :         return _BUF_SIZE <= _Myres;

  002f6	8b 85 d4 fb ff
	ff		 mov	 eax, DWORD PTR _ext$[ebp+20]
  002fc	83 f8 10	 cmp	 eax, 16			; 00000010H

; 4385 :         if (_Mypair._Myval2._Large_string_engaged()) {

  002ff	72 10		 jb	 SHORT $LN69@RenderFile

; 4386 :             const pointer _Ptr = _Mypair._Myval2._Bx._Ptr;
; 4387 :             auto& _Al          = _Getal();
; 4388 :             _Destroy_in_place(_Mypair._Myval2._Bx._Ptr);
; 4389 :             _Al.deallocate(_Ptr, _Mypair._Myval2._Myres + 1);

  00301	40		 inc	 eax
; File C:\Program Files (x86)\Microsoft Visual Studio\2019\Community\VC\Tools\MSVC\14.28.29333\include\xmemory

; 810  :         _Deallocate<_New_alignof<_Ty>>(_Ptr, sizeof(_Ty) * _Count);

  00302	50		 push	 eax
  00303	ff b5 c0 fb ff
	ff		 push	 DWORD PTR _ext$[ebp]
  00309	e8 00 00 00 00	 call	 ??$_Deallocate@$07$0A@@std@@YAXPAXI@Z ; std::_Deallocate<8,0>
  0030e	83 c4 08	 add	 esp, 8
$LN69@RenderFile:
; File D:\Metin2 Server Files\mainline\SRC_2014\Metin2Client\UserInterface\MovieMan.cpp

; 420  : 	return hr;

  00311	8b c6		 mov	 eax, esi
$LN1@RenderFile:

; 421  : }

  00313	8b 4d f4	 mov	 ecx, DWORD PTR __$EHRec$[ebp]
  00316	64 89 0d 00 00
	00 00		 mov	 DWORD PTR fs:0, ecx
  0031d	59		 pop	 ecx
  0031e	5f		 pop	 edi
  0031f	5e		 pop	 esi
  00320	8b 4d f0	 mov	 ecx, DWORD PTR __$ArrayPad$[ebp]
  00323	33 cd		 xor	 ecx, ebp
  00325	e8 00 00 00 00	 call	 @__security_check_cookie@4
  0032a	8b e5		 mov	 esp, ebp
  0032c	5d		 pop	 ebp
  0032d	c2 0c 00	 ret	 12			; 0000000cH
_TEXT	ENDS
;	COMDAT text$x
text$x	SEGMENT
__unwindfunclet$?RenderFileToMMStream@CMovieMan@@AAEJPBDPAPAUIMultiMediaStream@@PAUIDirectDraw@@@Z$0:
  00000	8d 8d c0 fb ff
	ff		 lea	 ecx, DWORD PTR _ext$[ebp]
  00006	e9 00 00 00 00	 jmp	 ??1?$basic_string@DU?$char_traits@D@std@@V?$allocator@D@2@@std@@QAE@XZ ; std::basic_string<char,std::char_traits<char>,std::allocator<char> >::~basic_string<char,std::char_traits<char>,std::allocator<char> >
  0000b	cc		 int	 3
  0000c	cc		 int	 3
  0000d	cc		 int	 3
  0000e	cc		 int	 3
  0000f	cc		 int	 3
__ehhandler$?RenderFileToMMStream@CMovieMan@@AAEJPBDPAPAUIMultiMediaStream@@PAUIDirectDraw@@@Z:
  00010	90		 npad	 1
  00011	90		 npad	 1
  00012	8b 54 24 08	 mov	 edx, DWORD PTR [esp+8]
  00016	8d 42 0c	 lea	 eax, DWORD PTR [edx+12]
  00019	8b 8a ac fb ff
	ff		 mov	 ecx, DWORD PTR [edx-1108]
  0001f	33 c8		 xor	 ecx, eax
  00021	e8 00 00 00 00	 call	 @__security_check_cookie@4
  00026	8b 4a fc	 mov	 ecx, DWORD PTR [edx-4]
  00029	33 c8		 xor	 ecx, eax
  0002b	e8 00 00 00 00	 call	 @__security_check_cookie@4
  00030	b8 00 00 00 00	 mov	 eax, OFFSET __ehfuncinfo$?RenderFileToMMStream@CMovieMan@@AAEJPBDPAPAUIMultiMediaStream@@PAUIDirectDraw@@@Z
  00035	e9 00 00 00 00	 jmp	 ___CxxFrameHandler3
text$x	ENDS
?RenderFileToMMStream@CMovieMan@@AAEJPBDPAPAUIMultiMediaStream@@PAUIDirectDraw@@@Z ENDP ; CMovieMan::RenderFileToMMStream
; Function compile flags: /Ogtp
; File D:\Metin2 Server Files\mainline\SRC_2014\Metin2Client\UserInterface\MovieMan.cpp
; File C:\Program Files (x86)\Windows Kits\10\Include\10.0.18362.0\shared\guiddef.h
; File D:\Metin2 Server Files\mainline\SRC_2014\Metin2Client\UserInterface\MovieMan.cpp
;	COMDAT ?BuildFilterGraphManually@CMovieMan@@AAEJPA_WPAUIAMMultiMediaStream@@U_GUID@@22@Z
_TEXT	SEGMENT
_wpFilename$GSCopy$1$ = -360				; size = 4
_pWrap$1 = -356						; size = 4
_pSourceFilter$ = -352					; size = 4
_pAudioFilter$ = -348					; size = 4
_pSplitterAudioOutPin$ = -344				; size = 4
_pSplitterFilter$ = -340				; size = 4
_pVideoFilter$ = -336					; size = 4
_pOutPin$ = -332					; size = 4
_pGraphBuilder$ = -328					; size = 4
_pInPin$ = -324						; size = 4
_pEnumPins$ = -320					; size = 4
_pinInfo$2 = -316					; size = 264
_clsidAudioCodec$GSCopy$ = -52				; size = 16
_clsidSplitter$GSCopy$ = -36				; size = 16
_clsidVideoCodec$GSCopy$ = -20				; size = 16
__$ArrayPad$ = -4					; size = 4
_wpFilename$ = 8					; size = 4
_pAMStream$ = 12					; size = 4
_clsidSplitter$ = 16					; size = 16
_clsidVideoCodec$ = 32					; size = 16
_clsidAudioCodec$ = 48					; size = 16
?BuildFilterGraphManually@CMovieMan@@AAEJPA_WPAUIAMMultiMediaStream@@U_GUID@@22@Z PROC ; CMovieMan::BuildFilterGraphManually, COMDAT
; _this$ = ecx

; 520  : {

  00000	55		 push	 ebp
  00001	8b ec		 mov	 ebp, esp
  00003	81 ec 68 01 00
	00		 sub	 esp, 360		; 00000168H
  00009	a1 00 00 00 00	 mov	 eax, DWORD PTR ___security_cookie
  0000e	33 c5		 xor	 eax, ebp
  00010	89 45 fc	 mov	 DWORD PTR __$ArrayPad$[ebp], eax
  00013	0f 10 45 10	 movups	 xmm0, XMMWORD PTR _clsidSplitter$[ebp]
  00017	8b 55 0c	 mov	 edx, DWORD PTR _pAMStream$[ebp]
  0001a	8b 45 08	 mov	 eax, DWORD PTR _wpFilename$[ebp]
  0001d	53		 push	 ebx
  0001e	0f 11 45 dc	 movups	 XMMWORD PTR _clsidSplitter$GSCopy$[ebp], xmm0
  00022	56		 push	 esi
  00023	0f 10 45 20	 movups	 xmm0, XMMWORD PTR _clsidVideoCodec$[ebp]
  00027	57		 push	 edi
  00028	8b d9		 mov	 ebx, ecx
  0002a	89 85 98 fe ff
	ff		 mov	 DWORD PTR _wpFilename$GSCopy$1$[ebp], eax

; 521  : 	IGraphBuilder* pGraphBuilder = NULL;
; 522  : 	pAMStream->GetFilterGraph(&pGraphBuilder);

  00030	8b 02		 mov	 eax, DWORD PTR [edx]
  00032	8d 8d b8 fe ff
	ff		 lea	 ecx, DWORD PTR _pGraphBuilder$[ebp]
  00038	0f 11 45 ec	 movups	 XMMWORD PTR _clsidVideoCodec$GSCopy$[ebp], xmm0
  0003c	51		 push	 ecx
  0003d	0f 10 45 30	 movups	 xmm0, XMMWORD PTR _clsidAudioCodec$[ebp]
  00041	52		 push	 edx
  00042	c7 85 b8 fe ff
	ff 00 00 00 00	 mov	 DWORD PTR _pGraphBuilder$[ebp], 0
  0004c	0f 11 45 cc	 movups	 XMMWORD PTR _clsidAudioCodec$GSCopy$[ebp], xmm0
  00050	ff 50 34	 call	 DWORD PTR [eax+52]

; 523  : 
; 524  : 	assert(pGraphBuilder);
; 525  : 
; 526  : //#ifdef _DEBUG
; 527  : //	DWORD dwRegister;
; 528  : //	AddToRot(pGraphBuilder, &dwRegister);
; 529  : //#endif
; 530  : 
; 531  : 	IBaseFilter *pSourceFilter = NULL;
; 532  : 	IBaseFilter *pSplitterFilter = NULL;
; 533  : 	IBaseFilter *pVideoFilter = NULL;
; 534  : 	IBaseFilter *pAudioFilter = NULL;
; 535  : 
; 536  : 	CoCreateInstance(clsidSplitter, NULL, CLSCTX_INPROC_SERVER, IID_IBaseFilter, (void **) &pSplitterFilter);

  00053	8b 3d 00 00 00
	00		 mov	 edi, DWORD PTR __imp__CoCreateInstance@20
  00059	8d 85 ac fe ff
	ff		 lea	 eax, DWORD PTR _pSplitterFilter$[ebp]
  0005f	50		 push	 eax
  00060	68 00 00 00 00	 push	 OFFSET _IID_IBaseFilter
  00065	6a 01		 push	 1
  00067	6a 00		 push	 0
  00069	8d 45 dc	 lea	 eax, DWORD PTR _clsidSplitter$GSCopy$[ebp]
  0006c	c7 85 a0 fe ff
	ff 00 00 00 00	 mov	 DWORD PTR _pSourceFilter$[ebp], 0
  00076	50		 push	 eax
  00077	c7 85 ac fe ff
	ff 00 00 00 00	 mov	 DWORD PTR _pSplitterFilter$[ebp], 0
  00081	c7 85 b0 fe ff
	ff 00 00 00 00	 mov	 DWORD PTR _pVideoFilter$[ebp], 0
  0008b	c7 85 a4 fe ff
	ff 00 00 00 00	 mov	 DWORD PTR _pAudioFilter$[ebp], 0
  00095	ff d7		 call	 edi

; 537  : 	CoCreateInstance(clsidVideoCodec, NULL, CLSCTX_INPROC_SERVER, IID_IBaseFilter, (void **) &pVideoFilter);

  00097	8d 85 b0 fe ff
	ff		 lea	 eax, DWORD PTR _pVideoFilter$[ebp]
  0009d	50		 push	 eax
  0009e	68 00 00 00 00	 push	 OFFSET _IID_IBaseFilter
  000a3	6a 01		 push	 1
  000a5	6a 00		 push	 0
  000a7	8d 45 ec	 lea	 eax, DWORD PTR _clsidVideoCodec$GSCopy$[ebp]
  000aa	50		 push	 eax
  000ab	ff d7		 call	 edi

; 538  : 	CoCreateInstance(clsidAudioCodec, NULL, CLSCTX_INPROC_SERVER, IID_IBaseFilter, (void **) &pAudioFilter);

  000ad	8d 85 a4 fe ff
	ff		 lea	 eax, DWORD PTR _pAudioFilter$[ebp]
  000b3	50		 push	 eax
  000b4	68 00 00 00 00	 push	 OFFSET _IID_IBaseFilter
  000b9	6a 01		 push	 1
  000bb	6a 00		 push	 0
  000bd	8d 45 cc	 lea	 eax, DWORD PTR _clsidAudioCodec$GSCopy$[ebp]
  000c0	50		 push	 eax
  000c1	ff d7		 call	 edi

; 539  : 
; 540  : 	//  MP43   DMO   
; 541  : 	// MONSTER  (   )
; 542  : 	if (!pVideoFilter && IsEqualGUID(clsidVideoCodec, CLSID_MP4VideoCodec))

  000c3	83 bd b0 fe ff
	ff 00		 cmp	 DWORD PTR _pVideoFilter$[ebp], 0
  000ca	75 7d		 jne	 SHORT $LN6@BuildFilte
; File C:\Program Files (x86)\Windows Kits\10\Include\10.0.18362.0\shared\guiddef.h

; 161  :     return !memcmp(&rguid1, &rguid2, sizeof(GUID));

  000cc	8d 4d ec	 lea	 ecx, DWORD PTR _clsidVideoCodec$GSCopy$[ebp]
  000cf	ba 00 00 00 00	 mov	 edx, OFFSET ?CLSID_MP4VideoCodec@@3U_GUID@@B
  000d4	be 0c 00 00 00	 mov	 esi, 12			; 0000000cH
  000d9	0f 1f 80 00 00
	00 00		 npad	 7
$LL23@BuildFilte:
  000e0	8b 01		 mov	 eax, DWORD PTR [ecx]
  000e2	3b 02		 cmp	 eax, DWORD PTR [edx]
  000e4	75 63		 jne	 SHORT $LN6@BuildFilte
  000e6	83 c1 04	 add	 ecx, 4
  000e9	83 c2 04	 add	 edx, 4
  000ec	83 ee 04	 sub	 esi, 4
  000ef	73 ef		 jae	 SHORT $LL23@BuildFilte
; File D:\Metin2 Server Files\mainline\SRC_2014\Metin2Client\UserInterface\MovieMan.cpp

; 545  : 		HRESULT hr = CoCreateInstance(CLSID_DMOWrapperFilter, NULL, CLSCTX_INPROC, IID_IBaseFilter, (void **)&pVideoFilter);

  000f1	8d 85 b0 fe ff
	ff		 lea	 eax, DWORD PTR _pVideoFilter$[ebp]
  000f7	50		 push	 eax
  000f8	68 00 00 00 00	 push	 OFFSET _IID_IBaseFilter
  000fd	6a 03		 push	 3
  000ff	6a 00		 push	 0
  00101	68 00 00 00 00	 push	 OFFSET _CLSID_DMOWrapperFilter
  00106	ff d7		 call	 edi

; 546  : 		if (SUCCEEDED(hr)) 

  00108	85 c0		 test	 eax, eax
  0010a	78 3d		 js	 SHORT $LN6@BuildFilte

; 547  : 		{
; 548  : 			IDMOWrapperFilter *pWrap;
; 549  : 			hr = pVideoFilter->QueryInterface(IID_IDMOWrapperFilter, (void **)&pWrap);

  0010c	8b 85 b0 fe ff
	ff		 mov	 eax, DWORD PTR _pVideoFilter$[ebp]
  00112	8d 95 9c fe ff
	ff		 lea	 edx, DWORD PTR _pWrap$1[ebp]
  00118	52		 push	 edx
  00119	68 00 00 00 00	 push	 OFFSET _IID_IDMOWrapperFilter
  0011e	50		 push	 eax
  0011f	8b 08		 mov	 ecx, DWORD PTR [eax]
  00121	ff 11		 call	 DWORD PTR [ecx]

; 550  : 			if (SUCCEEDED(hr))

  00123	85 c0		 test	 eax, eax
  00125	78 22		 js	 SHORT $LN6@BuildFilte

; 551  : 			{
; 552  : 				hr = pWrap->Init(CLSID_MP43DMOCodec, DMOCATEGORY_VIDEO_DECODER);

  00127	8b 85 9c fe ff
	ff		 mov	 eax, DWORD PTR _pWrap$1[ebp]
  0012d	68 00 00 00 00	 push	 OFFSET _DMOCATEGORY_VIDEO_DECODER
  00132	68 00 00 00 00	 push	 OFFSET ?CLSID_MP43DMOCodec@@3U_GUID@@B
  00137	50		 push	 eax
  00138	8b 08		 mov	 ecx, DWORD PTR [eax]
  0013a	ff 51 0c	 call	 DWORD PTR [ecx+12]

; 553  : 				pWrap->Release();

  0013d	8b 85 9c fe ff
	ff		 mov	 eax, DWORD PTR _pWrap$1[ebp]
  00143	50		 push	 eax
  00144	8b 08		 mov	 ecx, DWORD PTR [eax]
  00146	ff 51 08	 call	 DWORD PTR [ecx+8]
$LN6@BuildFilte:

; 554  : 			}
; 555  : 		}
; 556  : 	}
; 557  : 
; 558  : 	pGraphBuilder->AddSourceFilter(wpFilename, L"Source Filter", &pSourceFilter);

  00149	8b 85 b8 fe ff
	ff		 mov	 eax, DWORD PTR _pGraphBuilder$[ebp]
  0014f	8d 95 a0 fe ff
	ff		 lea	 edx, DWORD PTR _pSourceFilter$[ebp]
  00155	52		 push	 edx
  00156	68 00 00 00 00	 push	 OFFSET ??_C@_1BM@KFENCCEP@?$AAS?$AAo?$AAu?$AAr?$AAc?$AAe?$AA?5?$AAF?$AAi?$AAl?$AAt?$AAe?$AAr@
  0015b	ff b5 98 fe ff
	ff		 push	 DWORD PTR _wpFilename$GSCopy$1$[ebp]
  00161	8b 08		 mov	 ecx, DWORD PTR [eax]
  00163	50		 push	 eax
  00164	ff 51 38	 call	 DWORD PTR [ecx+56]

; 559  : 	pGraphBuilder->AddFilter(pSplitterFilter, L"Splitter");

  00167	8b 85 b8 fe ff
	ff		 mov	 eax, DWORD PTR _pGraphBuilder$[ebp]
  0016d	68 00 00 00 00	 push	 OFFSET ??_C@_1BC@GEEOHGFK@?$AAS?$AAp?$AAl?$AAi?$AAt?$AAt?$AAe?$AAr@
  00172	ff b5 ac fe ff
	ff		 push	 DWORD PTR _pSplitterFilter$[ebp]
  00178	8b 08		 mov	 ecx, DWORD PTR [eax]
  0017a	50		 push	 eax
  0017b	ff 51 0c	 call	 DWORD PTR [ecx+12]

; 560  : 	pGraphBuilder->AddFilter(pVideoFilter, L"Video Decoder");

  0017e	8b 85 b8 fe ff
	ff		 mov	 eax, DWORD PTR _pGraphBuilder$[ebp]
  00184	68 00 00 00 00	 push	 OFFSET ??_C@_1BM@DBOEKKK@?$AAV?$AAi?$AAd?$AAe?$AAo?$AA?5?$AAD?$AAe?$AAc?$AAo?$AAd?$AAe?$AAr@
  00189	ff b5 b0 fe ff
	ff		 push	 DWORD PTR _pVideoFilter$[ebp]
  0018f	8b 08		 mov	 ecx, DWORD PTR [eax]
  00191	50		 push	 eax
  00192	ff 51 0c	 call	 DWORD PTR [ecx+12]

; 561  : 	pGraphBuilder->AddFilter(pAudioFilter, L"Audio Decoder");

  00195	8b 85 b8 fe ff
	ff		 mov	 eax, DWORD PTR _pGraphBuilder$[ebp]
  0019b	68 00 00 00 00	 push	 OFFSET ??_C@_1BM@CMEFDNDD@?$AAA?$AAu?$AAd?$AAi?$AAo?$AA?5?$AAD?$AAe?$AAc?$AAo?$AAd?$AAe?$AAr@
  001a0	ff b5 a4 fe ff
	ff		 push	 DWORD PTR _pAudioFilter$[ebp]
  001a6	8b 08		 mov	 ecx, DWORD PTR [eax]
  001a8	50		 push	 eax
  001a9	ff 51 0c	 call	 DWORD PTR [ecx+12]

; 562  : 
; 563  : 	assert(m_pBasicAudio == NULL);
; 564  : 	pGraphBuilder->QueryInterface(IID_IBasicAudio, (void**) &m_pBasicAudio);

  001ac	8b 8d b8 fe ff
	ff		 mov	 ecx, DWORD PTR _pGraphBuilder$[ebp]
  001b2	8d 43 24	 lea	 eax, DWORD PTR [ebx+36]
  001b5	50		 push	 eax
  001b6	68 00 00 00 00	 push	 OFFSET _IID_IBasicAudio
  001bb	51		 push	 ecx
  001bc	8b 11		 mov	 edx, DWORD PTR [ecx]
  001be	ff 12		 call	 DWORD PTR [edx]

; 565  : 
; 566  : 	// Connect "Source" -> "Splitter"
; 567  : 	IPin *pInPin = NULL;
; 568  : 	IPin *pOutPin = NULL;
; 569  : 	IPin *pSplitterVideoOutPin = NULL;
; 570  : 	IPin *pSplitterAudioOutPin = NULL;
; 571  : 	IEnumPins *pEnumPins = NULL;
; 572  : 	pSourceFilter->EnumPins(&pEnumPins);

  001c0	8b 85 a0 fe ff
	ff		 mov	 eax, DWORD PTR _pSourceFilter$[ebp]
  001c6	8d 95 c0 fe ff
	ff		 lea	 edx, DWORD PTR _pEnumPins$[ebp]
  001cc	33 f6		 xor	 esi, esi
  001ce	c7 85 bc fe ff
	ff 00 00 00 00	 mov	 DWORD PTR _pInPin$[ebp], 0
  001d8	c7 85 b4 fe ff
	ff 00 00 00 00	 mov	 DWORD PTR _pOutPin$[ebp], 0
  001e2	89 b5 a8 fe ff
	ff		 mov	 DWORD PTR _pSplitterAudioOutPin$[ebp], esi
  001e8	89 b5 c0 fe ff
	ff		 mov	 DWORD PTR _pEnumPins$[ebp], esi
  001ee	8b 08		 mov	 ecx, DWORD PTR [eax]
  001f0	52		 push	 edx
  001f1	50		 push	 eax
  001f2	ff 51 28	 call	 DWORD PTR [ecx+40]

; 573  : 	pEnumPins->Next(1, &pOutPin, NULL);

  001f5	8b 85 c0 fe ff
	ff		 mov	 eax, DWORD PTR _pEnumPins$[ebp]
  001fb	8d 95 b4 fe ff
	ff		 lea	 edx, DWORD PTR _pOutPin$[ebp]
  00201	56		 push	 esi
  00202	52		 push	 edx
  00203	6a 01		 push	 1
  00205	8b 08		 mov	 ecx, DWORD PTR [eax]
  00207	50		 push	 eax
  00208	ff 51 0c	 call	 DWORD PTR [ecx+12]

; 574  : 	pEnumPins->Release();

  0020b	8b 85 c0 fe ff
	ff		 mov	 eax, DWORD PTR _pEnumPins$[ebp]
  00211	50		 push	 eax
  00212	8b 08		 mov	 ecx, DWORD PTR [eax]
  00214	ff 51 08	 call	 DWORD PTR [ecx+8]

; 575  : 	pSplitterFilter->EnumPins(&pEnumPins);

  00217	8b 85 ac fe ff
	ff		 mov	 eax, DWORD PTR _pSplitterFilter$[ebp]
  0021d	8d 95 c0 fe ff
	ff		 lea	 edx, DWORD PTR _pEnumPins$[ebp]
  00223	52		 push	 edx
  00224	50		 push	 eax
  00225	8b 08		 mov	 ecx, DWORD PTR [eax]
  00227	ff 51 28	 call	 DWORD PTR [ecx+40]

; 576  : 	pEnumPins->Next(1, &pInPin, NULL);

  0022a	8b 85 c0 fe ff
	ff		 mov	 eax, DWORD PTR _pEnumPins$[ebp]
  00230	8d 95 bc fe ff
	ff		 lea	 edx, DWORD PTR _pInPin$[ebp]
  00236	56		 push	 esi
  00237	52		 push	 edx
  00238	6a 01		 push	 1
  0023a	8b 08		 mov	 ecx, DWORD PTR [eax]
  0023c	50		 push	 eax
  0023d	ff 51 0c	 call	 DWORD PTR [ecx+12]

; 577  : 	pEnumPins->Release();

  00240	8b 85 c0 fe ff
	ff		 mov	 eax, DWORD PTR _pEnumPins$[ebp]
  00246	50		 push	 eax
  00247	8b 08		 mov	 ecx, DWORD PTR [eax]
  00249	ff 51 08	 call	 DWORD PTR [ecx+8]

; 578  : 	HRESULT hr = pGraphBuilder->Connect(pOutPin, pInPin);

  0024c	8b 85 b8 fe ff
	ff		 mov	 eax, DWORD PTR _pGraphBuilder$[ebp]
  00252	ff b5 bc fe ff
	ff		 push	 DWORD PTR _pInPin$[ebp]
  00258	ff b5 b4 fe ff
	ff		 push	 DWORD PTR _pOutPin$[ebp]
  0025e	8b 08		 mov	 ecx, DWORD PTR [eax]
  00260	50		 push	 eax
  00261	ff 51 2c	 call	 DWORD PTR [ecx+44]
  00264	8b f8		 mov	 edi, eax

; 579  : 	pInPin->Release();

  00266	8b 8d bc fe ff
	ff		 mov	 ecx, DWORD PTR _pInPin$[ebp]
  0026c	51		 push	 ecx
  0026d	8b 11		 mov	 edx, DWORD PTR [ecx]
  0026f	ff 52 08	 call	 DWORD PTR [edx+8]

; 580  : 	pOutPin->Release();

  00272	8b 8d b4 fe ff
	ff		 mov	 ecx, DWORD PTR _pOutPin$[ebp]
  00278	51		 push	 ecx
  00279	8b 11		 mov	 edx, DWORD PTR [ecx]
  0027b	ff 52 08	 call	 DWORD PTR [edx+8]

; 581  : 	if (SUCCEEDED(hr))

  0027e	85 ff		 test	 edi, edi
  00280	0f 88 eb 01 00
	00		 js	 $LN25@BuildFilte

; 582  : 	{
; 583  : 		//  Output  
; 584  : 		pSplitterFilter->EnumPins(&pEnumPins);

  00286	8b 85 ac fe ff
	ff		 mov	 eax, DWORD PTR _pSplitterFilter$[ebp]
  0028c	8d 95 c0 fe ff
	ff		 lea	 edx, DWORD PTR _pEnumPins$[ebp]
  00292	52		 push	 edx
  00293	50		 push	 eax
  00294	8b 08		 mov	 ecx, DWORD PTR [eax]
  00296	ff 51 28	 call	 DWORD PTR [ecx+40]

; 585  : 		PIN_INFO pinInfo;
; 586  : 		while( SUCCEEDED(pEnumPins->Next(1, &pInPin, NULL)) )

  00299	8b 85 c0 fe ff
	ff		 mov	 eax, DWORD PTR _pEnumPins$[ebp]
  0029f	8d 95 bc fe ff
	ff		 lea	 edx, DWORD PTR _pInPin$[ebp]
  002a5	56		 push	 esi
  002a6	52		 push	 edx
  002a7	6a 01		 push	 1
  002a9	8b 08		 mov	 ecx, DWORD PTR [eax]
  002ab	50		 push	 eax
  002ac	ff 51 0c	 call	 DWORD PTR [ecx+12]
  002af	85 c0		 test	 eax, eax
  002b1	78 6e		 js	 SHORT $LN3@BuildFilte
$LL2@BuildFilte:

; 587  : 		{
; 588  : 			pInPin->QueryPinInfo(&pinInfo);

  002b3	8b 85 bc fe ff
	ff		 mov	 eax, DWORD PTR _pInPin$[ebp]
  002b9	8d 95 c4 fe ff
	ff		 lea	 edx, DWORD PTR _pinInfo$2[ebp]
  002bf	52		 push	 edx
  002c0	50		 push	 eax
  002c1	8b 08		 mov	 ecx, DWORD PTR [eax]
  002c3	ff 51 20	 call	 DWORD PTR [ecx+32]

; 589  : 			pinInfo.pFilter->Release();

  002c6	8b 85 c4 fe ff
	ff		 mov	 eax, DWORD PTR _pinInfo$2[ebp]
  002cc	50		 push	 eax
  002cd	8b 08		 mov	 ecx, DWORD PTR [eax]
  002cf	ff 51 08	 call	 DWORD PTR [ecx+8]

; 590  : 			if (pinInfo.dir == PINDIR_OUTPUT)

  002d2	83 bd c8 fe ff
	ff 01		 cmp	 DWORD PTR _pinInfo$2[ebp+4], 1
  002d9	74 29		 je	 SHORT $LN18@BuildFilte

; 595  : 				break;
; 596  : 			}
; 597  : 			pInPin->Release();

  002db	8b 85 bc fe ff
	ff		 mov	 eax, DWORD PTR _pInPin$[ebp]
  002e1	50		 push	 eax
  002e2	8b 08		 mov	 ecx, DWORD PTR [eax]
  002e4	ff 51 08	 call	 DWORD PTR [ecx+8]
  002e7	8b 85 c0 fe ff
	ff		 mov	 eax, DWORD PTR _pEnumPins$[ebp]
  002ed	8d 95 bc fe ff
	ff		 lea	 edx, DWORD PTR _pInPin$[ebp]
  002f3	6a 00		 push	 0
  002f5	52		 push	 edx
  002f6	6a 01		 push	 1
  002f8	8b 08		 mov	 ecx, DWORD PTR [eax]
  002fa	50		 push	 eax
  002fb	ff 51 0c	 call	 DWORD PTR [ecx+12]
  002fe	85 c0		 test	 eax, eax
  00300	79 b1		 jns	 SHORT $LL2@BuildFilte

; 590  : 			if (pinInfo.dir == PINDIR_OUTPUT)

  00302	eb 1d		 jmp	 SHORT $LN3@BuildFilte
$LN18@BuildFilte:

; 591  : 			{
; 592  : 				// Pin  - 
; 593  : 				pSplitterVideoOutPin = pInPin;
; 594  : 				pEnumPins->Next(1, &pSplitterAudioOutPin, NULL);

  00304	8b 85 c0 fe ff
	ff		 mov	 eax, DWORD PTR _pEnumPins$[ebp]
  0030a	8d 95 a8 fe ff
	ff		 lea	 edx, DWORD PTR _pSplitterAudioOutPin$[ebp]
  00310	8b b5 bc fe ff
	ff		 mov	 esi, DWORD PTR _pInPin$[ebp]
  00316	6a 00		 push	 0
  00318	52		 push	 edx
  00319	8b 08		 mov	 ecx, DWORD PTR [eax]
  0031b	6a 01		 push	 1
  0031d	50		 push	 eax
  0031e	ff 51 0c	 call	 DWORD PTR [ecx+12]
$LN3@BuildFilte:

; 598  : 		}
; 599  : 		pEnumPins->Release();

  00321	8b 85 c0 fe ff
	ff		 mov	 eax, DWORD PTR _pEnumPins$[ebp]
  00327	50		 push	 eax
  00328	8b 08		 mov	 ecx, DWORD PTR [eax]
  0032a	ff 51 08	 call	 DWORD PTR [ecx+8]

; 600  : 
; 601  : 		// Splitter -> Video/Audio codecs
; 602  : 		pVideoFilter->EnumPins(&pEnumPins);

  0032d	8b 85 b0 fe ff
	ff		 mov	 eax, DWORD PTR _pVideoFilter$[ebp]
  00333	8d 95 c0 fe ff
	ff		 lea	 edx, DWORD PTR _pEnumPins$[ebp]
  00339	52		 push	 edx
  0033a	50		 push	 eax
  0033b	8b 08		 mov	 ecx, DWORD PTR [eax]
  0033d	ff 51 28	 call	 DWORD PTR [ecx+40]

; 603  : 		pEnumPins->Next(1, &pInPin, NULL);

  00340	8b 85 c0 fe ff
	ff		 mov	 eax, DWORD PTR _pEnumPins$[ebp]
  00346	8d 95 bc fe ff
	ff		 lea	 edx, DWORD PTR _pInPin$[ebp]
  0034c	6a 00		 push	 0
  0034e	52		 push	 edx
  0034f	6a 01		 push	 1
  00351	8b 08		 mov	 ecx, DWORD PTR [eax]
  00353	50		 push	 eax
  00354	ff 51 0c	 call	 DWORD PTR [ecx+12]

; 604  : 		pEnumPins->Next(1, &pOutPin, NULL);

  00357	8b 85 c0 fe ff
	ff		 mov	 eax, DWORD PTR _pEnumPins$[ebp]
  0035d	8d 95 b4 fe ff
	ff		 lea	 edx, DWORD PTR _pOutPin$[ebp]
  00363	6a 00		 push	 0
  00365	52		 push	 edx
  00366	6a 01		 push	 1
  00368	8b 08		 mov	 ecx, DWORD PTR [eax]
  0036a	50		 push	 eax
  0036b	ff 51 0c	 call	 DWORD PTR [ecx+12]

; 605  : 		pEnumPins->Release();

  0036e	8b 85 c0 fe ff
	ff		 mov	 eax, DWORD PTR _pEnumPins$[ebp]
  00374	50		 push	 eax
  00375	8b 08		 mov	 ecx, DWORD PTR [eax]
  00377	ff 51 08	 call	 DWORD PTR [ecx+8]

; 606  : 		hr = pGraphBuilder->Connect(pSplitterVideoOutPin, pInPin);

  0037a	8b 85 b8 fe ff
	ff		 mov	 eax, DWORD PTR _pGraphBuilder$[ebp]
  00380	ff b5 bc fe ff
	ff		 push	 DWORD PTR _pInPin$[ebp]
  00386	56		 push	 esi
  00387	8b 08		 mov	 ecx, DWORD PTR [eax]
  00389	50		 push	 eax
  0038a	ff 51 2c	 call	 DWORD PTR [ecx+44]
  0038d	8b f8		 mov	 edi, eax

; 607  : 		if (SUCCEEDED(hr))

  0038f	85 ff		 test	 edi, edi
  00391	0f 88 d0 00 00
	00		 js	 $LN24@BuildFilte

; 608  : 		{
; 609  : 			//  
; 610  : 			hr = pGraphBuilder->Render(pOutPin);

  00397	8b 85 b8 fe ff
	ff		 mov	 eax, DWORD PTR _pGraphBuilder$[ebp]
  0039d	ff b5 b4 fe ff
	ff		 push	 DWORD PTR _pOutPin$[ebp]
  003a3	50		 push	 eax
  003a4	8b 08		 mov	 ecx, DWORD PTR [eax]
  003a6	ff 51 30	 call	 DWORD PTR [ecx+48]
  003a9	8b f8		 mov	 edi, eax

; 611  : 			pInPin->Release();

  003ab	8b 85 bc fe ff
	ff		 mov	 eax, DWORD PTR _pInPin$[ebp]
  003b1	50		 push	 eax
  003b2	8b 08		 mov	 ecx, DWORD PTR [eax]
  003b4	ff 51 08	 call	 DWORD PTR [ecx+8]

; 612  : 			pOutPin->Release();

  003b7	8b 85 b4 fe ff
	ff		 mov	 eax, DWORD PTR _pOutPin$[ebp]
  003bd	50		 push	 eax
  003be	8b 08		 mov	 ecx, DWORD PTR [eax]
  003c0	ff 51 08	 call	 DWORD PTR [ecx+8]

; 613  : 
; 614  : 			//      
; 615  : 			if (pSplitterAudioOutPin && pAudioFilter)

  003c3	83 bd a8 fe ff
	ff 00		 cmp	 DWORD PTR _pSplitterAudioOutPin$[ebp], 0
  003ca	0f 84 97 00 00
	00		 je	 $LN24@BuildFilte
  003d0	8b 8d a4 fe ff
	ff		 mov	 ecx, DWORD PTR _pAudioFilter$[ebp]
  003d6	85 c9		 test	 ecx, ecx
  003d8	0f 84 89 00 00
	00		 je	 $LN24@BuildFilte

; 616  : 			{
; 617  : 				pAudioFilter->EnumPins(&pEnumPins);

  003de	8b 01		 mov	 eax, DWORD PTR [ecx]
  003e0	8d 95 c0 fe ff
	ff		 lea	 edx, DWORD PTR _pEnumPins$[ebp]
  003e6	52		 push	 edx
  003e7	51		 push	 ecx
  003e8	ff 50 28	 call	 DWORD PTR [eax+40]

; 618  : 				pEnumPins->Next(1, &pInPin, NULL);

  003eb	8b 85 c0 fe ff
	ff		 mov	 eax, DWORD PTR _pEnumPins$[ebp]
  003f1	8d 95 bc fe ff
	ff		 lea	 edx, DWORD PTR _pInPin$[ebp]
  003f7	6a 00		 push	 0
  003f9	52		 push	 edx
  003fa	6a 01		 push	 1
  003fc	8b 08		 mov	 ecx, DWORD PTR [eax]
  003fe	50		 push	 eax
  003ff	ff 51 0c	 call	 DWORD PTR [ecx+12]

; 619  : 				pEnumPins->Next(1, &pOutPin, NULL);

  00402	8b 85 c0 fe ff
	ff		 mov	 eax, DWORD PTR _pEnumPins$[ebp]
  00408	8d 95 b4 fe ff
	ff		 lea	 edx, DWORD PTR _pOutPin$[ebp]
  0040e	6a 00		 push	 0
  00410	52		 push	 edx
  00411	6a 01		 push	 1
  00413	8b 08		 mov	 ecx, DWORD PTR [eax]
  00415	50		 push	 eax
  00416	ff 51 0c	 call	 DWORD PTR [ecx+12]

; 620  : 				pEnumPins->Release();

  00419	8b 85 c0 fe ff
	ff		 mov	 eax, DWORD PTR _pEnumPins$[ebp]
  0041f	50		 push	 eax
  00420	8b 08		 mov	 ecx, DWORD PTR [eax]
  00422	ff 51 08	 call	 DWORD PTR [ecx+8]

; 621  : 				pGraphBuilder->Connect(pSplitterAudioOutPin, pInPin);

  00425	8b 85 b8 fe ff
	ff		 mov	 eax, DWORD PTR _pGraphBuilder$[ebp]
  0042b	ff b5 bc fe ff
	ff		 push	 DWORD PTR _pInPin$[ebp]
  00431	ff b5 a8 fe ff
	ff		 push	 DWORD PTR _pSplitterAudioOutPin$[ebp]
  00437	8b 08		 mov	 ecx, DWORD PTR [eax]
  00439	50		 push	 eax
  0043a	ff 51 2c	 call	 DWORD PTR [ecx+44]

; 622  : 				//      
; 623  : 				pGraphBuilder->Render(pOutPin);

  0043d	8b 85 b8 fe ff
	ff		 mov	 eax, DWORD PTR _pGraphBuilder$[ebp]
  00443	ff b5 b4 fe ff
	ff		 push	 DWORD PTR _pOutPin$[ebp]
  00449	50		 push	 eax
  0044a	8b 08		 mov	 ecx, DWORD PTR [eax]
  0044c	ff 51 30	 call	 DWORD PTR [ecx+48]

; 624  : 				pInPin->Release();

  0044f	8b 85 bc fe ff
	ff		 mov	 eax, DWORD PTR _pInPin$[ebp]
  00455	50		 push	 eax
  00456	8b 08		 mov	 ecx, DWORD PTR [eax]
  00458	ff 51 08	 call	 DWORD PTR [ecx+8]

; 625  : 				pOutPin->Release();

  0045b	8b 85 b4 fe ff
	ff		 mov	 eax, DWORD PTR _pOutPin$[ebp]
  00461	50		 push	 eax
  00462	8b 08		 mov	 ecx, DWORD PTR [eax]
  00464	ff 51 08	 call	 DWORD PTR [ecx+8]
$LN24@BuildFilte:

; 626  : 			}
; 627  : 		}
; 628  : 	}
; 629  : 
; 630  : 	// 
; 631  : //#ifdef _DEBUG
; 632  : //	RemoveFromRot(dwRegister);
; 633  : //#endif
; 634  : 
; 635  : 	if (pSplitterVideoOutPin)

  00467	85 f6		 test	 esi, esi
  00469	74 06		 je	 SHORT $LN25@BuildFilte

; 636  : 	{
; 637  : 		pSplitterVideoOutPin->Release();

  0046b	8b 06		 mov	 eax, DWORD PTR [esi]
  0046d	56		 push	 esi
  0046e	ff 50 08	 call	 DWORD PTR [eax+8]
$LN25@BuildFilte:

; 638  : 	}
; 639  : 	if (pSplitterAudioOutPin)

  00471	8b 8d a8 fe ff
	ff		 mov	 ecx, DWORD PTR _pSplitterAudioOutPin$[ebp]
  00477	85 c9		 test	 ecx, ecx
  00479	74 06		 je	 SHORT $LN12@BuildFilte

; 640  : 	{
; 641  : 		pSplitterAudioOutPin->Release();

  0047b	8b 01		 mov	 eax, DWORD PTR [ecx]
  0047d	51		 push	 ecx
  0047e	ff 50 08	 call	 DWORD PTR [eax+8]
$LN12@BuildFilte:

; 642  : 	}
; 643  : 	pVideoFilter->Release();

  00481	8b 85 b0 fe ff
	ff		 mov	 eax, DWORD PTR _pVideoFilter$[ebp]
  00487	50		 push	 eax
  00488	8b 08		 mov	 ecx, DWORD PTR [eax]
  0048a	ff 51 08	 call	 DWORD PTR [ecx+8]

; 644  : 	if (pAudioFilter)

  0048d	8b 8d a4 fe ff
	ff		 mov	 ecx, DWORD PTR _pAudioFilter$[ebp]
  00493	85 c9		 test	 ecx, ecx
  00495	74 06		 je	 SHORT $LN13@BuildFilte

; 645  : 	{
; 646  : 		pAudioFilter->Release();

  00497	8b 01		 mov	 eax, DWORD PTR [ecx]
  00499	51		 push	 ecx
  0049a	ff 50 08	 call	 DWORD PTR [eax+8]
$LN13@BuildFilte:

; 647  : 	}
; 648  : 	pSplitterFilter->Release();

  0049d	8b 85 ac fe ff
	ff		 mov	 eax, DWORD PTR _pSplitterFilter$[ebp]
  004a3	50		 push	 eax
  004a4	8b 08		 mov	 ecx, DWORD PTR [eax]
  004a6	ff 51 08	 call	 DWORD PTR [ecx+8]

; 649  : 	pSourceFilter->Release();

  004a9	8b 85 a0 fe ff
	ff		 mov	 eax, DWORD PTR _pSourceFilter$[ebp]
  004af	50		 push	 eax
  004b0	8b 08		 mov	 ecx, DWORD PTR [eax]
  004b2	ff 51 08	 call	 DWORD PTR [ecx+8]

; 650  : 	pGraphBuilder->Release();

  004b5	8b 85 b8 fe ff
	ff		 mov	 eax, DWORD PTR _pGraphBuilder$[ebp]
  004bb	50		 push	 eax
  004bc	8b 08		 mov	 ecx, DWORD PTR [eax]
  004be	ff 51 08	 call	 DWORD PTR [ecx+8]

; 651  : 	
; 652  : 	return hr;
; 653  : }

  004c1	8b 4d fc	 mov	 ecx, DWORD PTR __$ArrayPad$[ebp]
  004c4	8b c7		 mov	 eax, edi
  004c6	5f		 pop	 edi
  004c7	5e		 pop	 esi
  004c8	33 cd		 xor	 ecx, ebp
  004ca	5b		 pop	 ebx
  004cb	e8 00 00 00 00	 call	 @__security_check_cookie@4
  004d0	8b e5		 mov	 esp, ebp
  004d2	5d		 pop	 ebp
  004d3	c2 38 00	 ret	 56			; 00000038H
?BuildFilterGraphManually@CMovieMan@@AAEJPA_WPAUIAMMultiMediaStream@@U_GUID@@22@Z ENDP ; CMovieMan::BuildFilterGraphManually
_TEXT	ENDS
; Function compile flags: /Ogtp
