; Listing generated by Microsoft (R) Optimizing Compiler Version 19.28.29335.0 

	TITLE	D:\Metin2 Server Files\mainline\SRC_2014\Metin2Client\UserInterface\NetworkActorManager.cpp
	.686P
	.XMM
	include listing.inc
	.model	flat

INCLUDELIB LIBCMT
INCLUDELIB OLDNAMES

PUBLIC	??_7?$CDynamicPoolEx@VCTextureAnimationCCWDecorator@NEffectUpdateDecorator@@@@6B@ ; CDynamicPoolEx<NEffectUpdateDecorator::CTextureAnimationCCWDecorator>::`vftable'
PUBLIC	??_G?$CDynamicPoolEx@VCTextureAnimationCCWDecorator@NEffectUpdateDecorator@@@@UAEPAXI@Z ; CDynamicPoolEx<NEffectUpdateDecorator::CTextureAnimationCCWDecorator>::`scalar deleting destructor'
PUBLIC	??_7?$CDynamicPoolEx@VCTextureAnimationCWDecorator@NEffectUpdateDecorator@@@@6B@ ; CDynamicPoolEx<NEffectUpdateDecorator::CTextureAnimationCWDecorator>::`vftable'
PUBLIC	??_G?$CDynamicPoolEx@VCTextureAnimationCWDecorator@NEffectUpdateDecorator@@@@UAEPAXI@Z ; CDynamicPoolEx<NEffectUpdateDecorator::CTextureAnimationCWDecorator>::`scalar deleting destructor'
PUBLIC	??_7?$CDynamicPoolEx@VCNullDecorator@NEffectUpdateDecorator@@@@6B@ ; CDynamicPoolEx<NEffectUpdateDecorator::CNullDecorator>::`vftable'
PUBLIC	??_G?$CDynamicPoolEx@VCNullDecorator@NEffectUpdateDecorator@@@@UAEPAXI@Z ; CDynamicPoolEx<NEffectUpdateDecorator::CNullDecorator>::`scalar deleting destructor'
PUBLIC	??_7?$CDynamicPoolEx@VCHeaderDecorator@NEffectUpdateDecorator@@@@6B@ ; CDynamicPoolEx<NEffectUpdateDecorator::CHeaderDecorator>::`vftable'
PUBLIC	??_G?$CDynamicPoolEx@VCHeaderDecorator@NEffectUpdateDecorator@@@@UAEPAXI@Z ; CDynamicPoolEx<NEffectUpdateDecorator::CHeaderDecorator>::`scalar deleting destructor'
PUBLIC	??_R4?$CDynamicPoolEx@VCHeaderDecorator@NEffectUpdateDecorator@@@@6B@ ; CDynamicPoolEx<NEffectUpdateDecorator::CHeaderDecorator>::`RTTI Complete Object Locator'
PUBLIC	??_R0?AV?$CDynamicPoolEx@VCHeaderDecorator@NEffectUpdateDecorator@@@@@8 ; CDynamicPoolEx<NEffectUpdateDecorator::CHeaderDecorator> `RTTI Type Descriptor'
PUBLIC	??_R3?$CDynamicPoolEx@VCHeaderDecorator@NEffectUpdateDecorator@@@@8 ; CDynamicPoolEx<NEffectUpdateDecorator::CHeaderDecorator>::`RTTI Class Hierarchy Descriptor'
PUBLIC	??_R2?$CDynamicPoolEx@VCHeaderDecorator@NEffectUpdateDecorator@@@@8 ; CDynamicPoolEx<NEffectUpdateDecorator::CHeaderDecorator>::`RTTI Base Class Array'
PUBLIC	??_R1A@?0A@EA@?$CDynamicPoolEx@VCHeaderDecorator@NEffectUpdateDecorator@@@@8 ; CDynamicPoolEx<NEffectUpdateDecorator::CHeaderDecorator>::`RTTI Base Class Descriptor at (0,-1,0,64)'
PUBLIC	??_R4?$CDynamicPoolEx@VCNullDecorator@NEffectUpdateDecorator@@@@6B@ ; CDynamicPoolEx<NEffectUpdateDecorator::CNullDecorator>::`RTTI Complete Object Locator'
PUBLIC	??_R0?AV?$CDynamicPoolEx@VCNullDecorator@NEffectUpdateDecorator@@@@@8 ; CDynamicPoolEx<NEffectUpdateDecorator::CNullDecorator> `RTTI Type Descriptor'
PUBLIC	??_R3?$CDynamicPoolEx@VCNullDecorator@NEffectUpdateDecorator@@@@8 ; CDynamicPoolEx<NEffectUpdateDecorator::CNullDecorator>::`RTTI Class Hierarchy Descriptor'
PUBLIC	??_R2?$CDynamicPoolEx@VCNullDecorator@NEffectUpdateDecorator@@@@8 ; CDynamicPoolEx<NEffectUpdateDecorator::CNullDecorator>::`RTTI Base Class Array'
PUBLIC	??_R1A@?0A@EA@?$CDynamicPoolEx@VCNullDecorator@NEffectUpdateDecorator@@@@8 ; CDynamicPoolEx<NEffectUpdateDecorator::CNullDecorator>::`RTTI Base Class Descriptor at (0,-1,0,64)'
PUBLIC	??_R4?$CDynamicPoolEx@VCTextureAnimationCWDecorator@NEffectUpdateDecorator@@@@6B@ ; CDynamicPoolEx<NEffectUpdateDecorator::CTextureAnimationCWDecorator>::`RTTI Complete Object Locator'
PUBLIC	??_R0?AV?$CDynamicPoolEx@VCTextureAnimationCWDecorator@NEffectUpdateDecorator@@@@@8 ; CDynamicPoolEx<NEffectUpdateDecorator::CTextureAnimationCWDecorator> `RTTI Type Descriptor'
PUBLIC	??_R3?$CDynamicPoolEx@VCTextureAnimationCWDecorator@NEffectUpdateDecorator@@@@8 ; CDynamicPoolEx<NEffectUpdateDecorator::CTextureAnimationCWDecorator>::`RTTI Class Hierarchy Descriptor'
PUBLIC	??_R2?$CDynamicPoolEx@VCTextureAnimationCWDecorator@NEffectUpdateDecorator@@@@8 ; CDynamicPoolEx<NEffectUpdateDecorator::CTextureAnimationCWDecorator>::`RTTI Base Class Array'
PUBLIC	??_R1A@?0A@EA@?$CDynamicPoolEx@VCTextureAnimationCWDecorator@NEffectUpdateDecorator@@@@8 ; CDynamicPoolEx<NEffectUpdateDecorator::CTextureAnimationCWDecorator>::`RTTI Base Class Descriptor at (0,-1,0,64)'
PUBLIC	??_R4?$CDynamicPoolEx@VCTextureAnimationCCWDecorator@NEffectUpdateDecorator@@@@6B@ ; CDynamicPoolEx<NEffectUpdateDecorator::CTextureAnimationCCWDecorator>::`RTTI Complete Object Locator'
PUBLIC	??_R0?AV?$CDynamicPoolEx@VCTextureAnimationCCWDecorator@NEffectUpdateDecorator@@@@@8 ; CDynamicPoolEx<NEffectUpdateDecorator::CTextureAnimationCCWDecorator> `RTTI Type Descriptor'
PUBLIC	??_R3?$CDynamicPoolEx@VCTextureAnimationCCWDecorator@NEffectUpdateDecorator@@@@8 ; CDynamicPoolEx<NEffectUpdateDecorator::CTextureAnimationCCWDecorator>::`RTTI Class Hierarchy Descriptor'
PUBLIC	??_R2?$CDynamicPoolEx@VCTextureAnimationCCWDecorator@NEffectUpdateDecorator@@@@8 ; CDynamicPoolEx<NEffectUpdateDecorator::CTextureAnimationCCWDecorator>::`RTTI Base Class Array'
PUBLIC	??_R1A@?0A@EA@?$CDynamicPoolEx@VCTextureAnimationCCWDecorator@NEffectUpdateDecorator@@@@8 ; CDynamicPoolEx<NEffectUpdateDecorator::CTextureAnimationCCWDecorator>::`RTTI Base Class Descriptor at (0,-1,0,64)'
PUBLIC	??_R4?$CDynamicPoolEx@VCTextureAnimationRandomDecorator@NEffectUpdateDecorator@@@@6B@ ; CDynamicPoolEx<NEffectUpdateDecorator::CTextureAnimationRandomDecorator>::`RTTI Complete Object Locator'
PUBLIC	??_R0?AV?$CDynamicPoolEx@VCTextureAnimationRandomDecorator@NEffectUpdateDecorator@@@@@8 ; CDynamicPoolEx<NEffectUpdateDecorator::CTextureAnimationRandomDecorator> `RTTI Type Descriptor'
PUBLIC	??_R3?$CDynamicPoolEx@VCTextureAnimationRandomDecorator@NEffectUpdateDecorator@@@@8 ; CDynamicPoolEx<NEffectUpdateDecorator::CTextureAnimationRandomDecorator>::`RTTI Class Hierarchy Descriptor'
PUBLIC	??_R2?$CDynamicPoolEx@VCTextureAnimationRandomDecorator@NEffectUpdateDecorator@@@@8 ; CDynamicPoolEx<NEffectUpdateDecorator::CTextureAnimationRandomDecorator>::`RTTI Base Class Array'
PUBLIC	??_R1A@?0A@EA@?$CDynamicPoolEx@VCTextureAnimationRandomDecorator@NEffectUpdateDecorator@@@@8 ; CDynamicPoolEx<NEffectUpdateDecorator::CTextureAnimationRandomDecorator>::`RTTI Base Class Descriptor at (0,-1,0,64)'
PUBLIC	??_R4?$CDynamicPoolEx@VCAirResistanceDecorator@NEffectUpdateDecorator@@@@6B@ ; CDynamicPoolEx<NEffectUpdateDecorator::CAirResistanceDecorator>::`RTTI Complete Object Locator'
PUBLIC	??_R0?AV?$CDynamicPoolEx@VCAirResistanceDecorator@NEffectUpdateDecorator@@@@@8 ; CDynamicPoolEx<NEffectUpdateDecorator::CAirResistanceDecorator> `RTTI Type Descriptor'
PUBLIC	??_R3?$CDynamicPoolEx@VCAirResistanceDecorator@NEffectUpdateDecorator@@@@8 ; CDynamicPoolEx<NEffectUpdateDecorator::CAirResistanceDecorator>::`RTTI Class Hierarchy Descriptor'
PUBLIC	??_R2?$CDynamicPoolEx@VCAirResistanceDecorator@NEffectUpdateDecorator@@@@8 ; CDynamicPoolEx<NEffectUpdateDecorator::CAirResistanceDecorator>::`RTTI Base Class Array'
PUBLIC	??_R1A@?0A@EA@?$CDynamicPoolEx@VCAirResistanceDecorator@NEffectUpdateDecorator@@@@8 ; CDynamicPoolEx<NEffectUpdateDecorator::CAirResistanceDecorator>::`RTTI Base Class Descriptor at (0,-1,0,64)'
PUBLIC	??_R4?$CDynamicPoolEx@VCGravityDecorator@NEffectUpdateDecorator@@@@6B@ ; CDynamicPoolEx<NEffectUpdateDecorator::CGravityDecorator>::`RTTI Complete Object Locator'
PUBLIC	??_R0?AV?$CDynamicPoolEx@VCGravityDecorator@NEffectUpdateDecorator@@@@@8 ; CDynamicPoolEx<NEffectUpdateDecorator::CGravityDecorator> `RTTI Type Descriptor'
PUBLIC	??_R3?$CDynamicPoolEx@VCGravityDecorator@NEffectUpdateDecorator@@@@8 ; CDynamicPoolEx<NEffectUpdateDecorator::CGravityDecorator>::`RTTI Class Hierarchy Descriptor'
PUBLIC	??_R2?$CDynamicPoolEx@VCGravityDecorator@NEffectUpdateDecorator@@@@8 ; CDynamicPoolEx<NEffectUpdateDecorator::CGravityDecorator>::`RTTI Base Class Array'
PUBLIC	??_R1A@?0A@EA@?$CDynamicPoolEx@VCGravityDecorator@NEffectUpdateDecorator@@@@8 ; CDynamicPoolEx<NEffectUpdateDecorator::CGravityDecorator>::`RTTI Base Class Descriptor at (0,-1,0,64)'
PUBLIC	??_R4?$CDynamicPoolEx@VCRotationDecorator@NEffectUpdateDecorator@@@@6B@ ; CDynamicPoolEx<NEffectUpdateDecorator::CRotationDecorator>::`RTTI Complete Object Locator'
PUBLIC	??_R0?AV?$CDynamicPoolEx@VCRotationDecorator@NEffectUpdateDecorator@@@@@8 ; CDynamicPoolEx<NEffectUpdateDecorator::CRotationDecorator> `RTTI Type Descriptor'
PUBLIC	??_R3?$CDynamicPoolEx@VCRotationDecorator@NEffectUpdateDecorator@@@@8 ; CDynamicPoolEx<NEffectUpdateDecorator::CRotationDecorator>::`RTTI Class Hierarchy Descriptor'
PUBLIC	??_R2?$CDynamicPoolEx@VCRotationDecorator@NEffectUpdateDecorator@@@@8 ; CDynamicPoolEx<NEffectUpdateDecorator::CRotationDecorator>::`RTTI Base Class Array'
PUBLIC	??_R1A@?0A@EA@?$CDynamicPoolEx@VCRotationDecorator@NEffectUpdateDecorator@@@@8 ; CDynamicPoolEx<NEffectUpdateDecorator::CRotationDecorator>::`RTTI Base Class Descriptor at (0,-1,0,64)'
PUBLIC	??_7?$CDynamicPoolEx@VCRotationDecorator@NEffectUpdateDecorator@@@@6B@ ; CDynamicPoolEx<NEffectUpdateDecorator::CRotationDecorator>::`vftable'
PUBLIC	??_G?$CDynamicPoolEx@VCRotationDecorator@NEffectUpdateDecorator@@@@UAEPAXI@Z ; CDynamicPoolEx<NEffectUpdateDecorator::CRotationDecorator>::`scalar deleting destructor'
PUBLIC	??_7?$CDynamicPoolEx@VCGravityDecorator@NEffectUpdateDecorator@@@@6B@ ; CDynamicPoolEx<NEffectUpdateDecorator::CGravityDecorator>::`vftable'
PUBLIC	??_G?$CDynamicPoolEx@VCGravityDecorator@NEffectUpdateDecorator@@@@UAEPAXI@Z ; CDynamicPoolEx<NEffectUpdateDecorator::CGravityDecorator>::`scalar deleting destructor'
PUBLIC	??_7?$CDynamicPoolEx@VCAirResistanceDecorator@NEffectUpdateDecorator@@@@6B@ ; CDynamicPoolEx<NEffectUpdateDecorator::CAirResistanceDecorator>::`vftable'
PUBLIC	??_G?$CDynamicPoolEx@VCAirResistanceDecorator@NEffectUpdateDecorator@@@@UAEPAXI@Z ; CDynamicPoolEx<NEffectUpdateDecorator::CAirResistanceDecorator>::`scalar deleting destructor'
PUBLIC	??_7?$CDynamicPoolEx@VCTextureAnimationRandomDecorator@NEffectUpdateDecorator@@@@6B@ ; CDynamicPoolEx<NEffectUpdateDecorator::CTextureAnimationRandomDecorator>::`vftable'
PUBLIC	??_G?$CDynamicPoolEx@VCTextureAnimationRandomDecorator@NEffectUpdateDecorator@@@@UAEPAXI@Z ; CDynamicPoolEx<NEffectUpdateDecorator::CTextureAnimationRandomDecorator>::`scalar deleting destructor'
EXTRN	??_E?$CDynamicPoolEx@VCTextureAnimationCCWDecorator@NEffectUpdateDecorator@@@@UAEPAXI@Z:PROC ; CDynamicPoolEx<NEffectUpdateDecorator::CTextureAnimationCCWDecorator>::`vector deleting destructor'
EXTRN	??_E?$CDynamicPoolEx@VCTextureAnimationCWDecorator@NEffectUpdateDecorator@@@@UAEPAXI@Z:PROC ; CDynamicPoolEx<NEffectUpdateDecorator::CTextureAnimationCWDecorator>::`vector deleting destructor'
EXTRN	??_E?$CDynamicPoolEx@VCNullDecorator@NEffectUpdateDecorator@@@@UAEPAXI@Z:PROC ; CDynamicPoolEx<NEffectUpdateDecorator::CNullDecorator>::`vector deleting destructor'
EXTRN	??_E?$CDynamicPoolEx@VCHeaderDecorator@NEffectUpdateDecorator@@@@UAEPAXI@Z:PROC ; CDynamicPoolEx<NEffectUpdateDecorator::CHeaderDecorator>::`vector deleting destructor'
EXTRN	??_7type_info@@6B@:QWORD			; type_info::`vftable'
EXTRN	??_E?$CDynamicPoolEx@VCRotationDecorator@NEffectUpdateDecorator@@@@UAEPAXI@Z:PROC ; CDynamicPoolEx<NEffectUpdateDecorator::CRotationDecorator>::`vector deleting destructor'
EXTRN	??_E?$CDynamicPoolEx@VCGravityDecorator@NEffectUpdateDecorator@@@@UAEPAXI@Z:PROC ; CDynamicPoolEx<NEffectUpdateDecorator::CGravityDecorator>::`vector deleting destructor'
EXTRN	??_E?$CDynamicPoolEx@VCAirResistanceDecorator@NEffectUpdateDecorator@@@@UAEPAXI@Z:PROC ; CDynamicPoolEx<NEffectUpdateDecorator::CAirResistanceDecorator>::`vector deleting destructor'
EXTRN	??_E?$CDynamicPoolEx@VCTextureAnimationRandomDecorator@NEffectUpdateDecorator@@@@UAEPAXI@Z:PROC ; CDynamicPoolEx<NEffectUpdateDecorator::CTextureAnimationRandomDecorator>::`vector deleting destructor'
;	COMDAT ??_7?$CDynamicPoolEx@VCTextureAnimationRandomDecorator@NEffectUpdateDecorator@@@@6B@
CONST	SEGMENT
??_7?$CDynamicPoolEx@VCTextureAnimationRandomDecorator@NEffectUpdateDecorator@@@@6B@ DD FLAT:??_R4?$CDynamicPoolEx@VCTextureAnimationRandomDecorator@NEffectUpdateDecorator@@@@6B@ ; CDynamicPoolEx<NEffectUpdateDecorator::CTextureAnimationRandomDecorator>::`vftable'
	DD	FLAT:??_E?$CDynamicPoolEx@VCTextureAnimationRandomDecorator@NEffectUpdateDecorator@@@@UAEPAXI@Z
CONST	ENDS
;	COMDAT ??_7?$CDynamicPoolEx@VCAirResistanceDecorator@NEffectUpdateDecorator@@@@6B@
CONST	SEGMENT
??_7?$CDynamicPoolEx@VCAirResistanceDecorator@NEffectUpdateDecorator@@@@6B@ DD FLAT:??_R4?$CDynamicPoolEx@VCAirResistanceDecorator@NEffectUpdateDecorator@@@@6B@ ; CDynamicPoolEx<NEffectUpdateDecorator::CAirResistanceDecorator>::`vftable'
	DD	FLAT:??_E?$CDynamicPoolEx@VCAirResistanceDecorator@NEffectUpdateDecorator@@@@UAEPAXI@Z
CONST	ENDS
;	COMDAT ??_7?$CDynamicPoolEx@VCGravityDecorator@NEffectUpdateDecorator@@@@6B@
CONST	SEGMENT
??_7?$CDynamicPoolEx@VCGravityDecorator@NEffectUpdateDecorator@@@@6B@ DD FLAT:??_R4?$CDynamicPoolEx@VCGravityDecorator@NEffectUpdateDecorator@@@@6B@ ; CDynamicPoolEx<NEffectUpdateDecorator::CGravityDecorator>::`vftable'
	DD	FLAT:??_E?$CDynamicPoolEx@VCGravityDecorator@NEffectUpdateDecorator@@@@UAEPAXI@Z
CONST	ENDS
;	COMDAT ??_7?$CDynamicPoolEx@VCRotationDecorator@NEffectUpdateDecorator@@@@6B@
CONST	SEGMENT
??_7?$CDynamicPoolEx@VCRotationDecorator@NEffectUpdateDecorator@@@@6B@ DD FLAT:??_R4?$CDynamicPoolEx@VCRotationDecorator@NEffectUpdateDecorator@@@@6B@ ; CDynamicPoolEx<NEffectUpdateDecorator::CRotationDecorator>::`vftable'
	DD	FLAT:??_E?$CDynamicPoolEx@VCRotationDecorator@NEffectUpdateDecorator@@@@UAEPAXI@Z
CONST	ENDS
CONST	SEGMENT
?piecewise_construct@std@@3Upiecewise_construct_t@1@B	ORG $+1 ; std::piecewise_construct
CONST	ENDS
;	COMDAT ??_R1A@?0A@EA@?$CDynamicPoolEx@VCRotationDecorator@NEffectUpdateDecorator@@@@8
rdata$r	SEGMENT
??_R1A@?0A@EA@?$CDynamicPoolEx@VCRotationDecorator@NEffectUpdateDecorator@@@@8 DD FLAT:??_R0?AV?$CDynamicPoolEx@VCRotationDecorator@NEffectUpdateDecorator@@@@@8 ; CDynamicPoolEx<NEffectUpdateDecorator::CRotationDecorator>::`RTTI Base Class Descriptor at (0,-1,0,64)'
	DD	00H
	DD	00H
	DD	0ffffffffH
	DD	00H
	DD	040H
	DD	FLAT:??_R3?$CDynamicPoolEx@VCRotationDecorator@NEffectUpdateDecorator@@@@8
rdata$r	ENDS
;	COMDAT ??_R2?$CDynamicPoolEx@VCRotationDecorator@NEffectUpdateDecorator@@@@8
rdata$r	SEGMENT
??_R2?$CDynamicPoolEx@VCRotationDecorator@NEffectUpdateDecorator@@@@8 DD FLAT:??_R1A@?0A@EA@?$CDynamicPoolEx@VCRotationDecorator@NEffectUpdateDecorator@@@@8 ; CDynamicPoolEx<NEffectUpdateDecorator::CRotationDecorator>::`RTTI Base Class Array'
rdata$r	ENDS
;	COMDAT ??_R3?$CDynamicPoolEx@VCRotationDecorator@NEffectUpdateDecorator@@@@8
rdata$r	SEGMENT
??_R3?$CDynamicPoolEx@VCRotationDecorator@NEffectUpdateDecorator@@@@8 DD 00H ; CDynamicPoolEx<NEffectUpdateDecorator::CRotationDecorator>::`RTTI Class Hierarchy Descriptor'
	DD	00H
	DD	01H
	DD	FLAT:??_R2?$CDynamicPoolEx@VCRotationDecorator@NEffectUpdateDecorator@@@@8
rdata$r	ENDS
;	COMDAT ??_R0?AV?$CDynamicPoolEx@VCRotationDecorator@NEffectUpdateDecorator@@@@@8
data$rs	SEGMENT
??_R0?AV?$CDynamicPoolEx@VCRotationDecorator@NEffectUpdateDecorator@@@@@8 DD FLAT:??_7type_info@@6B@ ; CDynamicPoolEx<NEffectUpdateDecorator::CRotationDecorator> `RTTI Type Descriptor'
	DD	00H
	DB	'.?AV?$CDynamicPoolEx@VCRotationDecorator@NEffectUpdateDe'
	DB	'corator@@@@', 00H
data$rs	ENDS
;	COMDAT ??_R4?$CDynamicPoolEx@VCRotationDecorator@NEffectUpdateDecorator@@@@6B@
rdata$r	SEGMENT
??_R4?$CDynamicPoolEx@VCRotationDecorator@NEffectUpdateDecorator@@@@6B@ DD 00H ; CDynamicPoolEx<NEffectUpdateDecorator::CRotationDecorator>::`RTTI Complete Object Locator'
	DD	00H
	DD	00H
	DD	FLAT:??_R0?AV?$CDynamicPoolEx@VCRotationDecorator@NEffectUpdateDecorator@@@@@8
	DD	FLAT:??_R3?$CDynamicPoolEx@VCRotationDecorator@NEffectUpdateDecorator@@@@8
rdata$r	ENDS
;	COMDAT ??_R1A@?0A@EA@?$CDynamicPoolEx@VCGravityDecorator@NEffectUpdateDecorator@@@@8
rdata$r	SEGMENT
??_R1A@?0A@EA@?$CDynamicPoolEx@VCGravityDecorator@NEffectUpdateDecorator@@@@8 DD FLAT:??_R0?AV?$CDynamicPoolEx@VCGravityDecorator@NEffectUpdateDecorator@@@@@8 ; CDynamicPoolEx<NEffectUpdateDecorator::CGravityDecorator>::`RTTI Base Class Descriptor at (0,-1,0,64)'
	DD	00H
	DD	00H
	DD	0ffffffffH
	DD	00H
	DD	040H
	DD	FLAT:??_R3?$CDynamicPoolEx@VCGravityDecorator@NEffectUpdateDecorator@@@@8
rdata$r	ENDS
;	COMDAT ??_R2?$CDynamicPoolEx@VCGravityDecorator@NEffectUpdateDecorator@@@@8
rdata$r	SEGMENT
??_R2?$CDynamicPoolEx@VCGravityDecorator@NEffectUpdateDecorator@@@@8 DD FLAT:??_R1A@?0A@EA@?$CDynamicPoolEx@VCGravityDecorator@NEffectUpdateDecorator@@@@8 ; CDynamicPoolEx<NEffectUpdateDecorator::CGravityDecorator>::`RTTI Base Class Array'
rdata$r	ENDS
;	COMDAT ??_R3?$CDynamicPoolEx@VCGravityDecorator@NEffectUpdateDecorator@@@@8
rdata$r	SEGMENT
??_R3?$CDynamicPoolEx@VCGravityDecorator@NEffectUpdateDecorator@@@@8 DD 00H ; CDynamicPoolEx<NEffectUpdateDecorator::CGravityDecorator>::`RTTI Class Hierarchy Descriptor'
	DD	00H
	DD	01H
	DD	FLAT:??_R2?$CDynamicPoolEx@VCGravityDecorator@NEffectUpdateDecorator@@@@8
rdata$r	ENDS
;	COMDAT ??_R0?AV?$CDynamicPoolEx@VCGravityDecorator@NEffectUpdateDecorator@@@@@8
data$rs	SEGMENT
??_R0?AV?$CDynamicPoolEx@VCGravityDecorator@NEffectUpdateDecorator@@@@@8 DD FLAT:??_7type_info@@6B@ ; CDynamicPoolEx<NEffectUpdateDecorator::CGravityDecorator> `RTTI Type Descriptor'
	DD	00H
	DB	'.?AV?$CDynamicPoolEx@VCGravityDecorator@NEffectUpdateDec'
	DB	'orator@@@@', 00H
data$rs	ENDS
;	COMDAT ??_R4?$CDynamicPoolEx@VCGravityDecorator@NEffectUpdateDecorator@@@@6B@
rdata$r	SEGMENT
??_R4?$CDynamicPoolEx@VCGravityDecorator@NEffectUpdateDecorator@@@@6B@ DD 00H ; CDynamicPoolEx<NEffectUpdateDecorator::CGravityDecorator>::`RTTI Complete Object Locator'
	DD	00H
	DD	00H
	DD	FLAT:??_R0?AV?$CDynamicPoolEx@VCGravityDecorator@NEffectUpdateDecorator@@@@@8
	DD	FLAT:??_R3?$CDynamicPoolEx@VCGravityDecorator@NEffectUpdateDecorator@@@@8
rdata$r	ENDS
;	COMDAT ??_R1A@?0A@EA@?$CDynamicPoolEx@VCAirResistanceDecorator@NEffectUpdateDecorator@@@@8
rdata$r	SEGMENT
??_R1A@?0A@EA@?$CDynamicPoolEx@VCAirResistanceDecorator@NEffectUpdateDecorator@@@@8 DD FLAT:??_R0?AV?$CDynamicPoolEx@VCAirResistanceDecorator@NEffectUpdateDecorator@@@@@8 ; CDynamicPoolEx<NEffectUpdateDecorator::CAirResistanceDecorator>::`RTTI Base Class Descriptor at (0,-1,0,64)'
	DD	00H
	DD	00H
	DD	0ffffffffH
	DD	00H
	DD	040H
	DD	FLAT:??_R3?$CDynamicPoolEx@VCAirResistanceDecorator@NEffectUpdateDecorator@@@@8
rdata$r	ENDS
;	COMDAT ??_R2?$CDynamicPoolEx@VCAirResistanceDecorator@NEffectUpdateDecorator@@@@8
rdata$r	SEGMENT
??_R2?$CDynamicPoolEx@VCAirResistanceDecorator@NEffectUpdateDecorator@@@@8 DD FLAT:??_R1A@?0A@EA@?$CDynamicPoolEx@VCAirResistanceDecorator@NEffectUpdateDecorator@@@@8 ; CDynamicPoolEx<NEffectUpdateDecorator::CAirResistanceDecorator>::`RTTI Base Class Array'
rdata$r	ENDS
;	COMDAT ??_R3?$CDynamicPoolEx@VCAirResistanceDecorator@NEffectUpdateDecorator@@@@8
rdata$r	SEGMENT
??_R3?$CDynamicPoolEx@VCAirResistanceDecorator@NEffectUpdateDecorator@@@@8 DD 00H ; CDynamicPoolEx<NEffectUpdateDecorator::CAirResistanceDecorator>::`RTTI Class Hierarchy Descriptor'
	DD	00H
	DD	01H
	DD	FLAT:??_R2?$CDynamicPoolEx@VCAirResistanceDecorator@NEffectUpdateDecorator@@@@8
rdata$r	ENDS
;	COMDAT ??_R0?AV?$CDynamicPoolEx@VCAirResistanceDecorator@NEffectUpdateDecorator@@@@@8
data$rs	SEGMENT
??_R0?AV?$CDynamicPoolEx@VCAirResistanceDecorator@NEffectUpdateDecorator@@@@@8 DD FLAT:??_7type_info@@6B@ ; CDynamicPoolEx<NEffectUpdateDecorator::CAirResistanceDecorator> `RTTI Type Descriptor'
	DD	00H
	DB	'.?AV?$CDynamicPoolEx@VCAirResistanceDecorator@NEffectUpd'
	DB	'ateDecorator@@@@', 00H
data$rs	ENDS
;	COMDAT ??_R4?$CDynamicPoolEx@VCAirResistanceDecorator@NEffectUpdateDecorator@@@@6B@
rdata$r	SEGMENT
??_R4?$CDynamicPoolEx@VCAirResistanceDecorator@NEffectUpdateDecorator@@@@6B@ DD 00H ; CDynamicPoolEx<NEffectUpdateDecorator::CAirResistanceDecorator>::`RTTI Complete Object Locator'
	DD	00H
	DD	00H
	DD	FLAT:??_R0?AV?$CDynamicPoolEx@VCAirResistanceDecorator@NEffectUpdateDecorator@@@@@8
	DD	FLAT:??_R3?$CDynamicPoolEx@VCAirResistanceDecorator@NEffectUpdateDecorator@@@@8
rdata$r	ENDS
;	COMDAT ??_R1A@?0A@EA@?$CDynamicPoolEx@VCTextureAnimationRandomDecorator@NEffectUpdateDecorator@@@@8
rdata$r	SEGMENT
??_R1A@?0A@EA@?$CDynamicPoolEx@VCTextureAnimationRandomDecorator@NEffectUpdateDecorator@@@@8 DD FLAT:??_R0?AV?$CDynamicPoolEx@VCTextureAnimationRandomDecorator@NEffectUpdateDecorator@@@@@8 ; CDynamicPoolEx<NEffectUpdateDecorator::CTextureAnimationRandomDecorator>::`RTTI Base Class Descriptor at (0,-1,0,64)'
	DD	00H
	DD	00H
	DD	0ffffffffH
	DD	00H
	DD	040H
	DD	FLAT:??_R3?$CDynamicPoolEx@VCTextureAnimationRandomDecorator@NEffectUpdateDecorator@@@@8
rdata$r	ENDS
;	COMDAT ??_R2?$CDynamicPoolEx@VCTextureAnimationRandomDecorator@NEffectUpdateDecorator@@@@8
rdata$r	SEGMENT
??_R2?$CDynamicPoolEx@VCTextureAnimationRandomDecorator@NEffectUpdateDecorator@@@@8 DD FLAT:??_R1A@?0A@EA@?$CDynamicPoolEx@VCTextureAnimationRandomDecorator@NEffectUpdateDecorator@@@@8 ; CDynamicPoolEx<NEffectUpdateDecorator::CTextureAnimationRandomDecorator>::`RTTI Base Class Array'
rdata$r	ENDS
;	COMDAT ??_R3?$CDynamicPoolEx@VCTextureAnimationRandomDecorator@NEffectUpdateDecorator@@@@8
rdata$r	SEGMENT
??_R3?$CDynamicPoolEx@VCTextureAnimationRandomDecorator@NEffectUpdateDecorator@@@@8 DD 00H ; CDynamicPoolEx<NEffectUpdateDecorator::CTextureAnimationRandomDecorator>::`RTTI Class Hierarchy Descriptor'
	DD	00H
	DD	01H
	DD	FLAT:??_R2?$CDynamicPoolEx@VCTextureAnimationRandomDecorator@NEffectUpdateDecorator@@@@8
rdata$r	ENDS
;	COMDAT ??_R0?AV?$CDynamicPoolEx@VCTextureAnimationRandomDecorator@NEffectUpdateDecorator@@@@@8
data$rs	SEGMENT
??_R0?AV?$CDynamicPoolEx@VCTextureAnimationRandomDecorator@NEffectUpdateDecorator@@@@@8 DD FLAT:??_7type_info@@6B@ ; CDynamicPoolEx<NEffectUpdateDecorator::CTextureAnimationRandomDecorator> `RTTI Type Descriptor'
	DD	00H
	DB	'.?AV?$CDynamicPoolEx@VCTextureAnimationRandomDecorator@N'
	DB	'EffectUpdateDecorator@@@@', 00H
data$rs	ENDS
;	COMDAT ??_R4?$CDynamicPoolEx@VCTextureAnimationRandomDecorator@NEffectUpdateDecorator@@@@6B@
rdata$r	SEGMENT
??_R4?$CDynamicPoolEx@VCTextureAnimationRandomDecorator@NEffectUpdateDecorator@@@@6B@ DD 00H ; CDynamicPoolEx<NEffectUpdateDecorator::CTextureAnimationRandomDecorator>::`RTTI Complete Object Locator'
	DD	00H
	DD	00H
	DD	FLAT:??_R0?AV?$CDynamicPoolEx@VCTextureAnimationRandomDecorator@NEffectUpdateDecorator@@@@@8
	DD	FLAT:??_R3?$CDynamicPoolEx@VCTextureAnimationRandomDecorator@NEffectUpdateDecorator@@@@8
rdata$r	ENDS
;	COMDAT ??_R1A@?0A@EA@?$CDynamicPoolEx@VCTextureAnimationCCWDecorator@NEffectUpdateDecorator@@@@8
rdata$r	SEGMENT
??_R1A@?0A@EA@?$CDynamicPoolEx@VCTextureAnimationCCWDecorator@NEffectUpdateDecorator@@@@8 DD FLAT:??_R0?AV?$CDynamicPoolEx@VCTextureAnimationCCWDecorator@NEffectUpdateDecorator@@@@@8 ; CDynamicPoolEx<NEffectUpdateDecorator::CTextureAnimationCCWDecorator>::`RTTI Base Class Descriptor at (0,-1,0,64)'
	DD	00H
	DD	00H
	DD	0ffffffffH
	DD	00H
	DD	040H
	DD	FLAT:??_R3?$CDynamicPoolEx@VCTextureAnimationCCWDecorator@NEffectUpdateDecorator@@@@8
rdata$r	ENDS
;	COMDAT ??_R2?$CDynamicPoolEx@VCTextureAnimationCCWDecorator@NEffectUpdateDecorator@@@@8
rdata$r	SEGMENT
??_R2?$CDynamicPoolEx@VCTextureAnimationCCWDecorator@NEffectUpdateDecorator@@@@8 DD FLAT:??_R1A@?0A@EA@?$CDynamicPoolEx@VCTextureAnimationCCWDecorator@NEffectUpdateDecorator@@@@8 ; CDynamicPoolEx<NEffectUpdateDecorator::CTextureAnimationCCWDecorator>::`RTTI Base Class Array'
rdata$r	ENDS
;	COMDAT ??_R3?$CDynamicPoolEx@VCTextureAnimationCCWDecorator@NEffectUpdateDecorator@@@@8
rdata$r	SEGMENT
??_R3?$CDynamicPoolEx@VCTextureAnimationCCWDecorator@NEffectUpdateDecorator@@@@8 DD 00H ; CDynamicPoolEx<NEffectUpdateDecorator::CTextureAnimationCCWDecorator>::`RTTI Class Hierarchy Descriptor'
	DD	00H
	DD	01H
	DD	FLAT:??_R2?$CDynamicPoolEx@VCTextureAnimationCCWDecorator@NEffectUpdateDecorator@@@@8
rdata$r	ENDS
;	COMDAT ??_R0?AV?$CDynamicPoolEx@VCTextureAnimationCCWDecorator@NEffectUpdateDecorator@@@@@8
data$rs	SEGMENT
??_R0?AV?$CDynamicPoolEx@VCTextureAnimationCCWDecorator@NEffectUpdateDecorator@@@@@8 DD FLAT:??_7type_info@@6B@ ; CDynamicPoolEx<NEffectUpdateDecorator::CTextureAnimationCCWDecorator> `RTTI Type Descriptor'
	DD	00H
	DB	'.?AV?$CDynamicPoolEx@VCTextureAnimationCCWDecorator@NEff'
	DB	'ectUpdateDecorator@@@@', 00H
data$rs	ENDS
;	COMDAT ??_R4?$CDynamicPoolEx@VCTextureAnimationCCWDecorator@NEffectUpdateDecorator@@@@6B@
rdata$r	SEGMENT
??_R4?$CDynamicPoolEx@VCTextureAnimationCCWDecorator@NEffectUpdateDecorator@@@@6B@ DD 00H ; CDynamicPoolEx<NEffectUpdateDecorator::CTextureAnimationCCWDecorator>::`RTTI Complete Object Locator'
	DD	00H
	DD	00H
	DD	FLAT:??_R0?AV?$CDynamicPoolEx@VCTextureAnimationCCWDecorator@NEffectUpdateDecorator@@@@@8
	DD	FLAT:??_R3?$CDynamicPoolEx@VCTextureAnimationCCWDecorator@NEffectUpdateDecorator@@@@8
rdata$r	ENDS
;	COMDAT ??_R1A@?0A@EA@?$CDynamicPoolEx@VCTextureAnimationCWDecorator@NEffectUpdateDecorator@@@@8
rdata$r	SEGMENT
??_R1A@?0A@EA@?$CDynamicPoolEx@VCTextureAnimationCWDecorator@NEffectUpdateDecorator@@@@8 DD FLAT:??_R0?AV?$CDynamicPoolEx@VCTextureAnimationCWDecorator@NEffectUpdateDecorator@@@@@8 ; CDynamicPoolEx<NEffectUpdateDecorator::CTextureAnimationCWDecorator>::`RTTI Base Class Descriptor at (0,-1,0,64)'
	DD	00H
	DD	00H
	DD	0ffffffffH
	DD	00H
	DD	040H
	DD	FLAT:??_R3?$CDynamicPoolEx@VCTextureAnimationCWDecorator@NEffectUpdateDecorator@@@@8
rdata$r	ENDS
;	COMDAT ??_R2?$CDynamicPoolEx@VCTextureAnimationCWDecorator@NEffectUpdateDecorator@@@@8
rdata$r	SEGMENT
??_R2?$CDynamicPoolEx@VCTextureAnimationCWDecorator@NEffectUpdateDecorator@@@@8 DD FLAT:??_R1A@?0A@EA@?$CDynamicPoolEx@VCTextureAnimationCWDecorator@NEffectUpdateDecorator@@@@8 ; CDynamicPoolEx<NEffectUpdateDecorator::CTextureAnimationCWDecorator>::`RTTI Base Class Array'
rdata$r	ENDS
;	COMDAT ??_R3?$CDynamicPoolEx@VCTextureAnimationCWDecorator@NEffectUpdateDecorator@@@@8
rdata$r	SEGMENT
??_R3?$CDynamicPoolEx@VCTextureAnimationCWDecorator@NEffectUpdateDecorator@@@@8 DD 00H ; CDynamicPoolEx<NEffectUpdateDecorator::CTextureAnimationCWDecorator>::`RTTI Class Hierarchy Descriptor'
	DD	00H
	DD	01H
	DD	FLAT:??_R2?$CDynamicPoolEx@VCTextureAnimationCWDecorator@NEffectUpdateDecorator@@@@8
rdata$r	ENDS
;	COMDAT ??_R0?AV?$CDynamicPoolEx@VCTextureAnimationCWDecorator@NEffectUpdateDecorator@@@@@8
data$rs	SEGMENT
??_R0?AV?$CDynamicPoolEx@VCTextureAnimationCWDecorator@NEffectUpdateDecorator@@@@@8 DD FLAT:??_7type_info@@6B@ ; CDynamicPoolEx<NEffectUpdateDecorator::CTextureAnimationCWDecorator> `RTTI Type Descriptor'
	DD	00H
	DB	'.?AV?$CDynamicPoolEx@VCTextureAnimationCWDecorator@NEffe'
	DB	'ctUpdateDecorator@@@@', 00H
data$rs	ENDS
;	COMDAT ??_R4?$CDynamicPoolEx@VCTextureAnimationCWDecorator@NEffectUpdateDecorator@@@@6B@
rdata$r	SEGMENT
??_R4?$CDynamicPoolEx@VCTextureAnimationCWDecorator@NEffectUpdateDecorator@@@@6B@ DD 00H ; CDynamicPoolEx<NEffectUpdateDecorator::CTextureAnimationCWDecorator>::`RTTI Complete Object Locator'
	DD	00H
	DD	00H
	DD	FLAT:??_R0?AV?$CDynamicPoolEx@VCTextureAnimationCWDecorator@NEffectUpdateDecorator@@@@@8
	DD	FLAT:??_R3?$CDynamicPoolEx@VCTextureAnimationCWDecorator@NEffectUpdateDecorator@@@@8
rdata$r	ENDS
;	COMDAT ??_R1A@?0A@EA@?$CDynamicPoolEx@VCNullDecorator@NEffectUpdateDecorator@@@@8
rdata$r	SEGMENT
??_R1A@?0A@EA@?$CDynamicPoolEx@VCNullDecorator@NEffectUpdateDecorator@@@@8 DD FLAT:??_R0?AV?$CDynamicPoolEx@VCNullDecorator@NEffectUpdateDecorator@@@@@8 ; CDynamicPoolEx<NEffectUpdateDecorator::CNullDecorator>::`RTTI Base Class Descriptor at (0,-1,0,64)'
	DD	00H
	DD	00H
	DD	0ffffffffH
	DD	00H
	DD	040H
	DD	FLAT:??_R3?$CDynamicPoolEx@VCNullDecorator@NEffectUpdateDecorator@@@@8
rdata$r	ENDS
;	COMDAT ??_R2?$CDynamicPoolEx@VCNullDecorator@NEffectUpdateDecorator@@@@8
rdata$r	SEGMENT
??_R2?$CDynamicPoolEx@VCNullDecorator@NEffectUpdateDecorator@@@@8 DD FLAT:??_R1A@?0A@EA@?$CDynamicPoolEx@VCNullDecorator@NEffectUpdateDecorator@@@@8 ; CDynamicPoolEx<NEffectUpdateDecorator::CNullDecorator>::`RTTI Base Class Array'
rdata$r	ENDS
;	COMDAT ??_R3?$CDynamicPoolEx@VCNullDecorator@NEffectUpdateDecorator@@@@8
rdata$r	SEGMENT
??_R3?$CDynamicPoolEx@VCNullDecorator@NEffectUpdateDecorator@@@@8 DD 00H ; CDynamicPoolEx<NEffectUpdateDecorator::CNullDecorator>::`RTTI Class Hierarchy Descriptor'
	DD	00H
	DD	01H
	DD	FLAT:??_R2?$CDynamicPoolEx@VCNullDecorator@NEffectUpdateDecorator@@@@8
rdata$r	ENDS
;	COMDAT ??_R0?AV?$CDynamicPoolEx@VCNullDecorator@NEffectUpdateDecorator@@@@@8
data$rs	SEGMENT
??_R0?AV?$CDynamicPoolEx@VCNullDecorator@NEffectUpdateDecorator@@@@@8 DD FLAT:??_7type_info@@6B@ ; CDynamicPoolEx<NEffectUpdateDecorator::CNullDecorator> `RTTI Type Descriptor'
	DD	00H
	DB	'.?AV?$CDynamicPoolEx@VCNullDecorator@NEffectUpdateDecora'
	DB	'tor@@@@', 00H
data$rs	ENDS
;	COMDAT ??_R4?$CDynamicPoolEx@VCNullDecorator@NEffectUpdateDecorator@@@@6B@
rdata$r	SEGMENT
??_R4?$CDynamicPoolEx@VCNullDecorator@NEffectUpdateDecorator@@@@6B@ DD 00H ; CDynamicPoolEx<NEffectUpdateDecorator::CNullDecorator>::`RTTI Complete Object Locator'
	DD	00H
	DD	00H
	DD	FLAT:??_R0?AV?$CDynamicPoolEx@VCNullDecorator@NEffectUpdateDecorator@@@@@8
	DD	FLAT:??_R3?$CDynamicPoolEx@VCNullDecorator@NEffectUpdateDecorator@@@@8
rdata$r	ENDS
;	COMDAT ??_R1A@?0A@EA@?$CDynamicPoolEx@VCHeaderDecorator@NEffectUpdateDecorator@@@@8
rdata$r	SEGMENT
??_R1A@?0A@EA@?$CDynamicPoolEx@VCHeaderDecorator@NEffectUpdateDecorator@@@@8 DD FLAT:??_R0?AV?$CDynamicPoolEx@VCHeaderDecorator@NEffectUpdateDecorator@@@@@8 ; CDynamicPoolEx<NEffectUpdateDecorator::CHeaderDecorator>::`RTTI Base Class Descriptor at (0,-1,0,64)'
	DD	00H
	DD	00H
	DD	0ffffffffH
	DD	00H
	DD	040H
	DD	FLAT:??_R3?$CDynamicPoolEx@VCHeaderDecorator@NEffectUpdateDecorator@@@@8
rdata$r	ENDS
;	COMDAT ??_R2?$CDynamicPoolEx@VCHeaderDecorator@NEffectUpdateDecorator@@@@8
rdata$r	SEGMENT
??_R2?$CDynamicPoolEx@VCHeaderDecorator@NEffectUpdateDecorator@@@@8 DD FLAT:??_R1A@?0A@EA@?$CDynamicPoolEx@VCHeaderDecorator@NEffectUpdateDecorator@@@@8 ; CDynamicPoolEx<NEffectUpdateDecorator::CHeaderDecorator>::`RTTI Base Class Array'
rdata$r	ENDS
;	COMDAT ??_R3?$CDynamicPoolEx@VCHeaderDecorator@NEffectUpdateDecorator@@@@8
rdata$r	SEGMENT
??_R3?$CDynamicPoolEx@VCHeaderDecorator@NEffectUpdateDecorator@@@@8 DD 00H ; CDynamicPoolEx<NEffectUpdateDecorator::CHeaderDecorator>::`RTTI Class Hierarchy Descriptor'
	DD	00H
	DD	01H
	DD	FLAT:??_R2?$CDynamicPoolEx@VCHeaderDecorator@NEffectUpdateDecorator@@@@8
rdata$r	ENDS
;	COMDAT ??_R0?AV?$CDynamicPoolEx@VCHeaderDecorator@NEffectUpdateDecorator@@@@@8
data$rs	SEGMENT
??_R0?AV?$CDynamicPoolEx@VCHeaderDecorator@NEffectUpdateDecorator@@@@@8 DD FLAT:??_7type_info@@6B@ ; CDynamicPoolEx<NEffectUpdateDecorator::CHeaderDecorator> `RTTI Type Descriptor'
	DD	00H
	DB	'.?AV?$CDynamicPoolEx@VCHeaderDecorator@NEffectUpdateDeco'
	DB	'rator@@@@', 00H
data$rs	ENDS
;	COMDAT ??_R4?$CDynamicPoolEx@VCHeaderDecorator@NEffectUpdateDecorator@@@@6B@
rdata$r	SEGMENT
??_R4?$CDynamicPoolEx@VCHeaderDecorator@NEffectUpdateDecorator@@@@6B@ DD 00H ; CDynamicPoolEx<NEffectUpdateDecorator::CHeaderDecorator>::`RTTI Complete Object Locator'
	DD	00H
	DD	00H
	DD	FLAT:??_R0?AV?$CDynamicPoolEx@VCHeaderDecorator@NEffectUpdateDecorator@@@@@8
	DD	FLAT:??_R3?$CDynamicPoolEx@VCHeaderDecorator@NEffectUpdateDecorator@@@@8
rdata$r	ENDS
;	COMDAT ??_7?$CDynamicPoolEx@VCHeaderDecorator@NEffectUpdateDecorator@@@@6B@
CONST	SEGMENT
??_7?$CDynamicPoolEx@VCHeaderDecorator@NEffectUpdateDecorator@@@@6B@ DD FLAT:??_R4?$CDynamicPoolEx@VCHeaderDecorator@NEffectUpdateDecorator@@@@6B@ ; CDynamicPoolEx<NEffectUpdateDecorator::CHeaderDecorator>::`vftable'
	DD	FLAT:??_E?$CDynamicPoolEx@VCHeaderDecorator@NEffectUpdateDecorator@@@@UAEPAXI@Z
CONST	ENDS
;	COMDAT ??_7?$CDynamicPoolEx@VCNullDecorator@NEffectUpdateDecorator@@@@6B@
CONST	SEGMENT
??_7?$CDynamicPoolEx@VCNullDecorator@NEffectUpdateDecorator@@@@6B@ DD FLAT:??_R4?$CDynamicPoolEx@VCNullDecorator@NEffectUpdateDecorator@@@@6B@ ; CDynamicPoolEx<NEffectUpdateDecorator::CNullDecorator>::`vftable'
	DD	FLAT:??_E?$CDynamicPoolEx@VCNullDecorator@NEffectUpdateDecorator@@@@UAEPAXI@Z
CONST	ENDS
;	COMDAT ??_7?$CDynamicPoolEx@VCTextureAnimationCWDecorator@NEffectUpdateDecorator@@@@6B@
CONST	SEGMENT
??_7?$CDynamicPoolEx@VCTextureAnimationCWDecorator@NEffectUpdateDecorator@@@@6B@ DD FLAT:??_R4?$CDynamicPoolEx@VCTextureAnimationCWDecorator@NEffectUpdateDecorator@@@@6B@ ; CDynamicPoolEx<NEffectUpdateDecorator::CTextureAnimationCWDecorator>::`vftable'
	DD	FLAT:??_E?$CDynamicPoolEx@VCTextureAnimationCWDecorator@NEffectUpdateDecorator@@@@UAEPAXI@Z
CONST	ENDS
;	COMDAT ??_7?$CDynamicPoolEx@VCTextureAnimationCCWDecorator@NEffectUpdateDecorator@@@@6B@
CONST	SEGMENT
??_7?$CDynamicPoolEx@VCTextureAnimationCCWDecorator@NEffectUpdateDecorator@@@@6B@ DD FLAT:??_R4?$CDynamicPoolEx@VCTextureAnimationCCWDecorator@NEffectUpdateDecorator@@@@6B@ ; CDynamicPoolEx<NEffectUpdateDecorator::CTextureAnimationCCWDecorator>::`vftable'
	DD	FLAT:??_E?$CDynamicPoolEx@VCTextureAnimationCCWDecorator@NEffectUpdateDecorator@@@@UAEPAXI@Z
CONST	ENDS
PUBLIC	??_H@YGXPAXIIP6EPAX0@Z@Z			; `vector constructor iterator'
PUBLIC	?__empty_global_delete@@YAXPAX@Z		; __empty_global_delete
PUBLIC	?__empty_global_delete@@YAXPAXI@Z		; __empty_global_delete
PUBLIC	??0exception@std@@QAE@ABV01@@Z			; std::exception::exception
PUBLIC	??1exception@std@@UAE@XZ			; std::exception::~exception
PUBLIC	?what@exception@std@@UBEPBDXZ			; std::exception::what
PUBLIC	??_Gexception@std@@UAEPAXI@Z			; std::exception::`scalar deleting destructor'
PUBLIC	??0bad_alloc@std@@QAE@ABV01@@Z			; std::bad_alloc::bad_alloc
PUBLIC	??_Gbad_alloc@std@@UAEPAXI@Z			; std::bad_alloc::`scalar deleting destructor'
PUBLIC	??0bad_array_new_length@std@@QAE@XZ		; std::bad_array_new_length::bad_array_new_length
PUBLIC	??1bad_array_new_length@std@@UAE@XZ		; std::bad_array_new_length::~bad_array_new_length
PUBLIC	??0bad_array_new_length@std@@QAE@ABV01@@Z	; std::bad_array_new_length::bad_array_new_length
PUBLIC	??_Gbad_array_new_length@std@@UAEPAXI@Z		; std::bad_array_new_length::`scalar deleting destructor'
PUBLIC	?_Throw_bad_array_new_length@std@@YAXXZ		; std::_Throw_bad_array_new_length
PUBLIC	?_Xlen_string@std@@YAXXZ			; std::_Xlen_string
PUBLIC	??1?$basic_string@DU?$char_traits@D@std@@V?$allocator@D@2@@std@@QAE@XZ ; std::basic_string<char,std::char_traits<char>,std::allocator<char> >::~basic_string<char,std::char_traits<char>,std::allocator<char> >
PUBLIC	?assign@?$basic_string@DU?$char_traits@D@std@@V?$allocator@D@2@@std@@QAEAAV12@QBDI@Z ; std::basic_string<char,std::char_traits<char>,std::allocator<char> >::assign
PUBLIC	?_Throw_tree_length_error@std@@YAXXZ		; std::_Throw_tree_length_error
PUBLIC	??1?$vector@KV?$allocator@K@std@@@std@@QAE@XZ	; std::vector<unsigned long,std::allocator<unsigned long> >::~vector<unsigned long,std::allocator<unsigned long> >
PUBLIC	?_Xlength@?$vector@KV?$allocator@K@std@@@std@@CAXXZ ; std::vector<unsigned long,std::allocator<unsigned long> >::_Xlength
PUBLIC	??$_Destroy_in_place@PAD@std@@YAXAAPAD@Z	; std::_Destroy_in_place<char *>
PUBLIC	??$_Construct_in_place@PADABQAD@std@@YAXAAPADABQAD@Z ; std::_Construct_in_place<char *,char * const &>
PUBLIC	??$_Deallocate@$07$0A@@std@@YAXPAXI@Z		; std::_Deallocate<8,0>
PUBLIC	??$_Allocate@$07U_Default_allocate_traits@std@@$0A@@std@@YAPAXI@Z ; std::_Allocate<8,std::_Default_allocate_traits,0>
PUBLIC	??$_Allocate_manually_vector_aligned@U_Default_allocate_traits@std@@@std@@YAPAXI@Z ; std::_Allocate_manually_vector_aligned<std::_Default_allocate_traits>
PUBLIC	??1SCreateData@CInstanceBase@@QAE@XZ		; CInstanceBase::SCreateData::~SCreateData
PUBLIC	??0SNetworkActorData@@QAE@XZ			; SNetworkActorData::SNetworkActorData
PUBLIC	?SetDstPosition@SNetworkActorData@@QAEXKJJK@Z	; SNetworkActorData::SetDstPosition
PUBLIC	?SetPosition@SNetworkActorData@@QAEXJJ@Z	; SNetworkActorData::SetPosition
PUBLIC	?UpdatePosition@SNetworkActorData@@QAEXXZ	; SNetworkActorData::UpdatePosition
PUBLIC	??0SNetworkActorData@@QAE@ABU0@@Z		; SNetworkActorData::SNetworkActorData
PUBLIC	??4SNetworkActorData@@QAEXABU0@@Z		; SNetworkActorData::operator=
PUBLIC	?__copy__@SNetworkActorData@@QAEXABU1@@Z	; SNetworkActorData::__copy__
PUBLIC	??0CNetworkActorManager@@QAE@XZ			; CNetworkActorManager::CNetworkActorManager
PUBLIC	??1CNetworkActorManager@@UAE@XZ			; CNetworkActorManager::~CNetworkActorManager
PUBLIC	?Destroy@CNetworkActorManager@@QAEXXZ		; CNetworkActorManager::Destroy
PUBLIC	?SetMainActorVID@CNetworkActorManager@@QAEXK@Z	; CNetworkActorManager::SetMainActorVID
PUBLIC	?RemoveActor@CNetworkActorManager@@QAEXK@Z	; CNetworkActorManager::RemoveActor
PUBLIC	?AppendActor@CNetworkActorManager@@QAEXABUSNetworkActorData@@@Z ; CNetworkActorManager::AppendActor
PUBLIC	?UpdateActor@CNetworkActorManager@@QAEXABUSNetworkUpdateActorData@@@Z ; CNetworkActorManager::UpdateActor
PUBLIC	?MoveActor@CNetworkActorManager@@QAEXABUSNetworkMoveActorData@@@Z ; CNetworkActorManager::MoveActor
PUBLIC	?SyncActor@CNetworkActorManager@@QAEXKJJ@Z	; CNetworkActorManager::SyncActor
PUBLIC	?SetActorOwner@CNetworkActorManager@@QAEXKK@Z	; CNetworkActorManager::SetActorOwner
PUBLIC	?Update@CNetworkActorManager@@QAEXXZ		; CNetworkActorManager::Update
PUBLIC	?__OLD_Update@CNetworkActorManager@@IAEXXZ	; CNetworkActorManager::__OLD_Update
PUBLIC	?__UpdateMainActor@CNetworkActorManager@@IAEXXZ	; CNetworkActorManager::__UpdateMainActor
PUBLIC	?__IsVisiblePos@CNetworkActorManager@@IAE_NJJ@Z	; CNetworkActorManager::__IsVisiblePos
PUBLIC	?__IsVisibleActor@CNetworkActorManager@@IAE_NABUSNetworkActorData@@@Z ; CNetworkActorManager::__IsVisibleActor
PUBLIC	?__IsMainActorVID@CNetworkActorManager@@IAE_NK@Z ; CNetworkActorManager::__IsMainActorVID
PUBLIC	?__RemoveAllGroundItems@CNetworkActorManager@@IAEXXZ ; CNetworkActorManager::__RemoveAllGroundItems
PUBLIC	?__RemoveAllActors@CNetworkActorManager@@IAEXXZ	; CNetworkActorManager::__RemoveAllActors
PUBLIC	?__RemoveDynamicActors@CNetworkActorManager@@IAEXXZ ; CNetworkActorManager::__RemoveDynamicActors
PUBLIC	?__RemoveCharacterManagerActor@CNetworkActorManager@@IAEXAAUSNetworkActorData@@@Z ; CNetworkActorManager::__RemoveCharacterManagerActor
PUBLIC	?__AppendCharacterManagerActor@CNetworkActorManager@@IAEPAVCInstanceBase@@AAUSNetworkActorData@@@Z ; CNetworkActorManager::__AppendCharacterManagerActor
PUBLIC	?__FindActor@CNetworkActorManager@@IAEPAVCInstanceBase@@AAUSNetworkActorData@@@Z ; CNetworkActorManager::__FindActor
PUBLIC	?__FindActor@CNetworkActorManager@@IAEPAVCInstanceBase@@AAUSNetworkActorData@@JJ@Z ; CNetworkActorManager::__FindActor
PUBLIC	?__GetCharacterManager@CNetworkActorManager@@IAEAAVCPythonCharacterManager@@XZ ; CNetworkActorManager::__GetCharacterManager
PUBLIC	?_Erase_unchecked@?$_Tree@V?$_Tmap_traits@KUSNetworkActorData@@U?$less@K@std@@V?$allocator@U?$pair@$$CBKUSNetworkActorData@@@std@@@3@$0A@@std@@@std@@AAEPAU?$_Tree_node@U?$pair@$$CBKUSNetworkActorData@@@std@@PAX@2@V?$_Tree_unchecked_const_iterator@V?$_Tree_val@U?$_Tree_simple_types@U?$pair@$$CBKUSNetworkActorData@@@std@@@std@@@std@@U_Iterator_base0@2@@2@@Z ; std::_Tree<std::_Tmap_traits<unsigned long,SNetworkActorData,std::less<unsigned long>,std::allocator<std::pair<unsigned long const ,SNetworkActorData> >,0> >::_Erase_unchecked
PUBLIC	?erase@?$_Tree@V?$_Tmap_traits@KUSNetworkActorData@@U?$less@K@std@@V?$allocator@U?$pair@$$CBKUSNetworkActorData@@@std@@@3@$0A@@std@@@std@@QAEIABK@Z ; std::_Tree<std::_Tmap_traits<unsigned long,SNetworkActorData,std::less<unsigned long>,std::allocator<std::pair<unsigned long const ,SNetworkActorData> >,0> >::erase
PUBLIC	?_Lrotate@?$_Tree_val@U?$_Tree_simple_types@U?$pair@$$CBKUSNetworkActorData@@@std@@@std@@@std@@QAEXPAU?$_Tree_node@U?$pair@$$CBKUSNetworkActorData@@@std@@PAX@2@@Z ; std::_Tree_val<std::_Tree_simple_types<std::pair<unsigned long const ,SNetworkActorData> > >::_Lrotate
PUBLIC	?_Rrotate@?$_Tree_val@U?$_Tree_simple_types@U?$pair@$$CBKUSNetworkActorData@@@std@@@std@@@std@@QAEXPAU?$_Tree_node@U?$pair@$$CBKUSNetworkActorData@@@std@@PAX@2@@Z ; std::_Tree_val<std::_Tree_simple_types<std::pair<unsigned long const ,SNetworkActorData> > >::_Rrotate
PUBLIC	?_Extract@?$_Tree_val@U?$_Tree_simple_types@U?$pair@$$CBKUSNetworkActorData@@@std@@@std@@@std@@QAEPAU?$_Tree_node@U?$pair@$$CBKUSNetworkActorData@@@std@@PAX@2@V?$_Tree_unchecked_const_iterator@V?$_Tree_val@U?$_Tree_simple_types@U?$pair@$$CBKUSNetworkActorData@@@std@@@std@@@std@@U_Iterator_base0@2@@2@@Z ; std::_Tree_val<std::_Tree_simple_types<std::pair<unsigned long const ,SNetworkActorData> > >::_Extract
PUBLIC	?_Insert_node@?$_Tree_val@U?$_Tree_simple_types@U?$pair@$$CBKUSNetworkActorData@@@std@@@std@@@std@@QAEPAU?$_Tree_node@U?$pair@$$CBKUSNetworkActorData@@@std@@PAX@2@U?$_Tree_id@PAU?$_Tree_node@U?$pair@$$CBKUSNetworkActorData@@@std@@PAX@std@@@2@QAU32@@Z ; std::_Tree_val<std::_Tree_simple_types<std::pair<unsigned long const ,SNetworkActorData> > >::_Insert_node
PUBLIC	??_GCNetworkActorManager@@UAEPAXI@Z		; CNetworkActorManager::`scalar deleting destructor'
PUBLIC	??E?$_Tree_unchecked_const_iterator@V?$_Tree_val@U?$_Tree_simple_types@U?$pair@$$CBKUSNetworkActorData@@@std@@@std@@@std@@U_Iterator_base0@2@@std@@QAEAAV01@XZ ; std::_Tree_unchecked_const_iterator<std::_Tree_val<std::_Tree_simple_types<std::pair<unsigned long const ,SNetworkActorData> > >,std::_Iterator_base0>::operator++
PUBLIC	??$_Erase_tree@V?$allocator@U?$_Tree_node@U?$pair@$$CBKUSNetworkActorData@@@std@@PAX@std@@@std@@@?$_Tree_val@U?$_Tree_simple_types@U?$pair@$$CBKUSNetworkActorData@@@std@@@std@@@std@@QAEXAAV?$allocator@U?$_Tree_node@U?$pair@$$CBKUSNetworkActorData@@@std@@PAX@std@@@1@PAU?$_Tree_node@U?$pair@$$CBKUSNetworkActorData@@@std@@PAX@1@@Z ; std::_Tree_val<std::_Tree_simple_types<std::pair<unsigned long const ,SNetworkActorData> > >::_Erase_tree<std::allocator<std::_Tree_node<std::pair<unsigned long const ,SNetworkActorData>,void *> > >
PUBLIC	??1?$CDynamicPoolEx@VCRotationDecorator@NEffectUpdateDecorator@@@@UAE@XZ ; CDynamicPoolEx<NEffectUpdateDecorator::CRotationDecorator>::~CDynamicPoolEx<NEffectUpdateDecorator::CRotationDecorator>
PUBLIC	?Delete@?$CDynamicPoolEx@VCRotationDecorator@NEffectUpdateDecorator@@@@KAXPAVCRotationDecorator@NEffectUpdateDecorator@@@Z ; CDynamicPoolEx<NEffectUpdateDecorator::CRotationDecorator>::Delete
PUBLIC	??1?$CDynamicPoolEx@VCGravityDecorator@NEffectUpdateDecorator@@@@UAE@XZ ; CDynamicPoolEx<NEffectUpdateDecorator::CGravityDecorator>::~CDynamicPoolEx<NEffectUpdateDecorator::CGravityDecorator>
PUBLIC	?Delete@?$CDynamicPoolEx@VCGravityDecorator@NEffectUpdateDecorator@@@@KAXPAVCGravityDecorator@NEffectUpdateDecorator@@@Z ; CDynamicPoolEx<NEffectUpdateDecorator::CGravityDecorator>::Delete
PUBLIC	??1?$CDynamicPoolEx@VCAirResistanceDecorator@NEffectUpdateDecorator@@@@UAE@XZ ; CDynamicPoolEx<NEffectUpdateDecorator::CAirResistanceDecorator>::~CDynamicPoolEx<NEffectUpdateDecorator::CAirResistanceDecorator>
PUBLIC	?Delete@?$CDynamicPoolEx@VCAirResistanceDecorator@NEffectUpdateDecorator@@@@KAXPAVCAirResistanceDecorator@NEffectUpdateDecorator@@@Z ; CDynamicPoolEx<NEffectUpdateDecorator::CAirResistanceDecorator>::Delete
PUBLIC	??1?$CDynamicPoolEx@VCTextureAnimationRandomDecorator@NEffectUpdateDecorator@@@@UAE@XZ ; CDynamicPoolEx<NEffectUpdateDecorator::CTextureAnimationRandomDecorator>::~CDynamicPoolEx<NEffectUpdateDecorator::CTextureAnimationRandomDecorator>
PUBLIC	?Delete@?$CDynamicPoolEx@VCTextureAnimationRandomDecorator@NEffectUpdateDecorator@@@@KAXPAVCTextureAnimationRandomDecorator@NEffectUpdateDecorator@@@Z ; CDynamicPoolEx<NEffectUpdateDecorator::CTextureAnimationRandomDecorator>::Delete
PUBLIC	??1?$CDynamicPoolEx@VCTextureAnimationCCWDecorator@NEffectUpdateDecorator@@@@UAE@XZ ; CDynamicPoolEx<NEffectUpdateDecorator::CTextureAnimationCCWDecorator>::~CDynamicPoolEx<NEffectUpdateDecorator::CTextureAnimationCCWDecorator>
PUBLIC	?Delete@?$CDynamicPoolEx@VCTextureAnimationCCWDecorator@NEffectUpdateDecorator@@@@KAXPAVCTextureAnimationCCWDecorator@NEffectUpdateDecorator@@@Z ; CDynamicPoolEx<NEffectUpdateDecorator::CTextureAnimationCCWDecorator>::Delete
PUBLIC	??1?$CDynamicPoolEx@VCTextureAnimationCWDecorator@NEffectUpdateDecorator@@@@UAE@XZ ; CDynamicPoolEx<NEffectUpdateDecorator::CTextureAnimationCWDecorator>::~CDynamicPoolEx<NEffectUpdateDecorator::CTextureAnimationCWDecorator>
PUBLIC	?Delete@?$CDynamicPoolEx@VCTextureAnimationCWDecorator@NEffectUpdateDecorator@@@@KAXPAVCTextureAnimationCWDecorator@NEffectUpdateDecorator@@@Z ; CDynamicPoolEx<NEffectUpdateDecorator::CTextureAnimationCWDecorator>::Delete
PUBLIC	??1?$CDynamicPoolEx@VCNullDecorator@NEffectUpdateDecorator@@@@UAE@XZ ; CDynamicPoolEx<NEffectUpdateDecorator::CNullDecorator>::~CDynamicPoolEx<NEffectUpdateDecorator::CNullDecorator>
PUBLIC	?Delete@?$CDynamicPoolEx@VCNullDecorator@NEffectUpdateDecorator@@@@KAXPAVCNullDecorator@NEffectUpdateDecorator@@@Z ; CDynamicPoolEx<NEffectUpdateDecorator::CNullDecorator>::Delete
PUBLIC	??1?$CDynamicPoolEx@VCHeaderDecorator@NEffectUpdateDecorator@@@@UAE@XZ ; CDynamicPoolEx<NEffectUpdateDecorator::CHeaderDecorator>::~CDynamicPoolEx<NEffectUpdateDecorator::CHeaderDecorator>
PUBLIC	?Delete@?$CDynamicPoolEx@VCHeaderDecorator@NEffectUpdateDecorator@@@@KAXPAVCHeaderDecorator@NEffectUpdateDecorator@@@Z ; CDynamicPoolEx<NEffectUpdateDecorator::CHeaderDecorator>::Delete
PUBLIC	??$_Emplace_reallocate@K@?$vector@KV?$allocator@K@std@@@std@@QAEPAKQAK$$QAK@Z ; std::vector<unsigned long,std::allocator<unsigned long> >::_Emplace_reallocate<unsigned long>
PUBLIC	??$_Pocca@V?$allocator@D@std@@@std@@YAXAAV?$allocator@D@0@ABV10@@Z ; std::_Pocca<std::allocator<char> >
PUBLIC	??$_Destroy_range@V?$allocator@K@std@@@std@@YAXPAKQAKAAV?$allocator@K@0@@Z ; std::_Destroy_range<std::allocator<unsigned long> >
PUBLIC	??$_Destroy_range@V?$allocator@PAVCHeaderDecorator@NEffectUpdateDecorator@@@std@@@std@@YAXPAPAVCHeaderDecorator@NEffectUpdateDecorator@@QAPAV12@AAV?$allocator@PAVCHeaderDecorator@NEffectUpdateDecorator@@@0@@Z ; std::_Destroy_range<std::allocator<NEffectUpdateDecorator::CHeaderDecorator *> >
PUBLIC	??$_Destroy_range@V?$allocator@PAVCNullDecorator@NEffectUpdateDecorator@@@std@@@std@@YAXPAPAVCNullDecorator@NEffectUpdateDecorator@@QAPAV12@AAV?$allocator@PAVCNullDecorator@NEffectUpdateDecorator@@@0@@Z ; std::_Destroy_range<std::allocator<NEffectUpdateDecorator::CNullDecorator *> >
PUBLIC	??$_Destroy_range@V?$allocator@PAVCTextureAnimationCWDecorator@NEffectUpdateDecorator@@@std@@@std@@YAXPAPAVCTextureAnimationCWDecorator@NEffectUpdateDecorator@@QAPAV12@AAV?$allocator@PAVCTextureAnimationCWDecorator@NEffectUpdateDecorator@@@0@@Z ; std::_Destroy_range<std::allocator<NEffectUpdateDecorator::CTextureAnimationCWDecorator *> >
PUBLIC	??$_Destroy_range@V?$allocator@PAVCTextureAnimationCCWDecorator@NEffectUpdateDecorator@@@std@@@std@@YAXPAPAVCTextureAnimationCCWDecorator@NEffectUpdateDecorator@@QAPAV12@AAV?$allocator@PAVCTextureAnimationCCWDecorator@NEffectUpdateDecorator@@@0@@Z ; std::_Destroy_range<std::allocator<NEffectUpdateDecorator::CTextureAnimationCCWDecorator *> >
PUBLIC	??$_Destroy_range@V?$allocator@PAVCTextureAnimationRandomDecorator@NEffectUpdateDecorator@@@std@@@std@@YAXPAPAVCTextureAnimationRandomDecorator@NEffectUpdateDecorator@@QAPAV12@AAV?$allocator@PAVCTextureAnimationRandomDecorator@NEffectUpdateDecorator@@@0@@Z ; std::_Destroy_range<std::allocator<NEffectUpdateDecorator::CTextureAnimationRandomDecorator *> >
PUBLIC	??$_Destroy_range@V?$allocator@PAVCAirResistanceDecorator@NEffectUpdateDecorator@@@std@@@std@@YAXPAPAVCAirResistanceDecorator@NEffectUpdateDecorator@@QAPAV12@AAV?$allocator@PAVCAirResistanceDecorator@NEffectUpdateDecorator@@@0@@Z ; std::_Destroy_range<std::allocator<NEffectUpdateDecorator::CAirResistanceDecorator *> >
PUBLIC	??$_Destroy_range@V?$allocator@PAVCGravityDecorator@NEffectUpdateDecorator@@@std@@@std@@YAXPAPAVCGravityDecorator@NEffectUpdateDecorator@@QAPAV12@AAV?$allocator@PAVCGravityDecorator@NEffectUpdateDecorator@@@0@@Z ; std::_Destroy_range<std::allocator<NEffectUpdateDecorator::CGravityDecorator *> >
PUBLIC	??$_Destroy_range@V?$allocator@PAVCRotationDecorator@NEffectUpdateDecorator@@@std@@@std@@YAXPAPAVCRotationDecorator@NEffectUpdateDecorator@@QAPAV12@AAV?$allocator@PAVCRotationDecorator@NEffectUpdateDecorator@@@0@@Z ; std::_Destroy_range<std::allocator<NEffectUpdateDecorator::CRotationDecorator *> >
PUBLIC	??$_Find_lower_bound@K@?$_Tree@V?$_Tmap_traits@KUSNetworkActorData@@U?$less@K@std@@V?$allocator@U?$pair@$$CBKUSNetworkActorData@@@std@@@3@$0A@@std@@@std@@IBE?AU?$_Tree_find_result@PAU?$_Tree_node@U?$pair@$$CBKUSNetworkActorData@@@std@@PAX@std@@@1@ABK@Z ; std::_Tree<std::_Tmap_traits<unsigned long,SNetworkActorData,std::less<unsigned long>,std::allocator<std::pair<unsigned long const ,SNetworkActorData> >,0> >::_Find_lower_bound<unsigned long>
PUBLIC	??1?$_Alloc_construct_ptr@V?$allocator@U?$_Tree_node@U?$pair@$$CBKUSNetworkActorData@@@std@@PAX@std@@@std@@@std@@QAE@XZ ; std::_Alloc_construct_ptr<std::allocator<std::_Tree_node<std::pair<unsigned long const ,SNetworkActorData>,void *> > >::~_Alloc_construct_ptr<std::allocator<std::_Tree_node<std::pair<unsigned long const ,SNetworkActorData>,void *> > >
PUBLIC	??1?$_Tree_temp_node_alloc@V?$allocator@U?$_Tree_node@U?$pair@$$CBKUSNetworkActorData@@@std@@PAX@std@@@std@@@std@@QAE@XZ ; std::_Tree_temp_node_alloc<std::allocator<std::_Tree_node<std::pair<unsigned long const ,SNetworkActorData>,void *> > >::~_Tree_temp_node_alloc<std::allocator<std::_Tree_node<std::pair<unsigned long const ,SNetworkActorData>,void *> > >
PUBLIC	??$_Construct_in_place@PAU?$_Tree_node@U?$pair@$$CBKUSNetworkActorData@@@std@@PAX@std@@ABQAU12@@std@@YAXAAPAU?$_Tree_node@U?$pair@$$CBKUSNetworkActorData@@@std@@PAX@0@ABQAU10@@Z ; std::_Construct_in_place<std::_Tree_node<std::pair<unsigned long const ,SNetworkActorData>,void *> *,std::_Tree_node<std::pair<unsigned long const ,SNetworkActorData>,void *> * const &>
PUBLIC	??$_Destroy_in_place@PAU?$_Tree_node@U?$pair@$$CBKUSNetworkActorData@@@std@@PAX@std@@@std@@YAXAAPAU?$_Tree_node@U?$pair@$$CBKUSNetworkActorData@@@std@@PAX@0@@Z ; std::_Destroy_in_place<std::_Tree_node<std::pair<unsigned long const ,SNetworkActorData>,void *> *>
PUBLIC	??$_Uninitialized_move@PAKV?$allocator@K@std@@@std@@YAPAKQAK0PAKAAV?$allocator@K@0@@Z ; std::_Uninitialized_move<unsigned long *,std::allocator<unsigned long> >
PUBLIC	??$_Construct_in_place@PAU?$_Tree_node@U?$pair@$$CBKUSNetworkActorData@@@std@@PAX@std@@AAPAU12@@std@@YAXAAPAU?$_Tree_node@U?$pair@$$CBKUSNetworkActorData@@@std@@PAX@0@0@Z ; std::_Construct_in_place<std::_Tree_node<std::pair<unsigned long const ,SNetworkActorData>,void *> *,std::_Tree_node<std::pair<unsigned long const ,SNetworkActorData>,void *> * &>
PUBLIC	??$_Copy_memmove@PAKPAK@std@@YAPAKPAK00@Z	; std::_Copy_memmove<unsigned long *,unsigned long *>
PUBLIC	??_7exception@std@@6B@				; std::exception::`vftable'
PUBLIC	??_C@_0BC@EOODALEL@Unknown?5exception@		; `string'
PUBLIC	??_7bad_alloc@std@@6B@				; std::bad_alloc::`vftable'
PUBLIC	??_7bad_array_new_length@std@@6B@		; std::bad_array_new_length::`vftable'
PUBLIC	??_C@_0BF@KINCDENJ@bad?5array?5new?5length@	; `string'
PUBLIC	__TI3?AVbad_array_new_length@std@@
PUBLIC	__CTA3?AVbad_array_new_length@std@@
PUBLIC	??_R0?AVbad_array_new_length@std@@@8		; std::bad_array_new_length `RTTI Type Descriptor'
PUBLIC	__CT??_R0?AVbad_array_new_length@std@@@8??0bad_array_new_length@std@@QAE@ABV01@@Z12
PUBLIC	??_R0?AVbad_alloc@std@@@8			; std::bad_alloc `RTTI Type Descriptor'
PUBLIC	__CT??_R0?AVbad_alloc@std@@@8??0bad_alloc@std@@QAE@ABV01@@Z12
PUBLIC	??_R0?AVexception@std@@@8			; std::exception `RTTI Type Descriptor'
PUBLIC	__CT??_R0?AVexception@std@@@8??0exception@std@@QAE@ABV01@@Z12
PUBLIC	??_C@_0BA@JFNIOLAK@string?5too?5long@		; `string'
PUBLIC	??_C@_0BB@GCADKGJO@map?1set?5too?5long@		; `string'
PUBLIC	??_C@_0BA@FOIKENOD@vector?5too?5long@		; `string'
PUBLIC	??_R4exception@std@@6B@				; std::exception::`RTTI Complete Object Locator'
PUBLIC	??_R3exception@std@@8				; std::exception::`RTTI Class Hierarchy Descriptor'
PUBLIC	??_R2exception@std@@8				; std::exception::`RTTI Base Class Array'
PUBLIC	??_R1A@?0A@EA@exception@std@@8			; std::exception::`RTTI Base Class Descriptor at (0,-1,0,64)'
PUBLIC	??_R4bad_alloc@std@@6B@				; std::bad_alloc::`RTTI Complete Object Locator'
PUBLIC	??_R3bad_alloc@std@@8				; std::bad_alloc::`RTTI Class Hierarchy Descriptor'
PUBLIC	??_R2bad_alloc@std@@8				; std::bad_alloc::`RTTI Base Class Array'
PUBLIC	??_R1A@?0A@EA@bad_alloc@std@@8			; std::bad_alloc::`RTTI Base Class Descriptor at (0,-1,0,64)'
PUBLIC	??_R4bad_array_new_length@std@@6B@		; std::bad_array_new_length::`RTTI Complete Object Locator'
PUBLIC	??_R3bad_array_new_length@std@@8		; std::bad_array_new_length::`RTTI Class Hierarchy Descriptor'
PUBLIC	??_R2bad_array_new_length@std@@8		; std::bad_array_new_length::`RTTI Base Class Array'
PUBLIC	??_R1A@?0A@EA@bad_array_new_length@std@@8	; std::bad_array_new_length::`RTTI Base Class Descriptor at (0,-1,0,64)'
PUBLIC	?ms_kPool@?$CPooledObject@VCHeaderDecorator@NEffectUpdateDecorator@@@@1V?$CDynamicPoolEx@VCHeaderDecorator@NEffectUpdateDecorator@@@@A ; CPooledObject<NEffectUpdateDecorator::CHeaderDecorator>::ms_kPool
PUBLIC	?ms_kPool@?$CPooledObject@VCNullDecorator@NEffectUpdateDecorator@@@@1V?$CDynamicPoolEx@VCNullDecorator@NEffectUpdateDecorator@@@@A ; CPooledObject<NEffectUpdateDecorator::CNullDecorator>::ms_kPool
PUBLIC	?ms_kPool@?$CPooledObject@VCTextureAnimationCWDecorator@NEffectUpdateDecorator@@@@1V?$CDynamicPoolEx@VCTextureAnimationCWDecorator@NEffectUpdateDecorator@@@@A ; CPooledObject<NEffectUpdateDecorator::CTextureAnimationCWDecorator>::ms_kPool
PUBLIC	?ms_kPool@?$CPooledObject@VCTextureAnimationCCWDecorator@NEffectUpdateDecorator@@@@1V?$CDynamicPoolEx@VCTextureAnimationCCWDecorator@NEffectUpdateDecorator@@@@A ; CPooledObject<NEffectUpdateDecorator::CTextureAnimationCCWDecorator>::ms_kPool
PUBLIC	?ms_kPool@?$CPooledObject@VCTextureAnimationRandomDecorator@NEffectUpdateDecorator@@@@1V?$CDynamicPoolEx@VCTextureAnimationRandomDecorator@NEffectUpdateDecorator@@@@A ; CPooledObject<NEffectUpdateDecorator::CTextureAnimationRandomDecorator>::ms_kPool
PUBLIC	?ms_kPool@?$CPooledObject@VCAirResistanceDecorator@NEffectUpdateDecorator@@@@1V?$CDynamicPoolEx@VCAirResistanceDecorator@NEffectUpdateDecorator@@@@A ; CPooledObject<NEffectUpdateDecorator::CAirResistanceDecorator>::ms_kPool
PUBLIC	?ms_kPool@?$CPooledObject@VCGravityDecorator@NEffectUpdateDecorator@@@@1V?$CDynamicPoolEx@VCGravityDecorator@NEffectUpdateDecorator@@@@A ; CPooledObject<NEffectUpdateDecorator::CGravityDecorator>::ms_kPool
PUBLIC	?ms_kPool@?$CPooledObject@VCRotationDecorator@NEffectUpdateDecorator@@@@1V?$CDynamicPoolEx@VCRotationDecorator@NEffectUpdateDecorator@@@@A ; CPooledObject<NEffectUpdateDecorator::CRotationDecorator>::ms_kPool
PUBLIC	??_7CNetworkActorManager@@6B@			; CNetworkActorManager::`vftable'
PUBLIC	?ms_singleton@?$CSingleton@VCPythonCharacterManager@@@@0PAVCPythonCharacterManager@@A ; CSingleton<CPythonCharacterManager>::ms_singleton
PUBLIC	?ms_singleton@?$CSingleton@VCPythonItem@@@@0PAVCPythonItem@@A ; CSingleton<CPythonItem>::ms_singleton
PUBLIC	?ms_singleton@?$TAbstractSingleton@VIAbstractPlayer@@@@0PAVIAbstractPlayer@@A ; TAbstractSingleton<IAbstractPlayer>::ms_singleton
PUBLIC	??_C@_0DM@DKEOKINK@CNetworkActorManager?3?3__AppendC@ ; `string'
PUBLIC	??_R4CNetworkActorManager@@6B@			; CNetworkActorManager::`RTTI Complete Object Locator'
PUBLIC	??_R0?AVCNetworkActorManager@@@8		; CNetworkActorManager `RTTI Type Descriptor'
PUBLIC	??_R3CNetworkActorManager@@8			; CNetworkActorManager::`RTTI Class Hierarchy Descriptor'
PUBLIC	??_R2CNetworkActorManager@@8			; CNetworkActorManager::`RTTI Base Class Array'
PUBLIC	??_R1A@?0A@EA@CNetworkActorManager@@8		; CNetworkActorManager::`RTTI Base Class Descriptor at (0,-1,0,64)'
PUBLIC	??_R1A@?0A@EA@CReferenceObject@@8		; CReferenceObject::`RTTI Base Class Descriptor at (0,-1,0,64)'
PUBLIC	??_R0?AVCReferenceObject@@@8			; CReferenceObject `RTTI Type Descriptor'
PUBLIC	??_R3CReferenceObject@@8			; CReferenceObject::`RTTI Class Hierarchy Descriptor'
PUBLIC	??_R2CReferenceObject@@8			; CReferenceObject::`RTTI Base Class Array'
PUBLIC	__xmm@41f00000000000000000000000000000
PUBLIC	__xmm@80000000800000008000000080000000
EXTRN	??2@YAPAXI@Z:PROC				; operator new
EXTRN	??3@YAXPAX@Z:PROC				; operator delete
EXTRN	??3@YAXPAXI@Z:PROC				; operator delete
EXTRN	_atexit:PROC
EXTRN	__invalid_parameter_noinfo_noreturn:PROC
EXTRN	___std_exception_copy:PROC
EXTRN	___std_exception_destroy:PROC
EXTRN	??_Eexception@std@@UAEPAXI@Z:PROC		; std::exception::`vector deleting destructor'
EXTRN	??_Ebad_alloc@std@@UAEPAXI@Z:PROC		; std::bad_alloc::`vector deleting destructor'
EXTRN	??_Ebad_array_new_length@std@@UAEPAXI@Z:PROC	; std::bad_array_new_length::`vector deleting destructor'
EXTRN	?_Xlength_error@std@@YAXPBD@Z:PROC		; std::_Xlength_error
EXTRN	?Lognf@@YAXIPBDZZ:PROC				; Lognf
EXTRN	?ELTimer_GetMSec@@YAKXZ:PROC			; ELTimer_GetMSec
EXTRN	??0CReferenceObject@@QAE@XZ:PROC		; CReferenceObject::CReferenceObject
EXTRN	??1CReferenceObject@@UAE@XZ:PROC		; CReferenceObject::~CReferenceObject
EXTRN	?OnConstruct@CReferenceObject@@MAEXXZ:PROC	; CReferenceObject::OnConstruct
EXTRN	?OnSelfDestruct@CReferenceObject@@MAEXXZ:PROC	; CReferenceObject::OnSelfDestruct
EXTRN	?IsPC@CActorInstance@@QAE_NXZ:PROC		; CActorInstance::IsPC
EXTRN	?IsNPC@CActorInstance@@QAE_NXZ:PROC		; CActorInstance::IsNPC
EXTRN	?IsEnemy@CActorInstance@@QAE_NXZ:PROC		; CActorInstance::IsEnemy
EXTRN	?GetPixelPosition@CActorInstance@@QAEXPAUD3DXVECTOR3@@@Z:PROC ; CActorInstance::GetPixelPosition
EXTRN	??0CAffectFlagContainer@@QAE@XZ:PROC		; CAffectFlagContainer::CAffectFlagContainer
EXTRN	??1CAffectFlagContainer@@QAE@XZ:PROC		; CAffectFlagContainer::~CAffectFlagContainer
EXTRN	?Clear@CAffectFlagContainer@@QAEXXZ:PROC	; CAffectFlagContainer::Clear
EXTRN	?CopyInstance@CAffectFlagContainer@@QAEXABV1@@Z:PROC ; CAffectFlagContainer::CopyInstance
EXTRN	?IsSet@CAffectFlagContainer@@QBE_NI@Z:PROC	; CAffectFlagContainer::IsSet
EXTRN	?SetAlignment@CInstanceBase@@QAEXF@Z:PROC	; CInstanceBase::SetAlignment
EXTRN	?SetPKMode@CInstanceBase@@QAEXE@Z:PROC		; CInstanceBase::SetPKMode
EXTRN	?SetStateFlags@CInstanceBase@@QAEXK@Z:PROC	; CInstanceBase::SetStateFlags
EXTRN	?ChangeArmor@CInstanceBase@@QAE_NK@Z:PROC	; CInstanceBase::ChangeArmor
EXTRN	?ChangeWeapon@CInstanceBase@@QAEXK@Z:PROC	; CInstanceBase::ChangeWeapon
EXTRN	?ChangeHair@CInstanceBase@@QAEXK@Z:PROC		; CInstanceBase::ChangeHair
EXTRN	?ChangeGuild@CInstanceBase@@QAEXK@Z:PROC	; CInstanceBase::ChangeGuild
EXTRN	?SetAttackSpeed@CInstanceBase@@QAEXI@Z:PROC	; CInstanceBase::SetAttackSpeed
EXTRN	?SetMoveSpeed@CInstanceBase@@QAEXI@Z:PROC	; CInstanceBase::SetMoveSpeed
EXTRN	?GetVirtualID@CInstanceBase@@QAEKXZ:PROC	; CInstanceBase::GetVirtualID
EXTRN	?IsMountingHorse@CInstanceBase@@QAEHXZ:PROC	; CInstanceBase::IsMountingHorse
EXTRN	?PushTCPState@CInstanceBase@@QAEXKABUD3DXVECTOR3@@MII@Z:PROC ; CInstanceBase::PushTCPState
EXTRN	?NEW_SetOwner@CInstanceBase@@QAEXK@Z:PROC	; CInstanceBase::NEW_SetOwner
EXTRN	?NEW_SyncPixelPosition@CInstanceBase@@QAEXAAJ0@Z:PROC ; CInstanceBase::NEW_SyncPixelPosition
EXTRN	?NEW_GetPixelPosition@CInstanceBase@@QAEXPAUD3DXVECTOR3@@@Z:PROC ; CInstanceBase::NEW_GetPixelPosition
EXTRN	?GetGraphicThingInstancePtr@CInstanceBase@@QAEPAVCActorInstance@@XZ:PROC ; CInstanceBase::GetGraphicThingInstancePtr
EXTRN	?SetAffectFlagContainer@CInstanceBase@@QAEXABVCAffectFlagContainer@@@Z:PROC ; CInstanceBase::SetAffectFlagContainer
EXTRN	??_ECNetworkActorManager@@UAEPAXI@Z:PROC	; CNetworkActorManager::`vector deleting destructor'
EXTRN	?GetMainInstancePtr@CPythonCharacterManager@@QAEPAVCInstanceBase@@XZ:PROC ; CPythonCharacterManager::GetMainInstancePtr
EXTRN	?DeleteAllInstances@CPythonCharacterManager@@QAEXXZ:PROC ; CPythonCharacterManager::DeleteAllInstances
EXTRN	?CreateInstance@CPythonCharacterManager@@QAEPAVCInstanceBase@@ABUSCreateData@2@@Z:PROC ; CPythonCharacterManager::CreateInstance
EXTRN	?DeleteInstance@CPythonCharacterManager@@QAEXK@Z:PROC ; CPythonCharacterManager::DeleteInstance
EXTRN	?DeleteInstanceByFade@CPythonCharacterManager@@QAEXK@Z:PROC ; CPythonCharacterManager::DeleteInstanceByFade
EXTRN	?DestroyDeadInstanceList@CPythonCharacterManager@@QAEXXZ:PROC ; CPythonCharacterManager::DestroyDeadInstanceList
EXTRN	?DeleteAllItems@CPythonItem@@QAEXXZ:PROC	; CPythonItem::DeleteAllItems
EXTRN	?IsWall@@YA_NI@Z:PROC				; IsWall
EXTRN	@__security_check_cookie@4:PROC
EXTRN	__CxxThrowException@8:PROC
EXTRN	___CxxFrameHandler3:PROC
EXTRN	__libm_sse2_sqrt_precise:PROC
EXTRN	_memcpy:PROC
EXTRN	_memmove:PROC
EXTRN	?CHAR_STAGE_VIEW_BOUND@@3HA:DWORD		; CHAR_STAGE_VIEW_BOUND
EXTRN	___security_cookie:DWORD
EXTRN	__fltused:DWORD
;	COMDAT ?ms_singleton@?$CSingleton@VCPythonCharacterManager@@@@0PAVCPythonCharacterManager@@A
_BSS	SEGMENT
?ms_singleton@?$CSingleton@VCPythonCharacterManager@@@@0PAVCPythonCharacterManager@@A DD 01H DUP (?) ; CSingleton<CPythonCharacterManager>::ms_singleton
_BSS	ENDS
;	COMDAT ?ms_singleton@?$CSingleton@VCPythonItem@@@@0PAVCPythonItem@@A
_BSS	SEGMENT
?ms_singleton@?$CSingleton@VCPythonItem@@@@0PAVCPythonItem@@A DD 01H DUP (?) ; CSingleton<CPythonItem>::ms_singleton
_BSS	ENDS
;	COMDAT ?ms_singleton@?$TAbstractSingleton@VIAbstractPlayer@@@@0PAVIAbstractPlayer@@A
_BSS	SEGMENT
?ms_singleton@?$TAbstractSingleton@VIAbstractPlayer@@@@0PAVIAbstractPlayer@@A DD 01H DUP (?) ; TAbstractSingleton<IAbstractPlayer>::ms_singleton
_BSS	ENDS
;	COMDAT CRT$XCU
CRT$XCU	SEGMENT
??ms_kPool$initializer$@?$CPooledObject@VCHeaderDecorator@NEffectUpdateDecorator@@@@1P6AXXZA@@3P6AXXZA DD FLAT:??__E?ms_kPool@?$CPooledObject@VCHeaderDecorator@NEffectUpdateDecorator@@@@1V?$CDynamicPoolEx@VCHeaderDecorator@NEffectUpdateDecorator@@@@A@@YAXXZ ; ??ms_kPool$initializer$@?$CPooledObject@VCHeaderDecorator@NEffectUpdateDecorator@@@@1P6AXXZA@@3P6AXXZA
CRT$XCU	ENDS
;	COMDAT __xmm@80000000800000008000000080000000
CONST	SEGMENT
__xmm@80000000800000008000000080000000 DB 00H, 00H, 00H, 080H, 00H, 00H, 00H
	DB	080H, 00H, 00H, 00H, 080H, 00H, 00H, 00H, 080H
CONST	ENDS
;	COMDAT __xmm@41f00000000000000000000000000000
CONST	SEGMENT
__xmm@41f00000000000000000000000000000 DB 00H, 00H, 00H, 00H, 00H, 00H, 00H
	DB	00H, 00H, 00H, 00H, 00H, 00H, 00H, 0f0H, 'A'
CONST	ENDS
;	COMDAT ??_R2CReferenceObject@@8
rdata$r	SEGMENT
??_R2CReferenceObject@@8 DD FLAT:??_R1A@?0A@EA@CReferenceObject@@8 ; CReferenceObject::`RTTI Base Class Array'
rdata$r	ENDS
;	COMDAT ??_R3CReferenceObject@@8
rdata$r	SEGMENT
??_R3CReferenceObject@@8 DD 00H				; CReferenceObject::`RTTI Class Hierarchy Descriptor'
	DD	00H
	DD	01H
	DD	FLAT:??_R2CReferenceObject@@8
rdata$r	ENDS
;	COMDAT ??_R0?AVCReferenceObject@@@8
data$rs	SEGMENT
??_R0?AVCReferenceObject@@@8 DD FLAT:??_7type_info@@6B@	; CReferenceObject `RTTI Type Descriptor'
	DD	00H
	DB	'.?AVCReferenceObject@@', 00H
data$rs	ENDS
;	COMDAT ??_R1A@?0A@EA@CReferenceObject@@8
rdata$r	SEGMENT
??_R1A@?0A@EA@CReferenceObject@@8 DD FLAT:??_R0?AVCReferenceObject@@@8 ; CReferenceObject::`RTTI Base Class Descriptor at (0,-1,0,64)'
	DD	00H
	DD	00H
	DD	0ffffffffH
	DD	00H
	DD	040H
	DD	FLAT:??_R3CReferenceObject@@8
rdata$r	ENDS
;	COMDAT ??_R1A@?0A@EA@CNetworkActorManager@@8
rdata$r	SEGMENT
??_R1A@?0A@EA@CNetworkActorManager@@8 DD FLAT:??_R0?AVCNetworkActorManager@@@8 ; CNetworkActorManager::`RTTI Base Class Descriptor at (0,-1,0,64)'
	DD	01H
	DD	00H
	DD	0ffffffffH
	DD	00H
	DD	040H
	DD	FLAT:??_R3CNetworkActorManager@@8
rdata$r	ENDS
;	COMDAT ??_R2CNetworkActorManager@@8
rdata$r	SEGMENT
??_R2CNetworkActorManager@@8 DD FLAT:??_R1A@?0A@EA@CNetworkActorManager@@8 ; CNetworkActorManager::`RTTI Base Class Array'
	DD	FLAT:??_R1A@?0A@EA@CReferenceObject@@8
rdata$r	ENDS
;	COMDAT ??_R3CNetworkActorManager@@8
rdata$r	SEGMENT
??_R3CNetworkActorManager@@8 DD 00H			; CNetworkActorManager::`RTTI Class Hierarchy Descriptor'
	DD	00H
	DD	02H
	DD	FLAT:??_R2CNetworkActorManager@@8
rdata$r	ENDS
;	COMDAT ??_R0?AVCNetworkActorManager@@@8
data$rs	SEGMENT
??_R0?AVCNetworkActorManager@@@8 DD FLAT:??_7type_info@@6B@ ; CNetworkActorManager `RTTI Type Descriptor'
	DD	00H
	DB	'.?AVCNetworkActorManager@@', 00H
data$rs	ENDS
;	COMDAT ??_R4CNetworkActorManager@@6B@
rdata$r	SEGMENT
??_R4CNetworkActorManager@@6B@ DD 00H			; CNetworkActorManager::`RTTI Complete Object Locator'
	DD	00H
	DD	00H
	DD	FLAT:??_R0?AVCNetworkActorManager@@@8
	DD	FLAT:??_R3CNetworkActorManager@@8
rdata$r	ENDS
;	COMDAT ??_C@_0DM@DKEOKINK@CNetworkActorManager?3?3__AppendC@
CONST	SEGMENT
??_C@_0DM@DKEOKINK@CNetworkActorManager?3?3__AppendC@ DB 'CNetworkActorMa'
	DB	'nager::__AppendCharacterManagerActor(%d, %s)', 00H ; `string'
CONST	ENDS
;	COMDAT ??_7CNetworkActorManager@@6B@
CONST	SEGMENT
??_7CNetworkActorManager@@6B@ DD FLAT:??_R4CNetworkActorManager@@6B@ ; CNetworkActorManager::`vftable'
	DD	FLAT:??_ECNetworkActorManager@@UAEPAXI@Z
	DD	FLAT:?OnConstruct@CReferenceObject@@MAEXXZ
	DD	FLAT:?OnSelfDestruct@CReferenceObject@@MAEXXZ
CONST	ENDS
;	COMDAT ?ms_kPool@?$CPooledObject@VCRotationDecorator@NEffectUpdateDecorator@@@@1V?$CDynamicPoolEx@VCRotationDecorator@NEffectUpdateDecorator@@@@A
_DATA	SEGMENT
?ms_kPool@?$CPooledObject@VCRotationDecorator@NEffectUpdateDecorator@@@@1V?$CDynamicPoolEx@VCRotationDecorator@NEffectUpdateDecorator@@@@A DD FLAT:??_7?$CDynamicPoolEx@VCRotationDecorator@NEffectUpdateDecorator@@@@6B@ ; CPooledObject<NEffectUpdateDecorator::CRotationDecorator>::ms_kPool
	DD	00H
	DD	00H
	DD	00H
	DD	00H
	DD	00H
	DD	00H
	DD	00H
	DD	00H
_DATA	ENDS
;	COMDAT ?ms_kPool@?$CPooledObject@VCGravityDecorator@NEffectUpdateDecorator@@@@1V?$CDynamicPoolEx@VCGravityDecorator@NEffectUpdateDecorator@@@@A
_DATA	SEGMENT
?ms_kPool@?$CPooledObject@VCGravityDecorator@NEffectUpdateDecorator@@@@1V?$CDynamicPoolEx@VCGravityDecorator@NEffectUpdateDecorator@@@@A DD FLAT:??_7?$CDynamicPoolEx@VCGravityDecorator@NEffectUpdateDecorator@@@@6B@ ; CPooledObject<NEffectUpdateDecorator::CGravityDecorator>::ms_kPool
	DD	00H
	DD	00H
	DD	00H
	DD	00H
	DD	00H
	DD	00H
	DD	00H
	DD	00H
_DATA	ENDS
;	COMDAT ?ms_kPool@?$CPooledObject@VCAirResistanceDecorator@NEffectUpdateDecorator@@@@1V?$CDynamicPoolEx@VCAirResistanceDecorator@NEffectUpdateDecorator@@@@A
_DATA	SEGMENT
?ms_kPool@?$CPooledObject@VCAirResistanceDecorator@NEffectUpdateDecorator@@@@1V?$CDynamicPoolEx@VCAirResistanceDecorator@NEffectUpdateDecorator@@@@A DD FLAT:??_7?$CDynamicPoolEx@VCAirResistanceDecorator@NEffectUpdateDecorator@@@@6B@ ; CPooledObject<NEffectUpdateDecorator::CAirResistanceDecorator>::ms_kPool
	DD	00H
	DD	00H
	DD	00H
	DD	00H
	DD	00H
	DD	00H
	DD	00H
	DD	00H
_DATA	ENDS
;	COMDAT ?ms_kPool@?$CPooledObject@VCTextureAnimationRandomDecorator@NEffectUpdateDecorator@@@@1V?$CDynamicPoolEx@VCTextureAnimationRandomDecorator@NEffectUpdateDecorator@@@@A
_DATA	SEGMENT
?ms_kPool@?$CPooledObject@VCTextureAnimationRandomDecorator@NEffectUpdateDecorator@@@@1V?$CDynamicPoolEx@VCTextureAnimationRandomDecorator@NEffectUpdateDecorator@@@@A DD FLAT:??_7?$CDynamicPoolEx@VCTextureAnimationRandomDecorator@NEffectUpdateDecorator@@@@6B@ ; CPooledObject<NEffectUpdateDecorator::CTextureAnimationRandomDecorator>::ms_kPool
	DD	00H
	DD	00H
	DD	00H
	DD	00H
	DD	00H
	DD	00H
	DD	00H
	DD	00H
_DATA	ENDS
;	COMDAT ?ms_kPool@?$CPooledObject@VCTextureAnimationCCWDecorator@NEffectUpdateDecorator@@@@1V?$CDynamicPoolEx@VCTextureAnimationCCWDecorator@NEffectUpdateDecorator@@@@A
_DATA	SEGMENT
?ms_kPool@?$CPooledObject@VCTextureAnimationCCWDecorator@NEffectUpdateDecorator@@@@1V?$CDynamicPoolEx@VCTextureAnimationCCWDecorator@NEffectUpdateDecorator@@@@A DD FLAT:??_7?$CDynamicPoolEx@VCTextureAnimationCCWDecorator@NEffectUpdateDecorator@@@@6B@ ; CPooledObject<NEffectUpdateDecorator::CTextureAnimationCCWDecorator>::ms_kPool
	DD	00H
	DD	00H
	DD	00H
	DD	00H
	DD	00H
	DD	00H
	DD	00H
	DD	00H
_DATA	ENDS
;	COMDAT ?ms_kPool@?$CPooledObject@VCTextureAnimationCWDecorator@NEffectUpdateDecorator@@@@1V?$CDynamicPoolEx@VCTextureAnimationCWDecorator@NEffectUpdateDecorator@@@@A
_DATA	SEGMENT
?ms_kPool@?$CPooledObject@VCTextureAnimationCWDecorator@NEffectUpdateDecorator@@@@1V?$CDynamicPoolEx@VCTextureAnimationCWDecorator@NEffectUpdateDecorator@@@@A DD FLAT:??_7?$CDynamicPoolEx@VCTextureAnimationCWDecorator@NEffectUpdateDecorator@@@@6B@ ; CPooledObject<NEffectUpdateDecorator::CTextureAnimationCWDecorator>::ms_kPool
	DD	00H
	DD	00H
	DD	00H
	DD	00H
	DD	00H
	DD	00H
	DD	00H
	DD	00H
_DATA	ENDS
;	COMDAT ?ms_kPool@?$CPooledObject@VCNullDecorator@NEffectUpdateDecorator@@@@1V?$CDynamicPoolEx@VCNullDecorator@NEffectUpdateDecorator@@@@A
_DATA	SEGMENT
?ms_kPool@?$CPooledObject@VCNullDecorator@NEffectUpdateDecorator@@@@1V?$CDynamicPoolEx@VCNullDecorator@NEffectUpdateDecorator@@@@A DD FLAT:??_7?$CDynamicPoolEx@VCNullDecorator@NEffectUpdateDecorator@@@@6B@ ; CPooledObject<NEffectUpdateDecorator::CNullDecorator>::ms_kPool
	DD	00H
	DD	00H
	DD	00H
	DD	00H
	DD	00H
	DD	00H
	DD	00H
	DD	00H
_DATA	ENDS
;	COMDAT ?ms_kPool@?$CPooledObject@VCHeaderDecorator@NEffectUpdateDecorator@@@@1V?$CDynamicPoolEx@VCHeaderDecorator@NEffectUpdateDecorator@@@@A
_DATA	SEGMENT
?ms_kPool@?$CPooledObject@VCHeaderDecorator@NEffectUpdateDecorator@@@@1V?$CDynamicPoolEx@VCHeaderDecorator@NEffectUpdateDecorator@@@@A DD FLAT:??_7?$CDynamicPoolEx@VCHeaderDecorator@NEffectUpdateDecorator@@@@6B@ ; CPooledObject<NEffectUpdateDecorator::CHeaderDecorator>::ms_kPool
	DD	00H
	DD	00H
	DD	00H
	DD	00H
	DD	00H
	DD	00H
	DD	00H
	DD	00H
_DATA	ENDS
;	COMDAT ??_R1A@?0A@EA@bad_array_new_length@std@@8
rdata$r	SEGMENT
??_R1A@?0A@EA@bad_array_new_length@std@@8 DD FLAT:??_R0?AVbad_array_new_length@std@@@8 ; std::bad_array_new_length::`RTTI Base Class Descriptor at (0,-1,0,64)'
	DD	02H
	DD	00H
	DD	0ffffffffH
	DD	00H
	DD	040H
	DD	FLAT:??_R3bad_array_new_length@std@@8
rdata$r	ENDS
;	COMDAT ??_R2bad_array_new_length@std@@8
rdata$r	SEGMENT
??_R2bad_array_new_length@std@@8 DD FLAT:??_R1A@?0A@EA@bad_array_new_length@std@@8 ; std::bad_array_new_length::`RTTI Base Class Array'
	DD	FLAT:??_R1A@?0A@EA@bad_alloc@std@@8
	DD	FLAT:??_R1A@?0A@EA@exception@std@@8
rdata$r	ENDS
;	COMDAT ??_R3bad_array_new_length@std@@8
rdata$r	SEGMENT
??_R3bad_array_new_length@std@@8 DD 00H			; std::bad_array_new_length::`RTTI Class Hierarchy Descriptor'
	DD	00H
	DD	03H
	DD	FLAT:??_R2bad_array_new_length@std@@8
rdata$r	ENDS
;	COMDAT ??_R4bad_array_new_length@std@@6B@
rdata$r	SEGMENT
??_R4bad_array_new_length@std@@6B@ DD 00H		; std::bad_array_new_length::`RTTI Complete Object Locator'
	DD	00H
	DD	00H
	DD	FLAT:??_R0?AVbad_array_new_length@std@@@8
	DD	FLAT:??_R3bad_array_new_length@std@@8
rdata$r	ENDS
;	COMDAT ??_R1A@?0A@EA@bad_alloc@std@@8
rdata$r	SEGMENT
??_R1A@?0A@EA@bad_alloc@std@@8 DD FLAT:??_R0?AVbad_alloc@std@@@8 ; std::bad_alloc::`RTTI Base Class Descriptor at (0,-1,0,64)'
	DD	01H
	DD	00H
	DD	0ffffffffH
	DD	00H
	DD	040H
	DD	FLAT:??_R3bad_alloc@std@@8
rdata$r	ENDS
;	COMDAT ??_R2bad_alloc@std@@8
rdata$r	SEGMENT
??_R2bad_alloc@std@@8 DD FLAT:??_R1A@?0A@EA@bad_alloc@std@@8 ; std::bad_alloc::`RTTI Base Class Array'
	DD	FLAT:??_R1A@?0A@EA@exception@std@@8
rdata$r	ENDS
;	COMDAT ??_R3bad_alloc@std@@8
rdata$r	SEGMENT
??_R3bad_alloc@std@@8 DD 00H				; std::bad_alloc::`RTTI Class Hierarchy Descriptor'
	DD	00H
	DD	02H
	DD	FLAT:??_R2bad_alloc@std@@8
rdata$r	ENDS
;	COMDAT ??_R4bad_alloc@std@@6B@
rdata$r	SEGMENT
??_R4bad_alloc@std@@6B@ DD 00H				; std::bad_alloc::`RTTI Complete Object Locator'
	DD	00H
	DD	00H
	DD	FLAT:??_R0?AVbad_alloc@std@@@8
	DD	FLAT:??_R3bad_alloc@std@@8
rdata$r	ENDS
;	COMDAT ??_R1A@?0A@EA@exception@std@@8
rdata$r	SEGMENT
??_R1A@?0A@EA@exception@std@@8 DD FLAT:??_R0?AVexception@std@@@8 ; std::exception::`RTTI Base Class Descriptor at (0,-1,0,64)'
	DD	00H
	DD	00H
	DD	0ffffffffH
	DD	00H
	DD	040H
	DD	FLAT:??_R3exception@std@@8
rdata$r	ENDS
;	COMDAT ??_R2exception@std@@8
rdata$r	SEGMENT
??_R2exception@std@@8 DD FLAT:??_R1A@?0A@EA@exception@std@@8 ; std::exception::`RTTI Base Class Array'
rdata$r	ENDS
;	COMDAT ??_R3exception@std@@8
rdata$r	SEGMENT
??_R3exception@std@@8 DD 00H				; std::exception::`RTTI Class Hierarchy Descriptor'
	DD	00H
	DD	01H
	DD	FLAT:??_R2exception@std@@8
rdata$r	ENDS
;	COMDAT ??_R4exception@std@@6B@
rdata$r	SEGMENT
??_R4exception@std@@6B@ DD 00H				; std::exception::`RTTI Complete Object Locator'
	DD	00H
	DD	00H
	DD	FLAT:??_R0?AVexception@std@@@8
	DD	FLAT:??_R3exception@std@@8
rdata$r	ENDS
;	COMDAT ??_C@_0BA@FOIKENOD@vector?5too?5long@
CONST	SEGMENT
??_C@_0BA@FOIKENOD@vector?5too?5long@ DB 'vector too long', 00H ; `string'
CONST	ENDS
;	COMDAT ??_C@_0BB@GCADKGJO@map?1set?5too?5long@
CONST	SEGMENT
??_C@_0BB@GCADKGJO@map?1set?5too?5long@ DB 'map/set too long', 00H ; `string'
CONST	ENDS
;	COMDAT ??_C@_0BA@JFNIOLAK@string?5too?5long@
CONST	SEGMENT
??_C@_0BA@JFNIOLAK@string?5too?5long@ DB 'string too long', 00H ; `string'
CONST	ENDS
;	COMDAT __CT??_R0?AVexception@std@@@8??0exception@std@@QAE@ABV01@@Z12
xdata$x	SEGMENT
__CT??_R0?AVexception@std@@@8??0exception@std@@QAE@ABV01@@Z12 DD 00H
	DD	FLAT:??_R0?AVexception@std@@@8
	DD	00H
	DD	0ffffffffH
	ORG $+4
	DD	0cH
	DD	FLAT:??0exception@std@@QAE@ABV01@@Z
xdata$x	ENDS
;	COMDAT ??_R0?AVexception@std@@@8
data$r	SEGMENT
??_R0?AVexception@std@@@8 DD FLAT:??_7type_info@@6B@	; std::exception `RTTI Type Descriptor'
	DD	00H
	DB	'.?AVexception@std@@', 00H
data$r	ENDS
;	COMDAT __CT??_R0?AVbad_alloc@std@@@8??0bad_alloc@std@@QAE@ABV01@@Z12
xdata$x	SEGMENT
__CT??_R0?AVbad_alloc@std@@@8??0bad_alloc@std@@QAE@ABV01@@Z12 DD 010H
	DD	FLAT:??_R0?AVbad_alloc@std@@@8
	DD	00H
	DD	0ffffffffH
	ORG $+4
	DD	0cH
	DD	FLAT:??0bad_alloc@std@@QAE@ABV01@@Z
xdata$x	ENDS
;	COMDAT ??_R0?AVbad_alloc@std@@@8
data$r	SEGMENT
??_R0?AVbad_alloc@std@@@8 DD FLAT:??_7type_info@@6B@	; std::bad_alloc `RTTI Type Descriptor'
	DD	00H
	DB	'.?AVbad_alloc@std@@', 00H
data$r	ENDS
;	COMDAT __CT??_R0?AVbad_array_new_length@std@@@8??0bad_array_new_length@std@@QAE@ABV01@@Z12
xdata$x	SEGMENT
__CT??_R0?AVbad_array_new_length@std@@@8??0bad_array_new_length@std@@QAE@ABV01@@Z12 DD 00H
	DD	FLAT:??_R0?AVbad_array_new_length@std@@@8
	DD	00H
	DD	0ffffffffH
	ORG $+4
	DD	0cH
	DD	FLAT:??0bad_array_new_length@std@@QAE@ABV01@@Z
xdata$x	ENDS
;	COMDAT ??_R0?AVbad_array_new_length@std@@@8
data$r	SEGMENT
??_R0?AVbad_array_new_length@std@@@8 DD FLAT:??_7type_info@@6B@ ; std::bad_array_new_length `RTTI Type Descriptor'
	DD	00H
	DB	'.?AVbad_array_new_length@std@@', 00H
data$r	ENDS
;	COMDAT __CTA3?AVbad_array_new_length@std@@
xdata$x	SEGMENT
__CTA3?AVbad_array_new_length@std@@ DD 03H
	DD	FLAT:__CT??_R0?AVbad_array_new_length@std@@@8??0bad_array_new_length@std@@QAE@ABV01@@Z12
	DD	FLAT:__CT??_R0?AVbad_alloc@std@@@8??0bad_alloc@std@@QAE@ABV01@@Z12
	DD	FLAT:__CT??_R0?AVexception@std@@@8??0exception@std@@QAE@ABV01@@Z12
xdata$x	ENDS
;	COMDAT __TI3?AVbad_array_new_length@std@@
xdata$x	SEGMENT
__TI3?AVbad_array_new_length@std@@ DD 00H
	DD	FLAT:??1bad_array_new_length@std@@UAE@XZ
	DD	00H
	DD	FLAT:__CTA3?AVbad_array_new_length@std@@
xdata$x	ENDS
;	COMDAT ??_C@_0BF@KINCDENJ@bad?5array?5new?5length@
CONST	SEGMENT
??_C@_0BF@KINCDENJ@bad?5array?5new?5length@ DB 'bad array new length', 00H ; `string'
CONST	ENDS
;	COMDAT ??_7bad_array_new_length@std@@6B@
CONST	SEGMENT
??_7bad_array_new_length@std@@6B@ DD FLAT:??_R4bad_array_new_length@std@@6B@ ; std::bad_array_new_length::`vftable'
	DD	FLAT:??_Ebad_array_new_length@std@@UAEPAXI@Z
	DD	FLAT:?what@exception@std@@UBEPBDXZ
CONST	ENDS
;	COMDAT ??_7bad_alloc@std@@6B@
CONST	SEGMENT
??_7bad_alloc@std@@6B@ DD FLAT:??_R4bad_alloc@std@@6B@	; std::bad_alloc::`vftable'
	DD	FLAT:??_Ebad_alloc@std@@UAEPAXI@Z
	DD	FLAT:?what@exception@std@@UBEPBDXZ
CONST	ENDS
;	COMDAT ??_C@_0BC@EOODALEL@Unknown?5exception@
CONST	SEGMENT
??_C@_0BC@EOODALEL@Unknown?5exception@ DB 'Unknown exception', 00H ; `string'
CONST	ENDS
;	COMDAT ??_7exception@std@@6B@
CONST	SEGMENT
??_7exception@std@@6B@ DD FLAT:??_R4exception@std@@6B@	; std::exception::`vftable'
	DD	FLAT:??_Eexception@std@@UAEPAXI@Z
	DD	FLAT:?what@exception@std@@UBEPBDXZ
CONST	ENDS
;	COMDAT xdata$x
xdata$x	SEGMENT
__unwindtable$??$?0ABUpiecewise_construct_t@std@@V?$tuple@ABK@1@V?$tuple@$$V@1@@?$_Tree_temp_node@V?$allocator@U?$_Tree_node@U?$pair@$$CBKUSNetworkActorData@@@std@@PAX@std@@@std@@@std@@QAE@AAV?$allocator@U?$_Tree_node@U?$pair@$$CBKUSNetworkActorData@@@std@@PAX@std@@@1@PAU?$_Tree_node@U?$pair@$$CBKUSNetworkActorData@@@std@@PAX@1@ABUpiecewise_construct_t@1@$$QAV?$tuple@ABK@1@$$QAV?$tuple@$$V@1@@Z DD 0ffffffffH
	DD	FLAT:__unwindfunclet$??$?0ABUpiecewise_construct_t@std@@V?$tuple@ABK@1@V?$tuple@$$V@1@@?$_Tree_temp_node@V?$allocator@U?$_Tree_node@U?$pair@$$CBKUSNetworkActorData@@@std@@PAX@std@@@std@@@std@@QAE@AAV?$allocator@U?$_Tree_node@U?$pair@$$CBKUSNetworkActorData@@@std@@PAX@std@@@1@PAU?$_Tree_node@U?$pair@$$CBKUSNetworkActorData@@@std@@PAX@1@ABUpiecewise_construct_t@1@$$QAV?$tuple@ABK@1@$$QAV?$tuple@$$V@1@@Z$1
	DD	0ffffffffH
	DD	FLAT:__unwindfunclet$??$?0ABUpiecewise_construct_t@std@@V?$tuple@ABK@1@V?$tuple@$$V@1@@?$_Tree_temp_node@V?$allocator@U?$_Tree_node@U?$pair@$$CBKUSNetworkActorData@@@std@@PAX@std@@@std@@@std@@QAE@AAV?$allocator@U?$_Tree_node@U?$pair@$$CBKUSNetworkActorData@@@std@@PAX@std@@@1@PAU?$_Tree_node@U?$pair@$$CBKUSNetworkActorData@@@std@@PAX@1@ABUpiecewise_construct_t@1@$$QAV?$tuple@ABK@1@$$QAV?$tuple@$$V@1@@Z$0
__ehfuncinfo$??$?0ABUpiecewise_construct_t@std@@V?$tuple@ABK@1@V?$tuple@$$V@1@@?$_Tree_temp_node@V?$allocator@U?$_Tree_node@U?$pair@$$CBKUSNetworkActorData@@@std@@PAX@std@@@std@@@std@@QAE@AAV?$allocator@U?$_Tree_node@U?$pair@$$CBKUSNetworkActorData@@@std@@PAX@std@@@1@PAU?$_Tree_node@U?$pair@$$CBKUSNetworkActorData@@@std@@PAX@1@ABUpiecewise_construct_t@1@$$QAV?$tuple@ABK@1@$$QAV?$tuple@$$V@1@@Z DD 019930522H
	DD	02H
	DD	FLAT:__unwindtable$??$?0ABUpiecewise_construct_t@std@@V?$tuple@ABK@1@V?$tuple@$$V@1@@?$_Tree_temp_node@V?$allocator@U?$_Tree_node@U?$pair@$$CBKUSNetworkActorData@@@std@@PAX@std@@@std@@@std@@QAE@AAV?$allocator@U?$_Tree_node@U?$pair@$$CBKUSNetworkActorData@@@std@@PAX@std@@@1@PAU?$_Tree_node@U?$pair@$$CBKUSNetworkActorData@@@std@@PAX@1@ABUpiecewise_construct_t@1@$$QAV?$tuple@ABK@1@$$QAV?$tuple@$$V@1@@Z
	DD	2 DUP(00H)
	DD	2 DUP(00H)
	DD	00H
	DD	01H
xdata$x	ENDS
;	COMDAT xdata$x
xdata$x	SEGMENT
__unwindtable$??0?$_Tree_temp_node_alloc@V?$allocator@U?$_Tree_node@U?$pair@$$CBKUSNetworkActorData@@@std@@PAX@std@@@std@@@std@@QAE@AAV?$allocator@U?$_Tree_node@U?$pair@$$CBKUSNetworkActorData@@@std@@PAX@std@@@1@@Z DD 0ffffffffH
	DD	FLAT:__unwindfunclet$??0?$_Tree_temp_node_alloc@V?$allocator@U?$_Tree_node@U?$pair@$$CBKUSNetworkActorData@@@std@@PAX@std@@@std@@@std@@QAE@AAV?$allocator@U?$_Tree_node@U?$pair@$$CBKUSNetworkActorData@@@std@@PAX@std@@@1@@Z$0
__ehfuncinfo$??0?$_Tree_temp_node_alloc@V?$allocator@U?$_Tree_node@U?$pair@$$CBKUSNetworkActorData@@@std@@PAX@std@@@std@@@std@@QAE@AAV?$allocator@U?$_Tree_node@U?$pair@$$CBKUSNetworkActorData@@@std@@PAX@std@@@1@@Z DD 019930522H
	DD	01H
	DD	FLAT:__unwindtable$??0?$_Tree_temp_node_alloc@V?$allocator@U?$_Tree_node@U?$pair@$$CBKUSNetworkActorData@@@std@@PAX@std@@@std@@@std@@QAE@AAV?$allocator@U?$_Tree_node@U?$pair@$$CBKUSNetworkActorData@@@std@@PAX@std@@@1@@Z
	DD	2 DUP(00H)
	DD	2 DUP(00H)
	DD	00H
	DD	01H
xdata$x	ENDS
;	COMDAT xdata$x
xdata$x	SEGMENT
__unwindtable$??$_Try_emplace@ABK$$V@?$map@KUSNetworkActorData@@U?$less@K@std@@V?$allocator@U?$pair@$$CBKUSNetworkActorData@@@std@@@3@@std@@AAE?AU?$pair@PAU?$_Tree_node@U?$pair@$$CBKUSNetworkActorData@@@std@@PAX@std@@_N@1@ABK@Z DD 0ffffffffH
	DD	FLAT:__unwindfunclet$??$_Try_emplace@ABK$$V@?$map@KUSNetworkActorData@@U?$less@K@std@@V?$allocator@U?$pair@$$CBKUSNetworkActorData@@@std@@@3@@std@@AAE?AU?$pair@PAU?$_Tree_node@U?$pair@$$CBKUSNetworkActorData@@@std@@PAX@std@@_N@1@ABK@Z$2
	DD	0ffffffffH
	DD	FLAT:__unwindfunclet$??$_Try_emplace@ABK$$V@?$map@KUSNetworkActorData@@U?$less@K@std@@V?$allocator@U?$pair@$$CBKUSNetworkActorData@@@std@@@3@@std@@AAE?AU?$pair@PAU?$_Tree_node@U?$pair@$$CBKUSNetworkActorData@@@std@@PAX@std@@_N@1@ABK@Z$1
__ehfuncinfo$??$_Try_emplace@ABK$$V@?$map@KUSNetworkActorData@@U?$less@K@std@@V?$allocator@U?$pair@$$CBKUSNetworkActorData@@@std@@@3@@std@@AAE?AU?$pair@PAU?$_Tree_node@U?$pair@$$CBKUSNetworkActorData@@@std@@PAX@std@@_N@1@ABK@Z DD 019930522H
	DD	02H
	DD	FLAT:__unwindtable$??$_Try_emplace@ABK$$V@?$map@KUSNetworkActorData@@U?$less@K@std@@V?$allocator@U?$pair@$$CBKUSNetworkActorData@@@std@@@3@@std@@AAE?AU?$pair@PAU?$_Tree_node@U?$pair@$$CBKUSNetworkActorData@@@std@@PAX@std@@_N@1@ABK@Z
	DD	2 DUP(00H)
	DD	2 DUP(00H)
	DD	00H
	DD	01H
xdata$x	ENDS
;	COMDAT xdata$x
xdata$x	SEGMENT
__unwindtable$??A?$map@KUSNetworkActorData@@U?$less@K@std@@V?$allocator@U?$pair@$$CBKUSNetworkActorData@@@std@@@3@@std@@QAEAAUSNetworkActorData@@ABK@Z DD 0ffffffffH
	DD	FLAT:__unwindfunclet$??A?$map@KUSNetworkActorData@@U?$less@K@std@@V?$allocator@U?$pair@$$CBKUSNetworkActorData@@@std@@@3@@std@@QAEAAUSNetworkActorData@@ABK@Z$2
	DD	0ffffffffH
	DD	FLAT:__unwindfunclet$??A?$map@KUSNetworkActorData@@U?$less@K@std@@V?$allocator@U?$pair@$$CBKUSNetworkActorData@@@std@@@3@@std@@QAEAAUSNetworkActorData@@ABK@Z$1
__ehfuncinfo$??A?$map@KUSNetworkActorData@@U?$less@K@std@@V?$allocator@U?$pair@$$CBKUSNetworkActorData@@@std@@@3@@std@@QAEAAUSNetworkActorData@@ABK@Z DD 019930522H
	DD	02H
	DD	FLAT:__unwindtable$??A?$map@KUSNetworkActorData@@U?$less@K@std@@V?$allocator@U?$pair@$$CBKUSNetworkActorData@@@std@@@3@@std@@QAEAAUSNetworkActorData@@ABK@Z
	DD	2 DUP(00H)
	DD	2 DUP(00H)
	DD	00H
	DD	01H
xdata$x	ENDS
;	COMDAT xdata$x
xdata$x	SEGMENT
__unwindtable$?__AppendCharacterManagerActor@CNetworkActorManager@@IAEPAVCInstanceBase@@AAUSNetworkActorData@@@Z DD 0ffffffffH
	DD	FLAT:__unwindfunclet$?__AppendCharacterManagerActor@CNetworkActorManager@@IAEPAVCInstanceBase@@AAUSNetworkActorData@@@Z$0
__ehfuncinfo$?__AppendCharacterManagerActor@CNetworkActorManager@@IAEPAVCInstanceBase@@AAUSNetworkActorData@@@Z DD 019930522H
	DD	01H
	DD	FLAT:__unwindtable$?__AppendCharacterManagerActor@CNetworkActorManager@@IAEPAVCInstanceBase@@AAUSNetworkActorData@@@Z
	DD	2 DUP(00H)
	DD	2 DUP(00H)
	DD	00H
	DD	01H
xdata$x	ENDS
;	COMDAT xdata$x
xdata$x	SEGMENT
__unwindtable$?__RemoveDynamicActors@CNetworkActorManager@@IAEXXZ DD 0ffffffffH
	DD	FLAT:__unwindfunclet$?__RemoveDynamicActors@CNetworkActorManager@@IAEXXZ$0
__ehfuncinfo$?__RemoveDynamicActors@CNetworkActorManager@@IAEXXZ DD 019930522H
	DD	01H
	DD	FLAT:__unwindtable$?__RemoveDynamicActors@CNetworkActorManager@@IAEXXZ
	DD	2 DUP(00H)
	DD	2 DUP(00H)
	DD	00H
	DD	01H
xdata$x	ENDS
;	COMDAT xdata$x
xdata$x	SEGMENT
__unwindtable$?AppendActor@CNetworkActorManager@@QAEXABUSNetworkActorData@@@Z DD 0ffffffffH
	DD	FLAT:__unwindfunclet$?AppendActor@CNetworkActorManager@@QAEXABUSNetworkActorData@@@Z$2
	DD	0ffffffffH
	DD	FLAT:__unwindfunclet$?AppendActor@CNetworkActorManager@@QAEXABUSNetworkActorData@@@Z$1
__ehfuncinfo$?AppendActor@CNetworkActorManager@@QAEXABUSNetworkActorData@@@Z DD 019930522H
	DD	02H
	DD	FLAT:__unwindtable$?AppendActor@CNetworkActorManager@@QAEXABUSNetworkActorData@@@Z
	DD	2 DUP(00H)
	DD	2 DUP(00H)
	DD	00H
	DD	01H
xdata$x	ENDS
;	COMDAT xdata$x
xdata$x	SEGMENT
__unwindtable$??0CNetworkActorManager@@QAE@XZ DD 0ffffffffH
	DD	FLAT:__unwindfunclet$??0CNetworkActorManager@@QAE@XZ$0
__ehfuncinfo$??0CNetworkActorManager@@QAE@XZ DD 019930522H
	DD	01H
	DD	FLAT:__unwindtable$??0CNetworkActorManager@@QAE@XZ
	DD	2 DUP(00H)
	DD	2 DUP(00H)
	DD	00H
	DD	01H
xdata$x	ENDS
;	COMDAT xdata$x
xdata$x	SEGMENT
__unwindtable$??0SNetworkActorData@@QAE@ABU0@@Z DD 0ffffffffH
	DD	FLAT:__unwindfunclet$??0SNetworkActorData@@QAE@ABU0@@Z$0
	DD	00H
	DD	FLAT:__unwindfunclet$??0SNetworkActorData@@QAE@ABU0@@Z$1
__ehfuncinfo$??0SNetworkActorData@@QAE@ABU0@@Z DD 019930522H
	DD	02H
	DD	FLAT:__unwindtable$??0SNetworkActorData@@QAE@ABU0@@Z
	DD	2 DUP(00H)
	DD	2 DUP(00H)
	DD	00H
	DD	01H
xdata$x	ENDS
;	COMDAT xdata$x
xdata$x	SEGMENT
__unwindtable$??0SNetworkActorData@@QAE@XZ DD 0ffffffffH
	DD	FLAT:__unwindfunclet$??0SNetworkActorData@@QAE@XZ$0
	DD	00H
	DD	FLAT:__unwindfunclet$??0SNetworkActorData@@QAE@XZ$1
__ehfuncinfo$??0SNetworkActorData@@QAE@XZ DD 019930522H
	DD	02H
	DD	FLAT:__unwindtable$??0SNetworkActorData@@QAE@XZ
	DD	2 DUP(00H)
	DD	2 DUP(00H)
	DD	00H
	DD	01H
xdata$x	ENDS
;	COMDAT CRT$XCU
CRT$XCU	SEGMENT
??ms_kPool$initializer$@?$CPooledObject@VCNullDecorator@NEffectUpdateDecorator@@@@1P6AXXZA@@3P6AXXZA DD FLAT:??__E?ms_kPool@?$CPooledObject@VCNullDecorator@NEffectUpdateDecorator@@@@1V?$CDynamicPoolEx@VCNullDecorator@NEffectUpdateDecorator@@@@A@@YAXXZ ; ??ms_kPool$initializer$@?$CPooledObject@VCNullDecorator@NEffectUpdateDecorator@@@@1P6AXXZA@@3P6AXXZA
CRT$XCU	ENDS
;	COMDAT CRT$XCU
CRT$XCU	SEGMENT
??ms_kPool$initializer$@?$CPooledObject@VCTextureAnimationCWDecorator@NEffectUpdateDecorator@@@@1P6AXXZA@@3P6AXXZA DD FLAT:??__E?ms_kPool@?$CPooledObject@VCTextureAnimationCWDecorator@NEffectUpdateDecorator@@@@1V?$CDynamicPoolEx@VCTextureAnimationCWDecorator@NEffectUpdateDecorator@@@@A@@YAXXZ ; ??ms_kPool$initializer$@?$CPooledObject@VCTextureAnimationCWDecorator@NEffectUpdateDecorator@@@@1P6AXXZA@@3P6AXXZA
CRT$XCU	ENDS
;	COMDAT CRT$XCU
CRT$XCU	SEGMENT
??ms_kPool$initializer$@?$CPooledObject@VCTextureAnimationCCWDecorator@NEffectUpdateDecorator@@@@1P6AXXZA@@3P6AXXZA DD FLAT:??__E?ms_kPool@?$CPooledObject@VCTextureAnimationCCWDecorator@NEffectUpdateDecorator@@@@1V?$CDynamicPoolEx@VCTextureAnimationCCWDecorator@NEffectUpdateDecorator@@@@A@@YAXXZ ; ??ms_kPool$initializer$@?$CPooledObject@VCTextureAnimationCCWDecorator@NEffectUpdateDecorator@@@@1P6AXXZA@@3P6AXXZA
CRT$XCU	ENDS
;	COMDAT CRT$XCU
CRT$XCU	SEGMENT
??ms_kPool$initializer$@?$CPooledObject@VCTextureAnimationRandomDecorator@NEffectUpdateDecorator@@@@1P6AXXZA@@3P6AXXZA DD FLAT:??__E?ms_kPool@?$CPooledObject@VCTextureAnimationRandomDecorator@NEffectUpdateDecorator@@@@1V?$CDynamicPoolEx@VCTextureAnimationRandomDecorator@NEffectUpdateDecorator@@@@A@@YAXXZ ; ??ms_kPool$initializer$@?$CPooledObject@VCTextureAnimationRandomDecorator@NEffectUpdateDecorator@@@@1P6AXXZA@@3P6AXXZA
CRT$XCU	ENDS
;	COMDAT CRT$XCU
CRT$XCU	SEGMENT
??ms_kPool$initializer$@?$CPooledObject@VCAirResistanceDecorator@NEffectUpdateDecorator@@@@1P6AXXZA@@3P6AXXZA DD FLAT:??__E?ms_kPool@?$CPooledObject@VCAirResistanceDecorator@NEffectUpdateDecorator@@@@1V?$CDynamicPoolEx@VCAirResistanceDecorator@NEffectUpdateDecorator@@@@A@@YAXXZ ; ??ms_kPool$initializer$@?$CPooledObject@VCAirResistanceDecorator@NEffectUpdateDecorator@@@@1P6AXXZA@@3P6AXXZA
CRT$XCU	ENDS
;	COMDAT CRT$XCU
CRT$XCU	SEGMENT
??ms_kPool$initializer$@?$CPooledObject@VCGravityDecorator@NEffectUpdateDecorator@@@@1P6AXXZA@@3P6AXXZA DD FLAT:??__E?ms_kPool@?$CPooledObject@VCGravityDecorator@NEffectUpdateDecorator@@@@1V?$CDynamicPoolEx@VCGravityDecorator@NEffectUpdateDecorator@@@@A@@YAXXZ ; ??ms_kPool$initializer$@?$CPooledObject@VCGravityDecorator@NEffectUpdateDecorator@@@@1P6AXXZA@@3P6AXXZA
CRT$XCU	ENDS
;	COMDAT CRT$XCU
CRT$XCU	SEGMENT
??ms_kPool$initializer$@?$CPooledObject@VCRotationDecorator@NEffectUpdateDecorator@@@@1P6AXXZA@@3P6AXXZA DD FLAT:??__E?ms_kPool@?$CPooledObject@VCRotationDecorator@NEffectUpdateDecorator@@@@1V?$CDynamicPoolEx@VCRotationDecorator@NEffectUpdateDecorator@@@@A@@YAXXZ ; ??ms_kPool$initializer$@?$CPooledObject@VCRotationDecorator@NEffectUpdateDecorator@@@@1P6AXXZA@@3P6AXXZA
CRT$XCU	ENDS
; Function compile flags: /Ogtp
; File C:\Program Files (x86)\Microsoft Visual Studio\2019\Community\VC\Tools\MSVC\14.28.29333\include\xutility
;	COMDAT ??$_Copy_memmove@PAKPAK@std@@YAPAKPAK00@Z
_TEXT	SEGMENT
__First$ = 8						; size = 4
__Last$ = 12						; size = 4
__Dest$ = 16						; size = 4
??$_Copy_memmove@PAKPAK@std@@YAPAKPAK00@Z PROC		; std::_Copy_memmove<unsigned long *,unsigned long *>, COMDAT

; 4360 : _OutIt _Copy_memmove(_InIt _First, _InIt _Last, _OutIt _Dest) {

  00000	55		 push	 ebp
  00001	8b ec		 mov	 ebp, esp

; 4361 :     const char* const _First_ch = const_cast<const char*>(reinterpret_cast<const volatile char*>(_First));
; 4362 :     const char* const _Last_ch  = const_cast<const char*>(reinterpret_cast<const volatile char*>(_Last));
; 4363 :     char* const _Dest_ch        = const_cast<char*>(reinterpret_cast<volatile char*>(_Dest));
; 4364 :     const auto _Count           = static_cast<size_t>(_Last_ch - _First_ch);

  00003	8b 45 08	 mov	 eax, DWORD PTR __First$[ebp]
  00006	56		 push	 esi

; 4365 :     _CSTD memmove(_Dest_ch, _First_ch, _Count);

  00007	8b 75 10	 mov	 esi, DWORD PTR __Dest$[ebp]
  0000a	57		 push	 edi
  0000b	8b 7d 0c	 mov	 edi, DWORD PTR __Last$[ebp]
  0000e	2b f8		 sub	 edi, eax
  00010	57		 push	 edi
  00011	50		 push	 eax
  00012	56		 push	 esi
  00013	e8 00 00 00 00	 call	 _memmove
  00018	83 c4 0c	 add	 esp, 12			; 0000000cH

; 4366 :     return reinterpret_cast<_OutIt>(_Dest_ch + _Count);

  0001b	8d 04 37	 lea	 eax, DWORD PTR [edi+esi]
  0001e	5f		 pop	 edi
  0001f	5e		 pop	 esi

; 4367 : }

  00020	5d		 pop	 ebp
  00021	c3		 ret	 0
??$_Copy_memmove@PAKPAK@std@@YAPAKPAK00@Z ENDP		; std::_Copy_memmove<unsigned long *,unsigned long *>
_TEXT	ENDS
; Function compile flags: /Ogtp
; File C:\Program Files (x86)\Microsoft Visual Studio\2019\Community\VC\Tools\MSVC\14.28.29333\include\xmemory
;	COMDAT ??$_Construct_in_place@PAU?$_Tree_node@U?$pair@$$CBKUSNetworkActorData@@@std@@PAX@std@@AAPAU12@@std@@YAXAAPAU?$_Tree_node@U?$pair@$$CBKUSNetworkActorData@@@std@@PAX@0@0@Z
_TEXT	SEGMENT
__Obj$ = 8						; size = 4
_<_Args_0>$ = 12					; size = 4
??$_Construct_in_place@PAU?$_Tree_node@U?$pair@$$CBKUSNetworkActorData@@@std@@PAX@std@@AAPAU12@@std@@YAXAAPAU?$_Tree_node@U?$pair@$$CBKUSNetworkActorData@@@std@@PAX@0@0@Z PROC ; std::_Construct_in_place<std::_Tree_node<std::pair<unsigned long const ,SNetworkActorData>,void *> *,std::_Tree_node<std::pair<unsigned long const ,SNetworkActorData>,void *> * &>, COMDAT

; 228  : void _Construct_in_place(_Ty& _Obj, _Types&&... _Args) noexcept(is_nothrow_constructible_v<_Ty, _Types...>) {

  00000	55		 push	 ebp
  00001	8b ec		 mov	 ebp, esp

; 229  :     ::new (const_cast<void*>(static_cast<const volatile void*>(_STD addressof(_Obj))))

  00003	8b 45 0c	 mov	 eax, DWORD PTR _<_Args_0>$[ebp]
  00006	8b 08		 mov	 ecx, DWORD PTR [eax]
  00008	8b 45 08	 mov	 eax, DWORD PTR __Obj$[ebp]
  0000b	89 08		 mov	 DWORD PTR [eax], ecx

; 230  :         _Ty(_STD forward<_Types>(_Args)...);
; 231  : }

  0000d	5d		 pop	 ebp
  0000e	c3		 ret	 0
??$_Construct_in_place@PAU?$_Tree_node@U?$pair@$$CBKUSNetworkActorData@@@std@@PAX@std@@AAPAU12@@std@@YAXAAPAU?$_Tree_node@U?$pair@$$CBKUSNetworkActorData@@@std@@PAX@0@0@Z ENDP ; std::_Construct_in_place<std::_Tree_node<std::pair<unsigned long const ,SNetworkActorData>,void *> *,std::_Tree_node<std::pair<unsigned long const ,SNetworkActorData>,void *> * &>
_TEXT	ENDS
; Function compile flags: /Ogtp
; File C:\Program Files (x86)\Microsoft Visual Studio\2019\Community\VC\Tools\MSVC\14.28.29333\include\xmemory
;	COMDAT ??$_Uninitialized_move@PAKV?$allocator@K@std@@@std@@YAPAKQAK0PAKAAV?$allocator@K@0@@Z
_TEXT	SEGMENT
__First$ = 8						; size = 4
__Last$ = 12						; size = 4
__Dest$ = 16						; size = 4
__Al$ = 20						; size = 4
??$_Uninitialized_move@PAKV?$allocator@K@std@@@std@@YAPAKQAK0PAKAAV?$allocator@K@0@@Z PROC ; std::_Uninitialized_move<unsigned long *,std::allocator<unsigned long> >, COMDAT

; 1685 :     const _InIt _First, const _InIt _Last, _Alloc_ptr_t<_Alloc> _Dest, _Alloc& _Al) {

  00000	55		 push	 ebp
  00001	8b ec		 mov	 ebp, esp
  00003	53		 push	 ebx

; 1686 :     // move [_First, _Last) to raw _Dest, using _Al
; 1687 :     // note: only called internally from elsewhere in the STL
; 1688 :     using _Ptrval     = typename _Alloc::value_type*;
; 1689 :     auto _UFirst      = _Get_unwrapped(_First);
; 1690 :     const auto _ULast = _Get_unwrapped(_Last);
; 1691 :     if constexpr (conjunction_v<bool_constant<_Ptr_move_cat<decltype(_UFirst), _Ptrval>::_Really_trivial>,
; 1692 :                       _Uses_default_construct<_Alloc, _Ptrval, decltype(_STD move(*_UFirst))>>) {
; 1693 :         _Copy_memmove(_UFirst, _ULast, _Unfancy(_Dest));

  00004	8b 5d 10	 mov	 ebx, DWORD PTR __Dest$[ebp]
  00007	57		 push	 edi
  00008	8b 7d 0c	 mov	 edi, DWORD PTR __Last$[ebp]
  0000b	53		 push	 ebx
  0000c	57		 push	 edi
  0000d	ff 75 08	 push	 DWORD PTR __First$[ebp]
  00010	e8 00 00 00 00	 call	 ??$_Copy_memmove@PAKPAK@std@@YAPAKPAK00@Z ; std::_Copy_memmove<unsigned long *,unsigned long *>

; 1694 :         return _Dest + (_ULast - _UFirst);

  00015	2b 7d 08	 sub	 edi, DWORD PTR __First$[ebp]
  00018	83 c4 0c	 add	 esp, 12			; 0000000cH
  0001b	c1 ff 02	 sar	 edi, 2
  0001e	8d 04 bb	 lea	 eax, DWORD PTR [ebx+edi*4]
  00021	5f		 pop	 edi
  00022	5b		 pop	 ebx

; 1695 :     } else {
; 1696 :         _Uninitialized_backout_al<_Alloc> _Backout{_Dest, _Al};
; 1697 :         for (; _UFirst != _ULast; ++_UFirst) {
; 1698 :             _Backout._Emplace_back(_STD move(*_UFirst));
; 1699 :         }
; 1700 : 
; 1701 :         return _Backout._Release();
; 1702 :     }
; 1703 : }

  00023	5d		 pop	 ebp
  00024	c3		 ret	 0
??$_Uninitialized_move@PAKV?$allocator@K@std@@@std@@YAPAKQAK0PAKAAV?$allocator@K@0@@Z ENDP ; std::_Uninitialized_move<unsigned long *,std::allocator<unsigned long> >
_TEXT	ENDS
; Function compile flags: /Ogtp
; File C:\Program Files (x86)\Microsoft Visual Studio\2019\Community\VC\Tools\MSVC\14.28.29333\include\xmemory
;	COMDAT ??$_Destroy_in_place@PAU?$_Tree_node@U?$pair@$$CBKUSNetworkActorData@@@std@@PAX@std@@@std@@YAXAAPAU?$_Tree_node@U?$pair@$$CBKUSNetworkActorData@@@std@@PAX@0@@Z
_TEXT	SEGMENT
__Obj$ = 8						; size = 4
??$_Destroy_in_place@PAU?$_Tree_node@U?$pair@$$CBKUSNetworkActorData@@@std@@PAX@std@@@std@@YAXAAPAU?$_Tree_node@U?$pair@$$CBKUSNetworkActorData@@@std@@PAX@0@@Z PROC ; std::_Destroy_in_place<std::_Tree_node<std::pair<unsigned long const ,SNetworkActorData>,void *> *>, COMDAT

; 271  : #if _HAS_IF_CONSTEXPR
; 272  :     if constexpr (is_array_v<_Ty>) {
; 273  :         _Destroy_range(_Obj, _Obj + extent_v<_Ty>);
; 274  :     } else
; 275  : #endif // _HAS_IF_CONSTEXPR
; 276  :     {
; 277  :         _Obj.~_Ty();
; 278  :     }
; 279  : }

  00000	c2 00 00	 ret	 0
??$_Destroy_in_place@PAU?$_Tree_node@U?$pair@$$CBKUSNetworkActorData@@@std@@PAX@std@@@std@@YAXAAPAU?$_Tree_node@U?$pair@$$CBKUSNetworkActorData@@@std@@PAX@0@@Z ENDP ; std::_Destroy_in_place<std::_Tree_node<std::pair<unsigned long const ,SNetworkActorData>,void *> *>
_TEXT	ENDS
; Function compile flags: /Ogtp
; File C:\Program Files (x86)\Microsoft Visual Studio\2019\Community\VC\Tools\MSVC\14.28.29333\include\xmemory
;	COMDAT ??$_Construct_in_place@PAU?$_Tree_node@U?$pair@$$CBKUSNetworkActorData@@@std@@PAX@std@@ABQAU12@@std@@YAXAAPAU?$_Tree_node@U?$pair@$$CBKUSNetworkActorData@@@std@@PAX@0@ABQAU10@@Z
_TEXT	SEGMENT
__Obj$ = 8						; size = 4
_<_Args_0>$ = 12					; size = 4
??$_Construct_in_place@PAU?$_Tree_node@U?$pair@$$CBKUSNetworkActorData@@@std@@PAX@std@@ABQAU12@@std@@YAXAAPAU?$_Tree_node@U?$pair@$$CBKUSNetworkActorData@@@std@@PAX@0@ABQAU10@@Z PROC ; std::_Construct_in_place<std::_Tree_node<std::pair<unsigned long const ,SNetworkActorData>,void *> *,std::_Tree_node<std::pair<unsigned long const ,SNetworkActorData>,void *> * const &>, COMDAT

; 228  : void _Construct_in_place(_Ty& _Obj, _Types&&... _Args) noexcept(is_nothrow_constructible_v<_Ty, _Types...>) {

  00000	55		 push	 ebp
  00001	8b ec		 mov	 ebp, esp

; 229  :     ::new (const_cast<void*>(static_cast<const volatile void*>(_STD addressof(_Obj))))

  00003	8b 45 0c	 mov	 eax, DWORD PTR _<_Args_0>$[ebp]
  00006	8b 08		 mov	 ecx, DWORD PTR [eax]
  00008	8b 45 08	 mov	 eax, DWORD PTR __Obj$[ebp]
  0000b	89 08		 mov	 DWORD PTR [eax], ecx

; 230  :         _Ty(_STD forward<_Types>(_Args)...);
; 231  : }

  0000d	5d		 pop	 ebp
  0000e	c3		 ret	 0
??$_Construct_in_place@PAU?$_Tree_node@U?$pair@$$CBKUSNetworkActorData@@@std@@PAX@std@@ABQAU12@@std@@YAXAAPAU?$_Tree_node@U?$pair@$$CBKUSNetworkActorData@@@std@@PAX@0@ABQAU10@@Z ENDP ; std::_Construct_in_place<std::_Tree_node<std::pair<unsigned long const ,SNetworkActorData>,void *> *,std::_Tree_node<std::pair<unsigned long const ,SNetworkActorData>,void *> * const &>
_TEXT	ENDS
; Function compile flags: /Ogtp
; File C:\Program Files (x86)\Microsoft Visual Studio\2019\Community\VC\Tools\MSVC\14.28.29333\include\xmemory
;	COMDAT ??1?$_Tree_temp_node_alloc@V?$allocator@U?$_Tree_node@U?$pair@$$CBKUSNetworkActorData@@@std@@PAX@std@@@std@@@std@@QAE@XZ
_TEXT	SEGMENT
??1?$_Tree_temp_node_alloc@V?$allocator@U?$_Tree_node@U?$pair@$$CBKUSNetworkActorData@@@std@@PAX@std@@@std@@@std@@QAE@XZ PROC ; std::_Tree_temp_node_alloc<std::allocator<std::_Tree_node<std::pair<unsigned long const ,SNetworkActorData>,void *> > >::~_Tree_temp_node_alloc<std::allocator<std::_Tree_node<std::pair<unsigned long const ,SNetworkActorData>,void *> > >, COMDAT
; _this$ = ecx

; 1057 :         if (_Ptr) {

  00000	8b 41 04	 mov	 eax, DWORD PTR [ecx+4]
  00003	85 c0		 test	 eax, eax
  00005	74 0e		 je	 SHORT $LN4@Tree_temp_

; 810  :         _Deallocate<_New_alignof<_Ty>>(_Ptr, sizeof(_Ty) * _Count);

  00007	68 98 00 00 00	 push	 152			; 00000098H
  0000c	50		 push	 eax
  0000d	e8 00 00 00 00	 call	 ??$_Deallocate@$07$0A@@std@@YAXPAXI@Z ; std::_Deallocate<8,0>
  00012	83 c4 08	 add	 esp, 8
$LN4@Tree_temp_:
  00015	c3		 ret	 0
??1?$_Tree_temp_node_alloc@V?$allocator@U?$_Tree_node@U?$pair@$$CBKUSNetworkActorData@@@std@@PAX@std@@@std@@@std@@QAE@XZ ENDP ; std::_Tree_temp_node_alloc<std::allocator<std::_Tree_node<std::pair<unsigned long const ,SNetworkActorData>,void *> > >::~_Tree_temp_node_alloc<std::allocator<std::_Tree_node<std::pair<unsigned long const ,SNetworkActorData>,void *> > >
_TEXT	ENDS
; Function compile flags: /Ogtp
; File C:\Program Files (x86)\Microsoft Visual Studio\2019\Community\VC\Tools\MSVC\14.28.29333\include\xmemory
;	COMDAT ??1?$_Alloc_construct_ptr@V?$allocator@U?$_Tree_node@U?$pair@$$CBKUSNetworkActorData@@@std@@PAX@std@@@std@@@std@@QAE@XZ
_TEXT	SEGMENT
??1?$_Alloc_construct_ptr@V?$allocator@U?$_Tree_node@U?$pair@$$CBKUSNetworkActorData@@@std@@PAX@std@@@std@@@std@@QAE@XZ PROC ; std::_Alloc_construct_ptr<std::allocator<std::_Tree_node<std::pair<unsigned long const ,SNetworkActorData>,void *> > >::~_Alloc_construct_ptr<std::allocator<std::_Tree_node<std::pair<unsigned long const ,SNetworkActorData>,void *> > >, COMDAT
; _this$ = ecx

; 1057 :         if (_Ptr) {

  00000	8b 41 04	 mov	 eax, DWORD PTR [ecx+4]
  00003	85 c0		 test	 eax, eax
  00005	74 0e		 je	 SHORT $LN2@Alloc_cons

; 810  :         _Deallocate<_New_alignof<_Ty>>(_Ptr, sizeof(_Ty) * _Count);

  00007	68 98 00 00 00	 push	 152			; 00000098H
  0000c	50		 push	 eax
  0000d	e8 00 00 00 00	 call	 ??$_Deallocate@$07$0A@@std@@YAXPAXI@Z ; std::_Deallocate<8,0>
  00012	83 c4 08	 add	 esp, 8
$LN2@Alloc_cons:

; 1058 :             _Al.deallocate(_Ptr, 1);
; 1059 :         }
; 1060 :     }

  00015	c3		 ret	 0
??1?$_Alloc_construct_ptr@V?$allocator@U?$_Tree_node@U?$pair@$$CBKUSNetworkActorData@@@std@@PAX@std@@@std@@@std@@QAE@XZ ENDP ; std::_Alloc_construct_ptr<std::allocator<std::_Tree_node<std::pair<unsigned long const ,SNetworkActorData>,void *> > >::~_Alloc_construct_ptr<std::allocator<std::_Tree_node<std::pair<unsigned long const ,SNetworkActorData>,void *> > >
_TEXT	ENDS
; Function compile flags: /Ogtp
; File C:\Program Files (x86)\Microsoft Visual Studio\2019\Community\VC\Tools\MSVC\14.28.29333\include\xtree
; File C:\Program Files (x86)\Microsoft Visual Studio\2019\Community\VC\Tools\MSVC\14.28.29333\include\xstddef
; File C:\Program Files (x86)\Microsoft Visual Studio\2019\Community\VC\Tools\MSVC\14.28.29333\include\xtree
; File C:\Program Files (x86)\Microsoft Visual Studio\2019\Community\VC\Tools\MSVC\14.28.29333\include\xstddef
; File C:\Program Files (x86)\Microsoft Visual Studio\2019\Community\VC\Tools\MSVC\14.28.29333\include\xtree
;	COMDAT ??$_Find_lower_bound@K@?$_Tree@V?$_Tmap_traits@KUSNetworkActorData@@U?$less@K@std@@V?$allocator@U?$pair@$$CBKUSNetworkActorData@@@std@@@3@$0A@@std@@@std@@IBE?AU?$_Tree_find_result@PAU?$_Tree_node@U?$pair@$$CBKUSNetworkActorData@@@std@@PAX@std@@@1@ABK@Z
_TEXT	SEGMENT
___$ReturnUdt$ = 8					; size = 4
__Keyval$ = 12						; size = 4
??$_Find_lower_bound@K@?$_Tree@V?$_Tmap_traits@KUSNetworkActorData@@U?$less@K@std@@V?$allocator@U?$pair@$$CBKUSNetworkActorData@@@std@@@3@$0A@@std@@@std@@IBE?AU?$_Tree_find_result@PAU?$_Tree_node@U?$pair@$$CBKUSNetworkActorData@@@std@@PAX@std@@@1@ABK@Z PROC ; std::_Tree<std::_Tmap_traits<unsigned long,SNetworkActorData,std::less<unsigned long>,std::allocator<std::pair<unsigned long const ,SNetworkActorData> >,0> >::_Find_lower_bound<unsigned long>, COMDAT
; _this$ = ecx

; 1699 :     _Tree_find_result<_Nodeptr> _Find_lower_bound(const _Keyty& _Keyval) const {

  00000	55		 push	 ebp
  00001	8b ec		 mov	 ebp, esp

; 1700 :         const auto _Scary = _Get_scary();
; 1701 :         _Tree_find_result<_Nodeptr> _Result{{_Scary->_Myhead->_Parent, _Tree_child::_Right}, _Scary->_Myhead};

  00003	8b 09		 mov	 ecx, DWORD PTR [ecx]
  00005	8b 55 08	 mov	 edx, DWORD PTR ___$ReturnUdt$[ebp]
  00008	8b 41 04	 mov	 eax, DWORD PTR [ecx+4]
  0000b	89 02		 mov	 DWORD PTR [edx], eax
  0000d	c7 42 04 00 00
	00 00		 mov	 DWORD PTR [edx+4], 0
  00014	89 4a 08	 mov	 DWORD PTR [edx+8], ecx

; 1702 :         _Nodeptr _Trynode = _Result._Location._Parent;
; 1703 :         while (!_Trynode->_Isnil) {

  00017	80 78 0d 00	 cmp	 BYTE PTR [eax+13], 0
  0001b	75 28		 jne	 SHORT $LN12@Find_lower
; File C:\Program Files (x86)\Microsoft Visual Studio\2019\Community\VC\Tools\MSVC\14.28.29333\include\xstddef

; 127  :         return _Left < _Right;

  0001d	8b 4d 0c	 mov	 ecx, DWORD PTR __Keyval$[ebp]
  00020	56		 push	 esi
  00021	8b 31		 mov	 esi, DWORD PTR [ecx]
$LL2@Find_lower:
; File C:\Program Files (x86)\Microsoft Visual Studio\2019\Community\VC\Tools\MSVC\14.28.29333\include\xtree

; 1704 :             _Result._Location._Parent = _Trynode;

  00023	89 02		 mov	 DWORD PTR [edx], eax
; File C:\Program Files (x86)\Microsoft Visual Studio\2019\Community\VC\Tools\MSVC\14.28.29333\include\xstddef

; 127  :         return _Left < _Right;

  00025	39 70 10	 cmp	 DWORD PTR [eax+16], esi
; File C:\Program Files (x86)\Microsoft Visual Studio\2019\Community\VC\Tools\MSVC\14.28.29333\include\xtree

; 1705 :             if (_DEBUG_LT_PRED(_Getcomp(), _Traits::_Kfn(_Trynode->_Myval), _Keyval)) {

  00028	73 07		 jae	 SHORT $LN4@Find_lower

; 1706 :                 _Result._Location._Child = _Tree_child::_Right;
; 1707 :                 _Trynode                 = _Trynode->_Right;

  0002a	8b 40 08	 mov	 eax, DWORD PTR [eax+8]
  0002d	33 c9		 xor	 ecx, ecx

; 1708 :             } else {

  0002f	eb 0a		 jmp	 SHORT $LN5@Find_lower
$LN4@Find_lower:

; 1709 :                 _Result._Location._Child = _Tree_child::_Left;
; 1710 :                 _Result._Bound           = _Trynode;

  00031	89 42 08	 mov	 DWORD PTR [edx+8], eax

; 1711 :                 _Trynode                 = _Trynode->_Left;

  00034	b9 01 00 00 00	 mov	 ecx, 1
  00039	8b 00		 mov	 eax, DWORD PTR [eax]
$LN5@Find_lower:

; 1702 :         _Nodeptr _Trynode = _Result._Location._Parent;
; 1703 :         while (!_Trynode->_Isnil) {

  0003b	89 4a 04	 mov	 DWORD PTR [edx+4], ecx
  0003e	80 78 0d 00	 cmp	 BYTE PTR [eax+13], 0
  00042	74 df		 je	 SHORT $LL2@Find_lower

; 1712 :             }
; 1713 :         }
; 1714 : 
; 1715 :         return _Result;

  00044	5e		 pop	 esi
$LN12@Find_lower:

; 1716 :     }

  00045	8b c2		 mov	 eax, edx
  00047	5d		 pop	 ebp
  00048	c2 08 00	 ret	 8
??$_Find_lower_bound@K@?$_Tree@V?$_Tmap_traits@KUSNetworkActorData@@U?$less@K@std@@V?$allocator@U?$pair@$$CBKUSNetworkActorData@@@std@@@3@$0A@@std@@@std@@IBE?AU?$_Tree_find_result@PAU?$_Tree_node@U?$pair@$$CBKUSNetworkActorData@@@std@@PAX@std@@@1@ABK@Z ENDP ; std::_Tree<std::_Tmap_traits<unsigned long,SNetworkActorData,std::less<unsigned long>,std::allocator<std::pair<unsigned long const ,SNetworkActorData> >,0> >::_Find_lower_bound<unsigned long>
_TEXT	ENDS
; Function compile flags: /Ogtp
;	COMDAT ??__F?ms_kPool@?$CPooledObject@VCRotationDecorator@NEffectUpdateDecorator@@@@1V?$CDynamicPoolEx@VCRotationDecorator@NEffectUpdateDecorator@@@@A@@YAXXZ
text$yd	SEGMENT
??__F?ms_kPool@?$CPooledObject@VCRotationDecorator@NEffectUpdateDecorator@@@@1V?$CDynamicPoolEx@VCRotationDecorator@NEffectUpdateDecorator@@@@A@@YAXXZ PROC ; `dynamic atexit destructor for 'CPooledObject<NEffectUpdateDecorator::CRotationDecorator>::ms_kPool'', COMDAT
  00000	b9 00 00 00 00	 mov	 ecx, OFFSET ?ms_kPool@?$CPooledObject@VCRotationDecorator@NEffectUpdateDecorator@@@@1V?$CDynamicPoolEx@VCRotationDecorator@NEffectUpdateDecorator@@@@A ; CPooledObject<NEffectUpdateDecorator::CRotationDecorator>::ms_kPool
  00005	e9 00 00 00 00	 jmp	 ??1?$CDynamicPoolEx@VCRotationDecorator@NEffectUpdateDecorator@@@@UAE@XZ ; CDynamicPoolEx<NEffectUpdateDecorator::CRotationDecorator>::~CDynamicPoolEx<NEffectUpdateDecorator::CRotationDecorator>
??__F?ms_kPool@?$CPooledObject@VCRotationDecorator@NEffectUpdateDecorator@@@@1V?$CDynamicPoolEx@VCRotationDecorator@NEffectUpdateDecorator@@@@A@@YAXXZ ENDP ; `dynamic atexit destructor for 'CPooledObject<NEffectUpdateDecorator::CRotationDecorator>::ms_kPool''
text$yd	ENDS
; Function compile flags: /Ogtp
; File D:\Metin2 Server Files\mainline\SRC_2014\Metin2Client\eterLib\Pool.h
;	COMDAT ??__E?ms_kPool@?$CPooledObject@VCRotationDecorator@NEffectUpdateDecorator@@@@1V?$CDynamicPoolEx@VCRotationDecorator@NEffectUpdateDecorator@@@@A@@YAXXZ
text$di	SEGMENT
??__E?ms_kPool@?$CPooledObject@VCRotationDecorator@NEffectUpdateDecorator@@@@1V?$CDynamicPoolEx@VCRotationDecorator@NEffectUpdateDecorator@@@@A@@YAXXZ PROC ; `dynamic initializer for 'CPooledObject<NEffectUpdateDecorator::CRotationDecorator>::ms_kPool'', COMDAT

; 272  : template <class T> CDynamicPoolEx<T> CPooledObject<T>::ms_kPool;

  00000	68 00 00 00 00	 push	 OFFSET ??__F?ms_kPool@?$CPooledObject@VCRotationDecorator@NEffectUpdateDecorator@@@@1V?$CDynamicPoolEx@VCRotationDecorator@NEffectUpdateDecorator@@@@A@@YAXXZ ; `dynamic atexit destructor for 'CPooledObject<NEffectUpdateDecorator::CRotationDecorator>::ms_kPool''
  00005	e8 00 00 00 00	 call	 _atexit
  0000a	59		 pop	 ecx
  0000b	c3		 ret	 0
??__E?ms_kPool@?$CPooledObject@VCRotationDecorator@NEffectUpdateDecorator@@@@1V?$CDynamicPoolEx@VCRotationDecorator@NEffectUpdateDecorator@@@@A@@YAXXZ ENDP ; `dynamic initializer for 'CPooledObject<NEffectUpdateDecorator::CRotationDecorator>::ms_kPool''
text$di	ENDS
; Function compile flags: /Ogtp
;	COMDAT ??__F?ms_kPool@?$CPooledObject@VCGravityDecorator@NEffectUpdateDecorator@@@@1V?$CDynamicPoolEx@VCGravityDecorator@NEffectUpdateDecorator@@@@A@@YAXXZ
text$yd	SEGMENT
??__F?ms_kPool@?$CPooledObject@VCGravityDecorator@NEffectUpdateDecorator@@@@1V?$CDynamicPoolEx@VCGravityDecorator@NEffectUpdateDecorator@@@@A@@YAXXZ PROC ; `dynamic atexit destructor for 'CPooledObject<NEffectUpdateDecorator::CGravityDecorator>::ms_kPool'', COMDAT
  00000	b9 00 00 00 00	 mov	 ecx, OFFSET ?ms_kPool@?$CPooledObject@VCGravityDecorator@NEffectUpdateDecorator@@@@1V?$CDynamicPoolEx@VCGravityDecorator@NEffectUpdateDecorator@@@@A ; CPooledObject<NEffectUpdateDecorator::CGravityDecorator>::ms_kPool
  00005	e9 00 00 00 00	 jmp	 ??1?$CDynamicPoolEx@VCGravityDecorator@NEffectUpdateDecorator@@@@UAE@XZ ; CDynamicPoolEx<NEffectUpdateDecorator::CGravityDecorator>::~CDynamicPoolEx<NEffectUpdateDecorator::CGravityDecorator>
??__F?ms_kPool@?$CPooledObject@VCGravityDecorator@NEffectUpdateDecorator@@@@1V?$CDynamicPoolEx@VCGravityDecorator@NEffectUpdateDecorator@@@@A@@YAXXZ ENDP ; `dynamic atexit destructor for 'CPooledObject<NEffectUpdateDecorator::CGravityDecorator>::ms_kPool''
text$yd	ENDS
; Function compile flags: /Ogtp
; File D:\Metin2 Server Files\mainline\SRC_2014\Metin2Client\eterLib\Pool.h
;	COMDAT ??__E?ms_kPool@?$CPooledObject@VCGravityDecorator@NEffectUpdateDecorator@@@@1V?$CDynamicPoolEx@VCGravityDecorator@NEffectUpdateDecorator@@@@A@@YAXXZ
text$di	SEGMENT
??__E?ms_kPool@?$CPooledObject@VCGravityDecorator@NEffectUpdateDecorator@@@@1V?$CDynamicPoolEx@VCGravityDecorator@NEffectUpdateDecorator@@@@A@@YAXXZ PROC ; `dynamic initializer for 'CPooledObject<NEffectUpdateDecorator::CGravityDecorator>::ms_kPool'', COMDAT

; 272  : template <class T> CDynamicPoolEx<T> CPooledObject<T>::ms_kPool;

  00000	68 00 00 00 00	 push	 OFFSET ??__F?ms_kPool@?$CPooledObject@VCGravityDecorator@NEffectUpdateDecorator@@@@1V?$CDynamicPoolEx@VCGravityDecorator@NEffectUpdateDecorator@@@@A@@YAXXZ ; `dynamic atexit destructor for 'CPooledObject<NEffectUpdateDecorator::CGravityDecorator>::ms_kPool''
  00005	e8 00 00 00 00	 call	 _atexit
  0000a	59		 pop	 ecx
  0000b	c3		 ret	 0
??__E?ms_kPool@?$CPooledObject@VCGravityDecorator@NEffectUpdateDecorator@@@@1V?$CDynamicPoolEx@VCGravityDecorator@NEffectUpdateDecorator@@@@A@@YAXXZ ENDP ; `dynamic initializer for 'CPooledObject<NEffectUpdateDecorator::CGravityDecorator>::ms_kPool''
text$di	ENDS
; Function compile flags: /Ogtp
;	COMDAT ??__F?ms_kPool@?$CPooledObject@VCAirResistanceDecorator@NEffectUpdateDecorator@@@@1V?$CDynamicPoolEx@VCAirResistanceDecorator@NEffectUpdateDecorator@@@@A@@YAXXZ
text$yd	SEGMENT
??__F?ms_kPool@?$CPooledObject@VCAirResistanceDecorator@NEffectUpdateDecorator@@@@1V?$CDynamicPoolEx@VCAirResistanceDecorator@NEffectUpdateDecorator@@@@A@@YAXXZ PROC ; `dynamic atexit destructor for 'CPooledObject<NEffectUpdateDecorator::CAirResistanceDecorator>::ms_kPool'', COMDAT
  00000	b9 00 00 00 00	 mov	 ecx, OFFSET ?ms_kPool@?$CPooledObject@VCAirResistanceDecorator@NEffectUpdateDecorator@@@@1V?$CDynamicPoolEx@VCAirResistanceDecorator@NEffectUpdateDecorator@@@@A ; CPooledObject<NEffectUpdateDecorator::CAirResistanceDecorator>::ms_kPool
  00005	e9 00 00 00 00	 jmp	 ??1?$CDynamicPoolEx@VCAirResistanceDecorator@NEffectUpdateDecorator@@@@UAE@XZ ; CDynamicPoolEx<NEffectUpdateDecorator::CAirResistanceDecorator>::~CDynamicPoolEx<NEffectUpdateDecorator::CAirResistanceDecorator>
??__F?ms_kPool@?$CPooledObject@VCAirResistanceDecorator@NEffectUpdateDecorator@@@@1V?$CDynamicPoolEx@VCAirResistanceDecorator@NEffectUpdateDecorator@@@@A@@YAXXZ ENDP ; `dynamic atexit destructor for 'CPooledObject<NEffectUpdateDecorator::CAirResistanceDecorator>::ms_kPool''
text$yd	ENDS
; Function compile flags: /Ogtp
; File D:\Metin2 Server Files\mainline\SRC_2014\Metin2Client\eterLib\Pool.h
;	COMDAT ??__E?ms_kPool@?$CPooledObject@VCAirResistanceDecorator@NEffectUpdateDecorator@@@@1V?$CDynamicPoolEx@VCAirResistanceDecorator@NEffectUpdateDecorator@@@@A@@YAXXZ
text$di	SEGMENT
??__E?ms_kPool@?$CPooledObject@VCAirResistanceDecorator@NEffectUpdateDecorator@@@@1V?$CDynamicPoolEx@VCAirResistanceDecorator@NEffectUpdateDecorator@@@@A@@YAXXZ PROC ; `dynamic initializer for 'CPooledObject<NEffectUpdateDecorator::CAirResistanceDecorator>::ms_kPool'', COMDAT

; 272  : template <class T> CDynamicPoolEx<T> CPooledObject<T>::ms_kPool;

  00000	68 00 00 00 00	 push	 OFFSET ??__F?ms_kPool@?$CPooledObject@VCAirResistanceDecorator@NEffectUpdateDecorator@@@@1V?$CDynamicPoolEx@VCAirResistanceDecorator@NEffectUpdateDecorator@@@@A@@YAXXZ ; `dynamic atexit destructor for 'CPooledObject<NEffectUpdateDecorator::CAirResistanceDecorator>::ms_kPool''
  00005	e8 00 00 00 00	 call	 _atexit
  0000a	59		 pop	 ecx
  0000b	c3		 ret	 0
??__E?ms_kPool@?$CPooledObject@VCAirResistanceDecorator@NEffectUpdateDecorator@@@@1V?$CDynamicPoolEx@VCAirResistanceDecorator@NEffectUpdateDecorator@@@@A@@YAXXZ ENDP ; `dynamic initializer for 'CPooledObject<NEffectUpdateDecorator::CAirResistanceDecorator>::ms_kPool''
text$di	ENDS
; Function compile flags: /Ogtp
;	COMDAT ??__F?ms_kPool@?$CPooledObject@VCTextureAnimationRandomDecorator@NEffectUpdateDecorator@@@@1V?$CDynamicPoolEx@VCTextureAnimationRandomDecorator@NEffectUpdateDecorator@@@@A@@YAXXZ
text$yd	SEGMENT
??__F?ms_kPool@?$CPooledObject@VCTextureAnimationRandomDecorator@NEffectUpdateDecorator@@@@1V?$CDynamicPoolEx@VCTextureAnimationRandomDecorator@NEffectUpdateDecorator@@@@A@@YAXXZ PROC ; `dynamic atexit destructor for 'CPooledObject<NEffectUpdateDecorator::CTextureAnimationRandomDecorator>::ms_kPool'', COMDAT
  00000	b9 00 00 00 00	 mov	 ecx, OFFSET ?ms_kPool@?$CPooledObject@VCTextureAnimationRandomDecorator@NEffectUpdateDecorator@@@@1V?$CDynamicPoolEx@VCTextureAnimationRandomDecorator@NEffectUpdateDecorator@@@@A ; CPooledObject<NEffectUpdateDecorator::CTextureAnimationRandomDecorator>::ms_kPool
  00005	e9 00 00 00 00	 jmp	 ??1?$CDynamicPoolEx@VCTextureAnimationRandomDecorator@NEffectUpdateDecorator@@@@UAE@XZ ; CDynamicPoolEx<NEffectUpdateDecorator::CTextureAnimationRandomDecorator>::~CDynamicPoolEx<NEffectUpdateDecorator::CTextureAnimationRandomDecorator>
??__F?ms_kPool@?$CPooledObject@VCTextureAnimationRandomDecorator@NEffectUpdateDecorator@@@@1V?$CDynamicPoolEx@VCTextureAnimationRandomDecorator@NEffectUpdateDecorator@@@@A@@YAXXZ ENDP ; `dynamic atexit destructor for 'CPooledObject<NEffectUpdateDecorator::CTextureAnimationRandomDecorator>::ms_kPool''
text$yd	ENDS
; Function compile flags: /Ogtp
; File D:\Metin2 Server Files\mainline\SRC_2014\Metin2Client\eterLib\Pool.h
;	COMDAT ??__E?ms_kPool@?$CPooledObject@VCTextureAnimationRandomDecorator@NEffectUpdateDecorator@@@@1V?$CDynamicPoolEx@VCTextureAnimationRandomDecorator@NEffectUpdateDecorator@@@@A@@YAXXZ
text$di	SEGMENT
??__E?ms_kPool@?$CPooledObject@VCTextureAnimationRandomDecorator@NEffectUpdateDecorator@@@@1V?$CDynamicPoolEx@VCTextureAnimationRandomDecorator@NEffectUpdateDecorator@@@@A@@YAXXZ PROC ; `dynamic initializer for 'CPooledObject<NEffectUpdateDecorator::CTextureAnimationRandomDecorator>::ms_kPool'', COMDAT

; 272  : template <class T> CDynamicPoolEx<T> CPooledObject<T>::ms_kPool;

  00000	68 00 00 00 00	 push	 OFFSET ??__F?ms_kPool@?$CPooledObject@VCTextureAnimationRandomDecorator@NEffectUpdateDecorator@@@@1V?$CDynamicPoolEx@VCTextureAnimationRandomDecorator@NEffectUpdateDecorator@@@@A@@YAXXZ ; `dynamic atexit destructor for 'CPooledObject<NEffectUpdateDecorator::CTextureAnimationRandomDecorator>::ms_kPool''
  00005	e8 00 00 00 00	 call	 _atexit
  0000a	59		 pop	 ecx
  0000b	c3		 ret	 0
??__E?ms_kPool@?$CPooledObject@VCTextureAnimationRandomDecorator@NEffectUpdateDecorator@@@@1V?$CDynamicPoolEx@VCTextureAnimationRandomDecorator@NEffectUpdateDecorator@@@@A@@YAXXZ ENDP ; `dynamic initializer for 'CPooledObject<NEffectUpdateDecorator::CTextureAnimationRandomDecorator>::ms_kPool''
text$di	ENDS
; Function compile flags: /Ogtp
;	COMDAT ??__F?ms_kPool@?$CPooledObject@VCTextureAnimationCCWDecorator@NEffectUpdateDecorator@@@@1V?$CDynamicPoolEx@VCTextureAnimationCCWDecorator@NEffectUpdateDecorator@@@@A@@YAXXZ
text$yd	SEGMENT
??__F?ms_kPool@?$CPooledObject@VCTextureAnimationCCWDecorator@NEffectUpdateDecorator@@@@1V?$CDynamicPoolEx@VCTextureAnimationCCWDecorator@NEffectUpdateDecorator@@@@A@@YAXXZ PROC ; `dynamic atexit destructor for 'CPooledObject<NEffectUpdateDecorator::CTextureAnimationCCWDecorator>::ms_kPool'', COMDAT
  00000	b9 00 00 00 00	 mov	 ecx, OFFSET ?ms_kPool@?$CPooledObject@VCTextureAnimationCCWDecorator@NEffectUpdateDecorator@@@@1V?$CDynamicPoolEx@VCTextureAnimationCCWDecorator@NEffectUpdateDecorator@@@@A ; CPooledObject<NEffectUpdateDecorator::CTextureAnimationCCWDecorator>::ms_kPool
  00005	e9 00 00 00 00	 jmp	 ??1?$CDynamicPoolEx@VCTextureAnimationCCWDecorator@NEffectUpdateDecorator@@@@UAE@XZ ; CDynamicPoolEx<NEffectUpdateDecorator::CTextureAnimationCCWDecorator>::~CDynamicPoolEx<NEffectUpdateDecorator::CTextureAnimationCCWDecorator>
??__F?ms_kPool@?$CPooledObject@VCTextureAnimationCCWDecorator@NEffectUpdateDecorator@@@@1V?$CDynamicPoolEx@VCTextureAnimationCCWDecorator@NEffectUpdateDecorator@@@@A@@YAXXZ ENDP ; `dynamic atexit destructor for 'CPooledObject<NEffectUpdateDecorator::CTextureAnimationCCWDecorator>::ms_kPool''
text$yd	ENDS
; Function compile flags: /Ogtp
; File D:\Metin2 Server Files\mainline\SRC_2014\Metin2Client\eterLib\Pool.h
;	COMDAT ??__E?ms_kPool@?$CPooledObject@VCTextureAnimationCCWDecorator@NEffectUpdateDecorator@@@@1V?$CDynamicPoolEx@VCTextureAnimationCCWDecorator@NEffectUpdateDecorator@@@@A@@YAXXZ
text$di	SEGMENT
??__E?ms_kPool@?$CPooledObject@VCTextureAnimationCCWDecorator@NEffectUpdateDecorator@@@@1V?$CDynamicPoolEx@VCTextureAnimationCCWDecorator@NEffectUpdateDecorator@@@@A@@YAXXZ PROC ; `dynamic initializer for 'CPooledObject<NEffectUpdateDecorator::CTextureAnimationCCWDecorator>::ms_kPool'', COMDAT

; 272  : template <class T> CDynamicPoolEx<T> CPooledObject<T>::ms_kPool;

  00000	68 00 00 00 00	 push	 OFFSET ??__F?ms_kPool@?$CPooledObject@VCTextureAnimationCCWDecorator@NEffectUpdateDecorator@@@@1V?$CDynamicPoolEx@VCTextureAnimationCCWDecorator@NEffectUpdateDecorator@@@@A@@YAXXZ ; `dynamic atexit destructor for 'CPooledObject<NEffectUpdateDecorator::CTextureAnimationCCWDecorator>::ms_kPool''
  00005	e8 00 00 00 00	 call	 _atexit
  0000a	59		 pop	 ecx
  0000b	c3		 ret	 0
??__E?ms_kPool@?$CPooledObject@VCTextureAnimationCCWDecorator@NEffectUpdateDecorator@@@@1V?$CDynamicPoolEx@VCTextureAnimationCCWDecorator@NEffectUpdateDecorator@@@@A@@YAXXZ ENDP ; `dynamic initializer for 'CPooledObject<NEffectUpdateDecorator::CTextureAnimationCCWDecorator>::ms_kPool''
text$di	ENDS
; Function compile flags: /Ogtp
;	COMDAT ??__F?ms_kPool@?$CPooledObject@VCTextureAnimationCWDecorator@NEffectUpdateDecorator@@@@1V?$CDynamicPoolEx@VCTextureAnimationCWDecorator@NEffectUpdateDecorator@@@@A@@YAXXZ
text$yd	SEGMENT
??__F?ms_kPool@?$CPooledObject@VCTextureAnimationCWDecorator@NEffectUpdateDecorator@@@@1V?$CDynamicPoolEx@VCTextureAnimationCWDecorator@NEffectUpdateDecorator@@@@A@@YAXXZ PROC ; `dynamic atexit destructor for 'CPooledObject<NEffectUpdateDecorator::CTextureAnimationCWDecorator>::ms_kPool'', COMDAT
  00000	b9 00 00 00 00	 mov	 ecx, OFFSET ?ms_kPool@?$CPooledObject@VCTextureAnimationCWDecorator@NEffectUpdateDecorator@@@@1V?$CDynamicPoolEx@VCTextureAnimationCWDecorator@NEffectUpdateDecorator@@@@A ; CPooledObject<NEffectUpdateDecorator::CTextureAnimationCWDecorator>::ms_kPool
  00005	e9 00 00 00 00	 jmp	 ??1?$CDynamicPoolEx@VCTextureAnimationCWDecorator@NEffectUpdateDecorator@@@@UAE@XZ ; CDynamicPoolEx<NEffectUpdateDecorator::CTextureAnimationCWDecorator>::~CDynamicPoolEx<NEffectUpdateDecorator::CTextureAnimationCWDecorator>
??__F?ms_kPool@?$CPooledObject@VCTextureAnimationCWDecorator@NEffectUpdateDecorator@@@@1V?$CDynamicPoolEx@VCTextureAnimationCWDecorator@NEffectUpdateDecorator@@@@A@@YAXXZ ENDP ; `dynamic atexit destructor for 'CPooledObject<NEffectUpdateDecorator::CTextureAnimationCWDecorator>::ms_kPool''
text$yd	ENDS
; Function compile flags: /Ogtp
; File D:\Metin2 Server Files\mainline\SRC_2014\Metin2Client\eterLib\Pool.h
;	COMDAT ??__E?ms_kPool@?$CPooledObject@VCTextureAnimationCWDecorator@NEffectUpdateDecorator@@@@1V?$CDynamicPoolEx@VCTextureAnimationCWDecorator@NEffectUpdateDecorator@@@@A@@YAXXZ
text$di	SEGMENT
??__E?ms_kPool@?$CPooledObject@VCTextureAnimationCWDecorator@NEffectUpdateDecorator@@@@1V?$CDynamicPoolEx@VCTextureAnimationCWDecorator@NEffectUpdateDecorator@@@@A@@YAXXZ PROC ; `dynamic initializer for 'CPooledObject<NEffectUpdateDecorator::CTextureAnimationCWDecorator>::ms_kPool'', COMDAT

; 272  : template <class T> CDynamicPoolEx<T> CPooledObject<T>::ms_kPool;

  00000	68 00 00 00 00	 push	 OFFSET ??__F?ms_kPool@?$CPooledObject@VCTextureAnimationCWDecorator@NEffectUpdateDecorator@@@@1V?$CDynamicPoolEx@VCTextureAnimationCWDecorator@NEffectUpdateDecorator@@@@A@@YAXXZ ; `dynamic atexit destructor for 'CPooledObject<NEffectUpdateDecorator::CTextureAnimationCWDecorator>::ms_kPool''
  00005	e8 00 00 00 00	 call	 _atexit
  0000a	59		 pop	 ecx
  0000b	c3		 ret	 0
??__E?ms_kPool@?$CPooledObject@VCTextureAnimationCWDecorator@NEffectUpdateDecorator@@@@1V?$CDynamicPoolEx@VCTextureAnimationCWDecorator@NEffectUpdateDecorator@@@@A@@YAXXZ ENDP ; `dynamic initializer for 'CPooledObject<NEffectUpdateDecorator::CTextureAnimationCWDecorator>::ms_kPool''
text$di	ENDS
; Function compile flags: /Ogtp
;	COMDAT ??__F?ms_kPool@?$CPooledObject@VCNullDecorator@NEffectUpdateDecorator@@@@1V?$CDynamicPoolEx@VCNullDecorator@NEffectUpdateDecorator@@@@A@@YAXXZ
text$yd	SEGMENT
??__F?ms_kPool@?$CPooledObject@VCNullDecorator@NEffectUpdateDecorator@@@@1V?$CDynamicPoolEx@VCNullDecorator@NEffectUpdateDecorator@@@@A@@YAXXZ PROC ; `dynamic atexit destructor for 'CPooledObject<NEffectUpdateDecorator::CNullDecorator>::ms_kPool'', COMDAT
  00000	b9 00 00 00 00	 mov	 ecx, OFFSET ?ms_kPool@?$CPooledObject@VCNullDecorator@NEffectUpdateDecorator@@@@1V?$CDynamicPoolEx@VCNullDecorator@NEffectUpdateDecorator@@@@A ; CPooledObject<NEffectUpdateDecorator::CNullDecorator>::ms_kPool
  00005	e9 00 00 00 00	 jmp	 ??1?$CDynamicPoolEx@VCNullDecorator@NEffectUpdateDecorator@@@@UAE@XZ ; CDynamicPoolEx<NEffectUpdateDecorator::CNullDecorator>::~CDynamicPoolEx<NEffectUpdateDecorator::CNullDecorator>
??__F?ms_kPool@?$CPooledObject@VCNullDecorator@NEffectUpdateDecorator@@@@1V?$CDynamicPoolEx@VCNullDecorator@NEffectUpdateDecorator@@@@A@@YAXXZ ENDP ; `dynamic atexit destructor for 'CPooledObject<NEffectUpdateDecorator::CNullDecorator>::ms_kPool''
text$yd	ENDS
; Function compile flags: /Ogtp
; File D:\Metin2 Server Files\mainline\SRC_2014\Metin2Client\eterLib\Pool.h
;	COMDAT ??__E?ms_kPool@?$CPooledObject@VCNullDecorator@NEffectUpdateDecorator@@@@1V?$CDynamicPoolEx@VCNullDecorator@NEffectUpdateDecorator@@@@A@@YAXXZ
text$di	SEGMENT
??__E?ms_kPool@?$CPooledObject@VCNullDecorator@NEffectUpdateDecorator@@@@1V?$CDynamicPoolEx@VCNullDecorator@NEffectUpdateDecorator@@@@A@@YAXXZ PROC ; `dynamic initializer for 'CPooledObject<NEffectUpdateDecorator::CNullDecorator>::ms_kPool'', COMDAT

; 272  : template <class T> CDynamicPoolEx<T> CPooledObject<T>::ms_kPool;

  00000	68 00 00 00 00	 push	 OFFSET ??__F?ms_kPool@?$CPooledObject@VCNullDecorator@NEffectUpdateDecorator@@@@1V?$CDynamicPoolEx@VCNullDecorator@NEffectUpdateDecorator@@@@A@@YAXXZ ; `dynamic atexit destructor for 'CPooledObject<NEffectUpdateDecorator::CNullDecorator>::ms_kPool''
  00005	e8 00 00 00 00	 call	 _atexit
  0000a	59		 pop	 ecx
  0000b	c3		 ret	 0
??__E?ms_kPool@?$CPooledObject@VCNullDecorator@NEffectUpdateDecorator@@@@1V?$CDynamicPoolEx@VCNullDecorator@NEffectUpdateDecorator@@@@A@@YAXXZ ENDP ; `dynamic initializer for 'CPooledObject<NEffectUpdateDecorator::CNullDecorator>::ms_kPool''
text$di	ENDS
; Function compile flags: /Ogtp
;	COMDAT ??__F?ms_kPool@?$CPooledObject@VCHeaderDecorator@NEffectUpdateDecorator@@@@1V?$CDynamicPoolEx@VCHeaderDecorator@NEffectUpdateDecorator@@@@A@@YAXXZ
text$yd	SEGMENT
??__F?ms_kPool@?$CPooledObject@VCHeaderDecorator@NEffectUpdateDecorator@@@@1V?$CDynamicPoolEx@VCHeaderDecorator@NEffectUpdateDecorator@@@@A@@YAXXZ PROC ; `dynamic atexit destructor for 'CPooledObject<NEffectUpdateDecorator::CHeaderDecorator>::ms_kPool'', COMDAT
  00000	b9 00 00 00 00	 mov	 ecx, OFFSET ?ms_kPool@?$CPooledObject@VCHeaderDecorator@NEffectUpdateDecorator@@@@1V?$CDynamicPoolEx@VCHeaderDecorator@NEffectUpdateDecorator@@@@A ; CPooledObject<NEffectUpdateDecorator::CHeaderDecorator>::ms_kPool
  00005	e9 00 00 00 00	 jmp	 ??1?$CDynamicPoolEx@VCHeaderDecorator@NEffectUpdateDecorator@@@@UAE@XZ ; CDynamicPoolEx<NEffectUpdateDecorator::CHeaderDecorator>::~CDynamicPoolEx<NEffectUpdateDecorator::CHeaderDecorator>
??__F?ms_kPool@?$CPooledObject@VCHeaderDecorator@NEffectUpdateDecorator@@@@1V?$CDynamicPoolEx@VCHeaderDecorator@NEffectUpdateDecorator@@@@A@@YAXXZ ENDP ; `dynamic atexit destructor for 'CPooledObject<NEffectUpdateDecorator::CHeaderDecorator>::ms_kPool''
text$yd	ENDS
; Function compile flags: /Ogtp
; File D:\Metin2 Server Files\mainline\SRC_2014\Metin2Client\eterLib\Pool.h
;	COMDAT ??__E?ms_kPool@?$CPooledObject@VCHeaderDecorator@NEffectUpdateDecorator@@@@1V?$CDynamicPoolEx@VCHeaderDecorator@NEffectUpdateDecorator@@@@A@@YAXXZ
text$di	SEGMENT
??__E?ms_kPool@?$CPooledObject@VCHeaderDecorator@NEffectUpdateDecorator@@@@1V?$CDynamicPoolEx@VCHeaderDecorator@NEffectUpdateDecorator@@@@A@@YAXXZ PROC ; `dynamic initializer for 'CPooledObject<NEffectUpdateDecorator::CHeaderDecorator>::ms_kPool'', COMDAT

; 272  : template <class T> CDynamicPoolEx<T> CPooledObject<T>::ms_kPool;

  00000	68 00 00 00 00	 push	 OFFSET ??__F?ms_kPool@?$CPooledObject@VCHeaderDecorator@NEffectUpdateDecorator@@@@1V?$CDynamicPoolEx@VCHeaderDecorator@NEffectUpdateDecorator@@@@A@@YAXXZ ; `dynamic atexit destructor for 'CPooledObject<NEffectUpdateDecorator::CHeaderDecorator>::ms_kPool''
  00005	e8 00 00 00 00	 call	 _atexit
  0000a	59		 pop	 ecx
  0000b	c3		 ret	 0
??__E?ms_kPool@?$CPooledObject@VCHeaderDecorator@NEffectUpdateDecorator@@@@1V?$CDynamicPoolEx@VCHeaderDecorator@NEffectUpdateDecorator@@@@A@@YAXXZ ENDP ; `dynamic initializer for 'CPooledObject<NEffectUpdateDecorator::CHeaderDecorator>::ms_kPool''
text$di	ENDS
; Function compile flags: /Ogtp
; File C:\Program Files (x86)\Microsoft Visual Studio\2019\Community\VC\Tools\MSVC\14.28.29333\include\xmemory
;	COMDAT ??$_Destroy_range@V?$allocator@PAVCRotationDecorator@NEffectUpdateDecorator@@@std@@@std@@YAXPAPAVCRotationDecorator@NEffectUpdateDecorator@@QAPAV12@AAV?$allocator@PAVCRotationDecorator@NEffectUpdateDecorator@@@0@@Z
_TEXT	SEGMENT
__First$ = 8						; size = 4
__Last$ = 12						; size = 4
__Al$ = 16						; size = 4
??$_Destroy_range@V?$allocator@PAVCRotationDecorator@NEffectUpdateDecorator@@@std@@@std@@YAXPAPAVCRotationDecorator@NEffectUpdateDecorator@@QAPAV12@AAV?$allocator@PAVCRotationDecorator@NEffectUpdateDecorator@@@0@@Z PROC ; std::_Destroy_range<std::allocator<NEffectUpdateDecorator::CRotationDecorator *> >, COMDAT

; 963  :     // note that this is an optimization for debug mode codegen; in release mode the BE removes all of this
; 964  :     using _Ty = typename _Alloc::value_type;
; 965  :     if _CONSTEXPR_IF (!conjunction_v<is_trivially_destructible<_Ty>, _Uses_default_destroy<_Alloc, _Ty*>>) {
; 966  :         for (; _First != _Last; ++_First) {
; 967  :             allocator_traits<_Alloc>::destroy(_Al, _Unfancy(_First));
; 968  :         }
; 969  :     }
; 970  : }

  00000	c2 00 00	 ret	 0
??$_Destroy_range@V?$allocator@PAVCRotationDecorator@NEffectUpdateDecorator@@@std@@@std@@YAXPAPAVCRotationDecorator@NEffectUpdateDecorator@@QAPAV12@AAV?$allocator@PAVCRotationDecorator@NEffectUpdateDecorator@@@0@@Z ENDP ; std::_Destroy_range<std::allocator<NEffectUpdateDecorator::CRotationDecorator *> >
_TEXT	ENDS
; Function compile flags: /Ogtp
; File C:\Program Files (x86)\Microsoft Visual Studio\2019\Community\VC\Tools\MSVC\14.28.29333\include\xmemory
;	COMDAT ??$_Destroy_range@V?$allocator@PAVCGravityDecorator@NEffectUpdateDecorator@@@std@@@std@@YAXPAPAVCGravityDecorator@NEffectUpdateDecorator@@QAPAV12@AAV?$allocator@PAVCGravityDecorator@NEffectUpdateDecorator@@@0@@Z
_TEXT	SEGMENT
__First$ = 8						; size = 4
__Last$ = 12						; size = 4
__Al$ = 16						; size = 4
??$_Destroy_range@V?$allocator@PAVCGravityDecorator@NEffectUpdateDecorator@@@std@@@std@@YAXPAPAVCGravityDecorator@NEffectUpdateDecorator@@QAPAV12@AAV?$allocator@PAVCGravityDecorator@NEffectUpdateDecorator@@@0@@Z PROC ; std::_Destroy_range<std::allocator<NEffectUpdateDecorator::CGravityDecorator *> >, COMDAT

; 963  :     // note that this is an optimization for debug mode codegen; in release mode the BE removes all of this
; 964  :     using _Ty = typename _Alloc::value_type;
; 965  :     if _CONSTEXPR_IF (!conjunction_v<is_trivially_destructible<_Ty>, _Uses_default_destroy<_Alloc, _Ty*>>) {
; 966  :         for (; _First != _Last; ++_First) {
; 967  :             allocator_traits<_Alloc>::destroy(_Al, _Unfancy(_First));
; 968  :         }
; 969  :     }
; 970  : }

  00000	c2 00 00	 ret	 0
??$_Destroy_range@V?$allocator@PAVCGravityDecorator@NEffectUpdateDecorator@@@std@@@std@@YAXPAPAVCGravityDecorator@NEffectUpdateDecorator@@QAPAV12@AAV?$allocator@PAVCGravityDecorator@NEffectUpdateDecorator@@@0@@Z ENDP ; std::_Destroy_range<std::allocator<NEffectUpdateDecorator::CGravityDecorator *> >
_TEXT	ENDS
; Function compile flags: /Ogtp
; File C:\Program Files (x86)\Microsoft Visual Studio\2019\Community\VC\Tools\MSVC\14.28.29333\include\xmemory
;	COMDAT ??$_Destroy_range@V?$allocator@PAVCAirResistanceDecorator@NEffectUpdateDecorator@@@std@@@std@@YAXPAPAVCAirResistanceDecorator@NEffectUpdateDecorator@@QAPAV12@AAV?$allocator@PAVCAirResistanceDecorator@NEffectUpdateDecorator@@@0@@Z
_TEXT	SEGMENT
__First$ = 8						; size = 4
__Last$ = 12						; size = 4
__Al$ = 16						; size = 4
??$_Destroy_range@V?$allocator@PAVCAirResistanceDecorator@NEffectUpdateDecorator@@@std@@@std@@YAXPAPAVCAirResistanceDecorator@NEffectUpdateDecorator@@QAPAV12@AAV?$allocator@PAVCAirResistanceDecorator@NEffectUpdateDecorator@@@0@@Z PROC ; std::_Destroy_range<std::allocator<NEffectUpdateDecorator::CAirResistanceDecorator *> >, COMDAT

; 963  :     // note that this is an optimization for debug mode codegen; in release mode the BE removes all of this
; 964  :     using _Ty = typename _Alloc::value_type;
; 965  :     if _CONSTEXPR_IF (!conjunction_v<is_trivially_destructible<_Ty>, _Uses_default_destroy<_Alloc, _Ty*>>) {
; 966  :         for (; _First != _Last; ++_First) {
; 967  :             allocator_traits<_Alloc>::destroy(_Al, _Unfancy(_First));
; 968  :         }
; 969  :     }
; 970  : }

  00000	c2 00 00	 ret	 0
??$_Destroy_range@V?$allocator@PAVCAirResistanceDecorator@NEffectUpdateDecorator@@@std@@@std@@YAXPAPAVCAirResistanceDecorator@NEffectUpdateDecorator@@QAPAV12@AAV?$allocator@PAVCAirResistanceDecorator@NEffectUpdateDecorator@@@0@@Z ENDP ; std::_Destroy_range<std::allocator<NEffectUpdateDecorator::CAirResistanceDecorator *> >
_TEXT	ENDS
; Function compile flags: /Ogtp
; File C:\Program Files (x86)\Microsoft Visual Studio\2019\Community\VC\Tools\MSVC\14.28.29333\include\xmemory
;	COMDAT ??$_Destroy_range@V?$allocator@PAVCTextureAnimationRandomDecorator@NEffectUpdateDecorator@@@std@@@std@@YAXPAPAVCTextureAnimationRandomDecorator@NEffectUpdateDecorator@@QAPAV12@AAV?$allocator@PAVCTextureAnimationRandomDecorator@NEffectUpdateDecorator@@@0@@Z
_TEXT	SEGMENT
__First$ = 8						; size = 4
__Last$ = 12						; size = 4
__Al$ = 16						; size = 4
??$_Destroy_range@V?$allocator@PAVCTextureAnimationRandomDecorator@NEffectUpdateDecorator@@@std@@@std@@YAXPAPAVCTextureAnimationRandomDecorator@NEffectUpdateDecorator@@QAPAV12@AAV?$allocator@PAVCTextureAnimationRandomDecorator@NEffectUpdateDecorator@@@0@@Z PROC ; std::_Destroy_range<std::allocator<NEffectUpdateDecorator::CTextureAnimationRandomDecorator *> >, COMDAT

; 963  :     // note that this is an optimization for debug mode codegen; in release mode the BE removes all of this
; 964  :     using _Ty = typename _Alloc::value_type;
; 965  :     if _CONSTEXPR_IF (!conjunction_v<is_trivially_destructible<_Ty>, _Uses_default_destroy<_Alloc, _Ty*>>) {
; 966  :         for (; _First != _Last; ++_First) {
; 967  :             allocator_traits<_Alloc>::destroy(_Al, _Unfancy(_First));
; 968  :         }
; 969  :     }
; 970  : }

  00000	c2 00 00	 ret	 0
??$_Destroy_range@V?$allocator@PAVCTextureAnimationRandomDecorator@NEffectUpdateDecorator@@@std@@@std@@YAXPAPAVCTextureAnimationRandomDecorator@NEffectUpdateDecorator@@QAPAV12@AAV?$allocator@PAVCTextureAnimationRandomDecorator@NEffectUpdateDecorator@@@0@@Z ENDP ; std::_Destroy_range<std::allocator<NEffectUpdateDecorator::CTextureAnimationRandomDecorator *> >
_TEXT	ENDS
; Function compile flags: /Ogtp
; File C:\Program Files (x86)\Microsoft Visual Studio\2019\Community\VC\Tools\MSVC\14.28.29333\include\xmemory
;	COMDAT ??$_Destroy_range@V?$allocator@PAVCTextureAnimationCCWDecorator@NEffectUpdateDecorator@@@std@@@std@@YAXPAPAVCTextureAnimationCCWDecorator@NEffectUpdateDecorator@@QAPAV12@AAV?$allocator@PAVCTextureAnimationCCWDecorator@NEffectUpdateDecorator@@@0@@Z
_TEXT	SEGMENT
__First$ = 8						; size = 4
__Last$ = 12						; size = 4
__Al$ = 16						; size = 4
??$_Destroy_range@V?$allocator@PAVCTextureAnimationCCWDecorator@NEffectUpdateDecorator@@@std@@@std@@YAXPAPAVCTextureAnimationCCWDecorator@NEffectUpdateDecorator@@QAPAV12@AAV?$allocator@PAVCTextureAnimationCCWDecorator@NEffectUpdateDecorator@@@0@@Z PROC ; std::_Destroy_range<std::allocator<NEffectUpdateDecorator::CTextureAnimationCCWDecorator *> >, COMDAT

; 963  :     // note that this is an optimization for debug mode codegen; in release mode the BE removes all of this
; 964  :     using _Ty = typename _Alloc::value_type;
; 965  :     if _CONSTEXPR_IF (!conjunction_v<is_trivially_destructible<_Ty>, _Uses_default_destroy<_Alloc, _Ty*>>) {
; 966  :         for (; _First != _Last; ++_First) {
; 967  :             allocator_traits<_Alloc>::destroy(_Al, _Unfancy(_First));
; 968  :         }
; 969  :     }
; 970  : }

  00000	c2 00 00	 ret	 0
??$_Destroy_range@V?$allocator@PAVCTextureAnimationCCWDecorator@NEffectUpdateDecorator@@@std@@@std@@YAXPAPAVCTextureAnimationCCWDecorator@NEffectUpdateDecorator@@QAPAV12@AAV?$allocator@PAVCTextureAnimationCCWDecorator@NEffectUpdateDecorator@@@0@@Z ENDP ; std::_Destroy_range<std::allocator<NEffectUpdateDecorator::CTextureAnimationCCWDecorator *> >
_TEXT	ENDS
; Function compile flags: /Ogtp
; File C:\Program Files (x86)\Microsoft Visual Studio\2019\Community\VC\Tools\MSVC\14.28.29333\include\xmemory
;	COMDAT ??$_Destroy_range@V?$allocator@PAVCTextureAnimationCWDecorator@NEffectUpdateDecorator@@@std@@@std@@YAXPAPAVCTextureAnimationCWDecorator@NEffectUpdateDecorator@@QAPAV12@AAV?$allocator@PAVCTextureAnimationCWDecorator@NEffectUpdateDecorator@@@0@@Z
_TEXT	SEGMENT
__First$ = 8						; size = 4
__Last$ = 12						; size = 4
__Al$ = 16						; size = 4
??$_Destroy_range@V?$allocator@PAVCTextureAnimationCWDecorator@NEffectUpdateDecorator@@@std@@@std@@YAXPAPAVCTextureAnimationCWDecorator@NEffectUpdateDecorator@@QAPAV12@AAV?$allocator@PAVCTextureAnimationCWDecorator@NEffectUpdateDecorator@@@0@@Z PROC ; std::_Destroy_range<std::allocator<NEffectUpdateDecorator::CTextureAnimationCWDecorator *> >, COMDAT

; 963  :     // note that this is an optimization for debug mode codegen; in release mode the BE removes all of this
; 964  :     using _Ty = typename _Alloc::value_type;
; 965  :     if _CONSTEXPR_IF (!conjunction_v<is_trivially_destructible<_Ty>, _Uses_default_destroy<_Alloc, _Ty*>>) {
; 966  :         for (; _First != _Last; ++_First) {
; 967  :             allocator_traits<_Alloc>::destroy(_Al, _Unfancy(_First));
; 968  :         }
; 969  :     }
; 970  : }

  00000	c2 00 00	 ret	 0
??$_Destroy_range@V?$allocator@PAVCTextureAnimationCWDecorator@NEffectUpdateDecorator@@@std@@@std@@YAXPAPAVCTextureAnimationCWDecorator@NEffectUpdateDecorator@@QAPAV12@AAV?$allocator@PAVCTextureAnimationCWDecorator@NEffectUpdateDecorator@@@0@@Z ENDP ; std::_Destroy_range<std::allocator<NEffectUpdateDecorator::CTextureAnimationCWDecorator *> >
_TEXT	ENDS
; Function compile flags: /Ogtp
; File C:\Program Files (x86)\Microsoft Visual Studio\2019\Community\VC\Tools\MSVC\14.28.29333\include\xmemory
;	COMDAT ??$_Destroy_range@V?$allocator@PAVCNullDecorator@NEffectUpdateDecorator@@@std@@@std@@YAXPAPAVCNullDecorator@NEffectUpdateDecorator@@QAPAV12@AAV?$allocator@PAVCNullDecorator@NEffectUpdateDecorator@@@0@@Z
_TEXT	SEGMENT
__First$ = 8						; size = 4
__Last$ = 12						; size = 4
__Al$ = 16						; size = 4
??$_Destroy_range@V?$allocator@PAVCNullDecorator@NEffectUpdateDecorator@@@std@@@std@@YAXPAPAVCNullDecorator@NEffectUpdateDecorator@@QAPAV12@AAV?$allocator@PAVCNullDecorator@NEffectUpdateDecorator@@@0@@Z PROC ; std::_Destroy_range<std::allocator<NEffectUpdateDecorator::CNullDecorator *> >, COMDAT

; 963  :     // note that this is an optimization for debug mode codegen; in release mode the BE removes all of this
; 964  :     using _Ty = typename _Alloc::value_type;
; 965  :     if _CONSTEXPR_IF (!conjunction_v<is_trivially_destructible<_Ty>, _Uses_default_destroy<_Alloc, _Ty*>>) {
; 966  :         for (; _First != _Last; ++_First) {
; 967  :             allocator_traits<_Alloc>::destroy(_Al, _Unfancy(_First));
; 968  :         }
; 969  :     }
; 970  : }

  00000	c2 00 00	 ret	 0
??$_Destroy_range@V?$allocator@PAVCNullDecorator@NEffectUpdateDecorator@@@std@@@std@@YAXPAPAVCNullDecorator@NEffectUpdateDecorator@@QAPAV12@AAV?$allocator@PAVCNullDecorator@NEffectUpdateDecorator@@@0@@Z ENDP ; std::_Destroy_range<std::allocator<NEffectUpdateDecorator::CNullDecorator *> >
_TEXT	ENDS
; Function compile flags: /Ogtp
; File C:\Program Files (x86)\Microsoft Visual Studio\2019\Community\VC\Tools\MSVC\14.28.29333\include\xmemory
;	COMDAT ??$_Destroy_range@V?$allocator@PAVCHeaderDecorator@NEffectUpdateDecorator@@@std@@@std@@YAXPAPAVCHeaderDecorator@NEffectUpdateDecorator@@QAPAV12@AAV?$allocator@PAVCHeaderDecorator@NEffectUpdateDecorator@@@0@@Z
_TEXT	SEGMENT
__First$ = 8						; size = 4
__Last$ = 12						; size = 4
__Al$ = 16						; size = 4
??$_Destroy_range@V?$allocator@PAVCHeaderDecorator@NEffectUpdateDecorator@@@std@@@std@@YAXPAPAVCHeaderDecorator@NEffectUpdateDecorator@@QAPAV12@AAV?$allocator@PAVCHeaderDecorator@NEffectUpdateDecorator@@@0@@Z PROC ; std::_Destroy_range<std::allocator<NEffectUpdateDecorator::CHeaderDecorator *> >, COMDAT

; 963  :     // note that this is an optimization for debug mode codegen; in release mode the BE removes all of this
; 964  :     using _Ty = typename _Alloc::value_type;
; 965  :     if _CONSTEXPR_IF (!conjunction_v<is_trivially_destructible<_Ty>, _Uses_default_destroy<_Alloc, _Ty*>>) {
; 966  :         for (; _First != _Last; ++_First) {
; 967  :             allocator_traits<_Alloc>::destroy(_Al, _Unfancy(_First));
; 968  :         }
; 969  :     }
; 970  : }

  00000	c2 00 00	 ret	 0
??$_Destroy_range@V?$allocator@PAVCHeaderDecorator@NEffectUpdateDecorator@@@std@@@std@@YAXPAPAVCHeaderDecorator@NEffectUpdateDecorator@@QAPAV12@AAV?$allocator@PAVCHeaderDecorator@NEffectUpdateDecorator@@@0@@Z ENDP ; std::_Destroy_range<std::allocator<NEffectUpdateDecorator::CHeaderDecorator *> >
_TEXT	ENDS
; Function compile flags: /Ogtp
; File C:\Program Files (x86)\Microsoft Visual Studio\2019\Community\VC\Tools\MSVC\14.28.29333\include\xmemory
;	COMDAT ??$_Destroy_range@V?$allocator@K@std@@@std@@YAXPAKQAKAAV?$allocator@K@0@@Z
_TEXT	SEGMENT
__First$ = 8						; size = 4
__Last$ = 12						; size = 4
__Al$ = 16						; size = 4
??$_Destroy_range@V?$allocator@K@std@@@std@@YAXPAKQAKAAV?$allocator@K@0@@Z PROC ; std::_Destroy_range<std::allocator<unsigned long> >, COMDAT

; 963  :     // note that this is an optimization for debug mode codegen; in release mode the BE removes all of this
; 964  :     using _Ty = typename _Alloc::value_type;
; 965  :     if _CONSTEXPR_IF (!conjunction_v<is_trivially_destructible<_Ty>, _Uses_default_destroy<_Alloc, _Ty*>>) {
; 966  :         for (; _First != _Last; ++_First) {
; 967  :             allocator_traits<_Alloc>::destroy(_Al, _Unfancy(_First));
; 968  :         }
; 969  :     }
; 970  : }

  00000	c2 00 00	 ret	 0
??$_Destroy_range@V?$allocator@K@std@@@std@@YAXPAKQAKAAV?$allocator@K@0@@Z ENDP ; std::_Destroy_range<std::allocator<unsigned long> >
_TEXT	ENDS
; Function compile flags: /Ogtp
; File C:\Program Files (x86)\Microsoft Visual Studio\2019\Community\VC\Tools\MSVC\14.28.29333\include\xmemory
;	COMDAT ??$_Pocca@V?$allocator@D@std@@@std@@YAXAAV?$allocator@D@0@ABV10@@Z
_TEXT	SEGMENT
__Left$ = 8						; size = 4
__Right$ = 12						; size = 4
??$_Pocca@V?$allocator@D@std@@@std@@YAXAAV?$allocator@D@0@ABV10@@Z PROC ; std::_Pocca<std::allocator<char> >, COMDAT

; 886  :     if constexpr (allocator_traits<_Alloc>::propagate_on_container_copy_assignment::value) {
; 887  :         _Left = _Right;
; 888  :     }
; 889  : }

  00000	c2 00 00	 ret	 0
??$_Pocca@V?$allocator@D@std@@@std@@YAXAAV?$allocator@D@0@ABV10@@Z ENDP ; std::_Pocca<std::allocator<char> >
_TEXT	ENDS
; Function compile flags: /Ogtp
; File C:\Program Files (x86)\Microsoft Visual Studio\2019\Community\VC\Tools\MSVC\14.28.29333\include\vector
; File C:\Program Files (x86)\Microsoft Visual Studio\2019\Community\VC\Tools\MSVC\14.28.29333\include\xmemory
; File C:\Program Files (x86)\Microsoft Visual Studio\2019\Community\VC\Tools\MSVC\14.28.29333\include\vector
; File C:\Program Files (x86)\Microsoft Visual Studio\2019\Community\VC\Tools\MSVC\14.28.29333\include\xmemory
; File C:\Program Files (x86)\Microsoft Visual Studio\2019\Community\VC\Tools\MSVC\14.28.29333\include\vector
; File C:\Program Files (x86)\Microsoft Visual Studio\2019\Community\VC\Tools\MSVC\14.28.29333\include\xmemory
; File C:\Program Files (x86)\Microsoft Visual Studio\2019\Community\VC\Tools\MSVC\14.28.29333\include\vector
; File C:\Program Files (x86)\Microsoft Visual Studio\2019\Community\VC\Tools\MSVC\14.28.29333\include\xmemory
; File C:\Program Files (x86)\Microsoft Visual Studio\2019\Community\VC\Tools\MSVC\14.28.29333\include\vector
; File C:\Program Files (x86)\Microsoft Visual Studio\2019\Community\VC\Tools\MSVC\14.28.29333\include\xmemory
; File C:\Program Files (x86)\Microsoft Visual Studio\2019\Community\VC\Tools\MSVC\14.28.29333\include\vector
; File C:\Program Files (x86)\Microsoft Visual Studio\2019\Community\VC\Tools\MSVC\14.28.29333\include\xmemory
; File C:\Program Files (x86)\Microsoft Visual Studio\2019\Community\VC\Tools\MSVC\14.28.29333\include\vector
;	COMDAT ??$_Emplace_reallocate@K@?$vector@KV?$allocator@K@std@@@std@@QAEPAKQAK$$QAK@Z
_TEXT	SEGMENT
tv435 = -12						; size = 4
__Newsize$1$ = -8					; size = 4
tv434 = -4						; size = 4
__Whereptr$ = 8						; size = 4
_<_Val_0>$ = 12						; size = 4
??$_Emplace_reallocate@K@?$vector@KV?$allocator@K@std@@@std@@QAEPAKQAK$$QAK@Z PROC ; std::vector<unsigned long,std::allocator<unsigned long> >::_Emplace_reallocate<unsigned long>, COMDAT
; _this$ = ecx

; 725  :     pointer _Emplace_reallocate(const pointer _Whereptr, _Valty&&... _Val) {

  00000	55		 push	 ebp
  00001	8b ec		 mov	 ebp, esp
  00003	83 ec 0c	 sub	 esp, 12			; 0000000cH
  00006	53		 push	 ebx

; 726  :         // reallocate and insert by perfectly forwarding _Val at _Whereptr
; 727  :         _Alty& _Al        = _Getal();
; 728  :         auto& _My_data    = _Mypair._Myval2;
; 729  :         pointer& _Myfirst = _My_data._Myfirst;
; 730  :         pointer& _Mylast  = _My_data._Mylast;
; 731  : 
; 732  :         _STL_INTERNAL_CHECK(_Mylast == _My_data._Myend); // check that we have no unused capacity
; 733  : 
; 734  :         const auto _Whereoff = static_cast<size_type>(_Whereptr - _Myfirst);

  00007	8b 5d 08	 mov	 ebx, DWORD PTR __Whereptr$[ebp]
  0000a	56		 push	 esi
  0000b	8b f1		 mov	 esi, ecx
  0000d	57		 push	 edi
  0000e	8b 16		 mov	 edx, DWORD PTR [esi]
  00010	2b da		 sub	 ebx, edx

; 735  :         const auto _Oldsize  = static_cast<size_type>(_Mylast - _Myfirst);

  00012	8b 46 04	 mov	 eax, DWORD PTR [esi+4]
  00015	2b c2		 sub	 eax, edx
  00017	c1 fb 02	 sar	 ebx, 2
  0001a	c1 f8 02	 sar	 eax, 2

; 736  : 
; 737  :         if (_Oldsize == max_size()) {

  0001d	3d ff ff ff 3f	 cmp	 eax, 1073741823		; 3fffffffH
  00022	0f 84 c4 00 00
	00		 je	 $LN39@Emplace_re

; 1494 :         return static_cast<size_type>(_My_data._Myend - _My_data._Myfirst);

  00028	8b 4e 08	 mov	 ecx, DWORD PTR [esi+8]

; 739  :         }
; 740  : 
; 741  :         const size_type _Newsize     = _Oldsize + 1;

  0002b	8d 78 01	 lea	 edi, DWORD PTR [eax+1]

; 1494 :         return static_cast<size_type>(_My_data._Myend - _My_data._Myfirst);

  0002e	2b ca		 sub	 ecx, edx

; 739  :         }
; 740  : 
; 741  :         const size_type _Newsize     = _Oldsize + 1;

  00030	89 7d f8	 mov	 DWORD PTR __Newsize$1$[ebp], edi

; 1494 :         return static_cast<size_type>(_My_data._Myend - _My_data._Myfirst);

  00033	c1 f9 02	 sar	 ecx, 2

; 1620 :         if (_Oldcapacity > _Max - _Oldcapacity / 2) {

  00036	b8 ff ff ff 3f	 mov	 eax, 1073741823		; 3fffffffH
  0003b	8b d1		 mov	 edx, ecx
  0003d	d1 ea		 shr	 edx, 1
  0003f	2b c2		 sub	 eax, edx
  00041	3b c8		 cmp	 ecx, eax
  00043	76 3a		 jbe	 SHORT $LN12@Emplace_re

; 1621 :             return _Max; // geometric growth would overflow

  00045	b9 ff ff ff 3f	 mov	 ecx, 1073741823		; 3fffffffH
$LN20@Emplace_re:
; File C:\Program Files (x86)\Microsoft Visual Studio\2019\Community\VC\Tools\MSVC\14.28.29333\include\xmemory

; 65   :     return _Count * _Ty_size;

  0004a	8d 04 8d 00 00
	00 00		 lea	 eax, DWORD PTR [ecx*4]

; 814  :         return static_cast<_Ty*>(_Allocate<_New_alignof<_Ty>>(_Get_size_of_n<sizeof(_Ty)>(_Count)));

  00051	50		 push	 eax

; 65   :     return _Count * _Ty_size;

  00052	89 45 f4	 mov	 DWORD PTR tv435[ebp], eax

; 814  :         return static_cast<_Ty*>(_Allocate<_New_alignof<_Ty>>(_Get_size_of_n<sizeof(_Ty)>(_Count)));

  00055	e8 00 00 00 00	 call	 ??$_Allocate@$07U_Default_allocate_traits@std@@$0A@@std@@YAPAXI@Z ; std::_Allocate<8,std::_Default_allocate_traits,0>
; File C:\Program Files (x86)\Microsoft Visual Studio\2019\Community\VC\Tools\MSVC\14.28.29333\include\vector

; 749  :         _Alty_traits::construct(_Al, _Unfancy(_Newvec + _Whereoff), _STD forward<_Valty>(_Val)...);

  0005a	8b 4d 0c	 mov	 ecx, DWORD PTR _<_Val_0>$[ebp]
; File C:\Program Files (x86)\Microsoft Visual Studio\2019\Community\VC\Tools\MSVC\14.28.29333\include\xmemory

; 814  :         return static_cast<_Ty*>(_Allocate<_New_alignof<_Ty>>(_Get_size_of_n<sizeof(_Ty)>(_Count)));

  0005d	8b f8		 mov	 edi, eax
; File C:\Program Files (x86)\Microsoft Visual Studio\2019\Community\VC\Tools\MSVC\14.28.29333\include\vector

; 749  :         _Alty_traits::construct(_Al, _Unfancy(_Newvec + _Whereoff), _STD forward<_Valty>(_Val)...);

  0005f	8d 04 9f	 lea	 eax, DWORD PTR [edi+ebx*4]
; File C:\Program Files (x86)\Microsoft Visual Studio\2019\Community\VC\Tools\MSVC\14.28.29333\include\xmemory

; 814  :         return static_cast<_Ty*>(_Allocate<_New_alignof<_Ty>>(_Get_size_of_n<sizeof(_Ty)>(_Count)));

  00062	83 c4 04	 add	 esp, 4
; File C:\Program Files (x86)\Microsoft Visual Studio\2019\Community\VC\Tools\MSVC\14.28.29333\include\vector

; 752  :         if (_Whereptr == _Mylast) { // at back, provide strong guarantee

  00065	8b 5d 08	 mov	 ebx, DWORD PTR __Whereptr$[ebp]
  00068	89 45 fc	 mov	 DWORD PTR tv434[ebp], eax
  0006b	8b 09		 mov	 ecx, DWORD PTR [ecx]
  0006d	89 08		 mov	 DWORD PTR [eax], ecx
  0006f	8b 56 04	 mov	 edx, DWORD PTR [esi+4]
  00072	8b 0e		 mov	 ecx, DWORD PTR [esi]
  00074	3b da		 cmp	 ebx, edx
  00076	75 1b		 jne	 SHORT $LN4@Emplace_re

; 753  :             _Umove_if_noexcept(_Myfirst, _Mylast, _Newvec);
; 754  :         } else { // provide basic guarantee

  00078	8b 5d fc	 mov	 ebx, DWORD PTR tv434[ebp]

; 1597 :         _Uninitialized_move(_First, _Last, _Dest, _Getal());

  0007b	8b c7		 mov	 eax, edi

; 753  :             _Umove_if_noexcept(_Myfirst, _Mylast, _Newvec);
; 754  :         } else { // provide basic guarantee

  0007d	eb 2b		 jmp	 SHORT $LN5@Emplace_re
$LN12@Emplace_re:

; 1624 :         const size_type _Geometric = _Oldcapacity + _Oldcapacity / 2;

  0007f	8d 04 0a	 lea	 eax, DWORD PTR [edx+ecx]
; File C:\Program Files (x86)\Microsoft Visual Studio\2019\Community\VC\Tools\MSVC\14.28.29333\include\xmemory

; 60   :         if (_Count > _Max_possible) {

  00082	8b cf		 mov	 ecx, edi
  00084	3b c7		 cmp	 eax, edi
  00086	0f 43 c8	 cmovae	 ecx, eax
  00089	81 f9 ff ff ff
	3f		 cmp	 ecx, 1073741823		; 3fffffffH
  0008f	77 60		 ja	 SHORT $LN40@Emplace_re
  00091	eb b7		 jmp	 SHORT $LN20@Emplace_re
$LN4@Emplace_re:
; File C:\Program Files (x86)\Microsoft Visual Studio\2019\Community\VC\Tools\MSVC\14.28.29333\include\vector

; 1592 :         return _Uninitialized_move(_First, _Last, _Dest, _Getal());

  00093	56		 push	 esi
  00094	57		 push	 edi
  00095	53		 push	 ebx
  00096	51		 push	 ecx
  00097	e8 00 00 00 00	 call	 ??$_Uninitialized_move@PAKV?$allocator@K@std@@@std@@YAPAKQAK0PAKAAV?$allocator@K@0@@Z ; std::_Uninitialized_move<unsigned long *,std::allocator<unsigned long> >
  0009c	8b 56 04	 mov	 edx, DWORD PTR [esi+4]
  0009f	8b cb		 mov	 ecx, ebx

; 755  :             _Umove(_Myfirst, _Whereptr, _Newvec);
; 756  :             _Constructed_first = _Newvec;
; 757  :             _Umove(_Whereptr, _Mylast, _Newvec + _Whereoff + 1);

  000a1	8b 5d fc	 mov	 ebx, DWORD PTR tv434[ebp]

; 1592 :         return _Uninitialized_move(_First, _Last, _Dest, _Getal());

  000a4	83 c4 10	 add	 esp, 16			; 00000010H

; 755  :             _Umove(_Myfirst, _Whereptr, _Newvec);
; 756  :             _Constructed_first = _Newvec;
; 757  :             _Umove(_Whereptr, _Mylast, _Newvec + _Whereoff + 1);

  000a7	8d 43 04	 lea	 eax, DWORD PTR [ebx+4]
$LN5@Emplace_re:
  000aa	56		 push	 esi
  000ab	50		 push	 eax
  000ac	52		 push	 edx
  000ad	51		 push	 ecx
  000ae	e8 00 00 00 00	 call	 ??$_Uninitialized_move@PAKV?$allocator@K@std@@@std@@YAPAKQAK0PAKAAV?$allocator@K@0@@Z ; std::_Uninitialized_move<unsigned long *,std::allocator<unsigned long> >

; 1676 :         if (_Myfirst) { // destroy and deallocate old array

  000b3	8b 0e		 mov	 ecx, DWORD PTR [esi]

; 755  :             _Umove(_Myfirst, _Whereptr, _Newvec);
; 756  :             _Constructed_first = _Newvec;
; 757  :             _Umove(_Whereptr, _Mylast, _Newvec + _Whereoff + 1);

  000b5	83 c4 10	 add	 esp, 16			; 00000010H

; 1676 :         if (_Myfirst) { // destroy and deallocate old array

  000b8	85 c9		 test	 ecx, ecx
  000ba	74 12		 je	 SHORT $LN33@Emplace_re

; 1677 :             _Destroy(_Myfirst, _Mylast);
; 1678 :             _Getal().deallocate(_Myfirst, static_cast<size_type>(_Myend - _Myfirst));

  000bc	8b 46 08	 mov	 eax, DWORD PTR [esi+8]
  000bf	2b c1		 sub	 eax, ecx
; File C:\Program Files (x86)\Microsoft Visual Studio\2019\Community\VC\Tools\MSVC\14.28.29333\include\xmemory

; 810  :         _Deallocate<_New_alignof<_Ty>>(_Ptr, sizeof(_Ty) * _Count);

  000c1	83 e0 fc	 and	 eax, -4			; fffffffcH
  000c4	50		 push	 eax
  000c5	51		 push	 ecx
  000c6	e8 00 00 00 00	 call	 ??$_Deallocate@$07$0A@@std@@YAXPAXI@Z ; std::_Deallocate<8,0>
  000cb	83 c4 08	 add	 esp, 8
$LN33@Emplace_re:
; File C:\Program Files (x86)\Microsoft Visual Studio\2019\Community\VC\Tools\MSVC\14.28.29333\include\vector

; 1682 :         _Mylast  = _Newvec + _Newsize;

  000ce	8b 45 f8	 mov	 eax, DWORD PTR __Newsize$1$[ebp]
  000d1	89 3e		 mov	 DWORD PTR [esi], edi
  000d3	8d 0c 87	 lea	 ecx, DWORD PTR [edi+eax*4]

; 758  :         }
; 759  :         _CATCH_ALL
; 760  :         _Destroy(_Constructed_first, _Constructed_last);
; 761  :         _Al.deallocate(_Newvec, _Newcapacity);
; 762  :         _RERAISE;
; 763  :         _CATCH_END
; 764  : 
; 765  :         _Change_array(_Newvec, _Newsize, _Newcapacity);
; 766  :         return _Newvec + _Whereoff;

  000d6	8b c3		 mov	 eax, ebx

; 1682 :         _Mylast  = _Newvec + _Newsize;

  000d8	89 4e 04	 mov	 DWORD PTR [esi+4], ecx

; 1683 :         _Myend   = _Newvec + _Newcapacity;

  000db	8b 4d f4	 mov	 ecx, DWORD PTR tv435[ebp]
  000de	03 cf		 add	 ecx, edi

; 758  :         }
; 759  :         _CATCH_ALL
; 760  :         _Destroy(_Constructed_first, _Constructed_last);
; 761  :         _Al.deallocate(_Newvec, _Newcapacity);
; 762  :         _RERAISE;
; 763  :         _CATCH_END
; 764  : 
; 765  :         _Change_array(_Newvec, _Newsize, _Newcapacity);
; 766  :         return _Newvec + _Whereoff;

  000e0	5f		 pop	 edi

; 1683 :         _Myend   = _Newvec + _Newcapacity;

  000e1	89 4e 08	 mov	 DWORD PTR [esi+8], ecx

; 758  :         }
; 759  :         _CATCH_ALL
; 760  :         _Destroy(_Constructed_first, _Constructed_last);
; 761  :         _Al.deallocate(_Newvec, _Newcapacity);
; 762  :         _RERAISE;
; 763  :         _CATCH_END
; 764  : 
; 765  :         _Change_array(_Newvec, _Newsize, _Newcapacity);
; 766  :         return _Newvec + _Whereoff;

  000e4	5e		 pop	 esi
  000e5	5b		 pop	 ebx

; 767  :     }

  000e6	8b e5		 mov	 esp, ebp
  000e8	5d		 pop	 ebp
  000e9	c2 08 00	 ret	 8
$LN39@Emplace_re:

; 738  :             _Xlength();

  000ec	e8 00 00 00 00	 call	 ?_Xlength@?$vector@KV?$allocator@K@std@@@std@@CAXXZ ; std::vector<unsigned long,std::allocator<unsigned long> >::_Xlength
$LN40@Emplace_re:
; File C:\Program Files (x86)\Microsoft Visual Studio\2019\Community\VC\Tools\MSVC\14.28.29333\include\xmemory

; 61   :             _Throw_bad_array_new_length(); // multiply overflow

  000f1	e8 00 00 00 00	 call	 ?_Throw_bad_array_new_length@std@@YAXXZ ; std::_Throw_bad_array_new_length
$LN37@Emplace_re:
  000f6	cc		 int	 3
??$_Emplace_reallocate@K@?$vector@KV?$allocator@K@std@@@std@@QAEPAKQAK$$QAK@Z ENDP ; std::vector<unsigned long,std::allocator<unsigned long> >::_Emplace_reallocate<unsigned long>
_TEXT	ENDS
; Function compile flags: /Ogtp
;	COMDAT ??_G?$CDynamicPoolEx@VCHeaderDecorator@NEffectUpdateDecorator@@@@UAEPAXI@Z
_TEXT	SEGMENT
___flags$ = 8						; size = 4
??_G?$CDynamicPoolEx@VCHeaderDecorator@NEffectUpdateDecorator@@@@UAEPAXI@Z PROC ; CDynamicPoolEx<NEffectUpdateDecorator::CHeaderDecorator>::`scalar deleting destructor', COMDAT
; _this$ = ecx
  00000	55		 push	 ebp
  00001	8b ec		 mov	 ebp, esp
  00003	56		 push	 esi
  00004	8b f1		 mov	 esi, ecx
  00006	e8 00 00 00 00	 call	 ??1?$CDynamicPoolEx@VCHeaderDecorator@NEffectUpdateDecorator@@@@UAE@XZ ; CDynamicPoolEx<NEffectUpdateDecorator::CHeaderDecorator>::~CDynamicPoolEx<NEffectUpdateDecorator::CHeaderDecorator>
  0000b	f6 45 08 01	 test	 BYTE PTR ___flags$[ebp], 1
  0000f	74 0b		 je	 SHORT $LN4@scalar
  00011	6a 24		 push	 36			; 00000024H
  00013	56		 push	 esi
  00014	e8 00 00 00 00	 call	 ??3@YAXPAXI@Z		; operator delete
  00019	83 c4 08	 add	 esp, 8
$LN4@scalar:
  0001c	8b c6		 mov	 eax, esi
  0001e	5e		 pop	 esi
  0001f	5d		 pop	 ebp
  00020	c2 04 00	 ret	 4
??_G?$CDynamicPoolEx@VCHeaderDecorator@NEffectUpdateDecorator@@@@UAEPAXI@Z ENDP ; CDynamicPoolEx<NEffectUpdateDecorator::CHeaderDecorator>::`scalar deleting destructor'
_TEXT	ENDS
; Function compile flags: /Ogtp
; File D:\Metin2 Server Files\mainline\SRC_2014\Metin2Client\eterLib\Pool.h
;	COMDAT ?Delete@?$CDynamicPoolEx@VCHeaderDecorator@NEffectUpdateDecorator@@@@KAXPAVCHeaderDecorator@NEffectUpdateDecorator@@@Z
_TEXT	SEGMENT
_pkData$ = 8						; size = 4
?Delete@?$CDynamicPoolEx@VCHeaderDecorator@NEffectUpdateDecorator@@@@KAXPAVCHeaderDecorator@NEffectUpdateDecorator@@@Z PROC ; CDynamicPoolEx<NEffectUpdateDecorator::CHeaderDecorator>::Delete, COMDAT

; 224  : 			::operator delete(pkData);

  00000	e9 00 00 00 00	 jmp	 ??3@YAXPAX@Z		; operator delete
?Delete@?$CDynamicPoolEx@VCHeaderDecorator@NEffectUpdateDecorator@@@@KAXPAVCHeaderDecorator@NEffectUpdateDecorator@@@Z ENDP ; CDynamicPoolEx<NEffectUpdateDecorator::CHeaderDecorator>::Delete
_TEXT	ENDS
; Function compile flags: /Ogtp
; File D:\Metin2 Server Files\mainline\SRC_2014\Metin2Client\eterLib\Pool.h
; File C:\Program Files (x86)\Microsoft Visual Studio\2019\Community\VC\Tools\MSVC\14.28.29333\include\vector
; File C:\Program Files (x86)\Microsoft Visual Studio\2019\Community\VC\Tools\MSVC\14.28.29333\include\algorithm
; File D:\Metin2 Server Files\mainline\SRC_2014\Metin2Client\eterLib\Pool.h
; File C:\Program Files (x86)\Microsoft Visual Studio\2019\Community\VC\Tools\MSVC\14.28.29333\include\algorithm
; File D:\Metin2 Server Files\mainline\SRC_2014\Metin2Client\eterLib\Pool.h
; File C:\Program Files (x86)\Microsoft Visual Studio\2019\Community\VC\Tools\MSVC\14.28.29333\include\algorithm
; File D:\Metin2 Server Files\mainline\SRC_2014\Metin2Client\eterLib\Pool.h
; File C:\Program Files (x86)\Microsoft Visual Studio\2019\Community\VC\Tools\MSVC\14.28.29333\include\vector
; File C:\Program Files (x86)\Microsoft Visual Studio\2019\Community\VC\Tools\MSVC\14.28.29333\include\xmemory
; File C:\Program Files (x86)\Microsoft Visual Studio\2019\Community\VC\Tools\MSVC\14.28.29333\include\vector
; File C:\Program Files (x86)\Microsoft Visual Studio\2019\Community\VC\Tools\MSVC\14.28.29333\include\xmemory
; File C:\Program Files (x86)\Microsoft Visual Studio\2019\Community\VC\Tools\MSVC\14.28.29333\include\vector
; File C:\Program Files (x86)\Microsoft Visual Studio\2019\Community\VC\Tools\MSVC\14.28.29333\include\xmemory
; File C:\Program Files (x86)\Microsoft Visual Studio\2019\Community\VC\Tools\MSVC\14.28.29333\include\vector
; File C:\Program Files (x86)\Microsoft Visual Studio\2019\Community\VC\Tools\MSVC\14.28.29333\include\xmemory
; File C:\Program Files (x86)\Microsoft Visual Studio\2019\Community\VC\Tools\MSVC\14.28.29333\include\vector
; File D:\Metin2 Server Files\mainline\SRC_2014\Metin2Client\eterLib\Pool.h
;	COMDAT ??1?$CDynamicPoolEx@VCHeaderDecorator@NEffectUpdateDecorator@@@@UAE@XZ
_TEXT	SEGMENT
??1?$CDynamicPoolEx@VCHeaderDecorator@NEffectUpdateDecorator@@@@UAE@XZ PROC ; CDynamicPoolEx<NEffectUpdateDecorator::CHeaderDecorator>::~CDynamicPoolEx<NEffectUpdateDecorator::CHeaderDecorator>, COMDAT
; _this$ = ecx

; 132  : 		{

  00000	53		 push	 ebx
  00001	56		 push	 esi
  00002	57		 push	 edi
  00003	8b f9		 mov	 edi, ecx
  00005	c7 07 00 00 00
	00		 mov	 DWORD PTR [edi], OFFSET ??_7?$CDynamicPoolEx@VCHeaderDecorator@NEffectUpdateDecorator@@@@6B@
; File C:\Program Files (x86)\Microsoft Visual Studio\2019\Community\VC\Tools\MSVC\14.28.29333\include\vector

; 42   :     _Vector_const_iterator(_Tptr _Parg, const _Container_base* _Pvector) noexcept : _Ptr(_Parg) {

  0000b	8b 5f 08	 mov	 ebx, DWORD PTR [edi+8]
  0000e	8b 77 04	 mov	 esi, DWORD PTR [edi+4]
; File C:\Program Files (x86)\Microsoft Visual Studio\2019\Community\VC\Tools\MSVC\14.28.29333\include\algorithm

; 307  :     for (; _UFirst != _ULast; ++_UFirst) {

  00011	3b f3		 cmp	 esi, ebx
  00013	74 14		 je	 SHORT $LN19@CDynamicPo
$LL20@CDynamicPo:
; File D:\Metin2 Server Files\mainline\SRC_2014\Metin2Client\eterLib\Pool.h

; 224  : 			::operator delete(pkData);

  00015	ff 36		 push	 DWORD PTR [esi]
  00017	e8 00 00 00 00	 call	 ??3@YAXPAX@Z		; operator delete
; File C:\Program Files (x86)\Microsoft Visual Studio\2019\Community\VC\Tools\MSVC\14.28.29333\include\algorithm

; 307  :     for (; _UFirst != _ULast; ++_UFirst) {

  0001c	83 c6 04	 add	 esi, 4
; File D:\Metin2 Server Files\mainline\SRC_2014\Metin2Client\eterLib\Pool.h

; 224  : 			::operator delete(pkData);

  0001f	83 c4 04	 add	 esp, 4
; File C:\Program Files (x86)\Microsoft Visual Studio\2019\Community\VC\Tools\MSVC\14.28.29333\include\algorithm

; 307  :     for (; _UFirst != _ULast; ++_UFirst) {

  00022	3b f3		 cmp	 esi, ebx
  00024	75 ef		 jne	 SHORT $LL20@CDynamicPo
  00026	8b 77 04	 mov	 esi, DWORD PTR [edi+4]
$LN19@CDynamicPo:
; File D:\Metin2 Server Files\mainline\SRC_2014\Metin2Client\eterLib\Pool.h

; 162  : 			m_kVct_pkFree.clear();

  00029	8b 4f 10	 mov	 ecx, DWORD PTR [edi+16]
  0002c	89 77 08	 mov	 DWORD PTR [edi+8], esi
  0002f	89 4f 14	 mov	 DWORD PTR [edi+20], ecx
; File C:\Program Files (x86)\Microsoft Visual Studio\2019\Community\VC\Tools\MSVC\14.28.29333\include\vector

; 1694 :         if (_Myfirst) { // destroy and deallocate old array

  00032	85 c9		 test	 ecx, ecx
  00034	74 27		 je	 SHORT $LN27@CDynamicPo

; 1695 :             _Destroy(_Myfirst, _Mylast);
; 1696 :             _Getal().deallocate(_Myfirst, static_cast<size_type>(_Myend - _Myfirst));

  00036	8b 47 18	 mov	 eax, DWORD PTR [edi+24]
  00039	2b c1		 sub	 eax, ecx
; File C:\Program Files (x86)\Microsoft Visual Studio\2019\Community\VC\Tools\MSVC\14.28.29333\include\xmemory

; 810  :         _Deallocate<_New_alignof<_Ty>>(_Ptr, sizeof(_Ty) * _Count);

  0003b	83 e0 fc	 and	 eax, -4			; fffffffcH
  0003e	50		 push	 eax
  0003f	51		 push	 ecx
  00040	e8 00 00 00 00	 call	 ??$_Deallocate@$07$0A@@std@@YAXPAXI@Z ; std::_Deallocate<8,0>
; File C:\Program Files (x86)\Microsoft Visual Studio\2019\Community\VC\Tools\MSVC\14.28.29333\include\vector

; 1698 :             _Myfirst = pointer();

  00045	c7 47 10 00 00
	00 00		 mov	 DWORD PTR [edi+16], 0
; File C:\Program Files (x86)\Microsoft Visual Studio\2019\Community\VC\Tools\MSVC\14.28.29333\include\xmemory

; 810  :         _Deallocate<_New_alignof<_Ty>>(_Ptr, sizeof(_Ty) * _Count);

  0004c	83 c4 08	 add	 esp, 8
; File C:\Program Files (x86)\Microsoft Visual Studio\2019\Community\VC\Tools\MSVC\14.28.29333\include\vector

; 1699 :             _Mylast  = pointer();

  0004f	c7 47 14 00 00
	00 00		 mov	 DWORD PTR [edi+20], 0

; 1700 :             _Myend   = pointer();

  00056	c7 47 18 00 00
	00 00		 mov	 DWORD PTR [edi+24], 0
$LN27@CDynamicPo:

; 1694 :         if (_Myfirst) { // destroy and deallocate old array

  0005d	8b 4f 04	 mov	 ecx, DWORD PTR [edi+4]
  00060	85 c9		 test	 ecx, ecx
  00062	74 27		 je	 SHORT $LN34@CDynamicPo

; 1695 :             _Destroy(_Myfirst, _Mylast);
; 1696 :             _Getal().deallocate(_Myfirst, static_cast<size_type>(_Myend - _Myfirst));

  00064	8b 47 0c	 mov	 eax, DWORD PTR [edi+12]
  00067	2b c1		 sub	 eax, ecx
; File C:\Program Files (x86)\Microsoft Visual Studio\2019\Community\VC\Tools\MSVC\14.28.29333\include\xmemory

; 810  :         _Deallocate<_New_alignof<_Ty>>(_Ptr, sizeof(_Ty) * _Count);

  00069	83 e0 fc	 and	 eax, -4			; fffffffcH
  0006c	50		 push	 eax
  0006d	51		 push	 ecx
  0006e	e8 00 00 00 00	 call	 ??$_Deallocate@$07$0A@@std@@YAXPAXI@Z ; std::_Deallocate<8,0>
; File C:\Program Files (x86)\Microsoft Visual Studio\2019\Community\VC\Tools\MSVC\14.28.29333\include\vector

; 1698 :             _Myfirst = pointer();

  00073	c7 47 04 00 00
	00 00		 mov	 DWORD PTR [edi+4], 0
; File C:\Program Files (x86)\Microsoft Visual Studio\2019\Community\VC\Tools\MSVC\14.28.29333\include\xmemory

; 810  :         _Deallocate<_New_alignof<_Ty>>(_Ptr, sizeof(_Ty) * _Count);

  0007a	83 c4 08	 add	 esp, 8
; File C:\Program Files (x86)\Microsoft Visual Studio\2019\Community\VC\Tools\MSVC\14.28.29333\include\vector

; 1699 :             _Mylast  = pointer();

  0007d	c7 47 08 00 00
	00 00		 mov	 DWORD PTR [edi+8], 0

; 1700 :             _Myend   = pointer();

  00084	c7 47 0c 00 00
	00 00		 mov	 DWORD PTR [edi+12], 0
$LN34@CDynamicPo:
  0008b	5f		 pop	 edi
; File D:\Metin2 Server Files\mainline\SRC_2014\Metin2Client\eterLib\Pool.h

; 142  : 		}

  0008c	5e		 pop	 esi
  0008d	5b		 pop	 ebx
  0008e	c3		 ret	 0
??1?$CDynamicPoolEx@VCHeaderDecorator@NEffectUpdateDecorator@@@@UAE@XZ ENDP ; CDynamicPoolEx<NEffectUpdateDecorator::CHeaderDecorator>::~CDynamicPoolEx<NEffectUpdateDecorator::CHeaderDecorator>
_TEXT	ENDS
; Function compile flags: /Ogtp
;	COMDAT ??_G?$CDynamicPoolEx@VCNullDecorator@NEffectUpdateDecorator@@@@UAEPAXI@Z
_TEXT	SEGMENT
___flags$ = 8						; size = 4
??_G?$CDynamicPoolEx@VCNullDecorator@NEffectUpdateDecorator@@@@UAEPAXI@Z PROC ; CDynamicPoolEx<NEffectUpdateDecorator::CNullDecorator>::`scalar deleting destructor', COMDAT
; _this$ = ecx
  00000	55		 push	 ebp
  00001	8b ec		 mov	 ebp, esp
  00003	56		 push	 esi
  00004	8b f1		 mov	 esi, ecx
  00006	e8 00 00 00 00	 call	 ??1?$CDynamicPoolEx@VCNullDecorator@NEffectUpdateDecorator@@@@UAE@XZ ; CDynamicPoolEx<NEffectUpdateDecorator::CNullDecorator>::~CDynamicPoolEx<NEffectUpdateDecorator::CNullDecorator>
  0000b	f6 45 08 01	 test	 BYTE PTR ___flags$[ebp], 1
  0000f	74 0b		 je	 SHORT $LN4@scalar
  00011	6a 24		 push	 36			; 00000024H
  00013	56		 push	 esi
  00014	e8 00 00 00 00	 call	 ??3@YAXPAXI@Z		; operator delete
  00019	83 c4 08	 add	 esp, 8
$LN4@scalar:
  0001c	8b c6		 mov	 eax, esi
  0001e	5e		 pop	 esi
  0001f	5d		 pop	 ebp
  00020	c2 04 00	 ret	 4
??_G?$CDynamicPoolEx@VCNullDecorator@NEffectUpdateDecorator@@@@UAEPAXI@Z ENDP ; CDynamicPoolEx<NEffectUpdateDecorator::CNullDecorator>::`scalar deleting destructor'
_TEXT	ENDS
; Function compile flags: /Ogtp
; File D:\Metin2 Server Files\mainline\SRC_2014\Metin2Client\eterLib\Pool.h
;	COMDAT ?Delete@?$CDynamicPoolEx@VCNullDecorator@NEffectUpdateDecorator@@@@KAXPAVCNullDecorator@NEffectUpdateDecorator@@@Z
_TEXT	SEGMENT
_pkData$ = 8						; size = 4
?Delete@?$CDynamicPoolEx@VCNullDecorator@NEffectUpdateDecorator@@@@KAXPAVCNullDecorator@NEffectUpdateDecorator@@@Z PROC ; CDynamicPoolEx<NEffectUpdateDecorator::CNullDecorator>::Delete, COMDAT

; 224  : 			::operator delete(pkData);

  00000	e9 00 00 00 00	 jmp	 ??3@YAXPAX@Z		; operator delete
?Delete@?$CDynamicPoolEx@VCNullDecorator@NEffectUpdateDecorator@@@@KAXPAVCNullDecorator@NEffectUpdateDecorator@@@Z ENDP ; CDynamicPoolEx<NEffectUpdateDecorator::CNullDecorator>::Delete
_TEXT	ENDS
; Function compile flags: /Ogtp
; File D:\Metin2 Server Files\mainline\SRC_2014\Metin2Client\eterLib\Pool.h
; File C:\Program Files (x86)\Microsoft Visual Studio\2019\Community\VC\Tools\MSVC\14.28.29333\include\vector
; File C:\Program Files (x86)\Microsoft Visual Studio\2019\Community\VC\Tools\MSVC\14.28.29333\include\algorithm
; File D:\Metin2 Server Files\mainline\SRC_2014\Metin2Client\eterLib\Pool.h
; File C:\Program Files (x86)\Microsoft Visual Studio\2019\Community\VC\Tools\MSVC\14.28.29333\include\algorithm
; File D:\Metin2 Server Files\mainline\SRC_2014\Metin2Client\eterLib\Pool.h
; File C:\Program Files (x86)\Microsoft Visual Studio\2019\Community\VC\Tools\MSVC\14.28.29333\include\algorithm
; File D:\Metin2 Server Files\mainline\SRC_2014\Metin2Client\eterLib\Pool.h
; File C:\Program Files (x86)\Microsoft Visual Studio\2019\Community\VC\Tools\MSVC\14.28.29333\include\vector
; File C:\Program Files (x86)\Microsoft Visual Studio\2019\Community\VC\Tools\MSVC\14.28.29333\include\xmemory
; File C:\Program Files (x86)\Microsoft Visual Studio\2019\Community\VC\Tools\MSVC\14.28.29333\include\vector
; File C:\Program Files (x86)\Microsoft Visual Studio\2019\Community\VC\Tools\MSVC\14.28.29333\include\xmemory
; File C:\Program Files (x86)\Microsoft Visual Studio\2019\Community\VC\Tools\MSVC\14.28.29333\include\vector
; File C:\Program Files (x86)\Microsoft Visual Studio\2019\Community\VC\Tools\MSVC\14.28.29333\include\xmemory
; File C:\Program Files (x86)\Microsoft Visual Studio\2019\Community\VC\Tools\MSVC\14.28.29333\include\vector
; File C:\Program Files (x86)\Microsoft Visual Studio\2019\Community\VC\Tools\MSVC\14.28.29333\include\xmemory
; File C:\Program Files (x86)\Microsoft Visual Studio\2019\Community\VC\Tools\MSVC\14.28.29333\include\vector
; File D:\Metin2 Server Files\mainline\SRC_2014\Metin2Client\eterLib\Pool.h
;	COMDAT ??1?$CDynamicPoolEx@VCNullDecorator@NEffectUpdateDecorator@@@@UAE@XZ
_TEXT	SEGMENT
??1?$CDynamicPoolEx@VCNullDecorator@NEffectUpdateDecorator@@@@UAE@XZ PROC ; CDynamicPoolEx<NEffectUpdateDecorator::CNullDecorator>::~CDynamicPoolEx<NEffectUpdateDecorator::CNullDecorator>, COMDAT
; _this$ = ecx

; 132  : 		{

  00000	53		 push	 ebx
  00001	56		 push	 esi
  00002	57		 push	 edi
  00003	8b f9		 mov	 edi, ecx
  00005	c7 07 00 00 00
	00		 mov	 DWORD PTR [edi], OFFSET ??_7?$CDynamicPoolEx@VCNullDecorator@NEffectUpdateDecorator@@@@6B@
; File C:\Program Files (x86)\Microsoft Visual Studio\2019\Community\VC\Tools\MSVC\14.28.29333\include\vector

; 42   :     _Vector_const_iterator(_Tptr _Parg, const _Container_base* _Pvector) noexcept : _Ptr(_Parg) {

  0000b	8b 5f 08	 mov	 ebx, DWORD PTR [edi+8]
  0000e	8b 77 04	 mov	 esi, DWORD PTR [edi+4]
; File C:\Program Files (x86)\Microsoft Visual Studio\2019\Community\VC\Tools\MSVC\14.28.29333\include\algorithm

; 307  :     for (; _UFirst != _ULast; ++_UFirst) {

  00011	3b f3		 cmp	 esi, ebx
  00013	74 14		 je	 SHORT $LN19@CDynamicPo
$LL20@CDynamicPo:
; File D:\Metin2 Server Files\mainline\SRC_2014\Metin2Client\eterLib\Pool.h

; 224  : 			::operator delete(pkData);

  00015	ff 36		 push	 DWORD PTR [esi]
  00017	e8 00 00 00 00	 call	 ??3@YAXPAX@Z		; operator delete
; File C:\Program Files (x86)\Microsoft Visual Studio\2019\Community\VC\Tools\MSVC\14.28.29333\include\algorithm

; 307  :     for (; _UFirst != _ULast; ++_UFirst) {

  0001c	83 c6 04	 add	 esi, 4
; File D:\Metin2 Server Files\mainline\SRC_2014\Metin2Client\eterLib\Pool.h

; 224  : 			::operator delete(pkData);

  0001f	83 c4 04	 add	 esp, 4
; File C:\Program Files (x86)\Microsoft Visual Studio\2019\Community\VC\Tools\MSVC\14.28.29333\include\algorithm

; 307  :     for (; _UFirst != _ULast; ++_UFirst) {

  00022	3b f3		 cmp	 esi, ebx
  00024	75 ef		 jne	 SHORT $LL20@CDynamicPo
  00026	8b 77 04	 mov	 esi, DWORD PTR [edi+4]
$LN19@CDynamicPo:
; File D:\Metin2 Server Files\mainline\SRC_2014\Metin2Client\eterLib\Pool.h

; 162  : 			m_kVct_pkFree.clear();

  00029	8b 4f 10	 mov	 ecx, DWORD PTR [edi+16]
  0002c	89 77 08	 mov	 DWORD PTR [edi+8], esi
  0002f	89 4f 14	 mov	 DWORD PTR [edi+20], ecx
; File C:\Program Files (x86)\Microsoft Visual Studio\2019\Community\VC\Tools\MSVC\14.28.29333\include\vector

; 1694 :         if (_Myfirst) { // destroy and deallocate old array

  00032	85 c9		 test	 ecx, ecx
  00034	74 27		 je	 SHORT $LN27@CDynamicPo

; 1695 :             _Destroy(_Myfirst, _Mylast);
; 1696 :             _Getal().deallocate(_Myfirst, static_cast<size_type>(_Myend - _Myfirst));

  00036	8b 47 18	 mov	 eax, DWORD PTR [edi+24]
  00039	2b c1		 sub	 eax, ecx
; File C:\Program Files (x86)\Microsoft Visual Studio\2019\Community\VC\Tools\MSVC\14.28.29333\include\xmemory

; 810  :         _Deallocate<_New_alignof<_Ty>>(_Ptr, sizeof(_Ty) * _Count);

  0003b	83 e0 fc	 and	 eax, -4			; fffffffcH
  0003e	50		 push	 eax
  0003f	51		 push	 ecx
  00040	e8 00 00 00 00	 call	 ??$_Deallocate@$07$0A@@std@@YAXPAXI@Z ; std::_Deallocate<8,0>
; File C:\Program Files (x86)\Microsoft Visual Studio\2019\Community\VC\Tools\MSVC\14.28.29333\include\vector

; 1698 :             _Myfirst = pointer();

  00045	c7 47 10 00 00
	00 00		 mov	 DWORD PTR [edi+16], 0
; File C:\Program Files (x86)\Microsoft Visual Studio\2019\Community\VC\Tools\MSVC\14.28.29333\include\xmemory

; 810  :         _Deallocate<_New_alignof<_Ty>>(_Ptr, sizeof(_Ty) * _Count);

  0004c	83 c4 08	 add	 esp, 8
; File C:\Program Files (x86)\Microsoft Visual Studio\2019\Community\VC\Tools\MSVC\14.28.29333\include\vector

; 1699 :             _Mylast  = pointer();

  0004f	c7 47 14 00 00
	00 00		 mov	 DWORD PTR [edi+20], 0

; 1700 :             _Myend   = pointer();

  00056	c7 47 18 00 00
	00 00		 mov	 DWORD PTR [edi+24], 0
$LN27@CDynamicPo:

; 1694 :         if (_Myfirst) { // destroy and deallocate old array

  0005d	8b 4f 04	 mov	 ecx, DWORD PTR [edi+4]
  00060	85 c9		 test	 ecx, ecx
  00062	74 27		 je	 SHORT $LN34@CDynamicPo

; 1695 :             _Destroy(_Myfirst, _Mylast);
; 1696 :             _Getal().deallocate(_Myfirst, static_cast<size_type>(_Myend - _Myfirst));

  00064	8b 47 0c	 mov	 eax, DWORD PTR [edi+12]
  00067	2b c1		 sub	 eax, ecx
; File C:\Program Files (x86)\Microsoft Visual Studio\2019\Community\VC\Tools\MSVC\14.28.29333\include\xmemory

; 810  :         _Deallocate<_New_alignof<_Ty>>(_Ptr, sizeof(_Ty) * _Count);

  00069	83 e0 fc	 and	 eax, -4			; fffffffcH
  0006c	50		 push	 eax
  0006d	51		 push	 ecx
  0006e	e8 00 00 00 00	 call	 ??$_Deallocate@$07$0A@@std@@YAXPAXI@Z ; std::_Deallocate<8,0>
; File C:\Program Files (x86)\Microsoft Visual Studio\2019\Community\VC\Tools\MSVC\14.28.29333\include\vector

; 1698 :             _Myfirst = pointer();

  00073	c7 47 04 00 00
	00 00		 mov	 DWORD PTR [edi+4], 0
; File C:\Program Files (x86)\Microsoft Visual Studio\2019\Community\VC\Tools\MSVC\14.28.29333\include\xmemory

; 810  :         _Deallocate<_New_alignof<_Ty>>(_Ptr, sizeof(_Ty) * _Count);

  0007a	83 c4 08	 add	 esp, 8
; File C:\Program Files (x86)\Microsoft Visual Studio\2019\Community\VC\Tools\MSVC\14.28.29333\include\vector

; 1699 :             _Mylast  = pointer();

  0007d	c7 47 08 00 00
	00 00		 mov	 DWORD PTR [edi+8], 0

; 1700 :             _Myend   = pointer();

  00084	c7 47 0c 00 00
	00 00		 mov	 DWORD PTR [edi+12], 0
$LN34@CDynamicPo:
  0008b	5f		 pop	 edi
; File D:\Metin2 Server Files\mainline\SRC_2014\Metin2Client\eterLib\Pool.h

; 142  : 		}

  0008c	5e		 pop	 esi
  0008d	5b		 pop	 ebx
  0008e	c3		 ret	 0
??1?$CDynamicPoolEx@VCNullDecorator@NEffectUpdateDecorator@@@@UAE@XZ ENDP ; CDynamicPoolEx<NEffectUpdateDecorator::CNullDecorator>::~CDynamicPoolEx<NEffectUpdateDecorator::CNullDecorator>
_TEXT	ENDS
; Function compile flags: /Ogtp
;	COMDAT ??_G?$CDynamicPoolEx@VCTextureAnimationCWDecorator@NEffectUpdateDecorator@@@@UAEPAXI@Z
_TEXT	SEGMENT
___flags$ = 8						; size = 4
??_G?$CDynamicPoolEx@VCTextureAnimationCWDecorator@NEffectUpdateDecorator@@@@UAEPAXI@Z PROC ; CDynamicPoolEx<NEffectUpdateDecorator::CTextureAnimationCWDecorator>::`scalar deleting destructor', COMDAT
; _this$ = ecx
  00000	55		 push	 ebp
  00001	8b ec		 mov	 ebp, esp
  00003	56		 push	 esi
  00004	8b f1		 mov	 esi, ecx
  00006	e8 00 00 00 00	 call	 ??1?$CDynamicPoolEx@VCTextureAnimationCWDecorator@NEffectUpdateDecorator@@@@UAE@XZ ; CDynamicPoolEx<NEffectUpdateDecorator::CTextureAnimationCWDecorator>::~CDynamicPoolEx<NEffectUpdateDecorator::CTextureAnimationCWDecorator>
  0000b	f6 45 08 01	 test	 BYTE PTR ___flags$[ebp], 1
  0000f	74 0b		 je	 SHORT $LN4@scalar
  00011	6a 24		 push	 36			; 00000024H
  00013	56		 push	 esi
  00014	e8 00 00 00 00	 call	 ??3@YAXPAXI@Z		; operator delete
  00019	83 c4 08	 add	 esp, 8
$LN4@scalar:
  0001c	8b c6		 mov	 eax, esi
  0001e	5e		 pop	 esi
  0001f	5d		 pop	 ebp
  00020	c2 04 00	 ret	 4
??_G?$CDynamicPoolEx@VCTextureAnimationCWDecorator@NEffectUpdateDecorator@@@@UAEPAXI@Z ENDP ; CDynamicPoolEx<NEffectUpdateDecorator::CTextureAnimationCWDecorator>::`scalar deleting destructor'
_TEXT	ENDS
; Function compile flags: /Ogtp
; File D:\Metin2 Server Files\mainline\SRC_2014\Metin2Client\eterLib\Pool.h
;	COMDAT ?Delete@?$CDynamicPoolEx@VCTextureAnimationCWDecorator@NEffectUpdateDecorator@@@@KAXPAVCTextureAnimationCWDecorator@NEffectUpdateDecorator@@@Z
_TEXT	SEGMENT
_pkData$ = 8						; size = 4
?Delete@?$CDynamicPoolEx@VCTextureAnimationCWDecorator@NEffectUpdateDecorator@@@@KAXPAVCTextureAnimationCWDecorator@NEffectUpdateDecorator@@@Z PROC ; CDynamicPoolEx<NEffectUpdateDecorator::CTextureAnimationCWDecorator>::Delete, COMDAT

; 224  : 			::operator delete(pkData);

  00000	e9 00 00 00 00	 jmp	 ??3@YAXPAX@Z		; operator delete
?Delete@?$CDynamicPoolEx@VCTextureAnimationCWDecorator@NEffectUpdateDecorator@@@@KAXPAVCTextureAnimationCWDecorator@NEffectUpdateDecorator@@@Z ENDP ; CDynamicPoolEx<NEffectUpdateDecorator::CTextureAnimationCWDecorator>::Delete
_TEXT	ENDS
; Function compile flags: /Ogtp
; File D:\Metin2 Server Files\mainline\SRC_2014\Metin2Client\eterLib\Pool.h
; File C:\Program Files (x86)\Microsoft Visual Studio\2019\Community\VC\Tools\MSVC\14.28.29333\include\vector
; File C:\Program Files (x86)\Microsoft Visual Studio\2019\Community\VC\Tools\MSVC\14.28.29333\include\algorithm
; File D:\Metin2 Server Files\mainline\SRC_2014\Metin2Client\eterLib\Pool.h
; File C:\Program Files (x86)\Microsoft Visual Studio\2019\Community\VC\Tools\MSVC\14.28.29333\include\algorithm
; File D:\Metin2 Server Files\mainline\SRC_2014\Metin2Client\eterLib\Pool.h
; File C:\Program Files (x86)\Microsoft Visual Studio\2019\Community\VC\Tools\MSVC\14.28.29333\include\algorithm
; File D:\Metin2 Server Files\mainline\SRC_2014\Metin2Client\eterLib\Pool.h
; File C:\Program Files (x86)\Microsoft Visual Studio\2019\Community\VC\Tools\MSVC\14.28.29333\include\vector
; File C:\Program Files (x86)\Microsoft Visual Studio\2019\Community\VC\Tools\MSVC\14.28.29333\include\xmemory
; File C:\Program Files (x86)\Microsoft Visual Studio\2019\Community\VC\Tools\MSVC\14.28.29333\include\vector
; File C:\Program Files (x86)\Microsoft Visual Studio\2019\Community\VC\Tools\MSVC\14.28.29333\include\xmemory
; File C:\Program Files (x86)\Microsoft Visual Studio\2019\Community\VC\Tools\MSVC\14.28.29333\include\vector
; File C:\Program Files (x86)\Microsoft Visual Studio\2019\Community\VC\Tools\MSVC\14.28.29333\include\xmemory
; File C:\Program Files (x86)\Microsoft Visual Studio\2019\Community\VC\Tools\MSVC\14.28.29333\include\vector
; File C:\Program Files (x86)\Microsoft Visual Studio\2019\Community\VC\Tools\MSVC\14.28.29333\include\xmemory
; File C:\Program Files (x86)\Microsoft Visual Studio\2019\Community\VC\Tools\MSVC\14.28.29333\include\vector
; File D:\Metin2 Server Files\mainline\SRC_2014\Metin2Client\eterLib\Pool.h
;	COMDAT ??1?$CDynamicPoolEx@VCTextureAnimationCWDecorator@NEffectUpdateDecorator@@@@UAE@XZ
_TEXT	SEGMENT
??1?$CDynamicPoolEx@VCTextureAnimationCWDecorator@NEffectUpdateDecorator@@@@UAE@XZ PROC ; CDynamicPoolEx<NEffectUpdateDecorator::CTextureAnimationCWDecorator>::~CDynamicPoolEx<NEffectUpdateDecorator::CTextureAnimationCWDecorator>, COMDAT
; _this$ = ecx

; 132  : 		{

  00000	53		 push	 ebx
  00001	56		 push	 esi
  00002	57		 push	 edi
  00003	8b f9		 mov	 edi, ecx
  00005	c7 07 00 00 00
	00		 mov	 DWORD PTR [edi], OFFSET ??_7?$CDynamicPoolEx@VCTextureAnimationCWDecorator@NEffectUpdateDecorator@@@@6B@
; File C:\Program Files (x86)\Microsoft Visual Studio\2019\Community\VC\Tools\MSVC\14.28.29333\include\vector

; 42   :     _Vector_const_iterator(_Tptr _Parg, const _Container_base* _Pvector) noexcept : _Ptr(_Parg) {

  0000b	8b 5f 08	 mov	 ebx, DWORD PTR [edi+8]
  0000e	8b 77 04	 mov	 esi, DWORD PTR [edi+4]
; File C:\Program Files (x86)\Microsoft Visual Studio\2019\Community\VC\Tools\MSVC\14.28.29333\include\algorithm

; 307  :     for (; _UFirst != _ULast; ++_UFirst) {

  00011	3b f3		 cmp	 esi, ebx
  00013	74 14		 je	 SHORT $LN19@CDynamicPo
$LL20@CDynamicPo:
; File D:\Metin2 Server Files\mainline\SRC_2014\Metin2Client\eterLib\Pool.h

; 224  : 			::operator delete(pkData);

  00015	ff 36		 push	 DWORD PTR [esi]
  00017	e8 00 00 00 00	 call	 ??3@YAXPAX@Z		; operator delete
; File C:\Program Files (x86)\Microsoft Visual Studio\2019\Community\VC\Tools\MSVC\14.28.29333\include\algorithm

; 307  :     for (; _UFirst != _ULast; ++_UFirst) {

  0001c	83 c6 04	 add	 esi, 4
; File D:\Metin2 Server Files\mainline\SRC_2014\Metin2Client\eterLib\Pool.h

; 224  : 			::operator delete(pkData);

  0001f	83 c4 04	 add	 esp, 4
; File C:\Program Files (x86)\Microsoft Visual Studio\2019\Community\VC\Tools\MSVC\14.28.29333\include\algorithm

; 307  :     for (; _UFirst != _ULast; ++_UFirst) {

  00022	3b f3		 cmp	 esi, ebx
  00024	75 ef		 jne	 SHORT $LL20@CDynamicPo
  00026	8b 77 04	 mov	 esi, DWORD PTR [edi+4]
$LN19@CDynamicPo:
; File D:\Metin2 Server Files\mainline\SRC_2014\Metin2Client\eterLib\Pool.h

; 162  : 			m_kVct_pkFree.clear();

  00029	8b 4f 10	 mov	 ecx, DWORD PTR [edi+16]
  0002c	89 77 08	 mov	 DWORD PTR [edi+8], esi
  0002f	89 4f 14	 mov	 DWORD PTR [edi+20], ecx
; File C:\Program Files (x86)\Microsoft Visual Studio\2019\Community\VC\Tools\MSVC\14.28.29333\include\vector

; 1694 :         if (_Myfirst) { // destroy and deallocate old array

  00032	85 c9		 test	 ecx, ecx
  00034	74 27		 je	 SHORT $LN27@CDynamicPo

; 1695 :             _Destroy(_Myfirst, _Mylast);
; 1696 :             _Getal().deallocate(_Myfirst, static_cast<size_type>(_Myend - _Myfirst));

  00036	8b 47 18	 mov	 eax, DWORD PTR [edi+24]
  00039	2b c1		 sub	 eax, ecx
; File C:\Program Files (x86)\Microsoft Visual Studio\2019\Community\VC\Tools\MSVC\14.28.29333\include\xmemory

; 810  :         _Deallocate<_New_alignof<_Ty>>(_Ptr, sizeof(_Ty) * _Count);

  0003b	83 e0 fc	 and	 eax, -4			; fffffffcH
  0003e	50		 push	 eax
  0003f	51		 push	 ecx
  00040	e8 00 00 00 00	 call	 ??$_Deallocate@$07$0A@@std@@YAXPAXI@Z ; std::_Deallocate<8,0>
; File C:\Program Files (x86)\Microsoft Visual Studio\2019\Community\VC\Tools\MSVC\14.28.29333\include\vector

; 1698 :             _Myfirst = pointer();

  00045	c7 47 10 00 00
	00 00		 mov	 DWORD PTR [edi+16], 0
; File C:\Program Files (x86)\Microsoft Visual Studio\2019\Community\VC\Tools\MSVC\14.28.29333\include\xmemory

; 810  :         _Deallocate<_New_alignof<_Ty>>(_Ptr, sizeof(_Ty) * _Count);

  0004c	83 c4 08	 add	 esp, 8
; File C:\Program Files (x86)\Microsoft Visual Studio\2019\Community\VC\Tools\MSVC\14.28.29333\include\vector

; 1699 :             _Mylast  = pointer();

  0004f	c7 47 14 00 00
	00 00		 mov	 DWORD PTR [edi+20], 0

; 1700 :             _Myend   = pointer();

  00056	c7 47 18 00 00
	00 00		 mov	 DWORD PTR [edi+24], 0
$LN27@CDynamicPo:

; 1694 :         if (_Myfirst) { // destroy and deallocate old array

  0005d	8b 4f 04	 mov	 ecx, DWORD PTR [edi+4]
  00060	85 c9		 test	 ecx, ecx
  00062	74 27		 je	 SHORT $LN34@CDynamicPo

; 1695 :             _Destroy(_Myfirst, _Mylast);
; 1696 :             _Getal().deallocate(_Myfirst, static_cast<size_type>(_Myend - _Myfirst));

  00064	8b 47 0c	 mov	 eax, DWORD PTR [edi+12]
  00067	2b c1		 sub	 eax, ecx
; File C:\Program Files (x86)\Microsoft Visual Studio\2019\Community\VC\Tools\MSVC\14.28.29333\include\xmemory

; 810  :         _Deallocate<_New_alignof<_Ty>>(_Ptr, sizeof(_Ty) * _Count);

  00069	83 e0 fc	 and	 eax, -4			; fffffffcH
  0006c	50		 push	 eax
  0006d	51		 push	 ecx
  0006e	e8 00 00 00 00	 call	 ??$_Deallocate@$07$0A@@std@@YAXPAXI@Z ; std::_Deallocate<8,0>
; File C:\Program Files (x86)\Microsoft Visual Studio\2019\Community\VC\Tools\MSVC\14.28.29333\include\vector

; 1698 :             _Myfirst = pointer();

  00073	c7 47 04 00 00
	00 00		 mov	 DWORD PTR [edi+4], 0
; File C:\Program Files (x86)\Microsoft Visual Studio\2019\Community\VC\Tools\MSVC\14.28.29333\include\xmemory

; 810  :         _Deallocate<_New_alignof<_Ty>>(_Ptr, sizeof(_Ty) * _Count);

  0007a	83 c4 08	 add	 esp, 8
; File C:\Program Files (x86)\Microsoft Visual Studio\2019\Community\VC\Tools\MSVC\14.28.29333\include\vector

; 1699 :             _Mylast  = pointer();

  0007d	c7 47 08 00 00
	00 00		 mov	 DWORD PTR [edi+8], 0

; 1700 :             _Myend   = pointer();

  00084	c7 47 0c 00 00
	00 00		 mov	 DWORD PTR [edi+12], 0
$LN34@CDynamicPo:
  0008b	5f		 pop	 edi
; File D:\Metin2 Server Files\mainline\SRC_2014\Metin2Client\eterLib\Pool.h

; 142  : 		}

  0008c	5e		 pop	 esi
  0008d	5b		 pop	 ebx
  0008e	c3		 ret	 0
??1?$CDynamicPoolEx@VCTextureAnimationCWDecorator@NEffectUpdateDecorator@@@@UAE@XZ ENDP ; CDynamicPoolEx<NEffectUpdateDecorator::CTextureAnimationCWDecorator>::~CDynamicPoolEx<NEffectUpdateDecorator::CTextureAnimationCWDecorator>
_TEXT	ENDS
; Function compile flags: /Ogtp
;	COMDAT ??_G?$CDynamicPoolEx@VCTextureAnimationCCWDecorator@NEffectUpdateDecorator@@@@UAEPAXI@Z
_TEXT	SEGMENT
___flags$ = 8						; size = 4
??_G?$CDynamicPoolEx@VCTextureAnimationCCWDecorator@NEffectUpdateDecorator@@@@UAEPAXI@Z PROC ; CDynamicPoolEx<NEffectUpdateDecorator::CTextureAnimationCCWDecorator>::`scalar deleting destructor', COMDAT
; _this$ = ecx
  00000	55		 push	 ebp
  00001	8b ec		 mov	 ebp, esp
  00003	56		 push	 esi
  00004	8b f1		 mov	 esi, ecx
  00006	e8 00 00 00 00	 call	 ??1?$CDynamicPoolEx@VCTextureAnimationCCWDecorator@NEffectUpdateDecorator@@@@UAE@XZ ; CDynamicPoolEx<NEffectUpdateDecorator::CTextureAnimationCCWDecorator>::~CDynamicPoolEx<NEffectUpdateDecorator::CTextureAnimationCCWDecorator>
  0000b	f6 45 08 01	 test	 BYTE PTR ___flags$[ebp], 1
  0000f	74 0b		 je	 SHORT $LN4@scalar
  00011	6a 24		 push	 36			; 00000024H
  00013	56		 push	 esi
  00014	e8 00 00 00 00	 call	 ??3@YAXPAXI@Z		; operator delete
  00019	83 c4 08	 add	 esp, 8
$LN4@scalar:
  0001c	8b c6		 mov	 eax, esi
  0001e	5e		 pop	 esi
  0001f	5d		 pop	 ebp
  00020	c2 04 00	 ret	 4
??_G?$CDynamicPoolEx@VCTextureAnimationCCWDecorator@NEffectUpdateDecorator@@@@UAEPAXI@Z ENDP ; CDynamicPoolEx<NEffectUpdateDecorator::CTextureAnimationCCWDecorator>::`scalar deleting destructor'
_TEXT	ENDS
; Function compile flags: /Ogtp
; File D:\Metin2 Server Files\mainline\SRC_2014\Metin2Client\eterLib\Pool.h
;	COMDAT ?Delete@?$CDynamicPoolEx@VCTextureAnimationCCWDecorator@NEffectUpdateDecorator@@@@KAXPAVCTextureAnimationCCWDecorator@NEffectUpdateDecorator@@@Z
_TEXT	SEGMENT
_pkData$ = 8						; size = 4
?Delete@?$CDynamicPoolEx@VCTextureAnimationCCWDecorator@NEffectUpdateDecorator@@@@KAXPAVCTextureAnimationCCWDecorator@NEffectUpdateDecorator@@@Z PROC ; CDynamicPoolEx<NEffectUpdateDecorator::CTextureAnimationCCWDecorator>::Delete, COMDAT

; 224  : 			::operator delete(pkData);

  00000	e9 00 00 00 00	 jmp	 ??3@YAXPAX@Z		; operator delete
?Delete@?$CDynamicPoolEx@VCTextureAnimationCCWDecorator@NEffectUpdateDecorator@@@@KAXPAVCTextureAnimationCCWDecorator@NEffectUpdateDecorator@@@Z ENDP ; CDynamicPoolEx<NEffectUpdateDecorator::CTextureAnimationCCWDecorator>::Delete
_TEXT	ENDS
; Function compile flags: /Ogtp
; File D:\Metin2 Server Files\mainline\SRC_2014\Metin2Client\eterLib\Pool.h
; File C:\Program Files (x86)\Microsoft Visual Studio\2019\Community\VC\Tools\MSVC\14.28.29333\include\vector
; File C:\Program Files (x86)\Microsoft Visual Studio\2019\Community\VC\Tools\MSVC\14.28.29333\include\algorithm
; File D:\Metin2 Server Files\mainline\SRC_2014\Metin2Client\eterLib\Pool.h
; File C:\Program Files (x86)\Microsoft Visual Studio\2019\Community\VC\Tools\MSVC\14.28.29333\include\algorithm
; File D:\Metin2 Server Files\mainline\SRC_2014\Metin2Client\eterLib\Pool.h
; File C:\Program Files (x86)\Microsoft Visual Studio\2019\Community\VC\Tools\MSVC\14.28.29333\include\algorithm
; File D:\Metin2 Server Files\mainline\SRC_2014\Metin2Client\eterLib\Pool.h
; File C:\Program Files (x86)\Microsoft Visual Studio\2019\Community\VC\Tools\MSVC\14.28.29333\include\vector
; File C:\Program Files (x86)\Microsoft Visual Studio\2019\Community\VC\Tools\MSVC\14.28.29333\include\xmemory
; File C:\Program Files (x86)\Microsoft Visual Studio\2019\Community\VC\Tools\MSVC\14.28.29333\include\vector
; File C:\Program Files (x86)\Microsoft Visual Studio\2019\Community\VC\Tools\MSVC\14.28.29333\include\xmemory
; File C:\Program Files (x86)\Microsoft Visual Studio\2019\Community\VC\Tools\MSVC\14.28.29333\include\vector
; File C:\Program Files (x86)\Microsoft Visual Studio\2019\Community\VC\Tools\MSVC\14.28.29333\include\xmemory
; File C:\Program Files (x86)\Microsoft Visual Studio\2019\Community\VC\Tools\MSVC\14.28.29333\include\vector
; File C:\Program Files (x86)\Microsoft Visual Studio\2019\Community\VC\Tools\MSVC\14.28.29333\include\xmemory
; File C:\Program Files (x86)\Microsoft Visual Studio\2019\Community\VC\Tools\MSVC\14.28.29333\include\vector
; File D:\Metin2 Server Files\mainline\SRC_2014\Metin2Client\eterLib\Pool.h
;	COMDAT ??1?$CDynamicPoolEx@VCTextureAnimationCCWDecorator@NEffectUpdateDecorator@@@@UAE@XZ
_TEXT	SEGMENT
??1?$CDynamicPoolEx@VCTextureAnimationCCWDecorator@NEffectUpdateDecorator@@@@UAE@XZ PROC ; CDynamicPoolEx<NEffectUpdateDecorator::CTextureAnimationCCWDecorator>::~CDynamicPoolEx<NEffectUpdateDecorator::CTextureAnimationCCWDecorator>, COMDAT
; _this$ = ecx

; 132  : 		{

  00000	53		 push	 ebx
  00001	56		 push	 esi
  00002	57		 push	 edi
  00003	8b f9		 mov	 edi, ecx
  00005	c7 07 00 00 00
	00		 mov	 DWORD PTR [edi], OFFSET ??_7?$CDynamicPoolEx@VCTextureAnimationCCWDecorator@NEffectUpdateDecorator@@@@6B@
; File C:\Program Files (x86)\Microsoft Visual Studio\2019\Community\VC\Tools\MSVC\14.28.29333\include\vector

; 42   :     _Vector_const_iterator(_Tptr _Parg, const _Container_base* _Pvector) noexcept : _Ptr(_Parg) {

  0000b	8b 5f 08	 mov	 ebx, DWORD PTR [edi+8]
  0000e	8b 77 04	 mov	 esi, DWORD PTR [edi+4]
; File C:\Program Files (x86)\Microsoft Visual Studio\2019\Community\VC\Tools\MSVC\14.28.29333\include\algorithm

; 307  :     for (; _UFirst != _ULast; ++_UFirst) {

  00011	3b f3		 cmp	 esi, ebx
  00013	74 14		 je	 SHORT $LN19@CDynamicPo
$LL20@CDynamicPo:
; File D:\Metin2 Server Files\mainline\SRC_2014\Metin2Client\eterLib\Pool.h

; 224  : 			::operator delete(pkData);

  00015	ff 36		 push	 DWORD PTR [esi]
  00017	e8 00 00 00 00	 call	 ??3@YAXPAX@Z		; operator delete
; File C:\Program Files (x86)\Microsoft Visual Studio\2019\Community\VC\Tools\MSVC\14.28.29333\include\algorithm

; 307  :     for (; _UFirst != _ULast; ++_UFirst) {

  0001c	83 c6 04	 add	 esi, 4
; File D:\Metin2 Server Files\mainline\SRC_2014\Metin2Client\eterLib\Pool.h

; 224  : 			::operator delete(pkData);

  0001f	83 c4 04	 add	 esp, 4
; File C:\Program Files (x86)\Microsoft Visual Studio\2019\Community\VC\Tools\MSVC\14.28.29333\include\algorithm

; 307  :     for (; _UFirst != _ULast; ++_UFirst) {

  00022	3b f3		 cmp	 esi, ebx
  00024	75 ef		 jne	 SHORT $LL20@CDynamicPo
  00026	8b 77 04	 mov	 esi, DWORD PTR [edi+4]
$LN19@CDynamicPo:
; File D:\Metin2 Server Files\mainline\SRC_2014\Metin2Client\eterLib\Pool.h

; 162  : 			m_kVct_pkFree.clear();

  00029	8b 4f 10	 mov	 ecx, DWORD PTR [edi+16]
  0002c	89 77 08	 mov	 DWORD PTR [edi+8], esi
  0002f	89 4f 14	 mov	 DWORD PTR [edi+20], ecx
; File C:\Program Files (x86)\Microsoft Visual Studio\2019\Community\VC\Tools\MSVC\14.28.29333\include\vector

; 1694 :         if (_Myfirst) { // destroy and deallocate old array

  00032	85 c9		 test	 ecx, ecx
  00034	74 27		 je	 SHORT $LN27@CDynamicPo

; 1695 :             _Destroy(_Myfirst, _Mylast);
; 1696 :             _Getal().deallocate(_Myfirst, static_cast<size_type>(_Myend - _Myfirst));

  00036	8b 47 18	 mov	 eax, DWORD PTR [edi+24]
  00039	2b c1		 sub	 eax, ecx
; File C:\Program Files (x86)\Microsoft Visual Studio\2019\Community\VC\Tools\MSVC\14.28.29333\include\xmemory

; 810  :         _Deallocate<_New_alignof<_Ty>>(_Ptr, sizeof(_Ty) * _Count);

  0003b	83 e0 fc	 and	 eax, -4			; fffffffcH
  0003e	50		 push	 eax
  0003f	51		 push	 ecx
  00040	e8 00 00 00 00	 call	 ??$_Deallocate@$07$0A@@std@@YAXPAXI@Z ; std::_Deallocate<8,0>
; File C:\Program Files (x86)\Microsoft Visual Studio\2019\Community\VC\Tools\MSVC\14.28.29333\include\vector

; 1698 :             _Myfirst = pointer();

  00045	c7 47 10 00 00
	00 00		 mov	 DWORD PTR [edi+16], 0
; File C:\Program Files (x86)\Microsoft Visual Studio\2019\Community\VC\Tools\MSVC\14.28.29333\include\xmemory

; 810  :         _Deallocate<_New_alignof<_Ty>>(_Ptr, sizeof(_Ty) * _Count);

  0004c	83 c4 08	 add	 esp, 8
; File C:\Program Files (x86)\Microsoft Visual Studio\2019\Community\VC\Tools\MSVC\14.28.29333\include\vector

; 1699 :             _Mylast  = pointer();

  0004f	c7 47 14 00 00
	00 00		 mov	 DWORD PTR [edi+20], 0

; 1700 :             _Myend   = pointer();

  00056	c7 47 18 00 00
	00 00		 mov	 DWORD PTR [edi+24], 0
$LN27@CDynamicPo:

; 1694 :         if (_Myfirst) { // destroy and deallocate old array

  0005d	8b 4f 04	 mov	 ecx, DWORD PTR [edi+4]
  00060	85 c9		 test	 ecx, ecx
  00062	74 27		 je	 SHORT $LN34@CDynamicPo

; 1695 :             _Destroy(_Myfirst, _Mylast);
; 1696 :             _Getal().deallocate(_Myfirst, static_cast<size_type>(_Myend - _Myfirst));

  00064	8b 47 0c	 mov	 eax, DWORD PTR [edi+12]
  00067	2b c1		 sub	 eax, ecx
; File C:\Program Files (x86)\Microsoft Visual Studio\2019\Community\VC\Tools\MSVC\14.28.29333\include\xmemory

; 810  :         _Deallocate<_New_alignof<_Ty>>(_Ptr, sizeof(_Ty) * _Count);

  00069	83 e0 fc	 and	 eax, -4			; fffffffcH
  0006c	50		 push	 eax
  0006d	51		 push	 ecx
  0006e	e8 00 00 00 00	 call	 ??$_Deallocate@$07$0A@@std@@YAXPAXI@Z ; std::_Deallocate<8,0>
; File C:\Program Files (x86)\Microsoft Visual Studio\2019\Community\VC\Tools\MSVC\14.28.29333\include\vector

; 1698 :             _Myfirst = pointer();

  00073	c7 47 04 00 00
	00 00		 mov	 DWORD PTR [edi+4], 0
; File C:\Program Files (x86)\Microsoft Visual Studio\2019\Community\VC\Tools\MSVC\14.28.29333\include\xmemory

; 810  :         _Deallocate<_New_alignof<_Ty>>(_Ptr, sizeof(_Ty) * _Count);

  0007a	83 c4 08	 add	 esp, 8
; File C:\Program Files (x86)\Microsoft Visual Studio\2019\Community\VC\Tools\MSVC\14.28.29333\include\vector

; 1699 :             _Mylast  = pointer();

  0007d	c7 47 08 00 00
	00 00		 mov	 DWORD PTR [edi+8], 0

; 1700 :             _Myend   = pointer();

  00084	c7 47 0c 00 00
	00 00		 mov	 DWORD PTR [edi+12], 0
$LN34@CDynamicPo:
  0008b	5f		 pop	 edi
; File D:\Metin2 Server Files\mainline\SRC_2014\Metin2Client\eterLib\Pool.h

; 142  : 		}

  0008c	5e		 pop	 esi
  0008d	5b		 pop	 ebx
  0008e	c3		 ret	 0
??1?$CDynamicPoolEx@VCTextureAnimationCCWDecorator@NEffectUpdateDecorator@@@@UAE@XZ ENDP ; CDynamicPoolEx<NEffectUpdateDecorator::CTextureAnimationCCWDecorator>::~CDynamicPoolEx<NEffectUpdateDecorator::CTextureAnimationCCWDecorator>
_TEXT	ENDS
; Function compile flags: /Ogtp
;	COMDAT ??_G?$CDynamicPoolEx@VCTextureAnimationRandomDecorator@NEffectUpdateDecorator@@@@UAEPAXI@Z
_TEXT	SEGMENT
___flags$ = 8						; size = 4
??_G?$CDynamicPoolEx@VCTextureAnimationRandomDecorator@NEffectUpdateDecorator@@@@UAEPAXI@Z PROC ; CDynamicPoolEx<NEffectUpdateDecorator::CTextureAnimationRandomDecorator>::`scalar deleting destructor', COMDAT
; _this$ = ecx
  00000	55		 push	 ebp
  00001	8b ec		 mov	 ebp, esp
  00003	56		 push	 esi
  00004	8b f1		 mov	 esi, ecx
  00006	e8 00 00 00 00	 call	 ??1?$CDynamicPoolEx@VCTextureAnimationRandomDecorator@NEffectUpdateDecorator@@@@UAE@XZ ; CDynamicPoolEx<NEffectUpdateDecorator::CTextureAnimationRandomDecorator>::~CDynamicPoolEx<NEffectUpdateDecorator::CTextureAnimationRandomDecorator>
  0000b	f6 45 08 01	 test	 BYTE PTR ___flags$[ebp], 1
  0000f	74 0b		 je	 SHORT $LN4@scalar
  00011	6a 24		 push	 36			; 00000024H
  00013	56		 push	 esi
  00014	e8 00 00 00 00	 call	 ??3@YAXPAXI@Z		; operator delete
  00019	83 c4 08	 add	 esp, 8
$LN4@scalar:
  0001c	8b c6		 mov	 eax, esi
  0001e	5e		 pop	 esi
  0001f	5d		 pop	 ebp
  00020	c2 04 00	 ret	 4
??_G?$CDynamicPoolEx@VCTextureAnimationRandomDecorator@NEffectUpdateDecorator@@@@UAEPAXI@Z ENDP ; CDynamicPoolEx<NEffectUpdateDecorator::CTextureAnimationRandomDecorator>::`scalar deleting destructor'
_TEXT	ENDS
; Function compile flags: /Ogtp
; File D:\Metin2 Server Files\mainline\SRC_2014\Metin2Client\eterLib\Pool.h
;	COMDAT ?Delete@?$CDynamicPoolEx@VCTextureAnimationRandomDecorator@NEffectUpdateDecorator@@@@KAXPAVCTextureAnimationRandomDecorator@NEffectUpdateDecorator@@@Z
_TEXT	SEGMENT
_pkData$ = 8						; size = 4
?Delete@?$CDynamicPoolEx@VCTextureAnimationRandomDecorator@NEffectUpdateDecorator@@@@KAXPAVCTextureAnimationRandomDecorator@NEffectUpdateDecorator@@@Z PROC ; CDynamicPoolEx<NEffectUpdateDecorator::CTextureAnimationRandomDecorator>::Delete, COMDAT

; 224  : 			::operator delete(pkData);

  00000	e9 00 00 00 00	 jmp	 ??3@YAXPAX@Z		; operator delete
?Delete@?$CDynamicPoolEx@VCTextureAnimationRandomDecorator@NEffectUpdateDecorator@@@@KAXPAVCTextureAnimationRandomDecorator@NEffectUpdateDecorator@@@Z ENDP ; CDynamicPoolEx<NEffectUpdateDecorator::CTextureAnimationRandomDecorator>::Delete
_TEXT	ENDS
; Function compile flags: /Ogtp
; File D:\Metin2 Server Files\mainline\SRC_2014\Metin2Client\eterLib\Pool.h
; File C:\Program Files (x86)\Microsoft Visual Studio\2019\Community\VC\Tools\MSVC\14.28.29333\include\vector
; File C:\Program Files (x86)\Microsoft Visual Studio\2019\Community\VC\Tools\MSVC\14.28.29333\include\algorithm
; File D:\Metin2 Server Files\mainline\SRC_2014\Metin2Client\eterLib\Pool.h
; File C:\Program Files (x86)\Microsoft Visual Studio\2019\Community\VC\Tools\MSVC\14.28.29333\include\algorithm
; File D:\Metin2 Server Files\mainline\SRC_2014\Metin2Client\eterLib\Pool.h
; File C:\Program Files (x86)\Microsoft Visual Studio\2019\Community\VC\Tools\MSVC\14.28.29333\include\algorithm
; File D:\Metin2 Server Files\mainline\SRC_2014\Metin2Client\eterLib\Pool.h
; File C:\Program Files (x86)\Microsoft Visual Studio\2019\Community\VC\Tools\MSVC\14.28.29333\include\vector
; File C:\Program Files (x86)\Microsoft Visual Studio\2019\Community\VC\Tools\MSVC\14.28.29333\include\xmemory
; File C:\Program Files (x86)\Microsoft Visual Studio\2019\Community\VC\Tools\MSVC\14.28.29333\include\vector
; File C:\Program Files (x86)\Microsoft Visual Studio\2019\Community\VC\Tools\MSVC\14.28.29333\include\xmemory
; File C:\Program Files (x86)\Microsoft Visual Studio\2019\Community\VC\Tools\MSVC\14.28.29333\include\vector
; File C:\Program Files (x86)\Microsoft Visual Studio\2019\Community\VC\Tools\MSVC\14.28.29333\include\xmemory
; File C:\Program Files (x86)\Microsoft Visual Studio\2019\Community\VC\Tools\MSVC\14.28.29333\include\vector
; File C:\Program Files (x86)\Microsoft Visual Studio\2019\Community\VC\Tools\MSVC\14.28.29333\include\xmemory
; File C:\Program Files (x86)\Microsoft Visual Studio\2019\Community\VC\Tools\MSVC\14.28.29333\include\vector
; File D:\Metin2 Server Files\mainline\SRC_2014\Metin2Client\eterLib\Pool.h
;	COMDAT ??1?$CDynamicPoolEx@VCTextureAnimationRandomDecorator@NEffectUpdateDecorator@@@@UAE@XZ
_TEXT	SEGMENT
??1?$CDynamicPoolEx@VCTextureAnimationRandomDecorator@NEffectUpdateDecorator@@@@UAE@XZ PROC ; CDynamicPoolEx<NEffectUpdateDecorator::CTextureAnimationRandomDecorator>::~CDynamicPoolEx<NEffectUpdateDecorator::CTextureAnimationRandomDecorator>, COMDAT
; _this$ = ecx

; 132  : 		{

  00000	53		 push	 ebx
  00001	56		 push	 esi
  00002	57		 push	 edi
  00003	8b f9		 mov	 edi, ecx
  00005	c7 07 00 00 00
	00		 mov	 DWORD PTR [edi], OFFSET ??_7?$CDynamicPoolEx@VCTextureAnimationRandomDecorator@NEffectUpdateDecorator@@@@6B@
; File C:\Program Files (x86)\Microsoft Visual Studio\2019\Community\VC\Tools\MSVC\14.28.29333\include\vector

; 42   :     _Vector_const_iterator(_Tptr _Parg, const _Container_base* _Pvector) noexcept : _Ptr(_Parg) {

  0000b	8b 5f 08	 mov	 ebx, DWORD PTR [edi+8]
  0000e	8b 77 04	 mov	 esi, DWORD PTR [edi+4]
; File C:\Program Files (x86)\Microsoft Visual Studio\2019\Community\VC\Tools\MSVC\14.28.29333\include\algorithm

; 307  :     for (; _UFirst != _ULast; ++_UFirst) {

  00011	3b f3		 cmp	 esi, ebx
  00013	74 14		 je	 SHORT $LN19@CDynamicPo
$LL20@CDynamicPo:
; File D:\Metin2 Server Files\mainline\SRC_2014\Metin2Client\eterLib\Pool.h

; 224  : 			::operator delete(pkData);

  00015	ff 36		 push	 DWORD PTR [esi]
  00017	e8 00 00 00 00	 call	 ??3@YAXPAX@Z		; operator delete
; File C:\Program Files (x86)\Microsoft Visual Studio\2019\Community\VC\Tools\MSVC\14.28.29333\include\algorithm

; 307  :     for (; _UFirst != _ULast; ++_UFirst) {

  0001c	83 c6 04	 add	 esi, 4
; File D:\Metin2 Server Files\mainline\SRC_2014\Metin2Client\eterLib\Pool.h

; 224  : 			::operator delete(pkData);

  0001f	83 c4 04	 add	 esp, 4
; File C:\Program Files (x86)\Microsoft Visual Studio\2019\Community\VC\Tools\MSVC\14.28.29333\include\algorithm

; 307  :     for (; _UFirst != _ULast; ++_UFirst) {

  00022	3b f3		 cmp	 esi, ebx
  00024	75 ef		 jne	 SHORT $LL20@CDynamicPo
  00026	8b 77 04	 mov	 esi, DWORD PTR [edi+4]
$LN19@CDynamicPo:
; File D:\Metin2 Server Files\mainline\SRC_2014\Metin2Client\eterLib\Pool.h

; 162  : 			m_kVct_pkFree.clear();

  00029	8b 4f 10	 mov	 ecx, DWORD PTR [edi+16]
  0002c	89 77 08	 mov	 DWORD PTR [edi+8], esi
  0002f	89 4f 14	 mov	 DWORD PTR [edi+20], ecx
; File C:\Program Files (x86)\Microsoft Visual Studio\2019\Community\VC\Tools\MSVC\14.28.29333\include\vector

; 1694 :         if (_Myfirst) { // destroy and deallocate old array

  00032	85 c9		 test	 ecx, ecx
  00034	74 27		 je	 SHORT $LN27@CDynamicPo

; 1695 :             _Destroy(_Myfirst, _Mylast);
; 1696 :             _Getal().deallocate(_Myfirst, static_cast<size_type>(_Myend - _Myfirst));

  00036	8b 47 18	 mov	 eax, DWORD PTR [edi+24]
  00039	2b c1		 sub	 eax, ecx
; File C:\Program Files (x86)\Microsoft Visual Studio\2019\Community\VC\Tools\MSVC\14.28.29333\include\xmemory

; 810  :         _Deallocate<_New_alignof<_Ty>>(_Ptr, sizeof(_Ty) * _Count);

  0003b	83 e0 fc	 and	 eax, -4			; fffffffcH
  0003e	50		 push	 eax
  0003f	51		 push	 ecx
  00040	e8 00 00 00 00	 call	 ??$_Deallocate@$07$0A@@std@@YAXPAXI@Z ; std::_Deallocate<8,0>
; File C:\Program Files (x86)\Microsoft Visual Studio\2019\Community\VC\Tools\MSVC\14.28.29333\include\vector

; 1698 :             _Myfirst = pointer();

  00045	c7 47 10 00 00
	00 00		 mov	 DWORD PTR [edi+16], 0
; File C:\Program Files (x86)\Microsoft Visual Studio\2019\Community\VC\Tools\MSVC\14.28.29333\include\xmemory

; 810  :         _Deallocate<_New_alignof<_Ty>>(_Ptr, sizeof(_Ty) * _Count);

  0004c	83 c4 08	 add	 esp, 8
; File C:\Program Files (x86)\Microsoft Visual Studio\2019\Community\VC\Tools\MSVC\14.28.29333\include\vector

; 1699 :             _Mylast  = pointer();

  0004f	c7 47 14 00 00
	00 00		 mov	 DWORD PTR [edi+20], 0

; 1700 :             _Myend   = pointer();

  00056	c7 47 18 00 00
	00 00		 mov	 DWORD PTR [edi+24], 0
$LN27@CDynamicPo:

; 1694 :         if (_Myfirst) { // destroy and deallocate old array

  0005d	8b 4f 04	 mov	 ecx, DWORD PTR [edi+4]
  00060	85 c9		 test	 ecx, ecx
  00062	74 27		 je	 SHORT $LN34@CDynamicPo

; 1695 :             _Destroy(_Myfirst, _Mylast);
; 1696 :             _Getal().deallocate(_Myfirst, static_cast<size_type>(_Myend - _Myfirst));

  00064	8b 47 0c	 mov	 eax, DWORD PTR [edi+12]
  00067	2b c1		 sub	 eax, ecx
; File C:\Program Files (x86)\Microsoft Visual Studio\2019\Community\VC\Tools\MSVC\14.28.29333\include\xmemory

; 810  :         _Deallocate<_New_alignof<_Ty>>(_Ptr, sizeof(_Ty) * _Count);

  00069	83 e0 fc	 and	 eax, -4			; fffffffcH
  0006c	50		 push	 eax
  0006d	51		 push	 ecx
  0006e	e8 00 00 00 00	 call	 ??$_Deallocate@$07$0A@@std@@YAXPAXI@Z ; std::_Deallocate<8,0>
; File C:\Program Files (x86)\Microsoft Visual Studio\2019\Community\VC\Tools\MSVC\14.28.29333\include\vector

; 1698 :             _Myfirst = pointer();

  00073	c7 47 04 00 00
	00 00		 mov	 DWORD PTR [edi+4], 0
; File C:\Program Files (x86)\Microsoft Visual Studio\2019\Community\VC\Tools\MSVC\14.28.29333\include\xmemory

; 810  :         _Deallocate<_New_alignof<_Ty>>(_Ptr, sizeof(_Ty) * _Count);

  0007a	83 c4 08	 add	 esp, 8
; File C:\Program Files (x86)\Microsoft Visual Studio\2019\Community\VC\Tools\MSVC\14.28.29333\include\vector

; 1699 :             _Mylast  = pointer();

  0007d	c7 47 08 00 00
	00 00		 mov	 DWORD PTR [edi+8], 0

; 1700 :             _Myend   = pointer();

  00084	c7 47 0c 00 00
	00 00		 mov	 DWORD PTR [edi+12], 0
$LN34@CDynamicPo:
  0008b	5f		 pop	 edi
; File D:\Metin2 Server Files\mainline\SRC_2014\Metin2Client\eterLib\Pool.h

; 142  : 		}

  0008c	5e		 pop	 esi
  0008d	5b		 pop	 ebx
  0008e	c3		 ret	 0
??1?$CDynamicPoolEx@VCTextureAnimationRandomDecorator@NEffectUpdateDecorator@@@@UAE@XZ ENDP ; CDynamicPoolEx<NEffectUpdateDecorator::CTextureAnimationRandomDecorator>::~CDynamicPoolEx<NEffectUpdateDecorator::CTextureAnimationRandomDecorator>
_TEXT	ENDS
; Function compile flags: /Ogtp
;	COMDAT ??_G?$CDynamicPoolEx@VCAirResistanceDecorator@NEffectUpdateDecorator@@@@UAEPAXI@Z
_TEXT	SEGMENT
___flags$ = 8						; size = 4
??_G?$CDynamicPoolEx@VCAirResistanceDecorator@NEffectUpdateDecorator@@@@UAEPAXI@Z PROC ; CDynamicPoolEx<NEffectUpdateDecorator::CAirResistanceDecorator>::`scalar deleting destructor', COMDAT
; _this$ = ecx
  00000	55		 push	 ebp
  00001	8b ec		 mov	 ebp, esp
  00003	56		 push	 esi
  00004	8b f1		 mov	 esi, ecx
  00006	e8 00 00 00 00	 call	 ??1?$CDynamicPoolEx@VCAirResistanceDecorator@NEffectUpdateDecorator@@@@UAE@XZ ; CDynamicPoolEx<NEffectUpdateDecorator::CAirResistanceDecorator>::~CDynamicPoolEx<NEffectUpdateDecorator::CAirResistanceDecorator>
  0000b	f6 45 08 01	 test	 BYTE PTR ___flags$[ebp], 1
  0000f	74 0b		 je	 SHORT $LN4@scalar
  00011	6a 24		 push	 36			; 00000024H
  00013	56		 push	 esi
  00014	e8 00 00 00 00	 call	 ??3@YAXPAXI@Z		; operator delete
  00019	83 c4 08	 add	 esp, 8
$LN4@scalar:
  0001c	8b c6		 mov	 eax, esi
  0001e	5e		 pop	 esi
  0001f	5d		 pop	 ebp
  00020	c2 04 00	 ret	 4
??_G?$CDynamicPoolEx@VCAirResistanceDecorator@NEffectUpdateDecorator@@@@UAEPAXI@Z ENDP ; CDynamicPoolEx<NEffectUpdateDecorator::CAirResistanceDecorator>::`scalar deleting destructor'
_TEXT	ENDS
; Function compile flags: /Ogtp
; File D:\Metin2 Server Files\mainline\SRC_2014\Metin2Client\eterLib\Pool.h
;	COMDAT ?Delete@?$CDynamicPoolEx@VCAirResistanceDecorator@NEffectUpdateDecorator@@@@KAXPAVCAirResistanceDecorator@NEffectUpdateDecorator@@@Z
_TEXT	SEGMENT
_pkData$ = 8						; size = 4
?Delete@?$CDynamicPoolEx@VCAirResistanceDecorator@NEffectUpdateDecorator@@@@KAXPAVCAirResistanceDecorator@NEffectUpdateDecorator@@@Z PROC ; CDynamicPoolEx<NEffectUpdateDecorator::CAirResistanceDecorator>::Delete, COMDAT

; 224  : 			::operator delete(pkData);

  00000	e9 00 00 00 00	 jmp	 ??3@YAXPAX@Z		; operator delete
?Delete@?$CDynamicPoolEx@VCAirResistanceDecorator@NEffectUpdateDecorator@@@@KAXPAVCAirResistanceDecorator@NEffectUpdateDecorator@@@Z ENDP ; CDynamicPoolEx<NEffectUpdateDecorator::CAirResistanceDecorator>::Delete
_TEXT	ENDS
; Function compile flags: /Ogtp
; File D:\Metin2 Server Files\mainline\SRC_2014\Metin2Client\eterLib\Pool.h
; File C:\Program Files (x86)\Microsoft Visual Studio\2019\Community\VC\Tools\MSVC\14.28.29333\include\vector
; File C:\Program Files (x86)\Microsoft Visual Studio\2019\Community\VC\Tools\MSVC\14.28.29333\include\algorithm
; File D:\Metin2 Server Files\mainline\SRC_2014\Metin2Client\eterLib\Pool.h
; File C:\Program Files (x86)\Microsoft Visual Studio\2019\Community\VC\Tools\MSVC\14.28.29333\include\algorithm
; File D:\Metin2 Server Files\mainline\SRC_2014\Metin2Client\eterLib\Pool.h
; File C:\Program Files (x86)\Microsoft Visual Studio\2019\Community\VC\Tools\MSVC\14.28.29333\include\algorithm
; File D:\Metin2 Server Files\mainline\SRC_2014\Metin2Client\eterLib\Pool.h
; File C:\Program Files (x86)\Microsoft Visual Studio\2019\Community\VC\Tools\MSVC\14.28.29333\include\vector
; File C:\Program Files (x86)\Microsoft Visual Studio\2019\Community\VC\Tools\MSVC\14.28.29333\include\xmemory
; File C:\Program Files (x86)\Microsoft Visual Studio\2019\Community\VC\Tools\MSVC\14.28.29333\include\vector
; File C:\Program Files (x86)\Microsoft Visual Studio\2019\Community\VC\Tools\MSVC\14.28.29333\include\xmemory
; File C:\Program Files (x86)\Microsoft Visual Studio\2019\Community\VC\Tools\MSVC\14.28.29333\include\vector
; File C:\Program Files (x86)\Microsoft Visual Studio\2019\Community\VC\Tools\MSVC\14.28.29333\include\xmemory
; File C:\Program Files (x86)\Microsoft Visual Studio\2019\Community\VC\Tools\MSVC\14.28.29333\include\vector
; File C:\Program Files (x86)\Microsoft Visual Studio\2019\Community\VC\Tools\MSVC\14.28.29333\include\xmemory
; File C:\Program Files (x86)\Microsoft Visual Studio\2019\Community\VC\Tools\MSVC\14.28.29333\include\vector
; File D:\Metin2 Server Files\mainline\SRC_2014\Metin2Client\eterLib\Pool.h
;	COMDAT ??1?$CDynamicPoolEx@VCAirResistanceDecorator@NEffectUpdateDecorator@@@@UAE@XZ
_TEXT	SEGMENT
??1?$CDynamicPoolEx@VCAirResistanceDecorator@NEffectUpdateDecorator@@@@UAE@XZ PROC ; CDynamicPoolEx<NEffectUpdateDecorator::CAirResistanceDecorator>::~CDynamicPoolEx<NEffectUpdateDecorator::CAirResistanceDecorator>, COMDAT
; _this$ = ecx

; 132  : 		{

  00000	53		 push	 ebx
  00001	56		 push	 esi
  00002	57		 push	 edi
  00003	8b f9		 mov	 edi, ecx
  00005	c7 07 00 00 00
	00		 mov	 DWORD PTR [edi], OFFSET ??_7?$CDynamicPoolEx@VCAirResistanceDecorator@NEffectUpdateDecorator@@@@6B@
; File C:\Program Files (x86)\Microsoft Visual Studio\2019\Community\VC\Tools\MSVC\14.28.29333\include\vector

; 42   :     _Vector_const_iterator(_Tptr _Parg, const _Container_base* _Pvector) noexcept : _Ptr(_Parg) {

  0000b	8b 5f 08	 mov	 ebx, DWORD PTR [edi+8]
  0000e	8b 77 04	 mov	 esi, DWORD PTR [edi+4]
; File C:\Program Files (x86)\Microsoft Visual Studio\2019\Community\VC\Tools\MSVC\14.28.29333\include\algorithm

; 307  :     for (; _UFirst != _ULast; ++_UFirst) {

  00011	3b f3		 cmp	 esi, ebx
  00013	74 14		 je	 SHORT $LN19@CDynamicPo
$LL20@CDynamicPo:
; File D:\Metin2 Server Files\mainline\SRC_2014\Metin2Client\eterLib\Pool.h

; 224  : 			::operator delete(pkData);

  00015	ff 36		 push	 DWORD PTR [esi]
  00017	e8 00 00 00 00	 call	 ??3@YAXPAX@Z		; operator delete
; File C:\Program Files (x86)\Microsoft Visual Studio\2019\Community\VC\Tools\MSVC\14.28.29333\include\algorithm

; 307  :     for (; _UFirst != _ULast; ++_UFirst) {

  0001c	83 c6 04	 add	 esi, 4
; File D:\Metin2 Server Files\mainline\SRC_2014\Metin2Client\eterLib\Pool.h

; 224  : 			::operator delete(pkData);

  0001f	83 c4 04	 add	 esp, 4
; File C:\Program Files (x86)\Microsoft Visual Studio\2019\Community\VC\Tools\MSVC\14.28.29333\include\algorithm

; 307  :     for (; _UFirst != _ULast; ++_UFirst) {

  00022	3b f3		 cmp	 esi, ebx
  00024	75 ef		 jne	 SHORT $LL20@CDynamicPo
  00026	8b 77 04	 mov	 esi, DWORD PTR [edi+4]
$LN19@CDynamicPo:
; File D:\Metin2 Server Files\mainline\SRC_2014\Metin2Client\eterLib\Pool.h

; 162  : 			m_kVct_pkFree.clear();

  00029	8b 4f 10	 mov	 ecx, DWORD PTR [edi+16]
  0002c	89 77 08	 mov	 DWORD PTR [edi+8], esi
  0002f	89 4f 14	 mov	 DWORD PTR [edi+20], ecx
; File C:\Program Files (x86)\Microsoft Visual Studio\2019\Community\VC\Tools\MSVC\14.28.29333\include\vector

; 1694 :         if (_Myfirst) { // destroy and deallocate old array

  00032	85 c9		 test	 ecx, ecx
  00034	74 27		 je	 SHORT $LN27@CDynamicPo

; 1695 :             _Destroy(_Myfirst, _Mylast);
; 1696 :             _Getal().deallocate(_Myfirst, static_cast<size_type>(_Myend - _Myfirst));

  00036	8b 47 18	 mov	 eax, DWORD PTR [edi+24]
  00039	2b c1		 sub	 eax, ecx
; File C:\Program Files (x86)\Microsoft Visual Studio\2019\Community\VC\Tools\MSVC\14.28.29333\include\xmemory

; 810  :         _Deallocate<_New_alignof<_Ty>>(_Ptr, sizeof(_Ty) * _Count);

  0003b	83 e0 fc	 and	 eax, -4			; fffffffcH
  0003e	50		 push	 eax
  0003f	51		 push	 ecx
  00040	e8 00 00 00 00	 call	 ??$_Deallocate@$07$0A@@std@@YAXPAXI@Z ; std::_Deallocate<8,0>
; File C:\Program Files (x86)\Microsoft Visual Studio\2019\Community\VC\Tools\MSVC\14.28.29333\include\vector

; 1698 :             _Myfirst = pointer();

  00045	c7 47 10 00 00
	00 00		 mov	 DWORD PTR [edi+16], 0
; File C:\Program Files (x86)\Microsoft Visual Studio\2019\Community\VC\Tools\MSVC\14.28.29333\include\xmemory

; 810  :         _Deallocate<_New_alignof<_Ty>>(_Ptr, sizeof(_Ty) * _Count);

  0004c	83 c4 08	 add	 esp, 8
; File C:\Program Files (x86)\Microsoft Visual Studio\2019\Community\VC\Tools\MSVC\14.28.29333\include\vector

; 1699 :             _Mylast  = pointer();

  0004f	c7 47 14 00 00
	00 00		 mov	 DWORD PTR [edi+20], 0

; 1700 :             _Myend   = pointer();

  00056	c7 47 18 00 00
	00 00		 mov	 DWORD PTR [edi+24], 0
$LN27@CDynamicPo:

; 1694 :         if (_Myfirst) { // destroy and deallocate old array

  0005d	8b 4f 04	 mov	 ecx, DWORD PTR [edi+4]
  00060	85 c9		 test	 ecx, ecx
  00062	74 27		 je	 SHORT $LN34@CDynamicPo

; 1695 :             _Destroy(_Myfirst, _Mylast);
; 1696 :             _Getal().deallocate(_Myfirst, static_cast<size_type>(_Myend - _Myfirst));

  00064	8b 47 0c	 mov	 eax, DWORD PTR [edi+12]
  00067	2b c1		 sub	 eax, ecx
; File C:\Program Files (x86)\Microsoft Visual Studio\2019\Community\VC\Tools\MSVC\14.28.29333\include\xmemory

; 810  :         _Deallocate<_New_alignof<_Ty>>(_Ptr, sizeof(_Ty) * _Count);

  00069	83 e0 fc	 and	 eax, -4			; fffffffcH
  0006c	50		 push	 eax
  0006d	51		 push	 ecx
  0006e	e8 00 00 00 00	 call	 ??$_Deallocate@$07$0A@@std@@YAXPAXI@Z ; std::_Deallocate<8,0>
; File C:\Program Files (x86)\Microsoft Visual Studio\2019\Community\VC\Tools\MSVC\14.28.29333\include\vector

; 1698 :             _Myfirst = pointer();

  00073	c7 47 04 00 00
	00 00		 mov	 DWORD PTR [edi+4], 0
; File C:\Program Files (x86)\Microsoft Visual Studio\2019\Community\VC\Tools\MSVC\14.28.29333\include\xmemory

; 810  :         _Deallocate<_New_alignof<_Ty>>(_Ptr, sizeof(_Ty) * _Count);

  0007a	83 c4 08	 add	 esp, 8
; File C:\Program Files (x86)\Microsoft Visual Studio\2019\Community\VC\Tools\MSVC\14.28.29333\include\vector

; 1699 :             _Mylast  = pointer();

  0007d	c7 47 08 00 00
	00 00		 mov	 DWORD PTR [edi+8], 0

; 1700 :             _Myend   = pointer();

  00084	c7 47 0c 00 00
	00 00		 mov	 DWORD PTR [edi+12], 0
$LN34@CDynamicPo:
  0008b	5f		 pop	 edi
; File D:\Metin2 Server Files\mainline\SRC_2014\Metin2Client\eterLib\Pool.h

; 142  : 		}

  0008c	5e		 pop	 esi
  0008d	5b		 pop	 ebx
  0008e	c3		 ret	 0
??1?$CDynamicPoolEx@VCAirResistanceDecorator@NEffectUpdateDecorator@@@@UAE@XZ ENDP ; CDynamicPoolEx<NEffectUpdateDecorator::CAirResistanceDecorator>::~CDynamicPoolEx<NEffectUpdateDecorator::CAirResistanceDecorator>
_TEXT	ENDS
; Function compile flags: /Ogtp
;	COMDAT ??_G?$CDynamicPoolEx@VCGravityDecorator@NEffectUpdateDecorator@@@@UAEPAXI@Z
_TEXT	SEGMENT
___flags$ = 8						; size = 4
??_G?$CDynamicPoolEx@VCGravityDecorator@NEffectUpdateDecorator@@@@UAEPAXI@Z PROC ; CDynamicPoolEx<NEffectUpdateDecorator::CGravityDecorator>::`scalar deleting destructor', COMDAT
; _this$ = ecx
  00000	55		 push	 ebp
  00001	8b ec		 mov	 ebp, esp
  00003	56		 push	 esi
  00004	8b f1		 mov	 esi, ecx
  00006	e8 00 00 00 00	 call	 ??1?$CDynamicPoolEx@VCGravityDecorator@NEffectUpdateDecorator@@@@UAE@XZ ; CDynamicPoolEx<NEffectUpdateDecorator::CGravityDecorator>::~CDynamicPoolEx<NEffectUpdateDecorator::CGravityDecorator>
  0000b	f6 45 08 01	 test	 BYTE PTR ___flags$[ebp], 1
  0000f	74 0b		 je	 SHORT $LN4@scalar
  00011	6a 24		 push	 36			; 00000024H
  00013	56		 push	 esi
  00014	e8 00 00 00 00	 call	 ??3@YAXPAXI@Z		; operator delete
  00019	83 c4 08	 add	 esp, 8
$LN4@scalar:
  0001c	8b c6		 mov	 eax, esi
  0001e	5e		 pop	 esi
  0001f	5d		 pop	 ebp
  00020	c2 04 00	 ret	 4
??_G?$CDynamicPoolEx@VCGravityDecorator@NEffectUpdateDecorator@@@@UAEPAXI@Z ENDP ; CDynamicPoolEx<NEffectUpdateDecorator::CGravityDecorator>::`scalar deleting destructor'
_TEXT	ENDS
; Function compile flags: /Ogtp
; File D:\Metin2 Server Files\mainline\SRC_2014\Metin2Client\eterLib\Pool.h
;	COMDAT ?Delete@?$CDynamicPoolEx@VCGravityDecorator@NEffectUpdateDecorator@@@@KAXPAVCGravityDecorator@NEffectUpdateDecorator@@@Z
_TEXT	SEGMENT
_pkData$ = 8						; size = 4
?Delete@?$CDynamicPoolEx@VCGravityDecorator@NEffectUpdateDecorator@@@@KAXPAVCGravityDecorator@NEffectUpdateDecorator@@@Z PROC ; CDynamicPoolEx<NEffectUpdateDecorator::CGravityDecorator>::Delete, COMDAT

; 224  : 			::operator delete(pkData);

  00000	e9 00 00 00 00	 jmp	 ??3@YAXPAX@Z		; operator delete
?Delete@?$CDynamicPoolEx@VCGravityDecorator@NEffectUpdateDecorator@@@@KAXPAVCGravityDecorator@NEffectUpdateDecorator@@@Z ENDP ; CDynamicPoolEx<NEffectUpdateDecorator::CGravityDecorator>::Delete
_TEXT	ENDS
; Function compile flags: /Ogtp
; File D:\Metin2 Server Files\mainline\SRC_2014\Metin2Client\eterLib\Pool.h
; File C:\Program Files (x86)\Microsoft Visual Studio\2019\Community\VC\Tools\MSVC\14.28.29333\include\vector
; File C:\Program Files (x86)\Microsoft Visual Studio\2019\Community\VC\Tools\MSVC\14.28.29333\include\algorithm
; File D:\Metin2 Server Files\mainline\SRC_2014\Metin2Client\eterLib\Pool.h
; File C:\Program Files (x86)\Microsoft Visual Studio\2019\Community\VC\Tools\MSVC\14.28.29333\include\algorithm
; File D:\Metin2 Server Files\mainline\SRC_2014\Metin2Client\eterLib\Pool.h
; File C:\Program Files (x86)\Microsoft Visual Studio\2019\Community\VC\Tools\MSVC\14.28.29333\include\algorithm
; File D:\Metin2 Server Files\mainline\SRC_2014\Metin2Client\eterLib\Pool.h
; File C:\Program Files (x86)\Microsoft Visual Studio\2019\Community\VC\Tools\MSVC\14.28.29333\include\vector
; File C:\Program Files (x86)\Microsoft Visual Studio\2019\Community\VC\Tools\MSVC\14.28.29333\include\xmemory
; File C:\Program Files (x86)\Microsoft Visual Studio\2019\Community\VC\Tools\MSVC\14.28.29333\include\vector
; File C:\Program Files (x86)\Microsoft Visual Studio\2019\Community\VC\Tools\MSVC\14.28.29333\include\xmemory
; File C:\Program Files (x86)\Microsoft Visual Studio\2019\Community\VC\Tools\MSVC\14.28.29333\include\vector
; File C:\Program Files (x86)\Microsoft Visual Studio\2019\Community\VC\Tools\MSVC\14.28.29333\include\xmemory
; File C:\Program Files (x86)\Microsoft Visual Studio\2019\Community\VC\Tools\MSVC\14.28.29333\include\vector
; File C:\Program Files (x86)\Microsoft Visual Studio\2019\Community\VC\Tools\MSVC\14.28.29333\include\xmemory
; File C:\Program Files (x86)\Microsoft Visual Studio\2019\Community\VC\Tools\MSVC\14.28.29333\include\vector
; File D:\Metin2 Server Files\mainline\SRC_2014\Metin2Client\eterLib\Pool.h
;	COMDAT ??1?$CDynamicPoolEx@VCGravityDecorator@NEffectUpdateDecorator@@@@UAE@XZ
_TEXT	SEGMENT
??1?$CDynamicPoolEx@VCGravityDecorator@NEffectUpdateDecorator@@@@UAE@XZ PROC ; CDynamicPoolEx<NEffectUpdateDecorator::CGravityDecorator>::~CDynamicPoolEx<NEffectUpdateDecorator::CGravityDecorator>, COMDAT
; _this$ = ecx

; 132  : 		{

  00000	53		 push	 ebx
  00001	56		 push	 esi
  00002	57		 push	 edi
  00003	8b f9		 mov	 edi, ecx
  00005	c7 07 00 00 00
	00		 mov	 DWORD PTR [edi], OFFSET ??_7?$CDynamicPoolEx@VCGravityDecorator@NEffectUpdateDecorator@@@@6B@
; File C:\Program Files (x86)\Microsoft Visual Studio\2019\Community\VC\Tools\MSVC\14.28.29333\include\vector

; 42   :     _Vector_const_iterator(_Tptr _Parg, const _Container_base* _Pvector) noexcept : _Ptr(_Parg) {

  0000b	8b 5f 08	 mov	 ebx, DWORD PTR [edi+8]
  0000e	8b 77 04	 mov	 esi, DWORD PTR [edi+4]
; File C:\Program Files (x86)\Microsoft Visual Studio\2019\Community\VC\Tools\MSVC\14.28.29333\include\algorithm

; 307  :     for (; _UFirst != _ULast; ++_UFirst) {

  00011	3b f3		 cmp	 esi, ebx
  00013	74 14		 je	 SHORT $LN19@CDynamicPo
$LL20@CDynamicPo:
; File D:\Metin2 Server Files\mainline\SRC_2014\Metin2Client\eterLib\Pool.h

; 224  : 			::operator delete(pkData);

  00015	ff 36		 push	 DWORD PTR [esi]
  00017	e8 00 00 00 00	 call	 ??3@YAXPAX@Z		; operator delete
; File C:\Program Files (x86)\Microsoft Visual Studio\2019\Community\VC\Tools\MSVC\14.28.29333\include\algorithm

; 307  :     for (; _UFirst != _ULast; ++_UFirst) {

  0001c	83 c6 04	 add	 esi, 4
; File D:\Metin2 Server Files\mainline\SRC_2014\Metin2Client\eterLib\Pool.h

; 224  : 			::operator delete(pkData);

  0001f	83 c4 04	 add	 esp, 4
; File C:\Program Files (x86)\Microsoft Visual Studio\2019\Community\VC\Tools\MSVC\14.28.29333\include\algorithm

; 307  :     for (; _UFirst != _ULast; ++_UFirst) {

  00022	3b f3		 cmp	 esi, ebx
  00024	75 ef		 jne	 SHORT $LL20@CDynamicPo
  00026	8b 77 04	 mov	 esi, DWORD PTR [edi+4]
$LN19@CDynamicPo:
; File D:\Metin2 Server Files\mainline\SRC_2014\Metin2Client\eterLib\Pool.h

; 162  : 			m_kVct_pkFree.clear();

  00029	8b 4f 10	 mov	 ecx, DWORD PTR [edi+16]
  0002c	89 77 08	 mov	 DWORD PTR [edi+8], esi
  0002f	89 4f 14	 mov	 DWORD PTR [edi+20], ecx
; File C:\Program Files (x86)\Microsoft Visual Studio\2019\Community\VC\Tools\MSVC\14.28.29333\include\vector

; 1694 :         if (_Myfirst) { // destroy and deallocate old array

  00032	85 c9		 test	 ecx, ecx
  00034	74 27		 je	 SHORT $LN27@CDynamicPo

; 1695 :             _Destroy(_Myfirst, _Mylast);
; 1696 :             _Getal().deallocate(_Myfirst, static_cast<size_type>(_Myend - _Myfirst));

  00036	8b 47 18	 mov	 eax, DWORD PTR [edi+24]
  00039	2b c1		 sub	 eax, ecx
; File C:\Program Files (x86)\Microsoft Visual Studio\2019\Community\VC\Tools\MSVC\14.28.29333\include\xmemory

; 810  :         _Deallocate<_New_alignof<_Ty>>(_Ptr, sizeof(_Ty) * _Count);

  0003b	83 e0 fc	 and	 eax, -4			; fffffffcH
  0003e	50		 push	 eax
  0003f	51		 push	 ecx
  00040	e8 00 00 00 00	 call	 ??$_Deallocate@$07$0A@@std@@YAXPAXI@Z ; std::_Deallocate<8,0>
; File C:\Program Files (x86)\Microsoft Visual Studio\2019\Community\VC\Tools\MSVC\14.28.29333\include\vector

; 1698 :             _Myfirst = pointer();

  00045	c7 47 10 00 00
	00 00		 mov	 DWORD PTR [edi+16], 0
; File C:\Program Files (x86)\Microsoft Visual Studio\2019\Community\VC\Tools\MSVC\14.28.29333\include\xmemory

; 810  :         _Deallocate<_New_alignof<_Ty>>(_Ptr, sizeof(_Ty) * _Count);

  0004c	83 c4 08	 add	 esp, 8
; File C:\Program Files (x86)\Microsoft Visual Studio\2019\Community\VC\Tools\MSVC\14.28.29333\include\vector

; 1699 :             _Mylast  = pointer();

  0004f	c7 47 14 00 00
	00 00		 mov	 DWORD PTR [edi+20], 0

; 1700 :             _Myend   = pointer();

  00056	c7 47 18 00 00
	00 00		 mov	 DWORD PTR [edi+24], 0
$LN27@CDynamicPo:

; 1694 :         if (_Myfirst) { // destroy and deallocate old array

  0005d	8b 4f 04	 mov	 ecx, DWORD PTR [edi+4]
  00060	85 c9		 test	 ecx, ecx
  00062	74 27		 je	 SHORT $LN34@CDynamicPo

; 1695 :             _Destroy(_Myfirst, _Mylast);
; 1696 :             _Getal().deallocate(_Myfirst, static_cast<size_type>(_Myend - _Myfirst));

  00064	8b 47 0c	 mov	 eax, DWORD PTR [edi+12]
  00067	2b c1		 sub	 eax, ecx
; File C:\Program Files (x86)\Microsoft Visual Studio\2019\Community\VC\Tools\MSVC\14.28.29333\include\xmemory

; 810  :         _Deallocate<_New_alignof<_Ty>>(_Ptr, sizeof(_Ty) * _Count);

  00069	83 e0 fc	 and	 eax, -4			; fffffffcH
  0006c	50		 push	 eax
  0006d	51		 push	 ecx
  0006e	e8 00 00 00 00	 call	 ??$_Deallocate@$07$0A@@std@@YAXPAXI@Z ; std::_Deallocate<8,0>
; File C:\Program Files (x86)\Microsoft Visual Studio\2019\Community\VC\Tools\MSVC\14.28.29333\include\vector

; 1698 :             _Myfirst = pointer();

  00073	c7 47 04 00 00
	00 00		 mov	 DWORD PTR [edi+4], 0
; File C:\Program Files (x86)\Microsoft Visual Studio\2019\Community\VC\Tools\MSVC\14.28.29333\include\xmemory

; 810  :         _Deallocate<_New_alignof<_Ty>>(_Ptr, sizeof(_Ty) * _Count);

  0007a	83 c4 08	 add	 esp, 8
; File C:\Program Files (x86)\Microsoft Visual Studio\2019\Community\VC\Tools\MSVC\14.28.29333\include\vector

; 1699 :             _Mylast  = pointer();

  0007d	c7 47 08 00 00
	00 00		 mov	 DWORD PTR [edi+8], 0

; 1700 :             _Myend   = pointer();

  00084	c7 47 0c 00 00
	00 00		 mov	 DWORD PTR [edi+12], 0
$LN34@CDynamicPo:
  0008b	5f		 pop	 edi
; File D:\Metin2 Server Files\mainline\SRC_2014\Metin2Client\eterLib\Pool.h

; 142  : 		}

  0008c	5e		 pop	 esi
  0008d	5b		 pop	 ebx
  0008e	c3		 ret	 0
??1?$CDynamicPoolEx@VCGravityDecorator@NEffectUpdateDecorator@@@@UAE@XZ ENDP ; CDynamicPoolEx<NEffectUpdateDecorator::CGravityDecorator>::~CDynamicPoolEx<NEffectUpdateDecorator::CGravityDecorator>
_TEXT	ENDS
; Function compile flags: /Ogtp
;	COMDAT ??_G?$CDynamicPoolEx@VCRotationDecorator@NEffectUpdateDecorator@@@@UAEPAXI@Z
_TEXT	SEGMENT
___flags$ = 8						; size = 4
??_G?$CDynamicPoolEx@VCRotationDecorator@NEffectUpdateDecorator@@@@UAEPAXI@Z PROC ; CDynamicPoolEx<NEffectUpdateDecorator::CRotationDecorator>::`scalar deleting destructor', COMDAT
; _this$ = ecx
  00000	55		 push	 ebp
  00001	8b ec		 mov	 ebp, esp
  00003	56		 push	 esi
  00004	8b f1		 mov	 esi, ecx
  00006	e8 00 00 00 00	 call	 ??1?$CDynamicPoolEx@VCRotationDecorator@NEffectUpdateDecorator@@@@UAE@XZ ; CDynamicPoolEx<NEffectUpdateDecorator::CRotationDecorator>::~CDynamicPoolEx<NEffectUpdateDecorator::CRotationDecorator>
  0000b	f6 45 08 01	 test	 BYTE PTR ___flags$[ebp], 1
  0000f	74 0b		 je	 SHORT $LN4@scalar
  00011	6a 24		 push	 36			; 00000024H
  00013	56		 push	 esi
  00014	e8 00 00 00 00	 call	 ??3@YAXPAXI@Z		; operator delete
  00019	83 c4 08	 add	 esp, 8
$LN4@scalar:
  0001c	8b c6		 mov	 eax, esi
  0001e	5e		 pop	 esi
  0001f	5d		 pop	 ebp
  00020	c2 04 00	 ret	 4
??_G?$CDynamicPoolEx@VCRotationDecorator@NEffectUpdateDecorator@@@@UAEPAXI@Z ENDP ; CDynamicPoolEx<NEffectUpdateDecorator::CRotationDecorator>::`scalar deleting destructor'
_TEXT	ENDS
; Function compile flags: /Ogtp
; File D:\Metin2 Server Files\mainline\SRC_2014\Metin2Client\eterLib\Pool.h
;	COMDAT ?Delete@?$CDynamicPoolEx@VCRotationDecorator@NEffectUpdateDecorator@@@@KAXPAVCRotationDecorator@NEffectUpdateDecorator@@@Z
_TEXT	SEGMENT
_pkData$ = 8						; size = 4
?Delete@?$CDynamicPoolEx@VCRotationDecorator@NEffectUpdateDecorator@@@@KAXPAVCRotationDecorator@NEffectUpdateDecorator@@@Z PROC ; CDynamicPoolEx<NEffectUpdateDecorator::CRotationDecorator>::Delete, COMDAT

; 224  : 			::operator delete(pkData);

  00000	e9 00 00 00 00	 jmp	 ??3@YAXPAX@Z		; operator delete
?Delete@?$CDynamicPoolEx@VCRotationDecorator@NEffectUpdateDecorator@@@@KAXPAVCRotationDecorator@NEffectUpdateDecorator@@@Z ENDP ; CDynamicPoolEx<NEffectUpdateDecorator::CRotationDecorator>::Delete
_TEXT	ENDS
; Function compile flags: /Ogtp
; File D:\Metin2 Server Files\mainline\SRC_2014\Metin2Client\eterLib\Pool.h
; File C:\Program Files (x86)\Microsoft Visual Studio\2019\Community\VC\Tools\MSVC\14.28.29333\include\vector
; File C:\Program Files (x86)\Microsoft Visual Studio\2019\Community\VC\Tools\MSVC\14.28.29333\include\algorithm
; File D:\Metin2 Server Files\mainline\SRC_2014\Metin2Client\eterLib\Pool.h
; File C:\Program Files (x86)\Microsoft Visual Studio\2019\Community\VC\Tools\MSVC\14.28.29333\include\algorithm
; File D:\Metin2 Server Files\mainline\SRC_2014\Metin2Client\eterLib\Pool.h
; File C:\Program Files (x86)\Microsoft Visual Studio\2019\Community\VC\Tools\MSVC\14.28.29333\include\algorithm
; File D:\Metin2 Server Files\mainline\SRC_2014\Metin2Client\eterLib\Pool.h
; File C:\Program Files (x86)\Microsoft Visual Studio\2019\Community\VC\Tools\MSVC\14.28.29333\include\vector
; File C:\Program Files (x86)\Microsoft Visual Studio\2019\Community\VC\Tools\MSVC\14.28.29333\include\xmemory
; File C:\Program Files (x86)\Microsoft Visual Studio\2019\Community\VC\Tools\MSVC\14.28.29333\include\vector
; File C:\Program Files (x86)\Microsoft Visual Studio\2019\Community\VC\Tools\MSVC\14.28.29333\include\xmemory
; File C:\Program Files (x86)\Microsoft Visual Studio\2019\Community\VC\Tools\MSVC\14.28.29333\include\vector
; File C:\Program Files (x86)\Microsoft Visual Studio\2019\Community\VC\Tools\MSVC\14.28.29333\include\xmemory
; File C:\Program Files (x86)\Microsoft Visual Studio\2019\Community\VC\Tools\MSVC\14.28.29333\include\vector
; File C:\Program Files (x86)\Microsoft Visual Studio\2019\Community\VC\Tools\MSVC\14.28.29333\include\xmemory
; File C:\Program Files (x86)\Microsoft Visual Studio\2019\Community\VC\Tools\MSVC\14.28.29333\include\vector
; File D:\Metin2 Server Files\mainline\SRC_2014\Metin2Client\eterLib\Pool.h
;	COMDAT ??1?$CDynamicPoolEx@VCRotationDecorator@NEffectUpdateDecorator@@@@UAE@XZ
_TEXT	SEGMENT
??1?$CDynamicPoolEx@VCRotationDecorator@NEffectUpdateDecorator@@@@UAE@XZ PROC ; CDynamicPoolEx<NEffectUpdateDecorator::CRotationDecorator>::~CDynamicPoolEx<NEffectUpdateDecorator::CRotationDecorator>, COMDAT
; _this$ = ecx

; 132  : 		{

  00000	53		 push	 ebx
  00001	56		 push	 esi
  00002	57		 push	 edi
  00003	8b f9		 mov	 edi, ecx
  00005	c7 07 00 00 00
	00		 mov	 DWORD PTR [edi], OFFSET ??_7?$CDynamicPoolEx@VCRotationDecorator@NEffectUpdateDecorator@@@@6B@
; File C:\Program Files (x86)\Microsoft Visual Studio\2019\Community\VC\Tools\MSVC\14.28.29333\include\vector

; 42   :     _Vector_const_iterator(_Tptr _Parg, const _Container_base* _Pvector) noexcept : _Ptr(_Parg) {

  0000b	8b 5f 08	 mov	 ebx, DWORD PTR [edi+8]
  0000e	8b 77 04	 mov	 esi, DWORD PTR [edi+4]
; File C:\Program Files (x86)\Microsoft Visual Studio\2019\Community\VC\Tools\MSVC\14.28.29333\include\algorithm

; 307  :     for (; _UFirst != _ULast; ++_UFirst) {

  00011	3b f3		 cmp	 esi, ebx
  00013	74 14		 je	 SHORT $LN19@CDynamicPo
$LL20@CDynamicPo:
; File D:\Metin2 Server Files\mainline\SRC_2014\Metin2Client\eterLib\Pool.h

; 224  : 			::operator delete(pkData);

  00015	ff 36		 push	 DWORD PTR [esi]
  00017	e8 00 00 00 00	 call	 ??3@YAXPAX@Z		; operator delete
; File C:\Program Files (x86)\Microsoft Visual Studio\2019\Community\VC\Tools\MSVC\14.28.29333\include\algorithm

; 307  :     for (; _UFirst != _ULast; ++_UFirst) {

  0001c	83 c6 04	 add	 esi, 4
; File D:\Metin2 Server Files\mainline\SRC_2014\Metin2Client\eterLib\Pool.h

; 224  : 			::operator delete(pkData);

  0001f	83 c4 04	 add	 esp, 4
; File C:\Program Files (x86)\Microsoft Visual Studio\2019\Community\VC\Tools\MSVC\14.28.29333\include\algorithm

; 307  :     for (; _UFirst != _ULast; ++_UFirst) {

  00022	3b f3		 cmp	 esi, ebx
  00024	75 ef		 jne	 SHORT $LL20@CDynamicPo
  00026	8b 77 04	 mov	 esi, DWORD PTR [edi+4]
$LN19@CDynamicPo:
; File D:\Metin2 Server Files\mainline\SRC_2014\Metin2Client\eterLib\Pool.h

; 162  : 			m_kVct_pkFree.clear();

  00029	8b 4f 10	 mov	 ecx, DWORD PTR [edi+16]
  0002c	89 77 08	 mov	 DWORD PTR [edi+8], esi
  0002f	89 4f 14	 mov	 DWORD PTR [edi+20], ecx
; File C:\Program Files (x86)\Microsoft Visual Studio\2019\Community\VC\Tools\MSVC\14.28.29333\include\vector

; 1694 :         if (_Myfirst) { // destroy and deallocate old array

  00032	85 c9		 test	 ecx, ecx
  00034	74 27		 je	 SHORT $LN27@CDynamicPo

; 1695 :             _Destroy(_Myfirst, _Mylast);
; 1696 :             _Getal().deallocate(_Myfirst, static_cast<size_type>(_Myend - _Myfirst));

  00036	8b 47 18	 mov	 eax, DWORD PTR [edi+24]
  00039	2b c1		 sub	 eax, ecx
; File C:\Program Files (x86)\Microsoft Visual Studio\2019\Community\VC\Tools\MSVC\14.28.29333\include\xmemory

; 810  :         _Deallocate<_New_alignof<_Ty>>(_Ptr, sizeof(_Ty) * _Count);

  0003b	83 e0 fc	 and	 eax, -4			; fffffffcH
  0003e	50		 push	 eax
  0003f	51		 push	 ecx
  00040	e8 00 00 00 00	 call	 ??$_Deallocate@$07$0A@@std@@YAXPAXI@Z ; std::_Deallocate<8,0>
; File C:\Program Files (x86)\Microsoft Visual Studio\2019\Community\VC\Tools\MSVC\14.28.29333\include\vector

; 1698 :             _Myfirst = pointer();

  00045	c7 47 10 00 00
	00 00		 mov	 DWORD PTR [edi+16], 0
; File C:\Program Files (x86)\Microsoft Visual Studio\2019\Community\VC\Tools\MSVC\14.28.29333\include\xmemory

; 810  :         _Deallocate<_New_alignof<_Ty>>(_Ptr, sizeof(_Ty) * _Count);

  0004c	83 c4 08	 add	 esp, 8
; File C:\Program Files (x86)\Microsoft Visual Studio\2019\Community\VC\Tools\MSVC\14.28.29333\include\vector

; 1699 :             _Mylast  = pointer();

  0004f	c7 47 14 00 00
	00 00		 mov	 DWORD PTR [edi+20], 0

; 1700 :             _Myend   = pointer();

  00056	c7 47 18 00 00
	00 00		 mov	 DWORD PTR [edi+24], 0
$LN27@CDynamicPo:

; 1694 :         if (_Myfirst) { // destroy and deallocate old array

  0005d	8b 4f 04	 mov	 ecx, DWORD PTR [edi+4]
  00060	85 c9		 test	 ecx, ecx
  00062	74 27		 je	 SHORT $LN34@CDynamicPo

; 1695 :             _Destroy(_Myfirst, _Mylast);
; 1696 :             _Getal().deallocate(_Myfirst, static_cast<size_type>(_Myend - _Myfirst));

  00064	8b 47 0c	 mov	 eax, DWORD PTR [edi+12]
  00067	2b c1		 sub	 eax, ecx
; File C:\Program Files (x86)\Microsoft Visual Studio\2019\Community\VC\Tools\MSVC\14.28.29333\include\xmemory

; 810  :         _Deallocate<_New_alignof<_Ty>>(_Ptr, sizeof(_Ty) * _Count);

  00069	83 e0 fc	 and	 eax, -4			; fffffffcH
  0006c	50		 push	 eax
  0006d	51		 push	 ecx
  0006e	e8 00 00 00 00	 call	 ??$_Deallocate@$07$0A@@std@@YAXPAXI@Z ; std::_Deallocate<8,0>
; File C:\Program Files (x86)\Microsoft Visual Studio\2019\Community\VC\Tools\MSVC\14.28.29333\include\vector

; 1698 :             _Myfirst = pointer();

  00073	c7 47 04 00 00
	00 00		 mov	 DWORD PTR [edi+4], 0
; File C:\Program Files (x86)\Microsoft Visual Studio\2019\Community\VC\Tools\MSVC\14.28.29333\include\xmemory

; 810  :         _Deallocate<_New_alignof<_Ty>>(_Ptr, sizeof(_Ty) * _Count);

  0007a	83 c4 08	 add	 esp, 8
; File C:\Program Files (x86)\Microsoft Visual Studio\2019\Community\VC\Tools\MSVC\14.28.29333\include\vector

; 1699 :             _Mylast  = pointer();

  0007d	c7 47 08 00 00
	00 00		 mov	 DWORD PTR [edi+8], 0

; 1700 :             _Myend   = pointer();

  00084	c7 47 0c 00 00
	00 00		 mov	 DWORD PTR [edi+12], 0
$LN34@CDynamicPo:
  0008b	5f		 pop	 edi
; File D:\Metin2 Server Files\mainline\SRC_2014\Metin2Client\eterLib\Pool.h

; 142  : 		}

  0008c	5e		 pop	 esi
  0008d	5b		 pop	 ebx
  0008e	c3		 ret	 0
??1?$CDynamicPoolEx@VCRotationDecorator@NEffectUpdateDecorator@@@@UAE@XZ ENDP ; CDynamicPoolEx<NEffectUpdateDecorator::CRotationDecorator>::~CDynamicPoolEx<NEffectUpdateDecorator::CRotationDecorator>
_TEXT	ENDS
; Function compile flags: /Ogtp
; File C:\Program Files (x86)\Microsoft Visual Studio\2019\Community\VC\Tools\MSVC\14.28.29333\include\xtree
; File C:\Program Files (x86)\Microsoft Visual Studio\2019\Community\VC\Tools\MSVC\14.28.29333\include\utility
; File C:\Program Files (x86)\Microsoft Visual Studio\2019\Community\VC\Tools\MSVC\14.28.29333\include\xstring
; File C:\Program Files (x86)\Microsoft Visual Studio\2019\Community\VC\Tools\MSVC\14.28.29333\include\xmemory
; File C:\Program Files (x86)\Microsoft Visual Studio\2019\Community\VC\Tools\MSVC\14.28.29333\include\xstring
; File C:\Program Files (x86)\Microsoft Visual Studio\2019\Community\VC\Tools\MSVC\14.28.29333\include\xmemory
; File C:\Program Files (x86)\Microsoft Visual Studio\2019\Community\VC\Tools\MSVC\14.28.29333\include\xtree
; File C:\Program Files (x86)\Microsoft Visual Studio\2019\Community\VC\Tools\MSVC\14.28.29333\include\xmemory
; File C:\Program Files (x86)\Microsoft Visual Studio\2019\Community\VC\Tools\MSVC\14.28.29333\include\xtree
;	COMDAT ??$_Erase_tree@V?$allocator@U?$_Tree_node@U?$pair@$$CBKUSNetworkActorData@@@std@@PAX@std@@@std@@@?$_Tree_val@U?$_Tree_simple_types@U?$pair@$$CBKUSNetworkActorData@@@std@@@std@@@std@@QAEXAAV?$allocator@U?$_Tree_node@U?$pair@$$CBKUSNetworkActorData@@@std@@PAX@std@@@1@PAU?$_Tree_node@U?$pair@$$CBKUSNetworkActorData@@@std@@PAX@1@@Z
_TEXT	SEGMENT
_this$1$ = -4						; size = 4
__Al$ = 8						; size = 4
__Rootnode$ = 12					; size = 4
??$_Erase_tree@V?$allocator@U?$_Tree_node@U?$pair@$$CBKUSNetworkActorData@@@std@@PAX@std@@@std@@@?$_Tree_val@U?$_Tree_simple_types@U?$pair@$$CBKUSNetworkActorData@@@std@@@std@@@std@@QAEXAAV?$allocator@U?$_Tree_node@U?$pair@$$CBKUSNetworkActorData@@@std@@PAX@std@@@1@PAU?$_Tree_node@U?$pair@$$CBKUSNetworkActorData@@@std@@PAX@1@@Z PROC ; std::_Tree_val<std::_Tree_simple_types<std::pair<unsigned long const ,SNetworkActorData> > >::_Erase_tree<std::allocator<std::_Tree_node<std::pair<unsigned long const ,SNetworkActorData>,void *> > >, COMDAT
; _this$ = ecx

; 742  :     void _Erase_tree(_Alnode& _Al, _Nodeptr _Rootnode) noexcept {

  00000	55		 push	 ebp
  00001	8b ec		 mov	 ebp, esp
  00003	51		 push	 ecx
  00004	57		 push	 edi

; 743  :         while (!_Rootnode->_Isnil) { // free subtrees, then node

  00005	8b 7d 0c	 mov	 edi, DWORD PTR __Rootnode$[ebp]
  00008	8b c1		 mov	 eax, ecx
  0000a	89 45 fc	 mov	 DWORD PTR _this$1$[ebp], eax
  0000d	80 7f 0d 00	 cmp	 BYTE PTR [edi+13], 0
  00011	75 5c		 jne	 SHORT $LN3@Erase_tree
  00013	53		 push	 ebx
  00014	8b 5d 08	 mov	 ebx, DWORD PTR __Al$[ebp]
  00017	56		 push	 esi
$LL2@Erase_tree:

; 744  :             _Erase_tree(_Al, _Rootnode->_Right);

  00018	ff 77 08	 push	 DWORD PTR [edi+8]
  0001b	8b c8		 mov	 ecx, eax
  0001d	53		 push	 ebx
  0001e	e8 00 00 00 00	 call	 ??$_Erase_tree@V?$allocator@U?$_Tree_node@U?$pair@$$CBKUSNetworkActorData@@@std@@PAX@std@@@std@@@?$_Tree_val@U?$_Tree_simple_types@U?$pair@$$CBKUSNetworkActorData@@@std@@@std@@@std@@QAEXAAV?$allocator@U?$_Tree_node@U?$pair@$$CBKUSNetworkActorData@@@std@@PAX@std@@@1@PAU?$_Tree_node@U?$pair@$$CBKUSNetworkActorData@@@std@@PAX@1@@Z ; std::_Tree_val<std::_Tree_simple_types<std::pair<unsigned long const ,SNetworkActorData> > >::_Erase_tree<std::allocator<std::_Tree_node<std::pair<unsigned long const ,SNetworkActorData>,void *> > >
; File C:\Program Files (x86)\Microsoft Visual Studio\2019\Community\VC\Tools\MSVC\14.28.29333\include\utility

; 598  :     _Ty _Old_val = static_cast<_Ty&&>(_Val);

  00023	8b f7		 mov	 esi, edi

; 599  :     _Val         = static_cast<_Other&&>(_New_val);

  00025	8b 3f		 mov	 edi, DWORD PTR [edi]
  00027	8d 4e 2c	 lea	 ecx, DWORD PTR [esi+44]
  0002a	e8 00 00 00 00	 call	 ??1CAffectFlagContainer@@QAE@XZ ; CAffectFlagContainer::~CAffectFlagContainer
; File C:\Program Files (x86)\Microsoft Visual Studio\2019\Community\VC\Tools\MSVC\14.28.29333\include\xstring

; 2227 :         return _BUF_SIZE <= _Myres;

  0002f	8b 46 28	 mov	 eax, DWORD PTR [esi+40]
  00032	83 f8 10	 cmp	 eax, 16			; 00000010H

; 4385 :         if (_Mypair._Myval2._Large_string_engaged()) {

  00035	72 0d		 jb	 SHORT $LN24@Erase_tree

; 4386 :             const pointer _Ptr = _Mypair._Myval2._Bx._Ptr;
; 4387 :             auto& _Al          = _Getal();
; 4388 :             _Destroy_in_place(_Mypair._Myval2._Bx._Ptr);
; 4389 :             _Al.deallocate(_Ptr, _Mypair._Myval2._Myres + 1);

  00037	40		 inc	 eax
; File C:\Program Files (x86)\Microsoft Visual Studio\2019\Community\VC\Tools\MSVC\14.28.29333\include\xmemory

; 810  :         _Deallocate<_New_alignof<_Ty>>(_Ptr, sizeof(_Ty) * _Count);

  00038	50		 push	 eax
  00039	ff 76 14	 push	 DWORD PTR [esi+20]
  0003c	e8 00 00 00 00	 call	 ??$_Deallocate@$07$0A@@std@@YAXPAXI@Z ; std::_Deallocate<8,0>
  00041	83 c4 08	 add	 esp, 8
$LN24@Erase_tree:

; 696  :         _Deallocate<_New_alignof<value_type>>(_Ptr, sizeof(value_type) * _Count);

  00044	68 98 00 00 00	 push	 152			; 00000098H
  00049	56		 push	 esi
; File C:\Program Files (x86)\Microsoft Visual Studio\2019\Community\VC\Tools\MSVC\14.28.29333\include\xstring

; 4392 :         _Mypair._Myval2._Mysize = 0;

  0004a	c7 46 24 00 00
	00 00		 mov	 DWORD PTR [esi+36], 0

; 4393 :         _Mypair._Myval2._Myres  = _BUF_SIZE - 1;

  00051	c7 46 28 0f 00
	00 00		 mov	 DWORD PTR [esi+40], 15	; 0000000fH

; 4394 :         // the _Traits::assign is last so the codegen doesn't think the char write can alias this
; 4395 :         _Traits::assign(_Mypair._Myval2._Bx._Buf[0], _Elem());

  00058	c6 46 14 00	 mov	 BYTE PTR [esi+20], 0
; File C:\Program Files (x86)\Microsoft Visual Studio\2019\Community\VC\Tools\MSVC\14.28.29333\include\xmemory

; 696  :         _Deallocate<_New_alignof<value_type>>(_Ptr, sizeof(value_type) * _Count);

  0005c	e8 00 00 00 00	 call	 ??$_Deallocate@$07$0A@@std@@YAXPAXI@Z ; std::_Deallocate<8,0>
; File C:\Program Files (x86)\Microsoft Visual Studio\2019\Community\VC\Tools\MSVC\14.28.29333\include\xtree

; 743  :         while (!_Rootnode->_Isnil) { // free subtrees, then node

  00061	8b 45 fc	 mov	 eax, DWORD PTR _this$1$[ebp]
; File C:\Program Files (x86)\Microsoft Visual Studio\2019\Community\VC\Tools\MSVC\14.28.29333\include\xmemory

; 696  :         _Deallocate<_New_alignof<value_type>>(_Ptr, sizeof(value_type) * _Count);

  00064	83 c4 08	 add	 esp, 8
; File C:\Program Files (x86)\Microsoft Visual Studio\2019\Community\VC\Tools\MSVC\14.28.29333\include\xtree

; 743  :         while (!_Rootnode->_Isnil) { // free subtrees, then node

  00067	80 7f 0d 00	 cmp	 BYTE PTR [edi+13], 0
  0006b	74 ab		 je	 SHORT $LL2@Erase_tree
  0006d	5e		 pop	 esi
  0006e	5b		 pop	 ebx
$LN3@Erase_tree:
  0006f	5f		 pop	 edi

; 745  :             _Alnode::value_type::_Freenode(_Al, _STD exchange(_Rootnode, _Rootnode->_Left));
; 746  :         }
; 747  :     }

  00070	8b e5		 mov	 esp, ebp
  00072	5d		 pop	 ebp
  00073	c2 08 00	 ret	 8
??$_Erase_tree@V?$allocator@U?$_Tree_node@U?$pair@$$CBKUSNetworkActorData@@@std@@PAX@std@@@std@@@?$_Tree_val@U?$_Tree_simple_types@U?$pair@$$CBKUSNetworkActorData@@@std@@@std@@@std@@QAEXAAV?$allocator@U?$_Tree_node@U?$pair@$$CBKUSNetworkActorData@@@std@@PAX@std@@@1@PAU?$_Tree_node@U?$pair@$$CBKUSNetworkActorData@@@std@@PAX@1@@Z ENDP ; std::_Tree_val<std::_Tree_simple_types<std::pair<unsigned long const ,SNetworkActorData> > >::_Erase_tree<std::allocator<std::_Tree_node<std::pair<unsigned long const ,SNetworkActorData>,void *> > >
_TEXT	ENDS
; Function compile flags: /Ogtp
; File C:\Program Files (x86)\Microsoft Visual Studio\2019\Community\VC\Tools\MSVC\14.28.29333\include\xtree
;	COMDAT ??E?$_Tree_unchecked_const_iterator@V?$_Tree_val@U?$_Tree_simple_types@U?$pair@$$CBKUSNetworkActorData@@@std@@@std@@@std@@U_Iterator_base0@2@@std@@QAEAAV01@XZ
_TEXT	SEGMENT
??E?$_Tree_unchecked_const_iterator@V?$_Tree_val@U?$_Tree_simple_types@U?$pair@$$CBKUSNetworkActorData@@@std@@@std@@@std@@U_Iterator_base0@2@@std@@QAEAAV01@XZ PROC ; std::_Tree_unchecked_const_iterator<std::_Tree_val<std::_Tree_simple_types<std::pair<unsigned long const ,SNetworkActorData> > >,std::_Iterator_base0>::operator++, COMDAT
; _this$ = ecx

; 51   :     _Tree_unchecked_const_iterator& operator++() noexcept {

  00000	56		 push	 esi
  00001	8b f1		 mov	 esi, ecx
  00003	57		 push	 edi

; 52   :         if (_Ptr->_Right->_Isnil) { // climb looking for right subtree

  00004	8b 16		 mov	 edx, DWORD PTR [esi]
  00006	8b 7a 08	 mov	 edi, DWORD PTR [edx+8]
  00009	80 7f 0d 00	 cmp	 BYTE PTR [edi+13], 0
  0000d	74 22		 je	 SHORT $LN4@operator

; 53   :             _Nodeptr _Pnode;
; 54   :             while (!(_Pnode = _Ptr->_Parent)->_Isnil && _Ptr == _Pnode->_Right) {

  0000f	8b 42 04	 mov	 eax, DWORD PTR [edx+4]
  00012	80 78 0d 00	 cmp	 BYTE PTR [eax+13], 0
  00016	75 12		 jne	 SHORT $LN19@operator
$LL2@operator:
  00018	3b 50 08	 cmp	 edx, DWORD PTR [eax+8]
  0001b	75 0d		 jne	 SHORT $LN19@operator

; 55   :                 _Ptr = _Pnode; // ==> parent while right subtree

  0001d	89 06		 mov	 DWORD PTR [esi], eax
  0001f	8b d0		 mov	 edx, eax
  00021	8b 40 04	 mov	 eax, DWORD PTR [eax+4]
  00024	80 78 0d 00	 cmp	 BYTE PTR [eax+13], 0
  00028	74 ee		 je	 SHORT $LL2@operator
$LN19@operator:

; 56   :             }
; 57   : 
; 58   :             _Ptr = _Pnode; // ==> parent (head if end())
; 59   :         } else {
; 60   :             _Ptr = _Mytree::_Min(_Ptr->_Right); // ==> smallest of right subtree
; 61   :         }
; 62   : 
; 63   :         return *this;

  0002a	89 06		 mov	 DWORD PTR [esi], eax

; 64   :     }

  0002c	8b c6		 mov	 eax, esi
  0002e	5f		 pop	 edi
  0002f	5e		 pop	 esi
  00030	c3		 ret	 0
$LN4@operator:

; 451  :         while (!_Pnode->_Left->_Isnil) {

  00031	8b 0f		 mov	 ecx, DWORD PTR [edi]
  00033	80 79 0d 00	 cmp	 BYTE PTR [ecx+13], 0
  00037	75 13		 jne	 SHORT $LN9@operator
  00039	0f 1f 80 00 00
	00 00		 npad	 7
$LL8@operator:
  00040	8b 01		 mov	 eax, DWORD PTR [ecx]

; 452  :             _Pnode = _Pnode->_Left;

  00042	8b f9		 mov	 edi, ecx
  00044	8b c8		 mov	 ecx, eax
  00046	80 78 0d 00	 cmp	 BYTE PTR [eax+13], 0
  0004a	74 f4		 je	 SHORT $LL8@operator
$LN9@operator:

; 56   :             }
; 57   : 
; 58   :             _Ptr = _Pnode; // ==> parent (head if end())
; 59   :         } else {
; 60   :             _Ptr = _Mytree::_Min(_Ptr->_Right); // ==> smallest of right subtree
; 61   :         }
; 62   : 
; 63   :         return *this;

  0004c	89 3e		 mov	 DWORD PTR [esi], edi

; 64   :     }

  0004e	8b c6		 mov	 eax, esi
  00050	5f		 pop	 edi
  00051	5e		 pop	 esi
  00052	c3		 ret	 0
??E?$_Tree_unchecked_const_iterator@V?$_Tree_val@U?$_Tree_simple_types@U?$pair@$$CBKUSNetworkActorData@@@std@@@std@@@std@@U_Iterator_base0@2@@std@@QAEAAV01@XZ ENDP ; std::_Tree_unchecked_const_iterator<std::_Tree_val<std::_Tree_simple_types<std::pair<unsigned long const ,SNetworkActorData> > >,std::_Iterator_base0>::operator++
_TEXT	ENDS
; Function compile flags: /Ogtp
;	COMDAT ??_GCNetworkActorManager@@UAEPAXI@Z
_TEXT	SEGMENT
___flags$ = 8						; size = 4
??_GCNetworkActorManager@@UAEPAXI@Z PROC		; CNetworkActorManager::`scalar deleting destructor', COMDAT
; _this$ = ecx
  00000	55		 push	 ebp
  00001	8b ec		 mov	 ebp, esp
  00003	56		 push	 esi
  00004	8b f1		 mov	 esi, ecx
  00006	e8 00 00 00 00	 call	 ??1CNetworkActorManager@@UAE@XZ ; CNetworkActorManager::~CNetworkActorManager
  0000b	f6 45 08 01	 test	 BYTE PTR ___flags$[ebp], 1
  0000f	74 0b		 je	 SHORT $LN4@scalar
  00011	6a 20		 push	 32			; 00000020H
  00013	56		 push	 esi
  00014	e8 00 00 00 00	 call	 ??3@YAXPAXI@Z		; operator delete
  00019	83 c4 08	 add	 esp, 8
$LN4@scalar:
  0001c	8b c6		 mov	 eax, esi
  0001e	5e		 pop	 esi
  0001f	5d		 pop	 ebp
  00020	c2 04 00	 ret	 4
??_GCNetworkActorManager@@UAEPAXI@Z ENDP		; CNetworkActorManager::`scalar deleting destructor'
_TEXT	ENDS
; Function compile flags: /Ogtp
; File C:\Program Files (x86)\Microsoft Visual Studio\2019\Community\VC\Tools\MSVC\14.28.29333\include\xtree
;	COMDAT ?_Insert_node@?$_Tree_val@U?$_Tree_simple_types@U?$pair@$$CBKUSNetworkActorData@@@std@@@std@@@std@@QAEPAU?$_Tree_node@U?$pair@$$CBKUSNetworkActorData@@@std@@PAX@2@U?$_Tree_id@PAU?$_Tree_node@U?$pair@$$CBKUSNetworkActorData@@@std@@PAX@std@@@2@QAU32@@Z
_TEXT	SEGMENT
__Head$1$ = -8						; size = 4
_this$1$ = -4						; size = 4
__Loc$ = 8						; size = 8
__Newnode$ = 16						; size = 4
?_Insert_node@?$_Tree_val@U?$_Tree_simple_types@U?$pair@$$CBKUSNetworkActorData@@@std@@@std@@@std@@QAEPAU?$_Tree_node@U?$pair@$$CBKUSNetworkActorData@@@std@@PAX@2@U?$_Tree_id@PAU?$_Tree_node@U?$pair@$$CBKUSNetworkActorData@@@std@@PAX@std@@@2@QAU32@@Z PROC ; std::_Tree_val<std::_Tree_simple_types<std::pair<unsigned long const ,SNetworkActorData> > >::_Insert_node, COMDAT
; _this$ = ecx

; 644  :     _Nodeptr _Insert_node(const _Tree_id<_Nodeptr> _Loc, const _Nodeptr _Newnode) noexcept {

  00000	55		 push	 ebp
  00001	8b ec		 mov	 ebp, esp
  00003	83 ec 08	 sub	 esp, 8

; 645  :         ++_Mysize;
; 646  :         const auto _Head  = _Myhead;
; 647  :         _Newnode->_Parent = _Loc._Parent;

  00006	8b 55 08	 mov	 edx, DWORD PTR __Loc$[ebp]
  00009	8b c1		 mov	 eax, ecx
  0000b	89 45 fc	 mov	 DWORD PTR _this$1$[ebp], eax
  0000e	8b 08		 mov	 ecx, DWORD PTR [eax]
  00010	ff 40 04	 inc	 DWORD PTR [eax+4]
  00013	8b 45 10	 mov	 eax, DWORD PTR __Newnode$[ebp]
  00016	89 4d f8	 mov	 DWORD PTR __Head$1$[ebp], ecx
  00019	89 50 04	 mov	 DWORD PTR [eax+4], edx

; 648  :         if (_Loc._Parent == _Head) { // first node in tree, just set head values

  0001c	3b d1		 cmp	 edx, ecx
  0001e	75 12		 jne	 SHORT $LN5@Insert_nod

; 649  :             _Head->_Left     = _Newnode;

  00020	89 01		 mov	 DWORD PTR [ecx], eax

; 650  :             _Head->_Parent   = _Newnode;

  00022	89 41 04	 mov	 DWORD PTR [ecx+4], eax

; 651  :             _Head->_Right    = _Newnode;

  00025	89 41 08	 mov	 DWORD PTR [ecx+8], eax

; 652  :             _Newnode->_Color = _Black; // the root is black

  00028	c6 40 0c 01	 mov	 BYTE PTR [eax+12], 1

; 711  :     }

  0002c	8b e5		 mov	 esp, ebp
  0002e	5d		 pop	 ebp
  0002f	c2 0c 00	 ret	 12			; 0000000cH
$LN5@Insert_nod:

; 653  :             return _Newnode;
; 654  :         }
; 655  : 
; 656  :         _STL_INTERNAL_CHECK(_Loc._Child != _Tree_child::_Unused);
; 657  :         if (_Loc._Child == _Tree_child::_Right) { // add to right of _Loc._Parent

  00032	83 7d 0c 00	 cmp	 DWORD PTR __Loc$[ebp+4], 0
  00036	75 0d		 jne	 SHORT $LN6@Insert_nod

; 658  :             _STL_INTERNAL_CHECK(_Loc._Parent->_Right->_Isnil);
; 659  :             _Loc._Parent->_Right = _Newnode;

  00038	89 42 08	 mov	 DWORD PTR [edx+8], eax

; 660  :             if (_Loc._Parent == _Head->_Right) { // remember rightmost node

  0003b	3b 51 08	 cmp	 edx, DWORD PTR [ecx+8]
  0003e	75 0d		 jne	 SHORT $LN9@Insert_nod

; 661  :                 _Head->_Right = _Newnode;

  00040	89 41 08	 mov	 DWORD PTR [ecx+8], eax

; 662  :             }
; 663  :         } else { // add to left of _Loc._Parent

  00043	eb 08		 jmp	 SHORT $LN9@Insert_nod
$LN6@Insert_nod:

; 664  :             _STL_INTERNAL_CHECK(_Loc._Parent->_Left->_Isnil);
; 665  :             _Loc._Parent->_Left = _Newnode;

  00045	89 02		 mov	 DWORD PTR [edx], eax

; 666  :             if (_Loc._Parent == _Head->_Left) { // remember leftmost node

  00047	3b 11		 cmp	 edx, DWORD PTR [ecx]
  00049	75 02		 jne	 SHORT $LN9@Insert_nod

; 667  :                 _Head->_Left = _Newnode;

  0004b	89 01		 mov	 DWORD PTR [ecx], eax
$LN9@Insert_nod:

; 668  :             }
; 669  :         }
; 670  : 
; 671  :         for (_Nodeptr _Pnode = _Newnode; _Pnode->_Parent->_Color == _Red;) {

  0004d	8b d0		 mov	 edx, eax
  0004f	8b 40 04	 mov	 eax, DWORD PTR [eax+4]
  00052	80 78 0c 00	 cmp	 BYTE PTR [eax+12], 0
  00056	0f 85 99 01 00
	00		 jne	 $LN3@Insert_nod
  0005c	53		 push	 ebx
  0005d	56		 push	 esi
  0005e	57		 push	 edi
  0005f	90		 npad	 1
$LL2@Insert_nod:

; 672  :             if (_Pnode->_Parent == _Pnode->_Parent->_Parent->_Left) { // fixup red-red in left subtree

  00060	8b 4a 04	 mov	 ecx, DWORD PTR [edx+4]
  00063	8d 7a 04	 lea	 edi, DWORD PTR [edx+4]
  00066	8b 71 04	 mov	 esi, DWORD PTR [ecx+4]
  00069	8d 59 04	 lea	 ebx, DWORD PTR [ecx+4]
  0006c	8b 06		 mov	 eax, DWORD PTR [esi]
  0006e	3b c8		 cmp	 ecx, eax
  00070	0f 85 ba 00 00
	00		 jne	 $LN10@Insert_nod

; 673  :                 const auto _Parent_sibling = _Pnode->_Parent->_Parent->_Right;

  00076	8b 46 08	 mov	 eax, DWORD PTR [esi+8]

; 674  :                 if (_Parent_sibling->_Color == _Red) { // parent's sibling has two red children, blacken both

  00079	80 78 0c 00	 cmp	 BYTE PTR [eax+12], 0
  0007d	0f 84 b3 00 00
	00		 je	 $LN53@Insert_nod

; 675  :                     _Pnode->_Parent->_Color          = _Black;
; 676  :                     _Parent_sibling->_Color          = _Black;
; 677  :                     _Pnode->_Parent->_Parent->_Color = _Red;
; 678  :                     _Pnode                           = _Pnode->_Parent->_Parent;
; 679  :                 } else { // parent's sibling has red and black children
; 680  :                     if (_Pnode == _Pnode->_Parent->_Right) { // rotate right child to left

  00083	8b 71 08	 mov	 esi, DWORD PTR [ecx+8]
  00086	3b d6		 cmp	 edx, esi
  00088	75 47		 jne	 SHORT $LN51@Insert_nod

; 460  :         _Wherenode->_Right = _Pnode->_Left;

  0008a	8b 06		 mov	 eax, DWORD PTR [esi]

; 681  :                         _Pnode = _Pnode->_Parent;

  0008c	8b d1		 mov	 edx, ecx

; 460  :         _Wherenode->_Right = _Pnode->_Left;

  0008e	89 42 08	 mov	 DWORD PTR [edx+8], eax

; 461  : 
; 462  :         if (!_Pnode->_Left->_Isnil) {

  00091	8b 06		 mov	 eax, DWORD PTR [esi]
  00093	80 78 0d 00	 cmp	 BYTE PTR [eax+13], 0
  00097	75 03		 jne	 SHORT $LN20@Insert_nod

; 463  :             _Pnode->_Left->_Parent = _Wherenode;

  00099	89 50 04	 mov	 DWORD PTR [eax+4], edx
$LN20@Insert_nod:

; 464  :         }
; 465  : 
; 466  :         _Pnode->_Parent = _Wherenode->_Parent;

  0009c	8b 03		 mov	 eax, DWORD PTR [ebx]
  0009e	89 46 04	 mov	 DWORD PTR [esi+4], eax

; 467  : 
; 468  :         if (_Wherenode == _Myhead->_Parent) {

  000a1	8b 45 fc	 mov	 eax, DWORD PTR _this$1$[ebp]
  000a4	8b 00		 mov	 eax, DWORD PTR [eax]
  000a6	3b 50 04	 cmp	 edx, DWORD PTR [eax+4]
  000a9	75 0b		 jne	 SHORT $LN21@Insert_nod

; 469  :             _Myhead->_Parent = _Pnode;

  000ab	89 70 04	 mov	 DWORD PTR [eax+4], esi

; 477  :         _Wherenode->_Parent = _Pnode;

  000ae	8b fb		 mov	 edi, ebx
  000b0	89 16		 mov	 DWORD PTR [esi], edx
  000b2	89 33		 mov	 DWORD PTR [ebx], esi
  000b4	eb 1d		 jmp	 SHORT $LN49@Insert_nod
$LN21@Insert_nod:

; 470  :         } else if (_Wherenode == _Wherenode->_Parent->_Left) {

  000b6	8b 03		 mov	 eax, DWORD PTR [ebx]
  000b8	3b 10		 cmp	 edx, DWORD PTR [eax]
  000ba	75 0a		 jne	 SHORT $LN23@Insert_nod

; 471  :             _Wherenode->_Parent->_Left = _Pnode;

  000bc	89 30		 mov	 DWORD PTR [eax], esi

; 477  :         _Wherenode->_Parent = _Pnode;

  000be	8b fb		 mov	 edi, ebx
  000c0	89 16		 mov	 DWORD PTR [esi], edx
  000c2	89 33		 mov	 DWORD PTR [ebx], esi
  000c4	eb 0d		 jmp	 SHORT $LN49@Insert_nod
$LN23@Insert_nod:

; 473  :             _Wherenode->_Parent->_Right = _Pnode;

  000c6	89 70 08	 mov	 DWORD PTR [eax+8], esi

; 477  :         _Wherenode->_Parent = _Pnode;

  000c9	8b fb		 mov	 edi, ebx
  000cb	89 16		 mov	 DWORD PTR [esi], edx
  000cd	89 33		 mov	 DWORD PTR [ebx], esi
  000cf	eb 02		 jmp	 SHORT $LN49@Insert_nod
$LN51@Insert_nod:
  000d1	8b f1		 mov	 esi, ecx
$LN49@Insert_nod:

; 682  :                         _Lrotate(_Pnode);
; 683  :                     }
; 684  : 
; 685  :                     _Pnode->_Parent->_Color          = _Black; // propagate red up

  000d3	c6 46 0c 01	 mov	 BYTE PTR [esi+12], 1

; 686  :                     _Pnode->_Parent->_Parent->_Color = _Red;

  000d7	8b 07		 mov	 eax, DWORD PTR [edi]
  000d9	8b 40 04	 mov	 eax, DWORD PTR [eax+4]
  000dc	c6 40 0c 00	 mov	 BYTE PTR [eax+12], 0

; 687  :                     _Rrotate(_Pnode->_Parent->_Parent);

  000e0	8b 07		 mov	 eax, DWORD PTR [edi]
  000e2	8b 48 04	 mov	 ecx, DWORD PTR [eax+4]

; 481  :         _Nodeptr _Pnode   = _Wherenode->_Left;

  000e5	8b 31		 mov	 esi, DWORD PTR [ecx]

; 482  :         _Wherenode->_Left = _Pnode->_Right;

  000e7	8b 46 08	 mov	 eax, DWORD PTR [esi+8]
  000ea	89 01		 mov	 DWORD PTR [ecx], eax

; 483  : 
; 484  :         if (!_Pnode->_Right->_Isnil) {

  000ec	8b 46 08	 mov	 eax, DWORD PTR [esi+8]
  000ef	80 78 0d 00	 cmp	 BYTE PTR [eax+13], 0
  000f3	75 03		 jne	 SHORT $LN27@Insert_nod

; 485  :             _Pnode->_Right->_Parent = _Wherenode;

  000f5	89 48 04	 mov	 DWORD PTR [eax+4], ecx
$LN27@Insert_nod:

; 486  :         }
; 487  : 
; 488  :         _Pnode->_Parent = _Wherenode->_Parent;

  000f8	8b 41 04	 mov	 eax, DWORD PTR [ecx+4]
  000fb	89 46 04	 mov	 DWORD PTR [esi+4], eax

; 489  : 
; 490  :         if (_Wherenode == _Myhead->_Parent) {

  000fe	8b 45 fc	 mov	 eax, DWORD PTR _this$1$[ebp]
  00101	8b 00		 mov	 eax, DWORD PTR [eax]
  00103	3b 48 04	 cmp	 ecx, DWORD PTR [eax+4]
  00106	75 0b		 jne	 SHORT $LN28@Insert_nod

; 491  :             _Myhead->_Parent = _Pnode;

  00108	89 70 04	 mov	 DWORD PTR [eax+4], esi

; 496  :         }
; 497  : 
; 498  :         _Pnode->_Right      = _Wherenode;

  0010b	89 4e 08	 mov	 DWORD PTR [esi+8], ecx

; 688  :                 }
; 689  :             } else { // fixup red-red in right subtree

  0010e	e9 cc 00 00 00	 jmp	 $LN52@Insert_nod
$LN28@Insert_nod:

; 492  :         } else if (_Wherenode == _Wherenode->_Parent->_Right) {

  00113	8b 41 04	 mov	 eax, DWORD PTR [ecx+4]
  00116	3b 48 08	 cmp	 ecx, DWORD PTR [eax+8]
  00119	75 0b		 jne	 SHORT $LN30@Insert_nod

; 493  :             _Wherenode->_Parent->_Right = _Pnode;

  0011b	89 70 08	 mov	 DWORD PTR [eax+8], esi

; 496  :         }
; 497  : 
; 498  :         _Pnode->_Right      = _Wherenode;

  0011e	89 4e 08	 mov	 DWORD PTR [esi+8], ecx

; 688  :                 }
; 689  :             } else { // fixup red-red in right subtree

  00121	e9 b9 00 00 00	 jmp	 $LN52@Insert_nod
$LN30@Insert_nod:

; 495  :             _Wherenode->_Parent->_Left = _Pnode;

  00126	89 30		 mov	 DWORD PTR [eax], esi

; 496  :         }
; 497  : 
; 498  :         _Pnode->_Right      = _Wherenode;

  00128	89 4e 08	 mov	 DWORD PTR [esi+8], ecx

; 688  :                 }
; 689  :             } else { // fixup red-red in right subtree

  0012b	e9 af 00 00 00	 jmp	 $LN52@Insert_nod
$LN10@Insert_nod:

; 690  :                 const auto _Parent_sibling = _Pnode->_Parent->_Parent->_Left;
; 691  :                 if (_Parent_sibling->_Color == _Red) { // parent's sibling has two red children, blacken both

  00130	80 78 0c 00	 cmp	 BYTE PTR [eax+12], 0
  00134	75 1b		 jne	 SHORT $LN15@Insert_nod
$LN53@Insert_nod:

; 668  :             }
; 669  :         }
; 670  : 
; 671  :         for (_Nodeptr _Pnode = _Newnode; _Pnode->_Parent->_Color == _Red;) {

  00136	c6 41 0c 01	 mov	 BYTE PTR [ecx+12], 1
  0013a	c6 40 0c 01	 mov	 BYTE PTR [eax+12], 1
  0013e	8b 07		 mov	 eax, DWORD PTR [edi]
  00140	8b 40 04	 mov	 eax, DWORD PTR [eax+4]
  00143	c6 40 0c 00	 mov	 BYTE PTR [eax+12], 0
  00147	8b 07		 mov	 eax, DWORD PTR [edi]
  00149	8b 50 04	 mov	 edx, DWORD PTR [eax+4]
  0014c	e9 91 00 00 00	 jmp	 $LN46@Insert_nod
$LN15@Insert_nod:

; 692  :                     _Pnode->_Parent->_Color          = _Black;
; 693  :                     _Parent_sibling->_Color          = _Black;
; 694  :                     _Pnode->_Parent->_Parent->_Color = _Red;
; 695  :                     _Pnode                           = _Pnode->_Parent->_Parent;
; 696  :                 } else { // parent's sibling has red and black children
; 697  :                     if (_Pnode == _Pnode->_Parent->_Left) { // rotate left child to right

  00151	8b 01		 mov	 eax, DWORD PTR [ecx]
  00153	3b d0		 cmp	 edx, eax
  00155	75 3e		 jne	 SHORT $LN39@Insert_nod

; 698  :                         _Pnode = _Pnode->_Parent;

  00157	8b d1		 mov	 edx, ecx

; 481  :         _Nodeptr _Pnode   = _Wherenode->_Left;

  00159	8b c8		 mov	 ecx, eax

; 482  :         _Wherenode->_Left = _Pnode->_Right;

  0015b	8b 41 08	 mov	 eax, DWORD PTR [ecx+8]
  0015e	89 02		 mov	 DWORD PTR [edx], eax

; 483  : 
; 484  :         if (!_Pnode->_Right->_Isnil) {

  00160	8b 41 08	 mov	 eax, DWORD PTR [ecx+8]
  00163	80 78 0d 00	 cmp	 BYTE PTR [eax+13], 0
  00167	75 03		 jne	 SHORT $LN34@Insert_nod

; 485  :             _Pnode->_Right->_Parent = _Wherenode;

  00169	89 50 04	 mov	 DWORD PTR [eax+4], edx
$LN34@Insert_nod:

; 486  :         }
; 487  : 
; 488  :         _Pnode->_Parent = _Wherenode->_Parent;

  0016c	8b 03		 mov	 eax, DWORD PTR [ebx]
  0016e	89 41 04	 mov	 DWORD PTR [ecx+4], eax

; 489  : 
; 490  :         if (_Wherenode == _Myhead->_Parent) {

  00171	8b 45 fc	 mov	 eax, DWORD PTR _this$1$[ebp]
  00174	8b 00		 mov	 eax, DWORD PTR [eax]
  00176	3b 50 04	 cmp	 edx, DWORD PTR [eax+4]
  00179	75 05		 jne	 SHORT $LN35@Insert_nod

; 491  :             _Myhead->_Parent = _Pnode;

  0017b	89 48 04	 mov	 DWORD PTR [eax+4], ecx
  0017e	eb 0e		 jmp	 SHORT $LN38@Insert_nod
$LN35@Insert_nod:

; 492  :         } else if (_Wherenode == _Wherenode->_Parent->_Right) {

  00180	8b 03		 mov	 eax, DWORD PTR [ebx]
  00182	3b 50 08	 cmp	 edx, DWORD PTR [eax+8]
  00185	75 05		 jne	 SHORT $LN37@Insert_nod

; 493  :             _Wherenode->_Parent->_Right = _Pnode;

  00187	89 48 08	 mov	 DWORD PTR [eax+8], ecx

; 494  :         } else {

  0018a	eb 02		 jmp	 SHORT $LN38@Insert_nod
$LN37@Insert_nod:

; 495  :             _Wherenode->_Parent->_Left = _Pnode;

  0018c	89 08		 mov	 DWORD PTR [eax], ecx
$LN38@Insert_nod:

; 496  :         }
; 497  : 
; 498  :         _Pnode->_Right      = _Wherenode;

  0018e	89 51 08	 mov	 DWORD PTR [ecx+8], edx

; 499  :         _Wherenode->_Parent = _Pnode;

  00191	8b fb		 mov	 edi, ebx
  00193	89 0b		 mov	 DWORD PTR [ebx], ecx
$LN39@Insert_nod:

; 699  :                         _Rrotate(_Pnode);
; 700  :                     }
; 701  : 
; 702  :                     _Pnode->_Parent->_Color          = _Black; // propagate red up

  00195	c6 41 0c 01	 mov	 BYTE PTR [ecx+12], 1

; 703  :                     _Pnode->_Parent->_Parent->_Color = _Red;

  00199	8b 07		 mov	 eax, DWORD PTR [edi]
  0019b	8b 40 04	 mov	 eax, DWORD PTR [eax+4]
  0019e	c6 40 0c 00	 mov	 BYTE PTR [eax+12], 0

; 704  :                     _Lrotate(_Pnode->_Parent->_Parent);

  001a2	8b 07		 mov	 eax, DWORD PTR [edi]
  001a4	8b 48 04	 mov	 ecx, DWORD PTR [eax+4]

; 459  :         _Nodeptr _Pnode    = _Wherenode->_Right;

  001a7	8b 71 08	 mov	 esi, DWORD PTR [ecx+8]

; 460  :         _Wherenode->_Right = _Pnode->_Left;

  001aa	8b 06		 mov	 eax, DWORD PTR [esi]
  001ac	89 41 08	 mov	 DWORD PTR [ecx+8], eax

; 461  : 
; 462  :         if (!_Pnode->_Left->_Isnil) {

  001af	8b 06		 mov	 eax, DWORD PTR [esi]
  001b1	80 78 0d 00	 cmp	 BYTE PTR [eax+13], 0
  001b5	75 03		 jne	 SHORT $LN41@Insert_nod

; 463  :             _Pnode->_Left->_Parent = _Wherenode;

  001b7	89 48 04	 mov	 DWORD PTR [eax+4], ecx
$LN41@Insert_nod:

; 464  :         }
; 465  : 
; 466  :         _Pnode->_Parent = _Wherenode->_Parent;

  001ba	8b 41 04	 mov	 eax, DWORD PTR [ecx+4]
  001bd	89 46 04	 mov	 DWORD PTR [esi+4], eax

; 467  : 
; 468  :         if (_Wherenode == _Myhead->_Parent) {

  001c0	8b 45 fc	 mov	 eax, DWORD PTR _this$1$[ebp]
  001c3	8b 00		 mov	 eax, DWORD PTR [eax]
  001c5	3b 48 04	 cmp	 ecx, DWORD PTR [eax+4]
  001c8	75 05		 jne	 SHORT $LN42@Insert_nod

; 469  :             _Myhead->_Parent = _Pnode;

  001ca	89 70 04	 mov	 DWORD PTR [eax+4], esi
  001cd	eb 0e		 jmp	 SHORT $LN45@Insert_nod
$LN42@Insert_nod:

; 470  :         } else if (_Wherenode == _Wherenode->_Parent->_Left) {

  001cf	8b 41 04	 mov	 eax, DWORD PTR [ecx+4]
  001d2	3b 08		 cmp	 ecx, DWORD PTR [eax]
  001d4	75 04		 jne	 SHORT $LN44@Insert_nod

; 471  :             _Wherenode->_Parent->_Left = _Pnode;

  001d6	89 30		 mov	 DWORD PTR [eax], esi

; 472  :         } else {

  001d8	eb 03		 jmp	 SHORT $LN45@Insert_nod
$LN44@Insert_nod:

; 473  :             _Wherenode->_Parent->_Right = _Pnode;

  001da	89 70 08	 mov	 DWORD PTR [eax+8], esi
$LN45@Insert_nod:

; 474  :         }
; 475  : 
; 476  :         _Pnode->_Left       = _Wherenode;

  001dd	89 0e		 mov	 DWORD PTR [esi], ecx
$LN52@Insert_nod:

; 668  :             }
; 669  :         }
; 670  : 
; 671  :         for (_Nodeptr _Pnode = _Newnode; _Pnode->_Parent->_Color == _Red;) {

  001df	89 71 04	 mov	 DWORD PTR [ecx+4], esi
$LN46@Insert_nod:
  001e2	8b 42 04	 mov	 eax, DWORD PTR [edx+4]
  001e5	80 78 0c 00	 cmp	 BYTE PTR [eax+12], 0
  001e9	0f 84 71 fe ff
	ff		 je	 $LL2@Insert_nod
  001ef	8b 4d f8	 mov	 ecx, DWORD PTR __Head$1$[ebp]
  001f2	5f		 pop	 edi
  001f3	5e		 pop	 esi
  001f4	5b		 pop	 ebx
$LN3@Insert_nod:

; 705  :                 }
; 706  :             }
; 707  :         }
; 708  : 
; 709  :         _Head->_Parent->_Color = _Black; // root is always black

  001f5	8b 41 04	 mov	 eax, DWORD PTR [ecx+4]
  001f8	c6 40 0c 01	 mov	 BYTE PTR [eax+12], 1

; 710  :         return _Newnode;

  001fc	8b 45 10	 mov	 eax, DWORD PTR __Newnode$[ebp]

; 711  :     }

  001ff	8b e5		 mov	 esp, ebp
  00201	5d		 pop	 ebp
  00202	c2 0c 00	 ret	 12			; 0000000cH
?_Insert_node@?$_Tree_val@U?$_Tree_simple_types@U?$pair@$$CBKUSNetworkActorData@@@std@@@std@@@std@@QAEPAU?$_Tree_node@U?$pair@$$CBKUSNetworkActorData@@@std@@PAX@2@U?$_Tree_id@PAU?$_Tree_node@U?$pair@$$CBKUSNetworkActorData@@@std@@PAX@std@@@2@QAU32@@Z ENDP ; std::_Tree_val<std::_Tree_simple_types<std::pair<unsigned long const ,SNetworkActorData> > >::_Insert_node
_TEXT	ENDS
; Function compile flags: /Ogtp
; File C:\Program Files (x86)\Microsoft Visual Studio\2019\Community\VC\Tools\MSVC\14.28.29333\include\xtree
; File C:\Program Files (x86)\Microsoft Visual Studio\2019\Community\VC\Tools\MSVC\14.28.29333\include\utility
; File C:\Program Files (x86)\Microsoft Visual Studio\2019\Community\VC\Tools\MSVC\14.28.29333\include\xtree
; File C:\Program Files (x86)\Microsoft Visual Studio\2019\Community\VC\Tools\MSVC\14.28.29333\include\utility
; File C:\Program Files (x86)\Microsoft Visual Studio\2019\Community\VC\Tools\MSVC\14.28.29333\include\xtree
;	COMDAT ?_Extract@?$_Tree_val@U?$_Tree_simple_types@U?$pair@$$CBKUSNetworkActorData@@@std@@@std@@@std@@QAEPAU?$_Tree_node@U?$pair@$$CBKUSNetworkActorData@@@std@@PAX@2@V?$_Tree_unchecked_const_iterator@V?$_Tree_val@U?$_Tree_simple_types@U?$pair@$$CBKUSNetworkActorData@@@std@@@std@@@std@@U_Iterator_base0@2@@2@@Z
_TEXT	SEGMENT
tv1186 = -8						; size = 4
tv1182 = -8						; size = 4
tv1149 = -8						; size = 4
__Erasednode$1$ = -4					; size = 4
__Where$ = 8						; size = 4
?_Extract@?$_Tree_val@U?$_Tree_simple_types@U?$pair@$$CBKUSNetworkActorData@@@std@@@std@@@std@@QAEPAU?$_Tree_node@U?$pair@$$CBKUSNetworkActorData@@@std@@PAX@2@V?$_Tree_unchecked_const_iterator@V?$_Tree_val@U?$_Tree_simple_types@U?$pair@$$CBKUSNetworkActorData@@@std@@@std@@@std@@U_Iterator_base0@2@@2@@Z PROC ; std::_Tree_val<std::_Tree_simple_types<std::pair<unsigned long const ,SNetworkActorData> > >::_Extract, COMDAT
; _this$ = ecx

; 502  :     _Nodeptr _Extract(_Unchecked_const_iterator _Where) noexcept {

  00000	55		 push	 ebp
  00001	8b ec		 mov	 ebp, esp
  00003	83 ec 08	 sub	 esp, 8

; 503  :         _Nodeptr _Erasednode = _Where._Ptr; // node to erase

  00006	8b 45 08	 mov	 eax, DWORD PTR __Where$[ebp]
  00009	53		 push	 ebx
  0000a	56		 push	 esi
  0000b	8b d9		 mov	 ebx, ecx
  0000d	89 45 fc	 mov	 DWORD PTR __Erasednode$1$[ebp], eax
  00010	57		 push	 edi

; 504  :         ++_Where; // save successor iterator for return

  00011	8d 4d 08	 lea	 ecx, DWORD PTR __Where$[ebp]
  00014	e8 00 00 00 00	 call	 ??E?$_Tree_unchecked_const_iterator@V?$_Tree_val@U?$_Tree_simple_types@U?$pair@$$CBKUSNetworkActorData@@@std@@@std@@@std@@U_Iterator_base0@2@@std@@QAEAAV01@XZ ; std::_Tree_unchecked_const_iterator<std::_Tree_val<std::_Tree_simple_types<std::pair<unsigned long const ,SNetworkActorData> > >,std::_Iterator_base0>::operator++

; 505  : 
; 506  :         _Nodeptr _Fixnode; // the node to recolor as needed
; 507  :         _Nodeptr _Fixnodeparent; // parent of _Fixnode (which may be nil)
; 508  :         _Nodeptr _Pnode = _Erasednode;
; 509  : 
; 510  :         if (_Pnode->_Left->_Isnil) {

  00019	8b 55 fc	 mov	 edx, DWORD PTR __Erasednode$1$[ebp]
  0001c	8b 02		 mov	 eax, DWORD PTR [edx]
  0001e	8b 7a 08	 mov	 edi, DWORD PTR [edx+8]
  00021	80 78 0d 00	 cmp	 BYTE PTR [eax+13], 0
  00025	75 18		 jne	 SHORT $LN86@Extract

; 511  :             _Fixnode = _Pnode->_Right; // stitch up right subtree
; 512  :         } else if (_Pnode->_Right->_Isnil) {

  00027	80 7f 0d 00	 cmp	 BYTE PTR [edi+13], 0
  0002b	74 04		 je	 SHORT $LN7@Extract

; 513  :             _Fixnode = _Pnode->_Left; // stitch up left subtree

  0002d	8b f8		 mov	 edi, eax

; 514  :         } else { // two subtrees, must lift successor node to replace erased

  0002f	eb 0e		 jmp	 SHORT $LN86@Extract
$LN7@Extract:

; 515  :             _Pnode   = _Where._Ptr; // _Pnode is successor node

  00031	8b 4d 08	 mov	 ecx, DWORD PTR __Where$[ebp]

; 516  :             _Fixnode = _Pnode->_Right; // _Fixnode is only subtree

  00034	8b 79 08	 mov	 edi, DWORD PTR [ecx+8]
  00037	3b ca		 cmp	 ecx, edx

; 517  :         }
; 518  : 
; 519  :         if (_Pnode == _Erasednode) { // at most one subtree, relink it

  00039	0f 85 8b 00 00
	00		 jne	 $LN9@Extract
$LN86@Extract:

; 520  :             _Fixnodeparent = _Erasednode->_Parent;
; 521  :             if (!_Fixnode->_Isnil) {

  0003f	80 7f 0d 00	 cmp	 BYTE PTR [edi+13], 0
  00043	8b 72 04	 mov	 esi, DWORD PTR [edx+4]
  00046	75 03		 jne	 SHORT $LN11@Extract

; 522  :                 _Fixnode->_Parent = _Fixnodeparent; // link up

  00048	89 77 04	 mov	 DWORD PTR [edi+4], esi
$LN11@Extract:

; 523  :             }
; 524  : 
; 525  :             if (_Myhead->_Parent == _Erasednode) {

  0004b	8b 03		 mov	 eax, DWORD PTR [ebx]
  0004d	39 50 04	 cmp	 DWORD PTR [eax+4], edx
  00050	75 05		 jne	 SHORT $LN12@Extract

; 526  :                 _Myhead->_Parent = _Fixnode; // link down from root

  00052	89 78 04	 mov	 DWORD PTR [eax+4], edi
  00055	eb 0b		 jmp	 SHORT $LN15@Extract
$LN12@Extract:

; 527  :             } else if (_Fixnodeparent->_Left == _Erasednode) {

  00057	39 16		 cmp	 DWORD PTR [esi], edx
  00059	75 04		 jne	 SHORT $LN14@Extract

; 528  :                 _Fixnodeparent->_Left = _Fixnode; // link down to left

  0005b	89 3e		 mov	 DWORD PTR [esi], edi

; 529  :             } else {

  0005d	eb 03		 jmp	 SHORT $LN15@Extract
$LN14@Extract:

; 530  :                 _Fixnodeparent->_Right = _Fixnode; // link down to right

  0005f	89 7e 08	 mov	 DWORD PTR [esi+8], edi
$LN15@Extract:

; 531  :             }
; 532  : 
; 533  :             if (_Myhead->_Left == _Erasednode) {

  00062	8b 03		 mov	 eax, DWORD PTR [ebx]
  00064	39 10		 cmp	 DWORD PTR [eax], edx
  00066	75 2b		 jne	 SHORT $LN16@Extract

; 534  :                 _Myhead->_Left = _Fixnode->_Isnil ? _Fixnodeparent // smallest is parent of erased node

  00068	80 7f 0d 00	 cmp	 BYTE PTR [edi+13], 0
  0006c	74 04		 je	 SHORT $LN42@Extract
  0006e	8b d6		 mov	 edx, esi
  00070	eb 1c		 jmp	 SHORT $LN48@Extract
$LN42@Extract:

; 451  :         while (!_Pnode->_Left->_Isnil) {

  00072	8b 0f		 mov	 ecx, DWORD PTR [edi]

; 534  :                 _Myhead->_Left = _Fixnode->_Isnil ? _Fixnodeparent // smallest is parent of erased node

  00074	8b d7		 mov	 edx, edi

; 451  :         while (!_Pnode->_Left->_Isnil) {

  00076	80 79 0d 00	 cmp	 BYTE PTR [ecx+13], 0
  0007a	75 12		 jne	 SHORT $LN48@Extract
  0007c	0f 1f 40 00	 npad	 4
$LL47@Extract:
  00080	8b 01		 mov	 eax, DWORD PTR [ecx]

; 452  :             _Pnode = _Pnode->_Left;

  00082	8b d1		 mov	 edx, ecx
  00084	8b c8		 mov	 ecx, eax
  00086	80 78 0d 00	 cmp	 BYTE PTR [eax+13], 0
  0008a	74 f4		 je	 SHORT $LL47@Extract
  0008c	8b 03		 mov	 eax, DWORD PTR [ebx]
$LN48@Extract:

; 534  :                 _Myhead->_Left = _Fixnode->_Isnil ? _Fixnodeparent // smallest is parent of erased node

  0008e	89 10		 mov	 DWORD PTR [eax], edx
  00090	8b 55 fc	 mov	 edx, DWORD PTR __Erasednode$1$[ebp]
$LN16@Extract:

; 535  :                                                   : _Min(_Fixnode); // smallest in relinked subtree
; 536  :             }
; 537  : 
; 538  :             if (_Myhead->_Right == _Erasednode) {

  00093	8b 03		 mov	 eax, DWORD PTR [ebx]
  00095	39 50 08	 cmp	 DWORD PTR [eax+8], edx
  00098	75 2b		 jne	 SHORT $LN17@Extract

; 539  :                 _Myhead->_Right = _Fixnode->_Isnil ? _Fixnodeparent // largest is parent of erased node

  0009a	80 7f 0d 00	 cmp	 BYTE PTR [edi+13], 0
  0009e	74 0a		 je	 SHORT $LN44@Extract
  000a0	8b ce		 mov	 ecx, esi
  000a2	89 48 08	 mov	 DWORD PTR [eax+8], ecx

; 540  :                                                    : _Max(_Fixnode); // largest in relinked subtree
; 541  :             }
; 542  :         } else { // erased has two subtrees, _Pnode is successor to erased

  000a5	8a 52 0c	 mov	 dl, BYTE PTR [edx+12]
  000a8	eb 7c		 jmp	 SHORT $LN55@Extract
$LN44@Extract:

; 443  :         while (!_Pnode->_Right->_Isnil) {

  000aa	8b 47 08	 mov	 eax, DWORD PTR [edi+8]

; 539  :                 _Myhead->_Right = _Fixnode->_Isnil ? _Fixnodeparent // largest is parent of erased node

  000ad	8b cf		 mov	 ecx, edi

; 443  :         while (!_Pnode->_Right->_Isnil) {

  000af	80 78 0d 00	 cmp	 BYTE PTR [eax+13], 0
  000b3	75 0b		 jne	 SHORT $LN52@Extract
$LL51@Extract:

; 444  :             _Pnode = _Pnode->_Right;

  000b5	8b c8		 mov	 ecx, eax
  000b7	8b 41 08	 mov	 eax, DWORD PTR [ecx+8]
  000ba	80 78 0d 00	 cmp	 BYTE PTR [eax+13], 0
  000be	74 f5		 je	 SHORT $LL51@Extract
$LN52@Extract:
  000c0	8b 03		 mov	 eax, DWORD PTR [ebx]

; 539  :                 _Myhead->_Right = _Fixnode->_Isnil ? _Fixnodeparent // largest is parent of erased node

  000c2	89 48 08	 mov	 DWORD PTR [eax+8], ecx
$LN17@Extract:

; 540  :                                                    : _Max(_Fixnode); // largest in relinked subtree
; 541  :             }
; 542  :         } else { // erased has two subtrees, _Pnode is successor to erased

  000c5	8a 52 0c	 mov	 dl, BYTE PTR [edx+12]
  000c8	eb 5c		 jmp	 SHORT $LN55@Extract
$LN9@Extract:

; 543  :             _Erasednode->_Left->_Parent = _Pnode; // link left up

  000ca	89 48 04	 mov	 DWORD PTR [eax+4], ecx

; 544  :             _Pnode->_Left               = _Erasednode->_Left; // link successor down

  000cd	8b 02		 mov	 eax, DWORD PTR [edx]
  000cf	89 01		 mov	 DWORD PTR [ecx], eax

; 545  : 
; 546  :             if (_Pnode == _Erasednode->_Right) {

  000d1	3b 4a 08	 cmp	 ecx, DWORD PTR [edx+8]
  000d4	75 04		 jne	 SHORT $LN18@Extract

; 547  :                 _Fixnodeparent = _Pnode; // successor is next to erased

  000d6	8b f1		 mov	 esi, ecx

; 548  :             } else { // successor further down, link in place of erased

  000d8	eb 1a		 jmp	 SHORT $LN19@Extract
$LN18@Extract:

; 549  :                 _Fixnodeparent = _Pnode->_Parent; // parent is successor's
; 550  :                 if (!_Fixnode->_Isnil) {

  000da	80 7f 0d 00	 cmp	 BYTE PTR [edi+13], 0
  000de	8b 71 04	 mov	 esi, DWORD PTR [ecx+4]
  000e1	75 03		 jne	 SHORT $LN20@Extract

; 551  :                     _Fixnode->_Parent = _Fixnodeparent; // link fix up

  000e3	89 77 04	 mov	 DWORD PTR [edi+4], esi
$LN20@Extract:

; 552  :                 }
; 553  : 
; 554  :                 _Fixnodeparent->_Left        = _Fixnode; // link fix down

  000e6	89 3e		 mov	 DWORD PTR [esi], edi

; 555  :                 _Pnode->_Right               = _Erasednode->_Right; // link next down

  000e8	8b 42 08	 mov	 eax, DWORD PTR [edx+8]
  000eb	89 41 08	 mov	 DWORD PTR [ecx+8], eax

; 556  :                 _Erasednode->_Right->_Parent = _Pnode; // right up

  000ee	8b 42 08	 mov	 eax, DWORD PTR [edx+8]
  000f1	89 48 04	 mov	 DWORD PTR [eax+4], ecx
$LN19@Extract:

; 557  :             }
; 558  : 
; 559  :             if (_Myhead->_Parent == _Erasednode) {

  000f4	8b 03		 mov	 eax, DWORD PTR [ebx]
  000f6	39 50 04	 cmp	 DWORD PTR [eax+4], edx
  000f9	75 05		 jne	 SHORT $LN21@Extract

; 560  :                 _Myhead->_Parent = _Pnode; // link down from root

  000fb	89 48 04	 mov	 DWORD PTR [eax+4], ecx
  000fe	eb 0e		 jmp	 SHORT $LN24@Extract
$LN21@Extract:

; 561  :             } else if (_Erasednode->_Parent->_Left == _Erasednode) {

  00100	8b 42 04	 mov	 eax, DWORD PTR [edx+4]
  00103	39 10		 cmp	 DWORD PTR [eax], edx
  00105	75 04		 jne	 SHORT $LN23@Extract

; 562  :                 _Erasednode->_Parent->_Left = _Pnode; // link down to left

  00107	89 08		 mov	 DWORD PTR [eax], ecx

; 563  :             } else {

  00109	eb 03		 jmp	 SHORT $LN24@Extract
$LN23@Extract:

; 564  :                 _Erasednode->_Parent->_Right = _Pnode; // link down to right

  0010b	89 48 08	 mov	 DWORD PTR [eax+8], ecx
$LN24@Extract:

; 567  :             _Pnode->_Parent = _Erasednode->_Parent; // link successor up

  0010e	8b 42 04	 mov	 eax, DWORD PTR [edx+4]
; File C:\Program Files (x86)\Microsoft Visual Studio\2019\Community\VC\Tools\MSVC\14.28.29333\include\utility

; 104  :     _Ty _Tmp = _STD move(_Left);

  00111	8a 51 0c	 mov	 dl, BYTE PTR [ecx+12]
; File C:\Program Files (x86)\Microsoft Visual Studio\2019\Community\VC\Tools\MSVC\14.28.29333\include\xtree

; 567  :             _Pnode->_Parent = _Erasednode->_Parent; // link successor up

  00114	89 41 04	 mov	 DWORD PTR [ecx+4], eax
; File C:\Program Files (x86)\Microsoft Visual Studio\2019\Community\VC\Tools\MSVC\14.28.29333\include\utility

; 105  :     _Left    = _STD move(_Right);

  00117	8b 45 fc	 mov	 eax, DWORD PTR __Erasednode$1$[ebp]
  0011a	8a 40 0c	 mov	 al, BYTE PTR [eax+12]
  0011d	88 41 0c	 mov	 BYTE PTR [ecx+12], al

; 106  :     _Right   = _STD move(_Tmp);

  00120	8b 45 fc	 mov	 eax, DWORD PTR __Erasednode$1$[ebp]
  00123	88 50 0c	 mov	 BYTE PTR [eax+12], dl
$LN55@Extract:
; File C:\Program Files (x86)\Microsoft Visual Studio\2019\Community\VC\Tools\MSVC\14.28.29333\include\xtree

; 571  :         if (_Erasednode->_Color == _Black) { // erasing black link, must recolor/rebalance tree

  00126	80 fa 01	 cmp	 dl, 1
  00129	0f 85 46 01 00
	00		 jne	 $LN25@Extract

; 572  :             for (; _Fixnode != _Myhead->_Parent && _Fixnode->_Color == _Black; _Fixnodeparent = _Fixnode->_Parent) {

  0012f	8b 03		 mov	 eax, DWORD PTR [ebx]
  00131	3b 78 04	 cmp	 edi, DWORD PTR [eax+4]
  00134	0f 84 37 01 00
	00		 je	 $LN3@Extract
  0013a	66 0f 1f 44 00
	00		 npad	 6
$LL4@Extract:
  00140	80 7f 0c 01	 cmp	 BYTE PTR [edi+12], 1
  00144	89 75 f8	 mov	 DWORD PTR tv1186[ebp], esi
  00147	0f 85 24 01 00
	00		 jne	 $LN3@Extract

; 573  :                 if (_Fixnode == _Fixnodeparent->_Left) { // fixup left subtree

  0014d	8b 0e		 mov	 ecx, DWORD PTR [esi]
  0014f	3b f9		 cmp	 edi, ecx
  00151	0f 85 a2 00 00
	00		 jne	 $LN26@Extract

; 574  :                     _Pnode = _Fixnodeparent->_Right;

  00157	8b 4e 08	 mov	 ecx, DWORD PTR [esi+8]

; 575  :                     if (_Pnode->_Color == _Red) { // rotate red up from right subtree

  0015a	80 79 0c 00	 cmp	 BYTE PTR [ecx+12], 0
  0015e	75 43		 jne	 SHORT $LN87@Extract

; 576  :                         _Pnode->_Color         = _Black;

  00160	c6 41 0c 01	 mov	 BYTE PTR [ecx+12], 1

; 459  :         _Nodeptr _Pnode    = _Wherenode->_Right;

  00164	8b 4e 08	 mov	 ecx, DWORD PTR [esi+8]

; 577  :                         _Fixnodeparent->_Color = _Red;

  00167	c6 46 0c 00	 mov	 BYTE PTR [esi+12], 0

; 460  :         _Wherenode->_Right = _Pnode->_Left;

  0016b	8b 01		 mov	 eax, DWORD PTR [ecx]
  0016d	89 46 08	 mov	 DWORD PTR [esi+8], eax

; 461  : 
; 462  :         if (!_Pnode->_Left->_Isnil) {

  00170	8b 01		 mov	 eax, DWORD PTR [ecx]
  00172	80 78 0d 00	 cmp	 BYTE PTR [eax+13], 0
  00176	75 03		 jne	 SHORT $LN57@Extract

; 463  :             _Pnode->_Left->_Parent = _Wherenode;

  00178	89 70 04	 mov	 DWORD PTR [eax+4], esi
$LN57@Extract:

; 464  :         }
; 465  : 
; 466  :         _Pnode->_Parent = _Wherenode->_Parent;

  0017b	8b 46 04	 mov	 eax, DWORD PTR [esi+4]
  0017e	89 41 04	 mov	 DWORD PTR [ecx+4], eax

; 467  : 
; 468  :         if (_Wherenode == _Myhead->_Parent) {

  00181	8b 03		 mov	 eax, DWORD PTR [ebx]
  00183	3b 70 04	 cmp	 esi, DWORD PTR [eax+4]
  00186	75 05		 jne	 SHORT $LN58@Extract

; 469  :             _Myhead->_Parent = _Pnode;

  00188	89 48 04	 mov	 DWORD PTR [eax+4], ecx
  0018b	eb 0e		 jmp	 SHORT $LN61@Extract
$LN58@Extract:

; 470  :         } else if (_Wherenode == _Wherenode->_Parent->_Left) {

  0018d	8b 46 04	 mov	 eax, DWORD PTR [esi+4]
  00190	3b 30		 cmp	 esi, DWORD PTR [eax]
  00192	75 04		 jne	 SHORT $LN60@Extract

; 471  :             _Wherenode->_Parent->_Left = _Pnode;

  00194	89 08		 mov	 DWORD PTR [eax], ecx

; 472  :         } else {

  00196	eb 03		 jmp	 SHORT $LN61@Extract
$LN60@Extract:

; 473  :             _Wherenode->_Parent->_Right = _Pnode;

  00198	89 48 08	 mov	 DWORD PTR [eax+8], ecx
$LN61@Extract:

; 474  :         }
; 475  : 
; 476  :         _Pnode->_Left       = _Wherenode;

  0019b	89 31		 mov	 DWORD PTR [ecx], esi

; 477  :         _Wherenode->_Parent = _Pnode;

  0019d	89 4e 04	 mov	 DWORD PTR [esi+4], ecx

; 578  :                         _Lrotate(_Fixnodeparent);
; 579  :                         _Pnode = _Fixnodeparent->_Right;

  001a0	8b 4e 08	 mov	 ecx, DWORD PTR [esi+8]
$LN87@Extract:

; 580  :                     }
; 581  : 
; 582  :                     if (_Pnode->_Isnil) {

  001a3	80 79 0d 00	 cmp	 BYTE PTR [ecx+13], 0
  001a7	0f 85 b1 00 00
	00		 jne	 $LN2@Extract

; 583  :                         _Fixnode = _Fixnodeparent; // shouldn't happen
; 584  :                     } else if (_Pnode->_Left->_Color == _Black
; 585  :                                && _Pnode->_Right->_Color == _Black) { // redden right subtree with black children

  001ad	8b 11		 mov	 edx, DWORD PTR [ecx]
  001af	80 7a 0c 01	 cmp	 BYTE PTR [edx+12], 1
  001b3	75 0d		 jne	 SHORT $LN89@Extract
  001b5	8b 41 08	 mov	 eax, DWORD PTR [ecx+8]
  001b8	80 78 0c 01	 cmp	 BYTE PTR [eax+12], 1
  001bc	0f 84 98 00 00
	00		 je	 $LN93@Extract
$LN89@Extract:

; 586  :                         _Pnode->_Color = _Red;
; 587  :                         _Fixnode       = _Fixnodeparent;
; 588  :                     } else { // must rearrange right subtree
; 589  :                         if (_Pnode->_Right->_Color == _Black) { // rotate red up from left sub-subtree

  001c2	8b 41 08	 mov	 eax, DWORD PTR [ecx+8]
  001c5	80 78 0c 01	 cmp	 BYTE PTR [eax+12], 1
  001c9	75 13		 jne	 SHORT $LN33@Extract

; 590  :                             _Pnode->_Left->_Color = _Black;

  001cb	c6 42 0c 01	 mov	 BYTE PTR [edx+12], 1

; 591  :                             _Pnode->_Color        = _Red;

  001cf	c6 41 0c 00	 mov	 BYTE PTR [ecx+12], 0

; 592  :                             _Rrotate(_Pnode);

  001d3	51		 push	 ecx
  001d4	8b cb		 mov	 ecx, ebx
  001d6	e8 00 00 00 00	 call	 ?_Rrotate@?$_Tree_val@U?$_Tree_simple_types@U?$pair@$$CBKUSNetworkActorData@@@std@@@std@@@std@@QAEXPAU?$_Tree_node@U?$pair@$$CBKUSNetworkActorData@@@std@@PAX@2@@Z ; std::_Tree_val<std::_Tree_simple_types<std::pair<unsigned long const ,SNetworkActorData> > >::_Rrotate

; 593  :                             _Pnode = _Fixnodeparent->_Right;

  001db	8b 4e 08	 mov	 ecx, DWORD PTR [esi+8]
$LN33@Extract:

; 594  :                         }
; 595  : 
; 596  :                         _Pnode->_Color         = _Fixnodeparent->_Color;

  001de	8a 46 0c	 mov	 al, BYTE PTR [esi+12]
  001e1	88 41 0c	 mov	 BYTE PTR [ecx+12], al

; 597  :                         _Fixnodeparent->_Color = _Black;

  001e4	c6 46 0c 01	 mov	 BYTE PTR [esi+12], 1

; 598  :                         _Pnode->_Right->_Color = _Black;

  001e8	8b 41 08	 mov	 eax, DWORD PTR [ecx+8]

; 599  :                         _Lrotate(_Fixnodeparent);

  001eb	8b cb		 mov	 ecx, ebx
  001ed	56		 push	 esi
  001ee	c6 40 0c 01	 mov	 BYTE PTR [eax+12], 1
  001f2	e8 00 00 00 00	 call	 ?_Lrotate@?$_Tree_val@U?$_Tree_simple_types@U?$pair@$$CBKUSNetworkActorData@@@std@@@std@@@std@@QAEXPAU?$_Tree_node@U?$pair@$$CBKUSNetworkActorData@@@std@@PAX@2@@Z ; std::_Tree_val<std::_Tree_simple_types<std::pair<unsigned long const ,SNetworkActorData> > >::_Lrotate

; 600  :                         break; // tree now recolored/rebalanced

  001f7	eb 78		 jmp	 SHORT $LN3@Extract
$LN26@Extract:

; 601  :                     }
; 602  :                 } else { // fixup right subtree
; 603  :                     _Pnode = _Fixnodeparent->_Left;
; 604  :                     if (_Pnode->_Color == _Red) { // rotate red up from left subtree

  001f9	80 79 0c 00	 cmp	 BYTE PTR [ecx+12], 0
  001fd	75 44		 jne	 SHORT $LN88@Extract

; 605  :                         _Pnode->_Color         = _Black;

  001ff	c6 41 0c 01	 mov	 BYTE PTR [ecx+12], 1

; 481  :         _Nodeptr _Pnode   = _Wherenode->_Left;

  00203	8b 0e		 mov	 ecx, DWORD PTR [esi]

; 606  :                         _Fixnodeparent->_Color = _Red;

  00205	c6 46 0c 00	 mov	 BYTE PTR [esi+12], 0

; 482  :         _Wherenode->_Left = _Pnode->_Right;

  00209	8b 41 08	 mov	 eax, DWORD PTR [ecx+8]
  0020c	89 06		 mov	 DWORD PTR [esi], eax

; 483  : 
; 484  :         if (!_Pnode->_Right->_Isnil) {

  0020e	8b 41 08	 mov	 eax, DWORD PTR [ecx+8]
  00211	80 78 0d 00	 cmp	 BYTE PTR [eax+13], 0
  00215	75 03		 jne	 SHORT $LN64@Extract

; 485  :             _Pnode->_Right->_Parent = _Wherenode;

  00217	89 70 04	 mov	 DWORD PTR [eax+4], esi
$LN64@Extract:

; 486  :         }
; 487  : 
; 488  :         _Pnode->_Parent = _Wherenode->_Parent;

  0021a	8b 46 04	 mov	 eax, DWORD PTR [esi+4]
  0021d	89 41 04	 mov	 DWORD PTR [ecx+4], eax

; 489  : 
; 490  :         if (_Wherenode == _Myhead->_Parent) {

  00220	8b 03		 mov	 eax, DWORD PTR [ebx]
  00222	3b 70 04	 cmp	 esi, DWORD PTR [eax+4]
  00225	75 05		 jne	 SHORT $LN65@Extract

; 491  :             _Myhead->_Parent = _Pnode;

  00227	89 48 04	 mov	 DWORD PTR [eax+4], ecx
  0022a	eb 0f		 jmp	 SHORT $LN68@Extract
$LN65@Extract:

; 492  :         } else if (_Wherenode == _Wherenode->_Parent->_Right) {

  0022c	8b 46 04	 mov	 eax, DWORD PTR [esi+4]
  0022f	3b 70 08	 cmp	 esi, DWORD PTR [eax+8]
  00232	75 05		 jne	 SHORT $LN67@Extract

; 493  :             _Wherenode->_Parent->_Right = _Pnode;

  00234	89 48 08	 mov	 DWORD PTR [eax+8], ecx

; 494  :         } else {

  00237	eb 02		 jmp	 SHORT $LN68@Extract
$LN67@Extract:

; 495  :             _Wherenode->_Parent->_Left = _Pnode;

  00239	89 08		 mov	 DWORD PTR [eax], ecx
$LN68@Extract:

; 496  :         }
; 497  : 
; 498  :         _Pnode->_Right      = _Wherenode;

  0023b	89 71 08	 mov	 DWORD PTR [ecx+8], esi

; 499  :         _Wherenode->_Parent = _Pnode;

  0023e	89 4e 04	 mov	 DWORD PTR [esi+4], ecx

; 607  :                         _Rrotate(_Fixnodeparent);
; 608  :                         _Pnode = _Fixnodeparent->_Left;

  00241	8b 0e		 mov	 ecx, DWORD PTR [esi]
$LN88@Extract:

; 609  :                     }
; 610  : 
; 611  :                     if (_Pnode->_Isnil) {

  00243	80 79 0d 00	 cmp	 BYTE PTR [ecx+13], 0
  00247	75 15		 jne	 SHORT $LN2@Extract

; 612  :                         _Fixnode = _Fixnodeparent; // shouldn't happen
; 613  :                     } else if (_Pnode->_Right->_Color == _Black
; 614  :                                && _Pnode->_Left->_Color == _Black) { // redden left subtree with black children

  00249	8b 51 08	 mov	 edx, DWORD PTR [ecx+8]
  0024c	80 7a 0c 01	 cmp	 BYTE PTR [edx+12], 1
  00250	75 3a		 jne	 SHORT $LN90@Extract
  00252	8b 01		 mov	 eax, DWORD PTR [ecx]
  00254	80 78 0c 01	 cmp	 BYTE PTR [eax+12], 1
  00258	75 32		 jne	 SHORT $LN90@Extract
$LN93@Extract:

; 572  :             for (; _Fixnode != _Myhead->_Parent && _Fixnode->_Color == _Black; _Fixnodeparent = _Fixnode->_Parent) {

  0025a	c6 41 0c 00	 mov	 BYTE PTR [ecx+12], 0
$LN2@Extract:
  0025e	8b 03		 mov	 eax, DWORD PTR [ebx]
  00260	8b 4d f8	 mov	 ecx, DWORD PTR tv1186[ebp]
  00263	8b f9		 mov	 edi, ecx
  00265	8b 76 04	 mov	 esi, DWORD PTR [esi+4]
  00268	3b 48 04	 cmp	 ecx, DWORD PTR [eax+4]
  0026b	0f 85 cf fe ff
	ff		 jne	 $LL4@Extract
$LN3@Extract:

; 629  :                         break; // tree now recolored/rebalanced
; 630  :                     }
; 631  :                 }
; 632  :             }
; 633  : 
; 634  :             _Fixnode->_Color = _Black; // stopping node is black

  00271	c6 47 0c 01	 mov	 BYTE PTR [edi+12], 1
$LN25@Extract:

; 635  :         }
; 636  : 
; 637  :         if (0 < _Mysize) {

  00275	8b 4b 04	 mov	 ecx, DWORD PTR [ebx+4]
  00278	8b 45 fc	 mov	 eax, DWORD PTR __Erasednode$1$[ebp]
  0027b	85 c9		 test	 ecx, ecx
  0027d	74 04		 je	 SHORT $LN40@Extract

; 638  :             --_Mysize;

  0027f	49		 dec	 ecx
  00280	89 4b 04	 mov	 DWORD PTR [ebx+4], ecx
$LN40@Extract:

; 639  :         }
; 640  : 
; 641  :         return _Erasednode;
; 642  :     }

  00283	5f		 pop	 edi
  00284	5e		 pop	 esi
  00285	5b		 pop	 ebx
  00286	8b e5		 mov	 esp, ebp
  00288	5d		 pop	 ebp
  00289	c2 04 00	 ret	 4
$LN90@Extract:

; 615  :                         _Pnode->_Color = _Red;
; 616  :                         _Fixnode       = _Fixnodeparent;
; 617  :                     } else { // must rearrange left subtree
; 618  :                         if (_Pnode->_Left->_Color == _Black) { // rotate red up from right sub-subtree

  0028c	8b 01		 mov	 eax, DWORD PTR [ecx]
  0028e	80 78 0c 01	 cmp	 BYTE PTR [eax+12], 1
  00292	75 12		 jne	 SHORT $LN39@Extract

; 619  :                             _Pnode->_Right->_Color = _Black;

  00294	c6 42 0c 01	 mov	 BYTE PTR [edx+12], 1

; 620  :                             _Pnode->_Color         = _Red;

  00298	c6 41 0c 00	 mov	 BYTE PTR [ecx+12], 0

; 621  :                             _Lrotate(_Pnode);

  0029c	51		 push	 ecx
  0029d	8b cb		 mov	 ecx, ebx
  0029f	e8 00 00 00 00	 call	 ?_Lrotate@?$_Tree_val@U?$_Tree_simple_types@U?$pair@$$CBKUSNetworkActorData@@@std@@@std@@@std@@QAEXPAU?$_Tree_node@U?$pair@$$CBKUSNetworkActorData@@@std@@PAX@2@@Z ; std::_Tree_val<std::_Tree_simple_types<std::pair<unsigned long const ,SNetworkActorData> > >::_Lrotate

; 622  :                             _Pnode = _Fixnodeparent->_Left;

  002a4	8b 0e		 mov	 ecx, DWORD PTR [esi]
$LN39@Extract:

; 623  :                         }
; 624  : 
; 625  :                         _Pnode->_Color         = _Fixnodeparent->_Color;

  002a6	8a 46 0c	 mov	 al, BYTE PTR [esi+12]
  002a9	88 41 0c	 mov	 BYTE PTR [ecx+12], al

; 626  :                         _Fixnodeparent->_Color = _Black;

  002ac	c6 46 0c 01	 mov	 BYTE PTR [esi+12], 1

; 627  :                         _Pnode->_Left->_Color  = _Black;

  002b0	8b 01		 mov	 eax, DWORD PTR [ecx]

; 628  :                         _Rrotate(_Fixnodeparent);

  002b2	8b cb		 mov	 ecx, ebx
  002b4	56		 push	 esi
  002b5	c6 40 0c 01	 mov	 BYTE PTR [eax+12], 1
  002b9	e8 00 00 00 00	 call	 ?_Rrotate@?$_Tree_val@U?$_Tree_simple_types@U?$pair@$$CBKUSNetworkActorData@@@std@@@std@@@std@@QAEXPAU?$_Tree_node@U?$pair@$$CBKUSNetworkActorData@@@std@@PAX@2@@Z ; std::_Tree_val<std::_Tree_simple_types<std::pair<unsigned long const ,SNetworkActorData> > >::_Rrotate
  002be	eb b1		 jmp	 SHORT $LN3@Extract
?_Extract@?$_Tree_val@U?$_Tree_simple_types@U?$pair@$$CBKUSNetworkActorData@@@std@@@std@@@std@@QAEPAU?$_Tree_node@U?$pair@$$CBKUSNetworkActorData@@@std@@PAX@2@V?$_Tree_unchecked_const_iterator@V?$_Tree_val@U?$_Tree_simple_types@U?$pair@$$CBKUSNetworkActorData@@@std@@@std@@@std@@U_Iterator_base0@2@@2@@Z ENDP ; std::_Tree_val<std::_Tree_simple_types<std::pair<unsigned long const ,SNetworkActorData> > >::_Extract
_TEXT	ENDS
; Function compile flags: /Ogtp
; File C:\Program Files (x86)\Microsoft Visual Studio\2019\Community\VC\Tools\MSVC\14.28.29333\include\xtree
;	COMDAT ?_Rrotate@?$_Tree_val@U?$_Tree_simple_types@U?$pair@$$CBKUSNetworkActorData@@@std@@@std@@@std@@QAEXPAU?$_Tree_node@U?$pair@$$CBKUSNetworkActorData@@@std@@PAX@2@@Z
_TEXT	SEGMENT
__Wherenode$ = 8					; size = 4
?_Rrotate@?$_Tree_val@U?$_Tree_simple_types@U?$pair@$$CBKUSNetworkActorData@@@std@@@std@@@std@@QAEXPAU?$_Tree_node@U?$pair@$$CBKUSNetworkActorData@@@std@@PAX@2@@Z PROC ; std::_Tree_val<std::_Tree_simple_types<std::pair<unsigned long const ,SNetworkActorData> > >::_Rrotate, COMDAT
; _this$ = ecx

; 480  :     void _Rrotate(_Nodeptr _Wherenode) noexcept { // promote left node to root of subtree

  00000	55		 push	 ebp
  00001	8b ec		 mov	 ebp, esp

; 481  :         _Nodeptr _Pnode   = _Wherenode->_Left;

  00003	8b 55 08	 mov	 edx, DWORD PTR __Wherenode$[ebp]
  00006	56		 push	 esi
  00007	8b 32		 mov	 esi, DWORD PTR [edx]

; 482  :         _Wherenode->_Left = _Pnode->_Right;

  00009	8b 46 08	 mov	 eax, DWORD PTR [esi+8]
  0000c	89 02		 mov	 DWORD PTR [edx], eax

; 483  : 
; 484  :         if (!_Pnode->_Right->_Isnil) {

  0000e	8b 46 08	 mov	 eax, DWORD PTR [esi+8]
  00011	80 78 0d 00	 cmp	 BYTE PTR [eax+13], 0
  00015	75 03		 jne	 SHORT $LN2@Rrotate

; 485  :             _Pnode->_Right->_Parent = _Wherenode;

  00017	89 50 04	 mov	 DWORD PTR [eax+4], edx
$LN2@Rrotate:

; 486  :         }
; 487  : 
; 488  :         _Pnode->_Parent = _Wherenode->_Parent;

  0001a	8b 42 04	 mov	 eax, DWORD PTR [edx+4]
  0001d	89 46 04	 mov	 DWORD PTR [esi+4], eax

; 489  : 
; 490  :         if (_Wherenode == _Myhead->_Parent) {

  00020	8b 01		 mov	 eax, DWORD PTR [ecx]
  00022	3b 50 04	 cmp	 edx, DWORD PTR [eax+4]
  00025	75 0e		 jne	 SHORT $LN3@Rrotate

; 491  :             _Myhead->_Parent = _Pnode;

  00027	89 70 04	 mov	 DWORD PTR [eax+4], esi

; 496  :         }
; 497  : 
; 498  :         _Pnode->_Right      = _Wherenode;
; 499  :         _Wherenode->_Parent = _Pnode;
; 500  :     }

  0002a	89 56 08	 mov	 DWORD PTR [esi+8], edx
  0002d	89 72 04	 mov	 DWORD PTR [edx+4], esi
  00030	5e		 pop	 esi
  00031	5d		 pop	 ebp
  00032	c2 04 00	 ret	 4
$LN3@Rrotate:

; 492  :         } else if (_Wherenode == _Wherenode->_Parent->_Right) {

  00035	8b 42 04	 mov	 eax, DWORD PTR [edx+4]
  00038	3b 50 08	 cmp	 edx, DWORD PTR [eax+8]
  0003b	75 0e		 jne	 SHORT $LN5@Rrotate

; 493  :             _Wherenode->_Parent->_Right = _Pnode;

  0003d	89 70 08	 mov	 DWORD PTR [eax+8], esi

; 496  :         }
; 497  : 
; 498  :         _Pnode->_Right      = _Wherenode;
; 499  :         _Wherenode->_Parent = _Pnode;
; 500  :     }

  00040	89 56 08	 mov	 DWORD PTR [esi+8], edx
  00043	89 72 04	 mov	 DWORD PTR [edx+4], esi
  00046	5e		 pop	 esi
  00047	5d		 pop	 ebp
  00048	c2 04 00	 ret	 4
$LN5@Rrotate:

; 494  :         } else {
; 495  :             _Wherenode->_Parent->_Left = _Pnode;

  0004b	89 30		 mov	 DWORD PTR [eax], esi

; 496  :         }
; 497  : 
; 498  :         _Pnode->_Right      = _Wherenode;
; 499  :         _Wherenode->_Parent = _Pnode;
; 500  :     }

  0004d	89 56 08	 mov	 DWORD PTR [esi+8], edx
  00050	89 72 04	 mov	 DWORD PTR [edx+4], esi
  00053	5e		 pop	 esi
  00054	5d		 pop	 ebp
  00055	c2 04 00	 ret	 4
?_Rrotate@?$_Tree_val@U?$_Tree_simple_types@U?$pair@$$CBKUSNetworkActorData@@@std@@@std@@@std@@QAEXPAU?$_Tree_node@U?$pair@$$CBKUSNetworkActorData@@@std@@PAX@2@@Z ENDP ; std::_Tree_val<std::_Tree_simple_types<std::pair<unsigned long const ,SNetworkActorData> > >::_Rrotate
_TEXT	ENDS
; Function compile flags: /Ogtp
; File C:\Program Files (x86)\Microsoft Visual Studio\2019\Community\VC\Tools\MSVC\14.28.29333\include\xtree
;	COMDAT ?_Lrotate@?$_Tree_val@U?$_Tree_simple_types@U?$pair@$$CBKUSNetworkActorData@@@std@@@std@@@std@@QAEXPAU?$_Tree_node@U?$pair@$$CBKUSNetworkActorData@@@std@@PAX@2@@Z
_TEXT	SEGMENT
__Wherenode$ = 8					; size = 4
?_Lrotate@?$_Tree_val@U?$_Tree_simple_types@U?$pair@$$CBKUSNetworkActorData@@@std@@@std@@@std@@QAEXPAU?$_Tree_node@U?$pair@$$CBKUSNetworkActorData@@@std@@PAX@2@@Z PROC ; std::_Tree_val<std::_Tree_simple_types<std::pair<unsigned long const ,SNetworkActorData> > >::_Lrotate, COMDAT
; _this$ = ecx

; 458  :     void _Lrotate(_Nodeptr _Wherenode) noexcept { // promote right node to root of subtree

  00000	55		 push	 ebp
  00001	8b ec		 mov	 ebp, esp

; 459  :         _Nodeptr _Pnode    = _Wherenode->_Right;

  00003	8b 55 08	 mov	 edx, DWORD PTR __Wherenode$[ebp]
  00006	56		 push	 esi
  00007	8b 72 08	 mov	 esi, DWORD PTR [edx+8]

; 460  :         _Wherenode->_Right = _Pnode->_Left;

  0000a	8b 06		 mov	 eax, DWORD PTR [esi]
  0000c	89 42 08	 mov	 DWORD PTR [edx+8], eax

; 461  : 
; 462  :         if (!_Pnode->_Left->_Isnil) {

  0000f	8b 06		 mov	 eax, DWORD PTR [esi]
  00011	80 78 0d 00	 cmp	 BYTE PTR [eax+13], 0
  00015	75 03		 jne	 SHORT $LN2@Lrotate

; 463  :             _Pnode->_Left->_Parent = _Wherenode;

  00017	89 50 04	 mov	 DWORD PTR [eax+4], edx
$LN2@Lrotate:

; 464  :         }
; 465  : 
; 466  :         _Pnode->_Parent = _Wherenode->_Parent;

  0001a	8b 42 04	 mov	 eax, DWORD PTR [edx+4]
  0001d	89 46 04	 mov	 DWORD PTR [esi+4], eax

; 467  : 
; 468  :         if (_Wherenode == _Myhead->_Parent) {

  00020	8b 01		 mov	 eax, DWORD PTR [ecx]
  00022	3b 50 04	 cmp	 edx, DWORD PTR [eax+4]
  00025	75 0d		 jne	 SHORT $LN3@Lrotate

; 469  :             _Myhead->_Parent = _Pnode;

  00027	89 70 04	 mov	 DWORD PTR [eax+4], esi

; 474  :         }
; 475  : 
; 476  :         _Pnode->_Left       = _Wherenode;
; 477  :         _Wherenode->_Parent = _Pnode;
; 478  :     }

  0002a	89 16		 mov	 DWORD PTR [esi], edx
  0002c	89 72 04	 mov	 DWORD PTR [edx+4], esi
  0002f	5e		 pop	 esi
  00030	5d		 pop	 ebp
  00031	c2 04 00	 ret	 4
$LN3@Lrotate:

; 470  :         } else if (_Wherenode == _Wherenode->_Parent->_Left) {

  00034	8b 42 04	 mov	 eax, DWORD PTR [edx+4]
  00037	3b 10		 cmp	 edx, DWORD PTR [eax]
  00039	75 0c		 jne	 SHORT $LN5@Lrotate

; 471  :             _Wherenode->_Parent->_Left = _Pnode;

  0003b	89 30		 mov	 DWORD PTR [eax], esi

; 474  :         }
; 475  : 
; 476  :         _Pnode->_Left       = _Wherenode;
; 477  :         _Wherenode->_Parent = _Pnode;
; 478  :     }

  0003d	89 16		 mov	 DWORD PTR [esi], edx
  0003f	89 72 04	 mov	 DWORD PTR [edx+4], esi
  00042	5e		 pop	 esi
  00043	5d		 pop	 ebp
  00044	c2 04 00	 ret	 4
$LN5@Lrotate:

; 472  :         } else {
; 473  :             _Wherenode->_Parent->_Right = _Pnode;

  00047	89 70 08	 mov	 DWORD PTR [eax+8], esi

; 474  :         }
; 475  : 
; 476  :         _Pnode->_Left       = _Wherenode;
; 477  :         _Wherenode->_Parent = _Pnode;
; 478  :     }

  0004a	89 16		 mov	 DWORD PTR [esi], edx
  0004c	89 72 04	 mov	 DWORD PTR [edx+4], esi
  0004f	5e		 pop	 esi
  00050	5d		 pop	 ebp
  00051	c2 04 00	 ret	 4
?_Lrotate@?$_Tree_val@U?$_Tree_simple_types@U?$pair@$$CBKUSNetworkActorData@@@std@@@std@@@std@@QAEXPAU?$_Tree_node@U?$pair@$$CBKUSNetworkActorData@@@std@@PAX@2@@Z ENDP ; std::_Tree_val<std::_Tree_simple_types<std::pair<unsigned long const ,SNetworkActorData> > >::_Lrotate
_TEXT	ENDS
; Function compile flags: /Ogtp
; File C:\Program Files (x86)\Microsoft Visual Studio\2019\Community\VC\Tools\MSVC\14.28.29333\include\xtree
; File C:\Program Files (x86)\Microsoft Visual Studio\2019\Community\VC\Tools\MSVC\14.28.29333\include\xstddef
; File C:\Program Files (x86)\Microsoft Visual Studio\2019\Community\VC\Tools\MSVC\14.28.29333\include\xtree
; File C:\Program Files (x86)\Microsoft Visual Studio\2019\Community\VC\Tools\MSVC\14.28.29333\include\xstddef
; File C:\Program Files (x86)\Microsoft Visual Studio\2019\Community\VC\Tools\MSVC\14.28.29333\include\xtree
; File C:\Program Files (x86)\Microsoft Visual Studio\2019\Community\VC\Tools\MSVC\14.28.29333\include\xstddef
; File C:\Program Files (x86)\Microsoft Visual Studio\2019\Community\VC\Tools\MSVC\14.28.29333\include\xtree
; File C:\Program Files (x86)\Microsoft Visual Studio\2019\Community\VC\Tools\MSVC\14.28.29333\include\xutility
; File C:\Program Files (x86)\Microsoft Visual Studio\2019\Community\VC\Tools\MSVC\14.28.29333\include\xtree
; File C:\Program Files (x86)\Microsoft Visual Studio\2019\Community\VC\Tools\MSVC\14.28.29333\include\xutility
; File C:\Program Files (x86)\Microsoft Visual Studio\2019\Community\VC\Tools\MSVC\14.28.29333\include\xtree
; File C:\Program Files (x86)\Microsoft Visual Studio\2019\Community\VC\Tools\MSVC\14.28.29333\include\xutility
; File C:\Program Files (x86)\Microsoft Visual Studio\2019\Community\VC\Tools\MSVC\14.28.29333\include\xtree
; File C:\Program Files (x86)\Microsoft Visual Studio\2019\Community\VC\Tools\MSVC\14.28.29333\include\xutility
; File C:\Program Files (x86)\Microsoft Visual Studio\2019\Community\VC\Tools\MSVC\14.28.29333\include\xtree
; File C:\Program Files (x86)\Microsoft Visual Studio\2019\Community\VC\Tools\MSVC\14.28.29333\include\xstring
; File C:\Program Files (x86)\Microsoft Visual Studio\2019\Community\VC\Tools\MSVC\14.28.29333\include\xmemory
; File C:\Program Files (x86)\Microsoft Visual Studio\2019\Community\VC\Tools\MSVC\14.28.29333\include\xstring
; File C:\Program Files (x86)\Microsoft Visual Studio\2019\Community\VC\Tools\MSVC\14.28.29333\include\xmemory
; File C:\Program Files (x86)\Microsoft Visual Studio\2019\Community\VC\Tools\MSVC\14.28.29333\include\xtree
; File C:\Program Files (x86)\Microsoft Visual Studio\2019\Community\VC\Tools\MSVC\14.28.29333\include\xmemory
; File C:\Program Files (x86)\Microsoft Visual Studio\2019\Community\VC\Tools\MSVC\14.28.29333\include\xtree
;	COMDAT ?erase@?$_Tree@V?$_Tmap_traits@KUSNetworkActorData@@U?$less@K@std@@V?$allocator@U?$pair@$$CBKUSNetworkActorData@@@std@@@3@$0A@@std@@@std@@QAEIABK@Z
_TEXT	SEGMENT
__Off$1$ = -12						; size = 4
_this$1$ = -8						; size = 4
__Head$1$ = -4						; size = 4
__First$ = 8						; size = 4
__Keyval$ = 8						; size = 4
?erase@?$_Tree@V?$_Tmap_traits@KUSNetworkActorData@@U?$less@K@std@@V?$allocator@U?$pair@$$CBKUSNetworkActorData@@@std@@@3@$0A@@std@@@std@@QAEIABK@Z PROC ; std::_Tree<std::_Tmap_traits<unsigned long,SNetworkActorData,std::less<unsigned long>,std::allocator<std::pair<unsigned long const ,SNetworkActorData> >,0> >::erase, COMDAT
; _this$ = ecx

; 1435 :     size_type erase(const key_type& _Keyval) noexcept(noexcept(_Eqrange(_Keyval))) /* strengthened */ {

  00000	55		 push	 ebp
  00001	8b ec		 mov	 ebp, esp
  00003	83 ec 0c	 sub	 esp, 12			; 0000000cH
  00006	8b c1		 mov	 eax, ecx
  00008	89 45 f8	 mov	 DWORD PTR _this$1$[ebp], eax
  0000b	53		 push	 ebx
  0000c	56		 push	 esi

; 1787 :         _Nodeptr _Pnode   = _Scary->_Myhead->_Parent;

  0000d	8b 08		 mov	 ecx, DWORD PTR [eax]

; 1788 :         _Nodeptr _Lonode  = _Scary->_Myhead; // end() if search fails

  0000f	8b f1		 mov	 esi, ecx

; 1435 :     size_type erase(const key_type& _Keyval) noexcept(noexcept(_Eqrange(_Keyval))) /* strengthened */ {

  00011	57		 push	 edi

; 1787 :         _Nodeptr _Pnode   = _Scary->_Myhead->_Parent;

  00012	89 4d fc	 mov	 DWORD PTR __Head$1$[ebp], ecx

; 1789 :         _Nodeptr _Hinode  = _Scary->_Myhead; // end() if search fails

  00015	8b f9		 mov	 edi, ecx
  00017	8b 41 04	 mov	 eax, DWORD PTR [ecx+4]
  0001a	8b d0		 mov	 edx, eax

; 1790 : 
; 1791 :         while (!_Pnode->_Isnil) {

  0001c	80 7a 0d 00	 cmp	 BYTE PTR [edx+13], 0
  00020	75 26		 jne	 SHORT $LN5@erase
; File C:\Program Files (x86)\Microsoft Visual Studio\2019\Community\VC\Tools\MSVC\14.28.29333\include\xstddef

; 127  :         return _Left < _Right;

  00022	8b 5d 08	 mov	 ebx, DWORD PTR __Keyval$[ebp]
  00025	8b 1b		 mov	 ebx, DWORD PTR [ebx]
$LL4@erase:
  00027	8b 4a 10	 mov	 ecx, DWORD PTR [edx+16]
  0002a	3b cb		 cmp	 ecx, ebx
; File C:\Program Files (x86)\Microsoft Visual Studio\2019\Community\VC\Tools\MSVC\14.28.29333\include\xtree

; 1793 :             if (_DEBUG_LT_PRED(_Comp, _Nodekey, _Keyval)) {

  0002c	73 05		 jae	 SHORT $LN8@erase

; 1794 :                 _Pnode = _Pnode->_Right; // descend right subtree

  0002e	8b 52 08	 mov	 edx, DWORD PTR [edx+8]

; 1795 :             } else { // _Pnode not less than _Keyval, remember it

  00031	eb 0f		 jmp	 SHORT $LN9@erase
$LN8@erase:

; 1796 :                 if (_Hinode->_Isnil && _DEBUG_LT_PRED(_Comp, _Keyval, _Nodekey)) {

  00033	80 7f 0d 00	 cmp	 BYTE PTR [edi+13], 0
  00037	74 05		 je	 SHORT $LN10@erase
; File C:\Program Files (x86)\Microsoft Visual Studio\2019\Community\VC\Tools\MSVC\14.28.29333\include\xstddef

; 127  :         return _Left < _Right;

  00039	3b d9		 cmp	 ebx, ecx
; File C:\Program Files (x86)\Microsoft Visual Studio\2019\Community\VC\Tools\MSVC\14.28.29333\include\xtree

; 1796 :                 if (_Hinode->_Isnil && _DEBUG_LT_PRED(_Comp, _Keyval, _Nodekey)) {

  0003b	0f 42 fa	 cmovb	 edi, edx
$LN10@erase:

; 1797 :                     _Hinode = _Pnode; // _Pnode greater, remember it
; 1798 :                 }
; 1799 : 
; 1800 :                 _Lonode = _Pnode;

  0003e	8b f2		 mov	 esi, edx

; 1801 :                 _Pnode  = _Pnode->_Left; // descend left subtree

  00040	8b 12		 mov	 edx, DWORD PTR [edx]
$LN9@erase:

; 1790 : 
; 1791 :         while (!_Pnode->_Isnil) {

  00042	80 7a 0d 00	 cmp	 BYTE PTR [edx+13], 0
  00046	74 df		 je	 SHORT $LL4@erase
$LN5@erase:

; 1802 :             }
; 1803 :         }
; 1804 : 
; 1805 :         _Pnode = _Hinode->_Isnil ? _Scary->_Myhead->_Parent : _Hinode->_Left; // continue scan for upper bound

  00048	80 7f 0d 00	 cmp	 BYTE PTR [edi+13], 0
  0004c	75 02		 jne	 SHORT $LN15@erase
  0004e	8b 07		 mov	 eax, DWORD PTR [edi]
$LN15@erase:

; 1806 :         while (!_Pnode->_Isnil) {

  00050	80 78 0d 00	 cmp	 BYTE PTR [eax+13], 0
  00054	75 1e		 jne	 SHORT $LN7@erase
; File C:\Program Files (x86)\Microsoft Visual Studio\2019\Community\VC\Tools\MSVC\14.28.29333\include\xstddef

; 127  :         return _Left < _Right;

  00056	8b 4d 08	 mov	 ecx, DWORD PTR __Keyval$[ebp]
  00059	8b 09		 mov	 ecx, DWORD PTR [ecx]
  0005b	0f 1f 44 00 00	 npad	 5
$LL6@erase:
  00060	3b 48 10	 cmp	 ecx, DWORD PTR [eax+16]
; File C:\Program Files (x86)\Microsoft Visual Studio\2019\Community\VC\Tools\MSVC\14.28.29333\include\xtree

; 1807 :             if (_DEBUG_LT_PRED(_Getcomp(), _Keyval, _Traits::_Kfn(_Pnode->_Myval))) {

  00063	73 06		 jae	 SHORT $LN11@erase

; 1808 :                 // _Pnode greater than _Keyval, remember it
; 1809 :                 _Hinode = _Pnode;

  00065	8b f8		 mov	 edi, eax

; 1810 :                 _Pnode  = _Pnode->_Left; // descend left subtree

  00067	8b 00		 mov	 eax, DWORD PTR [eax]

; 1811 :             } else {

  00069	eb 03		 jmp	 SHORT $LN12@erase
$LN11@erase:

; 1812 :                 _Pnode = _Pnode->_Right; // descend right subtree

  0006b	8b 40 08	 mov	 eax, DWORD PTR [eax+8]
$LN12@erase:

; 1806 :         while (!_Pnode->_Isnil) {

  0006e	80 78 0d 00	 cmp	 BYTE PTR [eax+13], 0
  00072	74 ec		 je	 SHORT $LL6@erase
$LN7@erase:
; File C:\Program Files (x86)\Microsoft Visual Studio\2019\Community\VC\Tools\MSVC\14.28.29333\include\xutility

; 1799 :         _Iter_diff_t<_InIt> _Off = 0;

  00074	33 db		 xor	 ebx, ebx
  00076	8b c6		 mov	 eax, esi
  00078	89 5d f4	 mov	 DWORD PTR __Off$1$[ebp], ebx
; File C:\Program Files (x86)\Microsoft Visual Studio\2019\Community\VC\Tools\MSVC\14.28.29333\include\xtree

; 98   :         return _Ptr == _Right._Ptr;

  0007b	3b f7		 cmp	 esi, edi
; File C:\Program Files (x86)\Microsoft Visual Studio\2019\Community\VC\Tools\MSVC\14.28.29333\include\xutility

; 1800 :         for (; _UFirst != _ULast; ++_UFirst) {

  0007d	74 45		 je	 SHORT $LN30@erase
  0007f	90		 npad	 1
$LL37@erase:
; File C:\Program Files (x86)\Microsoft Visual Studio\2019\Community\VC\Tools\MSVC\14.28.29333\include\xtree

; 52   :         if (_Ptr->_Right->_Isnil) { // climb looking for right subtree

  00080	8b 48 08	 mov	 ecx, DWORD PTR [eax+8]
; File C:\Program Files (x86)\Microsoft Visual Studio\2019\Community\VC\Tools\MSVC\14.28.29333\include\xutility

; 1801 :             ++_Off;

  00083	43		 inc	 ebx
; File C:\Program Files (x86)\Microsoft Visual Studio\2019\Community\VC\Tools\MSVC\14.28.29333\include\xtree

; 52   :         if (_Ptr->_Right->_Isnil) { // climb looking for right subtree

  00084	80 79 0d 00	 cmp	 BYTE PTR [ecx+13], 0
  00088	74 1d		 je	 SHORT $LN36@erase

; 53   :             _Nodeptr _Pnode;
; 54   :             while (!(_Pnode = _Ptr->_Parent)->_Isnil && _Ptr == _Pnode->_Right) {

  0008a	8b 48 04	 mov	 ecx, DWORD PTR [eax+4]
  0008d	80 79 0d 00	 cmp	 BYTE PTR [ecx+13], 0
  00091	75 10		 jne	 SHORT $LN120@erase
$LL34@erase:
  00093	3b 41 08	 cmp	 eax, DWORD PTR [ecx+8]
  00096	75 0b		 jne	 SHORT $LN120@erase

; 55   :                 _Ptr = _Pnode; // ==> parent while right subtree

  00098	8b c1		 mov	 eax, ecx
  0009a	8b 49 04	 mov	 ecx, DWORD PTR [ecx+4]
  0009d	80 79 0d 00	 cmp	 BYTE PTR [ecx+13], 0
  000a1	74 f0		 je	 SHORT $LL34@erase
$LN120@erase:

; 56   :             }
; 57   : 
; 58   :             _Ptr = _Pnode; // ==> parent (head if end())

  000a3	8b c1		 mov	 eax, ecx

; 59   :         } else {

  000a5	eb 16		 jmp	 SHORT $LN41@erase
$LN36@erase:

; 60   :             _Ptr = _Mytree::_Min(_Ptr->_Right); // ==> smallest of right subtree

  000a7	8b c1		 mov	 eax, ecx

; 451  :         while (!_Pnode->_Left->_Isnil) {

  000a9	8b 10		 mov	 edx, DWORD PTR [eax]
  000ab	80 7a 0d 00	 cmp	 BYTE PTR [edx+13], 0
  000af	75 0c		 jne	 SHORT $LN41@erase
$LL40@erase:
  000b1	8b 0a		 mov	 ecx, DWORD PTR [edx]

; 452  :             _Pnode = _Pnode->_Left;

  000b3	8b c2		 mov	 eax, edx
  000b5	8b d1		 mov	 edx, ecx
  000b7	80 79 0d 00	 cmp	 BYTE PTR [ecx+13], 0
  000bb	74 f4		 je	 SHORT $LL40@erase
$LN41@erase:

; 98   :         return _Ptr == _Right._Ptr;

  000bd	3b c7		 cmp	 eax, edi
; File C:\Program Files (x86)\Microsoft Visual Studio\2019\Community\VC\Tools\MSVC\14.28.29333\include\xutility

; 1800 :         for (; _UFirst != _ULast; ++_UFirst) {

  000bf	75 bf		 jne	 SHORT $LL37@erase
  000c1	89 5d f4	 mov	 DWORD PTR __Off$1$[ebp], ebx
$LN30@erase:
; File C:\Program Files (x86)\Microsoft Visual Studio\2019\Community\VC\Tools\MSVC\14.28.29333\include\xtree

; 98   :         return _Ptr == _Right._Ptr;

  000c4	8b 45 fc	 mov	 eax, DWORD PTR __Head$1$[ebp]

; 1436 :         const auto _Where = _Eqrange(_Keyval);
; 1437 :         const _Unchecked_const_iterator _First(_Where.first, nullptr);
; 1438 :         const _Unchecked_const_iterator _Last(_Where.second, nullptr);
; 1439 :         const auto _Num = static_cast<size_type>(_STD distance(_First, _Last));
; 1440 :         _Erase_unchecked(_First, _Last);

  000c7	89 75 08	 mov	 DWORD PTR __First$[ebp], esi

; 98   :         return _Ptr == _Right._Ptr;

  000ca	3b 30		 cmp	 esi, DWORD PTR [eax]

; 1397 :         if (_First == _Begin && _Last._Ptr->_Isnil) {

  000cc	75 30		 jne	 SHORT $LN102@erase
  000ce	80 7f 0d 00	 cmp	 BYTE PTR [edi+13], 0
  000d2	74 2a		 je	 SHORT $LN102@erase

; 1448 :         _Scary->_Erase_tree(_Getal(), _Head->_Parent);

  000d4	8b 7d f8	 mov	 edi, DWORD PTR _this$1$[ebp]
  000d7	8b f0		 mov	 esi, eax
  000d9	8b cf		 mov	 ecx, edi
  000db	ff 76 04	 push	 DWORD PTR [esi+4]
  000de	57		 push	 edi
  000df	e8 00 00 00 00	 call	 ??$_Erase_tree@V?$allocator@U?$_Tree_node@U?$pair@$$CBKUSNetworkActorData@@@std@@PAX@std@@@std@@@?$_Tree_val@U?$_Tree_simple_types@U?$pair@$$CBKUSNetworkActorData@@@std@@@std@@@std@@QAEXAAV?$allocator@U?$_Tree_node@U?$pair@$$CBKUSNetworkActorData@@@std@@PAX@std@@@1@PAU?$_Tree_node@U?$pair@$$CBKUSNetworkActorData@@@std@@PAX@1@@Z ; std::_Tree_val<std::_Tree_simple_types<std::pair<unsigned long const ,SNetworkActorData> > >::_Erase_tree<std::allocator<std::_Tree_node<std::pair<unsigned long const ,SNetworkActorData>,void *> > >

; 1449 :         _Head->_Parent  = _Head;

  000e4	89 76 04	 mov	 DWORD PTR [esi+4], esi

; 1450 :         _Head->_Left    = _Head;

  000e7	89 36		 mov	 DWORD PTR [esi], esi

; 1451 :         _Head->_Right   = _Head;

  000e9	89 76 08	 mov	 DWORD PTR [esi+8], esi

; 1452 :         _Scary->_Mysize = 0;

  000ec	c7 47 04 00 00
	00 00		 mov	 DWORD PTR [edi+4], 0
$LN119@erase:
  000f3	5f		 pop	 edi

; 1441 :         return _Num;
; 1442 :     }

  000f4	5e		 pop	 esi
  000f5	8b c3		 mov	 eax, ebx
  000f7	5b		 pop	 ebx
  000f8	8b e5		 mov	 esp, ebp
  000fa	5d		 pop	 ebp
  000fb	c2 04 00	 ret	 4
$LN102@erase:

; 98   :         return _Ptr == _Right._Ptr;

  000fe	3b f7		 cmp	 esi, edi

; 1404 :         while (_First != _Last) {

  00100	74 f1		 je	 SHORT $LN119@erase
  00102	8b 5d f8	 mov	 ebx, DWORD PTR _this$1$[ebp]
$LL48@erase:

; 68   :         ++*this;

  00105	8d 4d 08	 lea	 ecx, DWORD PTR __First$[ebp]
  00108	e8 00 00 00 00	 call	 ??E?$_Tree_unchecked_const_iterator@V?$_Tree_val@U?$_Tree_simple_types@U?$pair@$$CBKUSNetworkActorData@@@std@@@std@@@std@@U_Iterator_base0@2@@std@@QAEAAV01@XZ ; std::_Tree_unchecked_const_iterator<std::_Tree_val<std::_Tree_simple_types<std::pair<unsigned long const ,SNetworkActorData> > >,std::_Iterator_base0>::operator++

; 1389 :         _Nodeptr _Erasednode = _Scary->_Extract(_Where); // node to erase

  0010d	56		 push	 esi
  0010e	8b cb		 mov	 ecx, ebx
  00110	e8 00 00 00 00	 call	 ?_Extract@?$_Tree_val@U?$_Tree_simple_types@U?$pair@$$CBKUSNetworkActorData@@@std@@@std@@@std@@QAEPAU?$_Tree_node@U?$pair@$$CBKUSNetworkActorData@@@std@@PAX@2@V?$_Tree_unchecked_const_iterator@V?$_Tree_val@U?$_Tree_simple_types@U?$pair@$$CBKUSNetworkActorData@@@std@@@std@@@std@@U_Iterator_base0@2@@2@@Z ; std::_Tree_val<std::_Tree_simple_types<std::pair<unsigned long const ,SNetworkActorData> > >::_Extract
  00115	8b f0		 mov	 esi, eax
  00117	8d 4e 2c	 lea	 ecx, DWORD PTR [esi+44]
  0011a	e8 00 00 00 00	 call	 ??1CAffectFlagContainer@@QAE@XZ ; CAffectFlagContainer::~CAffectFlagContainer
; File C:\Program Files (x86)\Microsoft Visual Studio\2019\Community\VC\Tools\MSVC\14.28.29333\include\xstring

; 2227 :         return _BUF_SIZE <= _Myres;

  0011f	8b 46 28	 mov	 eax, DWORD PTR [esi+40]
  00122	83 f8 10	 cmp	 eax, 16			; 00000010H

; 4385 :         if (_Mypair._Myval2._Large_string_engaged()) {

  00125	72 0d		 jb	 SHORT $LN87@erase

; 4386 :             const pointer _Ptr = _Mypair._Myval2._Bx._Ptr;
; 4387 :             auto& _Al          = _Getal();
; 4388 :             _Destroy_in_place(_Mypair._Myval2._Bx._Ptr);
; 4389 :             _Al.deallocate(_Ptr, _Mypair._Myval2._Myres + 1);

  00127	40		 inc	 eax
; File C:\Program Files (x86)\Microsoft Visual Studio\2019\Community\VC\Tools\MSVC\14.28.29333\include\xmemory

; 810  :         _Deallocate<_New_alignof<_Ty>>(_Ptr, sizeof(_Ty) * _Count);

  00128	50		 push	 eax
  00129	ff 76 14	 push	 DWORD PTR [esi+20]
  0012c	e8 00 00 00 00	 call	 ??$_Deallocate@$07$0A@@std@@YAXPAXI@Z ; std::_Deallocate<8,0>
  00131	83 c4 08	 add	 esp, 8
$LN87@erase:

; 696  :         _Deallocate<_New_alignof<value_type>>(_Ptr, sizeof(value_type) * _Count);

  00134	68 98 00 00 00	 push	 152			; 00000098H
  00139	56		 push	 esi
; File C:\Program Files (x86)\Microsoft Visual Studio\2019\Community\VC\Tools\MSVC\14.28.29333\include\xstring

; 4392 :         _Mypair._Myval2._Mysize = 0;

  0013a	c7 46 24 00 00
	00 00		 mov	 DWORD PTR [esi+36], 0

; 4393 :         _Mypair._Myval2._Myres  = _BUF_SIZE - 1;

  00141	c7 46 28 0f 00
	00 00		 mov	 DWORD PTR [esi+40], 15	; 0000000fH

; 4394 :         // the _Traits::assign is last so the codegen doesn't think the char write can alias this
; 4395 :         _Traits::assign(_Mypair._Myval2._Bx._Buf[0], _Elem());

  00148	c6 46 14 00	 mov	 BYTE PTR [esi+20], 0
; File C:\Program Files (x86)\Microsoft Visual Studio\2019\Community\VC\Tools\MSVC\14.28.29333\include\xmemory

; 696  :         _Deallocate<_New_alignof<value_type>>(_Ptr, sizeof(value_type) * _Count);

  0014c	e8 00 00 00 00	 call	 ??$_Deallocate@$07$0A@@std@@YAXPAXI@Z ; std::_Deallocate<8,0>
; File C:\Program Files (x86)\Microsoft Visual Studio\2019\Community\VC\Tools\MSVC\14.28.29333\include\xtree

; 98   :         return _Ptr == _Right._Ptr;

  00151	8b 75 08	 mov	 esi, DWORD PTR __First$[ebp]
; File C:\Program Files (x86)\Microsoft Visual Studio\2019\Community\VC\Tools\MSVC\14.28.29333\include\xmemory

; 696  :         _Deallocate<_New_alignof<value_type>>(_Ptr, sizeof(value_type) * _Count);

  00154	83 c4 08	 add	 esp, 8
; File C:\Program Files (x86)\Microsoft Visual Studio\2019\Community\VC\Tools\MSVC\14.28.29333\include\xtree

; 98   :         return _Ptr == _Right._Ptr;

  00157	3b f7		 cmp	 esi, edi

; 1404 :         while (_First != _Last) {

  00159	75 aa		 jne	 SHORT $LL48@erase

; 1441 :         return _Num;
; 1442 :     }

  0015b	8b 45 f4	 mov	 eax, DWORD PTR __Off$1$[ebp]
  0015e	5f		 pop	 edi
  0015f	5e		 pop	 esi
  00160	5b		 pop	 ebx
  00161	8b e5		 mov	 esp, ebp
  00163	5d		 pop	 ebp
  00164	c2 04 00	 ret	 4
?erase@?$_Tree@V?$_Tmap_traits@KUSNetworkActorData@@U?$less@K@std@@V?$allocator@U?$pair@$$CBKUSNetworkActorData@@@std@@@3@$0A@@std@@@std@@QAEIABK@Z ENDP ; std::_Tree<std::_Tmap_traits<unsigned long,SNetworkActorData,std::less<unsigned long>,std::allocator<std::pair<unsigned long const ,SNetworkActorData> >,0> >::erase
_TEXT	ENDS
; Function compile flags: /Ogtp
; File C:\Program Files (x86)\Microsoft Visual Studio\2019\Community\VC\Tools\MSVC\14.28.29333\include\xtree
; File C:\Program Files (x86)\Microsoft Visual Studio\2019\Community\VC\Tools\MSVC\14.28.29333\include\xstring
; File C:\Program Files (x86)\Microsoft Visual Studio\2019\Community\VC\Tools\MSVC\14.28.29333\include\xmemory
; File C:\Program Files (x86)\Microsoft Visual Studio\2019\Community\VC\Tools\MSVC\14.28.29333\include\xstring
; File C:\Program Files (x86)\Microsoft Visual Studio\2019\Community\VC\Tools\MSVC\14.28.29333\include\xmemory
; File C:\Program Files (x86)\Microsoft Visual Studio\2019\Community\VC\Tools\MSVC\14.28.29333\include\xtree
; File C:\Program Files (x86)\Microsoft Visual Studio\2019\Community\VC\Tools\MSVC\14.28.29333\include\xmemory
; File C:\Program Files (x86)\Microsoft Visual Studio\2019\Community\VC\Tools\MSVC\14.28.29333\include\xtree
;	COMDAT ?_Erase_unchecked@?$_Tree@V?$_Tmap_traits@KUSNetworkActorData@@U?$less@K@std@@V?$allocator@U?$pair@$$CBKUSNetworkActorData@@@std@@@3@$0A@@std@@@std@@AAEPAU?$_Tree_node@U?$pair@$$CBKUSNetworkActorData@@@std@@PAX@2@V?$_Tree_unchecked_const_iterator@V?$_Tree_val@U?$_Tree_simple_types@U?$pair@$$CBKUSNetworkActorData@@@std@@@std@@@std@@U_Iterator_base0@2@@2@@Z
_TEXT	SEGMENT
__Successor$ = -4					; size = 4
__Where$ = 8						; size = 4
?_Erase_unchecked@?$_Tree@V?$_Tmap_traits@KUSNetworkActorData@@U?$less@K@std@@V?$allocator@U?$pair@$$CBKUSNetworkActorData@@@std@@@3@$0A@@std@@@std@@AAEPAU?$_Tree_node@U?$pair@$$CBKUSNetworkActorData@@@std@@PAX@2@V?$_Tree_unchecked_const_iterator@V?$_Tree_val@U?$_Tree_simple_types@U?$pair@$$CBKUSNetworkActorData@@@std@@@std@@@std@@U_Iterator_base0@2@@2@@Z PROC ; std::_Tree<std::_Tmap_traits<unsigned long,SNetworkActorData,std::less<unsigned long>,std::allocator<std::pair<unsigned long const ,SNetworkActorData> >,0> >::_Erase_unchecked, COMDAT
; _this$ = ecx

; 1385 :     _Nodeptr _Erase_unchecked(_Unchecked_const_iterator _Where) noexcept {

  00000	55		 push	 ebp
  00001	8b ec		 mov	 ebp, esp
  00003	51		 push	 ecx
  00004	56		 push	 esi

; 1386 :         const auto _Scary                    = _Get_scary();
; 1387 :         _Unchecked_const_iterator _Successor = _Where;

  00005	8b 75 08	 mov	 esi, DWORD PTR __Where$[ebp]
  00008	57		 push	 edi
  00009	8b f9		 mov	 edi, ecx
  0000b	89 75 fc	 mov	 DWORD PTR __Successor$[ebp], esi

; 1388 :         ++_Successor; // save successor iterator for return

  0000e	8d 4d fc	 lea	 ecx, DWORD PTR __Successor$[ebp]
  00011	e8 00 00 00 00	 call	 ??E?$_Tree_unchecked_const_iterator@V?$_Tree_val@U?$_Tree_simple_types@U?$pair@$$CBKUSNetworkActorData@@@std@@@std@@@std@@U_Iterator_base0@2@@std@@QAEAAV01@XZ ; std::_Tree_unchecked_const_iterator<std::_Tree_val<std::_Tree_simple_types<std::pair<unsigned long const ,SNetworkActorData> > >,std::_Iterator_base0>::operator++

; 1389 :         _Nodeptr _Erasednode = _Scary->_Extract(_Where); // node to erase

  00016	56		 push	 esi
  00017	8b cf		 mov	 ecx, edi
  00019	e8 00 00 00 00	 call	 ?_Extract@?$_Tree_val@U?$_Tree_simple_types@U?$pair@$$CBKUSNetworkActorData@@@std@@@std@@@std@@QAEPAU?$_Tree_node@U?$pair@$$CBKUSNetworkActorData@@@std@@PAX@2@V?$_Tree_unchecked_const_iterator@V?$_Tree_val@U?$_Tree_simple_types@U?$pair@$$CBKUSNetworkActorData@@@std@@@std@@@std@@U_Iterator_base0@2@@2@@Z ; std::_Tree_val<std::_Tree_simple_types<std::pair<unsigned long const ,SNetworkActorData> > >::_Extract
  0001e	8b f0		 mov	 esi, eax
  00020	8d 4e 2c	 lea	 ecx, DWORD PTR [esi+44]
  00023	e8 00 00 00 00	 call	 ??1CAffectFlagContainer@@QAE@XZ ; CAffectFlagContainer::~CAffectFlagContainer
; File C:\Program Files (x86)\Microsoft Visual Studio\2019\Community\VC\Tools\MSVC\14.28.29333\include\xstring

; 2227 :         return _BUF_SIZE <= _Myres;

  00028	8b 46 28	 mov	 eax, DWORD PTR [esi+40]
  0002b	83 f8 10	 cmp	 eax, 16			; 00000010H

; 4385 :         if (_Mypair._Myval2._Large_string_engaged()) {

  0002e	72 0d		 jb	 SHORT $LN20@Erase_unch

; 4386 :             const pointer _Ptr = _Mypair._Myval2._Bx._Ptr;
; 4387 :             auto& _Al          = _Getal();
; 4388 :             _Destroy_in_place(_Mypair._Myval2._Bx._Ptr);
; 4389 :             _Al.deallocate(_Ptr, _Mypair._Myval2._Myres + 1);

  00030	40		 inc	 eax
; File C:\Program Files (x86)\Microsoft Visual Studio\2019\Community\VC\Tools\MSVC\14.28.29333\include\xmemory

; 810  :         _Deallocate<_New_alignof<_Ty>>(_Ptr, sizeof(_Ty) * _Count);

  00031	50		 push	 eax
  00032	ff 76 14	 push	 DWORD PTR [esi+20]
  00035	e8 00 00 00 00	 call	 ??$_Deallocate@$07$0A@@std@@YAXPAXI@Z ; std::_Deallocate<8,0>
  0003a	83 c4 08	 add	 esp, 8
$LN20@Erase_unch:

; 696  :         _Deallocate<_New_alignof<value_type>>(_Ptr, sizeof(value_type) * _Count);

  0003d	68 98 00 00 00	 push	 152			; 00000098H
  00042	56		 push	 esi
; File C:\Program Files (x86)\Microsoft Visual Studio\2019\Community\VC\Tools\MSVC\14.28.29333\include\xstring

; 4392 :         _Mypair._Myval2._Mysize = 0;

  00043	c7 46 24 00 00
	00 00		 mov	 DWORD PTR [esi+36], 0

; 4393 :         _Mypair._Myval2._Myres  = _BUF_SIZE - 1;

  0004a	c7 46 28 0f 00
	00 00		 mov	 DWORD PTR [esi+40], 15	; 0000000fH

; 4394 :         // the _Traits::assign is last so the codegen doesn't think the char write can alias this
; 4395 :         _Traits::assign(_Mypair._Myval2._Bx._Buf[0], _Elem());

  00051	c6 46 14 00	 mov	 BYTE PTR [esi+20], 0
; File C:\Program Files (x86)\Microsoft Visual Studio\2019\Community\VC\Tools\MSVC\14.28.29333\include\xmemory

; 696  :         _Deallocate<_New_alignof<value_type>>(_Ptr, sizeof(value_type) * _Count);

  00055	e8 00 00 00 00	 call	 ??$_Deallocate@$07$0A@@std@@YAXPAXI@Z ; std::_Deallocate<8,0>
; File C:\Program Files (x86)\Microsoft Visual Studio\2019\Community\VC\Tools\MSVC\14.28.29333\include\xtree

; 1392 :         return _Successor._Ptr; // return successor nodeptr

  0005a	8b 45 fc	 mov	 eax, DWORD PTR __Successor$[ebp]
; File C:\Program Files (x86)\Microsoft Visual Studio\2019\Community\VC\Tools\MSVC\14.28.29333\include\xmemory

; 696  :         _Deallocate<_New_alignof<value_type>>(_Ptr, sizeof(value_type) * _Count);

  0005d	83 c4 08	 add	 esp, 8
; File C:\Program Files (x86)\Microsoft Visual Studio\2019\Community\VC\Tools\MSVC\14.28.29333\include\xtree

; 1392 :         return _Successor._Ptr; // return successor nodeptr

  00060	5f		 pop	 edi
  00061	5e		 pop	 esi

; 1393 :     }

  00062	8b e5		 mov	 esp, ebp
  00064	5d		 pop	 ebp
  00065	c2 04 00	 ret	 4
?_Erase_unchecked@?$_Tree@V?$_Tmap_traits@KUSNetworkActorData@@U?$less@K@std@@V?$allocator@U?$pair@$$CBKUSNetworkActorData@@@std@@@3@$0A@@std@@@std@@AAEPAU?$_Tree_node@U?$pair@$$CBKUSNetworkActorData@@@std@@PAX@2@V?$_Tree_unchecked_const_iterator@V?$_Tree_val@U?$_Tree_simple_types@U?$pair@$$CBKUSNetworkActorData@@@std@@@std@@@std@@U_Iterator_base0@2@@2@@Z ENDP ; std::_Tree<std::_Tmap_traits<unsigned long,SNetworkActorData,std::less<unsigned long>,std::allocator<std::pair<unsigned long const ,SNetworkActorData> >,0> >::_Erase_unchecked
_TEXT	ENDS
; Function compile flags: /Ogtp
; File D:\Metin2 Server Files\mainline\SRC_2014\Metin2Client\UserInterface\NetworkActorManager.cpp
;	COMDAT ?__GetCharacterManager@CNetworkActorManager@@IAEAAVCPythonCharacterManager@@XZ
_TEXT	SEGMENT
?__GetCharacterManager@CNetworkActorManager@@IAEAAVCPythonCharacterManager@@XZ PROC ; CNetworkActorManager::__GetCharacterManager, COMDAT
; _this$ = ecx

; 312  : 	return CPythonCharacterManager::Instance();

  00000	a1 00 00 00 00	 mov	 eax, DWORD PTR ?ms_singleton@?$CSingleton@VCPythonCharacterManager@@@@0PAVCPythonCharacterManager@@A ; CSingleton<CPythonCharacterManager>::ms_singleton

; 313  : }

  00005	c3		 ret	 0
?__GetCharacterManager@CNetworkActorManager@@IAEAAVCPythonCharacterManager@@XZ ENDP ; CNetworkActorManager::__GetCharacterManager
_TEXT	ENDS
; Function compile flags: /Ogtp
; File D:\Metin2 Server Files\mainline\SRC_2014\Metin2Client\UserInterface\NetworkActorManager.cpp
;	COMDAT ?__FindActor@CNetworkActorManager@@IAEPAVCInstanceBase@@AAUSNetworkActorData@@JJ@Z
_TEXT	SEGMENT
_rkNetActorData$ = 8					; size = 4
_lDstX$ = 12						; size = 4
_lDstY$ = 16						; size = 4
?__FindActor@CNetworkActorManager@@IAEPAVCInstanceBase@@AAUSNetworkActorData@@JJ@Z PROC ; CNetworkActorManager::__FindActor, COMDAT
; _this$ = ecx

; 180  : {

  00000	55		 push	 ebp
  00001	8b ec		 mov	 ebp, esp
  00003	56		 push	 esi
  00004	57		 push	 edi
  00005	8b f1		 mov	 esi, ecx

; 181  : 	CPythonCharacterManager& rkChrMgr=__GetCharacterManager();

  00007	e8 00 00 00 00	 call	 ?__GetCharacterManager@CNetworkActorManager@@IAEAAVCPythonCharacterManager@@XZ ; CNetworkActorManager::__GetCharacterManager

; 182  : 	CInstanceBase * pkInstFind = rkChrMgr.GetInstancePtr(rkNetActorData.m_dwVID);

  0000c	8b 7d 08	 mov	 edi, DWORD PTR _rkNetActorData$[ebp]
  0000f	8d 48 04	 lea	 ecx, DWORD PTR [eax+4]
  00012	8b 01		 mov	 eax, DWORD PTR [ecx]
  00014	ff 77 24	 push	 DWORD PTR [edi+36]
  00017	ff 50 08	 call	 DWORD PTR [eax+8]

; 183  : 	if (!pkInstFind)

  0001a	85 c0		 test	 eax, eax
  0001c	75 21		 jne	 SHORT $LN1@FindActor

; 184  : 	{
; 185  : 		if (__IsVisiblePos(lDstX, lDstY))

  0001e	ff 75 10	 push	 DWORD PTR _lDstY$[ebp]
  00021	8b ce		 mov	 ecx, esi
  00023	ff 75 0c	 push	 DWORD PTR _lDstX$[ebp]
  00026	e8 00 00 00 00	 call	 ?__IsVisiblePos@CNetworkActorManager@@IAE_NJJ@Z ; CNetworkActorManager::__IsVisiblePos
  0002b	84 c0		 test	 al, al
  0002d	74 0e		 je	 SHORT $LN3@FindActor

; 186  : 			return __AppendCharacterManagerActor(rkNetActorData);

  0002f	57		 push	 edi
  00030	8b ce		 mov	 ecx, esi
  00032	e8 00 00 00 00	 call	 ?__AppendCharacterManagerActor@CNetworkActorManager@@IAEPAVCInstanceBase@@AAUSNetworkActorData@@@Z ; CNetworkActorManager::__AppendCharacterManagerActor
  00037	5f		 pop	 edi

; 189  : 	}
; 190  : 
; 191  : 	return pkInstFind;
; 192  : }

  00038	5e		 pop	 esi
  00039	5d		 pop	 ebp
  0003a	c2 0c 00	 ret	 12			; 0000000cH
$LN3@FindActor:

; 187  : 
; 188  : 		return NULL;

  0003d	33 c0		 xor	 eax, eax
$LN1@FindActor:
  0003f	5f		 pop	 edi

; 189  : 	}
; 190  : 
; 191  : 	return pkInstFind;
; 192  : }

  00040	5e		 pop	 esi
  00041	5d		 pop	 ebp
  00042	c2 0c 00	 ret	 12			; 0000000cH
?__FindActor@CNetworkActorManager@@IAEPAVCInstanceBase@@AAUSNetworkActorData@@JJ@Z ENDP ; CNetworkActorManager::__FindActor
_TEXT	ENDS
; Function compile flags: /Ogtp
; File D:\Metin2 Server Files\mainline\SRC_2014\Metin2Client\UserInterface\NetworkActorManager.cpp
;	COMDAT ?__FindActor@CNetworkActorManager@@IAEPAVCInstanceBase@@AAUSNetworkActorData@@@Z
_TEXT	SEGMENT
_rkNetActorData$ = 8					; size = 4
?__FindActor@CNetworkActorManager@@IAEPAVCInstanceBase@@AAUSNetworkActorData@@@Z PROC ; CNetworkActorManager::__FindActor, COMDAT
; _this$ = ecx

; 195  : {

  00000	55		 push	 ebp
  00001	8b ec		 mov	 ebp, esp
  00003	56		 push	 esi
  00004	57		 push	 edi
  00005	8b f1		 mov	 esi, ecx

; 196  : 	CPythonCharacterManager& rkChrMgr=__GetCharacterManager();

  00007	e8 00 00 00 00	 call	 ?__GetCharacterManager@CNetworkActorManager@@IAEAAVCPythonCharacterManager@@XZ ; CNetworkActorManager::__GetCharacterManager

; 197  : 	CInstanceBase * pkInstFind = rkChrMgr.GetInstancePtr(rkNetActorData.m_dwVID);

  0000c	8b 7d 08	 mov	 edi, DWORD PTR _rkNetActorData$[ebp]
  0000f	8d 48 04	 lea	 ecx, DWORD PTR [eax+4]
  00012	8b 01		 mov	 eax, DWORD PTR [ecx]
  00014	ff 77 24	 push	 DWORD PTR [edi+36]
  00017	ff 50 08	 call	 DWORD PTR [eax+8]

; 198  : 	if (!pkInstFind)

  0001a	85 c0		 test	 eax, eax
  0001c	75 1c		 jne	 SHORT $LN1@FindActor

; 199  : 	{
; 200  : 		if (__IsVisibleActor(rkNetActorData))

  0001e	57		 push	 edi
  0001f	8b ce		 mov	 ecx, esi
  00021	e8 00 00 00 00	 call	 ?__IsVisibleActor@CNetworkActorManager@@IAE_NABUSNetworkActorData@@@Z ; CNetworkActorManager::__IsVisibleActor
  00026	84 c0		 test	 al, al
  00028	74 0e		 je	 SHORT $LN3@FindActor

; 201  : 			return __AppendCharacterManagerActor(rkNetActorData);

  0002a	57		 push	 edi
  0002b	8b ce		 mov	 ecx, esi
  0002d	e8 00 00 00 00	 call	 ?__AppendCharacterManagerActor@CNetworkActorManager@@IAEPAVCInstanceBase@@AAUSNetworkActorData@@@Z ; CNetworkActorManager::__AppendCharacterManagerActor
  00032	5f		 pop	 edi

; 204  : 	}
; 205  : 
; 206  : 	return pkInstFind;
; 207  : }

  00033	5e		 pop	 esi
  00034	5d		 pop	 ebp
  00035	c2 04 00	 ret	 4
$LN3@FindActor:

; 202  : 
; 203  : 		return NULL;

  00038	33 c0		 xor	 eax, eax
$LN1@FindActor:
  0003a	5f		 pop	 edi

; 204  : 	}
; 205  : 
; 206  : 	return pkInstFind;
; 207  : }

  0003b	5e		 pop	 esi
  0003c	5d		 pop	 ebp
  0003d	c2 04 00	 ret	 4
?__FindActor@CNetworkActorManager@@IAEPAVCInstanceBase@@AAUSNetworkActorData@@@Z ENDP ; CNetworkActorManager::__FindActor
_TEXT	ENDS
; Function compile flags: /Ogtp
; File D:\Metin2 Server Files\mainline\SRC_2014\Metin2Client\UserInterface\NetworkActorManager.cpp
; File C:\Program Files (x86)\Microsoft Visual Studio\2019\Community\VC\Tools\MSVC\14.28.29333\include\xstring
; File D:\Metin2 Server Files\mainline\SRC_2014\Metin2Client\UserInterface\NetworkActorManager.cpp
; File C:\Program Files (x86)\Microsoft Visual Studio\2019\Community\VC\Tools\MSVC\14.28.29333\include\xstring
; File D:\Metin2 Server Files\mainline\SRC_2014\Metin2Client\UserInterface\NetworkActorManager.cpp
; File C:\Program Files (x86)\Microsoft Visual Studio\2019\Community\VC\Tools\MSVC\14.28.29333\include\xstring
; File D:\Metin2 Server Files\mainline\SRC_2014\Metin2Client\UserInterface\NetworkActorManager.cpp
; File C:\Program Files (x86)\Microsoft Visual Studio\2019\Community\VC\Tools\MSVC\14.28.29333\include\xstring
; File D:\Metin2 Server Files\mainline\SRC_2014\Metin2Client\UserInterface\NetworkActorManager.cpp
; File C:\Program Files (x86)\Microsoft Visual Studio\2019\Community\VC\Tools\MSVC\14.28.29333\include\xstring
; File C:\Program Files (x86)\Microsoft Visual Studio\2019\Community\VC\Tools\MSVC\14.28.29333\include\xmemory
; File C:\Program Files (x86)\Microsoft Visual Studio\2019\Community\VC\Tools\MSVC\14.28.29333\include\xstring
; File D:\Metin2 Server Files\mainline\SRC_2014\Metin2Client\UserInterface\NetworkActorManager.cpp
;	COMDAT ?__AppendCharacterManagerActor@CNetworkActorManager@@IAEPAVCInstanceBase@@AAUSNetworkActorData@@@Z
_TEXT	SEGMENT
_this$GSCopy$1$ = -144					; size = 4
_pOldInstance$1$ = -140					; size = 4
_rkChrMgr$1$ = -140					; size = 4
_dwVID$1$ = -136					; size = 4
_kCreateData$ = -132					; size = 104
_kPPosDst$2 = -28					; size = 12
_oldPos$3 = -28						; size = 12
__$ArrayPad$ = -16					; size = 4
__$EHRec$ = -12						; size = 12
_rkNetActorData$ = 8					; size = 4
?__AppendCharacterManagerActor@CNetworkActorManager@@IAEPAVCInstanceBase@@AAUSNetworkActorData@@@Z PROC ; CNetworkActorManager::__AppendCharacterManagerActor, COMDAT
; _this$ = ecx

; 330  : {

  00000	55		 push	 ebp
  00001	8b ec		 mov	 ebp, esp
  00003	6a ff		 push	 -1
  00005	68 00 00 00 00	 push	 __ehhandler$?__AppendCharacterManagerActor@CNetworkActorManager@@IAEPAVCInstanceBase@@AAUSNetworkActorData@@@Z
  0000a	64 a1 00 00 00
	00		 mov	 eax, DWORD PTR fs:0
  00010	50		 push	 eax
  00011	81 ec 84 00 00
	00		 sub	 esp, 132		; 00000084H
  00017	a1 00 00 00 00	 mov	 eax, DWORD PTR ___security_cookie
  0001c	33 c5		 xor	 eax, ebp
  0001e	89 45 f0	 mov	 DWORD PTR __$ArrayPad$[ebp], eax
  00021	56		 push	 esi
  00022	57		 push	 edi
  00023	50		 push	 eax
  00024	8d 45 f4	 lea	 eax, DWORD PTR __$EHRec$[ebp]
  00027	64 a3 00 00 00
	00		 mov	 DWORD PTR fs:0, eax
  0002d	8b f9		 mov	 edi, ecx
  0002f	89 bd 70 ff ff
	ff		 mov	 DWORD PTR _this$GSCopy$1$[ebp], edi
  00035	8b 75 08	 mov	 esi, DWORD PTR _rkNetActorData$[ebp]
; File C:\Program Files (x86)\Microsoft Visual Studio\2019\Community\VC\Tools\MSVC\14.28.29333\include\xstring

; 2218 :         const value_type* _Result = _Bx._Buf;

  00038	8b c6		 mov	 eax, esi

; 2219 :         if (_Large_string_engaged()) {

  0003a	83 7e 14 10	 cmp	 DWORD PTR [esi+20], 16	; 00000010H
  0003e	72 02		 jb	 SHORT $LN58@AppendChar

; 2220 :             _Result = _Unfancy(_Bx._Ptr);

  00040	8b 06		 mov	 eax, DWORD PTR [esi]
$LN58@AppendChar:
; File D:\Metin2 Server Files\mainline\SRC_2014\Metin2Client\UserInterface\NetworkActorManager.cpp

; 331  : 	Lognf(0, "CNetworkActorManager::__AppendCharacterManagerActor(%d, %s)", rkNetActorData.m_dwVID, rkNetActorData.m_stName.c_str());

  00042	50		 push	 eax
  00043	ff 76 24	 push	 DWORD PTR [esi+36]
  00046	68 00 00 00 00	 push	 OFFSET ??_C@_0DM@DKEOKINK@CNetworkActorManager?3?3__AppendC@
  0004b	6a 00		 push	 0
  0004d	e8 00 00 00 00	 call	 ?Lognf@@YAXIPBDZZ	; Lognf

; 332  : 
; 333  : 	DWORD dwVID=rkNetActorData.m_dwVID;

  00052	8b 46 24	 mov	 eax, DWORD PTR [esi+36]
  00055	8d 4d bf	 lea	 ecx, DWORD PTR _kCreateData$[ebp+67]
  00058	83 c4 10	 add	 esp, 16			; 00000010H
  0005b	89 85 78 ff ff
	ff		 mov	 DWORD PTR _dwVID$1$[ebp], eax

; 334  : 
; 335  : 	CPythonCharacterManager & rkChrMgr = CPythonCharacterManager::Instance();

  00061	a1 00 00 00 00	 mov	 eax, DWORD PTR ?ms_singleton@?$CSingleton@VCPythonCharacterManager@@@@0PAVCPythonCharacterManager@@A ; CSingleton<CPythonCharacterManager>::ms_singleton
  00066	89 85 74 ff ff
	ff		 mov	 DWORD PTR _rkChrMgr$1$[ebp], eax
  0006c	e8 00 00 00 00	 call	 ??0CAffectFlagContainer@@QAE@XZ ; CAffectFlagContainer::CAffectFlagContainer
; File C:\Program Files (x86)\Microsoft Visual Studio\2019\Community\VC\Tools\MSVC\14.28.29333\include\xstring

; 4377 :         _Mypair._Myval2._Mysize = 0;

  00071	c7 45 d8 00 00
	00 00		 mov	 DWORD PTR _kCreateData$[ebp+92], 0

; 4378 :         _Mypair._Myval2._Myres  = _BUF_SIZE - 1;

  00078	c7 45 dc 0f 00
	00 00		 mov	 DWORD PTR _kCreateData$[ebp+96], 15 ; 0000000fH

; 4379 :         // the _Traits::assign is last so the codegen doesn't think the char write can alias this
; 4380 :         _Traits::assign(_Mypair._Myval2._Bx._Buf[0], _Elem());

  0007f	c6 45 c8 00	 mov	 BYTE PTR _kCreateData$[ebp+76], 0
; File D:\Metin2 Server Files\mainline\SRC_2014\Metin2Client\UserInterface\NetworkActorManager.cpp

; 339  : 	kCreateData.m_bType=rkNetActorData.m_bType;

  00083	8a 46 20	 mov	 al, BYTE PTR [esi+32]

; 340  : 	kCreateData.m_dwLevel=rkNetActorData.m_dwLevel;
; 341  : 	kCreateData.m_dwGuildID=rkNetActorData.m_dwGuildID;
; 342  : 	kCreateData.m_dwEmpireID=rkNetActorData.m_dwEmpireID;
; 343  : 	kCreateData.m_dwVID=rkNetActorData.m_dwVID;
; 344  : 	kCreateData.m_dwMountVnum=rkNetActorData.m_dwMountVnum;
; 345  : 	kCreateData.m_dwRace=rkNetActorData.m_dwRace;
; 346  : 	kCreateData.m_fRot=rkNetActorData.m_fRot;

  00086	f3 0f 10 46 3c	 movss	 xmm0, DWORD PTR [esi+60]
  0008b	88 85 7c ff ff
	ff		 mov	 BYTE PTR _kCreateData$[ebp], al
  00091	8b 86 80 00 00
	00		 mov	 eax, DWORD PTR [esi+128]
  00097	89 45 8c	 mov	 DWORD PTR _kCreateData$[ebp+16], eax
  0009a	8b 46 7c	 mov	 eax, DWORD PTR [esi+124]
  0009d	89 45 88	 mov	 DWORD PTR _kCreateData$[ebp+12], eax
  000a0	8b 46 2c	 mov	 eax, DWORD PTR [esi+44]
  000a3	89 45 84	 mov	 DWORD PTR _kCreateData$[ebp+8], eax
  000a6	8b 46 24	 mov	 eax, DWORD PTR [esi+36]
  000a9	89 45 90	 mov	 DWORD PTR _kCreateData$[ebp+20], eax
  000ac	8b 46 78	 mov	 eax, DWORD PTR [esi+120]
  000af	89 45 b8	 mov	 DWORD PTR _kCreateData$[ebp+60], eax
  000b2	8b 46 30	 mov	 eax, DWORD PTR [esi+48]
  000b5	89 45 94	 mov	 DWORD PTR _kCreateData$[ebp+24], eax

; 347  :  	kCreateData.m_lPosX=rkNetActorData.m_lCurX;

  000b8	8b 46 40	 mov	 eax, DWORD PTR [esi+64]
  000bb	89 45 a0	 mov	 DWORD PTR _kCreateData$[ebp+36], eax

; 348  : 	kCreateData.m_lPosY=rkNetActorData.m_lCurY;

  000be	8b 46 44	 mov	 eax, DWORD PTR [esi+68]
  000c1	89 45 a4	 mov	 DWORD PTR _kCreateData$[ebp+40], eax
; File C:\Program Files (x86)\Microsoft Visual Studio\2019\Community\VC\Tools\MSVC\14.28.29333\include\xstring

; 2863 :         if (this != _STD addressof(_Right)) {

  000c4	8d 45 c8	 lea	 eax, DWORD PTR _kCreateData$[ebp+76]
; File D:\Metin2 Server Files\mainline\SRC_2014\Metin2Client\UserInterface\NetworkActorManager.cpp

; 338  : 	CInstanceBase::SCreateData kCreateData;

  000c7	c7 45 fc 00 00
	00 00		 mov	 DWORD PTR __$EHRec$[ebp+8], 0

; 340  : 	kCreateData.m_dwLevel=rkNetActorData.m_dwLevel;
; 341  : 	kCreateData.m_dwGuildID=rkNetActorData.m_dwGuildID;
; 342  : 	kCreateData.m_dwEmpireID=rkNetActorData.m_dwEmpireID;
; 343  : 	kCreateData.m_dwVID=rkNetActorData.m_dwVID;
; 344  : 	kCreateData.m_dwMountVnum=rkNetActorData.m_dwMountVnum;
; 345  : 	kCreateData.m_dwRace=rkNetActorData.m_dwRace;
; 346  : 	kCreateData.m_fRot=rkNetActorData.m_fRot;

  000ce	f3 0f 11 45 a8	 movss	 DWORD PTR _kCreateData$[ebp+44], xmm0
; File C:\Program Files (x86)\Microsoft Visual Studio\2019\Community\VC\Tools\MSVC\14.28.29333\include\xstring

; 2863 :         if (this != _STD addressof(_Right)) {

  000d3	3b c6		 cmp	 eax, esi
  000d5	74 16		 je	 SHORT $LN35@AppendChar

; 2227 :         return _BUF_SIZE <= _Myres;

  000d7	83 7e 14 10	 cmp	 DWORD PTR [esi+20], 16	; 00000010H

; 2218 :         const value_type* _Result = _Bx._Buf;

  000db	8b c6		 mov	 eax, esi

; 2219 :         if (_Large_string_engaged()) {

  000dd	72 02		 jb	 SHORT $LN40@AppendChar

; 2220 :             _Result = _Unfancy(_Bx._Ptr);

  000df	8b 06		 mov	 eax, DWORD PTR [esi]
$LN40@AppendChar:

; 2828 :         assign(_Right._Mypair._Myval2._Myptr(), _Right._Mypair._Myval2._Mysize);

  000e1	ff 76 10	 push	 DWORD PTR [esi+16]
  000e4	8d 4d c8	 lea	 ecx, DWORD PTR _kCreateData$[ebp+76]
  000e7	50		 push	 eax
  000e8	e8 00 00 00 00	 call	 ?assign@?$basic_string@DU?$char_traits@D@std@@V?$allocator@D@2@@std@@QAEAAV12@QBDI@Z ; std::basic_string<char,std::char_traits<char>,std::allocator<char> >::assign
$LN35@AppendChar:
; File D:\Metin2 Server Files\mainline\SRC_2014\Metin2Client\UserInterface\NetworkActorManager.cpp

; 350  : 	kCreateData.m_dwStateFlags=rkNetActorData.m_dwStateFlags;

  000ed	8b 46 28	 mov	 eax, DWORD PTR [esi+40]

; 351  : 	kCreateData.m_dwMovSpd=rkNetActorData.m_dwMovSpd;
; 352  : 	kCreateData.m_dwAtkSpd=rkNetActorData.m_dwAtkSpd;
; 353  : 	kCreateData.m_sAlignment=rkNetActorData.m_sAlignment;
; 354  : 	kCreateData.m_byPKMode=rkNetActorData.m_byPKMode;
; 355  : 	kCreateData.m_kAffectFlags=rkNetActorData.m_kAffectFlags;

  000f0	8b 4e 1c	 mov	 ecx, DWORD PTR [esi+28]

; 356  : 	kCreateData.m_dwArmor=rkNetActorData.m_dwArmor;
; 357  : 	kCreateData.m_dwWeapon=rkNetActorData.m_dwWeapon;
; 358  : 	kCreateData.m_dwHair=rkNetActorData.m_dwHair;
; 359  : 	kCreateData.m_isMain=__IsMainActorVID(dwVID);

  000f3	ff b5 78 ff ff
	ff		 push	 DWORD PTR _dwVID$1$[ebp]
  000f9	89 45 80	 mov	 DWORD PTR _kCreateData$[ebp+4], eax
  000fc	8b 46 34	 mov	 eax, DWORD PTR [esi+52]
  000ff	89 45 98	 mov	 DWORD PTR _kCreateData$[ebp+28], eax
  00102	8b 46 38	 mov	 eax, DWORD PTR [esi+56]
  00105	89 45 9c	 mov	 DWORD PTR _kCreateData$[ebp+32], eax
  00108	66 8b 46 74	 mov	 ax, WORD PTR [esi+116]
  0010c	66 89 45 bc	 mov	 WORD PTR _kCreateData$[ebp+64], ax
  00110	8a 46 76	 mov	 al, BYTE PTR [esi+118]
  00113	88 45 be	 mov	 BYTE PTR _kCreateData$[ebp+66], al
  00116	8b 46 18	 mov	 eax, DWORD PTR [esi+24]
  00119	89 45 bf	 mov	 DWORD PTR _kCreateData$[ebp+67], eax
  0011c	8b 46 64	 mov	 eax, DWORD PTR [esi+100]
  0011f	89 45 ac	 mov	 DWORD PTR _kCreateData$[ebp+48], eax
  00122	8b 46 68	 mov	 eax, DWORD PTR [esi+104]
  00125	89 4d c3	 mov	 DWORD PTR _kCreateData$[ebp+71], ecx
  00128	8b cf		 mov	 ecx, edi
  0012a	89 45 b0	 mov	 DWORD PTR _kCreateData$[ebp+52], eax
  0012d	8b 46 6c	 mov	 eax, DWORD PTR [esi+108]
  00130	89 45 b4	 mov	 DWORD PTR _kCreateData$[ebp+56], eax
  00133	e8 00 00 00 00	 call	 ?__IsMainActorVID@CNetworkActorManager@@IAE_NK@Z ; CNetworkActorManager::__IsMainActorVID

; 360  : 
; 361  : 	CInstanceBase* pOldInstance = rkChrMgr.GetInstancePtr(dwVID);

  00138	8b bd 74 ff ff
	ff		 mov	 edi, DWORD PTR _rkChrMgr$1$[ebp]
  0013e	ff b5 78 ff ff
	ff		 push	 DWORD PTR _dwVID$1$[ebp]
  00144	88 45 e0	 mov	 BYTE PTR _kCreateData$[ebp+100], al
  00147	8d 4f 04	 lea	 ecx, DWORD PTR [edi+4]
  0014a	8b 01		 mov	 eax, DWORD PTR [ecx]
  0014c	8b 40 08	 mov	 eax, DWORD PTR [eax+8]
  0014f	ff d0		 call	 eax
  00151	89 85 74 ff ff
	ff		 mov	 DWORD PTR _pOldInstance$1$[ebp], eax

; 362  : 	if (pOldInstance)

  00157	85 c0		 test	 eax, eax
  00159	74 5d		 je	 SHORT $LN2@AppendChar

; 363  : 	{
; 364  : 		TPixelPosition oldPos;
; 365  : 		pOldInstance->GetGraphicThingInstancePtr()->GetPixelPosition( &oldPos );

  0015b	8d 4d e4	 lea	 ecx, DWORD PTR _oldPos$3[ebp]
  0015e	51		 push	 ecx
  0015f	8b c8		 mov	 ecx, eax
  00161	e8 00 00 00 00	 call	 ?GetGraphicThingInstancePtr@CInstanceBase@@QAEPAVCActorInstance@@XZ ; CInstanceBase::GetGraphicThingInstancePtr
  00166	8b c8		 mov	 ecx, eax
  00168	e8 00 00 00 00	 call	 ?GetPixelPosition@CActorInstance@@QAEXPAUD3DXVECTOR3@@@Z ; CActorInstance::GetPixelPosition

; 366  : 
; 367  : 		bool bIsMountingHorse = pOldInstance->IsMountingHorse();

  0016d	8b 8d 74 ff ff
	ff		 mov	 ecx, DWORD PTR _pOldInstance$1$[ebp]
  00173	e8 00 00 00 00	 call	 ?IsMountingHorse@CInstanceBase@@QAEHXZ ; CInstanceBase::IsMountingHorse
  00178	85 c0		 test	 eax, eax
  0017a	0f 95 c1	 setne	 cl

; 368  : 		if( (bIsMountingHorse && kCreateData.m_dwMountVnum == 0) ||  

  0017d	85 c0		 test	 eax, eax
  0017f	8b 45 b8	 mov	 eax, DWORD PTR _kCreateData$[ebp+60]
  00182	74 04		 je	 SHORT $LN5@AppendChar
  00184	85 c0		 test	 eax, eax
  00186	74 08		 je	 SHORT $LN4@AppendChar
$LN5@AppendChar:
  00188	84 c9		 test	 cl, cl
  0018a	75 1f		 jne	 SHORT $LN3@AppendChar
  0018c	85 c0		 test	 eax, eax
  0018e	74 1b		 je	 SHORT $LN3@AppendChar
$LN4@AppendChar:

; 369  : 			(!bIsMountingHorse && kCreateData.m_dwMountVnum != 0) )
; 370  : 		{
; 371  : 			//Override Pos
; 372  : 			kCreateData.m_lPosX = oldPos.x;

  00190	f3 0f 2c 45 e4	 cvttss2si eax, DWORD PTR _oldPos$3[ebp]

; 373  : 			kCreateData.m_lPosY = -oldPos.y;

  00195	f3 0f 10 45 e8	 movss	 xmm0, DWORD PTR _oldPos$3[ebp+4]
  0019a	0f 57 05 00 00
	00 00		 xorps	 xmm0, DWORD PTR __xmm@80000000800000008000000080000000
  001a1	89 45 a0	 mov	 DWORD PTR _kCreateData$[ebp+36], eax
  001a4	f3 0f 2c c0	 cvttss2si eax, xmm0
  001a8	89 45 a4	 mov	 DWORD PTR _kCreateData$[ebp+40], eax
$LN3@AppendChar:

; 374  : 		}
; 375  : 
; 376  : 		rkChrMgr.DeleteInstance(dwVID);

  001ab	ff b5 78 ff ff
	ff		 push	 DWORD PTR _dwVID$1$[ebp]
  001b1	8b cf		 mov	 ecx, edi
  001b3	e8 00 00 00 00	 call	 ?DeleteInstance@CPythonCharacterManager@@QAEXK@Z ; CPythonCharacterManager::DeleteInstance
$LN2@AppendChar:

; 377  : 	}
; 378  : 	
; 379  : 
; 380  : 	CInstanceBase* pNewInstance = rkChrMgr.CreateInstance(kCreateData);

  001b8	8d 85 7c ff ff
	ff		 lea	 eax, DWORD PTR _kCreateData$[ebp]
  001be	8b cf		 mov	 ecx, edi
  001c0	50		 push	 eax
  001c1	e8 00 00 00 00	 call	 ?CreateInstance@CPythonCharacterManager@@QAEPAVCInstanceBase@@ABUSCreateData@2@@Z ; CPythonCharacterManager::CreateInstance
  001c6	8b f8		 mov	 edi, eax

; 381  : 	if (!pNewInstance)

  001c8	85 ff		 test	 edi, edi
  001ca	74 79		 je	 SHORT $LN8@AppendChar
$LN6@AppendChar:

; 382  : 		return NULL;
; 383  : 
; 384  : 	if (kCreateData.m_isMain)

  001cc	80 7d e0 00	 cmp	 BYTE PTR _kCreateData$[ebp+100], 0
  001d0	74 23		 je	 SHORT $LN7@AppendChar

; 385  : 	{
; 386  : 		IAbstractPlayer & rkPlayer = IAbstractPlayer::GetSingleton();

  001d2	8b 0d 00 00 00
	00		 mov	 ecx, DWORD PTR ?ms_singleton@?$TAbstractSingleton@VIAbstractPlayer@@@@0PAVIAbstractPlayer@@A ; TAbstractSingleton<IAbstractPlayer>::ms_singleton

; 387  : 		rkPlayer.SetMainCharacterIndex(dwVID);

  001d8	ff b5 78 ff ff
	ff		 push	 DWORD PTR _dwVID$1$[ebp]
  001de	8b 01		 mov	 eax, DWORD PTR [ecx]
  001e0	ff 50 08	 call	 DWORD PTR [eax+8]

; 388  : 
; 389  : 
; 390  : 		m_lMainPosX=rkNetActorData.m_lCurX;

  001e3	8b 8d 70 ff ff
	ff		 mov	 ecx, DWORD PTR _this$GSCopy$1$[ebp]
  001e9	8b 46 40	 mov	 eax, DWORD PTR [esi+64]
  001ec	89 41 10	 mov	 DWORD PTR [ecx+16], eax

; 391  : 		m_lMainPosY=rkNetActorData.m_lCurY;

  001ef	8b 46 44	 mov	 eax, DWORD PTR [esi+68]
  001f2	89 41 14	 mov	 DWORD PTR [ecx+20], eax
$LN7@AppendChar:

; 392  : 	}
; 393  : 
; 394  : 	DWORD dwClientCurTime=ELTimer_GetMSec();

  001f5	e8 00 00 00 00	 call	 ?ELTimer_GetMSec@@YAKXZ	; ELTimer_GetMSec
  001fa	8b c8		 mov	 ecx, eax

; 395  : 	DWORD dwElapsedTime=dwClientCurTime-rkNetActorData.m_dwClientSrcTime;

  001fc	2b 4e 5c	 sub	 ecx, DWORD PTR [esi+92]

; 396  : 
; 397  : 	if (dwElapsedTime<rkNetActorData.m_dwDuration)

  001ff	3b 4e 60	 cmp	 ecx, DWORD PTR [esi+96]
  00202	73 41		 jae	 SHORT $LN8@AppendChar

; 398  : 	{
; 399  : 		TPixelPosition kPPosDst;
; 400  : 		kPPosDst.x=float(rkNetActorData.m_lDstX);
; 401  : 		kPPosDst.y=float(rkNetActorData.m_lDstY);
; 402  : 		kPPosDst.z=0;
; 403  : 		pNewInstance->PushTCPState(rkNetActorData.m_dwServerSrcTime+dwElapsedTime, kPPosDst, rkNetActorData.m_fRot, CInstanceBase::FUNC_MOVE, 0);		

  00204	66 0f 6e 46 50	 movd	 xmm0, DWORD PTR [esi+80]
  00209	8d 45 e4	 lea	 eax, DWORD PTR _kPPosDst$2[ebp]
  0020c	0f 5b c0	 cvtdq2ps xmm0, xmm0
  0020f	6a 00		 push	 0
  00211	6a 01		 push	 1
  00213	51		 push	 ecx
  00214	c7 45 ec 00 00
	00 00		 mov	 DWORD PTR _kPPosDst$2[ebp+8], 0
  0021b	f3 0f 11 45 e4	 movss	 DWORD PTR _kPPosDst$2[ebp], xmm0
  00220	66 0f 6e 46 54	 movd	 xmm0, DWORD PTR [esi+84]
  00225	0f 5b c0	 cvtdq2ps xmm0, xmm0
  00228	f3 0f 11 45 e8	 movss	 DWORD PTR _kPPosDst$2[ebp+4], xmm0
  0022d	f3 0f 10 46 3c	 movss	 xmm0, DWORD PTR [esi+60]
  00232	f3 0f 11 04 24	 movss	 DWORD PTR [esp], xmm0
  00237	50		 push	 eax
  00238	8b 46 58	 mov	 eax, DWORD PTR [esi+88]
  0023b	03 c1		 add	 eax, ecx
  0023d	8b cf		 mov	 ecx, edi
  0023f	50		 push	 eax
  00240	e8 00 00 00 00	 call	 ?PushTCPState@CInstanceBase@@QAEXKABUD3DXVECTOR3@@MII@Z ; CInstanceBase::PushTCPState
$LN8@AppendChar:
; File C:\Program Files (x86)\Microsoft Visual Studio\2019\Community\VC\Tools\MSVC\14.28.29333\include\xstring

; 2227 :         return _BUF_SIZE <= _Myres;

  00245	8b 45 dc	 mov	 eax, DWORD PTR _kCreateData$[ebp+96]
  00248	83 f8 10	 cmp	 eax, 16			; 00000010H

; 4385 :         if (_Mypair._Myval2._Large_string_engaged()) {

  0024b	72 0d		 jb	 SHORT $LN51@AppendChar

; 4386 :             const pointer _Ptr = _Mypair._Myval2._Bx._Ptr;
; 4387 :             auto& _Al          = _Getal();
; 4388 :             _Destroy_in_place(_Mypair._Myval2._Bx._Ptr);
; 4389 :             _Al.deallocate(_Ptr, _Mypair._Myval2._Myres + 1);

  0024d	40		 inc	 eax
; File C:\Program Files (x86)\Microsoft Visual Studio\2019\Community\VC\Tools\MSVC\14.28.29333\include\xmemory

; 810  :         _Deallocate<_New_alignof<_Ty>>(_Ptr, sizeof(_Ty) * _Count);

  0024e	50		 push	 eax
  0024f	ff 75 c8	 push	 DWORD PTR _kCreateData$[ebp+76]
  00252	e8 00 00 00 00	 call	 ??$_Deallocate@$07$0A@@std@@YAXPAXI@Z ; std::_Deallocate<8,0>
  00257	83 c4 08	 add	 esp, 8
$LN51@AppendChar:
  0025a	8d 4d bf	 lea	 ecx, DWORD PTR _kCreateData$[ebp+67]
; File C:\Program Files (x86)\Microsoft Visual Studio\2019\Community\VC\Tools\MSVC\14.28.29333\include\xstring

; 4392 :         _Mypair._Myval2._Mysize = 0;

  0025d	c7 45 d8 00 00
	00 00		 mov	 DWORD PTR _kCreateData$[ebp+92], 0

; 4393 :         _Mypair._Myval2._Myres  = _BUF_SIZE - 1;

  00264	c7 45 dc 0f 00
	00 00		 mov	 DWORD PTR _kCreateData$[ebp+96], 15 ; 0000000fH

; 4394 :         // the _Traits::assign is last so the codegen doesn't think the char write can alias this
; 4395 :         _Traits::assign(_Mypair._Myval2._Bx._Buf[0], _Elem());

  0026b	c6 45 c8 00	 mov	 BYTE PTR _kCreateData$[ebp+76], 0
  0026f	e8 00 00 00 00	 call	 ??1CAffectFlagContainer@@QAE@XZ ; CAffectFlagContainer::~CAffectFlagContainer
; File D:\Metin2 Server Files\mainline\SRC_2014\Metin2Client\UserInterface\NetworkActorManager.cpp

; 405  : 	return pNewInstance;

  00274	8b c7		 mov	 eax, edi

; 406  : }

  00276	8b 4d f4	 mov	 ecx, DWORD PTR __$EHRec$[ebp]
  00279	64 89 0d 00 00
	00 00		 mov	 DWORD PTR fs:0, ecx
  00280	59		 pop	 ecx
  00281	5f		 pop	 edi
  00282	5e		 pop	 esi
  00283	8b 4d f0	 mov	 ecx, DWORD PTR __$ArrayPad$[ebp]
  00286	33 cd		 xor	 ecx, ebp
  00288	e8 00 00 00 00	 call	 @__security_check_cookie@4
  0028d	8b e5		 mov	 esp, ebp
  0028f	5d		 pop	 ebp
  00290	c2 04 00	 ret	 4
_TEXT	ENDS
;	COMDAT text$x
text$x	SEGMENT
__unwindfunclet$?__AppendCharacterManagerActor@CNetworkActorManager@@IAEPAVCInstanceBase@@AAUSNetworkActorData@@@Z$0:
  00000	8d 8d 7c ff ff
	ff		 lea	 ecx, DWORD PTR _kCreateData$[ebp]
  00006	e9 00 00 00 00	 jmp	 ??1SCreateData@CInstanceBase@@QAE@XZ
  0000b	cc		 int	 3
  0000c	cc		 int	 3
  0000d	cc		 int	 3
  0000e	cc		 int	 3
  0000f	cc		 int	 3
__ehhandler$?__AppendCharacterManagerActor@CNetworkActorManager@@IAEPAVCInstanceBase@@AAUSNetworkActorData@@@Z:
  00010	90		 npad	 1
  00011	90		 npad	 1
  00012	8b 54 24 08	 mov	 edx, DWORD PTR [esp+8]
  00016	8d 42 0c	 lea	 eax, DWORD PTR [edx+12]
  00019	8b 8a 70 ff ff
	ff		 mov	 ecx, DWORD PTR [edx-144]
  0001f	33 c8		 xor	 ecx, eax
  00021	e8 00 00 00 00	 call	 @__security_check_cookie@4
  00026	8b 4a fc	 mov	 ecx, DWORD PTR [edx-4]
  00029	33 c8		 xor	 ecx, eax
  0002b	e8 00 00 00 00	 call	 @__security_check_cookie@4
  00030	b8 00 00 00 00	 mov	 eax, OFFSET __ehfuncinfo$?__AppendCharacterManagerActor@CNetworkActorManager@@IAEPAVCInstanceBase@@AAUSNetworkActorData@@@Z
  00035	e9 00 00 00 00	 jmp	 ___CxxFrameHandler3
text$x	ENDS
?__AppendCharacterManagerActor@CNetworkActorManager@@IAEPAVCInstanceBase@@AAUSNetworkActorData@@@Z ENDP ; CNetworkActorManager::__AppendCharacterManagerActor
; Function compile flags: /Ogtp
; File D:\Metin2 Server Files\mainline\SRC_2014\Metin2Client\UserInterface\NetworkActorManager.cpp
;	COMDAT ?__RemoveCharacterManagerActor@CNetworkActorManager@@IAEXAAUSNetworkActorData@@@Z
_TEXT	SEGMENT
_rkNetActorData$ = 8					; size = 4
?__RemoveCharacterManagerActor@CNetworkActorManager@@IAEXAAUSNetworkActorData@@@Z PROC ; CNetworkActorManager::__RemoveCharacterManagerActor, COMDAT
; _this$ = ecx

; 316  : {

  00000	55		 push	 ebp
  00001	8b ec		 mov	 ebp, esp

; 317  : 	CPythonCharacterManager & rkChrMgr = CPythonCharacterManager::Instance();	
; 318  : 
; 319  : 	if (__IsMainActorVID(rkNetActorData.m_dwVID))

  00003	8b 45 08	 mov	 eax, DWORD PTR _rkNetActorData$[ebp]
  00006	56		 push	 esi
  00007	8b 70 24	 mov	 esi, DWORD PTR [eax+36]
  0000a	56		 push	 esi
  0000b	e8 00 00 00 00	 call	 ?__IsMainActorVID@CNetworkActorManager@@IAE_NK@Z ; CNetworkActorManager::__IsMainActorVID
  00010	8b 0d 00 00 00
	00		 mov	 ecx, DWORD PTR ?ms_singleton@?$CSingleton@VCPythonCharacterManager@@@@0PAVCPythonCharacterManager@@A ; CSingleton<CPythonCharacterManager>::ms_singleton
  00016	56		 push	 esi
  00017	84 c0		 test	 al, al
  00019	74 0a		 je	 SHORT $LN2@RemoveChar

; 320  : 	{
; 321  : 		rkChrMgr.DeleteInstance(rkNetActorData.m_dwVID);

  0001b	e8 00 00 00 00	 call	 ?DeleteInstance@CPythonCharacterManager@@QAEXK@Z ; CPythonCharacterManager::DeleteInstance
  00020	5e		 pop	 esi

; 326  : 	}	
; 327  : }

  00021	5d		 pop	 ebp
  00022	c2 04 00	 ret	 4
$LN2@RemoveChar:

; 322  : 	}
; 323  : 	else
; 324  : 	{
; 325  : 		rkChrMgr.DeleteInstanceByFade(rkNetActorData.m_dwVID);	

  00025	e8 00 00 00 00	 call	 ?DeleteInstanceByFade@CPythonCharacterManager@@QAEXK@Z ; CPythonCharacterManager::DeleteInstanceByFade
  0002a	5e		 pop	 esi

; 326  : 	}	
; 327  : }

  0002b	5d		 pop	 ebp
  0002c	c2 04 00	 ret	 4
?__RemoveCharacterManagerActor@CNetworkActorManager@@IAEXAAUSNetworkActorData@@@Z ENDP ; CNetworkActorManager::__RemoveCharacterManagerActor
_TEXT	ENDS
; Function compile flags: /Ogtp
; File D:\Metin2 Server Files\mainline\SRC_2014\Metin2Client\UserInterface\NetworkActorManager.cpp
; File C:\Program Files (x86)\Microsoft Visual Studio\2019\Community\VC\Tools\MSVC\14.28.29333\include\vector
; File D:\Metin2 Server Files\mainline\SRC_2014\Metin2Client\UserInterface\NetworkActorManager.cpp
; File C:\Program Files (x86)\Microsoft Visual Studio\2019\Community\VC\Tools\MSVC\14.28.29333\include\xtree
; File D:\Metin2 Server Files\mainline\SRC_2014\Metin2Client\UserInterface\PythonCharacterManager.h
; File C:\Program Files (x86)\Microsoft Visual Studio\2019\Community\VC\Tools\MSVC\14.28.29333\include\xtree
; File D:\Metin2 Server Files\mainline\SRC_2014\Metin2Client\UserInterface\NetworkActorManager.cpp
; File C:\Program Files (x86)\Microsoft Visual Studio\2019\Community\VC\Tools\MSVC\14.28.29333\include\vector
; File C:\Program Files (x86)\Microsoft Visual Studio\2019\Community\VC\Tools\MSVC\14.28.29333\include\xtree
; File D:\Metin2 Server Files\mainline\SRC_2014\Metin2Client\UserInterface\NetworkActorManager.cpp
; File C:\Program Files (x86)\Microsoft Visual Studio\2019\Community\VC\Tools\MSVC\14.28.29333\include\vector
; File D:\Metin2 Server Files\mainline\SRC_2014\Metin2Client\UserInterface\NetworkActorManager.cpp
; File C:\Program Files (x86)\Microsoft Visual Studio\2019\Community\VC\Tools\MSVC\14.28.29333\include\xtree
; File C:\Program Files (x86)\Microsoft Visual Studio\2019\Community\VC\Tools\MSVC\14.28.29333\include\xstddef
; File C:\Program Files (x86)\Microsoft Visual Studio\2019\Community\VC\Tools\MSVC\14.28.29333\include\xtree
; File D:\Metin2 Server Files\mainline\SRC_2014\Metin2Client\UserInterface\NetworkActorManager.cpp
; File C:\Program Files (x86)\Microsoft Visual Studio\2019\Community\VC\Tools\MSVC\14.28.29333\include\xtree
; File D:\Metin2 Server Files\mainline\SRC_2014\Metin2Client\UserInterface\NetworkActorManager.cpp
; File C:\Program Files (x86)\Microsoft Visual Studio\2019\Community\VC\Tools\MSVC\14.28.29333\include\vector
; File C:\Program Files (x86)\Microsoft Visual Studio\2019\Community\VC\Tools\MSVC\14.28.29333\include\xmemory
; File D:\Metin2 Server Files\mainline\SRC_2014\Metin2Client\UserInterface\NetworkActorManager.cpp
;	COMDAT ?__RemoveDynamicActors@CNetworkActorManager@@IAEXXZ
_TEXT	SEGMENT
__Loc$2 = -52						; size = 12
_dwCharacterVIDList$ = -40				; size = 12
tv1035 = -28						; size = 4
_this$1$ = -24						; size = 4
_dwCharacterVIDList$1$ = -20				; size = 4
$T3 = -20						; size = 4
_rkChrMgr$1$ = -16					; size = 4
__$EHRec$ = -12						; size = 12
?__RemoveDynamicActors@CNetworkActorManager@@IAEXXZ PROC ; CNetworkActorManager::__RemoveDynamicActors, COMDAT
; _this$ = ecx

; 224  : {

  00000	55		 push	 ebp
  00001	8b ec		 mov	 ebp, esp
  00003	6a ff		 push	 -1
  00005	68 00 00 00 00	 push	 __ehhandler$?__RemoveDynamicActors@CNetworkActorManager@@IAEXXZ
  0000a	64 a1 00 00 00
	00		 mov	 eax, DWORD PTR fs:0
  00010	50		 push	 eax
  00011	83 ec 28	 sub	 esp, 40			; 00000028H
  00014	53		 push	 ebx
  00015	56		 push	 esi
  00016	57		 push	 edi
  00017	a1 00 00 00 00	 mov	 eax, DWORD PTR ___security_cookie
  0001c	33 c5		 xor	 eax, ebp
  0001e	50		 push	 eax
  0001f	8d 45 f4	 lea	 eax, DWORD PTR __$EHRec$[ebp]
  00022	64 a3 00 00 00
	00		 mov	 DWORD PTR fs:0, eax
  00028	89 4d e8	 mov	 DWORD PTR _this$1$[ebp], ecx
; File C:\Program Files (x86)\Microsoft Visual Studio\2019\Community\VC\Tools\MSVC\14.28.29333\include\vector

; 375  :     _Vector_val() noexcept : _Myfirst(), _Mylast(), _Myend() {}

  0002b	33 db		 xor	 ebx, ebx
  0002d	33 c9		 xor	 ecx, ecx
  0002f	33 ff		 xor	 edi, edi
  00031	89 4d d8	 mov	 DWORD PTR _dwCharacterVIDList$[ebp], ecx
  00034	89 7d dc	 mov	 DWORD PTR _dwCharacterVIDList$[ebp+4], edi
  00037	89 5d ec	 mov	 DWORD PTR _dwCharacterVIDList$1$[ebp], ebx
  0003a	89 5d e0	 mov	 DWORD PTR _dwCharacterVIDList$[ebp+8], ebx
; File D:\Metin2 Server Files\mainline\SRC_2014\Metin2Client\UserInterface\NetworkActorManager.cpp

; 228  : 	CPythonCharacterManager& rkChrMgr=CPythonCharacterManager::Instance();

  0003d	8b 15 00 00 00
	00		 mov	 edx, DWORD PTR ?ms_singleton@?$CSingleton@VCPythonCharacterManager@@@@0PAVCPythonCharacterManager@@A ; CSingleton<CPythonCharacterManager>::ms_singleton
  00043	89 5d fc	 mov	 DWORD PTR __$EHRec$[ebp+8], ebx
  00046	89 55 f0	 mov	 DWORD PTR _rkChrMgr$1$[ebp], edx
; File C:\Program Files (x86)\Microsoft Visual Studio\2019\Community\VC\Tools\MSVC\14.28.29333\include\xtree

; 1240 :         return iterator(_Scary->_Myhead->_Left, _Scary);

  00049	8b 42 20	 mov	 eax, DWORD PTR [edx+32]
; File D:\Metin2 Server Files\mainline\SRC_2014\Metin2Client\UserInterface\PythonCharacterManager.h

; 132  : 			CharacterIterator(const TCharacterInstanceMap::iterator & it) : m_it(it) {}

  0004c	8b 30		 mov	 esi, DWORD PTR [eax]
; File C:\Program Files (x86)\Microsoft Visual Studio\2019\Community\VC\Tools\MSVC\14.28.29333\include\xtree

; 39   :     _Tree_unchecked_const_iterator(_Nodeptr _Pnode, const _Mytree* _Plist) noexcept : _Ptr(_Pnode) {

  0004e	3b f0		 cmp	 esi, eax
; File D:\Metin2 Server Files\mainline\SRC_2014\Metin2Client\UserInterface\NetworkActorManager.cpp

; 229  : 	for(CPythonCharacterManager::CharacterIterator i = rkChrMgr.CharacterInstanceBegin(); i!=rkChrMgr.CharacterInstanceEnd(); ++i)

  00050	74 78		 je	 SHORT $LN3@RemoveDyna
$LL42@RemoveDyna:

; 230  : 	{
; 231  : 		dwCharacterVIDList.push_back( (*i)->GetVirtualID() );

  00052	8b 4e 14	 mov	 ecx, DWORD PTR [esi+20]
  00055	e8 00 00 00 00	 call	 ?GetVirtualID@CInstanceBase@@QAEKXZ ; CInstanceBase::GetVirtualID
  0005a	89 45 ec	 mov	 DWORD PTR $T3[ebp], eax
; File C:\Program Files (x86)\Microsoft Visual Studio\2019\Community\VC\Tools\MSVC\14.28.29333\include\vector

; 704  :         if (_Mylast != _My_data._Myend) {

  0005d	3b fb		 cmp	 edi, ebx
  0005f	74 0a		 je	 SHORT $LN77@RemoveDyna

; 687  :         _Alty_traits::construct(_Getal(), _Unfancy(_Mylast), _STD forward<_Valty>(_Val)...);

  00061	89 07		 mov	 DWORD PTR [edi], eax

; 688  :         _Orphan_range(_Mylast, _Mylast);
; 689  :         _Ty& _Result = *_Mylast;
; 690  :         ++_Mylast;

  00063	83 c7 04	 add	 edi, 4
  00066	89 7d dc	 mov	 DWORD PTR _dwCharacterVIDList$[ebp+4], edi

; 705  :             return _Emplace_back_with_unused_capacity(_STD forward<_Valty>(_Val)...);

  00069	eb 13		 jmp	 SHORT $LN2@RemoveDyna
$LN77@RemoveDyna:

; 706  :         }
; 707  : 
; 708  :         _Ty& _Result = *_Emplace_reallocate(_Mylast, _STD forward<_Valty>(_Val)...);

  0006b	8d 45 ec	 lea	 eax, DWORD PTR $T3[ebp]
  0006e	50		 push	 eax
  0006f	57		 push	 edi
  00070	8d 4d d8	 lea	 ecx, DWORD PTR _dwCharacterVIDList$[ebp]
  00073	e8 00 00 00 00	 call	 ??$_Emplace_reallocate@K@?$vector@KV?$allocator@K@std@@@std@@QAEPAKQAK$$QAK@Z ; std::vector<unsigned long,std::allocator<unsigned long> >::_Emplace_reallocate<unsigned long>
  00078	8b 5d e0	 mov	 ebx, DWORD PTR _dwCharacterVIDList$[ebp+8]
  0007b	8b 7d dc	 mov	 edi, DWORD PTR _dwCharacterVIDList$[ebp+4]
$LN2@RemoveDyna:
; File C:\Program Files (x86)\Microsoft Visual Studio\2019\Community\VC\Tools\MSVC\14.28.29333\include\xtree

; 52   :         if (_Ptr->_Right->_Isnil) { // climb looking for right subtree

  0007e	8b 46 08	 mov	 eax, DWORD PTR [esi+8]
  00081	80 78 0d 00	 cmp	 BYTE PTR [eax+13], 0
  00085	74 1d		 je	 SHORT $LN41@RemoveDyna

; 53   :             _Nodeptr _Pnode;
; 54   :             while (!(_Pnode = _Ptr->_Parent)->_Isnil && _Ptr == _Pnode->_Right) {

  00087	8b 46 04	 mov	 eax, DWORD PTR [esi+4]
  0008a	80 78 0d 00	 cmp	 BYTE PTR [eax+13], 0
  0008e	75 10		 jne	 SHORT $LN40@RemoveDyna
$LL39@RemoveDyna:
  00090	3b 70 08	 cmp	 esi, DWORD PTR [eax+8]
  00093	75 0b		 jne	 SHORT $LN40@RemoveDyna

; 55   :                 _Ptr = _Pnode; // ==> parent while right subtree

  00095	8b f0		 mov	 esi, eax
  00097	8b 40 04	 mov	 eax, DWORD PTR [eax+4]
  0009a	80 78 0d 00	 cmp	 BYTE PTR [eax+13], 0
  0009e	74 f0		 je	 SHORT $LL39@RemoveDyna
$LN40@RemoveDyna:

; 56   :             }
; 57   : 
; 58   :             _Ptr = _Pnode; // ==> parent (head if end())

  000a0	8b f0		 mov	 esi, eax

; 59   :         } else {

  000a2	eb 18		 jmp	 SHORT $LN145@RemoveDyna
$LN41@RemoveDyna:

; 60   :             _Ptr = _Mytree::_Min(_Ptr->_Right); // ==> smallest of right subtree

  000a4	8b f0		 mov	 esi, eax

; 451  :         while (!_Pnode->_Left->_Isnil) {

  000a6	8b 0e		 mov	 ecx, DWORD PTR [esi]
  000a8	80 79 0d 00	 cmp	 BYTE PTR [ecx+13], 0
  000ac	75 0e		 jne	 SHORT $LN145@RemoveDyna
  000ae	66 90		 npad	 2
$LL45@RemoveDyna:
  000b0	8b 01		 mov	 eax, DWORD PTR [ecx]

; 452  :             _Pnode = _Pnode->_Left;

  000b2	8b f1		 mov	 esi, ecx
  000b4	8b c8		 mov	 ecx, eax
  000b6	80 78 0d 00	 cmp	 BYTE PTR [eax+13], 0
  000ba	74 f4		 je	 SHORT $LL45@RemoveDyna
$LN145@RemoveDyna:

; 232  :         return this->_Ptr == _Right._Ptr;

  000bc	8b 55 f0	 mov	 edx, DWORD PTR _rkChrMgr$1$[ebp]
  000bf	3b 72 20	 cmp	 esi, DWORD PTR [edx+32]
; File D:\Metin2 Server Files\mainline\SRC_2014\Metin2Client\UserInterface\NetworkActorManager.cpp

; 229  : 	for(CPythonCharacterManager::CharacterIterator i = rkChrMgr.CharacterInstanceBegin(); i!=rkChrMgr.CharacterInstanceEnd(); ++i)

  000c2	75 8e		 jne	 SHORT $LL42@RemoveDyna
  000c4	8b 4d d8	 mov	 ecx, DWORD PTR _dwCharacterVIDList$[ebp]
  000c7	89 5d ec	 mov	 DWORD PTR _dwCharacterVIDList$1$[ebp], ebx
$LN3@RemoveDyna:
; File C:\Program Files (x86)\Microsoft Visual Studio\2019\Community\VC\Tools\MSVC\14.28.29333\include\vector

; 1484 :         return static_cast<size_type>(_My_data._Mylast - _My_data._Myfirst);

  000ca	2b f9		 sub	 edi, ecx
  000cc	c1 ff 02	 sar	 edi, 2
; File D:\Metin2 Server Files\mainline\SRC_2014\Metin2Client\UserInterface\NetworkActorManager.cpp

; 234  : 	for( int i = 0; i < dwCharacterVIDList.size(); ++i )

  000cf	85 ff		 test	 edi, edi
  000d1	0f 84 83 00 00
	00		 je	 $LN6@RemoveDyna
  000d7	83 c2 04	 add	 edx, 4
  000da	8b f1		 mov	 esi, ecx
  000dc	89 55 e4	 mov	 DWORD PTR tv1035[ebp], edx
  000df	90		 npad	 1
$LL7@RemoveDyna:

; 235  : 	{
; 236  : 		CInstanceBase*  pkInstEach = rkChrMgr.GetInstancePtr( dwCharacterVIDList[i] );

  000e0	8b 02		 mov	 eax, DWORD PTR [edx]
  000e2	8b ca		 mov	 ecx, edx
  000e4	ff 36		 push	 DWORD PTR [esi]
  000e6	ff 50 08	 call	 DWORD PTR [eax+8]

; 237  : 		if( !pkInstEach )

  000e9	85 c0		 test	 eax, eax
  000eb	74 62		 je	 SHORT $LN5@RemoveDyna

; 238  : 			continue;
; 239  : 		
; 240  : 		CActorInstance* rkActorEach=pkInstEach->GetGraphicThingInstancePtr();

  000ed	8b c8		 mov	 ecx, eax
  000ef	e8 00 00 00 00	 call	 ?GetGraphicThingInstancePtr@CInstanceBase@@QAEPAVCActorInstance@@XZ ; CInstanceBase::GetGraphicThingInstancePtr
  000f4	8b d8		 mov	 ebx, eax

; 241  : 		if( rkActorEach->IsPC() || rkActorEach->IsNPC() || rkActorEach->IsEnemy() )

  000f6	8b cb		 mov	 ecx, ebx
  000f8	e8 00 00 00 00	 call	 ?IsPC@CActorInstance@@QAE_NXZ ; CActorInstance::IsPC
  000fd	84 c0		 test	 al, al
  000ff	75 16		 jne	 SHORT $LN10@RemoveDyna
  00101	8b cb		 mov	 ecx, ebx
  00103	e8 00 00 00 00	 call	 ?IsNPC@CActorInstance@@QAE_NXZ ; CActorInstance::IsNPC
  00108	84 c0		 test	 al, al
  0010a	75 0b		 jne	 SHORT $LN10@RemoveDyna
  0010c	8b cb		 mov	 ecx, ebx
  0010e	e8 00 00 00 00	 call	 ?IsEnemy@CActorInstance@@QAE_NXZ ; CActorInstance::IsEnemy
  00113	84 c0		 test	 al, al
  00115	74 38		 je	 SHORT $LN5@RemoveDyna
$LN10@RemoveDyna:

; 242  : 		{
; 243  : 			rkChrMgr.DeleteInstance(dwCharacterVIDList[i]);

  00117	ff 36		 push	 DWORD PTR [esi]
  00119	8b 4d f0	 mov	 ecx, DWORD PTR _rkChrMgr$1$[ebp]
  0011c	e8 00 00 00 00	 call	 ?DeleteInstance@CPythonCharacterManager@@QAEXK@Z ; CPythonCharacterManager::DeleteInstance

; 244  : 			std::map<DWORD, SNetworkActorData>::iterator it =m_kNetActorDict.find(dwCharacterVIDList[i]);

  00121	8b 5d e8	 mov	 ebx, DWORD PTR _this$1$[ebp]
; File C:\Program Files (x86)\Microsoft Visual Studio\2019\Community\VC\Tools\MSVC\14.28.29333\include\xtree

; 1458 :         const _Tree_find_result<_Nodeptr> _Loc = _Find_lower_bound(_Keyval);

  00124	8d 45 cc	 lea	 eax, DWORD PTR __Loc$2[ebp]
  00127	56		 push	 esi
  00128	50		 push	 eax
  00129	8d 4b 18	 lea	 ecx, DWORD PTR [ebx+24]
  0012c	e8 00 00 00 00	 call	 ??$_Find_lower_bound@K@?$_Tree@V?$_Tmap_traits@KUSNetworkActorData@@U?$less@K@std@@V?$allocator@U?$pair@$$CBKUSNetworkActorData@@@std@@@3@$0A@@std@@@std@@IBE?AU?$_Tree_find_result@PAU?$_Tree_node@U?$pair@$$CBKUSNetworkActorData@@@std@@PAX@std@@@1@ABK@Z ; std::_Tree<std::_Tmap_traits<unsigned long,SNetworkActorData,std::less<unsigned long>,std::allocator<std::pair<unsigned long const ,SNetworkActorData> >,0> >::_Find_lower_bound<unsigned long>

; 1695 :         return !_Bound->_Isnil && !_DEBUG_LT_PRED(_Getcomp(), _Keyval, _Traits::_Kfn(_Bound->_Myval));

  00131	8b 4d d4	 mov	 ecx, DWORD PTR __Loc$2[ebp+8]
  00134	80 79 0d 00	 cmp	 BYTE PTR [ecx+13], 0
  00138	75 15		 jne	 SHORT $LN5@RemoveDyna
; File C:\Program Files (x86)\Microsoft Visual Studio\2019\Community\VC\Tools\MSVC\14.28.29333\include\xstddef

; 127  :         return _Left < _Right;

  0013a	8b 06		 mov	 eax, DWORD PTR [esi]
  0013c	3b 41 10	 cmp	 eax, DWORD PTR [ecx+16]
; File C:\Program Files (x86)\Microsoft Visual Studio\2019\Community\VC\Tools\MSVC\14.28.29333\include\xtree

; 1695 :         return !_Bound->_Isnil && !_DEBUG_LT_PRED(_Getcomp(), _Keyval, _Traits::_Kfn(_Bound->_Myval));

  0013f	72 0e		 jb	 SHORT $LN5@RemoveDyna

; 39   :     _Tree_unchecked_const_iterator(_Nodeptr _Pnode, const _Mytree* _Plist) noexcept : _Ptr(_Pnode) {

  00141	3b 4b 18	 cmp	 ecx, DWORD PTR [ebx+24]
; File D:\Metin2 Server Files\mainline\SRC_2014\Metin2Client\UserInterface\NetworkActorManager.cpp

; 245  : 			if (it != m_kNetActorDict.end())

  00144	74 09		 je	 SHORT $LN5@RemoveDyna
; File C:\Program Files (x86)\Microsoft Visual Studio\2019\Community\VC\Tools\MSVC\14.28.29333\include\xtree

; 1419 :         return iterator(_Erase_unchecked(_Where._Unwrapped()), _Scary);

  00146	51		 push	 ecx
  00147	8d 4b 18	 lea	 ecx, DWORD PTR [ebx+24]
  0014a	e8 00 00 00 00	 call	 ?_Erase_unchecked@?$_Tree@V?$_Tmap_traits@KUSNetworkActorData@@U?$less@K@std@@V?$allocator@U?$pair@$$CBKUSNetworkActorData@@@std@@@3@$0A@@std@@@std@@AAEPAU?$_Tree_node@U?$pair@$$CBKUSNetworkActorData@@@std@@PAX@2@V?$_Tree_unchecked_const_iterator@V?$_Tree_val@U?$_Tree_simple_types@U?$pair@$$CBKUSNetworkActorData@@@std@@@std@@@std@@U_Iterator_base0@2@@2@@Z ; std::_Tree<std::_Tmap_traits<unsigned long,SNetworkActorData,std::less<unsigned long>,std::allocator<std::pair<unsigned long const ,SNetworkActorData> >,0> >::_Erase_unchecked
$LN5@RemoveDyna:
; File D:\Metin2 Server Files\mainline\SRC_2014\Metin2Client\UserInterface\NetworkActorManager.cpp

; 234  : 	for( int i = 0; i < dwCharacterVIDList.size(); ++i )

  0014f	8b 55 e4	 mov	 edx, DWORD PTR tv1035[ebp]
  00152	83 c6 04	 add	 esi, 4
  00155	83 ef 01	 sub	 edi, 1
  00158	75 86		 jne	 SHORT $LL7@RemoveDyna
$LN6@RemoveDyna:

; 246  : 			{
; 247  : 				m_kNetActorDict.erase(it);
; 248  : 			}
; 249  : 		}
; 250  : 	}
; 251  : 						
; 252  : 	rkChrMgr.DestroyDeadInstanceList();

  0015a	8b 4d f0	 mov	 ecx, DWORD PTR _rkChrMgr$1$[ebp]
  0015d	e8 00 00 00 00	 call	 ?DestroyDeadInstanceList@CPythonCharacterManager@@QAEXXZ ; CPythonCharacterManager::DestroyDeadInstanceList
; File C:\Program Files (x86)\Microsoft Visual Studio\2019\Community\VC\Tools\MSVC\14.28.29333\include\vector

; 1694 :         if (_Myfirst) { // destroy and deallocate old array

  00162	8b 4d d8	 mov	 ecx, DWORD PTR _dwCharacterVIDList$[ebp]
  00165	85 c9		 test	 ecx, ecx
  00167	74 12		 je	 SHORT $LN135@RemoveDyna

; 1695 :             _Destroy(_Myfirst, _Mylast);
; 1696 :             _Getal().deallocate(_Myfirst, static_cast<size_type>(_Myend - _Myfirst));

  00169	8b 45 ec	 mov	 eax, DWORD PTR _dwCharacterVIDList$1$[ebp]
  0016c	2b c1		 sub	 eax, ecx
; File C:\Program Files (x86)\Microsoft Visual Studio\2019\Community\VC\Tools\MSVC\14.28.29333\include\xmemory

; 810  :         _Deallocate<_New_alignof<_Ty>>(_Ptr, sizeof(_Ty) * _Count);

  0016e	83 e0 fc	 and	 eax, -4			; fffffffcH
  00171	50		 push	 eax
  00172	51		 push	 ecx
  00173	e8 00 00 00 00	 call	 ??$_Deallocate@$07$0A@@std@@YAXPAXI@Z ; std::_Deallocate<8,0>
  00178	83 c4 08	 add	 esp, 8
$LN135@RemoveDyna:
; File D:\Metin2 Server Files\mainline\SRC_2014\Metin2Client\UserInterface\NetworkActorManager.cpp

; 253  : }

  0017b	8b 4d f4	 mov	 ecx, DWORD PTR __$EHRec$[ebp]
  0017e	64 89 0d 00 00
	00 00		 mov	 DWORD PTR fs:0, ecx
  00185	59		 pop	 ecx
  00186	5f		 pop	 edi
  00187	5e		 pop	 esi
  00188	5b		 pop	 ebx
  00189	8b e5		 mov	 esp, ebp
  0018b	5d		 pop	 ebp
  0018c	c3		 ret	 0
_TEXT	ENDS
;	COMDAT text$x
text$x	SEGMENT
__unwindfunclet$?__RemoveDynamicActors@CNetworkActorManager@@IAEXXZ$0:
  00000	8d 4d d8	 lea	 ecx, DWORD PTR _dwCharacterVIDList$[ebp]
  00003	e9 00 00 00 00	 jmp	 ??1?$vector@KV?$allocator@K@std@@@std@@QAE@XZ ; std::vector<unsigned long,std::allocator<unsigned long> >::~vector<unsigned long,std::allocator<unsigned long> >
  00008	cc		 int	 3
  00009	cc		 int	 3
  0000a	cc		 int	 3
  0000b	cc		 int	 3
  0000c	cc		 int	 3
__ehhandler$?__RemoveDynamicActors@CNetworkActorManager@@IAEXXZ:
  0000d	90		 npad	 1
  0000e	90		 npad	 1
  0000f	8b 54 24 08	 mov	 edx, DWORD PTR [esp+8]
  00013	8d 42 0c	 lea	 eax, DWORD PTR [edx+12]
  00016	8b 4a c8	 mov	 ecx, DWORD PTR [edx-56]
  00019	33 c8		 xor	 ecx, eax
  0001b	e8 00 00 00 00	 call	 @__security_check_cookie@4
  00020	b8 00 00 00 00	 mov	 eax, OFFSET __ehfuncinfo$?__RemoveDynamicActors@CNetworkActorManager@@IAEXXZ
  00025	e9 00 00 00 00	 jmp	 ___CxxFrameHandler3
text$x	ENDS
?__RemoveDynamicActors@CNetworkActorManager@@IAEXXZ ENDP ; CNetworkActorManager::__RemoveDynamicActors
; Function compile flags: /Ogtp
; File D:\Metin2 Server Files\mainline\SRC_2014\Metin2Client\UserInterface\NetworkActorManager.cpp
; File C:\Program Files (x86)\Microsoft Visual Studio\2019\Community\VC\Tools\MSVC\14.28.29333\include\xtree
; File D:\Metin2 Server Files\mainline\SRC_2014\Metin2Client\UserInterface\NetworkActorManager.cpp
; File C:\Program Files (x86)\Microsoft Visual Studio\2019\Community\VC\Tools\MSVC\14.28.29333\include\xtree
; File D:\Metin2 Server Files\mainline\SRC_2014\Metin2Client\UserInterface\NetworkActorManager.cpp
;	COMDAT ?__RemoveAllActors@CNetworkActorManager@@IAEXXZ
_TEXT	SEGMENT
?__RemoveAllActors@CNetworkActorManager@@IAEXXZ PROC	; CNetworkActorManager::__RemoveAllActors, COMDAT
; _this$ = ecx

; 216  : {

  00000	56		 push	 esi
; File C:\Program Files (x86)\Microsoft Visual Studio\2019\Community\VC\Tools\MSVC\14.28.29333\include\xtree

; 1447 :         auto _Head = _Scary->_Myhead;

  00001	8b 71 18	 mov	 esi, DWORD PTR [ecx+24]
; File D:\Metin2 Server Files\mainline\SRC_2014\Metin2Client\UserInterface\NetworkActorManager.cpp

; 216  : {

  00004	57		 push	 edi

; 217  : 	m_kNetActorDict.clear();

  00005	8d 79 18	 lea	 edi, DWORD PTR [ecx+24]
; File C:\Program Files (x86)\Microsoft Visual Studio\2019\Community\VC\Tools\MSVC\14.28.29333\include\xtree

; 1448 :         _Scary->_Erase_tree(_Getal(), _Head->_Parent);

  00008	8b cf		 mov	 ecx, edi
  0000a	ff 76 04	 push	 DWORD PTR [esi+4]
  0000d	57		 push	 edi
  0000e	e8 00 00 00 00	 call	 ??$_Erase_tree@V?$allocator@U?$_Tree_node@U?$pair@$$CBKUSNetworkActorData@@@std@@PAX@std@@@std@@@?$_Tree_val@U?$_Tree_simple_types@U?$pair@$$CBKUSNetworkActorData@@@std@@@std@@@std@@QAEXAAV?$allocator@U?$_Tree_node@U?$pair@$$CBKUSNetworkActorData@@@std@@PAX@std@@@1@PAU?$_Tree_node@U?$pair@$$CBKUSNetworkActorData@@@std@@PAX@1@@Z ; std::_Tree_val<std::_Tree_simple_types<std::pair<unsigned long const ,SNetworkActorData> > >::_Erase_tree<std::allocator<std::_Tree_node<std::pair<unsigned long const ,SNetworkActorData>,void *> > >

; 1449 :         _Head->_Parent  = _Head;

  00013	89 76 04	 mov	 DWORD PTR [esi+4], esi

; 1450 :         _Head->_Left    = _Head;

  00016	89 36		 mov	 DWORD PTR [esi], esi

; 1451 :         _Head->_Right   = _Head;

  00018	89 76 08	 mov	 DWORD PTR [esi+8], esi

; 1452 :         _Scary->_Mysize = 0;

  0001b	c7 47 04 00 00
	00 00		 mov	 DWORD PTR [edi+4], 0
; File D:\Metin2 Server Files\mainline\SRC_2014\Metin2Client\UserInterface\NetworkActorManager.cpp

; 220  : 	rkChrMgr.DeleteAllInstances();

  00022	8b 0d 00 00 00
	00		 mov	 ecx, DWORD PTR ?ms_singleton@?$CSingleton@VCPythonCharacterManager@@@@0PAVCPythonCharacterManager@@A ; CSingleton<CPythonCharacterManager>::ms_singleton
  00028	5f		 pop	 edi
  00029	5e		 pop	 esi
  0002a	e9 00 00 00 00	 jmp	 ?DeleteAllInstances@CPythonCharacterManager@@QAEXXZ ; CPythonCharacterManager::DeleteAllInstances
?__RemoveAllActors@CNetworkActorManager@@IAEXXZ ENDP	; CNetworkActorManager::__RemoveAllActors
_TEXT	ENDS
; Function compile flags: /Ogtp
; File D:\Metin2 Server Files\mainline\SRC_2014\Metin2Client\UserInterface\NetworkActorManager.cpp
;	COMDAT ?__RemoveAllGroundItems@CNetworkActorManager@@IAEXXZ
_TEXT	SEGMENT
?__RemoveAllGroundItems@CNetworkActorManager@@IAEXXZ PROC ; CNetworkActorManager::__RemoveAllGroundItems, COMDAT
; _this$ = ecx

; 211  : 	CPythonItem& rkItemMgr=CPythonItem::Instance();
; 212  : 	rkItemMgr.DeleteAllItems();

  00000	8b 0d 00 00 00
	00		 mov	 ecx, DWORD PTR ?ms_singleton@?$CSingleton@VCPythonItem@@@@0PAVCPythonItem@@A ; CSingleton<CPythonItem>::ms_singleton
  00006	e9 00 00 00 00	 jmp	 ?DeleteAllItems@CPythonItem@@QAEXXZ ; CPythonItem::DeleteAllItems
?__RemoveAllGroundItems@CNetworkActorManager@@IAEXXZ ENDP ; CNetworkActorManager::__RemoveAllGroundItems
_TEXT	ENDS
; Function compile flags: /Ogtp
; File D:\Metin2 Server Files\mainline\SRC_2014\Metin2Client\UserInterface\NetworkActorManager.cpp
;	COMDAT ?__IsMainActorVID@CNetworkActorManager@@IAE_NK@Z
_TEXT	SEGMENT
_dwVID$ = 8						; size = 4
?__IsMainActorVID@CNetworkActorManager@@IAE_NK@Z PROC	; CNetworkActorManager::__IsMainActorVID, COMDAT
; _this$ = ecx

; 303  : {

  00000	55		 push	 ebp
  00001	8b ec		 mov	 ebp, esp

; 304  : 	if (dwVID == m_dwMainVID)

  00003	8b 45 08	 mov	 eax, DWORD PTR _dwVID$[ebp]
  00006	3b 41 0c	 cmp	 eax, DWORD PTR [ecx+12]
  00009	0f 94 c0	 sete	 al

; 305  : 		return true;
; 306  : 
; 307  : 	return false;
; 308  : }

  0000c	5d		 pop	 ebp
  0000d	c2 04 00	 ret	 4
?__IsMainActorVID@CNetworkActorManager@@IAE_NK@Z ENDP	; CNetworkActorManager::__IsMainActorVID
_TEXT	ENDS
; Function compile flags: /Ogtp
; File D:\Metin2 Server Files\mainline\SRC_2014\Metin2Client\UserInterface\NetworkActorManager.cpp
;	COMDAT ?__IsVisibleActor@CNetworkActorManager@@IAE_NABUSNetworkActorData@@@Z
_TEXT	SEGMENT
_c_rkNetActorData$ = 8					; size = 4
?__IsVisibleActor@CNetworkActorManager@@IAE_NABUSNetworkActorData@@@Z PROC ; CNetworkActorManager::__IsVisibleActor, COMDAT
; _this$ = ecx

; 272  : {

  00000	55		 push	 ebp
  00001	8b ec		 mov	 ebp, esp
  00003	56		 push	 esi

; 273  : 	if (__IsMainActorVID(c_rkNetActorData.m_dwVID))

  00004	8b 75 08	 mov	 esi, DWORD PTR _c_rkNetActorData$[ebp]
  00007	57		 push	 edi
  00008	8b f9		 mov	 edi, ecx
  0000a	ff 76 24	 push	 DWORD PTR [esi+36]
  0000d	e8 00 00 00 00	 call	 ?__IsMainActorVID@CNetworkActorManager@@IAE_NK@Z ; CNetworkActorManager::__IsMainActorVID
  00012	84 c0		 test	 al, al
  00014	75 34		 jne	 SHORT $LN7@IsVisibleA

; 274  : 		return true;
; 275  : 
; 276  : 	// 2004.08.02.myevan.  
; 277  : 	if (c_rkNetActorData.m_kAffectFlags.IsSet(CInstanceBase::AFFECT_SHOW_ALWAYS))

  00016	6a 07		 push	 7
  00018	8d 4e 18	 lea	 ecx, DWORD PTR [esi+24]
  0001b	e8 00 00 00 00	 call	 ?IsSet@CAffectFlagContainer@@QBE_NI@Z ; CAffectFlagContainer::IsSet
  00020	84 c0		 test	 al, al
  00022	75 26		 jne	 SHORT $LN7@IsVisibleA

; 278  : 		return true;
; 279  : 
; 280  : 	if (__IsVisiblePos(c_rkNetActorData.m_lCurX, c_rkNetActorData.m_lCurY))

  00024	ff 76 44	 push	 DWORD PTR [esi+68]
  00027	8b cf		 mov	 ecx, edi
  00029	ff 76 40	 push	 DWORD PTR [esi+64]
  0002c	e8 00 00 00 00	 call	 ?__IsVisiblePos@CNetworkActorManager@@IAE_NJJ@Z ; CNetworkActorManager::__IsVisiblePos
  00031	84 c0		 test	 al, al
  00033	75 15		 jne	 SHORT $LN7@IsVisibleA

; 281  : 		return true;
; 282  : 
; 283  : 	if (IsWall(c_rkNetActorData.m_dwRace))

  00035	ff 76 30	 push	 DWORD PTR [esi+48]
  00038	e8 00 00 00 00	 call	 ?IsWall@@YA_NI@Z	; IsWall
  0003d	83 c4 04	 add	 esp, 4
  00040	84 c0		 test	 al, al
  00042	75 06		 jne	 SHORT $LN7@IsVisibleA

; 285  : 
; 286  :  	return false;
; 287  : }

  00044	5f		 pop	 edi
  00045	5e		 pop	 esi
  00046	5d		 pop	 ebp
  00047	c2 04 00	 ret	 4
$LN7@IsVisibleA:
  0004a	5f		 pop	 edi

; 284  : 		return true;

  0004b	b0 01		 mov	 al, 1

; 285  : 
; 286  :  	return false;
; 287  : }

  0004d	5e		 pop	 esi
  0004e	5d		 pop	 ebp
  0004f	c2 04 00	 ret	 4
?__IsVisibleActor@CNetworkActorManager@@IAE_NABUSNetworkActorData@@@Z ENDP ; CNetworkActorManager::__IsVisibleActor
_TEXT	ENDS
; Function compile flags: /Ogtp
; File D:\Metin2 Server Files\mainline\SRC_2014\Metin2Client\UserInterface\NetworkActorManager.cpp
;	COMDAT ?__IsVisiblePos@CNetworkActorManager@@IAE_NJJ@Z
_TEXT	SEGMENT
_lPosX$ = 8						; size = 4
_lPosY$ = 12						; size = 4
?__IsVisiblePos@CNetworkActorManager@@IAE_NJJ@Z PROC	; CNetworkActorManager::__IsVisiblePos, COMDAT
; _this$ = ecx

; 290  : {

  00000	55		 push	 ebp
  00001	8b ec		 mov	 ebp, esp
  00003	83 e4 f8	 and	 esp, -8			; fffffff8H

; 291  :  	LONG dx = lPosX-m_lMainPosX;

  00006	8b 55 08	 mov	 edx, DWORD PTR _lPosX$[ebp]
  00009	0f 57 c9	 xorps	 xmm1, xmm1

; 292  : 	LONG dy = lPosY-m_lMainPosY;

  0000c	8b 45 0c	 mov	 eax, DWORD PTR _lPosY$[ebp]
  0000f	2b 41 14	 sub	 eax, DWORD PTR [ecx+20]
  00012	2b 51 10	 sub	 edx, DWORD PTR [ecx+16]

; 293  : 	LONG len = (LONG)sqrt(double(dx * dx + dy * dy));

  00015	0f af c0	 imul	 eax, eax
  00018	0f af d2	 imul	 edx, edx
  0001b	03 c2		 add	 eax, edx
  0001d	66 0f 6e c0	 movd	 xmm0, eax
  00021	f3 0f e6 c0	 cvtdq2pd xmm0, xmm0
  00025	66 0f 2e c8	 ucomisd xmm1, xmm0
  00029	77 17		 ja	 SHORT $LN4@IsVisibleP
  0002b	f2 0f 51 c0	 sqrtsd	 xmm0, xmm0
  0002f	f2 0f 2c c0	 cvttsd2si eax, xmm0

; 294  : 
; 295  : 	extern int CHAR_STAGE_VIEW_BOUND;
; 296  : 	if (len < CHAR_STAGE_VIEW_BOUND) //  cm

  00033	3b 05 00 00 00
	00		 cmp	 eax, DWORD PTR ?CHAR_STAGE_VIEW_BOUND@@3HA ; CHAR_STAGE_VIEW_BOUND
  00039	0f 9c c0	 setl	 al

; 297  : 		return true;
; 298  : 
; 299  : 	return false;
; 300  : }

  0003c	8b e5		 mov	 esp, ebp
  0003e	5d		 pop	 ebp
  0003f	c2 08 00	 ret	 8
$LN4@IsVisibleP:

; 293  : 	LONG len = (LONG)sqrt(double(dx * dx + dy * dy));

  00042	e8 00 00 00 00	 call	 __libm_sse2_sqrt_precise
  00047	f2 0f 2c c0	 cvttsd2si eax, xmm0

; 294  : 
; 295  : 	extern int CHAR_STAGE_VIEW_BOUND;
; 296  : 	if (len < CHAR_STAGE_VIEW_BOUND) //  cm

  0004b	3b 05 00 00 00
	00		 cmp	 eax, DWORD PTR ?CHAR_STAGE_VIEW_BOUND@@3HA ; CHAR_STAGE_VIEW_BOUND
  00051	0f 9c c0	 setl	 al

; 297  : 		return true;
; 298  : 
; 299  : 	return false;
; 300  : }

  00054	8b e5		 mov	 esp, ebp
  00056	5d		 pop	 ebp
  00057	c2 08 00	 ret	 8
?__IsVisiblePos@CNetworkActorManager@@IAE_NJJ@Z ENDP	; CNetworkActorManager::__IsVisiblePos
_TEXT	ENDS
; Function compile flags: /Ogtp
; File D:\Metin2 Server Files\mainline\SRC_2014\Metin2Client\UserInterface\NetworkActorManager.cpp
;	COMDAT ?__UpdateMainActor@CNetworkActorManager@@IAEXXZ
_TEXT	SEGMENT
_kPPosMain$ = -16					; size = 12
__$ArrayPad$ = -4					; size = 4
?__UpdateMainActor@CNetworkActorManager@@IAEXXZ PROC	; CNetworkActorManager::__UpdateMainActor, COMDAT
; _this$ = ecx

; 256  : {

  00000	55		 push	 ebp
  00001	8b ec		 mov	 ebp, esp
  00003	83 ec 10	 sub	 esp, 16			; 00000010H
  00006	a1 00 00 00 00	 mov	 eax, DWORD PTR ___security_cookie
  0000b	33 c5		 xor	 eax, ebp
  0000d	89 45 fc	 mov	 DWORD PTR __$ArrayPad$[ebp], eax
  00010	56		 push	 esi
  00011	8b f1		 mov	 esi, ecx

; 257  : 	CPythonCharacterManager & rkChrMgr = CPythonCharacterManager::Instance();	
; 258  : 	CInstanceBase* pkInstMain=rkChrMgr.GetMainInstancePtr();

  00013	8b 0d 00 00 00
	00		 mov	 ecx, DWORD PTR ?ms_singleton@?$CSingleton@VCPythonCharacterManager@@@@0PAVCPythonCharacterManager@@A ; CSingleton<CPythonCharacterManager>::ms_singleton
  00019	e8 00 00 00 00	 call	 ?GetMainInstancePtr@CPythonCharacterManager@@QAEPAVCInstanceBase@@XZ ; CPythonCharacterManager::GetMainInstancePtr

; 259  : 	if (!pkInstMain)

  0001e	85 c0		 test	 eax, eax
  00020	74 1b		 je	 SHORT $LN1@UpdateMain

; 260  : 		return;
; 261  : 
; 262  : 	TPixelPosition kPPosMain;
; 263  : 	pkInstMain->NEW_GetPixelPosition(&kPPosMain);

  00022	8d 4d f0	 lea	 ecx, DWORD PTR _kPPosMain$[ebp]
  00025	51		 push	 ecx
  00026	8b c8		 mov	 ecx, eax
  00028	e8 00 00 00 00	 call	 ?NEW_GetPixelPosition@CInstanceBase@@QAEXPAUD3DXVECTOR3@@@Z ; CInstanceBase::NEW_GetPixelPosition

; 264  : 
; 265  : 	m_lMainPosX=LONG(kPPosMain.x);

  0002d	f3 0f 2c 45 f0	 cvttss2si eax, DWORD PTR _kPPosMain$[ebp]
  00032	89 46 10	 mov	 DWORD PTR [esi+16], eax

; 266  : 	m_lMainPosY=LONG(kPPosMain.y);

  00035	f3 0f 2c 45 f4	 cvttss2si eax, DWORD PTR _kPPosMain$[ebp+4]
  0003a	89 46 14	 mov	 DWORD PTR [esi+20], eax
$LN1@UpdateMain:

; 267  : }

  0003d	8b 4d fc	 mov	 ecx, DWORD PTR __$ArrayPad$[ebp]
  00040	33 cd		 xor	 ecx, ebp
  00042	5e		 pop	 esi
  00043	e8 00 00 00 00	 call	 @__security_check_cookie@4
  00048	8b e5		 mov	 esp, ebp
  0004a	5d		 pop	 ebp
  0004b	c3		 ret	 0
?__UpdateMainActor@CNetworkActorManager@@IAEXXZ ENDP	; CNetworkActorManager::__UpdateMainActor
_TEXT	ENDS
; Function compile flags: /Ogtp
; File D:\Metin2 Server Files\mainline\SRC_2014\Metin2Client\UserInterface\NetworkActorManager.cpp
; File C:\Program Files (x86)\Microsoft Visual Studio\2019\Community\VC\Tools\MSVC\14.28.29333\include\xtree
; File D:\Metin2 Server Files\mainline\SRC_2014\Metin2Client\UserInterface\NetworkActorManager.cpp
; File C:\Program Files (x86)\Microsoft Visual Studio\2019\Community\VC\Tools\MSVC\14.28.29333\include\xtree
; File D:\Metin2 Server Files\mainline\SRC_2014\Metin2Client\UserInterface\NetworkActorManager.cpp
;	COMDAT ?__OLD_Update@CNetworkActorManager@@IAEXXZ
_TEXT	SEGMENT
_i$ = -4						; size = 4
?__OLD_Update@CNetworkActorManager@@IAEXXZ PROC		; CNetworkActorManager::__OLD_Update, COMDAT
; _this$ = ecx

; 159  : {

  00000	55		 push	 ebp
  00001	8b ec		 mov	 ebp, esp
  00003	51		 push	 ecx
  00004	56		 push	 esi
  00005	8b f1		 mov	 esi, ecx

; 160  : 	__UpdateMainActor();

  00007	e8 00 00 00 00	 call	 ?__UpdateMainActor@CNetworkActorManager@@IAEXXZ ; CNetworkActorManager::__UpdateMainActor

; 161  : 
; 162  : 	CPythonCharacterManager& rkChrMgr=__GetCharacterManager();

  0000c	8b ce		 mov	 ecx, esi
  0000e	e8 00 00 00 00	 call	 ?__GetCharacterManager@CNetworkActorManager@@IAEAAVCPythonCharacterManager@@XZ ; CNetworkActorManager::__GetCharacterManager
; File C:\Program Files (x86)\Microsoft Visual Studio\2019\Community\VC\Tools\MSVC\14.28.29333\include\xtree

; 1240 :         return iterator(_Scary->_Myhead->_Left, _Scary);

  00013	8b 4e 18	 mov	 ecx, DWORD PTR [esi+24]

; 39   :     _Tree_unchecked_const_iterator(_Nodeptr _Pnode, const _Mytree* _Plist) noexcept : _Ptr(_Pnode) {

  00016	8b 11		 mov	 edx, DWORD PTR [ecx]
; File D:\Metin2 Server Files\mainline\SRC_2014\Metin2Client\UserInterface\NetworkActorManager.cpp

; 165  : 	for (i=m_kNetActorDict.begin(); i!=m_kNetActorDict.end(); ++i)

  00018	89 55 fc	 mov	 DWORD PTR _i$[ebp], edx
  0001b	3b d1		 cmp	 edx, ecx
  0001d	74 43		 je	 SHORT $LN3@OLD_Update
  0001f	53		 push	 ebx
  00020	57		 push	 edi
  00021	8d 58 04	 lea	 ebx, DWORD PTR [eax+4]
$LL25@OLD_Update:

; 166  : 	{
; 167  : 		SNetworkActorData& rkNetActorData=i->second;

  00024	8d 7a 14	 lea	 edi, DWORD PTR [edx+20]

; 168  : 		rkNetActorData.UpdatePosition();

  00027	8b cf		 mov	 ecx, edi
  00029	e8 00 00 00 00	 call	 ?UpdatePosition@SNetworkActorData@@QAEXXZ ; SNetworkActorData::UpdatePosition

; 169  : 
; 170  : 		CInstanceBase * pkInstFind = rkChrMgr.GetInstancePtr(rkNetActorData.m_dwVID);

  0002e	8b 03		 mov	 eax, DWORD PTR [ebx]
  00030	8b cb		 mov	 ecx, ebx
  00032	ff 77 24	 push	 DWORD PTR [edi+36]
  00035	ff 50 08	 call	 DWORD PTR [eax+8]

; 171  : 		if (!pkInstFind)

  00038	85 c0		 test	 eax, eax
  0003a	75 14		 jne	 SHORT $LN2@OLD_Update

; 172  : 		{
; 173  : 			if (__IsVisibleActor(rkNetActorData))

  0003c	57		 push	 edi
  0003d	8b ce		 mov	 ecx, esi
  0003f	e8 00 00 00 00	 call	 ?__IsVisibleActor@CNetworkActorManager@@IAE_NABUSNetworkActorData@@@Z ; CNetworkActorManager::__IsVisibleActor
  00044	84 c0		 test	 al, al
  00046	74 08		 je	 SHORT $LN2@OLD_Update

; 174  : 				__AppendCharacterManagerActor(rkNetActorData);

  00048	57		 push	 edi
  00049	8b ce		 mov	 ecx, esi
  0004b	e8 00 00 00 00	 call	 ?__AppendCharacterManagerActor@CNetworkActorManager@@IAEPAVCInstanceBase@@AAUSNetworkActorData@@@Z ; CNetworkActorManager::__AppendCharacterManagerActor
$LN2@OLD_Update:
; File C:\Program Files (x86)\Microsoft Visual Studio\2019\Community\VC\Tools\MSVC\14.28.29333\include\xtree

; 198  :         _Mybase::operator++();

  00050	8d 4d fc	 lea	 ecx, DWORD PTR _i$[ebp]
  00053	e8 00 00 00 00	 call	 ??E?$_Tree_unchecked_const_iterator@V?$_Tree_val@U?$_Tree_simple_types@U?$pair@$$CBKUSNetworkActorData@@@std@@@std@@@std@@U_Iterator_base0@2@@std@@QAEAAV01@XZ ; std::_Tree_unchecked_const_iterator<std::_Tree_val<std::_Tree_simple_types<std::pair<unsigned long const ,SNetworkActorData> > >,std::_Iterator_base0>::operator++

; 232  :         return this->_Ptr == _Right._Ptr;

  00058	8b 55 fc	 mov	 edx, DWORD PTR _i$[ebp]
  0005b	3b 56 18	 cmp	 edx, DWORD PTR [esi+24]
; File D:\Metin2 Server Files\mainline\SRC_2014\Metin2Client\UserInterface\NetworkActorManager.cpp

; 165  : 	for (i=m_kNetActorDict.begin(); i!=m_kNetActorDict.end(); ++i)

  0005e	75 c4		 jne	 SHORT $LL25@OLD_Update
  00060	5f		 pop	 edi
  00061	5b		 pop	 ebx
$LN3@OLD_Update:
  00062	5e		 pop	 esi

; 175  : 		}
; 176  : 	}
; 177  : }

  00063	8b e5		 mov	 esp, ebp
  00065	5d		 pop	 ebp
  00066	c3		 ret	 0
?__OLD_Update@CNetworkActorManager@@IAEXXZ ENDP		; CNetworkActorManager::__OLD_Update
_TEXT	ENDS
; Function compile flags: /Ogtp
; File D:\Metin2 Server Files\mainline\SRC_2014\Metin2Client\UserInterface\NetworkActorManager.cpp
;	COMDAT ?Update@CNetworkActorManager@@QAEXXZ
_TEXT	SEGMENT
?Update@CNetworkActorManager@@QAEXXZ PROC		; CNetworkActorManager::Update, COMDAT
; _this$ = ecx

; 155  : 	__OLD_Update();

  00000	e9 00 00 00 00	 jmp	 ?__OLD_Update@CNetworkActorManager@@IAEXXZ ; CNetworkActorManager::__OLD_Update
?Update@CNetworkActorManager@@QAEXXZ ENDP		; CNetworkActorManager::Update
_TEXT	ENDS
; Function compile flags: /Ogtp
; File D:\Metin2 Server Files\mainline\SRC_2014\Metin2Client\UserInterface\NetworkActorManager.cpp
; File C:\Program Files (x86)\Microsoft Visual Studio\2019\Community\VC\Tools\MSVC\14.28.29333\include\xtree
; File C:\Program Files (x86)\Microsoft Visual Studio\2019\Community\VC\Tools\MSVC\14.28.29333\include\xstddef
; File C:\Program Files (x86)\Microsoft Visual Studio\2019\Community\VC\Tools\MSVC\14.28.29333\include\xtree
; File D:\Metin2 Server Files\mainline\SRC_2014\Metin2Client\UserInterface\NetworkActorManager.cpp
;	COMDAT ?SetActorOwner@CNetworkActorManager@@QAEXKK@Z
_TEXT	SEGMENT
__Loc$1 = -12						; size = 12
_dwOwnerVID$ = 8					; size = 4
_dwVictimVID$ = 12					; size = 4
?SetActorOwner@CNetworkActorManager@@QAEXKK@Z PROC	; CNetworkActorManager::SetActorOwner, COMDAT
; _this$ = ecx

; 562  : {

  00000	55		 push	 ebp
  00001	8b ec		 mov	 ebp, esp
  00003	83 ec 0c	 sub	 esp, 12			; 0000000cH
  00006	56		 push	 esi
  00007	57		 push	 edi
  00008	8b f9		 mov	 edi, ecx
; File C:\Program Files (x86)\Microsoft Visual Studio\2019\Community\VC\Tools\MSVC\14.28.29333\include\xtree

; 1458 :         const _Tree_find_result<_Nodeptr> _Loc = _Find_lower_bound(_Keyval);

  0000a	8d 45 0c	 lea	 eax, DWORD PTR _dwVictimVID$[ebp]
  0000d	50		 push	 eax
  0000e	8d 45 f4	 lea	 eax, DWORD PTR __Loc$1[ebp]
  00011	50		 push	 eax
  00012	8d 4f 18	 lea	 ecx, DWORD PTR [edi+24]
  00015	e8 00 00 00 00	 call	 ??$_Find_lower_bound@K@?$_Tree@V?$_Tmap_traits@KUSNetworkActorData@@U?$less@K@std@@V?$allocator@U?$pair@$$CBKUSNetworkActorData@@@std@@@3@$0A@@std@@@std@@IBE?AU?$_Tree_find_result@PAU?$_Tree_node@U?$pair@$$CBKUSNetworkActorData@@@std@@PAX@std@@@1@ABK@Z ; std::_Tree<std::_Tmap_traits<unsigned long,SNetworkActorData,std::less<unsigned long>,std::allocator<std::pair<unsigned long const ,SNetworkActorData> >,0> >::_Find_lower_bound<unsigned long>

; 1695 :         return !_Bound->_Isnil && !_DEBUG_LT_PRED(_Getcomp(), _Keyval, _Traits::_Kfn(_Bound->_Myval));

  0001a	8b 4d fc	 mov	 ecx, DWORD PTR __Loc$1[ebp+8]
  0001d	80 79 0d 00	 cmp	 BYTE PTR [ecx+13], 0
  00021	75 2c		 jne	 SHORT $LN3@SetActorOw
; File C:\Program Files (x86)\Microsoft Visual Studio\2019\Community\VC\Tools\MSVC\14.28.29333\include\xstddef

; 127  :         return _Left < _Right;

  00023	8b 45 0c	 mov	 eax, DWORD PTR _dwVictimVID$[ebp]
  00026	3b 41 10	 cmp	 eax, DWORD PTR [ecx+16]
; File C:\Program Files (x86)\Microsoft Visual Studio\2019\Community\VC\Tools\MSVC\14.28.29333\include\xtree

; 1695 :         return !_Bound->_Isnil && !_DEBUG_LT_PRED(_Getcomp(), _Keyval, _Traits::_Kfn(_Bound->_Myval));

  00029	72 24		 jb	 SHORT $LN3@SetActorOw

; 232  :         return this->_Ptr == _Right._Ptr;

  0002b	39 4f 18	 cmp	 DWORD PTR [edi+24], ecx
; File D:\Metin2 Server Files\mainline\SRC_2014\Metin2Client\UserInterface\NetworkActorManager.cpp

; 564  : 	if (m_kNetActorDict.end()==f)

  0002e	74 1f		 je	 SHORT $LN3@SetActorOw

; 565  : 	{
; 566  : #ifdef _DEBUG
; 567  : 		TraceError("CNetworkActorManager::SetActorOwner(dwOwnerVID=%d, dwVictimVID=%d) - NOT EXIST VID", dwOwnerVID, dwVictimVID);
; 568  : #endif
; 569  : 		return;
; 570  : 	}
; 571  : 
; 572  : 	SNetworkActorData& rkNetActorData=f->second;
; 573  : 	rkNetActorData.m_dwOwnerVID=dwOwnerVID;	

  00030	8b 45 08	 mov	 eax, DWORD PTR _dwOwnerVID$[ebp]
  00033	8d 71 14	 lea	 esi, DWORD PTR [ecx+20]

; 574  : 
; 575  : 	CInstanceBase* pkInstFind=__FindActor(rkNetActorData);

  00036	56		 push	 esi
  00037	8b cf		 mov	 ecx, edi
  00039	89 46 70	 mov	 DWORD PTR [esi+112], eax
  0003c	e8 00 00 00 00	 call	 ?__FindActor@CNetworkActorManager@@IAEPAVCInstanceBase@@AAUSNetworkActorData@@@Z ; CNetworkActorManager::__FindActor

; 576  : 	if (pkInstFind)

  00041	85 c0		 test	 eax, eax
  00043	74 0a		 je	 SHORT $LN3@SetActorOw

; 577  : 	{
; 578  : 		pkInstFind->NEW_SetOwner(rkNetActorData.m_dwOwnerVID);	

  00045	ff 76 70	 push	 DWORD PTR [esi+112]
  00048	8b c8		 mov	 ecx, eax
  0004a	e8 00 00 00 00	 call	 ?NEW_SetOwner@CInstanceBase@@QAEXK@Z ; CInstanceBase::NEW_SetOwner
$LN3@SetActorOw:

; 579  : 	}
; 580  : 		
; 581  : 	
; 582  : }

  0004f	5f		 pop	 edi
  00050	5e		 pop	 esi
  00051	8b e5		 mov	 esp, ebp
  00053	5d		 pop	 ebp
  00054	c2 08 00	 ret	 8
?SetActorOwner@CNetworkActorManager@@QAEXKK@Z ENDP	; CNetworkActorManager::SetActorOwner
_TEXT	ENDS
; Function compile flags: /Ogtp
; File D:\Metin2 Server Files\mainline\SRC_2014\Metin2Client\UserInterface\NetworkActorManager.cpp
; File C:\Program Files (x86)\Microsoft Visual Studio\2019\Community\VC\Tools\MSVC\14.28.29333\include\xtree
; File C:\Program Files (x86)\Microsoft Visual Studio\2019\Community\VC\Tools\MSVC\14.28.29333\include\xstddef
; File C:\Program Files (x86)\Microsoft Visual Studio\2019\Community\VC\Tools\MSVC\14.28.29333\include\xtree
; File D:\Metin2 Server Files\mainline\SRC_2014\Metin2Client\UserInterface\NetworkActorManager.cpp
;	COMDAT ?SyncActor@CNetworkActorManager@@QAEXKJJ@Z
_TEXT	SEGMENT
__Loc$1 = -12						; size = 12
_dwVID$ = 8						; size = 4
_lPosX$ = 12						; size = 4
_lPosY$ = 16						; size = 4
?SyncActor@CNetworkActorManager@@QAEXKJJ@Z PROC		; CNetworkActorManager::SyncActor, COMDAT
; _this$ = ecx

; 540  : {

  00000	55		 push	 ebp
  00001	8b ec		 mov	 ebp, esp
  00003	83 ec 0c	 sub	 esp, 12			; 0000000cH
  00006	56		 push	 esi
  00007	57		 push	 edi
  00008	8b f9		 mov	 edi, ecx
; File C:\Program Files (x86)\Microsoft Visual Studio\2019\Community\VC\Tools\MSVC\14.28.29333\include\xtree

; 1458 :         const _Tree_find_result<_Nodeptr> _Loc = _Find_lower_bound(_Keyval);

  0000a	8d 45 08	 lea	 eax, DWORD PTR _dwVID$[ebp]
  0000d	50		 push	 eax
  0000e	8d 45 f4	 lea	 eax, DWORD PTR __Loc$1[ebp]
  00011	50		 push	 eax
  00012	8d 4f 18	 lea	 ecx, DWORD PTR [edi+24]
  00015	e8 00 00 00 00	 call	 ??$_Find_lower_bound@K@?$_Tree@V?$_Tmap_traits@KUSNetworkActorData@@U?$less@K@std@@V?$allocator@U?$pair@$$CBKUSNetworkActorData@@@std@@@3@$0A@@std@@@std@@IBE?AU?$_Tree_find_result@PAU?$_Tree_node@U?$pair@$$CBKUSNetworkActorData@@@std@@PAX@std@@@1@ABK@Z ; std::_Tree<std::_Tmap_traits<unsigned long,SNetworkActorData,std::less<unsigned long>,std::allocator<std::pair<unsigned long const ,SNetworkActorData> >,0> >::_Find_lower_bound<unsigned long>

; 1695 :         return !_Bound->_Isnil && !_DEBUG_LT_PRED(_Getcomp(), _Keyval, _Traits::_Kfn(_Bound->_Myval));

  0001a	8b 4d fc	 mov	 ecx, DWORD PTR __Loc$1[ebp+8]
  0001d	80 79 0d 00	 cmp	 BYTE PTR [ecx+13], 0
  00021	75 38		 jne	 SHORT $LN1@SyncActor
; File C:\Program Files (x86)\Microsoft Visual Studio\2019\Community\VC\Tools\MSVC\14.28.29333\include\xstddef

; 127  :         return _Left < _Right;

  00023	8b 45 08	 mov	 eax, DWORD PTR _dwVID$[ebp]
  00026	3b 41 10	 cmp	 eax, DWORD PTR [ecx+16]
; File C:\Program Files (x86)\Microsoft Visual Studio\2019\Community\VC\Tools\MSVC\14.28.29333\include\xtree

; 1695 :         return !_Bound->_Isnil && !_DEBUG_LT_PRED(_Getcomp(), _Keyval, _Traits::_Kfn(_Bound->_Myval));

  00029	72 30		 jb	 SHORT $LN1@SyncActor

; 232  :         return this->_Ptr == _Right._Ptr;

  0002b	39 4f 18	 cmp	 DWORD PTR [edi+24], ecx
; File D:\Metin2 Server Files\mainline\SRC_2014\Metin2Client\UserInterface\NetworkActorManager.cpp

; 542  : 	if (m_kNetActorDict.end()==f)

  0002e	74 2b		 je	 SHORT $LN1@SyncActor

; 543  : 	{
; 544  : #ifdef _DEBUG
; 545  : 		TraceError("CNetworkActorManager::SyncActor(dwVID=%d) - NOT EXIST VID", dwVID);
; 546  : #endif
; 547  : 		return;
; 548  : 	}
; 549  : 
; 550  : 	SNetworkActorData& rkNetActorData=f->second;

  00030	8d 71 14	 lea	 esi, DWORD PTR [ecx+20]

; 551  : 
; 552  : 	CInstanceBase* pkInstFind=__FindActor(rkNetActorData);

  00033	8b cf		 mov	 ecx, edi
  00035	56		 push	 esi
  00036	e8 00 00 00 00	 call	 ?__FindActor@CNetworkActorManager@@IAEPAVCInstanceBase@@AAUSNetworkActorData@@@Z ; CNetworkActorManager::__FindActor

; 553  : 	if (pkInstFind)

  0003b	85 c0		 test	 eax, eax
  0003d	74 0f		 je	 SHORT $LN3@SyncActor

; 554  : 	{
; 555  : 		pkInstFind->NEW_SyncPixelPosition(lPosX, lPosY);			

  0003f	8d 4d 10	 lea	 ecx, DWORD PTR _lPosY$[ebp]
  00042	51		 push	 ecx
  00043	8d 4d 0c	 lea	 ecx, DWORD PTR _lPosX$[ebp]
  00046	51		 push	 ecx
  00047	8b c8		 mov	 ecx, eax
  00049	e8 00 00 00 00	 call	 ?NEW_SyncPixelPosition@CInstanceBase@@QAEXAAJ0@Z ; CInstanceBase::NEW_SyncPixelPosition
$LN3@SyncActor:

; 556  : 	}
; 557  : 	
; 558  : 	rkNetActorData.SetPosition(lPosX, lPosY);	

  0004e	ff 75 10	 push	 DWORD PTR _lPosY$[ebp]
  00051	8b ce		 mov	 ecx, esi
  00053	ff 75 0c	 push	 DWORD PTR _lPosX$[ebp]
  00056	e8 00 00 00 00	 call	 ?SetPosition@SNetworkActorData@@QAEXJJ@Z ; SNetworkActorData::SetPosition
$LN1@SyncActor:

; 559  : }

  0005b	5f		 pop	 edi
  0005c	5e		 pop	 esi
  0005d	8b e5		 mov	 esp, ebp
  0005f	5d		 pop	 ebp
  00060	c2 0c 00	 ret	 12			; 0000000cH
?SyncActor@CNetworkActorManager@@QAEXKJJ@Z ENDP		; CNetworkActorManager::SyncActor
_TEXT	ENDS
; Function compile flags: /Ogtp
; File D:\Metin2 Server Files\mainline\SRC_2014\Metin2Client\UserInterface\NetworkActorManager.cpp
; File C:\Program Files (x86)\Microsoft Visual Studio\2019\Community\VC\Tools\MSVC\14.28.29333\include\xtree
; File D:\Metin2 Server Files\mainline\SRC_2014\Metin2Client\UserInterface\NetworkActorManager.cpp
; File C:\Program Files (x86)\Microsoft Visual Studio\2019\Community\VC\Tools\MSVC\14.28.29333\include\xtree
; File D:\Metin2 Server Files\mainline\SRC_2014\Metin2Client\UserInterface\NetworkActorManager.cpp
; File C:\Program Files (x86)\Microsoft Visual Studio\2019\Community\VC\Tools\MSVC\14.28.29333\include\xtree
; File C:\Program Files (x86)\Microsoft Visual Studio\2019\Community\VC\Tools\MSVC\14.28.29333\include\xstddef
; File C:\Program Files (x86)\Microsoft Visual Studio\2019\Community\VC\Tools\MSVC\14.28.29333\include\xtree
; File D:\Metin2 Server Files\mainline\SRC_2014\Metin2Client\UserInterface\NetworkActorManager.cpp
;	COMDAT ?MoveActor@CNetworkActorManager@@QAEXABUSNetworkMoveActorData@@@Z
_TEXT	SEGMENT
__Loc$1 = -16						; size = 12
_kPPosDst$2 = -16					; size = 12
__$ArrayPad$ = -4					; size = 4
_c_rkNetMoveActorData$ = 8				; size = 4
?MoveActor@CNetworkActorManager@@QAEXABUSNetworkMoveActorData@@@Z PROC ; CNetworkActorManager::MoveActor, COMDAT
; _this$ = ecx

; 510  : {

  00000	55		 push	 ebp
  00001	8b ec		 mov	 ebp, esp
  00003	83 ec 10	 sub	 esp, 16			; 00000010H
  00006	a1 00 00 00 00	 mov	 eax, DWORD PTR ___security_cookie
  0000b	33 c5		 xor	 eax, ebp
  0000d	89 45 fc	 mov	 DWORD PTR __$ArrayPad$[ebp], eax
  00010	56		 push	 esi
  00011	8b 75 08	 mov	 esi, DWORD PTR _c_rkNetMoveActorData$[ebp]
; File C:\Program Files (x86)\Microsoft Visual Studio\2019\Community\VC\Tools\MSVC\14.28.29333\include\xtree

; 1458 :         const _Tree_find_result<_Nodeptr> _Loc = _Find_lower_bound(_Keyval);

  00014	8d 45 f0	 lea	 eax, DWORD PTR __Loc$1[ebp]
; File D:\Metin2 Server Files\mainline\SRC_2014\Metin2Client\UserInterface\NetworkActorManager.cpp

; 510  : {

  00017	57		 push	 edi
  00018	8b f9		 mov	 edi, ecx
; File C:\Program Files (x86)\Microsoft Visual Studio\2019\Community\VC\Tools\MSVC\14.28.29333\include\xtree

; 1458 :         const _Tree_find_result<_Nodeptr> _Loc = _Find_lower_bound(_Keyval);

  0001a	56		 push	 esi
  0001b	50		 push	 eax
; File D:\Metin2 Server Files\mainline\SRC_2014\Metin2Client\UserInterface\NetworkActorManager.cpp

; 511  : 	std::map<DWORD, SNetworkActorData>::iterator f=m_kNetActorDict.find(c_rkNetMoveActorData.m_dwVID);

  0001c	8d 4f 18	 lea	 ecx, DWORD PTR [edi+24]
; File C:\Program Files (x86)\Microsoft Visual Studio\2019\Community\VC\Tools\MSVC\14.28.29333\include\xtree

; 1458 :         const _Tree_find_result<_Nodeptr> _Loc = _Find_lower_bound(_Keyval);

  0001f	e8 00 00 00 00	 call	 ??$_Find_lower_bound@K@?$_Tree@V?$_Tmap_traits@KUSNetworkActorData@@U?$less@K@std@@V?$allocator@U?$pair@$$CBKUSNetworkActorData@@@std@@@3@$0A@@std@@@std@@IBE?AU?$_Tree_find_result@PAU?$_Tree_node@U?$pair@$$CBKUSNetworkActorData@@@std@@PAX@std@@@1@ABK@Z ; std::_Tree<std::_Tmap_traits<unsigned long,SNetworkActorData,std::less<unsigned long>,std::allocator<std::pair<unsigned long const ,SNetworkActorData> >,0> >::_Find_lower_bound<unsigned long>

; 1695 :         return !_Bound->_Isnil && !_DEBUG_LT_PRED(_Getcomp(), _Keyval, _Traits::_Kfn(_Bound->_Myval));

  00024	8b 55 f8	 mov	 edx, DWORD PTR __Loc$1[ebp+8]
  00027	80 7a 0d 00	 cmp	 BYTE PTR [edx+13], 0
  0002b	75 7c		 jne	 SHORT $LN1@MoveActor
; File C:\Program Files (x86)\Microsoft Visual Studio\2019\Community\VC\Tools\MSVC\14.28.29333\include\xstddef

; 127  :         return _Left < _Right;

  0002d	8b 06		 mov	 eax, DWORD PTR [esi]
  0002f	3b 42 10	 cmp	 eax, DWORD PTR [edx+16]
; File C:\Program Files (x86)\Microsoft Visual Studio\2019\Community\VC\Tools\MSVC\14.28.29333\include\xtree

; 1695 :         return !_Bound->_Isnil && !_DEBUG_LT_PRED(_Getcomp(), _Keyval, _Traits::_Kfn(_Bound->_Myval));

  00032	72 75		 jb	 SHORT $LN1@MoveActor

; 232  :         return this->_Ptr == _Right._Ptr;

  00034	39 57 18	 cmp	 DWORD PTR [edi+24], edx
; File D:\Metin2 Server Files\mainline\SRC_2014\Metin2Client\UserInterface\NetworkActorManager.cpp

; 512  : 	if (m_kNetActorDict.end()==f)

  00037	74 70		 je	 SHORT $LN1@MoveActor

; 513  : 	{
; 514  : #ifdef _DEBUG
; 515  : 		TraceError("CNetworkActorManager::MoveActor(dwVID=%d) - NOT EXIST VID", c_rkNetMoveActorData.m_dwVID);
; 516  : #endif
; 517  : 		return;
; 518  : 	}
; 519  : 
; 520  : 	SNetworkActorData& rkNetActorData=f->second;

  00039	53		 push	 ebx

; 521  : 
; 522  : 	CInstanceBase* pkInstFind=__FindActor(rkNetActorData, c_rkNetMoveActorData.m_lPosX, c_rkNetMoveActorData.m_lPosY);

  0003a	ff 76 0c	 push	 DWORD PTR [esi+12]
  0003d	8d 5a 14	 lea	 ebx, DWORD PTR [edx+20]
  00040	8b cf		 mov	 ecx, edi
  00042	ff 76 08	 push	 DWORD PTR [esi+8]
  00045	53		 push	 ebx
  00046	e8 00 00 00 00	 call	 ?__FindActor@CNetworkActorManager@@IAEPAVCInstanceBase@@AAUSNetworkActorData@@JJ@Z ; CNetworkActorManager::__FindActor

; 523  : 	if (pkInstFind)

  0004b	85 c0		 test	 eax, eax
  0004d	74 40		 je	 SHORT $LN3@MoveActor

; 524  : 	{
; 525  : 		TPixelPosition kPPosDst;
; 526  : 		kPPosDst.x=float(c_rkNetMoveActorData.m_lPosX);
; 527  : 		kPPosDst.y=float(c_rkNetMoveActorData.m_lPosY);
; 528  : 		kPPosDst.z=0.0f;
; 529  : 
; 530  : 		pkInstFind->PushTCPState(c_rkNetMoveActorData.m_dwTime, kPPosDst, 

  0004f	66 0f 6e 46 08	 movd	 xmm0, DWORD PTR [esi+8]
  00054	ff 76 18	 push	 DWORD PTR [esi+24]
  00057	0f 5b c0	 cvtdq2ps xmm0, xmm0
  0005a	c7 45 f8 00 00
	00 00		 mov	 DWORD PTR _kPPosDst$2[ebp+8], 0
  00061	ff 76 14	 push	 DWORD PTR [esi+20]
  00064	f3 0f 11 45 f0	 movss	 DWORD PTR _kPPosDst$2[ebp], xmm0
  00069	66 0f 6e 46 0c	 movd	 xmm0, DWORD PTR [esi+12]
  0006e	0f 5b c0	 cvtdq2ps xmm0, xmm0
  00071	51		 push	 ecx
  00072	8d 4d f0	 lea	 ecx, DWORD PTR _kPPosDst$2[ebp]
  00075	f3 0f 11 45 f4	 movss	 DWORD PTR _kPPosDst$2[ebp+4], xmm0
  0007a	f3 0f 10 46 10	 movss	 xmm0, DWORD PTR [esi+16]
  0007f	f3 0f 11 04 24	 movss	 DWORD PTR [esp], xmm0
  00084	51		 push	 ecx
  00085	ff 76 04	 push	 DWORD PTR [esi+4]
  00088	8b c8		 mov	 ecx, eax
  0008a	e8 00 00 00 00	 call	 ?PushTCPState@CInstanceBase@@QAEXKABUD3DXVECTOR3@@MII@Z ; CInstanceBase::PushTCPState
$LN3@MoveActor:

; 531  : 			c_rkNetMoveActorData.m_fRot, c_rkNetMoveActorData.m_dwFunc, c_rkNetMoveActorData.m_dwArg);	
; 532  : 	}
; 533  : 
; 534  : 	rkNetActorData.SetDstPosition(c_rkNetMoveActorData.m_dwTime,

  0008f	ff 76 1c	 push	 DWORD PTR [esi+28]
  00092	8b cb		 mov	 ecx, ebx
  00094	ff 76 0c	 push	 DWORD PTR [esi+12]
  00097	ff 76 08	 push	 DWORD PTR [esi+8]
  0009a	ff 76 04	 push	 DWORD PTR [esi+4]
  0009d	e8 00 00 00 00	 call	 ?SetDstPosition@SNetworkActorData@@QAEXKJJK@Z ; SNetworkActorData::SetDstPosition

; 535  : 		c_rkNetMoveActorData.m_lPosX, c_rkNetMoveActorData.m_lPosY, c_rkNetMoveActorData.m_dwDuration);
; 536  : 	rkNetActorData.m_fRot=c_rkNetMoveActorData.m_fRot;		

  000a2	8b 46 10	 mov	 eax, DWORD PTR [esi+16]
  000a5	89 43 3c	 mov	 DWORD PTR [ebx+60], eax
  000a8	5b		 pop	 ebx
$LN1@MoveActor:

; 537  : }

  000a9	8b 4d fc	 mov	 ecx, DWORD PTR __$ArrayPad$[ebp]
  000ac	5f		 pop	 edi
  000ad	33 cd		 xor	 ecx, ebp
  000af	5e		 pop	 esi
  000b0	e8 00 00 00 00	 call	 @__security_check_cookie@4
  000b5	8b e5		 mov	 esp, ebp
  000b7	5d		 pop	 ebp
  000b8	c2 04 00	 ret	 4
?MoveActor@CNetworkActorManager@@QAEXABUSNetworkMoveActorData@@@Z ENDP ; CNetworkActorManager::MoveActor
_TEXT	ENDS
; Function compile flags: /Ogtp
; File D:\Metin2 Server Files\mainline\SRC_2014\Metin2Client\UserInterface\NetworkActorManager.cpp
; File C:\Program Files (x86)\Microsoft Visual Studio\2019\Community\VC\Tools\MSVC\14.28.29333\include\xtree
; File D:\Metin2 Server Files\mainline\SRC_2014\Metin2Client\UserInterface\NetworkActorManager.cpp
; File C:\Program Files (x86)\Microsoft Visual Studio\2019\Community\VC\Tools\MSVC\14.28.29333\include\xtree
; File C:\Program Files (x86)\Microsoft Visual Studio\2019\Community\VC\Tools\MSVC\14.28.29333\include\xstddef
; File C:\Program Files (x86)\Microsoft Visual Studio\2019\Community\VC\Tools\MSVC\14.28.29333\include\xtree
; File D:\Metin2 Server Files\mainline\SRC_2014\Metin2Client\UserInterface\NetworkActorManager.cpp
;	COMDAT ?UpdateActor@CNetworkActorManager@@QAEXABUSNetworkUpdateActorData@@@Z
_TEXT	SEGMENT
__Loc$1 = -16						; size = 12
_this$1$ = -4						; size = 4
_c_rkNetUpdateActorData$ = 8				; size = 4
?UpdateActor@CNetworkActorManager@@QAEXABUSNetworkUpdateActorData@@@Z PROC ; CNetworkActorManager::UpdateActor, COMDAT
; _this$ = ecx

; 458  : {

  00000	55		 push	 ebp
  00001	8b ec		 mov	 ebp, esp
  00003	83 ec 10	 sub	 esp, 16			; 00000010H
  00006	53		 push	 ebx
  00007	8b c1		 mov	 eax, ecx
  00009	56		 push	 esi
; File C:\Program Files (x86)\Microsoft Visual Studio\2019\Community\VC\Tools\MSVC\14.28.29333\include\xtree

; 1458 :         const _Tree_find_result<_Nodeptr> _Loc = _Find_lower_bound(_Keyval);

  0000a	8b 75 08	 mov	 esi, DWORD PTR _c_rkNetUpdateActorData$[ebp]
; File D:\Metin2 Server Files\mainline\SRC_2014\Metin2Client\UserInterface\NetworkActorManager.cpp

; 458  : {

  0000d	57		 push	 edi

; 459  : 	std::map<DWORD, SNetworkActorData>::iterator f=m_kNetActorDict.find(c_rkNetUpdateActorData.m_dwVID);

  0000e	8d 58 18	 lea	 ebx, DWORD PTR [eax+24]
  00011	89 45 fc	 mov	 DWORD PTR _this$1$[ebp], eax
; File C:\Program Files (x86)\Microsoft Visual Studio\2019\Community\VC\Tools\MSVC\14.28.29333\include\xtree

; 1458 :         const _Tree_find_result<_Nodeptr> _Loc = _Find_lower_bound(_Keyval);

  00014	56		 push	 esi
  00015	8d 45 f0	 lea	 eax, DWORD PTR __Loc$1[ebp]
  00018	8b cb		 mov	 ecx, ebx
  0001a	50		 push	 eax
  0001b	e8 00 00 00 00	 call	 ??$_Find_lower_bound@K@?$_Tree@V?$_Tmap_traits@KUSNetworkActorData@@U?$less@K@std@@V?$allocator@U?$pair@$$CBKUSNetworkActorData@@@std@@@3@$0A@@std@@@std@@IBE?AU?$_Tree_find_result@PAU?$_Tree_node@U?$pair@$$CBKUSNetworkActorData@@@std@@PAX@std@@@1@ABK@Z ; std::_Tree<std::_Tmap_traits<unsigned long,SNetworkActorData,std::less<unsigned long>,std::allocator<std::pair<unsigned long const ,SNetworkActorData> >,0> >::_Find_lower_bound<unsigned long>

; 1695 :         return !_Bound->_Isnil && !_DEBUG_LT_PRED(_Getcomp(), _Keyval, _Traits::_Kfn(_Bound->_Myval));

  00020	8b 7d f8	 mov	 edi, DWORD PTR __Loc$1[ebp+8]
  00023	80 7f 0d 00	 cmp	 BYTE PTR [edi+13], 0
  00027	0f 85 cc 00 00
	00		 jne	 $LN1@UpdateActo
; File C:\Program Files (x86)\Microsoft Visual Studio\2019\Community\VC\Tools\MSVC\14.28.29333\include\xstddef

; 127  :         return _Left < _Right;

  0002d	8b 06		 mov	 eax, DWORD PTR [esi]
  0002f	3b 47 10	 cmp	 eax, DWORD PTR [edi+16]
; File C:\Program Files (x86)\Microsoft Visual Studio\2019\Community\VC\Tools\MSVC\14.28.29333\include\xtree

; 1695 :         return !_Bound->_Isnil && !_DEBUG_LT_PRED(_Getcomp(), _Keyval, _Traits::_Kfn(_Bound->_Myval));

  00032	0f 82 c1 00 00
	00		 jb	 $LN1@UpdateActo

; 232  :         return this->_Ptr == _Right._Ptr;

  00038	39 3b		 cmp	 DWORD PTR [ebx], edi
; File D:\Metin2 Server Files\mainline\SRC_2014\Metin2Client\UserInterface\NetworkActorManager.cpp

; 460  : 	if (m_kNetActorDict.end()==f)

  0003a	0f 84 b9 00 00
	00		 je	 $LN1@UpdateActo

; 461  : 	{
; 462  : #ifdef _DEBUG
; 463  : 		TraceError("CNetworkActorManager::UpdateActor(dwVID=%d) - NOT EXIST VID", c_rkNetUpdateActorData.m_dwVID);
; 464  : #endif
; 465  : 		return;
; 466  : 	}
; 467  : 
; 468  : 	SNetworkActorData& rkNetActorData=f->second;
; 469  : 
; 470  : 	CInstanceBase* pkInstFind=__FindActor(rkNetActorData);

  00040	8b 4d fc	 mov	 ecx, DWORD PTR _this$1$[ebp]
  00043	83 c7 14	 add	 edi, 20			; 00000014H
  00046	57		 push	 edi
  00047	e8 00 00 00 00	 call	 ?__FindActor@CNetworkActorManager@@IAEPAVCInstanceBase@@AAUSNetworkActorData@@@Z ; CNetworkActorManager::__FindActor
  0004c	8b d8		 mov	 ebx, eax

; 471  : 	if (pkInstFind)

  0004e	85 db		 test	 ebx, ebx
  00050	74 69		 je	 SHORT $LN3@UpdateActo

; 472  : 	{
; 473  : 		pkInstFind->ChangeArmor(c_rkNetUpdateActorData.m_dwArmor);		

  00052	ff 76 08	 push	 DWORD PTR [esi+8]
  00055	8b cb		 mov	 ecx, ebx
  00057	e8 00 00 00 00	 call	 ?ChangeArmor@CInstanceBase@@QAE_NK@Z ; CInstanceBase::ChangeArmor

; 474  : 		pkInstFind->ChangeWeapon(c_rkNetUpdateActorData.m_dwWeapon);

  0005c	ff 76 0c	 push	 DWORD PTR [esi+12]
  0005f	8b cb		 mov	 ecx, ebx
  00061	e8 00 00 00 00	 call	 ?ChangeWeapon@CInstanceBase@@QAEXK@Z ; CInstanceBase::ChangeWeapon

; 475  : 		pkInstFind->ChangeHair(c_rkNetUpdateActorData.m_dwHair);		

  00066	ff 76 10	 push	 DWORD PTR [esi+16]
  00069	8b cb		 mov	 ecx, ebx
  0006b	e8 00 00 00 00	 call	 ?ChangeHair@CInstanceBase@@QAEXK@Z ; CInstanceBase::ChangeHair

; 476  : 		pkInstFind->ChangeGuild(c_rkNetUpdateActorData.m_dwGuildID);

  00070	ff 76 04	 push	 DWORD PTR [esi+4]
  00073	8b cb		 mov	 ecx, ebx
  00075	e8 00 00 00 00	 call	 ?ChangeGuild@CInstanceBase@@QAEXK@Z ; CInstanceBase::ChangeGuild

; 477  : 		pkInstFind->SetAffectFlagContainer(c_rkNetUpdateActorData.m_kAffectFlags);

  0007a	8d 46 28	 lea	 eax, DWORD PTR [esi+40]
  0007d	8b cb		 mov	 ecx, ebx
  0007f	50		 push	 eax
  00080	e8 00 00 00 00	 call	 ?SetAffectFlagContainer@CInstanceBase@@QAEXABVCAffectFlagContainer@@@Z ; CInstanceBase::SetAffectFlagContainer

; 478  : 		pkInstFind->SetMoveSpeed(c_rkNetUpdateActorData.m_dwMovSpd);

  00085	ff 76 14	 push	 DWORD PTR [esi+20]
  00088	8b cb		 mov	 ecx, ebx
  0008a	e8 00 00 00 00	 call	 ?SetMoveSpeed@CInstanceBase@@QAEXI@Z ; CInstanceBase::SetMoveSpeed

; 479  : 		pkInstFind->SetAttackSpeed(c_rkNetUpdateActorData.m_dwAtkSpd);

  0008f	ff 76 18	 push	 DWORD PTR [esi+24]
  00092	8b cb		 mov	 ecx, ebx
  00094	e8 00 00 00 00	 call	 ?SetAttackSpeed@CInstanceBase@@QAEXI@Z ; CInstanceBase::SetAttackSpeed

; 480  : 		pkInstFind->SetAlignment(c_rkNetUpdateActorData.m_sAlignment);

  00099	0f b7 46 1c	 movzx	 eax, WORD PTR [esi+28]
  0009d	8b cb		 mov	 ecx, ebx
  0009f	50		 push	 eax
  000a0	e8 00 00 00 00	 call	 ?SetAlignment@CInstanceBase@@QAEXF@Z ; CInstanceBase::SetAlignment

; 481  : 		pkInstFind->SetPKMode(c_rkNetUpdateActorData.m_byPKMode);

  000a5	0f b6 46 1e	 movzx	 eax, BYTE PTR [esi+30]
  000a9	8b cb		 mov	 ecx, ebx
  000ab	50		 push	 eax
  000ac	e8 00 00 00 00	 call	 ?SetPKMode@CInstanceBase@@QAEXE@Z ; CInstanceBase::SetPKMode

; 482  : 		pkInstFind->SetStateFlags(c_rkNetUpdateActorData.m_dwStateFlags);

  000b1	ff 76 24	 push	 DWORD PTR [esi+36]
  000b4	8b cb		 mov	 ecx, ebx
  000b6	e8 00 00 00 00	 call	 ?SetStateFlags@CInstanceBase@@QAEXK@Z ; CInstanceBase::SetStateFlags
$LN3@UpdateActo:

; 483  : 
; 484  : 		//if( c_rkNetUpdateActorData.m_dwMountVnum != 0 )
; 485  : 		//{
; 486  : 		//	pkInstFind->MountHorse(c_rkNetUpdateActorData.m_dwMountVnum);
; 487  : 		//}
; 488  : 		//else
; 489  : 		//{
; 490  : 		//	if( pkInstFind->IsMountingHorse() )
; 491  : 		//	{
; 492  : 		//		pkInstFind->DismountHorse();
; 493  : 		//	}
; 494  : 		//}
; 495  : 	}
; 496  : 
; 497  : 	rkNetActorData.m_kAffectFlags=c_rkNetUpdateActorData.m_kAffectFlags;

  000bb	8b 46 28	 mov	 eax, DWORD PTR [esi+40]
  000be	8b 4e 2c	 mov	 ecx, DWORD PTR [esi+44]
  000c1	89 47 18	 mov	 DWORD PTR [edi+24], eax
  000c4	89 4f 1c	 mov	 DWORD PTR [edi+28], ecx

; 498  : 	rkNetActorData.m_dwGuildID=c_rkNetUpdateActorData.m_dwGuildID;

  000c7	8b 46 04	 mov	 eax, DWORD PTR [esi+4]
  000ca	89 47 7c	 mov	 DWORD PTR [edi+124], eax

; 499  : 	//rkNetActorData.m_dwLevel=c_rkNetUpdateActorData.m_dwLevel;
; 500  : 	rkNetActorData.m_dwMovSpd=c_rkNetUpdateActorData.m_dwMovSpd;

  000cd	8b 46 14	 mov	 eax, DWORD PTR [esi+20]
  000d0	89 47 34	 mov	 DWORD PTR [edi+52], eax

; 501  : 	rkNetActorData.m_dwAtkSpd=c_rkNetUpdateActorData.m_dwAtkSpd;

  000d3	8b 46 18	 mov	 eax, DWORD PTR [esi+24]
  000d6	89 47 38	 mov	 DWORD PTR [edi+56], eax

; 502  : 	rkNetActorData.m_dwArmor=c_rkNetUpdateActorData.m_dwArmor;

  000d9	8b 46 08	 mov	 eax, DWORD PTR [esi+8]
  000dc	89 47 64	 mov	 DWORD PTR [edi+100], eax

; 503  : 	rkNetActorData.m_dwWeapon=c_rkNetUpdateActorData.m_dwWeapon;

  000df	8b 46 0c	 mov	 eax, DWORD PTR [esi+12]
  000e2	89 47 68	 mov	 DWORD PTR [edi+104], eax

; 504  : 	rkNetActorData.m_dwHair=c_rkNetUpdateActorData.m_dwHair;

  000e5	8b 46 10	 mov	 eax, DWORD PTR [esi+16]
  000e8	89 47 6c	 mov	 DWORD PTR [edi+108], eax

; 505  : 	rkNetActorData.m_sAlignment=c_rkNetUpdateActorData.m_sAlignment;

  000eb	66 8b 46 1c	 mov	 ax, WORD PTR [esi+28]
  000ef	66 89 47 74	 mov	 WORD PTR [edi+116], ax

; 506  : 	rkNetActorData.m_byPKMode=c_rkNetUpdateActorData.m_byPKMode;

  000f3	8a 46 1e	 mov	 al, BYTE PTR [esi+30]
  000f6	88 47 76	 mov	 BYTE PTR [edi+118], al
$LN1@UpdateActo:

; 507  : }

  000f9	5f		 pop	 edi
  000fa	5e		 pop	 esi
  000fb	5b		 pop	 ebx
  000fc	8b e5		 mov	 esp, ebp
  000fe	5d		 pop	 ebp
  000ff	c2 04 00	 ret	 4
?UpdateActor@CNetworkActorManager@@QAEXABUSNetworkUpdateActorData@@@Z ENDP ; CNetworkActorManager::UpdateActor
_TEXT	ENDS
; Function compile flags: /Ogtp
; File D:\Metin2 Server Files\mainline\SRC_2014\Metin2Client\UserInterface\NetworkActorManager.cpp
; File C:\Program Files (x86)\Microsoft Visual Studio\2019\Community\VC\Tools\MSVC\14.28.29333\include\map
; File C:\Program Files (x86)\Microsoft Visual Studio\2019\Community\VC\Tools\MSVC\14.28.29333\include\xtree
; File C:\Program Files (x86)\Microsoft Visual Studio\2019\Community\VC\Tools\MSVC\14.28.29333\include\xstddef
; File C:\Program Files (x86)\Microsoft Visual Studio\2019\Community\VC\Tools\MSVC\14.28.29333\include\xtree
; File C:\Program Files (x86)\Microsoft Visual Studio\2019\Community\VC\Tools\MSVC\14.28.29333\include\map
; File C:\Program Files (x86)\Microsoft Visual Studio\2019\Community\VC\Tools\MSVC\14.28.29333\include\xmemory
; File C:\Program Files (x86)\Microsoft Visual Studio\2019\Community\VC\Tools\MSVC\14.28.29333\include\xtree
; File C:\Program Files (x86)\Microsoft Visual Studio\2019\Community\VC\Tools\MSVC\14.28.29333\include\xmemory
; File C:\Program Files (x86)\Microsoft Visual Studio\2019\Community\VC\Tools\MSVC\14.28.29333\include\tuple
; File C:\Program Files (x86)\Microsoft Visual Studio\2019\Community\VC\Tools\MSVC\14.28.29333\include\xtree
; File C:\Program Files (x86)\Microsoft Visual Studio\2019\Community\VC\Tools\MSVC\14.28.29333\include\tuple
; File C:\Program Files (x86)\Microsoft Visual Studio\2019\Community\VC\Tools\MSVC\14.28.29333\include\xtree
; File C:\Program Files (x86)\Microsoft Visual Studio\2019\Community\VC\Tools\MSVC\14.28.29333\include\map
; File C:\Program Files (x86)\Microsoft Visual Studio\2019\Community\VC\Tools\MSVC\14.28.29333\include\xtree
; File C:\Program Files (x86)\Microsoft Visual Studio\2019\Community\VC\Tools\MSVC\14.28.29333\include\map
; File D:\Metin2 Server Files\mainline\SRC_2014\Metin2Client\UserInterface\NetworkActorManager.cpp
; File C:\Program Files (x86)\Microsoft Visual Studio\2019\Community\VC\Tools\MSVC\14.28.29333\include\map
; File D:\Metin2 Server Files\mainline\SRC_2014\Metin2Client\UserInterface\NetworkActorManager.cpp
; File C:\Program Files (x86)\Microsoft Visual Studio\2019\Community\VC\Tools\MSVC\14.28.29333\include\xtree
; File D:\Metin2 Server Files\mainline\SRC_2014\Metin2Client\UserInterface\NetworkActorManager.cpp
;	COMDAT ?AppendActor@CNetworkActorManager@@QAEXABUSNetworkActorData@@@Z
_TEXT	SEGMENT
__Loc$3 = -36						; size = 12
$T4 = -24						; size = 8
__Myhead$5 = -16					; size = 4
__$EHRec$ = -12						; size = 12
_rkNetActorData$1$ = 8					; size = 4
_c_rkNetActorData$ = 8					; size = 4
?AppendActor@CNetworkActorManager@@QAEXABUSNetworkActorData@@@Z PROC ; CNetworkActorManager::AppendActor, COMDAT
; _this$ = ecx

; 409  : {

  00000	55		 push	 ebp
  00001	8b ec		 mov	 ebp, esp
  00003	6a ff		 push	 -1
  00005	68 00 00 00 00	 push	 __ehhandler$?AppendActor@CNetworkActorManager@@QAEXABUSNetworkActorData@@@Z
  0000a	64 a1 00 00 00
	00		 mov	 eax, DWORD PTR fs:0
  00010	50		 push	 eax
  00011	83 ec 18	 sub	 esp, 24			; 00000018H
  00014	53		 push	 ebx
  00015	56		 push	 esi
  00016	57		 push	 edi
  00017	a1 00 00 00 00	 mov	 eax, DWORD PTR ___security_cookie
  0001c	33 c5		 xor	 eax, ebp
  0001e	50		 push	 eax
  0001f	8d 45 f4	 lea	 eax, DWORD PTR __$EHRec$[ebp]
  00022	64 a3 00 00 00
	00		 mov	 DWORD PTR fs:0, eax
  00028	8b f9		 mov	 edi, ecx

; 410  : 	if (__IsMainActorVID(c_rkNetActorData.m_dwVID))

  0002a	8b 75 08	 mov	 esi, DWORD PTR _c_rkNetActorData$[ebp]
  0002d	ff 76 24	 push	 DWORD PTR [esi+36]
  00030	8d 5e 24	 lea	 ebx, DWORD PTR [esi+36]
  00033	e8 00 00 00 00	 call	 ?__IsMainActorVID@CNetworkActorManager@@IAE_NK@Z ; CNetworkActorManager::__IsMainActorVID
  00038	84 c0		 test	 al, al
  0003a	74 42		 je	 SHORT $LN4@AppendActo

; 411  : 	{
; 412  : 		bool bChangeMountStatus = false;
; 413  : 
; 414  : 		CInstanceBase* pMainInstance = CPythonCharacterManager::Instance().GetInstancePtr(c_rkNetActorData.m_dwVID);

  0003c	8b 0d 00 00 00
	00		 mov	 ecx, DWORD PTR ?ms_singleton@?$CSingleton@VCPythonCharacterManager@@@@0PAVCPythonCharacterManager@@A ; CSingleton<CPythonCharacterManager>::ms_singleton
  00042	ff 33		 push	 DWORD PTR [ebx]
  00044	83 c1 04	 add	 ecx, 4
  00047	8b 01		 mov	 eax, DWORD PTR [ecx]
  00049	ff 50 08	 call	 DWORD PTR [eax+8]

; 415  : 		if( pMainInstance )

  0004c	85 c0		 test	 eax, eax
  0004e	74 20		 je	 SHORT $LN9@AppendActo

; 416  : 		{
; 417  : 			bool bIsMountingHorse = pMainInstance->IsMountingHorse();

  00050	8b c8		 mov	 ecx, eax
  00052	e8 00 00 00 00	 call	 ?IsMountingHorse@CInstanceBase@@QAEHXZ ; CInstanceBase::IsMountingHorse
  00057	85 c0		 test	 eax, eax
  00059	0f 95 c1	 setne	 cl

; 418  : 			bChangeMountStatus = (bIsMountingHorse && c_rkNetActorData.m_dwMountVnum == 0) || (!bIsMountingHorse && c_rkNetActorData.m_dwMountVnum != 0);

  0005c	85 c0		 test	 eax, eax
  0005e	74 06		 je	 SHORT $LN111@AppendActo
  00060	83 7e 78 00	 cmp	 DWORD PTR [esi+120], 0
  00064	74 18		 je	 SHORT $LN4@AppendActo
$LN111@AppendActo:
  00066	84 c9		 test	 cl, cl
  00068	75 06		 jne	 SHORT $LN9@AppendActo
  0006a	83 7e 78 00	 cmp	 DWORD PTR [esi+120], 0
  0006e	75 0e		 jne	 SHORT $LN4@AppendActo
$LN9@AppendActo:

; 419  : 		}
; 420  : 
; 421  : 		if( !bChangeMountStatus )
; 422  : 		{
; 423  : 			//__RemoveAllActors();
; 424  : 			__RemoveDynamicActors();

  00070	8b cf		 mov	 ecx, edi
  00072	e8 00 00 00 00	 call	 ?__RemoveDynamicActors@CNetworkActorManager@@IAEXXZ ; CNetworkActorManager::__RemoveDynamicActors

; 425  : 			__RemoveAllGroundItems();

  00077	8b cf		 mov	 ecx, edi
  00079	e8 00 00 00 00	 call	 ?__RemoveAllGroundItems@CNetworkActorManager@@IAEXXZ ; CNetworkActorManager::__RemoveAllGroundItems
$LN4@AppendActo:
; File C:\Program Files (x86)\Microsoft Visual Studio\2019\Community\VC\Tools\MSVC\14.28.29333\include\map

; 176  :         const auto _Loc = _Mybase::_Find_lower_bound(_Keyval);

  0007e	53		 push	 ebx
  0007f	8d 4d dc	 lea	 ecx, DWORD PTR __Loc$3[ebp]
  00082	51		 push	 ecx
  00083	8d 4f 18	 lea	 ecx, DWORD PTR [edi+24]
  00086	e8 00 00 00 00	 call	 ??$_Find_lower_bound@K@?$_Tree@V?$_Tmap_traits@KUSNetworkActorData@@U?$less@K@std@@V?$allocator@U?$pair@$$CBKUSNetworkActorData@@@std@@@3@$0A@@std@@@std@@IBE?AU?$_Tree_find_result@PAU?$_Tree_node@U?$pair@$$CBKUSNetworkActorData@@@std@@PAX@std@@@1@ABK@Z ; std::_Tree<std::_Tmap_traits<unsigned long,SNetworkActorData,std::less<unsigned long>,std::allocator<std::pair<unsigned long const ,SNetworkActorData> >,0> >::_Find_lower_bound<unsigned long>
; File C:\Program Files (x86)\Microsoft Visual Studio\2019\Community\VC\Tools\MSVC\14.28.29333\include\xtree

; 1695 :         return !_Bound->_Isnil && !_DEBUG_LT_PRED(_Getcomp(), _Keyval, _Traits::_Kfn(_Bound->_Myval));

  0008b	8b 4d e4	 mov	 ecx, DWORD PTR __Loc$3[ebp+8]
  0008e	80 79 0d 00	 cmp	 BYTE PTR [ecx+13], 0
  00092	75 0b		 jne	 SHORT $LN15@AppendActo
; File C:\Program Files (x86)\Microsoft Visual Studio\2019\Community\VC\Tools\MSVC\14.28.29333\include\xstddef

; 127  :         return _Left < _Right;

  00094	8b 03		 mov	 eax, DWORD PTR [ebx]
  00096	3b 41 10	 cmp	 eax, DWORD PTR [ecx+16]
; File C:\Program Files (x86)\Microsoft Visual Studio\2019\Community\VC\Tools\MSVC\14.28.29333\include\xtree

; 1695 :         return !_Bound->_Isnil && !_DEBUG_LT_PRED(_Getcomp(), _Keyval, _Traits::_Kfn(_Bound->_Myval));

  00099	0f 83 94 00 00
	00		 jae	 $LN14@AppendActo
$LN15@AppendActo:

; 1719 :         if (max_size() == _Get_scary()->_Mysize) {

  0009f	81 7f 1c 6b 28
	af 01		 cmp	 DWORD PTR [edi+28], 28256363 ; 01af286bH
  000a6	8d 4f 18	 lea	 ecx, DWORD PTR [edi+24]
  000a9	0f 84 ca 00 00
	00		 je	 $LN116@AppendActo
; File C:\Program Files (x86)\Microsoft Visual Studio\2019\Community\VC\Tools\MSVC\14.28.29333\include\map

; 184  :         const auto _Inserted = _Tree_temp_node<_Alnode>(_Mybase::_Getal(), _Scary->_Myhead, piecewise_construct,

  000af	8b 01		 mov	 eax, DWORD PTR [ecx]
  000b1	89 45 f0	 mov	 DWORD PTR __Myhead$5[ebp], eax
; File C:\Program Files (x86)\Microsoft Visual Studio\2019\Community\VC\Tools\MSVC\14.28.29333\include\xmemory

; 1045 :     explicit _Alloc_construct_ptr(_Alloc& _Al_) : _Al(_Al_), _Ptr(nullptr) {}

  000b4	89 4d e8	 mov	 DWORD PTR $T4[ebp], ecx

; 814  :         return static_cast<_Ty*>(_Allocate<_New_alignof<_Ty>>(_Get_size_of_n<sizeof(_Ty)>(_Count)));

  000b7	68 98 00 00 00	 push	 152			; 00000098H
; File C:\Program Files (x86)\Microsoft Visual Studio\2019\Community\VC\Tools\MSVC\14.28.29333\include\xtree

; 784  :     explicit _Tree_temp_node_alloc(_Alnode& _Al_) : _Alloc_construct_ptr<_Alnode>(_Al_) {

  000bc	c7 45 fc 00 00
	00 00		 mov	 DWORD PTR __$EHRec$[ebp+8], 0
; File C:\Program Files (x86)\Microsoft Visual Studio\2019\Community\VC\Tools\MSVC\14.28.29333\include\xmemory

; 1052 :         _Ptr = nullptr; // if allocate throws, prevents double-free

  000c3	c7 45 ec 00 00
	00 00		 mov	 DWORD PTR $T4[ebp+4], 0

; 814  :         return static_cast<_Ty*>(_Allocate<_New_alignof<_Ty>>(_Get_size_of_n<sizeof(_Ty)>(_Count)));

  000ca	e8 00 00 00 00	 call	 ??$_Allocate@$07U_Default_allocate_traits@std@@$0A@@std@@YAPAXI@Z ; std::_Allocate<8,std::_Default_allocate_traits,0>

; 1053 :         _Ptr = _Al.allocate(1);

  000cf	8b f0		 mov	 esi, eax

; 814  :         return static_cast<_Ty*>(_Allocate<_New_alignof<_Ty>>(_Get_size_of_n<sizeof(_Ty)>(_Count)));

  000d1	83 c4 04	 add	 esp, 4

; 1053 :         _Ptr = _Al.allocate(1);

  000d4	89 75 ec	 mov	 DWORD PTR $T4[ebp+4], esi
; File C:\Program Files (x86)\Microsoft Visual Studio\2019\Community\VC\Tools\MSVC\14.28.29333\include\tuple

; 980  :     : first(_STD get<_Indexes1>(_STD move(_Val1))...), second(_STD get<_Indexes2>(_STD move(_Val2))...) {}

  000d7	8b 0b		 mov	 ecx, DWORD PTR [ebx]
  000d9	89 4e 10	 mov	 DWORD PTR [esi+16], ecx
  000dc	8d 4e 14	 lea	 ecx, DWORD PTR [esi+20]
; File C:\Program Files (x86)\Microsoft Visual Studio\2019\Community\VC\Tools\MSVC\14.28.29333\include\xtree

; 805  :         : _Tree_temp_node_alloc<_Alnode>(_Al_) {

  000df	c7 45 fc 01 00
	00 00		 mov	 DWORD PTR __$EHRec$[ebp+8], 1
; File C:\Program Files (x86)\Microsoft Visual Studio\2019\Community\VC\Tools\MSVC\14.28.29333\include\tuple

; 980  :     : first(_STD get<_Indexes1>(_STD move(_Val1))...), second(_STD get<_Indexes2>(_STD move(_Val2))...) {}

  000e6	e8 00 00 00 00	 call	 ??0SNetworkActorData@@QAE@XZ ; SNetworkActorData::SNetworkActorData
; File C:\Program Files (x86)\Microsoft Visual Studio\2019\Community\VC\Tools\MSVC\14.28.29333\include\xtree

; 807  :         _Construct_in_place(this->_Ptr->_Left, _Myhead);

  000eb	8d 45 f0	 lea	 eax, DWORD PTR __Myhead$5[ebp]
  000ee	50		 push	 eax
  000ef	56		 push	 esi
  000f0	e8 00 00 00 00	 call	 ??$_Construct_in_place@PAU?$_Tree_node@U?$pair@$$CBKUSNetworkActorData@@@std@@PAX@std@@AAPAU12@@std@@YAXAAPAU?$_Tree_node@U?$pair@$$CBKUSNetworkActorData@@@std@@PAX@0@0@Z ; std::_Construct_in_place<std::_Tree_node<std::pair<unsigned long const ,SNetworkActorData>,void *> *,std::_Tree_node<std::pair<unsigned long const ,SNetworkActorData>,void *> * &>

; 808  :         _Construct_in_place(this->_Ptr->_Parent, _Myhead);

  000f5	8d 45 f0	 lea	 eax, DWORD PTR __Myhead$5[ebp]
  000f8	50		 push	 eax
  000f9	8d 46 04	 lea	 eax, DWORD PTR [esi+4]
  000fc	50		 push	 eax
  000fd	e8 00 00 00 00	 call	 ??$_Construct_in_place@PAU?$_Tree_node@U?$pair@$$CBKUSNetworkActorData@@@std@@PAX@std@@AAPAU12@@std@@YAXAAPAU?$_Tree_node@U?$pair@$$CBKUSNetworkActorData@@@std@@PAX@0@0@Z ; std::_Construct_in_place<std::_Tree_node<std::pair<unsigned long const ,SNetworkActorData>,void *> *,std::_Tree_node<std::pair<unsigned long const ,SNetworkActorData>,void *> * &>

; 809  :         _Construct_in_place(this->_Ptr->_Right, _Myhead);

  00102	8d 45 f0	 lea	 eax, DWORD PTR __Myhead$5[ebp]
  00105	50		 push	 eax
  00106	8d 46 08	 lea	 eax, DWORD PTR [esi+8]
  00109	50		 push	 eax
  0010a	e8 00 00 00 00	 call	 ??$_Construct_in_place@PAU?$_Tree_node@U?$pair@$$CBKUSNetworkActorData@@@std@@PAX@std@@AAPAU12@@std@@YAXAAPAU?$_Tree_node@U?$pair@$$CBKUSNetworkActorData@@@std@@PAX@0@0@Z ; std::_Construct_in_place<std::_Tree_node<std::pair<unsigned long const ,SNetworkActorData>,void *> *,std::_Tree_node<std::pair<unsigned long const ,SNetworkActorData>,void *> * &>
  0010f	83 c4 18	 add	 esp, 24			; 00000018H

; 810  :         this->_Ptr->_Color = _Red;

  00112	66 c7 46 0c 00
	00		 mov	 WORD PTR [esi+12], 0
; File C:\Program Files (x86)\Microsoft Visual Studio\2019\Community\VC\Tools\MSVC\14.28.29333\include\map

; 190  :         return {_Scary->_Insert_node(_Loc._Location, _Inserted), true};

  00118	8d 4f 18	 lea	 ecx, DWORD PTR [edi+24]
; File C:\Program Files (x86)\Microsoft Visual Studio\2019\Community\VC\Tools\MSVC\14.28.29333\include\xtree

; 812  :     }

  0011b	c7 45 fc ff ff
	ff ff		 mov	 DWORD PTR __$EHRec$[ebp+8], -1
; File C:\Program Files (x86)\Microsoft Visual Studio\2019\Community\VC\Tools\MSVC\14.28.29333\include\map

; 190  :         return {_Scary->_Insert_node(_Loc._Location, _Inserted), true};

  00122	56		 push	 esi
  00123	ff 75 e0	 push	 DWORD PTR __Loc$3[ebp+4]
  00126	ff 75 dc	 push	 DWORD PTR __Loc$3[ebp]
  00129	e8 00 00 00 00	 call	 ?_Insert_node@?$_Tree_val@U?$_Tree_simple_types@U?$pair@$$CBKUSNetworkActorData@@@std@@@std@@@std@@QAEPAU?$_Tree_node@U?$pair@$$CBKUSNetworkActorData@@@std@@PAX@2@U?$_Tree_id@PAU?$_Tree_node@U?$pair@$$CBKUSNetworkActorData@@@std@@PAX@std@@@2@QAU32@@Z ; std::_Tree_val<std::_Tree_simple_types<std::pair<unsigned long const ,SNetworkActorData> > >::_Insert_node
  0012e	8b 75 08	 mov	 esi, DWORD PTR _c_rkNetActorData$[ebp]
  00131	8b c8		 mov	 ecx, eax
$LN14@AppendActo:

; 325  :         return _Try_emplace(_Keyval).first->_Myval.second;

  00133	8d 41 14	 lea	 eax, DWORD PTR [ecx+20]
; File D:\Metin2 Server Files\mainline\SRC_2014\Metin2Client\UserInterface\NetworkActorManager.cpp

; 431  : 	rkNetActorData=c_rkNetActorData;

  00136	56		 push	 esi
  00137	8b c8		 mov	 ecx, eax
; File C:\Program Files (x86)\Microsoft Visual Studio\2019\Community\VC\Tools\MSVC\14.28.29333\include\map

; 325  :         return _Try_emplace(_Keyval).first->_Myval.second;

  00139	89 45 08	 mov	 DWORD PTR _rkNetActorData$1$[ebp], eax
; File D:\Metin2 Server Files\mainline\SRC_2014\Metin2Client\UserInterface\NetworkActorManager.cpp

; 431  : 	rkNetActorData=c_rkNetActorData;

  0013c	e8 00 00 00 00	 call	 ??4SNetworkActorData@@QAEXABU0@@Z ; SNetworkActorData::operator=

; 432  : 
; 433  : 	if (__IsVisibleActor(rkNetActorData))

  00141	8b 75 08	 mov	 esi, DWORD PTR _rkNetActorData$1$[ebp]
  00144	8b cf		 mov	 ecx, edi
  00146	56		 push	 esi
  00147	e8 00 00 00 00	 call	 ?__IsVisibleActor@CNetworkActorManager@@IAE_NABUSNetworkActorData@@@Z ; CNetworkActorManager::__IsVisibleActor
  0014c	84 c0		 test	 al, al
  0014e	74 15		 je	 SHORT $LN6@AppendActo

; 434  : 	{
; 435  : 		if (!__AppendCharacterManagerActor(rkNetActorData))

  00150	56		 push	 esi
  00151	8b cf		 mov	 ecx, edi
  00153	e8 00 00 00 00	 call	 ?__AppendCharacterManagerActor@CNetworkActorManager@@IAEPAVCInstanceBase@@AAUSNetworkActorData@@@Z ; CNetworkActorManager::__AppendCharacterManagerActor
  00158	85 c0		 test	 eax, eax
  0015a	75 09		 jne	 SHORT $LN6@AppendActo

; 436  : 			m_kNetActorDict.erase(c_rkNetActorData.m_dwVID);

  0015c	53		 push	 ebx
  0015d	8d 4f 18	 lea	 ecx, DWORD PTR [edi+24]
  00160	e8 00 00 00 00	 call	 ?erase@?$_Tree@V?$_Tmap_traits@KUSNetworkActorData@@U?$less@K@std@@V?$allocator@U?$pair@$$CBKUSNetworkActorData@@@std@@@3@$0A@@std@@@std@@QAEIABK@Z ; std::_Tree<std::_Tmap_traits<unsigned long,SNetworkActorData,std::less<unsigned long>,std::allocator<std::pair<unsigned long const ,SNetworkActorData> >,0> >::erase
$LN6@AppendActo:

; 438  : }

  00165	8b 4d f4	 mov	 ecx, DWORD PTR __$EHRec$[ebp]
  00168	64 89 0d 00 00
	00 00		 mov	 DWORD PTR fs:0, ecx
  0016f	59		 pop	 ecx
  00170	5f		 pop	 edi
  00171	5e		 pop	 esi
  00172	5b		 pop	 ebx
  00173	8b e5		 mov	 esp, ebp
  00175	5d		 pop	 ebp
  00176	c2 04 00	 ret	 4
$LN116@AppendActo:
; File C:\Program Files (x86)\Microsoft Visual Studio\2019\Community\VC\Tools\MSVC\14.28.29333\include\xtree

; 1720 :             _Throw_tree_length_error();

  00179	e8 00 00 00 00	 call	 ?_Throw_tree_length_error@std@@YAXXZ ; std::_Throw_tree_length_error
$LN114@AppendActo:
  0017e	cc		 int	 3
_TEXT	ENDS
;	COMDAT text$x
text$x	SEGMENT
__unwindfunclet$?AppendActor@CNetworkActorManager@@QAEXABUSNetworkActorData@@@Z$2:
  00000	8d 4d e8	 lea	 ecx, DWORD PTR $T4[ebp]
  00003	e9 00 00 00 00	 jmp	 ??1?$_Alloc_construct_ptr@V?$allocator@U?$_Tree_node@U?$pair@$$CBKUSNetworkActorData@@@std@@PAX@std@@@std@@@std@@QAE@XZ ; std::_Alloc_construct_ptr<std::allocator<std::_Tree_node<std::pair<unsigned long const ,SNetworkActorData>,void *> > >::~_Alloc_construct_ptr<std::allocator<std::_Tree_node<std::pair<unsigned long const ,SNetworkActorData>,void *> > >
__unwindfunclet$?AppendActor@CNetworkActorManager@@QAEXABUSNetworkActorData@@@Z$1:
  00008	8d 4d e8	 lea	 ecx, DWORD PTR $T4[ebp]
  0000b	e9 00 00 00 00	 jmp	 ??1?$_Tree_temp_node_alloc@V?$allocator@U?$_Tree_node@U?$pair@$$CBKUSNetworkActorData@@@std@@PAX@std@@@std@@@std@@QAE@XZ
  00010	cc		 int	 3
  00011	cc		 int	 3
  00012	cc		 int	 3
  00013	cc		 int	 3
  00014	cc		 int	 3
__ehhandler$?AppendActor@CNetworkActorManager@@QAEXABUSNetworkActorData@@@Z:
  00015	90		 npad	 1
  00016	90		 npad	 1
  00017	8b 54 24 08	 mov	 edx, DWORD PTR [esp+8]
  0001b	8d 42 0c	 lea	 eax, DWORD PTR [edx+12]
  0001e	8b 4a d8	 mov	 ecx, DWORD PTR [edx-40]
  00021	33 c8		 xor	 ecx, eax
  00023	e8 00 00 00 00	 call	 @__security_check_cookie@4
  00028	b8 00 00 00 00	 mov	 eax, OFFSET __ehfuncinfo$?AppendActor@CNetworkActorManager@@QAEXABUSNetworkActorData@@@Z
  0002d	e9 00 00 00 00	 jmp	 ___CxxFrameHandler3
text$x	ENDS
?AppendActor@CNetworkActorManager@@QAEXABUSNetworkActorData@@@Z ENDP ; CNetworkActorManager::AppendActor
; Function compile flags: /Ogtp
; File D:\Metin2 Server Files\mainline\SRC_2014\Metin2Client\UserInterface\NetworkActorManager.cpp
; File C:\Program Files (x86)\Microsoft Visual Studio\2019\Community\VC\Tools\MSVC\14.28.29333\include\xtree
; File C:\Program Files (x86)\Microsoft Visual Studio\2019\Community\VC\Tools\MSVC\14.28.29333\include\xstddef
; File C:\Program Files (x86)\Microsoft Visual Studio\2019\Community\VC\Tools\MSVC\14.28.29333\include\xtree
; File D:\Metin2 Server Files\mainline\SRC_2014\Metin2Client\UserInterface\NetworkActorManager.cpp
; File C:\Program Files (x86)\Microsoft Visual Studio\2019\Community\VC\Tools\MSVC\14.28.29333\include\xtree
; File D:\Metin2 Server Files\mainline\SRC_2014\Metin2Client\UserInterface\NetworkActorManager.cpp
;	COMDAT ?RemoveActor@CNetworkActorManager@@QAEXK@Z
_TEXT	SEGMENT
__Loc$1 = -12						; size = 12
_dwVID$ = 8						; size = 4
?RemoveActor@CNetworkActorManager@@QAEXK@Z PROC		; CNetworkActorManager::RemoveActor, COMDAT
; _this$ = ecx

; 441  : {

  00000	55		 push	 ebp
  00001	8b ec		 mov	 ebp, esp
  00003	83 ec 0c	 sub	 esp, 12			; 0000000cH
  00006	53		 push	 ebx
  00007	56		 push	 esi
  00008	57		 push	 edi
  00009	8b d9		 mov	 ebx, ecx
; File C:\Program Files (x86)\Microsoft Visual Studio\2019\Community\VC\Tools\MSVC\14.28.29333\include\xtree

; 1458 :         const _Tree_find_result<_Nodeptr> _Loc = _Find_lower_bound(_Keyval);

  0000b	8d 45 08	 lea	 eax, DWORD PTR _dwVID$[ebp]
  0000e	50		 push	 eax
  0000f	8d 45 f4	 lea	 eax, DWORD PTR __Loc$1[ebp]
  00012	50		 push	 eax
  00013	8d 4b 18	 lea	 ecx, DWORD PTR [ebx+24]
  00016	e8 00 00 00 00	 call	 ??$_Find_lower_bound@K@?$_Tree@V?$_Tmap_traits@KUSNetworkActorData@@U?$less@K@std@@V?$allocator@U?$pair@$$CBKUSNetworkActorData@@@std@@@3@$0A@@std@@@std@@IBE?AU?$_Tree_find_result@PAU?$_Tree_node@U?$pair@$$CBKUSNetworkActorData@@@std@@PAX@std@@@1@ABK@Z ; std::_Tree<std::_Tmap_traits<unsigned long,SNetworkActorData,std::less<unsigned long>,std::allocator<std::pair<unsigned long const ,SNetworkActorData> >,0> >::_Find_lower_bound<unsigned long>

; 1695 :         return !_Bound->_Isnil && !_DEBUG_LT_PRED(_Getcomp(), _Keyval, _Traits::_Kfn(_Bound->_Myval));

  0001b	8b 75 fc	 mov	 esi, DWORD PTR __Loc$1[ebp+8]
  0001e	80 7e 0d 00	 cmp	 BYTE PTR [esi+13], 0
  00022	75 21		 jne	 SHORT $LN50@RemoveActo
; File C:\Program Files (x86)\Microsoft Visual Studio\2019\Community\VC\Tools\MSVC\14.28.29333\include\xstddef

; 127  :         return _Left < _Right;

  00024	8b 45 08	 mov	 eax, DWORD PTR _dwVID$[ebp]
  00027	3b 46 10	 cmp	 eax, DWORD PTR [esi+16]
; File C:\Program Files (x86)\Microsoft Visual Studio\2019\Community\VC\Tools\MSVC\14.28.29333\include\xtree

; 1695 :         return !_Bound->_Isnil && !_DEBUG_LT_PRED(_Getcomp(), _Keyval, _Traits::_Kfn(_Bound->_Myval));

  0002a	72 19		 jb	 SHORT $LN50@RemoveActo

; 39   :     _Tree_unchecked_const_iterator(_Nodeptr _Pnode, const _Mytree* _Plist) noexcept : _Ptr(_Pnode) {

  0002c	39 73 18	 cmp	 DWORD PTR [ebx+24], esi
; File D:\Metin2 Server Files\mainline\SRC_2014\Metin2Client\UserInterface\NetworkActorManager.cpp

; 443  : 	if (m_kNetActorDict.end()==f)

  0002f	74 14		 je	 SHORT $LN50@RemoveActo

; 444  : 	{
; 445  : #ifdef _DEBUG		
; 446  : 		TraceError("CNetworkActorManager::RemoveActor(dwVID=%d) - NOT EXIST VID", dwVID);
; 447  : #endif
; 448  : 		return;
; 449  : 	}
; 450  : 
; 451  : 	SNetworkActorData& rkNetActorData=f->second;

  00031	8d 46 14	 lea	 eax, DWORD PTR [esi+20]

; 452  : 	__RemoveCharacterManagerActor(rkNetActorData);

  00034	8b cb		 mov	 ecx, ebx
  00036	50		 push	 eax
  00037	e8 00 00 00 00	 call	 ?__RemoveCharacterManagerActor@CNetworkActorManager@@IAEXAAUSNetworkActorData@@@Z ; CNetworkActorManager::__RemoveCharacterManagerActor
; File C:\Program Files (x86)\Microsoft Visual Studio\2019\Community\VC\Tools\MSVC\14.28.29333\include\xtree

; 1419 :         return iterator(_Erase_unchecked(_Where._Unwrapped()), _Scary);

  0003c	56		 push	 esi
  0003d	8d 4b 18	 lea	 ecx, DWORD PTR [ebx+24]
  00040	e8 00 00 00 00	 call	 ?_Erase_unchecked@?$_Tree@V?$_Tmap_traits@KUSNetworkActorData@@U?$less@K@std@@V?$allocator@U?$pair@$$CBKUSNetworkActorData@@@std@@@3@$0A@@std@@@std@@AAEPAU?$_Tree_node@U?$pair@$$CBKUSNetworkActorData@@@std@@PAX@2@V?$_Tree_unchecked_const_iterator@V?$_Tree_val@U?$_Tree_simple_types@U?$pair@$$CBKUSNetworkActorData@@@std@@@std@@@std@@U_Iterator_base0@2@@2@@Z ; std::_Tree<std::_Tmap_traits<unsigned long,SNetworkActorData,std::less<unsigned long>,std::allocator<std::pair<unsigned long const ,SNetworkActorData> >,0> >::_Erase_unchecked
$LN50@RemoveActo:
  00045	5f		 pop	 edi
; File D:\Metin2 Server Files\mainline\SRC_2014\Metin2Client\UserInterface\NetworkActorManager.cpp

; 455  : }

  00046	5e		 pop	 esi
  00047	5b		 pop	 ebx
  00048	8b e5		 mov	 esp, ebp
  0004a	5d		 pop	 ebp
  0004b	c2 04 00	 ret	 4
?RemoveActor@CNetworkActorManager@@QAEXK@Z ENDP		; CNetworkActorManager::RemoveActor
_TEXT	ENDS
; Function compile flags: /Ogtp
; File D:\Metin2 Server Files\mainline\SRC_2014\Metin2Client\UserInterface\NetworkActorManager.cpp
; File C:\Program Files (x86)\Microsoft Visual Studio\2019\Community\VC\Tools\MSVC\14.28.29333\include\xtree
; File D:\Metin2 Server Files\mainline\SRC_2014\Metin2Client\UserInterface\NetworkActorManager.cpp
;	COMDAT ?SetMainActorVID@CNetworkActorManager@@QAEXK@Z
_TEXT	SEGMENT
_dwVID$ = 8						; size = 4
?SetMainActorVID@CNetworkActorManager@@QAEXK@Z PROC	; CNetworkActorManager::SetMainActorVID, COMDAT
; _this$ = ecx

; 145  : {

  00000	55		 push	 ebp
  00001	8b ec		 mov	 ebp, esp

; 146  : 	m_dwMainVID=dwVID;

  00003	8b 45 08	 mov	 eax, DWORD PTR _dwVID$[ebp]
  00006	56		 push	 esi
  00007	57		 push	 edi

; 147  : 	m_lMainPosX=0;
; 148  : 	m_lMainPosY=0;
; 149  : 
; 150  : 	m_kNetActorDict.clear();

  00008	8d 79 18	 lea	 edi, DWORD PTR [ecx+24]
  0000b	89 41 0c	 mov	 DWORD PTR [ecx+12], eax
  0000e	c7 41 10 00 00
	00 00		 mov	 DWORD PTR [ecx+16], 0
  00015	c7 41 14 00 00
	00 00		 mov	 DWORD PTR [ecx+20], 0
; File C:\Program Files (x86)\Microsoft Visual Studio\2019\Community\VC\Tools\MSVC\14.28.29333\include\xtree

; 1448 :         _Scary->_Erase_tree(_Getal(), _Head->_Parent);

  0001c	8b cf		 mov	 ecx, edi
  0001e	8b 37		 mov	 esi, DWORD PTR [edi]
  00020	ff 76 04	 push	 DWORD PTR [esi+4]
  00023	57		 push	 edi
  00024	e8 00 00 00 00	 call	 ??$_Erase_tree@V?$allocator@U?$_Tree_node@U?$pair@$$CBKUSNetworkActorData@@@std@@PAX@std@@@std@@@?$_Tree_val@U?$_Tree_simple_types@U?$pair@$$CBKUSNetworkActorData@@@std@@@std@@@std@@QAEXAAV?$allocator@U?$_Tree_node@U?$pair@$$CBKUSNetworkActorData@@@std@@PAX@std@@@1@PAU?$_Tree_node@U?$pair@$$CBKUSNetworkActorData@@@std@@PAX@1@@Z ; std::_Tree_val<std::_Tree_simple_types<std::pair<unsigned long const ,SNetworkActorData> > >::_Erase_tree<std::allocator<std::_Tree_node<std::pair<unsigned long const ,SNetworkActorData>,void *> > >

; 1449 :         _Head->_Parent  = _Head;

  00029	89 76 04	 mov	 DWORD PTR [esi+4], esi

; 1450 :         _Head->_Left    = _Head;

  0002c	89 36		 mov	 DWORD PTR [esi], esi

; 1451 :         _Head->_Right   = _Head;

  0002e	89 76 08	 mov	 DWORD PTR [esi+8], esi

; 1452 :         _Scary->_Mysize = 0;

  00031	c7 47 04 00 00
	00 00		 mov	 DWORD PTR [edi+4], 0
  00038	5f		 pop	 edi
  00039	5e		 pop	 esi
; File D:\Metin2 Server Files\mainline\SRC_2014\Metin2Client\UserInterface\NetworkActorManager.cpp

; 151  : }

  0003a	5d		 pop	 ebp
  0003b	c2 04 00	 ret	 4
?SetMainActorVID@CNetworkActorManager@@QAEXK@Z ENDP	; CNetworkActorManager::SetMainActorVID
_TEXT	ENDS
; Function compile flags: /Ogtp
; File D:\Metin2 Server Files\mainline\SRC_2014\Metin2Client\UserInterface\NetworkActorManager.cpp
; File C:\Program Files (x86)\Microsoft Visual Studio\2019\Community\VC\Tools\MSVC\14.28.29333\include\xtree
; File D:\Metin2 Server Files\mainline\SRC_2014\Metin2Client\UserInterface\NetworkActorManager.cpp
; File C:\Program Files (x86)\Microsoft Visual Studio\2019\Community\VC\Tools\MSVC\14.28.29333\include\xtree
; File D:\Metin2 Server Files\mainline\SRC_2014\Metin2Client\UserInterface\NetworkActorManager.cpp
;	COMDAT ?Destroy@CNetworkActorManager@@QAEXXZ
_TEXT	SEGMENT
?Destroy@CNetworkActorManager@@QAEXXZ PROC		; CNetworkActorManager::Destroy, COMDAT
; _this$ = ecx

; 136  : {

  00000	53		 push	 ebx
  00001	56		 push	 esi
  00002	8b d9		 mov	 ebx, ecx
; File C:\Program Files (x86)\Microsoft Visual Studio\2019\Community\VC\Tools\MSVC\14.28.29333\include\xtree

; 1447 :         auto _Head = _Scary->_Myhead;

  00004	8b 73 18	 mov	 esi, DWORD PTR [ebx+24]
; File D:\Metin2 Server Files\mainline\SRC_2014\Metin2Client\UserInterface\NetworkActorManager.cpp

; 136  : {

  00007	57		 push	 edi

; 137  : 	m_kNetActorDict.clear();

  00008	8d 7b 18	 lea	 edi, DWORD PTR [ebx+24]
; File C:\Program Files (x86)\Microsoft Visual Studio\2019\Community\VC\Tools\MSVC\14.28.29333\include\xtree

; 1448 :         _Scary->_Erase_tree(_Getal(), _Head->_Parent);

  0000b	8b cf		 mov	 ecx, edi
  0000d	ff 76 04	 push	 DWORD PTR [esi+4]
  00010	57		 push	 edi
  00011	e8 00 00 00 00	 call	 ??$_Erase_tree@V?$allocator@U?$_Tree_node@U?$pair@$$CBKUSNetworkActorData@@@std@@PAX@std@@@std@@@?$_Tree_val@U?$_Tree_simple_types@U?$pair@$$CBKUSNetworkActorData@@@std@@@std@@@std@@QAEXAAV?$allocator@U?$_Tree_node@U?$pair@$$CBKUSNetworkActorData@@@std@@PAX@std@@@1@PAU?$_Tree_node@U?$pair@$$CBKUSNetworkActorData@@@std@@PAX@1@@Z ; std::_Tree_val<std::_Tree_simple_types<std::pair<unsigned long const ,SNetworkActorData> > >::_Erase_tree<std::allocator<std::_Tree_node<std::pair<unsigned long const ,SNetworkActorData>,void *> > >

; 1449 :         _Head->_Parent  = _Head;

  00016	89 76 04	 mov	 DWORD PTR [esi+4], esi

; 1450 :         _Head->_Left    = _Head;

  00019	89 36		 mov	 DWORD PTR [esi], esi

; 1451 :         _Head->_Right   = _Head;

  0001b	89 76 08	 mov	 DWORD PTR [esi+8], esi

; 1452 :         _Scary->_Mysize = 0;

  0001e	c7 47 04 00 00
	00 00		 mov	 DWORD PTR [edi+4], 0
; File D:\Metin2 Server Files\mainline\SRC_2014\Metin2Client\UserInterface\NetworkActorManager.cpp

; 141  : 	m_lMainPosY=0;

  00025	5f		 pop	 edi
  00026	5e		 pop	 esi
  00027	c7 43 0c 00 00
	00 00		 mov	 DWORD PTR [ebx+12], 0
  0002e	c7 43 10 00 00
	00 00		 mov	 DWORD PTR [ebx+16], 0
  00035	c7 43 14 00 00
	00 00		 mov	 DWORD PTR [ebx+20], 0
  0003c	5b		 pop	 ebx

; 142  : }

  0003d	c3		 ret	 0
?Destroy@CNetworkActorManager@@QAEXXZ ENDP		; CNetworkActorManager::Destroy
_TEXT	ENDS
; Function compile flags: /Ogtp
; File D:\Metin2 Server Files\mainline\SRC_2014\Metin2Client\UserInterface\NetworkActorManager.cpp
; File C:\Program Files (x86)\Microsoft Visual Studio\2019\Community\VC\Tools\MSVC\14.28.29333\include\xtree
; File D:\Metin2 Server Files\mainline\SRC_2014\Metin2Client\UserInterface\NetworkActorManager.cpp
; File C:\Program Files (x86)\Microsoft Visual Studio\2019\Community\VC\Tools\MSVC\14.28.29333\include\xtree
; File C:\Program Files (x86)\Microsoft Visual Studio\2019\Community\VC\Tools\MSVC\14.28.29333\include\xmemory
; File D:\Metin2 Server Files\mainline\SRC_2014\Metin2Client\UserInterface\NetworkActorManager.cpp
;	COMDAT ??1CNetworkActorManager@@UAE@XZ
_TEXT	SEGMENT
??1CNetworkActorManager@@UAE@XZ PROC			; CNetworkActorManager::~CNetworkActorManager, COMDAT
; _this$ = ecx

; 132  : {

  00000	56		 push	 esi
  00001	57		 push	 edi
  00002	8b f9		 mov	 edi, ecx

; 133  : }

  00004	8d 77 18	 lea	 esi, DWORD PTR [edi+24]
; File C:\Program Files (x86)\Microsoft Visual Studio\2019\Community\VC\Tools\MSVC\14.28.29333\include\xtree

; 752  :         _Erase_tree(_Al, _Myhead->_Parent);

  00007	8b ce		 mov	 ecx, esi
; File D:\Metin2 Server Files\mainline\SRC_2014\Metin2Client\UserInterface\NetworkActorManager.cpp

; 132  : {

  00009	c7 07 00 00 00
	00		 mov	 DWORD PTR [edi], OFFSET ??_7CNetworkActorManager@@6B@
; File C:\Program Files (x86)\Microsoft Visual Studio\2019\Community\VC\Tools\MSVC\14.28.29333\include\xtree

; 752  :         _Erase_tree(_Al, _Myhead->_Parent);

  0000f	8b 06		 mov	 eax, DWORD PTR [esi]
  00011	ff 70 04	 push	 DWORD PTR [eax+4]
  00014	56		 push	 esi
  00015	e8 00 00 00 00	 call	 ??$_Erase_tree@V?$allocator@U?$_Tree_node@U?$pair@$$CBKUSNetworkActorData@@@std@@PAX@std@@@std@@@?$_Tree_val@U?$_Tree_simple_types@U?$pair@$$CBKUSNetworkActorData@@@std@@@std@@@std@@QAEXAAV?$allocator@U?$_Tree_node@U?$pair@$$CBKUSNetworkActorData@@@std@@PAX@std@@@1@PAU?$_Tree_node@U?$pair@$$CBKUSNetworkActorData@@@std@@PAX@1@@Z ; std::_Tree_val<std::_Tree_simple_types<std::pair<unsigned long const ,SNetworkActorData> > >::_Erase_tree<std::allocator<std::_Tree_node<std::pair<unsigned long const ,SNetworkActorData>,void *> > >
; File C:\Program Files (x86)\Microsoft Visual Studio\2019\Community\VC\Tools\MSVC\14.28.29333\include\xmemory

; 696  :         _Deallocate<_New_alignof<value_type>>(_Ptr, sizeof(value_type) * _Count);

  0001a	68 98 00 00 00	 push	 152			; 00000098H
  0001f	ff 36		 push	 DWORD PTR [esi]
  00021	e8 00 00 00 00	 call	 ??$_Deallocate@$07$0A@@std@@YAXPAXI@Z ; std::_Deallocate<8,0>
  00026	83 c4 08	 add	 esp, 8
; File D:\Metin2 Server Files\mainline\SRC_2014\Metin2Client\UserInterface\NetworkActorManager.cpp

; 133  : }

  00029	8b cf		 mov	 ecx, edi
  0002b	5f		 pop	 edi
  0002c	5e		 pop	 esi
  0002d	e9 00 00 00 00	 jmp	 ??1CReferenceObject@@UAE@XZ ; CReferenceObject::~CReferenceObject
??1CNetworkActorManager@@UAE@XZ ENDP			; CNetworkActorManager::~CNetworkActorManager
_TEXT	ENDS
; Function compile flags: /Ogtp
; File D:\Metin2 Server Files\mainline\SRC_2014\Metin2Client\UserInterface\NetworkActorManager.cpp
; File C:\Program Files (x86)\Microsoft Visual Studio\2019\Community\VC\Tools\MSVC\14.28.29333\include\xmemory
; File D:\Metin2 Server Files\mainline\SRC_2014\Metin2Client\UserInterface\NetworkActorManager.cpp
; File C:\Program Files (x86)\Microsoft Visual Studio\2019\Community\VC\Tools\MSVC\14.28.29333\include\xtree
; File C:\Program Files (x86)\Microsoft Visual Studio\2019\Community\VC\Tools\MSVC\14.28.29333\include\xmemory
; File C:\Program Files (x86)\Microsoft Visual Studio\2019\Community\VC\Tools\MSVC\14.28.29333\include\xtree
; File D:\Metin2 Server Files\mainline\SRC_2014\Metin2Client\UserInterface\NetworkActorManager.cpp
;	COMDAT ??0CNetworkActorManager@@QAE@XZ
_TEXT	SEGMENT
_this$ = -20						; size = 4
__Pnode$2 = -16						; size = 4
_this$ = -16						; size = 4
__$EHRec$ = -12						; size = 12
??0CNetworkActorManager@@QAE@XZ PROC			; CNetworkActorManager::CNetworkActorManager, COMDAT
; _this$ = ecx

; 127  : {

  00000	55		 push	 ebp
  00001	8b ec		 mov	 ebp, esp
  00003	6a ff		 push	 -1
  00005	68 00 00 00 00	 push	 __ehhandler$??0CNetworkActorManager@@QAE@XZ
  0000a	64 a1 00 00 00
	00		 mov	 eax, DWORD PTR fs:0
  00010	50		 push	 eax
  00011	83 ec 08	 sub	 esp, 8
  00014	53		 push	 ebx
  00015	56		 push	 esi
  00016	57		 push	 edi
  00017	a1 00 00 00 00	 mov	 eax, DWORD PTR ___security_cookie
  0001c	33 c5		 xor	 eax, ebp
  0001e	50		 push	 eax
  0001f	8d 45 f4	 lea	 eax, DWORD PTR __$EHRec$[ebp]
  00022	64 a3 00 00 00
	00		 mov	 DWORD PTR fs:0, eax
  00028	8b d9		 mov	 ebx, ecx
  0002a	89 5d f0	 mov	 DWORD PTR _this$[ebp], ebx
  0002d	e8 00 00 00 00	 call	 ??0CReferenceObject@@QAE@XZ ; CReferenceObject::CReferenceObject
  00032	8d 7b 18	 lea	 edi, DWORD PTR [ebx+24]
  00035	c7 03 00 00 00
	00		 mov	 DWORD PTR [ebx], OFFSET ??_7CNetworkActorManager@@6B@
; File C:\Program Files (x86)\Microsoft Visual Studio\2019\Community\VC\Tools\MSVC\14.28.29333\include\xmemory

; 814  :         return static_cast<_Ty*>(_Allocate<_New_alignof<_Ty>>(_Get_size_of_n<sizeof(_Ty)>(_Count)));

  0003b	68 98 00 00 00	 push	 152			; 00000098H
; File D:\Metin2 Server Files\mainline\SRC_2014\Metin2Client\UserInterface\NetworkActorManager.cpp

; 127  : {

  00040	c7 45 fc 00 00
	00 00		 mov	 DWORD PTR __$EHRec$[ebp+8], 0
  00047	89 7d ec	 mov	 DWORD PTR _this$[ebp], edi
; File C:\Program Files (x86)\Microsoft Visual Studio\2019\Community\VC\Tools\MSVC\14.28.29333\include\xtree

; 435  :     _Tree_val() noexcept : _Myhead(), _Mysize(0) {}

  0004a	c7 07 00 00 00
	00		 mov	 DWORD PTR [edi], 0
  00050	c7 47 04 00 00
	00 00		 mov	 DWORD PTR [edi+4], 0
; File C:\Program Files (x86)\Microsoft Visual Studio\2019\Community\VC\Tools\MSVC\14.28.29333\include\xmemory

; 814  :         return static_cast<_Ty*>(_Allocate<_New_alignof<_Ty>>(_Get_size_of_n<sizeof(_Ty)>(_Count)));

  00057	e8 00 00 00 00	 call	 ??$_Allocate@$07U_Default_allocate_traits@std@@$0A@@std@@YAPAXI@Z ; std::_Allocate<8,std::_Default_allocate_traits,0>
; File C:\Program Files (x86)\Microsoft Visual Studio\2019\Community\VC\Tools\MSVC\14.28.29333\include\xtree

; 343  :         const auto _Pnode = _Al.allocate(1);

  0005c	8b f0		 mov	 esi, eax

; 344  :         _Construct_in_place(_Pnode->_Left, _Pnode);

  0005e	8d 45 f0	 lea	 eax, DWORD PTR __Pnode$2[ebp]
  00061	50		 push	 eax
  00062	56		 push	 esi
  00063	89 75 f0	 mov	 DWORD PTR __Pnode$2[ebp], esi
  00066	e8 00 00 00 00	 call	 ??$_Construct_in_place@PAU?$_Tree_node@U?$pair@$$CBKUSNetworkActorData@@@std@@PAX@std@@ABQAU12@@std@@YAXAAPAU?$_Tree_node@U?$pair@$$CBKUSNetworkActorData@@@std@@PAX@0@ABQAU10@@Z ; std::_Construct_in_place<std::_Tree_node<std::pair<unsigned long const ,SNetworkActorData>,void *> *,std::_Tree_node<std::pair<unsigned long const ,SNetworkActorData>,void *> * const &>

; 345  :         _Construct_in_place(_Pnode->_Parent, _Pnode);

  0006b	8d 45 f0	 lea	 eax, DWORD PTR __Pnode$2[ebp]
  0006e	50		 push	 eax
  0006f	8d 4e 04	 lea	 ecx, DWORD PTR [esi+4]
  00072	51		 push	 ecx
  00073	e8 00 00 00 00	 call	 ??$_Construct_in_place@PAU?$_Tree_node@U?$pair@$$CBKUSNetworkActorData@@@std@@PAX@std@@ABQAU12@@std@@YAXAAPAU?$_Tree_node@U?$pair@$$CBKUSNetworkActorData@@@std@@PAX@0@ABQAU10@@Z ; std::_Construct_in_place<std::_Tree_node<std::pair<unsigned long const ,SNetworkActorData>,void *> *,std::_Tree_node<std::pair<unsigned long const ,SNetworkActorData>,void *> * const &>

; 346  :         _Construct_in_place(_Pnode->_Right, _Pnode);

  00078	8d 45 f0	 lea	 eax, DWORD PTR __Pnode$2[ebp]
  0007b	50		 push	 eax
  0007c	8d 46 08	 lea	 eax, DWORD PTR [esi+8]
  0007f	50		 push	 eax
  00080	e8 00 00 00 00	 call	 ??$_Construct_in_place@PAU?$_Tree_node@U?$pair@$$CBKUSNetworkActorData@@@std@@PAX@std@@ABQAU12@@std@@YAXAAPAU?$_Tree_node@U?$pair@$$CBKUSNetworkActorData@@@std@@PAX@0@ABQAU10@@Z ; std::_Construct_in_place<std::_Tree_node<std::pair<unsigned long const ,SNetworkActorData>,void *> *,std::_Tree_node<std::pair<unsigned long const ,SNetworkActorData>,void *> * const &>

; 347  :         _Pnode->_Color = _Black;

  00085	66 c7 46 0c 01
	01		 mov	 WORD PTR [esi+12], 257	; 00000101H
  0008b	83 c4 1c	 add	 esp, 28			; 0000001cH

; 2021 :         _Scary->_Myhead = _Node::_Buyheadnode(_Getal());

  0008e	89 37		 mov	 DWORD PTR [edi], esi
; File D:\Metin2 Server Files\mainline\SRC_2014\Metin2Client\UserInterface\NetworkActorManager.cpp

; 129  : }

  00090	8b c3		 mov	 eax, ebx
  00092	c7 43 0c 00 00
	00 00		 mov	 DWORD PTR [ebx+12], 0
  00099	8b 4d f4	 mov	 ecx, DWORD PTR __$EHRec$[ebp]
  0009c	64 89 0d 00 00
	00 00		 mov	 DWORD PTR fs:0, ecx
  000a3	59		 pop	 ecx
  000a4	5f		 pop	 edi
  000a5	5e		 pop	 esi
  000a6	5b		 pop	 ebx
  000a7	8b e5		 mov	 esp, ebp
  000a9	5d		 pop	 ebp
  000aa	c3		 ret	 0
_TEXT	ENDS
;	COMDAT text$x
text$x	SEGMENT
__unwindfunclet$??0CNetworkActorManager@@QAE@XZ$0:
  00000	8b 4d f0	 mov	 ecx, DWORD PTR _this$[ebp]
  00003	e9 00 00 00 00	 jmp	 ??1CReferenceObject@@UAE@XZ ; CReferenceObject::~CReferenceObject
  00008	cc		 int	 3
  00009	cc		 int	 3
  0000a	cc		 int	 3
  0000b	cc		 int	 3
  0000c	cc		 int	 3
__ehhandler$??0CNetworkActorManager@@QAE@XZ:
  0000d	90		 npad	 1
  0000e	90		 npad	 1
  0000f	8b 54 24 08	 mov	 edx, DWORD PTR [esp+8]
  00013	8d 42 0c	 lea	 eax, DWORD PTR [edx+12]
  00016	8b 4a e8	 mov	 ecx, DWORD PTR [edx-24]
  00019	33 c8		 xor	 ecx, eax
  0001b	e8 00 00 00 00	 call	 @__security_check_cookie@4
  00020	b8 00 00 00 00	 mov	 eax, OFFSET __ehfuncinfo$??0CNetworkActorManager@@QAE@XZ
  00025	e9 00 00 00 00	 jmp	 ___CxxFrameHandler3
text$x	ENDS
??0CNetworkActorManager@@QAE@XZ ENDP			; CNetworkActorManager::CNetworkActorManager
; Function compile flags: /Ogtp
; File D:\Metin2 Server Files\mainline\SRC_2014\Metin2Client\UserInterface\NetworkActorManager.cpp
; File C:\Program Files (x86)\Microsoft Visual Studio\2019\Community\VC\Tools\MSVC\14.28.29333\include\xstring
; File D:\Metin2 Server Files\mainline\SRC_2014\Metin2Client\UserInterface\NetworkActorManager.cpp
;	COMDAT ?__copy__@SNetworkActorData@@QAEXABU1@@Z
_TEXT	SEGMENT
_src$ = 8						; size = 4
?__copy__@SNetworkActorData@@QAEXABU1@@Z PROC		; SNetworkActorData::__copy__, COMDAT
; _this$ = ecx

; 56   : {

  00000	55		 push	 ebp
  00001	8b ec		 mov	 ebp, esp
  00003	56		 push	 esi

; 57   : 	m_bType = src.m_bType;

  00004	8b 75 08	 mov	 esi, DWORD PTR _src$[ebp]
  00007	57		 push	 edi
  00008	8b f9		 mov	 edi, ecx
  0000a	0f b6 46 20	 movzx	 eax, BYTE PTR [esi+32]
  0000e	88 47 20	 mov	 BYTE PTR [edi+32], al

; 58   : 	m_dwVID = src.m_dwVID;
; 59   : 	m_dwStateFlags = src.m_dwStateFlags;
; 60   : 	m_dwEmpireID = src.m_dwEmpireID;
; 61   : 	m_dwRace = src.m_dwRace;
; 62   : 	m_dwMovSpd = src.m_dwMovSpd;
; 63   : 	m_dwAtkSpd = src.m_dwAtkSpd;
; 64   : 	m_fRot = src.m_fRot;
; 65   : 	m_lCurX = src.m_lCurX;
; 66   : 	m_lCurY = src.m_lCurY;
; 67   : 	m_lSrcX = src.m_lSrcX;
; 68   : 	m_lSrcY = src.m_lSrcY;
; 69   : 	m_lDstX = src.m_lDstX;
; 70   : 	m_lDstY = src.m_lDstY;
; 71   : 	m_kAffectFlags.CopyInstance(src.m_kAffectFlags);

  00011	8d 4f 18	 lea	 ecx, DWORD PTR [edi+24]
  00014	8b 46 24	 mov	 eax, DWORD PTR [esi+36]
  00017	89 47 24	 mov	 DWORD PTR [edi+36], eax
  0001a	8b 46 28	 mov	 eax, DWORD PTR [esi+40]
  0001d	89 47 28	 mov	 DWORD PTR [edi+40], eax
  00020	8b 46 2c	 mov	 eax, DWORD PTR [esi+44]
  00023	89 47 2c	 mov	 DWORD PTR [edi+44], eax
  00026	8b 46 30	 mov	 eax, DWORD PTR [esi+48]
  00029	89 47 30	 mov	 DWORD PTR [edi+48], eax
  0002c	8b 46 34	 mov	 eax, DWORD PTR [esi+52]
  0002f	89 47 34	 mov	 DWORD PTR [edi+52], eax
  00032	8b 46 38	 mov	 eax, DWORD PTR [esi+56]
  00035	89 47 38	 mov	 DWORD PTR [edi+56], eax
  00038	8b 46 3c	 mov	 eax, DWORD PTR [esi+60]
  0003b	89 47 3c	 mov	 DWORD PTR [edi+60], eax
  0003e	8b 46 40	 mov	 eax, DWORD PTR [esi+64]
  00041	89 47 40	 mov	 DWORD PTR [edi+64], eax
  00044	8b 46 44	 mov	 eax, DWORD PTR [esi+68]
  00047	89 47 44	 mov	 DWORD PTR [edi+68], eax
  0004a	8b 46 48	 mov	 eax, DWORD PTR [esi+72]
  0004d	89 47 48	 mov	 DWORD PTR [edi+72], eax
  00050	8b 46 4c	 mov	 eax, DWORD PTR [esi+76]
  00053	89 47 4c	 mov	 DWORD PTR [edi+76], eax
  00056	8b 46 50	 mov	 eax, DWORD PTR [esi+80]
  00059	89 47 50	 mov	 DWORD PTR [edi+80], eax
  0005c	8b 46 54	 mov	 eax, DWORD PTR [esi+84]
  0005f	89 47 54	 mov	 DWORD PTR [edi+84], eax
  00062	8d 46 18	 lea	 eax, DWORD PTR [esi+24]
  00065	50		 push	 eax
  00066	e8 00 00 00 00	 call	 ?CopyInstance@CAffectFlagContainer@@QAEXABV1@@Z ; CAffectFlagContainer::CopyInstance

; 72   : 	
; 73   : 	m_dwServerSrcTime = src.m_dwServerSrcTime;

  0006b	8b 46 58	 mov	 eax, DWORD PTR [esi+88]
  0006e	89 47 58	 mov	 DWORD PTR [edi+88], eax

; 74   : 	m_dwClientSrcTime = src.m_dwClientSrcTime;

  00071	8b 46 5c	 mov	 eax, DWORD PTR [esi+92]
  00074	89 47 5c	 mov	 DWORD PTR [edi+92], eax

; 75   : 	m_dwDuration = src.m_dwDuration;

  00077	8b 46 60	 mov	 eax, DWORD PTR [esi+96]
  0007a	89 47 60	 mov	 DWORD PTR [edi+96], eax

; 76   : 
; 77   : 	m_dwArmor = src.m_dwArmor;

  0007d	8b 46 64	 mov	 eax, DWORD PTR [esi+100]
  00080	89 47 64	 mov	 DWORD PTR [edi+100], eax

; 78   : 	m_dwWeapon = src.m_dwWeapon;

  00083	8b 46 68	 mov	 eax, DWORD PTR [esi+104]
  00086	89 47 68	 mov	 DWORD PTR [edi+104], eax

; 79   : 	m_dwHair = src.m_dwHair;

  00089	8b 46 6c	 mov	 eax, DWORD PTR [esi+108]
  0008c	89 47 6c	 mov	 DWORD PTR [edi+108], eax

; 80   : 
; 81   : 	m_dwOwnerVID = src.m_dwOwnerVID;

  0008f	8b 46 70	 mov	 eax, DWORD PTR [esi+112]
  00092	89 47 70	 mov	 DWORD PTR [edi+112], eax

; 82   : 
; 83   : 	m_sAlignment = src.m_sAlignment;

  00095	66 8b 46 74	 mov	 ax, WORD PTR [esi+116]
  00099	66 89 47 74	 mov	 WORD PTR [edi+116], ax

; 84   : 	m_byPKMode = src.m_byPKMode;

  0009d	0f b6 46 76	 movzx	 eax, BYTE PTR [esi+118]
  000a1	88 47 76	 mov	 BYTE PTR [edi+118], al

; 85   : 	m_dwMountVnum = src.m_dwMountVnum;

  000a4	8b 46 78	 mov	 eax, DWORD PTR [esi+120]
  000a7	89 47 78	 mov	 DWORD PTR [edi+120], eax

; 86   : 
; 87   : 	m_dwGuildID = src.m_dwGuildID;

  000aa	8b 46 7c	 mov	 eax, DWORD PTR [esi+124]
  000ad	89 47 7c	 mov	 DWORD PTR [edi+124], eax

; 88   : 	m_dwLevel = src.m_dwLevel;

  000b0	8b 86 80 00 00
	00		 mov	 eax, DWORD PTR [esi+128]
  000b6	89 87 80 00 00
	00		 mov	 DWORD PTR [edi+128], eax
; File C:\Program Files (x86)\Microsoft Visual Studio\2019\Community\VC\Tools\MSVC\14.28.29333\include\xstring

; 2863 :         if (this != _STD addressof(_Right)) {

  000bc	3b fe		 cmp	 edi, esi
  000be	74 15		 je	 SHORT $LN4@copy__

; 2227 :         return _BUF_SIZE <= _Myres;

  000c0	83 7e 14 10	 cmp	 DWORD PTR [esi+20], 16	; 00000010H

; 2218 :         const value_type* _Result = _Bx._Buf;

  000c4	8b c6		 mov	 eax, esi

; 2219 :         if (_Large_string_engaged()) {

  000c6	72 02		 jb	 SHORT $LN9@copy__

; 2220 :             _Result = _Unfancy(_Bx._Ptr);

  000c8	8b 06		 mov	 eax, DWORD PTR [esi]
$LN9@copy__:

; 2828 :         assign(_Right._Mypair._Myval2._Myptr(), _Right._Mypair._Myval2._Mysize);

  000ca	ff 76 10	 push	 DWORD PTR [esi+16]
  000cd	8b cf		 mov	 ecx, edi
  000cf	50		 push	 eax
  000d0	e8 00 00 00 00	 call	 ?assign@?$basic_string@DU?$char_traits@D@std@@V?$allocator@D@2@@std@@QAEAAV12@QBDI@Z ; std::basic_string<char,std::char_traits<char>,std::allocator<char> >::assign
$LN4@copy__:
  000d5	5f		 pop	 edi
; File D:\Metin2 Server Files\mainline\SRC_2014\Metin2Client\UserInterface\NetworkActorManager.cpp

; 90   : }

  000d6	5e		 pop	 esi
  000d7	5d		 pop	 ebp
  000d8	c2 04 00	 ret	 4
?__copy__@SNetworkActorData@@QAEXABU1@@Z ENDP		; SNetworkActorData::__copy__
_TEXT	ENDS
; Function compile flags: /Ogtp
; File D:\Metin2 Server Files\mainline\SRC_2014\Metin2Client\UserInterface\NetworkActorManager.cpp
;	COMDAT ??4SNetworkActorData@@QAEXABU0@@Z
_TEXT	SEGMENT
_src$ = 8						; size = 4
??4SNetworkActorData@@QAEXABU0@@Z PROC			; SNetworkActorData::operator=, COMDAT
; _this$ = ecx

; 51   : {

  00000	55		 push	 ebp
  00001	8b ec		 mov	 ebp, esp

; 53   : }

  00003	5d		 pop	 ebp

; 52   : 	__copy__(src);

  00004	e9 00 00 00 00	 jmp	 ?__copy__@SNetworkActorData@@QAEXABU1@@Z ; SNetworkActorData::__copy__
??4SNetworkActorData@@QAEXABU0@@Z ENDP			; SNetworkActorData::operator=
_TEXT	ENDS
; Function compile flags: /Ogtp
; File D:\Metin2 Server Files\mainline\SRC_2014\Metin2Client\UserInterface\NetworkActorManager.cpp
; File C:\Program Files (x86)\Microsoft Visual Studio\2019\Community\VC\Tools\MSVC\14.28.29333\include\xstring
; File D:\Metin2 Server Files\mainline\SRC_2014\Metin2Client\UserInterface\NetworkActorManager.cpp
;	COMDAT ??0SNetworkActorData@@QAE@ABU0@@Z
_TEXT	SEGMENT
_this$ = -16						; size = 4
__$EHRec$ = -12						; size = 12
_src$ = 8						; size = 4
??0SNetworkActorData@@QAE@ABU0@@Z PROC			; SNetworkActorData::SNetworkActorData, COMDAT
; _this$ = ecx

; 46   : {

  00000	55		 push	 ebp
  00001	8b ec		 mov	 ebp, esp
  00003	6a ff		 push	 -1
  00005	68 00 00 00 00	 push	 __ehhandler$??0SNetworkActorData@@QAE@ABU0@@Z
  0000a	64 a1 00 00 00
	00		 mov	 eax, DWORD PTR fs:0
  00010	50		 push	 eax
  00011	51		 push	 ecx
  00012	56		 push	 esi
  00013	a1 00 00 00 00	 mov	 eax, DWORD PTR ___security_cookie
  00018	33 c5		 xor	 eax, ebp
  0001a	50		 push	 eax
  0001b	8d 45 f4	 lea	 eax, DWORD PTR __$EHRec$[ebp]
  0001e	64 a3 00 00 00
	00		 mov	 DWORD PTR fs:0, eax
  00024	8b f1		 mov	 esi, ecx
  00026	89 75 f0	 mov	 DWORD PTR _this$[ebp], esi
; File C:\Program Files (x86)\Microsoft Visual Studio\2019\Community\VC\Tools\MSVC\14.28.29333\include\xstring

; 4377 :         _Mypair._Myval2._Mysize = 0;

  00029	c7 46 10 00 00
	00 00		 mov	 DWORD PTR [esi+16], 0

; 4378 :         _Mypair._Myval2._Myres  = _BUF_SIZE - 1;

  00030	c7 46 14 0f 00
	00 00		 mov	 DWORD PTR [esi+20], 15	; 0000000fH

; 4379 :         // the _Traits::assign is last so the codegen doesn't think the char write can alias this
; 4380 :         _Traits::assign(_Mypair._Myval2._Bx._Buf[0], _Elem());

  00037	c6 06 00	 mov	 BYTE PTR [esi], 0
; File D:\Metin2 Server Files\mainline\SRC_2014\Metin2Client\UserInterface\NetworkActorManager.cpp

; 46   : {

  0003a	8d 4e 18	 lea	 ecx, DWORD PTR [esi+24]
  0003d	c7 45 fc 00 00
	00 00		 mov	 DWORD PTR __$EHRec$[ebp+8], 0
  00044	e8 00 00 00 00	 call	 ??0CAffectFlagContainer@@QAE@XZ ; CAffectFlagContainer::CAffectFlagContainer

; 47   : 	__copy__(src);

  00049	ff 75 08	 push	 DWORD PTR _src$[ebp]
  0004c	8b ce		 mov	 ecx, esi
  0004e	c6 45 fc 01	 mov	 BYTE PTR __$EHRec$[ebp+8], 1
  00052	e8 00 00 00 00	 call	 ?__copy__@SNetworkActorData@@QAEXABU1@@Z ; SNetworkActorData::__copy__

; 48   : }

  00057	8b c6		 mov	 eax, esi
  00059	8b 4d f4	 mov	 ecx, DWORD PTR __$EHRec$[ebp]
  0005c	64 89 0d 00 00
	00 00		 mov	 DWORD PTR fs:0, ecx
  00063	59		 pop	 ecx
  00064	5e		 pop	 esi
  00065	8b e5		 mov	 esp, ebp
  00067	5d		 pop	 ebp
  00068	c2 04 00	 ret	 4
_TEXT	ENDS
;	COMDAT text$x
text$x	SEGMENT
__unwindfunclet$??0SNetworkActorData@@QAE@ABU0@@Z$0:
  00000	8b 4d f0	 mov	 ecx, DWORD PTR _this$[ebp]
  00003	e9 00 00 00 00	 jmp	 ??1?$basic_string@DU?$char_traits@D@std@@V?$allocator@D@2@@std@@QAE@XZ ; std::basic_string<char,std::char_traits<char>,std::allocator<char> >::~basic_string<char,std::char_traits<char>,std::allocator<char> >
__unwindfunclet$??0SNetworkActorData@@QAE@ABU0@@Z$1:
  00008	8b 4d f0	 mov	 ecx, DWORD PTR _this$[ebp]
  0000b	83 c1 18	 add	 ecx, 24			; 00000018H
  0000e	e9 00 00 00 00	 jmp	 ??1CAffectFlagContainer@@QAE@XZ ; CAffectFlagContainer::~CAffectFlagContainer
  00013	cc		 int	 3
  00014	cc		 int	 3
  00015	cc		 int	 3
  00016	cc		 int	 3
  00017	cc		 int	 3
__ehhandler$??0SNetworkActorData@@QAE@ABU0@@Z:
  00018	90		 npad	 1
  00019	90		 npad	 1
  0001a	8b 54 24 08	 mov	 edx, DWORD PTR [esp+8]
  0001e	8d 42 0c	 lea	 eax, DWORD PTR [edx+12]
  00021	8b 4a f4	 mov	 ecx, DWORD PTR [edx-12]
  00024	33 c8		 xor	 ecx, eax
  00026	e8 00 00 00 00	 call	 @__security_check_cookie@4
  0002b	b8 00 00 00 00	 mov	 eax, OFFSET __ehfuncinfo$??0SNetworkActorData@@QAE@ABU0@@Z
  00030	e9 00 00 00 00	 jmp	 ___CxxFrameHandler3
text$x	ENDS
??0SNetworkActorData@@QAE@ABU0@@Z ENDP			; SNetworkActorData::SNetworkActorData
; Function compile flags: /Ogtp
; File D:\Metin2 Server Files\mainline\SRC_2014\Metin2Client\UserInterface\NetworkActorManager.cpp
;	COMDAT ?UpdatePosition@SNetworkActorData@@QAEXXZ
_TEXT	SEGMENT
?UpdatePosition@SNetworkActorData@@QAEXXZ PROC		; SNetworkActorData::UpdatePosition, COMDAT
; _this$ = ecx

; 9    : {

  00000	56		 push	 esi
  00001	57		 push	 edi
  00002	8b f1		 mov	 esi, ecx

; 10   : 	DWORD dwClientCurTime=ELTimer_GetMSec();

  00004	e8 00 00 00 00	 call	 ?ELTimer_GetMSec@@YAKXZ	; ELTimer_GetMSec

; 11   : 	DWORD dwElapsedTime=dwClientCurTime-m_dwClientSrcTime;

  00009	2b 46 5c	 sub	 eax, DWORD PTR [esi+92]

; 12   : 
; 13   : 	if (dwElapsedTime<m_dwDuration)

  0000c	8b 56 60	 mov	 edx, DWORD PTR [esi+96]
  0000f	8b 7e 50	 mov	 edi, DWORD PTR [esi+80]
  00012	8b 4e 54	 mov	 ecx, DWORD PTR [esi+84]
  00015	3b c2		 cmp	 eax, edx
  00017	73 79		 jae	 SHORT $LN2@UpdatePosi

; 14   : 	{
; 15   : 		float fRate=float(dwElapsedTime)/float(m_dwDuration);

  00019	0f 57 c0	 xorps	 xmm0, xmm0
  0001c	0f 57 c9	 xorps	 xmm1, xmm1
  0001f	f2 0f 2a c0	 cvtsi2sd xmm0, eax
  00023	c1 e8 1f	 shr	 eax, 31			; 0000001fH
  00026	f2 0f 58 04 c5
	00 00 00 00	 addsd	 xmm0, QWORD PTR __xmm@41f00000000000000000000000000000[eax*8]

; 16   : 		m_lCurX=LONG((m_lDstX-m_lSrcX)*fRate+m_lSrcX);
; 17   : 		m_lCurY=LONG((m_lDstY-m_lSrcY)*fRate+m_lSrcY);

  0002f	8b 46 4c	 mov	 eax, DWORD PTR [esi+76]
  00032	2b c8		 sub	 ecx, eax
  00034	66 0f 5a d0	 cvtpd2ps xmm2, xmm0
  00038	0f 57 c0	 xorps	 xmm0, xmm0
  0003b	f2 0f 2a c2	 cvtsi2sd xmm0, edx
  0003f	c1 ea 1f	 shr	 edx, 31			; 0000001fH
  00042	f3 0f 2a c9	 cvtsi2ss xmm1, ecx
  00046	f2 0f 58 04 d5
	00 00 00 00	 addsd	 xmm0, QWORD PTR __xmm@41f00000000000000000000000000000[edx*8]
  0004f	8b 56 48	 mov	 edx, DWORD PTR [esi+72]
  00052	2b fa		 sub	 edi, edx
  00054	66 0f 5a c0	 cvtpd2ps xmm0, xmm0
  00058	f3 0f 5e d0	 divss	 xmm2, xmm0
  0005c	0f 57 c0	 xorps	 xmm0, xmm0
  0005f	f3 0f 2a c0	 cvtsi2ss xmm0, eax
  00063	f3 0f 59 ca	 mulss	 xmm1, xmm2
  00067	f3 0f 58 c8	 addss	 xmm1, xmm0
  0006b	0f 57 c0	 xorps	 xmm0, xmm0
  0006e	f3 0f 2a c2	 cvtsi2ss xmm0, edx
  00072	f3 0f 2c c9	 cvttss2si ecx, xmm1
  00076	0f 57 c9	 xorps	 xmm1, xmm1
  00079	f3 0f 2a cf	 cvtsi2ss xmm1, edi
  0007d	5f		 pop	 edi
  0007e	f3 0f 59 ca	 mulss	 xmm1, xmm2
  00082	f3 0f 58 c8	 addss	 xmm1, xmm0
  00086	f3 0f 2c c1	 cvttss2si eax, xmm1

; 18   : 	}
; 19   : 	else
; 20   : 	{
; 21   : 		m_lCurX=m_lDstX;
; 22   : 		m_lCurY=m_lDstY;
; 23   : 	}
; 24   : }

  0008a	89 46 40	 mov	 DWORD PTR [esi+64], eax
  0008d	89 4e 44	 mov	 DWORD PTR [esi+68], ecx
  00090	5e		 pop	 esi
  00091	c3		 ret	 0
$LN2@UpdatePosi:
  00092	89 7e 40	 mov	 DWORD PTR [esi+64], edi
  00095	5f		 pop	 edi
  00096	89 4e 44	 mov	 DWORD PTR [esi+68], ecx
  00099	5e		 pop	 esi
  0009a	c3		 ret	 0
?UpdatePosition@SNetworkActorData@@QAEXXZ ENDP		; SNetworkActorData::UpdatePosition
_TEXT	ENDS
; Function compile flags: /Ogtp
; File D:\Metin2 Server Files\mainline\SRC_2014\Metin2Client\UserInterface\NetworkActorManager.cpp
;	COMDAT ?SetPosition@SNetworkActorData@@QAEXJJ@Z
_TEXT	SEGMENT
_lPosX$ = 8						; size = 4
_lPosY$ = 12						; size = 4
?SetPosition@SNetworkActorData@@QAEXJJ@Z PROC		; SNetworkActorData::SetPosition, COMDAT
; _this$ = ecx

; 39   : {

  00000	55		 push	 ebp
  00001	8b ec		 mov	 ebp, esp

; 40   : 	m_lDstX=m_lSrcX=m_lCurX=lPosX;

  00003	8b 45 08	 mov	 eax, DWORD PTR _lPosX$[ebp]
  00006	89 41 40	 mov	 DWORD PTR [ecx+64], eax
  00009	89 41 48	 mov	 DWORD PTR [ecx+72], eax
  0000c	89 41 50	 mov	 DWORD PTR [ecx+80], eax

; 41   : 	m_lDstY=m_lSrcY=m_lCurY=lPosY;

  0000f	8b 45 0c	 mov	 eax, DWORD PTR _lPosY$[ebp]
  00012	89 41 44	 mov	 DWORD PTR [ecx+68], eax
  00015	89 41 4c	 mov	 DWORD PTR [ecx+76], eax
  00018	89 41 54	 mov	 DWORD PTR [ecx+84], eax

; 42   : }

  0001b	5d		 pop	 ebp
  0001c	c2 08 00	 ret	 8
?SetPosition@SNetworkActorData@@QAEXJJ@Z ENDP		; SNetworkActorData::SetPosition
_TEXT	ENDS
; Function compile flags: /Ogtp
; File D:\Metin2 Server Files\mainline\SRC_2014\Metin2Client\UserInterface\NetworkActorManager.cpp
;	COMDAT ?SetDstPosition@SNetworkActorData@@QAEXKJJK@Z
_TEXT	SEGMENT
_dwServerTime$ = 8					; size = 4
_lDstX$ = 12						; size = 4
_lDstY$ = 16						; size = 4
_dwDuration$ = 20					; size = 4
?SetDstPosition@SNetworkActorData@@QAEXKJJK@Z PROC	; SNetworkActorData::SetDstPosition, COMDAT
; _this$ = ecx

; 27   : {

  00000	55		 push	 ebp
  00001	8b ec		 mov	 ebp, esp
  00003	56		 push	 esi
  00004	8b f1		 mov	 esi, ecx

; 28   : 	m_lSrcX=m_lCurX;

  00006	8b 46 40	 mov	 eax, DWORD PTR [esi+64]
  00009	89 46 48	 mov	 DWORD PTR [esi+72], eax

; 29   : 	m_lSrcY=m_lCurY;

  0000c	8b 46 44	 mov	 eax, DWORD PTR [esi+68]
  0000f	89 46 4c	 mov	 DWORD PTR [esi+76], eax

; 30   : 	m_lDstX=lDstX;

  00012	8b 45 0c	 mov	 eax, DWORD PTR _lDstX$[ebp]
  00015	89 46 50	 mov	 DWORD PTR [esi+80], eax

; 31   : 	m_lDstY=lDstY;

  00018	8b 45 10	 mov	 eax, DWORD PTR _lDstY$[ebp]
  0001b	89 46 54	 mov	 DWORD PTR [esi+84], eax

; 32   : 
; 33   : 	m_dwDuration=dwDuration;

  0001e	8b 45 14	 mov	 eax, DWORD PTR _dwDuration$[ebp]
  00021	89 46 60	 mov	 DWORD PTR [esi+96], eax

; 34   : 	m_dwServerSrcTime=dwServerTime;

  00024	8b 45 08	 mov	 eax, DWORD PTR _dwServerTime$[ebp]
  00027	89 46 58	 mov	 DWORD PTR [esi+88], eax

; 35   : 	m_dwClientSrcTime=ELTimer_GetMSec();		

  0002a	e8 00 00 00 00	 call	 ?ELTimer_GetMSec@@YAKXZ	; ELTimer_GetMSec
  0002f	89 46 5c	 mov	 DWORD PTR [esi+92], eax
  00032	5e		 pop	 esi

; 36   : }

  00033	5d		 pop	 ebp
  00034	c2 10 00	 ret	 16			; 00000010H
?SetDstPosition@SNetworkActorData@@QAEXKJJK@Z ENDP	; SNetworkActorData::SetDstPosition
_TEXT	ENDS
; Function compile flags: /Ogtp
; File D:\Metin2 Server Files\mainline\SRC_2014\Metin2Client\UserInterface\NetworkActorManager.cpp
; File C:\Program Files (x86)\Microsoft Visual Studio\2019\Community\VC\Tools\MSVC\14.28.29333\include\xstring
; File D:\Metin2 Server Files\mainline\SRC_2014\Metin2Client\UserInterface\NetworkActorManager.cpp
; File C:\Program Files (x86)\Microsoft Visual Studio\2019\Community\VC\Tools\MSVC\14.28.29333\include\xstring
; File D:\Metin2 Server Files\mainline\SRC_2014\Metin2Client\UserInterface\NetworkActorManager.cpp
; File C:\Program Files (x86)\Microsoft Visual Studio\2019\Community\VC\Tools\MSVC\14.28.29333\include\xstring
; File D:\Metin2 Server Files\mainline\SRC_2014\Metin2Client\UserInterface\NetworkActorManager.cpp
; File C:\Program Files (x86)\Microsoft Visual Studio\2019\Community\VC\Tools\MSVC\14.28.29333\include\xstring
; File D:\Metin2 Server Files\mainline\SRC_2014\Metin2Client\UserInterface\NetworkActorManager.cpp
;	COMDAT ??0SNetworkActorData@@QAE@XZ
_TEXT	SEGMENT
_this$ = -16						; size = 4
__$EHRec$ = -12						; size = 12
??0SNetworkActorData@@QAE@XZ PROC			; SNetworkActorData::SNetworkActorData, COMDAT
; _this$ = ecx

; 94   : {

  00000	55		 push	 ebp
  00001	8b ec		 mov	 ebp, esp
  00003	6a ff		 push	 -1
  00005	68 00 00 00 00	 push	 __ehhandler$??0SNetworkActorData@@QAE@XZ
  0000a	64 a1 00 00 00
	00		 mov	 eax, DWORD PTR fs:0
  00010	50		 push	 eax
  00011	51		 push	 ecx
  00012	56		 push	 esi
  00013	57		 push	 edi
  00014	a1 00 00 00 00	 mov	 eax, DWORD PTR ___security_cookie
  00019	33 c5		 xor	 eax, ebp
  0001b	50		 push	 eax
  0001c	8d 45 f4	 lea	 eax, DWORD PTR __$EHRec$[ebp]
  0001f	64 a3 00 00 00
	00		 mov	 DWORD PTR fs:0, eax
  00025	8b f1		 mov	 esi, ecx
  00027	89 75 f0	 mov	 DWORD PTR _this$[ebp], esi
; File C:\Program Files (x86)\Microsoft Visual Studio\2019\Community\VC\Tools\MSVC\14.28.29333\include\xstring

; 4377 :         _Mypair._Myval2._Mysize = 0;

  0002a	c7 46 10 00 00
	00 00		 mov	 DWORD PTR [esi+16], 0

; 4378 :         _Mypair._Myval2._Myres  = _BUF_SIZE - 1;

  00031	c7 46 14 0f 00
	00 00		 mov	 DWORD PTR [esi+20], 15	; 0000000fH

; 4379 :         // the _Traits::assign is last so the codegen doesn't think the char write can alias this
; 4380 :         _Traits::assign(_Mypair._Myval2._Bx._Buf[0], _Elem());

  00038	c6 06 00	 mov	 BYTE PTR [esi], 0
; File D:\Metin2 Server Files\mainline\SRC_2014\Metin2Client\UserInterface\NetworkActorManager.cpp

; 94   : {

  0003b	8d 4e 18	 lea	 ecx, DWORD PTR [esi+24]
  0003e	c7 45 fc 00 00
	00 00		 mov	 DWORD PTR __$EHRec$[ebp+8], 0
  00045	e8 00 00 00 00	 call	 ??0CAffectFlagContainer@@QAE@XZ ; CAffectFlagContainer::CAffectFlagContainer

; 95   : 	SetPosition(0, 0);

  0004a	6a 00		 push	 0
  0004c	6a 00		 push	 0
  0004e	8b ce		 mov	 ecx, esi
  00050	c6 45 fc 01	 mov	 BYTE PTR __$EHRec$[ebp+8], 1
  00054	e8 00 00 00 00	 call	 ?SetPosition@SNetworkActorData@@QAEXJJ@Z ; SNetworkActorData::SetPosition

; 114  : 
; 115  : 	m_sAlignment=0;

  00059	33 c0		 xor	 eax, eax
  0005b	c6 46 20 00	 mov	 BYTE PTR [esi+32], 0
  0005f	66 89 46 74	 mov	 WORD PTR [esi+116], ax

; 116  : 	m_byPKMode=0;

  00063	88 46 76	 mov	 BYTE PTR [esi+118], al

; 117  : 	m_dwMountVnum=0;

  00066	89 46 78	 mov	 DWORD PTR [esi+120], eax
; File C:\Program Files (x86)\Microsoft Visual Studio\2019\Community\VC\Tools\MSVC\14.28.29333\include\xstring

; 2209 :         value_type* _Result = _Bx._Buf;

  00069	8b c6		 mov	 eax, esi
; File D:\Metin2 Server Files\mainline\SRC_2014\Metin2Client\UserInterface\NetworkActorManager.cpp

; 98   : 	m_dwVID=0;

  0006b	c7 46 24 00 00
	00 00		 mov	 DWORD PTR [esi+36], 0

; 99   : 	m_dwStateFlags=0;

  00072	c7 46 28 00 00
	00 00		 mov	 DWORD PTR [esi+40], 0

; 100  : 	m_dwRace=0;

  00079	c7 46 30 00 00
	00 00		 mov	 DWORD PTR [esi+48], 0

; 101  : 	m_dwMovSpd=0;

  00080	c7 46 34 00 00
	00 00		 mov	 DWORD PTR [esi+52], 0

; 102  : 	m_dwAtkSpd=0;

  00087	c7 46 38 00 00
	00 00		 mov	 DWORD PTR [esi+56], 0

; 103  : 	m_fRot=0.0f;

  0008e	c7 46 3c 00 00
	00 00		 mov	 DWORD PTR [esi+60], 0

; 104  : 	m_dwArmor=0;

  00095	c7 46 64 00 00
	00 00		 mov	 DWORD PTR [esi+100], 0

; 105  : 	m_dwWeapon=0;	

  0009c	c7 46 68 00 00
	00 00		 mov	 DWORD PTR [esi+104], 0

; 106  : 	m_dwHair=0;

  000a3	c7 46 6c 00 00
	00 00		 mov	 DWORD PTR [esi+108], 0

; 107  : 	m_dwEmpireID=0;

  000aa	c7 46 2c 00 00
	00 00		 mov	 DWORD PTR [esi+44], 0

; 108  : 
; 109  : 	m_dwOwnerVID=0;

  000b1	c7 46 70 00 00
	00 00		 mov	 DWORD PTR [esi+112], 0

; 110  : 
; 111  : 	m_dwDuration=0;

  000b8	c7 46 60 00 00
	00 00		 mov	 DWORD PTR [esi+96], 0

; 112  : 	m_dwClientSrcTime=0;

  000bf	c7 46 5c 00 00
	00 00		 mov	 DWORD PTR [esi+92], 0

; 113  : 	m_dwServerSrcTime=0;

  000c6	c7 46 58 00 00
	00 00		 mov	 DWORD PTR [esi+88], 0
; File C:\Program Files (x86)\Microsoft Visual Studio\2019\Community\VC\Tools\MSVC\14.28.29333\include\xstring

; 2227 :         return _BUF_SIZE <= _Myres;

  000cd	83 7e 14 10	 cmp	 DWORD PTR [esi+20], 16	; 00000010H

; 2210 :         if (_Large_string_engaged()) {

  000d1	72 02		 jb	 SHORT $LN26@SNetworkAc

; 2211 :             _Result = _Unfancy(_Bx._Ptr);

  000d3	8b 06		 mov	 eax, DWORD PTR [esi]
$LN26@SNetworkAc:

; 3046 :             _Mypair._Myval2._Mysize = _Count;

  000d5	c7 46 10 00 00
	00 00		 mov	 DWORD PTR [esi+16], 0
; File D:\Metin2 Server Files\mainline\SRC_2014\Metin2Client\UserInterface\NetworkActorManager.cpp

; 121  : 	m_kAffectFlags.Clear();

  000dc	8d 4e 18	 lea	 ecx, DWORD PTR [esi+24]
; File C:\Program Files (x86)\Microsoft Visual Studio\2019\Community\VC\Tools\MSVC\14.28.29333\include\xstring

; 3048 :             _Traits::assign(_Old_ptr[_Count], _Elem());

  000df	c6 00 00	 mov	 BYTE PTR [eax], 0
; File D:\Metin2 Server Files\mainline\SRC_2014\Metin2Client\UserInterface\NetworkActorManager.cpp

; 121  : 	m_kAffectFlags.Clear();

  000e2	e8 00 00 00 00	 call	 ?Clear@CAffectFlagContainer@@QAEXXZ ; CAffectFlagContainer::Clear

; 122  : }

  000e7	8b c6		 mov	 eax, esi
  000e9	8b 4d f4	 mov	 ecx, DWORD PTR __$EHRec$[ebp]
  000ec	64 89 0d 00 00
	00 00		 mov	 DWORD PTR fs:0, ecx
  000f3	59		 pop	 ecx
  000f4	5f		 pop	 edi
  000f5	5e		 pop	 esi
  000f6	8b e5		 mov	 esp, ebp
  000f8	5d		 pop	 ebp
  000f9	c3		 ret	 0
_TEXT	ENDS
;	COMDAT text$x
text$x	SEGMENT
__unwindfunclet$??0SNetworkActorData@@QAE@XZ$0:
  00000	8b 4d f0	 mov	 ecx, DWORD PTR _this$[ebp]
  00003	e9 00 00 00 00	 jmp	 ??1?$basic_string@DU?$char_traits@D@std@@V?$allocator@D@2@@std@@QAE@XZ ; std::basic_string<char,std::char_traits<char>,std::allocator<char> >::~basic_string<char,std::char_traits<char>,std::allocator<char> >
__unwindfunclet$??0SNetworkActorData@@QAE@XZ$1:
  00008	8b 4d f0	 mov	 ecx, DWORD PTR _this$[ebp]
  0000b	83 c1 18	 add	 ecx, 24			; 00000018H
  0000e	e9 00 00 00 00	 jmp	 ??1CAffectFlagContainer@@QAE@XZ ; CAffectFlagContainer::~CAffectFlagContainer
  00013	cc		 int	 3
  00014	cc		 int	 3
  00015	cc		 int	 3
  00016	cc		 int	 3
  00017	cc		 int	 3
__ehhandler$??0SNetworkActorData@@QAE@XZ:
  00018	90		 npad	 1
  00019	90		 npad	 1
  0001a	8b 54 24 08	 mov	 edx, DWORD PTR [esp+8]
  0001e	8d 42 0c	 lea	 eax, DWORD PTR [edx+12]
  00021	8b 4a f0	 mov	 ecx, DWORD PTR [edx-16]
  00024	33 c8		 xor	 ecx, eax
  00026	e8 00 00 00 00	 call	 @__security_check_cookie@4
  0002b	b8 00 00 00 00	 mov	 eax, OFFSET __ehfuncinfo$??0SNetworkActorData@@QAE@XZ
  00030	e9 00 00 00 00	 jmp	 ___CxxFrameHandler3
text$x	ENDS
??0SNetworkActorData@@QAE@XZ ENDP			; SNetworkActorData::SNetworkActorData
; Function compile flags: /Ogtp
; File C:\Program Files (x86)\Microsoft Visual Studio\2019\Community\VC\Tools\MSVC\14.28.29333\include\xstring
; File C:\Program Files (x86)\Microsoft Visual Studio\2019\Community\VC\Tools\MSVC\14.28.29333\include\xmemory
; File C:\Program Files (x86)\Microsoft Visual Studio\2019\Community\VC\Tools\MSVC\14.28.29333\include\xstring
;	COMDAT ??1SCreateData@CInstanceBase@@QAE@XZ
_TEXT	SEGMENT
??1SCreateData@CInstanceBase@@QAE@XZ PROC		; CInstanceBase::SCreateData::~SCreateData, COMDAT
; _this$ = ecx

; 2227 :         return _BUF_SIZE <= _Myres;

  00000	56		 push	 esi
  00001	8b f1		 mov	 esi, ecx
  00003	8b 46 60	 mov	 eax, DWORD PTR [esi+96]
  00006	83 f8 10	 cmp	 eax, 16			; 00000010H

; 4385 :         if (_Mypair._Myval2._Large_string_engaged()) {

  00009	72 0d		 jb	 SHORT $LN7@SCreateDat

; 4386 :             const pointer _Ptr = _Mypair._Myval2._Bx._Ptr;
; 4387 :             auto& _Al          = _Getal();
; 4388 :             _Destroy_in_place(_Mypair._Myval2._Bx._Ptr);
; 4389 :             _Al.deallocate(_Ptr, _Mypair._Myval2._Myres + 1);

  0000b	40		 inc	 eax
; File C:\Program Files (x86)\Microsoft Visual Studio\2019\Community\VC\Tools\MSVC\14.28.29333\include\xmemory

; 810  :         _Deallocate<_New_alignof<_Ty>>(_Ptr, sizeof(_Ty) * _Count);

  0000c	50		 push	 eax
  0000d	ff 76 4c	 push	 DWORD PTR [esi+76]
  00010	e8 00 00 00 00	 call	 ??$_Deallocate@$07$0A@@std@@YAXPAXI@Z ; std::_Deallocate<8,0>
  00015	83 c4 08	 add	 esp, 8
$LN7@SCreateDat:
; File C:\Program Files (x86)\Microsoft Visual Studio\2019\Community\VC\Tools\MSVC\14.28.29333\include\xstring

; 4392 :         _Mypair._Myval2._Mysize = 0;

  00018	c7 46 5c 00 00
	00 00		 mov	 DWORD PTR [esi+92], 0
  0001f	8d 4e 43	 lea	 ecx, DWORD PTR [esi+67]

; 4393 :         _Mypair._Myval2._Myres  = _BUF_SIZE - 1;

  00022	c7 46 60 0f 00
	00 00		 mov	 DWORD PTR [esi+96], 15	; 0000000fH

; 4394 :         // the _Traits::assign is last so the codegen doesn't think the char write can alias this
; 4395 :         _Traits::assign(_Mypair._Myval2._Bx._Buf[0], _Elem());

  00029	c6 46 4c 00	 mov	 BYTE PTR [esi+76], 0
  0002d	5e		 pop	 esi
  0002e	e9 00 00 00 00	 jmp	 ??1CAffectFlagContainer@@QAE@XZ ; CAffectFlagContainer::~CAffectFlagContainer
??1SCreateData@CInstanceBase@@QAE@XZ ENDP		; CInstanceBase::SCreateData::~SCreateData
_TEXT	ENDS
; Function compile flags: /Ogtp
; File C:\Program Files (x86)\Microsoft Visual Studio\2019\Community\VC\Tools\MSVC\14.28.29333\include\xmemory
;	COMDAT ??$_Allocate_manually_vector_aligned@U_Default_allocate_traits@std@@@std@@YAPAXI@Z
_TEXT	SEGMENT
__Bytes$ = 8						; size = 4
??$_Allocate_manually_vector_aligned@U_Default_allocate_traits@std@@@std@@YAPAXI@Z PROC ; std::_Allocate_manually_vector_aligned<std::_Default_allocate_traits>, COMDAT

; 113  : __declspec(allocator) void* _Allocate_manually_vector_aligned(const size_t _Bytes) {

  00000	55		 push	 ebp
  00001	8b ec		 mov	 ebp, esp

; 114  :     // allocate _Bytes manually aligned to at least _Big_allocation_alignment
; 115  :     const size_t _Block_size = _Non_user_size + _Bytes;

  00003	8b 45 08	 mov	 eax, DWORD PTR __Bytes$[ebp]
  00006	8d 48 23	 lea	 ecx, DWORD PTR [eax+35]

; 116  :     if (_Block_size <= _Bytes) {

  00009	3b c8		 cmp	 ecx, eax
  0000b	0f 86 00 00 00
	00		 jbe	 ?_Throw_bad_array_new_length@std@@YAXXZ ; std::_Throw_bad_array_new_length

; 77   :         return ::operator new(_Bytes);

  00011	51		 push	 ecx
  00012	e8 00 00 00 00	 call	 ??2@YAPAXI@Z		; operator new

; 117  :         _Throw_bad_array_new_length(); // add overflow
; 118  :     }
; 119  : 
; 120  :     const uintptr_t _Ptr_container = reinterpret_cast<uintptr_t>(_Traits::_Allocate(_Block_size));

  00017	8b c8		 mov	 ecx, eax

; 77   :         return ::operator new(_Bytes);

  00019	83 c4 04	 add	 esp, 4

; 121  :     _STL_VERIFY(_Ptr_container != 0, "invalid argument"); // validate even in release since we're doing p[-1]

  0001c	85 c9		 test	 ecx, ecx
  0001e	74 0b		 je	 SHORT $LN7@Allocate_m

; 122  :     void* const _Ptr = reinterpret_cast<void*>((_Ptr_container + _Non_user_size) & ~(_Big_allocation_alignment - 1));

  00020	8d 41 23	 lea	 eax, DWORD PTR [ecx+35]
  00023	83 e0 e0	 and	 eax, -32		; ffffffe0H

; 123  :     static_cast<uintptr_t*>(_Ptr)[-1] = _Ptr_container;

  00026	89 48 fc	 mov	 DWORD PTR [eax-4], ecx

; 124  : 
; 125  : #ifdef _DEBUG
; 126  :     static_cast<uintptr_t*>(_Ptr)[-2] = _Big_allocation_sentinel;
; 127  : #endif // _DEBUG
; 128  :     return _Ptr;
; 129  : }

  00029	5d		 pop	 ebp
  0002a	c3		 ret	 0
$LN7@Allocate_m:

; 121  :     _STL_VERIFY(_Ptr_container != 0, "invalid argument"); // validate even in release since we're doing p[-1]

  0002b	e9 00 00 00 00	 jmp	 __invalid_parameter_noinfo_noreturn
??$_Allocate_manually_vector_aligned@U_Default_allocate_traits@std@@@std@@YAPAXI@Z ENDP ; std::_Allocate_manually_vector_aligned<std::_Default_allocate_traits>
_TEXT	ENDS
; Function compile flags: /Ogtp
; File C:\Program Files (x86)\Microsoft Visual Studio\2019\Community\VC\Tools\MSVC\14.28.29333\include\xmemory
;	COMDAT ??$_Allocate@$07U_Default_allocate_traits@std@@$0A@@std@@YAPAXI@Z
_TEXT	SEGMENT
__Bytes$ = 8						; size = 4
??$_Allocate@$07U_Default_allocate_traits@std@@$0A@@std@@YAPAXI@Z PROC ; std::_Allocate<8,std::_Default_allocate_traits,0>, COMDAT

; 197  : __declspec(allocator) void* _Allocate(const size_t _Bytes) {

  00000	55		 push	 ebp
  00001	8b ec		 mov	 ebp, esp

; 198  :     // allocate _Bytes when !_HAS_ALIGNED_NEW || _Align <= __STDCPP_DEFAULT_NEW_ALIGNMENT__
; 199  : #if defined(_M_IX86) || defined(_M_X64)
; 200  :     if (_Bytes >= _Big_allocation_threshold) { // boost the alignment of big allocations to help autovectorization

  00003	8b 45 08	 mov	 eax, DWORD PTR __Bytes$[ebp]
  00006	3d 00 10 00 00	 cmp	 eax, 4096		; 00001000H
  0000b	72 09		 jb	 SHORT $LN2@Allocate

; 201  :         return _Allocate_manually_vector_aligned<_Traits>(_Bytes);

  0000d	89 45 08	 mov	 DWORD PTR __Bytes$[ebp], eax

; 210  : }

  00010	5d		 pop	 ebp

; 201  :         return _Allocate_manually_vector_aligned<_Traits>(_Bytes);

  00011	e9 00 00 00 00	 jmp	 ??$_Allocate_manually_vector_aligned@U_Default_allocate_traits@std@@@std@@YAPAXI@Z ; std::_Allocate_manually_vector_aligned<std::_Default_allocate_traits>
$LN2@Allocate:

; 202  :     }
; 203  : #endif // defined(_M_IX86) || defined(_M_X64)
; 204  : 
; 205  :     if (_Bytes != 0) {

  00016	85 c0		 test	 eax, eax
  00018	74 09		 je	 SHORT $LN3@Allocate

; 77   :         return ::operator new(_Bytes);

  0001a	89 45 08	 mov	 DWORD PTR __Bytes$[ebp], eax

; 210  : }

  0001d	5d		 pop	 ebp

; 77   :         return ::operator new(_Bytes);

  0001e	e9 00 00 00 00	 jmp	 ??2@YAPAXI@Z		; operator new
$LN3@Allocate:

; 206  :         return _Traits::_Allocate(_Bytes);
; 207  :     }
; 208  : 
; 209  :     return nullptr;

  00023	33 c0		 xor	 eax, eax

; 210  : }

  00025	5d		 pop	 ebp
  00026	c3		 ret	 0
??$_Allocate@$07U_Default_allocate_traits@std@@$0A@@std@@YAPAXI@Z ENDP ; std::_Allocate<8,std::_Default_allocate_traits,0>
_TEXT	ENDS
; Function compile flags: /Ogtp
; File C:\Program Files (x86)\Microsoft Visual Studio\2019\Community\VC\Tools\MSVC\14.28.29333\include\xmemory
;	COMDAT ??$_Deallocate@$07$0A@@std@@YAXPAXI@Z
_TEXT	SEGMENT
__Ptr$ = 8						; size = 4
__Bytes$ = 12						; size = 4
??$_Deallocate@$07$0A@@std@@YAXPAXI@Z PROC		; std::_Deallocate<8,0>, COMDAT

; 213  : void _Deallocate(void* _Ptr, size_t _Bytes) noexcept {

  00000	55		 push	 ebp
  00001	8b ec		 mov	 ebp, esp

; 214  :     // deallocate storage allocated by _Allocate when !_HAS_ALIGNED_NEW || _Align <= __STDCPP_DEFAULT_NEW_ALIGNMENT__
; 215  : #if defined(_M_IX86) || defined(_M_X64)
; 216  :     if (_Bytes >= _Big_allocation_threshold) { // boost the alignment of big allocations to help autovectorization

  00003	8b 4d 0c	 mov	 ecx, DWORD PTR __Bytes$[ebp]
  00006	81 f9 00 10 00
	00		 cmp	 ecx, 4096		; 00001000H
  0000c	72 18		 jb	 SHORT $LN15@Deallocate

; 137  :     const uintptr_t _Ptr_container   = _Ptr_user[-1];

  0000e	8b 45 08	 mov	 eax, DWORD PTR __Ptr$[ebp]
  00011	83 c1 23	 add	 ecx, 35			; 00000023H
  00014	8b 50 fc	 mov	 edx, DWORD PTR [eax-4]

; 138  : 
; 139  :     // If the following asserts, it likely means that we are performing
; 140  :     // an aligned delete on memory coming from an unaligned allocation.
; 141  :     _STL_ASSERT(_Ptr_user[-2] == _Big_allocation_sentinel, "invalid argument");
; 142  : 
; 143  :     // Extra paranoia on aligned allocation/deallocation; ensure _Ptr_container is
; 144  :     // in range [_Min_back_shift, _Non_user_size]
; 145  : #ifdef _DEBUG
; 146  :     constexpr uintptr_t _Min_back_shift = 2 * sizeof(void*);
; 147  : #else // ^^^ _DEBUG ^^^ // vvv !_DEBUG vvv
; 148  :     constexpr uintptr_t _Min_back_shift = sizeof(void*);
; 149  : #endif // _DEBUG
; 150  :     const uintptr_t _Back_shift = reinterpret_cast<uintptr_t>(_Ptr) - _Ptr_container;

  00017	2b c2		 sub	 eax, edx

; 151  :     _STL_VERIFY(_Back_shift >= _Min_back_shift && _Back_shift <= _Non_user_size, "invalid argument");

  00019	83 c0 fc	 add	 eax, -4			; fffffffcH
  0001c	83 f8 1f	 cmp	 eax, 31			; 0000001fH
  0001f	76 08		 jbe	 SHORT $LN13@Deallocate
  00021	e9 00 00 00 00	 jmp	 __invalid_parameter_noinfo_noreturn
$LN15@Deallocate:

; 214  :     // deallocate storage allocated by _Allocate when !_HAS_ALIGNED_NEW || _Align <= __STDCPP_DEFAULT_NEW_ALIGNMENT__
; 215  : #if defined(_M_IX86) || defined(_M_X64)
; 216  :     if (_Bytes >= _Big_allocation_threshold) { // boost the alignment of big allocations to help autovectorization

  00026	8b 55 08	 mov	 edx, DWORD PTR __Ptr$[ebp]
$LN13@Deallocate:

; 217  :         _Adjust_manually_vector_aligned(_Ptr, _Bytes);
; 218  :     }
; 219  : #endif // defined(_M_IX86) || defined(_M_X64)
; 220  : 
; 221  :     ::operator delete(_Ptr, _Bytes);

  00029	89 4d 0c	 mov	 DWORD PTR __Bytes$[ebp], ecx
  0002c	89 55 08	 mov	 DWORD PTR __Ptr$[ebp], edx

; 222  : }

  0002f	5d		 pop	 ebp

; 217  :         _Adjust_manually_vector_aligned(_Ptr, _Bytes);
; 218  :     }
; 219  : #endif // defined(_M_IX86) || defined(_M_X64)
; 220  : 
; 221  :     ::operator delete(_Ptr, _Bytes);

  00030	e9 00 00 00 00	 jmp	 ??3@YAXPAXI@Z		; operator delete
??$_Deallocate@$07$0A@@std@@YAXPAXI@Z ENDP		; std::_Deallocate<8,0>
_TEXT	ENDS
; Function compile flags: /Ogtp
; File C:\Program Files (x86)\Microsoft Visual Studio\2019\Community\VC\Tools\MSVC\14.28.29333\include\xmemory
;	COMDAT ??$_Construct_in_place@PADABQAD@std@@YAXAAPADABQAD@Z
_TEXT	SEGMENT
__Obj$ = 8						; size = 4
_<_Args_0>$ = 12					; size = 4
??$_Construct_in_place@PADABQAD@std@@YAXAAPADABQAD@Z PROC ; std::_Construct_in_place<char *,char * const &>, COMDAT

; 228  : void _Construct_in_place(_Ty& _Obj, _Types&&... _Args) noexcept(is_nothrow_constructible_v<_Ty, _Types...>) {

  00000	55		 push	 ebp
  00001	8b ec		 mov	 ebp, esp

; 229  :     ::new (const_cast<void*>(static_cast<const volatile void*>(_STD addressof(_Obj))))

  00003	8b 45 0c	 mov	 eax, DWORD PTR _<_Args_0>$[ebp]
  00006	8b 08		 mov	 ecx, DWORD PTR [eax]
  00008	8b 45 08	 mov	 eax, DWORD PTR __Obj$[ebp]
  0000b	89 08		 mov	 DWORD PTR [eax], ecx

; 230  :         _Ty(_STD forward<_Types>(_Args)...);
; 231  : }

  0000d	5d		 pop	 ebp
  0000e	c3		 ret	 0
??$_Construct_in_place@PADABQAD@std@@YAXAAPADABQAD@Z ENDP ; std::_Construct_in_place<char *,char * const &>
_TEXT	ENDS
; Function compile flags: /Ogtp
; File C:\Program Files (x86)\Microsoft Visual Studio\2019\Community\VC\Tools\MSVC\14.28.29333\include\xmemory
;	COMDAT ??$_Destroy_in_place@PAD@std@@YAXAAPAD@Z
_TEXT	SEGMENT
__Obj$ = 8						; size = 4
??$_Destroy_in_place@PAD@std@@YAXAAPAD@Z PROC		; std::_Destroy_in_place<char *>, COMDAT

; 271  : #if _HAS_IF_CONSTEXPR
; 272  :     if constexpr (is_array_v<_Ty>) {
; 273  :         _Destroy_range(_Obj, _Obj + extent_v<_Ty>);
; 274  :     } else
; 275  : #endif // _HAS_IF_CONSTEXPR
; 276  :     {
; 277  :         _Obj.~_Ty();
; 278  :     }
; 279  : }

  00000	c2 00 00	 ret	 0
??$_Destroy_in_place@PAD@std@@YAXAAPAD@Z ENDP		; std::_Destroy_in_place<char *>
_TEXT	ENDS
; Function compile flags: /Ogtp
; File C:\Program Files (x86)\Microsoft Visual Studio\2019\Community\VC\Tools\MSVC\14.28.29333\include\vector
;	COMDAT ?_Xlength@?$vector@KV?$allocator@K@std@@@std@@CAXXZ
_TEXT	SEGMENT
?_Xlength@?$vector@KV?$allocator@K@std@@@std@@CAXXZ PROC ; std::vector<unsigned long,std::allocator<unsigned long> >::_Xlength, COMDAT

; 1705 :         _Xlength_error("vector too long");

  00000	68 00 00 00 00	 push	 OFFSET ??_C@_0BA@FOIKENOD@vector?5too?5long@
  00005	e8 00 00 00 00	 call	 ?_Xlength_error@std@@YAXPBD@Z ; std::_Xlength_error
$LN3@Xlength:
  0000a	cc		 int	 3
?_Xlength@?$vector@KV?$allocator@K@std@@@std@@CAXXZ ENDP ; std::vector<unsigned long,std::allocator<unsigned long> >::_Xlength
_TEXT	ENDS
; Function compile flags: /Ogtp
; File C:\Program Files (x86)\Microsoft Visual Studio\2019\Community\VC\Tools\MSVC\14.28.29333\include\vector
; File C:\Program Files (x86)\Microsoft Visual Studio\2019\Community\VC\Tools\MSVC\14.28.29333\include\xmemory
; File C:\Program Files (x86)\Microsoft Visual Studio\2019\Community\VC\Tools\MSVC\14.28.29333\include\vector
; File C:\Program Files (x86)\Microsoft Visual Studio\2019\Community\VC\Tools\MSVC\14.28.29333\include\xmemory
; File C:\Program Files (x86)\Microsoft Visual Studio\2019\Community\VC\Tools\MSVC\14.28.29333\include\vector
;	COMDAT ??1?$vector@KV?$allocator@K@std@@@std@@QAE@XZ
_TEXT	SEGMENT
??1?$vector@KV?$allocator@K@std@@@std@@QAE@XZ PROC	; std::vector<unsigned long,std::allocator<unsigned long> >::~vector<unsigned long,std::allocator<unsigned long> >, COMDAT
; _this$ = ecx

; 672  :     ~vector() noexcept {

  00000	56		 push	 esi
  00001	8b f1		 mov	 esi, ecx

; 1694 :         if (_Myfirst) { // destroy and deallocate old array

  00003	8b 0e		 mov	 ecx, DWORD PTR [esi]
  00005	85 c9		 test	 ecx, ecx
  00007	74 26		 je	 SHORT $LN4@vector

; 1695 :             _Destroy(_Myfirst, _Mylast);
; 1696 :             _Getal().deallocate(_Myfirst, static_cast<size_type>(_Myend - _Myfirst));

  00009	8b 46 08	 mov	 eax, DWORD PTR [esi+8]
  0000c	2b c1		 sub	 eax, ecx
; File C:\Program Files (x86)\Microsoft Visual Studio\2019\Community\VC\Tools\MSVC\14.28.29333\include\xmemory

; 810  :         _Deallocate<_New_alignof<_Ty>>(_Ptr, sizeof(_Ty) * _Count);

  0000e	83 e0 fc	 and	 eax, -4			; fffffffcH
  00011	50		 push	 eax
  00012	51		 push	 ecx
  00013	e8 00 00 00 00	 call	 ??$_Deallocate@$07$0A@@std@@YAXPAXI@Z ; std::_Deallocate<8,0>
; File C:\Program Files (x86)\Microsoft Visual Studio\2019\Community\VC\Tools\MSVC\14.28.29333\include\vector

; 1698 :             _Myfirst = pointer();

  00018	c7 06 00 00 00
	00		 mov	 DWORD PTR [esi], 0
; File C:\Program Files (x86)\Microsoft Visual Studio\2019\Community\VC\Tools\MSVC\14.28.29333\include\xmemory

; 810  :         _Deallocate<_New_alignof<_Ty>>(_Ptr, sizeof(_Ty) * _Count);

  0001e	83 c4 08	 add	 esp, 8
; File C:\Program Files (x86)\Microsoft Visual Studio\2019\Community\VC\Tools\MSVC\14.28.29333\include\vector

; 1699 :             _Mylast  = pointer();

  00021	c7 46 04 00 00
	00 00		 mov	 DWORD PTR [esi+4], 0

; 1700 :             _Myend   = pointer();

  00028	c7 46 08 00 00
	00 00		 mov	 DWORD PTR [esi+8], 0
$LN4@vector:
  0002f	5e		 pop	 esi

; 673  :         _Tidy();
; 674  : #if _ITERATOR_DEBUG_LEVEL != 0
; 675  :         auto&& _Alproxy = _GET_PROXY_ALLOCATOR(_Alty, _Getal());
; 676  :         _Delete_plain_internal(_Alproxy, _STD exchange(_Mypair._Myval2._Myproxy, nullptr));
; 677  : #endif // _ITERATOR_DEBUG_LEVEL != 0
; 678  :     }

  00030	c3		 ret	 0
??1?$vector@KV?$allocator@K@std@@@std@@QAE@XZ ENDP	; std::vector<unsigned long,std::allocator<unsigned long> >::~vector<unsigned long,std::allocator<unsigned long> >
_TEXT	ENDS
; Function compile flags: /Ogtp
; File C:\Program Files (x86)\Microsoft Visual Studio\2019\Community\VC\Tools\MSVC\14.28.29333\include\xtree
;	COMDAT ?_Throw_tree_length_error@std@@YAXXZ
_TEXT	SEGMENT
?_Throw_tree_length_error@std@@YAXXZ PROC		; std::_Throw_tree_length_error, COMDAT

; 415  :     _Xlength_error("map/set too long");

  00000	68 00 00 00 00	 push	 OFFSET ??_C@_0BB@GCADKGJO@map?1set?5too?5long@
  00005	e8 00 00 00 00	 call	 ?_Xlength_error@std@@YAXPBD@Z ; std::_Xlength_error
$LN3@Throw_tree:
  0000a	cc		 int	 3
?_Throw_tree_length_error@std@@YAXXZ ENDP		; std::_Throw_tree_length_error
_TEXT	ENDS
; Function compile flags: /Ogtp
; File C:\Program Files (x86)\Microsoft Visual Studio\2019\Community\VC\Tools\MSVC\14.28.29333\include\xstring
; File C:\Program Files (x86)\Microsoft Visual Studio\2019\Community\VC\Tools\MSVC\14.28.29333\include\utility
; File C:\Program Files (x86)\Microsoft Visual Studio\2019\Community\VC\Tools\MSVC\14.28.29333\include\xstring
; File C:\Program Files (x86)\Microsoft Visual Studio\2019\Community\VC\Tools\MSVC\14.28.29333\include\xmemory
; File C:\Program Files (x86)\Microsoft Visual Studio\2019\Community\VC\Tools\MSVC\14.28.29333\include\xstring
; File C:\Program Files (x86)\Microsoft Visual Studio\2019\Community\VC\Tools\MSVC\14.28.29333\include\xmemory
; File C:\Program Files (x86)\Microsoft Visual Studio\2019\Community\VC\Tools\MSVC\14.28.29333\include\xstring
;	COMDAT ?assign@?$basic_string@DU?$char_traits@D@std@@V?$allocator@D@2@@std@@QAEAAV12@QBDI@Z
_TEXT	SEGMENT
__Old$1$ = -4						; size = 4
__Ptr$ = 8						; size = 4
__New_ptr$1 = 12					; size = 4
__Count$ = 12						; size = 4
?assign@?$basic_string@DU?$char_traits@D@std@@V?$allocator@D@2@@std@@QAEAAV12@QBDI@Z PROC ; std::basic_string<char,std::char_traits<char>,std::allocator<char> >::assign, COMDAT
; _this$ = ecx

; 3042 :     basic_string& assign(_In_reads_(_Count) const _Elem* const _Ptr, _CRT_GUARDOVERFLOW const size_type _Count) {

  00000	55		 push	 ebp
  00001	8b ec		 mov	 ebp, esp
  00003	51		 push	 ecx
  00004	53		 push	 ebx
  00005	56		 push	 esi
  00006	8b f1		 mov	 esi, ecx
  00008	57		 push	 edi

; 3043 :         // assign [_Ptr, _Ptr + _Count)
; 3044 :         if (_Count <= _Mypair._Myval2._Myres) {

  00009	8b 7d 0c	 mov	 edi, DWORD PTR __Count$[ebp]
  0000c	8b 4e 14	 mov	 ecx, DWORD PTR [esi+20]
  0000f	89 4d fc	 mov	 DWORD PTR __Old$1$[ebp], ecx
  00012	3b f9		 cmp	 edi, ecx
  00014	77 28		 ja	 SHORT $LN2@assign

; 2209 :         value_type* _Result = _Bx._Buf;

  00016	8b de		 mov	 ebx, esi

; 2227 :         return _BUF_SIZE <= _Myres;

  00018	83 f9 10	 cmp	 ecx, 16			; 00000010H

; 2210 :         if (_Large_string_engaged()) {

  0001b	72 02		 jb	 SHORT $LN5@assign

; 2211 :             _Result = _Unfancy(_Bx._Ptr);

  0001d	8b 1e		 mov	 ebx, DWORD PTR [esi]
$LN5@assign:

; 119  :         _CSTD memmove(_First1, _First2, _Count * sizeof(_Elem));

  0001f	57		 push	 edi
  00020	ff 75 08	 push	 DWORD PTR __Ptr$[ebp]

; 3045 :             _Elem* const _Old_ptr   = _Mypair._Myval2._Myptr();
; 3046 :             _Mypair._Myval2._Mysize = _Count;

  00023	89 7e 10	 mov	 DWORD PTR [esi+16], edi

; 119  :         _CSTD memmove(_First1, _First2, _Count * sizeof(_Elem));

  00026	53		 push	 ebx
  00027	e8 00 00 00 00	 call	 _memmove
  0002c	83 c4 0c	 add	 esp, 12			; 0000000cH

; 3047 :             _Traits::move(_Old_ptr, _Ptr, _Count);
; 3048 :             _Traits::assign(_Old_ptr[_Count], _Elem());

  0002f	c6 04 3b 00	 mov	 BYTE PTR [ebx+edi], 0

; 3059 :     }

  00033	8b c6		 mov	 eax, esi
  00035	5f		 pop	 edi
  00036	5e		 pop	 esi
  00037	5b		 pop	 ebx
  00038	8b e5		 mov	 esp, ebp
  0003a	5d		 pop	 ebp
  0003b	c2 08 00	 ret	 8
$LN2@assign:

; 4305 :         if (_New_size > max_size()) {

  0003e	81 ff ff ff ff
	7f		 cmp	 edi, 2147483647		; 7fffffffH
  00044	0f 87 91 00 00
	00		 ja	 $LN36@assign

; 4285 :         const size_type _Masked = _Requested | _ALLOC_MASK;

  0004a	8b df		 mov	 ebx, edi
  0004c	83 cb 0f	 or	 ebx, 15			; 0000000fH
  0004f	81 fb ff ff ff
	7f		 cmp	 ebx, 2147483647		; 7fffffffH

; 4286 :         if (_Masked > _Max) { // the mask overflows, settle for max_size()

  00055	76 07		 jbe	 SHORT $LN19@assign

; 4287 :             return _Max;

  00057	bb ff ff ff 7f	 mov	 ebx, 2147483647		; 7fffffffH
  0005c	eb 1e		 jmp	 SHORT $LN18@assign
$LN19@assign:

; 4288 :         }
; 4289 : 
; 4290 :         if (_Old > _Max - _Old / 2) { // similarly, geometric overflows

  0005e	8b d1		 mov	 edx, ecx
  00060	b8 ff ff ff 7f	 mov	 eax, 2147483647		; 7fffffffH
  00065	d1 ea		 shr	 edx, 1
  00067	2b c2		 sub	 eax, edx
  00069	3b c8		 cmp	 ecx, eax
  0006b	76 07		 jbe	 SHORT $LN20@assign

; 4291 :             return _Max;

  0006d	bb ff ff ff 7f	 mov	 ebx, 2147483647		; 7fffffffH
  00072	eb 08		 jmp	 SHORT $LN18@assign
$LN20@assign:

; 4292 :         }
; 4293 : 
; 4294 :         return (_STD max)(_Masked, _Old + _Old / 2);

  00074	8d 04 0a	 lea	 eax, DWORD PTR [edx+ecx]
; File C:\Program Files (x86)\Microsoft Visual Studio\2019\Community\VC\Tools\MSVC\14.28.29333\include\utility

; 44   :     return _Left < _Right ? _Right : _Left;

  00077	3b d8		 cmp	 ebx, eax
  00079	0f 42 d8	 cmovb	 ebx, eax
$LN18@assign:
; File C:\Program Files (x86)\Microsoft Visual Studio\2019\Community\VC\Tools\MSVC\14.28.29333\include\xstring

; 4312 :         const pointer _New_ptr        = _Al.allocate(_New_capacity + 1); // throws

  0007c	8d 43 01	 lea	 eax, DWORD PTR [ebx+1]
; File C:\Program Files (x86)\Microsoft Visual Studio\2019\Community\VC\Tools\MSVC\14.28.29333\include\xmemory

; 814  :         return static_cast<_Ty*>(_Allocate<_New_alignof<_Ty>>(_Get_size_of_n<sizeof(_Ty)>(_Count)));

  0007f	50		 push	 eax
  00080	e8 00 00 00 00	 call	 ??$_Allocate@$07U_Default_allocate_traits@std@@$0A@@std@@YAPAXI@Z ; std::_Allocate<8,std::_Default_allocate_traits,0>
; File C:\Program Files (x86)\Microsoft Visual Studio\2019\Community\VC\Tools\MSVC\14.28.29333\include\xstring

; 62   :         _CSTD memcpy(_First1, _First2, _Count * sizeof(_Elem));

  00085	57		 push	 edi
  00086	ff 75 08	 push	 DWORD PTR __Ptr$[ebp]

; 4312 :         const pointer _New_ptr        = _Al.allocate(_New_capacity + 1); // throws

  00089	89 45 0c	 mov	 DWORD PTR __New_ptr$1[ebp], eax

; 62   :         _CSTD memcpy(_First1, _First2, _Count * sizeof(_Elem));

  0008c	50		 push	 eax

; 4314 :         _Mypair._Myval2._Mysize = _New_size;

  0008d	89 7e 10	 mov	 DWORD PTR [esi+16], edi

; 4315 :         _Mypair._Myval2._Myres  = _New_capacity;

  00090	89 5e 14	 mov	 DWORD PTR [esi+20], ebx

; 62   :         _CSTD memcpy(_First1, _First2, _Count * sizeof(_Elem));

  00093	e8 00 00 00 00	 call	 _memcpy

; 3056 :                 _Traits::assign(_New_ptr[_Count], _Elem());

  00098	8b 5d 0c	 mov	 ebx, DWORD PTR __New_ptr$1[ebp]

; 62   :         _CSTD memcpy(_First1, _First2, _Count * sizeof(_Elem));

  0009b	83 c4 10	 add	 esp, 16			; 00000010H

; 4317 :         if (_BUF_SIZE <= _Old_capacity) {

  0009e	8b 45 fc	 mov	 eax, DWORD PTR __Old$1$[ebp]

; 3056 :                 _Traits::assign(_New_ptr[_Count], _Elem());

  000a1	c6 04 3b 00	 mov	 BYTE PTR [ebx+edi], 0

; 4317 :         if (_BUF_SIZE <= _Old_capacity) {

  000a5	83 f8 10	 cmp	 eax, 16			; 00000010H
  000a8	72 19		 jb	 SHORT $LN13@assign

; 4318 :             _Al.deallocate(_Mypair._Myval2._Bx._Ptr, _Old_capacity + 1);

  000aa	40		 inc	 eax
; File C:\Program Files (x86)\Microsoft Visual Studio\2019\Community\VC\Tools\MSVC\14.28.29333\include\xmemory

; 810  :         _Deallocate<_New_alignof<_Ty>>(_Ptr, sizeof(_Ty) * _Count);

  000ab	50		 push	 eax
  000ac	ff 36		 push	 DWORD PTR [esi]
  000ae	e8 00 00 00 00	 call	 ??$_Deallocate@$07$0A@@std@@YAXPAXI@Z ; std::_Deallocate<8,0>
; File C:\Program Files (x86)\Microsoft Visual Studio\2019\Community\VC\Tools\MSVC\14.28.29333\include\xstring

; 3059 :     }

  000b3	83 c4 08	 add	 esp, 8

; 4319 :             _Mypair._Myval2._Bx._Ptr = _New_ptr;

  000b6	89 1e		 mov	 DWORD PTR [esi], ebx

; 3059 :     }

  000b8	8b c6		 mov	 eax, esi
  000ba	5f		 pop	 edi
  000bb	5e		 pop	 esi
  000bc	5b		 pop	 ebx
  000bd	8b e5		 mov	 esp, ebp
  000bf	5d		 pop	 ebp
  000c0	c2 08 00	 ret	 8
$LN13@assign:

; 4321 :             _Construct_in_place(_Mypair._Myval2._Bx._Ptr, _New_ptr);

  000c3	8d 45 0c	 lea	 eax, DWORD PTR __New_ptr$1[ebp]
  000c6	50		 push	 eax
  000c7	56		 push	 esi
  000c8	e8 00 00 00 00	 call	 ??$_Construct_in_place@PADABQAD@std@@YAXAAPADABQAD@Z ; std::_Construct_in_place<char *,char * const &>

; 3059 :     }

  000cd	83 c4 08	 add	 esp, 8
  000d0	8b c6		 mov	 eax, esi
  000d2	5f		 pop	 edi
  000d3	5e		 pop	 esi
  000d4	5b		 pop	 ebx
  000d5	8b e5		 mov	 esp, ebp
  000d7	5d		 pop	 ebp
  000d8	c2 08 00	 ret	 8
$LN36@assign:

; 4306 :             _Xlen_string(); // result too long

  000db	e8 00 00 00 00	 call	 ?_Xlen_string@std@@YAXXZ ; std::_Xlen_string
$LN33@assign:
  000e0	cc		 int	 3
?assign@?$basic_string@DU?$char_traits@D@std@@V?$allocator@D@2@@std@@QAEAAV12@QBDI@Z ENDP ; std::basic_string<char,std::char_traits<char>,std::allocator<char> >::assign
_TEXT	ENDS
; Function compile flags: /Ogtp
; File C:\Program Files (x86)\Microsoft Visual Studio\2019\Community\VC\Tools\MSVC\14.28.29333\include\xstring
; File C:\Program Files (x86)\Microsoft Visual Studio\2019\Community\VC\Tools\MSVC\14.28.29333\include\xmemory
; File C:\Program Files (x86)\Microsoft Visual Studio\2019\Community\VC\Tools\MSVC\14.28.29333\include\xstring
;	COMDAT ??1?$basic_string@DU?$char_traits@D@std@@V?$allocator@D@2@@std@@QAE@XZ
_TEXT	SEGMENT
??1?$basic_string@DU?$char_traits@D@std@@V?$allocator@D@2@@std@@QAE@XZ PROC ; std::basic_string<char,std::char_traits<char>,std::allocator<char> >::~basic_string<char,std::char_traits<char>,std::allocator<char> >, COMDAT
; _this$ = ecx

; 2800 :     ~basic_string() noexcept {

  00000	56		 push	 esi
  00001	8b f1		 mov	 esi, ecx

; 2227 :         return _BUF_SIZE <= _Myres;

  00003	8b 46 14	 mov	 eax, DWORD PTR [esi+20]
  00006	83 f8 10	 cmp	 eax, 16			; 00000010H

; 4385 :         if (_Mypair._Myval2._Large_string_engaged()) {

  00009	72 0c		 jb	 SHORT $LN4@basic_stri

; 4386 :             const pointer _Ptr = _Mypair._Myval2._Bx._Ptr;
; 4387 :             auto& _Al          = _Getal();
; 4388 :             _Destroy_in_place(_Mypair._Myval2._Bx._Ptr);
; 4389 :             _Al.deallocate(_Ptr, _Mypair._Myval2._Myres + 1);

  0000b	40		 inc	 eax
; File C:\Program Files (x86)\Microsoft Visual Studio\2019\Community\VC\Tools\MSVC\14.28.29333\include\xmemory

; 810  :         _Deallocate<_New_alignof<_Ty>>(_Ptr, sizeof(_Ty) * _Count);

  0000c	50		 push	 eax
  0000d	ff 36		 push	 DWORD PTR [esi]
  0000f	e8 00 00 00 00	 call	 ??$_Deallocate@$07$0A@@std@@YAXPAXI@Z ; std::_Deallocate<8,0>
  00014	83 c4 08	 add	 esp, 8
$LN4@basic_stri:
; File C:\Program Files (x86)\Microsoft Visual Studio\2019\Community\VC\Tools\MSVC\14.28.29333\include\xstring

; 4392 :         _Mypair._Myval2._Mysize = 0;

  00017	c7 46 10 00 00
	00 00		 mov	 DWORD PTR [esi+16], 0

; 4393 :         _Mypair._Myval2._Myres  = _BUF_SIZE - 1;

  0001e	c7 46 14 0f 00
	00 00		 mov	 DWORD PTR [esi+20], 15	; 0000000fH

; 4394 :         // the _Traits::assign is last so the codegen doesn't think the char write can alias this
; 4395 :         _Traits::assign(_Mypair._Myval2._Bx._Buf[0], _Elem());

  00025	c6 06 00	 mov	 BYTE PTR [esi], 0
  00028	5e		 pop	 esi

; 2801 :         _Tidy_deallocate();
; 2802 : #if _ITERATOR_DEBUG_LEVEL != 0
; 2803 :         auto&& _Alproxy          = _GET_PROXY_ALLOCATOR(_Alty, _Getal());
; 2804 :         const auto _To_delete    = _Mypair._Myval2._Myproxy;
; 2805 :         _Mypair._Myval2._Myproxy = nullptr;
; 2806 :         _Delete_plain_internal(_Alproxy, _To_delete);
; 2807 : #endif // _ITERATOR_DEBUG_LEVEL != 0
; 2808 :     }

  00029	c3		 ret	 0
??1?$basic_string@DU?$char_traits@D@std@@V?$allocator@D@2@@std@@QAE@XZ ENDP ; std::basic_string<char,std::char_traits<char>,std::allocator<char> >::~basic_string<char,std::char_traits<char>,std::allocator<char> >
_TEXT	ENDS
; Function compile flags: /Ogtp
; File C:\Program Files (x86)\Microsoft Visual Studio\2019\Community\VC\Tools\MSVC\14.28.29333\include\xstring
;	COMDAT ?_Xlen_string@std@@YAXXZ
_TEXT	SEGMENT
?_Xlen_string@std@@YAXXZ PROC				; std::_Xlen_string, COMDAT

; 2275 :     _Xlength_error("string too long");

  00000	68 00 00 00 00	 push	 OFFSET ??_C@_0BA@JFNIOLAK@string?5too?5long@
  00005	e8 00 00 00 00	 call	 ?_Xlength_error@std@@YAXPBD@Z ; std::_Xlength_error
$LN3@Xlen_strin:
  0000a	cc		 int	 3
?_Xlen_string@std@@YAXXZ ENDP				; std::_Xlen_string
_TEXT	ENDS
; Function compile flags: /Ogtp
; File C:\Program Files (x86)\Microsoft Visual Studio\2019\Community\VC\Tools\MSVC\14.28.29333\include\exception
;	COMDAT ?_Throw_bad_array_new_length@std@@YAXXZ
_TEXT	SEGMENT
$T1 = -12						; size = 12
?_Throw_bad_array_new_length@std@@YAXXZ PROC		; std::_Throw_bad_array_new_length, COMDAT

; 320  : [[noreturn]] inline void _Throw_bad_array_new_length() {

  00000	55		 push	 ebp
  00001	8b ec		 mov	 ebp, esp
  00003	83 ec 0c	 sub	 esp, 12			; 0000000cH

; 321  :     _THROW(bad_array_new_length{});

  00006	8d 4d f4	 lea	 ecx, DWORD PTR $T1[ebp]
  00009	e8 00 00 00 00	 call	 ??0bad_array_new_length@std@@QAE@XZ ; std::bad_array_new_length::bad_array_new_length
  0000e	68 00 00 00 00	 push	 OFFSET __TI3?AVbad_array_new_length@std@@
  00013	8d 45 f4	 lea	 eax, DWORD PTR $T1[ebp]
  00016	50		 push	 eax
  00017	e8 00 00 00 00	 call	 __CxxThrowException@8
$LN3@Throw_bad_:
  0001c	cc		 int	 3
?_Throw_bad_array_new_length@std@@YAXXZ ENDP		; std::_Throw_bad_array_new_length
_TEXT	ENDS
; Function compile flags: /Ogtp
; File C:\Program Files (x86)\Microsoft Visual Studio\2019\Community\VC\Tools\MSVC\14.28.29333\include\vcruntime_exception.h
;	COMDAT ??_Gbad_array_new_length@std@@UAEPAXI@Z
_TEXT	SEGMENT
___flags$ = 8						; size = 4
??_Gbad_array_new_length@std@@UAEPAXI@Z PROC		; std::bad_array_new_length::`scalar deleting destructor', COMDAT
; _this$ = ecx
  00000	55		 push	 ebp
  00001	8b ec		 mov	 ebp, esp

; 89   :     {

  00003	56		 push	 esi
  00004	8b f1		 mov	 esi, ecx

; 90   :         __std_exception_destroy(&_Data);

  00006	8d 46 04	 lea	 eax, DWORD PTR [esi+4]
  00009	c7 06 00 00 00
	00		 mov	 DWORD PTR [esi], OFFSET ??_7exception@std@@6B@
  0000f	50		 push	 eax
  00010	e8 00 00 00 00	 call	 ___std_exception_destroy
  00015	83 c4 04	 add	 esp, 4
  00018	f6 45 08 01	 test	 BYTE PTR ___flags$[ebp], 1
  0001c	74 0b		 je	 SHORT $LN12@scalar
  0001e	6a 0c		 push	 12			; 0000000cH
  00020	56		 push	 esi
  00021	e8 00 00 00 00	 call	 ??3@YAXPAXI@Z		; operator delete
  00026	83 c4 08	 add	 esp, 8
$LN12@scalar:
  00029	8b c6		 mov	 eax, esi
  0002b	5e		 pop	 esi
  0002c	5d		 pop	 ebp
  0002d	c2 04 00	 ret	 4
??_Gbad_array_new_length@std@@UAEPAXI@Z ENDP		; std::bad_array_new_length::`scalar deleting destructor'
_TEXT	ENDS
; Function compile flags: /Ogtp
; File C:\Program Files (x86)\Microsoft Visual Studio\2019\Community\VC\Tools\MSVC\14.28.29333\include\vcruntime_exception.h
;	COMDAT ??0bad_array_new_length@std@@QAE@ABV01@@Z
_TEXT	SEGMENT
___that$ = 8						; size = 4
??0bad_array_new_length@std@@QAE@ABV01@@Z PROC		; std::bad_array_new_length::bad_array_new_length, COMDAT
; _this$ = ecx
  00000	55		 push	 ebp
  00001	8b ec		 mov	 ebp, esp

; 72   :     {

  00003	56		 push	 esi
  00004	8b f1		 mov	 esi, ecx
  00006	0f 57 c0	 xorps	 xmm0, xmm0

; 71   :         : _Data()

  00009	8d 46 04	 lea	 eax, DWORD PTR [esi+4]

; 73   :         __std_exception_copy(&_Other._Data, &_Data);

  0000c	50		 push	 eax
  0000d	c7 06 00 00 00
	00		 mov	 DWORD PTR [esi], OFFSET ??_7exception@std@@6B@
  00013	66 0f d6 00	 movq	 QWORD PTR [eax], xmm0
  00017	8b 45 08	 mov	 eax, DWORD PTR ___that$[ebp]
  0001a	83 c0 04	 add	 eax, 4
  0001d	50		 push	 eax
  0001e	e8 00 00 00 00	 call	 ___std_exception_copy
  00023	83 c4 08	 add	 esp, 8
  00026	c7 06 00 00 00
	00		 mov	 DWORD PTR [esi], OFFSET ??_7bad_array_new_length@std@@6B@
  0002c	8b c6		 mov	 eax, esi
  0002e	5e		 pop	 esi
  0002f	5d		 pop	 ebp
  00030	c2 04 00	 ret	 4
??0bad_array_new_length@std@@QAE@ABV01@@Z ENDP		; std::bad_array_new_length::bad_array_new_length
_TEXT	ENDS
; Function compile flags: /Ogtp
; File C:\Program Files (x86)\Microsoft Visual Studio\2019\Community\VC\Tools\MSVC\14.28.29333\include\vcruntime_exception.h
;	COMDAT ??1bad_array_new_length@std@@UAE@XZ
_TEXT	SEGMENT
??1bad_array_new_length@std@@UAE@XZ PROC		; std::bad_array_new_length::~bad_array_new_length, COMDAT
; _this$ = ecx

; 90   :         __std_exception_destroy(&_Data);

  00000	8d 41 04	 lea	 eax, DWORD PTR [ecx+4]
  00003	c7 01 00 00 00
	00		 mov	 DWORD PTR [ecx], OFFSET ??_7exception@std@@6B@
  00009	50		 push	 eax
  0000a	e8 00 00 00 00	 call	 ___std_exception_destroy
  0000f	59		 pop	 ecx
  00010	c3		 ret	 0
??1bad_array_new_length@std@@UAE@XZ ENDP		; std::bad_array_new_length::~bad_array_new_length
_TEXT	ENDS
; Function compile flags: /Ogtp
; File C:\Program Files (x86)\Microsoft Visual Studio\2019\Community\VC\Tools\MSVC\14.28.29333\include\vcruntime_exception.h
;	COMDAT ??0bad_array_new_length@std@@QAE@XZ
_TEXT	SEGMENT
??0bad_array_new_length@std@@QAE@XZ PROC		; std::bad_array_new_length::bad_array_new_length, COMDAT
; _this$ = ecx

; 141  :     {

  00000	0f 57 c0	 xorps	 xmm0, xmm0

; 142  :     }

  00003	8b c1		 mov	 eax, ecx

; 65   :         : _Data()

  00005	66 0f d6 41 04	 movq	 QWORD PTR [ecx+4], xmm0

; 66   :     {
; 67   :         _Data._What = _Message;

  0000a	c7 41 04 00 00
	00 00		 mov	 DWORD PTR [ecx+4], OFFSET ??_C@_0BF@KINCDENJ@bad?5array?5new?5length@

; 141  :     {

  00011	c7 01 00 00 00
	00		 mov	 DWORD PTR [ecx], OFFSET ??_7bad_array_new_length@std@@6B@

; 142  :     }

  00017	c3		 ret	 0
??0bad_array_new_length@std@@QAE@XZ ENDP		; std::bad_array_new_length::bad_array_new_length
_TEXT	ENDS
; Function compile flags: /Ogtp
; File C:\Program Files (x86)\Microsoft Visual Studio\2019\Community\VC\Tools\MSVC\14.28.29333\include\vcruntime_exception.h
;	COMDAT ??_Gbad_alloc@std@@UAEPAXI@Z
_TEXT	SEGMENT
___flags$ = 8						; size = 4
??_Gbad_alloc@std@@UAEPAXI@Z PROC			; std::bad_alloc::`scalar deleting destructor', COMDAT
; _this$ = ecx
  00000	55		 push	 ebp
  00001	8b ec		 mov	 ebp, esp

; 89   :     {

  00003	56		 push	 esi
  00004	8b f1		 mov	 esi, ecx

; 90   :         __std_exception_destroy(&_Data);

  00006	8d 46 04	 lea	 eax, DWORD PTR [esi+4]
  00009	c7 06 00 00 00
	00		 mov	 DWORD PTR [esi], OFFSET ??_7exception@std@@6B@
  0000f	50		 push	 eax
  00010	e8 00 00 00 00	 call	 ___std_exception_destroy
  00015	83 c4 04	 add	 esp, 4
  00018	f6 45 08 01	 test	 BYTE PTR ___flags$[ebp], 1
  0001c	74 0b		 je	 SHORT $LN9@scalar
  0001e	6a 0c		 push	 12			; 0000000cH
  00020	56		 push	 esi
  00021	e8 00 00 00 00	 call	 ??3@YAXPAXI@Z		; operator delete
  00026	83 c4 08	 add	 esp, 8
$LN9@scalar:
  00029	8b c6		 mov	 eax, esi
  0002b	5e		 pop	 esi
  0002c	5d		 pop	 ebp
  0002d	c2 04 00	 ret	 4
??_Gbad_alloc@std@@UAEPAXI@Z ENDP			; std::bad_alloc::`scalar deleting destructor'
_TEXT	ENDS
; Function compile flags: /Ogtp
; File C:\Program Files (x86)\Microsoft Visual Studio\2019\Community\VC\Tools\MSVC\14.28.29333\include\vcruntime_exception.h
;	COMDAT ??0bad_alloc@std@@QAE@ABV01@@Z
_TEXT	SEGMENT
___that$ = 8						; size = 4
??0bad_alloc@std@@QAE@ABV01@@Z PROC			; std::bad_alloc::bad_alloc, COMDAT
; _this$ = ecx
  00000	55		 push	 ebp
  00001	8b ec		 mov	 ebp, esp

; 72   :     {

  00003	56		 push	 esi
  00004	8b f1		 mov	 esi, ecx
  00006	0f 57 c0	 xorps	 xmm0, xmm0

; 71   :         : _Data()

  00009	8d 46 04	 lea	 eax, DWORD PTR [esi+4]

; 73   :         __std_exception_copy(&_Other._Data, &_Data);

  0000c	50		 push	 eax
  0000d	c7 06 00 00 00
	00		 mov	 DWORD PTR [esi], OFFSET ??_7exception@std@@6B@
  00013	66 0f d6 00	 movq	 QWORD PTR [eax], xmm0
  00017	8b 45 08	 mov	 eax, DWORD PTR ___that$[ebp]
  0001a	83 c0 04	 add	 eax, 4
  0001d	50		 push	 eax
  0001e	e8 00 00 00 00	 call	 ___std_exception_copy
  00023	83 c4 08	 add	 esp, 8
  00026	c7 06 00 00 00
	00		 mov	 DWORD PTR [esi], OFFSET ??_7bad_alloc@std@@6B@
  0002c	8b c6		 mov	 eax, esi
  0002e	5e		 pop	 esi
  0002f	5d		 pop	 ebp
  00030	c2 04 00	 ret	 4
??0bad_alloc@std@@QAE@ABV01@@Z ENDP			; std::bad_alloc::bad_alloc
_TEXT	ENDS
; Function compile flags: /Ogtp
; File C:\Program Files (x86)\Microsoft Visual Studio\2019\Community\VC\Tools\MSVC\14.28.29333\include\vcruntime_exception.h
;	COMDAT ??_Gexception@std@@UAEPAXI@Z
_TEXT	SEGMENT
___flags$ = 8						; size = 4
??_Gexception@std@@UAEPAXI@Z PROC			; std::exception::`scalar deleting destructor', COMDAT
; _this$ = ecx
  00000	55		 push	 ebp
  00001	8b ec		 mov	 ebp, esp

; 89   :     {

  00003	56		 push	 esi
  00004	8b f1		 mov	 esi, ecx

; 90   :         __std_exception_destroy(&_Data);

  00006	8d 46 04	 lea	 eax, DWORD PTR [esi+4]
  00009	c7 06 00 00 00
	00		 mov	 DWORD PTR [esi], OFFSET ??_7exception@std@@6B@
  0000f	50		 push	 eax
  00010	e8 00 00 00 00	 call	 ___std_exception_destroy
  00015	83 c4 04	 add	 esp, 4
  00018	f6 45 08 01	 test	 BYTE PTR ___flags$[ebp], 1
  0001c	74 0b		 je	 SHORT $LN6@scalar
  0001e	6a 0c		 push	 12			; 0000000cH
  00020	56		 push	 esi
  00021	e8 00 00 00 00	 call	 ??3@YAXPAXI@Z		; operator delete
  00026	83 c4 08	 add	 esp, 8
$LN6@scalar:
  00029	8b c6		 mov	 eax, esi
  0002b	5e		 pop	 esi
  0002c	5d		 pop	 ebp
  0002d	c2 04 00	 ret	 4
??_Gexception@std@@UAEPAXI@Z ENDP			; std::exception::`scalar deleting destructor'
_TEXT	ENDS
; Function compile flags: /Ogtp
; File C:\Program Files (x86)\Microsoft Visual Studio\2019\Community\VC\Tools\MSVC\14.28.29333\include\vcruntime_exception.h
;	COMDAT ?what@exception@std@@UBEPBDXZ
_TEXT	SEGMENT
?what@exception@std@@UBEPBDXZ PROC			; std::exception::what, COMDAT
; _this$ = ecx

; 95   :         return _Data._What ? _Data._What : "Unknown exception";

  00000	8b 49 04	 mov	 ecx, DWORD PTR [ecx+4]
  00003	b8 00 00 00 00	 mov	 eax, OFFSET ??_C@_0BC@EOODALEL@Unknown?5exception@
  00008	85 c9		 test	 ecx, ecx
  0000a	0f 45 c1	 cmovne	 eax, ecx

; 96   :     }

  0000d	c3		 ret	 0
?what@exception@std@@UBEPBDXZ ENDP			; std::exception::what
_TEXT	ENDS
; Function compile flags: /Ogtp
; File C:\Program Files (x86)\Microsoft Visual Studio\2019\Community\VC\Tools\MSVC\14.28.29333\include\vcruntime_exception.h
;	COMDAT ??1exception@std@@UAE@XZ
_TEXT	SEGMENT
??1exception@std@@UAE@XZ PROC				; std::exception::~exception, COMDAT
; _this$ = ecx

; 90   :         __std_exception_destroy(&_Data);

  00000	8d 41 04	 lea	 eax, DWORD PTR [ecx+4]
  00003	c7 01 00 00 00
	00		 mov	 DWORD PTR [ecx], OFFSET ??_7exception@std@@6B@
  00009	50		 push	 eax
  0000a	e8 00 00 00 00	 call	 ___std_exception_destroy
  0000f	59		 pop	 ecx

; 91   :     }

  00010	c3		 ret	 0
??1exception@std@@UAE@XZ ENDP				; std::exception::~exception
_TEXT	ENDS
; Function compile flags: /Ogtp
; File C:\Program Files (x86)\Microsoft Visual Studio\2019\Community\VC\Tools\MSVC\14.28.29333\include\vcruntime_exception.h
;	COMDAT ??0exception@std@@QAE@ABV01@@Z
_TEXT	SEGMENT
__Other$ = 8						; size = 4
??0exception@std@@QAE@ABV01@@Z PROC			; std::exception::exception, COMDAT
; _this$ = ecx

; 72   :     {

  00000	55		 push	 ebp
  00001	8b ec		 mov	 ebp, esp
  00003	56		 push	 esi
  00004	8b f1		 mov	 esi, ecx
  00006	0f 57 c0	 xorps	 xmm0, xmm0
  00009	8d 46 04	 lea	 eax, DWORD PTR [esi+4]

; 73   :         __std_exception_copy(&_Other._Data, &_Data);

  0000c	50		 push	 eax
  0000d	c7 06 00 00 00
	00		 mov	 DWORD PTR [esi], OFFSET ??_7exception@std@@6B@
  00013	66 0f d6 00	 movq	 QWORD PTR [eax], xmm0
  00017	8b 45 08	 mov	 eax, DWORD PTR __Other$[ebp]
  0001a	83 c0 04	 add	 eax, 4
  0001d	50		 push	 eax
  0001e	e8 00 00 00 00	 call	 ___std_exception_copy
  00023	83 c4 08	 add	 esp, 8

; 74   :     }

  00026	8b c6		 mov	 eax, esi
  00028	5e		 pop	 esi
  00029	5d		 pop	 ebp
  0002a	c2 04 00	 ret	 4
??0exception@std@@QAE@ABV01@@Z ENDP			; std::exception::exception
_TEXT	ENDS
; Function compile flags: /Ogtp
; File D:\Metin2 Server Files\mainline\SRC_2014\Metin2Client\UserInterface\NetworkActorManager.cpp
;	COMDAT ?__empty_global_delete@@YAXPAXI@Z
_TEXT	SEGMENT
___formal$ = 8						; size = 4
___formal$ = 12						; size = 4
?__empty_global_delete@@YAXPAXI@Z PROC			; __empty_global_delete, COMDAT

  00000	c2 00 00	 ret	 0
?__empty_global_delete@@YAXPAXI@Z ENDP			; __empty_global_delete
_TEXT	ENDS
; Function compile flags: /Ogtp
; File D:\Metin2 Server Files\mainline\SRC_2014\Metin2Client\UserInterface\NetworkActorManager.cpp
;	COMDAT ?__empty_global_delete@@YAXPAX@Z
_TEXT	SEGMENT
___formal$ = 8						; size = 4
?__empty_global_delete@@YAXPAX@Z PROC			; __empty_global_delete, COMDAT

  00000	c2 00 00	 ret	 0
?__empty_global_delete@@YAXPAX@Z ENDP			; __empty_global_delete
_TEXT	ENDS
; Function compile flags: /Ogtp
;	COMDAT ??_H@YGXPAXIIP6EPAX0@Z@Z
_TEXT	SEGMENT
___t$ = 8						; size = 4
___s$ = 12						; size = 4
___n$ = 16						; size = 4
___f$ = 20						; size = 4
??_H@YGXPAXIIP6EPAX0@Z@Z PROC				; `vector constructor iterator', COMDAT
  00000	55		 push	 ebp
  00001	8b ec		 mov	 ebp, esp
  00003	56		 push	 esi
  00004	8b 75 10	 mov	 esi, DWORD PTR ___n$[ebp]
  00007	85 f6		 test	 esi, esi
  00009	74 16		 je	 SHORT $LN6@vector
  0000b	53		 push	 ebx
  0000c	8b 5d 14	 mov	 ebx, DWORD PTR ___f$[ebp]
  0000f	57		 push	 edi
  00010	8b 7d 08	 mov	 edi, DWORD PTR ___t$[ebp]
$LL2@vector:
  00013	8b cf		 mov	 ecx, edi
  00015	ff d3		 call	 ebx
  00017	03 7d 0c	 add	 edi, DWORD PTR ___s$[ebp]
  0001a	83 ee 01	 sub	 esi, 1
  0001d	75 f4		 jne	 SHORT $LL2@vector
  0001f	5f		 pop	 edi
  00020	5b		 pop	 ebx
$LN6@vector:
  00021	5e		 pop	 esi
  00022	5d		 pop	 ebp
  00023	c2 10 00	 ret	 16			; 00000010H
??_H@YGXPAXIIP6EPAX0@Z@Z ENDP				; `vector constructor iterator'
_TEXT	ENDS
END
