; Listing generated by Microsoft (R) Optimizing Compiler Version 19.28.29335.0 

	TITLE	D:\Metin2 Server Files\mainline\SRC_2014\Metin2Client\UserInterface\PythonSystemModule.cpp
	.686P
	.XMM
	include listing.inc
	.model	flat

INCLUDELIB LIBCMT
INCLUDELIB OLDNAMES

PUBLIC	??0exception@std@@QAE@ABV01@@Z			; std::exception::exception
PUBLIC	??1exception@std@@UAE@XZ			; std::exception::~exception
PUBLIC	?what@exception@std@@UBEPBDXZ			; std::exception::what
PUBLIC	??_Gexception@std@@UAEPAXI@Z			; std::exception::`scalar deleting destructor'
PUBLIC	??0bad_alloc@std@@QAE@ABV01@@Z			; std::bad_alloc::bad_alloc
PUBLIC	??_Gbad_alloc@std@@UAEPAXI@Z			; std::bad_alloc::`scalar deleting destructor'
PUBLIC	??0bad_array_new_length@std@@QAE@XZ		; std::bad_array_new_length::bad_array_new_length
PUBLIC	??1bad_array_new_length@std@@UAE@XZ		; std::bad_array_new_length::~bad_array_new_length
PUBLIC	??0bad_array_new_length@std@@QAE@ABV01@@Z	; std::bad_array_new_length::bad_array_new_length
PUBLIC	??_Gbad_array_new_length@std@@UAEPAXI@Z		; std::bad_array_new_length::`scalar deleting destructor'
PUBLIC	?_Throw_bad_array_new_length@std@@YAXXZ		; std::_Throw_bad_array_new_length
PUBLIC	?initsystem@@YAXXZ				; initsystem
PUBLIC	??$_Destroy_in_place@PAD@std@@YAXAAPAD@Z	; std::_Destroy_in_place<char *>
PUBLIC	??$_Deallocate@$07$0A@@std@@YAXPAXI@Z		; std::_Deallocate<8,0>
PUBLIC	??$_Allocate@$07U_Default_allocate_traits@std@@$0A@@std@@YAPAXI@Z ; std::_Allocate<8,std::_Default_allocate_traits,0>
PUBLIC	??$_Allocate_manually_vector_aligned@U_Default_allocate_traits@std@@@std@@YAPAXI@Z ; std::_Allocate_manually_vector_aligned<std::_Default_allocate_traits>
PUBLIC	?systemGetWidth@@YAPAU_object@@PAU1@0@Z		; systemGetWidth
PUBLIC	?systemGetHeight@@YAPAU_object@@PAU1@0@Z	; systemGetHeight
PUBLIC	?systemSetInterfaceHandler@@YAPAU_object@@PAU1@0@Z ; systemSetInterfaceHandler
PUBLIC	?systemDestroyInterfaceHandler@@YAPAU_object@@PAU1@0@Z ; systemDestroyInterfaceHandler
PUBLIC	?systemReserveResource@@YAPAU_object@@PAU1@0@Z	; systemReserveResource
PUBLIC	??1?$set@V?$basic_string@DU?$char_traits@D@std@@V?$allocator@D@2@@std@@U?$less@V?$basic_string@DU?$char_traits@D@std@@V?$allocator@D@2@@std@@@2@V?$allocator@V?$basic_string@DU?$char_traits@D@std@@V?$allocator@D@2@@std@@@2@@std@@QAE@XZ ; std::set<std::basic_string<char,std::char_traits<char>,std::allocator<char> >,std::less<std::basic_string<char,std::char_traits<char>,std::allocator<char> > >,std::allocator<std::basic_string<char,std::char_traits<char>,std::allocator<char> > > >::~set<std::basic_string<char,std::char_traits<char>,std::allocator<char> >,std::less<std::basic_string<char,std::char_traits<char>,std::allocator<char> > >,std::allocator<std::basic_string<char,std::char_traits<char>,std::allocator<char> > > >
PUBLIC	?systemisInterfaceConfig@@YAPAU_object@@PAU1@0@Z ; systemisInterfaceConfig
PUBLIC	?systemSaveWindowStatus@@YAPAU_object@@PAU1@0@Z	; systemSaveWindowStatus
PUBLIC	?systemGetWindowStatus@@YAPAU_object@@PAU1@0@Z	; systemGetWindowStatus
PUBLIC	?systemGetConfig@@YAPAU_object@@PAU1@0@Z	; systemGetConfig
PUBLIC	?systemSetSaveID@@YAPAU_object@@PAU1@0@Z	; systemSetSaveID
PUBLIC	?systemisSaveID@@YAPAU_object@@PAU1@0@Z		; systemisSaveID
PUBLIC	?systemGetSaveID@@YAPAU_object@@PAU1@0@Z	; systemGetSaveID
PUBLIC	?systemGetMusicVolume@@YAPAU_object@@PAU1@0@Z	; systemGetMusicVolume
PUBLIC	?systemGetSoundVolume@@YAPAU_object@@PAU1@0@Z	; systemGetSoundVolume
PUBLIC	?systemSetMusicVolume@@YAPAU_object@@PAU1@0@Z	; systemSetMusicVolume
PUBLIC	?systemSetSoundVolumef@@YAPAU_object@@PAU1@0@Z	; systemSetSoundVolumef
PUBLIC	?systemIsSoftwareCursor@@YAPAU_object@@PAU1@0@Z	; systemIsSoftwareCursor
PUBLIC	?systemSetViewChatFlag@@YAPAU_object@@PAU1@0@Z	; systemSetViewChatFlag
PUBLIC	?systemIsViewChat@@YAPAU_object@@PAU1@0@Z	; systemIsViewChat
PUBLIC	?systemSetAlwaysShowNameFlag@@YAPAU_object@@PAU1@0@Z ; systemSetAlwaysShowNameFlag
PUBLIC	?systemSetShowDamageFlag@@YAPAU_object@@PAU1@0@Z ; systemSetShowDamageFlag
PUBLIC	?systemSetShowSalesTextFlag@@YAPAU_object@@PAU1@0@Z ; systemSetShowSalesTextFlag
PUBLIC	?systemIsAlwaysShowName@@YAPAU_object@@PAU1@0@Z	; systemIsAlwaysShowName
PUBLIC	?systemIsShowDamage@@YAPAU_object@@PAU1@0@Z	; systemIsShowDamage
PUBLIC	?systemIsShowSalesText@@YAPAU_object@@PAU1@0@Z	; systemIsShowSalesText
PUBLIC	?systemSetConfig@@YAPAU_object@@PAU1@0@Z	; systemSetConfig
PUBLIC	?systemApplyConfig@@YAPAU_object@@PAU1@0@Z	; systemApplyConfig
PUBLIC	?systemSaveConfig@@YAPAU_object@@PAU1@0@Z	; systemSaveConfig
PUBLIC	?systemGetResolutionCount@@YAPAU_object@@PAU1@0@Z ; systemGetResolutionCount
PUBLIC	?systemGetFrequencyCount@@YAPAU_object@@PAU1@0@Z ; systemGetFrequencyCount
PUBLIC	?systemGetResolution@@YAPAU_object@@PAU1@0@Z	; systemGetResolution
PUBLIC	?systemGetCurrentResolution@@YAPAU_object@@PAU1@0@Z ; systemGetCurrentResolution
PUBLIC	?systemGetFrequency@@YAPAU_object@@PAU1@0@Z	; systemGetFrequency
PUBLIC	?systemGetShadowLevel@@YAPAU_object@@PAU1@0@Z	; systemGetShadowLevel
PUBLIC	?systemSetShadowLevel@@YAPAU_object@@PAU1@0@Z	; systemSetShadowLevel
PUBLIC	??$_Erase_tree@V?$allocator@U?$_Tree_node@V?$basic_string@DU?$char_traits@D@std@@V?$allocator@D@2@@std@@PAX@std@@@std@@@?$_Tree_val@U?$_Tree_simple_types@V?$basic_string@DU?$char_traits@D@std@@V?$allocator@D@2@@std@@@std@@@std@@QAEXAAV?$allocator@U?$_Tree_node@V?$basic_string@DU?$char_traits@D@std@@V?$allocator@D@2@@std@@PAX@std@@@1@PAU?$_Tree_node@V?$basic_string@DU?$char_traits@D@std@@V?$allocator@D@2@@std@@PAX@1@@Z ; std::_Tree_val<std::_Tree_simple_types<std::basic_string<char,std::char_traits<char>,std::allocator<char> > > >::_Erase_tree<std::allocator<std::_Tree_node<std::basic_string<char,std::char_traits<char>,std::allocator<char> >,void *> > >
PUBLIC	??$_Construct_in_place@PAU?$_Tree_node@V?$basic_string@DU?$char_traits@D@std@@V?$allocator@D@2@@std@@PAX@std@@ABQAU12@@std@@YAXAAPAU?$_Tree_node@V?$basic_string@DU?$char_traits@D@std@@V?$allocator@D@2@@std@@PAX@0@ABQAU10@@Z ; std::_Construct_in_place<std::_Tree_node<std::basic_string<char,std::char_traits<char>,std::allocator<char> >,void *> *,std::_Tree_node<std::basic_string<char,std::char_traits<char>,std::allocator<char> >,void *> * const &>
PUBLIC	??$_Destroy_in_place@PAU?$_Tree_node@V?$basic_string@DU?$char_traits@D@std@@V?$allocator@D@2@@std@@PAX@std@@@std@@YAXAAPAU?$_Tree_node@V?$basic_string@DU?$char_traits@D@std@@V?$allocator@D@2@@std@@PAX@0@@Z ; std::_Destroy_in_place<std::_Tree_node<std::basic_string<char,std::char_traits<char>,std::allocator<char> >,void *> *>
PUBLIC	??_7exception@std@@6B@				; std::exception::`vftable'
PUBLIC	??_C@_0BC@EOODALEL@Unknown?5exception@		; `string'
PUBLIC	??_7bad_alloc@std@@6B@				; std::bad_alloc::`vftable'
PUBLIC	??_7bad_array_new_length@std@@6B@		; std::bad_array_new_length::`vftable'
PUBLIC	??_C@_0BF@KINCDENJ@bad?5array?5new?5length@	; `string'
PUBLIC	__TI3?AVbad_array_new_length@std@@
PUBLIC	__CTA3?AVbad_array_new_length@std@@
PUBLIC	??_R0?AVbad_array_new_length@std@@@8		; std::bad_array_new_length `RTTI Type Descriptor'
PUBLIC	__CT??_R0?AVbad_array_new_length@std@@@8??0bad_array_new_length@std@@QAE@ABV01@@Z12
PUBLIC	??_R0?AVbad_alloc@std@@@8			; std::bad_alloc `RTTI Type Descriptor'
PUBLIC	__CT??_R0?AVbad_alloc@std@@@8??0bad_alloc@std@@QAE@ABV01@@Z12
PUBLIC	??_R0?AVexception@std@@@8			; std::exception `RTTI Type Descriptor'
PUBLIC	__CT??_R0?AVexception@std@@@8??0exception@std@@QAE@ABV01@@Z12
PUBLIC	?ms_singleton@?$CSingleton@VCResourceManager@@@@0PAVCResourceManager@@A ; CSingleton<CResourceManager>::ms_singleton
PUBLIC	??_R4exception@std@@6B@				; std::exception::`RTTI Complete Object Locator'
PUBLIC	??_R3exception@std@@8				; std::exception::`RTTI Class Hierarchy Descriptor'
PUBLIC	??_R2exception@std@@8				; std::exception::`RTTI Base Class Array'
PUBLIC	??_R1A@?0A@EA@exception@std@@8			; std::exception::`RTTI Base Class Descriptor at (0,-1,0,64)'
PUBLIC	??_R4bad_alloc@std@@6B@				; std::bad_alloc::`RTTI Complete Object Locator'
PUBLIC	??_R3bad_alloc@std@@8				; std::bad_alloc::`RTTI Class Hierarchy Descriptor'
PUBLIC	??_R2bad_alloc@std@@8				; std::bad_alloc::`RTTI Base Class Array'
PUBLIC	??_R1A@?0A@EA@bad_alloc@std@@8			; std::bad_alloc::`RTTI Base Class Descriptor at (0,-1,0,64)'
PUBLIC	??_R4bad_array_new_length@std@@6B@		; std::bad_array_new_length::`RTTI Complete Object Locator'
PUBLIC	??_R3bad_array_new_length@std@@8		; std::bad_array_new_length::`RTTI Class Hierarchy Descriptor'
PUBLIC	??_R2bad_array_new_length@std@@8		; std::bad_array_new_length::`RTTI Base Class Array'
PUBLIC	??_R1A@?0A@EA@bad_array_new_length@std@@8	; std::bad_array_new_length::`RTTI Base Class Descriptor at (0,-1,0,64)'
PUBLIC	?ms_singleton@?$CSingleton@VCPythonSystem@@@@0PAVCPythonSystem@@A ; CSingleton<CPythonSystem>::ms_singleton
PUBLIC	??_C@_01KBJDNOO@i@				; `string'
PUBLIC	??_C@_05EAPDINDK@iiiii@				; `string'
PUBLIC	??_C@_08DGHCLNGO@iiiiiiii@			; `string'
PUBLIC	??_C@_01LKDEMHDF@s@				; `string'
PUBLIC	??_C@_01INIBCBCB@f@				; `string'
PUBLIC	??_C@_03GLKMLICL@iii@				; `string'
PUBLIC	??_C@_08OMBILDHM@GetWidth@			; `string'
PUBLIC	??_C@_09EOGEIJMK@GetHeight@			; `string'
PUBLIC	??_C@_0BE@LHLPPLCA@SetInterfaceHandler@		; `string'
PUBLIC	??_C@_0BI@NBDOAHCB@DestroyInterfaceHandler@	; `string'
PUBLIC	??_C@_0BA@DGMEINM@ReserveResource@		; `string'
PUBLIC	??_C@_0BC@GGDBAEOO@isInterfaceConfig@		; `string'
PUBLIC	??_C@_0BB@DOCGKHHO@SaveWindowStatus@		; `string'
PUBLIC	??_C@_0BA@OIPDIACO@GetWindowStatus@		; `string'
PUBLIC	??_C@_0BD@PNJEEMA@GetResolutionCount@		; `string'
PUBLIC	??_C@_0BC@MMLDLJCA@GetFrequencyCount@		; `string'
PUBLIC	??_C@_0BF@GJHGOKBH@GetCurrentResolution@	; `string'
PUBLIC	??_C@_0O@MCJGAEI@GetResolution@			; `string'
PUBLIC	??_C@_0N@DEDCKOKK@GetFrequency@			; `string'
PUBLIC	??_C@_0M@PHHLFDDI@ApplyConfig@			; `string'
PUBLIC	??_C@_09KJAMEPBE@SetConfig@			; `string'
PUBLIC	??_C@_0L@IJAHDAKP@SaveConfig@			; `string'
PUBLIC	??_C@_09IHEJGOIG@GetConfig@			; `string'
PUBLIC	??_C@_09DABJPAIG@SetSaveID@			; `string'
PUBLIC	??_C@_08ILEIELBI@isSaveID@			; `string'
PUBLIC	??_C@_09BOFMNBBE@GetSaveID@			; `string'
PUBLIC	??_C@_0P@HIIHPFML@GetMusicVolume@		; `string'
PUBLIC	??_C@_0P@LCENEDPB@GetSoundVolume@		; `string'
PUBLIC	??_C@_0P@LGJJAPOH@SetMusicVolume@		; `string'
PUBLIC	??_C@_0BA@MLLJDBPB@SetSoundVolumef@		; `string'
PUBLIC	??_C@_0BB@BFMNFHIM@IsSoftwareCursor@		; `string'
PUBLIC	??_C@_0BA@MFKECAML@SetViewChatFlag@		; `string'
PUBLIC	??_C@_0L@MGMBGKCF@IsViewChat@			; `string'
PUBLIC	??_C@_0BG@GMBDCOC@SetAlwaysShowNameFlag@	; `string'
PUBLIC	??_C@_0BB@NKNDCIFA@IsAlwaysShowName@		; `string'
PUBLIC	??_C@_0BC@JHKGLKC@SetShowDamageFlag@		; `string'
PUBLIC	??_C@_0N@FLKCLECP@IsShowDamage@			; `string'
PUBLIC	??_C@_0BF@IKKCKDDD@SetShowSalesTextFlag@	; `string'
PUBLIC	??_C@_0BA@GPLIEFHC@IsShowSalesText@		; `string'
PUBLIC	??_C@_0P@FFPBIDPG@GetShadowLevel@		; `string'
PUBLIC	??_C@_0P@JLOPHJNK@SetShadowLevel@		; `string'
PUBLIC	??_C@_0O@LCPLIAAE@systemSetting@		; `string'
PUBLIC	??_C@_0O@EDOCFBFG@WINDOW_STATUS@		; `string'
PUBLIC	??_C@_0BB@CHCHLBGG@WINDOW_INVENTORY@		; `string'
PUBLIC	??_C@_0P@HAOBMPKD@WINDOW_ABILITY@		; `string'
PUBLIC	??_C@_0P@MAFILJL@WINDOW_SOCIETY@		; `string'
PUBLIC	??_C@_0P@FHBHOGAA@WINDOW_JOURNAL@		; `string'
PUBLIC	??_C@_0P@NOILKAON@WINDOW_COMMAND@		; `string'
PUBLIC	??_C@_0N@BOOBGFI@WINDOW_QUICK@			; `string'
PUBLIC	??_C@_0N@MCEEKLOJ@WINDOW_GAUGE@			; `string'
PUBLIC	??_C@_0P@LEOBHMFL@WINDOW_MINIMAP@		; `string'
PUBLIC	??_C@_0M@GHKKFINH@WINDOW_CHAT@			; `string'
EXTRN	??2@YAPAXI@Z:PROC				; operator new
EXTRN	??3@YAXPAXI@Z:PROC				; operator delete
EXTRN	__invalid_parameter_noinfo_noreturn:PROC
EXTRN	___std_exception_copy:PROC
EXTRN	___std_exception_destroy:PROC
EXTRN	??_Eexception@std@@UAEPAXI@Z:PROC		; std::exception::`vector deleting destructor'
EXTRN	??_Ebad_alloc@std@@UAEPAXI@Z:PROC		; std::bad_alloc::`vector deleting destructor'
EXTRN	??_Ebad_array_new_length@std@@UAEPAXI@Z:PROC	; std::bad_array_new_length::`vector deleting destructor'
EXTRN	__imp__Py_BuildValue:PROC
EXTRN	__imp__PyModule_AddIntConstant:PROC
EXTRN	__imp__Py_InitModule4:PROC
EXTRN	?PyTuple_GetString@@YA_NPAU_object@@HPAPAD@Z:PROC ; PyTuple_GetString
EXTRN	?PyTuple_GetInteger@@YA_NPAU_object@@HPAH@Z:PROC ; PyTuple_GetInteger
EXTRN	?PyTuple_GetFloat@@YA_NPAU_object@@HPAM@Z:PROC	; PyTuple_GetFloat
EXTRN	?PyTuple_GetObject@@YA_NPAU_object@@HPAPAU1@@Z:PROC ; PyTuple_GetObject
EXTRN	?Py_BuildException@@YAPAU_object@@PBDZZ:PROC	; Py_BuildException
EXTRN	?Py_BuildNone@@YAPAU_object@@XZ:PROC		; Py_BuildNone
EXTRN	?PushBackgroundLoadingSet@CResourceManager@@QAEXAAV?$set@V?$basic_string@DU?$char_traits@D@std@@V?$allocator@D@2@@std@@U?$less@V?$basic_string@DU?$char_traits@D@std@@V?$allocator@D@2@@std@@@2@V?$allocator@V?$basic_string@DU?$char_traits@D@std@@V?$allocator@D@2@@std@@@2@@std@@@Z:PROC ; CResourceManager::PushBackgroundLoadingSet
EXTRN	?SetInterfaceHandler@CPythonSystem@@QAEXPAU_object@@@Z:PROC ; CPythonSystem::SetInterfaceHandler
EXTRN	?DestroyInterfaceHandler@CPythonSystem@@QAEXXZ:PROC ; CPythonSystem::DestroyInterfaceHandler
EXTRN	?SaveConfig@CPythonSystem@@QAE_NXZ:PROC		; CPythonSystem::SaveConfig
EXTRN	?ApplyConfig@CPythonSystem@@QAEXXZ:PROC		; CPythonSystem::ApplyConfig
EXTRN	?SetConfig@CPythonSystem@@QAEXPAUSConfig@1@@Z:PROC ; CPythonSystem::SetConfig
EXTRN	?GetConfig@CPythonSystem@@QAEPAUSConfig@1@XZ:PROC ; CPythonSystem::GetConfig
EXTRN	?isInterfaceConfig@CPythonSystem@@QAE_NXZ:PROC	; CPythonSystem::isInterfaceConfig
EXTRN	?GetWindowStatusReference@CPythonSystem@@QAEABUSWindowStatus@1@H@Z:PROC ; CPythonSystem::GetWindowStatusReference
EXTRN	?GetWidth@CPythonSystem@@QAEKXZ:PROC		; CPythonSystem::GetWidth
EXTRN	?GetHeight@CPythonSystem@@QAEKXZ:PROC		; CPythonSystem::GetHeight
EXTRN	?IsSoftwareCursor@CPythonSystem@@QAE_NXZ:PROC	; CPythonSystem::IsSoftwareCursor
EXTRN	?IsViewChat@CPythonSystem@@QAE_NXZ:PROC		; CPythonSystem::IsViewChat
EXTRN	?IsAlwaysShowName@CPythonSystem@@QAE_NXZ:PROC	; CPythonSystem::IsAlwaysShowName
EXTRN	?IsShowDamage@CPythonSystem@@QAE_NXZ:PROC	; CPythonSystem::IsShowDamage
EXTRN	?IsShowSalesText@CPythonSystem@@QAE_NXZ:PROC	; CPythonSystem::IsShowSalesText
EXTRN	?SetViewChatFlag@CPythonSystem@@QAEXH@Z:PROC	; CPythonSystem::SetViewChatFlag
EXTRN	?SetAlwaysShowNameFlag@CPythonSystem@@QAEXH@Z:PROC ; CPythonSystem::SetAlwaysShowNameFlag
EXTRN	?SetShowDamageFlag@CPythonSystem@@QAEXH@Z:PROC	; CPythonSystem::SetShowDamageFlag
EXTRN	?SetShowSalesTextFlag@CPythonSystem@@QAEXH@Z:PROC ; CPythonSystem::SetShowSalesTextFlag
EXTRN	?SaveWindowStatus@CPythonSystem@@QAEXHHHHHH@Z:PROC ; CPythonSystem::SaveWindowStatus
EXTRN	?IsSaveID@CPythonSystem@@QAEHXZ:PROC		; CPythonSystem::IsSaveID
EXTRN	?GetSaveID@CPythonSystem@@QAEPBDXZ:PROC		; CPythonSystem::GetSaveID
EXTRN	?SetSaveID@CPythonSystem@@QAEXHPBD@Z:PROC	; CPythonSystem::SetSaveID
EXTRN	?GetResolutionCount@CPythonSystem@@QAEHXZ:PROC	; CPythonSystem::GetResolutionCount
EXTRN	?GetFrequencyCount@CPythonSystem@@QAEHH@Z:PROC	; CPythonSystem::GetFrequencyCount
EXTRN	?GetResolution@CPythonSystem@@QAE_NHPAK00@Z:PROC ; CPythonSystem::GetResolution
EXTRN	?GetFrequency@CPythonSystem@@QAE_NHHPAK@Z:PROC	; CPythonSystem::GetFrequency
EXTRN	?GetResolutionIndex@CPythonSystem@@QAEHKKK@Z:PROC ; CPythonSystem::GetResolutionIndex
EXTRN	?GetFrequencyIndex@CPythonSystem@@QAEHHK@Z:PROC	; CPythonSystem::GetFrequencyIndex
EXTRN	?GetMusicVolume@CPythonSystem@@QAEMXZ:PROC	; CPythonSystem::GetMusicVolume
EXTRN	?GetSoundVolume@CPythonSystem@@QAEHXZ:PROC	; CPythonSystem::GetSoundVolume
EXTRN	?SetMusicVolume@CPythonSystem@@QAEXM@Z:PROC	; CPythonSystem::SetMusicVolume
EXTRN	?SetSoundVolumef@CPythonSystem@@QAEXM@Z:PROC	; CPythonSystem::SetSoundVolumef
EXTRN	?GetShadowLevel@CPythonSystem@@QAEHXZ:PROC	; CPythonSystem::GetShadowLevel
EXTRN	?SetShadowLevel@CPythonSystem@@QAEXI@Z:PROC	; CPythonSystem::SetShadowLevel
EXTRN	@__security_check_cookie@4:PROC
EXTRN	__CxxThrowException@8:PROC
EXTRN	___CxxFrameHandler3:PROC
EXTRN	??_7type_info@@6B@:QWORD			; type_info::`vftable'
EXTRN	___security_cookie:DWORD
EXTRN	__fltused:DWORD
;	COMDAT ?ms_singleton@?$CSingleton@VCResourceManager@@@@0PAVCResourceManager@@A
_BSS	SEGMENT
?ms_singleton@?$CSingleton@VCResourceManager@@@@0PAVCResourceManager@@A DD 01H DUP (?) ; CSingleton<CResourceManager>::ms_singleton
_BSS	ENDS
;	COMDAT ?ms_singleton@?$CSingleton@VCPythonSystem@@@@0PAVCPythonSystem@@A
_BSS	SEGMENT
?ms_singleton@?$CSingleton@VCPythonSystem@@@@0PAVCPythonSystem@@A DD 01H DUP (?) ; CSingleton<CPythonSystem>::ms_singleton
_BSS	ENDS
;	COMDAT ??_C@_0M@GHKKFINH@WINDOW_CHAT@
CONST	SEGMENT
??_C@_0M@GHKKFINH@WINDOW_CHAT@ DB 'WINDOW_CHAT', 00H	; `string'
CONST	ENDS
;	COMDAT ??_C@_0P@LEOBHMFL@WINDOW_MINIMAP@
CONST	SEGMENT
??_C@_0P@LEOBHMFL@WINDOW_MINIMAP@ DB 'WINDOW_MINIMAP', 00H ; `string'
CONST	ENDS
;	COMDAT ??_C@_0N@MCEEKLOJ@WINDOW_GAUGE@
CONST	SEGMENT
??_C@_0N@MCEEKLOJ@WINDOW_GAUGE@ DB 'WINDOW_GAUGE', 00H	; `string'
CONST	ENDS
;	COMDAT ??_C@_0N@BOOBGFI@WINDOW_QUICK@
CONST	SEGMENT
??_C@_0N@BOOBGFI@WINDOW_QUICK@ DB 'WINDOW_QUICK', 00H	; `string'
CONST	ENDS
;	COMDAT ??_C@_0P@NOILKAON@WINDOW_COMMAND@
CONST	SEGMENT
??_C@_0P@NOILKAON@WINDOW_COMMAND@ DB 'WINDOW_COMMAND', 00H ; `string'
CONST	ENDS
;	COMDAT ??_C@_0P@FHBHOGAA@WINDOW_JOURNAL@
CONST	SEGMENT
??_C@_0P@FHBHOGAA@WINDOW_JOURNAL@ DB 'WINDOW_JOURNAL', 00H ; `string'
CONST	ENDS
;	COMDAT ??_C@_0P@MAFILJL@WINDOW_SOCIETY@
CONST	SEGMENT
??_C@_0P@MAFILJL@WINDOW_SOCIETY@ DB 'WINDOW_SOCIETY', 00H ; `string'
CONST	ENDS
;	COMDAT ??_C@_0P@HAOBMPKD@WINDOW_ABILITY@
CONST	SEGMENT
??_C@_0P@HAOBMPKD@WINDOW_ABILITY@ DB 'WINDOW_ABILITY', 00H ; `string'
CONST	ENDS
;	COMDAT ??_C@_0BB@CHCHLBGG@WINDOW_INVENTORY@
CONST	SEGMENT
??_C@_0BB@CHCHLBGG@WINDOW_INVENTORY@ DB 'WINDOW_INVENTORY', 00H ; `string'
CONST	ENDS
;	COMDAT ??_C@_0O@EDOCFBFG@WINDOW_STATUS@
CONST	SEGMENT
??_C@_0O@EDOCFBFG@WINDOW_STATUS@ DB 'WINDOW_STATUS', 00H ; `string'
CONST	ENDS
;	COMDAT ??_C@_0O@LCPLIAAE@systemSetting@
CONST	SEGMENT
??_C@_0O@LCPLIAAE@systemSetting@ DB 'systemSetting', 00H ; `string'
CONST	ENDS
;	COMDAT ??_C@_0P@JLOPHJNK@SetShadowLevel@
CONST	SEGMENT
??_C@_0P@JLOPHJNK@SetShadowLevel@ DB 'SetShadowLevel', 00H ; `string'
CONST	ENDS
;	COMDAT ??_C@_0P@FFPBIDPG@GetShadowLevel@
CONST	SEGMENT
??_C@_0P@FFPBIDPG@GetShadowLevel@ DB 'GetShadowLevel', 00H ; `string'
CONST	ENDS
;	COMDAT ??_C@_0BA@GPLIEFHC@IsShowSalesText@
CONST	SEGMENT
??_C@_0BA@GPLIEFHC@IsShowSalesText@ DB 'IsShowSalesText', 00H ; `string'
CONST	ENDS
;	COMDAT ??_C@_0BF@IKKCKDDD@SetShowSalesTextFlag@
CONST	SEGMENT
??_C@_0BF@IKKCKDDD@SetShowSalesTextFlag@ DB 'SetShowSalesTextFlag', 00H ; `string'
CONST	ENDS
;	COMDAT ??_C@_0N@FLKCLECP@IsShowDamage@
CONST	SEGMENT
??_C@_0N@FLKCLECP@IsShowDamage@ DB 'IsShowDamage', 00H	; `string'
CONST	ENDS
;	COMDAT ??_C@_0BC@JHKGLKC@SetShowDamageFlag@
CONST	SEGMENT
??_C@_0BC@JHKGLKC@SetShowDamageFlag@ DB 'SetShowDamageFlag', 00H ; `string'
CONST	ENDS
;	COMDAT ??_C@_0BB@NKNDCIFA@IsAlwaysShowName@
CONST	SEGMENT
??_C@_0BB@NKNDCIFA@IsAlwaysShowName@ DB 'IsAlwaysShowName', 00H ; `string'
CONST	ENDS
;	COMDAT ??_C@_0BG@GMBDCOC@SetAlwaysShowNameFlag@
CONST	SEGMENT
??_C@_0BG@GMBDCOC@SetAlwaysShowNameFlag@ DB 'SetAlwaysShowNameFlag', 00H ; `string'
CONST	ENDS
;	COMDAT ??_C@_0L@MGMBGKCF@IsViewChat@
CONST	SEGMENT
??_C@_0L@MGMBGKCF@IsViewChat@ DB 'IsViewChat', 00H	; `string'
CONST	ENDS
;	COMDAT ??_C@_0BA@MFKECAML@SetViewChatFlag@
CONST	SEGMENT
??_C@_0BA@MFKECAML@SetViewChatFlag@ DB 'SetViewChatFlag', 00H ; `string'
CONST	ENDS
;	COMDAT ??_C@_0BB@BFMNFHIM@IsSoftwareCursor@
CONST	SEGMENT
??_C@_0BB@BFMNFHIM@IsSoftwareCursor@ DB 'IsSoftwareCursor', 00H ; `string'
CONST	ENDS
;	COMDAT ??_C@_0BA@MLLJDBPB@SetSoundVolumef@
CONST	SEGMENT
??_C@_0BA@MLLJDBPB@SetSoundVolumef@ DB 'SetSoundVolumef', 00H ; `string'
CONST	ENDS
;	COMDAT ??_C@_0P@LGJJAPOH@SetMusicVolume@
CONST	SEGMENT
??_C@_0P@LGJJAPOH@SetMusicVolume@ DB 'SetMusicVolume', 00H ; `string'
CONST	ENDS
;	COMDAT ??_C@_0P@LCENEDPB@GetSoundVolume@
CONST	SEGMENT
??_C@_0P@LCENEDPB@GetSoundVolume@ DB 'GetSoundVolume', 00H ; `string'
CONST	ENDS
;	COMDAT ??_C@_0P@HIIHPFML@GetMusicVolume@
CONST	SEGMENT
??_C@_0P@HIIHPFML@GetMusicVolume@ DB 'GetMusicVolume', 00H ; `string'
CONST	ENDS
;	COMDAT ??_C@_09BOFMNBBE@GetSaveID@
CONST	SEGMENT
??_C@_09BOFMNBBE@GetSaveID@ DB 'GetSaveID', 00H		; `string'
CONST	ENDS
;	COMDAT ??_C@_08ILEIELBI@isSaveID@
CONST	SEGMENT
??_C@_08ILEIELBI@isSaveID@ DB 'isSaveID', 00H		; `string'
CONST	ENDS
;	COMDAT ??_C@_09DABJPAIG@SetSaveID@
CONST	SEGMENT
??_C@_09DABJPAIG@SetSaveID@ DB 'SetSaveID', 00H		; `string'
CONST	ENDS
;	COMDAT ??_C@_09IHEJGOIG@GetConfig@
CONST	SEGMENT
??_C@_09IHEJGOIG@GetConfig@ DB 'GetConfig', 00H		; `string'
CONST	ENDS
;	COMDAT ??_C@_0L@IJAHDAKP@SaveConfig@
CONST	SEGMENT
??_C@_0L@IJAHDAKP@SaveConfig@ DB 'SaveConfig', 00H	; `string'
CONST	ENDS
;	COMDAT ??_C@_09KJAMEPBE@SetConfig@
CONST	SEGMENT
??_C@_09KJAMEPBE@SetConfig@ DB 'SetConfig', 00H		; `string'
CONST	ENDS
;	COMDAT ??_C@_0M@PHHLFDDI@ApplyConfig@
CONST	SEGMENT
??_C@_0M@PHHLFDDI@ApplyConfig@ DB 'ApplyConfig', 00H	; `string'
CONST	ENDS
;	COMDAT ??_C@_0N@DEDCKOKK@GetFrequency@
CONST	SEGMENT
??_C@_0N@DEDCKOKK@GetFrequency@ DB 'GetFrequency', 00H	; `string'
CONST	ENDS
;	COMDAT ??_C@_0O@MCJGAEI@GetResolution@
CONST	SEGMENT
??_C@_0O@MCJGAEI@GetResolution@ DB 'GetResolution', 00H	; `string'
CONST	ENDS
;	COMDAT ??_C@_0BF@GJHGOKBH@GetCurrentResolution@
CONST	SEGMENT
??_C@_0BF@GJHGOKBH@GetCurrentResolution@ DB 'GetCurrentResolution', 00H ; `string'
CONST	ENDS
;	COMDAT ??_C@_0BC@MMLDLJCA@GetFrequencyCount@
CONST	SEGMENT
??_C@_0BC@MMLDLJCA@GetFrequencyCount@ DB 'GetFrequencyCount', 00H ; `string'
CONST	ENDS
;	COMDAT ??_C@_0BD@PNJEEMA@GetResolutionCount@
CONST	SEGMENT
??_C@_0BD@PNJEEMA@GetResolutionCount@ DB 'GetResolutionCount', 00H ; `string'
CONST	ENDS
;	COMDAT ??_C@_0BA@OIPDIACO@GetWindowStatus@
CONST	SEGMENT
??_C@_0BA@OIPDIACO@GetWindowStatus@ DB 'GetWindowStatus', 00H ; `string'
CONST	ENDS
;	COMDAT ??_C@_0BB@DOCGKHHO@SaveWindowStatus@
CONST	SEGMENT
??_C@_0BB@DOCGKHHO@SaveWindowStatus@ DB 'SaveWindowStatus', 00H ; `string'
CONST	ENDS
;	COMDAT ??_C@_0BC@GGDBAEOO@isInterfaceConfig@
CONST	SEGMENT
??_C@_0BC@GGDBAEOO@isInterfaceConfig@ DB 'isInterfaceConfig', 00H ; `string'
CONST	ENDS
;	COMDAT ??_C@_0BA@DGMEINM@ReserveResource@
CONST	SEGMENT
??_C@_0BA@DGMEINM@ReserveResource@ DB 'ReserveResource', 00H ; `string'
CONST	ENDS
;	COMDAT ??_C@_0BI@NBDOAHCB@DestroyInterfaceHandler@
CONST	SEGMENT
??_C@_0BI@NBDOAHCB@DestroyInterfaceHandler@ DB 'DestroyInterfaceHandler', 00H ; `string'
CONST	ENDS
;	COMDAT ??_C@_0BE@LHLPPLCA@SetInterfaceHandler@
CONST	SEGMENT
??_C@_0BE@LHLPPLCA@SetInterfaceHandler@ DB 'SetInterfaceHandler', 00H ; `string'
CONST	ENDS
;	COMDAT ??_C@_09EOGEIJMK@GetHeight@
CONST	SEGMENT
??_C@_09EOGEIJMK@GetHeight@ DB 'GetHeight', 00H		; `string'
CONST	ENDS
;	COMDAT ??_C@_08OMBILDHM@GetWidth@
CONST	SEGMENT
??_C@_08OMBILDHM@GetWidth@ DB 'GetWidth', 00H		; `string'
CONST	ENDS
;	COMDAT ?s_methods@?1??initsystem@@YAXXZ@4PAUPyMethodDef@@A
_DATA	SEGMENT
?s_methods@?1??initsystem@@YAXXZ@4PAUPyMethodDef@@A DD FLAT:??_C@_08OMBILDHM@GetWidth@ ; `initsystem'::`2'::s_methods
	DD	FLAT:?systemGetWidth@@YAPAU_object@@PAU1@0@Z
	DD	01H
	ORG $+4
	DD	FLAT:??_C@_09EOGEIJMK@GetHeight@
	DD	FLAT:?systemGetHeight@@YAPAU_object@@PAU1@0@Z
	DD	01H
	ORG $+4
	DD	FLAT:??_C@_0BE@LHLPPLCA@SetInterfaceHandler@
	DD	FLAT:?systemSetInterfaceHandler@@YAPAU_object@@PAU1@0@Z
	DD	01H
	ORG $+4
	DD	FLAT:??_C@_0BI@NBDOAHCB@DestroyInterfaceHandler@
	DD	FLAT:?systemDestroyInterfaceHandler@@YAPAU_object@@PAU1@0@Z
	DD	01H
	ORG $+4
	DD	FLAT:??_C@_0BA@DGMEINM@ReserveResource@
	DD	FLAT:?systemReserveResource@@YAPAU_object@@PAU1@0@Z
	DD	01H
	ORG $+4
	DD	FLAT:??_C@_0BC@GGDBAEOO@isInterfaceConfig@
	DD	FLAT:?systemisInterfaceConfig@@YAPAU_object@@PAU1@0@Z
	DD	01H
	ORG $+4
	DD	FLAT:??_C@_0BB@DOCGKHHO@SaveWindowStatus@
	DD	FLAT:?systemSaveWindowStatus@@YAPAU_object@@PAU1@0@Z
	DD	01H
	ORG $+4
	DD	FLAT:??_C@_0BA@OIPDIACO@GetWindowStatus@
	DD	FLAT:?systemGetWindowStatus@@YAPAU_object@@PAU1@0@Z
	DD	01H
	ORG $+4
	DD	FLAT:??_C@_0BD@PNJEEMA@GetResolutionCount@
	DD	FLAT:?systemGetResolutionCount@@YAPAU_object@@PAU1@0@Z
	DD	01H
	ORG $+4
	DD	FLAT:??_C@_0BC@MMLDLJCA@GetFrequencyCount@
	DD	FLAT:?systemGetFrequencyCount@@YAPAU_object@@PAU1@0@Z
	DD	01H
	ORG $+4
	DD	FLAT:??_C@_0BF@GJHGOKBH@GetCurrentResolution@
	DD	FLAT:?systemGetCurrentResolution@@YAPAU_object@@PAU1@0@Z
	DD	01H
	ORG $+4
	DD	FLAT:??_C@_0O@MCJGAEI@GetResolution@
	DD	FLAT:?systemGetResolution@@YAPAU_object@@PAU1@0@Z
	DD	01H
	ORG $+4
	DD	FLAT:??_C@_0N@DEDCKOKK@GetFrequency@
	DD	FLAT:?systemGetFrequency@@YAPAU_object@@PAU1@0@Z
	DD	01H
	ORG $+4
	DD	FLAT:??_C@_0M@PHHLFDDI@ApplyConfig@
	DD	FLAT:?systemApplyConfig@@YAPAU_object@@PAU1@0@Z
	DD	01H
	ORG $+4
	DD	FLAT:??_C@_09KJAMEPBE@SetConfig@
	DD	FLAT:?systemSetConfig@@YAPAU_object@@PAU1@0@Z
	DD	01H
	ORG $+4
	DD	FLAT:??_C@_0L@IJAHDAKP@SaveConfig@
	DD	FLAT:?systemSaveConfig@@YAPAU_object@@PAU1@0@Z
	DD	01H
	ORG $+4
	DD	FLAT:??_C@_09IHEJGOIG@GetConfig@
	DD	FLAT:?systemGetConfig@@YAPAU_object@@PAU1@0@Z
	DD	01H
	ORG $+4
	DD	FLAT:??_C@_09DABJPAIG@SetSaveID@
	DD	FLAT:?systemSetSaveID@@YAPAU_object@@PAU1@0@Z
	DD	01H
	ORG $+4
	DD	FLAT:??_C@_08ILEIELBI@isSaveID@
	DD	FLAT:?systemisSaveID@@YAPAU_object@@PAU1@0@Z
	DD	01H
	ORG $+4
	DD	FLAT:??_C@_09BOFMNBBE@GetSaveID@
	DD	FLAT:?systemGetSaveID@@YAPAU_object@@PAU1@0@Z
	DD	01H
	ORG $+4
	DD	FLAT:??_C@_0P@HIIHPFML@GetMusicVolume@
	DD	FLAT:?systemGetMusicVolume@@YAPAU_object@@PAU1@0@Z
	DD	01H
	ORG $+4
	DD	FLAT:??_C@_0P@LCENEDPB@GetSoundVolume@
	DD	FLAT:?systemGetSoundVolume@@YAPAU_object@@PAU1@0@Z
	DD	01H
	ORG $+4
	DD	FLAT:??_C@_0P@LGJJAPOH@SetMusicVolume@
	DD	FLAT:?systemSetMusicVolume@@YAPAU_object@@PAU1@0@Z
	DD	01H
	ORG $+4
	DD	FLAT:??_C@_0BA@MLLJDBPB@SetSoundVolumef@
	DD	FLAT:?systemSetSoundVolumef@@YAPAU_object@@PAU1@0@Z
	DD	01H
	ORG $+4
	DD	FLAT:??_C@_0BB@BFMNFHIM@IsSoftwareCursor@
	DD	FLAT:?systemIsSoftwareCursor@@YAPAU_object@@PAU1@0@Z
	DD	01H
	ORG $+4
	DD	FLAT:??_C@_0BA@MFKECAML@SetViewChatFlag@
	DD	FLAT:?systemSetViewChatFlag@@YAPAU_object@@PAU1@0@Z
	DD	01H
	ORG $+4
	DD	FLAT:??_C@_0L@MGMBGKCF@IsViewChat@
	DD	FLAT:?systemIsViewChat@@YAPAU_object@@PAU1@0@Z
	DD	01H
	ORG $+4
	DD	FLAT:??_C@_0BG@GMBDCOC@SetAlwaysShowNameFlag@
	DD	FLAT:?systemSetAlwaysShowNameFlag@@YAPAU_object@@PAU1@0@Z
	DD	01H
	ORG $+4
	DD	FLAT:??_C@_0BB@NKNDCIFA@IsAlwaysShowName@
	DD	FLAT:?systemIsAlwaysShowName@@YAPAU_object@@PAU1@0@Z
	DD	01H
	ORG $+4
	DD	FLAT:??_C@_0BC@JHKGLKC@SetShowDamageFlag@
	DD	FLAT:?systemSetShowDamageFlag@@YAPAU_object@@PAU1@0@Z
	DD	01H
	ORG $+4
	DD	FLAT:??_C@_0N@FLKCLECP@IsShowDamage@
	DD	FLAT:?systemIsShowDamage@@YAPAU_object@@PAU1@0@Z
	DD	01H
	ORG $+4
	DD	FLAT:??_C@_0BF@IKKCKDDD@SetShowSalesTextFlag@
	DD	FLAT:?systemSetShowSalesTextFlag@@YAPAU_object@@PAU1@0@Z
	DD	01H
	ORG $+4
	DD	FLAT:??_C@_0BA@GPLIEFHC@IsShowSalesText@
	DD	FLAT:?systemIsShowSalesText@@YAPAU_object@@PAU1@0@Z
	DD	01H
	ORG $+4
	DD	FLAT:??_C@_0P@FFPBIDPG@GetShadowLevel@
	DD	FLAT:?systemGetShadowLevel@@YAPAU_object@@PAU1@0@Z
	DD	01H
	ORG $+4
	DD	FLAT:??_C@_0P@JLOPHJNK@SetShadowLevel@
	DD	FLAT:?systemSetShadowLevel@@YAPAU_object@@PAU1@0@Z
	DD	01H
	ORG $+4
	DD	00H
	DD	00H
	DD	00H
	ORG $+4
_DATA	ENDS
;	COMDAT ??_C@_03GLKMLICL@iii@
CONST	SEGMENT
??_C@_03GLKMLICL@iii@ DB 'iii', 00H			; `string'
CONST	ENDS
;	COMDAT ??_C@_01INIBCBCB@f@
CONST	SEGMENT
??_C@_01INIBCBCB@f@ DB 'f', 00H				; `string'
CONST	ENDS
;	COMDAT ??_C@_01LKDEMHDF@s@
CONST	SEGMENT
??_C@_01LKDEMHDF@s@ DB 's', 00H				; `string'
CONST	ENDS
;	COMDAT ??_C@_08DGHCLNGO@iiiiiiii@
CONST	SEGMENT
??_C@_08DGHCLNGO@iiiiiiii@ DB 'iiiiiiii', 00H		; `string'
CONST	ENDS
;	COMDAT ??_C@_05EAPDINDK@iiiii@
CONST	SEGMENT
??_C@_05EAPDINDK@iiiii@ DB 'iiiii', 00H			; `string'
CONST	ENDS
;	COMDAT ??_C@_01KBJDNOO@i@
CONST	SEGMENT
??_C@_01KBJDNOO@i@ DB 'i', 00H				; `string'
CONST	ENDS
;	COMDAT ??_R1A@?0A@EA@bad_array_new_length@std@@8
rdata$r	SEGMENT
??_R1A@?0A@EA@bad_array_new_length@std@@8 DD FLAT:??_R0?AVbad_array_new_length@std@@@8 ; std::bad_array_new_length::`RTTI Base Class Descriptor at (0,-1,0,64)'
	DD	02H
	DD	00H
	DD	0ffffffffH
	DD	00H
	DD	040H
	DD	FLAT:??_R3bad_array_new_length@std@@8
rdata$r	ENDS
;	COMDAT ??_R2bad_array_new_length@std@@8
rdata$r	SEGMENT
??_R2bad_array_new_length@std@@8 DD FLAT:??_R1A@?0A@EA@bad_array_new_length@std@@8 ; std::bad_array_new_length::`RTTI Base Class Array'
	DD	FLAT:??_R1A@?0A@EA@bad_alloc@std@@8
	DD	FLAT:??_R1A@?0A@EA@exception@std@@8
rdata$r	ENDS
;	COMDAT ??_R3bad_array_new_length@std@@8
rdata$r	SEGMENT
??_R3bad_array_new_length@std@@8 DD 00H			; std::bad_array_new_length::`RTTI Class Hierarchy Descriptor'
	DD	00H
	DD	03H
	DD	FLAT:??_R2bad_array_new_length@std@@8
rdata$r	ENDS
;	COMDAT ??_R4bad_array_new_length@std@@6B@
rdata$r	SEGMENT
??_R4bad_array_new_length@std@@6B@ DD 00H		; std::bad_array_new_length::`RTTI Complete Object Locator'
	DD	00H
	DD	00H
	DD	FLAT:??_R0?AVbad_array_new_length@std@@@8
	DD	FLAT:??_R3bad_array_new_length@std@@8
rdata$r	ENDS
;	COMDAT ??_R1A@?0A@EA@bad_alloc@std@@8
rdata$r	SEGMENT
??_R1A@?0A@EA@bad_alloc@std@@8 DD FLAT:??_R0?AVbad_alloc@std@@@8 ; std::bad_alloc::`RTTI Base Class Descriptor at (0,-1,0,64)'
	DD	01H
	DD	00H
	DD	0ffffffffH
	DD	00H
	DD	040H
	DD	FLAT:??_R3bad_alloc@std@@8
rdata$r	ENDS
;	COMDAT ??_R2bad_alloc@std@@8
rdata$r	SEGMENT
??_R2bad_alloc@std@@8 DD FLAT:??_R1A@?0A@EA@bad_alloc@std@@8 ; std::bad_alloc::`RTTI Base Class Array'
	DD	FLAT:??_R1A@?0A@EA@exception@std@@8
rdata$r	ENDS
;	COMDAT ??_R3bad_alloc@std@@8
rdata$r	SEGMENT
??_R3bad_alloc@std@@8 DD 00H				; std::bad_alloc::`RTTI Class Hierarchy Descriptor'
	DD	00H
	DD	02H
	DD	FLAT:??_R2bad_alloc@std@@8
rdata$r	ENDS
;	COMDAT ??_R4bad_alloc@std@@6B@
rdata$r	SEGMENT
??_R4bad_alloc@std@@6B@ DD 00H				; std::bad_alloc::`RTTI Complete Object Locator'
	DD	00H
	DD	00H
	DD	FLAT:??_R0?AVbad_alloc@std@@@8
	DD	FLAT:??_R3bad_alloc@std@@8
rdata$r	ENDS
;	COMDAT ??_R1A@?0A@EA@exception@std@@8
rdata$r	SEGMENT
??_R1A@?0A@EA@exception@std@@8 DD FLAT:??_R0?AVexception@std@@@8 ; std::exception::`RTTI Base Class Descriptor at (0,-1,0,64)'
	DD	00H
	DD	00H
	DD	0ffffffffH
	DD	00H
	DD	040H
	DD	FLAT:??_R3exception@std@@8
rdata$r	ENDS
;	COMDAT ??_R2exception@std@@8
rdata$r	SEGMENT
??_R2exception@std@@8 DD FLAT:??_R1A@?0A@EA@exception@std@@8 ; std::exception::`RTTI Base Class Array'
rdata$r	ENDS
;	COMDAT ??_R3exception@std@@8
rdata$r	SEGMENT
??_R3exception@std@@8 DD 00H				; std::exception::`RTTI Class Hierarchy Descriptor'
	DD	00H
	DD	01H
	DD	FLAT:??_R2exception@std@@8
rdata$r	ENDS
;	COMDAT ??_R4exception@std@@6B@
rdata$r	SEGMENT
??_R4exception@std@@6B@ DD 00H				; std::exception::`RTTI Complete Object Locator'
	DD	00H
	DD	00H
	DD	FLAT:??_R0?AVexception@std@@@8
	DD	FLAT:??_R3exception@std@@8
rdata$r	ENDS
;	COMDAT __CT??_R0?AVexception@std@@@8??0exception@std@@QAE@ABV01@@Z12
xdata$x	SEGMENT
__CT??_R0?AVexception@std@@@8??0exception@std@@QAE@ABV01@@Z12 DD 00H
	DD	FLAT:??_R0?AVexception@std@@@8
	DD	00H
	DD	0ffffffffH
	ORG $+4
	DD	0cH
	DD	FLAT:??0exception@std@@QAE@ABV01@@Z
xdata$x	ENDS
;	COMDAT ??_R0?AVexception@std@@@8
data$r	SEGMENT
??_R0?AVexception@std@@@8 DD FLAT:??_7type_info@@6B@	; std::exception `RTTI Type Descriptor'
	DD	00H
	DB	'.?AVexception@std@@', 00H
data$r	ENDS
;	COMDAT __CT??_R0?AVbad_alloc@std@@@8??0bad_alloc@std@@QAE@ABV01@@Z12
xdata$x	SEGMENT
__CT??_R0?AVbad_alloc@std@@@8??0bad_alloc@std@@QAE@ABV01@@Z12 DD 010H
	DD	FLAT:??_R0?AVbad_alloc@std@@@8
	DD	00H
	DD	0ffffffffH
	ORG $+4
	DD	0cH
	DD	FLAT:??0bad_alloc@std@@QAE@ABV01@@Z
xdata$x	ENDS
;	COMDAT ??_R0?AVbad_alloc@std@@@8
data$r	SEGMENT
??_R0?AVbad_alloc@std@@@8 DD FLAT:??_7type_info@@6B@	; std::bad_alloc `RTTI Type Descriptor'
	DD	00H
	DB	'.?AVbad_alloc@std@@', 00H
data$r	ENDS
;	COMDAT __CT??_R0?AVbad_array_new_length@std@@@8??0bad_array_new_length@std@@QAE@ABV01@@Z12
xdata$x	SEGMENT
__CT??_R0?AVbad_array_new_length@std@@@8??0bad_array_new_length@std@@QAE@ABV01@@Z12 DD 00H
	DD	FLAT:??_R0?AVbad_array_new_length@std@@@8
	DD	00H
	DD	0ffffffffH
	ORG $+4
	DD	0cH
	DD	FLAT:??0bad_array_new_length@std@@QAE@ABV01@@Z
xdata$x	ENDS
;	COMDAT ??_R0?AVbad_array_new_length@std@@@8
data$r	SEGMENT
??_R0?AVbad_array_new_length@std@@@8 DD FLAT:??_7type_info@@6B@ ; std::bad_array_new_length `RTTI Type Descriptor'
	DD	00H
	DB	'.?AVbad_array_new_length@std@@', 00H
data$r	ENDS
;	COMDAT __CTA3?AVbad_array_new_length@std@@
xdata$x	SEGMENT
__CTA3?AVbad_array_new_length@std@@ DD 03H
	DD	FLAT:__CT??_R0?AVbad_array_new_length@std@@@8??0bad_array_new_length@std@@QAE@ABV01@@Z12
	DD	FLAT:__CT??_R0?AVbad_alloc@std@@@8??0bad_alloc@std@@QAE@ABV01@@Z12
	DD	FLAT:__CT??_R0?AVexception@std@@@8??0exception@std@@QAE@ABV01@@Z12
xdata$x	ENDS
;	COMDAT __TI3?AVbad_array_new_length@std@@
xdata$x	SEGMENT
__TI3?AVbad_array_new_length@std@@ DD 00H
	DD	FLAT:??1bad_array_new_length@std@@UAE@XZ
	DD	00H
	DD	FLAT:__CTA3?AVbad_array_new_length@std@@
xdata$x	ENDS
;	COMDAT ??_C@_0BF@KINCDENJ@bad?5array?5new?5length@
CONST	SEGMENT
??_C@_0BF@KINCDENJ@bad?5array?5new?5length@ DB 'bad array new length', 00H ; `string'
CONST	ENDS
;	COMDAT ??_7bad_array_new_length@std@@6B@
CONST	SEGMENT
??_7bad_array_new_length@std@@6B@ DD FLAT:??_R4bad_array_new_length@std@@6B@ ; std::bad_array_new_length::`vftable'
	DD	FLAT:??_Ebad_array_new_length@std@@UAEPAXI@Z
	DD	FLAT:?what@exception@std@@UBEPBDXZ
CONST	ENDS
;	COMDAT ??_7bad_alloc@std@@6B@
CONST	SEGMENT
??_7bad_alloc@std@@6B@ DD FLAT:??_R4bad_alloc@std@@6B@	; std::bad_alloc::`vftable'
	DD	FLAT:??_Ebad_alloc@std@@UAEPAXI@Z
	DD	FLAT:?what@exception@std@@UBEPBDXZ
CONST	ENDS
;	COMDAT ??_C@_0BC@EOODALEL@Unknown?5exception@
CONST	SEGMENT
??_C@_0BC@EOODALEL@Unknown?5exception@ DB 'Unknown exception', 00H ; `string'
CONST	ENDS
;	COMDAT ??_7exception@std@@6B@
CONST	SEGMENT
??_7exception@std@@6B@ DD FLAT:??_R4exception@std@@6B@	; std::exception::`vftable'
	DD	FLAT:??_Eexception@std@@UAEPAXI@Z
	DD	FLAT:?what@exception@std@@UBEPBDXZ
CONST	ENDS
;	COMDAT xdata$x
xdata$x	SEGMENT
__unwindtable$?systemReserveResource@@YAPAU_object@@PAU1@0@Z DD 0ffffffffH
	DD	FLAT:__unwindfunclet$?systemReserveResource@@YAPAU_object@@PAU1@0@Z$0
__ehfuncinfo$?systemReserveResource@@YAPAU_object@@PAU1@0@Z DD 019930522H
	DD	01H
	DD	FLAT:__unwindtable$?systemReserveResource@@YAPAU_object@@PAU1@0@Z
	DD	2 DUP(00H)
	DD	2 DUP(00H)
	DD	00H
	DD	01H
xdata$x	ENDS
; Function compile flags: /Ogtp
; File C:\Program Files (x86)\Microsoft Visual Studio\2019\Community\VC\Tools\MSVC\14.28.29333\include\xmemory
;	COMDAT ??$_Destroy_in_place@PAU?$_Tree_node@V?$basic_string@DU?$char_traits@D@std@@V?$allocator@D@2@@std@@PAX@std@@@std@@YAXAAPAU?$_Tree_node@V?$basic_string@DU?$char_traits@D@std@@V?$allocator@D@2@@std@@PAX@0@@Z
_TEXT	SEGMENT
__Obj$ = 8						; size = 4
??$_Destroy_in_place@PAU?$_Tree_node@V?$basic_string@DU?$char_traits@D@std@@V?$allocator@D@2@@std@@PAX@std@@@std@@YAXAAPAU?$_Tree_node@V?$basic_string@DU?$char_traits@D@std@@V?$allocator@D@2@@std@@PAX@0@@Z PROC ; std::_Destroy_in_place<std::_Tree_node<std::basic_string<char,std::char_traits<char>,std::allocator<char> >,void *> *>, COMDAT

; 271  : #if _HAS_IF_CONSTEXPR
; 272  :     if constexpr (is_array_v<_Ty>) {
; 273  :         _Destroy_range(_Obj, _Obj + extent_v<_Ty>);
; 274  :     } else
; 275  : #endif // _HAS_IF_CONSTEXPR
; 276  :     {
; 277  :         _Obj.~_Ty();
; 278  :     }
; 279  : }

  00000	c2 00 00	 ret	 0
??$_Destroy_in_place@PAU?$_Tree_node@V?$basic_string@DU?$char_traits@D@std@@V?$allocator@D@2@@std@@PAX@std@@@std@@YAXAAPAU?$_Tree_node@V?$basic_string@DU?$char_traits@D@std@@V?$allocator@D@2@@std@@PAX@0@@Z ENDP ; std::_Destroy_in_place<std::_Tree_node<std::basic_string<char,std::char_traits<char>,std::allocator<char> >,void *> *>
_TEXT	ENDS
; Function compile flags: /Ogtp
; File C:\Program Files (x86)\Microsoft Visual Studio\2019\Community\VC\Tools\MSVC\14.28.29333\include\xmemory
;	COMDAT ??$_Construct_in_place@PAU?$_Tree_node@V?$basic_string@DU?$char_traits@D@std@@V?$allocator@D@2@@std@@PAX@std@@ABQAU12@@std@@YAXAAPAU?$_Tree_node@V?$basic_string@DU?$char_traits@D@std@@V?$allocator@D@2@@std@@PAX@0@ABQAU10@@Z
_TEXT	SEGMENT
__Obj$ = 8						; size = 4
_<_Args_0>$ = 12					; size = 4
??$_Construct_in_place@PAU?$_Tree_node@V?$basic_string@DU?$char_traits@D@std@@V?$allocator@D@2@@std@@PAX@std@@ABQAU12@@std@@YAXAAPAU?$_Tree_node@V?$basic_string@DU?$char_traits@D@std@@V?$allocator@D@2@@std@@PAX@0@ABQAU10@@Z PROC ; std::_Construct_in_place<std::_Tree_node<std::basic_string<char,std::char_traits<char>,std::allocator<char> >,void *> *,std::_Tree_node<std::basic_string<char,std::char_traits<char>,std::allocator<char> >,void *> * const &>, COMDAT

; 228  : void _Construct_in_place(_Ty& _Obj, _Types&&... _Args) noexcept(is_nothrow_constructible_v<_Ty, _Types...>) {

  00000	55		 push	 ebp
  00001	8b ec		 mov	 ebp, esp

; 229  :     ::new (const_cast<void*>(static_cast<const volatile void*>(_STD addressof(_Obj))))

  00003	8b 45 0c	 mov	 eax, DWORD PTR _<_Args_0>$[ebp]
  00006	8b 08		 mov	 ecx, DWORD PTR [eax]
  00008	8b 45 08	 mov	 eax, DWORD PTR __Obj$[ebp]
  0000b	89 08		 mov	 DWORD PTR [eax], ecx

; 230  :         _Ty(_STD forward<_Types>(_Args)...);
; 231  : }

  0000d	5d		 pop	 ebp
  0000e	c3		 ret	 0
??$_Construct_in_place@PAU?$_Tree_node@V?$basic_string@DU?$char_traits@D@std@@V?$allocator@D@2@@std@@PAX@std@@ABQAU12@@std@@YAXAAPAU?$_Tree_node@V?$basic_string@DU?$char_traits@D@std@@V?$allocator@D@2@@std@@PAX@0@ABQAU10@@Z ENDP ; std::_Construct_in_place<std::_Tree_node<std::basic_string<char,std::char_traits<char>,std::allocator<char> >,void *> *,std::_Tree_node<std::basic_string<char,std::char_traits<char>,std::allocator<char> >,void *> * const &>
_TEXT	ENDS
; Function compile flags: /Ogtp
; File C:\Program Files (x86)\Microsoft Visual Studio\2019\Community\VC\Tools\MSVC\14.28.29333\include\xtree
; File C:\Program Files (x86)\Microsoft Visual Studio\2019\Community\VC\Tools\MSVC\14.28.29333\include\utility
; File C:\Program Files (x86)\Microsoft Visual Studio\2019\Community\VC\Tools\MSVC\14.28.29333\include\xstring
; File C:\Program Files (x86)\Microsoft Visual Studio\2019\Community\VC\Tools\MSVC\14.28.29333\include\xmemory
; File C:\Program Files (x86)\Microsoft Visual Studio\2019\Community\VC\Tools\MSVC\14.28.29333\include\xstring
; File C:\Program Files (x86)\Microsoft Visual Studio\2019\Community\VC\Tools\MSVC\14.28.29333\include\xmemory
; File C:\Program Files (x86)\Microsoft Visual Studio\2019\Community\VC\Tools\MSVC\14.28.29333\include\xtree
; File C:\Program Files (x86)\Microsoft Visual Studio\2019\Community\VC\Tools\MSVC\14.28.29333\include\xmemory
; File C:\Program Files (x86)\Microsoft Visual Studio\2019\Community\VC\Tools\MSVC\14.28.29333\include\xtree
;	COMDAT ??$_Erase_tree@V?$allocator@U?$_Tree_node@V?$basic_string@DU?$char_traits@D@std@@V?$allocator@D@2@@std@@PAX@std@@@std@@@?$_Tree_val@U?$_Tree_simple_types@V?$basic_string@DU?$char_traits@D@std@@V?$allocator@D@2@@std@@@std@@@std@@QAEXAAV?$allocator@U?$_Tree_node@V?$basic_string@DU?$char_traits@D@std@@V?$allocator@D@2@@std@@PAX@std@@@1@PAU?$_Tree_node@V?$basic_string@DU?$char_traits@D@std@@V?$allocator@D@2@@std@@PAX@1@@Z
_TEXT	SEGMENT
_this$1$ = -4						; size = 4
__Al$ = 8						; size = 4
__Rootnode$ = 12					; size = 4
??$_Erase_tree@V?$allocator@U?$_Tree_node@V?$basic_string@DU?$char_traits@D@std@@V?$allocator@D@2@@std@@PAX@std@@@std@@@?$_Tree_val@U?$_Tree_simple_types@V?$basic_string@DU?$char_traits@D@std@@V?$allocator@D@2@@std@@@std@@@std@@QAEXAAV?$allocator@U?$_Tree_node@V?$basic_string@DU?$char_traits@D@std@@V?$allocator@D@2@@std@@PAX@std@@@1@PAU?$_Tree_node@V?$basic_string@DU?$char_traits@D@std@@V?$allocator@D@2@@std@@PAX@1@@Z PROC ; std::_Tree_val<std::_Tree_simple_types<std::basic_string<char,std::char_traits<char>,std::allocator<char> > > >::_Erase_tree<std::allocator<std::_Tree_node<std::basic_string<char,std::char_traits<char>,std::allocator<char> >,void *> > >, COMDAT
; _this$ = ecx

; 742  :     void _Erase_tree(_Alnode& _Al, _Nodeptr _Rootnode) noexcept {

  00000	55		 push	 ebp
  00001	8b ec		 mov	 ebp, esp
  00003	51		 push	 ecx
  00004	57		 push	 edi

; 743  :         while (!_Rootnode->_Isnil) { // free subtrees, then node

  00005	8b 7d 0c	 mov	 edi, DWORD PTR __Rootnode$[ebp]
  00008	8b c1		 mov	 eax, ecx
  0000a	89 45 fc	 mov	 DWORD PTR _this$1$[ebp], eax
  0000d	80 7f 0d 00	 cmp	 BYTE PTR [edi+13], 0
  00011	75 51		 jne	 SHORT $LN3@Erase_tree
  00013	53		 push	 ebx
  00014	8b 5d 08	 mov	 ebx, DWORD PTR __Al$[ebp]
  00017	56		 push	 esi
$LL2@Erase_tree:

; 744  :             _Erase_tree(_Al, _Rootnode->_Right);

  00018	ff 77 08	 push	 DWORD PTR [edi+8]
  0001b	8b c8		 mov	 ecx, eax
  0001d	53		 push	 ebx
  0001e	e8 00 00 00 00	 call	 ??$_Erase_tree@V?$allocator@U?$_Tree_node@V?$basic_string@DU?$char_traits@D@std@@V?$allocator@D@2@@std@@PAX@std@@@std@@@?$_Tree_val@U?$_Tree_simple_types@V?$basic_string@DU?$char_traits@D@std@@V?$allocator@D@2@@std@@@std@@@std@@QAEXAAV?$allocator@U?$_Tree_node@V?$basic_string@DU?$char_traits@D@std@@V?$allocator@D@2@@std@@PAX@std@@@1@PAU?$_Tree_node@V?$basic_string@DU?$char_traits@D@std@@V?$allocator@D@2@@std@@PAX@1@@Z ; std::_Tree_val<std::_Tree_simple_types<std::basic_string<char,std::char_traits<char>,std::allocator<char> > > >::_Erase_tree<std::allocator<std::_Tree_node<std::basic_string<char,std::char_traits<char>,std::allocator<char> >,void *> > >
; File C:\Program Files (x86)\Microsoft Visual Studio\2019\Community\VC\Tools\MSVC\14.28.29333\include\utility

; 598  :     _Ty _Old_val = static_cast<_Ty&&>(_Val);

  00023	8b f7		 mov	 esi, edi

; 599  :     _Val         = static_cast<_Other&&>(_New_val);

  00025	8b 3f		 mov	 edi, DWORD PTR [edi]
; File C:\Program Files (x86)\Microsoft Visual Studio\2019\Community\VC\Tools\MSVC\14.28.29333\include\xstring

; 2227 :         return _BUF_SIZE <= _Myres;

  00027	8b 46 24	 mov	 eax, DWORD PTR [esi+36]
  0002a	83 f8 10	 cmp	 eax, 16			; 00000010H

; 4385 :         if (_Mypair._Myval2._Large_string_engaged()) {

  0002d	72 0d		 jb	 SHORT $LN18@Erase_tree

; 4386 :             const pointer _Ptr = _Mypair._Myval2._Bx._Ptr;
; 4387 :             auto& _Al          = _Getal();
; 4388 :             _Destroy_in_place(_Mypair._Myval2._Bx._Ptr);
; 4389 :             _Al.deallocate(_Ptr, _Mypair._Myval2._Myres + 1);

  0002f	40		 inc	 eax
; File C:\Program Files (x86)\Microsoft Visual Studio\2019\Community\VC\Tools\MSVC\14.28.29333\include\xmemory

; 810  :         _Deallocate<_New_alignof<_Ty>>(_Ptr, sizeof(_Ty) * _Count);

  00030	50		 push	 eax
  00031	ff 76 10	 push	 DWORD PTR [esi+16]
  00034	e8 00 00 00 00	 call	 ??$_Deallocate@$07$0A@@std@@YAXPAXI@Z ; std::_Deallocate<8,0>
  00039	83 c4 08	 add	 esp, 8
$LN18@Erase_tree:

; 696  :         _Deallocate<_New_alignof<value_type>>(_Ptr, sizeof(value_type) * _Count);

  0003c	6a 28		 push	 40			; 00000028H
  0003e	56		 push	 esi
; File C:\Program Files (x86)\Microsoft Visual Studio\2019\Community\VC\Tools\MSVC\14.28.29333\include\xstring

; 4392 :         _Mypair._Myval2._Mysize = 0;

  0003f	c7 46 20 00 00
	00 00		 mov	 DWORD PTR [esi+32], 0

; 4393 :         _Mypair._Myval2._Myres  = _BUF_SIZE - 1;

  00046	c7 46 24 0f 00
	00 00		 mov	 DWORD PTR [esi+36], 15	; 0000000fH

; 4394 :         // the _Traits::assign is last so the codegen doesn't think the char write can alias this
; 4395 :         _Traits::assign(_Mypair._Myval2._Bx._Buf[0], _Elem());

  0004d	c6 46 10 00	 mov	 BYTE PTR [esi+16], 0
; File C:\Program Files (x86)\Microsoft Visual Studio\2019\Community\VC\Tools\MSVC\14.28.29333\include\xmemory

; 696  :         _Deallocate<_New_alignof<value_type>>(_Ptr, sizeof(value_type) * _Count);

  00051	e8 00 00 00 00	 call	 ??$_Deallocate@$07$0A@@std@@YAXPAXI@Z ; std::_Deallocate<8,0>
; File C:\Program Files (x86)\Microsoft Visual Studio\2019\Community\VC\Tools\MSVC\14.28.29333\include\xtree

; 743  :         while (!_Rootnode->_Isnil) { // free subtrees, then node

  00056	8b 45 fc	 mov	 eax, DWORD PTR _this$1$[ebp]
; File C:\Program Files (x86)\Microsoft Visual Studio\2019\Community\VC\Tools\MSVC\14.28.29333\include\xmemory

; 696  :         _Deallocate<_New_alignof<value_type>>(_Ptr, sizeof(value_type) * _Count);

  00059	83 c4 08	 add	 esp, 8
; File C:\Program Files (x86)\Microsoft Visual Studio\2019\Community\VC\Tools\MSVC\14.28.29333\include\xtree

; 743  :         while (!_Rootnode->_Isnil) { // free subtrees, then node

  0005c	80 7f 0d 00	 cmp	 BYTE PTR [edi+13], 0
  00060	74 b6		 je	 SHORT $LL2@Erase_tree
  00062	5e		 pop	 esi
  00063	5b		 pop	 ebx
$LN3@Erase_tree:
  00064	5f		 pop	 edi

; 745  :             _Alnode::value_type::_Freenode(_Al, _STD exchange(_Rootnode, _Rootnode->_Left));
; 746  :         }
; 747  :     }

  00065	8b e5		 mov	 esp, ebp
  00067	5d		 pop	 ebp
  00068	c2 08 00	 ret	 8
??$_Erase_tree@V?$allocator@U?$_Tree_node@V?$basic_string@DU?$char_traits@D@std@@V?$allocator@D@2@@std@@PAX@std@@@std@@@?$_Tree_val@U?$_Tree_simple_types@V?$basic_string@DU?$char_traits@D@std@@V?$allocator@D@2@@std@@@std@@@std@@QAEXAAV?$allocator@U?$_Tree_node@V?$basic_string@DU?$char_traits@D@std@@V?$allocator@D@2@@std@@PAX@std@@@1@PAU?$_Tree_node@V?$basic_string@DU?$char_traits@D@std@@V?$allocator@D@2@@std@@PAX@1@@Z ENDP ; std::_Tree_val<std::_Tree_simple_types<std::basic_string<char,std::char_traits<char>,std::allocator<char> > > >::_Erase_tree<std::allocator<std::_Tree_node<std::basic_string<char,std::char_traits<char>,std::allocator<char> >,void *> > >
_TEXT	ENDS
; Function compile flags: /Ogtp
; File D:\Metin2 Server Files\mainline\SRC_2014\Metin2Client\UserInterface\PythonSystemModule.cpp
;	COMDAT ?systemSetShadowLevel@@YAPAU_object@@PAU1@0@Z
_TEXT	SEGMENT
_level$ = -4						; size = 4
_poSelf$ = 8						; size = 4
_poArgs$ = 12						; size = 4
?systemSetShadowLevel@@YAPAU_object@@PAU1@0@Z PROC	; systemSetShadowLevel, COMDAT

; 363  : {

  00000	55		 push	 ebp
  00001	8b ec		 mov	 ebp, esp
  00003	51		 push	 ecx

; 364  : 	int level;
; 365  : 
; 366  : 	if (!PyTuple_GetInteger(poArgs, 0, &level))

  00004	8d 45 fc	 lea	 eax, DWORD PTR _level$[ebp]
  00007	50		 push	 eax
  00008	6a 00		 push	 0
  0000a	ff 75 0c	 push	 DWORD PTR _poArgs$[ebp]
  0000d	e8 00 00 00 00	 call	 ?PyTuple_GetInteger@@YA_NPAU_object@@HPAH@Z ; PyTuple_GetInteger
  00012	83 c4 0c	 add	 esp, 12			; 0000000cH
  00015	84 c0		 test	 al, al
  00017	75 0e		 jne	 SHORT $LN2@systemSetS

; 367  : 		return Py_BuildException();

  00019	6a 00		 push	 0
  0001b	e8 00 00 00 00	 call	 ?Py_BuildException@@YAPAU_object@@PBDZZ ; Py_BuildException
  00020	83 c4 04	 add	 esp, 4

; 373  : }

  00023	8b e5		 mov	 esp, ebp
  00025	5d		 pop	 ebp
  00026	c3		 ret	 0
$LN2@systemSetS:

; 368  : 
; 369  : 	if (level > 0)

  00027	8b 45 fc	 mov	 eax, DWORD PTR _level$[ebp]
  0002a	85 c0		 test	 eax, eax
  0002c	7e 0c		 jle	 SHORT $LN3@systemSetS

; 370  : 		CPythonSystem::Instance().SetShadowLevel(level);

  0002e	8b 0d 00 00 00
	00		 mov	 ecx, DWORD PTR ?ms_singleton@?$CSingleton@VCPythonSystem@@@@0PAVCPythonSystem@@A ; CSingleton<CPythonSystem>::ms_singleton
  00034	50		 push	 eax
  00035	e8 00 00 00 00	 call	 ?SetShadowLevel@CPythonSystem@@QAEXI@Z ; CPythonSystem::SetShadowLevel
$LN3@systemSetS:

; 371  : 
; 372  : 	return Py_BuildNone();

  0003a	e8 00 00 00 00	 call	 ?Py_BuildNone@@YAPAU_object@@XZ ; Py_BuildNone

; 373  : }

  0003f	8b e5		 mov	 esp, ebp
  00041	5d		 pop	 ebp
  00042	c3		 ret	 0
?systemSetShadowLevel@@YAPAU_object@@PAU1@0@Z ENDP	; systemSetShadowLevel
_TEXT	ENDS
; Function compile flags: /Ogtp
; File D:\Metin2 Server Files\mainline\SRC_2014\Metin2Client\UserInterface\PythonSystemModule.cpp
;	COMDAT ?systemGetShadowLevel@@YAPAU_object@@PAU1@0@Z
_TEXT	SEGMENT
_poSelf$ = 8						; size = 4
_poArgs$ = 12						; size = 4
?systemGetShadowLevel@@YAPAU_object@@PAU1@0@Z PROC	; systemGetShadowLevel, COMDAT

; 359  : 	return Py_BuildValue("i", CPythonSystem::Instance().GetShadowLevel());

  00000	8b 0d 00 00 00
	00		 mov	 ecx, DWORD PTR ?ms_singleton@?$CSingleton@VCPythonSystem@@@@0PAVCPythonSystem@@A ; CSingleton<CPythonSystem>::ms_singleton
  00006	e8 00 00 00 00	 call	 ?GetShadowLevel@CPythonSystem@@QAEHXZ ; CPythonSystem::GetShadowLevel
  0000b	50		 push	 eax
  0000c	68 00 00 00 00	 push	 OFFSET ??_C@_01KBJDNOO@i@
  00011	ff 15 00 00 00
	00		 call	 DWORD PTR __imp__Py_BuildValue
  00017	83 c4 08	 add	 esp, 8

; 360  : }

  0001a	c3		 ret	 0
?systemGetShadowLevel@@YAPAU_object@@PAU1@0@Z ENDP	; systemGetShadowLevel
_TEXT	ENDS
; Function compile flags: /Ogtp
; File D:\Metin2 Server Files\mainline\SRC_2014\Metin2Client\UserInterface\PythonSystemModule.cpp
;	COMDAT ?systemGetFrequency@@YAPAU_object@@PAU1@0@Z
_TEXT	SEGMENT
_index$ = -12						; size = 4
_frequency_index$ = -8					; size = 4
_frequency$ = -4					; size = 4
_poSelf$ = 8						; size = 4
_poArgs$ = 12						; size = 4
?systemGetFrequency@@YAPAU_object@@PAU1@0@Z PROC	; systemGetFrequency, COMDAT

; 343  : {

  00000	55		 push	 ebp
  00001	8b ec		 mov	 ebp, esp
  00003	83 ec 0c	 sub	 esp, 12			; 0000000cH

; 344  : 	int	index, frequency_index;
; 345  : 	DWORD frequency = 0;
; 346  : 
; 347  : 	if (!PyTuple_GetInteger(poArgs, 0, &index))

  00006	8d 45 f4	 lea	 eax, DWORD PTR _index$[ebp]
  00009	c7 45 fc 00 00
	00 00		 mov	 DWORD PTR _frequency$[ebp], 0
  00010	50		 push	 eax
  00011	6a 00		 push	 0
  00013	ff 75 0c	 push	 DWORD PTR _poArgs$[ebp]
  00016	e8 00 00 00 00	 call	 ?PyTuple_GetInteger@@YA_NPAU_object@@HPAH@Z ; PyTuple_GetInteger
  0001b	83 c4 0c	 add	 esp, 12			; 0000000cH
  0001e	84 c0		 test	 al, al
  00020	75 0e		 jne	 SHORT $LN2@systemGetF
$LN5@systemGetF:

; 355  : }

  00022	6a 00		 push	 0
  00024	e8 00 00 00 00	 call	 ?Py_BuildException@@YAPAU_object@@PBDZZ ; Py_BuildException
  00029	83 c4 04	 add	 esp, 4
  0002c	8b e5		 mov	 esp, ebp
  0002e	5d		 pop	 ebp
  0002f	c3		 ret	 0
$LN2@systemGetF:

; 348  : 		return Py_BuildException();
; 349  : 
; 350  : 	if (!PyTuple_GetInteger(poArgs, 1, &frequency_index))

  00030	8d 45 f8	 lea	 eax, DWORD PTR _frequency_index$[ebp]
  00033	50		 push	 eax
  00034	6a 01		 push	 1
  00036	ff 75 0c	 push	 DWORD PTR _poArgs$[ebp]
  00039	e8 00 00 00 00	 call	 ?PyTuple_GetInteger@@YA_NPAU_object@@HPAH@Z ; PyTuple_GetInteger
  0003e	83 c4 0c	 add	 esp, 12			; 0000000cH
  00041	84 c0		 test	 al, al
  00043	74 dd		 je	 SHORT $LN5@systemGetF

; 351  : 		return Py_BuildException();
; 352  : 
; 353  : 	CPythonSystem::Instance().GetFrequency(index, frequency_index, &frequency);

  00045	8b 0d 00 00 00
	00		 mov	 ecx, DWORD PTR ?ms_singleton@?$CSingleton@VCPythonSystem@@@@0PAVCPythonSystem@@A ; CSingleton<CPythonSystem>::ms_singleton
  0004b	8d 45 fc	 lea	 eax, DWORD PTR _frequency$[ebp]
  0004e	50		 push	 eax
  0004f	ff 75 f8	 push	 DWORD PTR _frequency_index$[ebp]
  00052	ff 75 f4	 push	 DWORD PTR _index$[ebp]
  00055	e8 00 00 00 00	 call	 ?GetFrequency@CPythonSystem@@QAE_NHHPAK@Z ; CPythonSystem::GetFrequency

; 354  : 	return Py_BuildValue("i", frequency);

  0005a	ff 75 fc	 push	 DWORD PTR _frequency$[ebp]
  0005d	68 00 00 00 00	 push	 OFFSET ??_C@_01KBJDNOO@i@
  00062	ff 15 00 00 00
	00		 call	 DWORD PTR __imp__Py_BuildValue
  00068	83 c4 08	 add	 esp, 8

; 355  : }

  0006b	8b e5		 mov	 esp, ebp
  0006d	5d		 pop	 ebp
  0006e	c3		 ret	 0
?systemGetFrequency@@YAPAU_object@@PAU1@0@Z ENDP	; systemGetFrequency
_TEXT	ENDS
; Function compile flags: /Ogtp
; File D:\Metin2 Server Files\mainline\SRC_2014\Metin2Client\UserInterface\PythonSystemModule.cpp
;	COMDAT ?systemGetCurrentResolution@@YAPAU_object@@PAU1@0@Z
_TEXT	SEGMENT
_poSelf$ = 8						; size = 4
_poArgs$ = 12						; size = 4
?systemGetCurrentResolution@@YAPAU_object@@PAU1@0@Z PROC ; systemGetCurrentResolution, COMDAT

; 338  : 	CPythonSystem::TConfig *tmp = CPythonSystem::Instance().GetConfig();

  00000	8b 0d 00 00 00
	00		 mov	 ecx, DWORD PTR ?ms_singleton@?$CSingleton@VCPythonSystem@@@@0PAVCPythonSystem@@A ; CSingleton<CPythonSystem>::ms_singleton
  00006	e8 00 00 00 00	 call	 ?GetConfig@CPythonSystem@@QAEPAUSConfig@1@XZ ; CPythonSystem::GetConfig

; 339  : 	return Py_BuildValue("iii", tmp->width, tmp->height, tmp->bpp);

  0000b	ff 70 08	 push	 DWORD PTR [eax+8]
  0000e	ff 70 04	 push	 DWORD PTR [eax+4]
  00011	ff 30		 push	 DWORD PTR [eax]
  00013	68 00 00 00 00	 push	 OFFSET ??_C@_03GLKMLICL@iii@
  00018	ff 15 00 00 00
	00		 call	 DWORD PTR __imp__Py_BuildValue
  0001e	83 c4 10	 add	 esp, 16			; 00000010H

; 340  : }

  00021	c3		 ret	 0
?systemGetCurrentResolution@@YAPAU_object@@PAU1@0@Z ENDP ; systemGetCurrentResolution
_TEXT	ENDS
; Function compile flags: /Ogtp
; File D:\Metin2 Server Files\mainline\SRC_2014\Metin2Client\UserInterface\PythonSystemModule.cpp
;	COMDAT ?systemGetResolution@@YAPAU_object@@PAU1@0@Z
_TEXT	SEGMENT
_index$ = -16						; size = 4
_width$ = -12						; size = 4
_height$ = -8						; size = 4
_bpp$ = -4						; size = 4
_poSelf$ = 8						; size = 4
_poArgs$ = 12						; size = 4
?systemGetResolution@@YAPAU_object@@PAU1@0@Z PROC	; systemGetResolution, COMDAT

; 325  : {

  00000	55		 push	 ebp
  00001	8b ec		 mov	 ebp, esp
  00003	83 ec 10	 sub	 esp, 16			; 00000010H

; 326  : 	int	index;
; 327  : 	DWORD width = 0, height = 0, bpp = 0;
; 328  : 
; 329  : 	if (!PyTuple_GetInteger(poArgs, 0, &index))

  00006	8d 45 f0	 lea	 eax, DWORD PTR _index$[ebp]
  00009	c7 45 f4 00 00
	00 00		 mov	 DWORD PTR _width$[ebp], 0
  00010	50		 push	 eax
  00011	6a 00		 push	 0
  00013	ff 75 0c	 push	 DWORD PTR _poArgs$[ebp]
  00016	c7 45 f8 00 00
	00 00		 mov	 DWORD PTR _height$[ebp], 0
  0001d	c7 45 fc 00 00
	00 00		 mov	 DWORD PTR _bpp$[ebp], 0
  00024	e8 00 00 00 00	 call	 ?PyTuple_GetInteger@@YA_NPAU_object@@HPAH@Z ; PyTuple_GetInteger
  00029	83 c4 0c	 add	 esp, 12			; 0000000cH
  0002c	84 c0		 test	 al, al
  0002e	75 0e		 jne	 SHORT $LN2@systemGetR

; 330  : 		return Py_BuildException();

  00030	6a 00		 push	 0
  00032	e8 00 00 00 00	 call	 ?Py_BuildException@@YAPAU_object@@PBDZZ ; Py_BuildException
  00037	83 c4 04	 add	 esp, 4

; 334  : }

  0003a	8b e5		 mov	 esp, ebp
  0003c	5d		 pop	 ebp
  0003d	c3		 ret	 0
$LN2@systemGetR:

; 331  : 
; 332  : 	CPythonSystem::Instance().GetResolution(index, &width, &height, &bpp);

  0003e	8b 0d 00 00 00
	00		 mov	 ecx, DWORD PTR ?ms_singleton@?$CSingleton@VCPythonSystem@@@@0PAVCPythonSystem@@A ; CSingleton<CPythonSystem>::ms_singleton
  00044	8d 45 fc	 lea	 eax, DWORD PTR _bpp$[ebp]
  00047	50		 push	 eax
  00048	8d 45 f8	 lea	 eax, DWORD PTR _height$[ebp]
  0004b	50		 push	 eax
  0004c	8d 45 f4	 lea	 eax, DWORD PTR _width$[ebp]
  0004f	50		 push	 eax
  00050	ff 75 f0	 push	 DWORD PTR _index$[ebp]
  00053	e8 00 00 00 00	 call	 ?GetResolution@CPythonSystem@@QAE_NHPAK00@Z ; CPythonSystem::GetResolution

; 333  : 	return Py_BuildValue("iii", width, height, bpp);

  00058	ff 75 fc	 push	 DWORD PTR _bpp$[ebp]
  0005b	ff 75 f8	 push	 DWORD PTR _height$[ebp]
  0005e	ff 75 f4	 push	 DWORD PTR _width$[ebp]
  00061	68 00 00 00 00	 push	 OFFSET ??_C@_03GLKMLICL@iii@
  00066	ff 15 00 00 00
	00		 call	 DWORD PTR __imp__Py_BuildValue
  0006c	83 c4 10	 add	 esp, 16			; 00000010H

; 334  : }

  0006f	8b e5		 mov	 esp, ebp
  00071	5d		 pop	 ebp
  00072	c3		 ret	 0
?systemGetResolution@@YAPAU_object@@PAU1@0@Z ENDP	; systemGetResolution
_TEXT	ENDS
; Function compile flags: /Ogtp
; File D:\Metin2 Server Files\mainline\SRC_2014\Metin2Client\UserInterface\PythonSystemModule.cpp
;	COMDAT ?systemGetFrequencyCount@@YAPAU_object@@PAU1@0@Z
_TEXT	SEGMENT
_index$ = -4						; size = 4
_poSelf$ = 8						; size = 4
_poArgs$ = 12						; size = 4
?systemGetFrequencyCount@@YAPAU_object@@PAU1@0@Z PROC	; systemGetFrequencyCount, COMDAT

; 315  : {

  00000	55		 push	 ebp
  00001	8b ec		 mov	 ebp, esp
  00003	51		 push	 ecx

; 316  : 	int	index;
; 317  : 
; 318  : 	if (!PyTuple_GetInteger(poArgs, 0, &index))

  00004	8d 45 fc	 lea	 eax, DWORD PTR _index$[ebp]
  00007	50		 push	 eax
  00008	6a 00		 push	 0
  0000a	ff 75 0c	 push	 DWORD PTR _poArgs$[ebp]
  0000d	e8 00 00 00 00	 call	 ?PyTuple_GetInteger@@YA_NPAU_object@@HPAH@Z ; PyTuple_GetInteger
  00012	83 c4 0c	 add	 esp, 12			; 0000000cH
  00015	84 c0		 test	 al, al
  00017	75 0e		 jne	 SHORT $LN2@systemGetF

; 319  : 		return Py_BuildException();

  00019	6a 00		 push	 0
  0001b	e8 00 00 00 00	 call	 ?Py_BuildException@@YAPAU_object@@PBDZZ ; Py_BuildException
  00020	83 c4 04	 add	 esp, 4

; 322  : }

  00023	8b e5		 mov	 esp, ebp
  00025	5d		 pop	 ebp
  00026	c3		 ret	 0
$LN2@systemGetF:

; 320  : 
; 321  : 	return Py_BuildValue("i", CPythonSystem::Instance().GetFrequencyCount(index));

  00027	ff 75 fc	 push	 DWORD PTR _index$[ebp]
  0002a	8b 0d 00 00 00
	00		 mov	 ecx, DWORD PTR ?ms_singleton@?$CSingleton@VCPythonSystem@@@@0PAVCPythonSystem@@A ; CSingleton<CPythonSystem>::ms_singleton
  00030	e8 00 00 00 00	 call	 ?GetFrequencyCount@CPythonSystem@@QAEHH@Z ; CPythonSystem::GetFrequencyCount
  00035	50		 push	 eax
  00036	68 00 00 00 00	 push	 OFFSET ??_C@_01KBJDNOO@i@
  0003b	ff 15 00 00 00
	00		 call	 DWORD PTR __imp__Py_BuildValue
  00041	83 c4 08	 add	 esp, 8

; 322  : }

  00044	8b e5		 mov	 esp, ebp
  00046	5d		 pop	 ebp
  00047	c3		 ret	 0
?systemGetFrequencyCount@@YAPAU_object@@PAU1@0@Z ENDP	; systemGetFrequencyCount
_TEXT	ENDS
; Function compile flags: /Ogtp
; File D:\Metin2 Server Files\mainline\SRC_2014\Metin2Client\UserInterface\PythonSystemModule.cpp
;	COMDAT ?systemGetResolutionCount@@YAPAU_object@@PAU1@0@Z
_TEXT	SEGMENT
_poSelf$ = 8						; size = 4
_poArgs$ = 12						; size = 4
?systemGetResolutionCount@@YAPAU_object@@PAU1@0@Z PROC	; systemGetResolutionCount, COMDAT

; 311  : 	return Py_BuildValue("i", CPythonSystem::Instance().GetResolutionCount());

  00000	8b 0d 00 00 00
	00		 mov	 ecx, DWORD PTR ?ms_singleton@?$CSingleton@VCPythonSystem@@@@0PAVCPythonSystem@@A ; CSingleton<CPythonSystem>::ms_singleton
  00006	e8 00 00 00 00	 call	 ?GetResolutionCount@CPythonSystem@@QAEHXZ ; CPythonSystem::GetResolutionCount
  0000b	50		 push	 eax
  0000c	68 00 00 00 00	 push	 OFFSET ??_C@_01KBJDNOO@i@
  00011	ff 15 00 00 00
	00		 call	 DWORD PTR __imp__Py_BuildValue
  00017	83 c4 08	 add	 esp, 8

; 312  : }

  0001a	c3		 ret	 0
?systemGetResolutionCount@@YAPAU_object@@PAU1@0@Z ENDP	; systemGetResolutionCount
_TEXT	ENDS
; Function compile flags: /Ogtp
; File D:\Metin2 Server Files\mainline\SRC_2014\Metin2Client\UserInterface\PythonSystemModule.cpp
;	COMDAT ?systemSaveConfig@@YAPAU_object@@PAU1@0@Z
_TEXT	SEGMENT
_poSelf$ = 8						; size = 4
_poArgs$ = 12						; size = 4
?systemSaveConfig@@YAPAU_object@@PAU1@0@Z PROC		; systemSaveConfig, COMDAT

; 305  : 	int ret = CPythonSystem::Instance().SaveConfig();

  00000	8b 0d 00 00 00
	00		 mov	 ecx, DWORD PTR ?ms_singleton@?$CSingleton@VCPythonSystem@@@@0PAVCPythonSystem@@A ; CSingleton<CPythonSystem>::ms_singleton
  00006	e8 00 00 00 00	 call	 ?SaveConfig@CPythonSystem@@QAE_NXZ ; CPythonSystem::SaveConfig
  0000b	0f b6 c0	 movzx	 eax, al

; 306  : 	return Py_BuildValue("i", ret);

  0000e	50		 push	 eax
  0000f	68 00 00 00 00	 push	 OFFSET ??_C@_01KBJDNOO@i@
  00014	ff 15 00 00 00
	00		 call	 DWORD PTR __imp__Py_BuildValue
  0001a	83 c4 08	 add	 esp, 8

; 307  : }

  0001d	c3		 ret	 0
?systemSaveConfig@@YAPAU_object@@PAU1@0@Z ENDP		; systemSaveConfig
_TEXT	ENDS
; Function compile flags: /Ogtp
; File D:\Metin2 Server Files\mainline\SRC_2014\Metin2Client\UserInterface\PythonSystemModule.cpp
;	COMDAT ?systemApplyConfig@@YAPAU_object@@PAU1@0@Z
_TEXT	SEGMENT
_poSelf$ = 8						; size = 4
_poArgs$ = 12						; size = 4
?systemApplyConfig@@YAPAU_object@@PAU1@0@Z PROC		; systemApplyConfig, COMDAT

; 299  : 	CPythonSystem::Instance().ApplyConfig();

  00000	8b 0d 00 00 00
	00		 mov	 ecx, DWORD PTR ?ms_singleton@?$CSingleton@VCPythonSystem@@@@0PAVCPythonSystem@@A ; CSingleton<CPythonSystem>::ms_singleton
  00006	e8 00 00 00 00	 call	 ?ApplyConfig@CPythonSystem@@QAEXXZ ; CPythonSystem::ApplyConfig

; 300  : 	return Py_BuildNone();

  0000b	e9 00 00 00 00	 jmp	 ?Py_BuildNone@@YAPAU_object@@XZ ; Py_BuildNone
?systemApplyConfig@@YAPAU_object@@PAU1@0@Z ENDP		; systemApplyConfig
_TEXT	ENDS
; Function compile flags: /Ogtp
; File D:\Metin2 Server Files\mainline\SRC_2014\Metin2Client\UserInterface\PythonSystemModule.cpp
;	COMDAT ?systemSetConfig@@YAPAU_object@@PAU1@0@Z
_TEXT	SEGMENT
_shadow$ = -132						; size = 4
_distance$ = -128					; size = 4
_gamma$ = -124						; size = 4
_voice_volume$ = -120					; size = 4
_music_volume$ = -116					; size = 4
_object_culling$ = -112					; size = 4
_software_cursor$ = -108				; size = 4
_frequency$ = -104					; size = 4
_bpp$ = -100						; size = 4
_height$ = -96						; size = 4
_width$ = -92						; size = 4
_frequency_index$ = -88					; size = 4
_res_index$ = -84					; size = 4
_tmp$ = -80						; size = 76
__$ArrayPad$ = -4					; size = 4
_poSelf$ = 8						; size = 4
_poArgs$ = 12						; size = 4
?systemSetConfig@@YAPAU_object@@PAU1@0@Z PROC		; systemSetConfig, COMDAT

; 230  : {

  00000	55		 push	 ebp
  00001	8b ec		 mov	 ebp, esp
  00003	81 ec 84 00 00
	00		 sub	 esp, 132		; 00000084H
  00009	a1 00 00 00 00	 mov	 eax, DWORD PTR ___security_cookie
  0000e	33 c5		 xor	 eax, ebp
  00010	89 45 fc	 mov	 DWORD PTR __$ArrayPad$[ebp], eax
  00013	56		 push	 esi
  00014	8b 75 0c	 mov	 esi, DWORD PTR _poArgs$[ebp]

; 231  : 	int res_index;
; 232  : 	int width;
; 233  : 	int height;
; 234  : 	int bpp;
; 235  : 	int frequency_index;
; 236  : 	int frequency;
; 237  : 	int software_cursor;
; 238  : 	int shadow;
; 239  : 	int object_culling;
; 240  : 	int music_volume;
; 241  : 	int voice_volume;
; 242  : 	int gamma;
; 243  : 	int distance;
; 244  : 
; 245  : 	if (!PyTuple_GetInteger(poArgs, 0, &res_index))

  00017	8d 45 ac	 lea	 eax, DWORD PTR _res_index$[ebp]
  0001a	50		 push	 eax
  0001b	6a 00		 push	 0
  0001d	56		 push	 esi
  0001e	e8 00 00 00 00	 call	 ?PyTuple_GetInteger@@YA_NPAU_object@@HPAH@Z ; PyTuple_GetInteger
  00023	83 c4 0c	 add	 esp, 12			; 0000000cH
  00026	84 c0		 test	 al, al
  00028	75 19		 jne	 SHORT $LN2@systemSetC
$LN15@systemSetC:

; 294  : 	return Py_BuildNone();
; 295  : }

  0002a	6a 00		 push	 0
  0002c	e8 00 00 00 00	 call	 ?Py_BuildException@@YAPAU_object@@PBDZZ ; Py_BuildException
  00031	83 c4 04	 add	 esp, 4
  00034	5e		 pop	 esi
  00035	8b 4d fc	 mov	 ecx, DWORD PTR __$ArrayPad$[ebp]
  00038	33 cd		 xor	 ecx, ebp
  0003a	e8 00 00 00 00	 call	 @__security_check_cookie@4
  0003f	8b e5		 mov	 esp, ebp
  00041	5d		 pop	 ebp
  00042	c3		 ret	 0
$LN2@systemSetC:

; 246  : 		return Py_BuildException();
; 247  : 
; 248  : 	if (!PyTuple_GetInteger(poArgs, 1, &frequency_index))

  00043	8d 45 a8	 lea	 eax, DWORD PTR _frequency_index$[ebp]
  00046	50		 push	 eax
  00047	6a 01		 push	 1
  00049	56		 push	 esi
  0004a	e8 00 00 00 00	 call	 ?PyTuple_GetInteger@@YA_NPAU_object@@HPAH@Z ; PyTuple_GetInteger
  0004f	83 c4 0c	 add	 esp, 12			; 0000000cH
  00052	84 c0		 test	 al, al
  00054	74 d4		 je	 SHORT $LN15@systemSetC

; 249  : 		return Py_BuildException();
; 250  : 
; 251  : 	if (!PyTuple_GetInteger(poArgs, 2, &software_cursor))

  00056	8d 45 94	 lea	 eax, DWORD PTR _software_cursor$[ebp]
  00059	50		 push	 eax
  0005a	6a 02		 push	 2
  0005c	56		 push	 esi
  0005d	e8 00 00 00 00	 call	 ?PyTuple_GetInteger@@YA_NPAU_object@@HPAH@Z ; PyTuple_GetInteger
  00062	83 c4 0c	 add	 esp, 12			; 0000000cH
  00065	84 c0		 test	 al, al
  00067	74 c1		 je	 SHORT $LN15@systemSetC

; 252  : 		return Py_BuildException();
; 253  : 
; 254  : 	if (!PyTuple_GetInteger(poArgs, 3, &shadow))

  00069	8d 85 7c ff ff
	ff		 lea	 eax, DWORD PTR _shadow$[ebp]
  0006f	50		 push	 eax
  00070	6a 03		 push	 3
  00072	56		 push	 esi
  00073	e8 00 00 00 00	 call	 ?PyTuple_GetInteger@@YA_NPAU_object@@HPAH@Z ; PyTuple_GetInteger
  00078	83 c4 0c	 add	 esp, 12			; 0000000cH
  0007b	84 c0		 test	 al, al
  0007d	74 ab		 je	 SHORT $LN15@systemSetC

; 255  : 		return Py_BuildException();
; 256  : 
; 257  : 	if (!PyTuple_GetInteger(poArgs, 4, &object_culling))

  0007f	8d 45 90	 lea	 eax, DWORD PTR _object_culling$[ebp]
  00082	50		 push	 eax
  00083	6a 04		 push	 4
  00085	56		 push	 esi
  00086	e8 00 00 00 00	 call	 ?PyTuple_GetInteger@@YA_NPAU_object@@HPAH@Z ; PyTuple_GetInteger
  0008b	83 c4 0c	 add	 esp, 12			; 0000000cH
  0008e	84 c0		 test	 al, al
  00090	74 98		 je	 SHORT $LN15@systemSetC

; 258  : 		return Py_BuildException();
; 259  : 
; 260  : 	if (!PyTuple_GetInteger(poArgs, 5, &music_volume))

  00092	8d 45 8c	 lea	 eax, DWORD PTR _music_volume$[ebp]
  00095	50		 push	 eax
  00096	6a 05		 push	 5
  00098	56		 push	 esi
  00099	e8 00 00 00 00	 call	 ?PyTuple_GetInteger@@YA_NPAU_object@@HPAH@Z ; PyTuple_GetInteger
  0009e	83 c4 0c	 add	 esp, 12			; 0000000cH
  000a1	84 c0		 test	 al, al
  000a3	74 85		 je	 SHORT $LN15@systemSetC

; 261  : 		return Py_BuildException();
; 262  : 
; 263  : 	if (!PyTuple_GetInteger(poArgs, 6, &voice_volume))

  000a5	8d 45 88	 lea	 eax, DWORD PTR _voice_volume$[ebp]
  000a8	50		 push	 eax
  000a9	6a 06		 push	 6
  000ab	56		 push	 esi
  000ac	e8 00 00 00 00	 call	 ?PyTuple_GetInteger@@YA_NPAU_object@@HPAH@Z ; PyTuple_GetInteger
  000b1	83 c4 0c	 add	 esp, 12			; 0000000cH
  000b4	84 c0		 test	 al, al
  000b6	0f 84 6e ff ff
	ff		 je	 $LN15@systemSetC

; 264  : 		return Py_BuildException();
; 265  : 
; 266  : 	if (!PyTuple_GetInteger(poArgs, 7, &gamma))

  000bc	8d 45 84	 lea	 eax, DWORD PTR _gamma$[ebp]
  000bf	50		 push	 eax
  000c0	6a 07		 push	 7
  000c2	56		 push	 esi
  000c3	e8 00 00 00 00	 call	 ?PyTuple_GetInteger@@YA_NPAU_object@@HPAH@Z ; PyTuple_GetInteger
  000c8	83 c4 0c	 add	 esp, 12			; 0000000cH
  000cb	84 c0		 test	 al, al
  000cd	0f 84 57 ff ff
	ff		 je	 $LN15@systemSetC

; 267  : 		return Py_BuildException();
; 268  : 
; 269  : 	if (!PyTuple_GetInteger(poArgs, 8, &distance))

  000d3	8d 45 80	 lea	 eax, DWORD PTR _distance$[ebp]
  000d6	50		 push	 eax
  000d7	6a 08		 push	 8
  000d9	56		 push	 esi
  000da	e8 00 00 00 00	 call	 ?PyTuple_GetInteger@@YA_NPAU_object@@HPAH@Z ; PyTuple_GetInteger
  000df	83 c4 0c	 add	 esp, 12			; 0000000cH
  000e2	84 c0		 test	 al, al
  000e4	0f 84 40 ff ff
	ff		 je	 $LN15@systemSetC

; 270  : 		return Py_BuildException();
; 271  : 
; 272  : 	if (!CPythonSystem::Instance().GetResolution(res_index, (DWORD *) &width, (DWORD *) &height, (DWORD *) &bpp))

  000ea	8b 0d 00 00 00
	00		 mov	 ecx, DWORD PTR ?ms_singleton@?$CSingleton@VCPythonSystem@@@@0PAVCPythonSystem@@A ; CSingleton<CPythonSystem>::ms_singleton
  000f0	8d 45 9c	 lea	 eax, DWORD PTR _bpp$[ebp]
  000f3	50		 push	 eax
  000f4	8d 45 a0	 lea	 eax, DWORD PTR _height$[ebp]
  000f7	50		 push	 eax
  000f8	8d 45 a4	 lea	 eax, DWORD PTR _width$[ebp]
  000fb	50		 push	 eax
  000fc	ff 75 ac	 push	 DWORD PTR _res_index$[ebp]
  000ff	e8 00 00 00 00	 call	 ?GetResolution@CPythonSystem@@QAE_NHPAK00@Z ; CPythonSystem::GetResolution
  00104	84 c0		 test	 al, al
  00106	0f 84 b0 00 00
	00		 je	 $LN14@systemSetC

; 273  : 		return Py_BuildNone();
; 274  : 
; 275  : 	if (!CPythonSystem::Instance().GetFrequency(res_index,frequency_index, (DWORD *) &frequency))

  0010c	8b 0d 00 00 00
	00		 mov	 ecx, DWORD PTR ?ms_singleton@?$CSingleton@VCPythonSystem@@@@0PAVCPythonSystem@@A ; CSingleton<CPythonSystem>::ms_singleton
  00112	8d 45 98	 lea	 eax, DWORD PTR _frequency$[ebp]
  00115	50		 push	 eax
  00116	ff 75 a8	 push	 DWORD PTR _frequency_index$[ebp]
  00119	ff 75 ac	 push	 DWORD PTR _res_index$[ebp]
  0011c	e8 00 00 00 00	 call	 ?GetFrequency@CPythonSystem@@QAE_NHHPAK@Z ; CPythonSystem::GetFrequency
  00121	84 c0		 test	 al, al
  00123	0f 84 93 00 00
	00		 je	 $LN14@systemSetC

; 276  : 		return Py_BuildNone();
; 277  : 
; 278  : 	CPythonSystem::TConfig tmp;
; 279  : 
; 280  : 	memcpy(&tmp, CPythonSystem::Instance().GetConfig(), sizeof(tmp));

  00129	8b 0d 00 00 00
	00		 mov	 ecx, DWORD PTR ?ms_singleton@?$CSingleton@VCPythonSystem@@@@0PAVCPythonSystem@@A ; CSingleton<CPythonSystem>::ms_singleton
  0012f	e8 00 00 00 00	 call	 ?GetConfig@CPythonSystem@@QAEPAUSConfig@1@XZ ; CPythonSystem::GetConfig

; 281  : 
; 282  : 	tmp.width				= width;
; 283  : 	tmp.height				= height;
; 284  : 	tmp.bpp					= bpp;
; 285  : 	tmp.frequency			= frequency;
; 286  : 	tmp.is_software_cursor	= software_cursor ? true : false;

  00134	83 7d 94 00	 cmp	 DWORD PTR _software_cursor$[ebp], 0

; 287  : 	tmp.is_object_culling	= object_culling ? true : false;
; 288  : 	tmp.music_volume		= (char) music_volume;
; 289  : 	tmp.voice_volume		= (char) voice_volume;
; 290  : 	tmp.gamma				= gamma;
; 291  : 	tmp.iDistance			= distance;
; 292  : 
; 293  : 	CPythonSystem::Instance().SetConfig(&tmp);

  00138	8b 0d 00 00 00
	00		 mov	 ecx, DWORD PTR ?ms_singleton@?$CSingleton@VCPythonSystem@@@@0PAVCPythonSystem@@A ; CSingleton<CPythonSystem>::ms_singleton
  0013e	0f 10 00	 movups	 xmm0, XMMWORD PTR [eax]
  00141	0f 11 45 b0	 movups	 XMMWORD PTR _tmp$[ebp], xmm0
  00145	0f 10 40 10	 movups	 xmm0, XMMWORD PTR [eax+16]
  00149	0f 11 45 c0	 movups	 XMMWORD PTR _tmp$[ebp+16], xmm0
  0014d	0f 10 40 20	 movups	 xmm0, XMMWORD PTR [eax+32]
  00151	0f 11 45 d0	 movups	 XMMWORD PTR _tmp$[ebp+32], xmm0
  00155	0f 10 40 30	 movups	 xmm0, XMMWORD PTR [eax+48]
  00159	0f 11 45 e0	 movups	 XMMWORD PTR _tmp$[ebp+48], xmm0
  0015d	f3 0f 7e 40 40	 movq	 xmm0, QWORD PTR [eax+64]
  00162	66 0f d6 45 f0	 movq	 QWORD PTR _tmp$[ebp+64], xmm0
  00167	8b 40 48	 mov	 eax, DWORD PTR [eax+72]
  0016a	0f 95 45 c0	 setne	 BYTE PTR _tmp$[ebp+16]
  0016e	83 7d 90 00	 cmp	 DWORD PTR _object_culling$[ebp], 0
  00172	89 45 f8	 mov	 DWORD PTR _tmp$[ebp+72], eax
  00175	8b 45 a4	 mov	 eax, DWORD PTR _width$[ebp]
  00178	0f 95 45 c1	 setne	 BYTE PTR _tmp$[ebp+17]
  0017c	89 45 b0	 mov	 DWORD PTR _tmp$[ebp], eax
  0017f	8b 45 a0	 mov	 eax, DWORD PTR _height$[ebp]
  00182	89 45 b4	 mov	 DWORD PTR _tmp$[ebp+4], eax
  00185	8b 45 9c	 mov	 eax, DWORD PTR _bpp$[ebp]
  00188	89 45 b8	 mov	 DWORD PTR _tmp$[ebp+8], eax
  0018b	8b 45 98	 mov	 eax, DWORD PTR _frequency$[ebp]
  0018e	89 45 bc	 mov	 DWORD PTR _tmp$[ebp+12], eax
  00191	0f be 45 8c	 movsx	 eax, BYTE PTR _music_volume$[ebp]
  00195	66 0f 6e c0	 movd	 xmm0, eax
  00199	8a 45 88	 mov	 al, BYTE PTR _voice_volume$[ebp]
  0019c	88 45 d0	 mov	 BYTE PTR _tmp$[ebp+32], al
  0019f	8b 45 84	 mov	 eax, DWORD PTR _gamma$[ebp]
  001a2	0f 5b c0	 cvtdq2ps xmm0, xmm0
  001a5	89 45 d4	 mov	 DWORD PTR _tmp$[ebp+36], eax
  001a8	8b 45 80	 mov	 eax, DWORD PTR _distance$[ebp]
  001ab	89 45 c4	 mov	 DWORD PTR _tmp$[ebp+20], eax
  001ae	8d 45 b0	 lea	 eax, DWORD PTR _tmp$[ebp]
  001b1	50		 push	 eax
  001b2	f3 0f 11 45 cc	 movss	 DWORD PTR _tmp$[ebp+28], xmm0
  001b7	e8 00 00 00 00	 call	 ?SetConfig@CPythonSystem@@QAEXPAUSConfig@1@@Z ; CPythonSystem::SetConfig
$LN14@systemSetC:

; 294  : 	return Py_BuildNone();
; 295  : }

  001bc	e8 00 00 00 00	 call	 ?Py_BuildNone@@YAPAU_object@@XZ ; Py_BuildNone
  001c1	8b 4d fc	 mov	 ecx, DWORD PTR __$ArrayPad$[ebp]
  001c4	33 cd		 xor	 ecx, ebp
  001c6	5e		 pop	 esi
  001c7	e8 00 00 00 00	 call	 @__security_check_cookie@4
  001cc	8b e5		 mov	 esp, ebp
  001ce	5d		 pop	 ebp
  001cf	c3		 ret	 0
?systemSetConfig@@YAPAU_object@@PAU1@0@Z ENDP		; systemSetConfig
_TEXT	ENDS
; Function compile flags: /Ogtp
; File D:\Metin2 Server Files\mainline\SRC_2014\Metin2Client\UserInterface\PythonSystemModule.cpp
;	COMDAT ?systemIsShowSalesText@@YAPAU_object@@PAU1@0@Z
_TEXT	SEGMENT
_poSelf$ = 8						; size = 4
_poArgs$ = 12						; size = 4
?systemIsShowSalesText@@YAPAU_object@@PAU1@0@Z PROC	; systemIsShowSalesText, COMDAT

; 226  : 	return Py_BuildValue("i", CPythonSystem::Instance().IsShowSalesText());

  00000	8b 0d 00 00 00
	00		 mov	 ecx, DWORD PTR ?ms_singleton@?$CSingleton@VCPythonSystem@@@@0PAVCPythonSystem@@A ; CSingleton<CPythonSystem>::ms_singleton
  00006	e8 00 00 00 00	 call	 ?IsShowSalesText@CPythonSystem@@QAE_NXZ ; CPythonSystem::IsShowSalesText
  0000b	0f b6 c0	 movzx	 eax, al
  0000e	50		 push	 eax
  0000f	68 00 00 00 00	 push	 OFFSET ??_C@_01KBJDNOO@i@
  00014	ff 15 00 00 00
	00		 call	 DWORD PTR __imp__Py_BuildValue
  0001a	83 c4 08	 add	 esp, 8

; 227  : }

  0001d	c3		 ret	 0
?systemIsShowSalesText@@YAPAU_object@@PAU1@0@Z ENDP	; systemIsShowSalesText
_TEXT	ENDS
; Function compile flags: /Ogtp
; File D:\Metin2 Server Files\mainline\SRC_2014\Metin2Client\UserInterface\PythonSystemModule.cpp
;	COMDAT ?systemIsShowDamage@@YAPAU_object@@PAU1@0@Z
_TEXT	SEGMENT
_poSelf$ = 8						; size = 4
_poArgs$ = 12						; size = 4
?systemIsShowDamage@@YAPAU_object@@PAU1@0@Z PROC	; systemIsShowDamage, COMDAT

; 221  : 	return Py_BuildValue("i", CPythonSystem::Instance().IsShowDamage());

  00000	8b 0d 00 00 00
	00		 mov	 ecx, DWORD PTR ?ms_singleton@?$CSingleton@VCPythonSystem@@@@0PAVCPythonSystem@@A ; CSingleton<CPythonSystem>::ms_singleton
  00006	e8 00 00 00 00	 call	 ?IsShowDamage@CPythonSystem@@QAE_NXZ ; CPythonSystem::IsShowDamage
  0000b	0f b6 c0	 movzx	 eax, al
  0000e	50		 push	 eax
  0000f	68 00 00 00 00	 push	 OFFSET ??_C@_01KBJDNOO@i@
  00014	ff 15 00 00 00
	00		 call	 DWORD PTR __imp__Py_BuildValue
  0001a	83 c4 08	 add	 esp, 8

; 222  : }

  0001d	c3		 ret	 0
?systemIsShowDamage@@YAPAU_object@@PAU1@0@Z ENDP	; systemIsShowDamage
_TEXT	ENDS
; Function compile flags: /Ogtp
; File D:\Metin2 Server Files\mainline\SRC_2014\Metin2Client\UserInterface\PythonSystemModule.cpp
;	COMDAT ?systemIsAlwaysShowName@@YAPAU_object@@PAU1@0@Z
_TEXT	SEGMENT
_poSelf$ = 8						; size = 4
_poArgs$ = 12						; size = 4
?systemIsAlwaysShowName@@YAPAU_object@@PAU1@0@Z PROC	; systemIsAlwaysShowName, COMDAT

; 216  : 	return Py_BuildValue("i", CPythonSystem::Instance().IsAlwaysShowName());

  00000	8b 0d 00 00 00
	00		 mov	 ecx, DWORD PTR ?ms_singleton@?$CSingleton@VCPythonSystem@@@@0PAVCPythonSystem@@A ; CSingleton<CPythonSystem>::ms_singleton
  00006	e8 00 00 00 00	 call	 ?IsAlwaysShowName@CPythonSystem@@QAE_NXZ ; CPythonSystem::IsAlwaysShowName
  0000b	0f b6 c0	 movzx	 eax, al
  0000e	50		 push	 eax
  0000f	68 00 00 00 00	 push	 OFFSET ??_C@_01KBJDNOO@i@
  00014	ff 15 00 00 00
	00		 call	 DWORD PTR __imp__Py_BuildValue
  0001a	83 c4 08	 add	 esp, 8

; 217  : }

  0001d	c3		 ret	 0
?systemIsAlwaysShowName@@YAPAU_object@@PAU1@0@Z ENDP	; systemIsAlwaysShowName
_TEXT	ENDS
; Function compile flags: /Ogtp
; File D:\Metin2 Server Files\mainline\SRC_2014\Metin2Client\UserInterface\PythonSystemModule.cpp
;	COMDAT ?systemSetShowSalesTextFlag@@YAPAU_object@@PAU1@0@Z
_TEXT	SEGMENT
_iFlag$ = -4						; size = 4
_poSelf$ = 8						; size = 4
_poArgs$ = 12						; size = 4
?systemSetShowSalesTextFlag@@YAPAU_object@@PAU1@0@Z PROC ; systemSetShowSalesTextFlag, COMDAT

; 204  : {

  00000	55		 push	 ebp
  00001	8b ec		 mov	 ebp, esp
  00003	51		 push	 ecx

; 205  : 	int iFlag;
; 206  : 	if (!PyTuple_GetInteger(poArgs, 0, &iFlag))

  00004	8d 45 fc	 lea	 eax, DWORD PTR _iFlag$[ebp]
  00007	50		 push	 eax
  00008	6a 00		 push	 0
  0000a	ff 75 0c	 push	 DWORD PTR _poArgs$[ebp]
  0000d	e8 00 00 00 00	 call	 ?PyTuple_GetInteger@@YA_NPAU_object@@HPAH@Z ; PyTuple_GetInteger
  00012	83 c4 0c	 add	 esp, 12			; 0000000cH
  00015	84 c0		 test	 al, al
  00017	75 0e		 jne	 SHORT $LN2@systemSetS

; 207  : 		return Py_BuildException();

  00019	6a 00		 push	 0
  0001b	e8 00 00 00 00	 call	 ?Py_BuildException@@YAPAU_object@@PBDZZ ; Py_BuildException
  00020	83 c4 04	 add	 esp, 4

; 212  : }

  00023	8b e5		 mov	 esp, ebp
  00025	5d		 pop	 ebp
  00026	c3		 ret	 0
$LN2@systemSetS:

; 208  : 
; 209  : 	CPythonSystem::Instance().SetShowSalesTextFlag(iFlag);

  00027	ff 75 fc	 push	 DWORD PTR _iFlag$[ebp]
  0002a	8b 0d 00 00 00
	00		 mov	 ecx, DWORD PTR ?ms_singleton@?$CSingleton@VCPythonSystem@@@@0PAVCPythonSystem@@A ; CSingleton<CPythonSystem>::ms_singleton
  00030	e8 00 00 00 00	 call	 ?SetShowSalesTextFlag@CPythonSystem@@QAEXH@Z ; CPythonSystem::SetShowSalesTextFlag

; 210  : 
; 211  : 	return Py_BuildNone();

  00035	e8 00 00 00 00	 call	 ?Py_BuildNone@@YAPAU_object@@XZ ; Py_BuildNone

; 212  : }

  0003a	8b e5		 mov	 esp, ebp
  0003c	5d		 pop	 ebp
  0003d	c3		 ret	 0
?systemSetShowSalesTextFlag@@YAPAU_object@@PAU1@0@Z ENDP ; systemSetShowSalesTextFlag
_TEXT	ENDS
; Function compile flags: /Ogtp
; File D:\Metin2 Server Files\mainline\SRC_2014\Metin2Client\UserInterface\PythonSystemModule.cpp
;	COMDAT ?systemSetShowDamageFlag@@YAPAU_object@@PAU1@0@Z
_TEXT	SEGMENT
_iFlag$ = -4						; size = 4
_poSelf$ = 8						; size = 4
_poArgs$ = 12						; size = 4
?systemSetShowDamageFlag@@YAPAU_object@@PAU1@0@Z PROC	; systemSetShowDamageFlag, COMDAT

; 193  : {

  00000	55		 push	 ebp
  00001	8b ec		 mov	 ebp, esp
  00003	51		 push	 ecx

; 194  : 	int iFlag;
; 195  : 	if (!PyTuple_GetInteger(poArgs, 0, &iFlag))

  00004	8d 45 fc	 lea	 eax, DWORD PTR _iFlag$[ebp]
  00007	50		 push	 eax
  00008	6a 00		 push	 0
  0000a	ff 75 0c	 push	 DWORD PTR _poArgs$[ebp]
  0000d	e8 00 00 00 00	 call	 ?PyTuple_GetInteger@@YA_NPAU_object@@HPAH@Z ; PyTuple_GetInteger
  00012	83 c4 0c	 add	 esp, 12			; 0000000cH
  00015	84 c0		 test	 al, al
  00017	75 0e		 jne	 SHORT $LN2@systemSetS

; 196  : 		return Py_BuildException();

  00019	6a 00		 push	 0
  0001b	e8 00 00 00 00	 call	 ?Py_BuildException@@YAPAU_object@@PBDZZ ; Py_BuildException
  00020	83 c4 04	 add	 esp, 4

; 201  : }

  00023	8b e5		 mov	 esp, ebp
  00025	5d		 pop	 ebp
  00026	c3		 ret	 0
$LN2@systemSetS:

; 197  : 
; 198  : 	CPythonSystem::Instance().SetShowDamageFlag(iFlag);

  00027	ff 75 fc	 push	 DWORD PTR _iFlag$[ebp]
  0002a	8b 0d 00 00 00
	00		 mov	 ecx, DWORD PTR ?ms_singleton@?$CSingleton@VCPythonSystem@@@@0PAVCPythonSystem@@A ; CSingleton<CPythonSystem>::ms_singleton
  00030	e8 00 00 00 00	 call	 ?SetShowDamageFlag@CPythonSystem@@QAEXH@Z ; CPythonSystem::SetShowDamageFlag

; 199  : 
; 200  : 	return Py_BuildNone();

  00035	e8 00 00 00 00	 call	 ?Py_BuildNone@@YAPAU_object@@XZ ; Py_BuildNone

; 201  : }

  0003a	8b e5		 mov	 esp, ebp
  0003c	5d		 pop	 ebp
  0003d	c3		 ret	 0
?systemSetShowDamageFlag@@YAPAU_object@@PAU1@0@Z ENDP	; systemSetShowDamageFlag
_TEXT	ENDS
; Function compile flags: /Ogtp
; File D:\Metin2 Server Files\mainline\SRC_2014\Metin2Client\UserInterface\PythonSystemModule.cpp
;	COMDAT ?systemSetAlwaysShowNameFlag@@YAPAU_object@@PAU1@0@Z
_TEXT	SEGMENT
_iFlag$ = -4						; size = 4
_poSelf$ = 8						; size = 4
_poArgs$ = 12						; size = 4
?systemSetAlwaysShowNameFlag@@YAPAU_object@@PAU1@0@Z PROC ; systemSetAlwaysShowNameFlag, COMDAT

; 182  : {

  00000	55		 push	 ebp
  00001	8b ec		 mov	 ebp, esp
  00003	51		 push	 ecx

; 183  : 	int iFlag;
; 184  : 	if (!PyTuple_GetInteger(poArgs, 0, &iFlag))

  00004	8d 45 fc	 lea	 eax, DWORD PTR _iFlag$[ebp]
  00007	50		 push	 eax
  00008	6a 00		 push	 0
  0000a	ff 75 0c	 push	 DWORD PTR _poArgs$[ebp]
  0000d	e8 00 00 00 00	 call	 ?PyTuple_GetInteger@@YA_NPAU_object@@HPAH@Z ; PyTuple_GetInteger
  00012	83 c4 0c	 add	 esp, 12			; 0000000cH
  00015	84 c0		 test	 al, al
  00017	75 0e		 jne	 SHORT $LN2@systemSetA

; 185  : 		return Py_BuildException();

  00019	6a 00		 push	 0
  0001b	e8 00 00 00 00	 call	 ?Py_BuildException@@YAPAU_object@@PBDZZ ; Py_BuildException
  00020	83 c4 04	 add	 esp, 4

; 190  : }

  00023	8b e5		 mov	 esp, ebp
  00025	5d		 pop	 ebp
  00026	c3		 ret	 0
$LN2@systemSetA:

; 186  : 
; 187  : 	CPythonSystem::Instance().SetAlwaysShowNameFlag(iFlag);

  00027	ff 75 fc	 push	 DWORD PTR _iFlag$[ebp]
  0002a	8b 0d 00 00 00
	00		 mov	 ecx, DWORD PTR ?ms_singleton@?$CSingleton@VCPythonSystem@@@@0PAVCPythonSystem@@A ; CSingleton<CPythonSystem>::ms_singleton
  00030	e8 00 00 00 00	 call	 ?SetAlwaysShowNameFlag@CPythonSystem@@QAEXH@Z ; CPythonSystem::SetAlwaysShowNameFlag

; 188  : 
; 189  : 	return Py_BuildNone();

  00035	e8 00 00 00 00	 call	 ?Py_BuildNone@@YAPAU_object@@XZ ; Py_BuildNone

; 190  : }

  0003a	8b e5		 mov	 esp, ebp
  0003c	5d		 pop	 ebp
  0003d	c3		 ret	 0
?systemSetAlwaysShowNameFlag@@YAPAU_object@@PAU1@0@Z ENDP ; systemSetAlwaysShowNameFlag
_TEXT	ENDS
; Function compile flags: /Ogtp
; File D:\Metin2 Server Files\mainline\SRC_2014\Metin2Client\UserInterface\PythonSystemModule.cpp
;	COMDAT ?systemIsViewChat@@YAPAU_object@@PAU1@0@Z
_TEXT	SEGMENT
_poSelf$ = 8						; size = 4
_poArgs$ = 12						; size = 4
?systemIsViewChat@@YAPAU_object@@PAU1@0@Z PROC		; systemIsViewChat, COMDAT

; 178  : 	return Py_BuildValue("i", CPythonSystem::Instance().IsViewChat());

  00000	8b 0d 00 00 00
	00		 mov	 ecx, DWORD PTR ?ms_singleton@?$CSingleton@VCPythonSystem@@@@0PAVCPythonSystem@@A ; CSingleton<CPythonSystem>::ms_singleton
  00006	e8 00 00 00 00	 call	 ?IsViewChat@CPythonSystem@@QAE_NXZ ; CPythonSystem::IsViewChat
  0000b	0f b6 c0	 movzx	 eax, al
  0000e	50		 push	 eax
  0000f	68 00 00 00 00	 push	 OFFSET ??_C@_01KBJDNOO@i@
  00014	ff 15 00 00 00
	00		 call	 DWORD PTR __imp__Py_BuildValue
  0001a	83 c4 08	 add	 esp, 8

; 179  : }

  0001d	c3		 ret	 0
?systemIsViewChat@@YAPAU_object@@PAU1@0@Z ENDP		; systemIsViewChat
_TEXT	ENDS
; Function compile flags: /Ogtp
; File D:\Metin2 Server Files\mainline\SRC_2014\Metin2Client\UserInterface\PythonSystemModule.cpp
;	COMDAT ?systemSetViewChatFlag@@YAPAU_object@@PAU1@0@Z
_TEXT	SEGMENT
_iFlag$ = -4						; size = 4
_poSelf$ = 8						; size = 4
_poArgs$ = 12						; size = 4
?systemSetViewChatFlag@@YAPAU_object@@PAU1@0@Z PROC	; systemSetViewChatFlag, COMDAT

; 166  : {

  00000	55		 push	 ebp
  00001	8b ec		 mov	 ebp, esp
  00003	51		 push	 ecx

; 167  : 	int iFlag;
; 168  : 	if (!PyTuple_GetInteger(poArgs, 0, &iFlag))

  00004	8d 45 fc	 lea	 eax, DWORD PTR _iFlag$[ebp]
  00007	50		 push	 eax
  00008	6a 00		 push	 0
  0000a	ff 75 0c	 push	 DWORD PTR _poArgs$[ebp]
  0000d	e8 00 00 00 00	 call	 ?PyTuple_GetInteger@@YA_NPAU_object@@HPAH@Z ; PyTuple_GetInteger
  00012	83 c4 0c	 add	 esp, 12			; 0000000cH
  00015	84 c0		 test	 al, al
  00017	75 0e		 jne	 SHORT $LN2@systemSetV

; 169  : 		return Py_BuildException();

  00019	6a 00		 push	 0
  0001b	e8 00 00 00 00	 call	 ?Py_BuildException@@YAPAU_object@@PBDZZ ; Py_BuildException
  00020	83 c4 04	 add	 esp, 4

; 174  : }

  00023	8b e5		 mov	 esp, ebp
  00025	5d		 pop	 ebp
  00026	c3		 ret	 0
$LN2@systemSetV:

; 170  : 
; 171  : 	CPythonSystem::Instance().SetViewChatFlag(iFlag);

  00027	ff 75 fc	 push	 DWORD PTR _iFlag$[ebp]
  0002a	8b 0d 00 00 00
	00		 mov	 ecx, DWORD PTR ?ms_singleton@?$CSingleton@VCPythonSystem@@@@0PAVCPythonSystem@@A ; CSingleton<CPythonSystem>::ms_singleton
  00030	e8 00 00 00 00	 call	 ?SetViewChatFlag@CPythonSystem@@QAEXH@Z ; CPythonSystem::SetViewChatFlag

; 172  : 
; 173  : 	return Py_BuildNone();

  00035	e8 00 00 00 00	 call	 ?Py_BuildNone@@YAPAU_object@@XZ ; Py_BuildNone

; 174  : }

  0003a	8b e5		 mov	 esp, ebp
  0003c	5d		 pop	 ebp
  0003d	c3		 ret	 0
?systemSetViewChatFlag@@YAPAU_object@@PAU1@0@Z ENDP	; systemSetViewChatFlag
_TEXT	ENDS
; Function compile flags: /Ogtp
; File D:\Metin2 Server Files\mainline\SRC_2014\Metin2Client\UserInterface\PythonSystemModule.cpp
;	COMDAT ?systemIsSoftwareCursor@@YAPAU_object@@PAU1@0@Z
_TEXT	SEGMENT
_poSelf$ = 8						; size = 4
_poArgs$ = 12						; size = 4
?systemIsSoftwareCursor@@YAPAU_object@@PAU1@0@Z PROC	; systemIsSoftwareCursor, COMDAT

; 162  : 	return Py_BuildValue("i", CPythonSystem::Instance().IsSoftwareCursor());

  00000	8b 0d 00 00 00
	00		 mov	 ecx, DWORD PTR ?ms_singleton@?$CSingleton@VCPythonSystem@@@@0PAVCPythonSystem@@A ; CSingleton<CPythonSystem>::ms_singleton
  00006	e8 00 00 00 00	 call	 ?IsSoftwareCursor@CPythonSystem@@QAE_NXZ ; CPythonSystem::IsSoftwareCursor
  0000b	0f b6 c0	 movzx	 eax, al
  0000e	50		 push	 eax
  0000f	68 00 00 00 00	 push	 OFFSET ??_C@_01KBJDNOO@i@
  00014	ff 15 00 00 00
	00		 call	 DWORD PTR __imp__Py_BuildValue
  0001a	83 c4 08	 add	 esp, 8

; 163  : }

  0001d	c3		 ret	 0
?systemIsSoftwareCursor@@YAPAU_object@@PAU1@0@Z ENDP	; systemIsSoftwareCursor
_TEXT	ENDS
; Function compile flags: /Ogtp
; File D:\Metin2 Server Files\mainline\SRC_2014\Metin2Client\UserInterface\PythonSystemModule.cpp
;	COMDAT ?systemSetSoundVolumef@@YAPAU_object@@PAU1@0@Z
_TEXT	SEGMENT
_fVolume$ = -4						; size = 4
_poSelf$ = 8						; size = 4
_poArgs$ = 12						; size = 4
?systemSetSoundVolumef@@YAPAU_object@@PAU1@0@Z PROC	; systemSetSoundVolumef, COMDAT

; 151  : {

  00000	55		 push	 ebp
  00001	8b ec		 mov	 ebp, esp
  00003	51		 push	 ecx

; 152  : 	float fVolume;
; 153  : 	if (!PyTuple_GetFloat(poArgs, 0, &fVolume))

  00004	8d 45 fc	 lea	 eax, DWORD PTR _fVolume$[ebp]
  00007	50		 push	 eax
  00008	6a 00		 push	 0
  0000a	ff 75 0c	 push	 DWORD PTR _poArgs$[ebp]
  0000d	e8 00 00 00 00	 call	 ?PyTuple_GetFloat@@YA_NPAU_object@@HPAM@Z ; PyTuple_GetFloat
  00012	83 c4 0c	 add	 esp, 12			; 0000000cH
  00015	84 c0		 test	 al, al
  00017	75 0e		 jne	 SHORT $LN2@systemSetS

; 154  : 		return Py_BuildException();

  00019	6a 00		 push	 0
  0001b	e8 00 00 00 00	 call	 ?Py_BuildException@@YAPAU_object@@PBDZZ ; Py_BuildException
  00020	83 c4 04	 add	 esp, 4

; 158  : }

  00023	8b e5		 mov	 esp, ebp
  00025	5d		 pop	 ebp
  00026	c3		 ret	 0
$LN2@systemSetS:

; 155  : 
; 156  : 	CPythonSystem::Instance().SetSoundVolumef(fVolume);

  00027	f3 0f 10 45 fc	 movss	 xmm0, DWORD PTR _fVolume$[ebp]
  0002c	51		 push	 ecx
  0002d	8b 0d 00 00 00
	00		 mov	 ecx, DWORD PTR ?ms_singleton@?$CSingleton@VCPythonSystem@@@@0PAVCPythonSystem@@A ; CSingleton<CPythonSystem>::ms_singleton
  00033	f3 0f 11 04 24	 movss	 DWORD PTR [esp], xmm0
  00038	e8 00 00 00 00	 call	 ?SetSoundVolumef@CPythonSystem@@QAEXM@Z ; CPythonSystem::SetSoundVolumef

; 157  : 	return Py_BuildNone();

  0003d	e8 00 00 00 00	 call	 ?Py_BuildNone@@YAPAU_object@@XZ ; Py_BuildNone

; 158  : }

  00042	8b e5		 mov	 esp, ebp
  00044	5d		 pop	 ebp
  00045	c3		 ret	 0
?systemSetSoundVolumef@@YAPAU_object@@PAU1@0@Z ENDP	; systemSetSoundVolumef
_TEXT	ENDS
; Function compile flags: /Ogtp
; File D:\Metin2 Server Files\mainline\SRC_2014\Metin2Client\UserInterface\PythonSystemModule.cpp
;	COMDAT ?systemSetMusicVolume@@YAPAU_object@@PAU1@0@Z
_TEXT	SEGMENT
_fVolume$ = -4						; size = 4
_poSelf$ = 8						; size = 4
_poArgs$ = 12						; size = 4
?systemSetMusicVolume@@YAPAU_object@@PAU1@0@Z PROC	; systemSetMusicVolume, COMDAT

; 141  : {

  00000	55		 push	 ebp
  00001	8b ec		 mov	 ebp, esp
  00003	51		 push	 ecx

; 142  : 	float fVolume;
; 143  : 	if (!PyTuple_GetFloat(poArgs, 0, &fVolume))

  00004	8d 45 fc	 lea	 eax, DWORD PTR _fVolume$[ebp]
  00007	50		 push	 eax
  00008	6a 00		 push	 0
  0000a	ff 75 0c	 push	 DWORD PTR _poArgs$[ebp]
  0000d	e8 00 00 00 00	 call	 ?PyTuple_GetFloat@@YA_NPAU_object@@HPAM@Z ; PyTuple_GetFloat
  00012	83 c4 0c	 add	 esp, 12			; 0000000cH
  00015	84 c0		 test	 al, al
  00017	75 0e		 jne	 SHORT $LN2@systemSetM

; 144  : 		return Py_BuildException();

  00019	6a 00		 push	 0
  0001b	e8 00 00 00 00	 call	 ?Py_BuildException@@YAPAU_object@@PBDZZ ; Py_BuildException
  00020	83 c4 04	 add	 esp, 4

; 148  : }

  00023	8b e5		 mov	 esp, ebp
  00025	5d		 pop	 ebp
  00026	c3		 ret	 0
$LN2@systemSetM:

; 145  : 
; 146  : 	CPythonSystem::Instance().SetMusicVolume(fVolume);

  00027	f3 0f 10 45 fc	 movss	 xmm0, DWORD PTR _fVolume$[ebp]
  0002c	51		 push	 ecx
  0002d	8b 0d 00 00 00
	00		 mov	 ecx, DWORD PTR ?ms_singleton@?$CSingleton@VCPythonSystem@@@@0PAVCPythonSystem@@A ; CSingleton<CPythonSystem>::ms_singleton
  00033	f3 0f 11 04 24	 movss	 DWORD PTR [esp], xmm0
  00038	e8 00 00 00 00	 call	 ?SetMusicVolume@CPythonSystem@@QAEXM@Z ; CPythonSystem::SetMusicVolume

; 147  : 	return Py_BuildNone();

  0003d	e8 00 00 00 00	 call	 ?Py_BuildNone@@YAPAU_object@@XZ ; Py_BuildNone

; 148  : }

  00042	8b e5		 mov	 esp, ebp
  00044	5d		 pop	 ebp
  00045	c3		 ret	 0
?systemSetMusicVolume@@YAPAU_object@@PAU1@0@Z ENDP	; systemSetMusicVolume
_TEXT	ENDS
; Function compile flags: /Ogtp
; File D:\Metin2 Server Files\mainline\SRC_2014\Metin2Client\UserInterface\PythonSystemModule.cpp
;	COMDAT ?systemGetSoundVolume@@YAPAU_object@@PAU1@0@Z
_TEXT	SEGMENT
_poSelf$ = 8						; size = 4
_poArgs$ = 12						; size = 4
?systemGetSoundVolume@@YAPAU_object@@PAU1@0@Z PROC	; systemGetSoundVolume, COMDAT

; 137  : 	return Py_BuildValue("i", CPythonSystem::Instance().GetSoundVolume());

  00000	8b 0d 00 00 00
	00		 mov	 ecx, DWORD PTR ?ms_singleton@?$CSingleton@VCPythonSystem@@@@0PAVCPythonSystem@@A ; CSingleton<CPythonSystem>::ms_singleton
  00006	e8 00 00 00 00	 call	 ?GetSoundVolume@CPythonSystem@@QAEHXZ ; CPythonSystem::GetSoundVolume
  0000b	50		 push	 eax
  0000c	68 00 00 00 00	 push	 OFFSET ??_C@_01KBJDNOO@i@
  00011	ff 15 00 00 00
	00		 call	 DWORD PTR __imp__Py_BuildValue
  00017	83 c4 08	 add	 esp, 8

; 138  : }

  0001a	c3		 ret	 0
?systemGetSoundVolume@@YAPAU_object@@PAU1@0@Z ENDP	; systemGetSoundVolume
_TEXT	ENDS
; Function compile flags: /Ogtp
; File D:\Metin2 Server Files\mainline\SRC_2014\Metin2Client\UserInterface\PythonSystemModule.cpp
;	COMDAT ?systemGetMusicVolume@@YAPAU_object@@PAU1@0@Z
_TEXT	SEGMENT
_poSelf$ = 8						; size = 4
_poArgs$ = 12						; size = 4
?systemGetMusicVolume@@YAPAU_object@@PAU1@0@Z PROC	; systemGetMusicVolume, COMDAT

; 132  : 	return Py_BuildValue("f", CPythonSystem::Instance().GetMusicVolume());

  00000	8b 0d 00 00 00
	00		 mov	 ecx, DWORD PTR ?ms_singleton@?$CSingleton@VCPythonSystem@@@@0PAVCPythonSystem@@A ; CSingleton<CPythonSystem>::ms_singleton
  00006	e8 00 00 00 00	 call	 ?GetMusicVolume@CPythonSystem@@QAEMXZ ; CPythonSystem::GetMusicVolume
  0000b	83 ec 08	 sub	 esp, 8
  0000e	dd 1c 24	 fstp	 QWORD PTR [esp]
  00011	68 00 00 00 00	 push	 OFFSET ??_C@_01INIBCBCB@f@
  00016	ff 15 00 00 00
	00		 call	 DWORD PTR __imp__Py_BuildValue
  0001c	83 c4 0c	 add	 esp, 12			; 0000000cH

; 133  : }

  0001f	c3		 ret	 0
?systemGetMusicVolume@@YAPAU_object@@PAU1@0@Z ENDP	; systemGetMusicVolume
_TEXT	ENDS
; Function compile flags: /Ogtp
; File D:\Metin2 Server Files\mainline\SRC_2014\Metin2Client\UserInterface\PythonSystemModule.cpp
;	COMDAT ?systemGetSaveID@@YAPAU_object@@PAU1@0@Z
_TEXT	SEGMENT
_poSelf$ = 8						; size = 4
_poArgs$ = 12						; size = 4
?systemGetSaveID@@YAPAU_object@@PAU1@0@Z PROC		; systemGetSaveID, COMDAT

; 126  : 	const char * c_szSaveID = CPythonSystem::Instance().GetSaveID();

  00000	8b 0d 00 00 00
	00		 mov	 ecx, DWORD PTR ?ms_singleton@?$CSingleton@VCPythonSystem@@@@0PAVCPythonSystem@@A ; CSingleton<CPythonSystem>::ms_singleton
  00006	e8 00 00 00 00	 call	 ?GetSaveID@CPythonSystem@@QAEPBDXZ ; CPythonSystem::GetSaveID

; 127  : 	return Py_BuildValue("s", c_szSaveID);

  0000b	50		 push	 eax
  0000c	68 00 00 00 00	 push	 OFFSET ??_C@_01LKDEMHDF@s@
  00011	ff 15 00 00 00
	00		 call	 DWORD PTR __imp__Py_BuildValue
  00017	83 c4 08	 add	 esp, 8

; 128  : }

  0001a	c3		 ret	 0
?systemGetSaveID@@YAPAU_object@@PAU1@0@Z ENDP		; systemGetSaveID
_TEXT	ENDS
; Function compile flags: /Ogtp
; File D:\Metin2 Server Files\mainline\SRC_2014\Metin2Client\UserInterface\PythonSystemModule.cpp
;	COMDAT ?systemisSaveID@@YAPAU_object@@PAU1@0@Z
_TEXT	SEGMENT
_poSelf$ = 8						; size = 4
_poArgs$ = 12						; size = 4
?systemisSaveID@@YAPAU_object@@PAU1@0@Z PROC		; systemisSaveID, COMDAT

; 120  : 	int value = CPythonSystem::Instance().IsSaveID();

  00000	8b 0d 00 00 00
	00		 mov	 ecx, DWORD PTR ?ms_singleton@?$CSingleton@VCPythonSystem@@@@0PAVCPythonSystem@@A ; CSingleton<CPythonSystem>::ms_singleton
  00006	e8 00 00 00 00	 call	 ?IsSaveID@CPythonSystem@@QAEHXZ ; CPythonSystem::IsSaveID

; 121  : 	return Py_BuildValue("i", value);

  0000b	50		 push	 eax
  0000c	68 00 00 00 00	 push	 OFFSET ??_C@_01KBJDNOO@i@
  00011	ff 15 00 00 00
	00		 call	 DWORD PTR __imp__Py_BuildValue
  00017	83 c4 08	 add	 esp, 8

; 122  : }

  0001a	c3		 ret	 0
?systemisSaveID@@YAPAU_object@@PAU1@0@Z ENDP		; systemisSaveID
_TEXT	ENDS
; Function compile flags: /Ogtp
; File D:\Metin2 Server Files\mainline\SRC_2014\Metin2Client\UserInterface\PythonSystemModule.cpp
;	COMDAT ?systemSetSaveID@@YAPAU_object@@PAU1@0@Z
_TEXT	SEGMENT
_iValue$ = -8						; size = 4
_szSaveID$ = -4						; size = 4
_poSelf$ = 8						; size = 4
_poArgs$ = 12						; size = 4
?systemSetSaveID@@YAPAU_object@@PAU1@0@Z PROC		; systemSetSaveID, COMDAT

; 105  : {

  00000	55		 push	 ebp
  00001	8b ec		 mov	 ebp, esp
  00003	83 ec 08	 sub	 esp, 8

; 106  : 	int iValue;
; 107  : 	if (!PyTuple_GetInteger(poArgs, 0, &iValue))

  00006	8d 45 f8	 lea	 eax, DWORD PTR _iValue$[ebp]
  00009	50		 push	 eax
  0000a	6a 00		 push	 0
  0000c	ff 75 0c	 push	 DWORD PTR _poArgs$[ebp]
  0000f	e8 00 00 00 00	 call	 ?PyTuple_GetInteger@@YA_NPAU_object@@HPAH@Z ; PyTuple_GetInteger
  00014	83 c4 0c	 add	 esp, 12			; 0000000cH
  00017	84 c0		 test	 al, al
  00019	75 0e		 jne	 SHORT $LN2@systemSetS
$LN5@systemSetS:

; 116  : }

  0001b	6a 00		 push	 0
  0001d	e8 00 00 00 00	 call	 ?Py_BuildException@@YAPAU_object@@PBDZZ ; Py_BuildException
  00022	83 c4 04	 add	 esp, 4
  00025	8b e5		 mov	 esp, ebp
  00027	5d		 pop	 ebp
  00028	c3		 ret	 0
$LN2@systemSetS:

; 108  : 		return Py_BuildException();
; 109  : 
; 110  : 	char * szSaveID;
; 111  : 	if (!PyTuple_GetString(poArgs, 1, &szSaveID))

  00029	8d 45 fc	 lea	 eax, DWORD PTR _szSaveID$[ebp]
  0002c	50		 push	 eax
  0002d	6a 01		 push	 1
  0002f	ff 75 0c	 push	 DWORD PTR _poArgs$[ebp]
  00032	e8 00 00 00 00	 call	 ?PyTuple_GetString@@YA_NPAU_object@@HPAPAD@Z ; PyTuple_GetString
  00037	83 c4 0c	 add	 esp, 12			; 0000000cH
  0003a	84 c0		 test	 al, al
  0003c	74 dd		 je	 SHORT $LN5@systemSetS

; 112  : 		return Py_BuildException();
; 113  : 
; 114  : 	CPythonSystem::Instance().SetSaveID(iValue, szSaveID);

  0003e	ff 75 fc	 push	 DWORD PTR _szSaveID$[ebp]
  00041	8b 0d 00 00 00
	00		 mov	 ecx, DWORD PTR ?ms_singleton@?$CSingleton@VCPythonSystem@@@@0PAVCPythonSystem@@A ; CSingleton<CPythonSystem>::ms_singleton
  00047	ff 75 f8	 push	 DWORD PTR _iValue$[ebp]
  0004a	e8 00 00 00 00	 call	 ?SetSaveID@CPythonSystem@@QAEXHPBD@Z ; CPythonSystem::SetSaveID

; 115  : 	return Py_BuildNone();

  0004f	e8 00 00 00 00	 call	 ?Py_BuildNone@@YAPAU_object@@XZ ; Py_BuildNone

; 116  : }

  00054	8b e5		 mov	 esp, ebp
  00056	5d		 pop	 ebp
  00057	c3		 ret	 0
?systemSetSaveID@@YAPAU_object@@PAU1@0@Z ENDP		; systemSetSaveID
_TEXT	ENDS
; Function compile flags: /Ogtp
; File D:\Metin2 Server Files\mainline\SRC_2014\Metin2Client\UserInterface\PythonSystemModule.cpp
;	COMDAT ?systemGetConfig@@YAPAU_object@@PAU1@0@Z
_TEXT	SEGMENT
_poSelf$ = 8						; size = 4
_poArgs$ = 12						; size = 4
?systemGetConfig@@YAPAU_object@@PAU1@0@Z PROC		; systemGetConfig, COMDAT

; 89   : 	CPythonSystem::TConfig *tmp = CPythonSystem::Instance().GetConfig();

  00000	8b 0d 00 00 00
	00		 mov	 ecx, DWORD PTR ?ms_singleton@?$CSingleton@VCPythonSystem@@@@0PAVCPythonSystem@@A ; CSingleton<CPythonSystem>::ms_singleton
  00006	56		 push	 esi
  00007	57		 push	 edi
  00008	e8 00 00 00 00	 call	 ?GetConfig@CPythonSystem@@QAEPAUSConfig@1@XZ ; CPythonSystem::GetConfig

; 90   : 
; 91   : 	int iRes = CPythonSystem::Instance().GetResolutionIndex(tmp->width, tmp->height, tmp->bpp);

  0000d	8b 0d 00 00 00
	00		 mov	 ecx, DWORD PTR ?ms_singleton@?$CSingleton@VCPythonSystem@@@@0PAVCPythonSystem@@A ; CSingleton<CPythonSystem>::ms_singleton
  00013	8b f8		 mov	 edi, eax
  00015	ff 77 08	 push	 DWORD PTR [edi+8]
  00018	ff 77 04	 push	 DWORD PTR [edi+4]
  0001b	ff 37		 push	 DWORD PTR [edi]
  0001d	e8 00 00 00 00	 call	 ?GetResolutionIndex@CPythonSystem@@QAEHKKK@Z ; CPythonSystem::GetResolutionIndex

; 92   : 	int iFrequency = CPythonSystem::Instance().GetFrequencyIndex(iRes, tmp->frequency);

  00022	ff 77 0c	 push	 DWORD PTR [edi+12]
  00025	8b 0d 00 00 00
	00		 mov	 ecx, DWORD PTR ?ms_singleton@?$CSingleton@VCPythonSystem@@@@0PAVCPythonSystem@@A ; CSingleton<CPythonSystem>::ms_singleton
  0002b	8b f0		 mov	 esi, eax
  0002d	56		 push	 esi
  0002e	e8 00 00 00 00	 call	 ?GetFrequencyIndex@CPythonSystem@@QAEHHK@Z ; CPythonSystem::GetFrequencyIndex

; 93   : 
; 94   : 	return Py_BuildValue("iiiiiiii",  iRes,

  00033	ff 77 14	 push	 DWORD PTR [edi+20]
  00036	f3 0f 10 47 1c	 movss	 xmm0, DWORD PTR [edi+28]
  0003b	8b d0		 mov	 edx, eax
  0003d	ff 77 24	 push	 DWORD PTR [edi+36]
  00040	0f b6 4f 20	 movzx	 ecx, BYTE PTR [edi+32]
  00044	0f b6 47 11	 movzx	 eax, BYTE PTR [edi+17]
  00048	51		 push	 ecx
  00049	83 ec 08	 sub	 esp, 8
  0004c	0f 5a c0	 cvtps2pd xmm0, xmm0
  0004f	f2 0f 11 04 24	 movsd	 QWORD PTR [esp], xmm0
  00054	50		 push	 eax
  00055	0f b6 47 10	 movzx	 eax, BYTE PTR [edi+16]
  00059	50		 push	 eax
  0005a	52		 push	 edx
  0005b	56		 push	 esi
  0005c	68 00 00 00 00	 push	 OFFSET ??_C@_08DGHCLNGO@iiiiiiii@
  00061	ff 15 00 00 00
	00		 call	 DWORD PTR __imp__Py_BuildValue
  00067	83 c4 28	 add	 esp, 40			; 00000028H
  0006a	5f		 pop	 edi
  0006b	5e		 pop	 esi

; 95   : 									  iFrequency,
; 96   : 									  tmp->is_software_cursor,
; 97   : 									  tmp->is_object_culling,
; 98   : 									  tmp->music_volume,
; 99   : 									  tmp->voice_volume,
; 100  : 									  tmp->gamma,
; 101  : 									  tmp->iDistance);
; 102  : }

  0006c	c3		 ret	 0
?systemGetConfig@@YAPAU_object@@PAU1@0@Z ENDP		; systemGetConfig
_TEXT	ENDS
; Function compile flags: /Ogtp
; File D:\Metin2 Server Files\mainline\SRC_2014\Metin2Client\UserInterface\PythonSystemModule.cpp
;	COMDAT ?systemGetWindowStatus@@YAPAU_object@@PAU1@0@Z
_TEXT	SEGMENT
_iIndex$ = -4						; size = 4
_poSelf$ = 8						; size = 4
_poArgs$ = 12						; size = 4
?systemGetWindowStatus@@YAPAU_object@@PAU1@0@Z PROC	; systemGetWindowStatus, COMDAT

; 74   : {

  00000	55		 push	 ebp
  00001	8b ec		 mov	 ebp, esp
  00003	51		 push	 ecx

; 75   : 	int iIndex;
; 76   : 	if (!PyTuple_GetInteger(poArgs, 0, &iIndex))

  00004	8d 45 fc	 lea	 eax, DWORD PTR _iIndex$[ebp]
  00007	50		 push	 eax
  00008	6a 00		 push	 0
  0000a	ff 75 0c	 push	 DWORD PTR _poArgs$[ebp]
  0000d	e8 00 00 00 00	 call	 ?PyTuple_GetInteger@@YA_NPAU_object@@HPAH@Z ; PyTuple_GetInteger
  00012	83 c4 0c	 add	 esp, 12			; 0000000cH
  00015	84 c0		 test	 al, al
  00017	75 0e		 jne	 SHORT $LN2@systemGetW

; 77   : 		return Py_BuildException();

  00019	6a 00		 push	 0
  0001b	e8 00 00 00 00	 call	 ?Py_BuildException@@YAPAU_object@@PBDZZ ; Py_BuildException
  00020	83 c4 04	 add	 esp, 4

; 81   : 								  c_rWindowStatus.isMinimized,
; 82   : 								  c_rWindowStatus.ixPosition,
; 83   : 								  c_rWindowStatus.iyPosition,
; 84   : 								  c_rWindowStatus.iHeight);
; 85   : }

  00023	8b e5		 mov	 esp, ebp
  00025	5d		 pop	 ebp
  00026	c3		 ret	 0
$LN2@systemGetW:

; 78   : 
; 79   : 	const CPythonSystem::TWindowStatus & c_rWindowStatus = CPythonSystem::Instance().GetWindowStatusReference(iIndex);

  00027	ff 75 fc	 push	 DWORD PTR _iIndex$[ebp]
  0002a	8b 0d 00 00 00
	00		 mov	 ecx, DWORD PTR ?ms_singleton@?$CSingleton@VCPythonSystem@@@@0PAVCPythonSystem@@A ; CSingleton<CPythonSystem>::ms_singleton
  00030	e8 00 00 00 00	 call	 ?GetWindowStatusReference@CPythonSystem@@QAEABUSWindowStatus@1@H@Z ; CPythonSystem::GetWindowStatusReference

; 80   : 	return Py_BuildValue("iiiii", c_rWindowStatus.isVisible,

  00035	ff 70 10	 push	 DWORD PTR [eax+16]
  00038	ff 70 0c	 push	 DWORD PTR [eax+12]
  0003b	ff 70 08	 push	 DWORD PTR [eax+8]
  0003e	ff 70 04	 push	 DWORD PTR [eax+4]
  00041	ff 30		 push	 DWORD PTR [eax]
  00043	68 00 00 00 00	 push	 OFFSET ??_C@_05EAPDINDK@iiiii@
  00048	ff 15 00 00 00
	00		 call	 DWORD PTR __imp__Py_BuildValue
  0004e	83 c4 18	 add	 esp, 24			; 00000018H

; 81   : 								  c_rWindowStatus.isMinimized,
; 82   : 								  c_rWindowStatus.ixPosition,
; 83   : 								  c_rWindowStatus.iyPosition,
; 84   : 								  c_rWindowStatus.iHeight);
; 85   : }

  00051	8b e5		 mov	 esp, ebp
  00053	5d		 pop	 ebp
  00054	c3		 ret	 0
?systemGetWindowStatus@@YAPAU_object@@PAU1@0@Z ENDP	; systemGetWindowStatus
_TEXT	ENDS
; Function compile flags: /Ogtp
; File D:\Metin2 Server Files\mainline\SRC_2014\Metin2Client\UserInterface\PythonSystemModule.cpp
;	COMDAT ?systemSaveWindowStatus@@YAPAU_object@@PAU1@0@Z
_TEXT	SEGMENT
_iIndex$ = -24						; size = 4
_iVisible$ = -20					; size = 4
_iMinimized$ = -16					; size = 4
_ix$ = -12						; size = 4
_iy$ = -8						; size = 4
_iHeight$ = -4						; size = 4
_poSelf$ = 8						; size = 4
_poArgs$ = 12						; size = 4
?systemSaveWindowStatus@@YAPAU_object@@PAU1@0@Z PROC	; systemSaveWindowStatus, COMDAT

; 44   : {

  00000	55		 push	 ebp
  00001	8b ec		 mov	 ebp, esp
  00003	83 ec 18	 sub	 esp, 24			; 00000018H

; 45   : 	int iIndex;
; 46   : 	if (!PyTuple_GetInteger(poArgs, 0, &iIndex))

  00006	8d 45 e8	 lea	 eax, DWORD PTR _iIndex$[ebp]
  00009	56		 push	 esi
  0000a	8b 75 0c	 mov	 esi, DWORD PTR _poArgs$[ebp]
  0000d	50		 push	 eax
  0000e	6a 00		 push	 0
  00010	56		 push	 esi
  00011	e8 00 00 00 00	 call	 ?PyTuple_GetInteger@@YA_NPAU_object@@HPAH@Z ; PyTuple_GetInteger
  00016	83 c4 0c	 add	 esp, 12			; 0000000cH
  00019	84 c0		 test	 al, al
  0001b	75 0f		 jne	 SHORT $LN2@systemSave
$LN9@systemSave:

; 71   : }

  0001d	6a 00		 push	 0
  0001f	e8 00 00 00 00	 call	 ?Py_BuildException@@YAPAU_object@@PBDZZ ; Py_BuildException
  00024	83 c4 04	 add	 esp, 4
  00027	5e		 pop	 esi
  00028	8b e5		 mov	 esp, ebp
  0002a	5d		 pop	 ebp
  0002b	c3		 ret	 0
$LN2@systemSave:

; 47   : 		return Py_BuildException();
; 48   : 
; 49   : 	int iVisible;
; 50   : 	if (!PyTuple_GetInteger(poArgs, 1, &iVisible))

  0002c	8d 45 ec	 lea	 eax, DWORD PTR _iVisible$[ebp]
  0002f	50		 push	 eax
  00030	6a 01		 push	 1
  00032	56		 push	 esi
  00033	e8 00 00 00 00	 call	 ?PyTuple_GetInteger@@YA_NPAU_object@@HPAH@Z ; PyTuple_GetInteger
  00038	83 c4 0c	 add	 esp, 12			; 0000000cH
  0003b	84 c0		 test	 al, al
  0003d	74 de		 je	 SHORT $LN9@systemSave

; 51   : 		return Py_BuildException();
; 52   : 
; 53   : 	int iMinimized;
; 54   : 	if (!PyTuple_GetInteger(poArgs, 2, &iMinimized))

  0003f	8d 45 f0	 lea	 eax, DWORD PTR _iMinimized$[ebp]
  00042	50		 push	 eax
  00043	6a 02		 push	 2
  00045	56		 push	 esi
  00046	e8 00 00 00 00	 call	 ?PyTuple_GetInteger@@YA_NPAU_object@@HPAH@Z ; PyTuple_GetInteger
  0004b	83 c4 0c	 add	 esp, 12			; 0000000cH
  0004e	84 c0		 test	 al, al
  00050	74 cb		 je	 SHORT $LN9@systemSave

; 55   : 		return Py_BuildException();
; 56   : 
; 57   : 	int ix;
; 58   : 	if (!PyTuple_GetInteger(poArgs, 3, &ix))

  00052	8d 45 f4	 lea	 eax, DWORD PTR _ix$[ebp]
  00055	50		 push	 eax
  00056	6a 03		 push	 3
  00058	56		 push	 esi
  00059	e8 00 00 00 00	 call	 ?PyTuple_GetInteger@@YA_NPAU_object@@HPAH@Z ; PyTuple_GetInteger
  0005e	83 c4 0c	 add	 esp, 12			; 0000000cH
  00061	84 c0		 test	 al, al
  00063	74 b8		 je	 SHORT $LN9@systemSave

; 59   : 		return Py_BuildException();
; 60   : 
; 61   : 	int iy;
; 62   : 	if (!PyTuple_GetInteger(poArgs, 4, &iy))

  00065	8d 45 f8	 lea	 eax, DWORD PTR _iy$[ebp]
  00068	50		 push	 eax
  00069	6a 04		 push	 4
  0006b	56		 push	 esi
  0006c	e8 00 00 00 00	 call	 ?PyTuple_GetInteger@@YA_NPAU_object@@HPAH@Z ; PyTuple_GetInteger
  00071	83 c4 0c	 add	 esp, 12			; 0000000cH
  00074	84 c0		 test	 al, al
  00076	74 a5		 je	 SHORT $LN9@systemSave

; 63   : 		return Py_BuildException();
; 64   : 
; 65   : 	int iHeight;
; 66   : 	if (!PyTuple_GetInteger(poArgs, 5, &iHeight))

  00078	8d 45 fc	 lea	 eax, DWORD PTR _iHeight$[ebp]
  0007b	50		 push	 eax
  0007c	6a 05		 push	 5
  0007e	56		 push	 esi
  0007f	e8 00 00 00 00	 call	 ?PyTuple_GetInteger@@YA_NPAU_object@@HPAH@Z ; PyTuple_GetInteger
  00084	83 c4 0c	 add	 esp, 12			; 0000000cH
  00087	84 c0		 test	 al, al
  00089	74 92		 je	 SHORT $LN9@systemSave

; 67   : 		return Py_BuildException();
; 68   : 
; 69   : 	CPythonSystem::Instance().SaveWindowStatus(iIndex, iVisible, iMinimized, ix, iy, iHeight);

  0008b	ff 75 fc	 push	 DWORD PTR _iHeight$[ebp]
  0008e	8b 0d 00 00 00
	00		 mov	 ecx, DWORD PTR ?ms_singleton@?$CSingleton@VCPythonSystem@@@@0PAVCPythonSystem@@A ; CSingleton<CPythonSystem>::ms_singleton
  00094	ff 75 f8	 push	 DWORD PTR _iy$[ebp]
  00097	ff 75 f4	 push	 DWORD PTR _ix$[ebp]
  0009a	ff 75 f0	 push	 DWORD PTR _iMinimized$[ebp]
  0009d	ff 75 ec	 push	 DWORD PTR _iVisible$[ebp]
  000a0	ff 75 e8	 push	 DWORD PTR _iIndex$[ebp]
  000a3	e8 00 00 00 00	 call	 ?SaveWindowStatus@CPythonSystem@@QAEXHHHHHH@Z ; CPythonSystem::SaveWindowStatus

; 70   : 	return Py_BuildNone();

  000a8	e8 00 00 00 00	 call	 ?Py_BuildNone@@YAPAU_object@@XZ ; Py_BuildNone
  000ad	5e		 pop	 esi

; 71   : }

  000ae	8b e5		 mov	 esp, ebp
  000b0	5d		 pop	 ebp
  000b1	c3		 ret	 0
?systemSaveWindowStatus@@YAPAU_object@@PAU1@0@Z ENDP	; systemSaveWindowStatus
_TEXT	ENDS
; Function compile flags: /Ogtp
; File D:\Metin2 Server Files\mainline\SRC_2014\Metin2Client\UserInterface\PythonSystemModule.cpp
;	COMDAT ?systemisInterfaceConfig@@YAPAU_object@@PAU1@0@Z
_TEXT	SEGMENT
_poSelf$ = 8						; size = 4
_poArgs$ = 12						; size = 4
?systemisInterfaceConfig@@YAPAU_object@@PAU1@0@Z PROC	; systemisInterfaceConfig, COMDAT

; 39   : 	int isInterfaceConfig = CPythonSystem::Instance().isInterfaceConfig();

  00000	8b 0d 00 00 00
	00		 mov	 ecx, DWORD PTR ?ms_singleton@?$CSingleton@VCPythonSystem@@@@0PAVCPythonSystem@@A ; CSingleton<CPythonSystem>::ms_singleton
  00006	e8 00 00 00 00	 call	 ?isInterfaceConfig@CPythonSystem@@QAE_NXZ ; CPythonSystem::isInterfaceConfig
  0000b	0f b6 c0	 movzx	 eax, al

; 40   : 	return Py_BuildValue("i", isInterfaceConfig);

  0000e	50		 push	 eax
  0000f	68 00 00 00 00	 push	 OFFSET ??_C@_01KBJDNOO@i@
  00014	ff 15 00 00 00
	00		 call	 DWORD PTR __imp__Py_BuildValue
  0001a	83 c4 08	 add	 esp, 8

; 41   : }

  0001d	c3		 ret	 0
?systemisInterfaceConfig@@YAPAU_object@@PAU1@0@Z ENDP	; systemisInterfaceConfig
_TEXT	ENDS
; Function compile flags: /Ogtp
; File C:\Program Files (x86)\Microsoft Visual Studio\2019\Community\VC\Tools\MSVC\14.28.29333\include\xtree
; File C:\Program Files (x86)\Microsoft Visual Studio\2019\Community\VC\Tools\MSVC\14.28.29333\include\xmemory
;	COMDAT ??1?$set@V?$basic_string@DU?$char_traits@D@std@@V?$allocator@D@2@@std@@U?$less@V?$basic_string@DU?$char_traits@D@std@@V?$allocator@D@2@@std@@@2@V?$allocator@V?$basic_string@DU?$char_traits@D@std@@V?$allocator@D@2@@std@@@2@@std@@QAE@XZ
_TEXT	SEGMENT
??1?$set@V?$basic_string@DU?$char_traits@D@std@@V?$allocator@D@2@@std@@U?$less@V?$basic_string@DU?$char_traits@D@std@@V?$allocator@D@2@@std@@@2@V?$allocator@V?$basic_string@DU?$char_traits@D@std@@V?$allocator@D@2@@std@@@2@@std@@QAE@XZ PROC ; std::set<std::basic_string<char,std::char_traits<char>,std::allocator<char> >,std::less<std::basic_string<char,std::char_traits<char>,std::allocator<char> > >,std::allocator<std::basic_string<char,std::char_traits<char>,std::allocator<char> > > >::~set<std::basic_string<char,std::char_traits<char>,std::allocator<char> >,std::less<std::basic_string<char,std::char_traits<char>,std::allocator<char> > >,std::allocator<std::basic_string<char,std::char_traits<char>,std::allocator<char> > > >, COMDAT
; _this$ = ecx
; File C:\Program Files (x86)\Microsoft Visual Studio\2019\Community\VC\Tools\MSVC\14.28.29333\include\xtree

; 752  :         _Erase_tree(_Al, _Myhead->_Parent);

  00000	56		 push	 esi
  00001	8b f1		 mov	 esi, ecx
  00003	8b 06		 mov	 eax, DWORD PTR [esi]
  00005	ff 70 04	 push	 DWORD PTR [eax+4]
  00008	56		 push	 esi
  00009	e8 00 00 00 00	 call	 ??$_Erase_tree@V?$allocator@U?$_Tree_node@V?$basic_string@DU?$char_traits@D@std@@V?$allocator@D@2@@std@@PAX@std@@@std@@@?$_Tree_val@U?$_Tree_simple_types@V?$basic_string@DU?$char_traits@D@std@@V?$allocator@D@2@@std@@@std@@@std@@QAEXAAV?$allocator@U?$_Tree_node@V?$basic_string@DU?$char_traits@D@std@@V?$allocator@D@2@@std@@PAX@std@@@1@PAU?$_Tree_node@V?$basic_string@DU?$char_traits@D@std@@V?$allocator@D@2@@std@@PAX@1@@Z ; std::_Tree_val<std::_Tree_simple_types<std::basic_string<char,std::char_traits<char>,std::allocator<char> > > >::_Erase_tree<std::allocator<std::_Tree_node<std::basic_string<char,std::char_traits<char>,std::allocator<char> >,void *> > >
; File C:\Program Files (x86)\Microsoft Visual Studio\2019\Community\VC\Tools\MSVC\14.28.29333\include\xmemory

; 696  :         _Deallocate<_New_alignof<value_type>>(_Ptr, sizeof(value_type) * _Count);

  0000e	6a 28		 push	 40			; 00000028H
  00010	ff 36		 push	 DWORD PTR [esi]
  00012	e8 00 00 00 00	 call	 ??$_Deallocate@$07$0A@@std@@YAXPAXI@Z ; std::_Deallocate<8,0>
  00017	83 c4 08	 add	 esp, 8
  0001a	5e		 pop	 esi
  0001b	c3		 ret	 0
??1?$set@V?$basic_string@DU?$char_traits@D@std@@V?$allocator@D@2@@std@@U?$less@V?$basic_string@DU?$char_traits@D@std@@V?$allocator@D@2@@std@@@2@V?$allocator@V?$basic_string@DU?$char_traits@D@std@@V?$allocator@D@2@@std@@@2@@std@@QAE@XZ ENDP ; std::set<std::basic_string<char,std::char_traits<char>,std::allocator<char> >,std::less<std::basic_string<char,std::char_traits<char>,std::allocator<char> > >,std::allocator<std::basic_string<char,std::char_traits<char>,std::allocator<char> > > >::~set<std::basic_string<char,std::char_traits<char>,std::allocator<char> >,std::less<std::basic_string<char,std::char_traits<char>,std::allocator<char> > >,std::allocator<std::basic_string<char,std::char_traits<char>,std::allocator<char> > > >
_TEXT	ENDS
; Function compile flags: /Ogtp
; File D:\Metin2 Server Files\mainline\SRC_2014\Metin2Client\UserInterface\PythonSystemModule.cpp
; File C:\Program Files (x86)\Microsoft Visual Studio\2019\Community\VC\Tools\MSVC\14.28.29333\include\xmemory
; File C:\Program Files (x86)\Microsoft Visual Studio\2019\Community\VC\Tools\MSVC\14.28.29333\include\xtree
; File C:\Program Files (x86)\Microsoft Visual Studio\2019\Community\VC\Tools\MSVC\14.28.29333\include\xmemory
; File C:\Program Files (x86)\Microsoft Visual Studio\2019\Community\VC\Tools\MSVC\14.28.29333\include\xtree
; File D:\Metin2 Server Files\mainline\SRC_2014\Metin2Client\UserInterface\PythonSystemModule.cpp
; File C:\Program Files (x86)\Microsoft Visual Studio\2019\Community\VC\Tools\MSVC\14.28.29333\include\xtree
; File D:\Metin2 Server Files\mainline\SRC_2014\Metin2Client\UserInterface\PythonSystemModule.cpp
; File C:\Program Files (x86)\Microsoft Visual Studio\2019\Community\VC\Tools\MSVC\14.28.29333\include\xtree
; File C:\Program Files (x86)\Microsoft Visual Studio\2019\Community\VC\Tools\MSVC\14.28.29333\include\xmemory
; File D:\Metin2 Server Files\mainline\SRC_2014\Metin2Client\UserInterface\PythonSystemModule.cpp
;	COMDAT ?systemReserveResource@@YAPAU_object@@PAU1@0@Z
_TEXT	SEGMENT
_ResourceSet$ = -24					; size = 8
__Pnode$2 = -16						; size = 4
__$EHRec$ = -12						; size = 12
_poSelf$ = 8						; size = 4
_poArgs$ = 12						; size = 4
?systemReserveResource@@YAPAU_object@@PAU1@0@Z PROC	; systemReserveResource, COMDAT

; 31   : {

  00000	55		 push	 ebp
  00001	8b ec		 mov	 ebp, esp
  00003	6a ff		 push	 -1
  00005	68 00 00 00 00	 push	 __ehhandler$?systemReserveResource@@YAPAU_object@@PAU1@0@Z
  0000a	64 a1 00 00 00
	00		 mov	 eax, DWORD PTR fs:0
  00010	50		 push	 eax
  00011	83 ec 0c	 sub	 esp, 12			; 0000000cH
  00014	56		 push	 esi
  00015	a1 00 00 00 00	 mov	 eax, DWORD PTR ___security_cookie
  0001a	33 c5		 xor	 eax, ebp
  0001c	50		 push	 eax
  0001d	8d 45 f4	 lea	 eax, DWORD PTR __$EHRec$[ebp]
  00020	64 a3 00 00 00
	00		 mov	 DWORD PTR fs:0, eax
; File C:\Program Files (x86)\Microsoft Visual Studio\2019\Community\VC\Tools\MSVC\14.28.29333\include\xmemory

; 814  :         return static_cast<_Ty*>(_Allocate<_New_alignof<_Ty>>(_Get_size_of_n<sizeof(_Ty)>(_Count)));

  00026	6a 28		 push	 40			; 00000028H
; File C:\Program Files (x86)\Microsoft Visual Studio\2019\Community\VC\Tools\MSVC\14.28.29333\include\xtree

; 435  :     _Tree_val() noexcept : _Myhead(), _Mysize(0) {}

  00028	c7 45 e8 00 00
	00 00		 mov	 DWORD PTR _ResourceSet$[ebp], 0
  0002f	c7 45 ec 00 00
	00 00		 mov	 DWORD PTR _ResourceSet$[ebp+4], 0
; File C:\Program Files (x86)\Microsoft Visual Studio\2019\Community\VC\Tools\MSVC\14.28.29333\include\xmemory

; 814  :         return static_cast<_Ty*>(_Allocate<_New_alignof<_Ty>>(_Get_size_of_n<sizeof(_Ty)>(_Count)));

  00036	e8 00 00 00 00	 call	 ??$_Allocate@$07U_Default_allocate_traits@std@@$0A@@std@@YAPAXI@Z ; std::_Allocate<8,std::_Default_allocate_traits,0>
; File C:\Program Files (x86)\Microsoft Visual Studio\2019\Community\VC\Tools\MSVC\14.28.29333\include\xtree

; 343  :         const auto _Pnode = _Al.allocate(1);

  0003b	8b f0		 mov	 esi, eax

; 344  :         _Construct_in_place(_Pnode->_Left, _Pnode);

  0003d	8d 45 f0	 lea	 eax, DWORD PTR __Pnode$2[ebp]
  00040	50		 push	 eax
  00041	56		 push	 esi
  00042	89 75 f0	 mov	 DWORD PTR __Pnode$2[ebp], esi
  00045	e8 00 00 00 00	 call	 ??$_Construct_in_place@PAU?$_Tree_node@V?$basic_string@DU?$char_traits@D@std@@V?$allocator@D@2@@std@@PAX@std@@ABQAU12@@std@@YAXAAPAU?$_Tree_node@V?$basic_string@DU?$char_traits@D@std@@V?$allocator@D@2@@std@@PAX@0@ABQAU10@@Z ; std::_Construct_in_place<std::_Tree_node<std::basic_string<char,std::char_traits<char>,std::allocator<char> >,void *> *,std::_Tree_node<std::basic_string<char,std::char_traits<char>,std::allocator<char> >,void *> * const &>

; 345  :         _Construct_in_place(_Pnode->_Parent, _Pnode);

  0004a	8d 45 f0	 lea	 eax, DWORD PTR __Pnode$2[ebp]
  0004d	50		 push	 eax
  0004e	8d 4e 04	 lea	 ecx, DWORD PTR [esi+4]
  00051	51		 push	 ecx
  00052	e8 00 00 00 00	 call	 ??$_Construct_in_place@PAU?$_Tree_node@V?$basic_string@DU?$char_traits@D@std@@V?$allocator@D@2@@std@@PAX@std@@ABQAU12@@std@@YAXAAPAU?$_Tree_node@V?$basic_string@DU?$char_traits@D@std@@V?$allocator@D@2@@std@@PAX@0@ABQAU10@@Z ; std::_Construct_in_place<std::_Tree_node<std::basic_string<char,std::char_traits<char>,std::allocator<char> >,void *> *,std::_Tree_node<std::basic_string<char,std::char_traits<char>,std::allocator<char> >,void *> * const &>

; 346  :         _Construct_in_place(_Pnode->_Right, _Pnode);

  00057	8d 45 f0	 lea	 eax, DWORD PTR __Pnode$2[ebp]
  0005a	50		 push	 eax
  0005b	8d 46 08	 lea	 eax, DWORD PTR [esi+8]
  0005e	50		 push	 eax
  0005f	e8 00 00 00 00	 call	 ??$_Construct_in_place@PAU?$_Tree_node@V?$basic_string@DU?$char_traits@D@std@@V?$allocator@D@2@@std@@PAX@std@@ABQAU12@@std@@YAXAAPAU?$_Tree_node@V?$basic_string@DU?$char_traits@D@std@@V?$allocator@D@2@@std@@PAX@0@ABQAU10@@Z ; std::_Construct_in_place<std::_Tree_node<std::basic_string<char,std::char_traits<char>,std::allocator<char> >,void *> *,std::_Tree_node<std::basic_string<char,std::char_traits<char>,std::allocator<char> >,void *> * const &>

; 347  :         _Pnode->_Color = _Black;

  00064	66 c7 46 0c 01
	01		 mov	 WORD PTR [esi+12], 257	; 00000101H
  0006a	83 c4 1c	 add	 esp, 28			; 0000001cH

; 2021 :         _Scary->_Myhead = _Node::_Buyheadnode(_Getal());

  0006d	89 75 e8	 mov	 DWORD PTR _ResourceSet$[ebp], esi
; File D:\Metin2 Server Files\mainline\SRC_2014\Metin2Client\UserInterface\PythonSystemModule.cpp

; 33   : 	CResourceManager::Instance().PushBackgroundLoadingSet(ResourceSet);

  00070	8b 0d 00 00 00
	00		 mov	 ecx, DWORD PTR ?ms_singleton@?$CSingleton@VCResourceManager@@@@0PAVCResourceManager@@A ; CSingleton<CResourceManager>::ms_singleton
  00076	8d 45 e8	 lea	 eax, DWORD PTR _ResourceSet$[ebp]
  00079	50		 push	 eax
  0007a	c7 45 fc 00 00
	00 00		 mov	 DWORD PTR __$EHRec$[ebp+8], 0
  00081	e8 00 00 00 00	 call	 ?PushBackgroundLoadingSet@CResourceManager@@QAEXAAV?$set@V?$basic_string@DU?$char_traits@D@std@@V?$allocator@D@2@@std@@U?$less@V?$basic_string@DU?$char_traits@D@std@@V?$allocator@D@2@@std@@@2@V?$allocator@V?$basic_string@DU?$char_traits@D@std@@V?$allocator@D@2@@std@@@2@@std@@@Z ; CResourceManager::PushBackgroundLoadingSet

; 34   : 	return Py_BuildNone();

  00086	e8 00 00 00 00	 call	 ?Py_BuildNone@@YAPAU_object@@XZ ; Py_BuildNone
; File C:\Program Files (x86)\Microsoft Visual Studio\2019\Community\VC\Tools\MSVC\14.28.29333\include\xtree

; 752  :         _Erase_tree(_Al, _Myhead->_Parent);

  0008b	8b 4d e8	 mov	 ecx, DWORD PTR _ResourceSet$[ebp]
; File D:\Metin2 Server Files\mainline\SRC_2014\Metin2Client\UserInterface\PythonSystemModule.cpp

; 34   : 	return Py_BuildNone();

  0008e	8b f0		 mov	 esi, eax
; File C:\Program Files (x86)\Microsoft Visual Studio\2019\Community\VC\Tools\MSVC\14.28.29333\include\xtree

; 752  :         _Erase_tree(_Al, _Myhead->_Parent);

  00090	8d 45 e8	 lea	 eax, DWORD PTR _ResourceSet$[ebp]
  00093	ff 71 04	 push	 DWORD PTR [ecx+4]
  00096	8b c8		 mov	 ecx, eax
  00098	50		 push	 eax
  00099	e8 00 00 00 00	 call	 ??$_Erase_tree@V?$allocator@U?$_Tree_node@V?$basic_string@DU?$char_traits@D@std@@V?$allocator@D@2@@std@@PAX@std@@@std@@@?$_Tree_val@U?$_Tree_simple_types@V?$basic_string@DU?$char_traits@D@std@@V?$allocator@D@2@@std@@@std@@@std@@QAEXAAV?$allocator@U?$_Tree_node@V?$basic_string@DU?$char_traits@D@std@@V?$allocator@D@2@@std@@PAX@std@@@1@PAU?$_Tree_node@V?$basic_string@DU?$char_traits@D@std@@V?$allocator@D@2@@std@@PAX@1@@Z ; std::_Tree_val<std::_Tree_simple_types<std::basic_string<char,std::char_traits<char>,std::allocator<char> > > >::_Erase_tree<std::allocator<std::_Tree_node<std::basic_string<char,std::char_traits<char>,std::allocator<char> >,void *> > >
; File C:\Program Files (x86)\Microsoft Visual Studio\2019\Community\VC\Tools\MSVC\14.28.29333\include\xmemory

; 696  :         _Deallocate<_New_alignof<value_type>>(_Ptr, sizeof(value_type) * _Count);

  0009e	6a 28		 push	 40			; 00000028H
  000a0	ff 75 e8	 push	 DWORD PTR _ResourceSet$[ebp]
  000a3	e8 00 00 00 00	 call	 ??$_Deallocate@$07$0A@@std@@YAXPAXI@Z ; std::_Deallocate<8,0>
  000a8	83 c4 08	 add	 esp, 8
; File D:\Metin2 Server Files\mainline\SRC_2014\Metin2Client\UserInterface\PythonSystemModule.cpp

; 34   : 	return Py_BuildNone();

  000ab	8b c6		 mov	 eax, esi

; 35   : }

  000ad	8b 4d f4	 mov	 ecx, DWORD PTR __$EHRec$[ebp]
  000b0	64 89 0d 00 00
	00 00		 mov	 DWORD PTR fs:0, ecx
  000b7	59		 pop	 ecx
  000b8	5e		 pop	 esi
  000b9	8b e5		 mov	 esp, ebp
  000bb	5d		 pop	 ebp
  000bc	c3		 ret	 0
_TEXT	ENDS
;	COMDAT text$x
text$x	SEGMENT
__unwindfunclet$?systemReserveResource@@YAPAU_object@@PAU1@0@Z$0:
  00000	8d 4d e8	 lea	 ecx, DWORD PTR _ResourceSet$[ebp]
  00003	e9 00 00 00 00	 jmp	 ??1?$set@V?$basic_string@DU?$char_traits@D@std@@V?$allocator@D@2@@std@@U?$less@V?$basic_string@DU?$char_traits@D@std@@V?$allocator@D@2@@std@@@2@V?$allocator@V?$basic_string@DU?$char_traits@D@std@@V?$allocator@D@2@@std@@@2@@std@@QAE@XZ
  00008	cc		 int	 3
  00009	cc		 int	 3
  0000a	cc		 int	 3
  0000b	cc		 int	 3
  0000c	cc		 int	 3
__ehhandler$?systemReserveResource@@YAPAU_object@@PAU1@0@Z:
  0000d	90		 npad	 1
  0000e	90		 npad	 1
  0000f	8b 54 24 08	 mov	 edx, DWORD PTR [esp+8]
  00013	8d 42 0c	 lea	 eax, DWORD PTR [edx+12]
  00016	8b 4a ec	 mov	 ecx, DWORD PTR [edx-20]
  00019	33 c8		 xor	 ecx, eax
  0001b	e8 00 00 00 00	 call	 @__security_check_cookie@4
  00020	b8 00 00 00 00	 mov	 eax, OFFSET __ehfuncinfo$?systemReserveResource@@YAPAU_object@@PAU1@0@Z
  00025	e9 00 00 00 00	 jmp	 ___CxxFrameHandler3
text$x	ENDS
?systemReserveResource@@YAPAU_object@@PAU1@0@Z ENDP	; systemReserveResource
; Function compile flags: /Ogtp
; File D:\Metin2 Server Files\mainline\SRC_2014\Metin2Client\UserInterface\PythonSystemModule.cpp
;	COMDAT ?systemDestroyInterfaceHandler@@YAPAU_object@@PAU1@0@Z
_TEXT	SEGMENT
_poSelf$ = 8						; size = 4
_poArgs$ = 12						; size = 4
?systemDestroyInterfaceHandler@@YAPAU_object@@PAU1@0@Z PROC ; systemDestroyInterfaceHandler, COMDAT

; 26   : 	CPythonSystem::Instance().DestroyInterfaceHandler();

  00000	8b 0d 00 00 00
	00		 mov	 ecx, DWORD PTR ?ms_singleton@?$CSingleton@VCPythonSystem@@@@0PAVCPythonSystem@@A ; CSingleton<CPythonSystem>::ms_singleton
  00006	e8 00 00 00 00	 call	 ?DestroyInterfaceHandler@CPythonSystem@@QAEXXZ ; CPythonSystem::DestroyInterfaceHandler

; 27   : 	return Py_BuildNone();

  0000b	e9 00 00 00 00	 jmp	 ?Py_BuildNone@@YAPAU_object@@XZ ; Py_BuildNone
?systemDestroyInterfaceHandler@@YAPAU_object@@PAU1@0@Z ENDP ; systemDestroyInterfaceHandler
_TEXT	ENDS
; Function compile flags: /Ogtp
; File D:\Metin2 Server Files\mainline\SRC_2014\Metin2Client\UserInterface\PythonSystemModule.cpp
;	COMDAT ?systemSetInterfaceHandler@@YAPAU_object@@PAU1@0@Z
_TEXT	SEGMENT
_poHandler$ = -4					; size = 4
_poSelf$ = 8						; size = 4
_poArgs$ = 12						; size = 4
?systemSetInterfaceHandler@@YAPAU_object@@PAU1@0@Z PROC	; systemSetInterfaceHandler, COMDAT

; 15   : {

  00000	55		 push	 ebp
  00001	8b ec		 mov	 ebp, esp
  00003	51		 push	 ecx

; 16   : 	PyObject* poHandler;
; 17   : 	if (!PyTuple_GetObject(poArgs, 0, &poHandler))

  00004	8d 45 fc	 lea	 eax, DWORD PTR _poHandler$[ebp]
  00007	50		 push	 eax
  00008	6a 00		 push	 0
  0000a	ff 75 0c	 push	 DWORD PTR _poArgs$[ebp]
  0000d	e8 00 00 00 00	 call	 ?PyTuple_GetObject@@YA_NPAU_object@@HPAPAU1@@Z ; PyTuple_GetObject
  00012	83 c4 0c	 add	 esp, 12			; 0000000cH
  00015	84 c0		 test	 al, al
  00017	75 0e		 jne	 SHORT $LN2@systemSetI

; 18   : 		return Py_BuildException();

  00019	6a 00		 push	 0
  0001b	e8 00 00 00 00	 call	 ?Py_BuildException@@YAPAU_object@@PBDZZ ; Py_BuildException
  00020	83 c4 04	 add	 esp, 4

; 22   : }

  00023	8b e5		 mov	 esp, ebp
  00025	5d		 pop	 ebp
  00026	c3		 ret	 0
$LN2@systemSetI:

; 19   : 
; 20   : 	CPythonSystem::Instance().SetInterfaceHandler(poHandler);

  00027	ff 75 fc	 push	 DWORD PTR _poHandler$[ebp]
  0002a	8b 0d 00 00 00
	00		 mov	 ecx, DWORD PTR ?ms_singleton@?$CSingleton@VCPythonSystem@@@@0PAVCPythonSystem@@A ; CSingleton<CPythonSystem>::ms_singleton
  00030	e8 00 00 00 00	 call	 ?SetInterfaceHandler@CPythonSystem@@QAEXPAU_object@@@Z ; CPythonSystem::SetInterfaceHandler

; 21   : 	return Py_BuildNone();

  00035	e8 00 00 00 00	 call	 ?Py_BuildNone@@YAPAU_object@@XZ ; Py_BuildNone

; 22   : }

  0003a	8b e5		 mov	 esp, ebp
  0003c	5d		 pop	 ebp
  0003d	c3		 ret	 0
?systemSetInterfaceHandler@@YAPAU_object@@PAU1@0@Z ENDP	; systemSetInterfaceHandler
_TEXT	ENDS
; Function compile flags: /Ogtp
; File D:\Metin2 Server Files\mainline\SRC_2014\Metin2Client\UserInterface\PythonSystemModule.cpp
;	COMDAT ?systemGetHeight@@YAPAU_object@@PAU1@0@Z
_TEXT	SEGMENT
_poSelf$ = 8						; size = 4
_poArgs$ = 12						; size = 4
?systemGetHeight@@YAPAU_object@@PAU1@0@Z PROC		; systemGetHeight, COMDAT

; 11   : 	return Py_BuildValue("i", CPythonSystem::Instance().GetHeight());

  00000	8b 0d 00 00 00
	00		 mov	 ecx, DWORD PTR ?ms_singleton@?$CSingleton@VCPythonSystem@@@@0PAVCPythonSystem@@A ; CSingleton<CPythonSystem>::ms_singleton
  00006	e8 00 00 00 00	 call	 ?GetHeight@CPythonSystem@@QAEKXZ ; CPythonSystem::GetHeight
  0000b	50		 push	 eax
  0000c	68 00 00 00 00	 push	 OFFSET ??_C@_01KBJDNOO@i@
  00011	ff 15 00 00 00
	00		 call	 DWORD PTR __imp__Py_BuildValue
  00017	83 c4 08	 add	 esp, 8

; 12   : }

  0001a	c3		 ret	 0
?systemGetHeight@@YAPAU_object@@PAU1@0@Z ENDP		; systemGetHeight
_TEXT	ENDS
; Function compile flags: /Ogtp
; File D:\Metin2 Server Files\mainline\SRC_2014\Metin2Client\UserInterface\PythonSystemModule.cpp
;	COMDAT ?systemGetWidth@@YAPAU_object@@PAU1@0@Z
_TEXT	SEGMENT
_poSelf$ = 8						; size = 4
_poArgs$ = 12						; size = 4
?systemGetWidth@@YAPAU_object@@PAU1@0@Z PROC		; systemGetWidth, COMDAT

; 6    : 	return Py_BuildValue("i", CPythonSystem::Instance().GetWidth());

  00000	8b 0d 00 00 00
	00		 mov	 ecx, DWORD PTR ?ms_singleton@?$CSingleton@VCPythonSystem@@@@0PAVCPythonSystem@@A ; CSingleton<CPythonSystem>::ms_singleton
  00006	e8 00 00 00 00	 call	 ?GetWidth@CPythonSystem@@QAEKXZ ; CPythonSystem::GetWidth
  0000b	50		 push	 eax
  0000c	68 00 00 00 00	 push	 OFFSET ??_C@_01KBJDNOO@i@
  00011	ff 15 00 00 00
	00		 call	 DWORD PTR __imp__Py_BuildValue
  00017	83 c4 08	 add	 esp, 8

; 7    : }

  0001a	c3		 ret	 0
?systemGetWidth@@YAPAU_object@@PAU1@0@Z ENDP		; systemGetWidth
_TEXT	ENDS
; Function compile flags: /Ogtp
; File C:\Program Files (x86)\Microsoft Visual Studio\2019\Community\VC\Tools\MSVC\14.28.29333\include\xmemory
;	COMDAT ??$_Allocate_manually_vector_aligned@U_Default_allocate_traits@std@@@std@@YAPAXI@Z
_TEXT	SEGMENT
__Bytes$ = 8						; size = 4
??$_Allocate_manually_vector_aligned@U_Default_allocate_traits@std@@@std@@YAPAXI@Z PROC ; std::_Allocate_manually_vector_aligned<std::_Default_allocate_traits>, COMDAT

; 113  : __declspec(allocator) void* _Allocate_manually_vector_aligned(const size_t _Bytes) {

  00000	55		 push	 ebp
  00001	8b ec		 mov	 ebp, esp

; 114  :     // allocate _Bytes manually aligned to at least _Big_allocation_alignment
; 115  :     const size_t _Block_size = _Non_user_size + _Bytes;

  00003	8b 45 08	 mov	 eax, DWORD PTR __Bytes$[ebp]
  00006	8d 48 23	 lea	 ecx, DWORD PTR [eax+35]

; 116  :     if (_Block_size <= _Bytes) {

  00009	3b c8		 cmp	 ecx, eax
  0000b	0f 86 00 00 00
	00		 jbe	 ?_Throw_bad_array_new_length@std@@YAXXZ ; std::_Throw_bad_array_new_length

; 77   :         return ::operator new(_Bytes);

  00011	51		 push	 ecx
  00012	e8 00 00 00 00	 call	 ??2@YAPAXI@Z		; operator new

; 117  :         _Throw_bad_array_new_length(); // add overflow
; 118  :     }
; 119  : 
; 120  :     const uintptr_t _Ptr_container = reinterpret_cast<uintptr_t>(_Traits::_Allocate(_Block_size));

  00017	8b c8		 mov	 ecx, eax

; 77   :         return ::operator new(_Bytes);

  00019	83 c4 04	 add	 esp, 4

; 121  :     _STL_VERIFY(_Ptr_container != 0, "invalid argument"); // validate even in release since we're doing p[-1]

  0001c	85 c9		 test	 ecx, ecx
  0001e	74 0b		 je	 SHORT $LN7@Allocate_m

; 122  :     void* const _Ptr = reinterpret_cast<void*>((_Ptr_container + _Non_user_size) & ~(_Big_allocation_alignment - 1));

  00020	8d 41 23	 lea	 eax, DWORD PTR [ecx+35]
  00023	83 e0 e0	 and	 eax, -32		; ffffffe0H

; 123  :     static_cast<uintptr_t*>(_Ptr)[-1] = _Ptr_container;

  00026	89 48 fc	 mov	 DWORD PTR [eax-4], ecx

; 124  : 
; 125  : #ifdef _DEBUG
; 126  :     static_cast<uintptr_t*>(_Ptr)[-2] = _Big_allocation_sentinel;
; 127  : #endif // _DEBUG
; 128  :     return _Ptr;
; 129  : }

  00029	5d		 pop	 ebp
  0002a	c3		 ret	 0
$LN7@Allocate_m:

; 121  :     _STL_VERIFY(_Ptr_container != 0, "invalid argument"); // validate even in release since we're doing p[-1]

  0002b	e9 00 00 00 00	 jmp	 __invalid_parameter_noinfo_noreturn
??$_Allocate_manually_vector_aligned@U_Default_allocate_traits@std@@@std@@YAPAXI@Z ENDP ; std::_Allocate_manually_vector_aligned<std::_Default_allocate_traits>
_TEXT	ENDS
; Function compile flags: /Ogtp
; File C:\Program Files (x86)\Microsoft Visual Studio\2019\Community\VC\Tools\MSVC\14.28.29333\include\xmemory
;	COMDAT ??$_Allocate@$07U_Default_allocate_traits@std@@$0A@@std@@YAPAXI@Z
_TEXT	SEGMENT
__Bytes$ = 8						; size = 4
??$_Allocate@$07U_Default_allocate_traits@std@@$0A@@std@@YAPAXI@Z PROC ; std::_Allocate<8,std::_Default_allocate_traits,0>, COMDAT

; 197  : __declspec(allocator) void* _Allocate(const size_t _Bytes) {

  00000	55		 push	 ebp
  00001	8b ec		 mov	 ebp, esp

; 198  :     // allocate _Bytes when !_HAS_ALIGNED_NEW || _Align <= __STDCPP_DEFAULT_NEW_ALIGNMENT__
; 199  : #if defined(_M_IX86) || defined(_M_X64)
; 200  :     if (_Bytes >= _Big_allocation_threshold) { // boost the alignment of big allocations to help autovectorization

  00003	8b 45 08	 mov	 eax, DWORD PTR __Bytes$[ebp]
  00006	3d 00 10 00 00	 cmp	 eax, 4096		; 00001000H
  0000b	72 09		 jb	 SHORT $LN2@Allocate

; 201  :         return _Allocate_manually_vector_aligned<_Traits>(_Bytes);

  0000d	89 45 08	 mov	 DWORD PTR __Bytes$[ebp], eax

; 210  : }

  00010	5d		 pop	 ebp

; 201  :         return _Allocate_manually_vector_aligned<_Traits>(_Bytes);

  00011	e9 00 00 00 00	 jmp	 ??$_Allocate_manually_vector_aligned@U_Default_allocate_traits@std@@@std@@YAPAXI@Z ; std::_Allocate_manually_vector_aligned<std::_Default_allocate_traits>
$LN2@Allocate:

; 202  :     }
; 203  : #endif // defined(_M_IX86) || defined(_M_X64)
; 204  : 
; 205  :     if (_Bytes != 0) {

  00016	85 c0		 test	 eax, eax
  00018	74 09		 je	 SHORT $LN3@Allocate

; 77   :         return ::operator new(_Bytes);

  0001a	89 45 08	 mov	 DWORD PTR __Bytes$[ebp], eax

; 210  : }

  0001d	5d		 pop	 ebp

; 77   :         return ::operator new(_Bytes);

  0001e	e9 00 00 00 00	 jmp	 ??2@YAPAXI@Z		; operator new
$LN3@Allocate:

; 206  :         return _Traits::_Allocate(_Bytes);
; 207  :     }
; 208  : 
; 209  :     return nullptr;

  00023	33 c0		 xor	 eax, eax

; 210  : }

  00025	5d		 pop	 ebp
  00026	c3		 ret	 0
??$_Allocate@$07U_Default_allocate_traits@std@@$0A@@std@@YAPAXI@Z ENDP ; std::_Allocate<8,std::_Default_allocate_traits,0>
_TEXT	ENDS
; Function compile flags: /Ogtp
; File C:\Program Files (x86)\Microsoft Visual Studio\2019\Community\VC\Tools\MSVC\14.28.29333\include\xmemory
;	COMDAT ??$_Deallocate@$07$0A@@std@@YAXPAXI@Z
_TEXT	SEGMENT
__Ptr$ = 8						; size = 4
__Bytes$ = 12						; size = 4
??$_Deallocate@$07$0A@@std@@YAXPAXI@Z PROC		; std::_Deallocate<8,0>, COMDAT

; 213  : void _Deallocate(void* _Ptr, size_t _Bytes) noexcept {

  00000	55		 push	 ebp
  00001	8b ec		 mov	 ebp, esp

; 214  :     // deallocate storage allocated by _Allocate when !_HAS_ALIGNED_NEW || _Align <= __STDCPP_DEFAULT_NEW_ALIGNMENT__
; 215  : #if defined(_M_IX86) || defined(_M_X64)
; 216  :     if (_Bytes >= _Big_allocation_threshold) { // boost the alignment of big allocations to help autovectorization

  00003	8b 4d 0c	 mov	 ecx, DWORD PTR __Bytes$[ebp]
  00006	81 f9 00 10 00
	00		 cmp	 ecx, 4096		; 00001000H
  0000c	72 18		 jb	 SHORT $LN15@Deallocate

; 137  :     const uintptr_t _Ptr_container   = _Ptr_user[-1];

  0000e	8b 45 08	 mov	 eax, DWORD PTR __Ptr$[ebp]
  00011	83 c1 23	 add	 ecx, 35			; 00000023H
  00014	8b 50 fc	 mov	 edx, DWORD PTR [eax-4]

; 138  : 
; 139  :     // If the following asserts, it likely means that we are performing
; 140  :     // an aligned delete on memory coming from an unaligned allocation.
; 141  :     _STL_ASSERT(_Ptr_user[-2] == _Big_allocation_sentinel, "invalid argument");
; 142  : 
; 143  :     // Extra paranoia on aligned allocation/deallocation; ensure _Ptr_container is
; 144  :     // in range [_Min_back_shift, _Non_user_size]
; 145  : #ifdef _DEBUG
; 146  :     constexpr uintptr_t _Min_back_shift = 2 * sizeof(void*);
; 147  : #else // ^^^ _DEBUG ^^^ // vvv !_DEBUG vvv
; 148  :     constexpr uintptr_t _Min_back_shift = sizeof(void*);
; 149  : #endif // _DEBUG
; 150  :     const uintptr_t _Back_shift = reinterpret_cast<uintptr_t>(_Ptr) - _Ptr_container;

  00017	2b c2		 sub	 eax, edx

; 151  :     _STL_VERIFY(_Back_shift >= _Min_back_shift && _Back_shift <= _Non_user_size, "invalid argument");

  00019	83 c0 fc	 add	 eax, -4			; fffffffcH
  0001c	83 f8 1f	 cmp	 eax, 31			; 0000001fH
  0001f	76 08		 jbe	 SHORT $LN13@Deallocate
  00021	e9 00 00 00 00	 jmp	 __invalid_parameter_noinfo_noreturn
$LN15@Deallocate:

; 214  :     // deallocate storage allocated by _Allocate when !_HAS_ALIGNED_NEW || _Align <= __STDCPP_DEFAULT_NEW_ALIGNMENT__
; 215  : #if defined(_M_IX86) || defined(_M_X64)
; 216  :     if (_Bytes >= _Big_allocation_threshold) { // boost the alignment of big allocations to help autovectorization

  00026	8b 55 08	 mov	 edx, DWORD PTR __Ptr$[ebp]
$LN13@Deallocate:

; 217  :         _Adjust_manually_vector_aligned(_Ptr, _Bytes);
; 218  :     }
; 219  : #endif // defined(_M_IX86) || defined(_M_X64)
; 220  : 
; 221  :     ::operator delete(_Ptr, _Bytes);

  00029	89 4d 0c	 mov	 DWORD PTR __Bytes$[ebp], ecx
  0002c	89 55 08	 mov	 DWORD PTR __Ptr$[ebp], edx

; 222  : }

  0002f	5d		 pop	 ebp

; 217  :         _Adjust_manually_vector_aligned(_Ptr, _Bytes);
; 218  :     }
; 219  : #endif // defined(_M_IX86) || defined(_M_X64)
; 220  : 
; 221  :     ::operator delete(_Ptr, _Bytes);

  00030	e9 00 00 00 00	 jmp	 ??3@YAXPAXI@Z		; operator delete
??$_Deallocate@$07$0A@@std@@YAXPAXI@Z ENDP		; std::_Deallocate<8,0>
_TEXT	ENDS
; Function compile flags: /Ogtp
; File C:\Program Files (x86)\Microsoft Visual Studio\2019\Community\VC\Tools\MSVC\14.28.29333\include\xmemory
;	COMDAT ??$_Destroy_in_place@PAD@std@@YAXAAPAD@Z
_TEXT	SEGMENT
__Obj$ = 8						; size = 4
??$_Destroy_in_place@PAD@std@@YAXAAPAD@Z PROC		; std::_Destroy_in_place<char *>, COMDAT

; 271  : #if _HAS_IF_CONSTEXPR
; 272  :     if constexpr (is_array_v<_Ty>) {
; 273  :         _Destroy_range(_Obj, _Obj + extent_v<_Ty>);
; 274  :     } else
; 275  : #endif // _HAS_IF_CONSTEXPR
; 276  :     {
; 277  :         _Obj.~_Ty();
; 278  :     }
; 279  : }

  00000	c2 00 00	 ret	 0
??$_Destroy_in_place@PAD@std@@YAXAAPAD@Z ENDP		; std::_Destroy_in_place<char *>
_TEXT	ENDS
; Function compile flags: /Ogtp
; File D:\Metin2 Server Files\mainline\SRC_2014\Metin2Client\UserInterface\PythonSystemModule.cpp
;	COMDAT ?initsystem@@YAXXZ
_TEXT	SEGMENT
?initsystem@@YAXXZ PROC					; initsystem, COMDAT

; 376  : {

  00000	56		 push	 esi
  00001	57		 push	 edi

; 377  : 	static PyMethodDef s_methods[] =
; 378  : 	{
; 379  : 		{ "GetWidth",					systemGetWidth,					METH_VARARGS },
; 380  : 		{ "GetHeight",					systemGetHeight,				METH_VARARGS },
; 381  : 
; 382  : 		{ "SetInterfaceHandler",		systemSetInterfaceHandler,		METH_VARARGS },
; 383  : 		{ "DestroyInterfaceHandler",	systemDestroyInterfaceHandler,	METH_VARARGS },
; 384  : 		{ "ReserveResource",			systemReserveResource,			METH_VARARGS },
; 385  : 
; 386  : 		{ "isInterfaceConfig",			systemisInterfaceConfig,		METH_VARARGS },
; 387  : 		{ "SaveWindowStatus",			systemSaveWindowStatus,			METH_VARARGS },
; 388  : 		{ "GetWindowStatus",			systemGetWindowStatus,			METH_VARARGS },
; 389  : 
; 390  : 		{ "GetResolutionCount",			systemGetResolutionCount,		METH_VARARGS },
; 391  : 		{ "GetFrequencyCount",			systemGetFrequencyCount,		METH_VARARGS },
; 392  : 
; 393  : 		{ "GetCurrentResolution",		systemGetCurrentResolution,		METH_VARARGS },
; 394  : 
; 395  : 		{ "GetResolution",				systemGetResolution,			METH_VARARGS },
; 396  : 		{ "GetFrequency",				systemGetFrequency,				METH_VARARGS },
; 397  : 
; 398  : 		{ "ApplyConfig",				systemApplyConfig,				METH_VARARGS },
; 399  : 		{ "SetConfig",					systemSetConfig,				METH_VARARGS },
; 400  : 		{ "SaveConfig",					systemSaveConfig,				METH_VARARGS },
; 401  : 		{ "GetConfig",					systemGetConfig,				METH_VARARGS },
; 402  : 
; 403  : 		{ "SetSaveID",					systemSetSaveID,				METH_VARARGS },
; 404  : 		{ "isSaveID",					systemisSaveID,					METH_VARARGS },
; 405  : 		{ "GetSaveID",					systemGetSaveID,				METH_VARARGS },
; 406  : 
; 407  : 		{ "GetMusicVolume",				systemGetMusicVolume,			METH_VARARGS },
; 408  : 		{ "GetSoundVolume",				systemGetSoundVolume,			METH_VARARGS },
; 409  : 
; 410  : 		{ "SetMusicVolume",				systemSetMusicVolume,			METH_VARARGS },
; 411  : 		{ "SetSoundVolumef",			systemSetSoundVolumef,			METH_VARARGS },
; 412  : 		{ "IsSoftwareCursor",			systemIsSoftwareCursor,			METH_VARARGS },
; 413  : 
; 414  : 		{ "SetViewChatFlag",			systemSetViewChatFlag,			METH_VARARGS },
; 415  : 		{ "IsViewChat",					systemIsViewChat,				METH_VARARGS },
; 416  : 
; 417  : 		{ "SetAlwaysShowNameFlag",		systemSetAlwaysShowNameFlag,	METH_VARARGS },
; 418  : 		{ "IsAlwaysShowName",			systemIsAlwaysShowName,			METH_VARARGS },
; 419  : 
; 420  : 		{ "SetShowDamageFlag",			systemSetShowDamageFlag,		METH_VARARGS },
; 421  : 		{ "IsShowDamage",				systemIsShowDamage,				METH_VARARGS },
; 422  : 
; 423  : 		{ "SetShowSalesTextFlag",		systemSetShowSalesTextFlag,		METH_VARARGS },
; 424  : 		{ "IsShowSalesText",			systemIsShowSalesText,			METH_VARARGS },
; 425  : 
; 426  : 		{ "GetShadowLevel",				systemGetShadowLevel,			METH_VARARGS },
; 427  : 		{ "SetShadowLevel",				systemSetShadowLevel,			METH_VARARGS },
; 428  : 
; 429  : 		{ NULL,							NULL,							NULL }
; 430  : 	};
; 431  : 
; 432  : 	PyObject * poModule = Py_InitModule("systemSetting", s_methods);

  00002	68 f5 03 00 00	 push	 1013			; 000003f5H
  00007	6a 00		 push	 0
  00009	6a 00		 push	 0
  0000b	68 00 00 00 00	 push	 OFFSET ?s_methods@?1??initsystem@@YAXXZ@4PAUPyMethodDef@@A
  00010	68 00 00 00 00	 push	 OFFSET ??_C@_0O@LCPLIAAE@systemSetting@
  00015	ff 15 00 00 00
	00		 call	 DWORD PTR __imp__Py_InitModule4

; 433  : 
; 434  : 	PyModule_AddIntConstant(poModule, "WINDOW_STATUS",		CPythonSystem::WINDOW_STATUS);

  0001b	8b 35 00 00 00
	00		 mov	 esi, DWORD PTR __imp__PyModule_AddIntConstant
  00021	8b f8		 mov	 edi, eax
  00023	6a 00		 push	 0
  00025	68 00 00 00 00	 push	 OFFSET ??_C@_0O@EDOCFBFG@WINDOW_STATUS@
  0002a	57		 push	 edi
  0002b	ff d6		 call	 esi

; 435  : 	PyModule_AddIntConstant(poModule, "WINDOW_INVENTORY",	CPythonSystem::WINDOW_INVENTORY);

  0002d	6a 01		 push	 1
  0002f	68 00 00 00 00	 push	 OFFSET ??_C@_0BB@CHCHLBGG@WINDOW_INVENTORY@
  00034	57		 push	 edi
  00035	ff d6		 call	 esi

; 436  : 	PyModule_AddIntConstant(poModule, "WINDOW_ABILITY",		CPythonSystem::WINDOW_ABILITY);

  00037	6a 02		 push	 2
  00039	68 00 00 00 00	 push	 OFFSET ??_C@_0P@HAOBMPKD@WINDOW_ABILITY@
  0003e	57		 push	 edi
  0003f	ff d6		 call	 esi

; 437  : 	PyModule_AddIntConstant(poModule, "WINDOW_SOCIETY",		CPythonSystem::WINDOW_SOCIETY);

  00041	6a 03		 push	 3
  00043	68 00 00 00 00	 push	 OFFSET ??_C@_0P@MAFILJL@WINDOW_SOCIETY@
  00048	57		 push	 edi
  00049	ff d6		 call	 esi
  0004b	83 c4 44	 add	 esp, 68			; 00000044H

; 438  : 	PyModule_AddIntConstant(poModule, "WINDOW_JOURNAL",		CPythonSystem::WINDOW_JOURNAL);

  0004e	6a 04		 push	 4
  00050	68 00 00 00 00	 push	 OFFSET ??_C@_0P@FHBHOGAA@WINDOW_JOURNAL@
  00055	57		 push	 edi
  00056	ff d6		 call	 esi

; 439  : 	PyModule_AddIntConstant(poModule, "WINDOW_COMMAND",		CPythonSystem::WINDOW_COMMAND);

  00058	6a 05		 push	 5
  0005a	68 00 00 00 00	 push	 OFFSET ??_C@_0P@NOILKAON@WINDOW_COMMAND@
  0005f	57		 push	 edi
  00060	ff d6		 call	 esi

; 440  : 
; 441  : 	PyModule_AddIntConstant(poModule, "WINDOW_QUICK",		CPythonSystem::WINDOW_QUICK);

  00062	6a 06		 push	 6
  00064	68 00 00 00 00	 push	 OFFSET ??_C@_0N@BOOBGFI@WINDOW_QUICK@
  00069	57		 push	 edi
  0006a	ff d6		 call	 esi

; 442  : 	PyModule_AddIntConstant(poModule, "WINDOW_GAUGE",		CPythonSystem::WINDOW_GAUGE);

  0006c	6a 07		 push	 7
  0006e	68 00 00 00 00	 push	 OFFSET ??_C@_0N@MCEEKLOJ@WINDOW_GAUGE@
  00073	57		 push	 edi
  00074	ff d6		 call	 esi

; 443  : 	PyModule_AddIntConstant(poModule, "WINDOW_MINIMAP",		CPythonSystem::WINDOW_MINIMAP);

  00076	6a 08		 push	 8
  00078	68 00 00 00 00	 push	 OFFSET ??_C@_0P@LEOBHMFL@WINDOW_MINIMAP@
  0007d	57		 push	 edi
  0007e	ff d6		 call	 esi

; 444  : 	PyModule_AddIntConstant(poModule, "WINDOW_CHAT",		CPythonSystem::WINDOW_CHAT);

  00080	6a 09		 push	 9
  00082	68 00 00 00 00	 push	 OFFSET ??_C@_0M@GHKKFINH@WINDOW_CHAT@
  00087	57		 push	 edi
  00088	ff d6		 call	 esi
  0008a	83 c4 48	 add	 esp, 72			; 00000048H
  0008d	5f		 pop	 edi
  0008e	5e		 pop	 esi

; 445  : }

  0008f	c3		 ret	 0
?initsystem@@YAXXZ ENDP					; initsystem
_TEXT	ENDS
; Function compile flags: /Ogtp
; File C:\Program Files (x86)\Microsoft Visual Studio\2019\Community\VC\Tools\MSVC\14.28.29333\include\exception
;	COMDAT ?_Throw_bad_array_new_length@std@@YAXXZ
_TEXT	SEGMENT
$T1 = -12						; size = 12
?_Throw_bad_array_new_length@std@@YAXXZ PROC		; std::_Throw_bad_array_new_length, COMDAT

; 320  : [[noreturn]] inline void _Throw_bad_array_new_length() {

  00000	55		 push	 ebp
  00001	8b ec		 mov	 ebp, esp
  00003	83 ec 0c	 sub	 esp, 12			; 0000000cH

; 321  :     _THROW(bad_array_new_length{});

  00006	8d 4d f4	 lea	 ecx, DWORD PTR $T1[ebp]
  00009	e8 00 00 00 00	 call	 ??0bad_array_new_length@std@@QAE@XZ ; std::bad_array_new_length::bad_array_new_length
  0000e	68 00 00 00 00	 push	 OFFSET __TI3?AVbad_array_new_length@std@@
  00013	8d 45 f4	 lea	 eax, DWORD PTR $T1[ebp]
  00016	50		 push	 eax
  00017	e8 00 00 00 00	 call	 __CxxThrowException@8
$LN3@Throw_bad_:
  0001c	cc		 int	 3
?_Throw_bad_array_new_length@std@@YAXXZ ENDP		; std::_Throw_bad_array_new_length
_TEXT	ENDS
; Function compile flags: /Ogtp
; File C:\Program Files (x86)\Microsoft Visual Studio\2019\Community\VC\Tools\MSVC\14.28.29333\include\vcruntime_exception.h
;	COMDAT ??_Gbad_array_new_length@std@@UAEPAXI@Z
_TEXT	SEGMENT
___flags$ = 8						; size = 4
??_Gbad_array_new_length@std@@UAEPAXI@Z PROC		; std::bad_array_new_length::`scalar deleting destructor', COMDAT
; _this$ = ecx
  00000	55		 push	 ebp
  00001	8b ec		 mov	 ebp, esp

; 89   :     {

  00003	56		 push	 esi
  00004	8b f1		 mov	 esi, ecx

; 90   :         __std_exception_destroy(&_Data);

  00006	8d 46 04	 lea	 eax, DWORD PTR [esi+4]
  00009	c7 06 00 00 00
	00		 mov	 DWORD PTR [esi], OFFSET ??_7exception@std@@6B@
  0000f	50		 push	 eax
  00010	e8 00 00 00 00	 call	 ___std_exception_destroy
  00015	83 c4 04	 add	 esp, 4
  00018	f6 45 08 01	 test	 BYTE PTR ___flags$[ebp], 1
  0001c	74 0b		 je	 SHORT $LN12@scalar
  0001e	6a 0c		 push	 12			; 0000000cH
  00020	56		 push	 esi
  00021	e8 00 00 00 00	 call	 ??3@YAXPAXI@Z		; operator delete
  00026	83 c4 08	 add	 esp, 8
$LN12@scalar:
  00029	8b c6		 mov	 eax, esi
  0002b	5e		 pop	 esi
  0002c	5d		 pop	 ebp
  0002d	c2 04 00	 ret	 4
??_Gbad_array_new_length@std@@UAEPAXI@Z ENDP		; std::bad_array_new_length::`scalar deleting destructor'
_TEXT	ENDS
; Function compile flags: /Ogtp
; File C:\Program Files (x86)\Microsoft Visual Studio\2019\Community\VC\Tools\MSVC\14.28.29333\include\vcruntime_exception.h
;	COMDAT ??0bad_array_new_length@std@@QAE@ABV01@@Z
_TEXT	SEGMENT
___that$ = 8						; size = 4
??0bad_array_new_length@std@@QAE@ABV01@@Z PROC		; std::bad_array_new_length::bad_array_new_length, COMDAT
; _this$ = ecx
  00000	55		 push	 ebp
  00001	8b ec		 mov	 ebp, esp

; 72   :     {

  00003	56		 push	 esi
  00004	8b f1		 mov	 esi, ecx
  00006	0f 57 c0	 xorps	 xmm0, xmm0

; 71   :         : _Data()

  00009	8d 46 04	 lea	 eax, DWORD PTR [esi+4]

; 73   :         __std_exception_copy(&_Other._Data, &_Data);

  0000c	50		 push	 eax
  0000d	c7 06 00 00 00
	00		 mov	 DWORD PTR [esi], OFFSET ??_7exception@std@@6B@
  00013	66 0f d6 00	 movq	 QWORD PTR [eax], xmm0
  00017	8b 45 08	 mov	 eax, DWORD PTR ___that$[ebp]
  0001a	83 c0 04	 add	 eax, 4
  0001d	50		 push	 eax
  0001e	e8 00 00 00 00	 call	 ___std_exception_copy
  00023	83 c4 08	 add	 esp, 8
  00026	c7 06 00 00 00
	00		 mov	 DWORD PTR [esi], OFFSET ??_7bad_array_new_length@std@@6B@
  0002c	8b c6		 mov	 eax, esi
  0002e	5e		 pop	 esi
  0002f	5d		 pop	 ebp
  00030	c2 04 00	 ret	 4
??0bad_array_new_length@std@@QAE@ABV01@@Z ENDP		; std::bad_array_new_length::bad_array_new_length
_TEXT	ENDS
; Function compile flags: /Ogtp
; File C:\Program Files (x86)\Microsoft Visual Studio\2019\Community\VC\Tools\MSVC\14.28.29333\include\vcruntime_exception.h
;	COMDAT ??1bad_array_new_length@std@@UAE@XZ
_TEXT	SEGMENT
??1bad_array_new_length@std@@UAE@XZ PROC		; std::bad_array_new_length::~bad_array_new_length, COMDAT
; _this$ = ecx

; 90   :         __std_exception_destroy(&_Data);

  00000	8d 41 04	 lea	 eax, DWORD PTR [ecx+4]
  00003	c7 01 00 00 00
	00		 mov	 DWORD PTR [ecx], OFFSET ??_7exception@std@@6B@
  00009	50		 push	 eax
  0000a	e8 00 00 00 00	 call	 ___std_exception_destroy
  0000f	59		 pop	 ecx
  00010	c3		 ret	 0
??1bad_array_new_length@std@@UAE@XZ ENDP		; std::bad_array_new_length::~bad_array_new_length
_TEXT	ENDS
; Function compile flags: /Ogtp
; File C:\Program Files (x86)\Microsoft Visual Studio\2019\Community\VC\Tools\MSVC\14.28.29333\include\vcruntime_exception.h
;	COMDAT ??0bad_array_new_length@std@@QAE@XZ
_TEXT	SEGMENT
??0bad_array_new_length@std@@QAE@XZ PROC		; std::bad_array_new_length::bad_array_new_length, COMDAT
; _this$ = ecx

; 141  :     {

  00000	0f 57 c0	 xorps	 xmm0, xmm0

; 142  :     }

  00003	8b c1		 mov	 eax, ecx

; 65   :         : _Data()

  00005	66 0f d6 41 04	 movq	 QWORD PTR [ecx+4], xmm0

; 66   :     {
; 67   :         _Data._What = _Message;

  0000a	c7 41 04 00 00
	00 00		 mov	 DWORD PTR [ecx+4], OFFSET ??_C@_0BF@KINCDENJ@bad?5array?5new?5length@

; 141  :     {

  00011	c7 01 00 00 00
	00		 mov	 DWORD PTR [ecx], OFFSET ??_7bad_array_new_length@std@@6B@

; 142  :     }

  00017	c3		 ret	 0
??0bad_array_new_length@std@@QAE@XZ ENDP		; std::bad_array_new_length::bad_array_new_length
_TEXT	ENDS
; Function compile flags: /Ogtp
; File C:\Program Files (x86)\Microsoft Visual Studio\2019\Community\VC\Tools\MSVC\14.28.29333\include\vcruntime_exception.h
;	COMDAT ??_Gbad_alloc@std@@UAEPAXI@Z
_TEXT	SEGMENT
___flags$ = 8						; size = 4
??_Gbad_alloc@std@@UAEPAXI@Z PROC			; std::bad_alloc::`scalar deleting destructor', COMDAT
; _this$ = ecx
  00000	55		 push	 ebp
  00001	8b ec		 mov	 ebp, esp

; 89   :     {

  00003	56		 push	 esi
  00004	8b f1		 mov	 esi, ecx

; 90   :         __std_exception_destroy(&_Data);

  00006	8d 46 04	 lea	 eax, DWORD PTR [esi+4]
  00009	c7 06 00 00 00
	00		 mov	 DWORD PTR [esi], OFFSET ??_7exception@std@@6B@
  0000f	50		 push	 eax
  00010	e8 00 00 00 00	 call	 ___std_exception_destroy
  00015	83 c4 04	 add	 esp, 4
  00018	f6 45 08 01	 test	 BYTE PTR ___flags$[ebp], 1
  0001c	74 0b		 je	 SHORT $LN9@scalar
  0001e	6a 0c		 push	 12			; 0000000cH
  00020	56		 push	 esi
  00021	e8 00 00 00 00	 call	 ??3@YAXPAXI@Z		; operator delete
  00026	83 c4 08	 add	 esp, 8
$LN9@scalar:
  00029	8b c6		 mov	 eax, esi
  0002b	5e		 pop	 esi
  0002c	5d		 pop	 ebp
  0002d	c2 04 00	 ret	 4
??_Gbad_alloc@std@@UAEPAXI@Z ENDP			; std::bad_alloc::`scalar deleting destructor'
_TEXT	ENDS
; Function compile flags: /Ogtp
; File C:\Program Files (x86)\Microsoft Visual Studio\2019\Community\VC\Tools\MSVC\14.28.29333\include\vcruntime_exception.h
;	COMDAT ??0bad_alloc@std@@QAE@ABV01@@Z
_TEXT	SEGMENT
___that$ = 8						; size = 4
??0bad_alloc@std@@QAE@ABV01@@Z PROC			; std::bad_alloc::bad_alloc, COMDAT
; _this$ = ecx
  00000	55		 push	 ebp
  00001	8b ec		 mov	 ebp, esp

; 72   :     {

  00003	56		 push	 esi
  00004	8b f1		 mov	 esi, ecx
  00006	0f 57 c0	 xorps	 xmm0, xmm0

; 71   :         : _Data()

  00009	8d 46 04	 lea	 eax, DWORD PTR [esi+4]

; 73   :         __std_exception_copy(&_Other._Data, &_Data);

  0000c	50		 push	 eax
  0000d	c7 06 00 00 00
	00		 mov	 DWORD PTR [esi], OFFSET ??_7exception@std@@6B@
  00013	66 0f d6 00	 movq	 QWORD PTR [eax], xmm0
  00017	8b 45 08	 mov	 eax, DWORD PTR ___that$[ebp]
  0001a	83 c0 04	 add	 eax, 4
  0001d	50		 push	 eax
  0001e	e8 00 00 00 00	 call	 ___std_exception_copy
  00023	83 c4 08	 add	 esp, 8
  00026	c7 06 00 00 00
	00		 mov	 DWORD PTR [esi], OFFSET ??_7bad_alloc@std@@6B@
  0002c	8b c6		 mov	 eax, esi
  0002e	5e		 pop	 esi
  0002f	5d		 pop	 ebp
  00030	c2 04 00	 ret	 4
??0bad_alloc@std@@QAE@ABV01@@Z ENDP			; std::bad_alloc::bad_alloc
_TEXT	ENDS
; Function compile flags: /Ogtp
; File C:\Program Files (x86)\Microsoft Visual Studio\2019\Community\VC\Tools\MSVC\14.28.29333\include\vcruntime_exception.h
;	COMDAT ??_Gexception@std@@UAEPAXI@Z
_TEXT	SEGMENT
___flags$ = 8						; size = 4
??_Gexception@std@@UAEPAXI@Z PROC			; std::exception::`scalar deleting destructor', COMDAT
; _this$ = ecx
  00000	55		 push	 ebp
  00001	8b ec		 mov	 ebp, esp

; 89   :     {

  00003	56		 push	 esi
  00004	8b f1		 mov	 esi, ecx

; 90   :         __std_exception_destroy(&_Data);

  00006	8d 46 04	 lea	 eax, DWORD PTR [esi+4]
  00009	c7 06 00 00 00
	00		 mov	 DWORD PTR [esi], OFFSET ??_7exception@std@@6B@
  0000f	50		 push	 eax
  00010	e8 00 00 00 00	 call	 ___std_exception_destroy
  00015	83 c4 04	 add	 esp, 4
  00018	f6 45 08 01	 test	 BYTE PTR ___flags$[ebp], 1
  0001c	74 0b		 je	 SHORT $LN6@scalar
  0001e	6a 0c		 push	 12			; 0000000cH
  00020	56		 push	 esi
  00021	e8 00 00 00 00	 call	 ??3@YAXPAXI@Z		; operator delete
  00026	83 c4 08	 add	 esp, 8
$LN6@scalar:
  00029	8b c6		 mov	 eax, esi
  0002b	5e		 pop	 esi
  0002c	5d		 pop	 ebp
  0002d	c2 04 00	 ret	 4
??_Gexception@std@@UAEPAXI@Z ENDP			; std::exception::`scalar deleting destructor'
_TEXT	ENDS
; Function compile flags: /Ogtp
; File C:\Program Files (x86)\Microsoft Visual Studio\2019\Community\VC\Tools\MSVC\14.28.29333\include\vcruntime_exception.h
;	COMDAT ?what@exception@std@@UBEPBDXZ
_TEXT	SEGMENT
?what@exception@std@@UBEPBDXZ PROC			; std::exception::what, COMDAT
; _this$ = ecx

; 95   :         return _Data._What ? _Data._What : "Unknown exception";

  00000	8b 49 04	 mov	 ecx, DWORD PTR [ecx+4]
  00003	b8 00 00 00 00	 mov	 eax, OFFSET ??_C@_0BC@EOODALEL@Unknown?5exception@
  00008	85 c9		 test	 ecx, ecx
  0000a	0f 45 c1	 cmovne	 eax, ecx

; 96   :     }

  0000d	c3		 ret	 0
?what@exception@std@@UBEPBDXZ ENDP			; std::exception::what
_TEXT	ENDS
; Function compile flags: /Ogtp
; File C:\Program Files (x86)\Microsoft Visual Studio\2019\Community\VC\Tools\MSVC\14.28.29333\include\vcruntime_exception.h
;	COMDAT ??1exception@std@@UAE@XZ
_TEXT	SEGMENT
??1exception@std@@UAE@XZ PROC				; std::exception::~exception, COMDAT
; _this$ = ecx

; 90   :         __std_exception_destroy(&_Data);

  00000	8d 41 04	 lea	 eax, DWORD PTR [ecx+4]
  00003	c7 01 00 00 00
	00		 mov	 DWORD PTR [ecx], OFFSET ??_7exception@std@@6B@
  00009	50		 push	 eax
  0000a	e8 00 00 00 00	 call	 ___std_exception_destroy
  0000f	59		 pop	 ecx

; 91   :     }

  00010	c3		 ret	 0
??1exception@std@@UAE@XZ ENDP				; std::exception::~exception
_TEXT	ENDS
; Function compile flags: /Ogtp
; File C:\Program Files (x86)\Microsoft Visual Studio\2019\Community\VC\Tools\MSVC\14.28.29333\include\vcruntime_exception.h
;	COMDAT ??0exception@std@@QAE@ABV01@@Z
_TEXT	SEGMENT
__Other$ = 8						; size = 4
??0exception@std@@QAE@ABV01@@Z PROC			; std::exception::exception, COMDAT
; _this$ = ecx

; 72   :     {

  00000	55		 push	 ebp
  00001	8b ec		 mov	 ebp, esp
  00003	56		 push	 esi
  00004	8b f1		 mov	 esi, ecx
  00006	0f 57 c0	 xorps	 xmm0, xmm0
  00009	8d 46 04	 lea	 eax, DWORD PTR [esi+4]

; 73   :         __std_exception_copy(&_Other._Data, &_Data);

  0000c	50		 push	 eax
  0000d	c7 06 00 00 00
	00		 mov	 DWORD PTR [esi], OFFSET ??_7exception@std@@6B@
  00013	66 0f d6 00	 movq	 QWORD PTR [eax], xmm0
  00017	8b 45 08	 mov	 eax, DWORD PTR __Other$[ebp]
  0001a	83 c0 04	 add	 eax, 4
  0001d	50		 push	 eax
  0001e	e8 00 00 00 00	 call	 ___std_exception_copy
  00023	83 c4 08	 add	 esp, 8

; 74   :     }

  00026	8b c6		 mov	 eax, esi
  00028	5e		 pop	 esi
  00029	5d		 pop	 ebp
  0002a	c2 04 00	 ret	 4
??0exception@std@@QAE@ABV01@@Z ENDP			; std::exception::exception
_TEXT	ENDS
END
