; Listing generated by Microsoft (R) Optimizing Compiler Version 19.28.29335.0 

	TITLE	D:\Metin2 Server Files\mainline\SRC_2014\Metin2Client\UserInterface\PythonIME.cpp
	.686P
	.XMM
	include listing.inc
	.model	flat

INCLUDELIB LIBCMT
INCLUDELIB OLDNAMES

PUBLIC	??1?$CSingleton@VCPythonIME@@@@UAE@XZ		; CSingleton<CPythonIME>::~CSingleton<CPythonIME>
PUBLIC	??_G?$CSingleton@VCPythonIME@@@@UAEPAXI@Z	; CSingleton<CPythonIME>::`scalar deleting destructor'
PUBLIC	??0CPythonIME@@QAE@XZ				; CPythonIME::CPythonIME
PUBLIC	??1CPythonIME@@UAE@XZ				; CPythonIME::~CPythonIME
PUBLIC	?MoveLeft@CPythonIME@@QAEXXZ			; CPythonIME::MoveLeft
PUBLIC	?MoveRight@CPythonIME@@QAEXXZ			; CPythonIME::MoveRight
PUBLIC	?MoveHome@CPythonIME@@QAEXXZ			; CPythonIME::MoveHome
PUBLIC	?MoveEnd@CPythonIME@@QAEXXZ			; CPythonIME::MoveEnd
PUBLIC	?SetCursorPosition@CPythonIME@@QAEXH@Z		; CPythonIME::SetCursorPosition
PUBLIC	?Delete@CPythonIME@@QAEXXZ			; CPythonIME::Delete
PUBLIC	?Create@CPythonIME@@QAEXPAUHWND__@@@Z		; CPythonIME::Create
PUBLIC	?OnTab@CPythonIME@@MAEXXZ			; CPythonIME::OnTab
PUBLIC	?OnReturn@CPythonIME@@MAEXXZ			; CPythonIME::OnReturn
PUBLIC	?OnEscape@CPythonIME@@MAEXXZ			; CPythonIME::OnEscape
PUBLIC	?OnWM_CHAR@CPythonIME@@MAE_NIJ@Z		; CPythonIME::OnWM_CHAR
PUBLIC	?OnUpdate@CPythonIME@@MAEXXZ			; CPythonIME::OnUpdate
PUBLIC	?OnChangeCodePage@CPythonIME@@MAEXXZ		; CPythonIME::OnChangeCodePage
PUBLIC	?OnOpenCandidateList@CPythonIME@@MAEXXZ		; CPythonIME::OnOpenCandidateList
PUBLIC	?OnCloseCandidateList@CPythonIME@@MAEXXZ	; CPythonIME::OnCloseCandidateList
PUBLIC	?OnOpenReadingWnd@CPythonIME@@MAEXXZ		; CPythonIME::OnOpenReadingWnd
PUBLIC	?OnCloseReadingWnd@CPythonIME@@MAEXXZ		; CPythonIME::OnCloseReadingWnd
PUBLIC	??_GCPythonIME@@UAEPAXI@Z			; CPythonIME::`scalar deleting destructor'
PUBLIC	??_ECPythonIME@@W3AEPAXI@Z			; [thunk]:CPythonIME::`vector deleting destructor'
PUBLIC	??_ECPythonIME@@WICI@AEPAXI@Z			; [thunk]:CPythonIME::`vector deleting destructor'
PUBLIC	??_7IIMEEventSink@@6B@				; IIMEEventSink::`vftable'
PUBLIC	?ms_singleton@?$CSingleton@VCPythonIME@@@@0PAVCPythonIME@@A ; CSingleton<CPythonIME>::ms_singleton
PUBLIC	??_7?$CSingleton@VCPythonIME@@@@6B@		; CSingleton<CPythonIME>::`vftable'
PUBLIC	??_7CPythonIME@@6BIIMEEventSink@@@		; CPythonIME::`vftable'
PUBLIC	??_7CPythonIME@@6BCIME@@@			; CPythonIME::`vftable'
PUBLIC	??_7CPythonIME@@6B?$CSingleton@VCPythonIME@@@@@	; CPythonIME::`vftable'
PUBLIC	?ms_singleton@?$TAbstractSingleton@VIAbstractApplication@@@@0PAVIAbstractApplication@@A ; TAbstractSingleton<IAbstractApplication>::ms_singleton
PUBLIC	??_C@_0BA@DKDMKINE@PythonIME?5Clear@		; `string'
PUBLIC	??_R4IIMEEventSink@@6B@				; IIMEEventSink::`RTTI Complete Object Locator'
PUBLIC	??_R0?AVIIMEEventSink@@@8			; IIMEEventSink `RTTI Type Descriptor'
PUBLIC	??_R3IIMEEventSink@@8				; IIMEEventSink::`RTTI Class Hierarchy Descriptor'
PUBLIC	??_R2IIMEEventSink@@8				; IIMEEventSink::`RTTI Base Class Array'
PUBLIC	??_R1A@?0A@EA@IIMEEventSink@@8			; IIMEEventSink::`RTTI Base Class Descriptor at (0,-1,0,64)'
PUBLIC	??_R4CPythonIME@@6BIIMEEventSink@@@		; CPythonIME::`RTTI Complete Object Locator'
PUBLIC	??_R0?AVCPythonIME@@@8				; CPythonIME `RTTI Type Descriptor'
PUBLIC	??_R3CPythonIME@@8				; CPythonIME::`RTTI Class Hierarchy Descriptor'
PUBLIC	??_R2CPythonIME@@8				; CPythonIME::`RTTI Base Class Array'
PUBLIC	??_R1A@?0A@EA@CPythonIME@@8			; CPythonIME::`RTTI Base Class Descriptor at (0,-1,0,64)'
PUBLIC	??_R13?0A@EA@CIME@@8				; CIME::`RTTI Base Class Descriptor at (4,-1,0,64)'
PUBLIC	??_R0?AVCIME@@@8				; CIME `RTTI Type Descriptor'
PUBLIC	??_R3CIME@@8					; CIME::`RTTI Class Hierarchy Descriptor'
PUBLIC	??_R2CIME@@8					; CIME::`RTTI Base Class Array'
PUBLIC	??_R1A@?0A@EA@CIME@@8				; CIME::`RTTI Base Class Descriptor at (0,-1,0,64)'
PUBLIC	??_R1ICI@?0A@EA@?$CSingleton@VCPythonIME@@@@8	; CSingleton<CPythonIME>::`RTTI Base Class Descriptor at (2088,-1,0,64)'
PUBLIC	??_R0?AV?$CSingleton@VCPythonIME@@@@@8		; CSingleton<CPythonIME> `RTTI Type Descriptor'
PUBLIC	??_R3?$CSingleton@VCPythonIME@@@@8		; CSingleton<CPythonIME>::`RTTI Class Hierarchy Descriptor'
PUBLIC	??_R2?$CSingleton@VCPythonIME@@@@8		; CSingleton<CPythonIME>::`RTTI Base Class Array'
PUBLIC	??_R1A@?0A@EA@?$CSingleton@VCPythonIME@@@@8	; CSingleton<CPythonIME>::`RTTI Base Class Descriptor at (0,-1,0,64)'
PUBLIC	??_R4CPythonIME@@6BCIME@@@			; CPythonIME::`RTTI Complete Object Locator'
PUBLIC	??_R4CPythonIME@@6B?$CSingleton@VCPythonIME@@@@@ ; CPythonIME::`RTTI Complete Object Locator'
PUBLIC	??_R4?$CSingleton@VCPythonIME@@@@6B@		; CSingleton<CPythonIME>::`RTTI Complete Object Locator'
EXTRN	__purecall:PROC
EXTRN	??3@YAXPAXI@Z:PROC				; operator delete
EXTRN	?Tracen@@YAXPBD@Z:PROC				; Tracen
EXTRN	??0CIME@@QAE@XZ:PROC				; CIME::CIME
EXTRN	??1CIME@@UAE@XZ:PROC				; CIME::~CIME
EXTRN	?Initialize@CIME@@QAE_NPAUHWND__@@@Z:PROC	; CIME::Initialize
EXTRN	?IncCurPos@CIME@@IAEXXZ:PROC			; CIME::IncCurPos
EXTRN	?DecCurPos@CIME@@IAEXXZ:PROC			; CIME::DecCurPos
EXTRN	?SetCurPos@CIME@@IAEXH@Z:PROC			; CIME::SetCurPos
EXTRN	?DelCurPos@CIME@@IAEXXZ:PROC			; CIME::DelCurPos
EXTRN	??_E?$CSingleton@VCPythonIME@@@@UAEPAXI@Z:PROC	; CSingleton<CPythonIME>::`vector deleting destructor'
EXTRN	??_ECPythonIME@@UAEPAXI@Z:PROC			; CPythonIME::`vector deleting destructor'
EXTRN	@__security_check_cookie@4:PROC
EXTRN	___CxxFrameHandler3:PROC
EXTRN	??_7type_info@@6B@:QWORD			; type_info::`vftable'
EXTRN	?ms_bCaptureInput@CIME@@2_NA:BYTE		; CIME::ms_bCaptureInput
EXTRN	?ms_pEvent@CIME@@2PAVIIMEEventSink@@A:DWORD	; CIME::ms_pEvent
EXTRN	?ms_curpos@CIME@@2HA:DWORD			; CIME::ms_curpos
EXTRN	?ms_lastpos@CIME@@2HA:DWORD			; CIME::ms_lastpos
EXTRN	___security_cookie:DWORD
;	COMDAT ?ms_singleton@?$CSingleton@VCPythonIME@@@@0PAVCPythonIME@@A
_BSS	SEGMENT
?ms_singleton@?$CSingleton@VCPythonIME@@@@0PAVCPythonIME@@A DD 01H DUP (?) ; CSingleton<CPythonIME>::ms_singleton
_BSS	ENDS
;	COMDAT ?ms_singleton@?$TAbstractSingleton@VIAbstractApplication@@@@0PAVIAbstractApplication@@A
_BSS	SEGMENT
?ms_singleton@?$TAbstractSingleton@VIAbstractApplication@@@@0PAVIAbstractApplication@@A DD 01H DUP (?) ; TAbstractSingleton<IAbstractApplication>::ms_singleton
_BSS	ENDS
;	COMDAT ??_R4?$CSingleton@VCPythonIME@@@@6B@
rdata$r	SEGMENT
??_R4?$CSingleton@VCPythonIME@@@@6B@ DD 00H		; CSingleton<CPythonIME>::`RTTI Complete Object Locator'
	DD	00H
	DD	00H
	DD	FLAT:??_R0?AV?$CSingleton@VCPythonIME@@@@@8
	DD	FLAT:??_R3?$CSingleton@VCPythonIME@@@@8
rdata$r	ENDS
;	COMDAT ??_R4CPythonIME@@6B?$CSingleton@VCPythonIME@@@@@
rdata$r	SEGMENT
??_R4CPythonIME@@6B?$CSingleton@VCPythonIME@@@@@ DD 00H	; CPythonIME::`RTTI Complete Object Locator'
	DD	0828H
	DD	00H
	DD	FLAT:??_R0?AVCPythonIME@@@8
	DD	FLAT:??_R3CPythonIME@@8
rdata$r	ENDS
;	COMDAT ??_R4CPythonIME@@6BCIME@@@
rdata$r	SEGMENT
??_R4CPythonIME@@6BCIME@@@ DD 00H			; CPythonIME::`RTTI Complete Object Locator'
	DD	04H
	DD	00H
	DD	FLAT:??_R0?AVCPythonIME@@@8
	DD	FLAT:??_R3CPythonIME@@8
rdata$r	ENDS
;	COMDAT ??_R1A@?0A@EA@?$CSingleton@VCPythonIME@@@@8
rdata$r	SEGMENT
??_R1A@?0A@EA@?$CSingleton@VCPythonIME@@@@8 DD FLAT:??_R0?AV?$CSingleton@VCPythonIME@@@@@8 ; CSingleton<CPythonIME>::`RTTI Base Class Descriptor at (0,-1,0,64)'
	DD	00H
	DD	00H
	DD	0ffffffffH
	DD	00H
	DD	040H
	DD	FLAT:??_R3?$CSingleton@VCPythonIME@@@@8
rdata$r	ENDS
;	COMDAT ??_R2?$CSingleton@VCPythonIME@@@@8
rdata$r	SEGMENT
??_R2?$CSingleton@VCPythonIME@@@@8 DD FLAT:??_R1A@?0A@EA@?$CSingleton@VCPythonIME@@@@8 ; CSingleton<CPythonIME>::`RTTI Base Class Array'
rdata$r	ENDS
;	COMDAT ??_R3?$CSingleton@VCPythonIME@@@@8
rdata$r	SEGMENT
??_R3?$CSingleton@VCPythonIME@@@@8 DD 00H		; CSingleton<CPythonIME>::`RTTI Class Hierarchy Descriptor'
	DD	00H
	DD	01H
	DD	FLAT:??_R2?$CSingleton@VCPythonIME@@@@8
rdata$r	ENDS
;	COMDAT ??_R0?AV?$CSingleton@VCPythonIME@@@@@8
data$rs	SEGMENT
??_R0?AV?$CSingleton@VCPythonIME@@@@@8 DD FLAT:??_7type_info@@6B@ ; CSingleton<CPythonIME> `RTTI Type Descriptor'
	DD	00H
	DB	'.?AV?$CSingleton@VCPythonIME@@@@', 00H
data$rs	ENDS
;	COMDAT ??_R1ICI@?0A@EA@?$CSingleton@VCPythonIME@@@@8
rdata$r	SEGMENT
??_R1ICI@?0A@EA@?$CSingleton@VCPythonIME@@@@8 DD FLAT:??_R0?AV?$CSingleton@VCPythonIME@@@@@8 ; CSingleton<CPythonIME>::`RTTI Base Class Descriptor at (2088,-1,0,64)'
	DD	00H
	DD	0828H
	DD	0ffffffffH
	DD	00H
	DD	040H
	DD	FLAT:??_R3?$CSingleton@VCPythonIME@@@@8
rdata$r	ENDS
;	COMDAT ??_R1A@?0A@EA@CIME@@8
rdata$r	SEGMENT
??_R1A@?0A@EA@CIME@@8 DD FLAT:??_R0?AVCIME@@@8		; CIME::`RTTI Base Class Descriptor at (0,-1,0,64)'
	DD	00H
	DD	00H
	DD	0ffffffffH
	DD	00H
	DD	040H
	DD	FLAT:??_R3CIME@@8
rdata$r	ENDS
;	COMDAT ??_R2CIME@@8
rdata$r	SEGMENT
??_R2CIME@@8 DD	FLAT:??_R1A@?0A@EA@CIME@@8		; CIME::`RTTI Base Class Array'
rdata$r	ENDS
;	COMDAT ??_R3CIME@@8
rdata$r	SEGMENT
??_R3CIME@@8 DD	00H					; CIME::`RTTI Class Hierarchy Descriptor'
	DD	00H
	DD	01H
	DD	FLAT:??_R2CIME@@8
rdata$r	ENDS
;	COMDAT ??_R0?AVCIME@@@8
data$rs	SEGMENT
??_R0?AVCIME@@@8 DD FLAT:??_7type_info@@6B@		; CIME `RTTI Type Descriptor'
	DD	00H
	DB	'.?AVCIME@@', 00H
data$rs	ENDS
;	COMDAT ??_R13?0A@EA@CIME@@8
rdata$r	SEGMENT
??_R13?0A@EA@CIME@@8 DD FLAT:??_R0?AVCIME@@@8		; CIME::`RTTI Base Class Descriptor at (4,-1,0,64)'
	DD	00H
	DD	04H
	DD	0ffffffffH
	DD	00H
	DD	040H
	DD	FLAT:??_R3CIME@@8
rdata$r	ENDS
;	COMDAT ??_R1A@?0A@EA@CPythonIME@@8
rdata$r	SEGMENT
??_R1A@?0A@EA@CPythonIME@@8 DD FLAT:??_R0?AVCPythonIME@@@8 ; CPythonIME::`RTTI Base Class Descriptor at (0,-1,0,64)'
	DD	03H
	DD	00H
	DD	0ffffffffH
	DD	00H
	DD	040H
	DD	FLAT:??_R3CPythonIME@@8
rdata$r	ENDS
;	COMDAT ??_R2CPythonIME@@8
rdata$r	SEGMENT
??_R2CPythonIME@@8 DD FLAT:??_R1A@?0A@EA@CPythonIME@@8	; CPythonIME::`RTTI Base Class Array'
	DD	FLAT:??_R1A@?0A@EA@IIMEEventSink@@8
	DD	FLAT:??_R13?0A@EA@CIME@@8
	DD	FLAT:??_R1ICI@?0A@EA@?$CSingleton@VCPythonIME@@@@8
rdata$r	ENDS
;	COMDAT ??_R3CPythonIME@@8
rdata$r	SEGMENT
??_R3CPythonIME@@8 DD 00H				; CPythonIME::`RTTI Class Hierarchy Descriptor'
	DD	01H
	DD	04H
	DD	FLAT:??_R2CPythonIME@@8
rdata$r	ENDS
;	COMDAT ??_R0?AVCPythonIME@@@8
data$rs	SEGMENT
??_R0?AVCPythonIME@@@8 DD FLAT:??_7type_info@@6B@	; CPythonIME `RTTI Type Descriptor'
	DD	00H
	DB	'.?AVCPythonIME@@', 00H
data$rs	ENDS
;	COMDAT ??_R4CPythonIME@@6BIIMEEventSink@@@
rdata$r	SEGMENT
??_R4CPythonIME@@6BIIMEEventSink@@@ DD 00H		; CPythonIME::`RTTI Complete Object Locator'
	DD	00H
	DD	00H
	DD	FLAT:??_R0?AVCPythonIME@@@8
	DD	FLAT:??_R3CPythonIME@@8
rdata$r	ENDS
;	COMDAT ??_R1A@?0A@EA@IIMEEventSink@@8
rdata$r	SEGMENT
??_R1A@?0A@EA@IIMEEventSink@@8 DD FLAT:??_R0?AVIIMEEventSink@@@8 ; IIMEEventSink::`RTTI Base Class Descriptor at (0,-1,0,64)'
	DD	00H
	DD	00H
	DD	0ffffffffH
	DD	00H
	DD	040H
	DD	FLAT:??_R3IIMEEventSink@@8
rdata$r	ENDS
;	COMDAT ??_R2IIMEEventSink@@8
rdata$r	SEGMENT
??_R2IIMEEventSink@@8 DD FLAT:??_R1A@?0A@EA@IIMEEventSink@@8 ; IIMEEventSink::`RTTI Base Class Array'
rdata$r	ENDS
;	COMDAT ??_R3IIMEEventSink@@8
rdata$r	SEGMENT
??_R3IIMEEventSink@@8 DD 00H				; IIMEEventSink::`RTTI Class Hierarchy Descriptor'
	DD	00H
	DD	01H
	DD	FLAT:??_R2IIMEEventSink@@8
rdata$r	ENDS
;	COMDAT ??_R0?AVIIMEEventSink@@@8
data$rs	SEGMENT
??_R0?AVIIMEEventSink@@@8 DD FLAT:??_7type_info@@6B@	; IIMEEventSink `RTTI Type Descriptor'
	DD	00H
	DB	'.?AVIIMEEventSink@@', 00H
data$rs	ENDS
;	COMDAT ??_R4IIMEEventSink@@6B@
rdata$r	SEGMENT
??_R4IIMEEventSink@@6B@ DD 00H				; IIMEEventSink::`RTTI Complete Object Locator'
	DD	00H
	DD	00H
	DD	FLAT:??_R0?AVIIMEEventSink@@@8
	DD	FLAT:??_R3IIMEEventSink@@8
rdata$r	ENDS
;	COMDAT ??_C@_0BA@DKDMKINE@PythonIME?5Clear@
CONST	SEGMENT
??_C@_0BA@DKDMKINE@PythonIME?5Clear@ DB 'PythonIME Clear', 00H ; `string'
CONST	ENDS
;	COMDAT ??_7CPythonIME@@6B?$CSingleton@VCPythonIME@@@@@
CONST	SEGMENT
??_7CPythonIME@@6B?$CSingleton@VCPythonIME@@@@@ DD FLAT:??_R4CPythonIME@@6B?$CSingleton@VCPythonIME@@@@@ ; CPythonIME::`vftable'
	DD	FLAT:??_ECPythonIME@@WICI@AEPAXI@Z
CONST	ENDS
;	COMDAT ??_7CPythonIME@@6BCIME@@@
CONST	SEGMENT
??_7CPythonIME@@6BCIME@@@ DD FLAT:??_R4CPythonIME@@6BCIME@@@ ; CPythonIME::`vftable'
	DD	FLAT:??_ECPythonIME@@W3AEPAXI@Z
CONST	ENDS
;	COMDAT ??_7CPythonIME@@6BIIMEEventSink@@@
CONST	SEGMENT
??_7CPythonIME@@6BIIMEEventSink@@@ DD FLAT:??_R4CPythonIME@@6BIIMEEventSink@@@ ; CPythonIME::`vftable'
	DD	FLAT:?OnWM_CHAR@CPythonIME@@MAE_NIJ@Z
	DD	FLAT:?OnUpdate@CPythonIME@@MAEXXZ
	DD	FLAT:?OnChangeCodePage@CPythonIME@@MAEXXZ
	DD	FLAT:?OnOpenCandidateList@CPythonIME@@MAEXXZ
	DD	FLAT:?OnCloseCandidateList@CPythonIME@@MAEXXZ
	DD	FLAT:?OnOpenReadingWnd@CPythonIME@@MAEXXZ
	DD	FLAT:?OnCloseReadingWnd@CPythonIME@@MAEXXZ
	DD	FLAT:?OnTab@CPythonIME@@MAEXXZ
	DD	FLAT:?OnReturn@CPythonIME@@MAEXXZ
	DD	FLAT:?OnEscape@CPythonIME@@MAEXXZ
CONST	ENDS
;	COMDAT ??_7?$CSingleton@VCPythonIME@@@@6B@
CONST	SEGMENT
??_7?$CSingleton@VCPythonIME@@@@6B@ DD FLAT:??_R4?$CSingleton@VCPythonIME@@@@6B@ ; CSingleton<CPythonIME>::`vftable'
	DD	FLAT:??_E?$CSingleton@VCPythonIME@@@@UAEPAXI@Z
CONST	ENDS
;	COMDAT ??_7IIMEEventSink@@6B@
CONST	SEGMENT
??_7IIMEEventSink@@6B@ DD FLAT:??_R4IIMEEventSink@@6B@	; IIMEEventSink::`vftable'
	DD	FLAT:__purecall
	DD	FLAT:__purecall
	DD	FLAT:__purecall
	DD	FLAT:__purecall
	DD	FLAT:__purecall
	DD	FLAT:__purecall
	DD	FLAT:__purecall
CONST	ENDS
;	COMDAT xdata$x
xdata$x	SEGMENT
__ehfuncinfo$??1CPythonIME@@UAE@XZ DD 019930522H
	DD	00H
	DD	00H
	DD	2 DUP(00H)
	DD	2 DUP(00H)
	DD	00H
	DD	05H
xdata$x	ENDS
; Function compile flags: /Odsp
;	COMDAT ??_ECPythonIME@@WICI@AEPAXI@Z
_TEXT	SEGMENT
??_ECPythonIME@@WICI@AEPAXI@Z PROC			; [thunk]:CPythonIME::`vector deleting destructor', COMDAT
  00000	81 e9 28 08 00
	00		 sub	 ecx, 2088		; 00000828H
  00006	e9 00 00 00 00	 jmp	 ??_ECPythonIME@@UAEPAXI@Z
??_ECPythonIME@@WICI@AEPAXI@Z ENDP			; [thunk]:CPythonIME::`vector deleting destructor'
_TEXT	ENDS
; Function compile flags: /Odsp
;	COMDAT ??_ECPythonIME@@W3AEPAXI@Z
_TEXT	SEGMENT
??_ECPythonIME@@W3AEPAXI@Z PROC				; [thunk]:CPythonIME::`vector deleting destructor', COMDAT
  00000	83 e9 04	 sub	 ecx, 4
  00003	e9 00 00 00 00	 jmp	 ??_ECPythonIME@@UAEPAXI@Z
??_ECPythonIME@@W3AEPAXI@Z ENDP				; [thunk]:CPythonIME::`vector deleting destructor'
_TEXT	ENDS
; Function compile flags: /Ogtp
;	COMDAT ??_GCPythonIME@@UAEPAXI@Z
_TEXT	SEGMENT
___flags$ = 8						; size = 4
??_GCPythonIME@@UAEPAXI@Z PROC				; CPythonIME::`scalar deleting destructor', COMDAT
; _this$ = ecx
  00000	55		 push	 ebp
  00001	8b ec		 mov	 ebp, esp
  00003	56		 push	 esi
  00004	8b f1		 mov	 esi, ecx
  00006	e8 00 00 00 00	 call	 ??1CPythonIME@@UAE@XZ	; CPythonIME::~CPythonIME
  0000b	f6 45 08 01	 test	 BYTE PTR ___flags$[ebp], 1
  0000f	74 0e		 je	 SHORT $LN4@scalar
  00011	68 2c 08 00 00	 push	 2092			; 0000082cH
  00016	56		 push	 esi
  00017	e8 00 00 00 00	 call	 ??3@YAXPAXI@Z		; operator delete
  0001c	83 c4 08	 add	 esp, 8
$LN4@scalar:
  0001f	8b c6		 mov	 eax, esi
  00021	5e		 pop	 esi
  00022	5d		 pop	 ebp
  00023	c2 04 00	 ret	 4
??_GCPythonIME@@UAEPAXI@Z ENDP				; CPythonIME::`scalar deleting destructor'
_TEXT	ENDS
; Function compile flags: /Ogtp
; File D:\Metin2 Server Files\mainline\SRC_2014\Metin2Client\UserInterface\PythonIME.cpp
;	COMDAT ?OnCloseReadingWnd@CPythonIME@@MAEXXZ
_TEXT	SEGMENT
?OnCloseReadingWnd@CPythonIME@@MAEXXZ PROC		; CPythonIME::OnCloseReadingWnd, COMDAT
; _this$ = ecx

; 118  : 	IAbstractApplication::GetSingleton().RunIMECloseReadingWndEvent();

  00000	8b 0d 00 00 00
	00		 mov	 ecx, DWORD PTR ?ms_singleton@?$TAbstractSingleton@VIAbstractApplication@@@@0PAVIAbstractApplication@@A ; TAbstractSingleton<IAbstractApplication>::ms_singleton
  00006	8b 01		 mov	 eax, DWORD PTR [ecx]
  00008	ff 60 44	 jmp	 DWORD PTR [eax+68]
?OnCloseReadingWnd@CPythonIME@@MAEXXZ ENDP		; CPythonIME::OnCloseReadingWnd
_TEXT	ENDS
; Function compile flags: /Ogtp
; File D:\Metin2 Server Files\mainline\SRC_2014\Metin2Client\UserInterface\PythonIME.cpp
;	COMDAT ?OnOpenReadingWnd@CPythonIME@@MAEXXZ
_TEXT	SEGMENT
?OnOpenReadingWnd@CPythonIME@@MAEXXZ PROC		; CPythonIME::OnOpenReadingWnd, COMDAT
; _this$ = ecx

; 113  : 	IAbstractApplication::GetSingleton().RunIMEOpenReadingWndEvent();

  00000	8b 0d 00 00 00
	00		 mov	 ecx, DWORD PTR ?ms_singleton@?$TAbstractSingleton@VIAbstractApplication@@@@0PAVIAbstractApplication@@A ; TAbstractSingleton<IAbstractApplication>::ms_singleton
  00006	8b 01		 mov	 eax, DWORD PTR [ecx]
  00008	ff 60 40	 jmp	 DWORD PTR [eax+64]
?OnOpenReadingWnd@CPythonIME@@MAEXXZ ENDP		; CPythonIME::OnOpenReadingWnd
_TEXT	ENDS
; Function compile flags: /Ogtp
; File D:\Metin2 Server Files\mainline\SRC_2014\Metin2Client\UserInterface\PythonIME.cpp
;	COMDAT ?OnCloseCandidateList@CPythonIME@@MAEXXZ
_TEXT	SEGMENT
?OnCloseCandidateList@CPythonIME@@MAEXXZ PROC		; CPythonIME::OnCloseCandidateList, COMDAT
; _this$ = ecx

; 108  : 	IAbstractApplication::GetSingleton().RunIMECloseCandidateListEvent();

  00000	8b 0d 00 00 00
	00		 mov	 ecx, DWORD PTR ?ms_singleton@?$TAbstractSingleton@VIAbstractApplication@@@@0PAVIAbstractApplication@@A ; TAbstractSingleton<IAbstractApplication>::ms_singleton
  00006	8b 01		 mov	 eax, DWORD PTR [ecx]
  00008	ff 60 3c	 jmp	 DWORD PTR [eax+60]
?OnCloseCandidateList@CPythonIME@@MAEXXZ ENDP		; CPythonIME::OnCloseCandidateList
_TEXT	ENDS
; Function compile flags: /Ogtp
; File D:\Metin2 Server Files\mainline\SRC_2014\Metin2Client\UserInterface\PythonIME.cpp
;	COMDAT ?OnOpenCandidateList@CPythonIME@@MAEXXZ
_TEXT	SEGMENT
?OnOpenCandidateList@CPythonIME@@MAEXXZ PROC		; CPythonIME::OnOpenCandidateList, COMDAT
; _this$ = ecx

; 103  : 	IAbstractApplication::GetSingleton().RunIMEOpenCandidateListEvent();

  00000	8b 0d 00 00 00
	00		 mov	 ecx, DWORD PTR ?ms_singleton@?$TAbstractSingleton@VIAbstractApplication@@@@0PAVIAbstractApplication@@A ; TAbstractSingleton<IAbstractApplication>::ms_singleton
  00006	8b 01		 mov	 eax, DWORD PTR [ecx]
  00008	ff 60 38	 jmp	 DWORD PTR [eax+56]
?OnOpenCandidateList@CPythonIME@@MAEXXZ ENDP		; CPythonIME::OnOpenCandidateList
_TEXT	ENDS
; Function compile flags: /Ogtp
; File D:\Metin2 Server Files\mainline\SRC_2014\Metin2Client\UserInterface\PythonIME.cpp
;	COMDAT ?OnChangeCodePage@CPythonIME@@MAEXXZ
_TEXT	SEGMENT
?OnChangeCodePage@CPythonIME@@MAEXXZ PROC		; CPythonIME::OnChangeCodePage, COMDAT
; _this$ = ecx

; 98   : 	IAbstractApplication::GetSingleton().RunIMEChangeCodePage();

  00000	8b 0d 00 00 00
	00		 mov	 ecx, DWORD PTR ?ms_singleton@?$TAbstractSingleton@VIAbstractApplication@@@@0PAVIAbstractApplication@@A ; TAbstractSingleton<IAbstractApplication>::ms_singleton
  00006	8b 01		 mov	 eax, DWORD PTR [ecx]
  00008	ff 60 34	 jmp	 DWORD PTR [eax+52]
?OnChangeCodePage@CPythonIME@@MAEXXZ ENDP		; CPythonIME::OnChangeCodePage
_TEXT	ENDS
; Function compile flags: /Ogtp
; File D:\Metin2 Server Files\mainline\SRC_2014\Metin2Client\UserInterface\PythonIME.cpp
;	COMDAT ?OnUpdate@CPythonIME@@MAEXXZ
_TEXT	SEGMENT
?OnUpdate@CPythonIME@@MAEXXZ PROC			; CPythonIME::OnUpdate, COMDAT
; _this$ = ecx

; 53   : 	IAbstractApplication::GetSingleton().RunIMEUpdate();

  00000	8b 0d 00 00 00
	00		 mov	 ecx, DWORD PTR ?ms_singleton@?$TAbstractSingleton@VIAbstractApplication@@@@0PAVIAbstractApplication@@A ; TAbstractSingleton<IAbstractApplication>::ms_singleton
  00006	8b 01		 mov	 eax, DWORD PTR [ecx]
  00008	ff 60 28	 jmp	 DWORD PTR [eax+40]
?OnUpdate@CPythonIME@@MAEXXZ ENDP			; CPythonIME::OnUpdate
_TEXT	ENDS
; Function compile flags: /Ogtp
; File D:\Metin2 Server Files\mainline\SRC_2014\Metin2Client\UserInterface\PythonIME.cpp
;	COMDAT ?OnWM_CHAR@CPythonIME@@MAE_NIJ@Z
_TEXT	SEGMENT
_wParam$ = 8						; size = 4
_lParam$ = 12						; size = 4
?OnWM_CHAR@CPythonIME@@MAE_NIJ@Z PROC			; CPythonIME::OnWM_CHAR, COMDAT
; _this$ = ecx

; 72   : {

  00000	55		 push	 ebp
  00001	8b ec		 mov	 ebp, esp

; 73   : 	unsigned char c = unsigned char(wParam & 0xff);

  00003	8a 45 08	 mov	 al, BYTE PTR _wParam$[ebp]
  00006	3c 09		 cmp	 al, 9

; 74   : 
; 75   : 	switch (c) 

  00008	74 27		 je	 SHORT $LN5@OnWM_CHAR
  0000a	3c 0d		 cmp	 al, 13			; 0000000dH
  0000c	74 18		 je	 SHORT $LN4@OnWM_CHAR
  0000e	3c 1b		 cmp	 al, 27			; 0000001bH
  00010	75 28		 jne	 SHORT $LN10@OnWM_CHAR

; 85   : 		return true;
; 86   : 
; 87   : 	case VK_ESCAPE:
; 88   : 		if(ms_bCaptureInput == false)

  00012	80 3d 00 00 00
	00 00		 cmp	 BYTE PTR ?ms_bCaptureInput@CIME@@2_NA, 0 ; CIME::ms_bCaptureInput
  00019	74 1f		 je	 SHORT $LN10@OnWM_CHAR

; 89   : 			return 0;
; 90   : 		OnEscape();

  0001b	8b 01		 mov	 eax, DWORD PTR [ecx]
  0001d	ff 50 24	 call	 DWORD PTR [eax+36]

; 91   : 		return true;
; 92   : 	}
; 93   : 	return false;
; 94   : }

  00020	b0 01		 mov	 al, 1
  00022	5d		 pop	 ebp
  00023	c2 08 00	 ret	 8
$LN4@OnWM_CHAR:

; 76   : 	{
; 77   : 	case VK_RETURN:
; 78   : 		OnReturn();

  00026	8b 01		 mov	 eax, DWORD PTR [ecx]
  00028	ff 50 20	 call	 DWORD PTR [eax+32]

; 91   : 		return true;
; 92   : 	}
; 93   : 	return false;
; 94   : }

  0002b	b0 01		 mov	 al, 1
  0002d	5d		 pop	 ebp
  0002e	c2 08 00	 ret	 8
$LN5@OnWM_CHAR:

; 79   : 		return true;
; 80   : 
; 81   : 	case VK_TAB:
; 82   : 		if(ms_bCaptureInput == false)

  00031	80 3d 00 00 00
	00 00		 cmp	 BYTE PTR ?ms_bCaptureInput@CIME@@2_NA, 0 ; CIME::ms_bCaptureInput
  00038	75 06		 jne	 SHORT $LN6@OnWM_CHAR
$LN10@OnWM_CHAR:

; 91   : 		return true;
; 92   : 	}
; 93   : 	return false;
; 94   : }

  0003a	32 c0		 xor	 al, al
  0003c	5d		 pop	 ebp
  0003d	c2 08 00	 ret	 8
$LN6@OnWM_CHAR:

; 83   : 			return 0;
; 84   : 		OnTab();

  00040	8b 01		 mov	 eax, DWORD PTR [ecx]
  00042	ff 50 1c	 call	 DWORD PTR [eax+28]

; 91   : 		return true;
; 92   : 	}
; 93   : 	return false;
; 94   : }

  00045	b0 01		 mov	 al, 1
  00047	5d		 pop	 ebp
  00048	c2 08 00	 ret	 8
?OnWM_CHAR@CPythonIME@@MAE_NIJ@Z ENDP			; CPythonIME::OnWM_CHAR
_TEXT	ENDS
; Function compile flags: /Ogtp
; File D:\Metin2 Server Files\mainline\SRC_2014\Metin2Client\UserInterface\PythonIME.cpp
;	COMDAT ?OnEscape@CPythonIME@@MAEXXZ
_TEXT	SEGMENT
?OnEscape@CPythonIME@@MAEXXZ PROC			; CPythonIME::OnEscape, COMDAT
; _this$ = ecx

; 68   : //	IAbstractApplication::GetSingleton().RunIMEEscapeEvent();
; 69   : }

  00000	c2 00 00	 ret	 0
?OnEscape@CPythonIME@@MAEXXZ ENDP			; CPythonIME::OnEscape
_TEXT	ENDS
; Function compile flags: /Ogtp
; File D:\Metin2 Server Files\mainline\SRC_2014\Metin2Client\UserInterface\PythonIME.cpp
;	COMDAT ?OnReturn@CPythonIME@@MAEXXZ
_TEXT	SEGMENT
?OnReturn@CPythonIME@@MAEXXZ PROC			; CPythonIME::OnReturn, COMDAT
; _this$ = ecx

; 63   : 	IAbstractApplication::GetSingleton().RunIMEReturnEvent();

  00000	8b 0d 00 00 00
	00		 mov	 ecx, DWORD PTR ?ms_singleton@?$TAbstractSingleton@VIAbstractApplication@@@@0PAVIAbstractApplication@@A ; TAbstractSingleton<IAbstractApplication>::ms_singleton
  00006	8b 01		 mov	 eax, DWORD PTR [ecx]
  00008	ff 60 30	 jmp	 DWORD PTR [eax+48]
?OnReturn@CPythonIME@@MAEXXZ ENDP			; CPythonIME::OnReturn
_TEXT	ENDS
; Function compile flags: /Ogtp
; File D:\Metin2 Server Files\mainline\SRC_2014\Metin2Client\UserInterface\PythonIME.cpp
;	COMDAT ?OnTab@CPythonIME@@MAEXXZ
_TEXT	SEGMENT
?OnTab@CPythonIME@@MAEXXZ PROC				; CPythonIME::OnTab, COMDAT
; _this$ = ecx

; 58   : 	IAbstractApplication::GetSingleton().RunIMETabEvent();

  00000	8b 0d 00 00 00
	00		 mov	 ecx, DWORD PTR ?ms_singleton@?$TAbstractSingleton@VIAbstractApplication@@@@0PAVIAbstractApplication@@A ; TAbstractSingleton<IAbstractApplication>::ms_singleton
  00006	8b 01		 mov	 eax, DWORD PTR [ecx]
  00008	ff 60 2c	 jmp	 DWORD PTR [eax+44]
?OnTab@CPythonIME@@MAEXXZ ENDP				; CPythonIME::OnTab
_TEXT	ENDS
; Function compile flags: /Ogtp
; File D:\Metin2 Server Files\mainline\SRC_2014\Metin2Client\UserInterface\PythonIME.cpp
;	COMDAT ?Create@CPythonIME@@QAEXPAUHWND__@@@Z
_TEXT	SEGMENT
_hWnd$ = 8						; size = 4
?Create@CPythonIME@@QAEXPAUHWND__@@@Z PROC		; CPythonIME::Create, COMDAT
; _this$ = ecx

; 17   : {

  00000	55		 push	 ebp
  00001	8b ec		 mov	 ebp, esp

; 18   : 	Initialize(hWnd);

  00003	83 c1 04	 add	 ecx, 4

; 19   : }

  00006	5d		 pop	 ebp

; 18   : 	Initialize(hWnd);

  00007	e9 00 00 00 00	 jmp	 ?Initialize@CIME@@QAE_NPAUHWND__@@@Z ; CIME::Initialize
?Create@CPythonIME@@QAEXPAUHWND__@@@Z ENDP		; CPythonIME::Create
_TEXT	ENDS
; Function compile flags: /Ogtp
; File D:\Metin2 Server Files\mainline\SRC_2014\Metin2Client\UserInterface\PythonIME.cpp
;	COMDAT ?Delete@CPythonIME@@QAEXXZ
_TEXT	SEGMENT
?Delete@CPythonIME@@QAEXXZ PROC				; CPythonIME::Delete, COMDAT
; _this$ = ecx

; 48   : 	DelCurPos();

  00000	83 c1 04	 add	 ecx, 4
  00003	e9 00 00 00 00	 jmp	 ?DelCurPos@CIME@@IAEXXZ	; CIME::DelCurPos
?Delete@CPythonIME@@QAEXXZ ENDP				; CPythonIME::Delete
_TEXT	ENDS
; Function compile flags: /Ogtp
; File D:\Metin2 Server Files\mainline\SRC_2014\Metin2Client\UserInterface\PythonIME.cpp
;	COMDAT ?SetCursorPosition@CPythonIME@@QAEXH@Z
_TEXT	SEGMENT
_iPosition$ = 8						; size = 4
?SetCursorPosition@CPythonIME@@QAEXH@Z PROC		; CPythonIME::SetCursorPosition, COMDAT
; _this$ = ecx

; 42   : {

  00000	55		 push	 ebp
  00001	8b ec		 mov	 ebp, esp

; 43   : 	SetCurPos(iPosition);

  00003	83 c1 04	 add	 ecx, 4

; 44   : }

  00006	5d		 pop	 ebp

; 43   : 	SetCurPos(iPosition);

  00007	e9 00 00 00 00	 jmp	 ?SetCurPos@CIME@@IAEXH@Z ; CIME::SetCurPos
?SetCursorPosition@CPythonIME@@QAEXH@Z ENDP		; CPythonIME::SetCursorPosition
_TEXT	ENDS
; Function compile flags: /Ogtp
; File D:\Metin2 Server Files\mainline\SRC_2014\Metin2Client\UserInterface\PythonIME.cpp
;	COMDAT ?MoveEnd@CPythonIME@@QAEXXZ
_TEXT	SEGMENT
?MoveEnd@CPythonIME@@QAEXXZ PROC			; CPythonIME::MoveEnd, COMDAT
; _this$ = ecx

; 38   : 	ms_curpos = ms_lastpos;

  00000	a1 00 00 00 00	 mov	 eax, DWORD PTR ?ms_lastpos@CIME@@2HA ; CIME::ms_lastpos
  00005	a3 00 00 00 00	 mov	 DWORD PTR ?ms_curpos@CIME@@2HA, eax ; CIME::ms_curpos

; 39   : }

  0000a	c3		 ret	 0
?MoveEnd@CPythonIME@@QAEXXZ ENDP			; CPythonIME::MoveEnd
_TEXT	ENDS
; Function compile flags: /Ogtp
; File D:\Metin2 Server Files\mainline\SRC_2014\Metin2Client\UserInterface\PythonIME.cpp
;	COMDAT ?MoveHome@CPythonIME@@QAEXXZ
_TEXT	SEGMENT
?MoveHome@CPythonIME@@QAEXXZ PROC			; CPythonIME::MoveHome, COMDAT
; _this$ = ecx

; 33   : 	ms_curpos = 0;

  00000	c7 05 00 00 00
	00 00 00 00 00	 mov	 DWORD PTR ?ms_curpos@CIME@@2HA, 0 ; CIME::ms_curpos

; 34   : }

  0000a	c3		 ret	 0
?MoveHome@CPythonIME@@QAEXXZ ENDP			; CPythonIME::MoveHome
_TEXT	ENDS
; Function compile flags: /Ogtp
; File D:\Metin2 Server Files\mainline\SRC_2014\Metin2Client\UserInterface\PythonIME.cpp
;	COMDAT ?MoveRight@CPythonIME@@QAEXXZ
_TEXT	SEGMENT
?MoveRight@CPythonIME@@QAEXXZ PROC			; CPythonIME::MoveRight, COMDAT
; _this$ = ecx

; 28   : 	IncCurPos();

  00000	83 c1 04	 add	 ecx, 4
  00003	e9 00 00 00 00	 jmp	 ?IncCurPos@CIME@@IAEXXZ	; CIME::IncCurPos
?MoveRight@CPythonIME@@QAEXXZ ENDP			; CPythonIME::MoveRight
_TEXT	ENDS
; Function compile flags: /Ogtp
; File D:\Metin2 Server Files\mainline\SRC_2014\Metin2Client\UserInterface\PythonIME.cpp
;	COMDAT ?MoveLeft@CPythonIME@@QAEXXZ
_TEXT	SEGMENT
?MoveLeft@CPythonIME@@QAEXXZ PROC			; CPythonIME::MoveLeft, COMDAT
; _this$ = ecx

; 23   : 	DecCurPos();

  00000	83 c1 04	 add	 ecx, 4
  00003	e9 00 00 00 00	 jmp	 ?DecCurPos@CIME@@IAEXXZ	; CIME::DecCurPos
?MoveLeft@CPythonIME@@QAEXXZ ENDP			; CPythonIME::MoveLeft
_TEXT	ENDS
; Function compile flags: /Ogtp
; File D:\Metin2 Server Files\mainline\SRC_2014\Metin2Client\UserInterface\PythonIME.cpp
; File D:\Metin2 Server Files\mainline\SRC_2014\Metin2Client\eterBase\Singleton.h
; File D:\Metin2 Server Files\mainline\SRC_2014\Metin2Client\UserInterface\PythonIME.cpp
; File D:\Metin2 Server Files\mainline\SRC_2014\Metin2Client\eterBase\Singleton.h
; File D:\Metin2 Server Files\mainline\SRC_2014\Metin2Client\UserInterface\PythonIME.cpp
;	COMDAT ??1CPythonIME@@UAE@XZ
_TEXT	SEGMENT
__$EHRec$ = -12						; size = 12
??1CPythonIME@@UAE@XZ PROC				; CPythonIME::~CPythonIME, COMDAT
; _this$ = ecx

; 12   : {

  00000	55		 push	 ebp
  00001	8b ec		 mov	 ebp, esp
  00003	6a ff		 push	 -1
  00005	68 00 00 00 00	 push	 __ehhandler$??1CPythonIME@@UAE@XZ
  0000a	64 a1 00 00 00
	00		 mov	 eax, DWORD PTR fs:0
  00010	50		 push	 eax
  00011	56		 push	 esi
  00012	57		 push	 edi
  00013	a1 00 00 00 00	 mov	 eax, DWORD PTR ___security_cookie
  00018	33 c5		 xor	 eax, ebp
  0001a	50		 push	 eax
  0001b	8d 45 f4	 lea	 eax, DWORD PTR __$EHRec$[ebp]
  0001e	64 a3 00 00 00
	00		 mov	 DWORD PTR fs:0, eax
  00024	8b f9		 mov	 edi, ecx

; 13   : 	Tracen("PythonIME Clear");

  00026	68 00 00 00 00	 push	 OFFSET ??_C@_0BA@DKDMKINE@PythonIME?5Clear@
  0002b	c7 07 00 00 00
	00		 mov	 DWORD PTR [edi], OFFSET ??_7CPythonIME@@6BIIMEEventSink@@@
  00031	c7 47 04 00 00
	00 00		 mov	 DWORD PTR [edi+4], OFFSET ??_7CPythonIME@@6BCIME@@@
  00038	c7 87 28 08 00
	00 00 00 00 00	 mov	 DWORD PTR [edi+2088], OFFSET ??_7CPythonIME@@6B?$CSingleton@VCPythonIME@@@@@
  00042	e8 00 00 00 00	 call	 ?Tracen@@YAXPBD@Z	; Tracen
  00047	83 c4 04	 add	 esp, 4
; File D:\Metin2 Server Files\mainline\SRC_2014\Metin2Client\eterBase\Singleton.h

; 19   : 	{ 

  0004a	c7 87 28 08 00
	00 00 00 00 00	 mov	 DWORD PTR [edi+2088], OFFSET ??_7?$CSingleton@VCPythonIME@@@@6B@
; File D:\Metin2 Server Files\mainline\SRC_2014\Metin2Client\UserInterface\PythonIME.cpp

; 14   : }

  00054	8d 4f 04	 lea	 ecx, DWORD PTR [edi+4]
; File D:\Metin2 Server Files\mainline\SRC_2014\Metin2Client\eterBase\Singleton.h

; 21   : 		ms_singleton = 0; 

  00057	c7 05 00 00 00
	00 00 00 00 00	 mov	 DWORD PTR ?ms_singleton@?$CSingleton@VCPythonIME@@@@0PAVCPythonIME@@A, 0 ; CSingleton<CPythonIME>::ms_singleton
; File D:\Metin2 Server Files\mainline\SRC_2014\Metin2Client\UserInterface\PythonIME.cpp

; 14   : }

  00061	e8 00 00 00 00	 call	 ??1CIME@@UAE@XZ		; CIME::~CIME
  00066	8b 4d f4	 mov	 ecx, DWORD PTR __$EHRec$[ebp]
  00069	64 89 0d 00 00
	00 00		 mov	 DWORD PTR fs:0, ecx
  00070	59		 pop	 ecx
  00071	5f		 pop	 edi
  00072	5e		 pop	 esi
  00073	8b e5		 mov	 esp, ebp
  00075	5d		 pop	 ebp
  00076	c3		 ret	 0
  00077	cc		 int	 3
  00078	cc		 int	 3
  00079	cc		 int	 3
  0007a	cc		 int	 3
  0007b	cc		 int	 3
_TEXT	ENDS
;	COMDAT text$x
text$x	SEGMENT
__ehhandler$??1CPythonIME@@UAE@XZ:
  00000	90		 npad	 1
  00001	90		 npad	 1
  00002	8b 54 24 08	 mov	 edx, DWORD PTR [esp+8]
  00006	8d 42 0c	 lea	 eax, DWORD PTR [edx+12]
  00009	8b 4a f4	 mov	 ecx, DWORD PTR [edx-12]
  0000c	33 c8		 xor	 ecx, eax
  0000e	e8 00 00 00 00	 call	 @__security_check_cookie@4
  00013	b8 00 00 00 00	 mov	 eax, OFFSET __ehfuncinfo$??1CPythonIME@@UAE@XZ
  00018	e9 00 00 00 00	 jmp	 ___CxxFrameHandler3
text$x	ENDS
??1CPythonIME@@UAE@XZ ENDP				; CPythonIME::~CPythonIME
; Function compile flags: /Ogtp
; File D:\Metin2 Server Files\mainline\SRC_2014\Metin2Client\UserInterface\PythonIME.cpp
; File D:\Metin2 Server Files\mainline\SRC_2014\Metin2Client\eterBase\Singleton.h
; File D:\Metin2 Server Files\mainline\SRC_2014\Metin2Client\UserInterface\PythonIME.cpp
;	COMDAT ??0CPythonIME@@QAE@XZ
_TEXT	SEGMENT
_this$ = -4						; size = 4
??0CPythonIME@@QAE@XZ PROC				; CPythonIME::CPythonIME, COMDAT
; _this$ = ecx

; 7    : {

  00000	55		 push	 ebp
  00001	8b ec		 mov	 ebp, esp
  00003	51		 push	 ecx
  00004	56		 push	 esi
  00005	57		 push	 edi
  00006	8b f9		 mov	 edi, ecx
  00008	89 7d fc	 mov	 DWORD PTR _this$[ebp], edi
  0000b	8d 4f 04	 lea	 ecx, DWORD PTR [edi+4]
  0000e	c7 07 00 00 00
	00		 mov	 DWORD PTR [edi], OFFSET ??_7IIMEEventSink@@6B@
  00014	e8 00 00 00 00	 call	 ??0CIME@@QAE@XZ		; CIME::CIME
; File D:\Metin2 Server Files\mainline\SRC_2014\Metin2Client\eterBase\Singleton.h

; 12   : 	{ 

  00019	c7 87 28 08 00
	00 00 00 00 00	 mov	 DWORD PTR [edi+2088], OFFSET ??_7?$CSingleton@VCPythonIME@@@@6B@

; 13   : 		assert(!ms_singleton);
; 14   : 		int offset = (int) (T*) 1 - (int) (CSingleton <T>*) (T*) 1; 
; 15   : 		ms_singleton = (T*) ((int) this + offset);

  00023	8b c7		 mov	 eax, edi
  00025	a3 00 00 00 00	 mov	 DWORD PTR ?ms_singleton@?$CSingleton@VCPythonIME@@@@0PAVCPythonIME@@A, eax ; CSingleton<CPythonIME>::ms_singleton
; File D:\Metin2 Server Files\mainline\SRC_2014\Metin2Client\UserInterface\PythonIME.cpp

; 7    : {

  0002a	c7 07 00 00 00
	00		 mov	 DWORD PTR [edi], OFFSET ??_7CPythonIME@@6BIIMEEventSink@@@
  00030	c7 47 04 00 00
	00 00		 mov	 DWORD PTR [edi+4], OFFSET ??_7CPythonIME@@6BCIME@@@
  00037	c7 87 28 08 00
	00 00 00 00 00	 mov	 DWORD PTR [edi+2088], OFFSET ??_7CPythonIME@@6B?$CSingleton@VCPythonIME@@@@@

; 8    : 	ms_pEvent = this;

  00041	89 3d 00 00 00
	00		 mov	 DWORD PTR ?ms_pEvent@CIME@@2PAVIIMEEventSink@@A, edi ; CIME::ms_pEvent

; 9    : }

  00047	5f		 pop	 edi
  00048	5e		 pop	 esi
  00049	8b e5		 mov	 esp, ebp
  0004b	5d		 pop	 ebp
  0004c	c3		 ret	 0
??0CPythonIME@@QAE@XZ ENDP				; CPythonIME::CPythonIME
_TEXT	ENDS
; Function compile flags: /Ogtp
; File D:\Metin2 Server Files\mainline\SRC_2014\Metin2Client\eterBase\Singleton.h
;	COMDAT ??_G?$CSingleton@VCPythonIME@@@@UAEPAXI@Z
_TEXT	SEGMENT
___flags$ = 8						; size = 4
??_G?$CSingleton@VCPythonIME@@@@UAEPAXI@Z PROC		; CSingleton<CPythonIME>::`scalar deleting destructor', COMDAT
; _this$ = ecx
  00000	55		 push	 ebp
  00001	8b ec		 mov	 ebp, esp
  00003	f6 45 08 01	 test	 BYTE PTR ___flags$[ebp], 1

; 19   : 	{ 

  00007	56		 push	 esi
  00008	8b f1		 mov	 esi, ecx
  0000a	c7 06 00 00 00
	00		 mov	 DWORD PTR [esi], OFFSET ??_7?$CSingleton@VCPythonIME@@@@6B@

; 20   : 		assert(ms_singleton);
; 21   : 		ms_singleton = 0; 

  00010	c7 05 00 00 00
	00 00 00 00 00	 mov	 DWORD PTR ?ms_singleton@?$CSingleton@VCPythonIME@@@@0PAVCPythonIME@@A, 0 ; CSingleton<CPythonIME>::ms_singleton
  0001a	74 0b		 je	 SHORT $LN6@scalar
  0001c	6a 04		 push	 4
  0001e	56		 push	 esi
  0001f	e8 00 00 00 00	 call	 ??3@YAXPAXI@Z		; operator delete
  00024	83 c4 08	 add	 esp, 8
$LN6@scalar:
  00027	8b c6		 mov	 eax, esi
  00029	5e		 pop	 esi
  0002a	5d		 pop	 ebp
  0002b	c2 04 00	 ret	 4
??_G?$CSingleton@VCPythonIME@@@@UAEPAXI@Z ENDP		; CSingleton<CPythonIME>::`scalar deleting destructor'
_TEXT	ENDS
; Function compile flags: /Ogtp
; File D:\Metin2 Server Files\mainline\SRC_2014\Metin2Client\eterBase\Singleton.h
;	COMDAT ??1?$CSingleton@VCPythonIME@@@@UAE@XZ
_TEXT	SEGMENT
??1?$CSingleton@VCPythonIME@@@@UAE@XZ PROC		; CSingleton<CPythonIME>::~CSingleton<CPythonIME>, COMDAT
; _this$ = ecx

; 19   : 	{ 

  00000	c7 01 00 00 00
	00		 mov	 DWORD PTR [ecx], OFFSET ??_7?$CSingleton@VCPythonIME@@@@6B@

; 20   : 		assert(ms_singleton);
; 21   : 		ms_singleton = 0; 

  00006	c7 05 00 00 00
	00 00 00 00 00	 mov	 DWORD PTR ?ms_singleton@?$CSingleton@VCPythonIME@@@@0PAVCPythonIME@@A, 0 ; CSingleton<CPythonIME>::ms_singleton

; 22   : 	}

  00010	c3		 ret	 0
??1?$CSingleton@VCPythonIME@@@@UAE@XZ ENDP		; CSingleton<CPythonIME>::~CSingleton<CPythonIME>
_TEXT	ENDS
END
