; Listing generated by Microsoft (R) Optimizing Compiler Version 19.28.29335.0 

	TITLE	D:\Metin2 Server Files\mainline\SRC_2014\Metin2Client\UserInterface\PythonPackModule.cpp
	.686P
	.XMM
	include listing.inc
	.model	flat

INCLUDELIB LIBCMT
INCLUDELIB OLDNAMES

PUBLIC	?g_adwEncryptKey@@3PAKA				; g_adwEncryptKey
PUBLIC	?g_adwDecryptKey@@3PAKA				; g_adwDecryptKey
_BSS	SEGMENT
?g_adwEncryptKey@@3PAKA DD 04H DUP (?)			; g_adwEncryptKey
?g_adwDecryptKey@@3PAKA DD 04H DUP (?)			; g_adwDecryptKey
_BSS	ENDS
PUBLIC	?initpack@@YAXXZ				; initpack
PUBLIC	?__BuildClientKey_20050304Myevan@CAccountConnector@@IAEXXZ ; CAccountConnector::__BuildClientKey_20050304Myevan
PUBLIC	?packExist@@YAPAU_object@@PAU1@0@Z		; packExist
PUBLIC	?packGet@@YAPAU_object@@PAU1@0@Z		; packGet
PUBLIC	?ms_singleton@?$CSingleton@VCEterPackManager@@@@0PAVCEterPackManager@@A ; CSingleton<CEterPackManager>::ms_singleton
PUBLIC	?s_adwKey@?1??GetKey_20050304Myevan@@YAPBEXZ@4RCKC ; `GetKey_20050304Myevan'::`2'::s_adwKey
PUBLIC	??_C@_01KBJDNOO@i@				; `string'
PUBLIC	??_C@_03DEFKFCAB@?4py@				; `string'
PUBLIC	??_C@_04DJODFCKA@?4pyc@				; `string'
PUBLIC	??_C@_04LCMACLFG@?4txt@				; `string'
PUBLIC	??_C@_02OIKAIHIF@s?$CD@				; `string'
PUBLIC	??_C@_05IDMALMPP@Exist@				; `string'
PUBLIC	??_C@_03NNDHPFFO@Get@				; `string'
PUBLIC	??_C@_04IPANLPFO@pack@				; `string'
EXTRN	_strrchr:PROC
EXTRN	__stricmp:PROC
EXTRN	__imp__Py_BuildValue:PROC
EXTRN	__imp__Py_InitModule4:PROC
EXTRN	?PyTuple_GetString@@YA_NPAU_object@@HPAPAD@Z:PROC ; PyTuple_GetString
EXTRN	?Py_BuildException@@YAPAU_object@@PBDZZ:PROC	; Py_BuildException
EXTRN	??0CMappedFile@@QAE@XZ:PROC			; CMappedFile::CMappedFile
EXTRN	??1CMappedFile@@UAE@XZ:PROC			; CMappedFile::~CMappedFile
EXTRN	?Size@CMappedFile@@QAEKXZ:PROC			; CMappedFile::Size
EXTRN	?random@@YAKXZ:PROC				; random
EXTRN	?Get@CEterPackManager@@QAE_NAAVCMappedFile@@PBDPAPBX@Z:PROC ; CEterPackManager::Get
EXTRN	?isExist@CEterPackManager@@QAE_NPBD@Z:PROC	; CEterPackManager::isExist
EXTRN	_tea_encrypt:PROC
EXTRN	@__security_check_cookie@4:PROC
EXTRN	___CxxFrameHandler3:PROC
EXTRN	___security_cookie:DWORD
;	COMDAT ?ms_singleton@?$CSingleton@VCEterPackManager@@@@0PAVCEterPackManager@@A
_BSS	SEGMENT
?ms_singleton@?$CSingleton@VCEterPackManager@@@@0PAVCEterPackManager@@A DD 01H DUP (?) ; CSingleton<CEterPackManager>::ms_singleton
_BSS	ENDS
;	COMDAT ?s_adwKey@?1??GetKey_20050304Myevan@@YAPBEXZ@4RCKC
_BSS	SEGMENT
?s_adwKey@?1??GetKey_20050304Myevan@@YAPBEXZ@4RCKC DD 0792H DUP (?) ; `GetKey_20050304Myevan'::`2'::s_adwKey
_BSS	ENDS
;	COMDAT ??_C@_04IPANLPFO@pack@
CONST	SEGMENT
??_C@_04IPANLPFO@pack@ DB 'pack', 00H			; `string'
CONST	ENDS
;	COMDAT ??_C@_03NNDHPFFO@Get@
CONST	SEGMENT
??_C@_03NNDHPFFO@Get@ DB 'Get', 00H			; `string'
CONST	ENDS
;	COMDAT ??_C@_05IDMALMPP@Exist@
CONST	SEGMENT
??_C@_05IDMALMPP@Exist@ DB 'Exist', 00H			; `string'
CONST	ENDS
;	COMDAT ?s_methods@?1??initpack@@YAXXZ@4PAUPyMethodDef@@A
_DATA	SEGMENT
?s_methods@?1??initpack@@YAXXZ@4PAUPyMethodDef@@A DD FLAT:??_C@_05IDMALMPP@Exist@ ; `initpack'::`2'::s_methods
	DD	FLAT:?packExist@@YAPAU_object@@PAU1@0@Z
	DD	01H
	ORG $+4
	DD	FLAT:??_C@_03NNDHPFFO@Get@
	DD	FLAT:?packGet@@YAPAU_object@@PAU1@0@Z
	DD	01H
	ORG $+4
	DD	00H
	DD	00H
	ORG $+8
_DATA	ENDS
;	COMDAT ??_C@_02OIKAIHIF@s?$CD@
CONST	SEGMENT
??_C@_02OIKAIHIF@s?$CD@ DB 's#', 00H			; `string'
CONST	ENDS
;	COMDAT ??_C@_04LCMACLFG@?4txt@
CONST	SEGMENT
??_C@_04LCMACLFG@?4txt@ DB '.txt', 00H			; `string'
CONST	ENDS
;	COMDAT ??_C@_04DJODFCKA@?4pyc@
CONST	SEGMENT
??_C@_04DJODFCKA@?4pyc@ DB '.pyc', 00H			; `string'
CONST	ENDS
;	COMDAT ??_C@_03DEFKFCAB@?4py@
CONST	SEGMENT
??_C@_03DEFKFCAB@?4py@ DB '.py', 00H			; `string'
CONST	ENDS
;	COMDAT ??_C@_01KBJDNOO@i@
CONST	SEGMENT
??_C@_01KBJDNOO@i@ DB 'i', 00H				; `string'
CONST	ENDS
;	COMDAT xdata$x
xdata$x	SEGMENT
__unwindtable$?packGet@@YAPAU_object@@PAU1@0@Z DD 0ffffffffH
	DD	FLAT:__unwindfunclet$?packGet@@YAPAU_object@@PAU1@0@Z$0
__ehfuncinfo$?packGet@@YAPAU_object@@PAU1@0@Z DD 019930522H
	DD	01H
	DD	FLAT:__unwindtable$?packGet@@YAPAU_object@@PAU1@0@Z
	DD	2 DUP(00H)
	DD	2 DUP(00H)
	DD	00H
	DD	01H
xdata$x	ENDS
; Function compile flags: /Ogtp
; File D:\Metin2 Server Files\mainline\SRC_2014\Metin2Client\UserInterface\PythonPackModule.cpp
; File C:\Program Files (x86)\Windows Kits\10\Include\10.0.18362.0\ucrt\string.h
; File D:\Metin2 Server Files\mainline\SRC_2014\Metin2Client\UserInterface\PythonPackModule.cpp
; File C:\Program Files (x86)\Windows Kits\10\Include\10.0.18362.0\ucrt\string.h
; File D:\Metin2 Server Files\mainline\SRC_2014\Metin2Client\UserInterface\PythonPackModule.cpp
;	COMDAT ?packGet@@YAPAU_object@@PAU1@0@Z
_TEXT	SEGMENT
_pData$2 = -348						; size = 4
_strFileName$ = -344					; size = 4
_file$3 = -340						; size = 324
__$ArrayPad$ = -16					; size = 4
__$EHRec$ = -12						; size = 12
_poSelf$ = 8						; size = 4
_poArgs$ = 12						; size = 4
?packGet@@YAPAU_object@@PAU1@0@Z PROC			; packGet, COMDAT

; 52   : {

  00000	55		 push	 ebp
  00001	8b ec		 mov	 ebp, esp
  00003	6a ff		 push	 -1
  00005	68 00 00 00 00	 push	 __ehhandler$?packGet@@YAPAU_object@@PAU1@0@Z
  0000a	64 a1 00 00 00
	00		 mov	 eax, DWORD PTR fs:0
  00010	50		 push	 eax
  00011	81 ec 50 01 00
	00		 sub	 esp, 336		; 00000150H
  00017	a1 00 00 00 00	 mov	 eax, DWORD PTR ___security_cookie
  0001c	33 c5		 xor	 eax, ebp
  0001e	89 45 f0	 mov	 DWORD PTR __$ArrayPad$[ebp], eax
  00021	56		 push	 esi
  00022	50		 push	 eax
  00023	8d 45 f4	 lea	 eax, DWORD PTR __$EHRec$[ebp]
  00026	64 a3 00 00 00
	00		 mov	 DWORD PTR fs:0, eax
  0002c	8b 45 0c	 mov	 eax, DWORD PTR _poArgs$[ebp]

; 53   : 	char * strFileName;
; 54   : 	
; 55   : 	if (!PyTuple_GetString(poArgs, 0, &strFileName))

  0002f	8d 8d a8 fe ff
	ff		 lea	 ecx, DWORD PTR _strFileName$[ebp]
  00035	51		 push	 ecx
  00036	6a 00		 push	 0
  00038	50		 push	 eax
  00039	e8 00 00 00 00	 call	 ?PyTuple_GetString@@YA_NPAU_object@@HPAPAD@Z ; PyTuple_GetString
  0003e	83 c4 0c	 add	 esp, 12			; 0000000cH
  00041	84 c0		 test	 al, al
  00043	0f 84 cc 00 00
	00		 je	 $LN4@packGet
; File C:\Program Files (x86)\Windows Kits\10\Include\10.0.18362.0\ucrt\string.h

; 518  :         return const_cast<char*>(strrchr(static_cast<char const*>(_String), _Ch));

  00049	6a 2e		 push	 46			; 0000002eH
  0004b	ff b5 a8 fe ff
	ff		 push	 DWORD PTR _strFileName$[ebp]
  00051	e8 00 00 00 00	 call	 _strrchr
; File D:\Metin2 Server Files\mainline\SRC_2014\Metin2Client\UserInterface\PythonPackModule.cpp

; 59   : 	const char* pcExt = strrchr(strFileName, '.');

  00056	8b f0		 mov	 esi, eax
; File C:\Program Files (x86)\Windows Kits\10\Include\10.0.18362.0\ucrt\string.h

; 518  :         return const_cast<char*>(strrchr(static_cast<char const*>(_String), _Ch));

  00058	83 c4 08	 add	 esp, 8
; File D:\Metin2 Server Files\mainline\SRC_2014\Metin2Client\UserInterface\PythonPackModule.cpp

; 60   : 	if (pcExt) // 확장자가 있고

  0005b	85 f6		 test	 esi, esi
  0005d	0f 84 b2 00 00
	00		 je	 $LN4@packGet

; 61   : 	{
; 62   : 		if ((stricmp(pcExt, ".py") == 0) ||
; 63   : 			(stricmp(pcExt, ".pyc") == 0) ||

  00063	68 00 00 00 00	 push	 OFFSET ??_C@_03DEFKFCAB@?4py@
  00068	56		 push	 esi
  00069	e8 00 00 00 00	 call	 __stricmp
  0006e	83 c4 08	 add	 esp, 8
  00071	85 c0		 test	 eax, eax
  00073	74 24		 je	 SHORT $LN5@packGet
  00075	68 00 00 00 00	 push	 OFFSET ??_C@_04DJODFCKA@?4pyc@
  0007a	56		 push	 esi
  0007b	e8 00 00 00 00	 call	 __stricmp
  00080	83 c4 08	 add	 esp, 8
  00083	85 c0		 test	 eax, eax
  00085	74 12		 je	 SHORT $LN5@packGet
  00087	68 00 00 00 00	 push	 OFFSET ??_C@_04LCMACLFG@?4txt@
  0008c	56		 push	 esi
  0008d	e8 00 00 00 00	 call	 __stricmp
  00092	83 c4 08	 add	 esp, 8
  00095	85 c0		 test	 eax, eax
  00097	75 7c		 jne	 SHORT $LN4@packGet
$LN5@packGet:

; 64   : 			(stricmp(pcExt, ".txt") == 0))
; 65   : 		{
; 66   : 			CMappedFile file;

  00099	8d 8d ac fe ff
	ff		 lea	 ecx, DWORD PTR _file$3[ebp]
  0009f	e8 00 00 00 00	 call	 ??0CMappedFile@@QAE@XZ	; CMappedFile::CMappedFile

; 67   : 			const void * pData = NULL;
; 68   : 
; 69   : 			if (CEterPackManager::Instance().Get(file,strFileName,&pData))

  000a4	8b 0d 00 00 00
	00		 mov	 ecx, DWORD PTR ?ms_singleton@?$CSingleton@VCEterPackManager@@@@0PAVCEterPackManager@@A ; CSingleton<CEterPackManager>::ms_singleton
  000aa	8d 85 a4 fe ff
	ff		 lea	 eax, DWORD PTR _pData$2[ebp]
  000b0	50		 push	 eax
  000b1	ff b5 a8 fe ff
	ff		 push	 DWORD PTR _strFileName$[ebp]
  000b7	8d 85 ac fe ff
	ff		 lea	 eax, DWORD PTR _file$3[ebp]
  000bd	c7 45 fc 00 00
	00 00		 mov	 DWORD PTR __$EHRec$[ebp+8], 0
  000c4	50		 push	 eax
  000c5	c7 85 a4 fe ff
	ff 00 00 00 00	 mov	 DWORD PTR _pData$2[ebp], 0
  000cf	e8 00 00 00 00	 call	 ?Get@CEterPackManager@@QAE_NAAVCMappedFile@@PBDPAPBX@Z ; CEterPackManager::Get
  000d4	8d 8d ac fe ff
	ff		 lea	 ecx, DWORD PTR _file$3[ebp]
  000da	84 c0		 test	 al, al
  000dc	74 2b		 je	 SHORT $LN6@packGet

; 70   : 				return Py_BuildValue("s#",pData, file.Size());

  000de	e8 00 00 00 00	 call	 ?Size@CMappedFile@@QAEKXZ ; CMappedFile::Size
  000e3	50		 push	 eax
  000e4	ff b5 a4 fe ff
	ff		 push	 DWORD PTR _pData$2[ebp]
  000ea	68 00 00 00 00	 push	 OFFSET ??_C@_02OIKAIHIF@s?$CD@
  000ef	ff 15 00 00 00
	00		 call	 DWORD PTR __imp__Py_BuildValue
  000f5	83 c4 0c	 add	 esp, 12			; 0000000cH
  000f8	8d 8d ac fe ff
	ff		 lea	 ecx, DWORD PTR _file$3[ebp]
  000fe	8b f0		 mov	 esi, eax
  00100	e8 00 00 00 00	 call	 ??1CMappedFile@@UAE@XZ	; CMappedFile::~CMappedFile
  00105	8b c6		 mov	 eax, esi
  00107	eb 16		 jmp	 SHORT $LN1@packGet
$LN6@packGet:

; 71   : 		}

  00109	c7 45 fc ff ff
	ff ff		 mov	 DWORD PTR __$EHRec$[ebp+8], -1
  00110	e8 00 00 00 00	 call	 ??1CMappedFile@@UAE@XZ	; CMappedFile::~CMappedFile
$LN4@packGet:

; 72   : 	}
; 73   : 
; 74   : 	return Py_BuildException();
; 75   : }

  00115	6a 00		 push	 0
  00117	e8 00 00 00 00	 call	 ?Py_BuildException@@YAPAU_object@@PBDZZ ; Py_BuildException
  0011c	83 c4 04	 add	 esp, 4
$LN1@packGet:
  0011f	8b 4d f4	 mov	 ecx, DWORD PTR __$EHRec$[ebp]
  00122	64 89 0d 00 00
	00 00		 mov	 DWORD PTR fs:0, ecx
  00129	59		 pop	 ecx
  0012a	5e		 pop	 esi
  0012b	8b 4d f0	 mov	 ecx, DWORD PTR __$ArrayPad$[ebp]
  0012e	33 cd		 xor	 ecx, ebp
  00130	e8 00 00 00 00	 call	 @__security_check_cookie@4
  00135	8b e5		 mov	 esp, ebp
  00137	5d		 pop	 ebp
  00138	c3		 ret	 0
_TEXT	ENDS
;	COMDAT text$x
text$x	SEGMENT
__unwindfunclet$?packGet@@YAPAU_object@@PAU1@0@Z$0:
  00000	8d 8d ac fe ff
	ff		 lea	 ecx, DWORD PTR _file$3[ebp]
  00006	e9 00 00 00 00	 jmp	 ??1CMappedFile@@UAE@XZ	; CMappedFile::~CMappedFile
  0000b	cc		 int	 3
  0000c	cc		 int	 3
  0000d	cc		 int	 3
  0000e	cc		 int	 3
  0000f	cc		 int	 3
__ehhandler$?packGet@@YAPAU_object@@PAU1@0@Z:
  00010	90		 npad	 1
  00011	90		 npad	 1
  00012	8b 54 24 08	 mov	 edx, DWORD PTR [esp+8]
  00016	8d 42 0c	 lea	 eax, DWORD PTR [edx+12]
  00019	8b 8a a8 fe ff
	ff		 mov	 ecx, DWORD PTR [edx-344]
  0001f	33 c8		 xor	 ecx, eax
  00021	e8 00 00 00 00	 call	 @__security_check_cookie@4
  00026	8b 4a fc	 mov	 ecx, DWORD PTR [edx-4]
  00029	33 c8		 xor	 ecx, eax
  0002b	e8 00 00 00 00	 call	 @__security_check_cookie@4
  00030	b8 00 00 00 00	 mov	 eax, OFFSET __ehfuncinfo$?packGet@@YAPAU_object@@PAU1@0@Z
  00035	e9 00 00 00 00	 jmp	 ___CxxFrameHandler3
text$x	ENDS
?packGet@@YAPAU_object@@PAU1@0@Z ENDP			; packGet
; Function compile flags: /Ogtp
; File D:\Metin2 Server Files\mainline\SRC_2014\Metin2Client\UserInterface\PythonPackModule.cpp
;	COMDAT ?packExist@@YAPAU_object@@PAU1@0@Z
_TEXT	SEGMENT
_strFileName$ = -4					; size = 4
_poSelf$ = 8						; size = 4
_poArgs$ = 12						; size = 4
?packExist@@YAPAU_object@@PAU1@0@Z PROC			; packExist, COMDAT

; 42   : {

  00000	55		 push	 ebp
  00001	8b ec		 mov	 ebp, esp
  00003	51		 push	 ecx

; 43   : 	char * strFileName;
; 44   : 
; 45   : 	if (!PyTuple_GetString(poArgs, 0, &strFileName))

  00004	8d 45 fc	 lea	 eax, DWORD PTR _strFileName$[ebp]
  00007	50		 push	 eax
  00008	6a 00		 push	 0
  0000a	ff 75 0c	 push	 DWORD PTR _poArgs$[ebp]
  0000d	e8 00 00 00 00	 call	 ?PyTuple_GetString@@YA_NPAU_object@@HPAPAD@Z ; PyTuple_GetString
  00012	83 c4 0c	 add	 esp, 12			; 0000000cH
  00015	84 c0		 test	 al, al
  00017	75 0e		 jne	 SHORT $LN2@packExist

; 46   : 		return Py_BuildException();

  00019	6a 00		 push	 0
  0001b	e8 00 00 00 00	 call	 ?Py_BuildException@@YAPAU_object@@PBDZZ ; Py_BuildException
  00020	83 c4 04	 add	 esp, 4

; 49   : }

  00023	8b e5		 mov	 esp, ebp
  00025	5d		 pop	 ebp
  00026	c3		 ret	 0
$LN2@packExist:

; 47   : 
; 48   : 	return Py_BuildValue("i", CEterPackManager::Instance().isExist(strFileName)?1:0);

  00027	ff 75 fc	 push	 DWORD PTR _strFileName$[ebp]
  0002a	8b 0d 00 00 00
	00		 mov	 ecx, DWORD PTR ?ms_singleton@?$CSingleton@VCEterPackManager@@@@0PAVCEterPackManager@@A ; CSingleton<CEterPackManager>::ms_singleton
  00030	e8 00 00 00 00	 call	 ?isExist@CEterPackManager@@QAE_NPBD@Z ; CEterPackManager::isExist
  00035	33 c9		 xor	 ecx, ecx
  00037	84 c0		 test	 al, al
  00039	0f 95 c1	 setne	 cl
  0003c	51		 push	 ecx
  0003d	68 00 00 00 00	 push	 OFFSET ??_C@_01KBJDNOO@i@
  00042	ff 15 00 00 00
	00		 call	 DWORD PTR __imp__Py_BuildValue
  00048	83 c4 08	 add	 esp, 8

; 49   : }

  0004b	8b e5		 mov	 esp, ebp
  0004d	5d		 pop	 ebp
  0004e	c3		 ret	 0
?packExist@@YAPAU_object@@PAU1@0@Z ENDP			; packExist
_TEXT	ENDS
; Function compile flags: /Ogtp
; File D:\Metin2 Server Files\mainline\SRC_2014\Metin2Client\UserInterface\PythonPackModule.cpp
;	COMDAT ?__BuildClientKey_20050304Myevan@CAccountConnector@@IAEXXZ
_TEXT	SEGMENT
_seed$1 = -4						; size = 4
?__BuildClientKey_20050304Myevan@CAccountConnector@@IAEXXZ PROC ; CAccountConnector::__BuildClientKey_20050304Myevan, COMDAT
; _this$ = ecx

; 29   : {

  00000	55		 push	 ebp
  00001	8b ec		 mov	 ebp, esp
  00003	51		 push	 ecx

; 15   : 	volatile DWORD seed=1491971513;

  00004	c7 45 fc b9 ad
	ed 58		 mov	 DWORD PTR _seed$1[ebp], 1491971513 ; 58edadb9H

; 16   : 	for (UINT i=0; i<BYTE(seed); i++)

  0000b	33 c9		 xor	 ecx, ecx
  0000d	38 4d fc	 cmp	 BYTE PTR _seed$1[ebp], cl
  00010	76 29		 jbe	 SHORT $LN8@BuildClien
$LL9@BuildClien:

; 17   : 	{
; 18   : 		seed^=2148941891;

  00012	8b 45 fc	 mov	 eax, DWORD PTR _seed$1[ebp]
  00015	35 43 40 16 80	 xor	 eax, -2146025405	; 80164043H
  0001a	89 45 fc	 mov	 DWORD PTR _seed$1[ebp], eax

; 19   : 		seed+=3592385981;

  0001d	8b 45 fc	 mov	 eax, DWORD PTR _seed$1[ebp]
  00020	2d 43 8a e0 29	 sub	 eax, 702581315		; 29e08a43H
  00025	89 45 fc	 mov	 DWORD PTR _seed$1[ebp], eax

; 20   : 		s_adwKey[i]=seed;

  00028	8b 45 fc	 mov	 eax, DWORD PTR _seed$1[ebp]
  0002b	89 04 8d 00 00
	00 00		 mov	 DWORD PTR ?s_adwKey@?1??GetKey_20050304Myevan@@YAPBEXZ@4RCKC[ecx*4], eax
  00032	41		 inc	 ecx
  00033	0f b6 45 fc	 movzx	 eax, BYTE PTR _seed$1[ebp]
  00037	3b c8		 cmp	 ecx, eax
  00039	72 d7		 jb	 SHORT $LL9@BuildClien
$LN8@BuildClien:

; 30   : 	const BYTE * c_pszKey = GetKey_20050304Myevan();
; 31   : 	memcpy(g_adwEncryptKey, c_pszKey+157, 16);

  0003b	0f 10 05 9d 00
	00 00		 movups	 xmm0, XMMWORD PTR ?s_adwKey@?1??GetKey_20050304Myevan@@YAPBEXZ@4RCKC+157
  00042	56		 push	 esi
  00043	33 f6		 xor	 esi, esi
  00045	0f 11 05 00 00
	00 00		 movups	 XMMWORD PTR ?g_adwEncryptKey@@3PAKA, xmm0
  0004c	0f 1f 40 00	 npad	 4
$LL4@BuildClien:

; 32   : 
; 33   : 	for (DWORD i = 0; i < 4; ++i)
; 34   : 		g_adwEncryptKey[i] = random();

  00050	e8 00 00 00 00	 call	 ?random@@YAKXZ		; random
  00055	89 86 00 00 00
	00		 mov	 DWORD PTR ?g_adwEncryptKey@@3PAKA[esi], eax
  0005b	83 c6 04	 add	 esi, 4
  0005e	83 fe 10	 cmp	 esi, 16			; 00000010H
  00061	72 ed		 jb	 SHORT $LL4@BuildClien

; 35   : 
; 36   : 	tea_encrypt((DWORD *) g_adwDecryptKey, (const DWORD *) g_adwEncryptKey, (const DWORD *) (c_pszKey+37), 16);

  00063	6a 10		 push	 16			; 00000010H
  00065	68 25 00 00 00	 push	 OFFSET ?s_adwKey@?1??GetKey_20050304Myevan@@YAPBEXZ@4RCKC+37
  0006a	68 00 00 00 00	 push	 OFFSET ?g_adwEncryptKey@@3PAKA ; g_adwEncryptKey
  0006f	68 00 00 00 00	 push	 OFFSET ?g_adwDecryptKey@@3PAKA ; g_adwDecryptKey
  00074	e8 00 00 00 00	 call	 _tea_encrypt
  00079	83 c4 10	 add	 esp, 16			; 00000010H
  0007c	5e		 pop	 esi

; 37   : //	TEA_Encrypt((DWORD *) g_adwDecryptKey, (const DWORD *) g_adwEncryptKey, (const DWORD *) (c_pszKey+37), 16);
; 38   : }

  0007d	8b e5		 mov	 esp, ebp
  0007f	5d		 pop	 ebp
  00080	c3		 ret	 0
?__BuildClientKey_20050304Myevan@CAccountConnector@@IAEXXZ ENDP ; CAccountConnector::__BuildClientKey_20050304Myevan
_TEXT	ENDS
; Function compile flags: /Ogtp
; File D:\Metin2 Server Files\mainline\SRC_2014\Metin2Client\UserInterface\PythonPackModule.cpp
;	COMDAT ?initpack@@YAXXZ
_TEXT	SEGMENT
?initpack@@YAXXZ PROC					; initpack, COMDAT

; 79   : 	static PyMethodDef s_methods[] =
; 80   : 	{
; 81   : 		{ "Exist",		packExist,		METH_VARARGS },
; 82   : 		{ "Get",		packGet,		METH_VARARGS },
; 83   : 		{ NULL, NULL },		
; 84   : 	};
; 85   : 	
; 86   : 	Py_InitModule("pack", s_methods);

  00000	68 f5 03 00 00	 push	 1013			; 000003f5H
  00005	6a 00		 push	 0
  00007	6a 00		 push	 0
  00009	68 00 00 00 00	 push	 OFFSET ?s_methods@?1??initpack@@YAXXZ@4PAUPyMethodDef@@A
  0000e	68 00 00 00 00	 push	 OFFSET ??_C@_04IPANLPFO@pack@
  00013	ff 15 00 00 00
	00		 call	 DWORD PTR __imp__Py_InitModule4
  00019	83 c4 14	 add	 esp, 20			; 00000014H

; 87   : }

  0001c	c3		 ret	 0
?initpack@@YAXXZ ENDP					; initpack
_TEXT	ENDS
END
