; Listing generated by Microsoft (R) Optimizing Compiler Version 19.28.29335.0 

	TITLE	D:\Metin2 Server Files\mainline\SRC_2014\Metin2Client\UserInterface\PythonPlayerModule.cpp
	.686P
	.XMM
	include listing.inc
	.model	flat

INCLUDELIB LIBCMT
INCLUDELIB OLDNAMES

PUBLIC	??_7?$CDynamicPoolEx@VCHeaderDecorator@NEffectUpdateDecorator@@@@6B@ ; CDynamicPoolEx<NEffectUpdateDecorator::CHeaderDecorator>::`vftable'
PUBLIC	??_G?$CDynamicPoolEx@VCHeaderDecorator@NEffectUpdateDecorator@@@@UAEPAXI@Z ; CDynamicPoolEx<NEffectUpdateDecorator::CHeaderDecorator>::`scalar deleting destructor'
PUBLIC	??_7?$CDynamicPoolEx@VCRotationDecorator@NEffectUpdateDecorator@@@@6B@ ; CDynamicPoolEx<NEffectUpdateDecorator::CRotationDecorator>::`vftable'
PUBLIC	??_G?$CDynamicPoolEx@VCRotationDecorator@NEffectUpdateDecorator@@@@UAEPAXI@Z ; CDynamicPoolEx<NEffectUpdateDecorator::CRotationDecorator>::`scalar deleting destructor'
PUBLIC	??_7?$CDynamicPoolEx@VCGravityDecorator@NEffectUpdateDecorator@@@@6B@ ; CDynamicPoolEx<NEffectUpdateDecorator::CGravityDecorator>::`vftable'
PUBLIC	??_G?$CDynamicPoolEx@VCGravityDecorator@NEffectUpdateDecorator@@@@UAEPAXI@Z ; CDynamicPoolEx<NEffectUpdateDecorator::CGravityDecorator>::`scalar deleting destructor'
PUBLIC	??_7?$CDynamicPoolEx@VCAirResistanceDecorator@NEffectUpdateDecorator@@@@6B@ ; CDynamicPoolEx<NEffectUpdateDecorator::CAirResistanceDecorator>::`vftable'
PUBLIC	??_G?$CDynamicPoolEx@VCAirResistanceDecorator@NEffectUpdateDecorator@@@@UAEPAXI@Z ; CDynamicPoolEx<NEffectUpdateDecorator::CAirResistanceDecorator>::`scalar deleting destructor'
PUBLIC	??_R4?$CDynamicPoolEx@VCHeaderDecorator@NEffectUpdateDecorator@@@@6B@ ; CDynamicPoolEx<NEffectUpdateDecorator::CHeaderDecorator>::`RTTI Complete Object Locator'
PUBLIC	??_R0?AV?$CDynamicPoolEx@VCHeaderDecorator@NEffectUpdateDecorator@@@@@8 ; CDynamicPoolEx<NEffectUpdateDecorator::CHeaderDecorator> `RTTI Type Descriptor'
PUBLIC	??_R3?$CDynamicPoolEx@VCHeaderDecorator@NEffectUpdateDecorator@@@@8 ; CDynamicPoolEx<NEffectUpdateDecorator::CHeaderDecorator>::`RTTI Class Hierarchy Descriptor'
PUBLIC	??_R2?$CDynamicPoolEx@VCHeaderDecorator@NEffectUpdateDecorator@@@@8 ; CDynamicPoolEx<NEffectUpdateDecorator::CHeaderDecorator>::`RTTI Base Class Array'
PUBLIC	??_R1A@?0A@EA@?$CDynamicPoolEx@VCHeaderDecorator@NEffectUpdateDecorator@@@@8 ; CDynamicPoolEx<NEffectUpdateDecorator::CHeaderDecorator>::`RTTI Base Class Descriptor at (0,-1,0,64)'
PUBLIC	??_R4?$CDynamicPoolEx@VCNullDecorator@NEffectUpdateDecorator@@@@6B@ ; CDynamicPoolEx<NEffectUpdateDecorator::CNullDecorator>::`RTTI Complete Object Locator'
PUBLIC	??_R0?AV?$CDynamicPoolEx@VCNullDecorator@NEffectUpdateDecorator@@@@@8 ; CDynamicPoolEx<NEffectUpdateDecorator::CNullDecorator> `RTTI Type Descriptor'
PUBLIC	??_R3?$CDynamicPoolEx@VCNullDecorator@NEffectUpdateDecorator@@@@8 ; CDynamicPoolEx<NEffectUpdateDecorator::CNullDecorator>::`RTTI Class Hierarchy Descriptor'
PUBLIC	??_R2?$CDynamicPoolEx@VCNullDecorator@NEffectUpdateDecorator@@@@8 ; CDynamicPoolEx<NEffectUpdateDecorator::CNullDecorator>::`RTTI Base Class Array'
PUBLIC	??_R1A@?0A@EA@?$CDynamicPoolEx@VCNullDecorator@NEffectUpdateDecorator@@@@8 ; CDynamicPoolEx<NEffectUpdateDecorator::CNullDecorator>::`RTTI Base Class Descriptor at (0,-1,0,64)'
PUBLIC	??_R4?$CDynamicPoolEx@VCTextureAnimationCWDecorator@NEffectUpdateDecorator@@@@6B@ ; CDynamicPoolEx<NEffectUpdateDecorator::CTextureAnimationCWDecorator>::`RTTI Complete Object Locator'
PUBLIC	??_R0?AV?$CDynamicPoolEx@VCTextureAnimationCWDecorator@NEffectUpdateDecorator@@@@@8 ; CDynamicPoolEx<NEffectUpdateDecorator::CTextureAnimationCWDecorator> `RTTI Type Descriptor'
PUBLIC	??_R3?$CDynamicPoolEx@VCTextureAnimationCWDecorator@NEffectUpdateDecorator@@@@8 ; CDynamicPoolEx<NEffectUpdateDecorator::CTextureAnimationCWDecorator>::`RTTI Class Hierarchy Descriptor'
PUBLIC	??_R2?$CDynamicPoolEx@VCTextureAnimationCWDecorator@NEffectUpdateDecorator@@@@8 ; CDynamicPoolEx<NEffectUpdateDecorator::CTextureAnimationCWDecorator>::`RTTI Base Class Array'
PUBLIC	??_R1A@?0A@EA@?$CDynamicPoolEx@VCTextureAnimationCWDecorator@NEffectUpdateDecorator@@@@8 ; CDynamicPoolEx<NEffectUpdateDecorator::CTextureAnimationCWDecorator>::`RTTI Base Class Descriptor at (0,-1,0,64)'
PUBLIC	??_R4?$CDynamicPoolEx@VCTextureAnimationCCWDecorator@NEffectUpdateDecorator@@@@6B@ ; CDynamicPoolEx<NEffectUpdateDecorator::CTextureAnimationCCWDecorator>::`RTTI Complete Object Locator'
PUBLIC	??_R0?AV?$CDynamicPoolEx@VCTextureAnimationCCWDecorator@NEffectUpdateDecorator@@@@@8 ; CDynamicPoolEx<NEffectUpdateDecorator::CTextureAnimationCCWDecorator> `RTTI Type Descriptor'
PUBLIC	??_R3?$CDynamicPoolEx@VCTextureAnimationCCWDecorator@NEffectUpdateDecorator@@@@8 ; CDynamicPoolEx<NEffectUpdateDecorator::CTextureAnimationCCWDecorator>::`RTTI Class Hierarchy Descriptor'
PUBLIC	??_R2?$CDynamicPoolEx@VCTextureAnimationCCWDecorator@NEffectUpdateDecorator@@@@8 ; CDynamicPoolEx<NEffectUpdateDecorator::CTextureAnimationCCWDecorator>::`RTTI Base Class Array'
PUBLIC	??_R1A@?0A@EA@?$CDynamicPoolEx@VCTextureAnimationCCWDecorator@NEffectUpdateDecorator@@@@8 ; CDynamicPoolEx<NEffectUpdateDecorator::CTextureAnimationCCWDecorator>::`RTTI Base Class Descriptor at (0,-1,0,64)'
PUBLIC	??_R4?$CDynamicPoolEx@VCTextureAnimationRandomDecorator@NEffectUpdateDecorator@@@@6B@ ; CDynamicPoolEx<NEffectUpdateDecorator::CTextureAnimationRandomDecorator>::`RTTI Complete Object Locator'
PUBLIC	??_R0?AV?$CDynamicPoolEx@VCTextureAnimationRandomDecorator@NEffectUpdateDecorator@@@@@8 ; CDynamicPoolEx<NEffectUpdateDecorator::CTextureAnimationRandomDecorator> `RTTI Type Descriptor'
PUBLIC	??_R3?$CDynamicPoolEx@VCTextureAnimationRandomDecorator@NEffectUpdateDecorator@@@@8 ; CDynamicPoolEx<NEffectUpdateDecorator::CTextureAnimationRandomDecorator>::`RTTI Class Hierarchy Descriptor'
PUBLIC	??_R2?$CDynamicPoolEx@VCTextureAnimationRandomDecorator@NEffectUpdateDecorator@@@@8 ; CDynamicPoolEx<NEffectUpdateDecorator::CTextureAnimationRandomDecorator>::`RTTI Base Class Array'
PUBLIC	??_R1A@?0A@EA@?$CDynamicPoolEx@VCTextureAnimationRandomDecorator@NEffectUpdateDecorator@@@@8 ; CDynamicPoolEx<NEffectUpdateDecorator::CTextureAnimationRandomDecorator>::`RTTI Base Class Descriptor at (0,-1,0,64)'
PUBLIC	??_R4?$CDynamicPoolEx@VCAirResistanceDecorator@NEffectUpdateDecorator@@@@6B@ ; CDynamicPoolEx<NEffectUpdateDecorator::CAirResistanceDecorator>::`RTTI Complete Object Locator'
PUBLIC	??_R0?AV?$CDynamicPoolEx@VCAirResistanceDecorator@NEffectUpdateDecorator@@@@@8 ; CDynamicPoolEx<NEffectUpdateDecorator::CAirResistanceDecorator> `RTTI Type Descriptor'
PUBLIC	??_R3?$CDynamicPoolEx@VCAirResistanceDecorator@NEffectUpdateDecorator@@@@8 ; CDynamicPoolEx<NEffectUpdateDecorator::CAirResistanceDecorator>::`RTTI Class Hierarchy Descriptor'
PUBLIC	??_R2?$CDynamicPoolEx@VCAirResistanceDecorator@NEffectUpdateDecorator@@@@8 ; CDynamicPoolEx<NEffectUpdateDecorator::CAirResistanceDecorator>::`RTTI Base Class Array'
PUBLIC	??_R1A@?0A@EA@?$CDynamicPoolEx@VCAirResistanceDecorator@NEffectUpdateDecorator@@@@8 ; CDynamicPoolEx<NEffectUpdateDecorator::CAirResistanceDecorator>::`RTTI Base Class Descriptor at (0,-1,0,64)'
PUBLIC	??_R4?$CDynamicPoolEx@VCGravityDecorator@NEffectUpdateDecorator@@@@6B@ ; CDynamicPoolEx<NEffectUpdateDecorator::CGravityDecorator>::`RTTI Complete Object Locator'
PUBLIC	??_R0?AV?$CDynamicPoolEx@VCGravityDecorator@NEffectUpdateDecorator@@@@@8 ; CDynamicPoolEx<NEffectUpdateDecorator::CGravityDecorator> `RTTI Type Descriptor'
PUBLIC	??_R3?$CDynamicPoolEx@VCGravityDecorator@NEffectUpdateDecorator@@@@8 ; CDynamicPoolEx<NEffectUpdateDecorator::CGravityDecorator>::`RTTI Class Hierarchy Descriptor'
PUBLIC	??_R2?$CDynamicPoolEx@VCGravityDecorator@NEffectUpdateDecorator@@@@8 ; CDynamicPoolEx<NEffectUpdateDecorator::CGravityDecorator>::`RTTI Base Class Array'
PUBLIC	??_R1A@?0A@EA@?$CDynamicPoolEx@VCGravityDecorator@NEffectUpdateDecorator@@@@8 ; CDynamicPoolEx<NEffectUpdateDecorator::CGravityDecorator>::`RTTI Base Class Descriptor at (0,-1,0,64)'
PUBLIC	??_R4?$CDynamicPoolEx@VCRotationDecorator@NEffectUpdateDecorator@@@@6B@ ; CDynamicPoolEx<NEffectUpdateDecorator::CRotationDecorator>::`RTTI Complete Object Locator'
PUBLIC	??_R0?AV?$CDynamicPoolEx@VCRotationDecorator@NEffectUpdateDecorator@@@@@8 ; CDynamicPoolEx<NEffectUpdateDecorator::CRotationDecorator> `RTTI Type Descriptor'
PUBLIC	??_R3?$CDynamicPoolEx@VCRotationDecorator@NEffectUpdateDecorator@@@@8 ; CDynamicPoolEx<NEffectUpdateDecorator::CRotationDecorator>::`RTTI Class Hierarchy Descriptor'
PUBLIC	??_R2?$CDynamicPoolEx@VCRotationDecorator@NEffectUpdateDecorator@@@@8 ; CDynamicPoolEx<NEffectUpdateDecorator::CRotationDecorator>::`RTTI Base Class Array'
PUBLIC	??_R1A@?0A@EA@?$CDynamicPoolEx@VCRotationDecorator@NEffectUpdateDecorator@@@@8 ; CDynamicPoolEx<NEffectUpdateDecorator::CRotationDecorator>::`RTTI Base Class Descriptor at (0,-1,0,64)'
PUBLIC	??_7?$CDynamicPoolEx@VCTextureAnimationRandomDecorator@NEffectUpdateDecorator@@@@6B@ ; CDynamicPoolEx<NEffectUpdateDecorator::CTextureAnimationRandomDecorator>::`vftable'
PUBLIC	??_G?$CDynamicPoolEx@VCTextureAnimationRandomDecorator@NEffectUpdateDecorator@@@@UAEPAXI@Z ; CDynamicPoolEx<NEffectUpdateDecorator::CTextureAnimationRandomDecorator>::`scalar deleting destructor'
PUBLIC	??_7?$CDynamicPoolEx@VCTextureAnimationCCWDecorator@NEffectUpdateDecorator@@@@6B@ ; CDynamicPoolEx<NEffectUpdateDecorator::CTextureAnimationCCWDecorator>::`vftable'
PUBLIC	??_G?$CDynamicPoolEx@VCTextureAnimationCCWDecorator@NEffectUpdateDecorator@@@@UAEPAXI@Z ; CDynamicPoolEx<NEffectUpdateDecorator::CTextureAnimationCCWDecorator>::`scalar deleting destructor'
PUBLIC	??_7?$CDynamicPoolEx@VCTextureAnimationCWDecorator@NEffectUpdateDecorator@@@@6B@ ; CDynamicPoolEx<NEffectUpdateDecorator::CTextureAnimationCWDecorator>::`vftable'
PUBLIC	??_G?$CDynamicPoolEx@VCTextureAnimationCWDecorator@NEffectUpdateDecorator@@@@UAEPAXI@Z ; CDynamicPoolEx<NEffectUpdateDecorator::CTextureAnimationCWDecorator>::`scalar deleting destructor'
PUBLIC	?c_iSkillIndex_Tongsol@@3KB			; c_iSkillIndex_Tongsol
PUBLIC	?c_iSkillIndex_Combo@@3KB			; c_iSkillIndex_Combo
PUBLIC	?c_iSkillIndex_Fishing@@3KB			; c_iSkillIndex_Fishing
PUBLIC	?c_iSkillIndex_Mining@@3KB			; c_iSkillIndex_Mining
PUBLIC	?c_iSkillIndex_Making@@3KB			; c_iSkillIndex_Making
PUBLIC	?c_iSkillIndex_Language1@@3KB			; c_iSkillIndex_Language1
PUBLIC	?c_iSkillIndex_Language2@@3KB			; c_iSkillIndex_Language2
PUBLIC	?c_iSkillIndex_Language3@@3KB			; c_iSkillIndex_Language3
PUBLIC	?c_iSkillIndex_Polymorph@@3KB			; c_iSkillIndex_Polymorph
PUBLIC	?c_iSkillIndex_Riding@@3KB			; c_iSkillIndex_Riding
PUBLIC	?c_iSkillIndex_Summon@@3KB			; c_iSkillIndex_Summon
PUBLIC	??_7?$CDynamicPoolEx@VCNullDecorator@NEffectUpdateDecorator@@@@6B@ ; CDynamicPoolEx<NEffectUpdateDecorator::CNullDecorator>::`vftable'
PUBLIC	??_G?$CDynamicPoolEx@VCNullDecorator@NEffectUpdateDecorator@@@@UAEPAXI@Z ; CDynamicPoolEx<NEffectUpdateDecorator::CNullDecorator>::`scalar deleting destructor'
EXTRN	??_E?$CDynamicPoolEx@VCHeaderDecorator@NEffectUpdateDecorator@@@@UAEPAXI@Z:PROC ; CDynamicPoolEx<NEffectUpdateDecorator::CHeaderDecorator>::`vector deleting destructor'
EXTRN	??_E?$CDynamicPoolEx@VCRotationDecorator@NEffectUpdateDecorator@@@@UAEPAXI@Z:PROC ; CDynamicPoolEx<NEffectUpdateDecorator::CRotationDecorator>::`vector deleting destructor'
EXTRN	??_7type_info@@6B@:QWORD			; type_info::`vftable'
EXTRN	??_E?$CDynamicPoolEx@VCGravityDecorator@NEffectUpdateDecorator@@@@UAEPAXI@Z:PROC ; CDynamicPoolEx<NEffectUpdateDecorator::CGravityDecorator>::`vector deleting destructor'
EXTRN	??_E?$CDynamicPoolEx@VCAirResistanceDecorator@NEffectUpdateDecorator@@@@UAEPAXI@Z:PROC ; CDynamicPoolEx<NEffectUpdateDecorator::CAirResistanceDecorator>::`vector deleting destructor'
EXTRN	??_E?$CDynamicPoolEx@VCTextureAnimationRandomDecorator@NEffectUpdateDecorator@@@@UAEPAXI@Z:PROC ; CDynamicPoolEx<NEffectUpdateDecorator::CTextureAnimationRandomDecorator>::`vector deleting destructor'
EXTRN	??_E?$CDynamicPoolEx@VCTextureAnimationCCWDecorator@NEffectUpdateDecorator@@@@UAEPAXI@Z:PROC ; CDynamicPoolEx<NEffectUpdateDecorator::CTextureAnimationCCWDecorator>::`vector deleting destructor'
EXTRN	??_E?$CDynamicPoolEx@VCTextureAnimationCWDecorator@NEffectUpdateDecorator@@@@UAEPAXI@Z:PROC ; CDynamicPoolEx<NEffectUpdateDecorator::CTextureAnimationCWDecorator>::`vector deleting destructor'
EXTRN	??_E?$CDynamicPoolEx@VCNullDecorator@NEffectUpdateDecorator@@@@UAEPAXI@Z:PROC ; CDynamicPoolEx<NEffectUpdateDecorator::CNullDecorator>::`vector deleting destructor'
;	COMDAT ??_7?$CDynamicPoolEx@VCNullDecorator@NEffectUpdateDecorator@@@@6B@
CONST	SEGMENT
??_7?$CDynamicPoolEx@VCNullDecorator@NEffectUpdateDecorator@@@@6B@ DD FLAT:??_R4?$CDynamicPoolEx@VCNullDecorator@NEffectUpdateDecorator@@@@6B@ ; CDynamicPoolEx<NEffectUpdateDecorator::CNullDecorator>::`vftable'
	DD	FLAT:??_E?$CDynamicPoolEx@VCNullDecorator@NEffectUpdateDecorator@@@@UAEPAXI@Z
CONST	ENDS
;	COMDAT ??_7?$CDynamicPoolEx@VCTextureAnimationCWDecorator@NEffectUpdateDecorator@@@@6B@
CONST	SEGMENT
??_7?$CDynamicPoolEx@VCTextureAnimationCWDecorator@NEffectUpdateDecorator@@@@6B@ DD FLAT:??_R4?$CDynamicPoolEx@VCTextureAnimationCWDecorator@NEffectUpdateDecorator@@@@6B@ ; CDynamicPoolEx<NEffectUpdateDecorator::CTextureAnimationCWDecorator>::`vftable'
	DD	FLAT:??_E?$CDynamicPoolEx@VCTextureAnimationCWDecorator@NEffectUpdateDecorator@@@@UAEPAXI@Z
CONST	ENDS
;	COMDAT ??_7?$CDynamicPoolEx@VCTextureAnimationCCWDecorator@NEffectUpdateDecorator@@@@6B@
CONST	SEGMENT
??_7?$CDynamicPoolEx@VCTextureAnimationCCWDecorator@NEffectUpdateDecorator@@@@6B@ DD FLAT:??_R4?$CDynamicPoolEx@VCTextureAnimationCCWDecorator@NEffectUpdateDecorator@@@@6B@ ; CDynamicPoolEx<NEffectUpdateDecorator::CTextureAnimationCCWDecorator>::`vftable'
	DD	FLAT:??_E?$CDynamicPoolEx@VCTextureAnimationCCWDecorator@NEffectUpdateDecorator@@@@UAEPAXI@Z
CONST	ENDS
;	COMDAT ??_7?$CDynamicPoolEx@VCTextureAnimationRandomDecorator@NEffectUpdateDecorator@@@@6B@
CONST	SEGMENT
??_7?$CDynamicPoolEx@VCTextureAnimationRandomDecorator@NEffectUpdateDecorator@@@@6B@ DD FLAT:??_R4?$CDynamicPoolEx@VCTextureAnimationRandomDecorator@NEffectUpdateDecorator@@@@6B@ ; CDynamicPoolEx<NEffectUpdateDecorator::CTextureAnimationRandomDecorator>::`vftable'
	DD	FLAT:??_E?$CDynamicPoolEx@VCTextureAnimationRandomDecorator@NEffectUpdateDecorator@@@@UAEPAXI@Z
CONST	ENDS
;	COMDAT ??_R1A@?0A@EA@?$CDynamicPoolEx@VCRotationDecorator@NEffectUpdateDecorator@@@@8
rdata$r	SEGMENT
??_R1A@?0A@EA@?$CDynamicPoolEx@VCRotationDecorator@NEffectUpdateDecorator@@@@8 DD FLAT:??_R0?AV?$CDynamicPoolEx@VCRotationDecorator@NEffectUpdateDecorator@@@@@8 ; CDynamicPoolEx<NEffectUpdateDecorator::CRotationDecorator>::`RTTI Base Class Descriptor at (0,-1,0,64)'
	DD	00H
	DD	00H
	DD	0ffffffffH
	DD	00H
	DD	040H
	DD	FLAT:??_R3?$CDynamicPoolEx@VCRotationDecorator@NEffectUpdateDecorator@@@@8
rdata$r	ENDS
;	COMDAT ??_R2?$CDynamicPoolEx@VCRotationDecorator@NEffectUpdateDecorator@@@@8
rdata$r	SEGMENT
??_R2?$CDynamicPoolEx@VCRotationDecorator@NEffectUpdateDecorator@@@@8 DD FLAT:??_R1A@?0A@EA@?$CDynamicPoolEx@VCRotationDecorator@NEffectUpdateDecorator@@@@8 ; CDynamicPoolEx<NEffectUpdateDecorator::CRotationDecorator>::`RTTI Base Class Array'
rdata$r	ENDS
;	COMDAT ??_R3?$CDynamicPoolEx@VCRotationDecorator@NEffectUpdateDecorator@@@@8
rdata$r	SEGMENT
??_R3?$CDynamicPoolEx@VCRotationDecorator@NEffectUpdateDecorator@@@@8 DD 00H ; CDynamicPoolEx<NEffectUpdateDecorator::CRotationDecorator>::`RTTI Class Hierarchy Descriptor'
	DD	00H
	DD	01H
	DD	FLAT:??_R2?$CDynamicPoolEx@VCRotationDecorator@NEffectUpdateDecorator@@@@8
rdata$r	ENDS
;	COMDAT ??_R0?AV?$CDynamicPoolEx@VCRotationDecorator@NEffectUpdateDecorator@@@@@8
data$rs	SEGMENT
??_R0?AV?$CDynamicPoolEx@VCRotationDecorator@NEffectUpdateDecorator@@@@@8 DD FLAT:??_7type_info@@6B@ ; CDynamicPoolEx<NEffectUpdateDecorator::CRotationDecorator> `RTTI Type Descriptor'
	DD	00H
	DB	'.?AV?$CDynamicPoolEx@VCRotationDecorator@NEffectUpdateDe'
	DB	'corator@@@@', 00H
data$rs	ENDS
;	COMDAT ??_R4?$CDynamicPoolEx@VCRotationDecorator@NEffectUpdateDecorator@@@@6B@
rdata$r	SEGMENT
??_R4?$CDynamicPoolEx@VCRotationDecorator@NEffectUpdateDecorator@@@@6B@ DD 00H ; CDynamicPoolEx<NEffectUpdateDecorator::CRotationDecorator>::`RTTI Complete Object Locator'
	DD	00H
	DD	00H
	DD	FLAT:??_R0?AV?$CDynamicPoolEx@VCRotationDecorator@NEffectUpdateDecorator@@@@@8
	DD	FLAT:??_R3?$CDynamicPoolEx@VCRotationDecorator@NEffectUpdateDecorator@@@@8
rdata$r	ENDS
;	COMDAT ??_R1A@?0A@EA@?$CDynamicPoolEx@VCGravityDecorator@NEffectUpdateDecorator@@@@8
rdata$r	SEGMENT
??_R1A@?0A@EA@?$CDynamicPoolEx@VCGravityDecorator@NEffectUpdateDecorator@@@@8 DD FLAT:??_R0?AV?$CDynamicPoolEx@VCGravityDecorator@NEffectUpdateDecorator@@@@@8 ; CDynamicPoolEx<NEffectUpdateDecorator::CGravityDecorator>::`RTTI Base Class Descriptor at (0,-1,0,64)'
	DD	00H
	DD	00H
	DD	0ffffffffH
	DD	00H
	DD	040H
	DD	FLAT:??_R3?$CDynamicPoolEx@VCGravityDecorator@NEffectUpdateDecorator@@@@8
rdata$r	ENDS
;	COMDAT ??_R2?$CDynamicPoolEx@VCGravityDecorator@NEffectUpdateDecorator@@@@8
rdata$r	SEGMENT
??_R2?$CDynamicPoolEx@VCGravityDecorator@NEffectUpdateDecorator@@@@8 DD FLAT:??_R1A@?0A@EA@?$CDynamicPoolEx@VCGravityDecorator@NEffectUpdateDecorator@@@@8 ; CDynamicPoolEx<NEffectUpdateDecorator::CGravityDecorator>::`RTTI Base Class Array'
rdata$r	ENDS
;	COMDAT ??_R3?$CDynamicPoolEx@VCGravityDecorator@NEffectUpdateDecorator@@@@8
rdata$r	SEGMENT
??_R3?$CDynamicPoolEx@VCGravityDecorator@NEffectUpdateDecorator@@@@8 DD 00H ; CDynamicPoolEx<NEffectUpdateDecorator::CGravityDecorator>::`RTTI Class Hierarchy Descriptor'
	DD	00H
	DD	01H
	DD	FLAT:??_R2?$CDynamicPoolEx@VCGravityDecorator@NEffectUpdateDecorator@@@@8
rdata$r	ENDS
;	COMDAT ??_R0?AV?$CDynamicPoolEx@VCGravityDecorator@NEffectUpdateDecorator@@@@@8
data$rs	SEGMENT
??_R0?AV?$CDynamicPoolEx@VCGravityDecorator@NEffectUpdateDecorator@@@@@8 DD FLAT:??_7type_info@@6B@ ; CDynamicPoolEx<NEffectUpdateDecorator::CGravityDecorator> `RTTI Type Descriptor'
	DD	00H
	DB	'.?AV?$CDynamicPoolEx@VCGravityDecorator@NEffectUpdateDec'
	DB	'orator@@@@', 00H
data$rs	ENDS
;	COMDAT ??_R4?$CDynamicPoolEx@VCGravityDecorator@NEffectUpdateDecorator@@@@6B@
rdata$r	SEGMENT
??_R4?$CDynamicPoolEx@VCGravityDecorator@NEffectUpdateDecorator@@@@6B@ DD 00H ; CDynamicPoolEx<NEffectUpdateDecorator::CGravityDecorator>::`RTTI Complete Object Locator'
	DD	00H
	DD	00H
	DD	FLAT:??_R0?AV?$CDynamicPoolEx@VCGravityDecorator@NEffectUpdateDecorator@@@@@8
	DD	FLAT:??_R3?$CDynamicPoolEx@VCGravityDecorator@NEffectUpdateDecorator@@@@8
rdata$r	ENDS
;	COMDAT ??_R1A@?0A@EA@?$CDynamicPoolEx@VCAirResistanceDecorator@NEffectUpdateDecorator@@@@8
rdata$r	SEGMENT
??_R1A@?0A@EA@?$CDynamicPoolEx@VCAirResistanceDecorator@NEffectUpdateDecorator@@@@8 DD FLAT:??_R0?AV?$CDynamicPoolEx@VCAirResistanceDecorator@NEffectUpdateDecorator@@@@@8 ; CDynamicPoolEx<NEffectUpdateDecorator::CAirResistanceDecorator>::`RTTI Base Class Descriptor at (0,-1,0,64)'
	DD	00H
	DD	00H
	DD	0ffffffffH
	DD	00H
	DD	040H
	DD	FLAT:??_R3?$CDynamicPoolEx@VCAirResistanceDecorator@NEffectUpdateDecorator@@@@8
rdata$r	ENDS
;	COMDAT ??_R2?$CDynamicPoolEx@VCAirResistanceDecorator@NEffectUpdateDecorator@@@@8
rdata$r	SEGMENT
??_R2?$CDynamicPoolEx@VCAirResistanceDecorator@NEffectUpdateDecorator@@@@8 DD FLAT:??_R1A@?0A@EA@?$CDynamicPoolEx@VCAirResistanceDecorator@NEffectUpdateDecorator@@@@8 ; CDynamicPoolEx<NEffectUpdateDecorator::CAirResistanceDecorator>::`RTTI Base Class Array'
rdata$r	ENDS
;	COMDAT ??_R3?$CDynamicPoolEx@VCAirResistanceDecorator@NEffectUpdateDecorator@@@@8
rdata$r	SEGMENT
??_R3?$CDynamicPoolEx@VCAirResistanceDecorator@NEffectUpdateDecorator@@@@8 DD 00H ; CDynamicPoolEx<NEffectUpdateDecorator::CAirResistanceDecorator>::`RTTI Class Hierarchy Descriptor'
	DD	00H
	DD	01H
	DD	FLAT:??_R2?$CDynamicPoolEx@VCAirResistanceDecorator@NEffectUpdateDecorator@@@@8
rdata$r	ENDS
;	COMDAT ??_R0?AV?$CDynamicPoolEx@VCAirResistanceDecorator@NEffectUpdateDecorator@@@@@8
data$rs	SEGMENT
??_R0?AV?$CDynamicPoolEx@VCAirResistanceDecorator@NEffectUpdateDecorator@@@@@8 DD FLAT:??_7type_info@@6B@ ; CDynamicPoolEx<NEffectUpdateDecorator::CAirResistanceDecorator> `RTTI Type Descriptor'
	DD	00H
	DB	'.?AV?$CDynamicPoolEx@VCAirResistanceDecorator@NEffectUpd'
	DB	'ateDecorator@@@@', 00H
data$rs	ENDS
;	COMDAT ??_R4?$CDynamicPoolEx@VCAirResistanceDecorator@NEffectUpdateDecorator@@@@6B@
rdata$r	SEGMENT
??_R4?$CDynamicPoolEx@VCAirResistanceDecorator@NEffectUpdateDecorator@@@@6B@ DD 00H ; CDynamicPoolEx<NEffectUpdateDecorator::CAirResistanceDecorator>::`RTTI Complete Object Locator'
	DD	00H
	DD	00H
	DD	FLAT:??_R0?AV?$CDynamicPoolEx@VCAirResistanceDecorator@NEffectUpdateDecorator@@@@@8
	DD	FLAT:??_R3?$CDynamicPoolEx@VCAirResistanceDecorator@NEffectUpdateDecorator@@@@8
rdata$r	ENDS
;	COMDAT ??_R1A@?0A@EA@?$CDynamicPoolEx@VCTextureAnimationRandomDecorator@NEffectUpdateDecorator@@@@8
rdata$r	SEGMENT
??_R1A@?0A@EA@?$CDynamicPoolEx@VCTextureAnimationRandomDecorator@NEffectUpdateDecorator@@@@8 DD FLAT:??_R0?AV?$CDynamicPoolEx@VCTextureAnimationRandomDecorator@NEffectUpdateDecorator@@@@@8 ; CDynamicPoolEx<NEffectUpdateDecorator::CTextureAnimationRandomDecorator>::`RTTI Base Class Descriptor at (0,-1,0,64)'
	DD	00H
	DD	00H
	DD	0ffffffffH
	DD	00H
	DD	040H
	DD	FLAT:??_R3?$CDynamicPoolEx@VCTextureAnimationRandomDecorator@NEffectUpdateDecorator@@@@8
rdata$r	ENDS
;	COMDAT ??_R2?$CDynamicPoolEx@VCTextureAnimationRandomDecorator@NEffectUpdateDecorator@@@@8
rdata$r	SEGMENT
??_R2?$CDynamicPoolEx@VCTextureAnimationRandomDecorator@NEffectUpdateDecorator@@@@8 DD FLAT:??_R1A@?0A@EA@?$CDynamicPoolEx@VCTextureAnimationRandomDecorator@NEffectUpdateDecorator@@@@8 ; CDynamicPoolEx<NEffectUpdateDecorator::CTextureAnimationRandomDecorator>::`RTTI Base Class Array'
rdata$r	ENDS
;	COMDAT ??_R3?$CDynamicPoolEx@VCTextureAnimationRandomDecorator@NEffectUpdateDecorator@@@@8
rdata$r	SEGMENT
??_R3?$CDynamicPoolEx@VCTextureAnimationRandomDecorator@NEffectUpdateDecorator@@@@8 DD 00H ; CDynamicPoolEx<NEffectUpdateDecorator::CTextureAnimationRandomDecorator>::`RTTI Class Hierarchy Descriptor'
	DD	00H
	DD	01H
	DD	FLAT:??_R2?$CDynamicPoolEx@VCTextureAnimationRandomDecorator@NEffectUpdateDecorator@@@@8
rdata$r	ENDS
;	COMDAT ??_R0?AV?$CDynamicPoolEx@VCTextureAnimationRandomDecorator@NEffectUpdateDecorator@@@@@8
data$rs	SEGMENT
??_R0?AV?$CDynamicPoolEx@VCTextureAnimationRandomDecorator@NEffectUpdateDecorator@@@@@8 DD FLAT:??_7type_info@@6B@ ; CDynamicPoolEx<NEffectUpdateDecorator::CTextureAnimationRandomDecorator> `RTTI Type Descriptor'
	DD	00H
	DB	'.?AV?$CDynamicPoolEx@VCTextureAnimationRandomDecorator@N'
	DB	'EffectUpdateDecorator@@@@', 00H
data$rs	ENDS
;	COMDAT ??_R4?$CDynamicPoolEx@VCTextureAnimationRandomDecorator@NEffectUpdateDecorator@@@@6B@
rdata$r	SEGMENT
??_R4?$CDynamicPoolEx@VCTextureAnimationRandomDecorator@NEffectUpdateDecorator@@@@6B@ DD 00H ; CDynamicPoolEx<NEffectUpdateDecorator::CTextureAnimationRandomDecorator>::`RTTI Complete Object Locator'
	DD	00H
	DD	00H
	DD	FLAT:??_R0?AV?$CDynamicPoolEx@VCTextureAnimationRandomDecorator@NEffectUpdateDecorator@@@@@8
	DD	FLAT:??_R3?$CDynamicPoolEx@VCTextureAnimationRandomDecorator@NEffectUpdateDecorator@@@@8
rdata$r	ENDS
;	COMDAT ??_R1A@?0A@EA@?$CDynamicPoolEx@VCTextureAnimationCCWDecorator@NEffectUpdateDecorator@@@@8
rdata$r	SEGMENT
??_R1A@?0A@EA@?$CDynamicPoolEx@VCTextureAnimationCCWDecorator@NEffectUpdateDecorator@@@@8 DD FLAT:??_R0?AV?$CDynamicPoolEx@VCTextureAnimationCCWDecorator@NEffectUpdateDecorator@@@@@8 ; CDynamicPoolEx<NEffectUpdateDecorator::CTextureAnimationCCWDecorator>::`RTTI Base Class Descriptor at (0,-1,0,64)'
	DD	00H
	DD	00H
	DD	0ffffffffH
	DD	00H
	DD	040H
	DD	FLAT:??_R3?$CDynamicPoolEx@VCTextureAnimationCCWDecorator@NEffectUpdateDecorator@@@@8
rdata$r	ENDS
;	COMDAT ??_R2?$CDynamicPoolEx@VCTextureAnimationCCWDecorator@NEffectUpdateDecorator@@@@8
rdata$r	SEGMENT
??_R2?$CDynamicPoolEx@VCTextureAnimationCCWDecorator@NEffectUpdateDecorator@@@@8 DD FLAT:??_R1A@?0A@EA@?$CDynamicPoolEx@VCTextureAnimationCCWDecorator@NEffectUpdateDecorator@@@@8 ; CDynamicPoolEx<NEffectUpdateDecorator::CTextureAnimationCCWDecorator>::`RTTI Base Class Array'
rdata$r	ENDS
;	COMDAT ??_R3?$CDynamicPoolEx@VCTextureAnimationCCWDecorator@NEffectUpdateDecorator@@@@8
rdata$r	SEGMENT
??_R3?$CDynamicPoolEx@VCTextureAnimationCCWDecorator@NEffectUpdateDecorator@@@@8 DD 00H ; CDynamicPoolEx<NEffectUpdateDecorator::CTextureAnimationCCWDecorator>::`RTTI Class Hierarchy Descriptor'
	DD	00H
	DD	01H
	DD	FLAT:??_R2?$CDynamicPoolEx@VCTextureAnimationCCWDecorator@NEffectUpdateDecorator@@@@8
rdata$r	ENDS
;	COMDAT ??_R0?AV?$CDynamicPoolEx@VCTextureAnimationCCWDecorator@NEffectUpdateDecorator@@@@@8
data$rs	SEGMENT
??_R0?AV?$CDynamicPoolEx@VCTextureAnimationCCWDecorator@NEffectUpdateDecorator@@@@@8 DD FLAT:??_7type_info@@6B@ ; CDynamicPoolEx<NEffectUpdateDecorator::CTextureAnimationCCWDecorator> `RTTI Type Descriptor'
	DD	00H
	DB	'.?AV?$CDynamicPoolEx@VCTextureAnimationCCWDecorator@NEff'
	DB	'ectUpdateDecorator@@@@', 00H
data$rs	ENDS
;	COMDAT ??_R4?$CDynamicPoolEx@VCTextureAnimationCCWDecorator@NEffectUpdateDecorator@@@@6B@
rdata$r	SEGMENT
??_R4?$CDynamicPoolEx@VCTextureAnimationCCWDecorator@NEffectUpdateDecorator@@@@6B@ DD 00H ; CDynamicPoolEx<NEffectUpdateDecorator::CTextureAnimationCCWDecorator>::`RTTI Complete Object Locator'
	DD	00H
	DD	00H
	DD	FLAT:??_R0?AV?$CDynamicPoolEx@VCTextureAnimationCCWDecorator@NEffectUpdateDecorator@@@@@8
	DD	FLAT:??_R3?$CDynamicPoolEx@VCTextureAnimationCCWDecorator@NEffectUpdateDecorator@@@@8
rdata$r	ENDS
;	COMDAT ??_R1A@?0A@EA@?$CDynamicPoolEx@VCTextureAnimationCWDecorator@NEffectUpdateDecorator@@@@8
rdata$r	SEGMENT
??_R1A@?0A@EA@?$CDynamicPoolEx@VCTextureAnimationCWDecorator@NEffectUpdateDecorator@@@@8 DD FLAT:??_R0?AV?$CDynamicPoolEx@VCTextureAnimationCWDecorator@NEffectUpdateDecorator@@@@@8 ; CDynamicPoolEx<NEffectUpdateDecorator::CTextureAnimationCWDecorator>::`RTTI Base Class Descriptor at (0,-1,0,64)'
	DD	00H
	DD	00H
	DD	0ffffffffH
	DD	00H
	DD	040H
	DD	FLAT:??_R3?$CDynamicPoolEx@VCTextureAnimationCWDecorator@NEffectUpdateDecorator@@@@8
rdata$r	ENDS
;	COMDAT ??_R2?$CDynamicPoolEx@VCTextureAnimationCWDecorator@NEffectUpdateDecorator@@@@8
rdata$r	SEGMENT
??_R2?$CDynamicPoolEx@VCTextureAnimationCWDecorator@NEffectUpdateDecorator@@@@8 DD FLAT:??_R1A@?0A@EA@?$CDynamicPoolEx@VCTextureAnimationCWDecorator@NEffectUpdateDecorator@@@@8 ; CDynamicPoolEx<NEffectUpdateDecorator::CTextureAnimationCWDecorator>::`RTTI Base Class Array'
rdata$r	ENDS
;	COMDAT ??_R3?$CDynamicPoolEx@VCTextureAnimationCWDecorator@NEffectUpdateDecorator@@@@8
rdata$r	SEGMENT
??_R3?$CDynamicPoolEx@VCTextureAnimationCWDecorator@NEffectUpdateDecorator@@@@8 DD 00H ; CDynamicPoolEx<NEffectUpdateDecorator::CTextureAnimationCWDecorator>::`RTTI Class Hierarchy Descriptor'
	DD	00H
	DD	01H
	DD	FLAT:??_R2?$CDynamicPoolEx@VCTextureAnimationCWDecorator@NEffectUpdateDecorator@@@@8
rdata$r	ENDS
;	COMDAT ??_R0?AV?$CDynamicPoolEx@VCTextureAnimationCWDecorator@NEffectUpdateDecorator@@@@@8
data$rs	SEGMENT
??_R0?AV?$CDynamicPoolEx@VCTextureAnimationCWDecorator@NEffectUpdateDecorator@@@@@8 DD FLAT:??_7type_info@@6B@ ; CDynamicPoolEx<NEffectUpdateDecorator::CTextureAnimationCWDecorator> `RTTI Type Descriptor'
	DD	00H
	DB	'.?AV?$CDynamicPoolEx@VCTextureAnimationCWDecorator@NEffe'
	DB	'ctUpdateDecorator@@@@', 00H
data$rs	ENDS
;	COMDAT ??_R4?$CDynamicPoolEx@VCTextureAnimationCWDecorator@NEffectUpdateDecorator@@@@6B@
rdata$r	SEGMENT
??_R4?$CDynamicPoolEx@VCTextureAnimationCWDecorator@NEffectUpdateDecorator@@@@6B@ DD 00H ; CDynamicPoolEx<NEffectUpdateDecorator::CTextureAnimationCWDecorator>::`RTTI Complete Object Locator'
	DD	00H
	DD	00H
	DD	FLAT:??_R0?AV?$CDynamicPoolEx@VCTextureAnimationCWDecorator@NEffectUpdateDecorator@@@@@8
	DD	FLAT:??_R3?$CDynamicPoolEx@VCTextureAnimationCWDecorator@NEffectUpdateDecorator@@@@8
rdata$r	ENDS
;	COMDAT ??_R1A@?0A@EA@?$CDynamicPoolEx@VCNullDecorator@NEffectUpdateDecorator@@@@8
rdata$r	SEGMENT
??_R1A@?0A@EA@?$CDynamicPoolEx@VCNullDecorator@NEffectUpdateDecorator@@@@8 DD FLAT:??_R0?AV?$CDynamicPoolEx@VCNullDecorator@NEffectUpdateDecorator@@@@@8 ; CDynamicPoolEx<NEffectUpdateDecorator::CNullDecorator>::`RTTI Base Class Descriptor at (0,-1,0,64)'
	DD	00H
	DD	00H
	DD	0ffffffffH
	DD	00H
	DD	040H
	DD	FLAT:??_R3?$CDynamicPoolEx@VCNullDecorator@NEffectUpdateDecorator@@@@8
rdata$r	ENDS
;	COMDAT ??_R2?$CDynamicPoolEx@VCNullDecorator@NEffectUpdateDecorator@@@@8
rdata$r	SEGMENT
??_R2?$CDynamicPoolEx@VCNullDecorator@NEffectUpdateDecorator@@@@8 DD FLAT:??_R1A@?0A@EA@?$CDynamicPoolEx@VCNullDecorator@NEffectUpdateDecorator@@@@8 ; CDynamicPoolEx<NEffectUpdateDecorator::CNullDecorator>::`RTTI Base Class Array'
rdata$r	ENDS
;	COMDAT ??_R3?$CDynamicPoolEx@VCNullDecorator@NEffectUpdateDecorator@@@@8
rdata$r	SEGMENT
??_R3?$CDynamicPoolEx@VCNullDecorator@NEffectUpdateDecorator@@@@8 DD 00H ; CDynamicPoolEx<NEffectUpdateDecorator::CNullDecorator>::`RTTI Class Hierarchy Descriptor'
	DD	00H
	DD	01H
	DD	FLAT:??_R2?$CDynamicPoolEx@VCNullDecorator@NEffectUpdateDecorator@@@@8
rdata$r	ENDS
;	COMDAT ??_R0?AV?$CDynamicPoolEx@VCNullDecorator@NEffectUpdateDecorator@@@@@8
data$rs	SEGMENT
??_R0?AV?$CDynamicPoolEx@VCNullDecorator@NEffectUpdateDecorator@@@@@8 DD FLAT:??_7type_info@@6B@ ; CDynamicPoolEx<NEffectUpdateDecorator::CNullDecorator> `RTTI Type Descriptor'
	DD	00H
	DB	'.?AV?$CDynamicPoolEx@VCNullDecorator@NEffectUpdateDecora'
	DB	'tor@@@@', 00H
data$rs	ENDS
;	COMDAT ??_R4?$CDynamicPoolEx@VCNullDecorator@NEffectUpdateDecorator@@@@6B@
rdata$r	SEGMENT
??_R4?$CDynamicPoolEx@VCNullDecorator@NEffectUpdateDecorator@@@@6B@ DD 00H ; CDynamicPoolEx<NEffectUpdateDecorator::CNullDecorator>::`RTTI Complete Object Locator'
	DD	00H
	DD	00H
	DD	FLAT:??_R0?AV?$CDynamicPoolEx@VCNullDecorator@NEffectUpdateDecorator@@@@@8
	DD	FLAT:??_R3?$CDynamicPoolEx@VCNullDecorator@NEffectUpdateDecorator@@@@8
rdata$r	ENDS
;	COMDAT ??_R1A@?0A@EA@?$CDynamicPoolEx@VCHeaderDecorator@NEffectUpdateDecorator@@@@8
rdata$r	SEGMENT
??_R1A@?0A@EA@?$CDynamicPoolEx@VCHeaderDecorator@NEffectUpdateDecorator@@@@8 DD FLAT:??_R0?AV?$CDynamicPoolEx@VCHeaderDecorator@NEffectUpdateDecorator@@@@@8 ; CDynamicPoolEx<NEffectUpdateDecorator::CHeaderDecorator>::`RTTI Base Class Descriptor at (0,-1,0,64)'
	DD	00H
	DD	00H
	DD	0ffffffffH
	DD	00H
	DD	040H
	DD	FLAT:??_R3?$CDynamicPoolEx@VCHeaderDecorator@NEffectUpdateDecorator@@@@8
rdata$r	ENDS
;	COMDAT ??_R2?$CDynamicPoolEx@VCHeaderDecorator@NEffectUpdateDecorator@@@@8
rdata$r	SEGMENT
??_R2?$CDynamicPoolEx@VCHeaderDecorator@NEffectUpdateDecorator@@@@8 DD FLAT:??_R1A@?0A@EA@?$CDynamicPoolEx@VCHeaderDecorator@NEffectUpdateDecorator@@@@8 ; CDynamicPoolEx<NEffectUpdateDecorator::CHeaderDecorator>::`RTTI Base Class Array'
rdata$r	ENDS
;	COMDAT ??_R3?$CDynamicPoolEx@VCHeaderDecorator@NEffectUpdateDecorator@@@@8
rdata$r	SEGMENT
??_R3?$CDynamicPoolEx@VCHeaderDecorator@NEffectUpdateDecorator@@@@8 DD 00H ; CDynamicPoolEx<NEffectUpdateDecorator::CHeaderDecorator>::`RTTI Class Hierarchy Descriptor'
	DD	00H
	DD	01H
	DD	FLAT:??_R2?$CDynamicPoolEx@VCHeaderDecorator@NEffectUpdateDecorator@@@@8
rdata$r	ENDS
;	COMDAT ??_R0?AV?$CDynamicPoolEx@VCHeaderDecorator@NEffectUpdateDecorator@@@@@8
data$rs	SEGMENT
??_R0?AV?$CDynamicPoolEx@VCHeaderDecorator@NEffectUpdateDecorator@@@@@8 DD FLAT:??_7type_info@@6B@ ; CDynamicPoolEx<NEffectUpdateDecorator::CHeaderDecorator> `RTTI Type Descriptor'
	DD	00H
	DB	'.?AV?$CDynamicPoolEx@VCHeaderDecorator@NEffectUpdateDeco'
	DB	'rator@@@@', 00H
data$rs	ENDS
;	COMDAT ??_R4?$CDynamicPoolEx@VCHeaderDecorator@NEffectUpdateDecorator@@@@6B@
rdata$r	SEGMENT
??_R4?$CDynamicPoolEx@VCHeaderDecorator@NEffectUpdateDecorator@@@@6B@ DD 00H ; CDynamicPoolEx<NEffectUpdateDecorator::CHeaderDecorator>::`RTTI Complete Object Locator'
	DD	00H
	DD	00H
	DD	FLAT:??_R0?AV?$CDynamicPoolEx@VCHeaderDecorator@NEffectUpdateDecorator@@@@@8
	DD	FLAT:??_R3?$CDynamicPoolEx@VCHeaderDecorator@NEffectUpdateDecorator@@@@8
rdata$r	ENDS
;	COMDAT ??_7?$CDynamicPoolEx@VCAirResistanceDecorator@NEffectUpdateDecorator@@@@6B@
CONST	SEGMENT
??_7?$CDynamicPoolEx@VCAirResistanceDecorator@NEffectUpdateDecorator@@@@6B@ DD FLAT:??_R4?$CDynamicPoolEx@VCAirResistanceDecorator@NEffectUpdateDecorator@@@@6B@ ; CDynamicPoolEx<NEffectUpdateDecorator::CAirResistanceDecorator>::`vftable'
	DD	FLAT:??_E?$CDynamicPoolEx@VCAirResistanceDecorator@NEffectUpdateDecorator@@@@UAEPAXI@Z
CONST	ENDS
CONST	SEGMENT
?piecewise_construct@std@@3Upiecewise_construct_t@1@B	ORG $+1 ; std::piecewise_construct
	ORG $+3
?c_iSkillIndex_Tongsol@@3KB DD 079H			; c_iSkillIndex_Tongsol
?c_iSkillIndex_Combo@@3KB DD 07aH			; c_iSkillIndex_Combo
?c_iSkillIndex_Fishing@@3KB DD 07bH			; c_iSkillIndex_Fishing
?c_iSkillIndex_Mining@@3KB DD 07cH			; c_iSkillIndex_Mining
?c_iSkillIndex_Making@@3KB DD 07dH			; c_iSkillIndex_Making
?c_iSkillIndex_Language1@@3KB DD 07eH			; c_iSkillIndex_Language1
?c_iSkillIndex_Language2@@3KB DD 07fH			; c_iSkillIndex_Language2
?c_iSkillIndex_Language3@@3KB DD 080H			; c_iSkillIndex_Language3
?c_iSkillIndex_Polymorph@@3KB DD 081H			; c_iSkillIndex_Polymorph
?c_iSkillIndex_Riding@@3KB DD 082H			; c_iSkillIndex_Riding
?c_iSkillIndex_Summon@@3KB DD 083H			; c_iSkillIndex_Summon
CONST	ENDS
;	COMDAT ??_7?$CDynamicPoolEx@VCGravityDecorator@NEffectUpdateDecorator@@@@6B@
CONST	SEGMENT
??_7?$CDynamicPoolEx@VCGravityDecorator@NEffectUpdateDecorator@@@@6B@ DD FLAT:??_R4?$CDynamicPoolEx@VCGravityDecorator@NEffectUpdateDecorator@@@@6B@ ; CDynamicPoolEx<NEffectUpdateDecorator::CGravityDecorator>::`vftable'
	DD	FLAT:??_E?$CDynamicPoolEx@VCGravityDecorator@NEffectUpdateDecorator@@@@UAEPAXI@Z
CONST	ENDS
;	COMDAT ??_7?$CDynamicPoolEx@VCRotationDecorator@NEffectUpdateDecorator@@@@6B@
CONST	SEGMENT
??_7?$CDynamicPoolEx@VCRotationDecorator@NEffectUpdateDecorator@@@@6B@ DD FLAT:??_R4?$CDynamicPoolEx@VCRotationDecorator@NEffectUpdateDecorator@@@@6B@ ; CDynamicPoolEx<NEffectUpdateDecorator::CRotationDecorator>::`vftable'
	DD	FLAT:??_E?$CDynamicPoolEx@VCRotationDecorator@NEffectUpdateDecorator@@@@UAEPAXI@Z
CONST	ENDS
;	COMDAT ??_7?$CDynamicPoolEx@VCHeaderDecorator@NEffectUpdateDecorator@@@@6B@
CONST	SEGMENT
??_7?$CDynamicPoolEx@VCHeaderDecorator@NEffectUpdateDecorator@@@@6B@ DD FLAT:??_R4?$CDynamicPoolEx@VCHeaderDecorator@NEffectUpdateDecorator@@@@6B@ ; CDynamicPoolEx<NEffectUpdateDecorator::CHeaderDecorator>::`vftable'
	DD	FLAT:??_E?$CDynamicPoolEx@VCHeaderDecorator@NEffectUpdateDecorator@@@@UAEPAXI@Z
CONST	ENDS
PUBLIC	??_H@YGXPAXIIP6EPAX0@Z@Z			; `vector constructor iterator'
PUBLIC	?__empty_global_delete@@YAXPAX@Z		; __empty_global_delete
PUBLIC	?__empty_global_delete@@YAXPAXI@Z		; __empty_global_delete
PUBLIC	___local_stdio_printf_options
PUBLIC	__snprintf
PUBLIC	??0exception@std@@QAE@ABV01@@Z			; std::exception::exception
PUBLIC	??1exception@std@@UAE@XZ			; std::exception::~exception
PUBLIC	?what@exception@std@@UBEPBDXZ			; std::exception::what
PUBLIC	??_Gexception@std@@UAEPAXI@Z			; std::exception::`scalar deleting destructor'
PUBLIC	??0bad_alloc@std@@QAE@ABV01@@Z			; std::bad_alloc::bad_alloc
PUBLIC	??_Gbad_alloc@std@@UAEPAXI@Z			; std::bad_alloc::`scalar deleting destructor'
PUBLIC	??0bad_array_new_length@std@@QAE@XZ		; std::bad_array_new_length::bad_array_new_length
PUBLIC	??1bad_array_new_length@std@@UAE@XZ		; std::bad_array_new_length::~bad_array_new_length
PUBLIC	??0bad_array_new_length@std@@QAE@ABV01@@Z	; std::bad_array_new_length::bad_array_new_length
PUBLIC	??_Gbad_array_new_length@std@@UAEPAXI@Z		; std::bad_array_new_length::`scalar deleting destructor'
PUBLIC	?_Throw_bad_array_new_length@std@@YAXXZ		; std::_Throw_bad_array_new_length
PUBLIC	?_Xlen_string@std@@YAXXZ			; std::_Xlen_string
PUBLIC	??1?$basic_string@DU?$char_traits@D@std@@V?$allocator@D@2@@std@@QAE@XZ ; std::basic_string<char,std::char_traits<char>,std::allocator<char> >::~basic_string<char,std::char_traits<char>,std::allocator<char> >
PUBLIC	?assign@?$basic_string@DU?$char_traits@D@std@@V?$allocator@D@2@@std@@QAEAAV12@QBDI@Z ; std::basic_string<char,std::char_traits<char>,std::allocator<char> >::assign
PUBLIC	?_Throw_tree_length_error@std@@YAXXZ		; std::_Throw_tree_length_error
PUBLIC	??0SItemPos@@QAE@XZ				; SItemPos::SItemPos
PUBLIC	?initPlayer@@YAXXZ				; initPlayer
PUBLIC	??$_Destroy_in_place@PAD@std@@YAXAAPAD@Z	; std::_Destroy_in_place<char *>
PUBLIC	??$_Construct_in_place@PADABQAD@std@@YAXAAPADABQAD@Z ; std::_Construct_in_place<char *,char * const &>
PUBLIC	??$_Deallocate@$07$0A@@std@@YAXPAXI@Z		; std::_Deallocate<8,0>
PUBLIC	??$_Allocate@$07U_Default_allocate_traits@std@@$0A@@std@@YAPAXI@Z ; std::_Allocate<8,std::_Default_allocate_traits,0>
PUBLIC	??$_Allocate_manually_vector_aligned@U_Default_allocate_traits@std@@@std@@YAPAXI@Z ; std::_Allocate_manually_vector_aligned<std::_Default_allocate_traits>
PUBLIC	??1?$_Tree@V?$_Tmap_traits@HPAVCGraphicImage@@U?$less@H@std@@V?$allocator@U?$pair@$$CBHPAVCGraphicImage@@@std@@@3@$0A@@std@@@std@@QAE@XZ ; std::_Tree<std::_Tmap_traits<int,CGraphicImage *,std::less<int>,std::allocator<std::pair<int const ,CGraphicImage *> >,0> >::~_Tree<std::_Tmap_traits<int,CGraphicImage *,std::less<int>,std::allocator<std::pair<int const ,CGraphicImage *> >,0> >
PUBLIC	?_Insert_node@?$_Tree_val@U?$_Tree_simple_types@U?$pair@$$CBHPAVCGraphicImage@@@std@@@std@@@std@@QAEPAU?$_Tree_node@U?$pair@$$CBHPAVCGraphicImage@@@std@@PAX@2@U?$_Tree_id@PAU?$_Tree_node@U?$pair@$$CBHPAVCGraphicImage@@@std@@PAX@std@@@2@QAU32@@Z ; std::_Tree_val<std::_Tree_simple_types<std::pair<int const ,CGraphicImage *> > >::_Insert_node
PUBLIC	?playerPickCloseItem@@YAPAU_object@@PAU1@0@Z	; playerPickCloseItem
PUBLIC	?playerSetGameWindow@@YAPAU_object@@PAU1@0@Z	; playerSetGameWindow
PUBLIC	?playerSetQuickCameraMode@@YAPAU_object@@PAU1@0@Z ; playerSetQuickCameraMode
PUBLIC	?playerSetMainCharacterIndex@@YAPAU_object@@PAU1@0@Z ; playerSetMainCharacterIndex
PUBLIC	?playerGetMainCharacterIndex@@YAPAU_object@@PAU1@0@Z ; playerGetMainCharacterIndex
PUBLIC	?playerGetMainCharacterName@@YAPAU_object@@PAU1@0@Z ; playerGetMainCharacterName
PUBLIC	?playerGetMainCharacterPosition@@YAPAU_object@@PAU1@0@Z ; playerGetMainCharacterPosition
PUBLIC	?playerIsMainCharacterIndex@@YAPAU_object@@PAU1@0@Z ; playerIsMainCharacterIndex
PUBLIC	?playerCanAttackInstance@@YAPAU_object@@PAU1@0@Z ; playerCanAttackInstance
PUBLIC	?playerIsActingEmotion@@YAPAU_object@@PAU1@0@Z	; playerIsActingEmotion
PUBLIC	?playerIsPVPInstance@@YAPAU_object@@PAU1@0@Z	; playerIsPVPInstance
PUBLIC	?playerIsSameEmpire@@YAPAU_object@@PAU1@0@Z	; playerIsSameEmpire
PUBLIC	?playerIsChallengeInstance@@YAPAU_object@@PAU1@0@Z ; playerIsChallengeInstance
PUBLIC	?playerIsRevengeInstance@@YAPAU_object@@PAU1@0@Z ; playerIsRevengeInstance
PUBLIC	?playerIsCantFightInstance@@YAPAU_object@@PAU1@0@Z ; playerIsCantFightInstance
PUBLIC	?playerGetCharacterDistance@@YAPAU_object@@PAU1@0@Z ; playerGetCharacterDistance
PUBLIC	?playerIsInSafeArea@@YAPAU_object@@PAU1@0@Z	; playerIsInSafeArea
PUBLIC	?playerIsMountingHorse@@YAPAU_object@@PAU1@0@Z	; playerIsMountingHorse
PUBLIC	?playerIsObserverMode@@YAPAU_object@@PAU1@0@Z	; playerIsObserverMode
PUBLIC	?playerActEmotion@@YAPAU_object@@PAU1@0@Z	; playerActEmotion
PUBLIC	?playerShowPlayer@@YAPAU_object@@PAU1@0@Z	; playerShowPlayer
PUBLIC	?playerHidePlayer@@YAPAU_object@@PAU1@0@Z	; playerHidePlayer
PUBLIC	?playerComboAttack@@YAPAU_object@@PAU1@0@Z	; playerComboAttack
PUBLIC	?playerRegisterEffect@@YAPAU_object@@PAU1@0@Z	; playerRegisterEffect
PUBLIC	?playerRegisterCacheEffect@@YAPAU_object@@PAU1@0@Z ; playerRegisterCacheEffect
PUBLIC	?playerSetAttackKeyState@@YAPAU_object@@PAU1@0@Z ; playerSetAttackKeyState
PUBLIC	?playerSetSingleDIKKeyState@@YAPAU_object@@PAU1@0@Z ; playerSetSingleDIKKeyState
PUBLIC	?playerEndKeyWalkingImmediately@@YAPAU_object@@PAU1@0@Z ; playerEndKeyWalkingImmediately
PUBLIC	?playerStartMouseWalking@@YAPAU_object@@PAU1@0@Z ; playerStartMouseWalking
PUBLIC	?playerEndMouseWalking@@YAPAU_object@@PAU1@0@Z	; playerEndMouseWalking
PUBLIC	?playerResetCameraRotation@@YAPAU_object@@PAU1@0@Z ; playerResetCameraRotation
PUBLIC	?playerSetAutoCameraRotationSpeed@@YAPAU_object@@PAU1@0@Z ; playerSetAutoCameraRotationSpeed
PUBLIC	?playerSetMouseState@@YAPAU_object@@PAU1@0@Z	; playerSetMouseState
PUBLIC	?playerSetMouseFunc@@YAPAU_object@@PAU1@0@Z	; playerSetMouseFunc
PUBLIC	?playerGetMouseFunc@@YAPAU_object@@PAU1@0@Z	; playerGetMouseFunc
PUBLIC	?playerSetMouseMiddleButtonState@@YAPAU_object@@PAU1@0@Z ; playerSetMouseMiddleButtonState
PUBLIC	?playerGetName@@YAPAU_object@@PAU1@0@Z		; playerGetName
PUBLIC	?playerGetRace@@YAPAU_object@@PAU1@0@Z		; playerGetRace
PUBLIC	?playerGetJob@@YAPAU_object@@PAU1@0@Z		; playerGetJob
PUBLIC	?playerGetPlayTime@@YAPAU_object@@PAU1@0@Z	; playerGetPlayTime
PUBLIC	?playerSetPlayTime@@YAPAU_object@@PAU1@0@Z	; playerSetPlayTime
PUBLIC	?playerIsSkillCoolTime@@YAPAU_object@@PAU1@0@Z	; playerIsSkillCoolTime
PUBLIC	?playerGetSkillCoolTime@@YAPAU_object@@PAU1@0@Z	; playerGetSkillCoolTime
PUBLIC	?playerIsSkillActive@@YAPAU_object@@PAU1@0@Z	; playerIsSkillActive
PUBLIC	?playerUseGuildSkill@@YAPAU_object@@PAU1@0@Z	; playerUseGuildSkill
PUBLIC	?playerAffectIndexToSkillIndex@@YAPAU_object@@PAU1@0@Z ; playerAffectIndexToSkillIndex
PUBLIC	?playerGetEXP@@YAPAU_object@@PAU1@0@Z		; playerGetEXP
PUBLIC	?playerGetStatus@@YAPAU_object@@PAU1@0@Z	; playerGetStatus
PUBLIC	?playerSetStatus@@YAPAU_object@@PAU1@0@Z	; playerSetStatus
PUBLIC	?playerGetElk@@YAPAU_object@@PAU1@0@Z		; playerGetElk
PUBLIC	?playerGetGuildID@@YAPAU_object@@PAU1@0@Z	; playerGetGuildID
PUBLIC	?playerGetGuildName@@YAPAU_object@@PAU1@0@Z	; playerGetGuildName
PUBLIC	?playerGetAlignmentData@@YAPAU_object@@PAU1@0@Z	; playerGetAlignmentData
PUBLIC	?playerSetSkill@@YAPAU_object@@PAU1@0@Z		; playerSetSkill
PUBLIC	?playerGetSkillIndex@@YAPAU_object@@PAU1@0@Z	; playerGetSkillIndex
PUBLIC	?playerGetSkillSlotIndex@@YAPAU_object@@PAU1@0@Z ; playerGetSkillSlotIndex
PUBLIC	?playerGetSkillGrade@@YAPAU_object@@PAU1@0@Z	; playerGetSkillGrade
PUBLIC	?playerGetSkillLevel@@YAPAU_object@@PAU1@0@Z	; playerGetSkillLevel
PUBLIC	?playerGetSkillCurrentEfficientPercentage@@YAPAU_object@@PAU1@0@Z ; playerGetSkillCurrentEfficientPercentage
PUBLIC	?playerGetSkillNextEfficientPercentage@@YAPAU_object@@PAU1@0@Z ; playerGetSkillNextEfficientPercentage
PUBLIC	?playerClickSkillSlot@@YAPAU_object@@PAU1@0@Z	; playerClickSkillSlot
PUBLIC	?playerChangeCurrentSkillNumberOnly@@YAPAU_object@@PAU1@0@Z ; playerChangeCurrentSkillNumberOnly
PUBLIC	?playerClearSkillDict@@YAPAU_object@@PAU1@0@Z	; playerClearSkillDict
PUBLIC	?playerMoveItem@@YAPAU_object@@PAU1@0@Z		; playerMoveItem
PUBLIC	?playerSendClickItemPacket@@YAPAU_object@@PAU1@0@Z ; playerSendClickItemPacket
PUBLIC	?playerGetItemIndex@@YAPAU_object@@PAU1@0@Z	; playerGetItemIndex
PUBLIC	?playerGetItemFlags@@YAPAU_object@@PAU1@0@Z	; playerGetItemFlags
PUBLIC	?playerGetItemCount@@YAPAU_object@@PAU1@0@Z	; playerGetItemCount
PUBLIC	?playerSetItemCount@@YAPAU_object@@PAU1@0@Z	; playerSetItemCount
PUBLIC	?playerGetItemCountByVnum@@YAPAU_object@@PAU1@0@Z ; playerGetItemCountByVnum
PUBLIC	?playerGetItemMetinSocket@@YAPAU_object@@PAU1@0@Z ; playerGetItemMetinSocket
PUBLIC	?playerGetItemAttribute@@YAPAU_object@@PAU1@0@Z	; playerGetItemAttribute
PUBLIC	?playerGetItemLink@@YAPAU_object@@PAU1@0@Z	; playerGetItemLink
PUBLIC	?playerGetISellItemPrice@@YAPAU_object@@PAU1@0@Z ; playerGetISellItemPrice
PUBLIC	?playerGetQuickPage@@YAPAU_object@@PAU1@0@Z	; playerGetQuickPage
PUBLIC	?playerSetQuickPage@@YAPAU_object@@PAU1@0@Z	; playerSetQuickPage
PUBLIC	?playerLocalQuickSlotIndexToGlobalQuickSlotIndex@@YAPAU_object@@PAU1@0@Z ; playerLocalQuickSlotIndexToGlobalQuickSlotIndex
PUBLIC	?playerGetLocalQuickSlot@@YAPAU_object@@PAU1@0@Z ; playerGetLocalQuickSlot
PUBLIC	?playerGetGlobalQuickSlot@@YAPAU_object@@PAU1@0@Z ; playerGetGlobalQuickSlot
PUBLIC	?playerRequestAddLocalQuickSlot@@YAPAU_object@@PAU1@0@Z ; playerRequestAddLocalQuickSlot
PUBLIC	?playerRequestAddToEmptyLocalQuickSlot@@YAPAU_object@@PAU1@0@Z ; playerRequestAddToEmptyLocalQuickSlot
PUBLIC	?playerRequestDeleteGlobalQuickSlot@@YAPAU_object@@PAU1@0@Z ; playerRequestDeleteGlobalQuickSlot
PUBLIC	?playerRequestMoveGlobalQuickSlotToLocalQuickSlot@@YAPAU_object@@PAU1@0@Z ; playerRequestMoveGlobalQuickSlotToLocalQuickSlot
PUBLIC	?playerRequestUseLocalQuickSlot@@YAPAU_object@@PAU1@0@Z ; playerRequestUseLocalQuickSlot
PUBLIC	?playerRemoveQuickSlotByValue@@YAPAU_object@@PAU1@0@Z ; playerRemoveQuickSlotByValue
PUBLIC	?playerisItem@@YAPAU_object@@PAU1@0@Z		; playerisItem
PUBLIC	?playerIsBeltInventorySlot@@YAPAU_object@@PAU1@0@Z ; playerIsBeltInventorySlot
PUBLIC	?playerIsEquipmentSlot@@YAPAU_object@@PAU1@0@Z	; playerIsEquipmentSlot
PUBLIC	?playerIsDSEquipmentSlot@@YAPAU_object@@PAU1@0@Z ; playerIsDSEquipmentSlot
PUBLIC	?playerIsCostumeSlot@@YAPAU_object@@PAU1@0@Z	; playerIsCostumeSlot
PUBLIC	?playerIsOpenPrivateShop@@YAPAU_object@@PAU1@0@Z ; playerIsOpenPrivateShop
PUBLIC	?playerIsValuableItem@@YAPAU_object@@PAU1@0@Z	; playerIsValuableItem
PUBLIC	?GetItemGrade@@YAHPBD@Z				; GetItemGrade
PUBLIC	?playerGetItemGrade@@YAPAU_object@@PAU1@0@Z	; playerGetItemGrade
PUBLIC	?playerCanRefine@@YAPAU_object@@PAU1@0@Z	; playerCanRefine
PUBLIC	?playerCanAttachMetin@@YAPAU_object@@PAU1@0@Z	; playerCanAttachMetin
PUBLIC	?playerCanDetach@@YAPAU_object@@PAU1@0@Z	; playerCanDetach
PUBLIC	?playerCanUnlock@@YAPAU_object@@PAU1@0@Z	; playerCanUnlock
PUBLIC	?playerIsRefineGradeScroll@@YAPAU_object@@PAU1@0@Z ; playerIsRefineGradeScroll
PUBLIC	?playerUpdate@@YAPAU_object@@PAU1@0@Z		; playerUpdate
PUBLIC	?playerRender@@YAPAU_object@@PAU1@0@Z		; playerRender
PUBLIC	?playerClear@@YAPAU_object@@PAU1@0@Z		; playerClear
PUBLIC	?playerClearTarget@@YAPAU_object@@PAU1@0@Z	; playerClearTarget
PUBLIC	?playerSetTarget@@YAPAU_object@@PAU1@0@Z	; playerSetTarget
PUBLIC	?playerOpenCharacterMenu@@YAPAU_object@@PAU1@0@Z ; playerOpenCharacterMenu
PUBLIC	?playerIsPartyMember@@YAPAU_object@@PAU1@0@Z	; playerIsPartyMember
PUBLIC	?playerIsPartyLeader@@YAPAU_object@@PAU1@0@Z	; playerIsPartyLeader
PUBLIC	?playerIsPartyLeaderByPID@@YAPAU_object@@PAU1@0@Z ; playerIsPartyLeaderByPID
PUBLIC	?playerGetPartyMemberHPPercentage@@YAPAU_object@@PAU1@0@Z ; playerGetPartyMemberHPPercentage
PUBLIC	?playerGetPartyMemberState@@YAPAU_object@@PAU1@0@Z ; playerGetPartyMemberState
PUBLIC	?playerGetPartyMemberAffects@@YAPAU_object@@PAU1@0@Z ; playerGetPartyMemberAffects
PUBLIC	?playerRemovePartyMember@@YAPAU_object@@PAU1@0@Z ; playerRemovePartyMember
PUBLIC	?playerExitParty@@YAPAU_object@@PAU1@0@Z	; playerExitParty
PUBLIC	?playerGetPKMode@@YAPAU_object@@PAU1@0@Z	; playerGetPKMode
PUBLIC	?playerHasMobilePhoneNumber@@YAPAU_object@@PAU1@0@Z ; playerHasMobilePhoneNumber
PUBLIC	?playerSetWeaponAttackBonusFlag@@YAPAU_object@@PAU1@0@Z ; playerSetWeaponAttackBonusFlag
PUBLIC	?playerToggleCoolTime@@YAPAU_object@@PAU1@0@Z	; playerToggleCoolTime
PUBLIC	?playerToggleLevelLimit@@YAPAU_object@@PAU1@0@Z	; playerToggleLevelLimit
PUBLIC	?playerGetTargetVID@@YAPAU_object@@PAU1@0@Z	; playerGetTargetVID
PUBLIC	?playerRegisterEmotionIcon@@YAPAU_object@@PAU1@0@Z ; playerRegisterEmotionIcon
PUBLIC	?playerGetEmotionIconImage@@YAPAU_object@@PAU1@0@Z ; playerGetEmotionIconImage
PUBLIC	?playerSetItemData@@YAPAU_object@@PAU1@0@Z	; playerSetItemData
PUBLIC	?playerSetItemMetinSocket@@YAPAU_object@@PAU1@0@Z ; playerSetItemMetinSocket
PUBLIC	?playerSetItemAttribute@@YAPAU_object@@PAU1@0@Z	; playerSetItemAttribute
PUBLIC	?playerSetAutoPotionInfo@@YAPAU_object@@PAU1@0@Z ; playerSetAutoPotionInfo
PUBLIC	?playerGetAutoPotionInfo@@YAPAU_object@@PAU1@0@Z ; playerGetAutoPotionInfo
PUBLIC	?playerSlotTypeToInvenType@@YAPAU_object@@PAU1@0@Z ; playerSlotTypeToInvenType
PUBLIC	?playerIsEquippingBelt@@YAPAU_object@@PAU1@0@Z	; playerIsEquippingBelt
PUBLIC	?playerIsAvailableBeltInventoryCell@@YAPAU_object@@PAU1@0@Z ; playerIsAvailableBeltInventoryCell
PUBLIC	?playerSendDragonSoulRefine@@YAPAU_object@@PAU1@0@Z ; playerSendDragonSoulRefine
PUBLIC	??1?$CDynamicPoolEx@VCRotationDecorator@NEffectUpdateDecorator@@@@UAE@XZ ; CDynamicPoolEx<NEffectUpdateDecorator::CRotationDecorator>::~CDynamicPoolEx<NEffectUpdateDecorator::CRotationDecorator>
PUBLIC	?Delete@?$CDynamicPoolEx@VCRotationDecorator@NEffectUpdateDecorator@@@@KAXPAVCRotationDecorator@NEffectUpdateDecorator@@@Z ; CDynamicPoolEx<NEffectUpdateDecorator::CRotationDecorator>::Delete
PUBLIC	??1?$CDynamicPoolEx@VCGravityDecorator@NEffectUpdateDecorator@@@@UAE@XZ ; CDynamicPoolEx<NEffectUpdateDecorator::CGravityDecorator>::~CDynamicPoolEx<NEffectUpdateDecorator::CGravityDecorator>
PUBLIC	?Delete@?$CDynamicPoolEx@VCGravityDecorator@NEffectUpdateDecorator@@@@KAXPAVCGravityDecorator@NEffectUpdateDecorator@@@Z ; CDynamicPoolEx<NEffectUpdateDecorator::CGravityDecorator>::Delete
PUBLIC	??1?$CDynamicPoolEx@VCAirResistanceDecorator@NEffectUpdateDecorator@@@@UAE@XZ ; CDynamicPoolEx<NEffectUpdateDecorator::CAirResistanceDecorator>::~CDynamicPoolEx<NEffectUpdateDecorator::CAirResistanceDecorator>
PUBLIC	?Delete@?$CDynamicPoolEx@VCAirResistanceDecorator@NEffectUpdateDecorator@@@@KAXPAVCAirResistanceDecorator@NEffectUpdateDecorator@@@Z ; CDynamicPoolEx<NEffectUpdateDecorator::CAirResistanceDecorator>::Delete
PUBLIC	??1?$CDynamicPoolEx@VCTextureAnimationRandomDecorator@NEffectUpdateDecorator@@@@UAE@XZ ; CDynamicPoolEx<NEffectUpdateDecorator::CTextureAnimationRandomDecorator>::~CDynamicPoolEx<NEffectUpdateDecorator::CTextureAnimationRandomDecorator>
PUBLIC	?Delete@?$CDynamicPoolEx@VCTextureAnimationRandomDecorator@NEffectUpdateDecorator@@@@KAXPAVCTextureAnimationRandomDecorator@NEffectUpdateDecorator@@@Z ; CDynamicPoolEx<NEffectUpdateDecorator::CTextureAnimationRandomDecorator>::Delete
PUBLIC	??1?$CDynamicPoolEx@VCTextureAnimationCCWDecorator@NEffectUpdateDecorator@@@@UAE@XZ ; CDynamicPoolEx<NEffectUpdateDecorator::CTextureAnimationCCWDecorator>::~CDynamicPoolEx<NEffectUpdateDecorator::CTextureAnimationCCWDecorator>
PUBLIC	?Delete@?$CDynamicPoolEx@VCTextureAnimationCCWDecorator@NEffectUpdateDecorator@@@@KAXPAVCTextureAnimationCCWDecorator@NEffectUpdateDecorator@@@Z ; CDynamicPoolEx<NEffectUpdateDecorator::CTextureAnimationCCWDecorator>::Delete
PUBLIC	??1?$CDynamicPoolEx@VCTextureAnimationCWDecorator@NEffectUpdateDecorator@@@@UAE@XZ ; CDynamicPoolEx<NEffectUpdateDecorator::CTextureAnimationCWDecorator>::~CDynamicPoolEx<NEffectUpdateDecorator::CTextureAnimationCWDecorator>
PUBLIC	?Delete@?$CDynamicPoolEx@VCTextureAnimationCWDecorator@NEffectUpdateDecorator@@@@KAXPAVCTextureAnimationCWDecorator@NEffectUpdateDecorator@@@Z ; CDynamicPoolEx<NEffectUpdateDecorator::CTextureAnimationCWDecorator>::Delete
PUBLIC	??1?$CDynamicPoolEx@VCNullDecorator@NEffectUpdateDecorator@@@@UAE@XZ ; CDynamicPoolEx<NEffectUpdateDecorator::CNullDecorator>::~CDynamicPoolEx<NEffectUpdateDecorator::CNullDecorator>
PUBLIC	?Delete@?$CDynamicPoolEx@VCNullDecorator@NEffectUpdateDecorator@@@@KAXPAVCNullDecorator@NEffectUpdateDecorator@@@Z ; CDynamicPoolEx<NEffectUpdateDecorator::CNullDecorator>::Delete
PUBLIC	??1?$CDynamicPoolEx@VCHeaderDecorator@NEffectUpdateDecorator@@@@UAE@XZ ; CDynamicPoolEx<NEffectUpdateDecorator::CHeaderDecorator>::~CDynamicPoolEx<NEffectUpdateDecorator::CHeaderDecorator>
PUBLIC	?Delete@?$CDynamicPoolEx@VCHeaderDecorator@NEffectUpdateDecorator@@@@KAXPAVCHeaderDecorator@NEffectUpdateDecorator@@@Z ; CDynamicPoolEx<NEffectUpdateDecorator::CHeaderDecorator>::Delete
PUBLIC	??$_Destroy_range@V?$allocator@PAVCHeaderDecorator@NEffectUpdateDecorator@@@std@@@std@@YAXPAPAVCHeaderDecorator@NEffectUpdateDecorator@@QAPAV12@AAV?$allocator@PAVCHeaderDecorator@NEffectUpdateDecorator@@@0@@Z ; std::_Destroy_range<std::allocator<NEffectUpdateDecorator::CHeaderDecorator *> >
PUBLIC	??$_Destroy_range@V?$allocator@PAVCNullDecorator@NEffectUpdateDecorator@@@std@@@std@@YAXPAPAVCNullDecorator@NEffectUpdateDecorator@@QAPAV12@AAV?$allocator@PAVCNullDecorator@NEffectUpdateDecorator@@@0@@Z ; std::_Destroy_range<std::allocator<NEffectUpdateDecorator::CNullDecorator *> >
PUBLIC	??$_Destroy_range@V?$allocator@PAVCTextureAnimationCWDecorator@NEffectUpdateDecorator@@@std@@@std@@YAXPAPAVCTextureAnimationCWDecorator@NEffectUpdateDecorator@@QAPAV12@AAV?$allocator@PAVCTextureAnimationCWDecorator@NEffectUpdateDecorator@@@0@@Z ; std::_Destroy_range<std::allocator<NEffectUpdateDecorator::CTextureAnimationCWDecorator *> >
PUBLIC	??$_Destroy_range@V?$allocator@PAVCTextureAnimationCCWDecorator@NEffectUpdateDecorator@@@std@@@std@@YAXPAPAVCTextureAnimationCCWDecorator@NEffectUpdateDecorator@@QAPAV12@AAV?$allocator@PAVCTextureAnimationCCWDecorator@NEffectUpdateDecorator@@@0@@Z ; std::_Destroy_range<std::allocator<NEffectUpdateDecorator::CTextureAnimationCCWDecorator *> >
PUBLIC	??$_Destroy_range@V?$allocator@PAVCTextureAnimationRandomDecorator@NEffectUpdateDecorator@@@std@@@std@@YAXPAPAVCTextureAnimationRandomDecorator@NEffectUpdateDecorator@@QAPAV12@AAV?$allocator@PAVCTextureAnimationRandomDecorator@NEffectUpdateDecorator@@@0@@Z ; std::_Destroy_range<std::allocator<NEffectUpdateDecorator::CTextureAnimationRandomDecorator *> >
PUBLIC	??$_Destroy_range@V?$allocator@PAVCAirResistanceDecorator@NEffectUpdateDecorator@@@std@@@std@@YAXPAPAVCAirResistanceDecorator@NEffectUpdateDecorator@@QAPAV12@AAV?$allocator@PAVCAirResistanceDecorator@NEffectUpdateDecorator@@@0@@Z ; std::_Destroy_range<std::allocator<NEffectUpdateDecorator::CAirResistanceDecorator *> >
PUBLIC	??$_Destroy_range@V?$allocator@PAVCGravityDecorator@NEffectUpdateDecorator@@@std@@@std@@YAXPAPAVCGravityDecorator@NEffectUpdateDecorator@@QAPAV12@AAV?$allocator@PAVCGravityDecorator@NEffectUpdateDecorator@@@0@@Z ; std::_Destroy_range<std::allocator<NEffectUpdateDecorator::CGravityDecorator *> >
PUBLIC	??$_Destroy_range@V?$allocator@PAVCRotationDecorator@NEffectUpdateDecorator@@@std@@@std@@YAXPAPAVCRotationDecorator@NEffectUpdateDecorator@@QAPAV12@AAV?$allocator@PAVCRotationDecorator@NEffectUpdateDecorator@@@0@@Z ; std::_Destroy_range<std::allocator<NEffectUpdateDecorator::CRotationDecorator *> >
PUBLIC	??$_Find_lower_bound@H@?$_Tree@V?$_Tmap_traits@HPAVCGraphicImage@@U?$less@H@std@@V?$allocator@U?$pair@$$CBHPAVCGraphicImage@@@std@@@3@$0A@@std@@@std@@IBE?AU?$_Tree_find_result@PAU?$_Tree_node@U?$pair@$$CBHPAVCGraphicImage@@@std@@PAX@std@@@1@ABH@Z ; std::_Tree<std::_Tmap_traits<int,CGraphicImage *,std::less<int>,std::allocator<std::pair<int const ,CGraphicImage *> >,0> >::_Find_lower_bound<int>
PUBLIC	??1?$_Alloc_construct_ptr@V?$allocator@U?$_Tree_node@U?$pair@$$CBHPAVCGraphicImage@@@std@@PAX@std@@@std@@@std@@QAE@XZ ; std::_Alloc_construct_ptr<std::allocator<std::_Tree_node<std::pair<int const ,CGraphicImage *>,void *> > >::~_Alloc_construct_ptr<std::allocator<std::_Tree_node<std::pair<int const ,CGraphicImage *>,void *> > >
PUBLIC	??$_Erase_tree@V?$allocator@U?$_Tree_node@U?$pair@$$CBHPAVCGraphicImage@@@std@@PAX@std@@@std@@@?$_Tree_val@U?$_Tree_simple_types@U?$pair@$$CBHPAVCGraphicImage@@@std@@@std@@@std@@QAEXAAV?$allocator@U?$_Tree_node@U?$pair@$$CBHPAVCGraphicImage@@@std@@PAX@std@@@1@PAU?$_Tree_node@U?$pair@$$CBHPAVCGraphicImage@@@std@@PAX@1@@Z ; std::_Tree_val<std::_Tree_simple_types<std::pair<int const ,CGraphicImage *> > >::_Erase_tree<std::allocator<std::_Tree_node<std::pair<int const ,CGraphicImage *>,void *> > >
PUBLIC	??$_Construct_in_place@PAU?$_Tree_node@U?$pair@$$CBHPAVCGraphicImage@@@std@@PAX@std@@ABQAU12@@std@@YAXAAPAU?$_Tree_node@U?$pair@$$CBHPAVCGraphicImage@@@std@@PAX@0@ABQAU10@@Z ; std::_Construct_in_place<std::_Tree_node<std::pair<int const ,CGraphicImage *>,void *> *,std::_Tree_node<std::pair<int const ,CGraphicImage *>,void *> * const &>
PUBLIC	??$_Destroy_in_place@PAU?$_Tree_node@U?$pair@$$CBHPAVCGraphicImage@@@std@@PAX@std@@@std@@YAXAAPAU?$_Tree_node@U?$pair@$$CBHPAVCGraphicImage@@@std@@PAX@0@@Z ; std::_Destroy_in_place<std::_Tree_node<std::pair<int const ,CGraphicImage *>,void *> *>
PUBLIC	??$_Construct_in_place@PAU?$_Tree_node@U?$pair@$$CBHPAVCGraphicImage@@@std@@PAX@std@@AAPAU12@@std@@YAXAAPAU?$_Tree_node@U?$pair@$$CBHPAVCGraphicImage@@@std@@PAX@0@0@Z ; std::_Construct_in_place<std::_Tree_node<std::pair<int const ,CGraphicImage *>,void *> *,std::_Tree_node<std::pair<int const ,CGraphicImage *>,void *> * &>
PUBLIC	?_OptionsStorage@?1??__local_stdio_printf_options@@9@4_KA ; `__local_stdio_printf_options'::`2'::_OptionsStorage
PUBLIC	??_7exception@std@@6B@				; std::exception::`vftable'
PUBLIC	??_C@_0BC@EOODALEL@Unknown?5exception@		; `string'
PUBLIC	??_7bad_alloc@std@@6B@				; std::bad_alloc::`vftable'
PUBLIC	??_7bad_array_new_length@std@@6B@		; std::bad_array_new_length::`vftable'
PUBLIC	??_C@_0BF@KINCDENJ@bad?5array?5new?5length@	; `string'
PUBLIC	__TI3?AVbad_array_new_length@std@@
PUBLIC	__CTA3?AVbad_array_new_length@std@@
PUBLIC	??_R0?AVbad_array_new_length@std@@@8		; std::bad_array_new_length `RTTI Type Descriptor'
PUBLIC	__CT??_R0?AVbad_array_new_length@std@@@8??0bad_array_new_length@std@@QAE@ABV01@@Z12
PUBLIC	??_R0?AVbad_alloc@std@@@8			; std::bad_alloc `RTTI Type Descriptor'
PUBLIC	__CT??_R0?AVbad_alloc@std@@@8??0bad_alloc@std@@QAE@ABV01@@Z12
PUBLIC	??_R0?AVexception@std@@@8			; std::exception `RTTI Type Descriptor'
PUBLIC	__CT??_R0?AVexception@std@@@8??0exception@std@@QAE@ABV01@@Z12
PUBLIC	??_C@_0BA@JFNIOLAK@string?5too?5long@		; `string'
PUBLIC	??_C@_0BB@GCADKGJO@map?1set?5too?5long@		; `string'
PUBLIC	??_C@_00CNPNBAHC@@				; `string'
PUBLIC	?ms_singleton@?$CSingleton@VCResourceManager@@@@0PAVCResourceManager@@A ; CSingleton<CResourceManager>::ms_singleton
PUBLIC	??_R4exception@std@@6B@				; std::exception::`RTTI Complete Object Locator'
PUBLIC	??_R3exception@std@@8				; std::exception::`RTTI Class Hierarchy Descriptor'
PUBLIC	??_R2exception@std@@8				; std::exception::`RTTI Base Class Array'
PUBLIC	??_R1A@?0A@EA@exception@std@@8			; std::exception::`RTTI Base Class Descriptor at (0,-1,0,64)'
PUBLIC	??_R4bad_alloc@std@@6B@				; std::bad_alloc::`RTTI Complete Object Locator'
PUBLIC	??_R3bad_alloc@std@@8				; std::bad_alloc::`RTTI Class Hierarchy Descriptor'
PUBLIC	??_R2bad_alloc@std@@8				; std::bad_alloc::`RTTI Base Class Array'
PUBLIC	??_R1A@?0A@EA@bad_alloc@std@@8			; std::bad_alloc::`RTTI Base Class Descriptor at (0,-1,0,64)'
PUBLIC	??_R4bad_array_new_length@std@@6B@		; std::bad_array_new_length::`RTTI Complete Object Locator'
PUBLIC	??_R3bad_array_new_length@std@@8		; std::bad_array_new_length::`RTTI Class Hierarchy Descriptor'
PUBLIC	??_R2bad_array_new_length@std@@8		; std::bad_array_new_length::`RTTI Base Class Array'
PUBLIC	??_R1A@?0A@EA@bad_array_new_length@std@@8	; std::bad_array_new_length::`RTTI Base Class Descriptor at (0,-1,0,64)'
PUBLIC	?ms_singleton@?$CSingleton@VCPythonPlayer@@@@0PAVCPythonPlayer@@A ; CSingleton<CPythonPlayer>::ms_singleton
PUBLIC	?ms_kPool@?$CPooledObject@VCHeaderDecorator@NEffectUpdateDecorator@@@@1V?$CDynamicPoolEx@VCHeaderDecorator@NEffectUpdateDecorator@@@@A ; CPooledObject<NEffectUpdateDecorator::CHeaderDecorator>::ms_kPool
PUBLIC	?ms_kPool@?$CPooledObject@VCNullDecorator@NEffectUpdateDecorator@@@@1V?$CDynamicPoolEx@VCNullDecorator@NEffectUpdateDecorator@@@@A ; CPooledObject<NEffectUpdateDecorator::CNullDecorator>::ms_kPool
PUBLIC	?ms_kPool@?$CPooledObject@VCTextureAnimationCWDecorator@NEffectUpdateDecorator@@@@1V?$CDynamicPoolEx@VCTextureAnimationCWDecorator@NEffectUpdateDecorator@@@@A ; CPooledObject<NEffectUpdateDecorator::CTextureAnimationCWDecorator>::ms_kPool
PUBLIC	?ms_kPool@?$CPooledObject@VCTextureAnimationCCWDecorator@NEffectUpdateDecorator@@@@1V?$CDynamicPoolEx@VCTextureAnimationCCWDecorator@NEffectUpdateDecorator@@@@A ; CPooledObject<NEffectUpdateDecorator::CTextureAnimationCCWDecorator>::ms_kPool
PUBLIC	?ms_kPool@?$CPooledObject@VCTextureAnimationRandomDecorator@NEffectUpdateDecorator@@@@1V?$CDynamicPoolEx@VCTextureAnimationRandomDecorator@NEffectUpdateDecorator@@@@A ; CPooledObject<NEffectUpdateDecorator::CTextureAnimationRandomDecorator>::ms_kPool
PUBLIC	?ms_kPool@?$CPooledObject@VCAirResistanceDecorator@NEffectUpdateDecorator@@@@1V?$CDynamicPoolEx@VCAirResistanceDecorator@NEffectUpdateDecorator@@@@A ; CPooledObject<NEffectUpdateDecorator::CAirResistanceDecorator>::ms_kPool
PUBLIC	?ms_kPool@?$CPooledObject@VCGravityDecorator@NEffectUpdateDecorator@@@@1V?$CDynamicPoolEx@VCGravityDecorator@NEffectUpdateDecorator@@@@A ; CPooledObject<NEffectUpdateDecorator::CGravityDecorator>::ms_kPool
PUBLIC	?ms_kPool@?$CPooledObject@VCRotationDecorator@NEffectUpdateDecorator@@@@1V?$CDynamicPoolEx@VCRotationDecorator@NEffectUpdateDecorator@@@@A ; CPooledObject<NEffectUpdateDecorator::CRotationDecorator>::ms_kPool
PUBLIC	?ms_singleton@?$CSingleton@VCItemManager@@@@0PAVCItemManager@@A ; CSingleton<CItemManager>::ms_singleton
PUBLIC	?ms_singleton@?$CSingleton@VCPythonNetworkStream@@@@0PAVCPythonNetworkStream@@A ; CSingleton<CPythonNetworkStream>::ms_singleton
PUBLIC	?ms_singleton@?$CSingleton@VCPythonCharacterManager@@@@0PAVCPythonCharacterManager@@A ; CSingleton<CPythonCharacterManager>::ms_singleton
PUBLIC	?ms_singleton@?$CSingleton@VCPythonGuild@@@@0PAVCPythonGuild@@A ; CSingleton<CPythonGuild>::ms_singleton
PUBLIC	?m_kMap_iEmotionIndex_pkIconImage@@3V?$map@HPAVCGraphicImage@@U?$less@H@std@@V?$allocator@U?$pair@$$CBHPAVCGraphicImage@@@std@@@3@@std@@A ; m_kMap_iEmotionIndex_pkIconImage
PUBLIC	?availableRuleByGrade@?1??GetAvailableRuleTableByGrade@CBeltInventoryHelper@@SAPBEXZ@4PAEA ; `CBeltInventoryHelper::GetAvailableRuleTableByGrade'::`2'::availableRuleByGrade
PUBLIC	??_C@_01KBJDNOO@i@				; `string'
PUBLIC	??_C@_01LKDEMHDF@s@				; `string'
PUBLIC	??_C@_03LPALPDIP@fff@				; `string'
PUBLIC	??_C@_01INIBCBCB@f@				; `string'
PUBLIC	??_C@_0DF@ILFGGFEI@CPythonPlayer?3?3RegisterEffect?$CIe@ ; `string'
PUBLIC	??_C@_0EA@OHLDKNFC@playerSetAttackKeyState?$CIisPress@ ; `string'
PUBLIC	??_C@_0EJ@BNKMOLIP@playerSetSingleDIKKeyState?$CIeDIK@ ; `string'
PUBLIC	??_C@_0EK@IDBGKDBN@playerSetSingleDIKKeyState?$CIeDIK@ ; `string'
PUBLIC	??_C@_02HPEDFNFO@ff@				; `string'
PUBLIC	??_C@_01HHGOMJKL@l@				; `string'
PUBLIC	??_C@_02PDIHAGKM@ii@				; `string'
PUBLIC	??_C@_0BE@FGPADLIF@item?3?$CFx?3?$CFx?3?$CFx?3?$CFx?3?$CFx@ ; `string'
PUBLIC	??_C@_06FAMCNHHL@?3?$CFx?3?$CFd@		; `string'
PUBLIC	??_C@_0BK@MCOKCAKI@?5?$HMh?$HMr?$FL?$CFs?$FN?$HMcffffc700?$HMH?$CFs?$HMh@ ; `string'
PUBLIC	??_C@_0BK@MGKBEPOF@?5?$HMh?$HMr?$FL?$CFs?$FN?$HMcfff1e6c0?$HMH?$CFs?$HMh@ ; `string'
PUBLIC	??_C@_0BJ@DABMGIOF@?$HMcffffc700?$HMH?$CFs?$HMh?$FL?$CFs?$FN?$HMh?$HMr@ ; `string'
PUBLIC	??_C@_0BJ@GPGFNPLK@?$HMcfff1e6c0?$HMH?$CFs?$HMh?$FL?$CFs?$FN?$HMh?$HMr@ ; `string'
PUBLIC	??_C@_0BF@BGKCJNBK@Can?8t?5find?5item?5data@	; `string'
PUBLIC	??_C@_0BF@IBGKLIMC@can?8t?5find?5item?5data@	; `string'
PUBLIC	??_C@_07EFJJEBFG@iiiiiii@			; `string'
PUBLIC	??_C@_04GPDILEAH@biii@				; `string'
PUBLIC	??_C@_01OJONOECF@b@				; `string'
PUBLIC	??_C@_0BC@CHIABFDI@GetAutoPotionInfo@		; `string'
PUBLIC	??_C@_0BC@CILJOCG@SetAutoPotionInfo@		; `string'
PUBLIC	??_C@_0O@MAEJALBO@PickCloseItem@		; `string'
PUBLIC	??_C@_0O@MNPFFDEJ@SetGameWindow@		; `string'
PUBLIC	??_C@_0P@HDADHLLI@RegisterEffect@		; `string'
PUBLIC	??_C@_0BE@EGCDGLCF@RegisterCacheEffect@		; `string'
PUBLIC	??_C@_0O@HDELDAFI@SetMouseState@		; `string'
PUBLIC	??_C@_0N@LEJNPCGM@SetMouseFunc@			; `string'
PUBLIC	??_C@_0N@MACDDOCA@GetMouseFunc@			; `string'
PUBLIC	??_C@_0BK@JBJLNCBH@SetMouseMiddleButtonState@	; `string'
PUBLIC	??_C@_0BG@JCNMOACA@SetMainCharacterIndex@	; `string'
PUBLIC	??_C@_0BG@GHIKDJGB@GetMainCharacterIndex@	; `string'
PUBLIC	??_C@_0BF@OMDPKDFM@GetMainCharacterName@	; `string'
PUBLIC	??_C@_0BJ@GIKFEPMH@GetMainCharacterPosition@	; `string'
PUBLIC	??_C@_0BF@GALHNOAL@IsMainCharacterIndex@	; `string'
PUBLIC	??_C@_0BC@FLPEGJDD@CanAttackInstance@		; `string'
PUBLIC	??_C@_0BA@ODCBPOEF@IsActingEmotion@		; `string'
PUBLIC	??_C@_0O@ECCODAC@IsPVPInstance@			; `string'
PUBLIC	??_C@_0N@CBEDFALN@IsSameEmpire@			; `string'
PUBLIC	??_C@_0BE@FOIPHJLO@IsChallengeInstance@		; `string'
PUBLIC	??_C@_0BC@IKOEAPGC@IsRevengeInstance@		; `string'
PUBLIC	??_C@_0BE@HJOMPGKI@IsCantFightInstance@		; `string'
PUBLIC	??_C@_0BF@DABJOKIF@GetCharacterDistance@	; `string'
PUBLIC	??_C@_0N@IKPCBCPA@IsInSafeArea@			; `string'
PUBLIC	??_C@_0BA@GFJLKENO@IsMountingHorse@		; `string'
PUBLIC	??_C@_0P@LDENHACE@IsObserverMode@		; `string'
PUBLIC	??_C@_0L@JEBGMNAH@ActEmotion@			; `string'
PUBLIC	??_C@_0L@CPMIOCIM@ShowPlayer@			; `string'
PUBLIC	??_C@_0L@PBBGGCLG@HidePlayer@			; `string'
PUBLIC	??_C@_0M@GOCDIKPN@ComboAttack@			; `string'
PUBLIC	??_C@_0BL@IEKDAKHC@SetAutoCameraRotationSpeed@	; `string'
PUBLIC	??_C@_0BC@DAIEHFBH@SetAttackKeyState@		; `string'
PUBLIC	??_C@_0BF@PNJNANBI@SetSingleDIKKeyState@	; `string'
PUBLIC	??_C@_0BJ@HGLJKHIH@EndKeyWalkingImmediately@	; `string'
PUBLIC	??_C@_0BC@NCHFPCDM@StartMouseWalking@		; `string'
PUBLIC	??_C@_0BA@JEOKFDLP@EndMouseWalking@		; `string'
PUBLIC	??_C@_0BE@MCFGJOPA@ResetCameraRotation@		; `string'
PUBLIC	??_C@_0BD@DPHLFGPP@SetQuickCameraMode@		; `string'
PUBLIC	??_C@_08HIFGFOGG@SetSkill@			; `string'
PUBLIC	??_C@_0O@NOICOABO@GetSkillIndex@		; `string'
PUBLIC	??_C@_0BC@HNJMANI@GetSkillSlotIndex@		; `string'
PUBLIC	??_C@_0O@IIOIANPE@GetSkillGrade@		; `string'
PUBLIC	??_C@_0O@CNCBAIPN@GetSkillLevel@		; `string'
PUBLIC	??_C@_0CD@EFGGIKHI@GetSkillCurrentEfficientPercent@ ; `string'
PUBLIC	??_C@_0CA@JHGONPGM@GetSkillNextEfficientPercentage@ ; `string'
PUBLIC	??_C@_0P@IGNHDBHH@ClickSkillSlot@		; `string'
PUBLIC	??_C@_0BN@BPJDEKED@ChangeCurrentSkillNumberOnly@ ; `string'
PUBLIC	??_C@_0P@MJOJKOJJ@ClearSkillDict@		; `string'
PUBLIC	??_C@_0N@GABOCBEH@GetItemIndex@			; `string'
PUBLIC	??_C@_0N@DMCGDNGF@GetItemFlags@			; `string'
PUBLIC	??_C@_0N@LEKALLIG@GetItemCount@			; `string'
PUBLIC	??_C@_0BD@DBLILMFK@GetItemCountByVnum@		; `string'
PUBLIC	??_C@_0BD@JBOBKHIE@GetItemMetinSocket@		; `string'
PUBLIC	??_C@_0BB@GOKPPDHH@GetItemAttribute@		; `string'
PUBLIC	??_C@_0BC@OKNBBEMG@GetISellItemPrice@		; `string'
PUBLIC	??_C@_08MHJANHDM@MoveItem@			; `string'
PUBLIC	??_C@_0BE@DBIFLBAC@SendClickItemPacket@		; `string'
PUBLIC	??_C@_07MMGEHGCI@GetName@			; `string'
PUBLIC	??_C@_06FHLNIOPB@GetJob@			; `string'
PUBLIC	??_C@_07GDOKCBKB@GetRace@			; `string'
PUBLIC	??_C@_0M@DJDCIBLO@GetPlayTime@			; `string'
PUBLIC	??_C@_0M@DGCMFHDN@SetPlayTime@			; `string'
PUBLIC	??_C@_0BA@FOPKKJJD@IsSkillCoolTime@		; `string'
PUBLIC	??_C@_0BB@CNGGKNGL@GetSkillCoolTime@		; `string'
PUBLIC	??_C@_0O@IAPCJJAC@IsSkillActive@		; `string'
PUBLIC	??_C@_0O@HHBOBCLE@UseGuildSkill@		; `string'
PUBLIC	??_C@_0BI@JIGEMOFF@AffectIndexToSkillIndex@	; `string'
PUBLIC	??_C@_06MDIKDJMD@GetEXP@			; `string'
PUBLIC	??_C@_09MKFEIFJE@GetStatus@			; `string'
PUBLIC	??_C@_09OEBBKEAG@SetStatus@			; `string'
PUBLIC	??_C@_06NMFKJLLH@GetElk@			; `string'
PUBLIC	??_C@_08OAJFGNBC@GetMoney@			; `string'
PUBLIC	??_C@_0L@EAKBLDCO@GetGuildID@			; `string'
PUBLIC	??_C@_0N@CECGOPDG@GetGuildName@			; `string'
PUBLIC	??_C@_0BB@LANDCIKG@GetAlignmentData@		; `string'
PUBLIC	??_C@_0BJ@DNLGAMEO@RequestAddLocalQuickSlot@	; `string'
PUBLIC	??_C@_0CA@JMFCJJPL@RequestAddToEmptyLocalQuickSlot@ ; `string'
PUBLIC	??_C@_0BN@NACLJDMA@RequestDeleteGlobalQuickSlot@ ; `string'
PUBLIC	??_C@_0CL@IEMBKGLN@RequestMoveGlobalQuickSlotToLoc@ ; `string'
PUBLIC	??_C@_0BJ@IBBGPDPH@RequestUseLocalQuickSlot@	; `string'
PUBLIC	??_C@_0CK@GNGKFIDB@LocalQuickSlotIndexToGlobalQuic@ ; `string'
PUBLIC	??_C@_0N@NLMPHAJA@GetQuickPage@			; `string'
PUBLIC	??_C@_0N@KPHBLMNM@SetQuickPage@			; `string'
PUBLIC	??_C@_0BC@LNKMMBDG@GetLocalQuickSlot@		; `string'
PUBLIC	??_C@_0BD@ECGPDHPA@GetGlobalQuickSlot@		; `string'
PUBLIC	??_C@_0BH@JNCIKJMC@RemoveQuickSlotByValue@	; `string'
PUBLIC	??_C@_06NOPKEHAK@isItem@			; `string'
PUBLIC	??_C@_0BA@EMKHGGAL@IsEquipmentSlot@		; `string'
PUBLIC	??_C@_0BC@DDCIGDKO@IsDSEquipmentSlot@		; `string'
PUBLIC	??_C@_0O@KCAGNEAI@IsCostumeSlot@		; `string'
PUBLIC	??_C@_0P@LAJFBPPH@IsValuableItem@		; `string'
PUBLIC	??_C@_0BC@DCFDMADN@IsOpenPrivateShop@		; `string'
PUBLIC	??_C@_0BE@HECMLJG@IsBeltInventorySlot@		; `string'
PUBLIC	??_C@_0BA@OBALOJLG@IsEquippingBelt@		; `string'
PUBLIC	??_C@_0BN@DKGNHJIB@IsAvailableBeltInventoryCell@ ; `string'
PUBLIC	??_C@_0N@DGHEMMKN@GetItemGrade@			; `string'
PUBLIC	??_C@_09BGNCJJP@CanRefine@			; `string'
PUBLIC	??_C@_09GHIBIBHI@CanDetach@			; `string'
PUBLIC	??_C@_09FHINBOHC@CanUnlock@			; `string'
PUBLIC	??_C@_0P@BLOGPKFO@CanAttachMetin@		; `string'
PUBLIC	??_C@_0BE@ELNKJPMC@IsRefineGradeScroll@		; `string'
PUBLIC	??_C@_0M@DPCEEMCG@ClearTarget@			; `string'
PUBLIC	??_C@_09EECGCJDE@SetTarget@			; `string'
PUBLIC	??_C@_0BC@HAEJEFBP@OpenCharacterMenu@		; `string'
PUBLIC	??_C@_06LMAGPFNF@Update@			; `string'
PUBLIC	??_C@_06EPLDPNDB@Render@			; `string'
PUBLIC	??_C@_05MDNHABIA@Clear@				; `string'
PUBLIC	??_C@_0O@FJCFNEGL@IsPartyMember@		; `string'
PUBLIC	??_C@_0O@BPMJGNAC@IsPartyLeader@		; `string'
PUBLIC	??_C@_0BD@HGKJMFNK@IsPartyLeaderByPID@		; `string'
PUBLIC	??_C@_0BL@EPAFEFHI@GetPartyMemberHPPercentage@	; `string'
PUBLIC	??_C@_0BE@HKIJMBKK@GetPartyMemberState@		; `string'
PUBLIC	??_C@_0BG@EEFAFMJC@GetPartyMemberAffects@	; `string'
PUBLIC	??_C@_0BC@DGCJFOHN@RemovePartyMember@		; `string'
PUBLIC	??_C@_09DMPBEJCG@ExitParty@			; `string'
PUBLIC	??_C@_09IMMFEEHK@GetPKMode@			; `string'
PUBLIC	??_C@_0BF@CLGCEOLO@HasMobilePhoneNumber@	; `string'
PUBLIC	??_C@_0BE@PMDABIKP@RegisterEmotionIcon@		; `string'
PUBLIC	??_C@_0BE@FELKHKJF@GetEmotionIconImage@		; `string'
PUBLIC	??_C@_0BJ@CFCMHNHB@SetWeaponAttackBonusFlag@	; `string'
PUBLIC	??_C@_0P@ILOOLMDH@ToggleCoolTime@		; `string'
PUBLIC	??_C@_0BB@DJKKOCLB@ToggleLevelLimit@		; `string'
PUBLIC	??_C@_0N@MEKPPHGC@GetTargetVID@			; `string'
PUBLIC	??_C@_0M@CHNGAPIB@SetItemData@			; `string'
PUBLIC	??_C@_0BD@GLMLJBGM@SetItemMetinSocket@		; `string'
PUBLIC	??_C@_0BB@KPGENMF@SetItemAttribute@		; `string'
PUBLIC	??_C@_0N@MABOHHMK@SetItemCount@			; `string'
PUBLIC	??_C@_0M@DGFCHEAA@GetItemLink@			; `string'
PUBLIC	??_C@_0BE@IOMKCPHN@SlotTypeToInvenType@		; `string'
PUBLIC	??_C@_0BF@PLGNHJMH@SendDragonSoulRefine@	; `string'
PUBLIC	??_C@_06BALNJMNP@player@			; `string'
PUBLIC	??_C@_05GCEPFMCO@LEVEL@				; `string'
PUBLIC	??_C@_05FHIHOFEA@VOICE@				; `string'
PUBLIC	??_C@_03KKGFKKLA@EXP@				; `string'
PUBLIC	??_C@_08CHGDMADF@NEXT_EXP@			; `string'
PUBLIC	??_C@_02MEIMKHMB@HP@				; `string'
PUBLIC	??_C@_06NMHEPHCD@MAX_HP@			; `string'
PUBLIC	??_C@_02NEPPOLFA@SP@				; `string'
PUBLIC	??_C@_06MMAHLLLC@MAX_SP@			; `string'
PUBLIC	??_C@_07IHPDJFBP@STAMINA@			; `string'
PUBLIC	??_C@_0M@CHCGLEDD@MAX_STAMINA@			; `string'
PUBLIC	??_C@_03BIHMGKIG@ELK@				; `string'
PUBLIC	??_C@_02LAJDCOFE@ST@				; `string'
PUBLIC	??_C@_02KAOAGCMF@HT@				; `string'
PUBLIC	??_C@_02FEPNEKN@DX@				; `string'
PUBLIC	??_C@_02NMFFPMLH@IQ@				; `string'
PUBLIC	??_C@_09DIGJAPIG@ATT_POWER@			; `string'
PUBLIC	??_C@_07PNODGJJO@ATT_MIN@			; `string'
PUBLIC	??_C@_07OPGIINPB@ATT_MAX@			; `string'
PUBLIC	??_C@_0O@CJNCLCGL@MIN_MAGIC_WEP@		; `string'
PUBLIC	??_C@_0O@JAPECJBK@MAX_MAGIC_WEP@		; `string'
PUBLIC	??_C@_09LKMFFHLI@ATT_SPEED@			; `string'
PUBLIC	??_C@_09FOFLCGDC@ATT_BONUS@			; `string'
PUBLIC	??_C@_0L@IPHIKIMB@EVADE_RATE@			; `string'
PUBLIC	??_C@_0N@KGGLAJKM@MOVING_SPEED@			; `string'
PUBLIC	??_C@_09KMPFCDFE@DEF_GRADE@			; `string'
PUBLIC	??_C@_09DNFHINBC@DEF_BONUS@			; `string'
PUBLIC	??_C@_0O@IOLIEEIE@CASTING_SPEED@		; `string'
PUBLIC	??_C@_07PEONMKMN@MAG_ATT@			; `string'
PUBLIC	??_C@_07KGCDIDGL@MAG_DEF@			; `string'
PUBLIC	??_C@_0N@JIFCAIPA@EMPIRE_POINT@			; `string'
PUBLIC	??_C@_04KNIOFKKL@STAT@				; `string'
PUBLIC	??_C@_0O@DGEPJFAK@SKILL_PASSIVE@		; `string'
PUBLIC	??_C@_0O@JLNOPGFK@SKILL_SUPPORT@		; `string'
PUBLIC	??_C@_0N@DNBJLBPA@SKILL_ACTIVE@			; `string'
PUBLIC	??_C@_0M@HAFIBGFL@SKILL_HORSE@			; `string'
PUBLIC	??_C@_08CKIIBBI@PLAYTIME@			; `string'
PUBLIC	??_C@_0N@KHDDEEFG@BOW_DISTANCE@			; `string'
PUBLIC	??_C@_0M@CLAIAEPM@HP_RECOVERY@			; `string'
PUBLIC	??_C@_0M@FGICENAO@SP_RECOVERY@			; `string'
PUBLIC	??_C@_0P@GAAMLPFK@ATTACKER_BONUS@		; `string'
PUBLIC	??_C@_07MEMMKJPK@MAX_NUM@			; `string'
PUBLIC	??_C@_0BD@CPEECKKP@POINT_CRITICAL_PCT@		; `string'
PUBLIC	??_C@_0BE@BGNEFMNJ@POINT_PENETRATE_PCT@		; `string'
PUBLIC	??_C@_0BE@FDGMKOPN@POINT_MALL_ATTBONUS@		; `string'
PUBLIC	??_C@_0BE@FJKLFHOA@POINT_MALL_DEFBONUS@		; `string'
PUBLIC	??_C@_0BE@KNGAMOKN@POINT_MALL_EXPBONUS@		; `string'
PUBLIC	??_C@_0BF@FCMHLHC@POINT_MALL_ITEMBONUS@		; `string'
PUBLIC	??_C@_0BF@LPKHMJJF@POINT_MALL_GOLDBONUS@	; `string'
PUBLIC	??_C@_0BB@OCODMABI@POINT_MAX_HP_PCT@		; `string'
PUBLIC	??_C@_0BB@IHDKAICM@POINT_MAX_SP_PCT@		; `string'
PUBLIC	??_C@_0BJ@PGEFOCDG@POINT_SKILL_DAMAGE_BONUS@	; `string'
PUBLIC	??_C@_0BO@GNDIKOOF@POINT_NORMAL_HIT_DAMAGE_BONUS@ ; `string'
PUBLIC	??_C@_0BJ@LPIAEILC@POINT_SKILL_DEFEND_BONUS@	; `string'
PUBLIC	??_C@_0BO@CEPNAEGB@POINT_NORMAL_HIT_DEFEND_BONUS@ ; `string'
PUBLIC	??_C@_0BI@BAKJJELL@POINT_PC_BANG_EXP_BONUS@	; `string'
PUBLIC	??_C@_0BJ@LFKCHGEO@POINT_PC_BANG_DROP_BONUS@	; `string'
PUBLIC	??_C@_06KOEJHMAL@ENERGY@			; `string'
PUBLIC	??_C@_0BA@PIHNCBED@ENERGY_END_TIME@		; `string'
PUBLIC	??_C@_0BD@LAKFNFGD@SKILL_GRADE_NORMAL@		; `string'
PUBLIC	??_C@_0BD@HIHOAICI@SKILL_GRADE_MASTER@		; `string'
PUBLIC	??_C@_0BJ@CFOEIGCN@SKILL_GRADE_GRAND_MASTER@	; `string'
PUBLIC	??_C@_0BL@DCIPLDCA@SKILL_GRADE_PERFECT_MASTER@	; `string'
PUBLIC	??_C@_0BA@LCKKFCJM@CATEGORY_ACTIVE@		; `string'
PUBLIC	??_C@_0BB@HCMEALJK@CATEGORY_PASSIVE@		; `string'
PUBLIC	??_C@_0BE@CEBDMLGH@INVENTORY_PAGE_SIZE@		; `string'
PUBLIC	??_C@_0BF@NFIFHHOM@INVENTORY_PAGE_COUNT@	; `string'
PUBLIC	??_C@_0BF@LCFAAJPA@INVENTORY_SLOT_COUNT@	; `string'
PUBLIC	??_C@_0BF@HJEBPPMM@EQUIPMENT_SLOT_START@	; `string'
PUBLIC	??_C@_0BF@MADFLPAE@EQUIPMENT_PAGE_COUNT@	; `string'
PUBLIC	??_C@_0BJ@COKKCHPJ@NEW_EQUIPMENT_SLOT_START@	; `string'
PUBLIC	??_C@_0BJ@PAALBJCN@NEW_EQUIPMENT_SLOT_COUNT@	; `string'
PUBLIC	??_C@_09NLFDBCDH@MBF_SKILL@			; `string'
PUBLIC	??_C@_0L@MIGMJBKJ@MBF_ATTACK@			; `string'
PUBLIC	??_C@_0L@JHBFAMB@MBF_CAMERA@			; `string'
PUBLIC	??_C@_09FAENJFL@MBF_SMART@			; `string'
PUBLIC	??_C@_08BLLANCB@MBF_MOVE@			; `string'
PUBLIC	??_C@_08CIEGLDP@MBF_AUTO@			; `string'
PUBLIC	??_C@_09JEJKPPEO@MBS_PRESS@			; `string'
PUBLIC	??_C@_09BKODCCAJ@MBS_CLICK@			; `string'
PUBLIC	??_C@_09DBJMODBC@MBT_RIGHT@			; `string'
PUBLIC	??_C@_08OMNIMJHC@MBT_LEFT@			; `string'
PUBLIC	??_C@_0P@JBDPGPGM@SLOT_TYPE_NONE@		; `string'
PUBLIC	??_C@_0BE@BNOEBHPE@SLOT_TYPE_INVENTORY@		; `string'
PUBLIC	??_C@_0BA@MAJHKGKG@SLOT_TYPE_SKILL@		; `string'
PUBLIC	??_C@_0P@KCOPIIMF@SLOT_TYPE_SHOP@		; `string'
PUBLIC	??_C@_0BJ@DBNHPJKE@SLOT_TYPE_EXCHANGE_OWNER@	; `string'
PUBLIC	??_C@_0BK@KJHLAGBH@SLOT_TYPE_EXCHANGE_TARGET@	; `string'
PUBLIC	??_C@_0BF@CPPFMLHN@SLOT_TYPE_QUICK_SLOT@	; `string'
PUBLIC	??_C@_0BC@HGKFDIFN@SLOT_TYPE_SAFEBOX@		; `string'
PUBLIC	??_C@_0BH@MJAEADNE@SLOT_TYPE_PRIVATE_SHOP@	; `string'
PUBLIC	??_C@_0P@OEAGANKI@SLOT_TYPE_MALL@		; `string'
PUBLIC	??_C@_0BC@LKMHLHKJ@SLOT_TYPE_EMOTION@		; `string'
PUBLIC	??_C@_0CA@FHKIPOOP@SLOT_TYPE_DRAGON_SOUL_INVENTORY@ ; `string'
PUBLIC	??_C@_0BA@NKAFFIGF@RESERVED_WINDOW@		; `string'
PUBLIC	??_C@_09NCAHJFFG@INVENTORY@			; `string'
PUBLIC	??_C@_09GJGOMHMK@EQUIPMENT@			; `string'
PUBLIC	??_C@_07NCKDBJCB@SAFEBOX@			; `string'
PUBLIC	??_C@_04JPFKNPOP@MALL@				; `string'
PUBLIC	??_C@_0BG@FHEDCCNN@DRAGON_SOUL_INVENTORY@	; `string'
PUBLIC	??_C@_06GKBINIEJ@GROUND@			; `string'
PUBLIC	??_C@_0L@HFAEBHHD@ITEM_MONEY@			; `string'
PUBLIC	??_C@_0BB@IOEKBHAE@SKILL_SLOT_COUNT@		; `string'
PUBLIC	??_C@_0M@CHLINENA@EFFECT_PICK@			; `string'
PUBLIC	??_C@_0BH@FCKCIMBH@METIN_SOCKET_TYPE_NONE@	; `string'
PUBLIC	??_C@_0BJ@PHGNNMMA@METIN_SOCKET_TYPE_SILVER@	; `string'
PUBLIC	??_C@_0BH@EFCNALEJ@METIN_SOCKET_TYPE_GOLD@	; `string'
PUBLIC	??_C@_0BF@HOKBLOCN@METIN_SOCKET_MAX_NUM@	; `string'
PUBLIC	??_C@_0BH@BPEONNLD@ATTRIBUTE_SLOT_MAX_NUM@	; `string'
PUBLIC	??_C@_0M@FNDEJPGN@REFINE_CANT@			; `string'
PUBLIC	??_C@_09FFJEIDJG@REFINE_OK@			; `string'
PUBLIC	??_C@_0CA@CPLGFHBD@REFINE_ALREADY_MAX_SOCKET_COUNT@ ; `string'
PUBLIC	??_C@_0BN@FMBLMMOD@REFINE_NEED_MORE_GOOD_SCROLL@ ; `string'
PUBLIC	??_C@_0BN@JPDLJDPD@REFINE_CANT_MAKE_SOCKET_ITEM@ ; `string'
PUBLIC	??_C@_0BL@EILCCEPE@REFINE_NOT_NEXT_GRADE_ITEM@	; `string'
PUBLIC	??_C@_0CG@LFLLDFCE@REFINE_CANT_REFINE_METIN_TO_EQU@ ; `string'
PUBLIC	??_C@_0BH@OENPPLJB@REFINE_CANT_REFINE_ROD@	; `string'
PUBLIC	??_C@_0BC@CBCJMHP@ATTACH_METIN_CANT@		; `string'
PUBLIC	??_C@_0BA@HOJAFGB@ATTACH_METIN_OK@		; `string'
PUBLIC	??_C@_0CA@OFAKGLFM@ATTACH_METIN_NOT_MATCHABLE_ITEM@ ; `string'
PUBLIC	??_C@_0CB@MAILDNNI@ATTACH_METIN_NO_MATCHABLE_SOCKE@ ; `string'
PUBLIC	??_C@_0CD@JNOPKOFJ@ATTACH_METIN_NOT_EXIST_GOLD_SOC@ ; `string'
PUBLIC	??_C@_0CG@BCIFDNEM@ATTACH_METIN_CANT_ATTACH_TO_EQU@ ; `string'
PUBLIC	??_C@_0BC@HGBPKPKG@DETACH_METIN_CANT@		; `string'
PUBLIC	??_C@_0BA@IACJJMNA@DETACH_METIN_OK@		; `string'
PUBLIC	??_C@_0BD@PNFBHDHD@PARTY_STATE_NORMAL@		; `string'
PUBLIC	??_C@_0BD@ECFFHEOH@PARTY_STATE_LEADER@		; `string'
PUBLIC	??_C@_0BF@DOKPPLCL@PARTY_STATE_ATTACKER@	; `string'
PUBLIC	??_C@_0BD@FHMGGDNP@PARTY_STATE_TANKER@		; `string'
PUBLIC	??_C@_0BD@JJFBJLK@PARTY_STATE_BUFFER@		; `string'
PUBLIC	??_C@_0BJ@EIPCPJKC@PARTY_STATE_SKILL_MASTER@	; `string'
PUBLIC	??_C@_0BG@LCNEBE@PARTY_STATE_BERSERKER@		; `string'
PUBLIC	??_C@_0BF@PAKJEMH@PARTY_STATE_DEFENDER@		; `string'
PUBLIC	??_C@_0BE@KCLJFDCO@PARTY_STATE_MAX_NUM@		; `string'
PUBLIC	??_C@_0BE@MNBFKLPI@SKILL_INDEX_TONGSOL@		; `string'
PUBLIC	??_C@_0BE@HANBCKAH@SKILL_INDEX_FISHING@		; `string'
PUBLIC	??_C@_0BD@KFCAJBFG@SKILL_INDEX_MINING@		; `string'
PUBLIC	??_C@_0BD@IBJDJMEL@SKILL_INDEX_MAKING@		; `string'
PUBLIC	??_C@_0BC@HACNAMIK@SKILL_INDEX_COMBO@		; `string'
PUBLIC	??_C@_0BG@GPLOFEKK@SKILL_INDEX_LANGUAGE1@	; `string'
PUBLIC	??_C@_0BG@EEJDAHGJ@SKILL_INDEX_LANGUAGE2@	; `string'
PUBLIC	??_C@_0BG@FNIIDGCI@SKILL_INDEX_LANGUAGE3@	; `string'
PUBLIC	??_C@_0BG@DMEIDEKO@SKILL_INDEX_POLYMORPH@	; `string'
PUBLIC	??_C@_0BD@HOAGGFNA@SKILL_INDEX_RIDING@		; `string'
PUBLIC	??_C@_0BD@POBHIINM@SKILL_INDEX_SUMMON@		; `string'
PUBLIC	??_C@_0O@BIPAMBIG@PK_MODE_PEACE@		; `string'
PUBLIC	??_C@_0BA@HNNGLCOB@PK_MODE_REVENGE@		; `string'
PUBLIC	??_C@_0N@DCANEGJG@PK_MODE_FREE@			; `string'
PUBLIC	??_C@_0BA@GHACPGHA@PK_MODE_PROTECT@		; `string'
PUBLIC	??_C@_0O@LBDADKLE@PK_MODE_GUILD@		; `string'
PUBLIC	??_C@_0BA@OLCDKGDA@PK_MODE_MAX_NUM@		; `string'
PUBLIC	??_C@_0P@CDMGAFPE@BLOCK_EXCHANGE@		; `string'
PUBLIC	??_C@_0M@KFDBGBIL@BLOCK_PARTY@			; `string'
PUBLIC	??_C@_0M@EEMDCMKA@BLOCK_GUILD@			; `string'
PUBLIC	??_C@_0O@CFHKOIIK@BLOCK_WHISPER@		; `string'
PUBLIC	??_C@_0N@IJGKBLJF@BLOCK_FRIEND@			; `string'
PUBLIC	??_C@_0BE@NDGMABKO@BLOCK_PARTY_REQUEST@		; `string'
PUBLIC	??_C@_0BL@OELLICOI@PARTY_EXP_NON_DISTRIBUTION@	; `string'
PUBLIC	??_C@_0BO@CBJBDFJC@PARTY_EXP_DISTRIBUTION_PARITY@ ; `string'
PUBLIC	??_C@_0N@GFLIEIGE@EMOTION_CLAP@			; `string'
PUBLIC	??_C@_0BB@MCMBOGFC@EMOTION_CHEERS_1@		; `string'
PUBLIC	??_C@_0BB@OJOMLFJB@EMOTION_CHEERS_2@		; `string'
PUBLIC	??_C@_0BA@CLHGMEE@EMOTION_DANCE_1@		; `string'
PUBLIC	??_C@_0BA@CJJKDPIH@EMOTION_DANCE_2@		; `string'
PUBLIC	??_C@_0BA@DAIBAOMG@EMOTION_DANCE_3@		; `string'
PUBLIC	??_C@_0BA@HPMAJIAB@EMOTION_DANCE_4@		; `string'
PUBLIC	??_C@_0BA@GGNLKJEA@EMOTION_DANCE_5@		; `string'
PUBLIC	??_C@_0BA@ENPGPKID@EMOTION_DANCE_6@		; `string'
PUBLIC	??_C@_0BH@FIIEKKHF@EMOTION_CONGRATULATION@	; `string'
PUBLIC	??_C@_0BA@JPGNEMIB@EMOTION_FORGIVE@		; `string'
PUBLIC	??_C@_0O@DACEICMN@EMOTION_ANGRY@		; `string'
PUBLIC	??_C@_0BD@FLNIBF@EMOTION_ATTRACTIVE@		; `string'
PUBLIC	??_C@_0M@EGEMMDCF@EMOTION_SAD@			; `string'
PUBLIC	??_C@_0M@LGPBJELG@EMOTION_SHY@			; `string'
PUBLIC	??_C@_0BA@MENCJFPL@EMOTION_CHEERUP@		; `string'
PUBLIC	??_C@_0P@JAJBGKKI@EMOTION_BANTER@		; `string'
PUBLIC	??_C@_0M@JOKPJKCG@EMOTION_JOY@			; `string'
PUBLIC	??_C@_0N@FGJJNHEK@EMOTION_KISS@			; `string'
PUBLIC	??_C@_0BE@KCAKKBPE@EMOTION_FRENCH_KISS@		; `string'
PUBLIC	??_C@_0N@FFINPOG@EMOTION_SLAP@			; `string'
PUBLIC	??_C@_0BE@LLABJENL@AUTO_POTION_TYPE_HP@		; `string'
PUBLIC	??_C@_0BE@KLHCNIEK@AUTO_POTION_TYPE_SP@		; `string'
PUBLIC	??_C@_0BG@FEPFCIIM@DRAGON_SOUL_PAGE_SIZE@	; `string'
PUBLIC	??_C@_0BH@OCCNKKPP@DRAGON_SOUL_PAGE_COUNT@	; `string'
PUBLIC	??_C@_0BH@IFPINEOD@DRAGON_SOUL_SLOT_COUNT@	; `string'
PUBLIC	??_C@_0CB@NJAOAEOC@DRAGON_SOUL_EQUIPMENT_SLOT_STAR@ ; `string'
PUBLIC	??_C@_0CB@GAHKEECK@DRAGON_SOUL_EQUIPMENT_PAGE_COUN@ ; `string'
PUBLIC	??_C@_0CB@OIFHBJMG@DRAGON_SOUL_EQUIPMENT_FIRST_SIZ@ ; `string'
PUBLIC	??_C@_0BJ@MMGGGOHJ@DRAGON_SOUL_REFINE_CLOSE@	; `string'
PUBLIC	??_C@_0BJ@JKFAJIJN@DS_SUB_HEADER_DO_UPGRADE@	; `string'
PUBLIC	??_C@_0BN@PCPINHKH@DS_SUB_HEADER_DO_IMPROVEMENT@ ; `string'
PUBLIC	??_C@_0BI@NHBOLMGK@DS_SUB_HEADER_DO_REFINE@	; `string'
PUBLIC	__real@bff0000000000000
EXTRN	??2@YAPAXI@Z:PROC				; operator new
EXTRN	??3@YAXPAX@Z:PROC				; operator delete
EXTRN	??3@YAXPAXI@Z:PROC				; operator delete
EXTRN	_atexit:PROC
EXTRN	__invalid_parameter_noinfo_noreturn:PROC
EXTRN	___stdio_common_vsprintf:PROC
EXTRN	___std_exception_copy:PROC
EXTRN	___std_exception_destroy:PROC
EXTRN	??_Eexception@std@@UAEPAXI@Z:PROC		; std::exception::`vector deleting destructor'
EXTRN	??_Ebad_alloc@std@@UAEPAXI@Z:PROC		; std::bad_alloc::`vector deleting destructor'
EXTRN	??_Ebad_array_new_length@std@@UAEPAXI@Z:PROC	; std::bad_array_new_length::`vector deleting destructor'
EXTRN	?_Xlength_error@std@@YAXPBD@Z:PROC		; std::_Xlength_error
EXTRN	__imp__PyInt_AsLong:PROC
EXTRN	__imp__PyTuple_Size:PROC
EXTRN	__imp__PyDict_Next:PROC
EXTRN	__imp__PyDict_Size:PROC
EXTRN	__imp__Py_BuildValue:PROC
EXTRN	__imp__PyModule_AddIntConstant:PROC
EXTRN	__imp__Py_InitModule4:PROC
EXTRN	?PyTuple_GetString@@YA_NPAU_object@@HPAPAD@Z:PROC ; PyTuple_GetString
EXTRN	?PyTuple_GetInteger@@YA_NPAU_object@@HPAE@Z:PROC ; PyTuple_GetInteger
EXTRN	?PyTuple_GetInteger@@YA_NPAU_object@@HPAH@Z:PROC ; PyTuple_GetInteger
EXTRN	?PyTuple_GetInteger@@YA_NPAU_object@@HPAG@Z:PROC ; PyTuple_GetInteger
EXTRN	?PyTuple_GetByte@@YA_NPAU_object@@HPAE@Z:PROC	; PyTuple_GetByte
EXTRN	?PyTuple_GetLong@@YA_NPAU_object@@HPAJ@Z:PROC	; PyTuple_GetLong
EXTRN	?PyTuple_GetFloat@@YA_NPAU_object@@HPAM@Z:PROC	; PyTuple_GetFloat
EXTRN	?PyTuple_GetObject@@YA_NPAU_object@@HPAPAU1@@Z:PROC ; PyTuple_GetObject
EXTRN	?PyTuple_GetBoolean@@YA_NPAU_object@@HPA_N@Z:PROC ; PyTuple_GetBoolean
EXTRN	?Py_BuildException@@YAPAU_object@@PBDZZ:PROC	; Py_BuildException
EXTRN	?Py_BadArgument@@YAPAU_object@@XZ:PROC		; Py_BadArgument
EXTRN	?Py_BuildNone@@YAPAU_object@@XZ:PROC		; Py_BuildNone
EXTRN	?GetDefaultCodePage@@YAKXZ:PROC			; GetDefaultCodePage
EXTRN	?GetResourcePointer@CResourceManager@@QAEPAVCResource@@PBD@Z:PROC ; CResourceManager::GetResourcePointer
EXTRN	?Show@CGraphicObjectInstance@@QAEXXZ:PROC	; CGraphicObjectInstance::Show
EXTRN	?Hide@CGraphicObjectInstance@@QAEXXZ:PROC	; CGraphicObjectInstance::Hide
EXTRN	?GetName@CItemData@@QBEPBDXZ:PROC		; CItemData::GetName
EXTRN	?GetType@CItemData@@QBEEXZ:PROC			; CItemData::GetType
EXTRN	?GetSubType@CItemData@@QBEEXZ:PROC		; CItemData::GetSubType
EXTRN	?IsFlag@CItemData@@QBEHK@Z:PROC			; CItemData::IsFlag
EXTRN	?HasNextGrade@CItemData@@QBEHXZ:PROC		; CItemData::HasNextGrade
EXTRN	?GetWearFlags@CItemData@@QBEKXZ:PROC		; CItemData::GetWearFlags
EXTRN	?GetISellItemPrice@CItemData@@QBEKXZ:PROC	; CItemData::GetISellItemPrice
EXTRN	?GetValue@CItemData@@QBEJE@Z:PROC		; CItemData::GetValue
EXTRN	?SlotTypeToInvenType@@YAEE@Z:PROC		; SlotTypeToInvenType
EXTRN	?PickCloseItem@CPythonPlayer@@QAEXXZ:PROC	; CPythonPlayer::PickCloseItem
EXTRN	?SetGameWindow@CPythonPlayer@@QAEXPAU_object@@@Z:PROC ; CPythonPlayer::SetGameWindow
EXTRN	?IsObserverMode@CPythonPlayer@@QAE_NXZ:PROC	; CPythonPlayer::IsObserverMode
EXTRN	?SetQuickCameraMode@CPythonPlayer@@QAEX_N@Z:PROC ; CPythonPlayer::SetQuickCameraMode
EXTRN	?SetAttackKeyState@CPythonPlayer@@QAEX_N@Z:PROC	; CPythonPlayer::SetAttackKeyState
EXTRN	?NEW_GetMainActorPosition@CPythonPlayer@@QAEXPAUD3DXVECTOR3@@@Z:PROC ; CPythonPlayer::NEW_GetMainActorPosition
EXTRN	?RegisterEffect@CPythonPlayer@@QAE_NKPBD_N@Z:PROC ; CPythonPlayer::RegisterEffect
EXTRN	?NEW_SetMouseState@CPythonPlayer@@QAE_NHH@Z:PROC ; CPythonPlayer::NEW_SetMouseState
EXTRN	?NEW_SetMouseFunc@CPythonPlayer@@QAE_NHH@Z:PROC	; CPythonPlayer::NEW_SetMouseFunc
EXTRN	?NEW_GetMouseFunc@CPythonPlayer@@QAEHH@Z:PROC	; CPythonPlayer::NEW_GetMouseFunc
EXTRN	?NEW_SetMouseMiddleButtonState@CPythonPlayer@@QAEXH@Z:PROC ; CPythonPlayer::NEW_SetMouseMiddleButtonState
EXTRN	?NEW_SetAutoCameraRotationSpeed@CPythonPlayer@@QAEXM@Z:PROC ; CPythonPlayer::NEW_SetAutoCameraRotationSpeed
EXTRN	?NEW_ResetCameraRotation@CPythonPlayer@@QAEXXZ:PROC ; CPythonPlayer::NEW_ResetCameraRotation
EXTRN	?NEW_SetSingleDIKKeyState@CPythonPlayer@@QAEXH_N@Z:PROC ; CPythonPlayer::NEW_SetSingleDIKKeyState
EXTRN	?NEW_Attack@CPythonPlayer@@QAEXXZ:PROC		; CPythonPlayer::NEW_Attack
EXTRN	?NEW_Stop@CPythonPlayer@@QAEXXZ:PROC		; CPythonPlayer::NEW_Stop
EXTRN	?Clear@CPythonPlayer@@QAEXXZ:PROC		; CPythonPlayer::Clear
EXTRN	?ClearSkillDict@CPythonPlayer@@QAEXXZ:PROC	; CPythonPlayer::ClearSkillDict
EXTRN	?Update@CPythonPlayer@@QAEXXZ:PROC		; CPythonPlayer::Update
EXTRN	?GetPlayTime@CPythonPlayer@@QAEKXZ:PROC		; CPythonPlayer::GetPlayTime
EXTRN	?SetPlayTime@CPythonPlayer@@QAEXK@Z:PROC	; CPythonPlayer::SetPlayTime
EXTRN	?GetRace@CPythonPlayer@@QAEKXZ:PROC		; CPythonPlayer::GetRace
EXTRN	?SetStatus@CPythonPlayer@@QAEXKJ@Z:PROC		; CPythonPlayer::SetStatus
EXTRN	?MoveItemData@CPythonPlayer@@QAEXUSItemPos@@0@Z:PROC ; CPythonPlayer::MoveItemData
EXTRN	?GetItemData@CPythonPlayer@@QBEPBUpacket_item@@USItemPos@@@Z:PROC ; CPythonPlayer::GetItemData
EXTRN	?GetItemCountByVnum@CPythonPlayer@@QAEKK@Z:PROC	; CPythonPlayer::GetItemCountByVnum
EXTRN	?GetItemMetinSocket@CPythonPlayer@@QAEKUSItemPos@@K@Z:PROC ; CPythonPlayer::GetItemMetinSocket
EXTRN	?GetItemAttribute@CPythonPlayer@@QAEXUSItemPos@@KPAEPAF@Z:PROC ; CPythonPlayer::GetItemAttribute
EXTRN	?SendClickItemPacket@CPythonPlayer@@QAEXK@Z:PROC ; CPythonPlayer::SendClickItemPacket
EXTRN	?RequestAddLocalQuickSlot@CPythonPlayer@@QAEXKKK@Z:PROC ; CPythonPlayer::RequestAddLocalQuickSlot
EXTRN	?RequestAddToEmptyLocalQuickSlot@CPythonPlayer@@QAEXKK@Z:PROC ; CPythonPlayer::RequestAddToEmptyLocalQuickSlot
EXTRN	?RequestMoveGlobalQuickSlotToLocalQuickSlot@CPythonPlayer@@QAEXKK@Z:PROC ; CPythonPlayer::RequestMoveGlobalQuickSlotToLocalQuickSlot
EXTRN	?RequestDeleteGlobalQuickSlot@CPythonPlayer@@QAEXK@Z:PROC ; CPythonPlayer::RequestDeleteGlobalQuickSlot
EXTRN	?RequestUseLocalQuickSlot@CPythonPlayer@@QAEXK@Z:PROC ; CPythonPlayer::RequestUseLocalQuickSlot
EXTRN	?LocalQuickSlotIndexToGlobalQuickSlotIndex@CPythonPlayer@@QAEKK@Z:PROC ; CPythonPlayer::LocalQuickSlotIndexToGlobalQuickSlotIndex
EXTRN	?GetGlobalQuickSlotData@CPythonPlayer@@QAEXKPAK0@Z:PROC ; CPythonPlayer::GetGlobalQuickSlotData
EXTRN	?GetLocalQuickSlotData@CPythonPlayer@@QAEXKPAK0@Z:PROC ; CPythonPlayer::GetLocalQuickSlotData
EXTRN	?RemoveQuickSlotByValue@CPythonPlayer@@QAEXHH@Z:PROC ; CPythonPlayer::RemoveQuickSlotByValue
EXTRN	?IsItem@CPythonPlayer@@QAEDUSItemPos@@@Z:PROC	; CPythonPlayer::IsItem
EXTRN	?IsBeltInventorySlot@CPythonPlayer@@QAE_NUSItemPos@@@Z:PROC ; CPythonPlayer::IsBeltInventorySlot
EXTRN	?IsEquipmentSlot@CPythonPlayer@@QAE_NUSItemPos@@@Z:PROC ; CPythonPlayer::IsEquipmentSlot
EXTRN	?GetQuickPage@CPythonPlayer@@QAEHXZ:PROC	; CPythonPlayer::GetQuickPage
EXTRN	?SetQuickPage@CPythonPlayer@@QAEXH@Z:PROC	; CPythonPlayer::SetQuickPage
EXTRN	?SetSkill@CPythonPlayer@@QAEXKK@Z:PROC		; CPythonPlayer::SetSkill
EXTRN	?GetSkillSlotIndex@CPythonPlayer@@QAE_NKPAK@Z:PROC ; CPythonPlayer::GetSkillSlotIndex
EXTRN	?GetSkillIndex@CPythonPlayer@@QAEHK@Z:PROC	; CPythonPlayer::GetSkillIndex
EXTRN	?GetSkillGrade@CPythonPlayer@@QAEHK@Z:PROC	; CPythonPlayer::GetSkillGrade
EXTRN	?GetSkillLevel@CPythonPlayer@@QAEHK@Z:PROC	; CPythonPlayer::GetSkillLevel
EXTRN	?GetSkillCurrentEfficientPercentage@CPythonPlayer@@QAEMK@Z:PROC ; CPythonPlayer::GetSkillCurrentEfficientPercentage
EXTRN	?GetSkillNextEfficientPercentage@CPythonPlayer@@QAEMK@Z:PROC ; CPythonPlayer::GetSkillNextEfficientPercentage
EXTRN	?ClickSkillSlot@CPythonPlayer@@QAEXK@Z:PROC	; CPythonPlayer::ClickSkillSlot
EXTRN	?ChangeCurrentSkillNumberOnly@CPythonPlayer@@QAEXK@Z:PROC ; CPythonPlayer::ChangeCurrentSkillNumberOnly
EXTRN	?GetSkillCoolTime@CPythonPlayer@@QAEMK@Z:PROC	; CPythonPlayer::GetSkillCoolTime
EXTRN	?GetSkillElapsedCoolTime@CPythonPlayer@@QAEMK@Z:PROC ; CPythonPlayer::GetSkillElapsedCoolTime
EXTRN	?IsSkillActive@CPythonPlayer@@QAEHK@Z:PROC	; CPythonPlayer::IsSkillActive
EXTRN	?IsSkillCoolTime@CPythonPlayer@@QAEHK@Z:PROC	; CPythonPlayer::IsSkillCoolTime
EXTRN	?UseGuildSkill@CPythonPlayer@@QAEXK@Z:PROC	; CPythonPlayer::UseGuildSkill
EXTRN	?AffectIndexToSkillIndex@CPythonPlayer@@QAE_NKPAK@Z:PROC ; CPythonPlayer::AffectIndexToSkillIndex
EXTRN	?OpenCharacterMenu@CPythonPlayer@@QAEXK@Z:PROC	; CPythonPlayer::OpenCharacterMenu
EXTRN	?GetTargetVID@CPythonPlayer@@QAEKXZ:PROC	; CPythonPlayer::GetTargetVID
EXTRN	?ExitParty@CPythonPlayer@@QAEXXZ:PROC		; CPythonPlayer::ExitParty
EXTRN	?RemovePartyMember@CPythonPlayer@@QAEXK@Z:PROC	; CPythonPlayer::RemovePartyMember
EXTRN	?GetPartyMemberPtr@CPythonPlayer@@QAE_NKPAPAUSPartyMemberInfo@1@@Z:PROC ; CPythonPlayer::GetPartyMemberPtr
EXTRN	?IsChallengeInstance@CPythonPlayer@@QAE_NK@Z:PROC ; CPythonPlayer::IsChallengeInstance
EXTRN	?IsRevengeInstance@CPythonPlayer@@QAE_NK@Z:PROC	; CPythonPlayer::IsRevengeInstance
EXTRN	?IsCantFightInstance@CPythonPlayer@@QAE_NK@Z:PROC ; CPythonPlayer::IsCantFightInstance
EXTRN	?IsOpenPrivateShop@CPythonPlayer@@QAE_NXZ:PROC	; CPythonPlayer::IsOpenPrivateShop
EXTRN	?GetPKMode@CPythonPlayer@@QAEKXZ:PROC		; CPythonPlayer::GetPKMode
EXTRN	?HasMobilePhoneNumber@CPythonPlayer@@QAEHXZ:PROC ; CPythonPlayer::HasMobilePhoneNumber
EXTRN	?ActEmotion@CPythonPlayer@@QAEXK@Z:PROC		; CPythonPlayer::ActEmotion
EXTRN	?__ToggleCoolTime@CPythonPlayer@@QAEHXZ:PROC	; CPythonPlayer::__ToggleCoolTime
EXTRN	?__ToggleLevelLimit@CPythonPlayer@@QAEHXZ:PROC	; CPythonPlayer::__ToggleLevelLimit
EXTRN	?SelectItemData@CItemManager@@QAEHK@Z:PROC	; CItemManager::SelectItemData
EXTRN	?GetSelectedItemDataPointer@CItemManager@@QAEPAVCItemData@@XZ:PROC ; CItemManager::GetSelectedItemDataPointer
EXTRN	?GetItemDataPointer@CItemManager@@QAEHKPAPAVCItemData@@@Z:PROC ; CItemManager::GetItemDataPointer
EXTRN	?SendDragonSoulRefinePacket@CPythonNetworkStream@@QAE_NEPAUSItemPos@@@Z:PROC ; CPythonNetworkStream::SendDragonSoulRefinePacket
EXTRN	?GetWeaponType@CInstanceBase@@QAEKXZ:PROC	; CInstanceBase::GetWeaponType
EXTRN	?GetGuildID@CInstanceBase@@QAEKXZ:PROC		; CInstanceBase::GetGuildID
EXTRN	?GetAlignment@CInstanceBase@@QAEHXZ:PROC	; CInstanceBase::GetAlignment
EXTRN	?GetAlignmentGrade@CInstanceBase@@QAEIXZ:PROC	; CInstanceBase::GetAlignmentGrade
EXTRN	?IsAttackableInstance@CInstanceBase@@QAE_NAAV1@@Z:PROC ; CInstanceBase::IsAttackableInstance
EXTRN	?IsPVPInstance@CInstanceBase@@QAE_NAAV1@@Z:PROC	; CInstanceBase::IsPVPInstance
EXTRN	?IsSameEmpire@CInstanceBase@@QAEHAAV1@@Z:PROC	; CInstanceBase::IsSameEmpire
EXTRN	?IsMountingHorse@CInstanceBase@@QAEHXZ:PROC	; CInstanceBase::IsMountingHorse
EXTRN	?IsInSafe@CInstanceBase@@QAEHXZ:PROC		; CInstanceBase::IsInSafe
EXTRN	?IsActingEmotion@CInstanceBase@@QAEHXZ:PROC	; CInstanceBase::IsActingEmotion
EXTRN	?GetDistance@CInstanceBase@@QAEMPAV1@@Z:PROC	; CInstanceBase::GetDistance
EXTRN	?GetGraphicThingInstanceRef@CInstanceBase@@QAEAAVCActorInstance@@XZ:PROC ; CInstanceBase::GetGraphicThingInstanceRef
EXTRN	?SetMainInstance@CPythonCharacterManager@@QAE_NK@Z:PROC ; CPythonCharacterManager::SetMainInstance
EXTRN	?GetGuildName@CPythonGuild@@QAE_NKPAV?$basic_string@DU?$char_traits@D@std@@V?$allocator@D@2@@std@@@Z:PROC ; CPythonGuild::GetGuildName
EXTRN	@__security_check_cookie@4:PROC
EXTRN	__CxxThrowException@8:PROC
EXTRN	___CxxFrameHandler3:PROC
EXTRN	_memcpy:PROC
EXTRN	_memmove:PROC
EXTRN	?TWOHANDED_WEWAPON_ATT_SPEED_DECREASE_VALUE@@3HA:DWORD ; TWOHANDED_WEWAPON_ATT_SPEED_DECREASE_VALUE
EXTRN	___security_cookie:DWORD
EXTRN	__fltused:DWORD
;	COMDAT ?_OptionsStorage@?1??__local_stdio_printf_options@@9@4_KA
_BSS	SEGMENT
?_OptionsStorage@?1??__local_stdio_printf_options@@9@4_KA DQ 01H DUP (?) ; `__local_stdio_printf_options'::`2'::_OptionsStorage
_BSS	ENDS
;	COMDAT ?ms_singleton@?$CSingleton@VCResourceManager@@@@0PAVCResourceManager@@A
_BSS	SEGMENT
?ms_singleton@?$CSingleton@VCResourceManager@@@@0PAVCResourceManager@@A DD 01H DUP (?) ; CSingleton<CResourceManager>::ms_singleton
_BSS	ENDS
;	COMDAT ?ms_singleton@?$CSingleton@VCPythonPlayer@@@@0PAVCPythonPlayer@@A
_BSS	SEGMENT
?ms_singleton@?$CSingleton@VCPythonPlayer@@@@0PAVCPythonPlayer@@A DD 01H DUP (?) ; CSingleton<CPythonPlayer>::ms_singleton
_BSS	ENDS
;	COMDAT ?ms_singleton@?$CSingleton@VCItemManager@@@@0PAVCItemManager@@A
_BSS	SEGMENT
?ms_singleton@?$CSingleton@VCItemManager@@@@0PAVCItemManager@@A DD 01H DUP (?) ; CSingleton<CItemManager>::ms_singleton
_BSS	ENDS
;	COMDAT ?ms_singleton@?$CSingleton@VCPythonNetworkStream@@@@0PAVCPythonNetworkStream@@A
_BSS	SEGMENT
?ms_singleton@?$CSingleton@VCPythonNetworkStream@@@@0PAVCPythonNetworkStream@@A DD 01H DUP (?) ; CSingleton<CPythonNetworkStream>::ms_singleton
_BSS	ENDS
;	COMDAT ?ms_singleton@?$CSingleton@VCPythonCharacterManager@@@@0PAVCPythonCharacterManager@@A
_BSS	SEGMENT
?ms_singleton@?$CSingleton@VCPythonCharacterManager@@@@0PAVCPythonCharacterManager@@A DD 01H DUP (?) ; CSingleton<CPythonCharacterManager>::ms_singleton
_BSS	ENDS
;	COMDAT ?ms_singleton@?$CSingleton@VCPythonGuild@@@@0PAVCPythonGuild@@A
_BSS	SEGMENT
?ms_singleton@?$CSingleton@VCPythonGuild@@@@0PAVCPythonGuild@@A DD 01H DUP (?) ; CSingleton<CPythonGuild>::ms_singleton
_BSS	ENDS
_BSS	SEGMENT
?m_kMap_iEmotionIndex_pkIconImage@@3V?$map@HPAVCGraphicImage@@U?$less@H@std@@V?$allocator@U?$pair@$$CBHPAVCGraphicImage@@@std@@@3@@std@@A DQ 01H DUP (?) ; m_kMap_iEmotionIndex_pkIconImage
_BSS	ENDS
CRT$XCU	SEGMENT
?m_kMap_iEmotionIndex_pkIconImage$initializer$@@3P6AXXZA DD FLAT:??__Em_kMap_iEmotionIndex_pkIconImage@@YAXXZ ; m_kMap_iEmotionIndex_pkIconImage$initializer$
CRT$XCU	ENDS
;	COMDAT __real@bff0000000000000
CONST	SEGMENT
__real@bff0000000000000 DQ 0bff0000000000000r	; -1
CONST	ENDS
;	COMDAT ??_C@_0BI@NHBOLMGK@DS_SUB_HEADER_DO_REFINE@
CONST	SEGMENT
??_C@_0BI@NHBOLMGK@DS_SUB_HEADER_DO_REFINE@ DB 'DS_SUB_HEADER_DO_REFINE', 00H ; `string'
CONST	ENDS
;	COMDAT ??_C@_0BN@PCPINHKH@DS_SUB_HEADER_DO_IMPROVEMENT@
CONST	SEGMENT
??_C@_0BN@PCPINHKH@DS_SUB_HEADER_DO_IMPROVEMENT@ DB 'DS_SUB_HEADER_DO_IMP'
	DB	'ROVEMENT', 00H				; `string'
CONST	ENDS
;	COMDAT ??_C@_0BJ@JKFAJIJN@DS_SUB_HEADER_DO_UPGRADE@
CONST	SEGMENT
??_C@_0BJ@JKFAJIJN@DS_SUB_HEADER_DO_UPGRADE@ DB 'DS_SUB_HEADER_DO_UPGRADE'
	DB	00H						; `string'
CONST	ENDS
;	COMDAT ??_C@_0BJ@MMGGGOHJ@DRAGON_SOUL_REFINE_CLOSE@
CONST	SEGMENT
??_C@_0BJ@MMGGGOHJ@DRAGON_SOUL_REFINE_CLOSE@ DB 'DRAGON_SOUL_REFINE_CLOSE'
	DB	00H						; `string'
CONST	ENDS
;	COMDAT ??_C@_0CB@OIFHBJMG@DRAGON_SOUL_EQUIPMENT_FIRST_SIZ@
CONST	SEGMENT
??_C@_0CB@OIFHBJMG@DRAGON_SOUL_EQUIPMENT_FIRST_SIZ@ DB 'DRAGON_SOUL_EQUIP'
	DB	'MENT_FIRST_SIZE', 00H			; `string'
CONST	ENDS
;	COMDAT ??_C@_0CB@GAHKEECK@DRAGON_SOUL_EQUIPMENT_PAGE_COUN@
CONST	SEGMENT
??_C@_0CB@GAHKEECK@DRAGON_SOUL_EQUIPMENT_PAGE_COUN@ DB 'DRAGON_SOUL_EQUIP'
	DB	'MENT_PAGE_COUNT', 00H			; `string'
CONST	ENDS
;	COMDAT ??_C@_0CB@NJAOAEOC@DRAGON_SOUL_EQUIPMENT_SLOT_STAR@
CONST	SEGMENT
??_C@_0CB@NJAOAEOC@DRAGON_SOUL_EQUIPMENT_SLOT_STAR@ DB 'DRAGON_SOUL_EQUIP'
	DB	'MENT_SLOT_START', 00H			; `string'
CONST	ENDS
;	COMDAT ??_C@_0BH@IFPINEOD@DRAGON_SOUL_SLOT_COUNT@
CONST	SEGMENT
??_C@_0BH@IFPINEOD@DRAGON_SOUL_SLOT_COUNT@ DB 'DRAGON_SOUL_SLOT_COUNT', 00H ; `string'
CONST	ENDS
;	COMDAT ??_C@_0BH@OCCNKKPP@DRAGON_SOUL_PAGE_COUNT@
CONST	SEGMENT
??_C@_0BH@OCCNKKPP@DRAGON_SOUL_PAGE_COUNT@ DB 'DRAGON_SOUL_PAGE_COUNT', 00H ; `string'
CONST	ENDS
;	COMDAT ??_C@_0BG@FEPFCIIM@DRAGON_SOUL_PAGE_SIZE@
CONST	SEGMENT
??_C@_0BG@FEPFCIIM@DRAGON_SOUL_PAGE_SIZE@ DB 'DRAGON_SOUL_PAGE_SIZE', 00H ; `string'
CONST	ENDS
;	COMDAT ??_C@_0BE@KLHCNIEK@AUTO_POTION_TYPE_SP@
CONST	SEGMENT
??_C@_0BE@KLHCNIEK@AUTO_POTION_TYPE_SP@ DB 'AUTO_POTION_TYPE_SP', 00H ; `string'
CONST	ENDS
;	COMDAT ??_C@_0BE@LLABJENL@AUTO_POTION_TYPE_HP@
CONST	SEGMENT
??_C@_0BE@LLABJENL@AUTO_POTION_TYPE_HP@ DB 'AUTO_POTION_TYPE_HP', 00H ; `string'
CONST	ENDS
;	COMDAT ??_C@_0N@FFINPOG@EMOTION_SLAP@
CONST	SEGMENT
??_C@_0N@FFINPOG@EMOTION_SLAP@ DB 'EMOTION_SLAP', 00H	; `string'
CONST	ENDS
;	COMDAT ??_C@_0BE@KCAKKBPE@EMOTION_FRENCH_KISS@
CONST	SEGMENT
??_C@_0BE@KCAKKBPE@EMOTION_FRENCH_KISS@ DB 'EMOTION_FRENCH_KISS', 00H ; `string'
CONST	ENDS
;	COMDAT ??_C@_0N@FGJJNHEK@EMOTION_KISS@
CONST	SEGMENT
??_C@_0N@FGJJNHEK@EMOTION_KISS@ DB 'EMOTION_KISS', 00H	; `string'
CONST	ENDS
;	COMDAT ??_C@_0M@JOKPJKCG@EMOTION_JOY@
CONST	SEGMENT
??_C@_0M@JOKPJKCG@EMOTION_JOY@ DB 'EMOTION_JOY', 00H	; `string'
CONST	ENDS
;	COMDAT ??_C@_0P@JAJBGKKI@EMOTION_BANTER@
CONST	SEGMENT
??_C@_0P@JAJBGKKI@EMOTION_BANTER@ DB 'EMOTION_BANTER', 00H ; `string'
CONST	ENDS
;	COMDAT ??_C@_0BA@MENCJFPL@EMOTION_CHEERUP@
CONST	SEGMENT
??_C@_0BA@MENCJFPL@EMOTION_CHEERUP@ DB 'EMOTION_CHEERUP', 00H ; `string'
CONST	ENDS
;	COMDAT ??_C@_0M@LGPBJELG@EMOTION_SHY@
CONST	SEGMENT
??_C@_0M@LGPBJELG@EMOTION_SHY@ DB 'EMOTION_SHY', 00H	; `string'
CONST	ENDS
;	COMDAT ??_C@_0M@EGEMMDCF@EMOTION_SAD@
CONST	SEGMENT
??_C@_0M@EGEMMDCF@EMOTION_SAD@ DB 'EMOTION_SAD', 00H	; `string'
CONST	ENDS
;	COMDAT ??_C@_0BD@FLNIBF@EMOTION_ATTRACTIVE@
CONST	SEGMENT
??_C@_0BD@FLNIBF@EMOTION_ATTRACTIVE@ DB 'EMOTION_ATTRACTIVE', 00H ; `string'
CONST	ENDS
;	COMDAT ??_C@_0O@DACEICMN@EMOTION_ANGRY@
CONST	SEGMENT
??_C@_0O@DACEICMN@EMOTION_ANGRY@ DB 'EMOTION_ANGRY', 00H ; `string'
CONST	ENDS
;	COMDAT ??_C@_0BA@JPGNEMIB@EMOTION_FORGIVE@
CONST	SEGMENT
??_C@_0BA@JPGNEMIB@EMOTION_FORGIVE@ DB 'EMOTION_FORGIVE', 00H ; `string'
CONST	ENDS
;	COMDAT ??_C@_0BH@FIIEKKHF@EMOTION_CONGRATULATION@
CONST	SEGMENT
??_C@_0BH@FIIEKKHF@EMOTION_CONGRATULATION@ DB 'EMOTION_CONGRATULATION', 00H ; `string'
CONST	ENDS
;	COMDAT ??_C@_0BA@ENPGPKID@EMOTION_DANCE_6@
CONST	SEGMENT
??_C@_0BA@ENPGPKID@EMOTION_DANCE_6@ DB 'EMOTION_DANCE_6', 00H ; `string'
CONST	ENDS
;	COMDAT ??_C@_0BA@GGNLKJEA@EMOTION_DANCE_5@
CONST	SEGMENT
??_C@_0BA@GGNLKJEA@EMOTION_DANCE_5@ DB 'EMOTION_DANCE_5', 00H ; `string'
CONST	ENDS
;	COMDAT ??_C@_0BA@HPMAJIAB@EMOTION_DANCE_4@
CONST	SEGMENT
??_C@_0BA@HPMAJIAB@EMOTION_DANCE_4@ DB 'EMOTION_DANCE_4', 00H ; `string'
CONST	ENDS
;	COMDAT ??_C@_0BA@DAIBAOMG@EMOTION_DANCE_3@
CONST	SEGMENT
??_C@_0BA@DAIBAOMG@EMOTION_DANCE_3@ DB 'EMOTION_DANCE_3', 00H ; `string'
CONST	ENDS
;	COMDAT ??_C@_0BA@CJJKDPIH@EMOTION_DANCE_2@
CONST	SEGMENT
??_C@_0BA@CJJKDPIH@EMOTION_DANCE_2@ DB 'EMOTION_DANCE_2', 00H ; `string'
CONST	ENDS
;	COMDAT ??_C@_0BA@CLHGMEE@EMOTION_DANCE_1@
CONST	SEGMENT
??_C@_0BA@CLHGMEE@EMOTION_DANCE_1@ DB 'EMOTION_DANCE_1', 00H ; `string'
CONST	ENDS
;	COMDAT ??_C@_0BB@OJOMLFJB@EMOTION_CHEERS_2@
CONST	SEGMENT
??_C@_0BB@OJOMLFJB@EMOTION_CHEERS_2@ DB 'EMOTION_CHEERS_2', 00H ; `string'
CONST	ENDS
;	COMDAT ??_C@_0BB@MCMBOGFC@EMOTION_CHEERS_1@
CONST	SEGMENT
??_C@_0BB@MCMBOGFC@EMOTION_CHEERS_1@ DB 'EMOTION_CHEERS_1', 00H ; `string'
CONST	ENDS
;	COMDAT ??_C@_0N@GFLIEIGE@EMOTION_CLAP@
CONST	SEGMENT
??_C@_0N@GFLIEIGE@EMOTION_CLAP@ DB 'EMOTION_CLAP', 00H	; `string'
CONST	ENDS
;	COMDAT ??_C@_0BO@CBJBDFJC@PARTY_EXP_DISTRIBUTION_PARITY@
CONST	SEGMENT
??_C@_0BO@CBJBDFJC@PARTY_EXP_DISTRIBUTION_PARITY@ DB 'PARTY_EXP_DISTRIBUT'
	DB	'ION_PARITY', 00H				; `string'
CONST	ENDS
;	COMDAT ??_C@_0BL@OELLICOI@PARTY_EXP_NON_DISTRIBUTION@
CONST	SEGMENT
??_C@_0BL@OELLICOI@PARTY_EXP_NON_DISTRIBUTION@ DB 'PARTY_EXP_NON_DISTRIBU'
	DB	'TION', 00H					; `string'
CONST	ENDS
;	COMDAT ??_C@_0BE@NDGMABKO@BLOCK_PARTY_REQUEST@
CONST	SEGMENT
??_C@_0BE@NDGMABKO@BLOCK_PARTY_REQUEST@ DB 'BLOCK_PARTY_REQUEST', 00H ; `string'
CONST	ENDS
;	COMDAT ??_C@_0N@IJGKBLJF@BLOCK_FRIEND@
CONST	SEGMENT
??_C@_0N@IJGKBLJF@BLOCK_FRIEND@ DB 'BLOCK_FRIEND', 00H	; `string'
CONST	ENDS
;	COMDAT ??_C@_0O@CFHKOIIK@BLOCK_WHISPER@
CONST	SEGMENT
??_C@_0O@CFHKOIIK@BLOCK_WHISPER@ DB 'BLOCK_WHISPER', 00H ; `string'
CONST	ENDS
;	COMDAT ??_C@_0M@EEMDCMKA@BLOCK_GUILD@
CONST	SEGMENT
??_C@_0M@EEMDCMKA@BLOCK_GUILD@ DB 'BLOCK_GUILD', 00H	; `string'
CONST	ENDS
;	COMDAT ??_C@_0M@KFDBGBIL@BLOCK_PARTY@
CONST	SEGMENT
??_C@_0M@KFDBGBIL@BLOCK_PARTY@ DB 'BLOCK_PARTY', 00H	; `string'
CONST	ENDS
;	COMDAT ??_C@_0P@CDMGAFPE@BLOCK_EXCHANGE@
CONST	SEGMENT
??_C@_0P@CDMGAFPE@BLOCK_EXCHANGE@ DB 'BLOCK_EXCHANGE', 00H ; `string'
CONST	ENDS
;	COMDAT ??_C@_0BA@OLCDKGDA@PK_MODE_MAX_NUM@
CONST	SEGMENT
??_C@_0BA@OLCDKGDA@PK_MODE_MAX_NUM@ DB 'PK_MODE_MAX_NUM', 00H ; `string'
CONST	ENDS
;	COMDAT ??_C@_0O@LBDADKLE@PK_MODE_GUILD@
CONST	SEGMENT
??_C@_0O@LBDADKLE@PK_MODE_GUILD@ DB 'PK_MODE_GUILD', 00H ; `string'
CONST	ENDS
;	COMDAT ??_C@_0BA@GHACPGHA@PK_MODE_PROTECT@
CONST	SEGMENT
??_C@_0BA@GHACPGHA@PK_MODE_PROTECT@ DB 'PK_MODE_PROTECT', 00H ; `string'
CONST	ENDS
;	COMDAT ??_C@_0N@DCANEGJG@PK_MODE_FREE@
CONST	SEGMENT
??_C@_0N@DCANEGJG@PK_MODE_FREE@ DB 'PK_MODE_FREE', 00H	; `string'
CONST	ENDS
;	COMDAT ??_C@_0BA@HNNGLCOB@PK_MODE_REVENGE@
CONST	SEGMENT
??_C@_0BA@HNNGLCOB@PK_MODE_REVENGE@ DB 'PK_MODE_REVENGE', 00H ; `string'
CONST	ENDS
;	COMDAT ??_C@_0O@BIPAMBIG@PK_MODE_PEACE@
CONST	SEGMENT
??_C@_0O@BIPAMBIG@PK_MODE_PEACE@ DB 'PK_MODE_PEACE', 00H ; `string'
CONST	ENDS
;	COMDAT ??_C@_0BD@POBHIINM@SKILL_INDEX_SUMMON@
CONST	SEGMENT
??_C@_0BD@POBHIINM@SKILL_INDEX_SUMMON@ DB 'SKILL_INDEX_SUMMON', 00H ; `string'
CONST	ENDS
;	COMDAT ??_C@_0BD@HOAGGFNA@SKILL_INDEX_RIDING@
CONST	SEGMENT
??_C@_0BD@HOAGGFNA@SKILL_INDEX_RIDING@ DB 'SKILL_INDEX_RIDING', 00H ; `string'
CONST	ENDS
;	COMDAT ??_C@_0BG@DMEIDEKO@SKILL_INDEX_POLYMORPH@
CONST	SEGMENT
??_C@_0BG@DMEIDEKO@SKILL_INDEX_POLYMORPH@ DB 'SKILL_INDEX_POLYMORPH', 00H ; `string'
CONST	ENDS
;	COMDAT ??_C@_0BG@FNIIDGCI@SKILL_INDEX_LANGUAGE3@
CONST	SEGMENT
??_C@_0BG@FNIIDGCI@SKILL_INDEX_LANGUAGE3@ DB 'SKILL_INDEX_LANGUAGE3', 00H ; `string'
CONST	ENDS
;	COMDAT ??_C@_0BG@EEJDAHGJ@SKILL_INDEX_LANGUAGE2@
CONST	SEGMENT
??_C@_0BG@EEJDAHGJ@SKILL_INDEX_LANGUAGE2@ DB 'SKILL_INDEX_LANGUAGE2', 00H ; `string'
CONST	ENDS
;	COMDAT ??_C@_0BG@GPLOFEKK@SKILL_INDEX_LANGUAGE1@
CONST	SEGMENT
??_C@_0BG@GPLOFEKK@SKILL_INDEX_LANGUAGE1@ DB 'SKILL_INDEX_LANGUAGE1', 00H ; `string'
CONST	ENDS
;	COMDAT ??_C@_0BC@HACNAMIK@SKILL_INDEX_COMBO@
CONST	SEGMENT
??_C@_0BC@HACNAMIK@SKILL_INDEX_COMBO@ DB 'SKILL_INDEX_COMBO', 00H ; `string'
CONST	ENDS
;	COMDAT ??_C@_0BD@IBJDJMEL@SKILL_INDEX_MAKING@
CONST	SEGMENT
??_C@_0BD@IBJDJMEL@SKILL_INDEX_MAKING@ DB 'SKILL_INDEX_MAKING', 00H ; `string'
CONST	ENDS
;	COMDAT ??_C@_0BD@KFCAJBFG@SKILL_INDEX_MINING@
CONST	SEGMENT
??_C@_0BD@KFCAJBFG@SKILL_INDEX_MINING@ DB 'SKILL_INDEX_MINING', 00H ; `string'
CONST	ENDS
;	COMDAT ??_C@_0BE@HANBCKAH@SKILL_INDEX_FISHING@
CONST	SEGMENT
??_C@_0BE@HANBCKAH@SKILL_INDEX_FISHING@ DB 'SKILL_INDEX_FISHING', 00H ; `string'
CONST	ENDS
;	COMDAT ??_C@_0BE@MNBFKLPI@SKILL_INDEX_TONGSOL@
CONST	SEGMENT
??_C@_0BE@MNBFKLPI@SKILL_INDEX_TONGSOL@ DB 'SKILL_INDEX_TONGSOL', 00H ; `string'
CONST	ENDS
;	COMDAT ??_C@_0BE@KCLJFDCO@PARTY_STATE_MAX_NUM@
CONST	SEGMENT
??_C@_0BE@KCLJFDCO@PARTY_STATE_MAX_NUM@ DB 'PARTY_STATE_MAX_NUM', 00H ; `string'
CONST	ENDS
;	COMDAT ??_C@_0BF@PAKJEMH@PARTY_STATE_DEFENDER@
CONST	SEGMENT
??_C@_0BF@PAKJEMH@PARTY_STATE_DEFENDER@ DB 'PARTY_STATE_DEFENDER', 00H ; `string'
CONST	ENDS
;	COMDAT ??_C@_0BG@LCNEBE@PARTY_STATE_BERSERKER@
CONST	SEGMENT
??_C@_0BG@LCNEBE@PARTY_STATE_BERSERKER@ DB 'PARTY_STATE_BERSERKER', 00H ; `string'
CONST	ENDS
;	COMDAT ??_C@_0BJ@EIPCPJKC@PARTY_STATE_SKILL_MASTER@
CONST	SEGMENT
??_C@_0BJ@EIPCPJKC@PARTY_STATE_SKILL_MASTER@ DB 'PARTY_STATE_SKILL_MASTER'
	DB	00H						; `string'
CONST	ENDS
;	COMDAT ??_C@_0BD@JJFBJLK@PARTY_STATE_BUFFER@
CONST	SEGMENT
??_C@_0BD@JJFBJLK@PARTY_STATE_BUFFER@ DB 'PARTY_STATE_BUFFER', 00H ; `string'
CONST	ENDS
;	COMDAT ??_C@_0BD@FHMGGDNP@PARTY_STATE_TANKER@
CONST	SEGMENT
??_C@_0BD@FHMGGDNP@PARTY_STATE_TANKER@ DB 'PARTY_STATE_TANKER', 00H ; `string'
CONST	ENDS
;	COMDAT ??_C@_0BF@DOKPPLCL@PARTY_STATE_ATTACKER@
CONST	SEGMENT
??_C@_0BF@DOKPPLCL@PARTY_STATE_ATTACKER@ DB 'PARTY_STATE_ATTACKER', 00H ; `string'
CONST	ENDS
;	COMDAT ??_C@_0BD@ECFFHEOH@PARTY_STATE_LEADER@
CONST	SEGMENT
??_C@_0BD@ECFFHEOH@PARTY_STATE_LEADER@ DB 'PARTY_STATE_LEADER', 00H ; `string'
CONST	ENDS
;	COMDAT ??_C@_0BD@PNFBHDHD@PARTY_STATE_NORMAL@
CONST	SEGMENT
??_C@_0BD@PNFBHDHD@PARTY_STATE_NORMAL@ DB 'PARTY_STATE_NORMAL', 00H ; `string'
CONST	ENDS
;	COMDAT ??_C@_0BA@IACJJMNA@DETACH_METIN_OK@
CONST	SEGMENT
??_C@_0BA@IACJJMNA@DETACH_METIN_OK@ DB 'DETACH_METIN_OK', 00H ; `string'
CONST	ENDS
;	COMDAT ??_C@_0BC@HGBPKPKG@DETACH_METIN_CANT@
CONST	SEGMENT
??_C@_0BC@HGBPKPKG@DETACH_METIN_CANT@ DB 'DETACH_METIN_CANT', 00H ; `string'
CONST	ENDS
;	COMDAT ??_C@_0CG@BCIFDNEM@ATTACH_METIN_CANT_ATTACH_TO_EQU@
CONST	SEGMENT
??_C@_0CG@BCIFDNEM@ATTACH_METIN_CANT_ATTACH_TO_EQU@ DB 'ATTACH_METIN_CANT'
	DB	'_ATTACH_TO_EQUIPMENT', 00H			; `string'
CONST	ENDS
;	COMDAT ??_C@_0CD@JNOPKOFJ@ATTACH_METIN_NOT_EXIST_GOLD_SOC@
CONST	SEGMENT
??_C@_0CD@JNOPKOFJ@ATTACH_METIN_NOT_EXIST_GOLD_SOC@ DB 'ATTACH_METIN_NOT_'
	DB	'EXIST_GOLD_SOCKET', 00H			; `string'
CONST	ENDS
;	COMDAT ??_C@_0CB@MAILDNNI@ATTACH_METIN_NO_MATCHABLE_SOCKE@
CONST	SEGMENT
??_C@_0CB@MAILDNNI@ATTACH_METIN_NO_MATCHABLE_SOCKE@ DB 'ATTACH_METIN_NO_M'
	DB	'ATCHABLE_SOCKET', 00H			; `string'
CONST	ENDS
;	COMDAT ??_C@_0CA@OFAKGLFM@ATTACH_METIN_NOT_MATCHABLE_ITEM@
CONST	SEGMENT
??_C@_0CA@OFAKGLFM@ATTACH_METIN_NOT_MATCHABLE_ITEM@ DB 'ATTACH_METIN_NOT_'
	DB	'MATCHABLE_ITEM', 00H			; `string'
CONST	ENDS
;	COMDAT ??_C@_0BA@HOJAFGB@ATTACH_METIN_OK@
CONST	SEGMENT
??_C@_0BA@HOJAFGB@ATTACH_METIN_OK@ DB 'ATTACH_METIN_OK', 00H ; `string'
CONST	ENDS
;	COMDAT ??_C@_0BC@CBCJMHP@ATTACH_METIN_CANT@
CONST	SEGMENT
??_C@_0BC@CBCJMHP@ATTACH_METIN_CANT@ DB 'ATTACH_METIN_CANT', 00H ; `string'
CONST	ENDS
;	COMDAT ??_C@_0BH@OENPPLJB@REFINE_CANT_REFINE_ROD@
CONST	SEGMENT
??_C@_0BH@OENPPLJB@REFINE_CANT_REFINE_ROD@ DB 'REFINE_CANT_REFINE_ROD', 00H ; `string'
CONST	ENDS
;	COMDAT ??_C@_0CG@LFLLDFCE@REFINE_CANT_REFINE_METIN_TO_EQU@
CONST	SEGMENT
??_C@_0CG@LFLLDFCE@REFINE_CANT_REFINE_METIN_TO_EQU@ DB 'REFINE_CANT_REFIN'
	DB	'E_METIN_TO_EQUIPMENT', 00H			; `string'
CONST	ENDS
;	COMDAT ??_C@_0BL@EILCCEPE@REFINE_NOT_NEXT_GRADE_ITEM@
CONST	SEGMENT
??_C@_0BL@EILCCEPE@REFINE_NOT_NEXT_GRADE_ITEM@ DB 'REFINE_NOT_NEXT_GRADE_'
	DB	'ITEM', 00H					; `string'
CONST	ENDS
;	COMDAT ??_C@_0BN@JPDLJDPD@REFINE_CANT_MAKE_SOCKET_ITEM@
CONST	SEGMENT
??_C@_0BN@JPDLJDPD@REFINE_CANT_MAKE_SOCKET_ITEM@ DB 'REFINE_CANT_MAKE_SOC'
	DB	'KET_ITEM', 00H				; `string'
CONST	ENDS
;	COMDAT ??_C@_0BN@FMBLMMOD@REFINE_NEED_MORE_GOOD_SCROLL@
CONST	SEGMENT
??_C@_0BN@FMBLMMOD@REFINE_NEED_MORE_GOOD_SCROLL@ DB 'REFINE_NEED_MORE_GOO'
	DB	'D_SCROLL', 00H				; `string'
CONST	ENDS
;	COMDAT ??_C@_0CA@CPLGFHBD@REFINE_ALREADY_MAX_SOCKET_COUNT@
CONST	SEGMENT
??_C@_0CA@CPLGFHBD@REFINE_ALREADY_MAX_SOCKET_COUNT@ DB 'REFINE_ALREADY_MA'
	DB	'X_SOCKET_COUNT', 00H			; `string'
CONST	ENDS
;	COMDAT ??_C@_09FFJEIDJG@REFINE_OK@
CONST	SEGMENT
??_C@_09FFJEIDJG@REFINE_OK@ DB 'REFINE_OK', 00H		; `string'
CONST	ENDS
;	COMDAT ??_C@_0M@FNDEJPGN@REFINE_CANT@
CONST	SEGMENT
??_C@_0M@FNDEJPGN@REFINE_CANT@ DB 'REFINE_CANT', 00H	; `string'
CONST	ENDS
;	COMDAT ??_C@_0BH@BPEONNLD@ATTRIBUTE_SLOT_MAX_NUM@
CONST	SEGMENT
??_C@_0BH@BPEONNLD@ATTRIBUTE_SLOT_MAX_NUM@ DB 'ATTRIBUTE_SLOT_MAX_NUM', 00H ; `string'
CONST	ENDS
;	COMDAT ??_C@_0BF@HOKBLOCN@METIN_SOCKET_MAX_NUM@
CONST	SEGMENT
??_C@_0BF@HOKBLOCN@METIN_SOCKET_MAX_NUM@ DB 'METIN_SOCKET_MAX_NUM', 00H ; `string'
CONST	ENDS
;	COMDAT ??_C@_0BH@EFCNALEJ@METIN_SOCKET_TYPE_GOLD@
CONST	SEGMENT
??_C@_0BH@EFCNALEJ@METIN_SOCKET_TYPE_GOLD@ DB 'METIN_SOCKET_TYPE_GOLD', 00H ; `string'
CONST	ENDS
;	COMDAT ??_C@_0BJ@PHGNNMMA@METIN_SOCKET_TYPE_SILVER@
CONST	SEGMENT
??_C@_0BJ@PHGNNMMA@METIN_SOCKET_TYPE_SILVER@ DB 'METIN_SOCKET_TYPE_SILVER'
	DB	00H						; `string'
CONST	ENDS
;	COMDAT ??_C@_0BH@FCKCIMBH@METIN_SOCKET_TYPE_NONE@
CONST	SEGMENT
??_C@_0BH@FCKCIMBH@METIN_SOCKET_TYPE_NONE@ DB 'METIN_SOCKET_TYPE_NONE', 00H ; `string'
CONST	ENDS
;	COMDAT ??_C@_0M@CHLINENA@EFFECT_PICK@
CONST	SEGMENT
??_C@_0M@CHLINENA@EFFECT_PICK@ DB 'EFFECT_PICK', 00H	; `string'
CONST	ENDS
;	COMDAT ??_C@_0BB@IOEKBHAE@SKILL_SLOT_COUNT@
CONST	SEGMENT
??_C@_0BB@IOEKBHAE@SKILL_SLOT_COUNT@ DB 'SKILL_SLOT_COUNT', 00H ; `string'
CONST	ENDS
;	COMDAT ??_C@_0L@HFAEBHHD@ITEM_MONEY@
CONST	SEGMENT
??_C@_0L@HFAEBHHD@ITEM_MONEY@ DB 'ITEM_MONEY', 00H	; `string'
CONST	ENDS
;	COMDAT ??_C@_06GKBINIEJ@GROUND@
CONST	SEGMENT
??_C@_06GKBINIEJ@GROUND@ DB 'GROUND', 00H		; `string'
CONST	ENDS
;	COMDAT ??_C@_0BG@FHEDCCNN@DRAGON_SOUL_INVENTORY@
CONST	SEGMENT
??_C@_0BG@FHEDCCNN@DRAGON_SOUL_INVENTORY@ DB 'DRAGON_SOUL_INVENTORY', 00H ; `string'
CONST	ENDS
;	COMDAT ??_C@_04JPFKNPOP@MALL@
CONST	SEGMENT
??_C@_04JPFKNPOP@MALL@ DB 'MALL', 00H			; `string'
CONST	ENDS
;	COMDAT ??_C@_07NCKDBJCB@SAFEBOX@
CONST	SEGMENT
??_C@_07NCKDBJCB@SAFEBOX@ DB 'SAFEBOX', 00H		; `string'
CONST	ENDS
;	COMDAT ??_C@_09GJGOMHMK@EQUIPMENT@
CONST	SEGMENT
??_C@_09GJGOMHMK@EQUIPMENT@ DB 'EQUIPMENT', 00H		; `string'
CONST	ENDS
;	COMDAT ??_C@_09NCAHJFFG@INVENTORY@
CONST	SEGMENT
??_C@_09NCAHJFFG@INVENTORY@ DB 'INVENTORY', 00H		; `string'
CONST	ENDS
;	COMDAT ??_C@_0BA@NKAFFIGF@RESERVED_WINDOW@
CONST	SEGMENT
??_C@_0BA@NKAFFIGF@RESERVED_WINDOW@ DB 'RESERVED_WINDOW', 00H ; `string'
CONST	ENDS
;	COMDAT ??_C@_0CA@FHKIPOOP@SLOT_TYPE_DRAGON_SOUL_INVENTORY@
CONST	SEGMENT
??_C@_0CA@FHKIPOOP@SLOT_TYPE_DRAGON_SOUL_INVENTORY@ DB 'SLOT_TYPE_DRAGON_'
	DB	'SOUL_INVENTORY', 00H			; `string'
CONST	ENDS
;	COMDAT ??_C@_0BC@LKMHLHKJ@SLOT_TYPE_EMOTION@
CONST	SEGMENT
??_C@_0BC@LKMHLHKJ@SLOT_TYPE_EMOTION@ DB 'SLOT_TYPE_EMOTION', 00H ; `string'
CONST	ENDS
;	COMDAT ??_C@_0P@OEAGANKI@SLOT_TYPE_MALL@
CONST	SEGMENT
??_C@_0P@OEAGANKI@SLOT_TYPE_MALL@ DB 'SLOT_TYPE_MALL', 00H ; `string'
CONST	ENDS
;	COMDAT ??_C@_0BH@MJAEADNE@SLOT_TYPE_PRIVATE_SHOP@
CONST	SEGMENT
??_C@_0BH@MJAEADNE@SLOT_TYPE_PRIVATE_SHOP@ DB 'SLOT_TYPE_PRIVATE_SHOP', 00H ; `string'
CONST	ENDS
;	COMDAT ??_C@_0BC@HGKFDIFN@SLOT_TYPE_SAFEBOX@
CONST	SEGMENT
??_C@_0BC@HGKFDIFN@SLOT_TYPE_SAFEBOX@ DB 'SLOT_TYPE_SAFEBOX', 00H ; `string'
CONST	ENDS
;	COMDAT ??_C@_0BF@CPPFMLHN@SLOT_TYPE_QUICK_SLOT@
CONST	SEGMENT
??_C@_0BF@CPPFMLHN@SLOT_TYPE_QUICK_SLOT@ DB 'SLOT_TYPE_QUICK_SLOT', 00H ; `string'
CONST	ENDS
;	COMDAT ??_C@_0BK@KJHLAGBH@SLOT_TYPE_EXCHANGE_TARGET@
CONST	SEGMENT
??_C@_0BK@KJHLAGBH@SLOT_TYPE_EXCHANGE_TARGET@ DB 'SLOT_TYPE_EXCHANGE_TARG'
	DB	'ET', 00H					; `string'
CONST	ENDS
;	COMDAT ??_C@_0BJ@DBNHPJKE@SLOT_TYPE_EXCHANGE_OWNER@
CONST	SEGMENT
??_C@_0BJ@DBNHPJKE@SLOT_TYPE_EXCHANGE_OWNER@ DB 'SLOT_TYPE_EXCHANGE_OWNER'
	DB	00H						; `string'
CONST	ENDS
;	COMDAT ??_C@_0P@KCOPIIMF@SLOT_TYPE_SHOP@
CONST	SEGMENT
??_C@_0P@KCOPIIMF@SLOT_TYPE_SHOP@ DB 'SLOT_TYPE_SHOP', 00H ; `string'
CONST	ENDS
;	COMDAT ??_C@_0BA@MAJHKGKG@SLOT_TYPE_SKILL@
CONST	SEGMENT
??_C@_0BA@MAJHKGKG@SLOT_TYPE_SKILL@ DB 'SLOT_TYPE_SKILL', 00H ; `string'
CONST	ENDS
;	COMDAT ??_C@_0BE@BNOEBHPE@SLOT_TYPE_INVENTORY@
CONST	SEGMENT
??_C@_0BE@BNOEBHPE@SLOT_TYPE_INVENTORY@ DB 'SLOT_TYPE_INVENTORY', 00H ; `string'
CONST	ENDS
;	COMDAT ??_C@_0P@JBDPGPGM@SLOT_TYPE_NONE@
CONST	SEGMENT
??_C@_0P@JBDPGPGM@SLOT_TYPE_NONE@ DB 'SLOT_TYPE_NONE', 00H ; `string'
CONST	ENDS
;	COMDAT ??_C@_08OMNIMJHC@MBT_LEFT@
CONST	SEGMENT
??_C@_08OMNIMJHC@MBT_LEFT@ DB 'MBT_LEFT', 00H		; `string'
CONST	ENDS
;	COMDAT ??_C@_09DBJMODBC@MBT_RIGHT@
CONST	SEGMENT
??_C@_09DBJMODBC@MBT_RIGHT@ DB 'MBT_RIGHT', 00H		; `string'
CONST	ENDS
;	COMDAT ??_C@_09BKODCCAJ@MBS_CLICK@
CONST	SEGMENT
??_C@_09BKODCCAJ@MBS_CLICK@ DB 'MBS_CLICK', 00H		; `string'
CONST	ENDS
;	COMDAT ??_C@_09JEJKPPEO@MBS_PRESS@
CONST	SEGMENT
??_C@_09JEJKPPEO@MBS_PRESS@ DB 'MBS_PRESS', 00H		; `string'
CONST	ENDS
;	COMDAT ??_C@_08CIEGLDP@MBF_AUTO@
CONST	SEGMENT
??_C@_08CIEGLDP@MBF_AUTO@ DB 'MBF_AUTO', 00H		; `string'
CONST	ENDS
;	COMDAT ??_C@_08BLLANCB@MBF_MOVE@
CONST	SEGMENT
??_C@_08BLLANCB@MBF_MOVE@ DB 'MBF_MOVE', 00H		; `string'
CONST	ENDS
;	COMDAT ??_C@_09FAENJFL@MBF_SMART@
CONST	SEGMENT
??_C@_09FAENJFL@MBF_SMART@ DB 'MBF_SMART', 00H		; `string'
CONST	ENDS
;	COMDAT ??_C@_0L@JHBFAMB@MBF_CAMERA@
CONST	SEGMENT
??_C@_0L@JHBFAMB@MBF_CAMERA@ DB 'MBF_CAMERA', 00H	; `string'
CONST	ENDS
;	COMDAT ??_C@_0L@MIGMJBKJ@MBF_ATTACK@
CONST	SEGMENT
??_C@_0L@MIGMJBKJ@MBF_ATTACK@ DB 'MBF_ATTACK', 00H	; `string'
CONST	ENDS
;	COMDAT ??_C@_09NLFDBCDH@MBF_SKILL@
CONST	SEGMENT
??_C@_09NLFDBCDH@MBF_SKILL@ DB 'MBF_SKILL', 00H		; `string'
CONST	ENDS
;	COMDAT ??_C@_0BJ@PAALBJCN@NEW_EQUIPMENT_SLOT_COUNT@
CONST	SEGMENT
??_C@_0BJ@PAALBJCN@NEW_EQUIPMENT_SLOT_COUNT@ DB 'NEW_EQUIPMENT_SLOT_COUNT'
	DB	00H						; `string'
CONST	ENDS
;	COMDAT ??_C@_0BJ@COKKCHPJ@NEW_EQUIPMENT_SLOT_START@
CONST	SEGMENT
??_C@_0BJ@COKKCHPJ@NEW_EQUIPMENT_SLOT_START@ DB 'NEW_EQUIPMENT_SLOT_START'
	DB	00H						; `string'
CONST	ENDS
;	COMDAT ??_C@_0BF@MADFLPAE@EQUIPMENT_PAGE_COUNT@
CONST	SEGMENT
??_C@_0BF@MADFLPAE@EQUIPMENT_PAGE_COUNT@ DB 'EQUIPMENT_PAGE_COUNT', 00H ; `string'
CONST	ENDS
;	COMDAT ??_C@_0BF@HJEBPPMM@EQUIPMENT_SLOT_START@
CONST	SEGMENT
??_C@_0BF@HJEBPPMM@EQUIPMENT_SLOT_START@ DB 'EQUIPMENT_SLOT_START', 00H ; `string'
CONST	ENDS
;	COMDAT ??_C@_0BF@LCFAAJPA@INVENTORY_SLOT_COUNT@
CONST	SEGMENT
??_C@_0BF@LCFAAJPA@INVENTORY_SLOT_COUNT@ DB 'INVENTORY_SLOT_COUNT', 00H ; `string'
CONST	ENDS
;	COMDAT ??_C@_0BF@NFIFHHOM@INVENTORY_PAGE_COUNT@
CONST	SEGMENT
??_C@_0BF@NFIFHHOM@INVENTORY_PAGE_COUNT@ DB 'INVENTORY_PAGE_COUNT', 00H ; `string'
CONST	ENDS
;	COMDAT ??_C@_0BE@CEBDMLGH@INVENTORY_PAGE_SIZE@
CONST	SEGMENT
??_C@_0BE@CEBDMLGH@INVENTORY_PAGE_SIZE@ DB 'INVENTORY_PAGE_SIZE', 00H ; `string'
CONST	ENDS
;	COMDAT ??_C@_0BB@HCMEALJK@CATEGORY_PASSIVE@
CONST	SEGMENT
??_C@_0BB@HCMEALJK@CATEGORY_PASSIVE@ DB 'CATEGORY_PASSIVE', 00H ; `string'
CONST	ENDS
;	COMDAT ??_C@_0BA@LCKKFCJM@CATEGORY_ACTIVE@
CONST	SEGMENT
??_C@_0BA@LCKKFCJM@CATEGORY_ACTIVE@ DB 'CATEGORY_ACTIVE', 00H ; `string'
CONST	ENDS
;	COMDAT ??_C@_0BL@DCIPLDCA@SKILL_GRADE_PERFECT_MASTER@
CONST	SEGMENT
??_C@_0BL@DCIPLDCA@SKILL_GRADE_PERFECT_MASTER@ DB 'SKILL_GRADE_PERFECT_MA'
	DB	'STER', 00H					; `string'
CONST	ENDS
;	COMDAT ??_C@_0BJ@CFOEIGCN@SKILL_GRADE_GRAND_MASTER@
CONST	SEGMENT
??_C@_0BJ@CFOEIGCN@SKILL_GRADE_GRAND_MASTER@ DB 'SKILL_GRADE_GRAND_MASTER'
	DB	00H						; `string'
CONST	ENDS
;	COMDAT ??_C@_0BD@HIHOAICI@SKILL_GRADE_MASTER@
CONST	SEGMENT
??_C@_0BD@HIHOAICI@SKILL_GRADE_MASTER@ DB 'SKILL_GRADE_MASTER', 00H ; `string'
CONST	ENDS
;	COMDAT ??_C@_0BD@LAKFNFGD@SKILL_GRADE_NORMAL@
CONST	SEGMENT
??_C@_0BD@LAKFNFGD@SKILL_GRADE_NORMAL@ DB 'SKILL_GRADE_NORMAL', 00H ; `string'
CONST	ENDS
;	COMDAT ??_C@_0BA@PIHNCBED@ENERGY_END_TIME@
CONST	SEGMENT
??_C@_0BA@PIHNCBED@ENERGY_END_TIME@ DB 'ENERGY_END_TIME', 00H ; `string'
CONST	ENDS
;	COMDAT ??_C@_06KOEJHMAL@ENERGY@
CONST	SEGMENT
??_C@_06KOEJHMAL@ENERGY@ DB 'ENERGY', 00H		; `string'
CONST	ENDS
;	COMDAT ??_C@_0BJ@LFKCHGEO@POINT_PC_BANG_DROP_BONUS@
CONST	SEGMENT
??_C@_0BJ@LFKCHGEO@POINT_PC_BANG_DROP_BONUS@ DB 'POINT_PC_BANG_DROP_BONUS'
	DB	00H						; `string'
CONST	ENDS
;	COMDAT ??_C@_0BI@BAKJJELL@POINT_PC_BANG_EXP_BONUS@
CONST	SEGMENT
??_C@_0BI@BAKJJELL@POINT_PC_BANG_EXP_BONUS@ DB 'POINT_PC_BANG_EXP_BONUS', 00H ; `string'
CONST	ENDS
;	COMDAT ??_C@_0BO@CEPNAEGB@POINT_NORMAL_HIT_DEFEND_BONUS@
CONST	SEGMENT
??_C@_0BO@CEPNAEGB@POINT_NORMAL_HIT_DEFEND_BONUS@ DB 'POINT_NORMAL_HIT_DE'
	DB	'FEND_BONUS', 00H				; `string'
CONST	ENDS
;	COMDAT ??_C@_0BJ@LPIAEILC@POINT_SKILL_DEFEND_BONUS@
CONST	SEGMENT
??_C@_0BJ@LPIAEILC@POINT_SKILL_DEFEND_BONUS@ DB 'POINT_SKILL_DEFEND_BONUS'
	DB	00H						; `string'
CONST	ENDS
;	COMDAT ??_C@_0BO@GNDIKOOF@POINT_NORMAL_HIT_DAMAGE_BONUS@
CONST	SEGMENT
??_C@_0BO@GNDIKOOF@POINT_NORMAL_HIT_DAMAGE_BONUS@ DB 'POINT_NORMAL_HIT_DA'
	DB	'MAGE_BONUS', 00H				; `string'
CONST	ENDS
;	COMDAT ??_C@_0BJ@PGEFOCDG@POINT_SKILL_DAMAGE_BONUS@
CONST	SEGMENT
??_C@_0BJ@PGEFOCDG@POINT_SKILL_DAMAGE_BONUS@ DB 'POINT_SKILL_DAMAGE_BONUS'
	DB	00H						; `string'
CONST	ENDS
;	COMDAT ??_C@_0BB@IHDKAICM@POINT_MAX_SP_PCT@
CONST	SEGMENT
??_C@_0BB@IHDKAICM@POINT_MAX_SP_PCT@ DB 'POINT_MAX_SP_PCT', 00H ; `string'
CONST	ENDS
;	COMDAT ??_C@_0BB@OCODMABI@POINT_MAX_HP_PCT@
CONST	SEGMENT
??_C@_0BB@OCODMABI@POINT_MAX_HP_PCT@ DB 'POINT_MAX_HP_PCT', 00H ; `string'
CONST	ENDS
;	COMDAT ??_C@_0BF@LPKHMJJF@POINT_MALL_GOLDBONUS@
CONST	SEGMENT
??_C@_0BF@LPKHMJJF@POINT_MALL_GOLDBONUS@ DB 'POINT_MALL_GOLDBONUS', 00H ; `string'
CONST	ENDS
;	COMDAT ??_C@_0BF@FCMHLHC@POINT_MALL_ITEMBONUS@
CONST	SEGMENT
??_C@_0BF@FCMHLHC@POINT_MALL_ITEMBONUS@ DB 'POINT_MALL_ITEMBONUS', 00H ; `string'
CONST	ENDS
;	COMDAT ??_C@_0BE@KNGAMOKN@POINT_MALL_EXPBONUS@
CONST	SEGMENT
??_C@_0BE@KNGAMOKN@POINT_MALL_EXPBONUS@ DB 'POINT_MALL_EXPBONUS', 00H ; `string'
CONST	ENDS
;	COMDAT ??_C@_0BE@FJKLFHOA@POINT_MALL_DEFBONUS@
CONST	SEGMENT
??_C@_0BE@FJKLFHOA@POINT_MALL_DEFBONUS@ DB 'POINT_MALL_DEFBONUS', 00H ; `string'
CONST	ENDS
;	COMDAT ??_C@_0BE@FDGMKOPN@POINT_MALL_ATTBONUS@
CONST	SEGMENT
??_C@_0BE@FDGMKOPN@POINT_MALL_ATTBONUS@ DB 'POINT_MALL_ATTBONUS', 00H ; `string'
CONST	ENDS
;	COMDAT ??_C@_0BE@BGNEFMNJ@POINT_PENETRATE_PCT@
CONST	SEGMENT
??_C@_0BE@BGNEFMNJ@POINT_PENETRATE_PCT@ DB 'POINT_PENETRATE_PCT', 00H ; `string'
CONST	ENDS
;	COMDAT ??_C@_0BD@CPEECKKP@POINT_CRITICAL_PCT@
CONST	SEGMENT
??_C@_0BD@CPEECKKP@POINT_CRITICAL_PCT@ DB 'POINT_CRITICAL_PCT', 00H ; `string'
CONST	ENDS
;	COMDAT ??_C@_07MEMMKJPK@MAX_NUM@
CONST	SEGMENT
??_C@_07MEMMKJPK@MAX_NUM@ DB 'MAX_NUM', 00H		; `string'
CONST	ENDS
;	COMDAT ??_C@_0P@GAAMLPFK@ATTACKER_BONUS@
CONST	SEGMENT
??_C@_0P@GAAMLPFK@ATTACKER_BONUS@ DB 'ATTACKER_BONUS', 00H ; `string'
CONST	ENDS
;	COMDAT ??_C@_0M@FGICENAO@SP_RECOVERY@
CONST	SEGMENT
??_C@_0M@FGICENAO@SP_RECOVERY@ DB 'SP_RECOVERY', 00H	; `string'
CONST	ENDS
;	COMDAT ??_C@_0M@CLAIAEPM@HP_RECOVERY@
CONST	SEGMENT
??_C@_0M@CLAIAEPM@HP_RECOVERY@ DB 'HP_RECOVERY', 00H	; `string'
CONST	ENDS
;	COMDAT ??_C@_0N@KHDDEEFG@BOW_DISTANCE@
CONST	SEGMENT
??_C@_0N@KHDDEEFG@BOW_DISTANCE@ DB 'BOW_DISTANCE', 00H	; `string'
CONST	ENDS
;	COMDAT ??_C@_08CKIIBBI@PLAYTIME@
CONST	SEGMENT
??_C@_08CKIIBBI@PLAYTIME@ DB 'PLAYTIME', 00H		; `string'
CONST	ENDS
;	COMDAT ??_C@_0M@HAFIBGFL@SKILL_HORSE@
CONST	SEGMENT
??_C@_0M@HAFIBGFL@SKILL_HORSE@ DB 'SKILL_HORSE', 00H	; `string'
CONST	ENDS
;	COMDAT ??_C@_0N@DNBJLBPA@SKILL_ACTIVE@
CONST	SEGMENT
??_C@_0N@DNBJLBPA@SKILL_ACTIVE@ DB 'SKILL_ACTIVE', 00H	; `string'
CONST	ENDS
;	COMDAT ??_C@_0O@JLNOPGFK@SKILL_SUPPORT@
CONST	SEGMENT
??_C@_0O@JLNOPGFK@SKILL_SUPPORT@ DB 'SKILL_SUPPORT', 00H ; `string'
CONST	ENDS
;	COMDAT ??_C@_0O@DGEPJFAK@SKILL_PASSIVE@
CONST	SEGMENT
??_C@_0O@DGEPJFAK@SKILL_PASSIVE@ DB 'SKILL_PASSIVE', 00H ; `string'
CONST	ENDS
;	COMDAT ??_C@_04KNIOFKKL@STAT@
CONST	SEGMENT
??_C@_04KNIOFKKL@STAT@ DB 'STAT', 00H			; `string'
CONST	ENDS
;	COMDAT ??_C@_0N@JIFCAIPA@EMPIRE_POINT@
CONST	SEGMENT
??_C@_0N@JIFCAIPA@EMPIRE_POINT@ DB 'EMPIRE_POINT', 00H	; `string'
CONST	ENDS
;	COMDAT ??_C@_07KGCDIDGL@MAG_DEF@
CONST	SEGMENT
??_C@_07KGCDIDGL@MAG_DEF@ DB 'MAG_DEF', 00H		; `string'
CONST	ENDS
;	COMDAT ??_C@_07PEONMKMN@MAG_ATT@
CONST	SEGMENT
??_C@_07PEONMKMN@MAG_ATT@ DB 'MAG_ATT', 00H		; `string'
CONST	ENDS
;	COMDAT ??_C@_0O@IOLIEEIE@CASTING_SPEED@
CONST	SEGMENT
??_C@_0O@IOLIEEIE@CASTING_SPEED@ DB 'CASTING_SPEED', 00H ; `string'
CONST	ENDS
;	COMDAT ??_C@_09DNFHINBC@DEF_BONUS@
CONST	SEGMENT
??_C@_09DNFHINBC@DEF_BONUS@ DB 'DEF_BONUS', 00H		; `string'
CONST	ENDS
;	COMDAT ??_C@_09KMPFCDFE@DEF_GRADE@
CONST	SEGMENT
??_C@_09KMPFCDFE@DEF_GRADE@ DB 'DEF_GRADE', 00H		; `string'
CONST	ENDS
;	COMDAT ??_C@_0N@KGGLAJKM@MOVING_SPEED@
CONST	SEGMENT
??_C@_0N@KGGLAJKM@MOVING_SPEED@ DB 'MOVING_SPEED', 00H	; `string'
CONST	ENDS
;	COMDAT ??_C@_0L@IPHIKIMB@EVADE_RATE@
CONST	SEGMENT
??_C@_0L@IPHIKIMB@EVADE_RATE@ DB 'EVADE_RATE', 00H	; `string'
CONST	ENDS
;	COMDAT ??_C@_09FOFLCGDC@ATT_BONUS@
CONST	SEGMENT
??_C@_09FOFLCGDC@ATT_BONUS@ DB 'ATT_BONUS', 00H		; `string'
CONST	ENDS
;	COMDAT ??_C@_09LKMFFHLI@ATT_SPEED@
CONST	SEGMENT
??_C@_09LKMFFHLI@ATT_SPEED@ DB 'ATT_SPEED', 00H		; `string'
CONST	ENDS
;	COMDAT ??_C@_0O@JAPECJBK@MAX_MAGIC_WEP@
CONST	SEGMENT
??_C@_0O@JAPECJBK@MAX_MAGIC_WEP@ DB 'MAX_MAGIC_WEP', 00H ; `string'
CONST	ENDS
;	COMDAT ??_C@_0O@CJNCLCGL@MIN_MAGIC_WEP@
CONST	SEGMENT
??_C@_0O@CJNCLCGL@MIN_MAGIC_WEP@ DB 'MIN_MAGIC_WEP', 00H ; `string'
CONST	ENDS
;	COMDAT ??_C@_07OPGIINPB@ATT_MAX@
CONST	SEGMENT
??_C@_07OPGIINPB@ATT_MAX@ DB 'ATT_MAX', 00H		; `string'
CONST	ENDS
;	COMDAT ??_C@_07PNODGJJO@ATT_MIN@
CONST	SEGMENT
??_C@_07PNODGJJO@ATT_MIN@ DB 'ATT_MIN', 00H		; `string'
CONST	ENDS
;	COMDAT ??_C@_09DIGJAPIG@ATT_POWER@
CONST	SEGMENT
??_C@_09DIGJAPIG@ATT_POWER@ DB 'ATT_POWER', 00H		; `string'
CONST	ENDS
;	COMDAT ??_C@_02NMFFPMLH@IQ@
CONST	SEGMENT
??_C@_02NMFFPMLH@IQ@ DB 'IQ', 00H			; `string'
CONST	ENDS
;	COMDAT ??_C@_02FEPNEKN@DX@
CONST	SEGMENT
??_C@_02FEPNEKN@DX@ DB 'DX', 00H			; `string'
CONST	ENDS
;	COMDAT ??_C@_02KAOAGCMF@HT@
CONST	SEGMENT
??_C@_02KAOAGCMF@HT@ DB 'HT', 00H			; `string'
CONST	ENDS
;	COMDAT ??_C@_02LAJDCOFE@ST@
CONST	SEGMENT
??_C@_02LAJDCOFE@ST@ DB 'ST', 00H			; `string'
CONST	ENDS
;	COMDAT ??_C@_03BIHMGKIG@ELK@
CONST	SEGMENT
??_C@_03BIHMGKIG@ELK@ DB 'ELK', 00H			; `string'
CONST	ENDS
;	COMDAT ??_C@_0M@CHCGLEDD@MAX_STAMINA@
CONST	SEGMENT
??_C@_0M@CHCGLEDD@MAX_STAMINA@ DB 'MAX_STAMINA', 00H	; `string'
CONST	ENDS
;	COMDAT ??_C@_07IHPDJFBP@STAMINA@
CONST	SEGMENT
??_C@_07IHPDJFBP@STAMINA@ DB 'STAMINA', 00H		; `string'
CONST	ENDS
;	COMDAT ??_C@_06MMAHLLLC@MAX_SP@
CONST	SEGMENT
??_C@_06MMAHLLLC@MAX_SP@ DB 'MAX_SP', 00H		; `string'
CONST	ENDS
;	COMDAT ??_C@_02NEPPOLFA@SP@
CONST	SEGMENT
??_C@_02NEPPOLFA@SP@ DB 'SP', 00H			; `string'
CONST	ENDS
;	COMDAT ??_C@_06NMHEPHCD@MAX_HP@
CONST	SEGMENT
??_C@_06NMHEPHCD@MAX_HP@ DB 'MAX_HP', 00H		; `string'
CONST	ENDS
;	COMDAT ??_C@_02MEIMKHMB@HP@
CONST	SEGMENT
??_C@_02MEIMKHMB@HP@ DB 'HP', 00H			; `string'
CONST	ENDS
;	COMDAT ??_C@_08CHGDMADF@NEXT_EXP@
CONST	SEGMENT
??_C@_08CHGDMADF@NEXT_EXP@ DB 'NEXT_EXP', 00H		; `string'
CONST	ENDS
;	COMDAT ??_C@_03KKGFKKLA@EXP@
CONST	SEGMENT
??_C@_03KKGFKKLA@EXP@ DB 'EXP', 00H			; `string'
CONST	ENDS
;	COMDAT ??_C@_05FHIHOFEA@VOICE@
CONST	SEGMENT
??_C@_05FHIHOFEA@VOICE@ DB 'VOICE', 00H			; `string'
CONST	ENDS
;	COMDAT ??_C@_05GCEPFMCO@LEVEL@
CONST	SEGMENT
??_C@_05GCEPFMCO@LEVEL@ DB 'LEVEL', 00H			; `string'
CONST	ENDS
;	COMDAT ??_C@_06BALNJMNP@player@
CONST	SEGMENT
??_C@_06BALNJMNP@player@ DB 'player', 00H		; `string'
CONST	ENDS
;	COMDAT ??_C@_0BF@PLGNHJMH@SendDragonSoulRefine@
CONST	SEGMENT
??_C@_0BF@PLGNHJMH@SendDragonSoulRefine@ DB 'SendDragonSoulRefine', 00H ; `string'
CONST	ENDS
;	COMDAT ??_C@_0BE@IOMKCPHN@SlotTypeToInvenType@
CONST	SEGMENT
??_C@_0BE@IOMKCPHN@SlotTypeToInvenType@ DB 'SlotTypeToInvenType', 00H ; `string'
CONST	ENDS
;	COMDAT ??_C@_0M@DGFCHEAA@GetItemLink@
CONST	SEGMENT
??_C@_0M@DGFCHEAA@GetItemLink@ DB 'GetItemLink', 00H	; `string'
CONST	ENDS
;	COMDAT ??_C@_0N@MABOHHMK@SetItemCount@
CONST	SEGMENT
??_C@_0N@MABOHHMK@SetItemCount@ DB 'SetItemCount', 00H	; `string'
CONST	ENDS
;	COMDAT ??_C@_0BB@KPGENMF@SetItemAttribute@
CONST	SEGMENT
??_C@_0BB@KPGENMF@SetItemAttribute@ DB 'SetItemAttribute', 00H ; `string'
CONST	ENDS
;	COMDAT ??_C@_0BD@GLMLJBGM@SetItemMetinSocket@
CONST	SEGMENT
??_C@_0BD@GLMLJBGM@SetItemMetinSocket@ DB 'SetItemMetinSocket', 00H ; `string'
CONST	ENDS
;	COMDAT ??_C@_0M@CHNGAPIB@SetItemData@
CONST	SEGMENT
??_C@_0M@CHNGAPIB@SetItemData@ DB 'SetItemData', 00H	; `string'
CONST	ENDS
;	COMDAT ??_C@_0N@MEKPPHGC@GetTargetVID@
CONST	SEGMENT
??_C@_0N@MEKPPHGC@GetTargetVID@ DB 'GetTargetVID', 00H	; `string'
CONST	ENDS
;	COMDAT ??_C@_0BB@DJKKOCLB@ToggleLevelLimit@
CONST	SEGMENT
??_C@_0BB@DJKKOCLB@ToggleLevelLimit@ DB 'ToggleLevelLimit', 00H ; `string'
CONST	ENDS
;	COMDAT ??_C@_0P@ILOOLMDH@ToggleCoolTime@
CONST	SEGMENT
??_C@_0P@ILOOLMDH@ToggleCoolTime@ DB 'ToggleCoolTime', 00H ; `string'
CONST	ENDS
;	COMDAT ??_C@_0BJ@CFCMHNHB@SetWeaponAttackBonusFlag@
CONST	SEGMENT
??_C@_0BJ@CFCMHNHB@SetWeaponAttackBonusFlag@ DB 'SetWeaponAttackBonusFlag'
	DB	00H						; `string'
CONST	ENDS
;	COMDAT ??_C@_0BE@FELKHKJF@GetEmotionIconImage@
CONST	SEGMENT
??_C@_0BE@FELKHKJF@GetEmotionIconImage@ DB 'GetEmotionIconImage', 00H ; `string'
CONST	ENDS
;	COMDAT ??_C@_0BE@PMDABIKP@RegisterEmotionIcon@
CONST	SEGMENT
??_C@_0BE@PMDABIKP@RegisterEmotionIcon@ DB 'RegisterEmotionIcon', 00H ; `string'
CONST	ENDS
;	COMDAT ??_C@_0BF@CLGCEOLO@HasMobilePhoneNumber@
CONST	SEGMENT
??_C@_0BF@CLGCEOLO@HasMobilePhoneNumber@ DB 'HasMobilePhoneNumber', 00H ; `string'
CONST	ENDS
;	COMDAT ??_C@_09IMMFEEHK@GetPKMode@
CONST	SEGMENT
??_C@_09IMMFEEHK@GetPKMode@ DB 'GetPKMode', 00H		; `string'
CONST	ENDS
;	COMDAT ??_C@_09DMPBEJCG@ExitParty@
CONST	SEGMENT
??_C@_09DMPBEJCG@ExitParty@ DB 'ExitParty', 00H		; `string'
CONST	ENDS
;	COMDAT ??_C@_0BC@DGCJFOHN@RemovePartyMember@
CONST	SEGMENT
??_C@_0BC@DGCJFOHN@RemovePartyMember@ DB 'RemovePartyMember', 00H ; `string'
CONST	ENDS
;	COMDAT ??_C@_0BG@EEFAFMJC@GetPartyMemberAffects@
CONST	SEGMENT
??_C@_0BG@EEFAFMJC@GetPartyMemberAffects@ DB 'GetPartyMemberAffects', 00H ; `string'
CONST	ENDS
;	COMDAT ??_C@_0BE@HKIJMBKK@GetPartyMemberState@
CONST	SEGMENT
??_C@_0BE@HKIJMBKK@GetPartyMemberState@ DB 'GetPartyMemberState', 00H ; `string'
CONST	ENDS
;	COMDAT ??_C@_0BL@EPAFEFHI@GetPartyMemberHPPercentage@
CONST	SEGMENT
??_C@_0BL@EPAFEFHI@GetPartyMemberHPPercentage@ DB 'GetPartyMemberHPPercen'
	DB	'tage', 00H					; `string'
CONST	ENDS
;	COMDAT ??_C@_0BD@HGKJMFNK@IsPartyLeaderByPID@
CONST	SEGMENT
??_C@_0BD@HGKJMFNK@IsPartyLeaderByPID@ DB 'IsPartyLeaderByPID', 00H ; `string'
CONST	ENDS
;	COMDAT ??_C@_0O@BPMJGNAC@IsPartyLeader@
CONST	SEGMENT
??_C@_0O@BPMJGNAC@IsPartyLeader@ DB 'IsPartyLeader', 00H ; `string'
CONST	ENDS
;	COMDAT ??_C@_0O@FJCFNEGL@IsPartyMember@
CONST	SEGMENT
??_C@_0O@FJCFNEGL@IsPartyMember@ DB 'IsPartyMember', 00H ; `string'
CONST	ENDS
;	COMDAT ??_C@_05MDNHABIA@Clear@
CONST	SEGMENT
??_C@_05MDNHABIA@Clear@ DB 'Clear', 00H			; `string'
CONST	ENDS
;	COMDAT ??_C@_06EPLDPNDB@Render@
CONST	SEGMENT
??_C@_06EPLDPNDB@Render@ DB 'Render', 00H		; `string'
CONST	ENDS
;	COMDAT ??_C@_06LMAGPFNF@Update@
CONST	SEGMENT
??_C@_06LMAGPFNF@Update@ DB 'Update', 00H		; `string'
CONST	ENDS
;	COMDAT ??_C@_0BC@HAEJEFBP@OpenCharacterMenu@
CONST	SEGMENT
??_C@_0BC@HAEJEFBP@OpenCharacterMenu@ DB 'OpenCharacterMenu', 00H ; `string'
CONST	ENDS
;	COMDAT ??_C@_09EECGCJDE@SetTarget@
CONST	SEGMENT
??_C@_09EECGCJDE@SetTarget@ DB 'SetTarget', 00H		; `string'
CONST	ENDS
;	COMDAT ??_C@_0M@DPCEEMCG@ClearTarget@
CONST	SEGMENT
??_C@_0M@DPCEEMCG@ClearTarget@ DB 'ClearTarget', 00H	; `string'
CONST	ENDS
;	COMDAT ??_C@_0BE@ELNKJPMC@IsRefineGradeScroll@
CONST	SEGMENT
??_C@_0BE@ELNKJPMC@IsRefineGradeScroll@ DB 'IsRefineGradeScroll', 00H ; `string'
CONST	ENDS
;	COMDAT ??_C@_0P@BLOGPKFO@CanAttachMetin@
CONST	SEGMENT
??_C@_0P@BLOGPKFO@CanAttachMetin@ DB 'CanAttachMetin', 00H ; `string'
CONST	ENDS
;	COMDAT ??_C@_09FHINBOHC@CanUnlock@
CONST	SEGMENT
??_C@_09FHINBOHC@CanUnlock@ DB 'CanUnlock', 00H		; `string'
CONST	ENDS
;	COMDAT ??_C@_09GHIBIBHI@CanDetach@
CONST	SEGMENT
??_C@_09GHIBIBHI@CanDetach@ DB 'CanDetach', 00H		; `string'
CONST	ENDS
;	COMDAT ??_C@_09BGNCJJP@CanRefine@
CONST	SEGMENT
??_C@_09BGNCJJP@CanRefine@ DB 'CanRefine', 00H		; `string'
CONST	ENDS
;	COMDAT ??_C@_0N@DGHEMMKN@GetItemGrade@
CONST	SEGMENT
??_C@_0N@DGHEMMKN@GetItemGrade@ DB 'GetItemGrade', 00H	; `string'
CONST	ENDS
;	COMDAT ??_C@_0BN@DKGNHJIB@IsAvailableBeltInventoryCell@
CONST	SEGMENT
??_C@_0BN@DKGNHJIB@IsAvailableBeltInventoryCell@ DB 'IsAvailableBeltInven'
	DB	'toryCell', 00H				; `string'
CONST	ENDS
;	COMDAT ??_C@_0BA@OBALOJLG@IsEquippingBelt@
CONST	SEGMENT
??_C@_0BA@OBALOJLG@IsEquippingBelt@ DB 'IsEquippingBelt', 00H ; `string'
CONST	ENDS
;	COMDAT ??_C@_0BE@HECMLJG@IsBeltInventorySlot@
CONST	SEGMENT
??_C@_0BE@HECMLJG@IsBeltInventorySlot@ DB 'IsBeltInventorySlot', 00H ; `string'
CONST	ENDS
;	COMDAT ??_C@_0BC@DCFDMADN@IsOpenPrivateShop@
CONST	SEGMENT
??_C@_0BC@DCFDMADN@IsOpenPrivateShop@ DB 'IsOpenPrivateShop', 00H ; `string'
CONST	ENDS
;	COMDAT ??_C@_0P@LAJFBPPH@IsValuableItem@
CONST	SEGMENT
??_C@_0P@LAJFBPPH@IsValuableItem@ DB 'IsValuableItem', 00H ; `string'
CONST	ENDS
;	COMDAT ??_C@_0O@KCAGNEAI@IsCostumeSlot@
CONST	SEGMENT
??_C@_0O@KCAGNEAI@IsCostumeSlot@ DB 'IsCostumeSlot', 00H ; `string'
CONST	ENDS
;	COMDAT ??_C@_0BC@DDCIGDKO@IsDSEquipmentSlot@
CONST	SEGMENT
??_C@_0BC@DDCIGDKO@IsDSEquipmentSlot@ DB 'IsDSEquipmentSlot', 00H ; `string'
CONST	ENDS
;	COMDAT ??_C@_0BA@EMKHGGAL@IsEquipmentSlot@
CONST	SEGMENT
??_C@_0BA@EMKHGGAL@IsEquipmentSlot@ DB 'IsEquipmentSlot', 00H ; `string'
CONST	ENDS
;	COMDAT ??_C@_06NOPKEHAK@isItem@
CONST	SEGMENT
??_C@_06NOPKEHAK@isItem@ DB 'isItem', 00H		; `string'
CONST	ENDS
;	COMDAT ??_C@_0BH@JNCIKJMC@RemoveQuickSlotByValue@
CONST	SEGMENT
??_C@_0BH@JNCIKJMC@RemoveQuickSlotByValue@ DB 'RemoveQuickSlotByValue', 00H ; `string'
CONST	ENDS
;	COMDAT ??_C@_0BD@ECGPDHPA@GetGlobalQuickSlot@
CONST	SEGMENT
??_C@_0BD@ECGPDHPA@GetGlobalQuickSlot@ DB 'GetGlobalQuickSlot', 00H ; `string'
CONST	ENDS
;	COMDAT ??_C@_0BC@LNKMMBDG@GetLocalQuickSlot@
CONST	SEGMENT
??_C@_0BC@LNKMMBDG@GetLocalQuickSlot@ DB 'GetLocalQuickSlot', 00H ; `string'
CONST	ENDS
;	COMDAT ??_C@_0N@KPHBLMNM@SetQuickPage@
CONST	SEGMENT
??_C@_0N@KPHBLMNM@SetQuickPage@ DB 'SetQuickPage', 00H	; `string'
CONST	ENDS
;	COMDAT ??_C@_0N@NLMPHAJA@GetQuickPage@
CONST	SEGMENT
??_C@_0N@NLMPHAJA@GetQuickPage@ DB 'GetQuickPage', 00H	; `string'
CONST	ENDS
;	COMDAT ??_C@_0CK@GNGKFIDB@LocalQuickSlotIndexToGlobalQuic@
CONST	SEGMENT
??_C@_0CK@GNGKFIDB@LocalQuickSlotIndexToGlobalQuic@ DB 'LocalQuickSlotInd'
	DB	'exToGlobalQuickSlotIndex', 00H		; `string'
CONST	ENDS
;	COMDAT ??_C@_0BJ@IBBGPDPH@RequestUseLocalQuickSlot@
CONST	SEGMENT
??_C@_0BJ@IBBGPDPH@RequestUseLocalQuickSlot@ DB 'RequestUseLocalQuickSlot'
	DB	00H						; `string'
CONST	ENDS
;	COMDAT ??_C@_0CL@IEMBKGLN@RequestMoveGlobalQuickSlotToLoc@
CONST	SEGMENT
??_C@_0CL@IEMBKGLN@RequestMoveGlobalQuickSlotToLoc@ DB 'RequestMoveGlobal'
	DB	'QuickSlotToLocalQuickSlot', 00H		; `string'
CONST	ENDS
;	COMDAT ??_C@_0BN@NACLJDMA@RequestDeleteGlobalQuickSlot@
CONST	SEGMENT
??_C@_0BN@NACLJDMA@RequestDeleteGlobalQuickSlot@ DB 'RequestDeleteGlobalQ'
	DB	'uickSlot', 00H				; `string'
CONST	ENDS
;	COMDAT ??_C@_0CA@JMFCJJPL@RequestAddToEmptyLocalQuickSlot@
CONST	SEGMENT
??_C@_0CA@JMFCJJPL@RequestAddToEmptyLocalQuickSlot@ DB 'RequestAddToEmpty'
	DB	'LocalQuickSlot', 00H			; `string'
CONST	ENDS
;	COMDAT ??_C@_0BJ@DNLGAMEO@RequestAddLocalQuickSlot@
CONST	SEGMENT
??_C@_0BJ@DNLGAMEO@RequestAddLocalQuickSlot@ DB 'RequestAddLocalQuickSlot'
	DB	00H						; `string'
CONST	ENDS
;	COMDAT ??_C@_0BB@LANDCIKG@GetAlignmentData@
CONST	SEGMENT
??_C@_0BB@LANDCIKG@GetAlignmentData@ DB 'GetAlignmentData', 00H ; `string'
CONST	ENDS
;	COMDAT ??_C@_0N@CECGOPDG@GetGuildName@
CONST	SEGMENT
??_C@_0N@CECGOPDG@GetGuildName@ DB 'GetGuildName', 00H	; `string'
CONST	ENDS
;	COMDAT ??_C@_0L@EAKBLDCO@GetGuildID@
CONST	SEGMENT
??_C@_0L@EAKBLDCO@GetGuildID@ DB 'GetGuildID', 00H	; `string'
CONST	ENDS
;	COMDAT ??_C@_08OAJFGNBC@GetMoney@
CONST	SEGMENT
??_C@_08OAJFGNBC@GetMoney@ DB 'GetMoney', 00H		; `string'
CONST	ENDS
;	COMDAT ??_C@_06NMFKJLLH@GetElk@
CONST	SEGMENT
??_C@_06NMFKJLLH@GetElk@ DB 'GetElk', 00H		; `string'
CONST	ENDS
;	COMDAT ??_C@_09OEBBKEAG@SetStatus@
CONST	SEGMENT
??_C@_09OEBBKEAG@SetStatus@ DB 'SetStatus', 00H		; `string'
CONST	ENDS
;	COMDAT ??_C@_09MKFEIFJE@GetStatus@
CONST	SEGMENT
??_C@_09MKFEIFJE@GetStatus@ DB 'GetStatus', 00H		; `string'
CONST	ENDS
;	COMDAT ??_C@_06MDIKDJMD@GetEXP@
CONST	SEGMENT
??_C@_06MDIKDJMD@GetEXP@ DB 'GetEXP', 00H		; `string'
CONST	ENDS
;	COMDAT ??_C@_0BI@JIGEMOFF@AffectIndexToSkillIndex@
CONST	SEGMENT
??_C@_0BI@JIGEMOFF@AffectIndexToSkillIndex@ DB 'AffectIndexToSkillIndex', 00H ; `string'
CONST	ENDS
;	COMDAT ??_C@_0O@HHBOBCLE@UseGuildSkill@
CONST	SEGMENT
??_C@_0O@HHBOBCLE@UseGuildSkill@ DB 'UseGuildSkill', 00H ; `string'
CONST	ENDS
;	COMDAT ??_C@_0O@IAPCJJAC@IsSkillActive@
CONST	SEGMENT
??_C@_0O@IAPCJJAC@IsSkillActive@ DB 'IsSkillActive', 00H ; `string'
CONST	ENDS
;	COMDAT ??_C@_0BB@CNGGKNGL@GetSkillCoolTime@
CONST	SEGMENT
??_C@_0BB@CNGGKNGL@GetSkillCoolTime@ DB 'GetSkillCoolTime', 00H ; `string'
CONST	ENDS
;	COMDAT ??_C@_0BA@FOPKKJJD@IsSkillCoolTime@
CONST	SEGMENT
??_C@_0BA@FOPKKJJD@IsSkillCoolTime@ DB 'IsSkillCoolTime', 00H ; `string'
CONST	ENDS
;	COMDAT ??_C@_0M@DGCMFHDN@SetPlayTime@
CONST	SEGMENT
??_C@_0M@DGCMFHDN@SetPlayTime@ DB 'SetPlayTime', 00H	; `string'
CONST	ENDS
;	COMDAT ??_C@_0M@DJDCIBLO@GetPlayTime@
CONST	SEGMENT
??_C@_0M@DJDCIBLO@GetPlayTime@ DB 'GetPlayTime', 00H	; `string'
CONST	ENDS
;	COMDAT ??_C@_07GDOKCBKB@GetRace@
CONST	SEGMENT
??_C@_07GDOKCBKB@GetRace@ DB 'GetRace', 00H		; `string'
CONST	ENDS
;	COMDAT ??_C@_06FHLNIOPB@GetJob@
CONST	SEGMENT
??_C@_06FHLNIOPB@GetJob@ DB 'GetJob', 00H		; `string'
CONST	ENDS
;	COMDAT ??_C@_07MMGEHGCI@GetName@
CONST	SEGMENT
??_C@_07MMGEHGCI@GetName@ DB 'GetName', 00H		; `string'
CONST	ENDS
;	COMDAT ??_C@_0BE@DBIFLBAC@SendClickItemPacket@
CONST	SEGMENT
??_C@_0BE@DBIFLBAC@SendClickItemPacket@ DB 'SendClickItemPacket', 00H ; `string'
CONST	ENDS
;	COMDAT ??_C@_08MHJANHDM@MoveItem@
CONST	SEGMENT
??_C@_08MHJANHDM@MoveItem@ DB 'MoveItem', 00H		; `string'
CONST	ENDS
;	COMDAT ??_C@_0BC@OKNBBEMG@GetISellItemPrice@
CONST	SEGMENT
??_C@_0BC@OKNBBEMG@GetISellItemPrice@ DB 'GetISellItemPrice', 00H ; `string'
CONST	ENDS
;	COMDAT ??_C@_0BB@GOKPPDHH@GetItemAttribute@
CONST	SEGMENT
??_C@_0BB@GOKPPDHH@GetItemAttribute@ DB 'GetItemAttribute', 00H ; `string'
CONST	ENDS
;	COMDAT ??_C@_0BD@JBOBKHIE@GetItemMetinSocket@
CONST	SEGMENT
??_C@_0BD@JBOBKHIE@GetItemMetinSocket@ DB 'GetItemMetinSocket', 00H ; `string'
CONST	ENDS
;	COMDAT ??_C@_0BD@DBLILMFK@GetItemCountByVnum@
CONST	SEGMENT
??_C@_0BD@DBLILMFK@GetItemCountByVnum@ DB 'GetItemCountByVnum', 00H ; `string'
CONST	ENDS
;	COMDAT ??_C@_0N@LEKALLIG@GetItemCount@
CONST	SEGMENT
??_C@_0N@LEKALLIG@GetItemCount@ DB 'GetItemCount', 00H	; `string'
CONST	ENDS
;	COMDAT ??_C@_0N@DMCGDNGF@GetItemFlags@
CONST	SEGMENT
??_C@_0N@DMCGDNGF@GetItemFlags@ DB 'GetItemFlags', 00H	; `string'
CONST	ENDS
;	COMDAT ??_C@_0N@GABOCBEH@GetItemIndex@
CONST	SEGMENT
??_C@_0N@GABOCBEH@GetItemIndex@ DB 'GetItemIndex', 00H	; `string'
CONST	ENDS
;	COMDAT ??_C@_0P@MJOJKOJJ@ClearSkillDict@
CONST	SEGMENT
??_C@_0P@MJOJKOJJ@ClearSkillDict@ DB 'ClearSkillDict', 00H ; `string'
CONST	ENDS
;	COMDAT ??_C@_0BN@BPJDEKED@ChangeCurrentSkillNumberOnly@
CONST	SEGMENT
??_C@_0BN@BPJDEKED@ChangeCurrentSkillNumberOnly@ DB 'ChangeCurrentSkillNu'
	DB	'mberOnly', 00H				; `string'
CONST	ENDS
;	COMDAT ??_C@_0P@IGNHDBHH@ClickSkillSlot@
CONST	SEGMENT
??_C@_0P@IGNHDBHH@ClickSkillSlot@ DB 'ClickSkillSlot', 00H ; `string'
CONST	ENDS
;	COMDAT ??_C@_0CA@JHGONPGM@GetSkillNextEfficientPercentage@
CONST	SEGMENT
??_C@_0CA@JHGONPGM@GetSkillNextEfficientPercentage@ DB 'GetSkillNextEffic'
	DB	'ientPercentage', 00H			; `string'
CONST	ENDS
;	COMDAT ??_C@_0CD@EFGGIKHI@GetSkillCurrentEfficientPercent@
CONST	SEGMENT
??_C@_0CD@EFGGIKHI@GetSkillCurrentEfficientPercent@ DB 'GetSkillCurrentEf'
	DB	'ficientPercentage', 00H			; `string'
CONST	ENDS
;	COMDAT ??_C@_0O@CNCBAIPN@GetSkillLevel@
CONST	SEGMENT
??_C@_0O@CNCBAIPN@GetSkillLevel@ DB 'GetSkillLevel', 00H ; `string'
CONST	ENDS
;	COMDAT ??_C@_0O@IIOIANPE@GetSkillGrade@
CONST	SEGMENT
??_C@_0O@IIOIANPE@GetSkillGrade@ DB 'GetSkillGrade', 00H ; `string'
CONST	ENDS
;	COMDAT ??_C@_0BC@HNJMANI@GetSkillSlotIndex@
CONST	SEGMENT
??_C@_0BC@HNJMANI@GetSkillSlotIndex@ DB 'GetSkillSlotIndex', 00H ; `string'
CONST	ENDS
;	COMDAT ??_C@_0O@NOICOABO@GetSkillIndex@
CONST	SEGMENT
??_C@_0O@NOICOABO@GetSkillIndex@ DB 'GetSkillIndex', 00H ; `string'
CONST	ENDS
;	COMDAT ??_C@_08HIFGFOGG@SetSkill@
CONST	SEGMENT
??_C@_08HIFGFOGG@SetSkill@ DB 'SetSkill', 00H		; `string'
CONST	ENDS
;	COMDAT ??_C@_0BD@DPHLFGPP@SetQuickCameraMode@
CONST	SEGMENT
??_C@_0BD@DPHLFGPP@SetQuickCameraMode@ DB 'SetQuickCameraMode', 00H ; `string'
CONST	ENDS
;	COMDAT ??_C@_0BE@MCFGJOPA@ResetCameraRotation@
CONST	SEGMENT
??_C@_0BE@MCFGJOPA@ResetCameraRotation@ DB 'ResetCameraRotation', 00H ; `string'
CONST	ENDS
;	COMDAT ??_C@_0BA@JEOKFDLP@EndMouseWalking@
CONST	SEGMENT
??_C@_0BA@JEOKFDLP@EndMouseWalking@ DB 'EndMouseWalking', 00H ; `string'
CONST	ENDS
;	COMDAT ??_C@_0BC@NCHFPCDM@StartMouseWalking@
CONST	SEGMENT
??_C@_0BC@NCHFPCDM@StartMouseWalking@ DB 'StartMouseWalking', 00H ; `string'
CONST	ENDS
;	COMDAT ??_C@_0BJ@HGLJKHIH@EndKeyWalkingImmediately@
CONST	SEGMENT
??_C@_0BJ@HGLJKHIH@EndKeyWalkingImmediately@ DB 'EndKeyWalkingImmediately'
	DB	00H						; `string'
CONST	ENDS
;	COMDAT ??_C@_0BF@PNJNANBI@SetSingleDIKKeyState@
CONST	SEGMENT
??_C@_0BF@PNJNANBI@SetSingleDIKKeyState@ DB 'SetSingleDIKKeyState', 00H ; `string'
CONST	ENDS
;	COMDAT ??_C@_0BC@DAIEHFBH@SetAttackKeyState@
CONST	SEGMENT
??_C@_0BC@DAIEHFBH@SetAttackKeyState@ DB 'SetAttackKeyState', 00H ; `string'
CONST	ENDS
;	COMDAT ??_C@_0BL@IEKDAKHC@SetAutoCameraRotationSpeed@
CONST	SEGMENT
??_C@_0BL@IEKDAKHC@SetAutoCameraRotationSpeed@ DB 'SetAutoCameraRotationS'
	DB	'peed', 00H					; `string'
CONST	ENDS
;	COMDAT ??_C@_0M@GOCDIKPN@ComboAttack@
CONST	SEGMENT
??_C@_0M@GOCDIKPN@ComboAttack@ DB 'ComboAttack', 00H	; `string'
CONST	ENDS
;	COMDAT ??_C@_0L@PBBGGCLG@HidePlayer@
CONST	SEGMENT
??_C@_0L@PBBGGCLG@HidePlayer@ DB 'HidePlayer', 00H	; `string'
CONST	ENDS
;	COMDAT ??_C@_0L@CPMIOCIM@ShowPlayer@
CONST	SEGMENT
??_C@_0L@CPMIOCIM@ShowPlayer@ DB 'ShowPlayer', 00H	; `string'
CONST	ENDS
;	COMDAT ??_C@_0L@JEBGMNAH@ActEmotion@
CONST	SEGMENT
??_C@_0L@JEBGMNAH@ActEmotion@ DB 'ActEmotion', 00H	; `string'
CONST	ENDS
;	COMDAT ??_C@_0P@LDENHACE@IsObserverMode@
CONST	SEGMENT
??_C@_0P@LDENHACE@IsObserverMode@ DB 'IsObserverMode', 00H ; `string'
CONST	ENDS
;	COMDAT ??_C@_0BA@GFJLKENO@IsMountingHorse@
CONST	SEGMENT
??_C@_0BA@GFJLKENO@IsMountingHorse@ DB 'IsMountingHorse', 00H ; `string'
CONST	ENDS
;	COMDAT ??_C@_0N@IKPCBCPA@IsInSafeArea@
CONST	SEGMENT
??_C@_0N@IKPCBCPA@IsInSafeArea@ DB 'IsInSafeArea', 00H	; `string'
CONST	ENDS
;	COMDAT ??_C@_0BF@DABJOKIF@GetCharacterDistance@
CONST	SEGMENT
??_C@_0BF@DABJOKIF@GetCharacterDistance@ DB 'GetCharacterDistance', 00H ; `string'
CONST	ENDS
;	COMDAT ??_C@_0BE@HJOMPGKI@IsCantFightInstance@
CONST	SEGMENT
??_C@_0BE@HJOMPGKI@IsCantFightInstance@ DB 'IsCantFightInstance', 00H ; `string'
CONST	ENDS
;	COMDAT ??_C@_0BC@IKOEAPGC@IsRevengeInstance@
CONST	SEGMENT
??_C@_0BC@IKOEAPGC@IsRevengeInstance@ DB 'IsRevengeInstance', 00H ; `string'
CONST	ENDS
;	COMDAT ??_C@_0BE@FOIPHJLO@IsChallengeInstance@
CONST	SEGMENT
??_C@_0BE@FOIPHJLO@IsChallengeInstance@ DB 'IsChallengeInstance', 00H ; `string'
CONST	ENDS
;	COMDAT ??_C@_0N@CBEDFALN@IsSameEmpire@
CONST	SEGMENT
??_C@_0N@CBEDFALN@IsSameEmpire@ DB 'IsSameEmpire', 00H	; `string'
CONST	ENDS
;	COMDAT ??_C@_0O@ECCODAC@IsPVPInstance@
CONST	SEGMENT
??_C@_0O@ECCODAC@IsPVPInstance@ DB 'IsPVPInstance', 00H	; `string'
CONST	ENDS
;	COMDAT ??_C@_0BA@ODCBPOEF@IsActingEmotion@
CONST	SEGMENT
??_C@_0BA@ODCBPOEF@IsActingEmotion@ DB 'IsActingEmotion', 00H ; `string'
CONST	ENDS
;	COMDAT ??_C@_0BC@FLPEGJDD@CanAttackInstance@
CONST	SEGMENT
??_C@_0BC@FLPEGJDD@CanAttackInstance@ DB 'CanAttackInstance', 00H ; `string'
CONST	ENDS
;	COMDAT ??_C@_0BF@GALHNOAL@IsMainCharacterIndex@
CONST	SEGMENT
??_C@_0BF@GALHNOAL@IsMainCharacterIndex@ DB 'IsMainCharacterIndex', 00H ; `string'
CONST	ENDS
;	COMDAT ??_C@_0BJ@GIKFEPMH@GetMainCharacterPosition@
CONST	SEGMENT
??_C@_0BJ@GIKFEPMH@GetMainCharacterPosition@ DB 'GetMainCharacterPosition'
	DB	00H						; `string'
CONST	ENDS
;	COMDAT ??_C@_0BF@OMDPKDFM@GetMainCharacterName@
CONST	SEGMENT
??_C@_0BF@OMDPKDFM@GetMainCharacterName@ DB 'GetMainCharacterName', 00H ; `string'
CONST	ENDS
;	COMDAT ??_C@_0BG@GHIKDJGB@GetMainCharacterIndex@
CONST	SEGMENT
??_C@_0BG@GHIKDJGB@GetMainCharacterIndex@ DB 'GetMainCharacterIndex', 00H ; `string'
CONST	ENDS
;	COMDAT ??_C@_0BG@JCNMOACA@SetMainCharacterIndex@
CONST	SEGMENT
??_C@_0BG@JCNMOACA@SetMainCharacterIndex@ DB 'SetMainCharacterIndex', 00H ; `string'
CONST	ENDS
;	COMDAT ??_C@_0BK@JBJLNCBH@SetMouseMiddleButtonState@
CONST	SEGMENT
??_C@_0BK@JBJLNCBH@SetMouseMiddleButtonState@ DB 'SetMouseMiddleButtonSta'
	DB	'te', 00H					; `string'
CONST	ENDS
;	COMDAT ??_C@_0N@MACDDOCA@GetMouseFunc@
CONST	SEGMENT
??_C@_0N@MACDDOCA@GetMouseFunc@ DB 'GetMouseFunc', 00H	; `string'
CONST	ENDS
;	COMDAT ??_C@_0N@LEJNPCGM@SetMouseFunc@
CONST	SEGMENT
??_C@_0N@LEJNPCGM@SetMouseFunc@ DB 'SetMouseFunc', 00H	; `string'
CONST	ENDS
;	COMDAT ??_C@_0O@HDELDAFI@SetMouseState@
CONST	SEGMENT
??_C@_0O@HDELDAFI@SetMouseState@ DB 'SetMouseState', 00H ; `string'
CONST	ENDS
;	COMDAT ??_C@_0BE@EGCDGLCF@RegisterCacheEffect@
CONST	SEGMENT
??_C@_0BE@EGCDGLCF@RegisterCacheEffect@ DB 'RegisterCacheEffect', 00H ; `string'
CONST	ENDS
;	COMDAT ??_C@_0P@HDADHLLI@RegisterEffect@
CONST	SEGMENT
??_C@_0P@HDADHLLI@RegisterEffect@ DB 'RegisterEffect', 00H ; `string'
CONST	ENDS
;	COMDAT ??_C@_0O@MNPFFDEJ@SetGameWindow@
CONST	SEGMENT
??_C@_0O@MNPFFDEJ@SetGameWindow@ DB 'SetGameWindow', 00H ; `string'
CONST	ENDS
;	COMDAT ??_C@_0O@MAEJALBO@PickCloseItem@
CONST	SEGMENT
??_C@_0O@MAEJALBO@PickCloseItem@ DB 'PickCloseItem', 00H ; `string'
CONST	ENDS
;	COMDAT ??_C@_0BC@CILJOCG@SetAutoPotionInfo@
CONST	SEGMENT
??_C@_0BC@CILJOCG@SetAutoPotionInfo@ DB 'SetAutoPotionInfo', 00H ; `string'
CONST	ENDS
;	COMDAT ??_C@_0BC@CHIABFDI@GetAutoPotionInfo@
CONST	SEGMENT
??_C@_0BC@CHIABFDI@GetAutoPotionInfo@ DB 'GetAutoPotionInfo', 00H ; `string'
CONST	ENDS
;	COMDAT ?s_methods@?1??initPlayer@@YAXXZ@4PAUPyMethodDef@@A
_DATA	SEGMENT
?s_methods@?1??initPlayer@@YAXXZ@4PAUPyMethodDef@@A DD FLAT:??_C@_0BC@CHIABFDI@GetAutoPotionInfo@ ; `initPlayer'::`2'::s_methods
	DD	FLAT:?playerGetAutoPotionInfo@@YAPAU_object@@PAU1@0@Z
	DD	01H
	ORG $+4
	DD	FLAT:??_C@_0BC@CILJOCG@SetAutoPotionInfo@
	DD	FLAT:?playerSetAutoPotionInfo@@YAPAU_object@@PAU1@0@Z
	DD	01H
	ORG $+4
	DD	FLAT:??_C@_0O@MAEJALBO@PickCloseItem@
	DD	FLAT:?playerPickCloseItem@@YAPAU_object@@PAU1@0@Z
	DD	01H
	ORG $+4
	DD	FLAT:??_C@_0O@MNPFFDEJ@SetGameWindow@
	DD	FLAT:?playerSetGameWindow@@YAPAU_object@@PAU1@0@Z
	DD	01H
	ORG $+4
	DD	FLAT:??_C@_0P@HDADHLLI@RegisterEffect@
	DD	FLAT:?playerRegisterEffect@@YAPAU_object@@PAU1@0@Z
	DD	01H
	ORG $+4
	DD	FLAT:??_C@_0BE@EGCDGLCF@RegisterCacheEffect@
	DD	FLAT:?playerRegisterCacheEffect@@YAPAU_object@@PAU1@0@Z
	DD	01H
	ORG $+4
	DD	FLAT:??_C@_0O@HDELDAFI@SetMouseState@
	DD	FLAT:?playerSetMouseState@@YAPAU_object@@PAU1@0@Z
	DD	01H
	ORG $+4
	DD	FLAT:??_C@_0N@LEJNPCGM@SetMouseFunc@
	DD	FLAT:?playerSetMouseFunc@@YAPAU_object@@PAU1@0@Z
	DD	01H
	ORG $+4
	DD	FLAT:??_C@_0N@MACDDOCA@GetMouseFunc@
	DD	FLAT:?playerGetMouseFunc@@YAPAU_object@@PAU1@0@Z
	DD	01H
	ORG $+4
	DD	FLAT:??_C@_0BK@JBJLNCBH@SetMouseMiddleButtonState@
	DD	FLAT:?playerSetMouseMiddleButtonState@@YAPAU_object@@PAU1@0@Z
	DD	01H
	ORG $+4
	DD	FLAT:??_C@_0BG@JCNMOACA@SetMainCharacterIndex@
	DD	FLAT:?playerSetMainCharacterIndex@@YAPAU_object@@PAU1@0@Z
	DD	01H
	ORG $+4
	DD	FLAT:??_C@_0BG@GHIKDJGB@GetMainCharacterIndex@
	DD	FLAT:?playerGetMainCharacterIndex@@YAPAU_object@@PAU1@0@Z
	DD	01H
	ORG $+4
	DD	FLAT:??_C@_0BF@OMDPKDFM@GetMainCharacterName@
	DD	FLAT:?playerGetMainCharacterName@@YAPAU_object@@PAU1@0@Z
	DD	01H
	ORG $+4
	DD	FLAT:??_C@_0BJ@GIKFEPMH@GetMainCharacterPosition@
	DD	FLAT:?playerGetMainCharacterPosition@@YAPAU_object@@PAU1@0@Z
	DD	01H
	ORG $+4
	DD	FLAT:??_C@_0BF@GALHNOAL@IsMainCharacterIndex@
	DD	FLAT:?playerIsMainCharacterIndex@@YAPAU_object@@PAU1@0@Z
	DD	01H
	ORG $+4
	DD	FLAT:??_C@_0BC@FLPEGJDD@CanAttackInstance@
	DD	FLAT:?playerCanAttackInstance@@YAPAU_object@@PAU1@0@Z
	DD	01H
	ORG $+4
	DD	FLAT:??_C@_0BA@ODCBPOEF@IsActingEmotion@
	DD	FLAT:?playerIsActingEmotion@@YAPAU_object@@PAU1@0@Z
	DD	01H
	ORG $+4
	DD	FLAT:??_C@_0O@ECCODAC@IsPVPInstance@
	DD	FLAT:?playerIsPVPInstance@@YAPAU_object@@PAU1@0@Z
	DD	01H
	ORG $+4
	DD	FLAT:??_C@_0N@CBEDFALN@IsSameEmpire@
	DD	FLAT:?playerIsSameEmpire@@YAPAU_object@@PAU1@0@Z
	DD	01H
	ORG $+4
	DD	FLAT:??_C@_0BE@FOIPHJLO@IsChallengeInstance@
	DD	FLAT:?playerIsChallengeInstance@@YAPAU_object@@PAU1@0@Z
	DD	01H
	ORG $+4
	DD	FLAT:??_C@_0BC@IKOEAPGC@IsRevengeInstance@
	DD	FLAT:?playerIsRevengeInstance@@YAPAU_object@@PAU1@0@Z
	DD	01H
	ORG $+4
	DD	FLAT:??_C@_0BE@HJOMPGKI@IsCantFightInstance@
	DD	FLAT:?playerIsCantFightInstance@@YAPAU_object@@PAU1@0@Z
	DD	01H
	ORG $+4
	DD	FLAT:??_C@_0BF@DABJOKIF@GetCharacterDistance@
	DD	FLAT:?playerGetCharacterDistance@@YAPAU_object@@PAU1@0@Z
	DD	01H
	ORG $+4
	DD	FLAT:??_C@_0N@IKPCBCPA@IsInSafeArea@
	DD	FLAT:?playerIsInSafeArea@@YAPAU_object@@PAU1@0@Z
	DD	01H
	ORG $+4
	DD	FLAT:??_C@_0BA@GFJLKENO@IsMountingHorse@
	DD	FLAT:?playerIsMountingHorse@@YAPAU_object@@PAU1@0@Z
	DD	01H
	ORG $+4
	DD	FLAT:??_C@_0P@LDENHACE@IsObserverMode@
	DD	FLAT:?playerIsObserverMode@@YAPAU_object@@PAU1@0@Z
	DD	01H
	ORG $+4
	DD	FLAT:??_C@_0L@JEBGMNAH@ActEmotion@
	DD	FLAT:?playerActEmotion@@YAPAU_object@@PAU1@0@Z
	DD	01H
	ORG $+4
	DD	FLAT:??_C@_0L@CPMIOCIM@ShowPlayer@
	DD	FLAT:?playerShowPlayer@@YAPAU_object@@PAU1@0@Z
	DD	01H
	ORG $+4
	DD	FLAT:??_C@_0L@PBBGGCLG@HidePlayer@
	DD	FLAT:?playerHidePlayer@@YAPAU_object@@PAU1@0@Z
	DD	01H
	ORG $+4
	DD	FLAT:??_C@_0M@GOCDIKPN@ComboAttack@
	DD	FLAT:?playerComboAttack@@YAPAU_object@@PAU1@0@Z
	DD	01H
	ORG $+4
	DD	FLAT:??_C@_0BL@IEKDAKHC@SetAutoCameraRotationSpeed@
	DD	FLAT:?playerSetAutoCameraRotationSpeed@@YAPAU_object@@PAU1@0@Z
	DD	01H
	ORG $+4
	DD	FLAT:??_C@_0BC@DAIEHFBH@SetAttackKeyState@
	DD	FLAT:?playerSetAttackKeyState@@YAPAU_object@@PAU1@0@Z
	DD	01H
	ORG $+4
	DD	FLAT:??_C@_0BF@PNJNANBI@SetSingleDIKKeyState@
	DD	FLAT:?playerSetSingleDIKKeyState@@YAPAU_object@@PAU1@0@Z
	DD	01H
	ORG $+4
	DD	FLAT:??_C@_0BJ@HGLJKHIH@EndKeyWalkingImmediately@
	DD	FLAT:?playerEndKeyWalkingImmediately@@YAPAU_object@@PAU1@0@Z
	DD	01H
	ORG $+4
	DD	FLAT:??_C@_0BC@NCHFPCDM@StartMouseWalking@
	DD	FLAT:?playerStartMouseWalking@@YAPAU_object@@PAU1@0@Z
	DD	01H
	ORG $+4
	DD	FLAT:??_C@_0BA@JEOKFDLP@EndMouseWalking@
	DD	FLAT:?playerEndMouseWalking@@YAPAU_object@@PAU1@0@Z
	DD	01H
	ORG $+4
	DD	FLAT:??_C@_0BE@MCFGJOPA@ResetCameraRotation@
	DD	FLAT:?playerResetCameraRotation@@YAPAU_object@@PAU1@0@Z
	DD	01H
	ORG $+4
	DD	FLAT:??_C@_0BD@DPHLFGPP@SetQuickCameraMode@
	DD	FLAT:?playerSetQuickCameraMode@@YAPAU_object@@PAU1@0@Z
	DD	01H
	ORG $+4
	DD	FLAT:??_C@_08HIFGFOGG@SetSkill@
	DD	FLAT:?playerSetSkill@@YAPAU_object@@PAU1@0@Z
	DD	01H
	ORG $+4
	DD	FLAT:??_C@_0O@NOICOABO@GetSkillIndex@
	DD	FLAT:?playerGetSkillIndex@@YAPAU_object@@PAU1@0@Z
	DD	01H
	ORG $+4
	DD	FLAT:??_C@_0BC@HNJMANI@GetSkillSlotIndex@
	DD	FLAT:?playerGetSkillSlotIndex@@YAPAU_object@@PAU1@0@Z
	DD	01H
	ORG $+4
	DD	FLAT:??_C@_0O@IIOIANPE@GetSkillGrade@
	DD	FLAT:?playerGetSkillGrade@@YAPAU_object@@PAU1@0@Z
	DD	01H
	ORG $+4
	DD	FLAT:??_C@_0O@CNCBAIPN@GetSkillLevel@
	DD	FLAT:?playerGetSkillLevel@@YAPAU_object@@PAU1@0@Z
	DD	01H
	ORG $+4
	DD	FLAT:??_C@_0CD@EFGGIKHI@GetSkillCurrentEfficientPercent@
	DD	FLAT:?playerGetSkillCurrentEfficientPercentage@@YAPAU_object@@PAU1@0@Z
	DD	01H
	ORG $+4
	DD	FLAT:??_C@_0CA@JHGONPGM@GetSkillNextEfficientPercentage@
	DD	FLAT:?playerGetSkillNextEfficientPercentage@@YAPAU_object@@PAU1@0@Z
	DD	01H
	ORG $+4
	DD	FLAT:??_C@_0P@IGNHDBHH@ClickSkillSlot@
	DD	FLAT:?playerClickSkillSlot@@YAPAU_object@@PAU1@0@Z
	DD	01H
	ORG $+4
	DD	FLAT:??_C@_0BN@BPJDEKED@ChangeCurrentSkillNumberOnly@
	DD	FLAT:?playerChangeCurrentSkillNumberOnly@@YAPAU_object@@PAU1@0@Z
	DD	01H
	ORG $+4
	DD	FLAT:??_C@_0P@MJOJKOJJ@ClearSkillDict@
	DD	FLAT:?playerClearSkillDict@@YAPAU_object@@PAU1@0@Z
	DD	01H
	ORG $+4
	DD	FLAT:??_C@_0N@GABOCBEH@GetItemIndex@
	DD	FLAT:?playerGetItemIndex@@YAPAU_object@@PAU1@0@Z
	DD	01H
	ORG $+4
	DD	FLAT:??_C@_0N@DMCGDNGF@GetItemFlags@
	DD	FLAT:?playerGetItemFlags@@YAPAU_object@@PAU1@0@Z
	DD	01H
	ORG $+4
	DD	FLAT:??_C@_0N@LEKALLIG@GetItemCount@
	DD	FLAT:?playerGetItemCount@@YAPAU_object@@PAU1@0@Z
	DD	01H
	ORG $+4
	DD	FLAT:??_C@_0BD@DBLILMFK@GetItemCountByVnum@
	DD	FLAT:?playerGetItemCountByVnum@@YAPAU_object@@PAU1@0@Z
	DD	01H
	ORG $+4
	DD	FLAT:??_C@_0BD@JBOBKHIE@GetItemMetinSocket@
	DD	FLAT:?playerGetItemMetinSocket@@YAPAU_object@@PAU1@0@Z
	DD	01H
	ORG $+4
	DD	FLAT:??_C@_0BB@GOKPPDHH@GetItemAttribute@
	DD	FLAT:?playerGetItemAttribute@@YAPAU_object@@PAU1@0@Z
	DD	01H
	ORG $+4
	DD	FLAT:??_C@_0BC@OKNBBEMG@GetISellItemPrice@
	DD	FLAT:?playerGetISellItemPrice@@YAPAU_object@@PAU1@0@Z
	DD	01H
	ORG $+4
	DD	FLAT:??_C@_08MHJANHDM@MoveItem@
	DD	FLAT:?playerMoveItem@@YAPAU_object@@PAU1@0@Z
	DD	01H
	ORG $+4
	DD	FLAT:??_C@_0BE@DBIFLBAC@SendClickItemPacket@
	DD	FLAT:?playerSendClickItemPacket@@YAPAU_object@@PAU1@0@Z
	DD	01H
	ORG $+4
	DD	FLAT:??_C@_07MMGEHGCI@GetName@
	DD	FLAT:?playerGetName@@YAPAU_object@@PAU1@0@Z
	DD	01H
	ORG $+4
	DD	FLAT:??_C@_06FHLNIOPB@GetJob@
	DD	FLAT:?playerGetJob@@YAPAU_object@@PAU1@0@Z
	DD	01H
	ORG $+4
	DD	FLAT:??_C@_07GDOKCBKB@GetRace@
	DD	FLAT:?playerGetRace@@YAPAU_object@@PAU1@0@Z
	DD	01H
	ORG $+4
	DD	FLAT:??_C@_0M@DJDCIBLO@GetPlayTime@
	DD	FLAT:?playerGetPlayTime@@YAPAU_object@@PAU1@0@Z
	DD	01H
	ORG $+4
	DD	FLAT:??_C@_0M@DGCMFHDN@SetPlayTime@
	DD	FLAT:?playerSetPlayTime@@YAPAU_object@@PAU1@0@Z
	DD	01H
	ORG $+4
	DD	FLAT:??_C@_0BA@FOPKKJJD@IsSkillCoolTime@
	DD	FLAT:?playerIsSkillCoolTime@@YAPAU_object@@PAU1@0@Z
	DD	01H
	ORG $+4
	DD	FLAT:??_C@_0BB@CNGGKNGL@GetSkillCoolTime@
	DD	FLAT:?playerGetSkillCoolTime@@YAPAU_object@@PAU1@0@Z
	DD	01H
	ORG $+4
	DD	FLAT:??_C@_0O@IAPCJJAC@IsSkillActive@
	DD	FLAT:?playerIsSkillActive@@YAPAU_object@@PAU1@0@Z
	DD	01H
	ORG $+4
	DD	FLAT:??_C@_0O@HHBOBCLE@UseGuildSkill@
	DD	FLAT:?playerUseGuildSkill@@YAPAU_object@@PAU1@0@Z
	DD	01H
	ORG $+4
	DD	FLAT:??_C@_0BI@JIGEMOFF@AffectIndexToSkillIndex@
	DD	FLAT:?playerAffectIndexToSkillIndex@@YAPAU_object@@PAU1@0@Z
	DD	01H
	ORG $+4
	DD	FLAT:??_C@_06MDIKDJMD@GetEXP@
	DD	FLAT:?playerGetEXP@@YAPAU_object@@PAU1@0@Z
	DD	01H
	ORG $+4
	DD	FLAT:??_C@_09MKFEIFJE@GetStatus@
	DD	FLAT:?playerGetStatus@@YAPAU_object@@PAU1@0@Z
	DD	01H
	ORG $+4
	DD	FLAT:??_C@_09OEBBKEAG@SetStatus@
	DD	FLAT:?playerSetStatus@@YAPAU_object@@PAU1@0@Z
	DD	01H
	ORG $+4
	DD	FLAT:??_C@_06NMFKJLLH@GetElk@
	DD	FLAT:?playerGetElk@@YAPAU_object@@PAU1@0@Z
	DD	01H
	ORG $+4
	DD	FLAT:??_C@_08OAJFGNBC@GetMoney@
	DD	FLAT:?playerGetElk@@YAPAU_object@@PAU1@0@Z
	DD	01H
	ORG $+4
	DD	FLAT:??_C@_0L@EAKBLDCO@GetGuildID@
	DD	FLAT:?playerGetGuildID@@YAPAU_object@@PAU1@0@Z
	DD	01H
	ORG $+4
	DD	FLAT:??_C@_0N@CECGOPDG@GetGuildName@
	DD	FLAT:?playerGetGuildName@@YAPAU_object@@PAU1@0@Z
	DD	01H
	ORG $+4
	DD	FLAT:??_C@_0BB@LANDCIKG@GetAlignmentData@
	DD	FLAT:?playerGetAlignmentData@@YAPAU_object@@PAU1@0@Z
	DD	01H
	ORG $+4
	DD	FLAT:??_C@_0BJ@DNLGAMEO@RequestAddLocalQuickSlot@
	DD	FLAT:?playerRequestAddLocalQuickSlot@@YAPAU_object@@PAU1@0@Z
	DD	01H
	ORG $+4
	DD	FLAT:??_C@_0CA@JMFCJJPL@RequestAddToEmptyLocalQuickSlot@
	DD	FLAT:?playerRequestAddToEmptyLocalQuickSlot@@YAPAU_object@@PAU1@0@Z
	DD	01H
	ORG $+4
	DD	FLAT:??_C@_0BN@NACLJDMA@RequestDeleteGlobalQuickSlot@
	DD	FLAT:?playerRequestDeleteGlobalQuickSlot@@YAPAU_object@@PAU1@0@Z
	DD	01H
	ORG $+4
	DD	FLAT:??_C@_0CL@IEMBKGLN@RequestMoveGlobalQuickSlotToLoc@
	DD	FLAT:?playerRequestMoveGlobalQuickSlotToLocalQuickSlot@@YAPAU_object@@PAU1@0@Z
	DD	01H
	ORG $+4
	DD	FLAT:??_C@_0BJ@IBBGPDPH@RequestUseLocalQuickSlot@
	DD	FLAT:?playerRequestUseLocalQuickSlot@@YAPAU_object@@PAU1@0@Z
	DD	01H
	ORG $+4
	DD	FLAT:??_C@_0CK@GNGKFIDB@LocalQuickSlotIndexToGlobalQuic@
	DD	FLAT:?playerLocalQuickSlotIndexToGlobalQuickSlotIndex@@YAPAU_object@@PAU1@0@Z
	DD	01H
	ORG $+4
	DD	FLAT:??_C@_0N@NLMPHAJA@GetQuickPage@
	DD	FLAT:?playerGetQuickPage@@YAPAU_object@@PAU1@0@Z
	DD	01H
	ORG $+4
	DD	FLAT:??_C@_0N@KPHBLMNM@SetQuickPage@
	DD	FLAT:?playerSetQuickPage@@YAPAU_object@@PAU1@0@Z
	DD	01H
	ORG $+4
	DD	FLAT:??_C@_0BC@LNKMMBDG@GetLocalQuickSlot@
	DD	FLAT:?playerGetLocalQuickSlot@@YAPAU_object@@PAU1@0@Z
	DD	01H
	ORG $+4
	DD	FLAT:??_C@_0BD@ECGPDHPA@GetGlobalQuickSlot@
	DD	FLAT:?playerGetGlobalQuickSlot@@YAPAU_object@@PAU1@0@Z
	DD	01H
	ORG $+4
	DD	FLAT:??_C@_0BH@JNCIKJMC@RemoveQuickSlotByValue@
	DD	FLAT:?playerRemoveQuickSlotByValue@@YAPAU_object@@PAU1@0@Z
	DD	01H
	ORG $+4
	DD	FLAT:??_C@_06NOPKEHAK@isItem@
	DD	FLAT:?playerisItem@@YAPAU_object@@PAU1@0@Z
	DD	01H
	ORG $+4
	DD	FLAT:??_C@_0BA@EMKHGGAL@IsEquipmentSlot@
	DD	FLAT:?playerIsEquipmentSlot@@YAPAU_object@@PAU1@0@Z
	DD	01H
	ORG $+4
	DD	FLAT:??_C@_0BC@DDCIGDKO@IsDSEquipmentSlot@
	DD	FLAT:?playerIsDSEquipmentSlot@@YAPAU_object@@PAU1@0@Z
	DD	01H
	ORG $+4
	DD	FLAT:??_C@_0O@KCAGNEAI@IsCostumeSlot@
	DD	FLAT:?playerIsCostumeSlot@@YAPAU_object@@PAU1@0@Z
	DD	01H
	ORG $+4
	DD	FLAT:??_C@_0P@LAJFBPPH@IsValuableItem@
	DD	FLAT:?playerIsValuableItem@@YAPAU_object@@PAU1@0@Z
	DD	01H
	ORG $+4
	DD	FLAT:??_C@_0BC@DCFDMADN@IsOpenPrivateShop@
	DD	FLAT:?playerIsOpenPrivateShop@@YAPAU_object@@PAU1@0@Z
	DD	01H
	ORG $+4
	DD	FLAT:??_C@_0BE@HECMLJG@IsBeltInventorySlot@
	DD	FLAT:?playerIsBeltInventorySlot@@YAPAU_object@@PAU1@0@Z
	DD	01H
	ORG $+4
	DD	FLAT:??_C@_0BA@OBALOJLG@IsEquippingBelt@
	DD	FLAT:?playerIsEquippingBelt@@YAPAU_object@@PAU1@0@Z
	DD	01H
	ORG $+4
	DD	FLAT:??_C@_0BN@DKGNHJIB@IsAvailableBeltInventoryCell@
	DD	FLAT:?playerIsAvailableBeltInventoryCell@@YAPAU_object@@PAU1@0@Z
	DD	01H
	ORG $+4
	DD	FLAT:??_C@_0N@DGHEMMKN@GetItemGrade@
	DD	FLAT:?playerGetItemGrade@@YAPAU_object@@PAU1@0@Z
	DD	01H
	ORG $+4
	DD	FLAT:??_C@_09BGNCJJP@CanRefine@
	DD	FLAT:?playerCanRefine@@YAPAU_object@@PAU1@0@Z
	DD	01H
	ORG $+4
	DD	FLAT:??_C@_09GHIBIBHI@CanDetach@
	DD	FLAT:?playerCanDetach@@YAPAU_object@@PAU1@0@Z
	DD	01H
	ORG $+4
	DD	FLAT:??_C@_09FHINBOHC@CanUnlock@
	DD	FLAT:?playerCanUnlock@@YAPAU_object@@PAU1@0@Z
	DD	01H
	ORG $+4
	DD	FLAT:??_C@_0P@BLOGPKFO@CanAttachMetin@
	DD	FLAT:?playerCanAttachMetin@@YAPAU_object@@PAU1@0@Z
	DD	01H
	ORG $+4
	DD	FLAT:??_C@_0BE@ELNKJPMC@IsRefineGradeScroll@
	DD	FLAT:?playerIsRefineGradeScroll@@YAPAU_object@@PAU1@0@Z
	DD	01H
	ORG $+4
	DD	FLAT:??_C@_0M@DPCEEMCG@ClearTarget@
	DD	FLAT:?playerClearTarget@@YAPAU_object@@PAU1@0@Z
	DD	01H
	ORG $+4
	DD	FLAT:??_C@_09EECGCJDE@SetTarget@
	DD	FLAT:?playerSetTarget@@YAPAU_object@@PAU1@0@Z
	DD	01H
	ORG $+4
	DD	FLAT:??_C@_0BC@HAEJEFBP@OpenCharacterMenu@
	DD	FLAT:?playerOpenCharacterMenu@@YAPAU_object@@PAU1@0@Z
	DD	01H
	ORG $+4
	DD	FLAT:??_C@_06LMAGPFNF@Update@
	DD	FLAT:?playerUpdate@@YAPAU_object@@PAU1@0@Z
	DD	01H
	ORG $+4
	DD	FLAT:??_C@_06EPLDPNDB@Render@
	DD	FLAT:?playerRender@@YAPAU_object@@PAU1@0@Z
	DD	01H
	ORG $+4
	DD	FLAT:??_C@_05MDNHABIA@Clear@
	DD	FLAT:?playerClear@@YAPAU_object@@PAU1@0@Z
	DD	01H
	ORG $+4
	DD	FLAT:??_C@_0O@FJCFNEGL@IsPartyMember@
	DD	FLAT:?playerIsPartyMember@@YAPAU_object@@PAU1@0@Z
	DD	01H
	ORG $+4
	DD	FLAT:??_C@_0O@BPMJGNAC@IsPartyLeader@
	DD	FLAT:?playerIsPartyLeader@@YAPAU_object@@PAU1@0@Z
	DD	01H
	ORG $+4
	DD	FLAT:??_C@_0BD@HGKJMFNK@IsPartyLeaderByPID@
	DD	FLAT:?playerIsPartyLeaderByPID@@YAPAU_object@@PAU1@0@Z
	DD	01H
	ORG $+4
	DD	FLAT:??_C@_0BL@EPAFEFHI@GetPartyMemberHPPercentage@
	DD	FLAT:?playerGetPartyMemberHPPercentage@@YAPAU_object@@PAU1@0@Z
	DD	01H
	ORG $+4
	DD	FLAT:??_C@_0BE@HKIJMBKK@GetPartyMemberState@
	DD	FLAT:?playerGetPartyMemberState@@YAPAU_object@@PAU1@0@Z
	DD	01H
	ORG $+4
	DD	FLAT:??_C@_0BG@EEFAFMJC@GetPartyMemberAffects@
	DD	FLAT:?playerGetPartyMemberAffects@@YAPAU_object@@PAU1@0@Z
	DD	01H
	ORG $+4
	DD	FLAT:??_C@_0BC@DGCJFOHN@RemovePartyMember@
	DD	FLAT:?playerRemovePartyMember@@YAPAU_object@@PAU1@0@Z
	DD	01H
	ORG $+4
	DD	FLAT:??_C@_09DMPBEJCG@ExitParty@
	DD	FLAT:?playerExitParty@@YAPAU_object@@PAU1@0@Z
	DD	01H
	ORG $+4
	DD	FLAT:??_C@_09IMMFEEHK@GetPKMode@
	DD	FLAT:?playerGetPKMode@@YAPAU_object@@PAU1@0@Z
	DD	01H
	ORG $+4
	DD	FLAT:??_C@_0BF@CLGCEOLO@HasMobilePhoneNumber@
	DD	FLAT:?playerHasMobilePhoneNumber@@YAPAU_object@@PAU1@0@Z
	DD	01H
	ORG $+4
	DD	FLAT:??_C@_0BE@PMDABIKP@RegisterEmotionIcon@
	DD	FLAT:?playerRegisterEmotionIcon@@YAPAU_object@@PAU1@0@Z
	DD	01H
	ORG $+4
	DD	FLAT:??_C@_0BE@FELKHKJF@GetEmotionIconImage@
	DD	FLAT:?playerGetEmotionIconImage@@YAPAU_object@@PAU1@0@Z
	DD	01H
	ORG $+4
	DD	FLAT:??_C@_0BJ@CFCMHNHB@SetWeaponAttackBonusFlag@
	DD	FLAT:?playerSetWeaponAttackBonusFlag@@YAPAU_object@@PAU1@0@Z
	DD	01H
	ORG $+4
	DD	FLAT:??_C@_0P@ILOOLMDH@ToggleCoolTime@
	DD	FLAT:?playerToggleCoolTime@@YAPAU_object@@PAU1@0@Z
	DD	01H
	ORG $+4
	DD	FLAT:??_C@_0BB@DJKKOCLB@ToggleLevelLimit@
	DD	FLAT:?playerToggleLevelLimit@@YAPAU_object@@PAU1@0@Z
	DD	01H
	ORG $+4
	DD	FLAT:??_C@_0N@MEKPPHGC@GetTargetVID@
	DD	FLAT:?playerGetTargetVID@@YAPAU_object@@PAU1@0@Z
	DD	01H
	ORG $+4
	DD	FLAT:??_C@_0M@CHNGAPIB@SetItemData@
	DD	FLAT:?playerSetItemData@@YAPAU_object@@PAU1@0@Z
	DD	01H
	ORG $+4
	DD	FLAT:??_C@_0BD@GLMLJBGM@SetItemMetinSocket@
	DD	FLAT:?playerSetItemMetinSocket@@YAPAU_object@@PAU1@0@Z
	DD	01H
	ORG $+4
	DD	FLAT:??_C@_0BB@KPGENMF@SetItemAttribute@
	DD	FLAT:?playerSetItemAttribute@@YAPAU_object@@PAU1@0@Z
	DD	01H
	ORG $+4
	DD	FLAT:??_C@_0N@MABOHHMK@SetItemCount@
	DD	FLAT:?playerSetItemCount@@YAPAU_object@@PAU1@0@Z
	DD	01H
	ORG $+4
	DD	FLAT:??_C@_0M@DGFCHEAA@GetItemLink@
	DD	FLAT:?playerGetItemLink@@YAPAU_object@@PAU1@0@Z
	DD	01H
	ORG $+4
	DD	FLAT:??_C@_0BE@IOMKCPHN@SlotTypeToInvenType@
	DD	FLAT:?playerSlotTypeToInvenType@@YAPAU_object@@PAU1@0@Z
	DD	01H
	ORG $+4
	DD	FLAT:??_C@_0BF@PLGNHJMH@SendDragonSoulRefine@
	DD	FLAT:?playerSendDragonSoulRefine@@YAPAU_object@@PAU1@0@Z
	DD	01H
	ORG $+4
	DD	00H
	DD	00H
	DD	00H
	ORG $+4
_DATA	ENDS
;	COMDAT ??_C@_01OJONOECF@b@
CONST	SEGMENT
??_C@_01OJONOECF@b@ DB 'b', 00H				; `string'
CONST	ENDS
;	COMDAT ??_C@_04GPDILEAH@biii@
CONST	SEGMENT
??_C@_04GPDILEAH@biii@ DB 'biii', 00H			; `string'
CONST	ENDS
;	COMDAT ??_C@_07EFJJEBFG@iiiiiii@
CONST	SEGMENT
??_C@_07EFJJEBFG@iiiiiii@ DB 'iiiiiii', 00H		; `string'
CONST	ENDS
;	COMDAT ??_C@_0BF@IBGKLIMC@can?8t?5find?5item?5data@
CONST	SEGMENT
??_C@_0BF@IBGKLIMC@can?8t?5find?5item?5data@ DB 'can''t find item data', 00H ; `string'
CONST	ENDS
;	COMDAT ??_C@_0BF@BGKCJNBK@Can?8t?5find?5item?5data@
CONST	SEGMENT
??_C@_0BF@BGKCJNBK@Can?8t?5find?5item?5data@ DB 'Can''t find item data', 00H ; `string'
CONST	ENDS
;	COMDAT ??_C@_0BJ@GPGFNPLK@?$HMcfff1e6c0?$HMH?$CFs?$HMh?$FL?$CFs?$FN?$HMh?$HMr@
CONST	SEGMENT
??_C@_0BJ@GPGFNPLK@?$HMcfff1e6c0?$HMH?$CFs?$HMh?$FL?$CFs?$FN?$HMh?$HMr@ DB '|'
	DB	'cfff1e6c0|H%s|h[%s]|h|r', 00H		; `string'
CONST	ENDS
;	COMDAT ??_C@_0BJ@DABMGIOF@?$HMcffffc700?$HMH?$CFs?$HMh?$FL?$CFs?$FN?$HMh?$HMr@
CONST	SEGMENT
??_C@_0BJ@DABMGIOF@?$HMcffffc700?$HMH?$CFs?$HMh?$FL?$CFs?$FN?$HMh?$HMr@ DB '|'
	DB	'cffffc700|H%s|h[%s]|h|r', 00H		; `string'
CONST	ENDS
;	COMDAT ??_C@_0BK@MGKBEPOF@?5?$HMh?$HMr?$FL?$CFs?$FN?$HMcfff1e6c0?$HMH?$CFs?$HMh@
CONST	SEGMENT
??_C@_0BK@MGKBEPOF@?5?$HMh?$HMr?$FL?$CFs?$FN?$HMcfff1e6c0?$HMH?$CFs?$HMh@ DB ' '
	DB	'|h|r[%s]|cfff1e6c0|H%s|h', 00H		; `string'
CONST	ENDS
;	COMDAT ??_C@_0BK@MCOKCAKI@?5?$HMh?$HMr?$FL?$CFs?$FN?$HMcffffc700?$HMH?$CFs?$HMh@
CONST	SEGMENT
??_C@_0BK@MCOKCAKI@?5?$HMh?$HMr?$FL?$CFs?$FN?$HMcffffc700?$HMH?$CFs?$HMh@ DB ' '
	DB	'|h|r[%s]|cffffc700|H%s|h', 00H		; `string'
CONST	ENDS
;	COMDAT ??_C@_06FAMCNHHL@?3?$CFx?3?$CFd@
CONST	SEGMENT
??_C@_06FAMCNHHL@?3?$CFx?3?$CFd@ DB ':%x:%d', 00H	; `string'
CONST	ENDS
;	COMDAT ??_C@_0BE@FGPADLIF@item?3?$CFx?3?$CFx?3?$CFx?3?$CFx?3?$CFx@
CONST	SEGMENT
??_C@_0BE@FGPADLIF@item?3?$CFx?3?$CFx?3?$CFx?3?$CFx?3?$CFx@ DB 'item:%x:%'
	DB	'x:%x:%x:%x', 00H				; `string'
CONST	ENDS
;	COMDAT ??_C@_02PDIHAGKM@ii@
CONST	SEGMENT
??_C@_02PDIHAGKM@ii@ DB 'ii', 00H			; `string'
CONST	ENDS
;	COMDAT ??_C@_01HHGOMJKL@l@
CONST	SEGMENT
??_C@_01HHGOMJKL@l@ DB 'l', 00H				; `string'
CONST	ENDS
;	COMDAT ??_C@_02HPEDFNFO@ff@
CONST	SEGMENT
??_C@_02HPEDFNFO@ff@ DB 'ff', 00H			; `string'
CONST	ENDS
;	COMDAT ??_C@_0EK@IDBGKDBN@playerSetSingleDIKKeyState?$CIeDIK@
CONST	SEGMENT
??_C@_0EK@IDBGKDBN@playerSetSingleDIKKeyState?$CIeDIK@ DB 'playerSetSingl'
	DB	'eDIKKeyState(eDIK, isPressed) - There is no second argument', 00H ; `string'
CONST	ENDS
;	COMDAT ??_C@_0EJ@BNKMOLIP@playerSetSingleDIKKeyState?$CIeDIK@
CONST	SEGMENT
??_C@_0EJ@BNKMOLIP@playerSetSingleDIKKeyState?$CIeDIK@ DB 'playerSetSingl'
	DB	'eDIKKeyState(eDIK, isPressed) - There is no first argument', 00H ; `string'
CONST	ENDS
;	COMDAT ??_C@_0EA@OHLDKNFC@playerSetAttackKeyState?$CIisPress@
CONST	SEGMENT
??_C@_0EA@OHLDKNFC@playerSetAttackKeyState?$CIisPress@ DB 'playerSetAttac'
	DB	'kKeyState(isPressed) - There is no first argument', 00H ; `string'
CONST	ENDS
;	COMDAT ??_C@_0DF@ILFGGFEI@CPythonPlayer?3?3RegisterEffect?$CIe@
CONST	SEGMENT
??_C@_0DF@ILFGGFEI@CPythonPlayer?3?3RegisterEffect?$CIe@ DB 'CPythonPlaye'
	DB	'r::RegisterEffect(eEft=%d, szFileName=%s', 00H ; `string'
CONST	ENDS
;	COMDAT ??_C@_01INIBCBCB@f@
CONST	SEGMENT
??_C@_01INIBCBCB@f@ DB 'f', 00H				; `string'
CONST	ENDS
;	COMDAT ??_C@_03LPALPDIP@fff@
CONST	SEGMENT
??_C@_03LPALPDIP@fff@ DB 'fff', 00H			; `string'
CONST	ENDS
;	COMDAT ??_C@_01LKDEMHDF@s@
CONST	SEGMENT
??_C@_01LKDEMHDF@s@ DB 's', 00H				; `string'
CONST	ENDS
;	COMDAT ??_C@_01KBJDNOO@i@
CONST	SEGMENT
??_C@_01KBJDNOO@i@ DB 'i', 00H				; `string'
CONST	ENDS
;	COMDAT ?availableRuleByGrade@?1??GetAvailableRuleTableByGrade@CBeltInventoryHelper@@SAPBEXZ@4PAEA
_DATA	SEGMENT
?availableRuleByGrade@?1??GetAvailableRuleTableByGrade@CBeltInventoryHelper@@SAPBEXZ@4PAEA DB 01H ; `CBeltInventoryHelper::GetAvailableRuleTableByGrade'::`2'::availableRuleByGrade
	DB	02H
	DB	04H
	DB	06H
	DB	03H
	DB	03H
	DB	04H
	DB	06H
	DB	05H
	DB	05H
	DB	05H
	DB	06H
	DB	07H
	DB	07H
	DB	07H
	DB	07H
_DATA	ENDS
;	COMDAT ?ms_kPool@?$CPooledObject@VCRotationDecorator@NEffectUpdateDecorator@@@@1V?$CDynamicPoolEx@VCRotationDecorator@NEffectUpdateDecorator@@@@A
_DATA	SEGMENT
?ms_kPool@?$CPooledObject@VCRotationDecorator@NEffectUpdateDecorator@@@@1V?$CDynamicPoolEx@VCRotationDecorator@NEffectUpdateDecorator@@@@A DD FLAT:??_7?$CDynamicPoolEx@VCRotationDecorator@NEffectUpdateDecorator@@@@6B@ ; CPooledObject<NEffectUpdateDecorator::CRotationDecorator>::ms_kPool
	DD	00H
	DD	00H
	DD	00H
	DD	00H
	DD	00H
	DD	00H
	DD	00H
	DD	00H
_DATA	ENDS
;	COMDAT ?ms_kPool@?$CPooledObject@VCGravityDecorator@NEffectUpdateDecorator@@@@1V?$CDynamicPoolEx@VCGravityDecorator@NEffectUpdateDecorator@@@@A
_DATA	SEGMENT
?ms_kPool@?$CPooledObject@VCGravityDecorator@NEffectUpdateDecorator@@@@1V?$CDynamicPoolEx@VCGravityDecorator@NEffectUpdateDecorator@@@@A DD FLAT:??_7?$CDynamicPoolEx@VCGravityDecorator@NEffectUpdateDecorator@@@@6B@ ; CPooledObject<NEffectUpdateDecorator::CGravityDecorator>::ms_kPool
	DD	00H
	DD	00H
	DD	00H
	DD	00H
	DD	00H
	DD	00H
	DD	00H
	DD	00H
_DATA	ENDS
;	COMDAT ?ms_kPool@?$CPooledObject@VCAirResistanceDecorator@NEffectUpdateDecorator@@@@1V?$CDynamicPoolEx@VCAirResistanceDecorator@NEffectUpdateDecorator@@@@A
_DATA	SEGMENT
?ms_kPool@?$CPooledObject@VCAirResistanceDecorator@NEffectUpdateDecorator@@@@1V?$CDynamicPoolEx@VCAirResistanceDecorator@NEffectUpdateDecorator@@@@A DD FLAT:??_7?$CDynamicPoolEx@VCAirResistanceDecorator@NEffectUpdateDecorator@@@@6B@ ; CPooledObject<NEffectUpdateDecorator::CAirResistanceDecorator>::ms_kPool
	DD	00H
	DD	00H
	DD	00H
	DD	00H
	DD	00H
	DD	00H
	DD	00H
	DD	00H
_DATA	ENDS
;	COMDAT ?ms_kPool@?$CPooledObject@VCTextureAnimationRandomDecorator@NEffectUpdateDecorator@@@@1V?$CDynamicPoolEx@VCTextureAnimationRandomDecorator@NEffectUpdateDecorator@@@@A
_DATA	SEGMENT
?ms_kPool@?$CPooledObject@VCTextureAnimationRandomDecorator@NEffectUpdateDecorator@@@@1V?$CDynamicPoolEx@VCTextureAnimationRandomDecorator@NEffectUpdateDecorator@@@@A DD FLAT:??_7?$CDynamicPoolEx@VCTextureAnimationRandomDecorator@NEffectUpdateDecorator@@@@6B@ ; CPooledObject<NEffectUpdateDecorator::CTextureAnimationRandomDecorator>::ms_kPool
	DD	00H
	DD	00H
	DD	00H
	DD	00H
	DD	00H
	DD	00H
	DD	00H
	DD	00H
_DATA	ENDS
;	COMDAT ?ms_kPool@?$CPooledObject@VCTextureAnimationCCWDecorator@NEffectUpdateDecorator@@@@1V?$CDynamicPoolEx@VCTextureAnimationCCWDecorator@NEffectUpdateDecorator@@@@A
_DATA	SEGMENT
?ms_kPool@?$CPooledObject@VCTextureAnimationCCWDecorator@NEffectUpdateDecorator@@@@1V?$CDynamicPoolEx@VCTextureAnimationCCWDecorator@NEffectUpdateDecorator@@@@A DD FLAT:??_7?$CDynamicPoolEx@VCTextureAnimationCCWDecorator@NEffectUpdateDecorator@@@@6B@ ; CPooledObject<NEffectUpdateDecorator::CTextureAnimationCCWDecorator>::ms_kPool
	DD	00H
	DD	00H
	DD	00H
	DD	00H
	DD	00H
	DD	00H
	DD	00H
	DD	00H
_DATA	ENDS
;	COMDAT ?ms_kPool@?$CPooledObject@VCTextureAnimationCWDecorator@NEffectUpdateDecorator@@@@1V?$CDynamicPoolEx@VCTextureAnimationCWDecorator@NEffectUpdateDecorator@@@@A
_DATA	SEGMENT
?ms_kPool@?$CPooledObject@VCTextureAnimationCWDecorator@NEffectUpdateDecorator@@@@1V?$CDynamicPoolEx@VCTextureAnimationCWDecorator@NEffectUpdateDecorator@@@@A DD FLAT:??_7?$CDynamicPoolEx@VCTextureAnimationCWDecorator@NEffectUpdateDecorator@@@@6B@ ; CPooledObject<NEffectUpdateDecorator::CTextureAnimationCWDecorator>::ms_kPool
	DD	00H
	DD	00H
	DD	00H
	DD	00H
	DD	00H
	DD	00H
	DD	00H
	DD	00H
_DATA	ENDS
;	COMDAT ?ms_kPool@?$CPooledObject@VCNullDecorator@NEffectUpdateDecorator@@@@1V?$CDynamicPoolEx@VCNullDecorator@NEffectUpdateDecorator@@@@A
_DATA	SEGMENT
?ms_kPool@?$CPooledObject@VCNullDecorator@NEffectUpdateDecorator@@@@1V?$CDynamicPoolEx@VCNullDecorator@NEffectUpdateDecorator@@@@A DD FLAT:??_7?$CDynamicPoolEx@VCNullDecorator@NEffectUpdateDecorator@@@@6B@ ; CPooledObject<NEffectUpdateDecorator::CNullDecorator>::ms_kPool
	DD	00H
	DD	00H
	DD	00H
	DD	00H
	DD	00H
	DD	00H
	DD	00H
	DD	00H
_DATA	ENDS
;	COMDAT ?ms_kPool@?$CPooledObject@VCHeaderDecorator@NEffectUpdateDecorator@@@@1V?$CDynamicPoolEx@VCHeaderDecorator@NEffectUpdateDecorator@@@@A
_DATA	SEGMENT
?ms_kPool@?$CPooledObject@VCHeaderDecorator@NEffectUpdateDecorator@@@@1V?$CDynamicPoolEx@VCHeaderDecorator@NEffectUpdateDecorator@@@@A DD FLAT:??_7?$CDynamicPoolEx@VCHeaderDecorator@NEffectUpdateDecorator@@@@6B@ ; CPooledObject<NEffectUpdateDecorator::CHeaderDecorator>::ms_kPool
	DD	00H
	DD	00H
	DD	00H
	DD	00H
	DD	00H
	DD	00H
	DD	00H
	DD	00H
_DATA	ENDS
;	COMDAT ??_R1A@?0A@EA@bad_array_new_length@std@@8
rdata$r	SEGMENT
??_R1A@?0A@EA@bad_array_new_length@std@@8 DD FLAT:??_R0?AVbad_array_new_length@std@@@8 ; std::bad_array_new_length::`RTTI Base Class Descriptor at (0,-1,0,64)'
	DD	02H
	DD	00H
	DD	0ffffffffH
	DD	00H
	DD	040H
	DD	FLAT:??_R3bad_array_new_length@std@@8
rdata$r	ENDS
;	COMDAT ??_R2bad_array_new_length@std@@8
rdata$r	SEGMENT
??_R2bad_array_new_length@std@@8 DD FLAT:??_R1A@?0A@EA@bad_array_new_length@std@@8 ; std::bad_array_new_length::`RTTI Base Class Array'
	DD	FLAT:??_R1A@?0A@EA@bad_alloc@std@@8
	DD	FLAT:??_R1A@?0A@EA@exception@std@@8
rdata$r	ENDS
;	COMDAT ??_R3bad_array_new_length@std@@8
rdata$r	SEGMENT
??_R3bad_array_new_length@std@@8 DD 00H			; std::bad_array_new_length::`RTTI Class Hierarchy Descriptor'
	DD	00H
	DD	03H
	DD	FLAT:??_R2bad_array_new_length@std@@8
rdata$r	ENDS
;	COMDAT ??_R4bad_array_new_length@std@@6B@
rdata$r	SEGMENT
??_R4bad_array_new_length@std@@6B@ DD 00H		; std::bad_array_new_length::`RTTI Complete Object Locator'
	DD	00H
	DD	00H
	DD	FLAT:??_R0?AVbad_array_new_length@std@@@8
	DD	FLAT:??_R3bad_array_new_length@std@@8
rdata$r	ENDS
;	COMDAT ??_R1A@?0A@EA@bad_alloc@std@@8
rdata$r	SEGMENT
??_R1A@?0A@EA@bad_alloc@std@@8 DD FLAT:??_R0?AVbad_alloc@std@@@8 ; std::bad_alloc::`RTTI Base Class Descriptor at (0,-1,0,64)'
	DD	01H
	DD	00H
	DD	0ffffffffH
	DD	00H
	DD	040H
	DD	FLAT:??_R3bad_alloc@std@@8
rdata$r	ENDS
;	COMDAT ??_R2bad_alloc@std@@8
rdata$r	SEGMENT
??_R2bad_alloc@std@@8 DD FLAT:??_R1A@?0A@EA@bad_alloc@std@@8 ; std::bad_alloc::`RTTI Base Class Array'
	DD	FLAT:??_R1A@?0A@EA@exception@std@@8
rdata$r	ENDS
;	COMDAT ??_R3bad_alloc@std@@8
rdata$r	SEGMENT
??_R3bad_alloc@std@@8 DD 00H				; std::bad_alloc::`RTTI Class Hierarchy Descriptor'
	DD	00H
	DD	02H
	DD	FLAT:??_R2bad_alloc@std@@8
rdata$r	ENDS
;	COMDAT ??_R4bad_alloc@std@@6B@
rdata$r	SEGMENT
??_R4bad_alloc@std@@6B@ DD 00H				; std::bad_alloc::`RTTI Complete Object Locator'
	DD	00H
	DD	00H
	DD	FLAT:??_R0?AVbad_alloc@std@@@8
	DD	FLAT:??_R3bad_alloc@std@@8
rdata$r	ENDS
;	COMDAT ??_R1A@?0A@EA@exception@std@@8
rdata$r	SEGMENT
??_R1A@?0A@EA@exception@std@@8 DD FLAT:??_R0?AVexception@std@@@8 ; std::exception::`RTTI Base Class Descriptor at (0,-1,0,64)'
	DD	00H
	DD	00H
	DD	0ffffffffH
	DD	00H
	DD	040H
	DD	FLAT:??_R3exception@std@@8
rdata$r	ENDS
;	COMDAT ??_R2exception@std@@8
rdata$r	SEGMENT
??_R2exception@std@@8 DD FLAT:??_R1A@?0A@EA@exception@std@@8 ; std::exception::`RTTI Base Class Array'
rdata$r	ENDS
;	COMDAT ??_R3exception@std@@8
rdata$r	SEGMENT
??_R3exception@std@@8 DD 00H				; std::exception::`RTTI Class Hierarchy Descriptor'
	DD	00H
	DD	01H
	DD	FLAT:??_R2exception@std@@8
rdata$r	ENDS
;	COMDAT ??_R4exception@std@@6B@
rdata$r	SEGMENT
??_R4exception@std@@6B@ DD 00H				; std::exception::`RTTI Complete Object Locator'
	DD	00H
	DD	00H
	DD	FLAT:??_R0?AVexception@std@@@8
	DD	FLAT:??_R3exception@std@@8
rdata$r	ENDS
;	COMDAT ??_C@_00CNPNBAHC@@
CONST	SEGMENT
??_C@_00CNPNBAHC@@ DB 00H				; `string'
CONST	ENDS
;	COMDAT ??_C@_0BB@GCADKGJO@map?1set?5too?5long@
CONST	SEGMENT
??_C@_0BB@GCADKGJO@map?1set?5too?5long@ DB 'map/set too long', 00H ; `string'
CONST	ENDS
;	COMDAT ??_C@_0BA@JFNIOLAK@string?5too?5long@
CONST	SEGMENT
??_C@_0BA@JFNIOLAK@string?5too?5long@ DB 'string too long', 00H ; `string'
CONST	ENDS
;	COMDAT __CT??_R0?AVexception@std@@@8??0exception@std@@QAE@ABV01@@Z12
xdata$x	SEGMENT
__CT??_R0?AVexception@std@@@8??0exception@std@@QAE@ABV01@@Z12 DD 00H
	DD	FLAT:??_R0?AVexception@std@@@8
	DD	00H
	DD	0ffffffffH
	ORG $+4
	DD	0cH
	DD	FLAT:??0exception@std@@QAE@ABV01@@Z
xdata$x	ENDS
;	COMDAT ??_R0?AVexception@std@@@8
data$r	SEGMENT
??_R0?AVexception@std@@@8 DD FLAT:??_7type_info@@6B@	; std::exception `RTTI Type Descriptor'
	DD	00H
	DB	'.?AVexception@std@@', 00H
data$r	ENDS
;	COMDAT __CT??_R0?AVbad_alloc@std@@@8??0bad_alloc@std@@QAE@ABV01@@Z12
xdata$x	SEGMENT
__CT??_R0?AVbad_alloc@std@@@8??0bad_alloc@std@@QAE@ABV01@@Z12 DD 010H
	DD	FLAT:??_R0?AVbad_alloc@std@@@8
	DD	00H
	DD	0ffffffffH
	ORG $+4
	DD	0cH
	DD	FLAT:??0bad_alloc@std@@QAE@ABV01@@Z
xdata$x	ENDS
;	COMDAT ??_R0?AVbad_alloc@std@@@8
data$r	SEGMENT
??_R0?AVbad_alloc@std@@@8 DD FLAT:??_7type_info@@6B@	; std::bad_alloc `RTTI Type Descriptor'
	DD	00H
	DB	'.?AVbad_alloc@std@@', 00H
data$r	ENDS
;	COMDAT __CT??_R0?AVbad_array_new_length@std@@@8??0bad_array_new_length@std@@QAE@ABV01@@Z12
xdata$x	SEGMENT
__CT??_R0?AVbad_array_new_length@std@@@8??0bad_array_new_length@std@@QAE@ABV01@@Z12 DD 00H
	DD	FLAT:??_R0?AVbad_array_new_length@std@@@8
	DD	00H
	DD	0ffffffffH
	ORG $+4
	DD	0cH
	DD	FLAT:??0bad_array_new_length@std@@QAE@ABV01@@Z
xdata$x	ENDS
;	COMDAT ??_R0?AVbad_array_new_length@std@@@8
data$r	SEGMENT
??_R0?AVbad_array_new_length@std@@@8 DD FLAT:??_7type_info@@6B@ ; std::bad_array_new_length `RTTI Type Descriptor'
	DD	00H
	DB	'.?AVbad_array_new_length@std@@', 00H
data$r	ENDS
;	COMDAT __CTA3?AVbad_array_new_length@std@@
xdata$x	SEGMENT
__CTA3?AVbad_array_new_length@std@@ DD 03H
	DD	FLAT:__CT??_R0?AVbad_array_new_length@std@@@8??0bad_array_new_length@std@@QAE@ABV01@@Z12
	DD	FLAT:__CT??_R0?AVbad_alloc@std@@@8??0bad_alloc@std@@QAE@ABV01@@Z12
	DD	FLAT:__CT??_R0?AVexception@std@@@8??0exception@std@@QAE@ABV01@@Z12
xdata$x	ENDS
;	COMDAT __TI3?AVbad_array_new_length@std@@
xdata$x	SEGMENT
__TI3?AVbad_array_new_length@std@@ DD 00H
	DD	FLAT:??1bad_array_new_length@std@@UAE@XZ
	DD	00H
	DD	FLAT:__CTA3?AVbad_array_new_length@std@@
xdata$x	ENDS
;	COMDAT ??_C@_0BF@KINCDENJ@bad?5array?5new?5length@
CONST	SEGMENT
??_C@_0BF@KINCDENJ@bad?5array?5new?5length@ DB 'bad array new length', 00H ; `string'
CONST	ENDS
;	COMDAT ??_7bad_array_new_length@std@@6B@
CONST	SEGMENT
??_7bad_array_new_length@std@@6B@ DD FLAT:??_R4bad_array_new_length@std@@6B@ ; std::bad_array_new_length::`vftable'
	DD	FLAT:??_Ebad_array_new_length@std@@UAEPAXI@Z
	DD	FLAT:?what@exception@std@@UBEPBDXZ
CONST	ENDS
;	COMDAT ??_7bad_alloc@std@@6B@
CONST	SEGMENT
??_7bad_alloc@std@@6B@ DD FLAT:??_R4bad_alloc@std@@6B@	; std::bad_alloc::`vftable'
	DD	FLAT:??_Ebad_alloc@std@@UAEPAXI@Z
	DD	FLAT:?what@exception@std@@UBEPBDXZ
CONST	ENDS
;	COMDAT ??_C@_0BC@EOODALEL@Unknown?5exception@
CONST	SEGMENT
??_C@_0BC@EOODALEL@Unknown?5exception@ DB 'Unknown exception', 00H ; `string'
CONST	ENDS
;	COMDAT ??_7exception@std@@6B@
CONST	SEGMENT
??_7exception@std@@6B@ DD FLAT:??_R4exception@std@@6B@	; std::exception::`vftable'
	DD	FLAT:??_Eexception@std@@UAEPAXI@Z
	DD	FLAT:?what@exception@std@@UBEPBDXZ
CONST	ENDS
;	COMDAT xdata$x
xdata$x	SEGMENT
__unwindtable$??$?0U?$pair@HPAVCGraphicImage@@@std@@@?$_Tree_temp_node@V?$allocator@U?$_Tree_node@U?$pair@$$CBHPAVCGraphicImage@@@std@@PAX@std@@@std@@@std@@QAE@AAV?$allocator@U?$_Tree_node@U?$pair@$$CBHPAVCGraphicImage@@@std@@PAX@std@@@1@PAU?$_Tree_node@U?$pair@$$CBHPAVCGraphicImage@@@std@@PAX@1@$$QAU?$pair@HPAVCGraphicImage@@@1@@Z DD 0ffffffffH
	DD	FLAT:__unwindfunclet$??$?0U?$pair@HPAVCGraphicImage@@@std@@@?$_Tree_temp_node@V?$allocator@U?$_Tree_node@U?$pair@$$CBHPAVCGraphicImage@@@std@@PAX@std@@@std@@@std@@QAE@AAV?$allocator@U?$_Tree_node@U?$pair@$$CBHPAVCGraphicImage@@@std@@PAX@std@@@1@PAU?$_Tree_node@U?$pair@$$CBHPAVCGraphicImage@@@std@@PAX@1@$$QAU?$pair@HPAVCGraphicImage@@@1@@Z$1
__ehfuncinfo$??$?0U?$pair@HPAVCGraphicImage@@@std@@@?$_Tree_temp_node@V?$allocator@U?$_Tree_node@U?$pair@$$CBHPAVCGraphicImage@@@std@@PAX@std@@@std@@@std@@QAE@AAV?$allocator@U?$_Tree_node@U?$pair@$$CBHPAVCGraphicImage@@@std@@PAX@std@@@1@PAU?$_Tree_node@U?$pair@$$CBHPAVCGraphicImage@@@std@@PAX@1@$$QAU?$pair@HPAVCGraphicImage@@@1@@Z DD 019930522H
	DD	01H
	DD	FLAT:__unwindtable$??$?0U?$pair@HPAVCGraphicImage@@@std@@@?$_Tree_temp_node@V?$allocator@U?$_Tree_node@U?$pair@$$CBHPAVCGraphicImage@@@std@@PAX@std@@@std@@@std@@QAE@AAV?$allocator@U?$_Tree_node@U?$pair@$$CBHPAVCGraphicImage@@@std@@PAX@std@@@1@PAU?$_Tree_node@U?$pair@$$CBHPAVCGraphicImage@@@std@@PAX@1@$$QAU?$pair@HPAVCGraphicImage@@@1@@Z
	DD	2 DUP(00H)
	DD	2 DUP(00H)
	DD	00H
	DD	01H
xdata$x	ENDS
;	COMDAT xdata$x
xdata$x	SEGMENT
__unwindtable$??$_Emplace@U?$pair@HPAVCGraphicImage@@@std@@@?$_Tree@V?$_Tmap_traits@HPAVCGraphicImage@@U?$less@H@std@@V?$allocator@U?$pair@$$CBHPAVCGraphicImage@@@std@@@3@$0A@@std@@@std@@IAE?AU?$pair@PAU?$_Tree_node@U?$pair@$$CBHPAVCGraphicImage@@@std@@PAX@std@@_N@1@$$QAU?$pair@HPAVCGraphicImage@@@1@@Z DD 0ffffffffH
	DD	FLAT:__unwindfunclet$??$_Emplace@U?$pair@HPAVCGraphicImage@@@std@@@?$_Tree@V?$_Tmap_traits@HPAVCGraphicImage@@U?$less@H@std@@V?$allocator@U?$pair@$$CBHPAVCGraphicImage@@@std@@@3@$0A@@std@@@std@@IAE?AU?$pair@PAU?$_Tree_node@U?$pair@$$CBHPAVCGraphicImage@@@std@@PAX@std@@_N@1@$$QAU?$pair@HPAVCGraphicImage@@@1@@Z$2
__ehfuncinfo$??$_Emplace@U?$pair@HPAVCGraphicImage@@@std@@@?$_Tree@V?$_Tmap_traits@HPAVCGraphicImage@@U?$less@H@std@@V?$allocator@U?$pair@$$CBHPAVCGraphicImage@@@std@@@3@$0A@@std@@@std@@IAE?AU?$pair@PAU?$_Tree_node@U?$pair@$$CBHPAVCGraphicImage@@@std@@PAX@std@@_N@1@$$QAU?$pair@HPAVCGraphicImage@@@1@@Z DD 019930522H
	DD	01H
	DD	FLAT:__unwindtable$??$_Emplace@U?$pair@HPAVCGraphicImage@@@std@@@?$_Tree@V?$_Tmap_traits@HPAVCGraphicImage@@U?$less@H@std@@V?$allocator@U?$pair@$$CBHPAVCGraphicImage@@@std@@@3@$0A@@std@@@std@@IAE?AU?$pair@PAU?$_Tree_node@U?$pair@$$CBHPAVCGraphicImage@@@std@@PAX@std@@_N@1@$$QAU?$pair@HPAVCGraphicImage@@@1@@Z
	DD	2 DUP(00H)
	DD	2 DUP(00H)
	DD	00H
	DD	01H
xdata$x	ENDS
;	COMDAT xdata$x
xdata$x	SEGMENT
__unwindtable$??$?0ABUpiecewise_construct_t@std@@V?$tuple@ABH@1@V?$tuple@$$V@1@@?$_Tree_temp_node@V?$allocator@U?$_Tree_node@U?$pair@$$CBHPAVCGraphicImage@@@std@@PAX@std@@@std@@@std@@QAE@AAV?$allocator@U?$_Tree_node@U?$pair@$$CBHPAVCGraphicImage@@@std@@PAX@std@@@1@PAU?$_Tree_node@U?$pair@$$CBHPAVCGraphicImage@@@std@@PAX@1@ABUpiecewise_construct_t@1@$$QAV?$tuple@ABH@1@$$QAV?$tuple@$$V@1@@Z DD 0ffffffffH
	DD	FLAT:__unwindfunclet$??$?0ABUpiecewise_construct_t@std@@V?$tuple@ABH@1@V?$tuple@$$V@1@@?$_Tree_temp_node@V?$allocator@U?$_Tree_node@U?$pair@$$CBHPAVCGraphicImage@@@std@@PAX@std@@@std@@@std@@QAE@AAV?$allocator@U?$_Tree_node@U?$pair@$$CBHPAVCGraphicImage@@@std@@PAX@std@@@1@PAU?$_Tree_node@U?$pair@$$CBHPAVCGraphicImage@@@std@@PAX@1@ABUpiecewise_construct_t@1@$$QAV?$tuple@ABH@1@$$QAV?$tuple@$$V@1@@Z$1
__ehfuncinfo$??$?0ABUpiecewise_construct_t@std@@V?$tuple@ABH@1@V?$tuple@$$V@1@@?$_Tree_temp_node@V?$allocator@U?$_Tree_node@U?$pair@$$CBHPAVCGraphicImage@@@std@@PAX@std@@@std@@@std@@QAE@AAV?$allocator@U?$_Tree_node@U?$pair@$$CBHPAVCGraphicImage@@@std@@PAX@std@@@1@PAU?$_Tree_node@U?$pair@$$CBHPAVCGraphicImage@@@std@@PAX@1@ABUpiecewise_construct_t@1@$$QAV?$tuple@ABH@1@$$QAV?$tuple@$$V@1@@Z DD 019930522H
	DD	01H
	DD	FLAT:__unwindtable$??$?0ABUpiecewise_construct_t@std@@V?$tuple@ABH@1@V?$tuple@$$V@1@@?$_Tree_temp_node@V?$allocator@U?$_Tree_node@U?$pair@$$CBHPAVCGraphicImage@@@std@@PAX@std@@@std@@@std@@QAE@AAV?$allocator@U?$_Tree_node@U?$pair@$$CBHPAVCGraphicImage@@@std@@PAX@std@@@1@PAU?$_Tree_node@U?$pair@$$CBHPAVCGraphicImage@@@std@@PAX@1@ABUpiecewise_construct_t@1@$$QAV?$tuple@ABH@1@$$QAV?$tuple@$$V@1@@Z
	DD	2 DUP(00H)
	DD	2 DUP(00H)
	DD	00H
	DD	01H
xdata$x	ENDS
;	COMDAT xdata$x
xdata$x	SEGMENT
__unwindtable$??0?$_Tree_temp_node_alloc@V?$allocator@U?$_Tree_node@U?$pair@$$CBHPAVCGraphicImage@@@std@@PAX@std@@@std@@@std@@QAE@AAV?$allocator@U?$_Tree_node@U?$pair@$$CBHPAVCGraphicImage@@@std@@PAX@std@@@1@@Z DD 0ffffffffH
	DD	FLAT:__unwindfunclet$??0?$_Tree_temp_node_alloc@V?$allocator@U?$_Tree_node@U?$pair@$$CBHPAVCGraphicImage@@@std@@PAX@std@@@std@@@std@@QAE@AAV?$allocator@U?$_Tree_node@U?$pair@$$CBHPAVCGraphicImage@@@std@@PAX@std@@@1@@Z$0
__ehfuncinfo$??0?$_Tree_temp_node_alloc@V?$allocator@U?$_Tree_node@U?$pair@$$CBHPAVCGraphicImage@@@std@@PAX@std@@@std@@@std@@QAE@AAV?$allocator@U?$_Tree_node@U?$pair@$$CBHPAVCGraphicImage@@@std@@PAX@std@@@1@@Z DD 019930522H
	DD	01H
	DD	FLAT:__unwindtable$??0?$_Tree_temp_node_alloc@V?$allocator@U?$_Tree_node@U?$pair@$$CBHPAVCGraphicImage@@@std@@PAX@std@@@std@@@std@@QAE@AAV?$allocator@U?$_Tree_node@U?$pair@$$CBHPAVCGraphicImage@@@std@@PAX@std@@@1@@Z
	DD	2 DUP(00H)
	DD	2 DUP(00H)
	DD	00H
	DD	01H
xdata$x	ENDS
;	COMDAT xdata$x
xdata$x	SEGMENT
__unwindtable$??$emplace@U?$pair@HPAVCGraphicImage@@@std@@@?$_Tree@V?$_Tmap_traits@HPAVCGraphicImage@@U?$less@H@std@@V?$allocator@U?$pair@$$CBHPAVCGraphicImage@@@std@@@3@$0A@@std@@@std@@QAE?AU?$pair@V?$_Tree_iterator@V?$_Tree_val@U?$_Tree_simple_types@U?$pair@$$CBHPAVCGraphicImage@@@std@@@std@@@std@@@std@@_N@1@$$QAU?$pair@HPAVCGraphicImage@@@1@@Z DD 0ffffffffH
	DD	FLAT:__unwindfunclet$??$emplace@U?$pair@HPAVCGraphicImage@@@std@@@?$_Tree@V?$_Tmap_traits@HPAVCGraphicImage@@U?$less@H@std@@V?$allocator@U?$pair@$$CBHPAVCGraphicImage@@@std@@@3@$0A@@std@@@std@@QAE?AU?$pair@V?$_Tree_iterator@V?$_Tree_val@U?$_Tree_simple_types@U?$pair@$$CBHPAVCGraphicImage@@@std@@@std@@@std@@@std@@_N@1@$$QAU?$pair@HPAVCGraphicImage@@@1@@Z$2
__ehfuncinfo$??$emplace@U?$pair@HPAVCGraphicImage@@@std@@@?$_Tree@V?$_Tmap_traits@HPAVCGraphicImage@@U?$less@H@std@@V?$allocator@U?$pair@$$CBHPAVCGraphicImage@@@std@@@3@$0A@@std@@@std@@QAE?AU?$pair@V?$_Tree_iterator@V?$_Tree_val@U?$_Tree_simple_types@U?$pair@$$CBHPAVCGraphicImage@@@std@@@std@@@std@@@std@@_N@1@$$QAU?$pair@HPAVCGraphicImage@@@1@@Z DD 019930522H
	DD	01H
	DD	FLAT:__unwindtable$??$emplace@U?$pair@HPAVCGraphicImage@@@std@@@?$_Tree@V?$_Tmap_traits@HPAVCGraphicImage@@U?$less@H@std@@V?$allocator@U?$pair@$$CBHPAVCGraphicImage@@@std@@@3@$0A@@std@@@std@@QAE?AU?$pair@V?$_Tree_iterator@V?$_Tree_val@U?$_Tree_simple_types@U?$pair@$$CBHPAVCGraphicImage@@@std@@@std@@@std@@@std@@_N@1@$$QAU?$pair@HPAVCGraphicImage@@@1@@Z
	DD	2 DUP(00H)
	DD	2 DUP(00H)
	DD	00H
	DD	01H
xdata$x	ENDS
;	COMDAT xdata$x
xdata$x	SEGMENT
__unwindtable$??$_Try_emplace@ABH$$V@?$map@HPAVCGraphicImage@@U?$less@H@std@@V?$allocator@U?$pair@$$CBHPAVCGraphicImage@@@std@@@3@@std@@AAE?AU?$pair@PAU?$_Tree_node@U?$pair@$$CBHPAVCGraphicImage@@@std@@PAX@std@@_N@1@ABH@Z DD 0ffffffffH
	DD	FLAT:__unwindfunclet$??$_Try_emplace@ABH$$V@?$map@HPAVCGraphicImage@@U?$less@H@std@@V?$allocator@U?$pair@$$CBHPAVCGraphicImage@@@std@@@3@@std@@AAE?AU?$pair@PAU?$_Tree_node@U?$pair@$$CBHPAVCGraphicImage@@@std@@PAX@std@@_N@1@ABH@Z$2
__ehfuncinfo$??$_Try_emplace@ABH$$V@?$map@HPAVCGraphicImage@@U?$less@H@std@@V?$allocator@U?$pair@$$CBHPAVCGraphicImage@@@std@@@3@@std@@AAE?AU?$pair@PAU?$_Tree_node@U?$pair@$$CBHPAVCGraphicImage@@@std@@PAX@std@@_N@1@ABH@Z DD 019930522H
	DD	01H
	DD	FLAT:__unwindtable$??$_Try_emplace@ABH$$V@?$map@HPAVCGraphicImage@@U?$less@H@std@@V?$allocator@U?$pair@$$CBHPAVCGraphicImage@@@std@@@3@@std@@AAE?AU?$pair@PAU?$_Tree_node@U?$pair@$$CBHPAVCGraphicImage@@@std@@PAX@std@@_N@1@ABH@Z
	DD	2 DUP(00H)
	DD	2 DUP(00H)
	DD	00H
	DD	01H
xdata$x	ENDS
;	COMDAT xdata$x
xdata$x	SEGMENT
__unwindtable$?playerGetEmotionIconImage@@YAPAU_object@@PAU1@0@Z DD 0ffffffffH
	DD	FLAT:__unwindfunclet$?playerGetEmotionIconImage@@YAPAU_object@@PAU1@0@Z$2
__ehfuncinfo$?playerGetEmotionIconImage@@YAPAU_object@@PAU1@0@Z DD 019930522H
	DD	01H
	DD	FLAT:__unwindtable$?playerGetEmotionIconImage@@YAPAU_object@@PAU1@0@Z
	DD	2 DUP(00H)
	DD	2 DUP(00H)
	DD	00H
	DD	01H
xdata$x	ENDS
;	COMDAT xdata$x
xdata$x	SEGMENT
__unwindtable$??$insert@U?$pair@HPAVCGraphicImage@@@std@@$0A@@?$map@HPAVCGraphicImage@@U?$less@H@std@@V?$allocator@U?$pair@$$CBHPAVCGraphicImage@@@std@@@3@@std@@QAE?AU?$pair@V?$_Tree_iterator@V?$_Tree_val@U?$_Tree_simple_types@U?$pair@$$CBHPAVCGraphicImage@@@std@@@std@@@std@@@std@@_N@1@$$QAU?$pair@HPAVCGraphicImage@@@1@@Z DD 0ffffffffH
	DD	FLAT:__unwindfunclet$??$insert@U?$pair@HPAVCGraphicImage@@@std@@$0A@@?$map@HPAVCGraphicImage@@U?$less@H@std@@V?$allocator@U?$pair@$$CBHPAVCGraphicImage@@@std@@@3@@std@@QAE?AU?$pair@V?$_Tree_iterator@V?$_Tree_val@U?$_Tree_simple_types@U?$pair@$$CBHPAVCGraphicImage@@@std@@@std@@@std@@@std@@_N@1@$$QAU?$pair@HPAVCGraphicImage@@@1@@Z$2
__ehfuncinfo$??$insert@U?$pair@HPAVCGraphicImage@@@std@@$0A@@?$map@HPAVCGraphicImage@@U?$less@H@std@@V?$allocator@U?$pair@$$CBHPAVCGraphicImage@@@std@@@3@@std@@QAE?AU?$pair@V?$_Tree_iterator@V?$_Tree_val@U?$_Tree_simple_types@U?$pair@$$CBHPAVCGraphicImage@@@std@@@std@@@std@@@std@@_N@1@$$QAU?$pair@HPAVCGraphicImage@@@1@@Z DD 019930522H
	DD	01H
	DD	FLAT:__unwindtable$??$insert@U?$pair@HPAVCGraphicImage@@@std@@$0A@@?$map@HPAVCGraphicImage@@U?$less@H@std@@V?$allocator@U?$pair@$$CBHPAVCGraphicImage@@@std@@@3@@std@@QAE?AU?$pair@V?$_Tree_iterator@V?$_Tree_val@U?$_Tree_simple_types@U?$pair@$$CBHPAVCGraphicImage@@@std@@@std@@@std@@@std@@_N@1@$$QAU?$pair@HPAVCGraphicImage@@@1@@Z
	DD	2 DUP(00H)
	DD	2 DUP(00H)
	DD	00H
	DD	01H
xdata$x	ENDS
;	COMDAT xdata$x
xdata$x	SEGMENT
__unwindtable$?playerRegisterEmotionIcon@@YAPAU_object@@PAU1@0@Z DD 0ffffffffH
	DD	FLAT:__unwindfunclet$?playerRegisterEmotionIcon@@YAPAU_object@@PAU1@0@Z$2
__ehfuncinfo$?playerRegisterEmotionIcon@@YAPAU_object@@PAU1@0@Z DD 019930522H
	DD	01H
	DD	FLAT:__unwindtable$?playerRegisterEmotionIcon@@YAPAU_object@@PAU1@0@Z
	DD	2 DUP(00H)
	DD	2 DUP(00H)
	DD	00H
	DD	01H
xdata$x	ENDS
;	COMDAT xdata$x
xdata$x	SEGMENT
__unwindtable$?playerGetGuildName@@YAPAU_object@@PAU1@0@Z DD 0ffffffffH
	DD	FLAT:__unwindfunclet$?playerGetGuildName@@YAPAU_object@@PAU1@0@Z$0
__ehfuncinfo$?playerGetGuildName@@YAPAU_object@@PAU1@0@Z DD 019930522H
	DD	01H
	DD	FLAT:__unwindtable$?playerGetGuildName@@YAPAU_object@@PAU1@0@Z
	DD	2 DUP(00H)
	DD	2 DUP(00H)
	DD	00H
	DD	01H
xdata$x	ENDS
;	COMDAT xdata$x
xdata$x	SEGMENT
__unwindtable$??A?$map@HPAVCGraphicImage@@U?$less@H@std@@V?$allocator@U?$pair@$$CBHPAVCGraphicImage@@@std@@@3@@std@@QAEAAPAVCGraphicImage@@ABH@Z DD 0ffffffffH
	DD	FLAT:__unwindfunclet$??A?$map@HPAVCGraphicImage@@U?$less@H@std@@V?$allocator@U?$pair@$$CBHPAVCGraphicImage@@@std@@@3@@std@@QAEAAPAVCGraphicImage@@ABH@Z$2
__ehfuncinfo$??A?$map@HPAVCGraphicImage@@U?$less@H@std@@V?$allocator@U?$pair@$$CBHPAVCGraphicImage@@@std@@@3@@std@@QAEAAPAVCGraphicImage@@ABH@Z DD 019930522H
	DD	01H
	DD	FLAT:__unwindtable$??A?$map@HPAVCGraphicImage@@U?$less@H@std@@V?$allocator@U?$pair@$$CBHPAVCGraphicImage@@@std@@@3@@std@@QAEAAPAVCGraphicImage@@ABH@Z
	DD	2 DUP(00H)
	DD	2 DUP(00H)
	DD	00H
	DD	01H
xdata$x	ENDS
;	COMDAT CRT$XCU
CRT$XCU	SEGMENT
??ms_kPool$initializer$@?$CPooledObject@VCHeaderDecorator@NEffectUpdateDecorator@@@@1P6AXXZA@@3P6AXXZA DD FLAT:??__E?ms_kPool@?$CPooledObject@VCHeaderDecorator@NEffectUpdateDecorator@@@@1V?$CDynamicPoolEx@VCHeaderDecorator@NEffectUpdateDecorator@@@@A@@YAXXZ ; ??ms_kPool$initializer$@?$CPooledObject@VCHeaderDecorator@NEffectUpdateDecorator@@@@1P6AXXZA@@3P6AXXZA
CRT$XCU	ENDS
;	COMDAT CRT$XCU
CRT$XCU	SEGMENT
??ms_kPool$initializer$@?$CPooledObject@VCNullDecorator@NEffectUpdateDecorator@@@@1P6AXXZA@@3P6AXXZA DD FLAT:??__E?ms_kPool@?$CPooledObject@VCNullDecorator@NEffectUpdateDecorator@@@@1V?$CDynamicPoolEx@VCNullDecorator@NEffectUpdateDecorator@@@@A@@YAXXZ ; ??ms_kPool$initializer$@?$CPooledObject@VCNullDecorator@NEffectUpdateDecorator@@@@1P6AXXZA@@3P6AXXZA
CRT$XCU	ENDS
;	COMDAT CRT$XCU
CRT$XCU	SEGMENT
??ms_kPool$initializer$@?$CPooledObject@VCTextureAnimationCWDecorator@NEffectUpdateDecorator@@@@1P6AXXZA@@3P6AXXZA DD FLAT:??__E?ms_kPool@?$CPooledObject@VCTextureAnimationCWDecorator@NEffectUpdateDecorator@@@@1V?$CDynamicPoolEx@VCTextureAnimationCWDecorator@NEffectUpdateDecorator@@@@A@@YAXXZ ; ??ms_kPool$initializer$@?$CPooledObject@VCTextureAnimationCWDecorator@NEffectUpdateDecorator@@@@1P6AXXZA@@3P6AXXZA
CRT$XCU	ENDS
;	COMDAT CRT$XCU
CRT$XCU	SEGMENT
??ms_kPool$initializer$@?$CPooledObject@VCTextureAnimationCCWDecorator@NEffectUpdateDecorator@@@@1P6AXXZA@@3P6AXXZA DD FLAT:??__E?ms_kPool@?$CPooledObject@VCTextureAnimationCCWDecorator@NEffectUpdateDecorator@@@@1V?$CDynamicPoolEx@VCTextureAnimationCCWDecorator@NEffectUpdateDecorator@@@@A@@YAXXZ ; ??ms_kPool$initializer$@?$CPooledObject@VCTextureAnimationCCWDecorator@NEffectUpdateDecorator@@@@1P6AXXZA@@3P6AXXZA
CRT$XCU	ENDS
;	COMDAT CRT$XCU
CRT$XCU	SEGMENT
??ms_kPool$initializer$@?$CPooledObject@VCTextureAnimationRandomDecorator@NEffectUpdateDecorator@@@@1P6AXXZA@@3P6AXXZA DD FLAT:??__E?ms_kPool@?$CPooledObject@VCTextureAnimationRandomDecorator@NEffectUpdateDecorator@@@@1V?$CDynamicPoolEx@VCTextureAnimationRandomDecorator@NEffectUpdateDecorator@@@@A@@YAXXZ ; ??ms_kPool$initializer$@?$CPooledObject@VCTextureAnimationRandomDecorator@NEffectUpdateDecorator@@@@1P6AXXZA@@3P6AXXZA
CRT$XCU	ENDS
;	COMDAT CRT$XCU
CRT$XCU	SEGMENT
??ms_kPool$initializer$@?$CPooledObject@VCAirResistanceDecorator@NEffectUpdateDecorator@@@@1P6AXXZA@@3P6AXXZA DD FLAT:??__E?ms_kPool@?$CPooledObject@VCAirResistanceDecorator@NEffectUpdateDecorator@@@@1V?$CDynamicPoolEx@VCAirResistanceDecorator@NEffectUpdateDecorator@@@@A@@YAXXZ ; ??ms_kPool$initializer$@?$CPooledObject@VCAirResistanceDecorator@NEffectUpdateDecorator@@@@1P6AXXZA@@3P6AXXZA
CRT$XCU	ENDS
;	COMDAT CRT$XCU
CRT$XCU	SEGMENT
??ms_kPool$initializer$@?$CPooledObject@VCGravityDecorator@NEffectUpdateDecorator@@@@1P6AXXZA@@3P6AXXZA DD FLAT:??__E?ms_kPool@?$CPooledObject@VCGravityDecorator@NEffectUpdateDecorator@@@@1V?$CDynamicPoolEx@VCGravityDecorator@NEffectUpdateDecorator@@@@A@@YAXXZ ; ??ms_kPool$initializer$@?$CPooledObject@VCGravityDecorator@NEffectUpdateDecorator@@@@1P6AXXZA@@3P6AXXZA
CRT$XCU	ENDS
;	COMDAT CRT$XCU
CRT$XCU	SEGMENT
??ms_kPool$initializer$@?$CPooledObject@VCRotationDecorator@NEffectUpdateDecorator@@@@1P6AXXZA@@3P6AXXZA DD FLAT:??__E?ms_kPool@?$CPooledObject@VCRotationDecorator@NEffectUpdateDecorator@@@@1V?$CDynamicPoolEx@VCRotationDecorator@NEffectUpdateDecorator@@@@A@@YAXXZ ; ??ms_kPool$initializer$@?$CPooledObject@VCRotationDecorator@NEffectUpdateDecorator@@@@1P6AXXZA@@3P6AXXZA
CRT$XCU	ENDS
; Function compile flags: /Ogtp
; File C:\Program Files (x86)\Microsoft Visual Studio\2019\Community\VC\Tools\MSVC\14.28.29333\include\xmemory
;	COMDAT ??$_Construct_in_place@PAU?$_Tree_node@U?$pair@$$CBHPAVCGraphicImage@@@std@@PAX@std@@AAPAU12@@std@@YAXAAPAU?$_Tree_node@U?$pair@$$CBHPAVCGraphicImage@@@std@@PAX@0@0@Z
_TEXT	SEGMENT
__Obj$ = 8						; size = 4
_<_Args_0>$ = 12					; size = 4
??$_Construct_in_place@PAU?$_Tree_node@U?$pair@$$CBHPAVCGraphicImage@@@std@@PAX@std@@AAPAU12@@std@@YAXAAPAU?$_Tree_node@U?$pair@$$CBHPAVCGraphicImage@@@std@@PAX@0@0@Z PROC ; std::_Construct_in_place<std::_Tree_node<std::pair<int const ,CGraphicImage *>,void *> *,std::_Tree_node<std::pair<int const ,CGraphicImage *>,void *> * &>, COMDAT

; 228  : void _Construct_in_place(_Ty& _Obj, _Types&&... _Args) noexcept(is_nothrow_constructible_v<_Ty, _Types...>) {

  00000	55		 push	 ebp
  00001	8b ec		 mov	 ebp, esp

; 229  :     ::new (const_cast<void*>(static_cast<const volatile void*>(_STD addressof(_Obj))))

  00003	8b 45 0c	 mov	 eax, DWORD PTR _<_Args_0>$[ebp]
  00006	8b 08		 mov	 ecx, DWORD PTR [eax]
  00008	8b 45 08	 mov	 eax, DWORD PTR __Obj$[ebp]
  0000b	89 08		 mov	 DWORD PTR [eax], ecx

; 230  :         _Ty(_STD forward<_Types>(_Args)...);
; 231  : }

  0000d	5d		 pop	 ebp
  0000e	c3		 ret	 0
??$_Construct_in_place@PAU?$_Tree_node@U?$pair@$$CBHPAVCGraphicImage@@@std@@PAX@std@@AAPAU12@@std@@YAXAAPAU?$_Tree_node@U?$pair@$$CBHPAVCGraphicImage@@@std@@PAX@0@0@Z ENDP ; std::_Construct_in_place<std::_Tree_node<std::pair<int const ,CGraphicImage *>,void *> *,std::_Tree_node<std::pair<int const ,CGraphicImage *>,void *> * &>
_TEXT	ENDS
; Function compile flags: /Ogtp
; File C:\Program Files (x86)\Microsoft Visual Studio\2019\Community\VC\Tools\MSVC\14.28.29333\include\xmemory
;	COMDAT ??$_Destroy_in_place@PAU?$_Tree_node@U?$pair@$$CBHPAVCGraphicImage@@@std@@PAX@std@@@std@@YAXAAPAU?$_Tree_node@U?$pair@$$CBHPAVCGraphicImage@@@std@@PAX@0@@Z
_TEXT	SEGMENT
__Obj$ = 8						; size = 4
??$_Destroy_in_place@PAU?$_Tree_node@U?$pair@$$CBHPAVCGraphicImage@@@std@@PAX@std@@@std@@YAXAAPAU?$_Tree_node@U?$pair@$$CBHPAVCGraphicImage@@@std@@PAX@0@@Z PROC ; std::_Destroy_in_place<std::_Tree_node<std::pair<int const ,CGraphicImage *>,void *> *>, COMDAT

; 271  : #if _HAS_IF_CONSTEXPR
; 272  :     if constexpr (is_array_v<_Ty>) {
; 273  :         _Destroy_range(_Obj, _Obj + extent_v<_Ty>);
; 274  :     } else
; 275  : #endif // _HAS_IF_CONSTEXPR
; 276  :     {
; 277  :         _Obj.~_Ty();
; 278  :     }
; 279  : }

  00000	c2 00 00	 ret	 0
??$_Destroy_in_place@PAU?$_Tree_node@U?$pair@$$CBHPAVCGraphicImage@@@std@@PAX@std@@@std@@YAXAAPAU?$_Tree_node@U?$pair@$$CBHPAVCGraphicImage@@@std@@PAX@0@@Z ENDP ; std::_Destroy_in_place<std::_Tree_node<std::pair<int const ,CGraphicImage *>,void *> *>
_TEXT	ENDS
; Function compile flags: /Ogtp
; File C:\Program Files (x86)\Microsoft Visual Studio\2019\Community\VC\Tools\MSVC\14.28.29333\include\xmemory
;	COMDAT ??$_Construct_in_place@PAU?$_Tree_node@U?$pair@$$CBHPAVCGraphicImage@@@std@@PAX@std@@ABQAU12@@std@@YAXAAPAU?$_Tree_node@U?$pair@$$CBHPAVCGraphicImage@@@std@@PAX@0@ABQAU10@@Z
_TEXT	SEGMENT
__Obj$ = 8						; size = 4
_<_Args_0>$ = 12					; size = 4
??$_Construct_in_place@PAU?$_Tree_node@U?$pair@$$CBHPAVCGraphicImage@@@std@@PAX@std@@ABQAU12@@std@@YAXAAPAU?$_Tree_node@U?$pair@$$CBHPAVCGraphicImage@@@std@@PAX@0@ABQAU10@@Z PROC ; std::_Construct_in_place<std::_Tree_node<std::pair<int const ,CGraphicImage *>,void *> *,std::_Tree_node<std::pair<int const ,CGraphicImage *>,void *> * const &>, COMDAT

; 228  : void _Construct_in_place(_Ty& _Obj, _Types&&... _Args) noexcept(is_nothrow_constructible_v<_Ty, _Types...>) {

  00000	55		 push	 ebp
  00001	8b ec		 mov	 ebp, esp

; 229  :     ::new (const_cast<void*>(static_cast<const volatile void*>(_STD addressof(_Obj))))

  00003	8b 45 0c	 mov	 eax, DWORD PTR _<_Args_0>$[ebp]
  00006	8b 08		 mov	 ecx, DWORD PTR [eax]
  00008	8b 45 08	 mov	 eax, DWORD PTR __Obj$[ebp]
  0000b	89 08		 mov	 DWORD PTR [eax], ecx

; 230  :         _Ty(_STD forward<_Types>(_Args)...);
; 231  : }

  0000d	5d		 pop	 ebp
  0000e	c3		 ret	 0
??$_Construct_in_place@PAU?$_Tree_node@U?$pair@$$CBHPAVCGraphicImage@@@std@@PAX@std@@ABQAU12@@std@@YAXAAPAU?$_Tree_node@U?$pair@$$CBHPAVCGraphicImage@@@std@@PAX@0@ABQAU10@@Z ENDP ; std::_Construct_in_place<std::_Tree_node<std::pair<int const ,CGraphicImage *>,void *> *,std::_Tree_node<std::pair<int const ,CGraphicImage *>,void *> * const &>
_TEXT	ENDS
; Function compile flags: /Ogtp
; File C:\Program Files (x86)\Microsoft Visual Studio\2019\Community\VC\Tools\MSVC\14.28.29333\include\xtree
; File C:\Program Files (x86)\Microsoft Visual Studio\2019\Community\VC\Tools\MSVC\14.28.29333\include\utility
; File C:\Program Files (x86)\Microsoft Visual Studio\2019\Community\VC\Tools\MSVC\14.28.29333\include\xmemory
; File C:\Program Files (x86)\Microsoft Visual Studio\2019\Community\VC\Tools\MSVC\14.28.29333\include\xtree
;	COMDAT ??$_Erase_tree@V?$allocator@U?$_Tree_node@U?$pair@$$CBHPAVCGraphicImage@@@std@@PAX@std@@@std@@@?$_Tree_val@U?$_Tree_simple_types@U?$pair@$$CBHPAVCGraphicImage@@@std@@@std@@@std@@QAEXAAV?$allocator@U?$_Tree_node@U?$pair@$$CBHPAVCGraphicImage@@@std@@PAX@std@@@1@PAU?$_Tree_node@U?$pair@$$CBHPAVCGraphicImage@@@std@@PAX@1@@Z
_TEXT	SEGMENT
__Al$ = 8						; size = 4
__Rootnode$ = 12					; size = 4
??$_Erase_tree@V?$allocator@U?$_Tree_node@U?$pair@$$CBHPAVCGraphicImage@@@std@@PAX@std@@@std@@@?$_Tree_val@U?$_Tree_simple_types@U?$pair@$$CBHPAVCGraphicImage@@@std@@@std@@@std@@QAEXAAV?$allocator@U?$_Tree_node@U?$pair@$$CBHPAVCGraphicImage@@@std@@PAX@std@@@1@PAU?$_Tree_node@U?$pair@$$CBHPAVCGraphicImage@@@std@@PAX@1@@Z PROC ; std::_Tree_val<std::_Tree_simple_types<std::pair<int const ,CGraphicImage *> > >::_Erase_tree<std::allocator<std::_Tree_node<std::pair<int const ,CGraphicImage *>,void *> > >, COMDAT
; _this$ = ecx

; 742  :     void _Erase_tree(_Alnode& _Al, _Nodeptr _Rootnode) noexcept {

  00000	55		 push	 ebp
  00001	8b ec		 mov	 ebp, esp
  00003	53		 push	 ebx
  00004	56		 push	 esi

; 743  :         while (!_Rootnode->_Isnil) { // free subtrees, then node

  00005	8b 75 0c	 mov	 esi, DWORD PTR __Rootnode$[ebp]
  00008	8b d9		 mov	 ebx, ecx
  0000a	80 7e 0d 00	 cmp	 BYTE PTR [esi+13], 0
  0000e	75 25		 jne	 SHORT $LN3@Erase_tree
  00010	57		 push	 edi
  00011	8b 7d 08	 mov	 edi, DWORD PTR __Al$[ebp]
$LL2@Erase_tree:

; 744  :             _Erase_tree(_Al, _Rootnode->_Right);

  00014	ff 76 08	 push	 DWORD PTR [esi+8]
  00017	8b cb		 mov	 ecx, ebx
  00019	57		 push	 edi
  0001a	e8 00 00 00 00	 call	 ??$_Erase_tree@V?$allocator@U?$_Tree_node@U?$pair@$$CBHPAVCGraphicImage@@@std@@PAX@std@@@std@@@?$_Tree_val@U?$_Tree_simple_types@U?$pair@$$CBHPAVCGraphicImage@@@std@@@std@@@std@@QAEXAAV?$allocator@U?$_Tree_node@U?$pair@$$CBHPAVCGraphicImage@@@std@@PAX@std@@@1@PAU?$_Tree_node@U?$pair@$$CBHPAVCGraphicImage@@@std@@PAX@1@@Z ; std::_Tree_val<std::_Tree_simple_types<std::pair<int const ,CGraphicImage *> > >::_Erase_tree<std::allocator<std::_Tree_node<std::pair<int const ,CGraphicImage *>,void *> > >
; File C:\Program Files (x86)\Microsoft Visual Studio\2019\Community\VC\Tools\MSVC\14.28.29333\include\utility

; 598  :     _Ty _Old_val = static_cast<_Ty&&>(_Val);

  0001f	8b c6		 mov	 eax, esi

; 599  :     _Val         = static_cast<_Other&&>(_New_val);

  00021	8b 36		 mov	 esi, DWORD PTR [esi]
; File C:\Program Files (x86)\Microsoft Visual Studio\2019\Community\VC\Tools\MSVC\14.28.29333\include\xmemory

; 696  :         _Deallocate<_New_alignof<value_type>>(_Ptr, sizeof(value_type) * _Count);

  00023	6a 18		 push	 24			; 00000018H
  00025	50		 push	 eax
  00026	e8 00 00 00 00	 call	 ??$_Deallocate@$07$0A@@std@@YAXPAXI@Z ; std::_Deallocate<8,0>
  0002b	83 c4 08	 add	 esp, 8
; File C:\Program Files (x86)\Microsoft Visual Studio\2019\Community\VC\Tools\MSVC\14.28.29333\include\xtree

; 743  :         while (!_Rootnode->_Isnil) { // free subtrees, then node

  0002e	80 7e 0d 00	 cmp	 BYTE PTR [esi+13], 0
  00032	74 e0		 je	 SHORT $LL2@Erase_tree
  00034	5f		 pop	 edi
$LN3@Erase_tree:
  00035	5e		 pop	 esi

; 745  :             _Alnode::value_type::_Freenode(_Al, _STD exchange(_Rootnode, _Rootnode->_Left));
; 746  :         }
; 747  :     }

  00036	5b		 pop	 ebx
  00037	5d		 pop	 ebp
  00038	c2 08 00	 ret	 8
??$_Erase_tree@V?$allocator@U?$_Tree_node@U?$pair@$$CBHPAVCGraphicImage@@@std@@PAX@std@@@std@@@?$_Tree_val@U?$_Tree_simple_types@U?$pair@$$CBHPAVCGraphicImage@@@std@@@std@@@std@@QAEXAAV?$allocator@U?$_Tree_node@U?$pair@$$CBHPAVCGraphicImage@@@std@@PAX@std@@@1@PAU?$_Tree_node@U?$pair@$$CBHPAVCGraphicImage@@@std@@PAX@1@@Z ENDP ; std::_Tree_val<std::_Tree_simple_types<std::pair<int const ,CGraphicImage *> > >::_Erase_tree<std::allocator<std::_Tree_node<std::pair<int const ,CGraphicImage *>,void *> > >
_TEXT	ENDS
; Function compile flags: /Ogtp
; File C:\Program Files (x86)\Microsoft Visual Studio\2019\Community\VC\Tools\MSVC\14.28.29333\include\xmemory
;	COMDAT ??1?$_Alloc_construct_ptr@V?$allocator@U?$_Tree_node@U?$pair@$$CBHPAVCGraphicImage@@@std@@PAX@std@@@std@@@std@@QAE@XZ
_TEXT	SEGMENT
??1?$_Alloc_construct_ptr@V?$allocator@U?$_Tree_node@U?$pair@$$CBHPAVCGraphicImage@@@std@@PAX@std@@@std@@@std@@QAE@XZ PROC ; std::_Alloc_construct_ptr<std::allocator<std::_Tree_node<std::pair<int const ,CGraphicImage *>,void *> > >::~_Alloc_construct_ptr<std::allocator<std::_Tree_node<std::pair<int const ,CGraphicImage *>,void *> > >, COMDAT
; _this$ = ecx

; 1057 :         if (_Ptr) {

  00000	8b 41 04	 mov	 eax, DWORD PTR [ecx+4]
  00003	85 c0		 test	 eax, eax
  00005	74 0b		 je	 SHORT $LN2@Alloc_cons

; 810  :         _Deallocate<_New_alignof<_Ty>>(_Ptr, sizeof(_Ty) * _Count);

  00007	6a 18		 push	 24			; 00000018H
  00009	50		 push	 eax
  0000a	e8 00 00 00 00	 call	 ??$_Deallocate@$07$0A@@std@@YAXPAXI@Z ; std::_Deallocate<8,0>
  0000f	83 c4 08	 add	 esp, 8
$LN2@Alloc_cons:

; 1058 :             _Al.deallocate(_Ptr, 1);
; 1059 :         }
; 1060 :     }

  00012	c3		 ret	 0
??1?$_Alloc_construct_ptr@V?$allocator@U?$_Tree_node@U?$pair@$$CBHPAVCGraphicImage@@@std@@PAX@std@@@std@@@std@@QAE@XZ ENDP ; std::_Alloc_construct_ptr<std::allocator<std::_Tree_node<std::pair<int const ,CGraphicImage *>,void *> > >::~_Alloc_construct_ptr<std::allocator<std::_Tree_node<std::pair<int const ,CGraphicImage *>,void *> > >
_TEXT	ENDS
; Function compile flags: /Ogtp
; File C:\Program Files (x86)\Microsoft Visual Studio\2019\Community\VC\Tools\MSVC\14.28.29333\include\xtree
; File C:\Program Files (x86)\Microsoft Visual Studio\2019\Community\VC\Tools\MSVC\14.28.29333\include\xstddef
; File C:\Program Files (x86)\Microsoft Visual Studio\2019\Community\VC\Tools\MSVC\14.28.29333\include\xtree
; File C:\Program Files (x86)\Microsoft Visual Studio\2019\Community\VC\Tools\MSVC\14.28.29333\include\xstddef
; File C:\Program Files (x86)\Microsoft Visual Studio\2019\Community\VC\Tools\MSVC\14.28.29333\include\xtree
;	COMDAT ??$_Find_lower_bound@H@?$_Tree@V?$_Tmap_traits@HPAVCGraphicImage@@U?$less@H@std@@V?$allocator@U?$pair@$$CBHPAVCGraphicImage@@@std@@@3@$0A@@std@@@std@@IBE?AU?$_Tree_find_result@PAU?$_Tree_node@U?$pair@$$CBHPAVCGraphicImage@@@std@@PAX@std@@@1@ABH@Z
_TEXT	SEGMENT
___$ReturnUdt$ = 8					; size = 4
__Keyval$ = 12						; size = 4
??$_Find_lower_bound@H@?$_Tree@V?$_Tmap_traits@HPAVCGraphicImage@@U?$less@H@std@@V?$allocator@U?$pair@$$CBHPAVCGraphicImage@@@std@@@3@$0A@@std@@@std@@IBE?AU?$_Tree_find_result@PAU?$_Tree_node@U?$pair@$$CBHPAVCGraphicImage@@@std@@PAX@std@@@1@ABH@Z PROC ; std::_Tree<std::_Tmap_traits<int,CGraphicImage *,std::less<int>,std::allocator<std::pair<int const ,CGraphicImage *> >,0> >::_Find_lower_bound<int>, COMDAT
; _this$ = ecx

; 1699 :     _Tree_find_result<_Nodeptr> _Find_lower_bound(const _Keyty& _Keyval) const {

  00000	55		 push	 ebp
  00001	8b ec		 mov	 ebp, esp

; 1700 :         const auto _Scary = _Get_scary();
; 1701 :         _Tree_find_result<_Nodeptr> _Result{{_Scary->_Myhead->_Parent, _Tree_child::_Right}, _Scary->_Myhead};

  00003	8b 09		 mov	 ecx, DWORD PTR [ecx]
  00005	8b 55 08	 mov	 edx, DWORD PTR ___$ReturnUdt$[ebp]
  00008	8b 41 04	 mov	 eax, DWORD PTR [ecx+4]
  0000b	89 02		 mov	 DWORD PTR [edx], eax
  0000d	c7 42 04 00 00
	00 00		 mov	 DWORD PTR [edx+4], 0
  00014	89 4a 08	 mov	 DWORD PTR [edx+8], ecx

; 1702 :         _Nodeptr _Trynode = _Result._Location._Parent;
; 1703 :         while (!_Trynode->_Isnil) {

  00017	80 78 0d 00	 cmp	 BYTE PTR [eax+13], 0
  0001b	75 28		 jne	 SHORT $LN12@Find_lower
; File C:\Program Files (x86)\Microsoft Visual Studio\2019\Community\VC\Tools\MSVC\14.28.29333\include\xstddef

; 127  :         return _Left < _Right;

  0001d	8b 4d 0c	 mov	 ecx, DWORD PTR __Keyval$[ebp]
  00020	56		 push	 esi
  00021	8b 31		 mov	 esi, DWORD PTR [ecx]
$LL2@Find_lower:
; File C:\Program Files (x86)\Microsoft Visual Studio\2019\Community\VC\Tools\MSVC\14.28.29333\include\xtree

; 1704 :             _Result._Location._Parent = _Trynode;

  00023	89 02		 mov	 DWORD PTR [edx], eax
; File C:\Program Files (x86)\Microsoft Visual Studio\2019\Community\VC\Tools\MSVC\14.28.29333\include\xstddef

; 127  :         return _Left < _Right;

  00025	39 70 10	 cmp	 DWORD PTR [eax+16], esi
; File C:\Program Files (x86)\Microsoft Visual Studio\2019\Community\VC\Tools\MSVC\14.28.29333\include\xtree

; 1705 :             if (_DEBUG_LT_PRED(_Getcomp(), _Traits::_Kfn(_Trynode->_Myval), _Keyval)) {

  00028	7d 07		 jge	 SHORT $LN4@Find_lower

; 1706 :                 _Result._Location._Child = _Tree_child::_Right;
; 1707 :                 _Trynode                 = _Trynode->_Right;

  0002a	8b 40 08	 mov	 eax, DWORD PTR [eax+8]
  0002d	33 c9		 xor	 ecx, ecx

; 1708 :             } else {

  0002f	eb 0a		 jmp	 SHORT $LN5@Find_lower
$LN4@Find_lower:

; 1709 :                 _Result._Location._Child = _Tree_child::_Left;
; 1710 :                 _Result._Bound           = _Trynode;

  00031	89 42 08	 mov	 DWORD PTR [edx+8], eax

; 1711 :                 _Trynode                 = _Trynode->_Left;

  00034	b9 01 00 00 00	 mov	 ecx, 1
  00039	8b 00		 mov	 eax, DWORD PTR [eax]
$LN5@Find_lower:

; 1702 :         _Nodeptr _Trynode = _Result._Location._Parent;
; 1703 :         while (!_Trynode->_Isnil) {

  0003b	89 4a 04	 mov	 DWORD PTR [edx+4], ecx
  0003e	80 78 0d 00	 cmp	 BYTE PTR [eax+13], 0
  00042	74 df		 je	 SHORT $LL2@Find_lower

; 1712 :             }
; 1713 :         }
; 1714 : 
; 1715 :         return _Result;

  00044	5e		 pop	 esi
$LN12@Find_lower:

; 1716 :     }

  00045	8b c2		 mov	 eax, edx
  00047	5d		 pop	 ebp
  00048	c2 08 00	 ret	 8
??$_Find_lower_bound@H@?$_Tree@V?$_Tmap_traits@HPAVCGraphicImage@@U?$less@H@std@@V?$allocator@U?$pair@$$CBHPAVCGraphicImage@@@std@@@3@$0A@@std@@@std@@IBE?AU?$_Tree_find_result@PAU?$_Tree_node@U?$pair@$$CBHPAVCGraphicImage@@@std@@PAX@std@@@1@ABH@Z ENDP ; std::_Tree<std::_Tmap_traits<int,CGraphicImage *,std::less<int>,std::allocator<std::pair<int const ,CGraphicImage *> >,0> >::_Find_lower_bound<int>
_TEXT	ENDS
; Function compile flags: /Ogtp
;	COMDAT ??__F?ms_kPool@?$CPooledObject@VCRotationDecorator@NEffectUpdateDecorator@@@@1V?$CDynamicPoolEx@VCRotationDecorator@NEffectUpdateDecorator@@@@A@@YAXXZ
text$yd	SEGMENT
??__F?ms_kPool@?$CPooledObject@VCRotationDecorator@NEffectUpdateDecorator@@@@1V?$CDynamicPoolEx@VCRotationDecorator@NEffectUpdateDecorator@@@@A@@YAXXZ PROC ; `dynamic atexit destructor for 'CPooledObject<NEffectUpdateDecorator::CRotationDecorator>::ms_kPool'', COMDAT
  00000	b9 00 00 00 00	 mov	 ecx, OFFSET ?ms_kPool@?$CPooledObject@VCRotationDecorator@NEffectUpdateDecorator@@@@1V?$CDynamicPoolEx@VCRotationDecorator@NEffectUpdateDecorator@@@@A ; CPooledObject<NEffectUpdateDecorator::CRotationDecorator>::ms_kPool
  00005	e9 00 00 00 00	 jmp	 ??1?$CDynamicPoolEx@VCRotationDecorator@NEffectUpdateDecorator@@@@UAE@XZ ; CDynamicPoolEx<NEffectUpdateDecorator::CRotationDecorator>::~CDynamicPoolEx<NEffectUpdateDecorator::CRotationDecorator>
??__F?ms_kPool@?$CPooledObject@VCRotationDecorator@NEffectUpdateDecorator@@@@1V?$CDynamicPoolEx@VCRotationDecorator@NEffectUpdateDecorator@@@@A@@YAXXZ ENDP ; `dynamic atexit destructor for 'CPooledObject<NEffectUpdateDecorator::CRotationDecorator>::ms_kPool''
text$yd	ENDS
; Function compile flags: /Ogtp
; File D:\Metin2 Server Files\mainline\SRC_2014\Metin2Client\eterLib\Pool.h
;	COMDAT ??__E?ms_kPool@?$CPooledObject@VCRotationDecorator@NEffectUpdateDecorator@@@@1V?$CDynamicPoolEx@VCRotationDecorator@NEffectUpdateDecorator@@@@A@@YAXXZ
text$di	SEGMENT
??__E?ms_kPool@?$CPooledObject@VCRotationDecorator@NEffectUpdateDecorator@@@@1V?$CDynamicPoolEx@VCRotationDecorator@NEffectUpdateDecorator@@@@A@@YAXXZ PROC ; `dynamic initializer for 'CPooledObject<NEffectUpdateDecorator::CRotationDecorator>::ms_kPool'', COMDAT

; 272  : template <class T> CDynamicPoolEx<T> CPooledObject<T>::ms_kPool;

  00000	68 00 00 00 00	 push	 OFFSET ??__F?ms_kPool@?$CPooledObject@VCRotationDecorator@NEffectUpdateDecorator@@@@1V?$CDynamicPoolEx@VCRotationDecorator@NEffectUpdateDecorator@@@@A@@YAXXZ ; `dynamic atexit destructor for 'CPooledObject<NEffectUpdateDecorator::CRotationDecorator>::ms_kPool''
  00005	e8 00 00 00 00	 call	 _atexit
  0000a	59		 pop	 ecx
  0000b	c3		 ret	 0
??__E?ms_kPool@?$CPooledObject@VCRotationDecorator@NEffectUpdateDecorator@@@@1V?$CDynamicPoolEx@VCRotationDecorator@NEffectUpdateDecorator@@@@A@@YAXXZ ENDP ; `dynamic initializer for 'CPooledObject<NEffectUpdateDecorator::CRotationDecorator>::ms_kPool''
text$di	ENDS
; Function compile flags: /Ogtp
;	COMDAT ??__F?ms_kPool@?$CPooledObject@VCGravityDecorator@NEffectUpdateDecorator@@@@1V?$CDynamicPoolEx@VCGravityDecorator@NEffectUpdateDecorator@@@@A@@YAXXZ
text$yd	SEGMENT
??__F?ms_kPool@?$CPooledObject@VCGravityDecorator@NEffectUpdateDecorator@@@@1V?$CDynamicPoolEx@VCGravityDecorator@NEffectUpdateDecorator@@@@A@@YAXXZ PROC ; `dynamic atexit destructor for 'CPooledObject<NEffectUpdateDecorator::CGravityDecorator>::ms_kPool'', COMDAT
  00000	b9 00 00 00 00	 mov	 ecx, OFFSET ?ms_kPool@?$CPooledObject@VCGravityDecorator@NEffectUpdateDecorator@@@@1V?$CDynamicPoolEx@VCGravityDecorator@NEffectUpdateDecorator@@@@A ; CPooledObject<NEffectUpdateDecorator::CGravityDecorator>::ms_kPool
  00005	e9 00 00 00 00	 jmp	 ??1?$CDynamicPoolEx@VCGravityDecorator@NEffectUpdateDecorator@@@@UAE@XZ ; CDynamicPoolEx<NEffectUpdateDecorator::CGravityDecorator>::~CDynamicPoolEx<NEffectUpdateDecorator::CGravityDecorator>
??__F?ms_kPool@?$CPooledObject@VCGravityDecorator@NEffectUpdateDecorator@@@@1V?$CDynamicPoolEx@VCGravityDecorator@NEffectUpdateDecorator@@@@A@@YAXXZ ENDP ; `dynamic atexit destructor for 'CPooledObject<NEffectUpdateDecorator::CGravityDecorator>::ms_kPool''
text$yd	ENDS
; Function compile flags: /Ogtp
; File D:\Metin2 Server Files\mainline\SRC_2014\Metin2Client\eterLib\Pool.h
;	COMDAT ??__E?ms_kPool@?$CPooledObject@VCGravityDecorator@NEffectUpdateDecorator@@@@1V?$CDynamicPoolEx@VCGravityDecorator@NEffectUpdateDecorator@@@@A@@YAXXZ
text$di	SEGMENT
??__E?ms_kPool@?$CPooledObject@VCGravityDecorator@NEffectUpdateDecorator@@@@1V?$CDynamicPoolEx@VCGravityDecorator@NEffectUpdateDecorator@@@@A@@YAXXZ PROC ; `dynamic initializer for 'CPooledObject<NEffectUpdateDecorator::CGravityDecorator>::ms_kPool'', COMDAT

; 272  : template <class T> CDynamicPoolEx<T> CPooledObject<T>::ms_kPool;

  00000	68 00 00 00 00	 push	 OFFSET ??__F?ms_kPool@?$CPooledObject@VCGravityDecorator@NEffectUpdateDecorator@@@@1V?$CDynamicPoolEx@VCGravityDecorator@NEffectUpdateDecorator@@@@A@@YAXXZ ; `dynamic atexit destructor for 'CPooledObject<NEffectUpdateDecorator::CGravityDecorator>::ms_kPool''
  00005	e8 00 00 00 00	 call	 _atexit
  0000a	59		 pop	 ecx
  0000b	c3		 ret	 0
??__E?ms_kPool@?$CPooledObject@VCGravityDecorator@NEffectUpdateDecorator@@@@1V?$CDynamicPoolEx@VCGravityDecorator@NEffectUpdateDecorator@@@@A@@YAXXZ ENDP ; `dynamic initializer for 'CPooledObject<NEffectUpdateDecorator::CGravityDecorator>::ms_kPool''
text$di	ENDS
; Function compile flags: /Ogtp
;	COMDAT ??__F?ms_kPool@?$CPooledObject@VCAirResistanceDecorator@NEffectUpdateDecorator@@@@1V?$CDynamicPoolEx@VCAirResistanceDecorator@NEffectUpdateDecorator@@@@A@@YAXXZ
text$yd	SEGMENT
??__F?ms_kPool@?$CPooledObject@VCAirResistanceDecorator@NEffectUpdateDecorator@@@@1V?$CDynamicPoolEx@VCAirResistanceDecorator@NEffectUpdateDecorator@@@@A@@YAXXZ PROC ; `dynamic atexit destructor for 'CPooledObject<NEffectUpdateDecorator::CAirResistanceDecorator>::ms_kPool'', COMDAT
  00000	b9 00 00 00 00	 mov	 ecx, OFFSET ?ms_kPool@?$CPooledObject@VCAirResistanceDecorator@NEffectUpdateDecorator@@@@1V?$CDynamicPoolEx@VCAirResistanceDecorator@NEffectUpdateDecorator@@@@A ; CPooledObject<NEffectUpdateDecorator::CAirResistanceDecorator>::ms_kPool
  00005	e9 00 00 00 00	 jmp	 ??1?$CDynamicPoolEx@VCAirResistanceDecorator@NEffectUpdateDecorator@@@@UAE@XZ ; CDynamicPoolEx<NEffectUpdateDecorator::CAirResistanceDecorator>::~CDynamicPoolEx<NEffectUpdateDecorator::CAirResistanceDecorator>
??__F?ms_kPool@?$CPooledObject@VCAirResistanceDecorator@NEffectUpdateDecorator@@@@1V?$CDynamicPoolEx@VCAirResistanceDecorator@NEffectUpdateDecorator@@@@A@@YAXXZ ENDP ; `dynamic atexit destructor for 'CPooledObject<NEffectUpdateDecorator::CAirResistanceDecorator>::ms_kPool''
text$yd	ENDS
; Function compile flags: /Ogtp
; File D:\Metin2 Server Files\mainline\SRC_2014\Metin2Client\eterLib\Pool.h
;	COMDAT ??__E?ms_kPool@?$CPooledObject@VCAirResistanceDecorator@NEffectUpdateDecorator@@@@1V?$CDynamicPoolEx@VCAirResistanceDecorator@NEffectUpdateDecorator@@@@A@@YAXXZ
text$di	SEGMENT
??__E?ms_kPool@?$CPooledObject@VCAirResistanceDecorator@NEffectUpdateDecorator@@@@1V?$CDynamicPoolEx@VCAirResistanceDecorator@NEffectUpdateDecorator@@@@A@@YAXXZ PROC ; `dynamic initializer for 'CPooledObject<NEffectUpdateDecorator::CAirResistanceDecorator>::ms_kPool'', COMDAT

; 272  : template <class T> CDynamicPoolEx<T> CPooledObject<T>::ms_kPool;

  00000	68 00 00 00 00	 push	 OFFSET ??__F?ms_kPool@?$CPooledObject@VCAirResistanceDecorator@NEffectUpdateDecorator@@@@1V?$CDynamicPoolEx@VCAirResistanceDecorator@NEffectUpdateDecorator@@@@A@@YAXXZ ; `dynamic atexit destructor for 'CPooledObject<NEffectUpdateDecorator::CAirResistanceDecorator>::ms_kPool''
  00005	e8 00 00 00 00	 call	 _atexit
  0000a	59		 pop	 ecx
  0000b	c3		 ret	 0
??__E?ms_kPool@?$CPooledObject@VCAirResistanceDecorator@NEffectUpdateDecorator@@@@1V?$CDynamicPoolEx@VCAirResistanceDecorator@NEffectUpdateDecorator@@@@A@@YAXXZ ENDP ; `dynamic initializer for 'CPooledObject<NEffectUpdateDecorator::CAirResistanceDecorator>::ms_kPool''
text$di	ENDS
; Function compile flags: /Ogtp
;	COMDAT ??__F?ms_kPool@?$CPooledObject@VCTextureAnimationRandomDecorator@NEffectUpdateDecorator@@@@1V?$CDynamicPoolEx@VCTextureAnimationRandomDecorator@NEffectUpdateDecorator@@@@A@@YAXXZ
text$yd	SEGMENT
??__F?ms_kPool@?$CPooledObject@VCTextureAnimationRandomDecorator@NEffectUpdateDecorator@@@@1V?$CDynamicPoolEx@VCTextureAnimationRandomDecorator@NEffectUpdateDecorator@@@@A@@YAXXZ PROC ; `dynamic atexit destructor for 'CPooledObject<NEffectUpdateDecorator::CTextureAnimationRandomDecorator>::ms_kPool'', COMDAT
  00000	b9 00 00 00 00	 mov	 ecx, OFFSET ?ms_kPool@?$CPooledObject@VCTextureAnimationRandomDecorator@NEffectUpdateDecorator@@@@1V?$CDynamicPoolEx@VCTextureAnimationRandomDecorator@NEffectUpdateDecorator@@@@A ; CPooledObject<NEffectUpdateDecorator::CTextureAnimationRandomDecorator>::ms_kPool
  00005	e9 00 00 00 00	 jmp	 ??1?$CDynamicPoolEx@VCTextureAnimationRandomDecorator@NEffectUpdateDecorator@@@@UAE@XZ ; CDynamicPoolEx<NEffectUpdateDecorator::CTextureAnimationRandomDecorator>::~CDynamicPoolEx<NEffectUpdateDecorator::CTextureAnimationRandomDecorator>
??__F?ms_kPool@?$CPooledObject@VCTextureAnimationRandomDecorator@NEffectUpdateDecorator@@@@1V?$CDynamicPoolEx@VCTextureAnimationRandomDecorator@NEffectUpdateDecorator@@@@A@@YAXXZ ENDP ; `dynamic atexit destructor for 'CPooledObject<NEffectUpdateDecorator::CTextureAnimationRandomDecorator>::ms_kPool''
text$yd	ENDS
; Function compile flags: /Ogtp
; File D:\Metin2 Server Files\mainline\SRC_2014\Metin2Client\eterLib\Pool.h
;	COMDAT ??__E?ms_kPool@?$CPooledObject@VCTextureAnimationRandomDecorator@NEffectUpdateDecorator@@@@1V?$CDynamicPoolEx@VCTextureAnimationRandomDecorator@NEffectUpdateDecorator@@@@A@@YAXXZ
text$di	SEGMENT
??__E?ms_kPool@?$CPooledObject@VCTextureAnimationRandomDecorator@NEffectUpdateDecorator@@@@1V?$CDynamicPoolEx@VCTextureAnimationRandomDecorator@NEffectUpdateDecorator@@@@A@@YAXXZ PROC ; `dynamic initializer for 'CPooledObject<NEffectUpdateDecorator::CTextureAnimationRandomDecorator>::ms_kPool'', COMDAT

; 272  : template <class T> CDynamicPoolEx<T> CPooledObject<T>::ms_kPool;

  00000	68 00 00 00 00	 push	 OFFSET ??__F?ms_kPool@?$CPooledObject@VCTextureAnimationRandomDecorator@NEffectUpdateDecorator@@@@1V?$CDynamicPoolEx@VCTextureAnimationRandomDecorator@NEffectUpdateDecorator@@@@A@@YAXXZ ; `dynamic atexit destructor for 'CPooledObject<NEffectUpdateDecorator::CTextureAnimationRandomDecorator>::ms_kPool''
  00005	e8 00 00 00 00	 call	 _atexit
  0000a	59		 pop	 ecx
  0000b	c3		 ret	 0
??__E?ms_kPool@?$CPooledObject@VCTextureAnimationRandomDecorator@NEffectUpdateDecorator@@@@1V?$CDynamicPoolEx@VCTextureAnimationRandomDecorator@NEffectUpdateDecorator@@@@A@@YAXXZ ENDP ; `dynamic initializer for 'CPooledObject<NEffectUpdateDecorator::CTextureAnimationRandomDecorator>::ms_kPool''
text$di	ENDS
; Function compile flags: /Ogtp
;	COMDAT ??__F?ms_kPool@?$CPooledObject@VCTextureAnimationCCWDecorator@NEffectUpdateDecorator@@@@1V?$CDynamicPoolEx@VCTextureAnimationCCWDecorator@NEffectUpdateDecorator@@@@A@@YAXXZ
text$yd	SEGMENT
??__F?ms_kPool@?$CPooledObject@VCTextureAnimationCCWDecorator@NEffectUpdateDecorator@@@@1V?$CDynamicPoolEx@VCTextureAnimationCCWDecorator@NEffectUpdateDecorator@@@@A@@YAXXZ PROC ; `dynamic atexit destructor for 'CPooledObject<NEffectUpdateDecorator::CTextureAnimationCCWDecorator>::ms_kPool'', COMDAT
  00000	b9 00 00 00 00	 mov	 ecx, OFFSET ?ms_kPool@?$CPooledObject@VCTextureAnimationCCWDecorator@NEffectUpdateDecorator@@@@1V?$CDynamicPoolEx@VCTextureAnimationCCWDecorator@NEffectUpdateDecorator@@@@A ; CPooledObject<NEffectUpdateDecorator::CTextureAnimationCCWDecorator>::ms_kPool
  00005	e9 00 00 00 00	 jmp	 ??1?$CDynamicPoolEx@VCTextureAnimationCCWDecorator@NEffectUpdateDecorator@@@@UAE@XZ ; CDynamicPoolEx<NEffectUpdateDecorator::CTextureAnimationCCWDecorator>::~CDynamicPoolEx<NEffectUpdateDecorator::CTextureAnimationCCWDecorator>
??__F?ms_kPool@?$CPooledObject@VCTextureAnimationCCWDecorator@NEffectUpdateDecorator@@@@1V?$CDynamicPoolEx@VCTextureAnimationCCWDecorator@NEffectUpdateDecorator@@@@A@@YAXXZ ENDP ; `dynamic atexit destructor for 'CPooledObject<NEffectUpdateDecorator::CTextureAnimationCCWDecorator>::ms_kPool''
text$yd	ENDS
; Function compile flags: /Ogtp
; File D:\Metin2 Server Files\mainline\SRC_2014\Metin2Client\eterLib\Pool.h
;	COMDAT ??__E?ms_kPool@?$CPooledObject@VCTextureAnimationCCWDecorator@NEffectUpdateDecorator@@@@1V?$CDynamicPoolEx@VCTextureAnimationCCWDecorator@NEffectUpdateDecorator@@@@A@@YAXXZ
text$di	SEGMENT
??__E?ms_kPool@?$CPooledObject@VCTextureAnimationCCWDecorator@NEffectUpdateDecorator@@@@1V?$CDynamicPoolEx@VCTextureAnimationCCWDecorator@NEffectUpdateDecorator@@@@A@@YAXXZ PROC ; `dynamic initializer for 'CPooledObject<NEffectUpdateDecorator::CTextureAnimationCCWDecorator>::ms_kPool'', COMDAT

; 272  : template <class T> CDynamicPoolEx<T> CPooledObject<T>::ms_kPool;

  00000	68 00 00 00 00	 push	 OFFSET ??__F?ms_kPool@?$CPooledObject@VCTextureAnimationCCWDecorator@NEffectUpdateDecorator@@@@1V?$CDynamicPoolEx@VCTextureAnimationCCWDecorator@NEffectUpdateDecorator@@@@A@@YAXXZ ; `dynamic atexit destructor for 'CPooledObject<NEffectUpdateDecorator::CTextureAnimationCCWDecorator>::ms_kPool''
  00005	e8 00 00 00 00	 call	 _atexit
  0000a	59		 pop	 ecx
  0000b	c3		 ret	 0
??__E?ms_kPool@?$CPooledObject@VCTextureAnimationCCWDecorator@NEffectUpdateDecorator@@@@1V?$CDynamicPoolEx@VCTextureAnimationCCWDecorator@NEffectUpdateDecorator@@@@A@@YAXXZ ENDP ; `dynamic initializer for 'CPooledObject<NEffectUpdateDecorator::CTextureAnimationCCWDecorator>::ms_kPool''
text$di	ENDS
; Function compile flags: /Ogtp
;	COMDAT ??__F?ms_kPool@?$CPooledObject@VCTextureAnimationCWDecorator@NEffectUpdateDecorator@@@@1V?$CDynamicPoolEx@VCTextureAnimationCWDecorator@NEffectUpdateDecorator@@@@A@@YAXXZ
text$yd	SEGMENT
??__F?ms_kPool@?$CPooledObject@VCTextureAnimationCWDecorator@NEffectUpdateDecorator@@@@1V?$CDynamicPoolEx@VCTextureAnimationCWDecorator@NEffectUpdateDecorator@@@@A@@YAXXZ PROC ; `dynamic atexit destructor for 'CPooledObject<NEffectUpdateDecorator::CTextureAnimationCWDecorator>::ms_kPool'', COMDAT
  00000	b9 00 00 00 00	 mov	 ecx, OFFSET ?ms_kPool@?$CPooledObject@VCTextureAnimationCWDecorator@NEffectUpdateDecorator@@@@1V?$CDynamicPoolEx@VCTextureAnimationCWDecorator@NEffectUpdateDecorator@@@@A ; CPooledObject<NEffectUpdateDecorator::CTextureAnimationCWDecorator>::ms_kPool
  00005	e9 00 00 00 00	 jmp	 ??1?$CDynamicPoolEx@VCTextureAnimationCWDecorator@NEffectUpdateDecorator@@@@UAE@XZ ; CDynamicPoolEx<NEffectUpdateDecorator::CTextureAnimationCWDecorator>::~CDynamicPoolEx<NEffectUpdateDecorator::CTextureAnimationCWDecorator>
??__F?ms_kPool@?$CPooledObject@VCTextureAnimationCWDecorator@NEffectUpdateDecorator@@@@1V?$CDynamicPoolEx@VCTextureAnimationCWDecorator@NEffectUpdateDecorator@@@@A@@YAXXZ ENDP ; `dynamic atexit destructor for 'CPooledObject<NEffectUpdateDecorator::CTextureAnimationCWDecorator>::ms_kPool''
text$yd	ENDS
; Function compile flags: /Ogtp
; File D:\Metin2 Server Files\mainline\SRC_2014\Metin2Client\eterLib\Pool.h
;	COMDAT ??__E?ms_kPool@?$CPooledObject@VCTextureAnimationCWDecorator@NEffectUpdateDecorator@@@@1V?$CDynamicPoolEx@VCTextureAnimationCWDecorator@NEffectUpdateDecorator@@@@A@@YAXXZ
text$di	SEGMENT
??__E?ms_kPool@?$CPooledObject@VCTextureAnimationCWDecorator@NEffectUpdateDecorator@@@@1V?$CDynamicPoolEx@VCTextureAnimationCWDecorator@NEffectUpdateDecorator@@@@A@@YAXXZ PROC ; `dynamic initializer for 'CPooledObject<NEffectUpdateDecorator::CTextureAnimationCWDecorator>::ms_kPool'', COMDAT

; 272  : template <class T> CDynamicPoolEx<T> CPooledObject<T>::ms_kPool;

  00000	68 00 00 00 00	 push	 OFFSET ??__F?ms_kPool@?$CPooledObject@VCTextureAnimationCWDecorator@NEffectUpdateDecorator@@@@1V?$CDynamicPoolEx@VCTextureAnimationCWDecorator@NEffectUpdateDecorator@@@@A@@YAXXZ ; `dynamic atexit destructor for 'CPooledObject<NEffectUpdateDecorator::CTextureAnimationCWDecorator>::ms_kPool''
  00005	e8 00 00 00 00	 call	 _atexit
  0000a	59		 pop	 ecx
  0000b	c3		 ret	 0
??__E?ms_kPool@?$CPooledObject@VCTextureAnimationCWDecorator@NEffectUpdateDecorator@@@@1V?$CDynamicPoolEx@VCTextureAnimationCWDecorator@NEffectUpdateDecorator@@@@A@@YAXXZ ENDP ; `dynamic initializer for 'CPooledObject<NEffectUpdateDecorator::CTextureAnimationCWDecorator>::ms_kPool''
text$di	ENDS
; Function compile flags: /Ogtp
;	COMDAT ??__F?ms_kPool@?$CPooledObject@VCNullDecorator@NEffectUpdateDecorator@@@@1V?$CDynamicPoolEx@VCNullDecorator@NEffectUpdateDecorator@@@@A@@YAXXZ
text$yd	SEGMENT
??__F?ms_kPool@?$CPooledObject@VCNullDecorator@NEffectUpdateDecorator@@@@1V?$CDynamicPoolEx@VCNullDecorator@NEffectUpdateDecorator@@@@A@@YAXXZ PROC ; `dynamic atexit destructor for 'CPooledObject<NEffectUpdateDecorator::CNullDecorator>::ms_kPool'', COMDAT
  00000	b9 00 00 00 00	 mov	 ecx, OFFSET ?ms_kPool@?$CPooledObject@VCNullDecorator@NEffectUpdateDecorator@@@@1V?$CDynamicPoolEx@VCNullDecorator@NEffectUpdateDecorator@@@@A ; CPooledObject<NEffectUpdateDecorator::CNullDecorator>::ms_kPool
  00005	e9 00 00 00 00	 jmp	 ??1?$CDynamicPoolEx@VCNullDecorator@NEffectUpdateDecorator@@@@UAE@XZ ; CDynamicPoolEx<NEffectUpdateDecorator::CNullDecorator>::~CDynamicPoolEx<NEffectUpdateDecorator::CNullDecorator>
??__F?ms_kPool@?$CPooledObject@VCNullDecorator@NEffectUpdateDecorator@@@@1V?$CDynamicPoolEx@VCNullDecorator@NEffectUpdateDecorator@@@@A@@YAXXZ ENDP ; `dynamic atexit destructor for 'CPooledObject<NEffectUpdateDecorator::CNullDecorator>::ms_kPool''
text$yd	ENDS
; Function compile flags: /Ogtp
; File D:\Metin2 Server Files\mainline\SRC_2014\Metin2Client\eterLib\Pool.h
;	COMDAT ??__E?ms_kPool@?$CPooledObject@VCNullDecorator@NEffectUpdateDecorator@@@@1V?$CDynamicPoolEx@VCNullDecorator@NEffectUpdateDecorator@@@@A@@YAXXZ
text$di	SEGMENT
??__E?ms_kPool@?$CPooledObject@VCNullDecorator@NEffectUpdateDecorator@@@@1V?$CDynamicPoolEx@VCNullDecorator@NEffectUpdateDecorator@@@@A@@YAXXZ PROC ; `dynamic initializer for 'CPooledObject<NEffectUpdateDecorator::CNullDecorator>::ms_kPool'', COMDAT

; 272  : template <class T> CDynamicPoolEx<T> CPooledObject<T>::ms_kPool;

  00000	68 00 00 00 00	 push	 OFFSET ??__F?ms_kPool@?$CPooledObject@VCNullDecorator@NEffectUpdateDecorator@@@@1V?$CDynamicPoolEx@VCNullDecorator@NEffectUpdateDecorator@@@@A@@YAXXZ ; `dynamic atexit destructor for 'CPooledObject<NEffectUpdateDecorator::CNullDecorator>::ms_kPool''
  00005	e8 00 00 00 00	 call	 _atexit
  0000a	59		 pop	 ecx
  0000b	c3		 ret	 0
??__E?ms_kPool@?$CPooledObject@VCNullDecorator@NEffectUpdateDecorator@@@@1V?$CDynamicPoolEx@VCNullDecorator@NEffectUpdateDecorator@@@@A@@YAXXZ ENDP ; `dynamic initializer for 'CPooledObject<NEffectUpdateDecorator::CNullDecorator>::ms_kPool''
text$di	ENDS
; Function compile flags: /Ogtp
;	COMDAT ??__F?ms_kPool@?$CPooledObject@VCHeaderDecorator@NEffectUpdateDecorator@@@@1V?$CDynamicPoolEx@VCHeaderDecorator@NEffectUpdateDecorator@@@@A@@YAXXZ
text$yd	SEGMENT
??__F?ms_kPool@?$CPooledObject@VCHeaderDecorator@NEffectUpdateDecorator@@@@1V?$CDynamicPoolEx@VCHeaderDecorator@NEffectUpdateDecorator@@@@A@@YAXXZ PROC ; `dynamic atexit destructor for 'CPooledObject<NEffectUpdateDecorator::CHeaderDecorator>::ms_kPool'', COMDAT
  00000	b9 00 00 00 00	 mov	 ecx, OFFSET ?ms_kPool@?$CPooledObject@VCHeaderDecorator@NEffectUpdateDecorator@@@@1V?$CDynamicPoolEx@VCHeaderDecorator@NEffectUpdateDecorator@@@@A ; CPooledObject<NEffectUpdateDecorator::CHeaderDecorator>::ms_kPool
  00005	e9 00 00 00 00	 jmp	 ??1?$CDynamicPoolEx@VCHeaderDecorator@NEffectUpdateDecorator@@@@UAE@XZ ; CDynamicPoolEx<NEffectUpdateDecorator::CHeaderDecorator>::~CDynamicPoolEx<NEffectUpdateDecorator::CHeaderDecorator>
??__F?ms_kPool@?$CPooledObject@VCHeaderDecorator@NEffectUpdateDecorator@@@@1V?$CDynamicPoolEx@VCHeaderDecorator@NEffectUpdateDecorator@@@@A@@YAXXZ ENDP ; `dynamic atexit destructor for 'CPooledObject<NEffectUpdateDecorator::CHeaderDecorator>::ms_kPool''
text$yd	ENDS
; Function compile flags: /Ogtp
; File D:\Metin2 Server Files\mainline\SRC_2014\Metin2Client\eterLib\Pool.h
;	COMDAT ??__E?ms_kPool@?$CPooledObject@VCHeaderDecorator@NEffectUpdateDecorator@@@@1V?$CDynamicPoolEx@VCHeaderDecorator@NEffectUpdateDecorator@@@@A@@YAXXZ
text$di	SEGMENT
??__E?ms_kPool@?$CPooledObject@VCHeaderDecorator@NEffectUpdateDecorator@@@@1V?$CDynamicPoolEx@VCHeaderDecorator@NEffectUpdateDecorator@@@@A@@YAXXZ PROC ; `dynamic initializer for 'CPooledObject<NEffectUpdateDecorator::CHeaderDecorator>::ms_kPool'', COMDAT

; 272  : template <class T> CDynamicPoolEx<T> CPooledObject<T>::ms_kPool;

  00000	68 00 00 00 00	 push	 OFFSET ??__F?ms_kPool@?$CPooledObject@VCHeaderDecorator@NEffectUpdateDecorator@@@@1V?$CDynamicPoolEx@VCHeaderDecorator@NEffectUpdateDecorator@@@@A@@YAXXZ ; `dynamic atexit destructor for 'CPooledObject<NEffectUpdateDecorator::CHeaderDecorator>::ms_kPool''
  00005	e8 00 00 00 00	 call	 _atexit
  0000a	59		 pop	 ecx
  0000b	c3		 ret	 0
??__E?ms_kPool@?$CPooledObject@VCHeaderDecorator@NEffectUpdateDecorator@@@@1V?$CDynamicPoolEx@VCHeaderDecorator@NEffectUpdateDecorator@@@@A@@YAXXZ ENDP ; `dynamic initializer for 'CPooledObject<NEffectUpdateDecorator::CHeaderDecorator>::ms_kPool''
text$di	ENDS
; Function compile flags: /Ogtp
; File C:\Program Files (x86)\Microsoft Visual Studio\2019\Community\VC\Tools\MSVC\14.28.29333\include\xmemory
;	COMDAT ??$_Destroy_range@V?$allocator@PAVCRotationDecorator@NEffectUpdateDecorator@@@std@@@std@@YAXPAPAVCRotationDecorator@NEffectUpdateDecorator@@QAPAV12@AAV?$allocator@PAVCRotationDecorator@NEffectUpdateDecorator@@@0@@Z
_TEXT	SEGMENT
__First$ = 8						; size = 4
__Last$ = 12						; size = 4
__Al$ = 16						; size = 4
??$_Destroy_range@V?$allocator@PAVCRotationDecorator@NEffectUpdateDecorator@@@std@@@std@@YAXPAPAVCRotationDecorator@NEffectUpdateDecorator@@QAPAV12@AAV?$allocator@PAVCRotationDecorator@NEffectUpdateDecorator@@@0@@Z PROC ; std::_Destroy_range<std::allocator<NEffectUpdateDecorator::CRotationDecorator *> >, COMDAT

; 963  :     // note that this is an optimization for debug mode codegen; in release mode the BE removes all of this
; 964  :     using _Ty = typename _Alloc::value_type;
; 965  :     if _CONSTEXPR_IF (!conjunction_v<is_trivially_destructible<_Ty>, _Uses_default_destroy<_Alloc, _Ty*>>) {
; 966  :         for (; _First != _Last; ++_First) {
; 967  :             allocator_traits<_Alloc>::destroy(_Al, _Unfancy(_First));
; 968  :         }
; 969  :     }
; 970  : }

  00000	c2 00 00	 ret	 0
??$_Destroy_range@V?$allocator@PAVCRotationDecorator@NEffectUpdateDecorator@@@std@@@std@@YAXPAPAVCRotationDecorator@NEffectUpdateDecorator@@QAPAV12@AAV?$allocator@PAVCRotationDecorator@NEffectUpdateDecorator@@@0@@Z ENDP ; std::_Destroy_range<std::allocator<NEffectUpdateDecorator::CRotationDecorator *> >
_TEXT	ENDS
; Function compile flags: /Ogtp
; File C:\Program Files (x86)\Microsoft Visual Studio\2019\Community\VC\Tools\MSVC\14.28.29333\include\xmemory
;	COMDAT ??$_Destroy_range@V?$allocator@PAVCGravityDecorator@NEffectUpdateDecorator@@@std@@@std@@YAXPAPAVCGravityDecorator@NEffectUpdateDecorator@@QAPAV12@AAV?$allocator@PAVCGravityDecorator@NEffectUpdateDecorator@@@0@@Z
_TEXT	SEGMENT
__First$ = 8						; size = 4
__Last$ = 12						; size = 4
__Al$ = 16						; size = 4
??$_Destroy_range@V?$allocator@PAVCGravityDecorator@NEffectUpdateDecorator@@@std@@@std@@YAXPAPAVCGravityDecorator@NEffectUpdateDecorator@@QAPAV12@AAV?$allocator@PAVCGravityDecorator@NEffectUpdateDecorator@@@0@@Z PROC ; std::_Destroy_range<std::allocator<NEffectUpdateDecorator::CGravityDecorator *> >, COMDAT

; 963  :     // note that this is an optimization for debug mode codegen; in release mode the BE removes all of this
; 964  :     using _Ty = typename _Alloc::value_type;
; 965  :     if _CONSTEXPR_IF (!conjunction_v<is_trivially_destructible<_Ty>, _Uses_default_destroy<_Alloc, _Ty*>>) {
; 966  :         for (; _First != _Last; ++_First) {
; 967  :             allocator_traits<_Alloc>::destroy(_Al, _Unfancy(_First));
; 968  :         }
; 969  :     }
; 970  : }

  00000	c2 00 00	 ret	 0
??$_Destroy_range@V?$allocator@PAVCGravityDecorator@NEffectUpdateDecorator@@@std@@@std@@YAXPAPAVCGravityDecorator@NEffectUpdateDecorator@@QAPAV12@AAV?$allocator@PAVCGravityDecorator@NEffectUpdateDecorator@@@0@@Z ENDP ; std::_Destroy_range<std::allocator<NEffectUpdateDecorator::CGravityDecorator *> >
_TEXT	ENDS
; Function compile flags: /Ogtp
; File C:\Program Files (x86)\Microsoft Visual Studio\2019\Community\VC\Tools\MSVC\14.28.29333\include\xmemory
;	COMDAT ??$_Destroy_range@V?$allocator@PAVCAirResistanceDecorator@NEffectUpdateDecorator@@@std@@@std@@YAXPAPAVCAirResistanceDecorator@NEffectUpdateDecorator@@QAPAV12@AAV?$allocator@PAVCAirResistanceDecorator@NEffectUpdateDecorator@@@0@@Z
_TEXT	SEGMENT
__First$ = 8						; size = 4
__Last$ = 12						; size = 4
__Al$ = 16						; size = 4
??$_Destroy_range@V?$allocator@PAVCAirResistanceDecorator@NEffectUpdateDecorator@@@std@@@std@@YAXPAPAVCAirResistanceDecorator@NEffectUpdateDecorator@@QAPAV12@AAV?$allocator@PAVCAirResistanceDecorator@NEffectUpdateDecorator@@@0@@Z PROC ; std::_Destroy_range<std::allocator<NEffectUpdateDecorator::CAirResistanceDecorator *> >, COMDAT

; 963  :     // note that this is an optimization for debug mode codegen; in release mode the BE removes all of this
; 964  :     using _Ty = typename _Alloc::value_type;
; 965  :     if _CONSTEXPR_IF (!conjunction_v<is_trivially_destructible<_Ty>, _Uses_default_destroy<_Alloc, _Ty*>>) {
; 966  :         for (; _First != _Last; ++_First) {
; 967  :             allocator_traits<_Alloc>::destroy(_Al, _Unfancy(_First));
; 968  :         }
; 969  :     }
; 970  : }

  00000	c2 00 00	 ret	 0
??$_Destroy_range@V?$allocator@PAVCAirResistanceDecorator@NEffectUpdateDecorator@@@std@@@std@@YAXPAPAVCAirResistanceDecorator@NEffectUpdateDecorator@@QAPAV12@AAV?$allocator@PAVCAirResistanceDecorator@NEffectUpdateDecorator@@@0@@Z ENDP ; std::_Destroy_range<std::allocator<NEffectUpdateDecorator::CAirResistanceDecorator *> >
_TEXT	ENDS
; Function compile flags: /Ogtp
; File C:\Program Files (x86)\Microsoft Visual Studio\2019\Community\VC\Tools\MSVC\14.28.29333\include\xmemory
;	COMDAT ??$_Destroy_range@V?$allocator@PAVCTextureAnimationRandomDecorator@NEffectUpdateDecorator@@@std@@@std@@YAXPAPAVCTextureAnimationRandomDecorator@NEffectUpdateDecorator@@QAPAV12@AAV?$allocator@PAVCTextureAnimationRandomDecorator@NEffectUpdateDecorator@@@0@@Z
_TEXT	SEGMENT
__First$ = 8						; size = 4
__Last$ = 12						; size = 4
__Al$ = 16						; size = 4
??$_Destroy_range@V?$allocator@PAVCTextureAnimationRandomDecorator@NEffectUpdateDecorator@@@std@@@std@@YAXPAPAVCTextureAnimationRandomDecorator@NEffectUpdateDecorator@@QAPAV12@AAV?$allocator@PAVCTextureAnimationRandomDecorator@NEffectUpdateDecorator@@@0@@Z PROC ; std::_Destroy_range<std::allocator<NEffectUpdateDecorator::CTextureAnimationRandomDecorator *> >, COMDAT

; 963  :     // note that this is an optimization for debug mode codegen; in release mode the BE removes all of this
; 964  :     using _Ty = typename _Alloc::value_type;
; 965  :     if _CONSTEXPR_IF (!conjunction_v<is_trivially_destructible<_Ty>, _Uses_default_destroy<_Alloc, _Ty*>>) {
; 966  :         for (; _First != _Last; ++_First) {
; 967  :             allocator_traits<_Alloc>::destroy(_Al, _Unfancy(_First));
; 968  :         }
; 969  :     }
; 970  : }

  00000	c2 00 00	 ret	 0
??$_Destroy_range@V?$allocator@PAVCTextureAnimationRandomDecorator@NEffectUpdateDecorator@@@std@@@std@@YAXPAPAVCTextureAnimationRandomDecorator@NEffectUpdateDecorator@@QAPAV12@AAV?$allocator@PAVCTextureAnimationRandomDecorator@NEffectUpdateDecorator@@@0@@Z ENDP ; std::_Destroy_range<std::allocator<NEffectUpdateDecorator::CTextureAnimationRandomDecorator *> >
_TEXT	ENDS
; Function compile flags: /Ogtp
; File C:\Program Files (x86)\Microsoft Visual Studio\2019\Community\VC\Tools\MSVC\14.28.29333\include\xmemory
;	COMDAT ??$_Destroy_range@V?$allocator@PAVCTextureAnimationCCWDecorator@NEffectUpdateDecorator@@@std@@@std@@YAXPAPAVCTextureAnimationCCWDecorator@NEffectUpdateDecorator@@QAPAV12@AAV?$allocator@PAVCTextureAnimationCCWDecorator@NEffectUpdateDecorator@@@0@@Z
_TEXT	SEGMENT
__First$ = 8						; size = 4
__Last$ = 12						; size = 4
__Al$ = 16						; size = 4
??$_Destroy_range@V?$allocator@PAVCTextureAnimationCCWDecorator@NEffectUpdateDecorator@@@std@@@std@@YAXPAPAVCTextureAnimationCCWDecorator@NEffectUpdateDecorator@@QAPAV12@AAV?$allocator@PAVCTextureAnimationCCWDecorator@NEffectUpdateDecorator@@@0@@Z PROC ; std::_Destroy_range<std::allocator<NEffectUpdateDecorator::CTextureAnimationCCWDecorator *> >, COMDAT

; 963  :     // note that this is an optimization for debug mode codegen; in release mode the BE removes all of this
; 964  :     using _Ty = typename _Alloc::value_type;
; 965  :     if _CONSTEXPR_IF (!conjunction_v<is_trivially_destructible<_Ty>, _Uses_default_destroy<_Alloc, _Ty*>>) {
; 966  :         for (; _First != _Last; ++_First) {
; 967  :             allocator_traits<_Alloc>::destroy(_Al, _Unfancy(_First));
; 968  :         }
; 969  :     }
; 970  : }

  00000	c2 00 00	 ret	 0
??$_Destroy_range@V?$allocator@PAVCTextureAnimationCCWDecorator@NEffectUpdateDecorator@@@std@@@std@@YAXPAPAVCTextureAnimationCCWDecorator@NEffectUpdateDecorator@@QAPAV12@AAV?$allocator@PAVCTextureAnimationCCWDecorator@NEffectUpdateDecorator@@@0@@Z ENDP ; std::_Destroy_range<std::allocator<NEffectUpdateDecorator::CTextureAnimationCCWDecorator *> >
_TEXT	ENDS
; Function compile flags: /Ogtp
; File C:\Program Files (x86)\Microsoft Visual Studio\2019\Community\VC\Tools\MSVC\14.28.29333\include\xmemory
;	COMDAT ??$_Destroy_range@V?$allocator@PAVCTextureAnimationCWDecorator@NEffectUpdateDecorator@@@std@@@std@@YAXPAPAVCTextureAnimationCWDecorator@NEffectUpdateDecorator@@QAPAV12@AAV?$allocator@PAVCTextureAnimationCWDecorator@NEffectUpdateDecorator@@@0@@Z
_TEXT	SEGMENT
__First$ = 8						; size = 4
__Last$ = 12						; size = 4
__Al$ = 16						; size = 4
??$_Destroy_range@V?$allocator@PAVCTextureAnimationCWDecorator@NEffectUpdateDecorator@@@std@@@std@@YAXPAPAVCTextureAnimationCWDecorator@NEffectUpdateDecorator@@QAPAV12@AAV?$allocator@PAVCTextureAnimationCWDecorator@NEffectUpdateDecorator@@@0@@Z PROC ; std::_Destroy_range<std::allocator<NEffectUpdateDecorator::CTextureAnimationCWDecorator *> >, COMDAT

; 963  :     // note that this is an optimization for debug mode codegen; in release mode the BE removes all of this
; 964  :     using _Ty = typename _Alloc::value_type;
; 965  :     if _CONSTEXPR_IF (!conjunction_v<is_trivially_destructible<_Ty>, _Uses_default_destroy<_Alloc, _Ty*>>) {
; 966  :         for (; _First != _Last; ++_First) {
; 967  :             allocator_traits<_Alloc>::destroy(_Al, _Unfancy(_First));
; 968  :         }
; 969  :     }
; 970  : }

  00000	c2 00 00	 ret	 0
??$_Destroy_range@V?$allocator@PAVCTextureAnimationCWDecorator@NEffectUpdateDecorator@@@std@@@std@@YAXPAPAVCTextureAnimationCWDecorator@NEffectUpdateDecorator@@QAPAV12@AAV?$allocator@PAVCTextureAnimationCWDecorator@NEffectUpdateDecorator@@@0@@Z ENDP ; std::_Destroy_range<std::allocator<NEffectUpdateDecorator::CTextureAnimationCWDecorator *> >
_TEXT	ENDS
; Function compile flags: /Ogtp
; File C:\Program Files (x86)\Microsoft Visual Studio\2019\Community\VC\Tools\MSVC\14.28.29333\include\xmemory
;	COMDAT ??$_Destroy_range@V?$allocator@PAVCNullDecorator@NEffectUpdateDecorator@@@std@@@std@@YAXPAPAVCNullDecorator@NEffectUpdateDecorator@@QAPAV12@AAV?$allocator@PAVCNullDecorator@NEffectUpdateDecorator@@@0@@Z
_TEXT	SEGMENT
__First$ = 8						; size = 4
__Last$ = 12						; size = 4
__Al$ = 16						; size = 4
??$_Destroy_range@V?$allocator@PAVCNullDecorator@NEffectUpdateDecorator@@@std@@@std@@YAXPAPAVCNullDecorator@NEffectUpdateDecorator@@QAPAV12@AAV?$allocator@PAVCNullDecorator@NEffectUpdateDecorator@@@0@@Z PROC ; std::_Destroy_range<std::allocator<NEffectUpdateDecorator::CNullDecorator *> >, COMDAT

; 963  :     // note that this is an optimization for debug mode codegen; in release mode the BE removes all of this
; 964  :     using _Ty = typename _Alloc::value_type;
; 965  :     if _CONSTEXPR_IF (!conjunction_v<is_trivially_destructible<_Ty>, _Uses_default_destroy<_Alloc, _Ty*>>) {
; 966  :         for (; _First != _Last; ++_First) {
; 967  :             allocator_traits<_Alloc>::destroy(_Al, _Unfancy(_First));
; 968  :         }
; 969  :     }
; 970  : }

  00000	c2 00 00	 ret	 0
??$_Destroy_range@V?$allocator@PAVCNullDecorator@NEffectUpdateDecorator@@@std@@@std@@YAXPAPAVCNullDecorator@NEffectUpdateDecorator@@QAPAV12@AAV?$allocator@PAVCNullDecorator@NEffectUpdateDecorator@@@0@@Z ENDP ; std::_Destroy_range<std::allocator<NEffectUpdateDecorator::CNullDecorator *> >
_TEXT	ENDS
; Function compile flags: /Ogtp
; File C:\Program Files (x86)\Microsoft Visual Studio\2019\Community\VC\Tools\MSVC\14.28.29333\include\xmemory
;	COMDAT ??$_Destroy_range@V?$allocator@PAVCHeaderDecorator@NEffectUpdateDecorator@@@std@@@std@@YAXPAPAVCHeaderDecorator@NEffectUpdateDecorator@@QAPAV12@AAV?$allocator@PAVCHeaderDecorator@NEffectUpdateDecorator@@@0@@Z
_TEXT	SEGMENT
__First$ = 8						; size = 4
__Last$ = 12						; size = 4
__Al$ = 16						; size = 4
??$_Destroy_range@V?$allocator@PAVCHeaderDecorator@NEffectUpdateDecorator@@@std@@@std@@YAXPAPAVCHeaderDecorator@NEffectUpdateDecorator@@QAPAV12@AAV?$allocator@PAVCHeaderDecorator@NEffectUpdateDecorator@@@0@@Z PROC ; std::_Destroy_range<std::allocator<NEffectUpdateDecorator::CHeaderDecorator *> >, COMDAT

; 963  :     // note that this is an optimization for debug mode codegen; in release mode the BE removes all of this
; 964  :     using _Ty = typename _Alloc::value_type;
; 965  :     if _CONSTEXPR_IF (!conjunction_v<is_trivially_destructible<_Ty>, _Uses_default_destroy<_Alloc, _Ty*>>) {
; 966  :         for (; _First != _Last; ++_First) {
; 967  :             allocator_traits<_Alloc>::destroy(_Al, _Unfancy(_First));
; 968  :         }
; 969  :     }
; 970  : }

  00000	c2 00 00	 ret	 0
??$_Destroy_range@V?$allocator@PAVCHeaderDecorator@NEffectUpdateDecorator@@@std@@@std@@YAXPAPAVCHeaderDecorator@NEffectUpdateDecorator@@QAPAV12@AAV?$allocator@PAVCHeaderDecorator@NEffectUpdateDecorator@@@0@@Z ENDP ; std::_Destroy_range<std::allocator<NEffectUpdateDecorator::CHeaderDecorator *> >
_TEXT	ENDS
; Function compile flags: /Ogtp
;	COMDAT ??_G?$CDynamicPoolEx@VCHeaderDecorator@NEffectUpdateDecorator@@@@UAEPAXI@Z
_TEXT	SEGMENT
___flags$ = 8						; size = 4
??_G?$CDynamicPoolEx@VCHeaderDecorator@NEffectUpdateDecorator@@@@UAEPAXI@Z PROC ; CDynamicPoolEx<NEffectUpdateDecorator::CHeaderDecorator>::`scalar deleting destructor', COMDAT
; _this$ = ecx
  00000	55		 push	 ebp
  00001	8b ec		 mov	 ebp, esp
  00003	56		 push	 esi
  00004	8b f1		 mov	 esi, ecx
  00006	e8 00 00 00 00	 call	 ??1?$CDynamicPoolEx@VCHeaderDecorator@NEffectUpdateDecorator@@@@UAE@XZ ; CDynamicPoolEx<NEffectUpdateDecorator::CHeaderDecorator>::~CDynamicPoolEx<NEffectUpdateDecorator::CHeaderDecorator>
  0000b	f6 45 08 01	 test	 BYTE PTR ___flags$[ebp], 1
  0000f	74 0b		 je	 SHORT $LN4@scalar
  00011	6a 24		 push	 36			; 00000024H
  00013	56		 push	 esi
  00014	e8 00 00 00 00	 call	 ??3@YAXPAXI@Z		; operator delete
  00019	83 c4 08	 add	 esp, 8
$LN4@scalar:
  0001c	8b c6		 mov	 eax, esi
  0001e	5e		 pop	 esi
  0001f	5d		 pop	 ebp
  00020	c2 04 00	 ret	 4
??_G?$CDynamicPoolEx@VCHeaderDecorator@NEffectUpdateDecorator@@@@UAEPAXI@Z ENDP ; CDynamicPoolEx<NEffectUpdateDecorator::CHeaderDecorator>::`scalar deleting destructor'
_TEXT	ENDS
; Function compile flags: /Ogtp
; File D:\Metin2 Server Files\mainline\SRC_2014\Metin2Client\eterLib\Pool.h
;	COMDAT ?Delete@?$CDynamicPoolEx@VCHeaderDecorator@NEffectUpdateDecorator@@@@KAXPAVCHeaderDecorator@NEffectUpdateDecorator@@@Z
_TEXT	SEGMENT
_pkData$ = 8						; size = 4
?Delete@?$CDynamicPoolEx@VCHeaderDecorator@NEffectUpdateDecorator@@@@KAXPAVCHeaderDecorator@NEffectUpdateDecorator@@@Z PROC ; CDynamicPoolEx<NEffectUpdateDecorator::CHeaderDecorator>::Delete, COMDAT

; 224  : 			::operator delete(pkData);

  00000	e9 00 00 00 00	 jmp	 ??3@YAXPAX@Z		; operator delete
?Delete@?$CDynamicPoolEx@VCHeaderDecorator@NEffectUpdateDecorator@@@@KAXPAVCHeaderDecorator@NEffectUpdateDecorator@@@Z ENDP ; CDynamicPoolEx<NEffectUpdateDecorator::CHeaderDecorator>::Delete
_TEXT	ENDS
; Function compile flags: /Ogtp
; File D:\Metin2 Server Files\mainline\SRC_2014\Metin2Client\eterLib\Pool.h
; File C:\Program Files (x86)\Microsoft Visual Studio\2019\Community\VC\Tools\MSVC\14.28.29333\include\vector
; File C:\Program Files (x86)\Microsoft Visual Studio\2019\Community\VC\Tools\MSVC\14.28.29333\include\algorithm
; File D:\Metin2 Server Files\mainline\SRC_2014\Metin2Client\eterLib\Pool.h
; File C:\Program Files (x86)\Microsoft Visual Studio\2019\Community\VC\Tools\MSVC\14.28.29333\include\algorithm
; File D:\Metin2 Server Files\mainline\SRC_2014\Metin2Client\eterLib\Pool.h
; File C:\Program Files (x86)\Microsoft Visual Studio\2019\Community\VC\Tools\MSVC\14.28.29333\include\algorithm
; File D:\Metin2 Server Files\mainline\SRC_2014\Metin2Client\eterLib\Pool.h
; File C:\Program Files (x86)\Microsoft Visual Studio\2019\Community\VC\Tools\MSVC\14.28.29333\include\vector
; File C:\Program Files (x86)\Microsoft Visual Studio\2019\Community\VC\Tools\MSVC\14.28.29333\include\xmemory
; File C:\Program Files (x86)\Microsoft Visual Studio\2019\Community\VC\Tools\MSVC\14.28.29333\include\vector
; File C:\Program Files (x86)\Microsoft Visual Studio\2019\Community\VC\Tools\MSVC\14.28.29333\include\xmemory
; File C:\Program Files (x86)\Microsoft Visual Studio\2019\Community\VC\Tools\MSVC\14.28.29333\include\vector
; File C:\Program Files (x86)\Microsoft Visual Studio\2019\Community\VC\Tools\MSVC\14.28.29333\include\xmemory
; File C:\Program Files (x86)\Microsoft Visual Studio\2019\Community\VC\Tools\MSVC\14.28.29333\include\vector
; File C:\Program Files (x86)\Microsoft Visual Studio\2019\Community\VC\Tools\MSVC\14.28.29333\include\xmemory
; File C:\Program Files (x86)\Microsoft Visual Studio\2019\Community\VC\Tools\MSVC\14.28.29333\include\vector
; File D:\Metin2 Server Files\mainline\SRC_2014\Metin2Client\eterLib\Pool.h
;	COMDAT ??1?$CDynamicPoolEx@VCHeaderDecorator@NEffectUpdateDecorator@@@@UAE@XZ
_TEXT	SEGMENT
??1?$CDynamicPoolEx@VCHeaderDecorator@NEffectUpdateDecorator@@@@UAE@XZ PROC ; CDynamicPoolEx<NEffectUpdateDecorator::CHeaderDecorator>::~CDynamicPoolEx<NEffectUpdateDecorator::CHeaderDecorator>, COMDAT
; _this$ = ecx

; 132  : 		{

  00000	53		 push	 ebx
  00001	56		 push	 esi
  00002	57		 push	 edi
  00003	8b f9		 mov	 edi, ecx
  00005	c7 07 00 00 00
	00		 mov	 DWORD PTR [edi], OFFSET ??_7?$CDynamicPoolEx@VCHeaderDecorator@NEffectUpdateDecorator@@@@6B@
; File C:\Program Files (x86)\Microsoft Visual Studio\2019\Community\VC\Tools\MSVC\14.28.29333\include\vector

; 42   :     _Vector_const_iterator(_Tptr _Parg, const _Container_base* _Pvector) noexcept : _Ptr(_Parg) {

  0000b	8b 5f 08	 mov	 ebx, DWORD PTR [edi+8]
  0000e	8b 77 04	 mov	 esi, DWORD PTR [edi+4]
; File C:\Program Files (x86)\Microsoft Visual Studio\2019\Community\VC\Tools\MSVC\14.28.29333\include\algorithm

; 307  :     for (; _UFirst != _ULast; ++_UFirst) {

  00011	3b f3		 cmp	 esi, ebx
  00013	74 14		 je	 SHORT $LN19@CDynamicPo
$LL20@CDynamicPo:
; File D:\Metin2 Server Files\mainline\SRC_2014\Metin2Client\eterLib\Pool.h

; 224  : 			::operator delete(pkData);

  00015	ff 36		 push	 DWORD PTR [esi]
  00017	e8 00 00 00 00	 call	 ??3@YAXPAX@Z		; operator delete
; File C:\Program Files (x86)\Microsoft Visual Studio\2019\Community\VC\Tools\MSVC\14.28.29333\include\algorithm

; 307  :     for (; _UFirst != _ULast; ++_UFirst) {

  0001c	83 c6 04	 add	 esi, 4
; File D:\Metin2 Server Files\mainline\SRC_2014\Metin2Client\eterLib\Pool.h

; 224  : 			::operator delete(pkData);

  0001f	83 c4 04	 add	 esp, 4
; File C:\Program Files (x86)\Microsoft Visual Studio\2019\Community\VC\Tools\MSVC\14.28.29333\include\algorithm

; 307  :     for (; _UFirst != _ULast; ++_UFirst) {

  00022	3b f3		 cmp	 esi, ebx
  00024	75 ef		 jne	 SHORT $LL20@CDynamicPo
  00026	8b 77 04	 mov	 esi, DWORD PTR [edi+4]
$LN19@CDynamicPo:
; File D:\Metin2 Server Files\mainline\SRC_2014\Metin2Client\eterLib\Pool.h

; 162  : 			m_kVct_pkFree.clear();

  00029	8b 4f 10	 mov	 ecx, DWORD PTR [edi+16]
  0002c	89 77 08	 mov	 DWORD PTR [edi+8], esi
  0002f	89 4f 14	 mov	 DWORD PTR [edi+20], ecx
; File C:\Program Files (x86)\Microsoft Visual Studio\2019\Community\VC\Tools\MSVC\14.28.29333\include\vector

; 1694 :         if (_Myfirst) { // destroy and deallocate old array

  00032	85 c9		 test	 ecx, ecx
  00034	74 27		 je	 SHORT $LN27@CDynamicPo

; 1695 :             _Destroy(_Myfirst, _Mylast);
; 1696 :             _Getal().deallocate(_Myfirst, static_cast<size_type>(_Myend - _Myfirst));

  00036	8b 47 18	 mov	 eax, DWORD PTR [edi+24]
  00039	2b c1		 sub	 eax, ecx
; File C:\Program Files (x86)\Microsoft Visual Studio\2019\Community\VC\Tools\MSVC\14.28.29333\include\xmemory

; 810  :         _Deallocate<_New_alignof<_Ty>>(_Ptr, sizeof(_Ty) * _Count);

  0003b	83 e0 fc	 and	 eax, -4			; fffffffcH
  0003e	50		 push	 eax
  0003f	51		 push	 ecx
  00040	e8 00 00 00 00	 call	 ??$_Deallocate@$07$0A@@std@@YAXPAXI@Z ; std::_Deallocate<8,0>
; File C:\Program Files (x86)\Microsoft Visual Studio\2019\Community\VC\Tools\MSVC\14.28.29333\include\vector

; 1698 :             _Myfirst = pointer();

  00045	c7 47 10 00 00
	00 00		 mov	 DWORD PTR [edi+16], 0
; File C:\Program Files (x86)\Microsoft Visual Studio\2019\Community\VC\Tools\MSVC\14.28.29333\include\xmemory

; 810  :         _Deallocate<_New_alignof<_Ty>>(_Ptr, sizeof(_Ty) * _Count);

  0004c	83 c4 08	 add	 esp, 8
; File C:\Program Files (x86)\Microsoft Visual Studio\2019\Community\VC\Tools\MSVC\14.28.29333\include\vector

; 1699 :             _Mylast  = pointer();

  0004f	c7 47 14 00 00
	00 00		 mov	 DWORD PTR [edi+20], 0

; 1700 :             _Myend   = pointer();

  00056	c7 47 18 00 00
	00 00		 mov	 DWORD PTR [edi+24], 0
$LN27@CDynamicPo:

; 1694 :         if (_Myfirst) { // destroy and deallocate old array

  0005d	8b 4f 04	 mov	 ecx, DWORD PTR [edi+4]
  00060	85 c9		 test	 ecx, ecx
  00062	74 27		 je	 SHORT $LN34@CDynamicPo

; 1695 :             _Destroy(_Myfirst, _Mylast);
; 1696 :             _Getal().deallocate(_Myfirst, static_cast<size_type>(_Myend - _Myfirst));

  00064	8b 47 0c	 mov	 eax, DWORD PTR [edi+12]
  00067	2b c1		 sub	 eax, ecx
; File C:\Program Files (x86)\Microsoft Visual Studio\2019\Community\VC\Tools\MSVC\14.28.29333\include\xmemory

; 810  :         _Deallocate<_New_alignof<_Ty>>(_Ptr, sizeof(_Ty) * _Count);

  00069	83 e0 fc	 and	 eax, -4			; fffffffcH
  0006c	50		 push	 eax
  0006d	51		 push	 ecx
  0006e	e8 00 00 00 00	 call	 ??$_Deallocate@$07$0A@@std@@YAXPAXI@Z ; std::_Deallocate<8,0>
; File C:\Program Files (x86)\Microsoft Visual Studio\2019\Community\VC\Tools\MSVC\14.28.29333\include\vector

; 1698 :             _Myfirst = pointer();

  00073	c7 47 04 00 00
	00 00		 mov	 DWORD PTR [edi+4], 0
; File C:\Program Files (x86)\Microsoft Visual Studio\2019\Community\VC\Tools\MSVC\14.28.29333\include\xmemory

; 810  :         _Deallocate<_New_alignof<_Ty>>(_Ptr, sizeof(_Ty) * _Count);

  0007a	83 c4 08	 add	 esp, 8
; File C:\Program Files (x86)\Microsoft Visual Studio\2019\Community\VC\Tools\MSVC\14.28.29333\include\vector

; 1699 :             _Mylast  = pointer();

  0007d	c7 47 08 00 00
	00 00		 mov	 DWORD PTR [edi+8], 0

; 1700 :             _Myend   = pointer();

  00084	c7 47 0c 00 00
	00 00		 mov	 DWORD PTR [edi+12], 0
$LN34@CDynamicPo:
  0008b	5f		 pop	 edi
; File D:\Metin2 Server Files\mainline\SRC_2014\Metin2Client\eterLib\Pool.h

; 142  : 		}

  0008c	5e		 pop	 esi
  0008d	5b		 pop	 ebx
  0008e	c3		 ret	 0
??1?$CDynamicPoolEx@VCHeaderDecorator@NEffectUpdateDecorator@@@@UAE@XZ ENDP ; CDynamicPoolEx<NEffectUpdateDecorator::CHeaderDecorator>::~CDynamicPoolEx<NEffectUpdateDecorator::CHeaderDecorator>
_TEXT	ENDS
; Function compile flags: /Ogtp
;	COMDAT ??_G?$CDynamicPoolEx@VCNullDecorator@NEffectUpdateDecorator@@@@UAEPAXI@Z
_TEXT	SEGMENT
___flags$ = 8						; size = 4
??_G?$CDynamicPoolEx@VCNullDecorator@NEffectUpdateDecorator@@@@UAEPAXI@Z PROC ; CDynamicPoolEx<NEffectUpdateDecorator::CNullDecorator>::`scalar deleting destructor', COMDAT
; _this$ = ecx
  00000	55		 push	 ebp
  00001	8b ec		 mov	 ebp, esp
  00003	56		 push	 esi
  00004	8b f1		 mov	 esi, ecx
  00006	e8 00 00 00 00	 call	 ??1?$CDynamicPoolEx@VCNullDecorator@NEffectUpdateDecorator@@@@UAE@XZ ; CDynamicPoolEx<NEffectUpdateDecorator::CNullDecorator>::~CDynamicPoolEx<NEffectUpdateDecorator::CNullDecorator>
  0000b	f6 45 08 01	 test	 BYTE PTR ___flags$[ebp], 1
  0000f	74 0b		 je	 SHORT $LN4@scalar
  00011	6a 24		 push	 36			; 00000024H
  00013	56		 push	 esi
  00014	e8 00 00 00 00	 call	 ??3@YAXPAXI@Z		; operator delete
  00019	83 c4 08	 add	 esp, 8
$LN4@scalar:
  0001c	8b c6		 mov	 eax, esi
  0001e	5e		 pop	 esi
  0001f	5d		 pop	 ebp
  00020	c2 04 00	 ret	 4
??_G?$CDynamicPoolEx@VCNullDecorator@NEffectUpdateDecorator@@@@UAEPAXI@Z ENDP ; CDynamicPoolEx<NEffectUpdateDecorator::CNullDecorator>::`scalar deleting destructor'
_TEXT	ENDS
; Function compile flags: /Ogtp
; File D:\Metin2 Server Files\mainline\SRC_2014\Metin2Client\eterLib\Pool.h
;	COMDAT ?Delete@?$CDynamicPoolEx@VCNullDecorator@NEffectUpdateDecorator@@@@KAXPAVCNullDecorator@NEffectUpdateDecorator@@@Z
_TEXT	SEGMENT
_pkData$ = 8						; size = 4
?Delete@?$CDynamicPoolEx@VCNullDecorator@NEffectUpdateDecorator@@@@KAXPAVCNullDecorator@NEffectUpdateDecorator@@@Z PROC ; CDynamicPoolEx<NEffectUpdateDecorator::CNullDecorator>::Delete, COMDAT

; 224  : 			::operator delete(pkData);

  00000	e9 00 00 00 00	 jmp	 ??3@YAXPAX@Z		; operator delete
?Delete@?$CDynamicPoolEx@VCNullDecorator@NEffectUpdateDecorator@@@@KAXPAVCNullDecorator@NEffectUpdateDecorator@@@Z ENDP ; CDynamicPoolEx<NEffectUpdateDecorator::CNullDecorator>::Delete
_TEXT	ENDS
; Function compile flags: /Ogtp
; File D:\Metin2 Server Files\mainline\SRC_2014\Metin2Client\eterLib\Pool.h
; File C:\Program Files (x86)\Microsoft Visual Studio\2019\Community\VC\Tools\MSVC\14.28.29333\include\vector
; File C:\Program Files (x86)\Microsoft Visual Studio\2019\Community\VC\Tools\MSVC\14.28.29333\include\algorithm
; File D:\Metin2 Server Files\mainline\SRC_2014\Metin2Client\eterLib\Pool.h
; File C:\Program Files (x86)\Microsoft Visual Studio\2019\Community\VC\Tools\MSVC\14.28.29333\include\algorithm
; File D:\Metin2 Server Files\mainline\SRC_2014\Metin2Client\eterLib\Pool.h
; File C:\Program Files (x86)\Microsoft Visual Studio\2019\Community\VC\Tools\MSVC\14.28.29333\include\algorithm
; File D:\Metin2 Server Files\mainline\SRC_2014\Metin2Client\eterLib\Pool.h
; File C:\Program Files (x86)\Microsoft Visual Studio\2019\Community\VC\Tools\MSVC\14.28.29333\include\vector
; File C:\Program Files (x86)\Microsoft Visual Studio\2019\Community\VC\Tools\MSVC\14.28.29333\include\xmemory
; File C:\Program Files (x86)\Microsoft Visual Studio\2019\Community\VC\Tools\MSVC\14.28.29333\include\vector
; File C:\Program Files (x86)\Microsoft Visual Studio\2019\Community\VC\Tools\MSVC\14.28.29333\include\xmemory
; File C:\Program Files (x86)\Microsoft Visual Studio\2019\Community\VC\Tools\MSVC\14.28.29333\include\vector
; File C:\Program Files (x86)\Microsoft Visual Studio\2019\Community\VC\Tools\MSVC\14.28.29333\include\xmemory
; File C:\Program Files (x86)\Microsoft Visual Studio\2019\Community\VC\Tools\MSVC\14.28.29333\include\vector
; File C:\Program Files (x86)\Microsoft Visual Studio\2019\Community\VC\Tools\MSVC\14.28.29333\include\xmemory
; File C:\Program Files (x86)\Microsoft Visual Studio\2019\Community\VC\Tools\MSVC\14.28.29333\include\vector
; File D:\Metin2 Server Files\mainline\SRC_2014\Metin2Client\eterLib\Pool.h
;	COMDAT ??1?$CDynamicPoolEx@VCNullDecorator@NEffectUpdateDecorator@@@@UAE@XZ
_TEXT	SEGMENT
??1?$CDynamicPoolEx@VCNullDecorator@NEffectUpdateDecorator@@@@UAE@XZ PROC ; CDynamicPoolEx<NEffectUpdateDecorator::CNullDecorator>::~CDynamicPoolEx<NEffectUpdateDecorator::CNullDecorator>, COMDAT
; _this$ = ecx

; 132  : 		{

  00000	53		 push	 ebx
  00001	56		 push	 esi
  00002	57		 push	 edi
  00003	8b f9		 mov	 edi, ecx
  00005	c7 07 00 00 00
	00		 mov	 DWORD PTR [edi], OFFSET ??_7?$CDynamicPoolEx@VCNullDecorator@NEffectUpdateDecorator@@@@6B@
; File C:\Program Files (x86)\Microsoft Visual Studio\2019\Community\VC\Tools\MSVC\14.28.29333\include\vector

; 42   :     _Vector_const_iterator(_Tptr _Parg, const _Container_base* _Pvector) noexcept : _Ptr(_Parg) {

  0000b	8b 5f 08	 mov	 ebx, DWORD PTR [edi+8]
  0000e	8b 77 04	 mov	 esi, DWORD PTR [edi+4]
; File C:\Program Files (x86)\Microsoft Visual Studio\2019\Community\VC\Tools\MSVC\14.28.29333\include\algorithm

; 307  :     for (; _UFirst != _ULast; ++_UFirst) {

  00011	3b f3		 cmp	 esi, ebx
  00013	74 14		 je	 SHORT $LN19@CDynamicPo
$LL20@CDynamicPo:
; File D:\Metin2 Server Files\mainline\SRC_2014\Metin2Client\eterLib\Pool.h

; 224  : 			::operator delete(pkData);

  00015	ff 36		 push	 DWORD PTR [esi]
  00017	e8 00 00 00 00	 call	 ??3@YAXPAX@Z		; operator delete
; File C:\Program Files (x86)\Microsoft Visual Studio\2019\Community\VC\Tools\MSVC\14.28.29333\include\algorithm

; 307  :     for (; _UFirst != _ULast; ++_UFirst) {

  0001c	83 c6 04	 add	 esi, 4
; File D:\Metin2 Server Files\mainline\SRC_2014\Metin2Client\eterLib\Pool.h

; 224  : 			::operator delete(pkData);

  0001f	83 c4 04	 add	 esp, 4
; File C:\Program Files (x86)\Microsoft Visual Studio\2019\Community\VC\Tools\MSVC\14.28.29333\include\algorithm

; 307  :     for (; _UFirst != _ULast; ++_UFirst) {

  00022	3b f3		 cmp	 esi, ebx
  00024	75 ef		 jne	 SHORT $LL20@CDynamicPo
  00026	8b 77 04	 mov	 esi, DWORD PTR [edi+4]
$LN19@CDynamicPo:
; File D:\Metin2 Server Files\mainline\SRC_2014\Metin2Client\eterLib\Pool.h

; 162  : 			m_kVct_pkFree.clear();

  00029	8b 4f 10	 mov	 ecx, DWORD PTR [edi+16]
  0002c	89 77 08	 mov	 DWORD PTR [edi+8], esi
  0002f	89 4f 14	 mov	 DWORD PTR [edi+20], ecx
; File C:\Program Files (x86)\Microsoft Visual Studio\2019\Community\VC\Tools\MSVC\14.28.29333\include\vector

; 1694 :         if (_Myfirst) { // destroy and deallocate old array

  00032	85 c9		 test	 ecx, ecx
  00034	74 27		 je	 SHORT $LN27@CDynamicPo

; 1695 :             _Destroy(_Myfirst, _Mylast);
; 1696 :             _Getal().deallocate(_Myfirst, static_cast<size_type>(_Myend - _Myfirst));

  00036	8b 47 18	 mov	 eax, DWORD PTR [edi+24]
  00039	2b c1		 sub	 eax, ecx
; File C:\Program Files (x86)\Microsoft Visual Studio\2019\Community\VC\Tools\MSVC\14.28.29333\include\xmemory

; 810  :         _Deallocate<_New_alignof<_Ty>>(_Ptr, sizeof(_Ty) * _Count);

  0003b	83 e0 fc	 and	 eax, -4			; fffffffcH
  0003e	50		 push	 eax
  0003f	51		 push	 ecx
  00040	e8 00 00 00 00	 call	 ??$_Deallocate@$07$0A@@std@@YAXPAXI@Z ; std::_Deallocate<8,0>
; File C:\Program Files (x86)\Microsoft Visual Studio\2019\Community\VC\Tools\MSVC\14.28.29333\include\vector

; 1698 :             _Myfirst = pointer();

  00045	c7 47 10 00 00
	00 00		 mov	 DWORD PTR [edi+16], 0
; File C:\Program Files (x86)\Microsoft Visual Studio\2019\Community\VC\Tools\MSVC\14.28.29333\include\xmemory

; 810  :         _Deallocate<_New_alignof<_Ty>>(_Ptr, sizeof(_Ty) * _Count);

  0004c	83 c4 08	 add	 esp, 8
; File C:\Program Files (x86)\Microsoft Visual Studio\2019\Community\VC\Tools\MSVC\14.28.29333\include\vector

; 1699 :             _Mylast  = pointer();

  0004f	c7 47 14 00 00
	00 00		 mov	 DWORD PTR [edi+20], 0

; 1700 :             _Myend   = pointer();

  00056	c7 47 18 00 00
	00 00		 mov	 DWORD PTR [edi+24], 0
$LN27@CDynamicPo:

; 1694 :         if (_Myfirst) { // destroy and deallocate old array

  0005d	8b 4f 04	 mov	 ecx, DWORD PTR [edi+4]
  00060	85 c9		 test	 ecx, ecx
  00062	74 27		 je	 SHORT $LN34@CDynamicPo

; 1695 :             _Destroy(_Myfirst, _Mylast);
; 1696 :             _Getal().deallocate(_Myfirst, static_cast<size_type>(_Myend - _Myfirst));

  00064	8b 47 0c	 mov	 eax, DWORD PTR [edi+12]
  00067	2b c1		 sub	 eax, ecx
; File C:\Program Files (x86)\Microsoft Visual Studio\2019\Community\VC\Tools\MSVC\14.28.29333\include\xmemory

; 810  :         _Deallocate<_New_alignof<_Ty>>(_Ptr, sizeof(_Ty) * _Count);

  00069	83 e0 fc	 and	 eax, -4			; fffffffcH
  0006c	50		 push	 eax
  0006d	51		 push	 ecx
  0006e	e8 00 00 00 00	 call	 ??$_Deallocate@$07$0A@@std@@YAXPAXI@Z ; std::_Deallocate<8,0>
; File C:\Program Files (x86)\Microsoft Visual Studio\2019\Community\VC\Tools\MSVC\14.28.29333\include\vector

; 1698 :             _Myfirst = pointer();

  00073	c7 47 04 00 00
	00 00		 mov	 DWORD PTR [edi+4], 0
; File C:\Program Files (x86)\Microsoft Visual Studio\2019\Community\VC\Tools\MSVC\14.28.29333\include\xmemory

; 810  :         _Deallocate<_New_alignof<_Ty>>(_Ptr, sizeof(_Ty) * _Count);

  0007a	83 c4 08	 add	 esp, 8
; File C:\Program Files (x86)\Microsoft Visual Studio\2019\Community\VC\Tools\MSVC\14.28.29333\include\vector

; 1699 :             _Mylast  = pointer();

  0007d	c7 47 08 00 00
	00 00		 mov	 DWORD PTR [edi+8], 0

; 1700 :             _Myend   = pointer();

  00084	c7 47 0c 00 00
	00 00		 mov	 DWORD PTR [edi+12], 0
$LN34@CDynamicPo:
  0008b	5f		 pop	 edi
; File D:\Metin2 Server Files\mainline\SRC_2014\Metin2Client\eterLib\Pool.h

; 142  : 		}

  0008c	5e		 pop	 esi
  0008d	5b		 pop	 ebx
  0008e	c3		 ret	 0
??1?$CDynamicPoolEx@VCNullDecorator@NEffectUpdateDecorator@@@@UAE@XZ ENDP ; CDynamicPoolEx<NEffectUpdateDecorator::CNullDecorator>::~CDynamicPoolEx<NEffectUpdateDecorator::CNullDecorator>
_TEXT	ENDS
; Function compile flags: /Ogtp
;	COMDAT ??_G?$CDynamicPoolEx@VCTextureAnimationCWDecorator@NEffectUpdateDecorator@@@@UAEPAXI@Z
_TEXT	SEGMENT
___flags$ = 8						; size = 4
??_G?$CDynamicPoolEx@VCTextureAnimationCWDecorator@NEffectUpdateDecorator@@@@UAEPAXI@Z PROC ; CDynamicPoolEx<NEffectUpdateDecorator::CTextureAnimationCWDecorator>::`scalar deleting destructor', COMDAT
; _this$ = ecx
  00000	55		 push	 ebp
  00001	8b ec		 mov	 ebp, esp
  00003	56		 push	 esi
  00004	8b f1		 mov	 esi, ecx
  00006	e8 00 00 00 00	 call	 ??1?$CDynamicPoolEx@VCTextureAnimationCWDecorator@NEffectUpdateDecorator@@@@UAE@XZ ; CDynamicPoolEx<NEffectUpdateDecorator::CTextureAnimationCWDecorator>::~CDynamicPoolEx<NEffectUpdateDecorator::CTextureAnimationCWDecorator>
  0000b	f6 45 08 01	 test	 BYTE PTR ___flags$[ebp], 1
  0000f	74 0b		 je	 SHORT $LN4@scalar
  00011	6a 24		 push	 36			; 00000024H
  00013	56		 push	 esi
  00014	e8 00 00 00 00	 call	 ??3@YAXPAXI@Z		; operator delete
  00019	83 c4 08	 add	 esp, 8
$LN4@scalar:
  0001c	8b c6		 mov	 eax, esi
  0001e	5e		 pop	 esi
  0001f	5d		 pop	 ebp
  00020	c2 04 00	 ret	 4
??_G?$CDynamicPoolEx@VCTextureAnimationCWDecorator@NEffectUpdateDecorator@@@@UAEPAXI@Z ENDP ; CDynamicPoolEx<NEffectUpdateDecorator::CTextureAnimationCWDecorator>::`scalar deleting destructor'
_TEXT	ENDS
; Function compile flags: /Ogtp
; File D:\Metin2 Server Files\mainline\SRC_2014\Metin2Client\eterLib\Pool.h
;	COMDAT ?Delete@?$CDynamicPoolEx@VCTextureAnimationCWDecorator@NEffectUpdateDecorator@@@@KAXPAVCTextureAnimationCWDecorator@NEffectUpdateDecorator@@@Z
_TEXT	SEGMENT
_pkData$ = 8						; size = 4
?Delete@?$CDynamicPoolEx@VCTextureAnimationCWDecorator@NEffectUpdateDecorator@@@@KAXPAVCTextureAnimationCWDecorator@NEffectUpdateDecorator@@@Z PROC ; CDynamicPoolEx<NEffectUpdateDecorator::CTextureAnimationCWDecorator>::Delete, COMDAT

; 224  : 			::operator delete(pkData);

  00000	e9 00 00 00 00	 jmp	 ??3@YAXPAX@Z		; operator delete
?Delete@?$CDynamicPoolEx@VCTextureAnimationCWDecorator@NEffectUpdateDecorator@@@@KAXPAVCTextureAnimationCWDecorator@NEffectUpdateDecorator@@@Z ENDP ; CDynamicPoolEx<NEffectUpdateDecorator::CTextureAnimationCWDecorator>::Delete
_TEXT	ENDS
; Function compile flags: /Ogtp
; File D:\Metin2 Server Files\mainline\SRC_2014\Metin2Client\eterLib\Pool.h
; File C:\Program Files (x86)\Microsoft Visual Studio\2019\Community\VC\Tools\MSVC\14.28.29333\include\vector
; File C:\Program Files (x86)\Microsoft Visual Studio\2019\Community\VC\Tools\MSVC\14.28.29333\include\algorithm
; File D:\Metin2 Server Files\mainline\SRC_2014\Metin2Client\eterLib\Pool.h
; File C:\Program Files (x86)\Microsoft Visual Studio\2019\Community\VC\Tools\MSVC\14.28.29333\include\algorithm
; File D:\Metin2 Server Files\mainline\SRC_2014\Metin2Client\eterLib\Pool.h
; File C:\Program Files (x86)\Microsoft Visual Studio\2019\Community\VC\Tools\MSVC\14.28.29333\include\algorithm
; File D:\Metin2 Server Files\mainline\SRC_2014\Metin2Client\eterLib\Pool.h
; File C:\Program Files (x86)\Microsoft Visual Studio\2019\Community\VC\Tools\MSVC\14.28.29333\include\vector
; File C:\Program Files (x86)\Microsoft Visual Studio\2019\Community\VC\Tools\MSVC\14.28.29333\include\xmemory
; File C:\Program Files (x86)\Microsoft Visual Studio\2019\Community\VC\Tools\MSVC\14.28.29333\include\vector
; File C:\Program Files (x86)\Microsoft Visual Studio\2019\Community\VC\Tools\MSVC\14.28.29333\include\xmemory
; File C:\Program Files (x86)\Microsoft Visual Studio\2019\Community\VC\Tools\MSVC\14.28.29333\include\vector
; File C:\Program Files (x86)\Microsoft Visual Studio\2019\Community\VC\Tools\MSVC\14.28.29333\include\xmemory
; File C:\Program Files (x86)\Microsoft Visual Studio\2019\Community\VC\Tools\MSVC\14.28.29333\include\vector
; File C:\Program Files (x86)\Microsoft Visual Studio\2019\Community\VC\Tools\MSVC\14.28.29333\include\xmemory
; File C:\Program Files (x86)\Microsoft Visual Studio\2019\Community\VC\Tools\MSVC\14.28.29333\include\vector
; File D:\Metin2 Server Files\mainline\SRC_2014\Metin2Client\eterLib\Pool.h
;	COMDAT ??1?$CDynamicPoolEx@VCTextureAnimationCWDecorator@NEffectUpdateDecorator@@@@UAE@XZ
_TEXT	SEGMENT
??1?$CDynamicPoolEx@VCTextureAnimationCWDecorator@NEffectUpdateDecorator@@@@UAE@XZ PROC ; CDynamicPoolEx<NEffectUpdateDecorator::CTextureAnimationCWDecorator>::~CDynamicPoolEx<NEffectUpdateDecorator::CTextureAnimationCWDecorator>, COMDAT
; _this$ = ecx

; 132  : 		{

  00000	53		 push	 ebx
  00001	56		 push	 esi
  00002	57		 push	 edi
  00003	8b f9		 mov	 edi, ecx
  00005	c7 07 00 00 00
	00		 mov	 DWORD PTR [edi], OFFSET ??_7?$CDynamicPoolEx@VCTextureAnimationCWDecorator@NEffectUpdateDecorator@@@@6B@
; File C:\Program Files (x86)\Microsoft Visual Studio\2019\Community\VC\Tools\MSVC\14.28.29333\include\vector

; 42   :     _Vector_const_iterator(_Tptr _Parg, const _Container_base* _Pvector) noexcept : _Ptr(_Parg) {

  0000b	8b 5f 08	 mov	 ebx, DWORD PTR [edi+8]
  0000e	8b 77 04	 mov	 esi, DWORD PTR [edi+4]
; File C:\Program Files (x86)\Microsoft Visual Studio\2019\Community\VC\Tools\MSVC\14.28.29333\include\algorithm

; 307  :     for (; _UFirst != _ULast; ++_UFirst) {

  00011	3b f3		 cmp	 esi, ebx
  00013	74 14		 je	 SHORT $LN19@CDynamicPo
$LL20@CDynamicPo:
; File D:\Metin2 Server Files\mainline\SRC_2014\Metin2Client\eterLib\Pool.h

; 224  : 			::operator delete(pkData);

  00015	ff 36		 push	 DWORD PTR [esi]
  00017	e8 00 00 00 00	 call	 ??3@YAXPAX@Z		; operator delete
; File C:\Program Files (x86)\Microsoft Visual Studio\2019\Community\VC\Tools\MSVC\14.28.29333\include\algorithm

; 307  :     for (; _UFirst != _ULast; ++_UFirst) {

  0001c	83 c6 04	 add	 esi, 4
; File D:\Metin2 Server Files\mainline\SRC_2014\Metin2Client\eterLib\Pool.h

; 224  : 			::operator delete(pkData);

  0001f	83 c4 04	 add	 esp, 4
; File C:\Program Files (x86)\Microsoft Visual Studio\2019\Community\VC\Tools\MSVC\14.28.29333\include\algorithm

; 307  :     for (; _UFirst != _ULast; ++_UFirst) {

  00022	3b f3		 cmp	 esi, ebx
  00024	75 ef		 jne	 SHORT $LL20@CDynamicPo
  00026	8b 77 04	 mov	 esi, DWORD PTR [edi+4]
$LN19@CDynamicPo:
; File D:\Metin2 Server Files\mainline\SRC_2014\Metin2Client\eterLib\Pool.h

; 162  : 			m_kVct_pkFree.clear();

  00029	8b 4f 10	 mov	 ecx, DWORD PTR [edi+16]
  0002c	89 77 08	 mov	 DWORD PTR [edi+8], esi
  0002f	89 4f 14	 mov	 DWORD PTR [edi+20], ecx
; File C:\Program Files (x86)\Microsoft Visual Studio\2019\Community\VC\Tools\MSVC\14.28.29333\include\vector

; 1694 :         if (_Myfirst) { // destroy and deallocate old array

  00032	85 c9		 test	 ecx, ecx
  00034	74 27		 je	 SHORT $LN27@CDynamicPo

; 1695 :             _Destroy(_Myfirst, _Mylast);
; 1696 :             _Getal().deallocate(_Myfirst, static_cast<size_type>(_Myend - _Myfirst));

  00036	8b 47 18	 mov	 eax, DWORD PTR [edi+24]
  00039	2b c1		 sub	 eax, ecx
; File C:\Program Files (x86)\Microsoft Visual Studio\2019\Community\VC\Tools\MSVC\14.28.29333\include\xmemory

; 810  :         _Deallocate<_New_alignof<_Ty>>(_Ptr, sizeof(_Ty) * _Count);

  0003b	83 e0 fc	 and	 eax, -4			; fffffffcH
  0003e	50		 push	 eax
  0003f	51		 push	 ecx
  00040	e8 00 00 00 00	 call	 ??$_Deallocate@$07$0A@@std@@YAXPAXI@Z ; std::_Deallocate<8,0>
; File C:\Program Files (x86)\Microsoft Visual Studio\2019\Community\VC\Tools\MSVC\14.28.29333\include\vector

; 1698 :             _Myfirst = pointer();

  00045	c7 47 10 00 00
	00 00		 mov	 DWORD PTR [edi+16], 0
; File C:\Program Files (x86)\Microsoft Visual Studio\2019\Community\VC\Tools\MSVC\14.28.29333\include\xmemory

; 810  :         _Deallocate<_New_alignof<_Ty>>(_Ptr, sizeof(_Ty) * _Count);

  0004c	83 c4 08	 add	 esp, 8
; File C:\Program Files (x86)\Microsoft Visual Studio\2019\Community\VC\Tools\MSVC\14.28.29333\include\vector

; 1699 :             _Mylast  = pointer();

  0004f	c7 47 14 00 00
	00 00		 mov	 DWORD PTR [edi+20], 0

; 1700 :             _Myend   = pointer();

  00056	c7 47 18 00 00
	00 00		 mov	 DWORD PTR [edi+24], 0
$LN27@CDynamicPo:

; 1694 :         if (_Myfirst) { // destroy and deallocate old array

  0005d	8b 4f 04	 mov	 ecx, DWORD PTR [edi+4]
  00060	85 c9		 test	 ecx, ecx
  00062	74 27		 je	 SHORT $LN34@CDynamicPo

; 1695 :             _Destroy(_Myfirst, _Mylast);
; 1696 :             _Getal().deallocate(_Myfirst, static_cast<size_type>(_Myend - _Myfirst));

  00064	8b 47 0c	 mov	 eax, DWORD PTR [edi+12]
  00067	2b c1		 sub	 eax, ecx
; File C:\Program Files (x86)\Microsoft Visual Studio\2019\Community\VC\Tools\MSVC\14.28.29333\include\xmemory

; 810  :         _Deallocate<_New_alignof<_Ty>>(_Ptr, sizeof(_Ty) * _Count);

  00069	83 e0 fc	 and	 eax, -4			; fffffffcH
  0006c	50		 push	 eax
  0006d	51		 push	 ecx
  0006e	e8 00 00 00 00	 call	 ??$_Deallocate@$07$0A@@std@@YAXPAXI@Z ; std::_Deallocate<8,0>
; File C:\Program Files (x86)\Microsoft Visual Studio\2019\Community\VC\Tools\MSVC\14.28.29333\include\vector

; 1698 :             _Myfirst = pointer();

  00073	c7 47 04 00 00
	00 00		 mov	 DWORD PTR [edi+4], 0
; File C:\Program Files (x86)\Microsoft Visual Studio\2019\Community\VC\Tools\MSVC\14.28.29333\include\xmemory

; 810  :         _Deallocate<_New_alignof<_Ty>>(_Ptr, sizeof(_Ty) * _Count);

  0007a	83 c4 08	 add	 esp, 8
; File C:\Program Files (x86)\Microsoft Visual Studio\2019\Community\VC\Tools\MSVC\14.28.29333\include\vector

; 1699 :             _Mylast  = pointer();

  0007d	c7 47 08 00 00
	00 00		 mov	 DWORD PTR [edi+8], 0

; 1700 :             _Myend   = pointer();

  00084	c7 47 0c 00 00
	00 00		 mov	 DWORD PTR [edi+12], 0
$LN34@CDynamicPo:
  0008b	5f		 pop	 edi
; File D:\Metin2 Server Files\mainline\SRC_2014\Metin2Client\eterLib\Pool.h

; 142  : 		}

  0008c	5e		 pop	 esi
  0008d	5b		 pop	 ebx
  0008e	c3		 ret	 0
??1?$CDynamicPoolEx@VCTextureAnimationCWDecorator@NEffectUpdateDecorator@@@@UAE@XZ ENDP ; CDynamicPoolEx<NEffectUpdateDecorator::CTextureAnimationCWDecorator>::~CDynamicPoolEx<NEffectUpdateDecorator::CTextureAnimationCWDecorator>
_TEXT	ENDS
; Function compile flags: /Ogtp
;	COMDAT ??_G?$CDynamicPoolEx@VCTextureAnimationCCWDecorator@NEffectUpdateDecorator@@@@UAEPAXI@Z
_TEXT	SEGMENT
___flags$ = 8						; size = 4
??_G?$CDynamicPoolEx@VCTextureAnimationCCWDecorator@NEffectUpdateDecorator@@@@UAEPAXI@Z PROC ; CDynamicPoolEx<NEffectUpdateDecorator::CTextureAnimationCCWDecorator>::`scalar deleting destructor', COMDAT
; _this$ = ecx
  00000	55		 push	 ebp
  00001	8b ec		 mov	 ebp, esp
  00003	56		 push	 esi
  00004	8b f1		 mov	 esi, ecx
  00006	e8 00 00 00 00	 call	 ??1?$CDynamicPoolEx@VCTextureAnimationCCWDecorator@NEffectUpdateDecorator@@@@UAE@XZ ; CDynamicPoolEx<NEffectUpdateDecorator::CTextureAnimationCCWDecorator>::~CDynamicPoolEx<NEffectUpdateDecorator::CTextureAnimationCCWDecorator>
  0000b	f6 45 08 01	 test	 BYTE PTR ___flags$[ebp], 1
  0000f	74 0b		 je	 SHORT $LN4@scalar
  00011	6a 24		 push	 36			; 00000024H
  00013	56		 push	 esi
  00014	e8 00 00 00 00	 call	 ??3@YAXPAXI@Z		; operator delete
  00019	83 c4 08	 add	 esp, 8
$LN4@scalar:
  0001c	8b c6		 mov	 eax, esi
  0001e	5e		 pop	 esi
  0001f	5d		 pop	 ebp
  00020	c2 04 00	 ret	 4
??_G?$CDynamicPoolEx@VCTextureAnimationCCWDecorator@NEffectUpdateDecorator@@@@UAEPAXI@Z ENDP ; CDynamicPoolEx<NEffectUpdateDecorator::CTextureAnimationCCWDecorator>::`scalar deleting destructor'
_TEXT	ENDS
; Function compile flags: /Ogtp
; File D:\Metin2 Server Files\mainline\SRC_2014\Metin2Client\eterLib\Pool.h
;	COMDAT ?Delete@?$CDynamicPoolEx@VCTextureAnimationCCWDecorator@NEffectUpdateDecorator@@@@KAXPAVCTextureAnimationCCWDecorator@NEffectUpdateDecorator@@@Z
_TEXT	SEGMENT
_pkData$ = 8						; size = 4
?Delete@?$CDynamicPoolEx@VCTextureAnimationCCWDecorator@NEffectUpdateDecorator@@@@KAXPAVCTextureAnimationCCWDecorator@NEffectUpdateDecorator@@@Z PROC ; CDynamicPoolEx<NEffectUpdateDecorator::CTextureAnimationCCWDecorator>::Delete, COMDAT

; 224  : 			::operator delete(pkData);

  00000	e9 00 00 00 00	 jmp	 ??3@YAXPAX@Z		; operator delete
?Delete@?$CDynamicPoolEx@VCTextureAnimationCCWDecorator@NEffectUpdateDecorator@@@@KAXPAVCTextureAnimationCCWDecorator@NEffectUpdateDecorator@@@Z ENDP ; CDynamicPoolEx<NEffectUpdateDecorator::CTextureAnimationCCWDecorator>::Delete
_TEXT	ENDS
; Function compile flags: /Ogtp
; File D:\Metin2 Server Files\mainline\SRC_2014\Metin2Client\eterLib\Pool.h
; File C:\Program Files (x86)\Microsoft Visual Studio\2019\Community\VC\Tools\MSVC\14.28.29333\include\vector
; File C:\Program Files (x86)\Microsoft Visual Studio\2019\Community\VC\Tools\MSVC\14.28.29333\include\algorithm
; File D:\Metin2 Server Files\mainline\SRC_2014\Metin2Client\eterLib\Pool.h
; File C:\Program Files (x86)\Microsoft Visual Studio\2019\Community\VC\Tools\MSVC\14.28.29333\include\algorithm
; File D:\Metin2 Server Files\mainline\SRC_2014\Metin2Client\eterLib\Pool.h
; File C:\Program Files (x86)\Microsoft Visual Studio\2019\Community\VC\Tools\MSVC\14.28.29333\include\algorithm
; File D:\Metin2 Server Files\mainline\SRC_2014\Metin2Client\eterLib\Pool.h
; File C:\Program Files (x86)\Microsoft Visual Studio\2019\Community\VC\Tools\MSVC\14.28.29333\include\vector
; File C:\Program Files (x86)\Microsoft Visual Studio\2019\Community\VC\Tools\MSVC\14.28.29333\include\xmemory
; File C:\Program Files (x86)\Microsoft Visual Studio\2019\Community\VC\Tools\MSVC\14.28.29333\include\vector
; File C:\Program Files (x86)\Microsoft Visual Studio\2019\Community\VC\Tools\MSVC\14.28.29333\include\xmemory
; File C:\Program Files (x86)\Microsoft Visual Studio\2019\Community\VC\Tools\MSVC\14.28.29333\include\vector
; File C:\Program Files (x86)\Microsoft Visual Studio\2019\Community\VC\Tools\MSVC\14.28.29333\include\xmemory
; File C:\Program Files (x86)\Microsoft Visual Studio\2019\Community\VC\Tools\MSVC\14.28.29333\include\vector
; File C:\Program Files (x86)\Microsoft Visual Studio\2019\Community\VC\Tools\MSVC\14.28.29333\include\xmemory
; File C:\Program Files (x86)\Microsoft Visual Studio\2019\Community\VC\Tools\MSVC\14.28.29333\include\vector
; File D:\Metin2 Server Files\mainline\SRC_2014\Metin2Client\eterLib\Pool.h
;	COMDAT ??1?$CDynamicPoolEx@VCTextureAnimationCCWDecorator@NEffectUpdateDecorator@@@@UAE@XZ
_TEXT	SEGMENT
??1?$CDynamicPoolEx@VCTextureAnimationCCWDecorator@NEffectUpdateDecorator@@@@UAE@XZ PROC ; CDynamicPoolEx<NEffectUpdateDecorator::CTextureAnimationCCWDecorator>::~CDynamicPoolEx<NEffectUpdateDecorator::CTextureAnimationCCWDecorator>, COMDAT
; _this$ = ecx

; 132  : 		{

  00000	53		 push	 ebx
  00001	56		 push	 esi
  00002	57		 push	 edi
  00003	8b f9		 mov	 edi, ecx
  00005	c7 07 00 00 00
	00		 mov	 DWORD PTR [edi], OFFSET ??_7?$CDynamicPoolEx@VCTextureAnimationCCWDecorator@NEffectUpdateDecorator@@@@6B@
; File C:\Program Files (x86)\Microsoft Visual Studio\2019\Community\VC\Tools\MSVC\14.28.29333\include\vector

; 42   :     _Vector_const_iterator(_Tptr _Parg, const _Container_base* _Pvector) noexcept : _Ptr(_Parg) {

  0000b	8b 5f 08	 mov	 ebx, DWORD PTR [edi+8]
  0000e	8b 77 04	 mov	 esi, DWORD PTR [edi+4]
; File C:\Program Files (x86)\Microsoft Visual Studio\2019\Community\VC\Tools\MSVC\14.28.29333\include\algorithm

; 307  :     for (; _UFirst != _ULast; ++_UFirst) {

  00011	3b f3		 cmp	 esi, ebx
  00013	74 14		 je	 SHORT $LN19@CDynamicPo
$LL20@CDynamicPo:
; File D:\Metin2 Server Files\mainline\SRC_2014\Metin2Client\eterLib\Pool.h

; 224  : 			::operator delete(pkData);

  00015	ff 36		 push	 DWORD PTR [esi]
  00017	e8 00 00 00 00	 call	 ??3@YAXPAX@Z		; operator delete
; File C:\Program Files (x86)\Microsoft Visual Studio\2019\Community\VC\Tools\MSVC\14.28.29333\include\algorithm

; 307  :     for (; _UFirst != _ULast; ++_UFirst) {

  0001c	83 c6 04	 add	 esi, 4
; File D:\Metin2 Server Files\mainline\SRC_2014\Metin2Client\eterLib\Pool.h

; 224  : 			::operator delete(pkData);

  0001f	83 c4 04	 add	 esp, 4
; File C:\Program Files (x86)\Microsoft Visual Studio\2019\Community\VC\Tools\MSVC\14.28.29333\include\algorithm

; 307  :     for (; _UFirst != _ULast; ++_UFirst) {

  00022	3b f3		 cmp	 esi, ebx
  00024	75 ef		 jne	 SHORT $LL20@CDynamicPo
  00026	8b 77 04	 mov	 esi, DWORD PTR [edi+4]
$LN19@CDynamicPo:
; File D:\Metin2 Server Files\mainline\SRC_2014\Metin2Client\eterLib\Pool.h

; 162  : 			m_kVct_pkFree.clear();

  00029	8b 4f 10	 mov	 ecx, DWORD PTR [edi+16]
  0002c	89 77 08	 mov	 DWORD PTR [edi+8], esi
  0002f	89 4f 14	 mov	 DWORD PTR [edi+20], ecx
; File C:\Program Files (x86)\Microsoft Visual Studio\2019\Community\VC\Tools\MSVC\14.28.29333\include\vector

; 1694 :         if (_Myfirst) { // destroy and deallocate old array

  00032	85 c9		 test	 ecx, ecx
  00034	74 27		 je	 SHORT $LN27@CDynamicPo

; 1695 :             _Destroy(_Myfirst, _Mylast);
; 1696 :             _Getal().deallocate(_Myfirst, static_cast<size_type>(_Myend - _Myfirst));

  00036	8b 47 18	 mov	 eax, DWORD PTR [edi+24]
  00039	2b c1		 sub	 eax, ecx
; File C:\Program Files (x86)\Microsoft Visual Studio\2019\Community\VC\Tools\MSVC\14.28.29333\include\xmemory

; 810  :         _Deallocate<_New_alignof<_Ty>>(_Ptr, sizeof(_Ty) * _Count);

  0003b	83 e0 fc	 and	 eax, -4			; fffffffcH
  0003e	50		 push	 eax
  0003f	51		 push	 ecx
  00040	e8 00 00 00 00	 call	 ??$_Deallocate@$07$0A@@std@@YAXPAXI@Z ; std::_Deallocate<8,0>
; File C:\Program Files (x86)\Microsoft Visual Studio\2019\Community\VC\Tools\MSVC\14.28.29333\include\vector

; 1698 :             _Myfirst = pointer();

  00045	c7 47 10 00 00
	00 00		 mov	 DWORD PTR [edi+16], 0
; File C:\Program Files (x86)\Microsoft Visual Studio\2019\Community\VC\Tools\MSVC\14.28.29333\include\xmemory

; 810  :         _Deallocate<_New_alignof<_Ty>>(_Ptr, sizeof(_Ty) * _Count);

  0004c	83 c4 08	 add	 esp, 8
; File C:\Program Files (x86)\Microsoft Visual Studio\2019\Community\VC\Tools\MSVC\14.28.29333\include\vector

; 1699 :             _Mylast  = pointer();

  0004f	c7 47 14 00 00
	00 00		 mov	 DWORD PTR [edi+20], 0

; 1700 :             _Myend   = pointer();

  00056	c7 47 18 00 00
	00 00		 mov	 DWORD PTR [edi+24], 0
$LN27@CDynamicPo:

; 1694 :         if (_Myfirst) { // destroy and deallocate old array

  0005d	8b 4f 04	 mov	 ecx, DWORD PTR [edi+4]
  00060	85 c9		 test	 ecx, ecx
  00062	74 27		 je	 SHORT $LN34@CDynamicPo

; 1695 :             _Destroy(_Myfirst, _Mylast);
; 1696 :             _Getal().deallocate(_Myfirst, static_cast<size_type>(_Myend - _Myfirst));

  00064	8b 47 0c	 mov	 eax, DWORD PTR [edi+12]
  00067	2b c1		 sub	 eax, ecx
; File C:\Program Files (x86)\Microsoft Visual Studio\2019\Community\VC\Tools\MSVC\14.28.29333\include\xmemory

; 810  :         _Deallocate<_New_alignof<_Ty>>(_Ptr, sizeof(_Ty) * _Count);

  00069	83 e0 fc	 and	 eax, -4			; fffffffcH
  0006c	50		 push	 eax
  0006d	51		 push	 ecx
  0006e	e8 00 00 00 00	 call	 ??$_Deallocate@$07$0A@@std@@YAXPAXI@Z ; std::_Deallocate<8,0>
; File C:\Program Files (x86)\Microsoft Visual Studio\2019\Community\VC\Tools\MSVC\14.28.29333\include\vector

; 1698 :             _Myfirst = pointer();

  00073	c7 47 04 00 00
	00 00		 mov	 DWORD PTR [edi+4], 0
; File C:\Program Files (x86)\Microsoft Visual Studio\2019\Community\VC\Tools\MSVC\14.28.29333\include\xmemory

; 810  :         _Deallocate<_New_alignof<_Ty>>(_Ptr, sizeof(_Ty) * _Count);

  0007a	83 c4 08	 add	 esp, 8
; File C:\Program Files (x86)\Microsoft Visual Studio\2019\Community\VC\Tools\MSVC\14.28.29333\include\vector

; 1699 :             _Mylast  = pointer();

  0007d	c7 47 08 00 00
	00 00		 mov	 DWORD PTR [edi+8], 0

; 1700 :             _Myend   = pointer();

  00084	c7 47 0c 00 00
	00 00		 mov	 DWORD PTR [edi+12], 0
$LN34@CDynamicPo:
  0008b	5f		 pop	 edi
; File D:\Metin2 Server Files\mainline\SRC_2014\Metin2Client\eterLib\Pool.h

; 142  : 		}

  0008c	5e		 pop	 esi
  0008d	5b		 pop	 ebx
  0008e	c3		 ret	 0
??1?$CDynamicPoolEx@VCTextureAnimationCCWDecorator@NEffectUpdateDecorator@@@@UAE@XZ ENDP ; CDynamicPoolEx<NEffectUpdateDecorator::CTextureAnimationCCWDecorator>::~CDynamicPoolEx<NEffectUpdateDecorator::CTextureAnimationCCWDecorator>
_TEXT	ENDS
; Function compile flags: /Ogtp
;	COMDAT ??_G?$CDynamicPoolEx@VCTextureAnimationRandomDecorator@NEffectUpdateDecorator@@@@UAEPAXI@Z
_TEXT	SEGMENT
___flags$ = 8						; size = 4
??_G?$CDynamicPoolEx@VCTextureAnimationRandomDecorator@NEffectUpdateDecorator@@@@UAEPAXI@Z PROC ; CDynamicPoolEx<NEffectUpdateDecorator::CTextureAnimationRandomDecorator>::`scalar deleting destructor', COMDAT
; _this$ = ecx
  00000	55		 push	 ebp
  00001	8b ec		 mov	 ebp, esp
  00003	56		 push	 esi
  00004	8b f1		 mov	 esi, ecx
  00006	e8 00 00 00 00	 call	 ??1?$CDynamicPoolEx@VCTextureAnimationRandomDecorator@NEffectUpdateDecorator@@@@UAE@XZ ; CDynamicPoolEx<NEffectUpdateDecorator::CTextureAnimationRandomDecorator>::~CDynamicPoolEx<NEffectUpdateDecorator::CTextureAnimationRandomDecorator>
  0000b	f6 45 08 01	 test	 BYTE PTR ___flags$[ebp], 1
  0000f	74 0b		 je	 SHORT $LN4@scalar
  00011	6a 24		 push	 36			; 00000024H
  00013	56		 push	 esi
  00014	e8 00 00 00 00	 call	 ??3@YAXPAXI@Z		; operator delete
  00019	83 c4 08	 add	 esp, 8
$LN4@scalar:
  0001c	8b c6		 mov	 eax, esi
  0001e	5e		 pop	 esi
  0001f	5d		 pop	 ebp
  00020	c2 04 00	 ret	 4
??_G?$CDynamicPoolEx@VCTextureAnimationRandomDecorator@NEffectUpdateDecorator@@@@UAEPAXI@Z ENDP ; CDynamicPoolEx<NEffectUpdateDecorator::CTextureAnimationRandomDecorator>::`scalar deleting destructor'
_TEXT	ENDS
; Function compile flags: /Ogtp
; File D:\Metin2 Server Files\mainline\SRC_2014\Metin2Client\eterLib\Pool.h
;	COMDAT ?Delete@?$CDynamicPoolEx@VCTextureAnimationRandomDecorator@NEffectUpdateDecorator@@@@KAXPAVCTextureAnimationRandomDecorator@NEffectUpdateDecorator@@@Z
_TEXT	SEGMENT
_pkData$ = 8						; size = 4
?Delete@?$CDynamicPoolEx@VCTextureAnimationRandomDecorator@NEffectUpdateDecorator@@@@KAXPAVCTextureAnimationRandomDecorator@NEffectUpdateDecorator@@@Z PROC ; CDynamicPoolEx<NEffectUpdateDecorator::CTextureAnimationRandomDecorator>::Delete, COMDAT

; 224  : 			::operator delete(pkData);

  00000	e9 00 00 00 00	 jmp	 ??3@YAXPAX@Z		; operator delete
?Delete@?$CDynamicPoolEx@VCTextureAnimationRandomDecorator@NEffectUpdateDecorator@@@@KAXPAVCTextureAnimationRandomDecorator@NEffectUpdateDecorator@@@Z ENDP ; CDynamicPoolEx<NEffectUpdateDecorator::CTextureAnimationRandomDecorator>::Delete
_TEXT	ENDS
; Function compile flags: /Ogtp
; File D:\Metin2 Server Files\mainline\SRC_2014\Metin2Client\eterLib\Pool.h
; File C:\Program Files (x86)\Microsoft Visual Studio\2019\Community\VC\Tools\MSVC\14.28.29333\include\vector
; File C:\Program Files (x86)\Microsoft Visual Studio\2019\Community\VC\Tools\MSVC\14.28.29333\include\algorithm
; File D:\Metin2 Server Files\mainline\SRC_2014\Metin2Client\eterLib\Pool.h
; File C:\Program Files (x86)\Microsoft Visual Studio\2019\Community\VC\Tools\MSVC\14.28.29333\include\algorithm
; File D:\Metin2 Server Files\mainline\SRC_2014\Metin2Client\eterLib\Pool.h
; File C:\Program Files (x86)\Microsoft Visual Studio\2019\Community\VC\Tools\MSVC\14.28.29333\include\algorithm
; File D:\Metin2 Server Files\mainline\SRC_2014\Metin2Client\eterLib\Pool.h
; File C:\Program Files (x86)\Microsoft Visual Studio\2019\Community\VC\Tools\MSVC\14.28.29333\include\vector
; File C:\Program Files (x86)\Microsoft Visual Studio\2019\Community\VC\Tools\MSVC\14.28.29333\include\xmemory
; File C:\Program Files (x86)\Microsoft Visual Studio\2019\Community\VC\Tools\MSVC\14.28.29333\include\vector
; File C:\Program Files (x86)\Microsoft Visual Studio\2019\Community\VC\Tools\MSVC\14.28.29333\include\xmemory
; File C:\Program Files (x86)\Microsoft Visual Studio\2019\Community\VC\Tools\MSVC\14.28.29333\include\vector
; File C:\Program Files (x86)\Microsoft Visual Studio\2019\Community\VC\Tools\MSVC\14.28.29333\include\xmemory
; File C:\Program Files (x86)\Microsoft Visual Studio\2019\Community\VC\Tools\MSVC\14.28.29333\include\vector
; File C:\Program Files (x86)\Microsoft Visual Studio\2019\Community\VC\Tools\MSVC\14.28.29333\include\xmemory
; File C:\Program Files (x86)\Microsoft Visual Studio\2019\Community\VC\Tools\MSVC\14.28.29333\include\vector
; File D:\Metin2 Server Files\mainline\SRC_2014\Metin2Client\eterLib\Pool.h
;	COMDAT ??1?$CDynamicPoolEx@VCTextureAnimationRandomDecorator@NEffectUpdateDecorator@@@@UAE@XZ
_TEXT	SEGMENT
??1?$CDynamicPoolEx@VCTextureAnimationRandomDecorator@NEffectUpdateDecorator@@@@UAE@XZ PROC ; CDynamicPoolEx<NEffectUpdateDecorator::CTextureAnimationRandomDecorator>::~CDynamicPoolEx<NEffectUpdateDecorator::CTextureAnimationRandomDecorator>, COMDAT
; _this$ = ecx

; 132  : 		{

  00000	53		 push	 ebx
  00001	56		 push	 esi
  00002	57		 push	 edi
  00003	8b f9		 mov	 edi, ecx
  00005	c7 07 00 00 00
	00		 mov	 DWORD PTR [edi], OFFSET ??_7?$CDynamicPoolEx@VCTextureAnimationRandomDecorator@NEffectUpdateDecorator@@@@6B@
; File C:\Program Files (x86)\Microsoft Visual Studio\2019\Community\VC\Tools\MSVC\14.28.29333\include\vector

; 42   :     _Vector_const_iterator(_Tptr _Parg, const _Container_base* _Pvector) noexcept : _Ptr(_Parg) {

  0000b	8b 5f 08	 mov	 ebx, DWORD PTR [edi+8]
  0000e	8b 77 04	 mov	 esi, DWORD PTR [edi+4]
; File C:\Program Files (x86)\Microsoft Visual Studio\2019\Community\VC\Tools\MSVC\14.28.29333\include\algorithm

; 307  :     for (; _UFirst != _ULast; ++_UFirst) {

  00011	3b f3		 cmp	 esi, ebx
  00013	74 14		 je	 SHORT $LN19@CDynamicPo
$LL20@CDynamicPo:
; File D:\Metin2 Server Files\mainline\SRC_2014\Metin2Client\eterLib\Pool.h

; 224  : 			::operator delete(pkData);

  00015	ff 36		 push	 DWORD PTR [esi]
  00017	e8 00 00 00 00	 call	 ??3@YAXPAX@Z		; operator delete
; File C:\Program Files (x86)\Microsoft Visual Studio\2019\Community\VC\Tools\MSVC\14.28.29333\include\algorithm

; 307  :     for (; _UFirst != _ULast; ++_UFirst) {

  0001c	83 c6 04	 add	 esi, 4
; File D:\Metin2 Server Files\mainline\SRC_2014\Metin2Client\eterLib\Pool.h

; 224  : 			::operator delete(pkData);

  0001f	83 c4 04	 add	 esp, 4
; File C:\Program Files (x86)\Microsoft Visual Studio\2019\Community\VC\Tools\MSVC\14.28.29333\include\algorithm

; 307  :     for (; _UFirst != _ULast; ++_UFirst) {

  00022	3b f3		 cmp	 esi, ebx
  00024	75 ef		 jne	 SHORT $LL20@CDynamicPo
  00026	8b 77 04	 mov	 esi, DWORD PTR [edi+4]
$LN19@CDynamicPo:
; File D:\Metin2 Server Files\mainline\SRC_2014\Metin2Client\eterLib\Pool.h

; 162  : 			m_kVct_pkFree.clear();

  00029	8b 4f 10	 mov	 ecx, DWORD PTR [edi+16]
  0002c	89 77 08	 mov	 DWORD PTR [edi+8], esi
  0002f	89 4f 14	 mov	 DWORD PTR [edi+20], ecx
; File C:\Program Files (x86)\Microsoft Visual Studio\2019\Community\VC\Tools\MSVC\14.28.29333\include\vector

; 1694 :         if (_Myfirst) { // destroy and deallocate old array

  00032	85 c9		 test	 ecx, ecx
  00034	74 27		 je	 SHORT $LN27@CDynamicPo

; 1695 :             _Destroy(_Myfirst, _Mylast);
; 1696 :             _Getal().deallocate(_Myfirst, static_cast<size_type>(_Myend - _Myfirst));

  00036	8b 47 18	 mov	 eax, DWORD PTR [edi+24]
  00039	2b c1		 sub	 eax, ecx
; File C:\Program Files (x86)\Microsoft Visual Studio\2019\Community\VC\Tools\MSVC\14.28.29333\include\xmemory

; 810  :         _Deallocate<_New_alignof<_Ty>>(_Ptr, sizeof(_Ty) * _Count);

  0003b	83 e0 fc	 and	 eax, -4			; fffffffcH
  0003e	50		 push	 eax
  0003f	51		 push	 ecx
  00040	e8 00 00 00 00	 call	 ??$_Deallocate@$07$0A@@std@@YAXPAXI@Z ; std::_Deallocate<8,0>
; File C:\Program Files (x86)\Microsoft Visual Studio\2019\Community\VC\Tools\MSVC\14.28.29333\include\vector

; 1698 :             _Myfirst = pointer();

  00045	c7 47 10 00 00
	00 00		 mov	 DWORD PTR [edi+16], 0
; File C:\Program Files (x86)\Microsoft Visual Studio\2019\Community\VC\Tools\MSVC\14.28.29333\include\xmemory

; 810  :         _Deallocate<_New_alignof<_Ty>>(_Ptr, sizeof(_Ty) * _Count);

  0004c	83 c4 08	 add	 esp, 8
; File C:\Program Files (x86)\Microsoft Visual Studio\2019\Community\VC\Tools\MSVC\14.28.29333\include\vector

; 1699 :             _Mylast  = pointer();

  0004f	c7 47 14 00 00
	00 00		 mov	 DWORD PTR [edi+20], 0

; 1700 :             _Myend   = pointer();

  00056	c7 47 18 00 00
	00 00		 mov	 DWORD PTR [edi+24], 0
$LN27@CDynamicPo:

; 1694 :         if (_Myfirst) { // destroy and deallocate old array

  0005d	8b 4f 04	 mov	 ecx, DWORD PTR [edi+4]
  00060	85 c9		 test	 ecx, ecx
  00062	74 27		 je	 SHORT $LN34@CDynamicPo

; 1695 :             _Destroy(_Myfirst, _Mylast);
; 1696 :             _Getal().deallocate(_Myfirst, static_cast<size_type>(_Myend - _Myfirst));

  00064	8b 47 0c	 mov	 eax, DWORD PTR [edi+12]
  00067	2b c1		 sub	 eax, ecx
; File C:\Program Files (x86)\Microsoft Visual Studio\2019\Community\VC\Tools\MSVC\14.28.29333\include\xmemory

; 810  :         _Deallocate<_New_alignof<_Ty>>(_Ptr, sizeof(_Ty) * _Count);

  00069	83 e0 fc	 and	 eax, -4			; fffffffcH
  0006c	50		 push	 eax
  0006d	51		 push	 ecx
  0006e	e8 00 00 00 00	 call	 ??$_Deallocate@$07$0A@@std@@YAXPAXI@Z ; std::_Deallocate<8,0>
; File C:\Program Files (x86)\Microsoft Visual Studio\2019\Community\VC\Tools\MSVC\14.28.29333\include\vector

; 1698 :             _Myfirst = pointer();

  00073	c7 47 04 00 00
	00 00		 mov	 DWORD PTR [edi+4], 0
; File C:\Program Files (x86)\Microsoft Visual Studio\2019\Community\VC\Tools\MSVC\14.28.29333\include\xmemory

; 810  :         _Deallocate<_New_alignof<_Ty>>(_Ptr, sizeof(_Ty) * _Count);

  0007a	83 c4 08	 add	 esp, 8
; File C:\Program Files (x86)\Microsoft Visual Studio\2019\Community\VC\Tools\MSVC\14.28.29333\include\vector

; 1699 :             _Mylast  = pointer();

  0007d	c7 47 08 00 00
	00 00		 mov	 DWORD PTR [edi+8], 0

; 1700 :             _Myend   = pointer();

  00084	c7 47 0c 00 00
	00 00		 mov	 DWORD PTR [edi+12], 0
$LN34@CDynamicPo:
  0008b	5f		 pop	 edi
; File D:\Metin2 Server Files\mainline\SRC_2014\Metin2Client\eterLib\Pool.h

; 142  : 		}

  0008c	5e		 pop	 esi
  0008d	5b		 pop	 ebx
  0008e	c3		 ret	 0
??1?$CDynamicPoolEx@VCTextureAnimationRandomDecorator@NEffectUpdateDecorator@@@@UAE@XZ ENDP ; CDynamicPoolEx<NEffectUpdateDecorator::CTextureAnimationRandomDecorator>::~CDynamicPoolEx<NEffectUpdateDecorator::CTextureAnimationRandomDecorator>
_TEXT	ENDS
; Function compile flags: /Ogtp
;	COMDAT ??_G?$CDynamicPoolEx@VCAirResistanceDecorator@NEffectUpdateDecorator@@@@UAEPAXI@Z
_TEXT	SEGMENT
___flags$ = 8						; size = 4
??_G?$CDynamicPoolEx@VCAirResistanceDecorator@NEffectUpdateDecorator@@@@UAEPAXI@Z PROC ; CDynamicPoolEx<NEffectUpdateDecorator::CAirResistanceDecorator>::`scalar deleting destructor', COMDAT
; _this$ = ecx
  00000	55		 push	 ebp
  00001	8b ec		 mov	 ebp, esp
  00003	56		 push	 esi
  00004	8b f1		 mov	 esi, ecx
  00006	e8 00 00 00 00	 call	 ??1?$CDynamicPoolEx@VCAirResistanceDecorator@NEffectUpdateDecorator@@@@UAE@XZ ; CDynamicPoolEx<NEffectUpdateDecorator::CAirResistanceDecorator>::~CDynamicPoolEx<NEffectUpdateDecorator::CAirResistanceDecorator>
  0000b	f6 45 08 01	 test	 BYTE PTR ___flags$[ebp], 1
  0000f	74 0b		 je	 SHORT $LN4@scalar
  00011	6a 24		 push	 36			; 00000024H
  00013	56		 push	 esi
  00014	e8 00 00 00 00	 call	 ??3@YAXPAXI@Z		; operator delete
  00019	83 c4 08	 add	 esp, 8
$LN4@scalar:
  0001c	8b c6		 mov	 eax, esi
  0001e	5e		 pop	 esi
  0001f	5d		 pop	 ebp
  00020	c2 04 00	 ret	 4
??_G?$CDynamicPoolEx@VCAirResistanceDecorator@NEffectUpdateDecorator@@@@UAEPAXI@Z ENDP ; CDynamicPoolEx<NEffectUpdateDecorator::CAirResistanceDecorator>::`scalar deleting destructor'
_TEXT	ENDS
; Function compile flags: /Ogtp
; File D:\Metin2 Server Files\mainline\SRC_2014\Metin2Client\eterLib\Pool.h
;	COMDAT ?Delete@?$CDynamicPoolEx@VCAirResistanceDecorator@NEffectUpdateDecorator@@@@KAXPAVCAirResistanceDecorator@NEffectUpdateDecorator@@@Z
_TEXT	SEGMENT
_pkData$ = 8						; size = 4
?Delete@?$CDynamicPoolEx@VCAirResistanceDecorator@NEffectUpdateDecorator@@@@KAXPAVCAirResistanceDecorator@NEffectUpdateDecorator@@@Z PROC ; CDynamicPoolEx<NEffectUpdateDecorator::CAirResistanceDecorator>::Delete, COMDAT

; 224  : 			::operator delete(pkData);

  00000	e9 00 00 00 00	 jmp	 ??3@YAXPAX@Z		; operator delete
?Delete@?$CDynamicPoolEx@VCAirResistanceDecorator@NEffectUpdateDecorator@@@@KAXPAVCAirResistanceDecorator@NEffectUpdateDecorator@@@Z ENDP ; CDynamicPoolEx<NEffectUpdateDecorator::CAirResistanceDecorator>::Delete
_TEXT	ENDS
; Function compile flags: /Ogtp
; File D:\Metin2 Server Files\mainline\SRC_2014\Metin2Client\eterLib\Pool.h
; File C:\Program Files (x86)\Microsoft Visual Studio\2019\Community\VC\Tools\MSVC\14.28.29333\include\vector
; File C:\Program Files (x86)\Microsoft Visual Studio\2019\Community\VC\Tools\MSVC\14.28.29333\include\algorithm
; File D:\Metin2 Server Files\mainline\SRC_2014\Metin2Client\eterLib\Pool.h
; File C:\Program Files (x86)\Microsoft Visual Studio\2019\Community\VC\Tools\MSVC\14.28.29333\include\algorithm
; File D:\Metin2 Server Files\mainline\SRC_2014\Metin2Client\eterLib\Pool.h
; File C:\Program Files (x86)\Microsoft Visual Studio\2019\Community\VC\Tools\MSVC\14.28.29333\include\algorithm
; File D:\Metin2 Server Files\mainline\SRC_2014\Metin2Client\eterLib\Pool.h
; File C:\Program Files (x86)\Microsoft Visual Studio\2019\Community\VC\Tools\MSVC\14.28.29333\include\vector
; File C:\Program Files (x86)\Microsoft Visual Studio\2019\Community\VC\Tools\MSVC\14.28.29333\include\xmemory
; File C:\Program Files (x86)\Microsoft Visual Studio\2019\Community\VC\Tools\MSVC\14.28.29333\include\vector
; File C:\Program Files (x86)\Microsoft Visual Studio\2019\Community\VC\Tools\MSVC\14.28.29333\include\xmemory
; File C:\Program Files (x86)\Microsoft Visual Studio\2019\Community\VC\Tools\MSVC\14.28.29333\include\vector
; File C:\Program Files (x86)\Microsoft Visual Studio\2019\Community\VC\Tools\MSVC\14.28.29333\include\xmemory
; File C:\Program Files (x86)\Microsoft Visual Studio\2019\Community\VC\Tools\MSVC\14.28.29333\include\vector
; File C:\Program Files (x86)\Microsoft Visual Studio\2019\Community\VC\Tools\MSVC\14.28.29333\include\xmemory
; File C:\Program Files (x86)\Microsoft Visual Studio\2019\Community\VC\Tools\MSVC\14.28.29333\include\vector
; File D:\Metin2 Server Files\mainline\SRC_2014\Metin2Client\eterLib\Pool.h
;	COMDAT ??1?$CDynamicPoolEx@VCAirResistanceDecorator@NEffectUpdateDecorator@@@@UAE@XZ
_TEXT	SEGMENT
??1?$CDynamicPoolEx@VCAirResistanceDecorator@NEffectUpdateDecorator@@@@UAE@XZ PROC ; CDynamicPoolEx<NEffectUpdateDecorator::CAirResistanceDecorator>::~CDynamicPoolEx<NEffectUpdateDecorator::CAirResistanceDecorator>, COMDAT
; _this$ = ecx

; 132  : 		{

  00000	53		 push	 ebx
  00001	56		 push	 esi
  00002	57		 push	 edi
  00003	8b f9		 mov	 edi, ecx
  00005	c7 07 00 00 00
	00		 mov	 DWORD PTR [edi], OFFSET ??_7?$CDynamicPoolEx@VCAirResistanceDecorator@NEffectUpdateDecorator@@@@6B@
; File C:\Program Files (x86)\Microsoft Visual Studio\2019\Community\VC\Tools\MSVC\14.28.29333\include\vector

; 42   :     _Vector_const_iterator(_Tptr _Parg, const _Container_base* _Pvector) noexcept : _Ptr(_Parg) {

  0000b	8b 5f 08	 mov	 ebx, DWORD PTR [edi+8]
  0000e	8b 77 04	 mov	 esi, DWORD PTR [edi+4]
; File C:\Program Files (x86)\Microsoft Visual Studio\2019\Community\VC\Tools\MSVC\14.28.29333\include\algorithm

; 307  :     for (; _UFirst != _ULast; ++_UFirst) {

  00011	3b f3		 cmp	 esi, ebx
  00013	74 14		 je	 SHORT $LN19@CDynamicPo
$LL20@CDynamicPo:
; File D:\Metin2 Server Files\mainline\SRC_2014\Metin2Client\eterLib\Pool.h

; 224  : 			::operator delete(pkData);

  00015	ff 36		 push	 DWORD PTR [esi]
  00017	e8 00 00 00 00	 call	 ??3@YAXPAX@Z		; operator delete
; File C:\Program Files (x86)\Microsoft Visual Studio\2019\Community\VC\Tools\MSVC\14.28.29333\include\algorithm

; 307  :     for (; _UFirst != _ULast; ++_UFirst) {

  0001c	83 c6 04	 add	 esi, 4
; File D:\Metin2 Server Files\mainline\SRC_2014\Metin2Client\eterLib\Pool.h

; 224  : 			::operator delete(pkData);

  0001f	83 c4 04	 add	 esp, 4
; File C:\Program Files (x86)\Microsoft Visual Studio\2019\Community\VC\Tools\MSVC\14.28.29333\include\algorithm

; 307  :     for (; _UFirst != _ULast; ++_UFirst) {

  00022	3b f3		 cmp	 esi, ebx
  00024	75 ef		 jne	 SHORT $LL20@CDynamicPo
  00026	8b 77 04	 mov	 esi, DWORD PTR [edi+4]
$LN19@CDynamicPo:
; File D:\Metin2 Server Files\mainline\SRC_2014\Metin2Client\eterLib\Pool.h

; 162  : 			m_kVct_pkFree.clear();

  00029	8b 4f 10	 mov	 ecx, DWORD PTR [edi+16]
  0002c	89 77 08	 mov	 DWORD PTR [edi+8], esi
  0002f	89 4f 14	 mov	 DWORD PTR [edi+20], ecx
; File C:\Program Files (x86)\Microsoft Visual Studio\2019\Community\VC\Tools\MSVC\14.28.29333\include\vector

; 1694 :         if (_Myfirst) { // destroy and deallocate old array

  00032	85 c9		 test	 ecx, ecx
  00034	74 27		 je	 SHORT $LN27@CDynamicPo

; 1695 :             _Destroy(_Myfirst, _Mylast);
; 1696 :             _Getal().deallocate(_Myfirst, static_cast<size_type>(_Myend - _Myfirst));

  00036	8b 47 18	 mov	 eax, DWORD PTR [edi+24]
  00039	2b c1		 sub	 eax, ecx
; File C:\Program Files (x86)\Microsoft Visual Studio\2019\Community\VC\Tools\MSVC\14.28.29333\include\xmemory

; 810  :         _Deallocate<_New_alignof<_Ty>>(_Ptr, sizeof(_Ty) * _Count);

  0003b	83 e0 fc	 and	 eax, -4			; fffffffcH
  0003e	50		 push	 eax
  0003f	51		 push	 ecx
  00040	e8 00 00 00 00	 call	 ??$_Deallocate@$07$0A@@std@@YAXPAXI@Z ; std::_Deallocate<8,0>
; File C:\Program Files (x86)\Microsoft Visual Studio\2019\Community\VC\Tools\MSVC\14.28.29333\include\vector

; 1698 :             _Myfirst = pointer();

  00045	c7 47 10 00 00
	00 00		 mov	 DWORD PTR [edi+16], 0
; File C:\Program Files (x86)\Microsoft Visual Studio\2019\Community\VC\Tools\MSVC\14.28.29333\include\xmemory

; 810  :         _Deallocate<_New_alignof<_Ty>>(_Ptr, sizeof(_Ty) * _Count);

  0004c	83 c4 08	 add	 esp, 8
; File C:\Program Files (x86)\Microsoft Visual Studio\2019\Community\VC\Tools\MSVC\14.28.29333\include\vector

; 1699 :             _Mylast  = pointer();

  0004f	c7 47 14 00 00
	00 00		 mov	 DWORD PTR [edi+20], 0

; 1700 :             _Myend   = pointer();

  00056	c7 47 18 00 00
	00 00		 mov	 DWORD PTR [edi+24], 0
$LN27@CDynamicPo:

; 1694 :         if (_Myfirst) { // destroy and deallocate old array

  0005d	8b 4f 04	 mov	 ecx, DWORD PTR [edi+4]
  00060	85 c9		 test	 ecx, ecx
  00062	74 27		 je	 SHORT $LN34@CDynamicPo

; 1695 :             _Destroy(_Myfirst, _Mylast);
; 1696 :             _Getal().deallocate(_Myfirst, static_cast<size_type>(_Myend - _Myfirst));

  00064	8b 47 0c	 mov	 eax, DWORD PTR [edi+12]
  00067	2b c1		 sub	 eax, ecx
; File C:\Program Files (x86)\Microsoft Visual Studio\2019\Community\VC\Tools\MSVC\14.28.29333\include\xmemory

; 810  :         _Deallocate<_New_alignof<_Ty>>(_Ptr, sizeof(_Ty) * _Count);

  00069	83 e0 fc	 and	 eax, -4			; fffffffcH
  0006c	50		 push	 eax
  0006d	51		 push	 ecx
  0006e	e8 00 00 00 00	 call	 ??$_Deallocate@$07$0A@@std@@YAXPAXI@Z ; std::_Deallocate<8,0>
; File C:\Program Files (x86)\Microsoft Visual Studio\2019\Community\VC\Tools\MSVC\14.28.29333\include\vector

; 1698 :             _Myfirst = pointer();

  00073	c7 47 04 00 00
	00 00		 mov	 DWORD PTR [edi+4], 0
; File C:\Program Files (x86)\Microsoft Visual Studio\2019\Community\VC\Tools\MSVC\14.28.29333\include\xmemory

; 810  :         _Deallocate<_New_alignof<_Ty>>(_Ptr, sizeof(_Ty) * _Count);

  0007a	83 c4 08	 add	 esp, 8
; File C:\Program Files (x86)\Microsoft Visual Studio\2019\Community\VC\Tools\MSVC\14.28.29333\include\vector

; 1699 :             _Mylast  = pointer();

  0007d	c7 47 08 00 00
	00 00		 mov	 DWORD PTR [edi+8], 0

; 1700 :             _Myend   = pointer();

  00084	c7 47 0c 00 00
	00 00		 mov	 DWORD PTR [edi+12], 0
$LN34@CDynamicPo:
  0008b	5f		 pop	 edi
; File D:\Metin2 Server Files\mainline\SRC_2014\Metin2Client\eterLib\Pool.h

; 142  : 		}

  0008c	5e		 pop	 esi
  0008d	5b		 pop	 ebx
  0008e	c3		 ret	 0
??1?$CDynamicPoolEx@VCAirResistanceDecorator@NEffectUpdateDecorator@@@@UAE@XZ ENDP ; CDynamicPoolEx<NEffectUpdateDecorator::CAirResistanceDecorator>::~CDynamicPoolEx<NEffectUpdateDecorator::CAirResistanceDecorator>
_TEXT	ENDS
; Function compile flags: /Ogtp
;	COMDAT ??_G?$CDynamicPoolEx@VCGravityDecorator@NEffectUpdateDecorator@@@@UAEPAXI@Z
_TEXT	SEGMENT
___flags$ = 8						; size = 4
??_G?$CDynamicPoolEx@VCGravityDecorator@NEffectUpdateDecorator@@@@UAEPAXI@Z PROC ; CDynamicPoolEx<NEffectUpdateDecorator::CGravityDecorator>::`scalar deleting destructor', COMDAT
; _this$ = ecx
  00000	55		 push	 ebp
  00001	8b ec		 mov	 ebp, esp
  00003	56		 push	 esi
  00004	8b f1		 mov	 esi, ecx
  00006	e8 00 00 00 00	 call	 ??1?$CDynamicPoolEx@VCGravityDecorator@NEffectUpdateDecorator@@@@UAE@XZ ; CDynamicPoolEx<NEffectUpdateDecorator::CGravityDecorator>::~CDynamicPoolEx<NEffectUpdateDecorator::CGravityDecorator>
  0000b	f6 45 08 01	 test	 BYTE PTR ___flags$[ebp], 1
  0000f	74 0b		 je	 SHORT $LN4@scalar
  00011	6a 24		 push	 36			; 00000024H
  00013	56		 push	 esi
  00014	e8 00 00 00 00	 call	 ??3@YAXPAXI@Z		; operator delete
  00019	83 c4 08	 add	 esp, 8
$LN4@scalar:
  0001c	8b c6		 mov	 eax, esi
  0001e	5e		 pop	 esi
  0001f	5d		 pop	 ebp
  00020	c2 04 00	 ret	 4
??_G?$CDynamicPoolEx@VCGravityDecorator@NEffectUpdateDecorator@@@@UAEPAXI@Z ENDP ; CDynamicPoolEx<NEffectUpdateDecorator::CGravityDecorator>::`scalar deleting destructor'
_TEXT	ENDS
; Function compile flags: /Ogtp
; File D:\Metin2 Server Files\mainline\SRC_2014\Metin2Client\eterLib\Pool.h
;	COMDAT ?Delete@?$CDynamicPoolEx@VCGravityDecorator@NEffectUpdateDecorator@@@@KAXPAVCGravityDecorator@NEffectUpdateDecorator@@@Z
_TEXT	SEGMENT
_pkData$ = 8						; size = 4
?Delete@?$CDynamicPoolEx@VCGravityDecorator@NEffectUpdateDecorator@@@@KAXPAVCGravityDecorator@NEffectUpdateDecorator@@@Z PROC ; CDynamicPoolEx<NEffectUpdateDecorator::CGravityDecorator>::Delete, COMDAT

; 224  : 			::operator delete(pkData);

  00000	e9 00 00 00 00	 jmp	 ??3@YAXPAX@Z		; operator delete
?Delete@?$CDynamicPoolEx@VCGravityDecorator@NEffectUpdateDecorator@@@@KAXPAVCGravityDecorator@NEffectUpdateDecorator@@@Z ENDP ; CDynamicPoolEx<NEffectUpdateDecorator::CGravityDecorator>::Delete
_TEXT	ENDS
; Function compile flags: /Ogtp
; File D:\Metin2 Server Files\mainline\SRC_2014\Metin2Client\eterLib\Pool.h
; File C:\Program Files (x86)\Microsoft Visual Studio\2019\Community\VC\Tools\MSVC\14.28.29333\include\vector
; File C:\Program Files (x86)\Microsoft Visual Studio\2019\Community\VC\Tools\MSVC\14.28.29333\include\algorithm
; File D:\Metin2 Server Files\mainline\SRC_2014\Metin2Client\eterLib\Pool.h
; File C:\Program Files (x86)\Microsoft Visual Studio\2019\Community\VC\Tools\MSVC\14.28.29333\include\algorithm
; File D:\Metin2 Server Files\mainline\SRC_2014\Metin2Client\eterLib\Pool.h
; File C:\Program Files (x86)\Microsoft Visual Studio\2019\Community\VC\Tools\MSVC\14.28.29333\include\algorithm
; File D:\Metin2 Server Files\mainline\SRC_2014\Metin2Client\eterLib\Pool.h
; File C:\Program Files (x86)\Microsoft Visual Studio\2019\Community\VC\Tools\MSVC\14.28.29333\include\vector
; File C:\Program Files (x86)\Microsoft Visual Studio\2019\Community\VC\Tools\MSVC\14.28.29333\include\xmemory
; File C:\Program Files (x86)\Microsoft Visual Studio\2019\Community\VC\Tools\MSVC\14.28.29333\include\vector
; File C:\Program Files (x86)\Microsoft Visual Studio\2019\Community\VC\Tools\MSVC\14.28.29333\include\xmemory
; File C:\Program Files (x86)\Microsoft Visual Studio\2019\Community\VC\Tools\MSVC\14.28.29333\include\vector
; File C:\Program Files (x86)\Microsoft Visual Studio\2019\Community\VC\Tools\MSVC\14.28.29333\include\xmemory
; File C:\Program Files (x86)\Microsoft Visual Studio\2019\Community\VC\Tools\MSVC\14.28.29333\include\vector
; File C:\Program Files (x86)\Microsoft Visual Studio\2019\Community\VC\Tools\MSVC\14.28.29333\include\xmemory
; File C:\Program Files (x86)\Microsoft Visual Studio\2019\Community\VC\Tools\MSVC\14.28.29333\include\vector
; File D:\Metin2 Server Files\mainline\SRC_2014\Metin2Client\eterLib\Pool.h
;	COMDAT ??1?$CDynamicPoolEx@VCGravityDecorator@NEffectUpdateDecorator@@@@UAE@XZ
_TEXT	SEGMENT
??1?$CDynamicPoolEx@VCGravityDecorator@NEffectUpdateDecorator@@@@UAE@XZ PROC ; CDynamicPoolEx<NEffectUpdateDecorator::CGravityDecorator>::~CDynamicPoolEx<NEffectUpdateDecorator::CGravityDecorator>, COMDAT
; _this$ = ecx

; 132  : 		{

  00000	53		 push	 ebx
  00001	56		 push	 esi
  00002	57		 push	 edi
  00003	8b f9		 mov	 edi, ecx
  00005	c7 07 00 00 00
	00		 mov	 DWORD PTR [edi], OFFSET ??_7?$CDynamicPoolEx@VCGravityDecorator@NEffectUpdateDecorator@@@@6B@
; File C:\Program Files (x86)\Microsoft Visual Studio\2019\Community\VC\Tools\MSVC\14.28.29333\include\vector

; 42   :     _Vector_const_iterator(_Tptr _Parg, const _Container_base* _Pvector) noexcept : _Ptr(_Parg) {

  0000b	8b 5f 08	 mov	 ebx, DWORD PTR [edi+8]
  0000e	8b 77 04	 mov	 esi, DWORD PTR [edi+4]
; File C:\Program Files (x86)\Microsoft Visual Studio\2019\Community\VC\Tools\MSVC\14.28.29333\include\algorithm

; 307  :     for (; _UFirst != _ULast; ++_UFirst) {

  00011	3b f3		 cmp	 esi, ebx
  00013	74 14		 je	 SHORT $LN19@CDynamicPo
$LL20@CDynamicPo:
; File D:\Metin2 Server Files\mainline\SRC_2014\Metin2Client\eterLib\Pool.h

; 224  : 			::operator delete(pkData);

  00015	ff 36		 push	 DWORD PTR [esi]
  00017	e8 00 00 00 00	 call	 ??3@YAXPAX@Z		; operator delete
; File C:\Program Files (x86)\Microsoft Visual Studio\2019\Community\VC\Tools\MSVC\14.28.29333\include\algorithm

; 307  :     for (; _UFirst != _ULast; ++_UFirst) {

  0001c	83 c6 04	 add	 esi, 4
; File D:\Metin2 Server Files\mainline\SRC_2014\Metin2Client\eterLib\Pool.h

; 224  : 			::operator delete(pkData);

  0001f	83 c4 04	 add	 esp, 4
; File C:\Program Files (x86)\Microsoft Visual Studio\2019\Community\VC\Tools\MSVC\14.28.29333\include\algorithm

; 307  :     for (; _UFirst != _ULast; ++_UFirst) {

  00022	3b f3		 cmp	 esi, ebx
  00024	75 ef		 jne	 SHORT $LL20@CDynamicPo
  00026	8b 77 04	 mov	 esi, DWORD PTR [edi+4]
$LN19@CDynamicPo:
; File D:\Metin2 Server Files\mainline\SRC_2014\Metin2Client\eterLib\Pool.h

; 162  : 			m_kVct_pkFree.clear();

  00029	8b 4f 10	 mov	 ecx, DWORD PTR [edi+16]
  0002c	89 77 08	 mov	 DWORD PTR [edi+8], esi
  0002f	89 4f 14	 mov	 DWORD PTR [edi+20], ecx
; File C:\Program Files (x86)\Microsoft Visual Studio\2019\Community\VC\Tools\MSVC\14.28.29333\include\vector

; 1694 :         if (_Myfirst) { // destroy and deallocate old array

  00032	85 c9		 test	 ecx, ecx
  00034	74 27		 je	 SHORT $LN27@CDynamicPo

; 1695 :             _Destroy(_Myfirst, _Mylast);
; 1696 :             _Getal().deallocate(_Myfirst, static_cast<size_type>(_Myend - _Myfirst));

  00036	8b 47 18	 mov	 eax, DWORD PTR [edi+24]
  00039	2b c1		 sub	 eax, ecx
; File C:\Program Files (x86)\Microsoft Visual Studio\2019\Community\VC\Tools\MSVC\14.28.29333\include\xmemory

; 810  :         _Deallocate<_New_alignof<_Ty>>(_Ptr, sizeof(_Ty) * _Count);

  0003b	83 e0 fc	 and	 eax, -4			; fffffffcH
  0003e	50		 push	 eax
  0003f	51		 push	 ecx
  00040	e8 00 00 00 00	 call	 ??$_Deallocate@$07$0A@@std@@YAXPAXI@Z ; std::_Deallocate<8,0>
; File C:\Program Files (x86)\Microsoft Visual Studio\2019\Community\VC\Tools\MSVC\14.28.29333\include\vector

; 1698 :             _Myfirst = pointer();

  00045	c7 47 10 00 00
	00 00		 mov	 DWORD PTR [edi+16], 0
; File C:\Program Files (x86)\Microsoft Visual Studio\2019\Community\VC\Tools\MSVC\14.28.29333\include\xmemory

; 810  :         _Deallocate<_New_alignof<_Ty>>(_Ptr, sizeof(_Ty) * _Count);

  0004c	83 c4 08	 add	 esp, 8
; File C:\Program Files (x86)\Microsoft Visual Studio\2019\Community\VC\Tools\MSVC\14.28.29333\include\vector

; 1699 :             _Mylast  = pointer();

  0004f	c7 47 14 00 00
	00 00		 mov	 DWORD PTR [edi+20], 0

; 1700 :             _Myend   = pointer();

  00056	c7 47 18 00 00
	00 00		 mov	 DWORD PTR [edi+24], 0
$LN27@CDynamicPo:

; 1694 :         if (_Myfirst) { // destroy and deallocate old array

  0005d	8b 4f 04	 mov	 ecx, DWORD PTR [edi+4]
  00060	85 c9		 test	 ecx, ecx
  00062	74 27		 je	 SHORT $LN34@CDynamicPo

; 1695 :             _Destroy(_Myfirst, _Mylast);
; 1696 :             _Getal().deallocate(_Myfirst, static_cast<size_type>(_Myend - _Myfirst));

  00064	8b 47 0c	 mov	 eax, DWORD PTR [edi+12]
  00067	2b c1		 sub	 eax, ecx
; File C:\Program Files (x86)\Microsoft Visual Studio\2019\Community\VC\Tools\MSVC\14.28.29333\include\xmemory

; 810  :         _Deallocate<_New_alignof<_Ty>>(_Ptr, sizeof(_Ty) * _Count);

  00069	83 e0 fc	 and	 eax, -4			; fffffffcH
  0006c	50		 push	 eax
  0006d	51		 push	 ecx
  0006e	e8 00 00 00 00	 call	 ??$_Deallocate@$07$0A@@std@@YAXPAXI@Z ; std::_Deallocate<8,0>
; File C:\Program Files (x86)\Microsoft Visual Studio\2019\Community\VC\Tools\MSVC\14.28.29333\include\vector

; 1698 :             _Myfirst = pointer();

  00073	c7 47 04 00 00
	00 00		 mov	 DWORD PTR [edi+4], 0
; File C:\Program Files (x86)\Microsoft Visual Studio\2019\Community\VC\Tools\MSVC\14.28.29333\include\xmemory

; 810  :         _Deallocate<_New_alignof<_Ty>>(_Ptr, sizeof(_Ty) * _Count);

  0007a	83 c4 08	 add	 esp, 8
; File C:\Program Files (x86)\Microsoft Visual Studio\2019\Community\VC\Tools\MSVC\14.28.29333\include\vector

; 1699 :             _Mylast  = pointer();

  0007d	c7 47 08 00 00
	00 00		 mov	 DWORD PTR [edi+8], 0

; 1700 :             _Myend   = pointer();

  00084	c7 47 0c 00 00
	00 00		 mov	 DWORD PTR [edi+12], 0
$LN34@CDynamicPo:
  0008b	5f		 pop	 edi
; File D:\Metin2 Server Files\mainline\SRC_2014\Metin2Client\eterLib\Pool.h

; 142  : 		}

  0008c	5e		 pop	 esi
  0008d	5b		 pop	 ebx
  0008e	c3		 ret	 0
??1?$CDynamicPoolEx@VCGravityDecorator@NEffectUpdateDecorator@@@@UAE@XZ ENDP ; CDynamicPoolEx<NEffectUpdateDecorator::CGravityDecorator>::~CDynamicPoolEx<NEffectUpdateDecorator::CGravityDecorator>
_TEXT	ENDS
; Function compile flags: /Ogtp
;	COMDAT ??_G?$CDynamicPoolEx@VCRotationDecorator@NEffectUpdateDecorator@@@@UAEPAXI@Z
_TEXT	SEGMENT
___flags$ = 8						; size = 4
??_G?$CDynamicPoolEx@VCRotationDecorator@NEffectUpdateDecorator@@@@UAEPAXI@Z PROC ; CDynamicPoolEx<NEffectUpdateDecorator::CRotationDecorator>::`scalar deleting destructor', COMDAT
; _this$ = ecx
  00000	55		 push	 ebp
  00001	8b ec		 mov	 ebp, esp
  00003	56		 push	 esi
  00004	8b f1		 mov	 esi, ecx
  00006	e8 00 00 00 00	 call	 ??1?$CDynamicPoolEx@VCRotationDecorator@NEffectUpdateDecorator@@@@UAE@XZ ; CDynamicPoolEx<NEffectUpdateDecorator::CRotationDecorator>::~CDynamicPoolEx<NEffectUpdateDecorator::CRotationDecorator>
  0000b	f6 45 08 01	 test	 BYTE PTR ___flags$[ebp], 1
  0000f	74 0b		 je	 SHORT $LN4@scalar
  00011	6a 24		 push	 36			; 00000024H
  00013	56		 push	 esi
  00014	e8 00 00 00 00	 call	 ??3@YAXPAXI@Z		; operator delete
  00019	83 c4 08	 add	 esp, 8
$LN4@scalar:
  0001c	8b c6		 mov	 eax, esi
  0001e	5e		 pop	 esi
  0001f	5d		 pop	 ebp
  00020	c2 04 00	 ret	 4
??_G?$CDynamicPoolEx@VCRotationDecorator@NEffectUpdateDecorator@@@@UAEPAXI@Z ENDP ; CDynamicPoolEx<NEffectUpdateDecorator::CRotationDecorator>::`scalar deleting destructor'
_TEXT	ENDS
; Function compile flags: /Ogtp
; File D:\Metin2 Server Files\mainline\SRC_2014\Metin2Client\eterLib\Pool.h
;	COMDAT ?Delete@?$CDynamicPoolEx@VCRotationDecorator@NEffectUpdateDecorator@@@@KAXPAVCRotationDecorator@NEffectUpdateDecorator@@@Z
_TEXT	SEGMENT
_pkData$ = 8						; size = 4
?Delete@?$CDynamicPoolEx@VCRotationDecorator@NEffectUpdateDecorator@@@@KAXPAVCRotationDecorator@NEffectUpdateDecorator@@@Z PROC ; CDynamicPoolEx<NEffectUpdateDecorator::CRotationDecorator>::Delete, COMDAT

; 224  : 			::operator delete(pkData);

  00000	e9 00 00 00 00	 jmp	 ??3@YAXPAX@Z		; operator delete
?Delete@?$CDynamicPoolEx@VCRotationDecorator@NEffectUpdateDecorator@@@@KAXPAVCRotationDecorator@NEffectUpdateDecorator@@@Z ENDP ; CDynamicPoolEx<NEffectUpdateDecorator::CRotationDecorator>::Delete
_TEXT	ENDS
; Function compile flags: /Ogtp
; File D:\Metin2 Server Files\mainline\SRC_2014\Metin2Client\eterLib\Pool.h
; File C:\Program Files (x86)\Microsoft Visual Studio\2019\Community\VC\Tools\MSVC\14.28.29333\include\vector
; File C:\Program Files (x86)\Microsoft Visual Studio\2019\Community\VC\Tools\MSVC\14.28.29333\include\algorithm
; File D:\Metin2 Server Files\mainline\SRC_2014\Metin2Client\eterLib\Pool.h
; File C:\Program Files (x86)\Microsoft Visual Studio\2019\Community\VC\Tools\MSVC\14.28.29333\include\algorithm
; File D:\Metin2 Server Files\mainline\SRC_2014\Metin2Client\eterLib\Pool.h
; File C:\Program Files (x86)\Microsoft Visual Studio\2019\Community\VC\Tools\MSVC\14.28.29333\include\algorithm
; File D:\Metin2 Server Files\mainline\SRC_2014\Metin2Client\eterLib\Pool.h
; File C:\Program Files (x86)\Microsoft Visual Studio\2019\Community\VC\Tools\MSVC\14.28.29333\include\vector
; File C:\Program Files (x86)\Microsoft Visual Studio\2019\Community\VC\Tools\MSVC\14.28.29333\include\xmemory
; File C:\Program Files (x86)\Microsoft Visual Studio\2019\Community\VC\Tools\MSVC\14.28.29333\include\vector
; File C:\Program Files (x86)\Microsoft Visual Studio\2019\Community\VC\Tools\MSVC\14.28.29333\include\xmemory
; File C:\Program Files (x86)\Microsoft Visual Studio\2019\Community\VC\Tools\MSVC\14.28.29333\include\vector
; File C:\Program Files (x86)\Microsoft Visual Studio\2019\Community\VC\Tools\MSVC\14.28.29333\include\xmemory
; File C:\Program Files (x86)\Microsoft Visual Studio\2019\Community\VC\Tools\MSVC\14.28.29333\include\vector
; File C:\Program Files (x86)\Microsoft Visual Studio\2019\Community\VC\Tools\MSVC\14.28.29333\include\xmemory
; File C:\Program Files (x86)\Microsoft Visual Studio\2019\Community\VC\Tools\MSVC\14.28.29333\include\vector
; File D:\Metin2 Server Files\mainline\SRC_2014\Metin2Client\eterLib\Pool.h
;	COMDAT ??1?$CDynamicPoolEx@VCRotationDecorator@NEffectUpdateDecorator@@@@UAE@XZ
_TEXT	SEGMENT
??1?$CDynamicPoolEx@VCRotationDecorator@NEffectUpdateDecorator@@@@UAE@XZ PROC ; CDynamicPoolEx<NEffectUpdateDecorator::CRotationDecorator>::~CDynamicPoolEx<NEffectUpdateDecorator::CRotationDecorator>, COMDAT
; _this$ = ecx

; 132  : 		{

  00000	53		 push	 ebx
  00001	56		 push	 esi
  00002	57		 push	 edi
  00003	8b f9		 mov	 edi, ecx
  00005	c7 07 00 00 00
	00		 mov	 DWORD PTR [edi], OFFSET ??_7?$CDynamicPoolEx@VCRotationDecorator@NEffectUpdateDecorator@@@@6B@
; File C:\Program Files (x86)\Microsoft Visual Studio\2019\Community\VC\Tools\MSVC\14.28.29333\include\vector

; 42   :     _Vector_const_iterator(_Tptr _Parg, const _Container_base* _Pvector) noexcept : _Ptr(_Parg) {

  0000b	8b 5f 08	 mov	 ebx, DWORD PTR [edi+8]
  0000e	8b 77 04	 mov	 esi, DWORD PTR [edi+4]
; File C:\Program Files (x86)\Microsoft Visual Studio\2019\Community\VC\Tools\MSVC\14.28.29333\include\algorithm

; 307  :     for (; _UFirst != _ULast; ++_UFirst) {

  00011	3b f3		 cmp	 esi, ebx
  00013	74 14		 je	 SHORT $LN19@CDynamicPo
$LL20@CDynamicPo:
; File D:\Metin2 Server Files\mainline\SRC_2014\Metin2Client\eterLib\Pool.h

; 224  : 			::operator delete(pkData);

  00015	ff 36		 push	 DWORD PTR [esi]
  00017	e8 00 00 00 00	 call	 ??3@YAXPAX@Z		; operator delete
; File C:\Program Files (x86)\Microsoft Visual Studio\2019\Community\VC\Tools\MSVC\14.28.29333\include\algorithm

; 307  :     for (; _UFirst != _ULast; ++_UFirst) {

  0001c	83 c6 04	 add	 esi, 4
; File D:\Metin2 Server Files\mainline\SRC_2014\Metin2Client\eterLib\Pool.h

; 224  : 			::operator delete(pkData);

  0001f	83 c4 04	 add	 esp, 4
; File C:\Program Files (x86)\Microsoft Visual Studio\2019\Community\VC\Tools\MSVC\14.28.29333\include\algorithm

; 307  :     for (; _UFirst != _ULast; ++_UFirst) {

  00022	3b f3		 cmp	 esi, ebx
  00024	75 ef		 jne	 SHORT $LL20@CDynamicPo
  00026	8b 77 04	 mov	 esi, DWORD PTR [edi+4]
$LN19@CDynamicPo:
; File D:\Metin2 Server Files\mainline\SRC_2014\Metin2Client\eterLib\Pool.h

; 162  : 			m_kVct_pkFree.clear();

  00029	8b 4f 10	 mov	 ecx, DWORD PTR [edi+16]
  0002c	89 77 08	 mov	 DWORD PTR [edi+8], esi
  0002f	89 4f 14	 mov	 DWORD PTR [edi+20], ecx
; File C:\Program Files (x86)\Microsoft Visual Studio\2019\Community\VC\Tools\MSVC\14.28.29333\include\vector

; 1694 :         if (_Myfirst) { // destroy and deallocate old array

  00032	85 c9		 test	 ecx, ecx
  00034	74 27		 je	 SHORT $LN27@CDynamicPo

; 1695 :             _Destroy(_Myfirst, _Mylast);
; 1696 :             _Getal().deallocate(_Myfirst, static_cast<size_type>(_Myend - _Myfirst));

  00036	8b 47 18	 mov	 eax, DWORD PTR [edi+24]
  00039	2b c1		 sub	 eax, ecx
; File C:\Program Files (x86)\Microsoft Visual Studio\2019\Community\VC\Tools\MSVC\14.28.29333\include\xmemory

; 810  :         _Deallocate<_New_alignof<_Ty>>(_Ptr, sizeof(_Ty) * _Count);

  0003b	83 e0 fc	 and	 eax, -4			; fffffffcH
  0003e	50		 push	 eax
  0003f	51		 push	 ecx
  00040	e8 00 00 00 00	 call	 ??$_Deallocate@$07$0A@@std@@YAXPAXI@Z ; std::_Deallocate<8,0>
; File C:\Program Files (x86)\Microsoft Visual Studio\2019\Community\VC\Tools\MSVC\14.28.29333\include\vector

; 1698 :             _Myfirst = pointer();

  00045	c7 47 10 00 00
	00 00		 mov	 DWORD PTR [edi+16], 0
; File C:\Program Files (x86)\Microsoft Visual Studio\2019\Community\VC\Tools\MSVC\14.28.29333\include\xmemory

; 810  :         _Deallocate<_New_alignof<_Ty>>(_Ptr, sizeof(_Ty) * _Count);

  0004c	83 c4 08	 add	 esp, 8
; File C:\Program Files (x86)\Microsoft Visual Studio\2019\Community\VC\Tools\MSVC\14.28.29333\include\vector

; 1699 :             _Mylast  = pointer();

  0004f	c7 47 14 00 00
	00 00		 mov	 DWORD PTR [edi+20], 0

; 1700 :             _Myend   = pointer();

  00056	c7 47 18 00 00
	00 00		 mov	 DWORD PTR [edi+24], 0
$LN27@CDynamicPo:

; 1694 :         if (_Myfirst) { // destroy and deallocate old array

  0005d	8b 4f 04	 mov	 ecx, DWORD PTR [edi+4]
  00060	85 c9		 test	 ecx, ecx
  00062	74 27		 je	 SHORT $LN34@CDynamicPo

; 1695 :             _Destroy(_Myfirst, _Mylast);
; 1696 :             _Getal().deallocate(_Myfirst, static_cast<size_type>(_Myend - _Myfirst));

  00064	8b 47 0c	 mov	 eax, DWORD PTR [edi+12]
  00067	2b c1		 sub	 eax, ecx
; File C:\Program Files (x86)\Microsoft Visual Studio\2019\Community\VC\Tools\MSVC\14.28.29333\include\xmemory

; 810  :         _Deallocate<_New_alignof<_Ty>>(_Ptr, sizeof(_Ty) * _Count);

  00069	83 e0 fc	 and	 eax, -4			; fffffffcH
  0006c	50		 push	 eax
  0006d	51		 push	 ecx
  0006e	e8 00 00 00 00	 call	 ??$_Deallocate@$07$0A@@std@@YAXPAXI@Z ; std::_Deallocate<8,0>
; File C:\Program Files (x86)\Microsoft Visual Studio\2019\Community\VC\Tools\MSVC\14.28.29333\include\vector

; 1698 :             _Myfirst = pointer();

  00073	c7 47 04 00 00
	00 00		 mov	 DWORD PTR [edi+4], 0
; File C:\Program Files (x86)\Microsoft Visual Studio\2019\Community\VC\Tools\MSVC\14.28.29333\include\xmemory

; 810  :         _Deallocate<_New_alignof<_Ty>>(_Ptr, sizeof(_Ty) * _Count);

  0007a	83 c4 08	 add	 esp, 8
; File C:\Program Files (x86)\Microsoft Visual Studio\2019\Community\VC\Tools\MSVC\14.28.29333\include\vector

; 1699 :             _Mylast  = pointer();

  0007d	c7 47 08 00 00
	00 00		 mov	 DWORD PTR [edi+8], 0

; 1700 :             _Myend   = pointer();

  00084	c7 47 0c 00 00
	00 00		 mov	 DWORD PTR [edi+12], 0
$LN34@CDynamicPo:
  0008b	5f		 pop	 edi
; File D:\Metin2 Server Files\mainline\SRC_2014\Metin2Client\eterLib\Pool.h

; 142  : 		}

  0008c	5e		 pop	 esi
  0008d	5b		 pop	 ebx
  0008e	c3		 ret	 0
??1?$CDynamicPoolEx@VCRotationDecorator@NEffectUpdateDecorator@@@@UAE@XZ ENDP ; CDynamicPoolEx<NEffectUpdateDecorator::CRotationDecorator>::~CDynamicPoolEx<NEffectUpdateDecorator::CRotationDecorator>
_TEXT	ENDS
; Function compile flags: /Ogtp
; File D:\Metin2 Server Files\mainline\SRC_2014\Metin2Client\UserInterface\PythonPlayerModule.cpp
; File D:\Metin2 Server Files\mainline\SRC_2014\Metin2Client\UserInterface\GameType.h
; File D:\Metin2 Server Files\mainline\SRC_2014\Metin2Client\UserInterface\PythonPlayerModule.cpp
;	COMDAT ?playerSendDragonSoulRefine@@YAPAU_object@@PAU1@0@Z
_TEXT	SEGMENT
_bSubHeader$ = -72					; size = 1
_pos$1 = -68						; size = 4
_key$2 = -64						; size = 4
_pDic$ = -60						; size = 4
_value$3 = -56						; size = 4
_RefineItemPoses$ = -52					; size = 45
__$ArrayPad$ = -4					; size = 4
_poSelf$ = 8						; size = 4
_poArgs$ = 12						; size = 4
?playerSendDragonSoulRefine@@YAPAU_object@@PAU1@0@Z PROC ; playerSendDragonSoulRefine, COMDAT

; 2126 : {

  00000	55		 push	 ebp
  00001	8b ec		 mov	 ebp, esp
  00003	83 ec 48	 sub	 esp, 72			; 00000048H
  00006	a1 00 00 00 00	 mov	 eax, DWORD PTR ___security_cookie
  0000b	33 c5		 xor	 eax, ebp
  0000d	89 45 fc	 mov	 DWORD PTR __$ArrayPad$[ebp], eax
  00010	56		 push	 esi
  00011	8b 75 0c	 mov	 esi, DWORD PTR _poArgs$[ebp]

; 2127 : 	BYTE bSubHeader;
; 2128 : 	PyObject* pDic;
; 2129 : 	TItemPos RefineItemPoses[DS_REFINE_WINDOW_MAX_NUM];

  00014	8d 45 cc	 lea	 eax, DWORD PTR _RefineItemPoses$[ebp]
  00017	b9 0f 00 00 00	 mov	 ecx, 15			; 0000000fH
  0001c	ba ff ff 00 00	 mov	 edx, 65535		; 0000ffffH
$LL15@playerSend:
; File D:\Metin2 Server Files\mainline\SRC_2014\Metin2Client\UserInterface\GameType.h

; 186  : 		window_type =     INVENTORY;

  00021	c6 00 01	 mov	 BYTE PTR [eax], 1
  00024	8d 40 03	 lea	 eax, DWORD PTR [eax+3]

; 187  : 		cell = WORD_MAX;

  00027	66 89 50 fe	 mov	 WORD PTR [eax-2], dx
  0002b	83 e9 01	 sub	 ecx, 1
  0002e	75 f1		 jne	 SHORT $LL15@playerSend
; File D:\Metin2 Server Files\mainline\SRC_2014\Metin2Client\UserInterface\PythonPlayerModule.cpp

; 2130 : 	if (!PyTuple_GetByte(poArgs, 0, &bSubHeader))

  00030	8d 45 b8	 lea	 eax, DWORD PTR _bSubHeader$[ebp]
  00033	50		 push	 eax
  00034	51		 push	 ecx
  00035	56		 push	 esi
  00036	e8 00 00 00 00	 call	 ?PyTuple_GetByte@@YA_NPAU_object@@HPAE@Z ; PyTuple_GetByte
  0003b	83 c4 0c	 add	 esp, 12			; 0000000cH
  0003e	84 c0		 test	 al, al
  00040	75 19		 jne	 SHORT $LN6@playerSend

; 2131 : 		return Py_BuildException();

  00042	6a 00		 push	 0
  00044	e8 00 00 00 00	 call	 ?Py_BuildException@@YAPAU_object@@PBDZZ ; Py_BuildException
  00049	83 c4 04	 add	 esp, 4
  0004c	5e		 pop	 esi

; 2166 : }

  0004d	8b 4d fc	 mov	 ecx, DWORD PTR __$ArrayPad$[ebp]
  00050	33 cd		 xor	 ecx, ebp
  00052	e8 00 00 00 00	 call	 @__security_check_cookie@4
  00057	8b e5		 mov	 esp, ebp
  00059	5d		 pop	 ebp
  0005a	c3		 ret	 0
$LN6@playerSend:

; 2132 : 	switch (bSubHeader)

  0005b	8a 45 b8	 mov	 al, BYTE PTR _bSubHeader$[ebp]
  0005e	2c 02		 sub	 al, 2
  00060	53		 push	 ebx
  00061	57		 push	 edi
  00062	3c 02		 cmp	 al, 2
  00064	0f 87 a1 00 00
	00		 ja	 $LN30@playerSend

; 2133 : 	{
; 2134 : 	case DS_SUB_HEADER_CLOSE:
; 2135 : 		break;
; 2136 : 	case DS_SUB_HEADER_DO_UPGRADE:
; 2137 : 	case DS_SUB_HEADER_DO_IMPROVEMENT:
; 2138 : 	case DS_SUB_HEADER_DO_REFINE:
; 2139 : 		{
; 2140 : 			if (!PyTuple_GetObject(poArgs, 1, &pDic))

  0006a	8d 45 c4	 lea	 eax, DWORD PTR _pDic$[ebp]
  0006d	50		 push	 eax
  0006e	6a 01		 push	 1
  00070	56		 push	 esi
  00071	e8 00 00 00 00	 call	 ?PyTuple_GetObject@@YA_NPAU_object@@HPAPAU1@@Z ; PyTuple_GetObject
  00076	83 c4 0c	 add	 esp, 12			; 0000000cH
  00079	84 c0		 test	 al, al
  0007b	0f 84 b2 00 00
	00		 je	 $LN22@playerSend

; 2141 : 				return Py_BuildException();
; 2142 : 			int pos = 0;
; 2143 : 			PyObject* key, *value;
; 2144 : 			int size = PyDict_Size(pDic);

  00081	ff 75 c4	 push	 DWORD PTR _pDic$[ebp]
  00084	c7 45 bc 00 00
	00 00		 mov	 DWORD PTR _pos$1[ebp], 0
  0008b	ff 15 00 00 00
	00		 call	 DWORD PTR __imp__PyDict_Size

; 2145 : 
; 2146 : 			while (PyDict_Next(pDic, &pos, &key, &value))

  00091	8b 1d 00 00 00
	00		 mov	 ebx, DWORD PTR __imp__PyDict_Next
  00097	8d 45 c8	 lea	 eax, DWORD PTR _value$3[ebp]
  0009a	50		 push	 eax
  0009b	8d 45 c0	 lea	 eax, DWORD PTR _key$2[ebp]
  0009e	50		 push	 eax
  0009f	8d 45 bc	 lea	 eax, DWORD PTR _pos$1[ebp]
  000a2	50		 push	 eax
  000a3	ff 75 c4	 push	 DWORD PTR _pDic$[ebp]
  000a6	ff d3		 call	 ebx
  000a8	83 c4 14	 add	 esp, 20			; 00000014H
  000ab	85 c0		 test	 eax, eax
  000ad	74 5c		 je	 SHORT $LN30@playerSend
  000af	8b 3d 00 00 00
	00		 mov	 edi, DWORD PTR __imp__PyInt_AsLong
$LL4@playerSend:

; 2147 : 			{
; 2148 : 				int i = PyInt_AsLong(key);

  000b5	ff 75 c0	 push	 DWORD PTR _key$2[ebp]
  000b8	ff d7		 call	 edi
  000ba	83 c4 04	 add	 esp, 4

; 2149 : 				if (i > DS_REFINE_WINDOW_MAX_NUM)

  000bd	83 f8 0f	 cmp	 eax, 15			; 0000000fH
  000c0	7f 71		 jg	 SHORT $LN22@playerSend

; 2151 : 
; 2152 : 				if (!PyTuple_GetByte(value, 0, &RefineItemPoses[i].window_type) 
; 2153 : 					|| !PyTuple_GetInteger(value, 1, &RefineItemPoses[i].cell))

  000c2	8d 34 40	 lea	 esi, DWORD PTR [eax+eax*2]
  000c5	8d 45 cc	 lea	 eax, DWORD PTR _RefineItemPoses$[ebp]
  000c8	03 c6		 add	 eax, esi
  000ca	50		 push	 eax
  000cb	6a 00		 push	 0
  000cd	ff 75 c8	 push	 DWORD PTR _value$3[ebp]
  000d0	e8 00 00 00 00	 call	 ?PyTuple_GetByte@@YA_NPAU_object@@HPAE@Z ; PyTuple_GetByte
  000d5	83 c4 0c	 add	 esp, 12			; 0000000cH
  000d8	84 c0		 test	 al, al
  000da	74 57		 je	 SHORT $LN22@playerSend
  000dc	8d 45 cd	 lea	 eax, DWORD PTR _RefineItemPoses$[ebp+1]
  000df	03 c6		 add	 eax, esi
  000e1	50		 push	 eax
  000e2	6a 01		 push	 1
  000e4	ff 75 c8	 push	 DWORD PTR _value$3[ebp]
  000e7	e8 00 00 00 00	 call	 ?PyTuple_GetInteger@@YA_NPAU_object@@HPAG@Z ; PyTuple_GetInteger
  000ec	83 c4 0c	 add	 esp, 12			; 0000000cH
  000ef	84 c0		 test	 al, al
  000f1	74 40		 je	 SHORT $LN22@playerSend

; 2145 : 
; 2146 : 			while (PyDict_Next(pDic, &pos, &key, &value))

  000f3	8d 45 c8	 lea	 eax, DWORD PTR _value$3[ebp]
  000f6	50		 push	 eax
  000f7	8d 45 c0	 lea	 eax, DWORD PTR _key$2[ebp]
  000fa	50		 push	 eax
  000fb	8d 45 bc	 lea	 eax, DWORD PTR _pos$1[ebp]
  000fe	50		 push	 eax
  000ff	ff 75 c4	 push	 DWORD PTR _pDic$[ebp]
  00102	ff d3		 call	 ebx
  00104	83 c4 10	 add	 esp, 16			; 00000010H
  00107	85 c0		 test	 eax, eax
  00109	75 aa		 jne	 SHORT $LL4@playerSend
$LN30@playerSend:

; 2154 : 				{
; 2155 : 					return Py_BuildException();
; 2156 : 				}
; 2157 : 			}
; 2158 : 		}
; 2159 : 		break;
; 2160 : 	}
; 2161 : 
; 2162 : 	CPythonNetworkStream& rns=CPythonNetworkStream::Instance();
; 2163 : 	rns.SendDragonSoulRefinePacket(bSubHeader, RefineItemPoses);

  0010b	8b 0d 00 00 00
	00		 mov	 ecx, DWORD PTR ?ms_singleton@?$CSingleton@VCPythonNetworkStream@@@@0PAVCPythonNetworkStream@@A ; CSingleton<CPythonNetworkStream>::ms_singleton
  00111	8d 45 cc	 lea	 eax, DWORD PTR _RefineItemPoses$[ebp]
  00114	50		 push	 eax
  00115	ff 75 b8	 push	 DWORD PTR _bSubHeader$[ebp]
  00118	e8 00 00 00 00	 call	 ?SendDragonSoulRefinePacket@CPythonNetworkStream@@QAE_NEPAUSItemPos@@@Z ; CPythonNetworkStream::SendDragonSoulRefinePacket

; 2164 : 	
; 2165 : 	return Py_BuildNone();

  0011d	e8 00 00 00 00	 call	 ?Py_BuildNone@@YAPAU_object@@XZ ; Py_BuildNone
  00122	5f		 pop	 edi
  00123	5b		 pop	 ebx
  00124	5e		 pop	 esi

; 2166 : }

  00125	8b 4d fc	 mov	 ecx, DWORD PTR __$ArrayPad$[ebp]
  00128	33 cd		 xor	 ecx, ebp
  0012a	e8 00 00 00 00	 call	 @__security_check_cookie@4
  0012f	8b e5		 mov	 esp, ebp
  00131	5d		 pop	 ebp
  00132	c3		 ret	 0
$LN22@playerSend:

; 2150 : 					return Py_BuildException();

  00133	6a 00		 push	 0
  00135	e8 00 00 00 00	 call	 ?Py_BuildException@@YAPAU_object@@PBDZZ ; Py_BuildException

; 2166 : }

  0013a	8b 4d fc	 mov	 ecx, DWORD PTR __$ArrayPad$[ebp]
  0013d	83 c4 04	 add	 esp, 4
  00140	33 cd		 xor	 ecx, ebp
  00142	5f		 pop	 edi
  00143	5b		 pop	 ebx
  00144	5e		 pop	 esi
  00145	e8 00 00 00 00	 call	 @__security_check_cookie@4
  0014a	8b e5		 mov	 esp, ebp
  0014c	5d		 pop	 ebp
  0014d	c3		 ret	 0
?playerSendDragonSoulRefine@@YAPAU_object@@PAU1@0@Z ENDP ; playerSendDragonSoulRefine
_TEXT	ENDS
; Function compile flags: /Ogtp
; File D:\Metin2 Server Files\mainline\SRC_2014\Metin2Client\UserInterface\PythonPlayerModule.cpp
; File D:\Metin2 Server Files\mainline\SRC_2014\Metin2Client\UserInterface\GameType.h
; File D:\Metin2 Server Files\mainline\SRC_2014\Metin2Client\UserInterface\PythonPlayerModule.cpp
; File D:\Metin2 Server Files\mainline\SRC_2014\Metin2Client\UserInterface\GameType.h
; File D:\Metin2 Server Files\mainline\SRC_2014\Metin2Client\UserInterface\PythonPlayerModule.cpp
;	COMDAT ?playerIsAvailableBeltInventoryCell@@YAPAU_object@@PAU1@0@Z
_TEXT	SEGMENT
_pos$ = -4						; size = 4
$T1 = -3						; size = 3
_poSelf$ = 8						; size = 4
_poArgs$ = 12						; size = 4
?playerIsAvailableBeltInventoryCell@@YAPAU_object@@PAU1@0@Z PROC ; playerIsAvailableBeltInventoryCell, COMDAT

; 2102 : {

  00000	55		 push	 ebp
  00001	8b ec		 mov	 ebp, esp
  00003	51		 push	 ecx
  00004	56		 push	 esi

; 2104 : 	const TItemData* pData = player->GetItemData(TItemPos(EQUIPMENT, c_Equipment_Belt));

  00005	51		 push	 ecx
  00006	8b 0d 00 00 00
	00		 mov	 ecx, DWORD PTR ?ms_singleton@?$CSingleton@VCPythonPlayer@@@@0PAVCPythonPlayer@@A ; CSingleton<CPythonPlayer>::ms_singleton
; File D:\Metin2 Server Files\mainline\SRC_2014\Metin2Client\UserInterface\GameType.h

; 192  :         cell = _cell;

  0000c	b8 71 00 00 00	 mov	 eax, 113		; 00000071H
; File D:\Metin2 Server Files\mainline\SRC_2014\Metin2Client\UserInterface\PythonPlayerModule.cpp

; 2104 : 	const TItemData* pData = player->GetItemData(TItemPos(EQUIPMENT, c_Equipment_Belt));

  00011	8b d4		 mov	 edx, esp
; File D:\Metin2 Server Files\mainline\SRC_2014\Metin2Client\UserInterface\GameType.h

; 192  :         cell = _cell;

  00013	66 89 45 fe	 mov	 WORD PTR $T1[ebp+1], ax
  00017	c6 45 fd 02	 mov	 BYTE PTR $T1[ebp], 2
; File D:\Metin2 Server Files\mainline\SRC_2014\Metin2Client\UserInterface\PythonPlayerModule.cpp

; 2104 : 	const TItemData* pData = player->GetItemData(TItemPos(EQUIPMENT, c_Equipment_Belt));

  0001b	66 8b 45 fd	 mov	 ax, WORD PTR $T1[ebp]
  0001f	66 89 02	 mov	 WORD PTR [edx], ax
  00022	8a 45 ff	 mov	 al, BYTE PTR $T1[ebp+2]
  00025	88 42 02	 mov	 BYTE PTR [edx+2], al
  00028	e8 00 00 00 00	 call	 ?GetItemData@CPythonPlayer@@QBEPBUpacket_item@@USItemPos@@@Z ; CPythonPlayer::GetItemData

; 2105 : 
; 2106 : 	if (NULL == pData || 0 == pData->count)

  0002d	85 c0		 test	 eax, eax
  0002f	74 7c		 je	 SHORT $LN3@playerIsAv
  00031	80 78 04 00	 cmp	 BYTE PTR [eax+4], 0
  00035	74 76		 je	 SHORT $LN3@playerIsAv

; 2108 : 
; 2109 : 	CItemManager::Instance().SelectItemData(pData->vnum);

  00037	ff 30		 push	 DWORD PTR [eax]
  00039	8b 0d 00 00 00
	00		 mov	 ecx, DWORD PTR ?ms_singleton@?$CSingleton@VCItemManager@@@@0PAVCItemManager@@A ; CSingleton<CItemManager>::ms_singleton
  0003f	e8 00 00 00 00	 call	 ?SelectItemData@CItemManager@@QAEHK@Z ; CItemManager::SelectItemData

; 2110 : 	CItemData * pItem = CItemManager::Instance().GetSelectedItemDataPointer();

  00044	8b 0d 00 00 00
	00		 mov	 ecx, DWORD PTR ?ms_singleton@?$CSingleton@VCItemManager@@@@0PAVCItemManager@@A ; CSingleton<CItemManager>::ms_singleton
  0004a	e8 00 00 00 00	 call	 ?GetSelectedItemDataPointer@CItemManager@@QAEPAVCItemData@@XZ ; CItemManager::GetSelectedItemDataPointer

; 2111 : 
; 2112 : 	long beltGrade = pItem->GetValue(0);

  0004f	6a 00		 push	 0
  00051	8b c8		 mov	 ecx, eax
  00053	e8 00 00 00 00	 call	 ?GetValue@CItemData@@QBEJE@Z ; CItemData::GetValue
  00058	8b f0		 mov	 esi, eax

; 2113 : 
; 2114 : 	int pos = 0;

  0005a	c7 45 fc 00 00
	00 00		 mov	 DWORD PTR _pos$[ebp], 0

; 2115 : 	if (!PyTuple_GetInteger(poArgs, 0, &pos))

  00061	8d 45 fc	 lea	 eax, DWORD PTR _pos$[ebp]
  00064	50		 push	 eax
  00065	6a 00		 push	 0
  00067	ff 75 0c	 push	 DWORD PTR _poArgs$[ebp]
  0006a	e8 00 00 00 00	 call	 ?PyTuple_GetInteger@@YA_NPAU_object@@HPAH@Z ; PyTuple_GetInteger
  0006f	83 c4 0c	 add	 esp, 12			; 0000000cH
  00072	84 c0		 test	 al, al
  00074	75 0a		 jne	 SHORT $LN4@playerIsAv

; 2116 : 		return Py_BadArgument();

  00076	e8 00 00 00 00	 call	 ?Py_BadArgument@@YAPAU_object@@XZ ; Py_BadArgument

; 2120 : }

  0007b	5e		 pop	 esi
  0007c	8b e5		 mov	 esp, ebp
  0007e	5d		 pop	 ebp
  0007f	c3		 ret	 0
$LN4@playerIsAv:

; 2117 : 
; 2118 : 	//return Py_BuildValue("b", CBeltInventoryHelper::IsAvailableCell(pos - c_Belt_Inventory_Slot_Start, GetItemGrade(pItem->GetName())));
; 2119 : 	return Py_BuildValue("b", CBeltInventoryHelper::IsAvailableCell(pos - c_Belt_Inventory_Slot_Start, beltGrade));

  00080	8b 45 fc	 mov	 eax, DWORD PTR _pos$[ebp]
  00083	33 c9		 xor	 ecx, ecx
  00085	05 68 ff ff ff	 add	 eax, -152		; ffffff68H

; 107  : 		return ruleTable[cell] <= beltGrade;

  0008a	0f b7 c0	 movzx	 eax, ax
  0008d	0f b6 80 00 00
	00 00		 movzx	 eax, BYTE PTR ?availableRuleByGrade@?1??GetAvailableRuleTableByGrade@CBeltInventoryHelper@@SAPBEXZ@4PAEA[eax]

; 2117 : 
; 2118 : 	//return Py_BuildValue("b", CBeltInventoryHelper::IsAvailableCell(pos - c_Belt_Inventory_Slot_Start, GetItemGrade(pItem->GetName())));
; 2119 : 	return Py_BuildValue("b", CBeltInventoryHelper::IsAvailableCell(pos - c_Belt_Inventory_Slot_Start, beltGrade));

  00094	3b c6		 cmp	 eax, esi
  00096	0f 9e c1	 setle	 cl
  00099	51		 push	 ecx

; 2120 : }

  0009a	68 00 00 00 00	 push	 OFFSET ??_C@_01OJONOECF@b@
  0009f	ff 15 00 00 00
	00		 call	 DWORD PTR __imp__Py_BuildValue
  000a5	83 c4 08	 add	 esp, 8
  000a8	5e		 pop	 esi
  000a9	8b e5		 mov	 esp, ebp
  000ab	5d		 pop	 ebp
  000ac	c3		 ret	 0
$LN3@playerIsAv:

; 2107 : 		return Py_BuildValue("b", false);

  000ad	6a 00		 push	 0

; 2120 : }

  000af	68 00 00 00 00	 push	 OFFSET ??_C@_01OJONOECF@b@
  000b4	ff 15 00 00 00
	00		 call	 DWORD PTR __imp__Py_BuildValue
  000ba	83 c4 08	 add	 esp, 8
  000bd	5e		 pop	 esi
  000be	8b e5		 mov	 esp, ebp
  000c0	5d		 pop	 ebp
  000c1	c3		 ret	 0
?playerIsAvailableBeltInventoryCell@@YAPAU_object@@PAU1@0@Z ENDP ; playerIsAvailableBeltInventoryCell
_TEXT	ENDS
; Function compile flags: /Ogtp
; File D:\Metin2 Server Files\mainline\SRC_2014\Metin2Client\UserInterface\PythonPlayerModule.cpp
; File D:\Metin2 Server Files\mainline\SRC_2014\Metin2Client\UserInterface\GameType.h
; File D:\Metin2 Server Files\mainline\SRC_2014\Metin2Client\UserInterface\PythonPlayerModule.cpp
; File D:\Metin2 Server Files\mainline\SRC_2014\Metin2Client\UserInterface\GameType.h
; File D:\Metin2 Server Files\mainline\SRC_2014\Metin2Client\UserInterface\PythonPlayerModule.cpp
;	COMDAT ?playerIsEquippingBelt@@YAPAU_object@@PAU1@0@Z
_TEXT	SEGMENT
$T1 = -3						; size = 3
_poSelf$ = 8						; size = 4
_poArgs$ = 12						; size = 4
?playerIsEquippingBelt@@YAPAU_object@@PAU1@0@Z PROC	; playerIsEquippingBelt, COMDAT

; 2087 : {

  00000	55		 push	 ebp
  00001	8b ec		 mov	 ebp, esp
  00003	51		 push	 ecx

; 2091 : 	const TItemData* data = player->GetItemData(TItemPos(EQUIPMENT, c_Equipment_Belt));

  00004	51		 push	 ecx
  00005	8b 0d 00 00 00
	00		 mov	 ecx, DWORD PTR ?ms_singleton@?$CSingleton@VCPythonPlayer@@@@0PAVCPythonPlayer@@A ; CSingleton<CPythonPlayer>::ms_singleton
; File D:\Metin2 Server Files\mainline\SRC_2014\Metin2Client\UserInterface\GameType.h

; 192  :         cell = _cell;

  0000b	b8 71 00 00 00	 mov	 eax, 113		; 00000071H
; File D:\Metin2 Server Files\mainline\SRC_2014\Metin2Client\UserInterface\PythonPlayerModule.cpp

; 2091 : 	const TItemData* data = player->GetItemData(TItemPos(EQUIPMENT, c_Equipment_Belt));

  00010	8b d4		 mov	 edx, esp
; File D:\Metin2 Server Files\mainline\SRC_2014\Metin2Client\UserInterface\GameType.h

; 192  :         cell = _cell;

  00012	66 89 45 fe	 mov	 WORD PTR $T1[ebp+1], ax
  00016	c6 45 fd 02	 mov	 BYTE PTR $T1[ebp], 2
; File D:\Metin2 Server Files\mainline\SRC_2014\Metin2Client\UserInterface\PythonPlayerModule.cpp

; 2091 : 	const TItemData* data = player->GetItemData(TItemPos(EQUIPMENT, c_Equipment_Belt));

  0001a	66 8b 45 fd	 mov	 ax, WORD PTR $T1[ebp]
  0001e	66 89 02	 mov	 WORD PTR [edx], ax
  00021	8a 45 ff	 mov	 al, BYTE PTR $T1[ebp+2]
  00024	88 42 02	 mov	 BYTE PTR [edx+2], al
  00027	e8 00 00 00 00	 call	 ?GetItemData@CPythonPlayer@@QBEPBUpacket_item@@USItemPos@@@Z ; CPythonPlayer::GetItemData
  0002c	33 c9		 xor	 ecx, ecx

; 2092 : 
; 2093 : 	if (NULL != data)

  0002e	85 c0		 test	 eax, eax
  00030	74 09		 je	 SHORT $LN2@playerIsEq

; 2094 : 		bEquipping = 0 < data->count;

  00032	32 c9		 xor	 cl, cl
  00034	3a 48 04	 cmp	 cl, BYTE PTR [eax+4]
  00037	1b c9		 sbb	 ecx, ecx
  00039	f7 d9		 neg	 ecx
$LN2@playerIsEq:

; 2095 : 
; 2096 : 	return Py_BuildValue("b", bEquipping);

  0003b	51		 push	 ecx
  0003c	68 00 00 00 00	 push	 OFFSET ??_C@_01OJONOECF@b@
  00041	ff 15 00 00 00
	00		 call	 DWORD PTR __imp__Py_BuildValue
  00047	83 c4 08	 add	 esp, 8

; 2097 : 	
; 2098 : }

  0004a	8b e5		 mov	 esp, ebp
  0004c	5d		 pop	 ebp
  0004d	c3		 ret	 0
?playerIsEquippingBelt@@YAPAU_object@@PAU1@0@Z ENDP	; playerIsEquippingBelt
_TEXT	ENDS
; Function compile flags: /Ogtp
; File D:\Metin2 Server Files\mainline\SRC_2014\Metin2Client\UserInterface\PythonPlayerModule.cpp
;	COMDAT ?playerSlotTypeToInvenType@@YAPAU_object@@PAU1@0@Z
_TEXT	SEGMENT
_slotType$ = -4						; size = 4
_poSelf$ = 8						; size = 4
_poArgs$ = 12						; size = 4
?playerSlotTypeToInvenType@@YAPAU_object@@PAU1@0@Z PROC	; playerSlotTypeToInvenType, COMDAT

; 2076 : {

  00000	55		 push	 ebp
  00001	8b ec		 mov	 ebp, esp
  00003	51		 push	 ecx

; 2077 : 	int slotType = 0;
; 2078 : 	if (!PyTuple_GetInteger(poArgs, 0, &slotType))

  00004	8d 45 fc	 lea	 eax, DWORD PTR _slotType$[ebp]
  00007	c7 45 fc 00 00
	00 00		 mov	 DWORD PTR _slotType$[ebp], 0
  0000e	50		 push	 eax
  0000f	6a 00		 push	 0
  00011	ff 75 0c	 push	 DWORD PTR _poArgs$[ebp]
  00014	e8 00 00 00 00	 call	 ?PyTuple_GetInteger@@YA_NPAU_object@@HPAH@Z ; PyTuple_GetInteger
  00019	83 c4 0c	 add	 esp, 12			; 0000000cH
  0001c	84 c0		 test	 al, al
  0001e	75 09		 jne	 SHORT $LN2@playerSlot

; 2079 : 		return Py_BadArgument();

  00020	e8 00 00 00 00	 call	 ?Py_BadArgument@@YAPAU_object@@XZ ; Py_BadArgument

; 2082 : }

  00025	8b e5		 mov	 esp, ebp
  00027	5d		 pop	 ebp
  00028	c3		 ret	 0
$LN2@playerSlot:

; 2080 : 
; 2081 : 	return Py_BuildValue("i", SlotTypeToInvenType((BYTE)slotType));

  00029	ff 75 fc	 push	 DWORD PTR _slotType$[ebp]
  0002c	e8 00 00 00 00	 call	 ?SlotTypeToInvenType@@YAEE@Z ; SlotTypeToInvenType
  00031	0f b6 c0	 movzx	 eax, al
  00034	50		 push	 eax
  00035	68 00 00 00 00	 push	 OFFSET ??_C@_01KBJDNOO@i@
  0003a	ff 15 00 00 00
	00		 call	 DWORD PTR __imp__Py_BuildValue
  00040	83 c4 0c	 add	 esp, 12			; 0000000cH

; 2082 : }

  00043	8b e5		 mov	 esp, ebp
  00045	5d		 pop	 ebp
  00046	c3		 ret	 0
?playerSlotTypeToInvenType@@YAPAU_object@@PAU1@0@Z ENDP	; playerSlotTypeToInvenType
_TEXT	ENDS
; Function compile flags: /Ogtp
; File D:\Metin2 Server Files\mainline\SRC_2014\Metin2Client\UserInterface\PythonPlayerModule.cpp
; File D:\Metin2 Server Files\mainline\SRC_2014\Metin2Client\UserInterface\PythonPlayer.h
; File D:\Metin2 Server Files\mainline\SRC_2014\Metin2Client\UserInterface\PythonPlayerModule.cpp
;	COMDAT ?playerGetAutoPotionInfo@@YAPAU_object@@PAU1@0@Z
_TEXT	SEGMENT
_potionType$ = -4					; size = 4
_poSelf$ = 8						; size = 4
_poArgs$ = 12						; size = 4
?playerGetAutoPotionInfo@@YAPAU_object@@PAU1@0@Z PROC	; playerGetAutoPotionInfo, COMDAT

; 2063 : {

  00000	55		 push	 ebp
  00001	8b ec		 mov	 ebp, esp
  00003	51		 push	 ecx
  00004	56		 push	 esi

; 2064 : 	CPythonPlayer* player = CPythonPlayer::InstancePtr();

  00005	8b 35 00 00 00
	00		 mov	 esi, DWORD PTR ?ms_singleton@?$CSingleton@VCPythonPlayer@@@@0PAVCPythonPlayer@@A ; CSingleton<CPythonPlayer>::ms_singleton

; 2065 : 
; 2066 : 	int potionType = 0;
; 2067 : 	if (!PyTuple_GetInteger(poArgs, 0, &potionType))

  0000b	8d 45 fc	 lea	 eax, DWORD PTR _potionType$[ebp]
  0000e	50		 push	 eax
  0000f	6a 00		 push	 0
  00011	ff 75 0c	 push	 DWORD PTR _poArgs$[ebp]
  00014	c7 45 fc 00 00
	00 00		 mov	 DWORD PTR _potionType$[ebp], 0
  0001b	e8 00 00 00 00	 call	 ?PyTuple_GetInteger@@YA_NPAU_object@@HPAH@Z ; PyTuple_GetInteger
  00020	83 c4 0c	 add	 esp, 12			; 0000000cH
  00023	84 c0		 test	 al, al
  00025	75 0a		 jne	 SHORT $LN2@playerGetA

; 2068 : 		return Py_BadArgument();

  00027	e8 00 00 00 00	 call	 ?Py_BadArgument@@YAPAU_object@@XZ ; Py_BadArgument
  0002c	5e		 pop	 esi

; 2073 : }

  0002d	8b e5		 mov	 esp, ebp
  0002f	5d		 pop	 ebp
  00030	c3		 ret	 0
$LN2@playerGetA:
; File D:\Metin2 Server Files\mainline\SRC_2014\Metin2Client\UserInterface\PythonPlayer.h

; 427  : 		__inline		SAutoPotionInfo& GetAutoPotionInfo(int type)		{ return m_kAutoPotionInfo[type]; }

  00031	8b 45 fc	 mov	 eax, DWORD PTR _potionType$[ebp]
  00034	03 c0		 add	 eax, eax
; File D:\Metin2 Server Files\mainline\SRC_2014\Metin2Client\UserInterface\PythonPlayerModule.cpp

; 2072 : 	return Py_BuildValue("biii", potionInfo.bActivated, int(potionInfo.currentAmount), int(potionInfo.totalAmount), int(potionInfo.inventorySlotIndex));

  00036	ff b4 c6 04 f8
	00 00		 push	 DWORD PTR [esi+eax*8+63492]
  0003d	ff b4 c6 00 f8
	00 00		 push	 DWORD PTR [esi+eax*8+63488]
  00044	ff b4 c6 fc f7
	00 00		 push	 DWORD PTR [esi+eax*8+63484]
  0004b	0f b6 84 c6 f8
	f7 00 00	 movzx	 eax, BYTE PTR [esi+eax*8+63480]
  00053	50		 push	 eax
  00054	68 00 00 00 00	 push	 OFFSET ??_C@_04GPDILEAH@biii@
  00059	ff 15 00 00 00
	00		 call	 DWORD PTR __imp__Py_BuildValue
  0005f	83 c4 14	 add	 esp, 20			; 00000014H
  00062	5e		 pop	 esi

; 2073 : }

  00063	8b e5		 mov	 esp, ebp
  00065	5d		 pop	 ebp
  00066	c3		 ret	 0
?playerGetAutoPotionInfo@@YAPAU_object@@PAU1@0@Z ENDP	; playerGetAutoPotionInfo
_TEXT	ENDS
; Function compile flags: /Ogtp
; File D:\Metin2 Server Files\mainline\SRC_2014\Metin2Client\UserInterface\PythonPlayerModule.cpp
; File D:\Metin2 Server Files\mainline\SRC_2014\Metin2Client\UserInterface\PythonPlayer.h
; File D:\Metin2 Server Files\mainline\SRC_2014\Metin2Client\UserInterface\PythonPlayerModule.cpp
;	COMDAT ?playerSetAutoPotionInfo@@YAPAU_object@@PAU1@0@Z
_TEXT	SEGMENT
_potionType$ = -4					; size = 4
_poSelf$ = 8						; size = 4
_poArgs$ = 12						; size = 4
?playerSetAutoPotionInfo@@YAPAU_object@@PAU1@0@Z PROC	; playerSetAutoPotionInfo, COMDAT

; 2038 : {

  00000	55		 push	 ebp
  00001	8b ec		 mov	 ebp, esp
  00003	51		 push	 ecx
  00004	56		 push	 esi

; 2039 : 	int potionType = 0;
; 2040 : 	if (!PyTuple_GetInteger(poArgs, 0, &potionType))

  00005	8b 75 0c	 mov	 esi, DWORD PTR _poArgs$[ebp]
  00008	8d 45 fc	 lea	 eax, DWORD PTR _potionType$[ebp]
  0000b	50		 push	 eax
  0000c	6a 00		 push	 0
  0000e	56		 push	 esi
  0000f	c7 45 fc 00 00
	00 00		 mov	 DWORD PTR _potionType$[ebp], 0
  00016	e8 00 00 00 00	 call	 ?PyTuple_GetInteger@@YA_NPAU_object@@HPAH@Z ; PyTuple_GetInteger
  0001b	83 c4 0c	 add	 esp, 12			; 0000000cH
  0001e	84 c0		 test	 al, al
  00020	75 0a		 jne	 SHORT $LN2@playerSetA

; 2041 : 		return Py_BadArgument();

  00022	e8 00 00 00 00	 call	 ?Py_BadArgument@@YAPAU_object@@XZ ; Py_BadArgument
  00027	5e		 pop	 esi

; 2060 : }

  00028	8b e5		 mov	 esp, ebp
  0002a	5d		 pop	 ebp
  0002b	c3		 ret	 0
$LN2@playerSetA:
; File D:\Metin2 Server Files\mainline\SRC_2014\Metin2Client\UserInterface\PythonPlayer.h

; 427  : 		__inline		SAutoPotionInfo& GetAutoPotionInfo(int type)		{ return m_kAutoPotionInfo[type]; }

  0002c	8b 4d fc	 mov	 ecx, DWORD PTR _potionType$[ebp]
  0002f	57		 push	 edi
  00030	8b 3d 00 00 00
	00		 mov	 edi, DWORD PTR ?ms_singleton@?$CSingleton@VCPythonPlayer@@@@0PAVCPythonPlayer@@A ; CSingleton<CPythonPlayer>::ms_singleton
  00036	c1 e1 04	 shl	 ecx, 4
  00039	81 c7 f8 f7 00
	00		 add	 edi, 63480		; 0000f7f8H
  0003f	03 f9		 add	 edi, ecx
; File D:\Metin2 Server Files\mainline\SRC_2014\Metin2Client\UserInterface\PythonPlayerModule.cpp

; 2047 : 	if (!PyTuple_GetBoolean(poArgs, 1, &potionInfo.bActivated))

  00041	57		 push	 edi
  00042	6a 01		 push	 1
  00044	56		 push	 esi
  00045	e8 00 00 00 00	 call	 ?PyTuple_GetBoolean@@YA_NPAU_object@@HPA_N@Z ; PyTuple_GetBoolean
  0004a	83 c4 0c	 add	 esp, 12			; 0000000cH
  0004d	84 c0		 test	 al, al
  0004f	74 39		 je	 SHORT $LN11@playerSetA

; 2048 : 		return Py_BadArgument();
; 2049 : 
; 2050 : 	if (!PyTuple_GetLong(poArgs, 2, &potionInfo.currentAmount))

  00051	8d 47 04	 lea	 eax, DWORD PTR [edi+4]
  00054	50		 push	 eax
  00055	6a 02		 push	 2
  00057	56		 push	 esi
  00058	e8 00 00 00 00	 call	 ?PyTuple_GetLong@@YA_NPAU_object@@HPAJ@Z ; PyTuple_GetLong
  0005d	83 c4 0c	 add	 esp, 12			; 0000000cH
  00060	84 c0		 test	 al, al
  00062	74 26		 je	 SHORT $LN11@playerSetA

; 2051 : 		return Py_BadArgument();
; 2052 : 
; 2053 : 	if (!PyTuple_GetLong(poArgs, 3, &potionInfo.totalAmount))

  00064	8d 47 08	 lea	 eax, DWORD PTR [edi+8]
  00067	50		 push	 eax
  00068	6a 03		 push	 3
  0006a	56		 push	 esi
  0006b	e8 00 00 00 00	 call	 ?PyTuple_GetLong@@YA_NPAU_object@@HPAJ@Z ; PyTuple_GetLong
  00070	83 c4 0c	 add	 esp, 12			; 0000000cH
  00073	84 c0		 test	 al, al
  00075	74 13		 je	 SHORT $LN11@playerSetA

; 2054 : 		return Py_BadArgument();
; 2055 : 
; 2056 : 	if (!PyTuple_GetLong(poArgs, 4, &potionInfo.inventorySlotIndex))

  00077	8d 47 0c	 lea	 eax, DWORD PTR [edi+12]
  0007a	50		 push	 eax
  0007b	6a 04		 push	 4
  0007d	56		 push	 esi
  0007e	e8 00 00 00 00	 call	 ?PyTuple_GetLong@@YA_NPAU_object@@HPAJ@Z ; PyTuple_GetLong
  00083	83 c4 0c	 add	 esp, 12			; 0000000cH
  00086	84 c0		 test	 al, al
  00088	75 0b		 jne	 SHORT $LN6@playerSetA
$LN11@playerSetA:

; 2057 : 		return Py_BadArgument();

  0008a	e8 00 00 00 00	 call	 ?Py_BadArgument@@YAPAU_object@@XZ ; Py_BadArgument
  0008f	5f		 pop	 edi
  00090	5e		 pop	 esi

; 2060 : }

  00091	8b e5		 mov	 esp, ebp
  00093	5d		 pop	 ebp
  00094	c3		 ret	 0
$LN6@playerSetA:

; 2058 : 
; 2059 : 	return Py_BuildNone();

  00095	e8 00 00 00 00	 call	 ?Py_BuildNone@@YAPAU_object@@XZ ; Py_BuildNone
  0009a	5f		 pop	 edi
  0009b	5e		 pop	 esi

; 2060 : }

  0009c	8b e5		 mov	 esp, ebp
  0009e	5d		 pop	 ebp
  0009f	c3		 ret	 0
?playerSetAutoPotionInfo@@YAPAU_object@@PAU1@0@Z ENDP	; playerSetAutoPotionInfo
_TEXT	ENDS
; Function compile flags: /Ogtp
; File D:\Metin2 Server Files\mainline\SRC_2014\Metin2Client\UserInterface\PythonPlayerModule.cpp
; File D:\Metin2 Server Files\mainline\SRC_2014\Metin2Client\UserInterface\GameType.h
; File D:\Metin2 Server Files\mainline\SRC_2014\Metin2Client\UserInterface\PythonPlayerModule.cpp
; File D:\Metin2 Server Files\mainline\SRC_2014\Metin2Client\UserInterface\GameType.h
; File D:\Metin2 Server Files\mainline\SRC_2014\Metin2Client\UserInterface\PythonPlayerModule.cpp
;	COMDAT ?playerSetItemAttribute@@YAPAU_object@@PAU1@0@Z
_TEXT	SEGMENT
_iAttributeSlotIndex$ = -16				; size = 4
_iAttributeType$ = -12					; size = 4
_iAttributeValue$ = -8					; size = 4
_ItemPos$ = -4						; size = 3
_poSelf$ = 8						; size = 4
_poArgs$ = 12						; size = 4
?playerSetItemAttribute@@YAPAU_object@@PAU1@0@Z PROC	; playerSetItemAttribute, COMDAT

; 1995 : {

  00000	55		 push	 ebp
  00001	8b ec		 mov	 ebp, esp
  00003	83 ec 10	 sub	 esp, 16			; 00000010H
  00006	56		 push	 esi

; 2001 : 	switch (PyTuple_Size(poArgs))

  00007	8b 75 0c	 mov	 esi, DWORD PTR _poArgs$[ebp]
; File D:\Metin2 Server Files\mainline\SRC_2014\Metin2Client\UserInterface\GameType.h

; 187  : 		cell = WORD_MAX;

  0000a	b8 ff ff 00 00	 mov	 eax, 65535		; 0000ffffH
; File D:\Metin2 Server Files\mainline\SRC_2014\Metin2Client\UserInterface\PythonPlayerModule.cpp

; 2001 : 	switch (PyTuple_Size(poArgs))

  0000f	56		 push	 esi
; File D:\Metin2 Server Files\mainline\SRC_2014\Metin2Client\UserInterface\GameType.h

; 186  : 		window_type =     INVENTORY;

  00010	c6 45 fc 01	 mov	 BYTE PTR _ItemPos$[ebp], 1

; 187  : 		cell = WORD_MAX;

  00014	66 89 45 fd	 mov	 WORD PTR _ItemPos$[ebp+1], ax
; File D:\Metin2 Server Files\mainline\SRC_2014\Metin2Client\UserInterface\PythonPlayerModule.cpp

; 2001 : 	switch (PyTuple_Size(poArgs))

  00018	ff 15 00 00 00
	00		 call	 DWORD PTR __imp__PyTuple_Size
  0001e	83 c4 04	 add	 esp, 4
  00021	83 e8 04	 sub	 eax, 4
  00024	74 77		 je	 SHORT $LN4@playerSetI
  00026	83 e8 01	 sub	 eax, 1
  00029	0f 85 ba 00 00
	00		 jne	 $LN8@playerSetI

; 2014 : 			return Py_BuildException();
; 2015 : 		break;
; 2016 : 	case 5:
; 2017 : 		if (!PyTuple_GetInteger(poArgs, 0, &ItemPos.window_type))

  0002f	8d 45 fc	 lea	 eax, DWORD PTR _ItemPos$[ebp]
  00032	50		 push	 eax
  00033	6a 00		 push	 0
  00035	56		 push	 esi
  00036	e8 00 00 00 00	 call	 ?PyTuple_GetInteger@@YA_NPAU_object@@HPAE@Z ; PyTuple_GetInteger
  0003b	83 c4 0c	 add	 esp, 12			; 0000000cH
  0003e	84 c0		 test	 al, al
  00040	74 4c		 je	 SHORT $LN18@playerSetI

; 2018 : 			return Py_BuildException();
; 2019 : 
; 2020 : 		if (!PyTuple_GetInteger(poArgs, 1, &ItemPos.cell))

  00042	8d 45 fd	 lea	 eax, DWORD PTR _ItemPos$[ebp+1]
  00045	50		 push	 eax
  00046	6a 01		 push	 1
  00048	56		 push	 esi
  00049	e8 00 00 00 00	 call	 ?PyTuple_GetInteger@@YA_NPAU_object@@HPAG@Z ; PyTuple_GetInteger
  0004e	83 c4 0c	 add	 esp, 12			; 0000000cH
  00051	84 c0		 test	 al, al
  00053	74 39		 je	 SHORT $LN18@playerSetI

; 2021 : 			return Py_BuildException();
; 2022 : 
; 2023 : 		if (!PyTuple_GetInteger(poArgs, 2, &iAttributeSlotIndex))

  00055	8d 45 f0	 lea	 eax, DWORD PTR _iAttributeSlotIndex$[ebp]
  00058	50		 push	 eax
  00059	6a 02		 push	 2
  0005b	56		 push	 esi
  0005c	e8 00 00 00 00	 call	 ?PyTuple_GetInteger@@YA_NPAU_object@@HPAH@Z ; PyTuple_GetInteger
  00061	83 c4 0c	 add	 esp, 12			; 0000000cH
  00064	84 c0		 test	 al, al
  00066	74 26		 je	 SHORT $LN18@playerSetI

; 2024 : 			return Py_BuildException();
; 2025 : 
; 2026 : 		if (!PyTuple_GetInteger(poArgs, 3, &iAttributeType))

  00068	8d 45 f4	 lea	 eax, DWORD PTR _iAttributeType$[ebp]
  0006b	50		 push	 eax
  0006c	6a 03		 push	 3
  0006e	56		 push	 esi
  0006f	e8 00 00 00 00	 call	 ?PyTuple_GetInteger@@YA_NPAU_object@@HPAH@Z ; PyTuple_GetInteger
  00074	83 c4 0c	 add	 esp, 12			; 0000000cH
  00077	84 c0		 test	 al, al
  00079	74 13		 je	 SHORT $LN18@playerSetI

; 2027 : 			return Py_BuildException();
; 2028 : 
; 2029 : 		if (!PyTuple_GetInteger(poArgs, 4, &iAttributeValue))

  0007b	8d 45 f8	 lea	 eax, DWORD PTR _iAttributeValue$[ebp]
  0007e	50		 push	 eax
  0007f	6a 04		 push	 4
  00081	56		 push	 esi
  00082	e8 00 00 00 00	 call	 ?PyTuple_GetInteger@@YA_NPAU_object@@HPAH@Z ; PyTuple_GetInteger
  00087	83 c4 0c	 add	 esp, 12			; 0000000cH
  0008a	84 c0		 test	 al, al
  0008c	75 5b		 jne	 SHORT $LN8@playerSetI
$LN18@playerSetI:

; 2035 : }

  0008e	6a 00		 push	 0
  00090	e8 00 00 00 00	 call	 ?Py_BuildException@@YAPAU_object@@PBDZZ ; Py_BuildException
  00095	83 c4 04	 add	 esp, 4
  00098	5e		 pop	 esi
  00099	8b e5		 mov	 esp, ebp
  0009b	5d		 pop	 ebp
  0009c	c3		 ret	 0
$LN4@playerSetI:

; 2002 : 	{
; 2003 : 	case 4:
; 2004 : 		if (!PyTuple_GetInteger(poArgs, 0, &ItemPos.cell))

  0009d	8d 45 fd	 lea	 eax, DWORD PTR _ItemPos$[ebp+1]
  000a0	50		 push	 eax
  000a1	6a 00		 push	 0
  000a3	56		 push	 esi
  000a4	e8 00 00 00 00	 call	 ?PyTuple_GetInteger@@YA_NPAU_object@@HPAG@Z ; PyTuple_GetInteger
  000a9	83 c4 0c	 add	 esp, 12			; 0000000cH
  000ac	84 c0		 test	 al, al
  000ae	74 de		 je	 SHORT $LN18@playerSetI

; 2005 : 			return Py_BuildException();
; 2006 : 
; 2007 : 		if (!PyTuple_GetInteger(poArgs, 1, &iAttributeSlotIndex))

  000b0	8d 45 f0	 lea	 eax, DWORD PTR _iAttributeSlotIndex$[ebp]
  000b3	50		 push	 eax
  000b4	6a 01		 push	 1
  000b6	56		 push	 esi
  000b7	e8 00 00 00 00	 call	 ?PyTuple_GetInteger@@YA_NPAU_object@@HPAH@Z ; PyTuple_GetInteger
  000bc	83 c4 0c	 add	 esp, 12			; 0000000cH
  000bf	84 c0		 test	 al, al
  000c1	74 cb		 je	 SHORT $LN18@playerSetI

; 2008 : 			return Py_BuildException();
; 2009 : 
; 2010 : 		if (!PyTuple_GetInteger(poArgs, 2, &iAttributeType))

  000c3	8d 45 f4	 lea	 eax, DWORD PTR _iAttributeType$[ebp]
  000c6	50		 push	 eax
  000c7	6a 02		 push	 2
  000c9	56		 push	 esi
  000ca	e8 00 00 00 00	 call	 ?PyTuple_GetInteger@@YA_NPAU_object@@HPAH@Z ; PyTuple_GetInteger
  000cf	83 c4 0c	 add	 esp, 12			; 0000000cH
  000d2	84 c0		 test	 al, al
  000d4	74 b8		 je	 SHORT $LN18@playerSetI

; 2011 : 			return Py_BuildException();
; 2012 : 
; 2013 : 		if (!PyTuple_GetInteger(poArgs, 3, &iAttributeValue))

  000d6	8d 45 f8	 lea	 eax, DWORD PTR _iAttributeValue$[ebp]
  000d9	50		 push	 eax
  000da	6a 03		 push	 3
  000dc	56		 push	 esi
  000dd	e8 00 00 00 00	 call	 ?PyTuple_GetInteger@@YA_NPAU_object@@HPAH@Z ; PyTuple_GetInteger
  000e2	83 c4 0c	 add	 esp, 12			; 0000000cH
  000e5	84 c0		 test	 al, al
  000e7	74 a5		 je	 SHORT $LN18@playerSetI
$LN8@playerSetI:

; 2030 : 			return Py_BuildException();
; 2031 : 		break;
; 2032 : 	}
; 2033 : 	CPythonPlayer::Instance().SetItemAttribute(ItemPos, iAttributeSlotIndex, iAttributeType, iAttributeValue);

  000e9	ff 75 f8	 push	 DWORD PTR _iAttributeValue$[ebp]
  000ec	8b 0d 00 00 00
	00		 mov	 ecx, DWORD PTR ?ms_singleton@?$CSingleton@VCPythonPlayer@@@@0PAVCPythonPlayer@@A ; CSingleton<CPythonPlayer>::ms_singleton
  000f2	ff 75 f4	 push	 DWORD PTR _iAttributeType$[ebp]
  000f5	66 8b 45 fc	 mov	 ax, WORD PTR _ItemPos$[ebp]
  000f9	83 c1 04	 add	 ecx, 4
  000fc	ff 75 f0	 push	 DWORD PTR _iAttributeSlotIndex$[ebp]
  000ff	51		 push	 ecx
  00100	8b 31		 mov	 esi, DWORD PTR [ecx]
  00102	8b d4		 mov	 edx, esp
  00104	66 89 02	 mov	 WORD PTR [edx], ax
  00107	8a 45 fe	 mov	 al, BYTE PTR _ItemPos$[ebp+2]
  0010a	88 42 02	 mov	 BYTE PTR [edx+2], al
  0010d	ff 56 3c	 call	 DWORD PTR [esi+60]

; 2034 : 	return Py_BuildNone();

  00110	e8 00 00 00 00	 call	 ?Py_BuildNone@@YAPAU_object@@XZ ; Py_BuildNone

; 2035 : }

  00115	5e		 pop	 esi
  00116	8b e5		 mov	 esp, ebp
  00118	5d		 pop	 ebp
  00119	c3		 ret	 0
?playerSetItemAttribute@@YAPAU_object@@PAU1@0@Z ENDP	; playerSetItemAttribute
_TEXT	ENDS
; Function compile flags: /Ogtp
; File D:\Metin2 Server Files\mainline\SRC_2014\Metin2Client\UserInterface\PythonPlayerModule.cpp
; File D:\Metin2 Server Files\mainline\SRC_2014\Metin2Client\UserInterface\GameType.h
; File D:\Metin2 Server Files\mainline\SRC_2014\Metin2Client\UserInterface\PythonPlayerModule.cpp
; File D:\Metin2 Server Files\mainline\SRC_2014\Metin2Client\UserInterface\GameType.h
; File D:\Metin2 Server Files\mainline\SRC_2014\Metin2Client\UserInterface\PythonPlayerModule.cpp
;	COMDAT ?playerSetItemMetinSocket@@YAPAU_object@@PAU1@0@Z
_TEXT	SEGMENT
_iMetinSocketNumber$ = -12				; size = 4
_iNum$ = -8						; size = 4
_ItemPos$ = -4						; size = 3
_poSelf$ = 8						; size = 4
_poArgs$ = 12						; size = 4
?playerSetItemMetinSocket@@YAPAU_object@@PAU1@0@Z PROC	; playerSetItemMetinSocket, COMDAT

; 1957 : {

  00000	55		 push	 ebp
  00001	8b ec		 mov	 ebp, esp
  00003	83 ec 0c	 sub	 esp, 12			; 0000000cH
  00006	56		 push	 esi

; 1962 : 	switch (PyTuple_Size(poArgs))

  00007	8b 75 0c	 mov	 esi, DWORD PTR _poArgs$[ebp]
; File D:\Metin2 Server Files\mainline\SRC_2014\Metin2Client\UserInterface\GameType.h

; 187  : 		cell = WORD_MAX;

  0000a	b8 ff ff 00 00	 mov	 eax, 65535		; 0000ffffH
; File D:\Metin2 Server Files\mainline\SRC_2014\Metin2Client\UserInterface\PythonPlayerModule.cpp

; 1962 : 	switch (PyTuple_Size(poArgs))

  0000f	56		 push	 esi
; File D:\Metin2 Server Files\mainline\SRC_2014\Metin2Client\UserInterface\GameType.h

; 186  : 		window_type =     INVENTORY;

  00010	c6 45 fc 01	 mov	 BYTE PTR _ItemPos$[ebp], 1

; 187  : 		cell = WORD_MAX;

  00014	66 89 45 fd	 mov	 WORD PTR _ItemPos$[ebp+1], ax
; File D:\Metin2 Server Files\mainline\SRC_2014\Metin2Client\UserInterface\PythonPlayerModule.cpp

; 1962 : 	switch (PyTuple_Size(poArgs))

  00018	ff 15 00 00 00
	00		 call	 DWORD PTR __imp__PyTuple_Size
  0001e	83 c4 04	 add	 esp, 4
  00021	83 e8 03	 sub	 eax, 3
  00024	74 60		 je	 SHORT $LN4@playerSetI
  00026	83 e8 01	 sub	 eax, 1
  00029	75 4c		 jne	 SHORT $LN17@playerSetI

; 1972 : 			return Py_BuildException();
; 1973 : 
; 1974 : 		break;
; 1975 : 	case 4:
; 1976 : 		if (!PyTuple_GetInteger(poArgs, 0, &ItemPos.window_type))

  0002b	8d 45 fc	 lea	 eax, DWORD PTR _ItemPos$[ebp]
  0002e	50		 push	 eax
  0002f	6a 00		 push	 0
  00031	56		 push	 esi
  00032	e8 00 00 00 00	 call	 ?PyTuple_GetInteger@@YA_NPAU_object@@HPAE@Z ; PyTuple_GetInteger
  00037	83 c4 0c	 add	 esp, 12			; 0000000cH
  0003a	84 c0		 test	 al, al
  0003c	74 39		 je	 SHORT $LN17@playerSetI

; 1977 : 			return Py_BuildException();
; 1978 : 		if (!PyTuple_GetInteger(poArgs, 1, &ItemPos.cell))

  0003e	8d 45 fd	 lea	 eax, DWORD PTR _ItemPos$[ebp+1]
  00041	50		 push	 eax
  00042	6a 01		 push	 1
  00044	56		 push	 esi
  00045	e8 00 00 00 00	 call	 ?PyTuple_GetInteger@@YA_NPAU_object@@HPAG@Z ; PyTuple_GetInteger
  0004a	83 c4 0c	 add	 esp, 12			; 0000000cH
  0004d	84 c0		 test	 al, al
  0004f	74 26		 je	 SHORT $LN17@playerSetI

; 1979 : 			return Py_BuildException();
; 1980 : 		if (!PyTuple_GetInteger(poArgs, 2, &iMetinSocketNumber))

  00051	8d 45 f4	 lea	 eax, DWORD PTR _iMetinSocketNumber$[ebp]
  00054	50		 push	 eax
  00055	6a 02		 push	 2
  00057	56		 push	 esi
  00058	e8 00 00 00 00	 call	 ?PyTuple_GetInteger@@YA_NPAU_object@@HPAH@Z ; PyTuple_GetInteger
  0005d	83 c4 0c	 add	 esp, 12			; 0000000cH
  00060	84 c0		 test	 al, al
  00062	74 13		 je	 SHORT $LN17@playerSetI

; 1981 : 			return Py_BuildException();
; 1982 : 		if (!PyTuple_GetInteger(poArgs, 3, &iNum))

  00064	8d 45 f8	 lea	 eax, DWORD PTR _iNum$[ebp]
  00067	50		 push	 eax
  00068	6a 03		 push	 3
  0006a	56		 push	 esi
  0006b	e8 00 00 00 00	 call	 ?PyTuple_GetInteger@@YA_NPAU_object@@HPAH@Z ; PyTuple_GetInteger
  00070	83 c4 0c	 add	 esp, 12			; 0000000cH
  00073	84 c0		 test	 al, al
  00075	75 48		 jne	 SHORT $LN7@playerSetI
$LN17@playerSetI:

; 1992 : }

  00077	6a 00		 push	 0
  00079	e8 00 00 00 00	 call	 ?Py_BuildException@@YAPAU_object@@PBDZZ ; Py_BuildException
  0007e	83 c4 04	 add	 esp, 4
  00081	5e		 pop	 esi
  00082	8b e5		 mov	 esp, ebp
  00084	5d		 pop	 ebp
  00085	c3		 ret	 0
$LN4@playerSetI:

; 1963 : 	{
; 1964 : 	case 3:
; 1965 : 		if (!PyTuple_GetInteger(poArgs, 0, &ItemPos.cell))

  00086	8d 45 fd	 lea	 eax, DWORD PTR _ItemPos$[ebp+1]
  00089	50		 push	 eax
  0008a	6a 00		 push	 0
  0008c	56		 push	 esi
  0008d	e8 00 00 00 00	 call	 ?PyTuple_GetInteger@@YA_NPAU_object@@HPAG@Z ; PyTuple_GetInteger
  00092	83 c4 0c	 add	 esp, 12			; 0000000cH
  00095	84 c0		 test	 al, al
  00097	74 de		 je	 SHORT $LN17@playerSetI

; 1966 : 			return Py_BuildException();
; 1967 : 
; 1968 : 		if (!PyTuple_GetInteger(poArgs, 1, &iMetinSocketNumber))

  00099	8d 45 f4	 lea	 eax, DWORD PTR _iMetinSocketNumber$[ebp]
  0009c	50		 push	 eax
  0009d	6a 01		 push	 1
  0009f	56		 push	 esi
  000a0	e8 00 00 00 00	 call	 ?PyTuple_GetInteger@@YA_NPAU_object@@HPAH@Z ; PyTuple_GetInteger
  000a5	83 c4 0c	 add	 esp, 12			; 0000000cH
  000a8	84 c0		 test	 al, al
  000aa	74 cb		 je	 SHORT $LN17@playerSetI

; 1969 : 			return Py_BuildException();
; 1970 : 
; 1971 : 		if (!PyTuple_GetInteger(poArgs, 2, &iNum))

  000ac	8d 45 f8	 lea	 eax, DWORD PTR _iNum$[ebp]
  000af	50		 push	 eax
  000b0	6a 02		 push	 2
  000b2	56		 push	 esi
  000b3	e8 00 00 00 00	 call	 ?PyTuple_GetInteger@@YA_NPAU_object@@HPAH@Z ; PyTuple_GetInteger
  000b8	83 c4 0c	 add	 esp, 12			; 0000000cH
  000bb	84 c0		 test	 al, al
  000bd	74 b8		 je	 SHORT $LN17@playerSetI
$LN7@playerSetI:

; 1983 : 			return Py_BuildException();
; 1984 : 
; 1985 : 		break;
; 1986 : 	default:
; 1987 : 		return Py_BuildException();
; 1988 : 	}
; 1989 : 
; 1990 : 	CPythonPlayer::Instance().SetItemMetinSocket(ItemPos, iMetinSocketNumber, iNum);

  000bf	ff 75 f8	 push	 DWORD PTR _iNum$[ebp]
  000c2	8b 0d 00 00 00
	00		 mov	 ecx, DWORD PTR ?ms_singleton@?$CSingleton@VCPythonPlayer@@@@0PAVCPythonPlayer@@A ; CSingleton<CPythonPlayer>::ms_singleton
  000c8	ff 75 f4	 push	 DWORD PTR _iMetinSocketNumber$[ebp]
  000cb	66 8b 45 fc	 mov	 ax, WORD PTR _ItemPos$[ebp]
  000cf	83 c1 04	 add	 ecx, 4
  000d2	51		 push	 ecx
  000d3	8b d4		 mov	 edx, esp
  000d5	8b 31		 mov	 esi, DWORD PTR [ecx]
  000d7	66 89 02	 mov	 WORD PTR [edx], ax
  000da	8a 45 fe	 mov	 al, BYTE PTR _ItemPos$[ebp+2]
  000dd	88 42 02	 mov	 BYTE PTR [edx+2], al
  000e0	ff 56 38	 call	 DWORD PTR [esi+56]

; 1991 : 	return Py_BuildNone();

  000e3	e8 00 00 00 00	 call	 ?Py_BuildNone@@YAPAU_object@@XZ ; Py_BuildNone

; 1992 : }

  000e8	5e		 pop	 esi
  000e9	8b e5		 mov	 esp, ebp
  000eb	5d		 pop	 ebp
  000ec	c3		 ret	 0
?playerSetItemMetinSocket@@YAPAU_object@@PAU1@0@Z ENDP	; playerSetItemMetinSocket
_TEXT	ENDS
; Function compile flags: /Ogtp
; File D:\Metin2 Server Files\mainline\SRC_2014\Metin2Client\UserInterface\PythonPlayerModule.cpp
; File D:\Metin2 Server Files\mainline\SRC_2014\Metin2Client\UserInterface\GameType.h
; File D:\Metin2 Server Files\mainline\SRC_2014\Metin2Client\UserInterface\PythonPlayerModule.cpp
; File D:\Metin2 Server Files\mainline\SRC_2014\Metin2Client\UserInterface\GameType.h
; File D:\Metin2 Server Files\mainline\SRC_2014\Metin2Client\UserInterface\PythonPlayerModule.cpp
;	COMDAT ?playerSetItemData@@YAPAU_object@@PAU1@0@Z
_TEXT	SEGMENT
_iSlotIndex$ = -68					; size = 4
_iNum$ = -64						; size = 4
_iVirtualID$ = -60					; size = 4
$T1 = -55						; size = 3
_kItemInst$ = -52					; size = 46
__$ArrayPad$ = -4					; size = 4
_poSelf$ = 8						; size = 4
_poArgs$ = 12						; size = 4
?playerSetItemData@@YAPAU_object@@PAU1@0@Z PROC		; playerSetItemData, COMDAT

; 1935 : {

  00000	55		 push	 ebp
  00001	8b ec		 mov	 ebp, esp
  00003	83 ec 44	 sub	 esp, 68			; 00000044H
  00006	a1 00 00 00 00	 mov	 eax, DWORD PTR ___security_cookie
  0000b	33 c5		 xor	 eax, ebp
  0000d	89 45 fc	 mov	 DWORD PTR __$ArrayPad$[ebp], eax
  00010	56		 push	 esi
  00011	8b 75 0c	 mov	 esi, DWORD PTR _poArgs$[ebp]

; 1936 : 	int iSlotIndex;
; 1937 : 	if (!PyTuple_GetInteger(poArgs, 0, &iSlotIndex))

  00014	8d 45 bc	 lea	 eax, DWORD PTR _iSlotIndex$[ebp]
  00017	50		 push	 eax
  00018	6a 00		 push	 0
  0001a	56		 push	 esi
  0001b	e8 00 00 00 00	 call	 ?PyTuple_GetInteger@@YA_NPAU_object@@HPAH@Z ; PyTuple_GetInteger
  00020	83 c4 0c	 add	 esp, 12			; 0000000cH
  00023	84 c0		 test	 al, al
  00025	75 19		 jne	 SHORT $LN2@playerSetI
$LN8@playerSetI:

; 1954 : }

  00027	6a 00		 push	 0
  00029	e8 00 00 00 00	 call	 ?Py_BuildException@@YAPAU_object@@PBDZZ ; Py_BuildException
  0002e	83 c4 04	 add	 esp, 4
  00031	5e		 pop	 esi
  00032	8b 4d fc	 mov	 ecx, DWORD PTR __$ArrayPad$[ebp]
  00035	33 cd		 xor	 ecx, ebp
  00037	e8 00 00 00 00	 call	 @__security_check_cookie@4
  0003c	8b e5		 mov	 esp, ebp
  0003e	5d		 pop	 ebp
  0003f	c3		 ret	 0
$LN2@playerSetI:

; 1938 : 		return Py_BuildException();
; 1939 : 
; 1940 : 	int iVirtualID;
; 1941 : 	if (!PyTuple_GetInteger(poArgs, 1, &iVirtualID))

  00040	8d 45 c4	 lea	 eax, DWORD PTR _iVirtualID$[ebp]
  00043	50		 push	 eax
  00044	6a 01		 push	 1
  00046	56		 push	 esi
  00047	e8 00 00 00 00	 call	 ?PyTuple_GetInteger@@YA_NPAU_object@@HPAH@Z ; PyTuple_GetInteger
  0004c	83 c4 0c	 add	 esp, 12			; 0000000cH
  0004f	84 c0		 test	 al, al
  00051	74 d4		 je	 SHORT $LN8@playerSetI

; 1942 : 		return Py_BuildException();
; 1943 : 
; 1944 : 	int iNum;
; 1945 : 	if (!PyTuple_GetInteger(poArgs, 2, &iNum))

  00053	8d 45 c0	 lea	 eax, DWORD PTR _iNum$[ebp]
  00056	50		 push	 eax
  00057	6a 02		 push	 2
  00059	56		 push	 esi
  0005a	e8 00 00 00 00	 call	 ?PyTuple_GetInteger@@YA_NPAU_object@@HPAH@Z ; PyTuple_GetInteger
  0005f	83 c4 0c	 add	 esp, 12			; 0000000cH
  00062	84 c0		 test	 al, al
  00064	74 c1		 je	 SHORT $LN8@playerSetI

; 1946 : 		return Py_BuildException();
; 1947 : 
; 1948 : 	TItemData kItemInst;
; 1949 : 	ZeroMemory(&kItemInst, sizeof(kItemInst));
; 1950 : 	kItemInst.vnum=iVirtualID;

  00066	8b 45 c4	 mov	 eax, DWORD PTR _iVirtualID$[ebp]
  00069	0f 57 c0	 xorps	 xmm0, xmm0

; 1952 : 	CPythonPlayer::Instance().SetItemData(TItemPos(INVENTORY, iSlotIndex), kItemInst);

  0006c	8b 0d 00 00 00
	00		 mov	 ecx, DWORD PTR ?ms_singleton@?$CSingleton@VCPythonPlayer@@@@0PAVCPythonPlayer@@A ; CSingleton<CPythonPlayer>::ms_singleton
  00072	89 45 cc	 mov	 DWORD PTR _kItemInst$[ebp], eax
  00075	83 c1 04	 add	 ecx, 4
  00078	8a 45 c0	 mov	 al, BYTE PTR _iNum$[ebp]
  0007b	88 45 d0	 mov	 BYTE PTR _kItemInst$[ebp+4], al
; File D:\Metin2 Server Files\mainline\SRC_2014\Metin2Client\UserInterface\GameType.h

; 192  :         cell = _cell;

  0007e	0f b7 45 bc	 movzx	 eax, WORD PTR _iSlotIndex$[ebp]
  00082	66 89 45 ca	 mov	 WORD PTR $T1[ebp+1], ax
; File D:\Metin2 Server Files\mainline\SRC_2014\Metin2Client\UserInterface\PythonPlayerModule.cpp

; 1952 : 	CPythonPlayer::Instance().SetItemData(TItemPos(INVENTORY, iSlotIndex), kItemInst);

  00086	8d 45 cc	 lea	 eax, DWORD PTR _kItemInst$[ebp]
  00089	50		 push	 eax
  0008a	51		 push	 ecx
  0008b	8b d4		 mov	 edx, esp
  0008d	66 0f 13 45 d1	 movlpd	 QWORD PTR _kItemInst$[ebp+5], xmm0
  00092	66 0f 13 45 d9	 movlpd	 QWORD PTR _kItemInst$[ebp+13], xmm0
  00097	66 0f 13 45 e1	 movlpd	 QWORD PTR _kItemInst$[ebp+21], xmm0
  0009c	66 0f 13 45 e9	 movlpd	 QWORD PTR _kItemInst$[ebp+29], xmm0
  000a1	66 0f 13 45 f1	 movlpd	 QWORD PTR _kItemInst$[ebp+37], xmm0
  000a6	c6 45 f9 00	 mov	 BYTE PTR _kItemInst$[ebp+45], 0
  000aa	8b 31		 mov	 esi, DWORD PTR [ecx]
; File D:\Metin2 Server Files\mainline\SRC_2014\Metin2Client\UserInterface\GameType.h

; 191  :         window_type = _window_type;

  000ac	c6 45 c9 01	 mov	 BYTE PTR $T1[ebp], 1
; File D:\Metin2 Server Files\mainline\SRC_2014\Metin2Client\UserInterface\PythonPlayerModule.cpp

; 1952 : 	CPythonPlayer::Instance().SetItemData(TItemPos(INVENTORY, iSlotIndex), kItemInst);

  000b0	0f b7 45 c9	 movzx	 eax, WORD PTR $T1[ebp]
  000b4	66 89 02	 mov	 WORD PTR [edx], ax
  000b7	8a 45 cb	 mov	 al, BYTE PTR $T1[ebp+2]
  000ba	88 42 02	 mov	 BYTE PTR [edx+2], al
  000bd	ff 56 30	 call	 DWORD PTR [esi+48]

; 1953 : 	return Py_BuildNone();

  000c0	e8 00 00 00 00	 call	 ?Py_BuildNone@@YAPAU_object@@XZ ; Py_BuildNone

; 1954 : }

  000c5	8b 4d fc	 mov	 ecx, DWORD PTR __$ArrayPad$[ebp]
  000c8	33 cd		 xor	 ecx, ebp
  000ca	5e		 pop	 esi
  000cb	e8 00 00 00 00	 call	 @__security_check_cookie@4
  000d0	8b e5		 mov	 esp, ebp
  000d2	5d		 pop	 ebp
  000d3	c3		 ret	 0
?playerSetItemData@@YAPAU_object@@PAU1@0@Z ENDP		; playerSetItemData
_TEXT	ENDS
; Function compile flags: /Ogtp
; File D:\Metin2 Server Files\mainline\SRC_2014\Metin2Client\UserInterface\PythonPlayerModule.cpp
; File C:\Program Files (x86)\Microsoft Visual Studio\2019\Community\VC\Tools\MSVC\14.28.29333\include\xtree
; File C:\Program Files (x86)\Microsoft Visual Studio\2019\Community\VC\Tools\MSVC\14.28.29333\include\xstddef
; File C:\Program Files (x86)\Microsoft Visual Studio\2019\Community\VC\Tools\MSVC\14.28.29333\include\xtree
; File D:\Metin2 Server Files\mainline\SRC_2014\Metin2Client\UserInterface\PythonPlayerModule.cpp
; File C:\Program Files (x86)\Microsoft Visual Studio\2019\Community\VC\Tools\MSVC\14.28.29333\include\map
; File C:\Program Files (x86)\Microsoft Visual Studio\2019\Community\VC\Tools\MSVC\14.28.29333\include\xtree
; File C:\Program Files (x86)\Microsoft Visual Studio\2019\Community\VC\Tools\MSVC\14.28.29333\include\xstddef
; File C:\Program Files (x86)\Microsoft Visual Studio\2019\Community\VC\Tools\MSVC\14.28.29333\include\xtree
; File C:\Program Files (x86)\Microsoft Visual Studio\2019\Community\VC\Tools\MSVC\14.28.29333\include\map
; File C:\Program Files (x86)\Microsoft Visual Studio\2019\Community\VC\Tools\MSVC\14.28.29333\include\xmemory
; File C:\Program Files (x86)\Microsoft Visual Studio\2019\Community\VC\Tools\MSVC\14.28.29333\include\xtree
; File C:\Program Files (x86)\Microsoft Visual Studio\2019\Community\VC\Tools\MSVC\14.28.29333\include\xmemory
; File C:\Program Files (x86)\Microsoft Visual Studio\2019\Community\VC\Tools\MSVC\14.28.29333\include\tuple
; File C:\Program Files (x86)\Microsoft Visual Studio\2019\Community\VC\Tools\MSVC\14.28.29333\include\xtree
; File C:\Program Files (x86)\Microsoft Visual Studio\2019\Community\VC\Tools\MSVC\14.28.29333\include\tuple
; File C:\Program Files (x86)\Microsoft Visual Studio\2019\Community\VC\Tools\MSVC\14.28.29333\include\xtree
; File C:\Program Files (x86)\Microsoft Visual Studio\2019\Community\VC\Tools\MSVC\14.28.29333\include\map
; File D:\Metin2 Server Files\mainline\SRC_2014\Metin2Client\UserInterface\PythonPlayerModule.cpp
; File C:\Program Files (x86)\Microsoft Visual Studio\2019\Community\VC\Tools\MSVC\14.28.29333\include\xtree
; File D:\Metin2 Server Files\mainline\SRC_2014\Metin2Client\UserInterface\PythonPlayerModule.cpp
;	COMDAT ?playerGetEmotionIconImage@@YAPAU_object@@PAU1@0@Z
_TEXT	SEGMENT
__Loc$3 = -40						; size = 12
__Loc$4 = -40						; size = 12
$T5 = -28						; size = 8
__Myhead$6 = -20					; size = 4
_iIndex$ = -16						; size = 4
__$EHRec$ = -12						; size = 12
_poSelf$ = 8						; size = 4
_poArgs$ = 12						; size = 4
?playerGetEmotionIconImage@@YAPAU_object@@PAU1@0@Z PROC	; playerGetEmotionIconImage, COMDAT

; 1923 : {

  00000	55		 push	 ebp
  00001	8b ec		 mov	 ebp, esp
  00003	6a ff		 push	 -1
  00005	68 00 00 00 00	 push	 __ehhandler$?playerGetEmotionIconImage@@YAPAU_object@@PAU1@0@Z
  0000a	64 a1 00 00 00
	00		 mov	 eax, DWORD PTR fs:0
  00010	50		 push	 eax
  00011	83 ec 1c	 sub	 esp, 28			; 0000001cH
  00014	56		 push	 esi
  00015	57		 push	 edi
  00016	a1 00 00 00 00	 mov	 eax, DWORD PTR ___security_cookie
  0001b	33 c5		 xor	 eax, ebp
  0001d	50		 push	 eax
  0001e	8d 45 f4	 lea	 eax, DWORD PTR __$EHRec$[ebp]
  00021	64 a3 00 00 00
	00		 mov	 DWORD PTR fs:0, eax

; 1924 : 	int iIndex;
; 1925 : 	if (!PyTuple_GetInteger(poArgs, 0, &iIndex))

  00027	8d 45 f0	 lea	 eax, DWORD PTR _iIndex$[ebp]
  0002a	50		 push	 eax
  0002b	6a 00		 push	 0
  0002d	ff 75 0c	 push	 DWORD PTR _poArgs$[ebp]
  00030	e8 00 00 00 00	 call	 ?PyTuple_GetInteger@@YA_NPAU_object@@HPAH@Z ; PyTuple_GetInteger
  00035	83 c4 0c	 add	 esp, 12			; 0000000cH
  00038	84 c0		 test	 al, al
  0003a	75 1b		 jne	 SHORT $LN2@playerGetE

; 1926 : 		return Py_BuildException();

  0003c	6a 00		 push	 0
  0003e	e8 00 00 00 00	 call	 ?Py_BuildException@@YAPAU_object@@PBDZZ ; Py_BuildException
  00043	83 c4 04	 add	 esp, 4

; 1932 : }

  00046	8b 4d f4	 mov	 ecx, DWORD PTR __$EHRec$[ebp]
  00049	64 89 0d 00 00
	00 00		 mov	 DWORD PTR fs:0, ecx
  00050	59		 pop	 ecx
  00051	5f		 pop	 edi
  00052	5e		 pop	 esi
  00053	8b e5		 mov	 esp, ebp
  00055	5d		 pop	 ebp
  00056	c3		 ret	 0
$LN2@playerGetE:
; File C:\Program Files (x86)\Microsoft Visual Studio\2019\Community\VC\Tools\MSVC\14.28.29333\include\xtree

; 1458 :         const _Tree_find_result<_Nodeptr> _Loc = _Find_lower_bound(_Keyval);

  00057	8d 45 f0	 lea	 eax, DWORD PTR _iIndex$[ebp]
  0005a	b9 00 00 00 00	 mov	 ecx, OFFSET ?m_kMap_iEmotionIndex_pkIconImage@@3V?$map@HPAVCGraphicImage@@U?$less@H@std@@V?$allocator@U?$pair@$$CBHPAVCGraphicImage@@@std@@@3@@std@@A ; m_kMap_iEmotionIndex_pkIconImage
  0005f	50		 push	 eax
  00060	8d 45 d8	 lea	 eax, DWORD PTR __Loc$4[ebp]
  00063	50		 push	 eax
  00064	e8 00 00 00 00	 call	 ??$_Find_lower_bound@H@?$_Tree@V?$_Tmap_traits@HPAVCGraphicImage@@U?$less@H@std@@V?$allocator@U?$pair@$$CBHPAVCGraphicImage@@@std@@@3@$0A@@std@@@std@@IBE?AU?$_Tree_find_result@PAU?$_Tree_node@U?$pair@$$CBHPAVCGraphicImage@@@std@@PAX@std@@@1@ABH@Z ; std::_Tree<std::_Tmap_traits<int,CGraphicImage *,std::less<int>,std::allocator<std::pair<int const ,CGraphicImage *> >,0> >::_Find_lower_bound<int>

; 1695 :         return !_Bound->_Isnil && !_DEBUG_LT_PRED(_Getcomp(), _Keyval, _Traits::_Kfn(_Bound->_Myval));

  00069	8b 45 e0	 mov	 eax, DWORD PTR __Loc$4[ebp+8]
  0006c	80 78 0d 00	 cmp	 BYTE PTR [eax+13], 0
  00070	0f 85 bb 00 00
	00		 jne	 $LN106@playerGetE
; File C:\Program Files (x86)\Microsoft Visual Studio\2019\Community\VC\Tools\MSVC\14.28.29333\include\xstddef

; 127  :         return _Left < _Right;

  00076	8b 75 f0	 mov	 esi, DWORD PTR _iIndex$[ebp]
  00079	3b 70 10	 cmp	 esi, DWORD PTR [eax+16]
; File C:\Program Files (x86)\Microsoft Visual Studio\2019\Community\VC\Tools\MSVC\14.28.29333\include\xtree

; 1695 :         return !_Bound->_Isnil && !_DEBUG_LT_PRED(_Getcomp(), _Keyval, _Traits::_Kfn(_Bound->_Myval));

  0007c	0f 8c af 00 00
	00		 jl	 $LN106@playerGetE
; File D:\Metin2 Server Files\mainline\SRC_2014\Metin2Client\UserInterface\PythonPlayerModule.cpp

; 1928 : 	if (m_kMap_iEmotionIndex_pkIconImage.end() == m_kMap_iEmotionIndex_pkIconImage.find(iIndex))

  00082	8b 3d 00 00 00
	00		 mov	 edi, DWORD PTR ?m_kMap_iEmotionIndex_pkIconImage@@3V?$map@HPAVCGraphicImage@@U?$less@H@std@@V?$allocator@U?$pair@$$CBHPAVCGraphicImage@@@std@@@3@@std@@A
  00088	3b f8		 cmp	 edi, eax
  0008a	0f 84 a1 00 00
	00		 je	 $LN106@playerGetE
; File C:\Program Files (x86)\Microsoft Visual Studio\2019\Community\VC\Tools\MSVC\14.28.29333\include\map

; 176  :         const auto _Loc = _Mybase::_Find_lower_bound(_Keyval);

  00090	8d 45 f0	 lea	 eax, DWORD PTR _iIndex$[ebp]
  00093	b9 00 00 00 00	 mov	 ecx, OFFSET ?m_kMap_iEmotionIndex_pkIconImage@@3V?$map@HPAVCGraphicImage@@U?$less@H@std@@V?$allocator@U?$pair@$$CBHPAVCGraphicImage@@@std@@@3@@std@@A ; m_kMap_iEmotionIndex_pkIconImage
  00098	50		 push	 eax
  00099	8d 45 d8	 lea	 eax, DWORD PTR __Loc$3[ebp]
  0009c	50		 push	 eax
  0009d	e8 00 00 00 00	 call	 ??$_Find_lower_bound@H@?$_Tree@V?$_Tmap_traits@HPAVCGraphicImage@@U?$less@H@std@@V?$allocator@U?$pair@$$CBHPAVCGraphicImage@@@std@@@3@$0A@@std@@@std@@IBE?AU?$_Tree_find_result@PAU?$_Tree_node@U?$pair@$$CBHPAVCGraphicImage@@@std@@PAX@std@@@1@ABH@Z ; std::_Tree<std::_Tmap_traits<int,CGraphicImage *,std::less<int>,std::allocator<std::pair<int const ,CGraphicImage *> >,0> >::_Find_lower_bound<int>
; File C:\Program Files (x86)\Microsoft Visual Studio\2019\Community\VC\Tools\MSVC\14.28.29333\include\xtree

; 1695 :         return !_Bound->_Isnil && !_DEBUG_LT_PRED(_Getcomp(), _Keyval, _Traits::_Kfn(_Bound->_Myval));

  000a2	8b 45 e0	 mov	 eax, DWORD PTR __Loc$3[ebp+8]
  000a5	80 78 0d 00	 cmp	 BYTE PTR [eax+13], 0
  000a9	75 05		 jne	 SHORT $LN35@playerGetE
; File C:\Program Files (x86)\Microsoft Visual Studio\2019\Community\VC\Tools\MSVC\14.28.29333\include\xstddef

; 127  :         return _Left < _Right;

  000ab	3b 70 10	 cmp	 esi, DWORD PTR [eax+16]
; File C:\Program Files (x86)\Microsoft Visual Studio\2019\Community\VC\Tools\MSVC\14.28.29333\include\xtree

; 1695 :         return !_Bound->_Isnil && !_DEBUG_LT_PRED(_Getcomp(), _Keyval, _Traits::_Kfn(_Bound->_Myval));

  000ae	7d 7c		 jge	 SHORT $LN34@playerGetE
$LN35@playerGetE:

; 1719 :         if (max_size() == _Get_scary()->_Mysize) {

  000b0	81 3d 04 00 00
	00 aa aa aa 0a	 cmp	 DWORD PTR ?m_kMap_iEmotionIndex_pkIconImage@@3V?$map@HPAVCGraphicImage@@U?$less@H@std@@V?$allocator@U?$pair@$$CBHPAVCGraphicImage@@@std@@@3@@std@@A+4, 178956970 ; 0aaaaaaaH
  000ba	0f 84 92 00 00
	00		 je	 $LN112@playerGetE
; File C:\Program Files (x86)\Microsoft Visual Studio\2019\Community\VC\Tools\MSVC\14.28.29333\include\map

; 184  :         const auto _Inserted = _Tree_temp_node<_Alnode>(_Mybase::_Getal(), _Scary->_Myhead, piecewise_construct,

  000c0	89 7d ec	 mov	 DWORD PTR __Myhead$6[ebp], edi
; File C:\Program Files (x86)\Microsoft Visual Studio\2019\Community\VC\Tools\MSVC\14.28.29333\include\xmemory

; 1045 :     explicit _Alloc_construct_ptr(_Alloc& _Al_) : _Al(_Al_), _Ptr(nullptr) {}

  000c3	c7 45 e4 00 00
	00 00		 mov	 DWORD PTR $T5[ebp], OFFSET ?m_kMap_iEmotionIndex_pkIconImage@@3V?$map@HPAVCGraphicImage@@U?$less@H@std@@V?$allocator@U?$pair@$$CBHPAVCGraphicImage@@@std@@@3@@std@@A ; m_kMap_iEmotionIndex_pkIconImage

; 814  :         return static_cast<_Ty*>(_Allocate<_New_alignof<_Ty>>(_Get_size_of_n<sizeof(_Ty)>(_Count)));

  000ca	6a 18		 push	 24			; 00000018H
; File C:\Program Files (x86)\Microsoft Visual Studio\2019\Community\VC\Tools\MSVC\14.28.29333\include\xtree

; 784  :     explicit _Tree_temp_node_alloc(_Alnode& _Al_) : _Alloc_construct_ptr<_Alnode>(_Al_) {

  000cc	c7 45 fc 00 00
	00 00		 mov	 DWORD PTR __$EHRec$[ebp+8], 0
; File C:\Program Files (x86)\Microsoft Visual Studio\2019\Community\VC\Tools\MSVC\14.28.29333\include\xmemory

; 1052 :         _Ptr = nullptr; // if allocate throws, prevents double-free

  000d3	c7 45 e8 00 00
	00 00		 mov	 DWORD PTR $T5[ebp+4], 0

; 814  :         return static_cast<_Ty*>(_Allocate<_New_alignof<_Ty>>(_Get_size_of_n<sizeof(_Ty)>(_Count)));

  000da	e8 00 00 00 00	 call	 ??$_Allocate@$07U_Default_allocate_traits@std@@$0A@@std@@YAPAXI@Z ; std::_Allocate<8,std::_Default_allocate_traits,0>

; 1053 :         _Ptr = _Al.allocate(1);

  000df	8b f0		 mov	 esi, eax
; File C:\Program Files (x86)\Microsoft Visual Studio\2019\Community\VC\Tools\MSVC\14.28.29333\include\tuple

; 980  :     : first(_STD get<_Indexes1>(_STD move(_Val1))...), second(_STD get<_Indexes2>(_STD move(_Val2))...) {}

  000e1	8b 45 f0	 mov	 eax, DWORD PTR _iIndex$[ebp]
  000e4	89 46 10	 mov	 DWORD PTR [esi+16], eax
; File C:\Program Files (x86)\Microsoft Visual Studio\2019\Community\VC\Tools\MSVC\14.28.29333\include\xtree

; 807  :         _Construct_in_place(this->_Ptr->_Left, _Myhead);

  000e7	8d 45 ec	 lea	 eax, DWORD PTR __Myhead$6[ebp]
  000ea	50		 push	 eax
  000eb	56		 push	 esi
; File C:\Program Files (x86)\Microsoft Visual Studio\2019\Community\VC\Tools\MSVC\14.28.29333\include\tuple

; 980  :     : first(_STD get<_Indexes1>(_STD move(_Val1))...), second(_STD get<_Indexes2>(_STD move(_Val2))...) {}

  000ec	c7 46 14 00 00
	00 00		 mov	 DWORD PTR [esi+20], 0
; File C:\Program Files (x86)\Microsoft Visual Studio\2019\Community\VC\Tools\MSVC\14.28.29333\include\xtree

; 807  :         _Construct_in_place(this->_Ptr->_Left, _Myhead);

  000f3	e8 00 00 00 00	 call	 ??$_Construct_in_place@PAU?$_Tree_node@U?$pair@$$CBHPAVCGraphicImage@@@std@@PAX@std@@AAPAU12@@std@@YAXAAPAU?$_Tree_node@U?$pair@$$CBHPAVCGraphicImage@@@std@@PAX@0@0@Z ; std::_Construct_in_place<std::_Tree_node<std::pair<int const ,CGraphicImage *>,void *> *,std::_Tree_node<std::pair<int const ,CGraphicImage *>,void *> * &>

; 808  :         _Construct_in_place(this->_Ptr->_Parent, _Myhead);

  000f8	8d 45 ec	 lea	 eax, DWORD PTR __Myhead$6[ebp]
  000fb	50		 push	 eax
  000fc	8d 46 04	 lea	 eax, DWORD PTR [esi+4]
  000ff	50		 push	 eax
  00100	e8 00 00 00 00	 call	 ??$_Construct_in_place@PAU?$_Tree_node@U?$pair@$$CBHPAVCGraphicImage@@@std@@PAX@std@@AAPAU12@@std@@YAXAAPAU?$_Tree_node@U?$pair@$$CBHPAVCGraphicImage@@@std@@PAX@0@0@Z ; std::_Construct_in_place<std::_Tree_node<std::pair<int const ,CGraphicImage *>,void *> *,std::_Tree_node<std::pair<int const ,CGraphicImage *>,void *> * &>

; 809  :         _Construct_in_place(this->_Ptr->_Right, _Myhead);

  00105	8d 45 ec	 lea	 eax, DWORD PTR __Myhead$6[ebp]
  00108	50		 push	 eax
  00109	8d 46 08	 lea	 eax, DWORD PTR [esi+8]
  0010c	50		 push	 eax
  0010d	e8 00 00 00 00	 call	 ??$_Construct_in_place@PAU?$_Tree_node@U?$pair@$$CBHPAVCGraphicImage@@@std@@PAX@std@@AAPAU12@@std@@YAXAAPAU?$_Tree_node@U?$pair@$$CBHPAVCGraphicImage@@@std@@PAX@0@0@Z ; std::_Construct_in_place<std::_Tree_node<std::pair<int const ,CGraphicImage *>,void *> *,std::_Tree_node<std::pair<int const ,CGraphicImage *>,void *> * &>
  00112	83 c4 1c	 add	 esp, 28			; 0000001cH

; 810  :         this->_Ptr->_Color = _Red;

  00115	66 c7 46 0c 00
	00		 mov	 WORD PTR [esi+12], 0
; File C:\Program Files (x86)\Microsoft Visual Studio\2019\Community\VC\Tools\MSVC\14.28.29333\include\map

; 190  :         return {_Scary->_Insert_node(_Loc._Location, _Inserted), true};

  0011b	b9 00 00 00 00	 mov	 ecx, OFFSET ?m_kMap_iEmotionIndex_pkIconImage@@3V?$map@HPAVCGraphicImage@@U?$less@H@std@@V?$allocator@U?$pair@$$CBHPAVCGraphicImage@@@std@@@3@@std@@A ; m_kMap_iEmotionIndex_pkIconImage
  00120	56		 push	 esi
  00121	ff 75 dc	 push	 DWORD PTR __Loc$3[ebp+4]
  00124	ff 75 d8	 push	 DWORD PTR __Loc$3[ebp]
  00127	e8 00 00 00 00	 call	 ?_Insert_node@?$_Tree_val@U?$_Tree_simple_types@U?$pair@$$CBHPAVCGraphicImage@@@std@@@std@@@std@@QAEPAU?$_Tree_node@U?$pair@$$CBHPAVCGraphicImage@@@std@@PAX@2@U?$_Tree_id@PAU?$_Tree_node@U?$pair@$$CBHPAVCGraphicImage@@@std@@PAX@std@@@2@QAU32@@Z ; std::_Tree_val<std::_Tree_simple_types<std::pair<int const ,CGraphicImage *> > >::_Insert_node
$LN34@playerGetE:
; File D:\Metin2 Server Files\mainline\SRC_2014\Metin2Client\UserInterface\PythonPlayerModule.cpp

; 1931 : 	return Py_BuildValue("i", m_kMap_iEmotionIndex_pkIconImage[iIndex]);

  0012c	ff 70 14	 push	 DWORD PTR [eax+20]
  0012f	eb 02		 jmp	 SHORT $LN110@playerGetE
$LN106@playerGetE:

; 1929 : 		return Py_BuildValue("i", 0);

  00131	6a 00		 push	 0
$LN110@playerGetE:

; 1932 : }

  00133	68 00 00 00 00	 push	 OFFSET ??_C@_01KBJDNOO@i@
  00138	ff 15 00 00 00
	00		 call	 DWORD PTR __imp__Py_BuildValue
  0013e	83 c4 08	 add	 esp, 8
  00141	8b 4d f4	 mov	 ecx, DWORD PTR __$EHRec$[ebp]
  00144	64 89 0d 00 00
	00 00		 mov	 DWORD PTR fs:0, ecx
  0014b	59		 pop	 ecx
  0014c	5f		 pop	 edi
  0014d	5e		 pop	 esi
  0014e	8b e5		 mov	 esp, ebp
  00150	5d		 pop	 ebp
  00151	c3		 ret	 0
$LN112@playerGetE:
; File C:\Program Files (x86)\Microsoft Visual Studio\2019\Community\VC\Tools\MSVC\14.28.29333\include\xtree

; 1720 :             _Throw_tree_length_error();

  00152	e8 00 00 00 00	 call	 ?_Throw_tree_length_error@std@@YAXXZ ; std::_Throw_tree_length_error
$LN109@playerGetE:
  00157	cc		 int	 3
_TEXT	ENDS
;	COMDAT text$x
text$x	SEGMENT
__unwindfunclet$?playerGetEmotionIconImage@@YAPAU_object@@PAU1@0@Z$2:
  00000	8d 4d e4	 lea	 ecx, DWORD PTR $T5[ebp]
  00003	e9 00 00 00 00	 jmp	 ??1?$_Alloc_construct_ptr@V?$allocator@U?$_Tree_node@U?$pair@$$CBHPAVCGraphicImage@@@std@@PAX@std@@@std@@@std@@QAE@XZ ; std::_Alloc_construct_ptr<std::allocator<std::_Tree_node<std::pair<int const ,CGraphicImage *>,void *> > >::~_Alloc_construct_ptr<std::allocator<std::_Tree_node<std::pair<int const ,CGraphicImage *>,void *> > >
  00008	cc		 int	 3
  00009	cc		 int	 3
  0000a	cc		 int	 3
  0000b	cc		 int	 3
  0000c	cc		 int	 3
__ehhandler$?playerGetEmotionIconImage@@YAPAU_object@@PAU1@0@Z:
  0000d	90		 npad	 1
  0000e	90		 npad	 1
  0000f	8b 54 24 08	 mov	 edx, DWORD PTR [esp+8]
  00013	8d 42 0c	 lea	 eax, DWORD PTR [edx+12]
  00016	8b 4a d8	 mov	 ecx, DWORD PTR [edx-40]
  00019	33 c8		 xor	 ecx, eax
  0001b	e8 00 00 00 00	 call	 @__security_check_cookie@4
  00020	b8 00 00 00 00	 mov	 eax, OFFSET __ehfuncinfo$?playerGetEmotionIconImage@@YAPAU_object@@PAU1@0@Z
  00025	e9 00 00 00 00	 jmp	 ___CxxFrameHandler3
text$x	ENDS
?playerGetEmotionIconImage@@YAPAU_object@@PAU1@0@Z ENDP	; playerGetEmotionIconImage
; Function compile flags: /Ogtp
; File D:\Metin2 Server Files\mainline\SRC_2014\Metin2Client\UserInterface\PythonPlayerModule.cpp
; File C:\Program Files (x86)\Microsoft Visual Studio\2019\Community\VC\Tools\MSVC\14.28.29333\include\utility
; File D:\Metin2 Server Files\mainline\SRC_2014\Metin2Client\UserInterface\PythonPlayerModule.cpp
; File C:\Program Files (x86)\Microsoft Visual Studio\2019\Community\VC\Tools\MSVC\14.28.29333\include\xtree
; File C:\Program Files (x86)\Microsoft Visual Studio\2019\Community\VC\Tools\MSVC\14.28.29333\include\utility
; File C:\Program Files (x86)\Microsoft Visual Studio\2019\Community\VC\Tools\MSVC\14.28.29333\include\xtree
; File C:\Program Files (x86)\Microsoft Visual Studio\2019\Community\VC\Tools\MSVC\14.28.29333\include\utility
; File C:\Program Files (x86)\Microsoft Visual Studio\2019\Community\VC\Tools\MSVC\14.28.29333\include\xtree
; File C:\Program Files (x86)\Microsoft Visual Studio\2019\Community\VC\Tools\MSVC\14.28.29333\include\xstddef
; File C:\Program Files (x86)\Microsoft Visual Studio\2019\Community\VC\Tools\MSVC\14.28.29333\include\xtree
; File C:\Program Files (x86)\Microsoft Visual Studio\2019\Community\VC\Tools\MSVC\14.28.29333\include\xmemory
; File C:\Program Files (x86)\Microsoft Visual Studio\2019\Community\VC\Tools\MSVC\14.28.29333\include\xtree
; File C:\Program Files (x86)\Microsoft Visual Studio\2019\Community\VC\Tools\MSVC\14.28.29333\include\xmemory
; File C:\Program Files (x86)\Microsoft Visual Studio\2019\Community\VC\Tools\MSVC\14.28.29333\include\xtree
; File C:\Program Files (x86)\Microsoft Visual Studio\2019\Community\VC\Tools\MSVC\14.28.29333\include\utility
; File C:\Program Files (x86)\Microsoft Visual Studio\2019\Community\VC\Tools\MSVC\14.28.29333\include\xtree
; File D:\Metin2 Server Files\mainline\SRC_2014\Metin2Client\UserInterface\PythonPlayerModule.cpp
; File C:\Program Files (x86)\Microsoft Visual Studio\2019\Community\VC\Tools\MSVC\14.28.29333\include\xtree
; File D:\Metin2 Server Files\mainline\SRC_2014\Metin2Client\UserInterface\PythonPlayerModule.cpp
;	COMDAT ?playerRegisterEmotionIcon@@YAPAU_object@@PAU1@0@Z
_TEXT	SEGMENT
__Loc$2 = -52						; size = 12
$T3 = -40						; size = 12
$T4 = -36						; size = 8
_iIndex$ = -28						; size = 4
_szFileName$ = -24					; size = 4
$T5 = -20						; size = 8
__Myhead$6 = -16					; size = 4
__$EHRec$ = -12						; size = 12
_poSelf$ = 8						; size = 4
_poArgs$ = 12						; size = 4
?playerRegisterEmotionIcon@@YAPAU_object@@PAU1@0@Z PROC	; playerRegisterEmotionIcon, COMDAT

; 1908 : {

  00000	55		 push	 ebp
  00001	8b ec		 mov	 ebp, esp
  00003	6a ff		 push	 -1
  00005	68 00 00 00 00	 push	 __ehhandler$?playerRegisterEmotionIcon@@YAPAU_object@@PAU1@0@Z
  0000a	64 a1 00 00 00
	00		 mov	 eax, DWORD PTR fs:0
  00010	50		 push	 eax
  00011	83 ec 28	 sub	 esp, 40			; 00000028H
  00014	53		 push	 ebx
  00015	56		 push	 esi
  00016	57		 push	 edi
  00017	a1 00 00 00 00	 mov	 eax, DWORD PTR ___security_cookie
  0001c	33 c5		 xor	 eax, ebp
  0001e	50		 push	 eax
  0001f	8d 45 f4	 lea	 eax, DWORD PTR __$EHRec$[ebp]
  00022	64 a3 00 00 00
	00		 mov	 DWORD PTR fs:0, eax

; 1909 : 	int iIndex;
; 1910 : 	if (!PyTuple_GetInteger(poArgs, 0, &iIndex))

  00028	8b 75 0c	 mov	 esi, DWORD PTR _poArgs$[ebp]
  0002b	8d 45 e4	 lea	 eax, DWORD PTR _iIndex$[ebp]
  0002e	50		 push	 eax
  0002f	6a 00		 push	 0
  00031	56		 push	 esi
  00032	e8 00 00 00 00	 call	 ?PyTuple_GetInteger@@YA_NPAU_object@@HPAH@Z ; PyTuple_GetInteger
  00037	83 c4 0c	 add	 esp, 12			; 0000000cH
  0003a	84 c0		 test	 al, al
  0003c	75 1c		 jne	 SHORT $LN2@playerRegi
$LN84@playerRegi:

; 1920 : }

  0003e	6a 00		 push	 0
  00040	e8 00 00 00 00	 call	 ?Py_BuildException@@YAPAU_object@@PBDZZ ; Py_BuildException
  00045	83 c4 04	 add	 esp, 4
  00048	8b 4d f4	 mov	 ecx, DWORD PTR __$EHRec$[ebp]
  0004b	64 89 0d 00 00
	00 00		 mov	 DWORD PTR fs:0, ecx
  00052	59		 pop	 ecx
  00053	5f		 pop	 edi
  00054	5e		 pop	 esi
  00055	5b		 pop	 ebx
  00056	8b e5		 mov	 esp, ebp
  00058	5d		 pop	 ebp
  00059	c3		 ret	 0
$LN2@playerRegi:

; 1911 : 		return Py_BuildException();
; 1912 : 	char * szFileName;
; 1913 : 	if (!PyTuple_GetString(poArgs, 1, &szFileName))

  0005a	8d 45 e8	 lea	 eax, DWORD PTR _szFileName$[ebp]
  0005d	50		 push	 eax
  0005e	6a 01		 push	 1
  00060	56		 push	 esi
  00061	e8 00 00 00 00	 call	 ?PyTuple_GetString@@YA_NPAU_object@@HPAPAD@Z ; PyTuple_GetString
  00066	83 c4 0c	 add	 esp, 12			; 0000000cH
  00069	84 c0		 test	 al, al
  0006b	74 d1		 je	 SHORT $LN84@playerRegi

; 1916 : 	CGraphicImage * pImage = (CGraphicImage *)CResourceManager::Instance().GetResourcePointer(szFileName);

  0006d	ff 75 e8	 push	 DWORD PTR _szFileName$[ebp]
  00070	8b 0d 00 00 00
	00		 mov	 ecx, DWORD PTR ?ms_singleton@?$CSingleton@VCResourceManager@@@@0PAVCResourceManager@@A ; CSingleton<CResourceManager>::ms_singleton
  00076	e8 00 00 00 00	 call	 ?GetResourcePointer@CResourceManager@@QAEPAVCResource@@PBD@Z ; CResourceManager::GetResourcePointer
; File C:\Program Files (x86)\Microsoft Visual Studio\2019\Community\VC\Tools\MSVC\14.28.29333\include\utility

; 190  :         : first(_STD forward<_Other1>(_Val1)), second(_STD forward<_Other2>(_Val2)) {}

  0007b	8b 7d e4	 mov	 edi, DWORD PTR _iIndex$[ebp]
; File D:\Metin2 Server Files\mainline\SRC_2014\Metin2Client\UserInterface\PythonPlayerModule.cpp

; 1916 : 	CGraphicImage * pImage = (CGraphicImage *)CResourceManager::Instance().GetResourcePointer(szFileName);

  0007e	8b d8		 mov	 ebx, eax
; File C:\Program Files (x86)\Microsoft Visual Studio\2019\Community\VC\Tools\MSVC\14.28.29333\include\xtree

; 1009 :             _Loc                = _Find_lower_bound(_Keyval);

  00080	8d 45 ec	 lea	 eax, DWORD PTR $T5[ebp]
; File C:\Program Files (x86)\Microsoft Visual Studio\2019\Community\VC\Tools\MSVC\14.28.29333\include\utility

; 190  :         : first(_STD forward<_Other1>(_Val1)), second(_STD forward<_Other2>(_Val2)) {}

  00083	89 7d ec	 mov	 DWORD PTR $T5[ebp], edi
; File C:\Program Files (x86)\Microsoft Visual Studio\2019\Community\VC\Tools\MSVC\14.28.29333\include\xtree

; 1009 :             _Loc                = _Find_lower_bound(_Keyval);

  00086	50		 push	 eax
  00087	8d 45 d8	 lea	 eax, DWORD PTR $T3[ebp]
; File C:\Program Files (x86)\Microsoft Visual Studio\2019\Community\VC\Tools\MSVC\14.28.29333\include\utility

; 190  :         : first(_STD forward<_Other1>(_Val1)), second(_STD forward<_Other2>(_Val2)) {}

  0008a	89 5d f0	 mov	 DWORD PTR $T5[ebp+4], ebx
; File C:\Program Files (x86)\Microsoft Visual Studio\2019\Community\VC\Tools\MSVC\14.28.29333\include\xtree

; 1009 :             _Loc                = _Find_lower_bound(_Keyval);

  0008d	50		 push	 eax
  0008e	b9 00 00 00 00	 mov	 ecx, OFFSET ?m_kMap_iEmotionIndex_pkIconImage@@3V?$map@HPAVCGraphicImage@@U?$less@H@std@@V?$allocator@U?$pair@$$CBHPAVCGraphicImage@@@std@@@3@@std@@A ; m_kMap_iEmotionIndex_pkIconImage
  00093	e8 00 00 00 00	 call	 ??$_Find_lower_bound@H@?$_Tree@V?$_Tmap_traits@HPAVCGraphicImage@@U?$less@H@std@@V?$allocator@U?$pair@$$CBHPAVCGraphicImage@@@std@@@3@$0A@@std@@@std@@IBE?AU?$_Tree_find_result@PAU?$_Tree_node@U?$pair@$$CBHPAVCGraphicImage@@@std@@PAX@std@@@1@ABH@Z ; std::_Tree<std::_Tmap_traits<int,CGraphicImage *,std::less<int>,std::allocator<std::pair<int const ,CGraphicImage *> >,0> >::_Find_lower_bound<int>
  00098	f3 0f 7e 00	 movq	 xmm0, QWORD PTR [eax]
  0009c	8b 40 08	 mov	 eax, DWORD PTR [eax+8]
  0009f	66 0f d6 45 cc	 movq	 QWORD PTR __Loc$2[ebp], xmm0

; 1695 :         return !_Bound->_Isnil && !_DEBUG_LT_PRED(_Getcomp(), _Keyval, _Traits::_Kfn(_Bound->_Myval));

  000a4	80 78 0d 00	 cmp	 BYTE PTR [eax+13], 0
  000a8	75 09		 jne	 SHORT $LN19@playerRegi
; File C:\Program Files (x86)\Microsoft Visual Studio\2019\Community\VC\Tools\MSVC\14.28.29333\include\xstddef

; 127  :         return _Left < _Right;

  000aa	3b 78 10	 cmp	 edi, DWORD PTR [eax+16]
; File C:\Program Files (x86)\Microsoft Visual Studio\2019\Community\VC\Tools\MSVC\14.28.29333\include\xtree

; 1695 :         return !_Bound->_Isnil && !_DEBUG_LT_PRED(_Getcomp(), _Keyval, _Traits::_Kfn(_Bound->_Myval));

  000ad	0f 8d 81 00 00
	00		 jge	 $LN69@playerRegi
$LN19@playerRegi:

; 1719 :         if (max_size() == _Get_scary()->_Mysize) {

  000b3	81 3d 04 00 00
	00 aa aa aa 0a	 cmp	 DWORD PTR ?m_kMap_iEmotionIndex_pkIconImage@@3V?$map@HPAVCGraphicImage@@U?$less@H@std@@V?$allocator@U?$pair@$$CBHPAVCGraphicImage@@@std@@@3@@std@@A+4, 178956970 ; 0aaaaaaaH
  000bd	0f 84 88 00 00
	00		 je	 $LN86@playerRegi

; 1015 :             _Inserted = _Tree_temp_node<_Alnode>(_Getal(), _Scary->_Myhead, _STD forward<_Valtys>(_Vals)...)._Release();

  000c3	a1 00 00 00 00	 mov	 eax, DWORD PTR ?m_kMap_iEmotionIndex_pkIconImage@@3V?$map@HPAVCGraphicImage@@U?$less@H@std@@V?$allocator@U?$pair@$$CBHPAVCGraphicImage@@@std@@@3@@std@@A
  000c8	89 45 f0	 mov	 DWORD PTR __Myhead$6[ebp], eax
; File C:\Program Files (x86)\Microsoft Visual Studio\2019\Community\VC\Tools\MSVC\14.28.29333\include\xmemory

; 1045 :     explicit _Alloc_construct_ptr(_Alloc& _Al_) : _Al(_Al_), _Ptr(nullptr) {}

  000cb	c7 45 dc 00 00
	00 00		 mov	 DWORD PTR $T4[ebp], OFFSET ?m_kMap_iEmotionIndex_pkIconImage@@3V?$map@HPAVCGraphicImage@@U?$less@H@std@@V?$allocator@U?$pair@$$CBHPAVCGraphicImage@@@std@@@3@@std@@A ; m_kMap_iEmotionIndex_pkIconImage

; 814  :         return static_cast<_Ty*>(_Allocate<_New_alignof<_Ty>>(_Get_size_of_n<sizeof(_Ty)>(_Count)));

  000d2	6a 18		 push	 24			; 00000018H
; File C:\Program Files (x86)\Microsoft Visual Studio\2019\Community\VC\Tools\MSVC\14.28.29333\include\xtree

; 784  :     explicit _Tree_temp_node_alloc(_Alnode& _Al_) : _Alloc_construct_ptr<_Alnode>(_Al_) {

  000d4	c7 45 fc 00 00
	00 00		 mov	 DWORD PTR __$EHRec$[ebp+8], 0
; File C:\Program Files (x86)\Microsoft Visual Studio\2019\Community\VC\Tools\MSVC\14.28.29333\include\xmemory

; 1052 :         _Ptr = nullptr; // if allocate throws, prevents double-free

  000db	c7 45 e0 00 00
	00 00		 mov	 DWORD PTR $T4[ebp+4], 0

; 814  :         return static_cast<_Ty*>(_Allocate<_New_alignof<_Ty>>(_Get_size_of_n<sizeof(_Ty)>(_Count)));

  000e2	e8 00 00 00 00	 call	 ??$_Allocate@$07U_Default_allocate_traits@std@@$0A@@std@@YAPAXI@Z ; std::_Allocate<8,std::_Default_allocate_traits,0>

; 1053 :         _Ptr = _Al.allocate(1);

  000e7	8b f0		 mov	 esi, eax
; File C:\Program Files (x86)\Microsoft Visual Studio\2019\Community\VC\Tools\MSVC\14.28.29333\include\xtree

; 786  :     }

  000e9	c7 45 fc ff ff
	ff ff		 mov	 DWORD PTR __$EHRec$[ebp+8], -1

; 807  :         _Construct_in_place(this->_Ptr->_Left, _Myhead);

  000f0	8d 45 f0	 lea	 eax, DWORD PTR __Myhead$6[ebp]
  000f3	50		 push	 eax
  000f4	56		 push	 esi
; File C:\Program Files (x86)\Microsoft Visual Studio\2019\Community\VC\Tools\MSVC\14.28.29333\include\utility

; 246  :         : first(_STD forward<_Other1>(_Right.first)), second(_STD forward<_Other2>(_Right.second)) {}

  000f5	89 7e 10	 mov	 DWORD PTR [esi+16], edi
  000f8	89 5e 14	 mov	 DWORD PTR [esi+20], ebx
; File C:\Program Files (x86)\Microsoft Visual Studio\2019\Community\VC\Tools\MSVC\14.28.29333\include\xtree

; 807  :         _Construct_in_place(this->_Ptr->_Left, _Myhead);

  000fb	e8 00 00 00 00	 call	 ??$_Construct_in_place@PAU?$_Tree_node@U?$pair@$$CBHPAVCGraphicImage@@@std@@PAX@std@@AAPAU12@@std@@YAXAAPAU?$_Tree_node@U?$pair@$$CBHPAVCGraphicImage@@@std@@PAX@0@0@Z ; std::_Construct_in_place<std::_Tree_node<std::pair<int const ,CGraphicImage *>,void *> *,std::_Tree_node<std::pair<int const ,CGraphicImage *>,void *> * &>

; 808  :         _Construct_in_place(this->_Ptr->_Parent, _Myhead);

  00100	8d 45 f0	 lea	 eax, DWORD PTR __Myhead$6[ebp]
  00103	50		 push	 eax
  00104	8d 46 04	 lea	 eax, DWORD PTR [esi+4]
  00107	50		 push	 eax
  00108	e8 00 00 00 00	 call	 ??$_Construct_in_place@PAU?$_Tree_node@U?$pair@$$CBHPAVCGraphicImage@@@std@@PAX@std@@AAPAU12@@std@@YAXAAPAU?$_Tree_node@U?$pair@$$CBHPAVCGraphicImage@@@std@@PAX@0@0@Z ; std::_Construct_in_place<std::_Tree_node<std::pair<int const ,CGraphicImage *>,void *> *,std::_Tree_node<std::pair<int const ,CGraphicImage *>,void *> * &>

; 809  :         _Construct_in_place(this->_Ptr->_Right, _Myhead);

  0010d	8d 45 f0	 lea	 eax, DWORD PTR __Myhead$6[ebp]
  00110	50		 push	 eax
  00111	8d 46 08	 lea	 eax, DWORD PTR [esi+8]
  00114	50		 push	 eax
  00115	e8 00 00 00 00	 call	 ??$_Construct_in_place@PAU?$_Tree_node@U?$pair@$$CBHPAVCGraphicImage@@@std@@PAX@std@@AAPAU12@@std@@YAXAAPAU?$_Tree_node@U?$pair@$$CBHPAVCGraphicImage@@@std@@PAX@0@0@Z ; std::_Construct_in_place<std::_Tree_node<std::pair<int const ,CGraphicImage *>,void *> *,std::_Tree_node<std::pair<int const ,CGraphicImage *>,void *> * &>
  0011a	83 c4 1c	 add	 esp, 28			; 0000001cH

; 810  :         this->_Ptr->_Color = _Red;

  0011d	66 c7 46 0c 00
	00		 mov	 WORD PTR [esi+12], 0

; 1034 :         return {_Scary->_Insert_node(_Loc._Location, _Inserted), true};

  00123	b9 00 00 00 00	 mov	 ecx, OFFSET ?m_kMap_iEmotionIndex_pkIconImage@@3V?$map@HPAVCGraphicImage@@U?$less@H@std@@V?$allocator@U?$pair@$$CBHPAVCGraphicImage@@@std@@@3@@std@@A ; m_kMap_iEmotionIndex_pkIconImage
  00128	56		 push	 esi
  00129	ff 75 d0	 push	 DWORD PTR __Loc$2[ebp+4]
  0012c	ff 75 cc	 push	 DWORD PTR __Loc$2[ebp]
  0012f	e8 00 00 00 00	 call	 ?_Insert_node@?$_Tree_val@U?$_Tree_simple_types@U?$pair@$$CBHPAVCGraphicImage@@@std@@@std@@@std@@QAEPAU?$_Tree_node@U?$pair@$$CBHPAVCGraphicImage@@@std@@PAX@2@U?$_Tree_id@PAU?$_Tree_node@U?$pair@$$CBHPAVCGraphicImage@@@std@@PAX@std@@@2@QAU32@@Z ; std::_Tree_val<std::_Tree_simple_types<std::pair<int const ,CGraphicImage *> > >::_Insert_node
$LN69@playerRegi:
; File D:\Metin2 Server Files\mainline\SRC_2014\Metin2Client\UserInterface\PythonPlayerModule.cpp

; 1919 : 	return Py_BuildNone();

  00134	e8 00 00 00 00	 call	 ?Py_BuildNone@@YAPAU_object@@XZ ; Py_BuildNone

; 1920 : }

  00139	8b 4d f4	 mov	 ecx, DWORD PTR __$EHRec$[ebp]
  0013c	64 89 0d 00 00
	00 00		 mov	 DWORD PTR fs:0, ecx
  00143	59		 pop	 ecx
  00144	5f		 pop	 edi
  00145	5e		 pop	 esi
  00146	5b		 pop	 ebx
  00147	8b e5		 mov	 esp, ebp
  00149	5d		 pop	 ebp
  0014a	c3		 ret	 0
$LN86@playerRegi:
; File C:\Program Files (x86)\Microsoft Visual Studio\2019\Community\VC\Tools\MSVC\14.28.29333\include\xtree

; 1720 :             _Throw_tree_length_error();

  0014b	e8 00 00 00 00	 call	 ?_Throw_tree_length_error@std@@YAXXZ ; std::_Throw_tree_length_error
$LN83@playerRegi:
  00150	cc		 int	 3
_TEXT	ENDS
;	COMDAT text$x
text$x	SEGMENT
__unwindfunclet$?playerRegisterEmotionIcon@@YAPAU_object@@PAU1@0@Z$2:
  00000	8d 4d dc	 lea	 ecx, DWORD PTR $T4[ebp]
  00003	e9 00 00 00 00	 jmp	 ??1?$_Alloc_construct_ptr@V?$allocator@U?$_Tree_node@U?$pair@$$CBHPAVCGraphicImage@@@std@@PAX@std@@@std@@@std@@QAE@XZ ; std::_Alloc_construct_ptr<std::allocator<std::_Tree_node<std::pair<int const ,CGraphicImage *>,void *> > >::~_Alloc_construct_ptr<std::allocator<std::_Tree_node<std::pair<int const ,CGraphicImage *>,void *> > >
  00008	cc		 int	 3
  00009	cc		 int	 3
  0000a	cc		 int	 3
  0000b	cc		 int	 3
  0000c	cc		 int	 3
__ehhandler$?playerRegisterEmotionIcon@@YAPAU_object@@PAU1@0@Z:
  0000d	90		 npad	 1
  0000e	90		 npad	 1
  0000f	8b 54 24 08	 mov	 edx, DWORD PTR [esp+8]
  00013	8d 42 0c	 lea	 eax, DWORD PTR [edx+12]
  00016	8b 4a c8	 mov	 ecx, DWORD PTR [edx-56]
  00019	33 c8		 xor	 ecx, eax
  0001b	e8 00 00 00 00	 call	 @__security_check_cookie@4
  00020	b8 00 00 00 00	 mov	 eax, OFFSET __ehfuncinfo$?playerRegisterEmotionIcon@@YAPAU_object@@PAU1@0@Z
  00025	e9 00 00 00 00	 jmp	 ___CxxFrameHandler3
text$x	ENDS
?playerRegisterEmotionIcon@@YAPAU_object@@PAU1@0@Z ENDP	; playerRegisterEmotionIcon
; Function compile flags: /Ogtp
; File D:\Metin2 Server Files\mainline\SRC_2014\Metin2Client\UserInterface\PythonPlayerModule.cpp
;	COMDAT ?playerGetTargetVID@@YAPAU_object@@PAU1@0@Z
_TEXT	SEGMENT
_poSelf$ = 8						; size = 4
_poArgs$ = 12						; size = 4
?playerGetTargetVID@@YAPAU_object@@PAU1@0@Z PROC	; playerGetTargetVID, COMDAT

; 1904 : 	return Py_BuildValue("i", CPythonPlayer::Instance().GetTargetVID());

  00000	8b 0d 00 00 00
	00		 mov	 ecx, DWORD PTR ?ms_singleton@?$CSingleton@VCPythonPlayer@@@@0PAVCPythonPlayer@@A ; CSingleton<CPythonPlayer>::ms_singleton
  00006	e8 00 00 00 00	 call	 ?GetTargetVID@CPythonPlayer@@QAEKXZ ; CPythonPlayer::GetTargetVID
  0000b	50		 push	 eax
  0000c	68 00 00 00 00	 push	 OFFSET ??_C@_01KBJDNOO@i@
  00011	ff 15 00 00 00
	00		 call	 DWORD PTR __imp__Py_BuildValue
  00017	83 c4 08	 add	 esp, 8

; 1905 : }

  0001a	c3		 ret	 0
?playerGetTargetVID@@YAPAU_object@@PAU1@0@Z ENDP	; playerGetTargetVID
_TEXT	ENDS
; Function compile flags: /Ogtp
; File D:\Metin2 Server Files\mainline\SRC_2014\Metin2Client\UserInterface\PythonPlayerModule.cpp
;	COMDAT ?playerToggleLevelLimit@@YAPAU_object@@PAU1@0@Z
_TEXT	SEGMENT
_poSelf$ = 8						; size = 4
_poArgs$ = 12						; size = 4
?playerToggleLevelLimit@@YAPAU_object@@PAU1@0@Z PROC	; playerToggleLevelLimit, COMDAT

; 1899 : 	return Py_BuildValue("i", CPythonPlayer::Instance().__ToggleLevelLimit());

  00000	8b 0d 00 00 00
	00		 mov	 ecx, DWORD PTR ?ms_singleton@?$CSingleton@VCPythonPlayer@@@@0PAVCPythonPlayer@@A ; CSingleton<CPythonPlayer>::ms_singleton
  00006	e8 00 00 00 00	 call	 ?__ToggleLevelLimit@CPythonPlayer@@QAEHXZ ; CPythonPlayer::__ToggleLevelLimit
  0000b	50		 push	 eax
  0000c	68 00 00 00 00	 push	 OFFSET ??_C@_01KBJDNOO@i@
  00011	ff 15 00 00 00
	00		 call	 DWORD PTR __imp__Py_BuildValue
  00017	83 c4 08	 add	 esp, 8

; 1900 : }

  0001a	c3		 ret	 0
?playerToggleLevelLimit@@YAPAU_object@@PAU1@0@Z ENDP	; playerToggleLevelLimit
_TEXT	ENDS
; Function compile flags: /Ogtp
; File D:\Metin2 Server Files\mainline\SRC_2014\Metin2Client\UserInterface\PythonPlayerModule.cpp
;	COMDAT ?playerToggleCoolTime@@YAPAU_object@@PAU1@0@Z
_TEXT	SEGMENT
_poSelf$ = 8						; size = 4
_poArgs$ = 12						; size = 4
?playerToggleCoolTime@@YAPAU_object@@PAU1@0@Z PROC	; playerToggleCoolTime, COMDAT

; 1894 : 	return Py_BuildValue("i", CPythonPlayer::Instance().__ToggleCoolTime());

  00000	8b 0d 00 00 00
	00		 mov	 ecx, DWORD PTR ?ms_singleton@?$CSingleton@VCPythonPlayer@@@@0PAVCPythonPlayer@@A ; CSingleton<CPythonPlayer>::ms_singleton
  00006	e8 00 00 00 00	 call	 ?__ToggleCoolTime@CPythonPlayer@@QAEHXZ ; CPythonPlayer::__ToggleCoolTime
  0000b	50		 push	 eax
  0000c	68 00 00 00 00	 push	 OFFSET ??_C@_01KBJDNOO@i@
  00011	ff 15 00 00 00
	00		 call	 DWORD PTR __imp__Py_BuildValue
  00017	83 c4 08	 add	 esp, 8

; 1895 : }

  0001a	c3		 ret	 0
?playerToggleCoolTime@@YAPAU_object@@PAU1@0@Z ENDP	; playerToggleCoolTime
_TEXT	ENDS
; Function compile flags: /Ogtp
; File D:\Metin2 Server Files\mainline\SRC_2014\Metin2Client\UserInterface\PythonPlayerModule.cpp
;	COMDAT ?playerSetWeaponAttackBonusFlag@@YAPAU_object@@PAU1@0@Z
_TEXT	SEGMENT
_iFlag$ = -4						; size = 4
_poSelf$ = 8						; size = 4
_poArgs$ = 12						; size = 4
?playerSetWeaponAttackBonusFlag@@YAPAU_object@@PAU1@0@Z PROC ; playerSetWeaponAttackBonusFlag, COMDAT

; 1884 : {

  00000	55		 push	 ebp
  00001	8b ec		 mov	 ebp, esp
  00003	51		 push	 ecx

; 1885 : 	int iFlag;
; 1886 : 	if (!PyTuple_GetInteger(poArgs, 0, &iFlag))

  00004	8d 45 fc	 lea	 eax, DWORD PTR _iFlag$[ebp]
  00007	50		 push	 eax
  00008	6a 00		 push	 0
  0000a	ff 75 0c	 push	 DWORD PTR _poArgs$[ebp]
  0000d	e8 00 00 00 00	 call	 ?PyTuple_GetInteger@@YA_NPAU_object@@HPAH@Z ; PyTuple_GetInteger
  00012	83 c4 0c	 add	 esp, 12			; 0000000cH
  00015	84 c0		 test	 al, al
  00017	75 0e		 jne	 SHORT $LN2@playerSetW

; 1887 : 		return Py_BuildException();

  00019	6a 00		 push	 0
  0001b	e8 00 00 00 00	 call	 ?Py_BuildException@@YAPAU_object@@PBDZZ ; Py_BuildException
  00020	83 c4 04	 add	 esp, 4

; 1890 : }

  00023	8b e5		 mov	 esp, ebp
  00025	5d		 pop	 ebp
  00026	c3		 ret	 0
$LN2@playerSetW:

; 1888 : 
; 1889 : 	return Py_BuildNone();

  00027	e8 00 00 00 00	 call	 ?Py_BuildNone@@YAPAU_object@@XZ ; Py_BuildNone

; 1890 : }

  0002c	8b e5		 mov	 esp, ebp
  0002e	5d		 pop	 ebp
  0002f	c3		 ret	 0
?playerSetWeaponAttackBonusFlag@@YAPAU_object@@PAU1@0@Z ENDP ; playerSetWeaponAttackBonusFlag
_TEXT	ENDS
; Function compile flags: /Ogtp
; File D:\Metin2 Server Files\mainline\SRC_2014\Metin2Client\UserInterface\PythonPlayerModule.cpp
;	COMDAT ?playerHasMobilePhoneNumber@@YAPAU_object@@PAU1@0@Z
_TEXT	SEGMENT
_poSelf$ = 8						; size = 4
_poArgs$ = 12						; size = 4
?playerHasMobilePhoneNumber@@YAPAU_object@@PAU1@0@Z PROC ; playerHasMobilePhoneNumber, COMDAT

; 1880 : 	return Py_BuildValue("i", CPythonPlayer::Instance().HasMobilePhoneNumber());

  00000	8b 0d 00 00 00
	00		 mov	 ecx, DWORD PTR ?ms_singleton@?$CSingleton@VCPythonPlayer@@@@0PAVCPythonPlayer@@A ; CSingleton<CPythonPlayer>::ms_singleton
  00006	e8 00 00 00 00	 call	 ?HasMobilePhoneNumber@CPythonPlayer@@QAEHXZ ; CPythonPlayer::HasMobilePhoneNumber
  0000b	50		 push	 eax
  0000c	68 00 00 00 00	 push	 OFFSET ??_C@_01KBJDNOO@i@
  00011	ff 15 00 00 00
	00		 call	 DWORD PTR __imp__Py_BuildValue
  00017	83 c4 08	 add	 esp, 8

; 1881 : }

  0001a	c3		 ret	 0
?playerHasMobilePhoneNumber@@YAPAU_object@@PAU1@0@Z ENDP ; playerHasMobilePhoneNumber
_TEXT	ENDS
; Function compile flags: /Ogtp
; File D:\Metin2 Server Files\mainline\SRC_2014\Metin2Client\UserInterface\PythonPlayerModule.cpp
;	COMDAT ?playerGetPKMode@@YAPAU_object@@PAU1@0@Z
_TEXT	SEGMENT
_poSelf$ = 8						; size = 4
_poArgs$ = 12						; size = 4
?playerGetPKMode@@YAPAU_object@@PAU1@0@Z PROC		; playerGetPKMode, COMDAT

; 1875 : 	return Py_BuildValue("i", CPythonPlayer::Instance().GetPKMode());

  00000	8b 0d 00 00 00
	00		 mov	 ecx, DWORD PTR ?ms_singleton@?$CSingleton@VCPythonPlayer@@@@0PAVCPythonPlayer@@A ; CSingleton<CPythonPlayer>::ms_singleton
  00006	e8 00 00 00 00	 call	 ?GetPKMode@CPythonPlayer@@QAEKXZ ; CPythonPlayer::GetPKMode
  0000b	50		 push	 eax
  0000c	68 00 00 00 00	 push	 OFFSET ??_C@_01KBJDNOO@i@
  00011	ff 15 00 00 00
	00		 call	 DWORD PTR __imp__Py_BuildValue
  00017	83 c4 08	 add	 esp, 8

; 1876 : }

  0001a	c3		 ret	 0
?playerGetPKMode@@YAPAU_object@@PAU1@0@Z ENDP		; playerGetPKMode
_TEXT	ENDS
; Function compile flags: /Ogtp
; File D:\Metin2 Server Files\mainline\SRC_2014\Metin2Client\UserInterface\PythonPlayerModule.cpp
;	COMDAT ?playerExitParty@@YAPAU_object@@PAU1@0@Z
_TEXT	SEGMENT
_poSelf$ = 8						; size = 4
_poArgs$ = 12						; size = 4
?playerExitParty@@YAPAU_object@@PAU1@0@Z PROC		; playerExitParty, COMDAT

; 1869 : 	CPythonPlayer::Instance().ExitParty();

  00000	8b 0d 00 00 00
	00		 mov	 ecx, DWORD PTR ?ms_singleton@?$CSingleton@VCPythonPlayer@@@@0PAVCPythonPlayer@@A ; CSingleton<CPythonPlayer>::ms_singleton
  00006	e8 00 00 00 00	 call	 ?ExitParty@CPythonPlayer@@QAEXXZ ; CPythonPlayer::ExitParty

; 1870 : 	return Py_BuildNone();

  0000b	e9 00 00 00 00	 jmp	 ?Py_BuildNone@@YAPAU_object@@XZ ; Py_BuildNone
?playerExitParty@@YAPAU_object@@PAU1@0@Z ENDP		; playerExitParty
_TEXT	ENDS
; Function compile flags: /Ogtp
; File D:\Metin2 Server Files\mainline\SRC_2014\Metin2Client\UserInterface\PythonPlayerModule.cpp
;	COMDAT ?playerRemovePartyMember@@YAPAU_object@@PAU1@0@Z
_TEXT	SEGMENT
_iPID$ = -4						; size = 4
_poSelf$ = 8						; size = 4
_poArgs$ = 12						; size = 4
?playerRemovePartyMember@@YAPAU_object@@PAU1@0@Z PROC	; playerRemovePartyMember, COMDAT

; 1858 : {

  00000	55		 push	 ebp
  00001	8b ec		 mov	 ebp, esp
  00003	51		 push	 ecx

; 1859 : 	int iPID;
; 1860 : 	if (!PyTuple_GetInteger(poArgs, 0, &iPID))

  00004	8d 45 fc	 lea	 eax, DWORD PTR _iPID$[ebp]
  00007	50		 push	 eax
  00008	6a 00		 push	 0
  0000a	ff 75 0c	 push	 DWORD PTR _poArgs$[ebp]
  0000d	e8 00 00 00 00	 call	 ?PyTuple_GetInteger@@YA_NPAU_object@@HPAH@Z ; PyTuple_GetInteger
  00012	83 c4 0c	 add	 esp, 12			; 0000000cH
  00015	84 c0		 test	 al, al
  00017	75 0e		 jne	 SHORT $LN2@playerRemo

; 1861 : 		return Py_BuildException();

  00019	6a 00		 push	 0
  0001b	e8 00 00 00 00	 call	 ?Py_BuildException@@YAPAU_object@@PBDZZ ; Py_BuildException
  00020	83 c4 04	 add	 esp, 4

; 1865 : }

  00023	8b e5		 mov	 esp, ebp
  00025	5d		 pop	 ebp
  00026	c3		 ret	 0
$LN2@playerRemo:

; 1862 : 
; 1863 : 	CPythonPlayer::Instance().RemovePartyMember(iPID);

  00027	ff 75 fc	 push	 DWORD PTR _iPID$[ebp]
  0002a	8b 0d 00 00 00
	00		 mov	 ecx, DWORD PTR ?ms_singleton@?$CSingleton@VCPythonPlayer@@@@0PAVCPythonPlayer@@A ; CSingleton<CPythonPlayer>::ms_singleton
  00030	e8 00 00 00 00	 call	 ?RemovePartyMember@CPythonPlayer@@QAEXK@Z ; CPythonPlayer::RemovePartyMember

; 1864 : 	return Py_BuildNone();

  00035	e8 00 00 00 00	 call	 ?Py_BuildNone@@YAPAU_object@@XZ ; Py_BuildNone

; 1865 : }

  0003a	8b e5		 mov	 esp, ebp
  0003c	5d		 pop	 ebp
  0003d	c3		 ret	 0
?playerRemovePartyMember@@YAPAU_object@@PAU1@0@Z ENDP	; playerRemovePartyMember
_TEXT	ENDS
; Function compile flags: /Ogtp
; File D:\Metin2 Server Files\mainline\SRC_2014\Metin2Client\UserInterface\PythonPlayerModule.cpp
;	COMDAT ?playerGetPartyMemberAffects@@YAPAU_object@@PAU1@0@Z
_TEXT	SEGMENT
_pPartyMemberInfo$ = -8					; size = 4
_iPID$ = -4						; size = 4
_poSelf$ = 8						; size = 4
_poArgs$ = 12						; size = 4
?playerGetPartyMemberAffects@@YAPAU_object@@PAU1@0@Z PROC ; playerGetPartyMemberAffects, COMDAT

; 1839 : {

  00000	55		 push	 ebp
  00001	8b ec		 mov	 ebp, esp
  00003	83 ec 08	 sub	 esp, 8

; 1840 : 	int iPID;
; 1841 : 	if (!PyTuple_GetInteger(poArgs, 0, &iPID))

  00006	8d 45 fc	 lea	 eax, DWORD PTR _iPID$[ebp]
  00009	50		 push	 eax
  0000a	6a 00		 push	 0
  0000c	ff 75 0c	 push	 DWORD PTR _poArgs$[ebp]
  0000f	e8 00 00 00 00	 call	 ?PyTuple_GetInteger@@YA_NPAU_object@@HPAH@Z ; PyTuple_GetInteger
  00014	83 c4 0c	 add	 esp, 12			; 0000000cH
  00017	84 c0		 test	 al, al
  00019	75 0e		 jne	 SHORT $LN2@playerGetP

; 1842 : 		return Py_BuildException();

  0001b	6a 00		 push	 0
  0001d	e8 00 00 00 00	 call	 ?Py_BuildException@@YAPAU_object@@PBDZZ ; Py_BuildException
  00022	83 c4 04	 add	 esp, 4

; 1849 : 									pPartyMemberInfo->sAffects[1],
; 1850 : 									pPartyMemberInfo->sAffects[2],
; 1851 : 									pPartyMemberInfo->sAffects[3],
; 1852 : 									pPartyMemberInfo->sAffects[4],
; 1853 : 									pPartyMemberInfo->sAffects[5],
; 1854 : 									pPartyMemberInfo->sAffects[6]);
; 1855 : }

  00025	8b e5		 mov	 esp, ebp
  00027	5d		 pop	 ebp
  00028	c3		 ret	 0
$LN2@playerGetP:

; 1843 : 
; 1844 : 	CPythonPlayer::TPartyMemberInfo * pPartyMemberInfo;
; 1845 : 	if (!CPythonPlayer::Instance().GetPartyMemberPtr(iPID, &pPartyMemberInfo))

  00029	8b 0d 00 00 00
	00		 mov	 ecx, DWORD PTR ?ms_singleton@?$CSingleton@VCPythonPlayer@@@@0PAVCPythonPlayer@@A ; CSingleton<CPythonPlayer>::ms_singleton
  0002f	8d 45 f8	 lea	 eax, DWORD PTR _pPartyMemberInfo$[ebp]
  00032	50		 push	 eax
  00033	ff 75 fc	 push	 DWORD PTR _iPID$[ebp]
  00036	e8 00 00 00 00	 call	 ?GetPartyMemberPtr@CPythonPlayer@@QAE_NKPAPAUSPartyMemberInfo@1@@Z ; CPythonPlayer::GetPartyMemberPtr
  0003b	84 c0		 test	 al, al
  0003d	75 14		 jne	 SHORT $LN3@playerGetP

; 1846 : 		return Py_BuildValue("i", FALSE);

  0003f	6a 00		 push	 0
  00041	68 00 00 00 00	 push	 OFFSET ??_C@_01KBJDNOO@i@
  00046	ff 15 00 00 00
	00		 call	 DWORD PTR __imp__Py_BuildValue
  0004c	83 c4 08	 add	 esp, 8

; 1849 : 									pPartyMemberInfo->sAffects[1],
; 1850 : 									pPartyMemberInfo->sAffects[2],
; 1851 : 									pPartyMemberInfo->sAffects[3],
; 1852 : 									pPartyMemberInfo->sAffects[4],
; 1853 : 									pPartyMemberInfo->sAffects[5],
; 1854 : 									pPartyMemberInfo->sAffects[6]);
; 1855 : }

  0004f	8b e5		 mov	 esp, ebp
  00051	5d		 pop	 ebp
  00052	c3		 ret	 0
$LN3@playerGetP:

; 1847 : 
; 1848 : 	return Py_BuildValue("iiiiiii",	pPartyMemberInfo->sAffects[0],

  00053	8b 4d f8	 mov	 ecx, DWORD PTR _pPartyMemberInfo$[ebp]
  00056	0f bf 41 2e	 movsx	 eax, WORD PTR [ecx+46]
  0005a	50		 push	 eax
  0005b	0f bf 41 2c	 movsx	 eax, WORD PTR [ecx+44]
  0005f	50		 push	 eax
  00060	0f bf 41 2a	 movsx	 eax, WORD PTR [ecx+42]
  00064	50		 push	 eax
  00065	0f bf 41 28	 movsx	 eax, WORD PTR [ecx+40]
  00069	50		 push	 eax
  0006a	0f bf 41 26	 movsx	 eax, WORD PTR [ecx+38]
  0006e	50		 push	 eax
  0006f	0f bf 41 24	 movsx	 eax, WORD PTR [ecx+36]
  00073	50		 push	 eax
  00074	0f bf 41 22	 movsx	 eax, WORD PTR [ecx+34]
  00078	50		 push	 eax
  00079	68 00 00 00 00	 push	 OFFSET ??_C@_07EFJJEBFG@iiiiiii@
  0007e	ff 15 00 00 00
	00		 call	 DWORD PTR __imp__Py_BuildValue
  00084	83 c4 20	 add	 esp, 32			; 00000020H

; 1849 : 									pPartyMemberInfo->sAffects[1],
; 1850 : 									pPartyMemberInfo->sAffects[2],
; 1851 : 									pPartyMemberInfo->sAffects[3],
; 1852 : 									pPartyMemberInfo->sAffects[4],
; 1853 : 									pPartyMemberInfo->sAffects[5],
; 1854 : 									pPartyMemberInfo->sAffects[6]);
; 1855 : }

  00087	8b e5		 mov	 esp, ebp
  00089	5d		 pop	 ebp
  0008a	c3		 ret	 0
?playerGetPartyMemberAffects@@YAPAU_object@@PAU1@0@Z ENDP ; playerGetPartyMemberAffects
_TEXT	ENDS
; Function compile flags: /Ogtp
; File D:\Metin2 Server Files\mainline\SRC_2014\Metin2Client\UserInterface\PythonPlayerModule.cpp
;	COMDAT ?playerGetPartyMemberState@@YAPAU_object@@PAU1@0@Z
_TEXT	SEGMENT
_pPartyMemberInfo$ = -8					; size = 4
_iPID$ = -4						; size = 4
_poSelf$ = 8						; size = 4
_poArgs$ = 12						; size = 4
?playerGetPartyMemberState@@YAPAU_object@@PAU1@0@Z PROC	; playerGetPartyMemberState, COMDAT

; 1826 : {

  00000	55		 push	 ebp
  00001	8b ec		 mov	 ebp, esp
  00003	83 ec 08	 sub	 esp, 8

; 1827 : 	int iPID;
; 1828 : 	if (!PyTuple_GetInteger(poArgs, 0, &iPID))

  00006	8d 45 fc	 lea	 eax, DWORD PTR _iPID$[ebp]
  00009	50		 push	 eax
  0000a	6a 00		 push	 0
  0000c	ff 75 0c	 push	 DWORD PTR _poArgs$[ebp]
  0000f	e8 00 00 00 00	 call	 ?PyTuple_GetInteger@@YA_NPAU_object@@HPAH@Z ; PyTuple_GetInteger
  00014	83 c4 0c	 add	 esp, 12			; 0000000cH
  00017	84 c0		 test	 al, al
  00019	75 0e		 jne	 SHORT $LN2@playerGetP

; 1829 : 		return Py_BuildException();

  0001b	6a 00		 push	 0
  0001d	e8 00 00 00 00	 call	 ?Py_BuildException@@YAPAU_object@@PBDZZ ; Py_BuildException
  00022	83 c4 04	 add	 esp, 4

; 1836 : }

  00025	8b e5		 mov	 esp, ebp
  00027	5d		 pop	 ebp
  00028	c3		 ret	 0
$LN2@playerGetP:

; 1830 : 
; 1831 : 	CPythonPlayer::TPartyMemberInfo * pPartyMemberInfo;
; 1832 : 	if (!CPythonPlayer::Instance().GetPartyMemberPtr(iPID, &pPartyMemberInfo))

  00029	8b 0d 00 00 00
	00		 mov	 ecx, DWORD PTR ?ms_singleton@?$CSingleton@VCPythonPlayer@@@@0PAVCPythonPlayer@@A ; CSingleton<CPythonPlayer>::ms_singleton
  0002f	8d 45 f8	 lea	 eax, DWORD PTR _pPartyMemberInfo$[ebp]
  00032	50		 push	 eax
  00033	ff 75 fc	 push	 DWORD PTR _iPID$[ebp]
  00036	e8 00 00 00 00	 call	 ?GetPartyMemberPtr@CPythonPlayer@@QAE_NKPAPAUSPartyMemberInfo@1@@Z ; CPythonPlayer::GetPartyMemberPtr
  0003b	84 c0		 test	 al, al
  0003d	75 14		 jne	 SHORT $LN3@playerGetP

; 1833 : 		return Py_BuildValue("i", FALSE);

  0003f	6a 00		 push	 0

; 1836 : }

  00041	68 00 00 00 00	 push	 OFFSET ??_C@_01KBJDNOO@i@
  00046	ff 15 00 00 00
	00		 call	 DWORD PTR __imp__Py_BuildValue
  0004c	83 c4 08	 add	 esp, 8
  0004f	8b e5		 mov	 esp, ebp
  00051	5d		 pop	 ebp
  00052	c3		 ret	 0
$LN3@playerGetP:

; 1834 : 
; 1835 : 	return Py_BuildValue("i", pPartyMemberInfo->byState);

  00053	8b 45 f8	 mov	 eax, DWORD PTR _pPartyMemberInfo$[ebp]
  00056	0f b6 40 20	 movzx	 eax, BYTE PTR [eax+32]
  0005a	50		 push	 eax

; 1836 : }

  0005b	68 00 00 00 00	 push	 OFFSET ??_C@_01KBJDNOO@i@
  00060	ff 15 00 00 00
	00		 call	 DWORD PTR __imp__Py_BuildValue
  00066	83 c4 08	 add	 esp, 8
  00069	8b e5		 mov	 esp, ebp
  0006b	5d		 pop	 ebp
  0006c	c3		 ret	 0
?playerGetPartyMemberState@@YAPAU_object@@PAU1@0@Z ENDP	; playerGetPartyMemberState
_TEXT	ENDS
; Function compile flags: /Ogtp
; File D:\Metin2 Server Files\mainline\SRC_2014\Metin2Client\UserInterface\PythonPlayerModule.cpp
;	COMDAT ?playerGetPartyMemberHPPercentage@@YAPAU_object@@PAU1@0@Z
_TEXT	SEGMENT
_pPartyMemberInfo$ = -8					; size = 4
_iPID$ = -4						; size = 4
_poSelf$ = 8						; size = 4
_poArgs$ = 12						; size = 4
?playerGetPartyMemberHPPercentage@@YAPAU_object@@PAU1@0@Z PROC ; playerGetPartyMemberHPPercentage, COMDAT

; 1813 : {

  00000	55		 push	 ebp
  00001	8b ec		 mov	 ebp, esp
  00003	83 ec 08	 sub	 esp, 8

; 1814 : 	int iPID;
; 1815 : 	if (!PyTuple_GetInteger(poArgs, 0, &iPID))

  00006	8d 45 fc	 lea	 eax, DWORD PTR _iPID$[ebp]
  00009	50		 push	 eax
  0000a	6a 00		 push	 0
  0000c	ff 75 0c	 push	 DWORD PTR _poArgs$[ebp]
  0000f	e8 00 00 00 00	 call	 ?PyTuple_GetInteger@@YA_NPAU_object@@HPAH@Z ; PyTuple_GetInteger
  00014	83 c4 0c	 add	 esp, 12			; 0000000cH
  00017	84 c0		 test	 al, al
  00019	75 0e		 jne	 SHORT $LN2@playerGetP

; 1816 : 		return Py_BuildException();

  0001b	6a 00		 push	 0
  0001d	e8 00 00 00 00	 call	 ?Py_BuildException@@YAPAU_object@@PBDZZ ; Py_BuildException
  00022	83 c4 04	 add	 esp, 4

; 1823 : }

  00025	8b e5		 mov	 esp, ebp
  00027	5d		 pop	 ebp
  00028	c3		 ret	 0
$LN2@playerGetP:

; 1817 : 
; 1818 : 	CPythonPlayer::TPartyMemberInfo * pPartyMemberInfo;
; 1819 : 	if (!CPythonPlayer::Instance().GetPartyMemberPtr(iPID, &pPartyMemberInfo))

  00029	8b 0d 00 00 00
	00		 mov	 ecx, DWORD PTR ?ms_singleton@?$CSingleton@VCPythonPlayer@@@@0PAVCPythonPlayer@@A ; CSingleton<CPythonPlayer>::ms_singleton
  0002f	8d 45 f8	 lea	 eax, DWORD PTR _pPartyMemberInfo$[ebp]
  00032	50		 push	 eax
  00033	ff 75 fc	 push	 DWORD PTR _iPID$[ebp]
  00036	e8 00 00 00 00	 call	 ?GetPartyMemberPtr@CPythonPlayer@@QAE_NKPAPAUSPartyMemberInfo@1@@Z ; CPythonPlayer::GetPartyMemberPtr
  0003b	84 c0		 test	 al, al
  0003d	75 14		 jne	 SHORT $LN3@playerGetP

; 1820 : 		return Py_BuildValue("i", FALSE);

  0003f	6a 00		 push	 0

; 1823 : }

  00041	68 00 00 00 00	 push	 OFFSET ??_C@_01KBJDNOO@i@
  00046	ff 15 00 00 00
	00		 call	 DWORD PTR __imp__Py_BuildValue
  0004c	83 c4 08	 add	 esp, 8
  0004f	8b e5		 mov	 esp, ebp
  00051	5d		 pop	 ebp
  00052	c3		 ret	 0
$LN3@playerGetP:

; 1821 : 
; 1822 : 	return Py_BuildValue("i", pPartyMemberInfo->byHPPercentage);

  00053	8b 45 f8	 mov	 eax, DWORD PTR _pPartyMemberInfo$[ebp]
  00056	0f b6 40 21	 movzx	 eax, BYTE PTR [eax+33]
  0005a	50		 push	 eax

; 1823 : }

  0005b	68 00 00 00 00	 push	 OFFSET ??_C@_01KBJDNOO@i@
  00060	ff 15 00 00 00
	00		 call	 DWORD PTR __imp__Py_BuildValue
  00066	83 c4 08	 add	 esp, 8
  00069	8b e5		 mov	 esp, ebp
  0006b	5d		 pop	 ebp
  0006c	c3		 ret	 0
?playerGetPartyMemberHPPercentage@@YAPAU_object@@PAU1@0@Z ENDP ; playerGetPartyMemberHPPercentage
_TEXT	ENDS
; Function compile flags: /Ogtp
; File D:\Metin2 Server Files\mainline\SRC_2014\Metin2Client\UserInterface\PythonPlayerModule.cpp
;	COMDAT ?playerIsPartyLeaderByPID@@YAPAU_object@@PAU1@0@Z
_TEXT	SEGMENT
_pPartyMemberInfo$ = -8					; size = 4
_iPID$ = -4						; size = 4
_poSelf$ = 8						; size = 4
_poArgs$ = 12						; size = 4
?playerIsPartyLeaderByPID@@YAPAU_object@@PAU1@0@Z PROC	; playerIsPartyLeaderByPID, COMDAT

; 1800 : {

  00000	55		 push	 ebp
  00001	8b ec		 mov	 ebp, esp
  00003	83 ec 08	 sub	 esp, 8

; 1801 : 	int iPID;
; 1802 : 	if (!PyTuple_GetInteger(poArgs, 0, &iPID))

  00006	8d 45 fc	 lea	 eax, DWORD PTR _iPID$[ebp]
  00009	50		 push	 eax
  0000a	6a 00		 push	 0
  0000c	ff 75 0c	 push	 DWORD PTR _poArgs$[ebp]
  0000f	e8 00 00 00 00	 call	 ?PyTuple_GetInteger@@YA_NPAU_object@@HPAH@Z ; PyTuple_GetInteger
  00014	83 c4 0c	 add	 esp, 12			; 0000000cH
  00017	84 c0		 test	 al, al
  00019	75 0e		 jne	 SHORT $LN2@playerIsPa

; 1803 : 		return Py_BuildException();

  0001b	6a 00		 push	 0
  0001d	e8 00 00 00 00	 call	 ?Py_BuildException@@YAPAU_object@@PBDZZ ; Py_BuildException
  00022	83 c4 04	 add	 esp, 4

; 1810 : }

  00025	8b e5		 mov	 esp, ebp
  00027	5d		 pop	 ebp
  00028	c3		 ret	 0
$LN2@playerIsPa:

; 1804 : 
; 1805 : 	CPythonPlayer::TPartyMemberInfo * pPartyMemberInfo;
; 1806 : 	if (!CPythonPlayer::Instance().GetPartyMemberPtr(iPID, &pPartyMemberInfo))

  00029	8b 0d 00 00 00
	00		 mov	 ecx, DWORD PTR ?ms_singleton@?$CSingleton@VCPythonPlayer@@@@0PAVCPythonPlayer@@A ; CSingleton<CPythonPlayer>::ms_singleton
  0002f	8d 45 f8	 lea	 eax, DWORD PTR _pPartyMemberInfo$[ebp]
  00032	50		 push	 eax
  00033	ff 75 fc	 push	 DWORD PTR _iPID$[ebp]
  00036	e8 00 00 00 00	 call	 ?GetPartyMemberPtr@CPythonPlayer@@QAE_NKPAPAUSPartyMemberInfo@1@@Z ; CPythonPlayer::GetPartyMemberPtr
  0003b	84 c0		 test	 al, al
  0003d	75 14		 jne	 SHORT $LN3@playerIsPa

; 1807 : 		return Py_BuildValue("i", FALSE);

  0003f	6a 00		 push	 0

; 1810 : }

  00041	68 00 00 00 00	 push	 OFFSET ??_C@_01KBJDNOO@i@
  00046	ff 15 00 00 00
	00		 call	 DWORD PTR __imp__Py_BuildValue
  0004c	83 c4 08	 add	 esp, 8
  0004f	8b e5		 mov	 esp, ebp
  00051	5d		 pop	 ebp
  00052	c3		 ret	 0
$LN3@playerIsPa:

; 1808 : 
; 1809 : 	return Py_BuildValue("i", CPythonPlayer::PARTY_ROLE_LEADER == pPartyMemberInfo->byState);

  00053	8b 45 f8	 mov	 eax, DWORD PTR _pPartyMemberInfo$[ebp]
  00056	33 c9		 xor	 ecx, ecx
  00058	80 78 20 01	 cmp	 BYTE PTR [eax+32], 1
  0005c	0f 94 c1	 sete	 cl
  0005f	51		 push	 ecx

; 1810 : }

  00060	68 00 00 00 00	 push	 OFFSET ??_C@_01KBJDNOO@i@
  00065	ff 15 00 00 00
	00		 call	 DWORD PTR __imp__Py_BuildValue
  0006b	83 c4 08	 add	 esp, 8
  0006e	8b e5		 mov	 esp, ebp
  00070	5d		 pop	 ebp
  00071	c3		 ret	 0
?playerIsPartyLeaderByPID@@YAPAU_object@@PAU1@0@Z ENDP	; playerIsPartyLeaderByPID
_TEXT	ENDS
; Function compile flags: /Ogtp
; File D:\Metin2 Server Files\mainline\SRC_2014\Metin2Client\UserInterface\PythonPlayerModule.cpp
;	COMDAT ?playerIsPartyLeader@@YAPAU_object@@PAU1@0@Z
_TEXT	SEGMENT
_pPartyMemberInfo$ = -12				; size = 4
_dwPID$ = -8						; size = 4
_iVID$ = -4						; size = 4
_poSelf$ = 8						; size = 4
_poArgs$ = 12						; size = 4
?playerIsPartyLeader@@YAPAU_object@@PAU1@0@Z PROC	; playerIsPartyLeader, COMDAT

; 1783 : {

  00000	55		 push	 ebp
  00001	8b ec		 mov	 ebp, esp
  00003	83 ec 0c	 sub	 esp, 12			; 0000000cH

; 1784 : 	int iVID;
; 1785 : 	if (!PyTuple_GetInteger(poArgs, 0, &iVID))

  00006	8d 45 fc	 lea	 eax, DWORD PTR _iVID$[ebp]
  00009	50		 push	 eax
  0000a	6a 00		 push	 0
  0000c	ff 75 0c	 push	 DWORD PTR _poArgs$[ebp]
  0000f	e8 00 00 00 00	 call	 ?PyTuple_GetInteger@@YA_NPAU_object@@HPAH@Z ; PyTuple_GetInteger
  00014	83 c4 0c	 add	 esp, 12			; 0000000cH
  00017	84 c0		 test	 al, al
  00019	75 0e		 jne	 SHORT $LN2@playerIsPa

; 1786 : 		return Py_BuildException();

  0001b	6a 00		 push	 0
  0001d	e8 00 00 00 00	 call	 ?Py_BuildException@@YAPAU_object@@PBDZZ ; Py_BuildException
  00022	83 c4 04	 add	 esp, 4

; 1797 : }

  00025	8b e5		 mov	 esp, ebp
  00027	5d		 pop	 ebp
  00028	c3		 ret	 0
$LN2@playerIsPa:

; 1787 : 
; 1788 : 	DWORD dwPID;
; 1789 : 	if (!CPythonPlayer::Instance().PartyMemberVIDToPID(iVID, &dwPID))

  00029	8b 0d 00 00 00
	00		 mov	 ecx, DWORD PTR ?ms_singleton@?$CSingleton@VCPythonPlayer@@@@0PAVCPythonPlayer@@A ; CSingleton<CPythonPlayer>::ms_singleton
  0002f	8d 55 f8	 lea	 edx, DWORD PTR _dwPID$[ebp]
  00032	83 c1 04	 add	 ecx, 4
  00035	52		 push	 edx
  00036	ff 75 fc	 push	 DWORD PTR _iVID$[ebp]
  00039	8b 01		 mov	 eax, DWORD PTR [ecx]
  0003b	8b 40 28	 mov	 eax, DWORD PTR [eax+40]
  0003e	ff d0		 call	 eax
  00040	84 c0		 test	 al, al
  00042	75 14		 jne	 SHORT $LN3@playerIsPa
$LN7@playerIsPa:

; 1797 : }

  00044	6a 00		 push	 0
  00046	68 00 00 00 00	 push	 OFFSET ??_C@_01KBJDNOO@i@
  0004b	ff 15 00 00 00
	00		 call	 DWORD PTR __imp__Py_BuildValue
  00051	83 c4 08	 add	 esp, 8
  00054	8b e5		 mov	 esp, ebp
  00056	5d		 pop	 ebp
  00057	c3		 ret	 0
$LN3@playerIsPa:

; 1790 : 		return Py_BuildValue("i", FALSE);
; 1791 : 
; 1792 : 	CPythonPlayer::TPartyMemberInfo * pPartyMemberInfo;
; 1793 : 	if (!CPythonPlayer::Instance().GetPartyMemberPtr(dwPID, &pPartyMemberInfo))

  00058	8b 0d 00 00 00
	00		 mov	 ecx, DWORD PTR ?ms_singleton@?$CSingleton@VCPythonPlayer@@@@0PAVCPythonPlayer@@A ; CSingleton<CPythonPlayer>::ms_singleton
  0005e	8d 45 f4	 lea	 eax, DWORD PTR _pPartyMemberInfo$[ebp]
  00061	50		 push	 eax
  00062	ff 75 f8	 push	 DWORD PTR _dwPID$[ebp]
  00065	e8 00 00 00 00	 call	 ?GetPartyMemberPtr@CPythonPlayer@@QAE_NKPAPAUSPartyMemberInfo@1@@Z ; CPythonPlayer::GetPartyMemberPtr
  0006a	84 c0		 test	 al, al
  0006c	74 d6		 je	 SHORT $LN7@playerIsPa

; 1794 : 		return Py_BuildValue("i", FALSE);
; 1795 : 
; 1796 : 	return Py_BuildValue("i", CPythonPlayer::PARTY_ROLE_LEADER == pPartyMemberInfo->byState);

  0006e	8b 45 f4	 mov	 eax, DWORD PTR _pPartyMemberInfo$[ebp]
  00071	33 c9		 xor	 ecx, ecx
  00073	80 78 20 01	 cmp	 BYTE PTR [eax+32], 1
  00077	0f 94 c1	 sete	 cl
  0007a	51		 push	 ecx

; 1797 : }

  0007b	68 00 00 00 00	 push	 OFFSET ??_C@_01KBJDNOO@i@
  00080	ff 15 00 00 00
	00		 call	 DWORD PTR __imp__Py_BuildValue
  00086	83 c4 08	 add	 esp, 8
  00089	8b e5		 mov	 esp, ebp
  0008b	5d		 pop	 ebp
  0008c	c3		 ret	 0
?playerIsPartyLeader@@YAPAU_object@@PAU1@0@Z ENDP	; playerIsPartyLeader
_TEXT	ENDS
; Function compile flags: /Ogtp
; File D:\Metin2 Server Files\mainline\SRC_2014\Metin2Client\UserInterface\PythonPlayerModule.cpp
;	COMDAT ?playerIsPartyMember@@YAPAU_object@@PAU1@0@Z
_TEXT	SEGMENT
_iVID$ = -4						; size = 4
_poSelf$ = 8						; size = 4
_poArgs$ = 12						; size = 4
?playerIsPartyMember@@YAPAU_object@@PAU1@0@Z PROC	; playerIsPartyMember, COMDAT

; 1774 : {

  00000	55		 push	 ebp
  00001	8b ec		 mov	 ebp, esp
  00003	51		 push	 ecx

; 1775 : 	int iVID;
; 1776 : 	if (!PyTuple_GetInteger(poArgs, 0, &iVID))

  00004	8d 45 fc	 lea	 eax, DWORD PTR _iVID$[ebp]
  00007	50		 push	 eax
  00008	6a 00		 push	 0
  0000a	ff 75 0c	 push	 DWORD PTR _poArgs$[ebp]
  0000d	e8 00 00 00 00	 call	 ?PyTuple_GetInteger@@YA_NPAU_object@@HPAH@Z ; PyTuple_GetInteger
  00012	83 c4 0c	 add	 esp, 12			; 0000000cH
  00015	84 c0		 test	 al, al
  00017	75 0e		 jne	 SHORT $LN2@playerIsPa

; 1777 : 		return Py_BuildException();

  00019	6a 00		 push	 0
  0001b	e8 00 00 00 00	 call	 ?Py_BuildException@@YAPAU_object@@PBDZZ ; Py_BuildException
  00020	83 c4 04	 add	 esp, 4

; 1780 : }

  00023	8b e5		 mov	 esp, ebp
  00025	5d		 pop	 ebp
  00026	c3		 ret	 0
$LN2@playerIsPa:

; 1778 : 
; 1779 : 	return Py_BuildValue("i", CPythonPlayer::Instance().IsPartyMemberByVID(iVID));

  00027	8b 0d 00 00 00
	00		 mov	 ecx, DWORD PTR ?ms_singleton@?$CSingleton@VCPythonPlayer@@@@0PAVCPythonPlayer@@A ; CSingleton<CPythonPlayer>::ms_singleton
  0002d	ff 75 fc	 push	 DWORD PTR _iVID$[ebp]
  00030	83 c1 04	 add	 ecx, 4
  00033	8b 01		 mov	 eax, DWORD PTR [ecx]
  00035	8b 40 24	 mov	 eax, DWORD PTR [eax+36]
  00038	ff d0		 call	 eax
  0003a	0f b6 c0	 movzx	 eax, al
  0003d	50		 push	 eax
  0003e	68 00 00 00 00	 push	 OFFSET ??_C@_01KBJDNOO@i@
  00043	ff 15 00 00 00
	00		 call	 DWORD PTR __imp__Py_BuildValue
  00049	83 c4 08	 add	 esp, 8

; 1780 : }

  0004c	8b e5		 mov	 esp, ebp
  0004e	5d		 pop	 ebp
  0004f	c3		 ret	 0
?playerIsPartyMember@@YAPAU_object@@PAU1@0@Z ENDP	; playerIsPartyMember
_TEXT	ENDS
; Function compile flags: /Ogtp
; File D:\Metin2 Server Files\mainline\SRC_2014\Metin2Client\UserInterface\PythonPlayerModule.cpp
;	COMDAT ?playerOpenCharacterMenu@@YAPAU_object@@PAU1@0@Z
_TEXT	SEGMENT
_iVID$ = -4						; size = 4
_poSelf$ = 8						; size = 4
_poArgs$ = 12						; size = 4
?playerOpenCharacterMenu@@YAPAU_object@@PAU1@0@Z PROC	; playerOpenCharacterMenu, COMDAT

; 1764 : {

  00000	55		 push	 ebp
  00001	8b ec		 mov	 ebp, esp
  00003	51		 push	 ecx

; 1765 : 	int iVID;
; 1766 : 	if (!PyTuple_GetInteger(poArgs, 0, &iVID))

  00004	8d 45 fc	 lea	 eax, DWORD PTR _iVID$[ebp]
  00007	50		 push	 eax
  00008	6a 00		 push	 0
  0000a	ff 75 0c	 push	 DWORD PTR _poArgs$[ebp]
  0000d	e8 00 00 00 00	 call	 ?PyTuple_GetInteger@@YA_NPAU_object@@HPAH@Z ; PyTuple_GetInteger
  00012	83 c4 0c	 add	 esp, 12			; 0000000cH
  00015	84 c0		 test	 al, al
  00017	75 0e		 jne	 SHORT $LN2@playerOpen

; 1767 : 		return Py_BuildException();

  00019	6a 00		 push	 0
  0001b	e8 00 00 00 00	 call	 ?Py_BuildException@@YAPAU_object@@PBDZZ ; Py_BuildException
  00020	83 c4 04	 add	 esp, 4

; 1771 : }

  00023	8b e5		 mov	 esp, ebp
  00025	5d		 pop	 ebp
  00026	c3		 ret	 0
$LN2@playerOpen:

; 1768 : 
; 1769 : 	CPythonPlayer::Instance().OpenCharacterMenu(iVID);

  00027	ff 75 fc	 push	 DWORD PTR _iVID$[ebp]
  0002a	8b 0d 00 00 00
	00		 mov	 ecx, DWORD PTR ?ms_singleton@?$CSingleton@VCPythonPlayer@@@@0PAVCPythonPlayer@@A ; CSingleton<CPythonPlayer>::ms_singleton
  00030	e8 00 00 00 00	 call	 ?OpenCharacterMenu@CPythonPlayer@@QAEXK@Z ; CPythonPlayer::OpenCharacterMenu

; 1770 : 	return Py_BuildNone();

  00035	e8 00 00 00 00	 call	 ?Py_BuildNone@@YAPAU_object@@XZ ; Py_BuildNone

; 1771 : }

  0003a	8b e5		 mov	 esp, ebp
  0003c	5d		 pop	 ebp
  0003d	c3		 ret	 0
?playerOpenCharacterMenu@@YAPAU_object@@PAU1@0@Z ENDP	; playerOpenCharacterMenu
_TEXT	ENDS
; Function compile flags: /Ogtp
; File D:\Metin2 Server Files\mainline\SRC_2014\Metin2Client\UserInterface\PythonPlayerModule.cpp
;	COMDAT ?playerSetTarget@@YAPAU_object@@PAU1@0@Z
_TEXT	SEGMENT
_iVID$ = -4						; size = 4
_poSelf$ = 8						; size = 4
_poArgs$ = 12						; size = 4
?playerSetTarget@@YAPAU_object@@PAU1@0@Z PROC		; playerSetTarget, COMDAT

; 1754 : {

  00000	55		 push	 ebp
  00001	8b ec		 mov	 ebp, esp
  00003	51		 push	 ecx

; 1755 : 	int iVID;
; 1756 : 	if (!PyTuple_GetInteger(poArgs, 0, &iVID))

  00004	8d 45 fc	 lea	 eax, DWORD PTR _iVID$[ebp]
  00007	50		 push	 eax
  00008	6a 00		 push	 0
  0000a	ff 75 0c	 push	 DWORD PTR _poArgs$[ebp]
  0000d	e8 00 00 00 00	 call	 ?PyTuple_GetInteger@@YA_NPAU_object@@HPAH@Z ; PyTuple_GetInteger
  00012	83 c4 0c	 add	 esp, 12			; 0000000cH
  00015	84 c0		 test	 al, al
  00017	75 0e		 jne	 SHORT $LN2@playerSetT

; 1757 : 		return Py_BuildException();

  00019	6a 00		 push	 0
  0001b	e8 00 00 00 00	 call	 ?Py_BuildException@@YAPAU_object@@PBDZZ ; Py_BuildException
  00020	83 c4 04	 add	 esp, 4

; 1761 : }

  00023	8b e5		 mov	 esp, ebp
  00025	5d		 pop	 ebp
  00026	c3		 ret	 0
$LN2@playerSetT:

; 1758 : 
; 1759 : 	CPythonPlayer::Instance().SetTarget(iVID);

  00027	8b 0d 00 00 00
	00		 mov	 ecx, DWORD PTR ?ms_singleton@?$CSingleton@VCPythonPlayer@@@@0PAVCPythonPlayer@@A ; CSingleton<CPythonPlayer>::ms_singleton
  0002d	83 c1 04	 add	 ecx, 4
  00030	6a 01		 push	 1
  00032	ff 75 fc	 push	 DWORD PTR _iVID$[ebp]
  00035	8b 01		 mov	 eax, DWORD PTR [ecx]
  00037	ff 50 60	 call	 DWORD PTR [eax+96]

; 1760 : 	return Py_BuildNone();

  0003a	e8 00 00 00 00	 call	 ?Py_BuildNone@@YAPAU_object@@XZ ; Py_BuildNone

; 1761 : }

  0003f	8b e5		 mov	 esp, ebp
  00041	5d		 pop	 ebp
  00042	c3		 ret	 0
?playerSetTarget@@YAPAU_object@@PAU1@0@Z ENDP		; playerSetTarget
_TEXT	ENDS
; Function compile flags: /Ogtp
; File D:\Metin2 Server Files\mainline\SRC_2014\Metin2Client\UserInterface\PythonPlayerModule.cpp
;	COMDAT ?playerClearTarget@@YAPAU_object@@PAU1@0@Z
_TEXT	SEGMENT
_poSelf$ = 8						; size = 4
_poArgs$ = 12						; size = 4
?playerClearTarget@@YAPAU_object@@PAU1@0@Z PROC		; playerClearTarget, COMDAT

; 1749 : 	CPythonPlayer::Instance().SetTarget(0);

  00000	8b 0d 00 00 00
	00		 mov	 ecx, DWORD PTR ?ms_singleton@?$CSingleton@VCPythonPlayer@@@@0PAVCPythonPlayer@@A ; CSingleton<CPythonPlayer>::ms_singleton
  00006	83 c1 04	 add	 ecx, 4
  00009	6a 01		 push	 1
  0000b	6a 00		 push	 0
  0000d	8b 01		 mov	 eax, DWORD PTR [ecx]
  0000f	ff 50 60	 call	 DWORD PTR [eax+96]

; 1750 : 	return Py_BuildNone();

  00012	e9 00 00 00 00	 jmp	 ?Py_BuildNone@@YAPAU_object@@XZ ; Py_BuildNone
?playerClearTarget@@YAPAU_object@@PAU1@0@Z ENDP		; playerClearTarget
_TEXT	ENDS
; Function compile flags: /Ogtp
; File D:\Metin2 Server Files\mainline\SRC_2014\Metin2Client\UserInterface\PythonPlayerModule.cpp
;	COMDAT ?playerClear@@YAPAU_object@@PAU1@0@Z
_TEXT	SEGMENT
_poSelf$ = 8						; size = 4
_poArgs$ = 12						; size = 4
?playerClear@@YAPAU_object@@PAU1@0@Z PROC		; playerClear, COMDAT

; 1743 : 	CPythonPlayer::Instance().Clear();

  00000	8b 0d 00 00 00
	00		 mov	 ecx, DWORD PTR ?ms_singleton@?$CSingleton@VCPythonPlayer@@@@0PAVCPythonPlayer@@A ; CSingleton<CPythonPlayer>::ms_singleton
  00006	e8 00 00 00 00	 call	 ?Clear@CPythonPlayer@@QAEXXZ ; CPythonPlayer::Clear

; 1744 : 	return Py_BuildNone();

  0000b	e9 00 00 00 00	 jmp	 ?Py_BuildNone@@YAPAU_object@@XZ ; Py_BuildNone
?playerClear@@YAPAU_object@@PAU1@0@Z ENDP		; playerClear
_TEXT	ENDS
; Function compile flags: /Ogtp
; File D:\Metin2 Server Files\mainline\SRC_2014\Metin2Client\UserInterface\PythonPlayerModule.cpp
;	COMDAT ?playerRender@@YAPAU_object@@PAU1@0@Z
_TEXT	SEGMENT
_poSelf$ = 8						; size = 4
_poArgs$ = 12						; size = 4
?playerRender@@YAPAU_object@@PAU1@0@Z PROC		; playerRender, COMDAT

; 1738 : 	return Py_BuildNone();

  00000	e9 00 00 00 00	 jmp	 ?Py_BuildNone@@YAPAU_object@@XZ ; Py_BuildNone
?playerRender@@YAPAU_object@@PAU1@0@Z ENDP		; playerRender
_TEXT	ENDS
; Function compile flags: /Ogtp
; File D:\Metin2 Server Files\mainline\SRC_2014\Metin2Client\UserInterface\PythonPlayerModule.cpp
;	COMDAT ?playerUpdate@@YAPAU_object@@PAU1@0@Z
_TEXT	SEGMENT
_poSelf$ = 8						; size = 4
_poArgs$ = 12						; size = 4
?playerUpdate@@YAPAU_object@@PAU1@0@Z PROC		; playerUpdate, COMDAT

; 1732 : 	CPythonPlayer::Instance().Update();

  00000	8b 0d 00 00 00
	00		 mov	 ecx, DWORD PTR ?ms_singleton@?$CSingleton@VCPythonPlayer@@@@0PAVCPythonPlayer@@A ; CSingleton<CPythonPlayer>::ms_singleton
  00006	e8 00 00 00 00	 call	 ?Update@CPythonPlayer@@QAEXXZ ; CPythonPlayer::Update

; 1733 : 	return Py_BuildNone();

  0000b	e9 00 00 00 00	 jmp	 ?Py_BuildNone@@YAPAU_object@@XZ ; Py_BuildNone
?playerUpdate@@YAPAU_object@@PAU1@0@Z ENDP		; playerUpdate
_TEXT	ENDS
; Function compile flags: /Ogtp
; File D:\Metin2 Server Files\mainline\SRC_2014\Metin2Client\UserInterface\PythonPlayerModule.cpp
; File D:\Metin2 Server Files\mainline\SRC_2014\Metin2Client\UserInterface\GameType.h
; File D:\Metin2 Server Files\mainline\SRC_2014\Metin2Client\UserInterface\PythonPlayerModule.cpp
; File D:\Metin2 Server Files\mainline\SRC_2014\Metin2Client\UserInterface\GameType.h
; File D:\Metin2 Server Files\mainline\SRC_2014\Metin2Client\UserInterface\PythonPlayerModule.cpp
;	COMDAT ?playerIsRefineGradeScroll@@YAPAU_object@@PAU1@0@Z
_TEXT	SEGMENT
_ScrollSlotIndex$ = -4					; size = 3
_poSelf$ = 8						; size = 4
_poArgs$ = 12						; size = 4
?playerIsRefineGradeScroll@@YAPAU_object@@PAU1@0@Z PROC	; playerIsRefineGradeScroll, COMDAT

; 1705 : {

  00000	55		 push	 ebp
  00001	8b ec		 mov	 ebp, esp
  00003	51		 push	 ecx
  00004	56		 push	 esi

; 1707 : 	switch (PyTuple_Size(poArgs))

  00005	8b 75 0c	 mov	 esi, DWORD PTR _poArgs$[ebp]
; File D:\Metin2 Server Files\mainline\SRC_2014\Metin2Client\UserInterface\GameType.h

; 187  : 		cell = WORD_MAX;

  00008	b8 ff ff 00 00	 mov	 eax, 65535		; 0000ffffH
; File D:\Metin2 Server Files\mainline\SRC_2014\Metin2Client\UserInterface\PythonPlayerModule.cpp

; 1707 : 	switch (PyTuple_Size(poArgs))

  0000d	56		 push	 esi
; File D:\Metin2 Server Files\mainline\SRC_2014\Metin2Client\UserInterface\GameType.h

; 186  : 		window_type =     INVENTORY;

  0000e	c6 45 fc 01	 mov	 BYTE PTR _ScrollSlotIndex$[ebp], 1

; 187  : 		cell = WORD_MAX;

  00012	66 89 45 fd	 mov	 WORD PTR _ScrollSlotIndex$[ebp+1], ax
; File D:\Metin2 Server Files\mainline\SRC_2014\Metin2Client\UserInterface\PythonPlayerModule.cpp

; 1707 : 	switch (PyTuple_Size(poArgs))

  00016	ff 15 00 00 00
	00		 call	 DWORD PTR __imp__PyTuple_Size
  0001c	83 c4 04	 add	 esp, 4
  0001f	83 e8 01	 sub	 eax, 1
  00022	74 14		 je	 SHORT $LN4@playerIsRe
  00024	83 e8 01	 sub	 eax, 1
  00027	74 22		 je	 SHORT $LN5@playerIsRe

; 1716 : 			return Py_BuildException();
; 1717 : 	default:
; 1718 : 		return Py_BuildException();
; 1719 : 	}
; 1720 : 
; 1721 : 	int iScrollItemIndex = CPythonPlayer::Instance().GetItemIndex(ScrollSlotIndex);
; 1722 : 	CItemManager::Instance().SelectItemData(iScrollItemIndex);
; 1723 : 	CItemData * pScrollItemData = CItemManager::Instance().GetSelectedItemDataPointer();
; 1724 : 	if (!pScrollItemData)
; 1725 : 		return Py_BuildException("Can't find item data");
; 1726 : 
; 1727 : 	return Py_BuildValue("i", REFINE_SCROLL_TYPE_UP_GRADE == pScrollItemData->GetValue(0));
; 1728 : }

  00029	6a 00		 push	 0
  0002b	e8 00 00 00 00	 call	 ?Py_BuildException@@YAPAU_object@@PBDZZ ; Py_BuildException
  00030	83 c4 04	 add	 esp, 4
  00033	5e		 pop	 esi
  00034	8b e5		 mov	 esp, ebp
  00036	5d		 pop	 ebp
  00037	c3		 ret	 0
$LN4@playerIsRe:

; 1708 : 	{
; 1709 : 	case 1:
; 1710 : 		if (!PyTuple_GetInteger(poArgs, 0, &ScrollSlotIndex.cell))

  00038	8d 45 fd	 lea	 eax, DWORD PTR _ScrollSlotIndex$[ebp+1]
  0003b	50		 push	 eax
  0003c	6a 00		 push	 0
  0003e	56		 push	 esi
  0003f	e8 00 00 00 00	 call	 ?PyTuple_GetInteger@@YA_NPAU_object@@HPAG@Z ; PyTuple_GetInteger
  00044	83 c4 0c	 add	 esp, 12			; 0000000cH
  00047	84 c0		 test	 al, al
  00049	74 22		 je	 SHORT $LN8@playerIsRe
$LN5@playerIsRe:

; 1711 : 			return Py_BuildException();
; 1712 : 	case 2:
; 1713 : 		if (!PyTuple_GetInteger(poArgs, 0, &ScrollSlotIndex.window_type))

  0004b	8d 45 fc	 lea	 eax, DWORD PTR _ScrollSlotIndex$[ebp]
  0004e	50		 push	 eax
  0004f	6a 00		 push	 0
  00051	56		 push	 esi
  00052	e8 00 00 00 00	 call	 ?PyTuple_GetInteger@@YA_NPAU_object@@HPAE@Z ; PyTuple_GetInteger
  00057	83 c4 0c	 add	 esp, 12			; 0000000cH
  0005a	84 c0		 test	 al, al
  0005c	74 0f		 je	 SHORT $LN8@playerIsRe

; 1714 : 			return Py_BuildException();
; 1715 : 		if (!PyTuple_GetInteger(poArgs, 1, &ScrollSlotIndex.cell))

  0005e	8d 45 fd	 lea	 eax, DWORD PTR _ScrollSlotIndex$[ebp+1]
  00061	50		 push	 eax
  00062	6a 01		 push	 1
  00064	56		 push	 esi
  00065	e8 00 00 00 00	 call	 ?PyTuple_GetInteger@@YA_NPAU_object@@HPAG@Z ; PyTuple_GetInteger
  0006a	83 c4 0c	 add	 esp, 12			; 0000000cH
$LN8@playerIsRe:

; 1716 : 			return Py_BuildException();
; 1717 : 	default:
; 1718 : 		return Py_BuildException();
; 1719 : 	}
; 1720 : 
; 1721 : 	int iScrollItemIndex = CPythonPlayer::Instance().GetItemIndex(ScrollSlotIndex);
; 1722 : 	CItemManager::Instance().SelectItemData(iScrollItemIndex);
; 1723 : 	CItemData * pScrollItemData = CItemManager::Instance().GetSelectedItemDataPointer();
; 1724 : 	if (!pScrollItemData)
; 1725 : 		return Py_BuildException("Can't find item data");
; 1726 : 
; 1727 : 	return Py_BuildValue("i", REFINE_SCROLL_TYPE_UP_GRADE == pScrollItemData->GetValue(0));
; 1728 : }

  0006d	6a 00		 push	 0
  0006f	e8 00 00 00 00	 call	 ?Py_BuildException@@YAPAU_object@@PBDZZ ; Py_BuildException
  00074	83 c4 04	 add	 esp, 4
  00077	5e		 pop	 esi
  00078	8b e5		 mov	 esp, ebp
  0007a	5d		 pop	 ebp
  0007b	c3		 ret	 0
?playerIsRefineGradeScroll@@YAPAU_object@@PAU1@0@Z ENDP	; playerIsRefineGradeScroll
_TEXT	ENDS
; Function compile flags: /Ogtp
; File D:\Metin2 Server Files\mainline\SRC_2014\Metin2Client\UserInterface\PythonPlayerModule.cpp
; File D:\Metin2 Server Files\mainline\SRC_2014\Metin2Client\UserInterface\GameType.h
; File D:\Metin2 Server Files\mainline\SRC_2014\Metin2Client\UserInterface\PythonPlayerModule.cpp
; File D:\Metin2 Server Files\mainline\SRC_2014\Metin2Client\UserInterface\GameType.h
; File D:\Metin2 Server Files\mainline\SRC_2014\Metin2Client\UserInterface\PythonPlayerModule.cpp
;	COMDAT ?playerCanUnlock@@YAPAU_object@@PAU1@0@Z
_TEXT	SEGMENT
_iKeyItemIndex$ = -8					; size = 4
_TargetSlotIndex$ = -4					; size = 3
_poSelf$ = 8						; size = 4
_poArgs$ = 12						; size = 4
?playerCanUnlock@@YAPAU_object@@PAU1@0@Z PROC		; playerCanUnlock, COMDAT

; 1659 : {

  00000	55		 push	 ebp
  00001	8b ec		 mov	 ebp, esp
  00003	83 ec 08	 sub	 esp, 8
  00006	56		 push	 esi

; 1662 : 	switch (PyTuple_Size(poArgs))

  00007	8b 75 0c	 mov	 esi, DWORD PTR _poArgs$[ebp]
; File D:\Metin2 Server Files\mainline\SRC_2014\Metin2Client\UserInterface\GameType.h

; 187  : 		cell = WORD_MAX;

  0000a	b8 ff ff 00 00	 mov	 eax, 65535		; 0000ffffH
; File D:\Metin2 Server Files\mainline\SRC_2014\Metin2Client\UserInterface\PythonPlayerModule.cpp

; 1662 : 	switch (PyTuple_Size(poArgs))

  0000f	56		 push	 esi
; File D:\Metin2 Server Files\mainline\SRC_2014\Metin2Client\UserInterface\GameType.h

; 186  : 		window_type =     INVENTORY;

  00010	c6 45 fc 01	 mov	 BYTE PTR _TargetSlotIndex$[ebp], 1

; 187  : 		cell = WORD_MAX;

  00014	66 89 45 fd	 mov	 WORD PTR _TargetSlotIndex$[ebp+1], ax
; File D:\Metin2 Server Files\mainline\SRC_2014\Metin2Client\UserInterface\PythonPlayerModule.cpp

; 1662 : 	switch (PyTuple_Size(poArgs))

  00018	ff 15 00 00 00
	00		 call	 DWORD PTR __imp__PyTuple_Size
  0001e	83 c4 04	 add	 esp, 4
  00021	83 e8 02	 sub	 eax, 2
  00024	74 48		 je	 SHORT $LN4@playerCanU
  00026	83 e8 01	 sub	 eax, 1
  00029	75 39		 jne	 SHORT $LN21@playerCanU

; 1668 : 			return Py_BadArgument();
; 1669 : 		break;
; 1670 : 	case 3:
; 1671 : 		if (!PyTuple_GetInteger(poArgs, 0, &iKeyItemIndex))

  0002b	8d 45 f8	 lea	 eax, DWORD PTR _iKeyItemIndex$[ebp]
  0002e	50		 push	 eax
  0002f	6a 00		 push	 0
  00031	56		 push	 esi
  00032	e8 00 00 00 00	 call	 ?PyTuple_GetInteger@@YA_NPAU_object@@HPAH@Z ; PyTuple_GetInteger
  00037	83 c4 0c	 add	 esp, 12			; 0000000cH
  0003a	84 c0		 test	 al, al
  0003c	74 26		 je	 SHORT $LN21@playerCanU

; 1672 : 			return Py_BadArgument();
; 1673 : 		if (!PyTuple_GetInteger(poArgs, 1, &TargetSlotIndex.window_type))

  0003e	8d 45 fc	 lea	 eax, DWORD PTR _TargetSlotIndex$[ebp]
  00041	50		 push	 eax
  00042	6a 01		 push	 1
  00044	56		 push	 esi
  00045	e8 00 00 00 00	 call	 ?PyTuple_GetInteger@@YA_NPAU_object@@HPAE@Z ; PyTuple_GetInteger
  0004a	83 c4 0c	 add	 esp, 12			; 0000000cH
  0004d	84 c0		 test	 al, al
  0004f	74 13		 je	 SHORT $LN21@playerCanU

; 1674 : 			return Py_BadArgument();
; 1675 : 		if (!PyTuple_GetInteger(poArgs, 2, &TargetSlotIndex.cell))

  00051	8d 45 fd	 lea	 eax, DWORD PTR _TargetSlotIndex$[ebp+1]
  00054	50		 push	 eax
  00055	6a 02		 push	 2
  00057	56		 push	 esi
  00058	e8 00 00 00 00	 call	 ?PyTuple_GetInteger@@YA_NPAU_object@@HPAG@Z ; PyTuple_GetInteger
  0005d	83 c4 0c	 add	 esp, 12			; 0000000cH
  00060	84 c0		 test	 al, al
  00062	75 30		 jne	 SHORT $LN6@playerCanU
$LN21@playerCanU:

; 1702 : }

  00064	e8 00 00 00 00	 call	 ?Py_BadArgument@@YAPAU_object@@XZ ; Py_BadArgument
  00069	5e		 pop	 esi
  0006a	8b e5		 mov	 esp, ebp
  0006c	5d		 pop	 ebp
  0006d	c3		 ret	 0
$LN4@playerCanU:

; 1663 : 	{
; 1664 : 	case 2:
; 1665 : 		if (!PyTuple_GetInteger(poArgs, 0, &iKeyItemIndex))

  0006e	8d 45 f8	 lea	 eax, DWORD PTR _iKeyItemIndex$[ebp]
  00071	50		 push	 eax
  00072	6a 00		 push	 0
  00074	56		 push	 esi
  00075	e8 00 00 00 00	 call	 ?PyTuple_GetInteger@@YA_NPAU_object@@HPAH@Z ; PyTuple_GetInteger
  0007a	83 c4 0c	 add	 esp, 12			; 0000000cH
  0007d	84 c0		 test	 al, al
  0007f	74 e3		 je	 SHORT $LN21@playerCanU

; 1666 : 			return Py_BadArgument();
; 1667 : 		if (!PyTuple_GetInteger(poArgs, 1, &TargetSlotIndex.cell))

  00081	8d 45 fd	 lea	 eax, DWORD PTR _TargetSlotIndex$[ebp+1]
  00084	50		 push	 eax
  00085	6a 01		 push	 1
  00087	56		 push	 esi
  00088	e8 00 00 00 00	 call	 ?PyTuple_GetInteger@@YA_NPAU_object@@HPAG@Z ; PyTuple_GetInteger
  0008d	83 c4 0c	 add	 esp, 12			; 0000000cH
  00090	84 c0		 test	 al, al
  00092	74 d0		 je	 SHORT $LN21@playerCanU
$LN6@playerCanU:

; 1676 : 			return Py_BadArgument();
; 1677 : 		break;
; 1678 : 	default:
; 1679 : 		return Py_BadArgument();
; 1680 : 	}
; 1681 : 
; 1682 : 	// Key
; 1683 : 	CItemManager::Instance().SelectItemData(iKeyItemIndex);

  00094	ff 75 f8	 push	 DWORD PTR _iKeyItemIndex$[ebp]
  00097	8b 0d 00 00 00
	00		 mov	 ecx, DWORD PTR ?ms_singleton@?$CSingleton@VCItemManager@@@@0PAVCItemManager@@A ; CSingleton<CItemManager>::ms_singleton
  0009d	e8 00 00 00 00	 call	 ?SelectItemData@CItemManager@@QAEHK@Z ; CItemManager::SelectItemData

; 1684 : 	CItemData * pKeyItemData = CItemManager::Instance().GetSelectedItemDataPointer();

  000a2	8b 0d 00 00 00
	00		 mov	 ecx, DWORD PTR ?ms_singleton@?$CSingleton@VCItemManager@@@@0PAVCItemManager@@A ; CSingleton<CItemManager>::ms_singleton
  000a8	e8 00 00 00 00	 call	 ?GetSelectedItemDataPointer@CItemManager@@QAEPAVCItemData@@XZ ; CItemManager::GetSelectedItemDataPointer

; 1685 : 	if (!pKeyItemData)

  000ad	85 c0		 test	 eax, eax
  000af	75 12		 jne	 SHORT $LN12@playerCanU
$LN22@playerCanU:

; 1702 : }

  000b1	68 00 00 00 00	 push	 OFFSET ??_C@_0BF@BGKCJNBK@Can?8t?5find?5item?5data@
  000b6	e8 00 00 00 00	 call	 ?Py_BuildException@@YAPAU_object@@PBDZZ ; Py_BuildException
  000bb	83 c4 04	 add	 esp, 4
  000be	5e		 pop	 esi
  000bf	8b e5		 mov	 esp, ebp
  000c1	5d		 pop	 ebp
  000c2	c3		 ret	 0
$LN12@playerCanU:

; 1686 : 		return Py_BuildException("Can't find item data");
; 1687 : 	int iKeyType = pKeyItemData->GetType();

  000c3	8b c8		 mov	 ecx, eax
  000c5	e8 00 00 00 00	 call	 ?GetType@CItemData@@QBEEXZ ; CItemData::GetType

; 1688 : 	if (iKeyType != CItemData::ITEM_TYPE_TREASURE_KEY)

  000ca	3c 15		 cmp	 al, 21			; 00000015H
  000cc	74 15		 je	 SHORT $LN13@playerCanU
$LN20@playerCanU:

; 1702 : }

  000ce	6a 00		 push	 0
  000d0	68 00 00 00 00	 push	 OFFSET ??_C@_01KBJDNOO@i@
  000d5	ff 15 00 00 00
	00		 call	 DWORD PTR __imp__Py_BuildValue
  000db	83 c4 08	 add	 esp, 8
  000de	5e		 pop	 esi
  000df	8b e5		 mov	 esp, ebp
  000e1	5d		 pop	 ebp
  000e2	c3		 ret	 0
$LN13@playerCanU:

; 1689 : 		return Py_BuildValue("i", FALSE);
; 1690 : 
; 1691 : 	// Target Item
; 1692 : 	int iTargetItemIndex = CPythonPlayer::Instance().GetItemIndex(TargetSlotIndex);

  000e3	8b 0d 00 00 00
	00		 mov	 ecx, DWORD PTR ?ms_singleton@?$CSingleton@VCPythonPlayer@@@@0PAVCPythonPlayer@@A ; CSingleton<CPythonPlayer>::ms_singleton
  000e9	66 8b 45 fc	 mov	 ax, WORD PTR _TargetSlotIndex$[ebp]
  000ed	83 c1 04	 add	 ecx, 4
  000f0	51		 push	 ecx
  000f1	8b d4		 mov	 edx, esp
  000f3	8b 31		 mov	 esi, DWORD PTR [ecx]
  000f5	66 89 02	 mov	 WORD PTR [edx], ax
  000f8	8a 45 fe	 mov	 al, BYTE PTR _TargetSlotIndex$[ebp+2]
  000fb	88 42 02	 mov	 BYTE PTR [edx+2], al
  000fe	ff 56 40	 call	 DWORD PTR [esi+64]

; 1693 : 	CItemManager::Instance().SelectItemData(iTargetItemIndex);

  00101	8b 0d 00 00 00
	00		 mov	 ecx, DWORD PTR ?ms_singleton@?$CSingleton@VCItemManager@@@@0PAVCItemManager@@A ; CSingleton<CItemManager>::ms_singleton
  00107	50		 push	 eax
  00108	e8 00 00 00 00	 call	 ?SelectItemData@CItemManager@@QAEHK@Z ; CItemManager::SelectItemData

; 1694 : 	CItemData * pTargetItemData = CItemManager::Instance().GetSelectedItemDataPointer();

  0010d	8b 0d 00 00 00
	00		 mov	 ecx, DWORD PTR ?ms_singleton@?$CSingleton@VCItemManager@@@@0PAVCItemManager@@A ; CSingleton<CItemManager>::ms_singleton
  00113	e8 00 00 00 00	 call	 ?GetSelectedItemDataPointer@CItemManager@@QAEPAVCItemData@@XZ ; CItemManager::GetSelectedItemDataPointer

; 1695 : 	if (!pTargetItemData)

  00118	85 c0		 test	 eax, eax
  0011a	74 95		 je	 SHORT $LN22@playerCanU

; 1696 : 		return Py_BuildException("Can't find item data");
; 1697 : 	int iTargetType = pTargetItemData->GetType();

  0011c	8b c8		 mov	 ecx, eax
  0011e	e8 00 00 00 00	 call	 ?GetType@CItemData@@QBEEXZ ; CItemData::GetType

; 1698 : 	if (iTargetType != CItemData::ITEM_TYPE_TREASURE_BOX)

  00123	3c 14		 cmp	 al, 20			; 00000014H
  00125	75 a7		 jne	 SHORT $LN20@playerCanU

; 1699 : 		return Py_BuildValue("i", FALSE);
; 1700 : 
; 1701 : 	return Py_BuildValue("i", TRUE);

  00127	6a 01		 push	 1

; 1702 : }

  00129	68 00 00 00 00	 push	 OFFSET ??_C@_01KBJDNOO@i@
  0012e	ff 15 00 00 00
	00		 call	 DWORD PTR __imp__Py_BuildValue
  00134	83 c4 08	 add	 esp, 8
  00137	5e		 pop	 esi
  00138	8b e5		 mov	 esp, ebp
  0013a	5d		 pop	 ebp
  0013b	c3		 ret	 0
?playerCanUnlock@@YAPAU_object@@PAU1@0@Z ENDP		; playerCanUnlock
_TEXT	ENDS
; Function compile flags: /Ogtp
; File D:\Metin2 Server Files\mainline\SRC_2014\Metin2Client\UserInterface\PythonPlayerModule.cpp
; File D:\Metin2 Server Files\mainline\SRC_2014\Metin2Client\UserInterface\GameType.h
; File D:\Metin2 Server Files\mainline\SRC_2014\Metin2Client\UserInterface\PythonPlayerModule.cpp
; File D:\Metin2 Server Files\mainline\SRC_2014\Metin2Client\UserInterface\GameType.h
; File D:\Metin2 Server Files\mainline\SRC_2014\Metin2Client\UserInterface\PythonPlayerModule.cpp
;	COMDAT ?playerCanDetach@@YAPAU_object@@PAU1@0@Z
_TEXT	SEGMENT
_iScrollItemIndex$ = -8					; size = 4
_TargetSlotIndex$ = -4					; size = 3
_poSelf$ = 8						; size = 4
_poArgs$ = 12						; size = 4
?playerCanDetach@@YAPAU_object@@PAU1@0@Z PROC		; playerCanDetach, COMDAT

; 1602 : {

  00000	55		 push	 ebp
  00001	8b ec		 mov	 ebp, esp
  00003	83 ec 08	 sub	 esp, 8
  00006	56		 push	 esi

; 1605 : 	switch (PyTuple_Size (poArgs))

  00007	8b 75 0c	 mov	 esi, DWORD PTR _poArgs$[ebp]
; File D:\Metin2 Server Files\mainline\SRC_2014\Metin2Client\UserInterface\GameType.h

; 187  : 		cell = WORD_MAX;

  0000a	b8 ff ff 00 00	 mov	 eax, 65535		; 0000ffffH
; File D:\Metin2 Server Files\mainline\SRC_2014\Metin2Client\UserInterface\PythonPlayerModule.cpp

; 1602 : {

  0000f	57		 push	 edi

; 1605 : 	switch (PyTuple_Size (poArgs))

  00010	56		 push	 esi
; File D:\Metin2 Server Files\mainline\SRC_2014\Metin2Client\UserInterface\GameType.h

; 186  : 		window_type =     INVENTORY;

  00011	c6 45 fc 01	 mov	 BYTE PTR _TargetSlotIndex$[ebp], 1

; 187  : 		cell = WORD_MAX;

  00015	66 89 45 fd	 mov	 WORD PTR _TargetSlotIndex$[ebp+1], ax
; File D:\Metin2 Server Files\mainline\SRC_2014\Metin2Client\UserInterface\PythonPlayerModule.cpp

; 1605 : 	switch (PyTuple_Size (poArgs))

  00019	ff 15 00 00 00
	00		 call	 DWORD PTR __imp__PyTuple_Size
  0001f	83 c4 04	 add	 esp, 4
  00022	83 e8 02	 sub	 eax, 2
  00025	74 49		 je	 SHORT $LN7@playerCanD
  00027	83 e8 01	 sub	 eax, 1
  0002a	75 39		 jne	 SHORT $LN30@playerCanD

; 1611 : 			return Py_BadArgument();
; 1612 : 		break;
; 1613 : 	case 3:
; 1614 : 		if (!PyTuple_GetInteger(poArgs, 0, &iScrollItemIndex))

  0002c	8d 45 f8	 lea	 eax, DWORD PTR _iScrollItemIndex$[ebp]
  0002f	50		 push	 eax
  00030	6a 00		 push	 0
  00032	56		 push	 esi
  00033	e8 00 00 00 00	 call	 ?PyTuple_GetInteger@@YA_NPAU_object@@HPAH@Z ; PyTuple_GetInteger
  00038	83 c4 0c	 add	 esp, 12			; 0000000cH
  0003b	84 c0		 test	 al, al
  0003d	74 26		 je	 SHORT $LN30@playerCanD

; 1615 : 			return Py_BadArgument();
; 1616 : 		if (!PyTuple_GetInteger(poArgs, 1, &TargetSlotIndex.window_type))

  0003f	8d 45 fc	 lea	 eax, DWORD PTR _TargetSlotIndex$[ebp]
  00042	50		 push	 eax
  00043	6a 01		 push	 1
  00045	56		 push	 esi
  00046	e8 00 00 00 00	 call	 ?PyTuple_GetInteger@@YA_NPAU_object@@HPAE@Z ; PyTuple_GetInteger
  0004b	83 c4 0c	 add	 esp, 12			; 0000000cH
  0004e	84 c0		 test	 al, al
  00050	74 13		 je	 SHORT $LN30@playerCanD

; 1617 : 			return Py_BadArgument();
; 1618 : 		if (!PyTuple_GetInteger(poArgs, 2, &TargetSlotIndex.cell))

  00052	8d 45 fd	 lea	 eax, DWORD PTR _TargetSlotIndex$[ebp+1]
  00055	50		 push	 eax
  00056	6a 02		 push	 2
  00058	56		 push	 esi
  00059	e8 00 00 00 00	 call	 ?PyTuple_GetInteger@@YA_NPAU_object@@HPAG@Z ; PyTuple_GetInteger
  0005e	83 c4 0c	 add	 esp, 12			; 0000000cH
  00061	84 c0		 test	 al, al
  00063	75 31		 jne	 SHORT $LN9@playerCanD
$LN30@playerCanD:

; 1652 : 			}
; 1653 : 	}
; 1654 : 
; 1655 : 	return Py_BuildValue("i", DETACH_METIN_CANT);
; 1656 : }

  00065	e8 00 00 00 00	 call	 ?Py_BadArgument@@YAPAU_object@@XZ ; Py_BadArgument
  0006a	5f		 pop	 edi
  0006b	5e		 pop	 esi
  0006c	8b e5		 mov	 esp, ebp
  0006e	5d		 pop	 ebp
  0006f	c3		 ret	 0
$LN7@playerCanD:

; 1606 : 	{
; 1607 : 	case 2:
; 1608 : 		if (!PyTuple_GetInteger(poArgs, 0, &iScrollItemIndex))

  00070	8d 45 f8	 lea	 eax, DWORD PTR _iScrollItemIndex$[ebp]
  00073	50		 push	 eax
  00074	6a 00		 push	 0
  00076	56		 push	 esi
  00077	e8 00 00 00 00	 call	 ?PyTuple_GetInteger@@YA_NPAU_object@@HPAH@Z ; PyTuple_GetInteger
  0007c	83 c4 0c	 add	 esp, 12			; 0000000cH
  0007f	84 c0		 test	 al, al
  00081	74 e2		 je	 SHORT $LN30@playerCanD

; 1609 : 			return Py_BadArgument();
; 1610 : 		if (!PyTuple_GetInteger(poArgs, 1, &TargetSlotIndex.cell))

  00083	8d 45 fd	 lea	 eax, DWORD PTR _TargetSlotIndex$[ebp+1]
  00086	50		 push	 eax
  00087	6a 01		 push	 1
  00089	56		 push	 esi
  0008a	e8 00 00 00 00	 call	 ?PyTuple_GetInteger@@YA_NPAU_object@@HPAG@Z ; PyTuple_GetInteger
  0008f	83 c4 0c	 add	 esp, 12			; 0000000cH
  00092	84 c0		 test	 al, al
  00094	74 cf		 je	 SHORT $LN30@playerCanD
$LN9@playerCanD:

; 1619 : 			return Py_BadArgument();
; 1620 : 		break;
; 1621 : 	default:
; 1622 : 		return Py_BadArgument();
; 1623 : 	}
; 1624 : 
; 1625 : 	// Scroll
; 1626 : 	CItemManager::Instance().SelectItemData(iScrollItemIndex);

  00096	ff 75 f8	 push	 DWORD PTR _iScrollItemIndex$[ebp]
  00099	8b 0d 00 00 00
	00		 mov	 ecx, DWORD PTR ?ms_singleton@?$CSingleton@VCItemManager@@@@0PAVCItemManager@@A ; CSingleton<CItemManager>::ms_singleton
  0009f	e8 00 00 00 00	 call	 ?SelectItemData@CItemManager@@QAEHK@Z ; CItemManager::SelectItemData

; 1627 : 	CItemData * pScrollItemData = CItemManager::Instance().GetSelectedItemDataPointer();

  000a4	8b 0d 00 00 00
	00		 mov	 ecx, DWORD PTR ?ms_singleton@?$CSingleton@VCItemManager@@@@0PAVCItemManager@@A ; CSingleton<CItemManager>::ms_singleton
  000aa	e8 00 00 00 00	 call	 ?GetSelectedItemDataPointer@CItemManager@@QAEPAVCItemData@@XZ ; CItemManager::GetSelectedItemDataPointer
  000af	8b f8		 mov	 edi, eax

; 1628 : 	if (!pScrollItemData)

  000b1	85 ff		 test	 edi, edi
  000b3	75 13		 jne	 SHORT $LN15@playerCanD
$LN31@playerCanD:

; 1652 : 			}
; 1653 : 	}
; 1654 : 
; 1655 : 	return Py_BuildValue("i", DETACH_METIN_CANT);
; 1656 : }

  000b5	68 00 00 00 00	 push	 OFFSET ??_C@_0BF@BGKCJNBK@Can?8t?5find?5item?5data@
  000ba	e8 00 00 00 00	 call	 ?Py_BuildException@@YAPAU_object@@PBDZZ ; Py_BuildException
  000bf	83 c4 04	 add	 esp, 4
  000c2	5f		 pop	 edi
  000c3	5e		 pop	 esi
  000c4	8b e5		 mov	 esp, ebp
  000c6	5d		 pop	 ebp
  000c7	c3		 ret	 0
$LN15@playerCanD:

; 1629 : 		return Py_BuildException("Can't find item data");
; 1630 : 	int iScrollType = pScrollItemData->GetType();

  000c8	8b cf		 mov	 ecx, edi
  000ca	e8 00 00 00 00	 call	 ?GetType@CItemData@@QBEEXZ ; CItemData::GetType

; 1631 : 	int iScrollSubType = pScrollItemData->GetSubType();

  000cf	8b cf		 mov	 ecx, edi
  000d1	0f b6 f0	 movzx	 esi, al
  000d4	e8 00 00 00 00	 call	 ?GetSubType@CItemData@@QBEEXZ ; CItemData::GetSubType
  000d9	0f b6 c0	 movzx	 eax, al

; 1632 : 	if (iScrollType != CItemData::ITEM_TYPE_USE)

  000dc	83 fe 03	 cmp	 esi, 3
  000df	75 76		 jne	 SHORT $LN5@playerCanD

; 1633 : 		return Py_BuildValue("i", DETACH_METIN_CANT);
; 1634 : 	if (iScrollSubType != CItemData::USE_DETACHMENT)

  000e1	83 f8 0e	 cmp	 eax, 14			; 0000000eH
  000e4	75 71		 jne	 SHORT $LN5@playerCanD

; 1635 : 		return Py_BuildValue("i", DETACH_METIN_CANT);
; 1636 : 
; 1637 : 	// Target Item
; 1638 : 	int iTargetItemIndex = CPythonPlayer::Instance().GetItemIndex(TargetSlotIndex);

  000e6	8b 0d 00 00 00
	00		 mov	 ecx, DWORD PTR ?ms_singleton@?$CSingleton@VCPythonPlayer@@@@0PAVCPythonPlayer@@A ; CSingleton<CPythonPlayer>::ms_singleton
  000ec	66 8b 45 fc	 mov	 ax, WORD PTR _TargetSlotIndex$[ebp]
  000f0	83 c1 04	 add	 ecx, 4
  000f3	51		 push	 ecx
  000f4	8b d4		 mov	 edx, esp
  000f6	8b 31		 mov	 esi, DWORD PTR [ecx]
  000f8	66 89 02	 mov	 WORD PTR [edx], ax
  000fb	8a 45 fe	 mov	 al, BYTE PTR _TargetSlotIndex$[ebp+2]
  000fe	88 42 02	 mov	 BYTE PTR [edx+2], al
  00101	ff 56 40	 call	 DWORD PTR [esi+64]

; 1639 : 	CItemManager::Instance().SelectItemData(iTargetItemIndex);

  00104	8b 0d 00 00 00
	00		 mov	 ecx, DWORD PTR ?ms_singleton@?$CSingleton@VCItemManager@@@@0PAVCItemManager@@A ; CSingleton<CItemManager>::ms_singleton
  0010a	50		 push	 eax
  0010b	e8 00 00 00 00	 call	 ?SelectItemData@CItemManager@@QAEHK@Z ; CItemManager::SelectItemData

; 1640 : 	CItemData * pTargetItemData = CItemManager::Instance().GetSelectedItemDataPointer();

  00110	8b 0d 00 00 00
	00		 mov	 ecx, DWORD PTR ?ms_singleton@?$CSingleton@VCItemManager@@@@0PAVCItemManager@@A ; CSingleton<CItemManager>::ms_singleton
  00116	e8 00 00 00 00	 call	 ?GetSelectedItemDataPointer@CItemManager@@QAEPAVCItemData@@XZ ; CItemManager::GetSelectedItemDataPointer

; 1641 : 	if (!pTargetItemData)

  0011b	85 c0		 test	 eax, eax
  0011d	74 96		 je	 SHORT $LN31@playerCanD

; 1642 : 		return Py_BuildException("Can't find item data");
; 1643 : 	//int iTargetType = pTargetItemData->GetType();
; 1644 : 	//int iTargetSubType = pTargetItemData->GetSubType();
; 1645 : 
; 1646 : 	if (pTargetItemData->IsFlag(CItemData::ITEM_FLAG_REFINEABLE))

  0011f	6a 01		 push	 1
  00121	8b c8		 mov	 ecx, eax
  00123	e8 00 00 00 00	 call	 ?IsFlag@CItemData@@QBEHK@Z ; CItemData::IsFlag
  00128	85 c0		 test	 eax, eax
  0012a	74 2b		 je	 SHORT $LN5@playerCanD

; 1647 : 	{
; 1648 : 		for (int iSlotCount = 0; iSlotCount < METIN_SOCKET_COUNT; ++iSlotCount)

  0012c	33 f6		 xor	 esi, esi
  0012e	66 90		 npad	 2
$LL6@playerCanD:

; 1649 : 			if (CPythonPlayer::Instance().GetItemMetinSocket(TargetSlotIndex, iSlotCount) > 2)

  00130	66 8b 45 fc	 mov	 ax, WORD PTR _TargetSlotIndex$[ebp]
  00134	56		 push	 esi
  00135	51		 push	 ecx
  00136	8b cc		 mov	 ecx, esp
  00138	66 89 01	 mov	 WORD PTR [ecx], ax
  0013b	8a 45 fe	 mov	 al, BYTE PTR _TargetSlotIndex$[ebp+2]
  0013e	88 41 02	 mov	 BYTE PTR [ecx+2], al
  00141	8b 0d 00 00 00
	00		 mov	 ecx, DWORD PTR ?ms_singleton@?$CSingleton@VCPythonPlayer@@@@0PAVCPythonPlayer@@A ; CSingleton<CPythonPlayer>::ms_singleton
  00147	e8 00 00 00 00	 call	 ?GetItemMetinSocket@CPythonPlayer@@QAEKUSItemPos@@K@Z ; CPythonPlayer::GetItemMetinSocket
  0014c	83 f8 02	 cmp	 eax, 2
  0014f	77 1c		 ja	 SHORT $LN25@playerCanD

; 1647 : 	{
; 1648 : 		for (int iSlotCount = 0; iSlotCount < METIN_SOCKET_COUNT; ++iSlotCount)

  00151	46		 inc	 esi
  00152	83 fe 06	 cmp	 esi, 6
  00155	7c d9		 jl	 SHORT $LL6@playerCanD
$LN5@playerCanD:

; 1652 : 			}
; 1653 : 	}
; 1654 : 
; 1655 : 	return Py_BuildValue("i", DETACH_METIN_CANT);
; 1656 : }

  00157	6a 00		 push	 0
  00159	68 00 00 00 00	 push	 OFFSET ??_C@_01KBJDNOO@i@
  0015e	ff 15 00 00 00
	00		 call	 DWORD PTR __imp__Py_BuildValue
  00164	83 c4 08	 add	 esp, 8
  00167	5f		 pop	 edi
  00168	5e		 pop	 esi
  00169	8b e5		 mov	 esp, ebp
  0016b	5d		 pop	 ebp
  0016c	c3		 ret	 0
$LN25@playerCanD:

; 1650 : 			{
; 1651 : 				return Py_BuildValue("i", DETACH_METIN_OK);

  0016d	6a 01		 push	 1

; 1652 : 			}
; 1653 : 	}
; 1654 : 
; 1655 : 	return Py_BuildValue("i", DETACH_METIN_CANT);
; 1656 : }

  0016f	68 00 00 00 00	 push	 OFFSET ??_C@_01KBJDNOO@i@
  00174	ff 15 00 00 00
	00		 call	 DWORD PTR __imp__Py_BuildValue
  0017a	83 c4 08	 add	 esp, 8
  0017d	5f		 pop	 edi
  0017e	5e		 pop	 esi
  0017f	8b e5		 mov	 esp, ebp
  00181	5d		 pop	 ebp
  00182	c3		 ret	 0
?playerCanDetach@@YAPAU_object@@PAU1@0@Z ENDP		; playerCanDetach
_TEXT	ENDS
; Function compile flags: /Ogtp
; File D:\Metin2 Server Files\mainline\SRC_2014\Metin2Client\UserInterface\PythonPlayerModule.cpp
; File D:\Metin2 Server Files\mainline\SRC_2014\Metin2Client\UserInterface\GameType.h
; File D:\Metin2 Server Files\mainline\SRC_2014\Metin2Client\UserInterface\PythonPlayerModule.cpp
; File D:\Metin2 Server Files\mainline\SRC_2014\Metin2Client\UserInterface\GameType.h
; File D:\Metin2 Server Files\mainline\SRC_2014\Metin2Client\UserInterface\PythonPlayerModule.cpp
;	COMDAT ?playerCanAttachMetin@@YAPAU_object@@PAU1@0@Z
_TEXT	SEGMENT
_pMetinItemData$ = -16					; size = 4
_pTargetItemData$ = -12					; size = 4
_iMetinItemID$ = -8					; size = 4
_TargetSlotIndex$ = -4					; size = 3
_poSelf$ = 8						; size = 4
_poArgs$ = 12						; size = 4
?playerCanAttachMetin@@YAPAU_object@@PAU1@0@Z PROC	; playerCanAttachMetin, COMDAT

; 1516 : {

  00000	55		 push	 ebp
  00001	8b ec		 mov	 ebp, esp
  00003	83 ec 10	 sub	 esp, 16			; 00000010H
  00006	53		 push	 ebx
  00007	56		 push	 esi

; 1520 : 	switch (PyTuple_Size(poArgs))

  00008	8b 75 0c	 mov	 esi, DWORD PTR _poArgs$[ebp]
; File D:\Metin2 Server Files\mainline\SRC_2014\Metin2Client\UserInterface\GameType.h

; 187  : 		cell = WORD_MAX;

  0000b	b8 ff ff 00 00	 mov	 eax, 65535		; 0000ffffH
; File D:\Metin2 Server Files\mainline\SRC_2014\Metin2Client\UserInterface\PythonPlayerModule.cpp

; 1516 : {

  00010	57		 push	 edi

; 1520 : 	switch (PyTuple_Size(poArgs))

  00011	56		 push	 esi
; File D:\Metin2 Server Files\mainline\SRC_2014\Metin2Client\UserInterface\GameType.h

; 186  : 		window_type =     INVENTORY;

  00012	c6 45 fc 01	 mov	 BYTE PTR _TargetSlotIndex$[ebp], 1

; 187  : 		cell = WORD_MAX;

  00016	66 89 45 fd	 mov	 WORD PTR _TargetSlotIndex$[ebp+1], ax
; File D:\Metin2 Server Files\mainline\SRC_2014\Metin2Client\UserInterface\PythonPlayerModule.cpp

; 1520 : 	switch (PyTuple_Size(poArgs))

  0001a	ff 15 00 00 00
	00		 call	 DWORD PTR __imp__PyTuple_Size
  00020	83 c4 04	 add	 esp, 4
  00023	83 e8 02	 sub	 eax, 2
  00026	74 4f		 je	 SHORT $LN7@playerCanA
  00028	83 e8 01	 sub	 eax, 1
  0002b	75 39		 jne	 SHORT $LN40@playerCanA

; 1526 : 			return Py_BuildException();
; 1527 : 		break;
; 1528 : 	case 3:
; 1529 : 		if (!PyTuple_GetInteger(poArgs, 0, &iMetinItemID))

  0002d	8d 45 f8	 lea	 eax, DWORD PTR _iMetinItemID$[ebp]
  00030	50		 push	 eax
  00031	6a 00		 push	 0
  00033	56		 push	 esi
  00034	e8 00 00 00 00	 call	 ?PyTuple_GetInteger@@YA_NPAU_object@@HPAH@Z ; PyTuple_GetInteger
  00039	83 c4 0c	 add	 esp, 12			; 0000000cH
  0003c	84 c0		 test	 al, al
  0003e	74 26		 je	 SHORT $LN40@playerCanA

; 1530 : 			return Py_BuildException();
; 1531 : 		if (!PyTuple_GetInteger(poArgs, 1, &TargetSlotIndex.window_type))

  00040	8d 45 fc	 lea	 eax, DWORD PTR _TargetSlotIndex$[ebp]
  00043	50		 push	 eax
  00044	6a 01		 push	 1
  00046	56		 push	 esi
  00047	e8 00 00 00 00	 call	 ?PyTuple_GetInteger@@YA_NPAU_object@@HPAE@Z ; PyTuple_GetInteger
  0004c	83 c4 0c	 add	 esp, 12			; 0000000cH
  0004f	84 c0		 test	 al, al
  00051	74 13		 je	 SHORT $LN40@playerCanA

; 1532 : 			return Py_BuildException();
; 1533 : 		if (!PyTuple_GetInteger(poArgs, 2, &TargetSlotIndex.cell))

  00053	8d 45 fd	 lea	 eax, DWORD PTR _TargetSlotIndex$[ebp+1]
  00056	50		 push	 eax
  00057	6a 02		 push	 2
  00059	56		 push	 esi
  0005a	e8 00 00 00 00	 call	 ?PyTuple_GetInteger@@YA_NPAU_object@@HPAG@Z ; PyTuple_GetInteger
  0005f	83 c4 0c	 add	 esp, 12			; 0000000cH
  00062	84 c0		 test	 al, al
  00064	75 37		 jne	 SHORT $LN9@playerCanA
$LN40@playerCanA:

; 1593 : }

  00066	6a 00		 push	 0
  00068	e8 00 00 00 00	 call	 ?Py_BuildException@@YAPAU_object@@PBDZZ ; Py_BuildException
  0006d	83 c4 04	 add	 esp, 4
  00070	5f		 pop	 edi
  00071	5e		 pop	 esi
  00072	5b		 pop	 ebx
  00073	8b e5		 mov	 esp, ebp
  00075	5d		 pop	 ebp
  00076	c3		 ret	 0
$LN7@playerCanA:

; 1521 : 	{
; 1522 : 	case 2:
; 1523 : 		if (!PyTuple_GetInteger(poArgs, 0, &iMetinItemID))

  00077	8d 45 f8	 lea	 eax, DWORD PTR _iMetinItemID$[ebp]
  0007a	50		 push	 eax
  0007b	6a 00		 push	 0
  0007d	56		 push	 esi
  0007e	e8 00 00 00 00	 call	 ?PyTuple_GetInteger@@YA_NPAU_object@@HPAH@Z ; PyTuple_GetInteger
  00083	83 c4 0c	 add	 esp, 12			; 0000000cH
  00086	84 c0		 test	 al, al
  00088	74 dc		 je	 SHORT $LN40@playerCanA

; 1524 : 			return Py_BuildException();
; 1525 : 		if (!PyTuple_GetInteger(poArgs, 1, &TargetSlotIndex.cell))

  0008a	8d 45 fd	 lea	 eax, DWORD PTR _TargetSlotIndex$[ebp+1]
  0008d	50		 push	 eax
  0008e	6a 01		 push	 1
  00090	56		 push	 esi
  00091	e8 00 00 00 00	 call	 ?PyTuple_GetInteger@@YA_NPAU_object@@HPAG@Z ; PyTuple_GetInteger
  00096	83 c4 0c	 add	 esp, 12			; 0000000cH
  00099	84 c0		 test	 al, al
  0009b	74 c9		 je	 SHORT $LN40@playerCanA
$LN9@playerCanA:

; 1534 : 			return Py_BuildException();
; 1535 : 		break;
; 1536 : 	default:
; 1537 : 		return Py_BuildException();
; 1538 : 	}
; 1539 : 	if (CPythonPlayer::Instance().IsEquipmentSlot(TargetSlotIndex))

  0009d	66 8b 45 fc	 mov	 ax, WORD PTR _TargetSlotIndex$[ebp]
  000a1	51		 push	 ecx
  000a2	8b cc		 mov	 ecx, esp
  000a4	66 89 01	 mov	 WORD PTR [ecx], ax
  000a7	8a 45 fe	 mov	 al, BYTE PTR _TargetSlotIndex$[ebp+2]
  000aa	88 41 02	 mov	 BYTE PTR [ecx+2], al
  000ad	8b 0d 00 00 00
	00		 mov	 ecx, DWORD PTR ?ms_singleton@?$CSingleton@VCPythonPlayer@@@@0PAVCPythonPlayer@@A ; CSingleton<CPythonPlayer>::ms_singleton
  000b3	e8 00 00 00 00	 call	 ?IsEquipmentSlot@CPythonPlayer@@QAE_NUSItemPos@@@Z ; CPythonPlayer::IsEquipmentSlot
  000b8	84 c0		 test	 al, al
  000ba	74 07		 je	 SHORT $LN15@playerCanA

; 1540 : 	{
; 1541 : 		return Py_BuildValue("i", ATTACH_METIN_CANT_ATTACH_TO_EQUIPMENT);

  000bc	6a 05		 push	 5
  000be	e9 e4 00 00 00	 jmp	 $LN39@playerCanA
$LN15@playerCanA:

; 1542 : 	}
; 1543 : 
; 1544 : 	CItemData * pMetinItemData;
; 1545 : 	if (!CItemManager::Instance().GetItemDataPointer(iMetinItemID, &pMetinItemData))

  000c3	8b 0d 00 00 00
	00		 mov	 ecx, DWORD PTR ?ms_singleton@?$CSingleton@VCItemManager@@@@0PAVCItemManager@@A ; CSingleton<CItemManager>::ms_singleton
  000c9	8d 45 f0	 lea	 eax, DWORD PTR _pMetinItemData$[ebp]
  000cc	50		 push	 eax
  000cd	ff 75 f8	 push	 DWORD PTR _iMetinItemID$[ebp]
  000d0	e8 00 00 00 00	 call	 ?GetItemDataPointer@CItemManager@@QAEHKPAPAVCItemData@@@Z ; CItemManager::GetItemDataPointer
  000d5	85 c0		 test	 eax, eax
  000d7	75 14		 jne	 SHORT $LN16@playerCanA
$LN41@playerCanA:

; 1593 : }

  000d9	68 00 00 00 00	 push	 OFFSET ??_C@_0BF@IBGKLIMC@can?8t?5find?5item?5data@
  000de	e8 00 00 00 00	 call	 ?Py_BuildException@@YAPAU_object@@PBDZZ ; Py_BuildException
  000e3	83 c4 04	 add	 esp, 4
  000e6	5f		 pop	 edi
  000e7	5e		 pop	 esi
  000e8	5b		 pop	 ebx
  000e9	8b e5		 mov	 esp, ebp
  000eb	5d		 pop	 ebp
  000ec	c3		 ret	 0
$LN16@playerCanA:

; 1546 : 		return Py_BuildException("can't find item data");
; 1547 : 
; 1548 : 	DWORD dwTargetItemIndex = CPythonPlayer::Instance().GetItemIndex(TargetSlotIndex);

  000ed	8b 0d 00 00 00
	00		 mov	 ecx, DWORD PTR ?ms_singleton@?$CSingleton@VCPythonPlayer@@@@0PAVCPythonPlayer@@A ; CSingleton<CPythonPlayer>::ms_singleton
  000f3	66 8b 45 fc	 mov	 ax, WORD PTR _TargetSlotIndex$[ebp]
  000f7	83 c1 04	 add	 ecx, 4
  000fa	51		 push	 ecx
  000fb	8b d4		 mov	 edx, esp
  000fd	8b 31		 mov	 esi, DWORD PTR [ecx]
  000ff	66 89 02	 mov	 WORD PTR [edx], ax
  00102	8a 45 fe	 mov	 al, BYTE PTR _TargetSlotIndex$[ebp+2]
  00105	88 42 02	 mov	 BYTE PTR [edx+2], al
  00108	ff 56 40	 call	 DWORD PTR [esi+64]

; 1549 : 	CItemData * pTargetItemData;
; 1550 : 	if (!CItemManager::Instance().GetItemDataPointer(dwTargetItemIndex, &pTargetItemData))

  0010b	8d 4d f4	 lea	 ecx, DWORD PTR _pTargetItemData$[ebp]
  0010e	51		 push	 ecx
  0010f	8b 0d 00 00 00
	00		 mov	 ecx, DWORD PTR ?ms_singleton@?$CSingleton@VCItemManager@@@@0PAVCItemManager@@A ; CSingleton<CItemManager>::ms_singleton
  00115	50		 push	 eax
  00116	e8 00 00 00 00	 call	 ?GetItemDataPointer@CItemManager@@QAEHKPAPAVCItemData@@@Z ; CItemManager::GetItemDataPointer
  0011b	85 c0		 test	 eax, eax
  0011d	74 ba		 je	 SHORT $LN41@playerCanA

; 1551 : 		return Py_BuildException("can't find item data");
; 1552 : 
; 1553 : 	DWORD dwMetinWearFlags = pMetinItemData->GetWearFlags();

  0011f	8b 4d f0	 mov	 ecx, DWORD PTR _pMetinItemData$[ebp]
  00122	e8 00 00 00 00	 call	 ?GetWearFlags@CItemData@@QBEKXZ ; CItemData::GetWearFlags

; 1554 : 	DWORD dwTargetWearFlags = pTargetItemData->GetWearFlags();

  00127	8b 4d f4	 mov	 ecx, DWORD PTR _pTargetItemData$[ebp]
  0012a	8b f0		 mov	 esi, eax
  0012c	e8 00 00 00 00	 call	 ?GetWearFlags@CItemData@@QBEKXZ ; CItemData::GetWearFlags

; 1555 : 	if (0 == (dwMetinWearFlags & dwTargetWearFlags))

  00131	85 c6		 test	 eax, esi
  00133	75 04		 jne	 SHORT $LN18@playerCanA

; 1556 : 		return Py_BuildValue("i", ATTACH_METIN_NOT_MATCHABLE_ITEM);

  00135	6a 02		 push	 2
  00137	eb 6e		 jmp	 SHORT $LN39@playerCanA
$LN18@playerCanA:

; 1557 : 	if (CItemData::ITEM_TYPE_ROD == pTargetItemData->GetType())

  00139	8b 4d f4	 mov	 ecx, DWORD PTR _pTargetItemData$[ebp]
  0013c	e8 00 00 00 00	 call	 ?GetType@CItemData@@QBEEXZ ; CItemData::GetType
  00141	3c 0d		 cmp	 al, 13			; 0000000dH
  00143	75 04		 jne	 SHORT $LN19@playerCanA

; 1558 : 		return Py_BuildValue("i", ATTACH_METIN_CANT);

  00145	6a 00		 push	 0
  00147	eb 5e		 jmp	 SHORT $LN39@playerCanA
$LN19@playerCanA:

; 1559 : 
; 1560 : 	BOOL bNotExistGoldSocket = FALSE;
; 1561 : 
; 1562 : 	int iSubType = pMetinItemData->GetSubType();

  00149	8b 4d f0	 mov	 ecx, DWORD PTR _pMetinItemData$[ebp]
  0014c	33 ff		 xor	 edi, edi
  0014e	e8 00 00 00 00	 call	 ?GetSubType@CItemData@@QBEEXZ ; CItemData::GetSubType
  00153	0f b6 d8	 movzx	 ebx, al

; 1563 : 	for (int i = 0; i < ITEM_SOCKET_SLOT_MAX_NUM; ++i)

  00156	33 f6		 xor	 esi, esi
$LL6@playerCanA:

; 1564 : 	{
; 1565 : 		DWORD dwSocketType = CPythonPlayer::Instance().GetItemMetinSocket(TargetSlotIndex, i);

  00158	66 8b 45 fc	 mov	 ax, WORD PTR _TargetSlotIndex$[ebp]
  0015c	56		 push	 esi
  0015d	51		 push	 ecx
  0015e	8b cc		 mov	 ecx, esp
  00160	66 89 01	 mov	 WORD PTR [ecx], ax
  00163	8a 45 fe	 mov	 al, BYTE PTR _TargetSlotIndex$[ebp+2]
  00166	88 41 02	 mov	 BYTE PTR [ecx+2], al
  00169	8b 0d 00 00 00
	00		 mov	 ecx, DWORD PTR ?ms_singleton@?$CSingleton@VCPythonPlayer@@@@0PAVCPythonPlayer@@A ; CSingleton<CPythonPlayer>::ms_singleton
  0016f	e8 00 00 00 00	 call	 ?GetItemMetinSocket@CPythonPlayer@@QAEKUSItemPos@@K@Z ; CPythonPlayer::GetItemMetinSocket

; 1566 : 		if (CItemData::METIN_NORMAL == iSubType)

  00174	85 db		 test	 ebx, ebx
  00176	75 0e		 jne	 SHORT $LN20@playerCanA

; 1567 : 		{
; 1568 : 			if (CPythonPlayer::METIN_SOCKET_TYPE_SILVER == dwSocketType ||

  00178	83 f8 01	 cmp	 eax, 1
  0017b	74 05		 je	 SHORT $LN33@playerCanA
  0017d	83 f8 02	 cmp	 eax, 2
  00180	75 15		 jne	 SHORT $LN4@playerCanA
$LN33@playerCanA:

; 1593 : }

  00182	6a 01		 push	 1
  00184	eb 21		 jmp	 SHORT $LN39@playerCanA
$LN20@playerCanA:

; 1569 : 				CPythonPlayer::METIN_SOCKET_TYPE_GOLD == dwSocketType)
; 1570 : 			{
; 1571 : 				return Py_BuildValue("i", ATTACH_METIN_OK);
; 1572 : 			}
; 1573 : 		}
; 1574 : 		else if (CItemData::METIN_GOLD == iSubType)

  00186	83 fb 01	 cmp	 ebx, 1
  00189	75 0c		 jne	 SHORT $LN4@playerCanA

; 1575 : 		{
; 1576 : 			if (CPythonPlayer::METIN_SOCKET_TYPE_GOLD == dwSocketType)

  0018b	83 f8 02	 cmp	 eax, 2
  0018e	74 f2		 je	 SHORT $LN33@playerCanA

; 1577 : 			{
; 1578 : 				return Py_BuildValue("i", ATTACH_METIN_OK);
; 1579 : 			}
; 1580 : 			else if (CPythonPlayer::METIN_SOCKET_TYPE_SILVER == dwSocketType)

  00190	3b c3		 cmp	 eax, ebx
  00192	8b c3		 mov	 eax, ebx
  00194	0f 44 f8	 cmove	 edi, eax
$LN4@playerCanA:

; 1563 : 	for (int i = 0; i < ITEM_SOCKET_SLOT_MAX_NUM; ++i)

  00197	46		 inc	 esi
  00198	83 fe 03	 cmp	 esi, 3
  0019b	7c bb		 jl	 SHORT $LL6@playerCanA

; 1581 : 			{
; 1582 : 				bNotExistGoldSocket = TRUE;
; 1583 : 			}
; 1584 : 		}
; 1585 : 	}
; 1586 : 
; 1587 : 	if (bNotExistGoldSocket)

  0019d	85 ff		 test	 edi, edi
  0019f	74 04		 je	 SHORT $LN28@playerCanA

; 1588 : 	{
; 1589 : 		return Py_BuildValue("i", ATTACH_METIN_NOT_EXIST_GOLD_SOCKET);

  001a1	6a 04		 push	 4
  001a3	eb 02		 jmp	 SHORT $LN39@playerCanA
$LN28@playerCanA:

; 1590 : 	}
; 1591 : 
; 1592 : 	return Py_BuildValue("i", ATTACH_METIN_NO_MATCHABLE_SOCKET);

  001a5	6a 03		 push	 3
$LN39@playerCanA:

; 1593 : }

  001a7	68 00 00 00 00	 push	 OFFSET ??_C@_01KBJDNOO@i@
  001ac	ff 15 00 00 00
	00		 call	 DWORD PTR __imp__Py_BuildValue
  001b2	83 c4 08	 add	 esp, 8
  001b5	5f		 pop	 edi
  001b6	5e		 pop	 esi
  001b7	5b		 pop	 ebx
  001b8	8b e5		 mov	 esp, ebp
  001ba	5d		 pop	 ebp
  001bb	c3		 ret	 0
?playerCanAttachMetin@@YAPAU_object@@PAU1@0@Z ENDP	; playerCanAttachMetin
_TEXT	ENDS
; Function compile flags: /Ogtp
; File D:\Metin2 Server Files\mainline\SRC_2014\Metin2Client\UserInterface\PythonPlayerModule.cpp
; File D:\Metin2 Server Files\mainline\SRC_2014\Metin2Client\UserInterface\GameType.h
; File D:\Metin2 Server Files\mainline\SRC_2014\Metin2Client\UserInterface\PythonPlayerModule.cpp
; File D:\Metin2 Server Files\mainline\SRC_2014\Metin2Client\UserInterface\GameType.h
; File D:\Metin2 Server Files\mainline\SRC_2014\Metin2Client\UserInterface\PythonPlayerModule.cpp
;	COMDAT ?playerCanRefine@@YAPAU_object@@PAU1@0@Z
_TEXT	SEGMENT
_iScrollItemIndex$ = -8					; size = 4
_TargetSlotIndex$ = -4					; size = 3
_poSelf$ = 8						; size = 4
_poArgs$ = 12						; size = 4
?playerCanRefine@@YAPAU_object@@PAU1@0@Z PROC		; playerCanRefine, COMDAT

; 1441 : {

  00000	55		 push	 ebp
  00001	8b ec		 mov	 ebp, esp
  00003	83 ec 08	 sub	 esp, 8
  00006	56		 push	 esi

; 1445 : 	switch (PyTuple_Size(poArgs))

  00007	8b 75 0c	 mov	 esi, DWORD PTR _poArgs$[ebp]
; File D:\Metin2 Server Files\mainline\SRC_2014\Metin2Client\UserInterface\GameType.h

; 187  : 		cell = WORD_MAX;

  0000a	b8 ff ff 00 00	 mov	 eax, 65535		; 0000ffffH
; File D:\Metin2 Server Files\mainline\SRC_2014\Metin2Client\UserInterface\PythonPlayerModule.cpp

; 1441 : {

  0000f	57		 push	 edi

; 1445 : 	switch (PyTuple_Size(poArgs))

  00010	56		 push	 esi
; File D:\Metin2 Server Files\mainline\SRC_2014\Metin2Client\UserInterface\GameType.h

; 186  : 		window_type =     INVENTORY;

  00011	c6 45 fc 01	 mov	 BYTE PTR _TargetSlotIndex$[ebp], 1

; 187  : 		cell = WORD_MAX;

  00015	66 89 45 fd	 mov	 WORD PTR _TargetSlotIndex$[ebp+1], ax
; File D:\Metin2 Server Files\mainline\SRC_2014\Metin2Client\UserInterface\PythonPlayerModule.cpp

; 1445 : 	switch (PyTuple_Size(poArgs))

  00019	ff 15 00 00 00
	00		 call	 DWORD PTR __imp__PyTuple_Size
  0001f	83 c4 04	 add	 esp, 4
  00022	83 e8 02	 sub	 eax, 2
  00025	74 49		 je	 SHORT $LN4@playerCanR
  00027	83 e8 01	 sub	 eax, 1
  0002a	75 39		 jne	 SHORT $LN25@playerCanR

; 1451 : 			return Py_BadArgument();
; 1452 : 		break;
; 1453 : 	case 3:
; 1454 : 		if (!PyTuple_GetInteger(poArgs, 0, &iScrollItemIndex))

  0002c	8d 45 f8	 lea	 eax, DWORD PTR _iScrollItemIndex$[ebp]
  0002f	50		 push	 eax
  00030	6a 00		 push	 0
  00032	56		 push	 esi
  00033	e8 00 00 00 00	 call	 ?PyTuple_GetInteger@@YA_NPAU_object@@HPAH@Z ; PyTuple_GetInteger
  00038	83 c4 0c	 add	 esp, 12			; 0000000cH
  0003b	84 c0		 test	 al, al
  0003d	74 26		 je	 SHORT $LN25@playerCanR

; 1455 : 			return Py_BadArgument();
; 1456 : 		if (!PyTuple_GetInteger(poArgs, 1, &TargetSlotIndex.window_type))

  0003f	8d 45 fc	 lea	 eax, DWORD PTR _TargetSlotIndex$[ebp]
  00042	50		 push	 eax
  00043	6a 01		 push	 1
  00045	56		 push	 esi
  00046	e8 00 00 00 00	 call	 ?PyTuple_GetInteger@@YA_NPAU_object@@HPAE@Z ; PyTuple_GetInteger
  0004b	83 c4 0c	 add	 esp, 12			; 0000000cH
  0004e	84 c0		 test	 al, al
  00050	74 13		 je	 SHORT $LN25@playerCanR

; 1457 : 			return Py_BadArgument();
; 1458 : 		if (!PyTuple_GetInteger(poArgs, 2, &TargetSlotIndex.cell))

  00052	8d 45 fd	 lea	 eax, DWORD PTR _TargetSlotIndex$[ebp+1]
  00055	50		 push	 eax
  00056	6a 02		 push	 2
  00058	56		 push	 esi
  00059	e8 00 00 00 00	 call	 ?PyTuple_GetInteger@@YA_NPAU_object@@HPAG@Z ; PyTuple_GetInteger
  0005e	83 c4 0c	 add	 esp, 12			; 0000000cH
  00061	84 c0		 test	 al, al
  00063	75 31		 jne	 SHORT $LN6@playerCanR
$LN25@playerCanR:

; 1500 : 	}
; 1501 : 
; 1502 : 	return Py_BuildValue("i", REFINE_CANT);
; 1503 : }

  00065	e8 00 00 00 00	 call	 ?Py_BadArgument@@YAPAU_object@@XZ ; Py_BadArgument
  0006a	5f		 pop	 edi
  0006b	5e		 pop	 esi
  0006c	8b e5		 mov	 esp, ebp
  0006e	5d		 pop	 ebp
  0006f	c3		 ret	 0
$LN4@playerCanR:

; 1446 : 	{
; 1447 : 	case 2:
; 1448 : 		if (!PyTuple_GetInteger(poArgs, 0, &iScrollItemIndex))

  00070	8d 45 f8	 lea	 eax, DWORD PTR _iScrollItemIndex$[ebp]
  00073	50		 push	 eax
  00074	6a 00		 push	 0
  00076	56		 push	 esi
  00077	e8 00 00 00 00	 call	 ?PyTuple_GetInteger@@YA_NPAU_object@@HPAH@Z ; PyTuple_GetInteger
  0007c	83 c4 0c	 add	 esp, 12			; 0000000cH
  0007f	84 c0		 test	 al, al
  00081	74 e2		 je	 SHORT $LN25@playerCanR

; 1449 : 			return Py_BadArgument();
; 1450 : 		if (!PyTuple_GetInteger(poArgs, 1, &TargetSlotIndex.cell))

  00083	8d 45 fd	 lea	 eax, DWORD PTR _TargetSlotIndex$[ebp+1]
  00086	50		 push	 eax
  00087	6a 01		 push	 1
  00089	56		 push	 esi
  0008a	e8 00 00 00 00	 call	 ?PyTuple_GetInteger@@YA_NPAU_object@@HPAG@Z ; PyTuple_GetInteger
  0008f	83 c4 0c	 add	 esp, 12			; 0000000cH
  00092	84 c0		 test	 al, al
  00094	74 cf		 je	 SHORT $LN25@playerCanR
$LN6@playerCanR:

; 1459 : 			return Py_BadArgument();
; 1460 : 		break;
; 1461 : 	default:
; 1462 : 		return Py_BadArgument();
; 1463 : 	}
; 1464 : 
; 1465 : 	if (CPythonPlayer::Instance().IsEquipmentSlot(TargetSlotIndex))

  00096	66 8b 45 fc	 mov	 ax, WORD PTR _TargetSlotIndex$[ebp]
  0009a	51		 push	 ecx
  0009b	8b cc		 mov	 ecx, esp
  0009d	66 89 01	 mov	 WORD PTR [ecx], ax
  000a0	8a 45 fe	 mov	 al, BYTE PTR _TargetSlotIndex$[ebp+2]
  000a3	88 41 02	 mov	 BYTE PTR [ecx+2], al
  000a6	8b 0d 00 00 00
	00		 mov	 ecx, DWORD PTR ?ms_singleton@?$CSingleton@VCPythonPlayer@@@@0PAVCPythonPlayer@@A ; CSingleton<CPythonPlayer>::ms_singleton
  000ac	e8 00 00 00 00	 call	 ?IsEquipmentSlot@CPythonPlayer@@QAE_NUSItemPos@@@Z ; CPythonPlayer::IsEquipmentSlot
  000b1	84 c0		 test	 al, al
  000b3	74 16		 je	 SHORT $LN12@playerCanR

; 1466 : 	{
; 1467 : 		return Py_BuildValue("i", REFINE_CANT_REFINE_METIN_TO_EQUIPMENT);

  000b5	6a 06		 push	 6

; 1500 : 	}
; 1501 : 
; 1502 : 	return Py_BuildValue("i", REFINE_CANT);
; 1503 : }

  000b7	68 00 00 00 00	 push	 OFFSET ??_C@_01KBJDNOO@i@
  000bc	ff 15 00 00 00
	00		 call	 DWORD PTR __imp__Py_BuildValue
  000c2	83 c4 08	 add	 esp, 8
  000c5	5f		 pop	 edi
  000c6	5e		 pop	 esi
  000c7	8b e5		 mov	 esp, ebp
  000c9	5d		 pop	 ebp
  000ca	c3		 ret	 0
$LN12@playerCanR:

; 1468 : 	}
; 1469 : 
; 1470 : 	// Scroll
; 1471 : 	CItemManager::Instance().SelectItemData(iScrollItemIndex);

  000cb	ff 75 f8	 push	 DWORD PTR _iScrollItemIndex$[ebp]
  000ce	8b 0d 00 00 00
	00		 mov	 ecx, DWORD PTR ?ms_singleton@?$CSingleton@VCItemManager@@@@0PAVCItemManager@@A ; CSingleton<CItemManager>::ms_singleton
  000d4	e8 00 00 00 00	 call	 ?SelectItemData@CItemManager@@QAEHK@Z ; CItemManager::SelectItemData

; 1472 : 	CItemData * pScrollItemData = CItemManager::Instance().GetSelectedItemDataPointer();

  000d9	8b 0d 00 00 00
	00		 mov	 ecx, DWORD PTR ?ms_singleton@?$CSingleton@VCItemManager@@@@0PAVCItemManager@@A ; CSingleton<CItemManager>::ms_singleton
  000df	e8 00 00 00 00	 call	 ?GetSelectedItemDataPointer@CItemManager@@QAEPAVCItemData@@XZ ; CItemManager::GetSelectedItemDataPointer
  000e4	8b f8		 mov	 edi, eax

; 1473 : 	if (!pScrollItemData)

  000e6	85 ff		 test	 edi, edi
  000e8	75 16		 jne	 SHORT $LN13@playerCanR
$LN24@playerCanR:

; 1500 : 	}
; 1501 : 
; 1502 : 	return Py_BuildValue("i", REFINE_CANT);
; 1503 : }

  000ea	6a 00		 push	 0
  000ec	68 00 00 00 00	 push	 OFFSET ??_C@_01KBJDNOO@i@
  000f1	ff 15 00 00 00
	00		 call	 DWORD PTR __imp__Py_BuildValue
  000f7	83 c4 08	 add	 esp, 8
  000fa	5f		 pop	 edi
  000fb	5e		 pop	 esi
  000fc	8b e5		 mov	 esp, ebp
  000fe	5d		 pop	 ebp
  000ff	c3		 ret	 0
$LN13@playerCanR:

; 1474 : 		return Py_BuildValue("i", REFINE_CANT);
; 1475 : 	int iScrollType = pScrollItemData->GetType();

  00100	8b cf		 mov	 ecx, edi
  00102	e8 00 00 00 00	 call	 ?GetType@CItemData@@QBEEXZ ; CItemData::GetType

; 1476 : 	int iScrollSubType = pScrollItemData->GetSubType();

  00107	8b cf		 mov	 ecx, edi
  00109	0f b6 f0	 movzx	 esi, al
  0010c	e8 00 00 00 00	 call	 ?GetSubType@CItemData@@QBEEXZ ; CItemData::GetSubType
  00111	0f b6 c0	 movzx	 eax, al

; 1477 : 	if (iScrollType != CItemData::ITEM_TYPE_USE)

  00114	83 fe 03	 cmp	 esi, 3
  00117	75 d1		 jne	 SHORT $LN24@playerCanR

; 1478 : 		return Py_BuildValue("i", REFINE_CANT);
; 1479 : 	if (iScrollSubType != CItemData::USE_TUNING)

  00119	83 f8 02	 cmp	 eax, 2
  0011c	75 cc		 jne	 SHORT $LN24@playerCanR

; 1480 : 		return Py_BuildValue("i", REFINE_CANT);
; 1481 : 
; 1482 : 	// Target Item
; 1483 : 	int iTargetItemIndex = CPythonPlayer::Instance().GetItemIndex(TargetSlotIndex);

  0011e	8b 0d 00 00 00
	00		 mov	 ecx, DWORD PTR ?ms_singleton@?$CSingleton@VCPythonPlayer@@@@0PAVCPythonPlayer@@A ; CSingleton<CPythonPlayer>::ms_singleton
  00124	66 8b 45 fc	 mov	 ax, WORD PTR _TargetSlotIndex$[ebp]
  00128	83 c1 04	 add	 ecx, 4
  0012b	51		 push	 ecx
  0012c	8b d4		 mov	 edx, esp
  0012e	8b 31		 mov	 esi, DWORD PTR [ecx]
  00130	66 89 02	 mov	 WORD PTR [edx], ax
  00133	8a 45 fe	 mov	 al, BYTE PTR _TargetSlotIndex$[ebp+2]
  00136	88 42 02	 mov	 BYTE PTR [edx+2], al
  00139	ff 56 40	 call	 DWORD PTR [esi+64]

; 1484 : 	CItemManager::Instance().SelectItemData(iTargetItemIndex);

  0013c	8b 0d 00 00 00
	00		 mov	 ecx, DWORD PTR ?ms_singleton@?$CSingleton@VCItemManager@@@@0PAVCItemManager@@A ; CSingleton<CItemManager>::ms_singleton
  00142	50		 push	 eax
  00143	e8 00 00 00 00	 call	 ?SelectItemData@CItemManager@@QAEHK@Z ; CItemManager::SelectItemData

; 1485 : 	CItemData * pTargetItemData = CItemManager::Instance().GetSelectedItemDataPointer();

  00148	8b 0d 00 00 00
	00		 mov	 ecx, DWORD PTR ?ms_singleton@?$CSingleton@VCItemManager@@@@0PAVCItemManager@@A ; CSingleton<CItemManager>::ms_singleton
  0014e	e8 00 00 00 00	 call	 ?GetSelectedItemDataPointer@CItemManager@@QAEPAVCItemData@@XZ ; CItemManager::GetSelectedItemDataPointer
  00153	8b f0		 mov	 esi, eax

; 1486 : 	if (!pTargetItemData)

  00155	85 f6		 test	 esi, esi
  00157	74 91		 je	 SHORT $LN24@playerCanR

; 1487 : 		return Py_BuildValue("i", REFINE_CANT);
; 1488 : 	int iTargetType = pTargetItemData->GetType();

  00159	8b ce		 mov	 ecx, esi
  0015b	e8 00 00 00 00	 call	 ?GetType@CItemData@@QBEEXZ ; CItemData::GetType

; 1489 : 	//int iTargetSubType = pTargetItemData->GetSubType();
; 1490 : 	if (CItemData::ITEM_TYPE_ROD == iTargetType)

  00160	3c 0d		 cmp	 al, 13			; 0000000dH
  00162	75 16		 jne	 SHORT $LN17@playerCanR

; 1491 : 		return Py_BuildValue("i", REFINE_CANT_REFINE_ROD);

  00164	6a 07		 push	 7

; 1500 : 	}
; 1501 : 
; 1502 : 	return Py_BuildValue("i", REFINE_CANT);
; 1503 : }

  00166	68 00 00 00 00	 push	 OFFSET ??_C@_01KBJDNOO@i@
  0016b	ff 15 00 00 00
	00		 call	 DWORD PTR __imp__Py_BuildValue
  00171	83 c4 08	 add	 esp, 8
  00174	5f		 pop	 edi
  00175	5e		 pop	 esi
  00176	8b e5		 mov	 esp, ebp
  00178	5d		 pop	 ebp
  00179	c3		 ret	 0
$LN17@playerCanR:

; 1492 : 
; 1493 : 	if (pTargetItemData->HasNextGrade())

  0017a	8b ce		 mov	 ecx, esi
  0017c	e8 00 00 00 00	 call	 ?HasNextGrade@CItemData@@QBEHXZ ; CItemData::HasNextGrade
  00181	85 c0		 test	 eax, eax
  00183	74 16		 je	 SHORT $LN18@playerCanR

; 1494 : 	{
; 1495 : 		return Py_BuildValue("i", REFINE_OK);

  00185	6a 01		 push	 1

; 1500 : 	}
; 1501 : 
; 1502 : 	return Py_BuildValue("i", REFINE_CANT);
; 1503 : }

  00187	68 00 00 00 00	 push	 OFFSET ??_C@_01KBJDNOO@i@
  0018c	ff 15 00 00 00
	00		 call	 DWORD PTR __imp__Py_BuildValue
  00192	83 c4 08	 add	 esp, 8
  00195	5f		 pop	 edi
  00196	5e		 pop	 esi
  00197	8b e5		 mov	 esp, ebp
  00199	5d		 pop	 ebp
  0019a	c3		 ret	 0
$LN18@playerCanR:

; 1496 : 	}
; 1497 : 	else
; 1498 : 	{
; 1499 : 		return Py_BuildValue("i", REFINE_NOT_NEXT_GRADE_ITEM);

  0019b	6a 05		 push	 5

; 1500 : 	}
; 1501 : 
; 1502 : 	return Py_BuildValue("i", REFINE_CANT);
; 1503 : }

  0019d	68 00 00 00 00	 push	 OFFSET ??_C@_01KBJDNOO@i@
  001a2	ff 15 00 00 00
	00		 call	 DWORD PTR __imp__Py_BuildValue
  001a8	83 c4 08	 add	 esp, 8
  001ab	5f		 pop	 edi
  001ac	5e		 pop	 esi
  001ad	8b e5		 mov	 esp, ebp
  001af	5d		 pop	 ebp
  001b0	c3		 ret	 0
?playerCanRefine@@YAPAU_object@@PAU1@0@Z ENDP		; playerCanRefine
_TEXT	ENDS
; Function compile flags: /Ogtp
; File D:\Metin2 Server Files\mainline\SRC_2014\Metin2Client\UserInterface\PythonPlayerModule.cpp
; File D:\Metin2 Server Files\mainline\SRC_2014\Metin2Client\UserInterface\GameType.h
; File D:\Metin2 Server Files\mainline\SRC_2014\Metin2Client\UserInterface\PythonPlayerModule.cpp
; File D:\Metin2 Server Files\mainline\SRC_2014\Metin2Client\UserInterface\GameType.h
; File D:\Metin2 Server Files\mainline\SRC_2014\Metin2Client\UserInterface\PythonPlayerModule.cpp
;	COMDAT ?playerGetItemGrade@@YAPAU_object@@PAU1@0@Z
_TEXT	SEGMENT
_SlotIndex$ = -4					; size = 3
_poSelf$ = 8						; size = 4
_poArgs$ = 12						; size = 4
?playerGetItemGrade@@YAPAU_object@@PAU1@0@Z PROC	; playerGetItemGrade, COMDAT

; 1384 : {

  00000	55		 push	 ebp
  00001	8b ec		 mov	 ebp, esp
  00003	51		 push	 ecx
  00004	56		 push	 esi

; 1386 : 	switch (PyTuple_Size(poArgs))

  00005	8b 75 0c	 mov	 esi, DWORD PTR _poArgs$[ebp]
; File D:\Metin2 Server Files\mainline\SRC_2014\Metin2Client\UserInterface\GameType.h

; 187  : 		cell = WORD_MAX;

  00008	b8 ff ff 00 00	 mov	 eax, 65535		; 0000ffffH
; File D:\Metin2 Server Files\mainline\SRC_2014\Metin2Client\UserInterface\PythonPlayerModule.cpp

; 1386 : 	switch (PyTuple_Size(poArgs))

  0000d	56		 push	 esi
; File D:\Metin2 Server Files\mainline\SRC_2014\Metin2Client\UserInterface\GameType.h

; 186  : 		window_type =     INVENTORY;

  0000e	c6 45 fc 01	 mov	 BYTE PTR _SlotIndex$[ebp], 1

; 187  : 		cell = WORD_MAX;

  00012	66 89 45 fd	 mov	 WORD PTR _SlotIndex$[ebp+1], ax
; File D:\Metin2 Server Files\mainline\SRC_2014\Metin2Client\UserInterface\PythonPlayerModule.cpp

; 1386 : 	switch (PyTuple_Size(poArgs))

  00016	ff 15 00 00 00
	00		 call	 DWORD PTR __imp__PyTuple_Size
  0001c	83 c4 04	 add	 esp, 4
  0001f	83 e8 01	 sub	 eax, 1
  00022	74 20		 je	 SHORT $LN4@playerGetI
  00024	83 e8 01	 sub	 eax, 1
  00027	75 2e		 jne	 SHORT $LN14@playerGetI

; 1390 : 			return Py_BuildException();
; 1391 : 		break;
; 1392 : 	case 2:
; 1393 : 		if (!PyTuple_GetInteger(poArgs, 0, &SlotIndex.window_type))

  00029	8d 45 fc	 lea	 eax, DWORD PTR _SlotIndex$[ebp]
  0002c	50		 push	 eax
  0002d	6a 00		 push	 0
  0002f	56		 push	 esi
  00030	e8 00 00 00 00	 call	 ?PyTuple_GetInteger@@YA_NPAU_object@@HPAE@Z ; PyTuple_GetInteger
  00035	83 c4 0c	 add	 esp, 12			; 0000000cH
  00038	84 c0		 test	 al, al
  0003a	74 1b		 je	 SHORT $LN14@playerGetI

; 1394 : 			return Py_BuildException();
; 1395 : 		if (!PyTuple_GetInteger(poArgs, 1, &SlotIndex.cell))

  0003c	8d 45 fd	 lea	 eax, DWORD PTR _SlotIndex$[ebp+1]
  0003f	50		 push	 eax
  00040	6a 01		 push	 1

; 1396 : 			return Py_BuildException();

  00042	eb 06		 jmp	 SHORT $LN15@playerGetI
$LN4@playerGetI:

; 1387 : 	{
; 1388 : 	case 1:
; 1389 : 		if (!PyTuple_GetInteger(poArgs, 0, &SlotIndex.cell))

  00044	8d 45 fd	 lea	 eax, DWORD PTR _SlotIndex$[ebp+1]
  00047	50		 push	 eax
  00048	6a 00		 push	 0
$LN15@playerGetI:

; 1409 : }

  0004a	56		 push	 esi
  0004b	e8 00 00 00 00	 call	 ?PyTuple_GetInteger@@YA_NPAU_object@@HPAG@Z ; PyTuple_GetInteger
  00050	83 c4 0c	 add	 esp, 12			; 0000000cH
  00053	84 c0		 test	 al, al
  00055	75 0f		 jne	 SHORT $LN5@playerGetI
$LN14@playerGetI:
  00057	6a 00		 push	 0
  00059	e8 00 00 00 00	 call	 ?Py_BuildException@@YAPAU_object@@PBDZZ ; Py_BuildException
  0005e	83 c4 04	 add	 esp, 4
  00061	5e		 pop	 esi
  00062	8b e5		 mov	 esp, ebp
  00064	5d		 pop	 ebp
  00065	c3		 ret	 0
$LN5@playerGetI:

; 1397 : 		break;
; 1398 : 	default:
; 1399 : 		return Py_BuildException();
; 1400 : 	}
; 1401 : 
; 1402 : 	int iItemIndex = CPythonPlayer::Instance().GetItemIndex(SlotIndex);

  00066	8b 0d 00 00 00
	00		 mov	 ecx, DWORD PTR ?ms_singleton@?$CSingleton@VCPythonPlayer@@@@0PAVCPythonPlayer@@A ; CSingleton<CPythonPlayer>::ms_singleton
  0006c	66 8b 45 fc	 mov	 ax, WORD PTR _SlotIndex$[ebp]
  00070	83 c1 04	 add	 ecx, 4
  00073	51		 push	 ecx
  00074	8b d4		 mov	 edx, esp
  00076	8b 31		 mov	 esi, DWORD PTR [ecx]
  00078	66 89 02	 mov	 WORD PTR [edx], ax
  0007b	8a 45 fe	 mov	 al, BYTE PTR _SlotIndex$[ebp+2]
  0007e	88 42 02	 mov	 BYTE PTR [edx+2], al
  00081	ff 56 40	 call	 DWORD PTR [esi+64]

; 1403 : 	CItemManager::Instance().SelectItemData(iItemIndex);

  00084	8b 0d 00 00 00
	00		 mov	 ecx, DWORD PTR ?ms_singleton@?$CSingleton@VCItemManager@@@@0PAVCItemManager@@A ; CSingleton<CItemManager>::ms_singleton
  0008a	50		 push	 eax
  0008b	e8 00 00 00 00	 call	 ?SelectItemData@CItemManager@@QAEHK@Z ; CItemManager::SelectItemData

; 1404 : 	CItemData * pItemData = CItemManager::Instance().GetSelectedItemDataPointer();

  00090	8b 0d 00 00 00
	00		 mov	 ecx, DWORD PTR ?ms_singleton@?$CSingleton@VCItemManager@@@@0PAVCItemManager@@A ; CSingleton<CItemManager>::ms_singleton
  00096	e8 00 00 00 00	 call	 ?GetSelectedItemDataPointer@CItemManager@@QAEPAVCItemData@@XZ ; CItemManager::GetSelectedItemDataPointer

; 1405 : 	if (!pItemData)

  0009b	85 c0		 test	 eax, eax
  0009d	75 12		 jne	 SHORT $LN10@playerGetI

; 1406 : 		return Py_BuildException("Can't find item data");

  0009f	68 00 00 00 00	 push	 OFFSET ??_C@_0BF@BGKCJNBK@Can?8t?5find?5item?5data@

; 1409 : }

  000a4	e8 00 00 00 00	 call	 ?Py_BuildException@@YAPAU_object@@PBDZZ ; Py_BuildException
  000a9	83 c4 04	 add	 esp, 4
  000ac	5e		 pop	 esi
  000ad	8b e5		 mov	 esp, ebp
  000af	5d		 pop	 ebp
  000b0	c3		 ret	 0
$LN10@playerGetI:

; 1407 : 
; 1408 : 	return Py_BuildValue("i", GetItemGrade(pItemData->GetName()));

  000b1	8b c8		 mov	 ecx, eax
  000b3	e8 00 00 00 00	 call	 ?GetName@CItemData@@QBEPBDXZ ; CItemData::GetName
  000b8	50		 push	 eax
  000b9	e8 00 00 00 00	 call	 ?GetItemGrade@@YAHPBD@Z	; GetItemGrade
  000be	50		 push	 eax
  000bf	68 00 00 00 00	 push	 OFFSET ??_C@_01KBJDNOO@i@
  000c4	ff 15 00 00 00
	00		 call	 DWORD PTR __imp__Py_BuildValue
  000ca	83 c4 0c	 add	 esp, 12			; 0000000cH

; 1409 : }

  000cd	5e		 pop	 esi
  000ce	8b e5		 mov	 esp, ebp
  000d0	5d		 pop	 ebp
  000d1	c3		 ret	 0
?playerGetItemGrade@@YAPAU_object@@PAU1@0@Z ENDP	; playerGetItemGrade
_TEXT	ENDS
; Function compile flags: /Ogtp
; File D:\Metin2 Server Files\mainline\SRC_2014\Metin2Client\UserInterface\PythonPlayerModule.cpp
; File C:\Program Files (x86)\Microsoft Visual Studio\2019\Community\VC\Tools\MSVC\14.28.29333\include\xstring
; File D:\Metin2 Server Files\mainline\SRC_2014\Metin2Client\UserInterface\PythonPlayerModule.cpp
; File C:\Program Files (x86)\Microsoft Visual Studio\2019\Community\VC\Tools\MSVC\14.28.29333\include\xstring
; File D:\Metin2 Server Files\mainline\SRC_2014\Metin2Client\UserInterface\PythonPlayerModule.cpp
; File C:\Program Files (x86)\Microsoft Visual Studio\2019\Community\VC\Tools\MSVC\14.28.29333\include\xstring
; File D:\Metin2 Server Files\mainline\SRC_2014\Metin2Client\UserInterface\PythonPlayerModule.cpp
; File C:\Program Files (x86)\Microsoft Visual Studio\2019\Community\VC\Tools\MSVC\14.28.29333\include\xstring
; File D:\Metin2 Server Files\mainline\SRC_2014\Metin2Client\UserInterface\PythonPlayerModule.cpp
; File C:\Program Files (x86)\Microsoft Visual Studio\2019\Community\VC\Tools\MSVC\14.28.29333\include\xstring
; File C:\Program Files (x86)\Microsoft Visual Studio\2019\Community\VC\Tools\MSVC\14.28.29333\include\xmemory
; File D:\Metin2 Server Files\mainline\SRC_2014\Metin2Client\UserInterface\PythonPlayerModule.cpp
;	COMDAT ?GetItemGrade@@YAHPBD@Z
_TEXT	SEGMENT
_strName$ = -28						; size = 24
__$ArrayPad$ = -4					; size = 4
_c_szItemName$ = 8					; size = 4
?GetItemGrade@@YAHPBD@Z PROC				; GetItemGrade, COMDAT

; 1370 : {

  00000	55		 push	 ebp
  00001	8b ec		 mov	 ebp, esp
  00003	83 ec 1c	 sub	 esp, 28			; 0000001cH
  00006	a1 00 00 00 00	 mov	 eax, DWORD PTR ___security_cookie
  0000b	33 c5		 xor	 eax, ebp
  0000d	89 45 fc	 mov	 DWORD PTR __$ArrayPad$[ebp], eax
  00010	8b 55 08	 mov	 edx, DWORD PTR _c_szItemName$[ebp]
; File C:\Program Files (x86)\Microsoft Visual Studio\2019\Community\VC\Tools\MSVC\14.28.29333\include\xstring

; 389  :         return _CSTD strlen(reinterpret_cast<const char*>(_First));

  00013	8b ca		 mov	 ecx, edx
; File D:\Metin2 Server Files\mainline\SRC_2014\Metin2Client\UserInterface\PythonPlayerModule.cpp

; 1370 : {

  00015	56		 push	 esi
; File C:\Program Files (x86)\Microsoft Visual Studio\2019\Community\VC\Tools\MSVC\14.28.29333\include\xstring

; 4377 :         _Mypair._Myval2._Mysize = 0;

  00016	c7 45 f4 00 00
	00 00		 mov	 DWORD PTR _strName$[ebp+16], 0

; 4378 :         _Mypair._Myval2._Myres  = _BUF_SIZE - 1;

  0001d	c7 45 f8 0f 00
	00 00		 mov	 DWORD PTR _strName$[ebp+20], 15 ; 0000000fH

; 4379 :         // the _Traits::assign is last so the codegen doesn't think the char write can alias this
; 4380 :         _Traits::assign(_Mypair._Myval2._Bx._Buf[0], _Elem());

  00024	c6 45 e4 00	 mov	 BYTE PTR _strName$[ebp], 0

; 389  :         return _CSTD strlen(reinterpret_cast<const char*>(_First));

  00028	8d 71 01	 lea	 esi, DWORD PTR [ecx+1]
  0002b	0f 1f 44 00 00	 npad	 5
$LL51@GetItemGra:
  00030	8a 01		 mov	 al, BYTE PTR [ecx]
  00032	41		 inc	 ecx
  00033	84 c0		 test	 al, al
  00035	75 f9		 jne	 SHORT $LL51@GetItemGra
  00037	2b ce		 sub	 ecx, esi

; 3062 :         return assign(_Ptr, _Convert_size<size_type>(_Traits::length(_Ptr)));

  00039	51		 push	 ecx
  0003a	52		 push	 edx
  0003b	8d 4d e4	 lea	 ecx, DWORD PTR _strName$[ebp]
  0003e	e8 00 00 00 00	 call	 ?assign@?$basic_string@DU?$char_traits@D@std@@V?$allocator@D@2@@std@@QAEAAV12@QBDI@Z ; std::basic_string<char,std::char_traits<char>,std::allocator<char> >::assign

; 3848 :         return size() == 0;

  00043	8b 75 f4	 mov	 esi, DWORD PTR _strName$[ebp+16]
; File D:\Metin2 Server Files\mainline\SRC_2014\Metin2Client\UserInterface\PythonPlayerModule.cpp

; 1372 : 	if (strName.empty())

  00046	8b 4d f8	 mov	 ecx, DWORD PTR _strName$[ebp+20]
  00049	8b 55 e4	 mov	 edx, DWORD PTR _strName$[ebp]
; File C:\Program Files (x86)\Microsoft Visual Studio\2019\Community\VC\Tools\MSVC\14.28.29333\include\xstring

; 3848 :         return size() == 0;

  0004c	85 f6		 test	 esi, esi
; File D:\Metin2 Server Files\mainline\SRC_2014\Metin2Client\UserInterface\PythonPlayerModule.cpp

; 1372 : 	if (strName.empty())

  0004e	75 04		 jne	 SHORT $LN2@GetItemGra
  00050	33 f6		 xor	 esi, esi
  00052	eb 1d		 jmp	 SHORT $LN7@GetItemGra
$LN2@GetItemGra:
; File C:\Program Files (x86)\Microsoft Visual Studio\2019\Community\VC\Tools\MSVC\14.28.29333\include\xstring

; 2227 :         return _BUF_SIZE <= _Myres;

  00054	83 f9 10	 cmp	 ecx, 16			; 00000010H

; 2209 :         value_type* _Result = _Bx._Buf;

  00057	8d 45 e4	 lea	 eax, DWORD PTR _strName$[ebp]

; 2210 :         if (_Large_string_engaged()) {

  0005a	0f 43 c2	 cmovae	 eax, edx
; File D:\Metin2 Server Files\mainline\SRC_2014\Metin2Client\UserInterface\PythonPlayerModule.cpp

; 1375 : 	char chGrade = strName[strName.length() - 1];

  0005d	8a 44 06 ff	 mov	 al, BYTE PTR [esi+eax-1]

; 1376 : 	if (chGrade < '0' || chGrade > '9')

  00061	3c 30		 cmp	 al, 48			; 00000030H
  00063	7c 04		 jl	 SHORT $LN4@GetItemGra
  00065	3c 39		 cmp	 al, 57			; 00000039H
  00067	7e 02		 jle	 SHORT $LN3@GetItemGra
$LN4@GetItemGra:

; 1377 : 		chGrade = '0';

  00069	b0 30		 mov	 al, 48			; 00000030H
$LN3@GetItemGra:

; 1378 : 
; 1379 : 	int iGrade = chGrade - '0';

  0006b	0f b6 f0	 movzx	 esi, al
  0006e	83 ee 30	 sub	 esi, 48			; 00000030H
$LN7@GetItemGra:
; File C:\Program Files (x86)\Microsoft Visual Studio\2019\Community\VC\Tools\MSVC\14.28.29333\include\xstring

; 2227 :         return _BUF_SIZE <= _Myres;

  00071	83 f9 10	 cmp	 ecx, 16			; 00000010H

; 4385 :         if (_Mypair._Myval2._Large_string_engaged()) {

  00074	72 0b		 jb	 SHORT $LN52@GetItemGra

; 4386 :             const pointer _Ptr = _Mypair._Myval2._Bx._Ptr;
; 4387 :             auto& _Al          = _Getal();
; 4388 :             _Destroy_in_place(_Mypair._Myval2._Bx._Ptr);
; 4389 :             _Al.deallocate(_Ptr, _Mypair._Myval2._Myres + 1);

  00076	41		 inc	 ecx
; File C:\Program Files (x86)\Microsoft Visual Studio\2019\Community\VC\Tools\MSVC\14.28.29333\include\xmemory

; 810  :         _Deallocate<_New_alignof<_Ty>>(_Ptr, sizeof(_Ty) * _Count);

  00077	51		 push	 ecx
  00078	52		 push	 edx
  00079	e8 00 00 00 00	 call	 ??$_Deallocate@$07$0A@@std@@YAXPAXI@Z ; std::_Deallocate<8,0>
  0007e	83 c4 08	 add	 esp, 8
$LN52@GetItemGra:
; File D:\Metin2 Server Files\mainline\SRC_2014\Metin2Client\UserInterface\PythonPlayerModule.cpp

; 1381 : }

  00081	8b 4d fc	 mov	 ecx, DWORD PTR __$ArrayPad$[ebp]
  00084	8b c6		 mov	 eax, esi
  00086	33 cd		 xor	 ecx, ebp
  00088	5e		 pop	 esi
  00089	e8 00 00 00 00	 call	 @__security_check_cookie@4
  0008e	8b e5		 mov	 esp, ebp
  00090	5d		 pop	 ebp
  00091	c3		 ret	 0
?GetItemGrade@@YAHPBD@Z ENDP				; GetItemGrade
_TEXT	ENDS
; Function compile flags: /Ogtp
; File D:\Metin2 Server Files\mainline\SRC_2014\Metin2Client\UserInterface\PythonPlayerModule.cpp
; File D:\Metin2 Server Files\mainline\SRC_2014\Metin2Client\UserInterface\GameType.h
; File D:\Metin2 Server Files\mainline\SRC_2014\Metin2Client\UserInterface\PythonPlayerModule.cpp
; File D:\Metin2 Server Files\mainline\SRC_2014\Metin2Client\UserInterface\GameType.h
; File D:\Metin2 Server Files\mainline\SRC_2014\Metin2Client\UserInterface\PythonPlayerModule.cpp
;	COMDAT ?playerIsValuableItem@@YAPAU_object@@PAU1@0@Z
_TEXT	SEGMENT
_pItemData$1$ = -8					; size = 4
_SlotIndex$ = -4					; size = 3
_poSelf$ = 8						; size = 4
_poArgs$ = 12						; size = 4
?playerIsValuableItem@@YAPAU_object@@PAU1@0@Z PROC	; playerIsValuableItem, COMDAT

; 1330 : {

  00000	55		 push	 ebp
  00001	8b ec		 mov	 ebp, esp
  00003	83 ec 08	 sub	 esp, 8
  00006	53		 push	 ebx
  00007	56		 push	 esi

; 1333 : 	switch (PyTuple_Size (poArgs))

  00008	8b 75 0c	 mov	 esi, DWORD PTR _poArgs$[ebp]
; File D:\Metin2 Server Files\mainline\SRC_2014\Metin2Client\UserInterface\GameType.h

; 187  : 		cell = WORD_MAX;

  0000b	b8 ff ff 00 00	 mov	 eax, 65535		; 0000ffffH
; File D:\Metin2 Server Files\mainline\SRC_2014\Metin2Client\UserInterface\PythonPlayerModule.cpp

; 1330 : {

  00010	57		 push	 edi

; 1333 : 	switch (PyTuple_Size (poArgs))

  00011	56		 push	 esi
; File D:\Metin2 Server Files\mainline\SRC_2014\Metin2Client\UserInterface\GameType.h

; 186  : 		window_type =     INVENTORY;

  00012	c6 45 fc 01	 mov	 BYTE PTR _SlotIndex$[ebp], 1

; 187  : 		cell = WORD_MAX;

  00016	66 89 45 fd	 mov	 WORD PTR _SlotIndex$[ebp+1], ax
; File D:\Metin2 Server Files\mainline\SRC_2014\Metin2Client\UserInterface\PythonPlayerModule.cpp

; 1333 : 	switch (PyTuple_Size (poArgs))

  0001a	ff 15 00 00 00
	00		 call	 DWORD PTR __imp__PyTuple_Size
  00020	83 c4 04	 add	 esp, 4
  00023	83 e8 01	 sub	 eax, 1
  00026	74 18		 je	 SHORT $LN7@playerIsVa
  00028	83 e8 01	 sub	 eax, 1
  0002b	75 26		 jne	 SHORT $LN25@playerIsVa

; 1334 : 	{
; 1335 : 	case 1:
; 1336 : 		if (!PyTuple_GetInteger(poArgs, 0, &SlotIndex.cell))
; 1337 : 			return Py_BuildException();
; 1338 : 		break;
; 1339 : 	case 2:
; 1340 : 		if (!PyTuple_GetInteger(poArgs, 0, &SlotIndex.window_type))

  0002d	8d 45 fc	 lea	 eax, DWORD PTR _SlotIndex$[ebp]
  00030	50		 push	 eax
  00031	6a 00		 push	 0
  00033	56		 push	 esi
  00034	e8 00 00 00 00	 call	 ?PyTuple_GetInteger@@YA_NPAU_object@@HPAE@Z ; PyTuple_GetInteger
  00039	83 c4 0c	 add	 esp, 12			; 0000000cH
  0003c	84 c0		 test	 al, al
  0003e	74 13		 je	 SHORT $LN25@playerIsVa
$LN7@playerIsVa:

; 1367 : }

  00040	8d 45 fd	 lea	 eax, DWORD PTR _SlotIndex$[ebp+1]
  00043	50		 push	 eax
  00044	6a 00		 push	 0
  00046	56		 push	 esi
  00047	e8 00 00 00 00	 call	 ?PyTuple_GetInteger@@YA_NPAU_object@@HPAG@Z ; PyTuple_GetInteger
  0004c	83 c4 0c	 add	 esp, 12			; 0000000cH
  0004f	84 c0		 test	 al, al
  00051	75 11		 jne	 SHORT $LN8@playerIsVa
$LN25@playerIsVa:
  00053	6a 00		 push	 0
  00055	e8 00 00 00 00	 call	 ?Py_BuildException@@YAPAU_object@@PBDZZ ; Py_BuildException
  0005a	83 c4 04	 add	 esp, 4
  0005d	5f		 pop	 edi
  0005e	5e		 pop	 esi
  0005f	5b		 pop	 ebx
  00060	8b e5		 mov	 esp, ebp
  00062	5d		 pop	 ebp
  00063	c3		 ret	 0
$LN8@playerIsVa:

; 1341 : 			return Py_BuildException();
; 1342 : 		if (!PyTuple_GetInteger(poArgs, 0, &SlotIndex.cell))
; 1343 : 			return Py_BuildException();
; 1344 : 		break;
; 1345 : 	default:
; 1346 : 		return Py_BuildException();
; 1347 : 	}
; 1348 : 
; 1349 : 	DWORD dwItemIndex = CPythonPlayer::Instance().GetItemIndex(SlotIndex);

  00064	8b 0d 00 00 00
	00		 mov	 ecx, DWORD PTR ?ms_singleton@?$CSingleton@VCPythonPlayer@@@@0PAVCPythonPlayer@@A ; CSingleton<CPythonPlayer>::ms_singleton
  0006a	66 8b 45 fc	 mov	 ax, WORD PTR _SlotIndex$[ebp]
  0006e	83 c1 04	 add	 ecx, 4
  00071	51		 push	 ecx
  00072	8b d4		 mov	 edx, esp
  00074	8b 31		 mov	 esi, DWORD PTR [ecx]
  00076	66 89 02	 mov	 WORD PTR [edx], ax
  00079	8a 45 fe	 mov	 al, BYTE PTR _SlotIndex$[ebp+2]
  0007c	88 42 02	 mov	 BYTE PTR [edx+2], al
  0007f	ff 56 40	 call	 DWORD PTR [esi+64]

; 1350 : 	CItemManager::Instance().SelectItemData(dwItemIndex);

  00082	8b 0d 00 00 00
	00		 mov	 ecx, DWORD PTR ?ms_singleton@?$CSingleton@VCItemManager@@@@0PAVCItemManager@@A ; CSingleton<CItemManager>::ms_singleton
  00088	50		 push	 eax
  00089	e8 00 00 00 00	 call	 ?SelectItemData@CItemManager@@QAEHK@Z ; CItemManager::SelectItemData

; 1351 : 	CItemData * pItemData = CItemManager::Instance().GetSelectedItemDataPointer();

  0008e	8b 0d 00 00 00
	00		 mov	 ecx, DWORD PTR ?ms_singleton@?$CSingleton@VCItemManager@@@@0PAVCItemManager@@A ; CSingleton<CItemManager>::ms_singleton
  00094	e8 00 00 00 00	 call	 ?GetSelectedItemDataPointer@CItemManager@@QAEPAVCItemData@@XZ ; CItemManager::GetSelectedItemDataPointer
  00099	89 45 f8	 mov	 DWORD PTR _pItemData$1$[ebp], eax

; 1352 : 	if (!pItemData)

  0009c	85 c0		 test	 eax, eax
  0009e	75 14		 jne	 SHORT $LN13@playerIsVa

; 1353 : 		return Py_BuildException("Can't find item data");

  000a0	68 00 00 00 00	 push	 OFFSET ??_C@_0BF@BGKCJNBK@Can?8t?5find?5item?5data@
  000a5	e8 00 00 00 00	 call	 ?Py_BuildException@@YAPAU_object@@PBDZZ ; Py_BuildException
  000aa	83 c4 04	 add	 esp, 4

; 1367 : }

  000ad	5f		 pop	 edi
  000ae	5e		 pop	 esi
  000af	5b		 pop	 ebx
  000b0	8b e5		 mov	 esp, ebp
  000b2	5d		 pop	 ebp
  000b3	c3		 ret	 0
$LN13@playerIsVa:

; 1354 : 
; 1355 : 	BOOL hasMetinSocket = FALSE;

  000b4	33 f6		 xor	 esi, esi
  000b6	33 ff		 xor	 edi, edi
  000b8	8d 5e 01	 lea	 ebx, DWORD PTR [esi+1]
  000bb	0f 1f 44 00 00	 npad	 5
$LL6@playerIsVa:

; 1356 : 	BOOL isHighPrice = FALSE;
; 1357 : 
; 1358 : 	for (int i = 0; i < METIN_SOCKET_COUNT; ++i)
; 1359 : 		if (CPythonPlayer::METIN_SOCKET_TYPE_NONE != CPythonPlayer::Instance().GetItemMetinSocket(SlotIndex, i))

  000c0	66 8b 45 fc	 mov	 ax, WORD PTR _SlotIndex$[ebp]
  000c4	57		 push	 edi
  000c5	51		 push	 ecx
  000c6	8b cc		 mov	 ecx, esp
  000c8	66 89 01	 mov	 WORD PTR [ecx], ax
  000cb	8a 45 fe	 mov	 al, BYTE PTR _SlotIndex$[ebp+2]
  000ce	88 41 02	 mov	 BYTE PTR [ecx+2], al
  000d1	8b 0d 00 00 00
	00		 mov	 ecx, DWORD PTR ?ms_singleton@?$CSingleton@VCPythonPlayer@@@@0PAVCPythonPlayer@@A ; CSingleton<CPythonPlayer>::ms_singleton
  000d7	e8 00 00 00 00	 call	 ?GetItemMetinSocket@CPythonPlayer@@QAEKUSItemPos@@K@Z ; CPythonPlayer::GetItemMetinSocket
  000dc	85 c0		 test	 eax, eax
  000de	0f 45 f3	 cmovne	 esi, ebx
  000e1	47		 inc	 edi
  000e2	83 ff 06	 cmp	 edi, 6
  000e5	7c d9		 jl	 SHORT $LL6@playerIsVa

; 1360 : 			hasMetinSocket = TRUE;
; 1361 : 
; 1362 : 	DWORD dwValue = pItemData->GetISellItemPrice();

  000e7	8b 4d f8	 mov	 ecx, DWORD PTR _pItemData$1$[ebp]
  000ea	e8 00 00 00 00	 call	 ?GetISellItemPrice@CItemData@@QBEKXZ ; CItemData::GetISellItemPrice

; 1363 : 	if (dwValue > 5000)

  000ef	3d 88 13 00 00	 cmp	 eax, 5000		; 00001388H
  000f4	bb 00 00 00 00	 mov	 ebx, 0
  000f9	b8 01 00 00 00	 mov	 eax, 1
  000fe	0f 47 d8	 cmova	 ebx, eax

; 1364 : 		isHighPrice = TRUE;
; 1365 : 
; 1366 : 	return Py_BuildValue("i", hasMetinSocket || isHighPrice);

  00101	85 f6		 test	 esi, esi
  00103	75 06		 jne	 SHORT $LN18@playerIsVa
  00105	85 db		 test	 ebx, ebx
  00107	75 02		 jne	 SHORT $LN18@playerIsVa
  00109	33 c0		 xor	 eax, eax
$LN18@playerIsVa:
  0010b	50		 push	 eax
  0010c	68 00 00 00 00	 push	 OFFSET ??_C@_01KBJDNOO@i@
  00111	ff 15 00 00 00
	00		 call	 DWORD PTR __imp__Py_BuildValue
  00117	83 c4 08	 add	 esp, 8

; 1367 : }

  0011a	5f		 pop	 edi
  0011b	5e		 pop	 esi
  0011c	5b		 pop	 ebx
  0011d	8b e5		 mov	 esp, ebp
  0011f	5d		 pop	 ebp
  00120	c3		 ret	 0
?playerIsValuableItem@@YAPAU_object@@PAU1@0@Z ENDP	; playerIsValuableItem
_TEXT	ENDS
; Function compile flags: /Ogtp
; File D:\Metin2 Server Files\mainline\SRC_2014\Metin2Client\UserInterface\PythonPlayerModule.cpp
;	COMDAT ?playerIsOpenPrivateShop@@YAPAU_object@@PAU1@0@Z
_TEXT	SEGMENT
_poSelf$ = 8						; size = 4
_poArgs$ = 12						; size = 4
?playerIsOpenPrivateShop@@YAPAU_object@@PAU1@0@Z PROC	; playerIsOpenPrivateShop, COMDAT

; 1326 : 	return Py_BuildValue("i", CPythonPlayer::Instance().IsOpenPrivateShop());

  00000	8b 0d 00 00 00
	00		 mov	 ecx, DWORD PTR ?ms_singleton@?$CSingleton@VCPythonPlayer@@@@0PAVCPythonPlayer@@A ; CSingleton<CPythonPlayer>::ms_singleton
  00006	e8 00 00 00 00	 call	 ?IsOpenPrivateShop@CPythonPlayer@@QAE_NXZ ; CPythonPlayer::IsOpenPrivateShop
  0000b	0f b6 c0	 movzx	 eax, al
  0000e	50		 push	 eax
  0000f	68 00 00 00 00	 push	 OFFSET ??_C@_01KBJDNOO@i@
  00014	ff 15 00 00 00
	00		 call	 DWORD PTR __imp__Py_BuildValue
  0001a	83 c4 08	 add	 esp, 8

; 1327 : }

  0001d	c3		 ret	 0
?playerIsOpenPrivateShop@@YAPAU_object@@PAU1@0@Z ENDP	; playerIsOpenPrivateShop
_TEXT	ENDS
; Function compile flags: /Ogtp
; File D:\Metin2 Server Files\mainline\SRC_2014\Metin2Client\UserInterface\PythonPlayerModule.cpp
;	COMDAT ?playerIsCostumeSlot@@YAPAU_object@@PAU1@0@Z
_TEXT	SEGMENT
_iSlotIndex$ = -4					; size = 4
_poSelf$ = 8						; size = 4
_poArgs$ = 12						; size = 4
?playerIsCostumeSlot@@YAPAU_object@@PAU1@0@Z PROC	; playerIsCostumeSlot, COMDAT

; 1310 : {

  00000	55		 push	 ebp
  00001	8b ec		 mov	 ebp, esp
  00003	51		 push	 ecx

; 1311 : 	int iSlotIndex;
; 1312 : 	if (!PyTuple_GetInteger(poArgs, 0, &iSlotIndex))

  00004	8d 45 fc	 lea	 eax, DWORD PTR _iSlotIndex$[ebp]
  00007	50		 push	 eax
  00008	6a 00		 push	 0
  0000a	ff 75 0c	 push	 DWORD PTR _poArgs$[ebp]
  0000d	e8 00 00 00 00	 call	 ?PyTuple_GetInteger@@YA_NPAU_object@@HPAH@Z ; PyTuple_GetInteger
  00012	83 c4 0c	 add	 esp, 12			; 0000000cH
  00015	84 c0		 test	 al, al
  00017	75 0e		 jne	 SHORT $LN2@playerIsCo

; 1313 : 		return Py_BuildException();

  00019	6a 00		 push	 0
  0001b	e8 00 00 00 00	 call	 ?Py_BuildException@@YAPAU_object@@PBDZZ ; Py_BuildException
  00020	83 c4 04	 add	 esp, 4

; 1322 : }

  00023	8b e5		 mov	 esp, ebp
  00025	5d		 pop	 ebp
  00026	c3		 ret	 0
$LN2@playerIsCo:

; 1314 : 
; 1315 : #ifdef ENABLE_COSTUME_SYSTEM
; 1316 : 	if (iSlotIndex >= c_Costume_Slot_Start)

  00027	8b 45 fc	 mov	 eax, DWORD PTR _iSlotIndex$[ebp]
  0002a	83 c0 93	 add	 eax, -109		; ffffff93H
  0002d	83 f8 02	 cmp	 eax, 2
  00030	77 14		 ja	 SHORT $LN4@playerIsCo

; 1317 : 	if (iSlotIndex <= c_Costume_Slot_End)
; 1318 : 		return Py_BuildValue("i", 1);

  00032	6a 01		 push	 1

; 1322 : }

  00034	68 00 00 00 00	 push	 OFFSET ??_C@_01KBJDNOO@i@
  00039	ff 15 00 00 00
	00		 call	 DWORD PTR __imp__Py_BuildValue
  0003f	83 c4 08	 add	 esp, 8
  00042	8b e5		 mov	 esp, ebp
  00044	5d		 pop	 ebp
  00045	c3		 ret	 0
$LN4@playerIsCo:

; 1319 : #endif
; 1320 : 
; 1321 : 	return Py_BuildValue("i", 0);

  00046	6a 00		 push	 0

; 1322 : }

  00048	68 00 00 00 00	 push	 OFFSET ??_C@_01KBJDNOO@i@
  0004d	ff 15 00 00 00
	00		 call	 DWORD PTR __imp__Py_BuildValue
  00053	83 c4 08	 add	 esp, 8
  00056	8b e5		 mov	 esp, ebp
  00058	5d		 pop	 ebp
  00059	c3		 ret	 0
?playerIsCostumeSlot@@YAPAU_object@@PAU1@0@Z ENDP	; playerIsCostumeSlot
_TEXT	ENDS
; Function compile flags: /Ogtp
; File D:\Metin2 Server Files\mainline\SRC_2014\Metin2Client\UserInterface\PythonPlayerModule.cpp
;	COMDAT ?playerIsDSEquipmentSlot@@YAPAU_object@@PAU1@0@Z
_TEXT	SEGMENT
_iSlotIndex$ = -8					; size = 4
_bWindowType$ = -1					; size = 1
_poSelf$ = 8						; size = 4
_poArgs$ = 12						; size = 4
?playerIsDSEquipmentSlot@@YAPAU_object@@PAU1@0@Z PROC	; playerIsDSEquipmentSlot, COMDAT

; 1292 : {

  00000	55		 push	 ebp
  00001	8b ec		 mov	 ebp, esp
  00003	83 ec 08	 sub	 esp, 8

; 1293 : 	BYTE bWindowType;
; 1294 : 	if (!PyTuple_GetInteger(poArgs, 0, &bWindowType))

  00006	8d 45 ff	 lea	 eax, DWORD PTR _bWindowType$[ebp]
  00009	50		 push	 eax
  0000a	6a 00		 push	 0
  0000c	ff 75 0c	 push	 DWORD PTR _poArgs$[ebp]
  0000f	e8 00 00 00 00	 call	 ?PyTuple_GetInteger@@YA_NPAU_object@@HPAE@Z ; PyTuple_GetInteger
  00014	83 c4 0c	 add	 esp, 12			; 0000000cH
  00017	84 c0		 test	 al, al
  00019	75 0e		 jne	 SHORT $LN2@playerIsDS
$LN9@playerIsDS:

; 1306 : 
; 1307 : }

  0001b	6a 00		 push	 0
  0001d	e8 00 00 00 00	 call	 ?Py_BuildException@@YAPAU_object@@PBDZZ ; Py_BuildException
  00022	83 c4 04	 add	 esp, 4
  00025	8b e5		 mov	 esp, ebp
  00027	5d		 pop	 ebp
  00028	c3		 ret	 0
$LN2@playerIsDS:

; 1295 : 		return Py_BuildException();
; 1296 : 	int iSlotIndex;
; 1297 : 	if (!PyTuple_GetInteger(poArgs, 1, &iSlotIndex))

  00029	8d 45 f8	 lea	 eax, DWORD PTR _iSlotIndex$[ebp]
  0002c	50		 push	 eax
  0002d	6a 01		 push	 1
  0002f	ff 75 0c	 push	 DWORD PTR _poArgs$[ebp]
  00032	e8 00 00 00 00	 call	 ?PyTuple_GetInteger@@YA_NPAU_object@@HPAH@Z ; PyTuple_GetInteger
  00037	83 c4 0c	 add	 esp, 12			; 0000000cH
  0003a	84 c0		 test	 al, al
  0003c	74 dd		 je	 SHORT $LN9@playerIsDS

; 1298 : 		return Py_BuildException();
; 1299 : 
; 1300 : 	if (INVENTORY == bWindowType)

  0003e	80 7d ff 01	 cmp	 BYTE PTR _bWindowType$[ebp], 1
  00042	75 1f		 jne	 SHORT $LN6@playerIsDS

; 1301 : 	if (iSlotIndex >= c_DragonSoul_Equip_Start)

  00044	8b 45 f8	 mov	 eax, DWORD PTR _iSlotIndex$[ebp]
  00047	83 c0 86	 add	 eax, -122		; ffffff86H
  0004a	83 f8 0c	 cmp	 eax, 12			; 0000000cH
  0004d	77 14		 ja	 SHORT $LN6@playerIsDS

; 1302 : 	if (iSlotIndex <= c_DragonSoul_Equip_End)
; 1303 : 		return Py_BuildValue("i", 1);

  0004f	6a 01		 push	 1

; 1306 : 
; 1307 : }

  00051	68 00 00 00 00	 push	 OFFSET ??_C@_01KBJDNOO@i@
  00056	ff 15 00 00 00
	00		 call	 DWORD PTR __imp__Py_BuildValue
  0005c	83 c4 08	 add	 esp, 8
  0005f	8b e5		 mov	 esp, ebp
  00061	5d		 pop	 ebp
  00062	c3		 ret	 0
$LN6@playerIsDS:

; 1304 : 
; 1305 : 	return Py_BuildValue("i", 0);

  00063	6a 00		 push	 0

; 1306 : 
; 1307 : }

  00065	68 00 00 00 00	 push	 OFFSET ??_C@_01KBJDNOO@i@
  0006a	ff 15 00 00 00
	00		 call	 DWORD PTR __imp__Py_BuildValue
  00070	83 c4 08	 add	 esp, 8
  00073	8b e5		 mov	 esp, ebp
  00075	5d		 pop	 ebp
  00076	c3		 ret	 0
?playerIsDSEquipmentSlot@@YAPAU_object@@PAU1@0@Z ENDP	; playerIsDSEquipmentSlot
_TEXT	ENDS
; Function compile flags: /Ogtp
; File D:\Metin2 Server Files\mainline\SRC_2014\Metin2Client\UserInterface\PythonPlayerModule.cpp
;	COMDAT ?playerIsEquipmentSlot@@YAPAU_object@@PAU1@0@Z
_TEXT	SEGMENT
_iSlotIndex$ = -4					; size = 4
_poSelf$ = 8						; size = 4
_poArgs$ = 12						; size = 4
?playerIsEquipmentSlot@@YAPAU_object@@PAU1@0@Z PROC	; playerIsEquipmentSlot, COMDAT

; 1279 : {

  00000	55		 push	 ebp
  00001	8b ec		 mov	 ebp, esp
  00003	51		 push	 ecx

; 1280 : 	int iSlotIndex;
; 1281 : 	if (!PyTuple_GetInteger(poArgs, 0, &iSlotIndex))

  00004	8d 45 fc	 lea	 eax, DWORD PTR _iSlotIndex$[ebp]
  00007	50		 push	 eax
  00008	6a 00		 push	 0
  0000a	ff 75 0c	 push	 DWORD PTR _poArgs$[ebp]
  0000d	e8 00 00 00 00	 call	 ?PyTuple_GetInteger@@YA_NPAU_object@@HPAH@Z ; PyTuple_GetInteger
  00012	83 c4 0c	 add	 esp, 12			; 0000000cH
  00015	84 c0		 test	 al, al
  00017	75 0e		 jne	 SHORT $LN2@playerIsEq

; 1282 : 		return Py_BuildException();

  00019	6a 00		 push	 0
  0001b	e8 00 00 00 00	 call	 ?Py_BuildException@@YAPAU_object@@PBDZZ ; Py_BuildException
  00020	83 c4 04	 add	 esp, 4

; 1289 : }

  00023	8b e5		 mov	 esp, ebp
  00025	5d		 pop	 ebp
  00026	c3		 ret	 0
$LN2@playerIsEq:

; 1283 : 
; 1284 : 	if (iSlotIndex >= c_Equipment_Start)

  00027	8b 45 fc	 mov	 eax, DWORD PTR _iSlotIndex$[ebp]
  0002a	83 c0 a6	 add	 eax, -90		; ffffffa6H
  0002d	83 f8 2c	 cmp	 eax, 44			; 0000002cH
  00030	77 14		 ja	 SHORT $LN4@playerIsEq

; 1285 : 	if (iSlotIndex <= c_DragonSoul_Equip_End)
; 1286 : 		return Py_BuildValue("i", 1);

  00032	6a 01		 push	 1

; 1289 : }

  00034	68 00 00 00 00	 push	 OFFSET ??_C@_01KBJDNOO@i@
  00039	ff 15 00 00 00
	00		 call	 DWORD PTR __imp__Py_BuildValue
  0003f	83 c4 08	 add	 esp, 8
  00042	8b e5		 mov	 esp, ebp
  00044	5d		 pop	 ebp
  00045	c3		 ret	 0
$LN4@playerIsEq:

; 1287 : 
; 1288 : 	return Py_BuildValue("i", 0);

  00046	6a 00		 push	 0

; 1289 : }

  00048	68 00 00 00 00	 push	 OFFSET ??_C@_01KBJDNOO@i@
  0004d	ff 15 00 00 00
	00		 call	 DWORD PTR __imp__Py_BuildValue
  00053	83 c4 08	 add	 esp, 8
  00056	8b e5		 mov	 esp, ebp
  00058	5d		 pop	 ebp
  00059	c3		 ret	 0
?playerIsEquipmentSlot@@YAPAU_object@@PAU1@0@Z ENDP	; playerIsEquipmentSlot
_TEXT	ENDS
; Function compile flags: /Ogtp
; File D:\Metin2 Server Files\mainline\SRC_2014\Metin2Client\UserInterface\PythonPlayerModule.cpp
; File D:\Metin2 Server Files\mainline\SRC_2014\Metin2Client\UserInterface\GameType.h
; File D:\Metin2 Server Files\mainline\SRC_2014\Metin2Client\UserInterface\PythonPlayerModule.cpp
; File D:\Metin2 Server Files\mainline\SRC_2014\Metin2Client\UserInterface\GameType.h
; File D:\Metin2 Server Files\mainline\SRC_2014\Metin2Client\UserInterface\PythonPlayerModule.cpp
;	COMDAT ?playerIsBeltInventorySlot@@YAPAU_object@@PAU1@0@Z
_TEXT	SEGMENT
_iSlotIndex$ = -8					; size = 4
$T1 = -3						; size = 3
_poSelf$ = 8						; size = 4
_poArgs$ = 12						; size = 4
?playerIsBeltInventorySlot@@YAPAU_object@@PAU1@0@Z PROC	; playerIsBeltInventorySlot, COMDAT

; 1267 : {

  00000	55		 push	 ebp
  00001	8b ec		 mov	 ebp, esp
  00003	83 ec 08	 sub	 esp, 8

; 1268 : 	int iSlotIndex;
; 1269 : 	if (!PyTuple_GetInteger(poArgs, 0, &iSlotIndex))

  00006	8d 45 f8	 lea	 eax, DWORD PTR _iSlotIndex$[ebp]
  00009	50		 push	 eax
  0000a	6a 00		 push	 0
  0000c	ff 75 0c	 push	 DWORD PTR _poArgs$[ebp]
  0000f	e8 00 00 00 00	 call	 ?PyTuple_GetInteger@@YA_NPAU_object@@HPAH@Z ; PyTuple_GetInteger
  00014	83 c4 0c	 add	 esp, 12			; 0000000cH
  00017	84 c0		 test	 al, al
  00019	75 0e		 jne	 SHORT $LN2@playerIsBe

; 1270 : 		return Py_BuildException();

  0001b	6a 00		 push	 0
  0001d	e8 00 00 00 00	 call	 ?Py_BuildException@@YAPAU_object@@PBDZZ ; Py_BuildException
  00022	83 c4 04	 add	 esp, 4

; 1275 : }

  00025	8b e5		 mov	 esp, ebp
  00027	5d		 pop	 ebp
  00028	c3		 ret	 0
$LN2@playerIsBe:
; File D:\Metin2 Server Files\mainline\SRC_2014\Metin2Client\UserInterface\GameType.h

; 192  :         cell = _cell;

  00029	0f b7 45 f8	 movzx	 eax, WORD PTR _iSlotIndex$[ebp]
; File D:\Metin2 Server Files\mainline\SRC_2014\Metin2Client\UserInterface\PythonPlayerModule.cpp

; 1272 : 	char Flag = CPythonPlayer::Instance().IsBeltInventorySlot(TItemPos(INVENTORY, iSlotIndex));

  0002d	51		 push	 ecx
  0002e	8b cc		 mov	 ecx, esp
; File D:\Metin2 Server Files\mainline\SRC_2014\Metin2Client\UserInterface\GameType.h

; 192  :         cell = _cell;

  00030	66 89 45 fe	 mov	 WORD PTR $T1[ebp+1], ax
  00034	c6 45 fd 01	 mov	 BYTE PTR $T1[ebp], 1
; File D:\Metin2 Server Files\mainline\SRC_2014\Metin2Client\UserInterface\PythonPlayerModule.cpp

; 1272 : 	char Flag = CPythonPlayer::Instance().IsBeltInventorySlot(TItemPos(INVENTORY, iSlotIndex));

  00038	0f b7 45 fd	 movzx	 eax, WORD PTR $T1[ebp]
  0003c	66 89 01	 mov	 WORD PTR [ecx], ax
  0003f	8a 45 ff	 mov	 al, BYTE PTR $T1[ebp+2]
  00042	88 41 02	 mov	 BYTE PTR [ecx+2], al
  00045	8b 0d 00 00 00
	00		 mov	 ecx, DWORD PTR ?ms_singleton@?$CSingleton@VCPythonPlayer@@@@0PAVCPythonPlayer@@A ; CSingleton<CPythonPlayer>::ms_singleton
  0004b	e8 00 00 00 00	 call	 ?IsBeltInventorySlot@CPythonPlayer@@QAE_NUSItemPos@@@Z ; CPythonPlayer::IsBeltInventorySlot

; 1273 : 
; 1274 : 	return Py_BuildValue("i", Flag);

  00050	0f be c0	 movsx	 eax, al
  00053	50		 push	 eax
  00054	68 00 00 00 00	 push	 OFFSET ??_C@_01KBJDNOO@i@
  00059	ff 15 00 00 00
	00		 call	 DWORD PTR __imp__Py_BuildValue
  0005f	83 c4 08	 add	 esp, 8

; 1275 : }

  00062	8b e5		 mov	 esp, ebp
  00064	5d		 pop	 ebp
  00065	c3		 ret	 0
?playerIsBeltInventorySlot@@YAPAU_object@@PAU1@0@Z ENDP	; playerIsBeltInventorySlot
_TEXT	ENDS
; Function compile flags: /Ogtp
; File D:\Metin2 Server Files\mainline\SRC_2014\Metin2Client\UserInterface\PythonPlayerModule.cpp
; File D:\Metin2 Server Files\mainline\SRC_2014\Metin2Client\UserInterface\GameType.h
; File D:\Metin2 Server Files\mainline\SRC_2014\Metin2Client\UserInterface\PythonPlayerModule.cpp
; File D:\Metin2 Server Files\mainline\SRC_2014\Metin2Client\UserInterface\GameType.h
; File D:\Metin2 Server Files\mainline\SRC_2014\Metin2Client\UserInterface\PythonPlayerModule.cpp
;	COMDAT ?playerisItem@@YAPAU_object@@PAU1@0@Z
_TEXT	SEGMENT
_iSlotIndex$ = -8					; size = 4
$T1 = -3						; size = 3
_poSelf$ = 8						; size = 4
_poArgs$ = 12						; size = 4
?playerisItem@@YAPAU_object@@PAU1@0@Z PROC		; playerisItem, COMDAT

; 1255 : {

  00000	55		 push	 ebp
  00001	8b ec		 mov	 ebp, esp
  00003	83 ec 08	 sub	 esp, 8

; 1256 : 	int iSlotIndex;
; 1257 : 	if (!PyTuple_GetInteger(poArgs, 0, &iSlotIndex))

  00006	8d 45 f8	 lea	 eax, DWORD PTR _iSlotIndex$[ebp]
  00009	50		 push	 eax
  0000a	6a 00		 push	 0
  0000c	ff 75 0c	 push	 DWORD PTR _poArgs$[ebp]
  0000f	e8 00 00 00 00	 call	 ?PyTuple_GetInteger@@YA_NPAU_object@@HPAH@Z ; PyTuple_GetInteger
  00014	83 c4 0c	 add	 esp, 12			; 0000000cH
  00017	84 c0		 test	 al, al
  00019	75 0e		 jne	 SHORT $LN2@playerisIt

; 1258 : 		return Py_BuildException();

  0001b	6a 00		 push	 0
  0001d	e8 00 00 00 00	 call	 ?Py_BuildException@@YAPAU_object@@PBDZZ ; Py_BuildException
  00022	83 c4 04	 add	 esp, 4

; 1263 : }

  00025	8b e5		 mov	 esp, ebp
  00027	5d		 pop	 ebp
  00028	c3		 ret	 0
$LN2@playerisIt:
; File D:\Metin2 Server Files\mainline\SRC_2014\Metin2Client\UserInterface\GameType.h

; 192  :         cell = _cell;

  00029	0f b7 45 f8	 movzx	 eax, WORD PTR _iSlotIndex$[ebp]
; File D:\Metin2 Server Files\mainline\SRC_2014\Metin2Client\UserInterface\PythonPlayerModule.cpp

; 1260 : 	char Flag = CPythonPlayer::Instance().IsItem(TItemPos(INVENTORY, iSlotIndex));

  0002d	51		 push	 ecx
  0002e	8b cc		 mov	 ecx, esp
; File D:\Metin2 Server Files\mainline\SRC_2014\Metin2Client\UserInterface\GameType.h

; 192  :         cell = _cell;

  00030	66 89 45 fe	 mov	 WORD PTR $T1[ebp+1], ax
  00034	c6 45 fd 01	 mov	 BYTE PTR $T1[ebp], 1
; File D:\Metin2 Server Files\mainline\SRC_2014\Metin2Client\UserInterface\PythonPlayerModule.cpp

; 1260 : 	char Flag = CPythonPlayer::Instance().IsItem(TItemPos(INVENTORY, iSlotIndex));

  00038	0f b7 45 fd	 movzx	 eax, WORD PTR $T1[ebp]
  0003c	66 89 01	 mov	 WORD PTR [ecx], ax
  0003f	8a 45 ff	 mov	 al, BYTE PTR $T1[ebp+2]
  00042	88 41 02	 mov	 BYTE PTR [ecx+2], al
  00045	8b 0d 00 00 00
	00		 mov	 ecx, DWORD PTR ?ms_singleton@?$CSingleton@VCPythonPlayer@@@@0PAVCPythonPlayer@@A ; CSingleton<CPythonPlayer>::ms_singleton
  0004b	e8 00 00 00 00	 call	 ?IsItem@CPythonPlayer@@QAEDUSItemPos@@@Z ; CPythonPlayer::IsItem

; 1261 : 
; 1262 : 	return Py_BuildValue("i", Flag);

  00050	0f be c0	 movsx	 eax, al
  00053	50		 push	 eax
  00054	68 00 00 00 00	 push	 OFFSET ??_C@_01KBJDNOO@i@
  00059	ff 15 00 00 00
	00		 call	 DWORD PTR __imp__Py_BuildValue
  0005f	83 c4 08	 add	 esp, 8

; 1263 : }

  00062	8b e5		 mov	 esp, ebp
  00064	5d		 pop	 ebp
  00065	c3		 ret	 0
?playerisItem@@YAPAU_object@@PAU1@0@Z ENDP		; playerisItem
_TEXT	ENDS
; Function compile flags: /Ogtp
; File D:\Metin2 Server Files\mainline\SRC_2014\Metin2Client\UserInterface\PythonPlayerModule.cpp
;	COMDAT ?playerRemoveQuickSlotByValue@@YAPAU_object@@PAU1@0@Z
_TEXT	SEGMENT
_iType$ = -8						; size = 4
_iPosition$ = -4					; size = 4
_poSelf$ = 8						; size = 4
_poArgs$ = 12						; size = 4
?playerRemoveQuickSlotByValue@@YAPAU_object@@PAU1@0@Z PROC ; playerRemoveQuickSlotByValue, COMDAT

; 1240 : {

  00000	55		 push	 ebp
  00001	8b ec		 mov	 ebp, esp
  00003	83 ec 08	 sub	 esp, 8

; 1241 : 	int iType;
; 1242 : 	if (!PyTuple_GetInteger(poArgs, 0, &iType))

  00006	8d 45 f8	 lea	 eax, DWORD PTR _iType$[ebp]
  00009	50		 push	 eax
  0000a	6a 00		 push	 0
  0000c	ff 75 0c	 push	 DWORD PTR _poArgs$[ebp]
  0000f	e8 00 00 00 00	 call	 ?PyTuple_GetInteger@@YA_NPAU_object@@HPAH@Z ; PyTuple_GetInteger
  00014	83 c4 0c	 add	 esp, 12			; 0000000cH
  00017	84 c0		 test	 al, al
  00019	75 0e		 jne	 SHORT $LN2@playerRemo
$LN5@playerRemo:

; 1252 : }

  0001b	6a 00		 push	 0
  0001d	e8 00 00 00 00	 call	 ?Py_BuildException@@YAPAU_object@@PBDZZ ; Py_BuildException
  00022	83 c4 04	 add	 esp, 4
  00025	8b e5		 mov	 esp, ebp
  00027	5d		 pop	 ebp
  00028	c3		 ret	 0
$LN2@playerRemo:

; 1243 : 		return Py_BuildException();
; 1244 : 	
; 1245 : 	int iPosition;
; 1246 : 	if (!PyTuple_GetInteger(poArgs, 1, &iPosition))

  00029	8d 45 fc	 lea	 eax, DWORD PTR _iPosition$[ebp]
  0002c	50		 push	 eax
  0002d	6a 01		 push	 1
  0002f	ff 75 0c	 push	 DWORD PTR _poArgs$[ebp]
  00032	e8 00 00 00 00	 call	 ?PyTuple_GetInteger@@YA_NPAU_object@@HPAH@Z ; PyTuple_GetInteger
  00037	83 c4 0c	 add	 esp, 12			; 0000000cH
  0003a	84 c0		 test	 al, al
  0003c	74 dd		 je	 SHORT $LN5@playerRemo

; 1247 : 		return Py_BuildException();
; 1248 : 
; 1249 : 	CPythonPlayer::Instance().RemoveQuickSlotByValue(iType, iPosition);

  0003e	ff 75 fc	 push	 DWORD PTR _iPosition$[ebp]
  00041	8b 0d 00 00 00
	00		 mov	 ecx, DWORD PTR ?ms_singleton@?$CSingleton@VCPythonPlayer@@@@0PAVCPythonPlayer@@A ; CSingleton<CPythonPlayer>::ms_singleton
  00047	ff 75 f8	 push	 DWORD PTR _iType$[ebp]
  0004a	e8 00 00 00 00	 call	 ?RemoveQuickSlotByValue@CPythonPlayer@@QAEXHH@Z ; CPythonPlayer::RemoveQuickSlotByValue

; 1250 : 
; 1251 : 	return Py_BuildNone();

  0004f	e8 00 00 00 00	 call	 ?Py_BuildNone@@YAPAU_object@@XZ ; Py_BuildNone

; 1252 : }

  00054	8b e5		 mov	 esp, ebp
  00056	5d		 pop	 ebp
  00057	c3		 ret	 0
?playerRemoveQuickSlotByValue@@YAPAU_object@@PAU1@0@Z ENDP ; playerRemoveQuickSlotByValue
_TEXT	ENDS
; Function compile flags: /Ogtp
; File D:\Metin2 Server Files\mainline\SRC_2014\Metin2Client\UserInterface\PythonPlayerModule.cpp
;	COMDAT ?playerRequestUseLocalQuickSlot@@YAPAU_object@@PAU1@0@Z
_TEXT	SEGMENT
_iLocalPosition$ = -4					; size = 4
_poSelf$ = 8						; size = 4
_poArgs$ = 12						; size = 4
?playerRequestUseLocalQuickSlot@@YAPAU_object@@PAU1@0@Z PROC ; playerRequestUseLocalQuickSlot, COMDAT

; 1229 : {

  00000	55		 push	 ebp
  00001	8b ec		 mov	 ebp, esp
  00003	51		 push	 ecx

; 1230 : 	int iLocalPosition;
; 1231 : 	if (!PyTuple_GetInteger(poArgs, 0, &iLocalPosition))

  00004	8d 45 fc	 lea	 eax, DWORD PTR _iLocalPosition$[ebp]
  00007	50		 push	 eax
  00008	6a 00		 push	 0
  0000a	ff 75 0c	 push	 DWORD PTR _poArgs$[ebp]
  0000d	e8 00 00 00 00	 call	 ?PyTuple_GetInteger@@YA_NPAU_object@@HPAH@Z ; PyTuple_GetInteger
  00012	83 c4 0c	 add	 esp, 12			; 0000000cH
  00015	84 c0		 test	 al, al
  00017	75 0e		 jne	 SHORT $LN2@playerRequ

; 1232 : 		return Py_BuildException();

  00019	6a 00		 push	 0
  0001b	e8 00 00 00 00	 call	 ?Py_BuildException@@YAPAU_object@@PBDZZ ; Py_BuildException
  00020	83 c4 04	 add	 esp, 4

; 1237 : }

  00023	8b e5		 mov	 esp, ebp
  00025	5d		 pop	 ebp
  00026	c3		 ret	 0
$LN2@playerRequ:

; 1233 : 
; 1234 : 	CPythonPlayer::Instance().RequestUseLocalQuickSlot(iLocalPosition);

  00027	ff 75 fc	 push	 DWORD PTR _iLocalPosition$[ebp]
  0002a	8b 0d 00 00 00
	00		 mov	 ecx, DWORD PTR ?ms_singleton@?$CSingleton@VCPythonPlayer@@@@0PAVCPythonPlayer@@A ; CSingleton<CPythonPlayer>::ms_singleton
  00030	e8 00 00 00 00	 call	 ?RequestUseLocalQuickSlot@CPythonPlayer@@QAEXK@Z ; CPythonPlayer::RequestUseLocalQuickSlot

; 1235 : 
; 1236 : 	return Py_BuildNone();

  00035	e8 00 00 00 00	 call	 ?Py_BuildNone@@YAPAU_object@@XZ ; Py_BuildNone

; 1237 : }

  0003a	8b e5		 mov	 esp, ebp
  0003c	5d		 pop	 ebp
  0003d	c3		 ret	 0
?playerRequestUseLocalQuickSlot@@YAPAU_object@@PAU1@0@Z ENDP ; playerRequestUseLocalQuickSlot
_TEXT	ENDS
; Function compile flags: /Ogtp
; File D:\Metin2 Server Files\mainline\SRC_2014\Metin2Client\UserInterface\PythonPlayerModule.cpp
;	COMDAT ?playerRequestMoveGlobalQuickSlotToLocalQuickSlot@@YAPAU_object@@PAU1@0@Z
_TEXT	SEGMENT
_nGlobalSrcSlotIndex$ = -8				; size = 4
_nLocalDstSlotIndex$ = -4				; size = 4
_poSelf$ = 8						; size = 4
_poArgs$ = 12						; size = 4
?playerRequestMoveGlobalQuickSlotToLocalQuickSlot@@YAPAU_object@@PAU1@0@Z PROC ; playerRequestMoveGlobalQuickSlotToLocalQuickSlot, COMDAT

; 1213 : {

  00000	55		 push	 ebp
  00001	8b ec		 mov	 ebp, esp
  00003	83 ec 08	 sub	 esp, 8

; 1214 : 	int nGlobalSrcSlotIndex;
; 1215 : 	int nLocalDstSlotIndex;
; 1216 : 
; 1217 : 	if (!PyTuple_GetInteger(poArgs, 0, &nGlobalSrcSlotIndex))

  00006	8d 45 f8	 lea	 eax, DWORD PTR _nGlobalSrcSlotIndex$[ebp]
  00009	50		 push	 eax
  0000a	6a 00		 push	 0
  0000c	ff 75 0c	 push	 DWORD PTR _poArgs$[ebp]
  0000f	e8 00 00 00 00	 call	 ?PyTuple_GetInteger@@YA_NPAU_object@@HPAH@Z ; PyTuple_GetInteger
  00014	83 c4 0c	 add	 esp, 12			; 0000000cH
  00017	84 c0		 test	 al, al
  00019	75 0e		 jne	 SHORT $LN2@playerRequ
$LN5@playerRequ:

; 1226 : }

  0001b	6a 00		 push	 0
  0001d	e8 00 00 00 00	 call	 ?Py_BuildException@@YAPAU_object@@PBDZZ ; Py_BuildException
  00022	83 c4 04	 add	 esp, 4
  00025	8b e5		 mov	 esp, ebp
  00027	5d		 pop	 ebp
  00028	c3		 ret	 0
$LN2@playerRequ:

; 1218 : 		return Py_BuildException();
; 1219 : 
; 1220 : 	if (!PyTuple_GetInteger(poArgs, 1, &nLocalDstSlotIndex))

  00029	8d 45 fc	 lea	 eax, DWORD PTR _nLocalDstSlotIndex$[ebp]
  0002c	50		 push	 eax
  0002d	6a 01		 push	 1
  0002f	ff 75 0c	 push	 DWORD PTR _poArgs$[ebp]
  00032	e8 00 00 00 00	 call	 ?PyTuple_GetInteger@@YA_NPAU_object@@HPAH@Z ; PyTuple_GetInteger
  00037	83 c4 0c	 add	 esp, 12			; 0000000cH
  0003a	84 c0		 test	 al, al
  0003c	74 dd		 je	 SHORT $LN5@playerRequ

; 1221 : 		return Py_BuildException();
; 1222 : 
; 1223 : 	CPythonPlayer& rkPlayer=CPythonPlayer::Instance();
; 1224 : 	rkPlayer.RequestMoveGlobalQuickSlotToLocalQuickSlot(nGlobalSrcSlotIndex, nLocalDstSlotIndex);

  0003e	ff 75 fc	 push	 DWORD PTR _nLocalDstSlotIndex$[ebp]
  00041	8b 0d 00 00 00
	00		 mov	 ecx, DWORD PTR ?ms_singleton@?$CSingleton@VCPythonPlayer@@@@0PAVCPythonPlayer@@A ; CSingleton<CPythonPlayer>::ms_singleton
  00047	ff 75 f8	 push	 DWORD PTR _nGlobalSrcSlotIndex$[ebp]
  0004a	e8 00 00 00 00	 call	 ?RequestMoveGlobalQuickSlotToLocalQuickSlot@CPythonPlayer@@QAEXKK@Z ; CPythonPlayer::RequestMoveGlobalQuickSlotToLocalQuickSlot

; 1225 : 	return Py_BuildNone();

  0004f	e8 00 00 00 00	 call	 ?Py_BuildNone@@YAPAU_object@@XZ ; Py_BuildNone

; 1226 : }

  00054	8b e5		 mov	 esp, ebp
  00056	5d		 pop	 ebp
  00057	c3		 ret	 0
?playerRequestMoveGlobalQuickSlotToLocalQuickSlot@@YAPAU_object@@PAU1@0@Z ENDP ; playerRequestMoveGlobalQuickSlotToLocalQuickSlot
_TEXT	ENDS
; Function compile flags: /Ogtp
; File D:\Metin2 Server Files\mainline\SRC_2014\Metin2Client\UserInterface\PythonPlayerModule.cpp
;	COMDAT ?playerRequestDeleteGlobalQuickSlot@@YAPAU_object@@PAU1@0@Z
_TEXT	SEGMENT
_nGlobalSlotIndex$ = -4					; size = 4
_poSelf$ = 8						; size = 4
_poArgs$ = 12						; size = 4
?playerRequestDeleteGlobalQuickSlot@@YAPAU_object@@PAU1@0@Z PROC ; playerRequestDeleteGlobalQuickSlot, COMDAT

; 1202 : {

  00000	55		 push	 ebp
  00001	8b ec		 mov	 ebp, esp
  00003	51		 push	 ecx

; 1203 : 	int nGlobalSlotIndex;
; 1204 : 	if (!PyTuple_GetInteger(poArgs, 0, &nGlobalSlotIndex))

  00004	8d 45 fc	 lea	 eax, DWORD PTR _nGlobalSlotIndex$[ebp]
  00007	50		 push	 eax
  00008	6a 00		 push	 0
  0000a	ff 75 0c	 push	 DWORD PTR _poArgs$[ebp]
  0000d	e8 00 00 00 00	 call	 ?PyTuple_GetInteger@@YA_NPAU_object@@HPAH@Z ; PyTuple_GetInteger
  00012	83 c4 0c	 add	 esp, 12			; 0000000cH
  00015	84 c0		 test	 al, al
  00017	75 0e		 jne	 SHORT $LN2@playerRequ

; 1205 : 		return Py_BuildException();

  00019	6a 00		 push	 0
  0001b	e8 00 00 00 00	 call	 ?Py_BuildException@@YAPAU_object@@PBDZZ ; Py_BuildException
  00020	83 c4 04	 add	 esp, 4

; 1210 : }

  00023	8b e5		 mov	 esp, ebp
  00025	5d		 pop	 ebp
  00026	c3		 ret	 0
$LN2@playerRequ:

; 1206 : 
; 1207 : 	CPythonPlayer& rkPlayer=CPythonPlayer::Instance();
; 1208 : 	rkPlayer.RequestDeleteGlobalQuickSlot(nGlobalSlotIndex);	

  00027	ff 75 fc	 push	 DWORD PTR _nGlobalSlotIndex$[ebp]
  0002a	8b 0d 00 00 00
	00		 mov	 ecx, DWORD PTR ?ms_singleton@?$CSingleton@VCPythonPlayer@@@@0PAVCPythonPlayer@@A ; CSingleton<CPythonPlayer>::ms_singleton
  00030	e8 00 00 00 00	 call	 ?RequestDeleteGlobalQuickSlot@CPythonPlayer@@QAEXK@Z ; CPythonPlayer::RequestDeleteGlobalQuickSlot

; 1209 : 	return Py_BuildNone();

  00035	e8 00 00 00 00	 call	 ?Py_BuildNone@@YAPAU_object@@XZ ; Py_BuildNone

; 1210 : }

  0003a	8b e5		 mov	 esp, ebp
  0003c	5d		 pop	 ebp
  0003d	c3		 ret	 0
?playerRequestDeleteGlobalQuickSlot@@YAPAU_object@@PAU1@0@Z ENDP ; playerRequestDeleteGlobalQuickSlot
_TEXT	ENDS
; Function compile flags: /Ogtp
; File D:\Metin2 Server Files\mainline\SRC_2014\Metin2Client\UserInterface\PythonPlayerModule.cpp
;	COMDAT ?playerRequestAddToEmptyLocalQuickSlot@@YAPAU_object@@PAU1@0@Z
_TEXT	SEGMENT
_nWndType$ = -8						; size = 4
_nWndItemPos$ = -4					; size = 4
_poSelf$ = 8						; size = 4
_poArgs$ = 12						; size = 4
?playerRequestAddToEmptyLocalQuickSlot@@YAPAU_object@@PAU1@0@Z PROC ; playerRequestAddToEmptyLocalQuickSlot, COMDAT

; 1186 : {

  00000	55		 push	 ebp
  00001	8b ec		 mov	 ebp, esp
  00003	83 ec 08	 sub	 esp, 8

; 1187 : 	int nWndType;
; 1188 : 	if (!PyTuple_GetInteger(poArgs, 0, &nWndType))

  00006	8d 45 f8	 lea	 eax, DWORD PTR _nWndType$[ebp]
  00009	50		 push	 eax
  0000a	6a 00		 push	 0
  0000c	ff 75 0c	 push	 DWORD PTR _poArgs$[ebp]
  0000f	e8 00 00 00 00	 call	 ?PyTuple_GetInteger@@YA_NPAU_object@@HPAH@Z ; PyTuple_GetInteger
  00014	83 c4 0c	 add	 esp, 12			; 0000000cH
  00017	84 c0		 test	 al, al
  00019	75 0e		 jne	 SHORT $LN2@playerRequ
$LN5@playerRequ:

; 1199 : }

  0001b	6a 00		 push	 0
  0001d	e8 00 00 00 00	 call	 ?Py_BuildException@@YAPAU_object@@PBDZZ ; Py_BuildException
  00022	83 c4 04	 add	 esp, 4
  00025	8b e5		 mov	 esp, ebp
  00027	5d		 pop	 ebp
  00028	c3		 ret	 0
$LN2@playerRequ:

; 1189 : 		return Py_BuildException();
; 1190 : 
; 1191 : 	int nWndItemPos;
; 1192 : 	if (!PyTuple_GetInteger(poArgs, 1, &nWndItemPos))

  00029	8d 45 fc	 lea	 eax, DWORD PTR _nWndItemPos$[ebp]
  0002c	50		 push	 eax
  0002d	6a 01		 push	 1
  0002f	ff 75 0c	 push	 DWORD PTR _poArgs$[ebp]
  00032	e8 00 00 00 00	 call	 ?PyTuple_GetInteger@@YA_NPAU_object@@HPAH@Z ; PyTuple_GetInteger
  00037	83 c4 0c	 add	 esp, 12			; 0000000cH
  0003a	84 c0		 test	 al, al
  0003c	74 dd		 je	 SHORT $LN5@playerRequ

; 1193 : 		return Py_BuildException();
; 1194 : 
; 1195 : 	CPythonPlayer& rkPlayer=CPythonPlayer::Instance();
; 1196 : 	rkPlayer.RequestAddToEmptyLocalQuickSlot(nWndType, nWndItemPos);

  0003e	ff 75 fc	 push	 DWORD PTR _nWndItemPos$[ebp]
  00041	8b 0d 00 00 00
	00		 mov	 ecx, DWORD PTR ?ms_singleton@?$CSingleton@VCPythonPlayer@@@@0PAVCPythonPlayer@@A ; CSingleton<CPythonPlayer>::ms_singleton
  00047	ff 75 f8	 push	 DWORD PTR _nWndType$[ebp]
  0004a	e8 00 00 00 00	 call	 ?RequestAddToEmptyLocalQuickSlot@CPythonPlayer@@QAEXKK@Z ; CPythonPlayer::RequestAddToEmptyLocalQuickSlot

; 1197 : 
; 1198 : 	return Py_BuildNone();

  0004f	e8 00 00 00 00	 call	 ?Py_BuildNone@@YAPAU_object@@XZ ; Py_BuildNone

; 1199 : }

  00054	8b e5		 mov	 esp, ebp
  00056	5d		 pop	 ebp
  00057	c3		 ret	 0
?playerRequestAddToEmptyLocalQuickSlot@@YAPAU_object@@PAU1@0@Z ENDP ; playerRequestAddToEmptyLocalQuickSlot
_TEXT	ENDS
; Function compile flags: /Ogtp
; File D:\Metin2 Server Files\mainline\SRC_2014\Metin2Client\UserInterface\PythonPlayerModule.cpp
;	COMDAT ?playerRequestAddLocalQuickSlot@@YAPAU_object@@PAU1@0@Z
_TEXT	SEGMENT
_nSlotIndex$ = -12					; size = 4
_nWndType$ = -8						; size = 4
_nWndItemPos$ = -4					; size = 4
_poSelf$ = 8						; size = 4
_poArgs$ = 12						; size = 4
?playerRequestAddLocalQuickSlot@@YAPAU_object@@PAU1@0@Z PROC ; playerRequestAddLocalQuickSlot, COMDAT

; 1165 : {

  00000	55		 push	 ebp
  00001	8b ec		 mov	 ebp, esp
  00003	83 ec 0c	 sub	 esp, 12			; 0000000cH

; 1166 : 	int nSlotIndex;
; 1167 : 	int nWndType;
; 1168 : 	int nWndItemPos;
; 1169 : 	
; 1170 : 	if (!PyTuple_GetInteger(poArgs, 0, &nSlotIndex))

  00006	8d 45 f4	 lea	 eax, DWORD PTR _nSlotIndex$[ebp]
  00009	56		 push	 esi
  0000a	8b 75 0c	 mov	 esi, DWORD PTR _poArgs$[ebp]
  0000d	50		 push	 eax
  0000e	6a 00		 push	 0
  00010	56		 push	 esi
  00011	e8 00 00 00 00	 call	 ?PyTuple_GetInteger@@YA_NPAU_object@@HPAH@Z ; PyTuple_GetInteger
  00016	83 c4 0c	 add	 esp, 12			; 0000000cH
  00019	84 c0		 test	 al, al
  0001b	75 0f		 jne	 SHORT $LN2@playerRequ
$LN6@playerRequ:

; 1183 : }

  0001d	6a 00		 push	 0
  0001f	e8 00 00 00 00	 call	 ?Py_BuildException@@YAPAU_object@@PBDZZ ; Py_BuildException
  00024	83 c4 04	 add	 esp, 4
  00027	5e		 pop	 esi
  00028	8b e5		 mov	 esp, ebp
  0002a	5d		 pop	 ebp
  0002b	c3		 ret	 0
$LN2@playerRequ:

; 1171 : 		return Py_BuildException();
; 1172 : 
; 1173 : 	if (!PyTuple_GetInteger(poArgs, 1, &nWndType))

  0002c	8d 45 f8	 lea	 eax, DWORD PTR _nWndType$[ebp]
  0002f	50		 push	 eax
  00030	6a 01		 push	 1
  00032	56		 push	 esi
  00033	e8 00 00 00 00	 call	 ?PyTuple_GetInteger@@YA_NPAU_object@@HPAH@Z ; PyTuple_GetInteger
  00038	83 c4 0c	 add	 esp, 12			; 0000000cH
  0003b	84 c0		 test	 al, al
  0003d	74 de		 je	 SHORT $LN6@playerRequ

; 1174 : 		return Py_BuildException();
; 1175 : 
; 1176 : 	if (!PyTuple_GetInteger(poArgs, 2, &nWndItemPos))

  0003f	8d 45 fc	 lea	 eax, DWORD PTR _nWndItemPos$[ebp]
  00042	50		 push	 eax
  00043	6a 02		 push	 2
  00045	56		 push	 esi
  00046	e8 00 00 00 00	 call	 ?PyTuple_GetInteger@@YA_NPAU_object@@HPAH@Z ; PyTuple_GetInteger
  0004b	83 c4 0c	 add	 esp, 12			; 0000000cH
  0004e	84 c0		 test	 al, al
  00050	74 cb		 je	 SHORT $LN6@playerRequ

; 1177 : 		return Py_BuildException();
; 1178 : 
; 1179 : 	CPythonPlayer& rkPlayer=CPythonPlayer::Instance();
; 1180 : 	rkPlayer.RequestAddLocalQuickSlot(nSlotIndex, nWndType, nWndItemPos);

  00052	ff 75 fc	 push	 DWORD PTR _nWndItemPos$[ebp]
  00055	8b 0d 00 00 00
	00		 mov	 ecx, DWORD PTR ?ms_singleton@?$CSingleton@VCPythonPlayer@@@@0PAVCPythonPlayer@@A ; CSingleton<CPythonPlayer>::ms_singleton
  0005b	ff 75 f8	 push	 DWORD PTR _nWndType$[ebp]
  0005e	ff 75 f4	 push	 DWORD PTR _nSlotIndex$[ebp]
  00061	e8 00 00 00 00	 call	 ?RequestAddLocalQuickSlot@CPythonPlayer@@QAEXKKK@Z ; CPythonPlayer::RequestAddLocalQuickSlot

; 1181 : 
; 1182 : 	return Py_BuildNone();

  00066	e8 00 00 00 00	 call	 ?Py_BuildNone@@YAPAU_object@@XZ ; Py_BuildNone
  0006b	5e		 pop	 esi

; 1183 : }

  0006c	8b e5		 mov	 esp, ebp
  0006e	5d		 pop	 ebp
  0006f	c3		 ret	 0
?playerRequestAddLocalQuickSlot@@YAPAU_object@@PAU1@0@Z ENDP ; playerRequestAddLocalQuickSlot
_TEXT	ENDS
; Function compile flags: /Ogtp
; File D:\Metin2 Server Files\mainline\SRC_2014\Metin2Client\UserInterface\PythonPlayerModule.cpp
;	COMDAT ?playerGetGlobalQuickSlot@@YAPAU_object@@PAU1@0@Z
_TEXT	SEGMENT
_dwWndType$ = -12					; size = 4
_dwWndItemPos$ = -8					; size = 4
_iSlotIndex$ = -4					; size = 4
_poSelf$ = 8						; size = 4
_poArgs$ = 12						; size = 4
?playerGetGlobalQuickSlot@@YAPAU_object@@PAU1@0@Z PROC	; playerGetGlobalQuickSlot, COMDAT

; 1149 : {

  00000	55		 push	 ebp
  00001	8b ec		 mov	 ebp, esp
  00003	83 ec 0c	 sub	 esp, 12			; 0000000cH

; 1150 : 	int iSlotIndex;
; 1151 : 	if (!PyTuple_GetInteger(poArgs, 0, &iSlotIndex))

  00006	8d 45 fc	 lea	 eax, DWORD PTR _iSlotIndex$[ebp]
  00009	50		 push	 eax
  0000a	6a 00		 push	 0
  0000c	ff 75 0c	 push	 DWORD PTR _poArgs$[ebp]
  0000f	e8 00 00 00 00	 call	 ?PyTuple_GetInteger@@YA_NPAU_object@@HPAH@Z ; PyTuple_GetInteger
  00014	83 c4 0c	 add	 esp, 12			; 0000000cH
  00017	84 c0		 test	 al, al
  00019	75 0e		 jne	 SHORT $LN2@playerGetG

; 1152 : 		return Py_BuildException();

  0001b	6a 00		 push	 0
  0001d	e8 00 00 00 00	 call	 ?Py_BuildException@@YAPAU_object@@PBDZZ ; Py_BuildException
  00022	83 c4 04	 add	 esp, 4

; 1161 : }

  00025	8b e5		 mov	 esp, ebp
  00027	5d		 pop	 ebp
  00028	c3		 ret	 0
$LN2@playerGetG:

; 1153 : 
; 1154 : 	DWORD dwWndType;
; 1155 : 	DWORD dwWndItemPos;
; 1156 : 
; 1157 : 	CPythonPlayer& rkPlayer=CPythonPlayer::Instance();
; 1158 : 	rkPlayer.GetGlobalQuickSlotData(iSlotIndex, &dwWndType, &dwWndItemPos);

  00029	8b 0d 00 00 00
	00		 mov	 ecx, DWORD PTR ?ms_singleton@?$CSingleton@VCPythonPlayer@@@@0PAVCPythonPlayer@@A ; CSingleton<CPythonPlayer>::ms_singleton
  0002f	8d 45 f8	 lea	 eax, DWORD PTR _dwWndItemPos$[ebp]
  00032	50		 push	 eax
  00033	8d 45 f4	 lea	 eax, DWORD PTR _dwWndType$[ebp]
  00036	50		 push	 eax
  00037	ff 75 fc	 push	 DWORD PTR _iSlotIndex$[ebp]
  0003a	e8 00 00 00 00	 call	 ?GetGlobalQuickSlotData@CPythonPlayer@@QAEXKPAK0@Z ; CPythonPlayer::GetGlobalQuickSlotData

; 1159 : 
; 1160 : 	return Py_BuildValue("ii", dwWndType, dwWndItemPos);

  0003f	ff 75 f8	 push	 DWORD PTR _dwWndItemPos$[ebp]
  00042	ff 75 f4	 push	 DWORD PTR _dwWndType$[ebp]
  00045	68 00 00 00 00	 push	 OFFSET ??_C@_02PDIHAGKM@ii@
  0004a	ff 15 00 00 00
	00		 call	 DWORD PTR __imp__Py_BuildValue
  00050	83 c4 0c	 add	 esp, 12			; 0000000cH

; 1161 : }

  00053	8b e5		 mov	 esp, ebp
  00055	5d		 pop	 ebp
  00056	c3		 ret	 0
?playerGetGlobalQuickSlot@@YAPAU_object@@PAU1@0@Z ENDP	; playerGetGlobalQuickSlot
_TEXT	ENDS
; Function compile flags: /Ogtp
; File D:\Metin2 Server Files\mainline\SRC_2014\Metin2Client\UserInterface\PythonPlayerModule.cpp
;	COMDAT ?playerGetLocalQuickSlot@@YAPAU_object@@PAU1@0@Z
_TEXT	SEGMENT
_dwWndType$ = -12					; size = 4
_dwWndItemPos$ = -8					; size = 4
_iSlotIndex$ = -4					; size = 4
_poSelf$ = 8						; size = 4
_poArgs$ = 12						; size = 4
?playerGetLocalQuickSlot@@YAPAU_object@@PAU1@0@Z PROC	; playerGetLocalQuickSlot, COMDAT

; 1134 : {

  00000	55		 push	 ebp
  00001	8b ec		 mov	 ebp, esp
  00003	83 ec 0c	 sub	 esp, 12			; 0000000cH

; 1135 : 	int iSlotIndex;
; 1136 : 	if (!PyTuple_GetInteger(poArgs, 0, &iSlotIndex))

  00006	8d 45 fc	 lea	 eax, DWORD PTR _iSlotIndex$[ebp]
  00009	50		 push	 eax
  0000a	6a 00		 push	 0
  0000c	ff 75 0c	 push	 DWORD PTR _poArgs$[ebp]
  0000f	e8 00 00 00 00	 call	 ?PyTuple_GetInteger@@YA_NPAU_object@@HPAH@Z ; PyTuple_GetInteger
  00014	83 c4 0c	 add	 esp, 12			; 0000000cH
  00017	84 c0		 test	 al, al
  00019	75 0e		 jne	 SHORT $LN2@playerGetL

; 1137 : 		return Py_BuildException();

  0001b	6a 00		 push	 0
  0001d	e8 00 00 00 00	 call	 ?Py_BuildException@@YAPAU_object@@PBDZZ ; Py_BuildException
  00022	83 c4 04	 add	 esp, 4

; 1146 : }

  00025	8b e5		 mov	 esp, ebp
  00027	5d		 pop	 ebp
  00028	c3		 ret	 0
$LN2@playerGetL:

; 1138 : 
; 1139 : 	DWORD dwWndType;
; 1140 : 	DWORD dwWndItemPos;
; 1141 : 
; 1142 : 	CPythonPlayer& rkPlayer=CPythonPlayer::Instance();
; 1143 : 	rkPlayer.GetLocalQuickSlotData(iSlotIndex, &dwWndType, &dwWndItemPos);

  00029	8b 0d 00 00 00
	00		 mov	 ecx, DWORD PTR ?ms_singleton@?$CSingleton@VCPythonPlayer@@@@0PAVCPythonPlayer@@A ; CSingleton<CPythonPlayer>::ms_singleton
  0002f	8d 45 f8	 lea	 eax, DWORD PTR _dwWndItemPos$[ebp]
  00032	50		 push	 eax
  00033	8d 45 f4	 lea	 eax, DWORD PTR _dwWndType$[ebp]
  00036	50		 push	 eax
  00037	ff 75 fc	 push	 DWORD PTR _iSlotIndex$[ebp]
  0003a	e8 00 00 00 00	 call	 ?GetLocalQuickSlotData@CPythonPlayer@@QAEXKPAK0@Z ; CPythonPlayer::GetLocalQuickSlotData

; 1144 : 
; 1145 : 	return Py_BuildValue("ii", dwWndType, dwWndItemPos);

  0003f	ff 75 f8	 push	 DWORD PTR _dwWndItemPos$[ebp]
  00042	ff 75 f4	 push	 DWORD PTR _dwWndType$[ebp]
  00045	68 00 00 00 00	 push	 OFFSET ??_C@_02PDIHAGKM@ii@
  0004a	ff 15 00 00 00
	00		 call	 DWORD PTR __imp__Py_BuildValue
  00050	83 c4 0c	 add	 esp, 12			; 0000000cH

; 1146 : }

  00053	8b e5		 mov	 esp, ebp
  00055	5d		 pop	 ebp
  00056	c3		 ret	 0
?playerGetLocalQuickSlot@@YAPAU_object@@PAU1@0@Z ENDP	; playerGetLocalQuickSlot
_TEXT	ENDS
; Function compile flags: /Ogtp
; File D:\Metin2 Server Files\mainline\SRC_2014\Metin2Client\UserInterface\PythonPlayerModule.cpp
;	COMDAT ?playerLocalQuickSlotIndexToGlobalQuickSlotIndex@@YAPAU_object@@PAU1@0@Z
_TEXT	SEGMENT
_iLocalSlotIndex$ = -4					; size = 4
_poSelf$ = 8						; size = 4
_poArgs$ = 12						; size = 4
?playerLocalQuickSlotIndexToGlobalQuickSlotIndex@@YAPAU_object@@PAU1@0@Z PROC ; playerLocalQuickSlotIndexToGlobalQuickSlotIndex, COMDAT

; 1123 : {

  00000	55		 push	 ebp
  00001	8b ec		 mov	 ebp, esp
  00003	51		 push	 ecx

; 1124 : 	int iLocalSlotIndex;
; 1125 : 	if (!PyTuple_GetInteger(poArgs, 0, &iLocalSlotIndex))

  00004	8d 45 fc	 lea	 eax, DWORD PTR _iLocalSlotIndex$[ebp]
  00007	50		 push	 eax
  00008	6a 00		 push	 0
  0000a	ff 75 0c	 push	 DWORD PTR _poArgs$[ebp]
  0000d	e8 00 00 00 00	 call	 ?PyTuple_GetInteger@@YA_NPAU_object@@HPAH@Z ; PyTuple_GetInteger
  00012	83 c4 0c	 add	 esp, 12			; 0000000cH
  00015	84 c0		 test	 al, al
  00017	75 0e		 jne	 SHORT $LN2@playerLoca

; 1126 : 		return Py_BuildException();

  00019	6a 00		 push	 0
  0001b	e8 00 00 00 00	 call	 ?Py_BuildException@@YAPAU_object@@PBDZZ ; Py_BuildException
  00020	83 c4 04	 add	 esp, 4

; 1130 : }

  00023	8b e5		 mov	 esp, ebp
  00025	5d		 pop	 ebp
  00026	c3		 ret	 0
$LN2@playerLoca:

; 1127 : 
; 1128 : 	CPythonPlayer& rkPlayer=CPythonPlayer::Instance();
; 1129 : 	return Py_BuildValue("i", rkPlayer.LocalQuickSlotIndexToGlobalQuickSlotIndex(iLocalSlotIndex));

  00027	ff 75 fc	 push	 DWORD PTR _iLocalSlotIndex$[ebp]
  0002a	8b 0d 00 00 00
	00		 mov	 ecx, DWORD PTR ?ms_singleton@?$CSingleton@VCPythonPlayer@@@@0PAVCPythonPlayer@@A ; CSingleton<CPythonPlayer>::ms_singleton
  00030	e8 00 00 00 00	 call	 ?LocalQuickSlotIndexToGlobalQuickSlotIndex@CPythonPlayer@@QAEKK@Z ; CPythonPlayer::LocalQuickSlotIndexToGlobalQuickSlotIndex
  00035	50		 push	 eax
  00036	68 00 00 00 00	 push	 OFFSET ??_C@_01KBJDNOO@i@
  0003b	ff 15 00 00 00
	00		 call	 DWORD PTR __imp__Py_BuildValue
  00041	83 c4 08	 add	 esp, 8

; 1130 : }

  00044	8b e5		 mov	 esp, ebp
  00046	5d		 pop	 ebp
  00047	c3		 ret	 0
?playerLocalQuickSlotIndexToGlobalQuickSlotIndex@@YAPAU_object@@PAU1@0@Z ENDP ; playerLocalQuickSlotIndexToGlobalQuickSlotIndex
_TEXT	ENDS
; Function compile flags: /Ogtp
; File D:\Metin2 Server Files\mainline\SRC_2014\Metin2Client\UserInterface\PythonPlayerModule.cpp
;	COMDAT ?playerSetQuickPage@@YAPAU_object@@PAU1@0@Z
_TEXT	SEGMENT
_iPageIndex$ = -4					; size = 4
_poSelf$ = 8						; size = 4
_poArgs$ = 12						; size = 4
?playerSetQuickPage@@YAPAU_object@@PAU1@0@Z PROC	; playerSetQuickPage, COMDAT

; 1113 : {

  00000	55		 push	 ebp
  00001	8b ec		 mov	 ebp, esp
  00003	51		 push	 ecx

; 1114 : 	int iPageIndex;
; 1115 : 	if (!PyTuple_GetInteger(poArgs, 0, &iPageIndex))

  00004	8d 45 fc	 lea	 eax, DWORD PTR _iPageIndex$[ebp]
  00007	50		 push	 eax
  00008	6a 00		 push	 0
  0000a	ff 75 0c	 push	 DWORD PTR _poArgs$[ebp]
  0000d	e8 00 00 00 00	 call	 ?PyTuple_GetInteger@@YA_NPAU_object@@HPAH@Z ; PyTuple_GetInteger
  00012	83 c4 0c	 add	 esp, 12			; 0000000cH
  00015	84 c0		 test	 al, al
  00017	75 0e		 jne	 SHORT $LN2@playerSetQ

; 1116 : 		return Py_BuildException();

  00019	6a 00		 push	 0
  0001b	e8 00 00 00 00	 call	 ?Py_BuildException@@YAPAU_object@@PBDZZ ; Py_BuildException
  00020	83 c4 04	 add	 esp, 4

; 1120 : }

  00023	8b e5		 mov	 esp, ebp
  00025	5d		 pop	 ebp
  00026	c3		 ret	 0
$LN2@playerSetQ:

; 1117 : 
; 1118 : 	CPythonPlayer::Instance().SetQuickPage(iPageIndex);

  00027	ff 75 fc	 push	 DWORD PTR _iPageIndex$[ebp]
  0002a	8b 0d 00 00 00
	00		 mov	 ecx, DWORD PTR ?ms_singleton@?$CSingleton@VCPythonPlayer@@@@0PAVCPythonPlayer@@A ; CSingleton<CPythonPlayer>::ms_singleton
  00030	e8 00 00 00 00	 call	 ?SetQuickPage@CPythonPlayer@@QAEXH@Z ; CPythonPlayer::SetQuickPage

; 1119 : 	return Py_BuildNone();

  00035	e8 00 00 00 00	 call	 ?Py_BuildNone@@YAPAU_object@@XZ ; Py_BuildNone

; 1120 : }

  0003a	8b e5		 mov	 esp, ebp
  0003c	5d		 pop	 ebp
  0003d	c3		 ret	 0
?playerSetQuickPage@@YAPAU_object@@PAU1@0@Z ENDP	; playerSetQuickPage
_TEXT	ENDS
; Function compile flags: /Ogtp
; File D:\Metin2 Server Files\mainline\SRC_2014\Metin2Client\UserInterface\PythonPlayerModule.cpp
;	COMDAT ?playerGetQuickPage@@YAPAU_object@@PAU1@0@Z
_TEXT	SEGMENT
_poSelf$ = 8						; size = 4
_poArgs$ = 12						; size = 4
?playerGetQuickPage@@YAPAU_object@@PAU1@0@Z PROC	; playerGetQuickPage, COMDAT

; 1109 : 	return Py_BuildValue("i", CPythonPlayer::Instance().GetQuickPage());

  00000	8b 0d 00 00 00
	00		 mov	 ecx, DWORD PTR ?ms_singleton@?$CSingleton@VCPythonPlayer@@@@0PAVCPythonPlayer@@A ; CSingleton<CPythonPlayer>::ms_singleton
  00006	e8 00 00 00 00	 call	 ?GetQuickPage@CPythonPlayer@@QAEHXZ ; CPythonPlayer::GetQuickPage
  0000b	50		 push	 eax
  0000c	68 00 00 00 00	 push	 OFFSET ??_C@_01KBJDNOO@i@
  00011	ff 15 00 00 00
	00		 call	 DWORD PTR __imp__Py_BuildValue
  00017	83 c4 08	 add	 esp, 8

; 1110 : }

  0001a	c3		 ret	 0
?playerGetQuickPage@@YAPAU_object@@PAU1@0@Z ENDP	; playerGetQuickPage
_TEXT	ENDS
; Function compile flags: /Ogtp
; File D:\Metin2 Server Files\mainline\SRC_2014\Metin2Client\UserInterface\PythonPlayerModule.cpp
; File D:\Metin2 Server Files\mainline\SRC_2014\Metin2Client\UserInterface\GameType.h
; File D:\Metin2 Server Files\mainline\SRC_2014\Metin2Client\UserInterface\PythonPlayerModule.cpp
; File D:\Metin2 Server Files\mainline\SRC_2014\Metin2Client\UserInterface\GameType.h
; File D:\Metin2 Server Files\mainline\SRC_2014\Metin2Client\UserInterface\PythonPlayerModule.cpp
;	COMDAT ?playerGetISellItemPrice@@YAPAU_object@@PAU1@0@Z
_TEXT	SEGMENT
_pItemData$ = -8					; size = 4
_Cell$ = -4						; size = 3
_poSelf$ = 8						; size = 4
_poArgs$ = 12						; size = 4
?playerGetISellItemPrice@@YAPAU_object@@PAU1@0@Z PROC	; playerGetISellItemPrice, COMDAT

; 1073 : {

  00000	55		 push	 ebp
  00001	8b ec		 mov	 ebp, esp
  00003	83 ec 08	 sub	 esp, 8
  00006	56		 push	 esi

; 1076 : 	switch (PyTuple_Size(poArgs))

  00007	8b 75 0c	 mov	 esi, DWORD PTR _poArgs$[ebp]
; File D:\Metin2 Server Files\mainline\SRC_2014\Metin2Client\UserInterface\GameType.h

; 187  : 		cell = WORD_MAX;

  0000a	b8 ff ff 00 00	 mov	 eax, 65535		; 0000ffffH
; File D:\Metin2 Server Files\mainline\SRC_2014\Metin2Client\UserInterface\PythonPlayerModule.cpp

; 1076 : 	switch (PyTuple_Size(poArgs))

  0000f	56		 push	 esi
; File D:\Metin2 Server Files\mainline\SRC_2014\Metin2Client\UserInterface\GameType.h

; 186  : 		window_type =     INVENTORY;

  00010	c6 45 fc 01	 mov	 BYTE PTR _Cell$[ebp], 1

; 187  : 		cell = WORD_MAX;

  00014	66 89 45 fd	 mov	 WORD PTR _Cell$[ebp+1], ax
; File D:\Metin2 Server Files\mainline\SRC_2014\Metin2Client\UserInterface\PythonPlayerModule.cpp

; 1076 : 	switch (PyTuple_Size(poArgs))

  00018	ff 15 00 00 00
	00		 call	 DWORD PTR __imp__PyTuple_Size
  0001e	83 c4 04	 add	 esp, 4
  00021	83 e8 01	 sub	 eax, 1
  00024	74 20		 je	 SHORT $LN4@playerGetI
  00026	83 e8 01	 sub	 eax, 1
  00029	75 2e		 jne	 SHORT $LN17@playerGetI

; 1080 : 			return Py_BuildException();
; 1081 : 		break;
; 1082 : 	case 2:
; 1083 : 		if (!PyTuple_GetByte(poArgs, 0, &Cell.window_type))

  0002b	8d 45 fc	 lea	 eax, DWORD PTR _Cell$[ebp]
  0002e	50		 push	 eax
  0002f	6a 00		 push	 0
  00031	56		 push	 esi
  00032	e8 00 00 00 00	 call	 ?PyTuple_GetByte@@YA_NPAU_object@@HPAE@Z ; PyTuple_GetByte
  00037	83 c4 0c	 add	 esp, 12			; 0000000cH
  0003a	84 c0		 test	 al, al
  0003c	74 1b		 je	 SHORT $LN17@playerGetI

; 1084 : 			return Py_BuildException();
; 1085 : 		if (!PyTuple_GetInteger(poArgs, 1, &Cell.cell))

  0003e	8d 45 fd	 lea	 eax, DWORD PTR _Cell$[ebp+1]
  00041	50		 push	 eax
  00042	6a 01		 push	 1

; 1086 : 			return Py_BuildException();

  00044	eb 06		 jmp	 SHORT $LN18@playerGetI
$LN4@playerGetI:

; 1077 : 	{
; 1078 : 	case 1:	
; 1079 : 		if (!PyTuple_GetInteger(poArgs, 0, &Cell.cell))

  00046	8d 45 fd	 lea	 eax, DWORD PTR _Cell$[ebp+1]
  00049	50		 push	 eax
  0004a	6a 00		 push	 0
$LN18@playerGetI:

; 1105 : }

  0004c	56		 push	 esi
  0004d	e8 00 00 00 00	 call	 ?PyTuple_GetInteger@@YA_NPAU_object@@HPAG@Z ; PyTuple_GetInteger
  00052	83 c4 0c	 add	 esp, 12			; 0000000cH
  00055	84 c0		 test	 al, al
  00057	75 0f		 jne	 SHORT $LN5@playerGetI
$LN17@playerGetI:
  00059	6a 00		 push	 0
  0005b	e8 00 00 00 00	 call	 ?Py_BuildException@@YAPAU_object@@PBDZZ ; Py_BuildException
  00060	83 c4 04	 add	 esp, 4
  00063	5e		 pop	 esi
  00064	8b e5		 mov	 esp, ebp
  00066	5d		 pop	 ebp
  00067	c3		 ret	 0
$LN5@playerGetI:

; 1087 : 		break;
; 1088 : 	default:
; 1089 : 		return Py_BuildException();
; 1090 : 	}
; 1091 : 	CItemData * pItemData;
; 1092 : 
; 1093 : 	if (!CItemManager::Instance().GetItemDataPointer(CPythonPlayer::Instance().GetItemIndex(Cell), &pItemData))

  00068	8b 0d 00 00 00
	00		 mov	 ecx, DWORD PTR ?ms_singleton@?$CSingleton@VCPythonPlayer@@@@0PAVCPythonPlayer@@A ; CSingleton<CPythonPlayer>::ms_singleton
  0006e	8d 45 f8	 lea	 eax, DWORD PTR _pItemData$[ebp]
  00071	50		 push	 eax
  00072	66 8b 45 fc	 mov	 ax, WORD PTR _Cell$[ebp]
  00076	83 c1 04	 add	 ecx, 4
  00079	51		 push	 ecx
  0007a	8b d4		 mov	 edx, esp
  0007c	8b 31		 mov	 esi, DWORD PTR [ecx]
  0007e	66 89 02	 mov	 WORD PTR [edx], ax
  00081	8a 45 fe	 mov	 al, BYTE PTR _Cell$[ebp+2]
  00084	88 42 02	 mov	 BYTE PTR [edx+2], al
  00087	ff 56 40	 call	 DWORD PTR [esi+64]
  0008a	8b 0d 00 00 00
	00		 mov	 ecx, DWORD PTR ?ms_singleton@?$CSingleton@VCItemManager@@@@0PAVCItemManager@@A ; CSingleton<CItemManager>::ms_singleton
  00090	50		 push	 eax
  00091	e8 00 00 00 00	 call	 ?GetItemDataPointer@CItemManager@@QAEHKPAPAVCItemData@@@Z ; CItemManager::GetItemDataPointer
  00096	85 c0		 test	 eax, eax
  00098	75 14		 jne	 SHORT $LN10@playerGetI

; 1094 : 		return Py_BuildValue("i", 0);

  0009a	50		 push	 eax

; 1105 : }

  0009b	68 00 00 00 00	 push	 OFFSET ??_C@_01KBJDNOO@i@
  000a0	ff 15 00 00 00
	00		 call	 DWORD PTR __imp__Py_BuildValue
  000a6	83 c4 08	 add	 esp, 8
  000a9	5e		 pop	 esi
  000aa	8b e5		 mov	 esp, ebp
  000ac	5d		 pop	 ebp
  000ad	c3		 ret	 0
$LN10@playerGetI:

; 1095 : 
; 1096 : 	int iPrice;
; 1097 : 
; 1098 : 	if (pItemData->IsFlag(CItemData::ITEM_FLAG_COUNT_PER_1GOLD))

  000ae	8b 4d f8	 mov	 ecx, DWORD PTR _pItemData$[ebp]
  000b1	6a 08		 push	 8
  000b3	e8 00 00 00 00	 call	 ?IsFlag@CItemData@@QBEHK@Z ; CItemData::IsFlag
  000b8	8b 0d 00 00 00
	00		 mov	 ecx, DWORD PTR ?ms_singleton@?$CSingleton@VCPythonPlayer@@@@0PAVCPythonPlayer@@A ; CSingleton<CPythonPlayer>::ms_singleton
  000be	83 c1 04	 add	 ecx, 4
  000c1	85 c0		 test	 eax, eax
  000c3	66 8b 45 fc	 mov	 ax, WORD PTR _Cell$[ebp]
  000c7	51		 push	 ecx
  000c8	8b d4		 mov	 edx, esp
  000ca	8b 31		 mov	 esi, DWORD PTR [ecx]
  000cc	66 89 02	 mov	 WORD PTR [edx], ax
  000cf	8a 45 fe	 mov	 al, BYTE PTR _Cell$[ebp+2]
  000d2	88 42 02	 mov	 BYTE PTR [edx+2], al
  000d5	74 19		 je	 SHORT $LN11@playerGetI

; 1099 : 		iPrice = CPythonPlayer::Instance().GetItemCount(Cell) / pItemData->GetISellItemPrice();

  000d7	ff 56 48	 call	 DWORD PTR [esi+72]
  000da	8b 4d f8	 mov	 ecx, DWORD PTR _pItemData$[ebp]
  000dd	8b f0		 mov	 esi, eax
  000df	e8 00 00 00 00	 call	 ?GetISellItemPrice@CItemData@@QBEKXZ ; CItemData::GetISellItemPrice
  000e4	8b c8		 mov	 ecx, eax
  000e6	33 d2		 xor	 edx, edx
  000e8	8b c6		 mov	 eax, esi
  000ea	f7 f1		 div	 ecx
  000ec	8b c8		 mov	 ecx, eax
  000ee	eb 12		 jmp	 SHORT $LN12@playerGetI
$LN11@playerGetI:

; 1100 : 	else
; 1101 : 		iPrice = pItemData->GetISellItemPrice() * CPythonPlayer::Instance().GetItemCount(Cell);

  000f0	ff 56 48	 call	 DWORD PTR [esi+72]
  000f3	8b 4d f8	 mov	 ecx, DWORD PTR _pItemData$[ebp]
  000f6	8b f0		 mov	 esi, eax
  000f8	e8 00 00 00 00	 call	 ?GetISellItemPrice@CItemData@@QBEKXZ ; CItemData::GetISellItemPrice
  000fd	8b c8		 mov	 ecx, eax
  000ff	0f af ce	 imul	 ecx, esi
$LN12@playerGetI:

; 1102 : 
; 1103 : 	iPrice /= 5;

  00102	b8 67 66 66 66	 mov	 eax, 1717986919		; 66666667H
  00107	f7 e9		 imul	 ecx
  00109	d1 fa		 sar	 edx, 1
  0010b	8b c2		 mov	 eax, edx
  0010d	c1 e8 1f	 shr	 eax, 31			; 0000001fH
  00110	03 c2		 add	 eax, edx

; 1104 : 	return Py_BuildValue("i", iPrice);

  00112	50		 push	 eax

; 1105 : }

  00113	68 00 00 00 00	 push	 OFFSET ??_C@_01KBJDNOO@i@
  00118	ff 15 00 00 00
	00		 call	 DWORD PTR __imp__Py_BuildValue
  0011e	83 c4 08	 add	 esp, 8
  00121	5e		 pop	 esi
  00122	8b e5		 mov	 esp, ebp
  00124	5d		 pop	 ebp
  00125	c3		 ret	 0
?playerGetISellItemPrice@@YAPAU_object@@PAU1@0@Z ENDP	; playerGetISellItemPrice
_TEXT	ENDS
; Function compile flags: /Ogtp
; File D:\Metin2 Server Files\mainline\SRC_2014\Metin2Client\UserInterface\PythonPlayerModule.cpp
; File D:\Metin2 Server Files\mainline\SRC_2014\Metin2Client\UserInterface\GameType.h
; File D:\Metin2 Server Files\mainline\SRC_2014\Metin2Client\UserInterface\PythonPlayerModule.cpp
; File D:\Metin2 Server Files\mainline\SRC_2014\Metin2Client\UserInterface\GameType.h
; File D:\Metin2 Server Files\mainline\SRC_2014\Metin2Client\UserInterface\PythonPlayerModule.cpp
;	COMDAT ?playerGetItemLink@@YAPAU_object@@PAU1@0@Z
_TEXT	SEGMENT
_pItemData$ = -1296					; size = 4
_Cell$ = -1292						; size = 3
_isAttr$1$ = -1285					; size = 1
_buf$ = -1284						; size = 1024
_itemlink$1 = -260					; size = 256
__$ArrayPad$ = -4					; size = 4
_poSelf$ = 8						; size = 4
_poArgs$ = 12						; size = 4
?playerGetItemLink@@YAPAU_object@@PAU1@0@Z PROC		; playerGetItemLink, COMDAT

; 1011 : {

  00000	55		 push	 ebp
  00001	8b ec		 mov	 ebp, esp
  00003	81 ec 10 05 00
	00		 sub	 esp, 1296		; 00000510H
  00009	a1 00 00 00 00	 mov	 eax, DWORD PTR ___security_cookie
  0000e	33 c5		 xor	 eax, ebp
  00010	89 45 fc	 mov	 DWORD PTR __$ArrayPad$[ebp], eax
  00013	53		 push	 ebx
  00014	56		 push	 esi
  00015	8b 75 0c	 mov	 esi, DWORD PTR _poArgs$[ebp]
; File D:\Metin2 Server Files\mainline\SRC_2014\Metin2Client\UserInterface\GameType.h

; 187  : 		cell = WORD_MAX;

  00018	b8 ff ff 00 00	 mov	 eax, 65535		; 0000ffffH
; File D:\Metin2 Server Files\mainline\SRC_2014\Metin2Client\UserInterface\PythonPlayerModule.cpp

; 1011 : {

  0001d	57		 push	 edi

; 1014 : 	switch (PyTuple_Size(poArgs))

  0001e	56		 push	 esi
; File D:\Metin2 Server Files\mainline\SRC_2014\Metin2Client\UserInterface\GameType.h

; 186  : 		window_type =     INVENTORY;

  0001f	c6 85 f4 fa ff
	ff 01		 mov	 BYTE PTR _Cell$[ebp], 1

; 187  : 		cell = WORD_MAX;

  00026	66 89 85 f5 fa
	ff ff		 mov	 WORD PTR _Cell$[ebp+1], ax
; File D:\Metin2 Server Files\mainline\SRC_2014\Metin2Client\UserInterface\PythonPlayerModule.cpp

; 1014 : 	switch (PyTuple_Size(poArgs))

  0002d	ff 15 00 00 00
	00		 call	 DWORD PTR __imp__PyTuple_Size
  00033	83 c4 04	 add	 esp, 4
  00036	83 e8 01	 sub	 eax, 1
  00039	74 26		 je	 SHORT $LN7@playerGetI
  0003b	83 e8 01	 sub	 eax, 1
  0003e	75 37		 jne	 SHORT $LN33@playerGetI

; 1018 : 			return Py_BuildException();
; 1019 : 		break;
; 1020 : 	case 2:
; 1021 : 		if (!PyTuple_GetByte(poArgs, 0, &Cell.window_type))

  00040	8d 85 f4 fa ff
	ff		 lea	 eax, DWORD PTR _Cell$[ebp]
  00046	50		 push	 eax
  00047	6a 00		 push	 0
  00049	56		 push	 esi
  0004a	e8 00 00 00 00	 call	 ?PyTuple_GetByte@@YA_NPAU_object@@HPAE@Z ; PyTuple_GetByte
  0004f	83 c4 0c	 add	 esp, 12			; 0000000cH
  00052	84 c0		 test	 al, al
  00054	74 21		 je	 SHORT $LN33@playerGetI

; 1022 : 			return Py_BuildException();
; 1023 : 		if (!PyTuple_GetInteger(poArgs, 1, &Cell.cell))

  00056	8d 85 f5 fa ff
	ff		 lea	 eax, DWORD PTR _Cell$[ebp+1]
  0005c	50		 push	 eax
  0005d	6a 01		 push	 1

; 1024 : 			return Py_BuildException();

  0005f	eb 09		 jmp	 SHORT $LN34@playerGetI
$LN7@playerGetI:

; 1015 : 	{
; 1016 : 	case 1:	
; 1017 : 		if (!PyTuple_GetInteger(poArgs, 0, &Cell.cell))

  00061	8d 85 f5 fa ff
	ff		 lea	 eax, DWORD PTR _Cell$[ebp+1]
  00067	50		 push	 eax
  00068	6a 00		 push	 0
$LN34@playerGetI:

; 1070 : }

  0006a	56		 push	 esi
  0006b	e8 00 00 00 00	 call	 ?PyTuple_GetInteger@@YA_NPAU_object@@HPAG@Z ; PyTuple_GetInteger
  00070	83 c4 0c	 add	 esp, 12			; 0000000cH
  00073	84 c0		 test	 al, al
  00075	75 1b		 jne	 SHORT $LN8@playerGetI
$LN33@playerGetI:
  00077	6a 00		 push	 0
  00079	e8 00 00 00 00	 call	 ?Py_BuildException@@YAPAU_object@@PBDZZ ; Py_BuildException
  0007e	83 c4 04	 add	 esp, 4
  00081	5f		 pop	 edi
  00082	5e		 pop	 esi
  00083	5b		 pop	 ebx
  00084	8b 4d fc	 mov	 ecx, DWORD PTR __$ArrayPad$[ebp]
  00087	33 cd		 xor	 ecx, ebp
  00089	e8 00 00 00 00	 call	 @__security_check_cookie@4
  0008e	8b e5		 mov	 esp, ebp
  00090	5d		 pop	 ebp
  00091	c3		 ret	 0
$LN8@playerGetI:

; 1025 : 		break;
; 1026 : 	default:
; 1027 : 		return Py_BuildException();
; 1028 : 	}
; 1029 : 	const TItemData * pPlayerItem = CPythonPlayer::Instance().GetItemData(Cell);

  00092	66 8b 85 f4 fa
	ff ff		 mov	 ax, WORD PTR _Cell$[ebp]
  00099	51		 push	 ecx
  0009a	8b cc		 mov	 ecx, esp
  0009c	66 89 01	 mov	 WORD PTR [ecx], ax
  0009f	8a 85 f6 fa ff
	ff		 mov	 al, BYTE PTR _Cell$[ebp+2]
  000a5	88 41 02	 mov	 BYTE PTR [ecx+2], al
  000a8	8b 0d 00 00 00
	00		 mov	 ecx, DWORD PTR ?ms_singleton@?$CSingleton@VCPythonPlayer@@@@0PAVCPythonPlayer@@A ; CSingleton<CPythonPlayer>::ms_singleton
  000ae	e8 00 00 00 00	 call	 ?GetItemData@CPythonPlayer@@QBEPBUpacket_item@@USItemPos@@@Z ; CPythonPlayer::GetItemData
  000b3	8b f0		 mov	 esi, eax

; 1030 : 	CItemData * pItemData = NULL;

  000b5	c7 85 f0 fa ff
	ff 00 00 00 00	 mov	 DWORD PTR _pItemData$[ebp], 0

; 1031 : 	char buf[1024];
; 1032 : 
; 1033 : 	if (pPlayerItem && CItemManager::Instance().GetItemDataPointer(pPlayerItem->vnum, &pItemData))

  000bf	85 f6		 test	 esi, esi
  000c1	0f 84 01 01 00
	00		 je	 $LN13@playerGetI
  000c7	8b 0d 00 00 00
	00		 mov	 ecx, DWORD PTR ?ms_singleton@?$CSingleton@VCItemManager@@@@0PAVCItemManager@@A ; CSingleton<CItemManager>::ms_singleton
  000cd	8d 85 f0 fa ff
	ff		 lea	 eax, DWORD PTR _pItemData$[ebp]
  000d3	50		 push	 eax
  000d4	ff 36		 push	 DWORD PTR [esi]
  000d6	e8 00 00 00 00	 call	 ?GetItemDataPointer@CItemManager@@QAEHKPAPAVCItemData@@@Z ; CItemManager::GetItemDataPointer
  000db	85 c0		 test	 eax, eax
  000dd	0f 84 e5 00 00
	00		 je	 $LN13@playerGetI

; 1034 : 	{
; 1035 : 		char itemlink[256];
; 1036 : 		int len;
; 1037 : 		bool isAttr = false;
; 1038 : 
; 1039 : 		len = snprintf(itemlink, sizeof(itemlink), "item:%x:%x:%x:%x:%x", 

  000e3	ff 76 15	 push	 DWORD PTR [esi+21]
  000e6	32 c0		 xor	 al, al
  000e8	ff 76 11	 push	 DWORD PTR [esi+17]
  000eb	88 85 fb fa ff
	ff		 mov	 BYTE PTR _isAttr$1$[ebp], al
  000f1	8d 85 fc fe ff
	ff		 lea	 eax, DWORD PTR _itemlink$1[ebp]
  000f7	ff 76 0d	 push	 DWORD PTR [esi+13]
  000fa	ff 76 05	 push	 DWORD PTR [esi+5]
  000fd	ff 36		 push	 DWORD PTR [esi]
  000ff	68 00 00 00 00	 push	 OFFSET ??_C@_0BE@FGPADLIF@item?3?$CFx?3?$CFx?3?$CFx?3?$CFx?3?$CFx@
  00104	68 00 01 00 00	 push	 256			; 00000100H
  00109	50		 push	 eax
  0010a	e8 00 00 00 00	 call	 __snprintf
  0010f	83 c4 20	 add	 esp, 32			; 00000020H
  00112	8b f8		 mov	 edi, eax
  00114	83 c6 1a	 add	 esi, 26			; 0000001aH
  00117	bb 07 00 00 00	 mov	 ebx, 7
  0011c	0f 1f 40 00	 npad	 4
$LL6@playerGetI:

; 1044 : 			if (pPlayerItem->aAttr[i].bType != 0)

  00120	8a 4e ff	 mov	 cl, BYTE PTR [esi-1]
  00123	84 c9		 test	 cl, cl
  00125	74 2f		 je	 SHORT $LN4@playerGetI

; 1045 : 			{
; 1046 : 				len += snprintf(itemlink + len, sizeof(itemlink) - len, ":%x:%d", 

  00127	0f bf 06	 movsx	 eax, WORD PTR [esi]
  0012a	50		 push	 eax
  0012b	0f b6 c1	 movzx	 eax, cl
  0012e	50		 push	 eax
  0012f	b8 00 01 00 00	 mov	 eax, 256		; 00000100H
  00134	2b c7		 sub	 eax, edi
  00136	68 00 00 00 00	 push	 OFFSET ??_C@_06FAMCNHHL@?3?$CFx?3?$CFd@
  0013b	50		 push	 eax
  0013c	8d 85 fc fe ff
	ff		 lea	 eax, DWORD PTR _itemlink$1[ebp]
  00142	03 c7		 add	 eax, edi
  00144	50		 push	 eax
  00145	e8 00 00 00 00	 call	 __snprintf
  0014a	83 c4 14	 add	 esp, 20			; 00000014H

; 1047 : 						pPlayerItem->aAttr[i].bType, pPlayerItem->aAttr[i].sValue);
; 1048 : 				isAttr = true;

  0014d	c6 85 fb fa ff
	ff 01		 mov	 BYTE PTR _isAttr$1$[ebp], 1
  00154	03 f8		 add	 edi, eax
$LN4@playerGetI:

; 1040 : 				pPlayerItem->vnum, pPlayerItem->flags,
; 1041 : 				pPlayerItem->alSockets[0], pPlayerItem->alSockets[1], pPlayerItem->alSockets[2]);
; 1042 : 
; 1043 : 		for (int i = 0; i < ITEM_ATTRIBUTE_SLOT_MAX_NUM; ++i)

  00156	83 c6 03	 add	 esi, 3
  00159	83 eb 01	 sub	 ebx, 1
  0015c	75 c2		 jne	 SHORT $LL6@playerGetI

; 1049 : 			}
; 1050 : 
; 1051 : 
; 1052 : 		if( GetDefaultCodePage() == CP_ARABIC ) {

  0015e	e8 00 00 00 00	 call	 ?GetDefaultCodePage@@YAKXZ ; GetDefaultCodePage
  00163	8b 8d f0 fa ff
	ff		 mov	 ecx, DWORD PTR _pItemData$[ebp]
  00169	3d e8 04 00 00	 cmp	 eax, 1256		; 000004e8H
  0016e	75 21		 jne	 SHORT $LN16@playerGetI

; 1053 : 			if (isAttr)
; 1054 : 				//"item:::0:1:2"
; 1055 : 				snprintf(buf, sizeof(buf), " |h|r[%s]|cffffc700|H%s|h", pItemData->GetName(), itemlink);

  00170	be 00 00 00 00	 mov	 esi, OFFSET ??_C@_0BK@MCOKCAKI@?5?$HMh?$HMr?$FL?$CFs?$FN?$HMcffffc700?$HMH?$CFs?$HMh@
  00175	38 9d fb fa ff
	ff		 cmp	 BYTE PTR _isAttr$1$[ebp], bl
  0017b	75 05		 jne	 SHORT $LN31@playerGetI

; 1056 : 			else
; 1057 : 				snprintf(buf, sizeof(buf), " |h|r[%s]|cfff1e6c0|H%s|h", pItemData->GetName(), itemlink);

  0017d	be 00 00 00 00	 mov	 esi, OFFSET ??_C@_0BK@MGKBEPOF@?5?$HMh?$HMr?$FL?$CFs?$FN?$HMcfff1e6c0?$HMH?$CFs?$HMh@
$LN31@playerGetI:

; 1058 : 		} else {

  00182	e8 00 00 00 00	 call	 ?GetName@CItemData@@QBEPBDXZ ; CItemData::GetName
  00187	8b f8		 mov	 edi, eax
  00189	8d 85 fc fe ff
	ff		 lea	 eax, DWORD PTR _itemlink$1[ebp]
  0018f	eb 1e		 jmp	 SHORT $LN21@playerGetI
$LN16@playerGetI:

; 1059 : 			if (isAttr)

  00191	80 bd fb fa ff
	ff 00		 cmp	 BYTE PTR _isAttr$1$[ebp], 0
  00198	8d bd fc fe ff
	ff		 lea	 edi, DWORD PTR _itemlink$1[ebp]

; 1060 : 				//"item:::0:1:2"
; 1061 : 				snprintf(buf, sizeof(buf), "|cffffc700|H%s|h[%s]|h|r", itemlink, pItemData->GetName());

  0019e	be 00 00 00 00	 mov	 esi, OFFSET ??_C@_0BJ@DABMGIOF@?$HMcffffc700?$HMH?$CFs?$HMh?$FL?$CFs?$FN?$HMh?$HMr@
  001a3	75 05		 jne	 SHORT $LN32@playerGetI

; 1062 : 			else
; 1063 : 				snprintf(buf, sizeof(buf), "|cfff1e6c0|H%s|h[%s]|h|r", itemlink, pItemData->GetName());

  001a5	be 00 00 00 00	 mov	 esi, OFFSET ??_C@_0BJ@GPGFNPLK@?$HMcfff1e6c0?$HMH?$CFs?$HMh?$FL?$CFs?$FN?$HMh?$HMr@
$LN32@playerGetI:

; 1064 : 		}
; 1065 : 	}

  001aa	e8 00 00 00 00	 call	 ?GetName@CItemData@@QBEPBDXZ ; CItemData::GetName
$LN21@playerGetI:
  001af	50		 push	 eax
  001b0	57		 push	 edi
  001b1	56		 push	 esi
  001b2	8d 85 fc fa ff
	ff		 lea	 eax, DWORD PTR _buf$[ebp]
  001b8	68 00 04 00 00	 push	 1024			; 00000400H
  001bd	50		 push	 eax
  001be	e8 00 00 00 00	 call	 __snprintf
  001c3	83 c4 14	 add	 esp, 20			; 00000014H
  001c6	eb 07		 jmp	 SHORT $LN14@playerGetI
$LN13@playerGetI:

; 1066 : 	else
; 1067 : 		buf[0] = '\0';

  001c8	c6 85 fc fa ff
	ff 00		 mov	 BYTE PTR _buf$[ebp], 0
$LN14@playerGetI:

; 1068 : 
; 1069 : 	return Py_BuildValue("s", buf);

  001cf	8d 85 fc fa ff
	ff		 lea	 eax, DWORD PTR _buf$[ebp]
  001d5	50		 push	 eax
  001d6	68 00 00 00 00	 push	 OFFSET ??_C@_01LKDEMHDF@s@
  001db	ff 15 00 00 00
	00		 call	 DWORD PTR __imp__Py_BuildValue

; 1070 : }

  001e1	8b 4d fc	 mov	 ecx, DWORD PTR __$ArrayPad$[ebp]
  001e4	83 c4 08	 add	 esp, 8
  001e7	33 cd		 xor	 ecx, ebp
  001e9	5f		 pop	 edi
  001ea	5e		 pop	 esi
  001eb	5b		 pop	 ebx
  001ec	e8 00 00 00 00	 call	 @__security_check_cookie@4
  001f1	8b e5		 mov	 esp, ebp
  001f3	5d		 pop	 ebp
  001f4	c3		 ret	 0
?playerGetItemLink@@YAPAU_object@@PAU1@0@Z ENDP		; playerGetItemLink
_TEXT	ENDS
; Function compile flags: /Ogtp
; File D:\Metin2 Server Files\mainline\SRC_2014\Metin2Client\UserInterface\PythonPlayerModule.cpp
; File D:\Metin2 Server Files\mainline\SRC_2014\Metin2Client\UserInterface\GameType.h
; File D:\Metin2 Server Files\mainline\SRC_2014\Metin2Client\UserInterface\PythonPlayerModule.cpp
; File D:\Metin2 Server Files\mainline\SRC_2014\Metin2Client\UserInterface\GameType.h
; File D:\Metin2 Server Files\mainline\SRC_2014\Metin2Client\UserInterface\PythonPlayerModule.cpp
;	COMDAT ?playerGetItemAttribute@@YAPAU_object@@PAU1@0@Z
_TEXT	SEGMENT
_iAttributeSlotIndex$ = -16				; size = 4
_Cell$ = -12						; size = 3
_sValue$ = -8						; size = 2
_byType$ = -1						; size = 1
_poSelf$ = 8						; size = 4
_poArgs$ = 12						; size = 4
?playerGetItemAttribute@@YAPAU_object@@PAU1@0@Z PROC	; playerGetItemAttribute, COMDAT

; 976  : {

  00000	55		 push	 ebp
  00001	8b ec		 mov	 ebp, esp
  00003	83 ec 10	 sub	 esp, 16			; 00000010H
  00006	56		 push	 esi

; 980  : 	switch (PyTuple_Size(poArgs))

  00007	8b 75 0c	 mov	 esi, DWORD PTR _poArgs$[ebp]
; File D:\Metin2 Server Files\mainline\SRC_2014\Metin2Client\UserInterface\GameType.h

; 187  : 		cell = WORD_MAX;

  0000a	b8 ff ff 00 00	 mov	 eax, 65535		; 0000ffffH
; File D:\Metin2 Server Files\mainline\SRC_2014\Metin2Client\UserInterface\PythonPlayerModule.cpp

; 980  : 	switch (PyTuple_Size(poArgs))

  0000f	56		 push	 esi
; File D:\Metin2 Server Files\mainline\SRC_2014\Metin2Client\UserInterface\GameType.h

; 186  : 		window_type =     INVENTORY;

  00010	c6 45 f4 01	 mov	 BYTE PTR _Cell$[ebp], 1

; 187  : 		cell = WORD_MAX;

  00014	66 89 45 f5	 mov	 WORD PTR _Cell$[ebp+1], ax
; File D:\Metin2 Server Files\mainline\SRC_2014\Metin2Client\UserInterface\PythonPlayerModule.cpp

; 980  : 	switch (PyTuple_Size(poArgs))

  00018	ff 15 00 00 00
	00		 call	 DWORD PTR __imp__PyTuple_Size
  0001e	83 c4 04	 add	 esp, 4
  00021	83 e8 02	 sub	 eax, 2
  00024	74 4d		 je	 SHORT $LN4@playerGetI
  00026	83 e8 01	 sub	 eax, 1
  00029	75 39		 jne	 SHORT $LN15@playerGetI

; 987  : 			return Py_BuildException();
; 988  : 
; 989  : 		break;
; 990  : 	case 3:
; 991  : 		if (!PyTuple_GetByte(poArgs, 0, &Cell.window_type))

  0002b	8d 45 f4	 lea	 eax, DWORD PTR _Cell$[ebp]
  0002e	50		 push	 eax
  0002f	6a 00		 push	 0
  00031	56		 push	 esi
  00032	e8 00 00 00 00	 call	 ?PyTuple_GetByte@@YA_NPAU_object@@HPAE@Z ; PyTuple_GetByte
  00037	83 c4 0c	 add	 esp, 12			; 0000000cH
  0003a	84 c0		 test	 al, al
  0003c	74 26		 je	 SHORT $LN15@playerGetI

; 992  : 			return Py_BuildException();
; 993  : 
; 994  : 		if (!PyTuple_GetInteger(poArgs, 1, &Cell.cell))

  0003e	8d 45 f5	 lea	 eax, DWORD PTR _Cell$[ebp+1]
  00041	50		 push	 eax
  00042	6a 01		 push	 1
  00044	56		 push	 esi
  00045	e8 00 00 00 00	 call	 ?PyTuple_GetInteger@@YA_NPAU_object@@HPAG@Z ; PyTuple_GetInteger
  0004a	83 c4 0c	 add	 esp, 12			; 0000000cH
  0004d	84 c0		 test	 al, al
  0004f	74 13		 je	 SHORT $LN15@playerGetI

; 995  : 			return Py_BuildException();
; 996  : 
; 997  : 		if (!PyTuple_GetInteger(poArgs, 2, &iAttributeSlotIndex))

  00051	8d 45 f0	 lea	 eax, DWORD PTR _iAttributeSlotIndex$[ebp]
  00054	50		 push	 eax
  00055	6a 02		 push	 2
  00057	56		 push	 esi
  00058	e8 00 00 00 00	 call	 ?PyTuple_GetInteger@@YA_NPAU_object@@HPAH@Z ; PyTuple_GetInteger
  0005d	83 c4 0c	 add	 esp, 12			; 0000000cH
  00060	84 c0		 test	 al, al
  00062	75 35		 jne	 SHORT $LN6@playerGetI
$LN15@playerGetI:

; 1008 : }

  00064	6a 00		 push	 0
  00066	e8 00 00 00 00	 call	 ?Py_BuildException@@YAPAU_object@@PBDZZ ; Py_BuildException
  0006b	83 c4 04	 add	 esp, 4
  0006e	5e		 pop	 esi
  0006f	8b e5		 mov	 esp, ebp
  00071	5d		 pop	 ebp
  00072	c3		 ret	 0
$LN4@playerGetI:

; 981  : 	{
; 982  : 	case 2:
; 983  : 		if (!PyTuple_GetInteger(poArgs, 0, &Cell.cell))

  00073	8d 45 f5	 lea	 eax, DWORD PTR _Cell$[ebp+1]
  00076	50		 push	 eax
  00077	6a 00		 push	 0
  00079	56		 push	 esi
  0007a	e8 00 00 00 00	 call	 ?PyTuple_GetInteger@@YA_NPAU_object@@HPAG@Z ; PyTuple_GetInteger
  0007f	83 c4 0c	 add	 esp, 12			; 0000000cH
  00082	84 c0		 test	 al, al
  00084	74 de		 je	 SHORT $LN15@playerGetI

; 984  : 			return Py_BuildException();
; 985  : 
; 986  : 		if (!PyTuple_GetInteger(poArgs, 1, &iAttributeSlotIndex))

  00086	8d 45 f0	 lea	 eax, DWORD PTR _iAttributeSlotIndex$[ebp]
  00089	50		 push	 eax
  0008a	6a 01		 push	 1
  0008c	56		 push	 esi
  0008d	e8 00 00 00 00	 call	 ?PyTuple_GetInteger@@YA_NPAU_object@@HPAH@Z ; PyTuple_GetInteger
  00092	83 c4 0c	 add	 esp, 12			; 0000000cH
  00095	84 c0		 test	 al, al
  00097	74 cb		 je	 SHORT $LN15@playerGetI
$LN6@playerGetI:

; 998  : 			return Py_BuildException();
; 999  : 		break;
; 1000 : 	default:
; 1001 : 		return Py_BuildException();
; 1002 : 	}
; 1003 : 	BYTE byType;
; 1004 : 	short sValue;
; 1005 : 	CPythonPlayer::Instance().GetItemAttribute(Cell, iAttributeSlotIndex, &byType, &sValue);

  00099	8d 45 f8	 lea	 eax, DWORD PTR _sValue$[ebp]
  0009c	50		 push	 eax
  0009d	8d 45 ff	 lea	 eax, DWORD PTR _byType$[ebp]
  000a0	50		 push	 eax
  000a1	ff 75 f0	 push	 DWORD PTR _iAttributeSlotIndex$[ebp]
  000a4	66 8b 45 f4	 mov	 ax, WORD PTR _Cell$[ebp]
  000a8	51		 push	 ecx
  000a9	8b cc		 mov	 ecx, esp
  000ab	66 89 01	 mov	 WORD PTR [ecx], ax
  000ae	8a 45 f6	 mov	 al, BYTE PTR _Cell$[ebp+2]
  000b1	88 41 02	 mov	 BYTE PTR [ecx+2], al
  000b4	8b 0d 00 00 00
	00		 mov	 ecx, DWORD PTR ?ms_singleton@?$CSingleton@VCPythonPlayer@@@@0PAVCPythonPlayer@@A ; CSingleton<CPythonPlayer>::ms_singleton
  000ba	e8 00 00 00 00	 call	 ?GetItemAttribute@CPythonPlayer@@QAEXUSItemPos@@KPAEPAF@Z ; CPythonPlayer::GetItemAttribute

; 1006 : 
; 1007 : 	return Py_BuildValue("ii", byType, sValue);

  000bf	0f bf 45 f8	 movsx	 eax, WORD PTR _sValue$[ebp]
  000c3	50		 push	 eax
  000c4	0f b6 45 ff	 movzx	 eax, BYTE PTR _byType$[ebp]
  000c8	50		 push	 eax
  000c9	68 00 00 00 00	 push	 OFFSET ??_C@_02PDIHAGKM@ii@
  000ce	ff 15 00 00 00
	00		 call	 DWORD PTR __imp__Py_BuildValue
  000d4	83 c4 0c	 add	 esp, 12			; 0000000cH

; 1008 : }

  000d7	5e		 pop	 esi
  000d8	8b e5		 mov	 esp, ebp
  000da	5d		 pop	 ebp
  000db	c3		 ret	 0
?playerGetItemAttribute@@YAPAU_object@@PAU1@0@Z ENDP	; playerGetItemAttribute
_TEXT	ENDS
; Function compile flags: /Ogtp
; File D:\Metin2 Server Files\mainline\SRC_2014\Metin2Client\UserInterface\PythonPlayerModule.cpp
; File D:\Metin2 Server Files\mainline\SRC_2014\Metin2Client\UserInterface\GameType.h
; File D:\Metin2 Server Files\mainline\SRC_2014\Metin2Client\UserInterface\PythonPlayerModule.cpp
; File D:\Metin2 Server Files\mainline\SRC_2014\Metin2Client\UserInterface\GameType.h
; File D:\Metin2 Server Files\mainline\SRC_2014\Metin2Client\UserInterface\PythonPlayerModule.cpp
;	COMDAT ?playerGetItemMetinSocket@@YAPAU_object@@PAU1@0@Z
_TEXT	SEGMENT
_iMetinSocketIndex$ = -8				; size = 4
_Cell$ = -4						; size = 3
_poSelf$ = 8						; size = 4
_poArgs$ = 12						; size = 4
?playerGetItemMetinSocket@@YAPAU_object@@PAU1@0@Z PROC	; playerGetItemMetinSocket, COMDAT

; 943  : {

  00000	55		 push	 ebp
  00001	8b ec		 mov	 ebp, esp
  00003	83 ec 08	 sub	 esp, 8
  00006	56		 push	 esi

; 947  : 	switch (PyTuple_Size(poArgs))

  00007	8b 75 0c	 mov	 esi, DWORD PTR _poArgs$[ebp]
; File D:\Metin2 Server Files\mainline\SRC_2014\Metin2Client\UserInterface\GameType.h

; 187  : 		cell = WORD_MAX;

  0000a	b8 ff ff 00 00	 mov	 eax, 65535		; 0000ffffH
; File D:\Metin2 Server Files\mainline\SRC_2014\Metin2Client\UserInterface\PythonPlayerModule.cpp

; 947  : 	switch (PyTuple_Size(poArgs))

  0000f	56		 push	 esi
; File D:\Metin2 Server Files\mainline\SRC_2014\Metin2Client\UserInterface\GameType.h

; 186  : 		window_type =     INVENTORY;

  00010	c6 45 fc 01	 mov	 BYTE PTR _Cell$[ebp], 1

; 187  : 		cell = WORD_MAX;

  00014	66 89 45 fd	 mov	 WORD PTR _Cell$[ebp+1], ax
; File D:\Metin2 Server Files\mainline\SRC_2014\Metin2Client\UserInterface\PythonPlayerModule.cpp

; 947  : 	switch (PyTuple_Size(poArgs))

  00018	ff 15 00 00 00
	00		 call	 DWORD PTR __imp__PyTuple_Size
  0001e	83 c4 04	 add	 esp, 4
  00021	83 e8 02	 sub	 eax, 2
  00024	74 4d		 je	 SHORT $LN4@playerGetI
  00026	83 e8 01	 sub	 eax, 1
  00029	75 39		 jne	 SHORT $LN15@playerGetI

; 954  : 			return Py_BuildException();
; 955  : 
; 956  : 		break;
; 957  : 	case 3:
; 958  : 		if (!PyTuple_GetByte(poArgs, 0, &Cell.window_type))

  0002b	8d 45 fc	 lea	 eax, DWORD PTR _Cell$[ebp]
  0002e	50		 push	 eax
  0002f	6a 00		 push	 0
  00031	56		 push	 esi
  00032	e8 00 00 00 00	 call	 ?PyTuple_GetByte@@YA_NPAU_object@@HPAE@Z ; PyTuple_GetByte
  00037	83 c4 0c	 add	 esp, 12			; 0000000cH
  0003a	84 c0		 test	 al, al
  0003c	74 26		 je	 SHORT $LN15@playerGetI

; 959  : 			return Py_BuildException();
; 960  : 		if (!PyTuple_GetInteger(poArgs, 1, &Cell.cell))

  0003e	8d 45 fd	 lea	 eax, DWORD PTR _Cell$[ebp+1]
  00041	50		 push	 eax
  00042	6a 01		 push	 1
  00044	56		 push	 esi
  00045	e8 00 00 00 00	 call	 ?PyTuple_GetInteger@@YA_NPAU_object@@HPAG@Z ; PyTuple_GetInteger
  0004a	83 c4 0c	 add	 esp, 12			; 0000000cH
  0004d	84 c0		 test	 al, al
  0004f	74 13		 je	 SHORT $LN15@playerGetI

; 961  : 			return Py_BuildException();
; 962  : 		if (!PyTuple_GetInteger(poArgs, 2, &iMetinSocketIndex))

  00051	8d 45 f8	 lea	 eax, DWORD PTR _iMetinSocketIndex$[ebp]
  00054	50		 push	 eax
  00055	6a 02		 push	 2
  00057	56		 push	 esi
  00058	e8 00 00 00 00	 call	 ?PyTuple_GetInteger@@YA_NPAU_object@@HPAH@Z ; PyTuple_GetInteger
  0005d	83 c4 0c	 add	 esp, 12			; 0000000cH
  00060	84 c0		 test	 al, al
  00062	75 35		 jne	 SHORT $LN6@playerGetI
$LN15@playerGetI:

; 973  : }

  00064	6a 00		 push	 0
  00066	e8 00 00 00 00	 call	 ?Py_BuildException@@YAPAU_object@@PBDZZ ; Py_BuildException
  0006b	83 c4 04	 add	 esp, 4
  0006e	5e		 pop	 esi
  0006f	8b e5		 mov	 esp, ebp
  00071	5d		 pop	 ebp
  00072	c3		 ret	 0
$LN4@playerGetI:

; 948  : 	{
; 949  : 	case 2:
; 950  : 		if (!PyTuple_GetInteger(poArgs, 0, &Cell.cell))

  00073	8d 45 fd	 lea	 eax, DWORD PTR _Cell$[ebp+1]
  00076	50		 push	 eax
  00077	6a 00		 push	 0
  00079	56		 push	 esi
  0007a	e8 00 00 00 00	 call	 ?PyTuple_GetInteger@@YA_NPAU_object@@HPAG@Z ; PyTuple_GetInteger
  0007f	83 c4 0c	 add	 esp, 12			; 0000000cH
  00082	84 c0		 test	 al, al
  00084	74 de		 je	 SHORT $LN15@playerGetI

; 951  : 			return Py_BuildException();
; 952  : 
; 953  : 		if (!PyTuple_GetInteger(poArgs, 1, &iMetinSocketIndex))

  00086	8d 45 f8	 lea	 eax, DWORD PTR _iMetinSocketIndex$[ebp]
  00089	50		 push	 eax
  0008a	6a 01		 push	 1
  0008c	56		 push	 esi
  0008d	e8 00 00 00 00	 call	 ?PyTuple_GetInteger@@YA_NPAU_object@@HPAH@Z ; PyTuple_GetInteger
  00092	83 c4 0c	 add	 esp, 12			; 0000000cH
  00095	84 c0		 test	 al, al
  00097	74 cb		 je	 SHORT $LN15@playerGetI
$LN6@playerGetI:

; 963  : 			return Py_BuildException();
; 964  : 
; 965  : 		break;
; 966  : 
; 967  : 	default:
; 968  : 		return Py_BuildException();
; 969  : 
; 970  : 	}
; 971  : 	int nMetinSocketValue = CPythonPlayer::Instance().GetItemMetinSocket(Cell, iMetinSocketIndex);

  00099	ff 75 f8	 push	 DWORD PTR _iMetinSocketIndex$[ebp]
  0009c	66 8b 45 fc	 mov	 ax, WORD PTR _Cell$[ebp]
  000a0	51		 push	 ecx
  000a1	8b cc		 mov	 ecx, esp
  000a3	66 89 01	 mov	 WORD PTR [ecx], ax
  000a6	8a 45 fe	 mov	 al, BYTE PTR _Cell$[ebp+2]
  000a9	88 41 02	 mov	 BYTE PTR [ecx+2], al
  000ac	8b 0d 00 00 00
	00		 mov	 ecx, DWORD PTR ?ms_singleton@?$CSingleton@VCPythonPlayer@@@@0PAVCPythonPlayer@@A ; CSingleton<CPythonPlayer>::ms_singleton
  000b2	e8 00 00 00 00	 call	 ?GetItemMetinSocket@CPythonPlayer@@QAEKUSItemPos@@K@Z ; CPythonPlayer::GetItemMetinSocket

; 972  : 	return Py_BuildValue("i", nMetinSocketValue);

  000b7	50		 push	 eax
  000b8	68 00 00 00 00	 push	 OFFSET ??_C@_01KBJDNOO@i@
  000bd	ff 15 00 00 00
	00		 call	 DWORD PTR __imp__Py_BuildValue
  000c3	83 c4 08	 add	 esp, 8

; 973  : }

  000c6	5e		 pop	 esi
  000c7	8b e5		 mov	 esp, ebp
  000c9	5d		 pop	 ebp
  000ca	c3		 ret	 0
?playerGetItemMetinSocket@@YAPAU_object@@PAU1@0@Z ENDP	; playerGetItemMetinSocket
_TEXT	ENDS
; Function compile flags: /Ogtp
; File D:\Metin2 Server Files\mainline\SRC_2014\Metin2Client\UserInterface\PythonPlayerModule.cpp
;	COMDAT ?playerGetItemCountByVnum@@YAPAU_object@@PAU1@0@Z
_TEXT	SEGMENT
_ivnum$ = -4						; size = 4
_poSelf$ = 8						; size = 4
_poArgs$ = 12						; size = 4
?playerGetItemCountByVnum@@YAPAU_object@@PAU1@0@Z PROC	; playerGetItemCountByVnum, COMDAT

; 933  : {

  00000	55		 push	 ebp
  00001	8b ec		 mov	 ebp, esp
  00003	51		 push	 ecx

; 934  : 	int ivnum;
; 935  : 	if (!PyTuple_GetInteger(poArgs, 0, &ivnum))

  00004	8d 45 fc	 lea	 eax, DWORD PTR _ivnum$[ebp]
  00007	50		 push	 eax
  00008	6a 00		 push	 0
  0000a	ff 75 0c	 push	 DWORD PTR _poArgs$[ebp]
  0000d	e8 00 00 00 00	 call	 ?PyTuple_GetInteger@@YA_NPAU_object@@HPAH@Z ; PyTuple_GetInteger
  00012	83 c4 0c	 add	 esp, 12			; 0000000cH
  00015	84 c0		 test	 al, al
  00017	75 0e		 jne	 SHORT $LN2@playerGetI

; 936  : 		return Py_BuildException();

  00019	6a 00		 push	 0
  0001b	e8 00 00 00 00	 call	 ?Py_BuildException@@YAPAU_object@@PBDZZ ; Py_BuildException
  00020	83 c4 04	 add	 esp, 4

; 940  : }

  00023	8b e5		 mov	 esp, ebp
  00025	5d		 pop	 ebp
  00026	c3		 ret	 0
$LN2@playerGetI:

; 937  : 
; 938  : 	int ItemNum = CPythonPlayer::Instance().GetItemCountByVnum(ivnum);

  00027	ff 75 fc	 push	 DWORD PTR _ivnum$[ebp]
  0002a	8b 0d 00 00 00
	00		 mov	 ecx, DWORD PTR ?ms_singleton@?$CSingleton@VCPythonPlayer@@@@0PAVCPythonPlayer@@A ; CSingleton<CPythonPlayer>::ms_singleton
  00030	e8 00 00 00 00	 call	 ?GetItemCountByVnum@CPythonPlayer@@QAEKK@Z ; CPythonPlayer::GetItemCountByVnum

; 939  : 	return Py_BuildValue("i", ItemNum);

  00035	50		 push	 eax
  00036	68 00 00 00 00	 push	 OFFSET ??_C@_01KBJDNOO@i@
  0003b	ff 15 00 00 00
	00		 call	 DWORD PTR __imp__Py_BuildValue
  00041	83 c4 08	 add	 esp, 8

; 940  : }

  00044	8b e5		 mov	 esp, ebp
  00046	5d		 pop	 ebp
  00047	c3		 ret	 0
?playerGetItemCountByVnum@@YAPAU_object@@PAU1@0@Z ENDP	; playerGetItemCountByVnum
_TEXT	ENDS
; Function compile flags: /Ogtp
; File D:\Metin2 Server Files\mainline\SRC_2014\Metin2Client\UserInterface\PythonPlayerModule.cpp
; File D:\Metin2 Server Files\mainline\SRC_2014\Metin2Client\UserInterface\GameType.h
; File D:\Metin2 Server Files\mainline\SRC_2014\Metin2Client\UserInterface\PythonPlayerModule.cpp
; File D:\Metin2 Server Files\mainline\SRC_2014\Metin2Client\UserInterface\GameType.h
; File D:\Metin2 Server Files\mainline\SRC_2014\Metin2Client\UserInterface\PythonPlayerModule.cpp
;	COMDAT ?playerSetItemCount@@YAPAU_object@@PAU1@0@Z
_TEXT	SEGMENT
_iSlotIndex$1 = -12					; size = 4
_bCount$2 = -8						; size = 1
_bCount$3 = -8						; size = 1
_Cell$4 = -4						; size = 3
$T5 = -4						; size = 3
_poSelf$ = 8						; size = 4
_poArgs$ = 12						; size = 4
?playerSetItemCount@@YAPAU_object@@PAU1@0@Z PROC	; playerSetItemCount, COMDAT

; 890  : {

  00000	55		 push	 ebp
  00001	8b ec		 mov	 ebp, esp
  00003	83 ec 0c	 sub	 esp, 12			; 0000000cH
  00006	56		 push	 esi

; 891  : 	switch (PyTuple_Size(poArgs))

  00007	8b 75 0c	 mov	 esi, DWORD PTR _poArgs$[ebp]
  0000a	56		 push	 esi
  0000b	ff 15 00 00 00
	00		 call	 DWORD PTR __imp__PyTuple_Size
  00011	83 c4 04	 add	 esp, 4
  00014	83 e8 02	 sub	 eax, 2
  00017	74 54		 je	 SHORT $LN4@playerSetI
  00019	83 e8 01	 sub	 eax, 1
  0001c	75 62		 jne	 SHORT $LN19@playerSetI
; File D:\Metin2 Server Files\mainline\SRC_2014\Metin2Client\UserInterface\GameType.h

; 187  : 		cell = WORD_MAX;

  0001e	b8 ff ff 00 00	 mov	 eax, 65535		; 0000ffffH
  00023	c6 45 fc 01	 mov	 BYTE PTR _Cell$4[ebp], 1
  00027	66 89 45 fd	 mov	 WORD PTR _Cell$4[ebp+1], ax
; File D:\Metin2 Server Files\mainline\SRC_2014\Metin2Client\UserInterface\PythonPlayerModule.cpp

; 912  : 			if (!PyTuple_GetByte(poArgs, 0, &Cell.window_type))

  0002b	8d 45 fc	 lea	 eax, DWORD PTR _Cell$4[ebp]
  0002e	50		 push	 eax
  0002f	6a 00		 push	 0
  00031	56		 push	 esi
  00032	e8 00 00 00 00	 call	 ?PyTuple_GetByte@@YA_NPAU_object@@HPAE@Z ; PyTuple_GetByte
  00037	83 c4 0c	 add	 esp, 12			; 0000000cH
  0003a	84 c0		 test	 al, al
  0003c	74 42		 je	 SHORT $LN19@playerSetI

; 913  : 				return Py_BuildException();
; 914  : 
; 915  : 			if (!PyTuple_GetInteger(poArgs, 1, &Cell.cell))

  0003e	8d 45 fd	 lea	 eax, DWORD PTR _Cell$4[ebp+1]
  00041	50		 push	 eax
  00042	6a 01		 push	 1
  00044	56		 push	 esi
  00045	e8 00 00 00 00	 call	 ?PyTuple_GetInteger@@YA_NPAU_object@@HPAG@Z ; PyTuple_GetInteger
  0004a	83 c4 0c	 add	 esp, 12			; 0000000cH
  0004d	84 c0		 test	 al, al
  0004f	74 2f		 je	 SHORT $LN19@playerSetI

; 916  : 				return Py_BuildException();
; 917  : 
; 918  : 			BYTE bCount;
; 919  : 			if (!PyTuple_GetInteger(poArgs, 2, &bCount))

  00051	8d 45 f8	 lea	 eax, DWORD PTR _bCount$3[ebp]
  00054	50		 push	 eax
  00055	6a 02		 push	 2
  00057	56		 push	 esi
  00058	e8 00 00 00 00	 call	 ?PyTuple_GetInteger@@YA_NPAU_object@@HPAE@Z ; PyTuple_GetInteger
  0005d	83 c4 0c	 add	 esp, 12			; 0000000cH
  00060	84 c0		 test	 al, al
  00062	74 1c		 je	 SHORT $LN19@playerSetI

; 920  : 				return Py_BuildException();
; 921  : 
; 922  : 			CPythonPlayer::Instance().SetItemCount(Cell, bCount);

  00064	ff 75 f8	 push	 DWORD PTR _bCount$3[ebp]
  00067	66 8b 45 fc	 mov	 ax, WORD PTR _Cell$4[ebp]

; 923  : 
; 924  : 			return Py_BuildNone();

  0006b	eb 4d		 jmp	 SHORT $LN18@playerSetI
$LN4@playerSetI:

; 892  : 	{
; 893  : 	case 2:
; 894  : 		{
; 895  : 			int iSlotIndex;
; 896  : 			if (!PyTuple_GetInteger(poArgs, 0, &iSlotIndex))

  0006d	8d 45 f4	 lea	 eax, DWORD PTR _iSlotIndex$1[ebp]
  00070	50		 push	 eax
  00071	6a 00		 push	 0
  00073	56		 push	 esi
  00074	e8 00 00 00 00	 call	 ?PyTuple_GetInteger@@YA_NPAU_object@@HPAH@Z ; PyTuple_GetInteger
  00079	83 c4 0c	 add	 esp, 12			; 0000000cH
  0007c	84 c0		 test	 al, al
  0007e	75 0f		 jne	 SHORT $LN5@playerSetI
$LN19@playerSetI:

; 925  : 		}
; 926  : 	default:
; 927  : 		return Py_BuildException();
; 928  : 
; 929  : 	}
; 930  : }

  00080	6a 00		 push	 0
  00082	e8 00 00 00 00	 call	 ?Py_BuildException@@YAPAU_object@@PBDZZ ; Py_BuildException
  00087	83 c4 04	 add	 esp, 4
  0008a	5e		 pop	 esi
  0008b	8b e5		 mov	 esp, ebp
  0008d	5d		 pop	 ebp
  0008e	c3		 ret	 0
$LN5@playerSetI:

; 897  : 				return Py_BuildException();
; 898  : 
; 899  : 			BYTE bCount;
; 900  : 			if (!PyTuple_GetInteger(poArgs, 1, &bCount))

  0008f	8d 45 f8	 lea	 eax, DWORD PTR _bCount$2[ebp]
  00092	50		 push	 eax
  00093	6a 01		 push	 1
  00095	56		 push	 esi
  00096	e8 00 00 00 00	 call	 ?PyTuple_GetInteger@@YA_NPAU_object@@HPAE@Z ; PyTuple_GetInteger
  0009b	83 c4 0c	 add	 esp, 12			; 0000000cH
  0009e	84 c0		 test	 al, al
  000a0	74 de		 je	 SHORT $LN19@playerSetI

; 901  : 				return Py_BuildException();
; 902  : 
; 903  : 			if (0 == bCount)

  000a2	8b 55 f8	 mov	 edx, DWORD PTR _bCount$2[ebp]
  000a5	84 d2		 test	 dl, dl
  000a7	74 d7		 je	 SHORT $LN19@playerSetI
; File D:\Metin2 Server Files\mainline\SRC_2014\Metin2Client\UserInterface\GameType.h

; 192  :         cell = _cell;

  000a9	0f b7 45 f4	 movzx	 eax, WORD PTR _iSlotIndex$1[ebp]
  000ad	c6 45 fc 01	 mov	 BYTE PTR $T5[ebp], 1
  000b1	66 89 45 fd	 mov	 WORD PTR $T5[ebp+1], ax
; File D:\Metin2 Server Files\mainline\SRC_2014\Metin2Client\UserInterface\PythonPlayerModule.cpp

; 906  : 			CPythonPlayer::Instance().SetItemCount(TItemPos (INVENTORY, iSlotIndex), bCount);

  000b5	0f b7 45 fc	 movzx	 eax, WORD PTR $T5[ebp]
  000b9	52		 push	 edx
$LN18@playerSetI:

; 925  : 		}
; 926  : 	default:
; 927  : 		return Py_BuildException();
; 928  : 
; 929  : 	}
; 930  : }

  000ba	8b 0d 00 00 00
	00		 mov	 ecx, DWORD PTR ?ms_singleton@?$CSingleton@VCPythonPlayer@@@@0PAVCPythonPlayer@@A ; CSingleton<CPythonPlayer>::ms_singleton
  000c0	83 c1 04	 add	 ecx, 4
  000c3	51		 push	 ecx
  000c4	8b d4		 mov	 edx, esp
  000c6	8b 31		 mov	 esi, DWORD PTR [ecx]
  000c8	66 89 02	 mov	 WORD PTR [edx], ax
  000cb	8a 45 fe	 mov	 al, BYTE PTR $T5[ebp+2]
  000ce	88 42 02	 mov	 BYTE PTR [edx+2], al
  000d1	ff 56 34	 call	 DWORD PTR [esi+52]
  000d4	e8 00 00 00 00	 call	 ?Py_BuildNone@@YAPAU_object@@XZ ; Py_BuildNone
  000d9	5e		 pop	 esi
  000da	8b e5		 mov	 esp, ebp
  000dc	5d		 pop	 ebp
  000dd	c3		 ret	 0
?playerSetItemCount@@YAPAU_object@@PAU1@0@Z ENDP	; playerSetItemCount
_TEXT	ENDS
; Function compile flags: /Ogtp
; File D:\Metin2 Server Files\mainline\SRC_2014\Metin2Client\UserInterface\PythonPlayerModule.cpp
; File D:\Metin2 Server Files\mainline\SRC_2014\Metin2Client\UserInterface\GameType.h
; File D:\Metin2 Server Files\mainline\SRC_2014\Metin2Client\UserInterface\PythonPlayerModule.cpp
; File D:\Metin2 Server Files\mainline\SRC_2014\Metin2Client\UserInterface\GameType.h
; File D:\Metin2 Server Files\mainline\SRC_2014\Metin2Client\UserInterface\PythonPlayerModule.cpp
;	COMDAT ?playerGetItemCount@@YAPAU_object@@PAU1@0@Z
_TEXT	SEGMENT
_iSlotIndex$1 = -8					; size = 4
_Cell$2 = -4						; size = 3
$T3 = -4						; size = 3
_poSelf$ = 8						; size = 4
_poArgs$ = 12						; size = 4
?playerGetItemCount@@YAPAU_object@@PAU1@0@Z PROC	; playerGetItemCount, COMDAT

; 858  : {

  00000	55		 push	 ebp
  00001	8b ec		 mov	 ebp, esp
  00003	83 ec 08	 sub	 esp, 8
  00006	56		 push	 esi

; 859  : 	switch (PyTuple_Size(poArgs))

  00007	8b 75 0c	 mov	 esi, DWORD PTR _poArgs$[ebp]
  0000a	56		 push	 esi
  0000b	ff 15 00 00 00
	00		 call	 DWORD PTR __imp__PyTuple_Size
  00011	83 c4 04	 add	 esp, 4
  00014	83 e8 01	 sub	 eax, 1
  00017	74 3e		 je	 SHORT $LN4@playerGetI
  00019	83 e8 01	 sub	 eax, 1
  0001c	75 4c		 jne	 SHORT $LN16@playerGetI
; File D:\Metin2 Server Files\mainline\SRC_2014\Metin2Client\UserInterface\GameType.h

; 187  : 		cell = WORD_MAX;

  0001e	b8 ff ff 00 00	 mov	 eax, 65535		; 0000ffffH
  00023	c6 45 fc 01	 mov	 BYTE PTR _Cell$2[ebp], 1
  00027	66 89 45 fd	 mov	 WORD PTR _Cell$2[ebp+1], ax
; File D:\Metin2 Server Files\mainline\SRC_2014\Metin2Client\UserInterface\PythonPlayerModule.cpp

; 873  : 			if (!PyTuple_GetByte(poArgs, 0, &Cell.window_type))

  0002b	8d 45 fc	 lea	 eax, DWORD PTR _Cell$2[ebp]
  0002e	50		 push	 eax
  0002f	6a 00		 push	 0
  00031	56		 push	 esi
  00032	e8 00 00 00 00	 call	 ?PyTuple_GetByte@@YA_NPAU_object@@HPAE@Z ; PyTuple_GetByte
  00037	83 c4 0c	 add	 esp, 12			; 0000000cH
  0003a	84 c0		 test	 al, al
  0003c	74 2c		 je	 SHORT $LN16@playerGetI

; 874  : 				return Py_BuildException();
; 875  : 
; 876  : 			if (!PyTuple_GetInteger(poArgs, 1, &Cell.cell))

  0003e	8d 45 fd	 lea	 eax, DWORD PTR _Cell$2[ebp+1]
  00041	50		 push	 eax
  00042	6a 01		 push	 1
  00044	56		 push	 esi
  00045	e8 00 00 00 00	 call	 ?PyTuple_GetInteger@@YA_NPAU_object@@HPAG@Z ; PyTuple_GetInteger
  0004a	83 c4 0c	 add	 esp, 12			; 0000000cH
  0004d	84 c0		 test	 al, al
  0004f	74 19		 je	 SHORT $LN16@playerGetI

; 877  : 				return Py_BuildException();
; 878  : 
; 879  : 			int ItemNum = CPythonPlayer::Instance().GetItemCount(Cell);

  00051	66 8b 45 fc	 mov	 ax, WORD PTR _Cell$2[ebp]

; 880  : 
; 881  : 			return Py_BuildValue("i", ItemNum);

  00055	eb 32		 jmp	 SHORT $LN15@playerGetI
$LN4@playerGetI:

; 860  : 	{
; 861  : 	case 1:
; 862  : 		{
; 863  : 			int iSlotIndex;
; 864  : 			if (!PyTuple_GetInteger(poArgs, 0, &iSlotIndex))

  00057	8d 45 f8	 lea	 eax, DWORD PTR _iSlotIndex$1[ebp]
  0005a	50		 push	 eax
  0005b	6a 00		 push	 0
  0005d	56		 push	 esi
  0005e	e8 00 00 00 00	 call	 ?PyTuple_GetInteger@@YA_NPAU_object@@HPAH@Z ; PyTuple_GetInteger
  00063	83 c4 0c	 add	 esp, 12			; 0000000cH
  00066	84 c0		 test	 al, al
  00068	75 0f		 jne	 SHORT $LN5@playerGetI
$LN16@playerGetI:

; 882  : 		}
; 883  : 	default:
; 884  : 		return Py_BuildException();
; 885  : 
; 886  : 	}
; 887  : }

  0006a	6a 00		 push	 0
  0006c	e8 00 00 00 00	 call	 ?Py_BuildException@@YAPAU_object@@PBDZZ ; Py_BuildException
  00071	83 c4 04	 add	 esp, 4
  00074	5e		 pop	 esi
  00075	8b e5		 mov	 esp, ebp
  00077	5d		 pop	 ebp
  00078	c3		 ret	 0
$LN5@playerGetI:
; File D:\Metin2 Server Files\mainline\SRC_2014\Metin2Client\UserInterface\GameType.h

; 192  :         cell = _cell;

  00079	0f b7 45 f8	 movzx	 eax, WORD PTR _iSlotIndex$1[ebp]
  0007d	c6 45 fc 01	 mov	 BYTE PTR $T3[ebp], 1
  00081	66 89 45 fd	 mov	 WORD PTR $T3[ebp+1], ax
; File D:\Metin2 Server Files\mainline\SRC_2014\Metin2Client\UserInterface\PythonPlayerModule.cpp

; 867  : 			int ItemNum = CPythonPlayer::Instance().GetItemCount(TItemPos (INVENTORY, iSlotIndex));

  00085	0f b7 45 fc	 movzx	 eax, WORD PTR $T3[ebp]
$LN15@playerGetI:

; 882  : 		}
; 883  : 	default:
; 884  : 		return Py_BuildException();
; 885  : 
; 886  : 	}
; 887  : }

  00089	8b 0d 00 00 00
	00		 mov	 ecx, DWORD PTR ?ms_singleton@?$CSingleton@VCPythonPlayer@@@@0PAVCPythonPlayer@@A ; CSingleton<CPythonPlayer>::ms_singleton
  0008f	83 c1 04	 add	 ecx, 4
  00092	51		 push	 ecx
  00093	8b d4		 mov	 edx, esp
  00095	8b 31		 mov	 esi, DWORD PTR [ecx]
  00097	66 89 02	 mov	 WORD PTR [edx], ax
  0009a	8a 45 fe	 mov	 al, BYTE PTR $T3[ebp+2]
  0009d	88 42 02	 mov	 BYTE PTR [edx+2], al
  000a0	ff 56 48	 call	 DWORD PTR [esi+72]
  000a3	50		 push	 eax
  000a4	68 00 00 00 00	 push	 OFFSET ??_C@_01KBJDNOO@i@
  000a9	ff 15 00 00 00
	00		 call	 DWORD PTR __imp__Py_BuildValue
  000af	83 c4 08	 add	 esp, 8
  000b2	5e		 pop	 esi
  000b3	8b e5		 mov	 esp, ebp
  000b5	5d		 pop	 ebp
  000b6	c3		 ret	 0
?playerGetItemCount@@YAPAU_object@@PAU1@0@Z ENDP	; playerGetItemCount
_TEXT	ENDS
; Function compile flags: /Ogtp
; File D:\Metin2 Server Files\mainline\SRC_2014\Metin2Client\UserInterface\PythonPlayerModule.cpp
; File D:\Metin2 Server Files\mainline\SRC_2014\Metin2Client\UserInterface\GameType.h
; File D:\Metin2 Server Files\mainline\SRC_2014\Metin2Client\UserInterface\PythonPlayerModule.cpp
; File D:\Metin2 Server Files\mainline\SRC_2014\Metin2Client\UserInterface\GameType.h
; File D:\Metin2 Server Files\mainline\SRC_2014\Metin2Client\UserInterface\PythonPlayerModule.cpp
;	COMDAT ?playerGetItemFlags@@YAPAU_object@@PAU1@0@Z
_TEXT	SEGMENT
_iSlotIndex$1 = -8					; size = 4
_Cell$2 = -4						; size = 3
$T3 = -4						; size = 3
_poSelf$ = 8						; size = 4
_poArgs$ = 12						; size = 4
?playerGetItemFlags@@YAPAU_object@@PAU1@0@Z PROC	; playerGetItemFlags, COMDAT

; 827  : {

  00000	55		 push	 ebp
  00001	8b ec		 mov	 ebp, esp
  00003	83 ec 08	 sub	 esp, 8
  00006	56		 push	 esi

; 828  : 	switch (PyTuple_Size(poArgs))

  00007	8b 75 0c	 mov	 esi, DWORD PTR _poArgs$[ebp]
  0000a	56		 push	 esi
  0000b	ff 15 00 00 00
	00		 call	 DWORD PTR __imp__PyTuple_Size
  00011	83 c4 04	 add	 esp, 4
  00014	83 e8 01	 sub	 eax, 1
  00017	74 3e		 je	 SHORT $LN4@playerGetI
  00019	83 e8 01	 sub	 eax, 1
  0001c	75 4c		 jne	 SHORT $LN16@playerGetI
; File D:\Metin2 Server Files\mainline\SRC_2014\Metin2Client\UserInterface\GameType.h

; 187  : 		cell = WORD_MAX;

  0001e	b8 ff ff 00 00	 mov	 eax, 65535		; 0000ffffH
  00023	c6 45 fc 01	 mov	 BYTE PTR _Cell$2[ebp], 1
  00027	66 89 45 fd	 mov	 WORD PTR _Cell$2[ebp+1], ax
; File D:\Metin2 Server Files\mainline\SRC_2014\Metin2Client\UserInterface\PythonPlayerModule.cpp

; 842  : 			if (!PyTuple_GetByte(poArgs, 0, &Cell.window_type))

  0002b	8d 45 fc	 lea	 eax, DWORD PTR _Cell$2[ebp]
  0002e	50		 push	 eax
  0002f	6a 00		 push	 0
  00031	56		 push	 esi
  00032	e8 00 00 00 00	 call	 ?PyTuple_GetByte@@YA_NPAU_object@@HPAE@Z ; PyTuple_GetByte
  00037	83 c4 0c	 add	 esp, 12			; 0000000cH
  0003a	84 c0		 test	 al, al
  0003c	74 2c		 je	 SHORT $LN16@playerGetI

; 843  : 				return Py_BuildException();
; 844  : 
; 845  : 			if (!PyTuple_GetInteger(poArgs, 1, &Cell.cell))

  0003e	8d 45 fd	 lea	 eax, DWORD PTR _Cell$2[ebp+1]
  00041	50		 push	 eax
  00042	6a 01		 push	 1
  00044	56		 push	 esi
  00045	e8 00 00 00 00	 call	 ?PyTuple_GetInteger@@YA_NPAU_object@@HPAG@Z ; PyTuple_GetInteger
  0004a	83 c4 0c	 add	 esp, 12			; 0000000cH
  0004d	84 c0		 test	 al, al
  0004f	74 19		 je	 SHORT $LN16@playerGetI

; 846  : 				return Py_BuildException();
; 847  : 
; 848  : 			DWORD flags = CPythonPlayer::Instance().GetItemFlags(Cell);

  00051	66 8b 45 fc	 mov	 ax, WORD PTR _Cell$2[ebp]

; 849  : 			return Py_BuildValue("i", flags);

  00055	eb 32		 jmp	 SHORT $LN15@playerGetI
$LN4@playerGetI:

; 829  : 	{
; 830  : 	case 1:
; 831  : 		{
; 832  : 			int iSlotIndex;
; 833  : 			if (!PyTuple_GetInteger(poArgs, 0, &iSlotIndex))

  00057	8d 45 f8	 lea	 eax, DWORD PTR _iSlotIndex$1[ebp]
  0005a	50		 push	 eax
  0005b	6a 00		 push	 0
  0005d	56		 push	 esi
  0005e	e8 00 00 00 00	 call	 ?PyTuple_GetInteger@@YA_NPAU_object@@HPAH@Z ; PyTuple_GetInteger
  00063	83 c4 0c	 add	 esp, 12			; 0000000cH
  00066	84 c0		 test	 al, al
  00068	75 0f		 jne	 SHORT $LN5@playerGetI
$LN16@playerGetI:

; 850  : 		}
; 851  : 	default:
; 852  : 		return Py_BuildException();
; 853  : 	}
; 854  : }

  0006a	6a 00		 push	 0
  0006c	e8 00 00 00 00	 call	 ?Py_BuildException@@YAPAU_object@@PBDZZ ; Py_BuildException
  00071	83 c4 04	 add	 esp, 4
  00074	5e		 pop	 esi
  00075	8b e5		 mov	 esp, ebp
  00077	5d		 pop	 ebp
  00078	c3		 ret	 0
$LN5@playerGetI:
; File D:\Metin2 Server Files\mainline\SRC_2014\Metin2Client\UserInterface\GameType.h

; 192  :         cell = _cell;

  00079	0f b7 45 f8	 movzx	 eax, WORD PTR _iSlotIndex$1[ebp]
  0007d	c6 45 fc 01	 mov	 BYTE PTR $T3[ebp], 1
  00081	66 89 45 fd	 mov	 WORD PTR $T3[ebp+1], ax
; File D:\Metin2 Server Files\mainline\SRC_2014\Metin2Client\UserInterface\PythonPlayerModule.cpp

; 836  : 			DWORD flags = CPythonPlayer::Instance().GetItemFlags(TItemPos(INVENTORY, iSlotIndex));

  00085	0f b7 45 fc	 movzx	 eax, WORD PTR $T3[ebp]
$LN15@playerGetI:

; 850  : 		}
; 851  : 	default:
; 852  : 		return Py_BuildException();
; 853  : 	}
; 854  : }

  00089	8b 0d 00 00 00
	00		 mov	 ecx, DWORD PTR ?ms_singleton@?$CSingleton@VCPythonPlayer@@@@0PAVCPythonPlayer@@A ; CSingleton<CPythonPlayer>::ms_singleton
  0008f	83 c1 04	 add	 ecx, 4
  00092	51		 push	 ecx
  00093	8b d4		 mov	 edx, esp
  00095	8b 31		 mov	 esi, DWORD PTR [ecx]
  00097	66 89 02	 mov	 WORD PTR [edx], ax
  0009a	8a 45 fe	 mov	 al, BYTE PTR $T3[ebp+2]
  0009d	88 42 02	 mov	 BYTE PTR [edx+2], al
  000a0	ff 56 44	 call	 DWORD PTR [esi+68]
  000a3	50		 push	 eax
  000a4	68 00 00 00 00	 push	 OFFSET ??_C@_01KBJDNOO@i@
  000a9	ff 15 00 00 00
	00		 call	 DWORD PTR __imp__Py_BuildValue
  000af	83 c4 08	 add	 esp, 8
  000b2	5e		 pop	 esi
  000b3	8b e5		 mov	 esp, ebp
  000b5	5d		 pop	 ebp
  000b6	c3		 ret	 0
?playerGetItemFlags@@YAPAU_object@@PAU1@0@Z ENDP	; playerGetItemFlags
_TEXT	ENDS
; Function compile flags: /Ogtp
; File D:\Metin2 Server Files\mainline\SRC_2014\Metin2Client\UserInterface\PythonPlayerModule.cpp
; File D:\Metin2 Server Files\mainline\SRC_2014\Metin2Client\UserInterface\GameType.h
; File D:\Metin2 Server Files\mainline\SRC_2014\Metin2Client\UserInterface\PythonPlayerModule.cpp
; File D:\Metin2 Server Files\mainline\SRC_2014\Metin2Client\UserInterface\GameType.h
; File D:\Metin2 Server Files\mainline\SRC_2014\Metin2Client\UserInterface\PythonPlayerModule.cpp
;	COMDAT ?playerGetItemIndex@@YAPAU_object@@PAU1@0@Z
_TEXT	SEGMENT
_iSlotIndex$1 = -8					; size = 4
_Cell$2 = -4						; size = 3
$T3 = -4						; size = 3
_poSelf$ = 8						; size = 4
_poArgs$ = 12						; size = 4
?playerGetItemIndex@@YAPAU_object@@PAU1@0@Z PROC	; playerGetItemIndex, COMDAT

; 797  : {

  00000	55		 push	 ebp
  00001	8b ec		 mov	 ebp, esp
  00003	83 ec 08	 sub	 esp, 8
  00006	56		 push	 esi

; 798  : 	switch (PyTuple_Size(poArgs))

  00007	8b 75 0c	 mov	 esi, DWORD PTR _poArgs$[ebp]
  0000a	56		 push	 esi
  0000b	ff 15 00 00 00
	00		 call	 DWORD PTR __imp__PyTuple_Size
  00011	83 c4 04	 add	 esp, 4
  00014	83 e8 01	 sub	 eax, 1
  00017	74 3e		 je	 SHORT $LN4@playerGetI
  00019	83 e8 01	 sub	 eax, 1
  0001c	75 4c		 jne	 SHORT $LN16@playerGetI
; File D:\Metin2 Server Files\mainline\SRC_2014\Metin2Client\UserInterface\GameType.h

; 187  : 		cell = WORD_MAX;

  0001e	b8 ff ff 00 00	 mov	 eax, 65535		; 0000ffffH
  00023	c6 45 fc 01	 mov	 BYTE PTR _Cell$2[ebp], 1
  00027	66 89 45 fd	 mov	 WORD PTR _Cell$2[ebp+1], ax
; File D:\Metin2 Server Files\mainline\SRC_2014\Metin2Client\UserInterface\PythonPlayerModule.cpp

; 812  : 			if (!PyTuple_GetByte(poArgs, 0, &Cell.window_type))

  0002b	8d 45 fc	 lea	 eax, DWORD PTR _Cell$2[ebp]
  0002e	50		 push	 eax
  0002f	6a 00		 push	 0
  00031	56		 push	 esi
  00032	e8 00 00 00 00	 call	 ?PyTuple_GetByte@@YA_NPAU_object@@HPAE@Z ; PyTuple_GetByte
  00037	83 c4 0c	 add	 esp, 12			; 0000000cH
  0003a	84 c0		 test	 al, al
  0003c	74 2c		 je	 SHORT $LN16@playerGetI

; 813  : 				return Py_BuildException();
; 814  : 			if (!PyTuple_GetInteger(poArgs, 1, &Cell.cell))

  0003e	8d 45 fd	 lea	 eax, DWORD PTR _Cell$2[ebp+1]
  00041	50		 push	 eax
  00042	6a 01		 push	 1
  00044	56		 push	 esi
  00045	e8 00 00 00 00	 call	 ?PyTuple_GetInteger@@YA_NPAU_object@@HPAG@Z ; PyTuple_GetInteger
  0004a	83 c4 0c	 add	 esp, 12			; 0000000cH
  0004d	84 c0		 test	 al, al
  0004f	74 19		 je	 SHORT $LN16@playerGetI

; 815  : 				return Py_BuildException();
; 816  : 
; 817  : 			int ItemIndex = CPythonPlayer::Instance().GetItemIndex(Cell);

  00051	66 8b 45 fc	 mov	 ax, WORD PTR _Cell$2[ebp]

; 818  : 			return Py_BuildValue("i", ItemIndex);

  00055	eb 32		 jmp	 SHORT $LN15@playerGetI
$LN4@playerGetI:

; 799  : 	{
; 800  : 	case 1:
; 801  : 		{
; 802  : 			int iSlotIndex;
; 803  : 			if (!PyTuple_GetInteger(poArgs, 0, &iSlotIndex))

  00057	8d 45 f8	 lea	 eax, DWORD PTR _iSlotIndex$1[ebp]
  0005a	50		 push	 eax
  0005b	6a 00		 push	 0
  0005d	56		 push	 esi
  0005e	e8 00 00 00 00	 call	 ?PyTuple_GetInteger@@YA_NPAU_object@@HPAH@Z ; PyTuple_GetInteger
  00063	83 c4 0c	 add	 esp, 12			; 0000000cH
  00066	84 c0		 test	 al, al
  00068	75 0f		 jne	 SHORT $LN5@playerGetI
$LN16@playerGetI:

; 819  : 		}
; 820  : 	default:
; 821  : 		return Py_BuildException();
; 822  : 
; 823  : 	}
; 824  : }

  0006a	6a 00		 push	 0
  0006c	e8 00 00 00 00	 call	 ?Py_BuildException@@YAPAU_object@@PBDZZ ; Py_BuildException
  00071	83 c4 04	 add	 esp, 4
  00074	5e		 pop	 esi
  00075	8b e5		 mov	 esp, ebp
  00077	5d		 pop	 ebp
  00078	c3		 ret	 0
$LN5@playerGetI:
; File D:\Metin2 Server Files\mainline\SRC_2014\Metin2Client\UserInterface\GameType.h

; 192  :         cell = _cell;

  00079	0f b7 45 f8	 movzx	 eax, WORD PTR _iSlotIndex$1[ebp]
  0007d	c6 45 fc 01	 mov	 BYTE PTR $T3[ebp], 1
  00081	66 89 45 fd	 mov	 WORD PTR $T3[ebp+1], ax
; File D:\Metin2 Server Files\mainline\SRC_2014\Metin2Client\UserInterface\PythonPlayerModule.cpp

; 806  : 			int ItemIndex = CPythonPlayer::Instance().GetItemIndex(TItemPos (INVENTORY, iSlotIndex));

  00085	0f b7 45 fc	 movzx	 eax, WORD PTR $T3[ebp]
$LN15@playerGetI:

; 819  : 		}
; 820  : 	default:
; 821  : 		return Py_BuildException();
; 822  : 
; 823  : 	}
; 824  : }

  00089	8b 0d 00 00 00
	00		 mov	 ecx, DWORD PTR ?ms_singleton@?$CSingleton@VCPythonPlayer@@@@0PAVCPythonPlayer@@A ; CSingleton<CPythonPlayer>::ms_singleton
  0008f	83 c1 04	 add	 ecx, 4
  00092	51		 push	 ecx
  00093	8b d4		 mov	 edx, esp
  00095	8b 31		 mov	 esi, DWORD PTR [ecx]
  00097	66 89 02	 mov	 WORD PTR [edx], ax
  0009a	8a 45 fe	 mov	 al, BYTE PTR $T3[ebp+2]
  0009d	88 42 02	 mov	 BYTE PTR [edx+2], al
  000a0	ff 56 40	 call	 DWORD PTR [esi+64]
  000a3	50		 push	 eax
  000a4	68 00 00 00 00	 push	 OFFSET ??_C@_01KBJDNOO@i@
  000a9	ff 15 00 00 00
	00		 call	 DWORD PTR __imp__Py_BuildValue
  000af	83 c4 08	 add	 esp, 8
  000b2	5e		 pop	 esi
  000b3	8b e5		 mov	 esp, ebp
  000b5	5d		 pop	 ebp
  000b6	c3		 ret	 0
?playerGetItemIndex@@YAPAU_object@@PAU1@0@Z ENDP	; playerGetItemIndex
_TEXT	ENDS
; Function compile flags: /Ogtp
; File D:\Metin2 Server Files\mainline\SRC_2014\Metin2Client\UserInterface\PythonPlayerModule.cpp
;	COMDAT ?playerSendClickItemPacket@@YAPAU_object@@PAU1@0@Z
_TEXT	SEGMENT
_ivid$ = -4						; size = 4
_poSelf$ = 8						; size = 4
_poArgs$ = 12						; size = 4
?playerSendClickItemPacket@@YAPAU_object@@PAU1@0@Z PROC	; playerSendClickItemPacket, COMDAT

; 787  : {

  00000	55		 push	 ebp
  00001	8b ec		 mov	 ebp, esp
  00003	51		 push	 ecx

; 788  : 	int ivid;
; 789  : 	if (!PyTuple_GetInteger(poArgs, 0, &ivid))

  00004	8d 45 fc	 lea	 eax, DWORD PTR _ivid$[ebp]
  00007	50		 push	 eax
  00008	6a 00		 push	 0
  0000a	ff 75 0c	 push	 DWORD PTR _poArgs$[ebp]
  0000d	e8 00 00 00 00	 call	 ?PyTuple_GetInteger@@YA_NPAU_object@@HPAH@Z ; PyTuple_GetInteger
  00012	83 c4 0c	 add	 esp, 12			; 0000000cH
  00015	84 c0		 test	 al, al
  00017	75 0e		 jne	 SHORT $LN2@playerSend

; 790  : 		return Py_BuildException();

  00019	6a 00		 push	 0
  0001b	e8 00 00 00 00	 call	 ?Py_BuildException@@YAPAU_object@@PBDZZ ; Py_BuildException
  00020	83 c4 04	 add	 esp, 4

; 794  : }

  00023	8b e5		 mov	 esp, ebp
  00025	5d		 pop	 ebp
  00026	c3		 ret	 0
$LN2@playerSend:

; 791  : 
; 792  : 	CPythonPlayer::Instance().SendClickItemPacket(ivid);

  00027	ff 75 fc	 push	 DWORD PTR _ivid$[ebp]
  0002a	8b 0d 00 00 00
	00		 mov	 ecx, DWORD PTR ?ms_singleton@?$CSingleton@VCPythonPlayer@@@@0PAVCPythonPlayer@@A ; CSingleton<CPythonPlayer>::ms_singleton
  00030	e8 00 00 00 00	 call	 ?SendClickItemPacket@CPythonPlayer@@QAEXK@Z ; CPythonPlayer::SendClickItemPacket

; 793  : 	return Py_BuildNone();

  00035	e8 00 00 00 00	 call	 ?Py_BuildNone@@YAPAU_object@@XZ ; Py_BuildNone

; 794  : }

  0003a	8b e5		 mov	 esp, ebp
  0003c	5d		 pop	 ebp
  0003d	c3		 ret	 0
?playerSendClickItemPacket@@YAPAU_object@@PAU1@0@Z ENDP	; playerSendClickItemPacket
_TEXT	ENDS
; Function compile flags: /Ogtp
; File D:\Metin2 Server Files\mainline\SRC_2014\Metin2Client\UserInterface\PythonPlayerModule.cpp
; File D:\Metin2 Server Files\mainline\SRC_2014\Metin2Client\UserInterface\GameType.h
; File D:\Metin2 Server Files\mainline\SRC_2014\Metin2Client\UserInterface\PythonPlayerModule.cpp
; File D:\Metin2 Server Files\mainline\SRC_2014\Metin2Client\UserInterface\GameType.h
; File D:\Metin2 Server Files\mainline\SRC_2014\Metin2Client\UserInterface\PythonPlayerModule.cpp
;	COMDAT ?playerMoveItem@@YAPAU_object@@PAU1@0@Z
_TEXT	SEGMENT
_srcCell$ = -8						; size = 3
_dstCell$ = -4						; size = 3
_poSelf$ = 8						; size = 4
_poArgs$ = 12						; size = 4
?playerMoveItem@@YAPAU_object@@PAU1@0@Z PROC		; playerMoveItem, COMDAT

; 757  : {

  00000	55		 push	 ebp
  00001	8b ec		 mov	 ebp, esp
  00003	83 ec 08	 sub	 esp, 8
  00006	56		 push	 esi

; 760  : 	switch (PyTuple_Size(poArgs))

  00007	8b 75 0c	 mov	 esi, DWORD PTR _poArgs$[ebp]
; File D:\Metin2 Server Files\mainline\SRC_2014\Metin2Client\UserInterface\GameType.h

; 187  : 		cell = WORD_MAX;

  0000a	b8 ff ff 00 00	 mov	 eax, 65535		; 0000ffffH
; File D:\Metin2 Server Files\mainline\SRC_2014\Metin2Client\UserInterface\PythonPlayerModule.cpp

; 760  : 	switch (PyTuple_Size(poArgs))

  0000f	56		 push	 esi
; File D:\Metin2 Server Files\mainline\SRC_2014\Metin2Client\UserInterface\GameType.h

; 186  : 		window_type =     INVENTORY;

  00010	c6 45 f8 01	 mov	 BYTE PTR _srcCell$[ebp], 1

; 187  : 		cell = WORD_MAX;

  00014	66 89 45 f9	 mov	 WORD PTR _srcCell$[ebp+1], ax

; 186  : 		window_type =     INVENTORY;

  00018	c6 45 fc 01	 mov	 BYTE PTR _dstCell$[ebp], 1

; 187  : 		cell = WORD_MAX;

  0001c	66 89 45 fd	 mov	 WORD PTR _dstCell$[ebp+1], ax
; File D:\Metin2 Server Files\mainline\SRC_2014\Metin2Client\UserInterface\PythonPlayerModule.cpp

; 760  : 	switch (PyTuple_Size(poArgs))

  00020	ff 15 00 00 00
	00		 call	 DWORD PTR __imp__PyTuple_Size
  00026	83 c4 04	 add	 esp, 4
  00029	83 e8 02	 sub	 eax, 2
  0002c	74 5c		 je	 SHORT $LN4@playerMove
  0002e	83 e8 02	 sub	 eax, 2
  00031	75 6a		 jne	 SHORT $LN18@playerMove

; 767  : 			return Py_BuildException();
; 768  : 		break;
; 769  : 	case 4:
; 770  : 		if (!PyTuple_GetByte(poArgs, 0, &srcCell.window_type))

  00033	8d 45 f8	 lea	 eax, DWORD PTR _srcCell$[ebp]
  00036	50		 push	 eax
  00037	6a 00		 push	 0
  00039	56		 push	 esi
  0003a	e8 00 00 00 00	 call	 ?PyTuple_GetByte@@YA_NPAU_object@@HPAE@Z ; PyTuple_GetByte
  0003f	83 c4 0c	 add	 esp, 12			; 0000000cH
  00042	84 c0		 test	 al, al
  00044	74 57		 je	 SHORT $LN18@playerMove

; 771  : 			return Py_BuildException();
; 772  : 		if (!PyTuple_GetInteger(poArgs, 1, &srcCell.cell))

  00046	8d 45 f9	 lea	 eax, DWORD PTR _srcCell$[ebp+1]
  00049	50		 push	 eax
  0004a	6a 01		 push	 1
  0004c	56		 push	 esi
  0004d	e8 00 00 00 00	 call	 ?PyTuple_GetInteger@@YA_NPAU_object@@HPAG@Z ; PyTuple_GetInteger
  00052	83 c4 0c	 add	 esp, 12			; 0000000cH
  00055	84 c0		 test	 al, al
  00057	74 44		 je	 SHORT $LN18@playerMove

; 773  : 			return Py_BuildException();
; 774  : 		if (!PyTuple_GetByte(poArgs, 2, &dstCell.window_type))

  00059	8d 45 fc	 lea	 eax, DWORD PTR _dstCell$[ebp]
  0005c	50		 push	 eax
  0005d	6a 02		 push	 2
  0005f	56		 push	 esi
  00060	e8 00 00 00 00	 call	 ?PyTuple_GetByte@@YA_NPAU_object@@HPAE@Z ; PyTuple_GetByte
  00065	83 c4 0c	 add	 esp, 12			; 0000000cH
  00068	84 c0		 test	 al, al
  0006a	74 31		 je	 SHORT $LN18@playerMove

; 775  : 			return Py_BuildException();
; 776  : 		if (!PyTuple_GetInteger(poArgs, 3, &dstCell.cell))

  0006c	8d 45 fd	 lea	 eax, DWORD PTR _dstCell$[ebp+1]
  0006f	50		 push	 eax
  00070	6a 03		 push	 3
  00072	56		 push	 esi
  00073	e8 00 00 00 00	 call	 ?PyTuple_GetInteger@@YA_NPAU_object@@HPAG@Z ; PyTuple_GetInteger
  00078	83 c4 0c	 add	 esp, 12			; 0000000cH

; 784  : }

  0007b	6a 00		 push	 0
  0007d	e8 00 00 00 00	 call	 ?Py_BuildException@@YAPAU_object@@PBDZZ ; Py_BuildException
  00082	83 c4 04	 add	 esp, 4
  00085	5e		 pop	 esi
  00086	8b e5		 mov	 esp, ebp
  00088	5d		 pop	 ebp
  00089	c3		 ret	 0
$LN4@playerMove:

; 761  : 	{
; 762  : 	case 2:
; 763  : 		int iSourceSlotIndex;
; 764  : 		if (!PyTuple_GetInteger(poArgs, 0, &srcCell.cell))

  0008a	8d 45 f9	 lea	 eax, DWORD PTR _srcCell$[ebp+1]
  0008d	50		 push	 eax
  0008e	6a 00		 push	 0
  00090	56		 push	 esi
  00091	e8 00 00 00 00	 call	 ?PyTuple_GetInteger@@YA_NPAU_object@@HPAG@Z ; PyTuple_GetInteger
  00096	83 c4 0c	 add	 esp, 12			; 0000000cH
  00099	84 c0		 test	 al, al
  0009b	75 0f		 jne	 SHORT $LN5@playerMove
$LN18@playerMove:

; 784  : }

  0009d	6a 00		 push	 0
  0009f	e8 00 00 00 00	 call	 ?Py_BuildException@@YAPAU_object@@PBDZZ ; Py_BuildException
  000a4	83 c4 04	 add	 esp, 4
  000a7	5e		 pop	 esi
  000a8	8b e5		 mov	 esp, ebp
  000aa	5d		 pop	 ebp
  000ab	c3		 ret	 0
$LN5@playerMove:

; 765  : 			return Py_BuildException();
; 766  : 		if (!PyTuple_GetInteger(poArgs, 1, &dstCell.cell))

  000ac	8d 45 fd	 lea	 eax, DWORD PTR _dstCell$[ebp+1]
  000af	50		 push	 eax
  000b0	6a 01		 push	 1
  000b2	56		 push	 esi
  000b3	e8 00 00 00 00	 call	 ?PyTuple_GetInteger@@YA_NPAU_object@@HPAG@Z ; PyTuple_GetInteger
  000b8	83 c4 0c	 add	 esp, 12			; 0000000cH
  000bb	84 c0		 test	 al, al
  000bd	74 de		 je	 SHORT $LN18@playerMove

; 777  : 			return Py_BuildException();
; 778  : 	default:
; 779  : 		return Py_BuildException();
; 780  : 	}
; 781  : 
; 782  : 	CPythonPlayer::Instance().MoveItemData(srcCell, dstCell);

  000bf	0f b7 45 fc	 movzx	 eax, WORD PTR _dstCell$[ebp]
  000c3	51		 push	 ecx
  000c4	8b cc		 mov	 ecx, esp
  000c6	51		 push	 ecx
  000c7	66 89 01	 mov	 WORD PTR [ecx], ax
  000ca	8a 45 fe	 mov	 al, BYTE PTR _dstCell$[ebp+2]
  000cd	88 41 02	 mov	 BYTE PTR [ecx+2], al
  000d0	8b cc		 mov	 ecx, esp
  000d2	0f b7 45 f8	 movzx	 eax, WORD PTR _srcCell$[ebp]
  000d6	66 89 01	 mov	 WORD PTR [ecx], ax
  000d9	8a 45 fa	 mov	 al, BYTE PTR _srcCell$[ebp+2]
  000dc	88 41 02	 mov	 BYTE PTR [ecx+2], al
  000df	8b 0d 00 00 00
	00		 mov	 ecx, DWORD PTR ?ms_singleton@?$CSingleton@VCPythonPlayer@@@@0PAVCPythonPlayer@@A ; CSingleton<CPythonPlayer>::ms_singleton
  000e5	e8 00 00 00 00	 call	 ?MoveItemData@CPythonPlayer@@QAEXUSItemPos@@0@Z ; CPythonPlayer::MoveItemData

; 783  : 	return Py_BuildNone();

  000ea	e8 00 00 00 00	 call	 ?Py_BuildNone@@YAPAU_object@@XZ ; Py_BuildNone

; 784  : }

  000ef	5e		 pop	 esi
  000f0	8b e5		 mov	 esp, ebp
  000f2	5d		 pop	 ebp
  000f3	c3		 ret	 0
?playerMoveItem@@YAPAU_object@@PAU1@0@Z ENDP		; playerMoveItem
_TEXT	ENDS
; Function compile flags: /Ogtp
; File D:\Metin2 Server Files\mainline\SRC_2014\Metin2Client\UserInterface\PythonPlayerModule.cpp
;	COMDAT ?playerClearSkillDict@@YAPAU_object@@PAU1@0@Z
_TEXT	SEGMENT
_poSelf$ = 8						; size = 4
_poArgs$ = 12						; size = 4
?playerClearSkillDict@@YAPAU_object@@PAU1@0@Z PROC	; playerClearSkillDict, COMDAT

; 752  : 	CPythonPlayer::Instance().ClearSkillDict();

  00000	8b 0d 00 00 00
	00		 mov	 ecx, DWORD PTR ?ms_singleton@?$CSingleton@VCPythonPlayer@@@@0PAVCPythonPlayer@@A ; CSingleton<CPythonPlayer>::ms_singleton
  00006	e8 00 00 00 00	 call	 ?ClearSkillDict@CPythonPlayer@@QAEXXZ ; CPythonPlayer::ClearSkillDict

; 753  : 	return Py_BuildNone();

  0000b	e9 00 00 00 00	 jmp	 ?Py_BuildNone@@YAPAU_object@@XZ ; Py_BuildNone
?playerClearSkillDict@@YAPAU_object@@PAU1@0@Z ENDP	; playerClearSkillDict
_TEXT	ENDS
; Function compile flags: /Ogtp
; File D:\Metin2 Server Files\mainline\SRC_2014\Metin2Client\UserInterface\PythonPlayerModule.cpp
;	COMDAT ?playerChangeCurrentSkillNumberOnly@@YAPAU_object@@PAU1@0@Z
_TEXT	SEGMENT
_iSlotIndex$ = -4					; size = 4
_poSelf$ = 8						; size = 4
_poArgs$ = 12						; size = 4
?playerChangeCurrentSkillNumberOnly@@YAPAU_object@@PAU1@0@Z PROC ; playerChangeCurrentSkillNumberOnly, COMDAT

; 740  : {

  00000	55		 push	 ebp
  00001	8b ec		 mov	 ebp, esp
  00003	51		 push	 ecx

; 741  : 	int iSlotIndex;
; 742  : 	if (!PyTuple_GetInteger(poArgs, 0, &iSlotIndex))

  00004	8d 45 fc	 lea	 eax, DWORD PTR _iSlotIndex$[ebp]
  00007	50		 push	 eax
  00008	6a 00		 push	 0
  0000a	ff 75 0c	 push	 DWORD PTR _poArgs$[ebp]
  0000d	e8 00 00 00 00	 call	 ?PyTuple_GetInteger@@YA_NPAU_object@@HPAH@Z ; PyTuple_GetInteger
  00012	83 c4 0c	 add	 esp, 12			; 0000000cH
  00015	84 c0		 test	 al, al
  00017	75 09		 jne	 SHORT $LN2@playerChan

; 743  : 		return Py_BadArgument();

  00019	e8 00 00 00 00	 call	 ?Py_BadArgument@@YAPAU_object@@XZ ; Py_BadArgument

; 748  : }

  0001e	8b e5		 mov	 esp, ebp
  00020	5d		 pop	 ebp
  00021	c3		 ret	 0
$LN2@playerChan:

; 744  : 
; 745  : 	CPythonPlayer::Instance().ChangeCurrentSkillNumberOnly(iSlotIndex);

  00022	ff 75 fc	 push	 DWORD PTR _iSlotIndex$[ebp]
  00025	8b 0d 00 00 00
	00		 mov	 ecx, DWORD PTR ?ms_singleton@?$CSingleton@VCPythonPlayer@@@@0PAVCPythonPlayer@@A ; CSingleton<CPythonPlayer>::ms_singleton
  0002b	e8 00 00 00 00	 call	 ?ChangeCurrentSkillNumberOnly@CPythonPlayer@@QAEXK@Z ; CPythonPlayer::ChangeCurrentSkillNumberOnly

; 746  : 
; 747  : 	return Py_BuildNone();

  00030	e8 00 00 00 00	 call	 ?Py_BuildNone@@YAPAU_object@@XZ ; Py_BuildNone

; 748  : }

  00035	8b e5		 mov	 esp, ebp
  00037	5d		 pop	 ebp
  00038	c3		 ret	 0
?playerChangeCurrentSkillNumberOnly@@YAPAU_object@@PAU1@0@Z ENDP ; playerChangeCurrentSkillNumberOnly
_TEXT	ENDS
; Function compile flags: /Ogtp
; File D:\Metin2 Server Files\mainline\SRC_2014\Metin2Client\UserInterface\PythonPlayerModule.cpp
;	COMDAT ?playerClickSkillSlot@@YAPAU_object@@PAU1@0@Z
_TEXT	SEGMENT
_iSkillSlot$ = -4					; size = 4
_poSelf$ = 8						; size = 4
_poArgs$ = 12						; size = 4
?playerClickSkillSlot@@YAPAU_object@@PAU1@0@Z PROC	; playerClickSkillSlot, COMDAT

; 729  : {

  00000	55		 push	 ebp
  00001	8b ec		 mov	 ebp, esp
  00003	51		 push	 ecx

; 730  : 	int iSkillSlot;
; 731  : 	if (!PyTuple_GetInteger(poArgs, 0, &iSkillSlot))

  00004	8d 45 fc	 lea	 eax, DWORD PTR _iSkillSlot$[ebp]
  00007	50		 push	 eax
  00008	6a 00		 push	 0
  0000a	ff 75 0c	 push	 DWORD PTR _poArgs$[ebp]
  0000d	e8 00 00 00 00	 call	 ?PyTuple_GetInteger@@YA_NPAU_object@@HPAH@Z ; PyTuple_GetInteger
  00012	83 c4 0c	 add	 esp, 12			; 0000000cH
  00015	84 c0		 test	 al, al
  00017	75 09		 jne	 SHORT $LN2@playerClic

; 732  : 		return Py_BadArgument();

  00019	e8 00 00 00 00	 call	 ?Py_BadArgument@@YAPAU_object@@XZ ; Py_BadArgument

; 737  : }

  0001e	8b e5		 mov	 esp, ebp
  00020	5d		 pop	 ebp
  00021	c3		 ret	 0
$LN2@playerClic:

; 733  : 
; 734  : 	CPythonPlayer::Instance().ClickSkillSlot(iSkillSlot);

  00022	ff 75 fc	 push	 DWORD PTR _iSkillSlot$[ebp]
  00025	8b 0d 00 00 00
	00		 mov	 ecx, DWORD PTR ?ms_singleton@?$CSingleton@VCPythonPlayer@@@@0PAVCPythonPlayer@@A ; CSingleton<CPythonPlayer>::ms_singleton
  0002b	e8 00 00 00 00	 call	 ?ClickSkillSlot@CPythonPlayer@@QAEXK@Z ; CPythonPlayer::ClickSkillSlot

; 735  : 
; 736  : 	return Py_BuildNone();

  00030	e8 00 00 00 00	 call	 ?Py_BuildNone@@YAPAU_object@@XZ ; Py_BuildNone

; 737  : }

  00035	8b e5		 mov	 esp, ebp
  00037	5d		 pop	 ebp
  00038	c3		 ret	 0
?playerClickSkillSlot@@YAPAU_object@@PAU1@0@Z ENDP	; playerClickSkillSlot
_TEXT	ENDS
; Function compile flags: /Ogtp
; File D:\Metin2 Server Files\mainline\SRC_2014\Metin2Client\UserInterface\PythonPlayerModule.cpp
;	COMDAT ?playerGetSkillNextEfficientPercentage@@YAPAU_object@@PAU1@0@Z
_TEXT	SEGMENT
_iSlotIndex$ = -4					; size = 4
_poSelf$ = 8						; size = 4
_poArgs$ = 12						; size = 4
?playerGetSkillNextEfficientPercentage@@YAPAU_object@@PAU1@0@Z PROC ; playerGetSkillNextEfficientPercentage, COMDAT

; 720  : {

  00000	55		 push	 ebp
  00001	8b ec		 mov	 ebp, esp
  00003	51		 push	 ecx

; 721  : 	int iSlotIndex;
; 722  : 	if (!PyTuple_GetInteger(poArgs, 0, &iSlotIndex))

  00004	8d 45 fc	 lea	 eax, DWORD PTR _iSlotIndex$[ebp]
  00007	50		 push	 eax
  00008	6a 00		 push	 0
  0000a	ff 75 0c	 push	 DWORD PTR _poArgs$[ebp]
  0000d	e8 00 00 00 00	 call	 ?PyTuple_GetInteger@@YA_NPAU_object@@HPAH@Z ; PyTuple_GetInteger
  00012	83 c4 0c	 add	 esp, 12			; 0000000cH
  00015	84 c0		 test	 al, al
  00017	75 0e		 jne	 SHORT $LN2@playerGetS

; 723  : 		return Py_BuildException();

  00019	6a 00		 push	 0
  0001b	e8 00 00 00 00	 call	 ?Py_BuildException@@YAPAU_object@@PBDZZ ; Py_BuildException
  00020	83 c4 04	 add	 esp, 4

; 726  : }

  00023	8b e5		 mov	 esp, ebp
  00025	5d		 pop	 ebp
  00026	c3		 ret	 0
$LN2@playerGetS:

; 724  : 
; 725  : 	return Py_BuildValue("f", CPythonPlayer::Instance().GetSkillNextEfficientPercentage(iSlotIndex));

  00027	ff 75 fc	 push	 DWORD PTR _iSlotIndex$[ebp]
  0002a	8b 0d 00 00 00
	00		 mov	 ecx, DWORD PTR ?ms_singleton@?$CSingleton@VCPythonPlayer@@@@0PAVCPythonPlayer@@A ; CSingleton<CPythonPlayer>::ms_singleton
  00030	e8 00 00 00 00	 call	 ?GetSkillNextEfficientPercentage@CPythonPlayer@@QAEMK@Z ; CPythonPlayer::GetSkillNextEfficientPercentage
  00035	83 ec 08	 sub	 esp, 8
  00038	dd 1c 24	 fstp	 QWORD PTR [esp]
  0003b	68 00 00 00 00	 push	 OFFSET ??_C@_01INIBCBCB@f@
  00040	ff 15 00 00 00
	00		 call	 DWORD PTR __imp__Py_BuildValue
  00046	83 c4 0c	 add	 esp, 12			; 0000000cH

; 726  : }

  00049	8b e5		 mov	 esp, ebp
  0004b	5d		 pop	 ebp
  0004c	c3		 ret	 0
?playerGetSkillNextEfficientPercentage@@YAPAU_object@@PAU1@0@Z ENDP ; playerGetSkillNextEfficientPercentage
_TEXT	ENDS
; Function compile flags: /Ogtp
; File D:\Metin2 Server Files\mainline\SRC_2014\Metin2Client\UserInterface\PythonPlayerModule.cpp
;	COMDAT ?playerGetSkillCurrentEfficientPercentage@@YAPAU_object@@PAU1@0@Z
_TEXT	SEGMENT
_iSlotIndex$ = -4					; size = 4
_poSelf$ = 8						; size = 4
_poArgs$ = 12						; size = 4
?playerGetSkillCurrentEfficientPercentage@@YAPAU_object@@PAU1@0@Z PROC ; playerGetSkillCurrentEfficientPercentage, COMDAT

; 712  : {

  00000	55		 push	 ebp
  00001	8b ec		 mov	 ebp, esp
  00003	51		 push	 ecx

; 713  : 	int iSlotIndex;
; 714  : 	if (!PyTuple_GetInteger(poArgs, 0, &iSlotIndex))

  00004	8d 45 fc	 lea	 eax, DWORD PTR _iSlotIndex$[ebp]
  00007	50		 push	 eax
  00008	6a 00		 push	 0
  0000a	ff 75 0c	 push	 DWORD PTR _poArgs$[ebp]
  0000d	e8 00 00 00 00	 call	 ?PyTuple_GetInteger@@YA_NPAU_object@@HPAH@Z ; PyTuple_GetInteger
  00012	83 c4 0c	 add	 esp, 12			; 0000000cH
  00015	84 c0		 test	 al, al
  00017	75 0e		 jne	 SHORT $LN2@playerGetS

; 715  : 		return Py_BuildException();

  00019	6a 00		 push	 0
  0001b	e8 00 00 00 00	 call	 ?Py_BuildException@@YAPAU_object@@PBDZZ ; Py_BuildException
  00020	83 c4 04	 add	 esp, 4

; 718  : }

  00023	8b e5		 mov	 esp, ebp
  00025	5d		 pop	 ebp
  00026	c3		 ret	 0
$LN2@playerGetS:

; 716  : 
; 717  : 	return Py_BuildValue("f", CPythonPlayer::Instance().GetSkillCurrentEfficientPercentage(iSlotIndex));

  00027	ff 75 fc	 push	 DWORD PTR _iSlotIndex$[ebp]
  0002a	8b 0d 00 00 00
	00		 mov	 ecx, DWORD PTR ?ms_singleton@?$CSingleton@VCPythonPlayer@@@@0PAVCPythonPlayer@@A ; CSingleton<CPythonPlayer>::ms_singleton
  00030	e8 00 00 00 00	 call	 ?GetSkillCurrentEfficientPercentage@CPythonPlayer@@QAEMK@Z ; CPythonPlayer::GetSkillCurrentEfficientPercentage
  00035	83 ec 08	 sub	 esp, 8
  00038	dd 1c 24	 fstp	 QWORD PTR [esp]
  0003b	68 00 00 00 00	 push	 OFFSET ??_C@_01INIBCBCB@f@
  00040	ff 15 00 00 00
	00		 call	 DWORD PTR __imp__Py_BuildValue
  00046	83 c4 0c	 add	 esp, 12			; 0000000cH

; 718  : }

  00049	8b e5		 mov	 esp, ebp
  0004b	5d		 pop	 ebp
  0004c	c3		 ret	 0
?playerGetSkillCurrentEfficientPercentage@@YAPAU_object@@PAU1@0@Z ENDP ; playerGetSkillCurrentEfficientPercentage
_TEXT	ENDS
; Function compile flags: /Ogtp
; File D:\Metin2 Server Files\mainline\SRC_2014\Metin2Client\UserInterface\PythonPlayerModule.cpp
;	COMDAT ?playerGetSkillLevel@@YAPAU_object@@PAU1@0@Z
_TEXT	SEGMENT
_iSlotIndex$ = -4					; size = 4
_poSelf$ = 8						; size = 4
_poArgs$ = 12						; size = 4
?playerGetSkillLevel@@YAPAU_object@@PAU1@0@Z PROC	; playerGetSkillLevel, COMDAT

; 703  : {

  00000	55		 push	 ebp
  00001	8b ec		 mov	 ebp, esp
  00003	51		 push	 ecx

; 704  : 	int iSlotIndex;
; 705  : 	if (!PyTuple_GetInteger(poArgs, 0, &iSlotIndex))

  00004	8d 45 fc	 lea	 eax, DWORD PTR _iSlotIndex$[ebp]
  00007	50		 push	 eax
  00008	6a 00		 push	 0
  0000a	ff 75 0c	 push	 DWORD PTR _poArgs$[ebp]
  0000d	e8 00 00 00 00	 call	 ?PyTuple_GetInteger@@YA_NPAU_object@@HPAH@Z ; PyTuple_GetInteger
  00012	83 c4 0c	 add	 esp, 12			; 0000000cH
  00015	84 c0		 test	 al, al
  00017	75 0e		 jne	 SHORT $LN2@playerGetS

; 706  : 		return Py_BuildException();

  00019	6a 00		 push	 0
  0001b	e8 00 00 00 00	 call	 ?Py_BuildException@@YAPAU_object@@PBDZZ ; Py_BuildException
  00020	83 c4 04	 add	 esp, 4

; 709  : }

  00023	8b e5		 mov	 esp, ebp
  00025	5d		 pop	 ebp
  00026	c3		 ret	 0
$LN2@playerGetS:

; 707  : 
; 708  : 	return Py_BuildValue("i", CPythonPlayer::Instance().GetSkillLevel(iSlotIndex));

  00027	ff 75 fc	 push	 DWORD PTR _iSlotIndex$[ebp]
  0002a	8b 0d 00 00 00
	00		 mov	 ecx, DWORD PTR ?ms_singleton@?$CSingleton@VCPythonPlayer@@@@0PAVCPythonPlayer@@A ; CSingleton<CPythonPlayer>::ms_singleton
  00030	e8 00 00 00 00	 call	 ?GetSkillLevel@CPythonPlayer@@QAEHK@Z ; CPythonPlayer::GetSkillLevel
  00035	50		 push	 eax
  00036	68 00 00 00 00	 push	 OFFSET ??_C@_01KBJDNOO@i@
  0003b	ff 15 00 00 00
	00		 call	 DWORD PTR __imp__Py_BuildValue
  00041	83 c4 08	 add	 esp, 8

; 709  : }

  00044	8b e5		 mov	 esp, ebp
  00046	5d		 pop	 ebp
  00047	c3		 ret	 0
?playerGetSkillLevel@@YAPAU_object@@PAU1@0@Z ENDP	; playerGetSkillLevel
_TEXT	ENDS
; Function compile flags: /Ogtp
; File D:\Metin2 Server Files\mainline\SRC_2014\Metin2Client\UserInterface\PythonPlayerModule.cpp
;	COMDAT ?playerGetSkillGrade@@YAPAU_object@@PAU1@0@Z
_TEXT	SEGMENT
_iSlotIndex$ = -4					; size = 4
_poSelf$ = 8						; size = 4
_poArgs$ = 12						; size = 4
?playerGetSkillGrade@@YAPAU_object@@PAU1@0@Z PROC	; playerGetSkillGrade, COMDAT

; 694  : {

  00000	55		 push	 ebp
  00001	8b ec		 mov	 ebp, esp
  00003	51		 push	 ecx

; 695  : 	int iSlotIndex;
; 696  : 	if (!PyTuple_GetInteger(poArgs, 0, &iSlotIndex))

  00004	8d 45 fc	 lea	 eax, DWORD PTR _iSlotIndex$[ebp]
  00007	50		 push	 eax
  00008	6a 00		 push	 0
  0000a	ff 75 0c	 push	 DWORD PTR _poArgs$[ebp]
  0000d	e8 00 00 00 00	 call	 ?PyTuple_GetInteger@@YA_NPAU_object@@HPAH@Z ; PyTuple_GetInteger
  00012	83 c4 0c	 add	 esp, 12			; 0000000cH
  00015	84 c0		 test	 al, al
  00017	75 0e		 jne	 SHORT $LN2@playerGetS

; 697  : 		return Py_BuildException();

  00019	6a 00		 push	 0
  0001b	e8 00 00 00 00	 call	 ?Py_BuildException@@YAPAU_object@@PBDZZ ; Py_BuildException
  00020	83 c4 04	 add	 esp, 4

; 700  : }

  00023	8b e5		 mov	 esp, ebp
  00025	5d		 pop	 ebp
  00026	c3		 ret	 0
$LN2@playerGetS:

; 698  : 
; 699  : 	return Py_BuildValue("i", CPythonPlayer::Instance().GetSkillGrade(iSlotIndex));

  00027	ff 75 fc	 push	 DWORD PTR _iSlotIndex$[ebp]
  0002a	8b 0d 00 00 00
	00		 mov	 ecx, DWORD PTR ?ms_singleton@?$CSingleton@VCPythonPlayer@@@@0PAVCPythonPlayer@@A ; CSingleton<CPythonPlayer>::ms_singleton
  00030	e8 00 00 00 00	 call	 ?GetSkillGrade@CPythonPlayer@@QAEHK@Z ; CPythonPlayer::GetSkillGrade
  00035	50		 push	 eax
  00036	68 00 00 00 00	 push	 OFFSET ??_C@_01KBJDNOO@i@
  0003b	ff 15 00 00 00
	00		 call	 DWORD PTR __imp__Py_BuildValue
  00041	83 c4 08	 add	 esp, 8

; 700  : }

  00044	8b e5		 mov	 esp, ebp
  00046	5d		 pop	 ebp
  00047	c3		 ret	 0
?playerGetSkillGrade@@YAPAU_object@@PAU1@0@Z ENDP	; playerGetSkillGrade
_TEXT	ENDS
; Function compile flags: /Ogtp
; File D:\Metin2 Server Files\mainline\SRC_2014\Metin2Client\UserInterface\PythonPlayerModule.cpp
;	COMDAT ?playerGetSkillSlotIndex@@YAPAU_object@@PAU1@0@Z
_TEXT	SEGMENT
_dwSlotIndex$ = -8					; size = 4
_iSkillIndex$ = -4					; size = 4
_poSelf$ = 8						; size = 4
_poArgs$ = 12						; size = 4
?playerGetSkillSlotIndex@@YAPAU_object@@PAU1@0@Z PROC	; playerGetSkillSlotIndex, COMDAT

; 681  : {

  00000	55		 push	 ebp
  00001	8b ec		 mov	 ebp, esp
  00003	83 ec 08	 sub	 esp, 8

; 682  : 	int iSkillIndex;
; 683  : 	if (!PyTuple_GetInteger(poArgs, 0, &iSkillIndex))

  00006	8d 45 fc	 lea	 eax, DWORD PTR _iSkillIndex$[ebp]
  00009	50		 push	 eax
  0000a	6a 00		 push	 0
  0000c	ff 75 0c	 push	 DWORD PTR _poArgs$[ebp]
  0000f	e8 00 00 00 00	 call	 ?PyTuple_GetInteger@@YA_NPAU_object@@HPAH@Z ; PyTuple_GetInteger
  00014	83 c4 0c	 add	 esp, 12			; 0000000cH
  00017	84 c0		 test	 al, al
  00019	75 0e		 jne	 SHORT $LN2@playerGetS
$LN5@playerGetS:

; 691  : }

  0001b	6a 00		 push	 0
  0001d	e8 00 00 00 00	 call	 ?Py_BuildException@@YAPAU_object@@PBDZZ ; Py_BuildException
  00022	83 c4 04	 add	 esp, 4
  00025	8b e5		 mov	 esp, ebp
  00027	5d		 pop	 ebp
  00028	c3		 ret	 0
$LN2@playerGetS:

; 684  : 		return Py_BuildException();
; 685  : 
; 686  : 	DWORD dwSlotIndex;
; 687  : 	if (!CPythonPlayer::Instance().GetSkillSlotIndex(iSkillIndex, &dwSlotIndex))

  00029	8b 0d 00 00 00
	00		 mov	 ecx, DWORD PTR ?ms_singleton@?$CSingleton@VCPythonPlayer@@@@0PAVCPythonPlayer@@A ; CSingleton<CPythonPlayer>::ms_singleton
  0002f	8d 45 f8	 lea	 eax, DWORD PTR _dwSlotIndex$[ebp]
  00032	50		 push	 eax
  00033	ff 75 fc	 push	 DWORD PTR _iSkillIndex$[ebp]
  00036	e8 00 00 00 00	 call	 ?GetSkillSlotIndex@CPythonPlayer@@QAE_NKPAK@Z ; CPythonPlayer::GetSkillSlotIndex
  0003b	84 c0		 test	 al, al
  0003d	74 dc		 je	 SHORT $LN5@playerGetS

; 688  : 		return Py_BuildException();
; 689  : 
; 690  : 	return Py_BuildValue("i", dwSlotIndex);

  0003f	ff 75 f8	 push	 DWORD PTR _dwSlotIndex$[ebp]
  00042	68 00 00 00 00	 push	 OFFSET ??_C@_01KBJDNOO@i@
  00047	ff 15 00 00 00
	00		 call	 DWORD PTR __imp__Py_BuildValue
  0004d	83 c4 08	 add	 esp, 8

; 691  : }

  00050	8b e5		 mov	 esp, ebp
  00052	5d		 pop	 ebp
  00053	c3		 ret	 0
?playerGetSkillSlotIndex@@YAPAU_object@@PAU1@0@Z ENDP	; playerGetSkillSlotIndex
_TEXT	ENDS
; Function compile flags: /Ogtp
; File D:\Metin2 Server Files\mainline\SRC_2014\Metin2Client\UserInterface\PythonPlayerModule.cpp
;	COMDAT ?playerGetSkillIndex@@YAPAU_object@@PAU1@0@Z
_TEXT	SEGMENT
_iSlotIndex$ = -4					; size = 4
_poSelf$ = 8						; size = 4
_poArgs$ = 12						; size = 4
?playerGetSkillIndex@@YAPAU_object@@PAU1@0@Z PROC	; playerGetSkillIndex, COMDAT

; 672  : {

  00000	55		 push	 ebp
  00001	8b ec		 mov	 ebp, esp
  00003	51		 push	 ecx

; 673  : 	int iSlotIndex;
; 674  : 	if (!PyTuple_GetInteger(poArgs, 0, &iSlotIndex))

  00004	8d 45 fc	 lea	 eax, DWORD PTR _iSlotIndex$[ebp]
  00007	50		 push	 eax
  00008	6a 00		 push	 0
  0000a	ff 75 0c	 push	 DWORD PTR _poArgs$[ebp]
  0000d	e8 00 00 00 00	 call	 ?PyTuple_GetInteger@@YA_NPAU_object@@HPAH@Z ; PyTuple_GetInteger
  00012	83 c4 0c	 add	 esp, 12			; 0000000cH
  00015	84 c0		 test	 al, al
  00017	75 0e		 jne	 SHORT $LN2@playerGetS

; 675  : 		return Py_BuildException();

  00019	6a 00		 push	 0
  0001b	e8 00 00 00 00	 call	 ?Py_BuildException@@YAPAU_object@@PBDZZ ; Py_BuildException
  00020	83 c4 04	 add	 esp, 4

; 678  : }

  00023	8b e5		 mov	 esp, ebp
  00025	5d		 pop	 ebp
  00026	c3		 ret	 0
$LN2@playerGetS:

; 676  : 
; 677  : 	return Py_BuildValue("i", CPythonPlayer::Instance().GetSkillIndex(iSlotIndex));

  00027	ff 75 fc	 push	 DWORD PTR _iSlotIndex$[ebp]
  0002a	8b 0d 00 00 00
	00		 mov	 ecx, DWORD PTR ?ms_singleton@?$CSingleton@VCPythonPlayer@@@@0PAVCPythonPlayer@@A ; CSingleton<CPythonPlayer>::ms_singleton
  00030	e8 00 00 00 00	 call	 ?GetSkillIndex@CPythonPlayer@@QAEHK@Z ; CPythonPlayer::GetSkillIndex
  00035	50		 push	 eax
  00036	68 00 00 00 00	 push	 OFFSET ??_C@_01KBJDNOO@i@
  0003b	ff 15 00 00 00
	00		 call	 DWORD PTR __imp__Py_BuildValue
  00041	83 c4 08	 add	 esp, 8

; 678  : }

  00044	8b e5		 mov	 esp, ebp
  00046	5d		 pop	 ebp
  00047	c3		 ret	 0
?playerGetSkillIndex@@YAPAU_object@@PAU1@0@Z ENDP	; playerGetSkillIndex
_TEXT	ENDS
; Function compile flags: /Ogtp
; File D:\Metin2 Server Files\mainline\SRC_2014\Metin2Client\UserInterface\PythonPlayerModule.cpp
;	COMDAT ?playerSetSkill@@YAPAU_object@@PAU1@0@Z
_TEXT	SEGMENT
_iSlotIndex$ = -8					; size = 4
_iSkillIndex$ = -4					; size = 4
_poSelf$ = 8						; size = 4
_poArgs$ = 12						; size = 4
?playerSetSkill@@YAPAU_object@@PAU1@0@Z PROC		; playerSetSkill, COMDAT

; 658  : {

  00000	55		 push	 ebp
  00001	8b ec		 mov	 ebp, esp
  00003	83 ec 08	 sub	 esp, 8

; 659  : 	int iSlotIndex;
; 660  : 	if (!PyTuple_GetInteger(poArgs, 0, &iSlotIndex))

  00006	8d 45 f8	 lea	 eax, DWORD PTR _iSlotIndex$[ebp]
  00009	50		 push	 eax
  0000a	6a 00		 push	 0
  0000c	ff 75 0c	 push	 DWORD PTR _poArgs$[ebp]
  0000f	e8 00 00 00 00	 call	 ?PyTuple_GetInteger@@YA_NPAU_object@@HPAH@Z ; PyTuple_GetInteger
  00014	83 c4 0c	 add	 esp, 12			; 0000000cH
  00017	84 c0		 test	 al, al
  00019	75 0e		 jne	 SHORT $LN2@playerSetS
$LN5@playerSetS:

; 669  : }

  0001b	6a 00		 push	 0
  0001d	e8 00 00 00 00	 call	 ?Py_BuildException@@YAPAU_object@@PBDZZ ; Py_BuildException
  00022	83 c4 04	 add	 esp, 4
  00025	8b e5		 mov	 esp, ebp
  00027	5d		 pop	 ebp
  00028	c3		 ret	 0
$LN2@playerSetS:

; 661  : 		return Py_BuildException();
; 662  : 
; 663  : 	int iSkillIndex;
; 664  : 	if (!PyTuple_GetInteger(poArgs, 1, &iSkillIndex))

  00029	8d 45 fc	 lea	 eax, DWORD PTR _iSkillIndex$[ebp]
  0002c	50		 push	 eax
  0002d	6a 01		 push	 1
  0002f	ff 75 0c	 push	 DWORD PTR _poArgs$[ebp]
  00032	e8 00 00 00 00	 call	 ?PyTuple_GetInteger@@YA_NPAU_object@@HPAH@Z ; PyTuple_GetInteger
  00037	83 c4 0c	 add	 esp, 12			; 0000000cH
  0003a	84 c0		 test	 al, al
  0003c	74 dd		 je	 SHORT $LN5@playerSetS

; 665  : 		return Py_BuildException();
; 666  : 
; 667  : 	CPythonPlayer::Instance().SetSkill(iSlotIndex, iSkillIndex);

  0003e	ff 75 fc	 push	 DWORD PTR _iSkillIndex$[ebp]
  00041	8b 0d 00 00 00
	00		 mov	 ecx, DWORD PTR ?ms_singleton@?$CSingleton@VCPythonPlayer@@@@0PAVCPythonPlayer@@A ; CSingleton<CPythonPlayer>::ms_singleton
  00047	ff 75 f8	 push	 DWORD PTR _iSlotIndex$[ebp]
  0004a	e8 00 00 00 00	 call	 ?SetSkill@CPythonPlayer@@QAEXKK@Z ; CPythonPlayer::SetSkill

; 668  : 	return Py_BuildNone();

  0004f	e8 00 00 00 00	 call	 ?Py_BuildNone@@YAPAU_object@@XZ ; Py_BuildNone

; 669  : }

  00054	8b e5		 mov	 esp, ebp
  00056	5d		 pop	 ebp
  00057	c3		 ret	 0
?playerSetSkill@@YAPAU_object@@PAU1@0@Z ENDP		; playerSetSkill
_TEXT	ENDS
; Function compile flags: /Ogtp
; File D:\Metin2 Server Files\mainline\SRC_2014\Metin2Client\UserInterface\PythonPlayerModule.cpp
;	COMDAT ?playerGetAlignmentData@@YAPAU_object@@PAU1@0@Z
_TEXT	SEGMENT
_poSelf$ = 8						; size = 4
_poArgs$ = 12						; size = 4
?playerGetAlignmentData@@YAPAU_object@@PAU1@0@Z PROC	; playerGetAlignmentData, COMDAT

; 646  : 	CInstanceBase * pInstance = CPythonPlayer::Instance().NEW_GetMainActorPtr();

  00000	8b 0d 00 00 00
	00		 mov	 ecx, DWORD PTR ?ms_singleton@?$CSingleton@VCPythonPlayer@@@@0PAVCPythonPlayer@@A ; CSingleton<CPythonPlayer>::ms_singleton
  00006	83 c1 04	 add	 ecx, 4
  00009	56		 push	 esi
  0000a	57		 push	 edi
  0000b	8b 01		 mov	 eax, DWORD PTR [ecx]
  0000d	ff 90 88 00 00
	00		 call	 DWORD PTR [eax+136]

; 647  : 	int iAlignmentPoint = 0;

  00013	33 ff		 xor	 edi, edi
  00015	8b f0		 mov	 esi, eax

; 648  : 	int iAlignmentGrade = 4;

  00017	8d 47 04	 lea	 eax, DWORD PTR [edi+4]

; 649  : 	if (pInstance)

  0001a	85 f6		 test	 esi, esi
  0001c	74 10		 je	 SHORT $LN2@playerGetA

; 650  : 	{
; 651  : 		iAlignmentPoint = pInstance->GetAlignment();

  0001e	8b ce		 mov	 ecx, esi
  00020	e8 00 00 00 00	 call	 ?GetAlignment@CInstanceBase@@QAEHXZ ; CInstanceBase::GetAlignment

; 652  : 		iAlignmentGrade = pInstance->GetAlignmentGrade();

  00025	8b ce		 mov	 ecx, esi
  00027	8b f8		 mov	 edi, eax
  00029	e8 00 00 00 00	 call	 ?GetAlignmentGrade@CInstanceBase@@QAEIXZ ; CInstanceBase::GetAlignmentGrade
$LN2@playerGetA:

; 653  : 	}
; 654  : 	return Py_BuildValue("ii", iAlignmentPoint, iAlignmentGrade);

  0002e	50		 push	 eax
  0002f	57		 push	 edi
  00030	68 00 00 00 00	 push	 OFFSET ??_C@_02PDIHAGKM@ii@
  00035	ff 15 00 00 00
	00		 call	 DWORD PTR __imp__Py_BuildValue
  0003b	83 c4 0c	 add	 esp, 12			; 0000000cH
  0003e	5f		 pop	 edi
  0003f	5e		 pop	 esi

; 655  : }

  00040	c3		 ret	 0
?playerGetAlignmentData@@YAPAU_object@@PAU1@0@Z ENDP	; playerGetAlignmentData
_TEXT	ENDS
; Function compile flags: /Ogtp
; File D:\Metin2 Server Files\mainline\SRC_2014\Metin2Client\UserInterface\PythonPlayerModule.cpp
; File C:\Program Files (x86)\Microsoft Visual Studio\2019\Community\VC\Tools\MSVC\14.28.29333\include\xstring
; File D:\Metin2 Server Files\mainline\SRC_2014\Metin2Client\UserInterface\PythonPlayerModule.cpp
; File C:\Program Files (x86)\Microsoft Visual Studio\2019\Community\VC\Tools\MSVC\14.28.29333\include\xstring
; File D:\Metin2 Server Files\mainline\SRC_2014\Metin2Client\UserInterface\PythonPlayerModule.cpp
; File C:\Program Files (x86)\Microsoft Visual Studio\2019\Community\VC\Tools\MSVC\14.28.29333\include\xstring
; File D:\Metin2 Server Files\mainline\SRC_2014\Metin2Client\UserInterface\PythonPlayerModule.cpp
; File C:\Program Files (x86)\Microsoft Visual Studio\2019\Community\VC\Tools\MSVC\14.28.29333\include\xstring
; File C:\Program Files (x86)\Microsoft Visual Studio\2019\Community\VC\Tools\MSVC\14.28.29333\include\xmemory
; File D:\Metin2 Server Files\mainline\SRC_2014\Metin2Client\UserInterface\PythonPlayerModule.cpp
; File C:\Program Files (x86)\Microsoft Visual Studio\2019\Community\VC\Tools\MSVC\14.28.29333\include\xstring
; File C:\Program Files (x86)\Microsoft Visual Studio\2019\Community\VC\Tools\MSVC\14.28.29333\include\xmemory
; File D:\Metin2 Server Files\mainline\SRC_2014\Metin2Client\UserInterface\PythonPlayerModule.cpp
;	COMDAT ?playerGetGuildName@@YAPAU_object@@PAU1@0@Z
_TEXT	SEGMENT
_strName$2 = -40					; size = 24
__$ArrayPad$ = -16					; size = 4
__$EHRec$ = -12						; size = 12
_poSelf$ = 8						; size = 4
_poArgs$ = 12						; size = 4
?playerGetGuildName@@YAPAU_object@@PAU1@0@Z PROC	; playerGetGuildName, COMDAT

; 632  : {

  00000	55		 push	 ebp
  00001	8b ec		 mov	 ebp, esp
  00003	6a ff		 push	 -1
  00005	68 00 00 00 00	 push	 __ehhandler$?playerGetGuildName@@YAPAU_object@@PAU1@0@Z
  0000a	64 a1 00 00 00
	00		 mov	 eax, DWORD PTR fs:0
  00010	50		 push	 eax
  00011	83 ec 1c	 sub	 esp, 28			; 0000001cH
  00014	a1 00 00 00 00	 mov	 eax, DWORD PTR ___security_cookie
  00019	33 c5		 xor	 eax, ebp
  0001b	89 45 f0	 mov	 DWORD PTR __$ArrayPad$[ebp], eax
  0001e	56		 push	 esi
  0001f	50		 push	 eax
  00020	8d 45 f4	 lea	 eax, DWORD PTR __$EHRec$[ebp]
  00023	64 a3 00 00 00
	00		 mov	 DWORD PTR fs:0, eax

; 633  : 	CInstanceBase * pInstance = CPythonPlayer::Instance().NEW_GetMainActorPtr();

  00029	8b 0d 00 00 00
	00		 mov	 ecx, DWORD PTR ?ms_singleton@?$CSingleton@VCPythonPlayer@@@@0PAVCPythonPlayer@@A ; CSingleton<CPythonPlayer>::ms_singleton
  0002f	83 c1 04	 add	 ecx, 4
  00032	8b 01		 mov	 eax, DWORD PTR [ecx]
  00034	ff 90 88 00 00
	00		 call	 DWORD PTR [eax+136]

; 634  : 	if (pInstance)

  0003a	85 c0		 test	 eax, eax
  0003c	74 7e		 je	 SHORT $LN38@playerGetG

; 635  : 	{
; 636  : 		DWORD dwID = pInstance->GetGuildID();

  0003e	8b c8		 mov	 ecx, eax
  00040	e8 00 00 00 00	 call	 ?GetGuildID@CInstanceBase@@QAEKXZ ; CInstanceBase::GetGuildID
; File C:\Program Files (x86)\Microsoft Visual Studio\2019\Community\VC\Tools\MSVC\14.28.29333\include\xstring

; 4377 :         _Mypair._Myval2._Mysize = 0;

  00045	c7 45 e8 00 00
	00 00		 mov	 DWORD PTR _strName$2[ebp+16], 0

; 4378 :         _Mypair._Myval2._Myres  = _BUF_SIZE - 1;

  0004c	c7 45 ec 0f 00
	00 00		 mov	 DWORD PTR _strName$2[ebp+20], 15 ; 0000000fH

; 4379 :         // the _Traits::assign is last so the codegen doesn't think the char write can alias this
; 4380 :         _Traits::assign(_Mypair._Myval2._Bx._Buf[0], _Elem());

  00053	c6 45 d8 00	 mov	 BYTE PTR _strName$2[ebp], 0
; File D:\Metin2 Server Files\mainline\SRC_2014\Metin2Client\UserInterface\PythonPlayerModule.cpp

; 638  : 		if (CPythonGuild::Instance().GetGuildName(dwID, &strName))

  00057	8d 4d d8	 lea	 ecx, DWORD PTR _strName$2[ebp]
  0005a	c7 45 fc 00 00
	00 00		 mov	 DWORD PTR __$EHRec$[ebp+8], 0
  00061	51		 push	 ecx
  00062	8b 0d 00 00 00
	00		 mov	 ecx, DWORD PTR ?ms_singleton@?$CSingleton@VCPythonGuild@@@@0PAVCPythonGuild@@A ; CSingleton<CPythonGuild>::ms_singleton
  00068	50		 push	 eax
  00069	e8 00 00 00 00	 call	 ?GetGuildName@CPythonGuild@@QAE_NKPAV?$basic_string@DU?$char_traits@D@std@@V?$allocator@D@2@@std@@@Z ; CPythonGuild::GetGuildName
  0006e	84 c0		 test	 al, al
  00070	74 35		 je	 SHORT $LN3@playerGetG
; File C:\Program Files (x86)\Microsoft Visual Studio\2019\Community\VC\Tools\MSVC\14.28.29333\include\xstring

; 2227 :         return _BUF_SIZE <= _Myres;

  00072	83 7d ec 10	 cmp	 DWORD PTR _strName$2[ebp+20], 16 ; 00000010H

; 2218 :         const value_type* _Result = _Bx._Buf;

  00076	8d 45 d8	 lea	 eax, DWORD PTR _strName$2[ebp]

; 2219 :         if (_Large_string_engaged()) {

  00079	0f 43 45 d8	 cmovae	 eax, DWORD PTR _strName$2[ebp]
; File D:\Metin2 Server Files\mainline\SRC_2014\Metin2Client\UserInterface\PythonPlayerModule.cpp

; 639  : 			return Py_BuildValue("s", strName.c_str());

  0007d	50		 push	 eax
  0007e	68 00 00 00 00	 push	 OFFSET ??_C@_01LKDEMHDF@s@
  00083	ff 15 00 00 00
	00		 call	 DWORD PTR __imp__Py_BuildValue
; File C:\Program Files (x86)\Microsoft Visual Studio\2019\Community\VC\Tools\MSVC\14.28.29333\include\xstring

; 2227 :         return _BUF_SIZE <= _Myres;

  00089	8b 4d ec	 mov	 ecx, DWORD PTR _strName$2[ebp+20]
; File D:\Metin2 Server Files\mainline\SRC_2014\Metin2Client\UserInterface\PythonPlayerModule.cpp

; 639  : 			return Py_BuildValue("s", strName.c_str());

  0008c	83 c4 08	 add	 esp, 8
  0008f	8b f0		 mov	 esi, eax
; File C:\Program Files (x86)\Microsoft Visual Studio\2019\Community\VC\Tools\MSVC\14.28.29333\include\xstring

; 2227 :         return _BUF_SIZE <= _Myres;

  00091	83 f9 10	 cmp	 ecx, 16			; 00000010H

; 4385 :         if (_Mypair._Myval2._Large_string_engaged()) {

  00094	72 0d		 jb	 SHORT $LN28@playerGetG

; 4386 :             const pointer _Ptr = _Mypair._Myval2._Bx._Ptr;
; 4387 :             auto& _Al          = _Getal();
; 4388 :             _Destroy_in_place(_Mypair._Myval2._Bx._Ptr);
; 4389 :             _Al.deallocate(_Ptr, _Mypair._Myval2._Myres + 1);

  00096	41		 inc	 ecx
; File C:\Program Files (x86)\Microsoft Visual Studio\2019\Community\VC\Tools\MSVC\14.28.29333\include\xmemory

; 810  :         _Deallocate<_New_alignof<_Ty>>(_Ptr, sizeof(_Ty) * _Count);

  00097	51		 push	 ecx
  00098	ff 75 d8	 push	 DWORD PTR _strName$2[ebp]
  0009b	e8 00 00 00 00	 call	 ??$_Deallocate@$07$0A@@std@@YAXPAXI@Z ; std::_Deallocate<8,0>
  000a0	83 c4 08	 add	 esp, 8
$LN28@playerGetG:
; File D:\Metin2 Server Files\mainline\SRC_2014\Metin2Client\UserInterface\PythonPlayerModule.cpp

; 639  : 			return Py_BuildValue("s", strName.c_str());

  000a3	8b c6		 mov	 eax, esi
  000a5	eb 28		 jmp	 SHORT $LN1@playerGetG
$LN3@playerGetG:
; File C:\Program Files (x86)\Microsoft Visual Studio\2019\Community\VC\Tools\MSVC\14.28.29333\include\xstring

; 2227 :         return _BUF_SIZE <= _Myres;

  000a7	8b 45 ec	 mov	 eax, DWORD PTR _strName$2[ebp+20]
  000aa	83 f8 10	 cmp	 eax, 16			; 00000010H

; 4385 :         if (_Mypair._Myval2._Large_string_engaged()) {

  000ad	72 0d		 jb	 SHORT $LN38@playerGetG

; 4386 :             const pointer _Ptr = _Mypair._Myval2._Bx._Ptr;
; 4387 :             auto& _Al          = _Getal();
; 4388 :             _Destroy_in_place(_Mypair._Myval2._Bx._Ptr);
; 4389 :             _Al.deallocate(_Ptr, _Mypair._Myval2._Myres + 1);

  000af	40		 inc	 eax
; File C:\Program Files (x86)\Microsoft Visual Studio\2019\Community\VC\Tools\MSVC\14.28.29333\include\xmemory

; 810  :         _Deallocate<_New_alignof<_Ty>>(_Ptr, sizeof(_Ty) * _Count);

  000b0	50		 push	 eax
  000b1	ff 75 d8	 push	 DWORD PTR _strName$2[ebp]
  000b4	e8 00 00 00 00	 call	 ??$_Deallocate@$07$0A@@std@@YAXPAXI@Z ; std::_Deallocate<8,0>
  000b9	83 c4 08	 add	 esp, 8
$LN38@playerGetG:
; File D:\Metin2 Server Files\mainline\SRC_2014\Metin2Client\UserInterface\PythonPlayerModule.cpp

; 641  : 	return Py_BuildValue("s", "");

  000bc	68 00 00 00 00	 push	 OFFSET ??_C@_00CNPNBAHC@@
  000c1	68 00 00 00 00	 push	 OFFSET ??_C@_01LKDEMHDF@s@
  000c6	ff 15 00 00 00
	00		 call	 DWORD PTR __imp__Py_BuildValue
  000cc	83 c4 08	 add	 esp, 8
$LN1@playerGetG:

; 642  : }

  000cf	8b 4d f4	 mov	 ecx, DWORD PTR __$EHRec$[ebp]
  000d2	64 89 0d 00 00
	00 00		 mov	 DWORD PTR fs:0, ecx
  000d9	59		 pop	 ecx
  000da	5e		 pop	 esi
  000db	8b 4d f0	 mov	 ecx, DWORD PTR __$ArrayPad$[ebp]
  000de	33 cd		 xor	 ecx, ebp
  000e0	e8 00 00 00 00	 call	 @__security_check_cookie@4
  000e5	8b e5		 mov	 esp, ebp
  000e7	5d		 pop	 ebp
  000e8	c3		 ret	 0
_TEXT	ENDS
;	COMDAT text$x
text$x	SEGMENT
__unwindfunclet$?playerGetGuildName@@YAPAU_object@@PAU1@0@Z$0:
  00000	8d 4d d8	 lea	 ecx, DWORD PTR _strName$2[ebp]
  00003	e9 00 00 00 00	 jmp	 ??1?$basic_string@DU?$char_traits@D@std@@V?$allocator@D@2@@std@@QAE@XZ ; std::basic_string<char,std::char_traits<char>,std::allocator<char> >::~basic_string<char,std::char_traits<char>,std::allocator<char> >
  00008	cc		 int	 3
  00009	cc		 int	 3
  0000a	cc		 int	 3
  0000b	cc		 int	 3
  0000c	cc		 int	 3
__ehhandler$?playerGetGuildName@@YAPAU_object@@PAU1@0@Z:
  0000d	90		 npad	 1
  0000e	90		 npad	 1
  0000f	8b 54 24 08	 mov	 edx, DWORD PTR [esp+8]
  00013	8d 42 0c	 lea	 eax, DWORD PTR [edx+12]
  00016	8b 4a dc	 mov	 ecx, DWORD PTR [edx-36]
  00019	33 c8		 xor	 ecx, eax
  0001b	e8 00 00 00 00	 call	 @__security_check_cookie@4
  00020	8b 4a fc	 mov	 ecx, DWORD PTR [edx-4]
  00023	33 c8		 xor	 ecx, eax
  00025	e8 00 00 00 00	 call	 @__security_check_cookie@4
  0002a	b8 00 00 00 00	 mov	 eax, OFFSET __ehfuncinfo$?playerGetGuildName@@YAPAU_object@@PAU1@0@Z
  0002f	e9 00 00 00 00	 jmp	 ___CxxFrameHandler3
text$x	ENDS
?playerGetGuildName@@YAPAU_object@@PAU1@0@Z ENDP	; playerGetGuildName
; Function compile flags: /Ogtp
; File D:\Metin2 Server Files\mainline\SRC_2014\Metin2Client\UserInterface\PythonPlayerModule.cpp
;	COMDAT ?playerGetGuildID@@YAPAU_object@@PAU1@0@Z
_TEXT	SEGMENT
_poSelf$ = 8						; size = 4
_poArgs$ = 12						; size = 4
?playerGetGuildID@@YAPAU_object@@PAU1@0@Z PROC		; playerGetGuildID, COMDAT

; 625  : 	CInstanceBase * pInstance = CPythonPlayer::Instance().NEW_GetMainActorPtr();

  00000	8b 0d 00 00 00
	00		 mov	 ecx, DWORD PTR ?ms_singleton@?$CSingleton@VCPythonPlayer@@@@0PAVCPythonPlayer@@A ; CSingleton<CPythonPlayer>::ms_singleton
  00006	83 c1 04	 add	 ecx, 4
  00009	8b 01		 mov	 eax, DWORD PTR [ecx]
  0000b	ff 90 88 00 00
	00		 call	 DWORD PTR [eax+136]

; 626  : 	if (!pInstance)

  00011	85 c0		 test	 eax, eax
  00013	75 10		 jne	 SHORT $LN2@playerGetG

; 627  : 		return Py_BuildValue("i", 0);

  00015	50		 push	 eax

; 629  : }

  00016	68 00 00 00 00	 push	 OFFSET ??_C@_01KBJDNOO@i@
  0001b	ff 15 00 00 00
	00		 call	 DWORD PTR __imp__Py_BuildValue
  00021	83 c4 08	 add	 esp, 8
  00024	c3		 ret	 0
$LN2@playerGetG:

; 628  : 	return Py_BuildValue("i", pInstance->GetGuildID());

  00025	8b c8		 mov	 ecx, eax
  00027	e8 00 00 00 00	 call	 ?GetGuildID@CInstanceBase@@QAEKXZ ; CInstanceBase::GetGuildID
  0002c	50		 push	 eax

; 629  : }

  0002d	68 00 00 00 00	 push	 OFFSET ??_C@_01KBJDNOO@i@
  00032	ff 15 00 00 00
	00		 call	 DWORD PTR __imp__Py_BuildValue
  00038	83 c4 08	 add	 esp, 8
  0003b	c3		 ret	 0
?playerGetGuildID@@YAPAU_object@@PAU1@0@Z ENDP		; playerGetGuildID
_TEXT	ENDS
; Function compile flags: /Ogtp
; File D:\Metin2 Server Files\mainline\SRC_2014\Metin2Client\UserInterface\PythonPlayerModule.cpp
;	COMDAT ?playerGetElk@@YAPAU_object@@PAU1@0@Z
_TEXT	SEGMENT
_poSelf$ = 8						; size = 4
_poArgs$ = 12						; size = 4
?playerGetElk@@YAPAU_object@@PAU1@0@Z PROC		; playerGetElk, COMDAT

; 620  : 	return Py_BuildValue("i", CPythonPlayer::Instance().GetStatus(POINT_GOLD));

  00000	8b 0d 00 00 00
	00		 mov	 ecx, DWORD PTR ?ms_singleton@?$CSingleton@VCPythonPlayer@@@@0PAVCPythonPlayer@@A ; CSingleton<CPythonPlayer>::ms_singleton
  00006	83 c1 04	 add	 ecx, 4
  00009	6a 0b		 push	 11			; 0000000bH
  0000b	8b 01		 mov	 eax, DWORD PTR [ecx]
  0000d	ff 50 10	 call	 DWORD PTR [eax+16]
  00010	50		 push	 eax
  00011	68 00 00 00 00	 push	 OFFSET ??_C@_01KBJDNOO@i@
  00016	ff 15 00 00 00
	00		 call	 DWORD PTR __imp__Py_BuildValue
  0001c	83 c4 08	 add	 esp, 8

; 621  : }

  0001f	c3		 ret	 0
?playerGetElk@@YAPAU_object@@PAU1@0@Z ENDP		; playerGetElk
_TEXT	ENDS
; Function compile flags: /Ogtp
; File D:\Metin2 Server Files\mainline\SRC_2014\Metin2Client\UserInterface\PythonPlayerModule.cpp
;	COMDAT ?playerSetStatus@@YAPAU_object@@PAU1@0@Z
_TEXT	SEGMENT
_iType$ = -8						; size = 4
_iValue$ = -4						; size = 4
_poSelf$ = 8						; size = 4
_poArgs$ = 12						; size = 4
?playerSetStatus@@YAPAU_object@@PAU1@0@Z PROC		; playerSetStatus, COMDAT

; 605  : {

  00000	55		 push	 ebp
  00001	8b ec		 mov	 ebp, esp
  00003	83 ec 08	 sub	 esp, 8

; 606  : 	int iType;
; 607  : 	if (!PyTuple_GetInteger(poArgs, 0, &iType))

  00006	8d 45 f8	 lea	 eax, DWORD PTR _iType$[ebp]
  00009	50		 push	 eax
  0000a	6a 00		 push	 0
  0000c	ff 75 0c	 push	 DWORD PTR _poArgs$[ebp]
  0000f	e8 00 00 00 00	 call	 ?PyTuple_GetInteger@@YA_NPAU_object@@HPAH@Z ; PyTuple_GetInteger
  00014	83 c4 0c	 add	 esp, 12			; 0000000cH
  00017	84 c0		 test	 al, al
  00019	75 0e		 jne	 SHORT $LN2@playerSetS
$LN5@playerSetS:

; 616  : }

  0001b	6a 00		 push	 0
  0001d	e8 00 00 00 00	 call	 ?Py_BuildException@@YAPAU_object@@PBDZZ ; Py_BuildException
  00022	83 c4 04	 add	 esp, 4
  00025	8b e5		 mov	 esp, ebp
  00027	5d		 pop	 ebp
  00028	c3		 ret	 0
$LN2@playerSetS:

; 608  : 		return Py_BuildException();
; 609  : 
; 610  : 	int iValue;
; 611  : 	if (!PyTuple_GetInteger(poArgs, 1, &iValue))

  00029	8d 45 fc	 lea	 eax, DWORD PTR _iValue$[ebp]
  0002c	50		 push	 eax
  0002d	6a 01		 push	 1
  0002f	ff 75 0c	 push	 DWORD PTR _poArgs$[ebp]
  00032	e8 00 00 00 00	 call	 ?PyTuple_GetInteger@@YA_NPAU_object@@HPAH@Z ; PyTuple_GetInteger
  00037	83 c4 0c	 add	 esp, 12			; 0000000cH
  0003a	84 c0		 test	 al, al
  0003c	74 dd		 je	 SHORT $LN5@playerSetS

; 612  : 		return Py_BuildException();
; 613  : 
; 614  : 	CPythonPlayer::Instance().SetStatus(iType, iValue);

  0003e	ff 75 fc	 push	 DWORD PTR _iValue$[ebp]
  00041	8b 0d 00 00 00
	00		 mov	 ecx, DWORD PTR ?ms_singleton@?$CSingleton@VCPythonPlayer@@@@0PAVCPythonPlayer@@A ; CSingleton<CPythonPlayer>::ms_singleton
  00047	ff 75 f8	 push	 DWORD PTR _iType$[ebp]
  0004a	e8 00 00 00 00	 call	 ?SetStatus@CPythonPlayer@@QAEXKJ@Z ; CPythonPlayer::SetStatus

; 615  : 	return Py_BuildNone();

  0004f	e8 00 00 00 00	 call	 ?Py_BuildNone@@YAPAU_object@@XZ ; Py_BuildNone

; 616  : }

  00054	8b e5		 mov	 esp, ebp
  00056	5d		 pop	 ebp
  00057	c3		 ret	 0
?playerSetStatus@@YAPAU_object@@PAU1@0@Z ENDP		; playerSetStatus
_TEXT	ENDS
; Function compile flags: /Ogtp
; File D:\Metin2 Server Files\mainline\SRC_2014\Metin2Client\UserInterface\PythonPlayerModule.cpp
;	COMDAT ?playerGetStatus@@YAPAU_object@@PAU1@0@Z
_TEXT	SEGMENT
_iType$ = -4						; size = 4
_poSelf$ = 8						; size = 4
_poArgs$ = 12						; size = 4
?playerGetStatus@@YAPAU_object@@PAU1@0@Z PROC		; playerGetStatus, COMDAT

; 585  : {

  00000	55		 push	 ebp
  00001	8b ec		 mov	 ebp, esp
  00003	51		 push	 ecx

; 586  : 	int iType;
; 587  : 	if (!PyTuple_GetInteger(poArgs, 0, &iType))

  00004	8d 45 fc	 lea	 eax, DWORD PTR _iType$[ebp]
  00007	50		 push	 eax
  00008	6a 00		 push	 0
  0000a	ff 75 0c	 push	 DWORD PTR _poArgs$[ebp]
  0000d	e8 00 00 00 00	 call	 ?PyTuple_GetInteger@@YA_NPAU_object@@HPAH@Z ; PyTuple_GetInteger
  00012	83 c4 0c	 add	 esp, 12			; 0000000cH
  00015	84 c0		 test	 al, al
  00017	75 0e		 jne	 SHORT $LN2@playerGetS

; 588  : 		return Py_BuildException();

  00019	6a 00		 push	 0
  0001b	e8 00 00 00 00	 call	 ?Py_BuildException@@YAPAU_object@@PBDZZ ; Py_BuildException
  00020	83 c4 04	 add	 esp, 4

; 602  : }

  00023	8b e5		 mov	 esp, ebp
  00025	5d		 pop	 ebp
  00026	c3		 ret	 0
$LN2@playerGetS:

; 589  : 
; 590  : 	long iValue = CPythonPlayer::Instance().GetStatus(iType);

  00027	8b 0d 00 00 00
	00		 mov	 ecx, DWORD PTR ?ms_singleton@?$CSingleton@VCPythonPlayer@@@@0PAVCPythonPlayer@@A ; CSingleton<CPythonPlayer>::ms_singleton
  0002d	83 c1 04	 add	 ecx, 4
  00030	56		 push	 esi
  00031	ff 75 fc	 push	 DWORD PTR _iType$[ebp]
  00034	8b 01		 mov	 eax, DWORD PTR [ecx]
  00036	ff 50 10	 call	 DWORD PTR [eax+16]

; 591  : 
; 592  : 	if (POINT_ATT_SPEED == iType)

  00039	83 7d fc 11	 cmp	 DWORD PTR _iType$[ebp], 17 ; 00000011H
  0003d	8b f0		 mov	 esi, eax
  0003f	75 27		 jne	 SHORT $LN4@playerGetS

; 593  : 	{
; 594  : 		CInstanceBase * pInstance = CPythonPlayer::Instance().NEW_GetMainActorPtr();

  00041	8b 0d 00 00 00
	00		 mov	 ecx, DWORD PTR ?ms_singleton@?$CSingleton@VCPythonPlayer@@@@0PAVCPythonPlayer@@A ; CSingleton<CPythonPlayer>::ms_singleton
  00047	83 c1 04	 add	 ecx, 4
  0004a	8b 11		 mov	 edx, DWORD PTR [ecx]
  0004c	ff 92 88 00 00
	00		 call	 DWORD PTR [edx+136]

; 595  : 		if (pInstance && (CItemData::WEAPON_TWO_HANDED == pInstance->GetWeaponType()))

  00052	85 c0		 test	 eax, eax
  00054	74 12		 je	 SHORT $LN4@playerGetS
  00056	8b c8		 mov	 ecx, eax
  00058	e8 00 00 00 00	 call	 ?GetWeaponType@CInstanceBase@@QAEKXZ ; CInstanceBase::GetWeaponType
  0005d	83 f8 03	 cmp	 eax, 3
  00060	75 06		 jne	 SHORT $LN4@playerGetS

; 596  : 		{
; 597  : 			iValue -= TWOHANDED_WEWAPON_ATT_SPEED_DECREASE_VALUE;

  00062	2b 35 00 00 00
	00		 sub	 esi, DWORD PTR ?TWOHANDED_WEWAPON_ATT_SPEED_DECREASE_VALUE@@3HA ; TWOHANDED_WEWAPON_ATT_SPEED_DECREASE_VALUE
$LN4@playerGetS:

; 598  : 		}
; 599  : 	}
; 600  : 
; 601  : 	return Py_BuildValue("i", iValue);

  00068	56		 push	 esi
  00069	68 00 00 00 00	 push	 OFFSET ??_C@_01KBJDNOO@i@
  0006e	ff 15 00 00 00
	00		 call	 DWORD PTR __imp__Py_BuildValue
  00074	83 c4 08	 add	 esp, 8
  00077	5e		 pop	 esi

; 602  : }

  00078	8b e5		 mov	 esp, ebp
  0007a	5d		 pop	 ebp
  0007b	c3		 ret	 0
?playerGetStatus@@YAPAU_object@@PAU1@0@Z ENDP		; playerGetStatus
_TEXT	ENDS
; Function compile flags: /Ogtp
; File D:\Metin2 Server Files\mainline\SRC_2014\Metin2Client\UserInterface\PythonPlayerModule.cpp
;	COMDAT ?playerGetEXP@@YAPAU_object@@PAU1@0@Z
_TEXT	SEGMENT
_poSelf$ = 8						; size = 4
_poArgs$ = 12						; size = 4
?playerGetEXP@@YAPAU_object@@PAU1@0@Z PROC		; playerGetEXP, COMDAT

; 580  : 	DWORD dwEXP = CPythonPlayer::Instance().GetStatus(POINT_EXP);

  00000	8b 0d 00 00 00
	00		 mov	 ecx, DWORD PTR ?ms_singleton@?$CSingleton@VCPythonPlayer@@@@0PAVCPythonPlayer@@A ; CSingleton<CPythonPlayer>::ms_singleton
  00006	83 c1 04	 add	 ecx, 4
  00009	6a 03		 push	 3
  0000b	8b 01		 mov	 eax, DWORD PTR [ecx]
  0000d	ff 50 10	 call	 DWORD PTR [eax+16]

; 581  : 	return Py_BuildValue("l", dwEXP);

  00010	50		 push	 eax
  00011	68 00 00 00 00	 push	 OFFSET ??_C@_01HHGOMJKL@l@
  00016	ff 15 00 00 00
	00		 call	 DWORD PTR __imp__Py_BuildValue
  0001c	83 c4 08	 add	 esp, 8

; 582  : }

  0001f	c3		 ret	 0
?playerGetEXP@@YAPAU_object@@PAU1@0@Z ENDP		; playerGetEXP
_TEXT	ENDS
; Function compile flags: /Ogtp
; File D:\Metin2 Server Files\mainline\SRC_2014\Metin2Client\UserInterface\PythonPlayerModule.cpp
;	COMDAT ?playerAffectIndexToSkillIndex@@YAPAU_object@@PAU1@0@Z
_TEXT	SEGMENT
_dwSkillIndex$ = -8					; size = 4
_iAffectIndex$ = -4					; size = 4
_poSelf$ = 8						; size = 4
_poArgs$ = 12						; size = 4
?playerAffectIndexToSkillIndex@@YAPAU_object@@PAU1@0@Z PROC ; playerAffectIndexToSkillIndex, COMDAT

; 566  : {

  00000	55		 push	 ebp
  00001	8b ec		 mov	 ebp, esp
  00003	83 ec 08	 sub	 esp, 8

; 567  : 	int iAffectIndex;
; 568  : 	if (!PyTuple_GetInteger(poArgs, 0, &iAffectIndex))

  00006	8d 45 fc	 lea	 eax, DWORD PTR _iAffectIndex$[ebp]
  00009	50		 push	 eax
  0000a	6a 00		 push	 0
  0000c	ff 75 0c	 push	 DWORD PTR _poArgs$[ebp]
  0000f	e8 00 00 00 00	 call	 ?PyTuple_GetInteger@@YA_NPAU_object@@HPAH@Z ; PyTuple_GetInteger
  00014	83 c4 0c	 add	 esp, 12			; 0000000cH
  00017	84 c0		 test	 al, al
  00019	75 0e		 jne	 SHORT $LN2@playerAffe

; 569  : 		return Py_BuildException();

  0001b	6a 00		 push	 0
  0001d	e8 00 00 00 00	 call	 ?Py_BuildException@@YAPAU_object@@PBDZZ ; Py_BuildException
  00022	83 c4 04	 add	 esp, 4

; 576  : }

  00025	8b e5		 mov	 esp, ebp
  00027	5d		 pop	 ebp
  00028	c3		 ret	 0
$LN2@playerAffe:

; 570  : 
; 571  : 	DWORD dwSkillIndex;
; 572  : 	if (!CPythonPlayer::Instance().AffectIndexToSkillIndex(iAffectIndex, &dwSkillIndex))

  00029	8b 0d 00 00 00
	00		 mov	 ecx, DWORD PTR ?ms_singleton@?$CSingleton@VCPythonPlayer@@@@0PAVCPythonPlayer@@A ; CSingleton<CPythonPlayer>::ms_singleton
  0002f	8d 45 f8	 lea	 eax, DWORD PTR _dwSkillIndex$[ebp]
  00032	50		 push	 eax
  00033	ff 75 fc	 push	 DWORD PTR _iAffectIndex$[ebp]
  00036	e8 00 00 00 00	 call	 ?AffectIndexToSkillIndex@CPythonPlayer@@QAE_NKPAK@Z ; CPythonPlayer::AffectIndexToSkillIndex
  0003b	84 c0		 test	 al, al
  0003d	75 14		 jne	 SHORT $LN3@playerAffe

; 573  : 		return Py_BuildValue("i", 0);

  0003f	6a 00		 push	 0

; 576  : }

  00041	68 00 00 00 00	 push	 OFFSET ??_C@_01KBJDNOO@i@
  00046	ff 15 00 00 00
	00		 call	 DWORD PTR __imp__Py_BuildValue
  0004c	83 c4 08	 add	 esp, 8
  0004f	8b e5		 mov	 esp, ebp
  00051	5d		 pop	 ebp
  00052	c3		 ret	 0
$LN3@playerAffe:

; 574  : 
; 575  : 	return Py_BuildValue("i", dwSkillIndex);

  00053	ff 75 f8	 push	 DWORD PTR _dwSkillIndex$[ebp]

; 576  : }

  00056	68 00 00 00 00	 push	 OFFSET ??_C@_01KBJDNOO@i@
  0005b	ff 15 00 00 00
	00		 call	 DWORD PTR __imp__Py_BuildValue
  00061	83 c4 08	 add	 esp, 8
  00064	8b e5		 mov	 esp, ebp
  00066	5d		 pop	 ebp
  00067	c3		 ret	 0
?playerAffectIndexToSkillIndex@@YAPAU_object@@PAU1@0@Z ENDP ; playerAffectIndexToSkillIndex
_TEXT	ENDS
; Function compile flags: /Ogtp
; File D:\Metin2 Server Files\mainline\SRC_2014\Metin2Client\UserInterface\PythonPlayerModule.cpp
;	COMDAT ?playerUseGuildSkill@@YAPAU_object@@PAU1@0@Z
_TEXT	SEGMENT
_iSkillSlotIndex$ = -4					; size = 4
_poSelf$ = 8						; size = 4
_poArgs$ = 12						; size = 4
?playerUseGuildSkill@@YAPAU_object@@PAU1@0@Z PROC	; playerUseGuildSkill, COMDAT

; 556  : {

  00000	55		 push	 ebp
  00001	8b ec		 mov	 ebp, esp
  00003	51		 push	 ecx

; 557  : 	int iSkillSlotIndex;
; 558  : 	if (!PyTuple_GetInteger(poArgs, 0, &iSkillSlotIndex))

  00004	8d 45 fc	 lea	 eax, DWORD PTR _iSkillSlotIndex$[ebp]
  00007	50		 push	 eax
  00008	6a 00		 push	 0
  0000a	ff 75 0c	 push	 DWORD PTR _poArgs$[ebp]
  0000d	e8 00 00 00 00	 call	 ?PyTuple_GetInteger@@YA_NPAU_object@@HPAH@Z ; PyTuple_GetInteger
  00012	83 c4 0c	 add	 esp, 12			; 0000000cH
  00015	84 c0		 test	 al, al
  00017	75 0e		 jne	 SHORT $LN2@playerUseG

; 559  : 		return Py_BuildException();

  00019	6a 00		 push	 0
  0001b	e8 00 00 00 00	 call	 ?Py_BuildException@@YAPAU_object@@PBDZZ ; Py_BuildException
  00020	83 c4 04	 add	 esp, 4

; 563  : }

  00023	8b e5		 mov	 esp, ebp
  00025	5d		 pop	 ebp
  00026	c3		 ret	 0
$LN2@playerUseG:

; 560  : 
; 561  : 	CPythonPlayer::Instance().UseGuildSkill(iSkillSlotIndex);

  00027	ff 75 fc	 push	 DWORD PTR _iSkillSlotIndex$[ebp]
  0002a	8b 0d 00 00 00
	00		 mov	 ecx, DWORD PTR ?ms_singleton@?$CSingleton@VCPythonPlayer@@@@0PAVCPythonPlayer@@A ; CSingleton<CPythonPlayer>::ms_singleton
  00030	e8 00 00 00 00	 call	 ?UseGuildSkill@CPythonPlayer@@QAEXK@Z ; CPythonPlayer::UseGuildSkill

; 562  : 	return Py_BuildNone();

  00035	e8 00 00 00 00	 call	 ?Py_BuildNone@@YAPAU_object@@XZ ; Py_BuildNone

; 563  : }

  0003a	8b e5		 mov	 esp, ebp
  0003c	5d		 pop	 ebp
  0003d	c3		 ret	 0
?playerUseGuildSkill@@YAPAU_object@@PAU1@0@Z ENDP	; playerUseGuildSkill
_TEXT	ENDS
; Function compile flags: /Ogtp
; File D:\Metin2 Server Files\mainline\SRC_2014\Metin2Client\UserInterface\PythonPlayerModule.cpp
;	COMDAT ?playerIsSkillActive@@YAPAU_object@@PAU1@0@Z
_TEXT	SEGMENT
_iSlotIndex$ = -4					; size = 4
_poSelf$ = 8						; size = 4
_poArgs$ = 12						; size = 4
?playerIsSkillActive@@YAPAU_object@@PAU1@0@Z PROC	; playerIsSkillActive, COMDAT

; 547  : {

  00000	55		 push	 ebp
  00001	8b ec		 mov	 ebp, esp
  00003	51		 push	 ecx

; 548  : 	int iSlotIndex;
; 549  : 	if (!PyTuple_GetInteger(poArgs, 0, &iSlotIndex))

  00004	8d 45 fc	 lea	 eax, DWORD PTR _iSlotIndex$[ebp]
  00007	50		 push	 eax
  00008	6a 00		 push	 0
  0000a	ff 75 0c	 push	 DWORD PTR _poArgs$[ebp]
  0000d	e8 00 00 00 00	 call	 ?PyTuple_GetInteger@@YA_NPAU_object@@HPAH@Z ; PyTuple_GetInteger
  00012	83 c4 0c	 add	 esp, 12			; 0000000cH
  00015	84 c0		 test	 al, al
  00017	75 0e		 jne	 SHORT $LN2@playerIsSk

; 550  : 		return Py_BuildException();

  00019	6a 00		 push	 0
  0001b	e8 00 00 00 00	 call	 ?Py_BuildException@@YAPAU_object@@PBDZZ ; Py_BuildException
  00020	83 c4 04	 add	 esp, 4

; 553  : }

  00023	8b e5		 mov	 esp, ebp
  00025	5d		 pop	 ebp
  00026	c3		 ret	 0
$LN2@playerIsSk:

; 551  : 
; 552  : 	return Py_BuildValue("i", CPythonPlayer::Instance().IsSkillActive(iSlotIndex));

  00027	ff 75 fc	 push	 DWORD PTR _iSlotIndex$[ebp]
  0002a	8b 0d 00 00 00
	00		 mov	 ecx, DWORD PTR ?ms_singleton@?$CSingleton@VCPythonPlayer@@@@0PAVCPythonPlayer@@A ; CSingleton<CPythonPlayer>::ms_singleton
  00030	e8 00 00 00 00	 call	 ?IsSkillActive@CPythonPlayer@@QAEHK@Z ; CPythonPlayer::IsSkillActive
  00035	50		 push	 eax
  00036	68 00 00 00 00	 push	 OFFSET ??_C@_01KBJDNOO@i@
  0003b	ff 15 00 00 00
	00		 call	 DWORD PTR __imp__Py_BuildValue
  00041	83 c4 08	 add	 esp, 8

; 553  : }

  00044	8b e5		 mov	 esp, ebp
  00046	5d		 pop	 ebp
  00047	c3		 ret	 0
?playerIsSkillActive@@YAPAU_object@@PAU1@0@Z ENDP	; playerIsSkillActive
_TEXT	ENDS
; Function compile flags: /Ogtp
; File D:\Metin2 Server Files\mainline\SRC_2014\Metin2Client\UserInterface\PythonPlayerModule.cpp
;	COMDAT ?playerGetSkillCoolTime@@YAPAU_object@@PAU1@0@Z
_TEXT	SEGMENT
_fCoolTime$ = -12					; size = 4
_fElapsedCoolTime$ = -8					; size = 4
_iSlotIndex$ = -4					; size = 4
_poSelf$ = 8						; size = 4
_poArgs$ = 12						; size = 4
?playerGetSkillCoolTime@@YAPAU_object@@PAU1@0@Z PROC	; playerGetSkillCoolTime, COMDAT

; 536  : {

  00000	55		 push	 ebp
  00001	8b ec		 mov	 ebp, esp
  00003	83 ec 0c	 sub	 esp, 12			; 0000000cH

; 537  : 	int iSlotIndex;
; 538  : 	if (!PyTuple_GetInteger(poArgs, 0, &iSlotIndex))

  00006	8d 45 fc	 lea	 eax, DWORD PTR _iSlotIndex$[ebp]
  00009	50		 push	 eax
  0000a	6a 00		 push	 0
  0000c	ff 75 0c	 push	 DWORD PTR _poArgs$[ebp]
  0000f	e8 00 00 00 00	 call	 ?PyTuple_GetInteger@@YA_NPAU_object@@HPAH@Z ; PyTuple_GetInteger
  00014	83 c4 0c	 add	 esp, 12			; 0000000cH
  00017	84 c0		 test	 al, al
  00019	75 0e		 jne	 SHORT $LN2@playerGetS

; 539  : 		return Py_BuildException();

  0001b	6a 00		 push	 0
  0001d	e8 00 00 00 00	 call	 ?Py_BuildException@@YAPAU_object@@PBDZZ ; Py_BuildException
  00022	83 c4 04	 add	 esp, 4

; 544  : }

  00025	8b e5		 mov	 esp, ebp
  00027	5d		 pop	 ebp
  00028	c3		 ret	 0
$LN2@playerGetS:

; 540  : 
; 541  : 	float fCoolTime = CPythonPlayer::Instance().GetSkillCoolTime(iSlotIndex);

  00029	ff 75 fc	 push	 DWORD PTR _iSlotIndex$[ebp]
  0002c	8b 0d 00 00 00
	00		 mov	 ecx, DWORD PTR ?ms_singleton@?$CSingleton@VCPythonPlayer@@@@0PAVCPythonPlayer@@A ; CSingleton<CPythonPlayer>::ms_singleton
  00032	e8 00 00 00 00	 call	 ?GetSkillCoolTime@CPythonPlayer@@QAEMK@Z ; CPythonPlayer::GetSkillCoolTime

; 542  : 	float fElapsedCoolTime = CPythonPlayer::Instance().GetSkillElapsedCoolTime(iSlotIndex);

  00037	ff 75 fc	 push	 DWORD PTR _iSlotIndex$[ebp]
  0003a	8b 0d 00 00 00
	00		 mov	 ecx, DWORD PTR ?ms_singleton@?$CSingleton@VCPythonPlayer@@@@0PAVCPythonPlayer@@A ; CSingleton<CPythonPlayer>::ms_singleton
  00040	d9 5d f4	 fstp	 DWORD PTR _fCoolTime$[ebp]
  00043	e8 00 00 00 00	 call	 ?GetSkillElapsedCoolTime@CPythonPlayer@@QAEMK@Z ; CPythonPlayer::GetSkillElapsedCoolTime
  00048	d9 5d f8	 fstp	 DWORD PTR _fElapsedCoolTime$[ebp]
  0004b	f3 0f 10 45 f8	 movss	 xmm0, DWORD PTR _fElapsedCoolTime$[ebp]

; 543  : 	return Py_BuildValue("ff", fCoolTime, fElapsedCoolTime);

  00050	83 ec 10	 sub	 esp, 16			; 00000010H
  00053	0f 5a c0	 cvtps2pd xmm0, xmm0
  00056	f2 0f 11 44 24
	08		 movsd	 QWORD PTR [esp+8], xmm0
  0005c	f3 0f 10 45 f4	 movss	 xmm0, DWORD PTR _fCoolTime$[ebp]
  00061	0f 5a c0	 cvtps2pd xmm0, xmm0
  00064	f2 0f 11 04 24	 movsd	 QWORD PTR [esp], xmm0
  00069	68 00 00 00 00	 push	 OFFSET ??_C@_02HPEDFNFO@ff@
  0006e	ff 15 00 00 00
	00		 call	 DWORD PTR __imp__Py_BuildValue
  00074	83 c4 14	 add	 esp, 20			; 00000014H

; 544  : }

  00077	8b e5		 mov	 esp, ebp
  00079	5d		 pop	 ebp
  0007a	c3		 ret	 0
?playerGetSkillCoolTime@@YAPAU_object@@PAU1@0@Z ENDP	; playerGetSkillCoolTime
_TEXT	ENDS
; Function compile flags: /Ogtp
; File D:\Metin2 Server Files\mainline\SRC_2014\Metin2Client\UserInterface\PythonPlayerModule.cpp
;	COMDAT ?playerIsSkillCoolTime@@YAPAU_object@@PAU1@0@Z
_TEXT	SEGMENT
_iSlotIndex$ = -4					; size = 4
_poSelf$ = 8						; size = 4
_poArgs$ = 12						; size = 4
?playerIsSkillCoolTime@@YAPAU_object@@PAU1@0@Z PROC	; playerIsSkillCoolTime, COMDAT

; 527  : {

  00000	55		 push	 ebp
  00001	8b ec		 mov	 ebp, esp
  00003	51		 push	 ecx

; 528  : 	int iSlotIndex;
; 529  : 	if (!PyTuple_GetInteger(poArgs, 0, &iSlotIndex))

  00004	8d 45 fc	 lea	 eax, DWORD PTR _iSlotIndex$[ebp]
  00007	50		 push	 eax
  00008	6a 00		 push	 0
  0000a	ff 75 0c	 push	 DWORD PTR _poArgs$[ebp]
  0000d	e8 00 00 00 00	 call	 ?PyTuple_GetInteger@@YA_NPAU_object@@HPAH@Z ; PyTuple_GetInteger
  00012	83 c4 0c	 add	 esp, 12			; 0000000cH
  00015	84 c0		 test	 al, al
  00017	75 0e		 jne	 SHORT $LN2@playerIsSk

; 530  : 		return Py_BuildException();

  00019	6a 00		 push	 0
  0001b	e8 00 00 00 00	 call	 ?Py_BuildException@@YAPAU_object@@PBDZZ ; Py_BuildException
  00020	83 c4 04	 add	 esp, 4

; 533  : }

  00023	8b e5		 mov	 esp, ebp
  00025	5d		 pop	 ebp
  00026	c3		 ret	 0
$LN2@playerIsSk:

; 531  : 
; 532  : 	return Py_BuildValue("i", CPythonPlayer::Instance().IsSkillCoolTime(iSlotIndex));

  00027	ff 75 fc	 push	 DWORD PTR _iSlotIndex$[ebp]
  0002a	8b 0d 00 00 00
	00		 mov	 ecx, DWORD PTR ?ms_singleton@?$CSingleton@VCPythonPlayer@@@@0PAVCPythonPlayer@@A ; CSingleton<CPythonPlayer>::ms_singleton
  00030	e8 00 00 00 00	 call	 ?IsSkillCoolTime@CPythonPlayer@@QAEHK@Z ; CPythonPlayer::IsSkillCoolTime
  00035	50		 push	 eax
  00036	68 00 00 00 00	 push	 OFFSET ??_C@_01KBJDNOO@i@
  0003b	ff 15 00 00 00
	00		 call	 DWORD PTR __imp__Py_BuildValue
  00041	83 c4 08	 add	 esp, 8

; 533  : }

  00044	8b e5		 mov	 esp, ebp
  00046	5d		 pop	 ebp
  00047	c3		 ret	 0
?playerIsSkillCoolTime@@YAPAU_object@@PAU1@0@Z ENDP	; playerIsSkillCoolTime
_TEXT	ENDS
; Function compile flags: /Ogtp
; File D:\Metin2 Server Files\mainline\SRC_2014\Metin2Client\UserInterface\PythonPlayerModule.cpp
;	COMDAT ?playerSetPlayTime@@YAPAU_object@@PAU1@0@Z
_TEXT	SEGMENT
_iTime$ = -4						; size = 4
_poSelf$ = 8						; size = 4
_poArgs$ = 12						; size = 4
?playerSetPlayTime@@YAPAU_object@@PAU1@0@Z PROC		; playerSetPlayTime, COMDAT

; 517  : {

  00000	55		 push	 ebp
  00001	8b ec		 mov	 ebp, esp
  00003	51		 push	 ecx

; 518  : 	int iTime;
; 519  : 	if (!PyTuple_GetInteger(poArgs, 0, &iTime))

  00004	8d 45 fc	 lea	 eax, DWORD PTR _iTime$[ebp]
  00007	50		 push	 eax
  00008	6a 00		 push	 0
  0000a	ff 75 0c	 push	 DWORD PTR _poArgs$[ebp]
  0000d	e8 00 00 00 00	 call	 ?PyTuple_GetInteger@@YA_NPAU_object@@HPAH@Z ; PyTuple_GetInteger
  00012	83 c4 0c	 add	 esp, 12			; 0000000cH
  00015	84 c0		 test	 al, al
  00017	75 0e		 jne	 SHORT $LN2@playerSetP

; 520  : 		return Py_BuildException();

  00019	6a 00		 push	 0
  0001b	e8 00 00 00 00	 call	 ?Py_BuildException@@YAPAU_object@@PBDZZ ; Py_BuildException
  00020	83 c4 04	 add	 esp, 4

; 524  : }

  00023	8b e5		 mov	 esp, ebp
  00025	5d		 pop	 ebp
  00026	c3		 ret	 0
$LN2@playerSetP:

; 521  : 
; 522  : 	CPythonPlayer::Instance().SetPlayTime(iTime);

  00027	ff 75 fc	 push	 DWORD PTR _iTime$[ebp]
  0002a	8b 0d 00 00 00
	00		 mov	 ecx, DWORD PTR ?ms_singleton@?$CSingleton@VCPythonPlayer@@@@0PAVCPythonPlayer@@A ; CSingleton<CPythonPlayer>::ms_singleton
  00030	e8 00 00 00 00	 call	 ?SetPlayTime@CPythonPlayer@@QAEXK@Z ; CPythonPlayer::SetPlayTime

; 523  : 	return Py_BuildNone();

  00035	e8 00 00 00 00	 call	 ?Py_BuildNone@@YAPAU_object@@XZ ; Py_BuildNone

; 524  : }

  0003a	8b e5		 mov	 esp, ebp
  0003c	5d		 pop	 ebp
  0003d	c3		 ret	 0
?playerSetPlayTime@@YAPAU_object@@PAU1@0@Z ENDP		; playerSetPlayTime
_TEXT	ENDS
; Function compile flags: /Ogtp
; File D:\Metin2 Server Files\mainline\SRC_2014\Metin2Client\UserInterface\PythonPlayerModule.cpp
;	COMDAT ?playerGetPlayTime@@YAPAU_object@@PAU1@0@Z
_TEXT	SEGMENT
_poSelf$ = 8						; size = 4
_poArgs$ = 12						; size = 4
?playerGetPlayTime@@YAPAU_object@@PAU1@0@Z PROC		; playerGetPlayTime, COMDAT

; 513  : 	return Py_BuildValue("i", CPythonPlayer::Instance().GetPlayTime()); 

  00000	8b 0d 00 00 00
	00		 mov	 ecx, DWORD PTR ?ms_singleton@?$CSingleton@VCPythonPlayer@@@@0PAVCPythonPlayer@@A ; CSingleton<CPythonPlayer>::ms_singleton
  00006	e8 00 00 00 00	 call	 ?GetPlayTime@CPythonPlayer@@QAEKXZ ; CPythonPlayer::GetPlayTime
  0000b	50		 push	 eax
  0000c	68 00 00 00 00	 push	 OFFSET ??_C@_01KBJDNOO@i@
  00011	ff 15 00 00 00
	00		 call	 DWORD PTR __imp__Py_BuildValue
  00017	83 c4 08	 add	 esp, 8

; 514  : }

  0001a	c3		 ret	 0
?playerGetPlayTime@@YAPAU_object@@PAU1@0@Z ENDP		; playerGetPlayTime
_TEXT	ENDS
; Function compile flags: /Ogtp
; File D:\Metin2 Server Files\mainline\SRC_2014\Metin2Client\UserInterface\PythonPlayerModule.cpp
; File D:\Metin2 Server Files\mainline\SRC_2014\Metin2Client\UserInterface\InstanceBase.h
; File D:\Metin2 Server Files\mainline\SRC_2014\Metin2Client\UserInterface\PythonPlayerModule.cpp
;	COMDAT ?playerGetJob@@YAPAU_object@@PAU1@0@Z
_TEXT	SEGMENT
_poSelf$ = 8						; size = 4
_poArgs$ = 12						; size = 4
?playerGetJob@@YAPAU_object@@PAU1@0@Z PROC		; playerGetJob, COMDAT

; 506  : 	int race = CPythonPlayer::Instance().GetRace();

  00000	8b 0d 00 00 00
	00		 mov	 ecx, DWORD PTR ?ms_singleton@?$CSingleton@VCPythonPlayer@@@@0PAVCPythonPlayer@@A ; CSingleton<CPythonPlayer>::ms_singleton
  00006	e8 00 00 00 00	 call	 ?GetRace@CPythonPlayer@@QAEKXZ ; CPythonPlayer::GetRace
; File D:\Metin2 Server Files\mainline\SRC_2014\Metin2Client\UserInterface\InstanceBase.h

; 1109 : 	return race % JOB_NUM;

  0000b	25 03 00 00 80	 and	 eax, -2147483645	; 80000003H
  00010	79 05		 jns	 SHORT $LN5@playerGetJ
  00012	48		 dec	 eax
  00013	83 c8 fc	 or	 eax, -4			; fffffffcH
  00016	40		 inc	 eax
$LN5@playerGetJ:
; File D:\Metin2 Server Files\mainline\SRC_2014\Metin2Client\UserInterface\PythonPlayerModule.cpp

; 508  : 	return Py_BuildValue("i", job);

  00017	50		 push	 eax
  00018	68 00 00 00 00	 push	 OFFSET ??_C@_01KBJDNOO@i@
  0001d	ff 15 00 00 00
	00		 call	 DWORD PTR __imp__Py_BuildValue
  00023	83 c4 08	 add	 esp, 8

; 509  : }

  00026	c3		 ret	 0
?playerGetJob@@YAPAU_object@@PAU1@0@Z ENDP		; playerGetJob
_TEXT	ENDS
; Function compile flags: /Ogtp
; File D:\Metin2 Server Files\mainline\SRC_2014\Metin2Client\UserInterface\PythonPlayerModule.cpp
;	COMDAT ?playerGetRace@@YAPAU_object@@PAU1@0@Z
_TEXT	SEGMENT
_poSelf$ = 8						; size = 4
_poArgs$ = 12						; size = 4
?playerGetRace@@YAPAU_object@@PAU1@0@Z PROC		; playerGetRace, COMDAT

; 501  : 	return Py_BuildValue("i", CPythonPlayer::Instance().GetRace());

  00000	8b 0d 00 00 00
	00		 mov	 ecx, DWORD PTR ?ms_singleton@?$CSingleton@VCPythonPlayer@@@@0PAVCPythonPlayer@@A ; CSingleton<CPythonPlayer>::ms_singleton
  00006	e8 00 00 00 00	 call	 ?GetRace@CPythonPlayer@@QAEKXZ ; CPythonPlayer::GetRace
  0000b	50		 push	 eax
  0000c	68 00 00 00 00	 push	 OFFSET ??_C@_01KBJDNOO@i@
  00011	ff 15 00 00 00
	00		 call	 DWORD PTR __imp__Py_BuildValue
  00017	83 c4 08	 add	 esp, 8

; 502  : }

  0001a	c3		 ret	 0
?playerGetRace@@YAPAU_object@@PAU1@0@Z ENDP		; playerGetRace
_TEXT	ENDS
; Function compile flags: /Ogtp
; File D:\Metin2 Server Files\mainline\SRC_2014\Metin2Client\UserInterface\PythonPlayerModule.cpp
;	COMDAT ?playerGetName@@YAPAU_object@@PAU1@0@Z
_TEXT	SEGMENT
_poSelf$ = 8						; size = 4
_poArgs$ = 12						; size = 4
?playerGetName@@YAPAU_object@@PAU1@0@Z PROC		; playerGetName, COMDAT

; 496  : 	return Py_BuildValue("s", CPythonPlayer::Instance().GetName()); 

  00000	8b 0d 00 00 00
	00		 mov	 ecx, DWORD PTR ?ms_singleton@?$CSingleton@VCPythonPlayer@@@@0PAVCPythonPlayer@@A ; CSingleton<CPythonPlayer>::ms_singleton
  00006	83 c1 04	 add	 ecx, 4
  00009	8b 01		 mov	 eax, DWORD PTR [ecx]
  0000b	ff 50 14	 call	 DWORD PTR [eax+20]
  0000e	50		 push	 eax
  0000f	68 00 00 00 00	 push	 OFFSET ??_C@_01LKDEMHDF@s@
  00014	ff 15 00 00 00
	00		 call	 DWORD PTR __imp__Py_BuildValue
  0001a	83 c4 08	 add	 esp, 8

; 497  : }

  0001d	c3		 ret	 0
?playerGetName@@YAPAU_object@@PAU1@0@Z ENDP		; playerGetName
_TEXT	ENDS
; Function compile flags: /Ogtp
; File D:\Metin2 Server Files\mainline\SRC_2014\Metin2Client\UserInterface\PythonPlayerModule.cpp
;	COMDAT ?playerSetMouseMiddleButtonState@@YAPAU_object@@PAU1@0@Z
_TEXT	SEGMENT
_eMBS$ = -4						; size = 4
_poSelf$ = 8						; size = 4
_poArgs$ = 12						; size = 4
?playerSetMouseMiddleButtonState@@YAPAU_object@@PAU1@0@Z PROC ; playerSetMouseMiddleButtonState, COMDAT

; 481  : {

  00000	55		 push	 ebp
  00001	8b ec		 mov	 ebp, esp
  00003	51		 push	 ecx

; 482  : 	int eMBS;
; 483  : 	if (!PyTuple_GetInteger(poArgs, 0, &eMBS))

  00004	8d 45 fc	 lea	 eax, DWORD PTR _eMBS$[ebp]
  00007	50		 push	 eax
  00008	6a 00		 push	 0
  0000a	ff 75 0c	 push	 DWORD PTR _poArgs$[ebp]
  0000d	e8 00 00 00 00	 call	 ?PyTuple_GetInteger@@YA_NPAU_object@@HPAH@Z ; PyTuple_GetInteger
  00012	83 c4 0c	 add	 esp, 12			; 0000000cH
  00015	84 c0		 test	 al, al
  00017	75 0e		 jne	 SHORT $LN2@playerSetM

; 484  : 		return Py_BuildException();	

  00019	6a 00		 push	 0
  0001b	e8 00 00 00 00	 call	 ?Py_BuildException@@YAPAU_object@@PBDZZ ; Py_BuildException
  00020	83 c4 04	 add	 esp, 4

; 490  : }

  00023	8b e5		 mov	 esp, ebp
  00025	5d		 pop	 ebp
  00026	c3		 ret	 0
$LN2@playerSetM:

; 485  : 
; 486  : 	CPythonPlayer& rkPlayer=CPythonPlayer::Instance();
; 487  : 	rkPlayer.NEW_SetMouseMiddleButtonState(eMBS);

  00027	ff 75 fc	 push	 DWORD PTR _eMBS$[ebp]
  0002a	8b 0d 00 00 00
	00		 mov	 ecx, DWORD PTR ?ms_singleton@?$CSingleton@VCPythonPlayer@@@@0PAVCPythonPlayer@@A ; CSingleton<CPythonPlayer>::ms_singleton
  00030	e8 00 00 00 00	 call	 ?NEW_SetMouseMiddleButtonState@CPythonPlayer@@QAEXH@Z ; CPythonPlayer::NEW_SetMouseMiddleButtonState

; 488  : 
; 489  : 	return Py_BuildNone();

  00035	e8 00 00 00 00	 call	 ?Py_BuildNone@@YAPAU_object@@XZ ; Py_BuildNone

; 490  : }

  0003a	8b e5		 mov	 esp, ebp
  0003c	5d		 pop	 ebp
  0003d	c3		 ret	 0
?playerSetMouseMiddleButtonState@@YAPAU_object@@PAU1@0@Z ENDP ; playerSetMouseMiddleButtonState
_TEXT	ENDS
; Function compile flags: /Ogtp
; File D:\Metin2 Server Files\mainline\SRC_2014\Metin2Client\UserInterface\PythonPlayerModule.cpp
;	COMDAT ?playerGetMouseFunc@@YAPAU_object@@PAU1@0@Z
_TEXT	SEGMENT
_eMBT$ = -4						; size = 4
_poSelf$ = 8						; size = 4
_poArgs$ = 12						; size = 4
?playerGetMouseFunc@@YAPAU_object@@PAU1@0@Z PROC	; playerGetMouseFunc, COMDAT

; 471  : {

  00000	55		 push	 ebp
  00001	8b ec		 mov	 ebp, esp
  00003	51		 push	 ecx

; 472  : 	int eMBT;
; 473  : 	if (!PyTuple_GetInteger(poArgs, 0, &eMBT))

  00004	8d 45 fc	 lea	 eax, DWORD PTR _eMBT$[ebp]
  00007	50		 push	 eax
  00008	6a 00		 push	 0
  0000a	ff 75 0c	 push	 DWORD PTR _poArgs$[ebp]
  0000d	e8 00 00 00 00	 call	 ?PyTuple_GetInteger@@YA_NPAU_object@@HPAH@Z ; PyTuple_GetInteger
  00012	83 c4 0c	 add	 esp, 12			; 0000000cH
  00015	84 c0		 test	 al, al
  00017	75 0e		 jne	 SHORT $LN2@playerGetM

; 474  : 		return Py_BuildException();	

  00019	6a 00		 push	 0
  0001b	e8 00 00 00 00	 call	 ?Py_BuildException@@YAPAU_object@@PBDZZ ; Py_BuildException
  00020	83 c4 04	 add	 esp, 4

; 478  : }

  00023	8b e5		 mov	 esp, ebp
  00025	5d		 pop	 ebp
  00026	c3		 ret	 0
$LN2@playerGetM:

; 475  : 
; 476  : 	CPythonPlayer& rkPlayer=CPythonPlayer::Instance();
; 477  : 	return Py_BuildValue("i", rkPlayer.NEW_GetMouseFunc(eMBT));

  00027	ff 75 fc	 push	 DWORD PTR _eMBT$[ebp]
  0002a	8b 0d 00 00 00
	00		 mov	 ecx, DWORD PTR ?ms_singleton@?$CSingleton@VCPythonPlayer@@@@0PAVCPythonPlayer@@A ; CSingleton<CPythonPlayer>::ms_singleton
  00030	e8 00 00 00 00	 call	 ?NEW_GetMouseFunc@CPythonPlayer@@QAEHH@Z ; CPythonPlayer::NEW_GetMouseFunc
  00035	50		 push	 eax
  00036	68 00 00 00 00	 push	 OFFSET ??_C@_01KBJDNOO@i@
  0003b	ff 15 00 00 00
	00		 call	 DWORD PTR __imp__Py_BuildValue
  00041	83 c4 08	 add	 esp, 8

; 478  : }

  00044	8b e5		 mov	 esp, ebp
  00046	5d		 pop	 ebp
  00047	c3		 ret	 0
?playerGetMouseFunc@@YAPAU_object@@PAU1@0@Z ENDP	; playerGetMouseFunc
_TEXT	ENDS
; Function compile flags: /Ogtp
; File D:\Metin2 Server Files\mainline\SRC_2014\Metin2Client\UserInterface\PythonPlayerModule.cpp
;	COMDAT ?playerSetMouseFunc@@YAPAU_object@@PAU1@0@Z
_TEXT	SEGMENT
_eMBT$ = -8						; size = 4
_eMBS$ = -4						; size = 4
_poSelf$ = 8						; size = 4
_poArgs$ = 12						; size = 4
?playerSetMouseFunc@@YAPAU_object@@PAU1@0@Z PROC	; playerSetMouseFunc, COMDAT

; 455  : {

  00000	55		 push	 ebp
  00001	8b ec		 mov	 ebp, esp
  00003	83 ec 08	 sub	 esp, 8

; 456  : 	int eMBT;
; 457  : 	if (!PyTuple_GetInteger(poArgs, 0, &eMBT))

  00006	8d 45 f8	 lea	 eax, DWORD PTR _eMBT$[ebp]
  00009	50		 push	 eax
  0000a	6a 00		 push	 0
  0000c	ff 75 0c	 push	 DWORD PTR _poArgs$[ebp]
  0000f	e8 00 00 00 00	 call	 ?PyTuple_GetInteger@@YA_NPAU_object@@HPAH@Z ; PyTuple_GetInteger
  00014	83 c4 0c	 add	 esp, 12			; 0000000cH
  00017	84 c0		 test	 al, al
  00019	75 0e		 jne	 SHORT $LN2@playerSetM
$LN5@playerSetM:

; 468  : }

  0001b	6a 00		 push	 0
  0001d	e8 00 00 00 00	 call	 ?Py_BuildException@@YAPAU_object@@PBDZZ ; Py_BuildException
  00022	83 c4 04	 add	 esp, 4
  00025	8b e5		 mov	 esp, ebp
  00027	5d		 pop	 ebp
  00028	c3		 ret	 0
$LN2@playerSetM:

; 458  : 		return Py_BuildException();	
; 459  : 
; 460  : 	int eMBS;
; 461  : 	if (!PyTuple_GetInteger(poArgs, 1, &eMBS))

  00029	8d 45 fc	 lea	 eax, DWORD PTR _eMBS$[ebp]
  0002c	50		 push	 eax
  0002d	6a 01		 push	 1
  0002f	ff 75 0c	 push	 DWORD PTR _poArgs$[ebp]
  00032	e8 00 00 00 00	 call	 ?PyTuple_GetInteger@@YA_NPAU_object@@HPAH@Z ; PyTuple_GetInteger
  00037	83 c4 0c	 add	 esp, 12			; 0000000cH
  0003a	84 c0		 test	 al, al
  0003c	74 dd		 je	 SHORT $LN5@playerSetM

; 462  : 		return Py_BuildException();	
; 463  : 
; 464  : 	CPythonPlayer& rkPlayer=CPythonPlayer::Instance();
; 465  : 	rkPlayer.NEW_SetMouseFunc(eMBT, eMBS);

  0003e	ff 75 fc	 push	 DWORD PTR _eMBS$[ebp]
  00041	8b 0d 00 00 00
	00		 mov	 ecx, DWORD PTR ?ms_singleton@?$CSingleton@VCPythonPlayer@@@@0PAVCPythonPlayer@@A ; CSingleton<CPythonPlayer>::ms_singleton
  00047	ff 75 f8	 push	 DWORD PTR _eMBT$[ebp]
  0004a	e8 00 00 00 00	 call	 ?NEW_SetMouseFunc@CPythonPlayer@@QAE_NHH@Z ; CPythonPlayer::NEW_SetMouseFunc

; 466  : 
; 467  : 	return Py_BuildNone();

  0004f	e8 00 00 00 00	 call	 ?Py_BuildNone@@YAPAU_object@@XZ ; Py_BuildNone

; 468  : }

  00054	8b e5		 mov	 esp, ebp
  00056	5d		 pop	 ebp
  00057	c3		 ret	 0
?playerSetMouseFunc@@YAPAU_object@@PAU1@0@Z ENDP	; playerSetMouseFunc
_TEXT	ENDS
; Function compile flags: /Ogtp
; File D:\Metin2 Server Files\mainline\SRC_2014\Metin2Client\UserInterface\PythonPlayerModule.cpp
;	COMDAT ?playerSetMouseState@@YAPAU_object@@PAU1@0@Z
_TEXT	SEGMENT
_eMBT$ = -8						; size = 4
_eMBS$ = -4						; size = 4
_poSelf$ = 8						; size = 4
_poArgs$ = 12						; size = 4
?playerSetMouseState@@YAPAU_object@@PAU1@0@Z PROC	; playerSetMouseState, COMDAT

; 439  : {

  00000	55		 push	 ebp
  00001	8b ec		 mov	 ebp, esp
  00003	83 ec 08	 sub	 esp, 8

; 440  : 	int eMBT;
; 441  : 	if (!PyTuple_GetInteger(poArgs, 0, &eMBT))

  00006	8d 45 f8	 lea	 eax, DWORD PTR _eMBT$[ebp]
  00009	50		 push	 eax
  0000a	6a 00		 push	 0
  0000c	ff 75 0c	 push	 DWORD PTR _poArgs$[ebp]
  0000f	e8 00 00 00 00	 call	 ?PyTuple_GetInteger@@YA_NPAU_object@@HPAH@Z ; PyTuple_GetInteger
  00014	83 c4 0c	 add	 esp, 12			; 0000000cH
  00017	84 c0		 test	 al, al
  00019	75 0e		 jne	 SHORT $LN2@playerSetM
$LN5@playerSetM:

; 452  : }

  0001b	6a 00		 push	 0
  0001d	e8 00 00 00 00	 call	 ?Py_BuildException@@YAPAU_object@@PBDZZ ; Py_BuildException
  00022	83 c4 04	 add	 esp, 4
  00025	8b e5		 mov	 esp, ebp
  00027	5d		 pop	 ebp
  00028	c3		 ret	 0
$LN2@playerSetM:

; 442  : 		return Py_BuildException();	
; 443  : 
; 444  : 	int eMBS;
; 445  : 	if (!PyTuple_GetInteger(poArgs, 1, &eMBS))

  00029	8d 45 fc	 lea	 eax, DWORD PTR _eMBS$[ebp]
  0002c	50		 push	 eax
  0002d	6a 01		 push	 1
  0002f	ff 75 0c	 push	 DWORD PTR _poArgs$[ebp]
  00032	e8 00 00 00 00	 call	 ?PyTuple_GetInteger@@YA_NPAU_object@@HPAH@Z ; PyTuple_GetInteger
  00037	83 c4 0c	 add	 esp, 12			; 0000000cH
  0003a	84 c0		 test	 al, al
  0003c	74 dd		 je	 SHORT $LN5@playerSetM

; 446  : 		return Py_BuildException();	
; 447  : 
; 448  : 	CPythonPlayer& rkPlayer=CPythonPlayer::Instance();
; 449  : 	rkPlayer.NEW_SetMouseState(eMBT, eMBS);

  0003e	ff 75 fc	 push	 DWORD PTR _eMBS$[ebp]
  00041	8b 0d 00 00 00
	00		 mov	 ecx, DWORD PTR ?ms_singleton@?$CSingleton@VCPythonPlayer@@@@0PAVCPythonPlayer@@A ; CSingleton<CPythonPlayer>::ms_singleton
  00047	ff 75 f8	 push	 DWORD PTR _eMBT$[ebp]
  0004a	e8 00 00 00 00	 call	 ?NEW_SetMouseState@CPythonPlayer@@QAE_NHH@Z ; CPythonPlayer::NEW_SetMouseState

; 450  : 
; 451  : 	return Py_BuildNone();

  0004f	e8 00 00 00 00	 call	 ?Py_BuildNone@@YAPAU_object@@XZ ; Py_BuildNone

; 452  : }

  00054	8b e5		 mov	 esp, ebp
  00056	5d		 pop	 ebp
  00057	c3		 ret	 0
?playerSetMouseState@@YAPAU_object@@PAU1@0@Z ENDP	; playerSetMouseState
_TEXT	ENDS
; Function compile flags: /Ogtp
; File D:\Metin2 Server Files\mainline\SRC_2014\Metin2Client\UserInterface\PythonPlayerModule.cpp
;	COMDAT ?playerSetAutoCameraRotationSpeed@@YAPAU_object@@PAU1@0@Z
_TEXT	SEGMENT
_fCmrRotSpd$ = -4					; size = 4
_poSelf$ = 8						; size = 4
_poArgs$ = 12						; size = 4
?playerSetAutoCameraRotationSpeed@@YAPAU_object@@PAU1@0@Z PROC ; playerSetAutoCameraRotationSpeed, COMDAT

; 428  : {

  00000	55		 push	 ebp
  00001	8b ec		 mov	 ebp, esp
  00003	51		 push	 ecx

; 429  : 	float fCmrRotSpd;
; 430  : 	if (!PyTuple_GetFloat(poArgs, 0, &fCmrRotSpd))

  00004	8d 45 fc	 lea	 eax, DWORD PTR _fCmrRotSpd$[ebp]
  00007	50		 push	 eax
  00008	6a 00		 push	 0
  0000a	ff 75 0c	 push	 DWORD PTR _poArgs$[ebp]
  0000d	e8 00 00 00 00	 call	 ?PyTuple_GetFloat@@YA_NPAU_object@@HPAM@Z ; PyTuple_GetFloat
  00012	83 c4 0c	 add	 esp, 12			; 0000000cH
  00015	84 c0		 test	 al, al
  00017	75 0e		 jne	 SHORT $LN2@playerSetA

; 431  : 		return Py_BuildException();	

  00019	6a 00		 push	 0
  0001b	e8 00 00 00 00	 call	 ?Py_BuildException@@YAPAU_object@@PBDZZ ; Py_BuildException
  00020	83 c4 04	 add	 esp, 4

; 436  : }

  00023	8b e5		 mov	 esp, ebp
  00025	5d		 pop	 ebp
  00026	c3		 ret	 0
$LN2@playerSetA:

; 432  : 
; 433  : 	CPythonPlayer& rkPlayer=CPythonPlayer::Instance();
; 434  : 	rkPlayer.NEW_SetAutoCameraRotationSpeed(fCmrRotSpd);

  00027	f3 0f 10 45 fc	 movss	 xmm0, DWORD PTR _fCmrRotSpd$[ebp]
  0002c	51		 push	 ecx
  0002d	8b 0d 00 00 00
	00		 mov	 ecx, DWORD PTR ?ms_singleton@?$CSingleton@VCPythonPlayer@@@@0PAVCPythonPlayer@@A ; CSingleton<CPythonPlayer>::ms_singleton
  00033	f3 0f 11 04 24	 movss	 DWORD PTR [esp], xmm0
  00038	e8 00 00 00 00	 call	 ?NEW_SetAutoCameraRotationSpeed@CPythonPlayer@@QAEXM@Z ; CPythonPlayer::NEW_SetAutoCameraRotationSpeed

; 435  : 	return Py_BuildNone();

  0003d	e8 00 00 00 00	 call	 ?Py_BuildNone@@YAPAU_object@@XZ ; Py_BuildNone

; 436  : }

  00042	8b e5		 mov	 esp, ebp
  00044	5d		 pop	 ebp
  00045	c3		 ret	 0
?playerSetAutoCameraRotationSpeed@@YAPAU_object@@PAU1@0@Z ENDP ; playerSetAutoCameraRotationSpeed
_TEXT	ENDS
; Function compile flags: /Ogtp
; File D:\Metin2 Server Files\mainline\SRC_2014\Metin2Client\UserInterface\PythonPlayerModule.cpp
;	COMDAT ?playerResetCameraRotation@@YAPAU_object@@PAU1@0@Z
_TEXT	SEGMENT
_poSelf$ = 8						; size = 4
_poArgs$ = 12						; size = 4
?playerResetCameraRotation@@YAPAU_object@@PAU1@0@Z PROC	; playerResetCameraRotation, COMDAT

; 423  : 	CPythonPlayer::Instance().NEW_ResetCameraRotation();

  00000	8b 0d 00 00 00
	00		 mov	 ecx, DWORD PTR ?ms_singleton@?$CSingleton@VCPythonPlayer@@@@0PAVCPythonPlayer@@A ; CSingleton<CPythonPlayer>::ms_singleton
  00006	e8 00 00 00 00	 call	 ?NEW_ResetCameraRotation@CPythonPlayer@@QAEXXZ ; CPythonPlayer::NEW_ResetCameraRotation

; 424  : 	return Py_BuildNone();

  0000b	e9 00 00 00 00	 jmp	 ?Py_BuildNone@@YAPAU_object@@XZ ; Py_BuildNone
?playerResetCameraRotation@@YAPAU_object@@PAU1@0@Z ENDP	; playerResetCameraRotation
_TEXT	ENDS
; Function compile flags: /Ogtp
; File D:\Metin2 Server Files\mainline\SRC_2014\Metin2Client\UserInterface\PythonPlayerModule.cpp
;	COMDAT ?playerEndMouseWalking@@YAPAU_object@@PAU1@0@Z
_TEXT	SEGMENT
_poSelf$ = 8						; size = 4
_poArgs$ = 12						; size = 4
?playerEndMouseWalking@@YAPAU_object@@PAU1@0@Z PROC	; playerEndMouseWalking, COMDAT

; 418  : 	return Py_BuildNone();

  00000	e9 00 00 00 00	 jmp	 ?Py_BuildNone@@YAPAU_object@@XZ ; Py_BuildNone
?playerEndMouseWalking@@YAPAU_object@@PAU1@0@Z ENDP	; playerEndMouseWalking
_TEXT	ENDS
; Function compile flags: /Ogtp
; File D:\Metin2 Server Files\mainline\SRC_2014\Metin2Client\UserInterface\PythonPlayerModule.cpp
;	COMDAT ?playerStartMouseWalking@@YAPAU_object@@PAU1@0@Z
_TEXT	SEGMENT
_poSelf$ = 8						; size = 4
_poArgs$ = 12						; size = 4
?playerStartMouseWalking@@YAPAU_object@@PAU1@0@Z PROC	; playerStartMouseWalking, COMDAT

; 413  : 	return Py_BuildNone();

  00000	e9 00 00 00 00	 jmp	 ?Py_BuildNone@@YAPAU_object@@XZ ; Py_BuildNone
?playerStartMouseWalking@@YAPAU_object@@PAU1@0@Z ENDP	; playerStartMouseWalking
_TEXT	ENDS
; Function compile flags: /Ogtp
; File D:\Metin2 Server Files\mainline\SRC_2014\Metin2Client\UserInterface\PythonPlayerModule.cpp
;	COMDAT ?playerEndKeyWalkingImmediately@@YAPAU_object@@PAU1@0@Z
_TEXT	SEGMENT
_poSelf$ = 8						; size = 4
_poArgs$ = 12						; size = 4
?playerEndKeyWalkingImmediately@@YAPAU_object@@PAU1@0@Z PROC ; playerEndKeyWalkingImmediately, COMDAT

; 406  : 	CPythonPlayer::Instance().NEW_Stop();

  00000	8b 0d 00 00 00
	00		 mov	 ecx, DWORD PTR ?ms_singleton@?$CSingleton@VCPythonPlayer@@@@0PAVCPythonPlayer@@A ; CSingleton<CPythonPlayer>::ms_singleton
  00006	e8 00 00 00 00	 call	 ?NEW_Stop@CPythonPlayer@@QAEXXZ ; CPythonPlayer::NEW_Stop

; 407  : 	return Py_BuildNone();

  0000b	e9 00 00 00 00	 jmp	 ?Py_BuildNone@@YAPAU_object@@XZ ; Py_BuildNone
?playerEndKeyWalkingImmediately@@YAPAU_object@@PAU1@0@Z ENDP ; playerEndKeyWalkingImmediately
_TEXT	ENDS
; Function compile flags: /Ogtp
; File D:\Metin2 Server Files\mainline\SRC_2014\Metin2Client\UserInterface\PythonPlayerModule.cpp
;	COMDAT ?playerSetSingleDIKKeyState@@YAPAU_object@@PAU1@0@Z
_TEXT	SEGMENT
_eDIK$ = -8						; size = 4
_isPressed$ = -4					; size = 4
_poSelf$ = 8						; size = 4
_poArgs$ = 12						; size = 4
?playerSetSingleDIKKeyState@@YAPAU_object@@PAU1@0@Z PROC ; playerSetSingleDIKKeyState, COMDAT

; 390  : {

  00000	55		 push	 ebp
  00001	8b ec		 mov	 ebp, esp
  00003	83 ec 08	 sub	 esp, 8

; 391  : 	int eDIK;
; 392  : 	if (!PyTuple_GetInteger(poArgs, 0, &eDIK))

  00006	8d 45 f8	 lea	 eax, DWORD PTR _eDIK$[ebp]
  00009	50		 push	 eax
  0000a	6a 00		 push	 0
  0000c	ff 75 0c	 push	 DWORD PTR _poArgs$[ebp]
  0000f	e8 00 00 00 00	 call	 ?PyTuple_GetInteger@@YA_NPAU_object@@HPAH@Z ; PyTuple_GetInteger
  00014	83 c4 0c	 add	 esp, 12			; 0000000cH
  00017	84 c0		 test	 al, al
  00019	75 11		 jne	 SHORT $LN2@playerSetS

; 393  : 		return Py_BuildException("playerSetSingleDIKKeyState(eDIK, isPressed) - There is no first argument");

  0001b	68 00 00 00 00	 push	 OFFSET ??_C@_0EJ@BNKMOLIP@playerSetSingleDIKKeyState?$CIeDIK@
  00020	e8 00 00 00 00	 call	 ?Py_BuildException@@YAPAU_object@@PBDZZ ; Py_BuildException
  00025	83 c4 04	 add	 esp, 4

; 402  : }

  00028	8b e5		 mov	 esp, ebp
  0002a	5d		 pop	 ebp
  0002b	c3		 ret	 0
$LN2@playerSetS:

; 394  : 
; 395  : 	int isPressed;
; 396  : 	if (!PyTuple_GetInteger(poArgs, 1, &isPressed))

  0002c	8d 45 fc	 lea	 eax, DWORD PTR _isPressed$[ebp]
  0002f	50		 push	 eax
  00030	6a 01		 push	 1
  00032	ff 75 0c	 push	 DWORD PTR _poArgs$[ebp]
  00035	e8 00 00 00 00	 call	 ?PyTuple_GetInteger@@YA_NPAU_object@@HPAH@Z ; PyTuple_GetInteger
  0003a	83 c4 0c	 add	 esp, 12			; 0000000cH
  0003d	84 c0		 test	 al, al
  0003f	75 11		 jne	 SHORT $LN3@playerSetS

; 397  : 		return Py_BuildException("playerSetSingleDIKKeyState(eDIK, isPressed) - There is no second argument");

  00041	68 00 00 00 00	 push	 OFFSET ??_C@_0EK@IDBGKDBN@playerSetSingleDIKKeyState?$CIeDIK@
  00046	e8 00 00 00 00	 call	 ?Py_BuildException@@YAPAU_object@@PBDZZ ; Py_BuildException
  0004b	83 c4 04	 add	 esp, 4

; 402  : }

  0004e	8b e5		 mov	 esp, ebp
  00050	5d		 pop	 ebp
  00051	c3		 ret	 0
$LN3@playerSetS:

; 398  : 
; 399  : 	CPythonPlayer & rkPlayer = CPythonPlayer::Instance();
; 400  : 	rkPlayer.NEW_SetSingleDIKKeyState(eDIK, isPressed ? true : false);

  00052	83 7d fc 00	 cmp	 DWORD PTR _isPressed$[ebp], 0
  00056	8b 0d 00 00 00
	00		 mov	 ecx, DWORD PTR ?ms_singleton@?$CSingleton@VCPythonPlayer@@@@0PAVCPythonPlayer@@A ; CSingleton<CPythonPlayer>::ms_singleton
  0005c	0f 95 c0	 setne	 al
  0005f	0f b6 c0	 movzx	 eax, al
  00062	50		 push	 eax
  00063	ff 75 f8	 push	 DWORD PTR _eDIK$[ebp]
  00066	e8 00 00 00 00	 call	 ?NEW_SetSingleDIKKeyState@CPythonPlayer@@QAEXH_N@Z ; CPythonPlayer::NEW_SetSingleDIKKeyState

; 401  : 	return Py_BuildNone();

  0006b	e8 00 00 00 00	 call	 ?Py_BuildNone@@YAPAU_object@@XZ ; Py_BuildNone

; 402  : }

  00070	8b e5		 mov	 esp, ebp
  00072	5d		 pop	 ebp
  00073	c3		 ret	 0
?playerSetSingleDIKKeyState@@YAPAU_object@@PAU1@0@Z ENDP ; playerSetSingleDIKKeyState
_TEXT	ENDS
; Function compile flags: /Ogtp
; File D:\Metin2 Server Files\mainline\SRC_2014\Metin2Client\UserInterface\PythonPlayerModule.cpp
;	COMDAT ?playerSetAttackKeyState@@YAPAU_object@@PAU1@0@Z
_TEXT	SEGMENT
_isPressed$ = -4					; size = 4
_poSelf$ = 8						; size = 4
_poArgs$ = 12						; size = 4
?playerSetAttackKeyState@@YAPAU_object@@PAU1@0@Z PROC	; playerSetAttackKeyState, COMDAT

; 379  : {

  00000	55		 push	 ebp
  00001	8b ec		 mov	 ebp, esp
  00003	51		 push	 ecx

; 380  : 	int isPressed;
; 381  : 	if (!PyTuple_GetInteger(poArgs, 0, &isPressed))

  00004	8d 45 fc	 lea	 eax, DWORD PTR _isPressed$[ebp]
  00007	50		 push	 eax
  00008	6a 00		 push	 0
  0000a	ff 75 0c	 push	 DWORD PTR _poArgs$[ebp]
  0000d	e8 00 00 00 00	 call	 ?PyTuple_GetInteger@@YA_NPAU_object@@HPAH@Z ; PyTuple_GetInteger
  00012	83 c4 0c	 add	 esp, 12			; 0000000cH
  00015	84 c0		 test	 al, al
  00017	75 11		 jne	 SHORT $LN2@playerSetA

; 382  : 		return Py_BuildException("playerSetAttackKeyState(isPressed) - There is no first argument");

  00019	68 00 00 00 00	 push	 OFFSET ??_C@_0EA@OHLDKNFC@playerSetAttackKeyState?$CIisPress@
  0001e	e8 00 00 00 00	 call	 ?Py_BuildException@@YAPAU_object@@PBDZZ ; Py_BuildException
  00023	83 c4 04	 add	 esp, 4

; 387  : }

  00026	8b e5		 mov	 esp, ebp
  00028	5d		 pop	 ebp
  00029	c3		 ret	 0
$LN2@playerSetA:

; 383  : 
; 384  : 	CPythonPlayer & rkPlayer = CPythonPlayer::Instance();
; 385  : 	rkPlayer.SetAttackKeyState(isPressed ? true : false);

  0002a	83 7d fc 00	 cmp	 DWORD PTR _isPressed$[ebp], 0
  0002e	8b 0d 00 00 00
	00		 mov	 ecx, DWORD PTR ?ms_singleton@?$CSingleton@VCPythonPlayer@@@@0PAVCPythonPlayer@@A ; CSingleton<CPythonPlayer>::ms_singleton
  00034	0f 95 c0	 setne	 al
  00037	0f b6 c0	 movzx	 eax, al
  0003a	50		 push	 eax
  0003b	e8 00 00 00 00	 call	 ?SetAttackKeyState@CPythonPlayer@@QAEX_N@Z ; CPythonPlayer::SetAttackKeyState

; 386  : 	return Py_BuildNone();

  00040	e8 00 00 00 00	 call	 ?Py_BuildNone@@YAPAU_object@@XZ ; Py_BuildNone

; 387  : }

  00045	8b e5		 mov	 esp, ebp
  00047	5d		 pop	 ebp
  00048	c3		 ret	 0
?playerSetAttackKeyState@@YAPAU_object@@PAU1@0@Z ENDP	; playerSetAttackKeyState
_TEXT	ENDS
; Function compile flags: /Ogtp
; File D:\Metin2 Server Files\mainline\SRC_2014\Metin2Client\UserInterface\PythonPlayerModule.cpp
;	COMDAT ?playerRegisterCacheEffect@@YAPAU_object@@PAU1@0@Z
_TEXT	SEGMENT
_iEft$ = -8						; size = 4
_szFileName$ = -4					; size = 4
_poSelf$ = 8						; size = 4
_poArgs$ = 12						; size = 4
?playerRegisterCacheEffect@@YAPAU_object@@PAU1@0@Z PROC	; playerRegisterCacheEffect, COMDAT

; 362  : {

  00000	55		 push	 ebp
  00001	8b ec		 mov	 ebp, esp
  00003	83 ec 08	 sub	 esp, 8

; 363  : 	int iEft;
; 364  : 	if (!PyTuple_GetInteger(poArgs, 0, &iEft))

  00006	8d 45 f8	 lea	 eax, DWORD PTR _iEft$[ebp]
  00009	50		 push	 eax
  0000a	6a 00		 push	 0
  0000c	ff 75 0c	 push	 DWORD PTR _poArgs$[ebp]
  0000f	e8 00 00 00 00	 call	 ?PyTuple_GetInteger@@YA_NPAU_object@@HPAH@Z ; PyTuple_GetInteger
  00014	83 c4 0c	 add	 esp, 12			; 0000000cH
  00017	84 c0		 test	 al, al
  00019	75 09		 jne	 SHORT $LN2@playerRegi
$LN6@playerRegi:

; 376  : }

  0001b	e8 00 00 00 00	 call	 ?Py_BadArgument@@YAPAU_object@@XZ ; Py_BadArgument
  00020	8b e5		 mov	 esp, ebp
  00022	5d		 pop	 ebp
  00023	c3		 ret	 0
$LN2@playerRegi:

; 365  : 		return Py_BadArgument();
; 366  : 
; 367  : 	char* szFileName;
; 368  : 	if (!PyTuple_GetString(poArgs, 1, &szFileName))

  00024	8d 45 fc	 lea	 eax, DWORD PTR _szFileName$[ebp]
  00027	50		 push	 eax
  00028	6a 01		 push	 1
  0002a	ff 75 0c	 push	 DWORD PTR _poArgs$[ebp]
  0002d	e8 00 00 00 00	 call	 ?PyTuple_GetString@@YA_NPAU_object@@HPAPAD@Z ; PyTuple_GetString
  00032	83 c4 0c	 add	 esp, 12			; 0000000cH
  00035	84 c0		 test	 al, al
  00037	74 e2		 je	 SHORT $LN6@playerRegi

; 369  : 		return Py_BadArgument();
; 370  : 
; 371  : 	CPythonPlayer & rkPlayer = CPythonPlayer::Instance();
; 372  : 	if (!rkPlayer.RegisterEffect(iEft, szFileName, true))

  00039	8b 0d 00 00 00
	00		 mov	 ecx, DWORD PTR ?ms_singleton@?$CSingleton@VCPythonPlayer@@@@0PAVCPythonPlayer@@A ; CSingleton<CPythonPlayer>::ms_singleton
  0003f	6a 01		 push	 1
  00041	ff 75 fc	 push	 DWORD PTR _szFileName$[ebp]
  00044	ff 75 f8	 push	 DWORD PTR _iEft$[ebp]
  00047	e8 00 00 00 00	 call	 ?RegisterEffect@CPythonPlayer@@QAE_NKPBD_N@Z ; CPythonPlayer::RegisterEffect
  0004c	84 c0		 test	 al, al
  0004e	75 17		 jne	 SHORT $LN4@playerRegi

; 373  : 		return Py_BuildException("CPythonPlayer::RegisterEffect(eEft=%d, szFileName=%s", iEft, szFileName);

  00050	ff 75 fc	 push	 DWORD PTR _szFileName$[ebp]
  00053	ff 75 f8	 push	 DWORD PTR _iEft$[ebp]
  00056	68 00 00 00 00	 push	 OFFSET ??_C@_0DF@ILFGGFEI@CPythonPlayer?3?3RegisterEffect?$CIe@
  0005b	e8 00 00 00 00	 call	 ?Py_BuildException@@YAPAU_object@@PBDZZ ; Py_BuildException
  00060	83 c4 0c	 add	 esp, 12			; 0000000cH

; 376  : }

  00063	8b e5		 mov	 esp, ebp
  00065	5d		 pop	 ebp
  00066	c3		 ret	 0
$LN4@playerRegi:

; 374  : 
; 375  : 	return Py_BuildNone();

  00067	e8 00 00 00 00	 call	 ?Py_BuildNone@@YAPAU_object@@XZ ; Py_BuildNone

; 376  : }

  0006c	8b e5		 mov	 esp, ebp
  0006e	5d		 pop	 ebp
  0006f	c3		 ret	 0
?playerRegisterCacheEffect@@YAPAU_object@@PAU1@0@Z ENDP	; playerRegisterCacheEffect
_TEXT	ENDS
; Function compile flags: /Ogtp
; File D:\Metin2 Server Files\mainline\SRC_2014\Metin2Client\UserInterface\PythonPlayerModule.cpp
;	COMDAT ?playerRegisterEffect@@YAPAU_object@@PAU1@0@Z
_TEXT	SEGMENT
_iEft$ = -8						; size = 4
_szFileName$ = -4					; size = 4
_poSelf$ = 8						; size = 4
_poArgs$ = 12						; size = 4
?playerRegisterEffect@@YAPAU_object@@PAU1@0@Z PROC	; playerRegisterEffect, COMDAT

; 345  : {

  00000	55		 push	 ebp
  00001	8b ec		 mov	 ebp, esp
  00003	83 ec 08	 sub	 esp, 8

; 346  : 	int iEft;
; 347  : 	if (!PyTuple_GetInteger(poArgs, 0, &iEft))

  00006	8d 45 f8	 lea	 eax, DWORD PTR _iEft$[ebp]
  00009	50		 push	 eax
  0000a	6a 00		 push	 0
  0000c	ff 75 0c	 push	 DWORD PTR _poArgs$[ebp]
  0000f	e8 00 00 00 00	 call	 ?PyTuple_GetInteger@@YA_NPAU_object@@HPAH@Z ; PyTuple_GetInteger
  00014	83 c4 0c	 add	 esp, 12			; 0000000cH
  00017	84 c0		 test	 al, al
  00019	75 09		 jne	 SHORT $LN2@playerRegi
$LN6@playerRegi:

; 359  : }

  0001b	e8 00 00 00 00	 call	 ?Py_BadArgument@@YAPAU_object@@XZ ; Py_BadArgument
  00020	8b e5		 mov	 esp, ebp
  00022	5d		 pop	 ebp
  00023	c3		 ret	 0
$LN2@playerRegi:

; 348  : 		return Py_BadArgument();
; 349  : 
; 350  : 	char* szFileName;
; 351  : 	if (!PyTuple_GetString(poArgs, 1, &szFileName))

  00024	8d 45 fc	 lea	 eax, DWORD PTR _szFileName$[ebp]
  00027	50		 push	 eax
  00028	6a 01		 push	 1
  0002a	ff 75 0c	 push	 DWORD PTR _poArgs$[ebp]
  0002d	e8 00 00 00 00	 call	 ?PyTuple_GetString@@YA_NPAU_object@@HPAPAD@Z ; PyTuple_GetString
  00032	83 c4 0c	 add	 esp, 12			; 0000000cH
  00035	84 c0		 test	 al, al
  00037	74 e2		 je	 SHORT $LN6@playerRegi

; 352  : 		return Py_BadArgument();
; 353  : 
; 354  : 	CPythonPlayer & rkPlayer = CPythonPlayer::Instance();
; 355  : 	if (!rkPlayer.RegisterEffect(iEft, szFileName, false))

  00039	8b 0d 00 00 00
	00		 mov	 ecx, DWORD PTR ?ms_singleton@?$CSingleton@VCPythonPlayer@@@@0PAVCPythonPlayer@@A ; CSingleton<CPythonPlayer>::ms_singleton
  0003f	6a 00		 push	 0
  00041	ff 75 fc	 push	 DWORD PTR _szFileName$[ebp]
  00044	ff 75 f8	 push	 DWORD PTR _iEft$[ebp]
  00047	e8 00 00 00 00	 call	 ?RegisterEffect@CPythonPlayer@@QAE_NKPBD_N@Z ; CPythonPlayer::RegisterEffect
  0004c	84 c0		 test	 al, al
  0004e	75 17		 jne	 SHORT $LN4@playerRegi

; 356  : 		return Py_BuildException("CPythonPlayer::RegisterEffect(eEft=%d, szFileName=%s", iEft, szFileName);

  00050	ff 75 fc	 push	 DWORD PTR _szFileName$[ebp]
  00053	ff 75 f8	 push	 DWORD PTR _iEft$[ebp]
  00056	68 00 00 00 00	 push	 OFFSET ??_C@_0DF@ILFGGFEI@CPythonPlayer?3?3RegisterEffect?$CIe@
  0005b	e8 00 00 00 00	 call	 ?Py_BuildException@@YAPAU_object@@PBDZZ ; Py_BuildException
  00060	83 c4 0c	 add	 esp, 12			; 0000000cH

; 359  : }

  00063	8b e5		 mov	 esp, ebp
  00065	5d		 pop	 ebp
  00066	c3		 ret	 0
$LN4@playerRegi:

; 357  : 
; 358  : 	return Py_BuildNone();

  00067	e8 00 00 00 00	 call	 ?Py_BuildNone@@YAPAU_object@@XZ ; Py_BuildNone

; 359  : }

  0006c	8b e5		 mov	 esp, ebp
  0006e	5d		 pop	 ebp
  0006f	c3		 ret	 0
?playerRegisterEffect@@YAPAU_object@@PAU1@0@Z ENDP	; playerRegisterEffect
_TEXT	ENDS
; Function compile flags: /Ogtp
; File D:\Metin2 Server Files\mainline\SRC_2014\Metin2Client\UserInterface\PythonPlayerModule.cpp
;	COMDAT ?playerComboAttack@@YAPAU_object@@PAU1@0@Z
_TEXT	SEGMENT
_poSelf$ = 8						; size = 4
_poArgs$ = 12						; size = 4
?playerComboAttack@@YAPAU_object@@PAU1@0@Z PROC		; playerComboAttack, COMDAT

; 339  : 	CPythonPlayer::Instance().NEW_Attack();

  00000	8b 0d 00 00 00
	00		 mov	 ecx, DWORD PTR ?ms_singleton@?$CSingleton@VCPythonPlayer@@@@0PAVCPythonPlayer@@A ; CSingleton<CPythonPlayer>::ms_singleton
  00006	e8 00 00 00 00	 call	 ?NEW_Attack@CPythonPlayer@@QAEXXZ ; CPythonPlayer::NEW_Attack

; 340  : 	return Py_BuildNone();

  0000b	e9 00 00 00 00	 jmp	 ?Py_BuildNone@@YAPAU_object@@XZ ; Py_BuildNone
?playerComboAttack@@YAPAU_object@@PAU1@0@Z ENDP		; playerComboAttack
_TEXT	ENDS
; Function compile flags: /Ogtp
; File D:\Metin2 Server Files\mainline\SRC_2014\Metin2Client\UserInterface\PythonPlayerModule.cpp
;	COMDAT ?playerHidePlayer@@YAPAU_object@@PAU1@0@Z
_TEXT	SEGMENT
_poSelf$ = 8						; size = 4
_poArgs$ = 12						; size = 4
?playerHidePlayer@@YAPAU_object@@PAU1@0@Z PROC		; playerHidePlayer, COMDAT

; 330  : 	CInstanceBase * pMainInstance = CPythonPlayer::Instance().NEW_GetMainActorPtr();

  00000	8b 0d 00 00 00
	00		 mov	 ecx, DWORD PTR ?ms_singleton@?$CSingleton@VCPythonPlayer@@@@0PAVCPythonPlayer@@A ; CSingleton<CPythonPlayer>::ms_singleton
  00006	83 c1 04	 add	 ecx, 4
  00009	8b 01		 mov	 eax, DWORD PTR [ecx]
  0000b	ff 90 88 00 00
	00		 call	 DWORD PTR [eax+136]

; 331  : 	if (pMainInstance)

  00011	85 c0		 test	 eax, eax
  00013	74 0e		 je	 SHORT $LN2@playerHide

; 332  : 		pMainInstance->GetGraphicThingInstanceRef().Hide();

  00015	8b c8		 mov	 ecx, eax
  00017	e8 00 00 00 00	 call	 ?GetGraphicThingInstanceRef@CInstanceBase@@QAEAAVCActorInstance@@XZ ; CInstanceBase::GetGraphicThingInstanceRef
  0001c	8b c8		 mov	 ecx, eax
  0001e	e8 00 00 00 00	 call	 ?Hide@CGraphicObjectInstance@@QAEXXZ ; CGraphicObjectInstance::Hide
$LN2@playerHide:

; 333  : 	return Py_BuildNone();

  00023	e9 00 00 00 00	 jmp	 ?Py_BuildNone@@YAPAU_object@@XZ ; Py_BuildNone
?playerHidePlayer@@YAPAU_object@@PAU1@0@Z ENDP		; playerHidePlayer
_TEXT	ENDS
; Function compile flags: /Ogtp
; File D:\Metin2 Server Files\mainline\SRC_2014\Metin2Client\UserInterface\PythonPlayerModule.cpp
;	COMDAT ?playerShowPlayer@@YAPAU_object@@PAU1@0@Z
_TEXT	SEGMENT
_poSelf$ = 8						; size = 4
_poArgs$ = 12						; size = 4
?playerShowPlayer@@YAPAU_object@@PAU1@0@Z PROC		; playerShowPlayer, COMDAT

; 322  : 	CInstanceBase * pMainInstance = CPythonPlayer::Instance().NEW_GetMainActorPtr();

  00000	8b 0d 00 00 00
	00		 mov	 ecx, DWORD PTR ?ms_singleton@?$CSingleton@VCPythonPlayer@@@@0PAVCPythonPlayer@@A ; CSingleton<CPythonPlayer>::ms_singleton
  00006	83 c1 04	 add	 ecx, 4
  00009	8b 01		 mov	 eax, DWORD PTR [ecx]
  0000b	ff 90 88 00 00
	00		 call	 DWORD PTR [eax+136]

; 323  : 	if (pMainInstance)

  00011	85 c0		 test	 eax, eax
  00013	74 0e		 je	 SHORT $LN2@playerShow

; 324  : 		pMainInstance->GetGraphicThingInstanceRef().Show();

  00015	8b c8		 mov	 ecx, eax
  00017	e8 00 00 00 00	 call	 ?GetGraphicThingInstanceRef@CInstanceBase@@QAEAAVCActorInstance@@XZ ; CInstanceBase::GetGraphicThingInstanceRef
  0001c	8b c8		 mov	 ecx, eax
  0001e	e8 00 00 00 00	 call	 ?Show@CGraphicObjectInstance@@QAEXXZ ; CGraphicObjectInstance::Show
$LN2@playerShow:

; 325  : 	return Py_BuildNone();

  00023	e9 00 00 00 00	 jmp	 ?Py_BuildNone@@YAPAU_object@@XZ ; Py_BuildNone
?playerShowPlayer@@YAPAU_object@@PAU1@0@Z ENDP		; playerShowPlayer
_TEXT	ENDS
; Function compile flags: /Ogtp
; File D:\Metin2 Server Files\mainline\SRC_2014\Metin2Client\UserInterface\PythonPlayerModule.cpp
;	COMDAT ?playerActEmotion@@YAPAU_object@@PAU1@0@Z
_TEXT	SEGMENT
_iVID$ = -4						; size = 4
_poSelf$ = 8						; size = 4
_poArgs$ = 12						; size = 4
?playerActEmotion@@YAPAU_object@@PAU1@0@Z PROC		; playerActEmotion, COMDAT

; 310  : {

  00000	55		 push	 ebp
  00001	8b ec		 mov	 ebp, esp
  00003	51		 push	 ecx

; 311  : 	int iVID;
; 312  : 	if (!PyTuple_GetInteger(poArgs, 0, &iVID))

  00004	8d 45 fc	 lea	 eax, DWORD PTR _iVID$[ebp]
  00007	50		 push	 eax
  00008	6a 00		 push	 0
  0000a	ff 75 0c	 push	 DWORD PTR _poArgs$[ebp]
  0000d	e8 00 00 00 00	 call	 ?PyTuple_GetInteger@@YA_NPAU_object@@HPAH@Z ; PyTuple_GetInteger
  00012	83 c4 0c	 add	 esp, 12			; 0000000cH
  00015	84 c0		 test	 al, al
  00017	75 0e		 jne	 SHORT $LN2@playerActE

; 313  : 		return Py_BuildException();

  00019	6a 00		 push	 0
  0001b	e8 00 00 00 00	 call	 ?Py_BuildException@@YAPAU_object@@PBDZZ ; Py_BuildException
  00020	83 c4 04	 add	 esp, 4

; 318  : }

  00023	8b e5		 mov	 esp, ebp
  00025	5d		 pop	 ebp
  00026	c3		 ret	 0
$LN2@playerActE:

; 314  : 
; 315  : 	CPythonPlayer& rkPlayer=CPythonPlayer::Instance();
; 316  : 	rkPlayer.ActEmotion(iVID);

  00027	ff 75 fc	 push	 DWORD PTR _iVID$[ebp]
  0002a	8b 0d 00 00 00
	00		 mov	 ecx, DWORD PTR ?ms_singleton@?$CSingleton@VCPythonPlayer@@@@0PAVCPythonPlayer@@A ; CSingleton<CPythonPlayer>::ms_singleton
  00030	e8 00 00 00 00	 call	 ?ActEmotion@CPythonPlayer@@QAEXK@Z ; CPythonPlayer::ActEmotion

; 317  : 	return Py_BuildNone();

  00035	e8 00 00 00 00	 call	 ?Py_BuildNone@@YAPAU_object@@XZ ; Py_BuildNone

; 318  : }

  0003a	8b e5		 mov	 esp, ebp
  0003c	5d		 pop	 ebp
  0003d	c3		 ret	 0
?playerActEmotion@@YAPAU_object@@PAU1@0@Z ENDP		; playerActEmotion
_TEXT	ENDS
; Function compile flags: /Ogtp
; File D:\Metin2 Server Files\mainline\SRC_2014\Metin2Client\UserInterface\PythonPlayerModule.cpp
;	COMDAT ?playerIsObserverMode@@YAPAU_object@@PAU1@0@Z
_TEXT	SEGMENT
_poSelf$ = 8						; size = 4
_poArgs$ = 12						; size = 4
?playerIsObserverMode@@YAPAU_object@@PAU1@0@Z PROC	; playerIsObserverMode, COMDAT

; 305  : 	CPythonPlayer& rkPlayer=CPythonPlayer::Instance();
; 306  : 	return Py_BuildValue("i", rkPlayer.IsObserverMode());

  00000	8b 0d 00 00 00
	00		 mov	 ecx, DWORD PTR ?ms_singleton@?$CSingleton@VCPythonPlayer@@@@0PAVCPythonPlayer@@A ; CSingleton<CPythonPlayer>::ms_singleton
  00006	e8 00 00 00 00	 call	 ?IsObserverMode@CPythonPlayer@@QAE_NXZ ; CPythonPlayer::IsObserverMode
  0000b	0f b6 c0	 movzx	 eax, al
  0000e	50		 push	 eax
  0000f	68 00 00 00 00	 push	 OFFSET ??_C@_01KBJDNOO@i@
  00014	ff 15 00 00 00
	00		 call	 DWORD PTR __imp__Py_BuildValue
  0001a	83 c4 08	 add	 esp, 8

; 307  : }

  0001d	c3		 ret	 0
?playerIsObserverMode@@YAPAU_object@@PAU1@0@Z ENDP	; playerIsObserverMode
_TEXT	ENDS
; Function compile flags: /Ogtp
; File D:\Metin2 Server Files\mainline\SRC_2014\Metin2Client\UserInterface\PythonPlayerModule.cpp
;	COMDAT ?playerIsMountingHorse@@YAPAU_object@@PAU1@0@Z
_TEXT	SEGMENT
_poSelf$ = 8						; size = 4
_poArgs$ = 12						; size = 4
?playerIsMountingHorse@@YAPAU_object@@PAU1@0@Z PROC	; playerIsMountingHorse, COMDAT

; 296  : 	CInstanceBase * pMainInstance = CPythonPlayer::Instance().NEW_GetMainActorPtr();

  00000	8b 0d 00 00 00
	00		 mov	 ecx, DWORD PTR ?ms_singleton@?$CSingleton@VCPythonPlayer@@@@0PAVCPythonPlayer@@A ; CSingleton<CPythonPlayer>::ms_singleton
  00006	83 c1 04	 add	 ecx, 4
  00009	8b 01		 mov	 eax, DWORD PTR [ecx]
  0000b	ff 90 88 00 00
	00		 call	 DWORD PTR [eax+136]

; 297  : 	if (!pMainInstance)

  00011	85 c0		 test	 eax, eax
  00013	75 10		 jne	 SHORT $LN2@playerIsMo

; 298  : 		return Py_BuildValue("i", FALSE);

  00015	50		 push	 eax

; 301  : }

  00016	68 00 00 00 00	 push	 OFFSET ??_C@_01KBJDNOO@i@
  0001b	ff 15 00 00 00
	00		 call	 DWORD PTR __imp__Py_BuildValue
  00021	83 c4 08	 add	 esp, 8
  00024	c3		 ret	 0
$LN2@playerIsMo:

; 299  : 
; 300  : 	return Py_BuildValue("i", pMainInstance->IsMountingHorse());

  00025	8b c8		 mov	 ecx, eax
  00027	e8 00 00 00 00	 call	 ?IsMountingHorse@CInstanceBase@@QAEHXZ ; CInstanceBase::IsMountingHorse
  0002c	50		 push	 eax

; 301  : }

  0002d	68 00 00 00 00	 push	 OFFSET ??_C@_01KBJDNOO@i@
  00032	ff 15 00 00 00
	00		 call	 DWORD PTR __imp__Py_BuildValue
  00038	83 c4 08	 add	 esp, 8
  0003b	c3		 ret	 0
?playerIsMountingHorse@@YAPAU_object@@PAU1@0@Z ENDP	; playerIsMountingHorse
_TEXT	ENDS
; Function compile flags: /Ogtp
; File D:\Metin2 Server Files\mainline\SRC_2014\Metin2Client\UserInterface\PythonPlayerModule.cpp
;	COMDAT ?playerIsInSafeArea@@YAPAU_object@@PAU1@0@Z
_TEXT	SEGMENT
_poSelf$ = 8						; size = 4
_poArgs$ = 12						; size = 4
?playerIsInSafeArea@@YAPAU_object@@PAU1@0@Z PROC	; playerIsInSafeArea, COMDAT

; 287  : 	CInstanceBase * pMainInstance = CPythonPlayer::Instance().NEW_GetMainActorPtr();

  00000	8b 0d 00 00 00
	00		 mov	 ecx, DWORD PTR ?ms_singleton@?$CSingleton@VCPythonPlayer@@@@0PAVCPythonPlayer@@A ; CSingleton<CPythonPlayer>::ms_singleton
  00006	83 c1 04	 add	 ecx, 4
  00009	8b 01		 mov	 eax, DWORD PTR [ecx]
  0000b	ff 90 88 00 00
	00		 call	 DWORD PTR [eax+136]

; 288  : 	if (!pMainInstance)

  00011	85 c0		 test	 eax, eax
  00013	75 10		 jne	 SHORT $LN2@playerIsIn

; 289  : 		return Py_BuildValue("i", FALSE);

  00015	50		 push	 eax

; 292  : }

  00016	68 00 00 00 00	 push	 OFFSET ??_C@_01KBJDNOO@i@
  0001b	ff 15 00 00 00
	00		 call	 DWORD PTR __imp__Py_BuildValue
  00021	83 c4 08	 add	 esp, 8
  00024	c3		 ret	 0
$LN2@playerIsIn:

; 290  : 
; 291  : 	return Py_BuildValue("i", pMainInstance->IsInSafe());

  00025	8b c8		 mov	 ecx, eax
  00027	e8 00 00 00 00	 call	 ?IsInSafe@CInstanceBase@@QAEHXZ ; CInstanceBase::IsInSafe
  0002c	50		 push	 eax

; 292  : }

  0002d	68 00 00 00 00	 push	 OFFSET ??_C@_01KBJDNOO@i@
  00032	ff 15 00 00 00
	00		 call	 DWORD PTR __imp__Py_BuildValue
  00038	83 c4 08	 add	 esp, 8
  0003b	c3		 ret	 0
?playerIsInSafeArea@@YAPAU_object@@PAU1@0@Z ENDP	; playerIsInSafeArea
_TEXT	ENDS
; Function compile flags: /Ogtp
; File D:\Metin2 Server Files\mainline\SRC_2014\Metin2Client\UserInterface\PythonPlayerModule.cpp
;	COMDAT ?playerGetCharacterDistance@@YAPAU_object@@PAU1@0@Z
_TEXT	SEGMENT
_iVID$ = -4						; size = 4
_poSelf$ = 8						; size = 4
_poArgs$ = 12						; size = 4
?playerGetCharacterDistance@@YAPAU_object@@PAU1@0@Z PROC ; playerGetCharacterDistance, COMDAT

; 270  : {

  00000	55		 push	 ebp
  00001	8b ec		 mov	 ebp, esp
  00003	51		 push	 ecx

; 271  : 	int iVID;
; 272  : 	if (!PyTuple_GetInteger(poArgs, 0, &iVID))

  00004	8d 45 fc	 lea	 eax, DWORD PTR _iVID$[ebp]
  00007	50		 push	 eax
  00008	6a 00		 push	 0
  0000a	ff 75 0c	 push	 DWORD PTR _poArgs$[ebp]
  0000d	e8 00 00 00 00	 call	 ?PyTuple_GetInteger@@YA_NPAU_object@@HPAH@Z ; PyTuple_GetInteger
  00012	83 c4 0c	 add	 esp, 12			; 0000000cH
  00015	84 c0		 test	 al, al
  00017	75 0e		 jne	 SHORT $LN2@playerGetC

; 273  : 		return Py_BuildException();

  00019	6a 00		 push	 0
  0001b	e8 00 00 00 00	 call	 ?Py_BuildException@@YAPAU_object@@PBDZZ ; Py_BuildException
  00020	83 c4 04	 add	 esp, 4

; 283  : }

  00023	8b e5		 mov	 esp, ebp
  00025	5d		 pop	 ebp
  00026	c3		 ret	 0
$LN2@playerGetC:

; 274  : 
; 275  : 	CInstanceBase * pMainInstance = CPythonPlayer::Instance().NEW_GetMainActorPtr();

  00027	8b 0d 00 00 00
	00		 mov	 ecx, DWORD PTR ?ms_singleton@?$CSingleton@VCPythonPlayer@@@@0PAVCPythonPlayer@@A ; CSingleton<CPythonPlayer>::ms_singleton
  0002d	83 c1 04	 add	 ecx, 4
  00030	56		 push	 esi
  00031	8b 01		 mov	 eax, DWORD PTR [ecx]
  00033	ff 90 88 00 00
	00		 call	 DWORD PTR [eax+136]

; 276  : 	CInstanceBase * pTargetInstance = CPythonCharacterManager::Instance().GetInstancePtr(iVID);

  00039	8b 0d 00 00 00
	00		 mov	 ecx, DWORD PTR ?ms_singleton@?$CSingleton@VCPythonCharacterManager@@@@0PAVCPythonCharacterManager@@A ; CSingleton<CPythonCharacterManager>::ms_singleton
  0003f	8b f0		 mov	 esi, eax
  00041	ff 75 fc	 push	 DWORD PTR _iVID$[ebp]
  00044	83 c1 04	 add	 ecx, 4
  00047	8b 11		 mov	 edx, DWORD PTR [ecx]
  00049	ff 52 08	 call	 DWORD PTR [edx+8]

; 277  : 	if (!pMainInstance)

  0004c	85 f6		 test	 esi, esi
  0004e	75 23		 jne	 SHORT $LN3@playerGetC
$LN8@playerGetC:

; 280  : 		return Py_BuildValue("f", -1.0f);
; 281  : 
; 282  : 	return Py_BuildValue("f", pMainInstance->GetDistance(pTargetInstance));

  00050	f2 0f 10 05 00
	00 00 00	 movsd	 xmm0, QWORD PTR __real@bff0000000000000
  00058	83 ec 08	 sub	 esp, 8
  0005b	f2 0f 11 04 24	 movsd	 QWORD PTR [esp], xmm0
  00060	68 00 00 00 00	 push	 OFFSET ??_C@_01INIBCBCB@f@
  00065	ff 15 00 00 00
	00		 call	 DWORD PTR __imp__Py_BuildValue
  0006b	83 c4 0c	 add	 esp, 12			; 0000000cH
  0006e	5e		 pop	 esi

; 283  : }

  0006f	8b e5		 mov	 esp, ebp
  00071	5d		 pop	 ebp
  00072	c3		 ret	 0
$LN3@playerGetC:

; 278  : 		return Py_BuildValue("f", -1.0f);
; 279  : 	if (!pTargetInstance)

  00073	85 c0		 test	 eax, eax
  00075	74 d9		 je	 SHORT $LN8@playerGetC

; 280  : 		return Py_BuildValue("f", -1.0f);
; 281  : 
; 282  : 	return Py_BuildValue("f", pMainInstance->GetDistance(pTargetInstance));

  00077	50		 push	 eax
  00078	8b ce		 mov	 ecx, esi
  0007a	e8 00 00 00 00	 call	 ?GetDistance@CInstanceBase@@QAEMPAV1@@Z ; CInstanceBase::GetDistance
  0007f	83 ec 08	 sub	 esp, 8
  00082	dd 1c 24	 fstp	 QWORD PTR [esp]
  00085	68 00 00 00 00	 push	 OFFSET ??_C@_01INIBCBCB@f@
  0008a	ff 15 00 00 00
	00		 call	 DWORD PTR __imp__Py_BuildValue
  00090	83 c4 0c	 add	 esp, 12			; 0000000cH
  00093	5e		 pop	 esi

; 283  : }

  00094	8b e5		 mov	 esp, ebp
  00096	5d		 pop	 ebp
  00097	c3		 ret	 0
?playerGetCharacterDistance@@YAPAU_object@@PAU1@0@Z ENDP ; playerGetCharacterDistance
_TEXT	ENDS
; Function compile flags: /Ogtp
; File D:\Metin2 Server Files\mainline\SRC_2014\Metin2Client\UserInterface\PythonPlayerModule.cpp
;	COMDAT ?playerIsCantFightInstance@@YAPAU_object@@PAU1@0@Z
_TEXT	SEGMENT
_iVID$ = -4						; size = 4
_poSelf$ = 8						; size = 4
_poArgs$ = 12						; size = 4
?playerIsCantFightInstance@@YAPAU_object@@PAU1@0@Z PROC	; playerIsCantFightInstance, COMDAT

; 261  : {

  00000	55		 push	 ebp
  00001	8b ec		 mov	 ebp, esp
  00003	51		 push	 ecx

; 262  : 	int iVID;
; 263  : 	if (!PyTuple_GetInteger(poArgs, 0, &iVID))

  00004	8d 45 fc	 lea	 eax, DWORD PTR _iVID$[ebp]
  00007	50		 push	 eax
  00008	6a 00		 push	 0
  0000a	ff 75 0c	 push	 DWORD PTR _poArgs$[ebp]
  0000d	e8 00 00 00 00	 call	 ?PyTuple_GetInteger@@YA_NPAU_object@@HPAH@Z ; PyTuple_GetInteger
  00012	83 c4 0c	 add	 esp, 12			; 0000000cH
  00015	84 c0		 test	 al, al
  00017	75 0e		 jne	 SHORT $LN2@playerIsCa

; 264  : 		return Py_BuildException();

  00019	6a 00		 push	 0
  0001b	e8 00 00 00 00	 call	 ?Py_BuildException@@YAPAU_object@@PBDZZ ; Py_BuildException
  00020	83 c4 04	 add	 esp, 4

; 267  : }

  00023	8b e5		 mov	 esp, ebp
  00025	5d		 pop	 ebp
  00026	c3		 ret	 0
$LN2@playerIsCa:

; 265  : 
; 266  : 	return Py_BuildValue("i", CPythonPlayer::Instance().IsCantFightInstance(iVID));

  00027	ff 75 fc	 push	 DWORD PTR _iVID$[ebp]
  0002a	8b 0d 00 00 00
	00		 mov	 ecx, DWORD PTR ?ms_singleton@?$CSingleton@VCPythonPlayer@@@@0PAVCPythonPlayer@@A ; CSingleton<CPythonPlayer>::ms_singleton
  00030	e8 00 00 00 00	 call	 ?IsCantFightInstance@CPythonPlayer@@QAE_NK@Z ; CPythonPlayer::IsCantFightInstance
  00035	0f b6 c0	 movzx	 eax, al
  00038	50		 push	 eax
  00039	68 00 00 00 00	 push	 OFFSET ??_C@_01KBJDNOO@i@
  0003e	ff 15 00 00 00
	00		 call	 DWORD PTR __imp__Py_BuildValue
  00044	83 c4 08	 add	 esp, 8

; 267  : }

  00047	8b e5		 mov	 esp, ebp
  00049	5d		 pop	 ebp
  0004a	c3		 ret	 0
?playerIsCantFightInstance@@YAPAU_object@@PAU1@0@Z ENDP	; playerIsCantFightInstance
_TEXT	ENDS
; Function compile flags: /Ogtp
; File D:\Metin2 Server Files\mainline\SRC_2014\Metin2Client\UserInterface\PythonPlayerModule.cpp
;	COMDAT ?playerIsRevengeInstance@@YAPAU_object@@PAU1@0@Z
_TEXT	SEGMENT
_iVID$ = -4						; size = 4
_poSelf$ = 8						; size = 4
_poArgs$ = 12						; size = 4
?playerIsRevengeInstance@@YAPAU_object@@PAU1@0@Z PROC	; playerIsRevengeInstance, COMDAT

; 252  : {

  00000	55		 push	 ebp
  00001	8b ec		 mov	 ebp, esp
  00003	51		 push	 ecx

; 253  : 	int iVID;
; 254  : 	if (!PyTuple_GetInteger(poArgs, 0, &iVID))

  00004	8d 45 fc	 lea	 eax, DWORD PTR _iVID$[ebp]
  00007	50		 push	 eax
  00008	6a 00		 push	 0
  0000a	ff 75 0c	 push	 DWORD PTR _poArgs$[ebp]
  0000d	e8 00 00 00 00	 call	 ?PyTuple_GetInteger@@YA_NPAU_object@@HPAH@Z ; PyTuple_GetInteger
  00012	83 c4 0c	 add	 esp, 12			; 0000000cH
  00015	84 c0		 test	 al, al
  00017	75 0e		 jne	 SHORT $LN2@playerIsRe

; 255  : 		return Py_BuildException();

  00019	6a 00		 push	 0
  0001b	e8 00 00 00 00	 call	 ?Py_BuildException@@YAPAU_object@@PBDZZ ; Py_BuildException
  00020	83 c4 04	 add	 esp, 4

; 258  : }

  00023	8b e5		 mov	 esp, ebp
  00025	5d		 pop	 ebp
  00026	c3		 ret	 0
$LN2@playerIsRe:

; 256  : 
; 257  : 	return Py_BuildValue("i", CPythonPlayer::Instance().IsRevengeInstance(iVID));

  00027	ff 75 fc	 push	 DWORD PTR _iVID$[ebp]
  0002a	8b 0d 00 00 00
	00		 mov	 ecx, DWORD PTR ?ms_singleton@?$CSingleton@VCPythonPlayer@@@@0PAVCPythonPlayer@@A ; CSingleton<CPythonPlayer>::ms_singleton
  00030	e8 00 00 00 00	 call	 ?IsRevengeInstance@CPythonPlayer@@QAE_NK@Z ; CPythonPlayer::IsRevengeInstance
  00035	0f b6 c0	 movzx	 eax, al
  00038	50		 push	 eax
  00039	68 00 00 00 00	 push	 OFFSET ??_C@_01KBJDNOO@i@
  0003e	ff 15 00 00 00
	00		 call	 DWORD PTR __imp__Py_BuildValue
  00044	83 c4 08	 add	 esp, 8

; 258  : }

  00047	8b e5		 mov	 esp, ebp
  00049	5d		 pop	 ebp
  0004a	c3		 ret	 0
?playerIsRevengeInstance@@YAPAU_object@@PAU1@0@Z ENDP	; playerIsRevengeInstance
_TEXT	ENDS
; Function compile flags: /Ogtp
; File D:\Metin2 Server Files\mainline\SRC_2014\Metin2Client\UserInterface\PythonPlayerModule.cpp
;	COMDAT ?playerIsChallengeInstance@@YAPAU_object@@PAU1@0@Z
_TEXT	SEGMENT
_iVID$ = -4						; size = 4
_poSelf$ = 8						; size = 4
_poArgs$ = 12						; size = 4
?playerIsChallengeInstance@@YAPAU_object@@PAU1@0@Z PROC	; playerIsChallengeInstance, COMDAT

; 243  : {

  00000	55		 push	 ebp
  00001	8b ec		 mov	 ebp, esp
  00003	51		 push	 ecx

; 244  : 	int iVID;
; 245  : 	if (!PyTuple_GetInteger(poArgs, 0, &iVID))

  00004	8d 45 fc	 lea	 eax, DWORD PTR _iVID$[ebp]
  00007	50		 push	 eax
  00008	6a 00		 push	 0
  0000a	ff 75 0c	 push	 DWORD PTR _poArgs$[ebp]
  0000d	e8 00 00 00 00	 call	 ?PyTuple_GetInteger@@YA_NPAU_object@@HPAH@Z ; PyTuple_GetInteger
  00012	83 c4 0c	 add	 esp, 12			; 0000000cH
  00015	84 c0		 test	 al, al
  00017	75 0e		 jne	 SHORT $LN2@playerIsCh

; 246  : 		return Py_BuildException();

  00019	6a 00		 push	 0
  0001b	e8 00 00 00 00	 call	 ?Py_BuildException@@YAPAU_object@@PBDZZ ; Py_BuildException
  00020	83 c4 04	 add	 esp, 4

; 249  : }

  00023	8b e5		 mov	 esp, ebp
  00025	5d		 pop	 ebp
  00026	c3		 ret	 0
$LN2@playerIsCh:

; 247  : 
; 248  : 	return Py_BuildValue("i", CPythonPlayer::Instance().IsChallengeInstance(iVID));

  00027	ff 75 fc	 push	 DWORD PTR _iVID$[ebp]
  0002a	8b 0d 00 00 00
	00		 mov	 ecx, DWORD PTR ?ms_singleton@?$CSingleton@VCPythonPlayer@@@@0PAVCPythonPlayer@@A ; CSingleton<CPythonPlayer>::ms_singleton
  00030	e8 00 00 00 00	 call	 ?IsChallengeInstance@CPythonPlayer@@QAE_NK@Z ; CPythonPlayer::IsChallengeInstance
  00035	0f b6 c0	 movzx	 eax, al
  00038	50		 push	 eax
  00039	68 00 00 00 00	 push	 OFFSET ??_C@_01KBJDNOO@i@
  0003e	ff 15 00 00 00
	00		 call	 DWORD PTR __imp__Py_BuildValue
  00044	83 c4 08	 add	 esp, 8

; 249  : }

  00047	8b e5		 mov	 esp, ebp
  00049	5d		 pop	 ebp
  0004a	c3		 ret	 0
?playerIsChallengeInstance@@YAPAU_object@@PAU1@0@Z ENDP	; playerIsChallengeInstance
_TEXT	ENDS
; Function compile flags: /Ogtp
; File D:\Metin2 Server Files\mainline\SRC_2014\Metin2Client\UserInterface\PythonPlayerModule.cpp
;	COMDAT ?playerIsSameEmpire@@YAPAU_object@@PAU1@0@Z
_TEXT	SEGMENT
_iVID$ = -4						; size = 4
_poSelf$ = 8						; size = 4
_poArgs$ = 12						; size = 4
?playerIsSameEmpire@@YAPAU_object@@PAU1@0@Z PROC	; playerIsSameEmpire, COMDAT

; 227  : {

  00000	55		 push	 ebp
  00001	8b ec		 mov	 ebp, esp
  00003	51		 push	 ecx

; 228  : 	int iVID;
; 229  : 	if (!PyTuple_GetInteger(poArgs, 0, &iVID))

  00004	8d 45 fc	 lea	 eax, DWORD PTR _iVID$[ebp]
  00007	50		 push	 eax
  00008	6a 00		 push	 0
  0000a	ff 75 0c	 push	 DWORD PTR _poArgs$[ebp]
  0000d	e8 00 00 00 00	 call	 ?PyTuple_GetInteger@@YA_NPAU_object@@HPAH@Z ; PyTuple_GetInteger
  00012	83 c4 0c	 add	 esp, 12			; 0000000cH
  00015	84 c0		 test	 al, al
  00017	75 0e		 jne	 SHORT $LN2@playerIsSa

; 230  : 		return Py_BuildException();

  00019	6a 00		 push	 0
  0001b	e8 00 00 00 00	 call	 ?Py_BuildException@@YAPAU_object@@PBDZZ ; Py_BuildException
  00020	83 c4 04	 add	 esp, 4

; 240  : }

  00023	8b e5		 mov	 esp, ebp
  00025	5d		 pop	 ebp
  00026	c3		 ret	 0
$LN2@playerIsSa:

; 231  : 
; 232  : 	CInstanceBase * pMainInstance = CPythonPlayer::Instance().NEW_GetMainActorPtr();

  00027	8b 0d 00 00 00
	00		 mov	 ecx, DWORD PTR ?ms_singleton@?$CSingleton@VCPythonPlayer@@@@0PAVCPythonPlayer@@A ; CSingleton<CPythonPlayer>::ms_singleton
  0002d	83 c1 04	 add	 ecx, 4
  00030	56		 push	 esi
  00031	8b 01		 mov	 eax, DWORD PTR [ecx]
  00033	ff 90 88 00 00
	00		 call	 DWORD PTR [eax+136]

; 233  : 	CInstanceBase * pTargetInstance = CPythonCharacterManager::Instance().GetInstancePtr(iVID);

  00039	8b 0d 00 00 00
	00		 mov	 ecx, DWORD PTR ?ms_singleton@?$CSingleton@VCPythonCharacterManager@@@@0PAVCPythonCharacterManager@@A ; CSingleton<CPythonCharacterManager>::ms_singleton
  0003f	8b f0		 mov	 esi, eax
  00041	ff 75 fc	 push	 DWORD PTR _iVID$[ebp]
  00044	83 c1 04	 add	 ecx, 4
  00047	8b 11		 mov	 edx, DWORD PTR [ecx]
  00049	ff 52 08	 call	 DWORD PTR [edx+8]

; 234  : 	if (!pMainInstance)

  0004c	85 f6		 test	 esi, esi
  0004e	75 15		 jne	 SHORT $LN3@playerIsSa
$LN8@playerIsSa:

; 237  : 		return Py_BuildValue("i", FALSE);
; 238  : 
; 239  : 	return Py_BuildValue("i", pMainInstance->IsSameEmpire(*pTargetInstance));

  00050	6a 00		 push	 0
  00052	68 00 00 00 00	 push	 OFFSET ??_C@_01KBJDNOO@i@
  00057	ff 15 00 00 00
	00		 call	 DWORD PTR __imp__Py_BuildValue
  0005d	83 c4 08	 add	 esp, 8
  00060	5e		 pop	 esi

; 240  : }

  00061	8b e5		 mov	 esp, ebp
  00063	5d		 pop	 ebp
  00064	c3		 ret	 0
$LN3@playerIsSa:

; 235  : 		return Py_BuildValue("i", FALSE);
; 236  : 	if (!pTargetInstance)

  00065	85 c0		 test	 eax, eax
  00067	74 e7		 je	 SHORT $LN8@playerIsSa

; 237  : 		return Py_BuildValue("i", FALSE);
; 238  : 
; 239  : 	return Py_BuildValue("i", pMainInstance->IsSameEmpire(*pTargetInstance));

  00069	50		 push	 eax
  0006a	8b ce		 mov	 ecx, esi
  0006c	e8 00 00 00 00	 call	 ?IsSameEmpire@CInstanceBase@@QAEHAAV1@@Z ; CInstanceBase::IsSameEmpire
  00071	50		 push	 eax
  00072	68 00 00 00 00	 push	 OFFSET ??_C@_01KBJDNOO@i@
  00077	ff 15 00 00 00
	00		 call	 DWORD PTR __imp__Py_BuildValue
  0007d	83 c4 08	 add	 esp, 8
  00080	5e		 pop	 esi

; 240  : }

  00081	8b e5		 mov	 esp, ebp
  00083	5d		 pop	 ebp
  00084	c3		 ret	 0
?playerIsSameEmpire@@YAPAU_object@@PAU1@0@Z ENDP	; playerIsSameEmpire
_TEXT	ENDS
; Function compile flags: /Ogtp
; File D:\Metin2 Server Files\mainline\SRC_2014\Metin2Client\UserInterface\PythonPlayerModule.cpp
;	COMDAT ?playerIsPVPInstance@@YAPAU_object@@PAU1@0@Z
_TEXT	SEGMENT
_iVID$ = -4						; size = 4
_poSelf$ = 8						; size = 4
_poArgs$ = 12						; size = 4
?playerIsPVPInstance@@YAPAU_object@@PAU1@0@Z PROC	; playerIsPVPInstance, COMDAT

; 211  : {

  00000	55		 push	 ebp
  00001	8b ec		 mov	 ebp, esp
  00003	51		 push	 ecx

; 212  : 	int iVID;
; 213  : 	if (!PyTuple_GetInteger(poArgs, 0, &iVID))

  00004	8d 45 fc	 lea	 eax, DWORD PTR _iVID$[ebp]
  00007	50		 push	 eax
  00008	6a 00		 push	 0
  0000a	ff 75 0c	 push	 DWORD PTR _poArgs$[ebp]
  0000d	e8 00 00 00 00	 call	 ?PyTuple_GetInteger@@YA_NPAU_object@@HPAH@Z ; PyTuple_GetInteger
  00012	83 c4 0c	 add	 esp, 12			; 0000000cH
  00015	84 c0		 test	 al, al
  00017	75 0e		 jne	 SHORT $LN2@playerIsPV

; 214  : 		return Py_BuildException();

  00019	6a 00		 push	 0
  0001b	e8 00 00 00 00	 call	 ?Py_BuildException@@YAPAU_object@@PBDZZ ; Py_BuildException
  00020	83 c4 04	 add	 esp, 4

; 224  : }

  00023	8b e5		 mov	 esp, ebp
  00025	5d		 pop	 ebp
  00026	c3		 ret	 0
$LN2@playerIsPV:

; 215  : 
; 216  : 	CInstanceBase * pMainInstance = CPythonPlayer::Instance().NEW_GetMainActorPtr();

  00027	8b 0d 00 00 00
	00		 mov	 ecx, DWORD PTR ?ms_singleton@?$CSingleton@VCPythonPlayer@@@@0PAVCPythonPlayer@@A ; CSingleton<CPythonPlayer>::ms_singleton
  0002d	83 c1 04	 add	 ecx, 4
  00030	56		 push	 esi
  00031	8b 01		 mov	 eax, DWORD PTR [ecx]
  00033	ff 90 88 00 00
	00		 call	 DWORD PTR [eax+136]

; 217  : 	CInstanceBase * pTargetInstance = CPythonCharacterManager::Instance().GetInstancePtr(iVID);

  00039	8b 0d 00 00 00
	00		 mov	 ecx, DWORD PTR ?ms_singleton@?$CSingleton@VCPythonCharacterManager@@@@0PAVCPythonCharacterManager@@A ; CSingleton<CPythonCharacterManager>::ms_singleton
  0003f	8b f0		 mov	 esi, eax
  00041	ff 75 fc	 push	 DWORD PTR _iVID$[ebp]
  00044	83 c1 04	 add	 ecx, 4
  00047	8b 11		 mov	 edx, DWORD PTR [ecx]
  00049	ff 52 08	 call	 DWORD PTR [edx+8]

; 218  : 	if (!pMainInstance)

  0004c	85 f6		 test	 esi, esi
  0004e	75 15		 jne	 SHORT $LN3@playerIsPV
$LN8@playerIsPV:

; 221  : 		return Py_BuildValue("i", 0);
; 222  : 
; 223  : 	return Py_BuildValue("i", pMainInstance->IsPVPInstance(*pTargetInstance));

  00050	6a 00		 push	 0
  00052	68 00 00 00 00	 push	 OFFSET ??_C@_01KBJDNOO@i@
  00057	ff 15 00 00 00
	00		 call	 DWORD PTR __imp__Py_BuildValue
  0005d	83 c4 08	 add	 esp, 8
  00060	5e		 pop	 esi

; 224  : }

  00061	8b e5		 mov	 esp, ebp
  00063	5d		 pop	 ebp
  00064	c3		 ret	 0
$LN3@playerIsPV:

; 219  : 		return Py_BuildValue("i", 0);
; 220  : 	if (!pTargetInstance)

  00065	85 c0		 test	 eax, eax
  00067	74 e7		 je	 SHORT $LN8@playerIsPV

; 221  : 		return Py_BuildValue("i", 0);
; 222  : 
; 223  : 	return Py_BuildValue("i", pMainInstance->IsPVPInstance(*pTargetInstance));

  00069	50		 push	 eax
  0006a	8b ce		 mov	 ecx, esi
  0006c	e8 00 00 00 00	 call	 ?IsPVPInstance@CInstanceBase@@QAE_NAAV1@@Z ; CInstanceBase::IsPVPInstance
  00071	0f b6 c0	 movzx	 eax, al
  00074	50		 push	 eax
  00075	68 00 00 00 00	 push	 OFFSET ??_C@_01KBJDNOO@i@
  0007a	ff 15 00 00 00
	00		 call	 DWORD PTR __imp__Py_BuildValue
  00080	83 c4 08	 add	 esp, 8
  00083	5e		 pop	 esi

; 224  : }

  00084	8b e5		 mov	 esp, ebp
  00086	5d		 pop	 ebp
  00087	c3		 ret	 0
?playerIsPVPInstance@@YAPAU_object@@PAU1@0@Z ENDP	; playerIsPVPInstance
_TEXT	ENDS
; Function compile flags: /Ogtp
; File D:\Metin2 Server Files\mainline\SRC_2014\Metin2Client\UserInterface\PythonPlayerModule.cpp
;	COMDAT ?playerIsActingEmotion@@YAPAU_object@@PAU1@0@Z
_TEXT	SEGMENT
_poSelf$ = 8						; size = 4
_poArgs$ = 12						; size = 4
?playerIsActingEmotion@@YAPAU_object@@PAU1@0@Z PROC	; playerIsActingEmotion, COMDAT

; 203  : 	CInstanceBase * pMainInstance = CPythonPlayer::Instance().NEW_GetMainActorPtr();

  00000	8b 0d 00 00 00
	00		 mov	 ecx, DWORD PTR ?ms_singleton@?$CSingleton@VCPythonPlayer@@@@0PAVCPythonPlayer@@A ; CSingleton<CPythonPlayer>::ms_singleton
  00006	83 c1 04	 add	 ecx, 4
  00009	8b 01		 mov	 eax, DWORD PTR [ecx]
  0000b	ff 90 88 00 00
	00		 call	 DWORD PTR [eax+136]

; 204  : 	if (!pMainInstance)

  00011	85 c0		 test	 eax, eax
  00013	75 10		 jne	 SHORT $LN2@playerIsAc

; 205  : 		return Py_BuildValue("i", 0);

  00015	50		 push	 eax

; 208  : }

  00016	68 00 00 00 00	 push	 OFFSET ??_C@_01KBJDNOO@i@
  0001b	ff 15 00 00 00
	00		 call	 DWORD PTR __imp__Py_BuildValue
  00021	83 c4 08	 add	 esp, 8
  00024	c3		 ret	 0
$LN2@playerIsAc:

; 206  : 
; 207  : 	return Py_BuildValue("i", pMainInstance->IsActingEmotion());

  00025	8b c8		 mov	 ecx, eax
  00027	e8 00 00 00 00	 call	 ?IsActingEmotion@CInstanceBase@@QAEHXZ ; CInstanceBase::IsActingEmotion
  0002c	50		 push	 eax

; 208  : }

  0002d	68 00 00 00 00	 push	 OFFSET ??_C@_01KBJDNOO@i@
  00032	ff 15 00 00 00
	00		 call	 DWORD PTR __imp__Py_BuildValue
  00038	83 c4 08	 add	 esp, 8
  0003b	c3		 ret	 0
?playerIsActingEmotion@@YAPAU_object@@PAU1@0@Z ENDP	; playerIsActingEmotion
_TEXT	ENDS
; Function compile flags: /Ogtp
; File D:\Metin2 Server Files\mainline\SRC_2014\Metin2Client\UserInterface\PythonPlayerModule.cpp
;	COMDAT ?playerCanAttackInstance@@YAPAU_object@@PAU1@0@Z
_TEXT	SEGMENT
_iVID$ = -4						; size = 4
_poSelf$ = 8						; size = 4
_poArgs$ = 12						; size = 4
?playerCanAttackInstance@@YAPAU_object@@PAU1@0@Z PROC	; playerCanAttackInstance, COMDAT

; 186  : {

  00000	55		 push	 ebp
  00001	8b ec		 mov	 ebp, esp
  00003	51		 push	 ecx

; 187  : 	int iVID;
; 188  : 	if (!PyTuple_GetInteger(poArgs, 0, &iVID))

  00004	8d 45 fc	 lea	 eax, DWORD PTR _iVID$[ebp]
  00007	50		 push	 eax
  00008	6a 00		 push	 0
  0000a	ff 75 0c	 push	 DWORD PTR _poArgs$[ebp]
  0000d	e8 00 00 00 00	 call	 ?PyTuple_GetInteger@@YA_NPAU_object@@HPAH@Z ; PyTuple_GetInteger
  00012	83 c4 0c	 add	 esp, 12			; 0000000cH
  00015	84 c0		 test	 al, al
  00017	75 0e		 jne	 SHORT $LN2@playerCanA

; 189  : 		return Py_BuildException();

  00019	6a 00		 push	 0
  0001b	e8 00 00 00 00	 call	 ?Py_BuildException@@YAPAU_object@@PBDZZ ; Py_BuildException
  00020	83 c4 04	 add	 esp, 4

; 199  : }

  00023	8b e5		 mov	 esp, ebp
  00025	5d		 pop	 ebp
  00026	c3		 ret	 0
$LN2@playerCanA:

; 190  : 
; 191  : 	CInstanceBase * pMainInstance = CPythonPlayer::Instance().NEW_GetMainActorPtr();

  00027	8b 0d 00 00 00
	00		 mov	 ecx, DWORD PTR ?ms_singleton@?$CSingleton@VCPythonPlayer@@@@0PAVCPythonPlayer@@A ; CSingleton<CPythonPlayer>::ms_singleton
  0002d	83 c1 04	 add	 ecx, 4
  00030	56		 push	 esi
  00031	8b 01		 mov	 eax, DWORD PTR [ecx]
  00033	ff 90 88 00 00
	00		 call	 DWORD PTR [eax+136]

; 192  : 	CInstanceBase * pTargetInstance = CPythonCharacterManager::Instance().GetInstancePtr(iVID);

  00039	8b 0d 00 00 00
	00		 mov	 ecx, DWORD PTR ?ms_singleton@?$CSingleton@VCPythonCharacterManager@@@@0PAVCPythonCharacterManager@@A ; CSingleton<CPythonCharacterManager>::ms_singleton
  0003f	8b f0		 mov	 esi, eax
  00041	ff 75 fc	 push	 DWORD PTR _iVID$[ebp]
  00044	83 c1 04	 add	 ecx, 4
  00047	8b 11		 mov	 edx, DWORD PTR [ecx]
  00049	ff 52 08	 call	 DWORD PTR [edx+8]

; 193  : 	if (!pMainInstance)

  0004c	85 f6		 test	 esi, esi
  0004e	75 15		 jne	 SHORT $LN3@playerCanA
$LN8@playerCanA:

; 196  : 		return Py_BuildValue("i", 0);
; 197  : 
; 198  : 	return Py_BuildValue("i", pMainInstance->IsAttackableInstance(*pTargetInstance));

  00050	6a 00		 push	 0
  00052	68 00 00 00 00	 push	 OFFSET ??_C@_01KBJDNOO@i@
  00057	ff 15 00 00 00
	00		 call	 DWORD PTR __imp__Py_BuildValue
  0005d	83 c4 08	 add	 esp, 8
  00060	5e		 pop	 esi

; 199  : }

  00061	8b e5		 mov	 esp, ebp
  00063	5d		 pop	 ebp
  00064	c3		 ret	 0
$LN3@playerCanA:

; 194  : 		return Py_BuildValue("i", 0);
; 195  : 	if (!pTargetInstance)

  00065	85 c0		 test	 eax, eax
  00067	74 e7		 je	 SHORT $LN8@playerCanA

; 196  : 		return Py_BuildValue("i", 0);
; 197  : 
; 198  : 	return Py_BuildValue("i", pMainInstance->IsAttackableInstance(*pTargetInstance));

  00069	50		 push	 eax
  0006a	8b ce		 mov	 ecx, esi
  0006c	e8 00 00 00 00	 call	 ?IsAttackableInstance@CInstanceBase@@QAE_NAAV1@@Z ; CInstanceBase::IsAttackableInstance
  00071	0f b6 c0	 movzx	 eax, al
  00074	50		 push	 eax
  00075	68 00 00 00 00	 push	 OFFSET ??_C@_01KBJDNOO@i@
  0007a	ff 15 00 00 00
	00		 call	 DWORD PTR __imp__Py_BuildValue
  00080	83 c4 08	 add	 esp, 8
  00083	5e		 pop	 esi

; 199  : }

  00084	8b e5		 mov	 esp, ebp
  00086	5d		 pop	 ebp
  00087	c3		 ret	 0
?playerCanAttackInstance@@YAPAU_object@@PAU1@0@Z ENDP	; playerCanAttackInstance
_TEXT	ENDS
; Function compile flags: /Ogtp
; File D:\Metin2 Server Files\mainline\SRC_2014\Metin2Client\UserInterface\PythonPlayerModule.cpp
;	COMDAT ?playerIsMainCharacterIndex@@YAPAU_object@@PAU1@0@Z
_TEXT	SEGMENT
_iVID$ = -4						; size = 4
_poSelf$ = 8						; size = 4
_poArgs$ = 12						; size = 4
?playerIsMainCharacterIndex@@YAPAU_object@@PAU1@0@Z PROC ; playerIsMainCharacterIndex, COMDAT

; 177  : {

  00000	55		 push	 ebp
  00001	8b ec		 mov	 ebp, esp
  00003	51		 push	 ecx

; 178  : 	int iVID;
; 179  : 	if (!PyTuple_GetInteger(poArgs, 0, &iVID))

  00004	8d 45 fc	 lea	 eax, DWORD PTR _iVID$[ebp]
  00007	50		 push	 eax
  00008	6a 00		 push	 0
  0000a	ff 75 0c	 push	 DWORD PTR _poArgs$[ebp]
  0000d	e8 00 00 00 00	 call	 ?PyTuple_GetInteger@@YA_NPAU_object@@HPAH@Z ; PyTuple_GetInteger
  00012	83 c4 0c	 add	 esp, 12			; 0000000cH
  00015	84 c0		 test	 al, al
  00017	75 0e		 jne	 SHORT $LN2@playerIsMa

; 180  : 		return Py_BuildException();

  00019	6a 00		 push	 0
  0001b	e8 00 00 00 00	 call	 ?Py_BuildException@@YAPAU_object@@PBDZZ ; Py_BuildException
  00020	83 c4 04	 add	 esp, 4

; 183  : }

  00023	8b e5		 mov	 esp, ebp
  00025	5d		 pop	 ebp
  00026	c3		 ret	 0
$LN2@playerIsMa:

; 181  : 
; 182  : 	return Py_BuildValue("i", CPythonPlayer::Instance().IsMainCharacterIndex(iVID));

  00027	8b 0d 00 00 00
	00		 mov	 ecx, DWORD PTR ?ms_singleton@?$CSingleton@VCPythonPlayer@@@@0PAVCPythonPlayer@@A ; CSingleton<CPythonPlayer>::ms_singleton
  0002d	ff 75 fc	 push	 DWORD PTR _iVID$[ebp]
  00030	83 c1 04	 add	 ecx, 4
  00033	8b 01		 mov	 eax, DWORD PTR [ecx]
  00035	8b 40 0c	 mov	 eax, DWORD PTR [eax+12]
  00038	ff d0		 call	 eax
  0003a	0f b6 c0	 movzx	 eax, al
  0003d	50		 push	 eax
  0003e	68 00 00 00 00	 push	 OFFSET ??_C@_01KBJDNOO@i@
  00043	ff 15 00 00 00
	00		 call	 DWORD PTR __imp__Py_BuildValue
  00049	83 c4 08	 add	 esp, 8

; 183  : }

  0004c	8b e5		 mov	 esp, ebp
  0004e	5d		 pop	 ebp
  0004f	c3		 ret	 0
?playerIsMainCharacterIndex@@YAPAU_object@@PAU1@0@Z ENDP ; playerIsMainCharacterIndex
_TEXT	ENDS
; Function compile flags: /Ogtp
; File D:\Metin2 Server Files\mainline\SRC_2014\Metin2Client\UserInterface\PythonPlayerModule.cpp
;	COMDAT ?playerGetMainCharacterPosition@@YAPAU_object@@PAU1@0@Z
_TEXT	SEGMENT
_kPPosMainActor$ = -16					; size = 12
__$ArrayPad$ = -4					; size = 4
_poSelf$ = 8						; size = 4
_poArgs$ = 12						; size = 4
?playerGetMainCharacterPosition@@YAPAU_object@@PAU1@0@Z PROC ; playerGetMainCharacterPosition, COMDAT

; 169  : {

  00000	55		 push	 ebp
  00001	8b ec		 mov	 ebp, esp
  00003	83 ec 10	 sub	 esp, 16			; 00000010H
  00006	a1 00 00 00 00	 mov	 eax, DWORD PTR ___security_cookie
  0000b	33 c5		 xor	 eax, ebp
  0000d	89 45 fc	 mov	 DWORD PTR __$ArrayPad$[ebp], eax

; 170  : 	TPixelPosition kPPosMainActor;
; 171  : 	CPythonPlayer & rkPlayer = CPythonPlayer::Instance();
; 172  : 	rkPlayer.NEW_GetMainActorPosition(&kPPosMainActor);

  00010	8b 0d 00 00 00
	00		 mov	 ecx, DWORD PTR ?ms_singleton@?$CSingleton@VCPythonPlayer@@@@0PAVCPythonPlayer@@A ; CSingleton<CPythonPlayer>::ms_singleton
  00016	8d 45 f0	 lea	 eax, DWORD PTR _kPPosMainActor$[ebp]
  00019	50		 push	 eax
  0001a	e8 00 00 00 00	 call	 ?NEW_GetMainActorPosition@CPythonPlayer@@QAEXPAUD3DXVECTOR3@@@Z ; CPythonPlayer::NEW_GetMainActorPosition
  0001f	f3 0f 10 45 f8	 movss	 xmm0, DWORD PTR _kPPosMainActor$[ebp+8]

; 173  : 	return Py_BuildValue("fff", kPPosMainActor.x, kPPosMainActor.y, kPPosMainActor.z);

  00024	83 ec 18	 sub	 esp, 24			; 00000018H
  00027	0f 5a c0	 cvtps2pd xmm0, xmm0
  0002a	f2 0f 11 44 24
	10		 movsd	 QWORD PTR [esp+16], xmm0
  00030	f3 0f 10 45 f4	 movss	 xmm0, DWORD PTR _kPPosMainActor$[ebp+4]
  00035	0f 5a c0	 cvtps2pd xmm0, xmm0
  00038	f2 0f 11 44 24
	08		 movsd	 QWORD PTR [esp+8], xmm0
  0003e	f3 0f 10 45 f0	 movss	 xmm0, DWORD PTR _kPPosMainActor$[ebp]
  00043	0f 5a c0	 cvtps2pd xmm0, xmm0
  00046	f2 0f 11 04 24	 movsd	 QWORD PTR [esp], xmm0
  0004b	68 00 00 00 00	 push	 OFFSET ??_C@_03LPALPDIP@fff@
  00050	ff 15 00 00 00
	00		 call	 DWORD PTR __imp__Py_BuildValue

; 174  : }

  00056	8b 4d fc	 mov	 ecx, DWORD PTR __$ArrayPad$[ebp]
  00059	83 c4 1c	 add	 esp, 28			; 0000001cH
  0005c	33 cd		 xor	 ecx, ebp
  0005e	e8 00 00 00 00	 call	 @__security_check_cookie@4
  00063	8b e5		 mov	 esp, ebp
  00065	5d		 pop	 ebp
  00066	c3		 ret	 0
?playerGetMainCharacterPosition@@YAPAU_object@@PAU1@0@Z ENDP ; playerGetMainCharacterPosition
_TEXT	ENDS
; Function compile flags: /Ogtp
; File D:\Metin2 Server Files\mainline\SRC_2014\Metin2Client\UserInterface\PythonPlayerModule.cpp
;	COMDAT ?playerGetMainCharacterName@@YAPAU_object@@PAU1@0@Z
_TEXT	SEGMENT
_poSelf$ = 8						; size = 4
_poArgs$ = 12						; size = 4
?playerGetMainCharacterName@@YAPAU_object@@PAU1@0@Z PROC ; playerGetMainCharacterName, COMDAT

; 165  : 	return Py_BuildValue("s", CPythonPlayer::Instance().GetName());

  00000	8b 0d 00 00 00
	00		 mov	 ecx, DWORD PTR ?ms_singleton@?$CSingleton@VCPythonPlayer@@@@0PAVCPythonPlayer@@A ; CSingleton<CPythonPlayer>::ms_singleton
  00006	83 c1 04	 add	 ecx, 4
  00009	8b 01		 mov	 eax, DWORD PTR [ecx]
  0000b	ff 50 14	 call	 DWORD PTR [eax+20]
  0000e	50		 push	 eax
  0000f	68 00 00 00 00	 push	 OFFSET ??_C@_01LKDEMHDF@s@
  00014	ff 15 00 00 00
	00		 call	 DWORD PTR __imp__Py_BuildValue
  0001a	83 c4 08	 add	 esp, 8

; 166  : }

  0001d	c3		 ret	 0
?playerGetMainCharacterName@@YAPAU_object@@PAU1@0@Z ENDP ; playerGetMainCharacterName
_TEXT	ENDS
; Function compile flags: /Ogtp
; File D:\Metin2 Server Files\mainline\SRC_2014\Metin2Client\UserInterface\PythonPlayerModule.cpp
;	COMDAT ?playerGetMainCharacterIndex@@YAPAU_object@@PAU1@0@Z
_TEXT	SEGMENT
_poSelf$ = 8						; size = 4
_poArgs$ = 12						; size = 4
?playerGetMainCharacterIndex@@YAPAU_object@@PAU1@0@Z PROC ; playerGetMainCharacterIndex, COMDAT

; 160  : 	return Py_BuildValue("i", CPythonPlayer::Instance().GetMainCharacterIndex());

  00000	8b 0d 00 00 00
	00		 mov	 ecx, DWORD PTR ?ms_singleton@?$CSingleton@VCPythonPlayer@@@@0PAVCPythonPlayer@@A ; CSingleton<CPythonPlayer>::ms_singleton
  00006	83 c1 04	 add	 ecx, 4
  00009	8b 01		 mov	 eax, DWORD PTR [ecx]
  0000b	ff 50 04	 call	 DWORD PTR [eax+4]
  0000e	50		 push	 eax
  0000f	68 00 00 00 00	 push	 OFFSET ??_C@_01KBJDNOO@i@
  00014	ff 15 00 00 00
	00		 call	 DWORD PTR __imp__Py_BuildValue
  0001a	83 c4 08	 add	 esp, 8

; 161  : }

  0001d	c3		 ret	 0
?playerGetMainCharacterIndex@@YAPAU_object@@PAU1@0@Z ENDP ; playerGetMainCharacterIndex
_TEXT	ENDS
; Function compile flags: /Ogtp
; File D:\Metin2 Server Files\mainline\SRC_2014\Metin2Client\UserInterface\PythonPlayerModule.cpp
;	COMDAT ?playerSetMainCharacterIndex@@YAPAU_object@@PAU1@0@Z
_TEXT	SEGMENT
_iVID$ = -4						; size = 4
_poSelf$ = 8						; size = 4
_poArgs$ = 12						; size = 4
?playerSetMainCharacterIndex@@YAPAU_object@@PAU1@0@Z PROC ; playerSetMainCharacterIndex, COMDAT

; 146  : {

  00000	55		 push	 ebp
  00001	8b ec		 mov	 ebp, esp
  00003	51		 push	 ecx

; 147  : 	int iVID;
; 148  : 	if (!PyTuple_GetInteger(poArgs, 0, &iVID))

  00004	8d 45 fc	 lea	 eax, DWORD PTR _iVID$[ebp]
  00007	50		 push	 eax
  00008	6a 00		 push	 0
  0000a	ff 75 0c	 push	 DWORD PTR _poArgs$[ebp]
  0000d	e8 00 00 00 00	 call	 ?PyTuple_GetInteger@@YA_NPAU_object@@HPAH@Z ; PyTuple_GetInteger
  00012	83 c4 0c	 add	 esp, 12			; 0000000cH
  00015	84 c0		 test	 al, al
  00017	75 0e		 jne	 SHORT $LN2@playerSetM

; 149  : 		return Py_BuildException();

  00019	6a 00		 push	 0
  0001b	e8 00 00 00 00	 call	 ?Py_BuildException@@YAPAU_object@@PBDZZ ; Py_BuildException
  00020	83 c4 04	 add	 esp, 4

; 155  : }

  00023	8b e5		 mov	 esp, ebp
  00025	5d		 pop	 ebp
  00026	c3		 ret	 0
$LN2@playerSetM:

; 150  : 
; 151  : 	CPythonPlayer::Instance().SetMainCharacterIndex(iVID);

  00027	8b 0d 00 00 00
	00		 mov	 ecx, DWORD PTR ?ms_singleton@?$CSingleton@VCPythonPlayer@@@@0PAVCPythonPlayer@@A ; CSingleton<CPythonPlayer>::ms_singleton
  0002d	ff 75 fc	 push	 DWORD PTR _iVID$[ebp]
  00030	83 c1 04	 add	 ecx, 4
  00033	8b 01		 mov	 eax, DWORD PTR [ecx]
  00035	ff 50 08	 call	 DWORD PTR [eax+8]

; 152  : 	CPythonCharacterManager::Instance().SetMainInstance(iVID);

  00038	ff 75 fc	 push	 DWORD PTR _iVID$[ebp]
  0003b	8b 0d 00 00 00
	00		 mov	 ecx, DWORD PTR ?ms_singleton@?$CSingleton@VCPythonCharacterManager@@@@0PAVCPythonCharacterManager@@A ; CSingleton<CPythonCharacterManager>::ms_singleton
  00041	e8 00 00 00 00	 call	 ?SetMainInstance@CPythonCharacterManager@@QAE_NK@Z ; CPythonCharacterManager::SetMainInstance

; 153  : 
; 154  : 	return Py_BuildNone();

  00046	e8 00 00 00 00	 call	 ?Py_BuildNone@@YAPAU_object@@XZ ; Py_BuildNone

; 155  : }

  0004b	8b e5		 mov	 esp, ebp
  0004d	5d		 pop	 ebp
  0004e	c3		 ret	 0
?playerSetMainCharacterIndex@@YAPAU_object@@PAU1@0@Z ENDP ; playerSetMainCharacterIndex
_TEXT	ENDS
; Function compile flags: /Ogtp
; File D:\Metin2 Server Files\mainline\SRC_2014\Metin2Client\UserInterface\PythonPlayerModule.cpp
;	COMDAT ?playerSetQuickCameraMode@@YAPAU_object@@PAU1@0@Z
_TEXT	SEGMENT
_nIsEnable$ = -4					; size = 4
_poSelf$ = 8						; size = 4
_poArgs$ = 12						; size = 4
?playerSetQuickCameraMode@@YAPAU_object@@PAU1@0@Z PROC	; playerSetQuickCameraMode, COMDAT

; 133  : {

  00000	55		 push	 ebp
  00001	8b ec		 mov	 ebp, esp
  00003	51		 push	 ecx

; 134  : 	int nIsEnable;
; 135  : 	if (!PyTuple_GetInteger(poArgs, 0, &nIsEnable))

  00004	8d 45 fc	 lea	 eax, DWORD PTR _nIsEnable$[ebp]
  00007	50		 push	 eax
  00008	6a 00		 push	 0
  0000a	ff 75 0c	 push	 DWORD PTR _poArgs$[ebp]
  0000d	e8 00 00 00 00	 call	 ?PyTuple_GetInteger@@YA_NPAU_object@@HPAH@Z ; PyTuple_GetInteger
  00012	83 c4 0c	 add	 esp, 12			; 0000000cH
  00015	84 c0		 test	 al, al
  00017	75 09		 jne	 SHORT $LN2@playerSetQ

; 136  : 		return Py_BadArgument();

  00019	e8 00 00 00 00	 call	 ?Py_BadArgument@@YAPAU_object@@XZ ; Py_BadArgument

; 142  : }

  0001e	8b e5		 mov	 esp, ebp
  00020	5d		 pop	 ebp
  00021	c3		 ret	 0
$LN2@playerSetQ:

; 137  : 
; 138  : 	CPythonPlayer & rkPlayer = CPythonPlayer::Instance();
; 139  : 	rkPlayer.SetQuickCameraMode(nIsEnable ? true : false);	

  00022	83 7d fc 00	 cmp	 DWORD PTR _nIsEnable$[ebp], 0
  00026	8b 0d 00 00 00
	00		 mov	 ecx, DWORD PTR ?ms_singleton@?$CSingleton@VCPythonPlayer@@@@0PAVCPythonPlayer@@A ; CSingleton<CPythonPlayer>::ms_singleton
  0002c	0f 95 c0	 setne	 al
  0002f	0f b6 c0	 movzx	 eax, al
  00032	50		 push	 eax
  00033	e8 00 00 00 00	 call	 ?SetQuickCameraMode@CPythonPlayer@@QAEX_N@Z ; CPythonPlayer::SetQuickCameraMode

; 140  : 
; 141  : 	return Py_BuildNone();

  00038	e8 00 00 00 00	 call	 ?Py_BuildNone@@YAPAU_object@@XZ ; Py_BuildNone

; 142  : }

  0003d	8b e5		 mov	 esp, ebp
  0003f	5d		 pop	 ebp
  00040	c3		 ret	 0
?playerSetQuickCameraMode@@YAPAU_object@@PAU1@0@Z ENDP	; playerSetQuickCameraMode
_TEXT	ENDS
; Function compile flags: /Ogtp
; File D:\Metin2 Server Files\mainline\SRC_2014\Metin2Client\UserInterface\PythonPlayerModule.cpp
;	COMDAT ?playerSetGameWindow@@YAPAU_object@@PAU1@0@Z
_TEXT	SEGMENT
_pyHandle$ = -4						; size = 4
_poSelf$ = 8						; size = 4
_poArgs$ = 12						; size = 4
?playerSetGameWindow@@YAPAU_object@@PAU1@0@Z PROC	; playerSetGameWindow, COMDAT

; 121  : {

  00000	55		 push	 ebp
  00001	8b ec		 mov	 ebp, esp
  00003	51		 push	 ecx

; 122  : 	PyObject * pyHandle;
; 123  : 	if (!PyTuple_GetObject(poArgs, 0, &pyHandle))

  00004	8d 45 fc	 lea	 eax, DWORD PTR _pyHandle$[ebp]
  00007	50		 push	 eax
  00008	6a 00		 push	 0
  0000a	ff 75 0c	 push	 DWORD PTR _poArgs$[ebp]
  0000d	e8 00 00 00 00	 call	 ?PyTuple_GetObject@@YA_NPAU_object@@HPAPAU1@@Z ; PyTuple_GetObject
  00012	83 c4 0c	 add	 esp, 12			; 0000000cH
  00015	84 c0		 test	 al, al
  00017	75 09		 jne	 SHORT $LN2@playerSetG

; 124  : 		return Py_BadArgument();

  00019	e8 00 00 00 00	 call	 ?Py_BadArgument@@YAPAU_object@@XZ ; Py_BadArgument

; 129  : }

  0001e	8b e5		 mov	 esp, ebp
  00020	5d		 pop	 ebp
  00021	c3		 ret	 0
$LN2@playerSetG:

; 125  : 
; 126  : 	CPythonPlayer & rkPlayer = CPythonPlayer::Instance();
; 127  : 	rkPlayer.SetGameWindow(pyHandle);

  00022	ff 75 fc	 push	 DWORD PTR _pyHandle$[ebp]
  00025	8b 0d 00 00 00
	00		 mov	 ecx, DWORD PTR ?ms_singleton@?$CSingleton@VCPythonPlayer@@@@0PAVCPythonPlayer@@A ; CSingleton<CPythonPlayer>::ms_singleton
  0002b	e8 00 00 00 00	 call	 ?SetGameWindow@CPythonPlayer@@QAEXPAU_object@@@Z ; CPythonPlayer::SetGameWindow

; 128  : 	return Py_BuildNone();

  00030	e8 00 00 00 00	 call	 ?Py_BuildNone@@YAPAU_object@@XZ ; Py_BuildNone

; 129  : }

  00035	8b e5		 mov	 esp, ebp
  00037	5d		 pop	 ebp
  00038	c3		 ret	 0
?playerSetGameWindow@@YAPAU_object@@PAU1@0@Z ENDP	; playerSetGameWindow
_TEXT	ENDS
; Function compile flags: /Ogtp
; File D:\Metin2 Server Files\mainline\SRC_2014\Metin2Client\UserInterface\PythonPlayerModule.cpp
;	COMDAT ?playerPickCloseItem@@YAPAU_object@@PAU1@0@Z
_TEXT	SEGMENT
_poSelf$ = 8						; size = 4
_poArgs$ = 12						; size = 4
?playerPickCloseItem@@YAPAU_object@@PAU1@0@Z PROC	; playerPickCloseItem, COMDAT

; 115  : 	CPythonPlayer::Instance().PickCloseItem();

  00000	8b 0d 00 00 00
	00		 mov	 ecx, DWORD PTR ?ms_singleton@?$CSingleton@VCPythonPlayer@@@@0PAVCPythonPlayer@@A ; CSingleton<CPythonPlayer>::ms_singleton
  00006	e8 00 00 00 00	 call	 ?PickCloseItem@CPythonPlayer@@QAEXXZ ; CPythonPlayer::PickCloseItem

; 116  : 	return Py_BuildNone();

  0000b	e9 00 00 00 00	 jmp	 ?Py_BuildNone@@YAPAU_object@@XZ ; Py_BuildNone
?playerPickCloseItem@@YAPAU_object@@PAU1@0@Z ENDP	; playerPickCloseItem
_TEXT	ENDS
; Function compile flags: /Ogtp
;	COMDAT ??__Fm_kMap_iEmotionIndex_pkIconImage@@YAXXZ
text$yd	SEGMENT
??__Fm_kMap_iEmotionIndex_pkIconImage@@YAXXZ PROC	; `dynamic atexit destructor for 'm_kMap_iEmotionIndex_pkIconImage'', COMDAT
  00000	b9 00 00 00 00	 mov	 ecx, OFFSET ?m_kMap_iEmotionIndex_pkIconImage@@3V?$map@HPAVCGraphicImage@@U?$less@H@std@@V?$allocator@U?$pair@$$CBHPAVCGraphicImage@@@std@@@3@@std@@A ; m_kMap_iEmotionIndex_pkIconImage
  00005	e9 00 00 00 00	 jmp	 ??1?$_Tree@V?$_Tmap_traits@HPAVCGraphicImage@@U?$less@H@std@@V?$allocator@U?$pair@$$CBHPAVCGraphicImage@@@std@@@3@$0A@@std@@@std@@QAE@XZ ; std::_Tree<std::_Tmap_traits<int,CGraphicImage *,std::less<int>,std::allocator<std::pair<int const ,CGraphicImage *> >,0> >::~_Tree<std::_Tmap_traits<int,CGraphicImage *,std::less<int>,std::allocator<std::pair<int const ,CGraphicImage *> >,0> >
??__Fm_kMap_iEmotionIndex_pkIconImage@@YAXXZ ENDP	; `dynamic atexit destructor for 'm_kMap_iEmotionIndex_pkIconImage''
text$yd	ENDS
; Function compile flags: /Ogtp
; File D:\Metin2 Server Files\mainline\SRC_2014\Metin2Client\UserInterface\PythonPlayerModule.cpp
; File C:\Program Files (x86)\Microsoft Visual Studio\2019\Community\VC\Tools\MSVC\14.28.29333\include\xmemory
; File C:\Program Files (x86)\Microsoft Visual Studio\2019\Community\VC\Tools\MSVC\14.28.29333\include\xtree
; File D:\Metin2 Server Files\mainline\SRC_2014\Metin2Client\UserInterface\PythonPlayerModule.cpp
; File C:\Program Files (x86)\Microsoft Visual Studio\2019\Community\VC\Tools\MSVC\14.28.29333\include\xtree
; File D:\Metin2 Server Files\mainline\SRC_2014\Metin2Client\UserInterface\PythonPlayerModule.cpp
;	COMDAT ??__Em_kMap_iEmotionIndex_pkIconImage@@YAXXZ
text$di	SEGMENT
__Pnode$1 = -4						; size = 4
??__Em_kMap_iEmotionIndex_pkIconImage@@YAXXZ PROC	; `dynamic initializer for 'm_kMap_iEmotionIndex_pkIconImage'', COMDAT

; 45   : std::map<int, CGraphicImage *> m_kMap_iEmotionIndex_pkIconImage;

  00000	55		 push	 ebp
  00001	8b ec		 mov	 ebp, esp
  00003	51		 push	 ecx
; File C:\Program Files (x86)\Microsoft Visual Studio\2019\Community\VC\Tools\MSVC\14.28.29333\include\xmemory

; 814  :         return static_cast<_Ty*>(_Allocate<_New_alignof<_Ty>>(_Get_size_of_n<sizeof(_Ty)>(_Count)));

  00004	6a 18		 push	 24			; 00000018H
  00006	e8 00 00 00 00	 call	 ??$_Allocate@$07U_Default_allocate_traits@std@@$0A@@std@@YAPAXI@Z ; std::_Allocate<8,std::_Default_allocate_traits,0>
; File C:\Program Files (x86)\Microsoft Visual Studio\2019\Community\VC\Tools\MSVC\14.28.29333\include\xtree

; 344  :         _Construct_in_place(_Pnode->_Left, _Pnode);

  0000b	8d 4d fc	 lea	 ecx, DWORD PTR __Pnode$1[ebp]
  0000e	89 45 fc	 mov	 DWORD PTR __Pnode$1[ebp], eax
  00011	51		 push	 ecx
  00012	50		 push	 eax
  00013	e8 00 00 00 00	 call	 ??$_Construct_in_place@PAU?$_Tree_node@U?$pair@$$CBHPAVCGraphicImage@@@std@@PAX@std@@ABQAU12@@std@@YAXAAPAU?$_Tree_node@U?$pair@$$CBHPAVCGraphicImage@@@std@@PAX@0@ABQAU10@@Z ; std::_Construct_in_place<std::_Tree_node<std::pair<int const ,CGraphicImage *>,void *> *,std::_Tree_node<std::pair<int const ,CGraphicImage *>,void *> * const &>

; 345  :         _Construct_in_place(_Pnode->_Parent, _Pnode);

  00018	8d 45 fc	 lea	 eax, DWORD PTR __Pnode$1[ebp]
  0001b	50		 push	 eax
  0001c	8b 45 fc	 mov	 eax, DWORD PTR __Pnode$1[ebp]
  0001f	83 c0 04	 add	 eax, 4
  00022	50		 push	 eax
  00023	e8 00 00 00 00	 call	 ??$_Construct_in_place@PAU?$_Tree_node@U?$pair@$$CBHPAVCGraphicImage@@@std@@PAX@std@@ABQAU12@@std@@YAXAAPAU?$_Tree_node@U?$pair@$$CBHPAVCGraphicImage@@@std@@PAX@0@ABQAU10@@Z ; std::_Construct_in_place<std::_Tree_node<std::pair<int const ,CGraphicImage *>,void *> *,std::_Tree_node<std::pair<int const ,CGraphicImage *>,void *> * const &>

; 346  :         _Construct_in_place(_Pnode->_Right, _Pnode);

  00028	8d 45 fc	 lea	 eax, DWORD PTR __Pnode$1[ebp]
  0002b	50		 push	 eax
  0002c	8b 45 fc	 mov	 eax, DWORD PTR __Pnode$1[ebp]
  0002f	83 c0 08	 add	 eax, 8
  00032	50		 push	 eax
  00033	e8 00 00 00 00	 call	 ??$_Construct_in_place@PAU?$_Tree_node@U?$pair@$$CBHPAVCGraphicImage@@@std@@PAX@std@@ABQAU12@@std@@YAXAAPAU?$_Tree_node@U?$pair@$$CBHPAVCGraphicImage@@@std@@PAX@0@ABQAU10@@Z ; std::_Construct_in_place<std::_Tree_node<std::pair<int const ,CGraphicImage *>,void *> *,std::_Tree_node<std::pair<int const ,CGraphicImage *>,void *> * const &>

; 347  :         _Pnode->_Color = _Black;

  00038	8b 45 fc	 mov	 eax, DWORD PTR __Pnode$1[ebp]
; File D:\Metin2 Server Files\mainline\SRC_2014\Metin2Client\UserInterface\PythonPlayerModule.cpp

; 45   : std::map<int, CGraphicImage *> m_kMap_iEmotionIndex_pkIconImage;

  0003b	68 00 00 00 00	 push	 OFFSET ??__Fm_kMap_iEmotionIndex_pkIconImage@@YAXXZ ; `dynamic atexit destructor for 'm_kMap_iEmotionIndex_pkIconImage''
; File C:\Program Files (x86)\Microsoft Visual Studio\2019\Community\VC\Tools\MSVC\14.28.29333\include\xtree

; 347  :         _Pnode->_Color = _Black;

  00040	c6 40 0c 01	 mov	 BYTE PTR [eax+12], 1

; 348  :         _Pnode->_Isnil = true;

  00044	8b 45 fc	 mov	 eax, DWORD PTR __Pnode$1[ebp]
  00047	c6 40 0d 01	 mov	 BYTE PTR [eax+13], 1

; 2021 :         _Scary->_Myhead = _Node::_Buyheadnode(_Getal());

  0004b	8b 45 fc	 mov	 eax, DWORD PTR __Pnode$1[ebp]
  0004e	a3 00 00 00 00	 mov	 DWORD PTR ?m_kMap_iEmotionIndex_pkIconImage@@3V?$map@HPAVCGraphicImage@@U?$less@H@std@@V?$allocator@U?$pair@$$CBHPAVCGraphicImage@@@std@@@3@@std@@A, eax
; File D:\Metin2 Server Files\mainline\SRC_2014\Metin2Client\UserInterface\PythonPlayerModule.cpp

; 45   : std::map<int, CGraphicImage *> m_kMap_iEmotionIndex_pkIconImage;

  00053	e8 00 00 00 00	 call	 _atexit
  00058	83 c4 20	 add	 esp, 32			; 00000020H
  0005b	8b e5		 mov	 esp, ebp
  0005d	5d		 pop	 ebp
  0005e	c3		 ret	 0
??__Em_kMap_iEmotionIndex_pkIconImage@@YAXXZ ENDP	; `dynamic initializer for 'm_kMap_iEmotionIndex_pkIconImage''
text$di	ENDS
; Function compile flags: /Ogtp
; File C:\Program Files (x86)\Microsoft Visual Studio\2019\Community\VC\Tools\MSVC\14.28.29333\include\xtree
;	COMDAT ?_Insert_node@?$_Tree_val@U?$_Tree_simple_types@U?$pair@$$CBHPAVCGraphicImage@@@std@@@std@@@std@@QAEPAU?$_Tree_node@U?$pair@$$CBHPAVCGraphicImage@@@std@@PAX@2@U?$_Tree_id@PAU?$_Tree_node@U?$pair@$$CBHPAVCGraphicImage@@@std@@PAX@std@@@2@QAU32@@Z
_TEXT	SEGMENT
__Head$1$ = -8						; size = 4
_this$1$ = -4						; size = 4
__Loc$ = 8						; size = 8
__Newnode$ = 16						; size = 4
?_Insert_node@?$_Tree_val@U?$_Tree_simple_types@U?$pair@$$CBHPAVCGraphicImage@@@std@@@std@@@std@@QAEPAU?$_Tree_node@U?$pair@$$CBHPAVCGraphicImage@@@std@@PAX@2@U?$_Tree_id@PAU?$_Tree_node@U?$pair@$$CBHPAVCGraphicImage@@@std@@PAX@std@@@2@QAU32@@Z PROC ; std::_Tree_val<std::_Tree_simple_types<std::pair<int const ,CGraphicImage *> > >::_Insert_node, COMDAT
; _this$ = ecx

; 644  :     _Nodeptr _Insert_node(const _Tree_id<_Nodeptr> _Loc, const _Nodeptr _Newnode) noexcept {

  00000	55		 push	 ebp
  00001	8b ec		 mov	 ebp, esp
  00003	83 ec 08	 sub	 esp, 8

; 645  :         ++_Mysize;
; 646  :         const auto _Head  = _Myhead;
; 647  :         _Newnode->_Parent = _Loc._Parent;

  00006	8b 55 08	 mov	 edx, DWORD PTR __Loc$[ebp]
  00009	8b c1		 mov	 eax, ecx
  0000b	89 45 fc	 mov	 DWORD PTR _this$1$[ebp], eax
  0000e	8b 08		 mov	 ecx, DWORD PTR [eax]
  00010	ff 40 04	 inc	 DWORD PTR [eax+4]
  00013	8b 45 10	 mov	 eax, DWORD PTR __Newnode$[ebp]
  00016	89 4d f8	 mov	 DWORD PTR __Head$1$[ebp], ecx
  00019	89 50 04	 mov	 DWORD PTR [eax+4], edx

; 648  :         if (_Loc._Parent == _Head) { // first node in tree, just set head values

  0001c	3b d1		 cmp	 edx, ecx
  0001e	75 12		 jne	 SHORT $LN5@Insert_nod

; 649  :             _Head->_Left     = _Newnode;

  00020	89 01		 mov	 DWORD PTR [ecx], eax

; 650  :             _Head->_Parent   = _Newnode;

  00022	89 41 04	 mov	 DWORD PTR [ecx+4], eax

; 651  :             _Head->_Right    = _Newnode;

  00025	89 41 08	 mov	 DWORD PTR [ecx+8], eax

; 652  :             _Newnode->_Color = _Black; // the root is black

  00028	c6 40 0c 01	 mov	 BYTE PTR [eax+12], 1

; 711  :     }

  0002c	8b e5		 mov	 esp, ebp
  0002e	5d		 pop	 ebp
  0002f	c2 0c 00	 ret	 12			; 0000000cH
$LN5@Insert_nod:

; 653  :             return _Newnode;
; 654  :         }
; 655  : 
; 656  :         _STL_INTERNAL_CHECK(_Loc._Child != _Tree_child::_Unused);
; 657  :         if (_Loc._Child == _Tree_child::_Right) { // add to right of _Loc._Parent

  00032	83 7d 0c 00	 cmp	 DWORD PTR __Loc$[ebp+4], 0
  00036	75 0d		 jne	 SHORT $LN6@Insert_nod

; 658  :             _STL_INTERNAL_CHECK(_Loc._Parent->_Right->_Isnil);
; 659  :             _Loc._Parent->_Right = _Newnode;

  00038	89 42 08	 mov	 DWORD PTR [edx+8], eax

; 660  :             if (_Loc._Parent == _Head->_Right) { // remember rightmost node

  0003b	3b 51 08	 cmp	 edx, DWORD PTR [ecx+8]
  0003e	75 0d		 jne	 SHORT $LN9@Insert_nod

; 661  :                 _Head->_Right = _Newnode;

  00040	89 41 08	 mov	 DWORD PTR [ecx+8], eax

; 662  :             }
; 663  :         } else { // add to left of _Loc._Parent

  00043	eb 08		 jmp	 SHORT $LN9@Insert_nod
$LN6@Insert_nod:

; 664  :             _STL_INTERNAL_CHECK(_Loc._Parent->_Left->_Isnil);
; 665  :             _Loc._Parent->_Left = _Newnode;

  00045	89 02		 mov	 DWORD PTR [edx], eax

; 666  :             if (_Loc._Parent == _Head->_Left) { // remember leftmost node

  00047	3b 11		 cmp	 edx, DWORD PTR [ecx]
  00049	75 02		 jne	 SHORT $LN9@Insert_nod

; 667  :                 _Head->_Left = _Newnode;

  0004b	89 01		 mov	 DWORD PTR [ecx], eax
$LN9@Insert_nod:

; 668  :             }
; 669  :         }
; 670  : 
; 671  :         for (_Nodeptr _Pnode = _Newnode; _Pnode->_Parent->_Color == _Red;) {

  0004d	8b d0		 mov	 edx, eax
  0004f	8b 40 04	 mov	 eax, DWORD PTR [eax+4]
  00052	80 78 0c 00	 cmp	 BYTE PTR [eax+12], 0
  00056	0f 85 99 01 00
	00		 jne	 $LN3@Insert_nod
  0005c	53		 push	 ebx
  0005d	56		 push	 esi
  0005e	57		 push	 edi
  0005f	90		 npad	 1
$LL2@Insert_nod:

; 672  :             if (_Pnode->_Parent == _Pnode->_Parent->_Parent->_Left) { // fixup red-red in left subtree

  00060	8b 4a 04	 mov	 ecx, DWORD PTR [edx+4]
  00063	8d 7a 04	 lea	 edi, DWORD PTR [edx+4]
  00066	8b 71 04	 mov	 esi, DWORD PTR [ecx+4]
  00069	8d 59 04	 lea	 ebx, DWORD PTR [ecx+4]
  0006c	8b 06		 mov	 eax, DWORD PTR [esi]
  0006e	3b c8		 cmp	 ecx, eax
  00070	0f 85 ba 00 00
	00		 jne	 $LN10@Insert_nod

; 673  :                 const auto _Parent_sibling = _Pnode->_Parent->_Parent->_Right;

  00076	8b 46 08	 mov	 eax, DWORD PTR [esi+8]

; 674  :                 if (_Parent_sibling->_Color == _Red) { // parent's sibling has two red children, blacken both

  00079	80 78 0c 00	 cmp	 BYTE PTR [eax+12], 0
  0007d	0f 84 b3 00 00
	00		 je	 $LN53@Insert_nod

; 675  :                     _Pnode->_Parent->_Color          = _Black;
; 676  :                     _Parent_sibling->_Color          = _Black;
; 677  :                     _Pnode->_Parent->_Parent->_Color = _Red;
; 678  :                     _Pnode                           = _Pnode->_Parent->_Parent;
; 679  :                 } else { // parent's sibling has red and black children
; 680  :                     if (_Pnode == _Pnode->_Parent->_Right) { // rotate right child to left

  00083	8b 71 08	 mov	 esi, DWORD PTR [ecx+8]
  00086	3b d6		 cmp	 edx, esi
  00088	75 47		 jne	 SHORT $LN51@Insert_nod

; 460  :         _Wherenode->_Right = _Pnode->_Left;

  0008a	8b 06		 mov	 eax, DWORD PTR [esi]

; 681  :                         _Pnode = _Pnode->_Parent;

  0008c	8b d1		 mov	 edx, ecx

; 460  :         _Wherenode->_Right = _Pnode->_Left;

  0008e	89 42 08	 mov	 DWORD PTR [edx+8], eax

; 461  : 
; 462  :         if (!_Pnode->_Left->_Isnil) {

  00091	8b 06		 mov	 eax, DWORD PTR [esi]
  00093	80 78 0d 00	 cmp	 BYTE PTR [eax+13], 0
  00097	75 03		 jne	 SHORT $LN20@Insert_nod

; 463  :             _Pnode->_Left->_Parent = _Wherenode;

  00099	89 50 04	 mov	 DWORD PTR [eax+4], edx
$LN20@Insert_nod:

; 464  :         }
; 465  : 
; 466  :         _Pnode->_Parent = _Wherenode->_Parent;

  0009c	8b 03		 mov	 eax, DWORD PTR [ebx]
  0009e	89 46 04	 mov	 DWORD PTR [esi+4], eax

; 467  : 
; 468  :         if (_Wherenode == _Myhead->_Parent) {

  000a1	8b 45 fc	 mov	 eax, DWORD PTR _this$1$[ebp]
  000a4	8b 00		 mov	 eax, DWORD PTR [eax]
  000a6	3b 50 04	 cmp	 edx, DWORD PTR [eax+4]
  000a9	75 0b		 jne	 SHORT $LN21@Insert_nod

; 469  :             _Myhead->_Parent = _Pnode;

  000ab	89 70 04	 mov	 DWORD PTR [eax+4], esi

; 477  :         _Wherenode->_Parent = _Pnode;

  000ae	8b fb		 mov	 edi, ebx
  000b0	89 16		 mov	 DWORD PTR [esi], edx
  000b2	89 33		 mov	 DWORD PTR [ebx], esi
  000b4	eb 1d		 jmp	 SHORT $LN49@Insert_nod
$LN21@Insert_nod:

; 470  :         } else if (_Wherenode == _Wherenode->_Parent->_Left) {

  000b6	8b 03		 mov	 eax, DWORD PTR [ebx]
  000b8	3b 10		 cmp	 edx, DWORD PTR [eax]
  000ba	75 0a		 jne	 SHORT $LN23@Insert_nod

; 471  :             _Wherenode->_Parent->_Left = _Pnode;

  000bc	89 30		 mov	 DWORD PTR [eax], esi

; 477  :         _Wherenode->_Parent = _Pnode;

  000be	8b fb		 mov	 edi, ebx
  000c0	89 16		 mov	 DWORD PTR [esi], edx
  000c2	89 33		 mov	 DWORD PTR [ebx], esi
  000c4	eb 0d		 jmp	 SHORT $LN49@Insert_nod
$LN23@Insert_nod:

; 473  :             _Wherenode->_Parent->_Right = _Pnode;

  000c6	89 70 08	 mov	 DWORD PTR [eax+8], esi

; 477  :         _Wherenode->_Parent = _Pnode;

  000c9	8b fb		 mov	 edi, ebx
  000cb	89 16		 mov	 DWORD PTR [esi], edx
  000cd	89 33		 mov	 DWORD PTR [ebx], esi
  000cf	eb 02		 jmp	 SHORT $LN49@Insert_nod
$LN51@Insert_nod:
  000d1	8b f1		 mov	 esi, ecx
$LN49@Insert_nod:

; 682  :                         _Lrotate(_Pnode);
; 683  :                     }
; 684  : 
; 685  :                     _Pnode->_Parent->_Color          = _Black; // propagate red up

  000d3	c6 46 0c 01	 mov	 BYTE PTR [esi+12], 1

; 686  :                     _Pnode->_Parent->_Parent->_Color = _Red;

  000d7	8b 07		 mov	 eax, DWORD PTR [edi]
  000d9	8b 40 04	 mov	 eax, DWORD PTR [eax+4]
  000dc	c6 40 0c 00	 mov	 BYTE PTR [eax+12], 0

; 687  :                     _Rrotate(_Pnode->_Parent->_Parent);

  000e0	8b 07		 mov	 eax, DWORD PTR [edi]
  000e2	8b 48 04	 mov	 ecx, DWORD PTR [eax+4]

; 481  :         _Nodeptr _Pnode   = _Wherenode->_Left;

  000e5	8b 31		 mov	 esi, DWORD PTR [ecx]

; 482  :         _Wherenode->_Left = _Pnode->_Right;

  000e7	8b 46 08	 mov	 eax, DWORD PTR [esi+8]
  000ea	89 01		 mov	 DWORD PTR [ecx], eax

; 483  : 
; 484  :         if (!_Pnode->_Right->_Isnil) {

  000ec	8b 46 08	 mov	 eax, DWORD PTR [esi+8]
  000ef	80 78 0d 00	 cmp	 BYTE PTR [eax+13], 0
  000f3	75 03		 jne	 SHORT $LN27@Insert_nod

; 485  :             _Pnode->_Right->_Parent = _Wherenode;

  000f5	89 48 04	 mov	 DWORD PTR [eax+4], ecx
$LN27@Insert_nod:

; 486  :         }
; 487  : 
; 488  :         _Pnode->_Parent = _Wherenode->_Parent;

  000f8	8b 41 04	 mov	 eax, DWORD PTR [ecx+4]
  000fb	89 46 04	 mov	 DWORD PTR [esi+4], eax

; 489  : 
; 490  :         if (_Wherenode == _Myhead->_Parent) {

  000fe	8b 45 fc	 mov	 eax, DWORD PTR _this$1$[ebp]
  00101	8b 00		 mov	 eax, DWORD PTR [eax]
  00103	3b 48 04	 cmp	 ecx, DWORD PTR [eax+4]
  00106	75 0b		 jne	 SHORT $LN28@Insert_nod

; 491  :             _Myhead->_Parent = _Pnode;

  00108	89 70 04	 mov	 DWORD PTR [eax+4], esi

; 496  :         }
; 497  : 
; 498  :         _Pnode->_Right      = _Wherenode;

  0010b	89 4e 08	 mov	 DWORD PTR [esi+8], ecx

; 688  :                 }
; 689  :             } else { // fixup red-red in right subtree

  0010e	e9 cc 00 00 00	 jmp	 $LN52@Insert_nod
$LN28@Insert_nod:

; 492  :         } else if (_Wherenode == _Wherenode->_Parent->_Right) {

  00113	8b 41 04	 mov	 eax, DWORD PTR [ecx+4]
  00116	3b 48 08	 cmp	 ecx, DWORD PTR [eax+8]
  00119	75 0b		 jne	 SHORT $LN30@Insert_nod

; 493  :             _Wherenode->_Parent->_Right = _Pnode;

  0011b	89 70 08	 mov	 DWORD PTR [eax+8], esi

; 496  :         }
; 497  : 
; 498  :         _Pnode->_Right      = _Wherenode;

  0011e	89 4e 08	 mov	 DWORD PTR [esi+8], ecx

; 688  :                 }
; 689  :             } else { // fixup red-red in right subtree

  00121	e9 b9 00 00 00	 jmp	 $LN52@Insert_nod
$LN30@Insert_nod:

; 495  :             _Wherenode->_Parent->_Left = _Pnode;

  00126	89 30		 mov	 DWORD PTR [eax], esi

; 496  :         }
; 497  : 
; 498  :         _Pnode->_Right      = _Wherenode;

  00128	89 4e 08	 mov	 DWORD PTR [esi+8], ecx

; 688  :                 }
; 689  :             } else { // fixup red-red in right subtree

  0012b	e9 af 00 00 00	 jmp	 $LN52@Insert_nod
$LN10@Insert_nod:

; 690  :                 const auto _Parent_sibling = _Pnode->_Parent->_Parent->_Left;
; 691  :                 if (_Parent_sibling->_Color == _Red) { // parent's sibling has two red children, blacken both

  00130	80 78 0c 00	 cmp	 BYTE PTR [eax+12], 0
  00134	75 1b		 jne	 SHORT $LN15@Insert_nod
$LN53@Insert_nod:

; 668  :             }
; 669  :         }
; 670  : 
; 671  :         for (_Nodeptr _Pnode = _Newnode; _Pnode->_Parent->_Color == _Red;) {

  00136	c6 41 0c 01	 mov	 BYTE PTR [ecx+12], 1
  0013a	c6 40 0c 01	 mov	 BYTE PTR [eax+12], 1
  0013e	8b 07		 mov	 eax, DWORD PTR [edi]
  00140	8b 40 04	 mov	 eax, DWORD PTR [eax+4]
  00143	c6 40 0c 00	 mov	 BYTE PTR [eax+12], 0
  00147	8b 07		 mov	 eax, DWORD PTR [edi]
  00149	8b 50 04	 mov	 edx, DWORD PTR [eax+4]
  0014c	e9 91 00 00 00	 jmp	 $LN46@Insert_nod
$LN15@Insert_nod:

; 692  :                     _Pnode->_Parent->_Color          = _Black;
; 693  :                     _Parent_sibling->_Color          = _Black;
; 694  :                     _Pnode->_Parent->_Parent->_Color = _Red;
; 695  :                     _Pnode                           = _Pnode->_Parent->_Parent;
; 696  :                 } else { // parent's sibling has red and black children
; 697  :                     if (_Pnode == _Pnode->_Parent->_Left) { // rotate left child to right

  00151	8b 01		 mov	 eax, DWORD PTR [ecx]
  00153	3b d0		 cmp	 edx, eax
  00155	75 3e		 jne	 SHORT $LN39@Insert_nod

; 698  :                         _Pnode = _Pnode->_Parent;

  00157	8b d1		 mov	 edx, ecx

; 481  :         _Nodeptr _Pnode   = _Wherenode->_Left;

  00159	8b c8		 mov	 ecx, eax

; 482  :         _Wherenode->_Left = _Pnode->_Right;

  0015b	8b 41 08	 mov	 eax, DWORD PTR [ecx+8]
  0015e	89 02		 mov	 DWORD PTR [edx], eax

; 483  : 
; 484  :         if (!_Pnode->_Right->_Isnil) {

  00160	8b 41 08	 mov	 eax, DWORD PTR [ecx+8]
  00163	80 78 0d 00	 cmp	 BYTE PTR [eax+13], 0
  00167	75 03		 jne	 SHORT $LN34@Insert_nod

; 485  :             _Pnode->_Right->_Parent = _Wherenode;

  00169	89 50 04	 mov	 DWORD PTR [eax+4], edx
$LN34@Insert_nod:

; 486  :         }
; 487  : 
; 488  :         _Pnode->_Parent = _Wherenode->_Parent;

  0016c	8b 03		 mov	 eax, DWORD PTR [ebx]
  0016e	89 41 04	 mov	 DWORD PTR [ecx+4], eax

; 489  : 
; 490  :         if (_Wherenode == _Myhead->_Parent) {

  00171	8b 45 fc	 mov	 eax, DWORD PTR _this$1$[ebp]
  00174	8b 00		 mov	 eax, DWORD PTR [eax]
  00176	3b 50 04	 cmp	 edx, DWORD PTR [eax+4]
  00179	75 05		 jne	 SHORT $LN35@Insert_nod

; 491  :             _Myhead->_Parent = _Pnode;

  0017b	89 48 04	 mov	 DWORD PTR [eax+4], ecx
  0017e	eb 0e		 jmp	 SHORT $LN38@Insert_nod
$LN35@Insert_nod:

; 492  :         } else if (_Wherenode == _Wherenode->_Parent->_Right) {

  00180	8b 03		 mov	 eax, DWORD PTR [ebx]
  00182	3b 50 08	 cmp	 edx, DWORD PTR [eax+8]
  00185	75 05		 jne	 SHORT $LN37@Insert_nod

; 493  :             _Wherenode->_Parent->_Right = _Pnode;

  00187	89 48 08	 mov	 DWORD PTR [eax+8], ecx

; 494  :         } else {

  0018a	eb 02		 jmp	 SHORT $LN38@Insert_nod
$LN37@Insert_nod:

; 495  :             _Wherenode->_Parent->_Left = _Pnode;

  0018c	89 08		 mov	 DWORD PTR [eax], ecx
$LN38@Insert_nod:

; 496  :         }
; 497  : 
; 498  :         _Pnode->_Right      = _Wherenode;

  0018e	89 51 08	 mov	 DWORD PTR [ecx+8], edx

; 499  :         _Wherenode->_Parent = _Pnode;

  00191	8b fb		 mov	 edi, ebx
  00193	89 0b		 mov	 DWORD PTR [ebx], ecx
$LN39@Insert_nod:

; 699  :                         _Rrotate(_Pnode);
; 700  :                     }
; 701  : 
; 702  :                     _Pnode->_Parent->_Color          = _Black; // propagate red up

  00195	c6 41 0c 01	 mov	 BYTE PTR [ecx+12], 1

; 703  :                     _Pnode->_Parent->_Parent->_Color = _Red;

  00199	8b 07		 mov	 eax, DWORD PTR [edi]
  0019b	8b 40 04	 mov	 eax, DWORD PTR [eax+4]
  0019e	c6 40 0c 00	 mov	 BYTE PTR [eax+12], 0

; 704  :                     _Lrotate(_Pnode->_Parent->_Parent);

  001a2	8b 07		 mov	 eax, DWORD PTR [edi]
  001a4	8b 48 04	 mov	 ecx, DWORD PTR [eax+4]

; 459  :         _Nodeptr _Pnode    = _Wherenode->_Right;

  001a7	8b 71 08	 mov	 esi, DWORD PTR [ecx+8]

; 460  :         _Wherenode->_Right = _Pnode->_Left;

  001aa	8b 06		 mov	 eax, DWORD PTR [esi]
  001ac	89 41 08	 mov	 DWORD PTR [ecx+8], eax

; 461  : 
; 462  :         if (!_Pnode->_Left->_Isnil) {

  001af	8b 06		 mov	 eax, DWORD PTR [esi]
  001b1	80 78 0d 00	 cmp	 BYTE PTR [eax+13], 0
  001b5	75 03		 jne	 SHORT $LN41@Insert_nod

; 463  :             _Pnode->_Left->_Parent = _Wherenode;

  001b7	89 48 04	 mov	 DWORD PTR [eax+4], ecx
$LN41@Insert_nod:

; 464  :         }
; 465  : 
; 466  :         _Pnode->_Parent = _Wherenode->_Parent;

  001ba	8b 41 04	 mov	 eax, DWORD PTR [ecx+4]
  001bd	89 46 04	 mov	 DWORD PTR [esi+4], eax

; 467  : 
; 468  :         if (_Wherenode == _Myhead->_Parent) {

  001c0	8b 45 fc	 mov	 eax, DWORD PTR _this$1$[ebp]
  001c3	8b 00		 mov	 eax, DWORD PTR [eax]
  001c5	3b 48 04	 cmp	 ecx, DWORD PTR [eax+4]
  001c8	75 05		 jne	 SHORT $LN42@Insert_nod

; 469  :             _Myhead->_Parent = _Pnode;

  001ca	89 70 04	 mov	 DWORD PTR [eax+4], esi
  001cd	eb 0e		 jmp	 SHORT $LN45@Insert_nod
$LN42@Insert_nod:

; 470  :         } else if (_Wherenode == _Wherenode->_Parent->_Left) {

  001cf	8b 41 04	 mov	 eax, DWORD PTR [ecx+4]
  001d2	3b 08		 cmp	 ecx, DWORD PTR [eax]
  001d4	75 04		 jne	 SHORT $LN44@Insert_nod

; 471  :             _Wherenode->_Parent->_Left = _Pnode;

  001d6	89 30		 mov	 DWORD PTR [eax], esi

; 472  :         } else {

  001d8	eb 03		 jmp	 SHORT $LN45@Insert_nod
$LN44@Insert_nod:

; 473  :             _Wherenode->_Parent->_Right = _Pnode;

  001da	89 70 08	 mov	 DWORD PTR [eax+8], esi
$LN45@Insert_nod:

; 474  :         }
; 475  : 
; 476  :         _Pnode->_Left       = _Wherenode;

  001dd	89 0e		 mov	 DWORD PTR [esi], ecx
$LN52@Insert_nod:

; 668  :             }
; 669  :         }
; 670  : 
; 671  :         for (_Nodeptr _Pnode = _Newnode; _Pnode->_Parent->_Color == _Red;) {

  001df	89 71 04	 mov	 DWORD PTR [ecx+4], esi
$LN46@Insert_nod:
  001e2	8b 42 04	 mov	 eax, DWORD PTR [edx+4]
  001e5	80 78 0c 00	 cmp	 BYTE PTR [eax+12], 0
  001e9	0f 84 71 fe ff
	ff		 je	 $LL2@Insert_nod
  001ef	8b 4d f8	 mov	 ecx, DWORD PTR __Head$1$[ebp]
  001f2	5f		 pop	 edi
  001f3	5e		 pop	 esi
  001f4	5b		 pop	 ebx
$LN3@Insert_nod:

; 705  :                 }
; 706  :             }
; 707  :         }
; 708  : 
; 709  :         _Head->_Parent->_Color = _Black; // root is always black

  001f5	8b 41 04	 mov	 eax, DWORD PTR [ecx+4]
  001f8	c6 40 0c 01	 mov	 BYTE PTR [eax+12], 1

; 710  :         return _Newnode;

  001fc	8b 45 10	 mov	 eax, DWORD PTR __Newnode$[ebp]

; 711  :     }

  001ff	8b e5		 mov	 esp, ebp
  00201	5d		 pop	 ebp
  00202	c2 0c 00	 ret	 12			; 0000000cH
?_Insert_node@?$_Tree_val@U?$_Tree_simple_types@U?$pair@$$CBHPAVCGraphicImage@@@std@@@std@@@std@@QAEPAU?$_Tree_node@U?$pair@$$CBHPAVCGraphicImage@@@std@@PAX@2@U?$_Tree_id@PAU?$_Tree_node@U?$pair@$$CBHPAVCGraphicImage@@@std@@PAX@std@@@2@QAU32@@Z ENDP ; std::_Tree_val<std::_Tree_simple_types<std::pair<int const ,CGraphicImage *> > >::_Insert_node
_TEXT	ENDS
; Function compile flags: /Ogtp
; File C:\Program Files (x86)\Microsoft Visual Studio\2019\Community\VC\Tools\MSVC\14.28.29333\include\xtree
; File C:\Program Files (x86)\Microsoft Visual Studio\2019\Community\VC\Tools\MSVC\14.28.29333\include\utility
; File C:\Program Files (x86)\Microsoft Visual Studio\2019\Community\VC\Tools\MSVC\14.28.29333\include\xmemory
; File C:\Program Files (x86)\Microsoft Visual Studio\2019\Community\VC\Tools\MSVC\14.28.29333\include\xtree
; File C:\Program Files (x86)\Microsoft Visual Studio\2019\Community\VC\Tools\MSVC\14.28.29333\include\xmemory
; File C:\Program Files (x86)\Microsoft Visual Studio\2019\Community\VC\Tools\MSVC\14.28.29333\include\xtree
;	COMDAT ??1?$_Tree@V?$_Tmap_traits@HPAVCGraphicImage@@U?$less@H@std@@V?$allocator@U?$pair@$$CBHPAVCGraphicImage@@@std@@@3@$0A@@std@@@std@@QAE@XZ
_TEXT	SEGMENT
??1?$_Tree@V?$_Tmap_traits@HPAVCGraphicImage@@U?$less@H@std@@V?$allocator@U?$pair@$$CBHPAVCGraphicImage@@@std@@@3@$0A@@std@@@std@@QAE@XZ PROC ; std::_Tree<std::_Tmap_traits<int,CGraphicImage *,std::less<int>,std::allocator<std::pair<int const ,CGraphicImage *> >,0> >::~_Tree<std::_Tmap_traits<int,CGraphicImage *,std::less<int>,std::allocator<std::pair<int const ,CGraphicImage *> >,0> >, COMDAT
; _this$ = ecx

; 1189 :     ~_Tree() noexcept {

  00000	56		 push	 esi
  00001	57		 push	 edi
  00002	8b f9		 mov	 edi, ecx

; 752  :         _Erase_tree(_Al, _Myhead->_Parent);

  00004	8b 07		 mov	 eax, DWORD PTR [edi]
  00006	8b 70 04	 mov	 esi, DWORD PTR [eax+4]

; 743  :         while (!_Rootnode->_Isnil) { // free subtrees, then node

  00009	80 7e 0d 00	 cmp	 BYTE PTR [esi+13], 0
  0000d	75 23		 jne	 SHORT $LN7@Tree
  0000f	90		 npad	 1
$LL6@Tree:

; 744  :             _Erase_tree(_Al, _Rootnode->_Right);

  00010	ff 76 08	 push	 DWORD PTR [esi+8]
  00013	8b cf		 mov	 ecx, edi
  00015	57		 push	 edi
  00016	e8 00 00 00 00	 call	 ??$_Erase_tree@V?$allocator@U?$_Tree_node@U?$pair@$$CBHPAVCGraphicImage@@@std@@PAX@std@@@std@@@?$_Tree_val@U?$_Tree_simple_types@U?$pair@$$CBHPAVCGraphicImage@@@std@@@std@@@std@@QAEXAAV?$allocator@U?$_Tree_node@U?$pair@$$CBHPAVCGraphicImage@@@std@@PAX@std@@@1@PAU?$_Tree_node@U?$pair@$$CBHPAVCGraphicImage@@@std@@PAX@1@@Z ; std::_Tree_val<std::_Tree_simple_types<std::pair<int const ,CGraphicImage *> > >::_Erase_tree<std::allocator<std::_Tree_node<std::pair<int const ,CGraphicImage *>,void *> > >
; File C:\Program Files (x86)\Microsoft Visual Studio\2019\Community\VC\Tools\MSVC\14.28.29333\include\utility

; 598  :     _Ty _Old_val = static_cast<_Ty&&>(_Val);

  0001b	8b c6		 mov	 eax, esi

; 599  :     _Val         = static_cast<_Other&&>(_New_val);

  0001d	8b 36		 mov	 esi, DWORD PTR [esi]
; File C:\Program Files (x86)\Microsoft Visual Studio\2019\Community\VC\Tools\MSVC\14.28.29333\include\xmemory

; 696  :         _Deallocate<_New_alignof<value_type>>(_Ptr, sizeof(value_type) * _Count);

  0001f	6a 18		 push	 24			; 00000018H
  00021	50		 push	 eax
  00022	e8 00 00 00 00	 call	 ??$_Deallocate@$07$0A@@std@@YAXPAXI@Z ; std::_Deallocate<8,0>
  00027	83 c4 08	 add	 esp, 8
; File C:\Program Files (x86)\Microsoft Visual Studio\2019\Community\VC\Tools\MSVC\14.28.29333\include\xtree

; 743  :         while (!_Rootnode->_Isnil) { // free subtrees, then node

  0002a	80 7e 0d 00	 cmp	 BYTE PTR [esi+13], 0
  0002e	74 e0		 je	 SHORT $LL6@Tree
  00030	8b 07		 mov	 eax, DWORD PTR [edi]
$LN7@Tree:
; File C:\Program Files (x86)\Microsoft Visual Studio\2019\Community\VC\Tools\MSVC\14.28.29333\include\xmemory

; 696  :         _Deallocate<_New_alignof<value_type>>(_Ptr, sizeof(value_type) * _Count);

  00032	6a 18		 push	 24			; 00000018H
  00034	50		 push	 eax
  00035	e8 00 00 00 00	 call	 ??$_Deallocate@$07$0A@@std@@YAXPAXI@Z ; std::_Deallocate<8,0>
  0003a	83 c4 08	 add	 esp, 8
  0003d	5f		 pop	 edi
  0003e	5e		 pop	 esi
; File C:\Program Files (x86)\Microsoft Visual Studio\2019\Community\VC\Tools\MSVC\14.28.29333\include\xtree

; 1196 :     }

  0003f	c3		 ret	 0
??1?$_Tree@V?$_Tmap_traits@HPAVCGraphicImage@@U?$less@H@std@@V?$allocator@U?$pair@$$CBHPAVCGraphicImage@@@std@@@3@$0A@@std@@@std@@QAE@XZ ENDP ; std::_Tree<std::_Tmap_traits<int,CGraphicImage *,std::less<int>,std::allocator<std::pair<int const ,CGraphicImage *> >,0> >::~_Tree<std::_Tmap_traits<int,CGraphicImage *,std::less<int>,std::allocator<std::pair<int const ,CGraphicImage *> >,0> >
_TEXT	ENDS
; Function compile flags: /Ogtp
; File C:\Program Files (x86)\Microsoft Visual Studio\2019\Community\VC\Tools\MSVC\14.28.29333\include\xmemory
;	COMDAT ??$_Allocate_manually_vector_aligned@U_Default_allocate_traits@std@@@std@@YAPAXI@Z
_TEXT	SEGMENT
__Bytes$ = 8						; size = 4
??$_Allocate_manually_vector_aligned@U_Default_allocate_traits@std@@@std@@YAPAXI@Z PROC ; std::_Allocate_manually_vector_aligned<std::_Default_allocate_traits>, COMDAT

; 113  : __declspec(allocator) void* _Allocate_manually_vector_aligned(const size_t _Bytes) {

  00000	55		 push	 ebp
  00001	8b ec		 mov	 ebp, esp

; 114  :     // allocate _Bytes manually aligned to at least _Big_allocation_alignment
; 115  :     const size_t _Block_size = _Non_user_size + _Bytes;

  00003	8b 45 08	 mov	 eax, DWORD PTR __Bytes$[ebp]
  00006	8d 48 23	 lea	 ecx, DWORD PTR [eax+35]

; 116  :     if (_Block_size <= _Bytes) {

  00009	3b c8		 cmp	 ecx, eax
  0000b	0f 86 00 00 00
	00		 jbe	 ?_Throw_bad_array_new_length@std@@YAXXZ ; std::_Throw_bad_array_new_length

; 77   :         return ::operator new(_Bytes);

  00011	51		 push	 ecx
  00012	e8 00 00 00 00	 call	 ??2@YAPAXI@Z		; operator new

; 117  :         _Throw_bad_array_new_length(); // add overflow
; 118  :     }
; 119  : 
; 120  :     const uintptr_t _Ptr_container = reinterpret_cast<uintptr_t>(_Traits::_Allocate(_Block_size));

  00017	8b c8		 mov	 ecx, eax

; 77   :         return ::operator new(_Bytes);

  00019	83 c4 04	 add	 esp, 4

; 121  :     _STL_VERIFY(_Ptr_container != 0, "invalid argument"); // validate even in release since we're doing p[-1]

  0001c	85 c9		 test	 ecx, ecx
  0001e	74 0b		 je	 SHORT $LN7@Allocate_m

; 122  :     void* const _Ptr = reinterpret_cast<void*>((_Ptr_container + _Non_user_size) & ~(_Big_allocation_alignment - 1));

  00020	8d 41 23	 lea	 eax, DWORD PTR [ecx+35]
  00023	83 e0 e0	 and	 eax, -32		; ffffffe0H

; 123  :     static_cast<uintptr_t*>(_Ptr)[-1] = _Ptr_container;

  00026	89 48 fc	 mov	 DWORD PTR [eax-4], ecx

; 124  : 
; 125  : #ifdef _DEBUG
; 126  :     static_cast<uintptr_t*>(_Ptr)[-2] = _Big_allocation_sentinel;
; 127  : #endif // _DEBUG
; 128  :     return _Ptr;
; 129  : }

  00029	5d		 pop	 ebp
  0002a	c3		 ret	 0
$LN7@Allocate_m:

; 121  :     _STL_VERIFY(_Ptr_container != 0, "invalid argument"); // validate even in release since we're doing p[-1]

  0002b	e9 00 00 00 00	 jmp	 __invalid_parameter_noinfo_noreturn
??$_Allocate_manually_vector_aligned@U_Default_allocate_traits@std@@@std@@YAPAXI@Z ENDP ; std::_Allocate_manually_vector_aligned<std::_Default_allocate_traits>
_TEXT	ENDS
; Function compile flags: /Ogtp
; File C:\Program Files (x86)\Microsoft Visual Studio\2019\Community\VC\Tools\MSVC\14.28.29333\include\xmemory
;	COMDAT ??$_Allocate@$07U_Default_allocate_traits@std@@$0A@@std@@YAPAXI@Z
_TEXT	SEGMENT
__Bytes$ = 8						; size = 4
??$_Allocate@$07U_Default_allocate_traits@std@@$0A@@std@@YAPAXI@Z PROC ; std::_Allocate<8,std::_Default_allocate_traits,0>, COMDAT

; 197  : __declspec(allocator) void* _Allocate(const size_t _Bytes) {

  00000	55		 push	 ebp
  00001	8b ec		 mov	 ebp, esp

; 198  :     // allocate _Bytes when !_HAS_ALIGNED_NEW || _Align <= __STDCPP_DEFAULT_NEW_ALIGNMENT__
; 199  : #if defined(_M_IX86) || defined(_M_X64)
; 200  :     if (_Bytes >= _Big_allocation_threshold) { // boost the alignment of big allocations to help autovectorization

  00003	8b 45 08	 mov	 eax, DWORD PTR __Bytes$[ebp]
  00006	3d 00 10 00 00	 cmp	 eax, 4096		; 00001000H
  0000b	72 09		 jb	 SHORT $LN2@Allocate

; 201  :         return _Allocate_manually_vector_aligned<_Traits>(_Bytes);

  0000d	89 45 08	 mov	 DWORD PTR __Bytes$[ebp], eax

; 210  : }

  00010	5d		 pop	 ebp

; 201  :         return _Allocate_manually_vector_aligned<_Traits>(_Bytes);

  00011	e9 00 00 00 00	 jmp	 ??$_Allocate_manually_vector_aligned@U_Default_allocate_traits@std@@@std@@YAPAXI@Z ; std::_Allocate_manually_vector_aligned<std::_Default_allocate_traits>
$LN2@Allocate:

; 202  :     }
; 203  : #endif // defined(_M_IX86) || defined(_M_X64)
; 204  : 
; 205  :     if (_Bytes != 0) {

  00016	85 c0		 test	 eax, eax
  00018	74 09		 je	 SHORT $LN3@Allocate

; 77   :         return ::operator new(_Bytes);

  0001a	89 45 08	 mov	 DWORD PTR __Bytes$[ebp], eax

; 210  : }

  0001d	5d		 pop	 ebp

; 77   :         return ::operator new(_Bytes);

  0001e	e9 00 00 00 00	 jmp	 ??2@YAPAXI@Z		; operator new
$LN3@Allocate:

; 206  :         return _Traits::_Allocate(_Bytes);
; 207  :     }
; 208  : 
; 209  :     return nullptr;

  00023	33 c0		 xor	 eax, eax

; 210  : }

  00025	5d		 pop	 ebp
  00026	c3		 ret	 0
??$_Allocate@$07U_Default_allocate_traits@std@@$0A@@std@@YAPAXI@Z ENDP ; std::_Allocate<8,std::_Default_allocate_traits,0>
_TEXT	ENDS
; Function compile flags: /Ogtp
; File C:\Program Files (x86)\Microsoft Visual Studio\2019\Community\VC\Tools\MSVC\14.28.29333\include\xmemory
;	COMDAT ??$_Deallocate@$07$0A@@std@@YAXPAXI@Z
_TEXT	SEGMENT
__Ptr$ = 8						; size = 4
__Bytes$ = 12						; size = 4
??$_Deallocate@$07$0A@@std@@YAXPAXI@Z PROC		; std::_Deallocate<8,0>, COMDAT

; 213  : void _Deallocate(void* _Ptr, size_t _Bytes) noexcept {

  00000	55		 push	 ebp
  00001	8b ec		 mov	 ebp, esp

; 214  :     // deallocate storage allocated by _Allocate when !_HAS_ALIGNED_NEW || _Align <= __STDCPP_DEFAULT_NEW_ALIGNMENT__
; 215  : #if defined(_M_IX86) || defined(_M_X64)
; 216  :     if (_Bytes >= _Big_allocation_threshold) { // boost the alignment of big allocations to help autovectorization

  00003	8b 4d 0c	 mov	 ecx, DWORD PTR __Bytes$[ebp]
  00006	81 f9 00 10 00
	00		 cmp	 ecx, 4096		; 00001000H
  0000c	72 18		 jb	 SHORT $LN15@Deallocate

; 137  :     const uintptr_t _Ptr_container   = _Ptr_user[-1];

  0000e	8b 45 08	 mov	 eax, DWORD PTR __Ptr$[ebp]
  00011	83 c1 23	 add	 ecx, 35			; 00000023H
  00014	8b 50 fc	 mov	 edx, DWORD PTR [eax-4]

; 138  : 
; 139  :     // If the following asserts, it likely means that we are performing
; 140  :     // an aligned delete on memory coming from an unaligned allocation.
; 141  :     _STL_ASSERT(_Ptr_user[-2] == _Big_allocation_sentinel, "invalid argument");
; 142  : 
; 143  :     // Extra paranoia on aligned allocation/deallocation; ensure _Ptr_container is
; 144  :     // in range [_Min_back_shift, _Non_user_size]
; 145  : #ifdef _DEBUG
; 146  :     constexpr uintptr_t _Min_back_shift = 2 * sizeof(void*);
; 147  : #else // ^^^ _DEBUG ^^^ // vvv !_DEBUG vvv
; 148  :     constexpr uintptr_t _Min_back_shift = sizeof(void*);
; 149  : #endif // _DEBUG
; 150  :     const uintptr_t _Back_shift = reinterpret_cast<uintptr_t>(_Ptr) - _Ptr_container;

  00017	2b c2		 sub	 eax, edx

; 151  :     _STL_VERIFY(_Back_shift >= _Min_back_shift && _Back_shift <= _Non_user_size, "invalid argument");

  00019	83 c0 fc	 add	 eax, -4			; fffffffcH
  0001c	83 f8 1f	 cmp	 eax, 31			; 0000001fH
  0001f	76 08		 jbe	 SHORT $LN13@Deallocate
  00021	e9 00 00 00 00	 jmp	 __invalid_parameter_noinfo_noreturn
$LN15@Deallocate:

; 214  :     // deallocate storage allocated by _Allocate when !_HAS_ALIGNED_NEW || _Align <= __STDCPP_DEFAULT_NEW_ALIGNMENT__
; 215  : #if defined(_M_IX86) || defined(_M_X64)
; 216  :     if (_Bytes >= _Big_allocation_threshold) { // boost the alignment of big allocations to help autovectorization

  00026	8b 55 08	 mov	 edx, DWORD PTR __Ptr$[ebp]
$LN13@Deallocate:

; 217  :         _Adjust_manually_vector_aligned(_Ptr, _Bytes);
; 218  :     }
; 219  : #endif // defined(_M_IX86) || defined(_M_X64)
; 220  : 
; 221  :     ::operator delete(_Ptr, _Bytes);

  00029	89 4d 0c	 mov	 DWORD PTR __Bytes$[ebp], ecx
  0002c	89 55 08	 mov	 DWORD PTR __Ptr$[ebp], edx

; 222  : }

  0002f	5d		 pop	 ebp

; 217  :         _Adjust_manually_vector_aligned(_Ptr, _Bytes);
; 218  :     }
; 219  : #endif // defined(_M_IX86) || defined(_M_X64)
; 220  : 
; 221  :     ::operator delete(_Ptr, _Bytes);

  00030	e9 00 00 00 00	 jmp	 ??3@YAXPAXI@Z		; operator delete
??$_Deallocate@$07$0A@@std@@YAXPAXI@Z ENDP		; std::_Deallocate<8,0>
_TEXT	ENDS
; Function compile flags: /Ogtp
; File C:\Program Files (x86)\Microsoft Visual Studio\2019\Community\VC\Tools\MSVC\14.28.29333\include\xmemory
;	COMDAT ??$_Construct_in_place@PADABQAD@std@@YAXAAPADABQAD@Z
_TEXT	SEGMENT
__Obj$ = 8						; size = 4
_<_Args_0>$ = 12					; size = 4
??$_Construct_in_place@PADABQAD@std@@YAXAAPADABQAD@Z PROC ; std::_Construct_in_place<char *,char * const &>, COMDAT

; 228  : void _Construct_in_place(_Ty& _Obj, _Types&&... _Args) noexcept(is_nothrow_constructible_v<_Ty, _Types...>) {

  00000	55		 push	 ebp
  00001	8b ec		 mov	 ebp, esp

; 229  :     ::new (const_cast<void*>(static_cast<const volatile void*>(_STD addressof(_Obj))))

  00003	8b 45 0c	 mov	 eax, DWORD PTR _<_Args_0>$[ebp]
  00006	8b 08		 mov	 ecx, DWORD PTR [eax]
  00008	8b 45 08	 mov	 eax, DWORD PTR __Obj$[ebp]
  0000b	89 08		 mov	 DWORD PTR [eax], ecx

; 230  :         _Ty(_STD forward<_Types>(_Args)...);
; 231  : }

  0000d	5d		 pop	 ebp
  0000e	c3		 ret	 0
??$_Construct_in_place@PADABQAD@std@@YAXAAPADABQAD@Z ENDP ; std::_Construct_in_place<char *,char * const &>
_TEXT	ENDS
; Function compile flags: /Ogtp
; File C:\Program Files (x86)\Microsoft Visual Studio\2019\Community\VC\Tools\MSVC\14.28.29333\include\xmemory
;	COMDAT ??$_Destroy_in_place@PAD@std@@YAXAAPAD@Z
_TEXT	SEGMENT
__Obj$ = 8						; size = 4
??$_Destroy_in_place@PAD@std@@YAXAAPAD@Z PROC		; std::_Destroy_in_place<char *>, COMDAT

; 271  : #if _HAS_IF_CONSTEXPR
; 272  :     if constexpr (is_array_v<_Ty>) {
; 273  :         _Destroy_range(_Obj, _Obj + extent_v<_Ty>);
; 274  :     } else
; 275  : #endif // _HAS_IF_CONSTEXPR
; 276  :     {
; 277  :         _Obj.~_Ty();
; 278  :     }
; 279  : }

  00000	c2 00 00	 ret	 0
??$_Destroy_in_place@PAD@std@@YAXAAPAD@Z ENDP		; std::_Destroy_in_place<char *>
_TEXT	ENDS
; Function compile flags: /Ogtp
; File D:\Metin2 Server Files\mainline\SRC_2014\Metin2Client\UserInterface\PythonPlayerModule.cpp
;	COMDAT ?initPlayer@@YAXXZ
_TEXT	SEGMENT
?initPlayer@@YAXXZ PROC					; initPlayer, COMDAT

; 2168 : {

  00000	56		 push	 esi
  00001	57		 push	 edi

; 2169 : 	static PyMethodDef s_methods[] =
; 2170 : 	{
; 2171 : 		{ "GetAutoPotionInfo",			playerGetAutoPotionInfo,			METH_VARARGS },
; 2172 : 		{ "SetAutoPotionInfo",			playerSetAutoPotionInfo,			METH_VARARGS },
; 2173 : 
; 2174 : 		{ "PickCloseItem",				playerPickCloseItem,				METH_VARARGS },
; 2175 : 		{ "SetGameWindow",				playerSetGameWindow,				METH_VARARGS },
; 2176 : 		{ "RegisterEffect",				playerRegisterEffect,				METH_VARARGS },
; 2177 : 		{ "RegisterCacheEffect",		playerRegisterCacheEffect,			METH_VARARGS },
; 2178 : 		{ "SetMouseState",				playerSetMouseState,				METH_VARARGS },
; 2179 : 		{ "SetMouseFunc",				playerSetMouseFunc,					METH_VARARGS },
; 2180 : 		{ "GetMouseFunc",				playerGetMouseFunc,					METH_VARARGS },
; 2181 : 		{ "SetMouseMiddleButtonState",	playerSetMouseMiddleButtonState,	METH_VARARGS },
; 2182 : 		{ "SetMainCharacterIndex",		playerSetMainCharacterIndex,		METH_VARARGS },
; 2183 : 		{ "GetMainCharacterIndex",		playerGetMainCharacterIndex,		METH_VARARGS },
; 2184 : 		{ "GetMainCharacterName",		playerGetMainCharacterName,			METH_VARARGS },
; 2185 : 		{ "GetMainCharacterPosition",	playerGetMainCharacterPosition,		METH_VARARGS },
; 2186 : 		{ "IsMainCharacterIndex",		playerIsMainCharacterIndex,			METH_VARARGS },
; 2187 : 		{ "CanAttackInstance",			playerCanAttackInstance,			METH_VARARGS },
; 2188 : 		{ "IsActingEmotion",			playerIsActingEmotion,				METH_VARARGS },
; 2189 : 		{ "IsPVPInstance",				playerIsPVPInstance,				METH_VARARGS },
; 2190 : 		{ "IsSameEmpire",				playerIsSameEmpire,					METH_VARARGS },
; 2191 : 		{ "IsChallengeInstance",		playerIsChallengeInstance,			METH_VARARGS },
; 2192 : 		{ "IsRevengeInstance",			playerIsRevengeInstance,			METH_VARARGS },
; 2193 : 		{ "IsCantFightInstance",		playerIsCantFightInstance,			METH_VARARGS },
; 2194 : 		{ "GetCharacterDistance",		playerGetCharacterDistance,			METH_VARARGS },
; 2195 : 		{ "IsInSafeArea",				playerIsInSafeArea,					METH_VARARGS },
; 2196 : 		{ "IsMountingHorse",			playerIsMountingHorse,				METH_VARARGS },
; 2197 : 		{ "IsObserverMode",				playerIsObserverMode,				METH_VARARGS },
; 2198 : 		{ "ActEmotion",					playerActEmotion,					METH_VARARGS },
; 2199 : 
; 2200 : 		{ "ShowPlayer",					playerShowPlayer,					METH_VARARGS },
; 2201 : 		{ "HidePlayer",					playerHidePlayer,					METH_VARARGS },
; 2202 : 
; 2203 : 		{ "ComboAttack",				playerComboAttack,					METH_VARARGS },
; 2204 : 
; 2205 : 		{ "SetAutoCameraRotationSpeed",	playerSetAutoCameraRotationSpeed,	METH_VARARGS },
; 2206 : 		{ "SetAttackKeyState",			playerSetAttackKeyState,			METH_VARARGS },
; 2207 : 		{ "SetSingleDIKKeyState",		playerSetSingleDIKKeyState,			METH_VARARGS },
; 2208 : 		{ "EndKeyWalkingImmediately",	playerEndKeyWalkingImmediately,		METH_VARARGS },
; 2209 : 		{ "StartMouseWalking",			playerStartMouseWalking,			METH_VARARGS },
; 2210 : 		{ "EndMouseWalking",			playerEndMouseWalking,				METH_VARARGS },
; 2211 : 		{ "ResetCameraRotation",		playerResetCameraRotation,			METH_VARARGS },
; 2212 : 		{ "SetQuickCameraMode",			playerSetQuickCameraMode,			METH_VARARGS },
; 2213 : 
; 2214 : 		///////////////////////////////////////////////////////////////////////////////////////////
; 2215 : 
; 2216 : 		{ "SetSkill",							playerSetSkill,								METH_VARARGS },
; 2217 : 		{ "GetSkillIndex",						playerGetSkillIndex,						METH_VARARGS },
; 2218 : 		{ "GetSkillSlotIndex",					playerGetSkillSlotIndex,					METH_VARARGS },
; 2219 : 		{ "GetSkillGrade",						playerGetSkillGrade,						METH_VARARGS },
; 2220 : 		{ "GetSkillLevel",						playerGetSkillLevel,						METH_VARARGS },
; 2221 : 		{ "GetSkillCurrentEfficientPercentage",	playerGetSkillCurrentEfficientPercentage,	METH_VARARGS },
; 2222 : 		{ "GetSkillNextEfficientPercentage",	playerGetSkillNextEfficientPercentage,		METH_VARARGS },
; 2223 : 		{ "ClickSkillSlot",						playerClickSkillSlot,						METH_VARARGS },
; 2224 : 		{ "ChangeCurrentSkillNumberOnly",		playerChangeCurrentSkillNumberOnly,			METH_VARARGS },
; 2225 : 		{ "ClearSkillDict",						playerClearSkillDict,						METH_VARARGS },
; 2226 : 
; 2227 : 		{ "GetItemIndex",						playerGetItemIndex,							METH_VARARGS },
; 2228 : 		{ "GetItemFlags",						playerGetItemFlags,							METH_VARARGS },
; 2229 : 		{ "GetItemCount",						playerGetItemCount,							METH_VARARGS },
; 2230 : 		{ "GetItemCountByVnum",					playerGetItemCountByVnum,					METH_VARARGS },
; 2231 : 		{ "GetItemMetinSocket",					playerGetItemMetinSocket,					METH_VARARGS },
; 2232 : 		{ "GetItemAttribute",					playerGetItemAttribute,						METH_VARARGS },
; 2233 : #if defined(GAIDEN)
; 2234 : 		{ "GetItemUnbindTime",					playerGetItemUnbindTime,					METH_VARARGS },
; 2235 : #endif
; 2236 : 		{ "GetISellItemPrice",					playerGetISellItemPrice,					METH_VARARGS },
; 2237 : 		{ "MoveItem",							playerMoveItem,								METH_VARARGS },
; 2238 : 		{ "SendClickItemPacket",				playerSendClickItemPacket,					METH_VARARGS },
; 2239 : 
; 2240 : 		///////////////////////////////////////////////////////////////////////////////////////////
; 2241 : 
; 2242 : 		{ "GetName",					playerGetName,						METH_VARARGS },
; 2243 : 		{ "GetJob",						playerGetJob,						METH_VARARGS },
; 2244 : 		{ "GetRace",					playerGetRace,						METH_VARARGS },
; 2245 : 		{ "GetPlayTime",				playerGetPlayTime,					METH_VARARGS },
; 2246 : 		{ "SetPlayTime",				playerSetPlayTime,					METH_VARARGS },
; 2247 : 
; 2248 : 		{ "IsSkillCoolTime",			playerIsSkillCoolTime,				METH_VARARGS },
; 2249 : 		{ "GetSkillCoolTime",			playerGetSkillCoolTime,				METH_VARARGS },
; 2250 : 		{ "IsSkillActive",				playerIsSkillActive,				METH_VARARGS },
; 2251 : 		{ "UseGuildSkill",				playerUseGuildSkill,				METH_VARARGS },
; 2252 : 		{ "AffectIndexToSkillIndex",	playerAffectIndexToSkillIndex,		METH_VARARGS },
; 2253 : 		{ "GetEXP",						playerGetEXP,						METH_VARARGS },
; 2254 : 		{ "GetStatus",					playerGetStatus,					METH_VARARGS },
; 2255 : 		{ "SetStatus",					playerSetStatus,					METH_VARARGS },
; 2256 : 		{ "GetElk",						playerGetElk,						METH_VARARGS },
; 2257 : 		{ "GetMoney",					playerGetElk,						METH_VARARGS },
; 2258 : 		{ "GetGuildID",					playerGetGuildID,					METH_VARARGS },
; 2259 : 		{ "GetGuildName",				playerGetGuildName,					METH_VARARGS },
; 2260 : 		{ "GetAlignmentData",			playerGetAlignmentData,				METH_VARARGS },
; 2261 : 		{ "RequestAddLocalQuickSlot",					playerRequestAddLocalQuickSlot,						METH_VARARGS },
; 2262 : 		{ "RequestAddToEmptyLocalQuickSlot",			playerRequestAddToEmptyLocalQuickSlot,				METH_VARARGS },
; 2263 : 		{ "RequestDeleteGlobalQuickSlot",				playerRequestDeleteGlobalQuickSlot,					METH_VARARGS },
; 2264 : 		{ "RequestMoveGlobalQuickSlotToLocalQuickSlot",	playerRequestMoveGlobalQuickSlotToLocalQuickSlot,	METH_VARARGS },
; 2265 : 		{ "RequestUseLocalQuickSlot",					playerRequestUseLocalQuickSlot,						METH_VARARGS },
; 2266 : 		{ "LocalQuickSlotIndexToGlobalQuickSlotIndex",	playerLocalQuickSlotIndexToGlobalQuickSlotIndex,	METH_VARARGS },
; 2267 : 
; 2268 : 		{ "GetQuickPage",				playerGetQuickPage,					METH_VARARGS },
; 2269 : 		{ "SetQuickPage",				playerSetQuickPage,					METH_VARARGS },
; 2270 : 		{ "GetLocalQuickSlot",			playerGetLocalQuickSlot,			METH_VARARGS },
; 2271 : 		{ "GetGlobalQuickSlot",			playerGetGlobalQuickSlot,			METH_VARARGS },
; 2272 : 		{ "RemoveQuickSlotByValue",		playerRemoveQuickSlotByValue,		METH_VARARGS },
; 2273 : 
; 2274 : 		{ "isItem",						playerisItem,						METH_VARARGS },
; 2275 : 		{ "IsEquipmentSlot",			playerIsEquipmentSlot,				METH_VARARGS },
; 2276 : 		{ "IsDSEquipmentSlot",			playerIsDSEquipmentSlot,			METH_VARARGS },
; 2277 : 		{ "IsCostumeSlot",				playerIsCostumeSlot,				METH_VARARGS },
; 2278 : 		{ "IsValuableItem",				playerIsValuableItem,				METH_VARARGS },
; 2279 : 		{ "IsOpenPrivateShop",			playerIsOpenPrivateShop,			METH_VARARGS },
; 2280 : 
; 2281 : #ifdef ENABLE_NEW_EQUIPMENT_SYSTEM
; 2282 : 		{ "IsBeltInventorySlot",			playerIsBeltInventorySlot,			METH_VARARGS },
; 2283 : 		{ "IsEquippingBelt",				playerIsEquippingBelt,				METH_VARARGS },		
; 2284 : 		{ "IsAvailableBeltInventoryCell",	playerIsAvailableBeltInventoryCell,	METH_VARARGS },		
; 2285 : #endif
; 2286 : 
; 2287 : 		// Refine
; 2288 : 		{ "GetItemGrade",				playerGetItemGrade,					METH_VARARGS },
; 2289 : 		{ "CanRefine",					playerCanRefine,					METH_VARARGS },
; 2290 : 		{ "CanDetach",					playerCanDetach,					METH_VARARGS },
; 2291 : 		{ "CanUnlock",					playerCanUnlock,					METH_VARARGS },
; 2292 : 		{ "CanAttachMetin",				playerCanAttachMetin,				METH_VARARGS },
; 2293 : 		{ "IsRefineGradeScroll",		playerIsRefineGradeScroll,			METH_VARARGS },
; 2294 : 
; 2295 : 		{ "ClearTarget",				playerClearTarget,					METH_VARARGS },
; 2296 : 		{ "SetTarget",					playerSetTarget,					METH_VARARGS },
; 2297 : 		{ "OpenCharacterMenu",			playerOpenCharacterMenu,			METH_VARARGS },
; 2298 : 
; 2299 : 		{ "Update",						playerUpdate,						METH_VARARGS },
; 2300 : 		{ "Render",						playerRender,						METH_VARARGS },
; 2301 : 		{ "Clear",						playerClear,						METH_VARARGS },
; 2302 : 
; 2303 : 		// Party
; 2304 : 		{ "IsPartyMember",				playerIsPartyMember,				METH_VARARGS },
; 2305 : 		{ "IsPartyLeader",				playerIsPartyLeader,				METH_VARARGS },
; 2306 : 		{ "IsPartyLeaderByPID",			playerIsPartyLeaderByPID,			METH_VARARGS },
; 2307 : 		{ "GetPartyMemberHPPercentage",	playerGetPartyMemberHPPercentage,	METH_VARARGS },
; 2308 : 		{ "GetPartyMemberState",		playerGetPartyMemberState,			METH_VARARGS },
; 2309 : 		{ "GetPartyMemberAffects",		playerGetPartyMemberAffects,		METH_VARARGS },
; 2310 : 		{ "RemovePartyMember",			playerRemovePartyMember,			METH_VARARGS },
; 2311 : 		{ "ExitParty",					playerExitParty,					METH_VARARGS },
; 2312 : 
; 2313 : 		// PK Mode
; 2314 : 		{ "GetPKMode",					playerGetPKMode,					METH_VARARGS },
; 2315 : 
; 2316 : 		// Mobile
; 2317 : 		{ "HasMobilePhoneNumber",		playerHasMobilePhoneNumber,			METH_VARARGS },
; 2318 : 
; 2319 : 		// Emotion
; 2320 : 		{ "RegisterEmotionIcon",		playerRegisterEmotionIcon,			METH_VARARGS },
; 2321 : 		{ "GetEmotionIconImage",		playerGetEmotionIconImage,			METH_VARARGS },
; 2322 : 
; 2323 : 		// For System
; 2324 : 		{ "SetWeaponAttackBonusFlag",	playerSetWeaponAttackBonusFlag,		METH_VARARGS },
; 2325 : 		{ "ToggleCoolTime",				playerToggleCoolTime,				METH_VARARGS },
; 2326 : 		{ "ToggleLevelLimit",			playerToggleLevelLimit,				METH_VARARGS },
; 2327 : 		{ "GetTargetVID",				playerGetTargetVID,					METH_VARARGS },
; 2328 : 
; 2329 : 		{ "SetItemData",				playerSetItemData,					METH_VARARGS },
; 2330 : 		{ "SetItemMetinSocket",			playerSetItemMetinSocket,			METH_VARARGS },
; 2331 : 		{ "SetItemAttribute",			playerSetItemAttribute,				METH_VARARGS },
; 2332 : 		{ "SetItemCount",				playerSetItemCount,					METH_VARARGS },
; 2333 : 
; 2334 : 		{ "GetItemLink",				playerGetItemLink,					METH_VARARGS },
; 2335 : 		{ "SlotTypeToInvenType",		playerSlotTypeToInvenType,			METH_VARARGS },
; 2336 : 		{ "SendDragonSoulRefine",		playerSendDragonSoulRefine,			METH_VARARGS },
; 2337 : 
; 2338 : 		{ NULL,							NULL,								NULL },
; 2339 : 	};
; 2340 : 
; 2341 : 	PyObject* poModule = Py_InitModule("player", s_methods);

  00002	68 f5 03 00 00	 push	 1013			; 000003f5H
  00007	6a 00		 push	 0
  00009	6a 00		 push	 0
  0000b	68 00 00 00 00	 push	 OFFSET ?s_methods@?1??initPlayer@@YAXXZ@4PAUPyMethodDef@@A
  00010	68 00 00 00 00	 push	 OFFSET ??_C@_06BALNJMNP@player@
  00015	ff 15 00 00 00
	00		 call	 DWORD PTR __imp__Py_InitModule4

; 2342 :     PyModule_AddIntConstant(poModule, "LEVEL",					POINT_LEVEL);

  0001b	8b 35 00 00 00
	00		 mov	 esi, DWORD PTR __imp__PyModule_AddIntConstant
  00021	8b f8		 mov	 edi, eax
  00023	6a 01		 push	 1
  00025	68 00 00 00 00	 push	 OFFSET ??_C@_05GCEPFMCO@LEVEL@
  0002a	57		 push	 edi
  0002b	ff d6		 call	 esi

; 2343 :     PyModule_AddIntConstant(poModule, "VOICE",					POINT_VOICE);

  0002d	6a 02		 push	 2
  0002f	68 00 00 00 00	 push	 OFFSET ??_C@_05FHIHOFEA@VOICE@
  00034	57		 push	 edi
  00035	ff d6		 call	 esi

; 2344 :     PyModule_AddIntConstant(poModule, "EXP",					POINT_EXP);

  00037	6a 03		 push	 3
  00039	68 00 00 00 00	 push	 OFFSET ??_C@_03KKGFKKLA@EXP@
  0003e	57		 push	 edi
  0003f	ff d6		 call	 esi

; 2345 :     PyModule_AddIntConstant(poModule, "NEXT_EXP",				POINT_NEXT_EXP);

  00041	6a 04		 push	 4
  00043	68 00 00 00 00	 push	 OFFSET ??_C@_08CHGDMADF@NEXT_EXP@
  00048	57		 push	 edi
  00049	ff d6		 call	 esi
  0004b	83 c4 44	 add	 esp, 68			; 00000044H

; 2346 :     PyModule_AddIntConstant(poModule, "HP",						POINT_HP);

  0004e	6a 05		 push	 5
  00050	68 00 00 00 00	 push	 OFFSET ??_C@_02MEIMKHMB@HP@
  00055	57		 push	 edi
  00056	ff d6		 call	 esi

; 2347 :     PyModule_AddIntConstant(poModule, "MAX_HP",					POINT_MAX_HP);

  00058	6a 06		 push	 6
  0005a	68 00 00 00 00	 push	 OFFSET ??_C@_06NMHEPHCD@MAX_HP@
  0005f	57		 push	 edi
  00060	ff d6		 call	 esi

; 2348 :     PyModule_AddIntConstant(poModule, "SP",						POINT_SP);

  00062	6a 07		 push	 7
  00064	68 00 00 00 00	 push	 OFFSET ??_C@_02NEPPOLFA@SP@
  00069	57		 push	 edi
  0006a	ff d6		 call	 esi

; 2349 :     PyModule_AddIntConstant(poModule, "MAX_SP",					POINT_MAX_SP);

  0006c	6a 08		 push	 8
  0006e	68 00 00 00 00	 push	 OFFSET ??_C@_06MMAHLLLC@MAX_SP@
  00073	57		 push	 edi
  00074	ff d6		 call	 esi

; 2350 :     PyModule_AddIntConstant(poModule, "STAMINA",				POINT_STAMINA);

  00076	6a 09		 push	 9
  00078	68 00 00 00 00	 push	 OFFSET ??_C@_07IHPDJFBP@STAMINA@
  0007d	57		 push	 edi
  0007e	ff d6		 call	 esi

; 2351 :     PyModule_AddIntConstant(poModule, "MAX_STAMINA",			POINT_MAX_STAMINA);

  00080	6a 0a		 push	 10			; 0000000aH
  00082	68 00 00 00 00	 push	 OFFSET ??_C@_0M@CHCGLEDD@MAX_STAMINA@
  00087	57		 push	 edi
  00088	ff d6		 call	 esi
  0008a	83 c4 48	 add	 esp, 72			; 00000048H

; 2352 :     PyModule_AddIntConstant(poModule, "ELK",					POINT_GOLD);

  0008d	6a 0b		 push	 11			; 0000000bH
  0008f	68 00 00 00 00	 push	 OFFSET ??_C@_03BIHMGKIG@ELK@
  00094	57		 push	 edi
  00095	ff d6		 call	 esi

; 2353 :     PyModule_AddIntConstant(poModule, "ST",						POINT_ST);

  00097	6a 0c		 push	 12			; 0000000cH
  00099	68 00 00 00 00	 push	 OFFSET ??_C@_02LAJDCOFE@ST@
  0009e	57		 push	 edi
  0009f	ff d6		 call	 esi

; 2354 :     PyModule_AddIntConstant(poModule, "HT",						POINT_HT);

  000a1	6a 0d		 push	 13			; 0000000dH
  000a3	68 00 00 00 00	 push	 OFFSET ??_C@_02KAOAGCMF@HT@
  000a8	57		 push	 edi
  000a9	ff d6		 call	 esi

; 2355 :     PyModule_AddIntConstant(poModule, "DX",						POINT_DX);

  000ab	6a 0e		 push	 14			; 0000000eH
  000ad	68 00 00 00 00	 push	 OFFSET ??_C@_02FEPNEKN@DX@
  000b2	57		 push	 edi
  000b3	ff d6		 call	 esi

; 2356 :     PyModule_AddIntConstant(poModule, "IQ",						POINT_IQ);

  000b5	6a 0f		 push	 15			; 0000000fH
  000b7	68 00 00 00 00	 push	 OFFSET ??_C@_02NMFFPMLH@IQ@
  000bc	57		 push	 edi
  000bd	ff d6		 call	 esi

; 2357 :     PyModule_AddIntConstant(poModule, "ATT_POWER",				POINT_ATT_POWER);

  000bf	6a 10		 push	 16			; 00000010H
  000c1	68 00 00 00 00	 push	 OFFSET ??_C@_09DIGJAPIG@ATT_POWER@
  000c6	57		 push	 edi
  000c7	ff d6		 call	 esi
  000c9	83 c4 48	 add	 esp, 72			; 00000048H

; 2358 : 	PyModule_AddIntConstant(poModule, "ATT_MIN",				POINT_MIN_ATK);

  000cc	6a 1d		 push	 29			; 0000001dH
  000ce	68 00 00 00 00	 push	 OFFSET ??_C@_07PNODGJJO@ATT_MIN@
  000d3	57		 push	 edi
  000d4	ff d6		 call	 esi

; 2359 : 	PyModule_AddIntConstant(poModule, "ATT_MAX",				POINT_MAX_ATK);

  000d6	6a 1e		 push	 30			; 0000001eH
  000d8	68 00 00 00 00	 push	 OFFSET ??_C@_07OPGIINPB@ATT_MAX@
  000dd	57		 push	 edi
  000de	ff d6		 call	 esi

; 2360 : 	PyModule_AddIntConstant(poModule, "MIN_MAGIC_WEP",			POINT_MIN_MAGIC_WEP);

  000e0	68 ca 00 00 00	 push	 202			; 000000caH
  000e5	68 00 00 00 00	 push	 OFFSET ??_C@_0O@CJNCLCGL@MIN_MAGIC_WEP@
  000ea	57		 push	 edi
  000eb	ff d6		 call	 esi

; 2361 : 	PyModule_AddIntConstant(poModule, "MAX_MAGIC_WEP",			POINT_MAX_MAGIC_WEP);

  000ed	68 cb 00 00 00	 push	 203			; 000000cbH
  000f2	68 00 00 00 00	 push	 OFFSET ??_C@_0O@JAPECJBK@MAX_MAGIC_WEP@
  000f7	57		 push	 edi
  000f8	ff d6		 call	 esi

; 2362 :     PyModule_AddIntConstant(poModule, "ATT_SPEED",				POINT_ATT_SPEED);

  000fa	6a 11		 push	 17			; 00000011H
  000fc	68 00 00 00 00	 push	 OFFSET ??_C@_09LKMFFHLI@ATT_SPEED@
  00101	57		 push	 edi
  00102	ff d6		 call	 esi

; 2363 : 	PyModule_AddIntConstant(poModule, "ATT_BONUS",				POINT_ATT_GRADE_BONUS);

  00104	6a 5f		 push	 95			; 0000005fH
  00106	68 00 00 00 00	 push	 OFFSET ??_C@_09FOFLCGDC@ATT_BONUS@
  0010b	57		 push	 edi
  0010c	ff d6		 call	 esi
  0010e	83 c4 48	 add	 esp, 72			; 00000048H

; 2364 :     PyModule_AddIntConstant(poModule, "EVADE_RATE",				POINT_EVADE_RATE);

  00111	6a 12		 push	 18			; 00000012H
  00113	68 00 00 00 00	 push	 OFFSET ??_C@_0L@IPHIKIMB@EVADE_RATE@
  00118	57		 push	 edi
  00119	ff d6		 call	 esi

; 2365 :     PyModule_AddIntConstant(poModule, "MOVING_SPEED",			POINT_MOV_SPEED);

  0011b	6a 13		 push	 19			; 00000013H
  0011d	68 00 00 00 00	 push	 OFFSET ??_C@_0N@KGGLAJKM@MOVING_SPEED@
  00122	57		 push	 edi
  00123	ff d6		 call	 esi

; 2366 :     PyModule_AddIntConstant(poModule, "DEF_GRADE",				POINT_DEF_GRADE);

  00125	6a 14		 push	 20			; 00000014H
  00127	68 00 00 00 00	 push	 OFFSET ??_C@_09KMPFCDFE@DEF_GRADE@
  0012c	57		 push	 edi
  0012d	ff d6		 call	 esi

; 2367 :     PyModule_AddIntConstant(poModule, "DEF_BONUS",				POINT_DEF_GRADE_BONUS);

  0012f	6a 60		 push	 96			; 00000060H
  00131	68 00 00 00 00	 push	 OFFSET ??_C@_09DNFHINBC@DEF_BONUS@
  00136	57		 push	 edi
  00137	ff d6		 call	 esi

; 2368 :     PyModule_AddIntConstant(poModule, "CASTING_SPEED",			POINT_CASTING_SPEED);

  00139	6a 15		 push	 21			; 00000015H
  0013b	68 00 00 00 00	 push	 OFFSET ??_C@_0O@IOLIEEIE@CASTING_SPEED@
  00140	57		 push	 edi
  00141	ff d6		 call	 esi

; 2369 :     PyModule_AddIntConstant(poModule, "MAG_ATT",				POINT_MAGIC_ATT_GRADE);

  00143	6a 16		 push	 22			; 00000016H
  00145	68 00 00 00 00	 push	 OFFSET ??_C@_07PEONMKMN@MAG_ATT@
  0014a	57		 push	 edi
  0014b	ff d6		 call	 esi
  0014d	83 c4 48	 add	 esp, 72			; 00000048H

; 2370 :     PyModule_AddIntConstant(poModule, "MAG_DEF",				POINT_MAGIC_DEF_GRADE);

  00150	6a 17		 push	 23			; 00000017H
  00152	68 00 00 00 00	 push	 OFFSET ??_C@_07KGCDIDGL@MAG_DEF@
  00157	57		 push	 edi
  00158	ff d6		 call	 esi

; 2371 :     PyModule_AddIntConstant(poModule, "EMPIRE_POINT",			POINT_EMPIRE_POINT);

  0015a	6a 18		 push	 24			; 00000018H
  0015c	68 00 00 00 00	 push	 OFFSET ??_C@_0N@JIFCAIPA@EMPIRE_POINT@
  00161	57		 push	 edi
  00162	ff d6		 call	 esi

; 2372 : 	PyModule_AddIntConstant(poModule, "STAT",					POINT_STAT);

  00164	6a 1a		 push	 26			; 0000001aH
  00166	68 00 00 00 00	 push	 OFFSET ??_C@_04KNIOFKKL@STAT@
  0016b	57		 push	 edi
  0016c	ff d6		 call	 esi

; 2373 : 	PyModule_AddIntConstant(poModule, "SKILL_PASSIVE",			POINT_SUB_SKILL);

  0016e	6a 1b		 push	 27			; 0000001bH
  00170	68 00 00 00 00	 push	 OFFSET ??_C@_0O@DGEPJFAK@SKILL_PASSIVE@
  00175	57		 push	 edi
  00176	ff d6		 call	 esi

; 2374 : 	PyModule_AddIntConstant(poModule, "SKILL_SUPPORT",			POINT_SUB_SKILL);

  00178	6a 1b		 push	 27			; 0000001bH
  0017a	68 00 00 00 00	 push	 OFFSET ??_C@_0O@JLNOPGFK@SKILL_SUPPORT@
  0017f	57		 push	 edi
  00180	ff d6		 call	 esi

; 2375 : 	PyModule_AddIntConstant(poModule, "SKILL_ACTIVE",			POINT_SKILL);

  00182	6a 1c		 push	 28			; 0000001cH
  00184	68 00 00 00 00	 push	 OFFSET ??_C@_0N@DNBJLBPA@SKILL_ACTIVE@
  00189	57		 push	 edi
  0018a	ff d6		 call	 esi
  0018c	83 c4 48	 add	 esp, 72			; 00000048H

; 2376 : 	PyModule_AddIntConstant(poModule, "SKILL_HORSE",			POINT_HORSE_SKILL);

  0018f	6a 71		 push	 113			; 00000071H
  00191	68 00 00 00 00	 push	 OFFSET ??_C@_0M@HAFIBGFL@SKILL_HORSE@
  00196	57		 push	 edi
  00197	ff d6		 call	 esi

; 2377 : 	PyModule_AddIntConstant(poModule, "PLAYTIME",				POINT_PLAYTIME);

  00199	6a 1f		 push	 31			; 0000001fH
  0019b	68 00 00 00 00	 push	 OFFSET ??_C@_08CKIIBBI@PLAYTIME@
  001a0	57		 push	 edi
  001a1	ff d6		 call	 esi

; 2378 : 	PyModule_AddIntConstant(poModule, "BOW_DISTANCE",			POINT_BOW_DISTANCE);

  001a3	6a 22		 push	 34			; 00000022H
  001a5	68 00 00 00 00	 push	 OFFSET ??_C@_0N@KHDDEEFG@BOW_DISTANCE@
  001aa	57		 push	 edi
  001ab	ff d6		 call	 esi

; 2379 : 	PyModule_AddIntConstant(poModule, "HP_RECOVERY",			POINT_HP_RECOVERY);

  001ad	6a 23		 push	 35			; 00000023H
  001af	68 00 00 00 00	 push	 OFFSET ??_C@_0M@CLAIAEPM@HP_RECOVERY@
  001b4	57		 push	 edi
  001b5	ff d6		 call	 esi

; 2380 : 	PyModule_AddIntConstant(poModule, "SP_RECOVERY",			POINT_SP_RECOVERY);

  001b7	6a 24		 push	 36			; 00000024H
  001b9	68 00 00 00 00	 push	 OFFSET ??_C@_0M@FGICENAO@SP_RECOVERY@
  001be	57		 push	 edi
  001bf	ff d6		 call	 esi

; 2381 : 	PyModule_AddIntConstant(poModule, "ATTACKER_BONUS",			POINT_PARTY_ATT_GRADE);

  001c1	6a 5b		 push	 91			; 0000005bH
  001c3	68 00 00 00 00	 push	 OFFSET ??_C@_0P@GAAMLPFK@ATTACKER_BONUS@
  001c8	57		 push	 edi
  001c9	ff d6		 call	 esi
  001cb	83 c4 48	 add	 esp, 72			; 00000048H

; 2382 :     PyModule_AddIntConstant(poModule, "MAX_NUM",				POINT_MAX_NUM);

  001ce	68 ff 00 00 00	 push	 255			; 000000ffH
  001d3	68 00 00 00 00	 push	 OFFSET ??_C@_07MEMMKJPK@MAX_NUM@
  001d8	57		 push	 edi
  001d9	ff d6		 call	 esi

; 2383 : 	////
; 2384 : 	PyModule_AddIntConstant(poModule, "POINT_CRITICAL_PCT",		POINT_CRITICAL_PCT);

  001db	6a 28		 push	 40			; 00000028H
  001dd	68 00 00 00 00	 push	 OFFSET ??_C@_0BD@CPEECKKP@POINT_CRITICAL_PCT@
  001e2	57		 push	 edi
  001e3	ff d6		 call	 esi

; 2385 : 	PyModule_AddIntConstant(poModule, "POINT_PENETRATE_PCT",	POINT_PENETRATE_PCT);

  001e5	6a 29		 push	 41			; 00000029H
  001e7	68 00 00 00 00	 push	 OFFSET ??_C@_0BE@BGNEFMNJ@POINT_PENETRATE_PCT@
  001ec	57		 push	 edi
  001ed	ff d6		 call	 esi

; 2386 : 	PyModule_AddIntConstant(poModule, "POINT_MALL_ATTBONUS",	POINT_MALL_ATTBONUS);

  001ef	6a 72		 push	 114			; 00000072H
  001f1	68 00 00 00 00	 push	 OFFSET ??_C@_0BE@FDGMKOPN@POINT_MALL_ATTBONUS@
  001f6	57		 push	 edi
  001f7	ff d6		 call	 esi

; 2387 : 	PyModule_AddIntConstant(poModule, "POINT_MALL_DEFBONUS",	POINT_MALL_DEFBONUS);

  001f9	6a 73		 push	 115			; 00000073H
  001fb	68 00 00 00 00	 push	 OFFSET ??_C@_0BE@FJKLFHOA@POINT_MALL_DEFBONUS@
  00200	57		 push	 edi
  00201	ff d6		 call	 esi

; 2388 : 	PyModule_AddIntConstant(poModule, "POINT_MALL_EXPBONUS",	POINT_MALL_EXPBONUS);

  00203	6a 74		 push	 116			; 00000074H
  00205	68 00 00 00 00	 push	 OFFSET ??_C@_0BE@KNGAMOKN@POINT_MALL_EXPBONUS@
  0020a	57		 push	 edi
  0020b	ff d6		 call	 esi
  0020d	83 c4 48	 add	 esp, 72			; 00000048H

; 2389 : 	PyModule_AddIntConstant(poModule, "POINT_MALL_ITEMBONUS",	POINT_MALL_ITEMBONUS);

  00210	6a 75		 push	 117			; 00000075H
  00212	68 00 00 00 00	 push	 OFFSET ??_C@_0BF@FCMHLHC@POINT_MALL_ITEMBONUS@
  00217	57		 push	 edi
  00218	ff d6		 call	 esi

; 2390 : 	PyModule_AddIntConstant(poModule, "POINT_MALL_GOLDBONUS",	POINT_MALL_GOLDBONUS);

  0021a	6a 76		 push	 118			; 00000076H
  0021c	68 00 00 00 00	 push	 OFFSET ??_C@_0BF@LPKHMJJF@POINT_MALL_GOLDBONUS@
  00221	57		 push	 edi
  00222	ff d6		 call	 esi

; 2391 : 	PyModule_AddIntConstant(poModule, "POINT_MAX_HP_PCT",		POINT_MAX_HP_PCT);

  00224	6a 77		 push	 119			; 00000077H
  00226	68 00 00 00 00	 push	 OFFSET ??_C@_0BB@OCODMABI@POINT_MAX_HP_PCT@
  0022b	57		 push	 edi
  0022c	ff d6		 call	 esi

; 2392 : 	PyModule_AddIntConstant(poModule, "POINT_MAX_SP_PCT",		POINT_MAX_SP_PCT);

  0022e	6a 78		 push	 120			; 00000078H
  00230	68 00 00 00 00	 push	 OFFSET ??_C@_0BB@IHDKAICM@POINT_MAX_SP_PCT@
  00235	57		 push	 edi
  00236	ff d6		 call	 esi

; 2393 : 
; 2394 : 	PyModule_AddIntConstant(poModule, "POINT_SKILL_DAMAGE_BONUS",		POINT_SKILL_DAMAGE_BONUS);

  00238	6a 79		 push	 121			; 00000079H
  0023a	68 00 00 00 00	 push	 OFFSET ??_C@_0BJ@PGEFOCDG@POINT_SKILL_DAMAGE_BONUS@
  0023f	57		 push	 edi
  00240	ff d6		 call	 esi

; 2395 : 	PyModule_AddIntConstant(poModule, "POINT_NORMAL_HIT_DAMAGE_BONUS",		POINT_NORMAL_HIT_DAMAGE_BONUS);

  00242	6a 7a		 push	 122			; 0000007aH
  00244	68 00 00 00 00	 push	 OFFSET ??_C@_0BO@GNDIKOOF@POINT_NORMAL_HIT_DAMAGE_BONUS@
  00249	57		 push	 edi
  0024a	ff d6		 call	 esi
  0024c	83 c4 48	 add	 esp, 72			; 00000048H

; 2396 : 	PyModule_AddIntConstant(poModule, "POINT_SKILL_DEFEND_BONUS",		POINT_SKILL_DEFEND_BONUS);

  0024f	6a 7b		 push	 123			; 0000007bH
  00251	68 00 00 00 00	 push	 OFFSET ??_C@_0BJ@LPIAEILC@POINT_SKILL_DEFEND_BONUS@
  00256	57		 push	 edi
  00257	ff d6		 call	 esi

; 2397 : 	PyModule_AddIntConstant(poModule, "POINT_NORMAL_HIT_DEFEND_BONUS",		POINT_NORMAL_HIT_DEFEND_BONUS);

  00259	6a 7c		 push	 124			; 0000007cH
  0025b	68 00 00 00 00	 push	 OFFSET ??_C@_0BO@CEPNAEGB@POINT_NORMAL_HIT_DEFEND_BONUS@
  00260	57		 push	 edi
  00261	ff d6		 call	 esi

; 2398 : 	PyModule_AddIntConstant(poModule, "POINT_PC_BANG_EXP_BONUS",		POINT_PC_BANG_EXP_BONUS);

  00263	6a 7d		 push	 125			; 0000007dH
  00265	68 00 00 00 00	 push	 OFFSET ??_C@_0BI@BAKJJELL@POINT_PC_BANG_EXP_BONUS@
  0026a	57		 push	 edi
  0026b	ff d6		 call	 esi

; 2399 : 	PyModule_AddIntConstant(poModule, "POINT_PC_BANG_DROP_BONUS",		POINT_PC_BANG_DROP_BONUS);

  0026d	6a 7e		 push	 126			; 0000007eH
  0026f	68 00 00 00 00	 push	 OFFSET ??_C@_0BJ@LFKCHGEO@POINT_PC_BANG_DROP_BONUS@
  00274	57		 push	 edi
  00275	ff d6		 call	 esi

; 2400 : 
; 2401 : 	PyModule_AddIntConstant(poModule, "ENERGY",		POINT_ENERGY);

  00277	68 80 00 00 00	 push	 128			; 00000080H
  0027c	68 00 00 00 00	 push	 OFFSET ??_C@_06KOEJHMAL@ENERGY@
  00281	57		 push	 edi
  00282	ff d6		 call	 esi

; 2402 : 	PyModule_AddIntConstant(poModule, "ENERGY_END_TIME",		POINT_ENERGY_END_TIME);

  00284	68 81 00 00 00	 push	 129			; 00000081H
  00289	68 00 00 00 00	 push	 OFFSET ??_C@_0BA@PIHNCBED@ENERGY_END_TIME@
  0028e	57		 push	 edi
  0028f	ff d6		 call	 esi
  00291	83 c4 48	 add	 esp, 72			; 00000048H

; 2403 : 
; 2404 :     PyModule_AddIntConstant(poModule, "SKILL_GRADE_NORMAL",			CPythonPlayer::SKILL_NORMAL);

  00294	6a 00		 push	 0
  00296	68 00 00 00 00	 push	 OFFSET ??_C@_0BD@LAKFNFGD@SKILL_GRADE_NORMAL@
  0029b	57		 push	 edi
  0029c	ff d6		 call	 esi

; 2405 :     PyModule_AddIntConstant(poModule, "SKILL_GRADE_MASTER",			CPythonPlayer::SKILL_MASTER);

  0029e	6a 01		 push	 1
  002a0	68 00 00 00 00	 push	 OFFSET ??_C@_0BD@HIHOAICI@SKILL_GRADE_MASTER@
  002a5	57		 push	 edi
  002a6	ff d6		 call	 esi

; 2406 :     PyModule_AddIntConstant(poModule, "SKILL_GRADE_GRAND_MASTER",	CPythonPlayer::SKILL_GRAND_MASTER);

  002a8	6a 02		 push	 2
  002aa	68 00 00 00 00	 push	 OFFSET ??_C@_0BJ@CFOEIGCN@SKILL_GRADE_GRAND_MASTER@
  002af	57		 push	 edi
  002b0	ff d6		 call	 esi

; 2407 :     PyModule_AddIntConstant(poModule, "SKILL_GRADE_PERFECT_MASTER",	CPythonPlayer::SKILL_PERFECT_MASTER);

  002b2	6a 03		 push	 3
  002b4	68 00 00 00 00	 push	 OFFSET ??_C@_0BL@DCIPLDCA@SKILL_GRADE_PERFECT_MASTER@
  002b9	57		 push	 edi
  002ba	ff d6		 call	 esi

; 2408 : 
; 2409 : 	PyModule_AddIntConstant(poModule, "CATEGORY_ACTIVE",		CPythonPlayer::CATEGORY_ACTIVE);

  002bc	6a 01		 push	 1
  002be	68 00 00 00 00	 push	 OFFSET ??_C@_0BA@LCKKFCJM@CATEGORY_ACTIVE@
  002c3	57		 push	 edi
  002c4	ff d6		 call	 esi

; 2410 : 	PyModule_AddIntConstant(poModule, "CATEGORY_PASSIVE",		CPythonPlayer::CATEGORY_PASSIVE);

  002c6	6a 02		 push	 2
  002c8	68 00 00 00 00	 push	 OFFSET ??_C@_0BB@HCMEALJK@CATEGORY_PASSIVE@
  002cd	57		 push	 edi
  002ce	ff d6		 call	 esi
  002d0	83 c4 48	 add	 esp, 72			; 00000048H

; 2411 : 
; 2412 : 	PyModule_AddIntConstant(poModule, "INVENTORY_PAGE_SIZE",	c_Inventory_Page_Size);

  002d3	6a 2d		 push	 45			; 0000002dH
  002d5	68 00 00 00 00	 push	 OFFSET ??_C@_0BE@CEBDMLGH@INVENTORY_PAGE_SIZE@
  002da	57		 push	 edi
  002db	ff d6		 call	 esi

; 2413 : 	PyModule_AddIntConstant(poModule, "INVENTORY_PAGE_COUNT",	c_Inventory_Page_Count);

  002dd	6a 02		 push	 2
  002df	68 00 00 00 00	 push	 OFFSET ??_C@_0BF@NFIFHHOM@INVENTORY_PAGE_COUNT@
  002e4	57		 push	 edi
  002e5	ff d6		 call	 esi

; 2414 : 	PyModule_AddIntConstant(poModule, "INVENTORY_SLOT_COUNT",	c_Inventory_Count);

  002e7	68 a8 00 00 00	 push	 168			; 000000a8H
  002ec	68 00 00 00 00	 push	 OFFSET ??_C@_0BF@LCFAAJPA@INVENTORY_SLOT_COUNT@
  002f1	57		 push	 edi
  002f2	ff d6		 call	 esi

; 2415 : 	PyModule_AddIntConstant(poModule, "EQUIPMENT_SLOT_START",	c_Equipment_Start);

  002f4	6a 5a		 push	 90			; 0000005aH
  002f6	68 00 00 00 00	 push	 OFFSET ??_C@_0BF@HJEBPPMM@EQUIPMENT_SLOT_START@
  002fb	57		 push	 edi
  002fc	ff d6		 call	 esi

; 2416 : 	PyModule_AddIntConstant(poModule, "EQUIPMENT_PAGE_COUNT",	c_Equipment_Count);

  002fe	6a 0c		 push	 12			; 0000000cH
  00300	68 00 00 00 00	 push	 OFFSET ??_C@_0BF@MADFLPAE@EQUIPMENT_PAGE_COUNT@
  00305	57		 push	 edi
  00306	ff d6		 call	 esi

; 2417 : 
; 2418 : #ifdef ENABLE_NEW_EQUIPMENT_SYSTEM
; 2419 : 	PyModule_AddIntConstant(poModule, "NEW_EQUIPMENT_SLOT_START",	c_New_Equipment_Start);

  00308	6a 6f		 push	 111			; 0000006fH
  0030a	68 00 00 00 00	 push	 OFFSET ??_C@_0BJ@COKKCHPJ@NEW_EQUIPMENT_SLOT_START@
  0030f	57		 push	 edi
  00310	ff d6		 call	 esi
  00312	83 c4 48	 add	 esp, 72			; 00000048H

; 2420 : 	PyModule_AddIntConstant(poModule, "NEW_EQUIPMENT_SLOT_COUNT",	c_New_Equipment_Count);

  00315	6a 03		 push	 3
  00317	68 00 00 00 00	 push	 OFFSET ??_C@_0BJ@PAALBJCN@NEW_EQUIPMENT_SLOT_COUNT@
  0031c	57		 push	 edi
  0031d	ff d6		 call	 esi

; 2421 : #endif
; 2422 : 
; 2423 : 	PyModule_AddIntConstant(poModule, "MBF_SKILL",	CPythonPlayer::MBF_SKILL);

  0031f	6a 04		 push	 4
  00321	68 00 00 00 00	 push	 OFFSET ??_C@_09NLFDBCDH@MBF_SKILL@
  00326	57		 push	 edi
  00327	ff d6		 call	 esi

; 2424 : 	PyModule_AddIntConstant(poModule, "MBF_ATTACK",	CPythonPlayer::MBF_ATTACK);

  00329	6a 03		 push	 3
  0032b	68 00 00 00 00	 push	 OFFSET ??_C@_0L@MIGMJBKJ@MBF_ATTACK@
  00330	57		 push	 edi
  00331	ff d6		 call	 esi

; 2425 : 	PyModule_AddIntConstant(poModule, "MBF_CAMERA",	CPythonPlayer::MBF_CAMERA);

  00333	6a 02		 push	 2
  00335	68 00 00 00 00	 push	 OFFSET ??_C@_0L@JHBFAMB@MBF_CAMERA@
  0033a	57		 push	 edi
  0033b	ff d6		 call	 esi

; 2426 : 	PyModule_AddIntConstant(poModule, "MBF_SMART",	CPythonPlayer::MBF_SMART);

  0033d	6a 00		 push	 0
  0033f	68 00 00 00 00	 push	 OFFSET ??_C@_09FAENJFL@MBF_SMART@
  00344	57		 push	 edi
  00345	ff d6		 call	 esi

; 2427 : 	PyModule_AddIntConstant(poModule, "MBF_MOVE",	CPythonPlayer::MBF_MOVE);

  00347	6a 01		 push	 1
  00349	68 00 00 00 00	 push	 OFFSET ??_C@_08BLLANCB@MBF_MOVE@
  0034e	57		 push	 edi
  0034f	ff d6		 call	 esi
  00351	83 c4 48	 add	 esp, 72			; 00000048H

; 2428 : 	PyModule_AddIntConstant(poModule, "MBF_AUTO",	CPythonPlayer::MBF_AUTO);

  00354	6a 05		 push	 5
  00356	68 00 00 00 00	 push	 OFFSET ??_C@_08CIEGLDP@MBF_AUTO@
  0035b	57		 push	 edi
  0035c	ff d6		 call	 esi

; 2429 : 	PyModule_AddIntConstant(poModule, "MBS_PRESS",	CPythonPlayer::MBS_PRESS);

  0035e	6a 01		 push	 1
  00360	68 00 00 00 00	 push	 OFFSET ??_C@_09JEJKPPEO@MBS_PRESS@
  00365	57		 push	 edi
  00366	ff d6		 call	 esi

; 2430 : 	PyModule_AddIntConstant(poModule, "MBS_CLICK",	CPythonPlayer::MBS_CLICK);

  00368	6a 00		 push	 0
  0036a	68 00 00 00 00	 push	 OFFSET ??_C@_09BKODCCAJ@MBS_CLICK@
  0036f	57		 push	 edi
  00370	ff d6		 call	 esi

; 2431 : 	PyModule_AddIntConstant(poModule, "MBT_RIGHT",	CPythonPlayer::MBT_RIGHT);

  00372	6a 01		 push	 1
  00374	68 00 00 00 00	 push	 OFFSET ??_C@_09DBJMODBC@MBT_RIGHT@
  00379	57		 push	 edi
  0037a	ff d6		 call	 esi

; 2432 : 	PyModule_AddIntConstant(poModule, "MBT_LEFT",	CPythonPlayer::MBT_LEFT);

  0037c	6a 00		 push	 0
  0037e	68 00 00 00 00	 push	 OFFSET ??_C@_08OMNIMJHC@MBT_LEFT@
  00383	57		 push	 edi
  00384	ff d6		 call	 esi

; 2433 : 
; 2434 : 	// Public code with server
; 2435 : 	PyModule_AddIntConstant(poModule, "SLOT_TYPE_NONE",						SLOT_TYPE_NONE);

  00386	6a 00		 push	 0
  00388	68 00 00 00 00	 push	 OFFSET ??_C@_0P@JBDPGPGM@SLOT_TYPE_NONE@
  0038d	57		 push	 edi
  0038e	ff d6		 call	 esi
  00390	83 c4 48	 add	 esp, 72			; 00000048H

; 2436 : 	PyModule_AddIntConstant(poModule, "SLOT_TYPE_INVENTORY",				SLOT_TYPE_INVENTORY);

  00393	6a 01		 push	 1
  00395	68 00 00 00 00	 push	 OFFSET ??_C@_0BE@BNOEBHPE@SLOT_TYPE_INVENTORY@
  0039a	57		 push	 edi
  0039b	ff d6		 call	 esi

; 2437 : 	PyModule_AddIntConstant(poModule, "SLOT_TYPE_SKILL",					SLOT_TYPE_SKILL);

  0039d	6a 02		 push	 2
  0039f	68 00 00 00 00	 push	 OFFSET ??_C@_0BA@MAJHKGKG@SLOT_TYPE_SKILL@
  003a4	57		 push	 edi
  003a5	ff d6		 call	 esi

; 2438 : 	// Special indecies for client
; 2439 : 	PyModule_AddIntConstant(poModule, "SLOT_TYPE_SHOP",						SLOT_TYPE_SHOP);

  003a7	6a 04		 push	 4
  003a9	68 00 00 00 00	 push	 OFFSET ??_C@_0P@KCOPIIMF@SLOT_TYPE_SHOP@
  003ae	57		 push	 edi
  003af	ff d6		 call	 esi

; 2440 : 	PyModule_AddIntConstant(poModule, "SLOT_TYPE_EXCHANGE_OWNER",			SLOT_TYPE_EXCHANGE_OWNER);

  003b1	6a 05		 push	 5
  003b3	68 00 00 00 00	 push	 OFFSET ??_C@_0BJ@DBNHPJKE@SLOT_TYPE_EXCHANGE_OWNER@
  003b8	57		 push	 edi
  003b9	ff d6		 call	 esi

; 2441 : 	PyModule_AddIntConstant(poModule, "SLOT_TYPE_EXCHANGE_TARGET",			SLOT_TYPE_EXCHANGE_TARGET);

  003bb	6a 06		 push	 6
  003bd	68 00 00 00 00	 push	 OFFSET ??_C@_0BK@KJHLAGBH@SLOT_TYPE_EXCHANGE_TARGET@
  003c2	57		 push	 edi
  003c3	ff d6		 call	 esi

; 2442 : 	PyModule_AddIntConstant(poModule, "SLOT_TYPE_QUICK_SLOT",				SLOT_TYPE_QUICK_SLOT);

  003c5	6a 07		 push	 7
  003c7	68 00 00 00 00	 push	 OFFSET ??_C@_0BF@CPPFMLHN@SLOT_TYPE_QUICK_SLOT@
  003cc	57		 push	 edi
  003cd	ff d6		 call	 esi
  003cf	83 c4 48	 add	 esp, 72			; 00000048H

; 2443 : 	PyModule_AddIntConstant(poModule, "SLOT_TYPE_SAFEBOX",					SLOT_TYPE_SAFEBOX);

  003d2	6a 08		 push	 8
  003d4	68 00 00 00 00	 push	 OFFSET ??_C@_0BC@HGKFDIFN@SLOT_TYPE_SAFEBOX@
  003d9	57		 push	 edi
  003da	ff d6		 call	 esi

; 2444 : 	PyModule_AddIntConstant(poModule, "SLOT_TYPE_PRIVATE_SHOP",				SLOT_TYPE_PRIVATE_SHOP);

  003dc	6a 09		 push	 9
  003de	68 00 00 00 00	 push	 OFFSET ??_C@_0BH@MJAEADNE@SLOT_TYPE_PRIVATE_SHOP@
  003e3	57		 push	 edi
  003e4	ff d6		 call	 esi

; 2445 : 	PyModule_AddIntConstant(poModule, "SLOT_TYPE_MALL",						SLOT_TYPE_MALL);

  003e6	6a 0a		 push	 10			; 0000000aH
  003e8	68 00 00 00 00	 push	 OFFSET ??_C@_0P@OEAGANKI@SLOT_TYPE_MALL@
  003ed	57		 push	 edi
  003ee	ff d6		 call	 esi

; 2446 : 	PyModule_AddIntConstant(poModule, "SLOT_TYPE_EMOTION",					SLOT_TYPE_EMOTION);

  003f0	6a 03		 push	 3
  003f2	68 00 00 00 00	 push	 OFFSET ??_C@_0BC@LKMHLHKJ@SLOT_TYPE_EMOTION@
  003f7	57		 push	 edi
  003f8	ff d6		 call	 esi

; 2447 : 	PyModule_AddIntConstant(poModule, "SLOT_TYPE_DRAGON_SOUL_INVENTORY",	SLOT_TYPE_DRAGON_SOUL_INVENTORY);

  003fa	6a 0b		 push	 11			; 0000000bH
  003fc	68 00 00 00 00	 push	 OFFSET ??_C@_0CA@FHKIPOOP@SLOT_TYPE_DRAGON_SOUL_INVENTORY@
  00401	57		 push	 edi
  00402	ff d6		 call	 esi

; 2448 : 
; 2449 : 	PyModule_AddIntConstant(poModule, "RESERVED_WINDOW",					RESERVED_WINDOW);

  00404	6a 00		 push	 0
  00406	68 00 00 00 00	 push	 OFFSET ??_C@_0BA@NKAFFIGF@RESERVED_WINDOW@
  0040b	57		 push	 edi
  0040c	ff d6		 call	 esi
  0040e	83 c4 48	 add	 esp, 72			; 00000048H

; 2450 : 	PyModule_AddIntConstant(poModule, "INVENTORY",							INVENTORY);

  00411	6a 01		 push	 1
  00413	68 00 00 00 00	 push	 OFFSET ??_C@_09NCAHJFFG@INVENTORY@
  00418	57		 push	 edi
  00419	ff d6		 call	 esi

; 2451 : 	PyModule_AddIntConstant(poModule, "EQUIPMENT",							EQUIPMENT);

  0041b	6a 02		 push	 2
  0041d	68 00 00 00 00	 push	 OFFSET ??_C@_09GJGOMHMK@EQUIPMENT@
  00422	57		 push	 edi
  00423	ff d6		 call	 esi

; 2452 : 	PyModule_AddIntConstant(poModule, "SAFEBOX",							SAFEBOX);

  00425	6a 03		 push	 3
  00427	68 00 00 00 00	 push	 OFFSET ??_C@_07NCKDBJCB@SAFEBOX@
  0042c	57		 push	 edi
  0042d	ff d6		 call	 esi

; 2453 : 	PyModule_AddIntConstant(poModule, "MALL",								MALL);

  0042f	6a 04		 push	 4
  00431	68 00 00 00 00	 push	 OFFSET ??_C@_04JPFKNPOP@MALL@
  00436	57		 push	 edi
  00437	ff d6		 call	 esi

; 2454 : 	PyModule_AddIntConstant(poModule, "DRAGON_SOUL_INVENTORY",				DRAGON_SOUL_INVENTORY);

  00439	6a 05		 push	 5
  0043b	68 00 00 00 00	 push	 OFFSET ??_C@_0BG@FHEDCCNN@DRAGON_SOUL_INVENTORY@
  00440	57		 push	 edi
  00441	ff d6		 call	 esi

; 2455 : 	PyModule_AddIntConstant(poModule, "GROUND",								GROUND);

  00443	6a 06		 push	 6
  00445	68 00 00 00 00	 push	 OFFSET ??_C@_06GKBINIEJ@GROUND@
  0044a	57		 push	 edi
  0044b	ff d6		 call	 esi
  0044d	83 c4 48	 add	 esp, 72			; 00000048H

; 2456 : 
; 2457 : 	PyModule_AddIntConstant(poModule, "ITEM_MONEY",					-1);

  00450	6a ff		 push	 -1
  00452	68 00 00 00 00	 push	 OFFSET ??_C@_0L@HFAEBHHD@ITEM_MONEY@
  00457	57		 push	 edi
  00458	ff d6		 call	 esi

; 2458 : 
; 2459 : 	PyModule_AddIntConstant(poModule, "SKILL_SLOT_COUNT",			SKILL_MAX_NUM);

  0045a	68 ff 00 00 00	 push	 255			; 000000ffH
  0045f	68 00 00 00 00	 push	 OFFSET ??_C@_0BB@IOEKBHAE@SKILL_SLOT_COUNT@
  00464	57		 push	 edi
  00465	ff d6		 call	 esi

; 2460 : 
; 2461 : 	PyModule_AddIntConstant(poModule, "EFFECT_PICK",				CPythonPlayer::EFFECT_PICK);

  00467	6a 00		 push	 0
  00469	68 00 00 00 00	 push	 OFFSET ??_C@_0M@CHLINENA@EFFECT_PICK@
  0046e	57		 push	 edi
  0046f	ff d6		 call	 esi

; 2462 : 
; 2463 : 	PyModule_AddIntConstant(poModule, "METIN_SOCKET_TYPE_NONE",					CPythonPlayer::METIN_SOCKET_TYPE_NONE);

  00471	6a 00		 push	 0
  00473	68 00 00 00 00	 push	 OFFSET ??_C@_0BH@FCKCIMBH@METIN_SOCKET_TYPE_NONE@
  00478	57		 push	 edi
  00479	ff d6		 call	 esi

; 2464 : 	PyModule_AddIntConstant(poModule, "METIN_SOCKET_TYPE_SILVER",				CPythonPlayer::METIN_SOCKET_TYPE_SILVER);

  0047b	6a 01		 push	 1
  0047d	68 00 00 00 00	 push	 OFFSET ??_C@_0BJ@PHGNNMMA@METIN_SOCKET_TYPE_SILVER@
  00482	57		 push	 edi
  00483	ff d6		 call	 esi

; 2465 : 	PyModule_AddIntConstant(poModule, "METIN_SOCKET_TYPE_GOLD",					CPythonPlayer::METIN_SOCKET_TYPE_GOLD);

  00485	6a 02		 push	 2
  00487	68 00 00 00 00	 push	 OFFSET ??_C@_0BH@EFCNALEJ@METIN_SOCKET_TYPE_GOLD@
  0048c	57		 push	 edi
  0048d	ff d6		 call	 esi
  0048f	83 c4 48	 add	 esp, 72			; 00000048H

; 2466 : 	PyModule_AddIntConstant(poModule, "METIN_SOCKET_MAX_NUM",					ITEM_SOCKET_SLOT_MAX_NUM);

  00492	6a 03		 push	 3
  00494	68 00 00 00 00	 push	 OFFSET ??_C@_0BF@HOKBLOCN@METIN_SOCKET_MAX_NUM@
  00499	57		 push	 edi
  0049a	ff d6		 call	 esi

; 2467 : 	PyModule_AddIntConstant(poModule, "ATTRIBUTE_SLOT_MAX_NUM",					ITEM_ATTRIBUTE_SLOT_MAX_NUM);

  0049c	6a 07		 push	 7
  0049e	68 00 00 00 00	 push	 OFFSET ??_C@_0BH@BPEONNLD@ATTRIBUTE_SLOT_MAX_NUM@
  004a3	57		 push	 edi
  004a4	ff d6		 call	 esi

; 2468 : 
; 2469 : 	PyModule_AddIntConstant(poModule, "REFINE_CANT",							REFINE_CANT);

  004a6	6a 00		 push	 0
  004a8	68 00 00 00 00	 push	 OFFSET ??_C@_0M@FNDEJPGN@REFINE_CANT@
  004ad	57		 push	 edi
  004ae	ff d6		 call	 esi

; 2470 : 	PyModule_AddIntConstant(poModule, "REFINE_OK",								REFINE_OK);

  004b0	6a 01		 push	 1
  004b2	68 00 00 00 00	 push	 OFFSET ??_C@_09FFJEIDJG@REFINE_OK@
  004b7	57		 push	 edi
  004b8	ff d6		 call	 esi

; 2471 : 	PyModule_AddIntConstant(poModule, "REFINE_ALREADY_MAX_SOCKET_COUNT",		REFINE_ALREADY_MAX_SOCKET_COUNT);

  004ba	6a 02		 push	 2
  004bc	68 00 00 00 00	 push	 OFFSET ??_C@_0CA@CPLGFHBD@REFINE_ALREADY_MAX_SOCKET_COUNT@
  004c1	57		 push	 edi
  004c2	ff d6		 call	 esi

; 2472 : 	PyModule_AddIntConstant(poModule, "REFINE_NEED_MORE_GOOD_SCROLL",			REFINE_NEED_MORE_GOOD_SCROLL);

  004c4	6a 03		 push	 3
  004c6	68 00 00 00 00	 push	 OFFSET ??_C@_0BN@FMBLMMOD@REFINE_NEED_MORE_GOOD_SCROLL@
  004cb	57		 push	 edi
  004cc	ff d6		 call	 esi
  004ce	83 c4 48	 add	 esp, 72			; 00000048H

; 2473 : 	PyModule_AddIntConstant(poModule, "REFINE_CANT_MAKE_SOCKET_ITEM",			REFINE_CANT_MAKE_SOCKET_ITEM);

  004d1	6a 04		 push	 4
  004d3	68 00 00 00 00	 push	 OFFSET ??_C@_0BN@JPDLJDPD@REFINE_CANT_MAKE_SOCKET_ITEM@
  004d8	57		 push	 edi
  004d9	ff d6		 call	 esi

; 2474 : 	PyModule_AddIntConstant(poModule, "REFINE_NOT_NEXT_GRADE_ITEM",				REFINE_NOT_NEXT_GRADE_ITEM);

  004db	6a 05		 push	 5
  004dd	68 00 00 00 00	 push	 OFFSET ??_C@_0BL@EILCCEPE@REFINE_NOT_NEXT_GRADE_ITEM@
  004e2	57		 push	 edi
  004e3	ff d6		 call	 esi

; 2475 : 	PyModule_AddIntConstant(poModule, "REFINE_CANT_REFINE_METIN_TO_EQUIPMENT",	REFINE_CANT_REFINE_METIN_TO_EQUIPMENT);

  004e5	6a 06		 push	 6
  004e7	68 00 00 00 00	 push	 OFFSET ??_C@_0CG@LFLLDFCE@REFINE_CANT_REFINE_METIN_TO_EQU@
  004ec	57		 push	 edi
  004ed	ff d6		 call	 esi

; 2476 : 	PyModule_AddIntConstant(poModule, "REFINE_CANT_REFINE_ROD",					REFINE_CANT_REFINE_ROD);

  004ef	6a 07		 push	 7
  004f1	68 00 00 00 00	 push	 OFFSET ??_C@_0BH@OENPPLJB@REFINE_CANT_REFINE_ROD@
  004f6	57		 push	 edi
  004f7	ff d6		 call	 esi

; 2477 : 	PyModule_AddIntConstant(poModule, "ATTACH_METIN_CANT",						ATTACH_METIN_CANT);

  004f9	6a 00		 push	 0
  004fb	68 00 00 00 00	 push	 OFFSET ??_C@_0BC@CBCJMHP@ATTACH_METIN_CANT@
  00500	57		 push	 edi
  00501	ff d6		 call	 esi

; 2478 : 	PyModule_AddIntConstant(poModule, "ATTACH_METIN_OK",						ATTACH_METIN_OK);

  00503	6a 01		 push	 1
  00505	68 00 00 00 00	 push	 OFFSET ??_C@_0BA@HOJAFGB@ATTACH_METIN_OK@
  0050a	57		 push	 edi
  0050b	ff d6		 call	 esi
  0050d	83 c4 48	 add	 esp, 72			; 00000048H

; 2479 : 	PyModule_AddIntConstant(poModule, "ATTACH_METIN_NOT_MATCHABLE_ITEM",		ATTACH_METIN_NOT_MATCHABLE_ITEM);

  00510	6a 02		 push	 2
  00512	68 00 00 00 00	 push	 OFFSET ??_C@_0CA@OFAKGLFM@ATTACH_METIN_NOT_MATCHABLE_ITEM@
  00517	57		 push	 edi
  00518	ff d6		 call	 esi

; 2480 : 	PyModule_AddIntConstant(poModule, "ATTACH_METIN_NO_MATCHABLE_SOCKET",		ATTACH_METIN_NO_MATCHABLE_SOCKET);

  0051a	6a 03		 push	 3
  0051c	68 00 00 00 00	 push	 OFFSET ??_C@_0CB@MAILDNNI@ATTACH_METIN_NO_MATCHABLE_SOCKE@
  00521	57		 push	 edi
  00522	ff d6		 call	 esi

; 2481 : 	PyModule_AddIntConstant(poModule, "ATTACH_METIN_NOT_EXIST_GOLD_SOCKET",		ATTACH_METIN_NOT_EXIST_GOLD_SOCKET);

  00524	6a 04		 push	 4
  00526	68 00 00 00 00	 push	 OFFSET ??_C@_0CD@JNOPKOFJ@ATTACH_METIN_NOT_EXIST_GOLD_SOC@
  0052b	57		 push	 edi
  0052c	ff d6		 call	 esi

; 2482 : 	PyModule_AddIntConstant(poModule, "ATTACH_METIN_CANT_ATTACH_TO_EQUIPMENT",	ATTACH_METIN_CANT_ATTACH_TO_EQUIPMENT);

  0052e	6a 05		 push	 5
  00530	68 00 00 00 00	 push	 OFFSET ??_C@_0CG@BCIFDNEM@ATTACH_METIN_CANT_ATTACH_TO_EQU@
  00535	57		 push	 edi
  00536	ff d6		 call	 esi

; 2483 : 	PyModule_AddIntConstant(poModule, "DETACH_METIN_CANT",						DETACH_METIN_CANT);

  00538	6a 00		 push	 0
  0053a	68 00 00 00 00	 push	 OFFSET ??_C@_0BC@HGBPKPKG@DETACH_METIN_CANT@
  0053f	57		 push	 edi
  00540	ff d6		 call	 esi

; 2484 : 	PyModule_AddIntConstant(poModule, "DETACH_METIN_OK",						DETACH_METIN_OK);

  00542	6a 01		 push	 1
  00544	68 00 00 00 00	 push	 OFFSET ??_C@_0BA@IACJJMNA@DETACH_METIN_OK@
  00549	57		 push	 edi
  0054a	ff d6		 call	 esi
  0054c	83 c4 48	 add	 esp, 72			; 00000048H

; 2485 : 
; 2486 : 	// Party
; 2487 : 	PyModule_AddIntConstant(poModule, "PARTY_STATE_NORMAL",						CPythonPlayer::PARTY_ROLE_NORMAL);

  0054f	6a 00		 push	 0
  00551	68 00 00 00 00	 push	 OFFSET ??_C@_0BD@PNFBHDHD@PARTY_STATE_NORMAL@
  00556	57		 push	 edi
  00557	ff d6		 call	 esi

; 2488 : 	PyModule_AddIntConstant(poModule, "PARTY_STATE_LEADER",						CPythonPlayer::PARTY_ROLE_LEADER);

  00559	6a 01		 push	 1
  0055b	68 00 00 00 00	 push	 OFFSET ??_C@_0BD@ECFFHEOH@PARTY_STATE_LEADER@
  00560	57		 push	 edi
  00561	ff d6		 call	 esi

; 2489 : 	PyModule_AddIntConstant(poModule, "PARTY_STATE_ATTACKER",					CPythonPlayer::PARTY_ROLE_ATTACKER);

  00563	6a 02		 push	 2
  00565	68 00 00 00 00	 push	 OFFSET ??_C@_0BF@DOKPPLCL@PARTY_STATE_ATTACKER@
  0056a	57		 push	 edi
  0056b	ff d6		 call	 esi

; 2490 : 	PyModule_AddIntConstant(poModule, "PARTY_STATE_TANKER",						CPythonPlayer::PARTY_ROLE_TANKER);

  0056d	6a 03		 push	 3
  0056f	68 00 00 00 00	 push	 OFFSET ??_C@_0BD@FHMGGDNP@PARTY_STATE_TANKER@
  00574	57		 push	 edi
  00575	ff d6		 call	 esi

; 2491 : 	PyModule_AddIntConstant(poModule, "PARTY_STATE_BUFFER",						CPythonPlayer::PARTY_ROLE_BUFFER);

  00577	6a 04		 push	 4
  00579	68 00 00 00 00	 push	 OFFSET ??_C@_0BD@JJFBJLK@PARTY_STATE_BUFFER@
  0057e	57		 push	 edi
  0057f	ff d6		 call	 esi

; 2492 : 	PyModule_AddIntConstant(poModule, "PARTY_STATE_SKILL_MASTER",				CPythonPlayer::PARTY_ROLE_SKILL_MASTER);

  00581	6a 05		 push	 5
  00583	68 00 00 00 00	 push	 OFFSET ??_C@_0BJ@EIPCPJKC@PARTY_STATE_SKILL_MASTER@
  00588	57		 push	 edi
  00589	ff d6		 call	 esi
  0058b	83 c4 48	 add	 esp, 72			; 00000048H

; 2493 : 	PyModule_AddIntConstant(poModule, "PARTY_STATE_BERSERKER",					CPythonPlayer::PARTY_ROLE_BERSERKER);

  0058e	6a 06		 push	 6
  00590	68 00 00 00 00	 push	 OFFSET ??_C@_0BG@LCNEBE@PARTY_STATE_BERSERKER@
  00595	57		 push	 edi
  00596	ff d6		 call	 esi

; 2494 : 	PyModule_AddIntConstant(poModule, "PARTY_STATE_DEFENDER",					CPythonPlayer::PARTY_ROLE_DEFENDER);

  00598	6a 07		 push	 7
  0059a	68 00 00 00 00	 push	 OFFSET ??_C@_0BF@PAKJEMH@PARTY_STATE_DEFENDER@
  0059f	57		 push	 edi
  005a0	ff d6		 call	 esi

; 2495 : 	PyModule_AddIntConstant(poModule, "PARTY_STATE_MAX_NUM",					CPythonPlayer::PARTY_ROLE_MAX_NUM);

  005a2	6a 08		 push	 8
  005a4	68 00 00 00 00	 push	 OFFSET ??_C@_0BE@KCLJFDCO@PARTY_STATE_MAX_NUM@
  005a9	57		 push	 edi
  005aa	ff d6		 call	 esi

; 2496 : 
; 2497 : 	// Skill Index
; 2498 : 	PyModule_AddIntConstant(poModule, "SKILL_INDEX_TONGSOL",		c_iSkillIndex_Tongsol);

  005ac	6a 79		 push	 121			; 00000079H
  005ae	68 00 00 00 00	 push	 OFFSET ??_C@_0BE@MNBFKLPI@SKILL_INDEX_TONGSOL@
  005b3	57		 push	 edi
  005b4	ff d6		 call	 esi

; 2499 : 	PyModule_AddIntConstant(poModule, "SKILL_INDEX_FISHING",		c_iSkillIndex_Fishing);

  005b6	6a 7b		 push	 123			; 0000007bH
  005b8	68 00 00 00 00	 push	 OFFSET ??_C@_0BE@HANBCKAH@SKILL_INDEX_FISHING@
  005bd	57		 push	 edi
  005be	ff d6		 call	 esi

; 2500 : 	PyModule_AddIntConstant(poModule, "SKILL_INDEX_MINING",			c_iSkillIndex_Mining);

  005c0	6a 7c		 push	 124			; 0000007cH
  005c2	68 00 00 00 00	 push	 OFFSET ??_C@_0BD@KFCAJBFG@SKILL_INDEX_MINING@
  005c7	57		 push	 edi
  005c8	ff d6		 call	 esi
  005ca	83 c4 48	 add	 esp, 72			; 00000048H

; 2501 : 	PyModule_AddIntConstant(poModule, "SKILL_INDEX_MAKING",			c_iSkillIndex_Making);

  005cd	6a 7d		 push	 125			; 0000007dH
  005cf	68 00 00 00 00	 push	 OFFSET ??_C@_0BD@IBJDJMEL@SKILL_INDEX_MAKING@
  005d4	57		 push	 edi
  005d5	ff d6		 call	 esi

; 2502 : 	PyModule_AddIntConstant(poModule, "SKILL_INDEX_COMBO",			c_iSkillIndex_Combo);

  005d7	6a 7a		 push	 122			; 0000007aH
  005d9	68 00 00 00 00	 push	 OFFSET ??_C@_0BC@HACNAMIK@SKILL_INDEX_COMBO@
  005de	57		 push	 edi
  005df	ff d6		 call	 esi

; 2503 : 	PyModule_AddIntConstant(poModule, "SKILL_INDEX_LANGUAGE1",		c_iSkillIndex_Language1);

  005e1	6a 7e		 push	 126			; 0000007eH
  005e3	68 00 00 00 00	 push	 OFFSET ??_C@_0BG@GPLOFEKK@SKILL_INDEX_LANGUAGE1@
  005e8	57		 push	 edi
  005e9	ff d6		 call	 esi

; 2504 : 	PyModule_AddIntConstant(poModule, "SKILL_INDEX_LANGUAGE2",		c_iSkillIndex_Language2);

  005eb	6a 7f		 push	 127			; 0000007fH
  005ed	68 00 00 00 00	 push	 OFFSET ??_C@_0BG@EEJDAHGJ@SKILL_INDEX_LANGUAGE2@
  005f2	57		 push	 edi
  005f3	ff d6		 call	 esi

; 2505 : 	PyModule_AddIntConstant(poModule, "SKILL_INDEX_LANGUAGE3",		c_iSkillIndex_Language3);

  005f5	68 80 00 00 00	 push	 128			; 00000080H
  005fa	68 00 00 00 00	 push	 OFFSET ??_C@_0BG@FNIIDGCI@SKILL_INDEX_LANGUAGE3@
  005ff	57		 push	 edi
  00600	ff d6		 call	 esi

; 2506 : 	PyModule_AddIntConstant(poModule, "SKILL_INDEX_POLYMORPH",		c_iSkillIndex_Polymorph);

  00602	68 81 00 00 00	 push	 129			; 00000081H
  00607	68 00 00 00 00	 push	 OFFSET ??_C@_0BG@DMEIDEKO@SKILL_INDEX_POLYMORPH@
  0060c	57		 push	 edi
  0060d	ff d6		 call	 esi
  0060f	83 c4 48	 add	 esp, 72			; 00000048H

; 2507 : 	PyModule_AddIntConstant(poModule, "SKILL_INDEX_RIDING",			c_iSkillIndex_Riding);

  00612	68 82 00 00 00	 push	 130			; 00000082H
  00617	68 00 00 00 00	 push	 OFFSET ??_C@_0BD@HOAGGFNA@SKILL_INDEX_RIDING@
  0061c	57		 push	 edi
  0061d	ff d6		 call	 esi

; 2508 : 	PyModule_AddIntConstant(poModule, "SKILL_INDEX_SUMMON",			c_iSkillIndex_Summon);

  0061f	68 83 00 00 00	 push	 131			; 00000083H
  00624	68 00 00 00 00	 push	 OFFSET ??_C@_0BD@POBHIINM@SKILL_INDEX_SUMMON@
  00629	57		 push	 edi
  0062a	ff d6		 call	 esi

; 2509 : 
; 2510 : 	// PK Mode
; 2511 : 	PyModule_AddIntConstant(poModule, "PK_MODE_PEACE",				PK_MODE_PEACE);

  0062c	6a 00		 push	 0
  0062e	68 00 00 00 00	 push	 OFFSET ??_C@_0O@BIPAMBIG@PK_MODE_PEACE@
  00633	57		 push	 edi
  00634	ff d6		 call	 esi

; 2512 : 	PyModule_AddIntConstant(poModule, "PK_MODE_REVENGE",			PK_MODE_REVENGE);

  00636	6a 01		 push	 1
  00638	68 00 00 00 00	 push	 OFFSET ??_C@_0BA@HNNGLCOB@PK_MODE_REVENGE@
  0063d	57		 push	 edi
  0063e	ff d6		 call	 esi

; 2513 : 	PyModule_AddIntConstant(poModule, "PK_MODE_FREE",				PK_MODE_FREE);

  00640	6a 02		 push	 2
  00642	68 00 00 00 00	 push	 OFFSET ??_C@_0N@DCANEGJG@PK_MODE_FREE@
  00647	57		 push	 edi
  00648	ff d6		 call	 esi

; 2514 : 	PyModule_AddIntConstant(poModule, "PK_MODE_PROTECT",			PK_MODE_PROTECT);

  0064a	6a 03		 push	 3
  0064c	68 00 00 00 00	 push	 OFFSET ??_C@_0BA@GHACPGHA@PK_MODE_PROTECT@
  00651	57		 push	 edi
  00652	ff d6		 call	 esi
  00654	83 c4 48	 add	 esp, 72			; 00000048H

; 2515 : 	PyModule_AddIntConstant(poModule, "PK_MODE_GUILD",				PK_MODE_GUILD);

  00657	6a 04		 push	 4
  00659	68 00 00 00 00	 push	 OFFSET ??_C@_0O@LBDADKLE@PK_MODE_GUILD@
  0065e	57		 push	 edi
  0065f	ff d6		 call	 esi

; 2516 : 	PyModule_AddIntConstant(poModule, "PK_MODE_MAX_NUM",			PK_MODE_MAX_NUM);

  00661	6a 05		 push	 5
  00663	68 00 00 00 00	 push	 OFFSET ??_C@_0BA@OLCDKGDA@PK_MODE_MAX_NUM@
  00668	57		 push	 edi
  00669	ff d6		 call	 esi

; 2517 : 
; 2518 : 	// Block Mode
; 2519 : 	PyModule_AddIntConstant(poModule, "BLOCK_EXCHANGE",				BLOCK_EXCHANGE);

  0066b	6a 01		 push	 1
  0066d	68 00 00 00 00	 push	 OFFSET ??_C@_0P@CDMGAFPE@BLOCK_EXCHANGE@
  00672	57		 push	 edi
  00673	ff d6		 call	 esi

; 2520 : 	PyModule_AddIntConstant(poModule, "BLOCK_PARTY",				BLOCK_PARTY_INVITE);

  00675	6a 02		 push	 2
  00677	68 00 00 00 00	 push	 OFFSET ??_C@_0M@KFDBGBIL@BLOCK_PARTY@
  0067c	57		 push	 edi
  0067d	ff d6		 call	 esi

; 2521 : 	PyModule_AddIntConstant(poModule, "BLOCK_GUILD",				BLOCK_GUILD_INVITE);

  0067f	6a 04		 push	 4
  00681	68 00 00 00 00	 push	 OFFSET ??_C@_0M@EEMDCMKA@BLOCK_GUILD@
  00686	57		 push	 edi
  00687	ff d6		 call	 esi

; 2522 : 	PyModule_AddIntConstant(poModule, "BLOCK_WHISPER",				BLOCK_WHISPER);

  00689	6a 08		 push	 8
  0068b	68 00 00 00 00	 push	 OFFSET ??_C@_0O@CFHKOIIK@BLOCK_WHISPER@
  00690	57		 push	 edi
  00691	ff d6		 call	 esi
  00693	83 c4 48	 add	 esp, 72			; 00000048H

; 2523 : 	PyModule_AddIntConstant(poModule, "BLOCK_FRIEND",				BLOCK_MESSENGER_INVITE);

  00696	6a 10		 push	 16			; 00000010H
  00698	68 00 00 00 00	 push	 OFFSET ??_C@_0N@IJGKBLJF@BLOCK_FRIEND@
  0069d	57		 push	 edi
  0069e	ff d6		 call	 esi

; 2524 : 	PyModule_AddIntConstant(poModule, "BLOCK_PARTY_REQUEST",		BLOCK_PARTY_REQUEST);

  006a0	6a 20		 push	 32			; 00000020H
  006a2	68 00 00 00 00	 push	 OFFSET ??_C@_0BE@NDGMABKO@BLOCK_PARTY_REQUEST@
  006a7	57		 push	 edi
  006a8	ff d6		 call	 esi

; 2525 : 
; 2526 : 	// Party
; 2527 : 	PyModule_AddIntConstant(poModule, "PARTY_EXP_NON_DISTRIBUTION",		PARTY_EXP_DISTRIBUTION_NON_PARITY);

  006aa	6a 00		 push	 0
  006ac	68 00 00 00 00	 push	 OFFSET ??_C@_0BL@OELLICOI@PARTY_EXP_NON_DISTRIBUTION@
  006b1	57		 push	 edi
  006b2	ff d6		 call	 esi

; 2528 : 	PyModule_AddIntConstant(poModule, "PARTY_EXP_DISTRIBUTION_PARITY",	PARTY_EXP_DISTRIBUTION_PARITY);

  006b4	6a 01		 push	 1
  006b6	68 00 00 00 00	 push	 OFFSET ??_C@_0BO@CBJBDFJC@PARTY_EXP_DISTRIBUTION_PARITY@
  006bb	57		 push	 edi
  006bc	ff d6		 call	 esi

; 2529 : 
; 2530 : 	// Emotion
; 2531 : 	PyModule_AddIntConstant(poModule, "EMOTION_CLAP",			EMOTION_CLAP);

  006be	6a 01		 push	 1
  006c0	68 00 00 00 00	 push	 OFFSET ??_C@_0N@GFLIEIGE@EMOTION_CLAP@
  006c5	57		 push	 edi
  006c6	ff d6		 call	 esi

; 2532 : 	PyModule_AddIntConstant(poModule, "EMOTION_CHEERS_1",		EMOTION_CHEERS_1);

  006c8	6a 02		 push	 2
  006ca	68 00 00 00 00	 push	 OFFSET ??_C@_0BB@MCMBOGFC@EMOTION_CHEERS_1@
  006cf	57		 push	 edi
  006d0	ff d6		 call	 esi
  006d2	83 c4 48	 add	 esp, 72			; 00000048H

; 2533 : 	PyModule_AddIntConstant(poModule, "EMOTION_CHEERS_2",		EMOTION_CHEERS_2);

  006d5	6a 03		 push	 3
  006d7	68 00 00 00 00	 push	 OFFSET ??_C@_0BB@OJOMLFJB@EMOTION_CHEERS_2@
  006dc	57		 push	 edi
  006dd	ff d6		 call	 esi

; 2534 : 	PyModule_AddIntConstant(poModule, "EMOTION_DANCE_1",		EMOTION_DANCE_1);

  006df	6a 04		 push	 4
  006e1	68 00 00 00 00	 push	 OFFSET ??_C@_0BA@CLHGMEE@EMOTION_DANCE_1@
  006e6	57		 push	 edi
  006e7	ff d6		 call	 esi

; 2535 : 	PyModule_AddIntConstant(poModule, "EMOTION_DANCE_2",		EMOTION_DANCE_2);

  006e9	6a 05		 push	 5
  006eb	68 00 00 00 00	 push	 OFFSET ??_C@_0BA@CJJKDPIH@EMOTION_DANCE_2@
  006f0	57		 push	 edi
  006f1	ff d6		 call	 esi

; 2536 : 	PyModule_AddIntConstant(poModule, "EMOTION_DANCE_3",		EMOTION_DANCE_3);

  006f3	6a 06		 push	 6
  006f5	68 00 00 00 00	 push	 OFFSET ??_C@_0BA@DAIBAOMG@EMOTION_DANCE_3@
  006fa	57		 push	 edi
  006fb	ff d6		 call	 esi

; 2537 : 	PyModule_AddIntConstant(poModule, "EMOTION_DANCE_4",		EMOTION_DANCE_4);

  006fd	6a 07		 push	 7
  006ff	68 00 00 00 00	 push	 OFFSET ??_C@_0BA@HPMAJIAB@EMOTION_DANCE_4@
  00704	57		 push	 edi
  00705	ff d6		 call	 esi

; 2538 : 	PyModule_AddIntConstant(poModule, "EMOTION_DANCE_5",		EMOTION_DANCE_5);

  00707	6a 08		 push	 8
  00709	68 00 00 00 00	 push	 OFFSET ??_C@_0BA@GGNLKJEA@EMOTION_DANCE_5@
  0070e	57		 push	 edi
  0070f	ff d6		 call	 esi
  00711	83 c4 48	 add	 esp, 72			; 00000048H

; 2539 : 	PyModule_AddIntConstant(poModule, "EMOTION_DANCE_6",		EMOTION_DANCE_6);				// PSY 

  00714	6a 09		 push	 9
  00716	68 00 00 00 00	 push	 OFFSET ??_C@_0BA@ENPGPKID@EMOTION_DANCE_6@
  0071b	57		 push	 edi
  0071c	ff d6		 call	 esi

; 2540 : 	PyModule_AddIntConstant(poModule, "EMOTION_CONGRATULATION",	EMOTION_CONGRATULATION);

  0071e	6a 0a		 push	 10			; 0000000aH
  00720	68 00 00 00 00	 push	 OFFSET ??_C@_0BH@FIIEKKHF@EMOTION_CONGRATULATION@
  00725	57		 push	 edi
  00726	ff d6		 call	 esi

; 2541 : 	PyModule_AddIntConstant(poModule, "EMOTION_FORGIVE",		EMOTION_FORGIVE);

  00728	6a 0b		 push	 11			; 0000000bH
  0072a	68 00 00 00 00	 push	 OFFSET ??_C@_0BA@JPGNEMIB@EMOTION_FORGIVE@
  0072f	57		 push	 edi
  00730	ff d6		 call	 esi

; 2542 : 	PyModule_AddIntConstant(poModule, "EMOTION_ANGRY",			EMOTION_ANGRY);

  00732	6a 0c		 push	 12			; 0000000cH
  00734	68 00 00 00 00	 push	 OFFSET ??_C@_0O@DACEICMN@EMOTION_ANGRY@
  00739	57		 push	 edi
  0073a	ff d6		 call	 esi

; 2543 : 	PyModule_AddIntConstant(poModule, "EMOTION_ATTRACTIVE",		EMOTION_ATTRACTIVE);

  0073c	6a 0d		 push	 13			; 0000000dH
  0073e	68 00 00 00 00	 push	 OFFSET ??_C@_0BD@FLNIBF@EMOTION_ATTRACTIVE@
  00743	57		 push	 edi
  00744	ff d6		 call	 esi

; 2544 : 	PyModule_AddIntConstant(poModule, "EMOTION_SAD",			EMOTION_SAD);

  00746	6a 0e		 push	 14			; 0000000eH
  00748	68 00 00 00 00	 push	 OFFSET ??_C@_0M@EGEMMDCF@EMOTION_SAD@
  0074d	57		 push	 edi
  0074e	ff d6		 call	 esi
  00750	83 c4 48	 add	 esp, 72			; 00000048H

; 2545 : 	PyModule_AddIntConstant(poModule, "EMOTION_SHY",			EMOTION_SHY);

  00753	6a 0f		 push	 15			; 0000000fH
  00755	68 00 00 00 00	 push	 OFFSET ??_C@_0M@LGPBJELG@EMOTION_SHY@
  0075a	57		 push	 edi
  0075b	ff d6		 call	 esi

; 2546 : 	PyModule_AddIntConstant(poModule, "EMOTION_CHEERUP",		EMOTION_CHEERUP);

  0075d	6a 10		 push	 16			; 00000010H
  0075f	68 00 00 00 00	 push	 OFFSET ??_C@_0BA@MENCJFPL@EMOTION_CHEERUP@
  00764	57		 push	 edi
  00765	ff d6		 call	 esi

; 2547 : 	PyModule_AddIntConstant(poModule, "EMOTION_BANTER",			EMOTION_BANTER);

  00767	6a 11		 push	 17			; 00000011H
  00769	68 00 00 00 00	 push	 OFFSET ??_C@_0P@JAJBGKKI@EMOTION_BANTER@
  0076e	57		 push	 edi
  0076f	ff d6		 call	 esi

; 2548 : 	PyModule_AddIntConstant(poModule, "EMOTION_JOY",			EMOTION_JOY);

  00771	6a 12		 push	 18			; 00000012H
  00773	68 00 00 00 00	 push	 OFFSET ??_C@_0M@JOKPJKCG@EMOTION_JOY@
  00778	57		 push	 edi
  00779	ff d6		 call	 esi

; 2549 : 
; 2550 : 	PyModule_AddIntConstant(poModule, "EMOTION_KISS",			EMOTION_KISS);

  0077b	6a 33		 push	 51			; 00000033H
  0077d	68 00 00 00 00	 push	 OFFSET ??_C@_0N@FGJJNHEK@EMOTION_KISS@
  00782	57		 push	 edi
  00783	ff d6		 call	 esi

; 2551 : 	PyModule_AddIntConstant(poModule, "EMOTION_FRENCH_KISS",	EMOTION_FRENCH_KISS);

  00785	6a 34		 push	 52			; 00000034H
  00787	68 00 00 00 00	 push	 OFFSET ??_C@_0BE@KCAKKBPE@EMOTION_FRENCH_KISS@
  0078c	57		 push	 edi
  0078d	ff d6		 call	 esi
  0078f	83 c4 48	 add	 esp, 72			; 00000048H

; 2552 : 	PyModule_AddIntConstant(poModule, "EMOTION_SLAP",			EMOTION_SLAP);

  00792	6a 35		 push	 53			; 00000035H
  00794	68 00 00 00 00	 push	 OFFSET ??_C@_0N@FFINPOG@EMOTION_SLAP@
  00799	57		 push	 edi
  0079a	ff d6		 call	 esi

; 2553 : 
; 2554 : 	////  
; 2555 : 	PyModule_AddIntConstant(poModule, "AUTO_POTION_TYPE_HP",	CPythonPlayer::AUTO_POTION_TYPE_HP);

  0079c	6a 00		 push	 0
  0079e	68 00 00 00 00	 push	 OFFSET ??_C@_0BE@LLABJENL@AUTO_POTION_TYPE_HP@
  007a3	57		 push	 edi
  007a4	ff d6		 call	 esi

; 2556 : 	PyModule_AddIntConstant(poModule, "AUTO_POTION_TYPE_SP",	CPythonPlayer::AUTO_POTION_TYPE_SP);

  007a6	6a 01		 push	 1
  007a8	68 00 00 00 00	 push	 OFFSET ??_C@_0BE@KLHCNIEK@AUTO_POTION_TYPE_SP@
  007ad	57		 push	 edi
  007ae	ff d6		 call	 esi

; 2557 : 
; 2558 : 	// 
; 2559 : 	PyModule_AddIntConstant(poModule, "DRAGON_SOUL_PAGE_SIZE",	c_DragonSoul_Inventory_Box_Size);

  007b0	6a 20		 push	 32			; 00000020H
  007b2	68 00 00 00 00	 push	 OFFSET ??_C@_0BG@FEPFCIIM@DRAGON_SOUL_PAGE_SIZE@
  007b7	57		 push	 edi
  007b8	ff d6		 call	 esi

; 2560 : 	PyModule_AddIntConstant(poModule, "DRAGON_SOUL_PAGE_COUNT",	DRAGON_SOUL_GRADE_MAX);

  007ba	6a 05		 push	 5
  007bc	68 00 00 00 00	 push	 OFFSET ??_C@_0BH@OCCNKKPP@DRAGON_SOUL_PAGE_COUNT@
  007c1	57		 push	 edi
  007c2	ff d6		 call	 esi

; 2561 : 	PyModule_AddIntConstant(poModule, "DRAGON_SOUL_SLOT_COUNT",	c_DragonSoul_Inventory_Count);

  007c4	68 c0 03 00 00	 push	 960			; 000003c0H
  007c9	68 00 00 00 00	 push	 OFFSET ??_C@_0BH@IFPINEOD@DRAGON_SOUL_SLOT_COUNT@
  007ce	57		 push	 edi
  007cf	ff d6		 call	 esi
  007d1	83 c4 48	 add	 esp, 72			; 00000048H

; 2562 : 	PyModule_AddIntConstant(poModule, "DRAGON_SOUL_EQUIPMENT_SLOT_START",	c_DragonSoul_Equip_Start);

  007d4	6a 7a		 push	 122			; 0000007aH
  007d6	68 00 00 00 00	 push	 OFFSET ??_C@_0CB@NJAOAEOC@DRAGON_SOUL_EQUIPMENT_SLOT_STAR@
  007db	57		 push	 edi
  007dc	ff d6		 call	 esi

; 2563 : 	PyModule_AddIntConstant(poModule, "DRAGON_SOUL_EQUIPMENT_PAGE_COUNT",	DS_DECK_MAX_NUM);

  007de	6a 02		 push	 2
  007e0	68 00 00 00 00	 push	 OFFSET ??_C@_0CB@GAHKEECK@DRAGON_SOUL_EQUIPMENT_PAGE_COUN@
  007e5	57		 push	 edi
  007e6	ff d6		 call	 esi

; 2564 : 	PyModule_AddIntConstant(poModule, "DRAGON_SOUL_EQUIPMENT_FIRST_SIZE",	c_DragonSoul_Equip_Slot_Max);

  007e8	6a 06		 push	 6
  007ea	68 00 00 00 00	 push	 OFFSET ??_C@_0CB@OIFHBJMG@DRAGON_SOUL_EQUIPMENT_FIRST_SIZ@
  007ef	57		 push	 edi
  007f0	ff d6		 call	 esi

; 2565 : 
; 2566 : 	//  
; 2567 : 	PyModule_AddIntConstant(poModule, "DRAGON_SOUL_REFINE_CLOSE",	DS_SUB_HEADER_CLOSE);

  007f2	6a 01		 push	 1
  007f4	68 00 00 00 00	 push	 OFFSET ??_C@_0BJ@MMGGGOHJ@DRAGON_SOUL_REFINE_CLOSE@
  007f9	57		 push	 edi
  007fa	ff d6		 call	 esi

; 2568 : 	PyModule_AddIntConstant(poModule, "DS_SUB_HEADER_DO_UPGRADE",	DS_SUB_HEADER_DO_UPGRADE);

  007fc	6a 02		 push	 2
  007fe	68 00 00 00 00	 push	 OFFSET ??_C@_0BJ@JKFAJIJN@DS_SUB_HEADER_DO_UPGRADE@
  00803	57		 push	 edi
  00804	ff d6		 call	 esi

; 2569 : 	PyModule_AddIntConstant(poModule, "DS_SUB_HEADER_DO_IMPROVEMENT",	DS_SUB_HEADER_DO_IMPROVEMENT);

  00806	6a 03		 push	 3
  00808	68 00 00 00 00	 push	 OFFSET ??_C@_0BN@PCPINHKH@DS_SUB_HEADER_DO_IMPROVEMENT@
  0080d	57		 push	 edi
  0080e	ff d6		 call	 esi
  00810	83 c4 48	 add	 esp, 72			; 00000048H

; 2570 : 	PyModule_AddIntConstant(poModule, "DS_SUB_HEADER_DO_REFINE",	DS_SUB_HEADER_DO_REFINE);

  00813	6a 04		 push	 4
  00815	68 00 00 00 00	 push	 OFFSET ??_C@_0BI@NHBOLMGK@DS_SUB_HEADER_DO_REFINE@
  0081a	57		 push	 edi
  0081b	ff d6		 call	 esi
  0081d	83 c4 0c	 add	 esp, 12			; 0000000cH
  00820	5f		 pop	 edi
  00821	5e		 pop	 esi

; 2571 : 
; 2572 : }

  00822	c3		 ret	 0
?initPlayer@@YAXXZ ENDP					; initPlayer
_TEXT	ENDS
; Function compile flags: /Ogtp
; File D:\Metin2 Server Files\mainline\SRC_2014\Metin2Client\UserInterface\GameType.h
;	COMDAT ??0SItemPos@@QAE@XZ
_TEXT	SEGMENT
??0SItemPos@@QAE@XZ PROC				; SItemPos::SItemPos, COMDAT
; _this$ = ecx

; 185  :     {
; 186  : 		window_type =     INVENTORY;
; 187  : 		cell = WORD_MAX;

  00000	b8 ff ff 00 00	 mov	 eax, 65535		; 0000ffffH
  00005	c6 01 01	 mov	 BYTE PTR [ecx], 1
  00008	66 89 41 01	 mov	 WORD PTR [ecx+1], ax

; 188  :     }

  0000c	8b c1		 mov	 eax, ecx
  0000e	c3		 ret	 0
??0SItemPos@@QAE@XZ ENDP				; SItemPos::SItemPos
_TEXT	ENDS
; Function compile flags: /Ogtp
; File C:\Program Files (x86)\Microsoft Visual Studio\2019\Community\VC\Tools\MSVC\14.28.29333\include\xtree
;	COMDAT ?_Throw_tree_length_error@std@@YAXXZ
_TEXT	SEGMENT
?_Throw_tree_length_error@std@@YAXXZ PROC		; std::_Throw_tree_length_error, COMDAT

; 415  :     _Xlength_error("map/set too long");

  00000	68 00 00 00 00	 push	 OFFSET ??_C@_0BB@GCADKGJO@map?1set?5too?5long@
  00005	e8 00 00 00 00	 call	 ?_Xlength_error@std@@YAXPBD@Z ; std::_Xlength_error
$LN3@Throw_tree:
  0000a	cc		 int	 3
?_Throw_tree_length_error@std@@YAXXZ ENDP		; std::_Throw_tree_length_error
_TEXT	ENDS
; Function compile flags: /Ogtp
; File C:\Program Files (x86)\Microsoft Visual Studio\2019\Community\VC\Tools\MSVC\14.28.29333\include\xstring
; File C:\Program Files (x86)\Microsoft Visual Studio\2019\Community\VC\Tools\MSVC\14.28.29333\include\utility
; File C:\Program Files (x86)\Microsoft Visual Studio\2019\Community\VC\Tools\MSVC\14.28.29333\include\xstring
; File C:\Program Files (x86)\Microsoft Visual Studio\2019\Community\VC\Tools\MSVC\14.28.29333\include\xmemory
; File C:\Program Files (x86)\Microsoft Visual Studio\2019\Community\VC\Tools\MSVC\14.28.29333\include\xstring
; File C:\Program Files (x86)\Microsoft Visual Studio\2019\Community\VC\Tools\MSVC\14.28.29333\include\xmemory
; File C:\Program Files (x86)\Microsoft Visual Studio\2019\Community\VC\Tools\MSVC\14.28.29333\include\xstring
;	COMDAT ?assign@?$basic_string@DU?$char_traits@D@std@@V?$allocator@D@2@@std@@QAEAAV12@QBDI@Z
_TEXT	SEGMENT
__Old$1$ = -4						; size = 4
__Ptr$ = 8						; size = 4
__New_ptr$1 = 12					; size = 4
__Count$ = 12						; size = 4
?assign@?$basic_string@DU?$char_traits@D@std@@V?$allocator@D@2@@std@@QAEAAV12@QBDI@Z PROC ; std::basic_string<char,std::char_traits<char>,std::allocator<char> >::assign, COMDAT
; _this$ = ecx

; 3042 :     basic_string& assign(_In_reads_(_Count) const _Elem* const _Ptr, _CRT_GUARDOVERFLOW const size_type _Count) {

  00000	55		 push	 ebp
  00001	8b ec		 mov	 ebp, esp
  00003	51		 push	 ecx
  00004	53		 push	 ebx
  00005	56		 push	 esi
  00006	8b f1		 mov	 esi, ecx
  00008	57		 push	 edi

; 3043 :         // assign [_Ptr, _Ptr + _Count)
; 3044 :         if (_Count <= _Mypair._Myval2._Myres) {

  00009	8b 7d 0c	 mov	 edi, DWORD PTR __Count$[ebp]
  0000c	8b 4e 14	 mov	 ecx, DWORD PTR [esi+20]
  0000f	89 4d fc	 mov	 DWORD PTR __Old$1$[ebp], ecx
  00012	3b f9		 cmp	 edi, ecx
  00014	77 28		 ja	 SHORT $LN2@assign

; 2209 :         value_type* _Result = _Bx._Buf;

  00016	8b de		 mov	 ebx, esi

; 2227 :         return _BUF_SIZE <= _Myres;

  00018	83 f9 10	 cmp	 ecx, 16			; 00000010H

; 2210 :         if (_Large_string_engaged()) {

  0001b	72 02		 jb	 SHORT $LN5@assign

; 2211 :             _Result = _Unfancy(_Bx._Ptr);

  0001d	8b 1e		 mov	 ebx, DWORD PTR [esi]
$LN5@assign:

; 119  :         _CSTD memmove(_First1, _First2, _Count * sizeof(_Elem));

  0001f	57		 push	 edi
  00020	ff 75 08	 push	 DWORD PTR __Ptr$[ebp]

; 3045 :             _Elem* const _Old_ptr   = _Mypair._Myval2._Myptr();
; 3046 :             _Mypair._Myval2._Mysize = _Count;

  00023	89 7e 10	 mov	 DWORD PTR [esi+16], edi

; 119  :         _CSTD memmove(_First1, _First2, _Count * sizeof(_Elem));

  00026	53		 push	 ebx
  00027	e8 00 00 00 00	 call	 _memmove
  0002c	83 c4 0c	 add	 esp, 12			; 0000000cH

; 3047 :             _Traits::move(_Old_ptr, _Ptr, _Count);
; 3048 :             _Traits::assign(_Old_ptr[_Count], _Elem());

  0002f	c6 04 3b 00	 mov	 BYTE PTR [ebx+edi], 0

; 3059 :     }

  00033	8b c6		 mov	 eax, esi
  00035	5f		 pop	 edi
  00036	5e		 pop	 esi
  00037	5b		 pop	 ebx
  00038	8b e5		 mov	 esp, ebp
  0003a	5d		 pop	 ebp
  0003b	c2 08 00	 ret	 8
$LN2@assign:

; 4305 :         if (_New_size > max_size()) {

  0003e	81 ff ff ff ff
	7f		 cmp	 edi, 2147483647		; 7fffffffH
  00044	0f 87 91 00 00
	00		 ja	 $LN36@assign

; 4285 :         const size_type _Masked = _Requested | _ALLOC_MASK;

  0004a	8b df		 mov	 ebx, edi
  0004c	83 cb 0f	 or	 ebx, 15			; 0000000fH
  0004f	81 fb ff ff ff
	7f		 cmp	 ebx, 2147483647		; 7fffffffH

; 4286 :         if (_Masked > _Max) { // the mask overflows, settle for max_size()

  00055	76 07		 jbe	 SHORT $LN19@assign

; 4287 :             return _Max;

  00057	bb ff ff ff 7f	 mov	 ebx, 2147483647		; 7fffffffH
  0005c	eb 1e		 jmp	 SHORT $LN18@assign
$LN19@assign:

; 4288 :         }
; 4289 : 
; 4290 :         if (_Old > _Max - _Old / 2) { // similarly, geometric overflows

  0005e	8b d1		 mov	 edx, ecx
  00060	b8 ff ff ff 7f	 mov	 eax, 2147483647		; 7fffffffH
  00065	d1 ea		 shr	 edx, 1
  00067	2b c2		 sub	 eax, edx
  00069	3b c8		 cmp	 ecx, eax
  0006b	76 07		 jbe	 SHORT $LN20@assign

; 4291 :             return _Max;

  0006d	bb ff ff ff 7f	 mov	 ebx, 2147483647		; 7fffffffH
  00072	eb 08		 jmp	 SHORT $LN18@assign
$LN20@assign:

; 4292 :         }
; 4293 : 
; 4294 :         return (_STD max)(_Masked, _Old + _Old / 2);

  00074	8d 04 0a	 lea	 eax, DWORD PTR [edx+ecx]
; File C:\Program Files (x86)\Microsoft Visual Studio\2019\Community\VC\Tools\MSVC\14.28.29333\include\utility

; 44   :     return _Left < _Right ? _Right : _Left;

  00077	3b d8		 cmp	 ebx, eax
  00079	0f 42 d8	 cmovb	 ebx, eax
$LN18@assign:
; File C:\Program Files (x86)\Microsoft Visual Studio\2019\Community\VC\Tools\MSVC\14.28.29333\include\xstring

; 4312 :         const pointer _New_ptr        = _Al.allocate(_New_capacity + 1); // throws

  0007c	8d 43 01	 lea	 eax, DWORD PTR [ebx+1]
; File C:\Program Files (x86)\Microsoft Visual Studio\2019\Community\VC\Tools\MSVC\14.28.29333\include\xmemory

; 814  :         return static_cast<_Ty*>(_Allocate<_New_alignof<_Ty>>(_Get_size_of_n<sizeof(_Ty)>(_Count)));

  0007f	50		 push	 eax
  00080	e8 00 00 00 00	 call	 ??$_Allocate@$07U_Default_allocate_traits@std@@$0A@@std@@YAPAXI@Z ; std::_Allocate<8,std::_Default_allocate_traits,0>
; File C:\Program Files (x86)\Microsoft Visual Studio\2019\Community\VC\Tools\MSVC\14.28.29333\include\xstring

; 62   :         _CSTD memcpy(_First1, _First2, _Count * sizeof(_Elem));

  00085	57		 push	 edi
  00086	ff 75 08	 push	 DWORD PTR __Ptr$[ebp]

; 4312 :         const pointer _New_ptr        = _Al.allocate(_New_capacity + 1); // throws

  00089	89 45 0c	 mov	 DWORD PTR __New_ptr$1[ebp], eax

; 62   :         _CSTD memcpy(_First1, _First2, _Count * sizeof(_Elem));

  0008c	50		 push	 eax

; 4314 :         _Mypair._Myval2._Mysize = _New_size;

  0008d	89 7e 10	 mov	 DWORD PTR [esi+16], edi

; 4315 :         _Mypair._Myval2._Myres  = _New_capacity;

  00090	89 5e 14	 mov	 DWORD PTR [esi+20], ebx

; 62   :         _CSTD memcpy(_First1, _First2, _Count * sizeof(_Elem));

  00093	e8 00 00 00 00	 call	 _memcpy

; 3056 :                 _Traits::assign(_New_ptr[_Count], _Elem());

  00098	8b 5d 0c	 mov	 ebx, DWORD PTR __New_ptr$1[ebp]

; 62   :         _CSTD memcpy(_First1, _First2, _Count * sizeof(_Elem));

  0009b	83 c4 10	 add	 esp, 16			; 00000010H

; 4317 :         if (_BUF_SIZE <= _Old_capacity) {

  0009e	8b 45 fc	 mov	 eax, DWORD PTR __Old$1$[ebp]

; 3056 :                 _Traits::assign(_New_ptr[_Count], _Elem());

  000a1	c6 04 3b 00	 mov	 BYTE PTR [ebx+edi], 0

; 4317 :         if (_BUF_SIZE <= _Old_capacity) {

  000a5	83 f8 10	 cmp	 eax, 16			; 00000010H
  000a8	72 19		 jb	 SHORT $LN13@assign

; 4318 :             _Al.deallocate(_Mypair._Myval2._Bx._Ptr, _Old_capacity + 1);

  000aa	40		 inc	 eax
; File C:\Program Files (x86)\Microsoft Visual Studio\2019\Community\VC\Tools\MSVC\14.28.29333\include\xmemory

; 810  :         _Deallocate<_New_alignof<_Ty>>(_Ptr, sizeof(_Ty) * _Count);

  000ab	50		 push	 eax
  000ac	ff 36		 push	 DWORD PTR [esi]
  000ae	e8 00 00 00 00	 call	 ??$_Deallocate@$07$0A@@std@@YAXPAXI@Z ; std::_Deallocate<8,0>
; File C:\Program Files (x86)\Microsoft Visual Studio\2019\Community\VC\Tools\MSVC\14.28.29333\include\xstring

; 3059 :     }

  000b3	83 c4 08	 add	 esp, 8

; 4319 :             _Mypair._Myval2._Bx._Ptr = _New_ptr;

  000b6	89 1e		 mov	 DWORD PTR [esi], ebx

; 3059 :     }

  000b8	8b c6		 mov	 eax, esi
  000ba	5f		 pop	 edi
  000bb	5e		 pop	 esi
  000bc	5b		 pop	 ebx
  000bd	8b e5		 mov	 esp, ebp
  000bf	5d		 pop	 ebp
  000c0	c2 08 00	 ret	 8
$LN13@assign:

; 4321 :             _Construct_in_place(_Mypair._Myval2._Bx._Ptr, _New_ptr);

  000c3	8d 45 0c	 lea	 eax, DWORD PTR __New_ptr$1[ebp]
  000c6	50		 push	 eax
  000c7	56		 push	 esi
  000c8	e8 00 00 00 00	 call	 ??$_Construct_in_place@PADABQAD@std@@YAXAAPADABQAD@Z ; std::_Construct_in_place<char *,char * const &>

; 3059 :     }

  000cd	83 c4 08	 add	 esp, 8
  000d0	8b c6		 mov	 eax, esi
  000d2	5f		 pop	 edi
  000d3	5e		 pop	 esi
  000d4	5b		 pop	 ebx
  000d5	8b e5		 mov	 esp, ebp
  000d7	5d		 pop	 ebp
  000d8	c2 08 00	 ret	 8
$LN36@assign:

; 4306 :             _Xlen_string(); // result too long

  000db	e8 00 00 00 00	 call	 ?_Xlen_string@std@@YAXXZ ; std::_Xlen_string
$LN33@assign:
  000e0	cc		 int	 3
?assign@?$basic_string@DU?$char_traits@D@std@@V?$allocator@D@2@@std@@QAEAAV12@QBDI@Z ENDP ; std::basic_string<char,std::char_traits<char>,std::allocator<char> >::assign
_TEXT	ENDS
; Function compile flags: /Ogtp
; File C:\Program Files (x86)\Microsoft Visual Studio\2019\Community\VC\Tools\MSVC\14.28.29333\include\xstring
; File C:\Program Files (x86)\Microsoft Visual Studio\2019\Community\VC\Tools\MSVC\14.28.29333\include\xmemory
; File C:\Program Files (x86)\Microsoft Visual Studio\2019\Community\VC\Tools\MSVC\14.28.29333\include\xstring
;	COMDAT ??1?$basic_string@DU?$char_traits@D@std@@V?$allocator@D@2@@std@@QAE@XZ
_TEXT	SEGMENT
??1?$basic_string@DU?$char_traits@D@std@@V?$allocator@D@2@@std@@QAE@XZ PROC ; std::basic_string<char,std::char_traits<char>,std::allocator<char> >::~basic_string<char,std::char_traits<char>,std::allocator<char> >, COMDAT
; _this$ = ecx

; 2800 :     ~basic_string() noexcept {

  00000	56		 push	 esi
  00001	8b f1		 mov	 esi, ecx

; 2227 :         return _BUF_SIZE <= _Myres;

  00003	8b 46 14	 mov	 eax, DWORD PTR [esi+20]
  00006	83 f8 10	 cmp	 eax, 16			; 00000010H

; 4385 :         if (_Mypair._Myval2._Large_string_engaged()) {

  00009	72 0c		 jb	 SHORT $LN4@basic_stri

; 4386 :             const pointer _Ptr = _Mypair._Myval2._Bx._Ptr;
; 4387 :             auto& _Al          = _Getal();
; 4388 :             _Destroy_in_place(_Mypair._Myval2._Bx._Ptr);
; 4389 :             _Al.deallocate(_Ptr, _Mypair._Myval2._Myres + 1);

  0000b	40		 inc	 eax
; File C:\Program Files (x86)\Microsoft Visual Studio\2019\Community\VC\Tools\MSVC\14.28.29333\include\xmemory

; 810  :         _Deallocate<_New_alignof<_Ty>>(_Ptr, sizeof(_Ty) * _Count);

  0000c	50		 push	 eax
  0000d	ff 36		 push	 DWORD PTR [esi]
  0000f	e8 00 00 00 00	 call	 ??$_Deallocate@$07$0A@@std@@YAXPAXI@Z ; std::_Deallocate<8,0>
  00014	83 c4 08	 add	 esp, 8
$LN4@basic_stri:
; File C:\Program Files (x86)\Microsoft Visual Studio\2019\Community\VC\Tools\MSVC\14.28.29333\include\xstring

; 4392 :         _Mypair._Myval2._Mysize = 0;

  00017	c7 46 10 00 00
	00 00		 mov	 DWORD PTR [esi+16], 0

; 4393 :         _Mypair._Myval2._Myres  = _BUF_SIZE - 1;

  0001e	c7 46 14 0f 00
	00 00		 mov	 DWORD PTR [esi+20], 15	; 0000000fH

; 4394 :         // the _Traits::assign is last so the codegen doesn't think the char write can alias this
; 4395 :         _Traits::assign(_Mypair._Myval2._Bx._Buf[0], _Elem());

  00025	c6 06 00	 mov	 BYTE PTR [esi], 0
  00028	5e		 pop	 esi

; 2801 :         _Tidy_deallocate();
; 2802 : #if _ITERATOR_DEBUG_LEVEL != 0
; 2803 :         auto&& _Alproxy          = _GET_PROXY_ALLOCATOR(_Alty, _Getal());
; 2804 :         const auto _To_delete    = _Mypair._Myval2._Myproxy;
; 2805 :         _Mypair._Myval2._Myproxy = nullptr;
; 2806 :         _Delete_plain_internal(_Alproxy, _To_delete);
; 2807 : #endif // _ITERATOR_DEBUG_LEVEL != 0
; 2808 :     }

  00029	c3		 ret	 0
??1?$basic_string@DU?$char_traits@D@std@@V?$allocator@D@2@@std@@QAE@XZ ENDP ; std::basic_string<char,std::char_traits<char>,std::allocator<char> >::~basic_string<char,std::char_traits<char>,std::allocator<char> >
_TEXT	ENDS
; Function compile flags: /Ogtp
; File C:\Program Files (x86)\Microsoft Visual Studio\2019\Community\VC\Tools\MSVC\14.28.29333\include\xstring
;	COMDAT ?_Xlen_string@std@@YAXXZ
_TEXT	SEGMENT
?_Xlen_string@std@@YAXXZ PROC				; std::_Xlen_string, COMDAT

; 2275 :     _Xlength_error("string too long");

  00000	68 00 00 00 00	 push	 OFFSET ??_C@_0BA@JFNIOLAK@string?5too?5long@
  00005	e8 00 00 00 00	 call	 ?_Xlength_error@std@@YAXPBD@Z ; std::_Xlength_error
$LN3@Xlen_strin:
  0000a	cc		 int	 3
?_Xlen_string@std@@YAXXZ ENDP				; std::_Xlen_string
_TEXT	ENDS
; Function compile flags: /Ogtp
; File C:\Program Files (x86)\Microsoft Visual Studio\2019\Community\VC\Tools\MSVC\14.28.29333\include\exception
;	COMDAT ?_Throw_bad_array_new_length@std@@YAXXZ
_TEXT	SEGMENT
$T1 = -12						; size = 12
?_Throw_bad_array_new_length@std@@YAXXZ PROC		; std::_Throw_bad_array_new_length, COMDAT

; 320  : [[noreturn]] inline void _Throw_bad_array_new_length() {

  00000	55		 push	 ebp
  00001	8b ec		 mov	 ebp, esp
  00003	83 ec 0c	 sub	 esp, 12			; 0000000cH

; 321  :     _THROW(bad_array_new_length{});

  00006	8d 4d f4	 lea	 ecx, DWORD PTR $T1[ebp]
  00009	e8 00 00 00 00	 call	 ??0bad_array_new_length@std@@QAE@XZ ; std::bad_array_new_length::bad_array_new_length
  0000e	68 00 00 00 00	 push	 OFFSET __TI3?AVbad_array_new_length@std@@
  00013	8d 45 f4	 lea	 eax, DWORD PTR $T1[ebp]
  00016	50		 push	 eax
  00017	e8 00 00 00 00	 call	 __CxxThrowException@8
$LN3@Throw_bad_:
  0001c	cc		 int	 3
?_Throw_bad_array_new_length@std@@YAXXZ ENDP		; std::_Throw_bad_array_new_length
_TEXT	ENDS
; Function compile flags: /Ogtp
; File C:\Program Files (x86)\Microsoft Visual Studio\2019\Community\VC\Tools\MSVC\14.28.29333\include\vcruntime_exception.h
;	COMDAT ??_Gbad_array_new_length@std@@UAEPAXI@Z
_TEXT	SEGMENT
___flags$ = 8						; size = 4
??_Gbad_array_new_length@std@@UAEPAXI@Z PROC		; std::bad_array_new_length::`scalar deleting destructor', COMDAT
; _this$ = ecx
  00000	55		 push	 ebp
  00001	8b ec		 mov	 ebp, esp

; 89   :     {

  00003	56		 push	 esi
  00004	8b f1		 mov	 esi, ecx

; 90   :         __std_exception_destroy(&_Data);

  00006	8d 46 04	 lea	 eax, DWORD PTR [esi+4]
  00009	c7 06 00 00 00
	00		 mov	 DWORD PTR [esi], OFFSET ??_7exception@std@@6B@
  0000f	50		 push	 eax
  00010	e8 00 00 00 00	 call	 ___std_exception_destroy
  00015	83 c4 04	 add	 esp, 4
  00018	f6 45 08 01	 test	 BYTE PTR ___flags$[ebp], 1
  0001c	74 0b		 je	 SHORT $LN12@scalar
  0001e	6a 0c		 push	 12			; 0000000cH
  00020	56		 push	 esi
  00021	e8 00 00 00 00	 call	 ??3@YAXPAXI@Z		; operator delete
  00026	83 c4 08	 add	 esp, 8
$LN12@scalar:
  00029	8b c6		 mov	 eax, esi
  0002b	5e		 pop	 esi
  0002c	5d		 pop	 ebp
  0002d	c2 04 00	 ret	 4
??_Gbad_array_new_length@std@@UAEPAXI@Z ENDP		; std::bad_array_new_length::`scalar deleting destructor'
_TEXT	ENDS
; Function compile flags: /Ogtp
; File C:\Program Files (x86)\Microsoft Visual Studio\2019\Community\VC\Tools\MSVC\14.28.29333\include\vcruntime_exception.h
;	COMDAT ??0bad_array_new_length@std@@QAE@ABV01@@Z
_TEXT	SEGMENT
___that$ = 8						; size = 4
??0bad_array_new_length@std@@QAE@ABV01@@Z PROC		; std::bad_array_new_length::bad_array_new_length, COMDAT
; _this$ = ecx
  00000	55		 push	 ebp
  00001	8b ec		 mov	 ebp, esp

; 72   :     {

  00003	56		 push	 esi
  00004	8b f1		 mov	 esi, ecx
  00006	0f 57 c0	 xorps	 xmm0, xmm0

; 71   :         : _Data()

  00009	8d 46 04	 lea	 eax, DWORD PTR [esi+4]

; 73   :         __std_exception_copy(&_Other._Data, &_Data);

  0000c	50		 push	 eax
  0000d	c7 06 00 00 00
	00		 mov	 DWORD PTR [esi], OFFSET ??_7exception@std@@6B@
  00013	66 0f d6 00	 movq	 QWORD PTR [eax], xmm0
  00017	8b 45 08	 mov	 eax, DWORD PTR ___that$[ebp]
  0001a	83 c0 04	 add	 eax, 4
  0001d	50		 push	 eax
  0001e	e8 00 00 00 00	 call	 ___std_exception_copy
  00023	83 c4 08	 add	 esp, 8
  00026	c7 06 00 00 00
	00		 mov	 DWORD PTR [esi], OFFSET ??_7bad_array_new_length@std@@6B@
  0002c	8b c6		 mov	 eax, esi
  0002e	5e		 pop	 esi
  0002f	5d		 pop	 ebp
  00030	c2 04 00	 ret	 4
??0bad_array_new_length@std@@QAE@ABV01@@Z ENDP		; std::bad_array_new_length::bad_array_new_length
_TEXT	ENDS
; Function compile flags: /Ogtp
; File C:\Program Files (x86)\Microsoft Visual Studio\2019\Community\VC\Tools\MSVC\14.28.29333\include\vcruntime_exception.h
;	COMDAT ??1bad_array_new_length@std@@UAE@XZ
_TEXT	SEGMENT
??1bad_array_new_length@std@@UAE@XZ PROC		; std::bad_array_new_length::~bad_array_new_length, COMDAT
; _this$ = ecx

; 90   :         __std_exception_destroy(&_Data);

  00000	8d 41 04	 lea	 eax, DWORD PTR [ecx+4]
  00003	c7 01 00 00 00
	00		 mov	 DWORD PTR [ecx], OFFSET ??_7exception@std@@6B@
  00009	50		 push	 eax
  0000a	e8 00 00 00 00	 call	 ___std_exception_destroy
  0000f	59		 pop	 ecx
  00010	c3		 ret	 0
??1bad_array_new_length@std@@UAE@XZ ENDP		; std::bad_array_new_length::~bad_array_new_length
_TEXT	ENDS
; Function compile flags: /Ogtp
; File C:\Program Files (x86)\Microsoft Visual Studio\2019\Community\VC\Tools\MSVC\14.28.29333\include\vcruntime_exception.h
;	COMDAT ??0bad_array_new_length@std@@QAE@XZ
_TEXT	SEGMENT
??0bad_array_new_length@std@@QAE@XZ PROC		; std::bad_array_new_length::bad_array_new_length, COMDAT
; _this$ = ecx

; 141  :     {

  00000	0f 57 c0	 xorps	 xmm0, xmm0

; 142  :     }

  00003	8b c1		 mov	 eax, ecx

; 65   :         : _Data()

  00005	66 0f d6 41 04	 movq	 QWORD PTR [ecx+4], xmm0

; 66   :     {
; 67   :         _Data._What = _Message;

  0000a	c7 41 04 00 00
	00 00		 mov	 DWORD PTR [ecx+4], OFFSET ??_C@_0BF@KINCDENJ@bad?5array?5new?5length@

; 141  :     {

  00011	c7 01 00 00 00
	00		 mov	 DWORD PTR [ecx], OFFSET ??_7bad_array_new_length@std@@6B@

; 142  :     }

  00017	c3		 ret	 0
??0bad_array_new_length@std@@QAE@XZ ENDP		; std::bad_array_new_length::bad_array_new_length
_TEXT	ENDS
; Function compile flags: /Ogtp
; File C:\Program Files (x86)\Microsoft Visual Studio\2019\Community\VC\Tools\MSVC\14.28.29333\include\vcruntime_exception.h
;	COMDAT ??_Gbad_alloc@std@@UAEPAXI@Z
_TEXT	SEGMENT
___flags$ = 8						; size = 4
??_Gbad_alloc@std@@UAEPAXI@Z PROC			; std::bad_alloc::`scalar deleting destructor', COMDAT
; _this$ = ecx
  00000	55		 push	 ebp
  00001	8b ec		 mov	 ebp, esp

; 89   :     {

  00003	56		 push	 esi
  00004	8b f1		 mov	 esi, ecx

; 90   :         __std_exception_destroy(&_Data);

  00006	8d 46 04	 lea	 eax, DWORD PTR [esi+4]
  00009	c7 06 00 00 00
	00		 mov	 DWORD PTR [esi], OFFSET ??_7exception@std@@6B@
  0000f	50		 push	 eax
  00010	e8 00 00 00 00	 call	 ___std_exception_destroy
  00015	83 c4 04	 add	 esp, 4
  00018	f6 45 08 01	 test	 BYTE PTR ___flags$[ebp], 1
  0001c	74 0b		 je	 SHORT $LN9@scalar
  0001e	6a 0c		 push	 12			; 0000000cH
  00020	56		 push	 esi
  00021	e8 00 00 00 00	 call	 ??3@YAXPAXI@Z		; operator delete
  00026	83 c4 08	 add	 esp, 8
$LN9@scalar:
  00029	8b c6		 mov	 eax, esi
  0002b	5e		 pop	 esi
  0002c	5d		 pop	 ebp
  0002d	c2 04 00	 ret	 4
??_Gbad_alloc@std@@UAEPAXI@Z ENDP			; std::bad_alloc::`scalar deleting destructor'
_TEXT	ENDS
; Function compile flags: /Ogtp
; File C:\Program Files (x86)\Microsoft Visual Studio\2019\Community\VC\Tools\MSVC\14.28.29333\include\vcruntime_exception.h
;	COMDAT ??0bad_alloc@std@@QAE@ABV01@@Z
_TEXT	SEGMENT
___that$ = 8						; size = 4
??0bad_alloc@std@@QAE@ABV01@@Z PROC			; std::bad_alloc::bad_alloc, COMDAT
; _this$ = ecx
  00000	55		 push	 ebp
  00001	8b ec		 mov	 ebp, esp

; 72   :     {

  00003	56		 push	 esi
  00004	8b f1		 mov	 esi, ecx
  00006	0f 57 c0	 xorps	 xmm0, xmm0

; 71   :         : _Data()

  00009	8d 46 04	 lea	 eax, DWORD PTR [esi+4]

; 73   :         __std_exception_copy(&_Other._Data, &_Data);

  0000c	50		 push	 eax
  0000d	c7 06 00 00 00
	00		 mov	 DWORD PTR [esi], OFFSET ??_7exception@std@@6B@
  00013	66 0f d6 00	 movq	 QWORD PTR [eax], xmm0
  00017	8b 45 08	 mov	 eax, DWORD PTR ___that$[ebp]
  0001a	83 c0 04	 add	 eax, 4
  0001d	50		 push	 eax
  0001e	e8 00 00 00 00	 call	 ___std_exception_copy
  00023	83 c4 08	 add	 esp, 8
  00026	c7 06 00 00 00
	00		 mov	 DWORD PTR [esi], OFFSET ??_7bad_alloc@std@@6B@
  0002c	8b c6		 mov	 eax, esi
  0002e	5e		 pop	 esi
  0002f	5d		 pop	 ebp
  00030	c2 04 00	 ret	 4
??0bad_alloc@std@@QAE@ABV01@@Z ENDP			; std::bad_alloc::bad_alloc
_TEXT	ENDS
; Function compile flags: /Ogtp
; File C:\Program Files (x86)\Microsoft Visual Studio\2019\Community\VC\Tools\MSVC\14.28.29333\include\vcruntime_exception.h
;	COMDAT ??_Gexception@std@@UAEPAXI@Z
_TEXT	SEGMENT
___flags$ = 8						; size = 4
??_Gexception@std@@UAEPAXI@Z PROC			; std::exception::`scalar deleting destructor', COMDAT
; _this$ = ecx
  00000	55		 push	 ebp
  00001	8b ec		 mov	 ebp, esp

; 89   :     {

  00003	56		 push	 esi
  00004	8b f1		 mov	 esi, ecx

; 90   :         __std_exception_destroy(&_Data);

  00006	8d 46 04	 lea	 eax, DWORD PTR [esi+4]
  00009	c7 06 00 00 00
	00		 mov	 DWORD PTR [esi], OFFSET ??_7exception@std@@6B@
  0000f	50		 push	 eax
  00010	e8 00 00 00 00	 call	 ___std_exception_destroy
  00015	83 c4 04	 add	 esp, 4
  00018	f6 45 08 01	 test	 BYTE PTR ___flags$[ebp], 1
  0001c	74 0b		 je	 SHORT $LN6@scalar
  0001e	6a 0c		 push	 12			; 0000000cH
  00020	56		 push	 esi
  00021	e8 00 00 00 00	 call	 ??3@YAXPAXI@Z		; operator delete
  00026	83 c4 08	 add	 esp, 8
$LN6@scalar:
  00029	8b c6		 mov	 eax, esi
  0002b	5e		 pop	 esi
  0002c	5d		 pop	 ebp
  0002d	c2 04 00	 ret	 4
??_Gexception@std@@UAEPAXI@Z ENDP			; std::exception::`scalar deleting destructor'
_TEXT	ENDS
; Function compile flags: /Ogtp
; File C:\Program Files (x86)\Microsoft Visual Studio\2019\Community\VC\Tools\MSVC\14.28.29333\include\vcruntime_exception.h
;	COMDAT ?what@exception@std@@UBEPBDXZ
_TEXT	SEGMENT
?what@exception@std@@UBEPBDXZ PROC			; std::exception::what, COMDAT
; _this$ = ecx

; 95   :         return _Data._What ? _Data._What : "Unknown exception";

  00000	8b 49 04	 mov	 ecx, DWORD PTR [ecx+4]
  00003	b8 00 00 00 00	 mov	 eax, OFFSET ??_C@_0BC@EOODALEL@Unknown?5exception@
  00008	85 c9		 test	 ecx, ecx
  0000a	0f 45 c1	 cmovne	 eax, ecx

; 96   :     }

  0000d	c3		 ret	 0
?what@exception@std@@UBEPBDXZ ENDP			; std::exception::what
_TEXT	ENDS
; Function compile flags: /Ogtp
; File C:\Program Files (x86)\Microsoft Visual Studio\2019\Community\VC\Tools\MSVC\14.28.29333\include\vcruntime_exception.h
;	COMDAT ??1exception@std@@UAE@XZ
_TEXT	SEGMENT
??1exception@std@@UAE@XZ PROC				; std::exception::~exception, COMDAT
; _this$ = ecx

; 90   :         __std_exception_destroy(&_Data);

  00000	8d 41 04	 lea	 eax, DWORD PTR [ecx+4]
  00003	c7 01 00 00 00
	00		 mov	 DWORD PTR [ecx], OFFSET ??_7exception@std@@6B@
  00009	50		 push	 eax
  0000a	e8 00 00 00 00	 call	 ___std_exception_destroy
  0000f	59		 pop	 ecx

; 91   :     }

  00010	c3		 ret	 0
??1exception@std@@UAE@XZ ENDP				; std::exception::~exception
_TEXT	ENDS
; Function compile flags: /Ogtp
; File C:\Program Files (x86)\Microsoft Visual Studio\2019\Community\VC\Tools\MSVC\14.28.29333\include\vcruntime_exception.h
;	COMDAT ??0exception@std@@QAE@ABV01@@Z
_TEXT	SEGMENT
__Other$ = 8						; size = 4
??0exception@std@@QAE@ABV01@@Z PROC			; std::exception::exception, COMDAT
; _this$ = ecx

; 72   :     {

  00000	55		 push	 ebp
  00001	8b ec		 mov	 ebp, esp
  00003	56		 push	 esi
  00004	8b f1		 mov	 esi, ecx
  00006	0f 57 c0	 xorps	 xmm0, xmm0
  00009	8d 46 04	 lea	 eax, DWORD PTR [esi+4]

; 73   :         __std_exception_copy(&_Other._Data, &_Data);

  0000c	50		 push	 eax
  0000d	c7 06 00 00 00
	00		 mov	 DWORD PTR [esi], OFFSET ??_7exception@std@@6B@
  00013	66 0f d6 00	 movq	 QWORD PTR [eax], xmm0
  00017	8b 45 08	 mov	 eax, DWORD PTR __Other$[ebp]
  0001a	83 c0 04	 add	 eax, 4
  0001d	50		 push	 eax
  0001e	e8 00 00 00 00	 call	 ___std_exception_copy
  00023	83 c4 08	 add	 esp, 8

; 74   :     }

  00026	8b c6		 mov	 eax, esi
  00028	5e		 pop	 esi
  00029	5d		 pop	 ebp
  0002a	c2 04 00	 ret	 4
??0exception@std@@QAE@ABV01@@Z ENDP			; std::exception::exception
_TEXT	ENDS
; Function compile flags: /Ogtp
; File C:\Program Files (x86)\Windows Kits\10\Include\10.0.18362.0\ucrt\stdio.h
;	COMDAT __snprintf
_TEXT	SEGMENT
__Buffer$ = 8						; size = 4
__BufferCount$ = 12					; size = 4
__Format$ = 16						; size = 4
__snprintf PROC						; COMDAT

; 1969 :     {

  00000	55		 push	 ebp
  00001	8b ec		 mov	 ebp, esp

; 1390 :         int const _Result = __stdio_common_vsprintf(

  00003	8d 45 14	 lea	 eax, DWORD PTR __Format$[ebp+4]
  00006	50		 push	 eax
  00007	6a 00		 push	 0
  00009	ff 75 10	 push	 DWORD PTR __Format$[ebp]
  0000c	ff 75 0c	 push	 DWORD PTR __BufferCount$[ebp]
  0000f	ff 75 08	 push	 DWORD PTR __Buffer$[ebp]
  00012	e8 00 00 00 00	 call	 ___local_stdio_printf_options
  00017	8b 08		 mov	 ecx, DWORD PTR [eax]
  00019	ff 70 04	 push	 DWORD PTR [eax+4]
  0001c	83 c9 01	 or	 ecx, 1
  0001f	51		 push	 ecx
  00020	e8 00 00 00 00	 call	 ___stdio_common_vsprintf

; 1391 :             _CRT_INTERNAL_LOCAL_PRINTF_OPTIONS | _CRT_INTERNAL_PRINTF_LEGACY_VSPRINTF_NULL_TERMINATION,
; 1392 :             _Buffer, _BufferCount, _Format, _Locale, _ArgList);
; 1393 : 
; 1394 :         return _Result < 0 ? -1 : _Result;

  00025	83 c9 ff	 or	 ecx, -1
  00028	83 c4 1c	 add	 esp, 28			; 0000001cH
  0002b	85 c0		 test	 eax, eax
  0002d	0f 48 c1	 cmovs	 eax, ecx

; 1970 :         int _Result;
; 1971 :         va_list _ArgList;
; 1972 :         __crt_va_start(_ArgList, _Format);
; 1973 :     #pragma warning(suppress:28719)    // 28719
; 1974 :         _Result = _vsnprintf(_Buffer, _BufferCount, _Format, _ArgList);
; 1975 :         __crt_va_end(_ArgList);
; 1976 :         return _Result;
; 1977 :     }

  00030	5d		 pop	 ebp
  00031	c3		 ret	 0
__snprintf ENDP
_TEXT	ENDS
; Function compile flags: /Ogtp
; File C:\Program Files (x86)\Windows Kits\10\Include\10.0.18362.0\ucrt\corecrt_stdio_config.h
;	COMDAT ___local_stdio_printf_options
_TEXT	SEGMENT
___local_stdio_printf_options PROC			; COMDAT

; 87   :         static unsigned __int64 _OptionsStorage;
; 88   :         return &_OptionsStorage;

  00000	b8 00 00 00 00	 mov	 eax, OFFSET ?_OptionsStorage@?1??__local_stdio_printf_options@@9@4_KA ; `__local_stdio_printf_options'::`2'::_OptionsStorage

; 89   :     }

  00005	c3		 ret	 0
___local_stdio_printf_options ENDP
_TEXT	ENDS
; Function compile flags: /Ogtp
; File D:\Metin2 Server Files\mainline\SRC_2014\Metin2Client\UserInterface\PythonPlayerModule.cpp
;	COMDAT ?__empty_global_delete@@YAXPAXI@Z
_TEXT	SEGMENT
___formal$ = 8						; size = 4
___formal$ = 12						; size = 4
?__empty_global_delete@@YAXPAXI@Z PROC			; __empty_global_delete, COMDAT

  00000	c2 00 00	 ret	 0
?__empty_global_delete@@YAXPAXI@Z ENDP			; __empty_global_delete
_TEXT	ENDS
; Function compile flags: /Ogtp
; File D:\Metin2 Server Files\mainline\SRC_2014\Metin2Client\UserInterface\PythonPlayerModule.cpp
;	COMDAT ?__empty_global_delete@@YAXPAX@Z
_TEXT	SEGMENT
___formal$ = 8						; size = 4
?__empty_global_delete@@YAXPAX@Z PROC			; __empty_global_delete, COMDAT

  00000	c2 00 00	 ret	 0
?__empty_global_delete@@YAXPAX@Z ENDP			; __empty_global_delete
_TEXT	ENDS
; Function compile flags: /Ogtp
;	COMDAT ??_H@YGXPAXIIP6EPAX0@Z@Z
_TEXT	SEGMENT
___t$ = 8						; size = 4
___s$ = 12						; size = 4
___n$ = 16						; size = 4
___f$ = 20						; size = 4
??_H@YGXPAXIIP6EPAX0@Z@Z PROC				; `vector constructor iterator', COMDAT
  00000	55		 push	 ebp
  00001	8b ec		 mov	 ebp, esp
  00003	56		 push	 esi
  00004	8b 75 10	 mov	 esi, DWORD PTR ___n$[ebp]
  00007	85 f6		 test	 esi, esi
  00009	74 16		 je	 SHORT $LN6@vector
  0000b	53		 push	 ebx
  0000c	8b 5d 14	 mov	 ebx, DWORD PTR ___f$[ebp]
  0000f	57		 push	 edi
  00010	8b 7d 08	 mov	 edi, DWORD PTR ___t$[ebp]
$LL2@vector:
  00013	8b cf		 mov	 ecx, edi
  00015	ff d3		 call	 ebx
  00017	03 7d 0c	 add	 edi, DWORD PTR ___s$[ebp]
  0001a	83 ee 01	 sub	 esi, 1
  0001d	75 f4		 jne	 SHORT $LL2@vector
  0001f	5f		 pop	 edi
  00020	5b		 pop	 ebx
$LN6@vector:
  00021	5e		 pop	 esi
  00022	5d		 pop	 ebp
  00023	c2 10 00	 ret	 16			; 00000010H
??_H@YGXPAXIIP6EPAX0@Z@Z ENDP				; `vector constructor iterator'
_TEXT	ENDS
END
