; Listing generated by Microsoft (R) Optimizing Compiler Version 19.28.29335.0 

	TITLE	D:\Metin2 Server Files\mainline\SRC_2014\Metin2Client\UserInterface\PythonApplication.cpp
	.686P
	.XMM
	include listing.inc
	.model	flat

INCLUDELIB LIBCMT
INCLUDELIB OLDNAMES

PUBLIC	?ms_pInstance@CPythonApplication@@1PAV1@A	; CPythonApplication::ms_pInstance
PUBLIC	?MIN_FOG@@3MA					; MIN_FOG
PUBLIC	?g_specularSpd@@3NA				; g_specularSpd
PUBLIC	?c_fDefaultCameraRotateSpeed@@3MA		; c_fDefaultCameraRotateSpeed
PUBLIC	?c_fDefaultCameraPitchSpeed@@3MA		; c_fDefaultCameraPitchSpeed
PUBLIC	?c_fDefaultCameraZoomSpeed@@3MA			; c_fDefaultCameraZoomSpeed
PUBLIC	?PERF_CHECKER_RENDER_GAME@@3_NA			; PERF_CHECKER_RENDER_GAME
PUBLIC	??_7?$CDynamicPoolEx@VCRotationDecorator@NEffectUpdateDecorator@@@@6B@ ; CDynamicPoolEx<NEffectUpdateDecorator::CRotationDecorator>::`vftable'
PUBLIC	??_G?$CDynamicPoolEx@VCRotationDecorator@NEffectUpdateDecorator@@@@UAEPAXI@Z ; CDynamicPoolEx<NEffectUpdateDecorator::CRotationDecorator>::`scalar deleting destructor'
PUBLIC	??_R4?$CDynamicPoolEx@VCHeaderDecorator@NEffectUpdateDecorator@@@@6B@ ; CDynamicPoolEx<NEffectUpdateDecorator::CHeaderDecorator>::`RTTI Complete Object Locator'
PUBLIC	??_R0?AV?$CDynamicPoolEx@VCHeaderDecorator@NEffectUpdateDecorator@@@@@8 ; CDynamicPoolEx<NEffectUpdateDecorator::CHeaderDecorator> `RTTI Type Descriptor'
PUBLIC	??_R3?$CDynamicPoolEx@VCHeaderDecorator@NEffectUpdateDecorator@@@@8 ; CDynamicPoolEx<NEffectUpdateDecorator::CHeaderDecorator>::`RTTI Class Hierarchy Descriptor'
PUBLIC	??_R2?$CDynamicPoolEx@VCHeaderDecorator@NEffectUpdateDecorator@@@@8 ; CDynamicPoolEx<NEffectUpdateDecorator::CHeaderDecorator>::`RTTI Base Class Array'
PUBLIC	??_R1A@?0A@EA@?$CDynamicPoolEx@VCHeaderDecorator@NEffectUpdateDecorator@@@@8 ; CDynamicPoolEx<NEffectUpdateDecorator::CHeaderDecorator>::`RTTI Base Class Descriptor at (0,-1,0,64)'
PUBLIC	??_R4?$CDynamicPoolEx@VCNullDecorator@NEffectUpdateDecorator@@@@6B@ ; CDynamicPoolEx<NEffectUpdateDecorator::CNullDecorator>::`RTTI Complete Object Locator'
PUBLIC	??_R0?AV?$CDynamicPoolEx@VCNullDecorator@NEffectUpdateDecorator@@@@@8 ; CDynamicPoolEx<NEffectUpdateDecorator::CNullDecorator> `RTTI Type Descriptor'
PUBLIC	??_R3?$CDynamicPoolEx@VCNullDecorator@NEffectUpdateDecorator@@@@8 ; CDynamicPoolEx<NEffectUpdateDecorator::CNullDecorator>::`RTTI Class Hierarchy Descriptor'
PUBLIC	??_R2?$CDynamicPoolEx@VCNullDecorator@NEffectUpdateDecorator@@@@8 ; CDynamicPoolEx<NEffectUpdateDecorator::CNullDecorator>::`RTTI Base Class Array'
PUBLIC	??_R1A@?0A@EA@?$CDynamicPoolEx@VCNullDecorator@NEffectUpdateDecorator@@@@8 ; CDynamicPoolEx<NEffectUpdateDecorator::CNullDecorator>::`RTTI Base Class Descriptor at (0,-1,0,64)'
PUBLIC	??_R4?$CDynamicPoolEx@VCTextureAnimationCWDecorator@NEffectUpdateDecorator@@@@6B@ ; CDynamicPoolEx<NEffectUpdateDecorator::CTextureAnimationCWDecorator>::`RTTI Complete Object Locator'
PUBLIC	??_R0?AV?$CDynamicPoolEx@VCTextureAnimationCWDecorator@NEffectUpdateDecorator@@@@@8 ; CDynamicPoolEx<NEffectUpdateDecorator::CTextureAnimationCWDecorator> `RTTI Type Descriptor'
PUBLIC	??_R3?$CDynamicPoolEx@VCTextureAnimationCWDecorator@NEffectUpdateDecorator@@@@8 ; CDynamicPoolEx<NEffectUpdateDecorator::CTextureAnimationCWDecorator>::`RTTI Class Hierarchy Descriptor'
PUBLIC	??_R2?$CDynamicPoolEx@VCTextureAnimationCWDecorator@NEffectUpdateDecorator@@@@8 ; CDynamicPoolEx<NEffectUpdateDecorator::CTextureAnimationCWDecorator>::`RTTI Base Class Array'
PUBLIC	??_R1A@?0A@EA@?$CDynamicPoolEx@VCTextureAnimationCWDecorator@NEffectUpdateDecorator@@@@8 ; CDynamicPoolEx<NEffectUpdateDecorator::CTextureAnimationCWDecorator>::`RTTI Base Class Descriptor at (0,-1,0,64)'
PUBLIC	??_R4?$CDynamicPoolEx@VCTextureAnimationCCWDecorator@NEffectUpdateDecorator@@@@6B@ ; CDynamicPoolEx<NEffectUpdateDecorator::CTextureAnimationCCWDecorator>::`RTTI Complete Object Locator'
PUBLIC	??_R0?AV?$CDynamicPoolEx@VCTextureAnimationCCWDecorator@NEffectUpdateDecorator@@@@@8 ; CDynamicPoolEx<NEffectUpdateDecorator::CTextureAnimationCCWDecorator> `RTTI Type Descriptor'
PUBLIC	??_R3?$CDynamicPoolEx@VCTextureAnimationCCWDecorator@NEffectUpdateDecorator@@@@8 ; CDynamicPoolEx<NEffectUpdateDecorator::CTextureAnimationCCWDecorator>::`RTTI Class Hierarchy Descriptor'
PUBLIC	??_R2?$CDynamicPoolEx@VCTextureAnimationCCWDecorator@NEffectUpdateDecorator@@@@8 ; CDynamicPoolEx<NEffectUpdateDecorator::CTextureAnimationCCWDecorator>::`RTTI Base Class Array'
PUBLIC	??_R1A@?0A@EA@?$CDynamicPoolEx@VCTextureAnimationCCWDecorator@NEffectUpdateDecorator@@@@8 ; CDynamicPoolEx<NEffectUpdateDecorator::CTextureAnimationCCWDecorator>::`RTTI Base Class Descriptor at (0,-1,0,64)'
PUBLIC	??_R4?$CDynamicPoolEx@VCTextureAnimationRandomDecorator@NEffectUpdateDecorator@@@@6B@ ; CDynamicPoolEx<NEffectUpdateDecorator::CTextureAnimationRandomDecorator>::`RTTI Complete Object Locator'
PUBLIC	??_R0?AV?$CDynamicPoolEx@VCTextureAnimationRandomDecorator@NEffectUpdateDecorator@@@@@8 ; CDynamicPoolEx<NEffectUpdateDecorator::CTextureAnimationRandomDecorator> `RTTI Type Descriptor'
PUBLIC	??_R3?$CDynamicPoolEx@VCTextureAnimationRandomDecorator@NEffectUpdateDecorator@@@@8 ; CDynamicPoolEx<NEffectUpdateDecorator::CTextureAnimationRandomDecorator>::`RTTI Class Hierarchy Descriptor'
PUBLIC	??_R2?$CDynamicPoolEx@VCTextureAnimationRandomDecorator@NEffectUpdateDecorator@@@@8 ; CDynamicPoolEx<NEffectUpdateDecorator::CTextureAnimationRandomDecorator>::`RTTI Base Class Array'
PUBLIC	??_R1A@?0A@EA@?$CDynamicPoolEx@VCTextureAnimationRandomDecorator@NEffectUpdateDecorator@@@@8 ; CDynamicPoolEx<NEffectUpdateDecorator::CTextureAnimationRandomDecorator>::`RTTI Base Class Descriptor at (0,-1,0,64)'
PUBLIC	??_R4?$CDynamicPoolEx@VCAirResistanceDecorator@NEffectUpdateDecorator@@@@6B@ ; CDynamicPoolEx<NEffectUpdateDecorator::CAirResistanceDecorator>::`RTTI Complete Object Locator'
PUBLIC	??_R0?AV?$CDynamicPoolEx@VCAirResistanceDecorator@NEffectUpdateDecorator@@@@@8 ; CDynamicPoolEx<NEffectUpdateDecorator::CAirResistanceDecorator> `RTTI Type Descriptor'
PUBLIC	??_R3?$CDynamicPoolEx@VCAirResistanceDecorator@NEffectUpdateDecorator@@@@8 ; CDynamicPoolEx<NEffectUpdateDecorator::CAirResistanceDecorator>::`RTTI Class Hierarchy Descriptor'
PUBLIC	??_R2?$CDynamicPoolEx@VCAirResistanceDecorator@NEffectUpdateDecorator@@@@8 ; CDynamicPoolEx<NEffectUpdateDecorator::CAirResistanceDecorator>::`RTTI Base Class Array'
PUBLIC	??_R1A@?0A@EA@?$CDynamicPoolEx@VCAirResistanceDecorator@NEffectUpdateDecorator@@@@8 ; CDynamicPoolEx<NEffectUpdateDecorator::CAirResistanceDecorator>::`RTTI Base Class Descriptor at (0,-1,0,64)'
PUBLIC	??_R4?$CDynamicPoolEx@VCGravityDecorator@NEffectUpdateDecorator@@@@6B@ ; CDynamicPoolEx<NEffectUpdateDecorator::CGravityDecorator>::`RTTI Complete Object Locator'
PUBLIC	??_R0?AV?$CDynamicPoolEx@VCGravityDecorator@NEffectUpdateDecorator@@@@@8 ; CDynamicPoolEx<NEffectUpdateDecorator::CGravityDecorator> `RTTI Type Descriptor'
PUBLIC	??_R3?$CDynamicPoolEx@VCGravityDecorator@NEffectUpdateDecorator@@@@8 ; CDynamicPoolEx<NEffectUpdateDecorator::CGravityDecorator>::`RTTI Class Hierarchy Descriptor'
PUBLIC	??_R2?$CDynamicPoolEx@VCGravityDecorator@NEffectUpdateDecorator@@@@8 ; CDynamicPoolEx<NEffectUpdateDecorator::CGravityDecorator>::`RTTI Base Class Array'
PUBLIC	??_R1A@?0A@EA@?$CDynamicPoolEx@VCGravityDecorator@NEffectUpdateDecorator@@@@8 ; CDynamicPoolEx<NEffectUpdateDecorator::CGravityDecorator>::`RTTI Base Class Descriptor at (0,-1,0,64)'
PUBLIC	??_R4?$CDynamicPoolEx@VCRotationDecorator@NEffectUpdateDecorator@@@@6B@ ; CDynamicPoolEx<NEffectUpdateDecorator::CRotationDecorator>::`RTTI Complete Object Locator'
PUBLIC	??_R0?AV?$CDynamicPoolEx@VCRotationDecorator@NEffectUpdateDecorator@@@@@8 ; CDynamicPoolEx<NEffectUpdateDecorator::CRotationDecorator> `RTTI Type Descriptor'
PUBLIC	??_R3?$CDynamicPoolEx@VCRotationDecorator@NEffectUpdateDecorator@@@@8 ; CDynamicPoolEx<NEffectUpdateDecorator::CRotationDecorator>::`RTTI Class Hierarchy Descriptor'
PUBLIC	??_R2?$CDynamicPoolEx@VCRotationDecorator@NEffectUpdateDecorator@@@@8 ; CDynamicPoolEx<NEffectUpdateDecorator::CRotationDecorator>::`RTTI Base Class Array'
PUBLIC	??_R1A@?0A@EA@?$CDynamicPoolEx@VCRotationDecorator@NEffectUpdateDecorator@@@@8 ; CDynamicPoolEx<NEffectUpdateDecorator::CRotationDecorator>::`RTTI Base Class Descriptor at (0,-1,0,64)'
PUBLIC	??_7?$CDynamicPoolEx@VCGravityDecorator@NEffectUpdateDecorator@@@@6B@ ; CDynamicPoolEx<NEffectUpdateDecorator::CGravityDecorator>::`vftable'
PUBLIC	??_G?$CDynamicPoolEx@VCGravityDecorator@NEffectUpdateDecorator@@@@UAEPAXI@Z ; CDynamicPoolEx<NEffectUpdateDecorator::CGravityDecorator>::`scalar deleting destructor'
PUBLIC	??_7?$CDynamicPoolEx@VCAirResistanceDecorator@NEffectUpdateDecorator@@@@6B@ ; CDynamicPoolEx<NEffectUpdateDecorator::CAirResistanceDecorator>::`vftable'
PUBLIC	??_G?$CDynamicPoolEx@VCAirResistanceDecorator@NEffectUpdateDecorator@@@@UAEPAXI@Z ; CDynamicPoolEx<NEffectUpdateDecorator::CAirResistanceDecorator>::`scalar deleting destructor'
PUBLIC	??_7?$CDynamicPoolEx@VCTextureAnimationRandomDecorator@NEffectUpdateDecorator@@@@6B@ ; CDynamicPoolEx<NEffectUpdateDecorator::CTextureAnimationRandomDecorator>::`vftable'
PUBLIC	??_G?$CDynamicPoolEx@VCTextureAnimationRandomDecorator@NEffectUpdateDecorator@@@@UAEPAXI@Z ; CDynamicPoolEx<NEffectUpdateDecorator::CTextureAnimationRandomDecorator>::`scalar deleting destructor'
PUBLIC	??_7?$CDynamicPoolEx@VCTextureAnimationCCWDecorator@NEffectUpdateDecorator@@@@6B@ ; CDynamicPoolEx<NEffectUpdateDecorator::CTextureAnimationCCWDecorator>::`vftable'
PUBLIC	??_G?$CDynamicPoolEx@VCTextureAnimationCCWDecorator@NEffectUpdateDecorator@@@@UAEPAXI@Z ; CDynamicPoolEx<NEffectUpdateDecorator::CTextureAnimationCCWDecorator>::`scalar deleting destructor'
PUBLIC	??_7?$CDynamicPoolEx@VCTextureAnimationCWDecorator@NEffectUpdateDecorator@@@@6B@ ; CDynamicPoolEx<NEffectUpdateDecorator::CTextureAnimationCWDecorator>::`vftable'
PUBLIC	??_G?$CDynamicPoolEx@VCTextureAnimationCWDecorator@NEffectUpdateDecorator@@@@UAEPAXI@Z ; CDynamicPoolEx<NEffectUpdateDecorator::CTextureAnimationCWDecorator>::`scalar deleting destructor'
PUBLIC	??_7?$CDynamicPoolEx@VCNullDecorator@NEffectUpdateDecorator@@@@6B@ ; CDynamicPoolEx<NEffectUpdateDecorator::CNullDecorator>::`vftable'
PUBLIC	??_G?$CDynamicPoolEx@VCNullDecorator@NEffectUpdateDecorator@@@@UAEPAXI@Z ; CDynamicPoolEx<NEffectUpdateDecorator::CNullDecorator>::`scalar deleting destructor'
PUBLIC	??_7?$CDynamicPoolEx@VCHeaderDecorator@NEffectUpdateDecorator@@@@6B@ ; CDynamicPoolEx<NEffectUpdateDecorator::CHeaderDecorator>::`vftable'
PUBLIC	??_G?$CDynamicPoolEx@VCHeaderDecorator@NEffectUpdateDecorator@@@@UAEPAXI@Z ; CDynamicPoolEx<NEffectUpdateDecorator::CHeaderDecorator>::`scalar deleting destructor'
EXTRN	??_E?$CDynamicPoolEx@VCRotationDecorator@NEffectUpdateDecorator@@@@UAEPAXI@Z:PROC ; CDynamicPoolEx<NEffectUpdateDecorator::CRotationDecorator>::`vector deleting destructor'
EXTRN	??_E?$CDynamicPoolEx@VCGravityDecorator@NEffectUpdateDecorator@@@@UAEPAXI@Z:PROC ; CDynamicPoolEx<NEffectUpdateDecorator::CGravityDecorator>::`vector deleting destructor'
EXTRN	??_E?$CDynamicPoolEx@VCAirResistanceDecorator@NEffectUpdateDecorator@@@@UAEPAXI@Z:PROC ; CDynamicPoolEx<NEffectUpdateDecorator::CAirResistanceDecorator>::`vector deleting destructor'
EXTRN	??_E?$CDynamicPoolEx@VCTextureAnimationRandomDecorator@NEffectUpdateDecorator@@@@UAEPAXI@Z:PROC ; CDynamicPoolEx<NEffectUpdateDecorator::CTextureAnimationRandomDecorator>::`vector deleting destructor'
EXTRN	??_7type_info@@6B@:QWORD			; type_info::`vftable'
EXTRN	??_E?$CDynamicPoolEx@VCTextureAnimationCCWDecorator@NEffectUpdateDecorator@@@@UAEPAXI@Z:PROC ; CDynamicPoolEx<NEffectUpdateDecorator::CTextureAnimationCCWDecorator>::`vector deleting destructor'
EXTRN	??_E?$CDynamicPoolEx@VCTextureAnimationCWDecorator@NEffectUpdateDecorator@@@@UAEPAXI@Z:PROC ; CDynamicPoolEx<NEffectUpdateDecorator::CTextureAnimationCWDecorator>::`vector deleting destructor'
EXTRN	??_E?$CDynamicPoolEx@VCNullDecorator@NEffectUpdateDecorator@@@@UAEPAXI@Z:PROC ; CDynamicPoolEx<NEffectUpdateDecorator::CNullDecorator>::`vector deleting destructor'
EXTRN	??_E?$CDynamicPoolEx@VCHeaderDecorator@NEffectUpdateDecorator@@@@UAEPAXI@Z:PROC ; CDynamicPoolEx<NEffectUpdateDecorator::CHeaderDecorator>::`vector deleting destructor'
_BSS	SEGMENT
?ms_pInstance@CPythonApplication@@1PAV1@A DD 01H DUP (?) ; CPythonApplication::ms_pInstance
?PERF_CHECKER_RENDER_GAME@@3_NA DB 01H DUP (?)		; PERF_CHECKER_RENDER_GAME
_BSS	ENDS
;	COMDAT ??_7?$CDynamicPoolEx@VCHeaderDecorator@NEffectUpdateDecorator@@@@6B@
CONST	SEGMENT
??_7?$CDynamicPoolEx@VCHeaderDecorator@NEffectUpdateDecorator@@@@6B@ DD FLAT:??_R4?$CDynamicPoolEx@VCHeaderDecorator@NEffectUpdateDecorator@@@@6B@ ; CDynamicPoolEx<NEffectUpdateDecorator::CHeaderDecorator>::`vftable'
	DD	FLAT:??_E?$CDynamicPoolEx@VCHeaderDecorator@NEffectUpdateDecorator@@@@UAEPAXI@Z
CONST	ENDS
;	COMDAT ??_7?$CDynamicPoolEx@VCNullDecorator@NEffectUpdateDecorator@@@@6B@
CONST	SEGMENT
??_7?$CDynamicPoolEx@VCNullDecorator@NEffectUpdateDecorator@@@@6B@ DD FLAT:??_R4?$CDynamicPoolEx@VCNullDecorator@NEffectUpdateDecorator@@@@6B@ ; CDynamicPoolEx<NEffectUpdateDecorator::CNullDecorator>::`vftable'
	DD	FLAT:??_E?$CDynamicPoolEx@VCNullDecorator@NEffectUpdateDecorator@@@@UAEPAXI@Z
CONST	ENDS
;	COMDAT ??_7?$CDynamicPoolEx@VCTextureAnimationCWDecorator@NEffectUpdateDecorator@@@@6B@
CONST	SEGMENT
??_7?$CDynamicPoolEx@VCTextureAnimationCWDecorator@NEffectUpdateDecorator@@@@6B@ DD FLAT:??_R4?$CDynamicPoolEx@VCTextureAnimationCWDecorator@NEffectUpdateDecorator@@@@6B@ ; CDynamicPoolEx<NEffectUpdateDecorator::CTextureAnimationCWDecorator>::`vftable'
	DD	FLAT:??_E?$CDynamicPoolEx@VCTextureAnimationCWDecorator@NEffectUpdateDecorator@@@@UAEPAXI@Z
CONST	ENDS
;	COMDAT ??_7?$CDynamicPoolEx@VCTextureAnimationCCWDecorator@NEffectUpdateDecorator@@@@6B@
CONST	SEGMENT
??_7?$CDynamicPoolEx@VCTextureAnimationCCWDecorator@NEffectUpdateDecorator@@@@6B@ DD FLAT:??_R4?$CDynamicPoolEx@VCTextureAnimationCCWDecorator@NEffectUpdateDecorator@@@@6B@ ; CDynamicPoolEx<NEffectUpdateDecorator::CTextureAnimationCCWDecorator>::`vftable'
	DD	FLAT:??_E?$CDynamicPoolEx@VCTextureAnimationCCWDecorator@NEffectUpdateDecorator@@@@UAEPAXI@Z
CONST	ENDS
;	COMDAT ??_7?$CDynamicPoolEx@VCTextureAnimationRandomDecorator@NEffectUpdateDecorator@@@@6B@
CONST	SEGMENT
??_7?$CDynamicPoolEx@VCTextureAnimationRandomDecorator@NEffectUpdateDecorator@@@@6B@ DD FLAT:??_R4?$CDynamicPoolEx@VCTextureAnimationRandomDecorator@NEffectUpdateDecorator@@@@6B@ ; CDynamicPoolEx<NEffectUpdateDecorator::CTextureAnimationRandomDecorator>::`vftable'
	DD	FLAT:??_E?$CDynamicPoolEx@VCTextureAnimationRandomDecorator@NEffectUpdateDecorator@@@@UAEPAXI@Z
CONST	ENDS
;	COMDAT ??_7?$CDynamicPoolEx@VCAirResistanceDecorator@NEffectUpdateDecorator@@@@6B@
CONST	SEGMENT
??_7?$CDynamicPoolEx@VCAirResistanceDecorator@NEffectUpdateDecorator@@@@6B@ DD FLAT:??_R4?$CDynamicPoolEx@VCAirResistanceDecorator@NEffectUpdateDecorator@@@@6B@ ; CDynamicPoolEx<NEffectUpdateDecorator::CAirResistanceDecorator>::`vftable'
	DD	FLAT:??_E?$CDynamicPoolEx@VCAirResistanceDecorator@NEffectUpdateDecorator@@@@UAEPAXI@Z
CONST	ENDS
;	COMDAT ??_7?$CDynamicPoolEx@VCGravityDecorator@NEffectUpdateDecorator@@@@6B@
CONST	SEGMENT
??_7?$CDynamicPoolEx@VCGravityDecorator@NEffectUpdateDecorator@@@@6B@ DD FLAT:??_R4?$CDynamicPoolEx@VCGravityDecorator@NEffectUpdateDecorator@@@@6B@ ; CDynamicPoolEx<NEffectUpdateDecorator::CGravityDecorator>::`vftable'
	DD	FLAT:??_E?$CDynamicPoolEx@VCGravityDecorator@NEffectUpdateDecorator@@@@UAEPAXI@Z
CONST	ENDS
;	COMDAT ??_R1A@?0A@EA@?$CDynamicPoolEx@VCRotationDecorator@NEffectUpdateDecorator@@@@8
rdata$r	SEGMENT
??_R1A@?0A@EA@?$CDynamicPoolEx@VCRotationDecorator@NEffectUpdateDecorator@@@@8 DD FLAT:??_R0?AV?$CDynamicPoolEx@VCRotationDecorator@NEffectUpdateDecorator@@@@@8 ; CDynamicPoolEx<NEffectUpdateDecorator::CRotationDecorator>::`RTTI Base Class Descriptor at (0,-1,0,64)'
	DD	00H
	DD	00H
	DD	0ffffffffH
	DD	00H
	DD	040H
	DD	FLAT:??_R3?$CDynamicPoolEx@VCRotationDecorator@NEffectUpdateDecorator@@@@8
rdata$r	ENDS
;	COMDAT ??_R2?$CDynamicPoolEx@VCRotationDecorator@NEffectUpdateDecorator@@@@8
rdata$r	SEGMENT
??_R2?$CDynamicPoolEx@VCRotationDecorator@NEffectUpdateDecorator@@@@8 DD FLAT:??_R1A@?0A@EA@?$CDynamicPoolEx@VCRotationDecorator@NEffectUpdateDecorator@@@@8 ; CDynamicPoolEx<NEffectUpdateDecorator::CRotationDecorator>::`RTTI Base Class Array'
rdata$r	ENDS
;	COMDAT ??_R3?$CDynamicPoolEx@VCRotationDecorator@NEffectUpdateDecorator@@@@8
rdata$r	SEGMENT
??_R3?$CDynamicPoolEx@VCRotationDecorator@NEffectUpdateDecorator@@@@8 DD 00H ; CDynamicPoolEx<NEffectUpdateDecorator::CRotationDecorator>::`RTTI Class Hierarchy Descriptor'
	DD	00H
	DD	01H
	DD	FLAT:??_R2?$CDynamicPoolEx@VCRotationDecorator@NEffectUpdateDecorator@@@@8
rdata$r	ENDS
;	COMDAT ??_R0?AV?$CDynamicPoolEx@VCRotationDecorator@NEffectUpdateDecorator@@@@@8
data$rs	SEGMENT
??_R0?AV?$CDynamicPoolEx@VCRotationDecorator@NEffectUpdateDecorator@@@@@8 DD FLAT:??_7type_info@@6B@ ; CDynamicPoolEx<NEffectUpdateDecorator::CRotationDecorator> `RTTI Type Descriptor'
	DD	00H
	DB	'.?AV?$CDynamicPoolEx@VCRotationDecorator@NEffectUpdateDe'
	DB	'corator@@@@', 00H
data$rs	ENDS
;	COMDAT ??_R4?$CDynamicPoolEx@VCRotationDecorator@NEffectUpdateDecorator@@@@6B@
rdata$r	SEGMENT
??_R4?$CDynamicPoolEx@VCRotationDecorator@NEffectUpdateDecorator@@@@6B@ DD 00H ; CDynamicPoolEx<NEffectUpdateDecorator::CRotationDecorator>::`RTTI Complete Object Locator'
	DD	00H
	DD	00H
	DD	FLAT:??_R0?AV?$CDynamicPoolEx@VCRotationDecorator@NEffectUpdateDecorator@@@@@8
	DD	FLAT:??_R3?$CDynamicPoolEx@VCRotationDecorator@NEffectUpdateDecorator@@@@8
rdata$r	ENDS
;	COMDAT ??_R1A@?0A@EA@?$CDynamicPoolEx@VCGravityDecorator@NEffectUpdateDecorator@@@@8
rdata$r	SEGMENT
??_R1A@?0A@EA@?$CDynamicPoolEx@VCGravityDecorator@NEffectUpdateDecorator@@@@8 DD FLAT:??_R0?AV?$CDynamicPoolEx@VCGravityDecorator@NEffectUpdateDecorator@@@@@8 ; CDynamicPoolEx<NEffectUpdateDecorator::CGravityDecorator>::`RTTI Base Class Descriptor at (0,-1,0,64)'
	DD	00H
	DD	00H
	DD	0ffffffffH
	DD	00H
	DD	040H
	DD	FLAT:??_R3?$CDynamicPoolEx@VCGravityDecorator@NEffectUpdateDecorator@@@@8
rdata$r	ENDS
;	COMDAT ??_R2?$CDynamicPoolEx@VCGravityDecorator@NEffectUpdateDecorator@@@@8
rdata$r	SEGMENT
??_R2?$CDynamicPoolEx@VCGravityDecorator@NEffectUpdateDecorator@@@@8 DD FLAT:??_R1A@?0A@EA@?$CDynamicPoolEx@VCGravityDecorator@NEffectUpdateDecorator@@@@8 ; CDynamicPoolEx<NEffectUpdateDecorator::CGravityDecorator>::`RTTI Base Class Array'
rdata$r	ENDS
;	COMDAT ??_R3?$CDynamicPoolEx@VCGravityDecorator@NEffectUpdateDecorator@@@@8
rdata$r	SEGMENT
??_R3?$CDynamicPoolEx@VCGravityDecorator@NEffectUpdateDecorator@@@@8 DD 00H ; CDynamicPoolEx<NEffectUpdateDecorator::CGravityDecorator>::`RTTI Class Hierarchy Descriptor'
	DD	00H
	DD	01H
	DD	FLAT:??_R2?$CDynamicPoolEx@VCGravityDecorator@NEffectUpdateDecorator@@@@8
rdata$r	ENDS
;	COMDAT ??_R0?AV?$CDynamicPoolEx@VCGravityDecorator@NEffectUpdateDecorator@@@@@8
data$rs	SEGMENT
??_R0?AV?$CDynamicPoolEx@VCGravityDecorator@NEffectUpdateDecorator@@@@@8 DD FLAT:??_7type_info@@6B@ ; CDynamicPoolEx<NEffectUpdateDecorator::CGravityDecorator> `RTTI Type Descriptor'
	DD	00H
	DB	'.?AV?$CDynamicPoolEx@VCGravityDecorator@NEffectUpdateDec'
	DB	'orator@@@@', 00H
data$rs	ENDS
;	COMDAT ??_R4?$CDynamicPoolEx@VCGravityDecorator@NEffectUpdateDecorator@@@@6B@
rdata$r	SEGMENT
??_R4?$CDynamicPoolEx@VCGravityDecorator@NEffectUpdateDecorator@@@@6B@ DD 00H ; CDynamicPoolEx<NEffectUpdateDecorator::CGravityDecorator>::`RTTI Complete Object Locator'
	DD	00H
	DD	00H
	DD	FLAT:??_R0?AV?$CDynamicPoolEx@VCGravityDecorator@NEffectUpdateDecorator@@@@@8
	DD	FLAT:??_R3?$CDynamicPoolEx@VCGravityDecorator@NEffectUpdateDecorator@@@@8
rdata$r	ENDS
;	COMDAT ??_R1A@?0A@EA@?$CDynamicPoolEx@VCAirResistanceDecorator@NEffectUpdateDecorator@@@@8
rdata$r	SEGMENT
??_R1A@?0A@EA@?$CDynamicPoolEx@VCAirResistanceDecorator@NEffectUpdateDecorator@@@@8 DD FLAT:??_R0?AV?$CDynamicPoolEx@VCAirResistanceDecorator@NEffectUpdateDecorator@@@@@8 ; CDynamicPoolEx<NEffectUpdateDecorator::CAirResistanceDecorator>::`RTTI Base Class Descriptor at (0,-1,0,64)'
	DD	00H
	DD	00H
	DD	0ffffffffH
	DD	00H
	DD	040H
	DD	FLAT:??_R3?$CDynamicPoolEx@VCAirResistanceDecorator@NEffectUpdateDecorator@@@@8
rdata$r	ENDS
;	COMDAT ??_R2?$CDynamicPoolEx@VCAirResistanceDecorator@NEffectUpdateDecorator@@@@8
rdata$r	SEGMENT
??_R2?$CDynamicPoolEx@VCAirResistanceDecorator@NEffectUpdateDecorator@@@@8 DD FLAT:??_R1A@?0A@EA@?$CDynamicPoolEx@VCAirResistanceDecorator@NEffectUpdateDecorator@@@@8 ; CDynamicPoolEx<NEffectUpdateDecorator::CAirResistanceDecorator>::`RTTI Base Class Array'
rdata$r	ENDS
;	COMDAT ??_R3?$CDynamicPoolEx@VCAirResistanceDecorator@NEffectUpdateDecorator@@@@8
rdata$r	SEGMENT
??_R3?$CDynamicPoolEx@VCAirResistanceDecorator@NEffectUpdateDecorator@@@@8 DD 00H ; CDynamicPoolEx<NEffectUpdateDecorator::CAirResistanceDecorator>::`RTTI Class Hierarchy Descriptor'
	DD	00H
	DD	01H
	DD	FLAT:??_R2?$CDynamicPoolEx@VCAirResistanceDecorator@NEffectUpdateDecorator@@@@8
rdata$r	ENDS
;	COMDAT ??_R0?AV?$CDynamicPoolEx@VCAirResistanceDecorator@NEffectUpdateDecorator@@@@@8
data$rs	SEGMENT
??_R0?AV?$CDynamicPoolEx@VCAirResistanceDecorator@NEffectUpdateDecorator@@@@@8 DD FLAT:??_7type_info@@6B@ ; CDynamicPoolEx<NEffectUpdateDecorator::CAirResistanceDecorator> `RTTI Type Descriptor'
	DD	00H
	DB	'.?AV?$CDynamicPoolEx@VCAirResistanceDecorator@NEffectUpd'
	DB	'ateDecorator@@@@', 00H
data$rs	ENDS
;	COMDAT ??_R4?$CDynamicPoolEx@VCAirResistanceDecorator@NEffectUpdateDecorator@@@@6B@
rdata$r	SEGMENT
??_R4?$CDynamicPoolEx@VCAirResistanceDecorator@NEffectUpdateDecorator@@@@6B@ DD 00H ; CDynamicPoolEx<NEffectUpdateDecorator::CAirResistanceDecorator>::`RTTI Complete Object Locator'
	DD	00H
	DD	00H
	DD	FLAT:??_R0?AV?$CDynamicPoolEx@VCAirResistanceDecorator@NEffectUpdateDecorator@@@@@8
	DD	FLAT:??_R3?$CDynamicPoolEx@VCAirResistanceDecorator@NEffectUpdateDecorator@@@@8
rdata$r	ENDS
;	COMDAT ??_R1A@?0A@EA@?$CDynamicPoolEx@VCTextureAnimationRandomDecorator@NEffectUpdateDecorator@@@@8
rdata$r	SEGMENT
??_R1A@?0A@EA@?$CDynamicPoolEx@VCTextureAnimationRandomDecorator@NEffectUpdateDecorator@@@@8 DD FLAT:??_R0?AV?$CDynamicPoolEx@VCTextureAnimationRandomDecorator@NEffectUpdateDecorator@@@@@8 ; CDynamicPoolEx<NEffectUpdateDecorator::CTextureAnimationRandomDecorator>::`RTTI Base Class Descriptor at (0,-1,0,64)'
	DD	00H
	DD	00H
	DD	0ffffffffH
	DD	00H
	DD	040H
	DD	FLAT:??_R3?$CDynamicPoolEx@VCTextureAnimationRandomDecorator@NEffectUpdateDecorator@@@@8
rdata$r	ENDS
;	COMDAT ??_R2?$CDynamicPoolEx@VCTextureAnimationRandomDecorator@NEffectUpdateDecorator@@@@8
rdata$r	SEGMENT
??_R2?$CDynamicPoolEx@VCTextureAnimationRandomDecorator@NEffectUpdateDecorator@@@@8 DD FLAT:??_R1A@?0A@EA@?$CDynamicPoolEx@VCTextureAnimationRandomDecorator@NEffectUpdateDecorator@@@@8 ; CDynamicPoolEx<NEffectUpdateDecorator::CTextureAnimationRandomDecorator>::`RTTI Base Class Array'
rdata$r	ENDS
;	COMDAT ??_R3?$CDynamicPoolEx@VCTextureAnimationRandomDecorator@NEffectUpdateDecorator@@@@8
rdata$r	SEGMENT
??_R3?$CDynamicPoolEx@VCTextureAnimationRandomDecorator@NEffectUpdateDecorator@@@@8 DD 00H ; CDynamicPoolEx<NEffectUpdateDecorator::CTextureAnimationRandomDecorator>::`RTTI Class Hierarchy Descriptor'
	DD	00H
	DD	01H
	DD	FLAT:??_R2?$CDynamicPoolEx@VCTextureAnimationRandomDecorator@NEffectUpdateDecorator@@@@8
rdata$r	ENDS
;	COMDAT ??_R0?AV?$CDynamicPoolEx@VCTextureAnimationRandomDecorator@NEffectUpdateDecorator@@@@@8
data$rs	SEGMENT
??_R0?AV?$CDynamicPoolEx@VCTextureAnimationRandomDecorator@NEffectUpdateDecorator@@@@@8 DD FLAT:??_7type_info@@6B@ ; CDynamicPoolEx<NEffectUpdateDecorator::CTextureAnimationRandomDecorator> `RTTI Type Descriptor'
	DD	00H
	DB	'.?AV?$CDynamicPoolEx@VCTextureAnimationRandomDecorator@N'
	DB	'EffectUpdateDecorator@@@@', 00H
data$rs	ENDS
;	COMDAT ??_R4?$CDynamicPoolEx@VCTextureAnimationRandomDecorator@NEffectUpdateDecorator@@@@6B@
rdata$r	SEGMENT
??_R4?$CDynamicPoolEx@VCTextureAnimationRandomDecorator@NEffectUpdateDecorator@@@@6B@ DD 00H ; CDynamicPoolEx<NEffectUpdateDecorator::CTextureAnimationRandomDecorator>::`RTTI Complete Object Locator'
	DD	00H
	DD	00H
	DD	FLAT:??_R0?AV?$CDynamicPoolEx@VCTextureAnimationRandomDecorator@NEffectUpdateDecorator@@@@@8
	DD	FLAT:??_R3?$CDynamicPoolEx@VCTextureAnimationRandomDecorator@NEffectUpdateDecorator@@@@8
rdata$r	ENDS
;	COMDAT ??_R1A@?0A@EA@?$CDynamicPoolEx@VCTextureAnimationCCWDecorator@NEffectUpdateDecorator@@@@8
rdata$r	SEGMENT
??_R1A@?0A@EA@?$CDynamicPoolEx@VCTextureAnimationCCWDecorator@NEffectUpdateDecorator@@@@8 DD FLAT:??_R0?AV?$CDynamicPoolEx@VCTextureAnimationCCWDecorator@NEffectUpdateDecorator@@@@@8 ; CDynamicPoolEx<NEffectUpdateDecorator::CTextureAnimationCCWDecorator>::`RTTI Base Class Descriptor at (0,-1,0,64)'
	DD	00H
	DD	00H
	DD	0ffffffffH
	DD	00H
	DD	040H
	DD	FLAT:??_R3?$CDynamicPoolEx@VCTextureAnimationCCWDecorator@NEffectUpdateDecorator@@@@8
rdata$r	ENDS
;	COMDAT ??_R2?$CDynamicPoolEx@VCTextureAnimationCCWDecorator@NEffectUpdateDecorator@@@@8
rdata$r	SEGMENT
??_R2?$CDynamicPoolEx@VCTextureAnimationCCWDecorator@NEffectUpdateDecorator@@@@8 DD FLAT:??_R1A@?0A@EA@?$CDynamicPoolEx@VCTextureAnimationCCWDecorator@NEffectUpdateDecorator@@@@8 ; CDynamicPoolEx<NEffectUpdateDecorator::CTextureAnimationCCWDecorator>::`RTTI Base Class Array'
rdata$r	ENDS
;	COMDAT ??_R3?$CDynamicPoolEx@VCTextureAnimationCCWDecorator@NEffectUpdateDecorator@@@@8
rdata$r	SEGMENT
??_R3?$CDynamicPoolEx@VCTextureAnimationCCWDecorator@NEffectUpdateDecorator@@@@8 DD 00H ; CDynamicPoolEx<NEffectUpdateDecorator::CTextureAnimationCCWDecorator>::`RTTI Class Hierarchy Descriptor'
	DD	00H
	DD	01H
	DD	FLAT:??_R2?$CDynamicPoolEx@VCTextureAnimationCCWDecorator@NEffectUpdateDecorator@@@@8
rdata$r	ENDS
;	COMDAT ??_R0?AV?$CDynamicPoolEx@VCTextureAnimationCCWDecorator@NEffectUpdateDecorator@@@@@8
data$rs	SEGMENT
??_R0?AV?$CDynamicPoolEx@VCTextureAnimationCCWDecorator@NEffectUpdateDecorator@@@@@8 DD FLAT:??_7type_info@@6B@ ; CDynamicPoolEx<NEffectUpdateDecorator::CTextureAnimationCCWDecorator> `RTTI Type Descriptor'
	DD	00H
	DB	'.?AV?$CDynamicPoolEx@VCTextureAnimationCCWDecorator@NEff'
	DB	'ectUpdateDecorator@@@@', 00H
data$rs	ENDS
;	COMDAT ??_R4?$CDynamicPoolEx@VCTextureAnimationCCWDecorator@NEffectUpdateDecorator@@@@6B@
rdata$r	SEGMENT
??_R4?$CDynamicPoolEx@VCTextureAnimationCCWDecorator@NEffectUpdateDecorator@@@@6B@ DD 00H ; CDynamicPoolEx<NEffectUpdateDecorator::CTextureAnimationCCWDecorator>::`RTTI Complete Object Locator'
	DD	00H
	DD	00H
	DD	FLAT:??_R0?AV?$CDynamicPoolEx@VCTextureAnimationCCWDecorator@NEffectUpdateDecorator@@@@@8
	DD	FLAT:??_R3?$CDynamicPoolEx@VCTextureAnimationCCWDecorator@NEffectUpdateDecorator@@@@8
rdata$r	ENDS
;	COMDAT ??_R1A@?0A@EA@?$CDynamicPoolEx@VCTextureAnimationCWDecorator@NEffectUpdateDecorator@@@@8
rdata$r	SEGMENT
??_R1A@?0A@EA@?$CDynamicPoolEx@VCTextureAnimationCWDecorator@NEffectUpdateDecorator@@@@8 DD FLAT:??_R0?AV?$CDynamicPoolEx@VCTextureAnimationCWDecorator@NEffectUpdateDecorator@@@@@8 ; CDynamicPoolEx<NEffectUpdateDecorator::CTextureAnimationCWDecorator>::`RTTI Base Class Descriptor at (0,-1,0,64)'
	DD	00H
	DD	00H
	DD	0ffffffffH
	DD	00H
	DD	040H
	DD	FLAT:??_R3?$CDynamicPoolEx@VCTextureAnimationCWDecorator@NEffectUpdateDecorator@@@@8
rdata$r	ENDS
;	COMDAT ??_R2?$CDynamicPoolEx@VCTextureAnimationCWDecorator@NEffectUpdateDecorator@@@@8
rdata$r	SEGMENT
??_R2?$CDynamicPoolEx@VCTextureAnimationCWDecorator@NEffectUpdateDecorator@@@@8 DD FLAT:??_R1A@?0A@EA@?$CDynamicPoolEx@VCTextureAnimationCWDecorator@NEffectUpdateDecorator@@@@8 ; CDynamicPoolEx<NEffectUpdateDecorator::CTextureAnimationCWDecorator>::`RTTI Base Class Array'
rdata$r	ENDS
;	COMDAT ??_R3?$CDynamicPoolEx@VCTextureAnimationCWDecorator@NEffectUpdateDecorator@@@@8
rdata$r	SEGMENT
??_R3?$CDynamicPoolEx@VCTextureAnimationCWDecorator@NEffectUpdateDecorator@@@@8 DD 00H ; CDynamicPoolEx<NEffectUpdateDecorator::CTextureAnimationCWDecorator>::`RTTI Class Hierarchy Descriptor'
	DD	00H
	DD	01H
	DD	FLAT:??_R2?$CDynamicPoolEx@VCTextureAnimationCWDecorator@NEffectUpdateDecorator@@@@8
rdata$r	ENDS
;	COMDAT ??_R0?AV?$CDynamicPoolEx@VCTextureAnimationCWDecorator@NEffectUpdateDecorator@@@@@8
data$rs	SEGMENT
??_R0?AV?$CDynamicPoolEx@VCTextureAnimationCWDecorator@NEffectUpdateDecorator@@@@@8 DD FLAT:??_7type_info@@6B@ ; CDynamicPoolEx<NEffectUpdateDecorator::CTextureAnimationCWDecorator> `RTTI Type Descriptor'
	DD	00H
	DB	'.?AV?$CDynamicPoolEx@VCTextureAnimationCWDecorator@NEffe'
	DB	'ctUpdateDecorator@@@@', 00H
data$rs	ENDS
;	COMDAT ??_R4?$CDynamicPoolEx@VCTextureAnimationCWDecorator@NEffectUpdateDecorator@@@@6B@
rdata$r	SEGMENT
??_R4?$CDynamicPoolEx@VCTextureAnimationCWDecorator@NEffectUpdateDecorator@@@@6B@ DD 00H ; CDynamicPoolEx<NEffectUpdateDecorator::CTextureAnimationCWDecorator>::`RTTI Complete Object Locator'
	DD	00H
	DD	00H
	DD	FLAT:??_R0?AV?$CDynamicPoolEx@VCTextureAnimationCWDecorator@NEffectUpdateDecorator@@@@@8
	DD	FLAT:??_R3?$CDynamicPoolEx@VCTextureAnimationCWDecorator@NEffectUpdateDecorator@@@@8
rdata$r	ENDS
;	COMDAT ??_R1A@?0A@EA@?$CDynamicPoolEx@VCNullDecorator@NEffectUpdateDecorator@@@@8
rdata$r	SEGMENT
??_R1A@?0A@EA@?$CDynamicPoolEx@VCNullDecorator@NEffectUpdateDecorator@@@@8 DD FLAT:??_R0?AV?$CDynamicPoolEx@VCNullDecorator@NEffectUpdateDecorator@@@@@8 ; CDynamicPoolEx<NEffectUpdateDecorator::CNullDecorator>::`RTTI Base Class Descriptor at (0,-1,0,64)'
	DD	00H
	DD	00H
	DD	0ffffffffH
	DD	00H
	DD	040H
	DD	FLAT:??_R3?$CDynamicPoolEx@VCNullDecorator@NEffectUpdateDecorator@@@@8
rdata$r	ENDS
;	COMDAT ??_R2?$CDynamicPoolEx@VCNullDecorator@NEffectUpdateDecorator@@@@8
rdata$r	SEGMENT
??_R2?$CDynamicPoolEx@VCNullDecorator@NEffectUpdateDecorator@@@@8 DD FLAT:??_R1A@?0A@EA@?$CDynamicPoolEx@VCNullDecorator@NEffectUpdateDecorator@@@@8 ; CDynamicPoolEx<NEffectUpdateDecorator::CNullDecorator>::`RTTI Base Class Array'
rdata$r	ENDS
;	COMDAT ??_R3?$CDynamicPoolEx@VCNullDecorator@NEffectUpdateDecorator@@@@8
rdata$r	SEGMENT
??_R3?$CDynamicPoolEx@VCNullDecorator@NEffectUpdateDecorator@@@@8 DD 00H ; CDynamicPoolEx<NEffectUpdateDecorator::CNullDecorator>::`RTTI Class Hierarchy Descriptor'
	DD	00H
	DD	01H
	DD	FLAT:??_R2?$CDynamicPoolEx@VCNullDecorator@NEffectUpdateDecorator@@@@8
rdata$r	ENDS
;	COMDAT ??_R0?AV?$CDynamicPoolEx@VCNullDecorator@NEffectUpdateDecorator@@@@@8
data$rs	SEGMENT
??_R0?AV?$CDynamicPoolEx@VCNullDecorator@NEffectUpdateDecorator@@@@@8 DD FLAT:??_7type_info@@6B@ ; CDynamicPoolEx<NEffectUpdateDecorator::CNullDecorator> `RTTI Type Descriptor'
	DD	00H
	DB	'.?AV?$CDynamicPoolEx@VCNullDecorator@NEffectUpdateDecora'
	DB	'tor@@@@', 00H
data$rs	ENDS
;	COMDAT ??_R4?$CDynamicPoolEx@VCNullDecorator@NEffectUpdateDecorator@@@@6B@
rdata$r	SEGMENT
??_R4?$CDynamicPoolEx@VCNullDecorator@NEffectUpdateDecorator@@@@6B@ DD 00H ; CDynamicPoolEx<NEffectUpdateDecorator::CNullDecorator>::`RTTI Complete Object Locator'
	DD	00H
	DD	00H
	DD	FLAT:??_R0?AV?$CDynamicPoolEx@VCNullDecorator@NEffectUpdateDecorator@@@@@8
	DD	FLAT:??_R3?$CDynamicPoolEx@VCNullDecorator@NEffectUpdateDecorator@@@@8
rdata$r	ENDS
;	COMDAT ??_R1A@?0A@EA@?$CDynamicPoolEx@VCHeaderDecorator@NEffectUpdateDecorator@@@@8
rdata$r	SEGMENT
??_R1A@?0A@EA@?$CDynamicPoolEx@VCHeaderDecorator@NEffectUpdateDecorator@@@@8 DD FLAT:??_R0?AV?$CDynamicPoolEx@VCHeaderDecorator@NEffectUpdateDecorator@@@@@8 ; CDynamicPoolEx<NEffectUpdateDecorator::CHeaderDecorator>::`RTTI Base Class Descriptor at (0,-1,0,64)'
	DD	00H
	DD	00H
	DD	0ffffffffH
	DD	00H
	DD	040H
	DD	FLAT:??_R3?$CDynamicPoolEx@VCHeaderDecorator@NEffectUpdateDecorator@@@@8
rdata$r	ENDS
;	COMDAT ??_R2?$CDynamicPoolEx@VCHeaderDecorator@NEffectUpdateDecorator@@@@8
rdata$r	SEGMENT
??_R2?$CDynamicPoolEx@VCHeaderDecorator@NEffectUpdateDecorator@@@@8 DD FLAT:??_R1A@?0A@EA@?$CDynamicPoolEx@VCHeaderDecorator@NEffectUpdateDecorator@@@@8 ; CDynamicPoolEx<NEffectUpdateDecorator::CHeaderDecorator>::`RTTI Base Class Array'
rdata$r	ENDS
;	COMDAT ??_R3?$CDynamicPoolEx@VCHeaderDecorator@NEffectUpdateDecorator@@@@8
rdata$r	SEGMENT
??_R3?$CDynamicPoolEx@VCHeaderDecorator@NEffectUpdateDecorator@@@@8 DD 00H ; CDynamicPoolEx<NEffectUpdateDecorator::CHeaderDecorator>::`RTTI Class Hierarchy Descriptor'
	DD	00H
	DD	01H
	DD	FLAT:??_R2?$CDynamicPoolEx@VCHeaderDecorator@NEffectUpdateDecorator@@@@8
rdata$r	ENDS
;	COMDAT ??_R0?AV?$CDynamicPoolEx@VCHeaderDecorator@NEffectUpdateDecorator@@@@@8
data$rs	SEGMENT
??_R0?AV?$CDynamicPoolEx@VCHeaderDecorator@NEffectUpdateDecorator@@@@@8 DD FLAT:??_7type_info@@6B@ ; CDynamicPoolEx<NEffectUpdateDecorator::CHeaderDecorator> `RTTI Type Descriptor'
	DD	00H
	DB	'.?AV?$CDynamicPoolEx@VCHeaderDecorator@NEffectUpdateDeco'
	DB	'rator@@@@', 00H
data$rs	ENDS
;	COMDAT ??_R4?$CDynamicPoolEx@VCHeaderDecorator@NEffectUpdateDecorator@@@@6B@
rdata$r	SEGMENT
??_R4?$CDynamicPoolEx@VCHeaderDecorator@NEffectUpdateDecorator@@@@6B@ DD 00H ; CDynamicPoolEx<NEffectUpdateDecorator::CHeaderDecorator>::`RTTI Complete Object Locator'
	DD	00H
	DD	00H
	DD	FLAT:??_R0?AV?$CDynamicPoolEx@VCHeaderDecorator@NEffectUpdateDecorator@@@@@8
	DD	FLAT:??_R3?$CDynamicPoolEx@VCHeaderDecorator@NEffectUpdateDecorator@@@@8
rdata$r	ENDS
;	COMDAT ??_7?$CDynamicPoolEx@VCRotationDecorator@NEffectUpdateDecorator@@@@6B@
CONST	SEGMENT
??_7?$CDynamicPoolEx@VCRotationDecorator@NEffectUpdateDecorator@@@@6B@ DD FLAT:??_R4?$CDynamicPoolEx@VCRotationDecorator@NEffectUpdateDecorator@@@@6B@ ; CDynamicPoolEx<NEffectUpdateDecorator::CRotationDecorator>::`vftable'
	DD	FLAT:??_E?$CDynamicPoolEx@VCRotationDecorator@NEffectUpdateDecorator@@@@UAEPAXI@Z
CONST	ENDS
_DATA	SEGMENT
?MIN_FOG@@3MA DD 045160000r			; 2400	; MIN_FOG
?c_fDefaultCameraRotateSpeed@@3MA DD 03fc00000r	; 1.5	; c_fDefaultCameraRotateSpeed
?g_specularSpd@@3NA DQ 03f7cac0840000000r	; 0.007	; g_specularSpd
?c_fDefaultCameraPitchSpeed@@3MA DD 03fc00000r	; 1.5	; c_fDefaultCameraPitchSpeed
?c_fDefaultCameraZoomSpeed@@3MA DD 03d4ccccdr	; 0.05	; c_fDefaultCameraZoomSpeed
_DATA	ENDS
PUBLIC	??_H@YGXPAXIIP6EPAX0@Z@Z			; `vector constructor iterator'
PUBLIC	?__empty_global_delete@@YAXPAX@Z		; __empty_global_delete
PUBLIC	?__empty_global_delete@@YAXPAXI@Z		; __empty_global_delete
PUBLIC	___local_stdio_printf_options
PUBLIC	_fprintf
PUBLIC	_printf
PUBLIC	_sprintf
PUBLIC	__snprintf
PUBLIC	??0exception@std@@QAE@ABV01@@Z			; std::exception::exception
PUBLIC	??1exception@std@@UAE@XZ			; std::exception::~exception
PUBLIC	?what@exception@std@@UBEPBDXZ			; std::exception::what
PUBLIC	??_Gexception@std@@UAEPAXI@Z			; std::exception::`scalar deleting destructor'
PUBLIC	??0bad_alloc@std@@QAE@ABV01@@Z			; std::bad_alloc::bad_alloc
PUBLIC	??_Gbad_alloc@std@@UAEPAXI@Z			; std::bad_alloc::`scalar deleting destructor'
PUBLIC	??0bad_array_new_length@std@@QAE@XZ		; std::bad_array_new_length::bad_array_new_length
PUBLIC	??1bad_array_new_length@std@@UAE@XZ		; std::bad_array_new_length::~bad_array_new_length
PUBLIC	??0bad_array_new_length@std@@QAE@ABV01@@Z	; std::bad_array_new_length::bad_array_new_length
PUBLIC	??_Gbad_array_new_length@std@@UAEPAXI@Z		; std::bad_array_new_length::`scalar deleting destructor'
PUBLIC	?_Throw_bad_array_new_length@std@@YAXXZ		; std::_Throw_bad_array_new_length
PUBLIC	?_Xlen_string@std@@YAXXZ			; std::_Xlen_string
PUBLIC	??1?$basic_string@DU?$char_traits@D@std@@V?$allocator@D@2@@std@@QAE@XZ ; std::basic_string<char,std::char_traits<char>,std::allocator<char> >::~basic_string<char,std::char_traits<char>,std::allocator<char> >
PUBLIC	?assign@?$basic_string@DU?$char_traits@D@std@@V?$allocator@D@2@@std@@QAEAAV12@QBDI@Z ; std::basic_string<char,std::char_traits<char>,std::allocator<char> >::assign
PUBLIC	??$_Destroy_in_place@PAD@std@@YAXAAPAD@Z	; std::_Destroy_in_place<char *>
PUBLIC	??$_Construct_in_place@PADABQAD@std@@YAXAAPADABQAD@Z ; std::_Construct_in_place<char *,char * const &>
PUBLIC	??$_Deallocate@$07$0A@@std@@YAXPAXI@Z		; std::_Deallocate<8,0>
PUBLIC	??$_Allocate@$07U_Default_allocate_traits@std@@$0A@@std@@YAPAXI@Z ; std::_Allocate<8,std::_Default_allocate_traits,0>
PUBLIC	??$_Allocate_manually_vector_aligned@U_Default_allocate_traits@std@@@std@@YAPAXI@Z ; std::_Allocate_manually_vector_aligned<std::_Default_allocate_traits>
PUBLIC	??1?$TAbstractSingleton@VIAbstractApplication@@@@UAE@XZ ; TAbstractSingleton<IAbstractApplication>::~TAbstractSingleton<IAbstractApplication>
PUBLIC	??_G?$TAbstractSingleton@VIAbstractApplication@@@@UAEPAXI@Z ; TAbstractSingleton<IAbstractApplication>::`scalar deleting destructor'
PUBLIC	??1IAbstractApplication@@UAE@XZ			; IAbstractApplication::~IAbstractApplication
PUBLIC	??_GIAbstractApplication@@UAEPAXI@Z		; IAbstractApplication::`scalar deleting destructor'
PUBLIC	??1?$CSingleton@VCMovieMan@@@@UAE@XZ		; CSingleton<CMovieMan>::~CSingleton<CMovieMan>
PUBLIC	??_G?$CSingleton@VCMovieMan@@@@UAEPAXI@Z	; CSingleton<CMovieMan>::`scalar deleting destructor'
PUBLIC	??1CMovieMan@@UAE@XZ				; CMovieMan::~CMovieMan
PUBLIC	??_GCMovieMan@@UAEPAXI@Z			; CMovieMan::`scalar deleting destructor'
PUBLIC	??0CPythonApplication@@QAE@XZ			; CPythonApplication::CPythonApplication
PUBLIC	??1CPythonApplication@@UAE@XZ			; CPythonApplication::~CPythonApplication
PUBLIC	?NotifyHack@CPythonApplication@@QAAXPBDZZ	; CPythonApplication::NotifyHack
PUBLIC	?GetInfo@CPythonApplication@@QAEXIPAV?$basic_string@DU?$char_traits@D@std@@V?$allocator@D@2@@std@@@Z ; CPythonApplication::GetInfo
PUBLIC	?GetMousePosition@CPythonApplication@@UAEXPAUtagPOINT@@@Z ; CPythonApplication::GetMousePosition
PUBLIC	?Loop@CPythonApplication@@QAEXXZ		; CPythonApplication::Loop
PUBLIC	?Destroy@CPythonApplication@@QAEXXZ		; CPythonApplication::Destroy
PUBLIC	?Clear@CPythonApplication@@QAEXXZ		; CPythonApplication::Clear
PUBLIC	?Exit@CPythonApplication@@QAEXXZ		; CPythonApplication::Exit
PUBLIC	?Abort@CPythonApplication@@QAEXXZ		; CPythonApplication::Abort
PUBLIC	?SetMinFog@CPythonApplication@@QAEXM@Z		; CPythonApplication::SetMinFog
PUBLIC	?SetFrameSkip@CPythonApplication@@QAEX_N@Z	; CPythonApplication::SetFrameSkip
PUBLIC	?SkipRenderBuffering@CPythonApplication@@UAEXK@Z ; CPythonApplication::SkipRenderBuffering
PUBLIC	?Create@CPythonApplication@@QAE_NPAU_object@@PBDHHH@Z ; CPythonApplication::Create
PUBLIC	?CreateDevice@CPythonApplication@@QAE_NHHHHH@Z	; CPythonApplication::CreateDevice
PUBLIC	?UpdateGame@CPythonApplication@@QAEXXZ		; CPythonApplication::UpdateGame
PUBLIC	?RenderGame@CPythonApplication@@QAEXXZ		; CPythonApplication::RenderGame
PUBLIC	?Process@CPythonApplication@@QAE_NXZ		; CPythonApplication::Process
PUBLIC	?UpdateClientRect@CPythonApplication@@QAEXXZ	; CPythonApplication::UpdateClientRect
PUBLIC	?SetMouseHandler@CPythonApplication@@QAEXPAU_object@@@Z ; CPythonApplication::SetMouseHandler
PUBLIC	?GetWidth@CPythonApplication@@QAEHXZ		; CPythonApplication::GetWidth
PUBLIC	?GetHeight@CPythonApplication@@QAEHXZ		; CPythonApplication::GetHeight
PUBLIC	?SetGlobalCenterPosition@CPythonApplication@@QAEXJJ@Z ; CPythonApplication::SetGlobalCenterPosition
PUBLIC	?SetCenterPosition@CPythonApplication@@UAEXMMM@Z ; CPythonApplication::SetCenterPosition
PUBLIC	?GetCenterPosition@CPythonApplication@@QAEXPAUD3DXVECTOR3@@@Z ; CPythonApplication::GetCenterPosition
PUBLIC	?SetFPS@CPythonApplication@@QAEXH@Z		; CPythonApplication::SetFPS
PUBLIC	?SetServerTime@CPythonApplication@@UAEXJ@Z	; CPythonApplication::SetServerTime
PUBLIC	?GetServerTime@CPythonApplication@@QAEJXZ	; CPythonApplication::GetServerTime
PUBLIC	?GetServerTimeStamp@CPythonApplication@@QAEJXZ	; CPythonApplication::GetServerTimeStamp
PUBLIC	?GetGlobalTime@CPythonApplication@@UAEMXZ	; CPythonApplication::GetGlobalTime
PUBLIC	?GetGlobalElapsedTime@CPythonApplication@@UAEMXZ ; CPythonApplication::GetGlobalElapsedTime
PUBLIC	?SetConnectData@CPythonApplication@@QAEXPBDH@Z	; CPythonApplication::SetConnectData
PUBLIC	?GetConnectData@CPythonApplication@@QAEXAAV?$basic_string@DU?$char_traits@D@std@@V?$allocator@D@2@@std@@AAH@Z ; CPythonApplication::GetConnectData
PUBLIC	?EnableSpecialCameraMode@CPythonApplication@@QAEXXZ ; CPythonApplication::EnableSpecialCameraMode
PUBLIC	?SetCameraSpeed@CPythonApplication@@QAEXH@Z	; CPythonApplication::SetCameraSpeed
PUBLIC	?SetForceSightRange@CPythonApplication@@QAEXH@Z	; CPythonApplication::SetForceSightRange
PUBLIC	?CheckDeviceState@CPythonApplication@@IAEHXZ	; CPythonApplication::CheckDeviceState
PUBLIC	??1?$_Tree@V?$_Tmap_traits@HPAXU?$less@H@std@@V?$allocator@U?$pair@$$CBHPAX@std@@@2@$0A@@std@@@std@@QAE@XZ ; std::_Tree<std::_Tmap_traits<int,void *,std::less<int>,std::allocator<std::pair<int const ,void *> >,0> >::~_Tree<std::_Tmap_traits<int,void *,std::less<int>,std::allocator<std::pair<int const ,void *> >,0> >
PUBLIC	??1?$map@HPAXU?$less@H@std@@V?$allocator@U?$pair@$$CBHPAX@std@@@2@@std@@QAE@XZ ; std::map<int,void *,std::less<int>,std::allocator<std::pair<int const ,void *> > >::~map<int,void *,std::less<int>,std::allocator<std::pair<int const ,void *> > >
PUBLIC	??_GCPythonApplication@@UAEPAXI@Z		; CPythonApplication::`scalar deleting destructor'
PUBLIC	?LoadLocaleData@@YA_NPBD@Z			; LoadLocaleData
PUBLIC	?__GetWindowMode@@YAI_N@Z			; __GetWindowMode
PUBLIC	??1?$CDynamicPoolEx@VCRotationDecorator@NEffectUpdateDecorator@@@@UAE@XZ ; CDynamicPoolEx<NEffectUpdateDecorator::CRotationDecorator>::~CDynamicPoolEx<NEffectUpdateDecorator::CRotationDecorator>
PUBLIC	?Delete@?$CDynamicPoolEx@VCRotationDecorator@NEffectUpdateDecorator@@@@KAXPAVCRotationDecorator@NEffectUpdateDecorator@@@Z ; CDynamicPoolEx<NEffectUpdateDecorator::CRotationDecorator>::Delete
PUBLIC	??1?$CDynamicPoolEx@VCGravityDecorator@NEffectUpdateDecorator@@@@UAE@XZ ; CDynamicPoolEx<NEffectUpdateDecorator::CGravityDecorator>::~CDynamicPoolEx<NEffectUpdateDecorator::CGravityDecorator>
PUBLIC	?Delete@?$CDynamicPoolEx@VCGravityDecorator@NEffectUpdateDecorator@@@@KAXPAVCGravityDecorator@NEffectUpdateDecorator@@@Z ; CDynamicPoolEx<NEffectUpdateDecorator::CGravityDecorator>::Delete
PUBLIC	??1?$CDynamicPoolEx@VCAirResistanceDecorator@NEffectUpdateDecorator@@@@UAE@XZ ; CDynamicPoolEx<NEffectUpdateDecorator::CAirResistanceDecorator>::~CDynamicPoolEx<NEffectUpdateDecorator::CAirResistanceDecorator>
PUBLIC	?Delete@?$CDynamicPoolEx@VCAirResistanceDecorator@NEffectUpdateDecorator@@@@KAXPAVCAirResistanceDecorator@NEffectUpdateDecorator@@@Z ; CDynamicPoolEx<NEffectUpdateDecorator::CAirResistanceDecorator>::Delete
PUBLIC	??1?$CDynamicPoolEx@VCTextureAnimationRandomDecorator@NEffectUpdateDecorator@@@@UAE@XZ ; CDynamicPoolEx<NEffectUpdateDecorator::CTextureAnimationRandomDecorator>::~CDynamicPoolEx<NEffectUpdateDecorator::CTextureAnimationRandomDecorator>
PUBLIC	?Delete@?$CDynamicPoolEx@VCTextureAnimationRandomDecorator@NEffectUpdateDecorator@@@@KAXPAVCTextureAnimationRandomDecorator@NEffectUpdateDecorator@@@Z ; CDynamicPoolEx<NEffectUpdateDecorator::CTextureAnimationRandomDecorator>::Delete
PUBLIC	??1?$CDynamicPoolEx@VCTextureAnimationCCWDecorator@NEffectUpdateDecorator@@@@UAE@XZ ; CDynamicPoolEx<NEffectUpdateDecorator::CTextureAnimationCCWDecorator>::~CDynamicPoolEx<NEffectUpdateDecorator::CTextureAnimationCCWDecorator>
PUBLIC	?Delete@?$CDynamicPoolEx@VCTextureAnimationCCWDecorator@NEffectUpdateDecorator@@@@KAXPAVCTextureAnimationCCWDecorator@NEffectUpdateDecorator@@@Z ; CDynamicPoolEx<NEffectUpdateDecorator::CTextureAnimationCCWDecorator>::Delete
PUBLIC	??1?$CDynamicPoolEx@VCTextureAnimationCWDecorator@NEffectUpdateDecorator@@@@UAE@XZ ; CDynamicPoolEx<NEffectUpdateDecorator::CTextureAnimationCWDecorator>::~CDynamicPoolEx<NEffectUpdateDecorator::CTextureAnimationCWDecorator>
PUBLIC	?Delete@?$CDynamicPoolEx@VCTextureAnimationCWDecorator@NEffectUpdateDecorator@@@@KAXPAVCTextureAnimationCWDecorator@NEffectUpdateDecorator@@@Z ; CDynamicPoolEx<NEffectUpdateDecorator::CTextureAnimationCWDecorator>::Delete
PUBLIC	??1?$CDynamicPoolEx@VCNullDecorator@NEffectUpdateDecorator@@@@UAE@XZ ; CDynamicPoolEx<NEffectUpdateDecorator::CNullDecorator>::~CDynamicPoolEx<NEffectUpdateDecorator::CNullDecorator>
PUBLIC	?Delete@?$CDynamicPoolEx@VCNullDecorator@NEffectUpdateDecorator@@@@KAXPAVCNullDecorator@NEffectUpdateDecorator@@@Z ; CDynamicPoolEx<NEffectUpdateDecorator::CNullDecorator>::Delete
PUBLIC	??1?$CDynamicPoolEx@VCHeaderDecorator@NEffectUpdateDecorator@@@@UAE@XZ ; CDynamicPoolEx<NEffectUpdateDecorator::CHeaderDecorator>::~CDynamicPoolEx<NEffectUpdateDecorator::CHeaderDecorator>
PUBLIC	?Delete@?$CDynamicPoolEx@VCHeaderDecorator@NEffectUpdateDecorator@@@@KAXPAVCHeaderDecorator@NEffectUpdateDecorator@@@Z ; CDynamicPoolEx<NEffectUpdateDecorator::CHeaderDecorator>::Delete
PUBLIC	??$_Pocca@V?$allocator@D@std@@@std@@YAXAAV?$allocator@D@0@ABV10@@Z ; std::_Pocca<std::allocator<char> >
PUBLIC	??$_Destroy_range@V?$allocator@PAVCHeaderDecorator@NEffectUpdateDecorator@@@std@@@std@@YAXPAPAVCHeaderDecorator@NEffectUpdateDecorator@@QAPAV12@AAV?$allocator@PAVCHeaderDecorator@NEffectUpdateDecorator@@@0@@Z ; std::_Destroy_range<std::allocator<NEffectUpdateDecorator::CHeaderDecorator *> >
PUBLIC	??$_Destroy_range@V?$allocator@PAVCNullDecorator@NEffectUpdateDecorator@@@std@@@std@@YAXPAPAVCNullDecorator@NEffectUpdateDecorator@@QAPAV12@AAV?$allocator@PAVCNullDecorator@NEffectUpdateDecorator@@@0@@Z ; std::_Destroy_range<std::allocator<NEffectUpdateDecorator::CNullDecorator *> >
PUBLIC	??$_Destroy_range@V?$allocator@PAVCTextureAnimationCWDecorator@NEffectUpdateDecorator@@@std@@@std@@YAXPAPAVCTextureAnimationCWDecorator@NEffectUpdateDecorator@@QAPAV12@AAV?$allocator@PAVCTextureAnimationCWDecorator@NEffectUpdateDecorator@@@0@@Z ; std::_Destroy_range<std::allocator<NEffectUpdateDecorator::CTextureAnimationCWDecorator *> >
PUBLIC	??$_Destroy_range@V?$allocator@PAVCTextureAnimationCCWDecorator@NEffectUpdateDecorator@@@std@@@std@@YAXPAPAVCTextureAnimationCCWDecorator@NEffectUpdateDecorator@@QAPAV12@AAV?$allocator@PAVCTextureAnimationCCWDecorator@NEffectUpdateDecorator@@@0@@Z ; std::_Destroy_range<std::allocator<NEffectUpdateDecorator::CTextureAnimationCCWDecorator *> >
PUBLIC	??$_Destroy_range@V?$allocator@PAVCTextureAnimationRandomDecorator@NEffectUpdateDecorator@@@std@@@std@@YAXPAPAVCTextureAnimationRandomDecorator@NEffectUpdateDecorator@@QAPAV12@AAV?$allocator@PAVCTextureAnimationRandomDecorator@NEffectUpdateDecorator@@@0@@Z ; std::_Destroy_range<std::allocator<NEffectUpdateDecorator::CTextureAnimationRandomDecorator *> >
PUBLIC	??$_Destroy_range@V?$allocator@PAVCAirResistanceDecorator@NEffectUpdateDecorator@@@std@@@std@@YAXPAPAVCAirResistanceDecorator@NEffectUpdateDecorator@@QAPAV12@AAV?$allocator@PAVCAirResistanceDecorator@NEffectUpdateDecorator@@@0@@Z ; std::_Destroy_range<std::allocator<NEffectUpdateDecorator::CAirResistanceDecorator *> >
PUBLIC	??$_Destroy_range@V?$allocator@PAVCGravityDecorator@NEffectUpdateDecorator@@@std@@@std@@YAXPAPAVCGravityDecorator@NEffectUpdateDecorator@@QAPAV12@AAV?$allocator@PAVCGravityDecorator@NEffectUpdateDecorator@@@0@@Z ; std::_Destroy_range<std::allocator<NEffectUpdateDecorator::CGravityDecorator *> >
PUBLIC	??$_Destroy_range@V?$allocator@PAVCRotationDecorator@NEffectUpdateDecorator@@@std@@@std@@YAXPAPAVCRotationDecorator@NEffectUpdateDecorator@@QAPAV12@AAV?$allocator@PAVCRotationDecorator@NEffectUpdateDecorator@@@0@@Z ; std::_Destroy_range<std::allocator<NEffectUpdateDecorator::CRotationDecorator *> >
PUBLIC	??$_Erase_tree@V?$allocator@U?$_Tree_node@U?$pair@$$CBHPAX@std@@PAX@std@@@std@@@?$_Tree_val@U?$_Tree_simple_types@U?$pair@$$CBHPAX@std@@@std@@@std@@QAEXAAV?$allocator@U?$_Tree_node@U?$pair@$$CBHPAX@std@@PAX@std@@@1@PAU?$_Tree_node@U?$pair@$$CBHPAX@std@@PAX@1@@Z ; std::_Tree_val<std::_Tree_simple_types<std::pair<int const ,void *> > >::_Erase_tree<std::allocator<std::_Tree_node<std::pair<int const ,void *>,void *> > >
PUBLIC	??$_Construct_in_place@PAU?$_Tree_node@U?$pair@$$CBHPAX@std@@PAX@std@@ABQAU12@@std@@YAXAAPAU?$_Tree_node@U?$pair@$$CBHPAX@std@@PAX@0@ABQAU10@@Z ; std::_Construct_in_place<std::_Tree_node<std::pair<int const ,void *>,void *> *,std::_Tree_node<std::pair<int const ,void *>,void *> * const &>
PUBLIC	??$_Destroy_in_place@PAU?$_Tree_node@U?$pair@$$CBHPAX@std@@PAX@std@@@std@@YAXAAPAU?$_Tree_node@U?$pair@$$CBHPAX@std@@PAX@0@@Z ; std::_Destroy_in_place<std::_Tree_node<std::pair<int const ,void *>,void *> *>
PUBLIC	??_ECPythonApplication@@WBM@AEPAXI@Z		; [thunk]:CPythonApplication::`vector deleting destructor'
PUBLIC	??_ECPythonApplication@@WCA@AEPAXI@Z		; [thunk]:CPythonApplication::`vector deleting destructor'
PUBLIC	?_OptionsStorage@?1??__local_stdio_printf_options@@9@4_KA ; `__local_stdio_printf_options'::`2'::_OptionsStorage
PUBLIC	??_7exception@std@@6B@				; std::exception::`vftable'
PUBLIC	??_C@_0BC@EOODALEL@Unknown?5exception@		; `string'
PUBLIC	??_7bad_alloc@std@@6B@				; std::bad_alloc::`vftable'
PUBLIC	??_7bad_array_new_length@std@@6B@		; std::bad_array_new_length::`vftable'
PUBLIC	??_C@_0BF@KINCDENJ@bad?5array?5new?5length@	; `string'
PUBLIC	__TI3?AVbad_array_new_length@std@@
PUBLIC	__CTA3?AVbad_array_new_length@std@@
PUBLIC	??_R0?AVbad_array_new_length@std@@@8		; std::bad_array_new_length `RTTI Type Descriptor'
PUBLIC	__CT??_R0?AVbad_array_new_length@std@@@8??0bad_array_new_length@std@@QAE@ABV01@@Z12
PUBLIC	??_R0?AVbad_alloc@std@@@8			; std::bad_alloc `RTTI Type Descriptor'
PUBLIC	__CT??_R0?AVbad_alloc@std@@@8??0bad_alloc@std@@QAE@ABV01@@Z12
PUBLIC	??_R0?AVexception@std@@@8			; std::exception `RTTI Type Descriptor'
PUBLIC	__CT??_R0?AVexception@std@@@8??0exception@std@@QAE@ABV01@@Z12
PUBLIC	??_C@_0BA@JFNIOLAK@string?5too?5long@		; `string'
PUBLIC	??_C@_00CNPNBAHC@@				; `string'
PUBLIC	?ms_singleton@?$CSingleton@VCTimer@@@@0PAVCTimer@@A ; CSingleton<CTimer>::ms_singleton
PUBLIC	?ms_singleton@?$CSingleton@VCResourceManager@@@@0PAVCResourceManager@@A ; CSingleton<CResourceManager>::ms_singleton
PUBLIC	?ms_singleton@?$CSingleton@VCCullingManager@@@@0PAVCCullingManager@@A ; CSingleton<CCullingManager>::ms_singleton
PUBLIC	?ms_singleton@?$CSingleton@VCWindowManager@UI@@@@0PAVCWindowManager@UI@@A ; CSingleton<UI::CWindowManager>::ms_singleton
PUBLIC	??_R4exception@std@@6B@				; std::exception::`RTTI Complete Object Locator'
PUBLIC	??_R3exception@std@@8				; std::exception::`RTTI Class Hierarchy Descriptor'
PUBLIC	??_R2exception@std@@8				; std::exception::`RTTI Base Class Array'
PUBLIC	??_R1A@?0A@EA@exception@std@@8			; std::exception::`RTTI Base Class Descriptor at (0,-1,0,64)'
PUBLIC	??_R4bad_alloc@std@@6B@				; std::bad_alloc::`RTTI Complete Object Locator'
PUBLIC	??_R3bad_alloc@std@@8				; std::bad_alloc::`RTTI Class Hierarchy Descriptor'
PUBLIC	??_R2bad_alloc@std@@8				; std::bad_alloc::`RTTI Base Class Array'
PUBLIC	??_R1A@?0A@EA@bad_alloc@std@@8			; std::bad_alloc::`RTTI Base Class Descriptor at (0,-1,0,64)'
PUBLIC	??_R4bad_array_new_length@std@@6B@		; std::bad_array_new_length::`RTTI Complete Object Locator'
PUBLIC	??_R3bad_array_new_length@std@@8		; std::bad_array_new_length::`RTTI Class Hierarchy Descriptor'
PUBLIC	??_R2bad_array_new_length@std@@8		; std::bad_array_new_length::`RTTI Base Class Array'
PUBLIC	??_R1A@?0A@EA@bad_array_new_length@std@@8	; std::bad_array_new_length::`RTTI Base Class Descriptor at (0,-1,0,64)'
PUBLIC	?ms_singleton@?$CSingleton@VCCameraManager@@@@0PAVCCameraManager@@A ; CSingleton<CCameraManager>::ms_singleton
PUBLIC	?ms_singleton@?$CSingleton@VCStateManager@@@@0PAVCStateManager@@A ; CSingleton<CStateManager>::ms_singleton
PUBLIC	?ms_kPool@?$CPooledObject@VCHeaderDecorator@NEffectUpdateDecorator@@@@1V?$CDynamicPoolEx@VCHeaderDecorator@NEffectUpdateDecorator@@@@A ; CPooledObject<NEffectUpdateDecorator::CHeaderDecorator>::ms_kPool
PUBLIC	?ms_kPool@?$CPooledObject@VCNullDecorator@NEffectUpdateDecorator@@@@1V?$CDynamicPoolEx@VCNullDecorator@NEffectUpdateDecorator@@@@A ; CPooledObject<NEffectUpdateDecorator::CNullDecorator>::ms_kPool
PUBLIC	?ms_kPool@?$CPooledObject@VCTextureAnimationCWDecorator@NEffectUpdateDecorator@@@@1V?$CDynamicPoolEx@VCTextureAnimationCWDecorator@NEffectUpdateDecorator@@@@A ; CPooledObject<NEffectUpdateDecorator::CTextureAnimationCWDecorator>::ms_kPool
PUBLIC	?ms_kPool@?$CPooledObject@VCTextureAnimationCCWDecorator@NEffectUpdateDecorator@@@@1V?$CDynamicPoolEx@VCTextureAnimationCCWDecorator@NEffectUpdateDecorator@@@@A ; CPooledObject<NEffectUpdateDecorator::CTextureAnimationCCWDecorator>::ms_kPool
PUBLIC	?ms_kPool@?$CPooledObject@VCTextureAnimationRandomDecorator@NEffectUpdateDecorator@@@@1V?$CDynamicPoolEx@VCTextureAnimationRandomDecorator@NEffectUpdateDecorator@@@@A ; CPooledObject<NEffectUpdateDecorator::CTextureAnimationRandomDecorator>::ms_kPool
PUBLIC	?ms_kPool@?$CPooledObject@VCAirResistanceDecorator@NEffectUpdateDecorator@@@@1V?$CDynamicPoolEx@VCAirResistanceDecorator@NEffectUpdateDecorator@@@@A ; CPooledObject<NEffectUpdateDecorator::CAirResistanceDecorator>::ms_kPool
PUBLIC	?ms_kPool@?$CPooledObject@VCGravityDecorator@NEffectUpdateDecorator@@@@1V?$CDynamicPoolEx@VCGravityDecorator@NEffectUpdateDecorator@@@@A ; CPooledObject<NEffectUpdateDecorator::CGravityDecorator>::ms_kPool
PUBLIC	?ms_kPool@?$CPooledObject@VCRotationDecorator@NEffectUpdateDecorator@@@@1V?$CDynamicPoolEx@VCRotationDecorator@NEffectUpdateDecorator@@@@A ; CPooledObject<NEffectUpdateDecorator::CRotationDecorator>::ms_kPool
PUBLIC	?ms_singleton@?$CSingleton@VCItemManager@@@@0PAVCItemManager@@A ; CSingleton<CItemManager>::ms_singleton
PUBLIC	?ms_singleton@?$CSingleton@VCPythonSkill@@@@0PAVCPythonSkill@@A ; CSingleton<CPythonSkill>::ms_singleton
PUBLIC	?ms_singleton@?$CSingleton@VCPythonNonPlayer@@@@0PAVCPythonNonPlayer@@A ; CSingleton<CPythonNonPlayer>::ms_singleton
PUBLIC	?ms_singleton@?$CSingleton@VCPythonBackground@@@@0PAVCPythonBackground@@A ; CSingleton<CPythonBackground>::ms_singleton
PUBLIC	?ms_singleton@?$CSingleton@VCPythonIME@@@@0PAVCPythonIME@@A ; CSingleton<CPythonIME>::ms_singleton
PUBLIC	?ms_singleton@?$CSingleton@VCPythonTextTail@@@@0PAVCPythonTextTail@@A ; CSingleton<CPythonTextTail>::ms_singleton
PUBLIC	?ms_singleton@?$CSingleton@VCPythonSystem@@@@0PAVCPythonSystem@@A ; CSingleton<CPythonSystem>::ms_singleton
PUBLIC	?ms_singleton@?$CSingleton@VCPythonNetworkStream@@@@0PAVCPythonNetworkStream@@A ; CSingleton<CPythonNetworkStream>::ms_singleton
PUBLIC	?ms_singleton@?$TAbstractSingleton@VIAbstractApplication@@@@0PAVIAbstractApplication@@A ; TAbstractSingleton<IAbstractApplication>::ms_singleton
PUBLIC	??_7?$TAbstractSingleton@VIAbstractApplication@@@@6B@ ; TAbstractSingleton<IAbstractApplication>::`vftable'
PUBLIC	??_7IAbstractApplication@@6B@			; IAbstractApplication::`vftable'
PUBLIC	?ms_singleton@?$CSingleton@VCMovieMan@@@@0PAVCMovieMan@@A ; CSingleton<CMovieMan>::ms_singleton
PUBLIC	??_7?$CSingleton@VCMovieMan@@@@6B@		; CSingleton<CMovieMan>::`vftable'
PUBLIC	??_7CMovieMan@@6B@				; CMovieMan::`vftable'
PUBLIC	??_7CPythonApplication@@6BCMSApplication@@@	; CPythonApplication::`vftable'
PUBLIC	??_7CPythonApplication@@6BCInputKeyboard@@@	; CPythonApplication::`vftable'
PUBLIC	??_7CPythonApplication@@6BIAbstractApplication@@@ ; CPythonApplication::`vftable'
PUBLIC	??_C@_0GN@LLBDNFAM@?$DN?$DN?$DN?$DN?$DN?$DN?$DN?$DN?$DN?$DN?$DN?$DN?$DN?$DN?$DN?$DN?$DN?$DN?$DN?$DN?$DN?$DN?$DN?$DN?$DN?$DN?$DN?$DN?$DN?$DN?$DN@ ; `string'
PUBLIC	??_C@_0M@EHJKIBDK@Abort?$CB?$CB?$CB?$CB?6?6@	; `string'
PUBLIC	??_C@_01NOFIACDB@w@				; `string'
PUBLIC	??_C@_0BF@OHHAPIAL@perf_game_render?4txt@	; `string'
PUBLIC	??_C@_0BH@GCCBAEAA@GR?4Total?5?$CFd?5?$CITime?5?$CFd?$CJ?6@ ; `string'
PUBLIC	??_C@_0L@EGAPCDKD@GR?4DFM?5?$CFd?6@		; `string'
PUBLIC	??_C@_0O@PLGAMGBI@GR?4EFT?4UP?5?$CFd?6@		; `string'
PUBLIC	??_C@_0L@MCADEBDB@GR?4SHW?5?$CFd?6@		; `string'
PUBLIC	??_C@_0L@OEOJMFCF@GR?4STT?5?$CFd?6@		; `string'
PUBLIC	??_C@_0L@CDOGKGFB@GR?4CLL?5?$CFd?6@		; `string'
PUBLIC	??_C@_0O@HPKPMDPE@GR?4BG?4SKY?5?$CFd?6@		; `string'
PUBLIC	??_C@_0O@JENIKJAN@GR?4BG?4LEN?5?$CFd?6@		; `string'
PUBLIC	??_C@_0O@HJPLNNBE@GR?4BG?4CLD?5?$CFd?6@		; `string'
PUBLIC	??_C@_0P@EJKDFAIB@GR?4BG?4MAIN?5?$CFd?6@	; `string'
PUBLIC	??_C@_0L@OOHFOBKJ@GR?4CHR?5?$CFd?6@		; `string'
PUBLIC	??_C@_0O@LENBOK@GR?4BG?4WTR?5?$CFd?6@		; `string'
PUBLIC	??_C@_0O@BIDCIJEG@GR?4BG?4EFT?5?$CFd?6@		; `string'
PUBLIC	??_C@_0L@KOHMHAGO@GR?4EFT?5?$CFd?6@		; `string'
PUBLIC	??_C@_0L@CNELLLJF@GR?4ITM?5?$CFd?6@		; `string'
PUBLIC	??_C@_0L@DIBNDLBN@GR?4FLY?5?$CFd?6@		; `string'
PUBLIC	??_C@_0O@EEAHGPFP@GR?4BG?4BLK?5?$CFd?6@		; `string'
PUBLIC	??_C@_0BF@NHIIGIH@perf_game_update?4txt@	; `string'
PUBLIC	??_C@_0BH@HPIDKEA@GU?4Total?5?$CFd?5?$CITime?5?$CFd?$CJ?6@ ; `string'
PUBLIC	??_C@_0L@JHBDHKIG@GU?4GMP?5?$CFd?6@		; `string'
PUBLIC	??_C@_0L@HCBFJPAB@GU?4SCR?5?$CFd?6@		; `string'
PUBLIC	??_C@_0L@IGEOOJOO@GU?4MPS?5?$CFd?6@		; `string'
PUBLIC	??_C@_09JGPPFKPH@GU?4BG?5?$CFd?6@		; `string'
PUBLIC	??_C@_0L@BLLECFKE@GU?4GEM?5?$CFd?6@		; `string'
PUBLIC	??_C@_0L@MKJPKNA@GU?4CHR?5?$CFd?6@		; `string'
PUBLIC	??_C@_0L@EMKAGLBH@GU?4EFT?5?$CFd?6@		; `string'
PUBLIC	??_C@_0L@NKMBCAGE@GU?4FLY?5?$CFd?6@		; `string'
PUBLIC	??_C@_0L@MPJHKAOM@GU?4ITM?5?$CFd?6@		; `string'
PUBLIC	??_C@_0L@KNCOIAL@GU?4PLR?5?$CFd?6@		; `string'
PUBLIC	??_C@_0L@PAGGCBDD@GU?4POS?5?$CFd?6@		; `string'
PUBLIC	??_C@_0BD@OJBILBDC@FrameSkip?5?$LK?$LI?A?$KE?5?$CFd?6@ ; `string'
PUBLIC	??_C@_0BA@NOHKOOIE@WARN_BAD_DRIVER@		; `string'
PUBLIC	??_C@_0M@MOGGPFAH@WARN_NO_TNL@			; `string'
PUBLIC	??_C@_0BN@OAKBEJJN@CREATE_NO_APPROPRIATE_DEVICE@ ; `string'
PUBLIC	??_C@_0CD@GGLEAAKE@CreateDevice?3?5Enum?5?$CG?5Detect?5fai@ ; `string'
PUBLIC	??_C@_0BC@NKAKBNDM@CREATE_NO_DIRECTX@		; `string'
PUBLIC	??_C@_0DK@GACPAJMM@CreateDevice?3?5DirectX?58?41?5or?5gr@ ; `string'
PUBLIC	??_C@_0O@CMPMDOEH@CREATE_DEVICE@		; `string'
PUBLIC	??_C@_0CK@KMPBIDGP@CreateDevice?3?5GraphicDevice?5cre@ ; `string'
PUBLIC	??_C@_0O@DAEHMKOB@CREATE_FORMAT@		; `string'
PUBLIC	??_C@_0CH@DEBFNBPL@CreateDevice?3?5Change?5the?5screen@ ; `string'
PUBLIC	??_C@_0BC@IMJEDJEA@GetDevCaps?5failed@		; `string'
PUBLIC	??_C@_0CA@DLHDILBB@CreateDevice?3?5GetDevCaps?5failed@ ; `string'
PUBLIC	??_C@_0BD@IHNLMMLJ@GetDevCaps2?5failed@		; `string'
PUBLIC	??_C@_0CB@JLAAEKGJ@CreateDevice?3?5GetDevCaps2?5faile@ ; `string'
PUBLIC	??_C@_0O@BAEJJDKB@UNKNOWN_ERROR@		; `string'
PUBLIC	??_C@_0BN@JAHEKIGK@CreateDevice?3?5Unknown?5Error?$CB@ ; `string'
PUBLIC	??_C@_0BB@EOELDOLA@?$CFs?1item_list?4txt@	; `string'
PUBLIC	??_C@_0O@MEMEPBB@?$CFs?1item_proto@		; `string'
PUBLIC	??_C@_0BA@BIDKFLDM@?$CFs?1itemdesc?4txt@	; `string'
PUBLIC	??_C@_0N@KCBCHIHM@?$CFs?1mob_proto@		; `string'
PUBLIC	??_C@_0BB@JDMIHPNN@?$CFs?1SkillDesc?4txt@	; `string'
PUBLIC	??_C@_0BC@NLEJCAEF@?$CFs?1SkillTable?4txt@	; `string'
PUBLIC	??_C@_0O@JEIJHCCG@?$CFs?1insult?4txt@		; `string'
PUBLIC	??_C@_0CI@MGBDCDJE@LoadLocaleData?5?9?5LoadItemList?$CI?$CF@ ; `string'
PUBLIC	??_C@_0CJ@MIFDPICO@LoadLocaleData?5?9?5LoadItemProto?$CI@ ; `string'
PUBLIC	??_C@_0CI@FLOPHKEN@LoadLocaleData?5?9?5LoadItemDesc?$CI?$CF@ ; `string'
PUBLIC	??_C@_0CI@PNCAMHEJ@LoadLocaleData?5?9?5LoadMobProto?$CI?$CF@ ; `string'
PUBLIC	??_C@_0CN@NIKOAAJF@LoadLocaleData?5?9?5RegisterSkillD@ ; `string'
PUBLIC	??_C@_0CO@HCDPLHIO@LoadLocaleData?5?9?5RegisterSkillT@ ; `string'
PUBLIC	??_C@_0DO@PNDPPMDH@CPythonApplication?5?9?5CPythonNet@ ; `string'
PUBLIC	??_C@_0O@GCNBGGIE@?$CFs?1lang?$CFd?4cvt@	; `string'
PUBLIC	??_C@_0EI@FFMLHANM@LoadLocaleData?5?9?5CPythonNetwork@ ; `string'
PUBLIC	??_C@_0BJ@DBNNLGNG@CMSWindow?3?3Create?5failed@	; `string'
PUBLIC	??_C@_0O@NOBMPFEG@CREATE_WINDOW@		; `string'
PUBLIC	??_C@_0CA@FFOMJBHN@CMSWindow?3?3Cursors?5Create?5Error@ ; `string'
PUBLIC	??_C@_0BA@GLLECKCO@?$CCCREATE_CURSOR?$CC@	; `string'
PUBLIC	??_C@_0BJ@CJEBNOLC@NetDevice?3?3Create?5failed@	; `string'
PUBLIC	??_C@_0BB@EJLMKODK@?$CCCREATE_NETWORK?$CC@	; `string'
PUBLIC	??_C@_0CD@KIIBIHOG@d?3?1ymir?5work?1special?1spheremap?4@ ; `string'
PUBLIC	??_C@_0CF@CBFEMJII@d?3?1ymir?5work?1special?1spheremap0@ ; `string'
PUBLIC	??_R4IAbstractApplication@@6B@			; IAbstractApplication::`RTTI Complete Object Locator'
PUBLIC	??_R0?AVIAbstractApplication@@@8		; IAbstractApplication `RTTI Type Descriptor'
PUBLIC	??_R3IAbstractApplication@@8			; IAbstractApplication::`RTTI Class Hierarchy Descriptor'
PUBLIC	??_R2IAbstractApplication@@8			; IAbstractApplication::`RTTI Base Class Array'
PUBLIC	??_R1A@?0A@EA@IAbstractApplication@@8		; IAbstractApplication::`RTTI Base Class Descriptor at (0,-1,0,64)'
PUBLIC	??_R1A@?0A@EA@?$TAbstractSingleton@VIAbstractApplication@@@@8 ; TAbstractSingleton<IAbstractApplication>::`RTTI Base Class Descriptor at (0,-1,0,64)'
PUBLIC	??_R0?AV?$TAbstractSingleton@VIAbstractApplication@@@@@8 ; TAbstractSingleton<IAbstractApplication> `RTTI Type Descriptor'
PUBLIC	??_R3?$TAbstractSingleton@VIAbstractApplication@@@@8 ; TAbstractSingleton<IAbstractApplication>::`RTTI Class Hierarchy Descriptor'
PUBLIC	??_R2?$TAbstractSingleton@VIAbstractApplication@@@@8 ; TAbstractSingleton<IAbstractApplication>::`RTTI Base Class Array'
PUBLIC	??_R4?$TAbstractSingleton@VIAbstractApplication@@@@6B@ ; TAbstractSingleton<IAbstractApplication>::`RTTI Complete Object Locator'
PUBLIC	??_R4CMovieMan@@6B@				; CMovieMan::`RTTI Complete Object Locator'
PUBLIC	??_R0?AVCMovieMan@@@8				; CMovieMan `RTTI Type Descriptor'
PUBLIC	??_R3CMovieMan@@8				; CMovieMan::`RTTI Class Hierarchy Descriptor'
PUBLIC	??_R2CMovieMan@@8				; CMovieMan::`RTTI Base Class Array'
PUBLIC	??_R1A@?0A@EA@CMovieMan@@8			; CMovieMan::`RTTI Base Class Descriptor at (0,-1,0,64)'
PUBLIC	??_R1A@?0A@EA@?$CSingleton@VCMovieMan@@@@8	; CSingleton<CMovieMan>::`RTTI Base Class Descriptor at (0,-1,0,64)'
PUBLIC	??_R0?AV?$CSingleton@VCMovieMan@@@@@8		; CSingleton<CMovieMan> `RTTI Type Descriptor'
PUBLIC	??_R3?$CSingleton@VCMovieMan@@@@8		; CSingleton<CMovieMan>::`RTTI Class Hierarchy Descriptor'
PUBLIC	??_R2?$CSingleton@VCMovieMan@@@@8		; CSingleton<CMovieMan>::`RTTI Base Class Array'
PUBLIC	??_R4?$CSingleton@VCMovieMan@@@@6B@		; CSingleton<CMovieMan>::`RTTI Complete Object Locator'
PUBLIC	??_R4CPythonApplication@@6BCMSApplication@@@	; CPythonApplication::`RTTI Complete Object Locator'
PUBLIC	??_R0?AVCPythonApplication@@@8			; CPythonApplication `RTTI Type Descriptor'
PUBLIC	??_R3CPythonApplication@@8			; CPythonApplication::`RTTI Class Hierarchy Descriptor'
PUBLIC	??_R2CPythonApplication@@8			; CPythonApplication::`RTTI Base Class Array'
PUBLIC	??_R1A@?0A@EA@CPythonApplication@@8		; CPythonApplication::`RTTI Base Class Descriptor at (0,-1,0,64)'
PUBLIC	??_R1A@?0A@EA@CMSApplication@@8			; CMSApplication::`RTTI Base Class Descriptor at (0,-1,0,64)'
PUBLIC	??_R0?AVCMSApplication@@@8			; CMSApplication `RTTI Type Descriptor'
PUBLIC	??_R3CMSApplication@@8				; CMSApplication::`RTTI Class Hierarchy Descriptor'
PUBLIC	??_R2CMSApplication@@8				; CMSApplication::`RTTI Base Class Array'
PUBLIC	??_R1A@?0A@EA@CMSWindow@@8			; CMSWindow::`RTTI Base Class Descriptor at (0,-1,0,64)'
PUBLIC	??_R0?AVCMSWindow@@@8				; CMSWindow `RTTI Type Descriptor'
PUBLIC	??_R3CMSWindow@@8				; CMSWindow::`RTTI Class Hierarchy Descriptor'
PUBLIC	??_R2CMSWindow@@8				; CMSWindow::`RTTI Base Class Array'
PUBLIC	??_R1BM@?0A@EA@CInputKeyboard@@8		; CInputKeyboard::`RTTI Base Class Descriptor at (28,-1,0,64)'
PUBLIC	??_R0?AVCInputKeyboard@@@8			; CInputKeyboard `RTTI Type Descriptor'
PUBLIC	??_R3CInputKeyboard@@8				; CInputKeyboard::`RTTI Class Hierarchy Descriptor'
PUBLIC	??_R2CInputKeyboard@@8				; CInputKeyboard::`RTTI Base Class Array'
PUBLIC	??_R1A@?0A@EA@CInputKeyboard@@8			; CInputKeyboard::`RTTI Base Class Descriptor at (0,-1,0,64)'
PUBLIC	??_R1A@?0A@EA@CInputDevice@@8			; CInputDevice::`RTTI Base Class Descriptor at (0,-1,0,64)'
PUBLIC	??_R0?AVCInputDevice@@@8			; CInputDevice `RTTI Type Descriptor'
PUBLIC	??_R3CInputDevice@@8				; CInputDevice::`RTTI Class Hierarchy Descriptor'
PUBLIC	??_R2CInputDevice@@8				; CInputDevice::`RTTI Base Class Array'
PUBLIC	??_R1BM@?0A@EA@CInputDevice@@8			; CInputDevice::`RTTI Base Class Descriptor at (28,-1,0,64)'
PUBLIC	??_R1CA@?0A@EA@IAbstractApplication@@8		; IAbstractApplication::`RTTI Base Class Descriptor at (32,-1,0,64)'
PUBLIC	??_R1CA@?0A@EA@?$TAbstractSingleton@VIAbstractApplication@@@@8 ; TAbstractSingleton<IAbstractApplication>::`RTTI Base Class Descriptor at (32,-1,0,64)'
PUBLIC	??_R4CPythonApplication@@6BCInputKeyboard@@@	; CPythonApplication::`RTTI Complete Object Locator'
PUBLIC	??_R4CPythonApplication@@6BIAbstractApplication@@@ ; CPythonApplication::`RTTI Complete Object Locator'
PUBLIC	__real@3e99999a
PUBLIC	__real@3f000000
PUBLIC	__real@404e000000000000
PUBLIC	__real@40a00000
PUBLIC	__real@41800000
PUBLIC	__real@41f00000
PUBLIC	__real@42c70000
PUBLIC	__real@42c76666
PUBLIC	__real@42c80000
PUBLIC	__real@447a0000
PUBLIC	__real@46c80000
PUBLIC	__xmm@41f00000000000000000000000000000
PUBLIC	__xmm@80000000800000008000000080000000
EXTRN	__purecall:PROC
EXTRN	??2@YAPAXI@Z:PROC				; operator new
EXTRN	??3@YAXPAX@Z:PROC				; operator delete
EXTRN	??3@YAXPAXI@Z:PROC				; operator delete
EXTRN	_atexit:PROC
EXTRN	__Init_thread_header:PROC
EXTRN	__Init_thread_abort:PROC
EXTRN	__Init_thread_footer:PROC
EXTRN	__invalid_parameter_noinfo_noreturn:PROC
EXTRN	__imp__Sleep@4:PROC
EXTRN	__imp__PostQuitMessage@4:PROC
EXTRN	__imp__SetWindowPos@28:PROC
EXTRN	__imp__GetAsyncKeyState@4:PROC
EXTRN	__imp__GetCursorPos@4:PROC
EXTRN	__imp__ScreenToClient@8:PROC
EXTRN	__imp__FindWindowA@8:PROC
EXTRN	__imp__LoadIconA@8:PROC
EXTRN	__imp__SystemParametersInfoA@16:PROC
EXTRN	__imp__CoUninitialize@0:PROC
EXTRN	__imp__CoInitialize@4:PROC
EXTRN	___acrt_iob_func:PROC
EXTRN	_fflush:PROC
EXTRN	_fopen:PROC
EXTRN	___stdio_common_vfprintf:PROC
EXTRN	___stdio_common_vsprintf:PROC
EXTRN	__time32:PROC
EXTRN	___std_exception_copy:PROC
EXTRN	___std_exception_destroy:PROC
EXTRN	??_Eexception@std@@UAEPAXI@Z:PROC		; std::exception::`vector deleting destructor'
EXTRN	??_Ebad_alloc@std@@UAEPAXI@Z:PROC		; std::bad_alloc::`vector deleting destructor'
EXTRN	??_Ebad_array_new_length@std@@UAEPAXI@Z:PROC	; std::bad_array_new_length::`vector deleting destructor'
EXTRN	?_Xlength_error@std@@YAXPBD@Z:PROC		; std::_Xlength_error
EXTRN	?Tracenf@@YAXPBDZZ:PROC				; Tracenf
EXTRN	?TraceError@@YAXPBDZZ:PROC			; TraceError
EXTRN	?fMAX@@YAMMM@Z:PROC				; fMAX
EXTRN	__imp__PyErr_SetString:PROC
EXTRN	??0CTimer@@QAE@XZ:PROC				; CTimer::CTimer
EXTRN	??1CTimer@@UAE@XZ:PROC				; CTimer::~CTimer
EXTRN	?Advance@CTimer@@QAEXXZ:PROC			; CTimer::Advance
EXTRN	?Adjust@CTimer@@QAEXH@Z:PROC			; CTimer::Adjust
EXTRN	?GetCurrentSecond@CTimer@@QAEMXZ:PROC		; CTimer::GetCurrentSecond
EXTRN	?GetElapsedSecond@CTimer@@QAEMXZ:PROC		; CTimer::GetElapsedSecond
EXTRN	?GetElapsedMilliecond@CTimer@@QAEKXZ:PROC	; CTimer::GetElapsedMilliecond
EXTRN	?UseCustomTime@CTimer@@QAEXXZ:PROC		; CTimer::UseCustomTime
EXTRN	?ELTimer_GetMSec@@YAKXZ:PROC			; ELTimer_GetMSec
EXTRN	?ELTimer_SetFrameMSec@@YAXXZ:PROC		; ELTimer_SetFrameMSec
EXTRN	?DestroySystem@CTextFileLoader@@SAXXZ:PROC	; CTextFileLoader::DestroySystem
EXTRN	?Update@CResourceManager@@QAEXXZ:PROC		; CResourceManager::Update
EXTRN	??0CPythonResource@@QAE@XZ:PROC			; CPythonResource::CPythonResource
EXTRN	??1CPythonResource@@UAE@XZ:PROC			; CPythonResource::~CPythonResource
EXTRN	?Destroy@CPythonResource@@QAEXXZ:PROC		; CPythonResource::Destroy
EXTRN	?SetPerspective@CGraphicBase@@QAEXMMMM@Z:PROC	; CGraphicBase::SetPerspective
EXTRN	?GetFaceCount@CGraphicBase@@QAEKXZ:PROC		; CGraphicBase::GetFaceCount
EXTRN	?ResetFaceCount@CGraphicBase@@QAEXXZ:PROC	; CGraphicBase::ResetFaceCount
EXTRN	?IsFastTNL@CGraphicBase@@SA_NXZ:PROC		; CGraphicBase::IsFastTNL
EXTRN	?Hyperlink_UpdateMousePos@CGraphicTextInstance@@SAXHH@Z:PROC ; CGraphicTextInstance::Hyperlink_UpdateMousePos
EXTRN	?CreateSystem@CGraphicImageInstance@@SAXI@Z:PROC ; CGraphicImageInstance::CreateSystem
EXTRN	?DestroySystem@CGraphicImageInstance@@SAXXZ:PROC ; CGraphicImageInstance::DestroySystem
EXTRN	??0CScreen@@QAE@XZ:PROC				; CScreen::CScreen
EXTRN	??1CScreen@@UAE@XZ:PROC				; CScreen::~CScreen
EXTRN	?ClearDepthBuffer@CScreen@@QAEXXZ:PROC		; CScreen::ClearDepthBuffer
EXTRN	?Begin@CScreen@@QAE_NXZ:PROC			; CScreen::Begin
EXTRN	?End@CScreen@@QAEXXZ:PROC			; CScreen::End
EXTRN	?Show@CScreen@@QAEXPAUHWND__@@@Z:PROC		; CScreen::Show
EXTRN	?IsLostDevice@CScreen@@QAEHXZ:PROC		; CScreen::IsLostDevice
EXTRN	?RestoreDevice@CScreen@@QAEHXZ:PROC		; CScreen::RestoreDevice
EXTRN	?BuildViewFrustum@CScreen@@QAEXXZ:PROC		; CScreen::BuildViewFrustum
EXTRN	?Update@CCullingManager@@QAEXXZ:PROC		; CCullingManager::Update
EXTRN	?Process@CCullingManager@@QAEXXZ:PROC		; CCullingManager::Process
EXTRN	?DestroyCollisionInstanceSystem@@YAXXZ:PROC	; DestroyCollisionInstanceSystem
EXTRN	?DestroySystem@CAttributeInstance@@SAXXZ:PROC	; CAttributeInstance::DestroySystem
EXTRN	?CreateSphereMap@CGrannyMaterial@@SAXIPBD@Z:PROC ; CGrannyMaterial::CreateSphereMap
EXTRN	?DestroySphereMap@CGrannyMaterial@@SAXXZ:PROC	; CGrannyMaterial::DestroySphereMap
EXTRN	?TranslateSpecularMatrix@CGrannyMaterial@@SAXMMM@Z:PROC ; CGrannyMaterial::TranslateSpecularMatrix
EXTRN	?DestroySystem@CGrannyModelInstance@@SAXXZ:PROC	; CGrannyModelInstance::DestroySystem
EXTRN	?SetMinLODMode@CGrannyLODController@@SAX_N@Z:PROC ; CGrannyLODController::SetMinLODMode
EXTRN	??0CPythonGraphic@@QAE@XZ:PROC			; CPythonGraphic::CPythonGraphic
EXTRN	??1CPythonGraphic@@UAE@XZ:PROC			; CPythonGraphic::~CPythonGraphic
EXTRN	?Destroy@CPythonGraphic@@QAEXXZ:PROC		; CPythonGraphic::Destroy
EXTRN	?PushState@CPythonGraphic@@QAEXXZ:PROC		; CPythonGraphic::PushState
EXTRN	?SetInterfaceRenderState@CPythonGraphic@@QAEXXZ:PROC ; CPythonGraphic::SetInterfaceRenderState
EXTRN	?SetGameRenderState@CPythonGraphic@@QAEXXZ:PROC	; CPythonGraphic::SetGameRenderState
EXTRN	?SetCursorPosition@CPythonGraphic@@QAEXHH@Z:PROC ; CPythonGraphic::SetCursorPosition
EXTRN	??0CWindowManager@UI@@QAE@XZ:PROC		; UI::CWindowManager::CWindowManager
EXTRN	??1CWindowManager@UI@@UAE@XZ:PROC		; UI::CWindowManager::~CWindowManager
EXTRN	?Destroy@CWindowManager@UI@@QAEXXZ:PROC		; UI::CWindowManager::Destroy
EXTRN	?GetAspect@CWindowManager@UI@@QAEMXZ:PROC	; UI::CWindowManager::GetAspect
EXTRN	?GetMousePosition@CWindowManager@UI@@QAEXAAJ0@Z:PROC ; UI::CWindowManager::GetMousePosition
EXTRN	??0CSoundManager@@QAE@XZ:PROC			; CSoundManager::CSoundManager
EXTRN	??1CSoundManager@@UAE@XZ:PROC			; CSoundManager::~CSoundManager
EXTRN	?Create@CSoundManager@@QAEHXZ:PROC		; CSoundManager::Create
EXTRN	?Destroy@CSoundManager@@QAEXXZ:PROC		; CSoundManager::Destroy
EXTRN	?LocaleService_IsYMIR@@YA_NXZ:PROC		; LocaleService_IsYMIR
EXTRN	?LocaleService_IsEUROPE@@YA_NXZ:PROC		; LocaleService_IsEUROPE
EXTRN	?DefaultFont_Startup@@YAXXZ:PROC		; DefaultFont_Startup
EXTRN	?DefaultFont_Cleanup@@YAXXZ:PROC		; DefaultFont_Cleanup
EXTRN	?ApplicationStringTable_GetStringz@@YAPBDKPBD@Z:PROC ; ApplicationStringTable_GetStringz
EXTRN	?SetEterExceptionHandler@@YAXXZ:PROC		; SetEterExceptionHandler
EXTRN	?AddCamera@CCameraManager@@QAE_NE@Z:PROC	; CCameraManager::AddCamera
EXTRN	_WebBrowser_Destroy:PROC
EXTRN	?Destroy@CMSWindow@@QAEXXZ:PROC			; CMSWindow::Destroy
EXTRN	?Create@CMSWindow@@QAE_NPBDHKKPAUHICON__@@H@Z:PROC ; CMSWindow::Create
EXTRN	?SetVisibleMode@CMSWindow@@QAEX_N@Z:PROC	; CMSWindow::SetVisibleMode
EXTRN	?SetPosition@CMSWindow@@QAEXHH@Z:PROC		; CMSWindow::SetPosition
EXTRN	?AdjustSize@CMSWindow@@QAEXHH@Z:PROC		; CMSWindow::AdjustSize
EXTRN	?IsActive@CMSWindow@@QAE_NXZ:PROC		; CMSWindow::IsActive
EXTRN	?GetMousePosition@CMSWindow@@QAEXPAUtagPOINT@@@Z:PROC ; CMSWindow::GetMousePosition
EXTRN	?GetClientRect@CMSWindow@@QAEXPAUtagRECT@@@Z:PROC ; CMSWindow::GetClientRect
EXTRN	?GetScreenWidth@CMSWindow@@QAEHXZ:PROC		; CMSWindow::GetScreenWidth
EXTRN	?GetScreenHeight@CMSWindow@@QAEHXZ:PROC		; CMSWindow::GetScreenHeight
EXTRN	?GetWindowHandle@CMSWindow@@QAEPAUHWND__@@XZ:PROC ; CMSWindow::GetWindowHandle
EXTRN	?GetInstance@CMSWindow@@QAEPAUHINSTANCE__@@XZ:PROC ; CMSWindow::GetInstance
EXTRN	?OnSize@CMSWindow@@UAEXIJ@Z:PROC		; CMSWindow::OnSize
EXTRN	??0CMSApplication@@QAE@XZ:PROC			; CMSApplication::CMSApplication
EXTRN	??1CMSApplication@@UAE@XZ:PROC			; CMSApplication::~CMSApplication
EXTRN	?IsMessage@CMSApplication@@QAE_NXZ:PROC		; CMSApplication::IsMessage
EXTRN	?MessageProcess@CMSApplication@@QAE_NXZ:PROC	; CMSApplication::MessageProcess
EXTRN	??0CInputKeyboard@@QAE@XZ:PROC			; CInputKeyboard::CInputKeyboard
EXTRN	??1CInputKeyboard@@UAE@XZ:PROC			; CInputKeyboard::~CInputKeyboard
EXTRN	?InitializeKeyboard@CInputKeyboard@@QAE_NPAUHWND__@@@Z:PROC ; CInputKeyboard::InitializeKeyboard
EXTRN	?UpdateKeyboard@CInputKeyboard@@QAEXXZ:PROC	; CInputKeyboard::UpdateKeyboard
EXTRN	?SetRenderState@CStateManager@@QAEXW4_D3DRENDERSTATETYPE@@K@Z:PROC ; CStateManager::SetRenderState
EXTRN	??0CGraphicDevice@@QAE@XZ:PROC			; CGraphicDevice::CGraphicDevice
EXTRN	??1CGraphicDevice@@UAE@XZ:PROC			; CGraphicDevice::~CGraphicDevice
EXTRN	?InitBackBufferCount@CGraphicDevice@@QAEXI@Z:PROC ; CGraphicDevice::InitBackBufferCount
EXTRN	?Destroy@CGraphicDevice@@QAEXXZ:PROC		; CGraphicDevice::Destroy
EXTRN	?Create@CGraphicDevice@@QAEHPAUHWND__@@HH_NHH@Z:PROC ; CGraphicDevice::Create
EXTRN	?GetDeviceState@CGraphicDevice@@QAE?AW4EDeviceState@1@XZ:PROC ; CGraphicDevice::GetDeviceState
EXTRN	?Reset@CGraphicDevice@@QAE_NXZ:PROC		; CGraphicDevice::Reset
EXTRN	?RegisterWarningString@CGraphicDevice@@QAEXIPBD@Z:PROC ; CGraphicDevice::RegisterWarningString
EXTRN	??0CNetworkDevice@@QAE@XZ:PROC			; CNetworkDevice::CNetworkDevice
EXTRN	??1CNetworkDevice@@UAE@XZ:PROC			; CNetworkDevice::~CNetworkDevice
EXTRN	?Create@CNetworkDevice@@QAE_NXZ:PROC		; CNetworkDevice::Create
EXTRN	??0CLightManager@@QAE@XZ:PROC			; CLightManager::CLightManager
EXTRN	??1CLightManager@@UAE@XZ:PROC			; CLightManager::~CLightManager
EXTRN	?Destroy@CLightManager@@QAEXXZ:PROC		; CLightManager::Destroy
EXTRN	?Initialize@CLightManager@@QAEXXZ:PROC		; CLightManager::Initialize
EXTRN	??0CEffectManager@@QAE@XZ:PROC			; CEffectManager::CEffectManager
EXTRN	??1CEffectManager@@UAE@XZ:PROC			; CEffectManager::~CEffectManager
EXTRN	?Destroy@CEffectManager@@QAEXXZ:PROC		; CEffectManager::Destroy
EXTRN	?UpdateSound@CEffectManager@@QAEXXZ:PROC	; CEffectManager::UpdateSound
EXTRN	?Update@CEffectManager@@QAEXXZ:PROC		; CEffectManager::Update
EXTRN	?Render@CEffectManager@@QAEXXZ:PROC		; CEffectManager::Render
EXTRN	?GetInfo@CEffectManager@@QAEXPAV?$basic_string@DU?$char_traits@D@std@@V?$allocator@D@2@@std@@@Z:PROC ; CEffectManager::GetInfo
EXTRN	??0CRaceManager@@QAE@XZ:PROC			; CRaceManager::CRaceManager
EXTRN	??1CRaceManager@@UAE@XZ:PROC			; CRaceManager::~CRaceManager
EXTRN	?Destroy@CRaceManager@@QAEXXZ:PROC		; CRaceManager::Destroy
EXTRN	??0CItemManager@@QAE@XZ:PROC			; CItemManager::CItemManager
EXTRN	??1CItemManager@@UAE@XZ:PROC			; CItemManager::~CItemManager
EXTRN	?Destroy@CItemManager@@QAEXXZ:PROC		; CItemManager::Destroy
EXTRN	?LoadItemDesc@CItemManager@@QAE_NPBD@Z:PROC	; CItemManager::LoadItemDesc
EXTRN	?LoadItemList@CItemManager@@QAE_NPBD@Z:PROC	; CItemManager::LoadItemList
EXTRN	?LoadItemTable@CItemManager@@QAE_NPBD@Z:PROC	; CItemManager::LoadItemTable
EXTRN	??0CFlyingManager@@QAE@XZ:PROC			; CFlyingManager::CFlyingManager
EXTRN	??1CFlyingManager@@UAE@XZ:PROC			; CFlyingManager::~CFlyingManager
EXTRN	?Destroy@CFlyingManager@@QAEXXZ:PROC		; CFlyingManager::Destroy
EXTRN	?Update@CFlyingManager@@QAEXXZ:PROC		; CFlyingManager::Update
EXTRN	?Render@CFlyingManager@@QAEXXZ:PROC		; CFlyingManager::Render
EXTRN	??0CGameEventManager@@QAE@XZ:PROC		; CGameEventManager::CGameEventManager
EXTRN	??1CGameEventManager@@UAE@XZ:PROC		; CGameEventManager::~CGameEventManager
EXTRN	?SetCenterPosition@CGameEventManager@@QAEXMMM@Z:PROC ; CGameEventManager::SetCenterPosition
EXTRN	?Update@CGameEventManager@@QAEXXZ:PROC		; CGameEventManager::Update
EXTRN	??0CPythonEventManager@@QAE@XZ:PROC		; CPythonEventManager::CPythonEventManager
EXTRN	??1CPythonEventManager@@UAE@XZ:PROC		; CPythonEventManager::~CPythonEventManager
EXTRN	?Destroy@CPythonEventManager@@QAEXXZ:PROC	; CPythonEventManager::Destroy
EXTRN	??0CPythonSkill@@QAE@XZ:PROC			; CPythonSkill::CPythonSkill
EXTRN	??1CPythonSkill@@UAE@XZ:PROC			; CPythonSkill::~CPythonSkill
EXTRN	?Destroy@CPythonSkill@@QAEXXZ:PROC		; CPythonSkill::Destroy
EXTRN	?RegisterSkillTable@CPythonSkill@@QAE_NPBD@Z:PROC ; CPythonSkill::RegisterSkillTable
EXTRN	?RegisterSkillDesc@CPythonSkill@@QAE_NPBD@Z:PROC ; CPythonSkill::RegisterSkillDesc
EXTRN	??0CPythonPlayer@@QAE@XZ:PROC			; CPythonPlayer::CPythonPlayer
EXTRN	??1CPythonPlayer@@UAE@XZ:PROC			; CPythonPlayer::~CPythonPlayer
EXTRN	?NEW_GetMainActorPosition@CPythonPlayer@@QAEXPAUD3DXVECTOR3@@@Z:PROC ; CPythonPlayer::NEW_GetMainActorPosition
EXTRN	?Update@CPythonPlayer@@QAEXXZ:PROC		; CPythonPlayer::Update
EXTRN	??0CPythonNonPlayer@@QAE@XZ:PROC		; CPythonNonPlayer::CPythonNonPlayer
EXTRN	??1CPythonNonPlayer@@UAE@XZ:PROC		; CPythonNonPlayer::~CPythonNonPlayer
EXTRN	?Destroy@CPythonNonPlayer@@QAEXXZ:PROC		; CPythonNonPlayer::Destroy
EXTRN	?LoadNonPlayerData@CPythonNonPlayer@@QAE_NPBD@Z:PROC ; CPythonNonPlayer::LoadNonPlayerData
EXTRN	?ReserveSoftwareTilingEnable@CMapManager@@QAEX_N@Z:PROC ; CMapManager::ReserveSoftwareTilingEnable
EXTRN	?GetHeight@CMapManager@@QAEMMM@Z:PROC		; CMapManager::GetHeight
EXTRN	?BeginEnvironment@CMapManager@@QAEXXZ:PROC	; CMapManager::BeginEnvironment
EXTRN	?EndEnvironment@CMapManager@@QAEXXZ:PROC	; CMapManager::EndEnvironment
EXTRN	??0CPythonBackground@@QAE@XZ:PROC		; CPythonBackground::CPythonBackground
EXTRN	??1CPythonBackground@@UAE@XZ:PROC		; CPythonBackground::~CPythonBackground
EXTRN	?Destroy@CPythonBackground@@QAEXXZ:PROC		; CPythonBackground::Destroy
EXTRN	?GlobalPositionToLocalPosition@CPythonBackground@@QAEXAAJ0@Z:PROC ; CPythonBackground::GlobalPositionToLocalPosition
EXTRN	?SetViewDistanceSet@CPythonBackground@@QAEXHM@Z:PROC ; CPythonBackground::SetViewDistanceSet
EXTRN	?GetFarClip@CPythonBackground@@QAEMXZ:PROC	; CPythonBackground::GetFarClip
EXTRN	?Update@CPythonBackground@@QAEXMMM@Z:PROC	; CPythonBackground::Update
EXTRN	?CreateCharacterShadowTexture@CPythonBackground@@QAEXXZ:PROC ; CPythonBackground::CreateCharacterShadowTexture
EXTRN	?ReleaseCharacterShadowTexture@CPythonBackground@@QAEXXZ:PROC ; CPythonBackground::ReleaseCharacterShadowTexture
EXTRN	?Render@CPythonBackground@@QAEXXZ:PROC		; CPythonBackground::Render
EXTRN	?RenderSnow@CPythonBackground@@QAEXXZ:PROC	; CPythonBackground::RenderSnow
EXTRN	?RenderPCBlocker@CPythonBackground@@QAEXXZ:PROC	; CPythonBackground::RenderPCBlocker
EXTRN	?RenderCharacterShadowToTexture@CPythonBackground@@QAEXXZ:PROC ; CPythonBackground::RenderCharacterShadowToTexture
EXTRN	?RenderSky@CPythonBackground@@QAEXXZ:PROC	; CPythonBackground::RenderSky
EXTRN	?RenderCloud@CPythonBackground@@QAEXXZ:PROC	; CPythonBackground::RenderCloud
EXTRN	?RenderWater@CPythonBackground@@QAEXXZ:PROC	; CPythonBackground::RenderWater
EXTRN	?RenderEffect@CPythonBackground@@QAEXXZ:PROC	; CPythonBackground::RenderEffect
EXTRN	?RenderBeforeLensFlare@CPythonBackground@@QAEXXZ:PROC ; CPythonBackground::RenderBeforeLensFlare
EXTRN	?RenderAfterLensFlare@CPythonBackground@@QAEXXZ:PROC ; CPythonBackground::RenderAfterLensFlare
EXTRN	?SetCharacterDirLight@CPythonBackground@@QAEXXZ:PROC ; CPythonBackground::SetCharacterDirLight
EXTRN	?SetBackgroundDirLight@CPythonBackground@@QAEXXZ:PROC ; CPythonBackground::SetBackgroundDirLight
EXTRN	??0CPythonMiniMap@@QAE@XZ:PROC			; CPythonMiniMap::CPythonMiniMap
EXTRN	??1CPythonMiniMap@@UAE@XZ:PROC			; CPythonMiniMap::~CPythonMiniMap
EXTRN	?Destroy@CPythonMiniMap@@QAEXXZ:PROC		; CPythonMiniMap::Destroy
EXTRN	?SetText@CIME@@QAEXPBDH@Z:PROC			; CIME::SetText
EXTRN	?UseDefaultIME@CIME@@QAEXXZ:PROC		; CIME::UseDefaultIME
EXTRN	??0CPythonIME@@QAE@XZ:PROC			; CPythonIME::CPythonIME
EXTRN	??1CPythonIME@@UAE@XZ:PROC			; CPythonIME::~CPythonIME
EXTRN	?Create@CPythonIME@@QAEXPAUHWND__@@@Z:PROC	; CPythonIME::Create
EXTRN	??0CPythonItem@@QAE@XZ:PROC			; CPythonItem::CPythonItem
EXTRN	??1CPythonItem@@UAE@XZ:PROC			; CPythonItem::~CPythonItem
EXTRN	?Destroy@CPythonItem@@QAEXXZ:PROC		; CPythonItem::Destroy
EXTRN	?Create@CPythonItem@@QAEXXZ:PROC		; CPythonItem::Create
EXTRN	?GetInfo@CPythonItem@@QAEXPAV?$basic_string@DU?$char_traits@D@std@@V?$allocator@D@2@@std@@@Z:PROC ; CPythonItem::GetInfo
EXTRN	?Render@CPythonItem@@QAEXXZ:PROC		; CPythonItem::Render
EXTRN	?Update@CPythonItem@@QAEXABUtagPOINT@@@Z:PROC	; CPythonItem::Update
EXTRN	??0CPythonShop@@QAE@XZ:PROC			; CPythonShop::CPythonShop
EXTRN	??1CPythonShop@@UAE@XZ:PROC			; CPythonShop::~CPythonShop
EXTRN	??0CPythonExchange@@QAE@XZ:PROC			; CPythonExchange::CPythonExchange
EXTRN	??1CPythonExchange@@UAE@XZ:PROC			; CPythonExchange::~CPythonExchange
EXTRN	??0CPythonChat@@QAE@XZ:PROC			; CPythonChat::CPythonChat
EXTRN	??1CPythonChat@@UAE@XZ:PROC			; CPythonChat::~CPythonChat
EXTRN	?Destroy@CPythonChat@@QAEXXZ:PROC		; CPythonChat::Destroy
EXTRN	??0CPythonTextTail@@QAE@XZ:PROC			; CPythonTextTail::CPythonTextTail
EXTRN	??1CPythonTextTail@@UAE@XZ:PROC			; CPythonTextTail::~CPythonTextTail
EXTRN	?GetInfo@CPythonTextTail@@QAEXPAV?$basic_string@DU?$char_traits@D@std@@V?$allocator@D@2@@std@@@Z:PROC ; CPythonTextTail::GetInfo
EXTRN	?Initialize@CPythonTextTail@@QAEXXZ:PROC	; CPythonTextTail::Initialize
EXTRN	?Destroy@CPythonTextTail@@QAEXXZ:PROC		; CPythonTextTail::Destroy
EXTRN	??0CPythonSystem@@QAE@XZ:PROC			; CPythonSystem::CPythonSystem
EXTRN	??1CPythonSystem@@UAE@XZ:PROC			; CPythonSystem::~CPythonSystem
EXTRN	?Clear@CPythonSystem@@QAEXXZ:PROC		; CPythonSystem::Clear
EXTRN	?SaveConfig@CPythonSystem@@QAE_NXZ:PROC		; CPythonSystem::SaveConfig
EXTRN	?SaveInterfaceStatus@CPythonSystem@@QAEXXZ:PROC	; CPythonSystem::SaveInterfaceStatus
EXTRN	?GetWidth@CPythonSystem@@QAEKXZ:PROC		; CPythonSystem::GetWidth
EXTRN	?GetHeight@CPythonSystem@@QAEKXZ:PROC		; CPythonSystem::GetHeight
EXTRN	?GetBPP@CPythonSystem@@QAEKXZ:PROC		; CPythonSystem::GetBPP
EXTRN	?GetFrequency@CPythonSystem@@QAEKXZ:PROC	; CPythonSystem::GetFrequency
EXTRN	?IsSoftwareCursor@CPythonSystem@@QAE_NXZ:PROC	; CPythonSystem::IsSoftwareCursor
EXTRN	?IsWindowed@CPythonSystem@@QAE_NXZ:PROC		; CPythonSystem::IsWindowed
EXTRN	?IsUseDefaultIME@CPythonSystem@@QAE_NXZ:PROC	; CPythonSystem::IsUseDefaultIME
EXTRN	?IsNoSoundCard@CPythonSystem@@QAE_NXZ:PROC	; CPythonSystem::IsNoSoundCard
EXTRN	?IsAutoTiling@CPythonSystem@@QAE_NXZ:PROC	; CPythonSystem::IsAutoTiling
EXTRN	?IsSoftwareTiling@CPythonSystem@@QAE_NXZ:PROC	; CPythonSystem::IsSoftwareTiling
EXTRN	?GetDisplaySettings@CPythonSystem@@QAEXXZ:PROC	; CPythonSystem::GetDisplaySettings
EXTRN	?Process@CNetworkStream@@QAEXXZ:PROC		; CNetworkStream::Process
EXTRN	?Disconnect@CNetworkStream@@QAEXXZ:PROC		; CNetworkStream::Disconnect
EXTRN	??0CPythonNetworkStream@@QAE@XZ:PROC		; CPythonNetworkStream::CPythonNetworkStream
EXTRN	??1CPythonNetworkStream@@UAE@XZ:PROC		; CPythonNetworkStream::~CPythonNetworkStream
EXTRN	?NotifyHack@CPythonNetworkStream@@QAEXPBD@Z:PROC ; CPythonNetworkStream::NotifyHack
EXTRN	?LoadInsultList@CPythonNetworkStream@@QAE_NPBD@Z:PROC ; CPythonNetworkStream::LoadInsultList
EXTRN	?LoadConvertTable@CPythonNetworkStream@@QAE_NKPBD@Z:PROC ; CPythonNetworkStream::LoadConvertTable
EXTRN	??0CPythonCharacterManager@@QAE@XZ:PROC		; CPythonCharacterManager::CPythonCharacterManager
EXTRN	??1CPythonCharacterManager@@UAE@XZ:PROC		; CPythonCharacterManager::~CPythonCharacterManager
EXTRN	?GetInfo@CPythonCharacterManager@@QAEXPAV?$basic_string@DU?$char_traits@D@std@@V?$allocator@D@2@@std@@@Z:PROC ; CPythonCharacterManager::GetInfo
EXTRN	?Update@CPythonCharacterManager@@QAEXXZ:PROC	; CPythonCharacterManager::Update
EXTRN	?Deform@CPythonCharacterManager@@QAEXXZ:PROC	; CPythonCharacterManager::Deform
EXTRN	?Render@CPythonCharacterManager@@QAEXXZ:PROC	; CPythonCharacterManager::Render
EXTRN	??0CPythonQuest@@QAE@XZ:PROC			; CPythonQuest::CPythonQuest
EXTRN	??1CPythonQuest@@UAE@XZ:PROC			; CPythonQuest::~CPythonQuest
EXTRN	??0CPythonMessenger@@QAE@XZ:PROC		; CPythonMessenger::CPythonMessenger
EXTRN	??1CPythonMessenger@@UAE@XZ:PROC		; CPythonMessenger::~CPythonMessenger
EXTRN	??0CPythonSafeBox@@QAE@XZ:PROC			; CPythonSafeBox::CPythonSafeBox
EXTRN	??1CPythonSafeBox@@UAE@XZ:PROC			; CPythonSafeBox::~CPythonSafeBox
EXTRN	??0CPythonGuild@@QAE@XZ:PROC			; CPythonGuild::CPythonGuild
EXTRN	??1CPythonGuild@@UAE@XZ:PROC			; CPythonGuild::~CPythonGuild
EXTRN	??0CGuildMarkManager@@QAE@XZ:PROC		; CGuildMarkManager::CGuildMarkManager
EXTRN	??1CGuildMarkManager@@UAE@XZ:PROC		; CGuildMarkManager::~CGuildMarkManager
EXTRN	??0CGuildMarkDownloader@@QAE@XZ:PROC		; CGuildMarkDownloader::CGuildMarkDownloader
EXTRN	??1CGuildMarkDownloader@@UAE@XZ:PROC		; CGuildMarkDownloader::~CGuildMarkDownloader
EXTRN	?Process@CGuildMarkDownloader@@QAEXXZ:PROC	; CGuildMarkDownloader::Process
EXTRN	??0CGuildMarkUploader@@QAE@XZ:PROC		; CGuildMarkUploader::CGuildMarkUploader
EXTRN	??1CGuildMarkUploader@@UAE@XZ:PROC		; CGuildMarkUploader::~CGuildMarkUploader
EXTRN	?Process@CGuildMarkUploader@@QAEXXZ:PROC	; CGuildMarkUploader::Process
EXTRN	??0CAccountConnector@@QAE@XZ:PROC		; CAccountConnector::CAccountConnector
EXTRN	??1CAccountConnector@@UAE@XZ:PROC		; CAccountConnector::~CAccountConnector
EXTRN	?Process@CAccountConnector@@QAEXXZ:PROC		; CAccountConnector::Process
EXTRN	??0CServerStateChecker@@QAE@XZ:PROC		; CServerStateChecker::CServerStateChecker
EXTRN	??1CServerStateChecker@@UAE@XZ:PROC		; CServerStateChecker::~CServerStateChecker
EXTRN	??_E?$TAbstractSingleton@VIAbstractApplication@@@@UAEPAXI@Z:PROC ; TAbstractSingleton<IAbstractApplication>::`vector deleting destructor'
EXTRN	??_EIAbstractApplication@@UAEPAXI@Z:PROC	; IAbstractApplication::`vector deleting destructor'
EXTRN	??_E?$CSingleton@VCMovieMan@@@@UAEPAXI@Z:PROC	; CSingleton<CMovieMan>::`vector deleting destructor'
EXTRN	??_ECMovieMan@@UAEPAXI@Z:PROC			; CMovieMan::`vector deleting destructor'
EXTRN	?CreateCursors@CPythonApplication@@QAE_NXZ:PROC	; CPythonApplication::CreateCursors
EXTRN	?DestroyCursors@CPythonApplication@@QAEXXZ:PROC	; CPythonApplication::DestroyCursors
EXTRN	?SetCursorMode@CPythonApplication@@QAEXH@Z:PROC	; CPythonApplication::SetCursorMode
EXTRN	?RunIMEUpdate@CPythonApplication@@UAEXXZ:PROC	; CPythonApplication::RunIMEUpdate
EXTRN	?RunIMETabEvent@CPythonApplication@@UAEXXZ:PROC	; CPythonApplication::RunIMETabEvent
EXTRN	?RunIMEReturnEvent@CPythonApplication@@UAEXXZ:PROC ; CPythonApplication::RunIMEReturnEvent
EXTRN	?RunIMEChangeCodePage@CPythonApplication@@UAEXXZ:PROC ; CPythonApplication::RunIMEChangeCodePage
EXTRN	?RunIMEOpenCandidateListEvent@CPythonApplication@@UAEXXZ:PROC ; CPythonApplication::RunIMEOpenCandidateListEvent
EXTRN	?RunIMECloseCandidateListEvent@CPythonApplication@@UAEXXZ:PROC ; CPythonApplication::RunIMECloseCandidateListEvent
EXTRN	?RunIMEOpenReadingWndEvent@CPythonApplication@@UAEXXZ:PROC ; CPythonApplication::RunIMEOpenReadingWndEvent
EXTRN	?RunIMECloseReadingWndEvent@CPythonApplication@@UAEXXZ:PROC ; CPythonApplication::RunIMECloseReadingWndEvent
EXTRN	?SetEventCamera@CPythonApplication@@UAEXABUSCameraSetting@IAbstractApplication@@@Z:PROC ; CPythonApplication::SetEventCamera
EXTRN	?BlendEventCamera@CPythonApplication@@UAEXABUSCameraSetting@IAbstractApplication@@M@Z:PROC ; CPythonApplication::BlendEventCamera
EXTRN	?SetDefaultCamera@CPythonApplication@@UAEXXZ:PROC ; CPythonApplication::SetDefaultCamera
EXTRN	?WindowProcedure@CPythonApplication@@MAEJPAUHWND__@@IIJ@Z:PROC ; CPythonApplication::WindowProcedure
EXTRN	?OnCameraUpdate@CPythonApplication@@IAEXXZ:PROC	; CPythonApplication::OnCameraUpdate
EXTRN	?OnUIUpdate@CPythonApplication@@IAEXXZ:PROC	; CPythonApplication::OnUIUpdate
EXTRN	?OnUIRender@CPythonApplication@@IAEXXZ:PROC	; CPythonApplication::OnUIRender
EXTRN	?OnMouseUpdate@CPythonApplication@@IAEXXZ:PROC	; CPythonApplication::OnMouseUpdate
EXTRN	?OnMouseRender@CPythonApplication@@IAEXXZ:PROC	; CPythonApplication::OnMouseRender
EXTRN	?OnMouseMove@CPythonApplication@@IAEXHH@Z:PROC	; CPythonApplication::OnMouseMove
EXTRN	?OnSizeChange@CPythonApplication@@IAEXHH@Z:PROC	; CPythonApplication::OnSizeChange
EXTRN	?OnKeyDown@CPythonApplication@@MAEXH@Z:PROC	; CPythonApplication::OnKeyDown
EXTRN	?OnKeyUp@CPythonApplication@@MAEXH@Z:PROC	; CPythonApplication::OnKeyUp
EXTRN	?__UpdateCamera@CPythonApplication@@IAEXXZ:PROC	; CPythonApplication::__UpdateCamera
EXTRN	?__SetFullScreenWindow@CPythonApplication@@IAEXPAUHWND__@@KKK@Z:PROC ; CPythonApplication::__SetFullScreenWindow
EXTRN	??_ECPythonApplication@@UAEPAXI@Z:PROC		; CPythonApplication::`vector deleting destructor'
EXTRN	?GrannyCreateSharedDeformBuffer@@YAXXZ:PROC	; GrannyCreateSharedDeformBuffer
EXTRN	?GrannyDestroySharedDeformBuffer@@YAXXZ:PROC	; GrannyDestroySharedDeformBuffer
EXTRN	@__security_check_cookie@4:PROC
EXTRN	__CxxThrowException@8:PROC
EXTRN	___CxxFrameHandler3:PROC
EXTRN	_memcpy:PROC
EXTRN	_memmove:PROC
EXTRN	__Init_thread_epoch:DWORD
EXTRN	__imp__PyExc_RuntimeError:DWORD
EXTRN	?GRAPHICS_CAPS_SOFTWARE_TILING@@3_NA:BYTE	; GRAPHICS_CAPS_SOFTWARE_TILING
EXTRN	___security_cookie:DWORD
EXTRN	__fltused:DWORD
EXTRN	__tls_array:DWORD
EXTRN	__tls_index:DWORD
;	COMDAT ?_OptionsStorage@?1??__local_stdio_printf_options@@9@4_KA
_BSS	SEGMENT
?_OptionsStorage@?1??__local_stdio_printf_options@@9@4_KA DQ 01H DUP (?) ; `__local_stdio_printf_options'::`2'::_OptionsStorage
_BSS	ENDS
;	COMDAT ?ms_singleton@?$CSingleton@VCTimer@@@@0PAVCTimer@@A
_BSS	SEGMENT
?ms_singleton@?$CSingleton@VCTimer@@@@0PAVCTimer@@A DD 01H DUP (?) ; CSingleton<CTimer>::ms_singleton
_BSS	ENDS
;	COMDAT ?ms_singleton@?$CSingleton@VCResourceManager@@@@0PAVCResourceManager@@A
_BSS	SEGMENT
?ms_singleton@?$CSingleton@VCResourceManager@@@@0PAVCResourceManager@@A DD 01H DUP (?) ; CSingleton<CResourceManager>::ms_singleton
_BSS	ENDS
;	COMDAT ?ms_singleton@?$CSingleton@VCCullingManager@@@@0PAVCCullingManager@@A
_BSS	SEGMENT
?ms_singleton@?$CSingleton@VCCullingManager@@@@0PAVCCullingManager@@A DD 01H DUP (?) ; CSingleton<CCullingManager>::ms_singleton
_BSS	ENDS
;	COMDAT ?ms_singleton@?$CSingleton@VCWindowManager@UI@@@@0PAVCWindowManager@UI@@A
_BSS	SEGMENT
?ms_singleton@?$CSingleton@VCWindowManager@UI@@@@0PAVCWindowManager@UI@@A DD 01H DUP (?) ; CSingleton<UI::CWindowManager>::ms_singleton
_BSS	ENDS
;	COMDAT ?ms_singleton@?$CSingleton@VCCameraManager@@@@0PAVCCameraManager@@A
_BSS	SEGMENT
?ms_singleton@?$CSingleton@VCCameraManager@@@@0PAVCCameraManager@@A DD 01H DUP (?) ; CSingleton<CCameraManager>::ms_singleton
_BSS	ENDS
;	COMDAT ?ms_singleton@?$CSingleton@VCStateManager@@@@0PAVCStateManager@@A
_BSS	SEGMENT
?ms_singleton@?$CSingleton@VCStateManager@@@@0PAVCStateManager@@A DD 01H DUP (?) ; CSingleton<CStateManager>::ms_singleton
_BSS	ENDS
;	COMDAT ?ms_singleton@?$CSingleton@VCItemManager@@@@0PAVCItemManager@@A
_BSS	SEGMENT
?ms_singleton@?$CSingleton@VCItemManager@@@@0PAVCItemManager@@A DD 01H DUP (?) ; CSingleton<CItemManager>::ms_singleton
_BSS	ENDS
;	COMDAT ?ms_singleton@?$CSingleton@VCPythonSkill@@@@0PAVCPythonSkill@@A
_BSS	SEGMENT
?ms_singleton@?$CSingleton@VCPythonSkill@@@@0PAVCPythonSkill@@A DD 01H DUP (?) ; CSingleton<CPythonSkill>::ms_singleton
_BSS	ENDS
;	COMDAT ?ms_singleton@?$CSingleton@VCPythonNonPlayer@@@@0PAVCPythonNonPlayer@@A
_BSS	SEGMENT
?ms_singleton@?$CSingleton@VCPythonNonPlayer@@@@0PAVCPythonNonPlayer@@A DD 01H DUP (?) ; CSingleton<CPythonNonPlayer>::ms_singleton
_BSS	ENDS
;	COMDAT ?ms_singleton@?$CSingleton@VCPythonBackground@@@@0PAVCPythonBackground@@A
_BSS	SEGMENT
?ms_singleton@?$CSingleton@VCPythonBackground@@@@0PAVCPythonBackground@@A DD 01H DUP (?) ; CSingleton<CPythonBackground>::ms_singleton
_BSS	ENDS
;	COMDAT ?ms_singleton@?$CSingleton@VCPythonIME@@@@0PAVCPythonIME@@A
_BSS	SEGMENT
?ms_singleton@?$CSingleton@VCPythonIME@@@@0PAVCPythonIME@@A DD 01H DUP (?) ; CSingleton<CPythonIME>::ms_singleton
_BSS	ENDS
;	COMDAT ?ms_singleton@?$CSingleton@VCPythonTextTail@@@@0PAVCPythonTextTail@@A
_BSS	SEGMENT
?ms_singleton@?$CSingleton@VCPythonTextTail@@@@0PAVCPythonTextTail@@A DD 01H DUP (?) ; CSingleton<CPythonTextTail>::ms_singleton
_BSS	ENDS
;	COMDAT ?ms_singleton@?$CSingleton@VCPythonSystem@@@@0PAVCPythonSystem@@A
_BSS	SEGMENT
?ms_singleton@?$CSingleton@VCPythonSystem@@@@0PAVCPythonSystem@@A DD 01H DUP (?) ; CSingleton<CPythonSystem>::ms_singleton
_BSS	ENDS
;	COMDAT ?ms_singleton@?$CSingleton@VCPythonNetworkStream@@@@0PAVCPythonNetworkStream@@A
_BSS	SEGMENT
?ms_singleton@?$CSingleton@VCPythonNetworkStream@@@@0PAVCPythonNetworkStream@@A DD 01H DUP (?) ; CSingleton<CPythonNetworkStream>::ms_singleton
_BSS	ENDS
;	COMDAT ?ms_singleton@?$TAbstractSingleton@VIAbstractApplication@@@@0PAVIAbstractApplication@@A
_BSS	SEGMENT
?ms_singleton@?$TAbstractSingleton@VIAbstractApplication@@@@0PAVIAbstractApplication@@A DD 01H DUP (?) ; TAbstractSingleton<IAbstractApplication>::ms_singleton
_BSS	ENDS
;	COMDAT ?ms_singleton@?$CSingleton@VCMovieMan@@@@0PAVCMovieMan@@A
_BSS	SEGMENT
?ms_singleton@?$CSingleton@VCMovieMan@@@@0PAVCMovieMan@@A DD 01H DUP (?) ; CSingleton<CMovieMan>::ms_singleton
_BSS	ENDS
;	COMDAT ?fp@?1??RenderGame@CPythonApplication@@QAEXXZ@4PAU_iobuf@@A
_BSS	SEGMENT
?fp@?1??RenderGame@CPythonApplication@@QAEXXZ@4PAU_iobuf@@A DD 01H DUP (?) ; `CPythonApplication::RenderGame'::`2'::fp
_BSS	ENDS
;	COMDAT ?$TSS0@?1??RenderGame@CPythonApplication@@QAEXXZ@4HA
_BSS	SEGMENT
?$TSS0@?1??RenderGame@CPythonApplication@@QAEXXZ@4HA DD 01H DUP (?) ; `CPythonApplication::RenderGame'::`2'::$TSS0
_BSS	ENDS
;	COMDAT ?fp@?8??UpdateGame@CPythonApplication@@QAEXXZ@4PAU_iobuf@@A
_BSS	SEGMENT
?fp@?8??UpdateGame@CPythonApplication@@QAEXXZ@4PAU_iobuf@@A DD 01H DUP (?) ; `CPythonApplication::UpdateGame'::`9'::fp
_BSS	ENDS
;	COMDAT ?$TSS0@?8??UpdateGame@CPythonApplication@@QAEXXZ@4HA
_BSS	SEGMENT
?$TSS0@?8??UpdateGame@CPythonApplication@@QAEXXZ@4HA DD 01H DUP (?) ; `CPythonApplication::UpdateGame'::`9'::$TSS0
_BSS	ENDS
;	COMDAT ?s_dwUpdateFrameCount@?1??Process@CPythonApplication@@QAE_NXZ@4KA
_BSS	SEGMENT
?s_dwUpdateFrameCount@?1??Process@CPythonApplication@@QAE_NXZ@4KA DD 01H DUP (?) ; `CPythonApplication::Process'::`2'::s_dwUpdateFrameCount
_BSS	ENDS
;	COMDAT ?s_dwRenderFrameCount@?1??Process@CPythonApplication@@QAE_NXZ@4KA
_BSS	SEGMENT
?s_dwRenderFrameCount@?1??Process@CPythonApplication@@QAE_NXZ@4KA DD 01H DUP (?) ; `CPythonApplication::Process'::`2'::s_dwRenderFrameCount
_BSS	ENDS
;	COMDAT ?s_dwFaceCount@?1??Process@CPythonApplication@@QAE_NXZ@4KA
_BSS	SEGMENT
?s_dwFaceCount@?1??Process@CPythonApplication@@QAE_NXZ@4KA DD 01H DUP (?) ; `CPythonApplication::Process'::`2'::s_dwFaceCount
_BSS	ENDS
;	COMDAT ?s_uiLoad@?1??Process@CPythonApplication@@QAE_NXZ@4IA
_BSS	SEGMENT
?s_uiLoad@?1??Process@CPythonApplication@@QAE_NXZ@4IA DD 01H DUP (?) ; `CPythonApplication::Process'::`2'::s_uiLoad
_BSS	ENDS
;	COMDAT ?s_dwCheckTime@?1??Process@CPythonApplication@@QAE_NXZ@4KA
_BSS	SEGMENT
?s_dwCheckTime@?1??Process@CPythonApplication@@QAE_NXZ@4KA DD 01H DUP (?) ; `CPythonApplication::Process'::`2'::s_dwCheckTime
_BSS	ENDS
;	COMDAT ?$TSS0@?1??Process@CPythonApplication@@QAE_NXZ@4HA
_BSS	SEGMENT
?$TSS0@?1??Process@CPythonApplication@@QAE_NXZ@4HA DD 01H DUP (?) ; `CPythonApplication::Process'::`2'::$TSS0
_BSS	ENDS
;	COMDAT ?s_bFrameSkip@?1??Process@CPythonApplication@@QAE_NXZ@4HA
_BSS	SEGMENT
?s_bFrameSkip@?1??Process@CPythonApplication@@QAE_NXZ@4HA DD 01H DUP (?) ; `CPythonApplication::Process'::`2'::s_bFrameSkip
_BSS	ENDS
;	COMDAT ?s_uiNextFrameTime@?1??Process@CPythonApplication@@QAE_NXZ@4IA
_BSS	SEGMENT
?s_uiNextFrameTime@?1??Process@CPythonApplication@@QAE_NXZ@4IA DD 01H DUP (?) ; `CPythonApplication::Process'::`2'::s_uiNextFrameTime
_BSS	ENDS
;	COMDAT ?$TSS1@?1??Process@CPythonApplication@@QAE_NXZ@4HA
_BSS	SEGMENT
?$TSS1@?1??Process@CPythonApplication@@QAE_NXZ@4HA DD 01H DUP (?) ; `CPythonApplication::Process'::`2'::$TSS1
_BSS	ENDS
;	COMDAT ?s_dwRenderCheckTime@?CJ@??Process@CPythonApplication@@QAE_NXZ@4KA
_BSS	SEGMENT
?s_dwRenderCheckTime@?CJ@??Process@CPythonApplication@@QAE_NXZ@4KA DD 01H DUP (?) ; `CPythonApplication::Process'::`41'::s_dwRenderCheckTime
_BSS	ENDS
;	COMDAT ?$TSS2@?CJ@??Process@CPythonApplication@@QAE_NXZ@4HA
_BSS	SEGMENT
?$TSS2@?CJ@??Process@CPythonApplication@@QAE_NXZ@4HA DD 01H DUP (?) ; `CPythonApplication::Process'::`41'::$TSS2
_BSS	ENDS
;	COMDAT ?s_dwRenderRangeTime@?CJ@??Process@CPythonApplication@@QAE_NXZ@4KA
_BSS	SEGMENT
?s_dwRenderRangeTime@?CJ@??Process@CPythonApplication@@QAE_NXZ@4KA DD 01H DUP (?) ; `CPythonApplication::Process'::`41'::s_dwRenderRangeTime
_BSS	ENDS
;	COMDAT ?s_dwRenderRangeFrame@?CJ@??Process@CPythonApplication@@QAE_NXZ@4KA
_BSS	SEGMENT
?s_dwRenderRangeFrame@?CJ@??Process@CPythonApplication@@QAE_NXZ@4KA DD 01H DUP (?) ; `CPythonApplication::Process'::`41'::s_dwRenderRangeFrame
_BSS	ENDS
;	COMDAT ?s_fBufRenderTime@?DC@??Process@CPythonApplication@@QAE_NXZ@4MA
_BSS	SEGMENT
?s_fBufRenderTime@?DC@??Process@CPythonApplication@@QAE_NXZ@4MA DD 01H DUP (?) ; `CPythonApplication::Process'::`50'::s_fBufRenderTime
_BSS	ENDS
;	COMDAT CRT$XCU
CRT$XCU	SEGMENT
??ms_kPool$initializer$@?$CPooledObject@VCHeaderDecorator@NEffectUpdateDecorator@@@@1P6AXXZA@@3P6AXXZA DD FLAT:??__E?ms_kPool@?$CPooledObject@VCHeaderDecorator@NEffectUpdateDecorator@@@@1V?$CDynamicPoolEx@VCHeaderDecorator@NEffectUpdateDecorator@@@@A@@YAXXZ ; ??ms_kPool$initializer$@?$CPooledObject@VCHeaderDecorator@NEffectUpdateDecorator@@@@1P6AXXZA@@3P6AXXZA
CRT$XCU	ENDS
;	COMDAT __xmm@80000000800000008000000080000000
CONST	SEGMENT
__xmm@80000000800000008000000080000000 DB 00H, 00H, 00H, 080H, 00H, 00H, 00H
	DB	080H, 00H, 00H, 00H, 080H, 00H, 00H, 00H, 080H
CONST	ENDS
;	COMDAT __xmm@41f00000000000000000000000000000
CONST	SEGMENT
__xmm@41f00000000000000000000000000000 DB 00H, 00H, 00H, 00H, 00H, 00H, 00H
	DB	00H, 00H, 00H, 00H, 00H, 00H, 00H, 0f0H, 'A'
CONST	ENDS
;	COMDAT __real@46c80000
CONST	SEGMENT
__real@46c80000 DD 046c80000r			; 25600
CONST	ENDS
;	COMDAT __real@447a0000
CONST	SEGMENT
__real@447a0000 DD 0447a0000r			; 1000
CONST	ENDS
;	COMDAT __real@42c80000
CONST	SEGMENT
__real@42c80000 DD 042c80000r			; 100
CONST	ENDS
;	COMDAT __real@42c76666
CONST	SEGMENT
__real@42c76666 DD 042c76666r			; 99.7
CONST	ENDS
;	COMDAT __real@42c70000
CONST	SEGMENT
__real@42c70000 DD 042c70000r			; 99.5
CONST	ENDS
;	COMDAT __real@41f00000
CONST	SEGMENT
__real@41f00000 DD 041f00000r			; 30
CONST	ENDS
;	COMDAT __real@41800000
CONST	SEGMENT
__real@41800000 DD 041800000r			; 16
CONST	ENDS
;	COMDAT __real@40a00000
CONST	SEGMENT
__real@40a00000 DD 040a00000r			; 5
CONST	ENDS
;	COMDAT __real@404e000000000000
CONST	SEGMENT
__real@404e000000000000 DQ 0404e000000000000r	; 60
CONST	ENDS
;	COMDAT __real@3f000000
CONST	SEGMENT
__real@3f000000 DD 03f000000r			; 0.5
CONST	ENDS
;	COMDAT __real@3e99999a
CONST	SEGMENT
__real@3e99999a DD 03e99999ar			; 0.3
CONST	ENDS
;	COMDAT ??_R4CPythonApplication@@6BIAbstractApplication@@@
rdata$r	SEGMENT
??_R4CPythonApplication@@6BIAbstractApplication@@@ DD 00H ; CPythonApplication::`RTTI Complete Object Locator'
	DD	020H
	DD	00H
	DD	FLAT:??_R0?AVCPythonApplication@@@8
	DD	FLAT:??_R3CPythonApplication@@8
rdata$r	ENDS
;	COMDAT ??_R4CPythonApplication@@6BCInputKeyboard@@@
rdata$r	SEGMENT
??_R4CPythonApplication@@6BCInputKeyboard@@@ DD 00H	; CPythonApplication::`RTTI Complete Object Locator'
	DD	01cH
	DD	00H
	DD	FLAT:??_R0?AVCPythonApplication@@@8
	DD	FLAT:??_R3CPythonApplication@@8
rdata$r	ENDS
;	COMDAT ??_R1CA@?0A@EA@?$TAbstractSingleton@VIAbstractApplication@@@@8
rdata$r	SEGMENT
??_R1CA@?0A@EA@?$TAbstractSingleton@VIAbstractApplication@@@@8 DD FLAT:??_R0?AV?$TAbstractSingleton@VIAbstractApplication@@@@@8 ; TAbstractSingleton<IAbstractApplication>::`RTTI Base Class Descriptor at (32,-1,0,64)'
	DD	00H
	DD	020H
	DD	0ffffffffH
	DD	00H
	DD	040H
	DD	FLAT:??_R3?$TAbstractSingleton@VIAbstractApplication@@@@8
rdata$r	ENDS
;	COMDAT ??_R1CA@?0A@EA@IAbstractApplication@@8
rdata$r	SEGMENT
??_R1CA@?0A@EA@IAbstractApplication@@8 DD FLAT:??_R0?AVIAbstractApplication@@@8 ; IAbstractApplication::`RTTI Base Class Descriptor at (32,-1,0,64)'
	DD	01H
	DD	020H
	DD	0ffffffffH
	DD	00H
	DD	040H
	DD	FLAT:??_R3IAbstractApplication@@8
rdata$r	ENDS
;	COMDAT ??_R1BM@?0A@EA@CInputDevice@@8
rdata$r	SEGMENT
??_R1BM@?0A@EA@CInputDevice@@8 DD FLAT:??_R0?AVCInputDevice@@@8 ; CInputDevice::`RTTI Base Class Descriptor at (28,-1,0,64)'
	DD	00H
	DD	01cH
	DD	0ffffffffH
	DD	00H
	DD	040H
	DD	FLAT:??_R3CInputDevice@@8
rdata$r	ENDS
;	COMDAT ??_R2CInputDevice@@8
rdata$r	SEGMENT
??_R2CInputDevice@@8 DD FLAT:??_R1A@?0A@EA@CInputDevice@@8 ; CInputDevice::`RTTI Base Class Array'
rdata$r	ENDS
;	COMDAT ??_R3CInputDevice@@8
rdata$r	SEGMENT
??_R3CInputDevice@@8 DD 00H				; CInputDevice::`RTTI Class Hierarchy Descriptor'
	DD	00H
	DD	01H
	DD	FLAT:??_R2CInputDevice@@8
rdata$r	ENDS
;	COMDAT ??_R0?AVCInputDevice@@@8
data$rs	SEGMENT
??_R0?AVCInputDevice@@@8 DD FLAT:??_7type_info@@6B@	; CInputDevice `RTTI Type Descriptor'
	DD	00H
	DB	'.?AVCInputDevice@@', 00H
data$rs	ENDS
;	COMDAT ??_R1A@?0A@EA@CInputDevice@@8
rdata$r	SEGMENT
??_R1A@?0A@EA@CInputDevice@@8 DD FLAT:??_R0?AVCInputDevice@@@8 ; CInputDevice::`RTTI Base Class Descriptor at (0,-1,0,64)'
	DD	00H
	DD	00H
	DD	0ffffffffH
	DD	00H
	DD	040H
	DD	FLAT:??_R3CInputDevice@@8
rdata$r	ENDS
;	COMDAT ??_R1A@?0A@EA@CInputKeyboard@@8
rdata$r	SEGMENT
??_R1A@?0A@EA@CInputKeyboard@@8 DD FLAT:??_R0?AVCInputKeyboard@@@8 ; CInputKeyboard::`RTTI Base Class Descriptor at (0,-1,0,64)'
	DD	01H
	DD	00H
	DD	0ffffffffH
	DD	00H
	DD	040H
	DD	FLAT:??_R3CInputKeyboard@@8
rdata$r	ENDS
;	COMDAT ??_R2CInputKeyboard@@8
rdata$r	SEGMENT
??_R2CInputKeyboard@@8 DD FLAT:??_R1A@?0A@EA@CInputKeyboard@@8 ; CInputKeyboard::`RTTI Base Class Array'
	DD	FLAT:??_R1A@?0A@EA@CInputDevice@@8
rdata$r	ENDS
;	COMDAT ??_R3CInputKeyboard@@8
rdata$r	SEGMENT
??_R3CInputKeyboard@@8 DD 00H				; CInputKeyboard::`RTTI Class Hierarchy Descriptor'
	DD	00H
	DD	02H
	DD	FLAT:??_R2CInputKeyboard@@8
rdata$r	ENDS
;	COMDAT ??_R0?AVCInputKeyboard@@@8
data$rs	SEGMENT
??_R0?AVCInputKeyboard@@@8 DD FLAT:??_7type_info@@6B@	; CInputKeyboard `RTTI Type Descriptor'
	DD	00H
	DB	'.?AVCInputKeyboard@@', 00H
data$rs	ENDS
;	COMDAT ??_R1BM@?0A@EA@CInputKeyboard@@8
rdata$r	SEGMENT
??_R1BM@?0A@EA@CInputKeyboard@@8 DD FLAT:??_R0?AVCInputKeyboard@@@8 ; CInputKeyboard::`RTTI Base Class Descriptor at (28,-1,0,64)'
	DD	01H
	DD	01cH
	DD	0ffffffffH
	DD	00H
	DD	040H
	DD	FLAT:??_R3CInputKeyboard@@8
rdata$r	ENDS
;	COMDAT ??_R2CMSWindow@@8
rdata$r	SEGMENT
??_R2CMSWindow@@8 DD FLAT:??_R1A@?0A@EA@CMSWindow@@8	; CMSWindow::`RTTI Base Class Array'
rdata$r	ENDS
;	COMDAT ??_R3CMSWindow@@8
rdata$r	SEGMENT
??_R3CMSWindow@@8 DD 00H				; CMSWindow::`RTTI Class Hierarchy Descriptor'
	DD	00H
	DD	01H
	DD	FLAT:??_R2CMSWindow@@8
rdata$r	ENDS
;	COMDAT ??_R0?AVCMSWindow@@@8
data$rs	SEGMENT
??_R0?AVCMSWindow@@@8 DD FLAT:??_7type_info@@6B@	; CMSWindow `RTTI Type Descriptor'
	DD	00H
	DB	'.?AVCMSWindow@@', 00H
data$rs	ENDS
;	COMDAT ??_R1A@?0A@EA@CMSWindow@@8
rdata$r	SEGMENT
??_R1A@?0A@EA@CMSWindow@@8 DD FLAT:??_R0?AVCMSWindow@@@8 ; CMSWindow::`RTTI Base Class Descriptor at (0,-1,0,64)'
	DD	00H
	DD	00H
	DD	0ffffffffH
	DD	00H
	DD	040H
	DD	FLAT:??_R3CMSWindow@@8
rdata$r	ENDS
;	COMDAT ??_R2CMSApplication@@8
rdata$r	SEGMENT
??_R2CMSApplication@@8 DD FLAT:??_R1A@?0A@EA@CMSApplication@@8 ; CMSApplication::`RTTI Base Class Array'
	DD	FLAT:??_R1A@?0A@EA@CMSWindow@@8
rdata$r	ENDS
;	COMDAT ??_R3CMSApplication@@8
rdata$r	SEGMENT
??_R3CMSApplication@@8 DD 00H				; CMSApplication::`RTTI Class Hierarchy Descriptor'
	DD	00H
	DD	02H
	DD	FLAT:??_R2CMSApplication@@8
rdata$r	ENDS
;	COMDAT ??_R0?AVCMSApplication@@@8
data$rs	SEGMENT
??_R0?AVCMSApplication@@@8 DD FLAT:??_7type_info@@6B@	; CMSApplication `RTTI Type Descriptor'
	DD	00H
	DB	'.?AVCMSApplication@@', 00H
data$rs	ENDS
;	COMDAT ??_R1A@?0A@EA@CMSApplication@@8
rdata$r	SEGMENT
??_R1A@?0A@EA@CMSApplication@@8 DD FLAT:??_R0?AVCMSApplication@@@8 ; CMSApplication::`RTTI Base Class Descriptor at (0,-1,0,64)'
	DD	01H
	DD	00H
	DD	0ffffffffH
	DD	00H
	DD	040H
	DD	FLAT:??_R3CMSApplication@@8
rdata$r	ENDS
;	COMDAT ??_R1A@?0A@EA@CPythonApplication@@8
rdata$r	SEGMENT
??_R1A@?0A@EA@CPythonApplication@@8 DD FLAT:??_R0?AVCPythonApplication@@@8 ; CPythonApplication::`RTTI Base Class Descriptor at (0,-1,0,64)'
	DD	06H
	DD	00H
	DD	0ffffffffH
	DD	00H
	DD	040H
	DD	FLAT:??_R3CPythonApplication@@8
rdata$r	ENDS
;	COMDAT ??_R2CPythonApplication@@8
rdata$r	SEGMENT
??_R2CPythonApplication@@8 DD FLAT:??_R1A@?0A@EA@CPythonApplication@@8 ; CPythonApplication::`RTTI Base Class Array'
	DD	FLAT:??_R1A@?0A@EA@CMSApplication@@8
	DD	FLAT:??_R1A@?0A@EA@CMSWindow@@8
	DD	FLAT:??_R1BM@?0A@EA@CInputKeyboard@@8
	DD	FLAT:??_R1BM@?0A@EA@CInputDevice@@8
	DD	FLAT:??_R1CA@?0A@EA@IAbstractApplication@@8
	DD	FLAT:??_R1CA@?0A@EA@?$TAbstractSingleton@VIAbstractApplication@@@@8
rdata$r	ENDS
;	COMDAT ??_R3CPythonApplication@@8
rdata$r	SEGMENT
??_R3CPythonApplication@@8 DD 00H			; CPythonApplication::`RTTI Class Hierarchy Descriptor'
	DD	01H
	DD	07H
	DD	FLAT:??_R2CPythonApplication@@8
rdata$r	ENDS
;	COMDAT ??_R0?AVCPythonApplication@@@8
data$rs	SEGMENT
??_R0?AVCPythonApplication@@@8 DD FLAT:??_7type_info@@6B@ ; CPythonApplication `RTTI Type Descriptor'
	DD	00H
	DB	'.?AVCPythonApplication@@', 00H
data$rs	ENDS
;	COMDAT ??_R4CPythonApplication@@6BCMSApplication@@@
rdata$r	SEGMENT
??_R4CPythonApplication@@6BCMSApplication@@@ DD 00H	; CPythonApplication::`RTTI Complete Object Locator'
	DD	00H
	DD	00H
	DD	FLAT:??_R0?AVCPythonApplication@@@8
	DD	FLAT:??_R3CPythonApplication@@8
rdata$r	ENDS
;	COMDAT ??_R4?$CSingleton@VCMovieMan@@@@6B@
rdata$r	SEGMENT
??_R4?$CSingleton@VCMovieMan@@@@6B@ DD 00H		; CSingleton<CMovieMan>::`RTTI Complete Object Locator'
	DD	00H
	DD	00H
	DD	FLAT:??_R0?AV?$CSingleton@VCMovieMan@@@@@8
	DD	FLAT:??_R3?$CSingleton@VCMovieMan@@@@8
rdata$r	ENDS
;	COMDAT ??_R2?$CSingleton@VCMovieMan@@@@8
rdata$r	SEGMENT
??_R2?$CSingleton@VCMovieMan@@@@8 DD FLAT:??_R1A@?0A@EA@?$CSingleton@VCMovieMan@@@@8 ; CSingleton<CMovieMan>::`RTTI Base Class Array'
rdata$r	ENDS
;	COMDAT ??_R3?$CSingleton@VCMovieMan@@@@8
rdata$r	SEGMENT
??_R3?$CSingleton@VCMovieMan@@@@8 DD 00H		; CSingleton<CMovieMan>::`RTTI Class Hierarchy Descriptor'
	DD	00H
	DD	01H
	DD	FLAT:??_R2?$CSingleton@VCMovieMan@@@@8
rdata$r	ENDS
;	COMDAT ??_R0?AV?$CSingleton@VCMovieMan@@@@@8
data$rs	SEGMENT
??_R0?AV?$CSingleton@VCMovieMan@@@@@8 DD FLAT:??_7type_info@@6B@ ; CSingleton<CMovieMan> `RTTI Type Descriptor'
	DD	00H
	DB	'.?AV?$CSingleton@VCMovieMan@@@@', 00H
data$rs	ENDS
;	COMDAT ??_R1A@?0A@EA@?$CSingleton@VCMovieMan@@@@8
rdata$r	SEGMENT
??_R1A@?0A@EA@?$CSingleton@VCMovieMan@@@@8 DD FLAT:??_R0?AV?$CSingleton@VCMovieMan@@@@@8 ; CSingleton<CMovieMan>::`RTTI Base Class Descriptor at (0,-1,0,64)'
	DD	00H
	DD	00H
	DD	0ffffffffH
	DD	00H
	DD	040H
	DD	FLAT:??_R3?$CSingleton@VCMovieMan@@@@8
rdata$r	ENDS
;	COMDAT ??_R1A@?0A@EA@CMovieMan@@8
rdata$r	SEGMENT
??_R1A@?0A@EA@CMovieMan@@8 DD FLAT:??_R0?AVCMovieMan@@@8 ; CMovieMan::`RTTI Base Class Descriptor at (0,-1,0,64)'
	DD	01H
	DD	00H
	DD	0ffffffffH
	DD	00H
	DD	040H
	DD	FLAT:??_R3CMovieMan@@8
rdata$r	ENDS
;	COMDAT ??_R2CMovieMan@@8
rdata$r	SEGMENT
??_R2CMovieMan@@8 DD FLAT:??_R1A@?0A@EA@CMovieMan@@8	; CMovieMan::`RTTI Base Class Array'
	DD	FLAT:??_R1A@?0A@EA@?$CSingleton@VCMovieMan@@@@8
rdata$r	ENDS
;	COMDAT ??_R3CMovieMan@@8
rdata$r	SEGMENT
??_R3CMovieMan@@8 DD 00H				; CMovieMan::`RTTI Class Hierarchy Descriptor'
	DD	00H
	DD	02H
	DD	FLAT:??_R2CMovieMan@@8
rdata$r	ENDS
;	COMDAT ??_R0?AVCMovieMan@@@8
data$rs	SEGMENT
??_R0?AVCMovieMan@@@8 DD FLAT:??_7type_info@@6B@	; CMovieMan `RTTI Type Descriptor'
	DD	00H
	DB	'.?AVCMovieMan@@', 00H
data$rs	ENDS
;	COMDAT ??_R4CMovieMan@@6B@
rdata$r	SEGMENT
??_R4CMovieMan@@6B@ DD 00H				; CMovieMan::`RTTI Complete Object Locator'
	DD	00H
	DD	00H
	DD	FLAT:??_R0?AVCMovieMan@@@8
	DD	FLAT:??_R3CMovieMan@@8
rdata$r	ENDS
;	COMDAT ??_R4?$TAbstractSingleton@VIAbstractApplication@@@@6B@
rdata$r	SEGMENT
??_R4?$TAbstractSingleton@VIAbstractApplication@@@@6B@ DD 00H ; TAbstractSingleton<IAbstractApplication>::`RTTI Complete Object Locator'
	DD	00H
	DD	00H
	DD	FLAT:??_R0?AV?$TAbstractSingleton@VIAbstractApplication@@@@@8
	DD	FLAT:??_R3?$TAbstractSingleton@VIAbstractApplication@@@@8
rdata$r	ENDS
;	COMDAT ??_R2?$TAbstractSingleton@VIAbstractApplication@@@@8
rdata$r	SEGMENT
??_R2?$TAbstractSingleton@VIAbstractApplication@@@@8 DD FLAT:??_R1A@?0A@EA@?$TAbstractSingleton@VIAbstractApplication@@@@8 ; TAbstractSingleton<IAbstractApplication>::`RTTI Base Class Array'
rdata$r	ENDS
;	COMDAT ??_R3?$TAbstractSingleton@VIAbstractApplication@@@@8
rdata$r	SEGMENT
??_R3?$TAbstractSingleton@VIAbstractApplication@@@@8 DD 00H ; TAbstractSingleton<IAbstractApplication>::`RTTI Class Hierarchy Descriptor'
	DD	00H
	DD	01H
	DD	FLAT:??_R2?$TAbstractSingleton@VIAbstractApplication@@@@8
rdata$r	ENDS
;	COMDAT ??_R0?AV?$TAbstractSingleton@VIAbstractApplication@@@@@8
data$rs	SEGMENT
??_R0?AV?$TAbstractSingleton@VIAbstractApplication@@@@@8 DD FLAT:??_7type_info@@6B@ ; TAbstractSingleton<IAbstractApplication> `RTTI Type Descriptor'
	DD	00H
	DB	'.?AV?$TAbstractSingleton@VIAbstractApplication@@@@', 00H
data$rs	ENDS
;	COMDAT ??_R1A@?0A@EA@?$TAbstractSingleton@VIAbstractApplication@@@@8
rdata$r	SEGMENT
??_R1A@?0A@EA@?$TAbstractSingleton@VIAbstractApplication@@@@8 DD FLAT:??_R0?AV?$TAbstractSingleton@VIAbstractApplication@@@@@8 ; TAbstractSingleton<IAbstractApplication>::`RTTI Base Class Descriptor at (0,-1,0,64)'
	DD	00H
	DD	00H
	DD	0ffffffffH
	DD	00H
	DD	040H
	DD	FLAT:??_R3?$TAbstractSingleton@VIAbstractApplication@@@@8
rdata$r	ENDS
;	COMDAT ??_R1A@?0A@EA@IAbstractApplication@@8
rdata$r	SEGMENT
??_R1A@?0A@EA@IAbstractApplication@@8 DD FLAT:??_R0?AVIAbstractApplication@@@8 ; IAbstractApplication::`RTTI Base Class Descriptor at (0,-1,0,64)'
	DD	01H
	DD	00H
	DD	0ffffffffH
	DD	00H
	DD	040H
	DD	FLAT:??_R3IAbstractApplication@@8
rdata$r	ENDS
;	COMDAT ??_R2IAbstractApplication@@8
rdata$r	SEGMENT
??_R2IAbstractApplication@@8 DD FLAT:??_R1A@?0A@EA@IAbstractApplication@@8 ; IAbstractApplication::`RTTI Base Class Array'
	DD	FLAT:??_R1A@?0A@EA@?$TAbstractSingleton@VIAbstractApplication@@@@8
rdata$r	ENDS
;	COMDAT ??_R3IAbstractApplication@@8
rdata$r	SEGMENT
??_R3IAbstractApplication@@8 DD 00H			; IAbstractApplication::`RTTI Class Hierarchy Descriptor'
	DD	00H
	DD	02H
	DD	FLAT:??_R2IAbstractApplication@@8
rdata$r	ENDS
;	COMDAT ??_R0?AVIAbstractApplication@@@8
data$rs	SEGMENT
??_R0?AVIAbstractApplication@@@8 DD FLAT:??_7type_info@@6B@ ; IAbstractApplication `RTTI Type Descriptor'
	DD	00H
	DB	'.?AVIAbstractApplication@@', 00H
data$rs	ENDS
;	COMDAT ??_R4IAbstractApplication@@6B@
rdata$r	SEGMENT
??_R4IAbstractApplication@@6B@ DD 00H			; IAbstractApplication::`RTTI Complete Object Locator'
	DD	00H
	DD	00H
	DD	FLAT:??_R0?AVIAbstractApplication@@@8
	DD	FLAT:??_R3IAbstractApplication@@8
rdata$r	ENDS
;	COMDAT ??_C@_0CF@CBFEMJII@d?3?1ymir?5work?1special?1spheremap0@
CONST	SEGMENT
??_C@_0CF@CBFEMJII@d?3?1ymir?5work?1special?1spheremap0@ DB 'd:/ymir work'
	DB	'/special/spheremap01.jpg', 00H		; `string'
CONST	ENDS
;	COMDAT ??_C@_0CD@KIIBIHOG@d?3?1ymir?5work?1special?1spheremap?4@
CONST	SEGMENT
??_C@_0CD@KIIBIHOG@d?3?1ymir?5work?1special?1spheremap?4@ DB 'd:/ymir wor'
	DB	'k/special/spheremap.jpg', 00H		; `string'
CONST	ENDS
;	COMDAT ??_C@_0BB@EJLMKODK@?$CCCREATE_NETWORK?$CC@
CONST	SEGMENT
??_C@_0BB@EJLMKODK@?$CCCREATE_NETWORK?$CC@ DB '"CREATE_NETWORK"', 00H ; `string'
CONST	ENDS
;	COMDAT ??_C@_0BJ@CJEBNOLC@NetDevice?3?3Create?5failed@
CONST	SEGMENT
??_C@_0BJ@CJEBNOLC@NetDevice?3?3Create?5failed@ DB 'NetDevice::Create fai'
	DB	'led', 00H					; `string'
CONST	ENDS
;	COMDAT ??_C@_0BA@GLLECKCO@?$CCCREATE_CURSOR?$CC@
CONST	SEGMENT
??_C@_0BA@GLLECKCO@?$CCCREATE_CURSOR?$CC@ DB '"CREATE_CURSOR"', 00H ; `string'
CONST	ENDS
;	COMDAT ??_C@_0CA@FFOMJBHN@CMSWindow?3?3Cursors?5Create?5Error@
CONST	SEGMENT
??_C@_0CA@FFOMJBHN@CMSWindow?3?3Cursors?5Create?5Error@ DB 'CMSWindow::Cu'
	DB	'rsors Create Error', 00H			; `string'
CONST	ENDS
;	COMDAT ??_C@_0O@NOBMPFEG@CREATE_WINDOW@
CONST	SEGMENT
??_C@_0O@NOBMPFEG@CREATE_WINDOW@ DB 'CREATE_WINDOW', 00H ; `string'
CONST	ENDS
;	COMDAT ??_C@_0BJ@DBNNLGNG@CMSWindow?3?3Create?5failed@
CONST	SEGMENT
??_C@_0BJ@DBNNLGNG@CMSWindow?3?3Create?5failed@ DB 'CMSWindow::Create fai'
	DB	'led', 00H					; `string'
CONST	ENDS
;	COMDAT ??_C@_0EI@FFMLHANM@LoadLocaleData?5?9?5CPythonNetwork@
CONST	SEGMENT
??_C@_0EI@FFMLHANM@LoadLocaleData?5?9?5CPythonNetwork@ DB 'LoadLocaleData'
	DB	' - CPythonNetworkStream::LoadConvertTable(%d, %s) FAILURE', 00H ; `string'
CONST	ENDS
;	COMDAT ??_C@_0O@GCNBGGIE@?$CFs?1lang?$CFd?4cvt@
CONST	SEGMENT
??_C@_0O@GCNBGGIE@?$CFs?1lang?$CFd?4cvt@ DB '%s/lang%d.cvt', 00H ; `string'
CONST	ENDS
;	COMDAT ??_C@_0DO@PNDPPMDH@CPythonApplication?5?9?5CPythonNet@
CONST	SEGMENT
??_C@_0DO@PNDPPMDH@CPythonApplication?5?9?5CPythonNet@ DB 'CPythonApplica'
	DB	'tion - CPythonNetworkStream::LoadInsultList(%s)', 00H ; `string'
CONST	ENDS
;	COMDAT ??_C@_0CO@HCDPLHIO@LoadLocaleData?5?9?5RegisterSkillT@
CONST	SEGMENT
??_C@_0CO@HCDPLHIO@LoadLocaleData?5?9?5RegisterSkillT@ DB 'LoadLocaleData'
	DB	' - RegisterSkillTable(%s) Error', 00H	; `string'
CONST	ENDS
;	COMDAT ??_C@_0CN@NIKOAAJF@LoadLocaleData?5?9?5RegisterSkillD@
CONST	SEGMENT
??_C@_0CN@NIKOAAJF@LoadLocaleData?5?9?5RegisterSkillD@ DB 'LoadLocaleData'
	DB	' - RegisterSkillDesc(%s) Error', 00H	; `string'
CONST	ENDS
;	COMDAT ??_C@_0CI@PNCAMHEJ@LoadLocaleData?5?9?5LoadMobProto?$CI?$CF@
CONST	SEGMENT
??_C@_0CI@PNCAMHEJ@LoadLocaleData?5?9?5LoadMobProto?$CI?$CF@ DB 'LoadLoca'
	DB	'leData - LoadMobProto(%s) Error', 00H	; `string'
CONST	ENDS
;	COMDAT ??_C@_0CI@FLOPHKEN@LoadLocaleData?5?9?5LoadItemDesc?$CI?$CF@
CONST	SEGMENT
??_C@_0CI@FLOPHKEN@LoadLocaleData?5?9?5LoadItemDesc?$CI?$CF@ DB 'LoadLoca'
	DB	'leData - LoadItemDesc(%s) Error', 00H	; `string'
CONST	ENDS
;	COMDAT ??_C@_0CJ@MIFDPICO@LoadLocaleData?5?9?5LoadItemProto?$CI@
CONST	SEGMENT
??_C@_0CJ@MIFDPICO@LoadLocaleData?5?9?5LoadItemProto?$CI@ DB 'LoadLocaleD'
	DB	'ata - LoadItemProto(%s) Error', 00H		; `string'
CONST	ENDS
;	COMDAT ??_C@_0CI@MGBDCDJE@LoadLocaleData?5?9?5LoadItemList?$CI?$CF@
CONST	SEGMENT
??_C@_0CI@MGBDCDJE@LoadLocaleData?5?9?5LoadItemList?$CI?$CF@ DB 'LoadLoca'
	DB	'leData - LoadItemList(%s) Error', 00H	; `string'
CONST	ENDS
;	COMDAT ??_C@_0O@JEIJHCCG@?$CFs?1insult?4txt@
CONST	SEGMENT
??_C@_0O@JEIJHCCG@?$CFs?1insult?4txt@ DB '%s/insult.txt', 00H ; `string'
CONST	ENDS
;	COMDAT ??_C@_0BC@NLEJCAEF@?$CFs?1SkillTable?4txt@
CONST	SEGMENT
??_C@_0BC@NLEJCAEF@?$CFs?1SkillTable?4txt@ DB '%s/SkillTable.txt', 00H ; `string'
CONST	ENDS
;	COMDAT ??_C@_0BB@JDMIHPNN@?$CFs?1SkillDesc?4txt@
CONST	SEGMENT
??_C@_0BB@JDMIHPNN@?$CFs?1SkillDesc?4txt@ DB '%s/SkillDesc.txt', 00H ; `string'
CONST	ENDS
;	COMDAT ??_C@_0N@KCBCHIHM@?$CFs?1mob_proto@
CONST	SEGMENT
??_C@_0N@KCBCHIHM@?$CFs?1mob_proto@ DB '%s/mob_proto', 00H ; `string'
CONST	ENDS
;	COMDAT ??_C@_0BA@BIDKFLDM@?$CFs?1itemdesc?4txt@
CONST	SEGMENT
??_C@_0BA@BIDKFLDM@?$CFs?1itemdesc?4txt@ DB '%s/itemdesc.txt', 00H ; `string'
CONST	ENDS
;	COMDAT ??_C@_0O@MEMEPBB@?$CFs?1item_proto@
CONST	SEGMENT
??_C@_0O@MEMEPBB@?$CFs?1item_proto@ DB '%s/item_proto', 00H ; `string'
CONST	ENDS
;	COMDAT ??_C@_0BB@EOELDOLA@?$CFs?1item_list?4txt@
CONST	SEGMENT
??_C@_0BB@EOELDOLA@?$CFs?1item_list?4txt@ DB '%s/item_list.txt', 00H ; `string'
CONST	ENDS
;	COMDAT ??_C@_0BN@JAHEKIGK@CreateDevice?3?5Unknown?5Error?$CB@
CONST	SEGMENT
??_C@_0BN@JAHEKIGK@CreateDevice?3?5Unknown?5Error?$CB@ DB 'CreateDevice: '
	DB	'Unknown Error!', 00H			; `string'
CONST	ENDS
;	COMDAT ??_C@_0O@BAEJJDKB@UNKNOWN_ERROR@
CONST	SEGMENT
??_C@_0O@BAEJJDKB@UNKNOWN_ERROR@ DB 'UNKNOWN_ERROR', 00H ; `string'
CONST	ENDS
;	COMDAT ??_C@_0CB@JLAAEKGJ@CreateDevice?3?5GetDevCaps2?5faile@
CONST	SEGMENT
??_C@_0CB@JLAAEKGJ@CreateDevice?3?5GetDevCaps2?5faile@ DB 'CreateDevice: '
	DB	'GetDevCaps2 failed', 00H			; `string'
CONST	ENDS
;	COMDAT ??_C@_0BD@IHNLMMLJ@GetDevCaps2?5failed@
CONST	SEGMENT
??_C@_0BD@IHNLMMLJ@GetDevCaps2?5failed@ DB 'GetDevCaps2 failed', 00H ; `string'
CONST	ENDS
;	COMDAT ??_C@_0CA@DLHDILBB@CreateDevice?3?5GetDevCaps?5failed@
CONST	SEGMENT
??_C@_0CA@DLHDILBB@CreateDevice?3?5GetDevCaps?5failed@ DB 'CreateDevice: '
	DB	'GetDevCaps failed', 00H			; `string'
CONST	ENDS
;	COMDAT ??_C@_0BC@IMJEDJEA@GetDevCaps?5failed@
CONST	SEGMENT
??_C@_0BC@IMJEDJEA@GetDevCaps?5failed@ DB 'GetDevCaps failed', 00H ; `string'
CONST	ENDS
;	COMDAT ??_C@_0CH@DEBFNBPL@CreateDevice?3?5Change?5the?5screen@
CONST	SEGMENT
??_C@_0CH@DEBFNBPL@CreateDevice?3?5Change?5the?5screen@ DB 'CreateDevice:'
	DB	' Change the screen format', 00H		; `string'
CONST	ENDS
;	COMDAT ??_C@_0O@DAEHMKOB@CREATE_FORMAT@
CONST	SEGMENT
??_C@_0O@DAEHMKOB@CREATE_FORMAT@ DB 'CREATE_FORMAT', 00H ; `string'
CONST	ENDS
;	COMDAT ??_C@_0CK@KMPBIDGP@CreateDevice?3?5GraphicDevice?5cre@
CONST	SEGMENT
??_C@_0CK@KMPBIDGP@CreateDevice?3?5GraphicDevice?5cre@ DB 'CreateDevice: '
	DB	'GraphicDevice create failed', 00H		; `string'
CONST	ENDS
;	COMDAT ??_C@_0O@CMPMDOEH@CREATE_DEVICE@
CONST	SEGMENT
??_C@_0O@CMPMDOEH@CREATE_DEVICE@ DB 'CREATE_DEVICE', 00H ; `string'
CONST	ENDS
;	COMDAT ??_C@_0DK@GACPAJMM@CreateDevice?3?5DirectX?58?41?5or?5gr@
CONST	SEGMENT
??_C@_0DK@GACPAJMM@CreateDevice?3?5DirectX?58?41?5or?5gr@ DB 'CreateDevic'
	DB	'e: DirectX 8.1 or greater required to run game', 00H ; `string'
CONST	ENDS
;	COMDAT ??_C@_0BC@NKAKBNDM@CREATE_NO_DIRECTX@
CONST	SEGMENT
??_C@_0BC@NKAKBNDM@CREATE_NO_DIRECTX@ DB 'CREATE_NO_DIRECTX', 00H ; `string'
CONST	ENDS
;	COMDAT ??_C@_0CD@GGLEAAKE@CreateDevice?3?5Enum?5?$CG?5Detect?5fai@
CONST	SEGMENT
??_C@_0CD@GGLEAAKE@CreateDevice?3?5Enum?5?$CG?5Detect?5fai@ DB 'CreateDev'
	DB	'ice: Enum & Detect failed', 00H		; `string'
CONST	ENDS
;	COMDAT ??_C@_0BN@OAKBEJJN@CREATE_NO_APPROPRIATE_DEVICE@
CONST	SEGMENT
??_C@_0BN@OAKBEJJN@CREATE_NO_APPROPRIATE_DEVICE@ DB 'CREATE_NO_APPROPRIAT'
	DB	'E_DEVICE', 00H				; `string'
CONST	ENDS
;	COMDAT ??_C@_0M@MOGGPFAH@WARN_NO_TNL@
CONST	SEGMENT
??_C@_0M@MOGGPFAH@WARN_NO_TNL@ DB 'WARN_NO_TNL', 00H	; `string'
CONST	ENDS
;	COMDAT ??_C@_0BA@NOHKOOIE@WARN_BAD_DRIVER@
CONST	SEGMENT
??_C@_0BA@NOHKOOIE@WARN_BAD_DRIVER@ DB 'WARN_BAD_DRIVER', 00H ; `string'
CONST	ENDS
;	COMDAT ??_C@_0BD@OJBILBDC@FrameSkip?5?$LK?$LI?A?$KE?5?$CFd?6@
CONST	SEGMENT
??_C@_0BD@OJBILBDC@FrameSkip?5?$LK?$LI?A?$KE?5?$CFd?6@ DB 'FrameSkip ', 0baH
	DB	0b8H, 0c1H, 0a4H, ' %d', 0aH, 00H		; `string'
CONST	ENDS
;	COMDAT ?s_fAveRenderTime@?EL@??Process@CPythonApplication@@QAE_NXZ@4MA
_DATA	SEGMENT
?s_fAveRenderTime@?EL@??Process@CPythonApplication@@QAE_NXZ@4MA DD 041800000r ; 16 ; `CPythonApplication::Process'::`75'::s_fAveRenderTime
_DATA	ENDS
;	COMDAT ??_C@_0L@PAGGCBDD@GU?4POS?5?$CFd?6@
CONST	SEGMENT
??_C@_0L@PAGGCBDD@GU?4POS?5?$CFd?6@ DB 'GU.POS %d', 0aH, 00H ; `string'
CONST	ENDS
;	COMDAT ??_C@_0L@KNCOIAL@GU?4PLR?5?$CFd?6@
CONST	SEGMENT
??_C@_0L@KNCOIAL@GU?4PLR?5?$CFd?6@ DB 'GU.PLR %d', 0aH, 00H ; `string'
CONST	ENDS
;	COMDAT ??_C@_0L@MPJHKAOM@GU?4ITM?5?$CFd?6@
CONST	SEGMENT
??_C@_0L@MPJHKAOM@GU?4ITM?5?$CFd?6@ DB 'GU.ITM %d', 0aH, 00H ; `string'
CONST	ENDS
;	COMDAT ??_C@_0L@NKMBCAGE@GU?4FLY?5?$CFd?6@
CONST	SEGMENT
??_C@_0L@NKMBCAGE@GU?4FLY?5?$CFd?6@ DB 'GU.FLY %d', 0aH, 00H ; `string'
CONST	ENDS
;	COMDAT ??_C@_0L@EMKAGLBH@GU?4EFT?5?$CFd?6@
CONST	SEGMENT
??_C@_0L@EMKAGLBH@GU?4EFT?5?$CFd?6@ DB 'GU.EFT %d', 0aH, 00H ; `string'
CONST	ENDS
;	COMDAT ??_C@_0L@MKJPKNA@GU?4CHR?5?$CFd?6@
CONST	SEGMENT
??_C@_0L@MKJPKNA@GU?4CHR?5?$CFd?6@ DB 'GU.CHR %d', 0aH, 00H ; `string'
CONST	ENDS
;	COMDAT ??_C@_0L@BLLECFKE@GU?4GEM?5?$CFd?6@
CONST	SEGMENT
??_C@_0L@BLLECFKE@GU?4GEM?5?$CFd?6@ DB 'GU.GEM %d', 0aH, 00H ; `string'
CONST	ENDS
;	COMDAT ??_C@_09JGPPFKPH@GU?4BG?5?$CFd?6@
CONST	SEGMENT
??_C@_09JGPPFKPH@GU?4BG?5?$CFd?6@ DB 'GU.BG %d', 0aH, 00H ; `string'
CONST	ENDS
;	COMDAT ??_C@_0L@IGEOOJOO@GU?4MPS?5?$CFd?6@
CONST	SEGMENT
??_C@_0L@IGEOOJOO@GU?4MPS?5?$CFd?6@ DB 'GU.MPS %d', 0aH, 00H ; `string'
CONST	ENDS
;	COMDAT ??_C@_0L@HCBFJPAB@GU?4SCR?5?$CFd?6@
CONST	SEGMENT
??_C@_0L@HCBFJPAB@GU?4SCR?5?$CFd?6@ DB 'GU.SCR %d', 0aH, 00H ; `string'
CONST	ENDS
;	COMDAT ??_C@_0L@JHBDHKIG@GU?4GMP?5?$CFd?6@
CONST	SEGMENT
??_C@_0L@JHBDHKIG@GU?4GMP?5?$CFd?6@ DB 'GU.GMP %d', 0aH, 00H ; `string'
CONST	ENDS
;	COMDAT ??_C@_0BH@HPIDKEA@GU?4Total?5?$CFd?5?$CITime?5?$CFd?$CJ?6@
CONST	SEGMENT
??_C@_0BH@HPIDKEA@GU?4Total?5?$CFd?5?$CITime?5?$CFd?$CJ?6@ DB 'GU.Total %'
	DB	'd (Time %d)', 0aH, 00H			; `string'
CONST	ENDS
;	COMDAT ??_C@_0BF@NHIIGIH@perf_game_update?4txt@
CONST	SEGMENT
??_C@_0BF@NHIIGIH@perf_game_update?4txt@ DB 'perf_game_update.txt', 00H ; `string'
CONST	ENDS
;	COMDAT ??_C@_0O@EEAHGPFP@GR?4BG?4BLK?5?$CFd?6@
CONST	SEGMENT
??_C@_0O@EEAHGPFP@GR?4BG?4BLK?5?$CFd?6@ DB 'GR.BG.BLK %d', 0aH, 00H ; `string'
CONST	ENDS
;	COMDAT ??_C@_0L@DIBNDLBN@GR?4FLY?5?$CFd?6@
CONST	SEGMENT
??_C@_0L@DIBNDLBN@GR?4FLY?5?$CFd?6@ DB 'GR.FLY %d', 0aH, 00H ; `string'
CONST	ENDS
;	COMDAT ??_C@_0L@CNELLLJF@GR?4ITM?5?$CFd?6@
CONST	SEGMENT
??_C@_0L@CNELLLJF@GR?4ITM?5?$CFd?6@ DB 'GR.ITM %d', 0aH, 00H ; `string'
CONST	ENDS
;	COMDAT ??_C@_0L@KOHMHAGO@GR?4EFT?5?$CFd?6@
CONST	SEGMENT
??_C@_0L@KOHMHAGO@GR?4EFT?5?$CFd?6@ DB 'GR.EFT %d', 0aH, 00H ; `string'
CONST	ENDS
;	COMDAT ??_C@_0O@BIDCIJEG@GR?4BG?4EFT?5?$CFd?6@
CONST	SEGMENT
??_C@_0O@BIDCIJEG@GR?4BG?4EFT?5?$CFd?6@ DB 'GR.BG.EFT %d', 0aH, 00H ; `string'
CONST	ENDS
;	COMDAT ??_C@_0O@LENBOK@GR?4BG?4WTR?5?$CFd?6@
CONST	SEGMENT
??_C@_0O@LENBOK@GR?4BG?4WTR?5?$CFd?6@ DB 'GR.BG.WTR %d', 0aH, 00H ; `string'
CONST	ENDS
;	COMDAT ??_C@_0L@OOHFOBKJ@GR?4CHR?5?$CFd?6@
CONST	SEGMENT
??_C@_0L@OOHFOBKJ@GR?4CHR?5?$CFd?6@ DB 'GR.CHR %d', 0aH, 00H ; `string'
CONST	ENDS
;	COMDAT ??_C@_0P@EJKDFAIB@GR?4BG?4MAIN?5?$CFd?6@
CONST	SEGMENT
??_C@_0P@EJKDFAIB@GR?4BG?4MAIN?5?$CFd?6@ DB 'GR.BG.MAIN %d', 0aH, 00H ; `string'
CONST	ENDS
;	COMDAT ??_C@_0O@HJPLNNBE@GR?4BG?4CLD?5?$CFd?6@
CONST	SEGMENT
??_C@_0O@HJPLNNBE@GR?4BG?4CLD?5?$CFd?6@ DB 'GR.BG.CLD %d', 0aH, 00H ; `string'
CONST	ENDS
;	COMDAT ??_C@_0O@JENIKJAN@GR?4BG?4LEN?5?$CFd?6@
CONST	SEGMENT
??_C@_0O@JENIKJAN@GR?4BG?4LEN?5?$CFd?6@ DB 'GR.BG.LEN %d', 0aH, 00H ; `string'
CONST	ENDS
;	COMDAT ??_C@_0O@HPKPMDPE@GR?4BG?4SKY?5?$CFd?6@
CONST	SEGMENT
??_C@_0O@HPKPMDPE@GR?4BG?4SKY?5?$CFd?6@ DB 'GR.BG.SKY %d', 0aH, 00H ; `string'
CONST	ENDS
;	COMDAT ??_C@_0L@CDOGKGFB@GR?4CLL?5?$CFd?6@
CONST	SEGMENT
??_C@_0L@CDOGKGFB@GR?4CLL?5?$CFd?6@ DB 'GR.CLL %d', 0aH, 00H ; `string'
CONST	ENDS
;	COMDAT ??_C@_0L@OEOJMFCF@GR?4STT?5?$CFd?6@
CONST	SEGMENT
??_C@_0L@OEOJMFCF@GR?4STT?5?$CFd?6@ DB 'GR.STT %d', 0aH, 00H ; `string'
CONST	ENDS
;	COMDAT ??_C@_0L@MCADEBDB@GR?4SHW?5?$CFd?6@
CONST	SEGMENT
??_C@_0L@MCADEBDB@GR?4SHW?5?$CFd?6@ DB 'GR.SHW %d', 0aH, 00H ; `string'
CONST	ENDS
;	COMDAT ??_C@_0O@PLGAMGBI@GR?4EFT?4UP?5?$CFd?6@
CONST	SEGMENT
??_C@_0O@PLGAMGBI@GR?4EFT?4UP?5?$CFd?6@ DB 'GR.EFT.UP %d', 0aH, 00H ; `string'
CONST	ENDS
;	COMDAT ??_C@_0L@EGAPCDKD@GR?4DFM?5?$CFd?6@
CONST	SEGMENT
??_C@_0L@EGAPCDKD@GR?4DFM?5?$CFd?6@ DB 'GR.DFM %d', 0aH, 00H ; `string'
CONST	ENDS
;	COMDAT ??_C@_0BH@GCCBAEAA@GR?4Total?5?$CFd?5?$CITime?5?$CFd?$CJ?6@
CONST	SEGMENT
??_C@_0BH@GCCBAEAA@GR?4Total?5?$CFd?5?$CITime?5?$CFd?$CJ?6@ DB 'GR.Total '
	DB	'%d (Time %d)', 0aH, 00H			; `string'
CONST	ENDS
;	COMDAT ??_C@_0BF@OHHAPIAL@perf_game_render?4txt@
CONST	SEGMENT
??_C@_0BF@OHHAPIAL@perf_game_render?4txt@ DB 'perf_game_render.txt', 00H ; `string'
CONST	ENDS
;	COMDAT ??_C@_01NOFIACDB@w@
CONST	SEGMENT
??_C@_01NOFIACDB@w@ DB 'w', 00H				; `string'
CONST	ENDS
;	COMDAT ??_C@_0M@EHJKIBDK@Abort?$CB?$CB?$CB?$CB?6?6@
CONST	SEGMENT
??_C@_0M@EHJKIBDK@Abort?$CB?$CB?$CB?$CB?6?6@ DB 'Abort!!!!', 0aH, 0aH, 00H ; `string'
CONST	ENDS
;	COMDAT ??_C@_0GN@LLBDNFAM@?$DN?$DN?$DN?$DN?$DN?$DN?$DN?$DN?$DN?$DN?$DN?$DN?$DN?$DN?$DN?$DN?$DN?$DN?$DN?$DN?$DN?$DN?$DN?$DN?$DN?$DN?$DN?$DN?$DN?$DN?$DN@
CONST	SEGMENT
??_C@_0GN@LLBDNFAM@?$DN?$DN?$DN?$DN?$DN?$DN?$DN?$DN?$DN?$DN?$DN?$DN?$DN?$DN?$DN?$DN?$DN?$DN?$DN?$DN?$DN?$DN?$DN?$DN?$DN?$DN?$DN?$DN?$DN?$DN?$DN@ DB '='
	DB	'============================================================='
	DB	'==============================================', 00H ; `string'
CONST	ENDS
;	COMDAT ??_7CPythonApplication@@6BIAbstractApplication@@@
CONST	SEGMENT
??_7CPythonApplication@@6BIAbstractApplication@@@ DD FLAT:??_R4CPythonApplication@@6BIAbstractApplication@@@ ; CPythonApplication::`vftable'
	DD	FLAT:??_ECPythonApplication@@WCA@AEPAXI@Z
	DD	FLAT:?GetMousePosition@CPythonApplication@@UAEXPAUtagPOINT@@@Z
	DD	FLAT:?GetGlobalTime@CPythonApplication@@UAEMXZ
	DD	FLAT:?GetGlobalElapsedTime@CPythonApplication@@UAEMXZ
	DD	FLAT:?SkipRenderBuffering@CPythonApplication@@UAEXK@Z
	DD	FLAT:?SetServerTime@CPythonApplication@@UAEXJ@Z
	DD	FLAT:?SetCenterPosition@CPythonApplication@@UAEXMMM@Z
	DD	FLAT:?SetEventCamera@CPythonApplication@@UAEXABUSCameraSetting@IAbstractApplication@@@Z
	DD	FLAT:?BlendEventCamera@CPythonApplication@@UAEXABUSCameraSetting@IAbstractApplication@@M@Z
	DD	FLAT:?SetDefaultCamera@CPythonApplication@@UAEXXZ
	DD	FLAT:?RunIMEUpdate@CPythonApplication@@UAEXXZ
	DD	FLAT:?RunIMETabEvent@CPythonApplication@@UAEXXZ
	DD	FLAT:?RunIMEReturnEvent@CPythonApplication@@UAEXXZ
	DD	FLAT:?RunIMEChangeCodePage@CPythonApplication@@UAEXXZ
	DD	FLAT:?RunIMEOpenCandidateListEvent@CPythonApplication@@UAEXXZ
	DD	FLAT:?RunIMECloseCandidateListEvent@CPythonApplication@@UAEXXZ
	DD	FLAT:?RunIMEOpenReadingWndEvent@CPythonApplication@@UAEXXZ
	DD	FLAT:?RunIMECloseReadingWndEvent@CPythonApplication@@UAEXXZ
CONST	ENDS
;	COMDAT ??_7CPythonApplication@@6BCInputKeyboard@@@
CONST	SEGMENT
??_7CPythonApplication@@6BCInputKeyboard@@@ DD FLAT:??_R4CPythonApplication@@6BCInputKeyboard@@@ ; CPythonApplication::`vftable'
	DD	FLAT:??_ECPythonApplication@@WBM@AEPAXI@Z
	DD	FLAT:?OnKeyDown@CPythonApplication@@MAEXH@Z
	DD	FLAT:?OnKeyUp@CPythonApplication@@MAEXH@Z
CONST	ENDS
;	COMDAT ??_7CPythonApplication@@6BCMSApplication@@@
CONST	SEGMENT
??_7CPythonApplication@@6BCMSApplication@@@ DD FLAT:??_R4CPythonApplication@@6BCMSApplication@@@ ; CPythonApplication::`vftable'
	DD	FLAT:??_ECPythonApplication@@UAEPAXI@Z
	DD	FLAT:?WindowProcedure@CPythonApplication@@MAEJPAUHWND__@@IIJ@Z
	DD	FLAT:?OnSize@CMSWindow@@UAEXIJ@Z
CONST	ENDS
;	COMDAT ??_7CMovieMan@@6B@
CONST	SEGMENT
??_7CMovieMan@@6B@ DD FLAT:??_R4CMovieMan@@6B@		; CMovieMan::`vftable'
	DD	FLAT:??_ECMovieMan@@UAEPAXI@Z
CONST	ENDS
;	COMDAT ??_7?$CSingleton@VCMovieMan@@@@6B@
CONST	SEGMENT
??_7?$CSingleton@VCMovieMan@@@@6B@ DD FLAT:??_R4?$CSingleton@VCMovieMan@@@@6B@ ; CSingleton<CMovieMan>::`vftable'
	DD	FLAT:??_E?$CSingleton@VCMovieMan@@@@UAEPAXI@Z
CONST	ENDS
;	COMDAT ??_7IAbstractApplication@@6B@
CONST	SEGMENT
??_7IAbstractApplication@@6B@ DD FLAT:??_R4IAbstractApplication@@6B@ ; IAbstractApplication::`vftable'
	DD	FLAT:??_EIAbstractApplication@@UAEPAXI@Z
	DD	FLAT:__purecall
	DD	FLAT:__purecall
	DD	FLAT:__purecall
	DD	FLAT:__purecall
	DD	FLAT:__purecall
	DD	FLAT:__purecall
	DD	FLAT:__purecall
	DD	FLAT:__purecall
	DD	FLAT:__purecall
	DD	FLAT:__purecall
	DD	FLAT:__purecall
	DD	FLAT:__purecall
	DD	FLAT:__purecall
	DD	FLAT:__purecall
	DD	FLAT:__purecall
	DD	FLAT:__purecall
	DD	FLAT:__purecall
CONST	ENDS
;	COMDAT ??_7?$TAbstractSingleton@VIAbstractApplication@@@@6B@
CONST	SEGMENT
??_7?$TAbstractSingleton@VIAbstractApplication@@@@6B@ DD FLAT:??_R4?$TAbstractSingleton@VIAbstractApplication@@@@6B@ ; TAbstractSingleton<IAbstractApplication>::`vftable'
	DD	FLAT:??_E?$TAbstractSingleton@VIAbstractApplication@@@@UAEPAXI@Z
CONST	ENDS
;	COMDAT ?ms_kPool@?$CPooledObject@VCRotationDecorator@NEffectUpdateDecorator@@@@1V?$CDynamicPoolEx@VCRotationDecorator@NEffectUpdateDecorator@@@@A
_DATA	SEGMENT
?ms_kPool@?$CPooledObject@VCRotationDecorator@NEffectUpdateDecorator@@@@1V?$CDynamicPoolEx@VCRotationDecorator@NEffectUpdateDecorator@@@@A DD FLAT:??_7?$CDynamicPoolEx@VCRotationDecorator@NEffectUpdateDecorator@@@@6B@ ; CPooledObject<NEffectUpdateDecorator::CRotationDecorator>::ms_kPool
	DD	00H
	DD	00H
	DD	00H
	DD	00H
	DD	00H
	DD	00H
	DD	00H
	DD	00H
_DATA	ENDS
;	COMDAT ?ms_kPool@?$CPooledObject@VCGravityDecorator@NEffectUpdateDecorator@@@@1V?$CDynamicPoolEx@VCGravityDecorator@NEffectUpdateDecorator@@@@A
_DATA	SEGMENT
?ms_kPool@?$CPooledObject@VCGravityDecorator@NEffectUpdateDecorator@@@@1V?$CDynamicPoolEx@VCGravityDecorator@NEffectUpdateDecorator@@@@A DD FLAT:??_7?$CDynamicPoolEx@VCGravityDecorator@NEffectUpdateDecorator@@@@6B@ ; CPooledObject<NEffectUpdateDecorator::CGravityDecorator>::ms_kPool
	DD	00H
	DD	00H
	DD	00H
	DD	00H
	DD	00H
	DD	00H
	DD	00H
	DD	00H
_DATA	ENDS
;	COMDAT ?ms_kPool@?$CPooledObject@VCAirResistanceDecorator@NEffectUpdateDecorator@@@@1V?$CDynamicPoolEx@VCAirResistanceDecorator@NEffectUpdateDecorator@@@@A
_DATA	SEGMENT
?ms_kPool@?$CPooledObject@VCAirResistanceDecorator@NEffectUpdateDecorator@@@@1V?$CDynamicPoolEx@VCAirResistanceDecorator@NEffectUpdateDecorator@@@@A DD FLAT:??_7?$CDynamicPoolEx@VCAirResistanceDecorator@NEffectUpdateDecorator@@@@6B@ ; CPooledObject<NEffectUpdateDecorator::CAirResistanceDecorator>::ms_kPool
	DD	00H
	DD	00H
	DD	00H
	DD	00H
	DD	00H
	DD	00H
	DD	00H
	DD	00H
_DATA	ENDS
;	COMDAT ?ms_kPool@?$CPooledObject@VCTextureAnimationRandomDecorator@NEffectUpdateDecorator@@@@1V?$CDynamicPoolEx@VCTextureAnimationRandomDecorator@NEffectUpdateDecorator@@@@A
_DATA	SEGMENT
?ms_kPool@?$CPooledObject@VCTextureAnimationRandomDecorator@NEffectUpdateDecorator@@@@1V?$CDynamicPoolEx@VCTextureAnimationRandomDecorator@NEffectUpdateDecorator@@@@A DD FLAT:??_7?$CDynamicPoolEx@VCTextureAnimationRandomDecorator@NEffectUpdateDecorator@@@@6B@ ; CPooledObject<NEffectUpdateDecorator::CTextureAnimationRandomDecorator>::ms_kPool
	DD	00H
	DD	00H
	DD	00H
	DD	00H
	DD	00H
	DD	00H
	DD	00H
	DD	00H
_DATA	ENDS
;	COMDAT ?ms_kPool@?$CPooledObject@VCTextureAnimationCCWDecorator@NEffectUpdateDecorator@@@@1V?$CDynamicPoolEx@VCTextureAnimationCCWDecorator@NEffectUpdateDecorator@@@@A
_DATA	SEGMENT
?ms_kPool@?$CPooledObject@VCTextureAnimationCCWDecorator@NEffectUpdateDecorator@@@@1V?$CDynamicPoolEx@VCTextureAnimationCCWDecorator@NEffectUpdateDecorator@@@@A DD FLAT:??_7?$CDynamicPoolEx@VCTextureAnimationCCWDecorator@NEffectUpdateDecorator@@@@6B@ ; CPooledObject<NEffectUpdateDecorator::CTextureAnimationCCWDecorator>::ms_kPool
	DD	00H
	DD	00H
	DD	00H
	DD	00H
	DD	00H
	DD	00H
	DD	00H
	DD	00H
_DATA	ENDS
;	COMDAT ?ms_kPool@?$CPooledObject@VCTextureAnimationCWDecorator@NEffectUpdateDecorator@@@@1V?$CDynamicPoolEx@VCTextureAnimationCWDecorator@NEffectUpdateDecorator@@@@A
_DATA	SEGMENT
?ms_kPool@?$CPooledObject@VCTextureAnimationCWDecorator@NEffectUpdateDecorator@@@@1V?$CDynamicPoolEx@VCTextureAnimationCWDecorator@NEffectUpdateDecorator@@@@A DD FLAT:??_7?$CDynamicPoolEx@VCTextureAnimationCWDecorator@NEffectUpdateDecorator@@@@6B@ ; CPooledObject<NEffectUpdateDecorator::CTextureAnimationCWDecorator>::ms_kPool
	DD	00H
	DD	00H
	DD	00H
	DD	00H
	DD	00H
	DD	00H
	DD	00H
	DD	00H
_DATA	ENDS
;	COMDAT ?ms_kPool@?$CPooledObject@VCNullDecorator@NEffectUpdateDecorator@@@@1V?$CDynamicPoolEx@VCNullDecorator@NEffectUpdateDecorator@@@@A
_DATA	SEGMENT
?ms_kPool@?$CPooledObject@VCNullDecorator@NEffectUpdateDecorator@@@@1V?$CDynamicPoolEx@VCNullDecorator@NEffectUpdateDecorator@@@@A DD FLAT:??_7?$CDynamicPoolEx@VCNullDecorator@NEffectUpdateDecorator@@@@6B@ ; CPooledObject<NEffectUpdateDecorator::CNullDecorator>::ms_kPool
	DD	00H
	DD	00H
	DD	00H
	DD	00H
	DD	00H
	DD	00H
	DD	00H
	DD	00H
_DATA	ENDS
;	COMDAT ?ms_kPool@?$CPooledObject@VCHeaderDecorator@NEffectUpdateDecorator@@@@1V?$CDynamicPoolEx@VCHeaderDecorator@NEffectUpdateDecorator@@@@A
_DATA	SEGMENT
?ms_kPool@?$CPooledObject@VCHeaderDecorator@NEffectUpdateDecorator@@@@1V?$CDynamicPoolEx@VCHeaderDecorator@NEffectUpdateDecorator@@@@A DD FLAT:??_7?$CDynamicPoolEx@VCHeaderDecorator@NEffectUpdateDecorator@@@@6B@ ; CPooledObject<NEffectUpdateDecorator::CHeaderDecorator>::ms_kPool
	DD	00H
	DD	00H
	DD	00H
	DD	00H
	DD	00H
	DD	00H
	DD	00H
	DD	00H
_DATA	ENDS
;	COMDAT ??_R1A@?0A@EA@bad_array_new_length@std@@8
rdata$r	SEGMENT
??_R1A@?0A@EA@bad_array_new_length@std@@8 DD FLAT:??_R0?AVbad_array_new_length@std@@@8 ; std::bad_array_new_length::`RTTI Base Class Descriptor at (0,-1,0,64)'
	DD	02H
	DD	00H
	DD	0ffffffffH
	DD	00H
	DD	040H
	DD	FLAT:??_R3bad_array_new_length@std@@8
rdata$r	ENDS
;	COMDAT ??_R2bad_array_new_length@std@@8
rdata$r	SEGMENT
??_R2bad_array_new_length@std@@8 DD FLAT:??_R1A@?0A@EA@bad_array_new_length@std@@8 ; std::bad_array_new_length::`RTTI Base Class Array'
	DD	FLAT:??_R1A@?0A@EA@bad_alloc@std@@8
	DD	FLAT:??_R1A@?0A@EA@exception@std@@8
rdata$r	ENDS
;	COMDAT ??_R3bad_array_new_length@std@@8
rdata$r	SEGMENT
??_R3bad_array_new_length@std@@8 DD 00H			; std::bad_array_new_length::`RTTI Class Hierarchy Descriptor'
	DD	00H
	DD	03H
	DD	FLAT:??_R2bad_array_new_length@std@@8
rdata$r	ENDS
;	COMDAT ??_R4bad_array_new_length@std@@6B@
rdata$r	SEGMENT
??_R4bad_array_new_length@std@@6B@ DD 00H		; std::bad_array_new_length::`RTTI Complete Object Locator'
	DD	00H
	DD	00H
	DD	FLAT:??_R0?AVbad_array_new_length@std@@@8
	DD	FLAT:??_R3bad_array_new_length@std@@8
rdata$r	ENDS
;	COMDAT ??_R1A@?0A@EA@bad_alloc@std@@8
rdata$r	SEGMENT
??_R1A@?0A@EA@bad_alloc@std@@8 DD FLAT:??_R0?AVbad_alloc@std@@@8 ; std::bad_alloc::`RTTI Base Class Descriptor at (0,-1,0,64)'
	DD	01H
	DD	00H
	DD	0ffffffffH
	DD	00H
	DD	040H
	DD	FLAT:??_R3bad_alloc@std@@8
rdata$r	ENDS
;	COMDAT ??_R2bad_alloc@std@@8
rdata$r	SEGMENT
??_R2bad_alloc@std@@8 DD FLAT:??_R1A@?0A@EA@bad_alloc@std@@8 ; std::bad_alloc::`RTTI Base Class Array'
	DD	FLAT:??_R1A@?0A@EA@exception@std@@8
rdata$r	ENDS
;	COMDAT ??_R3bad_alloc@std@@8
rdata$r	SEGMENT
??_R3bad_alloc@std@@8 DD 00H				; std::bad_alloc::`RTTI Class Hierarchy Descriptor'
	DD	00H
	DD	02H
	DD	FLAT:??_R2bad_alloc@std@@8
rdata$r	ENDS
;	COMDAT ??_R4bad_alloc@std@@6B@
rdata$r	SEGMENT
??_R4bad_alloc@std@@6B@ DD 00H				; std::bad_alloc::`RTTI Complete Object Locator'
	DD	00H
	DD	00H
	DD	FLAT:??_R0?AVbad_alloc@std@@@8
	DD	FLAT:??_R3bad_alloc@std@@8
rdata$r	ENDS
;	COMDAT ??_R1A@?0A@EA@exception@std@@8
rdata$r	SEGMENT
??_R1A@?0A@EA@exception@std@@8 DD FLAT:??_R0?AVexception@std@@@8 ; std::exception::`RTTI Base Class Descriptor at (0,-1,0,64)'
	DD	00H
	DD	00H
	DD	0ffffffffH
	DD	00H
	DD	040H
	DD	FLAT:??_R3exception@std@@8
rdata$r	ENDS
;	COMDAT ??_R2exception@std@@8
rdata$r	SEGMENT
??_R2exception@std@@8 DD FLAT:??_R1A@?0A@EA@exception@std@@8 ; std::exception::`RTTI Base Class Array'
rdata$r	ENDS
;	COMDAT ??_R3exception@std@@8
rdata$r	SEGMENT
??_R3exception@std@@8 DD 00H				; std::exception::`RTTI Class Hierarchy Descriptor'
	DD	00H
	DD	01H
	DD	FLAT:??_R2exception@std@@8
rdata$r	ENDS
;	COMDAT ??_R4exception@std@@6B@
rdata$r	SEGMENT
??_R4exception@std@@6B@ DD 00H				; std::exception::`RTTI Complete Object Locator'
	DD	00H
	DD	00H
	DD	FLAT:??_R0?AVexception@std@@@8
	DD	FLAT:??_R3exception@std@@8
rdata$r	ENDS
;	COMDAT ??_C@_00CNPNBAHC@@
CONST	SEGMENT
??_C@_00CNPNBAHC@@ DB 00H				; `string'
CONST	ENDS
;	COMDAT ??_C@_0BA@JFNIOLAK@string?5too?5long@
CONST	SEGMENT
??_C@_0BA@JFNIOLAK@string?5too?5long@ DB 'string too long', 00H ; `string'
CONST	ENDS
;	COMDAT __CT??_R0?AVexception@std@@@8??0exception@std@@QAE@ABV01@@Z12
xdata$x	SEGMENT
__CT??_R0?AVexception@std@@@8??0exception@std@@QAE@ABV01@@Z12 DD 00H
	DD	FLAT:??_R0?AVexception@std@@@8
	DD	00H
	DD	0ffffffffH
	ORG $+4
	DD	0cH
	DD	FLAT:??0exception@std@@QAE@ABV01@@Z
xdata$x	ENDS
;	COMDAT ??_R0?AVexception@std@@@8
data$r	SEGMENT
??_R0?AVexception@std@@@8 DD FLAT:??_7type_info@@6B@	; std::exception `RTTI Type Descriptor'
	DD	00H
	DB	'.?AVexception@std@@', 00H
data$r	ENDS
;	COMDAT __CT??_R0?AVbad_alloc@std@@@8??0bad_alloc@std@@QAE@ABV01@@Z12
xdata$x	SEGMENT
__CT??_R0?AVbad_alloc@std@@@8??0bad_alloc@std@@QAE@ABV01@@Z12 DD 010H
	DD	FLAT:??_R0?AVbad_alloc@std@@@8
	DD	00H
	DD	0ffffffffH
	ORG $+4
	DD	0cH
	DD	FLAT:??0bad_alloc@std@@QAE@ABV01@@Z
xdata$x	ENDS
;	COMDAT ??_R0?AVbad_alloc@std@@@8
data$r	SEGMENT
??_R0?AVbad_alloc@std@@@8 DD FLAT:??_7type_info@@6B@	; std::bad_alloc `RTTI Type Descriptor'
	DD	00H
	DB	'.?AVbad_alloc@std@@', 00H
data$r	ENDS
;	COMDAT __CT??_R0?AVbad_array_new_length@std@@@8??0bad_array_new_length@std@@QAE@ABV01@@Z12
xdata$x	SEGMENT
__CT??_R0?AVbad_array_new_length@std@@@8??0bad_array_new_length@std@@QAE@ABV01@@Z12 DD 00H
	DD	FLAT:??_R0?AVbad_array_new_length@std@@@8
	DD	00H
	DD	0ffffffffH
	ORG $+4
	DD	0cH
	DD	FLAT:??0bad_array_new_length@std@@QAE@ABV01@@Z
xdata$x	ENDS
;	COMDAT ??_R0?AVbad_array_new_length@std@@@8
data$r	SEGMENT
??_R0?AVbad_array_new_length@std@@@8 DD FLAT:??_7type_info@@6B@ ; std::bad_array_new_length `RTTI Type Descriptor'
	DD	00H
	DB	'.?AVbad_array_new_length@std@@', 00H
data$r	ENDS
;	COMDAT __CTA3?AVbad_array_new_length@std@@
xdata$x	SEGMENT
__CTA3?AVbad_array_new_length@std@@ DD 03H
	DD	FLAT:__CT??_R0?AVbad_array_new_length@std@@@8??0bad_array_new_length@std@@QAE@ABV01@@Z12
	DD	FLAT:__CT??_R0?AVbad_alloc@std@@@8??0bad_alloc@std@@QAE@ABV01@@Z12
	DD	FLAT:__CT??_R0?AVexception@std@@@8??0exception@std@@QAE@ABV01@@Z12
xdata$x	ENDS
;	COMDAT __TI3?AVbad_array_new_length@std@@
xdata$x	SEGMENT
__TI3?AVbad_array_new_length@std@@ DD 00H
	DD	FLAT:??1bad_array_new_length@std@@UAE@XZ
	DD	00H
	DD	FLAT:__CTA3?AVbad_array_new_length@std@@
xdata$x	ENDS
;	COMDAT ??_C@_0BF@KINCDENJ@bad?5array?5new?5length@
CONST	SEGMENT
??_C@_0BF@KINCDENJ@bad?5array?5new?5length@ DB 'bad array new length', 00H ; `string'
CONST	ENDS
;	COMDAT ??_7bad_array_new_length@std@@6B@
CONST	SEGMENT
??_7bad_array_new_length@std@@6B@ DD FLAT:??_R4bad_array_new_length@std@@6B@ ; std::bad_array_new_length::`vftable'
	DD	FLAT:??_Ebad_array_new_length@std@@UAEPAXI@Z
	DD	FLAT:?what@exception@std@@UBEPBDXZ
CONST	ENDS
;	COMDAT ??_7bad_alloc@std@@6B@
CONST	SEGMENT
??_7bad_alloc@std@@6B@ DD FLAT:??_R4bad_alloc@std@@6B@	; std::bad_alloc::`vftable'
	DD	FLAT:??_Ebad_alloc@std@@UAEPAXI@Z
	DD	FLAT:?what@exception@std@@UBEPBDXZ
CONST	ENDS
;	COMDAT ??_C@_0BC@EOODALEL@Unknown?5exception@
CONST	SEGMENT
??_C@_0BC@EOODALEL@Unknown?5exception@ DB 'Unknown exception', 00H ; `string'
CONST	ENDS
;	COMDAT ??_7exception@std@@6B@
CONST	SEGMENT
??_7exception@std@@6B@ DD FLAT:??_R4exception@std@@6B@	; std::exception::`vftable'
	DD	FLAT:??_Eexception@std@@UAEPAXI@Z
	DD	FLAT:?what@exception@std@@UBEPBDXZ
CONST	ENDS
;	COMDAT xdata$x
xdata$x	SEGMENT
__unwindtable$?Process@CPythonApplication@@QAE_NXZ DD 0ffffffffH
	DD	FLAT:__unwindfunclet$?Process@CPythonApplication@@QAE_NXZ$0
	DD	0ffffffffH
	DD	FLAT:__unwindfunclet$?Process@CPythonApplication@@QAE_NXZ$1
__ehfuncinfo$?Process@CPythonApplication@@QAE_NXZ DD 019930522H
	DD	02H
	DD	FLAT:__unwindtable$?Process@CPythonApplication@@QAE_NXZ
	DD	2 DUP(00H)
	DD	2 DUP(00H)
	DD	00H
	DD	01H
xdata$x	ENDS
;	COMDAT xdata$x
xdata$x	SEGMENT
__unwindtable$?UpdateGame@CPythonApplication@@QAEXXZ DD 0ffffffffH
	DD	FLAT:__unwindfunclet$?UpdateGame@CPythonApplication@@QAEXXZ$0
__ehfuncinfo$?UpdateGame@CPythonApplication@@QAEXXZ DD 019930522H
	DD	01H
	DD	FLAT:__unwindtable$?UpdateGame@CPythonApplication@@QAEXXZ
	DD	2 DUP(00H)
	DD	2 DUP(00H)
	DD	00H
	DD	01H
xdata$x	ENDS
;	COMDAT xdata$x
xdata$x	SEGMENT
__ehfuncinfo$??0CPythonApplication@@QAE@XZ DD 019930522H
	DD	02bH
	DD	FLAT:__unwindtable$??0CPythonApplication@@QAE@XZ
	DD	2 DUP(00H)
	DD	2 DUP(00H)
	DD	00H
	DD	01H
__unwindtable$??0CPythonApplication@@QAE@XZ DD 0ffffffffH
	DD	FLAT:__unwindfunclet$??0CPythonApplication@@QAE@XZ$0
	DD	00H
	DD	FLAT:__unwindfunclet$??0CPythonApplication@@QAE@XZ$1
	DD	01H
	DD	FLAT:__unwindfunclet$??0CPythonApplication@@QAE@XZ$2
	DD	02H
	DD	FLAT:__unwindfunclet$??0CPythonApplication@@QAE@XZ$3
	DD	03H
	DD	FLAT:__unwindfunclet$??0CPythonApplication@@QAE@XZ$4
	DD	04H
	DD	FLAT:__unwindfunclet$??0CPythonApplication@@QAE@XZ$5
	DD	05H
	DD	FLAT:__unwindfunclet$??0CPythonApplication@@QAE@XZ$6
	DD	06H
	DD	FLAT:__unwindfunclet$??0CPythonApplication@@QAE@XZ$7
	DD	07H
	DD	FLAT:__unwindfunclet$??0CPythonApplication@@QAE@XZ$8
	DD	08H
	DD	FLAT:__unwindfunclet$??0CPythonApplication@@QAE@XZ$9
	DD	09H
	DD	FLAT:__unwindfunclet$??0CPythonApplication@@QAE@XZ$10
	DD	0aH
	DD	FLAT:__unwindfunclet$??0CPythonApplication@@QAE@XZ$11
	DD	0bH
	DD	FLAT:__unwindfunclet$??0CPythonApplication@@QAE@XZ$12
	DD	0cH
	DD	FLAT:__unwindfunclet$??0CPythonApplication@@QAE@XZ$13
	DD	0dH
	DD	FLAT:__unwindfunclet$??0CPythonApplication@@QAE@XZ$14
	DD	0eH
	DD	FLAT:__unwindfunclet$??0CPythonApplication@@QAE@XZ$15
	DD	0fH
	DD	FLAT:__unwindfunclet$??0CPythonApplication@@QAE@XZ$16
	DD	010H
	DD	FLAT:__unwindfunclet$??0CPythonApplication@@QAE@XZ$17
	DD	011H
	DD	FLAT:__unwindfunclet$??0CPythonApplication@@QAE@XZ$18
	DD	012H
	DD	FLAT:__unwindfunclet$??0CPythonApplication@@QAE@XZ$19
	DD	013H
	DD	FLAT:__unwindfunclet$??0CPythonApplication@@QAE@XZ$20
	DD	014H
	DD	FLAT:__unwindfunclet$??0CPythonApplication@@QAE@XZ$21
	DD	015H
	DD	FLAT:__unwindfunclet$??0CPythonApplication@@QAE@XZ$22
	DD	016H
	DD	FLAT:__unwindfunclet$??0CPythonApplication@@QAE@XZ$23
	DD	017H
	DD	FLAT:__unwindfunclet$??0CPythonApplication@@QAE@XZ$24
	DD	018H
	DD	FLAT:__unwindfunclet$??0CPythonApplication@@QAE@XZ$25
	DD	019H
	DD	FLAT:__unwindfunclet$??0CPythonApplication@@QAE@XZ$26
	DD	01aH
	DD	FLAT:__unwindfunclet$??0CPythonApplication@@QAE@XZ$27
	DD	01bH
	DD	FLAT:__unwindfunclet$??0CPythonApplication@@QAE@XZ$28
	DD	01cH
	DD	FLAT:__unwindfunclet$??0CPythonApplication@@QAE@XZ$29
	DD	01dH
	DD	FLAT:__unwindfunclet$??0CPythonApplication@@QAE@XZ$30
	DD	01eH
	DD	FLAT:__unwindfunclet$??0CPythonApplication@@QAE@XZ$31
	DD	01fH
	DD	FLAT:__unwindfunclet$??0CPythonApplication@@QAE@XZ$32
	DD	020H
	DD	FLAT:__unwindfunclet$??0CPythonApplication@@QAE@XZ$33
	DD	021H
	DD	FLAT:__unwindfunclet$??0CPythonApplication@@QAE@XZ$34
	DD	022H
	DD	FLAT:__unwindfunclet$??0CPythonApplication@@QAE@XZ$35
	DD	023H
	DD	FLAT:__unwindfunclet$??0CPythonApplication@@QAE@XZ$36
	DD	024H
	DD	FLAT:__unwindfunclet$??0CPythonApplication@@QAE@XZ$37
	DD	025H
	DD	FLAT:__unwindfunclet$??0CPythonApplication@@QAE@XZ$38
	DD	026H
	DD	FLAT:__unwindfunclet$??0CPythonApplication@@QAE@XZ$39
	DD	027H
	DD	FLAT:__unwindfunclet$??0CPythonApplication@@QAE@XZ$40
	DD	028H
	DD	FLAT:__unwindfunclet$??0CPythonApplication@@QAE@XZ$41
	DD	029H
	DD	FLAT:__unwindfunclet$??0CPythonApplication@@QAE@XZ$42
xdata$x	ENDS
;	COMDAT CRT$XCU
CRT$XCU	SEGMENT
??ms_kPool$initializer$@?$CPooledObject@VCNullDecorator@NEffectUpdateDecorator@@@@1P6AXXZA@@3P6AXXZA DD FLAT:??__E?ms_kPool@?$CPooledObject@VCNullDecorator@NEffectUpdateDecorator@@@@1V?$CDynamicPoolEx@VCNullDecorator@NEffectUpdateDecorator@@@@A@@YAXXZ ; ??ms_kPool$initializer$@?$CPooledObject@VCNullDecorator@NEffectUpdateDecorator@@@@1P6AXXZA@@3P6AXXZA
CRT$XCU	ENDS
;	COMDAT CRT$XCU
CRT$XCU	SEGMENT
??ms_kPool$initializer$@?$CPooledObject@VCTextureAnimationCWDecorator@NEffectUpdateDecorator@@@@1P6AXXZA@@3P6AXXZA DD FLAT:??__E?ms_kPool@?$CPooledObject@VCTextureAnimationCWDecorator@NEffectUpdateDecorator@@@@1V?$CDynamicPoolEx@VCTextureAnimationCWDecorator@NEffectUpdateDecorator@@@@A@@YAXXZ ; ??ms_kPool$initializer$@?$CPooledObject@VCTextureAnimationCWDecorator@NEffectUpdateDecorator@@@@1P6AXXZA@@3P6AXXZA
CRT$XCU	ENDS
;	COMDAT CRT$XCU
CRT$XCU	SEGMENT
??ms_kPool$initializer$@?$CPooledObject@VCTextureAnimationCCWDecorator@NEffectUpdateDecorator@@@@1P6AXXZA@@3P6AXXZA DD FLAT:??__E?ms_kPool@?$CPooledObject@VCTextureAnimationCCWDecorator@NEffectUpdateDecorator@@@@1V?$CDynamicPoolEx@VCTextureAnimationCCWDecorator@NEffectUpdateDecorator@@@@A@@YAXXZ ; ??ms_kPool$initializer$@?$CPooledObject@VCTextureAnimationCCWDecorator@NEffectUpdateDecorator@@@@1P6AXXZA@@3P6AXXZA
CRT$XCU	ENDS
;	COMDAT CRT$XCU
CRT$XCU	SEGMENT
??ms_kPool$initializer$@?$CPooledObject@VCTextureAnimationRandomDecorator@NEffectUpdateDecorator@@@@1P6AXXZA@@3P6AXXZA DD FLAT:??__E?ms_kPool@?$CPooledObject@VCTextureAnimationRandomDecorator@NEffectUpdateDecorator@@@@1V?$CDynamicPoolEx@VCTextureAnimationRandomDecorator@NEffectUpdateDecorator@@@@A@@YAXXZ ; ??ms_kPool$initializer$@?$CPooledObject@VCTextureAnimationRandomDecorator@NEffectUpdateDecorator@@@@1P6AXXZA@@3P6AXXZA
CRT$XCU	ENDS
;	COMDAT CRT$XCU
CRT$XCU	SEGMENT
??ms_kPool$initializer$@?$CPooledObject@VCAirResistanceDecorator@NEffectUpdateDecorator@@@@1P6AXXZA@@3P6AXXZA DD FLAT:??__E?ms_kPool@?$CPooledObject@VCAirResistanceDecorator@NEffectUpdateDecorator@@@@1V?$CDynamicPoolEx@VCAirResistanceDecorator@NEffectUpdateDecorator@@@@A@@YAXXZ ; ??ms_kPool$initializer$@?$CPooledObject@VCAirResistanceDecorator@NEffectUpdateDecorator@@@@1P6AXXZA@@3P6AXXZA
CRT$XCU	ENDS
;	COMDAT CRT$XCU
CRT$XCU	SEGMENT
??ms_kPool$initializer$@?$CPooledObject@VCGravityDecorator@NEffectUpdateDecorator@@@@1P6AXXZA@@3P6AXXZA DD FLAT:??__E?ms_kPool@?$CPooledObject@VCGravityDecorator@NEffectUpdateDecorator@@@@1V?$CDynamicPoolEx@VCGravityDecorator@NEffectUpdateDecorator@@@@A@@YAXXZ ; ??ms_kPool$initializer$@?$CPooledObject@VCGravityDecorator@NEffectUpdateDecorator@@@@1P6AXXZA@@3P6AXXZA
CRT$XCU	ENDS
;	COMDAT CRT$XCU
CRT$XCU	SEGMENT
??ms_kPool$initializer$@?$CPooledObject@VCRotationDecorator@NEffectUpdateDecorator@@@@1P6AXXZA@@3P6AXXZA DD FLAT:??__E?ms_kPool@?$CPooledObject@VCRotationDecorator@NEffectUpdateDecorator@@@@1V?$CDynamicPoolEx@VCRotationDecorator@NEffectUpdateDecorator@@@@A@@YAXXZ ; ??ms_kPool$initializer$@?$CPooledObject@VCRotationDecorator@NEffectUpdateDecorator@@@@1P6AXXZA@@3P6AXXZA
CRT$XCU	ENDS
; Function compile flags: /Odsp
;	COMDAT ??_ECPythonApplication@@WCA@AEPAXI@Z
_TEXT	SEGMENT
??_ECPythonApplication@@WCA@AEPAXI@Z PROC		; [thunk]:CPythonApplication::`vector deleting destructor', COMDAT
  00000	83 e9 20	 sub	 ecx, 32			; 00000020H
  00003	e9 00 00 00 00	 jmp	 ??_ECPythonApplication@@UAEPAXI@Z
??_ECPythonApplication@@WCA@AEPAXI@Z ENDP		; [thunk]:CPythonApplication::`vector deleting destructor'
_TEXT	ENDS
; Function compile flags: /Odsp
;	COMDAT ??_ECPythonApplication@@WBM@AEPAXI@Z
_TEXT	SEGMENT
??_ECPythonApplication@@WBM@AEPAXI@Z PROC		; [thunk]:CPythonApplication::`vector deleting destructor', COMDAT
  00000	83 e9 1c	 sub	 ecx, 28			; 0000001cH
  00003	e9 00 00 00 00	 jmp	 ??_ECPythonApplication@@UAEPAXI@Z
??_ECPythonApplication@@WBM@AEPAXI@Z ENDP		; [thunk]:CPythonApplication::`vector deleting destructor'
_TEXT	ENDS
; Function compile flags: /Ogtp
; File C:\Program Files (x86)\Microsoft Visual Studio\2019\Community\VC\Tools\MSVC\14.28.29333\include\xmemory
;	COMDAT ??$_Destroy_in_place@PAU?$_Tree_node@U?$pair@$$CBHPAX@std@@PAX@std@@@std@@YAXAAPAU?$_Tree_node@U?$pair@$$CBHPAX@std@@PAX@0@@Z
_TEXT	SEGMENT
__Obj$ = 8						; size = 4
??$_Destroy_in_place@PAU?$_Tree_node@U?$pair@$$CBHPAX@std@@PAX@std@@@std@@YAXAAPAU?$_Tree_node@U?$pair@$$CBHPAX@std@@PAX@0@@Z PROC ; std::_Destroy_in_place<std::_Tree_node<std::pair<int const ,void *>,void *> *>, COMDAT

; 271  : #if _HAS_IF_CONSTEXPR
; 272  :     if constexpr (is_array_v<_Ty>) {
; 273  :         _Destroy_range(_Obj, _Obj + extent_v<_Ty>);
; 274  :     } else
; 275  : #endif // _HAS_IF_CONSTEXPR
; 276  :     {
; 277  :         _Obj.~_Ty();
; 278  :     }
; 279  : }

  00000	c2 00 00	 ret	 0
??$_Destroy_in_place@PAU?$_Tree_node@U?$pair@$$CBHPAX@std@@PAX@std@@@std@@YAXAAPAU?$_Tree_node@U?$pair@$$CBHPAX@std@@PAX@0@@Z ENDP ; std::_Destroy_in_place<std::_Tree_node<std::pair<int const ,void *>,void *> *>
_TEXT	ENDS
; Function compile flags: /Ogtp
; File C:\Program Files (x86)\Microsoft Visual Studio\2019\Community\VC\Tools\MSVC\14.28.29333\include\xmemory
;	COMDAT ??$_Construct_in_place@PAU?$_Tree_node@U?$pair@$$CBHPAX@std@@PAX@std@@ABQAU12@@std@@YAXAAPAU?$_Tree_node@U?$pair@$$CBHPAX@std@@PAX@0@ABQAU10@@Z
_TEXT	SEGMENT
__Obj$ = 8						; size = 4
_<_Args_0>$ = 12					; size = 4
??$_Construct_in_place@PAU?$_Tree_node@U?$pair@$$CBHPAX@std@@PAX@std@@ABQAU12@@std@@YAXAAPAU?$_Tree_node@U?$pair@$$CBHPAX@std@@PAX@0@ABQAU10@@Z PROC ; std::_Construct_in_place<std::_Tree_node<std::pair<int const ,void *>,void *> *,std::_Tree_node<std::pair<int const ,void *>,void *> * const &>, COMDAT

; 228  : void _Construct_in_place(_Ty& _Obj, _Types&&... _Args) noexcept(is_nothrow_constructible_v<_Ty, _Types...>) {

  00000	55		 push	 ebp
  00001	8b ec		 mov	 ebp, esp

; 229  :     ::new (const_cast<void*>(static_cast<const volatile void*>(_STD addressof(_Obj))))

  00003	8b 45 0c	 mov	 eax, DWORD PTR _<_Args_0>$[ebp]
  00006	8b 08		 mov	 ecx, DWORD PTR [eax]
  00008	8b 45 08	 mov	 eax, DWORD PTR __Obj$[ebp]
  0000b	89 08		 mov	 DWORD PTR [eax], ecx

; 230  :         _Ty(_STD forward<_Types>(_Args)...);
; 231  : }

  0000d	5d		 pop	 ebp
  0000e	c3		 ret	 0
??$_Construct_in_place@PAU?$_Tree_node@U?$pair@$$CBHPAX@std@@PAX@std@@ABQAU12@@std@@YAXAAPAU?$_Tree_node@U?$pair@$$CBHPAX@std@@PAX@0@ABQAU10@@Z ENDP ; std::_Construct_in_place<std::_Tree_node<std::pair<int const ,void *>,void *> *,std::_Tree_node<std::pair<int const ,void *>,void *> * const &>
_TEXT	ENDS
; Function compile flags: /Ogtp
; File C:\Program Files (x86)\Microsoft Visual Studio\2019\Community\VC\Tools\MSVC\14.28.29333\include\xtree
; File C:\Program Files (x86)\Microsoft Visual Studio\2019\Community\VC\Tools\MSVC\14.28.29333\include\utility
; File C:\Program Files (x86)\Microsoft Visual Studio\2019\Community\VC\Tools\MSVC\14.28.29333\include\xmemory
; File C:\Program Files (x86)\Microsoft Visual Studio\2019\Community\VC\Tools\MSVC\14.28.29333\include\xtree
;	COMDAT ??$_Erase_tree@V?$allocator@U?$_Tree_node@U?$pair@$$CBHPAX@std@@PAX@std@@@std@@@?$_Tree_val@U?$_Tree_simple_types@U?$pair@$$CBHPAX@std@@@std@@@std@@QAEXAAV?$allocator@U?$_Tree_node@U?$pair@$$CBHPAX@std@@PAX@std@@@1@PAU?$_Tree_node@U?$pair@$$CBHPAX@std@@PAX@1@@Z
_TEXT	SEGMENT
__Al$ = 8						; size = 4
__Rootnode$ = 12					; size = 4
??$_Erase_tree@V?$allocator@U?$_Tree_node@U?$pair@$$CBHPAX@std@@PAX@std@@@std@@@?$_Tree_val@U?$_Tree_simple_types@U?$pair@$$CBHPAX@std@@@std@@@std@@QAEXAAV?$allocator@U?$_Tree_node@U?$pair@$$CBHPAX@std@@PAX@std@@@1@PAU?$_Tree_node@U?$pair@$$CBHPAX@std@@PAX@1@@Z PROC ; std::_Tree_val<std::_Tree_simple_types<std::pair<int const ,void *> > >::_Erase_tree<std::allocator<std::_Tree_node<std::pair<int const ,void *>,void *> > >, COMDAT
; _this$ = ecx

; 742  :     void _Erase_tree(_Alnode& _Al, _Nodeptr _Rootnode) noexcept {

  00000	55		 push	 ebp
  00001	8b ec		 mov	 ebp, esp
  00003	53		 push	 ebx
  00004	56		 push	 esi

; 743  :         while (!_Rootnode->_Isnil) { // free subtrees, then node

  00005	8b 75 0c	 mov	 esi, DWORD PTR __Rootnode$[ebp]
  00008	8b d9		 mov	 ebx, ecx
  0000a	80 7e 0d 00	 cmp	 BYTE PTR [esi+13], 0
  0000e	75 25		 jne	 SHORT $LN3@Erase_tree
  00010	57		 push	 edi
  00011	8b 7d 08	 mov	 edi, DWORD PTR __Al$[ebp]
$LL2@Erase_tree:

; 744  :             _Erase_tree(_Al, _Rootnode->_Right);

  00014	ff 76 08	 push	 DWORD PTR [esi+8]
  00017	8b cb		 mov	 ecx, ebx
  00019	57		 push	 edi
  0001a	e8 00 00 00 00	 call	 ??$_Erase_tree@V?$allocator@U?$_Tree_node@U?$pair@$$CBHPAX@std@@PAX@std@@@std@@@?$_Tree_val@U?$_Tree_simple_types@U?$pair@$$CBHPAX@std@@@std@@@std@@QAEXAAV?$allocator@U?$_Tree_node@U?$pair@$$CBHPAX@std@@PAX@std@@@1@PAU?$_Tree_node@U?$pair@$$CBHPAX@std@@PAX@1@@Z ; std::_Tree_val<std::_Tree_simple_types<std::pair<int const ,void *> > >::_Erase_tree<std::allocator<std::_Tree_node<std::pair<int const ,void *>,void *> > >
; File C:\Program Files (x86)\Microsoft Visual Studio\2019\Community\VC\Tools\MSVC\14.28.29333\include\utility

; 598  :     _Ty _Old_val = static_cast<_Ty&&>(_Val);

  0001f	8b c6		 mov	 eax, esi

; 599  :     _Val         = static_cast<_Other&&>(_New_val);

  00021	8b 36		 mov	 esi, DWORD PTR [esi]
; File C:\Program Files (x86)\Microsoft Visual Studio\2019\Community\VC\Tools\MSVC\14.28.29333\include\xmemory

; 696  :         _Deallocate<_New_alignof<value_type>>(_Ptr, sizeof(value_type) * _Count);

  00023	6a 18		 push	 24			; 00000018H
  00025	50		 push	 eax
  00026	e8 00 00 00 00	 call	 ??$_Deallocate@$07$0A@@std@@YAXPAXI@Z ; std::_Deallocate<8,0>
  0002b	83 c4 08	 add	 esp, 8
; File C:\Program Files (x86)\Microsoft Visual Studio\2019\Community\VC\Tools\MSVC\14.28.29333\include\xtree

; 743  :         while (!_Rootnode->_Isnil) { // free subtrees, then node

  0002e	80 7e 0d 00	 cmp	 BYTE PTR [esi+13], 0
  00032	74 e0		 je	 SHORT $LL2@Erase_tree
  00034	5f		 pop	 edi
$LN3@Erase_tree:
  00035	5e		 pop	 esi

; 745  :             _Alnode::value_type::_Freenode(_Al, _STD exchange(_Rootnode, _Rootnode->_Left));
; 746  :         }
; 747  :     }

  00036	5b		 pop	 ebx
  00037	5d		 pop	 ebp
  00038	c2 08 00	 ret	 8
??$_Erase_tree@V?$allocator@U?$_Tree_node@U?$pair@$$CBHPAX@std@@PAX@std@@@std@@@?$_Tree_val@U?$_Tree_simple_types@U?$pair@$$CBHPAX@std@@@std@@@std@@QAEXAAV?$allocator@U?$_Tree_node@U?$pair@$$CBHPAX@std@@PAX@std@@@1@PAU?$_Tree_node@U?$pair@$$CBHPAX@std@@PAX@1@@Z ENDP ; std::_Tree_val<std::_Tree_simple_types<std::pair<int const ,void *> > >::_Erase_tree<std::allocator<std::_Tree_node<std::pair<int const ,void *>,void *> > >
_TEXT	ENDS
; Function compile flags: /Ogtp
;	COMDAT ??__F?ms_kPool@?$CPooledObject@VCRotationDecorator@NEffectUpdateDecorator@@@@1V?$CDynamicPoolEx@VCRotationDecorator@NEffectUpdateDecorator@@@@A@@YAXXZ
text$yd	SEGMENT
??__F?ms_kPool@?$CPooledObject@VCRotationDecorator@NEffectUpdateDecorator@@@@1V?$CDynamicPoolEx@VCRotationDecorator@NEffectUpdateDecorator@@@@A@@YAXXZ PROC ; `dynamic atexit destructor for 'CPooledObject<NEffectUpdateDecorator::CRotationDecorator>::ms_kPool'', COMDAT
  00000	b9 00 00 00 00	 mov	 ecx, OFFSET ?ms_kPool@?$CPooledObject@VCRotationDecorator@NEffectUpdateDecorator@@@@1V?$CDynamicPoolEx@VCRotationDecorator@NEffectUpdateDecorator@@@@A ; CPooledObject<NEffectUpdateDecorator::CRotationDecorator>::ms_kPool
  00005	e9 00 00 00 00	 jmp	 ??1?$CDynamicPoolEx@VCRotationDecorator@NEffectUpdateDecorator@@@@UAE@XZ ; CDynamicPoolEx<NEffectUpdateDecorator::CRotationDecorator>::~CDynamicPoolEx<NEffectUpdateDecorator::CRotationDecorator>
??__F?ms_kPool@?$CPooledObject@VCRotationDecorator@NEffectUpdateDecorator@@@@1V?$CDynamicPoolEx@VCRotationDecorator@NEffectUpdateDecorator@@@@A@@YAXXZ ENDP ; `dynamic atexit destructor for 'CPooledObject<NEffectUpdateDecorator::CRotationDecorator>::ms_kPool''
text$yd	ENDS
; Function compile flags: /Ogtp
; File D:\Metin2 Server Files\mainline\SRC_2014\Metin2Client\eterLib\Pool.h
;	COMDAT ??__E?ms_kPool@?$CPooledObject@VCRotationDecorator@NEffectUpdateDecorator@@@@1V?$CDynamicPoolEx@VCRotationDecorator@NEffectUpdateDecorator@@@@A@@YAXXZ
text$di	SEGMENT
??__E?ms_kPool@?$CPooledObject@VCRotationDecorator@NEffectUpdateDecorator@@@@1V?$CDynamicPoolEx@VCRotationDecorator@NEffectUpdateDecorator@@@@A@@YAXXZ PROC ; `dynamic initializer for 'CPooledObject<NEffectUpdateDecorator::CRotationDecorator>::ms_kPool'', COMDAT

; 272  : template <class T> CDynamicPoolEx<T> CPooledObject<T>::ms_kPool;

  00000	68 00 00 00 00	 push	 OFFSET ??__F?ms_kPool@?$CPooledObject@VCRotationDecorator@NEffectUpdateDecorator@@@@1V?$CDynamicPoolEx@VCRotationDecorator@NEffectUpdateDecorator@@@@A@@YAXXZ ; `dynamic atexit destructor for 'CPooledObject<NEffectUpdateDecorator::CRotationDecorator>::ms_kPool''
  00005	e8 00 00 00 00	 call	 _atexit
  0000a	59		 pop	 ecx
  0000b	c3		 ret	 0
??__E?ms_kPool@?$CPooledObject@VCRotationDecorator@NEffectUpdateDecorator@@@@1V?$CDynamicPoolEx@VCRotationDecorator@NEffectUpdateDecorator@@@@A@@YAXXZ ENDP ; `dynamic initializer for 'CPooledObject<NEffectUpdateDecorator::CRotationDecorator>::ms_kPool''
text$di	ENDS
; Function compile flags: /Ogtp
;	COMDAT ??__F?ms_kPool@?$CPooledObject@VCGravityDecorator@NEffectUpdateDecorator@@@@1V?$CDynamicPoolEx@VCGravityDecorator@NEffectUpdateDecorator@@@@A@@YAXXZ
text$yd	SEGMENT
??__F?ms_kPool@?$CPooledObject@VCGravityDecorator@NEffectUpdateDecorator@@@@1V?$CDynamicPoolEx@VCGravityDecorator@NEffectUpdateDecorator@@@@A@@YAXXZ PROC ; `dynamic atexit destructor for 'CPooledObject<NEffectUpdateDecorator::CGravityDecorator>::ms_kPool'', COMDAT
  00000	b9 00 00 00 00	 mov	 ecx, OFFSET ?ms_kPool@?$CPooledObject@VCGravityDecorator@NEffectUpdateDecorator@@@@1V?$CDynamicPoolEx@VCGravityDecorator@NEffectUpdateDecorator@@@@A ; CPooledObject<NEffectUpdateDecorator::CGravityDecorator>::ms_kPool
  00005	e9 00 00 00 00	 jmp	 ??1?$CDynamicPoolEx@VCGravityDecorator@NEffectUpdateDecorator@@@@UAE@XZ ; CDynamicPoolEx<NEffectUpdateDecorator::CGravityDecorator>::~CDynamicPoolEx<NEffectUpdateDecorator::CGravityDecorator>
??__F?ms_kPool@?$CPooledObject@VCGravityDecorator@NEffectUpdateDecorator@@@@1V?$CDynamicPoolEx@VCGravityDecorator@NEffectUpdateDecorator@@@@A@@YAXXZ ENDP ; `dynamic atexit destructor for 'CPooledObject<NEffectUpdateDecorator::CGravityDecorator>::ms_kPool''
text$yd	ENDS
; Function compile flags: /Ogtp
; File D:\Metin2 Server Files\mainline\SRC_2014\Metin2Client\eterLib\Pool.h
;	COMDAT ??__E?ms_kPool@?$CPooledObject@VCGravityDecorator@NEffectUpdateDecorator@@@@1V?$CDynamicPoolEx@VCGravityDecorator@NEffectUpdateDecorator@@@@A@@YAXXZ
text$di	SEGMENT
??__E?ms_kPool@?$CPooledObject@VCGravityDecorator@NEffectUpdateDecorator@@@@1V?$CDynamicPoolEx@VCGravityDecorator@NEffectUpdateDecorator@@@@A@@YAXXZ PROC ; `dynamic initializer for 'CPooledObject<NEffectUpdateDecorator::CGravityDecorator>::ms_kPool'', COMDAT

; 272  : template <class T> CDynamicPoolEx<T> CPooledObject<T>::ms_kPool;

  00000	68 00 00 00 00	 push	 OFFSET ??__F?ms_kPool@?$CPooledObject@VCGravityDecorator@NEffectUpdateDecorator@@@@1V?$CDynamicPoolEx@VCGravityDecorator@NEffectUpdateDecorator@@@@A@@YAXXZ ; `dynamic atexit destructor for 'CPooledObject<NEffectUpdateDecorator::CGravityDecorator>::ms_kPool''
  00005	e8 00 00 00 00	 call	 _atexit
  0000a	59		 pop	 ecx
  0000b	c3		 ret	 0
??__E?ms_kPool@?$CPooledObject@VCGravityDecorator@NEffectUpdateDecorator@@@@1V?$CDynamicPoolEx@VCGravityDecorator@NEffectUpdateDecorator@@@@A@@YAXXZ ENDP ; `dynamic initializer for 'CPooledObject<NEffectUpdateDecorator::CGravityDecorator>::ms_kPool''
text$di	ENDS
; Function compile flags: /Ogtp
;	COMDAT ??__F?ms_kPool@?$CPooledObject@VCAirResistanceDecorator@NEffectUpdateDecorator@@@@1V?$CDynamicPoolEx@VCAirResistanceDecorator@NEffectUpdateDecorator@@@@A@@YAXXZ
text$yd	SEGMENT
??__F?ms_kPool@?$CPooledObject@VCAirResistanceDecorator@NEffectUpdateDecorator@@@@1V?$CDynamicPoolEx@VCAirResistanceDecorator@NEffectUpdateDecorator@@@@A@@YAXXZ PROC ; `dynamic atexit destructor for 'CPooledObject<NEffectUpdateDecorator::CAirResistanceDecorator>::ms_kPool'', COMDAT
  00000	b9 00 00 00 00	 mov	 ecx, OFFSET ?ms_kPool@?$CPooledObject@VCAirResistanceDecorator@NEffectUpdateDecorator@@@@1V?$CDynamicPoolEx@VCAirResistanceDecorator@NEffectUpdateDecorator@@@@A ; CPooledObject<NEffectUpdateDecorator::CAirResistanceDecorator>::ms_kPool
  00005	e9 00 00 00 00	 jmp	 ??1?$CDynamicPoolEx@VCAirResistanceDecorator@NEffectUpdateDecorator@@@@UAE@XZ ; CDynamicPoolEx<NEffectUpdateDecorator::CAirResistanceDecorator>::~CDynamicPoolEx<NEffectUpdateDecorator::CAirResistanceDecorator>
??__F?ms_kPool@?$CPooledObject@VCAirResistanceDecorator@NEffectUpdateDecorator@@@@1V?$CDynamicPoolEx@VCAirResistanceDecorator@NEffectUpdateDecorator@@@@A@@YAXXZ ENDP ; `dynamic atexit destructor for 'CPooledObject<NEffectUpdateDecorator::CAirResistanceDecorator>::ms_kPool''
text$yd	ENDS
; Function compile flags: /Ogtp
; File D:\Metin2 Server Files\mainline\SRC_2014\Metin2Client\eterLib\Pool.h
;	COMDAT ??__E?ms_kPool@?$CPooledObject@VCAirResistanceDecorator@NEffectUpdateDecorator@@@@1V?$CDynamicPoolEx@VCAirResistanceDecorator@NEffectUpdateDecorator@@@@A@@YAXXZ
text$di	SEGMENT
??__E?ms_kPool@?$CPooledObject@VCAirResistanceDecorator@NEffectUpdateDecorator@@@@1V?$CDynamicPoolEx@VCAirResistanceDecorator@NEffectUpdateDecorator@@@@A@@YAXXZ PROC ; `dynamic initializer for 'CPooledObject<NEffectUpdateDecorator::CAirResistanceDecorator>::ms_kPool'', COMDAT

; 272  : template <class T> CDynamicPoolEx<T> CPooledObject<T>::ms_kPool;

  00000	68 00 00 00 00	 push	 OFFSET ??__F?ms_kPool@?$CPooledObject@VCAirResistanceDecorator@NEffectUpdateDecorator@@@@1V?$CDynamicPoolEx@VCAirResistanceDecorator@NEffectUpdateDecorator@@@@A@@YAXXZ ; `dynamic atexit destructor for 'CPooledObject<NEffectUpdateDecorator::CAirResistanceDecorator>::ms_kPool''
  00005	e8 00 00 00 00	 call	 _atexit
  0000a	59		 pop	 ecx
  0000b	c3		 ret	 0
??__E?ms_kPool@?$CPooledObject@VCAirResistanceDecorator@NEffectUpdateDecorator@@@@1V?$CDynamicPoolEx@VCAirResistanceDecorator@NEffectUpdateDecorator@@@@A@@YAXXZ ENDP ; `dynamic initializer for 'CPooledObject<NEffectUpdateDecorator::CAirResistanceDecorator>::ms_kPool''
text$di	ENDS
; Function compile flags: /Ogtp
;	COMDAT ??__F?ms_kPool@?$CPooledObject@VCTextureAnimationRandomDecorator@NEffectUpdateDecorator@@@@1V?$CDynamicPoolEx@VCTextureAnimationRandomDecorator@NEffectUpdateDecorator@@@@A@@YAXXZ
text$yd	SEGMENT
??__F?ms_kPool@?$CPooledObject@VCTextureAnimationRandomDecorator@NEffectUpdateDecorator@@@@1V?$CDynamicPoolEx@VCTextureAnimationRandomDecorator@NEffectUpdateDecorator@@@@A@@YAXXZ PROC ; `dynamic atexit destructor for 'CPooledObject<NEffectUpdateDecorator::CTextureAnimationRandomDecorator>::ms_kPool'', COMDAT
  00000	b9 00 00 00 00	 mov	 ecx, OFFSET ?ms_kPool@?$CPooledObject@VCTextureAnimationRandomDecorator@NEffectUpdateDecorator@@@@1V?$CDynamicPoolEx@VCTextureAnimationRandomDecorator@NEffectUpdateDecorator@@@@A ; CPooledObject<NEffectUpdateDecorator::CTextureAnimationRandomDecorator>::ms_kPool
  00005	e9 00 00 00 00	 jmp	 ??1?$CDynamicPoolEx@VCTextureAnimationRandomDecorator@NEffectUpdateDecorator@@@@UAE@XZ ; CDynamicPoolEx<NEffectUpdateDecorator::CTextureAnimationRandomDecorator>::~CDynamicPoolEx<NEffectUpdateDecorator::CTextureAnimationRandomDecorator>
??__F?ms_kPool@?$CPooledObject@VCTextureAnimationRandomDecorator@NEffectUpdateDecorator@@@@1V?$CDynamicPoolEx@VCTextureAnimationRandomDecorator@NEffectUpdateDecorator@@@@A@@YAXXZ ENDP ; `dynamic atexit destructor for 'CPooledObject<NEffectUpdateDecorator::CTextureAnimationRandomDecorator>::ms_kPool''
text$yd	ENDS
; Function compile flags: /Ogtp
; File D:\Metin2 Server Files\mainline\SRC_2014\Metin2Client\eterLib\Pool.h
;	COMDAT ??__E?ms_kPool@?$CPooledObject@VCTextureAnimationRandomDecorator@NEffectUpdateDecorator@@@@1V?$CDynamicPoolEx@VCTextureAnimationRandomDecorator@NEffectUpdateDecorator@@@@A@@YAXXZ
text$di	SEGMENT
??__E?ms_kPool@?$CPooledObject@VCTextureAnimationRandomDecorator@NEffectUpdateDecorator@@@@1V?$CDynamicPoolEx@VCTextureAnimationRandomDecorator@NEffectUpdateDecorator@@@@A@@YAXXZ PROC ; `dynamic initializer for 'CPooledObject<NEffectUpdateDecorator::CTextureAnimationRandomDecorator>::ms_kPool'', COMDAT

; 272  : template <class T> CDynamicPoolEx<T> CPooledObject<T>::ms_kPool;

  00000	68 00 00 00 00	 push	 OFFSET ??__F?ms_kPool@?$CPooledObject@VCTextureAnimationRandomDecorator@NEffectUpdateDecorator@@@@1V?$CDynamicPoolEx@VCTextureAnimationRandomDecorator@NEffectUpdateDecorator@@@@A@@YAXXZ ; `dynamic atexit destructor for 'CPooledObject<NEffectUpdateDecorator::CTextureAnimationRandomDecorator>::ms_kPool''
  00005	e8 00 00 00 00	 call	 _atexit
  0000a	59		 pop	 ecx
  0000b	c3		 ret	 0
??__E?ms_kPool@?$CPooledObject@VCTextureAnimationRandomDecorator@NEffectUpdateDecorator@@@@1V?$CDynamicPoolEx@VCTextureAnimationRandomDecorator@NEffectUpdateDecorator@@@@A@@YAXXZ ENDP ; `dynamic initializer for 'CPooledObject<NEffectUpdateDecorator::CTextureAnimationRandomDecorator>::ms_kPool''
text$di	ENDS
; Function compile flags: /Ogtp
;	COMDAT ??__F?ms_kPool@?$CPooledObject@VCTextureAnimationCCWDecorator@NEffectUpdateDecorator@@@@1V?$CDynamicPoolEx@VCTextureAnimationCCWDecorator@NEffectUpdateDecorator@@@@A@@YAXXZ
text$yd	SEGMENT
??__F?ms_kPool@?$CPooledObject@VCTextureAnimationCCWDecorator@NEffectUpdateDecorator@@@@1V?$CDynamicPoolEx@VCTextureAnimationCCWDecorator@NEffectUpdateDecorator@@@@A@@YAXXZ PROC ; `dynamic atexit destructor for 'CPooledObject<NEffectUpdateDecorator::CTextureAnimationCCWDecorator>::ms_kPool'', COMDAT
  00000	b9 00 00 00 00	 mov	 ecx, OFFSET ?ms_kPool@?$CPooledObject@VCTextureAnimationCCWDecorator@NEffectUpdateDecorator@@@@1V?$CDynamicPoolEx@VCTextureAnimationCCWDecorator@NEffectUpdateDecorator@@@@A ; CPooledObject<NEffectUpdateDecorator::CTextureAnimationCCWDecorator>::ms_kPool
  00005	e9 00 00 00 00	 jmp	 ??1?$CDynamicPoolEx@VCTextureAnimationCCWDecorator@NEffectUpdateDecorator@@@@UAE@XZ ; CDynamicPoolEx<NEffectUpdateDecorator::CTextureAnimationCCWDecorator>::~CDynamicPoolEx<NEffectUpdateDecorator::CTextureAnimationCCWDecorator>
??__F?ms_kPool@?$CPooledObject@VCTextureAnimationCCWDecorator@NEffectUpdateDecorator@@@@1V?$CDynamicPoolEx@VCTextureAnimationCCWDecorator@NEffectUpdateDecorator@@@@A@@YAXXZ ENDP ; `dynamic atexit destructor for 'CPooledObject<NEffectUpdateDecorator::CTextureAnimationCCWDecorator>::ms_kPool''
text$yd	ENDS
; Function compile flags: /Ogtp
; File D:\Metin2 Server Files\mainline\SRC_2014\Metin2Client\eterLib\Pool.h
;	COMDAT ??__E?ms_kPool@?$CPooledObject@VCTextureAnimationCCWDecorator@NEffectUpdateDecorator@@@@1V?$CDynamicPoolEx@VCTextureAnimationCCWDecorator@NEffectUpdateDecorator@@@@A@@YAXXZ
text$di	SEGMENT
??__E?ms_kPool@?$CPooledObject@VCTextureAnimationCCWDecorator@NEffectUpdateDecorator@@@@1V?$CDynamicPoolEx@VCTextureAnimationCCWDecorator@NEffectUpdateDecorator@@@@A@@YAXXZ PROC ; `dynamic initializer for 'CPooledObject<NEffectUpdateDecorator::CTextureAnimationCCWDecorator>::ms_kPool'', COMDAT

; 272  : template <class T> CDynamicPoolEx<T> CPooledObject<T>::ms_kPool;

  00000	68 00 00 00 00	 push	 OFFSET ??__F?ms_kPool@?$CPooledObject@VCTextureAnimationCCWDecorator@NEffectUpdateDecorator@@@@1V?$CDynamicPoolEx@VCTextureAnimationCCWDecorator@NEffectUpdateDecorator@@@@A@@YAXXZ ; `dynamic atexit destructor for 'CPooledObject<NEffectUpdateDecorator::CTextureAnimationCCWDecorator>::ms_kPool''
  00005	e8 00 00 00 00	 call	 _atexit
  0000a	59		 pop	 ecx
  0000b	c3		 ret	 0
??__E?ms_kPool@?$CPooledObject@VCTextureAnimationCCWDecorator@NEffectUpdateDecorator@@@@1V?$CDynamicPoolEx@VCTextureAnimationCCWDecorator@NEffectUpdateDecorator@@@@A@@YAXXZ ENDP ; `dynamic initializer for 'CPooledObject<NEffectUpdateDecorator::CTextureAnimationCCWDecorator>::ms_kPool''
text$di	ENDS
; Function compile flags: /Ogtp
;	COMDAT ??__F?ms_kPool@?$CPooledObject@VCTextureAnimationCWDecorator@NEffectUpdateDecorator@@@@1V?$CDynamicPoolEx@VCTextureAnimationCWDecorator@NEffectUpdateDecorator@@@@A@@YAXXZ
text$yd	SEGMENT
??__F?ms_kPool@?$CPooledObject@VCTextureAnimationCWDecorator@NEffectUpdateDecorator@@@@1V?$CDynamicPoolEx@VCTextureAnimationCWDecorator@NEffectUpdateDecorator@@@@A@@YAXXZ PROC ; `dynamic atexit destructor for 'CPooledObject<NEffectUpdateDecorator::CTextureAnimationCWDecorator>::ms_kPool'', COMDAT
  00000	b9 00 00 00 00	 mov	 ecx, OFFSET ?ms_kPool@?$CPooledObject@VCTextureAnimationCWDecorator@NEffectUpdateDecorator@@@@1V?$CDynamicPoolEx@VCTextureAnimationCWDecorator@NEffectUpdateDecorator@@@@A ; CPooledObject<NEffectUpdateDecorator::CTextureAnimationCWDecorator>::ms_kPool
  00005	e9 00 00 00 00	 jmp	 ??1?$CDynamicPoolEx@VCTextureAnimationCWDecorator@NEffectUpdateDecorator@@@@UAE@XZ ; CDynamicPoolEx<NEffectUpdateDecorator::CTextureAnimationCWDecorator>::~CDynamicPoolEx<NEffectUpdateDecorator::CTextureAnimationCWDecorator>
??__F?ms_kPool@?$CPooledObject@VCTextureAnimationCWDecorator@NEffectUpdateDecorator@@@@1V?$CDynamicPoolEx@VCTextureAnimationCWDecorator@NEffectUpdateDecorator@@@@A@@YAXXZ ENDP ; `dynamic atexit destructor for 'CPooledObject<NEffectUpdateDecorator::CTextureAnimationCWDecorator>::ms_kPool''
text$yd	ENDS
; Function compile flags: /Ogtp
; File D:\Metin2 Server Files\mainline\SRC_2014\Metin2Client\eterLib\Pool.h
;	COMDAT ??__E?ms_kPool@?$CPooledObject@VCTextureAnimationCWDecorator@NEffectUpdateDecorator@@@@1V?$CDynamicPoolEx@VCTextureAnimationCWDecorator@NEffectUpdateDecorator@@@@A@@YAXXZ
text$di	SEGMENT
??__E?ms_kPool@?$CPooledObject@VCTextureAnimationCWDecorator@NEffectUpdateDecorator@@@@1V?$CDynamicPoolEx@VCTextureAnimationCWDecorator@NEffectUpdateDecorator@@@@A@@YAXXZ PROC ; `dynamic initializer for 'CPooledObject<NEffectUpdateDecorator::CTextureAnimationCWDecorator>::ms_kPool'', COMDAT

; 272  : template <class T> CDynamicPoolEx<T> CPooledObject<T>::ms_kPool;

  00000	68 00 00 00 00	 push	 OFFSET ??__F?ms_kPool@?$CPooledObject@VCTextureAnimationCWDecorator@NEffectUpdateDecorator@@@@1V?$CDynamicPoolEx@VCTextureAnimationCWDecorator@NEffectUpdateDecorator@@@@A@@YAXXZ ; `dynamic atexit destructor for 'CPooledObject<NEffectUpdateDecorator::CTextureAnimationCWDecorator>::ms_kPool''
  00005	e8 00 00 00 00	 call	 _atexit
  0000a	59		 pop	 ecx
  0000b	c3		 ret	 0
??__E?ms_kPool@?$CPooledObject@VCTextureAnimationCWDecorator@NEffectUpdateDecorator@@@@1V?$CDynamicPoolEx@VCTextureAnimationCWDecorator@NEffectUpdateDecorator@@@@A@@YAXXZ ENDP ; `dynamic initializer for 'CPooledObject<NEffectUpdateDecorator::CTextureAnimationCWDecorator>::ms_kPool''
text$di	ENDS
; Function compile flags: /Ogtp
;	COMDAT ??__F?ms_kPool@?$CPooledObject@VCNullDecorator@NEffectUpdateDecorator@@@@1V?$CDynamicPoolEx@VCNullDecorator@NEffectUpdateDecorator@@@@A@@YAXXZ
text$yd	SEGMENT
??__F?ms_kPool@?$CPooledObject@VCNullDecorator@NEffectUpdateDecorator@@@@1V?$CDynamicPoolEx@VCNullDecorator@NEffectUpdateDecorator@@@@A@@YAXXZ PROC ; `dynamic atexit destructor for 'CPooledObject<NEffectUpdateDecorator::CNullDecorator>::ms_kPool'', COMDAT
  00000	b9 00 00 00 00	 mov	 ecx, OFFSET ?ms_kPool@?$CPooledObject@VCNullDecorator@NEffectUpdateDecorator@@@@1V?$CDynamicPoolEx@VCNullDecorator@NEffectUpdateDecorator@@@@A ; CPooledObject<NEffectUpdateDecorator::CNullDecorator>::ms_kPool
  00005	e9 00 00 00 00	 jmp	 ??1?$CDynamicPoolEx@VCNullDecorator@NEffectUpdateDecorator@@@@UAE@XZ ; CDynamicPoolEx<NEffectUpdateDecorator::CNullDecorator>::~CDynamicPoolEx<NEffectUpdateDecorator::CNullDecorator>
??__F?ms_kPool@?$CPooledObject@VCNullDecorator@NEffectUpdateDecorator@@@@1V?$CDynamicPoolEx@VCNullDecorator@NEffectUpdateDecorator@@@@A@@YAXXZ ENDP ; `dynamic atexit destructor for 'CPooledObject<NEffectUpdateDecorator::CNullDecorator>::ms_kPool''
text$yd	ENDS
; Function compile flags: /Ogtp
; File D:\Metin2 Server Files\mainline\SRC_2014\Metin2Client\eterLib\Pool.h
;	COMDAT ??__E?ms_kPool@?$CPooledObject@VCNullDecorator@NEffectUpdateDecorator@@@@1V?$CDynamicPoolEx@VCNullDecorator@NEffectUpdateDecorator@@@@A@@YAXXZ
text$di	SEGMENT
??__E?ms_kPool@?$CPooledObject@VCNullDecorator@NEffectUpdateDecorator@@@@1V?$CDynamicPoolEx@VCNullDecorator@NEffectUpdateDecorator@@@@A@@YAXXZ PROC ; `dynamic initializer for 'CPooledObject<NEffectUpdateDecorator::CNullDecorator>::ms_kPool'', COMDAT

; 272  : template <class T> CDynamicPoolEx<T> CPooledObject<T>::ms_kPool;

  00000	68 00 00 00 00	 push	 OFFSET ??__F?ms_kPool@?$CPooledObject@VCNullDecorator@NEffectUpdateDecorator@@@@1V?$CDynamicPoolEx@VCNullDecorator@NEffectUpdateDecorator@@@@A@@YAXXZ ; `dynamic atexit destructor for 'CPooledObject<NEffectUpdateDecorator::CNullDecorator>::ms_kPool''
  00005	e8 00 00 00 00	 call	 _atexit
  0000a	59		 pop	 ecx
  0000b	c3		 ret	 0
??__E?ms_kPool@?$CPooledObject@VCNullDecorator@NEffectUpdateDecorator@@@@1V?$CDynamicPoolEx@VCNullDecorator@NEffectUpdateDecorator@@@@A@@YAXXZ ENDP ; `dynamic initializer for 'CPooledObject<NEffectUpdateDecorator::CNullDecorator>::ms_kPool''
text$di	ENDS
; Function compile flags: /Ogtp
;	COMDAT ??__F?ms_kPool@?$CPooledObject@VCHeaderDecorator@NEffectUpdateDecorator@@@@1V?$CDynamicPoolEx@VCHeaderDecorator@NEffectUpdateDecorator@@@@A@@YAXXZ
text$yd	SEGMENT
??__F?ms_kPool@?$CPooledObject@VCHeaderDecorator@NEffectUpdateDecorator@@@@1V?$CDynamicPoolEx@VCHeaderDecorator@NEffectUpdateDecorator@@@@A@@YAXXZ PROC ; `dynamic atexit destructor for 'CPooledObject<NEffectUpdateDecorator::CHeaderDecorator>::ms_kPool'', COMDAT
  00000	b9 00 00 00 00	 mov	 ecx, OFFSET ?ms_kPool@?$CPooledObject@VCHeaderDecorator@NEffectUpdateDecorator@@@@1V?$CDynamicPoolEx@VCHeaderDecorator@NEffectUpdateDecorator@@@@A ; CPooledObject<NEffectUpdateDecorator::CHeaderDecorator>::ms_kPool
  00005	e9 00 00 00 00	 jmp	 ??1?$CDynamicPoolEx@VCHeaderDecorator@NEffectUpdateDecorator@@@@UAE@XZ ; CDynamicPoolEx<NEffectUpdateDecorator::CHeaderDecorator>::~CDynamicPoolEx<NEffectUpdateDecorator::CHeaderDecorator>
??__F?ms_kPool@?$CPooledObject@VCHeaderDecorator@NEffectUpdateDecorator@@@@1V?$CDynamicPoolEx@VCHeaderDecorator@NEffectUpdateDecorator@@@@A@@YAXXZ ENDP ; `dynamic atexit destructor for 'CPooledObject<NEffectUpdateDecorator::CHeaderDecorator>::ms_kPool''
text$yd	ENDS
; Function compile flags: /Ogtp
; File D:\Metin2 Server Files\mainline\SRC_2014\Metin2Client\eterLib\Pool.h
;	COMDAT ??__E?ms_kPool@?$CPooledObject@VCHeaderDecorator@NEffectUpdateDecorator@@@@1V?$CDynamicPoolEx@VCHeaderDecorator@NEffectUpdateDecorator@@@@A@@YAXXZ
text$di	SEGMENT
??__E?ms_kPool@?$CPooledObject@VCHeaderDecorator@NEffectUpdateDecorator@@@@1V?$CDynamicPoolEx@VCHeaderDecorator@NEffectUpdateDecorator@@@@A@@YAXXZ PROC ; `dynamic initializer for 'CPooledObject<NEffectUpdateDecorator::CHeaderDecorator>::ms_kPool'', COMDAT

; 272  : template <class T> CDynamicPoolEx<T> CPooledObject<T>::ms_kPool;

  00000	68 00 00 00 00	 push	 OFFSET ??__F?ms_kPool@?$CPooledObject@VCHeaderDecorator@NEffectUpdateDecorator@@@@1V?$CDynamicPoolEx@VCHeaderDecorator@NEffectUpdateDecorator@@@@A@@YAXXZ ; `dynamic atexit destructor for 'CPooledObject<NEffectUpdateDecorator::CHeaderDecorator>::ms_kPool''
  00005	e8 00 00 00 00	 call	 _atexit
  0000a	59		 pop	 ecx
  0000b	c3		 ret	 0
??__E?ms_kPool@?$CPooledObject@VCHeaderDecorator@NEffectUpdateDecorator@@@@1V?$CDynamicPoolEx@VCHeaderDecorator@NEffectUpdateDecorator@@@@A@@YAXXZ ENDP ; `dynamic initializer for 'CPooledObject<NEffectUpdateDecorator::CHeaderDecorator>::ms_kPool''
text$di	ENDS
; Function compile flags: /Ogtp
; File C:\Program Files (x86)\Microsoft Visual Studio\2019\Community\VC\Tools\MSVC\14.28.29333\include\xmemory
;	COMDAT ??$_Destroy_range@V?$allocator@PAVCRotationDecorator@NEffectUpdateDecorator@@@std@@@std@@YAXPAPAVCRotationDecorator@NEffectUpdateDecorator@@QAPAV12@AAV?$allocator@PAVCRotationDecorator@NEffectUpdateDecorator@@@0@@Z
_TEXT	SEGMENT
__First$ = 8						; size = 4
__Last$ = 12						; size = 4
__Al$ = 16						; size = 4
??$_Destroy_range@V?$allocator@PAVCRotationDecorator@NEffectUpdateDecorator@@@std@@@std@@YAXPAPAVCRotationDecorator@NEffectUpdateDecorator@@QAPAV12@AAV?$allocator@PAVCRotationDecorator@NEffectUpdateDecorator@@@0@@Z PROC ; std::_Destroy_range<std::allocator<NEffectUpdateDecorator::CRotationDecorator *> >, COMDAT

; 963  :     // note that this is an optimization for debug mode codegen; in release mode the BE removes all of this
; 964  :     using _Ty = typename _Alloc::value_type;
; 965  :     if _CONSTEXPR_IF (!conjunction_v<is_trivially_destructible<_Ty>, _Uses_default_destroy<_Alloc, _Ty*>>) {
; 966  :         for (; _First != _Last; ++_First) {
; 967  :             allocator_traits<_Alloc>::destroy(_Al, _Unfancy(_First));
; 968  :         }
; 969  :     }
; 970  : }

  00000	c2 00 00	 ret	 0
??$_Destroy_range@V?$allocator@PAVCRotationDecorator@NEffectUpdateDecorator@@@std@@@std@@YAXPAPAVCRotationDecorator@NEffectUpdateDecorator@@QAPAV12@AAV?$allocator@PAVCRotationDecorator@NEffectUpdateDecorator@@@0@@Z ENDP ; std::_Destroy_range<std::allocator<NEffectUpdateDecorator::CRotationDecorator *> >
_TEXT	ENDS
; Function compile flags: /Ogtp
; File C:\Program Files (x86)\Microsoft Visual Studio\2019\Community\VC\Tools\MSVC\14.28.29333\include\xmemory
;	COMDAT ??$_Destroy_range@V?$allocator@PAVCGravityDecorator@NEffectUpdateDecorator@@@std@@@std@@YAXPAPAVCGravityDecorator@NEffectUpdateDecorator@@QAPAV12@AAV?$allocator@PAVCGravityDecorator@NEffectUpdateDecorator@@@0@@Z
_TEXT	SEGMENT
__First$ = 8						; size = 4
__Last$ = 12						; size = 4
__Al$ = 16						; size = 4
??$_Destroy_range@V?$allocator@PAVCGravityDecorator@NEffectUpdateDecorator@@@std@@@std@@YAXPAPAVCGravityDecorator@NEffectUpdateDecorator@@QAPAV12@AAV?$allocator@PAVCGravityDecorator@NEffectUpdateDecorator@@@0@@Z PROC ; std::_Destroy_range<std::allocator<NEffectUpdateDecorator::CGravityDecorator *> >, COMDAT

; 963  :     // note that this is an optimization for debug mode codegen; in release mode the BE removes all of this
; 964  :     using _Ty = typename _Alloc::value_type;
; 965  :     if _CONSTEXPR_IF (!conjunction_v<is_trivially_destructible<_Ty>, _Uses_default_destroy<_Alloc, _Ty*>>) {
; 966  :         for (; _First != _Last; ++_First) {
; 967  :             allocator_traits<_Alloc>::destroy(_Al, _Unfancy(_First));
; 968  :         }
; 969  :     }
; 970  : }

  00000	c2 00 00	 ret	 0
??$_Destroy_range@V?$allocator@PAVCGravityDecorator@NEffectUpdateDecorator@@@std@@@std@@YAXPAPAVCGravityDecorator@NEffectUpdateDecorator@@QAPAV12@AAV?$allocator@PAVCGravityDecorator@NEffectUpdateDecorator@@@0@@Z ENDP ; std::_Destroy_range<std::allocator<NEffectUpdateDecorator::CGravityDecorator *> >
_TEXT	ENDS
; Function compile flags: /Ogtp
; File C:\Program Files (x86)\Microsoft Visual Studio\2019\Community\VC\Tools\MSVC\14.28.29333\include\xmemory
;	COMDAT ??$_Destroy_range@V?$allocator@PAVCAirResistanceDecorator@NEffectUpdateDecorator@@@std@@@std@@YAXPAPAVCAirResistanceDecorator@NEffectUpdateDecorator@@QAPAV12@AAV?$allocator@PAVCAirResistanceDecorator@NEffectUpdateDecorator@@@0@@Z
_TEXT	SEGMENT
__First$ = 8						; size = 4
__Last$ = 12						; size = 4
__Al$ = 16						; size = 4
??$_Destroy_range@V?$allocator@PAVCAirResistanceDecorator@NEffectUpdateDecorator@@@std@@@std@@YAXPAPAVCAirResistanceDecorator@NEffectUpdateDecorator@@QAPAV12@AAV?$allocator@PAVCAirResistanceDecorator@NEffectUpdateDecorator@@@0@@Z PROC ; std::_Destroy_range<std::allocator<NEffectUpdateDecorator::CAirResistanceDecorator *> >, COMDAT

; 963  :     // note that this is an optimization for debug mode codegen; in release mode the BE removes all of this
; 964  :     using _Ty = typename _Alloc::value_type;
; 965  :     if _CONSTEXPR_IF (!conjunction_v<is_trivially_destructible<_Ty>, _Uses_default_destroy<_Alloc, _Ty*>>) {
; 966  :         for (; _First != _Last; ++_First) {
; 967  :             allocator_traits<_Alloc>::destroy(_Al, _Unfancy(_First));
; 968  :         }
; 969  :     }
; 970  : }

  00000	c2 00 00	 ret	 0
??$_Destroy_range@V?$allocator@PAVCAirResistanceDecorator@NEffectUpdateDecorator@@@std@@@std@@YAXPAPAVCAirResistanceDecorator@NEffectUpdateDecorator@@QAPAV12@AAV?$allocator@PAVCAirResistanceDecorator@NEffectUpdateDecorator@@@0@@Z ENDP ; std::_Destroy_range<std::allocator<NEffectUpdateDecorator::CAirResistanceDecorator *> >
_TEXT	ENDS
; Function compile flags: /Ogtp
; File C:\Program Files (x86)\Microsoft Visual Studio\2019\Community\VC\Tools\MSVC\14.28.29333\include\xmemory
;	COMDAT ??$_Destroy_range@V?$allocator@PAVCTextureAnimationRandomDecorator@NEffectUpdateDecorator@@@std@@@std@@YAXPAPAVCTextureAnimationRandomDecorator@NEffectUpdateDecorator@@QAPAV12@AAV?$allocator@PAVCTextureAnimationRandomDecorator@NEffectUpdateDecorator@@@0@@Z
_TEXT	SEGMENT
__First$ = 8						; size = 4
__Last$ = 12						; size = 4
__Al$ = 16						; size = 4
??$_Destroy_range@V?$allocator@PAVCTextureAnimationRandomDecorator@NEffectUpdateDecorator@@@std@@@std@@YAXPAPAVCTextureAnimationRandomDecorator@NEffectUpdateDecorator@@QAPAV12@AAV?$allocator@PAVCTextureAnimationRandomDecorator@NEffectUpdateDecorator@@@0@@Z PROC ; std::_Destroy_range<std::allocator<NEffectUpdateDecorator::CTextureAnimationRandomDecorator *> >, COMDAT

; 963  :     // note that this is an optimization for debug mode codegen; in release mode the BE removes all of this
; 964  :     using _Ty = typename _Alloc::value_type;
; 965  :     if _CONSTEXPR_IF (!conjunction_v<is_trivially_destructible<_Ty>, _Uses_default_destroy<_Alloc, _Ty*>>) {
; 966  :         for (; _First != _Last; ++_First) {
; 967  :             allocator_traits<_Alloc>::destroy(_Al, _Unfancy(_First));
; 968  :         }
; 969  :     }
; 970  : }

  00000	c2 00 00	 ret	 0
??$_Destroy_range@V?$allocator@PAVCTextureAnimationRandomDecorator@NEffectUpdateDecorator@@@std@@@std@@YAXPAPAVCTextureAnimationRandomDecorator@NEffectUpdateDecorator@@QAPAV12@AAV?$allocator@PAVCTextureAnimationRandomDecorator@NEffectUpdateDecorator@@@0@@Z ENDP ; std::_Destroy_range<std::allocator<NEffectUpdateDecorator::CTextureAnimationRandomDecorator *> >
_TEXT	ENDS
; Function compile flags: /Ogtp
; File C:\Program Files (x86)\Microsoft Visual Studio\2019\Community\VC\Tools\MSVC\14.28.29333\include\xmemory
;	COMDAT ??$_Destroy_range@V?$allocator@PAVCTextureAnimationCCWDecorator@NEffectUpdateDecorator@@@std@@@std@@YAXPAPAVCTextureAnimationCCWDecorator@NEffectUpdateDecorator@@QAPAV12@AAV?$allocator@PAVCTextureAnimationCCWDecorator@NEffectUpdateDecorator@@@0@@Z
_TEXT	SEGMENT
__First$ = 8						; size = 4
__Last$ = 12						; size = 4
__Al$ = 16						; size = 4
??$_Destroy_range@V?$allocator@PAVCTextureAnimationCCWDecorator@NEffectUpdateDecorator@@@std@@@std@@YAXPAPAVCTextureAnimationCCWDecorator@NEffectUpdateDecorator@@QAPAV12@AAV?$allocator@PAVCTextureAnimationCCWDecorator@NEffectUpdateDecorator@@@0@@Z PROC ; std::_Destroy_range<std::allocator<NEffectUpdateDecorator::CTextureAnimationCCWDecorator *> >, COMDAT

; 963  :     // note that this is an optimization for debug mode codegen; in release mode the BE removes all of this
; 964  :     using _Ty = typename _Alloc::value_type;
; 965  :     if _CONSTEXPR_IF (!conjunction_v<is_trivially_destructible<_Ty>, _Uses_default_destroy<_Alloc, _Ty*>>) {
; 966  :         for (; _First != _Last; ++_First) {
; 967  :             allocator_traits<_Alloc>::destroy(_Al, _Unfancy(_First));
; 968  :         }
; 969  :     }
; 970  : }

  00000	c2 00 00	 ret	 0
??$_Destroy_range@V?$allocator@PAVCTextureAnimationCCWDecorator@NEffectUpdateDecorator@@@std@@@std@@YAXPAPAVCTextureAnimationCCWDecorator@NEffectUpdateDecorator@@QAPAV12@AAV?$allocator@PAVCTextureAnimationCCWDecorator@NEffectUpdateDecorator@@@0@@Z ENDP ; std::_Destroy_range<std::allocator<NEffectUpdateDecorator::CTextureAnimationCCWDecorator *> >
_TEXT	ENDS
; Function compile flags: /Ogtp
; File C:\Program Files (x86)\Microsoft Visual Studio\2019\Community\VC\Tools\MSVC\14.28.29333\include\xmemory
;	COMDAT ??$_Destroy_range@V?$allocator@PAVCTextureAnimationCWDecorator@NEffectUpdateDecorator@@@std@@@std@@YAXPAPAVCTextureAnimationCWDecorator@NEffectUpdateDecorator@@QAPAV12@AAV?$allocator@PAVCTextureAnimationCWDecorator@NEffectUpdateDecorator@@@0@@Z
_TEXT	SEGMENT
__First$ = 8						; size = 4
__Last$ = 12						; size = 4
__Al$ = 16						; size = 4
??$_Destroy_range@V?$allocator@PAVCTextureAnimationCWDecorator@NEffectUpdateDecorator@@@std@@@std@@YAXPAPAVCTextureAnimationCWDecorator@NEffectUpdateDecorator@@QAPAV12@AAV?$allocator@PAVCTextureAnimationCWDecorator@NEffectUpdateDecorator@@@0@@Z PROC ; std::_Destroy_range<std::allocator<NEffectUpdateDecorator::CTextureAnimationCWDecorator *> >, COMDAT

; 963  :     // note that this is an optimization for debug mode codegen; in release mode the BE removes all of this
; 964  :     using _Ty = typename _Alloc::value_type;
; 965  :     if _CONSTEXPR_IF (!conjunction_v<is_trivially_destructible<_Ty>, _Uses_default_destroy<_Alloc, _Ty*>>) {
; 966  :         for (; _First != _Last; ++_First) {
; 967  :             allocator_traits<_Alloc>::destroy(_Al, _Unfancy(_First));
; 968  :         }
; 969  :     }
; 970  : }

  00000	c2 00 00	 ret	 0
??$_Destroy_range@V?$allocator@PAVCTextureAnimationCWDecorator@NEffectUpdateDecorator@@@std@@@std@@YAXPAPAVCTextureAnimationCWDecorator@NEffectUpdateDecorator@@QAPAV12@AAV?$allocator@PAVCTextureAnimationCWDecorator@NEffectUpdateDecorator@@@0@@Z ENDP ; std::_Destroy_range<std::allocator<NEffectUpdateDecorator::CTextureAnimationCWDecorator *> >
_TEXT	ENDS
; Function compile flags: /Ogtp
; File C:\Program Files (x86)\Microsoft Visual Studio\2019\Community\VC\Tools\MSVC\14.28.29333\include\xmemory
;	COMDAT ??$_Destroy_range@V?$allocator@PAVCNullDecorator@NEffectUpdateDecorator@@@std@@@std@@YAXPAPAVCNullDecorator@NEffectUpdateDecorator@@QAPAV12@AAV?$allocator@PAVCNullDecorator@NEffectUpdateDecorator@@@0@@Z
_TEXT	SEGMENT
__First$ = 8						; size = 4
__Last$ = 12						; size = 4
__Al$ = 16						; size = 4
??$_Destroy_range@V?$allocator@PAVCNullDecorator@NEffectUpdateDecorator@@@std@@@std@@YAXPAPAVCNullDecorator@NEffectUpdateDecorator@@QAPAV12@AAV?$allocator@PAVCNullDecorator@NEffectUpdateDecorator@@@0@@Z PROC ; std::_Destroy_range<std::allocator<NEffectUpdateDecorator::CNullDecorator *> >, COMDAT

; 963  :     // note that this is an optimization for debug mode codegen; in release mode the BE removes all of this
; 964  :     using _Ty = typename _Alloc::value_type;
; 965  :     if _CONSTEXPR_IF (!conjunction_v<is_trivially_destructible<_Ty>, _Uses_default_destroy<_Alloc, _Ty*>>) {
; 966  :         for (; _First != _Last; ++_First) {
; 967  :             allocator_traits<_Alloc>::destroy(_Al, _Unfancy(_First));
; 968  :         }
; 969  :     }
; 970  : }

  00000	c2 00 00	 ret	 0
??$_Destroy_range@V?$allocator@PAVCNullDecorator@NEffectUpdateDecorator@@@std@@@std@@YAXPAPAVCNullDecorator@NEffectUpdateDecorator@@QAPAV12@AAV?$allocator@PAVCNullDecorator@NEffectUpdateDecorator@@@0@@Z ENDP ; std::_Destroy_range<std::allocator<NEffectUpdateDecorator::CNullDecorator *> >
_TEXT	ENDS
; Function compile flags: /Ogtp
; File C:\Program Files (x86)\Microsoft Visual Studio\2019\Community\VC\Tools\MSVC\14.28.29333\include\xmemory
;	COMDAT ??$_Destroy_range@V?$allocator@PAVCHeaderDecorator@NEffectUpdateDecorator@@@std@@@std@@YAXPAPAVCHeaderDecorator@NEffectUpdateDecorator@@QAPAV12@AAV?$allocator@PAVCHeaderDecorator@NEffectUpdateDecorator@@@0@@Z
_TEXT	SEGMENT
__First$ = 8						; size = 4
__Last$ = 12						; size = 4
__Al$ = 16						; size = 4
??$_Destroy_range@V?$allocator@PAVCHeaderDecorator@NEffectUpdateDecorator@@@std@@@std@@YAXPAPAVCHeaderDecorator@NEffectUpdateDecorator@@QAPAV12@AAV?$allocator@PAVCHeaderDecorator@NEffectUpdateDecorator@@@0@@Z PROC ; std::_Destroy_range<std::allocator<NEffectUpdateDecorator::CHeaderDecorator *> >, COMDAT

; 963  :     // note that this is an optimization for debug mode codegen; in release mode the BE removes all of this
; 964  :     using _Ty = typename _Alloc::value_type;
; 965  :     if _CONSTEXPR_IF (!conjunction_v<is_trivially_destructible<_Ty>, _Uses_default_destroy<_Alloc, _Ty*>>) {
; 966  :         for (; _First != _Last; ++_First) {
; 967  :             allocator_traits<_Alloc>::destroy(_Al, _Unfancy(_First));
; 968  :         }
; 969  :     }
; 970  : }

  00000	c2 00 00	 ret	 0
??$_Destroy_range@V?$allocator@PAVCHeaderDecorator@NEffectUpdateDecorator@@@std@@@std@@YAXPAPAVCHeaderDecorator@NEffectUpdateDecorator@@QAPAV12@AAV?$allocator@PAVCHeaderDecorator@NEffectUpdateDecorator@@@0@@Z ENDP ; std::_Destroy_range<std::allocator<NEffectUpdateDecorator::CHeaderDecorator *> >
_TEXT	ENDS
; Function compile flags: /Ogtp
; File C:\Program Files (x86)\Microsoft Visual Studio\2019\Community\VC\Tools\MSVC\14.28.29333\include\xmemory
;	COMDAT ??$_Pocca@V?$allocator@D@std@@@std@@YAXAAV?$allocator@D@0@ABV10@@Z
_TEXT	SEGMENT
__Left$ = 8						; size = 4
__Right$ = 12						; size = 4
??$_Pocca@V?$allocator@D@std@@@std@@YAXAAV?$allocator@D@0@ABV10@@Z PROC ; std::_Pocca<std::allocator<char> >, COMDAT

; 886  :     if constexpr (allocator_traits<_Alloc>::propagate_on_container_copy_assignment::value) {
; 887  :         _Left = _Right;
; 888  :     }
; 889  : }

  00000	c2 00 00	 ret	 0
??$_Pocca@V?$allocator@D@std@@@std@@YAXAAV?$allocator@D@0@ABV10@@Z ENDP ; std::_Pocca<std::allocator<char> >
_TEXT	ENDS
; Function compile flags: /Ogtp
;	COMDAT ??_G?$CDynamicPoolEx@VCHeaderDecorator@NEffectUpdateDecorator@@@@UAEPAXI@Z
_TEXT	SEGMENT
___flags$ = 8						; size = 4
??_G?$CDynamicPoolEx@VCHeaderDecorator@NEffectUpdateDecorator@@@@UAEPAXI@Z PROC ; CDynamicPoolEx<NEffectUpdateDecorator::CHeaderDecorator>::`scalar deleting destructor', COMDAT
; _this$ = ecx
  00000	55		 push	 ebp
  00001	8b ec		 mov	 ebp, esp
  00003	56		 push	 esi
  00004	8b f1		 mov	 esi, ecx
  00006	e8 00 00 00 00	 call	 ??1?$CDynamicPoolEx@VCHeaderDecorator@NEffectUpdateDecorator@@@@UAE@XZ ; CDynamicPoolEx<NEffectUpdateDecorator::CHeaderDecorator>::~CDynamicPoolEx<NEffectUpdateDecorator::CHeaderDecorator>
  0000b	f6 45 08 01	 test	 BYTE PTR ___flags$[ebp], 1
  0000f	74 0b		 je	 SHORT $LN4@scalar
  00011	6a 24		 push	 36			; 00000024H
  00013	56		 push	 esi
  00014	e8 00 00 00 00	 call	 ??3@YAXPAXI@Z		; operator delete
  00019	83 c4 08	 add	 esp, 8
$LN4@scalar:
  0001c	8b c6		 mov	 eax, esi
  0001e	5e		 pop	 esi
  0001f	5d		 pop	 ebp
  00020	c2 04 00	 ret	 4
??_G?$CDynamicPoolEx@VCHeaderDecorator@NEffectUpdateDecorator@@@@UAEPAXI@Z ENDP ; CDynamicPoolEx<NEffectUpdateDecorator::CHeaderDecorator>::`scalar deleting destructor'
_TEXT	ENDS
; Function compile flags: /Ogtp
; File D:\Metin2 Server Files\mainline\SRC_2014\Metin2Client\eterLib\Pool.h
;	COMDAT ?Delete@?$CDynamicPoolEx@VCHeaderDecorator@NEffectUpdateDecorator@@@@KAXPAVCHeaderDecorator@NEffectUpdateDecorator@@@Z
_TEXT	SEGMENT
_pkData$ = 8						; size = 4
?Delete@?$CDynamicPoolEx@VCHeaderDecorator@NEffectUpdateDecorator@@@@KAXPAVCHeaderDecorator@NEffectUpdateDecorator@@@Z PROC ; CDynamicPoolEx<NEffectUpdateDecorator::CHeaderDecorator>::Delete, COMDAT

; 224  : 			::operator delete(pkData);

  00000	e9 00 00 00 00	 jmp	 ??3@YAXPAX@Z		; operator delete
?Delete@?$CDynamicPoolEx@VCHeaderDecorator@NEffectUpdateDecorator@@@@KAXPAVCHeaderDecorator@NEffectUpdateDecorator@@@Z ENDP ; CDynamicPoolEx<NEffectUpdateDecorator::CHeaderDecorator>::Delete
_TEXT	ENDS
; Function compile flags: /Ogtp
; File D:\Metin2 Server Files\mainline\SRC_2014\Metin2Client\eterLib\Pool.h
; File C:\Program Files (x86)\Microsoft Visual Studio\2019\Community\VC\Tools\MSVC\14.28.29333\include\vector
; File C:\Program Files (x86)\Microsoft Visual Studio\2019\Community\VC\Tools\MSVC\14.28.29333\include\algorithm
; File D:\Metin2 Server Files\mainline\SRC_2014\Metin2Client\eterLib\Pool.h
; File C:\Program Files (x86)\Microsoft Visual Studio\2019\Community\VC\Tools\MSVC\14.28.29333\include\algorithm
; File D:\Metin2 Server Files\mainline\SRC_2014\Metin2Client\eterLib\Pool.h
; File C:\Program Files (x86)\Microsoft Visual Studio\2019\Community\VC\Tools\MSVC\14.28.29333\include\algorithm
; File D:\Metin2 Server Files\mainline\SRC_2014\Metin2Client\eterLib\Pool.h
; File C:\Program Files (x86)\Microsoft Visual Studio\2019\Community\VC\Tools\MSVC\14.28.29333\include\vector
; File C:\Program Files (x86)\Microsoft Visual Studio\2019\Community\VC\Tools\MSVC\14.28.29333\include\xmemory
; File C:\Program Files (x86)\Microsoft Visual Studio\2019\Community\VC\Tools\MSVC\14.28.29333\include\vector
; File C:\Program Files (x86)\Microsoft Visual Studio\2019\Community\VC\Tools\MSVC\14.28.29333\include\xmemory
; File C:\Program Files (x86)\Microsoft Visual Studio\2019\Community\VC\Tools\MSVC\14.28.29333\include\vector
; File C:\Program Files (x86)\Microsoft Visual Studio\2019\Community\VC\Tools\MSVC\14.28.29333\include\xmemory
; File C:\Program Files (x86)\Microsoft Visual Studio\2019\Community\VC\Tools\MSVC\14.28.29333\include\vector
; File C:\Program Files (x86)\Microsoft Visual Studio\2019\Community\VC\Tools\MSVC\14.28.29333\include\xmemory
; File C:\Program Files (x86)\Microsoft Visual Studio\2019\Community\VC\Tools\MSVC\14.28.29333\include\vector
; File D:\Metin2 Server Files\mainline\SRC_2014\Metin2Client\eterLib\Pool.h
;	COMDAT ??1?$CDynamicPoolEx@VCHeaderDecorator@NEffectUpdateDecorator@@@@UAE@XZ
_TEXT	SEGMENT
??1?$CDynamicPoolEx@VCHeaderDecorator@NEffectUpdateDecorator@@@@UAE@XZ PROC ; CDynamicPoolEx<NEffectUpdateDecorator::CHeaderDecorator>::~CDynamicPoolEx<NEffectUpdateDecorator::CHeaderDecorator>, COMDAT
; _this$ = ecx

; 132  : 		{

  00000	53		 push	 ebx
  00001	56		 push	 esi
  00002	57		 push	 edi
  00003	8b f9		 mov	 edi, ecx
  00005	c7 07 00 00 00
	00		 mov	 DWORD PTR [edi], OFFSET ??_7?$CDynamicPoolEx@VCHeaderDecorator@NEffectUpdateDecorator@@@@6B@
; File C:\Program Files (x86)\Microsoft Visual Studio\2019\Community\VC\Tools\MSVC\14.28.29333\include\vector

; 42   :     _Vector_const_iterator(_Tptr _Parg, const _Container_base* _Pvector) noexcept : _Ptr(_Parg) {

  0000b	8b 5f 08	 mov	 ebx, DWORD PTR [edi+8]
  0000e	8b 77 04	 mov	 esi, DWORD PTR [edi+4]
; File C:\Program Files (x86)\Microsoft Visual Studio\2019\Community\VC\Tools\MSVC\14.28.29333\include\algorithm

; 307  :     for (; _UFirst != _ULast; ++_UFirst) {

  00011	3b f3		 cmp	 esi, ebx
  00013	74 14		 je	 SHORT $LN19@CDynamicPo
$LL20@CDynamicPo:
; File D:\Metin2 Server Files\mainline\SRC_2014\Metin2Client\eterLib\Pool.h

; 224  : 			::operator delete(pkData);

  00015	ff 36		 push	 DWORD PTR [esi]
  00017	e8 00 00 00 00	 call	 ??3@YAXPAX@Z		; operator delete
; File C:\Program Files (x86)\Microsoft Visual Studio\2019\Community\VC\Tools\MSVC\14.28.29333\include\algorithm

; 307  :     for (; _UFirst != _ULast; ++_UFirst) {

  0001c	83 c6 04	 add	 esi, 4
; File D:\Metin2 Server Files\mainline\SRC_2014\Metin2Client\eterLib\Pool.h

; 224  : 			::operator delete(pkData);

  0001f	83 c4 04	 add	 esp, 4
; File C:\Program Files (x86)\Microsoft Visual Studio\2019\Community\VC\Tools\MSVC\14.28.29333\include\algorithm

; 307  :     for (; _UFirst != _ULast; ++_UFirst) {

  00022	3b f3		 cmp	 esi, ebx
  00024	75 ef		 jne	 SHORT $LL20@CDynamicPo
  00026	8b 77 04	 mov	 esi, DWORD PTR [edi+4]
$LN19@CDynamicPo:
; File D:\Metin2 Server Files\mainline\SRC_2014\Metin2Client\eterLib\Pool.h

; 162  : 			m_kVct_pkFree.clear();

  00029	8b 4f 10	 mov	 ecx, DWORD PTR [edi+16]
  0002c	89 77 08	 mov	 DWORD PTR [edi+8], esi
  0002f	89 4f 14	 mov	 DWORD PTR [edi+20], ecx
; File C:\Program Files (x86)\Microsoft Visual Studio\2019\Community\VC\Tools\MSVC\14.28.29333\include\vector

; 1694 :         if (_Myfirst) { // destroy and deallocate old array

  00032	85 c9		 test	 ecx, ecx
  00034	74 27		 je	 SHORT $LN27@CDynamicPo

; 1695 :             _Destroy(_Myfirst, _Mylast);
; 1696 :             _Getal().deallocate(_Myfirst, static_cast<size_type>(_Myend - _Myfirst));

  00036	8b 47 18	 mov	 eax, DWORD PTR [edi+24]
  00039	2b c1		 sub	 eax, ecx
; File C:\Program Files (x86)\Microsoft Visual Studio\2019\Community\VC\Tools\MSVC\14.28.29333\include\xmemory

; 810  :         _Deallocate<_New_alignof<_Ty>>(_Ptr, sizeof(_Ty) * _Count);

  0003b	83 e0 fc	 and	 eax, -4			; fffffffcH
  0003e	50		 push	 eax
  0003f	51		 push	 ecx
  00040	e8 00 00 00 00	 call	 ??$_Deallocate@$07$0A@@std@@YAXPAXI@Z ; std::_Deallocate<8,0>
; File C:\Program Files (x86)\Microsoft Visual Studio\2019\Community\VC\Tools\MSVC\14.28.29333\include\vector

; 1698 :             _Myfirst = pointer();

  00045	c7 47 10 00 00
	00 00		 mov	 DWORD PTR [edi+16], 0
; File C:\Program Files (x86)\Microsoft Visual Studio\2019\Community\VC\Tools\MSVC\14.28.29333\include\xmemory

; 810  :         _Deallocate<_New_alignof<_Ty>>(_Ptr, sizeof(_Ty) * _Count);

  0004c	83 c4 08	 add	 esp, 8
; File C:\Program Files (x86)\Microsoft Visual Studio\2019\Community\VC\Tools\MSVC\14.28.29333\include\vector

; 1699 :             _Mylast  = pointer();

  0004f	c7 47 14 00 00
	00 00		 mov	 DWORD PTR [edi+20], 0

; 1700 :             _Myend   = pointer();

  00056	c7 47 18 00 00
	00 00		 mov	 DWORD PTR [edi+24], 0
$LN27@CDynamicPo:

; 1694 :         if (_Myfirst) { // destroy and deallocate old array

  0005d	8b 4f 04	 mov	 ecx, DWORD PTR [edi+4]
  00060	85 c9		 test	 ecx, ecx
  00062	74 27		 je	 SHORT $LN34@CDynamicPo

; 1695 :             _Destroy(_Myfirst, _Mylast);
; 1696 :             _Getal().deallocate(_Myfirst, static_cast<size_type>(_Myend - _Myfirst));

  00064	8b 47 0c	 mov	 eax, DWORD PTR [edi+12]
  00067	2b c1		 sub	 eax, ecx
; File C:\Program Files (x86)\Microsoft Visual Studio\2019\Community\VC\Tools\MSVC\14.28.29333\include\xmemory

; 810  :         _Deallocate<_New_alignof<_Ty>>(_Ptr, sizeof(_Ty) * _Count);

  00069	83 e0 fc	 and	 eax, -4			; fffffffcH
  0006c	50		 push	 eax
  0006d	51		 push	 ecx
  0006e	e8 00 00 00 00	 call	 ??$_Deallocate@$07$0A@@std@@YAXPAXI@Z ; std::_Deallocate<8,0>
; File C:\Program Files (x86)\Microsoft Visual Studio\2019\Community\VC\Tools\MSVC\14.28.29333\include\vector

; 1698 :             _Myfirst = pointer();

  00073	c7 47 04 00 00
	00 00		 mov	 DWORD PTR [edi+4], 0
; File C:\Program Files (x86)\Microsoft Visual Studio\2019\Community\VC\Tools\MSVC\14.28.29333\include\xmemory

; 810  :         _Deallocate<_New_alignof<_Ty>>(_Ptr, sizeof(_Ty) * _Count);

  0007a	83 c4 08	 add	 esp, 8
; File C:\Program Files (x86)\Microsoft Visual Studio\2019\Community\VC\Tools\MSVC\14.28.29333\include\vector

; 1699 :             _Mylast  = pointer();

  0007d	c7 47 08 00 00
	00 00		 mov	 DWORD PTR [edi+8], 0

; 1700 :             _Myend   = pointer();

  00084	c7 47 0c 00 00
	00 00		 mov	 DWORD PTR [edi+12], 0
$LN34@CDynamicPo:
  0008b	5f		 pop	 edi
; File D:\Metin2 Server Files\mainline\SRC_2014\Metin2Client\eterLib\Pool.h

; 142  : 		}

  0008c	5e		 pop	 esi
  0008d	5b		 pop	 ebx
  0008e	c3		 ret	 0
??1?$CDynamicPoolEx@VCHeaderDecorator@NEffectUpdateDecorator@@@@UAE@XZ ENDP ; CDynamicPoolEx<NEffectUpdateDecorator::CHeaderDecorator>::~CDynamicPoolEx<NEffectUpdateDecorator::CHeaderDecorator>
_TEXT	ENDS
; Function compile flags: /Ogtp
;	COMDAT ??_G?$CDynamicPoolEx@VCNullDecorator@NEffectUpdateDecorator@@@@UAEPAXI@Z
_TEXT	SEGMENT
___flags$ = 8						; size = 4
??_G?$CDynamicPoolEx@VCNullDecorator@NEffectUpdateDecorator@@@@UAEPAXI@Z PROC ; CDynamicPoolEx<NEffectUpdateDecorator::CNullDecorator>::`scalar deleting destructor', COMDAT
; _this$ = ecx
  00000	55		 push	 ebp
  00001	8b ec		 mov	 ebp, esp
  00003	56		 push	 esi
  00004	8b f1		 mov	 esi, ecx
  00006	e8 00 00 00 00	 call	 ??1?$CDynamicPoolEx@VCNullDecorator@NEffectUpdateDecorator@@@@UAE@XZ ; CDynamicPoolEx<NEffectUpdateDecorator::CNullDecorator>::~CDynamicPoolEx<NEffectUpdateDecorator::CNullDecorator>
  0000b	f6 45 08 01	 test	 BYTE PTR ___flags$[ebp], 1
  0000f	74 0b		 je	 SHORT $LN4@scalar
  00011	6a 24		 push	 36			; 00000024H
  00013	56		 push	 esi
  00014	e8 00 00 00 00	 call	 ??3@YAXPAXI@Z		; operator delete
  00019	83 c4 08	 add	 esp, 8
$LN4@scalar:
  0001c	8b c6		 mov	 eax, esi
  0001e	5e		 pop	 esi
  0001f	5d		 pop	 ebp
  00020	c2 04 00	 ret	 4
??_G?$CDynamicPoolEx@VCNullDecorator@NEffectUpdateDecorator@@@@UAEPAXI@Z ENDP ; CDynamicPoolEx<NEffectUpdateDecorator::CNullDecorator>::`scalar deleting destructor'
_TEXT	ENDS
; Function compile flags: /Ogtp
; File D:\Metin2 Server Files\mainline\SRC_2014\Metin2Client\eterLib\Pool.h
;	COMDAT ?Delete@?$CDynamicPoolEx@VCNullDecorator@NEffectUpdateDecorator@@@@KAXPAVCNullDecorator@NEffectUpdateDecorator@@@Z
_TEXT	SEGMENT
_pkData$ = 8						; size = 4
?Delete@?$CDynamicPoolEx@VCNullDecorator@NEffectUpdateDecorator@@@@KAXPAVCNullDecorator@NEffectUpdateDecorator@@@Z PROC ; CDynamicPoolEx<NEffectUpdateDecorator::CNullDecorator>::Delete, COMDAT

; 224  : 			::operator delete(pkData);

  00000	e9 00 00 00 00	 jmp	 ??3@YAXPAX@Z		; operator delete
?Delete@?$CDynamicPoolEx@VCNullDecorator@NEffectUpdateDecorator@@@@KAXPAVCNullDecorator@NEffectUpdateDecorator@@@Z ENDP ; CDynamicPoolEx<NEffectUpdateDecorator::CNullDecorator>::Delete
_TEXT	ENDS
; Function compile flags: /Ogtp
; File D:\Metin2 Server Files\mainline\SRC_2014\Metin2Client\eterLib\Pool.h
; File C:\Program Files (x86)\Microsoft Visual Studio\2019\Community\VC\Tools\MSVC\14.28.29333\include\vector
; File C:\Program Files (x86)\Microsoft Visual Studio\2019\Community\VC\Tools\MSVC\14.28.29333\include\algorithm
; File D:\Metin2 Server Files\mainline\SRC_2014\Metin2Client\eterLib\Pool.h
; File C:\Program Files (x86)\Microsoft Visual Studio\2019\Community\VC\Tools\MSVC\14.28.29333\include\algorithm
; File D:\Metin2 Server Files\mainline\SRC_2014\Metin2Client\eterLib\Pool.h
; File C:\Program Files (x86)\Microsoft Visual Studio\2019\Community\VC\Tools\MSVC\14.28.29333\include\algorithm
; File D:\Metin2 Server Files\mainline\SRC_2014\Metin2Client\eterLib\Pool.h
; File C:\Program Files (x86)\Microsoft Visual Studio\2019\Community\VC\Tools\MSVC\14.28.29333\include\vector
; File C:\Program Files (x86)\Microsoft Visual Studio\2019\Community\VC\Tools\MSVC\14.28.29333\include\xmemory
; File C:\Program Files (x86)\Microsoft Visual Studio\2019\Community\VC\Tools\MSVC\14.28.29333\include\vector
; File C:\Program Files (x86)\Microsoft Visual Studio\2019\Community\VC\Tools\MSVC\14.28.29333\include\xmemory
; File C:\Program Files (x86)\Microsoft Visual Studio\2019\Community\VC\Tools\MSVC\14.28.29333\include\vector
; File C:\Program Files (x86)\Microsoft Visual Studio\2019\Community\VC\Tools\MSVC\14.28.29333\include\xmemory
; File C:\Program Files (x86)\Microsoft Visual Studio\2019\Community\VC\Tools\MSVC\14.28.29333\include\vector
; File C:\Program Files (x86)\Microsoft Visual Studio\2019\Community\VC\Tools\MSVC\14.28.29333\include\xmemory
; File C:\Program Files (x86)\Microsoft Visual Studio\2019\Community\VC\Tools\MSVC\14.28.29333\include\vector
; File D:\Metin2 Server Files\mainline\SRC_2014\Metin2Client\eterLib\Pool.h
;	COMDAT ??1?$CDynamicPoolEx@VCNullDecorator@NEffectUpdateDecorator@@@@UAE@XZ
_TEXT	SEGMENT
??1?$CDynamicPoolEx@VCNullDecorator@NEffectUpdateDecorator@@@@UAE@XZ PROC ; CDynamicPoolEx<NEffectUpdateDecorator::CNullDecorator>::~CDynamicPoolEx<NEffectUpdateDecorator::CNullDecorator>, COMDAT
; _this$ = ecx

; 132  : 		{

  00000	53		 push	 ebx
  00001	56		 push	 esi
  00002	57		 push	 edi
  00003	8b f9		 mov	 edi, ecx
  00005	c7 07 00 00 00
	00		 mov	 DWORD PTR [edi], OFFSET ??_7?$CDynamicPoolEx@VCNullDecorator@NEffectUpdateDecorator@@@@6B@
; File C:\Program Files (x86)\Microsoft Visual Studio\2019\Community\VC\Tools\MSVC\14.28.29333\include\vector

; 42   :     _Vector_const_iterator(_Tptr _Parg, const _Container_base* _Pvector) noexcept : _Ptr(_Parg) {

  0000b	8b 5f 08	 mov	 ebx, DWORD PTR [edi+8]
  0000e	8b 77 04	 mov	 esi, DWORD PTR [edi+4]
; File C:\Program Files (x86)\Microsoft Visual Studio\2019\Community\VC\Tools\MSVC\14.28.29333\include\algorithm

; 307  :     for (; _UFirst != _ULast; ++_UFirst) {

  00011	3b f3		 cmp	 esi, ebx
  00013	74 14		 je	 SHORT $LN19@CDynamicPo
$LL20@CDynamicPo:
; File D:\Metin2 Server Files\mainline\SRC_2014\Metin2Client\eterLib\Pool.h

; 224  : 			::operator delete(pkData);

  00015	ff 36		 push	 DWORD PTR [esi]
  00017	e8 00 00 00 00	 call	 ??3@YAXPAX@Z		; operator delete
; File C:\Program Files (x86)\Microsoft Visual Studio\2019\Community\VC\Tools\MSVC\14.28.29333\include\algorithm

; 307  :     for (; _UFirst != _ULast; ++_UFirst) {

  0001c	83 c6 04	 add	 esi, 4
; File D:\Metin2 Server Files\mainline\SRC_2014\Metin2Client\eterLib\Pool.h

; 224  : 			::operator delete(pkData);

  0001f	83 c4 04	 add	 esp, 4
; File C:\Program Files (x86)\Microsoft Visual Studio\2019\Community\VC\Tools\MSVC\14.28.29333\include\algorithm

; 307  :     for (; _UFirst != _ULast; ++_UFirst) {

  00022	3b f3		 cmp	 esi, ebx
  00024	75 ef		 jne	 SHORT $LL20@CDynamicPo
  00026	8b 77 04	 mov	 esi, DWORD PTR [edi+4]
$LN19@CDynamicPo:
; File D:\Metin2 Server Files\mainline\SRC_2014\Metin2Client\eterLib\Pool.h

; 162  : 			m_kVct_pkFree.clear();

  00029	8b 4f 10	 mov	 ecx, DWORD PTR [edi+16]
  0002c	89 77 08	 mov	 DWORD PTR [edi+8], esi
  0002f	89 4f 14	 mov	 DWORD PTR [edi+20], ecx
; File C:\Program Files (x86)\Microsoft Visual Studio\2019\Community\VC\Tools\MSVC\14.28.29333\include\vector

; 1694 :         if (_Myfirst) { // destroy and deallocate old array

  00032	85 c9		 test	 ecx, ecx
  00034	74 27		 je	 SHORT $LN27@CDynamicPo

; 1695 :             _Destroy(_Myfirst, _Mylast);
; 1696 :             _Getal().deallocate(_Myfirst, static_cast<size_type>(_Myend - _Myfirst));

  00036	8b 47 18	 mov	 eax, DWORD PTR [edi+24]
  00039	2b c1		 sub	 eax, ecx
; File C:\Program Files (x86)\Microsoft Visual Studio\2019\Community\VC\Tools\MSVC\14.28.29333\include\xmemory

; 810  :         _Deallocate<_New_alignof<_Ty>>(_Ptr, sizeof(_Ty) * _Count);

  0003b	83 e0 fc	 and	 eax, -4			; fffffffcH
  0003e	50		 push	 eax
  0003f	51		 push	 ecx
  00040	e8 00 00 00 00	 call	 ??$_Deallocate@$07$0A@@std@@YAXPAXI@Z ; std::_Deallocate<8,0>
; File C:\Program Files (x86)\Microsoft Visual Studio\2019\Community\VC\Tools\MSVC\14.28.29333\include\vector

; 1698 :             _Myfirst = pointer();

  00045	c7 47 10 00 00
	00 00		 mov	 DWORD PTR [edi+16], 0
; File C:\Program Files (x86)\Microsoft Visual Studio\2019\Community\VC\Tools\MSVC\14.28.29333\include\xmemory

; 810  :         _Deallocate<_New_alignof<_Ty>>(_Ptr, sizeof(_Ty) * _Count);

  0004c	83 c4 08	 add	 esp, 8
; File C:\Program Files (x86)\Microsoft Visual Studio\2019\Community\VC\Tools\MSVC\14.28.29333\include\vector

; 1699 :             _Mylast  = pointer();

  0004f	c7 47 14 00 00
	00 00		 mov	 DWORD PTR [edi+20], 0

; 1700 :             _Myend   = pointer();

  00056	c7 47 18 00 00
	00 00		 mov	 DWORD PTR [edi+24], 0
$LN27@CDynamicPo:

; 1694 :         if (_Myfirst) { // destroy and deallocate old array

  0005d	8b 4f 04	 mov	 ecx, DWORD PTR [edi+4]
  00060	85 c9		 test	 ecx, ecx
  00062	74 27		 je	 SHORT $LN34@CDynamicPo

; 1695 :             _Destroy(_Myfirst, _Mylast);
; 1696 :             _Getal().deallocate(_Myfirst, static_cast<size_type>(_Myend - _Myfirst));

  00064	8b 47 0c	 mov	 eax, DWORD PTR [edi+12]
  00067	2b c1		 sub	 eax, ecx
; File C:\Program Files (x86)\Microsoft Visual Studio\2019\Community\VC\Tools\MSVC\14.28.29333\include\xmemory

; 810  :         _Deallocate<_New_alignof<_Ty>>(_Ptr, sizeof(_Ty) * _Count);

  00069	83 e0 fc	 and	 eax, -4			; fffffffcH
  0006c	50		 push	 eax
  0006d	51		 push	 ecx
  0006e	e8 00 00 00 00	 call	 ??$_Deallocate@$07$0A@@std@@YAXPAXI@Z ; std::_Deallocate<8,0>
; File C:\Program Files (x86)\Microsoft Visual Studio\2019\Community\VC\Tools\MSVC\14.28.29333\include\vector

; 1698 :             _Myfirst = pointer();

  00073	c7 47 04 00 00
	00 00		 mov	 DWORD PTR [edi+4], 0
; File C:\Program Files (x86)\Microsoft Visual Studio\2019\Community\VC\Tools\MSVC\14.28.29333\include\xmemory

; 810  :         _Deallocate<_New_alignof<_Ty>>(_Ptr, sizeof(_Ty) * _Count);

  0007a	83 c4 08	 add	 esp, 8
; File C:\Program Files (x86)\Microsoft Visual Studio\2019\Community\VC\Tools\MSVC\14.28.29333\include\vector

; 1699 :             _Mylast  = pointer();

  0007d	c7 47 08 00 00
	00 00		 mov	 DWORD PTR [edi+8], 0

; 1700 :             _Myend   = pointer();

  00084	c7 47 0c 00 00
	00 00		 mov	 DWORD PTR [edi+12], 0
$LN34@CDynamicPo:
  0008b	5f		 pop	 edi
; File D:\Metin2 Server Files\mainline\SRC_2014\Metin2Client\eterLib\Pool.h

; 142  : 		}

  0008c	5e		 pop	 esi
  0008d	5b		 pop	 ebx
  0008e	c3		 ret	 0
??1?$CDynamicPoolEx@VCNullDecorator@NEffectUpdateDecorator@@@@UAE@XZ ENDP ; CDynamicPoolEx<NEffectUpdateDecorator::CNullDecorator>::~CDynamicPoolEx<NEffectUpdateDecorator::CNullDecorator>
_TEXT	ENDS
; Function compile flags: /Ogtp
;	COMDAT ??_G?$CDynamicPoolEx@VCTextureAnimationCWDecorator@NEffectUpdateDecorator@@@@UAEPAXI@Z
_TEXT	SEGMENT
___flags$ = 8						; size = 4
??_G?$CDynamicPoolEx@VCTextureAnimationCWDecorator@NEffectUpdateDecorator@@@@UAEPAXI@Z PROC ; CDynamicPoolEx<NEffectUpdateDecorator::CTextureAnimationCWDecorator>::`scalar deleting destructor', COMDAT
; _this$ = ecx
  00000	55		 push	 ebp
  00001	8b ec		 mov	 ebp, esp
  00003	56		 push	 esi
  00004	8b f1		 mov	 esi, ecx
  00006	e8 00 00 00 00	 call	 ??1?$CDynamicPoolEx@VCTextureAnimationCWDecorator@NEffectUpdateDecorator@@@@UAE@XZ ; CDynamicPoolEx<NEffectUpdateDecorator::CTextureAnimationCWDecorator>::~CDynamicPoolEx<NEffectUpdateDecorator::CTextureAnimationCWDecorator>
  0000b	f6 45 08 01	 test	 BYTE PTR ___flags$[ebp], 1
  0000f	74 0b		 je	 SHORT $LN4@scalar
  00011	6a 24		 push	 36			; 00000024H
  00013	56		 push	 esi
  00014	e8 00 00 00 00	 call	 ??3@YAXPAXI@Z		; operator delete
  00019	83 c4 08	 add	 esp, 8
$LN4@scalar:
  0001c	8b c6		 mov	 eax, esi
  0001e	5e		 pop	 esi
  0001f	5d		 pop	 ebp
  00020	c2 04 00	 ret	 4
??_G?$CDynamicPoolEx@VCTextureAnimationCWDecorator@NEffectUpdateDecorator@@@@UAEPAXI@Z ENDP ; CDynamicPoolEx<NEffectUpdateDecorator::CTextureAnimationCWDecorator>::`scalar deleting destructor'
_TEXT	ENDS
; Function compile flags: /Ogtp
; File D:\Metin2 Server Files\mainline\SRC_2014\Metin2Client\eterLib\Pool.h
;	COMDAT ?Delete@?$CDynamicPoolEx@VCTextureAnimationCWDecorator@NEffectUpdateDecorator@@@@KAXPAVCTextureAnimationCWDecorator@NEffectUpdateDecorator@@@Z
_TEXT	SEGMENT
_pkData$ = 8						; size = 4
?Delete@?$CDynamicPoolEx@VCTextureAnimationCWDecorator@NEffectUpdateDecorator@@@@KAXPAVCTextureAnimationCWDecorator@NEffectUpdateDecorator@@@Z PROC ; CDynamicPoolEx<NEffectUpdateDecorator::CTextureAnimationCWDecorator>::Delete, COMDAT

; 224  : 			::operator delete(pkData);

  00000	e9 00 00 00 00	 jmp	 ??3@YAXPAX@Z		; operator delete
?Delete@?$CDynamicPoolEx@VCTextureAnimationCWDecorator@NEffectUpdateDecorator@@@@KAXPAVCTextureAnimationCWDecorator@NEffectUpdateDecorator@@@Z ENDP ; CDynamicPoolEx<NEffectUpdateDecorator::CTextureAnimationCWDecorator>::Delete
_TEXT	ENDS
; Function compile flags: /Ogtp
; File D:\Metin2 Server Files\mainline\SRC_2014\Metin2Client\eterLib\Pool.h
; File C:\Program Files (x86)\Microsoft Visual Studio\2019\Community\VC\Tools\MSVC\14.28.29333\include\vector
; File C:\Program Files (x86)\Microsoft Visual Studio\2019\Community\VC\Tools\MSVC\14.28.29333\include\algorithm
; File D:\Metin2 Server Files\mainline\SRC_2014\Metin2Client\eterLib\Pool.h
; File C:\Program Files (x86)\Microsoft Visual Studio\2019\Community\VC\Tools\MSVC\14.28.29333\include\algorithm
; File D:\Metin2 Server Files\mainline\SRC_2014\Metin2Client\eterLib\Pool.h
; File C:\Program Files (x86)\Microsoft Visual Studio\2019\Community\VC\Tools\MSVC\14.28.29333\include\algorithm
; File D:\Metin2 Server Files\mainline\SRC_2014\Metin2Client\eterLib\Pool.h
; File C:\Program Files (x86)\Microsoft Visual Studio\2019\Community\VC\Tools\MSVC\14.28.29333\include\vector
; File C:\Program Files (x86)\Microsoft Visual Studio\2019\Community\VC\Tools\MSVC\14.28.29333\include\xmemory
; File C:\Program Files (x86)\Microsoft Visual Studio\2019\Community\VC\Tools\MSVC\14.28.29333\include\vector
; File C:\Program Files (x86)\Microsoft Visual Studio\2019\Community\VC\Tools\MSVC\14.28.29333\include\xmemory
; File C:\Program Files (x86)\Microsoft Visual Studio\2019\Community\VC\Tools\MSVC\14.28.29333\include\vector
; File C:\Program Files (x86)\Microsoft Visual Studio\2019\Community\VC\Tools\MSVC\14.28.29333\include\xmemory
; File C:\Program Files (x86)\Microsoft Visual Studio\2019\Community\VC\Tools\MSVC\14.28.29333\include\vector
; File C:\Program Files (x86)\Microsoft Visual Studio\2019\Community\VC\Tools\MSVC\14.28.29333\include\xmemory
; File C:\Program Files (x86)\Microsoft Visual Studio\2019\Community\VC\Tools\MSVC\14.28.29333\include\vector
; File D:\Metin2 Server Files\mainline\SRC_2014\Metin2Client\eterLib\Pool.h
;	COMDAT ??1?$CDynamicPoolEx@VCTextureAnimationCWDecorator@NEffectUpdateDecorator@@@@UAE@XZ
_TEXT	SEGMENT
??1?$CDynamicPoolEx@VCTextureAnimationCWDecorator@NEffectUpdateDecorator@@@@UAE@XZ PROC ; CDynamicPoolEx<NEffectUpdateDecorator::CTextureAnimationCWDecorator>::~CDynamicPoolEx<NEffectUpdateDecorator::CTextureAnimationCWDecorator>, COMDAT
; _this$ = ecx

; 132  : 		{

  00000	53		 push	 ebx
  00001	56		 push	 esi
  00002	57		 push	 edi
  00003	8b f9		 mov	 edi, ecx
  00005	c7 07 00 00 00
	00		 mov	 DWORD PTR [edi], OFFSET ??_7?$CDynamicPoolEx@VCTextureAnimationCWDecorator@NEffectUpdateDecorator@@@@6B@
; File C:\Program Files (x86)\Microsoft Visual Studio\2019\Community\VC\Tools\MSVC\14.28.29333\include\vector

; 42   :     _Vector_const_iterator(_Tptr _Parg, const _Container_base* _Pvector) noexcept : _Ptr(_Parg) {

  0000b	8b 5f 08	 mov	 ebx, DWORD PTR [edi+8]
  0000e	8b 77 04	 mov	 esi, DWORD PTR [edi+4]
; File C:\Program Files (x86)\Microsoft Visual Studio\2019\Community\VC\Tools\MSVC\14.28.29333\include\algorithm

; 307  :     for (; _UFirst != _ULast; ++_UFirst) {

  00011	3b f3		 cmp	 esi, ebx
  00013	74 14		 je	 SHORT $LN19@CDynamicPo
$LL20@CDynamicPo:
; File D:\Metin2 Server Files\mainline\SRC_2014\Metin2Client\eterLib\Pool.h

; 224  : 			::operator delete(pkData);

  00015	ff 36		 push	 DWORD PTR [esi]
  00017	e8 00 00 00 00	 call	 ??3@YAXPAX@Z		; operator delete
; File C:\Program Files (x86)\Microsoft Visual Studio\2019\Community\VC\Tools\MSVC\14.28.29333\include\algorithm

; 307  :     for (; _UFirst != _ULast; ++_UFirst) {

  0001c	83 c6 04	 add	 esi, 4
; File D:\Metin2 Server Files\mainline\SRC_2014\Metin2Client\eterLib\Pool.h

; 224  : 			::operator delete(pkData);

  0001f	83 c4 04	 add	 esp, 4
; File C:\Program Files (x86)\Microsoft Visual Studio\2019\Community\VC\Tools\MSVC\14.28.29333\include\algorithm

; 307  :     for (; _UFirst != _ULast; ++_UFirst) {

  00022	3b f3		 cmp	 esi, ebx
  00024	75 ef		 jne	 SHORT $LL20@CDynamicPo
  00026	8b 77 04	 mov	 esi, DWORD PTR [edi+4]
$LN19@CDynamicPo:
; File D:\Metin2 Server Files\mainline\SRC_2014\Metin2Client\eterLib\Pool.h

; 162  : 			m_kVct_pkFree.clear();

  00029	8b 4f 10	 mov	 ecx, DWORD PTR [edi+16]
  0002c	89 77 08	 mov	 DWORD PTR [edi+8], esi
  0002f	89 4f 14	 mov	 DWORD PTR [edi+20], ecx
; File C:\Program Files (x86)\Microsoft Visual Studio\2019\Community\VC\Tools\MSVC\14.28.29333\include\vector

; 1694 :         if (_Myfirst) { // destroy and deallocate old array

  00032	85 c9		 test	 ecx, ecx
  00034	74 27		 je	 SHORT $LN27@CDynamicPo

; 1695 :             _Destroy(_Myfirst, _Mylast);
; 1696 :             _Getal().deallocate(_Myfirst, static_cast<size_type>(_Myend - _Myfirst));

  00036	8b 47 18	 mov	 eax, DWORD PTR [edi+24]
  00039	2b c1		 sub	 eax, ecx
; File C:\Program Files (x86)\Microsoft Visual Studio\2019\Community\VC\Tools\MSVC\14.28.29333\include\xmemory

; 810  :         _Deallocate<_New_alignof<_Ty>>(_Ptr, sizeof(_Ty) * _Count);

  0003b	83 e0 fc	 and	 eax, -4			; fffffffcH
  0003e	50		 push	 eax
  0003f	51		 push	 ecx
  00040	e8 00 00 00 00	 call	 ??$_Deallocate@$07$0A@@std@@YAXPAXI@Z ; std::_Deallocate<8,0>
; File C:\Program Files (x86)\Microsoft Visual Studio\2019\Community\VC\Tools\MSVC\14.28.29333\include\vector

; 1698 :             _Myfirst = pointer();

  00045	c7 47 10 00 00
	00 00		 mov	 DWORD PTR [edi+16], 0
; File C:\Program Files (x86)\Microsoft Visual Studio\2019\Community\VC\Tools\MSVC\14.28.29333\include\xmemory

; 810  :         _Deallocate<_New_alignof<_Ty>>(_Ptr, sizeof(_Ty) * _Count);

  0004c	83 c4 08	 add	 esp, 8
; File C:\Program Files (x86)\Microsoft Visual Studio\2019\Community\VC\Tools\MSVC\14.28.29333\include\vector

; 1699 :             _Mylast  = pointer();

  0004f	c7 47 14 00 00
	00 00		 mov	 DWORD PTR [edi+20], 0

; 1700 :             _Myend   = pointer();

  00056	c7 47 18 00 00
	00 00		 mov	 DWORD PTR [edi+24], 0
$LN27@CDynamicPo:

; 1694 :         if (_Myfirst) { // destroy and deallocate old array

  0005d	8b 4f 04	 mov	 ecx, DWORD PTR [edi+4]
  00060	85 c9		 test	 ecx, ecx
  00062	74 27		 je	 SHORT $LN34@CDynamicPo

; 1695 :             _Destroy(_Myfirst, _Mylast);
; 1696 :             _Getal().deallocate(_Myfirst, static_cast<size_type>(_Myend - _Myfirst));

  00064	8b 47 0c	 mov	 eax, DWORD PTR [edi+12]
  00067	2b c1		 sub	 eax, ecx
; File C:\Program Files (x86)\Microsoft Visual Studio\2019\Community\VC\Tools\MSVC\14.28.29333\include\xmemory

; 810  :         _Deallocate<_New_alignof<_Ty>>(_Ptr, sizeof(_Ty) * _Count);

  00069	83 e0 fc	 and	 eax, -4			; fffffffcH
  0006c	50		 push	 eax
  0006d	51		 push	 ecx
  0006e	e8 00 00 00 00	 call	 ??$_Deallocate@$07$0A@@std@@YAXPAXI@Z ; std::_Deallocate<8,0>
; File C:\Program Files (x86)\Microsoft Visual Studio\2019\Community\VC\Tools\MSVC\14.28.29333\include\vector

; 1698 :             _Myfirst = pointer();

  00073	c7 47 04 00 00
	00 00		 mov	 DWORD PTR [edi+4], 0
; File C:\Program Files (x86)\Microsoft Visual Studio\2019\Community\VC\Tools\MSVC\14.28.29333\include\xmemory

; 810  :         _Deallocate<_New_alignof<_Ty>>(_Ptr, sizeof(_Ty) * _Count);

  0007a	83 c4 08	 add	 esp, 8
; File C:\Program Files (x86)\Microsoft Visual Studio\2019\Community\VC\Tools\MSVC\14.28.29333\include\vector

; 1699 :             _Mylast  = pointer();

  0007d	c7 47 08 00 00
	00 00		 mov	 DWORD PTR [edi+8], 0

; 1700 :             _Myend   = pointer();

  00084	c7 47 0c 00 00
	00 00		 mov	 DWORD PTR [edi+12], 0
$LN34@CDynamicPo:
  0008b	5f		 pop	 edi
; File D:\Metin2 Server Files\mainline\SRC_2014\Metin2Client\eterLib\Pool.h

; 142  : 		}

  0008c	5e		 pop	 esi
  0008d	5b		 pop	 ebx
  0008e	c3		 ret	 0
??1?$CDynamicPoolEx@VCTextureAnimationCWDecorator@NEffectUpdateDecorator@@@@UAE@XZ ENDP ; CDynamicPoolEx<NEffectUpdateDecorator::CTextureAnimationCWDecorator>::~CDynamicPoolEx<NEffectUpdateDecorator::CTextureAnimationCWDecorator>
_TEXT	ENDS
; Function compile flags: /Ogtp
;	COMDAT ??_G?$CDynamicPoolEx@VCTextureAnimationCCWDecorator@NEffectUpdateDecorator@@@@UAEPAXI@Z
_TEXT	SEGMENT
___flags$ = 8						; size = 4
??_G?$CDynamicPoolEx@VCTextureAnimationCCWDecorator@NEffectUpdateDecorator@@@@UAEPAXI@Z PROC ; CDynamicPoolEx<NEffectUpdateDecorator::CTextureAnimationCCWDecorator>::`scalar deleting destructor', COMDAT
; _this$ = ecx
  00000	55		 push	 ebp
  00001	8b ec		 mov	 ebp, esp
  00003	56		 push	 esi
  00004	8b f1		 mov	 esi, ecx
  00006	e8 00 00 00 00	 call	 ??1?$CDynamicPoolEx@VCTextureAnimationCCWDecorator@NEffectUpdateDecorator@@@@UAE@XZ ; CDynamicPoolEx<NEffectUpdateDecorator::CTextureAnimationCCWDecorator>::~CDynamicPoolEx<NEffectUpdateDecorator::CTextureAnimationCCWDecorator>
  0000b	f6 45 08 01	 test	 BYTE PTR ___flags$[ebp], 1
  0000f	74 0b		 je	 SHORT $LN4@scalar
  00011	6a 24		 push	 36			; 00000024H
  00013	56		 push	 esi
  00014	e8 00 00 00 00	 call	 ??3@YAXPAXI@Z		; operator delete
  00019	83 c4 08	 add	 esp, 8
$LN4@scalar:
  0001c	8b c6		 mov	 eax, esi
  0001e	5e		 pop	 esi
  0001f	5d		 pop	 ebp
  00020	c2 04 00	 ret	 4
??_G?$CDynamicPoolEx@VCTextureAnimationCCWDecorator@NEffectUpdateDecorator@@@@UAEPAXI@Z ENDP ; CDynamicPoolEx<NEffectUpdateDecorator::CTextureAnimationCCWDecorator>::`scalar deleting destructor'
_TEXT	ENDS
; Function compile flags: /Ogtp
; File D:\Metin2 Server Files\mainline\SRC_2014\Metin2Client\eterLib\Pool.h
;	COMDAT ?Delete@?$CDynamicPoolEx@VCTextureAnimationCCWDecorator@NEffectUpdateDecorator@@@@KAXPAVCTextureAnimationCCWDecorator@NEffectUpdateDecorator@@@Z
_TEXT	SEGMENT
_pkData$ = 8						; size = 4
?Delete@?$CDynamicPoolEx@VCTextureAnimationCCWDecorator@NEffectUpdateDecorator@@@@KAXPAVCTextureAnimationCCWDecorator@NEffectUpdateDecorator@@@Z PROC ; CDynamicPoolEx<NEffectUpdateDecorator::CTextureAnimationCCWDecorator>::Delete, COMDAT

; 224  : 			::operator delete(pkData);

  00000	e9 00 00 00 00	 jmp	 ??3@YAXPAX@Z		; operator delete
?Delete@?$CDynamicPoolEx@VCTextureAnimationCCWDecorator@NEffectUpdateDecorator@@@@KAXPAVCTextureAnimationCCWDecorator@NEffectUpdateDecorator@@@Z ENDP ; CDynamicPoolEx<NEffectUpdateDecorator::CTextureAnimationCCWDecorator>::Delete
_TEXT	ENDS
; Function compile flags: /Ogtp
; File D:\Metin2 Server Files\mainline\SRC_2014\Metin2Client\eterLib\Pool.h
; File C:\Program Files (x86)\Microsoft Visual Studio\2019\Community\VC\Tools\MSVC\14.28.29333\include\vector
; File C:\Program Files (x86)\Microsoft Visual Studio\2019\Community\VC\Tools\MSVC\14.28.29333\include\algorithm
; File D:\Metin2 Server Files\mainline\SRC_2014\Metin2Client\eterLib\Pool.h
; File C:\Program Files (x86)\Microsoft Visual Studio\2019\Community\VC\Tools\MSVC\14.28.29333\include\algorithm
; File D:\Metin2 Server Files\mainline\SRC_2014\Metin2Client\eterLib\Pool.h
; File C:\Program Files (x86)\Microsoft Visual Studio\2019\Community\VC\Tools\MSVC\14.28.29333\include\algorithm
; File D:\Metin2 Server Files\mainline\SRC_2014\Metin2Client\eterLib\Pool.h
; File C:\Program Files (x86)\Microsoft Visual Studio\2019\Community\VC\Tools\MSVC\14.28.29333\include\vector
; File C:\Program Files (x86)\Microsoft Visual Studio\2019\Community\VC\Tools\MSVC\14.28.29333\include\xmemory
; File C:\Program Files (x86)\Microsoft Visual Studio\2019\Community\VC\Tools\MSVC\14.28.29333\include\vector
; File C:\Program Files (x86)\Microsoft Visual Studio\2019\Community\VC\Tools\MSVC\14.28.29333\include\xmemory
; File C:\Program Files (x86)\Microsoft Visual Studio\2019\Community\VC\Tools\MSVC\14.28.29333\include\vector
; File C:\Program Files (x86)\Microsoft Visual Studio\2019\Community\VC\Tools\MSVC\14.28.29333\include\xmemory
; File C:\Program Files (x86)\Microsoft Visual Studio\2019\Community\VC\Tools\MSVC\14.28.29333\include\vector
; File C:\Program Files (x86)\Microsoft Visual Studio\2019\Community\VC\Tools\MSVC\14.28.29333\include\xmemory
; File C:\Program Files (x86)\Microsoft Visual Studio\2019\Community\VC\Tools\MSVC\14.28.29333\include\vector
; File D:\Metin2 Server Files\mainline\SRC_2014\Metin2Client\eterLib\Pool.h
;	COMDAT ??1?$CDynamicPoolEx@VCTextureAnimationCCWDecorator@NEffectUpdateDecorator@@@@UAE@XZ
_TEXT	SEGMENT
??1?$CDynamicPoolEx@VCTextureAnimationCCWDecorator@NEffectUpdateDecorator@@@@UAE@XZ PROC ; CDynamicPoolEx<NEffectUpdateDecorator::CTextureAnimationCCWDecorator>::~CDynamicPoolEx<NEffectUpdateDecorator::CTextureAnimationCCWDecorator>, COMDAT
; _this$ = ecx

; 132  : 		{

  00000	53		 push	 ebx
  00001	56		 push	 esi
  00002	57		 push	 edi
  00003	8b f9		 mov	 edi, ecx
  00005	c7 07 00 00 00
	00		 mov	 DWORD PTR [edi], OFFSET ??_7?$CDynamicPoolEx@VCTextureAnimationCCWDecorator@NEffectUpdateDecorator@@@@6B@
; File C:\Program Files (x86)\Microsoft Visual Studio\2019\Community\VC\Tools\MSVC\14.28.29333\include\vector

; 42   :     _Vector_const_iterator(_Tptr _Parg, const _Container_base* _Pvector) noexcept : _Ptr(_Parg) {

  0000b	8b 5f 08	 mov	 ebx, DWORD PTR [edi+8]
  0000e	8b 77 04	 mov	 esi, DWORD PTR [edi+4]
; File C:\Program Files (x86)\Microsoft Visual Studio\2019\Community\VC\Tools\MSVC\14.28.29333\include\algorithm

; 307  :     for (; _UFirst != _ULast; ++_UFirst) {

  00011	3b f3		 cmp	 esi, ebx
  00013	74 14		 je	 SHORT $LN19@CDynamicPo
$LL20@CDynamicPo:
; File D:\Metin2 Server Files\mainline\SRC_2014\Metin2Client\eterLib\Pool.h

; 224  : 			::operator delete(pkData);

  00015	ff 36		 push	 DWORD PTR [esi]
  00017	e8 00 00 00 00	 call	 ??3@YAXPAX@Z		; operator delete
; File C:\Program Files (x86)\Microsoft Visual Studio\2019\Community\VC\Tools\MSVC\14.28.29333\include\algorithm

; 307  :     for (; _UFirst != _ULast; ++_UFirst) {

  0001c	83 c6 04	 add	 esi, 4
; File D:\Metin2 Server Files\mainline\SRC_2014\Metin2Client\eterLib\Pool.h

; 224  : 			::operator delete(pkData);

  0001f	83 c4 04	 add	 esp, 4
; File C:\Program Files (x86)\Microsoft Visual Studio\2019\Community\VC\Tools\MSVC\14.28.29333\include\algorithm

; 307  :     for (; _UFirst != _ULast; ++_UFirst) {

  00022	3b f3		 cmp	 esi, ebx
  00024	75 ef		 jne	 SHORT $LL20@CDynamicPo
  00026	8b 77 04	 mov	 esi, DWORD PTR [edi+4]
$LN19@CDynamicPo:
; File D:\Metin2 Server Files\mainline\SRC_2014\Metin2Client\eterLib\Pool.h

; 162  : 			m_kVct_pkFree.clear();

  00029	8b 4f 10	 mov	 ecx, DWORD PTR [edi+16]
  0002c	89 77 08	 mov	 DWORD PTR [edi+8], esi
  0002f	89 4f 14	 mov	 DWORD PTR [edi+20], ecx
; File C:\Program Files (x86)\Microsoft Visual Studio\2019\Community\VC\Tools\MSVC\14.28.29333\include\vector

; 1694 :         if (_Myfirst) { // destroy and deallocate old array

  00032	85 c9		 test	 ecx, ecx
  00034	74 27		 je	 SHORT $LN27@CDynamicPo

; 1695 :             _Destroy(_Myfirst, _Mylast);
; 1696 :             _Getal().deallocate(_Myfirst, static_cast<size_type>(_Myend - _Myfirst));

  00036	8b 47 18	 mov	 eax, DWORD PTR [edi+24]
  00039	2b c1		 sub	 eax, ecx
; File C:\Program Files (x86)\Microsoft Visual Studio\2019\Community\VC\Tools\MSVC\14.28.29333\include\xmemory

; 810  :         _Deallocate<_New_alignof<_Ty>>(_Ptr, sizeof(_Ty) * _Count);

  0003b	83 e0 fc	 and	 eax, -4			; fffffffcH
  0003e	50		 push	 eax
  0003f	51		 push	 ecx
  00040	e8 00 00 00 00	 call	 ??$_Deallocate@$07$0A@@std@@YAXPAXI@Z ; std::_Deallocate<8,0>
; File C:\Program Files (x86)\Microsoft Visual Studio\2019\Community\VC\Tools\MSVC\14.28.29333\include\vector

; 1698 :             _Myfirst = pointer();

  00045	c7 47 10 00 00
	00 00		 mov	 DWORD PTR [edi+16], 0
; File C:\Program Files (x86)\Microsoft Visual Studio\2019\Community\VC\Tools\MSVC\14.28.29333\include\xmemory

; 810  :         _Deallocate<_New_alignof<_Ty>>(_Ptr, sizeof(_Ty) * _Count);

  0004c	83 c4 08	 add	 esp, 8
; File C:\Program Files (x86)\Microsoft Visual Studio\2019\Community\VC\Tools\MSVC\14.28.29333\include\vector

; 1699 :             _Mylast  = pointer();

  0004f	c7 47 14 00 00
	00 00		 mov	 DWORD PTR [edi+20], 0

; 1700 :             _Myend   = pointer();

  00056	c7 47 18 00 00
	00 00		 mov	 DWORD PTR [edi+24], 0
$LN27@CDynamicPo:

; 1694 :         if (_Myfirst) { // destroy and deallocate old array

  0005d	8b 4f 04	 mov	 ecx, DWORD PTR [edi+4]
  00060	85 c9		 test	 ecx, ecx
  00062	74 27		 je	 SHORT $LN34@CDynamicPo

; 1695 :             _Destroy(_Myfirst, _Mylast);
; 1696 :             _Getal().deallocate(_Myfirst, static_cast<size_type>(_Myend - _Myfirst));

  00064	8b 47 0c	 mov	 eax, DWORD PTR [edi+12]
  00067	2b c1		 sub	 eax, ecx
; File C:\Program Files (x86)\Microsoft Visual Studio\2019\Community\VC\Tools\MSVC\14.28.29333\include\xmemory

; 810  :         _Deallocate<_New_alignof<_Ty>>(_Ptr, sizeof(_Ty) * _Count);

  00069	83 e0 fc	 and	 eax, -4			; fffffffcH
  0006c	50		 push	 eax
  0006d	51		 push	 ecx
  0006e	e8 00 00 00 00	 call	 ??$_Deallocate@$07$0A@@std@@YAXPAXI@Z ; std::_Deallocate<8,0>
; File C:\Program Files (x86)\Microsoft Visual Studio\2019\Community\VC\Tools\MSVC\14.28.29333\include\vector

; 1698 :             _Myfirst = pointer();

  00073	c7 47 04 00 00
	00 00		 mov	 DWORD PTR [edi+4], 0
; File C:\Program Files (x86)\Microsoft Visual Studio\2019\Community\VC\Tools\MSVC\14.28.29333\include\xmemory

; 810  :         _Deallocate<_New_alignof<_Ty>>(_Ptr, sizeof(_Ty) * _Count);

  0007a	83 c4 08	 add	 esp, 8
; File C:\Program Files (x86)\Microsoft Visual Studio\2019\Community\VC\Tools\MSVC\14.28.29333\include\vector

; 1699 :             _Mylast  = pointer();

  0007d	c7 47 08 00 00
	00 00		 mov	 DWORD PTR [edi+8], 0

; 1700 :             _Myend   = pointer();

  00084	c7 47 0c 00 00
	00 00		 mov	 DWORD PTR [edi+12], 0
$LN34@CDynamicPo:
  0008b	5f		 pop	 edi
; File D:\Metin2 Server Files\mainline\SRC_2014\Metin2Client\eterLib\Pool.h

; 142  : 		}

  0008c	5e		 pop	 esi
  0008d	5b		 pop	 ebx
  0008e	c3		 ret	 0
??1?$CDynamicPoolEx@VCTextureAnimationCCWDecorator@NEffectUpdateDecorator@@@@UAE@XZ ENDP ; CDynamicPoolEx<NEffectUpdateDecorator::CTextureAnimationCCWDecorator>::~CDynamicPoolEx<NEffectUpdateDecorator::CTextureAnimationCCWDecorator>
_TEXT	ENDS
; Function compile flags: /Ogtp
;	COMDAT ??_G?$CDynamicPoolEx@VCTextureAnimationRandomDecorator@NEffectUpdateDecorator@@@@UAEPAXI@Z
_TEXT	SEGMENT
___flags$ = 8						; size = 4
??_G?$CDynamicPoolEx@VCTextureAnimationRandomDecorator@NEffectUpdateDecorator@@@@UAEPAXI@Z PROC ; CDynamicPoolEx<NEffectUpdateDecorator::CTextureAnimationRandomDecorator>::`scalar deleting destructor', COMDAT
; _this$ = ecx
  00000	55		 push	 ebp
  00001	8b ec		 mov	 ebp, esp
  00003	56		 push	 esi
  00004	8b f1		 mov	 esi, ecx
  00006	e8 00 00 00 00	 call	 ??1?$CDynamicPoolEx@VCTextureAnimationRandomDecorator@NEffectUpdateDecorator@@@@UAE@XZ ; CDynamicPoolEx<NEffectUpdateDecorator::CTextureAnimationRandomDecorator>::~CDynamicPoolEx<NEffectUpdateDecorator::CTextureAnimationRandomDecorator>
  0000b	f6 45 08 01	 test	 BYTE PTR ___flags$[ebp], 1
  0000f	74 0b		 je	 SHORT $LN4@scalar
  00011	6a 24		 push	 36			; 00000024H
  00013	56		 push	 esi
  00014	e8 00 00 00 00	 call	 ??3@YAXPAXI@Z		; operator delete
  00019	83 c4 08	 add	 esp, 8
$LN4@scalar:
  0001c	8b c6		 mov	 eax, esi
  0001e	5e		 pop	 esi
  0001f	5d		 pop	 ebp
  00020	c2 04 00	 ret	 4
??_G?$CDynamicPoolEx@VCTextureAnimationRandomDecorator@NEffectUpdateDecorator@@@@UAEPAXI@Z ENDP ; CDynamicPoolEx<NEffectUpdateDecorator::CTextureAnimationRandomDecorator>::`scalar deleting destructor'
_TEXT	ENDS
; Function compile flags: /Ogtp
; File D:\Metin2 Server Files\mainline\SRC_2014\Metin2Client\eterLib\Pool.h
;	COMDAT ?Delete@?$CDynamicPoolEx@VCTextureAnimationRandomDecorator@NEffectUpdateDecorator@@@@KAXPAVCTextureAnimationRandomDecorator@NEffectUpdateDecorator@@@Z
_TEXT	SEGMENT
_pkData$ = 8						; size = 4
?Delete@?$CDynamicPoolEx@VCTextureAnimationRandomDecorator@NEffectUpdateDecorator@@@@KAXPAVCTextureAnimationRandomDecorator@NEffectUpdateDecorator@@@Z PROC ; CDynamicPoolEx<NEffectUpdateDecorator::CTextureAnimationRandomDecorator>::Delete, COMDAT

; 224  : 			::operator delete(pkData);

  00000	e9 00 00 00 00	 jmp	 ??3@YAXPAX@Z		; operator delete
?Delete@?$CDynamicPoolEx@VCTextureAnimationRandomDecorator@NEffectUpdateDecorator@@@@KAXPAVCTextureAnimationRandomDecorator@NEffectUpdateDecorator@@@Z ENDP ; CDynamicPoolEx<NEffectUpdateDecorator::CTextureAnimationRandomDecorator>::Delete
_TEXT	ENDS
; Function compile flags: /Ogtp
; File D:\Metin2 Server Files\mainline\SRC_2014\Metin2Client\eterLib\Pool.h
; File C:\Program Files (x86)\Microsoft Visual Studio\2019\Community\VC\Tools\MSVC\14.28.29333\include\vector
; File C:\Program Files (x86)\Microsoft Visual Studio\2019\Community\VC\Tools\MSVC\14.28.29333\include\algorithm
; File D:\Metin2 Server Files\mainline\SRC_2014\Metin2Client\eterLib\Pool.h
; File C:\Program Files (x86)\Microsoft Visual Studio\2019\Community\VC\Tools\MSVC\14.28.29333\include\algorithm
; File D:\Metin2 Server Files\mainline\SRC_2014\Metin2Client\eterLib\Pool.h
; File C:\Program Files (x86)\Microsoft Visual Studio\2019\Community\VC\Tools\MSVC\14.28.29333\include\algorithm
; File D:\Metin2 Server Files\mainline\SRC_2014\Metin2Client\eterLib\Pool.h
; File C:\Program Files (x86)\Microsoft Visual Studio\2019\Community\VC\Tools\MSVC\14.28.29333\include\vector
; File C:\Program Files (x86)\Microsoft Visual Studio\2019\Community\VC\Tools\MSVC\14.28.29333\include\xmemory
; File C:\Program Files (x86)\Microsoft Visual Studio\2019\Community\VC\Tools\MSVC\14.28.29333\include\vector
; File C:\Program Files (x86)\Microsoft Visual Studio\2019\Community\VC\Tools\MSVC\14.28.29333\include\xmemory
; File C:\Program Files (x86)\Microsoft Visual Studio\2019\Community\VC\Tools\MSVC\14.28.29333\include\vector
; File C:\Program Files (x86)\Microsoft Visual Studio\2019\Community\VC\Tools\MSVC\14.28.29333\include\xmemory
; File C:\Program Files (x86)\Microsoft Visual Studio\2019\Community\VC\Tools\MSVC\14.28.29333\include\vector
; File C:\Program Files (x86)\Microsoft Visual Studio\2019\Community\VC\Tools\MSVC\14.28.29333\include\xmemory
; File C:\Program Files (x86)\Microsoft Visual Studio\2019\Community\VC\Tools\MSVC\14.28.29333\include\vector
; File D:\Metin2 Server Files\mainline\SRC_2014\Metin2Client\eterLib\Pool.h
;	COMDAT ??1?$CDynamicPoolEx@VCTextureAnimationRandomDecorator@NEffectUpdateDecorator@@@@UAE@XZ
_TEXT	SEGMENT
??1?$CDynamicPoolEx@VCTextureAnimationRandomDecorator@NEffectUpdateDecorator@@@@UAE@XZ PROC ; CDynamicPoolEx<NEffectUpdateDecorator::CTextureAnimationRandomDecorator>::~CDynamicPoolEx<NEffectUpdateDecorator::CTextureAnimationRandomDecorator>, COMDAT
; _this$ = ecx

; 132  : 		{

  00000	53		 push	 ebx
  00001	56		 push	 esi
  00002	57		 push	 edi
  00003	8b f9		 mov	 edi, ecx
  00005	c7 07 00 00 00
	00		 mov	 DWORD PTR [edi], OFFSET ??_7?$CDynamicPoolEx@VCTextureAnimationRandomDecorator@NEffectUpdateDecorator@@@@6B@
; File C:\Program Files (x86)\Microsoft Visual Studio\2019\Community\VC\Tools\MSVC\14.28.29333\include\vector

; 42   :     _Vector_const_iterator(_Tptr _Parg, const _Container_base* _Pvector) noexcept : _Ptr(_Parg) {

  0000b	8b 5f 08	 mov	 ebx, DWORD PTR [edi+8]
  0000e	8b 77 04	 mov	 esi, DWORD PTR [edi+4]
; File C:\Program Files (x86)\Microsoft Visual Studio\2019\Community\VC\Tools\MSVC\14.28.29333\include\algorithm

; 307  :     for (; _UFirst != _ULast; ++_UFirst) {

  00011	3b f3		 cmp	 esi, ebx
  00013	74 14		 je	 SHORT $LN19@CDynamicPo
$LL20@CDynamicPo:
; File D:\Metin2 Server Files\mainline\SRC_2014\Metin2Client\eterLib\Pool.h

; 224  : 			::operator delete(pkData);

  00015	ff 36		 push	 DWORD PTR [esi]
  00017	e8 00 00 00 00	 call	 ??3@YAXPAX@Z		; operator delete
; File C:\Program Files (x86)\Microsoft Visual Studio\2019\Community\VC\Tools\MSVC\14.28.29333\include\algorithm

; 307  :     for (; _UFirst != _ULast; ++_UFirst) {

  0001c	83 c6 04	 add	 esi, 4
; File D:\Metin2 Server Files\mainline\SRC_2014\Metin2Client\eterLib\Pool.h

; 224  : 			::operator delete(pkData);

  0001f	83 c4 04	 add	 esp, 4
; File C:\Program Files (x86)\Microsoft Visual Studio\2019\Community\VC\Tools\MSVC\14.28.29333\include\algorithm

; 307  :     for (; _UFirst != _ULast; ++_UFirst) {

  00022	3b f3		 cmp	 esi, ebx
  00024	75 ef		 jne	 SHORT $LL20@CDynamicPo
  00026	8b 77 04	 mov	 esi, DWORD PTR [edi+4]
$LN19@CDynamicPo:
; File D:\Metin2 Server Files\mainline\SRC_2014\Metin2Client\eterLib\Pool.h

; 162  : 			m_kVct_pkFree.clear();

  00029	8b 4f 10	 mov	 ecx, DWORD PTR [edi+16]
  0002c	89 77 08	 mov	 DWORD PTR [edi+8], esi
  0002f	89 4f 14	 mov	 DWORD PTR [edi+20], ecx
; File C:\Program Files (x86)\Microsoft Visual Studio\2019\Community\VC\Tools\MSVC\14.28.29333\include\vector

; 1694 :         if (_Myfirst) { // destroy and deallocate old array

  00032	85 c9		 test	 ecx, ecx
  00034	74 27		 je	 SHORT $LN27@CDynamicPo

; 1695 :             _Destroy(_Myfirst, _Mylast);
; 1696 :             _Getal().deallocate(_Myfirst, static_cast<size_type>(_Myend - _Myfirst));

  00036	8b 47 18	 mov	 eax, DWORD PTR [edi+24]
  00039	2b c1		 sub	 eax, ecx
; File C:\Program Files (x86)\Microsoft Visual Studio\2019\Community\VC\Tools\MSVC\14.28.29333\include\xmemory

; 810  :         _Deallocate<_New_alignof<_Ty>>(_Ptr, sizeof(_Ty) * _Count);

  0003b	83 e0 fc	 and	 eax, -4			; fffffffcH
  0003e	50		 push	 eax
  0003f	51		 push	 ecx
  00040	e8 00 00 00 00	 call	 ??$_Deallocate@$07$0A@@std@@YAXPAXI@Z ; std::_Deallocate<8,0>
; File C:\Program Files (x86)\Microsoft Visual Studio\2019\Community\VC\Tools\MSVC\14.28.29333\include\vector

; 1698 :             _Myfirst = pointer();

  00045	c7 47 10 00 00
	00 00		 mov	 DWORD PTR [edi+16], 0
; File C:\Program Files (x86)\Microsoft Visual Studio\2019\Community\VC\Tools\MSVC\14.28.29333\include\xmemory

; 810  :         _Deallocate<_New_alignof<_Ty>>(_Ptr, sizeof(_Ty) * _Count);

  0004c	83 c4 08	 add	 esp, 8
; File C:\Program Files (x86)\Microsoft Visual Studio\2019\Community\VC\Tools\MSVC\14.28.29333\include\vector

; 1699 :             _Mylast  = pointer();

  0004f	c7 47 14 00 00
	00 00		 mov	 DWORD PTR [edi+20], 0

; 1700 :             _Myend   = pointer();

  00056	c7 47 18 00 00
	00 00		 mov	 DWORD PTR [edi+24], 0
$LN27@CDynamicPo:

; 1694 :         if (_Myfirst) { // destroy and deallocate old array

  0005d	8b 4f 04	 mov	 ecx, DWORD PTR [edi+4]
  00060	85 c9		 test	 ecx, ecx
  00062	74 27		 je	 SHORT $LN34@CDynamicPo

; 1695 :             _Destroy(_Myfirst, _Mylast);
; 1696 :             _Getal().deallocate(_Myfirst, static_cast<size_type>(_Myend - _Myfirst));

  00064	8b 47 0c	 mov	 eax, DWORD PTR [edi+12]
  00067	2b c1		 sub	 eax, ecx
; File C:\Program Files (x86)\Microsoft Visual Studio\2019\Community\VC\Tools\MSVC\14.28.29333\include\xmemory

; 810  :         _Deallocate<_New_alignof<_Ty>>(_Ptr, sizeof(_Ty) * _Count);

  00069	83 e0 fc	 and	 eax, -4			; fffffffcH
  0006c	50		 push	 eax
  0006d	51		 push	 ecx
  0006e	e8 00 00 00 00	 call	 ??$_Deallocate@$07$0A@@std@@YAXPAXI@Z ; std::_Deallocate<8,0>
; File C:\Program Files (x86)\Microsoft Visual Studio\2019\Community\VC\Tools\MSVC\14.28.29333\include\vector

; 1698 :             _Myfirst = pointer();

  00073	c7 47 04 00 00
	00 00		 mov	 DWORD PTR [edi+4], 0
; File C:\Program Files (x86)\Microsoft Visual Studio\2019\Community\VC\Tools\MSVC\14.28.29333\include\xmemory

; 810  :         _Deallocate<_New_alignof<_Ty>>(_Ptr, sizeof(_Ty) * _Count);

  0007a	83 c4 08	 add	 esp, 8
; File C:\Program Files (x86)\Microsoft Visual Studio\2019\Community\VC\Tools\MSVC\14.28.29333\include\vector

; 1699 :             _Mylast  = pointer();

  0007d	c7 47 08 00 00
	00 00		 mov	 DWORD PTR [edi+8], 0

; 1700 :             _Myend   = pointer();

  00084	c7 47 0c 00 00
	00 00		 mov	 DWORD PTR [edi+12], 0
$LN34@CDynamicPo:
  0008b	5f		 pop	 edi
; File D:\Metin2 Server Files\mainline\SRC_2014\Metin2Client\eterLib\Pool.h

; 142  : 		}

  0008c	5e		 pop	 esi
  0008d	5b		 pop	 ebx
  0008e	c3		 ret	 0
??1?$CDynamicPoolEx@VCTextureAnimationRandomDecorator@NEffectUpdateDecorator@@@@UAE@XZ ENDP ; CDynamicPoolEx<NEffectUpdateDecorator::CTextureAnimationRandomDecorator>::~CDynamicPoolEx<NEffectUpdateDecorator::CTextureAnimationRandomDecorator>
_TEXT	ENDS
; Function compile flags: /Ogtp
;	COMDAT ??_G?$CDynamicPoolEx@VCAirResistanceDecorator@NEffectUpdateDecorator@@@@UAEPAXI@Z
_TEXT	SEGMENT
___flags$ = 8						; size = 4
??_G?$CDynamicPoolEx@VCAirResistanceDecorator@NEffectUpdateDecorator@@@@UAEPAXI@Z PROC ; CDynamicPoolEx<NEffectUpdateDecorator::CAirResistanceDecorator>::`scalar deleting destructor', COMDAT
; _this$ = ecx
  00000	55		 push	 ebp
  00001	8b ec		 mov	 ebp, esp
  00003	56		 push	 esi
  00004	8b f1		 mov	 esi, ecx
  00006	e8 00 00 00 00	 call	 ??1?$CDynamicPoolEx@VCAirResistanceDecorator@NEffectUpdateDecorator@@@@UAE@XZ ; CDynamicPoolEx<NEffectUpdateDecorator::CAirResistanceDecorator>::~CDynamicPoolEx<NEffectUpdateDecorator::CAirResistanceDecorator>
  0000b	f6 45 08 01	 test	 BYTE PTR ___flags$[ebp], 1
  0000f	74 0b		 je	 SHORT $LN4@scalar
  00011	6a 24		 push	 36			; 00000024H
  00013	56		 push	 esi
  00014	e8 00 00 00 00	 call	 ??3@YAXPAXI@Z		; operator delete
  00019	83 c4 08	 add	 esp, 8
$LN4@scalar:
  0001c	8b c6		 mov	 eax, esi
  0001e	5e		 pop	 esi
  0001f	5d		 pop	 ebp
  00020	c2 04 00	 ret	 4
??_G?$CDynamicPoolEx@VCAirResistanceDecorator@NEffectUpdateDecorator@@@@UAEPAXI@Z ENDP ; CDynamicPoolEx<NEffectUpdateDecorator::CAirResistanceDecorator>::`scalar deleting destructor'
_TEXT	ENDS
; Function compile flags: /Ogtp
; File D:\Metin2 Server Files\mainline\SRC_2014\Metin2Client\eterLib\Pool.h
;	COMDAT ?Delete@?$CDynamicPoolEx@VCAirResistanceDecorator@NEffectUpdateDecorator@@@@KAXPAVCAirResistanceDecorator@NEffectUpdateDecorator@@@Z
_TEXT	SEGMENT
_pkData$ = 8						; size = 4
?Delete@?$CDynamicPoolEx@VCAirResistanceDecorator@NEffectUpdateDecorator@@@@KAXPAVCAirResistanceDecorator@NEffectUpdateDecorator@@@Z PROC ; CDynamicPoolEx<NEffectUpdateDecorator::CAirResistanceDecorator>::Delete, COMDAT

; 224  : 			::operator delete(pkData);

  00000	e9 00 00 00 00	 jmp	 ??3@YAXPAX@Z		; operator delete
?Delete@?$CDynamicPoolEx@VCAirResistanceDecorator@NEffectUpdateDecorator@@@@KAXPAVCAirResistanceDecorator@NEffectUpdateDecorator@@@Z ENDP ; CDynamicPoolEx<NEffectUpdateDecorator::CAirResistanceDecorator>::Delete
_TEXT	ENDS
; Function compile flags: /Ogtp
; File D:\Metin2 Server Files\mainline\SRC_2014\Metin2Client\eterLib\Pool.h
; File C:\Program Files (x86)\Microsoft Visual Studio\2019\Community\VC\Tools\MSVC\14.28.29333\include\vector
; File C:\Program Files (x86)\Microsoft Visual Studio\2019\Community\VC\Tools\MSVC\14.28.29333\include\algorithm
; File D:\Metin2 Server Files\mainline\SRC_2014\Metin2Client\eterLib\Pool.h
; File C:\Program Files (x86)\Microsoft Visual Studio\2019\Community\VC\Tools\MSVC\14.28.29333\include\algorithm
; File D:\Metin2 Server Files\mainline\SRC_2014\Metin2Client\eterLib\Pool.h
; File C:\Program Files (x86)\Microsoft Visual Studio\2019\Community\VC\Tools\MSVC\14.28.29333\include\algorithm
; File D:\Metin2 Server Files\mainline\SRC_2014\Metin2Client\eterLib\Pool.h
; File C:\Program Files (x86)\Microsoft Visual Studio\2019\Community\VC\Tools\MSVC\14.28.29333\include\vector
; File C:\Program Files (x86)\Microsoft Visual Studio\2019\Community\VC\Tools\MSVC\14.28.29333\include\xmemory
; File C:\Program Files (x86)\Microsoft Visual Studio\2019\Community\VC\Tools\MSVC\14.28.29333\include\vector
; File C:\Program Files (x86)\Microsoft Visual Studio\2019\Community\VC\Tools\MSVC\14.28.29333\include\xmemory
; File C:\Program Files (x86)\Microsoft Visual Studio\2019\Community\VC\Tools\MSVC\14.28.29333\include\vector
; File C:\Program Files (x86)\Microsoft Visual Studio\2019\Community\VC\Tools\MSVC\14.28.29333\include\xmemory
; File C:\Program Files (x86)\Microsoft Visual Studio\2019\Community\VC\Tools\MSVC\14.28.29333\include\vector
; File C:\Program Files (x86)\Microsoft Visual Studio\2019\Community\VC\Tools\MSVC\14.28.29333\include\xmemory
; File C:\Program Files (x86)\Microsoft Visual Studio\2019\Community\VC\Tools\MSVC\14.28.29333\include\vector
; File D:\Metin2 Server Files\mainline\SRC_2014\Metin2Client\eterLib\Pool.h
;	COMDAT ??1?$CDynamicPoolEx@VCAirResistanceDecorator@NEffectUpdateDecorator@@@@UAE@XZ
_TEXT	SEGMENT
??1?$CDynamicPoolEx@VCAirResistanceDecorator@NEffectUpdateDecorator@@@@UAE@XZ PROC ; CDynamicPoolEx<NEffectUpdateDecorator::CAirResistanceDecorator>::~CDynamicPoolEx<NEffectUpdateDecorator::CAirResistanceDecorator>, COMDAT
; _this$ = ecx

; 132  : 		{

  00000	53		 push	 ebx
  00001	56		 push	 esi
  00002	57		 push	 edi
  00003	8b f9		 mov	 edi, ecx
  00005	c7 07 00 00 00
	00		 mov	 DWORD PTR [edi], OFFSET ??_7?$CDynamicPoolEx@VCAirResistanceDecorator@NEffectUpdateDecorator@@@@6B@
; File C:\Program Files (x86)\Microsoft Visual Studio\2019\Community\VC\Tools\MSVC\14.28.29333\include\vector

; 42   :     _Vector_const_iterator(_Tptr _Parg, const _Container_base* _Pvector) noexcept : _Ptr(_Parg) {

  0000b	8b 5f 08	 mov	 ebx, DWORD PTR [edi+8]
  0000e	8b 77 04	 mov	 esi, DWORD PTR [edi+4]
; File C:\Program Files (x86)\Microsoft Visual Studio\2019\Community\VC\Tools\MSVC\14.28.29333\include\algorithm

; 307  :     for (; _UFirst != _ULast; ++_UFirst) {

  00011	3b f3		 cmp	 esi, ebx
  00013	74 14		 je	 SHORT $LN19@CDynamicPo
$LL20@CDynamicPo:
; File D:\Metin2 Server Files\mainline\SRC_2014\Metin2Client\eterLib\Pool.h

; 224  : 			::operator delete(pkData);

  00015	ff 36		 push	 DWORD PTR [esi]
  00017	e8 00 00 00 00	 call	 ??3@YAXPAX@Z		; operator delete
; File C:\Program Files (x86)\Microsoft Visual Studio\2019\Community\VC\Tools\MSVC\14.28.29333\include\algorithm

; 307  :     for (; _UFirst != _ULast; ++_UFirst) {

  0001c	83 c6 04	 add	 esi, 4
; File D:\Metin2 Server Files\mainline\SRC_2014\Metin2Client\eterLib\Pool.h

; 224  : 			::operator delete(pkData);

  0001f	83 c4 04	 add	 esp, 4
; File C:\Program Files (x86)\Microsoft Visual Studio\2019\Community\VC\Tools\MSVC\14.28.29333\include\algorithm

; 307  :     for (; _UFirst != _ULast; ++_UFirst) {

  00022	3b f3		 cmp	 esi, ebx
  00024	75 ef		 jne	 SHORT $LL20@CDynamicPo
  00026	8b 77 04	 mov	 esi, DWORD PTR [edi+4]
$LN19@CDynamicPo:
; File D:\Metin2 Server Files\mainline\SRC_2014\Metin2Client\eterLib\Pool.h

; 162  : 			m_kVct_pkFree.clear();

  00029	8b 4f 10	 mov	 ecx, DWORD PTR [edi+16]
  0002c	89 77 08	 mov	 DWORD PTR [edi+8], esi
  0002f	89 4f 14	 mov	 DWORD PTR [edi+20], ecx
; File C:\Program Files (x86)\Microsoft Visual Studio\2019\Community\VC\Tools\MSVC\14.28.29333\include\vector

; 1694 :         if (_Myfirst) { // destroy and deallocate old array

  00032	85 c9		 test	 ecx, ecx
  00034	74 27		 je	 SHORT $LN27@CDynamicPo

; 1695 :             _Destroy(_Myfirst, _Mylast);
; 1696 :             _Getal().deallocate(_Myfirst, static_cast<size_type>(_Myend - _Myfirst));

  00036	8b 47 18	 mov	 eax, DWORD PTR [edi+24]
  00039	2b c1		 sub	 eax, ecx
; File C:\Program Files (x86)\Microsoft Visual Studio\2019\Community\VC\Tools\MSVC\14.28.29333\include\xmemory

; 810  :         _Deallocate<_New_alignof<_Ty>>(_Ptr, sizeof(_Ty) * _Count);

  0003b	83 e0 fc	 and	 eax, -4			; fffffffcH
  0003e	50		 push	 eax
  0003f	51		 push	 ecx
  00040	e8 00 00 00 00	 call	 ??$_Deallocate@$07$0A@@std@@YAXPAXI@Z ; std::_Deallocate<8,0>
; File C:\Program Files (x86)\Microsoft Visual Studio\2019\Community\VC\Tools\MSVC\14.28.29333\include\vector

; 1698 :             _Myfirst = pointer();

  00045	c7 47 10 00 00
	00 00		 mov	 DWORD PTR [edi+16], 0
; File C:\Program Files (x86)\Microsoft Visual Studio\2019\Community\VC\Tools\MSVC\14.28.29333\include\xmemory

; 810  :         _Deallocate<_New_alignof<_Ty>>(_Ptr, sizeof(_Ty) * _Count);

  0004c	83 c4 08	 add	 esp, 8
; File C:\Program Files (x86)\Microsoft Visual Studio\2019\Community\VC\Tools\MSVC\14.28.29333\include\vector

; 1699 :             _Mylast  = pointer();

  0004f	c7 47 14 00 00
	00 00		 mov	 DWORD PTR [edi+20], 0

; 1700 :             _Myend   = pointer();

  00056	c7 47 18 00 00
	00 00		 mov	 DWORD PTR [edi+24], 0
$LN27@CDynamicPo:

; 1694 :         if (_Myfirst) { // destroy and deallocate old array

  0005d	8b 4f 04	 mov	 ecx, DWORD PTR [edi+4]
  00060	85 c9		 test	 ecx, ecx
  00062	74 27		 je	 SHORT $LN34@CDynamicPo

; 1695 :             _Destroy(_Myfirst, _Mylast);
; 1696 :             _Getal().deallocate(_Myfirst, static_cast<size_type>(_Myend - _Myfirst));

  00064	8b 47 0c	 mov	 eax, DWORD PTR [edi+12]
  00067	2b c1		 sub	 eax, ecx
; File C:\Program Files (x86)\Microsoft Visual Studio\2019\Community\VC\Tools\MSVC\14.28.29333\include\xmemory

; 810  :         _Deallocate<_New_alignof<_Ty>>(_Ptr, sizeof(_Ty) * _Count);

  00069	83 e0 fc	 and	 eax, -4			; fffffffcH
  0006c	50		 push	 eax
  0006d	51		 push	 ecx
  0006e	e8 00 00 00 00	 call	 ??$_Deallocate@$07$0A@@std@@YAXPAXI@Z ; std::_Deallocate<8,0>
; File C:\Program Files (x86)\Microsoft Visual Studio\2019\Community\VC\Tools\MSVC\14.28.29333\include\vector

; 1698 :             _Myfirst = pointer();

  00073	c7 47 04 00 00
	00 00		 mov	 DWORD PTR [edi+4], 0
; File C:\Program Files (x86)\Microsoft Visual Studio\2019\Community\VC\Tools\MSVC\14.28.29333\include\xmemory

; 810  :         _Deallocate<_New_alignof<_Ty>>(_Ptr, sizeof(_Ty) * _Count);

  0007a	83 c4 08	 add	 esp, 8
; File C:\Program Files (x86)\Microsoft Visual Studio\2019\Community\VC\Tools\MSVC\14.28.29333\include\vector

; 1699 :             _Mylast  = pointer();

  0007d	c7 47 08 00 00
	00 00		 mov	 DWORD PTR [edi+8], 0

; 1700 :             _Myend   = pointer();

  00084	c7 47 0c 00 00
	00 00		 mov	 DWORD PTR [edi+12], 0
$LN34@CDynamicPo:
  0008b	5f		 pop	 edi
; File D:\Metin2 Server Files\mainline\SRC_2014\Metin2Client\eterLib\Pool.h

; 142  : 		}

  0008c	5e		 pop	 esi
  0008d	5b		 pop	 ebx
  0008e	c3		 ret	 0
??1?$CDynamicPoolEx@VCAirResistanceDecorator@NEffectUpdateDecorator@@@@UAE@XZ ENDP ; CDynamicPoolEx<NEffectUpdateDecorator::CAirResistanceDecorator>::~CDynamicPoolEx<NEffectUpdateDecorator::CAirResistanceDecorator>
_TEXT	ENDS
; Function compile flags: /Ogtp
;	COMDAT ??_G?$CDynamicPoolEx@VCGravityDecorator@NEffectUpdateDecorator@@@@UAEPAXI@Z
_TEXT	SEGMENT
___flags$ = 8						; size = 4
??_G?$CDynamicPoolEx@VCGravityDecorator@NEffectUpdateDecorator@@@@UAEPAXI@Z PROC ; CDynamicPoolEx<NEffectUpdateDecorator::CGravityDecorator>::`scalar deleting destructor', COMDAT
; _this$ = ecx
  00000	55		 push	 ebp
  00001	8b ec		 mov	 ebp, esp
  00003	56		 push	 esi
  00004	8b f1		 mov	 esi, ecx
  00006	e8 00 00 00 00	 call	 ??1?$CDynamicPoolEx@VCGravityDecorator@NEffectUpdateDecorator@@@@UAE@XZ ; CDynamicPoolEx<NEffectUpdateDecorator::CGravityDecorator>::~CDynamicPoolEx<NEffectUpdateDecorator::CGravityDecorator>
  0000b	f6 45 08 01	 test	 BYTE PTR ___flags$[ebp], 1
  0000f	74 0b		 je	 SHORT $LN4@scalar
  00011	6a 24		 push	 36			; 00000024H
  00013	56		 push	 esi
  00014	e8 00 00 00 00	 call	 ??3@YAXPAXI@Z		; operator delete
  00019	83 c4 08	 add	 esp, 8
$LN4@scalar:
  0001c	8b c6		 mov	 eax, esi
  0001e	5e		 pop	 esi
  0001f	5d		 pop	 ebp
  00020	c2 04 00	 ret	 4
??_G?$CDynamicPoolEx@VCGravityDecorator@NEffectUpdateDecorator@@@@UAEPAXI@Z ENDP ; CDynamicPoolEx<NEffectUpdateDecorator::CGravityDecorator>::`scalar deleting destructor'
_TEXT	ENDS
; Function compile flags: /Ogtp
; File D:\Metin2 Server Files\mainline\SRC_2014\Metin2Client\eterLib\Pool.h
;	COMDAT ?Delete@?$CDynamicPoolEx@VCGravityDecorator@NEffectUpdateDecorator@@@@KAXPAVCGravityDecorator@NEffectUpdateDecorator@@@Z
_TEXT	SEGMENT
_pkData$ = 8						; size = 4
?Delete@?$CDynamicPoolEx@VCGravityDecorator@NEffectUpdateDecorator@@@@KAXPAVCGravityDecorator@NEffectUpdateDecorator@@@Z PROC ; CDynamicPoolEx<NEffectUpdateDecorator::CGravityDecorator>::Delete, COMDAT

; 224  : 			::operator delete(pkData);

  00000	e9 00 00 00 00	 jmp	 ??3@YAXPAX@Z		; operator delete
?Delete@?$CDynamicPoolEx@VCGravityDecorator@NEffectUpdateDecorator@@@@KAXPAVCGravityDecorator@NEffectUpdateDecorator@@@Z ENDP ; CDynamicPoolEx<NEffectUpdateDecorator::CGravityDecorator>::Delete
_TEXT	ENDS
; Function compile flags: /Ogtp
; File D:\Metin2 Server Files\mainline\SRC_2014\Metin2Client\eterLib\Pool.h
; File C:\Program Files (x86)\Microsoft Visual Studio\2019\Community\VC\Tools\MSVC\14.28.29333\include\vector
; File C:\Program Files (x86)\Microsoft Visual Studio\2019\Community\VC\Tools\MSVC\14.28.29333\include\algorithm
; File D:\Metin2 Server Files\mainline\SRC_2014\Metin2Client\eterLib\Pool.h
; File C:\Program Files (x86)\Microsoft Visual Studio\2019\Community\VC\Tools\MSVC\14.28.29333\include\algorithm
; File D:\Metin2 Server Files\mainline\SRC_2014\Metin2Client\eterLib\Pool.h
; File C:\Program Files (x86)\Microsoft Visual Studio\2019\Community\VC\Tools\MSVC\14.28.29333\include\algorithm
; File D:\Metin2 Server Files\mainline\SRC_2014\Metin2Client\eterLib\Pool.h
; File C:\Program Files (x86)\Microsoft Visual Studio\2019\Community\VC\Tools\MSVC\14.28.29333\include\vector
; File C:\Program Files (x86)\Microsoft Visual Studio\2019\Community\VC\Tools\MSVC\14.28.29333\include\xmemory
; File C:\Program Files (x86)\Microsoft Visual Studio\2019\Community\VC\Tools\MSVC\14.28.29333\include\vector
; File C:\Program Files (x86)\Microsoft Visual Studio\2019\Community\VC\Tools\MSVC\14.28.29333\include\xmemory
; File C:\Program Files (x86)\Microsoft Visual Studio\2019\Community\VC\Tools\MSVC\14.28.29333\include\vector
; File C:\Program Files (x86)\Microsoft Visual Studio\2019\Community\VC\Tools\MSVC\14.28.29333\include\xmemory
; File C:\Program Files (x86)\Microsoft Visual Studio\2019\Community\VC\Tools\MSVC\14.28.29333\include\vector
; File C:\Program Files (x86)\Microsoft Visual Studio\2019\Community\VC\Tools\MSVC\14.28.29333\include\xmemory
; File C:\Program Files (x86)\Microsoft Visual Studio\2019\Community\VC\Tools\MSVC\14.28.29333\include\vector
; File D:\Metin2 Server Files\mainline\SRC_2014\Metin2Client\eterLib\Pool.h
;	COMDAT ??1?$CDynamicPoolEx@VCGravityDecorator@NEffectUpdateDecorator@@@@UAE@XZ
_TEXT	SEGMENT
??1?$CDynamicPoolEx@VCGravityDecorator@NEffectUpdateDecorator@@@@UAE@XZ PROC ; CDynamicPoolEx<NEffectUpdateDecorator::CGravityDecorator>::~CDynamicPoolEx<NEffectUpdateDecorator::CGravityDecorator>, COMDAT
; _this$ = ecx

; 132  : 		{

  00000	53		 push	 ebx
  00001	56		 push	 esi
  00002	57		 push	 edi
  00003	8b f9		 mov	 edi, ecx
  00005	c7 07 00 00 00
	00		 mov	 DWORD PTR [edi], OFFSET ??_7?$CDynamicPoolEx@VCGravityDecorator@NEffectUpdateDecorator@@@@6B@
; File C:\Program Files (x86)\Microsoft Visual Studio\2019\Community\VC\Tools\MSVC\14.28.29333\include\vector

; 42   :     _Vector_const_iterator(_Tptr _Parg, const _Container_base* _Pvector) noexcept : _Ptr(_Parg) {

  0000b	8b 5f 08	 mov	 ebx, DWORD PTR [edi+8]
  0000e	8b 77 04	 mov	 esi, DWORD PTR [edi+4]
; File C:\Program Files (x86)\Microsoft Visual Studio\2019\Community\VC\Tools\MSVC\14.28.29333\include\algorithm

; 307  :     for (; _UFirst != _ULast; ++_UFirst) {

  00011	3b f3		 cmp	 esi, ebx
  00013	74 14		 je	 SHORT $LN19@CDynamicPo
$LL20@CDynamicPo:
; File D:\Metin2 Server Files\mainline\SRC_2014\Metin2Client\eterLib\Pool.h

